	.text
	.syntax unified
	.eabi_attribute	67, "2.09"	@ Tag_conformance
	.cpu	cortex-m23
	.eabi_attribute	6, 16	@ Tag_CPU_arch
	.eabi_attribute	7, 77	@ Tag_CPU_arch_profile
	.eabi_attribute	8, 0	@ Tag_ARM_ISA_use
	.eabi_attribute	9, 3	@ Tag_THUMB_ISA_use
	.eabi_attribute	34, 0	@ Tag_CPU_unaligned_access
	.eabi_attribute	17, 1	@ Tag_ABI_PCS_GOT_use
	.eabi_attribute	20, 2	@ Tag_ABI_FP_denormal
	.eabi_attribute	21, 0	@ Tag_ABI_FP_exceptions
	.eabi_attribute	23, 1	@ Tag_ABI_FP_number_model
	.eabi_attribute	24, 1	@ Tag_ABI_align_needed
	.eabi_attribute	25, 1	@ Tag_ABI_align_preserved
	.eabi_attribute	38, 1	@ Tag_ABI_FP_16bit_format
	.eabi_attribute	18, 2	@ Tag_ABI_PCS_wchar_t
	.eabi_attribute	26, 1	@ Tag_ABI_enum_size
	.eabi_attribute	14, 0	@ Tag_ABI_PCS_R9_use
	.file	"i2c.c"
	.file	1 "C:\\" "Keil_v5\\ARM\\ARMCLANG\\Bin\\..\\include\\stdint.h"
	.file	2 "C:\\Users\\shw26\\OneDrive\\Desktop\\2021\\2021-1\\\354\272\241\354\212\244\355\206\244\353\224\224\354\236\220\354\235\2702\\Nuvoton\\M2351_BSP_v3.00.004\\M2351Series_BSP_CMSIS_V3.00.004\\MyProject\\NonSecure" "../../Library/Device/Nuvoton/M2351/Include/i2c_reg.h"
	.file	3 "C:\\Users\\shw26\\OneDrive\\Desktop\\2021\\2021-1\\\354\272\241\354\212\244\355\206\244\353\224\224\354\236\220\354\235\2702\\Nuvoton\\M2351_BSP_v3.00.004\\M2351Series_BSP_CMSIS_V3.00.004\\MyProject\\NonSecure" "../../Library/Device/Nuvoton/M2351/Include/sys_reg.h"
	.section	.text.I2C_Open,"ax",%progbits
	.hidden	I2C_Open                        @ -- Begin function I2C_Open
	.globl	I2C_Open
	.p2align	2
	.type	I2C_Open,%function
	.code	16                              @ @I2C_Open
	.thumb_func
I2C_Open:
.Lfunc_begin0:
	.file	4 "C:\\Users\\shw26\\OneDrive\\Desktop\\2021\\2021-1\\\354\272\241\354\212\244\355\206\244\353\224\224\354\236\220\354\235\2702\\Nuvoton\\M2351_BSP_v3.00.004\\M2351Series_BSP_CMSIS_V3.00.004\\MyProject\\NonSecure" "../../Library/StdDriver/src/i2c.c"
	.loc	4 40 0                          @ ../../Library/StdDriver/src/i2c.c:40:0
	.fnstart
	.cfi_sections .debug_frame
	.cfi_startproc
@ %bb.0:
	@DEBUG_VALUE: I2C_Open:i2c <- $r0
	@DEBUG_VALUE: I2C_Open:u32BusClock <- $r1
	.save	{r4, r5, r7, lr}
	push	{r4, r5, r7, lr}
	.cfi_def_cfa_offset 16
	.cfi_offset lr, -4
	.cfi_offset r7, -8
	.cfi_offset r5, -12
	.cfi_offset r4, -16
	mov	r5, r1
	mov	r4, r0
	movs	r0, #1
.Ltmp0:
	@DEBUG_VALUE: I2C_Open:i2c <- [DW_OP_LLVM_entry_value 1] $r0
	lsls	r0, r0, #28
.Ltmp1:
	@DEBUG_VALUE: I2C_Open:u32BusClock <- $r5
	@DEBUG_VALUE: I2C_Open:i2c <- $r4
	.loc	4 44 22 prologue_end            @ ../../Library/StdDriver/src/i2c.c:44:22
	orrs	r0, r4
	ldr	r1, __arm_cp.0_0
	cmp	r0, r1
	bne	.LBB0_2
.Ltmp2:
@ %bb.1:
	@DEBUG_VALUE: I2C_Open:u32BusClock <- $r5
	@DEBUG_VALUE: I2C_Open:i2c <- $r4
	.loc	4 46 19                         @ ../../Library/StdDriver/src/i2c.c:46:19
	bl	CLK_GetPCLK1Freq
.Ltmp3:
	@DEBUG_VALUE: I2C_Open:u32Pclk <- $r0
	.loc	4 47 5                          @ ../../Library/StdDriver/src/i2c.c:47:5
	b	.LBB0_3
.Ltmp4:
.LBB0_2:
	@DEBUG_VALUE: I2C_Open:u32BusClock <- $r5
	@DEBUG_VALUE: I2C_Open:i2c <- $r4
	.loc	4 50 19                         @ ../../Library/StdDriver/src/i2c.c:50:19
	bl	CLK_GetPCLK0Freq
.Ltmp5:
	@DEBUG_VALUE: I2C_Open:u32Pclk <- $r0
.LBB0_3:
	@DEBUG_VALUE: I2C_Open:u32BusClock <- $r5
	@DEBUG_VALUE: I2C_Open:i2c <- $r4
	@DEBUG_VALUE: I2C_Open:u32Pclk <- $r0
	@DEBUG_VALUE: I2C_Open:u32Pclk <- $r0
	.loc	4 0 19 is_stmt 0                @ ../../Library/StdDriver/src/i2c.c:0:19
	movs	r1, #10
	.loc	4 53 35 is_stmt 1               @ ../../Library/StdDriver/src/i2c.c:53:35
	mov	r2, r1
	muls	r2, r0, r2
	.loc	4 53 57 is_stmt 0               @ ../../Library/StdDriver/src/i2c.c:53:57
	lsls	r3, r5, #2
	.loc	4 53 42                         @ ../../Library/StdDriver/src/i2c.c:53:42
	udiv	r2, r2, r3
	.loc	4 53 63                         @ ../../Library/StdDriver/src/i2c.c:53:63
	adds	r2, r2, #5
	.loc	4 53 69                         @ ../../Library/StdDriver/src/i2c.c:53:69
	udiv	r1, r2, r1
	.loc	4 53 75                         @ ../../Library/StdDriver/src/i2c.c:53:75
	subs	r2, r1, #1
.Ltmp6:
	@DEBUG_VALUE: I2C_Open:u32Div <- $r2
	.loc	4 54 17 is_stmt 1               @ ../../Library/StdDriver/src/i2c.c:54:17
	str	r2, [r4, #16]
	.loc	4 57 15                         @ ../../Library/StdDriver/src/i2c.c:57:15
	ldr	r2, [r4]
.Ltmp7:
	.loc	4 0 15 is_stmt 0                @ ../../Library/StdDriver/src/i2c.c:0:15
	movs	r3, #64
	.loc	4 57 15                         @ ../../Library/StdDriver/src/i2c.c:57:15
	orrs	r3, r2
	str	r3, [r4]
	.loc	4 59 38 is_stmt 1               @ ../../Library/StdDriver/src/i2c.c:59:38
	lsls	r1, r1, #2
	.loc	4 59 21 is_stmt 0               @ ../../Library/StdDriver/src/i2c.c:59:21
	udiv	r0, r0, r1
.Ltmp8:
	.loc	4 59 5                          @ ../../Library/StdDriver/src/i2c.c:59:5
	pop	{r4, r5, r7, pc}
.Ltmp9:
	.p2align	2
@ %bb.4:
	.loc	4 0 5                           @ ../../Library/StdDriver/src/i2c.c:0:5
__arm_cp.0_0:
	.long	1342705664                      @ 0x50081000
.Lcpi_end0:
	.size	__arm_cp.0_0, .Lcpi_end0-__arm_cp.0_0
.Lfunc_end0:
	.size	I2C_Open, .Lfunc_end0-I2C_Open
	.cfi_endproc
	.cantunwind
	.fnend
                                        @ -- End function
	.section	.text.I2C_Close,"ax",%progbits
	.hidden	I2C_Close                       @ -- Begin function I2C_Close
	.globl	I2C_Close
	.p2align	2
	.type	I2C_Close,%function
	.code	16                              @ @I2C_Close
	.thumb_func
I2C_Close:
.Lfunc_begin1:
	.loc	4 74 0 is_stmt 1                @ ../../Library/StdDriver/src/i2c.c:74:0
	.fnstart
	.cfi_startproc
@ %bb.0:
	@DEBUG_VALUE: I2C_Close:i2c <- $r0
	.save	{r4, lr}
	push	{r4, lr}
	.cfi_def_cfa_offset 8
	.cfi_offset lr, -4
	.cfi_offset r4, -8
	ldr	r1, __arm_cp.1_1
	@DEBUG_VALUE: I2C_Close:i2c <- $r0
.Ltmp10:
	.loc	4 76 8 prologue_end             @ ../../Library/StdDriver/src/i2c.c:76:8
	cmp	r0, r1
	beq	.LBB1_4
.Ltmp11:
@ %bb.1:
	@DEBUG_VALUE: I2C_Close:i2c <- $r0
	.loc	4 0 8 is_stmt 0                 @ ../../Library/StdDriver/src/i2c.c:0:8
	ldr	r1, __arm_cp.1_2
	.loc	4 76 8                          @ ../../Library/StdDriver/src/i2c.c:76:8
	cmp	r0, r1
	beq	.LBB1_5
.Ltmp12:
@ %bb.2:
	@DEBUG_VALUE: I2C_Close:i2c <- $r0
	.loc	4 0 8                           @ ../../Library/StdDriver/src/i2c.c:0:8
	ldr	r1, __arm_cp.1_3
	.loc	4 76 8                          @ ../../Library/StdDriver/src/i2c.c:76:8
	cmp	r0, r1
	bne	.LBB1_7
.Ltmp13:
@ %bb.3:
	@DEBUG_VALUE: I2C_Close:i2c <- $r0
	.loc	4 0 8                           @ ../../Library/StdDriver/src/i2c.c:0:8
	ldr	r1, __arm_cp.1_5
	movw	r2, #512
	b	.LBB1_6
.Ltmp14:
.LBB1_4:
	@DEBUG_VALUE: I2C_Close:i2c <- $r0
	ldr	r1, __arm_cp.1_0
	movw	r2, #256
	b	.LBB1_6
.Ltmp15:
.LBB1_5:
	@DEBUG_VALUE: I2C_Close:i2c <- $r0
	ldr	r1, __arm_cp.1_4
	movw	r2, #1024
.Ltmp16:
.LBB1_6:
	@DEBUG_VALUE: I2C_Close:i2c <- $r0
	ldr	r3, __arm_cp.1_6
.Ltmp17:
	ldr	r4, [r3]
	orrs	r4, r2
	str	r4, [r3]
	ldr	r2, [r3]
	ands	r2, r1
	str	r2, [r3]
.Ltmp18:
.LBB1_7:
	@DEBUG_VALUE: I2C_Close:i2c <- $r0
	.loc	4 93 15 is_stmt 1               @ ../../Library/StdDriver/src/i2c.c:93:15
	ldr	r1, [r0]
	movs	r2, #64
	bics	r1, r2
	str	r1, [r0]
	.loc	4 94 1                          @ ../../Library/StdDriver/src/i2c.c:94:1
	pop	{r4, pc}
.Ltmp19:
	.p2align	2
@ %bb.8:
	.loc	4 0 1 is_stmt 0                 @ ../../Library/StdDriver/src/i2c.c:0:1
__arm_cp.1_0:
	.long	4294967039                      @ 0xfffffeff
.Lcpi_end1:
	.size	__arm_cp.1_0, .Lcpi_end1-__arm_cp.1_0
__arm_cp.1_1:
	.long	1074266112                      @ 0x40080000
.Lcpi_end2:
	.size	__arm_cp.1_1, .Lcpi_end2-__arm_cp.1_1
__arm_cp.1_2:
	.long	1074274304                      @ 0x40082000
.Lcpi_end3:
	.size	__arm_cp.1_2, .Lcpi_end3-__arm_cp.1_2
__arm_cp.1_3:
	.long	1074270208                      @ 0x40081000
.Lcpi_end4:
	.size	__arm_cp.1_3, .Lcpi_end4-__arm_cp.1_3
__arm_cp.1_4:
	.long	4294966271                      @ 0xfffffbff
.Lcpi_end5:
	.size	__arm_cp.1_4, .Lcpi_end5-__arm_cp.1_4
__arm_cp.1_5:
	.long	4294966783                      @ 0xfffffdff
.Lcpi_end6:
	.size	__arm_cp.1_5, .Lcpi_end6-__arm_cp.1_5
__arm_cp.1_6:
	.long	1073741836                      @ 0x4000000c
.Lcpi_end7:
	.size	__arm_cp.1_6, .Lcpi_end7-__arm_cp.1_6
.Lfunc_end1:
	.size	I2C_Close, .Lfunc_end1-I2C_Close
	.cfi_endproc
	.cantunwind
	.fnend
                                        @ -- End function
	.section	.text.I2C_ClearTimeoutFlag,"ax",%progbits
	.hidden	I2C_ClearTimeoutFlag            @ -- Begin function I2C_ClearTimeoutFlag
	.globl	I2C_ClearTimeoutFlag
	.p2align	1
	.type	I2C_ClearTimeoutFlag,%function
	.code	16                              @ @I2C_ClearTimeoutFlag
	.thumb_func
I2C_ClearTimeoutFlag:
.Lfunc_begin2:
	.loc	4 107 0 is_stmt 1               @ ../../Library/StdDriver/src/i2c.c:107:0
	.fnstart
	.cfi_startproc
@ %bb.0:
	@DEBUG_VALUE: I2C_ClearTimeoutFlag:i2c <- $r0
	@DEBUG_VALUE: I2C_ClearTimeoutFlag:i2c <- $r0
	.loc	4 108 16 prologue_end           @ ../../Library/StdDriver/src/i2c.c:108:16
	ldr	r1, [r0, #20]
	movs	r2, #1
	orrs	r2, r1
	str	r2, [r0, #20]
	.loc	4 109 1                         @ ../../Library/StdDriver/src/i2c.c:109:1
	bx	lr
.Ltmp20:
.Lfunc_end2:
	.size	I2C_ClearTimeoutFlag, .Lfunc_end2-I2C_ClearTimeoutFlag
	.cfi_endproc
	.cantunwind
	.fnend
                                        @ -- End function
	.section	.text.I2C_Trigger,"ax",%progbits
	.hidden	I2C_Trigger                     @ -- Begin function I2C_Trigger
	.globl	I2C_Trigger
	.p2align	1
	.type	I2C_Trigger,%function
	.code	16                              @ @I2C_Trigger
	.thumb_func
I2C_Trigger:
.Lfunc_begin3:
	.loc	4 126 0                         @ ../../Library/StdDriver/src/i2c.c:126:0
	.fnstart
	.cfi_startproc
@ %bb.0:
	@DEBUG_VALUE: I2C_Trigger:i2c <- $r0
	@DEBUG_VALUE: I2C_Trigger:u8Start <- $r1
	@DEBUG_VALUE: I2C_Trigger:u8Start <- $r1
	@DEBUG_VALUE: I2C_Trigger:u8Stop <- $r2
	@DEBUG_VALUE: I2C_Trigger:u8Si <- $r3
	.save	{r4, lr}
	push	{r4, lr}
	.cfi_def_cfa_offset 8
	.cfi_offset lr, -4
	.cfi_offset r4, -8
	subs	r4, r1, #1
	sbcs	r1, r4
.Ltmp21:
	@DEBUG_VALUE: I2C_Trigger:u8Start <- [DW_OP_LLVM_entry_value 1] $r1
	@DEBUG_VALUE: I2C_Trigger:u32Reg <- 0
	@DEBUG_VALUE: I2C_Trigger:u8Si <- $r3
	@DEBUG_VALUE: I2C_Trigger:u8Stop <- $r2
	@DEBUG_VALUE: I2C_Trigger:i2c <- $r0
	.loc	4 129 8 prologue_end            @ ../../Library/StdDriver/src/i2c.c:129:8
	lsls	r1, r1, #5
.Ltmp22:
	@DEBUG_VALUE: I2C_Trigger:u32Reg <- $r1
	.loc	4 133 8                         @ ../../Library/StdDriver/src/i2c.c:133:8
	cbz	r2, .LBB3_2
.Ltmp23:
@ %bb.1:
	@DEBUG_VALUE: I2C_Trigger:u8Si <- $r3
	@DEBUG_VALUE: I2C_Trigger:u8Stop <- $r2
	@DEBUG_VALUE: I2C_Trigger:u32Reg <- $r1
	@DEBUG_VALUE: I2C_Trigger:i2c <- $r0
	@DEBUG_VALUE: I2C_Trigger:u8Start <- [DW_OP_LLVM_entry_value 1] $r1
	.loc	4 0 8 is_stmt 0                 @ ../../Library/StdDriver/src/i2c.c:0:8
	adds	r1, #16
.Ltmp24:
.LBB3_2:
	@DEBUG_VALUE: I2C_Trigger:u8Si <- $r3
	@DEBUG_VALUE: I2C_Trigger:u8Stop <- $r2
	@DEBUG_VALUE: I2C_Trigger:i2c <- $r0
	@DEBUG_VALUE: I2C_Trigger:u8Start <- [DW_OP_LLVM_entry_value 1] $r1
	@DEBUG_VALUE: I2C_Trigger:u32Reg <- $r1
	.loc	4 137 8 is_stmt 1               @ ../../Library/StdDriver/src/i2c.c:137:8
	cbz	r3, .LBB3_4
.Ltmp25:
@ %bb.3:
	@DEBUG_VALUE: I2C_Trigger:u8Si <- $r3
	@DEBUG_VALUE: I2C_Trigger:u8Stop <- $r2
	@DEBUG_VALUE: I2C_Trigger:u32Reg <- $r1
	@DEBUG_VALUE: I2C_Trigger:i2c <- $r0
	@DEBUG_VALUE: I2C_Trigger:u8Start <- [DW_OP_LLVM_entry_value 1] $r1
	.loc	4 0 8 is_stmt 0                 @ ../../Library/StdDriver/src/i2c.c:0:8
	adds	r1, #8
.Ltmp26:
.LBB3_4:
	@DEBUG_VALUE: I2C_Trigger:u8Si <- $r3
	@DEBUG_VALUE: I2C_Trigger:u8Stop <- $r2
	@DEBUG_VALUE: I2C_Trigger:i2c <- $r0
	@DEBUG_VALUE: I2C_Trigger:u8Start <- [DW_OP_LLVM_entry_value 1] $r1
	@DEBUG_VALUE: I2C_Trigger:u32Reg <- $r1
	ldr	r2, [sp, #8]
.Ltmp27:
	@DEBUG_VALUE: I2C_Trigger:u8Stop <- [DW_OP_LLVM_entry_value 1] $r2
	@DEBUG_VALUE: I2C_Trigger:u8Ack <- $r2
	.loc	4 141 8 is_stmt 1               @ ../../Library/StdDriver/src/i2c.c:141:8
	cbz	r2, .LBB3_6
.Ltmp28:
@ %bb.5:
	@DEBUG_VALUE: I2C_Trigger:u8Si <- $r3
	@DEBUG_VALUE: I2C_Trigger:u8Ack <- $r2
	@DEBUG_VALUE: I2C_Trigger:u32Reg <- $r1
	@DEBUG_VALUE: I2C_Trigger:i2c <- $r0
	@DEBUG_VALUE: I2C_Trigger:u8Stop <- [DW_OP_LLVM_entry_value 1] $r2
	@DEBUG_VALUE: I2C_Trigger:u8Start <- [DW_OP_LLVM_entry_value 1] $r1
	.loc	4 0 8 is_stmt 0                 @ ../../Library/StdDriver/src/i2c.c:0:8
	adds	r1, r1, #4
.Ltmp29:
.LBB3_6:
	@DEBUG_VALUE: I2C_Trigger:u8Si <- $r3
	@DEBUG_VALUE: I2C_Trigger:u8Ack <- $r2
	@DEBUG_VALUE: I2C_Trigger:i2c <- $r0
	@DEBUG_VALUE: I2C_Trigger:u8Stop <- [DW_OP_LLVM_entry_value 1] $r2
	@DEBUG_VALUE: I2C_Trigger:u8Start <- [DW_OP_LLVM_entry_value 1] $r1
	@DEBUG_VALUE: I2C_Trigger:u32Reg <- $r1
	.loc	4 146 23 is_stmt 1              @ ../../Library/StdDriver/src/i2c.c:146:23
	ldr	r2, [r0]
.Ltmp30:
	.loc	4 0 23 is_stmt 0                @ ../../Library/StdDriver/src/i2c.c:0:23
	movs	r3, #60
.Ltmp31:
	@DEBUG_VALUE: I2C_Trigger:u8Si <- [DW_OP_LLVM_entry_value 1] $r3
	.loc	4 146 28                        @ ../../Library/StdDriver/src/i2c.c:146:28
	bics	r2, r3
	.loc	4 146 38                        @ ../../Library/StdDriver/src/i2c.c:146:38
	orrs	r2, r1
	.loc	4 146 15                        @ ../../Library/StdDriver/src/i2c.c:146:15
	str	r2, [r0]
	.loc	4 147 1 is_stmt 1               @ ../../Library/StdDriver/src/i2c.c:147:1
	pop	{r4, pc}
.Ltmp32:
.Lfunc_end3:
	.size	I2C_Trigger, .Lfunc_end3-I2C_Trigger
	.cfi_endproc
	.cantunwind
	.fnend
                                        @ -- End function
	.section	.text.I2C_DisableInt,"ax",%progbits
	.hidden	I2C_DisableInt                  @ -- Begin function I2C_DisableInt
	.globl	I2C_DisableInt
	.p2align	1
	.type	I2C_DisableInt,%function
	.code	16                              @ @I2C_DisableInt
	.thumb_func
I2C_DisableInt:
.Lfunc_begin4:
	.loc	4 160 0                         @ ../../Library/StdDriver/src/i2c.c:160:0
	.fnstart
	.cfi_startproc
@ %bb.0:
	@DEBUG_VALUE: I2C_DisableInt:i2c <- $r0
	@DEBUG_VALUE: I2C_DisableInt:i2c <- $r0
	.loc	4 161 15 prologue_end           @ ../../Library/StdDriver/src/i2c.c:161:15
	ldr	r1, [r0]
	movs	r2, #128
	bics	r1, r2
	str	r1, [r0]
	.loc	4 162 1                         @ ../../Library/StdDriver/src/i2c.c:162:1
	bx	lr
.Ltmp33:
.Lfunc_end4:
	.size	I2C_DisableInt, .Lfunc_end4-I2C_DisableInt
	.cfi_endproc
	.cantunwind
	.fnend
                                        @ -- End function
	.section	.text.I2C_EnableInt,"ax",%progbits
	.hidden	I2C_EnableInt                   @ -- Begin function I2C_EnableInt
	.globl	I2C_EnableInt
	.p2align	1
	.type	I2C_EnableInt,%function
	.code	16                              @ @I2C_EnableInt
	.thumb_func
I2C_EnableInt:
.Lfunc_begin5:
	.loc	4 175 0                         @ ../../Library/StdDriver/src/i2c.c:175:0
	.fnstart
	.cfi_startproc
@ %bb.0:
	@DEBUG_VALUE: I2C_EnableInt:i2c <- $r0
	@DEBUG_VALUE: I2C_EnableInt:i2c <- $r0
	.loc	4 176 15 prologue_end           @ ../../Library/StdDriver/src/i2c.c:176:15
	ldr	r1, [r0]
	movs	r2, #128
	orrs	r2, r1
	str	r2, [r0]
	.loc	4 177 1                         @ ../../Library/StdDriver/src/i2c.c:177:1
	bx	lr
.Ltmp34:
.Lfunc_end5:
	.size	I2C_EnableInt, .Lfunc_end5-I2C_EnableInt
	.cfi_endproc
	.cantunwind
	.fnend
                                        @ -- End function
	.section	.text.I2C_GetBusClockFreq,"ax",%progbits
	.hidden	I2C_GetBusClockFreq             @ -- Begin function I2C_GetBusClockFreq
	.globl	I2C_GetBusClockFreq
	.p2align	2
	.type	I2C_GetBusClockFreq,%function
	.code	16                              @ @I2C_GetBusClockFreq
	.thumb_func
I2C_GetBusClockFreq:
.Lfunc_begin6:
	.loc	4 189 0                         @ ../../Library/StdDriver/src/i2c.c:189:0
	.fnstart
	.cfi_startproc
@ %bb.0:
	@DEBUG_VALUE: I2C_GetBusClockFreq:i2c <- $r0
	.save	{r4, lr}
	push	{r4, lr}
	.cfi_def_cfa_offset 8
	.cfi_offset lr, -4
	.cfi_offset r4, -8
	movs	r1, #1
	lsls	r1, r1, #28
	@DEBUG_VALUE: I2C_GetBusClockFreq:i2c <- $r0
.Ltmp35:
	.loc	4 193 22 prologue_end           @ ../../Library/StdDriver/src/i2c.c:193:22
	orrs	r1, r0
.Ltmp36:
	.loc	4 190 32                        @ ../../Library/StdDriver/src/i2c.c:190:32
	ldr	r4, [r0, #16]
.Ltmp37:
	@DEBUG_VALUE: I2C_GetBusClockFreq:u32Divider <- $r4
	.loc	4 0 32 is_stmt 0                @ ../../Library/StdDriver/src/i2c.c:0:32
	ldr	r0, __arm_cp.6_0
.Ltmp38:
	@DEBUG_VALUE: I2C_GetBusClockFreq:i2c <- [DW_OP_LLVM_entry_value 1] $r0
	.loc	4 193 22 is_stmt 1              @ ../../Library/StdDriver/src/i2c.c:193:22
	cmp	r1, r0
	bne	.LBB6_2
.Ltmp39:
@ %bb.1:
	@DEBUG_VALUE: I2C_GetBusClockFreq:u32Divider <- $r4
	@DEBUG_VALUE: I2C_GetBusClockFreq:i2c <- [DW_OP_LLVM_entry_value 1] $r0
	.loc	4 195 19                        @ ../../Library/StdDriver/src/i2c.c:195:19
	bl	CLK_GetPCLK1Freq
.Ltmp40:
	@DEBUG_VALUE: I2C_GetBusClockFreq:u32Pclk <- $r0
	.loc	4 196 5                         @ ../../Library/StdDriver/src/i2c.c:196:5
	b	.LBB6_3
.Ltmp41:
.LBB6_2:
	@DEBUG_VALUE: I2C_GetBusClockFreq:u32Divider <- $r4
	@DEBUG_VALUE: I2C_GetBusClockFreq:i2c <- [DW_OP_LLVM_entry_value 1] $r0
	.loc	4 199 19                        @ ../../Library/StdDriver/src/i2c.c:199:19
	bl	CLK_GetPCLK0Freq
.Ltmp42:
	@DEBUG_VALUE: I2C_GetBusClockFreq:u32Pclk <- $r0
.LBB6_3:
	@DEBUG_VALUE: I2C_GetBusClockFreq:u32Divider <- $r4
	@DEBUG_VALUE: I2C_GetBusClockFreq:u32Pclk <- $r0
	@DEBUG_VALUE: I2C_GetBusClockFreq:i2c <- [DW_OP_LLVM_entry_value 1] $r0
	@DEBUG_VALUE: I2C_GetBusClockFreq:u32Pclk <- $r0
	.loc	4 202 42                        @ ../../Library/StdDriver/src/i2c.c:202:42
	lsls	r1, r4, #2
	adds	r1, r1, #4
	.loc	4 202 21 is_stmt 0              @ ../../Library/StdDriver/src/i2c.c:202:21
	udiv	r0, r0, r1
.Ltmp43:
	.loc	4 202 5                         @ ../../Library/StdDriver/src/i2c.c:202:5
	pop	{r4, pc}
.Ltmp44:
	.p2align	2
@ %bb.4:
	.loc	4 0 5                           @ ../../Library/StdDriver/src/i2c.c:0:5
__arm_cp.6_0:
	.long	1342705664                      @ 0x50081000
.Lcpi_end8:
	.size	__arm_cp.6_0, .Lcpi_end8-__arm_cp.6_0
.Lfunc_end6:
	.size	I2C_GetBusClockFreq, .Lfunc_end6-I2C_GetBusClockFreq
	.cfi_endproc
	.cantunwind
	.fnend
                                        @ -- End function
	.section	.text.I2C_SetBusClockFreq,"ax",%progbits
	.hidden	I2C_SetBusClockFreq             @ -- Begin function I2C_SetBusClockFreq
	.globl	I2C_SetBusClockFreq
	.p2align	2
	.type	I2C_SetBusClockFreq,%function
	.code	16                              @ @I2C_SetBusClockFreq
	.thumb_func
I2C_SetBusClockFreq:
.Lfunc_begin7:
	.loc	4 216 0 is_stmt 1               @ ../../Library/StdDriver/src/i2c.c:216:0
	.fnstart
	.cfi_startproc
@ %bb.0:
	@DEBUG_VALUE: I2C_SetBusClockFreq:i2c <- $r0
	@DEBUG_VALUE: I2C_SetBusClockFreq:u32BusClock <- $r1
	.save	{r4, r5, r7, lr}
	push	{r4, r5, r7, lr}
	.cfi_def_cfa_offset 16
	.cfi_offset lr, -4
	.cfi_offset r7, -8
	.cfi_offset r5, -12
	.cfi_offset r4, -16
	mov	r5, r1
	mov	r4, r0
	movs	r0, #1
.Ltmp45:
	@DEBUG_VALUE: I2C_SetBusClockFreq:i2c <- [DW_OP_LLVM_entry_value 1] $r0
	lsls	r0, r0, #28
.Ltmp46:
	@DEBUG_VALUE: I2C_SetBusClockFreq:u32BusClock <- $r5
	@DEBUG_VALUE: I2C_SetBusClockFreq:i2c <- $r4
	.loc	4 220 22 prologue_end           @ ../../Library/StdDriver/src/i2c.c:220:22
	orrs	r0, r4
	ldr	r1, __arm_cp.7_0
	cmp	r0, r1
	bne	.LBB7_2
.Ltmp47:
@ %bb.1:
	@DEBUG_VALUE: I2C_SetBusClockFreq:u32BusClock <- $r5
	@DEBUG_VALUE: I2C_SetBusClockFreq:i2c <- $r4
	.loc	4 222 19                        @ ../../Library/StdDriver/src/i2c.c:222:19
	bl	CLK_GetPCLK1Freq
.Ltmp48:
	@DEBUG_VALUE: I2C_SetBusClockFreq:u32Pclk <- $r0
	.loc	4 223 5                         @ ../../Library/StdDriver/src/i2c.c:223:5
	b	.LBB7_3
.Ltmp49:
.LBB7_2:
	@DEBUG_VALUE: I2C_SetBusClockFreq:u32BusClock <- $r5
	@DEBUG_VALUE: I2C_SetBusClockFreq:i2c <- $r4
	.loc	4 226 19                        @ ../../Library/StdDriver/src/i2c.c:226:19
	bl	CLK_GetPCLK0Freq
.Ltmp50:
	@DEBUG_VALUE: I2C_SetBusClockFreq:u32Pclk <- $r0
.LBB7_3:
	@DEBUG_VALUE: I2C_SetBusClockFreq:u32BusClock <- $r5
	@DEBUG_VALUE: I2C_SetBusClockFreq:i2c <- $r4
	@DEBUG_VALUE: I2C_SetBusClockFreq:u32Pclk <- $r0
	@DEBUG_VALUE: I2C_SetBusClockFreq:u32Pclk <- $r0
	.loc	4 0 19 is_stmt 0                @ ../../Library/StdDriver/src/i2c.c:0:19
	movs	r1, #10
	.loc	4 229 35 is_stmt 1              @ ../../Library/StdDriver/src/i2c.c:229:35
	mov	r2, r1
	muls	r2, r0, r2
	.loc	4 229 57 is_stmt 0              @ ../../Library/StdDriver/src/i2c.c:229:57
	lsls	r3, r5, #2
	.loc	4 229 42                        @ ../../Library/StdDriver/src/i2c.c:229:42
	udiv	r2, r2, r3
	.loc	4 229 63                        @ ../../Library/StdDriver/src/i2c.c:229:63
	adds	r2, r2, #5
	.loc	4 229 69                        @ ../../Library/StdDriver/src/i2c.c:229:69
	udiv	r1, r2, r1
	.loc	4 229 75                        @ ../../Library/StdDriver/src/i2c.c:229:75
	subs	r2, r1, #1
.Ltmp51:
	@DEBUG_VALUE: I2C_SetBusClockFreq:u32Div <- $r2
	.loc	4 230 17 is_stmt 1              @ ../../Library/StdDriver/src/i2c.c:230:17
	str	r2, [r4, #16]
	.loc	4 232 38                        @ ../../Library/StdDriver/src/i2c.c:232:38
	lsls	r1, r1, #2
	.loc	4 232 21 is_stmt 0              @ ../../Library/StdDriver/src/i2c.c:232:21
	udiv	r0, r0, r1
.Ltmp52:
	.loc	4 232 5                         @ ../../Library/StdDriver/src/i2c.c:232:5
	pop	{r4, r5, r7, pc}
.Ltmp53:
	.p2align	2
@ %bb.4:
	.loc	4 0 5                           @ ../../Library/StdDriver/src/i2c.c:0:5
__arm_cp.7_0:
	.long	1342705664                      @ 0x50081000
.Lcpi_end9:
	.size	__arm_cp.7_0, .Lcpi_end9-__arm_cp.7_0
.Lfunc_end7:
	.size	I2C_SetBusClockFreq, .Lfunc_end7-I2C_SetBusClockFreq
	.cfi_endproc
	.cantunwind
	.fnend
                                        @ -- End function
	.section	.text.I2C_GetIntFlag,"ax",%progbits
	.hidden	I2C_GetIntFlag                  @ -- Begin function I2C_GetIntFlag
	.globl	I2C_GetIntFlag
	.p2align	1
	.type	I2C_GetIntFlag,%function
	.code	16                              @ @I2C_GetIntFlag
	.thumb_func
I2C_GetIntFlag:
.Lfunc_begin8:
	.loc	4 245 0 is_stmt 1               @ ../../Library/StdDriver/src/i2c.c:245:0
	.fnstart
	.cfi_startproc
@ %bb.0:
	@DEBUG_VALUE: I2C_GetIntFlag:i2c <- $r0
	@DEBUG_VALUE: I2C_GetIntFlag:i2c <- $r0
	.loc	4 246 19 prologue_end           @ ../../Library/StdDriver/src/i2c.c:246:19
	ldr	r0, [r0]
.Ltmp54:
	@DEBUG_VALUE: I2C_GetIntFlag:i2c <- [DW_OP_LLVM_entry_value 1] $r0
	.loc	4 246 13 is_stmt 0              @ ../../Library/StdDriver/src/i2c.c:246:13
	lsls	r0, r0, #28
	lsrs	r0, r0, #31
	.loc	4 246 5                         @ ../../Library/StdDriver/src/i2c.c:246:5
	bx	lr
.Ltmp55:
.Lfunc_end8:
	.size	I2C_GetIntFlag, .Lfunc_end8-I2C_GetIntFlag
	.cfi_endproc
	.cantunwind
	.fnend
                                        @ -- End function
	.section	.text.I2C_GetStatus,"ax",%progbits
	.hidden	I2C_GetStatus                   @ -- Begin function I2C_GetStatus
	.globl	I2C_GetStatus
	.p2align	1
	.type	I2C_GetStatus,%function
	.code	16                              @ @I2C_GetStatus
	.thumb_func
I2C_GetStatus:
.Lfunc_begin9:
	.loc	4 259 0 is_stmt 1               @ ../../Library/StdDriver/src/i2c.c:259:0
	.fnstart
	.cfi_startproc
@ %bb.0:
	@DEBUG_VALUE: I2C_GetStatus:i2c <- $r0
	@DEBUG_VALUE: I2C_GetStatus:i2c <- $r0
	.loc	4 260 18 prologue_end           @ ../../Library/StdDriver/src/i2c.c:260:18
	ldr	r0, [r0, #12]
.Ltmp56:
	@DEBUG_VALUE: I2C_GetStatus:i2c <- [DW_OP_LLVM_entry_value 1] $r0
	.loc	4 260 5 is_stmt 0               @ ../../Library/StdDriver/src/i2c.c:260:5
	bx	lr
.Ltmp57:
.Lfunc_end9:
	.size	I2C_GetStatus, .Lfunc_end9-I2C_GetStatus
	.cfi_endproc
	.cantunwind
	.fnend
                                        @ -- End function
	.section	.text.I2C_GetData,"ax",%progbits
	.hidden	I2C_GetData                     @ -- Begin function I2C_GetData
	.globl	I2C_GetData
	.p2align	1
	.type	I2C_GetData,%function
	.code	16                              @ @I2C_GetData
	.thumb_func
I2C_GetData:
.Lfunc_begin10:
	.loc	4 273 0 is_stmt 1               @ ../../Library/StdDriver/src/i2c.c:273:0
	.fnstart
	.cfi_startproc
@ %bb.0:
	@DEBUG_VALUE: I2C_GetData:i2c <- $r0
	@DEBUG_VALUE: I2C_GetData:i2c <- $r0
	.loc	4 274 27 prologue_end           @ ../../Library/StdDriver/src/i2c.c:274:27
	ldr	r0, [r0, #8]
.Ltmp58:
	@DEBUG_VALUE: I2C_GetData:i2c <- [DW_OP_LLVM_entry_value 1] $r0
	.loc	4 274 5 is_stmt 0               @ ../../Library/StdDriver/src/i2c.c:274:5
	uxtb	r0, r0
	bx	lr
.Ltmp59:
.Lfunc_end10:
	.size	I2C_GetData, .Lfunc_end10-I2C_GetData
	.cfi_endproc
	.cantunwind
	.fnend
                                        @ -- End function
	.section	.text.I2C_SetData,"ax",%progbits
	.hidden	I2C_SetData                     @ -- Begin function I2C_SetData
	.globl	I2C_SetData
	.p2align	1
	.type	I2C_SetData,%function
	.code	16                              @ @I2C_SetData
	.thumb_func
I2C_SetData:
.Lfunc_begin11:
	.loc	4 288 0 is_stmt 1               @ ../../Library/StdDriver/src/i2c.c:288:0
	.fnstart
	.cfi_startproc
@ %bb.0:
	@DEBUG_VALUE: I2C_SetData:i2c <- $r0
	@DEBUG_VALUE: I2C_SetData:i2c <- $r0
	@DEBUG_VALUE: I2C_SetData:u8Data <- $r1
	@DEBUG_VALUE: I2C_SetData:u8Data <- $r1
	.loc	4 289 14 prologue_end           @ ../../Library/StdDriver/src/i2c.c:289:14
	str	r1, [r0, #8]
	.loc	4 290 1                         @ ../../Library/StdDriver/src/i2c.c:290:1
	bx	lr
.Ltmp60:
.Lfunc_end11:
	.size	I2C_SetData, .Lfunc_end11-I2C_SetData
	.cfi_endproc
	.cantunwind
	.fnend
                                        @ -- End function
	.section	.text.I2C_SetSlaveAddr,"ax",%progbits
	.hidden	I2C_SetSlaveAddr                @ -- Begin function I2C_SetSlaveAddr
	.globl	I2C_SetSlaveAddr
	.p2align	1
	.type	I2C_SetSlaveAddr,%function
	.code	16                              @ @I2C_SetSlaveAddr
	.thumb_func
I2C_SetSlaveAddr:
.Lfunc_begin12:
	.loc	4 307 0                         @ ../../Library/StdDriver/src/i2c.c:307:0
	.fnstart
	.cfi_startproc
@ %bb.0:
	@DEBUG_VALUE: I2C_SetSlaveAddr:i2c <- $r0
	@DEBUG_VALUE: I2C_SetSlaveAddr:i2c <- $r0
	@DEBUG_VALUE: I2C_SetSlaveAddr:u8SlaveNo <- $r1
	@DEBUG_VALUE: I2C_SetSlaveAddr:u8SlaveNo <- $r1
	@DEBUG_VALUE: I2C_SetSlaveAddr:u8SlaveAddr <- $r2
	@DEBUG_VALUE: I2C_SetSlaveAddr:u8SlaveAddr <- $r2
	@DEBUG_VALUE: I2C_SetSlaveAddr:u8GCMode <- $r3
	@DEBUG_VALUE: I2C_SetSlaveAddr:u8GCMode <- $r3
	.loc	4 308 5 prologue_end            @ ../../Library/StdDriver/src/i2c.c:308:5
	cmp	r1, #3
	beq	.LBB12_4
.Ltmp61:
@ %bb.1:
	@DEBUG_VALUE: I2C_SetSlaveAddr:u8GCMode <- $r3
	@DEBUG_VALUE: I2C_SetSlaveAddr:u8SlaveAddr <- $r2
	@DEBUG_VALUE: I2C_SetSlaveAddr:u8SlaveNo <- $r1
	@DEBUG_VALUE: I2C_SetSlaveAddr:i2c <- $r0
	cmp	r1, #2
	beq	.LBB12_5
.Ltmp62:
@ %bb.2:
	@DEBUG_VALUE: I2C_SetSlaveAddr:u8GCMode <- $r3
	@DEBUG_VALUE: I2C_SetSlaveAddr:u8SlaveAddr <- $r2
	@DEBUG_VALUE: I2C_SetSlaveAddr:u8SlaveNo <- $r1
	@DEBUG_VALUE: I2C_SetSlaveAddr:i2c <- $r0
	cmp	r1, #1
	bne	.LBB12_6
.Ltmp63:
@ %bb.3:
	@DEBUG_VALUE: I2C_SetSlaveAddr:u8GCMode <- $r3
	@DEBUG_VALUE: I2C_SetSlaveAddr:u8SlaveAddr <- $r2
	@DEBUG_VALUE: I2C_SetSlaveAddr:u8SlaveNo <- $r1
	@DEBUG_VALUE: I2C_SetSlaveAddr:i2c <- $r0
	.loc	4 311 50                        @ ../../Library/StdDriver/src/i2c.c:311:50
	lsls	r1, r2, #1
.Ltmp64:
	@DEBUG_VALUE: I2C_SetSlaveAddr:u8SlaveNo <- [DW_OP_LLVM_entry_value 1] $r1
	.loc	4 311 56 is_stmt 0              @ ../../Library/StdDriver/src/i2c.c:311:56
	orrs	r1, r3
	.loc	4 311 25                        @ ../../Library/StdDriver/src/i2c.c:311:25
	str	r1, [r0, #24]
.Ltmp65:
	.loc	4 324 1 is_stmt 1               @ ../../Library/StdDriver/src/i2c.c:324:1
	bx	lr
.Ltmp66:
.LBB12_4:
	@DEBUG_VALUE: I2C_SetSlaveAddr:u8GCMode <- $r3
	@DEBUG_VALUE: I2C_SetSlaveAddr:u8SlaveAddr <- $r2
	@DEBUG_VALUE: I2C_SetSlaveAddr:u8SlaveNo <- $r1
	@DEBUG_VALUE: I2C_SetSlaveAddr:i2c <- $r0
	.loc	4 317 50                        @ ../../Library/StdDriver/src/i2c.c:317:50
	lsls	r1, r2, #1
.Ltmp67:
	@DEBUG_VALUE: I2C_SetSlaveAddr:u8SlaveNo <- [DW_OP_LLVM_entry_value 1] $r1
	.loc	4 317 56 is_stmt 0              @ ../../Library/StdDriver/src/i2c.c:317:56
	orrs	r1, r3
	.loc	4 317 25                        @ ../../Library/StdDriver/src/i2c.c:317:25
	str	r1, [r0, #32]
.Ltmp68:
	.loc	4 324 1 is_stmt 1               @ ../../Library/StdDriver/src/i2c.c:324:1
	bx	lr
.Ltmp69:
.LBB12_5:
	@DEBUG_VALUE: I2C_SetSlaveAddr:u8GCMode <- $r3
	@DEBUG_VALUE: I2C_SetSlaveAddr:u8SlaveAddr <- $r2
	@DEBUG_VALUE: I2C_SetSlaveAddr:u8SlaveNo <- $r1
	@DEBUG_VALUE: I2C_SetSlaveAddr:i2c <- $r0
	.loc	4 314 50                        @ ../../Library/StdDriver/src/i2c.c:314:50
	lsls	r1, r2, #1
.Ltmp70:
	@DEBUG_VALUE: I2C_SetSlaveAddr:u8SlaveNo <- [DW_OP_LLVM_entry_value 1] $r1
	.loc	4 314 56 is_stmt 0              @ ../../Library/StdDriver/src/i2c.c:314:56
	orrs	r1, r3
	.loc	4 314 25                        @ ../../Library/StdDriver/src/i2c.c:314:25
	str	r1, [r0, #28]
.Ltmp71:
	.loc	4 324 1 is_stmt 1               @ ../../Library/StdDriver/src/i2c.c:324:1
	bx	lr
.Ltmp72:
.LBB12_6:
	@DEBUG_VALUE: I2C_SetSlaveAddr:u8GCMode <- $r3
	@DEBUG_VALUE: I2C_SetSlaveAddr:u8SlaveAddr <- $r2
	@DEBUG_VALUE: I2C_SetSlaveAddr:u8SlaveNo <- $r1
	@DEBUG_VALUE: I2C_SetSlaveAddr:i2c <- $r0
	.loc	4 321 50                        @ ../../Library/StdDriver/src/i2c.c:321:50
	lsls	r1, r2, #1
.Ltmp73:
	@DEBUG_VALUE: I2C_SetSlaveAddr:u8SlaveNo <- [DW_OP_LLVM_entry_value 1] $r1
	.loc	4 321 56 is_stmt 0              @ ../../Library/StdDriver/src/i2c.c:321:56
	orrs	r1, r3
	.loc	4 321 25                        @ ../../Library/StdDriver/src/i2c.c:321:25
	str	r1, [r0, #4]
.Ltmp74:
	.loc	4 324 1 is_stmt 1               @ ../../Library/StdDriver/src/i2c.c:324:1
	bx	lr
.Ltmp75:
.Lfunc_end12:
	.size	I2C_SetSlaveAddr, .Lfunc_end12-I2C_SetSlaveAddr
	.cfi_endproc
	.cantunwind
	.fnend
                                        @ -- End function
	.section	.text.I2C_SetSlaveAddrMask,"ax",%progbits
	.hidden	I2C_SetSlaveAddrMask            @ -- Begin function I2C_SetSlaveAddrMask
	.globl	I2C_SetSlaveAddrMask
	.p2align	1
	.type	I2C_SetSlaveAddrMask,%function
	.code	16                              @ @I2C_SetSlaveAddrMask
	.thumb_func
I2C_SetSlaveAddrMask:
.Lfunc_begin13:
	.loc	4 339 0                         @ ../../Library/StdDriver/src/i2c.c:339:0
	.fnstart
	.cfi_startproc
@ %bb.0:
	@DEBUG_VALUE: I2C_SetSlaveAddrMask:i2c <- $r0
	@DEBUG_VALUE: I2C_SetSlaveAddrMask:i2c <- $r0
	@DEBUG_VALUE: I2C_SetSlaveAddrMask:u8SlaveNo <- $r1
	@DEBUG_VALUE: I2C_SetSlaveAddrMask:u8SlaveNo <- $r1
	@DEBUG_VALUE: I2C_SetSlaveAddrMask:u8SlaveAddrMask <- $r2
	@DEBUG_VALUE: I2C_SetSlaveAddrMask:u8SlaveAddrMask <- $r2
	.loc	4 340 5 prologue_end            @ ../../Library/StdDriver/src/i2c.c:340:5
	cmp	r1, #3
	beq	.LBB13_4
.Ltmp76:
@ %bb.1:
	@DEBUG_VALUE: I2C_SetSlaveAddrMask:u8SlaveAddrMask <- $r2
	@DEBUG_VALUE: I2C_SetSlaveAddrMask:u8SlaveNo <- $r1
	@DEBUG_VALUE: I2C_SetSlaveAddrMask:i2c <- $r0
	cmp	r1, #2
	beq	.LBB13_5
.Ltmp77:
@ %bb.2:
	@DEBUG_VALUE: I2C_SetSlaveAddrMask:u8SlaveAddrMask <- $r2
	@DEBUG_VALUE: I2C_SetSlaveAddrMask:u8SlaveNo <- $r1
	@DEBUG_VALUE: I2C_SetSlaveAddrMask:i2c <- $r0
	cmp	r1, #1
	bne	.LBB13_6
.Ltmp78:
@ %bb.3:
	@DEBUG_VALUE: I2C_SetSlaveAddrMask:u8SlaveAddrMask <- $r2
	@DEBUG_VALUE: I2C_SetSlaveAddrMask:u8SlaveNo <- $r1
	@DEBUG_VALUE: I2C_SetSlaveAddrMask:i2c <- $r0
	.loc	4 343 56                        @ ../../Library/StdDriver/src/i2c.c:343:56
	lsls	r1, r2, #1
.Ltmp79:
	@DEBUG_VALUE: I2C_SetSlaveAddrMask:u8SlaveNo <- [DW_OP_LLVM_entry_value 1] $r1
	.loc	4 343 28 is_stmt 0              @ ../../Library/StdDriver/src/i2c.c:343:28
	str	r1, [r0, #40]
.Ltmp80:
	.loc	4 356 1 is_stmt 1               @ ../../Library/StdDriver/src/i2c.c:356:1
	bx	lr
.Ltmp81:
.LBB13_4:
	@DEBUG_VALUE: I2C_SetSlaveAddrMask:u8SlaveAddrMask <- $r2
	@DEBUG_VALUE: I2C_SetSlaveAddrMask:u8SlaveNo <- $r1
	@DEBUG_VALUE: I2C_SetSlaveAddrMask:i2c <- $r0
	.loc	4 349 56                        @ ../../Library/StdDriver/src/i2c.c:349:56
	lsls	r1, r2, #1
.Ltmp82:
	@DEBUG_VALUE: I2C_SetSlaveAddrMask:u8SlaveNo <- [DW_OP_LLVM_entry_value 1] $r1
	.loc	4 349 28 is_stmt 0              @ ../../Library/StdDriver/src/i2c.c:349:28
	str	r1, [r0, #48]
.Ltmp83:
	.loc	4 356 1 is_stmt 1               @ ../../Library/StdDriver/src/i2c.c:356:1
	bx	lr
.Ltmp84:
.LBB13_5:
	@DEBUG_VALUE: I2C_SetSlaveAddrMask:u8SlaveAddrMask <- $r2
	@DEBUG_VALUE: I2C_SetSlaveAddrMask:u8SlaveNo <- $r1
	@DEBUG_VALUE: I2C_SetSlaveAddrMask:i2c <- $r0
	.loc	4 346 56                        @ ../../Library/StdDriver/src/i2c.c:346:56
	lsls	r1, r2, #1
.Ltmp85:
	@DEBUG_VALUE: I2C_SetSlaveAddrMask:u8SlaveNo <- [DW_OP_LLVM_entry_value 1] $r1
	.loc	4 346 28 is_stmt 0              @ ../../Library/StdDriver/src/i2c.c:346:28
	str	r1, [r0, #44]
.Ltmp86:
	.loc	4 356 1 is_stmt 1               @ ../../Library/StdDriver/src/i2c.c:356:1
	bx	lr
.Ltmp87:
.LBB13_6:
	@DEBUG_VALUE: I2C_SetSlaveAddrMask:u8SlaveAddrMask <- $r2
	@DEBUG_VALUE: I2C_SetSlaveAddrMask:u8SlaveNo <- $r1
	@DEBUG_VALUE: I2C_SetSlaveAddrMask:i2c <- $r0
	.loc	4 353 56                        @ ../../Library/StdDriver/src/i2c.c:353:56
	lsls	r1, r2, #1
.Ltmp88:
	@DEBUG_VALUE: I2C_SetSlaveAddrMask:u8SlaveNo <- [DW_OP_LLVM_entry_value 1] $r1
	.loc	4 353 28 is_stmt 0              @ ../../Library/StdDriver/src/i2c.c:353:28
	str	r1, [r0, #36]
.Ltmp89:
	.loc	4 356 1 is_stmt 1               @ ../../Library/StdDriver/src/i2c.c:356:1
	bx	lr
.Ltmp90:
.Lfunc_end13:
	.size	I2C_SetSlaveAddrMask, .Lfunc_end13-I2C_SetSlaveAddrMask
	.cfi_endproc
	.cantunwind
	.fnend
                                        @ -- End function
	.section	.text.I2C_EnableTimeout,"ax",%progbits
	.hidden	I2C_EnableTimeout               @ -- Begin function I2C_EnableTimeout
	.globl	I2C_EnableTimeout
	.p2align	1
	.type	I2C_EnableTimeout,%function
	.code	16                              @ @I2C_EnableTimeout
	.thumb_func
I2C_EnableTimeout:
.Lfunc_begin14:
	.loc	4 371 0                         @ ../../Library/StdDriver/src/i2c.c:371:0
	.fnstart
	.cfi_startproc
@ %bb.0:
	@DEBUG_VALUE: I2C_EnableTimeout:i2c <- $r0
	@DEBUG_VALUE: I2C_EnableTimeout:u8LongTimeout <- $r1
	@DEBUG_VALUE: I2C_EnableTimeout:u8LongTimeout <- $r1
	subs	r2, r1, #1
	sbcs	r1, r2
.Ltmp91:
	@DEBUG_VALUE: I2C_EnableTimeout:u8LongTimeout <- [DW_OP_LLVM_entry_value 1] $r1
	@DEBUG_VALUE: I2C_EnableTimeout:i2c <- $r0
	.loc	4 372 8 prologue_end            @ ../../Library/StdDriver/src/i2c.c:372:8
	lsls	r1, r1, #1
.Ltmp92:
	.loc	4 0 0 is_stmt 0                 @ ../../Library/StdDriver/src/i2c.c:0:0
	ldr	r2, [r0, #20]
	movs	r3, #2
.Ltmp93:
	.loc	4 372 8                         @ ../../Library/StdDriver/src/i2c.c:372:8
	bics	r2, r3
	adds	r1, r2, r1
.Ltmp94:
	.loc	4 0 0                           @ ../../Library/StdDriver/src/i2c.c:0:0
	str	r1, [r0, #20]
.Ltmp95:
	.loc	4 381 16 is_stmt 1              @ ../../Library/StdDriver/src/i2c.c:381:16
	ldr	r1, [r0, #20]
	movs	r2, #4
	orrs	r2, r1
	str	r2, [r0, #20]
	.loc	4 382 1                         @ ../../Library/StdDriver/src/i2c.c:382:1
	bx	lr
.Ltmp96:
.Lfunc_end14:
	.size	I2C_EnableTimeout, .Lfunc_end14-I2C_EnableTimeout
	.cfi_endproc
	.cantunwind
	.fnend
                                        @ -- End function
	.section	.text.I2C_DisableTimeout,"ax",%progbits
	.hidden	I2C_DisableTimeout              @ -- Begin function I2C_DisableTimeout
	.globl	I2C_DisableTimeout
	.p2align	1
	.type	I2C_DisableTimeout,%function
	.code	16                              @ @I2C_DisableTimeout
	.thumb_func
I2C_DisableTimeout:
.Lfunc_begin15:
	.loc	4 395 0                         @ ../../Library/StdDriver/src/i2c.c:395:0
	.fnstart
	.cfi_startproc
@ %bb.0:
	@DEBUG_VALUE: I2C_DisableTimeout:i2c <- $r0
	@DEBUG_VALUE: I2C_DisableTimeout:i2c <- $r0
	.loc	4 396 16 prologue_end           @ ../../Library/StdDriver/src/i2c.c:396:16
	ldr	r1, [r0, #20]
	movs	r2, #4
	bics	r1, r2
	str	r1, [r0, #20]
	.loc	4 397 1                         @ ../../Library/StdDriver/src/i2c.c:397:1
	bx	lr
.Ltmp97:
.Lfunc_end15:
	.size	I2C_DisableTimeout, .Lfunc_end15-I2C_DisableTimeout
	.cfi_endproc
	.cantunwind
	.fnend
                                        @ -- End function
	.section	.text.I2C_EnableWakeup,"ax",%progbits
	.hidden	I2C_EnableWakeup                @ -- Begin function I2C_EnableWakeup
	.globl	I2C_EnableWakeup
	.p2align	1
	.type	I2C_EnableWakeup,%function
	.code	16                              @ @I2C_EnableWakeup
	.thumb_func
I2C_EnableWakeup:
.Lfunc_begin16:
	.loc	4 410 0                         @ ../../Library/StdDriver/src/i2c.c:410:0
	.fnstart
	.cfi_startproc
@ %bb.0:
	@DEBUG_VALUE: I2C_EnableWakeup:i2c <- $r0
	@DEBUG_VALUE: I2C_EnableWakeup:i2c <- $r0
	.loc	4 411 16 prologue_end           @ ../../Library/StdDriver/src/i2c.c:411:16
	ldr	r1, [r0, #60]
	movs	r2, #1
	orrs	r2, r1
	str	r2, [r0, #60]
	.loc	4 412 1                         @ ../../Library/StdDriver/src/i2c.c:412:1
	bx	lr
.Ltmp98:
.Lfunc_end16:
	.size	I2C_EnableWakeup, .Lfunc_end16-I2C_EnableWakeup
	.cfi_endproc
	.cantunwind
	.fnend
                                        @ -- End function
	.section	.text.I2C_DisableWakeup,"ax",%progbits
	.hidden	I2C_DisableWakeup               @ -- Begin function I2C_DisableWakeup
	.globl	I2C_DisableWakeup
	.p2align	1
	.type	I2C_DisableWakeup,%function
	.code	16                              @ @I2C_DisableWakeup
	.thumb_func
I2C_DisableWakeup:
.Lfunc_begin17:
	.loc	4 425 0                         @ ../../Library/StdDriver/src/i2c.c:425:0
	.fnstart
	.cfi_startproc
@ %bb.0:
	@DEBUG_VALUE: I2C_DisableWakeup:i2c <- $r0
	@DEBUG_VALUE: I2C_DisableWakeup:i2c <- $r0
	.loc	4 426 16 prologue_end           @ ../../Library/StdDriver/src/i2c.c:426:16
	ldr	r1, [r0, #60]
	movs	r2, #1
	bics	r1, r2
	str	r1, [r0, #60]
	.loc	4 427 1                         @ ../../Library/StdDriver/src/i2c.c:427:1
	bx	lr
.Ltmp99:
.Lfunc_end17:
	.size	I2C_DisableWakeup, .Lfunc_end17-I2C_DisableWakeup
	.cfi_endproc
	.cantunwind
	.fnend
                                        @ -- End function
	.section	.text.I2C_SMBusGetStatus,"ax",%progbits
	.hidden	I2C_SMBusGetStatus              @ -- Begin function I2C_SMBusGetStatus
	.globl	I2C_SMBusGetStatus
	.p2align	1
	.type	I2C_SMBusGetStatus,%function
	.code	16                              @ @I2C_SMBusGetStatus
	.thumb_func
I2C_SMBusGetStatus:
.Lfunc_begin18:
	.loc	4 440 0                         @ ../../Library/StdDriver/src/i2c.c:440:0
	.fnstart
	.cfi_startproc
@ %bb.0:
	@DEBUG_VALUE: I2C_SMBusGetStatus:i2c <- $r0
	@DEBUG_VALUE: I2C_SMBusGetStatus:i2c <- $r0
	.loc	4 441 18 prologue_end           @ ../../Library/StdDriver/src/i2c.c:441:18
	ldr	r0, [r0, #88]
.Ltmp100:
	@DEBUG_VALUE: I2C_SMBusGetStatus:i2c <- [DW_OP_LLVM_entry_value 1] $r0
	.loc	4 441 5 is_stmt 0               @ ../../Library/StdDriver/src/i2c.c:441:5
	bx	lr
.Ltmp101:
.Lfunc_end18:
	.size	I2C_SMBusGetStatus, .Lfunc_end18-I2C_SMBusGetStatus
	.cfi_endproc
	.cantunwind
	.fnend
                                        @ -- End function
	.section	.text.I2C_SMBusClearInterruptFlag,"ax",%progbits
	.hidden	I2C_SMBusClearInterruptFlag     @ -- Begin function I2C_SMBusClearInterruptFlag
	.globl	I2C_SMBusClearInterruptFlag
	.p2align	1
	.type	I2C_SMBusClearInterruptFlag,%function
	.code	16                              @ @I2C_SMBusClearInterruptFlag
	.thumb_func
I2C_SMBusClearInterruptFlag:
.Lfunc_begin19:
	.loc	4 456 0 is_stmt 1               @ ../../Library/StdDriver/src/i2c.c:456:0
	.fnstart
	.cfi_startproc
@ %bb.0:
	@DEBUG_VALUE: I2C_SMBusClearInterruptFlag:i2c <- $r0
	@DEBUG_VALUE: I2C_SMBusClearInterruptFlag:i2c <- $r0
	@DEBUG_VALUE: I2C_SMBusClearInterruptFlag:u8SMBusIntFlag <- $r1
	@DEBUG_VALUE: I2C_SMBusClearInterruptFlag:u8SMBusIntFlag <- $r1
	.loc	4 457 17 prologue_end           @ ../../Library/StdDriver/src/i2c.c:457:17
	str	r1, [r0, #88]
	.loc	4 458 1                         @ ../../Library/StdDriver/src/i2c.c:458:1
	bx	lr
.Ltmp102:
.Lfunc_end19:
	.size	I2C_SMBusClearInterruptFlag, .Lfunc_end19-I2C_SMBusClearInterruptFlag
	.cfi_endproc
	.cantunwind
	.fnend
                                        @ -- End function
	.section	.text.I2C_SMBusSetPacketByteCount,"ax",%progbits
	.hidden	I2C_SMBusSetPacketByteCount     @ -- Begin function I2C_SMBusSetPacketByteCount
	.globl	I2C_SMBusSetPacketByteCount
	.p2align	1
	.type	I2C_SMBusSetPacketByteCount,%function
	.code	16                              @ @I2C_SMBusSetPacketByteCount
	.thumb_func
I2C_SMBusSetPacketByteCount:
.Lfunc_begin20:
	.loc	4 472 0                         @ ../../Library/StdDriver/src/i2c.c:472:0
	.fnstart
	.cfi_startproc
@ %bb.0:
	@DEBUG_VALUE: I2C_SMBusSetPacketByteCount:i2c <- $r0
	@DEBUG_VALUE: I2C_SMBusSetPacketByteCount:i2c <- $r0
	@DEBUG_VALUE: I2C_SMBusSetPacketByteCount:u32PktSize <- $r1
	@DEBUG_VALUE: I2C_SMBusSetPacketByteCount:u32PktSize <- $r1
	.loc	4 473 18 prologue_end           @ ../../Library/StdDriver/src/i2c.c:473:18
	str	r1, [r0, #92]
	.loc	4 474 1                         @ ../../Library/StdDriver/src/i2c.c:474:1
	bx	lr
.Ltmp103:
.Lfunc_end20:
	.size	I2C_SMBusSetPacketByteCount, .Lfunc_end20-I2C_SMBusSetPacketByteCount
	.cfi_endproc
	.cantunwind
	.fnend
                                        @ -- End function
	.section	.text.I2C_SMBusOpen,"ax",%progbits
	.hidden	I2C_SMBusOpen                   @ -- Begin function I2C_SMBusOpen
	.globl	I2C_SMBusOpen
	.p2align	1
	.type	I2C_SMBusOpen,%function
	.code	16                              @ @I2C_SMBusOpen
	.thumb_func
I2C_SMBusOpen:
.Lfunc_begin21:
	.loc	4 488 0                         @ ../../Library/StdDriver/src/i2c.c:488:0
	.fnstart
	.cfi_startproc
@ %bb.0:
	@DEBUG_VALUE: I2C_SMBusOpen:i2c <- $r0
	@DEBUG_VALUE: I2C_SMBusOpen:i2c <- $r0
	@DEBUG_VALUE: I2C_SMBusOpen:u8HostDevice <- $r1
	@DEBUG_VALUE: I2C_SMBusOpen:u8HostDevice <- $r1
	.loc	4 490 17 prologue_end           @ ../../Library/StdDriver/src/i2c.c:490:17
	ldr	r2, [r0, #80]
	movs	r3, #12
	bics	r2, r3
	str	r2, [r0, #80]
	.loc	4 493 8                         @ ../../Library/StdDriver/src/i2c.c:493:8
	cmp	r1, #1
	beq	.LBB21_2
.Ltmp104:
@ %bb.1:
	@DEBUG_VALUE: I2C_SMBusOpen:u8HostDevice <- $r1
	@DEBUG_VALUE: I2C_SMBusOpen:i2c <- $r0
	.loc	4 0 8 is_stmt 0                 @ ../../Library/StdDriver/src/i2c.c:0:8
	movs	r1, #132
.Ltmp105:
	@DEBUG_VALUE: I2C_SMBusOpen:u8HostDevice <- [DW_OP_LLVM_entry_value 1] $r1
	b	.LBB21_3
.Ltmp106:
.LBB21_2:
	@DEBUG_VALUE: I2C_SMBusOpen:u8HostDevice <- $r1
	@DEBUG_VALUE: I2C_SMBusOpen:i2c <- $r0
	movs	r1, #136
.Ltmp107:
	@DEBUG_VALUE: I2C_SMBusOpen:u8HostDevice <- [DW_OP_LLVM_entry_value 1] $r1
.LBB21_3:
	@DEBUG_VALUE: I2C_SMBusOpen:i2c <- $r0
	@DEBUG_VALUE: I2C_SMBusOpen:u8HostDevice <- [DW_OP_LLVM_entry_value 1] $r1
	ldr	r2, [r0, #80]
	orrs	r2, r1
	str	r2, [r0, #80]
.Ltmp108:
	.loc	4 501 1 is_stmt 1               @ ../../Library/StdDriver/src/i2c.c:501:1
	bx	lr
.Ltmp109:
.Lfunc_end21:
	.size	I2C_SMBusOpen, .Lfunc_end21-I2C_SMBusOpen
	.cfi_endproc
	.cantunwind
	.fnend
                                        @ -- End function
	.section	.text.I2C_SMBusClose,"ax",%progbits
	.hidden	I2C_SMBusClose                  @ -- Begin function I2C_SMBusClose
	.globl	I2C_SMBusClose
	.p2align	1
	.type	I2C_SMBusClose,%function
	.code	16                              @ @I2C_SMBusClose
	.thumb_func
I2C_SMBusClose:
.Lfunc_begin22:
	.loc	4 514 0                         @ ../../Library/StdDriver/src/i2c.c:514:0
	.fnstart
	.cfi_startproc
@ %bb.0:
	@DEBUG_VALUE: I2C_SMBusClose:i2c <- $r0
	movs	r1, #0
	@DEBUG_VALUE: I2C_SMBusClose:i2c <- $r0
.Ltmp110:
	.loc	4 516 17 prologue_end           @ ../../Library/StdDriver/src/i2c.c:516:17
	str	r1, [r0, #80]
	.loc	4 517 1                         @ ../../Library/StdDriver/src/i2c.c:517:1
	bx	lr
.Ltmp111:
.Lfunc_end22:
	.size	I2C_SMBusClose, .Lfunc_end22-I2C_SMBusClose
	.cfi_endproc
	.cantunwind
	.fnend
                                        @ -- End function
	.section	.text.I2C_SMBusPECTxEnable,"ax",%progbits
	.hidden	I2C_SMBusPECTxEnable            @ -- Begin function I2C_SMBusPECTxEnable
	.globl	I2C_SMBusPECTxEnable
	.p2align	1
	.type	I2C_SMBusPECTxEnable,%function
	.code	16                              @ @I2C_SMBusPECTxEnable
	.thumb_func
I2C_SMBusPECTxEnable:
.Lfunc_begin23:
	.loc	4 531 0                         @ ../../Library/StdDriver/src/i2c.c:531:0
	.fnstart
	.cfi_startproc
@ %bb.0:
	@DEBUG_VALUE: I2C_SMBusPECTxEnable:i2c <- $r0
	@DEBUG_VALUE: I2C_SMBusPECTxEnable:i2c <- $r0
	@DEBUG_VALUE: I2C_SMBusPECTxEnable:u8PECTxEn <- $r1
	@DEBUG_VALUE: I2C_SMBusPECTxEnable:u8PECTxEn <- $r1
	.loc	4 532 17 prologue_end           @ ../../Library/StdDriver/src/i2c.c:532:17
	ldr	r2, [r0, #80]
	movw	r3, #256
	bics	r2, r3
	str	r2, [r0, #80]
	.loc	4 534 8                         @ ../../Library/StdDriver/src/i2c.c:534:8
	cbz	r1, .LBB23_2
.Ltmp112:
@ %bb.1:
	@DEBUG_VALUE: I2C_SMBusPECTxEnable:u8PECTxEn <- $r1
	@DEBUG_VALUE: I2C_SMBusPECTxEnable:i2c <- $r0
	.loc	4 0 8 is_stmt 0                 @ ../../Library/StdDriver/src/i2c.c:0:8
	movw	r1, #258
.Ltmp113:
	@DEBUG_VALUE: I2C_SMBusPECTxEnable:u8PECTxEn <- [DW_OP_LLVM_entry_value 1] $r1
	b	.LBB23_3
.Ltmp114:
.LBB23_2:
	@DEBUG_VALUE: I2C_SMBusPECTxEnable:u8PECTxEn <- $r1
	@DEBUG_VALUE: I2C_SMBusPECTxEnable:i2c <- $r0
	movs	r1, #2
.Ltmp115:
	@DEBUG_VALUE: I2C_SMBusPECTxEnable:u8PECTxEn <- [DW_OP_LLVM_entry_value 1] $r1
.LBB23_3:
	@DEBUG_VALUE: I2C_SMBusPECTxEnable:i2c <- $r0
	@DEBUG_VALUE: I2C_SMBusPECTxEnable:u8PECTxEn <- [DW_OP_LLVM_entry_value 1] $r1
	ldr	r2, [r0, #80]
	orrs	r2, r1
	str	r2, [r0, #80]
.Ltmp116:
	.loc	4 542 1 is_stmt 1               @ ../../Library/StdDriver/src/i2c.c:542:1
	bx	lr
.Ltmp117:
.Lfunc_end23:
	.size	I2C_SMBusPECTxEnable, .Lfunc_end23-I2C_SMBusPECTxEnable
	.cfi_endproc
	.cantunwind
	.fnend
                                        @ -- End function
	.section	.text.I2C_SMBusGetPECValue,"ax",%progbits
	.hidden	I2C_SMBusGetPECValue            @ -- Begin function I2C_SMBusGetPECValue
	.globl	I2C_SMBusGetPECValue
	.p2align	1
	.type	I2C_SMBusGetPECValue,%function
	.code	16                              @ @I2C_SMBusGetPECValue
	.thumb_func
I2C_SMBusGetPECValue:
.Lfunc_begin24:
	.loc	4 555 0                         @ ../../Library/StdDriver/src/i2c.c:555:0
	.fnstart
	.cfi_startproc
@ %bb.0:
	@DEBUG_VALUE: I2C_SMBusGetPECValue:i2c <- $r0
	@DEBUG_VALUE: I2C_SMBusGetPECValue:i2c <- $r0
	.loc	4 556 26 prologue_end           @ ../../Library/StdDriver/src/i2c.c:556:26
	ldr	r0, [r0, #96]
.Ltmp118:
	@DEBUG_VALUE: I2C_SMBusGetPECValue:i2c <- [DW_OP_LLVM_entry_value 1] $r0
	.loc	4 556 5 is_stmt 0               @ ../../Library/StdDriver/src/i2c.c:556:5
	uxtb	r0, r0
	bx	lr
.Ltmp119:
.Lfunc_end24:
	.size	I2C_SMBusGetPECValue, .Lfunc_end24-I2C_SMBusGetPECValue
	.cfi_endproc
	.cantunwind
	.fnend
                                        @ -- End function
	.section	.text.I2C_SMBusIdleTimeout,"ax",%progbits
	.hidden	I2C_SMBusIdleTimeout            @ -- Begin function I2C_SMBusIdleTimeout
	.globl	I2C_SMBusIdleTimeout
	.p2align	1
	.type	I2C_SMBusIdleTimeout,%function
	.code	16                              @ @I2C_SMBusIdleTimeout
	.thumb_func
I2C_SMBusIdleTimeout:
.Lfunc_begin25:
	.loc	4 573 0 is_stmt 1               @ ../../Library/StdDriver/src/i2c.c:573:0
	.fnstart
	.cfi_startproc
@ %bb.0:
	@DEBUG_VALUE: I2C_SMBusIdleTimeout:i2c <- $r0
	@DEBUG_VALUE: I2C_SMBusIdleTimeout:i2c <- $r0
	@DEBUG_VALUE: I2C_SMBusIdleTimeout:u32Us <- $r1
	@DEBUG_VALUE: I2C_SMBusIdleTimeout:u32Us <- $r1
	@DEBUG_VALUE: I2C_SMBusIdleTimeout:u32Hclk <- $r2
	@DEBUG_VALUE: I2C_SMBusIdleTimeout:u32Hclk <- $r2
	.save	{r4, lr}
	push	{r4, lr}
	.cfi_def_cfa_offset 8
	.cfi_offset lr, -4
	.cfi_offset r4, -8
.Ltmp120:
	.loc	4 576 17 prologue_end           @ ../../Library/StdDriver/src/i2c.c:576:17
	ldr	r3, [r0, #80]
	movw	r4, #512
	orrs	r4, r3
	str	r4, [r0, #80]
	movw	r3, #1000
	.loc	4 577 26                        @ ../../Library/StdDriver/src/i2c.c:577:26
	udiv	r2, r2, r3
.Ltmp121:
	@DEBUG_VALUE: I2C_SMBusIdleTimeout:u32Hclk <- [DW_OP_LLVM_entry_value 1] $r2
	@DEBUG_VALUE: I2C_SMBusIdleTimeout:u32HclkKHz <- $r2
	.loc	4 578 23                        @ ../../Library/StdDriver/src/i2c.c:578:23
	muls	r2, r1, r2
.Ltmp122:
	.loc	4 578 37 is_stmt 0              @ ../../Library/StdDriver/src/i2c.c:578:37
	udiv	r1, r2, r3
.Ltmp123:
	@DEBUG_VALUE: I2C_SMBusIdleTimeout:u32Us <- [DW_OP_LLVM_entry_value 1] $r1
	.loc	4 578 46                        @ ../../Library/StdDriver/src/i2c.c:578:46
	lsrs	r1, r1, #2
	.loc	4 578 53                        @ ../../Library/StdDriver/src/i2c.c:578:53
	subs	r1, r1, #1
.Ltmp124:
	@DEBUG_VALUE: I2C_SMBusIdleTimeout:u32Div <- $r1
	.loc	4 579 8 is_stmt 1               @ ../../Library/StdDriver/src/i2c.c:579:8
	cmp	r1, #255
	blo	.LBB25_2
.Ltmp125:
@ %bb.1:
	@DEBUG_VALUE: I2C_SMBusIdleTimeout:u32Div <- $r1
	@DEBUG_VALUE: I2C_SMBusIdleTimeout:i2c <- $r0
	@DEBUG_VALUE: I2C_SMBusIdleTimeout:u32Us <- [DW_OP_LLVM_entry_value 1] $r1
	@DEBUG_VALUE: I2C_SMBusIdleTimeout:u32Hclk <- [DW_OP_LLVM_entry_value 1] $r2
	.loc	4 0 8 is_stmt 0                 @ ../../Library/StdDriver/src/i2c.c:0:8
	movs	r1, #255
.Ltmp126:
.LBB25_2:
	@DEBUG_VALUE: I2C_SMBusIdleTimeout:i2c <- $r0
	@DEBUG_VALUE: I2C_SMBusIdleTimeout:u32Us <- [DW_OP_LLVM_entry_value 1] $r1
	@DEBUG_VALUE: I2C_SMBusIdleTimeout:u32Hclk <- [DW_OP_LLVM_entry_value 1] $r2
	str	r1, [r0, #100]
.Ltmp127:
	.loc	4 588 1 is_stmt 1               @ ../../Library/StdDriver/src/i2c.c:588:1
	pop	{r4, pc}
.Ltmp128:
.Lfunc_end25:
	.size	I2C_SMBusIdleTimeout, .Lfunc_end25-I2C_SMBusIdleTimeout
	.cfi_endproc
	.cantunwind
	.fnend
                                        @ -- End function
	.section	.text.I2C_SMBusTimeout,"ax",%progbits
	.hidden	I2C_SMBusTimeout                @ -- Begin function I2C_SMBusTimeout
	.globl	I2C_SMBusTimeout
	.p2align	1
	.type	I2C_SMBusTimeout,%function
	.code	16                              @ @I2C_SMBusTimeout
	.thumb_func
I2C_SMBusTimeout:
.Lfunc_begin26:
	.loc	4 605 0                         @ ../../Library/StdDriver/src/i2c.c:605:0
	.fnstart
	.cfi_startproc
@ %bb.0:
	@DEBUG_VALUE: I2C_SMBusTimeout:i2c <- $r0
	@DEBUG_VALUE: I2C_SMBusTimeout:i2c <- $r0
	@DEBUG_VALUE: I2C_SMBusTimeout:ms <- $r1
	@DEBUG_VALUE: I2C_SMBusTimeout:ms <- $r1
	@DEBUG_VALUE: I2C_SMBusTimeout:u32Pclk <- $r2
	@DEBUG_VALUE: I2C_SMBusTimeout:u32Pclk <- $r2
	.save	{r4, lr}
	push	{r4, lr}
	.cfi_def_cfa_offset 8
	.cfi_offset lr, -4
	.cfi_offset r4, -8
.Ltmp129:
	.loc	4 608 17 prologue_end           @ ../../Library/StdDriver/src/i2c.c:608:17
	ldr	r3, [r0, #80]
	movw	r4, #512
	bics	r3, r4
	str	r3, [r0, #80]
	.loc	4 611 16                        @ ../../Library/StdDriver/src/i2c.c:611:16
	ldr	r4, [r0, #20]
	movs	r3, #4
	bics	r4, r3
	str	r4, [r0, #20]
	movw	r4, #1000
	.loc	4 612 27                        @ ../../Library/StdDriver/src/i2c.c:612:27
	udiv	r2, r2, r4
.Ltmp130:
	@DEBUG_VALUE: I2C_SMBusTimeout:u32Pclk <- [DW_OP_LLVM_entry_value 1] $r2
	@DEBUG_VALUE: I2C_SMBusTimeout:u32Pclk_kHz <- $r2
	.loc	4 613 19                        @ ../../Library/StdDriver/src/i2c.c:613:19
	muls	r2, r1, r2
.Ltmp131:
	.loc	4 613 34 is_stmt 0              @ ../../Library/StdDriver/src/i2c.c:613:34
	lsrs	r1, r2, #14
.Ltmp132:
	@DEBUG_VALUE: I2C_SMBusTimeout:ms <- [DW_OP_LLVM_entry_value 1] $r1
	.loc	4 613 51                        @ ../../Library/StdDriver/src/i2c.c:613:51
	subs	r1, r1, #1
.Ltmp133:
	@DEBUG_VALUE: I2C_SMBusTimeout:u32Div <- $r1
	.loc	4 614 8 is_stmt 1               @ ../../Library/StdDriver/src/i2c.c:614:8
	lsrs	r4, r1, #8
	beq	.LBB26_2
.Ltmp134:
@ %bb.1:
	@DEBUG_VALUE: I2C_SMBusTimeout:u32Div <- $r1
	@DEBUG_VALUE: I2C_SMBusTimeout:i2c <- $r0
	@DEBUG_VALUE: I2C_SMBusTimeout:ms <- [DW_OP_LLVM_entry_value 1] $r1
	@DEBUG_VALUE: I2C_SMBusTimeout:u32Pclk <- [DW_OP_LLVM_entry_value 1] $r2
	.loc	4 621 20                        @ ../../Library/StdDriver/src/i2c.c:621:20
	ldr	r1, [r0, #20]
.Ltmp135:
	orrs	r1, r3
	str	r1, [r0, #20]
	.loc	4 622 45                        @ ../../Library/StdDriver/src/i2c.c:622:45
	lsrs	r1, r2, #16
	.loc	4 622 67 is_stmt 0              @ ../../Library/StdDriver/src/i2c.c:622:67
	subs	r1, r1, #1
	.loc	4 622 73                        @ ../../Library/StdDriver/src/i2c.c:622:73
	uxtb	r1, r1
.Ltmp136:
.LBB26_2:
	@DEBUG_VALUE: I2C_SMBusTimeout:i2c <- $r0
	@DEBUG_VALUE: I2C_SMBusTimeout:ms <- [DW_OP_LLVM_entry_value 1] $r1
	@DEBUG_VALUE: I2C_SMBusTimeout:u32Pclk <- [DW_OP_LLVM_entry_value 1] $r2
	.loc	4 0 0                           @ ../../Library/StdDriver/src/i2c.c:0:0
	str	r1, [r0, #100]
.Ltmp137:
	.loc	4 624 1 is_stmt 1               @ ../../Library/StdDriver/src/i2c.c:624:1
	pop	{r4, pc}
.Ltmp138:
.Lfunc_end26:
	.size	I2C_SMBusTimeout, .Lfunc_end26-I2C_SMBusTimeout
	.cfi_endproc
	.cantunwind
	.fnend
                                        @ -- End function
	.section	.text.I2C_SMBusClockLoTimeout,"ax",%progbits
	.hidden	I2C_SMBusClockLoTimeout         @ -- Begin function I2C_SMBusClockLoTimeout
	.globl	I2C_SMBusClockLoTimeout
	.p2align	1
	.type	I2C_SMBusClockLoTimeout,%function
	.code	16                              @ @I2C_SMBusClockLoTimeout
	.thumb_func
I2C_SMBusClockLoTimeout:
.Lfunc_begin27:
	.loc	4 641 0                         @ ../../Library/StdDriver/src/i2c.c:641:0
	.fnstart
	.cfi_startproc
@ %bb.0:
	@DEBUG_VALUE: I2C_SMBusClockLoTimeout:i2c <- $r0
	@DEBUG_VALUE: I2C_SMBusClockLoTimeout:i2c <- $r0
	@DEBUG_VALUE: I2C_SMBusClockLoTimeout:ms <- $r1
	@DEBUG_VALUE: I2C_SMBusClockLoTimeout:ms <- $r1
	@DEBUG_VALUE: I2C_SMBusClockLoTimeout:u32Pclk <- $r2
	@DEBUG_VALUE: I2C_SMBusClockLoTimeout:u32Pclk <- $r2
	.save	{r4, lr}
	push	{r4, lr}
	.cfi_def_cfa_offset 8
	.cfi_offset lr, -4
	.cfi_offset r4, -8
.Ltmp139:
	.loc	4 644 17 prologue_end           @ ../../Library/StdDriver/src/i2c.c:644:17
	ldr	r3, [r0, #80]
	movw	r4, #512
	bics	r3, r4
	str	r3, [r0, #80]
	.loc	4 647 16                        @ ../../Library/StdDriver/src/i2c.c:647:16
	ldr	r4, [r0, #20]
	movs	r3, #4
	bics	r4, r3
	str	r4, [r0, #20]
	movw	r4, #1000
	.loc	4 648 27                        @ ../../Library/StdDriver/src/i2c.c:648:27
	udiv	r2, r2, r4
.Ltmp140:
	@DEBUG_VALUE: I2C_SMBusClockLoTimeout:u32Pclk <- [DW_OP_LLVM_entry_value 1] $r2
	@DEBUG_VALUE: I2C_SMBusClockLoTimeout:u32Pclk_kHz <- $r2
	.loc	4 649 19                        @ ../../Library/StdDriver/src/i2c.c:649:19
	muls	r2, r1, r2
.Ltmp141:
	.loc	4 649 34 is_stmt 0              @ ../../Library/StdDriver/src/i2c.c:649:34
	lsrs	r1, r2, #14
.Ltmp142:
	@DEBUG_VALUE: I2C_SMBusClockLoTimeout:ms <- [DW_OP_LLVM_entry_value 1] $r1
	.loc	4 649 51                        @ ../../Library/StdDriver/src/i2c.c:649:51
	subs	r1, r1, #1
.Ltmp143:
	@DEBUG_VALUE: I2C_SMBusClockLoTimeout:u32Div <- $r1
	.loc	4 650 8 is_stmt 1               @ ../../Library/StdDriver/src/i2c.c:650:8
	lsrs	r4, r1, #8
	beq	.LBB27_2
.Ltmp144:
@ %bb.1:
	@DEBUG_VALUE: I2C_SMBusClockLoTimeout:u32Div <- $r1
	@DEBUG_VALUE: I2C_SMBusClockLoTimeout:i2c <- $r0
	@DEBUG_VALUE: I2C_SMBusClockLoTimeout:ms <- [DW_OP_LLVM_entry_value 1] $r1
	@DEBUG_VALUE: I2C_SMBusClockLoTimeout:u32Pclk <- [DW_OP_LLVM_entry_value 1] $r2
	.loc	4 657 20                        @ ../../Library/StdDriver/src/i2c.c:657:20
	ldr	r1, [r0, #20]
.Ltmp145:
	orrs	r1, r3
	str	r1, [r0, #20]
	.loc	4 658 45                        @ ../../Library/StdDriver/src/i2c.c:658:45
	lsrs	r1, r2, #16
	.loc	4 658 67 is_stmt 0              @ ../../Library/StdDriver/src/i2c.c:658:67
	subs	r1, r1, #1
	.loc	4 658 73                        @ ../../Library/StdDriver/src/i2c.c:658:73
	uxtb	r1, r1
.Ltmp146:
.LBB27_2:
	@DEBUG_VALUE: I2C_SMBusClockLoTimeout:i2c <- $r0
	@DEBUG_VALUE: I2C_SMBusClockLoTimeout:ms <- [DW_OP_LLVM_entry_value 1] $r1
	@DEBUG_VALUE: I2C_SMBusClockLoTimeout:u32Pclk <- [DW_OP_LLVM_entry_value 1] $r2
	.loc	4 0 0                           @ ../../Library/StdDriver/src/i2c.c:0:0
	str	r1, [r0, #104]
.Ltmp147:
	.loc	4 660 1 is_stmt 1               @ ../../Library/StdDriver/src/i2c.c:660:1
	pop	{r4, pc}
.Ltmp148:
.Lfunc_end27:
	.size	I2C_SMBusClockLoTimeout, .Lfunc_end27-I2C_SMBusClockLoTimeout
	.cfi_endproc
	.cantunwind
	.fnend
                                        @ -- End function
	.section	.text.I2C_WriteByte,"ax",%progbits
	.hidden	I2C_WriteByte                   @ -- Begin function I2C_WriteByte
	.globl	I2C_WriteByte
	.p2align	1
	.type	I2C_WriteByte,%function
	.code	16                              @ @I2C_WriteByte
	.thumb_func
I2C_WriteByte:
.Lfunc_begin28:
	.loc	4 677 0                         @ ../../Library/StdDriver/src/i2c.c:677:0
	.fnstart
	.cfi_startproc
@ %bb.0:
	@DEBUG_VALUE: I2C_WriteByte:i2c <- $r0
	@DEBUG_VALUE: I2C_WriteByte:u8SlaveAddr <- $r1
	@DEBUG_VALUE: I2C_WriteByte:u8Data <- $r2
	.save	{r4, r5, r6, r7, lr}
	push	{r4, r5, r6, r7, lr}
	.cfi_def_cfa_offset 20
	.cfi_offset lr, -4
	.cfi_offset r7, -8
	.cfi_offset r6, -12
	.cfi_offset r5, -16
	.cfi_offset r4, -20
	.pad	#4
	sub	sp, #4
	.cfi_def_cfa_offset 24
	str	r2, [sp]                        @ 4-byte Spill
.Ltmp149:
	@DEBUG_VALUE: I2C_WriteByte:u8Ctrl <- 0
	@DEBUG_VALUE: I2C_WriteByte:u8Err <- 0
	@DEBUG_VALUE: I2C_WriteByte:u8Xfering <- 1
	@DEBUG_VALUE: I2C_WriteByte:u8Data <- [$sp+0]
	@DEBUG_VALUE: I2C_WriteByte:u8SlaveAddr <- $r1
	@DEBUG_VALUE: I2C_WriteByte:i2c <- $r0
	.loc	4 680 5 prologue_end            @ ../../Library/StdDriver/src/i2c.c:680:5
	ldr	r2, [r0]
	movs	r3, #40
	orrs	r3, r2
	str	r3, [r0]
.Ltmp150:
	.loc	4 0 0 is_stmt 0                 @ ../../Library/StdDriver/src/i2c.c:0:0
	lsls	r1, r1, #25
.Ltmp151:
	@DEBUG_VALUE: I2C_WriteByte:u8SlaveAddr <- [DW_OP_LLVM_entry_value 1] $r1
	lsrs	r2, r1, #24
	movs	r3, #1
	movs	r6, #0
	movs	r5, #3
	mov	r4, r6
.Ltmp152:
	@DEBUG_VALUE: I2C_WriteByte:u8Xfering <- $r3
	@DEBUG_VALUE: I2C_WriteByte:u8Err <- $r4
	@DEBUG_VALUE: I2C_WriteByte:u8Ctrl <- $r6
.LBB28_1:                               @ =>This Inner Loop Header: Depth=1
	@DEBUG_VALUE: I2C_WriteByte:u8Ctrl <- $r6
	@DEBUG_VALUE: I2C_WriteByte:u8Err <- $r4
	@DEBUG_VALUE: I2C_WriteByte:u8Xfering <- $r3
	@DEBUG_VALUE: I2C_WriteByte:i2c <- $r0
	@DEBUG_VALUE: I2C_WriteByte:u8Data <- [$sp+0]
	@DEBUG_VALUE: I2C_WriteByte:u8SlaveAddr <- [DW_OP_LLVM_entry_value 1] $r1
	.loc	4 683 9 is_stmt 1               @ ../../Library/StdDriver/src/i2c.c:683:9
	ldr	r1, [r0]
	lsls	r1, r1, #28
	bpl	.LBB28_1
.Ltmp153:
@ %bb.2:                                @   in Loop: Header=BB28_1 Depth=1
	@DEBUG_VALUE: I2C_WriteByte:u8Ctrl <- $r6
	@DEBUG_VALUE: I2C_WriteByte:u8Err <- $r4
	@DEBUG_VALUE: I2C_WriteByte:u8Xfering <- $r3
	@DEBUG_VALUE: I2C_WriteByte:i2c <- $r0
	@DEBUG_VALUE: I2C_WriteByte:u8Data <- [$sp+0]
	@DEBUG_VALUE: I2C_WriteByte:u8SlaveAddr <- [DW_OP_LLVM_entry_value 1] $r1
	.loc	4 684 16                        @ ../../Library/StdDriver/src/i2c.c:684:16
	ldr	r1, [r0, #12]
	.loc	4 684 9 is_stmt 0               @ ../../Library/StdDriver/src/i2c.c:684:9
	subs	r1, #8
	rors	r1, r5
	movs	r7, #24
	cmp	r1, #4
	beq	.LBB28_6
.Ltmp154:
@ %bb.3:                                @   in Loop: Header=BB28_1 Depth=1
	@DEBUG_VALUE: I2C_WriteByte:u8Ctrl <- $r6
	@DEBUG_VALUE: I2C_WriteByte:u8Err <- $r4
	@DEBUG_VALUE: I2C_WriteByte:u8Xfering <- $r3
	@DEBUG_VALUE: I2C_WriteByte:i2c <- $r0
	@DEBUG_VALUE: I2C_WriteByte:u8Data <- [$sp+0]
	@DEBUG_VALUE: I2C_WriteByte:u8SlaveAddr <- [DW_OP_LLVM_entry_value 1] $r1
	cmp	r1, #2
	beq	.LBB28_7
.Ltmp155:
@ %bb.4:                                @   in Loop: Header=BB28_1 Depth=1
	@DEBUG_VALUE: I2C_WriteByte:u8Ctrl <- $r6
	@DEBUG_VALUE: I2C_WriteByte:u8Err <- $r4
	@DEBUG_VALUE: I2C_WriteByte:u8Xfering <- $r3
	@DEBUG_VALUE: I2C_WriteByte:i2c <- $r0
	@DEBUG_VALUE: I2C_WriteByte:u8Data <- [$sp+0]
	@DEBUG_VALUE: I2C_WriteByte:u8SlaveAddr <- [DW_OP_LLVM_entry_value 1] $r1
	cbnz	r1, .LBB28_8
.Ltmp156:
@ %bb.5:                                @   in Loop: Header=BB28_1 Depth=1
	@DEBUG_VALUE: I2C_WriteByte:u8Ctrl <- $r6
	@DEBUG_VALUE: I2C_WriteByte:u8Err <- $r4
	@DEBUG_VALUE: I2C_WriteByte:u8Xfering <- $r3
	@DEBUG_VALUE: I2C_WriteByte:i2c <- $r0
	@DEBUG_VALUE: I2C_WriteByte:u8Data <- [$sp+0]
	@DEBUG_VALUE: I2C_WriteByte:u8SlaveAddr <- [DW_OP_LLVM_entry_value 1] $r1
	.loc	4 687 17 is_stmt 1              @ ../../Library/StdDriver/src/i2c.c:687:17
	str	r2, [r0, #8]
	movs	r6, #8
.Ltmp157:
	@DEBUG_VALUE: I2C_WriteByte:u8Ctrl <- 8
	.loc	4 0 17 is_stmt 0                @ ../../Library/StdDriver/src/i2c.c:0:17
	b	.LBB28_10
.Ltmp158:
.LBB28_6:                               @   in Loop: Header=BB28_1 Depth=1
	@DEBUG_VALUE: I2C_WriteByte:u8Ctrl <- $r6
	@DEBUG_VALUE: I2C_WriteByte:u8Err <- $r4
	@DEBUG_VALUE: I2C_WriteByte:u8Xfering <- $r3
	@DEBUG_VALUE: I2C_WriteByte:i2c <- $r0
	@DEBUG_VALUE: I2C_WriteByte:u8Data <- [$sp+0]
	@DEBUG_VALUE: I2C_WriteByte:u8SlaveAddr <- [DW_OP_LLVM_entry_value 1] $r1
	movs	r3, #0
.Ltmp159:
	@DEBUG_VALUE: I2C_WriteByte:u8Ctrl <- 24
	@DEBUG_VALUE: I2C_WriteByte:u8Xfering <- 0
	b	.LBB28_9
.Ltmp160:
.LBB28_7:                               @   in Loop: Header=BB28_1 Depth=1
	@DEBUG_VALUE: I2C_WriteByte:u8Ctrl <- $r6
	@DEBUG_VALUE: I2C_WriteByte:u8Err <- $r4
	@DEBUG_VALUE: I2C_WriteByte:u8Xfering <- $r3
	@DEBUG_VALUE: I2C_WriteByte:i2c <- $r0
	@DEBUG_VALUE: I2C_WriteByte:u8Data <- [$sp+0]
	@DEBUG_VALUE: I2C_WriteByte:u8SlaveAddr <- [DW_OP_LLVM_entry_value 1] $r1
	.loc	4 691 17 is_stmt 1              @ ../../Library/StdDriver/src/i2c.c:691:17
	ldr	r1, [sp]                        @ 4-byte Reload
	str	r1, [r0, #8]
	b	.LBB28_10
.Ltmp161:
.LBB28_8:                               @   in Loop: Header=BB28_1 Depth=1
	@DEBUG_VALUE: I2C_WriteByte:u8Ctrl <- $r6
	@DEBUG_VALUE: I2C_WriteByte:u8Err <- $r4
	@DEBUG_VALUE: I2C_WriteByte:u8Xfering <- $r3
	@DEBUG_VALUE: I2C_WriteByte:i2c <- $r0
	@DEBUG_VALUE: I2C_WriteByte:u8Data <- [$sp+0]
	@DEBUG_VALUE: I2C_WriteByte:u8SlaveAddr <- [DW_OP_LLVM_entry_value 1] $r1
	.loc	4 0 17 is_stmt 0                @ ../../Library/StdDriver/src/i2c.c:0:17
	movs	r4, #1
.Ltmp162:
.LBB28_9:                               @   in Loop: Header=BB28_1 Depth=1
	@DEBUG_VALUE: I2C_WriteByte:i2c <- $r0
	@DEBUG_VALUE: I2C_WriteByte:u8Data <- [$sp+0]
	@DEBUG_VALUE: I2C_WriteByte:u8SlaveAddr <- [DW_OP_LLVM_entry_value 1] $r1
	mov	r6, r7
.Ltmp163:
.LBB28_10:                              @   in Loop: Header=BB28_1 Depth=1
	@DEBUG_VALUE: I2C_WriteByte:i2c <- $r0
	@DEBUG_VALUE: I2C_WriteByte:u8Data <- [$sp+0]
	@DEBUG_VALUE: I2C_WriteByte:u8SlaveAddr <- [DW_OP_LLVM_entry_value 1] $r1
	@DEBUG_VALUE: I2C_WriteByte:u8Xfering <- $r3
	@DEBUG_VALUE: I2C_WriteByte:u8Err <- $r4
	@DEBUG_VALUE: I2C_WriteByte:u8Ctrl <- $r6
	.loc	4 708 9 is_stmt 1               @ ../../Library/StdDriver/src/i2c.c:708:9
	ldr	r1, [r0]
	movs	r7, #60
	bics	r1, r7
	uxtb	r7, r6
	orrs	r7, r1
	str	r7, [r0]
.Ltmp164:
	.loc	4 681 5                         @ ../../Library/StdDriver/src/i2c.c:681:5
	cbz	r3, .LBB28_12
.Ltmp165:
@ %bb.11:                               @   in Loop: Header=BB28_1 Depth=1
	@DEBUG_VALUE: I2C_WriteByte:u8Ctrl <- $r6
	@DEBUG_VALUE: I2C_WriteByte:u8Err <- $r4
	@DEBUG_VALUE: I2C_WriteByte:u8Xfering <- $r3
	@DEBUG_VALUE: I2C_WriteByte:i2c <- $r0
	@DEBUG_VALUE: I2C_WriteByte:u8Data <- [$sp+0]
	@DEBUG_VALUE: I2C_WriteByte:u8SlaveAddr <- [DW_OP_LLVM_entry_value 1] $r1
	cmp	r4, #0
	beq	.LBB28_1
.Ltmp166:
.LBB28_12:
	@DEBUG_VALUE: I2C_WriteByte:u8Ctrl <- $r6
	@DEBUG_VALUE: I2C_WriteByte:u8Err <- $r4
	@DEBUG_VALUE: I2C_WriteByte:u8Xfering <- $r3
	@DEBUG_VALUE: I2C_WriteByte:i2c <- $r0
	@DEBUG_VALUE: I2C_WriteByte:u8Data <- [$sp+0]
	@DEBUG_VALUE: I2C_WriteByte:u8SlaveAddr <- [DW_OP_LLVM_entry_value 1] $r1
	@DEBUG_VALUE: I2C_WriteByte:u8Xfering <- $r3
	@DEBUG_VALUE: I2C_WriteByte:u8Err <- $r4
	.loc	4 710 19                        @ ../../Library/StdDriver/src/i2c.c:710:19
	orrs	r4, r3
.Ltmp167:
	.loc	4 710 5 is_stmt 0               @ ../../Library/StdDriver/src/i2c.c:710:5
	uxtb	r0, r4
.Ltmp168:
	@DEBUG_VALUE: I2C_WriteByte:i2c <- [DW_OP_LLVM_entry_value 1] $r0
	add	sp, #4
.Ltmp169:
	pop	{r4, r5, r6, r7, pc}
.Ltmp170:
.Lfunc_end28:
	.size	I2C_WriteByte, .Lfunc_end28-I2C_WriteByte
	.cfi_endproc
	.cantunwind
	.fnend
                                        @ -- End function
	.section	.text.I2C_WriteMultiBytes,"ax",%progbits
	.hidden	I2C_WriteMultiBytes             @ -- Begin function I2C_WriteMultiBytes
	.globl	I2C_WriteMultiBytes
	.p2align	1
	.type	I2C_WriteMultiBytes,%function
	.code	16                              @ @I2C_WriteMultiBytes
	.thumb_func
I2C_WriteMultiBytes:
.Lfunc_begin29:
	.loc	4 728 0 is_stmt 1               @ ../../Library/StdDriver/src/i2c.c:728:0
	.fnstart
	.cfi_startproc
@ %bb.0:
	@DEBUG_VALUE: I2C_WriteMultiBytes:i2c <- $r0
	@DEBUG_VALUE: I2C_WriteMultiBytes:u8SlaveAddr <- $r1
	@DEBUG_VALUE: I2C_WriteMultiBytes:au8Data <- $r2
	@DEBUG_VALUE: I2C_WriteMultiBytes:u32wLen <- $r3
	.save	{r4, r5, r6, r7, lr}
	push	{r4, r5, r6, r7, lr}
	.cfi_def_cfa_offset 20
	.cfi_offset lr, -4
	.cfi_offset r7, -8
	.cfi_offset r6, -12
	.cfi_offset r5, -16
	.cfi_offset r4, -20
	.pad	#8
	sub	sp, #8
	.cfi_def_cfa_offset 28
	str	r2, [sp, #4]                    @ 4-byte Spill
.Ltmp171:
	@DEBUG_VALUE: I2C_WriteMultiBytes:u32txLen <- 0
	@DEBUG_VALUE: I2C_WriteMultiBytes:u8Ctrl <- 0
	@DEBUG_VALUE: I2C_WriteMultiBytes:u8Err <- 0
	@DEBUG_VALUE: I2C_WriteMultiBytes:u8Xfering <- 1
	@DEBUG_VALUE: I2C_WriteMultiBytes:u32wLen <- $r3
	@DEBUG_VALUE: I2C_WriteMultiBytes:au8Data <- [DW_OP_plus_uconst 4] [$sp+0]
	@DEBUG_VALUE: I2C_WriteMultiBytes:u8SlaveAddr <- $r1
	@DEBUG_VALUE: I2C_WriteMultiBytes:i2c <- $r0
	.loc	4 732 5 prologue_end            @ ../../Library/StdDriver/src/i2c.c:732:5
	ldr	r2, [r0]
	movs	r4, #40
	orrs	r4, r2
	str	r4, [r0]
.Ltmp172:
	.loc	4 0 0 is_stmt 0                 @ ../../Library/StdDriver/src/i2c.c:0:0
	lsls	r1, r1, #25
.Ltmp173:
	@DEBUG_VALUE: I2C_WriteMultiBytes:u8SlaveAddr <- [DW_OP_LLVM_entry_value 1] $r1
	lsrs	r1, r1, #24
	str	r1, [sp]                        @ 4-byte Spill
	movs	r5, #1
	movs	r6, #0
	mov	r1, r6
	mov	r4, r6
.Ltmp174:
	@DEBUG_VALUE: I2C_WriteMultiBytes:u8Xfering <- $r5
	@DEBUG_VALUE: I2C_WriteMultiBytes:u8Err <- $r4
	@DEBUG_VALUE: I2C_WriteMultiBytes:u8Ctrl <- $r1
	@DEBUG_VALUE: I2C_WriteMultiBytes:u32txLen <- $r6
.LBB29_1:                               @ =>This Inner Loop Header: Depth=1
	@DEBUG_VALUE: I2C_WriteMultiBytes:u32txLen <- $r6
	@DEBUG_VALUE: I2C_WriteMultiBytes:u8Xfering <- $r5
	@DEBUG_VALUE: I2C_WriteMultiBytes:u8Err <- $r4
	@DEBUG_VALUE: I2C_WriteMultiBytes:u32wLen <- $r3
	@DEBUG_VALUE: I2C_WriteMultiBytes:u8Ctrl <- $r1
	@DEBUG_VALUE: I2C_WriteMultiBytes:i2c <- $r0
	@DEBUG_VALUE: I2C_WriteMultiBytes:au8Data <- [DW_OP_plus_uconst 4] [$sp+0]
	@DEBUG_VALUE: I2C_WriteMultiBytes:u8SlaveAddr <- [DW_OP_LLVM_entry_value 1] $r1
	.loc	4 735 9 is_stmt 1               @ ../../Library/StdDriver/src/i2c.c:735:9
	ldr	r2, [r0]
	lsls	r2, r2, #28
	bpl	.LBB29_1
.Ltmp175:
@ %bb.2:                                @   in Loop: Header=BB29_1 Depth=1
	@DEBUG_VALUE: I2C_WriteMultiBytes:u32txLen <- $r6
	@DEBUG_VALUE: I2C_WriteMultiBytes:u8Xfering <- $r5
	@DEBUG_VALUE: I2C_WriteMultiBytes:u8Err <- $r4
	@DEBUG_VALUE: I2C_WriteMultiBytes:u32wLen <- $r3
	@DEBUG_VALUE: I2C_WriteMultiBytes:u8Ctrl <- $r1
	@DEBUG_VALUE: I2C_WriteMultiBytes:i2c <- $r0
	@DEBUG_VALUE: I2C_WriteMultiBytes:au8Data <- [DW_OP_plus_uconst 4] [$sp+0]
	@DEBUG_VALUE: I2C_WriteMultiBytes:u8SlaveAddr <- [DW_OP_LLVM_entry_value 1] $r1
	.loc	4 736 16                        @ ../../Library/StdDriver/src/i2c.c:736:16
	ldr	r2, [r0, #12]
	.loc	4 736 9 is_stmt 0               @ ../../Library/StdDriver/src/i2c.c:736:9
	subs	r2, #8
	movs	r7, #3
	rors	r2, r7
	movs	r7, #24
	cmp	r2, #4
	beq	.LBB29_6
.Ltmp176:
@ %bb.3:                                @   in Loop: Header=BB29_1 Depth=1
	@DEBUG_VALUE: I2C_WriteMultiBytes:u32txLen <- $r6
	@DEBUG_VALUE: I2C_WriteMultiBytes:u8Xfering <- $r5
	@DEBUG_VALUE: I2C_WriteMultiBytes:u8Err <- $r4
	@DEBUG_VALUE: I2C_WriteMultiBytes:u32wLen <- $r3
	@DEBUG_VALUE: I2C_WriteMultiBytes:u8Ctrl <- $r1
	@DEBUG_VALUE: I2C_WriteMultiBytes:i2c <- $r0
	@DEBUG_VALUE: I2C_WriteMultiBytes:au8Data <- [DW_OP_plus_uconst 4] [$sp+0]
	@DEBUG_VALUE: I2C_WriteMultiBytes:u8SlaveAddr <- [DW_OP_LLVM_entry_value 1] $r1
	cmp	r2, #2
	beq	.LBB29_6
.Ltmp177:
@ %bb.4:                                @   in Loop: Header=BB29_1 Depth=1
	@DEBUG_VALUE: I2C_WriteMultiBytes:u32txLen <- $r6
	@DEBUG_VALUE: I2C_WriteMultiBytes:u8Xfering <- $r5
	@DEBUG_VALUE: I2C_WriteMultiBytes:u8Err <- $r4
	@DEBUG_VALUE: I2C_WriteMultiBytes:u32wLen <- $r3
	@DEBUG_VALUE: I2C_WriteMultiBytes:u8Ctrl <- $r1
	@DEBUG_VALUE: I2C_WriteMultiBytes:i2c <- $r0
	@DEBUG_VALUE: I2C_WriteMultiBytes:au8Data <- [DW_OP_plus_uconst 4] [$sp+0]
	@DEBUG_VALUE: I2C_WriteMultiBytes:u8SlaveAddr <- [DW_OP_LLVM_entry_value 1] $r1
	cbnz	r2, .LBB29_8
.Ltmp178:
@ %bb.5:                                @   in Loop: Header=BB29_1 Depth=1
	@DEBUG_VALUE: I2C_WriteMultiBytes:u32txLen <- $r6
	@DEBUG_VALUE: I2C_WriteMultiBytes:u8Xfering <- $r5
	@DEBUG_VALUE: I2C_WriteMultiBytes:u8Err <- $r4
	@DEBUG_VALUE: I2C_WriteMultiBytes:u32wLen <- $r3
	@DEBUG_VALUE: I2C_WriteMultiBytes:u8Ctrl <- $r1
	@DEBUG_VALUE: I2C_WriteMultiBytes:i2c <- $r0
	@DEBUG_VALUE: I2C_WriteMultiBytes:au8Data <- [DW_OP_plus_uconst 4] [$sp+0]
	@DEBUG_VALUE: I2C_WriteMultiBytes:u8SlaveAddr <- [DW_OP_LLVM_entry_value 1] $r1
	.loc	4 739 17 is_stmt 1              @ ../../Library/StdDriver/src/i2c.c:739:17
	ldr	r1, [sp]                        @ 4-byte Reload
.Ltmp179:
	str	r1, [r0, #8]
	movs	r1, #8
.Ltmp180:
	@DEBUG_VALUE: I2C_WriteMultiBytes:u8Ctrl <- 8
	.loc	4 0 17 is_stmt 0                @ ../../Library/StdDriver/src/i2c.c:0:17
	b	.LBB29_11
.Ltmp181:
.LBB29_6:                               @   in Loop: Header=BB29_1 Depth=1
	@DEBUG_VALUE: I2C_WriteMultiBytes:u32txLen <- $r6
	@DEBUG_VALUE: I2C_WriteMultiBytes:u8Xfering <- $r5
	@DEBUG_VALUE: I2C_WriteMultiBytes:u8Err <- $r4
	@DEBUG_VALUE: I2C_WriteMultiBytes:u32wLen <- $r3
	@DEBUG_VALUE: I2C_WriteMultiBytes:u8Ctrl <- $r1
	@DEBUG_VALUE: I2C_WriteMultiBytes:i2c <- $r0
	@DEBUG_VALUE: I2C_WriteMultiBytes:au8Data <- [DW_OP_plus_uconst 4] [$sp+0]
	@DEBUG_VALUE: I2C_WriteMultiBytes:u8SlaveAddr <- [DW_OP_LLVM_entry_value 1] $r1
	.loc	4 744 20 is_stmt 1              @ ../../Library/StdDriver/src/i2c.c:744:20
	cmp	r6, r3
	bhs	.LBB29_9
.Ltmp182:
@ %bb.7:                                @   in Loop: Header=BB29_1 Depth=1
	@DEBUG_VALUE: I2C_WriteMultiBytes:u32txLen <- $r6
	@DEBUG_VALUE: I2C_WriteMultiBytes:u8Xfering <- $r5
	@DEBUG_VALUE: I2C_WriteMultiBytes:u8Err <- $r4
	@DEBUG_VALUE: I2C_WriteMultiBytes:u32wLen <- $r3
	@DEBUG_VALUE: I2C_WriteMultiBytes:u8Ctrl <- $r1
	@DEBUG_VALUE: I2C_WriteMultiBytes:i2c <- $r0
	@DEBUG_VALUE: I2C_WriteMultiBytes:au8Data <- [DW_OP_plus_uconst 4] [$sp+0]
	@DEBUG_VALUE: I2C_WriteMultiBytes:u8SlaveAddr <- [DW_OP_LLVM_entry_value 1] $r1
	.loc	4 746 21                        @ ../../Library/StdDriver/src/i2c.c:746:21
	ldr	r2, [sp, #4]                    @ 4-byte Reload
	ldrb	r2, [r2, r6]
	str	r2, [r0, #8]
	adds	r6, r6, #1
.Ltmp183:
	@DEBUG_VALUE: I2C_WriteMultiBytes:u32txLen <- $r6
	.loc	4 0 21 is_stmt 0                @ ../../Library/StdDriver/src/i2c.c:0:21
	b	.LBB29_11
.Ltmp184:
.LBB29_8:                               @   in Loop: Header=BB29_1 Depth=1
	@DEBUG_VALUE: I2C_WriteMultiBytes:u32txLen <- $r6
	@DEBUG_VALUE: I2C_WriteMultiBytes:u8Xfering <- $r5
	@DEBUG_VALUE: I2C_WriteMultiBytes:u8Err <- $r4
	@DEBUG_VALUE: I2C_WriteMultiBytes:u32wLen <- $r3
	@DEBUG_VALUE: I2C_WriteMultiBytes:u8Ctrl <- $r1
	@DEBUG_VALUE: I2C_WriteMultiBytes:i2c <- $r0
	@DEBUG_VALUE: I2C_WriteMultiBytes:au8Data <- [DW_OP_plus_uconst 4] [$sp+0]
	@DEBUG_VALUE: I2C_WriteMultiBytes:u8SlaveAddr <- [DW_OP_LLVM_entry_value 1] $r1
	movs	r4, #1
.Ltmp185:
	b	.LBB29_10
.Ltmp186:
.LBB29_9:                               @   in Loop: Header=BB29_1 Depth=1
	@DEBUG_VALUE: I2C_WriteMultiBytes:u32txLen <- $r6
	@DEBUG_VALUE: I2C_WriteMultiBytes:u8Xfering <- $r5
	@DEBUG_VALUE: I2C_WriteMultiBytes:u8Err <- $r4
	@DEBUG_VALUE: I2C_WriteMultiBytes:u32wLen <- $r3
	@DEBUG_VALUE: I2C_WriteMultiBytes:u8Ctrl <- $r1
	@DEBUG_VALUE: I2C_WriteMultiBytes:i2c <- $r0
	@DEBUG_VALUE: I2C_WriteMultiBytes:au8Data <- [DW_OP_plus_uconst 4] [$sp+0]
	@DEBUG_VALUE: I2C_WriteMultiBytes:u8SlaveAddr <- [DW_OP_LLVM_entry_value 1] $r1
	movs	r5, #0
.Ltmp187:
.LBB29_10:                              @   in Loop: Header=BB29_1 Depth=1
	@DEBUG_VALUE: I2C_WriteMultiBytes:u32txLen <- $r6
	@DEBUG_VALUE: I2C_WriteMultiBytes:u32wLen <- $r3
	@DEBUG_VALUE: I2C_WriteMultiBytes:u8Ctrl <- $r1
	@DEBUG_VALUE: I2C_WriteMultiBytes:i2c <- $r0
	@DEBUG_VALUE: I2C_WriteMultiBytes:au8Data <- [DW_OP_plus_uconst 4] [$sp+0]
	@DEBUG_VALUE: I2C_WriteMultiBytes:u8SlaveAddr <- [DW_OP_LLVM_entry_value 1] $r1
	mov	r1, r7
.Ltmp188:
.LBB29_11:                              @   in Loop: Header=BB29_1 Depth=1
	@DEBUG_VALUE: I2C_WriteMultiBytes:u32txLen <- $r6
	@DEBUG_VALUE: I2C_WriteMultiBytes:u32wLen <- $r3
	@DEBUG_VALUE: I2C_WriteMultiBytes:i2c <- $r0
	@DEBUG_VALUE: I2C_WriteMultiBytes:au8Data <- [DW_OP_plus_uconst 4] [$sp+0]
	@DEBUG_VALUE: I2C_WriteMultiBytes:u8SlaveAddr <- [DW_OP_LLVM_entry_value 1] $r1
	@DEBUG_VALUE: I2C_WriteMultiBytes:u8Xfering <- $r5
	@DEBUG_VALUE: I2C_WriteMultiBytes:u8Err <- $r4
	@DEBUG_VALUE: I2C_WriteMultiBytes:u8Ctrl <- $r1
	@DEBUG_VALUE: I2C_WriteMultiBytes:u32txLen <- $r6
	.loc	4 765 9 is_stmt 1               @ ../../Library/StdDriver/src/i2c.c:765:9
	ldr	r2, [r0]
	movs	r7, #60
	bics	r2, r7
	uxtb	r7, r1
	orrs	r7, r2
	str	r7, [r0]
.Ltmp189:
	.loc	4 733 5                         @ ../../Library/StdDriver/src/i2c.c:733:5
	cbz	r5, .LBB29_13
.Ltmp190:
@ %bb.12:                               @   in Loop: Header=BB29_1 Depth=1
	@DEBUG_VALUE: I2C_WriteMultiBytes:u32txLen <- $r6
	@DEBUG_VALUE: I2C_WriteMultiBytes:u8Xfering <- $r5
	@DEBUG_VALUE: I2C_WriteMultiBytes:u8Err <- $r4
	@DEBUG_VALUE: I2C_WriteMultiBytes:u32wLen <- $r3
	@DEBUG_VALUE: I2C_WriteMultiBytes:u8Ctrl <- $r1
	@DEBUG_VALUE: I2C_WriteMultiBytes:i2c <- $r0
	@DEBUG_VALUE: I2C_WriteMultiBytes:au8Data <- [DW_OP_plus_uconst 4] [$sp+0]
	@DEBUG_VALUE: I2C_WriteMultiBytes:u8SlaveAddr <- [DW_OP_LLVM_entry_value 1] $r1
	cmp	r4, #0
	beq	.LBB29_1
.Ltmp191:
.LBB29_13:
	@DEBUG_VALUE: I2C_WriteMultiBytes:u32txLen <- $r6
	@DEBUG_VALUE: I2C_WriteMultiBytes:u8Xfering <- $r5
	@DEBUG_VALUE: I2C_WriteMultiBytes:u8Err <- $r4
	@DEBUG_VALUE: I2C_WriteMultiBytes:u32wLen <- $r3
	@DEBUG_VALUE: I2C_WriteMultiBytes:u8Ctrl <- $r1
	@DEBUG_VALUE: I2C_WriteMultiBytes:i2c <- $r0
	@DEBUG_VALUE: I2C_WriteMultiBytes:au8Data <- [DW_OP_plus_uconst 4] [$sp+0]
	@DEBUG_VALUE: I2C_WriteMultiBytes:u8SlaveAddr <- [DW_OP_LLVM_entry_value 1] $r1
	@DEBUG_VALUE: I2C_WriteMultiBytes:u32txLen <- $r6
	.loc	4 767 5                         @ ../../Library/StdDriver/src/i2c.c:767:5
	mov	r0, r6
.Ltmp192:
	@DEBUG_VALUE: I2C_WriteMultiBytes:i2c <- [DW_OP_LLVM_entry_value 1] $r0
	add	sp, #8
.Ltmp193:
	pop	{r4, r5, r6, r7, pc}
.Ltmp194:
.Lfunc_end29:
	.size	I2C_WriteMultiBytes, .Lfunc_end29-I2C_WriteMultiBytes
	.cfi_endproc
	.cantunwind
	.fnend
                                        @ -- End function
	.section	.text.I2C_WriteByteOneReg,"ax",%progbits
	.hidden	I2C_WriteByteOneReg             @ -- Begin function I2C_WriteByteOneReg
	.globl	I2C_WriteByteOneReg
	.p2align	1
	.type	I2C_WriteByteOneReg,%function
	.code	16                              @ @I2C_WriteByteOneReg
	.thumb_func
I2C_WriteByteOneReg:
.Lfunc_begin30:
	.loc	4 786 0                         @ ../../Library/StdDriver/src/i2c.c:786:0
	.fnstart
	.cfi_startproc
@ %bb.0:
	@DEBUG_VALUE: I2C_WriteByteOneReg:i2c <- $r0
	@DEBUG_VALUE: I2C_WriteByteOneReg:u8SlaveAddr <- $r1
	@DEBUG_VALUE: I2C_WriteByteOneReg:u8DataAddr <- $r2
	@DEBUG_VALUE: I2C_WriteByteOneReg:u8Data <- $r3
	.save	{r4, r5, r6, r7, lr}
	push	{r4, r5, r6, r7, lr}
	.cfi_def_cfa_offset 20
	.cfi_offset lr, -4
	.cfi_offset r7, -8
	.cfi_offset r6, -12
	.cfi_offset r5, -16
	.cfi_offset r4, -20
	.pad	#8
	sub	sp, #8
	.cfi_def_cfa_offset 28
	str	r3, [sp]                        @ 4-byte Spill
	str	r2, [sp, #4]                    @ 4-byte Spill
.Ltmp195:
	@DEBUG_VALUE: I2C_WriteByteOneReg:u32txLen <- 0
	@DEBUG_VALUE: I2C_WriteByteOneReg:u8Ctrl <- 0
	@DEBUG_VALUE: I2C_WriteByteOneReg:u8Err <- 0
	@DEBUG_VALUE: I2C_WriteByteOneReg:u8Xfering <- 1
	@DEBUG_VALUE: I2C_WriteByteOneReg:u8Data <- [$sp+0]
	@DEBUG_VALUE: I2C_WriteByteOneReg:u8DataAddr <- [DW_OP_plus_uconst 4] [$sp+0]
	@DEBUG_VALUE: I2C_WriteByteOneReg:u8SlaveAddr <- $r1
	@DEBUG_VALUE: I2C_WriteByteOneReg:i2c <- $r0
	.loc	4 790 5 prologue_end            @ ../../Library/StdDriver/src/i2c.c:790:5
	ldr	r2, [r0]
	movs	r3, #40
	orrs	r3, r2
	str	r3, [r0]
.Ltmp196:
	.loc	4 0 0 is_stmt 0                 @ ../../Library/StdDriver/src/i2c.c:0:0
	lsls	r1, r1, #25
.Ltmp197:
	@DEBUG_VALUE: I2C_WriteByteOneReg:u8SlaveAddr <- [DW_OP_LLVM_entry_value 1] $r1
	lsrs	r2, r1, #24
	movs	r4, #1
	movs	r1, #0
	mov	r6, r1
	mov	r5, r1
.Ltmp198:
	@DEBUG_VALUE: I2C_WriteByteOneReg:u8Xfering <- $r4
	@DEBUG_VALUE: I2C_WriteByteOneReg:u8Err <- $r5
	@DEBUG_VALUE: I2C_WriteByteOneReg:u8Ctrl <- $r6
	@DEBUG_VALUE: I2C_WriteByteOneReg:u32txLen <- $r1
.LBB30_1:                               @ =>This Inner Loop Header: Depth=1
	@DEBUG_VALUE: I2C_WriteByteOneReg:u8Ctrl <- $r6
	@DEBUG_VALUE: I2C_WriteByteOneReg:u8Err <- $r5
	@DEBUG_VALUE: I2C_WriteByteOneReg:u8Xfering <- $r4
	@DEBUG_VALUE: I2C_WriteByteOneReg:u32txLen <- $r1
	@DEBUG_VALUE: I2C_WriteByteOneReg:i2c <- $r0
	@DEBUG_VALUE: I2C_WriteByteOneReg:u8DataAddr <- [DW_OP_plus_uconst 4] [$sp+0]
	@DEBUG_VALUE: I2C_WriteByteOneReg:u8Data <- [$sp+0]
	@DEBUG_VALUE: I2C_WriteByteOneReg:u8SlaveAddr <- [DW_OP_LLVM_entry_value 1] $r1
	.loc	4 793 9 is_stmt 1               @ ../../Library/StdDriver/src/i2c.c:793:9
	ldr	r3, [r0]
	lsls	r3, r3, #28
	bpl	.LBB30_1
.Ltmp199:
@ %bb.2:                                @   in Loop: Header=BB30_1 Depth=1
	@DEBUG_VALUE: I2C_WriteByteOneReg:u8Ctrl <- $r6
	@DEBUG_VALUE: I2C_WriteByteOneReg:u8Err <- $r5
	@DEBUG_VALUE: I2C_WriteByteOneReg:u8Xfering <- $r4
	@DEBUG_VALUE: I2C_WriteByteOneReg:u32txLen <- $r1
	@DEBUG_VALUE: I2C_WriteByteOneReg:i2c <- $r0
	@DEBUG_VALUE: I2C_WriteByteOneReg:u8DataAddr <- [DW_OP_plus_uconst 4] [$sp+0]
	@DEBUG_VALUE: I2C_WriteByteOneReg:u8Data <- [$sp+0]
	@DEBUG_VALUE: I2C_WriteByteOneReg:u8SlaveAddr <- [DW_OP_LLVM_entry_value 1] $r1
	.loc	4 794 16                        @ ../../Library/StdDriver/src/i2c.c:794:16
	ldr	r3, [r0, #12]
	.loc	4 794 9 is_stmt 0               @ ../../Library/StdDriver/src/i2c.c:794:9
	subs	r3, #8
	movs	r7, #3
	rors	r3, r7
	movs	r7, #24
	cmp	r3, #4
	beq	.LBB30_6
.Ltmp200:
@ %bb.3:                                @   in Loop: Header=BB30_1 Depth=1
	@DEBUG_VALUE: I2C_WriteByteOneReg:u8Ctrl <- $r6
	@DEBUG_VALUE: I2C_WriteByteOneReg:u8Err <- $r5
	@DEBUG_VALUE: I2C_WriteByteOneReg:u8Xfering <- $r4
	@DEBUG_VALUE: I2C_WriteByteOneReg:u32txLen <- $r1
	@DEBUG_VALUE: I2C_WriteByteOneReg:i2c <- $r0
	@DEBUG_VALUE: I2C_WriteByteOneReg:u8DataAddr <- [DW_OP_plus_uconst 4] [$sp+0]
	@DEBUG_VALUE: I2C_WriteByteOneReg:u8Data <- [$sp+0]
	@DEBUG_VALUE: I2C_WriteByteOneReg:u8SlaveAddr <- [DW_OP_LLVM_entry_value 1] $r1
	cmp	r3, #2
	beq	.LBB30_8
.Ltmp201:
@ %bb.4:                                @   in Loop: Header=BB30_1 Depth=1
	@DEBUG_VALUE: I2C_WriteByteOneReg:u8Ctrl <- $r6
	@DEBUG_VALUE: I2C_WriteByteOneReg:u8Err <- $r5
	@DEBUG_VALUE: I2C_WriteByteOneReg:u8Xfering <- $r4
	@DEBUG_VALUE: I2C_WriteByteOneReg:u32txLen <- $r1
	@DEBUG_VALUE: I2C_WriteByteOneReg:i2c <- $r0
	@DEBUG_VALUE: I2C_WriteByteOneReg:u8DataAddr <- [DW_OP_plus_uconst 4] [$sp+0]
	@DEBUG_VALUE: I2C_WriteByteOneReg:u8Data <- [$sp+0]
	@DEBUG_VALUE: I2C_WriteByteOneReg:u8SlaveAddr <- [DW_OP_LLVM_entry_value 1] $r1
	cbnz	r3, .LBB30_9
.Ltmp202:
@ %bb.5:                                @   in Loop: Header=BB30_1 Depth=1
	@DEBUG_VALUE: I2C_WriteByteOneReg:u8Ctrl <- $r6
	@DEBUG_VALUE: I2C_WriteByteOneReg:u8Err <- $r5
	@DEBUG_VALUE: I2C_WriteByteOneReg:u8Xfering <- $r4
	@DEBUG_VALUE: I2C_WriteByteOneReg:u32txLen <- $r1
	@DEBUG_VALUE: I2C_WriteByteOneReg:i2c <- $r0
	@DEBUG_VALUE: I2C_WriteByteOneReg:u8DataAddr <- [DW_OP_plus_uconst 4] [$sp+0]
	@DEBUG_VALUE: I2C_WriteByteOneReg:u8Data <- [$sp+0]
	@DEBUG_VALUE: I2C_WriteByteOneReg:u8SlaveAddr <- [DW_OP_LLVM_entry_value 1] $r1
	.loc	4 797 17 is_stmt 1              @ ../../Library/StdDriver/src/i2c.c:797:17
	str	r2, [r0, #8]
	movs	r6, #8
.Ltmp203:
	@DEBUG_VALUE: I2C_WriteByteOneReg:u8Ctrl <- 8
	.loc	4 0 17 is_stmt 0                @ ../../Library/StdDriver/src/i2c.c:0:17
	b	.LBB30_12
.Ltmp204:
.LBB30_6:                               @   in Loop: Header=BB30_1 Depth=1
	@DEBUG_VALUE: I2C_WriteByteOneReg:u8Ctrl <- $r6
	@DEBUG_VALUE: I2C_WriteByteOneReg:u8Err <- $r5
	@DEBUG_VALUE: I2C_WriteByteOneReg:u8Xfering <- $r4
	@DEBUG_VALUE: I2C_WriteByteOneReg:u32txLen <- $r1
	@DEBUG_VALUE: I2C_WriteByteOneReg:i2c <- $r0
	@DEBUG_VALUE: I2C_WriteByteOneReg:u8DataAddr <- [DW_OP_plus_uconst 4] [$sp+0]
	@DEBUG_VALUE: I2C_WriteByteOneReg:u8Data <- [$sp+0]
	@DEBUG_VALUE: I2C_WriteByteOneReg:u8SlaveAddr <- [DW_OP_LLVM_entry_value 1] $r1
	movs	r3, #1
	.loc	4 809 20 is_stmt 1              @ ../../Library/StdDriver/src/i2c.c:809:20
	cbz	r1, .LBB30_10
.Ltmp205:
@ %bb.7:                                @   in Loop: Header=BB30_1 Depth=1
	@DEBUG_VALUE: I2C_WriteByteOneReg:u8Ctrl <- $r6
	@DEBUG_VALUE: I2C_WriteByteOneReg:u8Err <- $r5
	@DEBUG_VALUE: I2C_WriteByteOneReg:u8Xfering <- $r4
	@DEBUG_VALUE: I2C_WriteByteOneReg:u32txLen <- $r1
	@DEBUG_VALUE: I2C_WriteByteOneReg:i2c <- $r0
	@DEBUG_VALUE: I2C_WriteByteOneReg:u8DataAddr <- [DW_OP_plus_uconst 4] [$sp+0]
	@DEBUG_VALUE: I2C_WriteByteOneReg:u8Data <- [$sp+0]
	@DEBUG_VALUE: I2C_WriteByteOneReg:u8SlaveAddr <- [DW_OP_LLVM_entry_value 1] $r1
	.loc	4 0 20 is_stmt 0                @ ../../Library/StdDriver/src/i2c.c:0:20
	movs	r4, #0
.Ltmp206:
	mov	r6, r7
.Ltmp207:
	b	.LBB30_11
.Ltmp208:
.LBB30_8:                               @   in Loop: Header=BB30_1 Depth=1
	@DEBUG_VALUE: I2C_WriteByteOneReg:u8Ctrl <- $r6
	@DEBUG_VALUE: I2C_WriteByteOneReg:u8Err <- $r5
	@DEBUG_VALUE: I2C_WriteByteOneReg:u8Xfering <- $r4
	@DEBUG_VALUE: I2C_WriteByteOneReg:u32txLen <- $r1
	@DEBUG_VALUE: I2C_WriteByteOneReg:i2c <- $r0
	@DEBUG_VALUE: I2C_WriteByteOneReg:u8DataAddr <- [DW_OP_plus_uconst 4] [$sp+0]
	@DEBUG_VALUE: I2C_WriteByteOneReg:u8Data <- [$sp+0]
	@DEBUG_VALUE: I2C_WriteByteOneReg:u8SlaveAddr <- [DW_OP_LLVM_entry_value 1] $r1
	.loc	4 801 17 is_stmt 1              @ ../../Library/StdDriver/src/i2c.c:801:17
	ldr	r3, [sp, #4]                    @ 4-byte Reload
	str	r3, [r0, #8]
	b	.LBB30_12
.Ltmp209:
.LBB30_9:                               @   in Loop: Header=BB30_1 Depth=1
	@DEBUG_VALUE: I2C_WriteByteOneReg:u8Ctrl <- $r6
	@DEBUG_VALUE: I2C_WriteByteOneReg:u8Err <- $r5
	@DEBUG_VALUE: I2C_WriteByteOneReg:u8Xfering <- $r4
	@DEBUG_VALUE: I2C_WriteByteOneReg:u32txLen <- $r1
	@DEBUG_VALUE: I2C_WriteByteOneReg:i2c <- $r0
	@DEBUG_VALUE: I2C_WriteByteOneReg:u8DataAddr <- [DW_OP_plus_uconst 4] [$sp+0]
	@DEBUG_VALUE: I2C_WriteByteOneReg:u8Data <- [$sp+0]
	@DEBUG_VALUE: I2C_WriteByteOneReg:u8SlaveAddr <- [DW_OP_LLVM_entry_value 1] $r1
	.loc	4 0 17 is_stmt 0                @ ../../Library/StdDriver/src/i2c.c:0:17
	movs	r5, #1
.Ltmp210:
	mov	r6, r7
.Ltmp211:
	b	.LBB30_12
.Ltmp212:
.LBB30_10:                              @   in Loop: Header=BB30_1 Depth=1
	@DEBUG_VALUE: I2C_WriteByteOneReg:u8Ctrl <- $r6
	@DEBUG_VALUE: I2C_WriteByteOneReg:u8Err <- $r5
	@DEBUG_VALUE: I2C_WriteByteOneReg:u8Xfering <- $r4
	@DEBUG_VALUE: I2C_WriteByteOneReg:u32txLen <- $r1
	@DEBUG_VALUE: I2C_WriteByteOneReg:i2c <- $r0
	@DEBUG_VALUE: I2C_WriteByteOneReg:u8DataAddr <- [DW_OP_plus_uconst 4] [$sp+0]
	@DEBUG_VALUE: I2C_WriteByteOneReg:u8Data <- [$sp+0]
	@DEBUG_VALUE: I2C_WriteByteOneReg:u8SlaveAddr <- [DW_OP_LLVM_entry_value 1] $r1
	.loc	4 811 21 is_stmt 1              @ ../../Library/StdDriver/src/i2c.c:811:21
	ldr	r1, [sp]                        @ 4-byte Reload
.Ltmp213:
	str	r1, [r0, #8]
.Ltmp214:
	@DEBUG_VALUE: I2C_WriteByteOneReg:u32txLen <- 1
.LBB30_11:                              @   in Loop: Header=BB30_1 Depth=1
	@DEBUG_VALUE: I2C_WriteByteOneReg:u8Err <- $r5
	@DEBUG_VALUE: I2C_WriteByteOneReg:i2c <- $r0
	@DEBUG_VALUE: I2C_WriteByteOneReg:u8DataAddr <- [DW_OP_plus_uconst 4] [$sp+0]
	@DEBUG_VALUE: I2C_WriteByteOneReg:u8Data <- [$sp+0]
	@DEBUG_VALUE: I2C_WriteByteOneReg:u8SlaveAddr <- [DW_OP_LLVM_entry_value 1] $r1
	.loc	4 0 0 is_stmt 0                 @ ../../Library/StdDriver/src/i2c.c:0:0
	mov	r1, r3
.Ltmp215:
.LBB30_12:                              @   in Loop: Header=BB30_1 Depth=1
	@DEBUG_VALUE: I2C_WriteByteOneReg:i2c <- $r0
	@DEBUG_VALUE: I2C_WriteByteOneReg:u8DataAddr <- [DW_OP_plus_uconst 4] [$sp+0]
	@DEBUG_VALUE: I2C_WriteByteOneReg:u8Data <- [$sp+0]
	@DEBUG_VALUE: I2C_WriteByteOneReg:u8SlaveAddr <- [DW_OP_LLVM_entry_value 1] $r1
	@DEBUG_VALUE: I2C_WriteByteOneReg:u8Xfering <- $r4
	@DEBUG_VALUE: I2C_WriteByteOneReg:u8Err <- $r5
	@DEBUG_VALUE: I2C_WriteByteOneReg:u8Ctrl <- $r6
	@DEBUG_VALUE: I2C_WriteByteOneReg:u32txLen <- $r1
	.loc	4 826 9 is_stmt 1               @ ../../Library/StdDriver/src/i2c.c:826:9
	ldr	r3, [r0]
	movs	r7, #60
	bics	r3, r7
	uxtb	r7, r6
	orrs	r7, r3
	str	r7, [r0]
.Ltmp216:
	.loc	4 791 5                         @ ../../Library/StdDriver/src/i2c.c:791:5
	cbz	r4, .LBB30_14
.Ltmp217:
@ %bb.13:                               @   in Loop: Header=BB30_1 Depth=1
	@DEBUG_VALUE: I2C_WriteByteOneReg:u8Ctrl <- $r6
	@DEBUG_VALUE: I2C_WriteByteOneReg:u8Err <- $r5
	@DEBUG_VALUE: I2C_WriteByteOneReg:u8Xfering <- $r4
	@DEBUG_VALUE: I2C_WriteByteOneReg:u32txLen <- $r1
	@DEBUG_VALUE: I2C_WriteByteOneReg:i2c <- $r0
	@DEBUG_VALUE: I2C_WriteByteOneReg:u8DataAddr <- [DW_OP_plus_uconst 4] [$sp+0]
	@DEBUG_VALUE: I2C_WriteByteOneReg:u8Data <- [$sp+0]
	@DEBUG_VALUE: I2C_WriteByteOneReg:u8SlaveAddr <- [DW_OP_LLVM_entry_value 1] $r1
	cmp	r5, #0
	beq	.LBB30_1
.Ltmp218:
.LBB30_14:
	@DEBUG_VALUE: I2C_WriteByteOneReg:u8Ctrl <- $r6
	@DEBUG_VALUE: I2C_WriteByteOneReg:u8Err <- $r5
	@DEBUG_VALUE: I2C_WriteByteOneReg:u8Xfering <- $r4
	@DEBUG_VALUE: I2C_WriteByteOneReg:u32txLen <- $r1
	@DEBUG_VALUE: I2C_WriteByteOneReg:i2c <- $r0
	@DEBUG_VALUE: I2C_WriteByteOneReg:u8DataAddr <- [DW_OP_plus_uconst 4] [$sp+0]
	@DEBUG_VALUE: I2C_WriteByteOneReg:u8Data <- [$sp+0]
	@DEBUG_VALUE: I2C_WriteByteOneReg:u8SlaveAddr <- [DW_OP_LLVM_entry_value 1] $r1
	@DEBUG_VALUE: I2C_WriteByteOneReg:u8Xfering <- $r4
	@DEBUG_VALUE: I2C_WriteByteOneReg:u8Err <- $r5
	.loc	4 828 19                        @ ../../Library/StdDriver/src/i2c.c:828:19
	orrs	r5, r4
.Ltmp219:
	.loc	4 828 5 is_stmt 0               @ ../../Library/StdDriver/src/i2c.c:828:5
	uxtb	r0, r5
.Ltmp220:
	@DEBUG_VALUE: I2C_WriteByteOneReg:i2c <- [DW_OP_LLVM_entry_value 1] $r0
	add	sp, #8
.Ltmp221:
	pop	{r4, r5, r6, r7, pc}
.Ltmp222:
.Lfunc_end30:
	.size	I2C_WriteByteOneReg, .Lfunc_end30-I2C_WriteByteOneReg
	.cfi_endproc
	.cantunwind
	.fnend
                                        @ -- End function
	.section	.text.I2C_WriteMultiBytesOneReg,"ax",%progbits
	.hidden	I2C_WriteMultiBytesOneReg       @ -- Begin function I2C_WriteMultiBytesOneReg
	.globl	I2C_WriteMultiBytesOneReg
	.p2align	1
	.type	I2C_WriteMultiBytesOneReg,%function
	.code	16                              @ @I2C_WriteMultiBytesOneReg
	.thumb_func
I2C_WriteMultiBytesOneReg:
.Lfunc_begin31:
	.loc	4 848 0 is_stmt 1               @ ../../Library/StdDriver/src/i2c.c:848:0
	.fnstart
	.cfi_startproc
@ %bb.0:
	@DEBUG_VALUE: I2C_WriteMultiBytesOneReg:i2c <- $r0
	@DEBUG_VALUE: I2C_WriteMultiBytesOneReg:u8SlaveAddr <- $r1
	@DEBUG_VALUE: I2C_WriteMultiBytesOneReg:u8DataAddr <- $r2
	@DEBUG_VALUE: I2C_WriteMultiBytesOneReg:au8Data <- $r3
	.save	{r4, r5, r6, r7, lr}
	push	{r4, r5, r6, r7, lr}
	.cfi_def_cfa_offset 20
	.cfi_offset lr, -4
	.cfi_offset r7, -8
	.cfi_offset r6, -12
	.cfi_offset r5, -16
	.cfi_offset r4, -20
	.pad	#12
	sub	sp, #12
	.cfi_def_cfa_offset 32
	str	r3, [sp]                        @ 4-byte Spill
	str	r2, [sp, #8]                    @ 4-byte Spill
.Ltmp223:
	@DEBUG_VALUE: I2C_WriteMultiBytesOneReg:u32txLen <- 0
	@DEBUG_VALUE: I2C_WriteMultiBytesOneReg:u8Ctrl <- 0
	@DEBUG_VALUE: I2C_WriteMultiBytesOneReg:u8Err <- 0
	@DEBUG_VALUE: I2C_WriteMultiBytesOneReg:u8Xfering <- 1
	@DEBUG_VALUE: I2C_WriteMultiBytesOneReg:u32wLen <- [DW_OP_plus_uconst 32] [$sp+0]
	@DEBUG_VALUE: I2C_WriteMultiBytesOneReg:au8Data <- [$sp+0]
	@DEBUG_VALUE: I2C_WriteMultiBytesOneReg:u8DataAddr <- [DW_OP_plus_uconst 8] [$sp+0]
	@DEBUG_VALUE: I2C_WriteMultiBytesOneReg:u8SlaveAddr <- $r1
	@DEBUG_VALUE: I2C_WriteMultiBytesOneReg:i2c <- $r0
	.loc	4 852 5 prologue_end            @ ../../Library/StdDriver/src/i2c.c:852:5
	ldr	r2, [r0]
	movs	r3, #40
	orrs	r3, r2
	str	r3, [r0]
.Ltmp224:
	.loc	4 0 0 is_stmt 0                 @ ../../Library/StdDriver/src/i2c.c:0:0
	lsls	r1, r1, #25
.Ltmp225:
	@DEBUG_VALUE: I2C_WriteMultiBytesOneReg:u8SlaveAddr <- [DW_OP_LLVM_entry_value 1] $r1
	lsrs	r1, r1, #24
	str	r1, [sp, #4]                    @ 4-byte Spill
	movs	r5, #1
	movs	r3, #0
	ldr	r6, [sp, #32]
	mov	r4, r3
	mov	r7, r3
.Ltmp226:
	@DEBUG_VALUE: I2C_WriteMultiBytesOneReg:u8Xfering <- $r5
	@DEBUG_VALUE: I2C_WriteMultiBytesOneReg:u8Err <- $r7
	@DEBUG_VALUE: I2C_WriteMultiBytesOneReg:u8Ctrl <- $r4
	@DEBUG_VALUE: I2C_WriteMultiBytesOneReg:u32txLen <- $r3
.LBB31_1:                               @ =>This Inner Loop Header: Depth=1
	@DEBUG_VALUE: I2C_WriteMultiBytesOneReg:u8Err <- $r7
	@DEBUG_VALUE: I2C_WriteMultiBytesOneReg:u8Xfering <- $r5
	@DEBUG_VALUE: I2C_WriteMultiBytesOneReg:u8Ctrl <- $r4
	@DEBUG_VALUE: I2C_WriteMultiBytesOneReg:u32txLen <- $r3
	@DEBUG_VALUE: I2C_WriteMultiBytesOneReg:i2c <- $r0
	@DEBUG_VALUE: I2C_WriteMultiBytesOneReg:u8DataAddr <- [DW_OP_plus_uconst 8] [$sp+0]
	@DEBUG_VALUE: I2C_WriteMultiBytesOneReg:au8Data <- [$sp+0]
	@DEBUG_VALUE: I2C_WriteMultiBytesOneReg:u32wLen <- [DW_OP_plus_uconst 32] [$sp+0]
	@DEBUG_VALUE: I2C_WriteMultiBytesOneReg:u8SlaveAddr <- [DW_OP_LLVM_entry_value 1] $r1
	.loc	4 855 9 is_stmt 1               @ ../../Library/StdDriver/src/i2c.c:855:9
	ldr	r1, [r0]
	lsls	r1, r1, #28
	bpl	.LBB31_1
.Ltmp227:
@ %bb.2:                                @   in Loop: Header=BB31_1 Depth=1
	@DEBUG_VALUE: I2C_WriteMultiBytesOneReg:u8Err <- $r7
	@DEBUG_VALUE: I2C_WriteMultiBytesOneReg:u8Xfering <- $r5
	@DEBUG_VALUE: I2C_WriteMultiBytesOneReg:u8Ctrl <- $r4
	@DEBUG_VALUE: I2C_WriteMultiBytesOneReg:u32txLen <- $r3
	@DEBUG_VALUE: I2C_WriteMultiBytesOneReg:i2c <- $r0
	@DEBUG_VALUE: I2C_WriteMultiBytesOneReg:u8DataAddr <- [DW_OP_plus_uconst 8] [$sp+0]
	@DEBUG_VALUE: I2C_WriteMultiBytesOneReg:au8Data <- [$sp+0]
	@DEBUG_VALUE: I2C_WriteMultiBytesOneReg:u32wLen <- [DW_OP_plus_uconst 32] [$sp+0]
	@DEBUG_VALUE: I2C_WriteMultiBytesOneReg:u8SlaveAddr <- [DW_OP_LLVM_entry_value 1] $r1
	.loc	4 856 16                        @ ../../Library/StdDriver/src/i2c.c:856:16
	ldr	r2, [r0, #12]
	.loc	4 856 9 is_stmt 0               @ ../../Library/StdDriver/src/i2c.c:856:9
	subs	r2, #8
	movs	r1, #3
	rors	r2, r1
	movs	r1, #24
	cmp	r2, #4
	beq	.LBB31_6
.Ltmp228:
@ %bb.3:                                @   in Loop: Header=BB31_1 Depth=1
	@DEBUG_VALUE: I2C_WriteMultiBytesOneReg:u8Err <- $r7
	@DEBUG_VALUE: I2C_WriteMultiBytesOneReg:u8Xfering <- $r5
	@DEBUG_VALUE: I2C_WriteMultiBytesOneReg:u8Ctrl <- $r4
	@DEBUG_VALUE: I2C_WriteMultiBytesOneReg:u32txLen <- $r3
	@DEBUG_VALUE: I2C_WriteMultiBytesOneReg:i2c <- $r0
	@DEBUG_VALUE: I2C_WriteMultiBytesOneReg:u8DataAddr <- [DW_OP_plus_uconst 8] [$sp+0]
	@DEBUG_VALUE: I2C_WriteMultiBytesOneReg:au8Data <- [$sp+0]
	@DEBUG_VALUE: I2C_WriteMultiBytesOneReg:u32wLen <- [DW_OP_plus_uconst 32] [$sp+0]
	@DEBUG_VALUE: I2C_WriteMultiBytesOneReg:u8SlaveAddr <- [DW_OP_LLVM_entry_value 1] $r1
	cmp	r2, #2
	beq	.LBB31_8
.Ltmp229:
@ %bb.4:                                @   in Loop: Header=BB31_1 Depth=1
	@DEBUG_VALUE: I2C_WriteMultiBytesOneReg:u8Err <- $r7
	@DEBUG_VALUE: I2C_WriteMultiBytesOneReg:u8Xfering <- $r5
	@DEBUG_VALUE: I2C_WriteMultiBytesOneReg:u8Ctrl <- $r4
	@DEBUG_VALUE: I2C_WriteMultiBytesOneReg:u32txLen <- $r3
	@DEBUG_VALUE: I2C_WriteMultiBytesOneReg:i2c <- $r0
	@DEBUG_VALUE: I2C_WriteMultiBytesOneReg:u8DataAddr <- [DW_OP_plus_uconst 8] [$sp+0]
	@DEBUG_VALUE: I2C_WriteMultiBytesOneReg:au8Data <- [$sp+0]
	@DEBUG_VALUE: I2C_WriteMultiBytesOneReg:u32wLen <- [DW_OP_plus_uconst 32] [$sp+0]
	@DEBUG_VALUE: I2C_WriteMultiBytesOneReg:u8SlaveAddr <- [DW_OP_LLVM_entry_value 1] $r1
	cbnz	r2, .LBB31_9
.Ltmp230:
@ %bb.5:                                @   in Loop: Header=BB31_1 Depth=1
	@DEBUG_VALUE: I2C_WriteMultiBytesOneReg:u8Err <- $r7
	@DEBUG_VALUE: I2C_WriteMultiBytesOneReg:u8Xfering <- $r5
	@DEBUG_VALUE: I2C_WriteMultiBytesOneReg:u8Ctrl <- $r4
	@DEBUG_VALUE: I2C_WriteMultiBytesOneReg:u32txLen <- $r3
	@DEBUG_VALUE: I2C_WriteMultiBytesOneReg:i2c <- $r0
	@DEBUG_VALUE: I2C_WriteMultiBytesOneReg:u8DataAddr <- [DW_OP_plus_uconst 8] [$sp+0]
	@DEBUG_VALUE: I2C_WriteMultiBytesOneReg:au8Data <- [$sp+0]
	@DEBUG_VALUE: I2C_WriteMultiBytesOneReg:u32wLen <- [DW_OP_plus_uconst 32] [$sp+0]
	@DEBUG_VALUE: I2C_WriteMultiBytesOneReg:u8SlaveAddr <- [DW_OP_LLVM_entry_value 1] $r1
	.loc	4 859 17 is_stmt 1              @ ../../Library/StdDriver/src/i2c.c:859:17
	ldr	r1, [sp, #4]                    @ 4-byte Reload
	str	r1, [r0, #8]
	movs	r4, #8
.Ltmp231:
	@DEBUG_VALUE: I2C_WriteMultiBytesOneReg:u8Ctrl <- 8
	.loc	4 0 17 is_stmt 0                @ ../../Library/StdDriver/src/i2c.c:0:17
	b	.LBB31_12
.Ltmp232:
.LBB31_6:                               @   in Loop: Header=BB31_1 Depth=1
	@DEBUG_VALUE: I2C_WriteMultiBytesOneReg:u8Err <- $r7
	@DEBUG_VALUE: I2C_WriteMultiBytesOneReg:u8Xfering <- $r5
	@DEBUG_VALUE: I2C_WriteMultiBytesOneReg:u8Ctrl <- $r4
	@DEBUG_VALUE: I2C_WriteMultiBytesOneReg:u32txLen <- $r3
	@DEBUG_VALUE: I2C_WriteMultiBytesOneReg:i2c <- $r0
	@DEBUG_VALUE: I2C_WriteMultiBytesOneReg:u8DataAddr <- [DW_OP_plus_uconst 8] [$sp+0]
	@DEBUG_VALUE: I2C_WriteMultiBytesOneReg:au8Data <- [$sp+0]
	@DEBUG_VALUE: I2C_WriteMultiBytesOneReg:u32wLen <- [DW_OP_plus_uconst 32] [$sp+0]
	@DEBUG_VALUE: I2C_WriteMultiBytesOneReg:u8SlaveAddr <- [DW_OP_LLVM_entry_value 1] $r1
	.loc	4 871 20 is_stmt 1              @ ../../Library/StdDriver/src/i2c.c:871:20
	cmp	r3, r6
	bhs	.LBB31_10
.Ltmp233:
@ %bb.7:                                @   in Loop: Header=BB31_1 Depth=1
	@DEBUG_VALUE: I2C_WriteMultiBytesOneReg:u8Err <- $r7
	@DEBUG_VALUE: I2C_WriteMultiBytesOneReg:u8Xfering <- $r5
	@DEBUG_VALUE: I2C_WriteMultiBytesOneReg:u8Ctrl <- $r4
	@DEBUG_VALUE: I2C_WriteMultiBytesOneReg:u32txLen <- $r3
	@DEBUG_VALUE: I2C_WriteMultiBytesOneReg:i2c <- $r0
	@DEBUG_VALUE: I2C_WriteMultiBytesOneReg:u8DataAddr <- [DW_OP_plus_uconst 8] [$sp+0]
	@DEBUG_VALUE: I2C_WriteMultiBytesOneReg:au8Data <- [$sp+0]
	@DEBUG_VALUE: I2C_WriteMultiBytesOneReg:u32wLen <- [DW_OP_plus_uconst 32] [$sp+0]
	@DEBUG_VALUE: I2C_WriteMultiBytesOneReg:u8SlaveAddr <- [DW_OP_LLVM_entry_value 1] $r1
	.loc	4 873 21                        @ ../../Library/StdDriver/src/i2c.c:873:21
	ldr	r1, [sp]                        @ 4-byte Reload
	ldrb	r1, [r1, r3]
	str	r1, [r0, #8]
	adds	r3, r3, #1
.Ltmp234:
	@DEBUG_VALUE: I2C_WriteMultiBytesOneReg:u32txLen <- $r3
	.loc	4 0 21 is_stmt 0                @ ../../Library/StdDriver/src/i2c.c:0:21
	b	.LBB31_12
.Ltmp235:
.LBB31_8:                               @   in Loop: Header=BB31_1 Depth=1
	@DEBUG_VALUE: I2C_WriteMultiBytesOneReg:u8Err <- $r7
	@DEBUG_VALUE: I2C_WriteMultiBytesOneReg:u8Xfering <- $r5
	@DEBUG_VALUE: I2C_WriteMultiBytesOneReg:u8Ctrl <- $r4
	@DEBUG_VALUE: I2C_WriteMultiBytesOneReg:u32txLen <- $r3
	@DEBUG_VALUE: I2C_WriteMultiBytesOneReg:i2c <- $r0
	@DEBUG_VALUE: I2C_WriteMultiBytesOneReg:u8DataAddr <- [DW_OP_plus_uconst 8] [$sp+0]
	@DEBUG_VALUE: I2C_WriteMultiBytesOneReg:au8Data <- [$sp+0]
	@DEBUG_VALUE: I2C_WriteMultiBytesOneReg:u32wLen <- [DW_OP_plus_uconst 32] [$sp+0]
	@DEBUG_VALUE: I2C_WriteMultiBytesOneReg:u8SlaveAddr <- [DW_OP_LLVM_entry_value 1] $r1
	.loc	4 863 17 is_stmt 1              @ ../../Library/StdDriver/src/i2c.c:863:17
	ldr	r1, [sp, #8]                    @ 4-byte Reload
	str	r1, [r0, #8]
	b	.LBB31_12
.Ltmp236:
.LBB31_9:                               @   in Loop: Header=BB31_1 Depth=1
	@DEBUG_VALUE: I2C_WriteMultiBytesOneReg:u8Err <- $r7
	@DEBUG_VALUE: I2C_WriteMultiBytesOneReg:u8Xfering <- $r5
	@DEBUG_VALUE: I2C_WriteMultiBytesOneReg:u8Ctrl <- $r4
	@DEBUG_VALUE: I2C_WriteMultiBytesOneReg:u32txLen <- $r3
	@DEBUG_VALUE: I2C_WriteMultiBytesOneReg:i2c <- $r0
	@DEBUG_VALUE: I2C_WriteMultiBytesOneReg:u8DataAddr <- [DW_OP_plus_uconst 8] [$sp+0]
	@DEBUG_VALUE: I2C_WriteMultiBytesOneReg:au8Data <- [$sp+0]
	@DEBUG_VALUE: I2C_WriteMultiBytesOneReg:u32wLen <- [DW_OP_plus_uconst 32] [$sp+0]
	@DEBUG_VALUE: I2C_WriteMultiBytesOneReg:u8SlaveAddr <- [DW_OP_LLVM_entry_value 1] $r1
	.loc	4 0 17 is_stmt 0                @ ../../Library/StdDriver/src/i2c.c:0:17
	movs	r7, #1
.Ltmp237:
	b	.LBB31_11
.Ltmp238:
.LBB31_10:                              @   in Loop: Header=BB31_1 Depth=1
	@DEBUG_VALUE: I2C_WriteMultiBytesOneReg:u8Err <- $r7
	@DEBUG_VALUE: I2C_WriteMultiBytesOneReg:u8Xfering <- $r5
	@DEBUG_VALUE: I2C_WriteMultiBytesOneReg:u8Ctrl <- $r4
	@DEBUG_VALUE: I2C_WriteMultiBytesOneReg:u32txLen <- $r3
	@DEBUG_VALUE: I2C_WriteMultiBytesOneReg:i2c <- $r0
	@DEBUG_VALUE: I2C_WriteMultiBytesOneReg:u8DataAddr <- [DW_OP_plus_uconst 8] [$sp+0]
	@DEBUG_VALUE: I2C_WriteMultiBytesOneReg:au8Data <- [$sp+0]
	@DEBUG_VALUE: I2C_WriteMultiBytesOneReg:u32wLen <- [DW_OP_plus_uconst 32] [$sp+0]
	@DEBUG_VALUE: I2C_WriteMultiBytesOneReg:u8SlaveAddr <- [DW_OP_LLVM_entry_value 1] $r1
	movs	r5, #0
.Ltmp239:
.LBB31_11:                              @   in Loop: Header=BB31_1 Depth=1
	@DEBUG_VALUE: I2C_WriteMultiBytesOneReg:u8Ctrl <- $r4
	@DEBUG_VALUE: I2C_WriteMultiBytesOneReg:u32txLen <- $r3
	@DEBUG_VALUE: I2C_WriteMultiBytesOneReg:i2c <- $r0
	@DEBUG_VALUE: I2C_WriteMultiBytesOneReg:u8DataAddr <- [DW_OP_plus_uconst 8] [$sp+0]
	@DEBUG_VALUE: I2C_WriteMultiBytesOneReg:au8Data <- [$sp+0]
	@DEBUG_VALUE: I2C_WriteMultiBytesOneReg:u32wLen <- [DW_OP_plus_uconst 32] [$sp+0]
	@DEBUG_VALUE: I2C_WriteMultiBytesOneReg:u8SlaveAddr <- [DW_OP_LLVM_entry_value 1] $r1
	mov	r4, r1
.Ltmp240:
.LBB31_12:                              @   in Loop: Header=BB31_1 Depth=1
	@DEBUG_VALUE: I2C_WriteMultiBytesOneReg:u32txLen <- $r3
	@DEBUG_VALUE: I2C_WriteMultiBytesOneReg:i2c <- $r0
	@DEBUG_VALUE: I2C_WriteMultiBytesOneReg:u8DataAddr <- [DW_OP_plus_uconst 8] [$sp+0]
	@DEBUG_VALUE: I2C_WriteMultiBytesOneReg:au8Data <- [$sp+0]
	@DEBUG_VALUE: I2C_WriteMultiBytesOneReg:u32wLen <- [DW_OP_plus_uconst 32] [$sp+0]
	@DEBUG_VALUE: I2C_WriteMultiBytesOneReg:u8SlaveAddr <- [DW_OP_LLVM_entry_value 1] $r1
	@DEBUG_VALUE: I2C_WriteMultiBytesOneReg:u8Xfering <- $r5
	@DEBUG_VALUE: I2C_WriteMultiBytesOneReg:u8Err <- $r7
	@DEBUG_VALUE: I2C_WriteMultiBytesOneReg:u8Ctrl <- $r4
	@DEBUG_VALUE: I2C_WriteMultiBytesOneReg:u32txLen <- $r3
	.loc	4 887 9 is_stmt 1               @ ../../Library/StdDriver/src/i2c.c:887:9
	ldr	r1, [r0]
	movs	r2, #60
	bics	r1, r2
	uxtb	r2, r4
	orrs	r2, r1
	str	r2, [r0]
.Ltmp241:
	.loc	4 853 5                         @ ../../Library/StdDriver/src/i2c.c:853:5
	cbz	r5, .LBB31_14
.Ltmp242:
@ %bb.13:                               @   in Loop: Header=BB31_1 Depth=1
	@DEBUG_VALUE: I2C_WriteMultiBytesOneReg:u8Err <- $r7
	@DEBUG_VALUE: I2C_WriteMultiBytesOneReg:u8Xfering <- $r5
	@DEBUG_VALUE: I2C_WriteMultiBytesOneReg:u8Ctrl <- $r4
	@DEBUG_VALUE: I2C_WriteMultiBytesOneReg:u32txLen <- $r3
	@DEBUG_VALUE: I2C_WriteMultiBytesOneReg:i2c <- $r0
	@DEBUG_VALUE: I2C_WriteMultiBytesOneReg:u8DataAddr <- [DW_OP_plus_uconst 8] [$sp+0]
	@DEBUG_VALUE: I2C_WriteMultiBytesOneReg:au8Data <- [$sp+0]
	@DEBUG_VALUE: I2C_WriteMultiBytesOneReg:u32wLen <- [DW_OP_plus_uconst 32] [$sp+0]
	@DEBUG_VALUE: I2C_WriteMultiBytesOneReg:u8SlaveAddr <- [DW_OP_LLVM_entry_value 1] $r1
	cmp	r7, #0
	beq	.LBB31_1
.Ltmp243:
.LBB31_14:
	@DEBUG_VALUE: I2C_WriteMultiBytesOneReg:u8Err <- $r7
	@DEBUG_VALUE: I2C_WriteMultiBytesOneReg:u8Xfering <- $r5
	@DEBUG_VALUE: I2C_WriteMultiBytesOneReg:u8Ctrl <- $r4
	@DEBUG_VALUE: I2C_WriteMultiBytesOneReg:u32txLen <- $r3
	@DEBUG_VALUE: I2C_WriteMultiBytesOneReg:i2c <- $r0
	@DEBUG_VALUE: I2C_WriteMultiBytesOneReg:u8DataAddr <- [DW_OP_plus_uconst 8] [$sp+0]
	@DEBUG_VALUE: I2C_WriteMultiBytesOneReg:au8Data <- [$sp+0]
	@DEBUG_VALUE: I2C_WriteMultiBytesOneReg:u32wLen <- [DW_OP_plus_uconst 32] [$sp+0]
	@DEBUG_VALUE: I2C_WriteMultiBytesOneReg:u8SlaveAddr <- [DW_OP_LLVM_entry_value 1] $r1
	@DEBUG_VALUE: I2C_WriteMultiBytesOneReg:u32txLen <- $r3
	.loc	4 890 5                         @ ../../Library/StdDriver/src/i2c.c:890:5
	mov	r0, r3
.Ltmp244:
	@DEBUG_VALUE: I2C_WriteMultiBytesOneReg:i2c <- [DW_OP_LLVM_entry_value 1] $r0
	add	sp, #12
.Ltmp245:
	pop	{r4, r5, r6, r7, pc}
.Ltmp246:
.Lfunc_end31:
	.size	I2C_WriteMultiBytesOneReg, .Lfunc_end31-I2C_WriteMultiBytesOneReg
	.cfi_endproc
	.cantunwind
	.fnend
                                        @ -- End function
	.section	.text.I2C_WriteByteTwoRegs,"ax",%progbits
	.hidden	I2C_WriteByteTwoRegs            @ -- Begin function I2C_WriteByteTwoRegs
	.globl	I2C_WriteByteTwoRegs
	.p2align	1
	.type	I2C_WriteByteTwoRegs,%function
	.code	16                              @ @I2C_WriteByteTwoRegs
	.thumb_func
I2C_WriteByteTwoRegs:
.Lfunc_begin32:
	.loc	4 909 0                         @ ../../Library/StdDriver/src/i2c.c:909:0
	.fnstart
	.cfi_startproc
@ %bb.0:
	@DEBUG_VALUE: I2C_WriteByteTwoRegs:i2c <- $r0
	@DEBUG_VALUE: I2C_WriteByteTwoRegs:u8SlaveAddr <- $r1
	@DEBUG_VALUE: I2C_WriteByteTwoRegs:u16DataAddr <- $r2
	@DEBUG_VALUE: I2C_WriteByteTwoRegs:u8Data <- $r3
	.save	{r4, r5, r6, r7, lr}
	push	{r4, r5, r6, r7, lr}
	.cfi_def_cfa_offset 20
	.cfi_offset lr, -4
	.cfi_offset r7, -8
	.cfi_offset r6, -12
	.cfi_offset r5, -16
	.cfi_offset r4, -20
	.pad	#16
	sub	sp, #16
	.cfi_def_cfa_offset 36
	str	r3, [sp]                        @ 4-byte Spill
.Ltmp247:
	@DEBUG_VALUE: I2C_WriteByteTwoRegs:u32txLen <- 0
	@DEBUG_VALUE: I2C_WriteByteTwoRegs:u8Ctrl <- 0
	@DEBUG_VALUE: I2C_WriteByteTwoRegs:u8Addr <- 1
	@DEBUG_VALUE: I2C_WriteByteTwoRegs:u8Err <- 0
	@DEBUG_VALUE: I2C_WriteByteTwoRegs:u8Xfering <- 1
	@DEBUG_VALUE: I2C_WriteByteTwoRegs:u8Data <- [$sp+0]
	@DEBUG_VALUE: I2C_WriteByteTwoRegs:u16DataAddr <- $r2
	@DEBUG_VALUE: I2C_WriteByteTwoRegs:u8SlaveAddr <- $r1
	@DEBUG_VALUE: I2C_WriteByteTwoRegs:i2c <- $r0
	.loc	4 913 5 prologue_end            @ ../../Library/StdDriver/src/i2c.c:913:5
	ldr	r3, [r0]
	movs	r4, #40
	orrs	r4, r3
	str	r4, [r0]
.Ltmp248:
	.loc	4 0 0 is_stmt 0                 @ ../../Library/StdDriver/src/i2c.c:0:0
	lsrs	r3, r2, #8
.Ltmp249:
	str	r3, [sp, #12]                   @ 4-byte Spill
	uxtb	r2, r2
.Ltmp250:
	@DEBUG_VALUE: I2C_WriteByteTwoRegs:u16DataAddr <- [DW_OP_LLVM_entry_value 1] $r2
	str	r2, [sp, #4]                    @ 4-byte Spill
	lsls	r1, r1, #25
.Ltmp251:
	@DEBUG_VALUE: I2C_WriteByteTwoRegs:u8SlaveAddr <- [DW_OP_LLVM_entry_value 1] $r1
	lsrs	r1, r1, #24
	str	r1, [sp, #8]                    @ 4-byte Spill
	movs	r2, #1
	movs	r4, #0
	mov	r3, r4
	mov	r6, r4
	mov	r7, r2
.Ltmp252:
	@DEBUG_VALUE: I2C_WriteByteTwoRegs:u8Xfering <- $r7
	@DEBUG_VALUE: I2C_WriteByteTwoRegs:u8Err <- $r6
	@DEBUG_VALUE: I2C_WriteByteTwoRegs:u8Addr <- $r2
	@DEBUG_VALUE: I2C_WriteByteTwoRegs:u8Ctrl <- $r3
	@DEBUG_VALUE: I2C_WriteByteTwoRegs:u32txLen <- $r4
.LBB32_1:                               @ =>This Inner Loop Header: Depth=1
	@DEBUG_VALUE: I2C_WriteByteTwoRegs:u8Xfering <- $r7
	@DEBUG_VALUE: I2C_WriteByteTwoRegs:u8Err <- $r6
	@DEBUG_VALUE: I2C_WriteByteTwoRegs:u32txLen <- $r4
	@DEBUG_VALUE: I2C_WriteByteTwoRegs:u8Ctrl <- $r3
	@DEBUG_VALUE: I2C_WriteByteTwoRegs:u8Addr <- $r2
	@DEBUG_VALUE: I2C_WriteByteTwoRegs:i2c <- $r0
	@DEBUG_VALUE: I2C_WriteByteTwoRegs:u8Data <- [$sp+0]
	@DEBUG_VALUE: I2C_WriteByteTwoRegs:u8SlaveAddr <- [DW_OP_LLVM_entry_value 1] $r1
	@DEBUG_VALUE: I2C_WriteByteTwoRegs:u16DataAddr <- [DW_OP_LLVM_entry_value 1] $r2
	.loc	4 916 9 is_stmt 1               @ ../../Library/StdDriver/src/i2c.c:916:9
	ldr	r1, [r0]
	lsls	r1, r1, #28
	bpl	.LBB32_1
.Ltmp253:
@ %bb.2:                                @   in Loop: Header=BB32_1 Depth=1
	@DEBUG_VALUE: I2C_WriteByteTwoRegs:u8Xfering <- $r7
	@DEBUG_VALUE: I2C_WriteByteTwoRegs:u8Err <- $r6
	@DEBUG_VALUE: I2C_WriteByteTwoRegs:u32txLen <- $r4
	@DEBUG_VALUE: I2C_WriteByteTwoRegs:u8Ctrl <- $r3
	@DEBUG_VALUE: I2C_WriteByteTwoRegs:u8Addr <- $r2
	@DEBUG_VALUE: I2C_WriteByteTwoRegs:i2c <- $r0
	@DEBUG_VALUE: I2C_WriteByteTwoRegs:u8Data <- [$sp+0]
	@DEBUG_VALUE: I2C_WriteByteTwoRegs:u8SlaveAddr <- [DW_OP_LLVM_entry_value 1] $r1
	@DEBUG_VALUE: I2C_WriteByteTwoRegs:u16DataAddr <- [DW_OP_LLVM_entry_value 1] $r2
	.loc	4 917 16                        @ ../../Library/StdDriver/src/i2c.c:917:16
	ldr	r1, [r0, #12]
	.loc	4 917 9 is_stmt 0               @ ../../Library/StdDriver/src/i2c.c:917:9
	subs	r1, #8
	movs	r5, #3
	rors	r1, r5
	movs	r5, #24
	cmp	r1, #4
	beq	.LBB32_6
.Ltmp254:
@ %bb.3:                                @   in Loop: Header=BB32_1 Depth=1
	@DEBUG_VALUE: I2C_WriteByteTwoRegs:u8Xfering <- $r7
	@DEBUG_VALUE: I2C_WriteByteTwoRegs:u8Err <- $r6
	@DEBUG_VALUE: I2C_WriteByteTwoRegs:u32txLen <- $r4
	@DEBUG_VALUE: I2C_WriteByteTwoRegs:u8Ctrl <- $r3
	@DEBUG_VALUE: I2C_WriteByteTwoRegs:u8Addr <- $r2
	@DEBUG_VALUE: I2C_WriteByteTwoRegs:i2c <- $r0
	@DEBUG_VALUE: I2C_WriteByteTwoRegs:u8Data <- [$sp+0]
	@DEBUG_VALUE: I2C_WriteByteTwoRegs:u8SlaveAddr <- [DW_OP_LLVM_entry_value 1] $r1
	@DEBUG_VALUE: I2C_WriteByteTwoRegs:u16DataAddr <- [DW_OP_LLVM_entry_value 1] $r2
	cmp	r1, #2
	beq	.LBB32_9
.Ltmp255:
@ %bb.4:                                @   in Loop: Header=BB32_1 Depth=1
	@DEBUG_VALUE: I2C_WriteByteTwoRegs:u8Xfering <- $r7
	@DEBUG_VALUE: I2C_WriteByteTwoRegs:u8Err <- $r6
	@DEBUG_VALUE: I2C_WriteByteTwoRegs:u32txLen <- $r4
	@DEBUG_VALUE: I2C_WriteByteTwoRegs:u8Ctrl <- $r3
	@DEBUG_VALUE: I2C_WriteByteTwoRegs:u8Addr <- $r2
	@DEBUG_VALUE: I2C_WriteByteTwoRegs:i2c <- $r0
	@DEBUG_VALUE: I2C_WriteByteTwoRegs:u8Data <- [$sp+0]
	@DEBUG_VALUE: I2C_WriteByteTwoRegs:u8SlaveAddr <- [DW_OP_LLVM_entry_value 1] $r1
	@DEBUG_VALUE: I2C_WriteByteTwoRegs:u16DataAddr <- [DW_OP_LLVM_entry_value 1] $r2
	cbnz	r1, .LBB32_10
.Ltmp256:
@ %bb.5:                                @   in Loop: Header=BB32_1 Depth=1
	@DEBUG_VALUE: I2C_WriteByteTwoRegs:u8Xfering <- $r7
	@DEBUG_VALUE: I2C_WriteByteTwoRegs:u8Err <- $r6
	@DEBUG_VALUE: I2C_WriteByteTwoRegs:u32txLen <- $r4
	@DEBUG_VALUE: I2C_WriteByteTwoRegs:u8Ctrl <- $r3
	@DEBUG_VALUE: I2C_WriteByteTwoRegs:u8Addr <- $r2
	@DEBUG_VALUE: I2C_WriteByteTwoRegs:i2c <- $r0
	@DEBUG_VALUE: I2C_WriteByteTwoRegs:u8Data <- [$sp+0]
	@DEBUG_VALUE: I2C_WriteByteTwoRegs:u8SlaveAddr <- [DW_OP_LLVM_entry_value 1] $r1
	@DEBUG_VALUE: I2C_WriteByteTwoRegs:u16DataAddr <- [DW_OP_LLVM_entry_value 1] $r2
	.loc	4 920 17 is_stmt 1              @ ../../Library/StdDriver/src/i2c.c:920:17
	ldr	r1, [sp, #8]                    @ 4-byte Reload
	str	r1, [r0, #8]
	movs	r3, #8
.Ltmp257:
	@DEBUG_VALUE: I2C_WriteByteTwoRegs:u8Ctrl <- 8
	.loc	4 0 17 is_stmt 0                @ ../../Library/StdDriver/src/i2c.c:0:17
	b	.LBB32_13
.Ltmp258:
.LBB32_6:                               @   in Loop: Header=BB32_1 Depth=1
	@DEBUG_VALUE: I2C_WriteByteTwoRegs:u8Xfering <- $r7
	@DEBUG_VALUE: I2C_WriteByteTwoRegs:u8Err <- $r6
	@DEBUG_VALUE: I2C_WriteByteTwoRegs:u32txLen <- $r4
	@DEBUG_VALUE: I2C_WriteByteTwoRegs:u8Ctrl <- $r3
	@DEBUG_VALUE: I2C_WriteByteTwoRegs:u8Addr <- $r2
	@DEBUG_VALUE: I2C_WriteByteTwoRegs:i2c <- $r0
	@DEBUG_VALUE: I2C_WriteByteTwoRegs:u8Data <- [$sp+0]
	@DEBUG_VALUE: I2C_WriteByteTwoRegs:u8SlaveAddr <- [DW_OP_LLVM_entry_value 1] $r1
	@DEBUG_VALUE: I2C_WriteByteTwoRegs:u16DataAddr <- [DW_OP_LLVM_entry_value 1] $r2
	.loc	4 932 20 is_stmt 1              @ ../../Library/StdDriver/src/i2c.c:932:20
	cbnz	r2, .LBB32_11
.Ltmp259:
@ %bb.7:                                @   in Loop: Header=BB32_1 Depth=1
	@DEBUG_VALUE: I2C_WriteByteTwoRegs:u8Xfering <- $r7
	@DEBUG_VALUE: I2C_WriteByteTwoRegs:u8Err <- $r6
	@DEBUG_VALUE: I2C_WriteByteTwoRegs:u32txLen <- $r4
	@DEBUG_VALUE: I2C_WriteByteTwoRegs:u8Ctrl <- $r3
	@DEBUG_VALUE: I2C_WriteByteTwoRegs:u8Addr <- $r2
	@DEBUG_VALUE: I2C_WriteByteTwoRegs:i2c <- $r0
	@DEBUG_VALUE: I2C_WriteByteTwoRegs:u8Data <- [$sp+0]
	@DEBUG_VALUE: I2C_WriteByteTwoRegs:u8SlaveAddr <- [DW_OP_LLVM_entry_value 1] $r1
	@DEBUG_VALUE: I2C_WriteByteTwoRegs:u16DataAddr <- [DW_OP_LLVM_entry_value 1] $r2
	.loc	4 0 20 is_stmt 0                @ ../../Library/StdDriver/src/i2c.c:0:20
	movs	r2, #0
.Ltmp260:
	.loc	4 937 41 is_stmt 1              @ ../../Library/StdDriver/src/i2c.c:937:41
	cbz	r4, .LBB32_12
.Ltmp261:
@ %bb.8:                                @   in Loop: Header=BB32_1 Depth=1
	@DEBUG_VALUE: I2C_WriteByteTwoRegs:u8Xfering <- $r7
	@DEBUG_VALUE: I2C_WriteByteTwoRegs:u8Err <- $r6
	@DEBUG_VALUE: I2C_WriteByteTwoRegs:u32txLen <- $r4
	@DEBUG_VALUE: I2C_WriteByteTwoRegs:u8Ctrl <- $r3
	@DEBUG_VALUE: I2C_WriteByteTwoRegs:i2c <- $r0
	@DEBUG_VALUE: I2C_WriteByteTwoRegs:u8Data <- [$sp+0]
	@DEBUG_VALUE: I2C_WriteByteTwoRegs:u8SlaveAddr <- [DW_OP_LLVM_entry_value 1] $r1
	@DEBUG_VALUE: I2C_WriteByteTwoRegs:u16DataAddr <- [DW_OP_LLVM_entry_value 1] $r2
	.loc	4 0 0 is_stmt 0                 @ ../../Library/StdDriver/src/i2c.c:0:0
	mov	r7, r2
.Ltmp262:
	mov	r3, r5
.Ltmp263:
	b	.LBB32_13
.Ltmp264:
.LBB32_9:                               @   in Loop: Header=BB32_1 Depth=1
	@DEBUG_VALUE: I2C_WriteByteTwoRegs:u8Xfering <- $r7
	@DEBUG_VALUE: I2C_WriteByteTwoRegs:u8Err <- $r6
	@DEBUG_VALUE: I2C_WriteByteTwoRegs:u32txLen <- $r4
	@DEBUG_VALUE: I2C_WriteByteTwoRegs:u8Ctrl <- $r3
	@DEBUG_VALUE: I2C_WriteByteTwoRegs:u8Addr <- $r2
	@DEBUG_VALUE: I2C_WriteByteTwoRegs:i2c <- $r0
	@DEBUG_VALUE: I2C_WriteByteTwoRegs:u8Data <- [$sp+0]
	@DEBUG_VALUE: I2C_WriteByteTwoRegs:u8SlaveAddr <- [DW_OP_LLVM_entry_value 1] $r1
	@DEBUG_VALUE: I2C_WriteByteTwoRegs:u16DataAddr <- [DW_OP_LLVM_entry_value 1] $r2
	.loc	4 924 17 is_stmt 1              @ ../../Library/StdDriver/src/i2c.c:924:17
	ldr	r1, [sp, #12]                   @ 4-byte Reload
	str	r1, [r0, #8]
	b	.LBB32_13
.Ltmp265:
.LBB32_10:                              @   in Loop: Header=BB32_1 Depth=1
	@DEBUG_VALUE: I2C_WriteByteTwoRegs:u8Xfering <- $r7
	@DEBUG_VALUE: I2C_WriteByteTwoRegs:u8Err <- $r6
	@DEBUG_VALUE: I2C_WriteByteTwoRegs:u32txLen <- $r4
	@DEBUG_VALUE: I2C_WriteByteTwoRegs:u8Ctrl <- $r3
	@DEBUG_VALUE: I2C_WriteByteTwoRegs:u8Addr <- $r2
	@DEBUG_VALUE: I2C_WriteByteTwoRegs:i2c <- $r0
	@DEBUG_VALUE: I2C_WriteByteTwoRegs:u8Data <- [$sp+0]
	@DEBUG_VALUE: I2C_WriteByteTwoRegs:u8SlaveAddr <- [DW_OP_LLVM_entry_value 1] $r1
	@DEBUG_VALUE: I2C_WriteByteTwoRegs:u16DataAddr <- [DW_OP_LLVM_entry_value 1] $r2
	.loc	4 0 17 is_stmt 0                @ ../../Library/StdDriver/src/i2c.c:0:17
	movs	r6, #1
.Ltmp266:
	mov	r3, r5
.Ltmp267:
	b	.LBB32_13
.Ltmp268:
.LBB32_11:                              @   in Loop: Header=BB32_1 Depth=1
	@DEBUG_VALUE: I2C_WriteByteTwoRegs:u8Xfering <- $r7
	@DEBUG_VALUE: I2C_WriteByteTwoRegs:u8Err <- $r6
	@DEBUG_VALUE: I2C_WriteByteTwoRegs:u32txLen <- $r4
	@DEBUG_VALUE: I2C_WriteByteTwoRegs:u8Ctrl <- $r3
	@DEBUG_VALUE: I2C_WriteByteTwoRegs:u8Addr <- $r2
	@DEBUG_VALUE: I2C_WriteByteTwoRegs:i2c <- $r0
	@DEBUG_VALUE: I2C_WriteByteTwoRegs:u8Data <- [$sp+0]
	@DEBUG_VALUE: I2C_WriteByteTwoRegs:u8SlaveAddr <- [DW_OP_LLVM_entry_value 1] $r1
	@DEBUG_VALUE: I2C_WriteByteTwoRegs:u16DataAddr <- [DW_OP_LLVM_entry_value 1] $r2
	.loc	4 934 21 is_stmt 1              @ ../../Library/StdDriver/src/i2c.c:934:21
	ldr	r1, [sp, #4]                    @ 4-byte Reload
	str	r1, [r0, #8]
	movs	r2, #0
.Ltmp269:
	@DEBUG_VALUE: I2C_WriteByteTwoRegs:u8Addr <- 0
	.loc	4 0 21 is_stmt 0                @ ../../Library/StdDriver/src/i2c.c:0:21
	b	.LBB32_13
.Ltmp270:
.LBB32_12:                              @   in Loop: Header=BB32_1 Depth=1
	@DEBUG_VALUE: I2C_WriteByteTwoRegs:u8Xfering <- $r7
	@DEBUG_VALUE: I2C_WriteByteTwoRegs:u8Err <- $r6
	@DEBUG_VALUE: I2C_WriteByteTwoRegs:u32txLen <- $r4
	@DEBUG_VALUE: I2C_WriteByteTwoRegs:u8Ctrl <- $r3
	@DEBUG_VALUE: I2C_WriteByteTwoRegs:i2c <- $r0
	@DEBUG_VALUE: I2C_WriteByteTwoRegs:u8Data <- [$sp+0]
	@DEBUG_VALUE: I2C_WriteByteTwoRegs:u8SlaveAddr <- [DW_OP_LLVM_entry_value 1] $r1
	@DEBUG_VALUE: I2C_WriteByteTwoRegs:u16DataAddr <- [DW_OP_LLVM_entry_value 1] $r2
	.loc	4 939 21 is_stmt 1              @ ../../Library/StdDriver/src/i2c.c:939:21
	ldr	r1, [sp]                        @ 4-byte Reload
	str	r1, [r0, #8]
	movs	r4, #1
.Ltmp271:
	@DEBUG_VALUE: I2C_WriteByteTwoRegs:u32txLen <- 1
.LBB32_13:                              @   in Loop: Header=BB32_1 Depth=1
	@DEBUG_VALUE: I2C_WriteByteTwoRegs:i2c <- $r0
	@DEBUG_VALUE: I2C_WriteByteTwoRegs:u8Data <- [$sp+0]
	@DEBUG_VALUE: I2C_WriteByteTwoRegs:u8SlaveAddr <- [DW_OP_LLVM_entry_value 1] $r1
	@DEBUG_VALUE: I2C_WriteByteTwoRegs:u16DataAddr <- [DW_OP_LLVM_entry_value 1] $r2
	@DEBUG_VALUE: I2C_WriteByteTwoRegs:u8Xfering <- $r7
	@DEBUG_VALUE: I2C_WriteByteTwoRegs:u8Err <- $r6
	@DEBUG_VALUE: I2C_WriteByteTwoRegs:u8Addr <- $r2
	@DEBUG_VALUE: I2C_WriteByteTwoRegs:u8Ctrl <- $r3
	@DEBUG_VALUE: I2C_WriteByteTwoRegs:u32txLen <- $r4
	.loc	4 954 9                         @ ../../Library/StdDriver/src/i2c.c:954:9
	ldr	r1, [r0]
	movs	r5, #60
	bics	r1, r5
	uxtb	r5, r3
	orrs	r5, r1
	str	r5, [r0]
.Ltmp272:
	.loc	4 914 5                         @ ../../Library/StdDriver/src/i2c.c:914:5
	cbz	r7, .LBB32_15
.Ltmp273:
@ %bb.14:                               @   in Loop: Header=BB32_1 Depth=1
	@DEBUG_VALUE: I2C_WriteByteTwoRegs:u8Xfering <- $r7
	@DEBUG_VALUE: I2C_WriteByteTwoRegs:u8Err <- $r6
	@DEBUG_VALUE: I2C_WriteByteTwoRegs:u32txLen <- $r4
	@DEBUG_VALUE: I2C_WriteByteTwoRegs:u8Ctrl <- $r3
	@DEBUG_VALUE: I2C_WriteByteTwoRegs:u8Addr <- $r2
	@DEBUG_VALUE: I2C_WriteByteTwoRegs:i2c <- $r0
	@DEBUG_VALUE: I2C_WriteByteTwoRegs:u8Data <- [$sp+0]
	@DEBUG_VALUE: I2C_WriteByteTwoRegs:u8SlaveAddr <- [DW_OP_LLVM_entry_value 1] $r1
	@DEBUG_VALUE: I2C_WriteByteTwoRegs:u16DataAddr <- [DW_OP_LLVM_entry_value 1] $r2
	cmp	r6, #0
	beq	.LBB32_1
.Ltmp274:
.LBB32_15:
	@DEBUG_VALUE: I2C_WriteByteTwoRegs:u8Xfering <- $r7
	@DEBUG_VALUE: I2C_WriteByteTwoRegs:u8Err <- $r6
	@DEBUG_VALUE: I2C_WriteByteTwoRegs:u32txLen <- $r4
	@DEBUG_VALUE: I2C_WriteByteTwoRegs:u8Ctrl <- $r3
	@DEBUG_VALUE: I2C_WriteByteTwoRegs:u8Addr <- $r2
	@DEBUG_VALUE: I2C_WriteByteTwoRegs:i2c <- $r0
	@DEBUG_VALUE: I2C_WriteByteTwoRegs:u8Data <- [$sp+0]
	@DEBUG_VALUE: I2C_WriteByteTwoRegs:u8SlaveAddr <- [DW_OP_LLVM_entry_value 1] $r1
	@DEBUG_VALUE: I2C_WriteByteTwoRegs:u16DataAddr <- [DW_OP_LLVM_entry_value 1] $r2
	@DEBUG_VALUE: I2C_WriteByteTwoRegs:u8Xfering <- $r7
	@DEBUG_VALUE: I2C_WriteByteTwoRegs:u8Err <- $r6
	.loc	4 956 19                        @ ../../Library/StdDriver/src/i2c.c:956:19
	orrs	r6, r7
.Ltmp275:
	.loc	4 956 5 is_stmt 0               @ ../../Library/StdDriver/src/i2c.c:956:5
	uxtb	r0, r6
.Ltmp276:
	@DEBUG_VALUE: I2C_WriteByteTwoRegs:i2c <- [DW_OP_LLVM_entry_value 1] $r0
	add	sp, #16
.Ltmp277:
	pop	{r4, r5, r6, r7, pc}
.Ltmp278:
.Lfunc_end32:
	.size	I2C_WriteByteTwoRegs, .Lfunc_end32-I2C_WriteByteTwoRegs
	.cfi_endproc
	.cantunwind
	.fnend
                                        @ -- End function
	.section	.text.I2C_WriteMultiBytesTwoRegs,"ax",%progbits
	.hidden	I2C_WriteMultiBytesTwoRegs      @ -- Begin function I2C_WriteMultiBytesTwoRegs
	.globl	I2C_WriteMultiBytesTwoRegs
	.p2align	1
	.type	I2C_WriteMultiBytesTwoRegs,%function
	.code	16                              @ @I2C_WriteMultiBytesTwoRegs
	.thumb_func
I2C_WriteMultiBytesTwoRegs:
.Lfunc_begin33:
	.loc	4 976 0 is_stmt 1               @ ../../Library/StdDriver/src/i2c.c:976:0
	.fnstart
	.cfi_startproc
@ %bb.0:
	@DEBUG_VALUE: I2C_WriteMultiBytesTwoRegs:i2c <- $r0
	@DEBUG_VALUE: I2C_WriteMultiBytesTwoRegs:u8SlaveAddr <- $r1
	@DEBUG_VALUE: I2C_WriteMultiBytesTwoRegs:u16DataAddr <- $r2
	@DEBUG_VALUE: I2C_WriteMultiBytesTwoRegs:au8Data <- $r3
	.save	{r4, r5, r6, r7, lr}
	push	{r4, r5, r6, r7, lr}
	.cfi_def_cfa_offset 20
	.cfi_offset lr, -4
	.cfi_offset r7, -8
	.cfi_offset r6, -12
	.cfi_offset r5, -16
	.cfi_offset r4, -20
	.pad	#20
	sub	sp, #20
	.cfi_def_cfa_offset 40
	str	r3, [sp, #4]                    @ 4-byte Spill
.Ltmp279:
	@DEBUG_VALUE: I2C_WriteMultiBytesTwoRegs:u32txLen <- 0
	@DEBUG_VALUE: I2C_WriteMultiBytesTwoRegs:u8Ctrl <- 0
	@DEBUG_VALUE: I2C_WriteMultiBytesTwoRegs:u8Addr <- 1
	@DEBUG_VALUE: I2C_WriteMultiBytesTwoRegs:u8Err <- 0
	@DEBUG_VALUE: I2C_WriteMultiBytesTwoRegs:u8Xfering <- 1
	@DEBUG_VALUE: I2C_WriteMultiBytesTwoRegs:u32wLen <- [DW_OP_plus_uconst 40] [$sp+0]
	@DEBUG_VALUE: I2C_WriteMultiBytesTwoRegs:au8Data <- [DW_OP_plus_uconst 4] [$sp+0]
	@DEBUG_VALUE: I2C_WriteMultiBytesTwoRegs:u16DataAddr <- $r2
	@DEBUG_VALUE: I2C_WriteMultiBytesTwoRegs:u8SlaveAddr <- $r1
	@DEBUG_VALUE: I2C_WriteMultiBytesTwoRegs:i2c <- $r0
	.loc	4 980 5 prologue_end            @ ../../Library/StdDriver/src/i2c.c:980:5
	ldr	r3, [r0]
	movs	r4, #40
	orrs	r4, r3
	str	r4, [r0]
.Ltmp280:
	.loc	4 0 0 is_stmt 0                 @ ../../Library/StdDriver/src/i2c.c:0:0
	lsrs	r3, r2, #8
.Ltmp281:
	str	r3, [sp, #16]                   @ 4-byte Spill
	uxtb	r2, r2
.Ltmp282:
	@DEBUG_VALUE: I2C_WriteMultiBytesTwoRegs:u16DataAddr <- [DW_OP_LLVM_entry_value 1] $r2
	str	r2, [sp]                        @ 4-byte Spill
	lsls	r1, r1, #25
.Ltmp283:
	@DEBUG_VALUE: I2C_WriteMultiBytesTwoRegs:u8SlaveAddr <- [DW_OP_LLVM_entry_value 1] $r1
	lsrs	r1, r1, #24
	str	r1, [sp, #12]                   @ 4-byte Spill
	movs	r3, #1
	movs	r4, #0
	ldr	r1, [sp, #40]
	str	r1, [sp, #8]                    @ 4-byte Spill
	mov	r6, r4
	mov	r1, r4
	mov	r7, r3
.Ltmp284:
	@DEBUG_VALUE: I2C_WriteMultiBytesTwoRegs:u8Xfering <- $r7
	@DEBUG_VALUE: I2C_WriteMultiBytesTwoRegs:u8Err <- $r1
	@DEBUG_VALUE: I2C_WriteMultiBytesTwoRegs:u8Addr <- $r3
	@DEBUG_VALUE: I2C_WriteMultiBytesTwoRegs:u8Ctrl <- $r6
	@DEBUG_VALUE: I2C_WriteMultiBytesTwoRegs:u32txLen <- $r4
.LBB33_1:                               @ =>This Inner Loop Header: Depth=1
	@DEBUG_VALUE: I2C_WriteMultiBytesTwoRegs:u8Xfering <- $r7
	@DEBUG_VALUE: I2C_WriteMultiBytesTwoRegs:u8Ctrl <- $r6
	@DEBUG_VALUE: I2C_WriteMultiBytesTwoRegs:u32txLen <- $r4
	@DEBUG_VALUE: I2C_WriteMultiBytesTwoRegs:u8Addr <- $r3
	@DEBUG_VALUE: I2C_WriteMultiBytesTwoRegs:u8Err <- $r1
	@DEBUG_VALUE: I2C_WriteMultiBytesTwoRegs:i2c <- $r0
	@DEBUG_VALUE: I2C_WriteMultiBytesTwoRegs:au8Data <- [DW_OP_plus_uconst 4] [$sp+0]
	@DEBUG_VALUE: I2C_WriteMultiBytesTwoRegs:u32wLen <- [DW_OP_plus_uconst 40] [$sp+0]
	@DEBUG_VALUE: I2C_WriteMultiBytesTwoRegs:u8SlaveAddr <- [DW_OP_LLVM_entry_value 1] $r1
	@DEBUG_VALUE: I2C_WriteMultiBytesTwoRegs:u16DataAddr <- [DW_OP_LLVM_entry_value 1] $r2
	.loc	4 983 9 is_stmt 1               @ ../../Library/StdDriver/src/i2c.c:983:9
	ldr	r2, [r0]
	lsls	r2, r2, #28
	bpl	.LBB33_1
.Ltmp285:
@ %bb.2:                                @   in Loop: Header=BB33_1 Depth=1
	@DEBUG_VALUE: I2C_WriteMultiBytesTwoRegs:u8Xfering <- $r7
	@DEBUG_VALUE: I2C_WriteMultiBytesTwoRegs:u8Ctrl <- $r6
	@DEBUG_VALUE: I2C_WriteMultiBytesTwoRegs:u32txLen <- $r4
	@DEBUG_VALUE: I2C_WriteMultiBytesTwoRegs:u8Addr <- $r3
	@DEBUG_VALUE: I2C_WriteMultiBytesTwoRegs:u8Err <- $r1
	@DEBUG_VALUE: I2C_WriteMultiBytesTwoRegs:i2c <- $r0
	@DEBUG_VALUE: I2C_WriteMultiBytesTwoRegs:au8Data <- [DW_OP_plus_uconst 4] [$sp+0]
	@DEBUG_VALUE: I2C_WriteMultiBytesTwoRegs:u32wLen <- [DW_OP_plus_uconst 40] [$sp+0]
	@DEBUG_VALUE: I2C_WriteMultiBytesTwoRegs:u8SlaveAddr <- [DW_OP_LLVM_entry_value 1] $r1
	@DEBUG_VALUE: I2C_WriteMultiBytesTwoRegs:u16DataAddr <- [DW_OP_LLVM_entry_value 1] $r2
	.loc	4 984 16                        @ ../../Library/StdDriver/src/i2c.c:984:16
	ldr	r5, [r0, #12]
	.loc	4 984 9 is_stmt 0               @ ../../Library/StdDriver/src/i2c.c:984:9
	subs	r5, #8
	movs	r2, #3
	rors	r5, r2
	movs	r2, #24
	cmp	r5, #4
	beq	.LBB33_6
.Ltmp286:
@ %bb.3:                                @   in Loop: Header=BB33_1 Depth=1
	@DEBUG_VALUE: I2C_WriteMultiBytesTwoRegs:u8Xfering <- $r7
	@DEBUG_VALUE: I2C_WriteMultiBytesTwoRegs:u8Ctrl <- $r6
	@DEBUG_VALUE: I2C_WriteMultiBytesTwoRegs:u32txLen <- $r4
	@DEBUG_VALUE: I2C_WriteMultiBytesTwoRegs:u8Addr <- $r3
	@DEBUG_VALUE: I2C_WriteMultiBytesTwoRegs:u8Err <- $r1
	@DEBUG_VALUE: I2C_WriteMultiBytesTwoRegs:i2c <- $r0
	@DEBUG_VALUE: I2C_WriteMultiBytesTwoRegs:au8Data <- [DW_OP_plus_uconst 4] [$sp+0]
	@DEBUG_VALUE: I2C_WriteMultiBytesTwoRegs:u32wLen <- [DW_OP_plus_uconst 40] [$sp+0]
	@DEBUG_VALUE: I2C_WriteMultiBytesTwoRegs:u8SlaveAddr <- [DW_OP_LLVM_entry_value 1] $r1
	@DEBUG_VALUE: I2C_WriteMultiBytesTwoRegs:u16DataAddr <- [DW_OP_LLVM_entry_value 1] $r2
	cmp	r5, #2
	beq	.LBB33_9
.Ltmp287:
@ %bb.4:                                @   in Loop: Header=BB33_1 Depth=1
	@DEBUG_VALUE: I2C_WriteMultiBytesTwoRegs:u8Xfering <- $r7
	@DEBUG_VALUE: I2C_WriteMultiBytesTwoRegs:u8Ctrl <- $r6
	@DEBUG_VALUE: I2C_WriteMultiBytesTwoRegs:u32txLen <- $r4
	@DEBUG_VALUE: I2C_WriteMultiBytesTwoRegs:u8Addr <- $r3
	@DEBUG_VALUE: I2C_WriteMultiBytesTwoRegs:u8Err <- $r1
	@DEBUG_VALUE: I2C_WriteMultiBytesTwoRegs:i2c <- $r0
	@DEBUG_VALUE: I2C_WriteMultiBytesTwoRegs:au8Data <- [DW_OP_plus_uconst 4] [$sp+0]
	@DEBUG_VALUE: I2C_WriteMultiBytesTwoRegs:u32wLen <- [DW_OP_plus_uconst 40] [$sp+0]
	@DEBUG_VALUE: I2C_WriteMultiBytesTwoRegs:u8SlaveAddr <- [DW_OP_LLVM_entry_value 1] $r1
	@DEBUG_VALUE: I2C_WriteMultiBytesTwoRegs:u16DataAddr <- [DW_OP_LLVM_entry_value 1] $r2
	cbnz	r5, .LBB33_10
.Ltmp288:
@ %bb.5:                                @   in Loop: Header=BB33_1 Depth=1
	@DEBUG_VALUE: I2C_WriteMultiBytesTwoRegs:u8Xfering <- $r7
	@DEBUG_VALUE: I2C_WriteMultiBytesTwoRegs:u8Ctrl <- $r6
	@DEBUG_VALUE: I2C_WriteMultiBytesTwoRegs:u32txLen <- $r4
	@DEBUG_VALUE: I2C_WriteMultiBytesTwoRegs:u8Addr <- $r3
	@DEBUG_VALUE: I2C_WriteMultiBytesTwoRegs:u8Err <- $r1
	@DEBUG_VALUE: I2C_WriteMultiBytesTwoRegs:i2c <- $r0
	@DEBUG_VALUE: I2C_WriteMultiBytesTwoRegs:au8Data <- [DW_OP_plus_uconst 4] [$sp+0]
	@DEBUG_VALUE: I2C_WriteMultiBytesTwoRegs:u32wLen <- [DW_OP_plus_uconst 40] [$sp+0]
	@DEBUG_VALUE: I2C_WriteMultiBytesTwoRegs:u8SlaveAddr <- [DW_OP_LLVM_entry_value 1] $r1
	@DEBUG_VALUE: I2C_WriteMultiBytesTwoRegs:u16DataAddr <- [DW_OP_LLVM_entry_value 1] $r2
	.loc	4 987 17 is_stmt 1              @ ../../Library/StdDriver/src/i2c.c:987:17
	ldr	r2, [sp, #12]                   @ 4-byte Reload
	str	r2, [r0, #8]
	movs	r6, #8
.Ltmp289:
	@DEBUG_VALUE: I2C_WriteMultiBytesTwoRegs:u8Ctrl <- 8
	.loc	4 0 17 is_stmt 0                @ ../../Library/StdDriver/src/i2c.c:0:17
	b	.LBB33_14
.Ltmp290:
.LBB33_6:                               @   in Loop: Header=BB33_1 Depth=1
	@DEBUG_VALUE: I2C_WriteMultiBytesTwoRegs:u8Xfering <- $r7
	@DEBUG_VALUE: I2C_WriteMultiBytesTwoRegs:u8Ctrl <- $r6
	@DEBUG_VALUE: I2C_WriteMultiBytesTwoRegs:u32txLen <- $r4
	@DEBUG_VALUE: I2C_WriteMultiBytesTwoRegs:u8Addr <- $r3
	@DEBUG_VALUE: I2C_WriteMultiBytesTwoRegs:u8Err <- $r1
	@DEBUG_VALUE: I2C_WriteMultiBytesTwoRegs:i2c <- $r0
	@DEBUG_VALUE: I2C_WriteMultiBytesTwoRegs:au8Data <- [DW_OP_plus_uconst 4] [$sp+0]
	@DEBUG_VALUE: I2C_WriteMultiBytesTwoRegs:u32wLen <- [DW_OP_plus_uconst 40] [$sp+0]
	@DEBUG_VALUE: I2C_WriteMultiBytesTwoRegs:u8SlaveAddr <- [DW_OP_LLVM_entry_value 1] $r1
	@DEBUG_VALUE: I2C_WriteMultiBytesTwoRegs:u16DataAddr <- [DW_OP_LLVM_entry_value 1] $r2
	.loc	4 999 20 is_stmt 1              @ ../../Library/StdDriver/src/i2c.c:999:20
	cbnz	r3, .LBB33_11
.Ltmp291:
@ %bb.7:                                @   in Loop: Header=BB33_1 Depth=1
	@DEBUG_VALUE: I2C_WriteMultiBytesTwoRegs:u8Xfering <- $r7
	@DEBUG_VALUE: I2C_WriteMultiBytesTwoRegs:u8Ctrl <- $r6
	@DEBUG_VALUE: I2C_WriteMultiBytesTwoRegs:u32txLen <- $r4
	@DEBUG_VALUE: I2C_WriteMultiBytesTwoRegs:u8Addr <- $r3
	@DEBUG_VALUE: I2C_WriteMultiBytesTwoRegs:u8Err <- $r1
	@DEBUG_VALUE: I2C_WriteMultiBytesTwoRegs:i2c <- $r0
	@DEBUG_VALUE: I2C_WriteMultiBytesTwoRegs:au8Data <- [DW_OP_plus_uconst 4] [$sp+0]
	@DEBUG_VALUE: I2C_WriteMultiBytesTwoRegs:u32wLen <- [DW_OP_plus_uconst 40] [$sp+0]
	@DEBUG_VALUE: I2C_WriteMultiBytesTwoRegs:u8SlaveAddr <- [DW_OP_LLVM_entry_value 1] $r1
	@DEBUG_VALUE: I2C_WriteMultiBytesTwoRegs:u16DataAddr <- [DW_OP_LLVM_entry_value 1] $r2
	.loc	4 0 20 is_stmt 0                @ ../../Library/StdDriver/src/i2c.c:0:20
	movs	r3, #0
.Ltmp292:
	.loc	4 1004 46 is_stmt 1             @ ../../Library/StdDriver/src/i2c.c:1004:46
	ldr	r5, [sp, #8]                    @ 4-byte Reload
	cmp	r4, r5
	bhs	.LBB33_12
.Ltmp293:
@ %bb.8:                                @   in Loop: Header=BB33_1 Depth=1
	@DEBUG_VALUE: I2C_WriteMultiBytesTwoRegs:u8Xfering <- $r7
	@DEBUG_VALUE: I2C_WriteMultiBytesTwoRegs:u8Ctrl <- $r6
	@DEBUG_VALUE: I2C_WriteMultiBytesTwoRegs:u32txLen <- $r4
	@DEBUG_VALUE: I2C_WriteMultiBytesTwoRegs:u8Err <- $r1
	@DEBUG_VALUE: I2C_WriteMultiBytesTwoRegs:i2c <- $r0
	@DEBUG_VALUE: I2C_WriteMultiBytesTwoRegs:au8Data <- [DW_OP_plus_uconst 4] [$sp+0]
	@DEBUG_VALUE: I2C_WriteMultiBytesTwoRegs:u32wLen <- [DW_OP_plus_uconst 40] [$sp+0]
	@DEBUG_VALUE: I2C_WriteMultiBytesTwoRegs:u8SlaveAddr <- [DW_OP_LLVM_entry_value 1] $r1
	@DEBUG_VALUE: I2C_WriteMultiBytesTwoRegs:u16DataAddr <- [DW_OP_LLVM_entry_value 1] $r2
	.loc	4 1006 21                       @ ../../Library/StdDriver/src/i2c.c:1006:21
	ldr	r2, [sp, #4]                    @ 4-byte Reload
	ldrb	r2, [r2, r4]
	str	r2, [r0, #8]
	adds	r4, r4, #1
.Ltmp294:
	@DEBUG_VALUE: I2C_WriteMultiBytesTwoRegs:u32txLen <- $r4
	.loc	4 0 21 is_stmt 0                @ ../../Library/StdDriver/src/i2c.c:0:21
	b	.LBB33_14
.Ltmp295:
.LBB33_9:                               @   in Loop: Header=BB33_1 Depth=1
	@DEBUG_VALUE: I2C_WriteMultiBytesTwoRegs:u8Xfering <- $r7
	@DEBUG_VALUE: I2C_WriteMultiBytesTwoRegs:u8Ctrl <- $r6
	@DEBUG_VALUE: I2C_WriteMultiBytesTwoRegs:u32txLen <- $r4
	@DEBUG_VALUE: I2C_WriteMultiBytesTwoRegs:u8Addr <- $r3
	@DEBUG_VALUE: I2C_WriteMultiBytesTwoRegs:u8Err <- $r1
	@DEBUG_VALUE: I2C_WriteMultiBytesTwoRegs:i2c <- $r0
	@DEBUG_VALUE: I2C_WriteMultiBytesTwoRegs:au8Data <- [DW_OP_plus_uconst 4] [$sp+0]
	@DEBUG_VALUE: I2C_WriteMultiBytesTwoRegs:u32wLen <- [DW_OP_plus_uconst 40] [$sp+0]
	@DEBUG_VALUE: I2C_WriteMultiBytesTwoRegs:u8SlaveAddr <- [DW_OP_LLVM_entry_value 1] $r1
	@DEBUG_VALUE: I2C_WriteMultiBytesTwoRegs:u16DataAddr <- [DW_OP_LLVM_entry_value 1] $r2
	.loc	4 991 17 is_stmt 1              @ ../../Library/StdDriver/src/i2c.c:991:17
	ldr	r2, [sp, #16]                   @ 4-byte Reload
	str	r2, [r0, #8]
	b	.LBB33_14
.Ltmp296:
.LBB33_10:                              @   in Loop: Header=BB33_1 Depth=1
	@DEBUG_VALUE: I2C_WriteMultiBytesTwoRegs:u8Xfering <- $r7
	@DEBUG_VALUE: I2C_WriteMultiBytesTwoRegs:u8Ctrl <- $r6
	@DEBUG_VALUE: I2C_WriteMultiBytesTwoRegs:u32txLen <- $r4
	@DEBUG_VALUE: I2C_WriteMultiBytesTwoRegs:u8Addr <- $r3
	@DEBUG_VALUE: I2C_WriteMultiBytesTwoRegs:u8Err <- $r1
	@DEBUG_VALUE: I2C_WriteMultiBytesTwoRegs:i2c <- $r0
	@DEBUG_VALUE: I2C_WriteMultiBytesTwoRegs:au8Data <- [DW_OP_plus_uconst 4] [$sp+0]
	@DEBUG_VALUE: I2C_WriteMultiBytesTwoRegs:u32wLen <- [DW_OP_plus_uconst 40] [$sp+0]
	@DEBUG_VALUE: I2C_WriteMultiBytesTwoRegs:u8SlaveAddr <- [DW_OP_LLVM_entry_value 1] $r1
	@DEBUG_VALUE: I2C_WriteMultiBytesTwoRegs:u16DataAddr <- [DW_OP_LLVM_entry_value 1] $r2
	.loc	4 0 17 is_stmt 0                @ ../../Library/StdDriver/src/i2c.c:0:17
	movs	r1, #1
.Ltmp297:
	b	.LBB33_13
.Ltmp298:
.LBB33_11:                              @   in Loop: Header=BB33_1 Depth=1
	@DEBUG_VALUE: I2C_WriteMultiBytesTwoRegs:u8Xfering <- $r7
	@DEBUG_VALUE: I2C_WriteMultiBytesTwoRegs:u8Ctrl <- $r6
	@DEBUG_VALUE: I2C_WriteMultiBytesTwoRegs:u32txLen <- $r4
	@DEBUG_VALUE: I2C_WriteMultiBytesTwoRegs:u8Addr <- $r3
	@DEBUG_VALUE: I2C_WriteMultiBytesTwoRegs:u8Err <- $r1
	@DEBUG_VALUE: I2C_WriteMultiBytesTwoRegs:i2c <- $r0
	@DEBUG_VALUE: I2C_WriteMultiBytesTwoRegs:au8Data <- [DW_OP_plus_uconst 4] [$sp+0]
	@DEBUG_VALUE: I2C_WriteMultiBytesTwoRegs:u32wLen <- [DW_OP_plus_uconst 40] [$sp+0]
	@DEBUG_VALUE: I2C_WriteMultiBytesTwoRegs:u8SlaveAddr <- [DW_OP_LLVM_entry_value 1] $r1
	@DEBUG_VALUE: I2C_WriteMultiBytesTwoRegs:u16DataAddr <- [DW_OP_LLVM_entry_value 1] $r2
	.loc	4 1001 21 is_stmt 1             @ ../../Library/StdDriver/src/i2c.c:1001:21
	ldr	r2, [sp]                        @ 4-byte Reload
	str	r2, [r0, #8]
	movs	r3, #0
.Ltmp299:
	@DEBUG_VALUE: I2C_WriteMultiBytesTwoRegs:u8Addr <- 0
	.loc	4 0 21 is_stmt 0                @ ../../Library/StdDriver/src/i2c.c:0:21
	b	.LBB33_14
.Ltmp300:
.LBB33_12:                              @   in Loop: Header=BB33_1 Depth=1
	@DEBUG_VALUE: I2C_WriteMultiBytesTwoRegs:u8Xfering <- $r7
	@DEBUG_VALUE: I2C_WriteMultiBytesTwoRegs:u8Ctrl <- $r6
	@DEBUG_VALUE: I2C_WriteMultiBytesTwoRegs:u32txLen <- $r4
	@DEBUG_VALUE: I2C_WriteMultiBytesTwoRegs:u8Err <- $r1
	@DEBUG_VALUE: I2C_WriteMultiBytesTwoRegs:i2c <- $r0
	@DEBUG_VALUE: I2C_WriteMultiBytesTwoRegs:au8Data <- [DW_OP_plus_uconst 4] [$sp+0]
	@DEBUG_VALUE: I2C_WriteMultiBytesTwoRegs:u32wLen <- [DW_OP_plus_uconst 40] [$sp+0]
	@DEBUG_VALUE: I2C_WriteMultiBytesTwoRegs:u8SlaveAddr <- [DW_OP_LLVM_entry_value 1] $r1
	@DEBUG_VALUE: I2C_WriteMultiBytesTwoRegs:u16DataAddr <- [DW_OP_LLVM_entry_value 1] $r2
	mov	r7, r3
.Ltmp301:
.LBB33_13:                              @   in Loop: Header=BB33_1 Depth=1
	@DEBUG_VALUE: I2C_WriteMultiBytesTwoRegs:u8Ctrl <- $r6
	@DEBUG_VALUE: I2C_WriteMultiBytesTwoRegs:u32txLen <- $r4
	@DEBUG_VALUE: I2C_WriteMultiBytesTwoRegs:i2c <- $r0
	@DEBUG_VALUE: I2C_WriteMultiBytesTwoRegs:au8Data <- [DW_OP_plus_uconst 4] [$sp+0]
	@DEBUG_VALUE: I2C_WriteMultiBytesTwoRegs:u32wLen <- [DW_OP_plus_uconst 40] [$sp+0]
	@DEBUG_VALUE: I2C_WriteMultiBytesTwoRegs:u8SlaveAddr <- [DW_OP_LLVM_entry_value 1] $r1
	@DEBUG_VALUE: I2C_WriteMultiBytesTwoRegs:u16DataAddr <- [DW_OP_LLVM_entry_value 1] $r2
	mov	r6, r2
.Ltmp302:
.LBB33_14:                              @   in Loop: Header=BB33_1 Depth=1
	@DEBUG_VALUE: I2C_WriteMultiBytesTwoRegs:u32txLen <- $r4
	@DEBUG_VALUE: I2C_WriteMultiBytesTwoRegs:i2c <- $r0
	@DEBUG_VALUE: I2C_WriteMultiBytesTwoRegs:au8Data <- [DW_OP_plus_uconst 4] [$sp+0]
	@DEBUG_VALUE: I2C_WriteMultiBytesTwoRegs:u32wLen <- [DW_OP_plus_uconst 40] [$sp+0]
	@DEBUG_VALUE: I2C_WriteMultiBytesTwoRegs:u8SlaveAddr <- [DW_OP_LLVM_entry_value 1] $r1
	@DEBUG_VALUE: I2C_WriteMultiBytesTwoRegs:u16DataAddr <- [DW_OP_LLVM_entry_value 1] $r2
	@DEBUG_VALUE: I2C_WriteMultiBytesTwoRegs:u8Xfering <- $r7
	@DEBUG_VALUE: I2C_WriteMultiBytesTwoRegs:u8Err <- $r1
	@DEBUG_VALUE: I2C_WriteMultiBytesTwoRegs:u8Addr <- $r3
	@DEBUG_VALUE: I2C_WriteMultiBytesTwoRegs:u8Ctrl <- $r6
	@DEBUG_VALUE: I2C_WriteMultiBytesTwoRegs:u32txLen <- $r4
	.loc	4 1020 9 is_stmt 1              @ ../../Library/StdDriver/src/i2c.c:1020:9
	ldr	r2, [r0]
	movs	r5, #60
	bics	r2, r5
	uxtb	r5, r6
	orrs	r5, r2
	str	r5, [r0]
.Ltmp303:
	.loc	4 981 5                         @ ../../Library/StdDriver/src/i2c.c:981:5
	cbz	r7, .LBB33_16
.Ltmp304:
@ %bb.15:                               @   in Loop: Header=BB33_1 Depth=1
	@DEBUG_VALUE: I2C_WriteMultiBytesTwoRegs:u8Xfering <- $r7
	@DEBUG_VALUE: I2C_WriteMultiBytesTwoRegs:u8Ctrl <- $r6
	@DEBUG_VALUE: I2C_WriteMultiBytesTwoRegs:u32txLen <- $r4
	@DEBUG_VALUE: I2C_WriteMultiBytesTwoRegs:u8Addr <- $r3
	@DEBUG_VALUE: I2C_WriteMultiBytesTwoRegs:u8Err <- $r1
	@DEBUG_VALUE: I2C_WriteMultiBytesTwoRegs:i2c <- $r0
	@DEBUG_VALUE: I2C_WriteMultiBytesTwoRegs:au8Data <- [DW_OP_plus_uconst 4] [$sp+0]
	@DEBUG_VALUE: I2C_WriteMultiBytesTwoRegs:u32wLen <- [DW_OP_plus_uconst 40] [$sp+0]
	@DEBUG_VALUE: I2C_WriteMultiBytesTwoRegs:u8SlaveAddr <- [DW_OP_LLVM_entry_value 1] $r1
	@DEBUG_VALUE: I2C_WriteMultiBytesTwoRegs:u16DataAddr <- [DW_OP_LLVM_entry_value 1] $r2
	cmp	r1, #0
	beq	.LBB33_1
.Ltmp305:
.LBB33_16:
	@DEBUG_VALUE: I2C_WriteMultiBytesTwoRegs:u8Xfering <- $r7
	@DEBUG_VALUE: I2C_WriteMultiBytesTwoRegs:u8Ctrl <- $r6
	@DEBUG_VALUE: I2C_WriteMultiBytesTwoRegs:u32txLen <- $r4
	@DEBUG_VALUE: I2C_WriteMultiBytesTwoRegs:u8Addr <- $r3
	@DEBUG_VALUE: I2C_WriteMultiBytesTwoRegs:u8Err <- $r1
	@DEBUG_VALUE: I2C_WriteMultiBytesTwoRegs:i2c <- $r0
	@DEBUG_VALUE: I2C_WriteMultiBytesTwoRegs:au8Data <- [DW_OP_plus_uconst 4] [$sp+0]
	@DEBUG_VALUE: I2C_WriteMultiBytesTwoRegs:u32wLen <- [DW_OP_plus_uconst 40] [$sp+0]
	@DEBUG_VALUE: I2C_WriteMultiBytesTwoRegs:u8SlaveAddr <- [DW_OP_LLVM_entry_value 1] $r1
	@DEBUG_VALUE: I2C_WriteMultiBytesTwoRegs:u16DataAddr <- [DW_OP_LLVM_entry_value 1] $r2
	@DEBUG_VALUE: I2C_WriteMultiBytesTwoRegs:u32txLen <- $r4
	.loc	4 1022 5                        @ ../../Library/StdDriver/src/i2c.c:1022:5
	mov	r0, r4
.Ltmp306:
	@DEBUG_VALUE: I2C_WriteMultiBytesTwoRegs:i2c <- [DW_OP_LLVM_entry_value 1] $r0
	add	sp, #20
.Ltmp307:
	pop	{r4, r5, r6, r7, pc}
.Ltmp308:
.Lfunc_end33:
	.size	I2C_WriteMultiBytesTwoRegs, .Lfunc_end33-I2C_WriteMultiBytesTwoRegs
	.cfi_endproc
	.cantunwind
	.fnend
                                        @ -- End function
	.section	.text.I2C_ReadByte,"ax",%progbits
	.hidden	I2C_ReadByte                    @ -- Begin function I2C_ReadByte
	.globl	I2C_ReadByte
	.p2align	2
	.type	I2C_ReadByte,%function
	.code	16                              @ @I2C_ReadByte
	.thumb_func
I2C_ReadByte:
.Lfunc_begin34:
	.loc	4 1037 0                        @ ../../Library/StdDriver/src/i2c.c:1037:0
	.fnstart
	.cfi_startproc
@ %bb.0:
	@DEBUG_VALUE: I2C_ReadByte:i2c <- $r0
	@DEBUG_VALUE: I2C_ReadByte:i2c <- $r0
	@DEBUG_VALUE: I2C_ReadByte:u8SlaveAddr <- $r1
	@DEBUG_VALUE: I2C_ReadByte:u8SlaveAddr <- $r1
	.save	{r4, r5, r6, r7, lr}
	push	{r4, r5, r6, r7, lr}
	.cfi_def_cfa_offset 20
	.cfi_offset lr, -4
	.cfi_offset r7, -8
	.cfi_offset r6, -12
	.cfi_offset r5, -16
	.cfi_offset r4, -20
	.pad	#8
	sub	sp, #8
	.cfi_def_cfa_offset 28
.Ltmp309:
	@DEBUG_VALUE: I2C_ReadByte:u8Xfering <- 1
	@DEBUG_VALUE: I2C_ReadByte:u8Err <- 0
	@DEBUG_VALUE: I2C_ReadByte:rdata <- 0
	@DEBUG_VALUE: I2C_ReadByte:u8Ctrl <- 0
	.loc	4 1040 5 prologue_end           @ ../../Library/StdDriver/src/i2c.c:1040:5
	ldr	r2, [r0]
	movs	r3, #40
	orrs	r3, r2
	str	r3, [r0]
.Ltmp310:
	.loc	4 0 0 is_stmt 0                 @ ../../Library/StdDriver/src/i2c.c:0:0
	lsls	r1, r1, #1
.Ltmp311:
	@DEBUG_VALUE: I2C_ReadByte:u8SlaveAddr <- [DW_OP_LLVM_entry_value 1] $r1
	adds	r1, r1, #1
	uxtb	r1, r1
	str	r1, [sp]                        @ 4-byte Spill
	movs	r4, #1
	movs	r6, #0
	movs	r3, #3
	movs	r5, #8
	str	r6, [sp, #4]                    @ 4-byte Spill
.Ltmp312:
	@DEBUG_VALUE: I2C_ReadByte:u8Xfering <- $r4
	@DEBUG_VALUE: I2C_ReadByte:u8Err <- $r6
	@DEBUG_VALUE: I2C_ReadByte:rdata <- [DW_OP_plus_uconst 4] [$sp+0]
.LBB34_1:                               @ =>This Inner Loop Header: Depth=1
	@DEBUG_VALUE: I2C_ReadByte:u8Err <- $r6
	@DEBUG_VALUE: I2C_ReadByte:u8Xfering <- $r4
	@DEBUG_VALUE: I2C_ReadByte:i2c <- $r0
	@DEBUG_VALUE: I2C_ReadByte:rdata <- [DW_OP_plus_uconst 4] [$sp+0]
	@DEBUG_VALUE: I2C_ReadByte:u8SlaveAddr <- [DW_OP_LLVM_entry_value 1] $r1
	.loc	4 1043 9 is_stmt 1              @ ../../Library/StdDriver/src/i2c.c:1043:9
	ldr	r2, [r0]
	lsls	r2, r2, #28
	bpl	.LBB34_1
.Ltmp313:
@ %bb.2:                                @   in Loop: Header=BB34_1 Depth=1
	@DEBUG_VALUE: I2C_ReadByte:u8Err <- $r6
	@DEBUG_VALUE: I2C_ReadByte:u8Xfering <- $r4
	@DEBUG_VALUE: I2C_ReadByte:i2c <- $r0
	@DEBUG_VALUE: I2C_ReadByte:rdata <- [DW_OP_plus_uconst 4] [$sp+0]
	@DEBUG_VALUE: I2C_ReadByte:u8SlaveAddr <- [DW_OP_LLVM_entry_value 1] $r1
	.loc	4 1044 16                       @ ../../Library/StdDriver/src/i2c.c:1044:16
	ldr	r2, [r0, #12]
	.loc	4 1044 9 is_stmt 0              @ ../../Library/StdDriver/src/i2c.c:1044:9
	subs	r2, #8
	rors	r2, r3
	cmp	r2, #10
	bhi	.LBB34_5
.Ltmp314:
@ %bb.3:                                @   in Loop: Header=BB34_1 Depth=1
	@DEBUG_VALUE: I2C_ReadByte:u8Err <- $r6
	@DEBUG_VALUE: I2C_ReadByte:u8Xfering <- $r4
	@DEBUG_VALUE: I2C_ReadByte:i2c <- $r0
	@DEBUG_VALUE: I2C_ReadByte:rdata <- [DW_OP_plus_uconst 4] [$sp+0]
	@DEBUG_VALUE: I2C_ReadByte:u8SlaveAddr <- [DW_OP_LLVM_entry_value 1] $r1
	.loc	4 0 9                           @ ../../Library/StdDriver/src/i2c.c:0:9
	lsls	r7, r2, #2
	adr	r1, .LJTI34_0
	adds	r1, r1, r7
	mov	r7, r5
	mov	pc, r1
.Ltmp315:
@ %bb.4:
	.p2align	2
.LJTI34_0:
	b.w	.LBB34_6
	b.w	.LBB34_5
	b.w	.LBB34_5
	b.w	.LBB34_5
	b.w	.LBB34_5
	b.w	.LBB34_5
	b.w	.LBB34_5
	b.w	.LBB34_8
	b.w	.LBB34_5
	b.w	.LBB34_5
	b.w	.LBB34_7
.LBB34_5:                               @   in Loop: Header=BB34_1 Depth=1
.Ltmp316:
	@DEBUG_VALUE: I2C_ReadByte:u8Err <- $r6
	@DEBUG_VALUE: I2C_ReadByte:u8Xfering <- $r4
	@DEBUG_VALUE: I2C_ReadByte:i2c <- $r0
	@DEBUG_VALUE: I2C_ReadByte:rdata <- [DW_OP_plus_uconst 4] [$sp+0]
	@DEBUG_VALUE: I2C_ReadByte:u8SlaveAddr <- [DW_OP_LLVM_entry_value 1] $r1
	movs	r7, #24
	movs	r6, #1
.Ltmp317:
	@DEBUG_VALUE: I2C_ReadByte:u8Ctrl <- 24
	@DEBUG_VALUE: I2C_ReadByte:u8Err <- 1
	b	.LBB34_8
.Ltmp318:
.LBB34_6:                               @   in Loop: Header=BB34_1 Depth=1
	@DEBUG_VALUE: I2C_ReadByte:u8Err <- $r6
	@DEBUG_VALUE: I2C_ReadByte:u8Xfering <- $r4
	@DEBUG_VALUE: I2C_ReadByte:i2c <- $r0
	@DEBUG_VALUE: I2C_ReadByte:rdata <- [DW_OP_plus_uconst 4] [$sp+0]
	@DEBUG_VALUE: I2C_ReadByte:u8SlaveAddr <- [DW_OP_LLVM_entry_value 1] $r1
	.loc	4 1047 17 is_stmt 1             @ ../../Library/StdDriver/src/i2c.c:1047:17
	ldr	r1, [sp]                        @ 4-byte Reload
	str	r1, [r0, #8]
.Ltmp319:
	@DEBUG_VALUE: I2C_ReadByte:u8Ctrl <- 8
	.loc	4 0 17 is_stmt 0                @ ../../Library/StdDriver/src/i2c.c:0:17
	mov	r7, r5
	b	.LBB34_8
.Ltmp320:
.LBB34_7:                               @   in Loop: Header=BB34_1 Depth=1
	@DEBUG_VALUE: I2C_ReadByte:u8Err <- $r6
	@DEBUG_VALUE: I2C_ReadByte:u8Xfering <- $r4
	@DEBUG_VALUE: I2C_ReadByte:i2c <- $r0
	@DEBUG_VALUE: I2C_ReadByte:rdata <- [DW_OP_plus_uconst 4] [$sp+0]
	@DEBUG_VALUE: I2C_ReadByte:u8SlaveAddr <- [DW_OP_LLVM_entry_value 1] $r1
	.loc	4 1058 41 is_stmt 1             @ ../../Library/StdDriver/src/i2c.c:1058:41
	ldr	r1, [r0, #8]
	str	r1, [sp, #4]                    @ 4-byte Spill
	movs	r7, #24
	movs	r4, #0
.Ltmp321:
	@DEBUG_VALUE: I2C_ReadByte:u8Ctrl <- 24
	@DEBUG_VALUE: I2C_ReadByte:rdata <- undef
	@DEBUG_VALUE: I2C_ReadByte:u8Xfering <- 0
.LBB34_8:                               @   in Loop: Header=BB34_1 Depth=1
	@DEBUG_VALUE: I2C_ReadByte:i2c <- $r0
	@DEBUG_VALUE: I2C_ReadByte:u8SlaveAddr <- [DW_OP_LLVM_entry_value 1] $r1
	@DEBUG_VALUE: I2C_ReadByte:u8Xfering <- $r4
	@DEBUG_VALUE: I2C_ReadByte:u8Err <- $r6
	@DEBUG_VALUE: I2C_ReadByte:rdata <- [DW_OP_plus_uconst 4] [$sp+0]
	@DEBUG_VALUE: I2C_ReadByte:u8Ctrl <- undef
	.loc	4 1068 9                        @ ../../Library/StdDriver/src/i2c.c:1068:9
	ldr	r1, [r0]
	movs	r2, #60
	bics	r1, r2
	orrs	r1, r7
	str	r1, [r0]
.Ltmp322:
	.loc	4 1041 5                        @ ../../Library/StdDriver/src/i2c.c:1041:5
	cbz	r4, .LBB34_10
.Ltmp323:
@ %bb.9:                                @   in Loop: Header=BB34_1 Depth=1
	@DEBUG_VALUE: I2C_ReadByte:u8Err <- $r6
	@DEBUG_VALUE: I2C_ReadByte:u8Xfering <- $r4
	@DEBUG_VALUE: I2C_ReadByte:i2c <- $r0
	@DEBUG_VALUE: I2C_ReadByte:rdata <- [DW_OP_plus_uconst 4] [$sp+0]
	@DEBUG_VALUE: I2C_ReadByte:u8SlaveAddr <- [DW_OP_LLVM_entry_value 1] $r1
	cmp	r6, #0
	beq	.LBB34_1
.Ltmp324:
.LBB34_10:
	@DEBUG_VALUE: I2C_ReadByte:u8Err <- $r6
	@DEBUG_VALUE: I2C_ReadByte:u8Xfering <- $r4
	@DEBUG_VALUE: I2C_ReadByte:i2c <- $r0
	@DEBUG_VALUE: I2C_ReadByte:rdata <- [DW_OP_plus_uconst 4] [$sp+0]
	@DEBUG_VALUE: I2C_ReadByte:u8SlaveAddr <- [DW_OP_LLVM_entry_value 1] $r1
	@DEBUG_VALUE: I2C_ReadByte:rdata <- [DW_OP_plus_uconst 4] [$sp+0]
	.loc	4 0 5 is_stmt 0                 @ ../../Library/StdDriver/src/i2c.c:0:5
	ldr	r0, [sp, #4]                    @ 4-byte Reload
.Ltmp325:
	@DEBUG_VALUE: I2C_ReadByte:i2c <- [DW_OP_LLVM_entry_value 1] $r0
	@DEBUG_VALUE: I2C_ReadByte:rdata <- $r0
	.loc	4 1070 8 is_stmt 1              @ ../../Library/StdDriver/src/i2c.c:1070:8
	cbz	r6, .LBB34_12
.Ltmp326:
@ %bb.11:
	@DEBUG_VALUE: I2C_ReadByte:u8Err <- $r6
	@DEBUG_VALUE: I2C_ReadByte:u8Xfering <- $r4
	@DEBUG_VALUE: I2C_ReadByte:rdata <- $r0
	@DEBUG_VALUE: I2C_ReadByte:i2c <- [DW_OP_LLVM_entry_value 1] $r0
	@DEBUG_VALUE: I2C_ReadByte:u8SlaveAddr <- [DW_OP_LLVM_entry_value 1] $r1
	.loc	4 0 8 is_stmt 0                 @ ../../Library/StdDriver/src/i2c.c:0:8
	movs	r0, #0
.Ltmp327:
.LBB34_12:
	@DEBUG_VALUE: I2C_ReadByte:u8Err <- $r6
	@DEBUG_VALUE: I2C_ReadByte:u8Xfering <- $r4
	@DEBUG_VALUE: I2C_ReadByte:i2c <- [DW_OP_LLVM_entry_value 1] $r0
	@DEBUG_VALUE: I2C_ReadByte:u8SlaveAddr <- [DW_OP_LLVM_entry_value 1] $r1
	@DEBUG_VALUE: I2C_ReadByte:rdata <- $r0
	.loc	4 1074 5 is_stmt 1              @ ../../Library/StdDriver/src/i2c.c:1074:5
	uxtb	r0, r0
.Ltmp328:
	add	sp, #8
	pop	{r4, r5, r6, r7, pc}
.Ltmp329:
.Lfunc_end34:
	.size	I2C_ReadByte, .Lfunc_end34-I2C_ReadByte
	.cfi_endproc
	.cantunwind
	.fnend
                                        @ -- End function
	.section	.text.I2C_ReadMultiBytes,"ax",%progbits
	.hidden	I2C_ReadMultiBytes              @ -- Begin function I2C_ReadMultiBytes
	.globl	I2C_ReadMultiBytes
	.p2align	2
	.type	I2C_ReadMultiBytes,%function
	.code	16                              @ @I2C_ReadMultiBytes
	.thumb_func
I2C_ReadMultiBytes:
.Lfunc_begin35:
	.loc	4 1093 0                        @ ../../Library/StdDriver/src/i2c.c:1093:0
	.fnstart
	.cfi_startproc
@ %bb.0:
	@DEBUG_VALUE: I2C_ReadMultiBytes:i2c <- $r0
	@DEBUG_VALUE: I2C_ReadMultiBytes:u8SlaveAddr <- $r1
	@DEBUG_VALUE: I2C_ReadMultiBytes:au8Rdata <- $r2
	@DEBUG_VALUE: I2C_ReadMultiBytes:u32rLen <- $r3
	.save	{r4, r5, r6, r7, lr}
	push	{r4, r5, r6, r7, lr}
	.cfi_def_cfa_offset 20
	.cfi_offset lr, -4
	.cfi_offset r7, -8
	.cfi_offset r6, -12
	.cfi_offset r5, -16
	.cfi_offset r4, -20
	.pad	#16
	sub	sp, #16
	.cfi_def_cfa_offset 36
	str	r2, [sp, #8]                    @ 4-byte Spill
.Ltmp330:
	@DEBUG_VALUE: I2C_ReadMultiBytes:u32rxLen <- 0
	@DEBUG_VALUE: I2C_ReadMultiBytes:u8Ctrl <- 0
	@DEBUG_VALUE: I2C_ReadMultiBytes:u8Err <- 0
	@DEBUG_VALUE: I2C_ReadMultiBytes:u8Xfering <- 1
	@DEBUG_VALUE: I2C_ReadMultiBytes:u32rLen <- $r3
	@DEBUG_VALUE: I2C_ReadMultiBytes:au8Rdata <- [DW_OP_plus_uconst 8] [$sp+0]
	@DEBUG_VALUE: I2C_ReadMultiBytes:u8SlaveAddr <- $r1
	@DEBUG_VALUE: I2C_ReadMultiBytes:i2c <- $r0
	.loc	4 1097 5 prologue_end           @ ../../Library/StdDriver/src/i2c.c:1097:5
	ldr	r4, [r0]
	movs	r5, #40
	orrs	r5, r4
	str	r5, [r0]
.Ltmp331:
	.loc	4 0 0 is_stmt 0                 @ ../../Library/StdDriver/src/i2c.c:0:0
	subs	r2, r3, #1
.Ltmp332:
	str	r2, [sp, #4]                    @ 4-byte Spill
	lsls	r1, r1, #1
.Ltmp333:
	@DEBUG_VALUE: I2C_ReadMultiBytes:u8SlaveAddr <- [DW_OP_LLVM_entry_value 1] $r1
	adds	r1, r1, #1
	uxtb	r1, r1
	str	r1, [sp]                        @ 4-byte Spill
	movs	r6, #1
	movs	r1, #0
	movs	r2, #3
	str	r2, [sp, #12]                   @ 4-byte Spill
	mov	r7, r1
.Ltmp334:
	@DEBUG_VALUE: I2C_ReadMultiBytes:u8Xfering <- $r6
	@DEBUG_VALUE: I2C_ReadMultiBytes:u8Err <- $r7
	@DEBUG_VALUE: I2C_ReadMultiBytes:u32rxLen <- $r1
.LBB35_1:                               @ =>This Inner Loop Header: Depth=1
	@DEBUG_VALUE: I2C_ReadMultiBytes:u8Err <- $r7
	@DEBUG_VALUE: I2C_ReadMultiBytes:u8Xfering <- $r6
	@DEBUG_VALUE: I2C_ReadMultiBytes:u32rxLen <- $r1
	@DEBUG_VALUE: I2C_ReadMultiBytes:i2c <- $r0
	@DEBUG_VALUE: I2C_ReadMultiBytes:au8Rdata <- [DW_OP_plus_uconst 8] [$sp+0]
	@DEBUG_VALUE: I2C_ReadMultiBytes:u8SlaveAddr <- [DW_OP_LLVM_entry_value 1] $r1
	.loc	4 1100 9 is_stmt 1              @ ../../Library/StdDriver/src/i2c.c:1100:9
	ldr	r3, [r0]
.Ltmp335:
	@DEBUG_VALUE: I2C_ReadMultiBytes:u32rLen <- [DW_OP_LLVM_entry_value 1] $r3
	lsls	r3, r3, #28
	bpl	.LBB35_1
.Ltmp336:
@ %bb.2:                                @   in Loop: Header=BB35_1 Depth=1
	@DEBUG_VALUE: I2C_ReadMultiBytes:u8Err <- $r7
	@DEBUG_VALUE: I2C_ReadMultiBytes:u8Xfering <- $r6
	@DEBUG_VALUE: I2C_ReadMultiBytes:u32rxLen <- $r1
	@DEBUG_VALUE: I2C_ReadMultiBytes:i2c <- $r0
	@DEBUG_VALUE: I2C_ReadMultiBytes:au8Rdata <- [DW_OP_plus_uconst 8] [$sp+0]
	@DEBUG_VALUE: I2C_ReadMultiBytes:u8SlaveAddr <- [DW_OP_LLVM_entry_value 1] $r1
	.loc	4 1101 16                       @ ../../Library/StdDriver/src/i2c.c:1101:16
	ldr	r4, [r0, #12]
	.loc	4 1101 9 is_stmt 0              @ ../../Library/StdDriver/src/i2c.c:1101:9
	subs	r4, #8
	ldr	r2, [sp, #12]                   @ 4-byte Reload
	rors	r4, r2
	cmp	r4, #10
	bhi	.LBB35_5
.Ltmp337:
@ %bb.3:                                @   in Loop: Header=BB35_1 Depth=1
	@DEBUG_VALUE: I2C_ReadMultiBytes:u8Err <- $r7
	@DEBUG_VALUE: I2C_ReadMultiBytes:u8Xfering <- $r6
	@DEBUG_VALUE: I2C_ReadMultiBytes:u32rxLen <- $r1
	@DEBUG_VALUE: I2C_ReadMultiBytes:i2c <- $r0
	@DEBUG_VALUE: I2C_ReadMultiBytes:au8Rdata <- [DW_OP_plus_uconst 8] [$sp+0]
	@DEBUG_VALUE: I2C_ReadMultiBytes:u8SlaveAddr <- [DW_OP_LLVM_entry_value 1] $r1
	.loc	4 0 9                           @ ../../Library/StdDriver/src/i2c.c:0:9
	movs	r3, #12
	lsls	r5, r4, #2
	adr	r2, .LJTI35_0
	adds	r2, r2, r5
	mov	pc, r2
.Ltmp338:
@ %bb.4:
	.p2align	2
.LJTI35_0:
	b.w	.LBB35_6
	b.w	.LBB35_5
	b.w	.LBB35_5
	b.w	.LBB35_5
	b.w	.LBB35_5
	b.w	.LBB35_5
	b.w	.LBB35_5
	b.w	.LBB35_11
	b.w	.LBB35_5
	b.w	.LBB35_7
	b.w	.LBB35_9
.LBB35_5:                               @   in Loop: Header=BB35_1 Depth=1
.Ltmp339:
	@DEBUG_VALUE: I2C_ReadMultiBytes:u8Err <- $r7
	@DEBUG_VALUE: I2C_ReadMultiBytes:u8Xfering <- $r6
	@DEBUG_VALUE: I2C_ReadMultiBytes:u32rxLen <- $r1
	@DEBUG_VALUE: I2C_ReadMultiBytes:i2c <- $r0
	@DEBUG_VALUE: I2C_ReadMultiBytes:au8Rdata <- [DW_OP_plus_uconst 8] [$sp+0]
	@DEBUG_VALUE: I2C_ReadMultiBytes:u8SlaveAddr <- [DW_OP_LLVM_entry_value 1] $r1
	movs	r3, #24
	movs	r7, #1
.Ltmp340:
	@DEBUG_VALUE: I2C_ReadMultiBytes:u8Ctrl <- 24
	@DEBUG_VALUE: I2C_ReadMultiBytes:u8Err <- 1
	b	.LBB35_11
.Ltmp341:
.LBB35_6:                               @   in Loop: Header=BB35_1 Depth=1
	@DEBUG_VALUE: I2C_ReadMultiBytes:u8Err <- $r7
	@DEBUG_VALUE: I2C_ReadMultiBytes:u8Xfering <- $r6
	@DEBUG_VALUE: I2C_ReadMultiBytes:u32rxLen <- $r1
	@DEBUG_VALUE: I2C_ReadMultiBytes:i2c <- $r0
	@DEBUG_VALUE: I2C_ReadMultiBytes:au8Rdata <- [DW_OP_plus_uconst 8] [$sp+0]
	@DEBUG_VALUE: I2C_ReadMultiBytes:u8SlaveAddr <- [DW_OP_LLVM_entry_value 1] $r1
	.loc	4 1104 17 is_stmt 1             @ ../../Library/StdDriver/src/i2c.c:1104:17
	ldr	r2, [sp]                        @ 4-byte Reload
	str	r2, [r0, #8]
	movs	r3, #8
.Ltmp342:
	@DEBUG_VALUE: I2C_ReadMultiBytes:u8Ctrl <- 8
	.loc	4 0 17 is_stmt 0                @ ../../Library/StdDriver/src/i2c.c:0:17
	b	.LBB35_11
.Ltmp343:
.LBB35_7:                               @   in Loop: Header=BB35_1 Depth=1
	@DEBUG_VALUE: I2C_ReadMultiBytes:u8Err <- $r7
	@DEBUG_VALUE: I2C_ReadMultiBytes:u8Xfering <- $r6
	@DEBUG_VALUE: I2C_ReadMultiBytes:u32rxLen <- $r1
	@DEBUG_VALUE: I2C_ReadMultiBytes:i2c <- $r0
	@DEBUG_VALUE: I2C_ReadMultiBytes:au8Rdata <- [DW_OP_plus_uconst 8] [$sp+0]
	@DEBUG_VALUE: I2C_ReadMultiBytes:u8SlaveAddr <- [DW_OP_LLVM_entry_value 1] $r1
	.loc	4 1115 56 is_stmt 1             @ ../../Library/StdDriver/src/i2c.c:1115:56
	ldr	r2, [r0, #8]
	.loc	4 1115 38 is_stmt 0             @ ../../Library/StdDriver/src/i2c.c:1115:38
	ldr	r3, [sp, #8]                    @ 4-byte Reload
	strb	r2, [r3, r1]
	.loc	4 1115 34                       @ ../../Library/StdDriver/src/i2c.c:1115:34
	adds	r1, r1, #1
.Ltmp344:
	@DEBUG_VALUE: I2C_ReadMultiBytes:u32rxLen <- $r1
	.loc	4 1116 20 is_stmt 1             @ ../../Library/StdDriver/src/i2c.c:1116:20
	ldr	r2, [sp, #4]                    @ 4-byte Reload
	cmp	r1, r2
	blo	.LBB35_10
.Ltmp345:
@ %bb.8:                                @   in Loop: Header=BB35_1 Depth=1
	@DEBUG_VALUE: I2C_ReadMultiBytes:u8Err <- $r7
	@DEBUG_VALUE: I2C_ReadMultiBytes:u8Xfering <- $r6
	@DEBUG_VALUE: I2C_ReadMultiBytes:u32rxLen <- $r1
	@DEBUG_VALUE: I2C_ReadMultiBytes:i2c <- $r0
	@DEBUG_VALUE: I2C_ReadMultiBytes:au8Rdata <- [DW_OP_plus_uconst 8] [$sp+0]
	@DEBUG_VALUE: I2C_ReadMultiBytes:u8SlaveAddr <- [DW_OP_LLVM_entry_value 1] $r1
	.loc	4 0 20 is_stmt 0                @ ../../Library/StdDriver/src/i2c.c:0:20
	movs	r3, #8
	b	.LBB35_11
.Ltmp346:
.LBB35_9:                               @   in Loop: Header=BB35_1 Depth=1
	@DEBUG_VALUE: I2C_ReadMultiBytes:u8Err <- $r7
	@DEBUG_VALUE: I2C_ReadMultiBytes:u8Xfering <- $r6
	@DEBUG_VALUE: I2C_ReadMultiBytes:u32rxLen <- $r1
	@DEBUG_VALUE: I2C_ReadMultiBytes:i2c <- $r0
	@DEBUG_VALUE: I2C_ReadMultiBytes:au8Rdata <- [DW_OP_plus_uconst 8] [$sp+0]
	@DEBUG_VALUE: I2C_ReadMultiBytes:u8SlaveAddr <- [DW_OP_LLVM_entry_value 1] $r1
	.loc	4 1126 56 is_stmt 1             @ ../../Library/StdDriver/src/i2c.c:1126:56
	ldr	r2, [r0, #8]
	.loc	4 1126 38 is_stmt 0             @ ../../Library/StdDriver/src/i2c.c:1126:38
	ldr	r3, [sp, #8]                    @ 4-byte Reload
	strb	r2, [r3, r1]
	.loc	4 1126 34                       @ ../../Library/StdDriver/src/i2c.c:1126:34
	adds	r1, r1, #1
.Ltmp347:
	@DEBUG_VALUE: I2C_ReadMultiBytes:u32rxLen <- $r1
	.loc	4 0 34                          @ ../../Library/StdDriver/src/i2c.c:0:34
	movs	r3, #24
	movs	r6, #0
.Ltmp348:
	@DEBUG_VALUE: I2C_ReadMultiBytes:u8Ctrl <- 24
	@DEBUG_VALUE: I2C_ReadMultiBytes:u8Xfering <- 0
	b	.LBB35_11
.Ltmp349:
.LBB35_10:                              @   in Loop: Header=BB35_1 Depth=1
	@DEBUG_VALUE: I2C_ReadMultiBytes:u8Err <- $r7
	@DEBUG_VALUE: I2C_ReadMultiBytes:u8Xfering <- $r6
	@DEBUG_VALUE: I2C_ReadMultiBytes:u32rxLen <- $r1
	@DEBUG_VALUE: I2C_ReadMultiBytes:i2c <- $r0
	@DEBUG_VALUE: I2C_ReadMultiBytes:au8Rdata <- [DW_OP_plus_uconst 8] [$sp+0]
	@DEBUG_VALUE: I2C_ReadMultiBytes:u8SlaveAddr <- [DW_OP_LLVM_entry_value 1] $r1
	movs	r3, #12
.Ltmp350:
.LBB35_11:                              @   in Loop: Header=BB35_1 Depth=1
	@DEBUG_VALUE: I2C_ReadMultiBytes:u32rxLen <- $r1
	@DEBUG_VALUE: I2C_ReadMultiBytes:i2c <- $r0
	@DEBUG_VALUE: I2C_ReadMultiBytes:au8Rdata <- [DW_OP_plus_uconst 8] [$sp+0]
	@DEBUG_VALUE: I2C_ReadMultiBytes:u8SlaveAddr <- [DW_OP_LLVM_entry_value 1] $r1
	@DEBUG_VALUE: I2C_ReadMultiBytes:u8Xfering <- $r6
	@DEBUG_VALUE: I2C_ReadMultiBytes:u8Err <- $r7
	@DEBUG_VALUE: I2C_ReadMultiBytes:u8Ctrl <- undef
	@DEBUG_VALUE: I2C_ReadMultiBytes:u32rxLen <- $r1
	.loc	4 1136 9 is_stmt 1              @ ../../Library/StdDriver/src/i2c.c:1136:9
	ldr	r2, [r0]
	movs	r4, #60
	bics	r2, r4
	orrs	r2, r3
	str	r2, [r0]
.Ltmp351:
	.loc	4 1098 5                        @ ../../Library/StdDriver/src/i2c.c:1098:5
	cbz	r6, .LBB35_13
.Ltmp352:
@ %bb.12:                               @   in Loop: Header=BB35_1 Depth=1
	@DEBUG_VALUE: I2C_ReadMultiBytes:u8Err <- $r7
	@DEBUG_VALUE: I2C_ReadMultiBytes:u8Xfering <- $r6
	@DEBUG_VALUE: I2C_ReadMultiBytes:u32rxLen <- $r1
	@DEBUG_VALUE: I2C_ReadMultiBytes:i2c <- $r0
	@DEBUG_VALUE: I2C_ReadMultiBytes:au8Rdata <- [DW_OP_plus_uconst 8] [$sp+0]
	@DEBUG_VALUE: I2C_ReadMultiBytes:u8SlaveAddr <- [DW_OP_LLVM_entry_value 1] $r1
	cmp	r7, #0
	beq	.LBB35_1
.Ltmp353:
.LBB35_13:
	@DEBUG_VALUE: I2C_ReadMultiBytes:u8Err <- $r7
	@DEBUG_VALUE: I2C_ReadMultiBytes:u8Xfering <- $r6
	@DEBUG_VALUE: I2C_ReadMultiBytes:u32rxLen <- $r1
	@DEBUG_VALUE: I2C_ReadMultiBytes:i2c <- $r0
	@DEBUG_VALUE: I2C_ReadMultiBytes:au8Rdata <- [DW_OP_plus_uconst 8] [$sp+0]
	@DEBUG_VALUE: I2C_ReadMultiBytes:u8SlaveAddr <- [DW_OP_LLVM_entry_value 1] $r1
	@DEBUG_VALUE: I2C_ReadMultiBytes:u32rxLen <- $r1
	.loc	4 1138 5                        @ ../../Library/StdDriver/src/i2c.c:1138:5
	mov	r0, r1
.Ltmp354:
	@DEBUG_VALUE: I2C_ReadMultiBytes:i2c <- [DW_OP_LLVM_entry_value 1] $r0
	@DEBUG_VALUE: I2C_ReadMultiBytes:i2c <- [DW_OP_LLVM_entry_value 1] $r0
	add	sp, #16
.Ltmp355:
	pop	{r4, r5, r6, r7, pc}
.Ltmp356:
.Lfunc_end35:
	.size	I2C_ReadMultiBytes, .Lfunc_end35-I2C_ReadMultiBytes
	.cfi_endproc
	.cantunwind
	.fnend
                                        @ -- End function
	.section	.text.I2C_ReadByteOneReg,"ax",%progbits
	.hidden	I2C_ReadByteOneReg              @ -- Begin function I2C_ReadByteOneReg
	.globl	I2C_ReadByteOneReg
	.p2align	2
	.type	I2C_ReadByteOneReg,%function
	.code	16                              @ @I2C_ReadByteOneReg
	.thumb_func
I2C_ReadByteOneReg:
.Lfunc_begin36:
	.loc	4 1156 0                        @ ../../Library/StdDriver/src/i2c.c:1156:0
	.fnstart
	.cfi_startproc
@ %bb.0:
	@DEBUG_VALUE: I2C_ReadByteOneReg:i2c <- $r0
	@DEBUG_VALUE: I2C_ReadByteOneReg:u8SlaveAddr <- $r1
	@DEBUG_VALUE: I2C_ReadByteOneReg:u8DataAddr <- $r2
	.save	{r4, r5, r6, r7, lr}
	push	{r4, r5, r6, r7, lr}
	.cfi_def_cfa_offset 20
	.cfi_offset lr, -4
	.cfi_offset r7, -8
	.cfi_offset r6, -12
	.cfi_offset r5, -16
	.cfi_offset r4, -20
	.pad	#24
	sub	sp, #24
	.cfi_def_cfa_offset 44
	str	r2, [sp, #12]                   @ 4-byte Spill
.Ltmp357:
	@DEBUG_VALUE: I2C_ReadByteOneReg:u8Ctrl <- 0
	@DEBUG_VALUE: I2C_ReadByteOneReg:u8Rdata <- 0
	@DEBUG_VALUE: I2C_ReadByteOneReg:u8Err <- 0
	@DEBUG_VALUE: I2C_ReadByteOneReg:u8Xfering <- 1
	@DEBUG_VALUE: I2C_ReadByteOneReg:u8DataAddr <- [DW_OP_plus_uconst 12] [$sp+0]
	@DEBUG_VALUE: I2C_ReadByteOneReg:u8SlaveAddr <- $r1
	@DEBUG_VALUE: I2C_ReadByteOneReg:i2c <- $r0
	.loc	4 1159 5 prologue_end           @ ../../Library/StdDriver/src/i2c.c:1159:5
	ldr	r2, [r0]
	movs	r3, #40
	str	r3, [sp, #8]                    @ 4-byte Spill
	orrs	r2, r3
	str	r2, [r0]
.Ltmp358:
	.loc	4 0 0 is_stmt 0                 @ ../../Library/StdDriver/src/i2c.c:0:0
	lsls	r1, r1, #1
.Ltmp359:
	@DEBUG_VALUE: I2C_ReadByteOneReg:u8SlaveAddr <- [DW_OP_LLVM_entry_value 1] $r1
	uxtb	r2, r1
	str	r2, [sp, #4]                    @ 4-byte Spill
	adds	r1, r1, #1
	uxtb	r1, r1
	str	r1, [sp]                        @ 4-byte Spill
	movs	r1, #1
	str	r1, [sp, #20]                   @ 4-byte Spill
	movs	r7, #0
	str	r7, [sp, #16]                   @ 4-byte Spill
	mov	r1, r7
.Ltmp360:
	@DEBUG_VALUE: I2C_ReadByteOneReg:u8Xfering <- [DW_OP_plus_uconst 20] [$sp+0]
	@DEBUG_VALUE: I2C_ReadByteOneReg:u8Err <- $r1
	@DEBUG_VALUE: I2C_ReadByteOneReg:u8Rdata <- [DW_OP_plus_uconst 16] [$sp+0]
	@DEBUG_VALUE: I2C_ReadByteOneReg:u8Ctrl <- $r7
.LBB36_1:                               @ =>This Inner Loop Header: Depth=1
	@DEBUG_VALUE: I2C_ReadByteOneReg:u8Ctrl <- $r7
	@DEBUG_VALUE: I2C_ReadByteOneReg:i2c <- $r0
	@DEBUG_VALUE: I2C_ReadByteOneReg:u8Rdata <- [DW_OP_plus_uconst 16] [$sp+0]
	@DEBUG_VALUE: I2C_ReadByteOneReg:u8Xfering <- [DW_OP_plus_uconst 20] [$sp+0]
	@DEBUG_VALUE: I2C_ReadByteOneReg:u8DataAddr <- [DW_OP_plus_uconst 12] [$sp+0]
	@DEBUG_VALUE: I2C_ReadByteOneReg:u8SlaveAddr <- [DW_OP_LLVM_entry_value 1] $r1
	.loc	4 1162 9 is_stmt 1              @ ../../Library/StdDriver/src/i2c.c:1162:9
	ldr	r2, [r0]
	lsls	r2, r2, #28
	bpl	.LBB36_1
.Ltmp361:
@ %bb.2:                                @   in Loop: Header=BB36_1 Depth=1
	@DEBUG_VALUE: I2C_ReadByteOneReg:u8Ctrl <- $r7
	@DEBUG_VALUE: I2C_ReadByteOneReg:i2c <- $r0
	@DEBUG_VALUE: I2C_ReadByteOneReg:u8Rdata <- [DW_OP_plus_uconst 16] [$sp+0]
	@DEBUG_VALUE: I2C_ReadByteOneReg:u8Xfering <- [DW_OP_plus_uconst 20] [$sp+0]
	@DEBUG_VALUE: I2C_ReadByteOneReg:u8DataAddr <- [DW_OP_plus_uconst 12] [$sp+0]
	@DEBUG_VALUE: I2C_ReadByteOneReg:u8SlaveAddr <- [DW_OP_LLVM_entry_value 1] $r1
	.loc	4 1163 16                       @ ../../Library/StdDriver/src/i2c.c:1163:16
	ldr	r5, [r0, #12]
	.loc	4 1163 9 is_stmt 0              @ ../../Library/StdDriver/src/i2c.c:1163:9
	subs	r5, #8
	movs	r2, #3
	rors	r5, r2
	movs	r3, #24
	movs	r2, #1
	cmp	r5, #10
	bhi	.LBB36_13
.Ltmp362:
@ %bb.3:                                @   in Loop: Header=BB36_1 Depth=1
	@DEBUG_VALUE: I2C_ReadByteOneReg:u8Ctrl <- $r7
	@DEBUG_VALUE: I2C_ReadByteOneReg:i2c <- $r0
	@DEBUG_VALUE: I2C_ReadByteOneReg:u8Rdata <- [DW_OP_plus_uconst 16] [$sp+0]
	@DEBUG_VALUE: I2C_ReadByteOneReg:u8Xfering <- [DW_OP_plus_uconst 20] [$sp+0]
	@DEBUG_VALUE: I2C_ReadByteOneReg:u8DataAddr <- [DW_OP_plus_uconst 12] [$sp+0]
	@DEBUG_VALUE: I2C_ReadByteOneReg:u8SlaveAddr <- [DW_OP_LLVM_entry_value 1] $r1
	.loc	4 0 9                           @ ../../Library/StdDriver/src/i2c.c:0:9
	lsls	r4, r5, #2
	adr	r6, .LJTI36_0
	adds	r4, r6, r4
	mov	pc, r4
.Ltmp363:
@ %bb.4:
	.p2align	2
.LJTI36_0:
	b.w	.LBB36_5
	b.w	.LBB36_6
	b.w	.LBB36_9
	b.w	.LBB36_13
	b.w	.LBB36_10
	b.w	.LBB36_13
	b.w	.LBB36_13
	b.w	.LBB36_8
	b.w	.LBB36_13
	b.w	.LBB36_13
	b.w	.LBB36_11
.LBB36_5:                               @   in Loop: Header=BB36_1 Depth=1
.Ltmp364:
	@DEBUG_VALUE: I2C_ReadByteOneReg:u8Ctrl <- $r7
	@DEBUG_VALUE: I2C_ReadByteOneReg:i2c <- $r0
	@DEBUG_VALUE: I2C_ReadByteOneReg:u8Rdata <- [DW_OP_plus_uconst 16] [$sp+0]
	@DEBUG_VALUE: I2C_ReadByteOneReg:u8Xfering <- [DW_OP_plus_uconst 20] [$sp+0]
	@DEBUG_VALUE: I2C_ReadByteOneReg:u8DataAddr <- [DW_OP_plus_uconst 12] [$sp+0]
	@DEBUG_VALUE: I2C_ReadByteOneReg:u8SlaveAddr <- [DW_OP_LLVM_entry_value 1] $r1
	.loc	4 1166 17 is_stmt 1             @ ../../Library/StdDriver/src/i2c.c:1166:17
	ldr	r2, [sp, #4]                    @ 4-byte Reload
	b	.LBB36_7
.Ltmp365:
.LBB36_6:                               @   in Loop: Header=BB36_1 Depth=1
	@DEBUG_VALUE: I2C_ReadByteOneReg:u8Ctrl <- $r7
	@DEBUG_VALUE: I2C_ReadByteOneReg:i2c <- $r0
	@DEBUG_VALUE: I2C_ReadByteOneReg:u8Rdata <- [DW_OP_plus_uconst 16] [$sp+0]
	@DEBUG_VALUE: I2C_ReadByteOneReg:u8Xfering <- [DW_OP_plus_uconst 20] [$sp+0]
	@DEBUG_VALUE: I2C_ReadByteOneReg:u8DataAddr <- [DW_OP_plus_uconst 12] [$sp+0]
	@DEBUG_VALUE: I2C_ReadByteOneReg:u8SlaveAddr <- [DW_OP_LLVM_entry_value 1] $r1
	.loc	4 1181 17                       @ ../../Library/StdDriver/src/i2c.c:1181:17
	ldr	r2, [sp]                        @ 4-byte Reload
.Ltmp366:
.LBB36_7:                               @   in Loop: Header=BB36_1 Depth=1
	@DEBUG_VALUE: I2C_ReadByteOneReg:u8Ctrl <- $r7
	@DEBUG_VALUE: I2C_ReadByteOneReg:i2c <- $r0
	@DEBUG_VALUE: I2C_ReadByteOneReg:u8Rdata <- [DW_OP_plus_uconst 16] [$sp+0]
	@DEBUG_VALUE: I2C_ReadByteOneReg:u8Xfering <- [DW_OP_plus_uconst 20] [$sp+0]
	@DEBUG_VALUE: I2C_ReadByteOneReg:u8DataAddr <- [DW_OP_plus_uconst 12] [$sp+0]
	@DEBUG_VALUE: I2C_ReadByteOneReg:u8SlaveAddr <- [DW_OP_LLVM_entry_value 1] $r1
	.loc	4 0 0 is_stmt 0                 @ ../../Library/StdDriver/src/i2c.c:0:0
	str	r2, [r0, #8]
.Ltmp367:
.LBB36_8:                               @   in Loop: Header=BB36_1 Depth=1
	@DEBUG_VALUE: I2C_ReadByteOneReg:u8Ctrl <- $r7
	@DEBUG_VALUE: I2C_ReadByteOneReg:i2c <- $r0
	@DEBUG_VALUE: I2C_ReadByteOneReg:u8Rdata <- [DW_OP_plus_uconst 16] [$sp+0]
	@DEBUG_VALUE: I2C_ReadByteOneReg:u8Xfering <- [DW_OP_plus_uconst 20] [$sp+0]
	@DEBUG_VALUE: I2C_ReadByteOneReg:u8DataAddr <- [DW_OP_plus_uconst 12] [$sp+0]
	@DEBUG_VALUE: I2C_ReadByteOneReg:u8SlaveAddr <- [DW_OP_LLVM_entry_value 1] $r1
	@DEBUG_VALUE: I2C_ReadByteOneReg:u8Ctrl <- 8
	movs	r3, #8
	b	.LBB36_12
.Ltmp368:
.LBB36_9:                               @   in Loop: Header=BB36_1 Depth=1
	@DEBUG_VALUE: I2C_ReadByteOneReg:u8Ctrl <- $r7
	@DEBUG_VALUE: I2C_ReadByteOneReg:i2c <- $r0
	@DEBUG_VALUE: I2C_ReadByteOneReg:u8Rdata <- [DW_OP_plus_uconst 16] [$sp+0]
	@DEBUG_VALUE: I2C_ReadByteOneReg:u8Xfering <- [DW_OP_plus_uconst 20] [$sp+0]
	@DEBUG_VALUE: I2C_ReadByteOneReg:u8DataAddr <- [DW_OP_plus_uconst 12] [$sp+0]
	@DEBUG_VALUE: I2C_ReadByteOneReg:u8SlaveAddr <- [DW_OP_LLVM_entry_value 1] $r1
	.loc	4 1170 17 is_stmt 1             @ ../../Library/StdDriver/src/i2c.c:1170:17
	ldr	r2, [sp, #12]                   @ 4-byte Reload
	str	r2, [r0, #8]
.Ltmp369:
	.loc	4 0 0 is_stmt 0                 @ ../../Library/StdDriver/src/i2c.c:0:0
	mov	r2, r1
	mov	r3, r7
	b	.LBB36_13
.Ltmp370:
.LBB36_10:                              @   in Loop: Header=BB36_1 Depth=1
	@DEBUG_VALUE: I2C_ReadByteOneReg:u8Ctrl <- $r7
	@DEBUG_VALUE: I2C_ReadByteOneReg:i2c <- $r0
	@DEBUG_VALUE: I2C_ReadByteOneReg:u8Rdata <- [DW_OP_plus_uconst 16] [$sp+0]
	@DEBUG_VALUE: I2C_ReadByteOneReg:u8Xfering <- [DW_OP_plus_uconst 20] [$sp+0]
	@DEBUG_VALUE: I2C_ReadByteOneReg:u8DataAddr <- [DW_OP_plus_uconst 12] [$sp+0]
	@DEBUG_VALUE: I2C_ReadByteOneReg:u8SlaveAddr <- [DW_OP_LLVM_entry_value 1] $r1
	@DEBUG_VALUE: I2C_ReadByteOneReg:u8Ctrl <- 40
	mov	r2, r1
	ldr	r3, [sp, #8]                    @ 4-byte Reload
	b	.LBB36_13
.Ltmp371:
.LBB36_11:                              @   in Loop: Header=BB36_1 Depth=1
	@DEBUG_VALUE: I2C_ReadByteOneReg:u8Ctrl <- $r7
	@DEBUG_VALUE: I2C_ReadByteOneReg:i2c <- $r0
	@DEBUG_VALUE: I2C_ReadByteOneReg:u8Rdata <- [DW_OP_plus_uconst 16] [$sp+0]
	@DEBUG_VALUE: I2C_ReadByteOneReg:u8Xfering <- [DW_OP_plus_uconst 20] [$sp+0]
	@DEBUG_VALUE: I2C_ReadByteOneReg:u8DataAddr <- [DW_OP_plus_uconst 12] [$sp+0]
	@DEBUG_VALUE: I2C_ReadByteOneReg:u8SlaveAddr <- [DW_OP_LLVM_entry_value 1] $r1
	.loc	4 1192 37 is_stmt 1             @ ../../Library/StdDriver/src/i2c.c:1192:37
	ldr	r2, [r0, #8]
	str	r2, [sp, #16]                   @ 4-byte Spill
	movs	r2, #0
.Ltmp372:
	@DEBUG_VALUE: I2C_ReadByteOneReg:u8Ctrl <- 24
	@DEBUG_VALUE: I2C_ReadByteOneReg:u8Rdata <- undef
	@DEBUG_VALUE: I2C_ReadByteOneReg:u8Xfering <- 0
	.loc	4 0 0 is_stmt 0                 @ ../../Library/StdDriver/src/i2c.c:0:0
	str	r2, [sp, #20]                   @ 4-byte Spill
.Ltmp373:
.LBB36_12:                              @   in Loop: Header=BB36_1 Depth=1
	@DEBUG_VALUE: I2C_ReadByteOneReg:i2c <- $r0
	@DEBUG_VALUE: I2C_ReadByteOneReg:u8DataAddr <- [DW_OP_plus_uconst 12] [$sp+0]
	@DEBUG_VALUE: I2C_ReadByteOneReg:u8SlaveAddr <- [DW_OP_LLVM_entry_value 1] $r1
	mov	r2, r1
.Ltmp374:
.LBB36_13:                              @   in Loop: Header=BB36_1 Depth=1
	@DEBUG_VALUE: I2C_ReadByteOneReg:i2c <- $r0
	@DEBUG_VALUE: I2C_ReadByteOneReg:u8DataAddr <- [DW_OP_plus_uconst 12] [$sp+0]
	@DEBUG_VALUE: I2C_ReadByteOneReg:u8SlaveAddr <- [DW_OP_LLVM_entry_value 1] $r1
	@DEBUG_VALUE: I2C_ReadByteOneReg:u8Xfering <- [DW_OP_plus_uconst 20] [$sp+0]
	@DEBUG_VALUE: I2C_ReadByteOneReg:u8Err <- $r2
	@DEBUG_VALUE: I2C_ReadByteOneReg:u8Rdata <- [DW_OP_plus_uconst 16] [$sp+0]
	@DEBUG_VALUE: I2C_ReadByteOneReg:u8Ctrl <- $r3
	.loc	4 1202 9 is_stmt 1              @ ../../Library/StdDriver/src/i2c.c:1202:9
	ldr	r1, [r0]
	movs	r4, #60
	bics	r1, r4
	uxtb	r4, r3
	orrs	r4, r1
	str	r4, [r0]
.Ltmp375:
	.loc	4 1160 5                        @ ../../Library/StdDriver/src/i2c.c:1160:5
	ldr	r1, [sp, #20]                   @ 4-byte Reload
.Ltmp376:
	@DEBUG_VALUE: I2C_ReadByteOneReg:u8Xfering <- $r1
	@DEBUG_VALUE: I2C_ReadByteOneReg:u8Xfering <- [DW_OP_plus_uconst 20] [$sp+0]
	cbz	r1, .LBB36_15
.Ltmp377:
@ %bb.14:                               @   in Loop: Header=BB36_1 Depth=1
	@DEBUG_VALUE: I2C_ReadByteOneReg:u8Ctrl <- $r3
	@DEBUG_VALUE: I2C_ReadByteOneReg:u8Err <- $r2
	@DEBUG_VALUE: I2C_ReadByteOneReg:i2c <- $r0
	@DEBUG_VALUE: I2C_ReadByteOneReg:u8Rdata <- [DW_OP_plus_uconst 16] [$sp+0]
	@DEBUG_VALUE: I2C_ReadByteOneReg:u8Xfering <- [DW_OP_plus_uconst 20] [$sp+0]
	@DEBUG_VALUE: I2C_ReadByteOneReg:u8DataAddr <- [DW_OP_plus_uconst 12] [$sp+0]
	@DEBUG_VALUE: I2C_ReadByteOneReg:u8SlaveAddr <- [DW_OP_LLVM_entry_value 1] $r1
	cmp	r2, #0
	mov	r7, r3
.Ltmp378:
	@DEBUG_VALUE: I2C_ReadByteOneReg:u8Ctrl <- $r7
	.loc	4 0 5 is_stmt 0                 @ ../../Library/StdDriver/src/i2c.c:0:5
	mov	r1, r2
	.loc	4 1160 5                        @ ../../Library/StdDriver/src/i2c.c:1160:5
	beq	.LBB36_1
.Ltmp379:
.LBB36_15:
	@DEBUG_VALUE: I2C_ReadByteOneReg:u8Err <- $r2
	@DEBUG_VALUE: I2C_ReadByteOneReg:i2c <- $r0
	@DEBUG_VALUE: I2C_ReadByteOneReg:u8Rdata <- [DW_OP_plus_uconst 16] [$sp+0]
	@DEBUG_VALUE: I2C_ReadByteOneReg:u8Xfering <- [DW_OP_plus_uconst 20] [$sp+0]
	@DEBUG_VALUE: I2C_ReadByteOneReg:u8DataAddr <- [DW_OP_plus_uconst 12] [$sp+0]
	@DEBUG_VALUE: I2C_ReadByteOneReg:u8SlaveAddr <- [DW_OP_LLVM_entry_value 1] $r1
	@DEBUG_VALUE: I2C_ReadByteOneReg:u8Rdata <- [DW_OP_plus_uconst 16] [$sp+0]
	.loc	4 0 5                           @ ../../Library/StdDriver/src/i2c.c:0:5
	ldr	r0, [sp, #16]                   @ 4-byte Reload
.Ltmp380:
	@DEBUG_VALUE: I2C_ReadByteOneReg:i2c <- [DW_OP_LLVM_entry_value 1] $r0
	@DEBUG_VALUE: I2C_ReadByteOneReg:u8Rdata <- $r0
	.loc	4 1204 8 is_stmt 1              @ ../../Library/StdDriver/src/i2c.c:1204:8
	cbz	r2, .LBB36_17
.Ltmp381:
@ %bb.16:
	@DEBUG_VALUE: I2C_ReadByteOneReg:u8Err <- $r2
	@DEBUG_VALUE: I2C_ReadByteOneReg:u8Rdata <- $r0
	@DEBUG_VALUE: I2C_ReadByteOneReg:u8Xfering <- [DW_OP_plus_uconst 20] [$sp+0]
	@DEBUG_VALUE: I2C_ReadByteOneReg:u8DataAddr <- [DW_OP_plus_uconst 12] [$sp+0]
	@DEBUG_VALUE: I2C_ReadByteOneReg:i2c <- [DW_OP_LLVM_entry_value 1] $r0
	@DEBUG_VALUE: I2C_ReadByteOneReg:u8SlaveAddr <- [DW_OP_LLVM_entry_value 1] $r1
	.loc	4 0 8 is_stmt 0                 @ ../../Library/StdDriver/src/i2c.c:0:8
	movs	r0, #0
.Ltmp382:
.LBB36_17:
	@DEBUG_VALUE: I2C_ReadByteOneReg:u8Err <- $r2
	@DEBUG_VALUE: I2C_ReadByteOneReg:u8Xfering <- [DW_OP_plus_uconst 20] [$sp+0]
	@DEBUG_VALUE: I2C_ReadByteOneReg:u8DataAddr <- [DW_OP_plus_uconst 12] [$sp+0]
	@DEBUG_VALUE: I2C_ReadByteOneReg:i2c <- [DW_OP_LLVM_entry_value 1] $r0
	@DEBUG_VALUE: I2C_ReadByteOneReg:u8SlaveAddr <- [DW_OP_LLVM_entry_value 1] $r1
	@DEBUG_VALUE: I2C_ReadByteOneReg:u8Rdata <- $r0
	.loc	4 1208 5 is_stmt 1              @ ../../Library/StdDriver/src/i2c.c:1208:5
	uxtb	r0, r0
.Ltmp383:
	add	sp, #24
.Ltmp384:
	pop	{r4, r5, r6, r7, pc}
.Ltmp385:
.Lfunc_end36:
	.size	I2C_ReadByteOneReg, .Lfunc_end36-I2C_ReadByteOneReg
	.cfi_endproc
	.cantunwind
	.fnend
                                        @ -- End function
	.section	.text.I2C_ReadMultiBytesOneReg,"ax",%progbits
	.hidden	I2C_ReadMultiBytesOneReg        @ -- Begin function I2C_ReadMultiBytesOneReg
	.globl	I2C_ReadMultiBytesOneReg
	.p2align	2
	.type	I2C_ReadMultiBytesOneReg,%function
	.code	16                              @ @I2C_ReadMultiBytesOneReg
	.thumb_func
I2C_ReadMultiBytesOneReg:
.Lfunc_begin37:
	.loc	4 1227 0                        @ ../../Library/StdDriver/src/i2c.c:1227:0
	.fnstart
	.cfi_startproc
@ %bb.0:
	@DEBUG_VALUE: I2C_ReadMultiBytesOneReg:i2c <- $r0
	@DEBUG_VALUE: I2C_ReadMultiBytesOneReg:u8SlaveAddr <- $r1
	@DEBUG_VALUE: I2C_ReadMultiBytesOneReg:u8DataAddr <- $r2
	@DEBUG_VALUE: I2C_ReadMultiBytesOneReg:au8Rdata <- $r3
	.save	{r4, r5, r6, r7, lr}
	push	{r4, r5, r6, r7, lr}
	.cfi_def_cfa_offset 20
	.cfi_offset lr, -4
	.cfi_offset r7, -8
	.cfi_offset r6, -12
	.cfi_offset r5, -16
	.cfi_offset r4, -20
	.pad	#32
	sub	sp, #32
	.cfi_def_cfa_offset 52
	str	r3, [sp, #20]                   @ 4-byte Spill
	str	r2, [sp, #4]                    @ 4-byte Spill
.Ltmp386:
	@DEBUG_VALUE: I2C_ReadMultiBytesOneReg:u32rxLen <- 0
	@DEBUG_VALUE: I2C_ReadMultiBytesOneReg:u8Ctrl <- 0
	@DEBUG_VALUE: I2C_ReadMultiBytesOneReg:u8Err <- 0
	@DEBUG_VALUE: I2C_ReadMultiBytesOneReg:u8Xfering <- 1
	@DEBUG_VALUE: I2C_ReadMultiBytesOneReg:u32rLen <- [DW_OP_plus_uconst 52] [$sp+0]
	@DEBUG_VALUE: I2C_ReadMultiBytesOneReg:au8Rdata <- [DW_OP_plus_uconst 20] [$sp+0]
	@DEBUG_VALUE: I2C_ReadMultiBytesOneReg:u8DataAddr <- [DW_OP_plus_uconst 4] [$sp+0]
	@DEBUG_VALUE: I2C_ReadMultiBytesOneReg:u8SlaveAddr <- $r1
	@DEBUG_VALUE: I2C_ReadMultiBytesOneReg:i2c <- $r0
	.loc	4 1231 5 prologue_end           @ ../../Library/StdDriver/src/i2c.c:1231:5
	ldr	r2, [r0]
	movs	r3, #40
	str	r3, [sp]                        @ 4-byte Spill
	orrs	r2, r3
	str	r2, [r0]
	ldr	r2, [sp, #52]
.Ltmp387:
	.loc	4 0 0 is_stmt 0                 @ ../../Library/StdDriver/src/i2c.c:0:0
	subs	r2, r2, #1
.Ltmp388:
	str	r2, [sp, #16]                   @ 4-byte Spill
	lsls	r1, r1, #1
.Ltmp389:
	@DEBUG_VALUE: I2C_ReadMultiBytesOneReg:u8SlaveAddr <- [DW_OP_LLVM_entry_value 1] $r1
	uxtb	r2, r1
	str	r2, [sp, #12]                   @ 4-byte Spill
	adds	r1, r1, #1
	uxtb	r1, r1
	str	r1, [sp, #8]                    @ 4-byte Spill
	movs	r1, #1
	str	r1, [sp, #28]                   @ 4-byte Spill
	movs	r6, #0
	mov	r4, r6
	str	r6, [sp, #24]                   @ 4-byte Spill
.Ltmp390:
	@DEBUG_VALUE: I2C_ReadMultiBytesOneReg:u8Xfering <- [DW_OP_plus_uconst 28] [$sp+0]
	@DEBUG_VALUE: I2C_ReadMultiBytesOneReg:u8Err <- $r6
	@DEBUG_VALUE: I2C_ReadMultiBytesOneReg:u8Ctrl <- $r4
	@DEBUG_VALUE: I2C_ReadMultiBytesOneReg:u32rxLen <- [DW_OP_plus_uconst 24] [$sp+0]
.LBB37_1:                               @ =>This Inner Loop Header: Depth=1
	@DEBUG_VALUE: I2C_ReadMultiBytesOneReg:u8Err <- $r6
	@DEBUG_VALUE: I2C_ReadMultiBytesOneReg:u8Ctrl <- $r4
	@DEBUG_VALUE: I2C_ReadMultiBytesOneReg:i2c <- $r0
	@DEBUG_VALUE: I2C_ReadMultiBytesOneReg:u32rxLen <- [DW_OP_plus_uconst 24] [$sp+0]
	@DEBUG_VALUE: I2C_ReadMultiBytesOneReg:u8Xfering <- [DW_OP_plus_uconst 28] [$sp+0]
	@DEBUG_VALUE: I2C_ReadMultiBytesOneReg:u8DataAddr <- [DW_OP_plus_uconst 4] [$sp+0]
	@DEBUG_VALUE: I2C_ReadMultiBytesOneReg:au8Rdata <- [DW_OP_plus_uconst 20] [$sp+0]
	@DEBUG_VALUE: I2C_ReadMultiBytesOneReg:u32rLen <- [DW_OP_plus_uconst 52] [$sp+0]
	@DEBUG_VALUE: I2C_ReadMultiBytesOneReg:u8SlaveAddr <- [DW_OP_LLVM_entry_value 1] $r1
	.loc	4 1234 9 is_stmt 1              @ ../../Library/StdDriver/src/i2c.c:1234:9
	ldr	r1, [r0]
	lsls	r1, r1, #28
	bpl	.LBB37_1
.Ltmp391:
@ %bb.2:                                @   in Loop: Header=BB37_1 Depth=1
	@DEBUG_VALUE: I2C_ReadMultiBytesOneReg:u8Err <- $r6
	@DEBUG_VALUE: I2C_ReadMultiBytesOneReg:u8Ctrl <- $r4
	@DEBUG_VALUE: I2C_ReadMultiBytesOneReg:i2c <- $r0
	@DEBUG_VALUE: I2C_ReadMultiBytesOneReg:u32rxLen <- [DW_OP_plus_uconst 24] [$sp+0]
	@DEBUG_VALUE: I2C_ReadMultiBytesOneReg:u8Xfering <- [DW_OP_plus_uconst 28] [$sp+0]
	@DEBUG_VALUE: I2C_ReadMultiBytesOneReg:u8DataAddr <- [DW_OP_plus_uconst 4] [$sp+0]
	@DEBUG_VALUE: I2C_ReadMultiBytesOneReg:au8Rdata <- [DW_OP_plus_uconst 20] [$sp+0]
	@DEBUG_VALUE: I2C_ReadMultiBytesOneReg:u32rLen <- [DW_OP_plus_uconst 52] [$sp+0]
	@DEBUG_VALUE: I2C_ReadMultiBytesOneReg:u8SlaveAddr <- [DW_OP_LLVM_entry_value 1] $r1
	.loc	4 1235 16                       @ ../../Library/StdDriver/src/i2c.c:1235:16
	ldr	r7, [r0, #12]
	.loc	4 1235 9 is_stmt 0              @ ../../Library/StdDriver/src/i2c.c:1235:9
	subs	r7, #8
	movs	r1, #3
	rors	r7, r1
	movs	r2, #24
	movs	r1, #1
	cmp	r7, #10
	bhi	.LBB37_13
.Ltmp392:
@ %bb.3:                                @   in Loop: Header=BB37_1 Depth=1
	@DEBUG_VALUE: I2C_ReadMultiBytesOneReg:u8Err <- $r6
	@DEBUG_VALUE: I2C_ReadMultiBytesOneReg:u8Ctrl <- $r4
	@DEBUG_VALUE: I2C_ReadMultiBytesOneReg:i2c <- $r0
	@DEBUG_VALUE: I2C_ReadMultiBytesOneReg:u32rxLen <- [DW_OP_plus_uconst 24] [$sp+0]
	@DEBUG_VALUE: I2C_ReadMultiBytesOneReg:u8Xfering <- [DW_OP_plus_uconst 28] [$sp+0]
	@DEBUG_VALUE: I2C_ReadMultiBytesOneReg:u8DataAddr <- [DW_OP_plus_uconst 4] [$sp+0]
	@DEBUG_VALUE: I2C_ReadMultiBytesOneReg:au8Rdata <- [DW_OP_plus_uconst 20] [$sp+0]
	@DEBUG_VALUE: I2C_ReadMultiBytesOneReg:u32rLen <- [DW_OP_plus_uconst 52] [$sp+0]
	@DEBUG_VALUE: I2C_ReadMultiBytesOneReg:u8SlaveAddr <- [DW_OP_LLVM_entry_value 1] $r1
	.loc	4 0 9                           @ ../../Library/StdDriver/src/i2c.c:0:9
	lsls	r3, r7, #2
	adr	r5, .LJTI37_0
	adds	r3, r5, r3
	mov	pc, r3
.Ltmp393:
@ %bb.4:
	.p2align	2
.LJTI37_0:
	b.w	.LBB37_5
	b.w	.LBB37_6
	b.w	.LBB37_15
	b.w	.LBB37_13
	b.w	.LBB37_16
	b.w	.LBB37_13
	b.w	.LBB37_13
	b.w	.LBB37_10
	b.w	.LBB37_13
	b.w	.LBB37_8
	b.w	.LBB37_11
.LBB37_5:                               @   in Loop: Header=BB37_1 Depth=1
.Ltmp394:
	@DEBUG_VALUE: I2C_ReadMultiBytesOneReg:u8Err <- $r6
	@DEBUG_VALUE: I2C_ReadMultiBytesOneReg:u8Ctrl <- $r4
	@DEBUG_VALUE: I2C_ReadMultiBytesOneReg:i2c <- $r0
	@DEBUG_VALUE: I2C_ReadMultiBytesOneReg:u32rxLen <- [DW_OP_plus_uconst 24] [$sp+0]
	@DEBUG_VALUE: I2C_ReadMultiBytesOneReg:u8Xfering <- [DW_OP_plus_uconst 28] [$sp+0]
	@DEBUG_VALUE: I2C_ReadMultiBytesOneReg:u8DataAddr <- [DW_OP_plus_uconst 4] [$sp+0]
	@DEBUG_VALUE: I2C_ReadMultiBytesOneReg:au8Rdata <- [DW_OP_plus_uconst 20] [$sp+0]
	@DEBUG_VALUE: I2C_ReadMultiBytesOneReg:u32rLen <- [DW_OP_plus_uconst 52] [$sp+0]
	@DEBUG_VALUE: I2C_ReadMultiBytesOneReg:u8SlaveAddr <- [DW_OP_LLVM_entry_value 1] $r1
	.loc	4 1238 17 is_stmt 1             @ ../../Library/StdDriver/src/i2c.c:1238:17
	ldr	r1, [sp, #12]                   @ 4-byte Reload
	b	.LBB37_7
.Ltmp395:
.LBB37_6:                               @   in Loop: Header=BB37_1 Depth=1
	@DEBUG_VALUE: I2C_ReadMultiBytesOneReg:u8Err <- $r6
	@DEBUG_VALUE: I2C_ReadMultiBytesOneReg:u8Ctrl <- $r4
	@DEBUG_VALUE: I2C_ReadMultiBytesOneReg:i2c <- $r0
	@DEBUG_VALUE: I2C_ReadMultiBytesOneReg:u32rxLen <- [DW_OP_plus_uconst 24] [$sp+0]
	@DEBUG_VALUE: I2C_ReadMultiBytesOneReg:u8Xfering <- [DW_OP_plus_uconst 28] [$sp+0]
	@DEBUG_VALUE: I2C_ReadMultiBytesOneReg:u8DataAddr <- [DW_OP_plus_uconst 4] [$sp+0]
	@DEBUG_VALUE: I2C_ReadMultiBytesOneReg:au8Rdata <- [DW_OP_plus_uconst 20] [$sp+0]
	@DEBUG_VALUE: I2C_ReadMultiBytesOneReg:u32rLen <- [DW_OP_plus_uconst 52] [$sp+0]
	@DEBUG_VALUE: I2C_ReadMultiBytesOneReg:u8SlaveAddr <- [DW_OP_LLVM_entry_value 1] $r1
	.loc	4 1253 17                       @ ../../Library/StdDriver/src/i2c.c:1253:17
	ldr	r1, [sp, #8]                    @ 4-byte Reload
.Ltmp396:
.LBB37_7:                               @   in Loop: Header=BB37_1 Depth=1
	@DEBUG_VALUE: I2C_ReadMultiBytesOneReg:u8Err <- $r6
	@DEBUG_VALUE: I2C_ReadMultiBytesOneReg:u8Ctrl <- $r4
	@DEBUG_VALUE: I2C_ReadMultiBytesOneReg:i2c <- $r0
	@DEBUG_VALUE: I2C_ReadMultiBytesOneReg:u32rxLen <- [DW_OP_plus_uconst 24] [$sp+0]
	@DEBUG_VALUE: I2C_ReadMultiBytesOneReg:u8Xfering <- [DW_OP_plus_uconst 28] [$sp+0]
	@DEBUG_VALUE: I2C_ReadMultiBytesOneReg:u8DataAddr <- [DW_OP_plus_uconst 4] [$sp+0]
	@DEBUG_VALUE: I2C_ReadMultiBytesOneReg:au8Rdata <- [DW_OP_plus_uconst 20] [$sp+0]
	@DEBUG_VALUE: I2C_ReadMultiBytesOneReg:u32rLen <- [DW_OP_plus_uconst 52] [$sp+0]
	@DEBUG_VALUE: I2C_ReadMultiBytesOneReg:u8SlaveAddr <- [DW_OP_LLVM_entry_value 1] $r1
	.loc	4 0 0 is_stmt 0                 @ ../../Library/StdDriver/src/i2c.c:0:0
	str	r1, [r0, #8]
	movs	r2, #8
.Ltmp397:
	@DEBUG_VALUE: I2C_ReadMultiBytesOneReg:u8Ctrl <- 8
	b	.LBB37_12
.Ltmp398:
.LBB37_8:                               @   in Loop: Header=BB37_1 Depth=1
	@DEBUG_VALUE: I2C_ReadMultiBytesOneReg:u8Err <- $r6
	@DEBUG_VALUE: I2C_ReadMultiBytesOneReg:u8Ctrl <- $r4
	@DEBUG_VALUE: I2C_ReadMultiBytesOneReg:i2c <- $r0
	@DEBUG_VALUE: I2C_ReadMultiBytesOneReg:u32rxLen <- [DW_OP_plus_uconst 24] [$sp+0]
	@DEBUG_VALUE: I2C_ReadMultiBytesOneReg:u8Xfering <- [DW_OP_plus_uconst 28] [$sp+0]
	@DEBUG_VALUE: I2C_ReadMultiBytesOneReg:u8DataAddr <- [DW_OP_plus_uconst 4] [$sp+0]
	@DEBUG_VALUE: I2C_ReadMultiBytesOneReg:au8Rdata <- [DW_OP_plus_uconst 20] [$sp+0]
	@DEBUG_VALUE: I2C_ReadMultiBytesOneReg:u32rLen <- [DW_OP_plus_uconst 52] [$sp+0]
	@DEBUG_VALUE: I2C_ReadMultiBytesOneReg:u8SlaveAddr <- [DW_OP_LLVM_entry_value 1] $r1
	.loc	4 1264 50 is_stmt 1             @ ../../Library/StdDriver/src/i2c.c:1264:50
	ldr	r1, [r0, #8]
	.loc	4 1264 38 is_stmt 0             @ ../../Library/StdDriver/src/i2c.c:1264:38
	ldr	r2, [sp, #20]                   @ 4-byte Reload
	ldr	r3, [sp, #24]                   @ 4-byte Reload
	strb	r1, [r2, r3]
	.loc	4 1264 34                       @ ../../Library/StdDriver/src/i2c.c:1264:34
	adds	r3, r3, #1
.Ltmp399:
	@DEBUG_VALUE: I2C_ReadMultiBytesOneReg:u32rxLen <- $r3
	.loc	4 1265 20 is_stmt 1             @ ../../Library/StdDriver/src/i2c.c:1265:20
	ldr	r1, [sp, #16]                   @ 4-byte Reload
	str	r3, [sp, #24]                   @ 4-byte Spill
.Ltmp400:
	@DEBUG_VALUE: I2C_ReadMultiBytesOneReg:u32rxLen <- [DW_OP_plus_uconst 24] [$sp+0]
	cmp	r3, r1
	blo	.LBB37_10
.Ltmp401:
@ %bb.9:                                @   in Loop: Header=BB37_1 Depth=1
	@DEBUG_VALUE: I2C_ReadMultiBytesOneReg:u8Err <- $r6
	@DEBUG_VALUE: I2C_ReadMultiBytesOneReg:u8Ctrl <- $r4
	@DEBUG_VALUE: I2C_ReadMultiBytesOneReg:i2c <- $r0
	@DEBUG_VALUE: I2C_ReadMultiBytesOneReg:u32rxLen <- [DW_OP_plus_uconst 24] [$sp+0]
	@DEBUG_VALUE: I2C_ReadMultiBytesOneReg:u8Xfering <- [DW_OP_plus_uconst 28] [$sp+0]
	@DEBUG_VALUE: I2C_ReadMultiBytesOneReg:u8DataAddr <- [DW_OP_plus_uconst 4] [$sp+0]
	@DEBUG_VALUE: I2C_ReadMultiBytesOneReg:au8Rdata <- [DW_OP_plus_uconst 20] [$sp+0]
	@DEBUG_VALUE: I2C_ReadMultiBytesOneReg:u32rLen <- [DW_OP_plus_uconst 52] [$sp+0]
	@DEBUG_VALUE: I2C_ReadMultiBytesOneReg:u8SlaveAddr <- [DW_OP_LLVM_entry_value 1] $r1
	.loc	4 0 20 is_stmt 0                @ ../../Library/StdDriver/src/i2c.c:0:20
	movs	r2, #8
	b	.LBB37_12
.Ltmp402:
.LBB37_10:                              @   in Loop: Header=BB37_1 Depth=1
	@DEBUG_VALUE: I2C_ReadMultiBytesOneReg:u8Err <- $r6
	@DEBUG_VALUE: I2C_ReadMultiBytesOneReg:u8Ctrl <- $r4
	@DEBUG_VALUE: I2C_ReadMultiBytesOneReg:i2c <- $r0
	@DEBUG_VALUE: I2C_ReadMultiBytesOneReg:u32rxLen <- [DW_OP_plus_uconst 24] [$sp+0]
	@DEBUG_VALUE: I2C_ReadMultiBytesOneReg:u8Xfering <- [DW_OP_plus_uconst 28] [$sp+0]
	@DEBUG_VALUE: I2C_ReadMultiBytesOneReg:u8DataAddr <- [DW_OP_plus_uconst 4] [$sp+0]
	@DEBUG_VALUE: I2C_ReadMultiBytesOneReg:au8Rdata <- [DW_OP_plus_uconst 20] [$sp+0]
	@DEBUG_VALUE: I2C_ReadMultiBytesOneReg:u32rLen <- [DW_OP_plus_uconst 52] [$sp+0]
	@DEBUG_VALUE: I2C_ReadMultiBytesOneReg:u8SlaveAddr <- [DW_OP_LLVM_entry_value 1] $r1
	movs	r2, #12
	b	.LBB37_12
.Ltmp403:
.LBB37_11:                              @   in Loop: Header=BB37_1 Depth=1
	@DEBUG_VALUE: I2C_ReadMultiBytesOneReg:u8Err <- $r6
	@DEBUG_VALUE: I2C_ReadMultiBytesOneReg:u8Ctrl <- $r4
	@DEBUG_VALUE: I2C_ReadMultiBytesOneReg:i2c <- $r0
	@DEBUG_VALUE: I2C_ReadMultiBytesOneReg:u32rxLen <- [DW_OP_plus_uconst 24] [$sp+0]
	@DEBUG_VALUE: I2C_ReadMultiBytesOneReg:u8Xfering <- [DW_OP_plus_uconst 28] [$sp+0]
	@DEBUG_VALUE: I2C_ReadMultiBytesOneReg:u8DataAddr <- [DW_OP_plus_uconst 4] [$sp+0]
	@DEBUG_VALUE: I2C_ReadMultiBytesOneReg:au8Rdata <- [DW_OP_plus_uconst 20] [$sp+0]
	@DEBUG_VALUE: I2C_ReadMultiBytesOneReg:u32rLen <- [DW_OP_plus_uconst 52] [$sp+0]
	@DEBUG_VALUE: I2C_ReadMultiBytesOneReg:u8SlaveAddr <- [DW_OP_LLVM_entry_value 1] $r1
	.loc	4 1275 50 is_stmt 1             @ ../../Library/StdDriver/src/i2c.c:1275:50
	ldr	r1, [r0, #8]
	.loc	4 1275 38 is_stmt 0             @ ../../Library/StdDriver/src/i2c.c:1275:38
	ldr	r3, [sp, #20]                   @ 4-byte Reload
	ldr	r4, [sp, #24]                   @ 4-byte Reload
.Ltmp404:
	strb	r1, [r3, r4]
	.loc	4 1275 34                       @ ../../Library/StdDriver/src/i2c.c:1275:34
	adds	r4, r4, #1
.Ltmp405:
	@DEBUG_VALUE: I2C_ReadMultiBytesOneReg:u32rxLen <- $r4
	.loc	4 0 34                          @ ../../Library/StdDriver/src/i2c.c:0:34
	str	r4, [sp, #24]                   @ 4-byte Spill
.Ltmp406:
	@DEBUG_VALUE: I2C_ReadMultiBytesOneReg:u32rxLen <- [DW_OP_plus_uconst 24] [$sp+0]
	@DEBUG_VALUE: I2C_ReadMultiBytesOneReg:u32rxLen <- [DW_OP_plus_uconst 24] [$sp+0]
	@DEBUG_VALUE: I2C_ReadMultiBytesOneReg:u32rxLen <- [DW_OP_plus_uconst 24] [$sp+0]
	movs	r1, #0
.Ltmp407:
	@DEBUG_VALUE: I2C_ReadMultiBytesOneReg:u8Ctrl <- 24
	@DEBUG_VALUE: I2C_ReadMultiBytesOneReg:u8Xfering <- 0
	str	r1, [sp, #28]                   @ 4-byte Spill
.Ltmp408:
.LBB37_12:                              @   in Loop: Header=BB37_1 Depth=1
	@DEBUG_VALUE: I2C_ReadMultiBytesOneReg:u8Err <- $r6
	@DEBUG_VALUE: I2C_ReadMultiBytesOneReg:i2c <- $r0
	@DEBUG_VALUE: I2C_ReadMultiBytesOneReg:u32rxLen <- [DW_OP_plus_uconst 24] [$sp+0]
	@DEBUG_VALUE: I2C_ReadMultiBytesOneReg:u8DataAddr <- [DW_OP_plus_uconst 4] [$sp+0]
	@DEBUG_VALUE: I2C_ReadMultiBytesOneReg:au8Rdata <- [DW_OP_plus_uconst 20] [$sp+0]
	@DEBUG_VALUE: I2C_ReadMultiBytesOneReg:u32rLen <- [DW_OP_plus_uconst 52] [$sp+0]
	@DEBUG_VALUE: I2C_ReadMultiBytesOneReg:u8SlaveAddr <- [DW_OP_LLVM_entry_value 1] $r1
	mov	r1, r6
.Ltmp409:
.LBB37_13:                              @   in Loop: Header=BB37_1 Depth=1
	@DEBUG_VALUE: I2C_ReadMultiBytesOneReg:u8Err <- $r6
	@DEBUG_VALUE: I2C_ReadMultiBytesOneReg:i2c <- $r0
	@DEBUG_VALUE: I2C_ReadMultiBytesOneReg:u32rxLen <- [DW_OP_plus_uconst 24] [$sp+0]
	@DEBUG_VALUE: I2C_ReadMultiBytesOneReg:u8DataAddr <- [DW_OP_plus_uconst 4] [$sp+0]
	@DEBUG_VALUE: I2C_ReadMultiBytesOneReg:au8Rdata <- [DW_OP_plus_uconst 20] [$sp+0]
	@DEBUG_VALUE: I2C_ReadMultiBytesOneReg:u32rLen <- [DW_OP_plus_uconst 52] [$sp+0]
	@DEBUG_VALUE: I2C_ReadMultiBytesOneReg:u8SlaveAddr <- [DW_OP_LLVM_entry_value 1] $r1
	@DEBUG_VALUE: I2C_ReadMultiBytesOneReg:u8Xfering <- [DW_OP_plus_uconst 28] [$sp+0]
	@DEBUG_VALUE: I2C_ReadMultiBytesOneReg:u8Err <- $r1
	@DEBUG_VALUE: I2C_ReadMultiBytesOneReg:u8Ctrl <- $r2
	@DEBUG_VALUE: I2C_ReadMultiBytesOneReg:u32rxLen <- [DW_OP_plus_uconst 24] [$sp+0]
	.loc	4 1285 9 is_stmt 1              @ ../../Library/StdDriver/src/i2c.c:1285:9
	ldr	r3, [r0]
	movs	r4, #60
	bics	r3, r4
	uxtb	r4, r2
	orrs	r4, r3
	str	r4, [r0]
.Ltmp410:
	.loc	4 1232 5                        @ ../../Library/StdDriver/src/i2c.c:1232:5
	ldr	r3, [sp, #28]                   @ 4-byte Reload
.Ltmp411:
	@DEBUG_VALUE: I2C_ReadMultiBytesOneReg:u8Xfering <- $r3
	@DEBUG_VALUE: I2C_ReadMultiBytesOneReg:u8Xfering <- [DW_OP_plus_uconst 28] [$sp+0]
	cbz	r3, .LBB37_17
.Ltmp412:
@ %bb.14:                               @   in Loop: Header=BB37_1 Depth=1
	@DEBUG_VALUE: I2C_ReadMultiBytesOneReg:u8Ctrl <- $r2
	@DEBUG_VALUE: I2C_ReadMultiBytesOneReg:u8Err <- $r1
	@DEBUG_VALUE: I2C_ReadMultiBytesOneReg:i2c <- $r0
	@DEBUG_VALUE: I2C_ReadMultiBytesOneReg:u32rxLen <- [DW_OP_plus_uconst 24] [$sp+0]
	@DEBUG_VALUE: I2C_ReadMultiBytesOneReg:u8Xfering <- [DW_OP_plus_uconst 28] [$sp+0]
	@DEBUG_VALUE: I2C_ReadMultiBytesOneReg:u8DataAddr <- [DW_OP_plus_uconst 4] [$sp+0]
	@DEBUG_VALUE: I2C_ReadMultiBytesOneReg:au8Rdata <- [DW_OP_plus_uconst 20] [$sp+0]
	@DEBUG_VALUE: I2C_ReadMultiBytesOneReg:u32rLen <- [DW_OP_plus_uconst 52] [$sp+0]
	@DEBUG_VALUE: I2C_ReadMultiBytesOneReg:u8SlaveAddr <- [DW_OP_LLVM_entry_value 1] $r1
	cmp	r1, #0
	mov	r4, r2
.Ltmp413:
	@DEBUG_VALUE: I2C_ReadMultiBytesOneReg:u8Ctrl <- $r4
	@DEBUG_VALUE: I2C_ReadMultiBytesOneReg:u8Ctrl <- $r4
	.loc	4 0 5 is_stmt 0                 @ ../../Library/StdDriver/src/i2c.c:0:5
	mov	r6, r1
.Ltmp414:
	@DEBUG_VALUE: I2C_ReadMultiBytesOneReg:u8Err <- $r6
	@DEBUG_VALUE: I2C_ReadMultiBytesOneReg:u8Err <- $r6
	.loc	4 1232 5                        @ ../../Library/StdDriver/src/i2c.c:1232:5
	beq	.LBB37_1
	b	.LBB37_17
.Ltmp415:
.LBB37_15:                              @   in Loop: Header=BB37_1 Depth=1
	@DEBUG_VALUE: I2C_ReadMultiBytesOneReg:u8Err <- $r6
	@DEBUG_VALUE: I2C_ReadMultiBytesOneReg:u8Ctrl <- $r4
	@DEBUG_VALUE: I2C_ReadMultiBytesOneReg:i2c <- $r0
	@DEBUG_VALUE: I2C_ReadMultiBytesOneReg:u32rxLen <- [DW_OP_plus_uconst 24] [$sp+0]
	@DEBUG_VALUE: I2C_ReadMultiBytesOneReg:u8Xfering <- [DW_OP_plus_uconst 28] [$sp+0]
	@DEBUG_VALUE: I2C_ReadMultiBytesOneReg:u8DataAddr <- [DW_OP_plus_uconst 4] [$sp+0]
	@DEBUG_VALUE: I2C_ReadMultiBytesOneReg:au8Rdata <- [DW_OP_plus_uconst 20] [$sp+0]
	@DEBUG_VALUE: I2C_ReadMultiBytesOneReg:u32rLen <- [DW_OP_plus_uconst 52] [$sp+0]
	@DEBUG_VALUE: I2C_ReadMultiBytesOneReg:u8SlaveAddr <- [DW_OP_LLVM_entry_value 1] $r1
	.loc	4 1242 17 is_stmt 1             @ ../../Library/StdDriver/src/i2c.c:1242:17
	ldr	r1, [sp, #4]                    @ 4-byte Reload
	str	r1, [r0, #8]
.Ltmp416:
	.loc	4 0 0 is_stmt 0                 @ ../../Library/StdDriver/src/i2c.c:0:0
	mov	r1, r6
	mov	r2, r4
	b	.LBB37_13
.Ltmp417:
.LBB37_16:                              @   in Loop: Header=BB37_1 Depth=1
	@DEBUG_VALUE: I2C_ReadMultiBytesOneReg:u8Err <- $r6
	@DEBUG_VALUE: I2C_ReadMultiBytesOneReg:u8Ctrl <- $r4
	@DEBUG_VALUE: I2C_ReadMultiBytesOneReg:i2c <- $r0
	@DEBUG_VALUE: I2C_ReadMultiBytesOneReg:u32rxLen <- [DW_OP_plus_uconst 24] [$sp+0]
	@DEBUG_VALUE: I2C_ReadMultiBytesOneReg:u8Xfering <- [DW_OP_plus_uconst 28] [$sp+0]
	@DEBUG_VALUE: I2C_ReadMultiBytesOneReg:u8DataAddr <- [DW_OP_plus_uconst 4] [$sp+0]
	@DEBUG_VALUE: I2C_ReadMultiBytesOneReg:au8Rdata <- [DW_OP_plus_uconst 20] [$sp+0]
	@DEBUG_VALUE: I2C_ReadMultiBytesOneReg:u32rLen <- [DW_OP_plus_uconst 52] [$sp+0]
	@DEBUG_VALUE: I2C_ReadMultiBytesOneReg:u8SlaveAddr <- [DW_OP_LLVM_entry_value 1] $r1
	@DEBUG_VALUE: I2C_ReadMultiBytesOneReg:u8Ctrl <- 40
	mov	r1, r6
	ldr	r2, [sp]                        @ 4-byte Reload
	b	.LBB37_13
.Ltmp418:
.LBB37_17:
	@DEBUG_VALUE: I2C_ReadMultiBytesOneReg:i2c <- $r0
	@DEBUG_VALUE: I2C_ReadMultiBytesOneReg:u32rxLen <- [DW_OP_plus_uconst 24] [$sp+0]
	@DEBUG_VALUE: I2C_ReadMultiBytesOneReg:u8Xfering <- [DW_OP_plus_uconst 28] [$sp+0]
	@DEBUG_VALUE: I2C_ReadMultiBytesOneReg:u8DataAddr <- [DW_OP_plus_uconst 4] [$sp+0]
	@DEBUG_VALUE: I2C_ReadMultiBytesOneReg:au8Rdata <- [DW_OP_plus_uconst 20] [$sp+0]
	@DEBUG_VALUE: I2C_ReadMultiBytesOneReg:u32rLen <- [DW_OP_plus_uconst 52] [$sp+0]
	@DEBUG_VALUE: I2C_ReadMultiBytesOneReg:u8SlaveAddr <- [DW_OP_LLVM_entry_value 1] $r1
	@DEBUG_VALUE: I2C_ReadMultiBytesOneReg:u32rxLen <- [DW_OP_plus_uconst 24] [$sp+0]
	.loc	4 1287 5 is_stmt 1              @ ../../Library/StdDriver/src/i2c.c:1287:5
	ldr	r0, [sp, #24]                   @ 4-byte Reload
.Ltmp419:
	@DEBUG_VALUE: I2C_ReadMultiBytesOneReg:i2c <- [DW_OP_LLVM_entry_value 1] $r0
	add	sp, #32
.Ltmp420:
	pop	{r4, r5, r6, r7, pc}
.Ltmp421:
.Lfunc_end37:
	.size	I2C_ReadMultiBytesOneReg, .Lfunc_end37-I2C_ReadMultiBytesOneReg
	.cfi_endproc
	.cantunwind
	.fnend
                                        @ -- End function
	.section	.text.I2C_ReadByteTwoRegs,"ax",%progbits
	.hidden	I2C_ReadByteTwoRegs             @ -- Begin function I2C_ReadByteTwoRegs
	.globl	I2C_ReadByteTwoRegs
	.p2align	2
	.type	I2C_ReadByteTwoRegs,%function
	.code	16                              @ @I2C_ReadByteTwoRegs
	.thumb_func
I2C_ReadByteTwoRegs:
.Lfunc_begin38:
	.loc	4 1304 0                        @ ../../Library/StdDriver/src/i2c.c:1304:0
	.fnstart
	.cfi_startproc
@ %bb.0:
	@DEBUG_VALUE: I2C_ReadByteTwoRegs:i2c <- $r0
	@DEBUG_VALUE: I2C_ReadByteTwoRegs:i2c <- $r0
	@DEBUG_VALUE: I2C_ReadByteTwoRegs:u8SlaveAddr <- $r1
	@DEBUG_VALUE: I2C_ReadByteTwoRegs:u8SlaveAddr <- $r1
	@DEBUG_VALUE: I2C_ReadByteTwoRegs:u16DataAddr <- $r2
	@DEBUG_VALUE: I2C_ReadByteTwoRegs:u16DataAddr <- $r2
	.save	{r4, r5, r6, r7, lr}
	push	{r4, r5, r6, r7, lr}
	.cfi_def_cfa_offset 20
	.cfi_offset lr, -4
	.cfi_offset r7, -8
	.cfi_offset r6, -12
	.cfi_offset r5, -16
	.cfi_offset r4, -20
	.pad	#32
	sub	sp, #32
	.cfi_def_cfa_offset 52
.Ltmp422:
	@DEBUG_VALUE: I2C_ReadByteTwoRegs:u8Xfering <- 1
	@DEBUG_VALUE: I2C_ReadByteTwoRegs:u8Err <- 0
	@DEBUG_VALUE: I2C_ReadByteTwoRegs:u8Rdata <- 0
	@DEBUG_VALUE: I2C_ReadByteTwoRegs:u8Addr <- 1
	@DEBUG_VALUE: I2C_ReadByteTwoRegs:u8Ctrl <- 0
	.loc	4 1307 5 prologue_end           @ ../../Library/StdDriver/src/i2c.c:1307:5
	ldr	r3, [r0]
	movs	r4, #40
	str	r4, [sp, #4]                    @ 4-byte Spill
	orrs	r3, r4
	str	r3, [r0]
.Ltmp423:
	.loc	4 0 0 is_stmt 0                 @ ../../Library/StdDriver/src/i2c.c:0:0
	lsrs	r3, r2, #8
.Ltmp424:
	str	r3, [sp, #16]                   @ 4-byte Spill
	uxtb	r2, r2
.Ltmp425:
	@DEBUG_VALUE: I2C_ReadByteTwoRegs:u16DataAddr <- [DW_OP_LLVM_entry_value 1] $r2
	str	r2, [sp]                        @ 4-byte Spill
	lsls	r1, r1, #1
.Ltmp426:
	@DEBUG_VALUE: I2C_ReadByteTwoRegs:u8SlaveAddr <- [DW_OP_LLVM_entry_value 1] $r1
	uxtb	r2, r1
	str	r2, [sp, #12]                   @ 4-byte Spill
	adds	r1, r1, #1
	uxtb	r1, r1
	str	r1, [sp, #8]                    @ 4-byte Spill
	movs	r5, #0
	movs	r1, #1
	str	r5, [sp, #20]                   @ 4-byte Spill
	mov	r3, r5
	str	r1, [sp, #24]                   @ 4-byte Spill
	str	r1, [sp, #28]                   @ 4-byte Spill
.Ltmp427:
	@DEBUG_VALUE: I2C_ReadByteTwoRegs:u8Xfering <- [DW_OP_plus_uconst 28] [$sp+0]
	@DEBUG_VALUE: I2C_ReadByteTwoRegs:u8Err <- $r3
	@DEBUG_VALUE: I2C_ReadByteTwoRegs:u8Rdata <- [DW_OP_plus_uconst 20] [$sp+0]
	@DEBUG_VALUE: I2C_ReadByteTwoRegs:u8Addr <- [DW_OP_plus_uconst 24] [$sp+0]
	@DEBUG_VALUE: I2C_ReadByteTwoRegs:u8Ctrl <- $r5
.LBB38_1:                               @ =>This Inner Loop Header: Depth=1
	@DEBUG_VALUE: I2C_ReadByteTwoRegs:u8Ctrl <- $r5
	@DEBUG_VALUE: I2C_ReadByteTwoRegs:i2c <- $r0
	@DEBUG_VALUE: I2C_ReadByteTwoRegs:u8Addr <- [DW_OP_plus_uconst 24] [$sp+0]
	@DEBUG_VALUE: I2C_ReadByteTwoRegs:u8Rdata <- [DW_OP_plus_uconst 20] [$sp+0]
	@DEBUG_VALUE: I2C_ReadByteTwoRegs:u8Xfering <- [DW_OP_plus_uconst 28] [$sp+0]
	@DEBUG_VALUE: I2C_ReadByteTwoRegs:u8SlaveAddr <- [DW_OP_LLVM_entry_value 1] $r1
	@DEBUG_VALUE: I2C_ReadByteTwoRegs:u16DataAddr <- [DW_OP_LLVM_entry_value 1] $r2
	.loc	4 1310 9 is_stmt 1              @ ../../Library/StdDriver/src/i2c.c:1310:9
	ldr	r1, [r0]
	lsls	r1, r1, #28
	bpl	.LBB38_1
.Ltmp428:
@ %bb.2:                                @   in Loop: Header=BB38_1 Depth=1
	@DEBUG_VALUE: I2C_ReadByteTwoRegs:u8Ctrl <- $r5
	@DEBUG_VALUE: I2C_ReadByteTwoRegs:i2c <- $r0
	@DEBUG_VALUE: I2C_ReadByteTwoRegs:u8Addr <- [DW_OP_plus_uconst 24] [$sp+0]
	@DEBUG_VALUE: I2C_ReadByteTwoRegs:u8Rdata <- [DW_OP_plus_uconst 20] [$sp+0]
	@DEBUG_VALUE: I2C_ReadByteTwoRegs:u8Xfering <- [DW_OP_plus_uconst 28] [$sp+0]
	@DEBUG_VALUE: I2C_ReadByteTwoRegs:u8SlaveAddr <- [DW_OP_LLVM_entry_value 1] $r1
	@DEBUG_VALUE: I2C_ReadByteTwoRegs:u16DataAddr <- [DW_OP_LLVM_entry_value 1] $r2
	.loc	4 1311 16                       @ ../../Library/StdDriver/src/i2c.c:1311:16
	ldr	r6, [r0, #12]
	.loc	4 1311 9 is_stmt 0              @ ../../Library/StdDriver/src/i2c.c:1311:9
	subs	r6, #8
	movs	r1, #3
	rors	r6, r1
	movs	r4, #24
	movs	r1, #1
	cmp	r6, #10
	bhi	.LBB38_14
.Ltmp429:
@ %bb.3:                                @   in Loop: Header=BB38_1 Depth=1
	@DEBUG_VALUE: I2C_ReadByteTwoRegs:u8Ctrl <- $r5
	@DEBUG_VALUE: I2C_ReadByteTwoRegs:i2c <- $r0
	@DEBUG_VALUE: I2C_ReadByteTwoRegs:u8Addr <- [DW_OP_plus_uconst 24] [$sp+0]
	@DEBUG_VALUE: I2C_ReadByteTwoRegs:u8Rdata <- [DW_OP_plus_uconst 20] [$sp+0]
	@DEBUG_VALUE: I2C_ReadByteTwoRegs:u8Xfering <- [DW_OP_plus_uconst 28] [$sp+0]
	@DEBUG_VALUE: I2C_ReadByteTwoRegs:u8SlaveAddr <- [DW_OP_LLVM_entry_value 1] $r1
	@DEBUG_VALUE: I2C_ReadByteTwoRegs:u16DataAddr <- [DW_OP_LLVM_entry_value 1] $r2
	.loc	4 0 9                           @ ../../Library/StdDriver/src/i2c.c:0:9
	lsls	r2, r6, #2
	adr	r7, .LJTI38_0
	adds	r2, r7, r2
	mov	pc, r2
.Ltmp430:
@ %bb.4:
	.p2align	2
.LJTI38_0:
	b.w	.LBB38_5
	b.w	.LBB38_6
	b.w	.LBB38_9
	b.w	.LBB38_14
	b.w	.LBB38_10
	b.w	.LBB38_14
	b.w	.LBB38_14
	b.w	.LBB38_8
	b.w	.LBB38_14
	b.w	.LBB38_14
	b.w	.LBB38_12
.LBB38_5:                               @   in Loop: Header=BB38_1 Depth=1
.Ltmp431:
	@DEBUG_VALUE: I2C_ReadByteTwoRegs:u8Ctrl <- $r5
	@DEBUG_VALUE: I2C_ReadByteTwoRegs:i2c <- $r0
	@DEBUG_VALUE: I2C_ReadByteTwoRegs:u8Addr <- [DW_OP_plus_uconst 24] [$sp+0]
	@DEBUG_VALUE: I2C_ReadByteTwoRegs:u8Rdata <- [DW_OP_plus_uconst 20] [$sp+0]
	@DEBUG_VALUE: I2C_ReadByteTwoRegs:u8Xfering <- [DW_OP_plus_uconst 28] [$sp+0]
	@DEBUG_VALUE: I2C_ReadByteTwoRegs:u8SlaveAddr <- [DW_OP_LLVM_entry_value 1] $r1
	@DEBUG_VALUE: I2C_ReadByteTwoRegs:u16DataAddr <- [DW_OP_LLVM_entry_value 1] $r2
	.loc	4 1314 17 is_stmt 1             @ ../../Library/StdDriver/src/i2c.c:1314:17
	ldr	r1, [sp, #12]                   @ 4-byte Reload
	b	.LBB38_7
.Ltmp432:
.LBB38_6:                               @   in Loop: Header=BB38_1 Depth=1
	@DEBUG_VALUE: I2C_ReadByteTwoRegs:u8Ctrl <- $r5
	@DEBUG_VALUE: I2C_ReadByteTwoRegs:i2c <- $r0
	@DEBUG_VALUE: I2C_ReadByteTwoRegs:u8Addr <- [DW_OP_plus_uconst 24] [$sp+0]
	@DEBUG_VALUE: I2C_ReadByteTwoRegs:u8Rdata <- [DW_OP_plus_uconst 20] [$sp+0]
	@DEBUG_VALUE: I2C_ReadByteTwoRegs:u8Xfering <- [DW_OP_plus_uconst 28] [$sp+0]
	@DEBUG_VALUE: I2C_ReadByteTwoRegs:u8SlaveAddr <- [DW_OP_LLVM_entry_value 1] $r1
	@DEBUG_VALUE: I2C_ReadByteTwoRegs:u16DataAddr <- [DW_OP_LLVM_entry_value 1] $r2
	.loc	4 1337 17                       @ ../../Library/StdDriver/src/i2c.c:1337:17
	ldr	r1, [sp, #8]                    @ 4-byte Reload
.Ltmp433:
.LBB38_7:                               @   in Loop: Header=BB38_1 Depth=1
	@DEBUG_VALUE: I2C_ReadByteTwoRegs:u8Ctrl <- $r5
	@DEBUG_VALUE: I2C_ReadByteTwoRegs:i2c <- $r0
	@DEBUG_VALUE: I2C_ReadByteTwoRegs:u8Addr <- [DW_OP_plus_uconst 24] [$sp+0]
	@DEBUG_VALUE: I2C_ReadByteTwoRegs:u8Rdata <- [DW_OP_plus_uconst 20] [$sp+0]
	@DEBUG_VALUE: I2C_ReadByteTwoRegs:u8Xfering <- [DW_OP_plus_uconst 28] [$sp+0]
	@DEBUG_VALUE: I2C_ReadByteTwoRegs:u8SlaveAddr <- [DW_OP_LLVM_entry_value 1] $r1
	@DEBUG_VALUE: I2C_ReadByteTwoRegs:u16DataAddr <- [DW_OP_LLVM_entry_value 1] $r2
	.loc	4 0 0 is_stmt 0                 @ ../../Library/StdDriver/src/i2c.c:0:0
	str	r1, [r0, #8]
.Ltmp434:
.LBB38_8:                               @   in Loop: Header=BB38_1 Depth=1
	@DEBUG_VALUE: I2C_ReadByteTwoRegs:u8Ctrl <- $r5
	@DEBUG_VALUE: I2C_ReadByteTwoRegs:i2c <- $r0
	@DEBUG_VALUE: I2C_ReadByteTwoRegs:u8Addr <- [DW_OP_plus_uconst 24] [$sp+0]
	@DEBUG_VALUE: I2C_ReadByteTwoRegs:u8Rdata <- [DW_OP_plus_uconst 20] [$sp+0]
	@DEBUG_VALUE: I2C_ReadByteTwoRegs:u8Xfering <- [DW_OP_plus_uconst 28] [$sp+0]
	@DEBUG_VALUE: I2C_ReadByteTwoRegs:u8SlaveAddr <- [DW_OP_LLVM_entry_value 1] $r1
	@DEBUG_VALUE: I2C_ReadByteTwoRegs:u16DataAddr <- [DW_OP_LLVM_entry_value 1] $r2
	@DEBUG_VALUE: I2C_ReadByteTwoRegs:u8Ctrl <- 8
	movs	r4, #8
	b	.LBB38_13
.Ltmp435:
.LBB38_9:                               @   in Loop: Header=BB38_1 Depth=1
	@DEBUG_VALUE: I2C_ReadByteTwoRegs:u8Ctrl <- $r5
	@DEBUG_VALUE: I2C_ReadByteTwoRegs:i2c <- $r0
	@DEBUG_VALUE: I2C_ReadByteTwoRegs:u8Addr <- [DW_OP_plus_uconst 24] [$sp+0]
	@DEBUG_VALUE: I2C_ReadByteTwoRegs:u8Rdata <- [DW_OP_plus_uconst 20] [$sp+0]
	@DEBUG_VALUE: I2C_ReadByteTwoRegs:u8Xfering <- [DW_OP_plus_uconst 28] [$sp+0]
	@DEBUG_VALUE: I2C_ReadByteTwoRegs:u8SlaveAddr <- [DW_OP_LLVM_entry_value 1] $r1
	@DEBUG_VALUE: I2C_ReadByteTwoRegs:u16DataAddr <- [DW_OP_LLVM_entry_value 1] $r2
	.loc	4 1318 17 is_stmt 1             @ ../../Library/StdDriver/src/i2c.c:1318:17
	ldr	r1, [sp, #16]                   @ 4-byte Reload
	str	r1, [r0, #8]
.Ltmp436:
	.loc	4 0 0 is_stmt 0                 @ ../../Library/StdDriver/src/i2c.c:0:0
	mov	r1, r3
	mov	r4, r5
.Ltmp437:
	@DEBUG_VALUE: I2C_ReadByteTwoRegs:u8Ctrl <- $r4
	@DEBUG_VALUE: I2C_ReadByteTwoRegs:u8Ctrl <- $r4
	b	.LBB38_14
.Ltmp438:
.LBB38_10:                              @   in Loop: Header=BB38_1 Depth=1
	@DEBUG_VALUE: I2C_ReadByteTwoRegs:u8Ctrl <- $r5
	@DEBUG_VALUE: I2C_ReadByteTwoRegs:i2c <- $r0
	@DEBUG_VALUE: I2C_ReadByteTwoRegs:u8Addr <- [DW_OP_plus_uconst 24] [$sp+0]
	@DEBUG_VALUE: I2C_ReadByteTwoRegs:u8Rdata <- [DW_OP_plus_uconst 20] [$sp+0]
	@DEBUG_VALUE: I2C_ReadByteTwoRegs:u8Xfering <- [DW_OP_plus_uconst 28] [$sp+0]
	@DEBUG_VALUE: I2C_ReadByteTwoRegs:u8SlaveAddr <- [DW_OP_LLVM_entry_value 1] $r1
	@DEBUG_VALUE: I2C_ReadByteTwoRegs:u16DataAddr <- [DW_OP_LLVM_entry_value 1] $r2
	movs	r4, #0
.Ltmp439:
	.loc	4 1326 20 is_stmt 1             @ ../../Library/StdDriver/src/i2c.c:1326:20
	ldr	r1, [sp, #24]                   @ 4-byte Reload
	cbnz	r1, .LBB38_16
.Ltmp440:
@ %bb.11:                               @   in Loop: Header=BB38_1 Depth=1
	@DEBUG_VALUE: I2C_ReadByteTwoRegs:u8Ctrl <- $r5
	@DEBUG_VALUE: I2C_ReadByteTwoRegs:i2c <- $r0
	@DEBUG_VALUE: I2C_ReadByteTwoRegs:u8Addr <- [DW_OP_plus_uconst 24] [$sp+0]
	@DEBUG_VALUE: I2C_ReadByteTwoRegs:u8Rdata <- [DW_OP_plus_uconst 20] [$sp+0]
	@DEBUG_VALUE: I2C_ReadByteTwoRegs:u8Xfering <- [DW_OP_plus_uconst 28] [$sp+0]
	@DEBUG_VALUE: I2C_ReadByteTwoRegs:u8SlaveAddr <- [DW_OP_LLVM_entry_value 1] $r1
	@DEBUG_VALUE: I2C_ReadByteTwoRegs:u16DataAddr <- [DW_OP_LLVM_entry_value 1] $r2
	.loc	4 0 0 is_stmt 0                 @ ../../Library/StdDriver/src/i2c.c:0:0
	mov	r1, r3
	str	r4, [sp, #24]                   @ 4-byte Spill
	ldr	r4, [sp, #4]                    @ 4-byte Reload
	b	.LBB38_14
.Ltmp441:
.LBB38_12:                              @   in Loop: Header=BB38_1 Depth=1
	@DEBUG_VALUE: I2C_ReadByteTwoRegs:u8Ctrl <- $r5
	@DEBUG_VALUE: I2C_ReadByteTwoRegs:i2c <- $r0
	@DEBUG_VALUE: I2C_ReadByteTwoRegs:u8Addr <- [DW_OP_plus_uconst 24] [$sp+0]
	@DEBUG_VALUE: I2C_ReadByteTwoRegs:u8Rdata <- [DW_OP_plus_uconst 20] [$sp+0]
	@DEBUG_VALUE: I2C_ReadByteTwoRegs:u8Xfering <- [DW_OP_plus_uconst 28] [$sp+0]
	@DEBUG_VALUE: I2C_ReadByteTwoRegs:u8SlaveAddr <- [DW_OP_LLVM_entry_value 1] $r1
	@DEBUG_VALUE: I2C_ReadByteTwoRegs:u16DataAddr <- [DW_OP_LLVM_entry_value 1] $r2
	.loc	4 1348 43 is_stmt 1             @ ../../Library/StdDriver/src/i2c.c:1348:43
	ldr	r1, [r0, #8]
	str	r1, [sp, #20]                   @ 4-byte Spill
	movs	r1, #0
.Ltmp442:
	@DEBUG_VALUE: I2C_ReadByteTwoRegs:u8Ctrl <- 24
	@DEBUG_VALUE: I2C_ReadByteTwoRegs:u8Rdata <- undef
	@DEBUG_VALUE: I2C_ReadByteTwoRegs:u8Xfering <- 0
	.loc	4 0 0 is_stmt 0                 @ ../../Library/StdDriver/src/i2c.c:0:0
	str	r1, [sp, #28]                   @ 4-byte Spill
.Ltmp443:
.LBB38_13:                              @   in Loop: Header=BB38_1 Depth=1
	@DEBUG_VALUE: I2C_ReadByteTwoRegs:i2c <- $r0
	@DEBUG_VALUE: I2C_ReadByteTwoRegs:u8Addr <- [DW_OP_plus_uconst 24] [$sp+0]
	@DEBUG_VALUE: I2C_ReadByteTwoRegs:u8SlaveAddr <- [DW_OP_LLVM_entry_value 1] $r1
	@DEBUG_VALUE: I2C_ReadByteTwoRegs:u16DataAddr <- [DW_OP_LLVM_entry_value 1] $r2
	mov	r1, r3
.Ltmp444:
.LBB38_14:                              @   in Loop: Header=BB38_1 Depth=1
	@DEBUG_VALUE: I2C_ReadByteTwoRegs:i2c <- $r0
	@DEBUG_VALUE: I2C_ReadByteTwoRegs:u8SlaveAddr <- [DW_OP_LLVM_entry_value 1] $r1
	@DEBUG_VALUE: I2C_ReadByteTwoRegs:u16DataAddr <- [DW_OP_LLVM_entry_value 1] $r2
	@DEBUG_VALUE: I2C_ReadByteTwoRegs:u8Xfering <- [DW_OP_plus_uconst 28] [$sp+0]
	@DEBUG_VALUE: I2C_ReadByteTwoRegs:u8Err <- $r1
	@DEBUG_VALUE: I2C_ReadByteTwoRegs:u8Rdata <- [DW_OP_plus_uconst 20] [$sp+0]
	@DEBUG_VALUE: I2C_ReadByteTwoRegs:u8Addr <- [DW_OP_plus_uconst 24] [$sp+0]
	@DEBUG_VALUE: I2C_ReadByteTwoRegs:u8Ctrl <- $r4
	.loc	4 1358 9 is_stmt 1              @ ../../Library/StdDriver/src/i2c.c:1358:9
	ldr	r2, [r0]
	movs	r3, #60
	bics	r2, r3
	uxtb	r3, r4
	orrs	r3, r2
	str	r3, [r0]
.Ltmp445:
	.loc	4 1308 5                        @ ../../Library/StdDriver/src/i2c.c:1308:5
	ldr	r2, [sp, #28]                   @ 4-byte Reload
.Ltmp446:
	@DEBUG_VALUE: I2C_ReadByteTwoRegs:u8Xfering <- $r2
	@DEBUG_VALUE: I2C_ReadByteTwoRegs:u8Xfering <- [DW_OP_plus_uconst 28] [$sp+0]
	cbz	r2, .LBB38_17
.Ltmp447:
@ %bb.15:                               @   in Loop: Header=BB38_1 Depth=1
	@DEBUG_VALUE: I2C_ReadByteTwoRegs:u8Ctrl <- $r4
	@DEBUG_VALUE: I2C_ReadByteTwoRegs:u8Err <- $r1
	@DEBUG_VALUE: I2C_ReadByteTwoRegs:i2c <- $r0
	@DEBUG_VALUE: I2C_ReadByteTwoRegs:u8Addr <- [DW_OP_plus_uconst 24] [$sp+0]
	@DEBUG_VALUE: I2C_ReadByteTwoRegs:u8Rdata <- [DW_OP_plus_uconst 20] [$sp+0]
	@DEBUG_VALUE: I2C_ReadByteTwoRegs:u8Xfering <- [DW_OP_plus_uconst 28] [$sp+0]
	@DEBUG_VALUE: I2C_ReadByteTwoRegs:u8SlaveAddr <- [DW_OP_LLVM_entry_value 1] $r1
	@DEBUG_VALUE: I2C_ReadByteTwoRegs:u16DataAddr <- [DW_OP_LLVM_entry_value 1] $r2
	cmp	r1, #0
	mov	r5, r4
.Ltmp448:
	@DEBUG_VALUE: I2C_ReadByteTwoRegs:u8Ctrl <- $r5
	.loc	4 0 5 is_stmt 0                 @ ../../Library/StdDriver/src/i2c.c:0:5
	mov	r3, r1
	.loc	4 1308 5                        @ ../../Library/StdDriver/src/i2c.c:1308:5
	beq	.LBB38_1
	b	.LBB38_17
.Ltmp449:
.LBB38_16:                              @   in Loop: Header=BB38_1 Depth=1
	@DEBUG_VALUE: I2C_ReadByteTwoRegs:u8Ctrl <- $r5
	@DEBUG_VALUE: I2C_ReadByteTwoRegs:i2c <- $r0
	@DEBUG_VALUE: I2C_ReadByteTwoRegs:u8Addr <- [DW_OP_plus_uconst 24] [$sp+0]
	@DEBUG_VALUE: I2C_ReadByteTwoRegs:u8Rdata <- [DW_OP_plus_uconst 20] [$sp+0]
	@DEBUG_VALUE: I2C_ReadByteTwoRegs:u8Xfering <- [DW_OP_plus_uconst 28] [$sp+0]
	@DEBUG_VALUE: I2C_ReadByteTwoRegs:u8SlaveAddr <- [DW_OP_LLVM_entry_value 1] $r1
	@DEBUG_VALUE: I2C_ReadByteTwoRegs:u16DataAddr <- [DW_OP_LLVM_entry_value 1] $r2
	.loc	4 1328 21 is_stmt 1             @ ../../Library/StdDriver/src/i2c.c:1328:21
	ldr	r1, [sp]                        @ 4-byte Reload
	str	r1, [r0, #8]
.Ltmp450:
	@DEBUG_VALUE: I2C_ReadByteTwoRegs:u8Addr <- 0
	.loc	4 0 0 is_stmt 0                 @ ../../Library/StdDriver/src/i2c.c:0:0
	mov	r1, r3
	str	r4, [sp, #24]                   @ 4-byte Spill
	mov	r4, r5
.Ltmp451:
	@DEBUG_VALUE: I2C_ReadByteTwoRegs:u8Ctrl <- $r4
	@DEBUG_VALUE: I2C_ReadByteTwoRegs:u8Ctrl <- $r4
	b	.LBB38_14
.Ltmp452:
.LBB38_17:
	@DEBUG_VALUE: I2C_ReadByteTwoRegs:u8Err <- $r1
	@DEBUG_VALUE: I2C_ReadByteTwoRegs:i2c <- $r0
	@DEBUG_VALUE: I2C_ReadByteTwoRegs:u8Addr <- [DW_OP_plus_uconst 24] [$sp+0]
	@DEBUG_VALUE: I2C_ReadByteTwoRegs:u8Rdata <- [DW_OP_plus_uconst 20] [$sp+0]
	@DEBUG_VALUE: I2C_ReadByteTwoRegs:u8Xfering <- [DW_OP_plus_uconst 28] [$sp+0]
	@DEBUG_VALUE: I2C_ReadByteTwoRegs:u8SlaveAddr <- [DW_OP_LLVM_entry_value 1] $r1
	@DEBUG_VALUE: I2C_ReadByteTwoRegs:u16DataAddr <- [DW_OP_LLVM_entry_value 1] $r2
	@DEBUG_VALUE: I2C_ReadByteTwoRegs:u8Rdata <- [DW_OP_plus_uconst 20] [$sp+0]
	ldr	r0, [sp, #20]                   @ 4-byte Reload
.Ltmp453:
	@DEBUG_VALUE: I2C_ReadByteTwoRegs:i2c <- [DW_OP_LLVM_entry_value 1] $r0
	@DEBUG_VALUE: I2C_ReadByteTwoRegs:u8Rdata <- $r0
	.loc	4 1360 8 is_stmt 1              @ ../../Library/StdDriver/src/i2c.c:1360:8
	cbz	r1, .LBB38_19
.Ltmp454:
@ %bb.18:
	@DEBUG_VALUE: I2C_ReadByteTwoRegs:u8Err <- $r1
	@DEBUG_VALUE: I2C_ReadByteTwoRegs:u8Rdata <- $r0
	@DEBUG_VALUE: I2C_ReadByteTwoRegs:u8Addr <- [DW_OP_plus_uconst 24] [$sp+0]
	@DEBUG_VALUE: I2C_ReadByteTwoRegs:u8Xfering <- [DW_OP_plus_uconst 28] [$sp+0]
	@DEBUG_VALUE: I2C_ReadByteTwoRegs:i2c <- [DW_OP_LLVM_entry_value 1] $r0
	@DEBUG_VALUE: I2C_ReadByteTwoRegs:u8SlaveAddr <- [DW_OP_LLVM_entry_value 1] $r1
	@DEBUG_VALUE: I2C_ReadByteTwoRegs:u16DataAddr <- [DW_OP_LLVM_entry_value 1] $r2
	.loc	4 0 8 is_stmt 0                 @ ../../Library/StdDriver/src/i2c.c:0:8
	movs	r0, #0
.Ltmp455:
.LBB38_19:
	@DEBUG_VALUE: I2C_ReadByteTwoRegs:u8Err <- $r1
	@DEBUG_VALUE: I2C_ReadByteTwoRegs:u8Addr <- [DW_OP_plus_uconst 24] [$sp+0]
	@DEBUG_VALUE: I2C_ReadByteTwoRegs:u8Xfering <- [DW_OP_plus_uconst 28] [$sp+0]
	@DEBUG_VALUE: I2C_ReadByteTwoRegs:i2c <- [DW_OP_LLVM_entry_value 1] $r0
	@DEBUG_VALUE: I2C_ReadByteTwoRegs:u8SlaveAddr <- [DW_OP_LLVM_entry_value 1] $r1
	@DEBUG_VALUE: I2C_ReadByteTwoRegs:u16DataAddr <- [DW_OP_LLVM_entry_value 1] $r2
	@DEBUG_VALUE: I2C_ReadByteTwoRegs:u8Rdata <- $r0
	.loc	4 1364 5 is_stmt 1              @ ../../Library/StdDriver/src/i2c.c:1364:5
	uxtb	r0, r0
.Ltmp456:
	add	sp, #32
.Ltmp457:
	pop	{r4, r5, r6, r7, pc}
.Ltmp458:
.Lfunc_end38:
	.size	I2C_ReadByteTwoRegs, .Lfunc_end38-I2C_ReadByteTwoRegs
	.cfi_endproc
	.cantunwind
	.fnend
                                        @ -- End function
	.section	.text.I2C_ReadMultiBytesTwoRegs,"ax",%progbits
	.hidden	I2C_ReadMultiBytesTwoRegs       @ -- Begin function I2C_ReadMultiBytesTwoRegs
	.globl	I2C_ReadMultiBytesTwoRegs
	.p2align	2
	.type	I2C_ReadMultiBytesTwoRegs,%function
	.code	16                              @ @I2C_ReadMultiBytesTwoRegs
	.thumb_func
I2C_ReadMultiBytesTwoRegs:
.Lfunc_begin39:
	.loc	4 1383 0                        @ ../../Library/StdDriver/src/i2c.c:1383:0
	.fnstart
	.cfi_startproc
@ %bb.0:
	@DEBUG_VALUE: I2C_ReadMultiBytesTwoRegs:i2c <- $r0
	@DEBUG_VALUE: I2C_ReadMultiBytesTwoRegs:u8SlaveAddr <- $r1
	@DEBUG_VALUE: I2C_ReadMultiBytesTwoRegs:u16DataAddr <- $r2
	@DEBUG_VALUE: I2C_ReadMultiBytesTwoRegs:au8Rdata <- $r3
	.save	{r4, r5, r6, r7, lr}
	push	{r4, r5, r6, r7, lr}
	.cfi_def_cfa_offset 20
	.cfi_offset lr, -4
	.cfi_offset r7, -8
	.cfi_offset r6, -12
	.cfi_offset r5, -16
	.cfi_offset r4, -20
	.pad	#40
	sub	sp, #40
	.cfi_def_cfa_offset 60
	str	r3, [sp, #28]                   @ 4-byte Spill
.Ltmp459:
	@DEBUG_VALUE: I2C_ReadMultiBytesTwoRegs:u32rxLen <- 0
	@DEBUG_VALUE: I2C_ReadMultiBytesTwoRegs:u8Ctrl <- 0
	@DEBUG_VALUE: I2C_ReadMultiBytesTwoRegs:u8Addr <- 1
	@DEBUG_VALUE: I2C_ReadMultiBytesTwoRegs:u8Err <- 0
	@DEBUG_VALUE: I2C_ReadMultiBytesTwoRegs:u8Xfering <- 1
	@DEBUG_VALUE: I2C_ReadMultiBytesTwoRegs:u32rLen <- [DW_OP_plus_uconst 60] [$sp+0]
	@DEBUG_VALUE: I2C_ReadMultiBytesTwoRegs:au8Rdata <- [DW_OP_plus_uconst 28] [$sp+0]
	@DEBUG_VALUE: I2C_ReadMultiBytesTwoRegs:u16DataAddr <- $r2
	@DEBUG_VALUE: I2C_ReadMultiBytesTwoRegs:u8SlaveAddr <- $r1
	@DEBUG_VALUE: I2C_ReadMultiBytesTwoRegs:i2c <- $r0
	.loc	4 1387 5 prologue_end           @ ../../Library/StdDriver/src/i2c.c:1387:5
	ldr	r3, [r0]
	movs	r4, #40
	str	r4, [sp, #4]                    @ 4-byte Spill
	orrs	r3, r4
	str	r3, [r0]
.Ltmp460:
	.loc	4 0 0 is_stmt 0                 @ ../../Library/StdDriver/src/i2c.c:0:0
	lsrs	r3, r2, #8
	str	r3, [sp, #8]                    @ 4-byte Spill
	ldr	r3, [sp, #60]
.Ltmp461:
	subs	r3, r3, #1
.Ltmp462:
	str	r3, [sp, #20]                   @ 4-byte Spill
	uxtb	r2, r2
.Ltmp463:
	@DEBUG_VALUE: I2C_ReadMultiBytesTwoRegs:u16DataAddr <- [DW_OP_LLVM_entry_value 1] $r2
	str	r2, [sp]                        @ 4-byte Spill
	lsls	r1, r1, #1
.Ltmp464:
	@DEBUG_VALUE: I2C_ReadMultiBytesTwoRegs:u8SlaveAddr <- [DW_OP_LLVM_entry_value 1] $r1
	uxtb	r2, r1
	str	r2, [sp, #16]                   @ 4-byte Spill
	adds	r1, r1, #1
	uxtb	r1, r1
	str	r1, [sp, #12]                   @ 4-byte Spill
	movs	r1, #1
	movs	r7, #0
	mov	r6, r7
	str	r7, [sp, #32]                   @ 4-byte Spill
	str	r1, [sp, #24]                   @ 4-byte Spill
	str	r1, [sp, #36]                   @ 4-byte Spill
.Ltmp465:
	@DEBUG_VALUE: I2C_ReadMultiBytesTwoRegs:u8Xfering <- [DW_OP_plus_uconst 36] [$sp+0]
	@DEBUG_VALUE: I2C_ReadMultiBytesTwoRegs:u8Err <- $r7
	@DEBUG_VALUE: I2C_ReadMultiBytesTwoRegs:u8Addr <- [DW_OP_plus_uconst 24] [$sp+0]
	@DEBUG_VALUE: I2C_ReadMultiBytesTwoRegs:u8Ctrl <- $r6
	@DEBUG_VALUE: I2C_ReadMultiBytesTwoRegs:u32rxLen <- [DW_OP_plus_uconst 32] [$sp+0]
.LBB39_1:                               @ =>This Inner Loop Header: Depth=1
	@DEBUG_VALUE: I2C_ReadMultiBytesTwoRegs:u8Err <- $r7
	@DEBUG_VALUE: I2C_ReadMultiBytesTwoRegs:u8Ctrl <- $r6
	@DEBUG_VALUE: I2C_ReadMultiBytesTwoRegs:i2c <- $r0
	@DEBUG_VALUE: I2C_ReadMultiBytesTwoRegs:u32rxLen <- [DW_OP_plus_uconst 32] [$sp+0]
	@DEBUG_VALUE: I2C_ReadMultiBytesTwoRegs:u8Addr <- [DW_OP_plus_uconst 24] [$sp+0]
	@DEBUG_VALUE: I2C_ReadMultiBytesTwoRegs:u8Xfering <- [DW_OP_plus_uconst 36] [$sp+0]
	@DEBUG_VALUE: I2C_ReadMultiBytesTwoRegs:au8Rdata <- [DW_OP_plus_uconst 28] [$sp+0]
	@DEBUG_VALUE: I2C_ReadMultiBytesTwoRegs:u32rLen <- [DW_OP_plus_uconst 60] [$sp+0]
	@DEBUG_VALUE: I2C_ReadMultiBytesTwoRegs:u8SlaveAddr <- [DW_OP_LLVM_entry_value 1] $r1
	@DEBUG_VALUE: I2C_ReadMultiBytesTwoRegs:u16DataAddr <- [DW_OP_LLVM_entry_value 1] $r2
	.loc	4 1390 9 is_stmt 1              @ ../../Library/StdDriver/src/i2c.c:1390:9
	ldr	r1, [r0]
	lsls	r1, r1, #28
	bpl	.LBB39_1
.Ltmp466:
@ %bb.2:                                @   in Loop: Header=BB39_1 Depth=1
	@DEBUG_VALUE: I2C_ReadMultiBytesTwoRegs:u8Err <- $r7
	@DEBUG_VALUE: I2C_ReadMultiBytesTwoRegs:u8Ctrl <- $r6
	@DEBUG_VALUE: I2C_ReadMultiBytesTwoRegs:i2c <- $r0
	@DEBUG_VALUE: I2C_ReadMultiBytesTwoRegs:u32rxLen <- [DW_OP_plus_uconst 32] [$sp+0]
	@DEBUG_VALUE: I2C_ReadMultiBytesTwoRegs:u8Addr <- [DW_OP_plus_uconst 24] [$sp+0]
	@DEBUG_VALUE: I2C_ReadMultiBytesTwoRegs:u8Xfering <- [DW_OP_plus_uconst 36] [$sp+0]
	@DEBUG_VALUE: I2C_ReadMultiBytesTwoRegs:au8Rdata <- [DW_OP_plus_uconst 28] [$sp+0]
	@DEBUG_VALUE: I2C_ReadMultiBytesTwoRegs:u32rLen <- [DW_OP_plus_uconst 60] [$sp+0]
	@DEBUG_VALUE: I2C_ReadMultiBytesTwoRegs:u8SlaveAddr <- [DW_OP_LLVM_entry_value 1] $r1
	@DEBUG_VALUE: I2C_ReadMultiBytesTwoRegs:u16DataAddr <- [DW_OP_LLVM_entry_value 1] $r2
	.loc	4 1391 16                       @ ../../Library/StdDriver/src/i2c.c:1391:16
	ldr	r3, [r0, #12]
	.loc	4 1391 9 is_stmt 0              @ ../../Library/StdDriver/src/i2c.c:1391:9
	subs	r3, #8
	movs	r1, #3
	rors	r3, r1
	movs	r5, #24
	movs	r1, #1
	cmp	r3, #10
	bhi	.LBB39_13
.Ltmp467:
@ %bb.3:                                @   in Loop: Header=BB39_1 Depth=1
	@DEBUG_VALUE: I2C_ReadMultiBytesTwoRegs:u8Err <- $r7
	@DEBUG_VALUE: I2C_ReadMultiBytesTwoRegs:u8Ctrl <- $r6
	@DEBUG_VALUE: I2C_ReadMultiBytesTwoRegs:i2c <- $r0
	@DEBUG_VALUE: I2C_ReadMultiBytesTwoRegs:u32rxLen <- [DW_OP_plus_uconst 32] [$sp+0]
	@DEBUG_VALUE: I2C_ReadMultiBytesTwoRegs:u8Addr <- [DW_OP_plus_uconst 24] [$sp+0]
	@DEBUG_VALUE: I2C_ReadMultiBytesTwoRegs:u8Xfering <- [DW_OP_plus_uconst 36] [$sp+0]
	@DEBUG_VALUE: I2C_ReadMultiBytesTwoRegs:au8Rdata <- [DW_OP_plus_uconst 28] [$sp+0]
	@DEBUG_VALUE: I2C_ReadMultiBytesTwoRegs:u32rLen <- [DW_OP_plus_uconst 60] [$sp+0]
	@DEBUG_VALUE: I2C_ReadMultiBytesTwoRegs:u8SlaveAddr <- [DW_OP_LLVM_entry_value 1] $r1
	@DEBUG_VALUE: I2C_ReadMultiBytesTwoRegs:u16DataAddr <- [DW_OP_LLVM_entry_value 1] $r2
	.loc	4 0 9                           @ ../../Library/StdDriver/src/i2c.c:0:9
	lsls	r2, r3, #2
	adr	r4, .LJTI39_0
	adds	r2, r4, r2
	mov	pc, r2
.Ltmp468:
@ %bb.4:
	.p2align	2
.LJTI39_0:
	b.w	.LBB39_5
	b.w	.LBB39_6
	b.w	.LBB39_15
	b.w	.LBB39_13
	b.w	.LBB39_16
	b.w	.LBB39_13
	b.w	.LBB39_13
	b.w	.LBB39_10
	b.w	.LBB39_13
	b.w	.LBB39_8
	b.w	.LBB39_11
.LBB39_5:                               @   in Loop: Header=BB39_1 Depth=1
.Ltmp469:
	@DEBUG_VALUE: I2C_ReadMultiBytesTwoRegs:u8Err <- $r7
	@DEBUG_VALUE: I2C_ReadMultiBytesTwoRegs:u8Ctrl <- $r6
	@DEBUG_VALUE: I2C_ReadMultiBytesTwoRegs:i2c <- $r0
	@DEBUG_VALUE: I2C_ReadMultiBytesTwoRegs:u32rxLen <- [DW_OP_plus_uconst 32] [$sp+0]
	@DEBUG_VALUE: I2C_ReadMultiBytesTwoRegs:u8Addr <- [DW_OP_plus_uconst 24] [$sp+0]
	@DEBUG_VALUE: I2C_ReadMultiBytesTwoRegs:u8Xfering <- [DW_OP_plus_uconst 36] [$sp+0]
	@DEBUG_VALUE: I2C_ReadMultiBytesTwoRegs:au8Rdata <- [DW_OP_plus_uconst 28] [$sp+0]
	@DEBUG_VALUE: I2C_ReadMultiBytesTwoRegs:u32rLen <- [DW_OP_plus_uconst 60] [$sp+0]
	@DEBUG_VALUE: I2C_ReadMultiBytesTwoRegs:u8SlaveAddr <- [DW_OP_LLVM_entry_value 1] $r1
	@DEBUG_VALUE: I2C_ReadMultiBytesTwoRegs:u16DataAddr <- [DW_OP_LLVM_entry_value 1] $r2
	.loc	4 1394 17 is_stmt 1             @ ../../Library/StdDriver/src/i2c.c:1394:17
	ldr	r1, [sp, #16]                   @ 4-byte Reload
	b	.LBB39_7
.Ltmp470:
.LBB39_6:                               @   in Loop: Header=BB39_1 Depth=1
	@DEBUG_VALUE: I2C_ReadMultiBytesTwoRegs:u8Err <- $r7
	@DEBUG_VALUE: I2C_ReadMultiBytesTwoRegs:u8Ctrl <- $r6
	@DEBUG_VALUE: I2C_ReadMultiBytesTwoRegs:i2c <- $r0
	@DEBUG_VALUE: I2C_ReadMultiBytesTwoRegs:u32rxLen <- [DW_OP_plus_uconst 32] [$sp+0]
	@DEBUG_VALUE: I2C_ReadMultiBytesTwoRegs:u8Addr <- [DW_OP_plus_uconst 24] [$sp+0]
	@DEBUG_VALUE: I2C_ReadMultiBytesTwoRegs:u8Xfering <- [DW_OP_plus_uconst 36] [$sp+0]
	@DEBUG_VALUE: I2C_ReadMultiBytesTwoRegs:au8Rdata <- [DW_OP_plus_uconst 28] [$sp+0]
	@DEBUG_VALUE: I2C_ReadMultiBytesTwoRegs:u32rLen <- [DW_OP_plus_uconst 60] [$sp+0]
	@DEBUG_VALUE: I2C_ReadMultiBytesTwoRegs:u8SlaveAddr <- [DW_OP_LLVM_entry_value 1] $r1
	@DEBUG_VALUE: I2C_ReadMultiBytesTwoRegs:u16DataAddr <- [DW_OP_LLVM_entry_value 1] $r2
	.loc	4 1417 17                       @ ../../Library/StdDriver/src/i2c.c:1417:17
	ldr	r1, [sp, #12]                   @ 4-byte Reload
.Ltmp471:
.LBB39_7:                               @   in Loop: Header=BB39_1 Depth=1
	@DEBUG_VALUE: I2C_ReadMultiBytesTwoRegs:u8Err <- $r7
	@DEBUG_VALUE: I2C_ReadMultiBytesTwoRegs:u8Ctrl <- $r6
	@DEBUG_VALUE: I2C_ReadMultiBytesTwoRegs:i2c <- $r0
	@DEBUG_VALUE: I2C_ReadMultiBytesTwoRegs:u32rxLen <- [DW_OP_plus_uconst 32] [$sp+0]
	@DEBUG_VALUE: I2C_ReadMultiBytesTwoRegs:u8Addr <- [DW_OP_plus_uconst 24] [$sp+0]
	@DEBUG_VALUE: I2C_ReadMultiBytesTwoRegs:u8Xfering <- [DW_OP_plus_uconst 36] [$sp+0]
	@DEBUG_VALUE: I2C_ReadMultiBytesTwoRegs:au8Rdata <- [DW_OP_plus_uconst 28] [$sp+0]
	@DEBUG_VALUE: I2C_ReadMultiBytesTwoRegs:u32rLen <- [DW_OP_plus_uconst 60] [$sp+0]
	@DEBUG_VALUE: I2C_ReadMultiBytesTwoRegs:u8SlaveAddr <- [DW_OP_LLVM_entry_value 1] $r1
	@DEBUG_VALUE: I2C_ReadMultiBytesTwoRegs:u16DataAddr <- [DW_OP_LLVM_entry_value 1] $r2
	.loc	4 0 0 is_stmt 0                 @ ../../Library/StdDriver/src/i2c.c:0:0
	str	r1, [r0, #8]
	movs	r5, #8
.Ltmp472:
	@DEBUG_VALUE: I2C_ReadMultiBytesTwoRegs:u8Ctrl <- 8
	b	.LBB39_12
.Ltmp473:
.LBB39_8:                               @   in Loop: Header=BB39_1 Depth=1
	@DEBUG_VALUE: I2C_ReadMultiBytesTwoRegs:u8Err <- $r7
	@DEBUG_VALUE: I2C_ReadMultiBytesTwoRegs:u8Ctrl <- $r6
	@DEBUG_VALUE: I2C_ReadMultiBytesTwoRegs:i2c <- $r0
	@DEBUG_VALUE: I2C_ReadMultiBytesTwoRegs:u32rxLen <- [DW_OP_plus_uconst 32] [$sp+0]
	@DEBUG_VALUE: I2C_ReadMultiBytesTwoRegs:u8Addr <- [DW_OP_plus_uconst 24] [$sp+0]
	@DEBUG_VALUE: I2C_ReadMultiBytesTwoRegs:u8Xfering <- [DW_OP_plus_uconst 36] [$sp+0]
	@DEBUG_VALUE: I2C_ReadMultiBytesTwoRegs:au8Rdata <- [DW_OP_plus_uconst 28] [$sp+0]
	@DEBUG_VALUE: I2C_ReadMultiBytesTwoRegs:u32rLen <- [DW_OP_plus_uconst 60] [$sp+0]
	@DEBUG_VALUE: I2C_ReadMultiBytesTwoRegs:u8SlaveAddr <- [DW_OP_LLVM_entry_value 1] $r1
	@DEBUG_VALUE: I2C_ReadMultiBytesTwoRegs:u16DataAddr <- [DW_OP_LLVM_entry_value 1] $r2
	.loc	4 1428 56 is_stmt 1             @ ../../Library/StdDriver/src/i2c.c:1428:56
	ldr	r1, [r0, #8]
	.loc	4 1428 38 is_stmt 0             @ ../../Library/StdDriver/src/i2c.c:1428:38
	ldr	r2, [sp, #28]                   @ 4-byte Reload
	ldr	r3, [sp, #32]                   @ 4-byte Reload
	strb	r1, [r2, r3]
	.loc	4 1428 34                       @ ../../Library/StdDriver/src/i2c.c:1428:34
	adds	r3, r3, #1
.Ltmp474:
	@DEBUG_VALUE: I2C_ReadMultiBytesTwoRegs:u32rxLen <- $r3
	.loc	4 1429 20 is_stmt 1             @ ../../Library/StdDriver/src/i2c.c:1429:20
	ldr	r1, [sp, #20]                   @ 4-byte Reload
	str	r3, [sp, #32]                   @ 4-byte Spill
.Ltmp475:
	@DEBUG_VALUE: I2C_ReadMultiBytesTwoRegs:u32rxLen <- [DW_OP_plus_uconst 32] [$sp+0]
	cmp	r3, r1
	blo	.LBB39_10
.Ltmp476:
@ %bb.9:                                @   in Loop: Header=BB39_1 Depth=1
	@DEBUG_VALUE: I2C_ReadMultiBytesTwoRegs:u8Err <- $r7
	@DEBUG_VALUE: I2C_ReadMultiBytesTwoRegs:u8Ctrl <- $r6
	@DEBUG_VALUE: I2C_ReadMultiBytesTwoRegs:i2c <- $r0
	@DEBUG_VALUE: I2C_ReadMultiBytesTwoRegs:u32rxLen <- [DW_OP_plus_uconst 32] [$sp+0]
	@DEBUG_VALUE: I2C_ReadMultiBytesTwoRegs:u8Addr <- [DW_OP_plus_uconst 24] [$sp+0]
	@DEBUG_VALUE: I2C_ReadMultiBytesTwoRegs:u8Xfering <- [DW_OP_plus_uconst 36] [$sp+0]
	@DEBUG_VALUE: I2C_ReadMultiBytesTwoRegs:au8Rdata <- [DW_OP_plus_uconst 28] [$sp+0]
	@DEBUG_VALUE: I2C_ReadMultiBytesTwoRegs:u32rLen <- [DW_OP_plus_uconst 60] [$sp+0]
	@DEBUG_VALUE: I2C_ReadMultiBytesTwoRegs:u8SlaveAddr <- [DW_OP_LLVM_entry_value 1] $r1
	@DEBUG_VALUE: I2C_ReadMultiBytesTwoRegs:u16DataAddr <- [DW_OP_LLVM_entry_value 1] $r2
	.loc	4 0 20 is_stmt 0                @ ../../Library/StdDriver/src/i2c.c:0:20
	movs	r5, #8
	b	.LBB39_12
.Ltmp477:
.LBB39_10:                              @   in Loop: Header=BB39_1 Depth=1
	@DEBUG_VALUE: I2C_ReadMultiBytesTwoRegs:u8Err <- $r7
	@DEBUG_VALUE: I2C_ReadMultiBytesTwoRegs:u8Ctrl <- $r6
	@DEBUG_VALUE: I2C_ReadMultiBytesTwoRegs:i2c <- $r0
	@DEBUG_VALUE: I2C_ReadMultiBytesTwoRegs:u32rxLen <- [DW_OP_plus_uconst 32] [$sp+0]
	@DEBUG_VALUE: I2C_ReadMultiBytesTwoRegs:u8Addr <- [DW_OP_plus_uconst 24] [$sp+0]
	@DEBUG_VALUE: I2C_ReadMultiBytesTwoRegs:u8Xfering <- [DW_OP_plus_uconst 36] [$sp+0]
	@DEBUG_VALUE: I2C_ReadMultiBytesTwoRegs:au8Rdata <- [DW_OP_plus_uconst 28] [$sp+0]
	@DEBUG_VALUE: I2C_ReadMultiBytesTwoRegs:u32rLen <- [DW_OP_plus_uconst 60] [$sp+0]
	@DEBUG_VALUE: I2C_ReadMultiBytesTwoRegs:u8SlaveAddr <- [DW_OP_LLVM_entry_value 1] $r1
	@DEBUG_VALUE: I2C_ReadMultiBytesTwoRegs:u16DataAddr <- [DW_OP_LLVM_entry_value 1] $r2
	movs	r5, #12
	b	.LBB39_12
.Ltmp478:
.LBB39_11:                              @   in Loop: Header=BB39_1 Depth=1
	@DEBUG_VALUE: I2C_ReadMultiBytesTwoRegs:u8Err <- $r7
	@DEBUG_VALUE: I2C_ReadMultiBytesTwoRegs:u8Ctrl <- $r6
	@DEBUG_VALUE: I2C_ReadMultiBytesTwoRegs:i2c <- $r0
	@DEBUG_VALUE: I2C_ReadMultiBytesTwoRegs:u32rxLen <- [DW_OP_plus_uconst 32] [$sp+0]
	@DEBUG_VALUE: I2C_ReadMultiBytesTwoRegs:u8Addr <- [DW_OP_plus_uconst 24] [$sp+0]
	@DEBUG_VALUE: I2C_ReadMultiBytesTwoRegs:u8Xfering <- [DW_OP_plus_uconst 36] [$sp+0]
	@DEBUG_VALUE: I2C_ReadMultiBytesTwoRegs:au8Rdata <- [DW_OP_plus_uconst 28] [$sp+0]
	@DEBUG_VALUE: I2C_ReadMultiBytesTwoRegs:u32rLen <- [DW_OP_plus_uconst 60] [$sp+0]
	@DEBUG_VALUE: I2C_ReadMultiBytesTwoRegs:u8SlaveAddr <- [DW_OP_LLVM_entry_value 1] $r1
	@DEBUG_VALUE: I2C_ReadMultiBytesTwoRegs:u16DataAddr <- [DW_OP_LLVM_entry_value 1] $r2
	.loc	4 1439 56 is_stmt 1             @ ../../Library/StdDriver/src/i2c.c:1439:56
	ldr	r1, [r0, #8]
	.loc	4 1439 38 is_stmt 0             @ ../../Library/StdDriver/src/i2c.c:1439:38
	ldr	r2, [sp, #28]                   @ 4-byte Reload
	ldr	r3, [sp, #32]                   @ 4-byte Reload
	strb	r1, [r2, r3]
	.loc	4 1439 34                       @ ../../Library/StdDriver/src/i2c.c:1439:34
	adds	r3, r3, #1
.Ltmp479:
	@DEBUG_VALUE: I2C_ReadMultiBytesTwoRegs:u32rxLen <- $r3
	.loc	4 0 34                          @ ../../Library/StdDriver/src/i2c.c:0:34
	str	r3, [sp, #32]                   @ 4-byte Spill
.Ltmp480:
	@DEBUG_VALUE: I2C_ReadMultiBytesTwoRegs:u32rxLen <- [DW_OP_plus_uconst 32] [$sp+0]
	@DEBUG_VALUE: I2C_ReadMultiBytesTwoRegs:u32rxLen <- [DW_OP_plus_uconst 32] [$sp+0]
	@DEBUG_VALUE: I2C_ReadMultiBytesTwoRegs:u32rxLen <- [DW_OP_plus_uconst 32] [$sp+0]
	movs	r1, #0
.Ltmp481:
	@DEBUG_VALUE: I2C_ReadMultiBytesTwoRegs:u8Ctrl <- 24
	@DEBUG_VALUE: I2C_ReadMultiBytesTwoRegs:u8Xfering <- 0
	str	r1, [sp, #36]                   @ 4-byte Spill
.Ltmp482:
.LBB39_12:                              @   in Loop: Header=BB39_1 Depth=1
	@DEBUG_VALUE: I2C_ReadMultiBytesTwoRegs:u8Err <- $r7
	@DEBUG_VALUE: I2C_ReadMultiBytesTwoRegs:i2c <- $r0
	@DEBUG_VALUE: I2C_ReadMultiBytesTwoRegs:u32rxLen <- [DW_OP_plus_uconst 32] [$sp+0]
	@DEBUG_VALUE: I2C_ReadMultiBytesTwoRegs:u8Addr <- [DW_OP_plus_uconst 24] [$sp+0]
	@DEBUG_VALUE: I2C_ReadMultiBytesTwoRegs:au8Rdata <- [DW_OP_plus_uconst 28] [$sp+0]
	@DEBUG_VALUE: I2C_ReadMultiBytesTwoRegs:u32rLen <- [DW_OP_plus_uconst 60] [$sp+0]
	@DEBUG_VALUE: I2C_ReadMultiBytesTwoRegs:u8SlaveAddr <- [DW_OP_LLVM_entry_value 1] $r1
	@DEBUG_VALUE: I2C_ReadMultiBytesTwoRegs:u16DataAddr <- [DW_OP_LLVM_entry_value 1] $r2
	mov	r1, r7
.Ltmp483:
.LBB39_13:                              @   in Loop: Header=BB39_1 Depth=1
	@DEBUG_VALUE: I2C_ReadMultiBytesTwoRegs:u8Err <- $r7
	@DEBUG_VALUE: I2C_ReadMultiBytesTwoRegs:i2c <- $r0
	@DEBUG_VALUE: I2C_ReadMultiBytesTwoRegs:u32rxLen <- [DW_OP_plus_uconst 32] [$sp+0]
	@DEBUG_VALUE: I2C_ReadMultiBytesTwoRegs:au8Rdata <- [DW_OP_plus_uconst 28] [$sp+0]
	@DEBUG_VALUE: I2C_ReadMultiBytesTwoRegs:u32rLen <- [DW_OP_plus_uconst 60] [$sp+0]
	@DEBUG_VALUE: I2C_ReadMultiBytesTwoRegs:u8SlaveAddr <- [DW_OP_LLVM_entry_value 1] $r1
	@DEBUG_VALUE: I2C_ReadMultiBytesTwoRegs:u16DataAddr <- [DW_OP_LLVM_entry_value 1] $r2
	@DEBUG_VALUE: I2C_ReadMultiBytesTwoRegs:u8Xfering <- [DW_OP_plus_uconst 36] [$sp+0]
	@DEBUG_VALUE: I2C_ReadMultiBytesTwoRegs:u8Err <- $r1
	@DEBUG_VALUE: I2C_ReadMultiBytesTwoRegs:u8Addr <- [DW_OP_plus_uconst 24] [$sp+0]
	@DEBUG_VALUE: I2C_ReadMultiBytesTwoRegs:u8Ctrl <- $r5
	@DEBUG_VALUE: I2C_ReadMultiBytesTwoRegs:u32rxLen <- [DW_OP_plus_uconst 32] [$sp+0]
	.loc	4 1449 9 is_stmt 1              @ ../../Library/StdDriver/src/i2c.c:1449:9
	ldr	r2, [r0]
	movs	r3, #60
	bics	r2, r3
	uxtb	r3, r5
	orrs	r3, r2
	str	r3, [r0]
.Ltmp484:
	.loc	4 1388 5                        @ ../../Library/StdDriver/src/i2c.c:1388:5
	ldr	r2, [sp, #36]                   @ 4-byte Reload
.Ltmp485:
	@DEBUG_VALUE: I2C_ReadMultiBytesTwoRegs:u8Xfering <- $r2
	@DEBUG_VALUE: I2C_ReadMultiBytesTwoRegs:u8Xfering <- [DW_OP_plus_uconst 36] [$sp+0]
	cbz	r2, .LBB39_19
.Ltmp486:
@ %bb.14:                               @   in Loop: Header=BB39_1 Depth=1
	@DEBUG_VALUE: I2C_ReadMultiBytesTwoRegs:u8Ctrl <- $r5
	@DEBUG_VALUE: I2C_ReadMultiBytesTwoRegs:u8Err <- $r1
	@DEBUG_VALUE: I2C_ReadMultiBytesTwoRegs:i2c <- $r0
	@DEBUG_VALUE: I2C_ReadMultiBytesTwoRegs:u32rxLen <- [DW_OP_plus_uconst 32] [$sp+0]
	@DEBUG_VALUE: I2C_ReadMultiBytesTwoRegs:u8Addr <- [DW_OP_plus_uconst 24] [$sp+0]
	@DEBUG_VALUE: I2C_ReadMultiBytesTwoRegs:u8Xfering <- [DW_OP_plus_uconst 36] [$sp+0]
	@DEBUG_VALUE: I2C_ReadMultiBytesTwoRegs:au8Rdata <- [DW_OP_plus_uconst 28] [$sp+0]
	@DEBUG_VALUE: I2C_ReadMultiBytesTwoRegs:u32rLen <- [DW_OP_plus_uconst 60] [$sp+0]
	@DEBUG_VALUE: I2C_ReadMultiBytesTwoRegs:u8SlaveAddr <- [DW_OP_LLVM_entry_value 1] $r1
	@DEBUG_VALUE: I2C_ReadMultiBytesTwoRegs:u16DataAddr <- [DW_OP_LLVM_entry_value 1] $r2
	cmp	r1, #0
	mov	r6, r5
.Ltmp487:
	@DEBUG_VALUE: I2C_ReadMultiBytesTwoRegs:u8Ctrl <- $r6
	@DEBUG_VALUE: I2C_ReadMultiBytesTwoRegs:u8Ctrl <- $r6
	.loc	4 0 5 is_stmt 0                 @ ../../Library/StdDriver/src/i2c.c:0:5
	mov	r7, r1
.Ltmp488:
	@DEBUG_VALUE: I2C_ReadMultiBytesTwoRegs:u8Err <- $r7
	@DEBUG_VALUE: I2C_ReadMultiBytesTwoRegs:u8Err <- $r7
	.loc	4 1388 5                        @ ../../Library/StdDriver/src/i2c.c:1388:5
	beq	.LBB39_1
	b	.LBB39_19
.Ltmp489:
.LBB39_15:                              @   in Loop: Header=BB39_1 Depth=1
	@DEBUG_VALUE: I2C_ReadMultiBytesTwoRegs:u8Err <- $r7
	@DEBUG_VALUE: I2C_ReadMultiBytesTwoRegs:u8Ctrl <- $r6
	@DEBUG_VALUE: I2C_ReadMultiBytesTwoRegs:i2c <- $r0
	@DEBUG_VALUE: I2C_ReadMultiBytesTwoRegs:u32rxLen <- [DW_OP_plus_uconst 32] [$sp+0]
	@DEBUG_VALUE: I2C_ReadMultiBytesTwoRegs:u8Addr <- [DW_OP_plus_uconst 24] [$sp+0]
	@DEBUG_VALUE: I2C_ReadMultiBytesTwoRegs:u8Xfering <- [DW_OP_plus_uconst 36] [$sp+0]
	@DEBUG_VALUE: I2C_ReadMultiBytesTwoRegs:au8Rdata <- [DW_OP_plus_uconst 28] [$sp+0]
	@DEBUG_VALUE: I2C_ReadMultiBytesTwoRegs:u32rLen <- [DW_OP_plus_uconst 60] [$sp+0]
	@DEBUG_VALUE: I2C_ReadMultiBytesTwoRegs:u8SlaveAddr <- [DW_OP_LLVM_entry_value 1] $r1
	@DEBUG_VALUE: I2C_ReadMultiBytesTwoRegs:u16DataAddr <- [DW_OP_LLVM_entry_value 1] $r2
	.loc	4 1398 17 is_stmt 1             @ ../../Library/StdDriver/src/i2c.c:1398:17
	ldr	r1, [sp, #8]                    @ 4-byte Reload
	str	r1, [r0, #8]
.Ltmp490:
	.loc	4 0 0 is_stmt 0                 @ ../../Library/StdDriver/src/i2c.c:0:0
	mov	r1, r7
	mov	r5, r6
.Ltmp491:
	@DEBUG_VALUE: I2C_ReadMultiBytesTwoRegs:u8Ctrl <- $r5
	@DEBUG_VALUE: I2C_ReadMultiBytesTwoRegs:u8Ctrl <- $r5
	b	.LBB39_13
.Ltmp492:
.LBB39_16:                              @   in Loop: Header=BB39_1 Depth=1
	@DEBUG_VALUE: I2C_ReadMultiBytesTwoRegs:u8Err <- $r7
	@DEBUG_VALUE: I2C_ReadMultiBytesTwoRegs:u8Ctrl <- $r6
	@DEBUG_VALUE: I2C_ReadMultiBytesTwoRegs:i2c <- $r0
	@DEBUG_VALUE: I2C_ReadMultiBytesTwoRegs:u32rxLen <- [DW_OP_plus_uconst 32] [$sp+0]
	@DEBUG_VALUE: I2C_ReadMultiBytesTwoRegs:u8Addr <- [DW_OP_plus_uconst 24] [$sp+0]
	@DEBUG_VALUE: I2C_ReadMultiBytesTwoRegs:u8Xfering <- [DW_OP_plus_uconst 36] [$sp+0]
	@DEBUG_VALUE: I2C_ReadMultiBytesTwoRegs:au8Rdata <- [DW_OP_plus_uconst 28] [$sp+0]
	@DEBUG_VALUE: I2C_ReadMultiBytesTwoRegs:u32rLen <- [DW_OP_plus_uconst 60] [$sp+0]
	@DEBUG_VALUE: I2C_ReadMultiBytesTwoRegs:u8SlaveAddr <- [DW_OP_LLVM_entry_value 1] $r1
	@DEBUG_VALUE: I2C_ReadMultiBytesTwoRegs:u16DataAddr <- [DW_OP_LLVM_entry_value 1] $r2
	movs	r3, #0
.Ltmp493:
	.loc	4 1406 20 is_stmt 1             @ ../../Library/StdDriver/src/i2c.c:1406:20
	ldr	r1, [sp, #24]                   @ 4-byte Reload
	cbnz	r1, .LBB39_18
.Ltmp494:
@ %bb.17:                               @   in Loop: Header=BB39_1 Depth=1
	@DEBUG_VALUE: I2C_ReadMultiBytesTwoRegs:u8Err <- $r7
	@DEBUG_VALUE: I2C_ReadMultiBytesTwoRegs:u8Ctrl <- $r6
	@DEBUG_VALUE: I2C_ReadMultiBytesTwoRegs:i2c <- $r0
	@DEBUG_VALUE: I2C_ReadMultiBytesTwoRegs:u32rxLen <- [DW_OP_plus_uconst 32] [$sp+0]
	@DEBUG_VALUE: I2C_ReadMultiBytesTwoRegs:u8Addr <- [DW_OP_plus_uconst 24] [$sp+0]
	@DEBUG_VALUE: I2C_ReadMultiBytesTwoRegs:u8Xfering <- [DW_OP_plus_uconst 36] [$sp+0]
	@DEBUG_VALUE: I2C_ReadMultiBytesTwoRegs:au8Rdata <- [DW_OP_plus_uconst 28] [$sp+0]
	@DEBUG_VALUE: I2C_ReadMultiBytesTwoRegs:u32rLen <- [DW_OP_plus_uconst 60] [$sp+0]
	@DEBUG_VALUE: I2C_ReadMultiBytesTwoRegs:u8SlaveAddr <- [DW_OP_LLVM_entry_value 1] $r1
	@DEBUG_VALUE: I2C_ReadMultiBytesTwoRegs:u16DataAddr <- [DW_OP_LLVM_entry_value 1] $r2
	.loc	4 0 0 is_stmt 0                 @ ../../Library/StdDriver/src/i2c.c:0:0
	mov	r1, r7
	str	r3, [sp, #24]                   @ 4-byte Spill
	ldr	r5, [sp, #4]                    @ 4-byte Reload
	b	.LBB39_13
.Ltmp495:
.LBB39_18:                              @   in Loop: Header=BB39_1 Depth=1
	@DEBUG_VALUE: I2C_ReadMultiBytesTwoRegs:u8Err <- $r7
	@DEBUG_VALUE: I2C_ReadMultiBytesTwoRegs:u8Ctrl <- $r6
	@DEBUG_VALUE: I2C_ReadMultiBytesTwoRegs:i2c <- $r0
	@DEBUG_VALUE: I2C_ReadMultiBytesTwoRegs:u32rxLen <- [DW_OP_plus_uconst 32] [$sp+0]
	@DEBUG_VALUE: I2C_ReadMultiBytesTwoRegs:u8Addr <- [DW_OP_plus_uconst 24] [$sp+0]
	@DEBUG_VALUE: I2C_ReadMultiBytesTwoRegs:u8Xfering <- [DW_OP_plus_uconst 36] [$sp+0]
	@DEBUG_VALUE: I2C_ReadMultiBytesTwoRegs:au8Rdata <- [DW_OP_plus_uconst 28] [$sp+0]
	@DEBUG_VALUE: I2C_ReadMultiBytesTwoRegs:u32rLen <- [DW_OP_plus_uconst 60] [$sp+0]
	@DEBUG_VALUE: I2C_ReadMultiBytesTwoRegs:u8SlaveAddr <- [DW_OP_LLVM_entry_value 1] $r1
	@DEBUG_VALUE: I2C_ReadMultiBytesTwoRegs:u16DataAddr <- [DW_OP_LLVM_entry_value 1] $r2
	.loc	4 1408 21 is_stmt 1             @ ../../Library/StdDriver/src/i2c.c:1408:21
	ldr	r1, [sp]                        @ 4-byte Reload
	str	r1, [r0, #8]
.Ltmp496:
	@DEBUG_VALUE: I2C_ReadMultiBytesTwoRegs:u8Addr <- 0
	.loc	4 0 0 is_stmt 0                 @ ../../Library/StdDriver/src/i2c.c:0:0
	mov	r1, r7
	str	r3, [sp, #24]                   @ 4-byte Spill
	mov	r5, r6
.Ltmp497:
	@DEBUG_VALUE: I2C_ReadMultiBytesTwoRegs:u8Ctrl <- $r5
	@DEBUG_VALUE: I2C_ReadMultiBytesTwoRegs:u8Ctrl <- $r5
	b	.LBB39_13
.Ltmp498:
.LBB39_19:
	@DEBUG_VALUE: I2C_ReadMultiBytesTwoRegs:i2c <- $r0
	@DEBUG_VALUE: I2C_ReadMultiBytesTwoRegs:u32rxLen <- [DW_OP_plus_uconst 32] [$sp+0]
	@DEBUG_VALUE: I2C_ReadMultiBytesTwoRegs:u8Addr <- [DW_OP_plus_uconst 24] [$sp+0]
	@DEBUG_VALUE: I2C_ReadMultiBytesTwoRegs:u8Xfering <- [DW_OP_plus_uconst 36] [$sp+0]
	@DEBUG_VALUE: I2C_ReadMultiBytesTwoRegs:au8Rdata <- [DW_OP_plus_uconst 28] [$sp+0]
	@DEBUG_VALUE: I2C_ReadMultiBytesTwoRegs:u32rLen <- [DW_OP_plus_uconst 60] [$sp+0]
	@DEBUG_VALUE: I2C_ReadMultiBytesTwoRegs:u8SlaveAddr <- [DW_OP_LLVM_entry_value 1] $r1
	@DEBUG_VALUE: I2C_ReadMultiBytesTwoRegs:u16DataAddr <- [DW_OP_LLVM_entry_value 1] $r2
	@DEBUG_VALUE: I2C_ReadMultiBytesTwoRegs:u32rxLen <- [DW_OP_plus_uconst 32] [$sp+0]
	.loc	4 1451 5 is_stmt 1              @ ../../Library/StdDriver/src/i2c.c:1451:5
	ldr	r0, [sp, #32]                   @ 4-byte Reload
.Ltmp499:
	@DEBUG_VALUE: I2C_ReadMultiBytesTwoRegs:i2c <- [DW_OP_LLVM_entry_value 1] $r0
	add	sp, #40
.Ltmp500:
	pop	{r4, r5, r6, r7, pc}
.Ltmp501:
.Lfunc_end39:
	.size	I2C_ReadMultiBytesTwoRegs, .Lfunc_end39-I2C_ReadMultiBytesTwoRegs
	.cfi_endproc
	.cantunwind
	.fnend
                                        @ -- End function
	.section	".note.GNU-stack","",%progbits
	.eabi_attribute	30, 1	@ Tag_ABI_optimization_goals
	.ARM_attribute	16, 1	@ Tag_AV_eba