	.text
	.syntax unified
	.eabi_attribute	67, "2.09"	@ Tag_conformance
	.cpu	cortex-m23
	.eabi_attribute	6, 16	@ Tag_CPU_arch
	.eabi_attribute	7, 77	@ Tag_CPU_arch_profile
	.eabi_attribute	8, 0	@ Tag_ARM_ISA_use
	.eabi_attribute	9, 3	@ Tag_THUMB_ISA_use
	.eabi_attribute	34, 0	@ Tag_CPU_unaligned_access
	.eabi_attribute	17, 1	@ Tag_ABI_PCS_GOT_use
	.eabi_attribute	20, 2	@ Tag_ABI_FP_denormal
	.eabi_attribute	21, 0	@ Tag_ABI_FP_exceptions
	.eabi_attribute	23, 1	@ Tag_ABI_FP_number_model
	.eabi_attribute	24, 1	@ Tag_ABI_align_needed
	.eabi_attribute	25, 1	@ Tag_ABI_align_preserved
	.eabi_attribute	38, 1	@ Tag_ABI_FP_16bit_format
	.eabi_attribute	18, 4	@ Tag_ABI_PCS_wchar_t
	.eabi_attribute	26, 2	@ Tag_ABI_enum_size
	.eabi_attribute	14, 0	@ Tag_ABI_PCS_R9_use
	.file	"main_ns.c"
	.file	1 "C:\\" "Keil_v5\\ARM\\ARMCLANG\\Bin\\..\\include\\stdint.h"
	.file	2 "C:\\Users\\shw26\\OneDrive\\Desktop\\2021\\2021-1\\\354\272\241\354\212\244\355\206\244\353\224\224\354\236\220\354\235\2702\\Nuvoton\\M2351_BSP_v3.00.004\\M2351Series_BSP_CMSIS_V3.00.004\\MyProject\\NonSecure" "main_ns.c"
	.file	3 "C:\\Users\\shw26\\OneDrive\\Desktop\\2021\\2021-1\\\354\272\241\354\212\244\355\206\244\353\224\224\354\236\220\354\235\2702\\Nuvoton\\M2351_BSP_v3.00.004\\M2351Series_BSP_CMSIS_V3.00.004\\MyProject\\NonSecure" "../../Library/Device/Nuvoton/M2351/Include\\M2351.h"
	.file	4 "C:\\Users\\shw26\\OneDrive\\Desktop\\2021\\2021-1\\\354\272\241\354\212\244\355\206\244\353\224\224\354\236\220\354\235\2702\\Nuvoton\\M2351_BSP_v3.00.004\\M2351Series_BSP_CMSIS_V3.00.004\\MyProject\\NonSecure" "../../Library/Device/Nuvoton/M2351/Include/gpio_reg.h"
	.file	5 "C:\\Users\\shw26\\OneDrive\\Desktop\\2021\\2021-1\\\354\272\241\354\212\244\355\206\244\353\224\224\354\236\220\354\235\2702\\Nuvoton\\M2351_BSP_v3.00.004\\M2351Series_BSP_CMSIS_V3.00.004\\MyProject\\NonSecure" "../../Library/CMSIS/Include\\core_armv8mbl.h"
	.section	.text.LED_On,"ax",%progbits
	.hidden	LED_On                          @ -- Begin function LED_On
	.globl	LED_On
	.p2align	2
	.type	LED_On,%function
	.code	16                              @ @LED_On
	.thumb_func
LED_On:
.Lfunc_begin0:
	.loc	2 21 0                          @ main_ns.c:21:0
	.fnstart
	.cfi_sections .debug_frame
	.cfi_startproc
@ %bb.0:
	.save	{r7, lr}
	push	{r7, lr}
	.cfi_def_cfa_offset 8
	.cfi_offset lr, -4
	.cfi_offset r7, -8
	.pad	#8
	sub	sp, #8
	.cfi_def_cfa_offset 16
	str	r0, [sp, #4]
.Ltmp0:
	.loc	2 22 5 prologue_end             @ main_ns.c:22:5
	ldr	r0, __arm_cp.0_0
	bl	printf
	ldr	r1, __arm_cp.0_1
	movs	r2, #0
	.loc	2 23 12                         @ main_ns.c:23:12
	str	r2, [r1]
	.loc	2 24 1                          @ main_ns.c:24:1
	add	sp, #8
	pop	{r7, pc}
.Ltmp1:
	.p2align	2
@ %bb.1:
	.loc	2 0 1 is_stmt 0                 @ main_ns.c:0:1
__arm_cp.0_0:
	.long	.L.str
.Lcpi_end0:
	.size	__arm_cp.0_0, .Lcpi_end0-__arm_cp.0_0
__arm_cp.0_1:
	.long	1342195840                      @ 0x50004880
.Lcpi_end1:
	.size	__arm_cp.0_1, .Lcpi_end1-__arm_cp.0_1
.Lfunc_end0:
	.size	LED_On, .Lfunc_end0-LED_On
	.cfi_endproc
	.cantunwind
	.fnend
                                        @ -- End function
	.section	.text.LED_Off,"ax",%progbits
	.hidden	LED_Off                         @ -- Begin function LED_Off
	.globl	LED_Off
	.p2align	2
	.type	LED_Off,%function
	.code	16                              @ @LED_Off
	.thumb_func
LED_Off:
.Lfunc_begin1:
	.loc	2 27 0 is_stmt 1                @ main_ns.c:27:0
	.fnstart
	.cfi_startproc
@ %bb.0:
	.save	{r7, lr}
	push	{r7, lr}
	.cfi_def_cfa_offset 8
	.cfi_offset lr, -4
	.cfi_offset r7, -8
	.pad	#8
	sub	sp, #8
	.cfi_def_cfa_offset 16
	str	r0, [sp, #4]
.Ltmp2:
	.loc	2 28 5 prologue_end             @ main_ns.c:28:5
	ldr	r0, __arm_cp.1_0
	bl	printf
	ldr	r1, __arm_cp.1_1
	movs	r2, #1
	.loc	2 29 12                         @ main_ns.c:29:12
	str	r2, [r1]
	.loc	2 30 1                          @ main_ns.c:30:1
	add	sp, #8
	pop	{r7, pc}
.Ltmp3:
	.p2align	2
@ %bb.1:
	.loc	2 0 1 is_stmt 0                 @ main_ns.c:0:1
__arm_cp.1_0:
	.long	.L.str.1
.Lcpi_end2:
	.size	__arm_cp.1_0, .Lcpi_end2-__arm_cp.1_0
__arm_cp.1_1:
	.long	1342195840                      @ 0x50004880
.Lcpi_end3:
	.size	__arm_cp.1_1, .Lcpi_end3-__arm_cp.1_1
.Lfunc_end1:
	.size	LED_Off, .Lfunc_end1-LED_Off
	.cfi_endproc
	.cantunwind
	.fnend
                                        @ -- End function
	.section	.text.SysTick_Handler,"ax",%progbits
	.hidden	SysTick_Handler                 @ -- Begin function SysTick_Handler
	.globl	SysTick_Handler
	.p2align	1
	.type	SysTick_Handler,%function
	.code	16                              @ @SysTick_Handler
	.thumb_func
SysTick_Handler:
.Lfunc_begin2:
	.loc	2 36 0 is_stmt 1                @ main_ns.c:36:0
	.fnstart
	.cfi_startproc
@ %bb.0:
	.loc	2 101 1 prologue_end            @ main_ns.c:101:1
	bx	lr
.Ltmp4:
.Lfunc_end2:
	.size	SysTick_Handler, .Lfunc_end2-SysTick_Handler
	.cfi_endproc
	.cantunwind
	.fnend
                                        @ -- End function
	.section	.text.SYS_Init,"ax",%progbits
	.hidden	SYS_Init                        @ -- Begin function SYS_Init
	.globl	SYS_Init
	.p2align	1
	.type	SYS_Init,%function
	.code	16                              @ @SYS_Init
	.thumb_func
SYS_Init:
.Lfunc_begin3:
	.loc	2 104 0                         @ main_ns.c:104:0
	.fnstart
	.cfi_startproc
@ %bb.0:
	.loc	2 145 1 prologue_end            @ main_ns.c:145:1
	bx	lr
.Ltmp5:
.Lfunc_end3:
	.size	SYS_Init, .Lfunc_end3-SYS_Init
	.cfi_endproc
	.cantunwind
	.fnend
                                        @ -- End function
	.section	.text.main,"ax",%progbits
	.hidden	main                            @ -- Begin function main
	.globl	main
	.p2align	2
	.type	main,%function
	.code	16                              @ @main
	.thumb_func
main:
.Lfunc_begin4:
	.loc	2 167 0                         @ main_ns.c:167:0
	.fnstart
	.cfi_startproc
@ %bb.0:
	.save	{r7, lr}
	push	{r7, lr}
	.cfi_def_cfa_offset 8
	.cfi_offset lr, -4
	.cfi_offset r7, -8
	.pad	#48
	sub	sp, #48
	.cfi_def_cfa_offset 56
.Ltmp6:
	.loc	2 168 5 prologue_end            @ main_ns.c:168:5
	ldr	r0, __arm_cp.4_0
	str	r0, [sp, #44]                   @ 4-byte Spill
	bl	printf
	.loc	2 169 5                         @ main_ns.c:169:5
	ldr	r1, __arm_cp.4_1
	str	r0, [sp, #40]                   @ 4-byte Spill
	mov	r0, r1
	bl	printf
	.loc	2 170 5                         @ main_ns.c:170:5
	ldr	r1, [sp, #44]                   @ 4-byte Reload
	str	r0, [sp, #36]                   @ 4-byte Spill
	mov	r0, r1
	bl	printf
	.loc	2 177 23                        @ main_ns.c:177:23
	str	r0, [sp, #32]                   @ 4-byte Spill
	bl	GetSystemCoreClock
	.loc	2 177 21 is_stmt 0              @ main_ns.c:177:21
	ldr	r1, __arm_cp.4_2
	str	r0, [r1]
	.loc	2 180 20 is_stmt 1              @ main_ns.c:180:20
	ldr	r0, [r1]
	movs	r1, #100
	.loc	2 180 36 is_stmt 0              @ main_ns.c:180:36
	udiv	r0, r0, r1
	.loc	2 180 5                         @ main_ns.c:180:5
	bl	SysTick_Config
	.loc	2 182 5 is_stmt 1               @ main_ns.c:182:5
	ldr	r1, __arm_cp.4_3
	str	r0, [sp, #28]                   @ 4-byte Spill
	mov	r0, r1
	bl	printf
	.loc	2 183 5                         @ main_ns.c:183:5
	ldr	r1, [sp, #44]                   @ 4-byte Reload
	str	r0, [sp, #24]                   @ 4-byte Spill
	mov	r0, r1
	bl	printf
	.loc	2 184 5                         @ main_ns.c:184:5
	ldr	r1, __arm_cp.4_4
	str	r0, [sp, #20]                   @ 4-byte Spill
	mov	r0, r1
	bl	printf
	.loc	2 185 5                         @ main_ns.c:185:5
	ldr	r1, [sp, #44]                   @ 4-byte Reload
	str	r0, [sp, #16]                   @ 4-byte Spill
	mov	r0, r1
	bl	printf
	.loc	2 187 3                         @ main_ns.c:187:3
	str	r0, [sp, #12]                   @ 4-byte Spill
	bl	WIFI_PORT_Start
	ldr	r0, __arm_cp.4_5
	movw	r1, #20480
.Ltmp7:
	.loc	2 189 4                         @ main_ns.c:189:4
	str	r1, [r0]
	movs	r0, #5
	lsls	r0, r0, #22
	ldr	r1, __arm_cp.4_6
	str	r0, [r1]
	ldr	r0, __arm_cp.4_7
	movs	r1, #1
.Ltmp8:
	.loc	2 191 11                        @ main_ns.c:191:11
	str	r1, [r0]
	ldr	r2, __arm_cp.4_8
	.loc	2 193 5                         @ main_ns.c:193:5
	str	r0, [sp, #8]                    @ 4-byte Spill
	mov	r0, r2
	str	r1, [sp, #4]                    @ 4-byte Spill
	bl	CLK_SysTickLongDelay
	ldr	r0, __arm_cp.4_9
	.loc	2 196 19                        @ main_ns.c:196:19
	ldr	r1, [sp, #4]                    @ 4-byte Reload
	str	r1, [r0]
	ldr	r0, __arm_cp.4_10
	.loc	2 198 5                         @ main_ns.c:198:5
	bl	CLK_SysTickLongDelay
	movs	r0, #0
	.loc	2 200 13                        @ main_ns.c:200:13
	ldr	r1, [sp, #8]                    @ 4-byte Reload
	str	r0, [r1]
	.loc	2 231 1                         @ main_ns.c:231:1
	add	sp, #48
	pop	{r7, pc}
.Ltmp9:
	.p2align	2
@ %bb.1:
	.loc	2 0 1 is_stmt 0                 @ main_ns.c:0:1
__arm_cp.4_0:
	.long	.L.str.2
.Lcpi_end4:
	.size	__arm_cp.4_0, .Lcpi_end4-__arm_cp.4_0
__arm_cp.4_1:
	.long	.L.str.3
.Lcpi_end5:
	.size	__arm_cp.4_1, .Lcpi_end5-__arm_cp.4_1
__arm_cp.4_2:
	.long	SystemCoreClock
.Lcpi_end6:
	.size	__arm_cp.4_2, .Lcpi_end6-__arm_cp.4_2
__arm_cp.4_3:
	.long	.L.str.4
.Lcpi_end7:
	.size	__arm_cp.4_3, .Lcpi_end7-__arm_cp.4_3
__arm_cp.4_4:
	.long	.L.str.5
.Lcpi_end8:
	.size	__arm_cp.4_4, .Lcpi_end8-__arm_cp.4_4
__arm_cp.4_5:
	.long	1342193856                      @ 0x500040c0
.Lcpi_end9:
	.size	__arm_cp.4_5, .Lcpi_end9-__arm_cp.4_5
__arm_cp.4_6:
	.long	1342193792                      @ 0x50004080
.Lcpi_end10:
	.size	__arm_cp.4_6, .Lcpi_end10-__arm_cp.4_6
__arm_cp.4_7:
	.long	1342195932                      @ 0x500048dc
.Lcpi_end11:
	.size	__arm_cp.4_7, .Lcpi_end11-__arm_cp.4_7
__arm_cp.4_8:
	.long	3000000                         @ 0x2dc6c0
.Lcpi_end12:
	.size	__arm_cp.4_8, .Lcpi_end12-__arm_cp.4_8
__arm_cp.4_9:
	.long	1342195928                      @ 0x500048d8
.Lcpi_end13:
	.size	__arm_cp.4_9, .Lcpi_end13-__arm_cp.4_9
__arm_cp.4_10:
	.long	1000000                         @ 0xf4240
.Lcpi_end14:
	.size	__arm_cp.4_10, .Lcpi_end14-__arm_cp.4_10
.Lfunc_end4:
	.size	main, .Lfunc_end4-main
	.cfi_endproc
	.cantunwind
	.fnend
                                        @ -- End function
	.section	.text.SysTick_Config,"ax",%progbits
	.p2align	2                               @ -- Begin function SysTick_Config
	.type	SysTick_Config,%function
	.code	16                              @ @SysTick_Config
	.thumb_func
SysTick_Config:
.Lfunc_begin5:
	.loc	5 1820 0 is_stmt 1              @ ../../Library/CMSIS/Include\core_armv8mbl.h:1820:0
	.fnstart
	.cfi_startproc
@ %bb.0:
	.save	{r7, lr}
	push	{r7, lr}
	.cfi_def_cfa_offset 8
	.cfi_offset lr, -4
	.cfi_offset r7, -8
	.pad	#16
	sub	sp, #16
	.cfi_def_cfa_offset 24
	str	r0, [sp, #8]
.Ltmp10:
	.loc	5 1821 8 prologue_end           @ ../../Library/CMSIS/Include\core_armv8mbl.h:1821:8
	ldr	r0, [sp, #8]
	.loc	5 1821 14 is_stmt 0             @ ../../Library/CMSIS/Include\core_armv8mbl.h:1821:14
	subs	r0, r0, #1
.Ltmp11:
	.loc	5 1821 7                        @ ../../Library/CMSIS/Include\core_armv8mbl.h:1821:7
	lsrs	r0, r0, #24
	cmp	r0, #0
	beq	.LBB5_2
	b	.LBB5_1
.LBB5_1:
	.loc	5 0 7                           @ ../../Library/CMSIS/Include\core_armv8mbl.h:0:7
	movs	r0, #1
.Ltmp12:
	.loc	5 1823 5 is_stmt 1              @ ../../Library/CMSIS/Include\core_armv8mbl.h:1823:5
	str	r0, [sp, #12]
	b	.LBB5_3
.Ltmp13:
.LBB5_2:
	.loc	5 1826 31                       @ ../../Library/CMSIS/Include\core_armv8mbl.h:1826:31
	ldr	r0, [sp, #8]
	.loc	5 1826 37 is_stmt 0             @ ../../Library/CMSIS/Include\core_armv8mbl.h:1826:37
	subs	r0, r0, #1
	ldr	r1, __arm_cp.5_0
	.loc	5 1826 18                       @ ../../Library/CMSIS/Include\core_armv8mbl.h:1826:18
	str	r0, [r1]
	movs	r0, #0
	mvns	r1, r0
	movs	r2, #3
	.loc	5 1827 3 is_stmt 1              @ ../../Library/CMSIS/Include\core_armv8mbl.h:1827:3
	str	r0, [sp, #4]                    @ 4-byte Spill
	mov	r0, r1
	mov	r1, r2
	bl	__NVIC_SetPriority
	ldr	r0, __arm_cp.5_1
	.loc	5 1828 18                       @ ../../Library/CMSIS/Include\core_armv8mbl.h:1828:18
	ldr	r1, [sp, #4]                    @ 4-byte Reload
	str	r1, [r0]
	ldr	r0, __arm_cp.5_2
	movs	r2, #7
	.loc	5 1829 18                       @ ../../Library/CMSIS/Include\core_armv8mbl.h:1829:18
	str	r2, [r0]
	.loc	5 1832 3                        @ ../../Library/CMSIS/Include\core_armv8mbl.h:1832:3
	str	r1, [sp, #12]
	b	.LBB5_3
.LBB5_3:
	.loc	5 1833 1                        @ ../../Library/CMSIS/Include\core_armv8mbl.h:1833:1
	ldr	r0, [sp, #12]
	add	sp, #16
	pop	{r7, pc}
.Ltmp14:
	.p2align	2
@ %bb.4:
	.loc	5 0 1 is_stmt 0                 @ ../../Library/CMSIS/Include\core_armv8mbl.h:0:1
__arm_cp.5_0:
	.long	3758153748                      @ 0xe000e014
.Lcpi_end15:
	.size	__arm_cp.5_0, .Lcpi_end15-__arm_cp.5_0
__arm_cp.5_1:
	.long	3758153752                      @ 0xe000e018
.Lcpi_end16:
	.size	__arm_cp.5_1, .Lcpi_end16-__arm_cp.5_1
__arm_cp.5_2:
	.long	3758153744                      @ 0xe000e010
.Lcpi_end17:
	.size	__arm_cp.5_2, .Lcpi_end17-__arm_cp.5_2
.Lfunc_end5:
	.size	SysTick_Config, .Lfunc_end5-SysTick_Config
	.cfi_endproc
	.cantunwind
	.fnend
                                        @ -- End function
	.section	.text.CLK_SysTickLongDelay,"ax",%progbits
	.p2align	2                               @ -- Begin function CLK_SysTickLongDelay
	.type	CLK_SysTickLongDelay,%function
	.code	16                              @ @CLK_SysTickLongDelay
	.thumb_func
CLK_SysTickLongDelay:
.Lfunc_begin6:
	.file	6 "C:\\Users\\shw26\\OneDrive\\Desktop\\2021\\2021-1\\\354\272\241\354\212\244\355\206\244\353\224\224\354\236\220\354\235\2702\\Nuvoton\\M2351_BSP_v3.00.004\\M2351Series_BSP_CMSIS_V3.00.004\\MyProject\\NonSecure" "../../Library/StdDriver/inc\\clk.h"
	.loc	6 728 0 is_stmt 1               @ ../../Library/StdDriver/inc\clk.h:728:0
	.fnstart
	.cfi_startproc
@ %bb.0:
	.pad	#8
	sub	sp, #8
	.cfi_def_cfa_offset 8
	str	r0, [sp, #4]
	movs	r0, #1
	lsls	r0, r0, #16
.Ltmp15:
	.loc	6 732 14 prologue_end           @ ../../Library/StdDriver/inc\clk.h:732:14
	str	r0, [sp]
	.loc	6 734 5                         @ ../../Library/StdDriver/inc\clk.h:734:5
	b	.LBB6_1
.LBB6_1:                                @ =>This Loop Header: Depth=1
                                        @     Child Loop BB6_5 Depth 2
.Ltmp16:
	.loc	6 736 12                        @ ../../Library/StdDriver/inc\clk.h:736:12
	ldr	r0, [sp, #4]
	.loc	6 736 17 is_stmt 0              @ ../../Library/StdDriver/inc\clk.h:736:17
	ldr	r1, [sp]
.Ltmp17:
	.loc	6 736 12                        @ ../../Library/StdDriver/inc\clk.h:736:12
	cmp	r0, r1
	bls	.LBB6_3
	b	.LBB6_2
.LBB6_2:                                @   in Loop: Header=BB6_1 Depth=1
.Ltmp18:
	.loc	6 738 19 is_stmt 1              @ ../../Library/StdDriver/inc\clk.h:738:19
	ldr	r0, [sp]
	.loc	6 738 16 is_stmt 0              @ ../../Library/StdDriver/inc\clk.h:738:16
	ldr	r1, [sp, #4]
	subs	r0, r1, r0
	str	r0, [sp, #4]
	.loc	6 739 9 is_stmt 1               @ ../../Library/StdDriver/inc\clk.h:739:9
	b	.LBB6_4
.Ltmp19:
.LBB6_3:                                @   in Loop: Header=BB6_1 Depth=1
	.loc	6 742 24                        @ ../../Library/StdDriver/inc\clk.h:742:24
	ldr	r0, [sp, #4]
	.loc	6 742 22 is_stmt 0              @ ../../Library/StdDriver/inc\clk.h:742:22
	str	r0, [sp]
	movs	r0, #0
	.loc	6 743 16 is_stmt 1              @ ../../Library/StdDriver/inc\clk.h:743:16
	str	r0, [sp, #4]
	b	.LBB6_4
.Ltmp20:
.LBB6_4:                                @   in Loop: Header=BB6_1 Depth=1
	.loc	6 746 25                        @ ../../Library/StdDriver/inc\clk.h:746:25
	ldr	r0, [sp]
	.loc	6 746 36 is_stmt 0              @ ../../Library/StdDriver/inc\clk.h:746:36
	ldr	r1, __arm_cp.6_0
	ldr	r1, [r1]
	.loc	6 746 34                        @ ../../Library/StdDriver/inc\clk.h:746:34
	muls	r1, r0, r1
	ldr	r0, __arm_cp.6_1
	.loc	6 746 23                        @ ../../Library/StdDriver/inc\clk.h:746:23
	str	r1, [r0]
	ldr	r0, __arm_cp.6_2
	movs	r1, #0
	.loc	6 747 23 is_stmt 1              @ ../../Library/StdDriver/inc\clk.h:747:23
	str	r1, [r0]
	ldr	r0, __arm_cp.6_3
	movs	r1, #5
	.loc	6 748 23                        @ ../../Library/StdDriver/inc\clk.h:748:23
	str	r1, [r0]
	.loc	6 751 9                         @ ../../Library/StdDriver/inc\clk.h:751:9
	b	.LBB6_5
.LBB6_5:                                @   Parent Loop BB6_1 Depth=1
                                        @ =>  This Inner Loop Header: Depth=2
	.loc	6 0 9 is_stmt 0                 @ ../../Library/StdDriver/inc\clk.h:0:9
	ldr	r0, __arm_cp.6_3
	.loc	6 751 25                        @ ../../Library/StdDriver/inc\clk.h:751:25
	ldr	r0, [r0]
	.loc	6 751 9                         @ ../../Library/StdDriver/inc\clk.h:751:9
	lsls	r0, r0, #15
	cmp	r0, #0
	bmi	.LBB6_7
	b	.LBB6_6
.LBB6_6:                                @   in Loop: Header=BB6_5 Depth=2
	b	.LBB6_5
.LBB6_7:                                @   in Loop: Header=BB6_1 Depth=1
	.loc	6 0 9                           @ ../../Library/StdDriver/inc\clk.h:0:9
	ldr	r0, __arm_cp.6_3
	movs	r1, #0
	.loc	6 754 23 is_stmt 1              @ ../../Library/StdDriver/inc\clk.h:754:23
	str	r1, [r0]
	.loc	6 756 5                         @ ../../Library/StdDriver/inc\clk.h:756:5
	b	.LBB6_8
.Ltmp21:
.LBB6_8:                                @   in Loop: Header=BB6_1 Depth=1
	.loc	6 757 11                        @ ../../Library/StdDriver/inc\clk.h:757:11
	ldr	r0, [sp, #4]
.Ltmp22:
	.loc	6 756 5                         @ ../../Library/StdDriver/inc\clk.h:756:5
	cmp	r0, #0
	bne	.LBB6_1
	b	.LBB6_9
.Ltmp23:
.LBB6_9:
	.loc	6 759 1                         @ ../../Library/StdDriver/inc\clk.h:759:1
	add	sp, #8
	bx	lr
.Ltmp24:
	.p2align	2
@ %bb.10:
	.loc	6 0 1 is_stmt 0                 @ ../../Library/StdDriver/inc\clk.h:0:1
__arm_cp.6_0:
	.long	CyclesPerUs
.Lcpi_end18:
	.size	__arm_cp.6_0, .Lcpi_end18-__arm_cp.6_0
__arm_cp.6_1:
	.long	3758153748                      @ 0xe000e014
.Lcpi_end19:
	.size	__arm_cp.6_1, .Lcpi_end19-__arm_cp.6_1
__arm_cp.6_2:
	.long	3758153752                      @ 0xe000e018
.Lcpi_end20:
	.size	__arm_cp.6_2, .Lcpi_end20-__arm_cp.6_2
__arm_cp.6_3:
	.long	3758153744                      @ 0xe000e010
.Lcpi_end21:
	.size	__arm_cp.6_3, .Lcpi_end21-__arm_cp.6_3
.Lfunc_end6:
	.size	CLK_SysTickLongDelay, .Lfunc_end6-CLK_SysTickLongDelay
	.cfi_endproc
	.cantunwind
	.fnend
                                        @ -- End function
	.section	.text.__NVIC_SetPriority,"ax",%progbits
	.p2align	2                               @ -- Begin function __NVIC_SetPriority
	.type	__NVIC_SetPriority,%function
	.code	16                              @ @__NVIC_SetPriority
	.thumb_func
__NVIC_SetPriority:
.Lfunc_begin7:
	.loc	5 1471 0 is_stmt 1              @ ../../Library/CMSIS/Include\core_armv8mbl.h:1471:0
	.fnstart
	.cfi_startproc
@ %bb.0:
	.save	{r4, r5, r6, lr}
	push	{r4, r5, r6, lr}
	.cfi_def_cfa_offset 16
	.cfi_offset lr, -4
	.cfi_offset r6, -8
	.cfi_offset r5, -12
	.cfi_offset r4, -16
	.pad	#8
	sub	sp, #8
	.cfi_def_cfa_offset 24
	str	r0, [sp, #4]
	str	r1, [sp]
.Ltmp25:
	.loc	5 1472 17 prologue_end          @ ../../Library/CMSIS/Include\core_armv8mbl.h:1472:17
	ldr	r0, [sp, #4]
.Ltmp26:
	.loc	5 1472 7 is_stmt 0              @ ../../Library/CMSIS/Include\core_armv8mbl.h:1472:7
	cmp	r0, #0
	bmi	.LBB7_2
	b	.LBB7_1
.LBB7_1:
.Ltmp27:
	.loc	5 1474 55 is_stmt 1             @ ../../Library/CMSIS/Include\core_armv8mbl.h:1474:55
	ldr	r0, [sp, #4]
	movs	r1, #3
	mvns	r1, r1
	ands	r0, r1
	ldr	r2, __arm_cp.7_1
	.loc	5 1474 45 is_stmt 0             @ ../../Library/CMSIS/Include\core_armv8mbl.h:1474:45
	ldr	r0, [r0, r2]
	.loc	5 1474 85                       @ ../../Library/CMSIS/Include\core_armv8mbl.h:1474:85
	ldr	r3, [sp, #4]
	lsls	r4, r3, #30
	lsrs	r4, r4, #27
	movs	r5, #255
	.loc	5 1474 82                       @ ../../Library/CMSIS/Include\core_armv8mbl.h:1474:82
	lsls	r5, r4
	.loc	5 1474 71                       @ ../../Library/CMSIS/Include\core_armv8mbl.h:1474:71
	bics	r0, r5
	.loc	5 1475 11 is_stmt 1             @ ../../Library/CMSIS/Include\core_armv8mbl.h:1475:11
	ldr	r5, [sp]
	.loc	5 1475 20 is_stmt 0             @ ../../Library/CMSIS/Include\core_armv8mbl.h:1475:20
	lsls	r5, r5, #6
	.loc	5 1475 48                       @ ../../Library/CMSIS/Include\core_armv8mbl.h:1475:48
	uxtb	r5, r5
	.loc	5 1475 68                       @ ../../Library/CMSIS/Include\core_armv8mbl.h:1475:68
	lsls	r5, r4
	.loc	5 1474 104 is_stmt 1            @ ../../Library/CMSIS/Include\core_armv8mbl.h:1474:104
	orrs	r0, r5
	.loc	5 1474 15 is_stmt 0             @ ../../Library/CMSIS/Include\core_armv8mbl.h:1474:15
	ands	r3, r1
	.loc	5 1474 31                       @ ../../Library/CMSIS/Include\core_armv8mbl.h:1474:31
	str	r0, [r3, r2]
	.loc	5 1476 3 is_stmt 1              @ ../../Library/CMSIS/Include\core_armv8mbl.h:1476:3
	b	.LBB7_3
.Ltmp28:
.LBB7_2:
	.loc	5 1479 55                       @ ../../Library/CMSIS/Include\core_armv8mbl.h:1479:55
	ldr	r0, [sp, #4]
	movs	r1, #15
	ands	r0, r1
	subs	r0, #8
	movs	r2, #3
	mvns	r2, r2
	ands	r0, r2
	ldr	r3, __arm_cp.7_0
	.loc	5 1479 45 is_stmt 0             @ ../../Library/CMSIS/Include\core_armv8mbl.h:1479:45
	ldr	r0, [r0, r3]
	.loc	5 1479 85                       @ ../../Library/CMSIS/Include\core_armv8mbl.h:1479:85
	ldr	r4, [sp, #4]
	lsls	r5, r4, #30
	lsrs	r5, r5, #27
	movs	r6, #255
	.loc	5 1479 82                       @ ../../Library/CMSIS/Include\core_armv8mbl.h:1479:82
	lsls	r6, r5
	.loc	5 1479 71                       @ ../../Library/CMSIS/Include\core_armv8mbl.h:1479:71
	bics	r0, r6
	.loc	5 1480 11 is_stmt 1             @ ../../Library/CMSIS/Include\core_armv8mbl.h:1480:11
	ldr	r6, [sp]
	.loc	5 1480 20 is_stmt 0             @ ../../Library/CMSIS/Include\core_armv8mbl.h:1480:20
	lsls	r6, r6, #6
	.loc	5 1480 48                       @ ../../Library/CMSIS/Include\core_armv8mbl.h:1480:48
	uxtb	r6, r6
	.loc	5 1480 68                       @ ../../Library/CMSIS/Include\core_armv8mbl.h:1480:68
	lsls	r6, r5
	.loc	5 1479 104 is_stmt 1            @ ../../Library/CMSIS/Include\core_armv8mbl.h:1479:104
	orrs	r0, r6
	.loc	5 1479 15 is_stmt 0             @ ../../Library/CMSIS/Include\core_armv8mbl.h:1479:15
	ands	r4, r1
	subs	r4, #8
	ands	r4, r2
	.loc	5 1479 31                       @ ../../Library/CMSIS/Include\core_armv8mbl.h:1479:31
	str	r0, [r4, r3]
	b	.LBB7_3
.Ltmp29:
.LBB7_3:
	.loc	5 1482 1 is_stmt 1              @ ../../Library/CMSIS/Include\core_armv8mbl.h:1482:1
	add	sp, #8
	pop	{r4, r5, r6, pc}
.Ltmp30:
	.p2align	2
@ %bb.4:
	.loc	5 0 1 is_stmt 0                 @ ../../Library/CMSIS/Include\core_armv8mbl.h:0:1
__arm_cp.7_0:
	.long	3758157084                      @ 0xe000ed1c
.Lcpi_end22:
	.size	__arm_cp.7_0, .Lcpi_end22-__arm_cp.7_0
__arm_cp.7_1:
	.long	3758154752                      @ 0xe000e400
.Lcpi_end23:
	.size	__arm_cp.7_1, .Lcpi_end23-__arm_cp.7_1
.Lfunc_end7:
	.size	__NVIC_SetPriority, .Lfunc_end7-__NVIC_SetPriority
	.cfi_endproc
	.cantunwind
	.fnend
                                        @ -- End function
	.type	.L.str,%object                  @ @.str
	.section	.rodata.str1.1,"aMS",%progbits,1
.L.str:
	.asciz	"NS LED On call by NS\n"
	.size	.L.str, 22

	.type	.L.str.1,%object                @ @.str.1
.L.str.1:
	.asciz	"NS LED Off call by NS\n"
	.size	.L.str.1, 23

	.type	SysTick_Handler.u32Ticks,%object @ @SysTick_Handler.u32Ticks
	.section	.bss.SysTick_Handler.u32Ticks,"aw",%nobits
	.p2align	2
SysTick_Handler.u32Ticks:
	.long	0                               @ 0x0
	.size	SysTick_Handler.u32Ticks, 4

	.type	.L.str.2,%object                @ @.str.2
	.section	.rodata.str1.1,"aMS",%progbits,1
.L.str.2:
	.asciz	"+---------------------------------------------+\n"
	.size	.L.str.2, 49

	.type	.L.str.3,%object                @ @.str.3
.L.str.3:
	.asciz	"|             Non-Secure is running ...       |\n"
	.size	.L.str.3, 49

	.type	.L.str.4,%object                @ @.str.4
.L.str.4:
	.asciz	"\n"
	.size	.L.str.4, 2

	.type	.L.str.5,%object                @ @.str.5
.L.str.5:
	.asciz	"|              ESP8266 WiFi Module Demo       |\n"
	.size	.L.str.5, 49

	.type	__ARM_use_no_argv,%object       @ @__ARM_use_no_argv
	.section	.ARM.use_no_argv,"aw",%progbits
	.globl	__ARM_use_no_argv
	.p2align	2
__ARM_use_no_argv:
	.long	1                               @ 0x1
	.size	__ARM_use_no_argv, 4

	.globl	__ARM_use_no_argv
	.section	".note.GNU-stack","",%progbits
	.eabi_attribute	30, 6	@ Tag_ABI_optimization_goals
	.ARM_attribute	16, 1	@ Tag_AV_eba