	.text
	.syntax unified
	.eabi_attribute	67, "2.09"	@ Tag_conformance
	.cpu	cortex-m23
	.eabi_attribute	6, 16	@ Tag_CPU_arch
	.eabi_attribute	7, 77	@ Tag_CPU_arch_profile
	.eabi_attribute	8, 0	@ Tag_ARM_ISA_use
	.eabi_attribute	9, 3	@ Tag_THUMB_ISA_use
	.eabi_attribute	34, 0	@ Tag_CPU_unaligned_access
	.eabi_attribute	17, 1	@ Tag_ABI_PCS_GOT_use
	.eabi_attribute	20, 2	@ Tag_ABI_FP_denormal
	.eabi_attribute	21, 0	@ Tag_ABI_FP_exceptions
	.eabi_attribute	23, 1	@ Tag_ABI_FP_number_model
	.eabi_attribute	24, 1	@ Tag_ABI_align_needed
	.eabi_attribute	25, 1	@ Tag_ABI_align_preserved
	.eabi_attribute	38, 1	@ Tag_ABI_FP_16bit_format
	.eabi_attribute	18, 4	@ Tag_ABI_PCS_wchar_t
	.eabi_attribute	26, 2	@ Tag_ABI_enum_size
	.eabi_attribute	14, 0	@ Tag_ABI_PCS_R9_use
	.file	"wifi.c"
	.file	1 "C:\\Users\\shw26\\OneDrive\\Desktop\\2021\\2021-1\\\354\272\241\354\212\244\355\206\244\353\224\224\354\236\220\354\235\2702\\Nuvoton\\M2351_BSP_v3.00.004\\M2351Series_BSP_CMSIS_V3.00.004\\MyProject\\NonSecure" "wifi.c"
	.file	2 "C:\\" "Keil_v5\\ARM\\ARMCLANG\\Bin\\..\\include\\stdint.h"
	.file	3 "C:\\Users\\shw26\\OneDrive\\Desktop\\2021\\2021-1\\\354\272\241\354\212\244\355\206\244\353\224\224\354\236\220\354\235\2702\\Nuvoton\\M2351_BSP_v3.00.004\\M2351Series_BSP_CMSIS_V3.00.004\\MyProject\\NonSecure" "../../Library/Device/Nuvoton/M2351/Include/clk_reg.h"
	.file	4 "C:\\Users\\shw26\\OneDrive\\Desktop\\2021\\2021-1\\\354\272\241\354\212\244\355\206\244\353\224\224\354\236\220\354\235\2702\\Nuvoton\\M2351_BSP_v3.00.004\\M2351Series_BSP_CMSIS_V3.00.004\\MyProject\\NonSecure" "../../Library/Device/Nuvoton/M2351/Include/uart_reg.h"
	.file	5 "C:\\Users\\shw26\\OneDrive\\Desktop\\2021\\2021-1\\\354\272\241\354\212\244\355\206\244\353\224\224\354\236\220\354\235\2702\\Nuvoton\\M2351_BSP_v3.00.004\\M2351Series_BSP_CMSIS_V3.00.004\\MyProject\\NonSecure" "../../Library/Device/Nuvoton/M2351/Include/sys_reg.h"
	.file	6 "C:\\Users\\shw26\\OneDrive\\Desktop\\2021\\2021-1\\\354\272\241\354\212\244\355\206\244\353\224\224\354\236\220\354\235\2702\\Nuvoton\\M2351_BSP_v3.00.004\\M2351Series_BSP_CMSIS_V3.00.004\\MyProject\\NonSecure" "../../Library/Device/Nuvoton/M2351/Include/gpio_reg.h"
	.file	7 "C:\\Users\\shw26\\OneDrive\\Desktop\\2021\\2021-1\\\354\272\241\354\212\244\355\206\244\353\224\224\354\236\220\354\235\2702\\Nuvoton\\M2351_BSP_v3.00.004\\M2351Series_BSP_CMSIS_V3.00.004\\MyProject\\NonSecure" "../../Library/CMSIS/Include\\core_armv8mbl.h"
	.section	.text.WIFI_PORT_Init,"ax",%progbits
	.hidden	WIFI_PORT_Init                  @ -- Begin function WIFI_PORT_Init
	.globl	WIFI_PORT_Init
	.p2align	2
	.type	WIFI_PORT_Init,%function
	.code	16                              @ @WIFI_PORT_Init
	.thumb_func
WIFI_PORT_Init:
.Lfunc_begin0:
	.loc	1 62 0                          @ wifi.c:62:0
	.fnstart
	.cfi_sections .debug_frame
	.cfi_startproc
@ %bb.0:
	ldr	r0, __arm_cp.0_0
.Ltmp0:
	.loc	1 63 18 prologue_end            @ wifi.c:63:18
	ldr	r1, [r0]
	movs	r2, #1
	lsls	r2, r2, #19
	orrs	r1, r2
	str	r1, [r0]
	ldr	r0, __arm_cp.0_1
	.loc	1 64 26                         @ wifi.c:64:26
	ldr	r1, [r0]
	movs	r2, #3
	lsls	r3, r2, #26
	.loc	1 64 65 is_stmt 0               @ wifi.c:64:65
	orrs	r1, r3
	.loc	1 64 18                         @ wifi.c:64:18
	str	r1, [r0]
	ldr	r0, __arm_cp.0_2
	.loc	1 66 21 is_stmt 1               @ wifi.c:66:21
	str	r2, [r0]
	ldr	r0, __arm_cp.0_3
	ldr	r1, __arm_cp.0_4
	.loc	1 67 21                         @ wifi.c:67:21
	str	r1, [r0]
	ldr	r0, __arm_cp.0_5
	.loc	1 71 27                         @ wifi.c:71:27
	ldr	r1, [r0]
	movs	r2, #85
	.loc	1 71 36 is_stmt 0               @ wifi.c:71:36
	orrs	r1, r2
	movs	r2, #170
	.loc	1 71 98                         @ wifi.c:71:98
	bics	r1, r2
	.loc	1 71 19                         @ wifi.c:71:19
	str	r1, [r0]
	.loc	1 72 1 is_stmt 1                @ wifi.c:72:1
	bx	lr
.Ltmp1:
	.p2align	2
@ %bb.1:
	.loc	1 0 1 is_stmt 0                 @ wifi.c:0:1
__arm_cp.0_0:
	.long	1073742344                      @ 0x40000208
.Lcpi_end0:
	.size	__arm_cp.0_0, .Lcpi_end0-__arm_cp.0_0
__arm_cp.0_1:
	.long	1073742364                      @ 0x4000021c
.Lcpi_end1:
	.size	__arm_cp.0_1, .Lcpi_end1-__arm_cp.0_1
__arm_cp.0_2:
	.long	1342648332                      @ 0x5007300c
.Lcpi_end2:
	.size	__arm_cp.0_2, .Lcpi_end2-__arm_cp.0_2
__arm_cp.0_3:
	.long	1342648356                      @ 0x50073024
.Lcpi_end3:
	.size	__arm_cp.0_3, .Lcpi_end3-__arm_cp.0_3
__arm_cp.0_4:
	.long	805306470                       @ 0x30000066
.Lcpi_end4:
	.size	__arm_cp.0_4, .Lcpi_end4-__arm_cp.0_4
__arm_cp.0_5:
	.long	1073741896                      @ 0x40000048
.Lcpi_end5:
	.size	__arm_cp.0_5, .Lcpi_end5-__arm_cp.0_5
.Lfunc_end0:
	.size	WIFI_PORT_Init, .Lfunc_end0-WIFI_PORT_Init
	.cfi_endproc
	.cantunwind
	.fnend
                                        @ -- End function
	.section	.text.WIFI_PORT_Start,"ax",%progbits
	.hidden	WIFI_PORT_Start                 @ -- Begin function WIFI_PORT_Start
	.globl	WIFI_PORT_Start
	.p2align	2
	.type	WIFI_PORT_Start,%function
	.code	16                              @ @WIFI_PORT_Start
	.thumb_func
WIFI_PORT_Start:
.Lfunc_begin1:
	.loc	1 75 0 is_stmt 1                @ wifi.c:75:0
	.fnstart
	.cfi_startproc
@ %bb.0:
	.save	{r4, r5, r6, lr}
	push	{r4, r5, r6, lr}
	.cfi_def_cfa_offset 16
	.cfi_offset lr, -4
	.cfi_offset r6, -8
	.cfi_offset r5, -12
	.cfi_offset r4, -16
	.pad	#128
	sub	sp, #128
	.cfi_def_cfa_offset 144
.Ltmp2:
	.loc	1 78 9 prologue_end             @ wifi.c:78:9
	ldr	r0, __arm_cp.1_0
	bl	printf
	.loc	1 79 9                          @ wifi.c:79:9
	ldr	r1, __arm_cp.1_1
	str	r0, [sp, #104]                  @ 4-byte Spill
	mov	r0, r1
	bl	printf
	ldr	r1, __arm_cp.1_2
	movw	r2, #20480
.Ltmp3:
	.loc	1 82 5                          @ wifi.c:82:5
	str	r2, [r1]
	movs	r1, #5
	lsls	r1, r1, #22
	ldr	r2, __arm_cp.1_3
	str	r1, [r2]
	ldr	r1, __arm_cp.1_4
	movs	r2, #0
.Ltmp4:
	.loc	1 84 9                          @ wifi.c:84:9
	str	r2, [r1]
	ldr	r3, __arm_cp.1_5
	.loc	1 85 11                         @ wifi.c:85:11
	str	r2, [r3]
	ldr	r4, __arm_cp.1_6
	movs	r5, #1
	.loc	1 86 13                         @ wifi.c:86:13
	str	r5, [r4]
	ldr	r6, __arm_cp.1_7
	.loc	1 89 19                         @ wifi.c:89:19
	str	r5, [r6]
	ldr	r6, __arm_cp.1_8
	.loc	1 90 5                          @ wifi.c:90:5
	str	r0, [sp, #100]                  @ 4-byte Spill
	mov	r0, r6
	str	r1, [sp, #96]                   @ 4-byte Spill
	str	r2, [sp, #92]                   @ 4-byte Spill
	str	r3, [sp, #88]                   @ 4-byte Spill
	str	r4, [sp, #84]                   @ 4-byte Spill
	str	r5, [sp, #80]                   @ 4-byte Spill
	bl	CLK_SysTickLongDelay
	.loc	1 92 11                         @ wifi.c:92:11
	ldr	r0, [sp, #80]                   @ 4-byte Reload
	ldr	r1, [sp, #96]                   @ 4-byte Reload
	str	r0, [r1]
	.loc	1 93 11                         @ wifi.c:93:11
	ldr	r2, [sp, #88]                   @ 4-byte Reload
	str	r0, [r2]
	.loc	1 94 13                         @ wifi.c:94:13
	ldr	r3, [sp, #92]                   @ 4-byte Reload
	ldr	r4, [sp, #84]                   @ 4-byte Reload
	str	r3, [r4]
	.loc	1 98 9                          @ wifi.c:98:9
	str	r3, [sp, #120]
	.loc	1 99 9                          @ wifi.c:99:9
	str	r3, [sp, #116]
	.loc	1 100 9                         @ wifi.c:100:9
	str	r3, [sp, #112]
	.loc	1 101 9                         @ wifi.c:101:9
	str	r3, [sp, #108]
	.loc	1 103 5                         @ wifi.c:103:5
	b	.LBB1_1
.LBB1_1:                                @ =>This Loop Header: Depth=1
                                        @     Child Loop BB1_3 Depth 2
	.loc	1 103 11 is_stmt 0              @ wifi.c:103:11
	ldr	r0, [sp, #108]
	.loc	1 103 5                         @ wifi.c:103:5
	cmp	r0, #0
	beq	.LBB1_2
	b	.LBB1_44
.LBB1_2:                                @   in Loop: Header=BB1_1 Depth=1
	.loc	1 0 5                           @ wifi.c:0:5
	ldr	r0, __arm_cp.1_5
	movs	r1, #0
.Ltmp5:
	.loc	1 104 15 is_stmt 1              @ wifi.c:104:15
	str	r1, [r0]
	.loc	1 106 9                         @ wifi.c:106:9
	b	.LBB1_3
.LBB1_3:                                @   Parent Loop BB1_1 Depth=1
                                        @ =>  This Inner Loop Header: Depth=2
	.loc	1 0 9 is_stmt 0                 @ wifi.c:0:9
	ldr	r0, __arm_cp.1_9
	.loc	1 106 27                        @ wifi.c:106:27
	ldr	r0, [r0]
	.loc	1 106 9                         @ wifi.c:106:9
	lsls	r0, r0, #17
	cmp	r0, #0
	bpl	.LBB1_4
	b	.LBB1_41
.LBB1_4:                                @   in Loop: Header=BB1_3 Depth=2
	.loc	1 0 9                           @ wifi.c:0:9
	movs	r0, #0
.Ltmp6:
	.loc	1 107 18 is_stmt 1              @ wifi.c:107:18
	str	r0, [sp, #112]
	ldr	r0, __arm_cp.1_23
	.loc	1 108 31                        @ wifi.c:108:31
	ldr	r0, [r0]
	add	r1, sp, #124
	.loc	1 108 18 is_stmt 0              @ wifi.c:108:18
	strb	r0, [r1]
.Ltmp7:
	.loc	1 110 16 is_stmt 1              @ wifi.c:110:16
	ldr	r0, [sp, #116]
	.loc	1 110 26 is_stmt 0              @ wifi.c:110:26
	cmp	r0, #0
	bne	.LBB1_8
	b	.LBB1_5
.LBB1_5:                                @   in Loop: Header=BB1_3 Depth=2
	.loc	1 0 26                          @ wifi.c:0:26
	add	r0, sp, #124
	.loc	1 110 29                        @ wifi.c:110:29
	ldrb	r0, [r0]
	.loc	1 110 41                        @ wifi.c:110:41
	cmp	r0, #114
	bne	.LBB1_8
	b	.LBB1_6
.LBB1_6:                                @   in Loop: Header=BB1_3 Depth=2
	.loc	1 110 44                        @ wifi.c:110:44
	ldr	r0, [sp, #112]
.Ltmp8:
	.loc	1 110 16                        @ wifi.c:110:16
	cmp	r0, #0
	bne	.LBB1_8
	b	.LBB1_7
.LBB1_7:                                @   in Loop: Header=BB1_3 Depth=2
	.loc	1 0 16                          @ wifi.c:0:16
	movs	r0, #1
.Ltmp9:
	.loc	1 111 22 is_stmt 1              @ wifi.c:111:22
	str	r0, [sp, #116]
	.loc	1 112 22                        @ wifi.c:112:22
	str	r0, [sp, #112]
	.loc	1 114 13                        @ wifi.c:114:13
	b	.LBB1_8
.Ltmp10:
.LBB1_8:                                @   in Loop: Header=BB1_3 Depth=2
	.loc	1 115 16                        @ wifi.c:115:16
	ldr	r0, [sp, #116]
	.loc	1 115 26 is_stmt 0              @ wifi.c:115:26
	cmp	r0, #1
	bne	.LBB1_12
	b	.LBB1_9
.LBB1_9:                                @   in Loop: Header=BB1_3 Depth=2
	.loc	1 0 26                          @ wifi.c:0:26
	add	r0, sp, #124
	.loc	1 115 29                        @ wifi.c:115:29
	ldrb	r0, [r0]
	.loc	1 115 41                        @ wifi.c:115:41
	cmp	r0, #101
	bne	.LBB1_12
	b	.LBB1_10
.LBB1_10:                               @   in Loop: Header=BB1_3 Depth=2
	.loc	1 115 44                        @ wifi.c:115:44
	ldr	r0, [sp, #112]
.Ltmp11:
	.loc	1 115 16                        @ wifi.c:115:16
	cmp	r0, #0
	bne	.LBB1_12
	b	.LBB1_11
.LBB1_11:                               @   in Loop: Header=BB1_3 Depth=2
	.loc	1 0 16                          @ wifi.c:0:16
	movs	r0, #2
.Ltmp12:
	.loc	1 116 22 is_stmt 1              @ wifi.c:116:22
	str	r0, [sp, #116]
	movs	r0, #1
	.loc	1 117 22                        @ wifi.c:117:22
	str	r0, [sp, #112]
	.loc	1 119 13                        @ wifi.c:119:13
	b	.LBB1_16
.Ltmp13:
.LBB1_12:                               @   in Loop: Header=BB1_3 Depth=2
	.loc	1 120 22                        @ wifi.c:120:22
	ldr	r0, [sp, #116]
	.loc	1 120 32 is_stmt 0              @ wifi.c:120:32
	cmp	r0, #1
	bne	.LBB1_15
	b	.LBB1_13
.LBB1_13:                               @   in Loop: Header=BB1_3 Depth=2
	.loc	1 120 35                        @ wifi.c:120:35
	ldr	r0, [sp, #112]
.Ltmp14:
	.loc	1 120 22                        @ wifi.c:120:22
	cmp	r0, #0
	bne	.LBB1_15
	b	.LBB1_14
.LBB1_14:                               @   in Loop: Header=BB1_3 Depth=2
	.loc	1 0 22                          @ wifi.c:0:22
	movs	r0, #0
.Ltmp15:
	.loc	1 120 51                        @ wifi.c:120:51
	str	r0, [sp, #116]
	.loc	1 120 46                        @ wifi.c:120:46
	b	.LBB1_15
.Ltmp16:
.LBB1_15:                               @   in Loop: Header=BB1_3 Depth=2
	.loc	1 0 46                          @ wifi.c:0:46
	b	.LBB1_16
.LBB1_16:                               @   in Loop: Header=BB1_3 Depth=2
.Ltmp17:
	.loc	1 122 16 is_stmt 1              @ wifi.c:122:16
	ldr	r0, [sp, #116]
	.loc	1 122 26 is_stmt 0              @ wifi.c:122:26
	cmp	r0, #2
	bne	.LBB1_20
	b	.LBB1_17
.LBB1_17:                               @   in Loop: Header=BB1_3 Depth=2
	.loc	1 0 26                          @ wifi.c:0:26
	add	r0, sp, #124
	.loc	1 122 29                        @ wifi.c:122:29
	ldrb	r0, [r0]
	.loc	1 122 41                        @ wifi.c:122:41
	cmp	r0, #97
	bne	.LBB1_20
	b	.LBB1_18
.LBB1_18:                               @   in Loop: Header=BB1_3 Depth=2
	.loc	1 122 44                        @ wifi.c:122:44
	ldr	r0, [sp, #112]
.Ltmp18:
	.loc	1 122 16                        @ wifi.c:122:16
	cmp	r0, #0
	bne	.LBB1_20
	b	.LBB1_19
.LBB1_19:                               @   in Loop: Header=BB1_3 Depth=2
	.loc	1 0 16                          @ wifi.c:0:16
	movs	r0, #3
.Ltmp19:
	.loc	1 123 22 is_stmt 1              @ wifi.c:123:22
	str	r0, [sp, #116]
	movs	r0, #1
	.loc	1 124 22                        @ wifi.c:124:22
	str	r0, [sp, #112]
	.loc	1 126 13                        @ wifi.c:126:13
	b	.LBB1_24
.Ltmp20:
.LBB1_20:                               @   in Loop: Header=BB1_3 Depth=2
	.loc	1 127 22                        @ wifi.c:127:22
	ldr	r0, [sp, #116]
	.loc	1 127 32 is_stmt 0              @ wifi.c:127:32
	cmp	r0, #2
	bne	.LBB1_23
	b	.LBB1_21
.LBB1_21:                               @   in Loop: Header=BB1_3 Depth=2
	.loc	1 127 35                        @ wifi.c:127:35
	ldr	r0, [sp, #112]
.Ltmp21:
	.loc	1 127 22                        @ wifi.c:127:22
	cmp	r0, #0
	bne	.LBB1_23
	b	.LBB1_22
.LBB1_22:                               @   in Loop: Header=BB1_3 Depth=2
	.loc	1 0 22                          @ wifi.c:0:22
	movs	r0, #0
.Ltmp22:
	.loc	1 127 51                        @ wifi.c:127:51
	str	r0, [sp, #116]
	.loc	1 127 46                        @ wifi.c:127:46
	b	.LBB1_23
.Ltmp23:
.LBB1_23:                               @   in Loop: Header=BB1_3 Depth=2
	.loc	1 0 46                          @ wifi.c:0:46
	b	.LBB1_24
.LBB1_24:                               @   in Loop: Header=BB1_3 Depth=2
.Ltmp24:
	.loc	1 129 16 is_stmt 1              @ wifi.c:129:16
	ldr	r0, [sp, #116]
	.loc	1 129 26 is_stmt 0              @ wifi.c:129:26
	cmp	r0, #3
	bne	.LBB1_28
	b	.LBB1_25
.LBB1_25:                               @   in Loop: Header=BB1_3 Depth=2
	.loc	1 0 26                          @ wifi.c:0:26
	add	r0, sp, #124
	.loc	1 129 29                        @ wifi.c:129:29
	ldrb	r0, [r0]
	.loc	1 129 41                        @ wifi.c:129:41
	cmp	r0, #100
	bne	.LBB1_28
	b	.LBB1_26
.LBB1_26:                               @   in Loop: Header=BB1_3 Depth=2
	.loc	1 129 44                        @ wifi.c:129:44
	ldr	r0, [sp, #112]
.Ltmp25:
	.loc	1 129 16                        @ wifi.c:129:16
	cmp	r0, #0
	bne	.LBB1_28
	b	.LBB1_27
.LBB1_27:                               @   in Loop: Header=BB1_3 Depth=2
	.loc	1 0 16                          @ wifi.c:0:16
	movs	r0, #4
.Ltmp26:
	.loc	1 130 22 is_stmt 1              @ wifi.c:130:22
	str	r0, [sp, #116]
	movs	r0, #1
	.loc	1 131 22                        @ wifi.c:131:22
	str	r0, [sp, #112]
	.loc	1 133 13                        @ wifi.c:133:13
	b	.LBB1_32
.Ltmp27:
.LBB1_28:                               @   in Loop: Header=BB1_3 Depth=2
	.loc	1 134 22                        @ wifi.c:134:22
	ldr	r0, [sp, #116]
	.loc	1 134 32 is_stmt 0              @ wifi.c:134:32
	cmp	r0, #3
	bne	.LBB1_31
	b	.LBB1_29
.LBB1_29:                               @   in Loop: Header=BB1_3 Depth=2
	.loc	1 134 35                        @ wifi.c:134:35
	ldr	r0, [sp, #112]
.Ltmp28:
	.loc	1 134 22                        @ wifi.c:134:22
	cmp	r0, #0
	bne	.LBB1_31
	b	.LBB1_30
.LBB1_30:                               @   in Loop: Header=BB1_3 Depth=2
	.loc	1 0 22                          @ wifi.c:0:22
	movs	r0, #0
.Ltmp29:
	.loc	1 134 51                        @ wifi.c:134:51
	str	r0, [sp, #116]
	.loc	1 134 46                        @ wifi.c:134:46
	b	.LBB1_31
.Ltmp30:
.LBB1_31:                               @   in Loop: Header=BB1_3 Depth=2
	.loc	1 0 46                          @ wifi.c:0:46
	b	.LBB1_32
.LBB1_32:                               @   in Loop: Header=BB1_3 Depth=2
.Ltmp31:
	.loc	1 136 16 is_stmt 1              @ wifi.c:136:16
	ldr	r0, [sp, #116]
	.loc	1 136 26 is_stmt 0              @ wifi.c:136:26
	cmp	r0, #4
	bne	.LBB1_36
	b	.LBB1_33
.LBB1_33:                               @   in Loop: Header=BB1_3 Depth=2
	.loc	1 0 26                          @ wifi.c:0:26
	add	r0, sp, #124
	.loc	1 136 29                        @ wifi.c:136:29
	ldrb	r0, [r0]
	.loc	1 136 41                        @ wifi.c:136:41
	cmp	r0, #121
	bne	.LBB1_36
	b	.LBB1_34
.LBB1_34:                               @   in Loop: Header=BB1_3 Depth=2
	.loc	1 136 44                        @ wifi.c:136:44
	ldr	r0, [sp, #112]
.Ltmp32:
	.loc	1 136 16                        @ wifi.c:136:16
	cmp	r0, #0
	bne	.LBB1_36
	b	.LBB1_35
.LBB1_35:                               @   in Loop: Header=BB1_3 Depth=2
	.loc	1 0 16                          @ wifi.c:0:16
	movs	r0, #1
.Ltmp33:
	.loc	1 137 23 is_stmt 1              @ wifi.c:137:23
	str	r0, [sp, #120]
	.loc	1 138 22                        @ wifi.c:138:22
	str	r0, [sp, #112]
	.loc	1 140 13                        @ wifi.c:140:13
	b	.LBB1_40
.Ltmp34:
.LBB1_36:                               @   in Loop: Header=BB1_3 Depth=2
	.loc	1 141 22                        @ wifi.c:141:22
	ldr	r0, [sp, #116]
	.loc	1 141 32 is_stmt 0              @ wifi.c:141:32
	cmp	r0, #4
	bne	.LBB1_39
	b	.LBB1_37
.LBB1_37:                               @   in Loop: Header=BB1_3 Depth=2
	.loc	1 141 35                        @ wifi.c:141:35
	ldr	r0, [sp, #112]
.Ltmp35:
	.loc	1 141 22                        @ wifi.c:141:22
	cmp	r0, #0
	bne	.LBB1_39
	b	.LBB1_38
.LBB1_38:                               @   in Loop: Header=BB1_3 Depth=2
	.loc	1 0 22                          @ wifi.c:0:22
	movs	r0, #0
.Ltmp36:
	.loc	1 141 51                        @ wifi.c:141:51
	str	r0, [sp, #116]
	.loc	1 141 46                        @ wifi.c:141:46
	b	.LBB1_39
.Ltmp37:
.LBB1_39:                               @   in Loop: Header=BB1_3 Depth=2
	.loc	1 0 46                          @ wifi.c:0:46
	b	.LBB1_40
.LBB1_40:                               @   in Loop: Header=BB1_3 Depth=2
	.loc	1 106 9 is_stmt 1               @ wifi.c:106:9
	b	.LBB1_3
.LBB1_41:                               @   in Loop: Header=BB1_1 Depth=1
.Ltmp38:
	.loc	1 143 12                        @ wifi.c:143:12
	ldr	r0, [sp, #120]
.Ltmp39:
	.loc	1 143 12 is_stmt 0              @ wifi.c:143:12
	cmp	r0, #0
	beq	.LBB1_43
	b	.LBB1_42
.LBB1_42:                               @   in Loop: Header=BB1_1 Depth=1
.Ltmp40:
	.loc	1 145 50 is_stmt 1              @ wifi.c:145:50
	ldr	r0, __arm_cp.1_10
	str	r0, [sp, #76]                   @ 4-byte Spill
	bl	strlen
	movs	r1, #0
	.loc	1 145 13 is_stmt 0              @ wifi.c:145:13
	str	r0, [sp, #72]                   @ 4-byte Spill
	mov	r0, r1
	ldr	r2, [sp, #76]                   @ 4-byte Reload
	str	r1, [sp, #68]                   @ 4-byte Spill
	mov	r1, r2
	ldr	r2, [sp, #72]                   @ 4-byte Reload
	bl	WIFI_PORT_Write
	.loc	1 146 13 is_stmt 1              @ wifi.c:146:13
	ldr	r0, [sp, #68]                   @ 4-byte Reload
	bl	WIFI_PORT_Read
	.loc	1 148 59                        @ wifi.c:148:59
	ldr	r0, __arm_cp.1_11
	str	r0, [sp, #64]                   @ 4-byte Spill
	bl	strlen
	.loc	1 148 13 is_stmt 0              @ wifi.c:148:13
	ldr	r1, [sp, #68]                   @ 4-byte Reload
	str	r0, [sp, #60]                   @ 4-byte Spill
	mov	r0, r1
	ldr	r1, [sp, #64]                   @ 4-byte Reload
	ldr	r2, [sp, #60]                   @ 4-byte Reload
	bl	WIFI_PORT_Write
	.loc	1 149 13 is_stmt 1              @ wifi.c:149:13
	ldr	r0, [sp, #68]                   @ 4-byte Reload
	bl	WIFI_PORT_Read
.Ltmp41:
	.loc	1 150 23                        @ wifi.c:150:23
	ldr	r0, __arm_cp.1_12
	bl	printf
.Ltmp42:
	.loc	1 152 57                        @ wifi.c:152:57
	ldr	r1, __arm_cp.1_13
	str	r0, [sp, #56]                   @ 4-byte Spill
	mov	r0, r1
	str	r1, [sp, #52]                   @ 4-byte Spill
	bl	strlen
	.loc	1 152 13 is_stmt 0              @ wifi.c:152:13
	ldr	r1, [sp, #68]                   @ 4-byte Reload
	str	r0, [sp, #48]                   @ 4-byte Spill
	mov	r0, r1
	ldr	r1, [sp, #52]                   @ 4-byte Reload
	ldr	r2, [sp, #48]                   @ 4-byte Reload
	bl	WIFI_PORT_Write
	.loc	1 153 13 is_stmt 1              @ wifi.c:153:13
	ldr	r0, [sp, #68]                   @ 4-byte Reload
	bl	WIFI_PORT_Read
.Ltmp43:
	.loc	1 154 23                        @ wifi.c:154:23
	ldr	r0, __arm_cp.1_14
	bl	printf
.Ltmp44:
	.loc	1 156 52                        @ wifi.c:156:52
	ldr	r1, __arm_cp.1_15
	str	r0, [sp, #44]                   @ 4-byte Spill
	mov	r0, r1
	str	r1, [sp, #40]                   @ 4-byte Spill
	bl	strlen
	.loc	1 156 7 is_stmt 0               @ wifi.c:156:7
	ldr	r1, [sp, #68]                   @ 4-byte Reload
	str	r0, [sp, #36]                   @ 4-byte Spill
	mov	r0, r1
	ldr	r1, [sp, #40]                   @ 4-byte Reload
	ldr	r2, [sp, #36]                   @ 4-byte Reload
	bl	WIFI_PORT_Write
	.loc	1 157 13 is_stmt 1              @ wifi.c:157:13
	ldr	r0, [sp, #68]                   @ 4-byte Reload
	bl	WIFI_PORT_Read
.Ltmp45:
	.loc	1 158 17                        @ wifi.c:158:17
	ldr	r0, __arm_cp.1_16
	bl	printf
.Ltmp46:
	.loc	1 160 59                        @ wifi.c:160:59
	ldr	r1, __arm_cp.1_17
	str	r0, [sp, #32]                   @ 4-byte Spill
	mov	r0, r1
	str	r1, [sp, #28]                   @ 4-byte Spill
	bl	strlen
	.loc	1 160 13 is_stmt 0              @ wifi.c:160:13
	ldr	r1, [sp, #68]                   @ 4-byte Reload
	str	r0, [sp, #24]                   @ 4-byte Spill
	mov	r0, r1
	ldr	r1, [sp, #28]                   @ 4-byte Reload
	ldr	r2, [sp, #24]                   @ 4-byte Reload
	bl	WIFI_PORT_Write
	.loc	1 161 13 is_stmt 1              @ wifi.c:161:13
	ldr	r0, [sp, #68]                   @ 4-byte Reload
	bl	WIFI_PORT_Read
.Ltmp47:
	.loc	1 162 23                        @ wifi.c:162:23
	ldr	r0, __arm_cp.1_18
	bl	printf
.Ltmp48:
	.loc	1 164 56                        @ wifi.c:164:56
	ldr	r1, __arm_cp.1_19
	str	r0, [sp, #20]                   @ 4-byte Spill
	mov	r0, r1
	str	r1, [sp, #16]                   @ 4-byte Spill
	bl	strlen
	.loc	1 164 13 is_stmt 0              @ wifi.c:164:13
	ldr	r1, [sp, #68]                   @ 4-byte Reload
	str	r0, [sp, #12]                   @ 4-byte Spill
	mov	r0, r1
	ldr	r1, [sp, #16]                   @ 4-byte Reload
	ldr	r2, [sp, #12]                   @ 4-byte Reload
	bl	WIFI_PORT_Write
	.loc	1 165 13 is_stmt 1              @ wifi.c:165:13
	ldr	r0, [sp, #68]                   @ 4-byte Reload
	bl	WIFI_PORT_Read
.Ltmp49:
	.loc	1 166 23                        @ wifi.c:166:23
	ldr	r0, __arm_cp.1_20
	bl	printf
.Ltmp50:
	.loc	1 173 12                        @ wifi.c:173:12
	ldr	r1, __arm_cp.1_1
	str	r0, [sp, #8]                    @ 4-byte Spill
	mov	r0, r1
	bl	printf
	.loc	1 174 12                        @ wifi.c:174:12
	ldr	r1, __arm_cp.1_21
	str	r0, [sp, #4]                    @ 4-byte Spill
	mov	r0, r1
	bl	printf
	.loc	1 175 12                        @ wifi.c:175:12
	ldr	r1, __arm_cp.1_22
	str	r0, [sp]                        @ 4-byte Spill
	mov	r0, r1
	bl	printf
	movs	r1, #1
.Ltmp51:
	.loc	1 177 20                        @ wifi.c:177:20
	str	r1, [sp, #108]
	.loc	1 179 9                         @ wifi.c:179:9
	b	.LBB1_43
.Ltmp52:
.LBB1_43:                               @   in Loop: Header=BB1_1 Depth=1
	.loc	1 0 9 is_stmt 0                 @ wifi.c:0:9
	ldr	r0, __arm_cp.1_5
	movs	r1, #1
	.loc	1 180 15 is_stmt 1              @ wifi.c:180:15
	str	r1, [r0]
.Ltmp53:
	.loc	1 103 5                         @ wifi.c:103:5
	b	.LBB1_1
.LBB1_44:
	.loc	1 184 1                         @ wifi.c:184:1
	add	sp, #128
	pop	{r4, r5, r6, pc}
.Ltmp54:
	.p2align	2
@ %bb.45:
	.loc	1 0 1 is_stmt 0                 @ wifi.c:0:1
__arm_cp.1_0:
	.long	.L.str
.Lcpi_end6:
	.size	__arm_cp.1_0, .Lcpi_end6-__arm_cp.1_0
__arm_cp.1_1:
	.long	.L.str.1
.Lcpi_end7:
	.size	__arm_cp.1_1, .Lcpi_end7-__arm_cp.1_1
__arm_cp.1_2:
	.long	1342193856                      @ 0x500040c0
.Lcpi_end8:
	.size	__arm_cp.1_2, .Lcpi_end8-__arm_cp.1_2
__arm_cp.1_3:
	.long	1342193792                      @ 0x50004080
.Lcpi_end9:
	.size	__arm_cp.1_3, .Lcpi_end9-__arm_cp.1_3
__arm_cp.1_4:
	.long	1342195884                      @ 0x500048ac
.Lcpi_end10:
	.size	__arm_cp.1_4, .Lcpi_end10-__arm_cp.1_4
__arm_cp.1_5:
	.long	1342195888                      @ 0x500048b0
.Lcpi_end11:
	.size	__arm_cp.1_5, .Lcpi_end11-__arm_cp.1_5
__arm_cp.1_6:
	.long	1342195932                      @ 0x500048dc
.Lcpi_end12:
	.size	__arm_cp.1_6, .Lcpi_end12-__arm_cp.1_6
__arm_cp.1_7:
	.long	1342195928                      @ 0x500048d8
.Lcpi_end13:
	.size	__arm_cp.1_7, .Lcpi_end13-__arm_cp.1_7
__arm_cp.1_8:
	.long	1000000                         @ 0xf4240
.Lcpi_end14:
	.size	__arm_cp.1_8, .Lcpi_end14-__arm_cp.1_8
__arm_cp.1_9:
	.long	1342648344                      @ 0x50073018
.Lcpi_end15:
	.size	__arm_cp.1_9, .Lcpi_end15-__arm_cp.1_9
__arm_cp.1_10:
	.long	ATCommand_AT
.Lcpi_end16:
	.size	__arm_cp.1_10, .Lcpi_end16-__arm_cp.1_10
__arm_cp.1_11:
	.long	ATCommand_CWMODE_SET1
.Lcpi_end17:
	.size	__arm_cp.1_11, .Lcpi_end17-__arm_cp.1_11
__arm_cp.1_12:
	.long	.L.str.2
.Lcpi_end18:
	.size	__arm_cp.1_12, .Lcpi_end18-__arm_cp.1_12
__arm_cp.1_13:
	.long	ATCommand_CWJAP_SET
.Lcpi_end19:
	.size	__arm_cp.1_13, .Lcpi_end19-__arm_cp.1_13
__arm_cp.1_14:
	.long	.L.str.3
.Lcpi_end20:
	.size	__arm_cp.1_14, .Lcpi_end20-__arm_cp.1_14
__arm_cp.1_15:
	.long	ATCommand_CIPSTA_SET
.Lcpi_end21:
	.size	__arm_cp.1_15, .Lcpi_end21-__arm_cp.1_15
__arm_cp.1_16:
	.long	.L.str.4
.Lcpi_end22:
	.size	__arm_cp.1_16, .Lcpi_end22-__arm_cp.1_16
__arm_cp.1_17:
	.long	ATCommand_CIPMUX_SET0
.Lcpi_end23:
	.size	__arm_cp.1_17, .Lcpi_end23-__arm_cp.1_17
__arm_cp.1_18:
	.long	.L.str.5
.Lcpi_end24:
	.size	__arm_cp.1_18, .Lcpi_end24-__arm_cp.1_18
__arm_cp.1_19:
	.long	ATCommand_CIPSTART
.Lcpi_end25:
	.size	__arm_cp.1_19, .Lcpi_end25-__arm_cp.1_19
__arm_cp.1_20:
	.long	.L.str.6
.Lcpi_end26:
	.size	__arm_cp.1_20, .Lcpi_end26-__arm_cp.1_20
__arm_cp.1_21:
	.long	.L.str.7
.Lcpi_end27:
	.size	__arm_cp.1_21, .Lcpi_end27-__arm_cp.1_21
__arm_cp.1_22:
	.long	.L.str.8
.Lcpi_end28:
	.size	__arm_cp.1_22, .Lcpi_end28-__arm_cp.1_22
__arm_cp.1_23:
	.long	1342648320                      @ 0x50073000
.Lcpi_end29:
	.size	__arm_cp.1_23, .Lcpi_end29-__arm_cp.1_23
.Lfunc_end1:
	.size	WIFI_PORT_Start, .Lfunc_end1-WIFI_PORT_Start
	.cfi_endproc
	.cantunwind
	.fnend
                                        @ -- End function
	.section	.text.CLK_SysTickLongDelay,"ax",%progbits
	.p2align	2                               @ -- Begin function CLK_SysTickLongDelay
	.type	CLK_SysTickLongDelay,%function
	.code	16                              @ @CLK_SysTickLongDelay
	.thumb_func
CLK_SysTickLongDelay:
.Lfunc_begin2:
	.file	8 "C:\\Users\\shw26\\OneDrive\\Desktop\\2021\\2021-1\\\354\272\241\354\212\244\355\206\244\353\224\224\354\236\220\354\235\2702\\Nuvoton\\M2351_BSP_v3.00.004\\M2351Series_BSP_CMSIS_V3.00.004\\MyProject\\NonSecure" "../../Library/StdDriver/inc\\clk.h"
	.loc	8 728 0 is_stmt 1               @ ../../Library/StdDriver/inc\clk.h:728:0
	.fnstart
	.cfi_startproc
@ %bb.0:
	.pad	#8
	sub	sp, #8
	.cfi_def_cfa_offset 8
	str	r0, [sp, #4]
	movs	r0, #1
	lsls	r0, r0, #16
.Ltmp55:
	.loc	8 732 14 prologue_end           @ ../../Library/StdDriver/inc\clk.h:732:14
	str	r0, [sp]
	.loc	8 734 5                         @ ../../Library/StdDriver/inc\clk.h:734:5
	b	.LBB2_1
.LBB2_1:                                @ =>This Loop Header: Depth=1
                                        @     Child Loop BB2_5 Depth 2
.Ltmp56:
	.loc	8 736 12                        @ ../../Library/StdDriver/inc\clk.h:736:12
	ldr	r0, [sp, #4]
	.loc	8 736 17 is_stmt 0              @ ../../Library/StdDriver/inc\clk.h:736:17
	ldr	r1, [sp]
.Ltmp57:
	.loc	8 736 12                        @ ../../Library/StdDriver/inc\clk.h:736:12
	cmp	r0, r1
	bls	.LBB2_3
	b	.LBB2_2
.LBB2_2:                                @   in Loop: Header=BB2_1 Depth=1
.Ltmp58:
	.loc	8 738 19 is_stmt 1              @ ../../Library/StdDriver/inc\clk.h:738:19
	ldr	r0, [sp]
	.loc	8 738 16 is_stmt 0              @ ../../Library/StdDriver/inc\clk.h:738:16
	ldr	r1, [sp, #4]
	subs	r0, r1, r0
	str	r0, [sp, #4]
	.loc	8 739 9 is_stmt 1               @ ../../Library/StdDriver/inc\clk.h:739:9
	b	.LBB2_4
.Ltmp59:
.LBB2_3:                                @   in Loop: Header=BB2_1 Depth=1
	.loc	8 742 24                        @ ../../Library/StdDriver/inc\clk.h:742:24
	ldr	r0, [sp, #4]
	.loc	8 742 22 is_stmt 0              @ ../../Library/StdDriver/inc\clk.h:742:22
	str	r0, [sp]
	movs	r0, #0
	.loc	8 743 16 is_stmt 1              @ ../../Library/StdDriver/inc\clk.h:743:16
	str	r0, [sp, #4]
	b	.LBB2_4
.Ltmp60:
.LBB2_4:                                @   in Loop: Header=BB2_1 Depth=1
	.loc	8 746 25                        @ ../../Library/StdDriver/inc\clk.h:746:25
	ldr	r0, [sp]
	.loc	8 746 36 is_stmt 0              @ ../../Library/StdDriver/inc\clk.h:746:36
	ldr	r1, __arm_cp.2_0
	ldr	r1, [r1]
	.loc	8 746 34                        @ ../../Library/StdDriver/inc\clk.h:746:34
	muls	r1, r0, r1
	ldr	r0, __arm_cp.2_1
	.loc	8 746 23                        @ ../../Library/StdDriver/inc\clk.h:746:23
	str	r1, [r0]
	ldr	r0, __arm_cp.2_2
	movs	r1, #0
	.loc	8 747 23 is_stmt 1              @ ../../Library/StdDriver/inc\clk.h:747:23
	str	r1, [r0]
	ldr	r0, __arm_cp.2_3
	movs	r1, #5
	.loc	8 748 23                        @ ../../Library/StdDriver/inc\clk.h:748:23
	str	r1, [r0]
	.loc	8 751 9                         @ ../../Library/StdDriver/inc\clk.h:751:9
	b	.LBB2_5
.LBB2_5:                                @   Parent Loop BB2_1 Depth=1
                                        @ =>  This Inner Loop Header: Depth=2
	.loc	8 0 9 is_stmt 0                 @ ../../Library/StdDriver/inc\clk.h:0:9
	ldr	r0, __arm_cp.2_3
	.loc	8 751 25                        @ ../../Library/StdDriver/inc\clk.h:751:25
	ldr	r0, [r0]
	.loc	8 751 9                         @ ../../Library/StdDriver/inc\clk.h:751:9
	lsls	r0, r0, #15
	cmp	r0, #0
	bmi	.LBB2_7
	b	.LBB2_6
.LBB2_6:                                @   in Loop: Header=BB2_5 Depth=2
	b	.LBB2_5
.LBB2_7:                                @   in Loop: Header=BB2_1 Depth=1
	.loc	8 0 9                           @ ../../Library/StdDriver/inc\clk.h:0:9
	ldr	r0, __arm_cp.2_3
	movs	r1, #0
	.loc	8 754 23 is_stmt 1              @ ../../Library/StdDriver/inc\clk.h:754:23
	str	r1, [r0]
	.loc	8 756 5                         @ ../../Library/StdDriver/inc\clk.h:756:5
	b	.LBB2_8
.Ltmp61:
.LBB2_8:                                @   in Loop: Header=BB2_1 Depth=1
	.loc	8 757 11                        @ ../../Library/StdDriver/inc\clk.h:757:11
	ldr	r0, [sp, #4]
.Ltmp62:
	.loc	8 756 5                         @ ../../Library/StdDriver/inc\clk.h:756:5
	cmp	r0, #0
	bne	.LBB2_1
	b	.LBB2_9
.Ltmp63:
.LBB2_9:
	.loc	8 759 1                         @ ../../Library/StdDriver/inc\clk.h:759:1
	add	sp, #8
	bx	lr
.Ltmp64:
	.p2align	2
@ %bb.10:
	.loc	8 0 1 is_stmt 0                 @ ../../Library/StdDriver/inc\clk.h:0:1
__arm_cp.2_0:
	.long	CyclesPerUs
.Lcpi_end30:
	.size	__arm_cp.2_0, .Lcpi_end30-__arm_cp.2_0
__arm_cp.2_1:
	.long	3758153748                      @ 0xe000e014
.Lcpi_end31:
	.size	__arm_cp.2_1, .Lcpi_end31-__arm_cp.2_1
__arm_cp.2_2:
	.long	3758153752                      @ 0xe000e018
.Lcpi_end32:
	.size	__arm_cp.2_2, .Lcpi_end32-__arm_cp.2_2
__arm_cp.2_3:
	.long	3758153744                      @ 0xe000e010
.Lcpi_end33:
	.size	__arm_cp.2_3, .Lcpi_end33-__arm_cp.2_3
.Lfunc_end2:
	.size	CLK_SysTickLongDelay, .Lfunc_end2-CLK_SysTickLongDelay
	.cfi_endproc
	.cantunwind
	.fnend
                                        @ -- End function
	.section	.text.WIFI_PORT_Write,"ax",%progbits
	.hidden	WIFI_PORT_Write                 @ -- Begin function WIFI_PORT_Write
	.globl	WIFI_PORT_Write
	.p2align	2
	.type	WIFI_PORT_Write,%function
	.code	16                              @ @WIFI_PORT_Write
	.thumb_func
WIFI_PORT_Write:
.Lfunc_begin3:
	.loc	1 210 0 is_stmt 1               @ wifi.c:210:0
	.fnstart
	.cfi_startproc
@ %bb.0:
	.save	{r7, lr}
	push	{r7, lr}
	.cfi_def_cfa_offset 8
	.cfi_offset lr, -4
	.cfi_offset r7, -8
	.pad	#16
	sub	sp, #16
	.cfi_def_cfa_offset 24
	str	r0, [sp, #12]
	str	r1, [sp, #8]
	str	r2, [sp, #4]
	movs	r0, #0
.Ltmp65:
	.loc	1 212 14 prologue_end           @ wifi.c:212:14
	str	r0, [sp]
	.loc	1 212 10 is_stmt 0              @ wifi.c:212:10
	b	.LBB3_1
.LBB3_1:                                @ =>This Loop Header: Depth=1
                                        @     Child Loop BB3_3 Depth 2
.Ltmp66:
	.loc	1 212 21                        @ wifi.c:212:21
	ldr	r0, [sp]
	.loc	1 212 25                        @ wifi.c:212:25
	ldr	r1, [sp, #4]
.Ltmp67:
	.loc	1 212 5                         @ wifi.c:212:5
	cmp	r0, r1
	bge	.LBB3_9
	b	.LBB3_2
.LBB3_2:                                @   in Loop: Header=BB3_1 Depth=1
.Ltmp68:
	.loc	1 213 9 is_stmt 1               @ wifi.c:213:9
	b	.LBB3_3
.LBB3_3:                                @   Parent Loop BB3_1 Depth=1
                                        @ =>  This Inner Loop Header: Depth=2
	.loc	1 0 9 is_stmt 0                 @ wifi.c:0:9
	ldr	r0, __arm_cp.3_0
	.loc	1 213 27                        @ wifi.c:213:27
	ldr	r0, [r0]
	.loc	1 213 9                         @ wifi.c:213:9
	lsls	r0, r0, #8
	cmp	r0, #0
	bpl	.LBB3_5
	b	.LBB3_4
.LBB3_4:                                @   in Loop: Header=BB3_3 Depth=2
	b	.LBB3_3
.LBB3_5:                                @   in Loop: Header=BB3_1 Depth=1
	.loc	1 214 26 is_stmt 1              @ wifi.c:214:26
	ldr	r0, [sp, #8]
	.loc	1 214 34 is_stmt 0              @ wifi.c:214:34
	ldr	r1, [sp]
	.loc	1 214 26                        @ wifi.c:214:26
	ldrb	r0, [r0, r1]
	ldr	r1, __arm_cp.3_1
	.loc	1 214 24                        @ wifi.c:214:24
	str	r0, [r1]
.Ltmp69:
	.loc	1 215 12 is_stmt 1              @ wifi.c:215:12
	ldr	r0, [sp, #12]
.Ltmp70:
	.loc	1 215 12 is_stmt 0              @ wifi.c:215:12
	cmp	r0, #0
	beq	.LBB3_7
	b	.LBB3_6
.LBB3_6:                                @   in Loop: Header=BB3_1 Depth=1
.Ltmp71:
	.loc	1 215 32                        @ wifi.c:215:32
	ldr	r0, [sp, #8]
	.loc	1 215 40                        @ wifi.c:215:40
	ldr	r1, [sp]
	.loc	1 215 32                        @ wifi.c:215:32
	ldrb	r1, [r0, r1]
	.loc	1 215 19                        @ wifi.c:215:19
	ldr	r0, __arm_cp.3_2
	bl	printf
	b	.LBB3_7
.Ltmp72:
.LBB3_7:                                @   in Loop: Header=BB3_1 Depth=1
	.loc	1 216 5 is_stmt 1               @ wifi.c:216:5
	b	.LBB3_8
.Ltmp73:
.LBB3_8:                                @   in Loop: Header=BB3_1 Depth=1
	.loc	1 212 38                        @ wifi.c:212:38
	ldr	r0, [sp]
	adds	r0, r0, #1
	str	r0, [sp]
	.loc	1 212 5 is_stmt 0               @ wifi.c:212:5
	b	.LBB3_1
.Ltmp74:
.LBB3_9:
	.loc	1 218 1 is_stmt 1               @ wifi.c:218:1
	add	sp, #16
	pop	{r7, pc}
.Ltmp75:
	.p2align	2
@ %bb.10:
	.loc	1 0 1 is_stmt 0                 @ wifi.c:0:1
__arm_cp.3_0:
	.long	1342648344                      @ 0x50073018
.Lcpi_end34:
	.size	__arm_cp.3_0, .Lcpi_end34-__arm_cp.3_0
__arm_cp.3_1:
	.long	1342648320                      @ 0x50073000
.Lcpi_end35:
	.size	__arm_cp.3_1, .Lcpi_end35-__arm_cp.3_1
__arm_cp.3_2:
	.long	.L.str.9
.Lcpi_end36:
	.size	__arm_cp.3_2, .Lcpi_end36-__arm_cp.3_2
.Lfunc_end3:
	.size	WIFI_PORT_Write, .Lfunc_end3-WIFI_PORT_Write
	.cfi_endproc
	.cantunwind
	.fnend
                                        @ -- End function
	.section	.text.WIFI_PORT_Read,"ax",%progbits
	.hidden	WIFI_PORT_Read                  @ -- Begin function WIFI_PORT_Read
	.globl	WIFI_PORT_Read
	.p2align	2
	.type	WIFI_PORT_Read,%function
	.code	16                              @ @WIFI_PORT_Read
	.thumb_func
WIFI_PORT_Read:
.Lfunc_begin4:
	.loc	1 187 0 is_stmt 1               @ wifi.c:187:0
	.fnstart
	.cfi_startproc
@ %bb.0:
	.save	{r7, lr}
	push	{r7, lr}
	.cfi_def_cfa_offset 8
	.cfi_offset lr, -4
	.cfi_offset r7, -8
	.pad	#16
	sub	sp, #16
	.cfi_def_cfa_offset 24
	str	r0, [sp, #12]
	add	r0, sp, #8
	movs	r1, #0
.Ltmp76:
	.loc	1 188 10 prologue_end           @ wifi.c:188:10
	strb	r1, [r0]
	add	r0, sp, #4
	.loc	1 189 10                        @ wifi.c:189:10
	strb	r1, [r0]
	.loc	1 190 9                         @ wifi.c:190:9
	str	r1, [sp]
	ldr	r0, __arm_cp.4_0
	.loc	1 192 11                        @ wifi.c:192:11
	str	r1, [r0]
	.loc	1 193 5                         @ wifi.c:193:5
	b	.LBB4_1
.LBB4_1:                                @ =>This Loop Header: Depth=1
                                        @     Child Loop BB4_3 Depth 2
	.loc	1 193 11 is_stmt 0              @ wifi.c:193:11
	ldr	r0, [sp]
	.loc	1 193 5                         @ wifi.c:193:5
	cmp	r0, #0
	bne	.LBB4_12
	b	.LBB4_2
.LBB4_2:                                @   in Loop: Header=BB4_1 Depth=1
.Ltmp77:
	.loc	1 195 9 is_stmt 1               @ wifi.c:195:9
	b	.LBB4_3
.LBB4_3:                                @   Parent Loop BB4_1 Depth=1
                                        @ =>  This Inner Loop Header: Depth=2
	.loc	1 0 9 is_stmt 0                 @ wifi.c:0:9
	ldr	r0, __arm_cp.4_1
	.loc	1 195 27                        @ wifi.c:195:27
	ldr	r0, [r0]
	.loc	1 195 9                         @ wifi.c:195:9
	lsls	r0, r0, #17
	cmp	r0, #0
	bmi	.LBB4_11
	b	.LBB4_4
.LBB4_4:                                @   in Loop: Header=BB4_3 Depth=2
	.loc	1 0 9                           @ wifi.c:0:9
	ldr	r0, __arm_cp.4_2
.Ltmp78:
	.loc	1 196 36 is_stmt 1              @ wifi.c:196:36
	ldr	r0, [r0]
	add	r1, sp, #8
	.loc	1 196 17 is_stmt 0              @ wifi.c:196:17
	strb	r0, [r1]
.Ltmp79:
	.loc	1 197 17 is_stmt 1              @ wifi.c:197:17
	ldr	r0, [sp, #12]
.Ltmp80:
	.loc	1 197 17 is_stmt 0              @ wifi.c:197:17
	cmp	r0, #0
	beq	.LBB4_6
	b	.LBB4_5
.LBB4_5:                                @   in Loop: Header=BB4_3 Depth=2
	.loc	1 0 17                          @ wifi.c:0:17
	add	r0, sp, #8
.Ltmp81:
	.loc	1 197 37                        @ wifi.c:197:37
	ldrb	r1, [r0]
	.loc	1 197 24                        @ wifi.c:197:24
	ldr	r0, __arm_cp.4_3
	bl	printf
	b	.LBB4_6
.Ltmp82:
.LBB4_6:                                @   in Loop: Header=BB4_3 Depth=2
	.loc	1 0 24                          @ wifi.c:0:24
	add	r0, sp, #4
.Ltmp83:
	.loc	1 198 17 is_stmt 1              @ wifi.c:198:17
	ldrb	r0, [r0]
	.loc	1 198 32 is_stmt 0              @ wifi.c:198:32
	cmp	r0, #79
	bne	.LBB4_9
	b	.LBB4_7
.LBB4_7:                                @   in Loop: Header=BB4_3 Depth=2
	.loc	1 0 32                          @ wifi.c:0:32
	add	r0, sp, #8
	.loc	1 198 35                        @ wifi.c:198:35
	ldrb	r0, [r0]
.Ltmp84:
	.loc	1 198 17                        @ wifi.c:198:17
	cmp	r0, #75
	bne	.LBB4_9
	b	.LBB4_8
.LBB4_8:                                @   in Loop: Header=BB4_3 Depth=2
	.loc	1 0 17                          @ wifi.c:0:17
	movs	r0, #1
.Ltmp85:
	.loc	1 199 23 is_stmt 1              @ wifi.c:199:23
	str	r0, [sp]
	.loc	1 200 13                        @ wifi.c:200:13
	b	.LBB4_10
.Ltmp86:
.LBB4_9:                                @   in Loop: Header=BB4_3 Depth=2
	.loc	1 201 28                        @ wifi.c:201:28
	ldr	r0, [sp, #8]
	add	r1, sp, #4
	.loc	1 201 26 is_stmt 0              @ wifi.c:201:26
	strb	r0, [r1]
	b	.LBB4_10
.Ltmp87:
.LBB4_10:                               @   in Loop: Header=BB4_3 Depth=2
	.loc	1 195 9 is_stmt 1               @ wifi.c:195:9
	b	.LBB4_3
.Ltmp88:
.LBB4_11:                               @   in Loop: Header=BB4_1 Depth=1
	.loc	1 193 5                         @ wifi.c:193:5
	b	.LBB4_1
.LBB4_12:
	.loc	1 0 5 is_stmt 0                 @ wifi.c:0:5
	ldr	r0, __arm_cp.4_0
	movs	r1, #1
	.loc	1 205 11 is_stmt 1              @ wifi.c:205:11
	str	r1, [r0]
	.loc	1 207 1                         @ wifi.c:207:1
	add	sp, #16
	pop	{r7, pc}
.Ltmp89:
	.p2align	2
@ %bb.13:
	.loc	1 0 1 is_stmt 0                 @ wifi.c:0:1
__arm_cp.4_0:
	.long	1342195888                      @ 0x500048b0
.Lcpi_end37:
	.size	__arm_cp.4_0, .Lcpi_end37-__arm_cp.4_0
__arm_cp.4_1:
	.long	1342648344                      @ 0x50073018
.Lcpi_end38:
	.size	__arm_cp.4_1, .Lcpi_end38-__arm_cp.4_1
__arm_cp.4_2:
	.long	1342648320                      @ 0x50073000
.Lcpi_end39:
	.size	__arm_cp.4_2, .Lcpi_end39-__arm_cp.4_2
__arm_cp.4_3:
	.long	.L.str.9
.Lcpi_end40:
	.size	__arm_cp.4_3, .Lcpi_end40-__arm_cp.4_3
.Lfunc_end4:
	.size	WIFI_PORT_Read, .Lfunc_end4-WIFI_PORT_Read
	.cfi_endproc
	.cantunwind
	.fnend
                                        @ -- End function
	.hidden	ATCommand_AT                    @ @ATCommand_AT
	.type	ATCommand_AT,%object
	.section	.rodata.ATCommand_AT,"a",%progbits
	.globl	ATCommand_AT
ATCommand_AT:
	.asciz	"AT\r\n"
	.size	ATCommand_AT, 5

	.hidden	ATCommand_RST                   @ @ATCommand_RST
	.type	ATCommand_RST,%object
	.section	.rodata.ATCommand_RST,"a",%progbits
	.globl	ATCommand_RST
ATCommand_RST:
	.asciz	"AT+RST\r\n"
	.size	ATCommand_RST, 9

	.hidden	ATCommand_GMR                   @ @ATCommand_GMR
	.type	ATCommand_GMR,%object
	.section	.rodata.ATCommand_GMR,"a",%progbits
	.globl	ATCommand_GMR
ATCommand_GMR:
	.asciz	"AT+GMR\r\n"
	.size	ATCommand_GMR, 9

	.hidden	ATCommand_CWMODE_GET            @ @ATCommand_CWMODE_GET
	.type	ATCommand_CWMODE_GET,%object
	.section	.rodata.ATCommand_CWMODE_GET,"a",%progbits
	.globl	ATCommand_CWMODE_GET
ATCommand_CWMODE_GET:
	.asciz	"AT+CWMODE?\r\n"
	.size	ATCommand_CWMODE_GET, 13

	.hidden	ATCommand_CWMODE_SET1           @ @ATCommand_CWMODE_SET1
	.type	ATCommand_CWMODE_SET1,%object
	.section	.rodata.ATCommand_CWMODE_SET1,"a",%progbits
	.globl	ATCommand_CWMODE_SET1
ATCommand_CWMODE_SET1:
	.asciz	"AT+CWMODE=1\r\n"
	.size	ATCommand_CWMODE_SET1, 14

	.hidden	ATCommand_CWMODE_SET2           @ @ATCommand_CWMODE_SET2
	.type	ATCommand_CWMODE_SET2,%object
	.section	.rodata.ATCommand_CWMODE_SET2,"a",%progbits
	.globl	ATCommand_CWMODE_SET2
ATCommand_CWMODE_SET2:
	.asciz	"AT+CWMODE=2\r\n"
	.size	ATCommand_CWMODE_SET2, 14

	.hidden	ATCommand_CWMODE_SET3           @ @ATCommand_CWMODE_SET3
	.type	ATCommand_CWMODE_SET3,%object
	.section	.rodata.ATCommand_CWMODE_SET3,"a",%progbits
	.globl	ATCommand_CWMODE_SET3
ATCommand_CWMODE_SET3:
	.asciz	"AT+CWMODE=3\r\n"
	.size	ATCommand_CWMODE_SET3, 14

	.hidden	ATCommand_CWJAP_GET             @ @ATCommand_CWJAP_GET
	.type	ATCommand_CWJAP_GET,%object
	.section	.rodata.ATCommand_CWJAP_GET,"a",%progbits
	.globl	ATCommand_CWJAP_GET
ATCommand_CWJAP_GET:
	.asciz	"AT+CWJAP=?\r\n"
	.size	ATCommand_CWJAP_GET, 13

	.hidden	ATCommand_CWJAP_SET             @ @ATCommand_CWJAP_SET
	.type	ATCommand_CWJAP_SET,%object
	.section	.rodata.ATCommand_CWJAP_SET,"a",%progbits
	.globl	ATCommand_CWJAP_SET
ATCommand_CWJAP_SET:
	.asciz	"AT+CWJAP=\"SK_WiFiGIGA7EB1\",\"1603004500\"\r\n"
	.size	ATCommand_CWJAP_SET, 42

	.hidden	ATCommand_CIPSTA_GET            @ @ATCommand_CIPSTA_GET
	.type	ATCommand_CIPSTA_GET,%object
	.section	.rodata.ATCommand_CIPSTA_GET,"a",%progbits
	.globl	ATCommand_CIPSTA_GET
ATCommand_CIPSTA_GET:
	.asciz	"AT+CIPSTA=?\r\n"
	.size	ATCommand_CIPSTA_GET, 14

	.hidden	ATCommand_CIPSTA_SET            @ @ATCommand_CIPSTA_SET
	.type	ATCommand_CIPSTA_SET,%object
	.section	.rodata.ATCommand_CIPSTA_SET,"a",%progbits
	.globl	ATCommand_CIPSTA_SET
ATCommand_CIPSTA_SET:
	.asciz	"AT+CIPSTA=\"192.168.35.127\"\r\n"
	.size	ATCommand_CIPSTA_SET, 29

	.hidden	ATCommand_CIPSTATUS             @ @ATCommand_CIPSTATUS
	.type	ATCommand_CIPSTATUS,%object
	.section	.rodata.ATCommand_CIPSTATUS,"a",%progbits
	.globl	ATCommand_CIPSTATUS
ATCommand_CIPSTATUS:
	.asciz	"AT+CIPSTATUS\r\n"
	.size	ATCommand_CIPSTATUS, 15

	.hidden	ATCommand_CIPMUX_GET            @ @ATCommand_CIPMUX_GET
	.type	ATCommand_CIPMUX_GET,%object
	.section	.rodata.ATCommand_CIPMUX_GET,"a",%progbits
	.globl	ATCommand_CIPMUX_GET
ATCommand_CIPMUX_GET:
	.asciz	"AT+CIPMUX?\r\n"
	.size	ATCommand_CIPMUX_GET, 13

	.hidden	ATCommand_CIPMUX_SET0           @ @ATCommand_CIPMUX_SET0
	.type	ATCommand_CIPMUX_SET0,%object
	.section	.rodata.ATCommand_CIPMUX_SET0,"a",%progbits
	.globl	ATCommand_CIPMUX_SET0
ATCommand_CIPMUX_SET0:
	.asciz	"AT+CIPMUX=0\r\n"
	.size	ATCommand_CIPMUX_SET0, 14

	.hidden	ATCommand_CIPMUX_SET1           @ @ATCommand_CIPMUX_SET1
	.type	ATCommand_CIPMUX_SET1,%object
	.section	.rodata.ATCommand_CIPMUX_SET1,"a",%progbits
	.globl	ATCommand_CIPMUX_SET1
ATCommand_CIPMUX_SET1:
	.asciz	"AT+CIPMUX=1\r\n"
	.size	ATCommand_CIPMUX_SET1, 14

	.hidden	ATCommand_CIFSR                 @ @ATCommand_CIFSR
	.type	ATCommand_CIFSR,%object
	.section	.rodata.ATCommand_CIFSR,"a",%progbits
	.globl	ATCommand_CIFSR
ATCommand_CIFSR:
	.asciz	"AT+CIFSR\r\n"
	.size	ATCommand_CIFSR, 11

	.hidden	ATCommand_CIPSTART              @ @ATCommand_CIPSTART
	.type	ATCommand_CIPSTART,%object
	.section	.rodata.ATCommand_CIPSTART,"a",%progbits
	.globl	ATCommand_CIPSTART
ATCommand_CIPSTART:
	.asciz	"AT+CIPSTART=\"TCP\",\"192.168.35.128\",80\r\n"
	.size	ATCommand_CIPSTART, 40

	.hidden	ATCommand_CIPSEND               @ @ATCommand_CIPSEND
	.type	ATCommand_CIPSEND,%object
	.section	.rodata.ATCommand_CIPSEND,"a",%progbits
	.globl	ATCommand_CIPSEND
ATCommand_CIPSEND:
	.asciz	"AT+CIPSEND\r\n"
	.size	ATCommand_CIPSEND, 13

	.hidden	ATCommand_CIPCLOSE              @ @ATCommand_CIPCLOSE
	.type	ATCommand_CIPCLOSE,%object
	.section	.rodata.ATCommand_CIPCLOSE,"a",%progbits
	.globl	ATCommand_CIPCLOSE
ATCommand_CIPCLOSE:
	.asciz	"AT+CIPCLOSE\r\n"
	.size	ATCommand_CIPCLOSE, 14

	.hidden	command_AT                      @ @command_AT
	.type	command_AT,%object
	.section	.data.command_AT,"aw",%progbits
	.globl	command_AT
command_AT:
	.asciz	"AT\r\n"
	.size	command_AT, 5

	.hidden	command_CWMODE                  @ @command_CWMODE
	.type	command_CWMODE,%object
	.section	.data.command_CWMODE,"aw",%progbits
	.globl	command_CWMODE
command_CWMODE:
	.asciz	"AT+CWMODE=2\r\n"
	.size	command_CWMODE, 14

	.hidden	command_CWDHCP                  @ @command_CWDHCP
	.type	command_CWDHCP,%object
	.section	.data.command_CWDHCP,"aw",%progbits
	.globl	command_CWDHCP
command_CWDHCP:
	.asciz	"AT+CWDHCP=0,0\r\n"
	.size	command_CWDHCP, 16

	.hidden	command_CWSAP                   @ @command_CWSAP
	.type	command_CWSAP,%object
	.section	.data.command_CWSAP,"aw",%progbits
	.globl	command_CWSAP
command_CWSAP:
	.asciz	"AT+CWSAP=\"NuvotonBoard\",\"oscorepass\",5,3\r\n"
	.size	command_CWSAP, 43

	.hidden	command_CIPAP                   @ @command_CIPAP
	.type	command_CIPAP,%object
	.section	.data.command_CIPAP,"aw",%progbits
	.globl	command_CIPAP
command_CIPAP:
	.asciz	"AT+CIPAP=\"192.168.4.254\"\r\n"
	.size	command_CIPAP, 27

	.hidden	command_CIPMUX                  @ @command_CIPMUX
	.type	command_CIPMUX,%object
	.section	.data.command_CIPMUX,"aw",%progbits
	.globl	command_CIPMUX
command_CIPMUX:
	.asciz	"AT+CIPMUX=1\r\n"
	.size	command_CIPMUX, 14

	.hidden	command_CIPSERVER               @ @command_CIPSERVER
	.type	command_CIPSERVER,%object
	.section	.data.command_CIPSERVER,"aw",%progbits
	.globl	command_CIPSERVER
command_CIPSERVER:
	.asciz	"AT+CIPSERVER=1,5386\r\n"
	.size	command_CIPSERVER, 22

	.hidden	command_CIPSTART                @ @command_CIPSTART
	.type	command_CIPSTART,%object
	.section	.data.command_CIPSTART,"aw",%progbits
	.globl	command_CIPSTART
command_CIPSTART:
	.asciz	"AT+CIPSTART=0,\"UDP\",\"0.0.0.0\",5386,5386,2\r\n"
	.size	command_CIPSTART, 44

	.hidden	command_CIPSTO                  @ @command_CIPSTO
	.type	command_CIPSTO,%object
	.section	.data.command_CIPSTO,"aw",%progbits
	.globl	command_CIPSTO
command_CIPSTO:
	.asciz	"AT+CIPSTO?\r\n"
	.size	command_CIPSTO, 13

	.type	.L.str,%object                  @ @.str
	.section	.rodata.str1.1,"aMS",%progbits,1
.L.str:
	.asciz	"|            WiFi Module Loading  ...         |\n"
	.size	.L.str, 49

	.type	.L.str.1,%object                @ @.str.1
.L.str.1:
	.asciz	"|                                             |\n"
	.size	.L.str.1, 49

	.type	.L.str.2,%object                @ @.str.2
.L.str.2:
	.asciz	"|        Current mode : [1] Station           |\n"
	.size	.L.str.2, 49

	.type	.L.str.3,%object                @ @.str.3
.L.str.3:
	.asciz	"|        WiFi SSID :  \"SK_WiFiGIGA7EB1\"       |\n"
	.size	.L.str.3, 49

	.type	.L.str.4,%object                @ @.str.4
.L.str.4:
	.asciz	"|        Set Station IP : 192.168.35.127      |\n"
	.size	.L.str.4, 49

	.type	.L.str.5,%object                @ @.str.5
.L.str.5:
	.asciz	"|   \tWiFi Single Server Connections Enabled    |\n"
	.size	.L.str.5, 50

	.type	.L.str.6,%object                @ @.str.6
.L.str.6:
	.asciz	"|       Server TCP enabled on 80 port   \t  \t|\n"
	.size	.L.str.6, 47

	.type	.L.str.7,%object                @ @.str.7
.L.str.7:
	.asciz	"|        WiFi Module ESP8266 is Ready         |\n"
	.size	.L.str.7, 49

	.type	.L.str.8,%object                @ @.str.8
.L.str.8:
	.asciz	"+---------------------------------------------+\n"
	.size	.L.str.8, 49

	.type	.L.str.9,%object                @ @.str.9
.L.str.9:
	.asciz	"%c"
	.size	.L.str.9, 3

	.section	".note.GNU-stack","",%progbits
	.eabi_attribute	30, 6	@ Tag_ABI_optimization_goals
	.ARM_attribute	16, 1	@ Tag_AV_eba