	.text
	.syntax unified
	.eabi_attribute	67, "2.09"	@ Tag_conformance
	.cpu	cortex-m23
	.eabi_attribute	6, 16	@ Tag_CPU_arch
	.eabi_attribute	7, 77	@ Tag_CPU_arch_profile
	.eabi_attribute	8, 0	@ Tag_ARM_ISA_use
	.eabi_attribute	9, 3	@ Tag_THUMB_ISA_use
	.eabi_attribute	34, 0	@ Tag_CPU_unaligned_access
	.eabi_attribute	17, 1	@ Tag_ABI_PCS_GOT_use
	.eabi_attribute	20, 2	@ Tag_ABI_FP_denormal
	.eabi_attribute	21, 0	@ Tag_ABI_FP_exceptions
	.eabi_attribute	23, 1	@ Tag_ABI_FP_number_model
	.eabi_attribute	24, 1	@ Tag_ABI_align_needed
	.eabi_attribute	25, 1	@ Tag_ABI_align_preserved
	.eabi_attribute	38, 1	@ Tag_ABI_FP_16bit_format
	.eabi_attribute	18, 2	@ Tag_ABI_PCS_wchar_t
	.eabi_attribute	26, 1	@ Tag_ABI_enum_size
	.eabi_attribute	14, 0	@ Tag_ABI_PCS_R9_use
	.file	"aes.c"
	.file	1 "C:\\" "Keil_v5\\ARM\\ARMCLANG\\Bin\\..\\include\\stdint.h"
	.file	2 "C:\\Users\\shw26\\OneDrive\\Desktop\\2021\\2021-1\\\354\272\241\354\212\244\355\206\244\353\224\224\354\236\220\354\235\2702\\Nuvoton\\M2351_BSP_v3.00.004\\M2351Series_BSP_CMSIS_V3.00.004\\MyProject\\PulseMonitoring\\Secure" "../../../ThirdParty/mbedTLS/library/aes.c"
	.section	.text.mbedtls_aes_init,"ax",%progbits
	.hidden	mbedtls_aes_init                @ -- Begin function mbedtls_aes_init
	.globl	mbedtls_aes_init
	.p2align	1
	.type	mbedtls_aes_init,%function
	.code	16                              @ @mbedtls_aes_init
	.thumb_func
mbedtls_aes_init:
.Lfunc_begin0:
	.loc	2 523 0                         @ ../../../ThirdParty/mbedTLS/library/aes.c:523:0
	.fnstart
	.cfi_sections .debug_frame
	.cfi_startproc
@ %bb.0:
	@DEBUG_VALUE: mbedtls_aes_init:ctx <- $r0
	@DEBUG_VALUE: mbedtls_aes_init:ctx <- $r0
	@DEBUG_VALUE: mbedtls_aes_init:ctx <- $r0
	.save	{r7, lr}
	push	{r7, lr}
	.cfi_def_cfa_offset 8
	.cfi_offset lr, -4
	.cfi_offset r7, -8
.Ltmp0:
	.loc	2 526 5 prologue_end            @ ../../../ThirdParty/mbedTLS/library/aes.c:526:5
	movw	r1, #280
	bl	__aeabi_memclr4
.Ltmp1:
	@DEBUG_VALUE: mbedtls_aes_init:ctx <- [DW_OP_LLVM_entry_value 1] $r0
	.loc	2 527 1                         @ ../../../ThirdParty/mbedTLS/library/aes.c:527:1
	pop	{r7, pc}
.Ltmp2:
.Lfunc_end0:
	.size	mbedtls_aes_init, .Lfunc_end0-mbedtls_aes_init
	.cfi_endproc
	.cantunwind
	.fnend
                                        @ -- End function
	.section	.text.mbedtls_aes_free,"ax",%progbits
	.hidden	mbedtls_aes_free                @ -- Begin function mbedtls_aes_free
	.globl	mbedtls_aes_free
	.p2align	1
	.type	mbedtls_aes_free,%function
	.code	16                              @ @mbedtls_aes_free
	.thumb_func
mbedtls_aes_free:
.Lfunc_begin1:
	.loc	2 530 0                         @ ../../../ThirdParty/mbedTLS/library/aes.c:530:0
	.fnstart
	.cfi_startproc
@ %bb.0:
	@DEBUG_VALUE: mbedtls_aes_free:ctx <- $r0
	@DEBUG_VALUE: mbedtls_aes_free:ctx <- $r0
	.save	{r7, lr}
	push	{r7, lr}
	.cfi_def_cfa_offset 8
	.cfi_offset lr, -4
	.cfi_offset r7, -8
.Ltmp3:
	.loc	2 531 9 prologue_end            @ ../../../ThirdParty/mbedTLS/library/aes.c:531:9
	cbz	r0, .LBB1_2
.Ltmp4:
@ %bb.1:
	@DEBUG_VALUE: mbedtls_aes_free:ctx <- $r0
	.loc	2 534 5                         @ ../../../ThirdParty/mbedTLS/library/aes.c:534:5
	movw	r1, #280
	bl	mbedtls_platform_zeroize
.Ltmp5:
	@DEBUG_VALUE: mbedtls_aes_free:ctx <- [DW_OP_LLVM_entry_value 1] $r0
.LBB1_2:
	.loc	2 535 1                         @ ../../../ThirdParty/mbedTLS/library/aes.c:535:1
	pop	{r7, pc}
.Ltmp6:
.Lfunc_end1:
	.size	mbedtls_aes_free, .Lfunc_end1-mbedtls_aes_free
	.cfi_endproc
	.cantunwind
	.fnend
                                        @ -- End function
	.section	.text.mbedtls_aes_setkey_enc,"ax",%progbits
	.hidden	mbedtls_aes_setkey_enc          @ -- Begin function mbedtls_aes_setkey_enc
	.globl	mbedtls_aes_setkey_enc
	.p2align	2
	.type	mbedtls_aes_setkey_enc,%function
	.code	16                              @ @mbedtls_aes_setkey_enc
	.thumb_func
mbedtls_aes_setkey_enc:
.Lfunc_begin2:
	.loc	2 562 0                         @ ../../../ThirdParty/mbedTLS/library/aes.c:562:0
	.fnstart
	.cfi_startproc
@ %bb.0:
	@DEBUG_VALUE: mbedtls_aes_setkey_enc:ctx <- $r0
	@DEBUG_VALUE: mbedtls_aes_setkey_enc:ctx <- $r0
	@DEBUG_VALUE: mbedtls_aes_setkey_enc:key <- $r1
	@DEBUG_VALUE: mbedtls_aes_setkey_enc:key <- $r1
	@DEBUG_VALUE: mbedtls_aes_setkey_enc:keybits <- $r2
	@DEBUG_VALUE: mbedtls_aes_setkey_enc:keybits <- $r2
	.save	{r4, r5, r6, r7, lr}
	push	{r4, r5, r6, r7, lr}
	.cfi_def_cfa_offset 20
	.cfi_offset lr, -4
	.cfi_offset r7, -8
	.cfi_offset r6, -12
	.cfi_offset r5, -16
	.cfi_offset r4, -20
	.pad	#4
	sub	sp, #4
	.cfi_def_cfa_offset 24
.Ltmp7:
	.loc	2 569 5 prologue_end            @ ../../../ThirdParty/mbedTLS/library/aes.c:569:5
	cmp	r2, #128
	beq	.LBB2_4
.Ltmp8:
@ %bb.1:
	@DEBUG_VALUE: mbedtls_aes_setkey_enc:keybits <- $r2
	@DEBUG_VALUE: mbedtls_aes_setkey_enc:key <- $r1
	@DEBUG_VALUE: mbedtls_aes_setkey_enc:ctx <- $r0
	.loc	2 0 5 is_stmt 0                 @ ../../../ThirdParty/mbedTLS/library/aes.c:0:5
	movw	r3, #256
	.loc	2 569 5                         @ ../../../ThirdParty/mbedTLS/library/aes.c:569:5
	cmp	r2, r3
	beq	.LBB2_5
.Ltmp9:
@ %bb.2:
	@DEBUG_VALUE: mbedtls_aes_setkey_enc:keybits <- $r2
	@DEBUG_VALUE: mbedtls_aes_setkey_enc:key <- $r1
	@DEBUG_VALUE: mbedtls_aes_setkey_enc:ctx <- $r0
	cmp	r2, #192
	bne	.LBB2_14
.Ltmp10:
@ %bb.3:
	@DEBUG_VALUE: mbedtls_aes_setkey_enc:keybits <- $r2
	@DEBUG_VALUE: mbedtls_aes_setkey_enc:key <- $r1
	@DEBUG_VALUE: mbedtls_aes_setkey_enc:ctx <- $r0
	.loc	2 0 5                           @ ../../../ThirdParty/mbedTLS/library/aes.c:0:5
	movs	r4, #12
	b	.LBB2_6
.Ltmp11:
.LBB2_4:
	@DEBUG_VALUE: mbedtls_aes_setkey_enc:keybits <- $r2
	@DEBUG_VALUE: mbedtls_aes_setkey_enc:key <- $r1
	@DEBUG_VALUE: mbedtls_aes_setkey_enc:ctx <- $r0
	movs	r4, #10
	b	.LBB2_6
.Ltmp12:
.LBB2_5:
	@DEBUG_VALUE: mbedtls_aes_setkey_enc:keybits <- $r2
	@DEBUG_VALUE: mbedtls_aes_setkey_enc:key <- $r1
	@DEBUG_VALUE: mbedtls_aes_setkey_enc:ctx <- $r0
	movs	r4, #14
.Ltmp13:
.LBB2_6:
	@DEBUG_VALUE: mbedtls_aes_setkey_enc:keybits <- $r2
	@DEBUG_VALUE: mbedtls_aes_setkey_enc:key <- $r1
	@DEBUG_VALUE: mbedtls_aes_setkey_enc:ctx <- $r0
	.loc	2 600 24 is_stmt 1              @ ../../../ThirdParty/mbedTLS/library/aes.c:600:24
	mov	r3, r0
	adds	r3, #8
.Ltmp14:
	@DEBUG_VALUE: mbedtls_aes_setkey_enc:i <- 0
	@DEBUG_VALUE: mbedtls_aes_setkey_enc:RK <- $r3
	.loc	2 0 0 is_stmt 0                 @ ../../../ThirdParty/mbedTLS/library/aes.c:0:0
	str	r4, [r0]
.Ltmp15:
	.loc	2 600 17                        @ ../../../ThirdParty/mbedTLS/library/aes.c:600:17
	str	r3, [r0, #4]
.Ltmp16:
	.loc	2 607 31 is_stmt 1              @ ../../../ThirdParty/mbedTLS/library/aes.c:607:31
	lsrs	r2, r2, #5
.Ltmp17:
	@DEBUG_VALUE: mbedtls_aes_setkey_enc:keybits <- [DW_OP_LLVM_entry_value 1] $r2
	.loc	2 607 5 is_stmt 0               @ ../../../ThirdParty/mbedTLS/library/aes.c:607:5
	beq	.LBB2_9
.Ltmp18:
@ %bb.7:
	@DEBUG_VALUE: mbedtls_aes_setkey_enc:RK <- $r3
	@DEBUG_VALUE: mbedtls_aes_setkey_enc:key <- $r1
	@DEBUG_VALUE: mbedtls_aes_setkey_enc:ctx <- $r0
	@DEBUG_VALUE: mbedtls_aes_setkey_enc:keybits <- [DW_OP_LLVM_entry_value 1] $r2
	@DEBUG_VALUE: mbedtls_aes_setkey_enc:i <- 0
	mov	r4, r0
	adds	r4, #8
.Ltmp19:
.LBB2_8:                                @ =>This Inner Loop Header: Depth=1
	@DEBUG_VALUE: mbedtls_aes_setkey_enc:RK <- $r3
	@DEBUG_VALUE: mbedtls_aes_setkey_enc:ctx <- $r0
	@DEBUG_VALUE: mbedtls_aes_setkey_enc:keybits <- [DW_OP_LLVM_entry_value 1] $r2
	@DEBUG_VALUE: mbedtls_aes_setkey_enc:i <- undef
	.loc	2 609 9 is_stmt 1               @ ../../../ThirdParty/mbedTLS/library/aes.c:609:9
	ldrb	r5, [r1]
	ldrb	r6, [r1, #1]
	lsls	r6, r6, #8
	adds	r5, r6, r5
	ldrb	r6, [r1, #2]
	lsls	r6, r6, #16
	adds	r5, r5, r6
	ldrb	r6, [r1, #3]
	lsls	r6, r6, #24
	adds	r5, r5, r6
	stm	r4!, {r5}
.Ltmp20:
	.loc	2 607 19                        @ ../../../ThirdParty/mbedTLS/library/aes.c:607:19
	adds	r1, r1, #4
.Ltmp21:
	@DEBUG_VALUE: mbedtls_aes_setkey_enc:key <- [DW_OP_LLVM_entry_value 1] $r1
	@DEBUG_VALUE: mbedtls_aes_setkey_enc:i <- [DW_OP_plus_uconst 1, DW_OP_stack_value] undef
	subs	r2, r2, #1
.Ltmp22:
	.loc	2 607 5 is_stmt 0               @ ../../../ThirdParty/mbedTLS/library/aes.c:607:5
	bne	.LBB2_8
.Ltmp23:
.LBB2_9:
	@DEBUG_VALUE: mbedtls_aes_setkey_enc:RK <- $r3
	@DEBUG_VALUE: mbedtls_aes_setkey_enc:ctx <- $r0
	@DEBUG_VALUE: mbedtls_aes_setkey_enc:keybits <- [DW_OP_LLVM_entry_value 1] $r2
	.loc	2 612 18 is_stmt 1              @ ../../../ThirdParty/mbedTLS/library/aes.c:612:18
	ldr	r0, [r0]
.Ltmp24:
	.loc	2 612 5 is_stmt 0               @ ../../../ThirdParty/mbedTLS/library/aes.c:612:5
	cmp	r0, #10
	beq	.LBB2_15
.Ltmp25:
@ %bb.10:
	@DEBUG_VALUE: mbedtls_aes_setkey_enc:RK <- $r3
	@DEBUG_VALUE: mbedtls_aes_setkey_enc:keybits <- [DW_OP_LLVM_entry_value 1] $r2
	cmp	r0, #12
	beq	.LBB2_17
.Ltmp26:
@ %bb.11:
	@DEBUG_VALUE: mbedtls_aes_setkey_enc:RK <- $r3
	@DEBUG_VALUE: mbedtls_aes_setkey_enc:keybits <- [DW_OP_LLVM_entry_value 1] $r2
	cmp	r0, #14
	beq	.LBB2_12
	b	.LBB2_20
.Ltmp27:
.LBB2_12:
	@DEBUG_VALUE: mbedtls_aes_setkey_enc:RK <- $r3
	@DEBUG_VALUE: mbedtls_aes_setkey_enc:keybits <- [DW_OP_LLVM_entry_value 1] $r2
	.loc	2 0 5                           @ ../../../ThirdParty/mbedTLS/library/aes.c:0:5
	movs	r4, #0
	ldr	r1, __arm_cp.2_0
	ldr	r2, __arm_cp.2_1
	str	r4, [sp]                        @ 4-byte Spill
.Ltmp28:
.LBB2_13:                               @ =>This Inner Loop Header: Depth=1
	@DEBUG_VALUE: mbedtls_aes_setkey_enc:keybits <- [DW_OP_LLVM_entry_value 1] $r2
	@DEBUG_VALUE: mbedtls_aes_setkey_enc:RK <- $r3
	@DEBUG_VALUE: mbedtls_aes_setkey_enc:i <- undef
	.loc	2 652 30 is_stmt 1              @ ../../../ThirdParty/mbedTLS/library/aes.c:652:30
	ldr	r0, [r1, r4]
	.loc	2 652 22 is_stmt 0              @ ../../../ThirdParty/mbedTLS/library/aes.c:652:22
	ldr	r6, [r3]
	.loc	2 652 28                        @ ../../../ThirdParty/mbedTLS/library/aes.c:652:28
	eors	r6, r0
	.loc	2 653 42 is_stmt 1              @ ../../../ThirdParty/mbedTLS/library/aes.c:653:42
	ldr	r5, [r3, #28]
	.loc	2 653 48 is_stmt 0              @ ../../../ThirdParty/mbedTLS/library/aes.c:653:48
	lsrs	r0, r5, #8
	.loc	2 653 56                        @ ../../../ThirdParty/mbedTLS/library/aes.c:653:56
	uxtb	r0, r0
	.loc	2 653 35                        @ ../../../ThirdParty/mbedTLS/library/aes.c:653:35
	ldrb	r0, [r2, r0]
	.loc	2 652 38 is_stmt 1              @ ../../../ThirdParty/mbedTLS/library/aes.c:652:38
	eors	r0, r6
	.loc	2 654 48                        @ ../../../ThirdParty/mbedTLS/library/aes.c:654:48
	lsrs	r6, r5, #16
	.loc	2 654 56 is_stmt 0              @ ../../../ThirdParty/mbedTLS/library/aes.c:654:56
	uxtb	r6, r6
	.loc	2 654 35                        @ ../../../ThirdParty/mbedTLS/library/aes.c:654:35
	ldrb	r6, [r2, r6]
	.loc	2 654 65                        @ ../../../ThirdParty/mbedTLS/library/aes.c:654:65
	lsls	r6, r6, #8
	.loc	2 653 73 is_stmt 1              @ ../../../ThirdParty/mbedTLS/library/aes.c:653:73
	eors	r6, r0
	.loc	2 655 48                        @ ../../../ThirdParty/mbedTLS/library/aes.c:655:48
	lsrs	r0, r5, #24
	.loc	2 655 35 is_stmt 0              @ ../../../ThirdParty/mbedTLS/library/aes.c:655:35
	ldrb	r0, [r2, r0]
	.loc	2 655 65                        @ ../../../ThirdParty/mbedTLS/library/aes.c:655:65
	lsls	r0, r0, #16
	.loc	2 654 73 is_stmt 1              @ ../../../ThirdParty/mbedTLS/library/aes.c:654:73
	eors	r0, r6
	.loc	2 656 56                        @ ../../../ThirdParty/mbedTLS/library/aes.c:656:56
	uxtb	r6, r5
	.loc	2 656 24 is_stmt 0              @ ../../../ThirdParty/mbedTLS/library/aes.c:656:24
	ldrb	r6, [r2, r6]
	.loc	2 656 65                        @ ../../../ThirdParty/mbedTLS/library/aes.c:656:65
	lsls	r6, r6, #24
	.loc	2 655 73 is_stmt 1              @ ../../../ThirdParty/mbedTLS/library/aes.c:655:73
	eors	r6, r0
	.loc	2 652 20                        @ ../../../ThirdParty/mbedTLS/library/aes.c:652:20
	str	r6, [r3, #32]
	.loc	2 658 22                        @ ../../../ThirdParty/mbedTLS/library/aes.c:658:22
	ldr	r0, [r3, #4]
	.loc	2 658 28 is_stmt 0              @ ../../../ThirdParty/mbedTLS/library/aes.c:658:28
	eors	r0, r6
	.loc	2 658 20                        @ ../../../ThirdParty/mbedTLS/library/aes.c:658:20
	str	r0, [r3, #36]
	.loc	2 659 22 is_stmt 1              @ ../../../ThirdParty/mbedTLS/library/aes.c:659:22
	ldr	r7, [r3, #8]
	.loc	2 659 28 is_stmt 0              @ ../../../ThirdParty/mbedTLS/library/aes.c:659:28
	eors	r7, r0
	.loc	2 659 20                        @ ../../../ThirdParty/mbedTLS/library/aes.c:659:20
	str	r7, [r3, #40]
	.loc	2 660 22 is_stmt 1              @ ../../../ThirdParty/mbedTLS/library/aes.c:660:22
	ldr	r6, [r3, #12]
	.loc	2 660 28 is_stmt 0              @ ../../../ThirdParty/mbedTLS/library/aes.c:660:28
	eors	r6, r7
	.loc	2 660 20                        @ ../../../ThirdParty/mbedTLS/library/aes.c:660:20
	str	r6, [r3, #44]
	.loc	2 663 57 is_stmt 1              @ ../../../ThirdParty/mbedTLS/library/aes.c:663:57
	uxtb	r0, r6
	.loc	2 663 35 is_stmt 0              @ ../../../ThirdParty/mbedTLS/library/aes.c:663:35
	ldrb	r0, [r2, r0]
	.loc	2 662 22 is_stmt 1              @ ../../../ThirdParty/mbedTLS/library/aes.c:662:22
	ldr	r7, [r3, #16]
	.loc	2 662 28 is_stmt 0              @ ../../../ThirdParty/mbedTLS/library/aes.c:662:28
	eors	r7, r0
	.loc	2 664 49 is_stmt 1              @ ../../../ThirdParty/mbedTLS/library/aes.c:664:49
	lsrs	r0, r6, #8
	.loc	2 664 57 is_stmt 0              @ ../../../ThirdParty/mbedTLS/library/aes.c:664:57
	uxtb	r0, r0
	.loc	2 664 35                        @ ../../../ThirdParty/mbedTLS/library/aes.c:664:35
	ldrb	r0, [r2, r0]
	.loc	2 664 66                        @ ../../../ThirdParty/mbedTLS/library/aes.c:664:66
	lsls	r0, r0, #8
	.loc	2 663 74 is_stmt 1              @ ../../../ThirdParty/mbedTLS/library/aes.c:663:74
	eors	r0, r7
	.loc	2 665 49                        @ ../../../ThirdParty/mbedTLS/library/aes.c:665:49
	lsrs	r7, r6, #16
	.loc	2 665 57 is_stmt 0              @ ../../../ThirdParty/mbedTLS/library/aes.c:665:57
	uxtb	r7, r7
	.loc	2 665 35                        @ ../../../ThirdParty/mbedTLS/library/aes.c:665:35
	ldrb	r7, [r2, r7]
	.loc	2 665 66                        @ ../../../ThirdParty/mbedTLS/library/aes.c:665:66
	lsls	r7, r7, #16
	.loc	2 664 74 is_stmt 1              @ ../../../ThirdParty/mbedTLS/library/aes.c:664:74
	eors	r7, r0
	.loc	2 666 49                        @ ../../../ThirdParty/mbedTLS/library/aes.c:666:49
	lsrs	r0, r6, #24
	.loc	2 666 24 is_stmt 0              @ ../../../ThirdParty/mbedTLS/library/aes.c:666:24
	ldrb	r0, [r2, r0]
	.loc	2 666 66                        @ ../../../ThirdParty/mbedTLS/library/aes.c:666:66
	lsls	r0, r0, #24
	.loc	2 665 74 is_stmt 1              @ ../../../ThirdParty/mbedTLS/library/aes.c:665:74
	eors	r0, r7
	.loc	2 662 20                        @ ../../../ThirdParty/mbedTLS/library/aes.c:662:20
	str	r0, [r3, #48]
	.loc	2 668 22                        @ ../../../ThirdParty/mbedTLS/library/aes.c:668:22
	ldr	r6, [r3, #20]
	.loc	2 668 28 is_stmt 0              @ ../../../ThirdParty/mbedTLS/library/aes.c:668:28
	eors	r6, r0
	.loc	2 668 20                        @ ../../../ThirdParty/mbedTLS/library/aes.c:668:20
	str	r6, [r3, #52]
	.loc	2 669 22 is_stmt 1              @ ../../../ThirdParty/mbedTLS/library/aes.c:669:22
	ldr	r0, [r3, #24]
	.loc	2 669 28 is_stmt 0              @ ../../../ThirdParty/mbedTLS/library/aes.c:669:28
	eors	r0, r6
	.loc	2 669 20                        @ ../../../ThirdParty/mbedTLS/library/aes.c:669:20
	str	r0, [r3, #56]
	.loc	2 670 28 is_stmt 1              @ ../../../ThirdParty/mbedTLS/library/aes.c:670:28
	eors	r0, r5
	.loc	2 670 20 is_stmt 0              @ ../../../ThirdParty/mbedTLS/library/aes.c:670:20
	str	r0, [r3, #60]
	.loc	2 652 20 is_stmt 1              @ ../../../ThirdParty/mbedTLS/library/aes.c:652:20
	adds	r3, #32
.Ltmp29:
	@DEBUG_VALUE: mbedtls_aes_setkey_enc:i <- [DW_OP_plus_uconst 1, DW_OP_stack_value] undef
	@DEBUG_VALUE: mbedtls_aes_setkey_enc:RK <- [DW_OP_plus_uconst 32, DW_OP_stack_value] $r3
	.loc	2 650 23                        @ ../../../ThirdParty/mbedTLS/library/aes.c:650:23
	adds	r4, r4, #4
.Ltmp30:
	.loc	2 650 9 is_stmt 0               @ ../../../ThirdParty/mbedTLS/library/aes.c:650:9
	cmp	r4, #28
	bne	.LBB2_13
	b	.LBB2_19
.Ltmp31:
.LBB2_14:
	@DEBUG_VALUE: mbedtls_aes_setkey_enc:keybits <- $r2
	@DEBUG_VALUE: mbedtls_aes_setkey_enc:key <- $r1
	@DEBUG_VALUE: mbedtls_aes_setkey_enc:ctx <- $r0
	.loc	2 0 9                           @ ../../../ThirdParty/mbedTLS/library/aes.c:0:9
	movs	r0, #31
.Ltmp32:
	@DEBUG_VALUE: mbedtls_aes_setkey_enc:ctx <- [DW_OP_LLVM_entry_value 1] $r0
	mvns	r0, r0
	.loc	2 676 1 is_stmt 1               @ ../../../ThirdParty/mbedTLS/library/aes.c:676:1
	add	sp, #4
	pop	{r4, r5, r6, r7, pc}
.Ltmp33:
.LBB2_15:
	@DEBUG_VALUE: mbedtls_aes_setkey_enc:RK <- $r3
	@DEBUG_VALUE: mbedtls_aes_setkey_enc:keybits <- [DW_OP_LLVM_entry_value 1] $r2
	.loc	2 0 1 is_stmt 0                 @ ../../../ThirdParty/mbedTLS/library/aes.c:0:1
	movs	r4, #0
	ldr	r0, __arm_cp.2_0
	ldr	r2, __arm_cp.2_1
	str	r4, [sp]                        @ 4-byte Spill
.Ltmp34:
.LBB2_16:                               @ =>This Inner Loop Header: Depth=1
	@DEBUG_VALUE: mbedtls_aes_setkey_enc:keybits <- [DW_OP_LLVM_entry_value 1] $r2
	@DEBUG_VALUE: mbedtls_aes_setkey_enc:RK <- $r3
	@DEBUG_VALUE: mbedtls_aes_setkey_enc:i <- undef
	.loc	2 618 30 is_stmt 1              @ ../../../ThirdParty/mbedTLS/library/aes.c:618:30
	ldr	r5, [r0, r4]
	.loc	2 618 22 is_stmt 0              @ ../../../ThirdParty/mbedTLS/library/aes.c:618:22
	ldr	r6, [r3]
	.loc	2 618 28                        @ ../../../ThirdParty/mbedTLS/library/aes.c:618:28
	eors	r6, r5
	.loc	2 619 42 is_stmt 1              @ ../../../ThirdParty/mbedTLS/library/aes.c:619:42
	ldr	r5, [r3, #12]
	.loc	2 619 48 is_stmt 0              @ ../../../ThirdParty/mbedTLS/library/aes.c:619:48
	lsrs	r7, r5, #8
	.loc	2 619 56                        @ ../../../ThirdParty/mbedTLS/library/aes.c:619:56
	uxtb	r7, r7
	.loc	2 619 35                        @ ../../../ThirdParty/mbedTLS/library/aes.c:619:35
	ldrb	r7, [r2, r7]
	.loc	2 618 38 is_stmt 1              @ ../../../ThirdParty/mbedTLS/library/aes.c:618:38
	eors	r7, r6
	.loc	2 620 48                        @ ../../../ThirdParty/mbedTLS/library/aes.c:620:48
	lsrs	r6, r5, #16
	.loc	2 620 56 is_stmt 0              @ ../../../ThirdParty/mbedTLS/library/aes.c:620:56
	uxtb	r6, r6
	.loc	2 620 35                        @ ../../../ThirdParty/mbedTLS/library/aes.c:620:35
	ldrb	r6, [r2, r6]
	.loc	2 620 65                        @ ../../../ThirdParty/mbedTLS/library/aes.c:620:65
	lsls	r6, r6, #8
	.loc	2 619 73 is_stmt 1              @ ../../../ThirdParty/mbedTLS/library/aes.c:619:73
	eors	r6, r7
	.loc	2 621 48                        @ ../../../ThirdParty/mbedTLS/library/aes.c:621:48
	lsrs	r7, r5, #24
	.loc	2 621 35 is_stmt 0              @ ../../../ThirdParty/mbedTLS/library/aes.c:621:35
	ldrb	r7, [r2, r7]
	.loc	2 621 65                        @ ../../../ThirdParty/mbedTLS/library/aes.c:621:65
	lsls	r7, r7, #16
	.loc	2 620 73 is_stmt 1              @ ../../../ThirdParty/mbedTLS/library/aes.c:620:73
	eors	r7, r6
	.loc	2 622 56                        @ ../../../ThirdParty/mbedTLS/library/aes.c:622:56
	uxtb	r6, r5
	.loc	2 622 24 is_stmt 0              @ ../../../ThirdParty/mbedTLS/library/aes.c:622:24
	ldrb	r6, [r2, r6]
	.loc	2 622 65                        @ ../../../ThirdParty/mbedTLS/library/aes.c:622:65
	lsls	r6, r6, #24
	.loc	2 621 73 is_stmt 1              @ ../../../ThirdParty/mbedTLS/library/aes.c:621:73
	eors	r6, r7
	.loc	2 624 22                        @ ../../../ThirdParty/mbedTLS/library/aes.c:624:22
	ldr	r7, [r3, #4]
	.loc	2 624 28 is_stmt 0              @ ../../../ThirdParty/mbedTLS/library/aes.c:624:28
	eors	r7, r6
	.loc	2 625 22 is_stmt 1              @ ../../../ThirdParty/mbedTLS/library/aes.c:625:22
	ldr	r1, [r3, #8]
	.loc	2 625 28 is_stmt 0              @ ../../../ThirdParty/mbedTLS/library/aes.c:625:28
	eors	r1, r7
	.loc	2 626 28 is_stmt 1              @ ../../../ThirdParty/mbedTLS/library/aes.c:626:28
	eors	r5, r1
	.loc	2 618 20                        @ ../../../ThirdParty/mbedTLS/library/aes.c:618:20
	str	r6, [r3, #16]
	.loc	2 624 20                        @ ../../../ThirdParty/mbedTLS/library/aes.c:624:20
	str	r7, [r3, #20]
	.loc	2 625 20                        @ ../../../ThirdParty/mbedTLS/library/aes.c:625:20
	str	r1, [r3, #24]
	.loc	2 626 20                        @ ../../../ThirdParty/mbedTLS/library/aes.c:626:20
	str	r5, [r3, #28]
	.loc	2 618 20                        @ ../../../ThirdParty/mbedTLS/library/aes.c:618:20
	adds	r3, #16
.Ltmp35:
	@DEBUG_VALUE: mbedtls_aes_setkey_enc:i <- [DW_OP_plus_uconst 1, DW_OP_stack_value] undef
	@DEBUG_VALUE: mbedtls_aes_setkey_enc:RK <- [DW_OP_plus_uconst 16, DW_OP_stack_value] $r3
	.loc	2 616 23                        @ ../../../ThirdParty/mbedTLS/library/aes.c:616:23
	adds	r4, r4, #4
.Ltmp36:
	.loc	2 616 9 is_stmt 0               @ ../../../ThirdParty/mbedTLS/library/aes.c:616:9
	cmp	r4, #40
	bne	.LBB2_16
	b	.LBB2_19
.Ltmp37:
.LBB2_17:
	@DEBUG_VALUE: mbedtls_aes_setkey_enc:RK <- $r3
	@DEBUG_VALUE: mbedtls_aes_setkey_enc:keybits <- [DW_OP_LLVM_entry_value 1] $r2
	.loc	2 0 9                           @ ../../../ThirdParty/mbedTLS/library/aes.c:0:9
	movs	r4, #0
	str	r4, [sp]                        @ 4-byte Spill
.Ltmp38:
.LBB2_18:                               @ =>This Inner Loop Header: Depth=1
	@DEBUG_VALUE: mbedtls_aes_setkey_enc:keybits <- [DW_OP_LLVM_entry_value 1] $r2
	@DEBUG_VALUE: mbedtls_aes_setkey_enc:RK <- $r3
	@DEBUG_VALUE: mbedtls_aes_setkey_enc:i <- undef
	.loc	2 634 30 is_stmt 1              @ ../../../ThirdParty/mbedTLS/library/aes.c:634:30
	ldr	r0, __arm_cp.2_0
	ldr	r0, [r0, r4]
	.loc	2 634 22 is_stmt 0              @ ../../../ThirdParty/mbedTLS/library/aes.c:634:22
	ldr	r6, [r3]
	.loc	2 634 28                        @ ../../../ThirdParty/mbedTLS/library/aes.c:634:28
	eors	r6, r0
	.loc	2 635 42 is_stmt 1              @ ../../../ThirdParty/mbedTLS/library/aes.c:635:42
	ldr	r5, [r3, #20]
	.loc	2 635 48 is_stmt 0              @ ../../../ThirdParty/mbedTLS/library/aes.c:635:48
	lsrs	r0, r5, #8
	.loc	2 635 56                        @ ../../../ThirdParty/mbedTLS/library/aes.c:635:56
	uxtb	r0, r0
	ldr	r1, __arm_cp.2_1
	.loc	2 635 35                        @ ../../../ThirdParty/mbedTLS/library/aes.c:635:35
	ldrb	r0, [r1, r0]
	.loc	2 634 38 is_stmt 1              @ ../../../ThirdParty/mbedTLS/library/aes.c:634:38
	eors	r0, r6
	.loc	2 636 48                        @ ../../../ThirdParty/mbedTLS/library/aes.c:636:48
	lsrs	r6, r5, #16
	.loc	2 636 56 is_stmt 0              @ ../../../ThirdParty/mbedTLS/library/aes.c:636:56
	uxtb	r6, r6
	.loc	2 636 35                        @ ../../../ThirdParty/mbedTLS/library/aes.c:636:35
	ldrb	r6, [r1, r6]
	.loc	2 636 65                        @ ../../../ThirdParty/mbedTLS/library/aes.c:636:65
	lsls	r6, r6, #8
	.loc	2 635 73 is_stmt 1              @ ../../../ThirdParty/mbedTLS/library/aes.c:635:73
	eors	r6, r0
	.loc	2 637 48                        @ ../../../ThirdParty/mbedTLS/library/aes.c:637:48
	lsrs	r0, r5, #24
	.loc	2 637 35 is_stmt 0              @ ../../../ThirdParty/mbedTLS/library/aes.c:637:35
	ldrb	r0, [r1, r0]
	.loc	2 637 65                        @ ../../../ThirdParty/mbedTLS/library/aes.c:637:65
	lsls	r0, r0, #16
	.loc	2 636 73 is_stmt 1              @ ../../../ThirdParty/mbedTLS/library/aes.c:636:73
	eors	r0, r6
	.loc	2 638 56                        @ ../../../ThirdParty/mbedTLS/library/aes.c:638:56
	uxtb	r6, r5
	.loc	2 638 24 is_stmt 0              @ ../../../ThirdParty/mbedTLS/library/aes.c:638:24
	ldrb	r6, [r1, r6]
	.loc	2 638 65                        @ ../../../ThirdParty/mbedTLS/library/aes.c:638:65
	lsls	r6, r6, #24
	.loc	2 637 73 is_stmt 1              @ ../../../ThirdParty/mbedTLS/library/aes.c:637:73
	eors	r6, r0
	.loc	2 640 22                        @ ../../../ThirdParty/mbedTLS/library/aes.c:640:22
	ldr	r0, [r3, #4]
	.loc	2 640 28 is_stmt 0              @ ../../../ThirdParty/mbedTLS/library/aes.c:640:28
	eors	r0, r6
	.loc	2 641 22 is_stmt 1              @ ../../../ThirdParty/mbedTLS/library/aes.c:641:22
	ldr	r7, [r3, #8]
	.loc	2 641 28 is_stmt 0              @ ../../../ThirdParty/mbedTLS/library/aes.c:641:28
	eors	r7, r0
	.loc	2 642 22 is_stmt 1              @ ../../../ThirdParty/mbedTLS/library/aes.c:642:22
	ldr	r1, [r3, #12]
	.loc	2 642 28 is_stmt 0              @ ../../../ThirdParty/mbedTLS/library/aes.c:642:28
	eors	r1, r7
	.loc	2 643 22 is_stmt 1              @ ../../../ThirdParty/mbedTLS/library/aes.c:643:22
	ldr	r2, [r3, #16]
	.loc	2 643 28 is_stmt 0              @ ../../../ThirdParty/mbedTLS/library/aes.c:643:28
	eors	r2, r1
	.loc	2 644 28 is_stmt 1              @ ../../../ThirdParty/mbedTLS/library/aes.c:644:28
	eors	r5, r2
	.loc	2 634 20                        @ ../../../ThirdParty/mbedTLS/library/aes.c:634:20
	str	r6, [r3, #24]
	.loc	2 640 20                        @ ../../../ThirdParty/mbedTLS/library/aes.c:640:20
	str	r0, [r3, #28]
	.loc	2 641 20                        @ ../../../ThirdParty/mbedTLS/library/aes.c:641:20
	str	r7, [r3, #32]
	.loc	2 642 20                        @ ../../../ThirdParty/mbedTLS/library/aes.c:642:20
	mov	r0, r3
	adds	r0, #36
	stm	r0!, {r1, r2, r5}
	.loc	2 634 20                        @ ../../../ThirdParty/mbedTLS/library/aes.c:634:20
	adds	r3, #24
.Ltmp39:
	@DEBUG_VALUE: mbedtls_aes_setkey_enc:i <- [DW_OP_plus_uconst 1, DW_OP_stack_value] undef
	@DEBUG_VALUE: mbedtls_aes_setkey_enc:RK <- [DW_OP_plus_uconst 24, DW_OP_stack_value] $r3
	.loc	2 632 23                        @ ../../../ThirdParty/mbedTLS/library/aes.c:632:23
	adds	r4, r4, #4
.Ltmp40:
	.loc	2 632 9 is_stmt 0               @ ../../../ThirdParty/mbedTLS/library/aes.c:632:9
	cmp	r4, #32
	bne	.LBB2_18
.Ltmp41:
.LBB2_19:
	@DEBUG_VALUE: mbedtls_aes_setkey_enc:keybits <- [DW_OP_LLVM_entry_value 1] $r2
	.loc	2 0 9                           @ ../../../ThirdParty/mbedTLS/library/aes.c:0:9
	ldr	r0, [sp]                        @ 4-byte Reload
	.loc	2 676 1 is_stmt 1               @ ../../../ThirdParty/mbedTLS/library/aes.c:676:1
	add	sp, #4
	pop	{r4, r5, r6, r7, pc}
.Ltmp42:
.LBB2_20:
	@DEBUG_VALUE: mbedtls_aes_setkey_enc:RK <- $r3
	@DEBUG_VALUE: mbedtls_aes_setkey_enc:keybits <- [DW_OP_LLVM_entry_value 1] $r2
	.loc	2 0 1 is_stmt 0                 @ ../../../ThirdParty/mbedTLS/library/aes.c:0:1
	movs	r0, #0
	.loc	2 676 1                         @ ../../../ThirdParty/mbedTLS/library/aes.c:676:1
	add	sp, #4
	pop	{r4, r5, r6, r7, pc}
.Ltmp43:
	.p2align	2
@ %bb.21:
	.loc	2 0 1                           @ ../../../ThirdParty/mbedTLS/library/aes.c:0:1
__arm_cp.2_0:
	.long	RCON
.Lcpi_end0:
	.size	__arm_cp.2_0, .Lcpi_end0-__arm_cp.2_0
__arm_cp.2_1:
	.long	FSb
.Lcpi_end1:
	.size	__arm_cp.2_1, .Lcpi_end1-__arm_cp.2_1
.Lfunc_end2:
	.size	mbedtls_aes_setkey_enc, .Lfunc_end2-mbedtls_aes_setkey_enc
	.cfi_endproc
	.cantunwind
	.fnend
                                        @ -- End function
	.section	.text.mbedtls_aes_setkey_dec,"ax",%progbits
	.hidden	mbedtls_aes_setkey_dec          @ -- Begin function mbedtls_aes_setkey_dec
	.globl	mbedtls_aes_setkey_dec
	.p2align	2
	.type	mbedtls_aes_setkey_dec,%function
	.code	16                              @ @mbedtls_aes_setkey_dec
	.thumb_func
mbedtls_aes_setkey_dec:
.Lfunc_begin3:
	.loc	2 685 0 is_stmt 1               @ ../../../ThirdParty/mbedTLS/library/aes.c:685:0
	.fnstart
	.cfi_startproc
@ %bb.0:
	@DEBUG_VALUE: mbedtls_aes_setkey_dec:ctx <- $r0
	@DEBUG_VALUE: mbedtls_aes_setkey_dec:key <- $r1
	@DEBUG_VALUE: mbedtls_aes_setkey_dec:keybits <- $r2
	.save	{r4, r5, r6, r7, lr}
	push	{r4, r5, r6, r7, lr}
	.cfi_def_cfa_offset 20
	.cfi_offset lr, -4
	.cfi_offset r7, -8
	.cfi_offset r6, -12
	.cfi_offset r5, -16
	.cfi_offset r4, -20
	.pad	#308
	sub	sp, #308
	.cfi_def_cfa_offset 328
	mov	r5, r2
	mov	r6, r1
	mov	r4, r0
.Ltmp44:
	@DEBUG_VALUE: mbedtls_aes_setkey_dec:keybits <- $r5
	@DEBUG_VALUE: mbedtls_aes_setkey_dec:key <- $r6
	@DEBUG_VALUE: mbedtls_aes_setkey_dec:ctx <- $r4
	add	r7, sp, #28
.Ltmp45:
	.loc	2 694 5 prologue_end            @ ../../../ThirdParty/mbedTLS/library/aes.c:694:5
	mov	r0, r7
	bl	mbedtls_aes_init
	.loc	2 704 24                        @ ../../../ThirdParty/mbedTLS/library/aes.c:704:24
	mov	r0, r4
	adds	r0, #8
.Ltmp46:
	@DEBUG_VALUE: mbedtls_aes_setkey_dec:RK <- $r0
	.loc	2 704 17 is_stmt 0              @ ../../../ThirdParty/mbedTLS/library/aes.c:704:17
	str	r0, [r4, #4]
.Ltmp47:
	.loc	2 707 17 is_stmt 1              @ ../../../ThirdParty/mbedTLS/library/aes.c:707:17
	mov	r0, r7
.Ltmp48:
	mov	r1, r6
.Ltmp49:
	@DEBUG_VALUE: mbedtls_aes_setkey_dec:key <- $r1
	mov	r2, r5
.Ltmp50:
	@DEBUG_VALUE: mbedtls_aes_setkey_dec:keybits <- $r2
	bl	mbedtls_aes_setkey_enc
.Ltmp51:
	mov	r5, r0
.Ltmp52:
	@DEBUG_VALUE: mbedtls_aes_setkey_dec:ret <- $r5
	.loc	2 707 9 is_stmt 0               @ ../../../ThirdParty/mbedTLS/library/aes.c:707:9
	cmp	r0, #0
	bne	.LBB3_9
.Ltmp53:
@ %bb.1:
	@DEBUG_VALUE: mbedtls_aes_setkey_dec:ret <- $r5
	@DEBUG_VALUE: mbedtls_aes_setkey_dec:ctx <- $r4
	.loc	2 710 19 is_stmt 1              @ ../../../ThirdParty/mbedTLS/library/aes.c:710:19
	ldr	r6, [sp, #28]
	.loc	2 710 13 is_stmt 0              @ ../../../ThirdParty/mbedTLS/library/aes.c:710:13
	str	r6, [r4]
	.loc	2 721 17 is_stmt 1              @ ../../../ThirdParty/mbedTLS/library/aes.c:721:17
	lsls	r0, r6, #4
	.loc	2 721 14 is_stmt 0              @ ../../../ThirdParty/mbedTLS/library/aes.c:721:14
	ldr	r1, [sp, #32]
	.loc	2 723 13 is_stmt 1              @ ../../../ThirdParty/mbedTLS/library/aes.c:723:13
	ldr	r2, [r1, r0]
.Ltmp54:
	@DEBUG_VALUE: mbedtls_aes_setkey_dec:RK <- [DW_OP_plus_uconst 12, DW_OP_stack_value] $r4
	.loc	2 723 11 is_stmt 0              @ ../../../ThirdParty/mbedTLS/library/aes.c:723:11
	str	r2, [r4, #8]
	.loc	2 721 17 is_stmt 1              @ ../../../ThirdParty/mbedTLS/library/aes.c:721:17
	adds	r3, r1, r0
.Ltmp55:
	@DEBUG_VALUE: mbedtls_aes_setkey_dec:SK <- [DW_OP_plus_uconst 4, DW_OP_stack_value] $r3
	.loc	2 724 13                        @ ../../../ThirdParty/mbedTLS/library/aes.c:724:13
	ldr	r0, [r3, #4]
.Ltmp56:
	@DEBUG_VALUE: mbedtls_aes_setkey_dec:RK <- [DW_OP_plus_uconst 16, DW_OP_stack_value] $r4
	.loc	2 724 11 is_stmt 0              @ ../../../ThirdParty/mbedTLS/library/aes.c:724:11
	str	r0, [r4, #12]
	.loc	2 725 13 is_stmt 1              @ ../../../ThirdParty/mbedTLS/library/aes.c:725:13
	ldr	r0, [r3, #8]
.Ltmp57:
	@DEBUG_VALUE: mbedtls_aes_setkey_dec:RK <- [DW_OP_plus_uconst 20, DW_OP_stack_value] $r4
	.loc	2 725 11 is_stmt 0              @ ../../../ThirdParty/mbedTLS/library/aes.c:725:11
	str	r0, [r4, #16]
	.loc	2 726 13 is_stmt 1              @ ../../../ThirdParty/mbedTLS/library/aes.c:726:13
	ldr	r0, [r3, #12]
	.loc	2 726 11 is_stmt 0              @ ../../../ThirdParty/mbedTLS/library/aes.c:726:11
	str	r0, [r4, #20]
.Ltmp58:
	@DEBUG_VALUE: mbedtls_aes_setkey_dec:i <- [DW_OP_constu 1, DW_OP_minus, DW_OP_stack_value] $r6
	@DEBUG_VALUE: mbedtls_aes_setkey_dec:SK <- [DW_OP_constu 32, DW_OP_minus, DW_OP_stack_value] $r3
	.loc	2 0 0                           @ ../../../ThirdParty/mbedTLS/library/aes.c:0:0
	mov	r1, r3
	subs	r1, #16
.Ltmp59:
	@DEBUG_VALUE: mbedtls_aes_setkey_dec:SK <- undef
	.loc	2 726 8                         @ ../../../ThirdParty/mbedTLS/library/aes.c:726:8
	adds	r4, #24
.Ltmp60:
	@DEBUG_VALUE: mbedtls_aes_setkey_dec:RK <- $r4
	.loc	2 0 8                           @ ../../../ThirdParty/mbedTLS/library/aes.c:0:8
	movs	r0, #3
	mvns	r7, r0
.Ltmp61:
	.loc	2 728 5 is_stmt 1               @ ../../../ThirdParty/mbedTLS/library/aes.c:728:5
	cmp	r6, #2
	blt	.LBB3_7
.Ltmp62:
@ %bb.2:
	@DEBUG_VALUE: mbedtls_aes_setkey_dec:i <- [DW_OP_constu 1, DW_OP_minus, DW_OP_stack_value] $r6
	@DEBUG_VALUE: mbedtls_aes_setkey_dec:ret <- $r5
	@DEBUG_VALUE: mbedtls_aes_setkey_dec:RK <- $r4
	.loc	2 0 5 is_stmt 0                 @ ../../../ThirdParty/mbedTLS/library/aes.c:0:5
	str	r5, [sp, #4]                    @ 4-byte Spill
.Ltmp63:
	@DEBUG_VALUE: mbedtls_aes_setkey_dec:ret <- [DW_OP_plus_uconst 4] [$sp+0]
	mov	r0, r7
	subs	r0, #12
	str	r0, [sp, #12]                   @ 4-byte Spill
	ldr	r3, __arm_cp.3_0
	ldr	r5, __arm_cp.3_1
	mov	r0, r1
	mov	r1, r4
	str	r7, [sp, #16]                   @ 4-byte Spill
.Ltmp64:
.LBB3_3:                                @ =>This Loop Header: Depth=1
                                        @     Child Loop BB3_4 Depth 2
	@DEBUG_VALUE: mbedtls_aes_setkey_dec:ret <- [DW_OP_plus_uconst 4] [$sp+0]
	@DEBUG_VALUE: mbedtls_aes_setkey_dec:i <- [DW_OP_constu 1, DW_OP_minus, DW_OP_stack_value] $r6
	str	r1, [sp, #24]                   @ 4-byte Spill
	str	r6, [sp, #20]                   @ 4-byte Spill
.Ltmp65:
	@DEBUG_VALUE: mbedtls_aes_setkey_dec:i <- [DW_OP_plus_uconst 20, DW_OP_constu 1, DW_OP_minus, DW_OP_stack_value] [$sp+0]
	@DEBUG_VALUE: mbedtls_aes_setkey_dec:i <- [DW_OP_plus_uconst 20, DW_OP_constu 1, DW_OP_minus, DW_OP_stack_value] [$sp+0]
	@DEBUG_VALUE: mbedtls_aes_setkey_dec:j <- 0
	@DEBUG_VALUE: mbedtls_aes_setkey_dec:SK <- $r0
	@DEBUG_VALUE: mbedtls_aes_setkey_dec:RK <- $r1
	ldr	r2, [sp, #12]                   @ 4-byte Reload
.Ltmp66:
	@DEBUG_VALUE: mbedtls_aes_setkey_dec:RK <- [DW_OP_plus_uconst 24] [$sp+0]
.LBB3_4:                                @   Parent Loop BB3_3 Depth=1
                                        @ =>  This Inner Loop Header: Depth=2
	@DEBUG_VALUE: mbedtls_aes_setkey_dec:i <- [DW_OP_plus_uconst 20, DW_OP_constu 1, DW_OP_minus, DW_OP_stack_value] [$sp+0]
	@DEBUG_VALUE: mbedtls_aes_setkey_dec:ret <- [DW_OP_plus_uconst 4] [$sp+0]
	@DEBUG_VALUE: mbedtls_aes_setkey_dec:RK <- undef
	@DEBUG_VALUE: mbedtls_aes_setkey_dec:SK <- undef
	@DEBUG_VALUE: mbedtls_aes_setkey_dec:j <- undef
	.loc	2 732 21 is_stmt 1              @ ../../../ThirdParty/mbedTLS/library/aes.c:732:21
	adds	r6, r0, r2
	ldr	r6, [r6, #16]
	uxtb	r7, r6
	ldrb	r7, [r3, r7]
	lsls	r7, r7, #2
	ldr	r7, [r5, r7]
	mov	r4, r0
	mov	r0, r5
	.loc	2 733 21                        @ ../../../ThirdParty/mbedTLS/library/aes.c:733:21
	lsrs	r5, r6, #8
	uxtb	r5, r5
	ldrb	r5, [r3, r5]
	lsls	r5, r5, #2
	ldr	r1, __arm_cp.3_2
	ldr	r5, [r1, r5]
	.loc	2 732 60                        @ ../../../ThirdParty/mbedTLS/library/aes.c:732:60
	eors	r5, r7
	.loc	2 734 21                        @ ../../../ThirdParty/mbedTLS/library/aes.c:734:21
	lsrs	r7, r6, #16
	uxtb	r7, r7
	ldrb	r7, [r3, r7]
	lsls	r7, r7, #2
	ldr	r1, __arm_cp.3_3
	ldr	r7, [r1, r7]
	.loc	2 733 60                        @ ../../../ThirdParty/mbedTLS/library/aes.c:733:60
	eors	r7, r5
	.loc	2 735 21                        @ ../../../ThirdParty/mbedTLS/library/aes.c:735:21
	lsrs	r5, r6, #24
	ldrb	r5, [r3, r5]
	lsls	r5, r5, #2
	ldr	r1, __arm_cp.3_4
	ldr	r5, [r1, r5]
	.loc	2 734 60                        @ ../../../ThirdParty/mbedTLS/library/aes.c:734:60
	eors	r5, r7
	.loc	2 732 21                        @ ../../../ThirdParty/mbedTLS/library/aes.c:732:21
	ldr	r1, [sp, #24]                   @ 4-byte Reload
	adds	r6, r1, r2
.Ltmp67:
	@DEBUG_VALUE: mbedtls_aes_setkey_dec:RK <- [DW_OP_plus_uconst 4, DW_OP_stack_value] undef
	.loc	2 732 19 is_stmt 0              @ ../../../ThirdParty/mbedTLS/library/aes.c:732:19
	str	r5, [r6, #16]
.Ltmp68:
	@DEBUG_VALUE: mbedtls_aes_setkey_dec:j <- [DW_OP_plus_uconst 1, DW_OP_stack_value] undef
	@DEBUG_VALUE: mbedtls_aes_setkey_dec:SK <- [DW_OP_plus_uconst 4, DW_OP_stack_value] undef
	.loc	2 0 19                          @ ../../../ThirdParty/mbedTLS/library/aes.c:0:19
	mov	r5, r0
	mov	r0, r4
.Ltmp69:
	.loc	2 730 23 is_stmt 1              @ ../../../ThirdParty/mbedTLS/library/aes.c:730:23
	adds	r2, r2, #4
.Ltmp70:
	.loc	2 730 9 is_stmt 0               @ ../../../ThirdParty/mbedTLS/library/aes.c:730:9
	bne	.LBB3_4
.Ltmp71:
@ %bb.5:                                @   in Loop: Header=BB3_3 Depth=1
	@DEBUG_VALUE: mbedtls_aes_setkey_dec:i <- [DW_OP_plus_uconst 20, DW_OP_constu 1, DW_OP_minus, DW_OP_stack_value] [$sp+0]
	@DEBUG_VALUE: mbedtls_aes_setkey_dec:ret <- [DW_OP_plus_uconst 4] [$sp+0]
	@DEBUG_VALUE: mbedtls_aes_setkey_dec:RK <- [DW_OP_plus_uconst 4, DW_OP_stack_value] undef
	@DEBUG_VALUE: mbedtls_aes_setkey_dec:SK <- [DW_OP_constu 28, DW_OP_minus, DW_OP_stack_value] undef
	.loc	2 728 38 is_stmt 1              @ ../../../ThirdParty/mbedTLS/library/aes.c:728:38
	adds	r0, r0, r2
	ldr	r7, [sp, #16]                   @ 4-byte Reload
	lsls	r4, r7, #2
	str	r0, [sp, #8]                    @ 4-byte Spill
	adds	r0, r0, r4
.Ltmp72:
	.loc	2 728 5 is_stmt 0               @ ../../../ThirdParty/mbedTLS/library/aes.c:728:5
	ldr	r1, [sp, #24]                   @ 4-byte Reload
	adds	r1, r1, r2
	str	r1, [sp, #24]                   @ 4-byte Spill
	adds	r1, #16
	ldr	r2, [sp, #20]                   @ 4-byte Reload
.Ltmp73:
	@DEBUG_VALUE: mbedtls_aes_setkey_dec:i <- [DW_OP_constu 1, DW_OP_minus, DW_OP_stack_value] $r2
	.loc	2 0 0                           @ ../../../ThirdParty/mbedTLS/library/aes.c:0:0
	subs	r6, r2, #1
.Ltmp74:
	@DEBUG_VALUE: mbedtls_aes_setkey_dec:i <- [DW_OP_constu 1, DW_OP_minus, DW_OP_stack_value] $r6
	.loc	2 728 5                         @ ../../../ThirdParty/mbedTLS/library/aes.c:728:5
	cmp	r2, #3
	bge	.LBB3_3
.Ltmp75:
@ %bb.6:
	@DEBUG_VALUE: mbedtls_aes_setkey_dec:ret <- [DW_OP_plus_uconst 4] [$sp+0]
	@DEBUG_VALUE: mbedtls_aes_setkey_dec:i <- [DW_OP_constu 1, DW_OP_minus, DW_OP_stack_value] $r6
	.loc	2 0 5                           @ ../../../ThirdParty/mbedTLS/library/aes.c:0:5
	ldr	r3, [sp, #8]                    @ 4-byte Reload
	.loc	2 739 16 is_stmt 1              @ ../../../ThirdParty/mbedTLS/library/aes.c:739:16
	adds	r1, r3, r4
	ldr	r4, [sp, #24]                   @ 4-byte Reload
	adds	r4, #16
	adds	r3, #16
	ldr	r5, [sp, #4]                    @ 4-byte Reload
.Ltmp76:
	@DEBUG_VALUE: mbedtls_aes_setkey_dec:ret <- $r5
	.loc	2 0 16 is_stmt 0                @ ../../../ThirdParty/mbedTLS/library/aes.c:0:16
	b	.LBB3_8
.Ltmp77:
.LBB3_7:
	@DEBUG_VALUE: mbedtls_aes_setkey_dec:i <- [DW_OP_constu 1, DW_OP_minus, DW_OP_stack_value] $r6
	@DEBUG_VALUE: mbedtls_aes_setkey_dec:ret <- $r5
	@DEBUG_VALUE: mbedtls_aes_setkey_dec:RK <- $r4
	adds	r3, #16
.Ltmp78:
	@DEBUG_VALUE: mbedtls_aes_setkey_dec:SK <- $r3
.LBB3_8:
	@DEBUG_VALUE: mbedtls_aes_setkey_dec:i <- [DW_OP_constu 1, DW_OP_minus, DW_OP_stack_value] $r6
	@DEBUG_VALUE: mbedtls_aes_setkey_dec:ret <- $r5
	@DEBUG_VALUE: mbedtls_aes_setkey_dec:RK <- $r4
	.loc	2 739 13                        @ ../../../ThirdParty/mbedTLS/library/aes.c:739:13
	ldr	r0, [r1]
.Ltmp79:
	@DEBUG_VALUE: mbedtls_aes_setkey_dec:RK <- [DW_OP_plus_uconst 4, DW_OP_stack_value] $r4
	.loc	2 739 11                        @ ../../../ThirdParty/mbedTLS/library/aes.c:739:11
	str	r0, [r4]
	.loc	2 739 16                        @ ../../../ThirdParty/mbedTLS/library/aes.c:739:16
	lsls	r0, r7, #2
	adds	r0, r0, r3
	mov	r1, r0
	subs	r1, #12
.Ltmp80:
	@DEBUG_VALUE: mbedtls_aes_setkey_dec:SK <- $r1
	.loc	2 740 13 is_stmt 1              @ ../../../ThirdParty/mbedTLS/library/aes.c:740:13
	ldr	r1, [r1]
.Ltmp81:
	@DEBUG_VALUE: mbedtls_aes_setkey_dec:RK <- [DW_OP_plus_uconst 8, DW_OP_stack_value] $r4
	.loc	2 740 11 is_stmt 0              @ ../../../ThirdParty/mbedTLS/library/aes.c:740:11
	str	r1, [r4, #4]
	.loc	2 741 16 is_stmt 1              @ ../../../ThirdParty/mbedTLS/library/aes.c:741:16
	subs	r1, r0, #4
	.loc	2 740 16                        @ ../../../ThirdParty/mbedTLS/library/aes.c:740:16
	subs	r0, #8
.Ltmp82:
	@DEBUG_VALUE: mbedtls_aes_setkey_dec:SK <- $r0
	.loc	2 741 13                        @ ../../../ThirdParty/mbedTLS/library/aes.c:741:13
	ldr	r0, [r0]
.Ltmp83:
	@DEBUG_VALUE: mbedtls_aes_setkey_dec:RK <- [DW_OP_plus_uconst 12, DW_OP_stack_value] $r4
	.loc	2 741 11 is_stmt 0              @ ../../../ThirdParty/mbedTLS/library/aes.c:741:11
	str	r0, [r4, #8]
.Ltmp84:
	@DEBUG_VALUE: mbedtls_aes_setkey_dec:SK <- [DW_OP_plus_uconst 4, DW_OP_stack_value] $r1
	.loc	2 742 13 is_stmt 1              @ ../../../ThirdParty/mbedTLS/library/aes.c:742:13
	ldr	r0, [r1]
.Ltmp85:
	@DEBUG_VALUE: mbedtls_aes_setkey_dec:RK <- [DW_OP_plus_uconst 12, DW_OP_plus_uconst 4, DW_OP_stack_value] $r4
	.loc	2 742 11 is_stmt 0              @ ../../../ThirdParty/mbedTLS/library/aes.c:742:11
	str	r0, [r4, #12]
.Ltmp86:
.LBB3_9:
	@DEBUG_VALUE: mbedtls_aes_setkey_dec:ret <- $r5
	@DEBUG_LABEL: mbedtls_aes_setkey_dec:exit
	.loc	2 0 11                          @ ../../../ThirdParty/mbedTLS/library/aes.c:0:11
	add	r0, sp, #28
	.loc	2 745 5 is_stmt 1               @ ../../../ThirdParty/mbedTLS/library/aes.c:745:5
	bl	mbedtls_aes_free
	.loc	2 747 5                         @ ../../../ThirdParty/mbedTLS/library/aes.c:747:5
	mov	r0, r5
	add	sp, #308
	pop	{r4, r5, r6, r7, pc}
.Ltmp87:
	.p2align	2
@ %bb.10:
	.loc	2 0 5 is_stmt 0                 @ ../../../ThirdParty/mbedTLS/library/aes.c:0:5
__arm_cp.3_0:
	.long	FSb
.Lcpi_end2:
	.size	__arm_cp.3_0, .Lcpi_end2-__arm_cp.3_0
__arm_cp.3_1:
	.long	RT0
.Lcpi_end3:
	.size	__arm_cp.3_1, .Lcpi_end3-__arm_cp.3_1
__arm_cp.3_2:
	.long	RT1
.Lcpi_end4:
	.size	__arm_cp.3_2, .Lcpi_end4-__arm_cp.3_2
__arm_cp.3_3:
	.long	RT2
.Lcpi_end5:
	.size	__arm_cp.3_3, .Lcpi_end5-__arm_cp.3_3
__arm_cp.3_4:
	.long	RT3
.Lcpi_end6:
	.size	__arm_cp.3_4, .Lcpi_end6-__arm_cp.3_4
.Lfunc_end3:
	.size	mbedtls_aes_setkey_dec, .Lfunc_end3-mbedtls_aes_setkey_dec
	.cfi_endproc
	.cantunwind
	.fnend
                                        @ -- End function
	.section	.text.mbedtls_internal_aes_encrypt,"ax",%progbits
	.hidden	mbedtls_internal_aes_encrypt    @ -- Begin function mbedtls_internal_aes_encrypt
	.globl	mbedtls_internal_aes_encrypt
	.p2align	2
	.type	mbedtls_internal_aes_encrypt,%function
	.code	16                              @ @mbedtls_internal_aes_encrypt
	.thumb_func
mbedtls_internal_aes_encrypt:
.Lfunc_begin4:
	.loc	2 885 0 is_stmt 1               @ ../../../ThirdParty/mbedTLS/library/aes.c:885:0
	.fnstart
	.cfi_startproc
@ %bb.0:
	@DEBUG_VALUE: mbedtls_internal_aes_encrypt:ctx <- $r0
	@DEBUG_VALUE: mbedtls_internal_aes_encrypt:input <- $r1
	@DEBUG_VALUE: mbedtls_internal_aes_encrypt:output <- $r2
	.save	{r4, r5, r6, r7, lr}
	push	{r4, r5, r6, r7, lr}
	.cfi_def_cfa_offset 20
	.cfi_offset lr, -4
	.cfi_offset r7, -8
	.cfi_offset r6, -12
	.cfi_offset r5, -16
	.cfi_offset r4, -20
	.pad	#44
	sub	sp, #44
	.cfi_def_cfa_offset 64
	mov	r6, r2
.Ltmp88:
	@DEBUG_VALUE: mbedtls_internal_aes_encrypt:output <- $r6
	@DEBUG_VALUE: mbedtls_internal_aes_encrypt:input <- $r1
	@DEBUG_VALUE: mbedtls_internal_aes_encrypt:ctx <- $r0
	.loc	2 897 5 prologue_end            @ ../../../ThirdParty/mbedTLS/library/aes.c:897:5
	ldrb	r2, [r1, #12]
	ldrb	r3, [r1, #13]
	lsls	r3, r3, #8
	adds	r2, r3, r2
	ldrb	r3, [r1, #14]
	lsls	r3, r3, #16
	adds	r2, r2, r3
	ldrb	r3, [r1, #15]
	lsls	r3, r3, #24
	adds	r2, r2, r3
.Ltmp89:
	@DEBUG_VALUE: mbedtls_internal_aes_encrypt:X3 <- $r2
	.loc	2 889 15                        @ ../../../ThirdParty/mbedTLS/library/aes.c:889:15
	ldr	r7, [r0, #4]
.Ltmp90:
	@DEBUG_VALUE: mbedtls_internal_aes_encrypt:RK <- $r7
	.loc	2 898 11                        @ ../../../ThirdParty/mbedTLS/library/aes.c:898:11
	ldr	r3, [r7, #12]
	.loc	2 898 8 is_stmt 0               @ ../../../ThirdParty/mbedTLS/library/aes.c:898:8
	eors	r3, r2
.Ltmp91:
	@DEBUG_VALUE: mbedtls_internal_aes_encrypt:X3 <- $r3
	.loc	2 0 8                           @ ../../../ThirdParty/mbedTLS/library/aes.c:0:8
	str	r3, [sp, #40]                   @ 4-byte Spill
.Ltmp92:
	@DEBUG_VALUE: mbedtls_internal_aes_encrypt:X3 <- [DW_OP_plus_uconst 40] [$sp+0]
	@DEBUG_VALUE: mbedtls_internal_aes_encrypt:X3 <- [DW_OP_plus_uconst 40] [$sp+0]
	.loc	2 895 5 is_stmt 1               @ ../../../ThirdParty/mbedTLS/library/aes.c:895:5
	ldrb	r2, [r1, #8]
	ldrb	r3, [r1, #9]
	lsls	r3, r3, #8
	adds	r2, r3, r2
	ldrb	r3, [r1, #10]
	lsls	r3, r3, #16
	adds	r2, r2, r3
	ldrb	r3, [r1, #11]
	lsls	r3, r3, #24
	adds	r2, r2, r3
.Ltmp93:
	@DEBUG_VALUE: mbedtls_internal_aes_encrypt:X2 <- $r2
	@DEBUG_VALUE: mbedtls_internal_aes_encrypt:RK <- [DW_OP_plus_uconst 12, DW_OP_stack_value] $r7
	.loc	2 896 11                        @ ../../../ThirdParty/mbedTLS/library/aes.c:896:11
	ldr	r3, [r7, #8]
	.loc	2 896 8 is_stmt 0               @ ../../../ThirdParty/mbedTLS/library/aes.c:896:8
	eors	r3, r2
.Ltmp94:
	@DEBUG_VALUE: mbedtls_internal_aes_encrypt:X2 <- $r3
	.loc	2 0 8                           @ ../../../ThirdParty/mbedTLS/library/aes.c:0:8
	str	r3, [sp, #36]                   @ 4-byte Spill
.Ltmp95:
	@DEBUG_VALUE: mbedtls_internal_aes_encrypt:X2 <- [DW_OP_plus_uconst 36] [$sp+0]
	@DEBUG_VALUE: mbedtls_internal_aes_encrypt:X2 <- [DW_OP_plus_uconst 36] [$sp+0]
	.loc	2 893 5 is_stmt 1               @ ../../../ThirdParty/mbedTLS/library/aes.c:893:5
	ldrb	r2, [r1, #4]
	ldrb	r3, [r1, #5]
	lsls	r3, r3, #8
	adds	r2, r3, r2
	ldrb	r3, [r1, #6]
	lsls	r3, r3, #16
	adds	r2, r2, r3
	ldrb	r3, [r1, #7]
	lsls	r3, r3, #24
	adds	r2, r2, r3
.Ltmp96:
	@DEBUG_VALUE: mbedtls_internal_aes_encrypt:X1 <- $r2
	@DEBUG_VALUE: mbedtls_internal_aes_encrypt:RK <- [DW_OP_plus_uconst 8, DW_OP_stack_value] $r7
	.loc	2 894 11                        @ ../../../ThirdParty/mbedTLS/library/aes.c:894:11
	ldr	r4, [r7, #4]
	.loc	2 894 8 is_stmt 0               @ ../../../ThirdParty/mbedTLS/library/aes.c:894:8
	eors	r4, r2
.Ltmp97:
	@DEBUG_VALUE: mbedtls_internal_aes_encrypt:X1 <- $r4
	@DEBUG_VALUE: mbedtls_internal_aes_encrypt:X1 <- $r4
	.loc	2 891 5 is_stmt 1               @ ../../../ThirdParty/mbedTLS/library/aes.c:891:5
	ldrb	r2, [r1]
	ldrb	r3, [r1, #1]
	lsls	r3, r3, #8
	adds	r2, r3, r2
	ldrb	r3, [r1, #2]
	lsls	r3, r3, #16
	adds	r2, r2, r3
	ldrb	r1, [r1, #3]
.Ltmp98:
	@DEBUG_VALUE: mbedtls_internal_aes_encrypt:input <- [DW_OP_LLVM_entry_value 1] $r1
	lsls	r1, r1, #24
	adds	r2, r2, r1
.Ltmp99:
	@DEBUG_VALUE: mbedtls_internal_aes_encrypt:X0 <- $r2
	@DEBUG_VALUE: mbedtls_internal_aes_encrypt:RK <- [DW_OP_plus_uconst 4, DW_OP_stack_value] $r7
	.loc	2 892 11                        @ ../../../ThirdParty/mbedTLS/library/aes.c:892:11
	ldr	r1, [r7]
	.loc	2 892 8 is_stmt 0               @ ../../../ThirdParty/mbedTLS/library/aes.c:892:8
	eors	r1, r2
.Ltmp100:
	@DEBUG_VALUE: mbedtls_internal_aes_encrypt:X0 <- $r1
	.loc	2 900 21 is_stmt 1              @ ../../../ThirdParty/mbedTLS/library/aes.c:900:21
	ldr	r0, [r0]
.Ltmp101:
	@DEBUG_VALUE: mbedtls_internal_aes_encrypt:ctx <- [DW_OP_LLVM_entry_value 1] $r0
	@DEBUG_VALUE: mbedtls_internal_aes_encrypt:i <- [DW_OP_constu 1, DW_OP_shra, DW_OP_constu 1, DW_OP_minus, DW_OP_stack_value] $r0
	.loc	2 898 14                        @ ../../../ThirdParty/mbedTLS/library/aes.c:898:14
	adds	r7, #16
.Ltmp102:
	@DEBUG_VALUE: mbedtls_internal_aes_encrypt:RK <- $r7
	.loc	2 900 5                         @ ../../../ThirdParty/mbedTLS/library/aes.c:900:5
	cmp	r0, #4
	bge	.LBB4_1
	b	.LBB4_4
.Ltmp103:
.LBB4_1:
	@DEBUG_VALUE: mbedtls_internal_aes_encrypt:RK <- $r7
	@DEBUG_VALUE: mbedtls_internal_aes_encrypt:output <- $r6
	@DEBUG_VALUE: mbedtls_internal_aes_encrypt:X1 <- $r4
	@DEBUG_VALUE: mbedtls_internal_aes_encrypt:X0 <- $r1
	@DEBUG_VALUE: mbedtls_internal_aes_encrypt:i <- [DW_OP_constu 1, DW_OP_shra, DW_OP_constu 1, DW_OP_minus, DW_OP_stack_value] $r0
	@DEBUG_VALUE: mbedtls_internal_aes_encrypt:X2 <- [DW_OP_plus_uconst 36] [$sp+0]
	@DEBUG_VALUE: mbedtls_internal_aes_encrypt:X3 <- [DW_OP_plus_uconst 40] [$sp+0]
	@DEBUG_VALUE: mbedtls_internal_aes_encrypt:ctx <- [DW_OP_LLVM_entry_value 1] $r0
	@DEBUG_VALUE: mbedtls_internal_aes_encrypt:input <- [DW_OP_LLVM_entry_value 1] $r1
	.loc	2 0 5 is_stmt 0                 @ ../../../ThirdParty/mbedTLS/library/aes.c:0:5
	str	r6, [sp, #12]                   @ 4-byte Spill
.Ltmp104:
	@DEBUG_VALUE: mbedtls_internal_aes_encrypt:output <- [DW_OP_plus_uconst 12] [$sp+0]
	.loc	2 900 24                        @ ../../../ThirdParty/mbedTLS/library/aes.c:900:24
	asrs	r0, r0, #1
.Ltmp105:
	@DEBUG_VALUE: mbedtls_internal_aes_encrypt:i <- [DW_OP_constu 1, DW_OP_minus, DW_OP_stack_value] $r0
	.loc	2 900 5                         @ ../../../ThirdParty/mbedTLS/library/aes.c:900:5
	adds	r0, r0, #1
.Ltmp106:
	.loc	2 0 5                           @ ../../../ThirdParty/mbedTLS/library/aes.c:0:5
	ldr	r6, [sp, #40]                   @ 4-byte Reload
	mov	r5, r4
.Ltmp107:
	@DEBUG_VALUE: mbedtls_internal_aes_encrypt:X1 <- $r5
.LBB4_2:                                @ =>This Inner Loop Header: Depth=1
	@DEBUG_VALUE: mbedtls_internal_aes_encrypt:output <- [DW_OP_plus_uconst 12] [$sp+0]
	@DEBUG_VALUE: mbedtls_internal_aes_encrypt:RK <- $r7
	@DEBUG_VALUE: mbedtls_internal_aes_encrypt:X1 <- $r5
	@DEBUG_VALUE: mbedtls_internal_aes_encrypt:X0 <- $r1
	@DEBUG_VALUE: mbedtls_internal_aes_encrypt:X2 <- [DW_OP_plus_uconst 36] [$sp+0]
	@DEBUG_VALUE: mbedtls_internal_aes_encrypt:ctx <- [DW_OP_LLVM_entry_value 1] $r0
	@DEBUG_VALUE: mbedtls_internal_aes_encrypt:input <- [DW_OP_LLVM_entry_value 1] $r1
	@DEBUG_VALUE: mbedtls_internal_aes_encrypt:X3 <- $r6
	@DEBUG_VALUE: mbedtls_internal_aes_encrypt:RK <- [DW_OP_plus_uconst 4, DW_OP_stack_value] $r7
	@DEBUG_VALUE: mbedtls_internal_aes_encrypt:X2 <- [DW_OP_plus_uconst 36] [$sp+0]
	@DEBUG_VALUE: mbedtls_internal_aes_encrypt:X1 <- $r5
	@DEBUG_VALUE: mbedtls_internal_aes_encrypt:X0 <- $r1
	@DEBUG_VALUE: mbedtls_internal_aes_encrypt:i <- [DW_OP_constu 1, DW_OP_minus, DW_OP_stack_value] undef
	str	r1, [sp, #16]                   @ 4-byte Spill
	str	r7, [sp, #40]                   @ 4-byte Spill
	str	r0, [sp, #20]                   @ 4-byte Spill
	@DEBUG_VALUE: mbedtls_internal_aes_encrypt:X1 <- $r5
.Ltmp108:
	.loc	2 902 9 is_stmt 1               @ ../../../ThirdParty/mbedTLS/library/aes.c:902:9
	str	r5, [sp, #32]                   @ 4-byte Spill
.Ltmp109:
	@DEBUG_VALUE: mbedtls_internal_aes_encrypt:X1 <- [DW_OP_plus_uconst 32] [$sp+0]
	@DEBUG_VALUE: mbedtls_internal_aes_encrypt:X1 <- [DW_OP_plus_uconst 32] [$sp+0]
	lsrs	r0, r5, #6
	@DEBUG_VALUE: mbedtls_internal_aes_encrypt:X1 <- [DW_OP_plus_uconst 32] [$sp+0]
	movw	r4, #1020
	ands	r0, r4
	ldr	r2, __arm_cp.4_0
	ldr	r0, [r2, r0]
	uxtb	r2, r1
	lsls	r2, r2, #2
	ldr	r3, __arm_cp.4_1
	ldr	r2, [r3, r2]
	ldr	r3, [r7]
	eors	r3, r2
	eors	r3, r0
	ldr	r5, [sp, #36]                   @ 4-byte Reload
.Ltmp110:
	@DEBUG_VALUE: mbedtls_internal_aes_encrypt:X2 <- $r5
	lsrs	r0, r5, #14
	ands	r0, r4
	ldr	r2, __arm_cp.4_2
	ldr	r0, [r2, r0]
	eors	r0, r3
	lsrs	r2, r6, #24
	lsls	r2, r2, #2
	ldr	r3, __arm_cp.4_3
	ldr	r2, [r3, r2]
	eors	r2, r0
.Ltmp111:
	@DEBUG_VALUE: mbedtls_internal_aes_encrypt:Y0 <- $r2
	.loc	2 903 9                         @ ../../../ThirdParty/mbedTLS/library/aes.c:903:9
	str	r2, [sp, #28]                   @ 4-byte Spill
.Ltmp112:
	@DEBUG_VALUE: mbedtls_internal_aes_encrypt:Y0 <- [DW_OP_plus_uconst 28] [$sp+0]
	@DEBUG_VALUE: mbedtls_internal_aes_encrypt:Y0 <- [DW_OP_plus_uconst 28] [$sp+0]
	lsrs	r0, r2, #6
.Ltmp113:
	@DEBUG_VALUE: mbedtls_internal_aes_encrypt:Y0 <- undef
	.loc	2 0 9 is_stmt 0                 @ ../../../ThirdParty/mbedTLS/library/aes.c:0:9
	movw	r3, #1020
	.loc	2 903 9                         @ ../../../ThirdParty/mbedTLS/library/aes.c:903:9
	ands	r0, r3
	ldr	r2, __arm_cp.4_0
.Ltmp114:
	@DEBUG_VALUE: mbedtls_internal_aes_encrypt:RK <- [DW_OP_plus_uconst 40, DW_OP_deref_size 4, DW_OP_plus_uconst 4, DW_OP_stack_value] $sp
	ldr	r7, [r2, r0]
.Ltmp115:
	.loc	2 902 9 is_stmt 1               @ ../../../ThirdParty/mbedTLS/library/aes.c:902:9
	lsrs	r0, r1, #6
	ands	r0, r3
	ldr	r0, [r2, r0]
	uxtb	r3, r6
	lsls	r3, r3, #2
	ldr	r2, __arm_cp.4_1
	ldr	r3, [r2, r3]
.Ltmp116:
	@DEBUG_VALUE: mbedtls_internal_aes_encrypt:RK <- [DW_OP_plus_uconst 40, DW_OP_deref_size 4, DW_OP_plus_uconst 16, DW_OP_stack_value] $sp
	ldr	r2, [sp, #40]                   @ 4-byte Reload
.Ltmp117:
	@DEBUG_VALUE: mbedtls_internal_aes_encrypt:RK <- [DW_OP_plus_uconst 16, DW_OP_stack_value] $r2
	ldr	r4, [r2, #12]
.Ltmp118:
	@DEBUG_VALUE: mbedtls_internal_aes_encrypt:RK <- [DW_OP_plus_uconst 40, DW_OP_deref_size 4, DW_OP_plus_uconst 16, DW_OP_stack_value] $sp
	eors	r4, r3
	eors	r4, r0
.Ltmp119:
	@DEBUG_VALUE: mbedtls_internal_aes_encrypt:X0 <- [DW_OP_plus_uconst 16] [$sp+0]
	.loc	2 0 9 is_stmt 0                 @ ../../../ThirdParty/mbedTLS/library/aes.c:0:9
	ldr	r1, [sp, #32]                   @ 4-byte Reload
.Ltmp120:
	@DEBUG_VALUE: mbedtls_internal_aes_encrypt:X1 <- $r1
	.loc	2 902 9                         @ ../../../ThirdParty/mbedTLS/library/aes.c:902:9
	lsrs	r0, r1, #14
	movw	r2, #1020
	ands	r0, r2
	ldr	r2, __arm_cp.4_2
	ldr	r3, [r2, r0]
	eors	r3, r4
	lsrs	r0, r5, #24
	lsls	r0, r0, #2
	ldr	r2, __arm_cp.4_3
	ldr	r0, [r2, r0]
	eors	r0, r3
.Ltmp121:
	@DEBUG_VALUE: mbedtls_internal_aes_encrypt:Y3 <- $r0
	.loc	2 903 9 is_stmt 1               @ ../../../ThirdParty/mbedTLS/library/aes.c:903:9
	str	r0, [sp, #24]                   @ 4-byte Spill
.Ltmp122:
	@DEBUG_VALUE: mbedtls_internal_aes_encrypt:Y3 <- [DW_OP_plus_uconst 24] [$sp+0]
	@DEBUG_VALUE: mbedtls_internal_aes_encrypt:Y3 <- [DW_OP_plus_uconst 24] [$sp+0]
	uxtb	r3, r0
	@DEBUG_VALUE: mbedtls_internal_aes_encrypt:Y3 <- [DW_OP_plus_uconst 24] [$sp+0]
	lsls	r3, r3, #2
	ldr	r0, __arm_cp.4_1
	ldr	r4, [r0, r3]
	ldr	r2, [sp, #40]                   @ 4-byte Reload
.Ltmp123:
	@DEBUG_VALUE: mbedtls_internal_aes_encrypt:RK <- [DW_OP_plus_uconst 16, DW_OP_stack_value] $r2
	ldr	r3, [r2, #28]
.Ltmp124:
	@DEBUG_VALUE: mbedtls_internal_aes_encrypt:RK <- [DW_OP_plus_uconst 40, DW_OP_deref_size 4, DW_OP_plus_uconst 16, DW_OP_stack_value] $sp
	eors	r3, r4
	eors	r3, r7
.Ltmp125:
	.loc	2 902 9                         @ ../../../ThirdParty/mbedTLS/library/aes.c:902:9
	lsrs	r4, r5, #6
	movw	r2, #1020
	ands	r4, r2
	ldr	r7, __arm_cp.4_0
	ldr	r4, [r7, r4]
	@DEBUG_VALUE: mbedtls_internal_aes_encrypt:X1 <- $r1
	uxtb	r7, r1
.Ltmp126:
	@DEBUG_VALUE: mbedtls_internal_aes_encrypt:X1 <- [DW_OP_plus_uconst 32] [$sp+0]
	lsls	r7, r7, #2
	ldr	r7, [r0, r7]
.Ltmp127:
	@DEBUG_VALUE: mbedtls_internal_aes_encrypt:X2 <- [DW_OP_plus_uconst 36] [$sp+0]
	@DEBUG_VALUE: mbedtls_internal_aes_encrypt:RK <- [DW_OP_plus_uconst 40, DW_OP_deref_size 4, DW_OP_plus_uconst 8, DW_OP_stack_value] $sp
	.loc	2 0 9 is_stmt 0                 @ ../../../ThirdParty/mbedTLS/library/aes.c:0:9
	mov	r5, r6
.Ltmp128:
	@DEBUG_VALUE: mbedtls_internal_aes_encrypt:X3 <- $r5
	@DEBUG_VALUE: mbedtls_internal_aes_encrypt:X3 <- $r5
	@DEBUG_VALUE: mbedtls_internal_aes_encrypt:X3 <- $r5
	.loc	2 902 9                         @ ../../../ThirdParty/mbedTLS/library/aes.c:902:9
	ldr	r0, [sp, #40]                   @ 4-byte Reload
.Ltmp129:
	@DEBUG_VALUE: mbedtls_internal_aes_encrypt:RK <- [DW_OP_plus_uconst 8, DW_OP_stack_value] $r0
	ldr	r6, [r0, #4]
.Ltmp130:
	@DEBUG_VALUE: mbedtls_internal_aes_encrypt:RK <- [DW_OP_plus_uconst 40, DW_OP_deref_size 4, DW_OP_plus_uconst 8, DW_OP_stack_value] $sp
	eors	r6, r7
	eors	r6, r4
	lsrs	r4, r5, #14
	ands	r4, r2
	ldr	r2, __arm_cp.4_2
	ldr	r4, [r2, r4]
	eors	r4, r6
	ldr	r1, [sp, #16]                   @ 4-byte Reload
.Ltmp131:
	@DEBUG_VALUE: mbedtls_internal_aes_encrypt:X0 <- $r1
	lsrs	r6, r1, #24
	lsls	r6, r6, #2
	ldr	r0, __arm_cp.4_3
	ldr	r7, [r0, r6]
	eors	r7, r4
.Ltmp132:
	@DEBUG_VALUE: mbedtls_internal_aes_encrypt:Y1 <- $r7
	.loc	2 903 9 is_stmt 1               @ ../../../ThirdParty/mbedTLS/library/aes.c:903:9
	lsrs	r4, r7, #14
	movw	r6, #1020
	ands	r4, r6
	ldr	r4, [r2, r4]
	eors	r4, r3
.Ltmp133:
	.loc	2 902 9                         @ ../../../ThirdParty/mbedTLS/library/aes.c:902:9
	lsrs	r3, r5, #6
	ands	r3, r6
	ldr	r0, __arm_cp.4_0
	ldr	r3, [r0, r3]
	ldr	r0, [sp, #36]                   @ 4-byte Reload
.Ltmp134:
	@DEBUG_VALUE: mbedtls_internal_aes_encrypt:X2 <- $r0
	uxtb	r6, r0
	lsls	r6, r6, #2
	ldr	r0, __arm_cp.4_1
.Ltmp135:
	ldr	r6, [r0, r6]
.Ltmp136:
	@DEBUG_VALUE: mbedtls_internal_aes_encrypt:RK <- [DW_OP_plus_uconst 40, DW_OP_deref_size 4, DW_OP_plus_uconst 12, DW_OP_stack_value] $sp
	ldr	r0, [sp, #40]                   @ 4-byte Reload
.Ltmp137:
	@DEBUG_VALUE: mbedtls_internal_aes_encrypt:RK <- [DW_OP_plus_uconst 12, DW_OP_stack_value] $r0
	ldr	r5, [r0, #8]
.Ltmp138:
	@DEBUG_VALUE: mbedtls_internal_aes_encrypt:RK <- [DW_OP_plus_uconst 40, DW_OP_deref_size 4, DW_OP_plus_uconst 12, DW_OP_stack_value] $sp
	eors	r5, r6
	eors	r5, r3
	lsrs	r1, r1, #14
.Ltmp139:
	movw	r0, #1020
	ands	r1, r0
	ldr	r3, [r2, r1]
	eors	r3, r5
	ldr	r0, [sp, #32]                   @ 4-byte Reload
.Ltmp140:
	@DEBUG_VALUE: mbedtls_internal_aes_encrypt:X1 <- $r0
	lsrs	r1, r0, #24
	lsls	r1, r1, #2
	ldr	r0, __arm_cp.4_3
.Ltmp141:
	ldr	r1, [r0, r1]
	eors	r1, r3
.Ltmp142:
	@DEBUG_VALUE: mbedtls_internal_aes_encrypt:Y2 <- $r1
	.loc	2 903 9                         @ ../../../ThirdParty/mbedTLS/library/aes.c:903:9
	lsrs	r3, r1, #24
	lsls	r3, r3, #2
	ldr	r6, [r0, r3]
	eors	r6, r4
.Ltmp143:
	@DEBUG_VALUE: mbedtls_internal_aes_encrypt:X3 <- $r6
	.loc	2 0 9 is_stmt 0                 @ ../../../ThirdParty/mbedTLS/library/aes.c:0:9
	ldr	r2, [sp, #24]                   @ 4-byte Reload
.Ltmp144:
	@DEBUG_VALUE: mbedtls_internal_aes_encrypt:Y3 <- $r2
	.loc	2 903 9                         @ ../../../ThirdParty/mbedTLS/library/aes.c:903:9
	lsrs	r3, r2, #6
	movw	r0, #1020
	ands	r3, r0
	ldr	r0, __arm_cp.4_0
	ldr	r3, [r0, r3]
	uxtb	r4, r1
	lsls	r4, r4, #2
	ldr	r0, __arm_cp.4_1
	ldr	r4, [r0, r4]
.Ltmp145:
	@DEBUG_VALUE: mbedtls_internal_aes_encrypt:RK <- [DW_OP_plus_uconst 40, DW_OP_deref_size 4, DW_OP_plus_uconst 28, DW_OP_stack_value] $sp
	ldr	r0, [sp, #40]                   @ 4-byte Reload
.Ltmp146:
	@DEBUG_VALUE: mbedtls_internal_aes_encrypt:RK <- [DW_OP_plus_uconst 28, DW_OP_stack_value] $r0
	ldr	r5, [r0, #24]
.Ltmp147:
	@DEBUG_VALUE: mbedtls_internal_aes_encrypt:RK <- [DW_OP_plus_uconst 40, DW_OP_deref_size 4, DW_OP_plus_uconst 28, DW_OP_stack_value] $sp
	eors	r5, r4
	eors	r5, r3
.Ltmp148:
	@DEBUG_VALUE: mbedtls_internal_aes_encrypt:Y0 <- [DW_OP_plus_uconst 28] [$sp+0]
	ldr	r0, [sp, #28]                   @ 4-byte Reload
.Ltmp149:
	@DEBUG_VALUE: mbedtls_internal_aes_encrypt:Y0 <- $r0
	lsrs	r3, r0, #14
.Ltmp150:
	@DEBUG_VALUE: mbedtls_internal_aes_encrypt:Y0 <- [DW_OP_plus_uconst 28] [$sp+0]
	movw	r0, #1020
	ands	r3, r0
	ldr	r0, __arm_cp.4_2
	ldr	r3, [r0, r3]
	eors	r3, r5
	lsrs	r4, r7, #24
	lsls	r4, r4, #2
	ldr	r0, __arm_cp.4_3
	ldr	r0, [r0, r4]
	eors	r0, r3
.Ltmp151:
	@DEBUG_VALUE: mbedtls_internal_aes_encrypt:X2 <- $r0
	str	r0, [sp, #36]                   @ 4-byte Spill
.Ltmp152:
	@DEBUG_VALUE: mbedtls_internal_aes_encrypt:X2 <- [DW_OP_plus_uconst 36] [$sp+0]
	@DEBUG_VALUE: mbedtls_internal_aes_encrypt:X2 <- [DW_OP_plus_uconst 36] [$sp+0]
	lsrs	r3, r1, #6
	movw	r0, #1020
.Ltmp153:
	@DEBUG_VALUE: mbedtls_internal_aes_encrypt:X2 <- $r0
	ands	r3, r0
	ldr	r0, __arm_cp.4_0
.Ltmp154:
	@DEBUG_VALUE: mbedtls_internal_aes_encrypt:X2 <- $r0
	ldr	r3, [r0, r3]
	uxtb	r4, r7
	lsls	r4, r4, #2
	ldr	r0, __arm_cp.4_1
.Ltmp155:
	@DEBUG_VALUE: mbedtls_internal_aes_encrypt:X2 <- $r0
	ldr	r4, [r0, r4]
.Ltmp156:
	@DEBUG_VALUE: mbedtls_internal_aes_encrypt:RK <- [DW_OP_plus_uconst 40, DW_OP_deref_size 4, DW_OP_plus_uconst 24, DW_OP_stack_value] $sp
	ldr	r0, [sp, #40]                   @ 4-byte Reload
.Ltmp157:
	@DEBUG_VALUE: mbedtls_internal_aes_encrypt:X2 <- $r0
	@DEBUG_VALUE: mbedtls_internal_aes_encrypt:RK <- [DW_OP_plus_uconst 24, DW_OP_stack_value] $r0
	ldr	r5, [r0, #20]
.Ltmp158:
	@DEBUG_VALUE: mbedtls_internal_aes_encrypt:RK <- [DW_OP_plus_uconst 40, DW_OP_deref_size 4, DW_OP_plus_uconst 24, DW_OP_stack_value] $sp
	eors	r5, r4
	eors	r5, r3
	lsrs	r3, r2, #14
.Ltmp159:
	@DEBUG_VALUE: mbedtls_internal_aes_encrypt:Y3 <- [DW_OP_plus_uconst 24] [$sp+0]
	.loc	2 0 9                           @ ../../../ThirdParty/mbedTLS/library/aes.c:0:9
	movw	r0, #1020
.Ltmp160:
	@DEBUG_VALUE: mbedtls_internal_aes_encrypt:X2 <- $r0
	.loc	2 903 9                         @ ../../../ThirdParty/mbedTLS/library/aes.c:903:9
	ands	r3, r0
	ldr	r0, __arm_cp.4_2
.Ltmp161:
	@DEBUG_VALUE: mbedtls_internal_aes_encrypt:X2 <- $r0
	ldr	r3, [r0, r3]
	eors	r3, r5
.Ltmp162:
	@DEBUG_VALUE: mbedtls_internal_aes_encrypt:X2 <- [DW_OP_plus_uconst 36] [$sp+0]
	.loc	2 0 9                           @ ../../../ThirdParty/mbedTLS/library/aes.c:0:9
	ldr	r0, [sp, #28]                   @ 4-byte Reload
.Ltmp163:
	@DEBUG_VALUE: mbedtls_internal_aes_encrypt:Y0 <- $r0
	.loc	2 903 9                         @ ../../../ThirdParty/mbedTLS/library/aes.c:903:9
	lsrs	r4, r0, #24
	lsls	r4, r4, #2
	ldr	r2, __arm_cp.4_3
	ldr	r5, [r2, r4]
	eors	r5, r3
.Ltmp164:
	@DEBUG_VALUE: mbedtls_internal_aes_encrypt:X1 <- $r5
	@DEBUG_VALUE: mbedtls_internal_aes_encrypt:X1 <- $r5
	lsrs	r3, r7, #6
	ldr	r7, [sp, #40]                   @ 4-byte Reload
.Ltmp165:
	@DEBUG_VALUE: mbedtls_internal_aes_encrypt:RK <- [DW_OP_plus_uconst 24, DW_OP_stack_value] $r7
	movw	r2, #1020
	ands	r3, r2
	ldr	r2, __arm_cp.4_0
	ldr	r3, [r2, r3]
	uxtb	r2, r0
	lsls	r2, r2, #2
	ldr	r0, __arm_cp.4_1
.Ltmp166:
	ldr	r2, [r0, r2]
.Ltmp167:
	@DEBUG_VALUE: mbedtls_internal_aes_encrypt:RK <- [DW_OP_plus_uconst 20, DW_OP_stack_value] $r7
	ldr	r4, [r7, #16]
	eors	r4, r2
	eors	r4, r3
	lsrs	r1, r1, #14
.Ltmp168:
	movw	r0, #1020
	ands	r1, r0
	ldr	r0, __arm_cp.4_2
	ldr	r2, [r0, r1]
	eors	r2, r4
	ldr	r0, [sp, #24]                   @ 4-byte Reload
.Ltmp169:
	@DEBUG_VALUE: mbedtls_internal_aes_encrypt:Y3 <- $r0
	lsrs	r0, r0, #24
.Ltmp170:
	lsls	r0, r0, #2
	ldr	r1, __arm_cp.4_3
	ldr	r1, [r1, r0]
	ldr	r0, [sp, #20]                   @ 4-byte Reload
	eors	r1, r2
.Ltmp171:
	@DEBUG_VALUE: mbedtls_internal_aes_encrypt:X0 <- $r1
	adds	r7, #32
.Ltmp172:
	@DEBUG_VALUE: mbedtls_internal_aes_encrypt:i <- [DW_OP_constu 1, DW_OP_minus, DW_OP_constu 1, DW_OP_minus, DW_OP_stack_value] undef
	@DEBUG_VALUE: mbedtls_internal_aes_encrypt:RK <- $r7
	.loc	2 900 38 is_stmt 1              @ ../../../ThirdParty/mbedTLS/library/aes.c:900:38
	subs	r0, r0, #1
.Ltmp173:
	.loc	2 900 5 is_stmt 0               @ ../../../ThirdParty/mbedTLS/library/aes.c:900:5
	cmp	r0, #2
	ble	.LBB4_3
	b	.LBB4_2
.Ltmp174:
.LBB4_3:
	@DEBUG_VALUE: mbedtls_internal_aes_encrypt:output <- [DW_OP_plus_uconst 12] [$sp+0]
	@DEBUG_VALUE: mbedtls_internal_aes_encrypt:RK <- $r7
	@DEBUG_VALUE: mbedtls_internal_aes_encrypt:X3 <- $r6
	@DEBUG_VALUE: mbedtls_internal_aes_encrypt:X1 <- $r5
	@DEBUG_VALUE: mbedtls_internal_aes_encrypt:X0 <- $r1
	@DEBUG_VALUE: mbedtls_internal_aes_encrypt:X2 <- [DW_OP_plus_uconst 36] [$sp+0]
	@DEBUG_VALUE: mbedtls_internal_aes_encrypt:ctx <- [DW_OP_LLVM_entry_value 1] $r0
	@DEBUG_VALUE: mbedtls_internal_aes_encrypt:input <- [DW_OP_LLVM_entry_value 1] $r1
	.loc	2 0 5                           @ ../../../ThirdParty/mbedTLS/library/aes.c:0:5
	mov	r4, r5
.Ltmp175:
	@DEBUG_VALUE: mbedtls_internal_aes_encrypt:X1 <- $r4
	str	r6, [sp, #40]                   @ 4-byte Spill
.Ltmp176:
	@DEBUG_VALUE: mbedtls_internal_aes_encrypt:X3 <- [DW_OP_plus_uconst 40] [$sp+0]
	ldr	r6, [sp, #12]                   @ 4-byte Reload
.Ltmp177:
	@DEBUG_VALUE: mbedtls_internal_aes_encrypt:output <- $r6
.LBB4_4:
	@DEBUG_VALUE: mbedtls_internal_aes_encrypt:RK <- $r7
	@DEBUG_VALUE: mbedtls_internal_aes_encrypt:output <- $r6
	@DEBUG_VALUE: mbedtls_internal_aes_encrypt:X1 <- $r4
	@DEBUG_VALUE: mbedtls_internal_aes_encrypt:X0 <- $r1
	@DEBUG_VALUE: mbedtls_internal_aes_encrypt:X2 <- [DW_OP_plus_uconst 36] [$sp+0]
	@DEBUG_VALUE: mbedtls_internal_aes_encrypt:ctx <- [DW_OP_LLVM_entry_value 1] $r0
	@DEBUG_VALUE: mbedtls_internal_aes_encrypt:input <- [DW_OP_LLVM_entry_value 1] $r1
	@DEBUG_VALUE: mbedtls_internal_aes_encrypt:X3 <- [DW_OP_plus_uconst 40] [$sp+0]
	@DEBUG_VALUE: mbedtls_internal_aes_encrypt:RK <- $r7
	@DEBUG_VALUE: mbedtls_internal_aes_encrypt:X2 <- [DW_OP_plus_uconst 36] [$sp+0]
	@DEBUG_VALUE: mbedtls_internal_aes_encrypt:X1 <- $r4
	@DEBUG_VALUE: mbedtls_internal_aes_encrypt:X0 <- $r1
	.loc	2 906 5 is_stmt 1               @ ../../../ThirdParty/mbedTLS/library/aes.c:906:5
	lsrs	r0, r1, #6
	movw	r2, #1020
	ands	r0, r2
	movw	r5, #1020
	ldr	r2, __arm_cp.4_0
	ldr	r0, [r2, r0]
	ldr	r2, [sp, #40]                   @ 4-byte Reload
.Ltmp178:
	@DEBUG_VALUE: mbedtls_internal_aes_encrypt:X3 <- undef
	uxtb	r2, r2
.Ltmp179:
	@DEBUG_VALUE: mbedtls_internal_aes_encrypt:X3 <- [DW_OP_plus_uconst 40] [$sp+0]
	lsls	r2, r2, #2
	ldr	r3, __arm_cp.4_1
	ldr	r2, [r3, r2]
.Ltmp180:
	@DEBUG_VALUE: mbedtls_internal_aes_encrypt:RK <- [DW_OP_plus_uconst 16, DW_OP_stack_value] $r7
	ldr	r3, [r7, #12]
	eors	r3, r2
	eors	r3, r0
	@DEBUG_VALUE: mbedtls_internal_aes_encrypt:X1 <- $r4
	str	r4, [sp, #32]                   @ 4-byte Spill
.Ltmp181:
	@DEBUG_VALUE: mbedtls_internal_aes_encrypt:X1 <- [DW_OP_plus_uconst 32] [$sp+0]
	lsrs	r0, r4, #14
	@DEBUG_VALUE: mbedtls_internal_aes_encrypt:X1 <- [DW_OP_plus_uconst 32] [$sp+0]
	ands	r0, r5
	ldr	r2, __arm_cp.4_2
	ldr	r0, [r2, r0]
	eors	r0, r3
	ldr	r5, [sp, #36]                   @ 4-byte Reload
.Ltmp182:
	@DEBUG_VALUE: mbedtls_internal_aes_encrypt:X2 <- $r5
	lsrs	r2, r5, #24
	lsls	r2, r2, #2
	ldr	r3, __arm_cp.4_3
	ldr	r2, [r3, r2]
	eors	r2, r0
.Ltmp183:
	@DEBUG_VALUE: mbedtls_internal_aes_encrypt:Y3 <- $r2
	.loc	2 927 41                        @ ../../../ThirdParty/mbedTLS/library/aes.c:927:41
	str	r2, [sp, #16]                   @ 4-byte Spill
.Ltmp184:
	@DEBUG_VALUE: mbedtls_internal_aes_encrypt:Y3 <- [DW_OP_plus_uconst 16] [$sp+0]
	uxtb	r0, r2
	@DEBUG_VALUE: mbedtls_internal_aes_encrypt:Y3 <- [DW_OP_plus_uconst 16] [$sp+0]
	@DEBUG_VALUE: mbedtls_internal_aes_encrypt:RK <- [DW_OP_plus_uconst 16, DW_OP_stack_value] $r7
	.loc	2 909 23                        @ ../../../ThirdParty/mbedTLS/library/aes.c:909:23
	ldr	r3, __arm_cp.4_4
	.loc	2 927 23                        @ ../../../ThirdParty/mbedTLS/library/aes.c:927:23
	ldrb	r3, [r3, r0]
.Ltmp185:
	@DEBUG_VALUE: mbedtls_internal_aes_encrypt:X2 <- undef
	@DEBUG_VALUE: mbedtls_internal_aes_encrypt:RK <- [DW_OP_plus_uconst 28, DW_OP_plus_uconst 4, DW_OP_stack_value] $r7
	.loc	2 926 10                        @ ../../../ThirdParty/mbedTLS/library/aes.c:926:10
	ldr	r0, [r7, #28]
.Ltmp186:
	.loc	2 935 5                         @ ../../../ThirdParty/mbedTLS/library/aes.c:935:5
	str	r0, [sp, #12]                   @ 4-byte Spill
	eors	r3, r0
.Ltmp187:
	@DEBUG_VALUE: mbedtls_internal_aes_encrypt:RK <- [DW_OP_plus_uconst 20, DW_OP_stack_value] $r7
	.loc	2 908 10                        @ ../../../ThirdParty/mbedTLS/library/aes.c:908:10
	ldr	r0, [r7, #16]
.Ltmp188:
	.loc	2 906 5                         @ ../../../ThirdParty/mbedTLS/library/aes.c:906:5
	str	r0, [sp, #8]                    @ 4-byte Spill
	ldr	r0, [r7]
.Ltmp189:
	@DEBUG_VALUE: mbedtls_internal_aes_encrypt:X0 <- undef
	@DEBUG_VALUE: mbedtls_internal_aes_encrypt:RK <- [DW_OP_plus_uconst 24, DW_OP_stack_value] $r7
	.loc	2 914 10                        @ ../../../ThirdParty/mbedTLS/library/aes.c:914:10
	str	r0, [sp, #4]                    @ 4-byte Spill
	ldr	r0, [r7, #20]
.Ltmp190:
	@DEBUG_VALUE: mbedtls_internal_aes_encrypt:RK <- [DW_OP_plus_uconst 8, DW_OP_stack_value] $r7
	.loc	2 906 5                         @ ../../../ThirdParty/mbedTLS/library/aes.c:906:5
	str	r0, [sp, #20]                   @ 4-byte Spill
	ldr	r0, [r7, #4]
.Ltmp191:
	@DEBUG_VALUE: mbedtls_internal_aes_encrypt:X1 <- undef
	@DEBUG_VALUE: mbedtls_internal_aes_encrypt:RK <- [DW_OP_plus_uconst 28, DW_OP_stack_value] $r7
	.loc	2 920 10                        @ ../../../ThirdParty/mbedTLS/library/aes.c:920:10
	str	r0, [sp]                        @ 4-byte Spill
	ldr	r0, [r7, #24]
.Ltmp192:
	@DEBUG_VALUE: mbedtls_internal_aes_encrypt:RK <- [DW_OP_plus_uconst 12, DW_OP_stack_value] $r7
	.loc	2 906 5                         @ ../../../ThirdParty/mbedTLS/library/aes.c:906:5
	str	r0, [sp, #28]                   @ 4-byte Spill
	ldr	r4, [r7, #8]
.Ltmp193:
	.loc	2 935 5                         @ ../../../ThirdParty/mbedTLS/library/aes.c:935:5
	strb	r3, [r6, #12]
	ldr	r2, [sp, #40]                   @ 4-byte Reload
.Ltmp194:
	@DEBUG_VALUE: mbedtls_internal_aes_encrypt:X3 <- $r2
	.loc	2 906 5                         @ ../../../ThirdParty/mbedTLS/library/aes.c:906:5
	lsrs	r3, r2, #6
	movw	r0, #1020
	ands	r3, r0
	ldr	r0, __arm_cp.4_0
	ldr	r3, [r0, r3]
	mov	r7, r5
.Ltmp195:
	uxtb	r5, r5
	str	r7, [sp, #36]                   @ 4-byte Spill
	lsls	r5, r5, #2
	ldr	r0, __arm_cp.4_1
	ldr	r5, [r0, r5]
	eors	r5, r4
	eors	r5, r3
	lsrs	r3, r1, #14
	movw	r0, #1020
	ands	r3, r0
	ldr	r0, __arm_cp.4_2
	ldr	r3, [r0, r3]
	eors	r3, r5
	ldr	r0, [sp, #32]                   @ 4-byte Reload
	lsrs	r4, r0, #24
	lsls	r4, r4, #2
	ldr	r5, __arm_cp.4_3
	ldr	r4, [r5, r4]
	eors	r4, r3
.Ltmp196:
	@DEBUG_VALUE: mbedtls_internal_aes_encrypt:Y2 <- $r4
	.loc	2 921 41                        @ ../../../ThirdParty/mbedTLS/library/aes.c:921:41
	str	r4, [sp, #24]                   @ 4-byte Spill
.Ltmp197:
	@DEBUG_VALUE: mbedtls_internal_aes_encrypt:Y2 <- [DW_OP_plus_uconst 24] [$sp+0]
	uxtb	r3, r4
	@DEBUG_VALUE: mbedtls_internal_aes_encrypt:Y2 <- [DW_OP_plus_uconst 24] [$sp+0]
	.loc	2 921 23 is_stmt 0              @ ../../../ThirdParty/mbedTLS/library/aes.c:921:23
	ldr	r4, __arm_cp.4_4
	ldrb	r3, [r4, r3]
.Ltmp198:
	.loc	2 934 5 is_stmt 1               @ ../../../ThirdParty/mbedTLS/library/aes.c:934:5
	ldr	r4, [sp, #28]                   @ 4-byte Reload
	eors	r3, r4
	strb	r3, [r6, #8]
.Ltmp199:
	.loc	2 906 5                         @ ../../../ThirdParty/mbedTLS/library/aes.c:906:5
	lsrs	r3, r7, #6
	movw	r5, #1020
	ands	r3, r5
	ldr	r4, __arm_cp.4_0
	ldr	r3, [r4, r3]
	uxtb	r4, r0
	lsls	r4, r4, #2
	ldr	r0, __arm_cp.4_1
	ldr	r4, [r0, r4]
	ldr	r0, [sp]                        @ 4-byte Reload
	eors	r4, r0
	eors	r4, r3
	lsrs	r0, r2, #14
	@DEBUG_VALUE: mbedtls_internal_aes_encrypt:X3 <- $r2
	ands	r0, r5
	ldr	r3, __arm_cp.4_2
	ldr	r3, [r3, r0]
	eors	r3, r4
	lsrs	r0, r1, #24
	lsls	r0, r0, #2
	ldr	r4, __arm_cp.4_3
	ldr	r0, [r4, r0]
	eors	r0, r3
.Ltmp200:
	@DEBUG_VALUE: mbedtls_internal_aes_encrypt:Y1 <- $r0
	.loc	2 915 41                        @ ../../../ThirdParty/mbedTLS/library/aes.c:915:41
	uxtb	r3, r0
	mov	r7, r0
.Ltmp201:
	@DEBUG_VALUE: mbedtls_internal_aes_encrypt:Y1 <- $r7
	.loc	2 0 41 is_stmt 0                @ ../../../ThirdParty/mbedTLS/library/aes.c:0:41
	str	r0, [sp]                        @ 4-byte Spill
	ldr	r5, __arm_cp.4_4
	.loc	2 915 23                        @ ../../../ThirdParty/mbedTLS/library/aes.c:915:23
	ldrb	r3, [r5, r3]
	ldr	r4, [sp, #20]                   @ 4-byte Reload
.Ltmp202:
	.loc	2 933 5 is_stmt 1               @ ../../../ThirdParty/mbedTLS/library/aes.c:933:5
	eors	r3, r4
	strb	r3, [r6, #4]
.Ltmp203:
	.loc	2 906 5                         @ ../../../ThirdParty/mbedTLS/library/aes.c:906:5
	ldr	r0, [sp, #32]                   @ 4-byte Reload
	lsrs	r3, r0, #6
	movw	r0, #1020
	ands	r3, r0
	ldr	r0, __arm_cp.4_0
	ldr	r3, [r0, r3]
	uxtb	r1, r1
	lsls	r1, r1, #2
	ldr	r0, __arm_cp.4_1
	ldr	r1, [r0, r1]
	ldr	r0, [sp, #4]                    @ 4-byte Reload
	eors	r1, r0
	eors	r1, r3
	ldr	r0, [sp, #36]                   @ 4-byte Reload
	lsrs	r3, r0, #14
	movw	r0, #1020
	ands	r3, r0
	ldr	r0, __arm_cp.4_2
	ldr	r3, [r0, r3]
	eors	r3, r1
	lsrs	r1, r2, #24
	lsls	r1, r1, #2
	ldr	r0, __arm_cp.4_3
	ldr	r1, [r0, r1]
	eors	r1, r3
.Ltmp204:
	@DEBUG_VALUE: mbedtls_internal_aes_encrypt:Y0 <- $r1
	.loc	2 909 41                        @ ../../../ThirdParty/mbedTLS/library/aes.c:909:41
	uxtb	r3, r1
	.loc	2 909 23 is_stmt 0              @ ../../../ThirdParty/mbedTLS/library/aes.c:909:23
	ldrb	r3, [r5, r3]
.Ltmp205:
	@DEBUG_VALUE: mbedtls_internal_aes_encrypt:X3 <- undef
	.loc	2 0 23                          @ ../../../ThirdParty/mbedTLS/library/aes.c:0:23
	ldr	r2, [sp, #8]                    @ 4-byte Reload
.Ltmp206:
	.loc	2 932 5 is_stmt 1               @ ../../../ThirdParty/mbedTLS/library/aes.c:932:5
	eors	r3, r2
	strb	r3, [r6]
.Ltmp207:
	.loc	2 930 33                        @ ../../../ThirdParty/mbedTLS/library/aes.c:930:33
	ldr	r0, [sp, #24]                   @ 4-byte Reload
.Ltmp208:
	@DEBUG_VALUE: mbedtls_internal_aes_encrypt:Y2 <- $r0
	lsrs	r3, r0, #24
.Ltmp209:
	@DEBUG_VALUE: mbedtls_internal_aes_encrypt:Y2 <- [DW_OP_plus_uconst 24] [$sp+0]
	.loc	2 930 12 is_stmt 0              @ ../../../ThirdParty/mbedTLS/library/aes.c:930:12
	ldrb	r3, [r5, r3]
	.loc	2 930 50                        @ ../../../ThirdParty/mbedTLS/library/aes.c:930:50
	lsls	r3, r3, #24
	ldr	r0, [sp, #12]                   @ 4-byte Reload
	.loc	2 929 58 is_stmt 1              @ ../../../ThirdParty/mbedTLS/library/aes.c:929:58
	eors	r3, r0
.Ltmp210:
	.loc	2 935 5                         @ ../../../ThirdParty/mbedTLS/library/aes.c:935:5
	lsrs	r3, r3, #24
	strb	r3, [r6, #15]
.Ltmp211:
	.loc	2 924 33                        @ ../../../ThirdParty/mbedTLS/library/aes.c:924:33
	lsrs	r3, r7, #24
.Ltmp212:
	@DEBUG_VALUE: mbedtls_internal_aes_encrypt:Y1 <- [$sp+0]
	.loc	2 924 12 is_stmt 0              @ ../../../ThirdParty/mbedTLS/library/aes.c:924:12
	ldrb	r3, [r5, r3]
	.loc	2 924 50                        @ ../../../ThirdParty/mbedTLS/library/aes.c:924:50
	lsls	r3, r3, #24
	.loc	2 923 58 is_stmt 1              @ ../../../ThirdParty/mbedTLS/library/aes.c:923:58
	ldr	r7, [sp, #28]                   @ 4-byte Reload
	eors	r3, r7
.Ltmp213:
	.loc	2 934 5                         @ ../../../ThirdParty/mbedTLS/library/aes.c:934:5
	lsrs	r3, r3, #24
	strb	r3, [r6, #11]
.Ltmp214:
	.loc	2 918 33                        @ ../../../ThirdParty/mbedTLS/library/aes.c:918:33
	lsrs	r3, r1, #24
	.loc	2 918 12 is_stmt 0              @ ../../../ThirdParty/mbedTLS/library/aes.c:918:12
	ldrb	r3, [r5, r3]
	.loc	2 918 50                        @ ../../../ThirdParty/mbedTLS/library/aes.c:918:50
	lsls	r3, r3, #24
	.loc	2 917 58 is_stmt 1              @ ../../../ThirdParty/mbedTLS/library/aes.c:917:58
	eors	r3, r4
.Ltmp215:
	.loc	2 933 5                         @ ../../../ThirdParty/mbedTLS/library/aes.c:933:5
	lsrs	r3, r3, #24
	strb	r3, [r6, #7]
	ldr	r4, [sp, #16]                   @ 4-byte Reload
.Ltmp216:
	@DEBUG_VALUE: mbedtls_internal_aes_encrypt:Y3 <- $r4
	.loc	2 912 33                        @ ../../../ThirdParty/mbedTLS/library/aes.c:912:33
	lsrs	r3, r4, #24
	.loc	2 912 12 is_stmt 0              @ ../../../ThirdParty/mbedTLS/library/aes.c:912:12
	ldrb	r3, [r5, r3]
	.loc	2 912 50                        @ ../../../ThirdParty/mbedTLS/library/aes.c:912:50
	lsls	r3, r3, #24
	.loc	2 911 58 is_stmt 1              @ ../../../ThirdParty/mbedTLS/library/aes.c:911:58
	eors	r3, r2
.Ltmp217:
	.loc	2 932 5                         @ ../../../ThirdParty/mbedTLS/library/aes.c:932:5
	lsrs	r3, r3, #24
	strb	r3, [r6, #3]
	ldr	r7, [sp]                        @ 4-byte Reload
.Ltmp218:
	@DEBUG_VALUE: mbedtls_internal_aes_encrypt:Y1 <- $r7
	.loc	2 929 33                        @ ../../../ThirdParty/mbedTLS/library/aes.c:929:33
	lsrs	r3, r7, #16
	.loc	2 929 41 is_stmt 0              @ ../../../ThirdParty/mbedTLS/library/aes.c:929:41
	uxtb	r3, r3
	.loc	2 929 12                        @ ../../../ThirdParty/mbedTLS/library/aes.c:929:12
	ldrb	r3, [r5, r3]
	.loc	2 929 50                        @ ../../../ThirdParty/mbedTLS/library/aes.c:929:50
	lsls	r3, r3, #16
	.loc	2 928 58 is_stmt 1              @ ../../../ThirdParty/mbedTLS/library/aes.c:928:58
	eors	r3, r0
.Ltmp219:
	.loc	2 935 5                         @ ../../../ThirdParty/mbedTLS/library/aes.c:935:5
	lsrs	r3, r3, #16
	strb	r3, [r6, #14]
.Ltmp220:
	.loc	2 928 33                        @ ../../../ThirdParty/mbedTLS/library/aes.c:928:33
	lsrs	r3, r1, #8
	.loc	2 928 41 is_stmt 0              @ ../../../ThirdParty/mbedTLS/library/aes.c:928:41
	uxtb	r3, r3
	.loc	2 928 12                        @ ../../../ThirdParty/mbedTLS/library/aes.c:928:12
	ldrb	r3, [r5, r3]
	.loc	2 928 50                        @ ../../../ThirdParty/mbedTLS/library/aes.c:928:50
	lsls	r3, r3, #8
	.loc	2 927 58 is_stmt 1              @ ../../../ThirdParty/mbedTLS/library/aes.c:927:58
	eors	r3, r0
.Ltmp221:
	.loc	2 935 5                         @ ../../../ThirdParty/mbedTLS/library/aes.c:935:5
	lsrs	r3, r3, #8
	strb	r3, [r6, #13]
.Ltmp222:
	.loc	2 923 33                        @ ../../../ThirdParty/mbedTLS/library/aes.c:923:33
	lsrs	r1, r1, #16
.Ltmp223:
	.loc	2 923 41 is_stmt 0              @ ../../../ThirdParty/mbedTLS/library/aes.c:923:41
	uxtb	r1, r1
	.loc	2 923 12                        @ ../../../ThirdParty/mbedTLS/library/aes.c:923:12
	ldrb	r1, [r5, r1]
	.loc	2 923 50                        @ ../../../ThirdParty/mbedTLS/library/aes.c:923:50
	lsls	r1, r1, #16
	ldr	r0, [sp, #28]                   @ 4-byte Reload
	.loc	2 922 58 is_stmt 1              @ ../../../ThirdParty/mbedTLS/library/aes.c:922:58
	eors	r1, r0
.Ltmp224:
	.loc	2 934 5                         @ ../../../ThirdParty/mbedTLS/library/aes.c:934:5
	lsrs	r1, r1, #16
	strb	r1, [r6, #10]
.Ltmp225:
	@DEBUG_VALUE: mbedtls_internal_aes_encrypt:Y3 <- $r4
	.loc	2 922 33                        @ ../../../ThirdParty/mbedTLS/library/aes.c:922:33
	lsrs	r1, r4, #8
	.loc	2 922 41 is_stmt 0              @ ../../../ThirdParty/mbedTLS/library/aes.c:922:41
	uxtb	r1, r1
	.loc	2 922 12                        @ ../../../ThirdParty/mbedTLS/library/aes.c:922:12
	ldrb	r1, [r5, r1]
	.loc	2 922 50                        @ ../../../ThirdParty/mbedTLS/library/aes.c:922:50
	lsls	r1, r1, #8
	.loc	2 921 58 is_stmt 1              @ ../../../ThirdParty/mbedTLS/library/aes.c:921:58
	eors	r1, r0
.Ltmp226:
	.loc	2 934 5                         @ ../../../ThirdParty/mbedTLS/library/aes.c:934:5
	lsrs	r1, r1, #8
	strb	r1, [r6, #9]
.Ltmp227:
	.loc	2 917 33                        @ ../../../ThirdParty/mbedTLS/library/aes.c:917:33
	lsrs	r1, r4, #16
	.loc	2 917 41 is_stmt 0              @ ../../../ThirdParty/mbedTLS/library/aes.c:917:41
	uxtb	r1, r1
	.loc	2 917 12                        @ ../../../ThirdParty/mbedTLS/library/aes.c:917:12
	ldrb	r1, [r5, r1]
	.loc	2 917 50                        @ ../../../ThirdParty/mbedTLS/library/aes.c:917:50
	lsls	r1, r1, #16
	ldr	r3, [sp, #20]                   @ 4-byte Reload
	.loc	2 916 58 is_stmt 1              @ ../../../ThirdParty/mbedTLS/library/aes.c:916:58
	eors	r1, r3
.Ltmp228:
	.loc	2 933 5                         @ ../../../ThirdParty/mbedTLS/library/aes.c:933:5
	lsrs	r1, r1, #16
	strb	r1, [r6, #6]
	ldr	r0, [sp, #24]                   @ 4-byte Reload
.Ltmp229:
	@DEBUG_VALUE: mbedtls_internal_aes_encrypt:Y2 <- $r0
	.loc	2 916 33                        @ ../../../ThirdParty/mbedTLS/library/aes.c:916:33
	lsrs	r1, r0, #8
	.loc	2 916 41 is_stmt 0              @ ../../../ThirdParty/mbedTLS/library/aes.c:916:41
	uxtb	r1, r1
	.loc	2 916 12                        @ ../../../ThirdParty/mbedTLS/library/aes.c:916:12
	ldrb	r1, [r5, r1]
	.loc	2 916 50                        @ ../../../ThirdParty/mbedTLS/library/aes.c:916:50
	lsls	r1, r1, #8
	.loc	2 915 58 is_stmt 1              @ ../../../ThirdParty/mbedTLS/library/aes.c:915:58
	eors	r1, r3
.Ltmp230:
	.loc	2 933 5                         @ ../../../ThirdParty/mbedTLS/library/aes.c:933:5
	lsrs	r1, r1, #8
	strb	r1, [r6, #5]
.Ltmp231:
	.loc	2 911 33                        @ ../../../ThirdParty/mbedTLS/library/aes.c:911:33
	lsrs	r1, r0, #16
	.loc	2 911 41 is_stmt 0              @ ../../../ThirdParty/mbedTLS/library/aes.c:911:41
	uxtb	r1, r1
	.loc	2 911 12                        @ ../../../ThirdParty/mbedTLS/library/aes.c:911:12
	ldrb	r1, [r5, r1]
	.loc	2 911 50                        @ ../../../ThirdParty/mbedTLS/library/aes.c:911:50
	lsls	r1, r1, #16
	.loc	2 910 58 is_stmt 1              @ ../../../ThirdParty/mbedTLS/library/aes.c:910:58
	eors	r1, r2
.Ltmp232:
	.loc	2 932 5                         @ ../../../ThirdParty/mbedTLS/library/aes.c:932:5
	lsrs	r1, r1, #16
	strb	r1, [r6, #2]
.Ltmp233:
	.loc	2 910 33                        @ ../../../ThirdParty/mbedTLS/library/aes.c:910:33
	lsrs	r0, r7, #8
.Ltmp234:
	.loc	2 910 41 is_stmt 0              @ ../../../ThirdParty/mbedTLS/library/aes.c:910:41
	uxtb	r0, r0
	.loc	2 910 12                        @ ../../../ThirdParty/mbedTLS/library/aes.c:910:12
	ldrb	r0, [r5, r0]
	.loc	2 910 50                        @ ../../../ThirdParty/mbedTLS/library/aes.c:910:50
	lsls	r0, r0, #8
	.loc	2 909 58 is_stmt 1              @ ../../../ThirdParty/mbedTLS/library/aes.c:909:58
	eors	r0, r2
.Ltmp235:
	.loc	2 932 5                         @ ../../../ThirdParty/mbedTLS/library/aes.c:932:5
	lsrs	r0, r0, #8
	strb	r0, [r6, #1]
	movs	r0, #0
.Ltmp236:
	.loc	2 937 5                         @ ../../../ThirdParty/mbedTLS/library/aes.c:937:5
	add	sp, #44
	pop	{r4, r5, r6, r7, pc}
.Ltmp237:
	.p2align	2
@ %bb.5:
	.loc	2 0 5 is_stmt 0                 @ ../../../ThirdParty/mbedTLS/library/aes.c:0:5
__arm_cp.4_0:
	.long	FT1
.Lcpi_end7:
	.size	__arm_cp.4_0, .Lcpi_end7-__arm_cp.4_0
__arm_cp.4_1:
	.long	FT0
.Lcpi_end8:
	.size	__arm_cp.4_1, .Lcpi_end8-__arm_cp.4_1
__arm_cp.4_2:
	.long	FT2
.Lcpi_end9:
	.size	__arm_cp.4_2, .Lcpi_end9-__arm_cp.4_2
__arm_cp.4_3:
	.long	FT3
.Lcpi_end10:
	.size	__arm_cp.4_3, .Lcpi_end10-__arm_cp.4_3
__arm_cp.4_4:
	.long	FSb
.Lcpi_end11:
	.size	__arm_cp.4_4, .Lcpi_end11-__arm_cp.4_4
.Lfunc_end4:
	.size	mbedtls_internal_aes_encrypt, .Lfunc_end4-mbedtls_internal_aes_encrypt
	.cfi_endproc
	.cantunwind
	.fnend
                                        @ -- End function
	.section	.text.mbedtls_aes_encrypt,"ax",%progbits
	.hidden	mbedtls_aes_encrypt             @ -- Begin function mbedtls_aes_encrypt
	.globl	mbedtls_aes_encrypt
	.p2align	1
	.type	mbedtls_aes_encrypt,%function
	.code	16                              @ @mbedtls_aes_encrypt
	.thumb_func
mbedtls_aes_encrypt:
.Lfunc_begin5:
	.loc	2 945 0 is_stmt 1               @ ../../../ThirdParty/mbedTLS/library/aes.c:945:0
	.fnstart
	.cfi_startproc
@ %bb.0:
	@DEBUG_VALUE: mbedtls_aes_encrypt:ctx <- $r0
	@DEBUG_VALUE: mbedtls_aes_encrypt:ctx <- $r0
	@DEBUG_VALUE: mbedtls_aes_encrypt:input <- $r1
	@DEBUG_VALUE: mbedtls_aes_encrypt:input <- $r1
	@DEBUG_VALUE: mbedtls_aes_encrypt:output <- $r2
	@DEBUG_VALUE: mbedtls_aes_encrypt:output <- $r2
	@DEBUG_VALUE: mbedtls_aes_encrypt:output <- $r2
	@DEBUG_VALUE: mbedtls_aes_encrypt:input <- $r1
	@DEBUG_VALUE: mbedtls_aes_encrypt:ctx <- $r0
	.save	{r7, lr}
	push	{r7, lr}
	.cfi_def_cfa_offset 8
	.cfi_offset lr, -4
	.cfi_offset r7, -8
.Ltmp238:
	.loc	2 946 5 prologue_end            @ ../../../ThirdParty/mbedTLS/library/aes.c:946:5
	bl	mbedtls_internal_aes_encrypt
.Ltmp239:
	@DEBUG_VALUE: mbedtls_aes_encrypt:output <- [DW_OP_LLVM_entry_value 1] $r2
	@DEBUG_VALUE: mbedtls_aes_encrypt:input <- [DW_OP_LLVM_entry_value 1] $r1
	@DEBUG_VALUE: mbedtls_aes_encrypt:ctx <- [DW_OP_LLVM_entry_value 1] $r0
	.loc	2 947 1                         @ ../../../ThirdParty/mbedTLS/library/aes.c:947:1
	pop	{r7, pc}
.Ltmp240:
.Lfunc_end5:
	.size	mbedtls_aes_encrypt, .Lfunc_end5-mbedtls_aes_encrypt
	.cfi_endproc
	.cantunwind
	.fnend
                                        @ -- End function
	.section	.text.mbedtls_internal_aes_decrypt,"ax",%progbits
	.hidden	mbedtls_internal_aes_decrypt    @ -- Begin function mbedtls_internal_aes_decrypt
	.globl	mbedtls_internal_aes_decrypt
	.p2align	2
	.type	mbedtls_internal_aes_decrypt,%function
	.code	16                              @ @mbedtls_internal_aes_decrypt
	.thumb_func
mbedtls_internal_aes_decrypt:
.Lfunc_begin6:
	.loc	2 957 0                         @ ../../../ThirdParty/mbedTLS/library/aes.c:957:0
	.fnstart
	.cfi_startproc
@ %bb.0:
	@DEBUG_VALUE: mbedtls_internal_aes_decrypt:ctx <- $r0
	@DEBUG_VALUE: mbedtls_internal_aes_decrypt:input <- $r1
	@DEBUG_VALUE: mbedtls_internal_aes_decrypt:output <- $r2
	.save	{r4, r5, r6, r7, lr}
	push	{r4, r5, r6, r7, lr}
	.cfi_def_cfa_offset 20
	.cfi_offset lr, -4
	.cfi_offset r7, -8
	.cfi_offset r6, -12
	.cfi_offset r5, -16
	.cfi_offset r4, -20
	.pad	#44
	sub	sp, #44
	.cfi_def_cfa_offset 64
	str	r2, [sp, #8]                    @ 4-byte Spill
.Ltmp241:
	@DEBUG_VALUE: mbedtls_internal_aes_decrypt:output <- [DW_OP_plus_uconst 8] [$sp+0]
	@DEBUG_VALUE: mbedtls_internal_aes_decrypt:input <- $r1
	@DEBUG_VALUE: mbedtls_internal_aes_decrypt:ctx <- $r0
	.loc	2 969 5 prologue_end            @ ../../../ThirdParty/mbedTLS/library/aes.c:969:5
	ldrb	r2, [r1, #12]
	ldrb	r3, [r1, #13]
	lsls	r3, r3, #8
	adds	r2, r3, r2
	ldrb	r3, [r1, #14]
	lsls	r3, r3, #16
	adds	r2, r2, r3
	ldrb	r3, [r1, #15]
	lsls	r3, r3, #24
	adds	r2, r2, r3
.Ltmp242:
	@DEBUG_VALUE: mbedtls_internal_aes_decrypt:X3 <- $r2
	.loc	2 961 15                        @ ../../../ThirdParty/mbedTLS/library/aes.c:961:15
	ldr	r7, [r0, #4]
.Ltmp243:
	@DEBUG_VALUE: mbedtls_internal_aes_decrypt:RK <- $r7
	.loc	2 970 11                        @ ../../../ThirdParty/mbedTLS/library/aes.c:970:11
	ldr	r3, [r7, #12]
	.loc	2 970 8 is_stmt 0               @ ../../../ThirdParty/mbedTLS/library/aes.c:970:8
	eors	r3, r2
.Ltmp244:
	@DEBUG_VALUE: mbedtls_internal_aes_decrypt:X3 <- $r3
	.loc	2 0 8                           @ ../../../ThirdParty/mbedTLS/library/aes.c:0:8
	str	r3, [sp, #36]                   @ 4-byte Spill
.Ltmp245:
	@DEBUG_VALUE: mbedtls_internal_aes_decrypt:X3 <- [DW_OP_plus_uconst 36] [$sp+0]
	@DEBUG_VALUE: mbedtls_internal_aes_decrypt:X3 <- [DW_OP_plus_uconst 36] [$sp+0]
	.loc	2 967 5 is_stmt 1               @ ../../../ThirdParty/mbedTLS/library/aes.c:967:5
	ldrb	r2, [r1, #8]
	ldrb	r3, [r1, #9]
	lsls	r3, r3, #8
	adds	r2, r3, r2
	ldrb	r3, [r1, #10]
	lsls	r3, r3, #16
	adds	r2, r2, r3
	ldrb	r3, [r1, #11]
	lsls	r3, r3, #24
	adds	r2, r2, r3
.Ltmp246:
	@DEBUG_VALUE: mbedtls_internal_aes_decrypt:X2 <- $r2
	@DEBUG_VALUE: mbedtls_internal_aes_decrypt:RK <- [DW_OP_plus_uconst 12, DW_OP_stack_value] $r7
	.loc	2 968 11                        @ ../../../ThirdParty/mbedTLS/library/aes.c:968:11
	ldr	r5, [r7, #8]
	.loc	2 968 8 is_stmt 0               @ ../../../ThirdParty/mbedTLS/library/aes.c:968:8
	eors	r5, r2
.Ltmp247:
	@DEBUG_VALUE: mbedtls_internal_aes_decrypt:X2 <- $r5
	@DEBUG_VALUE: mbedtls_internal_aes_decrypt:X2 <- $r5
	.loc	2 965 5 is_stmt 1               @ ../../../ThirdParty/mbedTLS/library/aes.c:965:5
	ldrb	r2, [r1, #4]
	ldrb	r3, [r1, #5]
	lsls	r3, r3, #8
	adds	r2, r3, r2
	ldrb	r3, [r1, #6]
	lsls	r3, r3, #16
	adds	r2, r2, r3
	ldrb	r3, [r1, #7]
	lsls	r3, r3, #24
	adds	r2, r2, r3
.Ltmp248:
	@DEBUG_VALUE: mbedtls_internal_aes_decrypt:X1 <- $r2
	@DEBUG_VALUE: mbedtls_internal_aes_decrypt:RK <- [DW_OP_plus_uconst 8, DW_OP_stack_value] $r7
	.loc	2 966 11                        @ ../../../ThirdParty/mbedTLS/library/aes.c:966:11
	ldr	r3, [r7, #4]
	.loc	2 966 8 is_stmt 0               @ ../../../ThirdParty/mbedTLS/library/aes.c:966:8
	eors	r3, r2
.Ltmp249:
	@DEBUG_VALUE: mbedtls_internal_aes_decrypt:X1 <- $r3
	.loc	2 0 8                           @ ../../../ThirdParty/mbedTLS/library/aes.c:0:8
	str	r3, [sp, #28]                   @ 4-byte Spill
.Ltmp250:
	@DEBUG_VALUE: mbedtls_internal_aes_decrypt:X1 <- [DW_OP_plus_uconst 28] [$sp+0]
	@DEBUG_VALUE: mbedtls_internal_aes_decrypt:X1 <- [DW_OP_plus_uconst 28] [$sp+0]
	.loc	2 963 5 is_stmt 1               @ ../../../ThirdParty/mbedTLS/library/aes.c:963:5
	ldrb	r2, [r1]
	ldrb	r3, [r1, #1]
	lsls	r3, r3, #8
	adds	r2, r3, r2
	ldrb	r3, [r1, #2]
	lsls	r3, r3, #16
	adds	r2, r2, r3
	ldrb	r1, [r1, #3]
.Ltmp251:
	@DEBUG_VALUE: mbedtls_internal_aes_decrypt:input <- [DW_OP_LLVM_entry_value 1] $r1
	lsls	r1, r1, #24
	adds	r2, r2, r1
.Ltmp252:
	@DEBUG_VALUE: mbedtls_internal_aes_decrypt:X0 <- $r2
	@DEBUG_VALUE: mbedtls_internal_aes_decrypt:RK <- [DW_OP_plus_uconst 4, DW_OP_stack_value] $r7
	.loc	2 964 11                        @ ../../../ThirdParty/mbedTLS/library/aes.c:964:11
	ldr	r1, [r7]
	.loc	2 964 8 is_stmt 0               @ ../../../ThirdParty/mbedTLS/library/aes.c:964:8
	eors	r1, r2
.Ltmp253:
	@DEBUG_VALUE: mbedtls_internal_aes_decrypt:X0 <- $r1
	.loc	2 972 21 is_stmt 1              @ ../../../ThirdParty/mbedTLS/library/aes.c:972:21
	ldr	r0, [r0]
.Ltmp254:
	@DEBUG_VALUE: mbedtls_internal_aes_decrypt:ctx <- [DW_OP_LLVM_entry_value 1] $r0
	@DEBUG_VALUE: mbedtls_internal_aes_decrypt:i <- [DW_OP_constu 1, DW_OP_shra, DW_OP_constu 1, DW_OP_minus, DW_OP_stack_value] $r0
	.loc	2 970 14                        @ ../../../ThirdParty/mbedTLS/library/aes.c:970:14
	adds	r7, #16
.Ltmp255:
	@DEBUG_VALUE: mbedtls_internal_aes_decrypt:RK <- $r7
	.loc	2 972 5                         @ ../../../ThirdParty/mbedTLS/library/aes.c:972:5
	cmp	r0, #4
	bge	.LBB6_1
	b	.LBB6_4
.Ltmp256:
.LBB6_1:
	@DEBUG_VALUE: mbedtls_internal_aes_decrypt:RK <- $r7
	@DEBUG_VALUE: mbedtls_internal_aes_decrypt:X2 <- $r5
	@DEBUG_VALUE: mbedtls_internal_aes_decrypt:X0 <- $r1
	@DEBUG_VALUE: mbedtls_internal_aes_decrypt:i <- [DW_OP_constu 1, DW_OP_shra, DW_OP_constu 1, DW_OP_minus, DW_OP_stack_value] $r0
	@DEBUG_VALUE: mbedtls_internal_aes_decrypt:X1 <- [DW_OP_plus_uconst 28] [$sp+0]
	@DEBUG_VALUE: mbedtls_internal_aes_decrypt:X3 <- [DW_OP_plus_uconst 36] [$sp+0]
	@DEBUG_VALUE: mbedtls_internal_aes_decrypt:output <- [DW_OP_plus_uconst 8] [$sp+0]
	@DEBUG_VALUE: mbedtls_internal_aes_decrypt:ctx <- [DW_OP_LLVM_entry_value 1] $r0
	@DEBUG_VALUE: mbedtls_internal_aes_decrypt:input <- [DW_OP_LLVM_entry_value 1] $r1
	.loc	2 972 24 is_stmt 0              @ ../../../ThirdParty/mbedTLS/library/aes.c:972:24
	asrs	r0, r0, #1
.Ltmp257:
	@DEBUG_VALUE: mbedtls_internal_aes_decrypt:i <- [DW_OP_constu 1, DW_OP_minus, DW_OP_stack_value] $r0
	.loc	2 972 5                         @ ../../../ThirdParty/mbedTLS/library/aes.c:972:5
	adds	r0, r0, #1
.Ltmp258:
	.loc	2 0 5                           @ ../../../ThirdParty/mbedTLS/library/aes.c:0:5
	ldr	r6, [sp, #28]                   @ 4-byte Reload
.Ltmp259:
.LBB6_2:                                @ =>This Inner Loop Header: Depth=1
	@DEBUG_VALUE: mbedtls_internal_aes_decrypt:RK <- $r7
	@DEBUG_VALUE: mbedtls_internal_aes_decrypt:X2 <- $r5
	@DEBUG_VALUE: mbedtls_internal_aes_decrypt:X0 <- $r1
	@DEBUG_VALUE: mbedtls_internal_aes_decrypt:X3 <- [DW_OP_plus_uconst 36] [$sp+0]
	@DEBUG_VALUE: mbedtls_internal_aes_decrypt:output <- [DW_OP_plus_uconst 8] [$sp+0]
	@DEBUG_VALUE: mbedtls_internal_aes_decrypt:ctx <- [DW_OP_LLVM_entry_value 1] $r0
	@DEBUG_VALUE: mbedtls_internal_aes_decrypt:input <- [DW_OP_LLVM_entry_value 1] $r1
	@DEBUG_VALUE: mbedtls_internal_aes_decrypt:X3 <- [DW_OP_plus_uconst 36] [$sp+0]
	@DEBUG_VALUE: mbedtls_internal_aes_decrypt:RK <- [DW_OP_plus_uconst 4, DW_OP_stack_value] $r7
	@DEBUG_VALUE: mbedtls_internal_aes_decrypt:X2 <- $r5
	@DEBUG_VALUE: mbedtls_internal_aes_decrypt:X1 <- $r6
	@DEBUG_VALUE: mbedtls_internal_aes_decrypt:X0 <- $r1
	@DEBUG_VALUE: mbedtls_internal_aes_decrypt:i <- [DW_OP_constu 1, DW_OP_minus, DW_OP_stack_value] undef
	str	r6, [sp, #28]                   @ 4-byte Spill
	str	r7, [sp, #40]                   @ 4-byte Spill
	str	r0, [sp, #24]                   @ 4-byte Spill
.Ltmp260:
	.loc	2 974 9 is_stmt 1               @ ../../../ThirdParty/mbedTLS/library/aes.c:974:9
	lsrs	r0, r6, #6
	movw	r4, #1020
	ands	r0, r4
	ldr	r2, __arm_cp.6_0
	ldr	r0, [r2, r0]
	@DEBUG_VALUE: mbedtls_internal_aes_decrypt:X2 <- $r5
	uxtb	r2, r5
	@DEBUG_VALUE: mbedtls_internal_aes_decrypt:X2 <- $r5
	lsls	r2, r2, #2
	ldr	r3, __arm_cp.6_1
	ldr	r2, [r3, r2]
.Ltmp261:
	@DEBUG_VALUE: mbedtls_internal_aes_decrypt:RK <- [DW_OP_plus_uconst 12, DW_OP_stack_value] $r7
	ldr	r3, [r7, #8]
	eors	r3, r2
	eors	r3, r0
	lsrs	r0, r1, #14
	ands	r0, r4
	ldr	r2, __arm_cp.6_2
	ldr	r0, [r2, r0]
	eors	r0, r3
	ldr	r4, [sp, #36]                   @ 4-byte Reload
.Ltmp262:
	@DEBUG_VALUE: mbedtls_internal_aes_decrypt:X3 <- $r4
	lsrs	r2, r4, #24
	lsls	r2, r2, #2
	ldr	r3, __arm_cp.6_3
	ldr	r2, [r3, r2]
	eors	r2, r0
.Ltmp263:
	@DEBUG_VALUE: mbedtls_internal_aes_decrypt:Y2 <- $r2
	.loc	2 975 9                         @ ../../../ThirdParty/mbedTLS/library/aes.c:975:9
	str	r2, [sp, #32]                   @ 4-byte Spill
.Ltmp264:
	@DEBUG_VALUE: mbedtls_internal_aes_decrypt:Y2 <- [DW_OP_plus_uconst 32] [$sp+0]
	@DEBUG_VALUE: mbedtls_internal_aes_decrypt:Y2 <- [DW_OP_plus_uconst 32] [$sp+0]
	lsrs	r0, r2, #6
	@DEBUG_VALUE: mbedtls_internal_aes_decrypt:Y2 <- [DW_OP_plus_uconst 32] [$sp+0]
	movw	r3, #1020
	ands	r0, r3
.Ltmp265:
	@DEBUG_VALUE: mbedtls_internal_aes_decrypt:RK <- [DW_OP_plus_uconst 40, DW_OP_deref_size 4, DW_OP_plus_uconst 12, DW_OP_stack_value] $sp
	.loc	2 0 9 is_stmt 0                 @ ../../../ThirdParty/mbedTLS/library/aes.c:0:9
	mov	r7, r1
.Ltmp266:
	@DEBUG_VALUE: mbedtls_internal_aes_decrypt:X0 <- $r7
	@DEBUG_VALUE: mbedtls_internal_aes_decrypt:X0 <- $r7
	@DEBUG_VALUE: mbedtls_internal_aes_decrypt:X0 <- $r7
	ldr	r1, __arm_cp.6_0
	.loc	2 975 9                         @ ../../../ThirdParty/mbedTLS/library/aes.c:975:9
	ldr	r0, [r1, r0]
.Ltmp267:
	.loc	2 974 9 is_stmt 1               @ ../../../ThirdParty/mbedTLS/library/aes.c:974:9
	str	r0, [sp, #12]                   @ 4-byte Spill
	lsrs	r0, r5, #6
	@DEBUG_VALUE: mbedtls_internal_aes_decrypt:X2 <- $r5
	ands	r0, r3
	ldr	r0, [r1, r0]
	uxtb	r3, r4
	lsls	r3, r3, #2
	ldr	r1, __arm_cp.6_1
	ldr	r3, [r1, r3]
.Ltmp268:
	@DEBUG_VALUE: mbedtls_internal_aes_decrypt:RK <- [DW_OP_plus_uconst 40, DW_OP_deref_size 4, DW_OP_plus_uconst 16, DW_OP_stack_value] $sp
	@DEBUG_VALUE: mbedtls_internal_aes_decrypt:X3 <- [DW_OP_plus_uconst 36] [$sp+0]
	ldr	r2, [sp, #40]                   @ 4-byte Reload
.Ltmp269:
	@DEBUG_VALUE: mbedtls_internal_aes_decrypt:RK <- [DW_OP_plus_uconst 16, DW_OP_stack_value] $r2
	ldr	r4, [r2, #12]
.Ltmp270:
	@DEBUG_VALUE: mbedtls_internal_aes_decrypt:RK <- [DW_OP_plus_uconst 40, DW_OP_deref_size 4, DW_OP_plus_uconst 16, DW_OP_stack_value] $sp
	eors	r4, r3
	eors	r4, r0
	lsrs	r0, r6, #14
	movw	r2, #1020
	ands	r0, r2
	ldr	r2, __arm_cp.6_2
	ldr	r3, [r2, r0]
	eors	r3, r4
	@DEBUG_VALUE: mbedtls_internal_aes_decrypt:X0 <- $r7
	str	r7, [sp, #16]                   @ 4-byte Spill
	lsrs	r0, r7, #24
	lsls	r0, r0, #2
	ldr	r2, __arm_cp.6_3
	ldr	r0, [r2, r0]
	eors	r0, r3
.Ltmp271:
	@DEBUG_VALUE: mbedtls_internal_aes_decrypt:Y3 <- $r0
	.loc	2 975 9                         @ ../../../ThirdParty/mbedTLS/library/aes.c:975:9
	str	r0, [sp, #20]                   @ 4-byte Spill
.Ltmp272:
	@DEBUG_VALUE: mbedtls_internal_aes_decrypt:Y3 <- [DW_OP_plus_uconst 20] [$sp+0]
	@DEBUG_VALUE: mbedtls_internal_aes_decrypt:Y3 <- [DW_OP_plus_uconst 20] [$sp+0]
	uxtb	r3, r0
	@DEBUG_VALUE: mbedtls_internal_aes_decrypt:Y3 <- [DW_OP_plus_uconst 20] [$sp+0]
	lsls	r3, r3, #2
	mov	r0, r1
	ldr	r4, [r1, r3]
	ldr	r2, [sp, #40]                   @ 4-byte Reload
.Ltmp273:
	@DEBUG_VALUE: mbedtls_internal_aes_decrypt:RK <- [DW_OP_plus_uconst 16, DW_OP_stack_value] $r2
	ldr	r3, [r2, #28]
.Ltmp274:
	@DEBUG_VALUE: mbedtls_internal_aes_decrypt:RK <- [DW_OP_plus_uconst 40, DW_OP_deref_size 4, DW_OP_plus_uconst 16, DW_OP_stack_value] $sp
	eors	r3, r4
	ldr	r1, [sp, #12]                   @ 4-byte Reload
	eors	r3, r1
.Ltmp275:
	.loc	2 974 9                         @ ../../../ThirdParty/mbedTLS/library/aes.c:974:9
	lsrs	r4, r7, #6
.Ltmp276:
	@DEBUG_VALUE: mbedtls_internal_aes_decrypt:X0 <- [DW_OP_plus_uconst 16] [$sp+0]
	.loc	2 0 9 is_stmt 0                 @ ../../../ThirdParty/mbedTLS/library/aes.c:0:9
	movw	r2, #1020
	.loc	2 974 9                         @ ../../../ThirdParty/mbedTLS/library/aes.c:974:9
	ands	r4, r2
	ldr	r1, __arm_cp.6_0
	ldr	r4, [r1, r4]
	uxtb	r7, r6
	lsls	r7, r7, #2
	ldr	r7, [r0, r7]
.Ltmp277:
	@DEBUG_VALUE: mbedtls_internal_aes_decrypt:X1 <- [DW_OP_plus_uconst 28] [$sp+0]
	@DEBUG_VALUE: mbedtls_internal_aes_decrypt:RK <- [DW_OP_plus_uconst 40, DW_OP_deref_size 4, DW_OP_plus_uconst 8, DW_OP_stack_value] $sp
	ldr	r1, [sp, #40]                   @ 4-byte Reload
.Ltmp278:
	@DEBUG_VALUE: mbedtls_internal_aes_decrypt:RK <- [DW_OP_plus_uconst 8, DW_OP_stack_value] $r1
	ldr	r6, [r1, #4]
.Ltmp279:
	@DEBUG_VALUE: mbedtls_internal_aes_decrypt:RK <- [DW_OP_plus_uconst 40, DW_OP_deref_size 4, DW_OP_plus_uconst 8, DW_OP_stack_value] $sp
	eors	r6, r7
	eors	r6, r4
	ldr	r0, [sp, #36]                   @ 4-byte Reload
.Ltmp280:
	@DEBUG_VALUE: mbedtls_internal_aes_decrypt:X3 <- $r0
	lsrs	r4, r0, #14
	ands	r4, r2
	ldr	r1, __arm_cp.6_2
	ldr	r4, [r1, r4]
	eors	r4, r6
	@DEBUG_VALUE: mbedtls_internal_aes_decrypt:X2 <- $r5
	lsrs	r6, r5, #24
	lsls	r6, r6, #2
	ldr	r7, __arm_cp.6_3
	ldr	r7, [r7, r6]
	eors	r7, r4
.Ltmp281:
	@DEBUG_VALUE: mbedtls_internal_aes_decrypt:Y1 <- $r7
	.loc	2 975 9 is_stmt 1               @ ../../../ThirdParty/mbedTLS/library/aes.c:975:9
	lsrs	r4, r7, #14
	movw	r6, #1020
	ands	r4, r6
	ldr	r4, [r1, r4]
	eors	r4, r3
.Ltmp282:
	.loc	2 974 9                         @ ../../../ThirdParty/mbedTLS/library/aes.c:974:9
	lsrs	r3, r0, #6
	ands	r3, r6
	ldr	r0, __arm_cp.6_0
.Ltmp283:
	ldr	r3, [r0, r3]
	ldr	r0, [sp, #16]                   @ 4-byte Reload
.Ltmp284:
	@DEBUG_VALUE: mbedtls_internal_aes_decrypt:X0 <- $r0
	uxtb	r1, r0
	lsls	r1, r1, #2
	ldr	r0, __arm_cp.6_1
.Ltmp285:
	ldr	r1, [r0, r1]
	ldr	r2, [sp, #40]                   @ 4-byte Reload
.Ltmp286:
	@DEBUG_VALUE: mbedtls_internal_aes_decrypt:RK <- [DW_OP_plus_uconst 8, DW_OP_stack_value] $r2
	ldr	r6, [r2]
.Ltmp287:
	@DEBUG_VALUE: mbedtls_internal_aes_decrypt:RK <- [DW_OP_plus_uconst 40, DW_OP_deref_size 4, DW_OP_plus_uconst 8, DW_OP_stack_value] $sp
	eors	r6, r1
	eors	r6, r3
	lsrs	r1, r5, #14
	movw	r2, #1020
	ands	r1, r2
	ldr	r0, __arm_cp.6_2
	ldr	r3, [r0, r1]
	eors	r3, r6
	ldr	r0, [sp, #28]                   @ 4-byte Reload
.Ltmp288:
	@DEBUG_VALUE: mbedtls_internal_aes_decrypt:X1 <- $r0
	lsrs	r1, r0, #24
	lsls	r1, r1, #2
	ldr	r0, __arm_cp.6_3
.Ltmp289:
	ldr	r1, [r0, r1]
	eors	r1, r3
.Ltmp290:
	@DEBUG_VALUE: mbedtls_internal_aes_decrypt:Y0 <- $r1
	.loc	2 975 9                         @ ../../../ThirdParty/mbedTLS/library/aes.c:975:9
	lsrs	r3, r1, #24
	lsls	r3, r3, #2
	ldr	r0, [r0, r3]
	eors	r0, r4
.Ltmp291:
	@DEBUG_VALUE: mbedtls_internal_aes_decrypt:X3 <- $r0
	str	r0, [sp, #36]                   @ 4-byte Spill
.Ltmp292:
	@DEBUG_VALUE: mbedtls_internal_aes_decrypt:X3 <- [DW_OP_plus_uconst 36] [$sp+0]
	@DEBUG_VALUE: mbedtls_internal_aes_decrypt:X3 <- [DW_OP_plus_uconst 36] [$sp+0]
	lsrs	r3, r7, #6
	ands	r3, r2
	movw	r5, #1020
.Ltmp293:
	.loc	2 0 9 is_stmt 0                 @ ../../../ThirdParty/mbedTLS/library/aes.c:0:9
	ldr	r0, __arm_cp.6_0
.Ltmp294:
	@DEBUG_VALUE: mbedtls_internal_aes_decrypt:X3 <- $r0
	.loc	2 975 9                         @ ../../../ThirdParty/mbedTLS/library/aes.c:975:9
	ldr	r3, [r0, r3]
	ldr	r2, [sp, #32]                   @ 4-byte Reload
.Ltmp295:
	@DEBUG_VALUE: mbedtls_internal_aes_decrypt:Y2 <- $r2
	uxtb	r4, r2
	lsls	r4, r4, #2
	ldr	r0, __arm_cp.6_1
.Ltmp296:
	@DEBUG_VALUE: mbedtls_internal_aes_decrypt:X3 <- $r0
	ldr	r4, [r0, r4]
.Ltmp297:
	@DEBUG_VALUE: mbedtls_internal_aes_decrypt:RK <- [DW_OP_plus_uconst 40, DW_OP_deref_size 4, DW_OP_plus_uconst 28, DW_OP_stack_value] $sp
	ldr	r0, [sp, #40]                   @ 4-byte Reload
.Ltmp298:
	@DEBUG_VALUE: mbedtls_internal_aes_decrypt:RK <- [DW_OP_plus_uconst 28, DW_OP_stack_value] $r0
	@DEBUG_VALUE: mbedtls_internal_aes_decrypt:X3 <- $r0
	ldr	r6, [r0, #24]
.Ltmp299:
	@DEBUG_VALUE: mbedtls_internal_aes_decrypt:RK <- [DW_OP_plus_uconst 40, DW_OP_deref_size 4, DW_OP_plus_uconst 28, DW_OP_stack_value] $sp
	eors	r6, r4
	eors	r6, r3
	lsrs	r3, r1, #14
	ands	r3, r5
	ldr	r0, __arm_cp.6_2
.Ltmp300:
	@DEBUG_VALUE: mbedtls_internal_aes_decrypt:X3 <- $r0
	ldr	r3, [r0, r3]
	eors	r3, r6
	ldr	r0, [sp, #20]                   @ 4-byte Reload
.Ltmp301:
	@DEBUG_VALUE: mbedtls_internal_aes_decrypt:Y3 <- $r0
	@DEBUG_VALUE: mbedtls_internal_aes_decrypt:X3 <- $r0
	lsrs	r4, r0, #24
	lsls	r4, r4, #2
	ldr	r5, __arm_cp.6_3
	ldr	r5, [r5, r4]
	eors	r5, r3
.Ltmp302:
	@DEBUG_VALUE: mbedtls_internal_aes_decrypt:X2 <- $r5
	lsrs	r3, r1, #6
	movw	r4, #1020
	ands	r3, r4
	ldr	r4, __arm_cp.6_0
	ldr	r3, [r4, r3]
	uxtb	r4, r7
	lsls	r4, r4, #2
	ldr	r6, __arm_cp.6_1
	ldr	r4, [r6, r4]
.Ltmp303:
	@DEBUG_VALUE: mbedtls_internal_aes_decrypt:RK <- [DW_OP_plus_uconst 40, DW_OP_deref_size 4, DW_OP_plus_uconst 24, DW_OP_stack_value] $sp
	ldr	r6, [sp, #40]                   @ 4-byte Reload
.Ltmp304:
	@DEBUG_VALUE: mbedtls_internal_aes_decrypt:RK <- [DW_OP_plus_uconst 24, DW_OP_stack_value] $r6
	ldr	r6, [r6, #20]
.Ltmp305:
	@DEBUG_VALUE: mbedtls_internal_aes_decrypt:RK <- [DW_OP_plus_uconst 40, DW_OP_deref_size 4, DW_OP_plus_uconst 24, DW_OP_stack_value] $sp
	eors	r6, r4
	eors	r6, r3
	lsrs	r3, r0, #14
	@DEBUG_VALUE: mbedtls_internal_aes_decrypt:Y3 <- $r0
	movw	r4, #1020
	ands	r3, r4
	ldr	r4, __arm_cp.6_2
	ldr	r3, [r4, r3]
	eors	r3, r6
	lsrs	r4, r2, #24
.Ltmp306:
	@DEBUG_VALUE: mbedtls_internal_aes_decrypt:Y2 <- [DW_OP_plus_uconst 32] [$sp+0]
	lsls	r4, r4, #2
	ldr	r2, __arm_cp.6_3
	ldr	r6, [r2, r4]
	@DEBUG_VALUE: mbedtls_internal_aes_decrypt:X2 <- $r5
.Ltmp307:
	@DEBUG_VALUE: mbedtls_internal_aes_decrypt:X3 <- [DW_OP_plus_uconst 36] [$sp+0]
	eors	r6, r3
.Ltmp308:
	@DEBUG_VALUE: mbedtls_internal_aes_decrypt:X1 <- $r6
	lsrs	r0, r0, #6
.Ltmp309:
	.loc	2 0 9                           @ ../../../ThirdParty/mbedTLS/library/aes.c:0:9
	movw	r4, #1020
	.loc	2 975 9                         @ ../../../ThirdParty/mbedTLS/library/aes.c:975:9
	ands	r0, r4
	ldr	r2, __arm_cp.6_0
	ldr	r0, [r2, r0]
	uxtb	r1, r1
.Ltmp310:
	lsls	r1, r1, #2
	ldr	r2, __arm_cp.6_1
	ldr	r1, [r2, r1]
.Ltmp311:
	@DEBUG_VALUE: mbedtls_internal_aes_decrypt:RK <- [DW_OP_plus_uconst 40, DW_OP_deref_size 4, DW_OP_plus_uconst 20, DW_OP_stack_value] $sp
	ldr	r2, [sp, #40]                   @ 4-byte Reload
.Ltmp312:
	@DEBUG_VALUE: mbedtls_internal_aes_decrypt:RK <- [DW_OP_plus_uconst 20, DW_OP_stack_value] $r2
	ldr	r3, [r2, #16]
.Ltmp313:
	@DEBUG_VALUE: mbedtls_internal_aes_decrypt:RK <- [DW_OP_plus_uconst 40, DW_OP_deref_size 4, DW_OP_plus_uconst 20, DW_OP_stack_value] $sp
	eors	r3, r1
	eors	r3, r0
	ldr	r0, [sp, #32]                   @ 4-byte Reload
.Ltmp314:
	@DEBUG_VALUE: mbedtls_internal_aes_decrypt:Y2 <- $r0
	lsrs	r0, r0, #14
.Ltmp315:
	ands	r0, r4
	ldr	r1, __arm_cp.6_2
	ldr	r0, [r1, r0]
	eors	r0, r3
	lsrs	r1, r7, #24
	ldr	r7, [sp, #40]                   @ 4-byte Reload
.Ltmp316:
	@DEBUG_VALUE: mbedtls_internal_aes_decrypt:RK <- [DW_OP_plus_uconst 20, DW_OP_stack_value] $r7
	lsls	r1, r1, #2
	ldr	r2, __arm_cp.6_3
	ldr	r1, [r2, r1]
	eors	r1, r0
.Ltmp317:
	@DEBUG_VALUE: mbedtls_internal_aes_decrypt:X0 <- $r1
	.loc	2 0 9                           @ ../../../ThirdParty/mbedTLS/library/aes.c:0:9
	ldr	r0, [sp, #24]                   @ 4-byte Reload
	.loc	2 975 9                         @ ../../../ThirdParty/mbedTLS/library/aes.c:975:9
	adds	r7, #32
.Ltmp318:
	@DEBUG_VALUE: mbedtls_internal_aes_decrypt:i <- [DW_OP_constu 1, DW_OP_minus, DW_OP_constu 1, DW_OP_minus, DW_OP_stack_value] undef
	@DEBUG_VALUE: mbedtls_internal_aes_decrypt:RK <- $r7
	.loc	2 972 38 is_stmt 1              @ ../../../ThirdParty/mbedTLS/library/aes.c:972:38
	subs	r0, r0, #1
.Ltmp319:
	.loc	2 972 5 is_stmt 0               @ ../../../ThirdParty/mbedTLS/library/aes.c:972:5
	cmp	r0, #2
	ble	.LBB6_3
	b	.LBB6_2
.Ltmp320:
.LBB6_3:
	@DEBUG_VALUE: mbedtls_internal_aes_decrypt:RK <- $r7
	@DEBUG_VALUE: mbedtls_internal_aes_decrypt:X1 <- $r6
	@DEBUG_VALUE: mbedtls_internal_aes_decrypt:X2 <- $r5
	@DEBUG_VALUE: mbedtls_internal_aes_decrypt:X0 <- $r1
	@DEBUG_VALUE: mbedtls_internal_aes_decrypt:X3 <- [DW_OP_plus_uconst 36] [$sp+0]
	@DEBUG_VALUE: mbedtls_internal_aes_decrypt:output <- [DW_OP_plus_uconst 8] [$sp+0]
	@DEBUG_VALUE: mbedtls_internal_aes_decrypt:ctx <- [DW_OP_LLVM_entry_value 1] $r0
	@DEBUG_VALUE: mbedtls_internal_aes_decrypt:input <- [DW_OP_LLVM_entry_value 1] $r1
	.loc	2 0 5                           @ ../../../ThirdParty/mbedTLS/library/aes.c:0:5
	str	r6, [sp, #28]                   @ 4-byte Spill
.Ltmp321:
	@DEBUG_VALUE: mbedtls_internal_aes_decrypt:X1 <- [DW_OP_plus_uconst 28] [$sp+0]
	@DEBUG_VALUE: mbedtls_internal_aes_decrypt:X1 <- [DW_OP_plus_uconst 28] [$sp+0]
.LBB6_4:
	@DEBUG_VALUE: mbedtls_internal_aes_decrypt:RK <- $r7
	@DEBUG_VALUE: mbedtls_internal_aes_decrypt:X2 <- $r5
	@DEBUG_VALUE: mbedtls_internal_aes_decrypt:X0 <- $r1
	@DEBUG_VALUE: mbedtls_internal_aes_decrypt:X3 <- [DW_OP_plus_uconst 36] [$sp+0]
	@DEBUG_VALUE: mbedtls_internal_aes_decrypt:output <- [DW_OP_plus_uconst 8] [$sp+0]
	@DEBUG_VALUE: mbedtls_internal_aes_decrypt:ctx <- [DW_OP_LLVM_entry_value 1] $r0
	@DEBUG_VALUE: mbedtls_internal_aes_decrypt:input <- [DW_OP_LLVM_entry_value 1] $r1
	@DEBUG_VALUE: mbedtls_internal_aes_decrypt:X3 <- [DW_OP_plus_uconst 36] [$sp+0]
	@DEBUG_VALUE: mbedtls_internal_aes_decrypt:RK <- $r7
	@DEBUG_VALUE: mbedtls_internal_aes_decrypt:X2 <- $r5
	@DEBUG_VALUE: mbedtls_internal_aes_decrypt:X2 <- $r5
	@DEBUG_VALUE: mbedtls_internal_aes_decrypt:X1 <- [DW_OP_plus_uconst 28] [$sp+0]
	@DEBUG_VALUE: mbedtls_internal_aes_decrypt:X0 <- $r1
	.loc	2 978 5 is_stmt 1               @ ../../../ThirdParty/mbedTLS/library/aes.c:978:5
	lsrs	r0, r5, #6
	movw	r2, #1020
	ands	r0, r2
	movw	r6, #1020
	ldr	r2, __arm_cp.6_0
	ldr	r0, [r2, r0]
	ldr	r2, [sp, #36]                   @ 4-byte Reload
.Ltmp322:
	@DEBUG_VALUE: mbedtls_internal_aes_decrypt:X3 <- undef
	uxtb	r2, r2
	lsls	r2, r2, #2
	ldr	r3, __arm_cp.6_1
	ldr	r2, [r3, r2]
.Ltmp323:
	@DEBUG_VALUE: mbedtls_internal_aes_decrypt:RK <- [DW_OP_plus_uconst 16, DW_OP_stack_value] $r7
	ldr	r3, [r7, #12]
	eors	r3, r2
	eors	r3, r0
	ldr	r0, [sp, #28]                   @ 4-byte Reload
.Ltmp324:
	@DEBUG_VALUE: mbedtls_internal_aes_decrypt:X1 <- undef
	lsrs	r0, r0, #14
.Ltmp325:
	@DEBUG_VALUE: mbedtls_internal_aes_decrypt:X1 <- [DW_OP_plus_uconst 28] [$sp+0]
	ands	r0, r6
	ldr	r2, __arm_cp.6_2
	ldr	r0, [r2, r0]
	eors	r0, r3
	lsrs	r2, r1, #24
	lsls	r2, r2, #2
	ldr	r3, __arm_cp.6_3
	ldr	r2, [r3, r2]
	eors	r2, r0
.Ltmp326:
	@DEBUG_VALUE: mbedtls_internal_aes_decrypt:Y3 <- $r2
	.loc	2 999 41                        @ ../../../ThirdParty/mbedTLS/library/aes.c:999:41
	str	r2, [sp, #32]                   @ 4-byte Spill
.Ltmp327:
	@DEBUG_VALUE: mbedtls_internal_aes_decrypt:Y3 <- [DW_OP_plus_uconst 32] [$sp+0]
	uxtb	r0, r2
.Ltmp328:
	@DEBUG_VALUE: mbedtls_internal_aes_decrypt:Y3 <- undef
	.loc	2 981 23                        @ ../../../ThirdParty/mbedTLS/library/aes.c:981:23
	ldr	r2, __arm_cp.6_4
	.loc	2 999 23                        @ ../../../ThirdParty/mbedTLS/library/aes.c:999:23
	ldrb	r3, [r2, r0]
.Ltmp329:
	@DEBUG_VALUE: mbedtls_internal_aes_decrypt:X2 <- undef
	@DEBUG_VALUE: mbedtls_internal_aes_decrypt:RK <- [DW_OP_plus_uconst 28, DW_OP_plus_uconst 4, DW_OP_stack_value] $r7
	.loc	2 998 10                        @ ../../../ThirdParty/mbedTLS/library/aes.c:998:10
	ldr	r0, [r7, #28]
.Ltmp330:
	.loc	2 1007 5                        @ ../../../ThirdParty/mbedTLS/library/aes.c:1007:5
	str	r0, [sp, #24]                   @ 4-byte Spill
	eors	r3, r0
.Ltmp331:
	@DEBUG_VALUE: mbedtls_internal_aes_decrypt:RK <- [DW_OP_plus_uconst 20, DW_OP_stack_value] $r7
	.loc	2 980 10                        @ ../../../ThirdParty/mbedTLS/library/aes.c:980:10
	ldr	r0, [r7, #16]
.Ltmp332:
	.loc	2 978 5                         @ ../../../ThirdParty/mbedTLS/library/aes.c:978:5
	str	r0, [sp, #16]                   @ 4-byte Spill
	ldr	r0, [r7]
.Ltmp333:
	@DEBUG_VALUE: mbedtls_internal_aes_decrypt:X0 <- undef
	@DEBUG_VALUE: mbedtls_internal_aes_decrypt:RK <- [DW_OP_plus_uconst 24, DW_OP_stack_value] $r7
	.loc	2 986 10                        @ ../../../ThirdParty/mbedTLS/library/aes.c:986:10
	str	r0, [sp, #4]                    @ 4-byte Spill
	ldr	r0, [r7, #20]
.Ltmp334:
	@DEBUG_VALUE: mbedtls_internal_aes_decrypt:RK <- [DW_OP_plus_uconst 8, DW_OP_stack_value] $r7
	.loc	2 978 5                         @ ../../../ThirdParty/mbedTLS/library/aes.c:978:5
	str	r0, [sp, #40]                   @ 4-byte Spill
	ldr	r0, [r7, #4]
.Ltmp335:
	@DEBUG_VALUE: mbedtls_internal_aes_decrypt:X1 <- undef
	@DEBUG_VALUE: mbedtls_internal_aes_decrypt:RK <- [DW_OP_plus_uconst 28, DW_OP_stack_value] $r7
	.loc	2 992 10                        @ ../../../ThirdParty/mbedTLS/library/aes.c:992:10
	str	r0, [sp]                        @ 4-byte Spill
	ldr	r6, [r7, #24]
.Ltmp336:
	@DEBUG_VALUE: mbedtls_internal_aes_decrypt:RK <- [DW_OP_plus_uconst 12, DW_OP_stack_value] $r7
	.loc	2 0 10 is_stmt 0                @ ../../../ThirdParty/mbedTLS/library/aes.c:0:10
	str	r6, [sp, #20]                   @ 4-byte Spill
.Ltmp337:
	@DEBUG_VALUE: mbedtls_internal_aes_decrypt:X3 <- [DW_OP_plus_uconst 36] [$sp+0]
	.loc	2 978 5 is_stmt 1               @ ../../../ThirdParty/mbedTLS/library/aes.c:978:5
	ldr	r4, [r7, #8]
.Ltmp338:
	.loc	2 1007 5                        @ ../../../ThirdParty/mbedTLS/library/aes.c:1007:5
	ldr	r0, [sp, #8]                    @ 4-byte Reload
	strb	r3, [r0, #12]
	ldr	r0, [sp, #28]                   @ 4-byte Reload
.Ltmp339:
	.loc	2 978 5                         @ ../../../ThirdParty/mbedTLS/library/aes.c:978:5
	lsrs	r3, r0, #6
	movw	r2, #1020
	ands	r3, r2
	ldr	r2, __arm_cp.6_0
	ldr	r3, [r2, r3]
	mov	r7, r5
.Ltmp340:
	uxtb	r5, r5
	lsls	r5, r5, #2
	ldr	r2, __arm_cp.6_1
	ldr	r5, [r2, r5]
	eors	r5, r4
	eors	r5, r3
	lsrs	r3, r1, #14
	movw	r2, #1020
	ands	r3, r2
	ldr	r2, __arm_cp.6_2
	ldr	r3, [r2, r3]
	eors	r3, r5
	ldr	r2, [sp, #36]                   @ 4-byte Reload
.Ltmp341:
	@DEBUG_VALUE: mbedtls_internal_aes_decrypt:X3 <- $r2
	lsrs	r4, r2, #24
	lsls	r4, r4, #2
	ldr	r5, __arm_cp.6_3
	ldr	r4, [r5, r4]
	eors	r4, r3
.Ltmp342:
	@DEBUG_VALUE: mbedtls_internal_aes_decrypt:Y2 <- $r4
	.loc	2 993 41                        @ ../../../ThirdParty/mbedTLS/library/aes.c:993:41
	str	r4, [sp, #12]                   @ 4-byte Spill
.Ltmp343:
	@DEBUG_VALUE: mbedtls_internal_aes_decrypt:Y2 <- [DW_OP_plus_uconst 12] [$sp+0]
	uxtb	r3, r4
	@DEBUG_VALUE: mbedtls_internal_aes_decrypt:Y2 <- [DW_OP_plus_uconst 12] [$sp+0]
	.loc	2 993 23 is_stmt 0              @ ../../../ThirdParty/mbedTLS/library/aes.c:993:23
	ldr	r4, __arm_cp.6_4
	ldrb	r3, [r4, r3]
.Ltmp344:
	.loc	2 1006 5 is_stmt 1              @ ../../../ThirdParty/mbedTLS/library/aes.c:1006:5
	eors	r3, r6
	ldr	r5, [sp, #8]                    @ 4-byte Reload
	strb	r3, [r5, #8]
.Ltmp345:
	.loc	2 978 5                         @ ../../../ThirdParty/mbedTLS/library/aes.c:978:5
	lsrs	r3, r1, #6
	movw	r4, #1020
	ands	r3, r4
	ldr	r4, __arm_cp.6_0
	ldr	r3, [r4, r3]
	uxtb	r4, r0
	lsls	r4, r4, #2
	ldr	r0, __arm_cp.6_1
	ldr	r4, [r0, r4]
	ldr	r0, [sp]                        @ 4-byte Reload
	eors	r4, r0
	eors	r4, r3
	lsrs	r0, r2, #14
	mov	r6, r2
.Ltmp346:
	@DEBUG_VALUE: mbedtls_internal_aes_decrypt:X3 <- $r6
	@DEBUG_VALUE: mbedtls_internal_aes_decrypt:X3 <- $r6
	movw	r2, #1020
	ands	r0, r2
	ldr	r2, __arm_cp.6_2
	ldr	r3, [r2, r0]
	eors	r3, r4
	lsrs	r0, r7, #24
	lsls	r0, r0, #2
	ldr	r2, __arm_cp.6_3
	ldr	r2, [r2, r0]
	eors	r2, r3
.Ltmp347:
	@DEBUG_VALUE: mbedtls_internal_aes_decrypt:Y1 <- $r2
	.loc	2 987 41                        @ ../../../ThirdParty/mbedTLS/library/aes.c:987:41
	uxtb	r3, r2
	ldr	r0, __arm_cp.6_4
	.loc	2 987 23 is_stmt 0              @ ../../../ThirdParty/mbedTLS/library/aes.c:987:23
	ldrb	r3, [r0, r3]
.Ltmp348:
	.loc	2 1005 5 is_stmt 1              @ ../../../ThirdParty/mbedTLS/library/aes.c:1005:5
	ldr	r0, [sp, #40]                   @ 4-byte Reload
	eors	r3, r0
	strb	r3, [r5, #4]
	mov	r0, r5
.Ltmp349:
	.loc	2 978 5                         @ ../../../ThirdParty/mbedTLS/library/aes.c:978:5
	lsrs	r3, r6, #6
	movw	r5, #1020
	ands	r3, r5
	ldr	r4, __arm_cp.6_0
	ldr	r3, [r4, r3]
	uxtb	r1, r1
	lsls	r1, r1, #2
	ldr	r4, __arm_cp.6_1
	ldr	r1, [r4, r1]
	ldr	r4, [sp, #4]                    @ 4-byte Reload
	eors	r1, r4
	eors	r1, r3
	lsrs	r3, r7, #14
	ands	r3, r5
	ldr	r4, __arm_cp.6_2
	ldr	r3, [r4, r3]
	eors	r3, r1
	ldr	r1, [sp, #28]                   @ 4-byte Reload
	lsrs	r1, r1, #24
	lsls	r1, r1, #2
	ldr	r4, __arm_cp.6_3
	ldr	r1, [r4, r1]
	eors	r1, r3
.Ltmp350:
	@DEBUG_VALUE: mbedtls_internal_aes_decrypt:Y0 <- $r1
	.loc	2 981 41                        @ ../../../ThirdParty/mbedTLS/library/aes.c:981:41
	uxtb	r3, r1
	ldr	r7, __arm_cp.6_4
	.loc	2 981 23 is_stmt 0              @ ../../../ThirdParty/mbedTLS/library/aes.c:981:23
	ldrb	r3, [r7, r3]
.Ltmp351:
	@DEBUG_VALUE: mbedtls_internal_aes_decrypt:X3 <- undef
	.loc	2 0 23                          @ ../../../ThirdParty/mbedTLS/library/aes.c:0:23
	mov	r6, r0
	ldr	r0, [sp, #16]                   @ 4-byte Reload
.Ltmp352:
	.loc	2 1004 5 is_stmt 1              @ ../../../ThirdParty/mbedTLS/library/aes.c:1004:5
	eors	r3, r0
	strb	r3, [r6]
.Ltmp353:
	.loc	2 1002 33                       @ ../../../ThirdParty/mbedTLS/library/aes.c:1002:33
	lsrs	r3, r1, #24
	.loc	2 1002 12 is_stmt 0             @ ../../../ThirdParty/mbedTLS/library/aes.c:1002:12
	ldrb	r3, [r7, r3]
	.loc	2 1002 50                       @ ../../../ThirdParty/mbedTLS/library/aes.c:1002:50
	lsls	r3, r3, #24
	.loc	2 1001 58 is_stmt 1             @ ../../../ThirdParty/mbedTLS/library/aes.c:1001:58
	ldr	r4, [sp, #24]                   @ 4-byte Reload
	eors	r3, r4
.Ltmp354:
	.loc	2 1007 5                        @ ../../../ThirdParty/mbedTLS/library/aes.c:1007:5
	lsrs	r3, r3, #24
	strb	r3, [r6, #15]
.Ltmp355:
	@DEBUG_VALUE: mbedtls_internal_aes_decrypt:Y3 <- [DW_OP_plus_uconst 32] [$sp+0]
	.loc	2 996 33                        @ ../../../ThirdParty/mbedTLS/library/aes.c:996:33
	ldr	r3, [sp, #32]                   @ 4-byte Reload
.Ltmp356:
	@DEBUG_VALUE: mbedtls_internal_aes_decrypt:Y3 <- $r3
	lsrs	r3, r3, #24
.Ltmp357:
	@DEBUG_VALUE: mbedtls_internal_aes_decrypt:Y3 <- [DW_OP_plus_uconst 32] [$sp+0]
	.loc	2 996 12 is_stmt 0              @ ../../../ThirdParty/mbedTLS/library/aes.c:996:12
	ldrb	r3, [r7, r3]
	.loc	2 996 50                        @ ../../../ThirdParty/mbedTLS/library/aes.c:996:50
	lsls	r3, r3, #24
	.loc	2 995 58 is_stmt 1              @ ../../../ThirdParty/mbedTLS/library/aes.c:995:58
	ldr	r4, [sp, #20]                   @ 4-byte Reload
	eors	r3, r4
.Ltmp358:
	.loc	2 1006 5                        @ ../../../ThirdParty/mbedTLS/library/aes.c:1006:5
	lsrs	r3, r3, #24
	strb	r3, [r6, #11]
	ldr	r4, [sp, #12]                   @ 4-byte Reload
.Ltmp359:
	@DEBUG_VALUE: mbedtls_internal_aes_decrypt:Y2 <- $r4
	.loc	2 990 33                        @ ../../../ThirdParty/mbedTLS/library/aes.c:990:33
	lsrs	r3, r4, #24
	.loc	2 990 12 is_stmt 0              @ ../../../ThirdParty/mbedTLS/library/aes.c:990:12
	ldrb	r3, [r7, r3]
	.loc	2 990 50                        @ ../../../ThirdParty/mbedTLS/library/aes.c:990:50
	lsls	r3, r3, #24
	.loc	2 989 58 is_stmt 1              @ ../../../ThirdParty/mbedTLS/library/aes.c:989:58
	ldr	r5, [sp, #40]                   @ 4-byte Reload
	eors	r3, r5
.Ltmp360:
	.loc	2 1005 5                        @ ../../../ThirdParty/mbedTLS/library/aes.c:1005:5
	lsrs	r3, r3, #24
	strb	r3, [r6, #7]
.Ltmp361:
	.loc	2 984 33                        @ ../../../ThirdParty/mbedTLS/library/aes.c:984:33
	lsrs	r3, r2, #24
	.loc	2 984 12 is_stmt 0              @ ../../../ThirdParty/mbedTLS/library/aes.c:984:12
	ldrb	r3, [r7, r3]
	.loc	2 984 50                        @ ../../../ThirdParty/mbedTLS/library/aes.c:984:50
	lsls	r3, r3, #24
	.loc	2 983 58 is_stmt 1              @ ../../../ThirdParty/mbedTLS/library/aes.c:983:58
	eors	r3, r0
.Ltmp362:
	.loc	2 1004 5                        @ ../../../ThirdParty/mbedTLS/library/aes.c:1004:5
	lsrs	r3, r3, #24
	strb	r3, [r6, #3]
.Ltmp363:
	.loc	2 1001 33                       @ ../../../ThirdParty/mbedTLS/library/aes.c:1001:33
	lsrs	r3, r2, #16
	.loc	2 1001 41 is_stmt 0             @ ../../../ThirdParty/mbedTLS/library/aes.c:1001:41
	uxtb	r3, r3
	.loc	2 1001 12                       @ ../../../ThirdParty/mbedTLS/library/aes.c:1001:12
	ldrb	r3, [r7, r3]
	.loc	2 1001 50                       @ ../../../ThirdParty/mbedTLS/library/aes.c:1001:50
	lsls	r3, r3, #16
	ldr	r0, [sp, #24]                   @ 4-byte Reload
	.loc	2 1000 58 is_stmt 1             @ ../../../ThirdParty/mbedTLS/library/aes.c:1000:58
	eors	r3, r0
.Ltmp364:
	.loc	2 1007 5                        @ ../../../ThirdParty/mbedTLS/library/aes.c:1007:5
	lsrs	r3, r3, #16
	strb	r3, [r6, #14]
.Ltmp365:
	.loc	2 1000 33                       @ ../../../ThirdParty/mbedTLS/library/aes.c:1000:33
	lsrs	r3, r4, #8
	@DEBUG_VALUE: mbedtls_internal_aes_decrypt:Y2 <- $r4
	.loc	2 1000 41 is_stmt 0             @ ../../../ThirdParty/mbedTLS/library/aes.c:1000:41
	uxtb	r3, r3
	.loc	2 1000 12                       @ ../../../ThirdParty/mbedTLS/library/aes.c:1000:12
	ldrb	r3, [r7, r3]
	.loc	2 1000 50                       @ ../../../ThirdParty/mbedTLS/library/aes.c:1000:50
	lsls	r3, r3, #8
	.loc	2 999 58 is_stmt 1              @ ../../../ThirdParty/mbedTLS/library/aes.c:999:58
	eors	r3, r0
.Ltmp366:
	.loc	2 1007 5                        @ ../../../ThirdParty/mbedTLS/library/aes.c:1007:5
	lsrs	r3, r3, #8
	strb	r3, [r6, #13]
.Ltmp367:
	.loc	2 995 33                        @ ../../../ThirdParty/mbedTLS/library/aes.c:995:33
	lsrs	r3, r1, #16
	.loc	2 995 41 is_stmt 0              @ ../../../ThirdParty/mbedTLS/library/aes.c:995:41
	uxtb	r3, r3
	.loc	2 995 12                        @ ../../../ThirdParty/mbedTLS/library/aes.c:995:12
	ldrb	r3, [r7, r3]
	.loc	2 995 50                        @ ../../../ThirdParty/mbedTLS/library/aes.c:995:50
	lsls	r3, r3, #16
	ldr	r5, [sp, #20]                   @ 4-byte Reload
	.loc	2 994 58 is_stmt 1              @ ../../../ThirdParty/mbedTLS/library/aes.c:994:58
	eors	r3, r5
.Ltmp368:
	.loc	2 1006 5                        @ ../../../ThirdParty/mbedTLS/library/aes.c:1006:5
	lsrs	r3, r3, #16
	strb	r3, [r6, #10]
.Ltmp369:
	.loc	2 994 33                        @ ../../../ThirdParty/mbedTLS/library/aes.c:994:33
	lsrs	r0, r2, #8
	.loc	2 994 41 is_stmt 0              @ ../../../ThirdParty/mbedTLS/library/aes.c:994:41
	uxtb	r0, r0
	mov	r2, r7
.Ltmp370:
	.loc	2 994 12                        @ ../../../ThirdParty/mbedTLS/library/aes.c:994:12
	ldrb	r0, [r7, r0]
	.loc	2 994 50                        @ ../../../ThirdParty/mbedTLS/library/aes.c:994:50
	lsls	r0, r0, #8
	.loc	2 993 58 is_stmt 1              @ ../../../ThirdParty/mbedTLS/library/aes.c:993:58
	eors	r0, r5
.Ltmp371:
	.loc	2 1006 5                        @ ../../../ThirdParty/mbedTLS/library/aes.c:1006:5
	lsrs	r0, r0, #8
	strb	r0, [r6, #9]
	ldr	r3, [sp, #32]                   @ 4-byte Reload
.Ltmp372:
	@DEBUG_VALUE: mbedtls_internal_aes_decrypt:Y3 <- $r3
	.loc	2 989 33                        @ ../../../ThirdParty/mbedTLS/library/aes.c:989:33
	lsrs	r0, r3, #16
	.loc	2 989 41 is_stmt 0              @ ../../../ThirdParty/mbedTLS/library/aes.c:989:41
	uxtb	r0, r0
	.loc	2 989 12                        @ ../../../ThirdParty/mbedTLS/library/aes.c:989:12
	ldrb	r0, [r7, r0]
	.loc	2 989 50                        @ ../../../ThirdParty/mbedTLS/library/aes.c:989:50
	lsls	r0, r0, #16
	ldr	r7, [sp, #40]                   @ 4-byte Reload
	.loc	2 988 58 is_stmt 1              @ ../../../ThirdParty/mbedTLS/library/aes.c:988:58
	eors	r0, r7
.Ltmp373:
	.loc	2 1005 5                        @ ../../../ThirdParty/mbedTLS/library/aes.c:1005:5
	lsrs	r0, r0, #16
	strb	r0, [r6, #6]
.Ltmp374:
	.loc	2 988 33                        @ ../../../ThirdParty/mbedTLS/library/aes.c:988:33
	lsrs	r0, r1, #8
	.loc	2 988 41 is_stmt 0              @ ../../../ThirdParty/mbedTLS/library/aes.c:988:41
	uxtb	r0, r0
	.loc	2 988 12                        @ ../../../ThirdParty/mbedTLS/library/aes.c:988:12
	ldrb	r0, [r2, r0]
	.loc	2 988 50                        @ ../../../ThirdParty/mbedTLS/library/aes.c:988:50
	lsls	r0, r0, #8
	.loc	2 987 58 is_stmt 1              @ ../../../ThirdParty/mbedTLS/library/aes.c:987:58
	eors	r0, r7
.Ltmp375:
	.loc	2 1005 5                        @ ../../../ThirdParty/mbedTLS/library/aes.c:1005:5
	lsrs	r0, r0, #8
	strb	r0, [r6, #5]
.Ltmp376:
	.loc	2 983 33                        @ ../../../ThirdParty/mbedTLS/library/aes.c:983:33
	lsrs	r0, r4, #16
	.loc	2 983 41 is_stmt 0              @ ../../../ThirdParty/mbedTLS/library/aes.c:983:41
	uxtb	r0, r0
	.loc	2 983 12                        @ ../../../ThirdParty/mbedTLS/library/aes.c:983:12
	ldrb	r0, [r2, r0]
	.loc	2 983 50                        @ ../../../ThirdParty/mbedTLS/library/aes.c:983:50
	lsls	r0, r0, #16
	ldr	r1, [sp, #16]                   @ 4-byte Reload
.Ltmp377:
	.loc	2 982 58 is_stmt 1              @ ../../../ThirdParty/mbedTLS/library/aes.c:982:58
	eors	r0, r1
.Ltmp378:
	.loc	2 1004 5                        @ ../../../ThirdParty/mbedTLS/library/aes.c:1004:5
	lsrs	r0, r0, #16
	strb	r0, [r6, #2]
.Ltmp379:
	.loc	2 982 33                        @ ../../../ThirdParty/mbedTLS/library/aes.c:982:33
	lsrs	r0, r3, #8
	.loc	2 982 41 is_stmt 0              @ ../../../ThirdParty/mbedTLS/library/aes.c:982:41
	uxtb	r0, r0
	.loc	2 982 12                        @ ../../../ThirdParty/mbedTLS/library/aes.c:982:12
	ldrb	r0, [r2, r0]
	.loc	2 982 50                        @ ../../../ThirdParty/mbedTLS/library/aes.c:982:50
	lsls	r0, r0, #8
	.loc	2 981 58 is_stmt 1              @ ../../../ThirdParty/mbedTLS/library/aes.c:981:58
	eors	r0, r1
.Ltmp380:
	.loc	2 1004 5                        @ ../../../ThirdParty/mbedTLS/library/aes.c:1004:5
	lsrs	r0, r0, #8
	strb	r0, [r6, #1]
	movs	r0, #0
.Ltmp381:
	.loc	2 1009 5                        @ ../../../ThirdParty/mbedTLS/library/aes.c:1009:5
	add	sp, #44
.Ltmp382:
	pop	{r4, r5, r6, r7, pc}
.Ltmp383:
	.p2align	2
@ %bb.5:
	.loc	2 0 5 is_stmt 0                 @ ../../../ThirdParty/mbedTLS/library/aes.c:0:5
__arm_cp.6_0:
	.long	RT1
.Lcpi_end12:
	.size	__arm_cp.6_0, .Lcpi_end12-__arm_cp.6_0
__arm_cp.6_1:
	.long	RT0
.Lcpi_end13:
	.size	__arm_cp.6_1, .Lcpi_end13-__arm_cp.6_1
__arm_cp.6_2:
	.long	RT2
.Lcpi_end14:
	.size	__arm_cp.6_2, .Lcpi_end14-__arm_cp.6_2
__arm_cp.6_3:
	.long	RT3
.Lcpi_end15:
	.size	__arm_cp.6_3, .Lcpi_end15-__arm_cp.6_3
__arm_cp.6_4:
	.long	RSb
.Lcpi_end16:
	.size	__arm_cp.6_4, .Lcpi_end16-__arm_cp.6_4
.Lfunc_end6:
	.size	mbedtls_internal_aes_decrypt, .Lfunc_end6-mbedtls_internal_aes_decrypt
	.cfi_endproc
	.cantunwind
	.fnend
                                        @ -- End function
	.section	.text.mbedtls_aes_decrypt,"ax",%progbits
	.hidden	mbedtls_aes_decrypt             @ -- Begin function mbedtls_aes_decrypt
	.globl	mbedtls_aes_decrypt
	.p2align	1
	.type	mbedtls_aes_decrypt,%function
	.code	16                              @ @mbedtls_aes_decrypt
	.thumb_func
mbedtls_aes_decrypt:
.Lfunc_begin7:
	.loc	2 1017 0 is_stmt 1              @ ../../../ThirdParty/mbedTLS/library/aes.c:1017:0
	.fnstart
	.cfi_startproc
@ %bb.0:
	@DEBUG_VALUE: mbedtls_aes_decrypt:ctx <- $r0
	@DEBUG_VALUE: mbedtls_aes_decrypt:ctx <- $r0
	@DEBUG_VALUE: mbedtls_aes_decrypt:input <- $r1
	@DEBUG_VALUE: mbedtls_aes_decrypt:input <- $r1
	@DEBUG_VALUE: mbedtls_aes_decrypt:output <- $r2
	@DEBUG_VALUE: mbedtls_aes_decrypt:output <- $r2
	@DEBUG_VALUE: mbedtls_aes_decrypt:output <- $r2
	@DEBUG_VALUE: mbedtls_aes_decrypt:input <- $r1
	@DEBUG_VALUE: mbedtls_aes_decrypt:ctx <- $r0
	.save	{r7, lr}
	push	{r7, lr}
	.cfi_def_cfa_offset 8
	.cfi_offset lr, -4
	.cfi_offset r7, -8
.Ltmp384:
	.loc	2 1018 5 prologue_end           @ ../../../ThirdParty/mbedTLS/library/aes.c:1018:5
	bl	mbedtls_internal_aes_decrypt
.Ltmp385:
	@DEBUG_VALUE: mbedtls_aes_decrypt:output <- [DW_OP_LLVM_entry_value 1] $r2
	@DEBUG_VALUE: mbedtls_aes_decrypt:input <- [DW_OP_LLVM_entry_value 1] $r1
	@DEBUG_VALUE: mbedtls_aes_decrypt:ctx <- [DW_OP_LLVM_entry_value 1] $r0
	.loc	2 1019 1                        @ ../../../ThirdParty/mbedTLS/library/aes.c:1019:1
	pop	{r7, pc}
.Ltmp386:
.Lfunc_end7:
	.size	mbedtls_aes_decrypt, .Lfunc_end7-mbedtls_aes_decrypt
	.cfi_endproc
	.cantunwind
	.fnend
                                        @ -- End function
	.section	.text.mbedtls_aes_crypt_ecb,"ax",%progbits
	.hidden	mbedtls_aes_crypt_ecb           @ -- Begin function mbedtls_aes_crypt_ecb
	.globl	mbedtls_aes_crypt_ecb
	.p2align	1
	.type	mbedtls_aes_crypt_ecb,%function
	.code	16                              @ @mbedtls_aes_crypt_ecb
	.thumb_func
mbedtls_aes_crypt_ecb:
.Lfunc_begin8:
	.loc	2 1029 0                        @ ../../../ThirdParty/mbedTLS/library/aes.c:1029:0
	.fnstart
	.cfi_startproc
@ %bb.0:
	@DEBUG_VALUE: mbedtls_aes_crypt_ecb:ctx <- $r0
	@DEBUG_VALUE: mbedtls_aes_crypt_ecb:ctx <- $r0
	@DEBUG_VALUE: mbedtls_aes_crypt_ecb:mode <- $r1
	@DEBUG_VALUE: mbedtls_aes_crypt_ecb:mode <- $r1
	@DEBUG_VALUE: mbedtls_aes_crypt_ecb:input <- $r2
	@DEBUG_VALUE: mbedtls_aes_crypt_ecb:input <- $r2
	@DEBUG_VALUE: mbedtls_aes_crypt_ecb:output <- $r3
	@DEBUG_VALUE: mbedtls_aes_crypt_ecb:output <- $r3
	.save	{r7, lr}
	push	{r7, lr}
	.cfi_def_cfa_offset 8
	.cfi_offset lr, -4
	.cfi_offset r7, -8
.Ltmp387:
	.loc	2 1053 9 prologue_end           @ ../../../ThirdParty/mbedTLS/library/aes.c:1053:9
	cmp	r1, #1
	bne	.LBB8_2
.Ltmp388:
@ %bb.1:
	@DEBUG_VALUE: mbedtls_aes_crypt_ecb:output <- $r3
	@DEBUG_VALUE: mbedtls_aes_crypt_ecb:input <- $r2
	@DEBUG_VALUE: mbedtls_aes_crypt_ecb:mode <- $r1
	@DEBUG_VALUE: mbedtls_aes_crypt_ecb:ctx <- $r0
	.loc	2 1054 17                       @ ../../../ThirdParty/mbedTLS/library/aes.c:1054:17
	mov	r1, r2
.Ltmp389:
	@DEBUG_VALUE: mbedtls_aes_crypt_ecb:mode <- [DW_OP_LLVM_entry_value 1] $r1
	mov	r2, r3
.Ltmp390:
	@DEBUG_VALUE: mbedtls_aes_crypt_ecb:input <- [DW_OP_LLVM_entry_value 1] $r2
	bl	mbedtls_internal_aes_encrypt
.Ltmp391:
	@DEBUG_VALUE: mbedtls_aes_crypt_ecb:output <- [DW_OP_LLVM_entry_value 1] $r3
	@DEBUG_VALUE: mbedtls_aes_crypt_ecb:ctx <- [DW_OP_LLVM_entry_value 1] $r0
	.loc	2 0 17 is_stmt 0                @ ../../../ThirdParty/mbedTLS/library/aes.c:0:17
	movs	r0, #0
.Ltmp392:
	.loc	2 1057 1 is_stmt 1              @ ../../../ThirdParty/mbedTLS/library/aes.c:1057:1
	pop	{r7, pc}
.Ltmp393:
.LBB8_2:
	@DEBUG_VALUE: mbedtls_aes_crypt_ecb:output <- $r3
	@DEBUG_VALUE: mbedtls_aes_crypt_ecb:input <- $r2
	@DEBUG_VALUE: mbedtls_aes_crypt_ecb:mode <- $r1
	@DEBUG_VALUE: mbedtls_aes_crypt_ecb:ctx <- $r0
	.loc	2 1056 17                       @ ../../../ThirdParty/mbedTLS/library/aes.c:1056:17
	mov	r1, r2
.Ltmp394:
	@DEBUG_VALUE: mbedtls_aes_crypt_ecb:mode <- [DW_OP_LLVM_entry_value 1] $r1
	mov	r2, r3
.Ltmp395:
	@DEBUG_VALUE: mbedtls_aes_crypt_ecb:input <- [DW_OP_LLVM_entry_value 1] $r2
	bl	mbedtls_internal_aes_decrypt
.Ltmp396:
	@DEBUG_VALUE: mbedtls_aes_crypt_ecb:output <- [DW_OP_LLVM_entry_value 1] $r3
	@DEBUG_VALUE: mbedtls_aes_crypt_ecb:ctx <- [DW_OP_LLVM_entry_value 1] $r0
	.loc	2 0 17 is_stmt 0                @ ../../../ThirdParty/mbedTLS/library/aes.c:0:17
	movs	r0, #0
.Ltmp397:
	.loc	2 1057 1 is_stmt 1              @ ../../../ThirdParty/mbedTLS/library/aes.c:1057:1
	pop	{r7, pc}
.Ltmp398:
.Lfunc_end8:
	.size	mbedtls_aes_crypt_ecb, .Lfunc_end8-mbedtls_aes_crypt_ecb
	.cfi_endproc
	.cantunwind
	.fnend
                                        @ -- End function
	.section	.text.mbedtls_aes_crypt_cbc,"ax",%progbits
	.hidden	mbedtls_aes_crypt_cbc           @ -- Begin function mbedtls_aes_crypt_cbc
	.globl	mbedtls_aes_crypt_cbc
	.p2align	1
	.type	mbedtls_aes_crypt_cbc,%function
	.code	16                              @ @mbedtls_aes_crypt_cbc
	.thumb_func
mbedtls_aes_crypt_cbc:
.Lfunc_begin9:
	.loc	2 1069 0                        @ ../../../ThirdParty/mbedTLS/library/aes.c:1069:0
	.fnstart
	.cfi_startproc
@ %bb.0:
	@DEBUG_VALUE: mbedtls_aes_crypt_cbc:ctx <- $r0
	@DEBUG_VALUE: mbedtls_aes_crypt_cbc:mode <- $r1
	@DEBUG_VALUE: mbedtls_aes_crypt_cbc:length <- $r2
	@DEBUG_VALUE: mbedtls_aes_crypt_cbc:iv <- $r3
	.save	{r4, r5, r6, r7, lr}
	push	{r4, r5, r6, r7, lr}
	.cfi_def_cfa_offset 20
	.cfi_offset lr, -4
	.cfi_offset r7, -8
	.cfi_offset r6, -12
	.cfi_offset r5, -16
	.cfi_offset r4, -20
	.pad	#36
	sub	sp, #36
	.cfi_def_cfa_offset 56
	mov	r4, r3
	mov	r3, r1
.Ltmp399:
	@DEBUG_VALUE: mbedtls_aes_crypt_cbc:iv <- [DW_OP_LLVM_entry_value 1] $r3
	@DEBUG_VALUE: mbedtls_aes_crypt_cbc:output <- [DW_OP_plus_uconst 60] [$sp+0]
	@DEBUG_VALUE: mbedtls_aes_crypt_cbc:input <- [DW_OP_plus_uconst 56] [$sp+0]
	@DEBUG_VALUE: mbedtls_aes_crypt_cbc:iv <- $r4
	@DEBUG_VALUE: mbedtls_aes_crypt_cbc:length <- $r2
	@DEBUG_VALUE: mbedtls_aes_crypt_cbc:mode <- $r3
	@DEBUG_VALUE: mbedtls_aes_crypt_cbc:ctx <- $r0
	.loc	2 1080 9 prologue_end           @ ../../../ThirdParty/mbedTLS/library/aes.c:1080:9
	lsls	r1, r2, #28
	beq	.LBB9_2
.Ltmp400:
@ %bb.1:
	@DEBUG_VALUE: mbedtls_aes_crypt_cbc:iv <- $r4
	@DEBUG_VALUE: mbedtls_aes_crypt_cbc:mode <- $r3
	@DEBUG_VALUE: mbedtls_aes_crypt_cbc:length <- $r2
	@DEBUG_VALUE: mbedtls_aes_crypt_cbc:ctx <- $r0
	@DEBUG_VALUE: mbedtls_aes_crypt_cbc:input <- [DW_OP_plus_uconst 56] [$sp+0]
	@DEBUG_VALUE: mbedtls_aes_crypt_cbc:output <- [DW_OP_plus_uconst 60] [$sp+0]
	.loc	2 0 9 is_stmt 0                 @ ../../../ThirdParty/mbedTLS/library/aes.c:0:9
	movs	r0, #33
.Ltmp401:
	@DEBUG_VALUE: mbedtls_aes_crypt_cbc:ctx <- [DW_OP_LLVM_entry_value 1] $r0
	mvns	r0, r0
	.loc	2 1129 1 is_stmt 1              @ ../../../ThirdParty/mbedTLS/library/aes.c:1129:1
	add	sp, #36
.Ltmp402:
	pop	{r4, r5, r6, r7, pc}
.Ltmp403:
.LBB9_2:
	@DEBUG_VALUE: mbedtls_aes_crypt_cbc:iv <- $r4
	@DEBUG_VALUE: mbedtls_aes_crypt_cbc:mode <- $r3
	@DEBUG_VALUE: mbedtls_aes_crypt_cbc:length <- $r2
	@DEBUG_VALUE: mbedtls_aes_crypt_cbc:ctx <- $r0
	@DEBUG_VALUE: mbedtls_aes_crypt_cbc:input <- [DW_OP_plus_uconst 56] [$sp+0]
	@DEBUG_VALUE: mbedtls_aes_crypt_cbc:output <- [DW_OP_plus_uconst 60] [$sp+0]
	.loc	2 0 1 is_stmt 0                 @ ../../../ThirdParty/mbedTLS/library/aes.c:0:1
	mov	r5, r2
.Ltmp404:
	@DEBUG_VALUE: mbedtls_aes_crypt_cbc:length <- $r5
	ldr	r6, [sp, #60]
	ldr	r7, [sp, #56]
.Ltmp405:
	@DEBUG_VALUE: mbedtls_aes_crypt_cbc:output <- undef
	@DEBUG_VALUE: mbedtls_aes_crypt_cbc:input <- undef
	@DEBUG_VALUE: mbedtls_aes_crypt_cbc:length <- undef
	@DEBUG_VALUE: mbedtls_aes_crypt_cbc:output <- undef
	@DEBUG_VALUE: mbedtls_aes_crypt_cbc:input <- undef
	@DEBUG_VALUE: mbedtls_aes_crypt_cbc:length <- undef
	str	r3, [sp, #16]                   @ 4-byte Spill
	.loc	2 1095 9 is_stmt 1              @ ../../../ThirdParty/mbedTLS/library/aes.c:1095:9
	cbz	r3, .LBB9_8
.Ltmp406:
@ %bb.3:
	@DEBUG_VALUE: mbedtls_aes_crypt_cbc:iv <- $r4
	@DEBUG_VALUE: mbedtls_aes_crypt_cbc:mode <- $r3
	@DEBUG_VALUE: mbedtls_aes_crypt_cbc:ctx <- $r0
	.loc	2 1114 9                        @ ../../../ThirdParty/mbedTLS/library/aes.c:1114:9
	cmp	r5, #0
	beq	.LBB9_14
.Ltmp407:
@ %bb.4:
	@DEBUG_VALUE: mbedtls_aes_crypt_cbc:iv <- $r4
	@DEBUG_VALUE: mbedtls_aes_crypt_cbc:mode <- $r3
	@DEBUG_VALUE: mbedtls_aes_crypt_cbc:ctx <- $r0
	.loc	2 0 9 is_stmt 0                 @ ../../../ThirdParty/mbedTLS/library/aes.c:0:9
	str	r0, [sp, #8]                    @ 4-byte Spill
.Ltmp408:
	@DEBUG_VALUE: mbedtls_aes_crypt_cbc:ctx <- [DW_OP_plus_uconst 8] [$sp+0]
	movs	r0, #0
	movs	r1, #16
	str	r1, [sp, #4]                    @ 4-byte Spill
	str	r0, [sp, #12]                   @ 4-byte Spill
.Ltmp409:
	@DEBUG_VALUE: mbedtls_aes_crypt_cbc:length <- $r5
	@DEBUG_VALUE: mbedtls_aes_crypt_cbc:input <- $r7
	@DEBUG_VALUE: mbedtls_aes_crypt_cbc:output <- $r6
	@DEBUG_VALUE: mbedtls_aes_crypt_cbc:i <- 0
.LBB9_5:                                @ =>This Inner Loop Header: Depth=1
	@DEBUG_VALUE: mbedtls_aes_crypt_cbc:input <- $r7
	@DEBUG_VALUE: mbedtls_aes_crypt_cbc:output <- $r6
	@DEBUG_VALUE: mbedtls_aes_crypt_cbc:length <- $r5
	@DEBUG_VALUE: mbedtls_aes_crypt_cbc:iv <- $r4
	@DEBUG_VALUE: mbedtls_aes_crypt_cbc:i <- $r0
	.loc	2 1117 46 is_stmt 1             @ ../../../ThirdParty/mbedTLS/library/aes.c:1117:46
	ldrb	r1, [r7, r0]
	.loc	2 1117 57 is_stmt 0             @ ../../../ThirdParty/mbedTLS/library/aes.c:1117:57
	ldrb	r2, [r4, r0]
	.loc	2 1117 55                       @ ../../../ThirdParty/mbedTLS/library/aes.c:1117:55
	eors	r2, r1
	.loc	2 1117 27                       @ ../../../ThirdParty/mbedTLS/library/aes.c:1117:27
	strb	r2, [r6, r0]
	.loc	2 1116 34 is_stmt 1             @ ../../../ThirdParty/mbedTLS/library/aes.c:1116:34
	adds	r0, r0, #1
.Ltmp410:
	@DEBUG_VALUE: mbedtls_aes_crypt_cbc:i <- $r0
	.loc	2 1116 13 is_stmt 0             @ ../../../ThirdParty/mbedTLS/library/aes.c:1116:13
	cmp	r0, #16
	bne	.LBB9_5
.Ltmp411:
@ %bb.6:                                @   in Loop: Header=BB9_5 Depth=1
	@DEBUG_VALUE: mbedtls_aes_crypt_cbc:input <- $r7
	@DEBUG_VALUE: mbedtls_aes_crypt_cbc:output <- $r6
	@DEBUG_VALUE: mbedtls_aes_crypt_cbc:length <- $r5
	@DEBUG_VALUE: mbedtls_aes_crypt_cbc:iv <- $r4
	@DEBUG_VALUE: mbedtls_aes_crypt_cbc:i <- $r0
	.loc	2 1119 13 is_stmt 1             @ ../../../ThirdParty/mbedTLS/library/aes.c:1119:13
	ldr	r0, [sp, #8]                    @ 4-byte Reload
.Ltmp412:
	@DEBUG_VALUE: mbedtls_aes_crypt_cbc:ctx <- $r0
	mov	r1, r3
	mov	r2, r6
	mov	r3, r6
	bl	mbedtls_aes_crypt_ecb
.Ltmp413:
	@DEBUG_VALUE: mbedtls_aes_crypt_cbc:ctx <- [DW_OP_LLVM_entry_value 1] $r0
	.loc	2 1120 13                       @ ../../../ThirdParty/mbedTLS/library/aes.c:1120:13
	mov	r0, r4
	mov	r1, r6
	ldr	r2, [sp, #4]                    @ 4-byte Reload
	bl	__aeabi_memcpy
	ldr	r3, [sp, #16]                   @ 4-byte Reload
	.loc	2 1124 20                       @ ../../../ThirdParty/mbedTLS/library/aes.c:1124:20
	subs	r5, #16
.Ltmp414:
	@DEBUG_VALUE: mbedtls_aes_crypt_cbc:length <- $r5
	.loc	2 1123 20                       @ ../../../ThirdParty/mbedTLS/library/aes.c:1123:20
	adds	r6, #16
.Ltmp415:
	@DEBUG_VALUE: mbedtls_aes_crypt_cbc:output <- $r6
	.loc	2 1122 20                       @ ../../../ThirdParty/mbedTLS/library/aes.c:1122:20
	adds	r7, #16
.Ltmp416:
	@DEBUG_VALUE: mbedtls_aes_crypt_cbc:input <- $r7
	.loc	2 1114 9                        @ ../../../ThirdParty/mbedTLS/library/aes.c:1114:9
	cmp	r5, #0
	ldr	r0, [sp, #12]                   @ 4-byte Reload
	bne	.LBB9_5
.Ltmp417:
@ %bb.7:
	@DEBUG_VALUE: mbedtls_aes_crypt_cbc:input <- $r7
	@DEBUG_VALUE: mbedtls_aes_crypt_cbc:output <- $r6
	@DEBUG_VALUE: mbedtls_aes_crypt_cbc:length <- $r5
	@DEBUG_VALUE: mbedtls_aes_crypt_cbc:iv <- $r4
	.loc	2 1129 1                        @ ../../../ThirdParty/mbedTLS/library/aes.c:1129:1
	add	sp, #36
	pop	{r4, r5, r6, r7, pc}
.Ltmp418:
.LBB9_8:
	@DEBUG_VALUE: mbedtls_aes_crypt_cbc:iv <- $r4
	@DEBUG_VALUE: mbedtls_aes_crypt_cbc:mode <- $r3
	@DEBUG_VALUE: mbedtls_aes_crypt_cbc:ctx <- $r0
	.loc	2 1097 9                        @ ../../../ThirdParty/mbedTLS/library/aes.c:1097:9
	cmp	r5, #0
	beq	.LBB9_14
.Ltmp419:
@ %bb.9:
	@DEBUG_VALUE: mbedtls_aes_crypt_cbc:iv <- $r4
	@DEBUG_VALUE: mbedtls_aes_crypt_cbc:mode <- $r3
	@DEBUG_VALUE: mbedtls_aes_crypt_cbc:ctx <- $r0
	.loc	2 0 9 is_stmt 0                 @ ../../../ThirdParty/mbedTLS/library/aes.c:0:9
	str	r0, [sp, #8]                    @ 4-byte Spill
.Ltmp420:
	@DEBUG_VALUE: mbedtls_aes_crypt_cbc:ctx <- [DW_OP_plus_uconst 8] [$sp+0]
	movs	r0, #0
	str	r0, [sp, #12]                   @ 4-byte Spill
	movs	r0, #16
	str	r0, [sp, #4]                    @ 4-byte Spill
.Ltmp421:
.LBB9_10:                               @ =>This Loop Header: Depth=1
                                        @     Child Loop BB9_11 Depth 2
	@DEBUG_VALUE: mbedtls_aes_crypt_cbc:iv <- $r4
	@DEBUG_VALUE: mbedtls_aes_crypt_cbc:length <- $r5
	@DEBUG_VALUE: mbedtls_aes_crypt_cbc:input <- $r7
	@DEBUG_VALUE: mbedtls_aes_crypt_cbc:output <- $r6
	.loc	2 1099 13 is_stmt 1             @ ../../../ThirdParty/mbedTLS/library/aes.c:1099:13
	ldrb	r0, [r7, #12]
	ldrb	r1, [r7, #13]
	lsls	r1, r1, #8
	adds	r0, r1, r0
	ldrb	r1, [r7, #14]
	ldrb	r2, [r7, #15]
	lsls	r2, r2, #8
	adds	r1, r2, r1
	lsls	r1, r1, #16
	adds	r0, r1, r0
	str	r0, [sp, #32]
	ldrb	r0, [r7, #8]
	ldrb	r1, [r7, #9]
	lsls	r1, r1, #8
	adds	r0, r1, r0
	ldrb	r1, [r7, #10]
	ldrb	r2, [r7, #11]
	lsls	r2, r2, #8
	adds	r1, r2, r1
	lsls	r1, r1, #16
	adds	r0, r1, r0
	str	r0, [sp, #28]
	ldrb	r0, [r7, #4]
	ldrb	r1, [r7, #5]
	lsls	r1, r1, #8
	adds	r0, r1, r0
	ldrb	r1, [r7, #6]
	ldrb	r2, [r7, #7]
	lsls	r2, r2, #8
	adds	r1, r2, r1
	lsls	r1, r1, #16
	adds	r0, r1, r0
	str	r0, [sp, #24]
	ldrb	r0, [r7]
	ldrb	r1, [r7, #1]
	lsls	r1, r1, #8
	adds	r0, r1, r0
	ldrb	r1, [r7, #2]
	ldrb	r2, [r7, #3]
	lsls	r2, r2, #8
	adds	r1, r2, r1
	lsls	r1, r1, #16
	adds	r0, r1, r0
	str	r0, [sp, #20]
	.loc	2 1100 13                       @ ../../../ThirdParty/mbedTLS/library/aes.c:1100:13
	ldr	r0, [sp, #8]                    @ 4-byte Reload
.Ltmp422:
	@DEBUG_VALUE: mbedtls_aes_crypt_cbc:ctx <- $r0
	mov	r1, r3
	mov	r2, r7
	mov	r3, r6
	bl	mbedtls_aes_crypt_ecb
.Ltmp423:
	@DEBUG_VALUE: mbedtls_aes_crypt_cbc:ctx <- [DW_OP_LLVM_entry_value 1] $r0
	@DEBUG_VALUE: mbedtls_aes_crypt_cbc:i <- 0
	.loc	2 0 13 is_stmt 0                @ ../../../ThirdParty/mbedTLS/library/aes.c:0:13
	ldr	r0, [sp, #12]                   @ 4-byte Reload
.Ltmp424:
.LBB9_11:                               @   Parent Loop BB9_10 Depth=1
                                        @ =>  This Inner Loop Header: Depth=2
	@DEBUG_VALUE: mbedtls_aes_crypt_cbc:input <- $r7
	@DEBUG_VALUE: mbedtls_aes_crypt_cbc:output <- $r6
	@DEBUG_VALUE: mbedtls_aes_crypt_cbc:length <- $r5
	@DEBUG_VALUE: mbedtls_aes_crypt_cbc:iv <- $r4
	@DEBUG_VALUE: mbedtls_aes_crypt_cbc:i <- $r0
	.loc	2 1103 46 is_stmt 1             @ ../../../ThirdParty/mbedTLS/library/aes.c:1103:46
	ldrb	r1, [r6, r0]
	.loc	2 1103 58 is_stmt 0             @ ../../../ThirdParty/mbedTLS/library/aes.c:1103:58
	ldrb	r2, [r4, r0]
	.loc	2 1103 56                       @ ../../../ThirdParty/mbedTLS/library/aes.c:1103:56
	eors	r2, r1
	.loc	2 1103 27                       @ ../../../ThirdParty/mbedTLS/library/aes.c:1103:27
	strb	r2, [r6, r0]
	.loc	2 1102 34 is_stmt 1             @ ../../../ThirdParty/mbedTLS/library/aes.c:1102:34
	adds	r0, r0, #1
.Ltmp425:
	@DEBUG_VALUE: mbedtls_aes_crypt_cbc:i <- $r0
	.loc	2 1102 13 is_stmt 0             @ ../../../ThirdParty/mbedTLS/library/aes.c:1102:13
	cmp	r0, #16
	bne	.LBB9_11
.Ltmp426:
@ %bb.12:                               @   in Loop: Header=BB9_10 Depth=1
	@DEBUG_VALUE: mbedtls_aes_crypt_cbc:input <- $r7
	@DEBUG_VALUE: mbedtls_aes_crypt_cbc:output <- $r6
	@DEBUG_VALUE: mbedtls_aes_crypt_cbc:length <- $r5
	@DEBUG_VALUE: mbedtls_aes_crypt_cbc:iv <- $r4
	@DEBUG_VALUE: mbedtls_aes_crypt_cbc:i <- $r0
	.loc	2 0 13                          @ ../../../ThirdParty/mbedTLS/library/aes.c:0:13
	add	r1, sp, #20
	.loc	2 1105 13 is_stmt 1             @ ../../../ThirdParty/mbedTLS/library/aes.c:1105:13
	mov	r0, r4
.Ltmp427:
	ldr	r2, [sp, #4]                    @ 4-byte Reload
	bl	__aeabi_memcpy
	.loc	2 1109 20                       @ ../../../ThirdParty/mbedTLS/library/aes.c:1109:20
	subs	r5, #16
.Ltmp428:
	@DEBUG_VALUE: mbedtls_aes_crypt_cbc:length <- $r5
	.loc	2 1108 20                       @ ../../../ThirdParty/mbedTLS/library/aes.c:1108:20
	adds	r6, #16
.Ltmp429:
	@DEBUG_VALUE: mbedtls_aes_crypt_cbc:output <- $r6
	.loc	2 1107 20                       @ ../../../ThirdParty/mbedTLS/library/aes.c:1107:20
	adds	r7, #16
.Ltmp430:
	@DEBUG_VALUE: mbedtls_aes_crypt_cbc:input <- $r7
	.loc	2 1097 9                        @ ../../../ThirdParty/mbedTLS/library/aes.c:1097:9
	cmp	r5, #0
	ldr	r3, [sp, #16]                   @ 4-byte Reload
	bne	.LBB9_10
.Ltmp431:
@ %bb.13:
	@DEBUG_VALUE: mbedtls_aes_crypt_cbc:input <- $r7
	@DEBUG_VALUE: mbedtls_aes_crypt_cbc:output <- $r6
	@DEBUG_VALUE: mbedtls_aes_crypt_cbc:length <- $r5
	@DEBUG_VALUE: mbedtls_aes_crypt_cbc:iv <- $r4
	.loc	2 0 9 is_stmt 0                 @ ../../../ThirdParty/mbedTLS/library/aes.c:0:9
	ldr	r0, [sp, #12]                   @ 4-byte Reload
	.loc	2 1129 1 is_stmt 1              @ ../../../ThirdParty/mbedTLS/library/aes.c:1129:1
	add	sp, #36
	pop	{r4, r5, r6, r7, pc}
.Ltmp432:
.LBB9_14:
	@DEBUG_VALUE: mbedtls_aes_crypt_cbc:iv <- $r4
	@DEBUG_VALUE: mbedtls_aes_crypt_cbc:mode <- $r3
	@DEBUG_VALUE: mbedtls_aes_crypt_cbc:ctx <- $r0
	.loc	2 0 1 is_stmt 0                 @ ../../../ThirdParty/mbedTLS/library/aes.c:0:1
	movs	r0, #0
.Ltmp433:
	@DEBUG_VALUE: mbedtls_aes_crypt_cbc:ctx <- [DW_OP_LLVM_entry_value 1] $r0
	.loc	2 1129 1                        @ ../../../ThirdParty/mbedTLS/library/aes.c:1129:1
	add	sp, #36
	pop	{r4, r5, r6, r7, pc}
.Ltmp434:
.Lfunc_end9:
	.size	mbedtls_aes_crypt_cbc, .Lfunc_end9-mbedtls_aes_crypt_cbc
	.cfi_endproc
	.cantunwind
	.fnend
                                        @ -- End function
	.section	.text.mbedtls_aes_crypt_cfb128,"ax",%progbits
	.hidden	mbedtls_aes_crypt_cfb128        @ -- Begin function mbedtls_aes_crypt_cfb128
	.globl	mbedtls_aes_crypt_cfb128
	.p2align	1
	.type	mbedtls_aes_crypt_cfb128,%function
	.code	16                              @ @mbedtls_aes_crypt_cfb128
	.thumb_func
mbedtls_aes_crypt_cfb128:
.Lfunc_begin10:
	.loc	2 1309 0 is_stmt 1              @ ../../../ThirdParty/mbedTLS/library/aes.c:1309:0
	.fnstart
	.cfi_startproc
@ %bb.0:
	@DEBUG_VALUE: mbedtls_aes_crypt_cfb128:ctx <- $r0
	@DEBUG_VALUE: mbedtls_aes_crypt_cfb128:mode <- $r1
	@DEBUG_VALUE: mbedtls_aes_crypt_cfb128:length <- $r2
	@DEBUG_VALUE: mbedtls_aes_crypt_cfb128:iv_off <- $r3
	@DEBUG_VALUE: mbedtls_aes_crypt_cfb128:iv_off <- $r3
	@DEBUG_VALUE: mbedtls_aes_crypt_cfb128:length <- $r2
	@DEBUG_VALUE: mbedtls_aes_crypt_cfb128:mode <- $r1
	@DEBUG_VALUE: mbedtls_aes_crypt_cfb128:ctx <- $r0
	.save	{r4, r5, r6, r7, lr}
	push	{r4, r5, r6, r7, lr}
	.cfi_def_cfa_offset 20
	.cfi_offset lr, -4
	.cfi_offset r7, -8
	.cfi_offset r6, -12
	.cfi_offset r5, -16
	.cfi_offset r4, -20
	.pad	#20
	sub	sp, #20
	.cfi_def_cfa_offset 40
.Ltmp435:
	@DEBUG_VALUE: mbedtls_aes_crypt_cfb128:output <- [DW_OP_plus_uconst 48] [$sp+0]
	@DEBUG_VALUE: mbedtls_aes_crypt_cfb128:input <- [DW_OP_plus_uconst 44] [$sp+0]
	@DEBUG_VALUE: mbedtls_aes_crypt_cfb128:iv <- [DW_OP_plus_uconst 40] [$sp+0]
	.loc	2 1321 9 prologue_end           @ ../../../ThirdParty/mbedTLS/library/aes.c:1321:9
	ldr	r6, [r3]
.Ltmp436:
	@DEBUG_VALUE: mbedtls_aes_crypt_cfb128:n <- $r6
	.loc	2 1323 9                        @ ../../../ThirdParty/mbedTLS/library/aes.c:1323:9
	cmp	r6, #15
	bls	.LBB10_2
.Ltmp437:
@ %bb.1:
	@DEBUG_VALUE: mbedtls_aes_crypt_cfb128:n <- $r6
	@DEBUG_VALUE: mbedtls_aes_crypt_cfb128:iv_off <- $r3
	@DEBUG_VALUE: mbedtls_aes_crypt_cfb128:length <- $r2
	@DEBUG_VALUE: mbedtls_aes_crypt_cfb128:mode <- $r1
	@DEBUG_VALUE: mbedtls_aes_crypt_cfb128:ctx <- $r0
	@DEBUG_VALUE: mbedtls_aes_crypt_cfb128:iv <- [DW_OP_plus_uconst 40] [$sp+0]
	@DEBUG_VALUE: mbedtls_aes_crypt_cfb128:input <- [DW_OP_plus_uconst 44] [$sp+0]
	@DEBUG_VALUE: mbedtls_aes_crypt_cfb128:output <- [DW_OP_plus_uconst 48] [$sp+0]
	.loc	2 0 9 is_stmt 0                 @ ../../../ThirdParty/mbedTLS/library/aes.c:0:9
	movs	r0, #32
.Ltmp438:
	@DEBUG_VALUE: mbedtls_aes_crypt_cfb128:ctx <- [DW_OP_LLVM_entry_value 1] $r0
	mvns	r0, r0
	.loc	2 1356 1 is_stmt 1              @ ../../../ThirdParty/mbedTLS/library/aes.c:1356:1
	add	sp, #20
.Ltmp439:
	pop	{r4, r5, r6, r7, pc}
.Ltmp440:
.LBB10_2:
	@DEBUG_VALUE: mbedtls_aes_crypt_cfb128:n <- $r6
	@DEBUG_VALUE: mbedtls_aes_crypt_cfb128:iv_off <- $r3
	@DEBUG_VALUE: mbedtls_aes_crypt_cfb128:length <- $r2
	@DEBUG_VALUE: mbedtls_aes_crypt_cfb128:mode <- $r1
	@DEBUG_VALUE: mbedtls_aes_crypt_cfb128:ctx <- $r0
	@DEBUG_VALUE: mbedtls_aes_crypt_cfb128:iv <- [DW_OP_plus_uconst 40] [$sp+0]
	@DEBUG_VALUE: mbedtls_aes_crypt_cfb128:input <- [DW_OP_plus_uconst 44] [$sp+0]
	@DEBUG_VALUE: mbedtls_aes_crypt_cfb128:output <- [DW_OP_plus_uconst 48] [$sp+0]
	.loc	2 0 1 is_stmt 0                 @ ../../../ThirdParty/mbedTLS/library/aes.c:0:1
	mov	r5, r2
.Ltmp441:
	@DEBUG_VALUE: mbedtls_aes_crypt_cfb128:length <- $r5
	str	r3, [sp]                        @ 4-byte Spill
.Ltmp442:
	@DEBUG_VALUE: mbedtls_aes_crypt_cfb128:iv_off <- [$sp+0]
	ldr	r4, [sp, #48]
	ldr	r7, [sp, #44]
	ldr	r2, [sp, #40]
	@DEBUG_VALUE: mbedtls_aes_crypt_cfb128:n <- $r6
.Ltmp443:
	@DEBUG_VALUE: mbedtls_aes_crypt_cfb128:output <- undef
	@DEBUG_VALUE: mbedtls_aes_crypt_cfb128:input <- undef
	@DEBUG_VALUE: mbedtls_aes_crypt_cfb128:length <- [DW_OP_constu 1, DW_OP_minus, DW_OP_stack_value] undef
	@DEBUG_VALUE: mbedtls_aes_crypt_cfb128:output <- undef
	@DEBUG_VALUE: mbedtls_aes_crypt_cfb128:input <- undef
	@DEBUG_VALUE: mbedtls_aes_crypt_cfb128:length <- [DW_OP_constu 1, DW_OP_minus, DW_OP_stack_value] undef
	str	r0, [sp, #8]                    @ 4-byte Spill
	str	r2, [sp, #16]                   @ 4-byte Spill
	.loc	2 1326 9 is_stmt 1              @ ../../../ThirdParty/mbedTLS/library/aes.c:1326:9
	cbz	r1, .LBB10_8
.Ltmp444:
@ %bb.3:
	@DEBUG_VALUE: mbedtls_aes_crypt_cfb128:iv_off <- [$sp+0]
	@DEBUG_VALUE: mbedtls_aes_crypt_cfb128:n <- $r6
	@DEBUG_VALUE: mbedtls_aes_crypt_cfb128:mode <- $r1
	@DEBUG_VALUE: mbedtls_aes_crypt_cfb128:ctx <- $r0
	@DEBUG_VALUE: mbedtls_aes_crypt_cfb128:iv <- [DW_OP_plus_uconst 40] [$sp+0]
	.loc	2 1342 9                        @ ../../../ThirdParty/mbedTLS/library/aes.c:1342:9
	cbz	r5, .LBB10_13
.Ltmp445:
@ %bb.4:
	@DEBUG_VALUE: mbedtls_aes_crypt_cfb128:iv_off <- [$sp+0]
	@DEBUG_VALUE: mbedtls_aes_crypt_cfb128:n <- $r6
	@DEBUG_VALUE: mbedtls_aes_crypt_cfb128:mode <- $r1
	@DEBUG_VALUE: mbedtls_aes_crypt_cfb128:ctx <- $r0
	@DEBUG_VALUE: mbedtls_aes_crypt_cfb128:iv <- [DW_OP_plus_uconst 40] [$sp+0]
	.loc	2 0 9 is_stmt 0                 @ ../../../ThirdParty/mbedTLS/library/aes.c:0:9
	movs	r1, #1
.Ltmp446:
	@DEBUG_VALUE: mbedtls_aes_crypt_cfb128:mode <- [DW_OP_LLVM_entry_value 1] $r1
	str	r1, [sp, #4]                    @ 4-byte Spill
	movs	r1, #15
	str	r1, [sp, #12]                   @ 4-byte Spill
	b	.LBB10_6
.Ltmp447:
.LBB10_5:                               @   in Loop: Header=BB10_6 Depth=1
	@DEBUG_VALUE: mbedtls_aes_crypt_cfb128:iv_off <- [$sp+0]
	@DEBUG_VALUE: mbedtls_aes_crypt_cfb128:input <- $r7
	@DEBUG_VALUE: mbedtls_aes_crypt_cfb128:n <- $r6
	@DEBUG_VALUE: mbedtls_aes_crypt_cfb128:output <- $r4
	@DEBUG_VALUE: mbedtls_aes_crypt_cfb128:iv <- [DW_OP_plus_uconst 40] [$sp+0]
	@DEBUG_VALUE: mbedtls_aes_crypt_cfb128:mode <- [DW_OP_LLVM_entry_value 1] $r1
	.loc	2 1347 50 is_stmt 1             @ ../../../ThirdParty/mbedTLS/library/aes.c:1347:50
	ldrb	r3, [r2, r6]
	.loc	2 1347 58 is_stmt 0             @ ../../../ThirdParty/mbedTLS/library/aes.c:1347:58
	ldrb	r1, [r7]
	.loc	2 1347 56                       @ ../../../ThirdParty/mbedTLS/library/aes.c:1347:56
	eors	r1, r3
	.loc	2 1347 31                       @ ../../../ThirdParty/mbedTLS/library/aes.c:1347:31
	strb	r1, [r4]
	.loc	2 1347 19                       @ ../../../ThirdParty/mbedTLS/library/aes.c:1347:19
	strb	r1, [r2, r6]
	.loc	2 1349 21 is_stmt 1             @ ../../../ThirdParty/mbedTLS/library/aes.c:1349:21
	adds	r6, r6, #1
.Ltmp448:
	.loc	2 1349 27 is_stmt 0             @ ../../../ThirdParty/mbedTLS/library/aes.c:1349:27
	ldr	r1, [sp, #12]                   @ 4-byte Reload
	ands	r6, r1
.Ltmp449:
	@DEBUG_VALUE: mbedtls_aes_crypt_cfb128:n <- $r6
	.loc	2 1347 28 is_stmt 1             @ ../../../ThirdParty/mbedTLS/library/aes.c:1347:28
	adds	r4, r4, #1
.Ltmp450:
	@DEBUG_VALUE: mbedtls_aes_crypt_cfb128:output <- $r4
	.loc	2 1347 64 is_stmt 0             @ ../../../ThirdParty/mbedTLS/library/aes.c:1347:64
	adds	r7, r7, #1
.Ltmp451:
	@DEBUG_VALUE: mbedtls_aes_crypt_cfb128:input <- $r7
	@DEBUG_VALUE: mbedtls_aes_crypt_cfb128:length <- [DW_OP_constu 1, DW_OP_minus, DW_OP_stack_value] $r5
	.loc	2 0 64                          @ ../../../ThirdParty/mbedTLS/library/aes.c:0:64
	cbz	r5, .LBB10_13
.Ltmp452:
.LBB10_6:                               @ =>This Inner Loop Header: Depth=1
	@DEBUG_VALUE: mbedtls_aes_crypt_cfb128:iv_off <- [$sp+0]
	@DEBUG_VALUE: mbedtls_aes_crypt_cfb128:n <- $r6
	@DEBUG_VALUE: mbedtls_aes_crypt_cfb128:iv <- [DW_OP_plus_uconst 40] [$sp+0]
	@DEBUG_VALUE: mbedtls_aes_crypt_cfb128:mode <- [DW_OP_LLVM_entry_value 1] $r1
	.loc	2 1342 22 is_stmt 1             @ ../../../ThirdParty/mbedTLS/library/aes.c:1342:22
	subs	r5, r5, #1
	@DEBUG_VALUE: mbedtls_aes_crypt_cfb128:n <- $r6
.Ltmp453:
	@DEBUG_VALUE: mbedtls_aes_crypt_cfb128:output <- $r4
	@DEBUG_VALUE: mbedtls_aes_crypt_cfb128:input <- $r7
	.loc	2 1344 17                       @ ../../../ThirdParty/mbedTLS/library/aes.c:1344:17
	cmp	r6, #0
	bne	.LBB10_5
.Ltmp454:
@ %bb.7:                                @   in Loop: Header=BB10_6 Depth=1
	@DEBUG_VALUE: mbedtls_aes_crypt_cfb128:iv_off <- [$sp+0]
	@DEBUG_VALUE: mbedtls_aes_crypt_cfb128:input <- $r7
	@DEBUG_VALUE: mbedtls_aes_crypt_cfb128:n <- $r6
	@DEBUG_VALUE: mbedtls_aes_crypt_cfb128:output <- $r4
	@DEBUG_VALUE: mbedtls_aes_crypt_cfb128:iv <- [DW_OP_plus_uconst 40] [$sp+0]
	@DEBUG_VALUE: mbedtls_aes_crypt_cfb128:mode <- [DW_OP_LLVM_entry_value 1] $r1
	.loc	2 1345 17                       @ ../../../ThirdParty/mbedTLS/library/aes.c:1345:17
	ldr	r1, [sp, #4]                    @ 4-byte Reload
	ldr	r3, [sp, #16]                   @ 4-byte Reload
	bl	mbedtls_aes_crypt_ecb
.Ltmp455:
	@DEBUG_VALUE: mbedtls_aes_crypt_cfb128:ctx <- [DW_OP_LLVM_entry_value 1] $r0
	.loc	2 0 17 is_stmt 0                @ ../../../ThirdParty/mbedTLS/library/aes.c:0:17
	ldr	r2, [sp, #16]                   @ 4-byte Reload
	ldr	r0, [sp, #8]                    @ 4-byte Reload
	b	.LBB10_5
.Ltmp456:
.LBB10_8:
	@DEBUG_VALUE: mbedtls_aes_crypt_cfb128:iv_off <- [$sp+0]
	@DEBUG_VALUE: mbedtls_aes_crypt_cfb128:n <- $r6
	@DEBUG_VALUE: mbedtls_aes_crypt_cfb128:mode <- $r1
	@DEBUG_VALUE: mbedtls_aes_crypt_cfb128:ctx <- $r0
	@DEBUG_VALUE: mbedtls_aes_crypt_cfb128:iv <- [DW_OP_plus_uconst 40] [$sp+0]
	.loc	2 1328 9 is_stmt 1              @ ../../../ThirdParty/mbedTLS/library/aes.c:1328:9
	cbz	r5, .LBB10_13
.Ltmp457:
@ %bb.9:
	@DEBUG_VALUE: mbedtls_aes_crypt_cfb128:iv_off <- [$sp+0]
	@DEBUG_VALUE: mbedtls_aes_crypt_cfb128:n <- $r6
	@DEBUG_VALUE: mbedtls_aes_crypt_cfb128:mode <- $r1
	@DEBUG_VALUE: mbedtls_aes_crypt_cfb128:ctx <- $r0
	@DEBUG_VALUE: mbedtls_aes_crypt_cfb128:iv <- [DW_OP_plus_uconst 40] [$sp+0]
	.loc	2 0 9 is_stmt 0                 @ ../../../ThirdParty/mbedTLS/library/aes.c:0:9
	movs	r1, #1
.Ltmp458:
	@DEBUG_VALUE: mbedtls_aes_crypt_cfb128:mode <- [DW_OP_LLVM_entry_value 1] $r1
	str	r1, [sp, #4]                    @ 4-byte Spill
	movs	r1, #15
	str	r1, [sp, #12]                   @ 4-byte Spill
	b	.LBB10_11
.Ltmp459:
.LBB10_10:                              @   in Loop: Header=BB10_11 Depth=1
	@DEBUG_VALUE: mbedtls_aes_crypt_cfb128:iv_off <- [$sp+0]
	@DEBUG_VALUE: mbedtls_aes_crypt_cfb128:input <- $r7
	@DEBUG_VALUE: mbedtls_aes_crypt_cfb128:n <- $r6
	@DEBUG_VALUE: mbedtls_aes_crypt_cfb128:output <- $r4
	@DEBUG_VALUE: mbedtls_aes_crypt_cfb128:iv <- [DW_OP_plus_uconst 40] [$sp+0]
	@DEBUG_VALUE: mbedtls_aes_crypt_cfb128:mode <- [DW_OP_LLVM_entry_value 1] $r1
	.loc	2 1334 46 is_stmt 1             @ ../../../ThirdParty/mbedTLS/library/aes.c:1334:46
	ldrb	r3, [r2, r6]
	.loc	2 1333 17                       @ ../../../ThirdParty/mbedTLS/library/aes.c:1333:17
	ldrb	r1, [r7]
.Ltmp460:
	@DEBUG_VALUE: mbedtls_aes_crypt_cfb128:c <- [DW_OP_LLVM_convert 8 7, DW_OP_LLVM_convert 32 7, DW_OP_stack_value] $r1
	.loc	2 1334 44                       @ ../../../ThirdParty/mbedTLS/library/aes.c:1334:44
	eors	r3, r1
	.loc	2 1334 23 is_stmt 0             @ ../../../ThirdParty/mbedTLS/library/aes.c:1334:23
	strb	r3, [r4]
	.loc	2 1335 19 is_stmt 1             @ ../../../ThirdParty/mbedTLS/library/aes.c:1335:19
	strb	r1, [r2, r6]
	.loc	2 1337 21                       @ ../../../ThirdParty/mbedTLS/library/aes.c:1337:21
	adds	r6, r6, #1
.Ltmp461:
	.loc	2 1337 27 is_stmt 0             @ ../../../ThirdParty/mbedTLS/library/aes.c:1337:27
	ldr	r1, [sp, #12]                   @ 4-byte Reload
.Ltmp462:
	ands	r6, r1
.Ltmp463:
	@DEBUG_VALUE: mbedtls_aes_crypt_cfb128:n <- $r6
	.loc	2 1334 20 is_stmt 1             @ ../../../ThirdParty/mbedTLS/library/aes.c:1334:20
	adds	r4, r4, #1
.Ltmp464:
	@DEBUG_VALUE: mbedtls_aes_crypt_cfb128:output <- $r4
	.loc	2 1333 23                       @ ../../../ThirdParty/mbedTLS/library/aes.c:1333:23
	adds	r7, r7, #1
.Ltmp465:
	@DEBUG_VALUE: mbedtls_aes_crypt_cfb128:input <- $r7
	@DEBUG_VALUE: mbedtls_aes_crypt_cfb128:length <- [DW_OP_constu 1, DW_OP_minus, DW_OP_stack_value] $r5
	.loc	2 1328 9                        @ ../../../ThirdParty/mbedTLS/library/aes.c:1328:9
	cbz	r5, .LBB10_13
.Ltmp466:
.LBB10_11:                              @ =>This Inner Loop Header: Depth=1
	@DEBUG_VALUE: mbedtls_aes_crypt_cfb128:iv_off <- [$sp+0]
	@DEBUG_VALUE: mbedtls_aes_crypt_cfb128:n <- $r6
	@DEBUG_VALUE: mbedtls_aes_crypt_cfb128:iv <- [DW_OP_plus_uconst 40] [$sp+0]
	@DEBUG_VALUE: mbedtls_aes_crypt_cfb128:mode <- [DW_OP_LLVM_entry_value 1] $r1
	.loc	2 1328 22 is_stmt 0             @ ../../../ThirdParty/mbedTLS/library/aes.c:1328:22
	subs	r5, r5, #1
	@DEBUG_VALUE: mbedtls_aes_crypt_cfb128:n <- $r6
.Ltmp467:
	@DEBUG_VALUE: mbedtls_aes_crypt_cfb128:output <- $r4
	@DEBUG_VALUE: mbedtls_aes_crypt_cfb128:input <- $r7
	.loc	2 1330 17 is_stmt 1             @ ../../../ThirdParty/mbedTLS/library/aes.c:1330:17
	cmp	r6, #0
	bne	.LBB10_10
.Ltmp468:
@ %bb.12:                               @   in Loop: Header=BB10_11 Depth=1
	@DEBUG_VALUE: mbedtls_aes_crypt_cfb128:iv_off <- [$sp+0]
	@DEBUG_VALUE: mbedtls_aes_crypt_cfb128:input <- $r7
	@DEBUG_VALUE: mbedtls_aes_crypt_cfb128:n <- $r6
	@DEBUG_VALUE: mbedtls_aes_crypt_cfb128:output <- $r4
	@DEBUG_VALUE: mbedtls_aes_crypt_cfb128:iv <- [DW_OP_plus_uconst 40] [$sp+0]
	@DEBUG_VALUE: mbedtls_aes_crypt_cfb128:mode <- [DW_OP_LLVM_entry_value 1] $r1
	.loc	2 1331 17                       @ ../../../ThirdParty/mbedTLS/library/aes.c:1331:17
	ldr	r1, [sp, #4]                    @ 4-byte Reload
	ldr	r3, [sp, #16]                   @ 4-byte Reload
	bl	mbedtls_aes_crypt_ecb
.Ltmp469:
	@DEBUG_VALUE: mbedtls_aes_crypt_cfb128:ctx <- [DW_OP_LLVM_entry_value 1] $r0
	.loc	2 0 17 is_stmt 0                @ ../../../ThirdParty/mbedTLS/library/aes.c:0:17
	ldr	r2, [sp, #16]                   @ 4-byte Reload
	ldr	r0, [sp, #8]                    @ 4-byte Reload
	b	.LBB10_10
.Ltmp470:
.LBB10_13:
	@DEBUG_VALUE: mbedtls_aes_crypt_cfb128:iv_off <- [$sp+0]
	@DEBUG_VALUE: mbedtls_aes_crypt_cfb128:n <- $r6
	@DEBUG_VALUE: mbedtls_aes_crypt_cfb128:iv <- [DW_OP_plus_uconst 40] [$sp+0]
	@DEBUG_VALUE: mbedtls_aes_crypt_cfb128:n <- $r6
	.loc	2 1353 13 is_stmt 1             @ ../../../ThirdParty/mbedTLS/library/aes.c:1353:13
	ldr	r0, [sp]                        @ 4-byte Reload
.Ltmp471:
	@DEBUG_VALUE: mbedtls_aes_crypt_cfb128:iv_off <- $r0
	str	r6, [r0]
	movs	r0, #0
.Ltmp472:
	@DEBUG_VALUE: mbedtls_aes_crypt_cfb128:iv_off <- [DW_OP_LLVM_entry_value 1] $r3
	.loc	2 1356 1                        @ ../../../ThirdParty/mbedTLS/library/aes.c:1356:1
	add	sp, #20
.Ltmp473:
	pop	{r4, r5, r6, r7, pc}
.Ltmp474:
.Lfunc_end10:
	.size	mbedtls_aes_crypt_cfb128, .Lfunc_end10-mbedtls_aes_crypt_cfb128
	.cfi_endproc
	.cantunwind
	.fnend
                                        @ -- End function
	.section	.text.mbedtls_aes_crypt_cfb8,"ax",%progbits
	.hidden	mbedtls_aes_crypt_cfb8          @ -- Begin function mbedtls_aes_crypt_cfb8
	.globl	mbedtls_aes_crypt_cfb8
	.p2align	1
	.type	mbedtls_aes_crypt_cfb8,%function
	.code	16                              @ @mbedtls_aes_crypt_cfb8
	.thumb_func
mbedtls_aes_crypt_cfb8:
.Lfunc_begin11:
	.loc	2 1367 0                        @ ../../../ThirdParty/mbedTLS/library/aes.c:1367:0
	.fnstart
	.cfi_startproc
@ %bb.0:
	@DEBUG_VALUE: mbedtls_aes_crypt_cfb8:ctx <- $r0
	@DEBUG_VALUE: mbedtls_aes_crypt_cfb8:mode <- $r1
	@DEBUG_VALUE: mbedtls_aes_crypt_cfb8:length <- $r2
	@DEBUG_VALUE: mbedtls_aes_crypt_cfb8:iv <- $r3
	@DEBUG_VALUE: mbedtls_aes_crypt_cfb8:length <- $r2
	.save	{r4, r5, r6, r7, lr}
	push	{r4, r5, r6, r7, lr}
	.cfi_def_cfa_offset 20
	.cfi_offset lr, -4
	.cfi_offset r7, -8
	.cfi_offset r6, -12
	.cfi_offset r5, -16
	.cfi_offset r4, -20
	.pad	#44
	sub	sp, #44
	.cfi_def_cfa_offset 64
.Ltmp475:
	@DEBUG_VALUE: mbedtls_aes_crypt_cfb8:input <- [DW_OP_plus_uconst 64] [$sp+0]
	@DEBUG_VALUE: mbedtls_aes_crypt_cfb8:output <- [DW_OP_plus_uconst 68] [$sp+0]
	str	r0, [sp, #12]                   @ 4-byte Spill
.Ltmp476:
	@DEBUG_VALUE: mbedtls_aes_crypt_cfb8:ov <- [DW_OP_LLVM_fragment 128 8] undef
	@DEBUG_VALUE: mbedtls_aes_crypt_cfb8:output <- undef
	@DEBUG_VALUE: mbedtls_aes_crypt_cfb8:input <- undef
	@DEBUG_VALUE: mbedtls_aes_crypt_cfb8:iv <- $r3
	@DEBUG_VALUE: mbedtls_aes_crypt_cfb8:length <- [DW_OP_constu 1, DW_OP_minus, DW_OP_stack_value] $r2
	@DEBUG_VALUE: mbedtls_aes_crypt_cfb8:mode <- $r1
	@DEBUG_VALUE: mbedtls_aes_crypt_cfb8:ctx <- [DW_OP_plus_uconst 12] [$sp+0]
	.loc	2 1377 5 prologue_end           @ ../../../ThirdParty/mbedTLS/library/aes.c:1377:5
	cmp	r2, #0
	beq	.LBB11_7
.Ltmp477:
@ %bb.1:
	@DEBUG_VALUE: mbedtls_aes_crypt_cfb8:iv <- $r3
	@DEBUG_VALUE: mbedtls_aes_crypt_cfb8:length <- [DW_OP_constu 1, DW_OP_minus, DW_OP_stack_value] $r2
	@DEBUG_VALUE: mbedtls_aes_crypt_cfb8:mode <- $r1
	@DEBUG_VALUE: mbedtls_aes_crypt_cfb8:ctx <- [DW_OP_plus_uconst 12] [$sp+0]
	.loc	2 0 5 is_stmt 0                 @ ../../../ThirdParty/mbedTLS/library/aes.c:0:5
	mov	r4, r3
.Ltmp478:
	@DEBUG_VALUE: mbedtls_aes_crypt_cfb8:iv <- $r4
	mov	r7, r1
.Ltmp479:
	@DEBUG_VALUE: mbedtls_aes_crypt_cfb8:mode <- $r7
	ldr	r6, [sp, #68]
.Ltmp480:
	@DEBUG_VALUE: mbedtls_aes_crypt_cfb8:output <- $r6
	ldr	r1, [sp, #64]
.Ltmp481:
	@DEBUG_VALUE: mbedtls_aes_crypt_cfb8:input <- $r1
	add	r0, sp, #28
.Ltmp482:
	adds	r0, r0, #1
.Ltmp483:
	@DEBUG_VALUE: mbedtls_aes_crypt_cfb8:length <- [DW_OP_constu 1, DW_OP_minus, DW_OP_stack_value] undef
	str	r0, [sp, #8]                    @ 4-byte Spill
	movs	r0, #1
	str	r0, [sp, #4]                    @ 4-byte Spill
                                        @ implicit-def: $r0
                                        @ kill: killed $r0
	str	r7, [sp]                        @ 4-byte Spill
	b	.LBB11_3
.Ltmp484:
.LBB11_2:                               @   in Loop: Header=BB11_3 Depth=1
	@DEBUG_VALUE: mbedtls_aes_crypt_cfb8:input <- [DW_OP_plus_uconst 20] [$sp+0]
	@DEBUG_VALUE: mbedtls_aes_crypt_cfb8:iv <- $r4
	@DEBUG_VALUE: mbedtls_aes_crypt_cfb8:output <- [DW_OP_plus_uconst 24] [$sp+0]
	@DEBUG_VALUE: mbedtls_aes_crypt_cfb8:ov <- [DW_OP_plus_uconst 16, DW_OP_LLVM_fragment 128 8] [$sp+0]
	@DEBUG_VALUE: mbedtls_aes_crypt_cfb8:ctx <- [DW_OP_plus_uconst 12] [$sp+0]
	@DEBUG_VALUE: mbedtls_aes_crypt_cfb8:ov <- [DW_OP_LLVM_fragment 128 8] $r5
	.loc	2 1390 9 is_stmt 1              @ ../../../ThirdParty/mbedTLS/library/aes.c:1390:9
	strb	r5, [r4, #15]
	.loc	2 1385 20                       @ ../../../ThirdParty/mbedTLS/library/aes.c:1385:20
	adds	r6, r6, #1
.Ltmp485:
	@DEBUG_VALUE: mbedtls_aes_crypt_cfb8:output <- $r6
	.loc	2 0 20 is_stmt 0                @ ../../../ThirdParty/mbedTLS/library/aes.c:0:20
	ldr	r1, [sp, #20]                   @ 4-byte Reload
.Ltmp486:
	@DEBUG_VALUE: mbedtls_aes_crypt_cfb8:input <- $r1
	@DEBUG_VALUE: mbedtls_aes_crypt_cfb8:input <- $r1
	.loc	2 1385 56                       @ ../../../ThirdParty/mbedTLS/library/aes.c:1385:56
	adds	r1, r1, #1
.Ltmp487:
	@DEBUG_VALUE: mbedtls_aes_crypt_cfb8:input <- $r1
	@DEBUG_VALUE: mbedtls_aes_crypt_cfb8:length <- [DW_OP_constu 1, DW_OP_minus, DW_OP_stack_value] $r7
	.loc	2 1377 5 is_stmt 1              @ ../../../ThirdParty/mbedTLS/library/aes.c:1377:5
	cmp	r7, #0
	str	r5, [sp, #16]                   @ 4-byte Spill
.Ltmp488:
	@DEBUG_VALUE: mbedtls_aes_crypt_cfb8:ov <- [DW_OP_plus_uconst 16, DW_OP_LLVM_fragment 128 8] [$sp+0]
	@DEBUG_VALUE: mbedtls_aes_crypt_cfb8:ov <- [DW_OP_plus_uconst 16, DW_OP_LLVM_fragment 128 8] [$sp+0]
	@DEBUG_VALUE: mbedtls_aes_crypt_cfb8:ov <- [DW_OP_plus_uconst 16, DW_OP_LLVM_fragment 128 8] [$sp+0]
	.loc	2 0 5 is_stmt 0                 @ ../../../ThirdParty/mbedTLS/library/aes.c:0:5
	mov	r2, r7
.Ltmp489:
	@DEBUG_VALUE: mbedtls_aes_crypt_cfb8:length <- [DW_OP_constu 1, DW_OP_minus, DW_OP_stack_value] $r2
	mov	r7, r0
	@DEBUG_VALUE: mbedtls_aes_crypt_cfb8:output <- $r6
	@DEBUG_VALUE: mbedtls_aes_crypt_cfb8:input <- $r1
	.loc	2 1377 5                        @ ../../../ThirdParty/mbedTLS/library/aes.c:1377:5
	beq	.LBB11_7
.Ltmp490:
.LBB11_3:                               @ =>This Inner Loop Header: Depth=1
	@DEBUG_VALUE: mbedtls_aes_crypt_cfb8:output <- $r6
	@DEBUG_VALUE: mbedtls_aes_crypt_cfb8:iv <- $r4
	@DEBUG_VALUE: mbedtls_aes_crypt_cfb8:input <- $r1
	@DEBUG_VALUE: mbedtls_aes_crypt_cfb8:ctx <- [DW_OP_plus_uconst 12] [$sp+0]
	@DEBUG_VALUE: mbedtls_aes_crypt_cfb8:input <- $r1
	@DEBUG_VALUE: mbedtls_aes_crypt_cfb8:output <- $r6
	@DEBUG_VALUE: mbedtls_aes_crypt_cfb8:ov <- [DW_OP_plus_uconst 16, DW_OP_LLVM_fragment 128 8] [$sp+0]
	.loc	2 0 5                           @ ../../../ThirdParty/mbedTLS/library/aes.c:0:5
	str	r6, [sp, #24]                   @ 4-byte Spill
.Ltmp491:
	@DEBUG_VALUE: mbedtls_aes_crypt_cfb8:output <- [DW_OP_plus_uconst 24] [$sp+0]
	@DEBUG_VALUE: mbedtls_aes_crypt_cfb8:output <- [DW_OP_plus_uconst 24] [$sp+0]
	@DEBUG_VALUE: mbedtls_aes_crypt_cfb8:output <- [DW_OP_plus_uconst 24] [$sp+0]
	mov	r5, r2
.Ltmp492:
	.loc	2 1379 9 is_stmt 1              @ ../../../ThirdParty/mbedTLS/library/aes.c:1379:9
	ldrb	r0, [r4, #12]
	mov	r6, r1
.Ltmp493:
	@DEBUG_VALUE: mbedtls_aes_crypt_cfb8:input <- $r6
	@DEBUG_VALUE: mbedtls_aes_crypt_cfb8:input <- $r6
	@DEBUG_VALUE: mbedtls_aes_crypt_cfb8:input <- $r6
	ldrb	r1, [r4, #13]
	lsls	r1, r1, #8
	adds	r0, r1, r0
	ldrb	r1, [r4, #14]
	ldrb	r2, [r4, #15]
	lsls	r2, r2, #8
	adds	r1, r2, r1
	lsls	r1, r1, #16
	adds	r0, r1, r0
	str	r0, [sp, #40]
	ldrb	r0, [r4, #8]
	ldrb	r1, [r4, #9]
	lsls	r1, r1, #8
	adds	r0, r1, r0
	ldrb	r1, [r4, #10]
	ldrb	r2, [r4, #11]
	lsls	r2, r2, #8
	adds	r1, r2, r1
	lsls	r1, r1, #16
	adds	r0, r1, r0
	str	r0, [sp, #36]
	ldrb	r0, [r4, #4]
	ldrb	r1, [r4, #5]
	lsls	r1, r1, #8
	adds	r0, r1, r0
	ldrb	r1, [r4, #6]
	ldrb	r2, [r4, #7]
	lsls	r2, r2, #8
	adds	r1, r2, r1
	lsls	r1, r1, #16
	adds	r0, r1, r0
	str	r0, [sp, #32]
	ldrb	r0, [r4]
	ldrb	r1, [r4, #1]
	lsls	r1, r1, #8
	adds	r0, r1, r0
	ldrb	r1, [r4, #2]
	ldrb	r2, [r4, #3]
	lsls	r2, r2, #8
	adds	r1, r2, r1
	lsls	r1, r1, #16
	adds	r0, r1, r0
	str	r0, [sp, #28]
	.loc	2 1380 9                        @ ../../../ThirdParty/mbedTLS/library/aes.c:1380:9
	ldr	r0, [sp, #12]                   @ 4-byte Reload
	ldr	r1, [sp, #4]                    @ 4-byte Reload
	mov	r2, r4
	mov	r3, r4
	bl	mbedtls_aes_crypt_ecb
	mov	r1, r6
.Ltmp494:
	@DEBUG_VALUE: mbedtls_aes_crypt_cfb8:input <- $r1
	.loc	2 1382 13                       @ ../../../ThirdParty/mbedTLS/library/aes.c:1382:13
	cbnz	r7, .LBB11_5
.Ltmp495:
@ %bb.4:                                @   in Loop: Header=BB11_3 Depth=1
	@DEBUG_VALUE: mbedtls_aes_crypt_cfb8:iv <- $r4
	@DEBUG_VALUE: mbedtls_aes_crypt_cfb8:input <- $r1
	@DEBUG_VALUE: mbedtls_aes_crypt_cfb8:output <- [DW_OP_plus_uconst 24] [$sp+0]
	@DEBUG_VALUE: mbedtls_aes_crypt_cfb8:ov <- [DW_OP_plus_uconst 16, DW_OP_LLVM_fragment 128 8] [$sp+0]
	@DEBUG_VALUE: mbedtls_aes_crypt_cfb8:ctx <- [DW_OP_plus_uconst 12] [$sp+0]
	.loc	2 1383 22                       @ ../../../ThirdParty/mbedTLS/library/aes.c:1383:22
	ldrb	r0, [r1]
.Ltmp496:
	@DEBUG_VALUE: mbedtls_aes_crypt_cfb8:ov <- [DW_OP_LLVM_fragment 128 8] undef
	.loc	2 0 22 is_stmt 0                @ ../../../ThirdParty/mbedTLS/library/aes.c:0:22
	str	r0, [sp, #16]                   @ 4-byte Spill
.Ltmp497:
.LBB11_5:                               @   in Loop: Header=BB11_3 Depth=1
	@DEBUG_VALUE: mbedtls_aes_crypt_cfb8:iv <- $r4
	@DEBUG_VALUE: mbedtls_aes_crypt_cfb8:input <- $r1
	@DEBUG_VALUE: mbedtls_aes_crypt_cfb8:output <- [DW_OP_plus_uconst 24] [$sp+0]
	@DEBUG_VALUE: mbedtls_aes_crypt_cfb8:ctx <- [DW_OP_plus_uconst 12] [$sp+0]
	mov	r7, r5
.Ltmp498:
	@DEBUG_VALUE: mbedtls_aes_crypt_cfb8:mode <- [DW_OP_LLVM_entry_value 1] $r1
	subs	r7, r5, #1
.Ltmp499:
	@DEBUG_VALUE: mbedtls_aes_crypt_cfb8:ov <- [DW_OP_plus_uconst 16, DW_OP_LLVM_fragment 128 8] [$sp+0]
	.loc	2 1385 42 is_stmt 1             @ ../../../ThirdParty/mbedTLS/library/aes.c:1385:42
	ldrb	r0, [r4]
	.loc	2 1385 50 is_stmt 0             @ ../../../ThirdParty/mbedTLS/library/aes.c:1385:50
	ldrb	r5, [r1]
	.loc	2 1385 48                       @ ../../../ThirdParty/mbedTLS/library/aes.c:1385:48
	eors	r5, r0
	ldr	r6, [sp, #24]                   @ 4-byte Reload
	.loc	2 1385 23                       @ ../../../ThirdParty/mbedTLS/library/aes.c:1385:23
	strb	r5, [r6]
	movs	r2, #15
	.loc	2 1390 9 is_stmt 1              @ ../../../ThirdParty/mbedTLS/library/aes.c:1390:9
	mov	r0, r4
	str	r1, [sp, #20]                   @ 4-byte Spill
.Ltmp500:
	@DEBUG_VALUE: mbedtls_aes_crypt_cfb8:input <- [DW_OP_plus_uconst 20] [$sp+0]
	@DEBUG_VALUE: mbedtls_aes_crypt_cfb8:input <- [DW_OP_plus_uconst 20] [$sp+0]
	ldr	r1, [sp, #8]                    @ 4-byte Reload
	bl	__aeabi_memcpy
.Ltmp501:
	@DEBUG_VALUE: mbedtls_aes_crypt_cfb8:c <- $r5
	.loc	2 0 9 is_stmt 0                 @ ../../../ThirdParty/mbedTLS/library/aes.c:0:9
	ldr	r1, [sp]                        @ 4-byte Reload
	mov	r0, r1
	.loc	2 1387 13 is_stmt 1             @ ../../../ThirdParty/mbedTLS/library/aes.c:1387:13
	cmp	r1, #1
	beq	.LBB11_2
.Ltmp502:
@ %bb.6:                                @   in Loop: Header=BB11_3 Depth=1
	@DEBUG_VALUE: mbedtls_aes_crypt_cfb8:input <- [DW_OP_plus_uconst 20] [$sp+0]
	@DEBUG_VALUE: mbedtls_aes_crypt_cfb8:c <- $r5
	@DEBUG_VALUE: mbedtls_aes_crypt_cfb8:iv <- $r4
	@DEBUG_VALUE: mbedtls_aes_crypt_cfb8:output <- [DW_OP_plus_uconst 24] [$sp+0]
	@DEBUG_VALUE: mbedtls_aes_crypt_cfb8:ov <- [DW_OP_plus_uconst 16, DW_OP_LLVM_fragment 128 8] [$sp+0]
	@DEBUG_VALUE: mbedtls_aes_crypt_cfb8:ctx <- [DW_OP_plus_uconst 12] [$sp+0]
	ldr	r5, [sp, #16]                   @ 4-byte Reload
.Ltmp503:
	.loc	2 0 13 is_stmt 0                @ ../../../ThirdParty/mbedTLS/library/aes.c:0:13
	b	.LBB11_2
.Ltmp504:
.LBB11_7:
	@DEBUG_VALUE: mbedtls_aes_crypt_cfb8:length <- [DW_OP_constu 1, DW_OP_minus, DW_OP_stack_value] $r2
	@DEBUG_VALUE: mbedtls_aes_crypt_cfb8:ctx <- [DW_OP_plus_uconst 12] [$sp+0]
	movs	r0, #0
	.loc	2 1393 5 is_stmt 1              @ ../../../ThirdParty/mbedTLS/library/aes.c:1393:5
	add	sp, #44
.Ltmp505:
	pop	{r4, r5, r6, r7, pc}
.Ltmp506:
.Lfunc_end11:
	.size	mbedtls_aes_crypt_cfb8, .Lfunc_end11-mbedtls_aes_crypt_cfb8
	.cfi_endproc
	.cantunwind
	.fnend
                                        @ -- End function
	.section	.text.mbedtls_aes_crypt_ctr,"ax",%progbits
	.hidden	mbedtls_aes_crypt_ctr           @ -- Begin function mbedtls_aes_crypt_ctr
	.globl	mbedtls_aes_crypt_ctr
	.p2align	1
	.type	mbedtls_aes_crypt_ctr,%function
	.code	16                              @ @mbedtls_aes_crypt_ctr
	.thumb_func
mbedtls_aes_crypt_ctr:
.Lfunc_begin12:
	.loc	2 1453 0                        @ ../../../ThirdParty/mbedTLS/library/aes.c:1453:0
	.fnstart
	.cfi_startproc
@ %bb.0:
	@DEBUG_VALUE: mbedtls_aes_crypt_ctr:ctx <- $r0
	@DEBUG_VALUE: mbedtls_aes_crypt_ctr:length <- $r1
	@DEBUG_VALUE: mbedtls_aes_crypt_ctr:nc_off <- $r2
	@DEBUG_VALUE: mbedtls_aes_crypt_ctr:nonce_counter <- $r3
	.save	{r4, r5, r6, r7, lr}
	push	{r4, r5, r6, r7, lr}
	.cfi_def_cfa_offset 20
	.cfi_offset lr, -4
	.cfi_offset r7, -8
	.cfi_offset r6, -12
	.cfi_offset r5, -16
	.cfi_offset r4, -20
	.pad	#28
	sub	sp, #28
	.cfi_def_cfa_offset 48
	str	r0, [sp, #12]                   @ 4-byte Spill
.Ltmp507:
	@DEBUG_VALUE: mbedtls_aes_crypt_ctr:output <- [DW_OP_plus_uconst 56] [$sp+0]
	@DEBUG_VALUE: mbedtls_aes_crypt_ctr:input <- [DW_OP_plus_uconst 52] [$sp+0]
	@DEBUG_VALUE: mbedtls_aes_crypt_ctr:stream_block <- [DW_OP_plus_uconst 48] [$sp+0]
	@DEBUG_VALUE: mbedtls_aes_crypt_ctr:nonce_counter <- $r3
	@DEBUG_VALUE: mbedtls_aes_crypt_ctr:nc_off <- $r2
	@DEBUG_VALUE: mbedtls_aes_crypt_ctr:length <- $r1
	@DEBUG_VALUE: mbedtls_aes_crypt_ctr:ctx <- [DW_OP_plus_uconst 12] [$sp+0]
	.loc	2 1464 9 prologue_end           @ ../../../ThirdParty/mbedTLS/library/aes.c:1464:9
	ldr	r7, [r2]
.Ltmp508:
	@DEBUG_VALUE: mbedtls_aes_crypt_ctr:n <- $r7
	.loc	2 1466 10                       @ ../../../ThirdParty/mbedTLS/library/aes.c:1466:10
	cmp	r7, #15
	bls	.LBB12_2
.Ltmp509:
@ %bb.1:
	@DEBUG_VALUE: mbedtls_aes_crypt_ctr:n <- $r7
	@DEBUG_VALUE: mbedtls_aes_crypt_ctr:nonce_counter <- $r3
	@DEBUG_VALUE: mbedtls_aes_crypt_ctr:nc_off <- $r2
	@DEBUG_VALUE: mbedtls_aes_crypt_ctr:length <- $r1
	@DEBUG_VALUE: mbedtls_aes_crypt_ctr:ctx <- [DW_OP_plus_uconst 12] [$sp+0]
	@DEBUG_VALUE: mbedtls_aes_crypt_ctr:stream_block <- [DW_OP_plus_uconst 48] [$sp+0]
	@DEBUG_VALUE: mbedtls_aes_crypt_ctr:input <- [DW_OP_plus_uconst 52] [$sp+0]
	@DEBUG_VALUE: mbedtls_aes_crypt_ctr:output <- [DW_OP_plus_uconst 56] [$sp+0]
	.loc	2 0 10 is_stmt 0                @ ../../../ThirdParty/mbedTLS/library/aes.c:0:10
	movs	r0, #32
	mvns	r0, r0
	.loc	2 1487 1 is_stmt 1              @ ../../../ThirdParty/mbedTLS/library/aes.c:1487:1
	add	sp, #28
.Ltmp510:
	pop	{r4, r5, r6, r7, pc}
.Ltmp511:
.LBB12_2:
	@DEBUG_VALUE: mbedtls_aes_crypt_ctr:n <- $r7
	@DEBUG_VALUE: mbedtls_aes_crypt_ctr:nonce_counter <- $r3
	@DEBUG_VALUE: mbedtls_aes_crypt_ctr:nc_off <- $r2
	@DEBUG_VALUE: mbedtls_aes_crypt_ctr:length <- $r1
	@DEBUG_VALUE: mbedtls_aes_crypt_ctr:ctx <- [DW_OP_plus_uconst 12] [$sp+0]
	@DEBUG_VALUE: mbedtls_aes_crypt_ctr:stream_block <- [DW_OP_plus_uconst 48] [$sp+0]
	@DEBUG_VALUE: mbedtls_aes_crypt_ctr:input <- [DW_OP_plus_uconst 52] [$sp+0]
	@DEBUG_VALUE: mbedtls_aes_crypt_ctr:output <- [DW_OP_plus_uconst 56] [$sp+0]
	.loc	2 0 1 is_stmt 0                 @ ../../../ThirdParty/mbedTLS/library/aes.c:0:1
	mov	r5, r3
.Ltmp512:
	@DEBUG_VALUE: mbedtls_aes_crypt_ctr:nonce_counter <- $r5
	mov	r3, r1
.Ltmp513:
	@DEBUG_VALUE: mbedtls_aes_crypt_ctr:length <- $r3
	@DEBUG_VALUE: mbedtls_aes_crypt_ctr:length <- [DW_OP_constu 1, DW_OP_minus, DW_OP_stack_value] $r3
	@DEBUG_VALUE: mbedtls_aes_crypt_ctr:n <- $r7
	str	r2, [sp, #4]                    @ 4-byte Spill
.Ltmp514:
	@DEBUG_VALUE: mbedtls_aes_crypt_ctr:nc_off <- [DW_OP_plus_uconst 4] [$sp+0]
	@DEBUG_VALUE: mbedtls_aes_crypt_ctr:output <- undef
	@DEBUG_VALUE: mbedtls_aes_crypt_ctr:input <- undef
	.loc	2 1469 5 is_stmt 1              @ ../../../ThirdParty/mbedTLS/library/aes.c:1469:5
	cbz	r1, .LBB12_9
.Ltmp515:
@ %bb.3:
	@DEBUG_VALUE: mbedtls_aes_crypt_ctr:nc_off <- [DW_OP_plus_uconst 4] [$sp+0]
	@DEBUG_VALUE: mbedtls_aes_crypt_ctr:n <- $r7
	@DEBUG_VALUE: mbedtls_aes_crypt_ctr:nonce_counter <- $r5
	@DEBUG_VALUE: mbedtls_aes_crypt_ctr:length <- [DW_OP_constu 1, DW_OP_minus, DW_OP_stack_value] $r3
	@DEBUG_VALUE: mbedtls_aes_crypt_ctr:ctx <- [DW_OP_plus_uconst 12] [$sp+0]
	@DEBUG_VALUE: mbedtls_aes_crypt_ctr:stream_block <- [DW_OP_plus_uconst 48] [$sp+0]
	.loc	2 0 5 is_stmt 0                 @ ../../../ThirdParty/mbedTLS/library/aes.c:0:5
	ldr	r4, [sp, #56]
	ldr	r6, [sp, #52]
	ldr	r0, [sp, #48]
	str	r0, [sp, #24]                   @ 4-byte Spill
	movs	r0, #1
	str	r0, [sp, #8]                    @ 4-byte Spill
	movs	r0, #15
	str	r0, [sp, #20]                   @ 4-byte Spill
	b	.LBB12_5
.Ltmp516:
.LBB12_4:                               @   in Loop: Header=BB12_5 Depth=1
	@DEBUG_VALUE: mbedtls_aes_crypt_ctr:nc_off <- [DW_OP_plus_uconst 4] [$sp+0]
	@DEBUG_VALUE: mbedtls_aes_crypt_ctr:n <- $r7
	@DEBUG_VALUE: mbedtls_aes_crypt_ctr:input <- $r6
	@DEBUG_VALUE: mbedtls_aes_crypt_ctr:nonce_counter <- $r5
	@DEBUG_VALUE: mbedtls_aes_crypt_ctr:output <- $r4
	@DEBUG_VALUE: mbedtls_aes_crypt_ctr:ctx <- [DW_OP_plus_uconst 12] [$sp+0]
	@DEBUG_VALUE: mbedtls_aes_crypt_ctr:stream_block <- [DW_OP_plus_uconst 48] [$sp+0]
	.loc	2 1479 42 is_stmt 1             @ ../../../ThirdParty/mbedTLS/library/aes.c:1479:42
	ldr	r0, [sp, #24]                   @ 4-byte Reload
	ldrb	r0, [r0, r7]
	.loc	2 1478 13                       @ ../../../ThirdParty/mbedTLS/library/aes.c:1478:13
	ldrb	r1, [r6]
.Ltmp517:
	@DEBUG_VALUE: mbedtls_aes_crypt_ctr:c <- [DW_OP_LLVM_convert 8 7, DW_OP_LLVM_convert 32 7, DW_OP_stack_value] $r1
	.loc	2 1479 40                       @ ../../../ThirdParty/mbedTLS/library/aes.c:1479:40
	eors	r1, r0
.Ltmp518:
	.loc	2 1479 19 is_stmt 0             @ ../../../ThirdParty/mbedTLS/library/aes.c:1479:19
	strb	r1, [r4]
	.loc	2 1481 17 is_stmt 1             @ ../../../ThirdParty/mbedTLS/library/aes.c:1481:17
	adds	r7, r7, #1
.Ltmp519:
	.loc	2 1481 23 is_stmt 0             @ ../../../ThirdParty/mbedTLS/library/aes.c:1481:23
	ldr	r0, [sp, #20]                   @ 4-byte Reload
	ands	r7, r0
.Ltmp520:
	@DEBUG_VALUE: mbedtls_aes_crypt_ctr:n <- $r7
	.loc	2 1479 16 is_stmt 1             @ ../../../ThirdParty/mbedTLS/library/aes.c:1479:16
	adds	r4, r4, #1
.Ltmp521:
	@DEBUG_VALUE: mbedtls_aes_crypt_ctr:output <- $r4
	.loc	2 1478 19                       @ ../../../ThirdParty/mbedTLS/library/aes.c:1478:19
	adds	r6, r6, #1
.Ltmp522:
	@DEBUG_VALUE: mbedtls_aes_crypt_ctr:input <- $r6
	@DEBUG_VALUE: mbedtls_aes_crypt_ctr:length <- [DW_OP_constu 1, DW_OP_minus, DW_OP_stack_value] $r3
	.loc	2 1469 5                        @ ../../../ThirdParty/mbedTLS/library/aes.c:1469:5
	cbz	r3, .LBB12_9
.Ltmp523:
.LBB12_5:                               @ =>This Loop Header: Depth=1
                                        @     Child Loop BB12_7 Depth 2
	@DEBUG_VALUE: mbedtls_aes_crypt_ctr:nc_off <- [DW_OP_plus_uconst 4] [$sp+0]
	@DEBUG_VALUE: mbedtls_aes_crypt_ctr:n <- $r7
	@DEBUG_VALUE: mbedtls_aes_crypt_ctr:nonce_counter <- $r5
	@DEBUG_VALUE: mbedtls_aes_crypt_ctr:length <- [DW_OP_constu 1, DW_OP_minus, DW_OP_stack_value] $r3
	@DEBUG_VALUE: mbedtls_aes_crypt_ctr:ctx <- [DW_OP_plus_uconst 12] [$sp+0]
	@DEBUG_VALUE: mbedtls_aes_crypt_ctr:stream_block <- [DW_OP_plus_uconst 48] [$sp+0]
	.loc	2 1469 18 is_stmt 0             @ ../../../ThirdParty/mbedTLS/library/aes.c:1469:18
	subs	r3, r3, #1
.Ltmp524:
	@DEBUG_VALUE: mbedtls_aes_crypt_ctr:n <- $r7
	@DEBUG_VALUE: mbedtls_aes_crypt_ctr:output <- $r4
	@DEBUG_VALUE: mbedtls_aes_crypt_ctr:input <- $r6
	.loc	2 1471 13 is_stmt 1             @ ../../../ThirdParty/mbedTLS/library/aes.c:1471:13
	cmp	r7, #0
	bne	.LBB12_4
.Ltmp525:
@ %bb.6:                                @   in Loop: Header=BB12_5 Depth=1
	@DEBUG_VALUE: mbedtls_aes_crypt_ctr:nc_off <- [DW_OP_plus_uconst 4] [$sp+0]
	@DEBUG_VALUE: mbedtls_aes_crypt_ctr:n <- $r7
	@DEBUG_VALUE: mbedtls_aes_crypt_ctr:input <- $r6
	@DEBUG_VALUE: mbedtls_aes_crypt_ctr:nonce_counter <- $r5
	@DEBUG_VALUE: mbedtls_aes_crypt_ctr:output <- $r4
	@DEBUG_VALUE: mbedtls_aes_crypt_ctr:ctx <- [DW_OP_plus_uconst 12] [$sp+0]
	@DEBUG_VALUE: mbedtls_aes_crypt_ctr:stream_block <- [DW_OP_plus_uconst 48] [$sp+0]
	.loc	2 1472 13                       @ ../../../ThirdParty/mbedTLS/library/aes.c:1472:13
	ldr	r0, [sp, #12]                   @ 4-byte Reload
	ldr	r1, [sp, #8]                    @ 4-byte Reload
	mov	r2, r5
	str	r3, [sp, #16]                   @ 4-byte Spill
	ldr	r3, [sp, #24]                   @ 4-byte Reload
	bl	mbedtls_aes_crypt_ecb
	ldr	r3, [sp, #16]                   @ 4-byte Reload
.Ltmp526:
	@DEBUG_VALUE: mbedtls_aes_crypt_ctr:i <- 16
	.loc	2 0 0 is_stmt 0                 @ ../../../ThirdParty/mbedTLS/library/aes.c:0:0
	ldr	r0, [sp, #20]                   @ 4-byte Reload
.Ltmp527:
.LBB12_7:                               @   Parent Loop BB12_5 Depth=1
                                        @ =>  This Inner Loop Header: Depth=2
	@DEBUG_VALUE: mbedtls_aes_crypt_ctr:nc_off <- [DW_OP_plus_uconst 4] [$sp+0]
	@DEBUG_VALUE: mbedtls_aes_crypt_ctr:n <- $r7
	@DEBUG_VALUE: mbedtls_aes_crypt_ctr:input <- $r6
	@DEBUG_VALUE: mbedtls_aes_crypt_ctr:nonce_counter <- $r5
	@DEBUG_VALUE: mbedtls_aes_crypt_ctr:output <- $r4
	@DEBUG_VALUE: mbedtls_aes_crypt_ctr:ctx <- [DW_OP_plus_uconst 12] [$sp+0]
	@DEBUG_VALUE: mbedtls_aes_crypt_ctr:stream_block <- [DW_OP_plus_uconst 48] [$sp+0]
	@DEBUG_VALUE: mbedtls_aes_crypt_ctr:i <- undef
	.loc	2 1474 28 is_stmt 1             @ ../../../ThirdParty/mbedTLS/library/aes.c:1474:28
	adds	r1, r0, #1
.Ltmp528:
	.loc	2 1474 13 is_stmt 0             @ ../../../ThirdParty/mbedTLS/library/aes.c:1474:13
	bhs	.LBB12_4
.Ltmp529:
@ %bb.8:                                @   in Loop: Header=BB12_7 Depth=2
	@DEBUG_VALUE: mbedtls_aes_crypt_ctr:nc_off <- [DW_OP_plus_uconst 4] [$sp+0]
	@DEBUG_VALUE: mbedtls_aes_crypt_ctr:n <- $r7
	@DEBUG_VALUE: mbedtls_aes_crypt_ctr:input <- $r6
	@DEBUG_VALUE: mbedtls_aes_crypt_ctr:nonce_counter <- $r5
	@DEBUG_VALUE: mbedtls_aes_crypt_ctr:output <- $r4
	@DEBUG_VALUE: mbedtls_aes_crypt_ctr:ctx <- [DW_OP_plus_uconst 12] [$sp+0]
	@DEBUG_VALUE: mbedtls_aes_crypt_ctr:stream_block <- [DW_OP_plus_uconst 48] [$sp+0]
	.loc	2 1475 21 is_stmt 1             @ ../../../ThirdParty/mbedTLS/library/aes.c:1475:21
	ldrb	r1, [r5, r0]
	adds	r1, r1, #1
	strb	r1, [r5, r0]
	uxtb	r2, r1
.Ltmp530:
	.loc	2 1475 21 is_stmt 0             @ ../../../ThirdParty/mbedTLS/library/aes.c:1475:21
	subs	r0, r0, #1
	cmp	r2, r1
	bne	.LBB12_7
	b	.LBB12_4
.Ltmp531:
.LBB12_9:
	@DEBUG_VALUE: mbedtls_aes_crypt_ctr:nc_off <- [DW_OP_plus_uconst 4] [$sp+0]
	@DEBUG_VALUE: mbedtls_aes_crypt_ctr:n <- $r7
	@DEBUG_VALUE: mbedtls_aes_crypt_ctr:nonce_counter <- $r5
	@DEBUG_VALUE: mbedtls_aes_crypt_ctr:length <- [DW_OP_constu 1, DW_OP_minus, DW_OP_stack_value] $r3
	@DEBUG_VALUE: mbedtls_aes_crypt_ctr:ctx <- [DW_OP_plus_uconst 12] [$sp+0]
	@DEBUG_VALUE: mbedtls_aes_crypt_ctr:stream_block <- [DW_OP_plus_uconst 48] [$sp+0]
	@DEBUG_VALUE: mbedtls_aes_crypt_ctr:n <- $r7
	.loc	2 1484 13 is_stmt 1             @ ../../../ThirdParty/mbedTLS/library/aes.c:1484:13
	ldr	r0, [sp, #4]                    @ 4-byte Reload
.Ltmp532:
	@DEBUG_VALUE: mbedtls_aes_crypt_ctr:nc_off <- $r0
	str	r7, [r0]
	movs	r0, #0
.Ltmp533:
	@DEBUG_VALUE: mbedtls_aes_crypt_ctr:nc_off <- [DW_OP_LLVM_entry_value 1] $r2
	.loc	2 1487 1                        @ ../../../ThirdParty/mbedTLS/library/aes.c:1487:1
	add	sp, #28
.Ltmp534:
	pop	{r4, r5, r6, r7, pc}
.Ltmp535:
.Lfunc_end12:
	.size	mbedtls_aes_crypt_ctr, .Lfunc_end12-mbedtls_aes_crypt_ctr
	.cfi_endproc
	.cantunwind
	.fnend
                                        @ -- End function
	.section	.text.mbedtls_aes_self_test,"ax",%progbits
	.hidden	mbedtls_aes_self_test           @ -- Begin function mbedtls_aes_self_test
	.globl	mbedtls_aes_self_test
	.p2align	2
	.type	mbedtls_aes_self_test,%function
	.code	16                              @ @mbedtls_aes_self_test
	.thumb_func
mbedtls_aes_self_test:
.Lfunc_begin13:
	.loc	2 1855 0                        @ ../../../ThirdParty/mbedTLS/library/aes.c:1855:0
	.fnstart
	.cfi_startproc
@ %bb.0:
	@DEBUG_VALUE: mbedtls_aes_self_test:verbose <- $r0
	.save	{r4, r5, r6, r7, lr}
	push	{r4, r5, r6, r7, lr}
	.cfi_def_cfa_offset 20
	.cfi_offset lr, -4
	.cfi_offset r7, -8
	.cfi_offset r6, -12
	.cfi_offset r5, -16
	.cfi_offset r4, -20
	.pad	#492
	sub	sp, #492
	.cfi_def_cfa_offset 512
	str	r0, [sp, #28]                   @ 4-byte Spill
	movs	r4, #0
.Ltmp536:
	@DEBUG_VALUE: mbedtls_aes_self_test:ret <- 0
	@DEBUG_VALUE: mbedtls_aes_self_test:verbose <- [DW_OP_plus_uconst 28] [$sp+0]
	.loc	2 1880 5 prologue_end           @ ../../../ThirdParty/mbedTLS/library/aes.c:1880:5
	str	r4, [sp, #460]
	str	r4, [sp, #464]
	str	r4, [sp, #468]
	str	r4, [sp, #472]
	str	r4, [sp, #476]
	str	r4, [sp, #480]
	str	r4, [sp, #484]
	str	r4, [sp, #488]
	add	r0, sp, #48
	.loc	2 1881 5                        @ ../../../ThirdParty/mbedTLS/library/aes.c:1881:5
	bl	mbedtls_aes_init
.Ltmp537:
	@DEBUG_VALUE: mbedtls_aes_self_test:i <- 0
	.loc	2 0 5 is_stmt 0                 @ ../../../ThirdParty/mbedTLS/library/aes.c:0:5
	movs	r0, #1
	str	r0, [sp, #24]                   @ 4-byte Spill
	str	r4, [sp, #20]                   @ 4-byte Spill
	b	.LBB13_2
.Ltmp538:
.LBB13_1:                               @   in Loop: Header=BB13_2 Depth=1
	@DEBUG_VALUE: mbedtls_aes_self_test:aes_tests <- $r7
	@DEBUG_VALUE: mbedtls_aes_self_test:mode <- $r5
	@DEBUG_VALUE: mbedtls_aes_self_test:i <- $r4
	@DEBUG_VALUE: mbedtls_aes_self_test:verbose <- [DW_OP_plus_uconst 28] [$sp+0]
	@DEBUG_VALUE: mbedtls_aes_self_test:ret <- 0
	.loc	2 1886 25 is_stmt 1             @ ../../../ThirdParty/mbedTLS/library/aes.c:1886:25
	adds	r4, r4, #1
.Ltmp539:
	@DEBUG_VALUE: mbedtls_aes_self_test:i <- $r4
	.loc	2 1886 5 is_stmt 0              @ ../../../ThirdParty/mbedTLS/library/aes.c:1886:5
	cmp	r4, #6
	beq	.LBB13_15
.Ltmp540:
.LBB13_2:                               @ =>This Loop Header: Depth=1
                                        @     Child Loop BB13_10 Depth 2
	@DEBUG_VALUE: mbedtls_aes_self_test:verbose <- [DW_OP_plus_uconst 28] [$sp+0]
	@DEBUG_VALUE: mbedtls_aes_self_test:ret <- 0
	@DEBUG_VALUE: mbedtls_aes_self_test:i <- $r4
	.loc	2 1890 18 is_stmt 1             @ ../../../ThirdParty/mbedTLS/library/aes.c:1890:18
	mov	r5, r4
	ldr	r0, [sp, #24]                   @ 4-byte Reload
	ands	r5, r0
.Ltmp541:
	@DEBUG_VALUE: mbedtls_aes_self_test:mode <- $r5
	.loc	2 1888 15                       @ ../../../ThirdParty/mbedTLS/library/aes.c:1888:15
	lsrs	r6, r4, #1
.Ltmp542:
	@DEBUG_VALUE: mbedtls_aes_self_test:u <- $r6
	.loc	2 1889 27                       @ ../../../ThirdParty/mbedTLS/library/aes.c:1889:27
	lsls	r7, r6, #6
	.loc	2 1889 23 is_stmt 0             @ ../../../ThirdParty/mbedTLS/library/aes.c:1889:23
	adds	r7, #128
.Ltmp543:
	@DEBUG_VALUE: mbedtls_aes_self_test:keybits <- $r7
	.loc	2 1892 13 is_stmt 1             @ ../../../ThirdParty/mbedTLS/library/aes.c:1892:13
	ldr	r0, [sp, #28]                   @ 4-byte Reload
	cbz	r0, .LBB13_6
.Ltmp544:
@ %bb.3:                                @   in Loop: Header=BB13_2 Depth=1
	@DEBUG_VALUE: mbedtls_aes_self_test:keybits <- $r7
	@DEBUG_VALUE: mbedtls_aes_self_test:u <- $r6
	@DEBUG_VALUE: mbedtls_aes_self_test:mode <- $r5
	@DEBUG_VALUE: mbedtls_aes_self_test:i <- $r4
	@DEBUG_VALUE: mbedtls_aes_self_test:verbose <- [DW_OP_plus_uconst 28] [$sp+0]
	@DEBUG_VALUE: mbedtls_aes_self_test:ret <- 0
	.loc	2 1894 29                       @ ../../../ThirdParty/mbedTLS/library/aes.c:1894:29
	ldr	r2, __arm_cp.13_1
	cbz	r5, .LBB13_5
.Ltmp545:
@ %bb.4:                                @   in Loop: Header=BB13_2 Depth=1
	@DEBUG_VALUE: mbedtls_aes_self_test:keybits <- $r7
	@DEBUG_VALUE: mbedtls_aes_self_test:u <- $r6
	@DEBUG_VALUE: mbedtls_aes_self_test:mode <- $r5
	@DEBUG_VALUE: mbedtls_aes_self_test:i <- $r4
	@DEBUG_VALUE: mbedtls_aes_self_test:verbose <- [DW_OP_plus_uconst 28] [$sp+0]
	@DEBUG_VALUE: mbedtls_aes_self_test:ret <- 0
	ldr	r2, __arm_cp.13_2
.Ltmp546:
.LBB13_5:                               @   in Loop: Header=BB13_2 Depth=1
	@DEBUG_VALUE: mbedtls_aes_self_test:keybits <- $r7
	@DEBUG_VALUE: mbedtls_aes_self_test:u <- $r6
	@DEBUG_VALUE: mbedtls_aes_self_test:mode <- $r5
	@DEBUG_VALUE: mbedtls_aes_self_test:i <- $r4
	@DEBUG_VALUE: mbedtls_aes_self_test:verbose <- [DW_OP_plus_uconst 28] [$sp+0]
	@DEBUG_VALUE: mbedtls_aes_self_test:ret <- 0
	.loc	2 1893 13                       @ ../../../ThirdParty/mbedTLS/library/aes.c:1893:13
	adr	r0, .LCPI13_3
	mov	r1, r7
	bl	__2printf
.Ltmp547:
.LBB13_6:                               @   in Loop: Header=BB13_2 Depth=1
	@DEBUG_VALUE: mbedtls_aes_self_test:keybits <- $r7
	@DEBUG_VALUE: mbedtls_aes_self_test:u <- $r6
	@DEBUG_VALUE: mbedtls_aes_self_test:mode <- $r5
	@DEBUG_VALUE: mbedtls_aes_self_test:i <- $r4
	@DEBUG_VALUE: mbedtls_aes_self_test:verbose <- [DW_OP_plus_uconst 28] [$sp+0]
	@DEBUG_VALUE: mbedtls_aes_self_test:ret <- 0
	.loc	2 0 13 is_stmt 0                @ ../../../ThirdParty/mbedTLS/library/aes.c:0:13
	ldr	r0, [sp, #20]                   @ 4-byte Reload
	.loc	2 1896 9 is_stmt 1              @ ../../../ThirdParty/mbedTLS/library/aes.c:1896:9
	str	r0, [sp, #408]
	str	r0, [sp, #404]
	str	r0, [sp, #400]
	str	r0, [sp, #396]
	.loc	2 1898 13                       @ ../../../ThirdParty/mbedTLS/library/aes.c:1898:13
	cbnz	r5, .LBB13_8
.Ltmp548:
@ %bb.7:                                @   in Loop: Header=BB13_2 Depth=1
	@DEBUG_VALUE: mbedtls_aes_self_test:keybits <- $r7
	@DEBUG_VALUE: mbedtls_aes_self_test:u <- $r6
	@DEBUG_VALUE: mbedtls_aes_self_test:mode <- $r5
	@DEBUG_VALUE: mbedtls_aes_self_test:i <- $r4
	@DEBUG_VALUE: mbedtls_aes_self_test:verbose <- [DW_OP_plus_uconst 28] [$sp+0]
	@DEBUG_VALUE: mbedtls_aes_self_test:ret <- 0
	.loc	2 0 13 is_stmt 0                @ ../../../ThirdParty/mbedTLS/library/aes.c:0:13
	add	r0, sp, #48
	add	r1, sp, #460
.Ltmp549:
	.loc	2 1900 19 is_stmt 1             @ ../../../ThirdParty/mbedTLS/library/aes.c:1900:19
	mov	r2, r7
	bl	mbedtls_aes_setkey_dec
	mov	r7, r0
.Ltmp550:
	@DEBUG_VALUE: mbedtls_aes_self_test:aes_tests <- undef
	@DEBUG_VALUE: mbedtls_aes_self_test:ret <- $r7
	.loc	2 0 19 is_stmt 0                @ ../../../ThirdParty/mbedTLS/library/aes.c:0:19
	ldr	r0, __arm_cp.13_5
	@DEBUG_VALUE: mbedtls_aes_self_test:ret <- $r7
	@DEBUG_VALUE: mbedtls_aes_self_test:aes_tests <- undef
	cbz	r7, .LBB13_9
	b	.LBB13_70
.Ltmp551:
.LBB13_8:                               @   in Loop: Header=BB13_2 Depth=1
	@DEBUG_VALUE: mbedtls_aes_self_test:keybits <- $r7
	@DEBUG_VALUE: mbedtls_aes_self_test:u <- $r6
	@DEBUG_VALUE: mbedtls_aes_self_test:mode <- $r5
	@DEBUG_VALUE: mbedtls_aes_self_test:i <- $r4
	@DEBUG_VALUE: mbedtls_aes_self_test:verbose <- [DW_OP_plus_uconst 28] [$sp+0]
	@DEBUG_VALUE: mbedtls_aes_self_test:ret <- 0
	add	r0, sp, #48
	add	r1, sp, #460
.Ltmp552:
	.loc	2 1905 19 is_stmt 1             @ ../../../ThirdParty/mbedTLS/library/aes.c:1905:19
	mov	r2, r7
	bl	mbedtls_aes_setkey_enc
	mov	r7, r0
.Ltmp553:
	@DEBUG_VALUE: mbedtls_aes_self_test:aes_tests <- undef
	@DEBUG_VALUE: mbedtls_aes_self_test:ret <- $r7
	.loc	2 0 19 is_stmt 0                @ ../../../ThirdParty/mbedTLS/library/aes.c:0:19
	ldr	r0, __arm_cp.13_4
.Ltmp554:
	@DEBUG_VALUE: mbedtls_aes_self_test:ret <- $r7
	@DEBUG_VALUE: mbedtls_aes_self_test:aes_tests <- undef
	.loc	2 1919 18 is_stmt 1             @ ../../../ThirdParty/mbedTLS/library/aes.c:1919:18
	cmp	r7, #0
	beq	.LBB13_9
	b	.LBB13_70
.Ltmp555:
.LBB13_9:                               @   in Loop: Header=BB13_2 Depth=1
	@DEBUG_VALUE: mbedtls_aes_self_test:ret <- $r7
	@DEBUG_VALUE: mbedtls_aes_self_test:u <- $r6
	@DEBUG_VALUE: mbedtls_aes_self_test:mode <- $r5
	@DEBUG_VALUE: mbedtls_aes_self_test:i <- $r4
	@DEBUG_VALUE: mbedtls_aes_self_test:verbose <- [DW_OP_plus_uconst 28] [$sp+0]
	.loc	2 0 18 is_stmt 0                @ ../../../ThirdParty/mbedTLS/library/aes.c:0:18
	lsls	r1, r6, #4
	adds	r7, r0, r1
.Ltmp556:
	@DEBUG_VALUE: mbedtls_aes_self_test:aes_tests <- $r7
	ldr	r6, __arm_cp.13_0
.Ltmp557:
.LBB13_10:                              @   Parent Loop BB13_2 Depth=1
                                        @ =>  This Inner Loop Header: Depth=2
	@DEBUG_VALUE: mbedtls_aes_self_test:aes_tests <- $r7
	@DEBUG_VALUE: mbedtls_aes_self_test:mode <- $r5
	@DEBUG_VALUE: mbedtls_aes_self_test:i <- $r4
	@DEBUG_VALUE: mbedtls_aes_self_test:verbose <- [DW_OP_plus_uconst 28] [$sp+0]
	@DEBUG_VALUE: mbedtls_aes_self_test:j <- undef
	add	r0, sp, #48
	add	r2, sp, #396
.Ltmp558:
	.loc	2 1926 19 is_stmt 1             @ ../../../ThirdParty/mbedTLS/library/aes.c:1926:19
	mov	r1, r5
	mov	r3, r2
	bl	mbedtls_aes_crypt_ecb
.Ltmp559:
	@DEBUG_VALUE: mbedtls_aes_self_test:j <- [DW_OP_plus_uconst 1, DW_OP_stack_value] undef
	@DEBUG_VALUE: mbedtls_aes_self_test:ret <- 0
	.loc	2 1924 23                       @ ../../../ThirdParty/mbedTLS/library/aes.c:1924:23
	subs	r6, r6, #1
.Ltmp560:
	.loc	2 1924 9 is_stmt 0              @ ../../../ThirdParty/mbedTLS/library/aes.c:1924:9
	bne	.LBB13_10
.Ltmp561:
@ %bb.11:                               @   in Loop: Header=BB13_2 Depth=1
	@DEBUG_VALUE: mbedtls_aes_self_test:aes_tests <- $r7
	@DEBUG_VALUE: mbedtls_aes_self_test:mode <- $r5
	@DEBUG_VALUE: mbedtls_aes_self_test:i <- $r4
	@DEBUG_VALUE: mbedtls_aes_self_test:verbose <- [DW_OP_plus_uconst 28] [$sp+0]
	@DEBUG_VALUE: mbedtls_aes_self_test:ret <- 0
	.loc	2 0 9                           @ ../../../ThirdParty/mbedTLS/library/aes.c:0:9
	add	r0, sp, #396
	movs	r2, #16
.Ltmp562:
	.loc	2 1931 13 is_stmt 1             @ ../../../ThirdParty/mbedTLS/library/aes.c:1931:13
	mov	r1, r7
	bl	memcmp
.Ltmp563:
	.loc	2 1931 13 is_stmt 0             @ ../../../ThirdParty/mbedTLS/library/aes.c:1931:13
	cbnz	r0, .LBB13_14
.Ltmp564:
@ %bb.12:                               @   in Loop: Header=BB13_2 Depth=1
	@DEBUG_VALUE: mbedtls_aes_self_test:aes_tests <- $r7
	@DEBUG_VALUE: mbedtls_aes_self_test:mode <- $r5
	@DEBUG_VALUE: mbedtls_aes_self_test:i <- $r4
	@DEBUG_VALUE: mbedtls_aes_self_test:verbose <- [DW_OP_plus_uconst 28] [$sp+0]
	@DEBUG_VALUE: mbedtls_aes_self_test:ret <- 0
	.loc	2 1937 13 is_stmt 1             @ ../../../ThirdParty/mbedTLS/library/aes.c:1937:13
	ldr	r0, [sp, #28]                   @ 4-byte Reload
	cmp	r0, #0
	beq	.LBB13_1
.Ltmp565:
@ %bb.13:                               @   in Loop: Header=BB13_2 Depth=1
	@DEBUG_VALUE: mbedtls_aes_self_test:aes_tests <- $r7
	@DEBUG_VALUE: mbedtls_aes_self_test:mode <- $r5
	@DEBUG_VALUE: mbedtls_aes_self_test:i <- $r4
	@DEBUG_VALUE: mbedtls_aes_self_test:verbose <- [DW_OP_plus_uconst 28] [$sp+0]
	@DEBUG_VALUE: mbedtls_aes_self_test:ret <- 0
	.loc	2 1938 13                       @ ../../../ThirdParty/mbedTLS/library/aes.c:1938:13
	adr	r0, .LCPI13_6
	bl	puts
	b	.LBB13_1
.Ltmp566:
.LBB13_14:
	@DEBUG_VALUE: mbedtls_aes_self_test:aes_tests <- $r7
	@DEBUG_VALUE: mbedtls_aes_self_test:mode <- $r5
	@DEBUG_VALUE: mbedtls_aes_self_test:i <- $r4
	@DEBUG_VALUE: mbedtls_aes_self_test:verbose <- [DW_OP_plus_uconst 28] [$sp+0]
	@DEBUG_VALUE: mbedtls_aes_self_test:ret <- 0
	.loc	2 0 0 is_stmt 0                 @ ../../../ThirdParty/mbedTLS/library/aes.c:0:0
	ldr	r7, [sp, #24]                   @ 4-byte Reload
.Ltmp567:
	b	.LBB13_70
.Ltmp568:
.LBB13_15:
	@DEBUG_VALUE: mbedtls_aes_self_test:aes_tests <- $r7
	@DEBUG_VALUE: mbedtls_aes_self_test:mode <- $r5
	@DEBUG_VALUE: mbedtls_aes_self_test:i <- $r4
	@DEBUG_VALUE: mbedtls_aes_self_test:verbose <- [DW_OP_plus_uconst 28] [$sp+0]
	@DEBUG_VALUE: mbedtls_aes_self_test:ret <- 0
	.loc	2 1941 9 is_stmt 1              @ ../../../ThirdParty/mbedTLS/library/aes.c:1941:9
	ldr	r0, [sp, #28]                   @ 4-byte Reload
	cbz	r0, .LBB13_17
.Ltmp569:
@ %bb.16:
	@DEBUG_VALUE: mbedtls_aes_self_test:aes_tests <- $r7
	@DEBUG_VALUE: mbedtls_aes_self_test:mode <- $r5
	@DEBUG_VALUE: mbedtls_aes_self_test:i <- $r4
	@DEBUG_VALUE: mbedtls_aes_self_test:verbose <- [DW_OP_plus_uconst 28] [$sp+0]
	@DEBUG_VALUE: mbedtls_aes_self_test:ret <- 0
	.loc	2 0 9 is_stmt 0                 @ ../../../ThirdParty/mbedTLS/library/aes.c:0:9
	movs	r0, #10
.Ltmp570:
	.loc	2 1942 9 is_stmt 1              @ ../../../ThirdParty/mbedTLS/library/aes.c:1942:9
	bl	putchar
.Ltmp571:
.LBB13_17:
	@DEBUG_VALUE: mbedtls_aes_self_test:aes_tests <- $r7
	@DEBUG_VALUE: mbedtls_aes_self_test:mode <- $r5
	@DEBUG_VALUE: mbedtls_aes_self_test:i <- $r4
	@DEBUG_VALUE: mbedtls_aes_self_test:verbose <- [DW_OP_plus_uconst 28] [$sp+0]
	@DEBUG_VALUE: mbedtls_aes_self_test:ret <- 0
	.loc	2 0 9 is_stmt 0                 @ ../../../ThirdParty/mbedTLS/library/aes.c:0:9
	movs	r0, #0
.Ltmp572:
	@DEBUG_VALUE: mbedtls_aes_self_test:i <- 0
	movs	r4, #1
	movs	r5, #16
.Ltmp573:
	str	r0, [sp, #20]                   @ 4-byte Spill
	str	r4, [sp, #12]                   @ 4-byte Spill
.Ltmp574:
.LBB13_18:                              @ =>This Loop Header: Depth=1
                                        @     Child Loop BB13_27 Depth 2
	@DEBUG_VALUE: mbedtls_aes_self_test:verbose <- [DW_OP_plus_uconst 28] [$sp+0]
	@DEBUG_VALUE: mbedtls_aes_self_test:i <- $r0
	.loc	2 1952 18 is_stmt 1             @ ../../../ThirdParty/mbedTLS/library/aes.c:1952:18
	mov	r6, r0
	ands	r6, r4
.Ltmp575:
	@DEBUG_VALUE: mbedtls_aes_self_test:mode <- $r6
	.loc	2 0 18 is_stmt 0                @ ../../../ThirdParty/mbedTLS/library/aes.c:0:18
	str	r0, [sp, #16]                   @ 4-byte Spill
.Ltmp576:
	@DEBUG_VALUE: mbedtls_aes_self_test:i <- [DW_OP_plus_uconst 16] [$sp+0]
	.loc	2 1950 15 is_stmt 1             @ ../../../ThirdParty/mbedTLS/library/aes.c:1950:15
	lsrs	r0, r0, #1
.Ltmp577:
	@DEBUG_VALUE: mbedtls_aes_self_test:u <- $r0
	.loc	2 0 15 is_stmt 0                @ ../../../ThirdParty/mbedTLS/library/aes.c:0:15
	str	r0, [sp, #24]                   @ 4-byte Spill
.Ltmp578:
	@DEBUG_VALUE: mbedtls_aes_self_test:u <- [DW_OP_plus_uconst 24] [$sp+0]
	.loc	2 1951 27 is_stmt 1             @ ../../../ThirdParty/mbedTLS/library/aes.c:1951:27
	lsls	r7, r0, #6
	.loc	2 1951 23 is_stmt 0             @ ../../../ThirdParty/mbedTLS/library/aes.c:1951:23
	adds	r7, #128
.Ltmp579:
	@DEBUG_VALUE: mbedtls_aes_self_test:keybits <- $r7
	.loc	2 1954 13 is_stmt 1             @ ../../../ThirdParty/mbedTLS/library/aes.c:1954:13
	ldr	r0, [sp, #28]                   @ 4-byte Reload
	cbz	r0, .LBB13_22
.Ltmp580:
@ %bb.19:                               @   in Loop: Header=BB13_18 Depth=1
	@DEBUG_VALUE: mbedtls_aes_self_test:keybits <- $r7
	@DEBUG_VALUE: mbedtls_aes_self_test:mode <- $r6
	@DEBUG_VALUE: mbedtls_aes_self_test:u <- [DW_OP_plus_uconst 24] [$sp+0]
	@DEBUG_VALUE: mbedtls_aes_self_test:i <- [DW_OP_plus_uconst 16] [$sp+0]
	@DEBUG_VALUE: mbedtls_aes_self_test:verbose <- [DW_OP_plus_uconst 28] [$sp+0]
	.loc	2 1956 29                       @ ../../../ThirdParty/mbedTLS/library/aes.c:1956:29
	ldr	r2, __arm_cp.13_1
	cbz	r6, .LBB13_21
.Ltmp581:
@ %bb.20:                               @   in Loop: Header=BB13_18 Depth=1
	@DEBUG_VALUE: mbedtls_aes_self_test:keybits <- $r7
	@DEBUG_VALUE: mbedtls_aes_self_test:mode <- $r6
	@DEBUG_VALUE: mbedtls_aes_self_test:u <- [DW_OP_plus_uconst 24] [$sp+0]
	@DEBUG_VALUE: mbedtls_aes_self_test:i <- [DW_OP_plus_uconst 16] [$sp+0]
	@DEBUG_VALUE: mbedtls_aes_self_test:verbose <- [DW_OP_plus_uconst 28] [$sp+0]
	ldr	r2, __arm_cp.13_2
.Ltmp582:
.LBB13_21:                              @   in Loop: Header=BB13_18 Depth=1
	@DEBUG_VALUE: mbedtls_aes_self_test:keybits <- $r7
	@DEBUG_VALUE: mbedtls_aes_self_test:mode <- $r6
	@DEBUG_VALUE: mbedtls_aes_self_test:u <- [DW_OP_plus_uconst 24] [$sp+0]
	@DEBUG_VALUE: mbedtls_aes_self_test:i <- [DW_OP_plus_uconst 16] [$sp+0]
	@DEBUG_VALUE: mbedtls_aes_self_test:verbose <- [DW_OP_plus_uconst 28] [$sp+0]
	.loc	2 1955 13                       @ ../../../ThirdParty/mbedTLS/library/aes.c:1955:13
	adr	r0, .LCPI13_7
	mov	r1, r7
	bl	__2printf
.Ltmp583:
.LBB13_22:                              @   in Loop: Header=BB13_18 Depth=1
	@DEBUG_VALUE: mbedtls_aes_self_test:keybits <- $r7
	@DEBUG_VALUE: mbedtls_aes_self_test:mode <- $r6
	@DEBUG_VALUE: mbedtls_aes_self_test:u <- [DW_OP_plus_uconst 24] [$sp+0]
	@DEBUG_VALUE: mbedtls_aes_self_test:i <- [DW_OP_plus_uconst 16] [$sp+0]
	@DEBUG_VALUE: mbedtls_aes_self_test:verbose <- [DW_OP_plus_uconst 28] [$sp+0]
	.loc	2 0 13 is_stmt 0                @ ../../../ThirdParty/mbedTLS/library/aes.c:0:13
	ldr	r0, [sp, #20]                   @ 4-byte Reload
	.loc	2 1958 9 is_stmt 1              @ ../../../ThirdParty/mbedTLS/library/aes.c:1958:9
	str	r0, [sp, #392]
	str	r0, [sp, #388]
	str	r0, [sp, #384]
	str	r0, [sp, #380]
	.loc	2 1959 9                        @ ../../../ThirdParty/mbedTLS/library/aes.c:1959:9
	str	r0, [sp, #364]
	str	r0, [sp, #368]
	str	r0, [sp, #372]
	str	r0, [sp, #376]
	.loc	2 1960 9                        @ ../../../ThirdParty/mbedTLS/library/aes.c:1960:9
	str	r0, [sp, #396]
	str	r0, [sp, #400]
	str	r0, [sp, #404]
	str	r0, [sp, #408]
	.loc	2 1962 13                       @ ../../../ThirdParty/mbedTLS/library/aes.c:1962:13
	cbnz	r6, .LBB13_24
.Ltmp584:
@ %bb.23:                               @   in Loop: Header=BB13_18 Depth=1
	@DEBUG_VALUE: mbedtls_aes_self_test:keybits <- $r7
	@DEBUG_VALUE: mbedtls_aes_self_test:mode <- $r6
	@DEBUG_VALUE: mbedtls_aes_self_test:u <- [DW_OP_plus_uconst 24] [$sp+0]
	@DEBUG_VALUE: mbedtls_aes_self_test:i <- [DW_OP_plus_uconst 16] [$sp+0]
	@DEBUG_VALUE: mbedtls_aes_self_test:verbose <- [DW_OP_plus_uconst 28] [$sp+0]
	.loc	2 0 13 is_stmt 0                @ ../../../ThirdParty/mbedTLS/library/aes.c:0:13
	add	r0, sp, #48
	add	r1, sp, #460
.Ltmp585:
	.loc	2 1964 19 is_stmt 1             @ ../../../ThirdParty/mbedTLS/library/aes.c:1964:19
	mov	r2, r7
	bl	mbedtls_aes_setkey_dec
	mov	r7, r0
.Ltmp586:
	@DEBUG_VALUE: mbedtls_aes_self_test:aes_tests <- undef
	@DEBUG_VALUE: mbedtls_aes_self_test:ret <- $r7
	.loc	2 0 19 is_stmt 0                @ ../../../ThirdParty/mbedTLS/library/aes.c:0:19
	ldr	r0, __arm_cp.13_9
	b	.LBB13_25
.Ltmp587:
.LBB13_24:                              @   in Loop: Header=BB13_18 Depth=1
	@DEBUG_VALUE: mbedtls_aes_self_test:keybits <- $r7
	@DEBUG_VALUE: mbedtls_aes_self_test:mode <- $r6
	@DEBUG_VALUE: mbedtls_aes_self_test:u <- [DW_OP_plus_uconst 24] [$sp+0]
	@DEBUG_VALUE: mbedtls_aes_self_test:i <- [DW_OP_plus_uconst 16] [$sp+0]
	@DEBUG_VALUE: mbedtls_aes_self_test:verbose <- [DW_OP_plus_uconst 28] [$sp+0]
	add	r0, sp, #48
	add	r1, sp, #460
.Ltmp588:
	.loc	2 1969 19 is_stmt 1             @ ../../../ThirdParty/mbedTLS/library/aes.c:1969:19
	mov	r2, r7
	bl	mbedtls_aes_setkey_enc
	mov	r7, r0
.Ltmp589:
	@DEBUG_VALUE: mbedtls_aes_self_test:aes_tests <- undef
	@DEBUG_VALUE: mbedtls_aes_self_test:ret <- $r7
	.loc	2 0 19 is_stmt 0                @ ../../../ThirdParty/mbedTLS/library/aes.c:0:19
	ldr	r0, __arm_cp.13_8
.Ltmp590:
.LBB13_25:                              @   in Loop: Header=BB13_18 Depth=1
	@DEBUG_VALUE: mbedtls_aes_self_test:ret <- $r7
	@DEBUG_VALUE: mbedtls_aes_self_test:mode <- $r6
	@DEBUG_VALUE: mbedtls_aes_self_test:u <- [DW_OP_plus_uconst 24] [$sp+0]
	@DEBUG_VALUE: mbedtls_aes_self_test:i <- [DW_OP_plus_uconst 16] [$sp+0]
	@DEBUG_VALUE: mbedtls_aes_self_test:verbose <- [DW_OP_plus_uconst 28] [$sp+0]
	@DEBUG_VALUE: mbedtls_aes_self_test:ret <- $r7
	@DEBUG_VALUE: mbedtls_aes_self_test:aes_tests <- undef
	.loc	2 1983 18 is_stmt 1             @ ../../../ThirdParty/mbedTLS/library/aes.c:1983:18
	cmp	r7, #0
	beq	.LBB13_26
	b	.LBB13_70
.Ltmp591:
.LBB13_26:                              @   in Loop: Header=BB13_18 Depth=1
	@DEBUG_VALUE: mbedtls_aes_self_test:ret <- $r7
	@DEBUG_VALUE: mbedtls_aes_self_test:mode <- $r6
	@DEBUG_VALUE: mbedtls_aes_self_test:u <- [DW_OP_plus_uconst 24] [$sp+0]
	@DEBUG_VALUE: mbedtls_aes_self_test:i <- [DW_OP_plus_uconst 16] [$sp+0]
	@DEBUG_VALUE: mbedtls_aes_self_test:verbose <- [DW_OP_plus_uconst 28] [$sp+0]
	.loc	2 0 18 is_stmt 0                @ ../../../ThirdParty/mbedTLS/library/aes.c:0:18
	ldr	r1, [sp, #24]                   @ 4-byte Reload
	lsls	r1, r1, #4
	adds	r0, r0, r1
.Ltmp592:
	@DEBUG_VALUE: mbedtls_aes_self_test:aes_tests <- $r0
	str	r0, [sp, #24]                   @ 4-byte Spill
.Ltmp593:
	@DEBUG_VALUE: mbedtls_aes_self_test:aes_tests <- [DW_OP_plus_uconst 24] [$sp+0]
	@DEBUG_VALUE: mbedtls_aes_self_test:aes_tests <- [DW_OP_plus_uconst 24] [$sp+0]
	ldr	r4, __arm_cp.13_0
.Ltmp594:
.LBB13_27:                              @   Parent Loop BB13_18 Depth=1
                                        @ =>  This Inner Loop Header: Depth=2
	@DEBUG_VALUE: mbedtls_aes_self_test:mode <- $r6
	@DEBUG_VALUE: mbedtls_aes_self_test:aes_tests <- [DW_OP_plus_uconst 24] [$sp+0]
	@DEBUG_VALUE: mbedtls_aes_self_test:u <- [DW_OP_plus_uconst 24] [$sp+0]
	@DEBUG_VALUE: mbedtls_aes_self_test:i <- [DW_OP_plus_uconst 16] [$sp+0]
	@DEBUG_VALUE: mbedtls_aes_self_test:verbose <- [DW_OP_plus_uconst 28] [$sp+0]
	@DEBUG_VALUE: mbedtls_aes_self_test:j <- undef
	.loc	2 1990 17 is_stmt 1             @ ../../../ThirdParty/mbedTLS/library/aes.c:1990:17
	cbz	r6, .LBB13_29
.Ltmp595:
@ %bb.28:                               @   in Loop: Header=BB13_27 Depth=2
	@DEBUG_VALUE: mbedtls_aes_self_test:mode <- $r6
	@DEBUG_VALUE: mbedtls_aes_self_test:aes_tests <- [DW_OP_plus_uconst 24] [$sp+0]
	@DEBUG_VALUE: mbedtls_aes_self_test:u <- [DW_OP_plus_uconst 24] [$sp+0]
	@DEBUG_VALUE: mbedtls_aes_self_test:i <- [DW_OP_plus_uconst 16] [$sp+0]
	@DEBUG_VALUE: mbedtls_aes_self_test:verbose <- [DW_OP_plus_uconst 28] [$sp+0]
	.loc	2 1994 17                       @ ../../../ThirdParty/mbedTLS/library/aes.c:1994:17
	ldr	r0, [sp, #364]
	.loc	2 1995 17                       @ ../../../ThirdParty/mbedTLS/library/aes.c:1995:17
	ldr	r1, [sp, #396]
	str	r1, [sp, #364]
	.loc	2 1994 17                       @ ../../../ThirdParty/mbedTLS/library/aes.c:1994:17
	ldr	r1, [sp, #368]
	.loc	2 1995 17                       @ ../../../ThirdParty/mbedTLS/library/aes.c:1995:17
	ldr	r2, [sp, #400]
	str	r2, [sp, #368]
	.loc	2 1994 17                       @ ../../../ThirdParty/mbedTLS/library/aes.c:1994:17
	ldr	r2, [sp, #372]
	.loc	2 1995 17                       @ ../../../ThirdParty/mbedTLS/library/aes.c:1995:17
	ldr	r3, [sp, #404]
	str	r3, [sp, #372]
	.loc	2 1994 17                       @ ../../../ThirdParty/mbedTLS/library/aes.c:1994:17
	ldr	r3, [sp, #376]
	.loc	2 1995 17                       @ ../../../ThirdParty/mbedTLS/library/aes.c:1995:17
	ldr	r7, [sp, #408]
	str	r7, [sp, #376]
	.loc	2 1996 17                       @ ../../../ThirdParty/mbedTLS/library/aes.c:1996:17
	str	r0, [sp, #396]
	str	r1, [sp, #400]
	str	r2, [sp, #404]
	str	r3, [sp, #408]
.Ltmp596:
.LBB13_29:                              @   in Loop: Header=BB13_27 Depth=2
	@DEBUG_VALUE: mbedtls_aes_self_test:mode <- $r6
	@DEBUG_VALUE: mbedtls_aes_self_test:aes_tests <- [DW_OP_plus_uconst 24] [$sp+0]
	@DEBUG_VALUE: mbedtls_aes_self_test:u <- [DW_OP_plus_uconst 24] [$sp+0]
	@DEBUG_VALUE: mbedtls_aes_self_test:i <- [DW_OP_plus_uconst 16] [$sp+0]
	@DEBUG_VALUE: mbedtls_aes_self_test:verbose <- [DW_OP_plus_uconst 28] [$sp+0]
	.loc	2 0 17 is_stmt 0                @ ../../../ThirdParty/mbedTLS/library/aes.c:0:17
	add	r0, sp, #396
	.loc	2 1999 19 is_stmt 1             @ ../../../ThirdParty/mbedTLS/library/aes.c:1999:19
	str	r0, [sp]
	str	r0, [sp, #4]
	add	r0, sp, #48
	add	r3, sp, #380
	mov	r1, r6
	mov	r2, r5
	bl	mbedtls_aes_crypt_cbc
.Ltmp597:
	@DEBUG_VALUE: mbedtls_aes_self_test:j <- [DW_OP_plus_uconst 1, DW_OP_stack_value] undef
	@DEBUG_VALUE: mbedtls_aes_self_test:ret <- $r0
	.loc	2 2000 17                       @ ../../../ThirdParty/mbedTLS/library/aes.c:2000:17
	cmp	r0, #0
	beq	.LBB13_30
	b	.LBB13_69
.Ltmp598:
.LBB13_30:                              @   in Loop: Header=BB13_27 Depth=2
	@DEBUG_VALUE: mbedtls_aes_self_test:mode <- $r6
	@DEBUG_VALUE: mbedtls_aes_self_test:ret <- $r0
	@DEBUG_VALUE: mbedtls_aes_self_test:aes_tests <- [DW_OP_plus_uconst 24] [$sp+0]
	@DEBUG_VALUE: mbedtls_aes_self_test:u <- [DW_OP_plus_uconst 24] [$sp+0]
	@DEBUG_VALUE: mbedtls_aes_self_test:i <- [DW_OP_plus_uconst 16] [$sp+0]
	@DEBUG_VALUE: mbedtls_aes_self_test:verbose <- [DW_OP_plus_uconst 28] [$sp+0]
	@DEBUG_VALUE: mbedtls_aes_self_test:j <- [DW_OP_plus_uconst 1, DW_OP_stack_value] undef
	.loc	2 1988 23                       @ ../../../ThirdParty/mbedTLS/library/aes.c:1988:23
	subs	r4, r4, #1
.Ltmp599:
	.loc	2 1988 9 is_stmt 0              @ ../../../ThirdParty/mbedTLS/library/aes.c:1988:9
	bne	.LBB13_27
.Ltmp600:
@ %bb.31:                               @   in Loop: Header=BB13_18 Depth=1
	@DEBUG_VALUE: mbedtls_aes_self_test:mode <- $r6
	@DEBUG_VALUE: mbedtls_aes_self_test:ret <- $r0
	@DEBUG_VALUE: mbedtls_aes_self_test:aes_tests <- [DW_OP_plus_uconst 24] [$sp+0]
	@DEBUG_VALUE: mbedtls_aes_self_test:u <- [DW_OP_plus_uconst 24] [$sp+0]
	@DEBUG_VALUE: mbedtls_aes_self_test:i <- [DW_OP_plus_uconst 16] [$sp+0]
	@DEBUG_VALUE: mbedtls_aes_self_test:verbose <- [DW_OP_plus_uconst 28] [$sp+0]
	.loc	2 0 9                           @ ../../../ThirdParty/mbedTLS/library/aes.c:0:9
	add	r0, sp, #396
.Ltmp601:
	movs	r2, #16
.Ltmp602:
	.loc	2 2005 13 is_stmt 1             @ ../../../ThirdParty/mbedTLS/library/aes.c:2005:13
	ldr	r1, [sp, #24]                   @ 4-byte Reload
	bl	memcmp
.Ltmp603:
	.loc	2 2005 13 is_stmt 0             @ ../../../ThirdParty/mbedTLS/library/aes.c:2005:13
	cmp	r0, #0
	bne	.LBB13_51
.Ltmp604:
@ %bb.32:                               @   in Loop: Header=BB13_18 Depth=1
	@DEBUG_VALUE: mbedtls_aes_self_test:mode <- $r6
	@DEBUG_VALUE: mbedtls_aes_self_test:aes_tests <- [DW_OP_plus_uconst 24] [$sp+0]
	@DEBUG_VALUE: mbedtls_aes_self_test:u <- [DW_OP_plus_uconst 24] [$sp+0]
	@DEBUG_VALUE: mbedtls_aes_self_test:i <- [DW_OP_plus_uconst 16] [$sp+0]
	@DEBUG_VALUE: mbedtls_aes_self_test:verbose <- [DW_OP_plus_uconst 28] [$sp+0]
	.loc	2 2011 13 is_stmt 1             @ ../../../ThirdParty/mbedTLS/library/aes.c:2011:13
	ldr	r0, [sp, #28]                   @ 4-byte Reload
	ldr	r4, [sp, #12]                   @ 4-byte Reload
	cbz	r0, .LBB13_34
.Ltmp605:
@ %bb.33:                               @   in Loop: Header=BB13_18 Depth=1
	@DEBUG_VALUE: mbedtls_aes_self_test:mode <- $r6
	@DEBUG_VALUE: mbedtls_aes_self_test:aes_tests <- [DW_OP_plus_uconst 24] [$sp+0]
	@DEBUG_VALUE: mbedtls_aes_self_test:u <- [DW_OP_plus_uconst 24] [$sp+0]
	@DEBUG_VALUE: mbedtls_aes_self_test:i <- [DW_OP_plus_uconst 16] [$sp+0]
	@DEBUG_VALUE: mbedtls_aes_self_test:verbose <- [DW_OP_plus_uconst 28] [$sp+0]
	.loc	2 2012 13                       @ ../../../ThirdParty/mbedTLS/library/aes.c:2012:13
	adr	r0, .LCPI13_6
	bl	puts
.Ltmp606:
.LBB13_34:                              @   in Loop: Header=BB13_18 Depth=1
	@DEBUG_VALUE: mbedtls_aes_self_test:mode <- $r6
	@DEBUG_VALUE: mbedtls_aes_self_test:aes_tests <- [DW_OP_plus_uconst 24] [$sp+0]
	@DEBUG_VALUE: mbedtls_aes_self_test:u <- [DW_OP_plus_uconst 24] [$sp+0]
	@DEBUG_VALUE: mbedtls_aes_self_test:i <- [DW_OP_plus_uconst 16] [$sp+0]
	@DEBUG_VALUE: mbedtls_aes_self_test:verbose <- [DW_OP_plus_uconst 28] [$sp+0]
	.loc	2 0 13 is_stmt 0                @ ../../../ThirdParty/mbedTLS/library/aes.c:0:13
	ldr	r0, [sp, #16]                   @ 4-byte Reload
	.loc	2 1948 25 is_stmt 1             @ ../../../ThirdParty/mbedTLS/library/aes.c:1948:25
	adds	r0, r0, #1
.Ltmp607:
	@DEBUG_VALUE: mbedtls_aes_self_test:i <- $r0
	.loc	2 1948 5 is_stmt 0              @ ../../../ThirdParty/mbedTLS/library/aes.c:1948:5
	cmp	r0, #6
	bne	.LBB13_18
.Ltmp608:
@ %bb.35:
	@DEBUG_VALUE: mbedtls_aes_self_test:mode <- $r6
	@DEBUG_VALUE: mbedtls_aes_self_test:i <- $r0
	@DEBUG_VALUE: mbedtls_aes_self_test:aes_tests <- [DW_OP_plus_uconst 24] [$sp+0]
	@DEBUG_VALUE: mbedtls_aes_self_test:u <- [DW_OP_plus_uconst 24] [$sp+0]
	@DEBUG_VALUE: mbedtls_aes_self_test:verbose <- [DW_OP_plus_uconst 28] [$sp+0]
	.loc	2 2015 9 is_stmt 1              @ ../../../ThirdParty/mbedTLS/library/aes.c:2015:9
	ldr	r0, [sp, #28]                   @ 4-byte Reload
.Ltmp609:
	cbz	r0, .LBB13_37
.Ltmp610:
@ %bb.36:
	@DEBUG_VALUE: mbedtls_aes_self_test:mode <- $r6
	@DEBUG_VALUE: mbedtls_aes_self_test:aes_tests <- [DW_OP_plus_uconst 24] [$sp+0]
	@DEBUG_VALUE: mbedtls_aes_self_test:u <- [DW_OP_plus_uconst 24] [$sp+0]
	@DEBUG_VALUE: mbedtls_aes_self_test:verbose <- [DW_OP_plus_uconst 28] [$sp+0]
	.loc	2 0 9 is_stmt 0                 @ ../../../ThirdParty/mbedTLS/library/aes.c:0:9
	movs	r0, #10
.Ltmp611:
	.loc	2 2016 9 is_stmt 1              @ ../../../ThirdParty/mbedTLS/library/aes.c:2016:9
	bl	putchar
.Ltmp612:
.LBB13_37:
	@DEBUG_VALUE: mbedtls_aes_self_test:mode <- $r6
	@DEBUG_VALUE: mbedtls_aes_self_test:aes_tests <- [DW_OP_plus_uconst 24] [$sp+0]
	@DEBUG_VALUE: mbedtls_aes_self_test:u <- [DW_OP_plus_uconst 24] [$sp+0]
	@DEBUG_VALUE: mbedtls_aes_self_test:verbose <- [DW_OP_plus_uconst 28] [$sp+0]
	.loc	2 0 9 is_stmt 0                 @ ../../../ThirdParty/mbedTLS/library/aes.c:0:9
	movs	r5, #0
	movs	r0, #1
	str	r0, [sp, #16]                   @ 4-byte Spill
	b	.LBB13_39
.Ltmp613:
.LBB13_38:                              @   in Loop: Header=BB13_39 Depth=1
	@DEBUG_VALUE: mbedtls_aes_self_test:aes_tests <- $r6
	@DEBUG_VALUE: mbedtls_aes_self_test:i <- $r5
	@DEBUG_VALUE: mbedtls_aes_self_test:mode <- $r4
	@DEBUG_VALUE: mbedtls_aes_self_test:offset <- [DW_OP_plus_uconst 360, DW_OP_deref] $sp
	@DEBUG_VALUE: mbedtls_aes_self_test:verbose <- [DW_OP_plus_uconst 28] [$sp+0]
	.loc	2 2023 25 is_stmt 1             @ ../../../ThirdParty/mbedTLS/library/aes.c:2023:25
	adds	r5, r5, #1
.Ltmp614:
	@DEBUG_VALUE: mbedtls_aes_self_test:i <- $r5
	.loc	2 2023 5 is_stmt 0              @ ../../../ThirdParty/mbedTLS/library/aes.c:2023:5
	cmp	r5, #6
	beq	.LBB13_52
.Ltmp615:
.LBB13_39:                              @ =>This Inner Loop Header: Depth=1
	@DEBUG_VALUE: mbedtls_aes_self_test:verbose <- [DW_OP_plus_uconst 28] [$sp+0]
	@DEBUG_VALUE: mbedtls_aes_self_test:i <- $r5
	.loc	2 2027 18 is_stmt 1             @ ../../../ThirdParty/mbedTLS/library/aes.c:2027:18
	mov	r4, r5
	ldr	r0, [sp, #16]                   @ 4-byte Reload
	ands	r4, r0
.Ltmp616:
	@DEBUG_VALUE: mbedtls_aes_self_test:mode <- $r4
	.loc	2 2025 15                       @ ../../../ThirdParty/mbedTLS/library/aes.c:2025:15
	lsrs	r6, r5, #1
.Ltmp617:
	@DEBUG_VALUE: mbedtls_aes_self_test:u <- $r6
	.loc	2 2026 27                       @ ../../../ThirdParty/mbedTLS/library/aes.c:2026:27
	lsls	r7, r6, #6
	str	r7, [sp, #24]                   @ 4-byte Spill
	.loc	2 2026 23 is_stmt 0             @ ../../../ThirdParty/mbedTLS/library/aes.c:2026:23
	adds	r7, #128
.Ltmp618:
	@DEBUG_VALUE: mbedtls_aes_self_test:keybits <- $r7
	.loc	2 2029 13 is_stmt 1             @ ../../../ThirdParty/mbedTLS/library/aes.c:2029:13
	ldr	r0, [sp, #28]                   @ 4-byte Reload
	cbz	r0, .LBB13_43
.Ltmp619:
@ %bb.40:                               @   in Loop: Header=BB13_39 Depth=1
	@DEBUG_VALUE: mbedtls_aes_self_test:keybits <- $r7
	@DEBUG_VALUE: mbedtls_aes_self_test:u <- $r6
	@DEBUG_VALUE: mbedtls_aes_self_test:i <- $r5
	@DEBUG_VALUE: mbedtls_aes_self_test:mode <- $r4
	@DEBUG_VALUE: mbedtls_aes_self_test:verbose <- [DW_OP_plus_uconst 28] [$sp+0]
	.loc	2 2031 29                       @ ../../../ThirdParty/mbedTLS/library/aes.c:2031:29
	ldr	r2, __arm_cp.13_1
	cbz	r4, .LBB13_42
.Ltmp620:
@ %bb.41:                               @   in Loop: Header=BB13_39 Depth=1
	@DEBUG_VALUE: mbedtls_aes_self_test:keybits <- $r7
	@DEBUG_VALUE: mbedtls_aes_self_test:u <- $r6
	@DEBUG_VALUE: mbedtls_aes_self_test:i <- $r5
	@DEBUG_VALUE: mbedtls_aes_self_test:mode <- $r4
	@DEBUG_VALUE: mbedtls_aes_self_test:verbose <- [DW_OP_plus_uconst 28] [$sp+0]
	ldr	r2, __arm_cp.13_2
.Ltmp621:
.LBB13_42:                              @   in Loop: Header=BB13_39 Depth=1
	@DEBUG_VALUE: mbedtls_aes_self_test:keybits <- $r7
	@DEBUG_VALUE: mbedtls_aes_self_test:u <- $r6
	@DEBUG_VALUE: mbedtls_aes_self_test:i <- $r5
	@DEBUG_VALUE: mbedtls_aes_self_test:mode <- $r4
	@DEBUG_VALUE: mbedtls_aes_self_test:verbose <- [DW_OP_plus_uconst 28] [$sp+0]
	.loc	2 2030 13                       @ ../../../ThirdParty/mbedTLS/library/aes.c:2030:13
	adr	r0, .LCPI13_10
	mov	r1, r7
	bl	__2printf
.Ltmp622:
.LBB13_43:                              @   in Loop: Header=BB13_39 Depth=1
	@DEBUG_VALUE: mbedtls_aes_self_test:keybits <- $r7
	@DEBUG_VALUE: mbedtls_aes_self_test:u <- $r6
	@DEBUG_VALUE: mbedtls_aes_self_test:i <- $r5
	@DEBUG_VALUE: mbedtls_aes_self_test:mode <- $r4
	@DEBUG_VALUE: mbedtls_aes_self_test:verbose <- [DW_OP_plus_uconst 28] [$sp+0]
	.loc	2 2033 9                        @ ../../../ThirdParty/mbedTLS/library/aes.c:2033:9
	ldr	r0, __arm_cp.13_11
	str	r0, [sp, #392]
	ldr	r0, __arm_cp.13_12
	str	r0, [sp, #388]
	ldr	r0, __arm_cp.13_13
	str	r0, [sp, #384]
	ldr	r0, __arm_cp.13_14
	str	r0, [sp, #380]
	.loc	2 2034 9                        @ ../../../ThirdParty/mbedTLS/library/aes.c:2034:9
	lsls	r0, r6, #5
	ldr	r1, __arm_cp.13_15
	adds	r1, r1, r0
	.loc	2 2034 54 is_stmt 0             @ ../../../ThirdParty/mbedTLS/library/aes.c:2034:54
	lsrs	r2, r7, #3
	add	r6, sp, #460
.Ltmp623:
	.loc	2 2034 9                        @ ../../../ThirdParty/mbedTLS/library/aes.c:2034:9
	mov	r0, r6
	bl	__aeabi_memcpy
	movs	r0, #0
.Ltmp624:
	@DEBUG_VALUE: mbedtls_aes_self_test:offset <- 0
	.loc	2 0 9                           @ ../../../ThirdParty/mbedTLS/library/aes.c:0:9
	str	r0, [sp, #20]                   @ 4-byte Spill
	.loc	2 2036 16 is_stmt 1             @ ../../../ThirdParty/mbedTLS/library/aes.c:2036:16
	str	r0, [sp, #360]
	add	r0, sp, #48
	.loc	2 2037 15                       @ ../../../ThirdParty/mbedTLS/library/aes.c:2037:15
	mov	r1, r6
	mov	r2, r7
	bl	mbedtls_aes_setkey_enc
.Ltmp625:
	@DEBUG_VALUE: mbedtls_aes_self_test:ret <- $r0
	.loc	2 2048 18                       @ ../../../ThirdParty/mbedTLS/library/aes.c:2048:18
	cmp	r0, #0
	beq	.LBB13_44
	b	.LBB13_69
.Ltmp626:
.LBB13_44:                              @   in Loop: Header=BB13_39 Depth=1
	@DEBUG_VALUE: mbedtls_aes_self_test:keybits <- $r7
	@DEBUG_VALUE: mbedtls_aes_self_test:i <- $r5
	@DEBUG_VALUE: mbedtls_aes_self_test:mode <- $r4
	@DEBUG_VALUE: mbedtls_aes_self_test:ret <- $r0
	@DEBUG_VALUE: mbedtls_aes_self_test:verbose <- [DW_OP_plus_uconst 28] [$sp+0]
	@DEBUG_VALUE: mbedtls_aes_self_test:offset <- 0
	.loc	2 2053 13                       @ ../../../ThirdParty/mbedTLS/library/aes.c:2053:13
	cbnz	r4, .LBB13_46
.Ltmp627:
@ %bb.45:                               @   in Loop: Header=BB13_39 Depth=1
	@DEBUG_VALUE: mbedtls_aes_self_test:keybits <- $r7
	@DEBUG_VALUE: mbedtls_aes_self_test:i <- $r5
	@DEBUG_VALUE: mbedtls_aes_self_test:mode <- $r4
	@DEBUG_VALUE: mbedtls_aes_self_test:ret <- $r0
	@DEBUG_VALUE: mbedtls_aes_self_test:verbose <- [DW_OP_plus_uconst 28] [$sp+0]
	@DEBUG_VALUE: mbedtls_aes_self_test:offset <- 0
	.loc	2 2055 13                       @ ../../../ThirdParty/mbedTLS/library/aes.c:2055:13
	ldr	r0, __arm_cp.13_17
.Ltmp628:
	ldr	r1, [sp, #24]                   @ 4-byte Reload
	adds	r1, r0, r1
	add	r0, sp, #396
	movs	r2, #64
	bl	__aeabi_memcpy
.Ltmp629:
	@DEBUG_VALUE: mbedtls_aes_self_test:aes_tests <- undef
	.loc	2 0 0 is_stmt 0                 @ ../../../ThirdParty/mbedTLS/library/aes.c:0:0
	ldr	r6, __arm_cp.13_16
	@DEBUG_VALUE: mbedtls_aes_self_test:aes_tests <- undef
.Ltmp630:
	@DEBUG_VALUE: mbedtls_aes_self_test:aes_tests <- $r6
	b	.LBB13_47
.Ltmp631:
.LBB13_46:                              @   in Loop: Header=BB13_39 Depth=1
	@DEBUG_VALUE: mbedtls_aes_self_test:keybits <- $r7
	@DEBUG_VALUE: mbedtls_aes_self_test:i <- $r5
	@DEBUG_VALUE: mbedtls_aes_self_test:mode <- $r4
	@DEBUG_VALUE: mbedtls_aes_self_test:ret <- $r0
	@DEBUG_VALUE: mbedtls_aes_self_test:verbose <- [DW_OP_plus_uconst 28] [$sp+0]
	@DEBUG_VALUE: mbedtls_aes_self_test:offset <- 0
	add	r0, sp, #396
.Ltmp632:
	.loc	2 2060 13 is_stmt 1             @ ../../../ThirdParty/mbedTLS/library/aes.c:2060:13
	ldr	r1, __arm_cp.13_16
	ldm	r1!, {r2, r3, r6, r7}
.Ltmp633:
	stm	r0!, {r2, r3, r6, r7}
	ldm	r1!, {r2, r3, r6, r7}
	stm	r0!, {r2, r3, r6, r7}
	ldm	r1!, {r2, r3, r6, r7}
	stm	r0!, {r2, r3, r6, r7}
	ldm	r1!, {r2, r3, r6, r7}
	stm	r0!, {r2, r3, r6, r7}
	.loc	2 2061 25                       @ ../../../ThirdParty/mbedTLS/library/aes.c:2061:25
	ldr	r0, __arm_cp.13_17
	ldr	r1, [sp, #24]                   @ 4-byte Reload
	adds	r6, r0, r1
.Ltmp634:
	@DEBUG_VALUE: mbedtls_aes_self_test:aes_tests <- $r6
.LBB13_47:                              @   in Loop: Header=BB13_39 Depth=1
	@DEBUG_VALUE: mbedtls_aes_self_test:aes_tests <- $r6
	@DEBUG_VALUE: mbedtls_aes_self_test:i <- $r5
	@DEBUG_VALUE: mbedtls_aes_self_test:mode <- $r4
	@DEBUG_VALUE: mbedtls_aes_self_test:verbose <- [DW_OP_plus_uconst 28] [$sp+0]
	@DEBUG_VALUE: mbedtls_aes_self_test:offset <- 0
	@DEBUG_VALUE: mbedtls_aes_self_test:aes_tests <- $r6
	@DEBUG_VALUE: mbedtls_aes_self_test:offset <- [DW_OP_plus_uconst 360, DW_OP_deref] $sp
	.loc	2 0 25 is_stmt 0                @ ../../../ThirdParty/mbedTLS/library/aes.c:0:25
	add	r0, sp, #396
	.loc	2 2064 15 is_stmt 1             @ ../../../ThirdParty/mbedTLS/library/aes.c:2064:15
	str	r0, [sp, #8]
	str	r0, [sp, #4]
	add	r0, sp, #380
	str	r0, [sp]
	add	r0, sp, #48
	movs	r2, #64
	add	r3, sp, #360
	mov	r1, r4
	bl	mbedtls_aes_crypt_cfb128
.Ltmp635:
	@DEBUG_VALUE: mbedtls_aes_self_test:ret <- $r0
	.loc	2 2065 13                       @ ../../../ThirdParty/mbedTLS/library/aes.c:2065:13
	cmp	r0, #0
	beq	.LBB13_48
	b	.LBB13_69
.Ltmp636:
.LBB13_48:                              @   in Loop: Header=BB13_39 Depth=1
	@DEBUG_VALUE: mbedtls_aes_self_test:aes_tests <- $r6
	@DEBUG_VALUE: mbedtls_aes_self_test:i <- $r5
	@DEBUG_VALUE: mbedtls_aes_self_test:mode <- $r4
	@DEBUG_VALUE: mbedtls_aes_self_test:ret <- $r0
	@DEBUG_VALUE: mbedtls_aes_self_test:offset <- [DW_OP_plus_uconst 360, DW_OP_deref] $sp
	@DEBUG_VALUE: mbedtls_aes_self_test:verbose <- [DW_OP_plus_uconst 28] [$sp+0]
	.loc	2 0 13 is_stmt 0                @ ../../../ThirdParty/mbedTLS/library/aes.c:0:13
	add	r0, sp, #396
.Ltmp637:
	movs	r2, #64
.Ltmp638:
	.loc	2 2068 13 is_stmt 1             @ ../../../ThirdParty/mbedTLS/library/aes.c:2068:13
	mov	r1, r6
	bl	memcmp
.Ltmp639:
	.loc	2 2068 13 is_stmt 0             @ ../../../ThirdParty/mbedTLS/library/aes.c:2068:13
	cmp	r0, #0
	beq	.LBB13_49
	b	.LBB13_74
.Ltmp640:
.LBB13_49:                              @   in Loop: Header=BB13_39 Depth=1
	@DEBUG_VALUE: mbedtls_aes_self_test:aes_tests <- $r6
	@DEBUG_VALUE: mbedtls_aes_self_test:i <- $r5
	@DEBUG_VALUE: mbedtls_aes_self_test:mode <- $r4
	@DEBUG_VALUE: mbedtls_aes_self_test:offset <- [DW_OP_plus_uconst 360, DW_OP_deref] $sp
	@DEBUG_VALUE: mbedtls_aes_self_test:verbose <- [DW_OP_plus_uconst 28] [$sp+0]
	.loc	2 2074 13 is_stmt 1             @ ../../../ThirdParty/mbedTLS/library/aes.c:2074:13
	ldr	r0, [sp, #28]                   @ 4-byte Reload
	cmp	r0, #0
	beq	.LBB13_38
.Ltmp641:
@ %bb.50:                               @   in Loop: Header=BB13_39 Depth=1
	@DEBUG_VALUE: mbedtls_aes_self_test:aes_tests <- $r6
	@DEBUG_VALUE: mbedtls_aes_self_test:i <- $r5
	@DEBUG_VALUE: mbedtls_aes_self_test:mode <- $r4
	@DEBUG_VALUE: mbedtls_aes_self_test:offset <- [DW_OP_plus_uconst 360, DW_OP_deref] $sp
	@DEBUG_VALUE: mbedtls_aes_self_test:verbose <- [DW_OP_plus_uconst 28] [$sp+0]
	.loc	2 2075 13                       @ ../../../ThirdParty/mbedTLS/library/aes.c:2075:13
	adr	r0, .LCPI13_6
	bl	puts
	b	.LBB13_38
.Ltmp642:
.LBB13_51:
	@DEBUG_VALUE: mbedtls_aes_self_test:mode <- $r6
	@DEBUG_VALUE: mbedtls_aes_self_test:aes_tests <- [DW_OP_plus_uconst 24] [$sp+0]
	@DEBUG_VALUE: mbedtls_aes_self_test:u <- [DW_OP_plus_uconst 24] [$sp+0]
	@DEBUG_VALUE: mbedtls_aes_self_test:i <- [DW_OP_plus_uconst 16] [$sp+0]
	@DEBUG_VALUE: mbedtls_aes_self_test:verbose <- [DW_OP_plus_uconst 28] [$sp+0]
	.loc	2 0 0 is_stmt 0                 @ ../../../ThirdParty/mbedTLS/library/aes.c:0:0
	ldr	r7, [sp, #12]                   @ 4-byte Reload
	b	.LBB13_70
.Ltmp643:
.LBB13_52:
	@DEBUG_VALUE: mbedtls_aes_self_test:aes_tests <- $r6
	@DEBUG_VALUE: mbedtls_aes_self_test:i <- $r5
	@DEBUG_VALUE: mbedtls_aes_self_test:mode <- $r4
	@DEBUG_VALUE: mbedtls_aes_self_test:offset <- [DW_OP_plus_uconst 360, DW_OP_deref] $sp
	@DEBUG_VALUE: mbedtls_aes_self_test:verbose <- [DW_OP_plus_uconst 28] [$sp+0]
	.loc	2 2078 9 is_stmt 1              @ ../../../ThirdParty/mbedTLS/library/aes.c:2078:9
	ldr	r0, [sp, #28]                   @ 4-byte Reload
	cbz	r0, .LBB13_54
.Ltmp644:
@ %bb.53:
	@DEBUG_VALUE: mbedtls_aes_self_test:aes_tests <- $r6
	@DEBUG_VALUE: mbedtls_aes_self_test:i <- $r5
	@DEBUG_VALUE: mbedtls_aes_self_test:mode <- $r4
	@DEBUG_VALUE: mbedtls_aes_self_test:offset <- [DW_OP_plus_uconst 360, DW_OP_deref] $sp
	@DEBUG_VALUE: mbedtls_aes_self_test:verbose <- [DW_OP_plus_uconst 28] [$sp+0]
	.loc	2 0 9 is_stmt 0                 @ ../../../ThirdParty/mbedTLS/library/aes.c:0:9
	movs	r0, #10
.Ltmp645:
	.loc	2 2079 9 is_stmt 1              @ ../../../ThirdParty/mbedTLS/library/aes.c:2079:9
	bl	putchar
.Ltmp646:
.LBB13_54:
	@DEBUG_VALUE: mbedtls_aes_self_test:aes_tests <- $r6
	@DEBUG_VALUE: mbedtls_aes_self_test:i <- $r5
	@DEBUG_VALUE: mbedtls_aes_self_test:mode <- $r4
	@DEBUG_VALUE: mbedtls_aes_self_test:offset <- [DW_OP_plus_uconst 360, DW_OP_deref] $sp
	@DEBUG_VALUE: mbedtls_aes_self_test:verbose <- [DW_OP_plus_uconst 28] [$sp+0]
	.loc	2 0 9 is_stmt 0                 @ ../../../ThirdParty/mbedTLS/library/aes.c:0:9
	movs	r0, #1
	str	r0, [sp, #16]                   @ 4-byte Spill
	movs	r0, #128
	str	r0, [sp, #12]                   @ 4-byte Spill
	ldr	r5, [sp, #20]                   @ 4-byte Reload
.Ltmp647:
	b	.LBB13_56
.Ltmp648:
.LBB13_55:                              @   in Loop: Header=BB13_56 Depth=1
	@DEBUG_VALUE: mbedtls_aes_self_test:len <- $r6
	@DEBUG_VALUE: mbedtls_aes_self_test:i <- $r5
	@DEBUG_VALUE: mbedtls_aes_self_test:mode <- [DW_OP_plus_uconst 24] [$sp+0]
	@DEBUG_VALUE: mbedtls_aes_self_test:offset <- [DW_OP_plus_uconst 360, DW_OP_deref] $sp
	@DEBUG_VALUE: mbedtls_aes_self_test:verbose <- [DW_OP_plus_uconst 28] [$sp+0]
	.loc	2 2149 25 is_stmt 1             @ ../../../ThirdParty/mbedTLS/library/aes.c:2149:25
	adds	r5, r5, #1
.Ltmp649:
	@DEBUG_VALUE: mbedtls_aes_self_test:i <- $r5
	.loc	2 2149 5 is_stmt 0              @ ../../../ThirdParty/mbedTLS/library/aes.c:2149:5
	cmp	r5, #6
	bne	.LBB13_56
	b	.LBB13_75
.Ltmp650:
.LBB13_56:                              @ =>This Inner Loop Header: Depth=1
	@DEBUG_VALUE: mbedtls_aes_self_test:offset <- [DW_OP_plus_uconst 360, DW_OP_deref] $sp
	@DEBUG_VALUE: mbedtls_aes_self_test:verbose <- [DW_OP_plus_uconst 28] [$sp+0]
	@DEBUG_VALUE: mbedtls_aes_self_test:i <- $r5
	.loc	2 2152 18 is_stmt 1             @ ../../../ThirdParty/mbedTLS/library/aes.c:2152:18
	mov	r1, r5
	ldr	r0, [sp, #16]                   @ 4-byte Reload
	ands	r1, r0
.Ltmp651:
	@DEBUG_VALUE: mbedtls_aes_self_test:mode <- $r1
	.loc	2 0 18 is_stmt 0                @ ../../../ThirdParty/mbedTLS/library/aes.c:0:18
	str	r1, [sp, #24]                   @ 4-byte Spill
.Ltmp652:
	@DEBUG_VALUE: mbedtls_aes_self_test:mode <- [DW_OP_plus_uconst 24] [$sp+0]
	@DEBUG_VALUE: mbedtls_aes_self_test:mode <- [DW_OP_plus_uconst 24] [$sp+0]
	@DEBUG_VALUE: mbedtls_aes_self_test:mode <- [DW_OP_plus_uconst 24] [$sp+0]
	.loc	2 2151 15 is_stmt 1             @ ../../../ThirdParty/mbedTLS/library/aes.c:2151:15
	lsrs	r6, r5, #1
.Ltmp653:
	@DEBUG_VALUE: mbedtls_aes_self_test:u <- $r6
	.loc	2 2154 13                       @ ../../../ThirdParty/mbedTLS/library/aes.c:2154:13
	ldr	r0, [sp, #28]                   @ 4-byte Reload
	cbz	r0, .LBB13_60
.Ltmp654:
@ %bb.57:                               @   in Loop: Header=BB13_56 Depth=1
	@DEBUG_VALUE: mbedtls_aes_self_test:u <- $r6
	@DEBUG_VALUE: mbedtls_aes_self_test:i <- $r5
	@DEBUG_VALUE: mbedtls_aes_self_test:mode <- [DW_OP_plus_uconst 24] [$sp+0]
	@DEBUG_VALUE: mbedtls_aes_self_test:offset <- [DW_OP_plus_uconst 360, DW_OP_deref] $sp
	@DEBUG_VALUE: mbedtls_aes_self_test:verbose <- [DW_OP_plus_uconst 28] [$sp+0]
	.loc	2 2156 29                       @ ../../../ThirdParty/mbedTLS/library/aes.c:2156:29
	ldr	r0, [sp, #24]                   @ 4-byte Reload
	ldr	r1, __arm_cp.13_1
	cbz	r0, .LBB13_59
.Ltmp655:
@ %bb.58:                               @   in Loop: Header=BB13_56 Depth=1
	@DEBUG_VALUE: mbedtls_aes_self_test:u <- $r6
	@DEBUG_VALUE: mbedtls_aes_self_test:i <- $r5
	@DEBUG_VALUE: mbedtls_aes_self_test:mode <- [DW_OP_plus_uconst 24] [$sp+0]
	@DEBUG_VALUE: mbedtls_aes_self_test:offset <- [DW_OP_plus_uconst 360, DW_OP_deref] $sp
	@DEBUG_VALUE: mbedtls_aes_self_test:verbose <- [DW_OP_plus_uconst 28] [$sp+0]
	ldr	r1, __arm_cp.13_2
.Ltmp656:
.LBB13_59:                              @   in Loop: Header=BB13_56 Depth=1
	@DEBUG_VALUE: mbedtls_aes_self_test:u <- $r6
	@DEBUG_VALUE: mbedtls_aes_self_test:i <- $r5
	@DEBUG_VALUE: mbedtls_aes_self_test:mode <- [DW_OP_plus_uconst 24] [$sp+0]
	@DEBUG_VALUE: mbedtls_aes_self_test:offset <- [DW_OP_plus_uconst 360, DW_OP_deref] $sp
	@DEBUG_VALUE: mbedtls_aes_self_test:verbose <- [DW_OP_plus_uconst 28] [$sp+0]
	.loc	2 2155 13                       @ ../../../ThirdParty/mbedTLS/library/aes.c:2155:13
	adr	r0, .LCPI13_18
	bl	__2printf
.Ltmp657:
.LBB13_60:                              @   in Loop: Header=BB13_56 Depth=1
	@DEBUG_VALUE: mbedtls_aes_self_test:u <- $r6
	@DEBUG_VALUE: mbedtls_aes_self_test:i <- $r5
	@DEBUG_VALUE: mbedtls_aes_self_test:mode <- [DW_OP_plus_uconst 24] [$sp+0]
	@DEBUG_VALUE: mbedtls_aes_self_test:offset <- [DW_OP_plus_uconst 360, DW_OP_deref] $sp
	@DEBUG_VALUE: mbedtls_aes_self_test:verbose <- [DW_OP_plus_uconst 28] [$sp+0]
	@DEBUG_VALUE: mbedtls_aes_self_test:offset <- 0
	.loc	2 2161 16                       @ ../../../ThirdParty/mbedTLS/library/aes.c:2161:16
	ldr	r0, [sp, #20]                   @ 4-byte Reload
	str	r0, [sp, #360]
	.loc	2 2158 9                        @ ../../../ThirdParty/mbedTLS/library/aes.c:2158:9
	lsls	r0, r6, #4
	ldr	r7, __arm_cp.13_19
	adds	r1, r7, r0
	ldrb	r2, [r1, #12]
	ldrb	r3, [r1, #13]
	lsls	r3, r3, #8
	adds	r2, r3, r2
	ldrb	r3, [r1, #14]
	ldrb	r4, [r1, #15]
	lsls	r4, r4, #8
	adds	r3, r4, r3
	lsls	r3, r3, #16
	adds	r2, r3, r2
	str	r2, [sp, #356]
	ldrb	r2, [r1, #8]
	ldrb	r3, [r1, #9]
	lsls	r3, r3, #8
	adds	r2, r3, r2
	ldrb	r3, [r1, #10]
	ldrb	r4, [r1, #11]
	lsls	r4, r4, #8
	adds	r3, r4, r3
	lsls	r3, r3, #16
	adds	r2, r3, r2
	str	r2, [sp, #352]
	ldrb	r2, [r1, #4]
	ldrb	r3, [r1, #5]
	lsls	r3, r3, #8
	adds	r2, r3, r2
	ldrb	r3, [r1, #6]
	ldrb	r4, [r1, #7]
	lsls	r4, r4, #8
	adds	r3, r4, r3
	lsls	r3, r3, #16
	adds	r2, r3, r2
	str	r2, [sp, #348]
	ldrb	r2, [r7, r0]
	ldrb	r3, [r1, #1]
	lsls	r3, r3, #8
	adds	r2, r3, r2
	ldrb	r3, [r1, #2]
	ldrb	r1, [r1, #3]
	lsls	r1, r1, #8
	adds	r1, r1, r3
	lsls	r1, r1, #16
	adds	r1, r1, r2
	str	r1, [sp, #344]
	ldr	r2, __arm_cp.13_20
	.loc	2 2159 9                        @ ../../../ThirdParty/mbedTLS/library/aes.c:2159:9
	ldrb	r1, [r2, r0]
	adds	r0, r2, r0
	ldrb	r2, [r0, #1]
	lsls	r2, r2, #8
	adds	r1, r2, r1
	ldrb	r2, [r0, #2]
	ldrb	r3, [r0, #3]
	lsls	r3, r3, #8
	adds	r2, r3, r2
	lsls	r2, r2, #16
	adds	r1, r2, r1
	str	r1, [sp, #460]
	ldrb	r1, [r0, #4]
	ldrb	r2, [r0, #5]
	lsls	r2, r2, #8
	adds	r1, r2, r1
	ldrb	r2, [r0, #6]
	ldrb	r3, [r0, #7]
	lsls	r3, r3, #8
	adds	r2, r3, r2
	lsls	r2, r2, #16
	adds	r1, r2, r1
	str	r1, [sp, #464]
	ldrb	r1, [r0, #8]
	ldrb	r2, [r0, #9]
	lsls	r2, r2, #8
	adds	r1, r2, r1
	ldrb	r2, [r0, #10]
	ldrb	r3, [r0, #11]
	lsls	r3, r3, #8
	adds	r2, r3, r2
	lsls	r2, r2, #16
	adds	r1, r2, r1
	str	r1, [sp, #468]
	ldrb	r1, [r0, #12]
	ldrb	r2, [r0, #13]
	lsls	r2, r2, #8
	adds	r1, r2, r1
	ldrb	r2, [r0, #14]
	ldrb	r0, [r0, #15]
	lsls	r0, r0, #8
	adds	r0, r0, r2
	lsls	r0, r0, #16
	adds	r0, r0, r1
	str	r0, [sp, #472]
	add	r0, sp, #48
	add	r1, sp, #460
.Ltmp658:
	.loc	2 2162 21                       @ ../../../ThirdParty/mbedTLS/library/aes.c:2162:21
	ldr	r2, [sp, #12]                   @ 4-byte Reload
	bl	mbedtls_aes_setkey_enc
.Ltmp659:
	@DEBUG_VALUE: mbedtls_aes_self_test:ret <- $r0
	.loc	2 2162 13 is_stmt 0             @ ../../../ThirdParty/mbedTLS/library/aes.c:2162:13
	cbnz	r0, .LBB13_69
.Ltmp660:
@ %bb.61:                               @   in Loop: Header=BB13_56 Depth=1
	@DEBUG_VALUE: mbedtls_aes_self_test:u <- $r6
	@DEBUG_VALUE: mbedtls_aes_self_test:i <- $r5
	@DEBUG_VALUE: mbedtls_aes_self_test:ret <- $r0
	@DEBUG_VALUE: mbedtls_aes_self_test:mode <- [DW_OP_plus_uconst 24] [$sp+0]
	@DEBUG_VALUE: mbedtls_aes_self_test:verbose <- [DW_OP_plus_uconst 28] [$sp+0]
	@DEBUG_VALUE: mbedtls_aes_self_test:offset <- 0
	.loc	2 2167 13 is_stmt 1             @ ../../../ThirdParty/mbedTLS/library/aes.c:2167:13
	ldr	r0, [sp, #24]                   @ 4-byte Reload
.Ltmp661:
	cmp	r0, #0
	ldr	r0, __arm_cp.13_21
	beq	.LBB13_63
.Ltmp662:
@ %bb.62:                               @   in Loop: Header=BB13_56 Depth=1
	@DEBUG_VALUE: mbedtls_aes_self_test:u <- $r6
	@DEBUG_VALUE: mbedtls_aes_self_test:i <- $r5
	@DEBUG_VALUE: mbedtls_aes_self_test:mode <- [DW_OP_plus_uconst 24] [$sp+0]
	@DEBUG_VALUE: mbedtls_aes_self_test:verbose <- [DW_OP_plus_uconst 28] [$sp+0]
	@DEBUG_VALUE: mbedtls_aes_self_test:offset <- 0
	ldr	r0, __arm_cp.13_22
.Ltmp663:
.LBB13_63:                              @   in Loop: Header=BB13_56 Depth=1
	@DEBUG_VALUE: mbedtls_aes_self_test:u <- $r6
	@DEBUG_VALUE: mbedtls_aes_self_test:i <- $r5
	@DEBUG_VALUE: mbedtls_aes_self_test:mode <- [DW_OP_plus_uconst 24] [$sp+0]
	@DEBUG_VALUE: mbedtls_aes_self_test:verbose <- [DW_OP_plus_uconst 28] [$sp+0]
	@DEBUG_VALUE: mbedtls_aes_self_test:offset <- 0
	.loc	2 0 13 is_stmt 0                @ ../../../ThirdParty/mbedTLS/library/aes.c:0:13
	movs	r4, #48
.Ltmp664:
	muls	r4, r6, r4
	adds	r1, r0, r4
.Ltmp665:
	.loc	2 2165 15 is_stmt 1             @ ../../../ThirdParty/mbedTLS/library/aes.c:2165:15
	lsls	r0, r6, #2
	adr	r2, .LCPI13_23
	ldr	r6, [r2, r0]
.Ltmp666:
	@DEBUG_VALUE: mbedtls_aes_self_test:len <- $r6
	.loc	2 0 15 is_stmt 0                @ ../../../ThirdParty/mbedTLS/library/aes.c:0:15
	add	r7, sp, #396
.Ltmp667:
	mov	r0, r7
	mov	r2, r6
	bl	__aeabi_memcpy
.Ltmp668:
	@DEBUG_VALUE: mbedtls_aes_self_test:offset <- [DW_OP_plus_uconst 360, DW_OP_deref] $sp
	@DEBUG_VALUE: mbedtls_aes_self_test:aes_tests <- undef
	.loc	2 2178 15 is_stmt 1             @ ../../../ThirdParty/mbedTLS/library/aes.c:2178:15
	str	r7, [sp, #8]
	str	r7, [sp, #4]
	add	r0, sp, #328
	str	r0, [sp]
	add	r0, sp, #48
	add	r2, sp, #360
	add	r3, sp, #344
	mov	r1, r6
	bl	mbedtls_aes_crypt_ctr
.Ltmp669:
	@DEBUG_VALUE: mbedtls_aes_self_test:ret <- $r0
	.loc	2 2180 13                       @ ../../../ThirdParty/mbedTLS/library/aes.c:2180:13
	cbnz	r0, .LBB13_69
.Ltmp670:
@ %bb.64:                               @   in Loop: Header=BB13_56 Depth=1
	@DEBUG_VALUE: mbedtls_aes_self_test:len <- $r6
	@DEBUG_VALUE: mbedtls_aes_self_test:i <- $r5
	@DEBUG_VALUE: mbedtls_aes_self_test:ret <- $r0
	@DEBUG_VALUE: mbedtls_aes_self_test:mode <- [DW_OP_plus_uconst 24] [$sp+0]
	@DEBUG_VALUE: mbedtls_aes_self_test:offset <- [DW_OP_plus_uconst 360, DW_OP_deref] $sp
	@DEBUG_VALUE: mbedtls_aes_self_test:verbose <- [DW_OP_plus_uconst 28] [$sp+0]
	.loc	2 2167 13                       @ ../../../ThirdParty/mbedTLS/library/aes.c:2167:13
	ldr	r0, [sp, #24]                   @ 4-byte Reload
.Ltmp671:
	cmp	r0, #0
	ldr	r0, __arm_cp.13_22
	beq	.LBB13_66
.Ltmp672:
@ %bb.65:                               @   in Loop: Header=BB13_56 Depth=1
	@DEBUG_VALUE: mbedtls_aes_self_test:len <- $r6
	@DEBUG_VALUE: mbedtls_aes_self_test:i <- $r5
	@DEBUG_VALUE: mbedtls_aes_self_test:mode <- [DW_OP_plus_uconst 24] [$sp+0]
	@DEBUG_VALUE: mbedtls_aes_self_test:offset <- [DW_OP_plus_uconst 360, DW_OP_deref] $sp
	@DEBUG_VALUE: mbedtls_aes_self_test:verbose <- [DW_OP_plus_uconst 28] [$sp+0]
	ldr	r0, __arm_cp.13_21
.Ltmp673:
.LBB13_66:                              @   in Loop: Header=BB13_56 Depth=1
	@DEBUG_VALUE: mbedtls_aes_self_test:len <- $r6
	@DEBUG_VALUE: mbedtls_aes_self_test:i <- $r5
	@DEBUG_VALUE: mbedtls_aes_self_test:mode <- [DW_OP_plus_uconst 24] [$sp+0]
	@DEBUG_VALUE: mbedtls_aes_self_test:offset <- [DW_OP_plus_uconst 360, DW_OP_deref] $sp
	@DEBUG_VALUE: mbedtls_aes_self_test:verbose <- [DW_OP_plus_uconst 28] [$sp+0]
	.loc	2 0 0 is_stmt 0                 @ ../../../ThirdParty/mbedTLS/library/aes.c:0:0
	adds	r1, r0, r4
.Ltmp674:
	@DEBUG_VALUE: mbedtls_aes_self_test:aes_tests <- $r1
	add	r0, sp, #396
.Ltmp675:
	.loc	2 2183 13 is_stmt 1             @ ../../../ThirdParty/mbedTLS/library/aes.c:2183:13
	mov	r2, r6
	bl	memcmp
.Ltmp676:
	.loc	2 2183 13 is_stmt 0             @ ../../../ThirdParty/mbedTLS/library/aes.c:2183:13
	cbnz	r0, .LBB13_74
.Ltmp677:
@ %bb.67:                               @   in Loop: Header=BB13_56 Depth=1
	@DEBUG_VALUE: mbedtls_aes_self_test:len <- $r6
	@DEBUG_VALUE: mbedtls_aes_self_test:i <- $r5
	@DEBUG_VALUE: mbedtls_aes_self_test:mode <- [DW_OP_plus_uconst 24] [$sp+0]
	@DEBUG_VALUE: mbedtls_aes_self_test:offset <- [DW_OP_plus_uconst 360, DW_OP_deref] $sp
	@DEBUG_VALUE: mbedtls_aes_self_test:verbose <- [DW_OP_plus_uconst 28] [$sp+0]
	.loc	2 2189 13 is_stmt 1             @ ../../../ThirdParty/mbedTLS/library/aes.c:2189:13
	ldr	r0, [sp, #28]                   @ 4-byte Reload
	cmp	r0, #0
	bne	.LBB13_68
	b	.LBB13_55
.Ltmp678:
.LBB13_68:                              @   in Loop: Header=BB13_56 Depth=1
	@DEBUG_VALUE: mbedtls_aes_self_test:len <- $r6
	@DEBUG_VALUE: mbedtls_aes_self_test:i <- $r5
	@DEBUG_VALUE: mbedtls_aes_self_test:mode <- [DW_OP_plus_uconst 24] [$sp+0]
	@DEBUG_VALUE: mbedtls_aes_self_test:offset <- [DW_OP_plus_uconst 360, DW_OP_deref] $sp
	@DEBUG_VALUE: mbedtls_aes_self_test:verbose <- [DW_OP_plus_uconst 28] [$sp+0]
	.loc	2 2190 13                       @ ../../../ThirdParty/mbedTLS/library/aes.c:2190:13
	adr	r0, .LCPI13_6
	bl	puts
	b	.LBB13_55
.Ltmp679:
.LBB13_69:
	@DEBUG_VALUE: mbedtls_aes_self_test:ret <- $r0
	@DEBUG_VALUE: mbedtls_aes_self_test:verbose <- [DW_OP_plus_uconst 28] [$sp+0]
	.loc	2 0 13 is_stmt 0                @ ../../../ThirdParty/mbedTLS/library/aes.c:0:13
	mov	r7, r0
.Ltmp680:
	@DEBUG_VALUE: mbedtls_aes_self_test:ret <- $r7
.LBB13_70:
	@DEBUG_VALUE: mbedtls_aes_self_test:verbose <- [DW_OP_plus_uconst 28] [$sp+0]
	@DEBUG_VALUE: mbedtls_aes_self_test:ret <- $r7
	@DEBUG_LABEL: mbedtls_aes_self_test:exit
	.loc	2 2267 18 is_stmt 1             @ ../../../ThirdParty/mbedTLS/library/aes.c:2267:18
	ldr	r0, [sp, #28]                   @ 4-byte Reload
	cbz	r0, .LBB13_73
.Ltmp681:
@ %bb.71:
	@DEBUG_VALUE: mbedtls_aes_self_test:ret <- $r7
	@DEBUG_VALUE: mbedtls_aes_self_test:verbose <- [DW_OP_plus_uconst 28] [$sp+0]
	cbz	r7, .LBB13_73
.Ltmp682:
@ %bb.72:
	@DEBUG_VALUE: mbedtls_aes_self_test:ret <- $r7
	@DEBUG_VALUE: mbedtls_aes_self_test:verbose <- [DW_OP_plus_uconst 28] [$sp+0]
	.loc	2 2268 9                        @ ../../../ThirdParty/mbedTLS/library/aes.c:2268:9
	adr	r0, .LCPI13_24
	bl	puts
.Ltmp683:
.LBB13_73:
	@DEBUG_VALUE: mbedtls_aes_self_test:ret <- $r7
	@DEBUG_VALUE: mbedtls_aes_self_test:verbose <- [DW_OP_plus_uconst 28] [$sp+0]
	.loc	2 0 9 is_stmt 0                 @ ../../../ThirdParty/mbedTLS/library/aes.c:0:9
	add	r0, sp, #48
	.loc	2 2270 5 is_stmt 1              @ ../../../ThirdParty/mbedTLS/library/aes.c:2270:5
	bl	mbedtls_aes_free
	.loc	2 2272 5                        @ ../../../ThirdParty/mbedTLS/library/aes.c:2272:5
	mov	r0, r7
	add	sp, #492
.Ltmp684:
	pop	{r4, r5, r6, r7, pc}
.Ltmp685:
.LBB13_74:
	@DEBUG_VALUE: mbedtls_aes_self_test:i <- $r5
	@DEBUG_VALUE: mbedtls_aes_self_test:offset <- [DW_OP_plus_uconst 360, DW_OP_deref] $sp
	@DEBUG_VALUE: mbedtls_aes_self_test:verbose <- [DW_OP_plus_uconst 28] [$sp+0]
	.loc	2 0 0 is_stmt 0                 @ ../../../ThirdParty/mbedTLS/library/aes.c:0:0
	ldr	r7, [sp, #16]                   @ 4-byte Reload
	b	.LBB13_70
.Ltmp686:
.LBB13_75:
	@DEBUG_VALUE: mbedtls_aes_self_test:len <- $r6
	@DEBUG_VALUE: mbedtls_aes_self_test:i <- $r5
	@DEBUG_VALUE: mbedtls_aes_self_test:mode <- [DW_OP_plus_uconst 24] [$sp+0]
	@DEBUG_VALUE: mbedtls_aes_self_test:offset <- [DW_OP_plus_uconst 360, DW_OP_deref] $sp
	@DEBUG_VALUE: mbedtls_aes_self_test:verbose <- [DW_OP_plus_uconst 28] [$sp+0]
	movs	r7, #0
	.loc	2 2193 9 is_stmt 1              @ ../../../ThirdParty/mbedTLS/library/aes.c:2193:9
	ldr	r0, [sp, #28]                   @ 4-byte Reload
	cmp	r0, #0
	beq	.LBB13_70
.Ltmp687:
@ %bb.76:
	@DEBUG_VALUE: mbedtls_aes_self_test:len <- $r6
	@DEBUG_VALUE: mbedtls_aes_self_test:i <- $r5
	@DEBUG_VALUE: mbedtls_aes_self_test:mode <- [DW_OP_plus_uconst 24] [$sp+0]
	@DEBUG_VALUE: mbedtls_aes_self_test:offset <- [DW_OP_plus_uconst 360, DW_OP_deref] $sp
	@DEBUG_VALUE: mbedtls_aes_self_test:verbose <- [DW_OP_plus_uconst 28] [$sp+0]
	.loc	2 0 9 is_stmt 0                 @ ../../../ThirdParty/mbedTLS/library/aes.c:0:9
	movs	r0, #10
.Ltmp688:
	.loc	2 2194 9 is_stmt 1              @ ../../../ThirdParty/mbedTLS/library/aes.c:2194:9
	bl	putchar
	b	.LBB13_70
.Ltmp689:
	.p2align	2
@ %bb.77:
	.loc	2 0 9 is_stmt 0                 @ ../../../ThirdParty/mbedTLS/library/aes.c:0:9
__arm_cp.13_0:
	.long	10000                           @ 0x2710
.Lcpi_end17:
	.size	__arm_cp.13_0, .Lcpi_end17-__arm_cp.13_0
__arm_cp.13_1:
	.long	.L.str.1
.Lcpi_end18:
	.size	__arm_cp.13_1, .Lcpi_end18-__arm_cp.13_1
__arm_cp.13_2:
	.long	.L.str.2
.Lcpi_end19:
	.size	__arm_cp.13_2, .Lcpi_end19-__arm_cp.13_2
.LCPI13_3:
.L.str:
	.asciz	"  AES-ECB-%3d (%s): \000\000\000"
__arm_cp.13_4:
	.long	aes_test_ecb_enc
.Lcpi_end20:
	.size	__arm_cp.13_4, .Lcpi_end20-__arm_cp.13_4
__arm_cp.13_5:
	.long	aes_test_ecb_dec
.Lcpi_end21:
	.size	__arm_cp.13_5, .Lcpi_end21-__arm_cp.13_5
.LCPI13_6:
.Lstr.14:
.Lstr.13:
.Lstr.15:
.Lstr.16:
	.asciz	"passed\000"
.LCPI13_7:
.L.str.6:
	.asciz	"  AES-CBC-%3d (%s): \000\000\000"
__arm_cp.13_8:
	.long	aes_test_cbc_enc
.Lcpi_end22:
	.size	__arm_cp.13_8, .Lcpi_end22-__arm_cp.13_8
__arm_cp.13_9:
	.long	aes_test_cbc_dec
.Lcpi_end23:
	.size	__arm_cp.13_9, .Lcpi_end23-__arm_cp.13_9
.LCPI13_10:
.L.str.7:
	.asciz	"  AES-CFB128-%3d (%s): "
__arm_cp.13_11:
	.long	252579084                       @ 0xf0e0d0c
.Lcpi_end24:
	.size	__arm_cp.13_11, .Lcpi_end24-__arm_cp.13_11
__arm_cp.13_12:
	.long	185207048                       @ 0xb0a0908
.Lcpi_end25:
	.size	__arm_cp.13_12, .Lcpi_end25-__arm_cp.13_12
__arm_cp.13_13:
	.long	117835012                       @ 0x7060504
.Lcpi_end26:
	.size	__arm_cp.13_13, .Lcpi_end26-__arm_cp.13_13
__arm_cp.13_14:
	.long	50462976                        @ 0x3020100
.Lcpi_end27:
	.size	__arm_cp.13_14, .Lcpi_end27-__arm_cp.13_14
__arm_cp.13_15:
	.long	aes_test_cfb128_key
.Lcpi_end28:
	.size	__arm_cp.13_15, .Lcpi_end28-__arm_cp.13_15
__arm_cp.13_16:
	.long	aes_test_cfb128_pt
.Lcpi_end29:
	.size	__arm_cp.13_16, .Lcpi_end29-__arm_cp.13_16
__arm_cp.13_17:
	.long	aes_test_cfb128_ct
.Lcpi_end30:
	.size	__arm_cp.13_17, .Lcpi_end30-__arm_cp.13_17
.LCPI13_18:
.L.str.8:
	.asciz	"  AES-CTR-128 (%s): \000\000\000"
__arm_cp.13_19:
	.long	aes_test_ctr_nonce_counter
.Lcpi_end31:
	.size	__arm_cp.13_19, .Lcpi_end31-__arm_cp.13_19
__arm_cp.13_20:
	.long	aes_test_ctr_key
.Lcpi_end32:
	.size	__arm_cp.13_20, .Lcpi_end32-__arm_cp.13_20
__arm_cp.13_21:
	.long	aes_test_ctr_ct
.Lcpi_end33:
	.size	__arm_cp.13_21, .Lcpi_end33-__arm_cp.13_21
__arm_cp.13_22:
	.long	aes_test_ctr_pt
.Lcpi_end34:
	.size	__arm_cp.13_22, .Lcpi_end34-__arm_cp.13_22
.LCPI13_23:
aes_test_ctr_len:
	.long	16                              @ 0x10
	.long	32                              @ 0x20
	.long	36                              @ 0x24
.LCPI13_24:
.Lstr:
	.asciz	"failed\000"
.Lfunc_end13:
	.size	mbedtls_aes_self_test, .Lfunc_end13-mbedtls_aes_self_test
	.cfi_endproc
	.cantunwind
	.fnend
                                        @ -- End function
	.type	RCON,%object                    @ @RCON
	.section	.rodata.RCON,"a",%progbits
	.p2align	2
RCON:
	.long	1                               @ 0x1
	.long	2                               @ 0x2
	.long	4                               @ 0x4
	.long	8                               @ 0x8
	.long	16                              @ 0x10
	.long	32                              @ 0x20
	.long	64                              @ 0x40
	.long	128                             @ 0x80
	.long	27                              @ 0x1b
	.long	54                              @ 0x36
	.size	RCON, 40

	.type	FSb,%object                     @ @FSb
	.section	.rodata.FSb,"a",%progbits
FSb:
	.ascii	"c|w{\362ko\3050\001g+\376\327\253v\312\202\311}\372YG\360\255\324\242\257\234\244r\300\267\375\223&6?\367\3144\245\345\361q\3301\025\004\307#\303\030\226\005\232\007\022\200\342\353'\262u\t\203,\032\033nZ\240R;\326\263)\343/\204S\321\000\355 \374\261[j\313\2769JLX\317\320\357\252\373CM3\205E\371\002\177P<\237\250Q\243@\217\222\2358\365\274\266\332!\020\377\363\322\315\f\023\354_\227D\027\304\247~=d]\031s`\201O\334\"*\220\210F\356\270\024\336^\013\333\3402:\nI\006$\\\302\323\254b\221\225\344y\347\3107m\215\325N\251lV\364\352ez\256\b\272x%.\034\246\264\306\350\335t\037K\275\213\212p>\265fH\003\366\016a5W\271\206\301\035\236\341\370\230\021i\331\216\224\233\036\207\351\316U(\337\214\241\211\r\277\346BhA\231-\017\260T\273\026"
	.size	FSb, 256

	.type	RT0,%object                     @ @RT0
	.section	.rodata.RT0,"a",%progbits
	.p2align	2
RT0:
	.long	1353184337                      @ 0x50a7f451
	.long	1399144830                      @ 0x5365417e
	.long	3282310938                      @ 0xc3a4171a
	.long	2522752826                      @ 0x965e273a
	.long	3412831035                      @ 0xcb6bab3b
	.long	4047871263                      @ 0xf1459d1f
	.long	2874735276                      @ 0xab58faac
	.long	2466505547                      @ 0x9303e34b
	.long	1442459680                      @ 0x55fa3020
	.long	4134368941                      @ 0xf66d76ad
	.long	2440481928                      @ 0x9176cc88
	.long	625738485                       @ 0x254c02f5
	.long	4242007375                      @ 0xfcd7e54f
	.long	3620416197                      @ 0xd7cb2ac5
	.long	2151953702                      @ 0x80443526
	.long	2409849525                      @ 0x8fa362b5
	.long	1230680542                      @ 0x495ab1de
	.long	1729870373                      @ 0x671bba25
	.long	2551114309                      @ 0x980eea45
	.long	3787521629                      @ 0xe1c0fe5d
	.long	41234371                        @ 0x2752fc3
	.long	317738113                       @ 0x12f04c81
	.long	2744600205                      @ 0xa397468d
	.long	3338261355                      @ 0xc6f9d36b
	.long	3881799427                      @ 0xe75f8f03
	.long	2510066197                      @ 0x959c9215
	.long	3950669247                      @ 0xeb7a6dbf
	.long	3663286933                      @ 0xda595295
	.long	763608788                       @ 0x2d83bed4
	.long	3542185048                      @ 0xd3217458
	.long	694804553                       @ 0x2969e049
	.long	1154009486                      @ 0x44c8c98e
	.long	1787413109                      @ 0x6a89c275
	.long	2021232372                      @ 0x78798ef4
	.long	1799248025                      @ 0x6b3e5899
	.long	3715217703                      @ 0xdd71b927
	.long	3058688446                      @ 0xb64fe1be
	.long	397248752                       @ 0x17ad88f0
	.long	1722556617                      @ 0x66ac20c9
	.long	3023752829                      @ 0xb43ace7d
	.long	407560035                       @ 0x184adf63
	.long	2184256229                      @ 0x82311ae5
	.long	1613975959                      @ 0x60335197
	.long	1165972322                      @ 0x457f5362
	.long	3765920945                      @ 0xe07764b1
	.long	2226023355                      @ 0x84ae6bbb
	.long	480281086                       @ 0x1ca081fe
	.long	2485848313                      @ 0x942b08f9
	.long	1483229296                      @ 0x58684870
	.long	436028815                       @ 0x19fd458f
	.long	2272059028                      @ 0x876cde94
	.long	3086515026                      @ 0xb7f87b52
	.long	601060267                       @ 0x23d373ab
	.long	3791801202                      @ 0xe2024b72
	.long	1468997603                      @ 0x578f1fe3
	.long	715871590                       @ 0x2aab5566
	.long	120122290                       @ 0x728ebb2
	.long	63092015                        @ 0x3c2b52f
	.long	2591802758                      @ 0x9a7bc586
	.long	2768779219                      @ 0xa50837d3
	.long	4068943920                      @ 0xf2872830
	.long	2997206819                      @ 0xb2a5bf23
	.long	3127509762                      @ 0xba6a0302
	.long	1552029421                      @ 0x5c8216ed
	.long	723308426                       @ 0x2b1ccf8a
	.long	2461301159                      @ 0x92b479a7
	.long	4042393587                      @ 0xf0f207f3
	.long	2715969870                      @ 0xa1e2694e
	.long	3455375973                      @ 0xcdf4da65
	.long	3586000134                      @ 0xd5be0506
	.long	526529745                       @ 0x1f6234d1
	.long	2331944644                      @ 0x8afea6c4
	.long	2639474228                      @ 0x9d532e34
	.long	2689987490                      @ 0xa055f3a2
	.long	853641733                       @ 0x32e18a05
	.long	1978398372                      @ 0x75ebf6a4
	.long	971801355                       @ 0x39ec830b
	.long	2867814464                      @ 0xaaef6040
	.long	111112542                       @ 0x69f715e
	.long	1360031421                      @ 0x51106ebd
	.long	4186579262                      @ 0xf98a213e
	.long	1023860118                      @ 0x3d06dd96
	.long	2919579357                      @ 0xae053edd
	.long	1186850381                      @ 0x46bde64d
	.long	3045938321                      @ 0xb58d5491
	.long	90031217                        @ 0x55dc471
	.long	1876166148                      @ 0x6fd40604
	.long	4279586912                      @ 0xff155060
	.long	620468249                       @ 0x24fb9819
	.long	2548678102                      @ 0x97e9bdd6
	.long	3426959497                      @ 0xcc434089
	.long	2006899047                      @ 0x779ed967
	.long	3175278768                      @ 0xbd42e8b0
	.long	2290845959                      @ 0x888b8907
	.long	945494503                       @ 0x385b19e7
	.long	3689859193                      @ 0xdbeec879
	.long	1191869601                      @ 0x470a7ca1
	.long	3910091388                      @ 0xe90f427c
	.long	3374220536                      @ 0xc91e84f8
	.long	0                               @ 0x0
	.long	2206629897                      @ 0x83868009
	.long	1223502642                      @ 0x48ed2b32
	.long	2893025566                      @ 0xac70111e
	.long	1316117100                      @ 0x4e725a6c
	.long	4227796733                      @ 0xfbff0efd
	.long	1446544655                      @ 0x5638850f
	.long	517320253                       @ 0x1ed5ae3d
	.long	658058550                       @ 0x27392d36
	.long	1691946762                      @ 0x64d90f0a
	.long	564550760                       @ 0x21a65c68
	.long	3511966619                      @ 0xd1545b9b
	.long	976107044                       @ 0x3a2e3624
	.long	2976320012                      @ 0xb1670a0c
	.long	266819475                       @ 0xfe75793
	.long	3533106868                      @ 0xd296eeb4
	.long	2660342555                      @ 0x9e919b1b
	.long	1338359936                      @ 0x4fc5c080
	.long	2720062561                      @ 0xa220dc61
	.long	1766553434                      @ 0x694b775a
	.long	370807324                       @ 0x161a121c
	.long	179999714                       @ 0xaba93e2
	.long	3844776128                      @ 0xe52aa0c0
	.long	1138762300                      @ 0x43e0223c
	.long	488053522                       @ 0x1d171b12
	.long	185403662                       @ 0xb0d090e
	.long	2915535858                      @ 0xadc78bf2
	.long	3114841645                      @ 0xb9a8b62d
	.long	3366526484                      @ 0xc8a91e14
	.long	2233069911                      @ 0x8519f157
	.long	1275557295                      @ 0x4c0775af
	.long	3151862254                      @ 0xbbdd99ee
	.long	4250959779                      @ 0xfd607fa3
	.long	2670068215                      @ 0x9f2601f7
	.long	3170202204                      @ 0xbcf5725c
	.long	3309004356                      @ 0xc53b6644
	.long	880737115                       @ 0x347efb5b
	.long	1982415755                      @ 0x7629438b
	.long	3703972811                      @ 0xdcc623cb
	.long	1761406390                      @ 0x68fcedb6
	.long	1676797112                      @ 0x63f1e4b8
	.long	3403428311                      @ 0xcadc31d7
	.long	277177154                       @ 0x10856342
	.long	1076008723                      @ 0x40229713
	.long	538035844                       @ 0x2011c684
	.long	2099530373                      @ 0x7d244a85
	.long	4164795346                      @ 0xf83dbbd2
	.long	288553390                       @ 0x1132f9ae
	.long	1839278535                      @ 0x6da129c7
	.long	1261411869                      @ 0x4b2f9e1d
	.long	4080055004                      @ 0xf330b2dc
	.long	3964831245                      @ 0xec52860d
	.long	3504587127                      @ 0xd0e3c177
	.long	1813426987                      @ 0x6c16b32b
	.long	2579067049                      @ 0x99b970a9
	.long	4199060497                      @ 0xfa489411
	.long	577038663                       @ 0x2264e947
	.long	3297574056                      @ 0xc48cfca8
	.long	440397984                       @ 0x1a3ff0a0
	.long	3626794326                      @ 0xd82c7d56
	.long	4019204898                      @ 0xef903322
	.long	3343796615                      @ 0xc74e4987
	.long	3251714265                      @ 0xc1d138d9
	.long	4272081548                      @ 0xfea2ca8c
	.long	906744984                       @ 0x360bd498
	.long	3481400742                      @ 0xcf81f5a6
	.long	685669029                       @ 0x28de7aa5
	.long	646887386                       @ 0x268eb7da
	.long	2764025151                      @ 0xa4bfad3f
	.long	3835509292                      @ 0xe49d3a2c
	.long	227702864                       @ 0xd927850
	.long	2613862250                      @ 0x9bcc5f6a
	.long	1648787028                      @ 0x62467e54
	.long	3256061430                      @ 0xc2138df6
	.long	3904428176                      @ 0xe8b8d890
	.long	1593260334                      @ 0x5ef7392e
	.long	4121936770                      @ 0xf5afc382
	.long	3196083615                      @ 0xbe805d9f
	.long	2090061929                      @ 0x7c93d069
	.long	2838353263                      @ 0xa92dd56f
	.long	3004310991                      @ 0xb31225cf
	.long	999926984                       @ 0x3b99acc8
	.long	2809993232                      @ 0xa77d1810
	.long	1852021992                      @ 0x6e639ce8
	.long	2075868123                      @ 0x7bbb3bdb
	.long	158869197                       @ 0x97826cd
	.long	4095236462                      @ 0xf418596e
	.long	28809964                        @ 0x1b79aec
	.long	2828685187                      @ 0xa89a4f83
	.long	1701746150                      @ 0x656e95e6
	.long	2129067946                      @ 0x7ee6ffaa
	.long	147831841                       @ 0x8cfbc21
	.long	3873969647                      @ 0xe6e815ef
	.long	3650873274                      @ 0xd99be7ba
	.long	3459673930                      @ 0xce366f4a
	.long	3557400554                      @ 0xd4099fea
	.long	3598495785                      @ 0xd67cb029
	.long	2947720241                      @ 0xafb2a431
	.long	824393514                       @ 0x31233f2a
	.long	815048134                       @ 0x3094a5c6
	.long	3227951669                      @ 0xc066a235
	.long	935087732                       @ 0x37bc4e74
	.long	2798289660                      @ 0xa6ca82fc
	.long	2966458592                      @ 0xb0d090e0
	.long	366520115                       @ 0x15d8a733
	.long	1251476721                      @ 0x4a9804f1
	.long	4158319681                      @ 0xf7daec41
	.long	240176511                       @ 0xe50cd7f
	.long	804688151                       @ 0x2ff69117
	.long	2379631990                      @ 0x8dd64d76
	.long	1303441219                      @ 0x4db0ef43
	.long	1414376140                      @ 0x544daacc
	.long	3741619940                      @ 0xdf0496e4
	.long	3820343710                      @ 0xe3b5d19e
	.long	461924940                       @ 0x1b886a4c
	.long	3089050817                      @ 0xb81f2cc1
	.long	2136040774                      @ 0x7f516546
	.long	82468509                        @ 0x4ea5e9d
	.long	1563790337                      @ 0x5d358c01
	.long	1937016826                      @ 0x737487fa
	.long	776014843                       @ 0x2e410bfb
	.long	1511876531                      @ 0x5a1d67b3
	.long	1389550482                      @ 0x52d2db92
	.long	861278441                       @ 0x335610e9
	.long	323475053                       @ 0x1347d66d
	.long	2355222426                      @ 0x8c61d79a
	.long	2047648055                      @ 0x7a0ca137
	.long	2383738969                      @ 0x8e14f859
	.long	2302415851                      @ 0x893c13eb
	.long	3995576782                      @ 0xee27a9ce
	.long	902390199                       @ 0x35c961b7
	.long	3991215329                      @ 0xede51ce1
	.long	1018251130                      @ 0x3cb1477a
	.long	1507840668                      @ 0x59dfd29c
	.long	1064563285                      @ 0x3f73f255
	.long	2043548696                      @ 0x79ce1418
	.long	3208103795                      @ 0xbf37c773
	.long	3939366739                      @ 0xeacdf753
	.long	1537932639                      @ 0x5baafd5f
	.long	342834655                       @ 0x146f3ddf
	.long	2262516856                      @ 0x86db4478
	.long	2180231114                      @ 0x81f3afca
	.long	1053059257                      @ 0x3ec468b9
	.long	741614648                       @ 0x2c342438
	.long	1598071746                      @ 0x5f40a3c2
	.long	1925389590                      @ 0x72c31d16
	.long	203809468                       @ 0xc25e2bc
	.long	2336832552                      @ 0x8b493c28
	.long	1100287487                      @ 0x41950dff
	.long	1895934009                      @ 0x7101a839
	.long	3736275976                      @ 0xdeb30c08
