	.text
	.syntax unified
	.eabi_attribute	67, "2.09"	@ Tag_conformance
	.cpu	cortex-m23
	.eabi_attribute	6, 16	@ Tag_CPU_arch
	.eabi_attribute	7, 77	@ Tag_CPU_arch_profile
	.eabi_attribute	8, 0	@ Tag_ARM_ISA_use
	.eabi_attribute	9, 3	@ Tag_THUMB_ISA_use
	.eabi_attribute	34, 0	@ Tag_CPU_unaligned_access
	.eabi_attribute	17, 1	@ Tag_ABI_PCS_GOT_use
	.eabi_attribute	20, 2	@ Tag_ABI_FP_denormal
	.eabi_attribute	21, 0	@ Tag_ABI_FP_exceptions
	.eabi_attribute	23, 1	@ Tag_ABI_FP_number_model
	.eabi_attribute	24, 1	@ Tag_ABI_align_needed
	.eabi_attribute	25, 1	@ Tag_ABI_align_preserved
	.eabi_attribute	38, 1	@ Tag_ABI_FP_16bit_format
	.eabi_attribute	18, 2	@ Tag_ABI_PCS_wchar_t
	.eabi_attribute	26, 1	@ Tag_ABI_enum_size
	.eabi_attribute	14, 0	@ Tag_ABI_PCS_R9_use
	.file	"asn1parse.c"
	.file	1 "C:\\" "Keil_v5\\ARM\\ARMCLANG\\Bin\\..\\include\\stddef.h"
	.file	2 "C:\\Users\\shw26\\OneDrive\\Desktop\\2021\\2021-1\\\354\272\241\354\212\244\355\206\244\353\224\224\354\236\220\354\235\2702\\Nuvoton\\M2351_BSP_v3.00.004\\M2351Series_BSP_CMSIS_V3.00.004\\MyProject\\PulseMonitoring\\Secure" "../../../ThirdParty/mbedTLS/include/mbedtls\\asn1.h"
	.section	.text.mbedtls_asn1_get_len,"ax",%progbits
	.hidden	mbedtls_asn1_get_len            @ -- Begin function mbedtls_asn1_get_len
	.globl	mbedtls_asn1_get_len
	.p2align	2
	.type	mbedtls_asn1_get_len,%function
	.code	16                              @ @mbedtls_asn1_get_len
	.thumb_func
mbedtls_asn1_get_len:
.Lfunc_begin0:
	.file	3 "C:\\Users\\shw26\\OneDrive\\Desktop\\2021\\2021-1\\\354\272\241\354\212\244\355\206\244\353\224\224\354\236\220\354\235\2702\\Nuvoton\\M2351_BSP_v3.00.004\\M2351Series_BSP_CMSIS_V3.00.004\\MyProject\\PulseMonitoring\\Secure" "../../../ThirdParty/mbedTLS/library/asn1parse.c"
	.loc	3 53 0                          @ ../../../ThirdParty/mbedTLS/library/asn1parse.c:53:0
	.fnstart
	.cfi_sections .debug_frame
	.cfi_startproc
@ %bb.0:
	@DEBUG_VALUE: mbedtls_asn1_get_len:p <- $r0
	@DEBUG_VALUE: mbedtls_asn1_get_len:end <- $r1
	@DEBUG_VALUE: mbedtls_asn1_get_len:len <- $r2
	.save	{r4, r5, r6, r7, lr}
	push	{r4, r5, r6, r7, lr}
	.cfi_def_cfa_offset 20
	.cfi_offset lr, -4
	.cfi_offset r7, -8
	.cfi_offset r6, -12
	.cfi_offset r5, -16
	.cfi_offset r4, -20
	.pad	#4
	sub	sp, #4
	.cfi_def_cfa_offset 24
	mov	r3, r0
	@DEBUG_VALUE: mbedtls_asn1_get_len:len <- $r2
	@DEBUG_VALUE: mbedtls_asn1_get_len:end <- $r1
.Ltmp0:
	@DEBUG_VALUE: mbedtls_asn1_get_len:p <- $r3
	.loc	3 54 17 prologue_end            @ ../../../ThirdParty/mbedTLS/library/asn1parse.c:54:17
	ldr	r4, [r0]
	.loc	3 54 15 is_stmt 0               @ ../../../ThirdParty/mbedTLS/library/asn1parse.c:54:15
	subs	r5, r1, r4
	movs	r0, #95
	mvns	r0, r0
.Ltmp1:
	.loc	3 54 9                          @ ../../../ThirdParty/mbedTLS/library/asn1parse.c:54:9
	cmp	r5, #1
	blt	.LBB0_19
.Ltmp2:
@ %bb.1:
	@DEBUG_VALUE: mbedtls_asn1_get_len:p <- $r3
	@DEBUG_VALUE: mbedtls_asn1_get_len:len <- $r2
	@DEBUG_VALUE: mbedtls_asn1_get_len:end <- $r1
	.loc	3 0 9                           @ ../../../ThirdParty/mbedTLS/library/asn1parse.c:0:9
	str	r2, [sp]                        @ 4-byte Spill
.Ltmp3:
	@DEBUG_VALUE: mbedtls_asn1_get_len:len <- [$sp+0]
	.loc	3 57 11 is_stmt 1               @ ../../../ThirdParty/mbedTLS/library/asn1parse.c:57:11
	ldrb	r6, [r4]
.Ltmp4:
	.loc	3 57 9 is_stmt 0                @ ../../../ThirdParty/mbedTLS/library/asn1parse.c:57:9
	lsls	r7, r6, #24
	bmi	.LBB0_3
.Ltmp5:
@ %bb.2:
	@DEBUG_VALUE: mbedtls_asn1_get_len:len <- [$sp+0]
	@DEBUG_VALUE: mbedtls_asn1_get_len:p <- $r3
	@DEBUG_VALUE: mbedtls_asn1_get_len:end <- $r1
	.loc	3 58 21 is_stmt 1               @ ../../../ThirdParty/mbedTLS/library/asn1parse.c:58:21
	adds	r5, r4, #1
	str	r5, [r3]
	.loc	3 58 16 is_stmt 0               @ ../../../ThirdParty/mbedTLS/library/asn1parse.c:58:16
	ldrb	r4, [r4]
	ldr	r5, [sp]                        @ 4-byte Reload
.Ltmp6:
	@DEBUG_VALUE: mbedtls_asn1_get_len:len <- $r5
	.loc	3 58 14                         @ ../../../ThirdParty/mbedTLS/library/asn1parse.c:58:14
	str	r4, [r5]
	b	.LBB0_17
.Ltmp7:
.LBB0_3:
	@DEBUG_VALUE: mbedtls_asn1_get_len:len <- [$sp+0]
	@DEBUG_VALUE: mbedtls_asn1_get_len:p <- $r3
	@DEBUG_VALUE: mbedtls_asn1_get_len:end <- $r1
	.loc	3 0 14                          @ ../../../ThirdParty/mbedTLS/library/asn1parse.c:0:14
	movs	r7, #127
.Ltmp8:
	.loc	3 61 21 is_stmt 1               @ ../../../ThirdParty/mbedTLS/library/asn1parse.c:61:21
	ands	r6, r7
	.loc	3 61 9 is_stmt 0                @ ../../../ThirdParty/mbedTLS/library/asn1parse.c:61:9
	subs	r6, r6, #1
	cmp	r6, #3
	bhi	.LBB0_12
.Ltmp9:
@ %bb.4:
	@DEBUG_VALUE: mbedtls_asn1_get_len:len <- [$sp+0]
	@DEBUG_VALUE: mbedtls_asn1_get_len:p <- $r3
	@DEBUG_VALUE: mbedtls_asn1_get_len:end <- $r1
	.loc	3 0 9                           @ ../../../ThirdParty/mbedTLS/library/asn1parse.c:0:9
	lsls	r2, r6, #2
	adr	r7, .LJTI0_0
	adds	r2, r7, r2
	mov	pc, r2
.Ltmp10:
@ %bb.5:
	.p2align	2
.LJTI0_0:
	b.w	.LBB0_6
	b.w	.LBB0_13
	b.w	.LBB0_8
	b.w	.LBB0_10
.LBB0_6:
.Ltmp11:
	@DEBUG_VALUE: mbedtls_asn1_get_len:len <- [$sp+0]
	@DEBUG_VALUE: mbedtls_asn1_get_len:p <- $r3
	@DEBUG_VALUE: mbedtls_asn1_get_len:end <- $r1
	.loc	3 64 17 is_stmt 1               @ ../../../ThirdParty/mbedTLS/library/asn1parse.c:64:17
	cmp	r5, #2
	blt	.LBB0_19
.Ltmp12:
@ %bb.7:
	@DEBUG_VALUE: mbedtls_asn1_get_len:len <- [$sp+0]
	@DEBUG_VALUE: mbedtls_asn1_get_len:p <- $r3
	@DEBUG_VALUE: mbedtls_asn1_get_len:end <- $r1
	.loc	3 67 20                         @ ../../../ThirdParty/mbedTLS/library/asn1parse.c:67:20
	ldrb	r2, [r4, #1]
	.loc	3 68 18                         @ ../../../ThirdParty/mbedTLS/library/asn1parse.c:68:18
	adds	r4, r4, #2
	str	r4, [r3]
	b	.LBB0_16
.Ltmp13:
.LBB0_8:
	@DEBUG_VALUE: mbedtls_asn1_get_len:len <- [$sp+0]
	@DEBUG_VALUE: mbedtls_asn1_get_len:p <- $r3
	@DEBUG_VALUE: mbedtls_asn1_get_len:end <- $r1
	.loc	3 80 17                         @ ../../../ThirdParty/mbedTLS/library/asn1parse.c:80:17
	cmp	r5, #4
	blt	.LBB0_19
.Ltmp14:
@ %bb.9:
	@DEBUG_VALUE: mbedtls_asn1_get_len:len <- [$sp+0]
	@DEBUG_VALUE: mbedtls_asn1_get_len:p <- $r3
	@DEBUG_VALUE: mbedtls_asn1_get_len:end <- $r1
	.loc	3 84 48                         @ ../../../ThirdParty/mbedTLS/library/asn1parse.c:84:48
	ldrb	r2, [r4, #3]
	.loc	3 84 30 is_stmt 0               @ ../../../ThirdParty/mbedTLS/library/asn1parse.c:84:30
	ldrb	r5, [r4, #2]
	.loc	3 83 30 is_stmt 1               @ ../../../ThirdParty/mbedTLS/library/asn1parse.c:83:30
	ldrb	r6, [r4, #1]
	.loc	3 85 18                         @ ../../../ThirdParty/mbedTLS/library/asn1parse.c:85:18
	adds	r4, r4, #4
	str	r4, [r3]
	.loc	3 83 38                         @ ../../../ThirdParty/mbedTLS/library/asn1parse.c:83:38
	lsls	r4, r6, #16
	.loc	3 84 38                         @ ../../../ThirdParty/mbedTLS/library/asn1parse.c:84:38
	lsls	r5, r5, #8
	.loc	3 83 46                         @ ../../../ThirdParty/mbedTLS/library/asn1parse.c:83:46
	adds	r4, r5, r4
	b	.LBB0_15
.Ltmp15:
.LBB0_10:
	@DEBUG_VALUE: mbedtls_asn1_get_len:len <- [$sp+0]
	@DEBUG_VALUE: mbedtls_asn1_get_len:p <- $r3
	@DEBUG_VALUE: mbedtls_asn1_get_len:end <- $r1
	.loc	3 89 17                         @ ../../../ThirdParty/mbedTLS/library/asn1parse.c:89:17
	cmp	r5, #5
	blt	.LBB0_19
.Ltmp16:
@ %bb.11:
	@DEBUG_VALUE: mbedtls_asn1_get_len:len <- [$sp+0]
	@DEBUG_VALUE: mbedtls_asn1_get_len:p <- $r3
	@DEBUG_VALUE: mbedtls_asn1_get_len:end <- $r1
	.loc	3 93 58                         @ ../../../ThirdParty/mbedTLS/library/asn1parse.c:93:58
	ldrb	r2, [r4, #4]
	.loc	3 93 30 is_stmt 0               @ ../../../ThirdParty/mbedTLS/library/asn1parse.c:93:30
	ldrb	r5, [r4, #3]
	.loc	3 92 58 is_stmt 1               @ ../../../ThirdParty/mbedTLS/library/asn1parse.c:92:58
	ldrb	r6, [r4, #2]
	.loc	3 92 22 is_stmt 0               @ ../../../ThirdParty/mbedTLS/library/asn1parse.c:92:22
	ldrb	r7, [r4, #1]
	.loc	3 94 18 is_stmt 1               @ ../../../ThirdParty/mbedTLS/library/asn1parse.c:94:18
	adds	r4, r4, #5
	str	r4, [r3]
	.loc	3 92 38                         @ ../../../ThirdParty/mbedTLS/library/asn1parse.c:92:38
	lsls	r4, r7, #24
	.loc	3 92 66 is_stmt 0               @ ../../../ThirdParty/mbedTLS/library/asn1parse.c:92:66
	lsls	r6, r6, #16
	.loc	3 92 46                         @ ../../../ThirdParty/mbedTLS/library/asn1parse.c:92:46
	adds	r4, r6, r4
	.loc	3 93 38 is_stmt 1               @ ../../../ThirdParty/mbedTLS/library/asn1parse.c:93:38
	lsls	r5, r5, #8
	.loc	3 92 74                         @ ../../../ThirdParty/mbedTLS/library/asn1parse.c:92:74
	adds	r4, r4, r5
	b	.LBB0_15
.Ltmp17:
.LBB0_12:
	@DEBUG_VALUE: mbedtls_asn1_get_len:len <- [$sp+0]
	@DEBUG_VALUE: mbedtls_asn1_get_len:p <- $r3
	@DEBUG_VALUE: mbedtls_asn1_get_len:end <- $r1
	.loc	3 0 74 is_stmt 0                @ ../../../ThirdParty/mbedTLS/library/asn1parse.c:0:74
	subs	r0, r0, #4
	add	sp, #4
.Ltmp18:
	pop	{r4, r5, r6, r7, pc}
.Ltmp19:
.LBB0_13:
	@DEBUG_VALUE: mbedtls_asn1_get_len:len <- [$sp+0]
	@DEBUG_VALUE: mbedtls_asn1_get_len:p <- $r3
	@DEBUG_VALUE: mbedtls_asn1_get_len:end <- $r1
	.loc	3 72 17 is_stmt 1               @ ../../../ThirdParty/mbedTLS/library/asn1parse.c:72:17
	cmp	r5, #3
	blt	.LBB0_19
.Ltmp20:
@ %bb.14:
	@DEBUG_VALUE: mbedtls_asn1_get_len:len <- [$sp+0]
	@DEBUG_VALUE: mbedtls_asn1_get_len:p <- $r3
	@DEBUG_VALUE: mbedtls_asn1_get_len:end <- $r1
	.loc	3 75 47                         @ ../../../ThirdParty/mbedTLS/library/asn1parse.c:75:47
	ldrb	r2, [r4, #2]
	.loc	3 75 30 is_stmt 0               @ ../../../ThirdParty/mbedTLS/library/asn1parse.c:75:30
	ldrb	r5, [r4, #1]
	.loc	3 76 18 is_stmt 1               @ ../../../ThirdParty/mbedTLS/library/asn1parse.c:76:18
	adds	r4, r4, #3
	str	r4, [r3]
	.loc	3 75 38                         @ ../../../ThirdParty/mbedTLS/library/asn1parse.c:75:38
	lsls	r4, r5, #8
.Ltmp21:
.LBB0_15:
	@DEBUG_VALUE: mbedtls_asn1_get_len:len <- [$sp+0]
	@DEBUG_VALUE: mbedtls_asn1_get_len:p <- $r3
	@DEBUG_VALUE: mbedtls_asn1_get_len:end <- $r1
	.loc	3 0 0 is_stmt 0                 @ ../../../ThirdParty/mbedTLS/library/asn1parse.c:0:0
	adds	r2, r4, r2
.Ltmp22:
.LBB0_16:
	@DEBUG_VALUE: mbedtls_asn1_get_len:len <- [$sp+0]
	@DEBUG_VALUE: mbedtls_asn1_get_len:p <- $r3
	@DEBUG_VALUE: mbedtls_asn1_get_len:end <- $r1
	ldr	r5, [sp]                        @ 4-byte Reload
.Ltmp23:
	@DEBUG_VALUE: mbedtls_asn1_get_len:len <- $r5
	str	r2, [r5]
.Ltmp24:
.LBB0_17:
	@DEBUG_VALUE: mbedtls_asn1_get_len:len <- $r5
	@DEBUG_VALUE: mbedtls_asn1_get_len:p <- $r3
	@DEBUG_VALUE: mbedtls_asn1_get_len:end <- $r1
	.loc	3 102 33 is_stmt 1              @ ../../../ThirdParty/mbedTLS/library/asn1parse.c:102:33
	ldr	r2, [r3]
	.loc	3 102 31 is_stmt 0              @ ../../../ThirdParty/mbedTLS/library/asn1parse.c:102:31
	subs	r1, r1, r2
.Ltmp25:
	@DEBUG_VALUE: mbedtls_asn1_get_len:end <- [DW_OP_LLVM_entry_value 1] $r1
	.loc	3 102 9                         @ ../../../ThirdParty/mbedTLS/library/asn1parse.c:102:9
	ldr	r2, [r5]
.Ltmp26:
	.loc	3 102 9                         @ ../../../ThirdParty/mbedTLS/library/asn1parse.c:102:9
	cmp	r2, r1
	bhi	.LBB0_19
.Ltmp27:
@ %bb.18:
	@DEBUG_VALUE: mbedtls_asn1_get_len:len <- $r5
	@DEBUG_VALUE: mbedtls_asn1_get_len:p <- $r3
	@DEBUG_VALUE: mbedtls_asn1_get_len:end <- [DW_OP_LLVM_entry_value 1] $r1
	.loc	3 0 9                           @ ../../../ThirdParty/mbedTLS/library/asn1parse.c:0:9
	movs	r0, #0
.Ltmp28:
.LBB0_19:
	@DEBUG_VALUE: mbedtls_asn1_get_len:p <- $r3
	add	sp, #4
	pop	{r4, r5, r6, r7, pc}
.Ltmp29:
.Lfunc_end0:
	.size	mbedtls_asn1_get_len, .Lfunc_end0-mbedtls_asn1_get_len
	.cfi_endproc
	.cantunwind
	.fnend
                                        @ -- End function
	.section	.text.mbedtls_asn1_get_tag,"ax",%progbits
	.hidden	mbedtls_asn1_get_tag            @ -- Begin function mbedtls_asn1_get_tag
	.globl	mbedtls_asn1_get_tag
	.p2align	1
	.type	mbedtls_asn1_get_tag,%function
	.code	16                              @ @mbedtls_asn1_get_tag
	.thumb_func
mbedtls_asn1_get_tag:
.Lfunc_begin1:
	.loc	3 111 0 is_stmt 1               @ ../../../ThirdParty/mbedTLS/library/asn1parse.c:111:0
	.fnstart
	.cfi_startproc
@ %bb.0:
	@DEBUG_VALUE: mbedtls_asn1_get_tag:p <- $r0
	@DEBUG_VALUE: mbedtls_asn1_get_tag:end <- $r1
	@DEBUG_VALUE: mbedtls_asn1_get_tag:len <- $r2
	@DEBUG_VALUE: mbedtls_asn1_get_tag:tag <- $r3
	.save	{r4, r5, r6, lr}
	push	{r4, r5, r6, lr}
	.cfi_def_cfa_offset 16
	.cfi_offset lr, -4
	.cfi_offset r6, -8
	.cfi_offset r5, -12
	.cfi_offset r4, -16
	mov	r4, r0
	@DEBUG_VALUE: mbedtls_asn1_get_tag:tag <- $r3
	@DEBUG_VALUE: mbedtls_asn1_get_tag:len <- $r2
	@DEBUG_VALUE: mbedtls_asn1_get_tag:end <- $r1
.Ltmp30:
	@DEBUG_VALUE: mbedtls_asn1_get_tag:p <- $r4
	.loc	3 112 17 prologue_end           @ ../../../ThirdParty/mbedTLS/library/asn1parse.c:112:17
	ldr	r5, [r0]
	.loc	3 112 15 is_stmt 0              @ ../../../ThirdParty/mbedTLS/library/asn1parse.c:112:15
	subs	r6, r1, r5
	movs	r0, #97
	mvns	r0, r0
.Ltmp31:
	.loc	3 112 9                         @ ../../../ThirdParty/mbedTLS/library/asn1parse.c:112:9
	cmp	r6, #1
	blt	.LBB1_4
.Ltmp32:
@ %bb.1:
	@DEBUG_VALUE: mbedtls_asn1_get_tag:p <- $r4
	@DEBUG_VALUE: mbedtls_asn1_get_tag:tag <- $r3
	@DEBUG_VALUE: mbedtls_asn1_get_tag:len <- $r2
	@DEBUG_VALUE: mbedtls_asn1_get_tag:end <- $r1
	.loc	3 115 9 is_stmt 1               @ ../../../ThirdParty/mbedTLS/library/asn1parse.c:115:9
	ldrb	r6, [r5]
.Ltmp33:
	.loc	3 115 9 is_stmt 0               @ ../../../ThirdParty/mbedTLS/library/asn1parse.c:115:9
	cmp	r6, r3
	bne	.LBB1_3
.Ltmp34:
@ %bb.2:
	@DEBUG_VALUE: mbedtls_asn1_get_tag:p <- $r4
	@DEBUG_VALUE: mbedtls_asn1_get_tag:tag <- $r3
	@DEBUG_VALUE: mbedtls_asn1_get_tag:len <- $r2
	@DEBUG_VALUE: mbedtls_asn1_get_tag:end <- $r1
	.loc	3 118 9 is_stmt 1               @ ../../../ThirdParty/mbedTLS/library/asn1parse.c:118:9
	adds	r0, r5, #1
	str	r0, [r4]
	.loc	3 120 13                        @ ../../../ThirdParty/mbedTLS/library/asn1parse.c:120:13
	mov	r0, r4
	bl	mbedtls_asn1_get_len
.Ltmp35:
	@DEBUG_VALUE: mbedtls_asn1_get_tag:tag <- [DW_OP_LLVM_entry_value 1] $r3
	@DEBUG_VALUE: mbedtls_asn1_get_tag:len <- [DW_OP_LLVM_entry_value 1] $r2
	@DEBUG_VALUE: mbedtls_asn1_get_tag:end <- [DW_OP_LLVM_entry_value 1] $r1
.LBB1_3:
	@DEBUG_VALUE: mbedtls_asn1_get_tag:p <- $r4
	.loc	3 121 1                         @ ../../../ThirdParty/mbedTLS/library/asn1parse.c:121:1
	pop	{r4, r5, r6, pc}
.Ltmp36:
.LBB1_4:
	@DEBUG_VALUE: mbedtls_asn1_get_tag:p <- $r4
	@DEBUG_VALUE: mbedtls_asn1_get_tag:tag <- $r3
	@DEBUG_VALUE: mbedtls_asn1_get_tag:len <- $r2
	@DEBUG_VALUE: mbedtls_asn1_get_tag:end <- $r1
	.loc	3 0 1 is_stmt 0                 @ ../../../ThirdParty/mbedTLS/library/asn1parse.c:0:1
	adds	r0, r0, #2
	.loc	3 121 1                         @ ../../../ThirdParty/mbedTLS/library/asn1parse.c:121:1
	pop	{r4, r5, r6, pc}
.Ltmp37:
.Lfunc_end1:
	.size	mbedtls_asn1_get_tag, .Lfunc_end1-mbedtls_asn1_get_tag
	.cfi_endproc
	.cantunwind
	.fnend
                                        @ -- End function
	.section	.text.mbedtls_asn1_get_bool,"ax",%progbits
	.hidden	mbedtls_asn1_get_bool           @ -- Begin function mbedtls_asn1_get_bool
	.globl	mbedtls_asn1_get_bool
	.p2align	1
	.type	mbedtls_asn1_get_bool,%function
	.code	16                              @ @mbedtls_asn1_get_bool
	.thumb_func
mbedtls_asn1_get_bool:
.Lfunc_begin2:
	.loc	3 126 0 is_stmt 1               @ ../../../ThirdParty/mbedTLS/library/asn1parse.c:126:0
	.fnstart
	.cfi_startproc
@ %bb.0:
	@DEBUG_VALUE: mbedtls_asn1_get_bool:p <- $r0
	@DEBUG_VALUE: mbedtls_asn1_get_bool:end <- $r1
	@DEBUG_VALUE: mbedtls_asn1_get_bool:val <- $r2
	.save	{r4, r5, r7, lr}
	push	{r4, r5, r7, lr}
	.cfi_def_cfa_offset 16
	.cfi_offset lr, -4
	.cfi_offset r7, -8
	.cfi_offset r5, -12
	.cfi_offset r4, -16
	.pad	#8
	sub	sp, #8
	.cfi_def_cfa_offset 24
	mov	r4, r2
	mov	r5, r0
.Ltmp38:
	@DEBUG_VALUE: mbedtls_asn1_get_bool:len <- [DW_OP_plus_uconst 4, DW_OP_deref] $sp
	@DEBUG_VALUE: mbedtls_asn1_get_bool:val <- $r4
	@DEBUG_VALUE: mbedtls_asn1_get_bool:end <- $r1
	@DEBUG_VALUE: mbedtls_asn1_get_bool:p <- $r5
	add	r2, sp, #4
	movs	r3, #1
	@DEBUG_VALUE: mbedtls_asn1_get_bool:end <- $r1
.Ltmp39:
	.loc	3 130 17 prologue_end           @ ../../../ThirdParty/mbedTLS/library/asn1parse.c:130:17
	bl	mbedtls_asn1_get_tag
.Ltmp40:
	@DEBUG_VALUE: mbedtls_asn1_get_bool:end <- [DW_OP_LLVM_entry_value 1] $r1
	@DEBUG_VALUE: mbedtls_asn1_get_bool:ret <- $r0
	.loc	3 130 9 is_stmt 0               @ ../../../ThirdParty/mbedTLS/library/asn1parse.c:130:9
	cbz	r0, .LBB2_2
.Ltmp41:
@ %bb.1:
	@DEBUG_VALUE: mbedtls_asn1_get_bool:p <- $r5
	@DEBUG_VALUE: mbedtls_asn1_get_bool:val <- $r4
	@DEBUG_VALUE: mbedtls_asn1_get_bool:ret <- $r0
	@DEBUG_VALUE: mbedtls_asn1_get_bool:len <- [DW_OP_plus_uconst 4, DW_OP_deref] $sp
	@DEBUG_VALUE: mbedtls_asn1_get_bool:end <- [DW_OP_LLVM_entry_value 1] $r1
	.loc	3 140 1 is_stmt 1               @ ../../../ThirdParty/mbedTLS/library/asn1parse.c:140:1
	add	sp, #8
.Ltmp42:
	pop	{r4, r5, r7, pc}
.Ltmp43:
.LBB2_2:
	@DEBUG_VALUE: mbedtls_asn1_get_bool:p <- $r5
	@DEBUG_VALUE: mbedtls_asn1_get_bool:val <- $r4
	@DEBUG_VALUE: mbedtls_asn1_get_bool:ret <- $r0
	@DEBUG_VALUE: mbedtls_asn1_get_bool:len <- [DW_OP_plus_uconst 4, DW_OP_deref] $sp
	@DEBUG_VALUE: mbedtls_asn1_get_bool:end <- [DW_OP_LLVM_entry_value 1] $r1
	.loc	3 133 9                         @ ../../../ThirdParty/mbedTLS/library/asn1parse.c:133:9
	ldr	r0, [sp, #4]
.Ltmp44:
	@DEBUG_VALUE: mbedtls_asn1_get_bool:len <- $r0
	.loc	3 133 9 is_stmt 0               @ ../../../ThirdParty/mbedTLS/library/asn1parse.c:133:9
	cmp	r0, #1
	bne	.LBB2_4
.Ltmp45:
@ %bb.3:
	@DEBUG_VALUE: mbedtls_asn1_get_bool:p <- $r5
	@DEBUG_VALUE: mbedtls_asn1_get_bool:val <- $r4
	@DEBUG_VALUE: mbedtls_asn1_get_bool:len <- $r0
	@DEBUG_VALUE: mbedtls_asn1_get_bool:end <- [DW_OP_LLVM_entry_value 1] $r1
	.loc	3 136 15 is_stmt 1              @ ../../../ThirdParty/mbedTLS/library/asn1parse.c:136:15
	ldr	r0, [r5]
.Ltmp46:
	.loc	3 136 14 is_stmt 0              @ ../../../ThirdParty/mbedTLS/library/asn1parse.c:136:14
	ldrb	r1, [r0]
	.loc	3 137 9 is_stmt 1               @ ../../../ThirdParty/mbedTLS/library/asn1parse.c:137:9
	adds	r0, r0, #1
	str	r0, [r5]
	.loc	3 136 18                        @ ../../../ThirdParty/mbedTLS/library/asn1parse.c:136:18
	subs	r0, r1, #1
	sbcs	r1, r0
	.loc	3 136 10 is_stmt 0              @ ../../../ThirdParty/mbedTLS/library/asn1parse.c:136:10
	str	r1, [r4]
	movs	r0, #0
	.loc	3 140 1 is_stmt 1               @ ../../../ThirdParty/mbedTLS/library/asn1parse.c:140:1
	add	sp, #8
	pop	{r4, r5, r7, pc}
.Ltmp47:
.LBB2_4:
	@DEBUG_VALUE: mbedtls_asn1_get_bool:p <- $r5
	@DEBUG_VALUE: mbedtls_asn1_get_bool:val <- $r4
	@DEBUG_VALUE: mbedtls_asn1_get_bool:len <- $r0
	@DEBUG_VALUE: mbedtls_asn1_get_bool:end <- [DW_OP_LLVM_entry_value 1] $r1
	.loc	3 0 1 is_stmt 0                 @ ../../../ThirdParty/mbedTLS/library/asn1parse.c:0:1
	movs	r0, #99
.Ltmp48:
	mvns	r0, r0
	.loc	3 140 1                         @ ../../../ThirdParty/mbedTLS/library/asn1parse.c:140:1
	add	sp, #8
	pop	{r4, r5, r7, pc}
.Ltmp49:
.Lfunc_end2:
	.size	mbedtls_asn1_get_bool, .Lfunc_end2-mbedtls_asn1_get_bool
	.cfi_endproc
	.cantunwind
	.fnend
                                        @ -- End function
	.section	.text.mbedtls_asn1_get_int,"ax",%progbits
	.hidden	mbedtls_asn1_get_int            @ -- Begin function mbedtls_asn1_get_int
	.globl	mbedtls_asn1_get_int
	.p2align	1
	.type	mbedtls_asn1_get_int,%function
	.code	16                              @ @mbedtls_asn1_get_int
	.thumb_func
mbedtls_asn1_get_int:
.Lfunc_begin3:
	.loc	3 145 0 is_stmt 1               @ ../../../ThirdParty/mbedTLS/library/asn1parse.c:145:0
	.fnstart
	.cfi_startproc
@ %bb.0:
	@DEBUG_VALUE: mbedtls_asn1_get_int:p <- $r0
	@DEBUG_VALUE: mbedtls_asn1_get_int:end <- $r1
	@DEBUG_VALUE: mbedtls_asn1_get_int:val <- $r2
	.save	{r4, r5, r6, lr}
	push	{r4, r5, r6, lr}
	.cfi_def_cfa_offset 16
	.cfi_offset lr, -4
	.cfi_offset r6, -8
	.cfi_offset r5, -12
	.cfi_offset r4, -16
	.pad	#8
	sub	sp, #8
	.cfi_def_cfa_offset 24
	mov	r4, r2
	mov	r5, r0
.Ltmp50:
	@DEBUG_VALUE: mbedtls_asn1_get_int:len <- [DW_OP_plus_uconst 4, DW_OP_deref] $sp
	@DEBUG_VALUE: mbedtls_asn1_get_int:val <- $r4
	@DEBUG_VALUE: mbedtls_asn1_get_int:end <- $r1
	@DEBUG_VALUE: mbedtls_asn1_get_int:p <- $r5
	add	r2, sp, #4
	movs	r3, #2
	@DEBUG_VALUE: mbedtls_asn1_get_int:end <- $r1
.Ltmp51:
	.loc	3 149 17 prologue_end           @ ../../../ThirdParty/mbedTLS/library/asn1parse.c:149:17
	bl	mbedtls_asn1_get_tag
.Ltmp52:
	@DEBUG_VALUE: mbedtls_asn1_get_int:end <- [DW_OP_LLVM_entry_value 1] $r1
	@DEBUG_VALUE: mbedtls_asn1_get_int:ret <- $r0
	.loc	3 149 9 is_stmt 0               @ ../../../ThirdParty/mbedTLS/library/asn1parse.c:149:9
	cbz	r0, .LBB3_2
.Ltmp53:
.LBB3_1:
	@DEBUG_VALUE: mbedtls_asn1_get_int:p <- $r5
	@DEBUG_VALUE: mbedtls_asn1_get_int:val <- $r4
	@DEBUG_VALUE: mbedtls_asn1_get_int:end <- [DW_OP_LLVM_entry_value 1] $r1
	.loc	3 164 1 is_stmt 1               @ ../../../ThirdParty/mbedTLS/library/asn1parse.c:164:1
	add	sp, #8
	pop	{r4, r5, r6, pc}
.Ltmp54:
.LBB3_2:
	@DEBUG_VALUE: mbedtls_asn1_get_int:p <- $r5
	@DEBUG_VALUE: mbedtls_asn1_get_int:val <- $r4
	@DEBUG_VALUE: mbedtls_asn1_get_int:ret <- $r0
	@DEBUG_VALUE: mbedtls_asn1_get_int:len <- [DW_OP_plus_uconst 4, DW_OP_deref] $sp
	@DEBUG_VALUE: mbedtls_asn1_get_int:end <- [DW_OP_LLVM_entry_value 1] $r1
	.loc	3 0 1 is_stmt 0                 @ ../../../ThirdParty/mbedTLS/library/asn1parse.c:0:1
	movs	r0, #99
.Ltmp55:
	mvns	r1, r0
.Ltmp56:
	.loc	3 152 9 is_stmt 1               @ ../../../ThirdParty/mbedTLS/library/asn1parse.c:152:9
	ldr	r0, [sp, #4]
.Ltmp57:
	@DEBUG_VALUE: mbedtls_asn1_get_int:len <- $r0
	.loc	3 152 18 is_stmt 0              @ ../../../ThirdParty/mbedTLS/library/asn1parse.c:152:18
	subs	r0, r0, #1
.Ltmp58:
	cmp	r0, #3
	bhi	.LBB3_8
.Ltmp59:
@ %bb.3:
	@DEBUG_VALUE: mbedtls_asn1_get_int:p <- $r5
	@DEBUG_VALUE: mbedtls_asn1_get_int:val <- $r4
	@DEBUG_VALUE: mbedtls_asn1_get_int:end <- [DW_OP_LLVM_entry_value 1] $r1
	.loc	3 152 47                        @ ../../../ThirdParty/mbedTLS/library/asn1parse.c:152:47
	ldr	r0, [r5]
	.loc	3 152 46                        @ ../../../ThirdParty/mbedTLS/library/asn1parse.c:152:46
	ldrb	r0, [r0]
	sxtb	r0, r0
.Ltmp60:
	.loc	3 152 9                         @ ../../../ThirdParty/mbedTLS/library/asn1parse.c:152:9
	cmp	r0, #0
	bmi	.LBB3_8
.Ltmp61:
@ %bb.4:
	@DEBUG_VALUE: mbedtls_asn1_get_int:p <- $r5
	@DEBUG_VALUE: mbedtls_asn1_get_int:val <- $r4
	@DEBUG_VALUE: mbedtls_asn1_get_int:end <- [DW_OP_LLVM_entry_value 1] $r1
	.loc	3 0 9                           @ ../../../ThirdParty/mbedTLS/library/asn1parse.c:0:9
	movs	r0, #0
	.loc	3 155 10 is_stmt 1              @ ../../../ThirdParty/mbedTLS/library/asn1parse.c:155:10
	str	r0, [r4]
	.loc	3 157 15                        @ ../../../ThirdParty/mbedTLS/library/asn1parse.c:157:15
	ldr	r2, [sp, #4]
.Ltmp62:
	@DEBUG_VALUE: mbedtls_asn1_get_int:len <- $r2
	subs	r3, r2, #1
.Ltmp63:
	@DEBUG_VALUE: mbedtls_asn1_get_int:len <- $r3
	str	r3, [sp, #4]
	.loc	3 157 5 is_stmt 0               @ ../../../ThirdParty/mbedTLS/library/asn1parse.c:157:5
	cmp	r2, #0
	beq	.LBB3_1
.Ltmp64:
@ %bb.5:
	@DEBUG_VALUE: mbedtls_asn1_get_int:p <- $r5
	@DEBUG_VALUE: mbedtls_asn1_get_int:val <- $r4
	@DEBUG_VALUE: mbedtls_asn1_get_int:len <- $r3
	@DEBUG_VALUE: mbedtls_asn1_get_int:end <- [DW_OP_LLVM_entry_value 1] $r1
	.loc	3 0 5                           @ ../../../ThirdParty/mbedTLS/library/asn1parse.c:0:5
	ldr	r2, [sp, #4]
	.loc	3 157 5                         @ ../../../ThirdParty/mbedTLS/library/asn1parse.c:157:5
	adds	r2, r2, #1
.Ltmp65:
.LBB3_6:                                @ =>This Inner Loop Header: Depth=1
	@DEBUG_VALUE: mbedtls_asn1_get_int:p <- $r5
	@DEBUG_VALUE: mbedtls_asn1_get_int:val <- $r4
	@DEBUG_VALUE: mbedtls_asn1_get_int:end <- [DW_OP_LLVM_entry_value 1] $r1
	.loc	3 159 33 is_stmt 1              @ ../../../ThirdParty/mbedTLS/library/asn1parse.c:159:33
	ldr	r3, [r5]
	.loc	3 159 32 is_stmt 0              @ ../../../ThirdParty/mbedTLS/library/asn1parse.c:159:32
	ldrb	r6, [r3]
	.loc	3 160 13 is_stmt 1              @ ../../../ThirdParty/mbedTLS/library/asn1parse.c:160:13
	adds	r3, r3, #1
	str	r3, [r5]
	.loc	3 159 18                        @ ../../../ThirdParty/mbedTLS/library/asn1parse.c:159:18
	ldr	r3, [r4]
	.loc	3 159 23 is_stmt 0              @ ../../../ThirdParty/mbedTLS/library/asn1parse.c:159:23
	lsls	r3, r3, #8
	.loc	3 159 30                        @ ../../../ThirdParty/mbedTLS/library/asn1parse.c:159:30
	adds	r3, r3, r6
	.loc	3 159 14                        @ ../../../ThirdParty/mbedTLS/library/asn1parse.c:159:14
	str	r3, [r4]
.Ltmp66:
	@DEBUG_VALUE: mbedtls_asn1_get_int:len <- [DW_OP_constu 1, DW_OP_minus, DW_OP_stack_value] undef
	.loc	3 157 18 is_stmt 1              @ ../../../ThirdParty/mbedTLS/library/asn1parse.c:157:18
	subs	r2, r2, #1
	.loc	3 157 5 is_stmt 0               @ ../../../ThirdParty/mbedTLS/library/asn1parse.c:157:5
	bne	.LBB3_6
.Ltmp67:
@ %bb.7:
	@DEBUG_VALUE: mbedtls_asn1_get_int:p <- $r5
	@DEBUG_VALUE: mbedtls_asn1_get_int:val <- $r4
	@DEBUG_VALUE: mbedtls_asn1_get_int:end <- [DW_OP_LLVM_entry_value 1] $r1
	.loc	3 157 15                        @ ../../../ThirdParty/mbedTLS/library/asn1parse.c:157:15
	adds	r1, #99
	str	r1, [sp, #4]
	.loc	3 164 1 is_stmt 1               @ ../../../ThirdParty/mbedTLS/library/asn1parse.c:164:1
	add	sp, #8
	pop	{r4, r5, r6, pc}
.Ltmp68:
.LBB3_8:
	@DEBUG_VALUE: mbedtls_asn1_get_int:p <- $r5
	@DEBUG_VALUE: mbedtls_asn1_get_int:val <- $r4
	@DEBUG_VALUE: mbedtls_asn1_get_int:end <- [DW_OP_LLVM_entry_value 1] $r1
	.loc	3 0 0 is_stmt 0                 @ ../../../ThirdParty/mbedTLS/library/asn1parse.c:0:0
	mov	r0, r1
	.loc	3 164 1                         @ ../../../ThirdParty/mbedTLS/library/asn1parse.c:164:1
	add	sp, #8
	pop	{r4, r5, r6, pc}
.Ltmp69:
.Lfunc_end3:
	.size	mbedtls_asn1_get_int, .Lfunc_end3-mbedtls_asn1_get_int
	.cfi_endproc
	.cantunwind
	.fnend
                                        @ -- End function
	.section	.text.mbedtls_asn1_get_mpi,"ax",%progbits
	.hidden	mbedtls_asn1_get_mpi            @ -- Begin function mbedtls_asn1_get_mpi
	.globl	mbedtls_asn1_get_mpi
	.p2align	1
	.type	mbedtls_asn1_get_mpi,%function
	.code	16                              @ @mbedtls_asn1_get_mpi
	.thumb_func
mbedtls_asn1_get_mpi:
.Lfunc_begin4:
	.loc	3 170 0 is_stmt 1               @ ../../../ThirdParty/mbedTLS/library/asn1parse.c:170:0
	.fnstart
	.cfi_startproc
@ %bb.0:
	@DEBUG_VALUE: mbedtls_asn1_get_mpi:p <- $r0
	@DEBUG_VALUE: mbedtls_asn1_get_mpi:end <- $r1
	@DEBUG_VALUE: mbedtls_asn1_get_mpi:X <- $r2
	.save	{r4, r5, r6, lr}
	push	{r4, r5, r6, lr}
	.cfi_def_cfa_offset 16
	.cfi_offset lr, -4
	.cfi_offset r6, -8
	.cfi_offset r5, -12
	.cfi_offset r4, -16
	.pad	#8
	sub	sp, #8
	.cfi_def_cfa_offset 24
	mov	r5, r2
	mov	r4, r0
.Ltmp70:
	@DEBUG_VALUE: mbedtls_asn1_get_mpi:len <- [DW_OP_plus_uconst 4, DW_OP_deref] $sp
	@DEBUG_VALUE: mbedtls_asn1_get_mpi:X <- $r5
	@DEBUG_VALUE: mbedtls_asn1_get_mpi:end <- $r1
	@DEBUG_VALUE: mbedtls_asn1_get_mpi:p <- $r4
	add	r2, sp, #4
	movs	r3, #2
	@DEBUG_VALUE: mbedtls_asn1_get_mpi:end <- $r1
.Ltmp71:
	.loc	3 174 17 prologue_end           @ ../../../ThirdParty/mbedTLS/library/asn1parse.c:174:17
	bl	mbedtls_asn1_get_tag
.Ltmp72:
	@DEBUG_VALUE: mbedtls_asn1_get_mpi:end <- [DW_OP_LLVM_entry_value 1] $r1
	@DEBUG_VALUE: mbedtls_asn1_get_mpi:ret <- $r0
	.loc	3 174 9 is_stmt 0               @ ../../../ThirdParty/mbedTLS/library/asn1parse.c:174:9
	cbz	r0, .LBB4_2
.Ltmp73:
@ %bb.1:
	@DEBUG_VALUE: mbedtls_asn1_get_mpi:X <- $r5
	@DEBUG_VALUE: mbedtls_asn1_get_mpi:p <- $r4
	@DEBUG_VALUE: mbedtls_asn1_get_mpi:ret <- $r0
	@DEBUG_VALUE: mbedtls_asn1_get_mpi:len <- [DW_OP_plus_uconst 4, DW_OP_deref] $sp
	@DEBUG_VALUE: mbedtls_asn1_get_mpi:end <- [DW_OP_LLVM_entry_value 1] $r1
	.loc	3 182 1 is_stmt 1               @ ../../../ThirdParty/mbedTLS/library/asn1parse.c:182:1
	add	sp, #8
.Ltmp74:
	pop	{r4, r5, r6, pc}
.Ltmp75:
.LBB4_2:
	@DEBUG_VALUE: mbedtls_asn1_get_mpi:X <- $r5
	@DEBUG_VALUE: mbedtls_asn1_get_mpi:p <- $r4
	@DEBUG_VALUE: mbedtls_asn1_get_mpi:ret <- $r0
	@DEBUG_VALUE: mbedtls_asn1_get_mpi:len <- [DW_OP_plus_uconst 4, DW_OP_deref] $sp
	@DEBUG_VALUE: mbedtls_asn1_get_mpi:end <- [DW_OP_LLVM_entry_value 1] $r1
	.loc	3 177 39                        @ ../../../ThirdParty/mbedTLS/library/asn1parse.c:177:39
	ldr	r1, [r4]
	.loc	3 177 43 is_stmt 0              @ ../../../ThirdParty/mbedTLS/library/asn1parse.c:177:43
	ldr	r6, [sp, #4]
.Ltmp76:
	@DEBUG_VALUE: mbedtls_asn1_get_mpi:len <- $r6
	.loc	3 177 11                        @ ../../../ThirdParty/mbedTLS/library/asn1parse.c:177:11
	mov	r0, r5
.Ltmp77:
	mov	r2, r6
	bl	mbedtls_mpi_read_binary
.Ltmp78:
	@DEBUG_VALUE: mbedtls_asn1_get_mpi:ret <- $r0
	.loc	3 179 8 is_stmt 1               @ ../../../ThirdParty/mbedTLS/library/asn1parse.c:179:8
	ldr	r1, [r4]
	adds	r1, r1, r6
	str	r1, [r4]
	.loc	3 182 1                         @ ../../../ThirdParty/mbedTLS/library/asn1parse.c:182:1
	add	sp, #8
	pop	{r4, r5, r6, pc}
.Ltmp79:
.Lfunc_end4:
	.size	mbedtls_asn1_get_mpi, .Lfunc_end4-mbedtls_asn1_get_mpi
	.cfi_endproc
	.cantunwind
	.fnend
                                        @ -- End function
	.section	.text.mbedtls_asn1_get_bitstring,"ax",%progbits
	.hidden	mbedtls_asn1_get_bitstring      @ -- Begin function mbedtls_asn1_get_bitstring
	.globl	mbedtls_asn1_get_bitstring
	.p2align	1
	.type	mbedtls_asn1_get_bitstring,%function
	.code	16                              @ @mbedtls_asn1_get_bitstring
	.thumb_func
mbedtls_asn1_get_bitstring:
.Lfunc_begin5:
	.loc	3 187 0                         @ ../../../ThirdParty/mbedTLS/library/asn1parse.c:187:0
	.fnstart
	.cfi_startproc
@ %bb.0:
	@DEBUG_VALUE: mbedtls_asn1_get_bitstring:p <- $r0
	@DEBUG_VALUE: mbedtls_asn1_get_bitstring:end <- $r1
	@DEBUG_VALUE: mbedtls_asn1_get_bitstring:bs <- $r2
	.save	{r4, r5, r6, lr}
	push	{r4, r5, r6, lr}
	.cfi_def_cfa_offset 16
	.cfi_offset lr, -4
	.cfi_offset r6, -8
	.cfi_offset r5, -12
	.cfi_offset r4, -16
	mov	r6, r2
	mov	r4, r1
	mov	r5, r0
.Ltmp80:
	@DEBUG_VALUE: mbedtls_asn1_get_bitstring:bs <- $r6
	@DEBUG_VALUE: mbedtls_asn1_get_bitstring:end <- $r4
	@DEBUG_VALUE: mbedtls_asn1_get_bitstring:p <- $r5
	movs	r3, #3
.Ltmp81:
	.loc	3 191 17 prologue_end           @ ../../../ThirdParty/mbedTLS/library/asn1parse.c:191:17
	bl	mbedtls_asn1_get_tag
.Ltmp82:
	@DEBUG_VALUE: mbedtls_asn1_get_bitstring:ret <- $r0
	.loc	3 191 9 is_stmt 0               @ ../../../ThirdParty/mbedTLS/library/asn1parse.c:191:9
	cbz	r0, .LBB5_2
.Ltmp83:
.LBB5_1:
	@DEBUG_VALUE: mbedtls_asn1_get_bitstring:bs <- $r6
	@DEBUG_VALUE: mbedtls_asn1_get_bitstring:p <- $r5
	@DEBUG_VALUE: mbedtls_asn1_get_bitstring:end <- $r4
	.loc	3 0 0                           @ ../../../ThirdParty/mbedTLS/library/asn1parse.c:0:0
	pop	{r4, r5, r6, pc}
.Ltmp84:
.LBB5_2:
	@DEBUG_VALUE: mbedtls_asn1_get_bitstring:bs <- $r6
	@DEBUG_VALUE: mbedtls_asn1_get_bitstring:p <- $r5
	@DEBUG_VALUE: mbedtls_asn1_get_bitstring:end <- $r4
	@DEBUG_VALUE: mbedtls_asn1_get_bitstring:ret <- $r0
	.loc	3 195 13 is_stmt 1              @ ../../../ThirdParty/mbedTLS/library/asn1parse.c:195:13
	ldr	r1, [r6]
	movs	r0, #101
.Ltmp85:
	.loc	3 0 13 is_stmt 0                @ ../../../ThirdParty/mbedTLS/library/asn1parse.c:0:13
	mvns	r0, r0
.Ltmp86:
	.loc	3 195 9                         @ ../../../ThirdParty/mbedTLS/library/asn1parse.c:195:9
	cbz	r1, .LBB5_5
.Ltmp87:
@ %bb.3:
	@DEBUG_VALUE: mbedtls_asn1_get_bitstring:bs <- $r6
	@DEBUG_VALUE: mbedtls_asn1_get_bitstring:p <- $r5
	@DEBUG_VALUE: mbedtls_asn1_get_bitstring:end <- $r4
	.loc	3 197 13 is_stmt 1              @ ../../../ThirdParty/mbedTLS/library/asn1parse.c:197:13
	subs	r1, r1, #1
	str	r1, [r6]
	.loc	3 200 24                        @ ../../../ThirdParty/mbedTLS/library/asn1parse.c:200:24
	ldr	r2, [r5]
	.loc	3 200 23 is_stmt 0              @ ../../../ThirdParty/mbedTLS/library/asn1parse.c:200:23
	ldrb	r3, [r2]
	.loc	3 200 21                        @ ../../../ThirdParty/mbedTLS/library/asn1parse.c:200:21
	strb	r3, [r6, #4]
	.loc	3 201 9 is_stmt 1               @ ../../../ThirdParty/mbedTLS/library/asn1parse.c:201:9
	cmp	r3, #7
	bls	.LBB5_6
.Ltmp88:
@ %bb.4:
	@DEBUG_VALUE: mbedtls_asn1_get_bitstring:bs <- $r6
	@DEBUG_VALUE: mbedtls_asn1_get_bitstring:p <- $r5
	@DEBUG_VALUE: mbedtls_asn1_get_bitstring:end <- $r4
	.loc	3 0 9 is_stmt 0                 @ ../../../ThirdParty/mbedTLS/library/asn1parse.c:0:9
	adds	r0, r0, #2
	pop	{r4, r5, r6, pc}
.Ltmp89:
.LBB5_5:
	@DEBUG_VALUE: mbedtls_asn1_get_bitstring:bs <- $r6
	@DEBUG_VALUE: mbedtls_asn1_get_bitstring:p <- $r5
	@DEBUG_VALUE: mbedtls_asn1_get_bitstring:end <- $r4
	adds	r0, r0, #6
	pop	{r4, r5, r6, pc}
.Ltmp90:
.LBB5_6:
	@DEBUG_VALUE: mbedtls_asn1_get_bitstring:bs <- $r6
	@DEBUG_VALUE: mbedtls_asn1_get_bitstring:p <- $r5
	@DEBUG_VALUE: mbedtls_asn1_get_bitstring:end <- $r4
	.loc	3 203 9 is_stmt 1               @ ../../../ThirdParty/mbedTLS/library/asn1parse.c:203:9
	adds	r2, r2, #1
	str	r2, [r5]
	.loc	3 206 11                        @ ../../../ThirdParty/mbedTLS/library/asn1parse.c:206:11
	str	r2, [r6, #8]
	.loc	3 207 8                         @ ../../../ThirdParty/mbedTLS/library/asn1parse.c:207:8
	ldr	r2, [r5]
	adds	r1, r2, r1
	str	r1, [r5]
	.loc	3 209 9                         @ ../../../ThirdParty/mbedTLS/library/asn1parse.c:209:9
	cmp	r1, r4
	bne	.LBB5_1
.Ltmp91:
@ %bb.7:
	@DEBUG_VALUE: mbedtls_asn1_get_bitstring:bs <- $r6
	@DEBUG_VALUE: mbedtls_asn1_get_bitstring:p <- $r5
	@DEBUG_VALUE: mbedtls_asn1_get_bitstring:end <- $r4
	.loc	3 0 9 is_stmt 0                 @ ../../../ThirdParty/mbedTLS/library/asn1parse.c:0:9
	movs	r0, #0
	pop	{r4, r5, r6, pc}
.Ltmp92:
.Lfunc_end5:
	.size	mbedtls_asn1_get_bitstring, .Lfunc_end5-mbedtls_asn1_get_bitstring
	.cfi_endproc
	.cantunwind
	.fnend
                                        @ -- End function
	.section	.text.mbedtls_asn1_get_bitstring_null,"ax",%progbits
	.hidden	mbedtls_asn1_get_bitstring_null @ -- Begin function mbedtls_asn1_get_bitstring_null
	.globl	mbedtls_asn1_get_bitstring_null
	.p2align	1
	.type	mbedtls_asn1_get_bitstring_null,%function
	.code	16                              @ @mbedtls_asn1_get_bitstring_null
	.thumb_func
mbedtls_asn1_get_bitstring_null:
.Lfunc_begin6:
	.loc	3 220 0 is_stmt 1               @ ../../../ThirdParty/mbedTLS/library/asn1parse.c:220:0
	.fnstart
	.cfi_startproc
@ %bb.0:
	@DEBUG_VALUE: mbedtls_asn1_get_bitstring_null:p <- $r0
	@DEBUG_VALUE: mbedtls_asn1_get_bitstring_null:end <- $r1
	@DEBUG_VALUE: mbedtls_asn1_get_bitstring_null:len <- $r2
	.save	{r4, r5, r7, lr}
	push	{r4, r5, r7, lr}
	.cfi_def_cfa_offset 16
	.cfi_offset lr, -4
	.cfi_offset r7, -8
	.cfi_offset r5, -12
	.cfi_offset r4, -16
	mov	r5, r2
	mov	r4, r0
.Ltmp93:
	@DEBUG_VALUE: mbedtls_asn1_get_bitstring_null:len <- $r5
	@DEBUG_VALUE: mbedtls_asn1_get_bitstring_null:end <- $r1
	@DEBUG_VALUE: mbedtls_asn1_get_bitstring_null:p <- $r4
	movs	r3, #3
	@DEBUG_VALUE: mbedtls_asn1_get_bitstring_null:end <- $r1
.Ltmp94:
	.loc	3 223 17 prologue_end           @ ../../../ThirdParty/mbedTLS/library/asn1parse.c:223:17
	bl	mbedtls_asn1_get_tag
.Ltmp95:
	@DEBUG_VALUE: mbedtls_asn1_get_bitstring_null:end <- [DW_OP_LLVM_entry_value 1] $r1
	@DEBUG_VALUE: mbedtls_asn1_get_bitstring_null:ret <- $r0
	.loc	3 223 9 is_stmt 0               @ ../../../ThirdParty/mbedTLS/library/asn1parse.c:223:9
	cbz	r0, .LBB6_2
.Ltmp96:
.LBB6_1:
	@DEBUG_VALUE: mbedtls_asn1_get_bitstring_null:len <- $r5
	@DEBUG_VALUE: mbedtls_asn1_get_bitstring_null:p <- $r4
	@DEBUG_VALUE: mbedtls_asn1_get_bitstring_null:end <- [DW_OP_LLVM_entry_value 1] $r1
	.loc	3 0 0                           @ ../../../ThirdParty/mbedTLS/library/asn1parse.c:0:0
	pop	{r4, r5, r7, pc}
.Ltmp97:
.LBB6_2:
	@DEBUG_VALUE: mbedtls_asn1_get_bitstring_null:len <- $r5
	@DEBUG_VALUE: mbedtls_asn1_get_bitstring_null:p <- $r4
	@DEBUG_VALUE: mbedtls_asn1_get_bitstring_null:ret <- $r0
	@DEBUG_VALUE: mbedtls_asn1_get_bitstring_null:end <- [DW_OP_LLVM_entry_value 1] $r1
	.loc	3 226 15 is_stmt 1              @ ../../../ThirdParty/mbedTLS/library/asn1parse.c:226:15
	ldr	r1, [r5]
	subs	r0, r1, #1
.Ltmp98:
	str	r0, [r5]
	movs	r0, #103
	mvns	r0, r0
	.loc	3 226 22 is_stmt 0              @ ../../../ThirdParty/mbedTLS/library/asn1parse.c:226:22
	cmp	r1, #2
	blo	.LBB6_1
.Ltmp99:
@ %bb.3:
	@DEBUG_VALUE: mbedtls_asn1_get_bitstring_null:len <- $r5
	@DEBUG_VALUE: mbedtls_asn1_get_bitstring_null:p <- $r4
	@DEBUG_VALUE: mbedtls_asn1_get_bitstring_null:end <- [DW_OP_LLVM_entry_value 1] $r1
	.loc	3 226 30                        @ ../../../ThirdParty/mbedTLS/library/asn1parse.c:226:30
	ldr	r1, [r4]
	adds	r2, r1, #1
	str	r2, [r4]
	.loc	3 226 25                        @ ../../../ThirdParty/mbedTLS/library/asn1parse.c:226:25
	ldrb	r1, [r1]
.Ltmp100:
	.loc	3 226 9                         @ ../../../ThirdParty/mbedTLS/library/asn1parse.c:226:9
	cmp	r1, #0
	bne	.LBB6_1
.Ltmp101:
@ %bb.4:
	@DEBUG_VALUE: mbedtls_asn1_get_bitstring_null:len <- $r5
	@DEBUG_VALUE: mbedtls_asn1_get_bitstring_null:p <- $r4
	@DEBUG_VALUE: mbedtls_asn1_get_bitstring_null:end <- [DW_OP_LLVM_entry_value 1] $r1
	mov	r0, r1
	.loc	3 0 0                           @ ../../../ThirdParty/mbedTLS/library/asn1parse.c:0:0
	pop	{r4, r5, r7, pc}
.Ltmp102:
.Lfunc_end6:
	.size	mbedtls_asn1_get_bitstring_null, .Lfunc_end6-mbedtls_asn1_get_bitstring_null
	.cfi_endproc
	.cantunwind
	.fnend
                                        @ -- End function
	.section	.text.mbedtls_asn1_get_sequence_of,"ax",%progbits
	.hidden	mbedtls_asn1_get_sequence_of    @ -- Begin function mbedtls_asn1_get_sequence_of
	.globl	mbedtls_asn1_get_sequence_of
	.p2align	1
	.type	mbedtls_asn1_get_sequence_of,%function
	.code	16                              @ @mbedtls_asn1_get_sequence_of
	.thumb_func
mbedtls_asn1_get_sequence_of:
.Lfunc_begin7:
	.loc	3 241 0 is_stmt 1               @ ../../../ThirdParty/mbedTLS/library/asn1parse.c:241:0
	.fnstart
	.cfi_startproc
@ %bb.0:
	@DEBUG_VALUE: mbedtls_asn1_get_sequence_of:p <- $r0
	@DEBUG_VALUE: mbedtls_asn1_get_sequence_of:end <- $r1
	@DEBUG_VALUE: mbedtls_asn1_get_sequence_of:cur <- $r2
	@DEBUG_VALUE: mbedtls_asn1_get_sequence_of:tag <- $r3
	.save	{r4, r5, r6, r7, lr}
	push	{r4, r5, r6, r7, lr}
	.cfi_def_cfa_offset 20
	.cfi_offset lr, -4
	.cfi_offset r7, -8
	.cfi_offset r6, -12
	.cfi_offset r5, -16
	.cfi_offset r4, -20
	.pad	#20
	sub	sp, #20
	.cfi_def_cfa_offset 40
	mov	r6, r3
	mov	r7, r2
	mov	r4, r1
	mov	r5, r0
.Ltmp103:
	@DEBUG_VALUE: mbedtls_asn1_get_sequence_of:len <- [DW_OP_plus_uconst 16, DW_OP_deref] $sp
	@DEBUG_VALUE: mbedtls_asn1_get_sequence_of:tag <- $r6
	@DEBUG_VALUE: mbedtls_asn1_get_sequence_of:cur <- $r7
	@DEBUG_VALUE: mbedtls_asn1_get_sequence_of:end <- $r4
	@DEBUG_VALUE: mbedtls_asn1_get_sequence_of:p <- $r5
	add	r2, sp, #16
	movs	r3, #48
.Ltmp104:
	.loc	3 247 17 prologue_end           @ ../../../ThirdParty/mbedTLS/library/asn1parse.c:247:17
	bl	mbedtls_asn1_get_tag
.Ltmp105:
	@DEBUG_VALUE: mbedtls_asn1_get_sequence_of:ret <- $r0
	.loc	3 247 9 is_stmt 0               @ ../../../ThirdParty/mbedTLS/library/asn1parse.c:247:9
	cbz	r0, .LBB7_2
.Ltmp106:
.LBB7_1:
	@DEBUG_VALUE: mbedtls_asn1_get_sequence_of:cur <- $r7
	@DEBUG_VALUE: mbedtls_asn1_get_sequence_of:tag <- $r6
	@DEBUG_VALUE: mbedtls_asn1_get_sequence_of:p <- $r5
	@DEBUG_VALUE: mbedtls_asn1_get_sequence_of:end <- $r4
	.loc	3 285 1 is_stmt 1               @ ../../../ThirdParty/mbedTLS/library/asn1parse.c:285:1
	add	sp, #20
	pop	{r4, r5, r6, r7, pc}
.Ltmp107:
.LBB7_2:
	@DEBUG_VALUE: mbedtls_asn1_get_sequence_of:cur <- $r7
	@DEBUG_VALUE: mbedtls_asn1_get_sequence_of:tag <- $r6
	@DEBUG_VALUE: mbedtls_asn1_get_sequence_of:p <- $r5
	@DEBUG_VALUE: mbedtls_asn1_get_sequence_of:end <- $r4
	@DEBUG_VALUE: mbedtls_asn1_get_sequence_of:ret <- $r0
	@DEBUG_VALUE: mbedtls_asn1_get_sequence_of:len <- [DW_OP_plus_uconst 16, DW_OP_deref] $sp
	.loc	3 251 9                         @ ../../../ThirdParty/mbedTLS/library/asn1parse.c:251:9
	ldr	r0, [r5]
.Ltmp108:
	.loc	3 251 14 is_stmt 0              @ ../../../ThirdParty/mbedTLS/library/asn1parse.c:251:14
	ldr	r1, [sp, #16]
.Ltmp109:
	@DEBUG_VALUE: mbedtls_asn1_get_sequence_of:len <- $r1
	.loc	3 251 12                        @ ../../../ThirdParty/mbedTLS/library/asn1parse.c:251:12
	adds	r0, r0, r1
	movs	r1, #101
.Ltmp110:
	.loc	3 0 12                          @ ../../../ThirdParty/mbedTLS/library/asn1parse.c:0:12
	mvns	r1, r1
.Ltmp111:
	.loc	3 251 9                         @ ../../../ThirdParty/mbedTLS/library/asn1parse.c:251:9
	cmp	r0, r4
	beq	.LBB7_4
.Ltmp112:
@ %bb.3:
	@DEBUG_VALUE: mbedtls_asn1_get_sequence_of:cur <- $r7
	@DEBUG_VALUE: mbedtls_asn1_get_sequence_of:tag <- $r6
	@DEBUG_VALUE: mbedtls_asn1_get_sequence_of:p <- $r5
	@DEBUG_VALUE: mbedtls_asn1_get_sequence_of:end <- $r4
	.loc	3 0 0                           @ ../../../ThirdParty/mbedTLS/library/asn1parse.c:0:0
	mov	r0, r1
	.loc	3 285 1 is_stmt 1               @ ../../../ThirdParty/mbedTLS/library/asn1parse.c:285:1
	add	sp, #20
	pop	{r4, r5, r6, r7, pc}
.Ltmp113:
.LBB7_4:
	@DEBUG_VALUE: mbedtls_asn1_get_sequence_of:cur <- $r7
	@DEBUG_VALUE: mbedtls_asn1_get_sequence_of:tag <- $r6
	@DEBUG_VALUE: mbedtls_asn1_get_sequence_of:p <- $r5
	@DEBUG_VALUE: mbedtls_asn1_get_sequence_of:end <- $r4
	.loc	3 254 12                        @ ../../../ThirdParty/mbedTLS/library/asn1parse.c:254:12
	ldr	r0, [r5]
	.loc	3 254 5 is_stmt 0               @ ../../../ThirdParty/mbedTLS/library/asn1parse.c:254:5
	cmp	r0, r4
.Ltmp114:
	@DEBUG_VALUE: mbedtls_asn1_get_sequence_of:cur <- undef
	str	r1, [sp, #4]                    @ 4-byte Spill
	bhs	.LBB7_11
.Ltmp115:
@ %bb.5:
	@DEBUG_VALUE: mbedtls_asn1_get_sequence_of:tag <- $r6
	@DEBUG_VALUE: mbedtls_asn1_get_sequence_of:p <- $r5
	@DEBUG_VALUE: mbedtls_asn1_get_sequence_of:end <- $r4
	.loc	3 0 5                           @ ../../../ThirdParty/mbedTLS/library/asn1parse.c:0:5
	movs	r2, #1
	str	r2, [sp, #12]                   @ 4-byte Spill
	movs	r2, #16
	str	r2, [sp, #8]                    @ 4-byte Spill
	subs	r1, r1, #4
	str	r1, [sp]                        @ 4-byte Spill
	b	.LBB7_7
.Ltmp116:
.LBB7_6:                                @   in Loop: Header=BB7_7 Depth=1
	@DEBUG_VALUE: mbedtls_asn1_get_sequence_of:cur <- $r7
	@DEBUG_VALUE: mbedtls_asn1_get_sequence_of:tag <- $r6
	@DEBUG_VALUE: mbedtls_asn1_get_sequence_of:p <- $r5
	@DEBUG_VALUE: mbedtls_asn1_get_sequence_of:end <- $r4
	@DEBUG_VALUE: mbedtls_asn1_get_sequence_of:cur <- $r7
	.loc	3 254 12                        @ ../../../ThirdParty/mbedTLS/library/asn1parse.c:254:12
	ldr	r0, [r5]
	.loc	3 254 5                         @ ../../../ThirdParty/mbedTLS/library/asn1parse.c:254:5
	cmp	r0, r4
	bhs	.LBB7_11
.Ltmp117:
.LBB7_7:                                @ =>This Inner Loop Header: Depth=1
	@DEBUG_VALUE: mbedtls_asn1_get_sequence_of:tag <- $r6
	@DEBUG_VALUE: mbedtls_asn1_get_sequence_of:p <- $r5
	@DEBUG_VALUE: mbedtls_asn1_get_sequence_of:end <- $r4
	@DEBUG_VALUE: mbedtls_asn1_get_sequence_of:cur <- $r7
	@DEBUG_VALUE: mbedtls_asn1_get_sequence_of:buf <- $r7
	.loc	3 257 20 is_stmt 1              @ ../../../ThirdParty/mbedTLS/library/asn1parse.c:257:20
	ldrb	r0, [r0]
	.loc	3 257 18 is_stmt 0              @ ../../../ThirdParty/mbedTLS/library/asn1parse.c:257:18
	mov	r2, r7
	stm	r2!, {r0}
.Ltmp118:
	.loc	3 259 21 is_stmt 1              @ ../../../ThirdParty/mbedTLS/library/asn1parse.c:259:21
	mov	r0, r5
	mov	r1, r4
	mov	r3, r6
	bl	mbedtls_asn1_get_tag
.Ltmp119:
	@DEBUG_VALUE: mbedtls_asn1_get_sequence_of:ret <- $r0
	.loc	3 259 13 is_stmt 0              @ ../../../ThirdParty/mbedTLS/library/asn1parse.c:259:13
	cmp	r0, #0
	bne	.LBB7_1
.Ltmp120:
@ %bb.8:                                @   in Loop: Header=BB7_7 Depth=1
	@DEBUG_VALUE: mbedtls_asn1_get_sequence_of:buf <- $r7
	@DEBUG_VALUE: mbedtls_asn1_get_sequence_of:cur <- $r7
	@DEBUG_VALUE: mbedtls_asn1_get_sequence_of:tag <- $r6
	@DEBUG_VALUE: mbedtls_asn1_get_sequence_of:p <- $r5
	@DEBUG_VALUE: mbedtls_asn1_get_sequence_of:end <- $r4
	@DEBUG_VALUE: mbedtls_asn1_get_sequence_of:ret <- $r0
	@DEBUG_VALUE: mbedtls_asn1_get_sequence_of:buf <- $r7
	.loc	3 262 18 is_stmt 1              @ ../../../ThirdParty/mbedTLS/library/asn1parse.c:262:18
	ldr	r0, [r5]
.Ltmp121:
	.loc	3 262 16 is_stmt 0              @ ../../../ThirdParty/mbedTLS/library/asn1parse.c:262:16
	str	r0, [r7, #8]
	.loc	3 263 20 is_stmt 1              @ ../../../ThirdParty/mbedTLS/library/asn1parse.c:263:20
	ldr	r0, [r7, #4]
	.loc	3 263 12 is_stmt 0              @ ../../../ThirdParty/mbedTLS/library/asn1parse.c:263:12
	ldr	r1, [r5]
	adds	r0, r1, r0
	str	r0, [r5]
	.loc	3 266 13 is_stmt 1              @ ../../../ThirdParty/mbedTLS/library/asn1parse.c:266:13
	cmp	r0, r4
	bhs	.LBB7_6
.Ltmp122:
@ %bb.9:                                @   in Loop: Header=BB7_7 Depth=1
	@DEBUG_VALUE: mbedtls_asn1_get_sequence_of:buf <- $r7
	@DEBUG_VALUE: mbedtls_asn1_get_sequence_of:cur <- $r7
	@DEBUG_VALUE: mbedtls_asn1_get_sequence_of:tag <- $r6
	@DEBUG_VALUE: mbedtls_asn1_get_sequence_of:p <- $r5
	@DEBUG_VALUE: mbedtls_asn1_get_sequence_of:end <- $r4
	.loc	3 268 49                        @ ../../../ThirdParty/mbedTLS/library/asn1parse.c:268:49
	ldr	r0, [sp, #12]                   @ 4-byte Reload
	ldr	r1, [sp, #8]                    @ 4-byte Reload
	bl	calloc
	.loc	3 268 23 is_stmt 0              @ ../../../ThirdParty/mbedTLS/library/asn1parse.c:268:23
	str	r0, [r7, #12]
	.loc	3 271 17 is_stmt 1              @ ../../../ThirdParty/mbedTLS/library/asn1parse.c:271:17
	cbz	r0, .LBB7_13
.Ltmp123:
@ %bb.10:                               @   in Loop: Header=BB7_7 Depth=1
	@DEBUG_VALUE: mbedtls_asn1_get_sequence_of:buf <- $r7
	@DEBUG_VALUE: mbedtls_asn1_get_sequence_of:cur <- $r7
	@DEBUG_VALUE: mbedtls_asn1_get_sequence_of:tag <- $r6
	@DEBUG_VALUE: mbedtls_asn1_get_sequence_of:p <- $r5
	@DEBUG_VALUE: mbedtls_asn1_get_sequence_of:end <- $r4
	@DEBUG_VALUE: mbedtls_asn1_get_sequence_of:cur <- $r0
	.loc	3 0 17 is_stmt 0                @ ../../../ThirdParty/mbedTLS/library/asn1parse.c:0:17
	mov	r7, r0
.Ltmp124:
	@DEBUG_VALUE: mbedtls_asn1_get_sequence_of:cur <- $r7
	@DEBUG_VALUE: mbedtls_asn1_get_sequence_of:cur <- $r7
	b	.LBB7_6
.Ltmp125:
.LBB7_11:
	@DEBUG_VALUE: mbedtls_asn1_get_sequence_of:tag <- $r6
	@DEBUG_VALUE: mbedtls_asn1_get_sequence_of:p <- $r5
	@DEBUG_VALUE: mbedtls_asn1_get_sequence_of:end <- $r4
	@DEBUG_VALUE: mbedtls_asn1_get_sequence_of:cur <- $r7
	movs	r0, #0
	.loc	3 279 15 is_stmt 1              @ ../../../ThirdParty/mbedTLS/library/asn1parse.c:279:15
	str	r0, [r7, #12]
.Ltmp126:
	.loc	3 281 9                         @ ../../../ThirdParty/mbedTLS/library/asn1parse.c:281:9
	ldr	r1, [r5]
.Ltmp127:
	.loc	3 281 9 is_stmt 0               @ ../../../ThirdParty/mbedTLS/library/asn1parse.c:281:9
	cmp	r1, r4
	beq	.LBB7_1
.Ltmp128:
@ %bb.12:
	@DEBUG_VALUE: mbedtls_asn1_get_sequence_of:cur <- $r7
	@DEBUG_VALUE: mbedtls_asn1_get_sequence_of:tag <- $r6
	@DEBUG_VALUE: mbedtls_asn1_get_sequence_of:p <- $r5
	@DEBUG_VALUE: mbedtls_asn1_get_sequence_of:end <- $r4
	ldr	r0, [sp, #4]                    @ 4-byte Reload
	.loc	3 285 1 is_stmt 1               @ ../../../ThirdParty/mbedTLS/library/asn1parse.c:285:1
	add	sp, #20
	pop	{r4, r5, r6, r7, pc}
.Ltmp129:
.LBB7_13:
	@DEBUG_VALUE: mbedtls_asn1_get_sequence_of:buf <- $r7
	@DEBUG_VALUE: mbedtls_asn1_get_sequence_of:cur <- $r7
	@DEBUG_VALUE: mbedtls_asn1_get_sequence_of:tag <- $r6
	@DEBUG_VALUE: mbedtls_asn1_get_sequence_of:p <- $r5
	@DEBUG_VALUE: mbedtls_asn1_get_sequence_of:end <- $r4
	.loc	3 0 0 is_stmt 0                 @ ../../../ThirdParty/mbedTLS/library/asn1parse.c:0:0
	ldr	r0, [sp]                        @ 4-byte Reload
	.loc	3 285 1                         @ ../../../ThirdParty/mbedTLS/library/asn1parse.c:285:1
	add	sp, #20
	pop	{r4, r5, r6, r7, pc}
.Ltmp130:
.Lfunc_end7:
	.size	mbedtls_asn1_get_sequence_of, .Lfunc_end7-mbedtls_asn1_get_sequence_of
	.cfi_endproc
	.cantunwind
	.fnend
                                        @ -- End function
	.section	.text.mbedtls_asn1_get_alg,"ax",%progbits
	.hidden	mbedtls_asn1_get_alg            @ -- Begin function mbedtls_asn1_get_alg
	.globl	mbedtls_asn1_get_alg
	.p2align	1
	.type	mbedtls_asn1_get_alg,%function
	.code	16                              @ @mbedtls_asn1_get_alg
	.thumb_func
mbedtls_asn1_get_alg:
.Lfunc_begin8:
	.loc	3 290 0 is_stmt 1               @ ../../../ThirdParty/mbedTLS/library/asn1parse.c:290:0
	.fnstart
	.cfi_startproc
@ %bb.0:
	@DEBUG_VALUE: mbedtls_asn1_get_alg:p <- $r0
	@DEBUG_VALUE: mbedtls_asn1_get_alg:end <- $r1
	@DEBUG_VALUE: mbedtls_asn1_get_alg:alg <- $r2
	@DEBUG_VALUE: mbedtls_asn1_get_alg:params <- $r3
	.save	{r4, r5, r6, r7, lr}
	push	{r4, r5, r6, r7, lr}
	.cfi_def_cfa_offset 20
	.cfi_offset lr, -4
	.cfi_offset r7, -8
	.cfi_offset r6, -12
	.cfi_offset r5, -16
	.cfi_offset r4, -20
	.pad	#12
	sub	sp, #12
	.cfi_def_cfa_offset 32
	mov	r4, r3
	mov	r7, r2
	mov	r6, r1
	mov	r5, r0
.Ltmp131:
	@DEBUG_VALUE: mbedtls_asn1_get_alg:len <- [DW_OP_plus_uconst 8, DW_OP_deref] $sp
	@DEBUG_VALUE: mbedtls_asn1_get_alg:params <- $r4
	@DEBUG_VALUE: mbedtls_asn1_get_alg:alg <- $r7
	@DEBUG_VALUE: mbedtls_asn1_get_alg:end <- $r6
	@DEBUG_VALUE: mbedtls_asn1_get_alg:p <- $r5
	add	r2, sp, #8
	movs	r3, #48
.Ltmp132:
	.loc	3 294 17 prologue_end           @ ../../../ThirdParty/mbedTLS/library/asn1parse.c:294:17
	bl	mbedtls_asn1_get_tag
.Ltmp133:
	@DEBUG_VALUE: mbedtls_asn1_get_alg:ret <- $r0
	.loc	3 294 9 is_stmt 0               @ ../../../ThirdParty/mbedTLS/library/asn1parse.c:294:9
	cbz	r0, .LBB8_2
.Ltmp134:
.LBB8_1:
	@DEBUG_VALUE: mbedtls_asn1_get_alg:alg <- $r7
	@DEBUG_VALUE: mbedtls_asn1_get_alg:end <- $r6
	@DEBUG_VALUE: mbedtls_asn1_get_alg:p <- $r5
	@DEBUG_VALUE: mbedtls_asn1_get_alg:params <- $r4
	@DEBUG_VALUE: mbedtls_asn1_get_alg:ret <- $r0
	.loc	3 329 1 is_stmt 1               @ ../../../ThirdParty/mbedTLS/library/asn1parse.c:329:1
	add	sp, #12
	pop	{r4, r5, r6, r7, pc}
.Ltmp135:
.LBB8_2:
	@DEBUG_VALUE: mbedtls_asn1_get_alg:alg <- $r7
	@DEBUG_VALUE: mbedtls_asn1_get_alg:end <- $r6
	@DEBUG_VALUE: mbedtls_asn1_get_alg:p <- $r5
	@DEBUG_VALUE: mbedtls_asn1_get_alg:params <- $r4
	@DEBUG_VALUE: mbedtls_asn1_get_alg:ret <- $r0
	@DEBUG_VALUE: mbedtls_asn1_get_alg:len <- [DW_OP_plus_uconst 8, DW_OP_deref] $sp
	.loc	3 298 17                        @ ../../../ThirdParty/mbedTLS/library/asn1parse.c:298:17
	ldr	r0, [r5]
.Ltmp136:
	.loc	3 298 15 is_stmt 0              @ ../../../ThirdParty/mbedTLS/library/asn1parse.c:298:15
	subs	r1, r6, r0
	movs	r2, #101
	mvns	r2, r2
.Ltmp137:
	.loc	3 298 9                         @ ../../../ThirdParty/mbedTLS/library/asn1parse.c:298:9
	cmp	r1, #1
	blt	.LBB8_8
.Ltmp138:
@ %bb.3:
	@DEBUG_VALUE: mbedtls_asn1_get_alg:alg <- $r7
	@DEBUG_VALUE: mbedtls_asn1_get_alg:end <- $r6
	@DEBUG_VALUE: mbedtls_asn1_get_alg:p <- $r5
	@DEBUG_VALUE: mbedtls_asn1_get_alg:params <- $r4
	@DEBUG_VALUE: mbedtls_asn1_get_alg:len <- [DW_OP_plus_uconst 8, DW_OP_deref] $sp
	.loc	3 0 9                           @ ../../../ThirdParty/mbedTLS/library/asn1parse.c:0:9
	str	r2, [sp, #4]                    @ 4-byte Spill
	.loc	3 301 16 is_stmt 1              @ ../../../ThirdParty/mbedTLS/library/asn1parse.c:301:16
	ldrb	r1, [r0]
	.loc	3 301 14 is_stmt 0              @ ../../../ThirdParty/mbedTLS/library/asn1parse.c:301:14
	mov	r2, r7
	stm	r2!, {r1}
	.loc	3 302 16 is_stmt 1              @ ../../../ThirdParty/mbedTLS/library/asn1parse.c:302:16
	ldr	r1, [sp, #8]
.Ltmp139:
	@DEBUG_VALUE: mbedtls_asn1_get_alg:len <- $r1
	.loc	3 302 14 is_stmt 0              @ ../../../ThirdParty/mbedTLS/library/asn1parse.c:302:14
	adds	r6, r0, r1
.Ltmp140:
	@DEBUG_VALUE: mbedtls_asn1_get_alg:end <- $r6
	.loc	3 0 14                          @ ../../../ThirdParty/mbedTLS/library/asn1parse.c:0:14
	movs	r3, #6
.Ltmp141:
	.loc	3 304 17 is_stmt 1              @ ../../../ThirdParty/mbedTLS/library/asn1parse.c:304:17
	mov	r0, r5
	mov	r1, r6
.Ltmp142:
	bl	mbedtls_asn1_get_tag
.Ltmp143:
	@DEBUG_VALUE: mbedtls_asn1_get_alg:ret <- $r0
	.loc	3 304 9 is_stmt 0               @ ../../../ThirdParty/mbedTLS/library/asn1parse.c:304:9
	cmp	r0, #0
	bne	.LBB8_1
.Ltmp144:
@ %bb.4:
	@DEBUG_VALUE: mbedtls_asn1_get_alg:alg <- $r7
	@DEBUG_VALUE: mbedtls_asn1_get_alg:end <- $r6
	@DEBUG_VALUE: mbedtls_asn1_get_alg:p <- $r5
	@DEBUG_VALUE: mbedtls_asn1_get_alg:params <- $r4
	@DEBUG_VALUE: mbedtls_asn1_get_alg:ret <- $r0
	.loc	3 307 14 is_stmt 1              @ ../../../ThirdParty/mbedTLS/library/asn1parse.c:307:14
	ldr	r0, [r5]
.Ltmp145:
	.loc	3 307 12 is_stmt 0              @ ../../../ThirdParty/mbedTLS/library/asn1parse.c:307:12
	str	r0, [r7, #8]
	.loc	3 308 16 is_stmt 1              @ ../../../ThirdParty/mbedTLS/library/asn1parse.c:308:16
	ldr	r0, [r7, #4]
	.loc	3 308 8 is_stmt 0               @ ../../../ThirdParty/mbedTLS/library/asn1parse.c:308:8
	ldr	r1, [r5]
	adds	r0, r1, r0
	str	r0, [r5]
	.loc	3 310 9 is_stmt 1               @ ../../../ThirdParty/mbedTLS/library/asn1parse.c:310:9
	cmp	r0, r6
	beq	.LBB8_9
.Ltmp146:
@ %bb.5:
	@DEBUG_VALUE: mbedtls_asn1_get_alg:alg <- $r7
	@DEBUG_VALUE: mbedtls_asn1_get_alg:end <- $r6
	@DEBUG_VALUE: mbedtls_asn1_get_alg:p <- $r5
	@DEBUG_VALUE: mbedtls_asn1_get_alg:params <- $r4
	.loc	3 316 19                        @ ../../../ThirdParty/mbedTLS/library/asn1parse.c:316:19
	ldrb	r1, [r0]
	.loc	3 317 9                         @ ../../../ThirdParty/mbedTLS/library/asn1parse.c:317:9
	adds	r0, r0, #1
	str	r0, [r5]
	.loc	3 316 17                        @ ../../../ThirdParty/mbedTLS/library/asn1parse.c:316:17
	mov	r2, r4
	stm	r2!, {r1}
.Ltmp147:
	.loc	3 319 17                        @ ../../../ThirdParty/mbedTLS/library/asn1parse.c:319:17
	mov	r0, r5
	mov	r1, r6
	bl	mbedtls_asn1_get_len
.Ltmp148:
	@DEBUG_VALUE: mbedtls_asn1_get_alg:ret <- $r0
	.loc	3 319 9 is_stmt 0               @ ../../../ThirdParty/mbedTLS/library/asn1parse.c:319:9
	cmp	r0, #0
	bne	.LBB8_1
.Ltmp149:
@ %bb.6:
	@DEBUG_VALUE: mbedtls_asn1_get_alg:alg <- $r7
	@DEBUG_VALUE: mbedtls_asn1_get_alg:end <- $r6
	@DEBUG_VALUE: mbedtls_asn1_get_alg:p <- $r5
	@DEBUG_VALUE: mbedtls_asn1_get_alg:params <- $r4
	@DEBUG_VALUE: mbedtls_asn1_get_alg:ret <- $r0
	.loc	3 322 17 is_stmt 1              @ ../../../ThirdParty/mbedTLS/library/asn1parse.c:322:17
	ldr	r0, [r5]
.Ltmp150:
	.loc	3 322 15 is_stmt 0              @ ../../../ThirdParty/mbedTLS/library/asn1parse.c:322:15
	str	r0, [r4, #8]
	.loc	3 323 19 is_stmt 1              @ ../../../ThirdParty/mbedTLS/library/asn1parse.c:323:19
	ldr	r0, [r4, #4]
	.loc	3 323 8 is_stmt 0               @ ../../../ThirdParty/mbedTLS/library/asn1parse.c:323:8
	ldr	r1, [r5]
	adds	r0, r1, r0
	str	r0, [r5]
	.loc	3 325 9 is_stmt 1               @ ../../../ThirdParty/mbedTLS/library/asn1parse.c:325:9
	cmp	r0, r6
	beq	.LBB8_10
.Ltmp151:
@ %bb.7:
	@DEBUG_VALUE: mbedtls_asn1_get_alg:alg <- $r7
	@DEBUG_VALUE: mbedtls_asn1_get_alg:end <- $r6
	@DEBUG_VALUE: mbedtls_asn1_get_alg:p <- $r5
	@DEBUG_VALUE: mbedtls_asn1_get_alg:params <- $r4
	ldr	r0, [sp, #4]                    @ 4-byte Reload
	.loc	3 329 1                         @ ../../../ThirdParty/mbedTLS/library/asn1parse.c:329:1
	add	sp, #12
	pop	{r4, r5, r6, r7, pc}
.Ltmp152:
.LBB8_8:
	@DEBUG_VALUE: mbedtls_asn1_get_alg:alg <- $r7
	@DEBUG_VALUE: mbedtls_asn1_get_alg:end <- $r6
	@DEBUG_VALUE: mbedtls_asn1_get_alg:p <- $r5
	@DEBUG_VALUE: mbedtls_asn1_get_alg:params <- $r4
	@DEBUG_VALUE: mbedtls_asn1_get_alg:len <- [DW_OP_plus_uconst 8, DW_OP_deref] $sp
	.loc	3 0 1 is_stmt 0                 @ ../../../ThirdParty/mbedTLS/library/asn1parse.c:0:1
	adds	r0, r2, #6
	.loc	3 329 1                         @ ../../../ThirdParty/mbedTLS/library/asn1parse.c:329:1
	add	sp, #12
.Ltmp153:
	pop	{r4, r5, r6, r7, pc}
.Ltmp154:
.LBB8_9:
	@DEBUG_VALUE: mbedtls_asn1_get_alg:alg <- $r7
	@DEBUG_VALUE: mbedtls_asn1_get_alg:end <- $r6
	@DEBUG_VALUE: mbedtls_asn1_get_alg:p <- $r5
	@DEBUG_VALUE: mbedtls_asn1_get_alg:params <- $r4
	.loc	3 0 1                           @ ../../../ThirdParty/mbedTLS/library/asn1parse.c:0:1
	movs	r1, #12
.Ltmp155:
	.loc	3 312 9 is_stmt 1               @ ../../../ThirdParty/mbedTLS/library/asn1parse.c:312:9
	mov	r0, r4
	bl	mbedtls_platform_zeroize
.Ltmp156:
.LBB8_10:
	@DEBUG_VALUE: mbedtls_asn1_get_alg:alg <- $r7
	@DEBUG_VALUE: mbedtls_asn1_get_alg:end <- $r6
	@DEBUG_VALUE: mbedtls_asn1_get_alg:p <- $r5
	@DEBUG_VALUE: mbedtls_asn1_get_alg:params <- $r4
	.loc	3 0 9 is_stmt 0                 @ ../../../ThirdParty/mbedTLS/library/asn1parse.c:0:9
	movs	r0, #0
	.loc	3 329 1 is_stmt 1               @ ../../../ThirdParty/mbedTLS/library/asn1parse.c:329:1
	add	sp, #12
	pop	{r4, r5, r6, r7, pc}
.Ltmp157:
.Lfunc_end8:
	.size	mbedtls_asn1_get_alg, .Lfunc_end8-mbedtls_asn1_get_alg
	.cfi_endproc
	.cantunwind
	.fnend
                                        @ -- End function
	.section	.text.mbedtls_asn1_get_alg_null,"ax",%progbits
	.hidden	mbedtls_asn1_get_alg_null       @ -- Begin function mbedtls_asn1_get_alg_null
	.globl	mbedtls_asn1_get_alg_null
	.p2align	1
	.type	mbedtls_asn1_get_alg_null,%function
	.code	16                              @ @mbedtls_asn1_get_alg_null
	.thumb_func
mbedtls_asn1_get_alg_null:
.Lfunc_begin9:
	.loc	3 334 0                         @ ../../../ThirdParty/mbedTLS/library/asn1parse.c:334:0
	.fnstart
	.cfi_startproc
@ %bb.0:
	@DEBUG_VALUE: mbedtls_asn1_get_alg_null:p <- $r0
	@DEBUG_VALUE: mbedtls_asn1_get_alg_null:end <- $r1
	@DEBUG_VALUE: mbedtls_asn1_get_alg_null:alg <- $r2
	.save	{r7, lr}
	push	{r7, lr}
	.cfi_def_cfa_offset 8
	.cfi_offset lr, -4
	.cfi_offset r7, -8
	.pad	#16
	sub	sp, #16
	.cfi_def_cfa_offset 24
	movs	r3, #0
	@DEBUG_VALUE: mbedtls_asn1_get_alg_null:alg <- $r2
	@DEBUG_VALUE: mbedtls_asn1_get_alg_null:end <- $r1
	@DEBUG_VALUE: mbedtls_asn1_get_alg_null:p <- $r0
.Ltmp158:
	.loc	3 338 5 prologue_end            @ ../../../ThirdParty/mbedTLS/library/asn1parse.c:338:5
	str	r3, [sp, #12]
	str	r3, [sp, #8]
	str	r3, [sp, #4]
	add	r3, sp, #4
	@DEBUG_VALUE: mbedtls_asn1_get_alg_null:alg <- $r2
	@DEBUG_VALUE: mbedtls_asn1_get_alg_null:end <- $r1
	@DEBUG_VALUE: mbedtls_asn1_get_alg_null:p <- $r0
.Ltmp159:
	.loc	3 340 17                        @ ../../../ThirdParty/mbedTLS/library/asn1parse.c:340:17
	bl	mbedtls_asn1_get_alg
.Ltmp160:
	@DEBUG_VALUE: mbedtls_asn1_get_alg_null:alg <- [DW_OP_LLVM_entry_value 1] $r2
	@DEBUG_VALUE: mbedtls_asn1_get_alg_null:end <- [DW_OP_LLVM_entry_value 1] $r1
	@DEBUG_VALUE: mbedtls_asn1_get_alg_null:p <- [DW_OP_LLVM_entry_value 1] $r0
	@DEBUG_VALUE: mbedtls_asn1_get_alg_null:ret <- $r0
	.loc	3 340 9 is_stmt 0               @ ../../../ThirdParty/mbedTLS/library/asn1parse.c:340:9
	cbz	r0, .LBB9_2
.Ltmp161:
.LBB9_1:
	@DEBUG_VALUE: mbedtls_asn1_get_alg_null:alg <- [DW_OP_LLVM_entry_value 1] $r2
	@DEBUG_VALUE: mbedtls_asn1_get_alg_null:end <- [DW_OP_LLVM_entry_value 1] $r1
	@DEBUG_VALUE: mbedtls_asn1_get_alg_null:p <- [DW_OP_LLVM_entry_value 1] $r0
	.loc	3 347 1 is_stmt 1               @ ../../../ThirdParty/mbedTLS/library/asn1parse.c:347:1
	add	sp, #16
	pop	{r7, pc}
.Ltmp162:
.LBB9_2:
	@DEBUG_VALUE: mbedtls_asn1_get_alg_null:ret <- $r0
	@DEBUG_VALUE: mbedtls_asn1_get_alg_null:alg <- [DW_OP_LLVM_entry_value 1] $r2
	@DEBUG_VALUE: mbedtls_asn1_get_alg_null:end <- [DW_OP_LLVM_entry_value 1] $r1
	@DEBUG_VALUE: mbedtls_asn1_get_alg_null:p <- [DW_OP_LLVM_entry_value 1] $r0
	.loc	3 0 1 is_stmt 0                 @ ../../../ThirdParty/mbedTLS/library/asn1parse.c:0:1
	movs	r0, #103
.Ltmp163:
	mvns	r0, r0
.Ltmp164:
	.loc	3 343 18 is_stmt 1              @ ../../../ThirdParty/mbedTLS/library/asn1parse.c:343:18
	ldr	r1, [sp, #4]
	.loc	3 343 43 is_stmt 0              @ ../../../ThirdParty/mbedTLS/library/asn1parse.c:343:43
	cmp	r1, #5
	beq	.LBB9_4
.Ltmp165:
@ %bb.3:
	@DEBUG_VALUE: mbedtls_asn1_get_alg_null:alg <- [DW_OP_LLVM_entry_value 1] $r2
	@DEBUG_VALUE: mbedtls_asn1_get_alg_null:end <- [DW_OP_LLVM_entry_value 1] $r1
	@DEBUG_VALUE: mbedtls_asn1_get_alg_null:p <- [DW_OP_LLVM_entry_value 1] $r0
	cmp	r1, #0
	bne	.LBB9_1
.Ltmp166:
.LBB9_4:
	@DEBUG_VALUE: mbedtls_asn1_get_alg_null:alg <- [DW_OP_LLVM_entry_value 1] $r2
	@DEBUG_VALUE: mbedtls_asn1_get_alg_null:end <- [DW_OP_LLVM_entry_value 1] $r1
	@DEBUG_VALUE: mbedtls_asn1_get_alg_null:p <- [DW_OP_LLVM_entry_value 1] $r0
	.loc	3 343 74                        @ ../../../ThirdParty/mbedTLS/library/asn1parse.c:343:74
	ldr	r1, [sp, #8]
.Ltmp167:
	.loc	3 343 9                         @ ../../../ThirdParty/mbedTLS/library/asn1parse.c:343:9
	cmp	r1, #0
	bne	.LBB9_1
.Ltmp168:
@ %bb.5:
	@DEBUG_VALUE: mbedtls_asn1_get_alg_null:alg <- [DW_OP_LLVM_entry_value 1] $r2
	@DEBUG_VALUE: mbedtls_asn1_get_alg_null:end <- [DW_OP_LLVM_entry_value 1] $r1
	@DEBUG_VALUE: mbedtls_asn1_get_alg_null:p <- [DW_OP_LLVM_entry_value 1] $r0
	mov	r0, r1
	.loc	3 347 1 is_stmt 1               @ ../../../ThirdParty/mbedTLS/library/asn1parse.c:347:1
	add	sp, #16
	pop	{r7, pc}
.Ltmp169:
.Lfunc_end9:
	.size	mbedtls_asn1_get_alg_null, .Lfunc_end9-mbedtls_asn1_get_alg_null
	.cfi_endproc
	.cantunwind
	.fnend
                                        @ -- End function
	.section	.text.mbedtls_asn1_free_named_data,"ax",%progbits
	.hidden	mbedtls_asn1_free_named_data    @ -- Begin function mbedtls_asn1_free_named_data
	.globl	mbedtls_asn1_free_named_data
	.p2align	1
	.type	mbedtls_asn1_free_named_data,%function
	.code	16                              @ @mbedtls_asn1_free_named_data
	.thumb_func
mbedtls_asn1_free_named_data:
.Lfunc_begin10:
	.loc	3 350 0                         @ ../../../ThirdParty/mbedTLS/library/asn1parse.c:350:0
	.fnstart
	.cfi_startproc
@ %bb.0:
	@DEBUG_VALUE: mbedtls_asn1_free_named_data:cur <- $r0
	@DEBUG_VALUE: mbedtls_asn1_free_named_data:cur <- $r0
	.save	{r4, lr}
	push	{r4, lr}
	.cfi_def_cfa_offset 8
	.cfi_offset lr, -4
	.cfi_offset r4, -8
.Ltmp170:
	.loc	3 351 9 prologue_end            @ ../../../ThirdParty/mbedTLS/library/asn1parse.c:351:9
	cbz	r0, .LBB10_2
.Ltmp171:
@ %bb.1:
	@DEBUG_VALUE: mbedtls_asn1_free_named_data:cur <- $r0
	.loc	3 0 9 is_stmt 0                 @ ../../../ThirdParty/mbedTLS/library/asn1parse.c:0:9
	mov	r4, r0
.Ltmp172:
	@DEBUG_VALUE: mbedtls_asn1_free_named_data:cur <- $r4
	.loc	3 354 28 is_stmt 1              @ ../../../ThirdParty/mbedTLS/library/asn1parse.c:354:28
	ldr	r0, [r0, #8]
	.loc	3 354 5 is_stmt 0               @ ../../../ThirdParty/mbedTLS/library/asn1parse.c:354:5
	bl	free
	.loc	3 355 28 is_stmt 1              @ ../../../ThirdParty/mbedTLS/library/asn1parse.c:355:28
	ldr	r0, [r4, #20]
	.loc	3 355 5 is_stmt 0               @ ../../../ThirdParty/mbedTLS/library/asn1parse.c:355:5
	bl	free
	movs	r1, #32
	.loc	3 357 5 is_stmt 1               @ ../../../ThirdParty/mbedTLS/library/asn1parse.c:357:5
	mov	r0, r4
	bl	mbedtls_platform_zeroize
.Ltmp173:
.LBB10_2:
	.loc	3 358 1                         @ ../../../ThirdParty/mbedTLS/library/asn1parse.c:358:1
	pop	{r4, pc}
.Ltmp174:
.Lfunc_end10:
	.size	mbedtls_asn1_free_named_data, .Lfunc_end10-mbedtls_asn1_free_named_data
	.cfi_endproc
	.cantunwind
	.fnend
                                        @ -- End function
	.section	.text.mbedtls_asn1_free_named_data_list,"ax",%progbits
	.hidden	mbedtls_asn1_free_named_data_list @ -- Begin function mbedtls_asn1_free_named_data_list
	.globl	mbedtls_asn1_free_named_data_list
	.p2align	1
	.type	mbedtls_asn1_free_named_data_list,%function
	.code	16                              @ @mbedtls_asn1_free_named_data_list
	.thumb_func
mbedtls_asn1_free_named_data_list:
.Lfunc_begin11:
	.loc	3 361 0                         @ ../../../ThirdParty/mbedTLS/library/asn1parse.c:361:0
	.fnstart
	.cfi_startproc
@ %bb.0:
	@DEBUG_VALUE: mbedtls_asn1_free_named_data_list:head <- $r0
	@DEBUG_VALUE: mbedtls_asn1_free_named_data_list:head <- $r0
	.save	{r4, r5, r7, lr}
	push	{r4, r5, r7, lr}
	.cfi_def_cfa_offset 16
	.cfi_offset lr, -4
	.cfi_offset r7, -8
	.cfi_offset r5, -12
	.cfi_offset r4, -16
.Ltmp175:
	.loc	3 364 20 prologue_end           @ ../../../ThirdParty/mbedTLS/library/asn1parse.c:364:20
	ldr	r5, [r0]
.Ltmp176:
	@DEBUG_VALUE: mbedtls_asn1_free_named_data_list:cur <- $r5
	.loc	3 364 5 is_stmt 0               @ ../../../ThirdParty/mbedTLS/library/asn1parse.c:364:5
	cbz	r5, .LBB11_3
.Ltmp177:
@ %bb.1:
	@DEBUG_VALUE: mbedtls_asn1_free_named_data_list:cur <- $r5
	@DEBUG_VALUE: mbedtls_asn1_free_named_data_list:head <- $r0
	.loc	3 0 5                           @ ../../../ThirdParty/mbedTLS/library/asn1parse.c:0:5
	mov	r4, r0
.Ltmp178:
	@DEBUG_VALUE: mbedtls_asn1_free_named_data_list:head <- $r4
.LBB11_2:                               @ =>This Inner Loop Header: Depth=1
	@DEBUG_VALUE: mbedtls_asn1_free_named_data_list:cur <- $r5
	@DEBUG_VALUE: mbedtls_asn1_free_named_data_list:head <- $r4
	.loc	3 366 22 is_stmt 1              @ ../../../ThirdParty/mbedTLS/library/asn1parse.c:366:22
	ldr	r0, [r5, #24]
	.loc	3 366 15 is_stmt 0              @ ../../../ThirdParty/mbedTLS/library/asn1parse.c:366:15
	str	r0, [r4]
	.loc	3 367 9 is_stmt 1               @ ../../../ThirdParty/mbedTLS/library/asn1parse.c:367:9
	mov	r0, r5
	bl	mbedtls_asn1_free_named_data
	.loc	3 368 9                         @ ../../../ThirdParty/mbedTLS/library/asn1parse.c:368:9
	mov	r0, r5
	bl	free
.Ltmp179:
	.loc	3 364 20                        @ ../../../ThirdParty/mbedTLS/library/asn1parse.c:364:20
	ldr	r5, [r4]
.Ltmp180:
	@DEBUG_VALUE: mbedtls_asn1_free_named_data_list:cur <- $r5
	.loc	3 364 5 is_stmt 0               @ ../../../ThirdParty/mbedTLS/library/asn1parse.c:364:5
	cmp	r5, #0
	bne	.LBB11_2
.Ltmp181:
.LBB11_3:
	@DEBUG_VALUE: mbedtls_asn1_free_named_data_list:cur <- $r5
	.loc	3 370 1 is_stmt 1               @ ../../../ThirdParty/mbedTLS/library/asn1parse.c:370:1
	pop	{r4, r5, r7, pc}
.Ltmp182:
.Lfunc_end11:
	.size	mbedtls_asn1_free_named_data_list, .Lfunc_end11-mbedtls_asn1_free_named_data_list
	.cfi_endproc
	.cantunwind
	.fnend
                                        @ -- End function
	.section	.text.mbedtls_asn1_find_named_data,"ax",%progbits
	.hidden	mbedtls_asn1_find_named_data    @ -- Begin function mbedtls_asn1_find_named_data
	.globl	mbedtls_asn1_find_named_data
	.p2align	1
	.type	mbedtls_asn1_find_named_data,%function
	.code	16                              @ @mbedtls_asn1_find_named_data
	.thumb_func
mbedtls_asn1_find_named_data:
.Lfunc_begin12:
	.loc	3 374 0                         @ ../../../ThirdParty/mbedTLS/library/asn1parse.c:374:0
	.fnstart
	.cfi_startproc
@ %bb.0:
	@DEBUG_VALUE: mbedtls_asn1_find_named_data:list <- $r0
	@DEBUG_VALUE: mbedtls_asn1_find_named_data:oid <- $r1
	@DEBUG_VALUE: mbedtls_asn1_find_named_data:len <- $r2
	.save	{r4, r5, r6, lr}
	push	{r4, r5, r6, lr}
	.cfi_def_cfa_offset 16
	.cfi_offset lr, -4
	.cfi_offset r6, -8
	.cfi_offset r5, -12
	.cfi_offset r4, -16
	mov	r4, r0
	@DEBUG_VALUE: mbedtls_asn1_find_named_data:len <- $r2
	@DEBUG_VALUE: mbedtls_asn1_find_named_data:oid <- $r1
.Ltmp183:
	@DEBUG_VALUE: mbedtls_asn1_find_named_data:list <- $r4
	.loc	3 375 5 prologue_end            @ ../../../ThirdParty/mbedTLS/library/asn1parse.c:375:5
	cbz	r0, .LBB12_5
.Ltmp184:
@ %bb.1:
	@DEBUG_VALUE: mbedtls_asn1_find_named_data:list <- $r4
	@DEBUG_VALUE: mbedtls_asn1_find_named_data:len <- $r2
	@DEBUG_VALUE: mbedtls_asn1_find_named_data:oid <- $r1
	.loc	3 0 5 is_stmt 0                 @ ../../../ThirdParty/mbedTLS/library/asn1parse.c:0:5
	mov	r5, r2
.Ltmp185:
	@DEBUG_VALUE: mbedtls_asn1_find_named_data:len <- $r5
	mov	r6, r1
.Ltmp186:
	@DEBUG_VALUE: mbedtls_asn1_find_named_data:oid <- $r6
	b	.LBB12_3
.Ltmp187:
.LBB12_2:                               @   in Loop: Header=BB12_3 Depth=1
	@DEBUG_VALUE: mbedtls_asn1_find_named_data:oid <- $r6
	@DEBUG_VALUE: mbedtls_asn1_find_named_data:len <- $r5
	@DEBUG_VALUE: mbedtls_asn1_find_named_data:list <- $r4
	.loc	3 383 22 is_stmt 1              @ ../../../ThirdParty/mbedTLS/library/asn1parse.c:383:22
	ldr	r4, [r4, #24]
.Ltmp188:
	@DEBUG_VALUE: mbedtls_asn1_find_named_data:list <- $r4
	.loc	3 375 5                         @ ../../../ThirdParty/mbedTLS/library/asn1parse.c:375:5
	cbz	r4, .LBB12_5
.Ltmp189:
.LBB12_3:                               @ =>This Inner Loop Header: Depth=1
	@DEBUG_VALUE: mbedtls_asn1_find_named_data:oid <- $r6
	@DEBUG_VALUE: mbedtls_asn1_find_named_data:len <- $r5
	@DEBUG_VALUE: mbedtls_asn1_find_named_data:list <- $r4
	@DEBUG_VALUE: mbedtls_asn1_find_named_data:list <- $r4
	.loc	3 377 23                        @ ../../../ThirdParty/mbedTLS/library/asn1parse.c:377:23
	ldr	r0, [r4, #4]
	.loc	3 377 34 is_stmt 0              @ ../../../ThirdParty/mbedTLS/library/asn1parse.c:377:34
	cmp	r0, r5
	bne	.LBB12_2
.Ltmp190:
@ %bb.4:                                @   in Loop: Header=BB12_3 Depth=1
	@DEBUG_VALUE: mbedtls_asn1_find_named_data:oid <- $r6
	@DEBUG_VALUE: mbedtls_asn1_find_named_data:len <- $r5
	@DEBUG_VALUE: mbedtls_asn1_find_named_data:list <- $r4
	.loc	3 378 35 is_stmt 1              @ ../../../ThirdParty/mbedTLS/library/asn1parse.c:378:35
	ldr	r0, [r4, #8]
	.loc	3 378 17 is_stmt 0              @ ../../../ThirdParty/mbedTLS/library/asn1parse.c:378:17
	mov	r1, r6
	mov	r2, r5
	bl	memcmp
.Ltmp191:
	.loc	3 377 13 is_stmt 1              @ ../../../ThirdParty/mbedTLS/library/asn1parse.c:377:13
	cmp	r0, #0
	bne	.LBB12_2
.Ltmp192:
.LBB12_5:
	@DEBUG_VALUE: mbedtls_asn1_find_named_data:list <- $r4
	@DEBUG_VALUE: mbedtls_asn1_find_named_data:list <- $r4
	.loc	3 386 5                         @ ../../../ThirdParty/mbedTLS/library/asn1parse.c:386:5
	mov	r0, r4
	pop	{r4, r5, r6, pc}
.Ltmp193:
.Lfunc_end12:
	.size	mbedtls_asn1_find_named_data, .Lfunc_end12-mbedtls_asn1_find_named_data
	.cfi_endproc
	.cantunwind
	.fnend
                                        @ -- End function
	.file	4 "C:\\Users\\shw26\\OneDrive\\Desktop\\2021\\2021-1\\\354\272\241\354\212\244\355\206\244\353\224\224\354\236\220\354\235\2702\\Nuvoton\\M2351_BSP_v3.00.004\\M2351Series_BSP_CMSIS_V3.00.004\\MyProject\\PulseMonitoring\\Secure" "../../../ThirdParty/mbedTLS/include/mbedtls\\bignum.h"
	.file	5 "C:\\" "Keil_v5\\ARM\\ARMCLANG\\Bin\\..\\include\\stdint.h"
	.section	".note.GNU-stack","",%progbits
	.eabi_attribute	30, 1	@ Tag_ABI_optimization_goals
	.ARM_attribute	16, 1	@ Tag_AV_eba