	.text
	.syntax unified
	.eabi_attribute	67, "2.09"	@ Tag_conformance
	.cpu	cortex-m23
	.eabi_attribute	6, 16	@ Tag_CPU_arch
	.eabi_attribute	7, 77	@ Tag_CPU_arch_profile
	.eabi_attribute	8, 0	@ Tag_ARM_ISA_use
	.eabi_attribute	9, 3	@ Tag_THUMB_ISA_use
	.eabi_attribute	34, 0	@ Tag_CPU_unaligned_access
	.eabi_attribute	17, 1	@ Tag_ABI_PCS_GOT_use
	.eabi_attribute	20, 2	@ Tag_ABI_FP_denormal
	.eabi_attribute	21, 0	@ Tag_ABI_FP_exceptions
	.eabi_attribute	23, 1	@ Tag_ABI_FP_number_model
	.eabi_attribute	24, 1	@ Tag_ABI_align_needed
	.eabi_attribute	25, 1	@ Tag_ABI_align_preserved
	.eabi_attribute	38, 1	@ Tag_ABI_FP_16bit_format
	.eabi_attribute	18, 2	@ Tag_ABI_PCS_wchar_t
	.eabi_attribute	26, 1	@ Tag_ABI_enum_size
	.eabi_attribute	14, 0	@ Tag_ABI_PCS_R9_use
	.file	"asn1write.c"
	.file	1 "C:\\" "Keil_v5\\ARM\\ARMCLANG\\Bin\\..\\include\\stddef.h"
	.file	2 "C:\\Users\\shw26\\OneDrive\\Desktop\\2021\\2021-1\\\354\272\241\354\212\244\355\206\244\353\224\224\354\236\220\354\235\2702\\Nuvoton\\M2351_BSP_v3.00.004\\M2351Series_BSP_CMSIS_V3.00.004\\MyProject\\PulseMonitoring\\Secure" "../../../ThirdParty/mbedTLS/include/mbedtls/asn1.h"
	.section	.text.mbedtls_asn1_write_len,"ax",%progbits
	.hidden	mbedtls_asn1_write_len          @ -- Begin function mbedtls_asn1_write_len
	.globl	mbedtls_asn1_write_len
	.p2align	1
	.type	mbedtls_asn1_write_len,%function
	.code	16                              @ @mbedtls_asn1_write_len
	.thumb_func
mbedtls_asn1_write_len:
.Lfunc_begin0:
	.file	3 "C:\\Users\\shw26\\OneDrive\\Desktop\\2021\\2021-1\\\354\272\241\354\212\244\355\206\244\353\224\224\354\236\220\354\235\2702\\Nuvoton\\M2351_BSP_v3.00.004\\M2351Series_BSP_CMSIS_V3.00.004\\MyProject\\PulseMonitoring\\Secure" "../../../ThirdParty/mbedTLS/library/asn1write.c"
	.loc	3 43 0                          @ ../../../ThirdParty/mbedTLS/library/asn1write.c:43:0
	.fnstart
	.cfi_sections .debug_frame
	.cfi_startproc
@ %bb.0:
	@DEBUG_VALUE: mbedtls_asn1_write_len:p <- $r0
	@DEBUG_VALUE: mbedtls_asn1_write_len:start <- $r1
	@DEBUG_VALUE: mbedtls_asn1_write_len:len <- $r2
	.save	{r4, r5, r6, lr}
	push	{r4, r5, r6, lr}
	.cfi_def_cfa_offset 16
	.cfi_offset lr, -4
	.cfi_offset r6, -8
	.cfi_offset r5, -12
	.cfi_offset r4, -16
	mov	r3, r0
	movs	r0, #0
.Ltmp0:
	@DEBUG_VALUE: mbedtls_asn1_write_len:p <- [DW_OP_LLVM_entry_value 1] $r0
	mvns	r0, r0
	@DEBUG_VALUE: mbedtls_asn1_write_len:len <- $r2
	@DEBUG_VALUE: mbedtls_asn1_write_len:start <- $r1
.Ltmp1:
	@DEBUG_VALUE: mbedtls_asn1_write_len:p <- $r3
	.loc	3 44 9 prologue_end             @ ../../../ThirdParty/mbedTLS/library/asn1write.c:44:9
	cmp	r2, #127
	bhi	.LBB0_3
.Ltmp2:
@ %bb.1:
	@DEBUG_VALUE: mbedtls_asn1_write_len:p <- $r3
	@DEBUG_VALUE: mbedtls_asn1_write_len:len <- $r2
	@DEBUG_VALUE: mbedtls_asn1_write_len:start <- $r1
	.loc	3 46 13                         @ ../../../ThirdParty/mbedTLS/library/asn1write.c:46:13
	ldr	r4, [r3]
	.loc	3 46 16 is_stmt 0               @ ../../../ThirdParty/mbedTLS/library/asn1write.c:46:16
	subs	r1, r4, r1
.Ltmp3:
	@DEBUG_VALUE: mbedtls_asn1_write_len:start <- [DW_OP_LLVM_entry_value 1] $r1
	.loc	3 46 13                         @ ../../../ThirdParty/mbedTLS/library/asn1write.c:46:13
	cmp	r1, #1
	blt	.LBB0_14
.Ltmp4:
@ %bb.2:
	@DEBUG_VALUE: mbedtls_asn1_write_len:p <- $r3
	@DEBUG_VALUE: mbedtls_asn1_write_len:len <- $r2
	@DEBUG_VALUE: mbedtls_asn1_write_len:start <- [DW_OP_LLVM_entry_value 1] $r1
	.loc	3 49 10 is_stmt 1               @ ../../../ThirdParty/mbedTLS/library/asn1write.c:49:10
	adds	r1, r4, r0
	str	r1, [r3]
	.loc	3 49 17 is_stmt 0               @ ../../../ThirdParty/mbedTLS/library/asn1write.c:49:17
	strb	r2, [r4, r0]
	movs	r0, #1
.Ltmp5:
	.loc	3 104 1 is_stmt 1               @ ../../../ThirdParty/mbedTLS/library/asn1write.c:104:1
	pop	{r4, r5, r6, pc}
.Ltmp6:
.LBB0_3:
	@DEBUG_VALUE: mbedtls_asn1_write_len:p <- $r3
	@DEBUG_VALUE: mbedtls_asn1_write_len:len <- $r2
	@DEBUG_VALUE: mbedtls_asn1_write_len:start <- $r1
	.loc	3 53 9                          @ ../../../ThirdParty/mbedTLS/library/asn1write.c:53:9
	cmp	r2, #255
	bhi	.LBB0_6
.Ltmp7:
@ %bb.4:
	@DEBUG_VALUE: mbedtls_asn1_write_len:p <- $r3
	@DEBUG_VALUE: mbedtls_asn1_write_len:len <- $r2
	@DEBUG_VALUE: mbedtls_asn1_write_len:start <- $r1
	.loc	3 55 13                         @ ../../../ThirdParty/mbedTLS/library/asn1write.c:55:13
	ldr	r4, [r3]
	.loc	3 55 16 is_stmt 0               @ ../../../ThirdParty/mbedTLS/library/asn1write.c:55:16
	subs	r1, r4, r1
.Ltmp8:
	@DEBUG_VALUE: mbedtls_asn1_write_len:start <- [DW_OP_LLVM_entry_value 1] $r1
	.loc	3 55 13                         @ ../../../ThirdParty/mbedTLS/library/asn1write.c:55:13
	cmp	r1, #2
	bge	.LBB0_9
.Ltmp9:
@ %bb.5:
	@DEBUG_VALUE: mbedtls_asn1_write_len:p <- $r3
	@DEBUG_VALUE: mbedtls_asn1_write_len:len <- $r2
	@DEBUG_VALUE: mbedtls_asn1_write_len:start <- [DW_OP_LLVM_entry_value 1] $r1
	.loc	3 0 13                          @ ../../../ThirdParty/mbedTLS/library/asn1write.c:0:13
	subs	r0, #107
	.loc	3 104 1 is_stmt 1               @ ../../../ThirdParty/mbedTLS/library/asn1write.c:104:1
	pop	{r4, r5, r6, pc}
.Ltmp10:
.LBB0_6:
	@DEBUG_VALUE: mbedtls_asn1_write_len:p <- $r3
	@DEBUG_VALUE: mbedtls_asn1_write_len:len <- $r2
	@DEBUG_VALUE: mbedtls_asn1_write_len:start <- $r1
	.loc	3 63 9                          @ ../../../ThirdParty/mbedTLS/library/asn1write.c:63:9
	lsrs	r4, r2, #16
	bne	.LBB0_10
.Ltmp11:
@ %bb.7:
	@DEBUG_VALUE: mbedtls_asn1_write_len:p <- $r3
	@DEBUG_VALUE: mbedtls_asn1_write_len:len <- $r2
	@DEBUG_VALUE: mbedtls_asn1_write_len:start <- $r1
	.loc	3 65 13                         @ ../../../ThirdParty/mbedTLS/library/asn1write.c:65:13
	ldr	r4, [r3]
	.loc	3 65 16 is_stmt 0               @ ../../../ThirdParty/mbedTLS/library/asn1write.c:65:16
	subs	r1, r4, r1
.Ltmp12:
	@DEBUG_VALUE: mbedtls_asn1_write_len:start <- [DW_OP_LLVM_entry_value 1] $r1
	.loc	3 65 13                         @ ../../../ThirdParty/mbedTLS/library/asn1write.c:65:13
	cmp	r1, #3
	blt	.LBB0_14
.Ltmp13:
@ %bb.8:
	@DEBUG_VALUE: mbedtls_asn1_write_len:p <- $r3
	@DEBUG_VALUE: mbedtls_asn1_write_len:len <- $r2
	@DEBUG_VALUE: mbedtls_asn1_write_len:start <- [DW_OP_LLVM_entry_value 1] $r1
	.loc	3 68 10 is_stmt 1               @ ../../../ThirdParty/mbedTLS/library/asn1write.c:68:10
	adds	r1, r4, r0
	str	r1, [r3]
	.loc	3 68 17 is_stmt 0               @ ../../../ThirdParty/mbedTLS/library/asn1write.c:68:17
	strb	r2, [r4, r0]
	.loc	3 69 10 is_stmt 1               @ ../../../ThirdParty/mbedTLS/library/asn1write.c:69:10
	ldr	r1, [r3]
	adds	r4, r1, r0
	str	r4, [r3]
	.loc	3 69 25 is_stmt 0               @ ../../../ThirdParty/mbedTLS/library/asn1write.c:69:25
	lsrs	r2, r2, #8
.Ltmp14:
	@DEBUG_VALUE: mbedtls_asn1_write_len:len <- [DW_OP_LLVM_entry_value 1] $r2
	.loc	3 69 17                         @ ../../../ThirdParty/mbedTLS/library/asn1write.c:69:17
	strb	r2, [r1, r0]
	.loc	3 70 10 is_stmt 1               @ ../../../ThirdParty/mbedTLS/library/asn1write.c:70:10
	ldr	r1, [r3]
	adds	r2, r1, r0
	str	r2, [r3]
	movs	r2, #130
	.loc	3 70 17 is_stmt 0               @ ../../../ThirdParty/mbedTLS/library/asn1write.c:70:17
	strb	r2, [r1, r0]
	movs	r0, #3
.Ltmp15:
	.loc	3 104 1 is_stmt 1               @ ../../../ThirdParty/mbedTLS/library/asn1write.c:104:1
	pop	{r4, r5, r6, pc}
.Ltmp16:
.LBB0_9:
	@DEBUG_VALUE: mbedtls_asn1_write_len:p <- $r3
	@DEBUG_VALUE: mbedtls_asn1_write_len:len <- $r2
	@DEBUG_VALUE: mbedtls_asn1_write_len:start <- [DW_OP_LLVM_entry_value 1] $r1
	.loc	3 58 10                         @ ../../../ThirdParty/mbedTLS/library/asn1write.c:58:10
	adds	r1, r4, r0
	str	r1, [r3]
	.loc	3 58 17 is_stmt 0               @ ../../../ThirdParty/mbedTLS/library/asn1write.c:58:17
	strb	r2, [r4, r0]
	.loc	3 59 10 is_stmt 1               @ ../../../ThirdParty/mbedTLS/library/asn1write.c:59:10
	ldr	r1, [r3]
	adds	r2, r1, r0
.Ltmp17:
	@DEBUG_VALUE: mbedtls_asn1_write_len:len <- [DW_OP_LLVM_entry_value 1] $r2
	str	r2, [r3]
	movs	r2, #129
	.loc	3 59 17 is_stmt 0               @ ../../../ThirdParty/mbedTLS/library/asn1write.c:59:17
	strb	r2, [r1, r0]
	movs	r0, #2
.Ltmp18:
	.loc	3 104 1 is_stmt 1               @ ../../../ThirdParty/mbedTLS/library/asn1write.c:104:1
	pop	{r4, r5, r6, pc}
.Ltmp19:
.LBB0_10:
	@DEBUG_VALUE: mbedtls_asn1_write_len:p <- $r3
	@DEBUG_VALUE: mbedtls_asn1_write_len:len <- $r2
	@DEBUG_VALUE: mbedtls_asn1_write_len:start <- $r1
	.loc	3 0 0 is_stmt 0                 @ ../../../ThirdParty/mbedTLS/library/asn1write.c:0:0
	ldr	r5, [r3]
	subs	r6, r5, r1
	.loc	3 74 9 is_stmt 1                @ ../../../ThirdParty/mbedTLS/library/asn1write.c:74:9
	lsrs	r1, r2, #24
.Ltmp20:
	@DEBUG_VALUE: mbedtls_asn1_write_len:start <- [DW_OP_LLVM_entry_value 1] $r1
	bne	.LBB0_13
.Ltmp21:
@ %bb.11:
	@DEBUG_VALUE: mbedtls_asn1_write_len:p <- $r3
	@DEBUG_VALUE: mbedtls_asn1_write_len:len <- $r2
	@DEBUG_VALUE: mbedtls_asn1_write_len:start <- [DW_OP_LLVM_entry_value 1] $r1
	.loc	3 76 13                         @ ../../../ThirdParty/mbedTLS/library/asn1write.c:76:13
	cmp	r6, #4
	blt	.LBB0_14
.Ltmp22:
@ %bb.12:
	@DEBUG_VALUE: mbedtls_asn1_write_len:p <- $r3
	@DEBUG_VALUE: mbedtls_asn1_write_len:len <- $r2
	@DEBUG_VALUE: mbedtls_asn1_write_len:start <- [DW_OP_LLVM_entry_value 1] $r1
	.loc	3 79 10                         @ ../../../ThirdParty/mbedTLS/library/asn1write.c:79:10
	adds	r1, r5, r0
	str	r1, [r3]
	.loc	3 79 17 is_stmt 0               @ ../../../ThirdParty/mbedTLS/library/asn1write.c:79:17
	strb	r2, [r5, r0]
	.loc	3 80 10 is_stmt 1               @ ../../../ThirdParty/mbedTLS/library/asn1write.c:80:10
	ldr	r1, [r3]
	adds	r5, r1, r0
	str	r5, [r3]
	.loc	3 80 25 is_stmt 0               @ ../../../ThirdParty/mbedTLS/library/asn1write.c:80:25
	lsrs	r2, r2, #8
.Ltmp23:
	@DEBUG_VALUE: mbedtls_asn1_write_len:len <- [DW_OP_LLVM_entry_value 1] $r2
	.loc	3 80 17                         @ ../../../ThirdParty/mbedTLS/library/asn1write.c:80:17
	strb	r2, [r1, r0]
	.loc	3 81 10 is_stmt 1               @ ../../../ThirdParty/mbedTLS/library/asn1write.c:81:10
	ldr	r1, [r3]
	adds	r2, r1, r0
	str	r2, [r3]
	.loc	3 81 17 is_stmt 0               @ ../../../ThirdParty/mbedTLS/library/asn1write.c:81:17
	strb	r4, [r1, r0]
	.loc	3 82 10 is_stmt 1               @ ../../../ThirdParty/mbedTLS/library/asn1write.c:82:10
	ldr	r1, [r3]
	adds	r2, r1, r0
	str	r2, [r3]
	movs	r2, #131
	.loc	3 82 17 is_stmt 0               @ ../../../ThirdParty/mbedTLS/library/asn1write.c:82:17
	strb	r2, [r1, r0]
	movs	r0, #4
.Ltmp24:
	.loc	3 104 1 is_stmt 1               @ ../../../ThirdParty/mbedTLS/library/asn1write.c:104:1
	pop	{r4, r5, r6, pc}
.Ltmp25:
.LBB0_13:
	@DEBUG_VALUE: mbedtls_asn1_write_len:p <- $r3
	@DEBUG_VALUE: mbedtls_asn1_write_len:len <- $r2
	@DEBUG_VALUE: mbedtls_asn1_write_len:start <- [DW_OP_LLVM_entry_value 1] $r1
	.loc	3 90 13                         @ ../../../ThirdParty/mbedTLS/library/asn1write.c:90:13
	cmp	r6, #5
	bge	.LBB0_15
.Ltmp26:
.LBB0_14:
	@DEBUG_VALUE: mbedtls_asn1_write_len:p <- $r3
	@DEBUG_VALUE: mbedtls_asn1_write_len:len <- $r2
	@DEBUG_VALUE: mbedtls_asn1_write_len:start <- [DW_OP_LLVM_entry_value 1] $r1
	.loc	3 0 13 is_stmt 0                @ ../../../ThirdParty/mbedTLS/library/asn1write.c:0:13
	subs	r0, #107
	.loc	3 104 1 is_stmt 1               @ ../../../ThirdParty/mbedTLS/library/asn1write.c:104:1
	pop	{r4, r5, r6, pc}
.Ltmp27:
.LBB0_15:
	@DEBUG_VALUE: mbedtls_asn1_write_len:p <- $r3
	@DEBUG_VALUE: mbedtls_asn1_write_len:len <- $r2
	@DEBUG_VALUE: mbedtls_asn1_write_len:start <- [DW_OP_LLVM_entry_value 1] $r1
	.loc	3 93 10                         @ ../../../ThirdParty/mbedTLS/library/asn1write.c:93:10
	adds	r6, r5, r0
	str	r6, [r3]
	.loc	3 93 17 is_stmt 0               @ ../../../ThirdParty/mbedTLS/library/asn1write.c:93:17
	strb	r2, [r5, r0]
	.loc	3 94 10 is_stmt 1               @ ../../../ThirdParty/mbedTLS/library/asn1write.c:94:10
	ldr	r5, [r3]
	adds	r6, r5, r0
	str	r6, [r3]
	.loc	3 94 25 is_stmt 0               @ ../../../ThirdParty/mbedTLS/library/asn1write.c:94:25
	lsrs	r2, r2, #8
.Ltmp28:
	@DEBUG_VALUE: mbedtls_asn1_write_len:len <- [DW_OP_LLVM_entry_value 1] $r2
	.loc	3 94 17                         @ ../../../ThirdParty/mbedTLS/library/asn1write.c:94:17
	strb	r2, [r5, r0]
	.loc	3 95 10 is_stmt 1               @ ../../../ThirdParty/mbedTLS/library/asn1write.c:95:10
	ldr	r2, [r3]
	adds	r5, r2, r0
	str	r5, [r3]
	.loc	3 95 17 is_stmt 0               @ ../../../ThirdParty/mbedTLS/library/asn1write.c:95:17
	strb	r4, [r2, r0]
	.loc	3 96 10 is_stmt 1               @ ../../../ThirdParty/mbedTLS/library/asn1write.c:96:10
	ldr	r2, [r3]
	adds	r4, r2, r0
	str	r4, [r3]
	.loc	3 96 17 is_stmt 0               @ ../../../ThirdParty/mbedTLS/library/asn1write.c:96:17
	strb	r1, [r2, r0]
	.loc	3 97 10 is_stmt 1               @ ../../../ThirdParty/mbedTLS/library/asn1write.c:97:10
	ldr	r1, [r3]
	adds	r2, r1, r0
	str	r2, [r3]
	movs	r2, #132
	.loc	3 97 17 is_stmt 0               @ ../../../ThirdParty/mbedTLS/library/asn1write.c:97:17
	strb	r2, [r1, r0]
	movs	r0, #5
.Ltmp29:
	.loc	3 104 1 is_stmt 1               @ ../../../ThirdParty/mbedTLS/library/asn1write.c:104:1
	pop	{r4, r5, r6, pc}
.Ltmp30:
.Lfunc_end0:
	.size	mbedtls_asn1_write_len, .Lfunc_end0-mbedtls_asn1_write_len
	.cfi_endproc
	.cantunwind
	.fnend
                                        @ -- End function
	.section	.text.mbedtls_asn1_write_tag,"ax",%progbits
	.hidden	mbedtls_asn1_write_tag          @ -- Begin function mbedtls_asn1_write_tag
	.globl	mbedtls_asn1_write_tag
	.p2align	1
	.type	mbedtls_asn1_write_tag,%function
	.code	16                              @ @mbedtls_asn1_write_tag
	.thumb_func
mbedtls_asn1_write_tag:
.Lfunc_begin1:
	.loc	3 107 0                         @ ../../../ThirdParty/mbedTLS/library/asn1write.c:107:0
	.fnstart
	.cfi_startproc
@ %bb.0:
	@DEBUG_VALUE: mbedtls_asn1_write_tag:p <- $r0
	@DEBUG_VALUE: mbedtls_asn1_write_tag:p <- $r0
	@DEBUG_VALUE: mbedtls_asn1_write_tag:start <- $r1
	@DEBUG_VALUE: mbedtls_asn1_write_tag:start <- $r1
	@DEBUG_VALUE: mbedtls_asn1_write_tag:tag <- $r2
	@DEBUG_VALUE: mbedtls_asn1_write_tag:tag <- $r2
	.save	{r4, r5, r7, lr}
	push	{r4, r5, r7, lr}
	.cfi_def_cfa_offset 16
	.cfi_offset lr, -4
	.cfi_offset r7, -8
	.cfi_offset r5, -12
	.cfi_offset r4, -16
.Ltmp31:
	.loc	3 108 9 prologue_end            @ ../../../ThirdParty/mbedTLS/library/asn1write.c:108:9
	ldr	r4, [r0]
	.loc	3 108 12 is_stmt 0              @ ../../../ThirdParty/mbedTLS/library/asn1write.c:108:12
	subs	r5, r4, r1
	movs	r3, #107
	mvns	r1, r3
.Ltmp32:
	@DEBUG_VALUE: mbedtls_asn1_write_tag:start <- [DW_OP_LLVM_entry_value 1] $r1
	.loc	3 108 9                         @ ../../../ThirdParty/mbedTLS/library/asn1write.c:108:9
	cmp	r5, #1
	blt	.LBB1_2
.Ltmp33:
@ %bb.1:
	@DEBUG_VALUE: mbedtls_asn1_write_tag:tag <- $r2
	@DEBUG_VALUE: mbedtls_asn1_write_tag:p <- $r0
	@DEBUG_VALUE: mbedtls_asn1_write_tag:start <- [DW_OP_LLVM_entry_value 1] $r1
	@DEBUG_VALUE: mbedtls_asn1_write_tag:tag <- $r2
	.loc	3 111 6 is_stmt 1               @ ../../../ThirdParty/mbedTLS/library/asn1write.c:111:6
	adds	r1, r1, r4
	mov	r4, r1
	adds	r4, #107
	str	r4, [r0]
	.loc	3 111 13 is_stmt 0              @ ../../../ThirdParty/mbedTLS/library/asn1write.c:111:13
	strb	r2, [r1, r3]
	movs	r1, #1
.Ltmp34:
.LBB1_2:
	@DEBUG_VALUE: mbedtls_asn1_write_tag:tag <- $r2
	@DEBUG_VALUE: mbedtls_asn1_write_tag:p <- $r0
	@DEBUG_VALUE: mbedtls_asn1_write_tag:start <- [DW_OP_LLVM_entry_value 1] $r1
	.loc	3 114 1 is_stmt 1               @ ../../../ThirdParty/mbedTLS/library/asn1write.c:114:1
	mov	r0, r1
.Ltmp35:
	@DEBUG_VALUE: mbedtls_asn1_write_tag:p <- [DW_OP_LLVM_entry_value 1] $r0
	pop	{r4, r5, r7, pc}
.Ltmp36:
.Lfunc_end1:
	.size	mbedtls_asn1_write_tag, .Lfunc_end1-mbedtls_asn1_write_tag
	.cfi_endproc
	.cantunwind
	.fnend
                                        @ -- End function
	.section	.text.mbedtls_asn1_write_raw_buffer,"ax",%progbits
	.hidden	mbedtls_asn1_write_raw_buffer   @ -- Begin function mbedtls_asn1_write_raw_buffer
	.globl	mbedtls_asn1_write_raw_buffer
	.p2align	1
	.type	mbedtls_asn1_write_raw_buffer,%function
	.code	16                              @ @mbedtls_asn1_write_raw_buffer
	.thumb_func
mbedtls_asn1_write_raw_buffer:
.Lfunc_begin2:
	.loc	3 118 0                         @ ../../../ThirdParty/mbedTLS/library/asn1write.c:118:0
	.fnstart
	.cfi_startproc
@ %bb.0:
	@DEBUG_VALUE: mbedtls_asn1_write_raw_buffer:p <- $r0
	@DEBUG_VALUE: mbedtls_asn1_write_raw_buffer:start <- $r1
	@DEBUG_VALUE: mbedtls_asn1_write_raw_buffer:buf <- $r2
	@DEBUG_VALUE: mbedtls_asn1_write_raw_buffer:size <- $r3
	.save	{r4, r5, r7, lr}
	push	{r4, r5, r7, lr}
	.cfi_def_cfa_offset 16
	.cfi_offset lr, -4
	.cfi_offset r7, -8
	.cfi_offset r5, -12
	.cfi_offset r4, -16
	mov	r4, r3
	mov	r3, r0
.Ltmp37:
	@DEBUG_VALUE: mbedtls_asn1_write_raw_buffer:size <- [DW_OP_LLVM_entry_value 1] $r3
	@DEBUG_VALUE: mbedtls_asn1_write_raw_buffer:len <- 0
	@DEBUG_VALUE: mbedtls_asn1_write_raw_buffer:size <- $r4
	@DEBUG_VALUE: mbedtls_asn1_write_raw_buffer:buf <- $r2
	@DEBUG_VALUE: mbedtls_asn1_write_raw_buffer:start <- $r1
	@DEBUG_VALUE: mbedtls_asn1_write_raw_buffer:p <- $r3
	.loc	3 121 9 prologue_end            @ ../../../ThirdParty/mbedTLS/library/asn1write.c:121:9
	ldr	r5, [r0]
	movs	r0, #107
	mvns	r0, r0
	.loc	3 121 20 is_stmt 0              @ ../../../ThirdParty/mbedTLS/library/asn1write.c:121:20
	cmp	r5, r1
	blo	.LBB2_3
.Ltmp38:
@ %bb.1:
	@DEBUG_VALUE: mbedtls_asn1_write_raw_buffer:size <- $r4
	@DEBUG_VALUE: mbedtls_asn1_write_raw_buffer:p <- $r3
	@DEBUG_VALUE: mbedtls_asn1_write_raw_buffer:buf <- $r2
	@DEBUG_VALUE: mbedtls_asn1_write_raw_buffer:start <- $r1
	@DEBUG_VALUE: mbedtls_asn1_write_raw_buffer:len <- 0
	.loc	3 121 36                        @ ../../../ThirdParty/mbedTLS/library/asn1write.c:121:36
	subs	r1, r5, r1
.Ltmp39:
	@DEBUG_VALUE: mbedtls_asn1_write_raw_buffer:start <- [DW_OP_LLVM_entry_value 1] $r1
	.loc	3 121 9                         @ ../../../ThirdParty/mbedTLS/library/asn1write.c:121:9
	cmp	r1, r4
	blo	.LBB2_3
.Ltmp40:
@ %bb.2:
	@DEBUG_VALUE: mbedtls_asn1_write_raw_buffer:size <- $r4
	@DEBUG_VALUE: mbedtls_asn1_write_raw_buffer:p <- $r3
	@DEBUG_VALUE: mbedtls_asn1_write_raw_buffer:buf <- $r2
	@DEBUG_VALUE: mbedtls_asn1_write_raw_buffer:start <- [DW_OP_LLVM_entry_value 1] $r1
	@DEBUG_VALUE: mbedtls_asn1_write_raw_buffer:len <- 0
	@DEBUG_VALUE: mbedtls_asn1_write_raw_buffer:len <- $r4
	.loc	3 125 10 is_stmt 1              @ ../../../ThirdParty/mbedTLS/library/asn1write.c:125:10
	subs	r0, r5, r4
	str	r0, [r3]
	.loc	3 126 5                         @ ../../../ThirdParty/mbedTLS/library/asn1write.c:126:5
	mov	r1, r2
	mov	r2, r4
.Ltmp41:
	@DEBUG_VALUE: mbedtls_asn1_write_raw_buffer:buf <- [DW_OP_LLVM_entry_value 1] $r2
	bl	__aeabi_memcpy
.Ltmp42:
	.loc	3 0 0 is_stmt 0                 @ ../../../ThirdParty/mbedTLS/library/asn1write.c:0:0
	mov	r0, r4
.Ltmp43:
	@DEBUG_VALUE: mbedtls_asn1_write_raw_buffer:len <- $r0
.LBB2_3:
	@DEBUG_VALUE: mbedtls_asn1_write_raw_buffer:size <- $r4
	.loc	3 129 1 is_stmt 1               @ ../../../ThirdParty/mbedTLS/library/asn1write.c:129:1
	pop	{r4, r5, r7, pc}
.Ltmp44:
.Lfunc_end2:
	.size	mbedtls_asn1_write_raw_buffer, .Lfunc_end2-mbedtls_asn1_write_raw_buffer
	.cfi_endproc
	.cantunwind
	.fnend
                                        @ -- End function
	.section	.text.mbedtls_asn1_write_mpi,"ax",%progbits
	.hidden	mbedtls_asn1_write_mpi          @ -- Begin function mbedtls_asn1_write_mpi
	.globl	mbedtls_asn1_write_mpi
	.p2align	1
	.type	mbedtls_asn1_write_mpi,%function
	.code	16                              @ @mbedtls_asn1_write_mpi
	.thumb_func
mbedtls_asn1_write_mpi:
.Lfunc_begin3:
	.loc	3 133 0                         @ ../../../ThirdParty/mbedTLS/library/asn1write.c:133:0
	.fnstart
	.cfi_startproc
@ %bb.0:
	@DEBUG_VALUE: mbedtls_asn1_write_mpi:p <- $r0
	@DEBUG_VALUE: mbedtls_asn1_write_mpi:start <- $r1
	@DEBUG_VALUE: mbedtls_asn1_write_mpi:X <- $r2
	.save	{r4, r5, r6, r7, lr}
	push	{r4, r5, r6, r7, lr}
	.cfi_def_cfa_offset 20
	.cfi_offset lr, -4
	.cfi_offset r7, -8
	.cfi_offset r6, -12
	.cfi_offset r5, -16
	.cfi_offset r4, -20
	.pad	#12
	sub	sp, #12
	.cfi_def_cfa_offset 32
	mov	r4, r2
	mov	r5, r1
	mov	r7, r0
.Ltmp45:
	@DEBUG_VALUE: mbedtls_asn1_write_mpi:len <- 0
	@DEBUG_VALUE: mbedtls_asn1_write_mpi:X <- $r4
	@DEBUG_VALUE: mbedtls_asn1_write_mpi:start <- $r5
	@DEBUG_VALUE: mbedtls_asn1_write_mpi:p <- $r7
	.loc	3 139 11 prologue_end           @ ../../../ThirdParty/mbedTLS/library/asn1write.c:139:11
	mov	r0, r2
	bl	mbedtls_mpi_size
	mov	r2, r0
.Ltmp46:
	@DEBUG_VALUE: mbedtls_asn1_write_mpi:len <- $r2
	.loc	3 0 11 is_stmt 0                @ ../../../ThirdParty/mbedTLS/library/asn1write.c:0:11
	movs	r6, #107
	mvns	r3, r6
.Ltmp47:
	.loc	3 141 9 is_stmt 1               @ ../../../ThirdParty/mbedTLS/library/asn1write.c:141:9
	ldr	r0, [r7]
	.loc	3 141 20 is_stmt 0              @ ../../../ThirdParty/mbedTLS/library/asn1write.c:141:20
	cmp	r0, r5
	bhs	.LBB3_2
.Ltmp48:
@ %bb.1:
	@DEBUG_VALUE: mbedtls_asn1_write_mpi:p <- $r7
	@DEBUG_VALUE: mbedtls_asn1_write_mpi:start <- $r5
	@DEBUG_VALUE: mbedtls_asn1_write_mpi:X <- $r4
	@DEBUG_VALUE: mbedtls_asn1_write_mpi:len <- $r2
	.loc	3 0 0                           @ ../../../ThirdParty/mbedTLS/library/asn1write.c:0:0
	mov	r7, r3
.Ltmp49:
	b	.LBB3_5
.Ltmp50:
.LBB3_2:
	@DEBUG_VALUE: mbedtls_asn1_write_mpi:p <- $r7
	@DEBUG_VALUE: mbedtls_asn1_write_mpi:start <- $r5
	@DEBUG_VALUE: mbedtls_asn1_write_mpi:X <- $r4
	@DEBUG_VALUE: mbedtls_asn1_write_mpi:len <- $r2
	.loc	3 141 36                        @ ../../../ThirdParty/mbedTLS/library/asn1write.c:141:36
	subs	r1, r0, r5
.Ltmp51:
	.loc	3 141 9                         @ ../../../ThirdParty/mbedTLS/library/asn1write.c:141:9
	cmp	r1, r2
	bhs	.LBB3_4
.Ltmp52:
@ %bb.3:
	@DEBUG_VALUE: mbedtls_asn1_write_mpi:p <- $r7
	@DEBUG_VALUE: mbedtls_asn1_write_mpi:start <- $r5
	@DEBUG_VALUE: mbedtls_asn1_write_mpi:X <- $r4
	@DEBUG_VALUE: mbedtls_asn1_write_mpi:len <- $r2
	.loc	3 0 0                           @ ../../../ThirdParty/mbedTLS/library/asn1write.c:0:0
	mov	r7, r3
.Ltmp53:
	b	.LBB3_5
.Ltmp54:
.LBB3_4:
	@DEBUG_VALUE: mbedtls_asn1_write_mpi:p <- $r7
	@DEBUG_VALUE: mbedtls_asn1_write_mpi:start <- $r5
	@DEBUG_VALUE: mbedtls_asn1_write_mpi:X <- $r4
	@DEBUG_VALUE: mbedtls_asn1_write_mpi:len <- $r2
	str	r3, [sp, #4]                    @ 4-byte Spill
	.loc	3 144 10 is_stmt 1              @ ../../../ThirdParty/mbedTLS/library/asn1write.c:144:10
	subs	r1, r0, r2
	str	r1, [r7]
.Ltmp55:
	.loc	3 145 5                         @ ../../../ThirdParty/mbedTLS/library/asn1write.c:145:5
	mov	r0, r4
	str	r2, [sp, #8]                    @ 4-byte Spill
	bl	mbedtls_mpi_write_binary
.Ltmp56:
	.loc	3 0 5 is_stmt 0                 @ ../../../ThirdParty/mbedTLS/library/asn1write.c:0:5
	mov	r1, r7
	.loc	3 145 5                         @ ../../../ThirdParty/mbedTLS/library/asn1write.c:145:5
	mov	r7, r0
.Ltmp57:
	@DEBUG_VALUE: mbedtls_asn1_write_mpi:ret <- $r7
	.loc	3 145 5                         @ ../../../ThirdParty/mbedTLS/library/asn1write.c:145:5
	cbz	r0, .LBB3_6
.Ltmp58:
.LBB3_5:
	@DEBUG_VALUE: mbedtls_asn1_write_mpi:start <- $r5
	.loc	3 166 1 is_stmt 1               @ ../../../ThirdParty/mbedTLS/library/asn1write.c:166:1
	mov	r0, r7
	add	sp, #12
	pop	{r4, r5, r6, r7, pc}
.Ltmp59:
.LBB3_6:
	@DEBUG_VALUE: mbedtls_asn1_write_mpi:ret <- $r7
	@DEBUG_VALUE: mbedtls_asn1_write_mpi:start <- $r5
	@DEBUG_VALUE: mbedtls_asn1_write_mpi:X <- $r4
	.loc	3 0 1 is_stmt 0                 @ ../../../ThirdParty/mbedTLS/library/asn1write.c:0:1
	ldr	r2, [sp, #8]                    @ 4-byte Reload
.Ltmp60:
	.loc	3 150 12 is_stmt 1              @ ../../../ThirdParty/mbedTLS/library/asn1write.c:150:12
	ldr	r0, [r4]
	.loc	3 150 18 is_stmt 0              @ ../../../ThirdParty/mbedTLS/library/asn1write.c:150:18
	cmp	r0, #1
	bne	.LBB3_10
.Ltmp61:
@ %bb.7:
	@DEBUG_VALUE: mbedtls_asn1_write_mpi:ret <- $r7
	@DEBUG_VALUE: mbedtls_asn1_write_mpi:start <- $r5
	@DEBUG_VALUE: mbedtls_asn1_write_mpi:X <- $r4
	.loc	3 0 18                          @ ../../../ThirdParty/mbedTLS/library/asn1write.c:0:18
	mov	r7, r1
.Ltmp62:
	.loc	3 150 22                        @ ../../../ThirdParty/mbedTLS/library/asn1write.c:150:22
	ldr	r0, [r1]
	.loc	3 150 21                        @ ../../../ThirdParty/mbedTLS/library/asn1write.c:150:21
	ldrb	r1, [r0]
	sxtb	r1, r1
.Ltmp63:
	.loc	3 150 9                         @ ../../../ThirdParty/mbedTLS/library/asn1write.c:150:9
	cmp	r1, #0
	bpl	.LBB3_11
.Ltmp64:
@ %bb.8:
	@DEBUG_VALUE: mbedtls_asn1_write_mpi:start <- $r5
	@DEBUG_VALUE: mbedtls_asn1_write_mpi:X <- $r4
	.loc	3 152 16 is_stmt 1              @ ../../../ThirdParty/mbedTLS/library/asn1write.c:152:16
	subs	r1, r0, r5
.Ltmp65:
	.loc	3 152 13 is_stmt 0              @ ../../../ThirdParty/mbedTLS/library/asn1write.c:152:13
	cmp	r1, #1
	blt	.LBB3_15
.Ltmp66:
@ %bb.9:
	@DEBUG_VALUE: mbedtls_asn1_write_mpi:start <- $r5
	@DEBUG_VALUE: mbedtls_asn1_write_mpi:X <- $r4
	.loc	3 155 10 is_stmt 1              @ ../../../ThirdParty/mbedTLS/library/asn1write.c:155:10
	ldr	r1, [sp, #4]                    @ 4-byte Reload
	adds	r0, r1, r0
	mov	r1, r0
	adds	r1, #107
	str	r1, [r7]
	movs	r1, #0
	.loc	3 155 17 is_stmt 0              @ ../../../ThirdParty/mbedTLS/library/asn1write.c:155:17
	strb	r1, [r0, r6]
	.loc	3 156 13 is_stmt 1              @ ../../../ThirdParty/mbedTLS/library/asn1write.c:156:13
	adds	r2, r2, #1
.Ltmp67:
	@DEBUG_VALUE: mbedtls_asn1_write_mpi:len <- $r2
	.loc	3 0 13 is_stmt 0                @ ../../../ThirdParty/mbedTLS/library/asn1write.c:0:13
	b	.LBB3_11
.Ltmp68:
.LBB3_10:
	@DEBUG_VALUE: mbedtls_asn1_write_mpi:ret <- $r7
	@DEBUG_VALUE: mbedtls_asn1_write_mpi:start <- $r5
	@DEBUG_VALUE: mbedtls_asn1_write_mpi:X <- $r4
	mov	r7, r1
.Ltmp69:
.LBB3_11:
	@DEBUG_VALUE: mbedtls_asn1_write_mpi:start <- $r5
	@DEBUG_VALUE: mbedtls_asn1_write_mpi:X <- $r4
	@DEBUG_VALUE: mbedtls_asn1_write_mpi:len <- $r2
	.loc	3 159 5 is_stmt 1               @ ../../../ThirdParty/mbedTLS/library/asn1write.c:159:5
	mov	r0, r7
	mov	r1, r5
	mov	r4, r2
.Ltmp70:
	@DEBUG_VALUE: mbedtls_asn1_write_mpi:len <- $r4
	@DEBUG_VALUE: mbedtls_asn1_write_mpi:len <- $r2
	@DEBUG_VALUE: mbedtls_asn1_write_mpi:len <- $r4
	bl	mbedtls_asn1_write_len
	mov	r1, r7
	mov	r7, r0
.Ltmp71:
	@DEBUG_VALUE: mbedtls_asn1_write_mpi:ret <- $r7
	.loc	3 159 5 is_stmt 0               @ ../../../ThirdParty/mbedTLS/library/asn1write.c:159:5
	cmp	r0, #0
	bmi	.LBB3_5
.Ltmp72:
@ %bb.12:
	@DEBUG_VALUE: mbedtls_asn1_write_mpi:ret <- $r7
	@DEBUG_VALUE: mbedtls_asn1_write_mpi:start <- $r5
	@DEBUG_VALUE: mbedtls_asn1_write_mpi:len <- $r4
	@DEBUG_VALUE: mbedtls_asn1_write_mpi:len <- undef
	.loc	3 0 5                           @ ../../../ThirdParty/mbedTLS/library/asn1write.c:0:5
	movs	r2, #2
.Ltmp73:
	.loc	3 160 5 is_stmt 1               @ ../../../ThirdParty/mbedTLS/library/asn1write.c:160:5
	mov	r0, r1
	mov	r1, r5
	bl	mbedtls_asn1_write_tag
.Ltmp74:
	@DEBUG_VALUE: mbedtls_asn1_write_mpi:ret <- $r0
	.loc	3 160 5 is_stmt 0               @ ../../../ThirdParty/mbedTLS/library/asn1write.c:160:5
	cmp	r0, #0
	bmi	.LBB3_14
.Ltmp75:
@ %bb.13:
	@DEBUG_VALUE: mbedtls_asn1_write_mpi:start <- $r5
	@DEBUG_VALUE: mbedtls_asn1_write_mpi:ret <- $r0
	.loc	3 159 5 is_stmt 1               @ ../../../ThirdParty/mbedTLS/library/asn1write.c:159:5
	adds	r1, r7, r4
.Ltmp76:
	@DEBUG_VALUE: mbedtls_asn1_write_mpi:len <- $r1
	.loc	3 160 5                         @ ../../../ThirdParty/mbedTLS/library/asn1write.c:160:5
	adds	r7, r1, r0
.Ltmp77:
	@DEBUG_VALUE: mbedtls_asn1_write_mpi:ret <- $r7
	@DEBUG_VALUE: mbedtls_asn1_write_mpi:len <- $r7
	.loc	3 0 5 is_stmt 0                 @ ../../../ThirdParty/mbedTLS/library/asn1write.c:0:5
	b	.LBB3_5
.Ltmp78:
.LBB3_14:
	@DEBUG_VALUE: mbedtls_asn1_write_mpi:start <- $r5
	@DEBUG_VALUE: mbedtls_asn1_write_mpi:ret <- $r0
	mov	r7, r0
.Ltmp79:
	@DEBUG_VALUE: mbedtls_asn1_write_mpi:ret <- $r7
	b	.LBB3_5
.Ltmp80:
.LBB3_15:
	@DEBUG_VALUE: mbedtls_asn1_write_mpi:start <- $r5
	@DEBUG_VALUE: mbedtls_asn1_write_mpi:X <- $r4
	ldr	r7, [sp, #4]                    @ 4-byte Reload
	b	.LBB3_5
.Ltmp81:
.Lfunc_end3:
	.size	mbedtls_asn1_write_mpi, .Lfunc_end3-mbedtls_asn1_write_mpi
	.cfi_endproc
	.cantunwind
	.fnend
                                        @ -- End function
	.section	.text.mbedtls_asn1_write_null,"ax",%progbits
	.hidden	mbedtls_asn1_write_null         @ -- Begin function mbedtls_asn1_write_null
	.globl	mbedtls_asn1_write_null
	.p2align	1
	.type	mbedtls_asn1_write_null,%function
	.code	16                              @ @mbedtls_asn1_write_null
	.thumb_func
mbedtls_asn1_write_null:
.Lfunc_begin4:
	.loc	3 170 0 is_stmt 1               @ ../../../ThirdParty/mbedTLS/library/asn1write.c:170:0
	.fnstart
	.cfi_startproc
@ %bb.0:
	@DEBUG_VALUE: mbedtls_asn1_write_null:p <- $r0
	@DEBUG_VALUE: mbedtls_asn1_write_null:start <- $r1
	.save	{r4, r5, r6, lr}
	push	{r4, r5, r6, lr}
	.cfi_def_cfa_offset 16
	.cfi_offset lr, -4
	.cfi_offset r6, -8
	.cfi_offset r5, -12
	.cfi_offset r4, -16
	mov	r5, r1
	mov	r6, r0
.Ltmp82:
	@DEBUG_VALUE: mbedtls_asn1_write_null:len <- 0
	@DEBUG_VALUE: mbedtls_asn1_write_null:start <- $r5
	@DEBUG_VALUE: mbedtls_asn1_write_null:p <- $r6
	movs	r2, #0
.Ltmp83:
	.loc	3 176 5 prologue_end            @ ../../../ThirdParty/mbedTLS/library/asn1write.c:176:5
	bl	mbedtls_asn1_write_len
	mov	r4, r0
.Ltmp84:
	@DEBUG_VALUE: mbedtls_asn1_write_null:ret <- $r4
	.loc	3 176 5 is_stmt 0               @ ../../../ThirdParty/mbedTLS/library/asn1write.c:176:5
	cmp	r0, #0
	bmi	.LBB4_4
.Ltmp85:
@ %bb.1:
	@DEBUG_VALUE: mbedtls_asn1_write_null:p <- $r6
	@DEBUG_VALUE: mbedtls_asn1_write_null:start <- $r5
	@DEBUG_VALUE: mbedtls_asn1_write_null:ret <- $r4
	@DEBUG_VALUE: mbedtls_asn1_write_null:len <- 0
	@DEBUG_VALUE: mbedtls_asn1_write_null:len <- $r4
	.loc	3 0 5                           @ ../../../ThirdParty/mbedTLS/library/asn1write.c:0:5
	movs	r2, #5
.Ltmp86:
	.loc	3 177 5 is_stmt 1               @ ../../../ThirdParty/mbedTLS/library/asn1write.c:177:5
	mov	r0, r6
	mov	r1, r5
	bl	mbedtls_asn1_write_tag
.Ltmp87:
	@DEBUG_VALUE: mbedtls_asn1_write_null:ret <- $r0
	.loc	3 177 5 is_stmt 0               @ ../../../ThirdParty/mbedTLS/library/asn1write.c:177:5
	cmp	r0, #0
	bmi	.LBB4_3
.Ltmp88:
@ %bb.2:
	@DEBUG_VALUE: mbedtls_asn1_write_null:p <- $r6
	@DEBUG_VALUE: mbedtls_asn1_write_null:start <- $r5
	@DEBUG_VALUE: mbedtls_asn1_write_null:len <- $r4
	@DEBUG_VALUE: mbedtls_asn1_write_null:ret <- $r0
	.loc	3 0 5                           @ ../../../ThirdParty/mbedTLS/library/asn1write.c:0:5
	adds	r0, r0, r4
.Ltmp89:
.LBB4_3:
	@DEBUG_VALUE: mbedtls_asn1_write_null:p <- $r6
	@DEBUG_VALUE: mbedtls_asn1_write_null:start <- $r5
	@DEBUG_VALUE: mbedtls_asn1_write_null:len <- $r4
	.loc	3 177 5                         @ ../../../ThirdParty/mbedTLS/library/asn1write.c:177:5
	pop	{r4, r5, r6, pc}
.Ltmp90:
.LBB4_4:
	@DEBUG_VALUE: mbedtls_asn1_write_null:p <- $r6
	@DEBUG_VALUE: mbedtls_asn1_write_null:start <- $r5
	@DEBUG_VALUE: mbedtls_asn1_write_null:ret <- $r4
	@DEBUG_VALUE: mbedtls_asn1_write_null:len <- 0
	.loc	3 180 1 is_stmt 1               @ ../../../ThirdParty/mbedTLS/library/asn1write.c:180:1
	mov	r0, r4
	pop	{r4, r5, r6, pc}
.Ltmp91:
.Lfunc_end4:
	.size	mbedtls_asn1_write_null, .Lfunc_end4-mbedtls_asn1_write_null
	.cfi_endproc
	.cantunwind
	.fnend
                                        @ -- End function
	.section	.text.mbedtls_asn1_write_oid,"ax",%progbits
	.hidden	mbedtls_asn1_write_oid          @ -- Begin function mbedtls_asn1_write_oid
	.globl	mbedtls_asn1_write_oid
	.p2align	1
	.type	mbedtls_asn1_write_oid,%function
	.code	16                              @ @mbedtls_asn1_write_oid
	.thumb_func
mbedtls_asn1_write_oid:
.Lfunc_begin5:
	.loc	3 184 0                         @ ../../../ThirdParty/mbedTLS/library/asn1write.c:184:0
	.fnstart
	.cfi_startproc
@ %bb.0:
	@DEBUG_VALUE: mbedtls_asn1_write_oid:p <- $r0
	@DEBUG_VALUE: mbedtls_asn1_write_oid:start <- $r1
	@DEBUG_VALUE: mbedtls_asn1_write_oid:oid <- $r2
	@DEBUG_VALUE: mbedtls_asn1_write_oid:oid_len <- $r3
	.save	{r4, r5, r6, r7, lr}
	push	{r4, r5, r6, r7, lr}
	.cfi_def_cfa_offset 20
	.cfi_offset lr, -4
	.cfi_offset r7, -8
	.cfi_offset r6, -12
	.cfi_offset r5, -16
	.cfi_offset r4, -20
	.pad	#4
	sub	sp, #4
	.cfi_def_cfa_offset 24
	mov	r5, r1
	mov	r7, r0
.Ltmp92:
	@DEBUG_VALUE: mbedtls_asn1_write_oid:len <- 0
	@DEBUG_VALUE: mbedtls_asn1_write_oid:oid_len <- $r3
	@DEBUG_VALUE: mbedtls_asn1_write_oid:oid <- $r2
	@DEBUG_VALUE: mbedtls_asn1_write_oid:start <- $r5
	@DEBUG_VALUE: mbedtls_asn1_write_oid:p <- $r7
	@DEBUG_VALUE: mbedtls_asn1_write_oid:oid_len <- $r3
	@DEBUG_VALUE: mbedtls_asn1_write_oid:oid <- $r2
	.loc	3 188 5 prologue_end            @ ../../../ThirdParty/mbedTLS/library/asn1write.c:188:5
	bl	mbedtls_asn1_write_raw_buffer
.Ltmp93:
	@DEBUG_VALUE: mbedtls_asn1_write_oid:oid_len <- [DW_OP_LLVM_entry_value 1] $r3
	@DEBUG_VALUE: mbedtls_asn1_write_oid:oid <- [DW_OP_LLVM_entry_value 1] $r2
	mov	r4, r0
.Ltmp94:
	@DEBUG_VALUE: mbedtls_asn1_write_oid:ret <- $r4
	.loc	3 188 5 is_stmt 0               @ ../../../ThirdParty/mbedTLS/library/asn1write.c:188:5
	cmp	r0, #0
	bmi	.LBB5_4
.Ltmp95:
@ %bb.1:
	@DEBUG_VALUE: mbedtls_asn1_write_oid:p <- $r7
	@DEBUG_VALUE: mbedtls_asn1_write_oid:start <- $r5
	@DEBUG_VALUE: mbedtls_asn1_write_oid:ret <- $r4
	@DEBUG_VALUE: mbedtls_asn1_write_oid:oid_len <- [DW_OP_LLVM_entry_value 1] $r3
	@DEBUG_VALUE: mbedtls_asn1_write_oid:oid <- [DW_OP_LLVM_entry_value 1] $r2
	@DEBUG_VALUE: mbedtls_asn1_write_oid:len <- 0
	@DEBUG_VALUE: mbedtls_asn1_write_oid:len <- $r4
	.loc	3 190 5 is_stmt 1               @ ../../../ThirdParty/mbedTLS/library/asn1write.c:190:5
	mov	r0, r7
	mov	r1, r5
	mov	r2, r4
	bl	mbedtls_asn1_write_len
	mov	r6, r0
.Ltmp96:
	@DEBUG_VALUE: mbedtls_asn1_write_oid:ret <- $r6
	.loc	3 190 5 is_stmt 0               @ ../../../ThirdParty/mbedTLS/library/asn1write.c:190:5
	cmp	r0, #0
	bmi	.LBB5_6
.Ltmp97:
@ %bb.2:
	@DEBUG_VALUE: mbedtls_asn1_write_oid:p <- $r7
	@DEBUG_VALUE: mbedtls_asn1_write_oid:ret <- $r6
	@DEBUG_VALUE: mbedtls_asn1_write_oid:start <- $r5
	@DEBUG_VALUE: mbedtls_asn1_write_oid:len <- $r4
	@DEBUG_VALUE: mbedtls_asn1_write_oid:oid_len <- [DW_OP_LLVM_entry_value 1] $r3
	@DEBUG_VALUE: mbedtls_asn1_write_oid:oid <- [DW_OP_LLVM_entry_value 1] $r2
	@DEBUG_VALUE: mbedtls_asn1_write_oid:len <- undef
	.loc	3 0 5                           @ ../../../ThirdParty/mbedTLS/library/asn1write.c:0:5
	movs	r2, #6
.Ltmp98:
	.loc	3 191 5 is_stmt 1               @ ../../../ThirdParty/mbedTLS/library/asn1write.c:191:5
	mov	r0, r7
	mov	r1, r5
	bl	mbedtls_asn1_write_tag
.Ltmp99:
	@DEBUG_VALUE: mbedtls_asn1_write_oid:ret <- $r0
	.loc	3 191 5 is_stmt 0               @ ../../../ThirdParty/mbedTLS/library/asn1write.c:191:5
	cmp	r0, #0
	bmi	.LBB5_5
.Ltmp100:
@ %bb.3:
	@DEBUG_VALUE: mbedtls_asn1_write_oid:p <- $r7
	@DEBUG_VALUE: mbedtls_asn1_write_oid:start <- $r5
	@DEBUG_VALUE: mbedtls_asn1_write_oid:ret <- $r0
	@DEBUG_VALUE: mbedtls_asn1_write_oid:oid_len <- [DW_OP_LLVM_entry_value 1] $r3
	@DEBUG_VALUE: mbedtls_asn1_write_oid:oid <- [DW_OP_LLVM_entry_value 1] $r2
	.loc	3 190 5 is_stmt 1               @ ../../../ThirdParty/mbedTLS/library/asn1write.c:190:5
	adds	r1, r6, r4
.Ltmp101:
	@DEBUG_VALUE: mbedtls_asn1_write_oid:len <- $r1
	.loc	3 191 5                         @ ../../../ThirdParty/mbedTLS/library/asn1write.c:191:5
	adds	r6, r1, r0
.Ltmp102:
	@DEBUG_VALUE: mbedtls_asn1_write_oid:len <- $r6
	.loc	3 0 5 is_stmt 0                 @ ../../../ThirdParty/mbedTLS/library/asn1write.c:0:5
	b	.LBB5_6
.Ltmp103:
.LBB5_4:
	@DEBUG_VALUE: mbedtls_asn1_write_oid:p <- $r7
	@DEBUG_VALUE: mbedtls_asn1_write_oid:start <- $r5
	@DEBUG_VALUE: mbedtls_asn1_write_oid:ret <- $r4
	@DEBUG_VALUE: mbedtls_asn1_write_oid:oid_len <- [DW_OP_LLVM_entry_value 1] $r3
	@DEBUG_VALUE: mbedtls_asn1_write_oid:oid <- [DW_OP_LLVM_entry_value 1] $r2
	@DEBUG_VALUE: mbedtls_asn1_write_oid:len <- 0
	mov	r6, r4
.Ltmp104:
	@DEBUG_VALUE: mbedtls_asn1_write_oid:ret <- $r6
	b	.LBB5_6
.Ltmp105:
.LBB5_5:
	@DEBUG_VALUE: mbedtls_asn1_write_oid:p <- $r7
	@DEBUG_VALUE: mbedtls_asn1_write_oid:start <- $r5
	@DEBUG_VALUE: mbedtls_asn1_write_oid:ret <- $r0
	@DEBUG_VALUE: mbedtls_asn1_write_oid:oid_len <- [DW_OP_LLVM_entry_value 1] $r3
	@DEBUG_VALUE: mbedtls_asn1_write_oid:oid <- [DW_OP_LLVM_entry_value 1] $r2
	mov	r6, r0
.Ltmp106:
	@DEBUG_VALUE: mbedtls_asn1_write_oid:ret <- $r6
.LBB5_6:
	@DEBUG_VALUE: mbedtls_asn1_write_oid:p <- $r7
	@DEBUG_VALUE: mbedtls_asn1_write_oid:start <- $r5
	@DEBUG_VALUE: mbedtls_asn1_write_oid:oid_len <- [DW_OP_LLVM_entry_value 1] $r3
	@DEBUG_VALUE: mbedtls_asn1_write_oid:oid <- [DW_OP_LLVM_entry_value 1] $r2
	.loc	3 194 1 is_stmt 1               @ ../../../ThirdParty/mbedTLS/library/asn1write.c:194:1
	mov	r0, r6
	add	sp, #4
	pop	{r4, r5, r6, r7, pc}
.Ltmp107:
.Lfunc_end5:
	.size	mbedtls_asn1_write_oid, .Lfunc_end5-mbedtls_asn1_write_oid
	.cfi_endproc
	.cantunwind
	.fnend
                                        @ -- End function
	.section	.text.mbedtls_asn1_write_algorithm_identifier,"ax",%progbits
	.hidden	mbedtls_asn1_write_algorithm_identifier @ -- Begin function mbedtls_asn1_write_algorithm_identifier
	.globl	mbedtls_asn1_write_algorithm_identifier
	.p2align	1
	.type	mbedtls_asn1_write_algorithm_identifier,%function
	.code	16                              @ @mbedtls_asn1_write_algorithm_identifier
	.thumb_func
mbedtls_asn1_write_algorithm_identifier:
.Lfunc_begin6:
	.loc	3 199 0                         @ ../../../ThirdParty/mbedTLS/library/asn1write.c:199:0
	.fnstart
	.cfi_startproc
@ %bb.0:
	@DEBUG_VALUE: mbedtls_asn1_write_algorithm_identifier:p <- $r0
	@DEBUG_VALUE: mbedtls_asn1_write_algorithm_identifier:start <- $r1
	@DEBUG_VALUE: mbedtls_asn1_write_algorithm_identifier:oid <- $r2
	@DEBUG_VALUE: mbedtls_asn1_write_algorithm_identifier:oid_len <- $r3
	.save	{r4, r5, r6, r7, lr}
	push	{r4, r5, r6, r7, lr}
	.cfi_def_cfa_offset 20
	.cfi_offset lr, -4
	.cfi_offset r7, -8
	.cfi_offset r6, -12
	.cfi_offset r5, -16
	.cfi_offset r4, -20
	.pad	#4
	sub	sp, #4
	.cfi_def_cfa_offset 24
	mov	r7, r2
	mov	r5, r1
	mov	r6, r0
	ldr	r4, [sp, #24]
.Ltmp108:
	@DEBUG_VALUE: mbedtls_asn1_write_algorithm_identifier:len <- 0
	@DEBUG_VALUE: mbedtls_asn1_write_algorithm_identifier:par_len <- [DW_OP_plus_uconst 24] [$sp+0]
	@DEBUG_VALUE: mbedtls_asn1_write_algorithm_identifier:oid_len <- $r3
	@DEBUG_VALUE: mbedtls_asn1_write_algorithm_identifier:oid <- $r7
	@DEBUG_VALUE: mbedtls_asn1_write_algorithm_identifier:start <- $r5
	@DEBUG_VALUE: mbedtls_asn1_write_algorithm_identifier:p <- $r6
	.loc	3 203 9 prologue_end            @ ../../../ThirdParty/mbedTLS/library/asn1write.c:203:9
	cbnz	r4, .LBB6_2
.Ltmp109:
@ %bb.1:
	@DEBUG_VALUE: mbedtls_asn1_write_algorithm_identifier:oid <- $r7
	@DEBUG_VALUE: mbedtls_asn1_write_algorithm_identifier:p <- $r6
	@DEBUG_VALUE: mbedtls_asn1_write_algorithm_identifier:start <- $r5
	@DEBUG_VALUE: mbedtls_asn1_write_algorithm_identifier:oid_len <- $r3
	@DEBUG_VALUE: mbedtls_asn1_write_algorithm_identifier:par_len <- [DW_OP_plus_uconst 24] [$sp+0]
	@DEBUG_VALUE: mbedtls_asn1_write_algorithm_identifier:len <- 0
	.loc	3 204 9                         @ ../../../ThirdParty/mbedTLS/library/asn1write.c:204:9
	mov	r0, r6
	mov	r1, r5
	mov	r4, r3
.Ltmp110:
	@DEBUG_VALUE: mbedtls_asn1_write_algorithm_identifier:oid_len <- $r4
	bl	mbedtls_asn1_write_null
	mov	r3, r4
	mov	r4, r0
.Ltmp111:
	@DEBUG_VALUE: mbedtls_asn1_write_algorithm_identifier:oid_len <- [DW_OP_LLVM_entry_value 1] $r3
	@DEBUG_VALUE: mbedtls_asn1_write_algorithm_identifier:ret <- $r4
	.loc	3 204 9 is_stmt 0               @ ../../../ThirdParty/mbedTLS/library/asn1write.c:204:9
	cmp	r0, #0
	bmi	.LBB6_8
.Ltmp112:
.LBB6_2:
	@DEBUG_VALUE: mbedtls_asn1_write_algorithm_identifier:oid <- $r7
	@DEBUG_VALUE: mbedtls_asn1_write_algorithm_identifier:p <- $r6
	@DEBUG_VALUE: mbedtls_asn1_write_algorithm_identifier:start <- $r5
	@DEBUG_VALUE: mbedtls_asn1_write_algorithm_identifier:par_len <- [DW_OP_plus_uconst 24] [$sp+0]
	@DEBUG_VALUE: mbedtls_asn1_write_algorithm_identifier:len <- 0
	@DEBUG_VALUE: mbedtls_asn1_write_algorithm_identifier:len <- $r4
	.loc	3 208 5 is_stmt 1               @ ../../../ThirdParty/mbedTLS/library/asn1write.c:208:5
	mov	r0, r6
	mov	r1, r5
	mov	r2, r7
	bl	mbedtls_asn1_write_oid
.Ltmp113:
	@DEBUG_VALUE: mbedtls_asn1_write_algorithm_identifier:ret <- $r0
	.loc	3 208 5 is_stmt 0               @ ../../../ThirdParty/mbedTLS/library/asn1write.c:208:5
	cmp	r0, #0
	bmi	.LBB6_6
.Ltmp114:
@ %bb.3:
	@DEBUG_VALUE: mbedtls_asn1_write_algorithm_identifier:oid <- $r7
	@DEBUG_VALUE: mbedtls_asn1_write_algorithm_identifier:p <- $r6
	@DEBUG_VALUE: mbedtls_asn1_write_algorithm_identifier:start <- $r5
	@DEBUG_VALUE: mbedtls_asn1_write_algorithm_identifier:len <- $r4
	@DEBUG_VALUE: mbedtls_asn1_write_algorithm_identifier:ret <- $r0
	@DEBUG_VALUE: mbedtls_asn1_write_algorithm_identifier:par_len <- [DW_OP_plus_uconst 24] [$sp+0]
	.loc	3 208 5                         @ ../../../ThirdParty/mbedTLS/library/asn1write.c:208:5
	adds	r7, r0, r4
.Ltmp115:
	@DEBUG_VALUE: mbedtls_asn1_write_algorithm_identifier:len <- $r7
	.loc	3 210 5 is_stmt 1               @ ../../../ThirdParty/mbedTLS/library/asn1write.c:210:5
	mov	r0, r6
.Ltmp116:
	mov	r1, r5
	mov	r2, r7
	bl	mbedtls_asn1_write_len
	mov	r4, r0
.Ltmp117:
	@DEBUG_VALUE: mbedtls_asn1_write_algorithm_identifier:ret <- $r4
	.loc	3 210 5 is_stmt 0               @ ../../../ThirdParty/mbedTLS/library/asn1write.c:210:5
	cmp	r0, #0
	bmi	.LBB6_8
.Ltmp118:
@ %bb.4:
	@DEBUG_VALUE: mbedtls_asn1_write_algorithm_identifier:len <- $r7
	@DEBUG_VALUE: mbedtls_asn1_write_algorithm_identifier:p <- $r6
	@DEBUG_VALUE: mbedtls_asn1_write_algorithm_identifier:start <- $r5
	@DEBUG_VALUE: mbedtls_asn1_write_algorithm_identifier:ret <- $r4
	@DEBUG_VALUE: mbedtls_asn1_write_algorithm_identifier:par_len <- [DW_OP_plus_uconst 24] [$sp+0]
	@DEBUG_VALUE: mbedtls_asn1_write_algorithm_identifier:len <- undef
	.loc	3 0 5                           @ ../../../ThirdParty/mbedTLS/library/asn1write.c:0:5
	movs	r2, #48
.Ltmp119:
	.loc	3 211 5 is_stmt 1               @ ../../../ThirdParty/mbedTLS/library/asn1write.c:211:5
	mov	r0, r6
	mov	r1, r5
	bl	mbedtls_asn1_write_tag
.Ltmp120:
	@DEBUG_VALUE: mbedtls_asn1_write_algorithm_identifier:ret <- $r0
	.loc	3 211 5 is_stmt 0               @ ../../../ThirdParty/mbedTLS/library/asn1write.c:211:5
	cmp	r0, #0
	bmi	.LBB6_7
.Ltmp121:
@ %bb.5:
	@DEBUG_VALUE: mbedtls_asn1_write_algorithm_identifier:p <- $r6
	@DEBUG_VALUE: mbedtls_asn1_write_algorithm_identifier:start <- $r5
	@DEBUG_VALUE: mbedtls_asn1_write_algorithm_identifier:ret <- $r0
	@DEBUG_VALUE: mbedtls_asn1_write_algorithm_identifier:par_len <- [DW_OP_plus_uconst 24] [$sp+0]
	.loc	3 210 5 is_stmt 1               @ ../../../ThirdParty/mbedTLS/library/asn1write.c:210:5
	adds	r1, r4, r7
.Ltmp122:
	@DEBUG_VALUE: mbedtls_asn1_write_algorithm_identifier:len <- $r1
	.loc	3 211 5                         @ ../../../ThirdParty/mbedTLS/library/asn1write.c:211:5
	adds	r4, r1, r0
.Ltmp123:
	@DEBUG_VALUE: mbedtls_asn1_write_algorithm_identifier:len <- $r4
	.loc	3 0 5 is_stmt 0                 @ ../../../ThirdParty/mbedTLS/library/asn1write.c:0:5
	b	.LBB6_8
.Ltmp124:
.LBB6_6:
	@DEBUG_VALUE: mbedtls_asn1_write_algorithm_identifier:oid <- $r7
	@DEBUG_VALUE: mbedtls_asn1_write_algorithm_identifier:p <- $r6
	@DEBUG_VALUE: mbedtls_asn1_write_algorithm_identifier:start <- $r5
	@DEBUG_VALUE: mbedtls_asn1_write_algorithm_identifier:len <- $r4
	@DEBUG_VALUE: mbedtls_asn1_write_algorithm_identifier:ret <- $r0
	@DEBUG_VALUE: mbedtls_asn1_write_algorithm_identifier:par_len <- [DW_OP_plus_uconst 24] [$sp+0]
	mov	r4, r0
.Ltmp125:
	@DEBUG_VALUE: mbedtls_asn1_write_algorithm_identifier:ret <- $r4
	b	.LBB6_8
.Ltmp126:
.LBB6_7:
	@DEBUG_VALUE: mbedtls_asn1_write_algorithm_identifier:p <- $r6
	@DEBUG_VALUE: mbedtls_asn1_write_algorithm_identifier:start <- $r5
	@DEBUG_VALUE: mbedtls_asn1_write_algorithm_identifier:ret <- $r0
	@DEBUG_VALUE: mbedtls_asn1_write_algorithm_identifier:par_len <- [DW_OP_plus_uconst 24] [$sp+0]
	mov	r4, r0
.Ltmp127:
	@DEBUG_VALUE: mbedtls_asn1_write_algorithm_identifier:ret <- $r4
.LBB6_8:
	@DEBUG_VALUE: mbedtls_asn1_write_algorithm_identifier:p <- $r6
	@DEBUG_VALUE: mbedtls_asn1_write_algorithm_identifier:start <- $r5
	@DEBUG_VALUE: mbedtls_asn1_write_algorithm_identifier:par_len <- [DW_OP_plus_uconst 24] [$sp+0]
	.loc	3 215 1 is_stmt 1               @ ../../../ThirdParty/mbedTLS/library/asn1write.c:215:1
	mov	r0, r4
	add	sp, #4
.Ltmp128:
	pop	{r4, r5, r6, r7, pc}
.Ltmp129:
.Lfunc_end6:
	.size	mbedtls_asn1_write_algorithm_identifier, .Lfunc_end6-mbedtls_asn1_write_algorithm_identifier
	.cfi_endproc
	.cantunwind
	.fnend
                                        @ -- End function
	.section	.text.mbedtls_asn1_write_bool,"ax",%progbits
	.hidden	mbedtls_asn1_write_bool         @ -- Begin function mbedtls_asn1_write_bool
	.globl	mbedtls_asn1_write_bool
	.p2align	1
	.type	mbedtls_asn1_write_bool,%function
	.code	16                              @ @mbedtls_asn1_write_bool
	.thumb_func
mbedtls_asn1_write_bool:
.Lfunc_begin7:
	.loc	3 218 0                         @ ../../../ThirdParty/mbedTLS/library/asn1write.c:218:0
	.fnstart
	.cfi_startproc
@ %bb.0:
	@DEBUG_VALUE: mbedtls_asn1_write_bool:p <- $r0
	@DEBUG_VALUE: mbedtls_asn1_write_bool:start <- $r1
	@DEBUG_VALUE: mbedtls_asn1_write_bool:boolean <- $r2
	.save	{r4, r5, r6, lr}
	push	{r4, r5, r6, lr}
	.cfi_def_cfa_offset 16
	.cfi_offset lr, -4
	.cfi_offset r6, -8
	.cfi_offset r5, -12
	.cfi_offset r4, -16
	mov	r4, r1
	mov	r5, r0
.Ltmp130:
	@DEBUG_VALUE: mbedtls_asn1_write_bool:len <- 0
	@DEBUG_VALUE: mbedtls_asn1_write_bool:boolean <- $r2
	@DEBUG_VALUE: mbedtls_asn1_write_bool:start <- $r4
	@DEBUG_VALUE: mbedtls_asn1_write_bool:p <- $r5
	.loc	3 222 9 prologue_end            @ ../../../ThirdParty/mbedTLS/library/asn1write.c:222:9
	ldr	r1, [r0]
	.loc	3 222 12 is_stmt 0              @ ../../../ThirdParty/mbedTLS/library/asn1write.c:222:12
	subs	r3, r1, r4
	movs	r0, #107
	mvns	r6, r0
.Ltmp131:
	.loc	3 222 9                         @ ../../../ThirdParty/mbedTLS/library/asn1write.c:222:9
	cmp	r3, #1
	blt	.LBB7_6
.Ltmp132:
@ %bb.1:
	@DEBUG_VALUE: mbedtls_asn1_write_bool:p <- $r5
	@DEBUG_VALUE: mbedtls_asn1_write_bool:start <- $r4
	@DEBUG_VALUE: mbedtls_asn1_write_bool:boolean <- $r2
	@DEBUG_VALUE: mbedtls_asn1_write_bool:len <- 0
	.loc	3 225 6 is_stmt 1               @ ../../../ThirdParty/mbedTLS/library/asn1write.c:225:6
	adds	r1, r6, r1
	mov	r3, r1
	adds	r3, #107
	str	r3, [r5]
	.loc	3 225 15 is_stmt 0              @ ../../../ThirdParty/mbedTLS/library/asn1write.c:225:15
	cbz	r2, .LBB7_3
.Ltmp133:
@ %bb.2:
	@DEBUG_VALUE: mbedtls_asn1_write_bool:p <- $r5
	@DEBUG_VALUE: mbedtls_asn1_write_bool:start <- $r4
	@DEBUG_VALUE: mbedtls_asn1_write_bool:boolean <- $r2
	@DEBUG_VALUE: mbedtls_asn1_write_bool:len <- 0
	.loc	3 0 15                          @ ../../../ThirdParty/mbedTLS/library/asn1write.c:0:15
	movs	r2, #0
.Ltmp134:
	@DEBUG_VALUE: mbedtls_asn1_write_bool:boolean <- [DW_OP_LLVM_entry_value 1] $r2
	mvns	r2, r2
.Ltmp135:
.LBB7_3:
	@DEBUG_VALUE: mbedtls_asn1_write_bool:p <- $r5
	@DEBUG_VALUE: mbedtls_asn1_write_bool:start <- $r4
	@DEBUG_VALUE: mbedtls_asn1_write_bool:len <- 0
	.loc	3 225 13                        @ ../../../ThirdParty/mbedTLS/library/asn1write.c:225:13
	strb	r2, [r1, r0]
.Ltmp136:
	@DEBUG_VALUE: mbedtls_asn1_write_bool:len <- 1
	.loc	3 0 13                          @ ../../../ThirdParty/mbedTLS/library/asn1write.c:0:13
	movs	r2, #1
.Ltmp137:
	.loc	3 228 5 is_stmt 1               @ ../../../ThirdParty/mbedTLS/library/asn1write.c:228:5
	mov	r0, r5
	mov	r1, r4
	bl	mbedtls_asn1_write_len
	mov	r6, r0
.Ltmp138:
	@DEBUG_VALUE: mbedtls_asn1_write_bool:ret <- $r6
	.loc	3 228 5 is_stmt 0               @ ../../../ThirdParty/mbedTLS/library/asn1write.c:228:5
	cmp	r0, #0
	bmi	.LBB7_6
.Ltmp139:
@ %bb.4:
	@DEBUG_VALUE: mbedtls_asn1_write_bool:ret <- $r6
	@DEBUG_VALUE: mbedtls_asn1_write_bool:p <- $r5
	@DEBUG_VALUE: mbedtls_asn1_write_bool:start <- $r4
	@DEBUG_VALUE: mbedtls_asn1_write_bool:len <- 1
	@DEBUG_VALUE: mbedtls_asn1_write_bool:len <- undef
	.loc	3 0 5                           @ ../../../ThirdParty/mbedTLS/library/asn1write.c:0:5
	movs	r2, #1
.Ltmp140:
	.loc	3 229 5 is_stmt 1               @ ../../../ThirdParty/mbedTLS/library/asn1write.c:229:5
	mov	r0, r5
	mov	r1, r4
	bl	mbedtls_asn1_write_tag
.Ltmp141:
	@DEBUG_VALUE: mbedtls_asn1_write_bool:ret <- $r0
	.loc	3 229 5 is_stmt 0               @ ../../../ThirdParty/mbedTLS/library/asn1write.c:229:5
	cmp	r0, #0
	bmi	.LBB7_7
.Ltmp142:
@ %bb.5:
	@DEBUG_VALUE: mbedtls_asn1_write_bool:p <- $r5
	@DEBUG_VALUE: mbedtls_asn1_write_bool:start <- $r4
	@DEBUG_VALUE: mbedtls_asn1_write_bool:ret <- $r0
	.loc	3 228 5 is_stmt 1               @ ../../../ThirdParty/mbedTLS/library/asn1write.c:228:5
	adds	r0, r6, r0
.Ltmp143:
	@DEBUG_VALUE: mbedtls_asn1_write_bool:len <- undef
	.loc	3 229 5                         @ ../../../ThirdParty/mbedTLS/library/asn1write.c:229:5
	adds	r6, r0, #1
.Ltmp144:
	@DEBUG_VALUE: mbedtls_asn1_write_bool:len <- $r6
.LBB7_6:
	@DEBUG_VALUE: mbedtls_asn1_write_bool:p <- $r5
	@DEBUG_VALUE: mbedtls_asn1_write_bool:start <- $r4
	.loc	3 232 1                         @ ../../../ThirdParty/mbedTLS/library/asn1write.c:232:1
	mov	r0, r6
.Ltmp145:
.LBB7_7:
	@DEBUG_VALUE: mbedtls_asn1_write_bool:p <- $r5
	@DEBUG_VALUE: mbedtls_asn1_write_bool:start <- $r4
	pop	{r4, r5, r6, pc}
.Ltmp146:
.Lfunc_end7:
	.size	mbedtls_asn1_write_bool, .Lfunc_end7-mbedtls_asn1_write_bool
	.cfi_endproc
	.cantunwind
	.fnend
                                        @ -- End function
	.section	.text.mbedtls_asn1_write_int,"ax",%progbits
	.hidden	mbedtls_asn1_write_int          @ -- Begin function mbedtls_asn1_write_int
	.globl	mbedtls_asn1_write_int
	.p2align	1
	.type	mbedtls_asn1_write_int,%function
	.code	16                              @ @mbedtls_asn1_write_int
	.thumb_func
mbedtls_asn1_write_int:
.Lfunc_begin8:
	.loc	3 235 0                         @ ../../../ThirdParty/mbedTLS/library/asn1write.c:235:0
	.fnstart
	.cfi_startproc
@ %bb.0:
	@DEBUG_VALUE: mbedtls_asn1_write_int:p <- $r0
	@DEBUG_VALUE: mbedtls_asn1_write_int:start <- $r1
	@DEBUG_VALUE: mbedtls_asn1_write_int:val <- $r2
	.save	{r4, r5, r6, r7, lr}
	push	{r4, r5, r6, r7, lr}
	.cfi_def_cfa_offset 20
	.cfi_offset lr, -4
	.cfi_offset r7, -8
	.cfi_offset r6, -12
	.cfi_offset r5, -16
	.cfi_offset r4, -20
	.pad	#4
	sub	sp, #4
	.cfi_def_cfa_offset 24
	mov	r4, r1
	mov	r6, r0
.Ltmp147:
	@DEBUG_VALUE: mbedtls_asn1_write_int:len <- 0
	@DEBUG_VALUE: mbedtls_asn1_write_int:val <- $r2
	@DEBUG_VALUE: mbedtls_asn1_write_int:start <- $r4
	@DEBUG_VALUE: mbedtls_asn1_write_int:p <- $r6
	.loc	3 239 9 prologue_end            @ ../../../ThirdParty/mbedTLS/library/asn1write.c:239:9
	ldr	r1, [r0]
	.loc	3 239 12 is_stmt 0              @ ../../../ThirdParty/mbedTLS/library/asn1write.c:239:12
	subs	r3, r1, r4
	movs	r0, #107
	mvns	r5, r0
.Ltmp148:
	.loc	3 239 9                         @ ../../../ThirdParty/mbedTLS/library/asn1write.c:239:9
	cmp	r3, #1
	blt	.LBB8_9
.Ltmp149:
@ %bb.1:
	@DEBUG_VALUE: mbedtls_asn1_write_int:p <- $r6
	@DEBUG_VALUE: mbedtls_asn1_write_int:start <- $r4
	@DEBUG_VALUE: mbedtls_asn1_write_int:val <- $r2
	@DEBUG_VALUE: mbedtls_asn1_write_int:len <- 0
	@DEBUG_VALUE: mbedtls_asn1_write_int:len <- 1
	.loc	3 243 6 is_stmt 1               @ ../../../ThirdParty/mbedTLS/library/asn1write.c:243:6
	adds	r1, r5, r1
	mov	r3, r1
	adds	r3, #107
	str	r3, [r6]
	.loc	3 243 13 is_stmt 0              @ ../../../ThirdParty/mbedTLS/library/asn1write.c:243:13
	strb	r2, [r1, r0]
	movs	r7, #1
.Ltmp150:
	.loc	3 245 17 is_stmt 1              @ ../../../ThirdParty/mbedTLS/library/asn1write.c:245:17
	cmp	r2, #1
	blt	.LBB8_5
.Ltmp151:
@ %bb.2:
	@DEBUG_VALUE: mbedtls_asn1_write_int:p <- $r6
	@DEBUG_VALUE: mbedtls_asn1_write_int:start <- $r4
	@DEBUG_VALUE: mbedtls_asn1_write_int:val <- $r2
	@DEBUG_VALUE: mbedtls_asn1_write_int:len <- 1
	.loc	3 245 21 is_stmt 0              @ ../../../ThirdParty/mbedTLS/library/asn1write.c:245:21
	ldr	r1, [r6]
	.loc	3 245 20                        @ ../../../ThirdParty/mbedTLS/library/asn1write.c:245:20
	ldrb	r2, [r1]
.Ltmp152:
	@DEBUG_VALUE: mbedtls_asn1_write_int:val <- [DW_OP_LLVM_entry_value 1] $r2
	sxtb	r2, r2
.Ltmp153:
	.loc	3 245 9                         @ ../../../ThirdParty/mbedTLS/library/asn1write.c:245:9
	cmp	r2, #0
	bpl	.LBB8_5
.Ltmp154:
@ %bb.3:
	@DEBUG_VALUE: mbedtls_asn1_write_int:p <- $r6
	@DEBUG_VALUE: mbedtls_asn1_write_int:start <- $r4
	@DEBUG_VALUE: mbedtls_asn1_write_int:val <- [DW_OP_LLVM_entry_value 1] $r2
	@DEBUG_VALUE: mbedtls_asn1_write_int:len <- 1
	.loc	3 247 16 is_stmt 1              @ ../../../ThirdParty/mbedTLS/library/asn1write.c:247:16
	subs	r2, r1, r4
.Ltmp155:
	.loc	3 247 13 is_stmt 0              @ ../../../ThirdParty/mbedTLS/library/asn1write.c:247:13
	cmp	r2, #1
	blt	.LBB8_9
.Ltmp156:
@ %bb.4:
	@DEBUG_VALUE: mbedtls_asn1_write_int:p <- $r6
	@DEBUG_VALUE: mbedtls_asn1_write_int:start <- $r4
	@DEBUG_VALUE: mbedtls_asn1_write_int:val <- [DW_OP_LLVM_entry_value 1] $r2
	@DEBUG_VALUE: mbedtls_asn1_write_int:len <- 1
	.loc	3 250 10 is_stmt 1              @ ../../../ThirdParty/mbedTLS/library/asn1write.c:250:10
	adds	r1, r5, r1
	mov	r2, r1
	adds	r2, #107
	str	r2, [r6]
	movs	r2, #0
	.loc	3 250 17 is_stmt 0              @ ../../../ThirdParty/mbedTLS/library/asn1write.c:250:17
	strb	r2, [r1, r0]
	movs	r7, #2
.Ltmp157:
	@DEBUG_VALUE: mbedtls_asn1_write_int:len <- 2
.LBB8_5:
	@DEBUG_VALUE: mbedtls_asn1_write_int:p <- $r6
	@DEBUG_VALUE: mbedtls_asn1_write_int:start <- $r4
	@DEBUG_VALUE: mbedtls_asn1_write_int:len <- $r7
	.loc	3 254 5 is_stmt 1               @ ../../../ThirdParty/mbedTLS/library/asn1write.c:254:5
	mov	r0, r6
	mov	r1, r4
	mov	r2, r7
	bl	mbedtls_asn1_write_len
	mov	r5, r0
.Ltmp158:
	@DEBUG_VALUE: mbedtls_asn1_write_int:ret <- $r5
	.loc	3 254 5 is_stmt 0               @ ../../../ThirdParty/mbedTLS/library/asn1write.c:254:5
	cmp	r0, #0
	bmi	.LBB8_9
.Ltmp159:
@ %bb.6:
	@DEBUG_VALUE: mbedtls_asn1_write_int:len <- $r7
	@DEBUG_VALUE: mbedtls_asn1_write_int:p <- $r6
	@DEBUG_VALUE: mbedtls_asn1_write_int:ret <- $r5
	@DEBUG_VALUE: mbedtls_asn1_write_int:start <- $r4
	@DEBUG_VALUE: mbedtls_asn1_write_int:len <- undef
	.loc	3 0 5                           @ ../../../ThirdParty/mbedTLS/library/asn1write.c:0:5
	movs	r2, #2
.Ltmp160:
	.loc	3 255 5 is_stmt 1               @ ../../../ThirdParty/mbedTLS/library/asn1write.c:255:5
	mov	r0, r6
	mov	r1, r4
	bl	mbedtls_asn1_write_tag
.Ltmp161:
	@DEBUG_VALUE: mbedtls_asn1_write_int:ret <- $r0
	.loc	3 255 5 is_stmt 0               @ ../../../ThirdParty/mbedTLS/library/asn1write.c:255:5
	cmp	r0, #0
	bmi	.LBB8_8
.Ltmp162:
@ %bb.7:
	@DEBUG_VALUE: mbedtls_asn1_write_int:p <- $r6
	@DEBUG_VALUE: mbedtls_asn1_write_int:start <- $r4
	@DEBUG_VALUE: mbedtls_asn1_write_int:ret <- $r0
	.loc	3 254 5 is_stmt 1               @ ../../../ThirdParty/mbedTLS/library/asn1write.c:254:5
	adds	r1, r5, r7
.Ltmp163:
	@DEBUG_VALUE: mbedtls_asn1_write_int:len <- $r1
	.loc	3 255 5                         @ ../../../ThirdParty/mbedTLS/library/asn1write.c:255:5
	adds	r5, r1, r0
.Ltmp164:
	@DEBUG_VALUE: mbedtls_asn1_write_int:len <- $r5
	.loc	3 0 5 is_stmt 0                 @ ../../../ThirdParty/mbedTLS/library/asn1write.c:0:5
	b	.LBB8_9
.Ltmp165:
.LBB8_8:
	@DEBUG_VALUE: mbedtls_asn1_write_int:p <- $r6
	@DEBUG_VALUE: mbedtls_asn1_write_int:start <- $r4
	@DEBUG_VALUE: mbedtls_asn1_write_int:ret <- $r0
	mov	r5, r0
.Ltmp166:
	@DEBUG_VALUE: mbedtls_asn1_write_int:ret <- $r5
.LBB8_9:
	@DEBUG_VALUE: mbedtls_asn1_write_int:p <- $r6
	@DEBUG_VALUE: mbedtls_asn1_write_int:start <- $r4
	.loc	3 258 1 is_stmt 1               @ ../../../ThirdParty/mbedTLS/library/asn1write.c:258:1
	mov	r0, r5
	add	sp, #4
	pop	{r4, r5, r6, r7, pc}
.Ltmp167:
.Lfunc_end8:
	.size	mbedtls_asn1_write_int, .Lfunc_end8-mbedtls_asn1_write_int
	.cfi_endproc
	.cantunwind
	.fnend
                                        @ -- End function
	.section	.text.mbedtls_asn1_write_tagged_string,"ax",%progbits
	.hidden	mbedtls_asn1_write_tagged_string @ -- Begin function mbedtls_asn1_write_tagged_string
	.globl	mbedtls_asn1_write_tagged_string
	.p2align	1
	.type	mbedtls_asn1_write_tagged_string,%function
	.code	16                              @ @mbedtls_asn1_write_tagged_string
	.thumb_func
mbedtls_asn1_write_tagged_string:
.Lfunc_begin9:
	.loc	3 262 0                         @ ../../../ThirdParty/mbedTLS/library/asn1write.c:262:0
	.fnstart
	.cfi_startproc
@ %bb.0:
	@DEBUG_VALUE: mbedtls_asn1_write_tagged_string:p <- $r0
	@DEBUG_VALUE: mbedtls_asn1_write_tagged_string:start <- $r1
	@DEBUG_VALUE: mbedtls_asn1_write_tagged_string:tag <- $r2
	@DEBUG_VALUE: mbedtls_asn1_write_tagged_string:text <- $r3
	.save	{r4, r5, r6, r7, lr}
	push	{r4, r5, r6, r7, lr}
	.cfi_def_cfa_offset 20
	.cfi_offset lr, -4
	.cfi_offset r7, -8
	.cfi_offset r6, -12
	.cfi_offset r5, -16
	.cfi_offset r4, -20
	.pad	#4
	sub	sp, #4
	.cfi_def_cfa_offset 24
	mov	r5, r3
	mov	r7, r2
	mov	r4, r1
	mov	r6, r0
.Ltmp168:
	@DEBUG_VALUE: mbedtls_asn1_write_tagged_string:len <- 0
	@DEBUG_VALUE: mbedtls_asn1_write_tagged_string:text_len <- [DW_OP_plus_uconst 24] [$sp+0]
	@DEBUG_VALUE: mbedtls_asn1_write_tagged_string:text <- $r5
	@DEBUG_VALUE: mbedtls_asn1_write_tagged_string:tag <- $r7
	@DEBUG_VALUE: mbedtls_asn1_write_tagged_string:start <- $r4
	@DEBUG_VALUE: mbedtls_asn1_write_tagged_string:p <- $r6
	ldr	r3, [sp, #24]
.Ltmp169:
	.loc	3 266 5 prologue_end            @ ../../../ThirdParty/mbedTLS/library/asn1write.c:266:5
	mov	r2, r5
.Ltmp170:
	@DEBUG_VALUE: mbedtls_asn1_write_tagged_string:text <- $r2
	bl	mbedtls_asn1_write_raw_buffer
.Ltmp171:
	mov	r5, r0
.Ltmp172:
	@DEBUG_VALUE: mbedtls_asn1_write_tagged_string:ret <- $r5
	.loc	3 266 5 is_stmt 0               @ ../../../ThirdParty/mbedTLS/library/asn1write.c:266:5
	cmp	r0, #0
	bmi	.LBB9_4
.Ltmp173:
@ %bb.1:
	@DEBUG_VALUE: mbedtls_asn1_write_tagged_string:tag <- $r7
	@DEBUG_VALUE: mbedtls_asn1_write_tagged_string:p <- $r6
	@DEBUG_VALUE: mbedtls_asn1_write_tagged_string:ret <- $r5
	@DEBUG_VALUE: mbedtls_asn1_write_tagged_string:start <- $r4
	@DEBUG_VALUE: mbedtls_asn1_write_tagged_string:text_len <- [DW_OP_plus_uconst 24] [$sp+0]
	@DEBUG_VALUE: mbedtls_asn1_write_tagged_string:len <- 0
	@DEBUG_VALUE: mbedtls_asn1_write_tagged_string:len <- $r5
	.loc	3 0 5                           @ ../../../ThirdParty/mbedTLS/library/asn1write.c:0:5
	str	r7, [sp]                        @ 4-byte Spill
.Ltmp174:
	@DEBUG_VALUE: mbedtls_asn1_write_tagged_string:tag <- [$sp+0]
	.loc	3 269 5 is_stmt 1               @ ../../../ThirdParty/mbedTLS/library/asn1write.c:269:5
	mov	r0, r6
	mov	r1, r4
	mov	r2, r5
	bl	mbedtls_asn1_write_len
	mov	r7, r0
.Ltmp175:
	@DEBUG_VALUE: mbedtls_asn1_write_tagged_string:ret <- $r7
	.loc	3 269 5 is_stmt 0               @ ../../../ThirdParty/mbedTLS/library/asn1write.c:269:5
	cmp	r0, #0
	bmi	.LBB9_6
.Ltmp176:
@ %bb.2:
	@DEBUG_VALUE: mbedtls_asn1_write_tagged_string:tag <- [$sp+0]
	@DEBUG_VALUE: mbedtls_asn1_write_tagged_string:ret <- $r7
	@DEBUG_VALUE: mbedtls_asn1_write_tagged_string:p <- $r6
	@DEBUG_VALUE: mbedtls_asn1_write_tagged_string:len <- $r5
	@DEBUG_VALUE: mbedtls_asn1_write_tagged_string:start <- $r4
	@DEBUG_VALUE: mbedtls_asn1_write_tagged_string:text_len <- [DW_OP_plus_uconst 24] [$sp+0]
	@DEBUG_VALUE: mbedtls_asn1_write_tagged_string:len <- undef
	.loc	3 270 5 is_stmt 1               @ ../../../ThirdParty/mbedTLS/library/asn1write.c:270:5
	ldr	r0, [sp]                        @ 4-byte Reload
.Ltmp177:
	@DEBUG_VALUE: mbedtls_asn1_write_tagged_string:tag <- $r0
	uxtb	r2, r0
	mov	r0, r6
.Ltmp178:
	mov	r1, r4
	bl	mbedtls_asn1_write_tag
.Ltmp179:
	@DEBUG_VALUE: mbedtls_asn1_write_tagged_string:ret <- $r0
	.loc	3 270 5 is_stmt 0               @ ../../../ThirdParty/mbedTLS/library/asn1write.c:270:5
	cmp	r0, #0
	bmi	.LBB9_5
.Ltmp180:
@ %bb.3:
	@DEBUG_VALUE: mbedtls_asn1_write_tagged_string:p <- $r6
	@DEBUG_VALUE: mbedtls_asn1_write_tagged_string:start <- $r4
	@DEBUG_VALUE: mbedtls_asn1_write_tagged_string:ret <- $r0
	@DEBUG_VALUE: mbedtls_asn1_write_tagged_string:text_len <- [DW_OP_plus_uconst 24] [$sp+0]
	.loc	3 269 5 is_stmt 1               @ ../../../ThirdParty/mbedTLS/library/asn1write.c:269:5
	adds	r1, r7, r5
.Ltmp181:
	@DEBUG_VALUE: mbedtls_asn1_write_tagged_string:len <- $r1
	.loc	3 270 5                         @ ../../../ThirdParty/mbedTLS/library/asn1write.c:270:5
	adds	r7, r1, r0
.Ltmp182:
	@DEBUG_VALUE: mbedtls_asn1_write_tagged_string:len <- $r7
	.loc	3 0 5 is_stmt 0                 @ ../../../ThirdParty/mbedTLS/library/asn1write.c:0:5
	b	.LBB9_6
.Ltmp183:
.LBB9_4:
	@DEBUG_VALUE: mbedtls_asn1_write_tagged_string:tag <- $r7
	@DEBUG_VALUE: mbedtls_asn1_write_tagged_string:p <- $r6
	@DEBUG_VALUE: mbedtls_asn1_write_tagged_string:ret <- $r5
	@DEBUG_VALUE: mbedtls_asn1_write_tagged_string:start <- $r4
	@DEBUG_VALUE: mbedtls_asn1_write_tagged_string:text_len <- [DW_OP_plus_uconst 24] [$sp+0]
	@DEBUG_VALUE: mbedtls_asn1_write_tagged_string:len <- 0
	mov	r7, r5
.Ltmp184:
	@DEBUG_VALUE: mbedtls_asn1_write_tagged_string:ret <- $r7
	b	.LBB9_6
.Ltmp185:
.LBB9_5:
	@DEBUG_VALUE: mbedtls_asn1_write_tagged_string:p <- $r6
	@DEBUG_VALUE: mbedtls_asn1_write_tagged_string:start <- $r4
	@DEBUG_VALUE: mbedtls_asn1_write_tagged_string:ret <- $r0
	@DEBUG_VALUE: mbedtls_asn1_write_tagged_string:text_len <- [DW_OP_plus_uconst 24] [$sp+0]
	mov	r7, r0
.Ltmp186:
	@DEBUG_VALUE: mbedtls_asn1_write_tagged_string:ret <- $r7
.LBB9_6:
	@DEBUG_VALUE: mbedtls_asn1_write_tagged_string:p <- $r6
	@DEBUG_VALUE: mbedtls_asn1_write_tagged_string:start <- $r4
	@DEBUG_VALUE: mbedtls_asn1_write_tagged_string:text_len <- [DW_OP_plus_uconst 24] [$sp+0]
	.loc	3 273 1 is_stmt 1               @ ../../../ThirdParty/mbedTLS/library/asn1write.c:273:1
	mov	r0, r7
	add	sp, #4
.Ltmp187:
	pop	{r4, r5, r6, r7, pc}
.Ltmp188:
.Lfunc_end9:
	.size	mbedtls_asn1_write_tagged_string, .Lfunc_end9-mbedtls_asn1_write_tagged_string
	.cfi_endproc
	.cantunwind
	.fnend
                                        @ -- End function
	.section	.text.mbedtls_asn1_write_utf8_string,"ax",%progbits
	.hidden	mbedtls_asn1_write_utf8_string  @ -- Begin function mbedtls_asn1_write_utf8_string
	.globl	mbedtls_asn1_write_utf8_string
	.p2align	1
	.type	mbedtls_asn1_write_utf8_string,%function
	.code	16                              @ @mbedtls_asn1_write_utf8_string
	.thumb_func
mbedtls_asn1_write_utf8_string:
.Lfunc_begin10:
	.loc	3 277 0                         @ ../../../ThirdParty/mbedTLS/library/asn1write.c:277:0
	.fnstart
	.cfi_startproc
@ %bb.0:
	@DEBUG_VALUE: mbedtls_asn1_write_utf8_string:p <- $r0
	@DEBUG_VALUE: mbedtls_asn1_write_utf8_string:start <- $r1
	@DEBUG_VALUE: mbedtls_asn1_write_utf8_string:text <- $r2
	@DEBUG_VALUE: mbedtls_asn1_write_utf8_string:text_len <- $r3
	.save	{r4, lr}
	push	{r4, lr}
	.cfi_def_cfa_offset 8
	.cfi_offset lr, -4
	.cfi_offset r4, -8
	.pad	#8
	sub	sp, #8
	.cfi_def_cfa_offset 16
	mov	r4, r2
	@DEBUG_VALUE: mbedtls_asn1_write_utf8_string:text_len <- $r3
.Ltmp189:
	@DEBUG_VALUE: mbedtls_asn1_write_utf8_string:text <- $r4
	@DEBUG_VALUE: mbedtls_asn1_write_utf8_string:start <- $r1
	@DEBUG_VALUE: mbedtls_asn1_write_utf8_string:p <- $r0
	.loc	3 278 13 prologue_end           @ ../../../ThirdParty/mbedTLS/library/asn1write.c:278:13
	str	r3, [sp]
	movs	r2, #12
	@DEBUG_VALUE: mbedtls_asn1_write_utf8_string:start <- $r1
	@DEBUG_VALUE: mbedtls_asn1_write_utf8_string:p <- $r0
	mov	r3, r4
.Ltmp190:
	@DEBUG_VALUE: mbedtls_asn1_write_utf8_string:text_len <- [DW_OP_LLVM_entry_value 1] $r3
	@DEBUG_VALUE: mbedtls_asn1_write_utf8_string:text <- $r3
	bl	mbedtls_asn1_write_tagged_string
.Ltmp191:
	@DEBUG_VALUE: mbedtls_asn1_write_utf8_string:start <- [DW_OP_LLVM_entry_value 1] $r1
	@DEBUG_VALUE: mbedtls_asn1_write_utf8_string:p <- [DW_OP_LLVM_entry_value 1] $r0
	.loc	3 278 5 is_stmt 0               @ ../../../ThirdParty/mbedTLS/library/asn1write.c:278:5
	add	sp, #8
	pop	{r4, pc}
.Ltmp192:
.Lfunc_end10:
	.size	mbedtls_asn1_write_utf8_string, .Lfunc_end10-mbedtls_asn1_write_utf8_string
	.cfi_endproc
	.cantunwind
	.fnend
                                        @ -- End function
	.section	.text.mbedtls_asn1_write_printable_string,"ax",%progbits
	.hidden	mbedtls_asn1_write_printable_string @ -- Begin function mbedtls_asn1_write_printable_string
	.globl	mbedtls_asn1_write_printable_string
	.p2align	1
	.type	mbedtls_asn1_write_printable_string,%function
	.code	16                              @ @mbedtls_asn1_write_printable_string
	.thumb_func
mbedtls_asn1_write_printable_string:
.Lfunc_begin11:
	.loc	3 283 0 is_stmt 1               @ ../../../ThirdParty/mbedTLS/library/asn1write.c:283:0
	.fnstart
	.cfi_startproc
@ %bb.0:
	@DEBUG_VALUE: mbedtls_asn1_write_printable_string:p <- $r0
	@DEBUG_VALUE: mbedtls_asn1_write_printable_string:start <- $r1
	@DEBUG_VALUE: mbedtls_asn1_write_printable_string:text <- $r2
	@DEBUG_VALUE: mbedtls_asn1_write_printable_string:text_len <- $r3
	.save	{r4, lr}
	push	{r4, lr}
	.cfi_def_cfa_offset 8
	.cfi_offset lr, -4
	.cfi_offset r4, -8
	.pad	#8
	sub	sp, #8
	.cfi_def_cfa_offset 16
	mov	r4, r2
	@DEBUG_VALUE: mbedtls_asn1_write_printable_string:text_len <- $r3
.Ltmp193:
	@DEBUG_VALUE: mbedtls_asn1_write_printable_string:text <- $r4
	@DEBUG_VALUE: mbedtls_asn1_write_printable_string:start <- $r1
	@DEBUG_VALUE: mbedtls_asn1_write_printable_string:p <- $r0
	.loc	3 284 13 prologue_end           @ ../../../ThirdParty/mbedTLS/library/asn1write.c:284:13
	str	r3, [sp]
	movs	r2, #19
	@DEBUG_VALUE: mbedtls_asn1_write_printable_string:start <- $r1
	@DEBUG_VALUE: mbedtls_asn1_write_printable_string:p <- $r0
	mov	r3, r4
.Ltmp194:
	@DEBUG_VALUE: mbedtls_asn1_write_printable_string:text_len <- [DW_OP_LLVM_entry_value 1] $r3
	@DEBUG_VALUE: mbedtls_asn1_write_printable_string:text <- $r3
	bl	mbedtls_asn1_write_tagged_string
.Ltmp195:
	@DEBUG_VALUE: mbedtls_asn1_write_printable_string:start <- [DW_OP_LLVM_entry_value 1] $r1
	@DEBUG_VALUE: mbedtls_asn1_write_printable_string:p <- [DW_OP_LLVM_entry_value 1] $r0
	.loc	3 284 5 is_stmt 0               @ ../../../ThirdParty/mbedTLS/library/asn1write.c:284:5
	add	sp, #8
	pop	{r4, pc}
.Ltmp196:
.Lfunc_end11:
	.size	mbedtls_asn1_write_printable_string, .Lfunc_end11-mbedtls_asn1_write_printable_string
	.cfi_endproc
	.cantunwind
	.fnend
                                        @ -- End function
	.section	.text.mbedtls_asn1_write_ia5_string,"ax",%progbits
	.hidden	mbedtls_asn1_write_ia5_string   @ -- Begin function mbedtls_asn1_write_ia5_string
	.globl	mbedtls_asn1_write_ia5_string
	.p2align	1
	.type	mbedtls_asn1_write_ia5_string,%function
	.code	16                              @ @mbedtls_asn1_write_ia5_string
	.thumb_func
mbedtls_asn1_write_ia5_string:
.Lfunc_begin12:
	.loc	3 289 0 is_stmt 1               @ ../../../ThirdParty/mbedTLS/library/asn1write.c:289:0
	.fnstart
	.cfi_startproc
@ %bb.0:
	@DEBUG_VALUE: mbedtls_asn1_write_ia5_string:p <- $r0
	@DEBUG_VALUE: mbedtls_asn1_write_ia5_string:start <- $r1
	@DEBUG_VALUE: mbedtls_asn1_write_ia5_string:text <- $r2
	@DEBUG_VALUE: mbedtls_asn1_write_ia5_string:text_len <- $r3
	.save	{r4, lr}
	push	{r4, lr}
	.cfi_def_cfa_offset 8
	.cfi_offset lr, -4
	.cfi_offset r4, -8
	.pad	#8
	sub	sp, #8
	.cfi_def_cfa_offset 16
	mov	r4, r2
	@DEBUG_VALUE: mbedtls_asn1_write_ia5_string:text_len <- $r3
.Ltmp197:
	@DEBUG_VALUE: mbedtls_asn1_write_ia5_string:text <- $r4
	@DEBUG_VALUE: mbedtls_asn1_write_ia5_string:start <- $r1
	@DEBUG_VALUE: mbedtls_asn1_write_ia5_string:p <- $r0
	.loc	3 290 13 prologue_end           @ ../../../ThirdParty/mbedTLS/library/asn1write.c:290:13
	str	r3, [sp]
	movs	r2, #22
	@DEBUG_VALUE: mbedtls_asn1_write_ia5_string:start <- $r1
	@DEBUG_VALUE: mbedtls_asn1_write_ia5_string:p <- $r0
	mov	r3, r4
.Ltmp198:
	@DEBUG_VALUE: mbedtls_asn1_write_ia5_string:text_len <- [DW_OP_LLVM_entry_value 1] $r3
	@DEBUG_VALUE: mbedtls_asn1_write_ia5_string:text <- $r3
	bl	mbedtls_asn1_write_tagged_string
.Ltmp199:
	@DEBUG_VALUE: mbedtls_asn1_write_ia5_string:start <- [DW_OP_LLVM_entry_value 1] $r1
	@DEBUG_VALUE: mbedtls_asn1_write_ia5_string:p <- [DW_OP_LLVM_entry_value 1] $r0
	.loc	3 290 5 is_stmt 0               @ ../../../ThirdParty/mbedTLS/library/asn1write.c:290:5
	add	sp, #8
	pop	{r4, pc}
.Ltmp200:
.Lfunc_end12:
	.size	mbedtls_asn1_write_ia5_string, .Lfunc_end12-mbedtls_asn1_write_ia5_string
	.cfi_endproc
	.cantunwind
	.fnend
                                        @ -- End function
	.section	.text.mbedtls_asn1_write_named_bitstring,"ax",%progbits
	.hidden	mbedtls_asn1_write_named_bitstring @ -- Begin function mbedtls_asn1_write_named_bitstring
	.globl	mbedtls_asn1_write_named_bitstring
	.p2align	1
	.type	mbedtls_asn1_write_named_bitstring,%function
	.code	16                              @ @mbedtls_asn1_write_named_bitstring
	.thumb_func
mbedtls_asn1_write_named_bitstring:
.Lfunc_begin13:
	.loc	3 297 0 is_stmt 1               @ ../../../ThirdParty/mbedTLS/library/asn1write.c:297:0
	.fnstart
	.cfi_startproc
@ %bb.0:
	@DEBUG_VALUE: mbedtls_asn1_write_named_bitstring:p <- $r0
	@DEBUG_VALUE: mbedtls_asn1_write_named_bitstring:p <- $r0
	@DEBUG_VALUE: mbedtls_asn1_write_named_bitstring:start <- $r1
	@DEBUG_VALUE: mbedtls_asn1_write_named_bitstring:start <- $r1
	@DEBUG_VALUE: mbedtls_asn1_write_named_bitstring:buf <- $r2
	@DEBUG_VALUE: mbedtls_asn1_write_named_bitstring:buf <- $r2
	@DEBUG_VALUE: mbedtls_asn1_write_named_bitstring:bits <- $r3
	@DEBUG_VALUE: mbedtls_asn1_write_named_bitstring:bits <- $r3
	.save	{r4, r5, r6, r7, lr}
	push	{r4, r5, r6, r7, lr}
	.cfi_def_cfa_offset 20
	.cfi_offset lr, -4
	.cfi_offset r7, -8
	.cfi_offset r6, -12
	.cfi_offset r5, -16
	.cfi_offset r4, -20
	.pad	#4
	sub	sp, #4
	.cfi_def_cfa_offset 24
.Ltmp201:
	@DEBUG_VALUE: mbedtls_asn1_write_named_bitstring:byte_len <- [DW_OP_constu 3, DW_OP_shr, DW_OP_stack_value] undef
	@DEBUG_VALUE: mbedtls_asn1_write_named_bitstring:unused_bits <- undef
	.loc	3 311 9 prologue_end            @ ../../../ThirdParty/mbedTLS/library/asn1write.c:311:9
	cbz	r3, .LBB13_8
.Ltmp202:
@ %bb.1:
	@DEBUG_VALUE: mbedtls_asn1_write_named_bitstring:bits <- $r3
	@DEBUG_VALUE: mbedtls_asn1_write_named_bitstring:buf <- $r2
	@DEBUG_VALUE: mbedtls_asn1_write_named_bitstring:start <- $r1
	@DEBUG_VALUE: mbedtls_asn1_write_named_bitstring:p <- $r0
	.loc	3 0 9 is_stmt 0                 @ ../../../ThirdParty/mbedTLS/library/asn1write.c:0:9
	adds	r4, r3, #7
.Ltmp203:
	@DEBUG_VALUE: mbedtls_asn1_write_named_bitstring:byte_len <- [DW_OP_constu 3, DW_OP_shr, DW_OP_stack_value] $r4
	movs	r5, #7
.Ltmp204:
	@DEBUG_VALUE: mbedtls_asn1_write_named_bitstring:unused_bits <- undef
	.loc	3 303 29 is_stmt 1              @ ../../../ThirdParty/mbedTLS/library/asn1write.c:303:29
	lsrs	r6, r4, #3
	.loc	3 304 30                        @ ../../../ThirdParty/mbedTLS/library/asn1write.c:304:30
	bics	r4, r5
.Ltmp205:
	.loc	3 304 36 is_stmt 0              @ ../../../ThirdParty/mbedTLS/library/asn1write.c:304:36
	subs	r7, r4, r3
.Ltmp206:
	@DEBUG_VALUE: mbedtls_asn1_write_named_bitstring:byte_len <- $r6
	.loc	3 313 24 is_stmt 1              @ ../../../ThirdParty/mbedTLS/library/asn1write.c:313:24
	adds	r4, r2, r6
	.loc	3 313 35 is_stmt 0              @ ../../../ThirdParty/mbedTLS/library/asn1write.c:313:35
	subs	r4, r4, #1
.Ltmp207:
	@DEBUG_VALUE: mbedtls_asn1_write_named_bitstring:cur_byte <- $r4
	.loc	3 314 28 is_stmt 1              @ ../../../ThirdParty/mbedTLS/library/asn1write.c:314:28
	ldrb	r5, [r4]
	.loc	3 314 38 is_stmt 0              @ ../../../ThirdParty/mbedTLS/library/asn1write.c:314:38
	lsrs	r5, r7
.Ltmp208:
	@DEBUG_VALUE: mbedtls_asn1_write_named_bitstring:cur_byte_shifted <- [DW_OP_constu 1, DW_OP_shr, DW_OP_stack_value] undef
	.loc	3 321 17 is_stmt 1              @ ../../../ThirdParty/mbedTLS/library/asn1write.c:321:17
	lsls	r6, r5, #31
.Ltmp209:
	@DEBUG_VALUE: mbedtls_asn1_write_named_bitstring:bit <- $r6
	@DEBUG_VALUE: mbedtls_asn1_write_named_bitstring:bits <- undef
	bne	.LBB13_11
.Ltmp210:
@ %bb.2:
	@DEBUG_VALUE: mbedtls_asn1_write_named_bitstring:bit <- $r6
	@DEBUG_VALUE: mbedtls_asn1_write_named_bitstring:cur_byte <- $r4
	@DEBUG_VALUE: mbedtls_asn1_write_named_bitstring:buf <- $r2
	@DEBUG_VALUE: mbedtls_asn1_write_named_bitstring:start <- $r1
	@DEBUG_VALUE: mbedtls_asn1_write_named_bitstring:p <- $r0
	.loc	3 0 17 is_stmt 0                @ ../../../ThirdParty/mbedTLS/library/asn1write.c:0:17
	movs	r6, #0
.Ltmp211:
	str	r6, [sp]                        @ 4-byte Spill
	mvns	r7, r6
	.loc	3 316 9 is_stmt 1               @ ../../../ThirdParty/mbedTLS/library/asn1write.c:316:9
	subs	r3, r3, #1
	b	.LBB13_5
.Ltmp212:
.LBB13_3:                               @   in Loop: Header=BB13_5 Depth=1
	@DEBUG_VALUE: mbedtls_asn1_write_named_bitstring:cur_byte <- $r4
	@DEBUG_VALUE: mbedtls_asn1_write_named_bitstring:buf <- $r2
	@DEBUG_VALUE: mbedtls_asn1_write_named_bitstring:start <- $r1
	@DEBUG_VALUE: mbedtls_asn1_write_named_bitstring:p <- $r0
	.loc	3 329 36                        @ ../../../ThirdParty/mbedTLS/library/asn1write.c:329:36
	ldrb	r5, [r4, r7]
	.loc	3 329 37 is_stmt 0              @ ../../../ThirdParty/mbedTLS/library/asn1write.c:329:37
	adds	r4, r4, r7
.Ltmp213:
	@DEBUG_VALUE: mbedtls_asn1_write_named_bitstring:cur_byte_shifted <- undef
	@DEBUG_VALUE: mbedtls_asn1_write_named_bitstring:cur_byte <- $r4
.LBB13_4:                               @   in Loop: Header=BB13_5 Depth=1
	@DEBUG_VALUE: mbedtls_asn1_write_named_bitstring:cur_byte <- $r4
	@DEBUG_VALUE: mbedtls_asn1_write_named_bitstring:buf <- $r2
	@DEBUG_VALUE: mbedtls_asn1_write_named_bitstring:start <- $r1
	@DEBUG_VALUE: mbedtls_asn1_write_named_bitstring:p <- $r0
	@DEBUG_VALUE: mbedtls_asn1_write_named_bitstring:bits <- [DW_OP_constu 1, DW_OP_minus, DW_OP_stack_value] undef
	@DEBUG_VALUE: mbedtls_asn1_write_named_bitstring:cur_byte <- $r4
	@DEBUG_VALUE: mbedtls_asn1_write_named_bitstring:cur_byte_shifted <- [DW_OP_constu 1, DW_OP_shr, DW_OP_stack_value] $r5
	.loc	3 321 17 is_stmt 1              @ ../../../ThirdParty/mbedTLS/library/asn1write.c:321:17
	subs	r3, r3, #1
	lsls	r6, r5, #31
.Ltmp214:
	@DEBUG_VALUE: mbedtls_asn1_write_named_bitstring:bit <- $r6
	bne	.LBB13_9
.Ltmp215:
.LBB13_5:                               @ =>This Inner Loop Header: Depth=1
	@DEBUG_VALUE: mbedtls_asn1_write_named_bitstring:cur_byte <- $r4
	@DEBUG_VALUE: mbedtls_asn1_write_named_bitstring:buf <- $r2
	@DEBUG_VALUE: mbedtls_asn1_write_named_bitstring:start <- $r1
	@DEBUG_VALUE: mbedtls_asn1_write_named_bitstring:p <- $r0
	@DEBUG_VALUE: mbedtls_asn1_write_named_bitstring:bits <- [DW_OP_constu 1, DW_OP_minus, DW_OP_stack_value] undef
	@DEBUG_VALUE: mbedtls_asn1_write_named_bitstring:cur_byte <- $r4
	.loc	3 325 17                        @ ../../../ThirdParty/mbedTLS/library/asn1write.c:325:17
	cbz	r3, .LBB13_10
.Ltmp216:
@ %bb.6:                                @   in Loop: Header=BB13_5 Depth=1
	@DEBUG_VALUE: mbedtls_asn1_write_named_bitstring:cur_byte <- $r4
	@DEBUG_VALUE: mbedtls_asn1_write_named_bitstring:buf <- $r2
	@DEBUG_VALUE: mbedtls_asn1_write_named_bitstring:start <- $r1
	@DEBUG_VALUE: mbedtls_asn1_write_named_bitstring:p <- $r0
	.loc	3 328 17                        @ ../../../ThirdParty/mbedTLS/library/asn1write.c:328:17
	lsls	r6, r3, #29
	beq	.LBB13_3
.Ltmp217:
@ %bb.7:                                @   in Loop: Header=BB13_5 Depth=1
	@DEBUG_VALUE: mbedtls_asn1_write_named_bitstring:cur_byte <- $r4
	@DEBUG_VALUE: mbedtls_asn1_write_named_bitstring:buf <- $r2
	@DEBUG_VALUE: mbedtls_asn1_write_named_bitstring:start <- $r1
	@DEBUG_VALUE: mbedtls_asn1_write_named_bitstring:p <- $r0
	.loc	3 0 17 is_stmt 0                @ ../../../ThirdParty/mbedTLS/library/asn1write.c:0:17
	lsrs	r5, r5, #1
	b	.LBB13_4
.Ltmp218:
.LBB13_8:
	@DEBUG_VALUE: mbedtls_asn1_write_named_bitstring:bits <- $r3
	@DEBUG_VALUE: mbedtls_asn1_write_named_bitstring:buf <- $r2
	@DEBUG_VALUE: mbedtls_asn1_write_named_bitstring:start <- $r1
	@DEBUG_VALUE: mbedtls_asn1_write_named_bitstring:p <- $r0
	movs	r3, #0
.Ltmp219:
	@DEBUG_VALUE: mbedtls_asn1_write_named_bitstring:bits <- [DW_OP_LLVM_entry_value 1] $r3
	b	.LBB13_11
.Ltmp220:
.LBB13_9:
	@DEBUG_VALUE: mbedtls_asn1_write_named_bitstring:bit <- $r6
	@DEBUG_VALUE: mbedtls_asn1_write_named_bitstring:cur_byte_shifted <- [DW_OP_constu 1, DW_OP_shr, DW_OP_stack_value] $r5
	@DEBUG_VALUE: mbedtls_asn1_write_named_bitstring:cur_byte <- $r4
	@DEBUG_VALUE: mbedtls_asn1_write_named_bitstring:buf <- $r2
	@DEBUG_VALUE: mbedtls_asn1_write_named_bitstring:start <- $r1
	@DEBUG_VALUE: mbedtls_asn1_write_named_bitstring:p <- $r0
	.loc	3 321 17 is_stmt 1              @ ../../../ThirdParty/mbedTLS/library/asn1write.c:321:17
	adds	r3, r3, #1
	b	.LBB13_11
.Ltmp221:
.LBB13_10:
	@DEBUG_VALUE: mbedtls_asn1_write_named_bitstring:cur_byte <- $r4
	@DEBUG_VALUE: mbedtls_asn1_write_named_bitstring:buf <- $r2
	@DEBUG_VALUE: mbedtls_asn1_write_named_bitstring:start <- $r1
	@DEBUG_VALUE: mbedtls_asn1_write_named_bitstring:p <- $r0
	.loc	3 0 17 is_stmt 0                @ ../../../ThirdParty/mbedTLS/library/asn1write.c:0:17
	ldr	r3, [sp]                        @ 4-byte Reload
.Ltmp222:
.LBB13_11:
	@DEBUG_VALUE: mbedtls_asn1_write_named_bitstring:buf <- $r2
	@DEBUG_VALUE: mbedtls_asn1_write_named_bitstring:start <- $r1
	@DEBUG_VALUE: mbedtls_asn1_write_named_bitstring:p <- $r0
	@DEBUG_VALUE: mbedtls_asn1_write_named_bitstring:bits <- $r3
	.loc	3 333 13 is_stmt 1              @ ../../../ThirdParty/mbedTLS/library/asn1write.c:333:13
	bl	mbedtls_asn1_write_bitstring
.Ltmp223:
	@DEBUG_VALUE: mbedtls_asn1_write_named_bitstring:buf <- [DW_OP_LLVM_entry_value 1] $r2
	@DEBUG_VALUE: mbedtls_asn1_write_named_bitstring:start <- [DW_OP_LLVM_entry_value 1] $r1
	@DEBUG_VALUE: mbedtls_asn1_write_named_bitstring:p <- [DW_OP_LLVM_entry_value 1] $r0
	.loc	3 333 5 is_stmt 0               @ ../../../ThirdParty/mbedTLS/library/asn1write.c:333:5
	add	sp, #4
	pop	{r4, r5, r6, r7, pc}
.Ltmp224:
.Lfunc_end13:
	.size	mbedtls_asn1_write_named_bitstring, .Lfunc_end13-mbedtls_asn1_write_named_bitstring
	.cfi_endproc
	.cantunwind
	.fnend
                                        @ -- End function
	.section	.text.mbedtls_asn1_write_bitstring,"ax",%progbits
	.hidden	mbedtls_asn1_write_bitstring    @ -- Begin function mbedtls_asn1_write_bitstring
	.globl	mbedtls_asn1_write_bitstring
	.p2align	1
	.type	mbedtls_asn1_write_bitstring,%function
	.code	16                              @ @mbedtls_asn1_write_bitstring
	.thumb_func
mbedtls_asn1_write_bitstring:
.Lfunc_begin14:
	.loc	3 338 0 is_stmt 1               @ ../../../ThirdParty/mbedTLS/library/asn1write.c:338:0
	.fnstart
	.cfi_startproc
@ %bb.0:
	@DEBUG_VALUE: mbedtls_asn1_write_bitstring:p <- $r0
	@DEBUG_VALUE: mbedtls_asn1_write_bitstring:p <- $r0
	@DEBUG_VALUE: mbedtls_asn1_write_bitstring:start <- $r1
	@DEBUG_VALUE: mbedtls_asn1_write_bitstring:start <- $r1
	@DEBUG_VALUE: mbedtls_asn1_write_bitstring:buf <- $r2
	@DEBUG_VALUE: mbedtls_asn1_write_bitstring:buf <- $r2
	@DEBUG_VALUE: mbedtls_asn1_write_bitstring:bits <- $r3
	@DEBUG_VALUE: mbedtls_asn1_write_bitstring:bits <- $r3
	.save	{r4, r5, r6, r7, lr}
	push	{r4, r5, r6, r7, lr}
	.cfi_def_cfa_offset 20
	.cfi_offset lr, -4
	.cfi_offset r7, -8
	.cfi_offset r6, -12
	.cfi_offset r5, -16
	.cfi_offset r4, -20
	.pad	#20
	sub	sp, #20
	.cfi_def_cfa_offset 40
.Ltmp225:
	@DEBUG_VALUE: mbedtls_asn1_write_bitstring:len <- 0
	@DEBUG_VALUE: mbedtls_asn1_write_bitstring:unused_bits <- undef
	.loc	3 346 9 prologue_end            @ ../../../ThirdParty/mbedTLS/library/asn1write.c:346:9
	ldr	r6, [r0]
	movs	r4, #0
	mvns	r4, r4
.Ltmp226:
	.loc	3 0 0 is_stmt 0                 @ ../../../ThirdParty/mbedTLS/library/asn1write.c:0:0
	mov	r7, r4
	subs	r7, #107
.Ltmp227:
	@DEBUG_VALUE: mbedtls_asn1_write_bitstring:byte_len <- undef
	.loc	3 346 20                        @ ../../../ThirdParty/mbedTLS/library/asn1write.c:346:20
	cmp	r6, r1
	blo	.LBB14_8
.Ltmp228:
@ %bb.1:
	@DEBUG_VALUE: mbedtls_asn1_write_bitstring:bits <- $r3
	@DEBUG_VALUE: mbedtls_asn1_write_bitstring:buf <- $r2
	@DEBUG_VALUE: mbedtls_asn1_write_bitstring:start <- $r1
	@DEBUG_VALUE: mbedtls_asn1_write_bitstring:p <- $r0
	@DEBUG_VALUE: mbedtls_asn1_write_bitstring:len <- 0
	.loc	3 0 20                          @ ../../../ThirdParty/mbedTLS/library/asn1write.c:0:20
	str	r2, [sp, #8]                    @ 4-byte Spill
.Ltmp229:
	@DEBUG_VALUE: mbedtls_asn1_write_bitstring:buf <- [DW_OP_plus_uconst 8] [$sp+0]
	str	r4, [sp, #16]                   @ 4-byte Spill
	adds	r4, r3, #7
.Ltmp230:
	@DEBUG_VALUE: mbedtls_asn1_write_bitstring:unused_bits <- undef
	lsrs	r2, r4, #3
.Ltmp231:
	@DEBUG_VALUE: mbedtls_asn1_write_bitstring:byte_len <- $r2
	str	r1, [sp, #12]                   @ 4-byte Spill
.Ltmp232:
	@DEBUG_VALUE: mbedtls_asn1_write_bitstring:start <- [DW_OP_plus_uconst 12] [$sp+0]
	.loc	3 346 36                        @ ../../../ThirdParty/mbedTLS/library/asn1write.c:346:36
	subs	r5, r6, r1
.Ltmp233:
	.loc	3 346 9                         @ ../../../ThirdParty/mbedTLS/library/asn1write.c:346:9
	cmp	r5, r2
	bls	.LBB14_8
.Ltmp234:
@ %bb.2:
	@DEBUG_VALUE: mbedtls_asn1_write_bitstring:start <- [DW_OP_plus_uconst 12] [$sp+0]
	@DEBUG_VALUE: mbedtls_asn1_write_bitstring:buf <- [DW_OP_plus_uconst 8] [$sp+0]
	@DEBUG_VALUE: mbedtls_asn1_write_bitstring:bits <- $r3
	@DEBUG_VALUE: mbedtls_asn1_write_bitstring:byte_len <- $r2
	@DEBUG_VALUE: mbedtls_asn1_write_bitstring:p <- $r0
	@DEBUG_VALUE: mbedtls_asn1_write_bitstring:len <- 0
	.loc	3 0 9                           @ ../../../ThirdParty/mbedTLS/library/asn1write.c:0:9
	movs	r5, #7
	bics	r4, r5
	subs	r7, r4, r3
.Ltmp235:
	@DEBUG_VALUE: mbedtls_asn1_write_bitstring:unused_bits <- $r7
	adds	r1, r2, #1
.Ltmp236:
	@DEBUG_VALUE: mbedtls_asn1_write_bitstring:len <- $r1
	.loc	3 352 9 is_stmt 1               @ ../../../ThirdParty/mbedTLS/library/asn1write.c:352:9
	str	r1, [sp, #4]                    @ 4-byte Spill
.Ltmp237:
	@DEBUG_VALUE: mbedtls_asn1_write_bitstring:len <- [DW_OP_plus_uconst 4] [$sp+0]
	@DEBUG_VALUE: mbedtls_asn1_write_bitstring:len <- [DW_OP_plus_uconst 4] [$sp+0]
	.loc	3 0 9 is_stmt 0                 @ ../../../ThirdParty/mbedTLS/library/asn1write.c:0:9
	mov	r5, r0
.Ltmp238:
	@DEBUG_VALUE: mbedtls_asn1_write_bitstring:p <- $r5
	ldr	r4, [sp, #16]                   @ 4-byte Reload
	.loc	3 352 9                         @ ../../../ThirdParty/mbedTLS/library/asn1write.c:352:9
	cbz	r2, .LBB14_4
.Ltmp239:
@ %bb.3:
	@DEBUG_VALUE: mbedtls_asn1_write_bitstring:start <- [DW_OP_plus_uconst 12] [$sp+0]
	@DEBUG_VALUE: mbedtls_asn1_write_bitstring:buf <- [DW_OP_plus_uconst 8] [$sp+0]
	@DEBUG_VALUE: mbedtls_asn1_write_bitstring:unused_bits <- $r7
	@DEBUG_VALUE: mbedtls_asn1_write_bitstring:p <- $r5
	@DEBUG_VALUE: mbedtls_asn1_write_bitstring:bits <- $r3
	@DEBUG_VALUE: mbedtls_asn1_write_bitstring:byte_len <- $r2
	@DEBUG_VALUE: mbedtls_asn1_write_bitstring:len <- [DW_OP_plus_uconst 4] [$sp+0]
	.loc	3 354 17 is_stmt 1              @ ../../../ThirdParty/mbedTLS/library/asn1write.c:354:17
	subs	r3, r2, #1
.Ltmp240:
	@DEBUG_VALUE: mbedtls_asn1_write_bitstring:bits <- [DW_OP_LLVM_entry_value 1] $r3
	@DEBUG_VALUE: mbedtls_asn1_write_bitstring:byte_len <- $r3
	.loc	3 0 17 is_stmt 0                @ ../../../ThirdParty/mbedTLS/library/asn1write.c:0:17
	ldr	r1, [sp, #8]                    @ 4-byte Reload
.Ltmp241:
	@DEBUG_VALUE: mbedtls_asn1_write_bitstring:buf <- $r1
	.loc	3 355 21 is_stmt 1              @ ../../../ThirdParty/mbedTLS/library/asn1write.c:355:21
	ldrb	r2, [r1, r3]
	.loc	3 355 10 is_stmt 0              @ ../../../ThirdParty/mbedTLS/library/asn1write.c:355:10
	ldr	r0, [sp, #16]                   @ 4-byte Reload
	adds	r4, r6, r0
	str	r4, [r5]
	.loc	3 355 63                        @ ../../../ThirdParty/mbedTLS/library/asn1write.c:355:63
	ldr	r4, [sp, #16]                   @ 4-byte Reload
	lsls	r4, r7
	.loc	3 355 21                        @ ../../../ThirdParty/mbedTLS/library/asn1write.c:355:21
	ands	r4, r2
	.loc	3 355 19                        @ ../../../ThirdParty/mbedTLS/library/asn1write.c:355:19
	ldr	r0, [sp, #16]                   @ 4-byte Reload
	strb	r4, [r6, r0]
	ldr	r4, [sp, #16]                   @ 4-byte Reload
	.loc	3 356 16 is_stmt 1              @ ../../../ThirdParty/mbedTLS/library/asn1write.c:356:16
	ldr	r0, [r5]
	subs	r0, r0, r3
	str	r0, [r5]
	.loc	3 357 9                         @ ../../../ThirdParty/mbedTLS/library/asn1write.c:357:9
	mov	r2, r3
	bl	__aeabi_memcpy
.Ltmp242:
	@DEBUG_VALUE: mbedtls_asn1_write_bitstring:buf <- [DW_OP_LLVM_entry_value 1] $r2
.LBB14_4:
	@DEBUG_VALUE: mbedtls_asn1_write_bitstring:start <- [DW_OP_plus_uconst 12] [$sp+0]
	@DEBUG_VALUE: mbedtls_asn1_write_bitstring:unused_bits <- $r7
	@DEBUG_VALUE: mbedtls_asn1_write_bitstring:p <- $r5
	@DEBUG_VALUE: mbedtls_asn1_write_bitstring:len <- [DW_OP_plus_uconst 4] [$sp+0]
	.loc	3 361 6                         @ ../../../ThirdParty/mbedTLS/library/asn1write.c:361:6
	ldr	r0, [r5]
	adds	r1, r0, r4
	str	r1, [r5]
	.loc	3 361 15 is_stmt 0              @ ../../../ThirdParty/mbedTLS/library/asn1write.c:361:15
	strb	r7, [r0, r4]
.Ltmp243:
	.loc	3 363 5 is_stmt 1               @ ../../../ThirdParty/mbedTLS/library/asn1write.c:363:5
	mov	r0, r5
	ldr	r4, [sp, #12]                   @ 4-byte Reload
.Ltmp244:
	@DEBUG_VALUE: mbedtls_asn1_write_bitstring:start <- $r4
	mov	r1, r4
	ldr	r6, [sp, #4]                    @ 4-byte Reload
	mov	r2, r6
	bl	mbedtls_asn1_write_len
	mov	r7, r0
.Ltmp245:
	@DEBUG_VALUE: mbedtls_asn1_write_bitstring:ret <- $r7
	.loc	3 363 5 is_stmt 0               @ ../../../ThirdParty/mbedTLS/library/asn1write.c:363:5
	cmp	r0, #0
	bmi	.LBB14_8
.Ltmp246:
@ %bb.5:
	@DEBUG_VALUE: mbedtls_asn1_write_bitstring:ret <- $r7
	@DEBUG_VALUE: mbedtls_asn1_write_bitstring:p <- $r5
	@DEBUG_VALUE: mbedtls_asn1_write_bitstring:start <- $r4
	@DEBUG_VALUE: mbedtls_asn1_write_bitstring:len <- [DW_OP_plus_uconst 4] [$sp+0]
	@DEBUG_VALUE: mbedtls_asn1_write_bitstring:len <- undef
	.loc	3 0 5                           @ ../../../ThirdParty/mbedTLS/library/asn1write.c:0:5
	movs	r2, #3
.Ltmp247:
	.loc	3 364 5 is_stmt 1               @ ../../../ThirdParty/mbedTLS/library/asn1write.c:364:5
	mov	r0, r5
	mov	r1, r4
	bl	mbedtls_asn1_write_tag
.Ltmp248:
	@DEBUG_VALUE: mbedtls_asn1_write_bitstring:ret <- $r0
	.loc	3 364 5 is_stmt 0               @ ../../../ThirdParty/mbedTLS/library/asn1write.c:364:5
	cmp	r0, #0
	bmi	.LBB14_7
.Ltmp249:
@ %bb.6:
	@DEBUG_VALUE: mbedtls_asn1_write_bitstring:p <- $r5
	@DEBUG_VALUE: mbedtls_asn1_write_bitstring:start <- $r4
	@DEBUG_VALUE: mbedtls_asn1_write_bitstring:ret <- $r0
	.loc	3 363 5 is_stmt 1               @ ../../../ThirdParty/mbedTLS/library/asn1write.c:363:5
	adds	r1, r7, r6
.Ltmp250:
	@DEBUG_VALUE: mbedtls_asn1_write_bitstring:len <- $r1
	.loc	3 364 5                         @ ../../../ThirdParty/mbedTLS/library/asn1write.c:364:5
	adds	r7, r1, r0
.Ltmp251:
	@DEBUG_VALUE: mbedtls_asn1_write_bitstring:len <- $r7
	.loc	3 0 5 is_stmt 0                 @ ../../../ThirdParty/mbedTLS/library/asn1write.c:0:5
	b	.LBB14_8
.Ltmp252:
.LBB14_7:
	@DEBUG_VALUE: mbedtls_asn1_write_bitstring:p <- $r5
	@DEBUG_VALUE: mbedtls_asn1_write_bitstring:start <- $r4
	@DEBUG_VALUE: mbedtls_asn1_write_bitstring:ret <- $r0
	mov	r7, r0
.Ltmp253:
	@DEBUG_VALUE: mbedtls_asn1_write_bitstring:ret <- $r7
.LBB14_8:
	.loc	3 367 1 is_stmt 1               @ ../../../ThirdParty/mbedTLS/library/asn1write.c:367:1
	mov	r0, r7
	add	sp, #20
	pop	{r4, r5, r6, r7, pc}
.Ltmp254:
.Lfunc_end14:
	.size	mbedtls_asn1_write_bitstring, .Lfunc_end14-mbedtls_asn1_write_bitstring
	.cfi_endproc
	.cantunwind
	.fnend
                                        @ -- End function
	.section	.text.mbedtls_asn1_write_octet_string,"ax",%progbits
	.hidden	mbedtls_asn1_write_octet_string @ -- Begin function mbedtls_asn1_write_octet_string
	.globl	mbedtls_asn1_write_octet_string
	.p2align	1
	.type	mbedtls_asn1_write_octet_string,%function
	.code	16                              @ @mbedtls_asn1_write_octet_string
	.thumb_func
mbedtls_asn1_write_octet_string:
.Lfunc_begin15:
	.loc	3 371 0                         @ ../../../ThirdParty/mbedTLS/library/asn1write.c:371:0
	.fnstart
	.cfi_startproc
@ %bb.0:
	@DEBUG_VALUE: mbedtls_asn1_write_octet_string:p <- $r0
	@DEBUG_VALUE: mbedtls_asn1_write_octet_string:start <- $r1
	@DEBUG_VALUE: mbedtls_asn1_write_octet_string:buf <- $r2
	@DEBUG_VALUE: mbedtls_asn1_write_octet_string:size <- $r3
	.save	{r4, r5, r6, r7, lr}
	push	{r4, r5, r6, r7, lr}
	.cfi_def_cfa_offset 20
	.cfi_offset lr, -4
	.cfi_offset r7, -8
	.cfi_offset r6, -12
	.cfi_offset r5, -16
	.cfi_offset r4, -20
	.pad	#4
	sub	sp, #4
	.cfi_def_cfa_offset 24
	mov	r5, r1
	mov	r7, r0
.Ltmp255:
	@DEBUG_VALUE: mbedtls_asn1_write_octet_string:len <- 0
	@DEBUG_VALUE: mbedtls_asn1_write_octet_string:size <- $r3
	@DEBUG_VALUE: mbedtls_asn1_write_octet_string:buf <- $r2
	@DEBUG_VALUE: mbedtls_asn1_write_octet_string:start <- $r5
	@DEBUG_VALUE: mbedtls_asn1_write_octet_string:p <- $r7
	@DEBUG_VALUE: mbedtls_asn1_write_octet_string:size <- $r3
	@DEBUG_VALUE: mbedtls_asn1_write_octet_string:buf <- $r2
	.loc	3 375 5 prologue_end            @ ../../../ThirdParty/mbedTLS/library/asn1write.c:375:5
	bl	mbedtls_asn1_write_raw_buffer
.Ltmp256:
	@DEBUG_VALUE: mbedtls_asn1_write_octet_string:size <- [DW_OP_LLVM_entry_value 1] $r3
	@DEBUG_VALUE: mbedtls_asn1_write_octet_string:buf <- [DW_OP_LLVM_entry_value 1] $r2
	mov	r4, r0
.Ltmp257:
	@DEBUG_VALUE: mbedtls_asn1_write_octet_string:ret <- $r4
	.loc	3 375 5 is_stmt 0               @ ../../../ThirdParty/mbedTLS/library/asn1write.c:375:5
	cmp	r0, #0
	bmi	.LBB15_4
.Ltmp258:
@ %bb.1:
	@DEBUG_VALUE: mbedtls_asn1_write_octet_string:p <- $r7
	@DEBUG_VALUE: mbedtls_asn1_write_octet_string:start <- $r5
	@DEBUG_VALUE: mbedtls_asn1_write_octet_string:ret <- $r4
	@DEBUG_VALUE: mbedtls_asn1_write_octet_string:size <- [DW_OP_LLVM_entry_value 1] $r3
	@DEBUG_VALUE: mbedtls_asn1_write_octet_string:buf <- [DW_OP_LLVM_entry_value 1] $r2
	@DEBUG_VALUE: mbedtls_asn1_write_octet_string:len <- 0
	@DEBUG_VALUE: mbedtls_asn1_write_octet_string:len <- $r4
	.loc	3 377 5 is_stmt 1               @ ../../../ThirdParty/mbedTLS/library/asn1write.c:377:5
	mov	r0, r7
	mov	r1, r5
	mov	r2, r4
	bl	mbedtls_asn1_write_len
	mov	r6, r0
.Ltmp259:
	@DEBUG_VALUE: mbedtls_asn1_write_octet_string:ret <- $r6
	.loc	3 377 5 is_stmt 0               @ ../../../ThirdParty/mbedTLS/library/asn1write.c:377:5
	cmp	r0, #0
	bmi	.LBB15_6
.Ltmp260:
@ %bb.2:
	@DEBUG_VALUE: mbedtls_asn1_write_octet_string:p <- $r7
	@DEBUG_VALUE: mbedtls_asn1_write_octet_string:ret <- $r6
	@DEBUG_VALUE: mbedtls_asn1_write_octet_string:start <- $r5
	@DEBUG_VALUE: mbedtls_asn1_write_octet_string:len <- $r4
	@DEBUG_VALUE: mbedtls_asn1_write_octet_string:size <- [DW_OP_LLVM_entry_value 1] $r3
	@DEBUG_VALUE: mbedtls_asn1_write_octet_string:buf <- [DW_OP_LLVM_entry_value 1] $r2
	@DEBUG_VALUE: mbedtls_asn1_write_octet_string:len <- undef
	.loc	3 0 5                           @ ../../../ThirdParty/mbedTLS/library/asn1write.c:0:5
	movs	r2, #4
.Ltmp261:
	.loc	3 378 5 is_stmt 1               @ ../../../ThirdParty/mbedTLS/library/asn1write.c:378:5
	mov	r0, r7
	mov	r1, r5
	bl	mbedtls_asn1_write_tag
.Ltmp262:
	@DEBUG_VALUE: mbedtls_asn1_write_octet_string:ret <- $r0
	.loc	3 378 5 is_stmt 0               @ ../../../ThirdParty/mbedTLS/library/asn1write.c:378:5
	cmp	r0, #0
	bmi	.LBB15_5
.Ltmp263:
@ %bb.3:
	@DEBUG_VALUE: mbedtls_asn1_write_octet_string:p <- $r7
	@DEBUG_VALUE: mbedtls_asn1_write_octet_string:start <- $r5
	@DEBUG_VALUE: mbedtls_asn1_write_octet_string:ret <- $r0
	@DEBUG_VALUE: mbedtls_asn1_write_octet_string:size <- [DW_OP_LLVM_entry_value 1] $r3
	@DEBUG_VALUE: mbedtls_asn1_write_octet_string:buf <- [DW_OP_LLVM_entry_value 1] $r2
	.loc	3 377 5 is_stmt 1               @ ../../../ThirdParty/mbedTLS/library/asn1write.c:377:5
	adds	r1, r6, r4
.Ltmp264:
	@DEBUG_VALUE: mbedtls_asn1_write_octet_string:len <- $r1
	.loc	3 378 5                         @ ../../../ThirdParty/mbedTLS/library/asn1write.c:378:5
	adds	r6, r1, r0
.Ltmp265:
	@DEBUG_VALUE: mbedtls_asn1_write_octet_string:len <- $r6
	.loc	3 0 5 is_stmt 0                 @ ../../../ThirdParty/mbedTLS/library/asn1write.c:0:5
	b	.LBB15_6
.Ltmp266:
.LBB15_4:
	@DEBUG_VALUE: mbedtls_asn1_write_octet_string:p <- $r7
	@DEBUG_VALUE: mbedtls_asn1_write_octet_string:start <- $r5
	@DEBUG_VALUE: mbedtls_asn1_write_octet_string:ret <- $r4
	@DEBUG_VALUE: mbedtls_asn1_write_octet_string:size <- [DW_OP_LLVM_entry_value 1] $r3
	@DEBUG_VALUE: mbedtls_asn1_write_octet_string:buf <- [DW_OP_LLVM_entry_value 1] $r2
	@DEBUG_VALUE: mbedtls_asn1_write_octet_string:len <- 0
	mov	r6, r4
.Ltmp267:
	@DEBUG_VALUE: mbedtls_asn1_write_octet_string:ret <- $r6
	b	.LBB15_6
.Ltmp268:
.LBB15_5:
	@DEBUG_VALUE: mbedtls_asn1_write_octet_string:p <- $r7
	@DEBUG_VALUE: mbedtls_asn1_write_octet_string:start <- $r5
	@DEBUG_VALUE: mbedtls_asn1_write_octet_string:ret <- $r0
	@DEBUG_VALUE: mbedtls_asn1_write_octet_string:size <- [DW_OP_LLVM_entry_value 1] $r3
	@DEBUG_VALUE: mbedtls_asn1_write_octet_string:buf <- [DW_OP_LLVM_entry_value 1] $r2
	mov	r6, r0
.Ltmp269:
	@DEBUG_VALUE: mbedtls_asn1_write_octet_string:ret <- $r6
.LBB15_6:
	@DEBUG_VALUE: mbedtls_asn1_write_octet_string:p <- $r7
	@DEBUG_VALUE: mbedtls_asn1_write_octet_string:start <- $r5
	@DEBUG_VALUE: mbedtls_asn1_write_octet_string:size <- [DW_OP_LLVM_entry_value 1] $r3
	@DEBUG_VALUE: mbedtls_asn1_write_octet_string:buf <- [DW_OP_LLVM_entry_value 1] $r2
	.loc	3 381 1 is_stmt 1               @ ../../../ThirdParty/mbedTLS/library/asn1write.c:381:1
	mov	r0, r6
	add	sp, #4
	pop	{r4, r5, r6, r7, pc}
.Ltmp270:
.Lfunc_end15:
	.size	mbedtls_asn1_write_octet_string, .Lfunc_end15-mbedtls_asn1_write_octet_string
	.cfi_endproc
	.cantunwind
	.fnend
                                        @ -- End function
	.section	.text.mbedtls_asn1_store_named_data,"ax",%progbits
	.hidden	mbedtls_asn1_store_named_data   @ -- Begin function mbedtls_asn1_store_named_data
	.globl	mbedtls_asn1_store_named_data
	.p2align	1
	.type	mbedtls_asn1_store_named_data,%function
	.code	16                              @ @mbedtls_asn1_store_named_data
	.thumb_func
mbedtls_asn1_store_named_data:
.Lfunc_begin16:
	.loc	3 409 0                         @ ../../../ThirdParty/mbedTLS/library/asn1write.c:409:0
	.fnstart
	.cfi_startproc
@ %bb.0:
	@DEBUG_VALUE: mbedtls_asn1_store_named_data:head <- $r0
	@DEBUG_VALUE: mbedtls_asn1_store_named_data:oid <- $r1
	@DEBUG_VALUE: mbedtls_asn1_store_named_data:oid_len <- $r2
	@DEBUG_VALUE: mbedtls_asn1_store_named_data:val <- $r3
	.save	{r4, r5, r6, r7, lr}
	push	{r4, r5, r6, r7, lr}
	.cfi_def_cfa_offset 20
	.cfi_offset lr, -4
	.cfi_offset r7, -8
	.cfi_offset r6, -12
	.cfi_offset r5, -16
	.cfi_offset r4, -20
	.pad	#20
	sub	sp, #20
	.cfi_def_cfa_offset 40
	str	r3, [sp, #16]                   @ 4-byte Spill
	mov	r7, r2
	mov	r6, r1
	mov	r4, r0
.Ltmp271:
	@DEBUG_VALUE: mbedtls_asn1_store_named_data:val_len <- [DW_OP_plus_uconst 40] [$sp+0]
	@DEBUG_VALUE: mbedtls_asn1_store_named_data:val <- [DW_OP_plus_uconst 16] [$sp+0]
	@DEBUG_VALUE: mbedtls_asn1_store_named_data:oid_len <- $r7
	@DEBUG_VALUE: mbedtls_asn1_store_named_data:oid <- $r6
	@DEBUG_VALUE: mbedtls_asn1_store_named_data:head <- $r4
	.loc	3 412 39 prologue_end           @ ../../../ThirdParty/mbedTLS/library/asn1write.c:412:39
	ldr	r0, [r0]
	.loc	3 412 17 is_stmt 0              @ ../../../ThirdParty/mbedTLS/library/asn1write.c:412:17
	bl	asn1_find_named_data
.Ltmp272:
	@DEBUG_VALUE: mbedtls_asn1_store_named_data:cur <- $r0
	.loc	3 0 17                          @ ../../../ThirdParty/mbedTLS/library/asn1write.c:0:17
	ldr	r2, [sp, #40]
.Ltmp273:
	.loc	3 412 9                         @ ../../../ThirdParty/mbedTLS/library/asn1write.c:412:9
	cbz	r0, .LBB16_5
.Ltmp274:
@ %bb.1:
	@DEBUG_VALUE: mbedtls_asn1_store_named_data:oid_len <- $r7
	@DEBUG_VALUE: mbedtls_asn1_store_named_data:oid <- $r6
	@DEBUG_VALUE: mbedtls_asn1_store_named_data:head <- $r4
	@DEBUG_VALUE: mbedtls_asn1_store_named_data:cur <- $r0
	@DEBUG_VALUE: mbedtls_asn1_store_named_data:val <- [DW_OP_plus_uconst 16] [$sp+0]
	@DEBUG_VALUE: mbedtls_asn1_store_named_data:val_len <- [DW_OP_plus_uconst 40] [$sp+0]
	.loc	3 0 0                           @ ../../../ThirdParty/mbedTLS/library/asn1write.c:0:0
	mov	r5, r0
.Ltmp275:
	@DEBUG_VALUE: mbedtls_asn1_store_named_data:cur <- $r5
	.loc	3 443 23 is_stmt 1              @ ../../../ThirdParty/mbedTLS/library/asn1write.c:443:23
	ldr	r0, [r0, #16]
.Ltmp276:
	.loc	3 443 14 is_stmt 0              @ ../../../ThirdParty/mbedTLS/library/asn1write.c:443:14
	cmp	r0, r2
	bhs	.LBB16_9
.Ltmp277:
@ %bb.2:
	@DEBUG_VALUE: mbedtls_asn1_store_named_data:oid_len <- $r7
	@DEBUG_VALUE: mbedtls_asn1_store_named_data:oid <- $r6
	@DEBUG_VALUE: mbedtls_asn1_store_named_data:cur <- $r5
	@DEBUG_VALUE: mbedtls_asn1_store_named_data:head <- $r4
	@DEBUG_VALUE: mbedtls_asn1_store_named_data:val <- [DW_OP_plus_uconst 16] [$sp+0]
	@DEBUG_VALUE: mbedtls_asn1_store_named_data:val_len <- [DW_OP_plus_uconst 40] [$sp+0]
	.loc	3 0 14                          @ ../../../ThirdParty/mbedTLS/library/asn1write.c:0:14
	movs	r0, #1
.Ltmp278:
	.loc	3 450 19 is_stmt 1              @ ../../../ThirdParty/mbedTLS/library/asn1write.c:450:19
	mov	r1, r2
	mov	r6, r2
.Ltmp279:
	bl	calloc
.Ltmp280:
	@DEBUG_VALUE: p <- $r0
	.loc	3 451 13                        @ ../../../ThirdParty/mbedTLS/library/asn1write.c:451:13
	cbz	r0, .LBB16_12
.Ltmp281:
@ %bb.3:
	@DEBUG_VALUE: mbedtls_asn1_store_named_data:oid_len <- $r7
	@DEBUG_VALUE: mbedtls_asn1_store_named_data:cur <- $r5
	@DEBUG_VALUE: mbedtls_asn1_store_named_data:head <- $r4
	@DEBUG_VALUE: p <- $r0
	@DEBUG_VALUE: mbedtls_asn1_store_named_data:val <- [DW_OP_plus_uconst 16] [$sp+0]
	@DEBUG_VALUE: mbedtls_asn1_store_named_data:val_len <- [DW_OP_plus_uconst 40] [$sp+0]
	.loc	3 0 0 is_stmt 0                 @ ../../../ThirdParty/mbedTLS/library/asn1write.c:0:0
	mov	r4, r0
.Ltmp282:
	@DEBUG_VALUE: p <- $r4
	.loc	3 454 32 is_stmt 1              @ ../../../ThirdParty/mbedTLS/library/asn1write.c:454:32
	ldr	r0, [r5, #20]
	.loc	3 454 9 is_stmt 0               @ ../../../ThirdParty/mbedTLS/library/asn1write.c:454:9
	bl	free
	.loc	3 456 22 is_stmt 1              @ ../../../ThirdParty/mbedTLS/library/asn1write.c:456:22
	str	r6, [r5, #16]
	.loc	3 455 20                        @ ../../../ThirdParty/mbedTLS/library/asn1write.c:455:20
	str	r4, [r5, #20]
	ldr	r1, [sp, #16]                   @ 4-byte Reload
	mov	r2, r6
.Ltmp283:
	@DEBUG_VALUE: mbedtls_asn1_store_named_data:cur <- $r5
	.loc	3 459 9                         @ ../../../ThirdParty/mbedTLS/library/asn1write.c:459:9
	cbnz	r1, .LBB16_10
.Ltmp284:
.LBB16_4:
	@DEBUG_VALUE: mbedtls_asn1_store_named_data:oid_len <- $r7
	@DEBUG_VALUE: mbedtls_asn1_store_named_data:cur <- $r5
	@DEBUG_VALUE: mbedtls_asn1_store_named_data:val <- [DW_OP_plus_uconst 16] [$sp+0]
	@DEBUG_VALUE: mbedtls_asn1_store_named_data:val_len <- [DW_OP_plus_uconst 40] [$sp+0]
	.loc	3 0 0 is_stmt 0                 @ ../../../ThirdParty/mbedTLS/library/asn1write.c:0:0
	mov	r0, r5
	.loc	3 463 1 is_stmt 1               @ ../../../ThirdParty/mbedTLS/library/asn1write.c:463:1
	add	sp, #20
.Ltmp285:
	pop	{r4, r5, r6, r7, pc}
.Ltmp286:
.LBB16_5:
	@DEBUG_VALUE: mbedtls_asn1_store_named_data:oid_len <- $r7
	@DEBUG_VALUE: mbedtls_asn1_store_named_data:oid <- $r6
	@DEBUG_VALUE: mbedtls_asn1_store_named_data:head <- $r4
	@DEBUG_VALUE: mbedtls_asn1_store_named_data:cur <- $r0
	@DEBUG_VALUE: mbedtls_asn1_store_named_data:val <- [DW_OP_plus_uconst 16] [$sp+0]
	@DEBUG_VALUE: mbedtls_asn1_store_named_data:val_len <- [DW_OP_plus_uconst 40] [$sp+0]
	.loc	3 0 1 is_stmt 0                 @ ../../../ThirdParty/mbedTLS/library/asn1write.c:0:1
	str	r2, [sp, #12]                   @ 4-byte Spill
	movs	r0, #1
.Ltmp287:
	movs	r1, #32
.Ltmp288:
	.loc	3 416 41 is_stmt 1              @ ../../../ThirdParty/mbedTLS/library/asn1write.c:416:41
	bl	calloc
	mov	r5, r0
.Ltmp289:
	@DEBUG_VALUE: mbedtls_asn1_store_named_data:cur <- $r5
	.loc	3 0 41 is_stmt 0                @ ../../../ThirdParty/mbedTLS/library/asn1write.c:0:41
	movs	r0, #0
	.loc	3 418 13 is_stmt 1              @ ../../../ThirdParty/mbedTLS/library/asn1write.c:418:13
	cbz	r5, .LBB16_11
.Ltmp290:
@ %bb.6:
	@DEBUG_VALUE: mbedtls_asn1_store_named_data:oid_len <- $r7
	@DEBUG_VALUE: mbedtls_asn1_store_named_data:oid <- $r6
	@DEBUG_VALUE: mbedtls_asn1_store_named_data:cur <- $r5
	@DEBUG_VALUE: mbedtls_asn1_store_named_data:head <- $r4
	@DEBUG_VALUE: mbedtls_asn1_store_named_data:val <- [DW_OP_plus_uconst 16] [$sp+0]
	@DEBUG_VALUE: mbedtls_asn1_store_named_data:val_len <- [DW_OP_plus_uconst 40] [$sp+0]
	.loc	3 0 13 is_stmt 0                @ ../../../ThirdParty/mbedTLS/library/asn1write.c:0:13
	str	r0, [sp, #8]                    @ 4-byte Spill
	.loc	3 421 22 is_stmt 1              @ ../../../ThirdParty/mbedTLS/library/asn1write.c:421:22
	str	r7, [r5, #4]
	movs	r0, #1
	.loc	3 422 22                        @ ../../../ThirdParty/mbedTLS/library/asn1write.c:422:22
	mov	r1, r7
	bl	calloc
	.loc	3 422 20 is_stmt 0              @ ../../../ThirdParty/mbedTLS/library/asn1write.c:422:20
	str	r0, [r5, #8]
	.loc	3 423 13 is_stmt 1              @ ../../../ThirdParty/mbedTLS/library/asn1write.c:423:13
	cbz	r0, .LBB16_14
.Ltmp291:
@ %bb.7:
	@DEBUG_VALUE: mbedtls_asn1_store_named_data:oid_len <- $r7
	@DEBUG_VALUE: mbedtls_asn1_store_named_data:oid <- $r6
	@DEBUG_VALUE: mbedtls_asn1_store_named_data:cur <- $r5
	@DEBUG_VALUE: mbedtls_asn1_store_named_data:head <- $r4
	@DEBUG_VALUE: mbedtls_asn1_store_named_data:val <- [DW_OP_plus_uconst 16] [$sp+0]
	@DEBUG_VALUE: mbedtls_asn1_store_named_data:val_len <- [DW_OP_plus_uconst 40] [$sp+0]
	.loc	3 0 13 is_stmt 0                @ ../../../ThirdParty/mbedTLS/library/asn1write.c:0:13
	str	r0, [sp, #4]                    @ 4-byte Spill
	.loc	3 429 9 is_stmt 1               @ ../../../ThirdParty/mbedTLS/library/asn1write.c:429:9
	mov	r1, r6
	mov	r2, r7
	bl	__aeabi_memcpy
	ldr	r1, [sp, #12]                   @ 4-byte Reload
	.loc	3 431 22                        @ ../../../ThirdParty/mbedTLS/library/asn1write.c:431:22
	str	r1, [r5, #16]
	movs	r0, #1
	.loc	3 432 22                        @ ../../../ThirdParty/mbedTLS/library/asn1write.c:432:22
	bl	calloc
	.loc	3 432 20 is_stmt 0              @ ../../../ThirdParty/mbedTLS/library/asn1write.c:432:20
	str	r0, [r5, #20]
	.loc	3 433 13 is_stmt 1              @ ../../../ThirdParty/mbedTLS/library/asn1write.c:433:13
	cbz	r0, .LBB16_13
.Ltmp292:
@ %bb.8:
	@DEBUG_VALUE: mbedtls_asn1_store_named_data:oid_len <- $r7
	@DEBUG_VALUE: mbedtls_asn1_store_named_data:oid <- $r6
	@DEBUG_VALUE: mbedtls_asn1_store_named_data:cur <- $r5
	@DEBUG_VALUE: mbedtls_asn1_store_named_data:head <- $r4
	@DEBUG_VALUE: mbedtls_asn1_store_named_data:val <- [DW_OP_plus_uconst 16] [$sp+0]
	@DEBUG_VALUE: mbedtls_asn1_store_named_data:val_len <- [DW_OP_plus_uconst 40] [$sp+0]
	.loc	3 440 21                        @ ../../../ThirdParty/mbedTLS/library/asn1write.c:440:21
	ldr	r0, [r4]
	.loc	3 440 19 is_stmt 0              @ ../../../ThirdParty/mbedTLS/library/asn1write.c:440:19
	str	r0, [r5, #24]
	.loc	3 441 15 is_stmt 1              @ ../../../ThirdParty/mbedTLS/library/asn1write.c:441:15
	str	r5, [r4]
	ldr	r1, [sp, #16]                   @ 4-byte Reload
	ldr	r2, [sp, #12]                   @ 4-byte Reload
.Ltmp293:
	@DEBUG_VALUE: mbedtls_asn1_store_named_data:cur <- $r5
	.loc	3 459 9                         @ ../../../ThirdParty/mbedTLS/library/asn1write.c:459:9
	cbnz	r1, .LBB16_10
	b	.LBB16_4
.Ltmp294:
.LBB16_9:
	@DEBUG_VALUE: mbedtls_asn1_store_named_data:oid_len <- $r7
	@DEBUG_VALUE: mbedtls_asn1_store_named_data:oid <- $r6
	@DEBUG_VALUE: mbedtls_asn1_store_named_data:cur <- $r5
	@DEBUG_VALUE: mbedtls_asn1_store_named_data:head <- $r4
	@DEBUG_VALUE: mbedtls_asn1_store_named_data:val <- [DW_OP_plus_uconst 16] [$sp+0]
	@DEBUG_VALUE: mbedtls_asn1_store_named_data:val_len <- [DW_OP_plus_uconst 40] [$sp+0]
	.loc	3 0 9 is_stmt 0                 @ ../../../ThirdParty/mbedTLS/library/asn1write.c:0:9
	ldr	r1, [sp, #16]                   @ 4-byte Reload
	@DEBUG_VALUE: mbedtls_asn1_store_named_data:cur <- $r5
	.loc	3 459 9                         @ ../../../ThirdParty/mbedTLS/library/asn1write.c:459:9
	cmp	r1, #0
	beq	.LBB16_4
.Ltmp295:
.LBB16_10:
	@DEBUG_VALUE: mbedtls_asn1_store_named_data:oid_len <- $r7
	@DEBUG_VALUE: mbedtls_asn1_store_named_data:cur <- $r5
	@DEBUG_VALUE: mbedtls_asn1_store_named_data:val <- [DW_OP_plus_uconst 16] [$sp+0]
	@DEBUG_VALUE: mbedtls_asn1_store_named_data:val_len <- [DW_OP_plus_uconst 40] [$sp+0]
	.loc	3 460 26 is_stmt 1              @ ../../../ThirdParty/mbedTLS/library/asn1write.c:460:26
	ldr	r0, [r5, #20]
	.loc	3 460 9 is_stmt 0               @ ../../../ThirdParty/mbedTLS/library/asn1write.c:460:9
	bl	__aeabi_memcpy
.Ltmp296:
	.loc	3 0 0                           @ ../../../ThirdParty/mbedTLS/library/asn1write.c:0:0
	mov	r0, r5
.Ltmp297:
.LBB16_11:
	@DEBUG_VALUE: mbedtls_asn1_store_named_data:oid_len <- $r7
	@DEBUG_VALUE: mbedtls_asn1_store_named_data:cur <- $r5
	@DEBUG_VALUE: mbedtls_asn1_store_named_data:val <- [DW_OP_plus_uconst 16] [$sp+0]
	@DEBUG_VALUE: mbedtls_asn1_store_named_data:val_len <- [DW_OP_plus_uconst 40] [$sp+0]
	.loc	3 463 1 is_stmt 1               @ ../../../ThirdParty/mbedTLS/library/asn1write.c:463:1
	add	sp, #20
.Ltmp298:
	pop	{r4, r5, r6, r7, pc}
.Ltmp299:
.LBB16_12:
	@DEBUG_VALUE: mbedtls_asn1_store_named_data:oid_len <- $r7
	@DEBUG_VALUE: mbedtls_asn1_store_named_data:cur <- $r5
	@DEBUG_VALUE: mbedtls_asn1_store_named_data:head <- $r4
	@DEBUG_VALUE: mbedtls_asn1_store_named_data:val <- [DW_OP_plus_uconst 16] [$sp+0]
	@DEBUG_VALUE: mbedtls_asn1_store_named_data:val_len <- [DW_OP_plus_uconst 40] [$sp+0]
	.loc	3 0 1 is_stmt 0                 @ ../../../ThirdParty/mbedTLS/library/asn1write.c:0:1
	movs	r0, #0
	.loc	3 463 1                         @ ../../../ThirdParty/mbedTLS/library/asn1write.c:463:1
	add	sp, #20
.Ltmp300:
	pop	{r4, r5, r6, r7, pc}
.Ltmp301:
.LBB16_13:
	@DEBUG_VALUE: mbedtls_asn1_store_named_data:oid_len <- $r7
	@DEBUG_VALUE: mbedtls_asn1_store_named_data:oid <- $r6
	@DEBUG_VALUE: mbedtls_asn1_store_named_data:cur <- $r5
	@DEBUG_VALUE: mbedtls_asn1_store_named_data:head <- $r4
	@DEBUG_VALUE: mbedtls_asn1_store_named_data:val <- [DW_OP_plus_uconst 16] [$sp+0]
	@DEBUG_VALUE: mbedtls_asn1_store_named_data:val_len <- [DW_OP_plus_uconst 40] [$sp+0]
	.loc	3 435 13 is_stmt 1              @ ../../../ThirdParty/mbedTLS/library/asn1write.c:435:13
	ldr	r0, [sp, #4]                    @ 4-byte Reload
	bl	free
.Ltmp302:
.LBB16_14:
	@DEBUG_VALUE: mbedtls_asn1_store_named_data:oid_len <- $r7
	@DEBUG_VALUE: mbedtls_asn1_store_named_data:oid <- $r6
	@DEBUG_VALUE: mbedtls_asn1_store_named_data:cur <- $r5
	@DEBUG_VALUE: mbedtls_asn1_store_named_data:head <- $r4
	@DEBUG_VALUE: mbedtls_asn1_store_named_data:val <- [DW_OP_plus_uconst 16] [$sp+0]
	@DEBUG_VALUE: mbedtls_asn1_store_named_data:val_len <- [DW_OP_plus_uconst 40] [$sp+0]
	.loc	3 0 0 is_stmt 0                 @ ../../../ThirdParty/mbedTLS/library/asn1write.c:0:0
	mov	r0, r5
	bl	free
	ldr	r0, [sp, #8]                    @ 4-byte Reload
.Ltmp303:
	.loc	3 463 1 is_stmt 1               @ ../../../ThirdParty/mbedTLS/library/asn1write.c:463:1
	add	sp, #20
.Ltmp304:
	pop	{r4, r5, r6, r7, pc}
.Ltmp305:
.Lfunc_end16:
	.size	mbedtls_asn1_store_named_data, .Lfunc_end16-mbedtls_asn1_store_named_data
	.cfi_endproc
	.cantunwind
	.fnend
                                        @ -- End function
	.section	.text.asn1_find_named_data,"ax",%progbits
	.p2align	1                               @ -- Begin function asn1_find_named_data
	.type	asn1_find_named_data,%function
	.code	16                              @ @asn1_find_named_data
	.thumb_func
asn1_find_named_data:
.Lfunc_begin17:
	.loc	3 389 0                         @ ../../../ThirdParty/mbedTLS/library/asn1write.c:389:0
	.fnstart
	.cfi_startproc
@ %bb.0:
	@DEBUG_VALUE: asn1_find_named_data:list <- $r0
	@DEBUG_VALUE: asn1_find_named_data:oid <- $r1
	@DEBUG_VALUE: asn1_find_named_data:len <- $r2
	.save	{r4, r5, r6, lr}
	push	{r4, r5, r6, lr}
	.cfi_def_cfa_offset 16
	.cfi_offset lr, -4
	.cfi_offset r6, -8
	.cfi_offset r5, -12
	.cfi_offset r4, -16
	mov	r4, r0
	@DEBUG_VALUE: asn1_find_named_data:len <- $r2
	@DEBUG_VALUE: asn1_find_named_data:oid <- $r1
.Ltmp306:
	@DEBUG_VALUE: asn1_find_named_data:list <- $r4
	.loc	3 390 5 prologue_end            @ ../../../ThirdParty/mbedTLS/library/asn1write.c:390:5
	cbz	r0, .LBB17_5
.Ltmp307:
@ %bb.1:
	@DEBUG_VALUE: asn1_find_named_data:list <- $r4
	@DEBUG_VALUE: asn1_find_named_data:len <- $r2
	@DEBUG_VALUE: asn1_find_named_data:oid <- $r1
	.loc	3 0 5 is_stmt 0                 @ ../../../ThirdParty/mbedTLS/library/asn1write.c:0:5
	mov	r5, r2
.Ltmp308:
	@DEBUG_VALUE: asn1_find_named_data:len <- $r5
	mov	r6, r1
.Ltmp309:
	@DEBUG_VALUE: asn1_find_named_data:oid <- $r6
	b	.LBB17_3
.Ltmp310:
.LBB17_2:                               @   in Loop: Header=BB17_3 Depth=1
	@DEBUG_VALUE: asn1_find_named_data:oid <- $r6
	@DEBUG_VALUE: asn1_find_named_data:len <- $r5
	@DEBUG_VALUE: asn1_find_named_data:list <- $r4
	.loc	3 398 22 is_stmt 1              @ ../../../ThirdParty/mbedTLS/library/asn1write.c:398:22
	ldr	r4, [r4, #24]
.Ltmp311:
	@DEBUG_VALUE: asn1_find_named_data:list <- $r4
	.loc	3 390 5                         @ ../../../ThirdParty/mbedTLS/library/asn1write.c:390:5
	cbz	r4, .LBB17_5
.Ltmp312:
.LBB17_3:                               @ =>This Inner Loop Header: Depth=1
	@DEBUG_VALUE: asn1_find_named_data:oid <- $r6
	@DEBUG_VALUE: asn1_find_named_data:len <- $r5
	@DEBUG_VALUE: asn1_find_named_data:list <- $r4
	@DEBUG_VALUE: asn1_find_named_data:list <- $r4
	.loc	3 392 23                        @ ../../../ThirdParty/mbedTLS/library/asn1write.c:392:23
	ldr	r0, [r4, #4]
	.loc	3 392 34 is_stmt 0              @ ../../../ThirdParty/mbedTLS/library/asn1write.c:392:34
	cmp	r0, r5
	bne	.LBB17_2
.Ltmp313:
@ %bb.4:                                @   in Loop: Header=BB17_3 Depth=1
	@DEBUG_VALUE: asn1_find_named_data:oid <- $r6
	@DEBUG_VALUE: asn1_find_named_data:len <- $r5
	@DEBUG_VALUE: asn1_find_named_data:list <- $r4
	.loc	3 393 35 is_stmt 1              @ ../../../ThirdParty/mbedTLS/library/asn1write.c:393:35
	ldr	r0, [r4, #8]
	.loc	3 393 17 is_stmt 0              @ ../../../ThirdParty/mbedTLS/library/asn1write.c:393:17
	mov	r1, r6
	mov	r2, r5
	bl	memcmp
.Ltmp314:
	.loc	3 392 13 is_stmt 1              @ ../../../ThirdParty/mbedTLS/library/asn1write.c:392:13
	cmp	r0, #0
	bne	.LBB17_2
.Ltmp315:
.LBB17_5:
	@DEBUG_VALUE: asn1_find_named_data:list <- $r4
	@DEBUG_VALUE: asn1_find_named_data:list <- $r4
	.loc	3 401 5                         @ ../../../ThirdParty/mbedTLS/library/asn1write.c:401:5
	mov	r0, r4
	pop	{r4, r5, r6, pc}
.Ltmp316:
.Lfunc_end17:
	.size	asn1_find_named_data, .Lfunc_end17-asn1_find_named_data
	.cfi_endproc
	.cantunwind
	.fnend
                                        @ -- End function
	.file	4 "C:\\Users\\shw26\\OneDrive\\Desktop\\2021\\2021-1\\\354\272\241\354\212\244\355\206\244\353\224\224\354\236\220\354\235\2702\\Nuvoton\\M2351_BSP_v3.00.004\\M2351Series_BSP_CMSIS_V3.00.004\\MyProject\\PulseMonitoring\\Secure" "../../../ThirdParty/mbedTLS/include/mbedtls/bignum.h"
	.file	5 "C:\\" "Keil_v5\\ARM\\ARMCLANG\\Bin\\..\\include\\stdint.h"
	.section	".note.GNU-stack","",%progbits
	.eabi_attribute	30, 1	@ Tag_ABI_optimization_goals
	.ARM_attribute	16, 1	@ Tag_AV_eba