	.text
	.syntax unified
	.eabi_attribute	67, "2.09"	@ Tag_conformance
	.cpu	cortex-m23
	.eabi_attribute	6, 16	@ Tag_CPU_arch
	.eabi_attribute	7, 77	@ Tag_CPU_arch_profile
	.eabi_attribute	8, 0	@ Tag_ARM_ISA_use
	.eabi_attribute	9, 3	@ Tag_THUMB_ISA_use
	.eabi_attribute	34, 0	@ Tag_CPU_unaligned_access
	.eabi_attribute	17, 1	@ Tag_ABI_PCS_GOT_use
	.eabi_attribute	20, 2	@ Tag_ABI_FP_denormal
	.eabi_attribute	21, 0	@ Tag_ABI_FP_exceptions
	.eabi_attribute	23, 1	@ Tag_ABI_FP_number_model
	.eabi_attribute	24, 1	@ Tag_ABI_align_needed
	.eabi_attribute	25, 1	@ Tag_ABI_align_preserved
	.eabi_attribute	38, 1	@ Tag_ABI_FP_16bit_format
	.eabi_attribute	18, 2	@ Tag_ABI_PCS_wchar_t
	.eabi_attribute	26, 1	@ Tag_ABI_enum_size
	.eabi_attribute	14, 0	@ Tag_ABI_PCS_R9_use
	.file	"base64.c"
	.file	1 "C:\\Users\\shw26\\OneDrive\\Desktop\\2021\\2021-1\\\354\272\241\354\212\244\355\206\244\353\224\224\354\236\220\354\235\2702\\Nuvoton\\M2351_BSP_v3.00.004\\M2351Series_BSP_CMSIS_V3.00.004\\MyProject\\PulseMonitoring\\Secure" "../../../ThirdParty/mbedTLS/library/base64.c"
	.file	2 "C:\\" "Keil_v5\\ARM\\ARMCLANG\\Bin\\..\\include\\stddef.h"
	.section	.text.mbedtls_base64_encode,"ax",%progbits
	.hidden	mbedtls_base64_encode           @ -- Begin function mbedtls_base64_encode
	.globl	mbedtls_base64_encode
	.p2align	2
	.type	mbedtls_base64_encode,%function
	.code	16                              @ @mbedtls_base64_encode
	.thumb_func
mbedtls_base64_encode:
.Lfunc_begin0:
	.loc	1 79 0                          @ ../../../ThirdParty/mbedTLS/library/base64.c:79:0
	.fnstart
	.cfi_sections .debug_frame
	.cfi_startproc
@ %bb.0:
	@DEBUG_VALUE: mbedtls_base64_encode:dst <- $r0
	@DEBUG_VALUE: mbedtls_base64_encode:dlen <- $r1
	@DEBUG_VALUE: mbedtls_base64_encode:olen <- $r2
	@DEBUG_VALUE: mbedtls_base64_encode:src <- $r3
	.save	{r4, r5, r6, r7, lr}
	push	{r4, r5, r6, r7, lr}
	.cfi_def_cfa_offset 20
	.cfi_offset lr, -4
	.cfi_offset r7, -8
	.cfi_offset r6, -12
	.cfi_offset r5, -16
	.cfi_offset r4, -20
	.pad	#24
	sub	sp, #24
	.cfi_def_cfa_offset 44
	ldr	r7, [sp, #44]
.Ltmp0:
	@DEBUG_VALUE: mbedtls_base64_encode:slen <- [DW_OP_plus_uconst 44] [$sp+0]
	@DEBUG_VALUE: mbedtls_base64_encode:src <- $r3
	@DEBUG_VALUE: mbedtls_base64_encode:olen <- $r2
	@DEBUG_VALUE: mbedtls_base64_encode:dlen <- $r1
	@DEBUG_VALUE: mbedtls_base64_encode:dst <- $r0
	.loc	1 84 9 prologue_end             @ ../../../ThirdParty/mbedTLS/library/base64.c:84:9
	cbz	r7, .LBB0_5
.Ltmp1:
@ %bb.1:
	@DEBUG_VALUE: mbedtls_base64_encode:src <- $r3
	@DEBUG_VALUE: mbedtls_base64_encode:olen <- $r2
	@DEBUG_VALUE: mbedtls_base64_encode:dlen <- $r1
	@DEBUG_VALUE: mbedtls_base64_encode:dst <- $r0
	@DEBUG_VALUE: mbedtls_base64_encode:slen <- [DW_OP_plus_uconst 44] [$sp+0]
	.loc	1 0 9 is_stmt 0                 @ ../../../ThirdParty/mbedTLS/library/base64.c:0:9
	movs	r6, #3
	.loc	1 90 14 is_stmt 1               @ ../../../ThirdParty/mbedTLS/library/base64.c:90:14
	udiv	r5, r7, r6
	muls	r6, r5, r6
	subs	r4, r7, r6
	.loc	1 90 18 is_stmt 0               @ ../../../ThirdParty/mbedTLS/library/base64.c:90:18
	beq	.LBB0_3
.Ltmp2:
@ %bb.2:
	@DEBUG_VALUE: mbedtls_base64_encode:src <- $r3
	@DEBUG_VALUE: mbedtls_base64_encode:olen <- $r2
	@DEBUG_VALUE: mbedtls_base64_encode:dlen <- $r1
	@DEBUG_VALUE: mbedtls_base64_encode:dst <- $r0
	@DEBUG_VALUE: mbedtls_base64_encode:slen <- [DW_OP_plus_uconst 44] [$sp+0]
	.loc	1 0 18                          @ ../../../ThirdParty/mbedTLS/library/base64.c:0:18
	adds	r5, r5, #1
.Ltmp3:
.LBB0_3:
	@DEBUG_VALUE: mbedtls_base64_encode:src <- $r3
	@DEBUG_VALUE: mbedtls_base64_encode:olen <- $r2
	@DEBUG_VALUE: mbedtls_base64_encode:dlen <- $r1
	@DEBUG_VALUE: mbedtls_base64_encode:dst <- $r0
	@DEBUG_VALUE: mbedtls_base64_encode:slen <- [DW_OP_plus_uconst 44] [$sp+0]
	@DEBUG_VALUE: mbedtls_base64_encode:n <- $r5
	.loc	1 92 9 is_stmt 1                @ ../../../ThirdParty/mbedTLS/library/base64.c:92:9
	lsrs	r4, r5, #30
	beq	.LBB0_6
.Ltmp4:
@ %bb.4:
	@DEBUG_VALUE: mbedtls_base64_encode:n <- $r5
	@DEBUG_VALUE: mbedtls_base64_encode:src <- $r3
	@DEBUG_VALUE: mbedtls_base64_encode:olen <- $r2
	@DEBUG_VALUE: mbedtls_base64_encode:dlen <- $r1
	@DEBUG_VALUE: mbedtls_base64_encode:dst <- $r0
	@DEBUG_VALUE: mbedtls_base64_encode:slen <- [DW_OP_plus_uconst 44] [$sp+0]
	.loc	1 0 9 is_stmt 0                 @ ../../../ThirdParty/mbedTLS/library/base64.c:0:9
	movs	r0, #41
.Ltmp5:
	@DEBUG_VALUE: mbedtls_base64_encode:dst <- [DW_OP_LLVM_entry_value 1] $r0
	mvns	r0, r0
.Ltmp6:
	.loc	1 94 15 is_stmt 1               @ ../../../ThirdParty/mbedTLS/library/base64.c:94:15
	mov	r1, r0
.Ltmp7:
	@DEBUG_VALUE: mbedtls_base64_encode:dlen <- [DW_OP_LLVM_entry_value 1] $r1
	adds	r1, #41
	str	r1, [r2]
.Ltmp8:
	.loc	1 139 1                         @ ../../../ThirdParty/mbedTLS/library/base64.c:139:1
	add	sp, #24
.Ltmp9:
	pop	{r4, r5, r6, r7, pc}
.Ltmp10:
.LBB0_5:
	@DEBUG_VALUE: mbedtls_base64_encode:src <- $r3
	@DEBUG_VALUE: mbedtls_base64_encode:olen <- $r2
	@DEBUG_VALUE: mbedtls_base64_encode:dlen <- $r1
	@DEBUG_VALUE: mbedtls_base64_encode:dst <- $r0
	@DEBUG_VALUE: mbedtls_base64_encode:slen <- [DW_OP_plus_uconst 44] [$sp+0]
	.loc	1 0 1 is_stmt 0                 @ ../../../ThirdParty/mbedTLS/library/base64.c:0:1
	movs	r0, #0
.Ltmp11:
	@DEBUG_VALUE: mbedtls_base64_encode:dst <- [DW_OP_LLVM_entry_value 1] $r0
	.loc	1 86 15 is_stmt 1               @ ../../../ThirdParty/mbedTLS/library/base64.c:86:15
	str	r0, [r2]
.Ltmp12:
	.loc	1 139 1                         @ ../../../ThirdParty/mbedTLS/library/base64.c:139:1
	add	sp, #24
.Ltmp13:
	pop	{r4, r5, r6, r7, pc}
.Ltmp14:
.LBB0_6:
	@DEBUG_VALUE: mbedtls_base64_encode:n <- $r5
	@DEBUG_VALUE: mbedtls_base64_encode:src <- $r3
	@DEBUG_VALUE: mbedtls_base64_encode:olen <- $r2
	@DEBUG_VALUE: mbedtls_base64_encode:dlen <- $r1
	@DEBUG_VALUE: mbedtls_base64_encode:dst <- $r0
	@DEBUG_VALUE: mbedtls_base64_encode:slen <- [DW_OP_plus_uconst 44] [$sp+0]
	.loc	1 98 7                          @ ../../../ThirdParty/mbedTLS/library/base64.c:98:7
	lsls	r4, r5, #2
.Ltmp15:
	@DEBUG_VALUE: mbedtls_base64_encode:n <- $r4
	.loc	1 100 20                        @ ../../../ThirdParty/mbedTLS/library/base64.c:100:20
	adds	r4, r4, #1
.Ltmp16:
	.loc	1 100 26 is_stmt 0              @ ../../../ThirdParty/mbedTLS/library/base64.c:100:26
	cbz	r0, .LBB0_12
.Ltmp17:
@ %bb.7:
	@DEBUG_VALUE: mbedtls_base64_encode:src <- $r3
	@DEBUG_VALUE: mbedtls_base64_encode:olen <- $r2
	@DEBUG_VALUE: mbedtls_base64_encode:dlen <- $r1
	@DEBUG_VALUE: mbedtls_base64_encode:dst <- $r0
	@DEBUG_VALUE: mbedtls_base64_encode:slen <- [DW_OP_plus_uconst 44] [$sp+0]
	cmp	r4, r1
	bhi	.LBB0_12
.Ltmp18:
@ %bb.8:
	@DEBUG_VALUE: mbedtls_base64_encode:src <- $r3
	@DEBUG_VALUE: mbedtls_base64_encode:olen <- $r2
	@DEBUG_VALUE: mbedtls_base64_encode:dlen <- $r1
	@DEBUG_VALUE: mbedtls_base64_encode:dst <- $r0
	@DEBUG_VALUE: mbedtls_base64_encode:slen <- [DW_OP_plus_uconst 44] [$sp+0]
	@DEBUG_VALUE: mbedtls_base64_encode:n <- $r6
	@DEBUG_VALUE: mbedtls_base64_encode:i <- 0
	@DEBUG_VALUE: mbedtls_base64_encode:p <- $r0
	@DEBUG_VALUE: mbedtls_base64_encode:src <- undef
	.loc	1 108 5 is_stmt 1               @ ../../../ThirdParty/mbedTLS/library/base64.c:108:5
	str	r0, [sp, #8]                    @ 4-byte Spill
	cbz	r6, .LBB0_13
.Ltmp19:
@ %bb.9:
	@DEBUG_VALUE: mbedtls_base64_encode:n <- $r6
	@DEBUG_VALUE: mbedtls_base64_encode:olen <- $r2
	@DEBUG_VALUE: mbedtls_base64_encode:dlen <- $r1
	@DEBUG_VALUE: mbedtls_base64_encode:p <- $r0
	@DEBUG_VALUE: mbedtls_base64_encode:dst <- $r0
	@DEBUG_VALUE: mbedtls_base64_encode:slen <- [DW_OP_plus_uconst 44] [$sp+0]
	@DEBUG_VALUE: mbedtls_base64_encode:i <- 0
	.loc	1 0 5 is_stmt 0                 @ ../../../ThirdParty/mbedTLS/library/base64.c:0:5
	str	r7, [sp]                        @ 4-byte Spill
	str	r2, [sp, #4]                    @ 4-byte Spill
.Ltmp20:
	@DEBUG_VALUE: mbedtls_base64_encode:olen <- [DW_OP_plus_uconst 4] [$sp+0]
	str	r3, [sp, #20]                   @ 4-byte Spill
	str	r6, [sp, #16]                   @ 4-byte Spill
.Ltmp21:
	@DEBUG_VALUE: mbedtls_base64_encode:n <- [DW_OP_plus_uconst 16] [$sp+0]
	movs	r6, #0
	ldr	r7, __arm_cp.0_0
	movs	r1, #63
.Ltmp22:
	@DEBUG_VALUE: mbedtls_base64_encode:dlen <- [DW_OP_LLVM_entry_value 1] $r1
	str	r1, [sp, #12]                   @ 4-byte Spill
	mov	r1, r0
.Ltmp23:
.LBB0_10:                               @ =>This Inner Loop Header: Depth=1
	@DEBUG_VALUE: mbedtls_base64_encode:olen <- [DW_OP_plus_uconst 4] [$sp+0]
	@DEBUG_VALUE: mbedtls_base64_encode:slen <- [DW_OP_plus_uconst 44] [$sp+0]
	@DEBUG_VALUE: mbedtls_base64_encode:dlen <- [DW_OP_LLVM_entry_value 1] $r1
	@DEBUG_VALUE: mbedtls_base64_encode:src <- undef
	@DEBUG_VALUE: mbedtls_base64_encode:i <- $r6
	@DEBUG_VALUE: mbedtls_base64_encode:p <- $r1
	ldr	r3, [sp, #20]                   @ 4-byte Reload
.Ltmp24:
	.loc	1 110 18 is_stmt 1              @ ../../../ThirdParty/mbedTLS/library/base64.c:110:18
	adds	r2, r3, r6
.Ltmp25:
	@DEBUG_VALUE: mbedtls_base64_encode:C1 <- undef
	@DEBUG_VALUE: mbedtls_base64_encode:src <- [DW_OP_plus_uconst 2, DW_OP_stack_value] undef
	.loc	1 111 14                        @ ../../../ThirdParty/mbedTLS/library/base64.c:111:14
	ldrb	r0, [r2, #1]
.Ltmp26:
	@DEBUG_VALUE: mbedtls_base64_encode:dst <- [DW_OP_LLVM_entry_value 1] $r0
	@DEBUG_VALUE: mbedtls_base64_encode:C2 <- $r0
	@DEBUG_VALUE: mbedtls_base64_encode:src <- [DW_OP_plus_uconst 3, DW_OP_stack_value] undef
	.loc	1 112 14                        @ ../../../ThirdParty/mbedTLS/library/base64.c:112:14
	ldrb	r2, [r2, #2]
.Ltmp27:
	@DEBUG_VALUE: mbedtls_base64_encode:src <- [DW_OP_plus_uconst 1, DW_OP_stack_value] undef
	.loc	1 110 14                        @ ../../../ThirdParty/mbedTLS/library/base64.c:110:14
	ldrb	r4, [r3, r6]
.Ltmp28:
	@DEBUG_VALUE: mbedtls_base64_encode:C3 <- $r2
	.loc	1 114 35                        @ ../../../ThirdParty/mbedTLS/library/base64.c:114:35
	lsrs	r5, r4, #2
	.loc	1 114 16 is_stmt 0              @ ../../../ThirdParty/mbedTLS/library/base64.c:114:16
	ldrb	r5, [r7, r5]
.Ltmp29:
	@DEBUG_VALUE: mbedtls_base64_encode:p <- [DW_OP_plus_uconst 1, DW_OP_stack_value] $r1
	.loc	1 114 14                        @ ../../../ThirdParty/mbedTLS/library/base64.c:114:14
	strb	r5, [r1]
	.loc	1 116 55 is_stmt 1              @ ../../../ThirdParty/mbedTLS/library/base64.c:116:55
	lsrs	r5, r2, #6
	.loc	1 117 34                        @ ../../../ThirdParty/mbedTLS/library/base64.c:117:34
	ldr	r3, [sp, #12]                   @ 4-byte Reload
	ands	r2, r3
.Ltmp30:
	.loc	1 117 16 is_stmt 0              @ ../../../ThirdParty/mbedTLS/library/base64.c:117:16
	ldrb	r2, [r7, r2]
	.loc	1 117 14                        @ ../../../ThirdParty/mbedTLS/library/base64.c:117:14
	strb	r2, [r1, #3]
	.loc	1 115 55 is_stmt 1              @ ../../../ThirdParty/mbedTLS/library/base64.c:115:55
	lsrs	r2, r0, #4
	.loc	1 115 62 is_stmt 0              @ ../../../ThirdParty/mbedTLS/library/base64.c:115:62
	lsls	r4, r4, #30
	lsrs	r4, r4, #26
	adds	r2, r4, r2
	.loc	1 115 16                        @ ../../../ThirdParty/mbedTLS/library/base64.c:115:16
	ldrb	r2, [r7, r2]
.Ltmp31:
	@DEBUG_VALUE: mbedtls_base64_encode:p <- [DW_OP_plus_uconst 2, DW_OP_stack_value] $r1
	.loc	1 115 14                        @ ../../../ThirdParty/mbedTLS/library/base64.c:115:14
	strb	r2, [r1, #1]
	.loc	1 116 62 is_stmt 1              @ ../../../ThirdParty/mbedTLS/library/base64.c:116:62
	lsls	r0, r0, #28
.Ltmp32:
	lsrs	r0, r0, #26
	adds	r0, r0, r5
	.loc	1 116 16 is_stmt 0              @ ../../../ThirdParty/mbedTLS/library/base64.c:116:16
	ldrb	r0, [r7, r0]
.Ltmp33:
	@DEBUG_VALUE: mbedtls_base64_encode:p <- [DW_OP_plus_uconst 3, DW_OP_stack_value] $r1
	.loc	1 116 14                        @ ../../../ThirdParty/mbedTLS/library/base64.c:116:14
	strb	r0, [r1, #2]
	.loc	1 117 11 is_stmt 1              @ ../../../ThirdParty/mbedTLS/library/base64.c:117:11
	adds	r1, r1, #4
.Ltmp34:
	@DEBUG_VALUE: mbedtls_base64_encode:p <- $r1
	.loc	1 108 35                        @ ../../../ThirdParty/mbedTLS/library/base64.c:108:35
	adds	r6, r6, #3
.Ltmp35:
	@DEBUG_VALUE: mbedtls_base64_encode:i <- $r6
	.loc	1 108 5 is_stmt 0               @ ../../../ThirdParty/mbedTLS/library/base64.c:108:5
	ldr	r0, [sp, #16]                   @ 4-byte Reload
.Ltmp36:
	@DEBUG_VALUE: mbedtls_base64_encode:n <- $r0
	cmp	r6, r0
	blo	.LBB0_10
.Ltmp37:
@ %bb.11:
	@DEBUG_VALUE: mbedtls_base64_encode:olen <- [DW_OP_plus_uconst 4] [$sp+0]
	@DEBUG_VALUE: mbedtls_base64_encode:i <- $r6
	@DEBUG_VALUE: mbedtls_base64_encode:p <- $r1
	@DEBUG_VALUE: mbedtls_base64_encode:slen <- [DW_OP_plus_uconst 44] [$sp+0]
	@DEBUG_VALUE: mbedtls_base64_encode:dlen <- [DW_OP_LLVM_entry_value 1] $r1
	.loc	1 0 5                           @ ../../../ThirdParty/mbedTLS/library/base64.c:0:5
	ldr	r5, [sp, #20]                   @ 4-byte Reload
.Ltmp38:
	.loc	1 120 11 is_stmt 1              @ ../../../ThirdParty/mbedTLS/library/base64.c:120:11
	adds	r5, r5, r6
	ldr	r2, [sp, #4]                    @ 4-byte Reload
.Ltmp39:
	@DEBUG_VALUE: mbedtls_base64_encode:olen <- $r2
	@DEBUG_VALUE: mbedtls_base64_encode:olen <- $r2
	.loc	1 0 11 is_stmt 0                @ ../../../ThirdParty/mbedTLS/library/base64.c:0:11
	ldr	r0, [sp, #8]                    @ 4-byte Reload
	ldr	r7, [sp]                        @ 4-byte Reload
.Ltmp40:
	@DEBUG_VALUE: mbedtls_base64_encode:src <- $r5
	@DEBUG_VALUE: mbedtls_base64_encode:i <- $r6
	@DEBUG_VALUE: mbedtls_base64_encode:p <- $r1
	.loc	1 120 9                         @ ../../../ThirdParty/mbedTLS/library/base64.c:120:9
	cmp	r6, r7
	bhs	.LBB0_20
	b	.LBB0_14
.Ltmp41:
.LBB0_12:
	@DEBUG_VALUE: mbedtls_base64_encode:src <- $r3
	@DEBUG_VALUE: mbedtls_base64_encode:olen <- $r2
	@DEBUG_VALUE: mbedtls_base64_encode:dlen <- $r1
	@DEBUG_VALUE: mbedtls_base64_encode:dst <- $r0
	@DEBUG_VALUE: mbedtls_base64_encode:slen <- [DW_OP_plus_uconst 44] [$sp+0]
	.loc	1 102 15 is_stmt 1              @ ../../../ThirdParty/mbedTLS/library/base64.c:102:15
	str	r4, [r2]
	movs	r0, #41
.Ltmp42:
	@DEBUG_VALUE: mbedtls_base64_encode:dst <- [DW_OP_LLVM_entry_value 1] $r0
	.loc	1 0 15 is_stmt 0                @ ../../../ThirdParty/mbedTLS/library/base64.c:0:15
	mvns	r0, r0
.Ltmp43:
	.loc	1 139 1 is_stmt 1               @ ../../../ThirdParty/mbedTLS/library/base64.c:139:1
	add	sp, #24
.Ltmp44:
	pop	{r4, r5, r6, r7, pc}
.Ltmp45:
.LBB0_13:
	@DEBUG_VALUE: mbedtls_base64_encode:n <- $r6
	@DEBUG_VALUE: mbedtls_base64_encode:olen <- $r2
	@DEBUG_VALUE: mbedtls_base64_encode:dlen <- $r1
	@DEBUG_VALUE: mbedtls_base64_encode:p <- $r0
	@DEBUG_VALUE: mbedtls_base64_encode:dst <- $r0
	@DEBUG_VALUE: mbedtls_base64_encode:slen <- [DW_OP_plus_uconst 44] [$sp+0]
	@DEBUG_VALUE: mbedtls_base64_encode:i <- 0
	.loc	1 0 1 is_stmt 0                 @ ../../../ThirdParty/mbedTLS/library/base64.c:0:1
	mov	r5, r3
	movs	r6, #0
.Ltmp46:
	mov	r1, r0
.Ltmp47:
	@DEBUG_VALUE: mbedtls_base64_encode:dlen <- [DW_OP_LLVM_entry_value 1] $r1
	@DEBUG_VALUE: mbedtls_base64_encode:src <- $r5
	@DEBUG_VALUE: mbedtls_base64_encode:i <- $r6
	@DEBUG_VALUE: mbedtls_base64_encode:p <- $r1
	.loc	1 120 9 is_stmt 1               @ ../../../ThirdParty/mbedTLS/library/base64.c:120:9
	cmp	r6, r7
	bhs	.LBB0_20
.Ltmp48:
.LBB0_14:
	@DEBUG_VALUE: mbedtls_base64_encode:i <- $r6
	@DEBUG_VALUE: mbedtls_base64_encode:src <- $r5
	@DEBUG_VALUE: mbedtls_base64_encode:olen <- $r2
	@DEBUG_VALUE: mbedtls_base64_encode:p <- $r1
	@DEBUG_VALUE: mbedtls_base64_encode:slen <- [DW_OP_plus_uconst 44] [$sp+0]
	@DEBUG_VALUE: mbedtls_base64_encode:dlen <- [DW_OP_LLVM_entry_value 1] $r1
	@DEBUG_VALUE: mbedtls_base64_encode:src <- [DW_OP_plus_uconst 1, DW_OP_stack_value] $r5
	@DEBUG_VALUE: mbedtls_base64_encode:C1 <- undef
	.loc	1 0 9 is_stmt 0                 @ ../../../ThirdParty/mbedTLS/library/base64.c:0:9
	mov	r3, r7
.Ltmp49:
	.loc	1 123 20 is_stmt 1              @ ../../../ThirdParty/mbedTLS/library/base64.c:123:20
	adds	r4, r6, #1
	mov	r0, r5
.Ltmp50:
	@DEBUG_VALUE: mbedtls_base64_encode:src <- [DW_OP_plus_uconst 1, DW_OP_stack_value] $r0
	.loc	1 122 14                        @ ../../../ThirdParty/mbedTLS/library/base64.c:122:14
	ldrb	r5, [r5]
	.loc	1 123 14                        @ ../../../ThirdParty/mbedTLS/library/base64.c:123:14
	cmp	r4, r7
	bhs	.LBB0_16
.Ltmp51:
@ %bb.15:
	@DEBUG_VALUE: mbedtls_base64_encode:i <- $r6
	@DEBUG_VALUE: mbedtls_base64_encode:olen <- $r2
	@DEBUG_VALUE: mbedtls_base64_encode:p <- $r1
	@DEBUG_VALUE: mbedtls_base64_encode:src <- [DW_OP_plus_uconst 1, DW_OP_stack_value] $r0
	@DEBUG_VALUE: mbedtls_base64_encode:slen <- [DW_OP_plus_uconst 44] [$sp+0]
	@DEBUG_VALUE: mbedtls_base64_encode:dlen <- [DW_OP_LLVM_entry_value 1] $r1
	@DEBUG_VALUE: mbedtls_base64_encode:src <- [DW_OP_plus_uconst 1, DW_OP_plus_uconst 1, DW_OP_stack_value] $r0
	.loc	1 123 37 is_stmt 0              @ ../../../ThirdParty/mbedTLS/library/base64.c:123:37
	ldrb	r3, [r0, #1]
	b	.LBB0_17
.Ltmp52:
.LBB0_16:
	@DEBUG_VALUE: mbedtls_base64_encode:i <- $r6
	@DEBUG_VALUE: mbedtls_base64_encode:olen <- $r2
	@DEBUG_VALUE: mbedtls_base64_encode:p <- $r1
	@DEBUG_VALUE: mbedtls_base64_encode:src <- [DW_OP_plus_uconst 1, DW_OP_stack_value] $r0
	@DEBUG_VALUE: mbedtls_base64_encode:slen <- [DW_OP_plus_uconst 44] [$sp+0]
	@DEBUG_VALUE: mbedtls_base64_encode:dlen <- [DW_OP_LLVM_entry_value 1] $r1
	.loc	1 0 37                          @ ../../../ThirdParty/mbedTLS/library/base64.c:0:37
	movs	r3, #0
.Ltmp53:
.LBB0_17:
	@DEBUG_VALUE: mbedtls_base64_encode:i <- $r6
	@DEBUG_VALUE: mbedtls_base64_encode:olen <- $r2
	@DEBUG_VALUE: mbedtls_base64_encode:p <- $r1
	@DEBUG_VALUE: mbedtls_base64_encode:slen <- [DW_OP_plus_uconst 44] [$sp+0]
	@DEBUG_VALUE: mbedtls_base64_encode:dlen <- [DW_OP_LLVM_entry_value 1] $r1
	@DEBUG_VALUE: mbedtls_base64_encode:C2 <- $r3
	.loc	1 125 35 is_stmt 1              @ ../../../ThirdParty/mbedTLS/library/base64.c:125:35
	lsrs	r6, r5, #2
.Ltmp54:
	.loc	1 125 16 is_stmt 0              @ ../../../ThirdParty/mbedTLS/library/base64.c:125:16
	ldr	r0, __arm_cp.0_0
	ldrb	r6, [r0, r6]
.Ltmp55:
	@DEBUG_VALUE: mbedtls_base64_encode:p <- [DW_OP_plus_uconst 1, DW_OP_stack_value] $r1
	.loc	1 125 14                        @ ../../../ThirdParty/mbedTLS/library/base64.c:125:14
	strb	r6, [r1]
	.loc	1 126 54 is_stmt 1              @ ../../../ThirdParty/mbedTLS/library/base64.c:126:54
	lsrs	r6, r3, #4
	.loc	1 126 61 is_stmt 0              @ ../../../ThirdParty/mbedTLS/library/base64.c:126:61
	lsls	r5, r5, #30
	lsrs	r5, r5, #26
	adds	r5, r6, r5
	.loc	1 126 16                        @ ../../../ThirdParty/mbedTLS/library/base64.c:126:16
	ldrb	r5, [r0, r5]
.Ltmp56:
	@DEBUG_VALUE: mbedtls_base64_encode:p <- [DW_OP_plus_uconst 2, DW_OP_stack_value] $r1
	.loc	1 126 14                        @ ../../../ThirdParty/mbedTLS/library/base64.c:126:14
	strb	r5, [r1, #1]
	movs	r5, #61
	.loc	1 128 13 is_stmt 1              @ ../../../ThirdParty/mbedTLS/library/base64.c:128:13
	cmp	r4, r7
.Ltmp57:
	.loc	1 0 0 is_stmt 0                 @ ../../../ThirdParty/mbedTLS/library/base64.c:0:0
	mov	r4, r5
.Ltmp58:
	.loc	1 128 13                        @ ../../../ThirdParty/mbedTLS/library/base64.c:128:13
	bhs	.LBB0_19
.Ltmp59:
@ %bb.18:
	@DEBUG_VALUE: mbedtls_base64_encode:C2 <- $r3
	@DEBUG_VALUE: mbedtls_base64_encode:olen <- $r2
	@DEBUG_VALUE: mbedtls_base64_encode:p <- [DW_OP_plus_uconst 2, DW_OP_stack_value] $r1
	@DEBUG_VALUE: mbedtls_base64_encode:slen <- [DW_OP_plus_uconst 44] [$sp+0]
	@DEBUG_VALUE: mbedtls_base64_encode:dlen <- [DW_OP_LLVM_entry_value 1] $r1
	.loc	1 129 46 is_stmt 1              @ ../../../ThirdParty/mbedTLS/library/base64.c:129:46
	lsls	r3, r3, #28
.Ltmp60:
	lsrs	r3, r3, #26
	.loc	1 129 20 is_stmt 0              @ ../../../ThirdParty/mbedTLS/library/base64.c:129:20
	ldrb	r4, [r0, r3]
.Ltmp61:
	@DEBUG_VALUE: mbedtls_base64_encode:p <- [DW_OP_plus_uconst 3, DW_OP_stack_value] $r1
.LBB0_19:
	@DEBUG_VALUE: mbedtls_base64_encode:olen <- $r2
	@DEBUG_VALUE: mbedtls_base64_encode:slen <- [DW_OP_plus_uconst 44] [$sp+0]
	@DEBUG_VALUE: mbedtls_base64_encode:dlen <- [DW_OP_LLVM_entry_value 1] $r1
	.loc	1 132 14 is_stmt 1              @ ../../../ThirdParty/mbedTLS/library/base64.c:132:14
	strb	r5, [r1, #3]
.Ltmp62:
	.loc	1 0 0 is_stmt 0                 @ ../../../ThirdParty/mbedTLS/library/base64.c:0:0
	strb	r4, [r1, #2]
.Ltmp63:
	@DEBUG_VALUE: mbedtls_base64_encode:p <- [DW_OP_plus_uconst 3, DW_OP_stack_value] $r1
	.loc	1 132 11                        @ ../../../ThirdParty/mbedTLS/library/base64.c:132:11
	adds	r1, r1, #4
.Ltmp64:
	@DEBUG_VALUE: mbedtls_base64_encode:p <- $r1
	.loc	1 0 11                          @ ../../../ThirdParty/mbedTLS/library/base64.c:0:11
	ldr	r0, [sp, #8]                    @ 4-byte Reload
.Ltmp65:
.LBB0_20:
	@DEBUG_VALUE: mbedtls_base64_encode:olen <- $r2
	@DEBUG_VALUE: mbedtls_base64_encode:p <- $r1
	@DEBUG_VALUE: mbedtls_base64_encode:slen <- [DW_OP_plus_uconst 44] [$sp+0]
	@DEBUG_VALUE: mbedtls_base64_encode:dlen <- [DW_OP_LLVM_entry_value 1] $r1
	@DEBUG_VALUE: mbedtls_base64_encode:p <- $r1
	.loc	1 135 15 is_stmt 1              @ ../../../ThirdParty/mbedTLS/library/base64.c:135:15
	subs	r0, r1, r0
	.loc	1 135 11 is_stmt 0              @ ../../../ThirdParty/mbedTLS/library/base64.c:135:11
	str	r0, [r2]
	movs	r0, #0
	.loc	1 136 8 is_stmt 1               @ ../../../ThirdParty/mbedTLS/library/base64.c:136:8
	strb	r0, [r1]
	.loc	1 139 1                         @ ../../../ThirdParty/mbedTLS/library/base64.c:139:1
	add	sp, #24
.Ltmp66:
	pop	{r4, r5, r6, r7, pc}
.Ltmp67:
	.p2align	2
@ %bb.21:
	.loc	1 0 1 is_stmt 0                 @ ../../../ThirdParty/mbedTLS/library/base64.c:0:1
__arm_cp.0_0:
	.long	base64_enc_map
.Lcpi_end0:
	.size	__arm_cp.0_0, .Lcpi_end0-__arm_cp.0_0
.Lfunc_end0:
	.size	mbedtls_base64_encode, .Lfunc_end0-mbedtls_base64_encode
	.cfi_endproc
	.cantunwind
	.fnend
                                        @ -- End function
	.section	.text.mbedtls_base64_decode,"ax",%progbits
	.hidden	mbedtls_base64_decode           @ -- Begin function mbedtls_base64_decode
	.globl	mbedtls_base64_decode
	.p2align	2
	.type	mbedtls_base64_decode,%function
	.code	16                              @ @mbedtls_base64_decode
	.thumb_func
mbedtls_base64_decode:
.Lfunc_begin1:
	.loc	1 146 0 is_stmt 1               @ ../../../ThirdParty/mbedTLS/library/base64.c:146:0
	.fnstart
	.cfi_startproc
@ %bb.0:
	@DEBUG_VALUE: mbedtls_base64_decode:dst <- $r0
	@DEBUG_VALUE: mbedtls_base64_decode:dlen <- $r1
	@DEBUG_VALUE: mbedtls_base64_decode:olen <- $r2
	@DEBUG_VALUE: mbedtls_base64_decode:src <- $r3
	.save	{r4, r5, r6, r7, lr}
	push	{r4, r5, r6, r7, lr}
	.cfi_def_cfa_offset 20
	.cfi_offset lr, -4
	.cfi_offset r7, -8
	.cfi_offset r6, -12
	.cfi_offset r5, -16
	.cfi_offset r4, -20
	.pad	#20
	sub	sp, #20
	.cfi_def_cfa_offset 40
	str	r2, [sp, #4]                    @ 4-byte Spill
	str	r1, [sp]                        @ 4-byte Spill
	str	r0, [sp, #8]                    @ 4-byte Spill
	ldr	r7, [sp, #40]
.Ltmp68:
	@DEBUG_VALUE: mbedtls_base64_decode:i <- 0
	@DEBUG_VALUE: mbedtls_base64_decode:n <- 0
	@DEBUG_VALUE: mbedtls_base64_decode:j <- 0
	@DEBUG_VALUE: mbedtls_base64_decode:slen <- [DW_OP_plus_uconst 40] [$sp+0]
	@DEBUG_VALUE: mbedtls_base64_decode:src <- $r3
	@DEBUG_VALUE: mbedtls_base64_decode:olen <- [DW_OP_plus_uconst 4] [$sp+0]
	@DEBUG_VALUE: mbedtls_base64_decode:dlen <- [$sp+0]
	@DEBUG_VALUE: mbedtls_base64_decode:dst <- [DW_OP_plus_uconst 8] [$sp+0]
	.loc	1 152 5 prologue_end            @ ../../../ThirdParty/mbedTLS/library/base64.c:152:5
	cmp	r7, #0
	beq	.LBB1_24
.Ltmp69:
@ %bb.1:
	@DEBUG_VALUE: mbedtls_base64_decode:src <- $r3
	@DEBUG_VALUE: mbedtls_base64_decode:dst <- [DW_OP_plus_uconst 8] [$sp+0]
	@DEBUG_VALUE: mbedtls_base64_decode:dlen <- [$sp+0]
	@DEBUG_VALUE: mbedtls_base64_decode:olen <- [DW_OP_plus_uconst 4] [$sp+0]
	@DEBUG_VALUE: mbedtls_base64_decode:slen <- [DW_OP_plus_uconst 40] [$sp+0]
	@DEBUG_VALUE: mbedtls_base64_decode:j <- 0
	@DEBUG_VALUE: mbedtls_base64_decode:n <- 0
	@DEBUG_VALUE: mbedtls_base64_decode:i <- 0
	.loc	1 0 5 is_stmt 0                 @ ../../../ThirdParty/mbedTLS/library/base64.c:0:5
	movs	r4, #0
	mov	r6, r4
	mov	r5, r4
	str	r4, [sp, #12]                   @ 4-byte Spill
	b	.LBB1_4
.Ltmp70:
.LBB1_2:                                @   in Loop: Header=BB1_4 Depth=1
	@DEBUG_VALUE: mbedtls_base64_decode:j <- $r6
	@DEBUG_VALUE: mbedtls_base64_decode:n <- $r5
	@DEBUG_VALUE: mbedtls_base64_decode:i <- $r4
	@DEBUG_VALUE: mbedtls_base64_decode:src <- $r3
	@DEBUG_VALUE: mbedtls_base64_decode:x <- $r2
	@DEBUG_VALUE: mbedtls_base64_decode:dst <- [DW_OP_plus_uconst 8] [$sp+0]
	@DEBUG_VALUE: mbedtls_base64_decode:dlen <- [$sp+0]
	@DEBUG_VALUE: mbedtls_base64_decode:olen <- [DW_OP_plus_uconst 4] [$sp+0]
	@DEBUG_VALUE: mbedtls_base64_decode:slen <- [DW_OP_plus_uconst 40] [$sp+0]
	.loc	1 186 10 is_stmt 1              @ ../../../ThirdParty/mbedTLS/library/base64.c:186:10
	adds	r5, r5, #1
.Ltmp71:
	@DEBUG_VALUE: mbedtls_base64_decode:n <- $r5
.LBB1_3:                                @   in Loop: Header=BB1_4 Depth=1
	@DEBUG_VALUE: mbedtls_base64_decode:j <- $r6
	@DEBUG_VALUE: mbedtls_base64_decode:n <- $r5
	@DEBUG_VALUE: mbedtls_base64_decode:i <- $r4
	@DEBUG_VALUE: mbedtls_base64_decode:src <- $r3
	@DEBUG_VALUE: mbedtls_base64_decode:x <- $r2
	@DEBUG_VALUE: mbedtls_base64_decode:dst <- [DW_OP_plus_uconst 8] [$sp+0]
	@DEBUG_VALUE: mbedtls_base64_decode:dlen <- [$sp+0]
	@DEBUG_VALUE: mbedtls_base64_decode:olen <- [DW_OP_plus_uconst 4] [$sp+0]
	@DEBUG_VALUE: mbedtls_base64_decode:slen <- [DW_OP_plus_uconst 40] [$sp+0]
	@DEBUG_VALUE: mbedtls_base64_decode:j <- $r6
	@DEBUG_VALUE: mbedtls_base64_decode:n <- $r5
	.loc	1 152 36                        @ ../../../ThirdParty/mbedTLS/library/base64.c:152:36
	adds	r4, r4, #1
.Ltmp72:
	@DEBUG_VALUE: mbedtls_base64_decode:i <- $r4
	.loc	1 152 5 is_stmt 0               @ ../../../ThirdParty/mbedTLS/library/base64.c:152:5
	cmp	r4, r7
	bhs	.LBB1_25
.Ltmp73:
.LBB1_4:                                @ =>This Loop Header: Depth=1
                                        @     Child Loop BB1_6 Depth 2
	@DEBUG_VALUE: mbedtls_base64_decode:src <- $r3
	@DEBUG_VALUE: mbedtls_base64_decode:dst <- [DW_OP_plus_uconst 8] [$sp+0]
	@DEBUG_VALUE: mbedtls_base64_decode:dlen <- [$sp+0]
	@DEBUG_VALUE: mbedtls_base64_decode:olen <- [DW_OP_plus_uconst 4] [$sp+0]
	@DEBUG_VALUE: mbedtls_base64_decode:slen <- [DW_OP_plus_uconst 40] [$sp+0]
	@DEBUG_VALUE: mbedtls_base64_decode:j <- $r6
	@DEBUG_VALUE: mbedtls_base64_decode:n <- $r5
	@DEBUG_VALUE: mbedtls_base64_decode:i <- $r4
	@DEBUG_VALUE: mbedtls_base64_decode:x <- 0
	.loc	1 156 25 is_stmt 1              @ ../../../ThirdParty/mbedTLS/library/base64.c:156:25
	cmp	r4, r7
	bhs	.LBB1_9
.Ltmp74:
@ %bb.5:                                @   in Loop: Header=BB1_4 Depth=1
	@DEBUG_VALUE: mbedtls_base64_decode:j <- $r6
	@DEBUG_VALUE: mbedtls_base64_decode:n <- $r5
	@DEBUG_VALUE: mbedtls_base64_decode:i <- $r4
	@DEBUG_VALUE: mbedtls_base64_decode:src <- $r3
	@DEBUG_VALUE: mbedtls_base64_decode:dst <- [DW_OP_plus_uconst 8] [$sp+0]
	@DEBUG_VALUE: mbedtls_base64_decode:dlen <- [$sp+0]
	@DEBUG_VALUE: mbedtls_base64_decode:olen <- [DW_OP_plus_uconst 4] [$sp+0]
	@DEBUG_VALUE: mbedtls_base64_decode:slen <- [DW_OP_plus_uconst 40] [$sp+0]
	@DEBUG_VALUE: mbedtls_base64_decode:x <- 0
	.loc	1 0 25 is_stmt 0                @ ../../../ThirdParty/mbedTLS/library/base64.c:0:25
	str	r6, [sp, #16]                   @ 4-byte Spill
.Ltmp75:
	@DEBUG_VALUE: mbedtls_base64_decode:j <- [DW_OP_plus_uconst 16] [$sp+0]
	mov	r6, r5
.Ltmp76:
	@DEBUG_VALUE: mbedtls_base64_decode:n <- $r6
	.loc	1 156 9                         @ ../../../ThirdParty/mbedTLS/library/base64.c:156:9
	adds	r0, r3, r4
	subs	r1, r7, r4
	movs	r2, #0
.Ltmp77:
.LBB1_6:                                @   Parent Loop BB1_4 Depth=1
                                        @ =>  This Inner Loop Header: Depth=2
	@DEBUG_VALUE: mbedtls_base64_decode:j <- [DW_OP_plus_uconst 16] [$sp+0]
	@DEBUG_VALUE: mbedtls_base64_decode:n <- $r6
	@DEBUG_VALUE: mbedtls_base64_decode:src <- $r3
	@DEBUG_VALUE: mbedtls_base64_decode:dst <- [DW_OP_plus_uconst 8] [$sp+0]
	@DEBUG_VALUE: mbedtls_base64_decode:dlen <- [$sp+0]
	@DEBUG_VALUE: mbedtls_base64_decode:olen <- [DW_OP_plus_uconst 4] [$sp+0]
	@DEBUG_VALUE: mbedtls_base64_decode:slen <- [DW_OP_plus_uconst 40] [$sp+0]
	@DEBUG_VALUE: mbedtls_base64_decode:i <- undef
	@DEBUG_VALUE: mbedtls_base64_decode:x <- $r2
	.loc	1 156 28                        @ ../../../ThirdParty/mbedTLS/library/base64.c:156:28
	ldrb	r5, [r0, r2]
	.loc	1 156 9                         @ ../../../ThirdParty/mbedTLS/library/base64.c:156:9
	cmp	r5, #32
	bne	.LBB1_10
.Ltmp78:
@ %bb.7:                                @   in Loop: Header=BB1_6 Depth=2
	@DEBUG_VALUE: mbedtls_base64_decode:j <- [DW_OP_plus_uconst 16] [$sp+0]
	@DEBUG_VALUE: mbedtls_base64_decode:n <- $r6
	@DEBUG_VALUE: mbedtls_base64_decode:src <- $r3
	@DEBUG_VALUE: mbedtls_base64_decode:x <- $r2
	@DEBUG_VALUE: mbedtls_base64_decode:dst <- [DW_OP_plus_uconst 8] [$sp+0]
	@DEBUG_VALUE: mbedtls_base64_decode:dlen <- [$sp+0]
	@DEBUG_VALUE: mbedtls_base64_decode:olen <- [DW_OP_plus_uconst 4] [$sp+0]
	@DEBUG_VALUE: mbedtls_base64_decode:slen <- [DW_OP_plus_uconst 40] [$sp+0]
	@DEBUG_VALUE: mbedtls_base64_decode:i <- [DW_OP_plus_uconst 1, DW_OP_stack_value] undef
	.loc	1 159 13 is_stmt 1              @ ../../../ThirdParty/mbedTLS/library/base64.c:159:13
	adds	r2, r2, #1
.Ltmp79:
	@DEBUG_VALUE: mbedtls_base64_decode:x <- $r2
	.loc	1 156 25                        @ ../../../ThirdParty/mbedTLS/library/base64.c:156:25
	cmp	r1, r2
	bne	.LBB1_6
.Ltmp80:
@ %bb.8:                                @   in Loop: Header=BB1_4 Depth=1
	@DEBUG_VALUE: mbedtls_base64_decode:j <- [DW_OP_plus_uconst 16] [$sp+0]
	@DEBUG_VALUE: mbedtls_base64_decode:n <- $r6
	@DEBUG_VALUE: mbedtls_base64_decode:src <- $r3
	@DEBUG_VALUE: mbedtls_base64_decode:x <- $r2
	@DEBUG_VALUE: mbedtls_base64_decode:dst <- [DW_OP_plus_uconst 8] [$sp+0]
	@DEBUG_VALUE: mbedtls_base64_decode:dlen <- [$sp+0]
	@DEBUG_VALUE: mbedtls_base64_decode:olen <- [DW_OP_plus_uconst 4] [$sp+0]
	@DEBUG_VALUE: mbedtls_base64_decode:slen <- [DW_OP_plus_uconst 40] [$sp+0]
	.loc	1 0 0 is_stmt 0                 @ ../../../ThirdParty/mbedTLS/library/base64.c:0:0
	mov	r4, r7
.Ltmp81:
	mov	r2, r1
.Ltmp82:
	b	.LBB1_11
.Ltmp83:
.LBB1_9:                                @   in Loop: Header=BB1_4 Depth=1
	@DEBUG_VALUE: mbedtls_base64_decode:j <- $r6
	@DEBUG_VALUE: mbedtls_base64_decode:n <- $r5
	@DEBUG_VALUE: mbedtls_base64_decode:i <- $r4
	@DEBUG_VALUE: mbedtls_base64_decode:src <- $r3
	@DEBUG_VALUE: mbedtls_base64_decode:dst <- [DW_OP_plus_uconst 8] [$sp+0]
	@DEBUG_VALUE: mbedtls_base64_decode:dlen <- [$sp+0]
	@DEBUG_VALUE: mbedtls_base64_decode:olen <- [DW_OP_plus_uconst 4] [$sp+0]
	@DEBUG_VALUE: mbedtls_base64_decode:slen <- [DW_OP_plus_uconst 40] [$sp+0]
	@DEBUG_VALUE: mbedtls_base64_decode:x <- 0
	ldr	r2, [sp, #12]                   @ 4-byte Reload
	@DEBUG_VALUE: mbedtls_base64_decode:i <- $r4
.Ltmp84:
	@DEBUG_VALUE: mbedtls_base64_decode:x <- $r2
	.loc	1 163 13 is_stmt 1              @ ../../../ThirdParty/mbedTLS/library/base64.c:163:13
	cmp	r4, r7
	bne	.LBB1_12
	b	.LBB1_25
.Ltmp85:
.LBB1_10:                               @   in Loop: Header=BB1_4 Depth=1
	@DEBUG_VALUE: mbedtls_base64_decode:j <- [DW_OP_plus_uconst 16] [$sp+0]
	@DEBUG_VALUE: mbedtls_base64_decode:n <- $r6
	@DEBUG_VALUE: mbedtls_base64_decode:src <- $r3
	@DEBUG_VALUE: mbedtls_base64_decode:x <- $r2
	@DEBUG_VALUE: mbedtls_base64_decode:dst <- [DW_OP_plus_uconst 8] [$sp+0]
	@DEBUG_VALUE: mbedtls_base64_decode:dlen <- [$sp+0]
	@DEBUG_VALUE: mbedtls_base64_decode:olen <- [DW_OP_plus_uconst 4] [$sp+0]
	@DEBUG_VALUE: mbedtls_base64_decode:slen <- [DW_OP_plus_uconst 40] [$sp+0]
	.loc	1 156 9                         @ ../../../ThirdParty/mbedTLS/library/base64.c:156:9
	adds	r4, r4, r2
.Ltmp86:
.LBB1_11:                               @   in Loop: Header=BB1_4 Depth=1
	@DEBUG_VALUE: mbedtls_base64_decode:j <- [DW_OP_plus_uconst 16] [$sp+0]
	@DEBUG_VALUE: mbedtls_base64_decode:n <- $r6
	@DEBUG_VALUE: mbedtls_base64_decode:src <- $r3
	@DEBUG_VALUE: mbedtls_base64_decode:dst <- [DW_OP_plus_uconst 8] [$sp+0]
	@DEBUG_VALUE: mbedtls_base64_decode:dlen <- [$sp+0]
	@DEBUG_VALUE: mbedtls_base64_decode:olen <- [DW_OP_plus_uconst 4] [$sp+0]
	@DEBUG_VALUE: mbedtls_base64_decode:slen <- [DW_OP_plus_uconst 40] [$sp+0]
	.loc	1 0 9 is_stmt 0                 @ ../../../ThirdParty/mbedTLS/library/base64.c:0:9
	mov	r5, r6
.Ltmp87:
	@DEBUG_VALUE: mbedtls_base64_decode:n <- $r5
	ldr	r6, [sp, #16]                   @ 4-byte Reload
.Ltmp88:
	@DEBUG_VALUE: mbedtls_base64_decode:j <- $r6
	@DEBUG_VALUE: mbedtls_base64_decode:i <- $r4
	@DEBUG_VALUE: mbedtls_base64_decode:x <- $r2
	.loc	1 163 13 is_stmt 1              @ ../../../ThirdParty/mbedTLS/library/base64.c:163:13
	cmp	r4, r7
	beq	.LBB1_25
.Ltmp89:
.LBB1_12:                               @   in Loop: Header=BB1_4 Depth=1
	@DEBUG_VALUE: mbedtls_base64_decode:j <- $r6
	@DEBUG_VALUE: mbedtls_base64_decode:n <- $r5
	@DEBUG_VALUE: mbedtls_base64_decode:i <- $r4
	@DEBUG_VALUE: mbedtls_base64_decode:src <- $r3
	@DEBUG_VALUE: mbedtls_base64_decode:x <- $r2
	@DEBUG_VALUE: mbedtls_base64_decode:dst <- [DW_OP_plus_uconst 8] [$sp+0]
	@DEBUG_VALUE: mbedtls_base64_decode:dlen <- [$sp+0]
	@DEBUG_VALUE: mbedtls_base64_decode:olen <- [DW_OP_plus_uconst 4] [$sp+0]
	@DEBUG_VALUE: mbedtls_base64_decode:slen <- [DW_OP_plus_uconst 40] [$sp+0]
	.loc	1 166 20                        @ ../../../ThirdParty/mbedTLS/library/base64.c:166:20
	subs	r0, r7, r4
	.loc	1 166 31 is_stmt 0              @ ../../../ThirdParty/mbedTLS/library/base64.c:166:31
	cmp	r0, #2
	blo	.LBB1_15
.Ltmp90:
@ %bb.13:                               @   in Loop: Header=BB1_4 Depth=1
	@DEBUG_VALUE: mbedtls_base64_decode:j <- $r6
	@DEBUG_VALUE: mbedtls_base64_decode:n <- $r5
	@DEBUG_VALUE: mbedtls_base64_decode:i <- $r4
	@DEBUG_VALUE: mbedtls_base64_decode:src <- $r3
	@DEBUG_VALUE: mbedtls_base64_decode:x <- $r2
	@DEBUG_VALUE: mbedtls_base64_decode:dst <- [DW_OP_plus_uconst 8] [$sp+0]
	@DEBUG_VALUE: mbedtls_base64_decode:dlen <- [$sp+0]
	@DEBUG_VALUE: mbedtls_base64_decode:olen <- [DW_OP_plus_uconst 4] [$sp+0]
	@DEBUG_VALUE: mbedtls_base64_decode:slen <- [DW_OP_plus_uconst 40] [$sp+0]
	.loc	1 167 17 is_stmt 1              @ ../../../ThirdParty/mbedTLS/library/base64.c:167:17
	ldrb	r0, [r3, r4]
	.loc	1 167 32 is_stmt 0              @ ../../../ThirdParty/mbedTLS/library/base64.c:167:32
	cmp	r0, #13
	bne	.LBB1_15
.Ltmp91:
@ %bb.14:                               @   in Loop: Header=BB1_4 Depth=1
	@DEBUG_VALUE: mbedtls_base64_decode:j <- $r6
	@DEBUG_VALUE: mbedtls_base64_decode:n <- $r5
	@DEBUG_VALUE: mbedtls_base64_decode:i <- $r4
	@DEBUG_VALUE: mbedtls_base64_decode:src <- $r3
	@DEBUG_VALUE: mbedtls_base64_decode:x <- $r2
	@DEBUG_VALUE: mbedtls_base64_decode:dst <- [DW_OP_plus_uconst 8] [$sp+0]
	@DEBUG_VALUE: mbedtls_base64_decode:dlen <- [$sp+0]
	@DEBUG_VALUE: mbedtls_base64_decode:olen <- [DW_OP_plus_uconst 4] [$sp+0]
	@DEBUG_VALUE: mbedtls_base64_decode:slen <- [DW_OP_plus_uconst 40] [$sp+0]
	.loc	1 167 41                        @ ../../../ThirdParty/mbedTLS/library/base64.c:167:41
	adds	r0, r4, r3
	.loc	1 167 35                        @ ../../../ThirdParty/mbedTLS/library/base64.c:167:35
	ldrb	r0, [r0, #1]
.Ltmp92:
	.loc	1 166 13 is_stmt 1              @ ../../../ThirdParty/mbedTLS/library/base64.c:166:13
	cmp	r0, #10
	beq	.LBB1_3
.Ltmp93:
.LBB1_15:                               @   in Loop: Header=BB1_4 Depth=1
	@DEBUG_VALUE: mbedtls_base64_decode:j <- $r6
	@DEBUG_VALUE: mbedtls_base64_decode:n <- $r5
	@DEBUG_VALUE: mbedtls_base64_decode:i <- $r4
	@DEBUG_VALUE: mbedtls_base64_decode:src <- $r3
	@DEBUG_VALUE: mbedtls_base64_decode:x <- $r2
	@DEBUG_VALUE: mbedtls_base64_decode:dst <- [DW_OP_plus_uconst 8] [$sp+0]
	@DEBUG_VALUE: mbedtls_base64_decode:dlen <- [$sp+0]
	@DEBUG_VALUE: mbedtls_base64_decode:olen <- [DW_OP_plus_uconst 4] [$sp+0]
	@DEBUG_VALUE: mbedtls_base64_decode:slen <- [DW_OP_plus_uconst 40] [$sp+0]
	.loc	1 170 13                        @ ../../../ThirdParty/mbedTLS/library/base64.c:170:13
	ldrb	r1, [r3, r4]
.Ltmp94:
	.loc	1 170 13 is_stmt 0              @ ../../../ThirdParty/mbedTLS/library/base64.c:170:13
	cmp	r1, #10
	beq	.LBB1_3
.Ltmp95:
@ %bb.16:                               @   in Loop: Header=BB1_4 Depth=1
	@DEBUG_VALUE: mbedtls_base64_decode:j <- $r6
	@DEBUG_VALUE: mbedtls_base64_decode:n <- $r5
	@DEBUG_VALUE: mbedtls_base64_decode:i <- $r4
	@DEBUG_VALUE: mbedtls_base64_decode:src <- $r3
	@DEBUG_VALUE: mbedtls_base64_decode:x <- $r2
	@DEBUG_VALUE: mbedtls_base64_decode:dst <- [DW_OP_plus_uconst 8] [$sp+0]
	@DEBUG_VALUE: mbedtls_base64_decode:dlen <- [$sp+0]
	@DEBUG_VALUE: mbedtls_base64_decode:olen <- [DW_OP_plus_uconst 4] [$sp+0]
	@DEBUG_VALUE: mbedtls_base64_decode:slen <- [DW_OP_plus_uconst 40] [$sp+0]
	.loc	1 174 13 is_stmt 1              @ ../../../ThirdParty/mbedTLS/library/base64.c:174:13
	cbnz	r2, .LBB1_23
.Ltmp96:
@ %bb.17:                               @   in Loop: Header=BB1_4 Depth=1
	@DEBUG_VALUE: mbedtls_base64_decode:j <- $r6
	@DEBUG_VALUE: mbedtls_base64_decode:n <- $r5
	@DEBUG_VALUE: mbedtls_base64_decode:i <- $r4
	@DEBUG_VALUE: mbedtls_base64_decode:src <- $r3
	@DEBUG_VALUE: mbedtls_base64_decode:x <- $r2
	@DEBUG_VALUE: mbedtls_base64_decode:dst <- [DW_OP_plus_uconst 8] [$sp+0]
	@DEBUG_VALUE: mbedtls_base64_decode:dlen <- [$sp+0]
	@DEBUG_VALUE: mbedtls_base64_decode:olen <- [DW_OP_plus_uconst 4] [$sp+0]
	@DEBUG_VALUE: mbedtls_base64_decode:slen <- [DW_OP_plus_uconst 40] [$sp+0]
	.loc	1 177 27                        @ ../../../ThirdParty/mbedTLS/library/base64.c:177:27
	cmp	r1, #61
	bne	.LBB1_19
.Ltmp97:
@ %bb.18:                               @   in Loop: Header=BB1_4 Depth=1
	@DEBUG_VALUE: mbedtls_base64_decode:j <- $r6
	@DEBUG_VALUE: mbedtls_base64_decode:n <- $r5
	@DEBUG_VALUE: mbedtls_base64_decode:i <- $r4
	@DEBUG_VALUE: mbedtls_base64_decode:src <- $r3
	@DEBUG_VALUE: mbedtls_base64_decode:x <- $r2
	@DEBUG_VALUE: mbedtls_base64_decode:dst <- [DW_OP_plus_uconst 8] [$sp+0]
	@DEBUG_VALUE: mbedtls_base64_decode:dlen <- [$sp+0]
	@DEBUG_VALUE: mbedtls_base64_decode:olen <- [DW_OP_plus_uconst 4] [$sp+0]
	@DEBUG_VALUE: mbedtls_base64_decode:slen <- [DW_OP_plus_uconst 40] [$sp+0]
	.loc	1 177 30 is_stmt 0              @ ../../../ThirdParty/mbedTLS/library/base64.c:177:30
	adds	r6, r6, #1
.Ltmp98:
	@DEBUG_VALUE: mbedtls_base64_decode:j <- $r6
	.loc	1 177 13                        @ ../../../ThirdParty/mbedTLS/library/base64.c:177:13
	cmp	r6, #2
	bhi	.LBB1_23
.Ltmp99:
.LBB1_19:                               @   in Loop: Header=BB1_4 Depth=1
	@DEBUG_VALUE: mbedtls_base64_decode:j <- $r6
	@DEBUG_VALUE: mbedtls_base64_decode:n <- $r5
	@DEBUG_VALUE: mbedtls_base64_decode:i <- $r4
	@DEBUG_VALUE: mbedtls_base64_decode:src <- $r3
	@DEBUG_VALUE: mbedtls_base64_decode:x <- $r2
	@DEBUG_VALUE: mbedtls_base64_decode:dst <- [DW_OP_plus_uconst 8] [$sp+0]
	@DEBUG_VALUE: mbedtls_base64_decode:dlen <- [$sp+0]
	@DEBUG_VALUE: mbedtls_base64_decode:olen <- [DW_OP_plus_uconst 4] [$sp+0]
	@DEBUG_VALUE: mbedtls_base64_decode:slen <- [DW_OP_plus_uconst 40] [$sp+0]
	@DEBUG_VALUE: mbedtls_base64_decode:j <- $r6
	.loc	1 170 13 is_stmt 1              @ ../../../ThirdParty/mbedTLS/library/base64.c:170:13
	sxtb	r0, r1
.Ltmp100:
	.loc	1 180 26                        @ ../../../ThirdParty/mbedTLS/library/base64.c:180:26
	cmp	r0, #0
	bmi	.LBB1_23
.Ltmp101:
@ %bb.20:                               @   in Loop: Header=BB1_4 Depth=1
	@DEBUG_VALUE: mbedtls_base64_decode:j <- $r6
	@DEBUG_VALUE: mbedtls_base64_decode:n <- $r5
	@DEBUG_VALUE: mbedtls_base64_decode:i <- $r4
	@DEBUG_VALUE: mbedtls_base64_decode:src <- $r3
	@DEBUG_VALUE: mbedtls_base64_decode:x <- $r2
	@DEBUG_VALUE: mbedtls_base64_decode:dst <- [DW_OP_plus_uconst 8] [$sp+0]
	@DEBUG_VALUE: mbedtls_base64_decode:dlen <- [$sp+0]
	@DEBUG_VALUE: mbedtls_base64_decode:olen <- [DW_OP_plus_uconst 4] [$sp+0]
	@DEBUG_VALUE: mbedtls_base64_decode:slen <- [DW_OP_plus_uconst 40] [$sp+0]
	.loc	1 180 29 is_stmt 0              @ ../../../ThirdParty/mbedTLS/library/base64.c:180:29
	ldr	r0, __arm_cp.1_0
	ldrb	r0, [r0, r1]
.Ltmp102:
	.loc	1 180 13                        @ ../../../ThirdParty/mbedTLS/library/base64.c:180:13
	cmp	r0, #127
	beq	.LBB1_23
.Ltmp103:
@ %bb.21:                               @   in Loop: Header=BB1_4 Depth=1
	@DEBUG_VALUE: mbedtls_base64_decode:j <- $r6
	@DEBUG_VALUE: mbedtls_base64_decode:n <- $r5
	@DEBUG_VALUE: mbedtls_base64_decode:i <- $r4
	@DEBUG_VALUE: mbedtls_base64_decode:src <- $r3
	@DEBUG_VALUE: mbedtls_base64_decode:x <- $r2
	@DEBUG_VALUE: mbedtls_base64_decode:dst <- [DW_OP_plus_uconst 8] [$sp+0]
	@DEBUG_VALUE: mbedtls_base64_decode:dlen <- [$sp+0]
	@DEBUG_VALUE: mbedtls_base64_decode:olen <- [DW_OP_plus_uconst 4] [$sp+0]
	@DEBUG_VALUE: mbedtls_base64_decode:slen <- [DW_OP_plus_uconst 40] [$sp+0]
	.loc	1 183 41 is_stmt 1              @ ../../../ThirdParty/mbedTLS/library/base64.c:183:41
	cmp	r6, #0
	beq	.LBB1_2
.Ltmp104:
@ %bb.22:                               @   in Loop: Header=BB1_4 Depth=1
	@DEBUG_VALUE: mbedtls_base64_decode:j <- $r6
	@DEBUG_VALUE: mbedtls_base64_decode:n <- $r5
	@DEBUG_VALUE: mbedtls_base64_decode:i <- $r4
	@DEBUG_VALUE: mbedtls_base64_decode:src <- $r3
	@DEBUG_VALUE: mbedtls_base64_decode:x <- $r2
	@DEBUG_VALUE: mbedtls_base64_decode:dst <- [DW_OP_plus_uconst 8] [$sp+0]
	@DEBUG_VALUE: mbedtls_base64_decode:dlen <- [$sp+0]
	@DEBUG_VALUE: mbedtls_base64_decode:olen <- [DW_OP_plus_uconst 4] [$sp+0]
	@DEBUG_VALUE: mbedtls_base64_decode:slen <- [DW_OP_plus_uconst 40] [$sp+0]
	cmp	r0, #64
	bhs	.LBB1_2
.Ltmp105:
.LBB1_23:
	@DEBUG_VALUE: mbedtls_base64_decode:j <- $r6
	@DEBUG_VALUE: mbedtls_base64_decode:n <- $r5
	@DEBUG_VALUE: mbedtls_base64_decode:i <- $r4
	@DEBUG_VALUE: mbedtls_base64_decode:src <- $r3
	@DEBUG_VALUE: mbedtls_base64_decode:x <- $r2
	@DEBUG_VALUE: mbedtls_base64_decode:dst <- [DW_OP_plus_uconst 8] [$sp+0]
	@DEBUG_VALUE: mbedtls_base64_decode:dlen <- [$sp+0]
	@DEBUG_VALUE: mbedtls_base64_decode:olen <- [DW_OP_plus_uconst 4] [$sp+0]
	@DEBUG_VALUE: mbedtls_base64_decode:slen <- [DW_OP_plus_uconst 40] [$sp+0]
	.loc	1 0 41 is_stmt 0                @ ../../../ThirdParty/mbedTLS/library/base64.c:0:41
	movs	r0, #43
	mvns	r0, r0
	.loc	1 228 1 is_stmt 1               @ ../../../ThirdParty/mbedTLS/library/base64.c:228:1
	add	sp, #20
.Ltmp106:
	pop	{r4, r5, r6, r7, pc}
.Ltmp107:
.LBB1_24:
	@DEBUG_VALUE: mbedtls_base64_decode:src <- $r3
	@DEBUG_VALUE: mbedtls_base64_decode:dst <- [DW_OP_plus_uconst 8] [$sp+0]
	@DEBUG_VALUE: mbedtls_base64_decode:dlen <- [$sp+0]
	@DEBUG_VALUE: mbedtls_base64_decode:olen <- [DW_OP_plus_uconst 4] [$sp+0]
	@DEBUG_VALUE: mbedtls_base64_decode:slen <- [DW_OP_plus_uconst 40] [$sp+0]
	@DEBUG_VALUE: mbedtls_base64_decode:j <- 0
	@DEBUG_VALUE: mbedtls_base64_decode:n <- 0
	@DEBUG_VALUE: mbedtls_base64_decode:i <- 0
	.loc	1 0 1 is_stmt 0                 @ ../../../ThirdParty/mbedTLS/library/base64.c:0:1
	movs	r5, #0
.Ltmp108:
	.loc	1 152 20 is_stmt 1              @ ../../../ThirdParty/mbedTLS/library/base64.c:152:20
	mov	r6, r5
	.loc	1 152 12 is_stmt 0              @ ../../../ThirdParty/mbedTLS/library/base64.c:152:12
	mov	r4, r5
.Ltmp109:
.LBB1_25:
	@DEBUG_VALUE: mbedtls_base64_decode:src <- $r3
	@DEBUG_VALUE: mbedtls_base64_decode:dst <- [DW_OP_plus_uconst 8] [$sp+0]
	@DEBUG_VALUE: mbedtls_base64_decode:dlen <- [$sp+0]
	@DEBUG_VALUE: mbedtls_base64_decode:olen <- [DW_OP_plus_uconst 4] [$sp+0]
	@DEBUG_VALUE: mbedtls_base64_decode:slen <- [DW_OP_plus_uconst 40] [$sp+0]
	@DEBUG_VALUE: mbedtls_base64_decode:j <- $r6
	@DEBUG_VALUE: mbedtls_base64_decode:n <- $r5
	@DEBUG_VALUE: mbedtls_base64_decode:i <- $r4
	.loc	1 189 9 is_stmt 1               @ ../../../ThirdParty/mbedTLS/library/base64.c:189:9
	cmp	r5, #0
	beq	.LBB1_43
.Ltmp110:
@ %bb.26:
	@DEBUG_VALUE: mbedtls_base64_decode:j <- $r6
	@DEBUG_VALUE: mbedtls_base64_decode:n <- $r5
	@DEBUG_VALUE: mbedtls_base64_decode:i <- $r4
	@DEBUG_VALUE: mbedtls_base64_decode:src <- $r3
	@DEBUG_VALUE: mbedtls_base64_decode:dst <- [DW_OP_plus_uconst 8] [$sp+0]
	@DEBUG_VALUE: mbedtls_base64_decode:dlen <- [$sp+0]
	@DEBUG_VALUE: mbedtls_base64_decode:olen <- [DW_OP_plus_uconst 4] [$sp+0]
	@DEBUG_VALUE: mbedtls_base64_decode:slen <- [DW_OP_plus_uconst 40] [$sp+0]
	.loc	1 199 19                        @ ../../../ThirdParty/mbedTLS/library/base64.c:199:19
	lsrs	r0, r5, #3
	movs	r1, #6
	.loc	1 199 13 is_stmt 0              @ ../../../ThirdParty/mbedTLS/library/base64.c:199:13
	muls	r0, r1, r0
.Ltmp111:
	@DEBUG_VALUE: mbedtls_base64_decode:n <- undef
	.loc	1 199 28                        @ ../../../ThirdParty/mbedTLS/library/base64.c:199:28
	subs	r0, r0, r6
	movs	r2, #7
	.loc	1 199 42                        @ ../../../ThirdParty/mbedTLS/library/base64.c:199:42
	ands	r2, r5
	.loc	1 199 36                        @ ../../../ThirdParty/mbedTLS/library/base64.c:199:36
	muls	r2, r1, r2
	.loc	1 199 50                        @ ../../../ThirdParty/mbedTLS/library/base64.c:199:50
	adds	r1, r2, #7
	.loc	1 199 56                        @ ../../../ThirdParty/mbedTLS/library/base64.c:199:56
	lsrs	r1, r1, #3
	.loc	1 200 7 is_stmt 1               @ ../../../ThirdParty/mbedTLS/library/base64.c:200:7
	adds	r0, r0, r1
.Ltmp112:
	@DEBUG_VALUE: mbedtls_base64_decode:n <- $r0
	.loc	1 202 21                        @ ../../../ThirdParty/mbedTLS/library/base64.c:202:21
	ldr	r1, [sp, #8]                    @ 4-byte Reload
	cbz	r1, .LBB1_44
.Ltmp113:
@ %bb.27:
	@DEBUG_VALUE: mbedtls_base64_decode:j <- $r6
	@DEBUG_VALUE: mbedtls_base64_decode:i <- $r4
	@DEBUG_VALUE: mbedtls_base64_decode:src <- $r3
	@DEBUG_VALUE: mbedtls_base64_decode:n <- $r0
	@DEBUG_VALUE: mbedtls_base64_decode:dst <- [DW_OP_plus_uconst 8] [$sp+0]
	@DEBUG_VALUE: mbedtls_base64_decode:dlen <- [$sp+0]
	@DEBUG_VALUE: mbedtls_base64_decode:olen <- [DW_OP_plus_uconst 4] [$sp+0]
	@DEBUG_VALUE: mbedtls_base64_decode:slen <- [DW_OP_plus_uconst 40] [$sp+0]
	ldr	r1, [sp]                        @ 4-byte Reload
	cmp	r0, r1
	bhi	.LBB1_44
.Ltmp114:
@ %bb.28:
	@DEBUG_VALUE: mbedtls_base64_decode:j <- $r6
	@DEBUG_VALUE: mbedtls_base64_decode:i <- $r4
	@DEBUG_VALUE: mbedtls_base64_decode:src <- $r3
	@DEBUG_VALUE: mbedtls_base64_decode:n <- $r0
	@DEBUG_VALUE: mbedtls_base64_decode:dst <- [DW_OP_plus_uconst 8] [$sp+0]
	@DEBUG_VALUE: mbedtls_base64_decode:dlen <- [$sp+0]
	@DEBUG_VALUE: mbedtls_base64_decode:olen <- [DW_OP_plus_uconst 4] [$sp+0]
	@DEBUG_VALUE: mbedtls_base64_decode:slen <- [DW_OP_plus_uconst 40] [$sp+0]
	@DEBUG_VALUE: mbedtls_base64_decode:j <- 3
	@DEBUG_VALUE: mbedtls_base64_decode:n <- 0
	@DEBUG_VALUE: mbedtls_base64_decode:i <- $r4
	@DEBUG_VALUE: mbedtls_base64_decode:x <- 0
	@DEBUG_VALUE: mbedtls_base64_decode:p <- [DW_OP_plus_uconst 8] [$sp+0]
	.loc	1 208 5                         @ ../../../ThirdParty/mbedTLS/library/base64.c:208:5
	cmp	r4, #0
.Ltmp115:
	@DEBUG_VALUE: mbedtls_base64_decode:src <- undef
	.loc	1 208 30 is_stmt 0              @ ../../../ThirdParty/mbedTLS/library/base64.c:208:30
	ldr	r0, [sp, #8]                    @ 4-byte Reload
	.loc	1 208 5                         @ ../../../ThirdParty/mbedTLS/library/base64.c:208:5
	beq	.LBB1_45
.Ltmp116:
@ %bb.29:
	@DEBUG_VALUE: mbedtls_base64_decode:i <- $r4
	@DEBUG_VALUE: mbedtls_base64_decode:p <- [DW_OP_plus_uconst 8] [$sp+0]
	@DEBUG_VALUE: mbedtls_base64_decode:dst <- [DW_OP_plus_uconst 8] [$sp+0]
	@DEBUG_VALUE: mbedtls_base64_decode:dlen <- [$sp+0]
	@DEBUG_VALUE: mbedtls_base64_decode:olen <- [DW_OP_plus_uconst 4] [$sp+0]
	@DEBUG_VALUE: mbedtls_base64_decode:slen <- [DW_OP_plus_uconst 40] [$sp+0]
	@DEBUG_VALUE: mbedtls_base64_decode:j <- 3
	@DEBUG_VALUE: mbedtls_base64_decode:x <- 0
	@DEBUG_VALUE: mbedtls_base64_decode:n <- 0
	.loc	1 0 5                           @ ../../../ThirdParty/mbedTLS/library/base64.c:0:5
	movs	r0, #3
	str	r0, [sp, #16]                   @ 4-byte Spill
	movs	r2, #0
	ldr	r0, [sp, #8]                    @ 4-byte Reload
	mov	r7, r2
	b	.LBB1_32
.Ltmp117:
.LBB1_30:                               @   in Loop: Header=BB1_32 Depth=1
	@DEBUG_VALUE: mbedtls_base64_decode:i <- $r4
	@DEBUG_VALUE: mbedtls_base64_decode:src <- $r3
	@DEBUG_VALUE: mbedtls_base64_decode:p <- $r0
	@DEBUG_VALUE: mbedtls_base64_decode:j <- [DW_OP_plus_uconst 16] [$sp+0]
	@DEBUG_VALUE: mbedtls_base64_decode:dst <- [DW_OP_plus_uconst 8] [$sp+0]
	@DEBUG_VALUE: mbedtls_base64_decode:dlen <- [$sp+0]
	@DEBUG_VALUE: mbedtls_base64_decode:olen <- [DW_OP_plus_uconst 4] [$sp+0]
	@DEBUG_VALUE: mbedtls_base64_decode:slen <- [DW_OP_plus_uconst 40] [$sp+0]
	mov	r2, r6
.Ltmp118:
.LBB1_31:                               @   in Loop: Header=BB1_32 Depth=1
	@DEBUG_VALUE: mbedtls_base64_decode:i <- $r4
	@DEBUG_VALUE: mbedtls_base64_decode:src <- $r3
	@DEBUG_VALUE: mbedtls_base64_decode:p <- $r0
	@DEBUG_VALUE: mbedtls_base64_decode:j <- [DW_OP_plus_uconst 16] [$sp+0]
	@DEBUG_VALUE: mbedtls_base64_decode:dst <- [DW_OP_plus_uconst 8] [$sp+0]
	@DEBUG_VALUE: mbedtls_base64_decode:dlen <- [$sp+0]
	@DEBUG_VALUE: mbedtls_base64_decode:olen <- [DW_OP_plus_uconst 4] [$sp+0]
	@DEBUG_VALUE: mbedtls_base64_decode:slen <- [DW_OP_plus_uconst 40] [$sp+0]
	@DEBUG_VALUE: mbedtls_base64_decode:j <- [DW_OP_plus_uconst 16] [$sp+0]
	@DEBUG_VALUE: mbedtls_base64_decode:n <- $r7
	@DEBUG_VALUE: mbedtls_base64_decode:x <- $r2
	@DEBUG_VALUE: mbedtls_base64_decode:p <- $r0
	.loc	1 208 52                        @ ../../../ThirdParty/mbedTLS/library/base64.c:208:52
	adds	r3, r3, #1
.Ltmp119:
	@DEBUG_VALUE: mbedtls_base64_decode:src <- $r3
	.loc	1 208 45                        @ ../../../ThirdParty/mbedTLS/library/base64.c:208:45
	subs	r4, r4, #1
.Ltmp120:
	@DEBUG_VALUE: mbedtls_base64_decode:i <- $r4
	.loc	1 208 5                         @ ../../../ThirdParty/mbedTLS/library/base64.c:208:5
	beq	.LBB1_45
.Ltmp121:
.LBB1_32:                               @ =>This Inner Loop Header: Depth=1
	@DEBUG_VALUE: mbedtls_base64_decode:i <- $r4
	@DEBUG_VALUE: mbedtls_base64_decode:dst <- [DW_OP_plus_uconst 8] [$sp+0]
	@DEBUG_VALUE: mbedtls_base64_decode:dlen <- [$sp+0]
	@DEBUG_VALUE: mbedtls_base64_decode:olen <- [DW_OP_plus_uconst 4] [$sp+0]
	@DEBUG_VALUE: mbedtls_base64_decode:slen <- [DW_OP_plus_uconst 40] [$sp+0]
	@DEBUG_VALUE: mbedtls_base64_decode:src <- $r3
	@DEBUG_VALUE: mbedtls_base64_decode:j <- [DW_OP_plus_uconst 16] [$sp+0]
	@DEBUG_VALUE: mbedtls_base64_decode:n <- $r7
	@DEBUG_VALUE: mbedtls_base64_decode:i <- $r4
	@DEBUG_VALUE: mbedtls_base64_decode:x <- $r2
	@DEBUG_VALUE: mbedtls_base64_decode:p <- $r0
	.loc	1 210 13 is_stmt 1              @ ../../../ThirdParty/mbedTLS/library/base64.c:210:13
	ldrb	r5, [r3]
	.loc	1 210 26 is_stmt 0              @ ../../../ThirdParty/mbedTLS/library/base64.c:210:26
	mov	r6, r5
	subs	r6, #10
	cmp	r6, #22
	bhi	.LBB1_34
.Ltmp122:
@ %bb.33:                               @   in Loop: Header=BB1_32 Depth=1
	@DEBUG_VALUE: mbedtls_base64_decode:n <- $r7
	@DEBUG_VALUE: mbedtls_base64_decode:i <- $r4
	@DEBUG_VALUE: mbedtls_base64_decode:src <- $r3
	@DEBUG_VALUE: mbedtls_base64_decode:x <- $r2
	@DEBUG_VALUE: mbedtls_base64_decode:p <- $r0
	@DEBUG_VALUE: mbedtls_base64_decode:j <- [DW_OP_plus_uconst 16] [$sp+0]
	@DEBUG_VALUE: mbedtls_base64_decode:dst <- [DW_OP_plus_uconst 8] [$sp+0]
	@DEBUG_VALUE: mbedtls_base64_decode:dlen <- [$sp+0]
	@DEBUG_VALUE: mbedtls_base64_decode:olen <- [DW_OP_plus_uconst 4] [$sp+0]
	@DEBUG_VALUE: mbedtls_base64_decode:slen <- [DW_OP_plus_uconst 40] [$sp+0]
	.loc	1 0 26                          @ ../../../ThirdParty/mbedTLS/library/base64.c:0:26
	movs	r1, #1
	lsls	r1, r6
	ldr	r6, __arm_cp.1_1
	tst	r1, r6
	bne	.LBB1_31
.Ltmp123:
.LBB1_34:                               @   in Loop: Header=BB1_32 Depth=1
	@DEBUG_VALUE: mbedtls_base64_decode:n <- $r7
	@DEBUG_VALUE: mbedtls_base64_decode:i <- $r4
	@DEBUG_VALUE: mbedtls_base64_decode:src <- $r3
	@DEBUG_VALUE: mbedtls_base64_decode:x <- $r2
	@DEBUG_VALUE: mbedtls_base64_decode:p <- $r0
	@DEBUG_VALUE: mbedtls_base64_decode:j <- [DW_OP_plus_uconst 16] [$sp+0]
	@DEBUG_VALUE: mbedtls_base64_decode:dst <- [DW_OP_plus_uconst 8] [$sp+0]
	@DEBUG_VALUE: mbedtls_base64_decode:dlen <- [$sp+0]
	@DEBUG_VALUE: mbedtls_base64_decode:olen <- [DW_OP_plus_uconst 4] [$sp+0]
	@DEBUG_VALUE: mbedtls_base64_decode:slen <- [DW_OP_plus_uconst 40] [$sp+0]
	.loc	1 213 11 is_stmt 1              @ ../../../ThirdParty/mbedTLS/library/base64.c:213:11
	cmp	r5, #61
	bne	.LBB1_36
.Ltmp124:
@ %bb.35:                               @   in Loop: Header=BB1_32 Depth=1
	@DEBUG_VALUE: mbedtls_base64_decode:n <- $r7
	@DEBUG_VALUE: mbedtls_base64_decode:i <- $r4
	@DEBUG_VALUE: mbedtls_base64_decode:src <- $r3
	@DEBUG_VALUE: mbedtls_base64_decode:x <- $r2
	@DEBUG_VALUE: mbedtls_base64_decode:p <- $r0
	@DEBUG_VALUE: mbedtls_base64_decode:j <- [DW_OP_plus_uconst 16] [$sp+0]
	@DEBUG_VALUE: mbedtls_base64_decode:dst <- [DW_OP_plus_uconst 8] [$sp+0]
	@DEBUG_VALUE: mbedtls_base64_decode:dlen <- [$sp+0]
	@DEBUG_VALUE: mbedtls_base64_decode:olen <- [DW_OP_plus_uconst 4] [$sp+0]
	@DEBUG_VALUE: mbedtls_base64_decode:slen <- [DW_OP_plus_uconst 40] [$sp+0]
	.loc	1 0 11 is_stmt 0                @ ../../../ThirdParty/mbedTLS/library/base64.c:0:11
	ldr	r1, [sp, #16]                   @ 4-byte Reload
	subs	r1, r1, #1
	str	r1, [sp, #16]                   @ 4-byte Spill
.Ltmp125:
.LBB1_36:                               @   in Loop: Header=BB1_32 Depth=1
	@DEBUG_VALUE: mbedtls_base64_decode:n <- $r7
	@DEBUG_VALUE: mbedtls_base64_decode:i <- $r4
	@DEBUG_VALUE: mbedtls_base64_decode:src <- $r3
	@DEBUG_VALUE: mbedtls_base64_decode:x <- $r2
	@DEBUG_VALUE: mbedtls_base64_decode:p <- $r0
	@DEBUG_VALUE: mbedtls_base64_decode:j <- [DW_OP_plus_uconst 16] [$sp+0]
	@DEBUG_VALUE: mbedtls_base64_decode:dst <- [DW_OP_plus_uconst 8] [$sp+0]
	@DEBUG_VALUE: mbedtls_base64_decode:dlen <- [$sp+0]
	@DEBUG_VALUE: mbedtls_base64_decode:olen <- [DW_OP_plus_uconst 4] [$sp+0]
	@DEBUG_VALUE: mbedtls_base64_decode:slen <- [DW_OP_plus_uconst 40] [$sp+0]
	@DEBUG_VALUE: mbedtls_base64_decode:j <- [DW_OP_plus_uconst 16] [$sp+0]
	.loc	1 213 16                        @ ../../../ThirdParty/mbedTLS/library/base64.c:213:16
	ldr	r1, __arm_cp.1_0
	ldrb	r1, [r1, r5]
	movs	r5, #63
	.loc	1 214 50 is_stmt 1              @ ../../../ThirdParty/mbedTLS/library/base64.c:214:50
	ands	r5, r1
	.loc	1 214 18 is_stmt 0              @ ../../../ThirdParty/mbedTLS/library/base64.c:214:18
	lsls	r1, r2, #6
	.loc	1 214 25                        @ ../../../ThirdParty/mbedTLS/library/base64.c:214:25
	adds	r6, r1, r5
.Ltmp126:
	@DEBUG_VALUE: mbedtls_base64_decode:x <- undef
	.loc	1 216 13 is_stmt 1              @ ../../../ThirdParty/mbedTLS/library/base64.c:216:13
	adds	r7, r7, #1
.Ltmp127:
	@DEBUG_VALUE: mbedtls_base64_decode:n <- $r7
	.loc	1 216 13 is_stmt 0              @ ../../../ThirdParty/mbedTLS/library/base64.c:216:13
	cmp	r7, #4
	bne	.LBB1_30
.Ltmp128:
@ %bb.37:                               @   in Loop: Header=BB1_32 Depth=1
	@DEBUG_VALUE: mbedtls_base64_decode:n <- $r7
	@DEBUG_VALUE: mbedtls_base64_decode:i <- $r4
	@DEBUG_VALUE: mbedtls_base64_decode:src <- $r3
	@DEBUG_VALUE: mbedtls_base64_decode:p <- $r0
	@DEBUG_VALUE: mbedtls_base64_decode:j <- [DW_OP_plus_uconst 16] [$sp+0]
	@DEBUG_VALUE: mbedtls_base64_decode:dst <- [DW_OP_plus_uconst 8] [$sp+0]
	@DEBUG_VALUE: mbedtls_base64_decode:dlen <- [$sp+0]
	@DEBUG_VALUE: mbedtls_base64_decode:olen <- [DW_OP_plus_uconst 4] [$sp+0]
	@DEBUG_VALUE: mbedtls_base64_decode:slen <- [DW_OP_plus_uconst 40] [$sp+0]
	@DEBUG_VALUE: mbedtls_base64_decode:n <- 0
	.loc	1 219 17 is_stmt 1              @ ../../../ThirdParty/mbedTLS/library/base64.c:219:17
	ldr	r1, [sp, #16]                   @ 4-byte Reload
	cbz	r1, .LBB1_39
.Ltmp129:
@ %bb.38:                               @   in Loop: Header=BB1_32 Depth=1
	@DEBUG_VALUE: mbedtls_base64_decode:i <- $r4
	@DEBUG_VALUE: mbedtls_base64_decode:src <- $r3
	@DEBUG_VALUE: mbedtls_base64_decode:p <- $r0
	@DEBUG_VALUE: mbedtls_base64_decode:j <- [DW_OP_plus_uconst 16] [$sp+0]
	@DEBUG_VALUE: mbedtls_base64_decode:dst <- [DW_OP_plus_uconst 8] [$sp+0]
	@DEBUG_VALUE: mbedtls_base64_decode:dlen <- [$sp+0]
	@DEBUG_VALUE: mbedtls_base64_decode:olen <- [DW_OP_plus_uconst 4] [$sp+0]
	@DEBUG_VALUE: mbedtls_base64_decode:slen <- [DW_OP_plus_uconst 40] [$sp+0]
	@DEBUG_VALUE: mbedtls_base64_decode:n <- 0
	.loc	1 219 51 is_stmt 0              @ ../../../ThirdParty/mbedTLS/library/base64.c:219:51
	lsrs	r1, r2, #10
	.loc	1 219 30                        @ ../../../ThirdParty/mbedTLS/library/base64.c:219:30
	strb	r1, [r0]
	.loc	1 219 27                        @ ../../../ThirdParty/mbedTLS/library/base64.c:219:27
	adds	r0, r0, #1
.Ltmp130:
	@DEBUG_VALUE: mbedtls_base64_decode:p <- $r0
.LBB1_39:                               @   in Loop: Header=BB1_32 Depth=1
	@DEBUG_VALUE: mbedtls_base64_decode:i <- $r4
	@DEBUG_VALUE: mbedtls_base64_decode:src <- $r3
	@DEBUG_VALUE: mbedtls_base64_decode:p <- $r0
	@DEBUG_VALUE: mbedtls_base64_decode:j <- [DW_OP_plus_uconst 16] [$sp+0]
	@DEBUG_VALUE: mbedtls_base64_decode:dst <- [DW_OP_plus_uconst 8] [$sp+0]
	@DEBUG_VALUE: mbedtls_base64_decode:dlen <- [$sp+0]
	@DEBUG_VALUE: mbedtls_base64_decode:olen <- [DW_OP_plus_uconst 4] [$sp+0]
	@DEBUG_VALUE: mbedtls_base64_decode:slen <- [DW_OP_plus_uconst 40] [$sp+0]
	@DEBUG_VALUE: mbedtls_base64_decode:n <- 0
	@DEBUG_VALUE: mbedtls_base64_decode:p <- $r0
	.loc	1 220 17 is_stmt 1              @ ../../../ThirdParty/mbedTLS/library/base64.c:220:17
	ldr	r1, [sp, #16]                   @ 4-byte Reload
	cmp	r1, #2
	blo	.LBB1_41
.Ltmp131:
@ %bb.40:                               @   in Loop: Header=BB1_32 Depth=1
	@DEBUG_VALUE: mbedtls_base64_decode:i <- $r4
	@DEBUG_VALUE: mbedtls_base64_decode:src <- $r3
	@DEBUG_VALUE: mbedtls_base64_decode:p <- $r0
	@DEBUG_VALUE: mbedtls_base64_decode:j <- [DW_OP_plus_uconst 16] [$sp+0]
	@DEBUG_VALUE: mbedtls_base64_decode:dst <- [DW_OP_plus_uconst 8] [$sp+0]
	@DEBUG_VALUE: mbedtls_base64_decode:dlen <- [$sp+0]
	@DEBUG_VALUE: mbedtls_base64_decode:olen <- [DW_OP_plus_uconst 4] [$sp+0]
	@DEBUG_VALUE: mbedtls_base64_decode:slen <- [DW_OP_plus_uconst 40] [$sp+0]
	@DEBUG_VALUE: mbedtls_base64_decode:n <- 0
	.loc	1 220 51 is_stmt 0              @ ../../../ThirdParty/mbedTLS/library/base64.c:220:51
	lsrs	r1, r2, #2
	.loc	1 220 30                        @ ../../../ThirdParty/mbedTLS/library/base64.c:220:30
	strb	r1, [r0]
	.loc	1 220 27                        @ ../../../ThirdParty/mbedTLS/library/base64.c:220:27
	adds	r0, r0, #1
.Ltmp132:
	@DEBUG_VALUE: mbedtls_base64_decode:p <- $r0
.LBB1_41:                               @   in Loop: Header=BB1_32 Depth=1
	@DEBUG_VALUE: mbedtls_base64_decode:i <- $r4
	@DEBUG_VALUE: mbedtls_base64_decode:src <- $r3
	@DEBUG_VALUE: mbedtls_base64_decode:p <- $r0
	@DEBUG_VALUE: mbedtls_base64_decode:j <- [DW_OP_plus_uconst 16] [$sp+0]
	@DEBUG_VALUE: mbedtls_base64_decode:dst <- [DW_OP_plus_uconst 8] [$sp+0]
	@DEBUG_VALUE: mbedtls_base64_decode:dlen <- [$sp+0]
	@DEBUG_VALUE: mbedtls_base64_decode:olen <- [DW_OP_plus_uconst 4] [$sp+0]
	@DEBUG_VALUE: mbedtls_base64_decode:slen <- [DW_OP_plus_uconst 40] [$sp+0]
	@DEBUG_VALUE: mbedtls_base64_decode:n <- 0
	@DEBUG_VALUE: mbedtls_base64_decode:p <- $r0
	.loc	1 0 27                          @ ../../../ThirdParty/mbedTLS/library/base64.c:0:27
	movs	r7, #0
	.loc	1 221 17 is_stmt 1              @ ../../../ThirdParty/mbedTLS/library/base64.c:221:17
	ldr	r1, [sp, #16]                   @ 4-byte Reload
	cmp	r1, #3
	blo	.LBB1_30
.Ltmp133:
@ %bb.42:                               @   in Loop: Header=BB1_32 Depth=1
	@DEBUG_VALUE: mbedtls_base64_decode:i <- $r4
	@DEBUG_VALUE: mbedtls_base64_decode:src <- $r3
	@DEBUG_VALUE: mbedtls_base64_decode:p <- $r0
	@DEBUG_VALUE: mbedtls_base64_decode:j <- [DW_OP_plus_uconst 16] [$sp+0]
	@DEBUG_VALUE: mbedtls_base64_decode:dst <- [DW_OP_plus_uconst 8] [$sp+0]
	@DEBUG_VALUE: mbedtls_base64_decode:dlen <- [$sp+0]
	@DEBUG_VALUE: mbedtls_base64_decode:olen <- [DW_OP_plus_uconst 4] [$sp+0]
	@DEBUG_VALUE: mbedtls_base64_decode:slen <- [DW_OP_plus_uconst 40] [$sp+0]
	@DEBUG_VALUE: mbedtls_base64_decode:n <- 0
	.loc	1 221 30 is_stmt 0              @ ../../../ThirdParty/mbedTLS/library/base64.c:221:30
	strb	r6, [r0]
	.loc	1 221 27                        @ ../../../ThirdParty/mbedTLS/library/base64.c:221:27
	adds	r0, r0, #1
.Ltmp134:
	@DEBUG_VALUE: mbedtls_base64_decode:p <- $r0
	.loc	1 0 27                          @ ../../../ThirdParty/mbedTLS/library/base64.c:0:27
	b	.LBB1_30
.Ltmp135:
.LBB1_43:
	@DEBUG_VALUE: mbedtls_base64_decode:j <- $r6
	@DEBUG_VALUE: mbedtls_base64_decode:n <- $r5
	@DEBUG_VALUE: mbedtls_base64_decode:i <- $r4
	@DEBUG_VALUE: mbedtls_base64_decode:src <- $r3
	@DEBUG_VALUE: mbedtls_base64_decode:dst <- [DW_OP_plus_uconst 8] [$sp+0]
	@DEBUG_VALUE: mbedtls_base64_decode:dlen <- [$sp+0]
	@DEBUG_VALUE: mbedtls_base64_decode:olen <- [DW_OP_plus_uconst 4] [$sp+0]
	@DEBUG_VALUE: mbedtls_base64_decode:slen <- [DW_OP_plus_uconst 40] [$sp+0]
	movs	r0, #0
.Ltmp136:
	.loc	1 191 15 is_stmt 1              @ ../../../ThirdParty/mbedTLS/library/base64.c:191:15
	ldr	r1, [sp, #4]                    @ 4-byte Reload
	str	r0, [r1]
.Ltmp137:
	.loc	1 228 1                         @ ../../../ThirdParty/mbedTLS/library/base64.c:228:1
	add	sp, #20
.Ltmp138:
	pop	{r4, r5, r6, r7, pc}
.Ltmp139:
.LBB1_44:
	@DEBUG_VALUE: mbedtls_base64_decode:j <- $r6
	@DEBUG_VALUE: mbedtls_base64_decode:i <- $r4
	@DEBUG_VALUE: mbedtls_base64_decode:src <- $r3
	@DEBUG_VALUE: mbedtls_base64_decode:n <- $r0
	@DEBUG_VALUE: mbedtls_base64_decode:dst <- [DW_OP_plus_uconst 8] [$sp+0]
	@DEBUG_VALUE: mbedtls_base64_decode:dlen <- [$sp+0]
	@DEBUG_VALUE: mbedtls_base64_decode:olen <- [DW_OP_plus_uconst 4] [$sp+0]
	@DEBUG_VALUE: mbedtls_base64_decode:slen <- [DW_OP_plus_uconst 40] [$sp+0]
	.loc	1 204 15                        @ ../../../ThirdParty/mbedTLS/library/base64.c:204:15
	ldr	r1, [sp, #4]                    @ 4-byte Reload
	str	r0, [r1]
	movs	r0, #43
.Ltmp140:
	.loc	1 0 15 is_stmt 0                @ ../../../ThirdParty/mbedTLS/library/base64.c:0:15
	mvns	r0, r0
.Ltmp141:
	adds	r0, r0, #2
	.loc	1 228 1 is_stmt 1               @ ../../../ThirdParty/mbedTLS/library/base64.c:228:1
	add	sp, #20
.Ltmp142:
	pop	{r4, r5, r6, r7, pc}
.Ltmp143:
.LBB1_45:
	@DEBUG_VALUE: mbedtls_base64_decode:i <- $r4
	@DEBUG_VALUE: mbedtls_base64_decode:dst <- [DW_OP_plus_uconst 8] [$sp+0]
	@DEBUG_VALUE: mbedtls_base64_decode:dlen <- [$sp+0]
	@DEBUG_VALUE: mbedtls_base64_decode:olen <- [DW_OP_plus_uconst 4] [$sp+0]
	@DEBUG_VALUE: mbedtls_base64_decode:slen <- [DW_OP_plus_uconst 40] [$sp+0]
	@DEBUG_VALUE: mbedtls_base64_decode:p <- $r0
	.loc	1 225 15                        @ ../../../ThirdParty/mbedTLS/library/base64.c:225:15
	ldr	r1, [sp, #8]                    @ 4-byte Reload
	subs	r0, r0, r1
.Ltmp144:
	.loc	1 225 11 is_stmt 0              @ ../../../ThirdParty/mbedTLS/library/base64.c:225:11
	ldr	r1, [sp, #4]                    @ 4-byte Reload
	str	r0, [r1]
	movs	r0, #0
	.loc	1 228 1 is_stmt 1               @ ../../../ThirdParty/mbedTLS/library/base64.c:228:1
	add	sp, #20
.Ltmp145:
	pop	{r4, r5, r6, r7, pc}
.Ltmp146:
	.p2align	2
@ %bb.46:
	.loc	1 0 1 is_stmt 0                 @ ../../../ThirdParty/mbedTLS/library/base64.c:0:1
__arm_cp.1_0:
	.long	base64_dec_map
.Lcpi_end1:
	.size	__arm_cp.1_0, .Lcpi_end1-__arm_cp.1_0
__arm_cp.1_1:
	.long	4194313                         @ 0x400009
.Lcpi_end2:
	.size	__arm_cp.1_1, .Lcpi_end2-__arm_cp.1_1
.Lfunc_end1:
	.size	mbedtls_base64_decode, .Lfunc_end1-mbedtls_base64_decode
	.cfi_endproc
	.cantunwind
	.fnend
                                        @ -- End function
	.section	.text.mbedtls_base64_self_test,"ax",%progbits
	.hidden	mbedtls_base64_self_test        @ -- Begin function mbedtls_base64_self_test
	.globl	mbedtls_base64_self_test
	.p2align	2
	.type	mbedtls_base64_self_test,%function
	.code	16                              @ @mbedtls_base64_self_test
	.thumb_func
mbedtls_base64_self_test:
.Lfunc_begin2:
	.loc	1 252 0 is_stmt 1               @ ../../../ThirdParty/mbedTLS/library/base64.c:252:0
	.fnstart
	.cfi_startproc
@ %bb.0:
	@DEBUG_VALUE: mbedtls_base64_self_test:verbose <- $r0
	.save	{r4, r5, r7, lr}
	push	{r4, r5, r7, lr}
	.cfi_def_cfa_offset 16
	.cfi_offset lr, -4
	.cfi_offset r7, -8
	.cfi_offset r5, -12
	.cfi_offset r4, -16
	.pad	#136
	sub	sp, #136
	.cfi_def_cfa_offset 152
	mov	r4, r0
.Ltmp147:
	@DEBUG_VALUE: mbedtls_base64_self_test:verbose <- $r4
	.loc	1 257 9 prologue_end            @ ../../../ThirdParty/mbedTLS/library/base64.c:257:9
	cbz	r0, .LBB2_2
.Ltmp148:
@ %bb.1:
	@DEBUG_VALUE: mbedtls_base64_self_test:verbose <- $r4
	.loc	1 258 9                         @ ../../../ThirdParty/mbedTLS/library/base64.c:258:9
	adr	r0, .LCPI2_0
	bl	__2printf
.Ltmp149:
.LBB2_2:
	@DEBUG_VALUE: mbedtls_base64_self_test:verbose <- $r4
	@DEBUG_VALUE: mbedtls_base64_self_test:len <- [DW_OP_plus_uconst 132, DW_OP_deref] $sp
	.loc	1 0 9 is_stmt 0                 @ ../../../ThirdParty/mbedTLS/library/base64.c:0:9
	movs	r0, #64
.Ltmp150:
	.loc	1 262 9 is_stmt 1               @ ../../../ThirdParty/mbedTLS/library/base64.c:262:9
	str	r0, [sp]
	add	r0, sp, #4
	movs	r1, #128
	add	r2, sp, #132
	ldr	r3, __arm_cp.2_1
.Ltmp151:
	@DEBUG_VALUE: mbedtls_base64_self_test:src <- $r3
	bl	mbedtls_base64_encode
.Ltmp152:
	.loc	1 262 79 is_stmt 0              @ ../../../ThirdParty/mbedTLS/library/base64.c:262:79
	cbnz	r0, .LBB2_4
.Ltmp153:
@ %bb.3:
	@DEBUG_VALUE: mbedtls_base64_self_test:verbose <- $r4
	@DEBUG_VALUE: mbedtls_base64_self_test:len <- [DW_OP_plus_uconst 132, DW_OP_deref] $sp
	.loc	1 263 13 is_stmt 1              @ ../../../ThirdParty/mbedTLS/library/base64.c:263:13
	ldr	r0, __arm_cp.2_2
	add	r1, sp, #4
	movs	r5, #88
	mov	r2, r5
	bl	memcmp
.Ltmp154:
	.loc	1 262 9                         @ ../../../ThirdParty/mbedTLS/library/base64.c:262:9
	cbz	r0, .LBB2_7
.Ltmp155:
.LBB2_4:
	@DEBUG_VALUE: mbedtls_base64_self_test:verbose <- $r4
	@DEBUG_VALUE: mbedtls_base64_self_test:len <- [DW_OP_plus_uconst 132, DW_OP_deref] $sp
	.loc	1 0 9 is_stmt 0                 @ ../../../ThirdParty/mbedTLS/library/base64.c:0:9
	movs	r5, #1
.Ltmp156:
	.loc	1 265 13 is_stmt 1              @ ../../../ThirdParty/mbedTLS/library/base64.c:265:13
	cbz	r4, .LBB2_6
.Ltmp157:
@ %bb.5:
	@DEBUG_VALUE: mbedtls_base64_self_test:verbose <- $r4
	@DEBUG_VALUE: mbedtls_base64_self_test:len <- [DW_OP_plus_uconst 132, DW_OP_deref] $sp
	.loc	1 266 13                        @ ../../../ThirdParty/mbedTLS/library/base64.c:266:13
	adr	r0, .LCPI2_3
	bl	puts
.Ltmp158:
.LBB2_6:
	@DEBUG_VALUE: mbedtls_base64_self_test:verbose <- $r4
	@DEBUG_VALUE: mbedtls_base64_self_test:len <- [DW_OP_plus_uconst 132, DW_OP_deref] $sp
	.loc	1 289 1                         @ ../../../ThirdParty/mbedTLS/library/base64.c:289:1
	mov	r0, r5
	add	sp, #136
.Ltmp159:
	pop	{r4, r5, r7, pc}
.Ltmp160:
.LBB2_7:
	@DEBUG_VALUE: mbedtls_base64_self_test:verbose <- $r4
	@DEBUG_VALUE: mbedtls_base64_self_test:len <- [DW_OP_plus_uconst 132, DW_OP_deref] $sp
	.loc	1 271 9                         @ ../../../ThirdParty/mbedTLS/library/base64.c:271:9
	cbz	r4, .LBB2_9
.Ltmp161:
@ %bb.8:
	@DEBUG_VALUE: mbedtls_base64_self_test:verbose <- $r4
	@DEBUG_VALUE: mbedtls_base64_self_test:len <- [DW_OP_plus_uconst 132, DW_OP_deref] $sp
	.loc	1 272 9                         @ ../../../ThirdParty/mbedTLS/library/base64.c:272:9
	adr	r0, .LCPI2_4
	bl	__2printf
.Ltmp162:
.LBB2_9:
	@DEBUG_VALUE: mbedtls_base64_self_test:verbose <- $r4
	@DEBUG_VALUE: mbedtls_base64_self_test:len <- [DW_OP_plus_uconst 132, DW_OP_deref] $sp
	@DEBUG_VALUE: mbedtls_base64_self_test:len <- [DW_OP_plus_uconst 132, DW_OP_deref] $sp
	.loc	1 276 9                         @ ../../../ThirdParty/mbedTLS/library/base64.c:276:9
	str	r5, [sp]
	add	r0, sp, #4
	movs	r1, #128
	add	r2, sp, #132
	ldr	r3, __arm_cp.2_2
.Ltmp163:
	@DEBUG_VALUE: mbedtls_base64_self_test:src <- $r3
	bl	mbedtls_base64_decode
.Ltmp164:
	.loc	1 276 79 is_stmt 0              @ ../../../ThirdParty/mbedTLS/library/base64.c:276:79
	cbnz	r0, .LBB2_11
.Ltmp165:
@ %bb.10:
	@DEBUG_VALUE: mbedtls_base64_self_test:verbose <- $r4
	@DEBUG_VALUE: mbedtls_base64_self_test:len <- [DW_OP_plus_uconst 132, DW_OP_deref] $sp
	.loc	1 277 13 is_stmt 1              @ ../../../ThirdParty/mbedTLS/library/base64.c:277:13
	ldr	r0, __arm_cp.2_1
	add	r1, sp, #4
	movs	r2, #64
	bl	memcmp
.Ltmp166:
	.loc	1 276 9                         @ ../../../ThirdParty/mbedTLS/library/base64.c:276:9
	cbz	r0, .LBB2_13
.Ltmp167:
.LBB2_11:
	@DEBUG_VALUE: mbedtls_base64_self_test:verbose <- $r4
	@DEBUG_VALUE: mbedtls_base64_self_test:len <- [DW_OP_plus_uconst 132, DW_OP_deref] $sp
	.loc	1 0 9 is_stmt 0                 @ ../../../ThirdParty/mbedTLS/library/base64.c:0:9
	movs	r5, #1
.Ltmp168:
	.loc	1 279 13 is_stmt 1              @ ../../../ThirdParty/mbedTLS/library/base64.c:279:13
	cmp	r4, #0
	beq	.LBB2_6
.Ltmp169:
@ %bb.12:
	@DEBUG_VALUE: mbedtls_base64_self_test:verbose <- $r4
	@DEBUG_VALUE: mbedtls_base64_self_test:len <- [DW_OP_plus_uconst 132, DW_OP_deref] $sp
	.loc	1 280 13                        @ ../../../ThirdParty/mbedTLS/library/base64.c:280:13
	adr	r0, .LCPI2_3
	bl	puts
	b	.LBB2_6
.Ltmp170:
.LBB2_13:
	@DEBUG_VALUE: mbedtls_base64_self_test:verbose <- $r4
	@DEBUG_VALUE: mbedtls_base64_self_test:len <- [DW_OP_plus_uconst 132, DW_OP_deref] $sp
	.loc	1 0 13 is_stmt 0                @ ../../../ThirdParty/mbedTLS/library/base64.c:0:13
	movs	r5, #0
	.loc	1 285 9 is_stmt 1               @ ../../../ThirdParty/mbedTLS/library/base64.c:285:9
	cmp	r4, #0
	beq	.LBB2_6
.Ltmp171:
@ %bb.14:
	@DEBUG_VALUE: mbedtls_base64_self_test:verbose <- $r4
	@DEBUG_VALUE: mbedtls_base64_self_test:len <- [DW_OP_plus_uconst 132, DW_OP_deref] $sp
	.loc	1 286 9                         @ ../../../ThirdParty/mbedTLS/library/base64.c:286:9
	adr	r0, .LCPI2_5
	bl	puts
	b	.LBB2_6
.Ltmp172:
	.p2align	2
@ %bb.15:
	.loc	1 0 9 is_stmt 0                 @ ../../../ThirdParty/mbedTLS/library/base64.c:0:9
.LCPI2_0:
.L.str:
	.asciz	"  Base64 encoding test: \000\000\000"
__arm_cp.2_1:
	.long	base64_test_dec
.Lcpi_end3:
	.size	__arm_cp.2_1, .Lcpi_end3-__arm_cp.2_1
__arm_cp.2_2:
	.long	base64_test_enc
.Lcpi_end4:
	.size	__arm_cp.2_2, .Lcpi_end4-__arm_cp.2_2
.LCPI2_3:
.Lstr.5:
.Lstr.4:
	.asciz	"failed\000"
.LCPI2_4:
.L.str.2:
	.asciz	"passed\n  Base64 decoding test: "
.LCPI2_5:
.Lstr:
	.asciz	"passed\n"
.Lfunc_end2:
	.size	mbedtls_base64_self_test, .Lfunc_end2-mbedtls_base64_self_test
	.cfi_endproc
	.cantunwind
	.fnend
                                        @ -- End function
	.type	base64_enc_map,%object          @ @base64_enc_map
	.section	.rodata.base64_enc_map,"a",%progbits
base64_enc_map:
	.ascii	"ABCDEFGHIJKLMNOPQRSTUVWXYZabcdefghijklmnopqrstuvwxyz0123456789+/"
	.size	base64_enc_map, 64

	.type	base64_dec_map,%object          @ @base64_dec_map
	.section	.rodata.base64_dec_map,"a",%progbits
base64_dec_map:
	.ascii	"\177\177\177\177\177\177\177\177\177\177\177\177\177\177\177\177\177\177\177\177\177\177\177\177\177\177\177\177\177\177\177\177\177\177\177\177\177\177\177\177\177\177\177>\177\177\177?456789:;<=\177\177\177@\177\177\177\000\001\002\003\004\005\006\007\b\t\n\013\f\r\016\017\020\021\022\023\024\025\026\027\030\031\177\177\177\177\177\177\032\033\034\035\036\037 !\"#$%&'()*+,-./0123\177\177\177\177\177"
	.size	base64_dec_map, 128

	.type	base64_test_dec,%object         @ @base64_test_dec
	.section	.rodata.base64_test_dec,"a",%progbits
base64_test_dec:
	.ascii	"$HnV\207bZ\275\277\027\331\242\304\027\032\001\224\355\217\036\021\263\327\t\f\266\351\020o\"\356\023\312\263\007\005v\311\3721l\b4\377\215\302l8\000C\351T\227\257PK\321A\272\2251Z\013\227"
	.size	base64_test_dec, 64

	.type	base64_test_enc,%object         @ @base64_test_enc
	.section	.rodata.base64_test_enc,"a",%progbits
base64_test_enc:
	.asciz	"JEhuVodiWr2/F9mixBcaAZTtjx4Rs9cJDLbpEG8i7hPKswcFdsn6MWwINP+Nwmw4AEPpVJevUEvRQbqVMVoLlw=="
	.size	base64_test_enc, 89

	.file	3 "C:\\" "Keil_v5\\ARM\\ARMCLANG\\Bin\\..\\include\\stdint.h"
	.section	".note.GNU-stack","",%progbits
	.eabi_attribute	30, 1	@ Tag_ABI_optimization_goals
	.ARM_attribute	16, 1	@ Tag_AV_eba