	.text
	.syntax unified
	.eabi_attribute	67, "2.09"	@ Tag_conformance
	.cpu	cortex-m23
	.eabi_attribute	6, 16	@ Tag_CPU_arch
	.eabi_attribute	7, 77	@ Tag_CPU_arch_profile
	.eabi_attribute	8, 0	@ Tag_ARM_ISA_use
	.eabi_attribute	9, 3	@ Tag_THUMB_ISA_use
	.eabi_attribute	34, 0	@ Tag_CPU_unaligned_access
	.eabi_attribute	17, 1	@ Tag_ABI_PCS_GOT_use
	.eabi_attribute	20, 2	@ Tag_ABI_FP_denormal
	.eabi_attribute	21, 0	@ Tag_ABI_FP_exceptions
	.eabi_attribute	23, 1	@ Tag_ABI_FP_number_model
	.eabi_attribute	24, 1	@ Tag_ABI_align_needed
	.eabi_attribute	25, 1	@ Tag_ABI_align_preserved
	.eabi_attribute	38, 1	@ Tag_ABI_FP_16bit_format
	.eabi_attribute	18, 2	@ Tag_ABI_PCS_wchar_t
	.eabi_attribute	26, 1	@ Tag_ABI_enum_size
	.eabi_attribute	14, 0	@ Tag_ABI_PCS_R9_use
	.file	"bignum.c"
	.file	1 "C:\\Users\\shw26\\OneDrive\\Desktop\\2021\\2021-1\\\354\272\241\354\212\244\355\206\244\353\224\224\354\236\220\354\235\2702\\Nuvoton\\M2351_BSP_v3.00.004\\M2351Series_BSP_CMSIS_V3.00.004\\MyProject\\PulseMonitoring\\Secure" "../../../ThirdParty/mbedTLS/library/bignum.c"
	.file	2 "C:\\Users\\shw26\\OneDrive\\Desktop\\2021\\2021-1\\\354\272\241\354\212\244\355\206\244\353\224\224\354\236\220\354\235\2702\\Nuvoton\\M2351_BSP_v3.00.004\\M2351Series_BSP_CMSIS_V3.00.004\\MyProject\\PulseMonitoring\\Secure" "../../../ThirdParty/mbedTLS/include/mbedtls/bignum.h"
	.file	3 "C:\\" "Keil_v5\\ARM\\ARMCLANG\\Bin\\..\\include\\stdint.h"
	.file	4 "C:\\" "Keil_v5\\ARM\\ARMCLANG\\Bin\\..\\include\\stddef.h"
	.section	.text.mbedtls_mpi_init,"ax",%progbits
	.hidden	mbedtls_mpi_init                @ -- Begin function mbedtls_mpi_init
	.globl	mbedtls_mpi_init
	.p2align	1
	.type	mbedtls_mpi_init,%function
	.code	16                              @ @mbedtls_mpi_init
	.thumb_func
mbedtls_mpi_init:
.Lfunc_begin0:
	.loc	1 90 0                          @ ../../../ThirdParty/mbedTLS/library/bignum.c:90:0
	.fnstart
	.cfi_sections .debug_frame
	.cfi_startproc
@ %bb.0:
	@DEBUG_VALUE: mbedtls_mpi_init:X <- $r0
	movs	r1, #0
	movs	r2, #1
	@DEBUG_VALUE: mbedtls_mpi_init:X <- $r0
.Ltmp0:
	.loc	1 93 10 prologue_end            @ ../../../ThirdParty/mbedTLS/library/bignum.c:93:10
	str	r2, [r0]
	.loc	1 94 10                         @ ../../../ThirdParty/mbedTLS/library/bignum.c:94:10
	str	r1, [r0, #4]
	.loc	1 95 10                         @ ../../../ThirdParty/mbedTLS/library/bignum.c:95:10
	str	r1, [r0, #8]
	.loc	1 96 1                          @ ../../../ThirdParty/mbedTLS/library/bignum.c:96:1
	bx	lr
.Ltmp1:
.Lfunc_end0:
	.size	mbedtls_mpi_init, .Lfunc_end0-mbedtls_mpi_init
	.cfi_endproc
	.cantunwind
	.fnend
                                        @ -- End function
	.section	.text.mbedtls_mpi_free,"ax",%progbits
	.hidden	mbedtls_mpi_free                @ -- Begin function mbedtls_mpi_free
	.globl	mbedtls_mpi_free
	.p2align	1
	.type	mbedtls_mpi_free,%function
	.code	16                              @ @mbedtls_mpi_free
	.thumb_func
mbedtls_mpi_free:
.Lfunc_begin1:
	.loc	1 102 0                         @ ../../../ThirdParty/mbedTLS/library/bignum.c:102:0
	.fnstart
	.cfi_startproc
@ %bb.0:
	@DEBUG_VALUE: mbedtls_mpi_free:X <- $r0
	@DEBUG_VALUE: mbedtls_mpi_free:X <- $r0
	.save	{r4, lr}
	push	{r4, lr}
	.cfi_def_cfa_offset 8
	.cfi_offset lr, -4
	.cfi_offset r4, -8
.Ltmp2:
	.loc	1 103 9 prologue_end            @ ../../../ThirdParty/mbedTLS/library/bignum.c:103:9
	cbz	r0, .LBB1_4
.Ltmp3:
@ %bb.1:
	@DEBUG_VALUE: mbedtls_mpi_free:X <- $r0
	.loc	1 0 9 is_stmt 0                 @ ../../../ThirdParty/mbedTLS/library/bignum.c:0:9
	mov	r4, r0
.Ltmp4:
	@DEBUG_VALUE: mbedtls_mpi_free:X <- $r4
	.loc	1 106 12 is_stmt 1              @ ../../../ThirdParty/mbedTLS/library/bignum.c:106:12
	ldr	r0, [r0, #8]
.Ltmp5:
	.loc	1 106 9 is_stmt 0               @ ../../../ThirdParty/mbedTLS/library/bignum.c:106:9
	cbz	r0, .LBB1_3
.Ltmp6:
@ %bb.2:
	@DEBUG_VALUE: mbedtls_mpi_free:X <- $r4
	.loc	1 108 39 is_stmt 1              @ ../../../ThirdParty/mbedTLS/library/bignum.c:108:39
	ldr	r1, [r4, #4]
	.loc	1 108 9 is_stmt 0               @ ../../../ThirdParty/mbedTLS/library/bignum.c:108:9
	bl	mbedtls_mpi_zeroize
	.loc	1 109 26 is_stmt 1              @ ../../../ThirdParty/mbedTLS/library/bignum.c:109:26
	ldr	r0, [r4, #8]
	.loc	1 109 9 is_stmt 0               @ ../../../ThirdParty/mbedTLS/library/bignum.c:109:9
	bl	free
.Ltmp7:
.LBB1_3:
	@DEBUG_VALUE: mbedtls_mpi_free:X <- $r4
	.loc	1 0 9                           @ ../../../ThirdParty/mbedTLS/library/bignum.c:0:9
	movs	r0, #0
	movs	r1, #1
	.loc	1 112 10 is_stmt 1              @ ../../../ThirdParty/mbedTLS/library/bignum.c:112:10
	str	r1, [r4]
	.loc	1 113 10                        @ ../../../ThirdParty/mbedTLS/library/bignum.c:113:10
	str	r0, [r4, #4]
	.loc	1 114 10                        @ ../../../ThirdParty/mbedTLS/library/bignum.c:114:10
	str	r0, [r4, #8]
.Ltmp8:
.LBB1_4:
	.loc	1 115 1                         @ ../../../ThirdParty/mbedTLS/library/bignum.c:115:1
	pop	{r4, pc}
.Ltmp9:
.Lfunc_end1:
	.size	mbedtls_mpi_free, .Lfunc_end1-mbedtls_mpi_free
	.cfi_endproc
	.cantunwind
	.fnend
                                        @ -- End function
	.section	.text.mbedtls_mpi_zeroize,"ax",%progbits
	.p2align	1                               @ -- Begin function mbedtls_mpi_zeroize
	.type	mbedtls_mpi_zeroize,%function
	.code	16                              @ @mbedtls_mpi_zeroize
	.thumb_func
mbedtls_mpi_zeroize:
.Lfunc_begin2:
	.loc	1 82 0                          @ ../../../ThirdParty/mbedTLS/library/bignum.c:82:0
	.fnstart
	.cfi_startproc
@ %bb.0:
	@DEBUG_VALUE: mbedtls_mpi_zeroize:v <- $r0
	@DEBUG_VALUE: mbedtls_mpi_zeroize:v <- $r0
	@DEBUG_VALUE: mbedtls_mpi_zeroize:n <- $r1
	@DEBUG_VALUE: mbedtls_mpi_zeroize:n <- $r1
	.save	{r7, lr}
	push	{r7, lr}
	.cfi_def_cfa_offset 8
	.cfi_offset lr, -4
	.cfi_offset r7, -8
.Ltmp10:
	.loc	1 83 38 prologue_end            @ ../../../ThirdParty/mbedTLS/library/bignum.c:83:38
	lsls	r1, r1, #2
.Ltmp11:
	@DEBUG_VALUE: mbedtls_mpi_zeroize:n <- [DW_OP_LLVM_entry_value 1] $r1
	@DEBUG_VALUE: mbedtls_mpi_zeroize:v <- $r0
	.loc	1 83 5 is_stmt 0                @ ../../../ThirdParty/mbedTLS/library/bignum.c:83:5
	bl	mbedtls_platform_zeroize
.Ltmp12:
	@DEBUG_VALUE: mbedtls_mpi_zeroize:v <- [DW_OP_LLVM_entry_value 1] $r0
	.loc	1 84 1 is_stmt 1                @ ../../../ThirdParty/mbedTLS/library/bignum.c:84:1
	pop	{r7, pc}
.Ltmp13:
.Lfunc_end2:
	.size	mbedtls_mpi_zeroize, .Lfunc_end2-mbedtls_mpi_zeroize
	.cfi_endproc
	.cantunwind
	.fnend
                                        @ -- End function
	.section	.text.mbedtls_mpi_grow,"ax",%progbits
	.hidden	mbedtls_mpi_grow                @ -- Begin function mbedtls_mpi_grow
	.globl	mbedtls_mpi_grow
	.p2align	2
	.type	mbedtls_mpi_grow,%function
	.code	16                              @ @mbedtls_mpi_grow
	.thumb_func
mbedtls_mpi_grow:
.Lfunc_begin3:
	.loc	1 121 0                         @ ../../../ThirdParty/mbedTLS/library/bignum.c:121:0
	.fnstart
	.cfi_startproc
@ %bb.0:
	@DEBUG_VALUE: mbedtls_mpi_grow:X <- $r0
	@DEBUG_VALUE: mbedtls_mpi_grow:nblimbs <- $r1
	.save	{r4, r5, r6, r7, lr}
	push	{r4, r5, r6, r7, lr}
	.cfi_def_cfa_offset 20
	.cfi_offset lr, -4
	.cfi_offset r7, -8
	.cfi_offset r6, -12
	.cfi_offset r5, -16
	.cfi_offset r4, -20
	.pad	#12
	sub	sp, #12
	.cfi_def_cfa_offset 32
	mov	r4, r0
	movs	r0, #15
.Ltmp14:
	@DEBUG_VALUE: mbedtls_mpi_grow:X <- [DW_OP_LLVM_entry_value 1] $r0
	mvns	r7, r0
	ldr	r0, __arm_cp.3_0
	@DEBUG_VALUE: mbedtls_mpi_grow:nblimbs <- $r1
.Ltmp15:
	@DEBUG_VALUE: mbedtls_mpi_grow:X <- $r4
	.loc	1 125 9 prologue_end            @ ../../../ThirdParty/mbedTLS/library/bignum.c:125:9
	cmp	r1, r0
	bhi	.LBB3_7
.Ltmp16:
@ %bb.1:
	@DEBUG_VALUE: mbedtls_mpi_grow:X <- $r4
	@DEBUG_VALUE: mbedtls_mpi_grow:nblimbs <- $r1
	.loc	1 0 9 is_stmt 0                 @ ../../../ThirdParty/mbedTLS/library/bignum.c:0:9
	mov	r5, r1
.Ltmp17:
	@DEBUG_VALUE: mbedtls_mpi_grow:nblimbs <- $r5
	.loc	1 128 12 is_stmt 1              @ ../../../ThirdParty/mbedTLS/library/bignum.c:128:12
	ldr	r6, [r4, #4]
	movs	r0, #0
.Ltmp18:
	.loc	1 128 9 is_stmt 0               @ ../../../ThirdParty/mbedTLS/library/bignum.c:128:9
	cmp	r6, r1
	bhs	.LBB3_6
.Ltmp19:
@ %bb.2:
	@DEBUG_VALUE: mbedtls_mpi_grow:nblimbs <- $r5
	@DEBUG_VALUE: mbedtls_mpi_grow:X <- $r4
	.loc	1 0 9                           @ ../../../ThirdParty/mbedTLS/library/bignum.c:0:9
	str	r0, [sp, #8]                    @ 4-byte Spill
	movs	r1, #4
.Ltmp20:
	.loc	1 130 38 is_stmt 1              @ ../../../ThirdParty/mbedTLS/library/bignum.c:130:38
	mov	r0, r5
	bl	calloc
.Ltmp21:
	@DEBUG_VALUE: mbedtls_mpi_grow:p <- $r0
	.loc	1 130 13 is_stmt 0              @ ../../../ThirdParty/mbedTLS/library/bignum.c:130:13
	cbz	r0, .LBB3_7
.Ltmp22:
@ %bb.3:
	@DEBUG_VALUE: mbedtls_mpi_grow:nblimbs <- $r5
	@DEBUG_VALUE: mbedtls_mpi_grow:X <- $r4
	@DEBUG_VALUE: mbedtls_mpi_grow:p <- $r0
	.loc	1 133 16 is_stmt 1              @ ../../../ThirdParty/mbedTLS/library/bignum.c:133:16
	ldr	r7, [r4, #8]
.Ltmp23:
	.loc	1 133 13 is_stmt 0              @ ../../../ThirdParty/mbedTLS/library/bignum.c:133:13
	cbz	r7, .LBB3_5
.Ltmp24:
@ %bb.4:
	@DEBUG_VALUE: mbedtls_mpi_grow:nblimbs <- $r5
	@DEBUG_VALUE: mbedtls_mpi_grow:X <- $r4
	@DEBUG_VALUE: mbedtls_mpi_grow:p <- $r0
	.loc	1 135 35 is_stmt 1              @ ../../../ThirdParty/mbedTLS/library/bignum.c:135:35
	lsls	r2, r6, #2
	str	r0, [sp, #4]                    @ 4-byte Spill
.Ltmp25:
	@DEBUG_VALUE: mbedtls_mpi_grow:p <- [DW_OP_plus_uconst 4] [$sp+0]
	.loc	1 135 13 is_stmt 0              @ ../../../ThirdParty/mbedTLS/library/bignum.c:135:13
	ldr	r0, [sp, #4]                    @ 4-byte Reload
.Ltmp26:
	@DEBUG_VALUE: mbedtls_mpi_grow:p <- $r0
	mov	r1, r7
	bl	__aeabi_memcpy4
.Ltmp27:
	.loc	1 136 13 is_stmt 1              @ ../../../ThirdParty/mbedTLS/library/bignum.c:136:13
	mov	r0, r7
	mov	r1, r6
	bl	mbedtls_mpi_zeroize
	.loc	1 137 30                        @ ../../../ThirdParty/mbedTLS/library/bignum.c:137:30
	ldr	r0, [r4, #8]
	.loc	1 137 13 is_stmt 0              @ ../../../ThirdParty/mbedTLS/library/bignum.c:137:13
	bl	free
	ldr	r0, [sp, #4]                    @ 4-byte Reload
.Ltmp28:
.LBB3_5:
	@DEBUG_VALUE: mbedtls_mpi_grow:nblimbs <- $r5
	@DEBUG_VALUE: mbedtls_mpi_grow:X <- $r4
	.loc	1 140 14 is_stmt 1              @ ../../../ThirdParty/mbedTLS/library/bignum.c:140:14
	str	r5, [r4, #4]
	.loc	1 141 14                        @ ../../../ThirdParty/mbedTLS/library/bignum.c:141:14
	str	r0, [r4, #8]
.Ltmp29:
	.loc	1 0 0 is_stmt 0                 @ ../../../ThirdParty/mbedTLS/library/bignum.c:0:0
	ldr	r7, [sp, #8]                    @ 4-byte Reload
	b	.LBB3_7
.Ltmp30:
.LBB3_6:
	@DEBUG_VALUE: mbedtls_mpi_grow:nblimbs <- $r5
	@DEBUG_VALUE: mbedtls_mpi_grow:X <- $r4
	mov	r7, r0
.Ltmp31:
.LBB3_7:
	@DEBUG_VALUE: mbedtls_mpi_grow:X <- $r4
	.loc	1 145 1 is_stmt 1               @ ../../../ThirdParty/mbedTLS/library/bignum.c:145:1
	mov	r0, r7
	add	sp, #12
	pop	{r4, r5, r6, r7, pc}
.Ltmp32:
	.p2align	2
@ %bb.8:
	.loc	1 0 1 is_stmt 0                 @ ../../../ThirdParty/mbedTLS/library/bignum.c:0:1
__arm_cp.3_0:
	.long	10000                           @ 0x2710
.Lcpi_end0:
	.size	__arm_cp.3_0, .Lcpi_end0-__arm_cp.3_0
.Lfunc_end3:
	.size	mbedtls_mpi_grow, .Lfunc_end3-mbedtls_mpi_grow
	.cfi_endproc
	.cantunwind
	.fnend
                                        @ -- End function
	.section	.text.mbedtls_mpi_shrink,"ax",%progbits
	.hidden	mbedtls_mpi_shrink              @ -- Begin function mbedtls_mpi_shrink
	.globl	mbedtls_mpi_shrink
	.p2align	2
	.type	mbedtls_mpi_shrink,%function
	.code	16                              @ @mbedtls_mpi_shrink
	.thumb_func
mbedtls_mpi_shrink:
.Lfunc_begin4:
	.loc	1 152 0 is_stmt 1               @ ../../../ThirdParty/mbedTLS/library/bignum.c:152:0
	.fnstart
	.cfi_startproc
@ %bb.0:
	@DEBUG_VALUE: mbedtls_mpi_shrink:X <- $r0
	@DEBUG_VALUE: mbedtls_mpi_shrink:nblimbs <- $r1
	.save	{r4, r5, r6, r7, lr}
	push	{r4, r5, r6, r7, lr}
	.cfi_def_cfa_offset 20
	.cfi_offset lr, -4
	.cfi_offset r7, -8
	.cfi_offset r6, -12
	.cfi_offset r5, -16
	.cfi_offset r4, -20
	.pad	#4
	sub	sp, #4
	.cfi_def_cfa_offset 24
	mov	r4, r0
	movs	r0, #15
.Ltmp33:
	@DEBUG_VALUE: mbedtls_mpi_shrink:X <- [DW_OP_LLVM_entry_value 1] $r0
	mvns	r7, r0
	ldr	r0, __arm_cp.4_0
	@DEBUG_VALUE: mbedtls_mpi_shrink:nblimbs <- $r1
.Ltmp34:
	@DEBUG_VALUE: mbedtls_mpi_shrink:X <- $r4
	.loc	1 157 9 prologue_end            @ ../../../ThirdParty/mbedTLS/library/bignum.c:157:9
	cmp	r1, r0
	bhi	.LBB4_12
.Ltmp35:
@ %bb.1:
	@DEBUG_VALUE: mbedtls_mpi_shrink:X <- $r4
	@DEBUG_VALUE: mbedtls_mpi_shrink:nblimbs <- $r1
	.loc	1 0 9 is_stmt 0                 @ ../../../ThirdParty/mbedTLS/library/bignum.c:0:9
	mov	r5, r1
.Ltmp36:
	@DEBUG_VALUE: mbedtls_mpi_shrink:nblimbs <- $r5
	.loc	1 161 12 is_stmt 1              @ ../../../ThirdParty/mbedTLS/library/bignum.c:161:12
	ldr	r6, [r4, #4]
.Ltmp37:
	.loc	1 161 9 is_stmt 0               @ ../../../ThirdParty/mbedTLS/library/bignum.c:161:9
	cmp	r6, r1
	bls	.LBB4_11
.Ltmp38:
@ %bb.2:
	@DEBUG_VALUE: mbedtls_mpi_shrink:nblimbs <- $r5
	@DEBUG_VALUE: mbedtls_mpi_shrink:X <- $r4
	.loc	1 164 5 is_stmt 1               @ ../../../ThirdParty/mbedTLS/library/bignum.c:164:5
	adds	r0, r6, #1
	lsls	r1, r6, #2
	subs	r2, r1, #4
	movs	r1, #1
.Ltmp39:
.LBB4_3:                                @ =>This Inner Loop Header: Depth=1
	@DEBUG_VALUE: mbedtls_mpi_shrink:nblimbs <- $r5
	@DEBUG_VALUE: mbedtls_mpi_shrink:X <- $r4
	@DEBUG_VALUE: mbedtls_mpi_shrink:i <- [DW_OP_constu 1, DW_OP_minus, DW_OP_stack_value] undef
	cmp	r0, #2
	beq	.LBB4_13
.Ltmp40:
@ %bb.4:                                @   in Loop: Header=BB4_3 Depth=1
	@DEBUG_VALUE: mbedtls_mpi_shrink:nblimbs <- $r5
	@DEBUG_VALUE: mbedtls_mpi_shrink:X <- $r4
	.loc	1 165 16                        @ ../../../ThirdParty/mbedTLS/library/bignum.c:165:16
	ldr	r3, [r4, #8]
	.loc	1 165 13 is_stmt 0              @ ../../../ThirdParty/mbedTLS/library/bignum.c:165:13
	ldr	r3, [r3, r2]
.Ltmp41:
	.loc	1 165 13                        @ ../../../ThirdParty/mbedTLS/library/bignum.c:165:13
	subs	r2, r2, #4
	subs	r0, r0, #1
	cmp	r3, #0
	beq	.LBB4_3
.Ltmp42:
@ %bb.5:
	@DEBUG_VALUE: mbedtls_mpi_shrink:nblimbs <- $r5
	@DEBUG_VALUE: mbedtls_mpi_shrink:X <- $r4
	@DEBUG_VALUE: mbedtls_mpi_shrink:i <- $r0
	.loc	1 169 9 is_stmt 1               @ ../../../ThirdParty/mbedTLS/library/bignum.c:169:9
	cmp	r0, r5
	blo	.LBB4_7
.Ltmp43:
.LBB4_6:
	@DEBUG_VALUE: mbedtls_mpi_shrink:nblimbs <- $r5
	@DEBUG_VALUE: mbedtls_mpi_shrink:X <- $r4
	@DEBUG_VALUE: mbedtls_mpi_shrink:i <- $r0
	mov	r5, r0
.Ltmp44:
	@DEBUG_VALUE: mbedtls_mpi_shrink:i <- $r5
	@DEBUG_VALUE: mbedtls_mpi_shrink:nblimbs <- [DW_OP_LLVM_entry_value 1] $r1
.LBB4_7:
	@DEBUG_VALUE: mbedtls_mpi_shrink:X <- $r4
	@DEBUG_VALUE: mbedtls_mpi_shrink:i <- $r5
	.loc	1 0 9 is_stmt 0                 @ ../../../ThirdParty/mbedTLS/library/bignum.c:0:9
	movs	r1, #4
.Ltmp45:
	.loc	1 172 34 is_stmt 1              @ ../../../ThirdParty/mbedTLS/library/bignum.c:172:34
	mov	r0, r5
	bl	calloc
.Ltmp46:
	@DEBUG_VALUE: mbedtls_mpi_shrink:p <- $r0
	.loc	1 172 9 is_stmt 0               @ ../../../ThirdParty/mbedTLS/library/bignum.c:172:9
	cbz	r0, .LBB4_12
.Ltmp47:
@ %bb.8:
	@DEBUG_VALUE: mbedtls_mpi_shrink:i <- $r5
	@DEBUG_VALUE: mbedtls_mpi_shrink:X <- $r4
	@DEBUG_VALUE: mbedtls_mpi_shrink:p <- $r0
	.loc	1 175 12 is_stmt 1              @ ../../../ThirdParty/mbedTLS/library/bignum.c:175:12
	ldr	r7, [r4, #8]
.Ltmp48:
	.loc	1 175 9 is_stmt 0               @ ../../../ThirdParty/mbedTLS/library/bignum.c:175:9
	cbz	r7, .LBB4_10
.Ltmp49:
@ %bb.9:
	@DEBUG_VALUE: mbedtls_mpi_shrink:i <- $r5
	@DEBUG_VALUE: mbedtls_mpi_shrink:X <- $r4
	@DEBUG_VALUE: mbedtls_mpi_shrink:p <- $r0
	.loc	1 177 28 is_stmt 1              @ ../../../ThirdParty/mbedTLS/library/bignum.c:177:28
	lsls	r2, r5, #2
	str	r0, [sp]                        @ 4-byte Spill
.Ltmp50:
	@DEBUG_VALUE: mbedtls_mpi_shrink:p <- [$sp+0]
	.loc	1 177 9 is_stmt 0               @ ../../../ThirdParty/mbedTLS/library/bignum.c:177:9
	ldr	r0, [sp]                        @ 4-byte Reload
.Ltmp51:
	@DEBUG_VALUE: mbedtls_mpi_shrink:p <- $r0
	mov	r1, r7
	bl	__aeabi_memcpy4
.Ltmp52:
	.loc	1 178 9 is_stmt 1               @ ../../../ThirdParty/mbedTLS/library/bignum.c:178:9
	mov	r0, r7
	mov	r1, r6
	bl	mbedtls_mpi_zeroize
	.loc	1 179 26                        @ ../../../ThirdParty/mbedTLS/library/bignum.c:179:26
	ldr	r0, [r4, #8]
	.loc	1 179 9 is_stmt 0               @ ../../../ThirdParty/mbedTLS/library/bignum.c:179:9
	bl	free
	ldr	r0, [sp]                        @ 4-byte Reload
.Ltmp53:
.LBB4_10:
	@DEBUG_VALUE: mbedtls_mpi_shrink:i <- $r5
	@DEBUG_VALUE: mbedtls_mpi_shrink:X <- $r4
	.loc	1 182 10 is_stmt 1              @ ../../../ThirdParty/mbedTLS/library/bignum.c:182:10
	str	r5, [r4, #4]
	.loc	1 183 10                        @ ../../../ThirdParty/mbedTLS/library/bignum.c:183:10
	str	r0, [r4, #8]
	movs	r7, #0
	b	.LBB4_12
.Ltmp54:
.LBB4_11:
	@DEBUG_VALUE: mbedtls_mpi_shrink:nblimbs <- $r5
	@DEBUG_VALUE: mbedtls_mpi_shrink:X <- $r4
	.loc	1 162 17                        @ ../../../ThirdParty/mbedTLS/library/bignum.c:162:17
	mov	r0, r4
	mov	r1, r5
	bl	mbedtls_mpi_grow
	mov	r7, r0
.Ltmp55:
.LBB4_12:
	@DEBUG_VALUE: mbedtls_mpi_shrink:X <- $r4
	.loc	1 186 1                         @ ../../../ThirdParty/mbedTLS/library/bignum.c:186:1
	mov	r0, r7
	add	sp, #4
	pop	{r4, r5, r6, r7, pc}
.Ltmp56:
.LBB4_13:
	@DEBUG_VALUE: mbedtls_mpi_shrink:nblimbs <- $r5
	@DEBUG_VALUE: mbedtls_mpi_shrink:X <- $r4
	.loc	1 0 1 is_stmt 0                 @ ../../../ThirdParty/mbedTLS/library/bignum.c:0:1
	mov	r0, r1
.Ltmp57:
	@DEBUG_VALUE: mbedtls_mpi_shrink:i <- $r0
	.loc	1 169 9 is_stmt 1               @ ../../../ThirdParty/mbedTLS/library/bignum.c:169:9
	cmp	r0, r5
	bhs	.LBB4_6
	b	.LBB4_7
.Ltmp58:
	.p2align	2
@ %bb.14:
	.loc	1 0 9 is_stmt 0                 @ ../../../ThirdParty/mbedTLS/library/bignum.c:0:9
__arm_cp.4_0:
	.long	10000                           @ 0x2710
.Lcpi_end1:
	.size	__arm_cp.4_0, .Lcpi_end1-__arm_cp.4_0
.Lfunc_end4:
	.size	mbedtls_mpi_shrink, .Lfunc_end4-mbedtls_mpi_shrink
	.cfi_endproc
	.cantunwind
	.fnend
                                        @ -- End function
	.section	.text.mbedtls_mpi_copy,"ax",%progbits
	.hidden	mbedtls_mpi_copy                @ -- Begin function mbedtls_mpi_copy
	.globl	mbedtls_mpi_copy
	.p2align	1
	.type	mbedtls_mpi_copy,%function
	.code	16                              @ @mbedtls_mpi_copy
	.thumb_func
mbedtls_mpi_copy:
.Lfunc_begin5:
	.loc	1 192 0 is_stmt 1               @ ../../../ThirdParty/mbedTLS/library/bignum.c:192:0
	.fnstart
	.cfi_startproc
@ %bb.0:
	@DEBUG_VALUE: mbedtls_mpi_copy:X <- $r0
	@DEBUG_VALUE: mbedtls_mpi_copy:Y <- $r1
	.save	{r4, r5, r6, r7, lr}
	push	{r4, r5, r6, r7, lr}
	.cfi_def_cfa_offset 20
	.cfi_offset lr, -4
	.cfi_offset r7, -8
	.cfi_offset r6, -12
	.cfi_offset r5, -16
	.cfi_offset r4, -20
	.pad	#4
	sub	sp, #4
	.cfi_def_cfa_offset 24
	movs	r7, #0
.Ltmp59:
	@DEBUG_VALUE: mbedtls_mpi_copy:ret <- 0
	@DEBUG_VALUE: mbedtls_mpi_copy:Y <- $r1
	@DEBUG_VALUE: mbedtls_mpi_copy:X <- $r0
	.loc	1 198 9 prologue_end            @ ../../../ThirdParty/mbedTLS/library/bignum.c:198:9
	cmp	r0, r1
	beq	.LBB5_12
.Ltmp60:
@ %bb.1:
	@DEBUG_VALUE: mbedtls_mpi_copy:Y <- $r1
	@DEBUG_VALUE: mbedtls_mpi_copy:X <- $r0
	@DEBUG_VALUE: mbedtls_mpi_copy:ret <- 0
	.loc	1 0 9 is_stmt 0                 @ ../../../ThirdParty/mbedTLS/library/bignum.c:0:9
	mov	r5, r1
.Ltmp61:
	@DEBUG_VALUE: mbedtls_mpi_copy:Y <- $r5
	mov	r4, r0
.Ltmp62:
	@DEBUG_VALUE: mbedtls_mpi_copy:X <- $r4
	.loc	1 201 12 is_stmt 1              @ ../../../ThirdParty/mbedTLS/library/bignum.c:201:12
	ldr	r0, [r1, #8]
.Ltmp63:
	.loc	1 201 9 is_stmt 0               @ ../../../ThirdParty/mbedTLS/library/bignum.c:201:9
	cbz	r0, .LBB5_5
.Ltmp64:
@ %bb.2:
	@DEBUG_VALUE: mbedtls_mpi_copy:Y <- $r5
	@DEBUG_VALUE: mbedtls_mpi_copy:X <- $r4
	@DEBUG_VALUE: mbedtls_mpi_copy:ret <- 0
	.loc	1 207 17 is_stmt 1              @ ../../../ThirdParty/mbedTLS/library/bignum.c:207:17
	ldr	r2, [r5, #4]
.Ltmp65:
	@DEBUG_VALUE: mbedtls_mpi_copy:i <- [DW_OP_constu 1, DW_OP_minus, DW_OP_stack_value] $r2
	.loc	1 207 10 is_stmt 0              @ ../../../ThirdParty/mbedTLS/library/bignum.c:207:10
	lsls	r1, r2, #2
	adds	r0, r1, r0
	subs	r1, r0, #4
	adds	r6, r2, #1
	movs	r0, #1
.Ltmp66:
.LBB5_3:                                @ =>This Inner Loop Header: Depth=1
	@DEBUG_VALUE: mbedtls_mpi_copy:Y <- $r5
	@DEBUG_VALUE: mbedtls_mpi_copy:X <- $r4
	@DEBUG_VALUE: mbedtls_mpi_copy:ret <- 0
	@DEBUG_VALUE: mbedtls_mpi_copy:i <- [DW_OP_constu 1, DW_OP_minus, DW_OP_stack_value] undef
	.loc	1 207 5                         @ ../../../ThirdParty/mbedTLS/library/bignum.c:207:5
	cmp	r6, #2
	beq	.LBB5_6
.Ltmp67:
@ %bb.4:                                @   in Loop: Header=BB5_3 Depth=1
	@DEBUG_VALUE: mbedtls_mpi_copy:Y <- $r5
	@DEBUG_VALUE: mbedtls_mpi_copy:X <- $r4
	@DEBUG_VALUE: mbedtls_mpi_copy:ret <- 0
	.loc	1 208 13 is_stmt 1              @ ../../../ThirdParty/mbedTLS/library/bignum.c:208:13
	subs	r2, r1, #4
	subs	r6, r6, #1
.Ltmp68:
	.loc	1 208 13 is_stmt 0              @ ../../../ThirdParty/mbedTLS/library/bignum.c:208:13
	ldr	r1, [r1]
.Ltmp69:
	.loc	1 208 13                        @ ../../../ThirdParty/mbedTLS/library/bignum.c:208:13
	cmp	r1, #0
	mov	r1, r2
	beq	.LBB5_3
	b	.LBB5_7
.Ltmp70:
.LBB5_5:
	@DEBUG_VALUE: mbedtls_mpi_copy:Y <- $r5
	@DEBUG_VALUE: mbedtls_mpi_copy:X <- $r4
	@DEBUG_VALUE: mbedtls_mpi_copy:ret <- 0
	.loc	1 203 9 is_stmt 1               @ ../../../ThirdParty/mbedTLS/library/bignum.c:203:9
	mov	r0, r4
	bl	mbedtls_mpi_free
.Ltmp71:
	.loc	1 0 0 is_stmt 0                 @ ../../../ThirdParty/mbedTLS/library/bignum.c:0:0
	b	.LBB5_12
.Ltmp72:
.LBB5_6:
	@DEBUG_VALUE: mbedtls_mpi_copy:Y <- $r5
	@DEBUG_VALUE: mbedtls_mpi_copy:X <- $r4
	@DEBUG_VALUE: mbedtls_mpi_copy:ret <- 0
	mov	r6, r0
.Ltmp73:
.LBB5_7:
	@DEBUG_VALUE: mbedtls_mpi_copy:Y <- $r5
	@DEBUG_VALUE: mbedtls_mpi_copy:X <- $r4
	@DEBUG_VALUE: mbedtls_mpi_copy:ret <- 0
	@DEBUG_VALUE: mbedtls_mpi_copy:i <- $r6
	.loc	1 212 15 is_stmt 1              @ ../../../ThirdParty/mbedTLS/library/bignum.c:212:15
	ldr	r0, [r5]
	.loc	1 212 10 is_stmt 0              @ ../../../ThirdParty/mbedTLS/library/bignum.c:212:10
	str	r0, [r4]
.Ltmp74:
	.loc	1 214 12 is_stmt 1              @ ../../../ThirdParty/mbedTLS/library/bignum.c:214:12
	ldr	r1, [r4, #4]
.Ltmp75:
	.loc	1 214 9 is_stmt 0               @ ../../../ThirdParty/mbedTLS/library/bignum.c:214:9
	cmp	r1, r6
	bhs	.LBB5_10
.Ltmp76:
@ %bb.8:
	@DEBUG_VALUE: mbedtls_mpi_copy:i <- $r6
	@DEBUG_VALUE: mbedtls_mpi_copy:Y <- $r5
	@DEBUG_VALUE: mbedtls_mpi_copy:X <- $r4
	@DEBUG_VALUE: mbedtls_mpi_copy:ret <- 0
	.loc	1 216 9 is_stmt 1               @ ../../../ThirdParty/mbedTLS/library/bignum.c:216:9
	mov	r0, r4
	mov	r1, r6
	bl	mbedtls_mpi_grow
.Ltmp77:
	@DEBUG_VALUE: mbedtls_mpi_copy:ret <- $r0
	.loc	1 216 9 is_stmt 0               @ ../../../ThirdParty/mbedTLS/library/bignum.c:216:9
	cbz	r0, .LBB5_11
.Ltmp78:
@ %bb.9:
	@DEBUG_VALUE: mbedtls_mpi_copy:i <- $r6
	@DEBUG_VALUE: mbedtls_mpi_copy:Y <- $r5
	@DEBUG_VALUE: mbedtls_mpi_copy:X <- $r4
	@DEBUG_VALUE: mbedtls_mpi_copy:ret <- $r0
	.loc	1 228 1 is_stmt 1               @ ../../../ThirdParty/mbedTLS/library/bignum.c:228:1
	add	sp, #4
	pop	{r4, r5, r6, r7, pc}
.Ltmp79:
.LBB5_10:
	@DEBUG_VALUE: mbedtls_mpi_copy:i <- $r6
	@DEBUG_VALUE: mbedtls_mpi_copy:Y <- $r5
	@DEBUG_VALUE: mbedtls_mpi_copy:X <- $r4
	@DEBUG_VALUE: mbedtls_mpi_copy:ret <- 0
	.loc	1 220 22                        @ ../../../ThirdParty/mbedTLS/library/bignum.c:220:22
	lsls	r0, r6, #2
	.loc	1 220 20 is_stmt 0              @ ../../../ThirdParty/mbedTLS/library/bignum.c:220:20
	ldr	r2, [r4, #8]
	.loc	1 220 22                        @ ../../../ThirdParty/mbedTLS/library/bignum.c:220:22
	adds	r0, r2, r0
	.loc	1 220 37                        @ ../../../ThirdParty/mbedTLS/library/bignum.c:220:37
	subs	r1, r1, r6
	.loc	1 220 43                        @ ../../../ThirdParty/mbedTLS/library/bignum.c:220:43
	lsls	r1, r1, #2
	.loc	1 220 9                         @ ../../../ThirdParty/mbedTLS/library/bignum.c:220:9
	bl	__aeabi_memclr4
.Ltmp80:
.LBB5_11:
	@DEBUG_VALUE: mbedtls_mpi_copy:i <- $r6
	@DEBUG_VALUE: mbedtls_mpi_copy:Y <- $r5
	@DEBUG_VALUE: mbedtls_mpi_copy:X <- $r4
	@DEBUG_VALUE: mbedtls_mpi_copy:ret <- 0
	.loc	1 223 22 is_stmt 1              @ ../../../ThirdParty/mbedTLS/library/bignum.c:223:22
	ldr	r1, [r5, #8]
	.loc	1 223 16 is_stmt 0              @ ../../../ThirdParty/mbedTLS/library/bignum.c:223:16
	ldr	r0, [r4, #8]
	.loc	1 223 27                        @ ../../../ThirdParty/mbedTLS/library/bignum.c:223:27
	lsls	r2, r6, #2
	.loc	1 223 5                         @ ../../../ThirdParty/mbedTLS/library/bignum.c:223:5
	bl	__aeabi_memcpy4
.Ltmp81:
.LBB5_12:
	@DEBUG_VALUE: mbedtls_mpi_copy:ret <- 0
	.loc	1 0 0                           @ ../../../ThirdParty/mbedTLS/library/bignum.c:0:0
	mov	r0, r7
	.loc	1 228 1 is_stmt 1               @ ../../../ThirdParty/mbedTLS/library/bignum.c:228:1
	add	sp, #4
	pop	{r4, r5, r6, r7, pc}
.Ltmp82:
.Lfunc_end5:
	.size	mbedtls_mpi_copy, .Lfunc_end5-mbedtls_mpi_copy
	.cfi_endproc
	.cantunwind
	.fnend
                                        @ -- End function
	.section	.text.mbedtls_mpi_swap,"ax",%progbits
	.hidden	mbedtls_mpi_swap                @ -- Begin function mbedtls_mpi_swap
	.globl	mbedtls_mpi_swap
	.p2align	1
	.type	mbedtls_mpi_swap,%function
	.code	16                              @ @mbedtls_mpi_swap
	.thumb_func
mbedtls_mpi_swap:
.Lfunc_begin6:
	.loc	1 234 0                         @ ../../../ThirdParty/mbedTLS/library/bignum.c:234:0
	.fnstart
	.cfi_startproc
@ %bb.0:
	@DEBUG_VALUE: mbedtls_mpi_swap:X <- $r0
	@DEBUG_VALUE: mbedtls_mpi_swap:X <- $r0
	@DEBUG_VALUE: mbedtls_mpi_swap:Y <- $r1
	@DEBUG_VALUE: mbedtls_mpi_swap:Y <- $r1
	.save	{r4, r5, r7, lr}
	push	{r4, r5, r7, lr}
	.cfi_def_cfa_offset 16
	.cfi_offset lr, -4
	.cfi_offset r7, -8
	.cfi_offset r5, -12
	.cfi_offset r4, -16
	.pad	#12
	sub	sp, #12
	.cfi_def_cfa_offset 28
.Ltmp83:
	.loc	1 239 5 prologue_end            @ ../../../ThirdParty/mbedTLS/library/bignum.c:239:5
	ldr	r2, [r0, #8]
	.loc	1 240 5                         @ ../../../ThirdParty/mbedTLS/library/bignum.c:240:5
	ldr	r3, [r1, #8]
	str	r3, [r0, #8]
	.loc	1 239 5                         @ ../../../ThirdParty/mbedTLS/library/bignum.c:239:5
	ldr	r3, [r0, #4]
	.loc	1 240 5                         @ ../../../ThirdParty/mbedTLS/library/bignum.c:240:5
	ldr	r4, [r1, #4]
	str	r4, [r0, #4]
	.loc	1 239 5                         @ ../../../ThirdParty/mbedTLS/library/bignum.c:239:5
	ldr	r4, [r0]
	.loc	1 240 5                         @ ../../../ThirdParty/mbedTLS/library/bignum.c:240:5
	ldr	r5, [r1]
	str	r5, [r0]
	.loc	1 241 5                         @ ../../../ThirdParty/mbedTLS/library/bignum.c:241:5
	str	r4, [r1]
	str	r3, [r1, #4]
	str	r2, [r1, #8]
	.loc	1 242 1                         @ ../../../ThirdParty/mbedTLS/library/bignum.c:242:1
	add	sp, #12
	pop	{r4, r5, r7, pc}
.Ltmp84:
.Lfunc_end6:
	.size	mbedtls_mpi_swap, .Lfunc_end6-mbedtls_mpi_swap
	.cfi_endproc
	.cantunwind
	.fnend
                                        @ -- End function
	.section	.text.mbedtls_mpi_safe_cond_assign,"ax",%progbits
	.hidden	mbedtls_mpi_safe_cond_assign    @ -- Begin function mbedtls_mpi_safe_cond_assign
	.globl	mbedtls_mpi_safe_cond_assign
	.p2align	1
	.type	mbedtls_mpi_safe_cond_assign,%function
	.code	16                              @ @mbedtls_mpi_safe_cond_assign
	.thumb_func
mbedtls_mpi_safe_cond_assign:
.Lfunc_begin7:
	.loc	1 250 0                         @ ../../../ThirdParty/mbedTLS/library/bignum.c:250:0
	.fnstart
	.cfi_startproc
@ %bb.0:
	@DEBUG_VALUE: mbedtls_mpi_safe_cond_assign:X <- $r0
	@DEBUG_VALUE: mbedtls_mpi_safe_cond_assign:Y <- $r1
	@DEBUG_VALUE: mbedtls_mpi_safe_cond_assign:assign <- $r2
	.save	{r4, r5, r6, r7, lr}
	push	{r4, r5, r6, r7, lr}
	.cfi_def_cfa_offset 20
	.cfi_offset lr, -4
	.cfi_offset r7, -8
	.cfi_offset r6, -12
	.cfi_offset r5, -16
	.cfi_offset r4, -20
	.pad	#12
	sub	sp, #12
	.cfi_def_cfa_offset 32
	mov	r6, r2
.Ltmp85:
	@DEBUG_VALUE: mbedtls_mpi_safe_cond_assign:assign <- $r6
	mov	r4, r0
.Ltmp86:
	@DEBUG_VALUE: mbedtls_mpi_safe_cond_assign:assign <- [DW_OP_constu 7, DW_OP_shr, DW_OP_LLVM_convert 8 7, DW_OP_LLVM_convert 32 7, DW_OP_LLVM_convert 32 7, DW_OP_LLVM_convert 8 7, DW_OP_stack_value] undef
	str	r1, [sp, #8]                    @ 4-byte Spill
.Ltmp87:
	@DEBUG_VALUE: mbedtls_mpi_safe_cond_assign:ret <- 0
	@DEBUG_VALUE: mbedtls_mpi_safe_cond_assign:Y <- [DW_OP_plus_uconst 8] [$sp+0]
	@DEBUG_VALUE: mbedtls_mpi_safe_cond_assign:X <- $r4
	.loc	1 259 5 prologue_end            @ ../../../ThirdParty/mbedTLS/library/bignum.c:259:5
	ldr	r1, [r1, #4]
	bl	mbedtls_mpi_grow
.Ltmp88:
	@DEBUG_VALUE: mbedtls_mpi_safe_cond_assign:ret <- $r0
	@DEBUG_VALUE: mbedtls_mpi_safe_cond_assign:assign <- $r6
	.loc	1 259 5 is_stmt 0               @ ../../../ThirdParty/mbedTLS/library/bignum.c:259:5
	cbnz	r0, .LBB7_8
.Ltmp89:
@ %bb.1:
	@DEBUG_VALUE: mbedtls_mpi_safe_cond_assign:assign <- $r6
	@DEBUG_VALUE: mbedtls_mpi_safe_cond_assign:X <- $r4
	@DEBUG_VALUE: mbedtls_mpi_safe_cond_assign:ret <- $r0
	@DEBUG_VALUE: mbedtls_mpi_safe_cond_assign:Y <- [DW_OP_plus_uconst 8] [$sp+0]
	.loc	1 257 39 is_stmt 1              @ ../../../ThirdParty/mbedTLS/library/bignum.c:257:39
	rsbs	r1, r6, #0
	.loc	1 257 22 is_stmt 0              @ ../../../ThirdParty/mbedTLS/library/bignum.c:257:22
	orrs	r1, r6
.Ltmp90:
	@DEBUG_VALUE: mbedtls_mpi_safe_cond_assign:assign <- [DW_OP_constu 7, DW_OP_shr, DW_OP_LLVM_convert 8 7, DW_OP_LLVM_convert 32 7, DW_OP_LLVM_convert 32 7, DW_OP_LLVM_convert 8 7, DW_OP_stack_value] $r1
	uxtb	r1, r1
.Ltmp91:
	.loc	1 257 48                        @ ../../../ThirdParty/mbedTLS/library/bignum.c:257:48
	lsrs	r3, r1, #7
.Ltmp92:
	@DEBUG_VALUE: mbedtls_mpi_safe_cond_assign:assign <- $r3
	.loc	1 0 48                          @ ../../../ThirdParty/mbedTLS/library/bignum.c:0:48
	ldr	r5, [sp, #8]                    @ 4-byte Reload
	.loc	1 261 39 is_stmt 1              @ ../../../ThirdParty/mbedTLS/library/bignum.c:261:39
	ldr	r2, [r5]
	.loc	1 261 41 is_stmt 0              @ ../../../ThirdParty/mbedTLS/library/bignum.c:261:41
	muls	r2, r3, r2
	movs	r1, #1
	.loc	1 261 23                        @ ../../../ThirdParty/mbedTLS/library/bignum.c:261:23
	eors	r1, r3
	.loc	1 261 15                        @ ../../../ThirdParty/mbedTLS/library/bignum.c:261:15
	ldr	r6, [r4]
	.loc	1 261 17                        @ ../../../ThirdParty/mbedTLS/library/bignum.c:261:17
	muls	r6, r1, r6
	.loc	1 261 34                        @ ../../../ThirdParty/mbedTLS/library/bignum.c:261:34
	adds	r2, r2, r6
	.loc	1 261 10                        @ ../../../ThirdParty/mbedTLS/library/bignum.c:261:10
	str	r2, [r4]
.Ltmp93:
	@DEBUG_VALUE: mbedtls_mpi_safe_cond_assign:i <- 0
	.loc	1 263 24 is_stmt 1              @ ../../../ThirdParty/mbedTLS/library/bignum.c:263:24
	ldr	r2, [r5, #4]
.Ltmp94:
	.loc	1 263 5 is_stmt 0               @ ../../../ThirdParty/mbedTLS/library/bignum.c:263:5
	str	r4, [sp, #4]                    @ 4-byte Spill
	cbz	r2, .LBB7_4
.Ltmp95:
@ %bb.2:
	@DEBUG_VALUE: mbedtls_mpi_safe_cond_assign:X <- $r4
	@DEBUG_VALUE: mbedtls_mpi_safe_cond_assign:assign <- $r3
	@DEBUG_VALUE: mbedtls_mpi_safe_cond_assign:ret <- $r0
	@DEBUG_VALUE: mbedtls_mpi_safe_cond_assign:Y <- [DW_OP_plus_uconst 8] [$sp+0]
	@DEBUG_VALUE: mbedtls_mpi_safe_cond_assign:i <- 0
	.loc	1 0 0                           @ ../../../ThirdParty/mbedTLS/library/bignum.c:0:0
	ldr	r2, [sp, #8]                    @ 4-byte Reload
	ldr	r6, [r2, #8]
	ldr	r7, [r4, #8]
	movs	r2, #0
.Ltmp96:
.LBB7_3:                                @ =>This Inner Loop Header: Depth=1
	@DEBUG_VALUE: mbedtls_mpi_safe_cond_assign:assign <- $r3
	@DEBUG_VALUE: mbedtls_mpi_safe_cond_assign:ret <- $r0
	@DEBUG_VALUE: mbedtls_mpi_safe_cond_assign:Y <- [DW_OP_plus_uconst 8] [$sp+0]
	@DEBUG_VALUE: mbedtls_mpi_safe_cond_assign:i <- $r2
	.loc	1 264 19 is_stmt 1              @ ../../../ThirdParty/mbedTLS/library/bignum.c:264:19
	ldr	r4, [r7]
	.loc	1 264 27 is_stmt 0              @ ../../../ThirdParty/mbedTLS/library/bignum.c:264:27
	muls	r4, r1, r4
	.loc	1 264 46                        @ ../../../ThirdParty/mbedTLS/library/bignum.c:264:46
	ldm	r6!, {r5}
	.loc	1 264 54                        @ ../../../ThirdParty/mbedTLS/library/bignum.c:264:54
	muls	r5, r3, r5
	.loc	1 264 44                        @ ../../../ThirdParty/mbedTLS/library/bignum.c:264:44
	adds	r4, r5, r4
	.loc	1 264 17                        @ ../../../ThirdParty/mbedTLS/library/bignum.c:264:17
	stm	r7!, {r4}
	.loc	1 263 28 is_stmt 1              @ ../../../ThirdParty/mbedTLS/library/bignum.c:263:28
	adds	r2, r2, #1
.Ltmp97:
	@DEBUG_VALUE: mbedtls_mpi_safe_cond_assign:i <- $r2
	.loc	1 263 24 is_stmt 0              @ ../../../ThirdParty/mbedTLS/library/bignum.c:263:24
	ldr	r4, [sp, #8]                    @ 4-byte Reload
	ldr	r4, [r4, #4]
.Ltmp98:
	.loc	1 263 5                         @ ../../../ThirdParty/mbedTLS/library/bignum.c:263:5
	cmp	r2, r4
	blo	.LBB7_3
	b	.LBB7_5
.Ltmp99:
.LBB7_4:
	@DEBUG_VALUE: mbedtls_mpi_safe_cond_assign:X <- $r4
	@DEBUG_VALUE: mbedtls_mpi_safe_cond_assign:assign <- $r3
	@DEBUG_VALUE: mbedtls_mpi_safe_cond_assign:ret <- $r0
	@DEBUG_VALUE: mbedtls_mpi_safe_cond_assign:Y <- [DW_OP_plus_uconst 8] [$sp+0]
	@DEBUG_VALUE: mbedtls_mpi_safe_cond_assign:i <- 0
	.loc	1 0 5                           @ ../../../ThirdParty/mbedTLS/library/bignum.c:0:5
	movs	r2, #0
.Ltmp100:
.LBB7_5:
	@DEBUG_VALUE: mbedtls_mpi_safe_cond_assign:assign <- $r3
	@DEBUG_VALUE: mbedtls_mpi_safe_cond_assign:ret <- $r0
	@DEBUG_VALUE: mbedtls_mpi_safe_cond_assign:Y <- [DW_OP_plus_uconst 8] [$sp+0]
	@DEBUG_VALUE: mbedtls_mpi_safe_cond_assign:i <- $r2
	ldr	r6, [sp, #4]                    @ 4-byte Reload
.Ltmp101:
	.loc	1 266 19 is_stmt 1              @ ../../../ThirdParty/mbedTLS/library/bignum.c:266:19
	ldr	r3, [r6, #4]
.Ltmp102:
	.loc	1 266 5 is_stmt 0               @ ../../../ThirdParty/mbedTLS/library/bignum.c:266:5
	cmp	r2, r3
	bhs	.LBB7_8
.Ltmp103:
@ %bb.6:
	@DEBUG_VALUE: mbedtls_mpi_safe_cond_assign:i <- $r2
	@DEBUG_VALUE: mbedtls_mpi_safe_cond_assign:ret <- $r0
	@DEBUG_VALUE: mbedtls_mpi_safe_cond_assign:Y <- [DW_OP_plus_uconst 8] [$sp+0]
	lsls	r3, r2, #2
.Ltmp104:
	.loc	1 0 0                           @ ../../../ThirdParty/mbedTLS/library/bignum.c:0:0
	ldr	r5, [r6, #8]
.Ltmp105:
	.loc	1 266 5                         @ ../../../ThirdParty/mbedTLS/library/bignum.c:266:5
	adds	r3, r5, r3
.Ltmp106:
.LBB7_7:                                @ =>This Inner Loop Header: Depth=1
	@DEBUG_VALUE: mbedtls_mpi_safe_cond_assign:i <- $r2
	@DEBUG_VALUE: mbedtls_mpi_safe_cond_assign:ret <- $r0
	@DEBUG_VALUE: mbedtls_mpi_safe_cond_assign:Y <- [DW_OP_plus_uconst 8] [$sp+0]
	@DEBUG_VALUE: mbedtls_mpi_safe_cond_assign:i <- $r2
	.loc	1 267 17 is_stmt 1              @ ../../../ThirdParty/mbedTLS/library/bignum.c:267:17
	ldr	r4, [r3]
	muls	r4, r1, r4
	stm	r3!, {r4}
	.loc	1 266 23                        @ ../../../ThirdParty/mbedTLS/library/bignum.c:266:23
	adds	r2, r2, #1
.Ltmp107:
	@DEBUG_VALUE: mbedtls_mpi_safe_cond_assign:i <- $r2
	.loc	1 266 19 is_stmt 0              @ ../../../ThirdParty/mbedTLS/library/bignum.c:266:19
	ldr	r4, [r6, #4]
.Ltmp108:
	.loc	1 266 5                         @ ../../../ThirdParty/mbedTLS/library/bignum.c:266:5
	cmp	r2, r4
	blo	.LBB7_7
.Ltmp109:
.LBB7_8:
	@DEBUG_VALUE: mbedtls_mpi_safe_cond_assign:ret <- $r0
	@DEBUG_VALUE: mbedtls_mpi_safe_cond_assign:Y <- [DW_OP_plus_uconst 8] [$sp+0]
	@DEBUG_LABEL: mbedtls_mpi_safe_cond_assign:cleanup
	.loc	1 270 5 is_stmt 1               @ ../../../ThirdParty/mbedTLS/library/bignum.c:270:5
	add	sp, #12
.Ltmp110:
	pop	{r4, r5, r6, r7, pc}
.Ltmp111:
.Lfunc_end7:
	.size	mbedtls_mpi_safe_cond_assign, .Lfunc_end7-mbedtls_mpi_safe_cond_assign
	.cfi_endproc
	.cantunwind
	.fnend
                                        @ -- End function
	.section	.text.mbedtls_mpi_safe_cond_swap,"ax",%progbits
	.hidden	mbedtls_mpi_safe_cond_swap      @ -- Begin function mbedtls_mpi_safe_cond_swap
	.globl	mbedtls_mpi_safe_cond_swap
	.p2align	1
	.type	mbedtls_mpi_safe_cond_swap,%function
	.code	16                              @ @mbedtls_mpi_safe_cond_swap
	.thumb_func
mbedtls_mpi_safe_cond_swap:
.Lfunc_begin8:
	.loc	1 280 0                         @ ../../../ThirdParty/mbedTLS/library/bignum.c:280:0
	.fnstart
	.cfi_startproc
@ %bb.0:
	@DEBUG_VALUE: mbedtls_mpi_safe_cond_swap:X <- $r0
	@DEBUG_VALUE: mbedtls_mpi_safe_cond_swap:Y <- $r1
	@DEBUG_VALUE: mbedtls_mpi_safe_cond_swap:swap <- $r2
	.save	{r4, r5, r6, r7, lr}
	push	{r4, r5, r6, r7, lr}
	.cfi_def_cfa_offset 20
	.cfi_offset lr, -4
	.cfi_offset r7, -8
	.cfi_offset r6, -12
	.cfi_offset r5, -16
	.cfi_offset r4, -20
	.pad	#12
	sub	sp, #12
	.cfi_def_cfa_offset 32
	movs	r7, #0
	str	r0, [sp, #8]                    @ 4-byte Spill
	@DEBUG_VALUE: mbedtls_mpi_safe_cond_swap:swap <- $r2
	@DEBUG_VALUE: mbedtls_mpi_safe_cond_swap:Y <- $r1
.Ltmp112:
	@DEBUG_VALUE: mbedtls_mpi_safe_cond_swap:X <- [DW_OP_plus_uconst 8] [$sp+0]
	.loc	1 287 9 prologue_end            @ ../../../ThirdParty/mbedTLS/library/bignum.c:287:9
	cmp	r0, r1
	beq	.LBB8_3
.Ltmp113:
@ %bb.1:
	@DEBUG_VALUE: mbedtls_mpi_safe_cond_swap:swap <- $r2
	@DEBUG_VALUE: mbedtls_mpi_safe_cond_swap:Y <- $r1
	@DEBUG_VALUE: mbedtls_mpi_safe_cond_swap:X <- [DW_OP_plus_uconst 8] [$sp+0]
	.loc	1 0 9 is_stmt 0                 @ ../../../ThirdParty/mbedTLS/library/bignum.c:0:9
	mov	r6, r2
.Ltmp114:
	@DEBUG_VALUE: mbedtls_mpi_safe_cond_swap:swap <- $r6
	mov	r5, r1
.Ltmp115:
	@DEBUG_VALUE: mbedtls_mpi_safe_cond_swap:Y <- $r5
	@DEBUG_VALUE: mbedtls_mpi_safe_cond_swap:swap <- undef
	.loc	1 293 5 is_stmt 1               @ ../../../ThirdParty/mbedTLS/library/bignum.c:293:5
	ldr	r1, [r1, #4]
	ldr	r0, [sp, #8]                    @ 4-byte Reload
	bl	mbedtls_mpi_grow
.Ltmp116:
	@DEBUG_VALUE: mbedtls_mpi_safe_cond_swap:ret <- $r0
	.loc	1 293 5 is_stmt 0               @ ../../../ThirdParty/mbedTLS/library/bignum.c:293:5
	cbz	r0, .LBB8_4
.Ltmp117:
.LBB8_2:
	@DEBUG_VALUE: mbedtls_mpi_safe_cond_swap:Y <- $r5
	@DEBUG_VALUE: mbedtls_mpi_safe_cond_swap:X <- [DW_OP_plus_uconst 8] [$sp+0]
	.loc	1 310 1 is_stmt 1               @ ../../../ThirdParty/mbedTLS/library/bignum.c:310:1
	add	sp, #12
.Ltmp118:
	pop	{r4, r5, r6, r7, pc}
.Ltmp119:
.LBB8_3:
	@DEBUG_VALUE: mbedtls_mpi_safe_cond_swap:swap <- $r2
	@DEBUG_VALUE: mbedtls_mpi_safe_cond_swap:Y <- $r1
	@DEBUG_VALUE: mbedtls_mpi_safe_cond_swap:X <- [DW_OP_plus_uconst 8] [$sp+0]
	.loc	1 0 0 is_stmt 0                 @ ../../../ThirdParty/mbedTLS/library/bignum.c:0:0
	mov	r0, r7
	.loc	1 310 1                         @ ../../../ThirdParty/mbedTLS/library/bignum.c:310:1
	add	sp, #12
.Ltmp120:
	pop	{r4, r5, r6, r7, pc}
.Ltmp121:
.LBB8_4:
	@DEBUG_VALUE: mbedtls_mpi_safe_cond_swap:Y <- $r5
	@DEBUG_VALUE: mbedtls_mpi_safe_cond_swap:ret <- $r0
	@DEBUG_VALUE: mbedtls_mpi_safe_cond_swap:X <- [DW_OP_plus_uconst 8] [$sp+0]
	@DEBUG_VALUE: mbedtls_mpi_safe_cond_swap:swap <- undef
	.loc	1 294 5 is_stmt 1               @ ../../../ThirdParty/mbedTLS/library/bignum.c:294:5
	ldr	r0, [sp, #8]                    @ 4-byte Reload
.Ltmp122:
	ldr	r1, [r0, #4]
	mov	r0, r5
	bl	mbedtls_mpi_grow
.Ltmp123:
	@DEBUG_VALUE: mbedtls_mpi_safe_cond_swap:ret <- $r0
	.loc	1 294 5 is_stmt 0               @ ../../../ThirdParty/mbedTLS/library/bignum.c:294:5
	cmp	r0, #0
	bne	.LBB8_2
.Ltmp124:
@ %bb.5:
	@DEBUG_VALUE: mbedtls_mpi_safe_cond_swap:Y <- $r5
	@DEBUG_VALUE: mbedtls_mpi_safe_cond_swap:ret <- $r0
	@DEBUG_VALUE: mbedtls_mpi_safe_cond_swap:X <- [DW_OP_plus_uconst 8] [$sp+0]
	.loc	1 0 5                           @ ../../../ThirdParty/mbedTLS/library/bignum.c:0:5
	rsbs	r0, r6, #0
.Ltmp125:
	orrs	r0, r6
	uxtb	r0, r0
	lsrs	r4, r0, #7
.Ltmp126:
	@DEBUG_VALUE: mbedtls_mpi_safe_cond_swap:swap <- $r4
	movs	r2, #1
	.loc	1 297 23 is_stmt 1              @ ../../../ThirdParty/mbedTLS/library/bignum.c:297:23
	eors	r2, r4
	ldr	r1, [sp, #8]                    @ 4-byte Reload
	.loc	1 296 12                        @ ../../../ThirdParty/mbedTLS/library/bignum.c:296:12
	ldr	r0, [r1]
.Ltmp127:
	@DEBUG_VALUE: mbedtls_mpi_safe_cond_swap:s <- $r0
	.loc	1 297 17                        @ ../../../ThirdParty/mbedTLS/library/bignum.c:297:17
	mov	r3, r2
	muls	r3, r0, r3
	.loc	1 297 37 is_stmt 0              @ ../../../ThirdParty/mbedTLS/library/bignum.c:297:37
	ldr	r6, [r5]
	.loc	1 297 39                        @ ../../../ThirdParty/mbedTLS/library/bignum.c:297:39
	muls	r6, r4, r6
	.loc	1 297 32                        @ ../../../ThirdParty/mbedTLS/library/bignum.c:297:32
	adds	r3, r6, r3
	@DEBUG_VALUE: mbedtls_mpi_safe_cond_swap:swap <- $r4
	.loc	1 297 10                        @ ../../../ThirdParty/mbedTLS/library/bignum.c:297:10
	str	r3, [r1]
	.loc	1 298 39 is_stmt 1              @ ../../../ThirdParty/mbedTLS/library/bignum.c:298:39
	muls	r0, r4, r0
.Ltmp128:
	.loc	1 298 15 is_stmt 0              @ ../../../ThirdParty/mbedTLS/library/bignum.c:298:15
	ldr	r3, [r5]
	.loc	1 298 17                        @ ../../../ThirdParty/mbedTLS/library/bignum.c:298:17
	muls	r3, r2, r3
	.loc	1 298 32                        @ ../../../ThirdParty/mbedTLS/library/bignum.c:298:32
	adds	r0, r3, r0
	.loc	1 298 10                        @ ../../../ThirdParty/mbedTLS/library/bignum.c:298:10
	str	r0, [r5]
.Ltmp129:
	@DEBUG_VALUE: mbedtls_mpi_safe_cond_swap:i <- 0
	.loc	1 301 24 is_stmt 1              @ ../../../ThirdParty/mbedTLS/library/bignum.c:301:24
	ldr	r0, [r1, #4]
.Ltmp130:
	.loc	1 301 5 is_stmt 0               @ ../../../ThirdParty/mbedTLS/library/bignum.c:301:5
	cmp	r0, #0
.Ltmp131:
	.loc	1 0 0                           @ ../../../ThirdParty/mbedTLS/library/bignum.c:0:0
	mov	r0, r7
.Ltmp132:
	.loc	1 301 5                         @ ../../../ThirdParty/mbedTLS/library/bignum.c:301:5
	beq	.LBB8_2
.Ltmp133:
@ %bb.6:
	@DEBUG_VALUE: mbedtls_mpi_safe_cond_swap:Y <- $r5
	@DEBUG_VALUE: mbedtls_mpi_safe_cond_swap:swap <- $r4
	@DEBUG_VALUE: mbedtls_mpi_safe_cond_swap:X <- [DW_OP_plus_uconst 8] [$sp+0]
	@DEBUG_VALUE: mbedtls_mpi_safe_cond_swap:i <- 0
	.loc	1 0 0                           @ ../../../ThirdParty/mbedTLS/library/bignum.c:0:0
	ldr	r3, [r5, #8]
	ldr	r0, [sp, #8]                    @ 4-byte Reload
	ldr	r5, [r0, #8]
.Ltmp134:
	@DEBUG_VALUE: mbedtls_mpi_safe_cond_swap:Y <- [DW_OP_LLVM_entry_value 1] $r1
	movs	r6, #0
	str	r6, [sp, #4]                    @ 4-byte Spill
.Ltmp135:
.LBB8_7:                                @ =>This Inner Loop Header: Depth=1
	@DEBUG_VALUE: mbedtls_mpi_safe_cond_swap:swap <- $r4
	@DEBUG_VALUE: mbedtls_mpi_safe_cond_swap:X <- [DW_OP_plus_uconst 8] [$sp+0]
	@DEBUG_VALUE: mbedtls_mpi_safe_cond_swap:Y <- [DW_OP_LLVM_entry_value 1] $r1
	@DEBUG_VALUE: mbedtls_mpi_safe_cond_swap:i <- $r6
	.loc	1 303 15 is_stmt 1              @ ../../../ThirdParty/mbedTLS/library/bignum.c:303:15
	ldr	r7, [r5]
.Ltmp136:
	@DEBUG_VALUE: mbedtls_mpi_safe_cond_swap:tmp <- $r7
	.loc	1 0 15 is_stmt 0                @ ../../../ThirdParty/mbedTLS/library/bignum.c:0:15
	mov	r0, r2
	.loc	1 304 27 is_stmt 1              @ ../../../ThirdParty/mbedTLS/library/bignum.c:304:27
	muls	r2, r7, r2
	.loc	1 304 44 is_stmt 0              @ ../../../ThirdParty/mbedTLS/library/bignum.c:304:44
	ldr	r1, [r3]
	.loc	1 304 52                        @ ../../../ThirdParty/mbedTLS/library/bignum.c:304:52
	muls	r1, r4, r1
	.loc	1 304 42                        @ ../../../ThirdParty/mbedTLS/library/bignum.c:304:42
	adds	r1, r1, r2
	mov	r2, r0
	.loc	1 304 17                        @ ../../../ThirdParty/mbedTLS/library/bignum.c:304:17
	stm	r5!, {r1}
	.loc	1 305 52 is_stmt 1              @ ../../../ThirdParty/mbedTLS/library/bignum.c:305:52
	muls	r7, r4, r7
.Ltmp137:
	.loc	1 305 19 is_stmt 0              @ ../../../ThirdParty/mbedTLS/library/bignum.c:305:19
	ldr	r1, [r3]
	.loc	1 305 27                        @ ../../../ThirdParty/mbedTLS/library/bignum.c:305:27
	muls	r1, r0, r1
	.loc	1 305 42                        @ ../../../ThirdParty/mbedTLS/library/bignum.c:305:42
	adds	r1, r1, r7
	.loc	1 305 17                        @ ../../../ThirdParty/mbedTLS/library/bignum.c:305:17
	stm	r3!, {r1}
.Ltmp138:
	.loc	1 301 28 is_stmt 1              @ ../../../ThirdParty/mbedTLS/library/bignum.c:301:28
	adds	r6, r6, #1
.Ltmp139:
	@DEBUG_VALUE: mbedtls_mpi_safe_cond_swap:i <- $r6
	.loc	1 301 24 is_stmt 0              @ ../../../ThirdParty/mbedTLS/library/bignum.c:301:24
	ldr	r1, [sp, #8]                    @ 4-byte Reload
	ldr	r1, [r1, #4]
.Ltmp140:
	.loc	1 301 5                         @ ../../../ThirdParty/mbedTLS/library/bignum.c:301:5
	cmp	r6, r1
	blo	.LBB8_7
.Ltmp141:
@ %bb.8:
	@DEBUG_VALUE: mbedtls_mpi_safe_cond_swap:i <- $r6
	@DEBUG_VALUE: mbedtls_mpi_safe_cond_swap:swap <- $r4
	@DEBUG_VALUE: mbedtls_mpi_safe_cond_swap:X <- [DW_OP_plus_uconst 8] [$sp+0]
	@DEBUG_VALUE: mbedtls_mpi_safe_cond_swap:Y <- [DW_OP_LLVM_entry_value 1] $r1
	.loc	1 0 5                           @ ../../../ThirdParty/mbedTLS/library/bignum.c:0:5
	ldr	r0, [sp, #4]                    @ 4-byte Reload
	.loc	1 310 1 is_stmt 1               @ ../../../ThirdParty/mbedTLS/library/bignum.c:310:1
	add	sp, #12
.Ltmp142:
	pop	{r4, r5, r6, r7, pc}
.Ltmp143:
.Lfunc_end8:
	.size	mbedtls_mpi_safe_cond_swap, .Lfunc_end8-mbedtls_mpi_safe_cond_swap
	.cfi_endproc
	.cantunwind
	.fnend
                                        @ -- End function
	.section	.text.mbedtls_mpi_lset,"ax",%progbits
	.hidden	mbedtls_mpi_lset                @ -- Begin function mbedtls_mpi_lset
	.globl	mbedtls_mpi_lset
	.p2align	1
	.type	mbedtls_mpi_lset,%function
	.code	16                              @ @mbedtls_mpi_lset
	.thumb_func
mbedtls_mpi_lset:
.Lfunc_begin9:
	.loc	1 316 0                         @ ../../../ThirdParty/mbedTLS/library/bignum.c:316:0
	.fnstart
	.cfi_startproc
@ %bb.0:
	@DEBUG_VALUE: mbedtls_mpi_lset:X <- $r0
	@DEBUG_VALUE: mbedtls_mpi_lset:z <- $r1
	.save	{r4, r5, r6, r7, lr}
	push	{r4, r5, r6, r7, lr}
	.cfi_def_cfa_offset 20
	.cfi_offset lr, -4
	.cfi_offset r7, -8
	.cfi_offset r6, -12
	.cfi_offset r5, -16
	.cfi_offset r4, -20
	.pad	#4
	sub	sp, #4
	.cfi_def_cfa_offset 24
	mov	r7, r1
	mov	r4, r0
.Ltmp144:
	@DEBUG_VALUE: mbedtls_mpi_lset:z <- $r7
	@DEBUG_VALUE: mbedtls_mpi_lset:X <- $r4
	movs	r5, #1
.Ltmp145:
	.loc	1 320 5 prologue_end            @ ../../../ThirdParty/mbedTLS/library/bignum.c:320:5
	mov	r1, r5
	bl	mbedtls_mpi_grow
	mov	r6, r0
.Ltmp146:
	@DEBUG_VALUE: mbedtls_mpi_lset:ret <- $r6
	.loc	1 320 5 is_stmt 0               @ ../../../ThirdParty/mbedTLS/library/bignum.c:320:5
	cbnz	r0, .LBB9_4
.Ltmp147:
@ %bb.1:
	@DEBUG_VALUE: mbedtls_mpi_lset:z <- $r7
	@DEBUG_VALUE: mbedtls_mpi_lset:ret <- $r6
	@DEBUG_VALUE: mbedtls_mpi_lset:X <- $r4
	.loc	1 321 25 is_stmt 1              @ ../../../ThirdParty/mbedTLS/library/bignum.c:321:25
	ldr	r1, [r4, #4]
	.loc	1 321 16 is_stmt 0              @ ../../../ThirdParty/mbedTLS/library/bignum.c:321:16
	ldr	r0, [r4, #8]
	.loc	1 321 27                        @ ../../../ThirdParty/mbedTLS/library/bignum.c:321:27
	lsls	r1, r1, #2
	.loc	1 321 5                         @ ../../../ThirdParty/mbedTLS/library/bignum.c:321:5
	bl	__aeabi_memclr4
	.loc	1 323 15 is_stmt 1              @ ../../../ThirdParty/mbedTLS/library/bignum.c:323:15
	asrs	r0, r7, #31
	adds	r1, r7, r0
	eors	r1, r0
	.loc	1 323 8 is_stmt 0               @ ../../../ThirdParty/mbedTLS/library/bignum.c:323:8
	ldr	r0, [r4, #8]
	.loc	1 323 13                        @ ../../../ThirdParty/mbedTLS/library/bignum.c:323:13
	str	r1, [r0]
	.loc	1 324 15 is_stmt 1              @ ../../../ThirdParty/mbedTLS/library/bignum.c:324:15
	cmp	r7, #0
	bpl	.LBB9_3
.Ltmp148:
@ %bb.2:
	@DEBUG_VALUE: mbedtls_mpi_lset:z <- $r7
	@DEBUG_VALUE: mbedtls_mpi_lset:ret <- $r6
	@DEBUG_VALUE: mbedtls_mpi_lset:X <- $r4
	.loc	1 0 15 is_stmt 0                @ ../../../ThirdParty/mbedTLS/library/bignum.c:0:15
	movs	r0, #0
	mvns	r5, r0
.Ltmp149:
.LBB9_3:
	@DEBUG_VALUE: mbedtls_mpi_lset:z <- $r7
	@DEBUG_VALUE: mbedtls_mpi_lset:ret <- $r6
	@DEBUG_VALUE: mbedtls_mpi_lset:X <- $r4
	.loc	1 324 13                        @ ../../../ThirdParty/mbedTLS/library/bignum.c:324:13
	str	r5, [r4]
.Ltmp150:
.LBB9_4:
	@DEBUG_VALUE: mbedtls_mpi_lset:z <- $r7
	@DEBUG_VALUE: mbedtls_mpi_lset:ret <- $r6
	@DEBUG_VALUE: mbedtls_mpi_lset:X <- $r4
	@DEBUG_LABEL: mbedtls_mpi_lset:cleanup
	.loc	1 328 5 is_stmt 1               @ ../../../ThirdParty/mbedTLS/library/bignum.c:328:5
	mov	r0, r6
	add	sp, #4
	pop	{r4, r5, r6, r7, pc}
.Ltmp151:
.Lfunc_end9:
	.size	mbedtls_mpi_lset, .Lfunc_end9-mbedtls_mpi_lset
	.cfi_endproc
	.cantunwind
	.fnend
                                        @ -- End function
	.section	.text.mbedtls_mpi_get_bit,"ax",%progbits
	.hidden	mbedtls_mpi_get_bit             @ -- Begin function mbedtls_mpi_get_bit
	.globl	mbedtls_mpi_get_bit
	.p2align	1
	.type	mbedtls_mpi_get_bit,%function
	.code	16                              @ @mbedtls_mpi_get_bit
	.thumb_func
mbedtls_mpi_get_bit:
.Lfunc_begin10:
	.loc	1 335 0                         @ ../../../ThirdParty/mbedTLS/library/bignum.c:335:0
	.fnstart
	.cfi_startproc
@ %bb.0:
	@DEBUG_VALUE: mbedtls_mpi_get_bit:X <- $r0
	@DEBUG_VALUE: mbedtls_mpi_get_bit:X <- $r0
	@DEBUG_VALUE: mbedtls_mpi_get_bit:pos <- $r1
	@DEBUG_VALUE: mbedtls_mpi_get_bit:pos <- $r1
	.loc	1 338 12 prologue_end           @ ../../../ThirdParty/mbedTLS/library/bignum.c:338:12
	ldr	r2, [r0, #4]
	.loc	1 338 14 is_stmt 0              @ ../../../ThirdParty/mbedTLS/library/bignum.c:338:14
	lsls	r2, r2, #5
.Ltmp152:
	.loc	1 338 9                         @ ../../../ThirdParty/mbedTLS/library/bignum.c:338:9
	cmp	r1, r2
	bhs	.LBB10_2
.Ltmp153:
@ %bb.1:
	@DEBUG_VALUE: mbedtls_mpi_get_bit:pos <- $r1
	@DEBUG_VALUE: mbedtls_mpi_get_bit:X <- $r0
	.loc	1 0 9                           @ ../../../ThirdParty/mbedTLS/library/bignum.c:0:9
	movs	r2, #31
	.loc	1 341 40 is_stmt 1              @ ../../../ThirdParty/mbedTLS/library/bignum.c:341:40
	ands	r2, r1
	.loc	1 341 18 is_stmt 0              @ ../../../ThirdParty/mbedTLS/library/bignum.c:341:18
	ldr	r0, [r0, #8]
.Ltmp154:
	@DEBUG_VALUE: mbedtls_mpi_get_bit:X <- [DW_OP_LLVM_entry_value 1] $r0
	.loc	1 341 24                        @ ../../../ThirdParty/mbedTLS/library/bignum.c:341:24
	lsrs	r1, r1, #5
.Ltmp155:
	@DEBUG_VALUE: mbedtls_mpi_get_bit:pos <- [DW_OP_LLVM_entry_value 1] $r1
	lsls	r1, r1, #2
	.loc	1 341 15                        @ ../../../ThirdParty/mbedTLS/library/bignum.c:341:15
	ldr	r1, [r0, r1]
	.loc	1 341 31                        @ ../../../ThirdParty/mbedTLS/library/bignum.c:341:31
	lsrs	r1, r2
	movs	r0, #1
	.loc	1 341 50                        @ ../../../ThirdParty/mbedTLS/library/bignum.c:341:50
	ands	r0, r1
	.loc	1 342 1 is_stmt 1               @ ../../../ThirdParty/mbedTLS/library/bignum.c:342:1
	bx	lr
.Ltmp156:
.LBB10_2:
	@DEBUG_VALUE: mbedtls_mpi_get_bit:pos <- $r1
	@DEBUG_VALUE: mbedtls_mpi_get_bit:X <- $r0
	.loc	1 0 1 is_stmt 0                 @ ../../../ThirdParty/mbedTLS/library/bignum.c:0:1
	movs	r0, #0
.Ltmp157:
	@DEBUG_VALUE: mbedtls_mpi_get_bit:X <- [DW_OP_LLVM_entry_value 1] $r0
	.loc	1 342 1                         @ ../../../ThirdParty/mbedTLS/library/bignum.c:342:1
	bx	lr
.Ltmp158:
.Lfunc_end10:
	.size	mbedtls_mpi_get_bit, .Lfunc_end10-mbedtls_mpi_get_bit
	.cfi_endproc
	.cantunwind
	.fnend
                                        @ -- End function
	.section	.text.mbedtls_mpi_set_bit,"ax",%progbits
	.hidden	mbedtls_mpi_set_bit             @ -- Begin function mbedtls_mpi_set_bit
	.globl	mbedtls_mpi_set_bit
	.p2align	1
	.type	mbedtls_mpi_set_bit,%function
	.code	16                              @ @mbedtls_mpi_set_bit
	.thumb_func
mbedtls_mpi_set_bit:
.Lfunc_begin11:
	.loc	1 352 0 is_stmt 1               @ ../../../ThirdParty/mbedTLS/library/bignum.c:352:0
	.fnstart
	.cfi_startproc
@ %bb.0:
	@DEBUG_VALUE: mbedtls_mpi_set_bit:X <- $r0
	@DEBUG_VALUE: mbedtls_mpi_set_bit:pos <- $r1
	@DEBUG_VALUE: mbedtls_mpi_set_bit:val <- $r2
	@DEBUG_VALUE: mbedtls_mpi_set_bit:val <- $r2
	@DEBUG_VALUE: mbedtls_mpi_set_bit:pos <- $r1
	@DEBUG_VALUE: mbedtls_mpi_set_bit:X <- $r0
	.save	{r4, r5, r6, r7, lr}
	push	{r4, r5, r6, r7, lr}
	.cfi_def_cfa_offset 20
	.cfi_offset lr, -4
	.cfi_offset r7, -8
	.cfi_offset r6, -12
	.cfi_offset r5, -16
	.cfi_offset r4, -20
	.pad	#4
	sub	sp, #4
	.cfi_def_cfa_offset 24
.Ltmp159:
	@DEBUG_VALUE: mbedtls_mpi_set_bit:off <- undef
	@DEBUG_VALUE: mbedtls_mpi_set_bit:ret <- 0
	@DEBUG_VALUE: mbedtls_mpi_set_bit:idx <- undef
	.loc	1 358 18 prologue_end           @ ../../../ThirdParty/mbedTLS/library/bignum.c:358:18
	cmp	r2, #1
	bhi	.LBB11_3
.Ltmp160:
@ %bb.1:
	@DEBUG_VALUE: mbedtls_mpi_set_bit:val <- $r2
	@DEBUG_VALUE: mbedtls_mpi_set_bit:pos <- $r1
	@DEBUG_VALUE: mbedtls_mpi_set_bit:X <- $r0
	@DEBUG_VALUE: mbedtls_mpi_set_bit:ret <- 0
	.loc	1 0 18 is_stmt 0                @ ../../../ThirdParty/mbedTLS/library/bignum.c:0:18
	mov	r4, r2
.Ltmp161:
	@DEBUG_VALUE: mbedtls_mpi_set_bit:val <- $r4
	mov	r5, r1
.Ltmp162:
	@DEBUG_VALUE: mbedtls_mpi_set_bit:pos <- $r5
	mov	r6, r0
.Ltmp163:
	@DEBUG_VALUE: mbedtls_mpi_set_bit:X <- $r6
	@DEBUG_VALUE: mbedtls_mpi_set_bit:idx <- undef
	lsrs	r7, r1, #5
.Ltmp164:
	@DEBUG_VALUE: mbedtls_mpi_set_bit:off <- $r7
	.loc	1 361 12 is_stmt 1              @ ../../../ThirdParty/mbedTLS/library/bignum.c:361:12
	ldr	r0, [r0, #4]
	.loc	1 361 14 is_stmt 0              @ ../../../ThirdParty/mbedTLS/library/bignum.c:361:14
	lsls	r0, r0, #5
.Ltmp165:
	.loc	1 361 9                         @ ../../../ThirdParty/mbedTLS/library/bignum.c:361:9
	cmp	r1, r0
	bhs	.LBB11_4
.Ltmp166:
.LBB11_2:
	@DEBUG_VALUE: mbedtls_mpi_set_bit:off <- $r7
	@DEBUG_VALUE: mbedtls_mpi_set_bit:X <- $r6
	@DEBUG_VALUE: mbedtls_mpi_set_bit:pos <- $r5
	@DEBUG_VALUE: mbedtls_mpi_set_bit:val <- $r4
	.loc	1 0 9                           @ ../../../ThirdParty/mbedTLS/library/bignum.c:0:9
	movs	r0, #31
	ands	r5, r0
.Ltmp167:
	@DEBUG_VALUE: mbedtls_mpi_set_bit:pos <- [DW_OP_LLVM_entry_value 1] $r1
	@DEBUG_VALUE: mbedtls_mpi_set_bit:ret <- 0
	@DEBUG_VALUE: mbedtls_mpi_set_bit:idx <- $r5
	movs	r0, #1
	.loc	1 369 45 is_stmt 1              @ ../../../ThirdParty/mbedTLS/library/bignum.c:369:45
	lsls	r0, r5
	.loc	1 369 5 is_stmt 0               @ ../../../ThirdParty/mbedTLS/library/bignum.c:369:5
	lsls	r1, r7, #2
	.loc	1 369 8                         @ ../../../ThirdParty/mbedTLS/library/bignum.c:369:8
	ldr	r2, [r6, #8]
	.loc	1 369 15                        @ ../../../ThirdParty/mbedTLS/library/bignum.c:369:15
	ldr	r3, [r2, r1]
	bics	r3, r0
	.loc	1 370 41 is_stmt 1              @ ../../../ThirdParty/mbedTLS/library/bignum.c:370:41
	lsls	r4, r5
.Ltmp168:
	@DEBUG_VALUE: mbedtls_mpi_set_bit:val <- [DW_OP_LLVM_entry_value 1] $r2
	.loc	1 370 15 is_stmt 0              @ ../../../ThirdParty/mbedTLS/library/bignum.c:370:15
	orrs	r4, r3
	str	r4, [r2, r1]
	movs	r0, #0
	b	.LBB11_6
.Ltmp169:
.LBB11_3:
	@DEBUG_VALUE: mbedtls_mpi_set_bit:val <- $r2
	@DEBUG_VALUE: mbedtls_mpi_set_bit:pos <- $r1
	@DEBUG_VALUE: mbedtls_mpi_set_bit:X <- $r0
	@DEBUG_VALUE: mbedtls_mpi_set_bit:ret <- 0
	.loc	1 0 15                          @ ../../../ThirdParty/mbedTLS/library/bignum.c:0:15
	movs	r0, #3
.Ltmp170:
	@DEBUG_VALUE: mbedtls_mpi_set_bit:X <- [DW_OP_LLVM_entry_value 1] $r0
	mvns	r0, r0
	.loc	1 375 1 is_stmt 1               @ ../../../ThirdParty/mbedTLS/library/bignum.c:375:1
	add	sp, #4
	pop	{r4, r5, r6, r7, pc}
.Ltmp171:
.LBB11_4:
	@DEBUG_VALUE: mbedtls_mpi_set_bit:off <- $r7
	@DEBUG_VALUE: mbedtls_mpi_set_bit:X <- $r6
	@DEBUG_VALUE: mbedtls_mpi_set_bit:pos <- $r5
	@DEBUG_VALUE: mbedtls_mpi_set_bit:val <- $r4
	@DEBUG_VALUE: mbedtls_mpi_set_bit:ret <- 0
	.loc	1 363 13                        @ ../../../ThirdParty/mbedTLS/library/bignum.c:363:13
	cbz	r4, .LBB11_7
.Ltmp172:
@ %bb.5:
	@DEBUG_VALUE: mbedtls_mpi_set_bit:off <- $r7
	@DEBUG_VALUE: mbedtls_mpi_set_bit:X <- $r6
	@DEBUG_VALUE: mbedtls_mpi_set_bit:pos <- $r5
	@DEBUG_VALUE: mbedtls_mpi_set_bit:val <- $r4
	@DEBUG_VALUE: mbedtls_mpi_set_bit:ret <- 0
	.loc	1 366 9                         @ ../../../ThirdParty/mbedTLS/library/bignum.c:366:9
	adds	r1, r7, #1
	mov	r0, r6
	bl	mbedtls_mpi_grow
.Ltmp173:
	@DEBUG_VALUE: mbedtls_mpi_set_bit:ret <- $r0
	.loc	1 366 9 is_stmt 0               @ ../../../ThirdParty/mbedTLS/library/bignum.c:366:9
	cmp	r0, #0
	beq	.LBB11_2
.Ltmp174:
.LBB11_6:
	@DEBUG_VALUE: mbedtls_mpi_set_bit:off <- $r7
	@DEBUG_VALUE: mbedtls_mpi_set_bit:X <- $r6
	.loc	1 375 1 is_stmt 1               @ ../../../ThirdParty/mbedTLS/library/bignum.c:375:1
	add	sp, #4
	pop	{r4, r5, r6, r7, pc}
.Ltmp175:
.LBB11_7:
	@DEBUG_VALUE: mbedtls_mpi_set_bit:off <- $r7
	@DEBUG_VALUE: mbedtls_mpi_set_bit:X <- $r6
	@DEBUG_VALUE: mbedtls_mpi_set_bit:pos <- $r5
	@DEBUG_VALUE: mbedtls_mpi_set_bit:val <- $r4
	@DEBUG_VALUE: mbedtls_mpi_set_bit:ret <- 0
	.loc	1 0 1 is_stmt 0                 @ ../../../ThirdParty/mbedTLS/library/bignum.c:0:1
	movs	r0, #0
	.loc	1 375 1                         @ ../../../ThirdParty/mbedTLS/library/bignum.c:375:1
	add	sp, #4
	pop	{r4, r5, r6, r7, pc}
.Ltmp176:
.Lfunc_end11:
	.size	mbedtls_mpi_set_bit, .Lfunc_end11-mbedtls_mpi_set_bit
	.cfi_endproc
	.cantunwind
	.fnend
                                        @ -- End function
	.section	.text.mbedtls_mpi_lsb,"ax",%progbits
	.hidden	mbedtls_mpi_lsb                 @ -- Begin function mbedtls_mpi_lsb
	.globl	mbedtls_mpi_lsb
	.p2align	1
	.type	mbedtls_mpi_lsb,%function
	.code	16                              @ @mbedtls_mpi_lsb
	.thumb_func
mbedtls_mpi_lsb:
.Lfunc_begin12:
	.loc	1 381 0 is_stmt 1               @ ../../../ThirdParty/mbedTLS/library/bignum.c:381:0
	.fnstart
	.cfi_startproc
@ %bb.0:
	@DEBUG_VALUE: mbedtls_mpi_lsb:X <- $r0
	.save	{r4, r5, r6, r7, lr}
	push	{r4, r5, r6, r7, lr}
	.cfi_def_cfa_offset 20
	.cfi_offset lr, -4
	.cfi_offset r7, -8
	.cfi_offset r6, -12
	.cfi_offset r5, -16
	.cfi_offset r4, -20
	.pad	#4
	sub	sp, #4
	.cfi_def_cfa_offset 24
	mov	r1, r0
.Ltmp177:
	@DEBUG_VALUE: mbedtls_mpi_lsb:i <- 0
	@DEBUG_VALUE: mbedtls_mpi_lsb:count <- 0
	@DEBUG_VALUE: mbedtls_mpi_lsb:X <- $r1
	.loc	1 385 24 prologue_end           @ ../../../ThirdParty/mbedTLS/library/bignum.c:385:24
	ldr	r0, [r0, #4]
.Ltmp178:
	.loc	1 385 5 is_stmt 0               @ ../../../ThirdParty/mbedTLS/library/bignum.c:385:5
	cbz	r0, .LBB12_8
.Ltmp179:
@ %bb.1:
	@DEBUG_VALUE: mbedtls_mpi_lsb:X <- $r1
	@DEBUG_VALUE: mbedtls_mpi_lsb:count <- 0
	@DEBUG_VALUE: mbedtls_mpi_lsb:i <- 0
	.loc	1 0 0                           @ ../../../ThirdParty/mbedTLS/library/bignum.c:0:0
	ldr	r2, [r1, #8]
	movs	r0, #0
	mov	r5, r0
	mov	r3, r0
.Ltmp180:
	.loc	1 386 9 is_stmt 1               @ ../../../ThirdParty/mbedTLS/library/bignum.c:386:9
	mov	r4, r0
	str	r2, [sp]                        @ 4-byte Spill
.Ltmp181:
.LBB12_2:                               @ =>This Loop Header: Depth=1
                                        @     Child Loop BB12_3 Depth 2
	@DEBUG_VALUE: mbedtls_mpi_lsb:X <- $r1
	@DEBUG_VALUE: mbedtls_mpi_lsb:count <- $r5
	@DEBUG_VALUE: mbedtls_mpi_lsb:i <- $r3
	@DEBUG_VALUE: mbedtls_mpi_lsb:j <- 0
	.loc	1 0 0 is_stmt 0                 @ ../../../ThirdParty/mbedTLS/library/bignum.c:0:0
	lsls	r6, r3, #2
	ldr	r2, [r2, r6]
.Ltmp182:
	.loc	1 386 9                         @ ../../../ThirdParty/mbedTLS/library/bignum.c:386:9
	adds	r4, #32
	mov	r7, r0
.Ltmp183:
.LBB12_3:                               @   Parent Loop BB12_2 Depth=1
                                        @ =>  This Inner Loop Header: Depth=2
	@DEBUG_VALUE: mbedtls_mpi_lsb:i <- $r3
	@DEBUG_VALUE: mbedtls_mpi_lsb:X <- $r1
	@DEBUG_VALUE: mbedtls_mpi_lsb:count <- undef
	@DEBUG_VALUE: mbedtls_mpi_lsb:j <- $r7
	.loc	1 387 17 is_stmt 1              @ ../../../ThirdParty/mbedTLS/library/bignum.c:387:17
	mov	r6, r2
	lsrs	r6, r7
	lsls	r6, r6, #31
	bne	.LBB12_6
.Ltmp184:
@ %bb.4:                                @   in Loop: Header=BB12_3 Depth=2
	@DEBUG_VALUE: mbedtls_mpi_lsb:j <- $r7
	@DEBUG_VALUE: mbedtls_mpi_lsb:i <- $r3
	@DEBUG_VALUE: mbedtls_mpi_lsb:X <- $r1
	.loc	1 386 31                        @ ../../../ThirdParty/mbedTLS/library/bignum.c:386:31
	adds	r7, r7, #1
.Ltmp185:
	@DEBUG_VALUE: mbedtls_mpi_lsb:j <- $r7
	@DEBUG_VALUE: mbedtls_mpi_lsb:count <- [DW_OP_plus_uconst 1, DW_OP_stack_value] undef
	.loc	1 386 9 is_stmt 0               @ ../../../ThirdParty/mbedTLS/library/bignum.c:386:9
	cmp	r7, #32
	bne	.LBB12_3
.Ltmp186:
@ %bb.5:                                @   in Loop: Header=BB12_2 Depth=1
	@DEBUG_VALUE: mbedtls_mpi_lsb:j <- $r7
	@DEBUG_VALUE: mbedtls_mpi_lsb:i <- $r3
	@DEBUG_VALUE: mbedtls_mpi_lsb:X <- $r1
	@DEBUG_VALUE: mbedtls_mpi_lsb:count <- $r4
	.loc	1 385 28 is_stmt 1              @ ../../../ThirdParty/mbedTLS/library/bignum.c:385:28
	adds	r3, r3, #1
.Ltmp187:
	@DEBUG_VALUE: mbedtls_mpi_lsb:i <- $r3
	.loc	1 385 24 is_stmt 0              @ ../../../ThirdParty/mbedTLS/library/bignum.c:385:24
	ldr	r2, [r1, #4]
.Ltmp188:
	.loc	1 385 5                         @ ../../../ThirdParty/mbedTLS/library/bignum.c:385:5
	cmp	r3, r2
	mov	r5, r4
	ldr	r2, [sp]                        @ 4-byte Reload
	blo	.LBB12_2
	b	.LBB12_7
.Ltmp189:
.LBB12_6:
	@DEBUG_VALUE: mbedtls_mpi_lsb:j <- $r7
	@DEBUG_VALUE: mbedtls_mpi_lsb:i <- $r3
	@DEBUG_VALUE: mbedtls_mpi_lsb:X <- $r1
	.loc	1 391 1 is_stmt 1               @ ../../../ThirdParty/mbedTLS/library/bignum.c:391:1
	adds	r0, r5, r7
.Ltmp190:
.LBB12_7:
	@DEBUG_VALUE: mbedtls_mpi_lsb:j <- $r7
	@DEBUG_VALUE: mbedtls_mpi_lsb:i <- $r3
	@DEBUG_VALUE: mbedtls_mpi_lsb:X <- $r1
	add	sp, #4
	pop	{r4, r5, r6, r7, pc}
.Ltmp191:
.LBB12_8:
	@DEBUG_VALUE: mbedtls_mpi_lsb:X <- $r1
	@DEBUG_VALUE: mbedtls_mpi_lsb:count <- 0
	@DEBUG_VALUE: mbedtls_mpi_lsb:i <- 0
	.loc	1 0 1 is_stmt 0                 @ ../../../ThirdParty/mbedTLS/library/bignum.c:0:1
	movs	r0, #0
	.loc	1 391 1                         @ ../../../ThirdParty/mbedTLS/library/bignum.c:391:1
	add	sp, #4
	pop	{r4, r5, r6, r7, pc}
.Ltmp192:
.Lfunc_end12:
	.size	mbedtls_mpi_lsb, .Lfunc_end12-mbedtls_mpi_lsb
	.cfi_endproc
	.cantunwind
	.fnend
                                        @ -- End function
	.section	.text.mbedtls_mpi_bitlen,"ax",%progbits
	.hidden	mbedtls_mpi_bitlen              @ -- Begin function mbedtls_mpi_bitlen
	.globl	mbedtls_mpi_bitlen
	.p2align	1
	.type	mbedtls_mpi_bitlen,%function
	.code	16                              @ @mbedtls_mpi_bitlen
	.thumb_func
mbedtls_mpi_bitlen:
.Lfunc_begin13:
	.loc	1 415 0 is_stmt 1               @ ../../../ThirdParty/mbedTLS/library/bignum.c:415:0
	.fnstart
	.cfi_startproc
@ %bb.0:
	@DEBUG_VALUE: mbedtls_mpi_bitlen:X <- $r0
	@DEBUG_VALUE: mbedtls_mpi_bitlen:X <- $r0
	.save	{r4, lr}
	push	{r4, lr}
	.cfi_def_cfa_offset 8
	.cfi_offset lr, -4
	.cfi_offset r4, -8
.Ltmp193:
	.loc	1 418 12 prologue_end           @ ../../../ThirdParty/mbedTLS/library/bignum.c:418:12
	ldr	r4, [r0, #4]
.Ltmp194:
	.loc	1 418 9 is_stmt 0               @ ../../../ThirdParty/mbedTLS/library/bignum.c:418:9
	cbz	r4, .LBB13_4
.Ltmp195:
@ %bb.1:
	@DEBUG_VALUE: mbedtls_mpi_bitlen:X <- $r0
	.loc	1 421 5 is_stmt 1               @ ../../../ThirdParty/mbedTLS/library/bignum.c:421:5
	lsls	r1, r4, #2
	subs	r2, r1, #4
	movs	r1, #0
.Ltmp196:
.LBB13_2:                               @ =>This Inner Loop Header: Depth=1
	@DEBUG_VALUE: mbedtls_mpi_bitlen:X <- $r0
	@DEBUG_VALUE: mbedtls_mpi_bitlen:i <- undef
	cmp	r4, #1
	beq	.LBB13_5
.Ltmp197:
@ %bb.3:                                @   in Loop: Header=BB13_2 Depth=1
	@DEBUG_VALUE: mbedtls_mpi_bitlen:X <- $r0
	.loc	1 0 0 is_stmt 0                 @ ../../../ThirdParty/mbedTLS/library/bignum.c:0:0
	subs	r4, r4, #1
.Ltmp198:
	@DEBUG_VALUE: mbedtls_mpi_bitlen:i <- $r4
	.loc	1 422 16 is_stmt 1              @ ../../../ThirdParty/mbedTLS/library/bignum.c:422:16
	ldr	r3, [r0, #8]
	.loc	1 422 13 is_stmt 0              @ ../../../ThirdParty/mbedTLS/library/bignum.c:422:13
	ldr	r3, [r3, r2]
.Ltmp199:
	.loc	1 422 13                        @ ../../../ThirdParty/mbedTLS/library/bignum.c:422:13
	subs	r2, r2, #4
	cmp	r3, #0
	beq	.LBB13_2
	b	.LBB13_6
.Ltmp200:
.LBB13_4:
	@DEBUG_VALUE: mbedtls_mpi_bitlen:X <- $r0
	.loc	1 0 13                          @ ../../../ThirdParty/mbedTLS/library/bignum.c:0:13
	movs	r0, #0
.Ltmp201:
	@DEBUG_VALUE: mbedtls_mpi_bitlen:X <- [DW_OP_LLVM_entry_value 1] $r0
	.loc	1 428 1 is_stmt 1               @ ../../../ThirdParty/mbedTLS/library/bignum.c:428:1
	pop	{r4, pc}
.Ltmp202:
.LBB13_5:
	@DEBUG_VALUE: mbedtls_mpi_bitlen:X <- $r0
	.loc	1 0 0 is_stmt 0                 @ ../../../ThirdParty/mbedTLS/library/bignum.c:0:0
	mov	r4, r1
.Ltmp203:
.LBB13_6:
	@DEBUG_VALUE: mbedtls_mpi_bitlen:X <- $r0
	.loc	1 425 28 is_stmt 1              @ ../../../ThirdParty/mbedTLS/library/bignum.c:425:28
	lsls	r1, r4, #2
	.loc	1 425 31 is_stmt 0              @ ../../../ThirdParty/mbedTLS/library/bignum.c:425:31
	ldr	r0, [r0, #8]
.Ltmp204:
	@DEBUG_VALUE: mbedtls_mpi_bitlen:X <- [DW_OP_LLVM_entry_value 1] $r0
	.loc	1 425 28                        @ ../../../ThirdParty/mbedTLS/library/bignum.c:425:28
	ldr	r0, [r0, r1]
	.loc	1 425 15                        @ ../../../ThirdParty/mbedTLS/library/bignum.c:425:15
	bl	mbedtls_clz
.Ltmp205:
	@DEBUG_VALUE: mbedtls_mpi_bitlen:j <- undef
	.loc	1 427 17 is_stmt 1              @ ../../../ThirdParty/mbedTLS/library/bignum.c:427:17
	lsls	r1, r4, #5
	.loc	1 427 25 is_stmt 0              @ ../../../ThirdParty/mbedTLS/library/bignum.c:427:25
	subs	r0, r1, r0
	adds	r0, #32
	.loc	1 428 1 is_stmt 1               @ ../../../ThirdParty/mbedTLS/library/bignum.c:428:1
	pop	{r4, pc}
.Ltmp206:
.Lfunc_end13:
	.size	mbedtls_mpi_bitlen, .Lfunc_end13-mbedtls_mpi_bitlen
	.cfi_endproc
	.cantunwind
	.fnend
                                        @ -- End function
	.section	.text.mbedtls_clz,"ax",%progbits
	.p2align	1                               @ -- Begin function mbedtls_clz
	.type	mbedtls_clz,%function
	.code	16                              @ @mbedtls_clz
	.thumb_func
mbedtls_clz:
.Lfunc_begin14:
	.loc	1 397 0                         @ ../../../ThirdParty/mbedTLS/library/bignum.c:397:0
	.fnstart
	.cfi_startproc
@ %bb.0:
	@DEBUG_VALUE: mbedtls_clz:x <- $r0
	@DEBUG_VALUE: mbedtls_clz:x <- $r0
	@DEBUG_VALUE: mbedtls_clz:mask <- -2147483648
	@DEBUG_VALUE: mbedtls_clz:j <- 0
	.loc	1 401 5 prologue_end            @ ../../../ThirdParty/mbedTLS/library/bignum.c:401:5
	cmp	r0, #0
	bmi	.LBB14_5
.Ltmp207:
@ %bb.1:
	@DEBUG_VALUE: mbedtls_clz:x <- $r0
	@DEBUG_VALUE: mbedtls_clz:j <- 0
	@DEBUG_VALUE: mbedtls_clz:mask <- -2147483648
	.loc	1 0 5 is_stmt 0                 @ ../../../ThirdParty/mbedTLS/library/bignum.c:0:5
	movs	r1, #1
	lsls	r2, r1, #31
	movs	r3, #0
.Ltmp208:
.LBB14_2:                               @ =>This Inner Loop Header: Depth=1
	@DEBUG_VALUE: mbedtls_clz:x <- $r0
	@DEBUG_VALUE: mbedtls_clz:mask <- undef
	@DEBUG_VALUE: mbedtls_clz:j <- $r3
	.loc	1 401 27                        @ ../../../ThirdParty/mbedTLS/library/bignum.c:401:27
	adds	r1, r3, #1
.Ltmp209:
	@DEBUG_VALUE: mbedtls_clz:j <- $r1
	.loc	1 401 5                         @ ../../../ThirdParty/mbedTLS/library/bignum.c:401:5
	cmp	r3, #30
	bhi	.LBB14_4
.Ltmp210:
@ %bb.3:                                @   in Loop: Header=BB14_2 Depth=1
	@DEBUG_VALUE: mbedtls_clz:j <- $r1
	@DEBUG_VALUE: mbedtls_clz:x <- $r0
	.loc	1 0 5                           @ ../../../ThirdParty/mbedTLS/library/bignum.c:0:5
	lsrs	r2, r2, #1
.Ltmp211:
	@DEBUG_VALUE: mbedtls_clz:mask <- $r2
	mov	r3, r2
	ands	r3, r0
	mov	r3, r1
	.loc	1 401 5                         @ ../../../ThirdParty/mbedTLS/library/bignum.c:401:5
	beq	.LBB14_2
.Ltmp212:
.LBB14_4:
	@DEBUG_VALUE: mbedtls_clz:j <- $r1
	@DEBUG_VALUE: mbedtls_clz:x <- $r0
	@DEBUG_VALUE: mbedtls_clz:j <- $r1
	.loc	1 408 5 is_stmt 1               @ ../../../ThirdParty/mbedTLS/library/bignum.c:408:5
	mov	r0, r1
.Ltmp213:
	@DEBUG_VALUE: mbedtls_clz:x <- [DW_OP_LLVM_entry_value 1] $r0
	bx	lr
.Ltmp214:
.LBB14_5:
	@DEBUG_VALUE: mbedtls_clz:x <- $r0
	@DEBUG_VALUE: mbedtls_clz:j <- 0
	@DEBUG_VALUE: mbedtls_clz:mask <- -2147483648
	.loc	1 0 5 is_stmt 0                 @ ../../../ThirdParty/mbedTLS/library/bignum.c:0:5
	movs	r1, #0
.Ltmp215:
	@DEBUG_VALUE: mbedtls_clz:j <- $r1
	.loc	1 408 5                         @ ../../../ThirdParty/mbedTLS/library/bignum.c:408:5
	mov	r0, r1
.Ltmp216:
	@DEBUG_VALUE: mbedtls_clz:x <- [DW_OP_LLVM_entry_value 1] $r0
	bx	lr
.Ltmp217:
.Lfunc_end14:
	.size	mbedtls_clz, .Lfunc_end14-mbedtls_clz
	.cfi_endproc
	.cantunwind
	.fnend
                                        @ -- End function
	.section	.text.mbedtls_mpi_size,"ax",%progbits
	.hidden	mbedtls_mpi_size                @ -- Begin function mbedtls_mpi_size
	.globl	mbedtls_mpi_size
	.p2align	1
	.type	mbedtls_mpi_size,%function
	.code	16                              @ @mbedtls_mpi_size
	.thumb_func
mbedtls_mpi_size:
.Lfunc_begin15:
	.loc	1 434 0 is_stmt 1               @ ../../../ThirdParty/mbedTLS/library/bignum.c:434:0
	.fnstart
	.cfi_startproc
@ %bb.0:
	@DEBUG_VALUE: mbedtls_mpi_size:X <- $r0
	@DEBUG_VALUE: mbedtls_mpi_size:X <- $r0
	@DEBUG_VALUE: mbedtls_mpi_size:X <- $r0
	.save	{r7, lr}
	push	{r7, lr}
	.cfi_def_cfa_offset 8
	.cfi_offset lr, -4
	.cfi_offset r7, -8
.Ltmp218:
	.loc	1 435 15 prologue_end           @ ../../../ThirdParty/mbedTLS/library/bignum.c:435:15
	bl	mbedtls_mpi_bitlen
.Ltmp219:
	@DEBUG_VALUE: mbedtls_mpi_size:X <- [DW_OP_LLVM_entry_value 1] $r0
	.loc	1 435 39 is_stmt 0              @ ../../../ThirdParty/mbedTLS/library/bignum.c:435:39
	adds	r0, r0, #7
	.loc	1 435 45                        @ ../../../ThirdParty/mbedTLS/library/bignum.c:435:45
	lsrs	r0, r0, #3
	.loc	1 435 5                         @ ../../../ThirdParty/mbedTLS/library/bignum.c:435:5
	pop	{r7, pc}
.Ltmp220:
.Lfunc_end15:
	.size	mbedtls_mpi_size, .Lfunc_end15-mbedtls_mpi_size
	.cfi_endproc
	.cantunwind
	.fnend
                                        @ -- End function
	.section	.text.mbedtls_mpi_read_string,"ax",%progbits
	.hidden	mbedtls_mpi_read_string         @ -- Begin function mbedtls_mpi_read_string
	.globl	mbedtls_mpi_read_string
	.p2align	1
	.type	mbedtls_mpi_read_string,%function
	.code	16                              @ @mbedtls_mpi_read_string
	.thumb_func
mbedtls_mpi_read_string:
.Lfunc_begin16:
	.loc	1 459 0 is_stmt 1               @ ../../../ThirdParty/mbedTLS/library/bignum.c:459:0
	.fnstart
	.cfi_startproc
@ %bb.0:
	@DEBUG_VALUE: mbedtls_mpi_read_string:X <- $r0
	@DEBUG_VALUE: mbedtls_mpi_read_string:radix <- $r1
	@DEBUG_VALUE: mbedtls_mpi_read_string:s <- $r2
	.save	{r4, r5, r6, r7, lr}
	push	{r4, r5, r6, r7, lr}
	.cfi_def_cfa_offset 20
	.cfi_offset lr, -4
	.cfi_offset r7, -8
	.cfi_offset r6, -12
	.cfi_offset r5, -16
	.cfi_offset r4, -20
	.pad	#44
	sub	sp, #44
	.cfi_def_cfa_offset 64
	mov	r5, r0
	movs	r0, #0
.Ltmp221:
	@DEBUG_VALUE: mbedtls_mpi_read_string:X <- [DW_OP_LLVM_entry_value 1] $r0
	mvns	r0, r0
	str	r0, [sp, #24]                   @ 4-byte Spill
	@DEBUG_VALUE: mbedtls_mpi_read_string:s <- $r2
	@DEBUG_VALUE: mbedtls_mpi_read_string:radix <- $r1
.Ltmp222:
	@DEBUG_VALUE: mbedtls_mpi_read_string:X <- $r5
	.loc	1 0 0 prologue_end              @ ../../../ThirdParty/mbedTLS/library/bignum.c:0:0
	subs	r6, r0, #3
.Ltmp223:
	.loc	1 467 19                        @ ../../../ThirdParty/mbedTLS/library/bignum.c:467:19
	subs	r0, r1, #2
	cmp	r0, #14
	bls	.LBB16_1
	b	.LBB16_30
.Ltmp224:
.LBB16_1:
	@DEBUG_VALUE: mbedtls_mpi_read_string:X <- $r5
	@DEBUG_VALUE: mbedtls_mpi_read_string:s <- $r2
	@DEBUG_VALUE: mbedtls_mpi_read_string:radix <- $r1
	.loc	1 0 19 is_stmt 0                @ ../../../ThirdParty/mbedTLS/library/bignum.c:0:19
	mov	r4, r2
.Ltmp225:
	@DEBUG_VALUE: mbedtls_mpi_read_string:s <- $r4
	mov	r7, r1
.Ltmp226:
	@DEBUG_VALUE: mbedtls_mpi_read_string:radix <- $r7
	add	r0, sp, #28
	.loc	1 470 5 is_stmt 1               @ ../../../ThirdParty/mbedTLS/library/bignum.c:470:5
	bl	mbedtls_mpi_init
	.loc	1 472 12                        @ ../../../ThirdParty/mbedTLS/library/bignum.c:472:12
	mov	r0, r4
	bl	strlen
.Ltmp227:
	@DEBUG_VALUE: mbedtls_mpi_read_string:slen <- $r0
	.loc	1 474 9                         @ ../../../ThirdParty/mbedTLS/library/bignum.c:474:9
	cmp	r7, #16
	str	r0, [sp, #16]                   @ 4-byte Spill
.Ltmp228:
	@DEBUG_VALUE: mbedtls_mpi_read_string:slen <- [DW_OP_plus_uconst 16] [$sp+0]
	bne	.LBB16_12
.Ltmp229:
@ %bb.2:
	@DEBUG_VALUE: mbedtls_mpi_read_string:radix <- $r7
	@DEBUG_VALUE: mbedtls_mpi_read_string:X <- $r5
	@DEBUG_VALUE: mbedtls_mpi_read_string:s <- $r4
	@DEBUG_VALUE: mbedtls_mpi_read_string:slen <- [DW_OP_plus_uconst 16] [$sp+0]
	.loc	1 476 13                        @ ../../../ThirdParty/mbedTLS/library/bignum.c:476:13
	lsrs	r1, r0, #30
	beq	.LBB16_3
	b	.LBB16_30
.Ltmp230:
.LBB16_3:
	@DEBUG_VALUE: mbedtls_mpi_read_string:radix <- $r7
	@DEBUG_VALUE: mbedtls_mpi_read_string:X <- $r5
	@DEBUG_VALUE: mbedtls_mpi_read_string:s <- $r4
	@DEBUG_VALUE: mbedtls_mpi_read_string:slen <- [DW_OP_plus_uconst 16] [$sp+0]
	.loc	1 479 13                        @ ../../../ThirdParty/mbedTLS/library/bignum.c:479:13
	lsls	r2, r0, #29
	lsls	r1, r0, #2
	lsrs	r1, r1, #5
	str	r4, [sp, #20]                   @ 4-byte Spill
.Ltmp231:
	@DEBUG_VALUE: mbedtls_mpi_read_string:s <- [DW_OP_plus_uconst 20] [$sp+0]
	cbz	r2, .LBB16_5
.Ltmp232:
@ %bb.4:
	@DEBUG_VALUE: mbedtls_mpi_read_string:s <- [DW_OP_plus_uconst 20] [$sp+0]
	@DEBUG_VALUE: mbedtls_mpi_read_string:radix <- $r7
	@DEBUG_VALUE: mbedtls_mpi_read_string:X <- $r5
	@DEBUG_VALUE: mbedtls_mpi_read_string:slen <- [DW_OP_plus_uconst 16] [$sp+0]
	.loc	1 0 13 is_stmt 0                @ ../../../ThirdParty/mbedTLS/library/bignum.c:0:13
	adds	r1, r1, #1
.Ltmp233:
.LBB16_5:
	@DEBUG_VALUE: mbedtls_mpi_read_string:s <- [DW_OP_plus_uconst 20] [$sp+0]
	@DEBUG_VALUE: mbedtls_mpi_read_string:radix <- $r7
	@DEBUG_VALUE: mbedtls_mpi_read_string:X <- $r5
	@DEBUG_VALUE: mbedtls_mpi_read_string:slen <- [DW_OP_plus_uconst 16] [$sp+0]
	@DEBUG_VALUE: mbedtls_mpi_read_string:n <- $r1
	.loc	1 481 9 is_stmt 1               @ ../../../ThirdParty/mbedTLS/library/bignum.c:481:9
	mov	r0, r5
	bl	mbedtls_mpi_grow
.Ltmp234:
	mov	r6, r0
.Ltmp235:
	@DEBUG_VALUE: mbedtls_mpi_read_string:ret <- $r6
	.loc	1 481 9 is_stmt 0               @ ../../../ThirdParty/mbedTLS/library/bignum.c:481:9
	cmp	r0, #0
	bne	.LBB16_29
.Ltmp236:
@ %bb.6:
	@DEBUG_VALUE: mbedtls_mpi_read_string:s <- [DW_OP_plus_uconst 20] [$sp+0]
	@DEBUG_VALUE: mbedtls_mpi_read_string:radix <- $r7
	@DEBUG_VALUE: mbedtls_mpi_read_string:ret <- $r6
	@DEBUG_VALUE: mbedtls_mpi_read_string:X <- $r5
	@DEBUG_VALUE: mbedtls_mpi_read_string:slen <- [DW_OP_plus_uconst 16] [$sp+0]
	.loc	1 0 9                           @ ../../../ThirdParty/mbedTLS/library/bignum.c:0:9
	movs	r7, #0
.Ltmp237:
	@DEBUG_VALUE: mbedtls_mpi_read_string:radix <- [DW_OP_LLVM_entry_value 1] $r1
	.loc	1 482 9 is_stmt 1               @ ../../../ThirdParty/mbedTLS/library/bignum.c:482:9
	mov	r0, r5
	mov	r1, r7
	bl	mbedtls_mpi_lset
	mov	r6, r0
.Ltmp238:
	@DEBUG_VALUE: mbedtls_mpi_read_string:ret <- $r6
	.loc	1 482 9 is_stmt 0               @ ../../../ThirdParty/mbedTLS/library/bignum.c:482:9
	cmp	r0, #0
	bne	.LBB16_29
.Ltmp239:
@ %bb.7:
	@DEBUG_VALUE: mbedtls_mpi_read_string:s <- [DW_OP_plus_uconst 20] [$sp+0]
	@DEBUG_VALUE: mbedtls_mpi_read_string:ret <- $r6
	@DEBUG_VALUE: mbedtls_mpi_read_string:X <- $r5
	@DEBUG_VALUE: mbedtls_mpi_read_string:slen <- [DW_OP_plus_uconst 16] [$sp+0]
	@DEBUG_VALUE: mbedtls_mpi_read_string:radix <- [DW_OP_LLVM_entry_value 1] $r1
	.loc	1 0 9                           @ ../../../ThirdParty/mbedTLS/library/bignum.c:0:9
	movs	r0, #16
	str	r0, [sp, #4]                    @ 4-byte Spill
	str	r7, [sp, #12]                   @ 4-byte Spill
.Ltmp240:
	str	r7, [sp, #8]                    @ 4-byte Spill
	ldr	r7, [sp, #16]                   @ 4-byte Reload
.Ltmp241:
	@DEBUG_VALUE: mbedtls_mpi_read_string:ret <- 0
	@DEBUG_VALUE: mbedtls_mpi_read_string:j <- [DW_OP_plus_uconst 8] [$sp+0]
	@DEBUG_VALUE: mbedtls_mpi_read_string:i <- $r7
	.loc	1 484 9 is_stmt 1               @ ../../../ThirdParty/mbedTLS/library/bignum.c:484:9
	cmp	r7, #1
	@DEBUG_VALUE: mbedtls_mpi_read_string:i <- $r7
	beq	.LBB16_9
.Ltmp242:
.LBB16_8:
	@DEBUG_VALUE: mbedtls_mpi_read_string:i <- $r7
	@DEBUG_VALUE: mbedtls_mpi_read_string:X <- $r5
	@DEBUG_VALUE: mbedtls_mpi_read_string:j <- [DW_OP_plus_uconst 8] [$sp+0]
	@DEBUG_VALUE: mbedtls_mpi_read_string:slen <- [DW_OP_plus_uconst 16] [$sp+0]
	@DEBUG_VALUE: mbedtls_mpi_read_string:radix <- [DW_OP_LLVM_entry_value 1] $r1
	@DEBUG_VALUE: mbedtls_mpi_read_string:ret <- 0
	.loc	1 0 9 is_stmt 0                 @ ../../../ThirdParty/mbedTLS/library/bignum.c:0:9
	ldr	r1, [sp, #20]                   @ 4-byte Reload
	.loc	1 484 9                         @ ../../../ThirdParty/mbedTLS/library/bignum.c:484:9
	cbnz	r7, .LBB16_10
	b	.LBB16_27
.Ltmp243:
.LBB16_9:
	@DEBUG_VALUE: mbedtls_mpi_read_string:i <- $r7
	@DEBUG_VALUE: mbedtls_mpi_read_string:X <- $r5
	@DEBUG_VALUE: mbedtls_mpi_read_string:j <- [DW_OP_plus_uconst 8] [$sp+0]
	@DEBUG_VALUE: mbedtls_mpi_read_string:slen <- [DW_OP_plus_uconst 16] [$sp+0]
	@DEBUG_VALUE: mbedtls_mpi_read_string:radix <- [DW_OP_LLVM_entry_value 1] $r1
	@DEBUG_VALUE: mbedtls_mpi_read_string:ret <- 0
	.loc	1 0 9                           @ ../../../ThirdParty/mbedTLS/library/bignum.c:0:9
	ldr	r1, [sp, #20]                   @ 4-byte Reload
.Ltmp244:
	@DEBUG_VALUE: mbedtls_mpi_read_string:s <- $r1
	.loc	1 486 27 is_stmt 1              @ ../../../ThirdParty/mbedTLS/library/bignum.c:486:27
	ldrb	r0, [r1]
.Ltmp245:
	.loc	1 486 17 is_stmt 0              @ ../../../ThirdParty/mbedTLS/library/bignum.c:486:17
	cmp	r0, #45
	beq	.LBB16_28
.Ltmp246:
.LBB16_10:
	@DEBUG_VALUE: mbedtls_mpi_read_string:i <- $r7
	@DEBUG_VALUE: mbedtls_mpi_read_string:X <- $r5
	@DEBUG_VALUE: mbedtls_mpi_read_string:j <- [DW_OP_plus_uconst 8] [$sp+0]
	@DEBUG_VALUE: mbedtls_mpi_read_string:slen <- [DW_OP_plus_uconst 16] [$sp+0]
	@DEBUG_VALUE: mbedtls_mpi_read_string:radix <- [DW_OP_LLVM_entry_value 1] $r1
	@DEBUG_VALUE: mbedtls_mpi_read_string:ret <- 0
	.loc	1 492 13 is_stmt 1              @ ../../../ThirdParty/mbedTLS/library/bignum.c:492:13
	adds	r0, r1, r7
	ldr	r1, [sp, #24]                   @ 4-byte Reload
.Ltmp247:
	@DEBUG_VALUE: mbedtls_mpi_read_string:s <- [DW_OP_LLVM_entry_value 1] $r2
	ldrb	r2, [r0, r1]
.Ltmp248:
	@DEBUG_VALUE: mbedtls_mpi_read_string:d <- [DW_OP_plus_uconst 40, DW_OP_deref] $sp
	.loc	1 0 13 is_stmt 0                @ ../../../ThirdParty/mbedTLS/library/bignum.c:0:13
	add	r0, sp, #40
	.loc	1 492 13                        @ ../../../ThirdParty/mbedTLS/library/bignum.c:492:13
	ldr	r1, [sp, #4]                    @ 4-byte Reload
	bl	mpi_get_digit
.Ltmp249:
	@DEBUG_VALUE: mbedtls_mpi_read_string:ret <- $r0
	.loc	1 492 13                        @ ../../../ThirdParty/mbedTLS/library/bignum.c:492:13
	cmp	r0, #0
	bne	.LBB16_25
.Ltmp250:
@ %bb.11:
	@DEBUG_VALUE: mbedtls_mpi_read_string:i <- $r7
	@DEBUG_VALUE: mbedtls_mpi_read_string:X <- $r5
	@DEBUG_VALUE: mbedtls_mpi_read_string:ret <- $r0
	@DEBUG_VALUE: mbedtls_mpi_read_string:j <- [DW_OP_plus_uconst 8] [$sp+0]
	@DEBUG_VALUE: mbedtls_mpi_read_string:d <- [DW_OP_plus_uconst 40, DW_OP_deref] $sp
	@DEBUG_VALUE: mbedtls_mpi_read_string:slen <- [DW_OP_plus_uconst 16] [$sp+0]
	@DEBUG_VALUE: mbedtls_mpi_read_string:radix <- [DW_OP_LLVM_entry_value 1] $r1
	.loc	1 0 13                          @ ../../../ThirdParty/mbedTLS/library/bignum.c:0:13
	subs	r7, r7, #1
.Ltmp251:
	movs	r0, #28
.Ltmp252:
	ldr	r6, [sp, #12]                   @ 4-byte Reload
	.loc	1 493 65 is_stmt 1              @ ../../../ThirdParty/mbedTLS/library/bignum.c:493:65
	ands	r0, r6
	.loc	1 493 38 is_stmt 0              @ ../../../ThirdParty/mbedTLS/library/bignum.c:493:38
	ldr	r1, [sp, #40]
.Ltmp253:
	@DEBUG_VALUE: mbedtls_mpi_read_string:d <- $r1
	.loc	1 493 40                        @ ../../../ThirdParty/mbedTLS/library/bignum.c:493:40
	lsls	r1, r0
.Ltmp254:
	.loc	1 493 16                        @ ../../../ThirdParty/mbedTLS/library/bignum.c:493:16
	ldr	r0, [r5, #8]
	ldr	r4, [sp, #8]                    @ 4-byte Reload
	.loc	1 493 20                        @ ../../../ThirdParty/mbedTLS/library/bignum.c:493:20
	lsrs	r2, r4, #3
	lsls	r2, r2, #2
	.loc	1 493 35                        @ ../../../ThirdParty/mbedTLS/library/bignum.c:493:35
	ldr	r3, [r0, r2]
	orrs	r3, r1
	str	r3, [r0, r2]
.Ltmp255:
	.loc	1 484 9 is_stmt 1               @ ../../../ThirdParty/mbedTLS/library/bignum.c:484:9
	adds	r6, r6, #4
.Ltmp256:
	@DEBUG_VALUE: mbedtls_mpi_read_string:i <- $r7
	.loc	1 0 9 is_stmt 0                 @ ../../../ThirdParty/mbedTLS/library/bignum.c:0:9
	str	r6, [sp, #12]                   @ 4-byte Spill
	.loc	1 484 44                        @ ../../../ThirdParty/mbedTLS/library/bignum.c:484:44
	adds	r4, r4, #1
.Ltmp257:
	@DEBUG_VALUE: mbedtls_mpi_read_string:j <- $r4
	.loc	1 0 44                          @ ../../../ThirdParty/mbedTLS/library/bignum.c:0:44
	str	r4, [sp, #8]                    @ 4-byte Spill
.Ltmp258:
	@DEBUG_VALUE: mbedtls_mpi_read_string:j <- [DW_OP_plus_uconst 8] [$sp+0]
	@DEBUG_VALUE: mbedtls_mpi_read_string:j <- [DW_OP_plus_uconst 8] [$sp+0]
	@DEBUG_VALUE: mbedtls_mpi_read_string:j <- [DW_OP_plus_uconst 8] [$sp+0]
	@DEBUG_VALUE: mbedtls_mpi_read_string:ret <- 0
	@DEBUG_VALUE: mbedtls_mpi_read_string:j <- [DW_OP_plus_uconst 8] [$sp+0]
	@DEBUG_VALUE: mbedtls_mpi_read_string:i <- $r7
	.loc	1 484 9                         @ ../../../ThirdParty/mbedTLS/library/bignum.c:484:9
	cmp	r7, #1
	@DEBUG_VALUE: mbedtls_mpi_read_string:i <- $r7
	bne	.LBB16_8
	b	.LBB16_9
.Ltmp259:
.LBB16_12:
	@DEBUG_VALUE: mbedtls_mpi_read_string:radix <- $r7
	@DEBUG_VALUE: mbedtls_mpi_read_string:X <- $r5
	@DEBUG_VALUE: mbedtls_mpi_read_string:s <- $r4
	@DEBUG_VALUE: mbedtls_mpi_read_string:slen <- [DW_OP_plus_uconst 16] [$sp+0]
	.loc	1 0 9                           @ ../../../ThirdParty/mbedTLS/library/bignum.c:0:9
	str	r4, [sp, #20]                   @ 4-byte Spill
.Ltmp260:
	@DEBUG_VALUE: mbedtls_mpi_read_string:s <- [DW_OP_plus_uconst 20] [$sp+0]
	movs	r4, #0
.Ltmp261:
	.loc	1 498 9 is_stmt 1               @ ../../../ThirdParty/mbedTLS/library/bignum.c:498:9
	mov	r0, r5
	mov	r1, r4
	bl	mbedtls_mpi_lset
	mov	r6, r0
.Ltmp262:
	@DEBUG_VALUE: mbedtls_mpi_read_string:ret <- $r6
	.loc	1 498 9 is_stmt 0               @ ../../../ThirdParty/mbedTLS/library/bignum.c:498:9
	cbnz	r0, .LBB16_29
.Ltmp263:
@ %bb.13:
	@DEBUG_VALUE: mbedtls_mpi_read_string:s <- [DW_OP_plus_uconst 20] [$sp+0]
	@DEBUG_VALUE: mbedtls_mpi_read_string:radix <- $r7
	@DEBUG_VALUE: mbedtls_mpi_read_string:ret <- $r6
	@DEBUG_VALUE: mbedtls_mpi_read_string:X <- $r5
	@DEBUG_VALUE: mbedtls_mpi_read_string:slen <- [DW_OP_plus_uconst 16] [$sp+0]
	@DEBUG_VALUE: mbedtls_mpi_read_string:ret <- 0
	@DEBUG_VALUE: mbedtls_mpi_read_string:i <- 0
	.loc	1 500 9 is_stmt 1               @ ../../../ThirdParty/mbedTLS/library/bignum.c:500:9
	ldr	r0, [sp, #16]                   @ 4-byte Reload
.Ltmp264:
	.loc	1 0 0 is_stmt 0                 @ ../../../ThirdParty/mbedTLS/library/bignum.c:0:0
	mov	r6, r4
.Ltmp265:
	.loc	1 500 9                         @ ../../../ThirdParty/mbedTLS/library/bignum.c:500:9
	cbz	r0, .LBB16_29
.Ltmp266:
@ %bb.14:
	@DEBUG_VALUE: mbedtls_mpi_read_string:s <- [DW_OP_plus_uconst 20] [$sp+0]
	@DEBUG_VALUE: mbedtls_mpi_read_string:radix <- $r7
	@DEBUG_VALUE: mbedtls_mpi_read_string:X <- $r5
	@DEBUG_VALUE: mbedtls_mpi_read_string:slen <- [DW_OP_plus_uconst 16] [$sp+0]
	@DEBUG_VALUE: mbedtls_mpi_read_string:i <- 0
	@DEBUG_VALUE: mbedtls_mpi_read_string:ret <- 0
	.loc	1 0 9                           @ ../../../ThirdParty/mbedTLS/library/bignum.c:0:9
	movs	r4, #0
	str	r4, [sp, #12]                   @ 4-byte Spill
	ldr	r1, [sp, #16]                   @ 4-byte Reload
	b	.LBB16_18
.Ltmp267:
.LBB16_15:                              @   in Loop: Header=BB16_18 Depth=1
	@DEBUG_VALUE: mbedtls_mpi_read_string:radix <- $r7
	@DEBUG_VALUE: mbedtls_mpi_read_string:X <- $r5
	@DEBUG_VALUE: mbedtls_mpi_read_string:i <- $r4
	@DEBUG_VALUE: mbedtls_mpi_read_string:d <- $r2
	@DEBUG_VALUE: mbedtls_mpi_read_string:slen <- [DW_OP_plus_uconst 16] [$sp+0]
	add	r1, sp, #28
.Ltmp268:
	.loc	1 517 17 is_stmt 1              @ ../../../ThirdParty/mbedTLS/library/bignum.c:517:17
	mov	r0, r5
	bl	mbedtls_mpi_sub_int
.Ltmp269:
	@DEBUG_VALUE: mbedtls_mpi_read_string:ret <- $r0
.LBB16_16:                              @   in Loop: Header=BB16_18 Depth=1
	@DEBUG_VALUE: mbedtls_mpi_read_string:radix <- $r7
	@DEBUG_VALUE: mbedtls_mpi_read_string:X <- $r5
	@DEBUG_VALUE: mbedtls_mpi_read_string:i <- $r4
	@DEBUG_VALUE: mbedtls_mpi_read_string:ret <- $r0
	@DEBUG_VALUE: mbedtls_mpi_read_string:slen <- [DW_OP_plus_uconst 16] [$sp+0]
	.loc	1 0 17 is_stmt 0                @ ../../../ThirdParty/mbedTLS/library/bignum.c:0:17
	ldr	r1, [sp, #16]                   @ 4-byte Reload
	cbnz	r0, .LBB16_25
.Ltmp270:
.LBB16_17:                              @   in Loop: Header=BB16_18 Depth=1
	@DEBUG_VALUE: mbedtls_mpi_read_string:radix <- $r7
	@DEBUG_VALUE: mbedtls_mpi_read_string:X <- $r5
	@DEBUG_VALUE: mbedtls_mpi_read_string:i <- $r4
	@DEBUG_VALUE: mbedtls_mpi_read_string:slen <- [DW_OP_plus_uconst 16] [$sp+0]
	@DEBUG_VALUE: mbedtls_mpi_read_string:ret <- 0
	.loc	1 500 32 is_stmt 1              @ ../../../ThirdParty/mbedTLS/library/bignum.c:500:32
	adds	r4, r4, #1
.Ltmp271:
	@DEBUG_VALUE: mbedtls_mpi_read_string:i <- $r4
	.loc	1 500 9 is_stmt 0               @ ../../../ThirdParty/mbedTLS/library/bignum.c:500:9
	cmp	r1, r4
	beq	.LBB16_26
.Ltmp272:
.LBB16_18:                              @ =>This Inner Loop Header: Depth=1
	@DEBUG_VALUE: mbedtls_mpi_read_string:radix <- $r7
	@DEBUG_VALUE: mbedtls_mpi_read_string:X <- $r5
	@DEBUG_VALUE: mbedtls_mpi_read_string:slen <- [DW_OP_plus_uconst 16] [$sp+0]
	@DEBUG_VALUE: mbedtls_mpi_read_string:ret <- 0
	@DEBUG_VALUE: mbedtls_mpi_read_string:i <- $r4
	.loc	1 502 24 is_stmt 1              @ ../../../ThirdParty/mbedTLS/library/bignum.c:502:24
	cbnz	r4, .LBB16_21
.Ltmp273:
@ %bb.19:                               @   in Loop: Header=BB16_18 Depth=1
	@DEBUG_VALUE: mbedtls_mpi_read_string:radix <- $r7
	@DEBUG_VALUE: mbedtls_mpi_read_string:X <- $r5
	@DEBUG_VALUE: mbedtls_mpi_read_string:i <- $r4
	@DEBUG_VALUE: mbedtls_mpi_read_string:slen <- [DW_OP_plus_uconst 16] [$sp+0]
	@DEBUG_VALUE: mbedtls_mpi_read_string:ret <- 0
	.loc	1 502 27 is_stmt 0              @ ../../../ThirdParty/mbedTLS/library/bignum.c:502:27
	ldr	r0, [sp, #20]                   @ 4-byte Reload
.Ltmp274:
	@DEBUG_VALUE: mbedtls_mpi_read_string:s <- $r0
	ldrb	r0, [r0]
.Ltmp275:
	@DEBUG_VALUE: mbedtls_mpi_read_string:s <- [DW_OP_LLVM_entry_value 1] $r2
	.loc	1 502 17                        @ ../../../ThirdParty/mbedTLS/library/bignum.c:502:17
	cmp	r0, #45
	bne	.LBB16_21
.Ltmp276:
@ %bb.20:                               @   in Loop: Header=BB16_18 Depth=1
	@DEBUG_VALUE: mbedtls_mpi_read_string:radix <- $r7
	@DEBUG_VALUE: mbedtls_mpi_read_string:X <- $r5
	@DEBUG_VALUE: mbedtls_mpi_read_string:i <- $r4
	@DEBUG_VALUE: mbedtls_mpi_read_string:slen <- [DW_OP_plus_uconst 16] [$sp+0]
	@DEBUG_VALUE: mbedtls_mpi_read_string:ret <- 0
	.loc	1 504 22 is_stmt 1              @ ../../../ThirdParty/mbedTLS/library/bignum.c:504:22
	ldr	r0, [sp, #24]                   @ 4-byte Reload
	str	r0, [r5]
	b	.LBB16_17
.Ltmp277:
.LBB16_21:                              @   in Loop: Header=BB16_18 Depth=1
	@DEBUG_VALUE: mbedtls_mpi_read_string:radix <- $r7
	@DEBUG_VALUE: mbedtls_mpi_read_string:X <- $r5
	@DEBUG_VALUE: mbedtls_mpi_read_string:i <- $r4
	@DEBUG_VALUE: mbedtls_mpi_read_string:slen <- [DW_OP_plus_uconst 16] [$sp+0]
	@DEBUG_VALUE: mbedtls_mpi_read_string:ret <- 0
	.loc	1 508 13                        @ ../../../ThirdParty/mbedTLS/library/bignum.c:508:13
	ldr	r0, [sp, #20]                   @ 4-byte Reload
	ldrb	r2, [r0, r4]
.Ltmp278:
	@DEBUG_VALUE: mbedtls_mpi_read_string:d <- [DW_OP_plus_uconst 40, DW_OP_deref] $sp
	.loc	1 0 13 is_stmt 0                @ ../../../ThirdParty/mbedTLS/library/bignum.c:0:13
	add	r0, sp, #40
	.loc	1 508 13                        @ ../../../ThirdParty/mbedTLS/library/bignum.c:508:13
	mov	r1, r7
	bl	mpi_get_digit
.Ltmp279:
	@DEBUG_VALUE: mbedtls_mpi_read_string:ret <- $r0
	.loc	1 508 13                        @ ../../../ThirdParty/mbedTLS/library/bignum.c:508:13
	cbnz	r0, .LBB16_25
.Ltmp280:
@ %bb.22:                               @   in Loop: Header=BB16_18 Depth=1
	@DEBUG_VALUE: mbedtls_mpi_read_string:radix <- $r7
	@DEBUG_VALUE: mbedtls_mpi_read_string:X <- $r5
	@DEBUG_VALUE: mbedtls_mpi_read_string:i <- $r4
	@DEBUG_VALUE: mbedtls_mpi_read_string:ret <- $r0
	@DEBUG_VALUE: mbedtls_mpi_read_string:d <- [DW_OP_plus_uconst 40, DW_OP_deref] $sp
	@DEBUG_VALUE: mbedtls_mpi_read_string:slen <- [DW_OP_plus_uconst 16] [$sp+0]
	.loc	1 0 13                          @ ../../../ThirdParty/mbedTLS/library/bignum.c:0:13
	add	r0, sp, #28
.Ltmp281:
	.loc	1 509 13 is_stmt 1              @ ../../../ThirdParty/mbedTLS/library/bignum.c:509:13
	mov	r1, r5
	mov	r2, r7
	bl	mbedtls_mpi_mul_int
.Ltmp282:
	@DEBUG_VALUE: mbedtls_mpi_read_string:ret <- $r0
	.loc	1 509 13 is_stmt 0              @ ../../../ThirdParty/mbedTLS/library/bignum.c:509:13
	cbnz	r0, .LBB16_25
.Ltmp283:
@ %bb.23:                               @   in Loop: Header=BB16_18 Depth=1
	@DEBUG_VALUE: mbedtls_mpi_read_string:radix <- $r7
	@DEBUG_VALUE: mbedtls_mpi_read_string:X <- $r5
	@DEBUG_VALUE: mbedtls_mpi_read_string:i <- $r4
	@DEBUG_VALUE: mbedtls_mpi_read_string:ret <- $r0
	@DEBUG_VALUE: mbedtls_mpi_read_string:d <- [DW_OP_plus_uconst 40, DW_OP_deref] $sp
	@DEBUG_VALUE: mbedtls_mpi_read_string:slen <- [DW_OP_plus_uconst 16] [$sp+0]
	.loc	1 511 20 is_stmt 1              @ ../../../ThirdParty/mbedTLS/library/bignum.c:511:20
	ldr	r0, [r5]
.Ltmp284:
	.loc	1 0 0 is_stmt 0                 @ ../../../ThirdParty/mbedTLS/library/bignum.c:0:0
	ldr	r2, [sp, #40]
.Ltmp285:
	@DEBUG_VALUE: mbedtls_mpi_read_string:d <- $r2
	.loc	1 511 17                        @ ../../../ThirdParty/mbedTLS/library/bignum.c:511:17
	cmp	r0, #1
	bne	.LBB16_15
.Ltmp286:
@ %bb.24:                               @   in Loop: Header=BB16_18 Depth=1
	@DEBUG_VALUE: mbedtls_mpi_read_string:radix <- $r7
	@DEBUG_VALUE: mbedtls_mpi_read_string:X <- $r5
	@DEBUG_VALUE: mbedtls_mpi_read_string:i <- $r4
	@DEBUG_VALUE: mbedtls_mpi_read_string:d <- $r2
	@DEBUG_VALUE: mbedtls_mpi_read_string:slen <- [DW_OP_plus_uconst 16] [$sp+0]
	.loc	1 0 17                          @ ../../../ThirdParty/mbedTLS/library/bignum.c:0:17
	add	r1, sp, #28
.Ltmp287:
	.loc	1 513 17 is_stmt 1              @ ../../../ThirdParty/mbedTLS/library/bignum.c:513:17
	mov	r0, r5
	bl	mbedtls_mpi_add_int
.Ltmp288:
	@DEBUG_VALUE: mbedtls_mpi_read_string:ret <- $r0
	.loc	1 0 17 is_stmt 0                @ ../../../ThirdParty/mbedTLS/library/bignum.c:0:17
	b	.LBB16_16
.Ltmp289:
.LBB16_25:
	@DEBUG_VALUE: mbedtls_mpi_read_string:X <- $r5
	@DEBUG_VALUE: mbedtls_mpi_read_string:ret <- $r0
	@DEBUG_VALUE: mbedtls_mpi_read_string:slen <- [DW_OP_plus_uconst 16] [$sp+0]
	mov	r6, r0
.Ltmp290:
	@DEBUG_VALUE: mbedtls_mpi_read_string:ret <- $r6
	b	.LBB16_29
.Ltmp291:
.LBB16_26:
	@DEBUG_VALUE: mbedtls_mpi_read_string:radix <- $r7
	@DEBUG_VALUE: mbedtls_mpi_read_string:X <- $r5
	@DEBUG_VALUE: mbedtls_mpi_read_string:i <- $r4
	@DEBUG_VALUE: mbedtls_mpi_read_string:slen <- [DW_OP_plus_uconst 16] [$sp+0]
	@DEBUG_VALUE: mbedtls_mpi_read_string:ret <- 0
	ldr	r6, [sp, #12]                   @ 4-byte Reload
	b	.LBB16_29
.Ltmp292:
.LBB16_27:
	@DEBUG_VALUE: mbedtls_mpi_read_string:i <- $r7
	@DEBUG_VALUE: mbedtls_mpi_read_string:X <- $r5
	@DEBUG_VALUE: mbedtls_mpi_read_string:j <- [DW_OP_plus_uconst 8] [$sp+0]
	@DEBUG_VALUE: mbedtls_mpi_read_string:slen <- [DW_OP_plus_uconst 16] [$sp+0]
	@DEBUG_VALUE: mbedtls_mpi_read_string:radix <- [DW_OP_LLVM_entry_value 1] $r1
	@DEBUG_VALUE: mbedtls_mpi_read_string:ret <- 0
	mov	r6, r7
.Ltmp293:
	@DEBUG_VALUE: mbedtls_mpi_read_string:i <- $r6
	b	.LBB16_29
.Ltmp294:
.LBB16_28:
	@DEBUG_VALUE: mbedtls_mpi_read_string:i <- $r7
	@DEBUG_VALUE: mbedtls_mpi_read_string:X <- $r5
	@DEBUG_VALUE: mbedtls_mpi_read_string:j <- [DW_OP_plus_uconst 8] [$sp+0]
	@DEBUG_VALUE: mbedtls_mpi_read_string:slen <- [DW_OP_plus_uconst 16] [$sp+0]
	@DEBUG_VALUE: mbedtls_mpi_read_string:radix <- [DW_OP_LLVM_entry_value 1] $r1
	@DEBUG_VALUE: mbedtls_mpi_read_string:ret <- 0
	.loc	1 488 22 is_stmt 1              @ ../../../ThirdParty/mbedTLS/library/bignum.c:488:22
	ldr	r0, [sp, #24]                   @ 4-byte Reload
	str	r0, [r5]
	movs	r6, #0
.Ltmp295:
.LBB16_29:
	@DEBUG_VALUE: mbedtls_mpi_read_string:X <- $r5
	@DEBUG_VALUE: mbedtls_mpi_read_string:slen <- [DW_OP_plus_uconst 16] [$sp+0]
	@DEBUG_VALUE: mbedtls_mpi_read_string:ret <- $r6
	@DEBUG_LABEL: mbedtls_mpi_read_string:cleanup
	.loc	1 0 22 is_stmt 0                @ ../../../ThirdParty/mbedTLS/library/bignum.c:0:22
	add	r0, sp, #28
	.loc	1 524 5 is_stmt 1               @ ../../../ThirdParty/mbedTLS/library/bignum.c:524:5
	bl	mbedtls_mpi_free
.Ltmp296:
.LBB16_30:
	@DEBUG_VALUE: mbedtls_mpi_read_string:X <- $r5
	.loc	1 527 1                         @ ../../../ThirdParty/mbedTLS/library/bignum.c:527:1
	mov	r0, r6
	add	sp, #44
	pop	{r4, r5, r6, r7, pc}
.Ltmp297:
.Lfunc_end16:
	.size	mbedtls_mpi_read_string, .Lfunc_end16-mbedtls_mpi_read_string
	.cfi_endproc
	.cantunwind
	.fnend
                                        @ -- End function
	.section	.text.mpi_get_digit,"ax",%progbits
	.p2align	1                               @ -- Begin function mpi_get_digit
	.type	mpi_get_digit,%function
	.code	16                              @ @mpi_get_digit
	.thumb_func
mpi_get_digit:
.Lfunc_begin17:
	.loc	1 442 0                         @ ../../../ThirdParty/mbedTLS/library/bignum.c:442:0
	.fnstart
	.cfi_startproc
@ %bb.0:
	@DEBUG_VALUE: mpi_get_digit:d <- $r0
	@DEBUG_VALUE: mpi_get_digit:d <- $r0
	@DEBUG_VALUE: mpi_get_digit:radix <- $r1
	@DEBUG_VALUE: mpi_get_digit:radix <- $r1
	@DEBUG_VALUE: mpi_get_digit:c <- $r2
	@DEBUG_VALUE: mpi_get_digit:c <- $r2
	.save	{r4, r5, r7, lr}
	push	{r4, r5, r7, lr}
	.cfi_def_cfa_offset 16
	.cfi_offset lr, -4
	.cfi_offset r7, -8
	.cfi_offset r5, -12
	.cfi_offset r4, -16
.Ltmp298:
	.loc	1 447 19 prologue_end           @ ../../../ThirdParty/mbedTLS/library/bignum.c:447:19
	mov	r3, r2
	subs	r3, #97
.Ltmp299:
	.loc	1 446 19                        @ ../../../ThirdParty/mbedTLS/library/bignum.c:446:19
	mov	r5, r2
	subs	r5, #65
.Ltmp300:
	.loc	1 445 19                        @ ../../../ThirdParty/mbedTLS/library/bignum.c:445:19
	mov	r4, r2
	subs	r4, #48
.Ltmp301:
	.loc	1 449 9                         @ ../../../ThirdParty/mbedTLS/library/bignum.c:449:9
	cmp	r4, #10
	blo	.LBB17_3
.Ltmp302:
@ %bb.1:
	@DEBUG_VALUE: mpi_get_digit:c <- $r2
	@DEBUG_VALUE: mpi_get_digit:radix <- $r1
	@DEBUG_VALUE: mpi_get_digit:d <- $r0
	cmp	r3, #6
	blo	.LBB17_3
.Ltmp303:
@ %bb.2:
	@DEBUG_VALUE: mpi_get_digit:c <- $r2
	@DEBUG_VALUE: mpi_get_digit:radix <- $r1
	@DEBUG_VALUE: mpi_get_digit:d <- $r0
	cmp	r5, #5
	bhi	.LBB17_11
.Ltmp304:
.LBB17_3:
	@DEBUG_VALUE: mpi_get_digit:c <- $r2
	@DEBUG_VALUE: mpi_get_digit:radix <- $r1
	@DEBUG_VALUE: mpi_get_digit:d <- $r0
	.loc	1 446 19                        @ ../../../ThirdParty/mbedTLS/library/bignum.c:446:19
	cmp	r5, #6
	bhs	.LBB17_5
.Ltmp305:
@ %bb.4:
	@DEBUG_VALUE: mpi_get_digit:c <- $r2
	@DEBUG_VALUE: mpi_get_digit:radix <- $r1
	@DEBUG_VALUE: mpi_get_digit:d <- $r0
	.loc	1 0 19 is_stmt 0                @ ../../../ThirdParty/mbedTLS/library/bignum.c:0:19
	mov	r4, r2
	subs	r4, #55
.Ltmp306:
.LBB17_5:
	@DEBUG_VALUE: mpi_get_digit:c <- $r2
	@DEBUG_VALUE: mpi_get_digit:radix <- $r1
	@DEBUG_VALUE: mpi_get_digit:d <- $r0
	.loc	1 447 19 is_stmt 1              @ ../../../ThirdParty/mbedTLS/library/bignum.c:447:19
	cmp	r3, #6
	blo	.LBB17_7
.Ltmp307:
@ %bb.6:
	@DEBUG_VALUE: mpi_get_digit:c <- $r2
	@DEBUG_VALUE: mpi_get_digit:radix <- $r1
	@DEBUG_VALUE: mpi_get_digit:d <- $r0
	mov	r2, r4
.Ltmp308:
	@DEBUG_VALUE: mpi_get_digit:c <- [DW_OP_LLVM_entry_value 1] $r2
	.loc	1 0 19 is_stmt 0                @ ../../../ThirdParty/mbedTLS/library/bignum.c:0:19
	b	.LBB17_8
.Ltmp309:
.LBB17_7:
	@DEBUG_VALUE: mpi_get_digit:c <- $r2
	@DEBUG_VALUE: mpi_get_digit:radix <- $r1
	@DEBUG_VALUE: mpi_get_digit:d <- $r0
	subs	r2, #87
.Ltmp310:
	@DEBUG_VALUE: mpi_get_digit:c <- [DW_OP_LLVM_entry_value 1] $r2
.LBB17_8:
	@DEBUG_VALUE: mpi_get_digit:radix <- $r1
	@DEBUG_VALUE: mpi_get_digit:d <- $r0
	@DEBUG_VALUE: mpi_get_digit:c <- [DW_OP_LLVM_entry_value 1] $r2
	str	r2, [r0]
	.loc	1 449 9 is_stmt 1               @ ../../../ThirdParty/mbedTLS/library/bignum.c:449:9
	cmp	r2, r1
	blo	.LBB17_10
.Ltmp311:
@ %bb.9:
	@DEBUG_VALUE: mpi_get_digit:radix <- $r1
	@DEBUG_VALUE: mpi_get_digit:d <- $r0
	@DEBUG_VALUE: mpi_get_digit:c <- [DW_OP_LLVM_entry_value 1] $r2
	.loc	1 0 9 is_stmt 0                 @ ../../../ThirdParty/mbedTLS/library/bignum.c:0:9
	movs	r0, #5
.Ltmp312:
	@DEBUG_VALUE: mpi_get_digit:d <- [DW_OP_LLVM_entry_value 1] $r0
	mvns	r0, r0
	.loc	1 453 1 is_stmt 1               @ ../../../ThirdParty/mbedTLS/library/bignum.c:453:1
	pop	{r4, r5, r7, pc}
.Ltmp313:
.LBB17_10:
	@DEBUG_VALUE: mpi_get_digit:radix <- $r1
	@DEBUG_VALUE: mpi_get_digit:d <- $r0
	@DEBUG_VALUE: mpi_get_digit:c <- [DW_OP_LLVM_entry_value 1] $r2
	.loc	1 0 1 is_stmt 0                 @ ../../../ThirdParty/mbedTLS/library/bignum.c:0:1
	movs	r0, #0
.Ltmp314:
	@DEBUG_VALUE: mpi_get_digit:d <- [DW_OP_LLVM_entry_value 1] $r0
	.loc	1 453 1                         @ ../../../ThirdParty/mbedTLS/library/bignum.c:453:1
	pop	{r4, r5, r7, pc}
.Ltmp315:
.LBB17_11:
	@DEBUG_VALUE: mpi_get_digit:c <- $r2
	@DEBUG_VALUE: mpi_get_digit:radix <- $r1
	@DEBUG_VALUE: mpi_get_digit:d <- $r0
	.loc	1 0 1                           @ ../../../ThirdParty/mbedTLS/library/bignum.c:0:1
	movs	r2, #255
.Ltmp316:
	@DEBUG_VALUE: mpi_get_digit:c <- [DW_OP_LLVM_entry_value 1] $r2
	b	.LBB17_8
.Lfunc_end17:
	.size	mpi_get_digit, .Lfunc_end17-mpi_get_digit
	.cfi_endproc
	.cantunwind
	.fnend
                                        @ -- End function
	.section	.text.mbedtls_mpi_mul_int,"ax",%progbits
	.hidden	mbedtls_mpi_mul_int             @ -- Begin function mbedtls_mpi_mul_int
	.globl	mbedtls_mpi_mul_int
	.p2align	1
	.type	mbedtls_mpi_mul_int,%function
	.code	16                              @ @mbedtls_mpi_mul_int
	.thumb_func
mbedtls_mpi_mul_int:
.Lfunc_begin18:
	.loc	1 1455 0 is_stmt 1              @ ../../../ThirdParty/mbedTLS/library/bignum.c:1455:0
	.fnstart
	.cfi_startproc
@ %bb.0:
	@DEBUG_VALUE: mbedtls_mpi_mul_int:X <- $r0
	@DEBUG_VALUE: mbedtls_mpi_mul_int:A <- $r1
	@DEBUG_VALUE: mbedtls_mpi_mul_int:b <- $r2
	.save	{r7, lr}
	push	{r7, lr}
	.cfi_def_cfa_offset 8
	.cfi_offset lr, -4
	.cfi_offset r7, -8
	.pad	#16
	sub	sp, #16
	.cfi_def_cfa_offset 24
	mov	r3, sp
	@DEBUG_VALUE: mbedtls_mpi_mul_int:b <- $r2
	@DEBUG_VALUE: mbedtls_mpi_mul_int:A <- $r1
	@DEBUG_VALUE: mbedtls_mpi_mul_int:X <- $r0
.Ltmp317:
	.loc	1 1463 10 prologue_end          @ ../../../ThirdParty/mbedTLS/library/bignum.c:1463:10
	str	r3, [sp, #12]
	movs	r3, #1
	.loc	1 1462 10                       @ ../../../ThirdParty/mbedTLS/library/bignum.c:1462:10
	str	r3, [sp, #8]
	.loc	1 1461 10                       @ ../../../ThirdParty/mbedTLS/library/bignum.c:1461:10
	str	r3, [sp, #4]
	.loc	1 1464 10                       @ ../../../ThirdParty/mbedTLS/library/bignum.c:1464:10
	str	r2, [sp]
	add	r2, sp, #4
.Ltmp318:
	@DEBUG_VALUE: mbedtls_mpi_mul_int:b <- [DW_OP_LLVM_entry_value 1] $r2
	@DEBUG_VALUE: mbedtls_mpi_mul_int:A <- $r1
	@DEBUG_VALUE: mbedtls_mpi_mul_int:X <- $r0
	.loc	1 1466 13                       @ ../../../ThirdParty/mbedTLS/library/bignum.c:1466:13
	bl	mbedtls_mpi_mul_mpi
.Ltmp319:
	@DEBUG_VALUE: mbedtls_mpi_mul_int:A <- [DW_OP_LLVM_entry_value 1] $r1
	@DEBUG_VALUE: mbedtls_mpi_mul_int:X <- [DW_OP_LLVM_entry_value 1] $r0
	.loc	1 1466 5 is_stmt 0              @ ../../../ThirdParty/mbedTLS/library/bignum.c:1466:5
	add	sp, #16
	pop	{r7, pc}
.Ltmp320:
.Lfunc_end18:
	.size	mbedtls_mpi_mul_int, .Lfunc_end18-mbedtls_mpi_mul_int
	.cfi_endproc
	.cantunwind
	.fnend
                                        @ -- End function
	.section	.text.mbedtls_mpi_add_int,"ax",%progbits
	.hidden	mbedtls_mpi_add_int             @ -- Begin function mbedtls_mpi_add_int
	.globl	mbedtls_mpi_add_int
	.p2align	1
	.type	mbedtls_mpi_add_int,%function
	.code	16                              @ @mbedtls_mpi_add_int
	.thumb_func
mbedtls_mpi_add_int:
.Lfunc_begin19:
	.loc	1 1297 0 is_stmt 1              @ ../../../ThirdParty/mbedTLS/library/bignum.c:1297:0
	.fnstart
	.cfi_startproc
@ %bb.0:
	@DEBUG_VALUE: mbedtls_mpi_add_int:X <- $r0
	@DEBUG_VALUE: mbedtls_mpi_add_int:A <- $r1
	@DEBUG_VALUE: mbedtls_mpi_add_int:b <- $r2
	.save	{r7, lr}
	push	{r7, lr}
	.cfi_def_cfa_offset 8
	.cfi_offset lr, -4
	.cfi_offset r7, -8
	.pad	#16
	sub	sp, #16
	.cfi_def_cfa_offset 24
	mov	r3, sp
	@DEBUG_VALUE: mbedtls_mpi_add_int:b <- $r2
	@DEBUG_VALUE: mbedtls_mpi_add_int:A <- $r1
	@DEBUG_VALUE: mbedtls_mpi_add_int:X <- $r0
.Ltmp321:
	.loc	1 1306 10 prologue_end          @ ../../../ThirdParty/mbedTLS/library/bignum.c:1306:10
	str	r3, [sp, #12]
	movs	r3, #1
	.loc	1 1305 10                       @ ../../../ThirdParty/mbedTLS/library/bignum.c:1305:10
	str	r3, [sp, #8]
	.loc	1 1304 12                       @ ../../../ThirdParty/mbedTLS/library/bignum.c:1304:12
	cmp	r2, #0
	bpl	.LBB19_2
.Ltmp322:
@ %bb.1:
	@DEBUG_VALUE: mbedtls_mpi_add_int:b <- $r2
	@DEBUG_VALUE: mbedtls_mpi_add_int:A <- $r1
	@DEBUG_VALUE: mbedtls_mpi_add_int:X <- $r0
	.loc	1 0 12 is_stmt 0                @ ../../../ThirdParty/mbedTLS/library/bignum.c:0:12
	movs	r3, #0
	mvns	r3, r3
.Ltmp323:
.LBB19_2:
	@DEBUG_VALUE: mbedtls_mpi_add_int:b <- $r2
	@DEBUG_VALUE: mbedtls_mpi_add_int:A <- $r1
	@DEBUG_VALUE: mbedtls_mpi_add_int:X <- $r0
	.loc	1 1304 10                       @ ../../../ThirdParty/mbedTLS/library/bignum.c:1304:10
	str	r3, [sp, #4]
	.loc	1 1303 12 is_stmt 1             @ ../../../ThirdParty/mbedTLS/library/bignum.c:1303:12
	asrs	r3, r2, #31
	adds	r2, r2, r3
.Ltmp324:
	@DEBUG_VALUE: mbedtls_mpi_add_int:b <- [DW_OP_LLVM_entry_value 1] $r2
	eors	r2, r3
	.loc	1 1303 10 is_stmt 0             @ ../../../ThirdParty/mbedTLS/library/bignum.c:1303:10
	str	r2, [sp]
	add	r2, sp, #4
	@DEBUG_VALUE: mbedtls_mpi_add_int:A <- $r1
	@DEBUG_VALUE: mbedtls_mpi_add_int:X <- $r0
	.loc	1 1308 13 is_stmt 1             @ ../../../ThirdParty/mbedTLS/library/bignum.c:1308:13
	bl	mbedtls_mpi_add_mpi
.Ltmp325:
	@DEBUG_VALUE: mbedtls_mpi_add_int:A <- [DW_OP_LLVM_entry_value 1] $r1
	@DEBUG_VALUE: mbedtls_mpi_add_int:X <- [DW_OP_LLVM_entry_value 1] $r0
	.loc	1 1308 5 is_stmt 0              @ ../../../ThirdParty/mbedTLS/library/bignum.c:1308:5
	add	sp, #16
	pop	{r7, pc}
.Ltmp326:
.Lfunc_end19:
	.size	mbedtls_mpi_add_int, .Lfunc_end19-mbedtls_mpi_add_int
	.cfi_endproc
	.cantunwind
	.fnend
                                        @ -- End function
	.section	.text.mbedtls_mpi_sub_int,"ax",%progbits
	.hidden	mbedtls_mpi_sub_int             @ -- Begin function mbedtls_mpi_sub_int
	.globl	mbedtls_mpi_sub_int
	.p2align	1
	.type	mbedtls_mpi_sub_int,%function
	.code	16                              @ @mbedtls_mpi_sub_int
	.thumb_func
mbedtls_mpi_sub_int:
.Lfunc_begin20:
	.loc	1 1315 0 is_stmt 1              @ ../../../ThirdParty/mbedTLS/library/bignum.c:1315:0
	.fnstart
	.cfi_startproc
@ %bb.0:
	@DEBUG_VALUE: mbedtls_mpi_sub_int:X <- $r0
	@DEBUG_VALUE: mbedtls_mpi_sub_int:A <- $r1
	@DEBUG_VALUE: mbedtls_mpi_sub_int:b <- $r2
	.save	{r7, lr}
	push	{r7, lr}
	.cfi_def_cfa_offset 8
	.cfi_offset lr, -4
	.cfi_offset r7, -8
	.pad	#16
	sub	sp, #16
	.cfi_def_cfa_offset 24
	mov	r3, sp
	@DEBUG_VALUE: mbedtls_mpi_sub_int:b <- $r2
	@DEBUG_VALUE: mbedtls_mpi_sub_int:A <- $r1
	@DEBUG_VALUE: mbedtls_mpi_sub_int:X <- $r0
.Ltmp327:
	.loc	1 1324 10 prologue_end          @ ../../../ThirdParty/mbedTLS/library/bignum.c:1324:10
	str	r3, [sp, #12]
	movs	r3, #1
	.loc	1 1323 10                       @ ../../../ThirdParty/mbedTLS/library/bignum.c:1323:10
	str	r3, [sp, #8]
	.loc	1 1322 12                       @ ../../../ThirdParty/mbedTLS/library/bignum.c:1322:12
	cmp	r2, #0
	bpl	.LBB20_2
.Ltmp328:
@ %bb.1:
	@DEBUG_VALUE: mbedtls_mpi_sub_int:b <- $r2
	@DEBUG_VALUE: mbedtls_mpi_sub_int:A <- $r1
	@DEBUG_VALUE: mbedtls_mpi_sub_int:X <- $r0
	.loc	1 0 12 is_stmt 0                @ ../../../ThirdParty/mbedTLS/library/bignum.c:0:12
	movs	r3, #0
	mvns	r3, r3
.Ltmp329:
.LBB20_2:
	@DEBUG_VALUE: mbedtls_mpi_sub_int:b <- $r2
	@DEBUG_VALUE: mbedtls_mpi_sub_int:A <- $r1
	@DEBUG_VALUE: mbedtls_mpi_sub_int:X <- $r0
	.loc	1 1322 10                       @ ../../../ThirdParty/mbedTLS/library/bignum.c:1322:10
	str	r3, [sp, #4]
	.loc	1 1321 12 is_stmt 1             @ ../../../ThirdParty/mbedTLS/library/bignum.c:1321:12
	asrs	r3, r2, #31
	adds	r2, r2, r3
.Ltmp330:
	@DEBUG_VALUE: mbedtls_mpi_sub_int:b <- [DW_OP_LLVM_entry_value 1] $r2
	eors	r2, r3
	.loc	1 1321 10 is_stmt 0             @ ../../../ThirdParty/mbedTLS/library/bignum.c:1321:10
	str	r2, [sp]
	add	r2, sp, #4
	@DEBUG_VALUE: mbedtls_mpi_sub_int:A <- $r1
	@DEBUG_VALUE: mbedtls_mpi_sub_int:X <- $r0
	.loc	1 1326 13 is_stmt 1             @ ../../../ThirdParty/mbedTLS/library/bignum.c:1326:13
	bl	mbedtls_mpi_sub_mpi
.Ltmp331:
	@DEBUG_VALUE: mbedtls_mpi_sub_int:A <- [DW_OP_LLVM_entry_value 1] $r1
	@DEBUG_VALUE: mbedtls_mpi_sub_int:X <- [DW_OP_LLVM_entry_value 1] $r0
	.loc	1 1326 5 is_stmt 0              @ ../../../ThirdParty/mbedTLS/library/bignum.c:1326:5
	add	sp, #16
	pop	{r7, pc}
.Ltmp332:
.Lfunc_end20:
	.size	mbedtls_mpi_sub_int, .Lfunc_end20-mbedtls_mpi_sub_int
	.cfi_endproc
	.cantunwind
	.fnend
                                        @ -- End function
	.section	.text.mbedtls_mpi_write_string,"ax",%progbits
	.hidden	mbedtls_mpi_write_string        @ -- Begin function mbedtls_mpi_write_string
	.globl	mbedtls_mpi_write_string
	.p2align	2
	.type	mbedtls_mpi_write_string,%function
	.code	16                              @ @mbedtls_mpi_write_string
	.thumb_func
mbedtls_mpi_write_string:
.Lfunc_begin21:
	.loc	1 573 0 is_stmt 1               @ ../../../ThirdParty/mbedTLS/library/bignum.c:573:0
	.fnstart
	.cfi_startproc
@ %bb.0:
	@DEBUG_VALUE: mbedtls_mpi_write_string:X <- $r0
	@DEBUG_VALUE: mbedtls_mpi_write_string:radix <- $r1
	@DEBUG_VALUE: mbedtls_mpi_write_string:buf <- $r2
	@DEBUG_VALUE: mbedtls_mpi_write_string:buflen <- $r3
	.save	{r4, r5, r6, r7, lr}
	push	{r4, r5, r6, r7, lr}
	.cfi_def_cfa_offset 20
	.cfi_offset lr, -4
	.cfi_offset r7, -8
	.cfi_offset r6, -12
	.cfi_offset r5, -16
	.cfi_offset r4, -20
	.pad	#44
	sub	sp, #44
	.cfi_def_cfa_offset 64
	mov	r4, r1
	movs	r1, #7
.Ltmp333:
	@DEBUG_VALUE: mbedtls_mpi_write_string:radix <- [DW_OP_LLVM_entry_value 1] $r1
	mvns	r6, r1
.Ltmp334:
	@DEBUG_VALUE: mbedtls_mpi_write_string:ret <- 0
	@DEBUG_VALUE: mbedtls_mpi_write_string:olen <- [DW_OP_plus_uconst 64] [$sp+0]
	@DEBUG_VALUE: mbedtls_mpi_write_string:buflen <- $r3
	@DEBUG_VALUE: mbedtls_mpi_write_string:buf <- $r2
	@DEBUG_VALUE: mbedtls_mpi_write_string:radix <- $r4
	@DEBUG_VALUE: mbedtls_mpi_write_string:X <- $r0
	.loc	1 582 19 prologue_end           @ ../../../ThirdParty/mbedTLS/library/bignum.c:582:19
	subs	r1, r4, #2
	cmp	r1, #14
	bls	.LBB21_2
.Ltmp335:
@ %bb.1:
	@DEBUG_VALUE: mbedtls_mpi_write_string:radix <- $r4
	@DEBUG_VALUE: mbedtls_mpi_write_string:buflen <- $r3
	@DEBUG_VALUE: mbedtls_mpi_write_string:buf <- $r2
	@DEBUG_VALUE: mbedtls_mpi_write_string:X <- $r0
	@DEBUG_VALUE: mbedtls_mpi_write_string:olen <- [DW_OP_plus_uconst 64] [$sp+0]
	@DEBUG_VALUE: mbedtls_mpi_write_string:ret <- 0
	.loc	1 0 19 is_stmt 0                @ ../../../ThirdParty/mbedTLS/library/bignum.c:0:19
	adds	r6, r6, #4
	b	.LBB21_26
.Ltmp336:
.LBB21_2:
	@DEBUG_VALUE: mbedtls_mpi_write_string:radix <- $r4
	@DEBUG_VALUE: mbedtls_mpi_write_string:buflen <- $r3
	@DEBUG_VALUE: mbedtls_mpi_write_string:buf <- $r2
	@DEBUG_VALUE: mbedtls_mpi_write_string:X <- $r0
	@DEBUG_VALUE: mbedtls_mpi_write_string:olen <- [DW_OP_plus_uconst 64] [$sp+0]
	@DEBUG_VALUE: mbedtls_mpi_write_string:ret <- 0
	str	r3, [sp, #24]                   @ 4-byte Spill
.Ltmp337:
	@DEBUG_VALUE: mbedtls_mpi_write_string:buflen <- [DW_OP_plus_uconst 24] [$sp+0]
	str	r2, [sp, #4]                    @ 4-byte Spill
.Ltmp338:
	@DEBUG_VALUE: mbedtls_mpi_write_string:buf <- [DW_OP_plus_uconst 4] [$sp+0]
	movs	r7, #1
	movs	r1, #0
.Ltmp339:
	.loc	1 587 15 is_stmt 1              @ ../../../ThirdParty/mbedTLS/library/bignum.c:587:15
	cmp	r4, #15
	mov	r2, r7
	bgt	.LBB21_4
.Ltmp340:
@ %bb.3:
	@DEBUG_VALUE: mbedtls_mpi_write_string:buf <- [DW_OP_plus_uconst 4] [$sp+0]
	@DEBUG_VALUE: mbedtls_mpi_write_string:buflen <- [DW_OP_plus_uconst 24] [$sp+0]
	@DEBUG_VALUE: mbedtls_mpi_write_string:radix <- $r4
	@DEBUG_VALUE: mbedtls_mpi_write_string:X <- $r0
	@DEBUG_VALUE: mbedtls_mpi_write_string:olen <- [DW_OP_plus_uconst 64] [$sp+0]
	@DEBUG_VALUE: mbedtls_mpi_write_string:ret <- 0
	mov	r2, r1
.Ltmp341:
.LBB21_4:
	@DEBUG_VALUE: mbedtls_mpi_write_string:buf <- [DW_OP_plus_uconst 4] [$sp+0]
	@DEBUG_VALUE: mbedtls_mpi_write_string:buflen <- [DW_OP_plus_uconst 24] [$sp+0]
	@DEBUG_VALUE: mbedtls_mpi_write_string:radix <- $r4
	@DEBUG_VALUE: mbedtls_mpi_write_string:X <- $r0
	@DEBUG_VALUE: mbedtls_mpi_write_string:olen <- [DW_OP_plus_uconst 64] [$sp+0]
	@DEBUG_VALUE: mbedtls_mpi_write_string:ret <- 0
	.loc	1 0 15 is_stmt 0                @ ../../../ThirdParty/mbedTLS/library/bignum.c:0:15
	str	r2, [sp, #16]                   @ 4-byte Spill
.Ltmp342:
	.loc	1 586 15 is_stmt 1              @ ../../../ThirdParty/mbedTLS/library/bignum.c:586:15
	cmp	r4, #3
	mov	r5, r7
	bgt	.LBB21_6
.Ltmp343:
@ %bb.5:
	@DEBUG_VALUE: mbedtls_mpi_write_string:buf <- [DW_OP_plus_uconst 4] [$sp+0]
	@DEBUG_VALUE: mbedtls_mpi_write_string:buflen <- [DW_OP_plus_uconst 24] [$sp+0]
	@DEBUG_VALUE: mbedtls_mpi_write_string:radix <- $r4
	@DEBUG_VALUE: mbedtls_mpi_write_string:X <- $r0
	@DEBUG_VALUE: mbedtls_mpi_write_string:olen <- [DW_OP_plus_uconst 64] [$sp+0]
	@DEBUG_VALUE: mbedtls_mpi_write_string:ret <- 0
	mov	r5, r1
.Ltmp344:
.LBB21_6:
	@DEBUG_VALUE: mbedtls_mpi_write_string:buf <- [DW_OP_plus_uconst 4] [$sp+0]
	@DEBUG_VALUE: mbedtls_mpi_write_string:buflen <- [DW_OP_plus_uconst 24] [$sp+0]
	@DEBUG_VALUE: mbedtls_mpi_write_string:radix <- $r4
	@DEBUG_VALUE: mbedtls_mpi_write_string:X <- $r0
	@DEBUG_VALUE: mbedtls_mpi_write_string:olen <- [DW_OP_plus_uconst 64] [$sp+0]
	@DEBUG_VALUE: mbedtls_mpi_write_string:ret <- 0
	.loc	1 0 15 is_stmt 0                @ ../../../ThirdParty/mbedTLS/library/bignum.c:0:15
	ldr	r1, [sp, #64]
	.loc	1 585 9 is_stmt 1               @ ../../../ThirdParty/mbedTLS/library/bignum.c:585:9
	str	r1, [sp]                        @ 4-byte Spill
	str	r0, [sp, #20]                   @ 4-byte Spill
	bl	mbedtls_mpi_bitlen
.Ltmp345:
	@DEBUG_VALUE: mbedtls_mpi_write_string:X <- [DW_OP_LLVM_entry_value 1] $r0
	@DEBUG_VALUE: mbedtls_mpi_write_string:n <- $r0
	.loc	1 586 9                         @ ../../../ThirdParty/mbedTLS/library/bignum.c:586:9
	lsrs	r0, r5
.Ltmp346:
	@DEBUG_VALUE: mbedtls_mpi_write_string:n <- $r0
	.loc	1 587 9                         @ ../../../ThirdParty/mbedTLS/library/bignum.c:587:9
	ldr	r1, [sp, #16]                   @ 4-byte Reload
	lsrs	r0, r1
.Ltmp347:
	@DEBUG_VALUE: mbedtls_mpi_write_string:n <- $r0
	.loc	1 593 7                         @ ../../../ThirdParty/mbedTLS/library/bignum.c:593:7
	bics	r0, r7
.Ltmp348:
	adds	r0, r0, #4
.Ltmp349:
	@DEBUG_VALUE: mbedtls_mpi_write_string:n <- $r0
	.loc	1 0 7 is_stmt 0                 @ ../../../ThirdParty/mbedTLS/library/bignum.c:0:7
	ldr	r7, [sp, #24]                   @ 4-byte Reload
.Ltmp350:
	@DEBUG_VALUE: mbedtls_mpi_write_string:buflen <- $r7
	.loc	1 595 9 is_stmt 1               @ ../../../ThirdParty/mbedTLS/library/bignum.c:595:9
	cmp	r0, r7
	bls	.LBB21_8
.Ltmp351:
@ %bb.7:
	@DEBUG_VALUE: mbedtls_mpi_write_string:buf <- [DW_OP_plus_uconst 4] [$sp+0]
	@DEBUG_VALUE: mbedtls_mpi_write_string:buflen <- $r7
	@DEBUG_VALUE: mbedtls_mpi_write_string:radix <- $r4
	@DEBUG_VALUE: mbedtls_mpi_write_string:n <- $r0
	@DEBUG_VALUE: mbedtls_mpi_write_string:olen <- [DW_OP_plus_uconst 64] [$sp+0]
	@DEBUG_VALUE: mbedtls_mpi_write_string:X <- [DW_OP_LLVM_entry_value 1] $r0
	@DEBUG_VALUE: mbedtls_mpi_write_string:ret <- 0
	.loc	1 597 15                        @ ../../../ThirdParty/mbedTLS/library/bignum.c:597:15
	ldr	r1, [sp]                        @ 4-byte Reload
	str	r0, [r1]
	.loc	1 598 9                         @ ../../../ThirdParty/mbedTLS/library/bignum.c:598:9
	b	.LBB21_26
.Ltmp352:
.LBB21_8:
	@DEBUG_VALUE: mbedtls_mpi_write_string:buf <- [DW_OP_plus_uconst 4] [$sp+0]
	@DEBUG_VALUE: mbedtls_mpi_write_string:buflen <- $r7
	@DEBUG_VALUE: mbedtls_mpi_write_string:radix <- $r4
	@DEBUG_VALUE: mbedtls_mpi_write_string:n <- $r0
	@DEBUG_VALUE: mbedtls_mpi_write_string:olen <- [DW_OP_plus_uconst 64] [$sp+0]
	@DEBUG_VALUE: mbedtls_mpi_write_string:X <- [DW_OP_LLVM_entry_value 1] $r0
	@DEBUG_VALUE: mbedtls_mpi_write_string:ret <- 0
	@DEBUG_VALUE: mbedtls_mpi_write_string:p <- [DW_OP_plus_uconst 4] [$sp+0]
	.loc	1 0 9 is_stmt 0                 @ ../../../ThirdParty/mbedTLS/library/bignum.c:0:9
	ldr	r5, [sp, #4]                    @ 4-byte Reload
.Ltmp353:
	@DEBUG_VALUE: mbedtls_mpi_write_string:buf <- $r5
	.loc	1 601 7 is_stmt 1               @ ../../../ThirdParty/mbedTLS/library/bignum.c:601:7
	str	r5, [sp, #40]
	add	r0, sp, #28
.Ltmp354:
	.loc	1 602 5                         @ ../../../ThirdParty/mbedTLS/library/bignum.c:602:5
	bl	mbedtls_mpi_init
	ldr	r1, [sp, #20]                   @ 4-byte Reload
.Ltmp355:
	.loc	1 604 12                        @ ../../../ThirdParty/mbedTLS/library/bignum.c:604:12
	ldr	r0, [r1]
.Ltmp356:
	.loc	1 604 9 is_stmt 0               @ ../../../ThirdParty/mbedTLS/library/bignum.c:604:9
	adds	r0, r0, #1
	beq	.LBB21_19
.Ltmp357:
@ %bb.9:
	@DEBUG_VALUE: mbedtls_mpi_write_string:buflen <- $r7
	@DEBUG_VALUE: mbedtls_mpi_write_string:buf <- $r5
	@DEBUG_VALUE: mbedtls_mpi_write_string:radix <- $r4
	@DEBUG_VALUE: mbedtls_mpi_write_string:p <- [DW_OP_plus_uconst 4] [$sp+0]
	@DEBUG_VALUE: mbedtls_mpi_write_string:olen <- [DW_OP_plus_uconst 64] [$sp+0]
	@DEBUG_VALUE: mbedtls_mpi_write_string:X <- [DW_OP_LLVM_entry_value 1] $r0
	@DEBUG_VALUE: mbedtls_mpi_write_string:ret <- 0
	.loc	1 607 9 is_stmt 1               @ ../../../ThirdParty/mbedTLS/library/bignum.c:607:9
	cmp	r4, #16
	bne	.LBB21_20
.Ltmp358:
.LBB21_10:
	@DEBUG_VALUE: mbedtls_mpi_write_string:buflen <- $r7
	@DEBUG_VALUE: mbedtls_mpi_write_string:buf <- $r5
	@DEBUG_VALUE: mbedtls_mpi_write_string:radix <- $r4
	@DEBUG_VALUE: mbedtls_mpi_write_string:olen <- [DW_OP_plus_uconst 64] [$sp+0]
	@DEBUG_VALUE: mbedtls_mpi_write_string:X <- [DW_OP_LLVM_entry_value 1] $r0
	@DEBUG_VALUE: mbedtls_mpi_write_string:ret <- 0
	.loc	1 612 21                        @ ../../../ThirdParty/mbedTLS/library/bignum.c:612:21
	ldr	r0, [r1, #4]
.Ltmp359:
	@DEBUG_VALUE: k <- 0
	@DEBUG_VALUE: i <- $r0
	.loc	1 612 9 is_stmt 0               @ ../../../ThirdParty/mbedTLS/library/bignum.c:612:9
	cmp	r0, #0
	beq	.LBB21_24
.Ltmp360:
@ %bb.11:
	@DEBUG_VALUE: mbedtls_mpi_write_string:buflen <- $r7
	@DEBUG_VALUE: mbedtls_mpi_write_string:buf <- $r5
	@DEBUG_VALUE: mbedtls_mpi_write_string:radix <- $r4
	@DEBUG_VALUE: i <- $r0
	@DEBUG_VALUE: mbedtls_mpi_write_string:olen <- [DW_OP_plus_uconst 64] [$sp+0]
	@DEBUG_VALUE: k <- 0
	@DEBUG_VALUE: mbedtls_mpi_write_string:X <- [DW_OP_LLVM_entry_value 1] $r0
	@DEBUG_VALUE: mbedtls_mpi_write_string:ret <- 0
	.loc	1 0 9                           @ ../../../ThirdParty/mbedTLS/library/bignum.c:0:9
	movs	r1, #0
	adds	r2, r6, #6
	str	r2, [sp, #12]                   @ 4-byte Spill
	movs	r2, #24
	str	r2, [sp, #8]                    @ 4-byte Spill
	str	r1, [sp, #16]                   @ 4-byte Spill
	ldr	r7, __arm_cp.21_0
.Ltmp361:
	@DEBUG_VALUE: mbedtls_mpi_write_string:buflen <- [DW_OP_LLVM_entry_value 1] $r3
	b	.LBB21_13
.Ltmp362:
.LBB21_12:                              @   in Loop: Header=BB21_13 Depth=1
	@DEBUG_VALUE: c <- $r5
	@DEBUG_VALUE: k <- $r1
	@DEBUG_VALUE: i <- $r0
	@DEBUG_VALUE: mbedtls_mpi_write_string:olen <- [DW_OP_plus_uconst 64] [$sp+0]
	@DEBUG_VALUE: mbedtls_mpi_write_string:buflen <- [DW_OP_LLVM_entry_value 1] $r3
	@DEBUG_VALUE: mbedtls_mpi_write_string:X <- [DW_OP_LLVM_entry_value 1] $r0
	@DEBUG_VALUE: mbedtls_mpi_write_string:ret <- 0
	@DEBUG_VALUE: k <- $r1
	ldr	r0, [sp, #24]                   @ 4-byte Reload
.Ltmp363:
	str	r0, [sp, #40]
.Ltmp364:
	@DEBUG_VALUE: i <- $r6
	mov	r0, r6
.Ltmp365:
	@DEBUG_VALUE: i <- $r0
	.loc	1 612 9                         @ ../../../ThirdParty/mbedTLS/library/bignum.c:612:9
	cbz	r6, .LBB21_24
.Ltmp366:
.LBB21_13:                              @ =>This Loop Header: Depth=1
                                        @     Child Loop BB21_16 Depth 2
	@DEBUG_VALUE: i <- $r0
	@DEBUG_VALUE: mbedtls_mpi_write_string:olen <- [DW_OP_plus_uconst 64] [$sp+0]
	@DEBUG_VALUE: mbedtls_mpi_write_string:buflen <- [DW_OP_LLVM_entry_value 1] $r3
	@DEBUG_VALUE: mbedtls_mpi_write_string:X <- [DW_OP_LLVM_entry_value 1] $r0
	@DEBUG_VALUE: mbedtls_mpi_write_string:ret <- 0
	@DEBUG_VALUE: i <- $r0
	@DEBUG_VALUE: k <- $r1
	@DEBUG_VALUE: j <- 4
	.loc	1 0 0                           @ ../../../ThirdParty/mbedTLS/library/bignum.c:0:0
	subs	r6, r0, #1
	ldr	r2, [sp, #40]
	str	r2, [sp, #24]                   @ 4-byte Spill
	ldr	r2, [sp, #12]                   @ 4-byte Reload
	ldr	r3, [sp, #8]                    @ 4-byte Reload
	b	.LBB21_16
.Ltmp367:
.LBB21_14:                              @   in Loop: Header=BB21_16 Depth=2
	@DEBUG_VALUE: c <- $r5
	@DEBUG_VALUE: i <- $r0
	@DEBUG_VALUE: mbedtls_mpi_write_string:olen <- [DW_OP_plus_uconst 64] [$sp+0]
	@DEBUG_VALUE: mbedtls_mpi_write_string:buflen <- [DW_OP_LLVM_entry_value 1] $r3
	@DEBUG_VALUE: mbedtls_mpi_write_string:X <- [DW_OP_LLVM_entry_value 1] $r0
	@DEBUG_VALUE: mbedtls_mpi_write_string:ret <- 0
	movs	r1, #15
	.loc	1 622 48 is_stmt 1              @ ../../../ThirdParty/mbedTLS/library/bignum.c:622:48
	ands	r4, r1
	.loc	1 622 26 is_stmt 0              @ ../../../ThirdParty/mbedTLS/library/bignum.c:622:26
	ldrb	r1, [r7, r4]
.Ltmp368:
	@DEBUG_VALUE: mbedtls_mpi_write_string:p <- [DW_OP_plus_uconst 24, DW_OP_deref_size 4, DW_OP_plus_uconst 1, DW_OP_stack_value] $sp
	.loc	1 0 26                          @ ../../../ThirdParty/mbedTLS/library/bignum.c:0:26
	ldr	r4, [sp, #24]                   @ 4-byte Reload
.Ltmp369:
	@DEBUG_VALUE: mbedtls_mpi_write_string:p <- [DW_OP_plus_uconst 1, DW_OP_stack_value] $r4
	.loc	1 622 24                        @ ../../../ThirdParty/mbedTLS/library/bignum.c:622:24
	strb	r1, [r4, #1]
	.loc	1 621 48 is_stmt 1              @ ../../../ThirdParty/mbedTLS/library/bignum.c:621:48
	lsrs	r1, r5, #4
	.loc	1 621 26 is_stmt 0              @ ../../../ThirdParty/mbedTLS/library/bignum.c:621:26
	ldrb	r1, [r7, r1]
	.loc	1 621 24                        @ ../../../ThirdParty/mbedTLS/library/bignum.c:621:24
	strb	r1, [r4]
	.loc	1 622 20 is_stmt 1              @ ../../../ThirdParty/mbedTLS/library/bignum.c:622:20
	adds	r4, r4, #2
.Ltmp370:
	@DEBUG_VALUE: mbedtls_mpi_write_string:p <- $r4
	.loc	1 0 20 is_stmt 0                @ ../../../ThirdParty/mbedTLS/library/bignum.c:0:20
	str	r4, [sp, #24]                   @ 4-byte Spill
.Ltmp371:
	@DEBUG_VALUE: mbedtls_mpi_write_string:p <- [DW_OP_plus_uconst 24] [$sp+0]
	@DEBUG_VALUE: mbedtls_mpi_write_string:p <- [DW_OP_plus_uconst 24] [$sp+0]
	@DEBUG_VALUE: mbedtls_mpi_write_string:p <- [DW_OP_plus_uconst 24] [$sp+0]
	movs	r1, #1
.Ltmp372:
	@DEBUG_VALUE: k <- 1
.LBB21_15:                              @   in Loop: Header=BB21_16 Depth=2
	@DEBUG_VALUE: c <- $r5
	@DEBUG_VALUE: i <- $r0
	@DEBUG_VALUE: mbedtls_mpi_write_string:olen <- [DW_OP_plus_uconst 64] [$sp+0]
	@DEBUG_VALUE: mbedtls_mpi_write_string:buflen <- [DW_OP_LLVM_entry_value 1] $r3
	@DEBUG_VALUE: mbedtls_mpi_write_string:X <- [DW_OP_LLVM_entry_value 1] $r0
	@DEBUG_VALUE: mbedtls_mpi_write_string:ret <- 0
	@DEBUG_VALUE: k <- $r1
	@DEBUG_VALUE: j <- [DW_OP_constu 1, DW_OP_minus, DW_OP_stack_value] undef
	.loc	1 614 29 is_stmt 1              @ ../../../ThirdParty/mbedTLS/library/bignum.c:614:29
	adds	r2, r2, #1
	mov	r4, r3
	subs	r4, #8
.Ltmp373:
	.loc	1 614 13 is_stmt 0              @ ../../../ThirdParty/mbedTLS/library/bignum.c:614:13
	cmp	r3, #0
	mov	r3, r4
	beq	.LBB21_12
.Ltmp374:
.LBB21_16:                              @   Parent Loop BB21_13 Depth=1
                                        @ =>  This Inner Loop Header: Depth=2
	@DEBUG_VALUE: k <- $r1
	@DEBUG_VALUE: i <- $r0
	@DEBUG_VALUE: mbedtls_mpi_write_string:olen <- [DW_OP_plus_uconst 64] [$sp+0]
	@DEBUG_VALUE: mbedtls_mpi_write_string:buflen <- [DW_OP_LLVM_entry_value 1] $r3
	@DEBUG_VALUE: mbedtls_mpi_write_string:X <- [DW_OP_LLVM_entry_value 1] $r0
	@DEBUG_VALUE: mbedtls_mpi_write_string:ret <- 0
	@DEBUG_VALUE: k <- $r1
	@DEBUG_VALUE: j <- undef
	.loc	1 616 23 is_stmt 1              @ ../../../ThirdParty/mbedTLS/library/bignum.c:616:23
	lsls	r4, r6, #2
	.loc	1 616 26 is_stmt 0              @ ../../../ThirdParty/mbedTLS/library/bignum.c:616:26
	ldr	r5, [sp, #20]                   @ 4-byte Reload
.Ltmp375:
	@DEBUG_VALUE: mbedtls_mpi_write_string:buf <- [DW_OP_LLVM_entry_value 1] $r2
	ldr	r5, [r5, #8]
	.loc	1 616 23                        @ ../../../ThirdParty/mbedTLS/library/bignum.c:616:23
	ldr	r4, [r5, r4]
	.loc	1 616 35                        @ ../../../ThirdParty/mbedTLS/library/bignum.c:616:35
	lsrs	r4, r3
	.loc	1 616 58                        @ ../../../ThirdParty/mbedTLS/library/bignum.c:616:58
	uxtb	r5, r4
.Ltmp376:
	@DEBUG_VALUE: c <- $r5
	.loc	1 618 28 is_stmt 1              @ ../../../ThirdParty/mbedTLS/library/bignum.c:618:28
	cmp	r0, r2
	beq	.LBB21_14
.Ltmp377:
@ %bb.17:                               @   in Loop: Header=BB21_16 Depth=2
	@DEBUG_VALUE: c <- $r5
	@DEBUG_VALUE: k <- $r1
	@DEBUG_VALUE: i <- $r0
	@DEBUG_VALUE: mbedtls_mpi_write_string:olen <- [DW_OP_plus_uconst 64] [$sp+0]
	@DEBUG_VALUE: mbedtls_mpi_write_string:buflen <- [DW_OP_LLVM_entry_value 1] $r3
	@DEBUG_VALUE: mbedtls_mpi_write_string:X <- [DW_OP_LLVM_entry_value 1] $r0
	@DEBUG_VALUE: mbedtls_mpi_write_string:ret <- 0
	orrs	r1, r5
.Ltmp378:
	bne	.LBB21_14
.Ltmp379:
@ %bb.18:                               @   in Loop: Header=BB21_16 Depth=2
	@DEBUG_VALUE: c <- $r5
	@DEBUG_VALUE: i <- $r0
	@DEBUG_VALUE: mbedtls_mpi_write_string:olen <- [DW_OP_plus_uconst 64] [$sp+0]
	@DEBUG_VALUE: mbedtls_mpi_write_string:buflen <- [DW_OP_LLVM_entry_value 1] $r3
	@DEBUG_VALUE: mbedtls_mpi_write_string:X <- [DW_OP_LLVM_entry_value 1] $r0
	@DEBUG_VALUE: mbedtls_mpi_write_string:ret <- 0
	.loc	1 0 0 is_stmt 0                 @ ../../../ThirdParty/mbedTLS/library/bignum.c:0:0
	ldr	r1, [sp, #16]                   @ 4-byte Reload
	b	.LBB21_15
.Ltmp380:
.LBB21_19:
	@DEBUG_VALUE: mbedtls_mpi_write_string:buflen <- $r7
	@DEBUG_VALUE: mbedtls_mpi_write_string:buf <- $r5
	@DEBUG_VALUE: mbedtls_mpi_write_string:radix <- $r4
	@DEBUG_VALUE: mbedtls_mpi_write_string:p <- [DW_OP_plus_uconst 4] [$sp+0]
	@DEBUG_VALUE: mbedtls_mpi_write_string:olen <- [DW_OP_plus_uconst 64] [$sp+0]
	@DEBUG_VALUE: mbedtls_mpi_write_string:X <- [DW_OP_LLVM_entry_value 1] $r0
	@DEBUG_VALUE: mbedtls_mpi_write_string:ret <- 0
	@DEBUG_VALUE: mbedtls_mpi_write_string:p <- [DW_OP_plus_uconst 4] [$sp+0]
	movs	r0, #45
.Ltmp381:
	.loc	1 605 14 is_stmt 1              @ ../../../ThirdParty/mbedTLS/library/bignum.c:605:14
	strb	r0, [r5]
	.loc	1 605 11 is_stmt 0              @ ../../../ThirdParty/mbedTLS/library/bignum.c:605:11
	adds	r0, r5, #1
.Ltmp382:
	@DEBUG_VALUE: mbedtls_mpi_write_string:p <- $r0
	str	r0, [sp, #40]
.Ltmp383:
	.loc	1 607 9 is_stmt 1               @ ../../../ThirdParty/mbedTLS/library/bignum.c:607:9
	cmp	r4, #16
	beq	.LBB21_10
.Ltmp384:
.LBB21_20:
	@DEBUG_VALUE: mbedtls_mpi_write_string:buflen <- $r7
	@DEBUG_VALUE: mbedtls_mpi_write_string:buf <- $r5
	@DEBUG_VALUE: mbedtls_mpi_write_string:radix <- $r4
	@DEBUG_VALUE: mbedtls_mpi_write_string:olen <- [DW_OP_plus_uconst 64] [$sp+0]
	@DEBUG_VALUE: mbedtls_mpi_write_string:X <- [DW_OP_LLVM_entry_value 1] $r0
	@DEBUG_VALUE: mbedtls_mpi_write_string:ret <- 0
	.loc	1 0 9 is_stmt 0                 @ ../../../ThirdParty/mbedTLS/library/bignum.c:0:9
	add	r0, sp, #28
.Ltmp385:
	.loc	1 629 9 is_stmt 1               @ ../../../ThirdParty/mbedTLS/library/bignum.c:629:9
	bl	mbedtls_mpi_copy
	mov	r6, r0
.Ltmp386:
	@DEBUG_VALUE: mbedtls_mpi_write_string:ret <- $r6
	.loc	1 629 9 is_stmt 0               @ ../../../ThirdParty/mbedTLS/library/bignum.c:629:9
	cbnz	r0, .LBB21_25
.Ltmp387:
@ %bb.21:
	@DEBUG_VALUE: mbedtls_mpi_write_string:buflen <- $r7
	@DEBUG_VALUE: mbedtls_mpi_write_string:ret <- $r6
	@DEBUG_VALUE: mbedtls_mpi_write_string:buf <- $r5
	@DEBUG_VALUE: mbedtls_mpi_write_string:radix <- $r4
	@DEBUG_VALUE: mbedtls_mpi_write_string:olen <- [DW_OP_plus_uconst 64] [$sp+0]
	@DEBUG_VALUE: mbedtls_mpi_write_string:X <- [DW_OP_LLVM_entry_value 1] $r0
	.loc	1 631 15 is_stmt 1              @ ../../../ThirdParty/mbedTLS/library/bignum.c:631:15
	ldr	r0, [sp, #28]
.Ltmp388:
	.loc	1 631 13 is_stmt 0              @ ../../../ThirdParty/mbedTLS/library/bignum.c:631:13
	adds	r0, r0, #1
	bne	.LBB21_23
.Ltmp389:
@ %bb.22:
	@DEBUG_VALUE: mbedtls_mpi_write_string:buflen <- $r7
	@DEBUG_VALUE: mbedtls_mpi_write_string:ret <- $r6
	@DEBUG_VALUE: mbedtls_mpi_write_string:buf <- $r5
	@DEBUG_VALUE: mbedtls_mpi_write_string:radix <- $r4
	@DEBUG_VALUE: mbedtls_mpi_write_string:olen <- [DW_OP_plus_uconst 64] [$sp+0]
	@DEBUG_VALUE: mbedtls_mpi_write_string:X <- [DW_OP_LLVM_entry_value 1] $r0
	.loc	1 0 13                          @ ../../../ThirdParty/mbedTLS/library/bignum.c:0:13
	movs	r0, #1
.Ltmp390:
	.loc	1 632 17 is_stmt 1              @ ../../../ThirdParty/mbedTLS/library/bignum.c:632:17
	str	r0, [sp, #28]
.Ltmp391:
.LBB21_23:
	@DEBUG_VALUE: mbedtls_mpi_write_string:buflen <- $r7
	@DEBUG_VALUE: mbedtls_mpi_write_string:ret <- $r6
	@DEBUG_VALUE: mbedtls_mpi_write_string:buf <- $r5
	@DEBUG_VALUE: mbedtls_mpi_write_string:radix <- $r4
	@DEBUG_VALUE: mbedtls_mpi_write_string:olen <- [DW_OP_plus_uconst 64] [$sp+0]
	@DEBUG_VALUE: mbedtls_mpi_write_string:X <- [DW_OP_LLVM_entry_value 1] $r0
	@DEBUG_VALUE: mbedtls_mpi_write_string:p <- [DW_OP_plus_uconst 40, DW_OP_deref] $sp
	.loc	1 0 17 is_stmt 0                @ ../../../ThirdParty/mbedTLS/library/bignum.c:0:17
	add	r0, sp, #28
	add	r2, sp, #40
.Ltmp392:
	.loc	1 634 9 is_stmt 1               @ ../../../ThirdParty/mbedTLS/library/bignum.c:634:9
	mov	r1, r4
	mov	r3, r7
	bl	mpi_write_hlp
	mov	r6, r0
.Ltmp393:
	@DEBUG_VALUE: mbedtls_mpi_write_string:ret <- $r6
	.loc	1 634 9 is_stmt 0               @ ../../../ThirdParty/mbedTLS/library/bignum.c:634:9
	cbnz	r0, .LBB21_25
.Ltmp394:
.LBB21_24:
	@DEBUG_VALUE: mbedtls_mpi_write_string:olen <- [DW_OP_plus_uconst 64] [$sp+0]
	@DEBUG_VALUE: mbedtls_mpi_write_string:X <- [DW_OP_LLVM_entry_value 1] $r0
	@DEBUG_VALUE: mbedtls_mpi_write_string:ret <- 0
	.loc	1 637 7 is_stmt 1               @ ../../../ThirdParty/mbedTLS/library/bignum.c:637:7
	ldr	r0, [sp, #40]
.Ltmp395:
	@DEBUG_VALUE: mbedtls_mpi_write_string:p <- $r0
	.loc	1 0 7 is_stmt 0                 @ ../../../ThirdParty/mbedTLS/library/bignum.c:0:7
	movs	r6, #0
	.loc	1 637 10                        @ ../../../ThirdParty/mbedTLS/library/bignum.c:637:10
	strb	r6, [r0]
	.loc	1 637 7                         @ ../../../ThirdParty/mbedTLS/library/bignum.c:637:7
	adds	r0, r0, #1
.Ltmp396:
	@DEBUG_VALUE: mbedtls_mpi_write_string:p <- $r0
	str	r0, [sp, #40]
.Ltmp397:
	@DEBUG_VALUE: mbedtls_mpi_write_string:p <- undef
	.loc	1 638 15 is_stmt 1              @ ../../../ThirdParty/mbedTLS/library/bignum.c:638:15
	ldr	r1, [sp, #4]                    @ 4-byte Reload
	subs	r0, r0, r1
	.loc	1 638 11 is_stmt 0              @ ../../../ThirdParty/mbedTLS/library/bignum.c:638:11
	ldr	r1, [sp]                        @ 4-byte Reload
	str	r0, [r1]
.Ltmp398:
.LBB21_25:
	@DEBUG_VALUE: mbedtls_mpi_write_string:olen <- [DW_OP_plus_uconst 64] [$sp+0]
	@DEBUG_VALUE: mbedtls_mpi_write_string:X <- [DW_OP_LLVM_entry_value 1] $r0
	@DEBUG_VALUE: mbedtls_mpi_write_string:ret <- $r6
	@DEBUG_LABEL: mbedtls_mpi_write_string:cleanup
	.loc	1 0 11                          @ ../../../ThirdParty/mbedTLS/library/bignum.c:0:11
	add	r0, sp, #28
	.loc	1 642 5 is_stmt 1               @ ../../../ThirdParty/mbedTLS/library/bignum.c:642:5
	bl	mbedtls_mpi_free
.Ltmp399:
.LBB21_26:
	@DEBUG_VALUE: mbedtls_mpi_write_string:olen <- [DW_OP_plus_uconst 64] [$sp+0]
	.loc	1 645 1                         @ ../../../ThirdParty/mbedTLS/library/bignum.c:645:1
	mov	r0, r6
	add	sp, #44
.Ltmp400:
	pop	{r4, r5, r6, r7, pc}
.Ltmp401:
	.p2align	2
@ %bb.27:
	.loc	1 0 1 is_stmt 0                 @ ../../../ThirdParty/mbedTLS/library/bignum.c:0:1
__arm_cp.21_0:
	.long	.L.str
.Lcpi_end2:
	.size	__arm_cp.21_0, .Lcpi_end2-__arm_cp.21_0
.Lfunc_end21:
	.size	mbedtls_mpi_write_string, .Lfunc_end21-mbedtls_mpi_write_string
	.cfi_endproc
	.cantunwind
	.fnend
                                        @ -- End function
	.section	.text.mpi_write_hlp,"ax",%progbits
	.p2align	1                               @ -- Begin function mpi_write_hlp
	.type	mpi_write_hlp,%function
	.code	16                              @ @mpi_write_hlp
	.thumb_func
mpi_write_hlp:
.Lfunc_begin22:
	.loc	1 534 0 is_stmt 1               @ ../../../ThirdParty/mbedTLS/library/bignum.c:534:0
	.fnstart
	.cfi_startproc
@ %bb.0:
	@DEBUG_VALUE: mpi_write_hlp:X <- $r0
	@DEBUG_VALUE: mpi_write_hlp:radix <- $r1
	@DEBUG_VALUE: mpi_write_hlp:p <- $r2
	@DEBUG_VALUE: mpi_write_hlp:buflen <- $r3
	.save	{r4, r5, r6, r7, lr}
	push	{r4, r5, r6, r7, lr}
	.cfi_def_cfa_offset 20
	.cfi_offset lr, -4
	.cfi_offset r7, -8
	.cfi_offset r6, -12
	.cfi_offset r5, -16
	.cfi_offset r4, -20
	.pad	#36
	sub	sp, #36
	.cfi_def_cfa_offset 56
	mov	r4, r0
	str	r2, [sp, #8]                    @ 4-byte Spill
.Ltmp402:
	@DEBUG_VALUE: mpi_write_hlp:length <- 0
	@DEBUG_VALUE: mpi_write_hlp:buflen <- $r3
	@DEBUG_VALUE: mpi_write_hlp:p <- [DW_OP_plus_uconst 8] [$sp+0]
	@DEBUG_VALUE: mpi_write_hlp:radix <- $r1
	@DEBUG_VALUE: mpi_write_hlp:X <- $r4
	.loc	1 538 19 prologue_end           @ ../../../ThirdParty/mbedTLS/library/bignum.c:538:19
	ldr	r0, [r2]
	.loc	1 538 22 is_stmt 0              @ ../../../ThirdParty/mbedTLS/library/bignum.c:538:22
	adds	r6, r0, r3
.Ltmp403:
	@DEBUG_VALUE: mpi_write_hlp:p_end <- $r6
	.loc	1 540 5 is_stmt 1               @ ../../../ThirdParty/mbedTLS/library/bignum.c:540:5
	rsbs	r0, r3, #0
	str	r0, [sp, #20]                   @ 4-byte Spill
	movs	r5, #0
	mvns	r0, r5
	str	r0, [sp, #16]                   @ 4-byte Spill
	subs	r0, r0, #7
	str	r0, [sp, #4]                    @ 4-byte Spill
	str	r1, [sp, #12]                   @ 4-byte Spill
	b	.LBB22_3
.Ltmp404:
.LBB22_1:                               @   in Loop: Header=BB22_3 Depth=1
	@DEBUG_VALUE: mpi_write_hlp:p_end <- [DW_OP_plus_uconst 28] [$sp+0]
	@DEBUG_VALUE: mpi_write_hlp:r <- $r0
	@DEBUG_VALUE: mpi_write_hlp:p <- [DW_OP_plus_uconst 8] [$sp+0]
	.loc	1 555 26                        @ ../../../ThirdParty/mbedTLS/library/bignum.c:555:26
	adds	r0, #55
.Ltmp405:
.LBB22_2:                               @   in Loop: Header=BB22_3 Depth=1
	@DEBUG_VALUE: mpi_write_hlp:p_end <- [DW_OP_plus_uconst 28] [$sp+0]
	@DEBUG_VALUE: mpi_write_hlp:p <- [DW_OP_plus_uconst 8] [$sp+0]
	.loc	1 0 26 is_stmt 0                @ ../../../ThirdParty/mbedTLS/library/bignum.c:0:26
	ldr	r1, [sp, #16]                   @ 4-byte Reload
	ldr	r6, [sp, #28]                   @ 4-byte Reload
.Ltmp406:
	@DEBUG_VALUE: mpi_write_hlp:p_end <- $r6
	@DEBUG_VALUE: mpi_write_hlp:p_end <- $r6
	@DEBUG_VALUE: mpi_write_hlp:radix <- [DW_OP_LLVM_entry_value 1] $r1
	strb	r0, [r6, r1]
	adds	r6, r6, r1
.Ltmp407:
	@DEBUG_VALUE: mpi_write_hlp:p_end <- $r6
	mov	r4, r5
	ldr	r5, [sp, #24]                   @ 4-byte Reload
.Ltmp408:
	@DEBUG_VALUE: mpi_write_hlp:length <- [DW_OP_plus_uconst 1, DW_OP_stack_value] undef
	@DEBUG_VALUE: mpi_write_hlp:p_end <- $r6
	movs	r7, #0
.Ltmp409:
	.loc	1 558 14 is_stmt 1              @ ../../../ThirdParty/mbedTLS/library/bignum.c:558:14
	mov	r0, r4
	mov	r1, r7
	bl	mbedtls_mpi_cmp_int
.Ltmp410:
	.loc	1 558 5 is_stmt 0               @ ../../../ThirdParty/mbedTLS/library/bignum.c:558:5
	subs	r5, r5, #1
	ldr	r1, [sp, #12]                   @ 4-byte Reload
	cbz	r0, .LBB22_8
.Ltmp411:
.LBB22_3:                               @ =>This Inner Loop Header: Depth=1
	@DEBUG_VALUE: mpi_write_hlp:p_end <- $r6
	@DEBUG_VALUE: mpi_write_hlp:p <- [DW_OP_plus_uconst 8] [$sp+0]
	@DEBUG_VALUE: mpi_write_hlp:length <- undef
	@DEBUG_VALUE: mpi_write_hlp:p_end <- $r6
	.loc	1 542 13 is_stmt 1              @ ../../../ThirdParty/mbedTLS/library/bignum.c:542:13
	ldr	r0, [sp, #20]                   @ 4-byte Reload
	cmp	r0, r5
	beq	.LBB22_9
.Ltmp412:
@ %bb.4:                                @   in Loop: Header=BB22_3 Depth=1
	@DEBUG_VALUE: mpi_write_hlp:p_end <- $r6
	@DEBUG_VALUE: mpi_write_hlp:p <- [DW_OP_plus_uconst 8] [$sp+0]
	@DEBUG_VALUE: mpi_write_hlp:r <- [DW_OP_plus_uconst 32, DW_OP_deref] $sp
	.loc	1 0 13 is_stmt 0                @ ../../../ThirdParty/mbedTLS/library/bignum.c:0:13
	str	r6, [sp, #28]                   @ 4-byte Spill
.Ltmp413:
	@DEBUG_VALUE: mpi_write_hlp:p_end <- [DW_OP_plus_uconst 28] [$sp+0]
	@DEBUG_VALUE: mpi_write_hlp:p_end <- [DW_OP_plus_uconst 28] [$sp+0]
	add	r0, sp, #32
	mov	r6, r1
.Ltmp414:
	@DEBUG_VALUE: mpi_write_hlp:radix <- $r6
	.loc	1 547 9 is_stmt 1               @ ../../../ThirdParty/mbedTLS/library/bignum.c:547:9
	mov	r1, r4
	mov	r2, r6
	bl	mbedtls_mpi_mod_int
.Ltmp415:
	@DEBUG_VALUE: mpi_write_hlp:buflen <- [DW_OP_LLVM_entry_value 1] $r3
	@DEBUG_VALUE: mpi_write_hlp:ret <- $r0
	.loc	1 547 9 is_stmt 0               @ ../../../ThirdParty/mbedTLS/library/bignum.c:547:9
	cbnz	r0, .LBB22_10
.Ltmp416:
@ %bb.5:                                @   in Loop: Header=BB22_3 Depth=1
	@DEBUG_VALUE: mpi_write_hlp:p_end <- [DW_OP_plus_uconst 28] [$sp+0]
	@DEBUG_VALUE: mpi_write_hlp:ret <- $r0
	@DEBUG_VALUE: mpi_write_hlp:r <- [DW_OP_plus_uconst 32, DW_OP_deref] $sp
	@DEBUG_VALUE: mpi_write_hlp:p <- [DW_OP_plus_uconst 8] [$sp+0]
	.loc	1 0 9                           @ ../../../ThirdParty/mbedTLS/library/bignum.c:0:9
	str	r5, [sp, #24]                   @ 4-byte Spill
	movs	r1, #0
.Ltmp417:
	.loc	1 548 9 is_stmt 1               @ ../../../ThirdParty/mbedTLS/library/bignum.c:548:9
	mov	r0, r4
.Ltmp418:
	.loc	1 0 9 is_stmt 0                 @ ../../../ThirdParty/mbedTLS/library/bignum.c:0:9
	mov	r5, r4
	.loc	1 548 9                         @ ../../../ThirdParty/mbedTLS/library/bignum.c:548:9
	mov	r2, r4
	mov	r3, r6
	bl	mbedtls_mpi_div_int
.Ltmp419:
	@DEBUG_VALUE: mpi_write_hlp:ret <- $r0
	.loc	1 548 9                         @ ../../../ThirdParty/mbedTLS/library/bignum.c:548:9
	cbnz	r0, .LBB22_11
.Ltmp420:
@ %bb.6:                                @   in Loop: Header=BB22_3 Depth=1
	@DEBUG_VALUE: mpi_write_hlp:p_end <- [DW_OP_plus_uconst 28] [$sp+0]
	@DEBUG_VALUE: mpi_write_hlp:ret <- $r0
	@DEBUG_VALUE: mpi_write_hlp:r <- [DW_OP_plus_uconst 32, DW_OP_deref] $sp
	@DEBUG_VALUE: mpi_write_hlp:p <- [DW_OP_plus_uconst 8] [$sp+0]
	.loc	1 552 13 is_stmt 1              @ ../../../ThirdParty/mbedTLS/library/bignum.c:552:13
	ldr	r0, [sp, #32]
.Ltmp421:
	@DEBUG_VALUE: mpi_write_hlp:r <- $r0
	.loc	1 552 13 is_stmt 0              @ ../../../ThirdParty/mbedTLS/library/bignum.c:552:13
	cmp	r0, #9
	bhi	.LBB22_1
.Ltmp422:
@ %bb.7:                                @   in Loop: Header=BB22_3 Depth=1
	@DEBUG_VALUE: mpi_write_hlp:p_end <- [DW_OP_plus_uconst 28] [$sp+0]
	@DEBUG_VALUE: mpi_write_hlp:r <- $r0
	@DEBUG_VALUE: mpi_write_hlp:p <- [DW_OP_plus_uconst 8] [$sp+0]
	.loc	1 553 26 is_stmt 1              @ ../../../ThirdParty/mbedTLS/library/bignum.c:553:26
	adds	r0, #48
.Ltmp423:
	.loc	1 0 26 is_stmt 0                @ ../../../ThirdParty/mbedTLS/library/bignum.c:0:26
	b	.LBB22_2
.Ltmp424:
.LBB22_8:
	@DEBUG_VALUE: mpi_write_hlp:p_end <- $r6
	@DEBUG_VALUE: mpi_write_hlp:p <- [DW_OP_plus_uconst 8] [$sp+0]
	@DEBUG_VALUE: mpi_write_hlp:p_end <- $r6
	ldr	r4, [sp, #16]                   @ 4-byte Reload
	.loc	1 560 5 is_stmt 1               @ ../../../ThirdParty/mbedTLS/library/bignum.c:560:5
	muls	r4, r5, r4
	ldr	r5, [sp, #8]                    @ 4-byte Reload
	.loc	1 560 14 is_stmt 0              @ ../../../ThirdParty/mbedTLS/library/bignum.c:560:14
	ldr	r0, [r5]
	.loc	1 560 5                         @ ../../../ThirdParty/mbedTLS/library/bignum.c:560:5
	mov	r1, r6
	mov	r2, r4
	bl	__aeabi_memmove
	.loc	1 561 8 is_stmt 1               @ ../../../ThirdParty/mbedTLS/library/bignum.c:561:8
	ldr	r0, [r5]
	adds	r0, r0, r4
	str	r0, [r5]
	b	.LBB22_12
.Ltmp425:
.LBB22_9:
	@DEBUG_VALUE: mpi_write_hlp:p_end <- $r6
	@DEBUG_VALUE: mpi_write_hlp:p <- [DW_OP_plus_uconst 8] [$sp+0]
	.loc	1 0 0 is_stmt 0                 @ ../../../ThirdParty/mbedTLS/library/bignum.c:0:0
	ldr	r7, [sp, #4]                    @ 4-byte Reload
	b	.LBB22_12
.Ltmp426:
.LBB22_10:
	@DEBUG_VALUE: mpi_write_hlp:p_end <- [DW_OP_plus_uconst 28] [$sp+0]
	@DEBUG_VALUE: mpi_write_hlp:ret <- $r0
	@DEBUG_VALUE: mpi_write_hlp:r <- [DW_OP_plus_uconst 32, DW_OP_deref] $sp
	@DEBUG_VALUE: mpi_write_hlp:p <- [DW_OP_plus_uconst 8] [$sp+0]
	mov	r7, r0
.Ltmp427:
	@DEBUG_VALUE: mpi_write_hlp:ret <- $r7
	b	.LBB22_12
.Ltmp428:
.LBB22_11:
	@DEBUG_VALUE: mpi_write_hlp:p_end <- [DW_OP_plus_uconst 28] [$sp+0]
	@DEBUG_VALUE: mpi_write_hlp:ret <- $r0
	@DEBUG_VALUE: mpi_write_hlp:r <- [DW_OP_plus_uconst 32, DW_OP_deref] $sp
	@DEBUG_VALUE: mpi_write_hlp:p <- [DW_OP_plus_uconst 8] [$sp+0]
	mov	r7, r0
.Ltmp429:
	@DEBUG_VALUE: mpi_write_hlp:ret <- $r7
.LBB22_12:
	@DEBUG_VALUE: mpi_write_hlp:p <- [DW_OP_plus_uconst 8] [$sp+0]
	.loc	1 566 1 is_stmt 1               @ ../../../ThirdParty/mbedTLS/library/bignum.c:566:1
	mov	r0, r7
	add	sp, #36
.Ltmp430:
	pop	{r4, r5, r6, r7, pc}
.Ltmp431:
.Lfunc_end22:
	.size	mpi_write_hlp, .Lfunc_end22-mpi_write_hlp
	.cfi_endproc
	.cantunwind
	.fnend
                                        @ -- End function
	.section	.text.mbedtls_mpi_read_binary,"ax",%progbits
	.hidden	mbedtls_mpi_read_binary         @ -- Begin function mbedtls_mpi_read_binary
	.globl	mbedtls_mpi_read_binary
	.p2align	1
	.type	mbedtls_mpi_read_binary,%function
	.code	16                              @ @mbedtls_mpi_read_binary
	.thumb_func
mbedtls_mpi_read_binary:
.Lfunc_begin23:
	.loc	1 826 0                         @ ../../../ThirdParty/mbedTLS/library/bignum.c:826:0
	.fnstart
	.cfi_startproc
@ %bb.0:
	@DEBUG_VALUE: mbedtls_mpi_read_binary:X <- $r0
	@DEBUG_VALUE: mbedtls_mpi_read_binary:buf <- $r1
	@DEBUG_VALUE: mbedtls_mpi_read_binary:buflen <- $r2
	.save	{r4, r5, r6, r7, lr}
	push	{r4, r5, r6, r7, lr}
	.cfi_def_cfa_offset 20
	.cfi_offset lr, -4
	.cfi_offset r7, -8
	.cfi_offset r6, -12
	.cfi_offset r5, -16
	.cfi_offset r4, -20
	.pad	#4
	sub	sp, #4
	.cfi_def_cfa_offset 24
	mov	r6, r2
	str	r1, [sp]                        @ 4-byte Spill
	mov	r5, r0
.Ltmp432:
	@DEBUG_VALUE: mbedtls_mpi_read_binary:buflen <- $r6
	@DEBUG_VALUE: mbedtls_mpi_read_binary:buf <- [$sp+0]
	@DEBUG_VALUE: mbedtls_mpi_read_binary:X <- $r5
	.loc	1 828 29 prologue_end           @ ../../../ThirdParty/mbedTLS/library/bignum.c:828:29
	lsls	r0, r2, #30
	lsrs	r4, r2, #2
	cbz	r0, .LBB23_2
.Ltmp433:
@ %bb.1:
	@DEBUG_VALUE: mbedtls_mpi_read_binary:buflen <- $r6
	@DEBUG_VALUE: mbedtls_mpi_read_binary:X <- $r5
	@DEBUG_VALUE: mbedtls_mpi_read_binary:buf <- [$sp+0]
	.loc	1 0 29 is_stmt 0                @ ../../../ThirdParty/mbedTLS/library/bignum.c:0:29
	adds	r4, r4, #1
.Ltmp434:
.LBB23_2:
	@DEBUG_VALUE: mbedtls_mpi_read_binary:buflen <- $r6
	@DEBUG_VALUE: mbedtls_mpi_read_binary:X <- $r5
	@DEBUG_VALUE: mbedtls_mpi_read_binary:buf <- [$sp+0]
	@DEBUG_VALUE: mbedtls_mpi_read_binary:limbs <- $r4
	@DEBUG_VALUE: mbedtls_mpi_read_binary:overhead <- undef
	.loc	1 836 12 is_stmt 1              @ ../../../ThirdParty/mbedTLS/library/bignum.c:836:12
	ldr	r0, [r5, #4]
.Ltmp435:
	.loc	1 836 9 is_stmt 0               @ ../../../ThirdParty/mbedTLS/library/bignum.c:836:9
	cmp	r0, r4
	beq	.LBB23_5
.Ltmp436:
@ %bb.3:
	@DEBUG_VALUE: mbedtls_mpi_read_binary:buflen <- $r6
	@DEBUG_VALUE: mbedtls_mpi_read_binary:X <- $r5
	@DEBUG_VALUE: mbedtls_mpi_read_binary:limbs <- $r4
	@DEBUG_VALUE: mbedtls_mpi_read_binary:buf <- [$sp+0]
	.loc	1 838 9 is_stmt 1               @ ../../../ThirdParty/mbedTLS/library/bignum.c:838:9
	mov	r0, r5
	bl	mbedtls_mpi_free
	.loc	1 839 9                         @ ../../../ThirdParty/mbedTLS/library/bignum.c:839:9
	mov	r0, r5
	bl	mbedtls_mpi_init
.Ltmp437:
	.loc	1 840 9                         @ ../../../ThirdParty/mbedTLS/library/bignum.c:840:9
	mov	r0, r5
	mov	r1, r4
	bl	mbedtls_mpi_grow
.Ltmp438:
	@DEBUG_VALUE: mbedtls_mpi_read_binary:ret <- $r0
	.loc	1 840 9 is_stmt 0               @ ../../../ThirdParty/mbedTLS/library/bignum.c:840:9
	cbz	r0, .LBB23_5
.Ltmp439:
.LBB23_4:
	@DEBUG_VALUE: mbedtls_mpi_read_binary:buflen <- $r6
	@DEBUG_VALUE: mbedtls_mpi_read_binary:X <- $r5
	@DEBUG_VALUE: mbedtls_mpi_read_binary:limbs <- $r4
	@DEBUG_VALUE: mbedtls_mpi_read_binary:ret <- $r0
	@DEBUG_VALUE: mbedtls_mpi_read_binary:buf <- [$sp+0]
	@DEBUG_VALUE: mbedtls_mpi_read_binary:ret <- $r0
	@DEBUG_LABEL: mbedtls_mpi_read_binary:cleanup
	.loc	1 856 5 is_stmt 1               @ ../../../ThirdParty/mbedTLS/library/bignum.c:856:5
	add	sp, #4
.Ltmp440:
	pop	{r4, r5, r6, r7, pc}
.Ltmp441:
.LBB23_5:
	@DEBUG_VALUE: mbedtls_mpi_read_binary:buflen <- $r6
	@DEBUG_VALUE: mbedtls_mpi_read_binary:X <- $r5
	@DEBUG_VALUE: mbedtls_mpi_read_binary:limbs <- $r4
	@DEBUG_VALUE: mbedtls_mpi_read_binary:buf <- [$sp+0]
	@DEBUG_VALUE: mbedtls_mpi_read_binary:overhead <- undef
	.loc	1 0 5 is_stmt 0                 @ ../../../ThirdParty/mbedTLS/library/bignum.c:0:5
	movs	r7, #0
.Ltmp442:
	.loc	1 842 5 is_stmt 1               @ ../../../ThirdParty/mbedTLS/library/bignum.c:842:5
	mov	r0, r5
	mov	r1, r7
	bl	mbedtls_mpi_lset
.Ltmp443:
	@DEBUG_VALUE: mbedtls_mpi_read_binary:ret <- $r0
	.loc	1 842 5 is_stmt 0               @ ../../../ThirdParty/mbedTLS/library/bignum.c:842:5
	ldr	r1, [sp]                        @ 4-byte Reload
	cmp	r1, #0
	beq	.LBB23_4
.Ltmp444:
@ %bb.6:
	@DEBUG_VALUE: mbedtls_mpi_read_binary:buflen <- $r6
	@DEBUG_VALUE: mbedtls_mpi_read_binary:X <- $r5
	@DEBUG_VALUE: mbedtls_mpi_read_binary:limbs <- $r4
	@DEBUG_VALUE: mbedtls_mpi_read_binary:ret <- $r0
	@DEBUG_VALUE: mbedtls_mpi_read_binary:buf <- [$sp+0]
	@DEBUG_VALUE: mbedtls_mpi_read_binary:overhead <- undef
	cmp	r0, #0
	bne	.LBB23_4
.Ltmp445:
@ %bb.7:
	@DEBUG_VALUE: mbedtls_mpi_read_binary:buflen <- $r6
	@DEBUG_VALUE: mbedtls_mpi_read_binary:X <- $r5
	@DEBUG_VALUE: mbedtls_mpi_read_binary:limbs <- $r4
	@DEBUG_VALUE: mbedtls_mpi_read_binary:ret <- $r0
	@DEBUG_VALUE: mbedtls_mpi_read_binary:buf <- [$sp+0]
	.loc	1 0 0                           @ ../../../ThirdParty/mbedTLS/library/bignum.c:0:0
	lsls	r0, r4, #2
.Ltmp446:
	subs	r0, r0, r6
.Ltmp447:
	@DEBUG_VALUE: mbedtls_mpi_read_binary:overhead <- $r0
	.loc	1 848 34 is_stmt 1              @ ../../../ThirdParty/mbedTLS/library/bignum.c:848:34
	ldr	r1, [r5, #8]
.Ltmp448:
	@DEBUG_VALUE: mbedtls_mpi_read_binary:Xp <- $r1
	.loc	1 849 20                        @ ../../../ThirdParty/mbedTLS/library/bignum.c:849:20
	adds	r0, r1, r0
.Ltmp449:
	.loc	1 849 9 is_stmt 0               @ ../../../ThirdParty/mbedTLS/library/bignum.c:849:9
	ldr	r1, [sp]                        @ 4-byte Reload
.Ltmp450:
	mov	r2, r6
	bl	__aeabi_memcpy
	.loc	1 851 35 is_stmt 1              @ ../../../ThirdParty/mbedTLS/library/bignum.c:851:35
	ldr	r0, [r5, #8]
	.loc	1 851 9 is_stmt 0               @ ../../../ThirdParty/mbedTLS/library/bignum.c:851:9
	mov	r1, r4
	bl	mpi_bigendian_to_host
.Ltmp451:
	.loc	1 0 0                           @ ../../../ThirdParty/mbedTLS/library/bignum.c:0:0
	mov	r0, r7
.Ltmp452:
	@DEBUG_VALUE: mbedtls_mpi_read_binary:ret <- $r0
	@DEBUG_LABEL: mbedtls_mpi_read_binary:cleanup
	.loc	1 856 5 is_stmt 1               @ ../../../ThirdParty/mbedTLS/library/bignum.c:856:5
	add	sp, #4
.Ltmp453:
	pop	{r4, r5, r6, r7, pc}
.Ltmp454:
.Lfunc_end23:
	.size	mbedtls_mpi_read_binary, .Lfunc_end23-mbedtls_mpi_read_binary
	.cfi_endproc
	.cantunwind
	.fnend
                                        @ -- End function
	.section	.text.mpi_bigendian_to_host,"ax",%progbits
	.p2align	1                               @ -- Begin function mpi_bigendian_to_host
	.type	mpi_bigendian_to_host,%function
	.code	16                              @ @mpi_bigendian_to_host
	.thumb_func
mpi_bigendian_to_host:
.Lfunc_begin24:
	.loc	1 794 0                         @ ../../../ThirdParty/mbedTLS/library/bignum.c:794:0
	.fnstart
	.cfi_startproc
@ %bb.0:
	@DEBUG_VALUE: mpi_bigendian_to_host:p <- $r0
	@DEBUG_VALUE: mpi_bigendian_to_host:limbs <- $r1
	@DEBUG_VALUE: mpi_bigendian_to_host:limbs <- $r1
	@DEBUG_VALUE: mpi_bigendian_to_host:p <- $r0
	.save	{r4, r5, r6, lr}
	push	{r4, r5, r6, lr}
	.cfi_def_cfa_offset 16
	.cfi_offset lr, -4
	.cfi_offset r6, -8
	.cfi_offset r5, -12
	.cfi_offset r4, -16
.Ltmp455:
	.loc	1 797 9 prologue_end            @ ../../../ThirdParty/mbedTLS/library/bignum.c:797:9
	cbz	r1, .LBB24_4
.Ltmp456:
@ %bb.1:
	@DEBUG_VALUE: mpi_bigendian_to_host:limbs <- $r1
	@DEBUG_VALUE: mpi_bigendian_to_host:p <- $r0
	.loc	1 0 9 is_stmt 0                 @ ../../../ThirdParty/mbedTLS/library/bignum.c:0:9
	mov	r4, r0
.Ltmp457:
	@DEBUG_VALUE: mpi_bigendian_to_host:p <- $r4
	@DEBUG_VALUE: mpi_bigendian_to_host:cur_limb_left <- $r4
	.loc	1 809 58 is_stmt 1              @ ../../../ThirdParty/mbedTLS/library/bignum.c:809:58
	subs	r0, r1, #1
.Ltmp458:
	@DEBUG_VALUE: mpi_bigendian_to_host:cur_limb_right <- undef
	.loc	1 809 5 is_stmt 0               @ ../../../ThirdParty/mbedTLS/library/bignum.c:809:5
	bmi	.LBB24_4
.Ltmp459:
@ %bb.2:
	@DEBUG_VALUE: mpi_bigendian_to_host:cur_limb_left <- $r4
	@DEBUG_VALUE: mpi_bigendian_to_host:p <- $r4
	@DEBUG_VALUE: mpi_bigendian_to_host:limbs <- $r1
	@DEBUG_VALUE: mpi_bigendian_to_host:cur_limb_right <- undef
	lsls	r0, r1, #2
	adds	r6, r0, r4
	subs	r6, #8
.Ltmp460:
.LBB24_3:                               @ =>This Inner Loop Header: Depth=1
	@DEBUG_VALUE: mpi_bigendian_to_host:cur_limb_left <- $r4
	@DEBUG_VALUE: mpi_bigendian_to_host:cur_limb_left <- $r4
	@DEBUG_VALUE: mpi_bigendian_to_host:cur_limb_right <- undef
	.loc	1 816 55 is_stmt 1              @ ../../../ThirdParty/mbedTLS/library/bignum.c:816:55
	ldr	r0, [r4]
	.loc	1 816 27 is_stmt 0              @ ../../../ThirdParty/mbedTLS/library/bignum.c:816:27
	bl	mpi_uint_bigendian_to_host
.Ltmp461:
	@DEBUG_VALUE: mpi_bigendian_to_host:limbs <- [DW_OP_LLVM_entry_value 1] $r1
	mov	r5, r0
.Ltmp462:
	@DEBUG_VALUE: tmp <- $r5
	.loc	1 817 55 is_stmt 1              @ ../../../ThirdParty/mbedTLS/library/bignum.c:817:55
	ldr	r0, [r6, #4]
	.loc	1 817 27 is_stmt 0              @ ../../../ThirdParty/mbedTLS/library/bignum.c:817:27
	bl	mpi_uint_bigendian_to_host
	.loc	1 817 25                        @ ../../../ThirdParty/mbedTLS/library/bignum.c:817:25
	stm	r4!, {r0}
.Ltmp463:
	@DEBUG_VALUE: mpi_bigendian_to_host:p <- [DW_OP_LLVM_entry_value 1] $r0
	.loc	1 818 25 is_stmt 1              @ ../../../ThirdParty/mbedTLS/library/bignum.c:818:25
	str	r5, [r6, #4]
.Ltmp464:
	@DEBUG_VALUE: mpi_bigendian_to_host:cur_limb_right <- [DW_OP_constu 4, DW_OP_minus, DW_OP_stack_value] undef
	@DEBUG_VALUE: mpi_bigendian_to_host:cur_limb_left <- $r4
	.loc	1 810 27                        @ ../../../ThirdParty/mbedTLS/library/bignum.c:810:27
	subs	r0, r6, #4
.Ltmp465:
	.loc	1 809 5                         @ ../../../ThirdParty/mbedTLS/library/bignum.c:809:5
	cmp	r4, r6
	mov	r6, r0
	bls	.LBB24_3
.Ltmp466:
.LBB24_4:
	.loc	1 820 1                         @ ../../../ThirdParty/mbedTLS/library/bignum.c:820:1
	pop	{r4, r5, r6, pc}
.Ltmp467:
.Lfunc_end24:
	.size	mpi_bigendian_to_host, .Lfunc_end24-mpi_bigendian_to_host
	.cfi_endproc
	.cantunwind
	.fnend
                                        @ -- End function
	.section	.text.mbedtls_mpi_write_binary,"ax",%progbits
	.hidden	mbedtls_mpi_write_binary        @ -- Begin function mbedtls_mpi_write_binary
	.globl	mbedtls_mpi_write_binary
	.p2align	1
	.type	mbedtls_mpi_write_binary,%function
	.code	16                              @ @mbedtls_mpi_write_binary
	.thumb_func
mbedtls_mpi_write_binary:
.Lfunc_begin25:
	.loc	1 864 0                         @ ../../../ThirdParty/mbedTLS/library/bignum.c:864:0
	.fnstart
	.cfi_startproc
@ %bb.0:
	@DEBUG_VALUE: mbedtls_mpi_write_binary:X <- $r0
	@DEBUG_VALUE: mbedtls_mpi_write_binary:buf <- $r1
	@DEBUG_VALUE: mbedtls_mpi_write_binary:buflen <- $r2
	.save	{r4, r5, r6, r7, lr}
	push	{r4, r5, r6, r7, lr}
	.cfi_def_cfa_offset 20
	.cfi_offset lr, -4
	.cfi_offset r7, -8
	.cfi_offset r6, -12
	.cfi_offset r5, -16
	.cfi_offset r4, -20
	.pad	#20
	sub	sp, #20
	.cfi_def_cfa_offset 40
	mov	r6, r2
	mov	r5, r1
	mov	r4, r0
.Ltmp468:
	@DEBUG_VALUE: mbedtls_mpi_write_binary:buflen <- $r6
	@DEBUG_VALUE: mbedtls_mpi_write_binary:buf <- $r5
	@DEBUG_VALUE: mbedtls_mpi_write_binary:X <- $r4
	.loc	1 873 23 prologue_end           @ ../../../ThirdParty/mbedTLS/library/bignum.c:873:23
	ldr	r0, [r0, #4]
	.loc	1 873 25 is_stmt 0              @ ../../../ThirdParty/mbedTLS/library/bignum.c:873:25
	lsls	r7, r0, #2
.Ltmp469:
	@DEBUG_VALUE: mbedtls_mpi_write_binary:stored_bytes <- $r7
	.loc	1 875 9 is_stmt 1               @ ../../../ThirdParty/mbedTLS/library/bignum.c:875:9
	cmp	r2, r7
	bls	.LBB25_2
.Ltmp470:
@ %bb.1:
	@DEBUG_VALUE: mbedtls_mpi_write_binary:stored_bytes <- $r7
	@DEBUG_VALUE: mbedtls_mpi_write_binary:buflen <- $r6
	@DEBUG_VALUE: mbedtls_mpi_write_binary:buf <- $r5
	@DEBUG_VALUE: mbedtls_mpi_write_binary:X <- $r4
	@DEBUG_VALUE: mbedtls_mpi_write_binary:bytes_to_copy <- $r7
	.loc	1 884 32                        @ ../../../ThirdParty/mbedTLS/library/bignum.c:884:32
	subs	r1, r6, r7
	.loc	1 884 9 is_stmt 0               @ ../../../ThirdParty/mbedTLS/library/bignum.c:884:9
	mov	r0, r5
	bl	__aeabi_memclr
	.loc	1 883 17 is_stmt 1              @ ../../../ThirdParty/mbedTLS/library/bignum.c:883:17
	adds	r0, r5, r6
	.loc	1 883 26 is_stmt 0              @ ../../../ThirdParty/mbedTLS/library/bignum.c:883:26
	subs	r5, r0, r7
.Ltmp471:
	@DEBUG_VALUE: mbedtls_mpi_write_binary:p <- $r5
	@DEBUG_VALUE: mbedtls_mpi_write_binary:i <- 0
	@DEBUG_VALUE: mbedtls_mpi_write_binary:bytes_to_copy <- $r7
	@DEBUG_VALUE: mbedtls_mpi_write_binary:p <- $r5
	.loc	1 0 26                          @ ../../../ThirdParty/mbedTLS/library/bignum.c:0:26
	cbnz	r7, .LBB25_9
	b	.LBB25_7
.Ltmp472:
.LBB25_2:
	@DEBUG_VALUE: mbedtls_mpi_write_binary:stored_bytes <- $r7
	@DEBUG_VALUE: mbedtls_mpi_write_binary:buflen <- $r6
	@DEBUG_VALUE: mbedtls_mpi_write_binary:buf <- $r5
	@DEBUG_VALUE: mbedtls_mpi_write_binary:X <- $r4
	@DEBUG_VALUE: mbedtls_mpi_write_binary:i <- $r6
	.loc	1 892 9 is_stmt 1               @ ../../../ThirdParty/mbedTLS/library/bignum.c:892:9
	cmp	r7, r6
	bls	.LBB25_8
.Ltmp473:
@ %bb.3:
	@DEBUG_VALUE: mbedtls_mpi_write_binary:stored_bytes <- $r7
	@DEBUG_VALUE: mbedtls_mpi_write_binary:i <- $r6
	@DEBUG_VALUE: mbedtls_mpi_write_binary:buflen <- $r6
	@DEBUG_VALUE: mbedtls_mpi_write_binary:buf <- $r5
	@DEBUG_VALUE: mbedtls_mpi_write_binary:X <- $r4
	.loc	1 0 9 is_stmt 0                 @ ../../../ThirdParty/mbedTLS/library/bignum.c:0:9
	str	r5, [sp, #12]                   @ 4-byte Spill
.Ltmp474:
	@DEBUG_VALUE: mbedtls_mpi_write_binary:buf <- [DW_OP_plus_uconst 12] [$sp+0]
	.loc	1 892 9                         @ ../../../ThirdParty/mbedTLS/library/bignum.c:892:9
	lsls	r0, r6, #3
	str	r4, [sp, #4]                    @ 4-byte Spill
.Ltmp475:
	@DEBUG_VALUE: mbedtls_mpi_write_binary:X <- [DW_OP_plus_uconst 4] [$sp+0]
	.loc	1 0 0                           @ ../../../ThirdParty/mbedTLS/library/bignum.c:0:0
	ldr	r1, [r4, #8]
	str	r1, [sp, #16]                   @ 4-byte Spill
	movs	r2, #24
	movs	r3, #3
	str	r6, [sp, #8]                    @ 4-byte Spill
.Ltmp476:
	@DEBUG_VALUE: mbedtls_mpi_write_binary:buflen <- [DW_OP_plus_uconst 8] [$sp+0]
	mov	r1, r6
	ldr	r4, [sp, #16]                   @ 4-byte Reload
.Ltmp477:
.LBB25_4:                               @ =>This Inner Loop Header: Depth=1
	@DEBUG_VALUE: mbedtls_mpi_write_binary:buflen <- [DW_OP_plus_uconst 8] [$sp+0]
	@DEBUG_VALUE: mbedtls_mpi_write_binary:X <- [DW_OP_plus_uconst 4] [$sp+0]
	@DEBUG_VALUE: mbedtls_mpi_write_binary:buf <- [DW_OP_plus_uconst 12] [$sp+0]
	@DEBUG_VALUE: mbedtls_mpi_write_binary:stored_bytes <- $r7
	@DEBUG_VALUE: mbedtls_mpi_write_binary:i <- $r1
	.loc	1 894 17 is_stmt 1              @ ../../../ThirdParty/mbedTLS/library/bignum.c:894:17
	mov	r5, r0
	ands	r5, r2
	mov	r6, r1
	bics	r6, r3
	ldr	r6, [r4, r6]
.Ltmp478:
	.loc	1 894 17 is_stmt 0              @ ../../../ThirdParty/mbedTLS/library/bignum.c:894:17
	lsrs	r6, r5
	lsls	r5, r6, #24
.Ltmp479:
	@DEBUG_VALUE: mbedtls_mpi_write_binary:i <- undef
	bne	.LBB25_12
.Ltmp480:
@ %bb.5:                                @   in Loop: Header=BB25_4 Depth=1
	@DEBUG_VALUE: mbedtls_mpi_write_binary:buflen <- [DW_OP_plus_uconst 8] [$sp+0]
	@DEBUG_VALUE: mbedtls_mpi_write_binary:X <- [DW_OP_plus_uconst 4] [$sp+0]
	@DEBUG_VALUE: mbedtls_mpi_write_binary:buf <- [DW_OP_plus_uconst 12] [$sp+0]
	@DEBUG_VALUE: mbedtls_mpi_write_binary:stored_bytes <- $r7
	.loc	1 0 0                           @ ../../../ThirdParty/mbedTLS/library/bignum.c:0:0
	adds	r1, r1, #1
.Ltmp481:
	@DEBUG_VALUE: mbedtls_mpi_write_binary:i <- $r1
	.loc	1 892 35 is_stmt 1              @ ../../../ThirdParty/mbedTLS/library/bignum.c:892:35
	adds	r0, #8
.Ltmp482:
	.loc	1 892 9 is_stmt 0               @ ../../../ThirdParty/mbedTLS/library/bignum.c:892:9
	cmp	r7, r1
	bne	.LBB25_4
.Ltmp483:
@ %bb.6:
	@DEBUG_VALUE: mbedtls_mpi_write_binary:buflen <- [DW_OP_plus_uconst 8] [$sp+0]
	@DEBUG_VALUE: mbedtls_mpi_write_binary:X <- [DW_OP_plus_uconst 4] [$sp+0]
	@DEBUG_VALUE: mbedtls_mpi_write_binary:buf <- [DW_OP_plus_uconst 12] [$sp+0]
	@DEBUG_VALUE: mbedtls_mpi_write_binary:stored_bytes <- $r7
	@DEBUG_VALUE: mbedtls_mpi_write_binary:i <- $r1
	.loc	1 0 0                           @ ../../../ThirdParty/mbedTLS/library/bignum.c:0:0
	ldr	r7, [sp, #8]                    @ 4-byte Reload
.Ltmp484:
	@DEBUG_VALUE: mbedtls_mpi_write_binary:buflen <- $r7
	ldr	r5, [sp, #12]                   @ 4-byte Reload
.Ltmp485:
	@DEBUG_VALUE: mbedtls_mpi_write_binary:buf <- $r5
	ldr	r4, [sp, #4]                    @ 4-byte Reload
.Ltmp486:
	@DEBUG_VALUE: mbedtls_mpi_write_binary:X <- $r4
	@DEBUG_VALUE: mbedtls_mpi_write_binary:i <- 0
	@DEBUG_VALUE: mbedtls_mpi_write_binary:bytes_to_copy <- $r7
	@DEBUG_VALUE: mbedtls_mpi_write_binary:p <- $r5
	.loc	1 899 5 is_stmt 1               @ ../../../ThirdParty/mbedTLS/library/bignum.c:899:5
	cbnz	r7, .LBB25_9
.Ltmp487:
.LBB25_7:
	@DEBUG_VALUE: mbedtls_mpi_write_binary:bytes_to_copy <- $r7
	@DEBUG_VALUE: mbedtls_mpi_write_binary:p <- $r5
	@DEBUG_VALUE: mbedtls_mpi_write_binary:X <- $r4
	@DEBUG_VALUE: mbedtls_mpi_write_binary:i <- 0
	.loc	1 0 5 is_stmt 0                 @ ../../../ThirdParty/mbedTLS/library/bignum.c:0:5
	movs	r0, #0
	.loc	1 903 1 is_stmt 1               @ ../../../ThirdParty/mbedTLS/library/bignum.c:903:1
	add	sp, #20
	pop	{r4, r5, r6, r7, pc}
.Ltmp488:
.LBB25_8:
	@DEBUG_VALUE: mbedtls_mpi_write_binary:stored_bytes <- $r7
	@DEBUG_VALUE: mbedtls_mpi_write_binary:i <- $r6
	@DEBUG_VALUE: mbedtls_mpi_write_binary:buflen <- $r6
	@DEBUG_VALUE: mbedtls_mpi_write_binary:buf <- $r5
	@DEBUG_VALUE: mbedtls_mpi_write_binary:X <- $r4
	.loc	1 0 0 is_stmt 0                 @ ../../../ThirdParty/mbedTLS/library/bignum.c:0:0
	mov	r7, r6
.Ltmp489:
	@DEBUG_VALUE: mbedtls_mpi_write_binary:buflen <- $r7
	@DEBUG_VALUE: mbedtls_mpi_write_binary:i <- 0
	@DEBUG_VALUE: mbedtls_mpi_write_binary:bytes_to_copy <- $r7
	@DEBUG_VALUE: mbedtls_mpi_write_binary:p <- $r5
	.loc	1 899 5 is_stmt 1               @ ../../../ThirdParty/mbedTLS/library/bignum.c:899:5
	cmp	r7, #0
	beq	.LBB25_7
.Ltmp490:
.LBB25_9:
	@DEBUG_VALUE: mbedtls_mpi_write_binary:bytes_to_copy <- $r7
	@DEBUG_VALUE: mbedtls_mpi_write_binary:p <- $r5
	@DEBUG_VALUE: mbedtls_mpi_write_binary:X <- $r4
	@DEBUG_VALUE: mbedtls_mpi_write_binary:i <- 0
	subs	r5, #8
.Ltmp491:
	adds	r0, r5, #7
	str	r0, [sp, #16]                   @ 4-byte Spill
	movs	r6, #0
	movs	r0, #24
	str	r0, [sp, #12]                   @ 4-byte Spill
	movs	r3, #3
	mov	r5, r6
	str	r6, [sp, #8]                    @ 4-byte Spill
	mov	r2, r4
.Ltmp492:
.LBB25_10:                              @ =>This Inner Loop Header: Depth=1
	@DEBUG_VALUE: mbedtls_mpi_write_binary:i <- $r6
	.loc	1 900 36                        @ ../../../ThirdParty/mbedTLS/library/bignum.c:900:36
	mov	r4, r5
	ldr	r0, [sp, #12]                   @ 4-byte Reload
	ands	r4, r0
	.loc	1 899 37                        @ ../../../ThirdParty/mbedTLS/library/bignum.c:899:37
	adds	r1, r6, #1
	.loc	1 900 36                        @ ../../../ThirdParty/mbedTLS/library/bignum.c:900:36
	bics	r6, r3
.Ltmp493:
	ldr	r0, [r2, #8]
	ldr	r0, [r0, r6]
	lsrs	r0, r4
	.loc	1 900 34 is_stmt 0              @ ../../../ThirdParty/mbedTLS/library/bignum.c:900:34
	ldr	r4, [sp, #16]                   @ 4-byte Reload
	strb	r0, [r4, r7]
	.loc	1 899 19 is_stmt 1              @ ../../../ThirdParty/mbedTLS/library/bignum.c:899:19
	adds	r5, #8
	subs	r7, r7, #1
.Ltmp494:
	@DEBUG_VALUE: mbedtls_mpi_write_binary:i <- $r1
	.loc	1 899 5 is_stmt 0               @ ../../../ThirdParty/mbedTLS/library/bignum.c:899:5
	cmp	r7, #0
	mov	r6, r1
.Ltmp495:
	@DEBUG_VALUE: mbedtls_mpi_write_binary:i <- $r6
	@DEBUG_VALUE: mbedtls_mpi_write_binary:i <- $r6
	@DEBUG_VALUE: mbedtls_mpi_write_binary:i <- $r6
	bne	.LBB25_10
.Ltmp496:
@ %bb.11:
	@DEBUG_VALUE: mbedtls_mpi_write_binary:i <- $r6
	.loc	1 0 5                           @ ../../../ThirdParty/mbedTLS/library/bignum.c:0:5
	ldr	r0, [sp, #8]                    @ 4-byte Reload
	.loc	1 903 1 is_stmt 1               @ ../../../ThirdParty/mbedTLS/library/bignum.c:903:1
	add	sp, #20
	pop	{r4, r5, r6, r7, pc}
.Ltmp497:
.LBB25_12:
	@DEBUG_VALUE: mbedtls_mpi_write_binary:buflen <- [DW_OP_plus_uconst 8] [$sp+0]
	@DEBUG_VALUE: mbedtls_mpi_write_binary:X <- [DW_OP_plus_uconst 4] [$sp+0]
	@DEBUG_VALUE: mbedtls_mpi_write_binary:buf <- [DW_OP_plus_uconst 12] [$sp+0]
	@DEBUG_VALUE: mbedtls_mpi_write_binary:stored_bytes <- $r7
	.loc	1 0 1 is_stmt 0                 @ ../../../ThirdParty/mbedTLS/library/bignum.c:0:1
	movs	r0, #7
	mvns	r0, r0
	.loc	1 903 1                         @ ../../../ThirdParty/mbedTLS/library/bignum.c:903:1
	add	sp, #20
.Ltmp498:
	pop	{r4, r5, r6, r7, pc}
.Ltmp499:
.Lfunc_end25:
	.size	mbedtls_mpi_write_binary, .Lfunc_end25-mbedtls_mpi_write_binary
	.cfi_endproc
	.cantunwind
	.fnend
                                        @ -- End function
	.section	.text.mbedtls_mpi_shift_l,"ax",%progbits
	.hidden	mbedtls_mpi_shift_l             @ -- Begin function mbedtls_mpi_shift_l
	.globl	mbedtls_mpi_shift_l
	.p2align	1
	.type	mbedtls_mpi_shift_l,%function
	.code	16                              @ @mbedtls_mpi_shift_l
	.thumb_func
mbedtls_mpi_shift_l:
.Lfunc_begin26:
	.loc	1 909 0 is_stmt 1               @ ../../../ThirdParty/mbedTLS/library/bignum.c:909:0
	.fnstart
	.cfi_startproc
@ %bb.0:
	@DEBUG_VALUE: mbedtls_mpi_shift_l:X <- $r0
	@DEBUG_VALUE: mbedtls_mpi_shift_l:count <- $r1
	.save	{r4, r5, r6, r7, lr}
	push	{r4, r5, r6, r7, lr}
	.cfi_def_cfa_offset 20
	.cfi_offset lr, -4
	.cfi_offset r7, -8
	.cfi_offset r6, -12
	.cfi_offset r5, -16
	.cfi_offset r4, -20
	.pad	#4
	sub	sp, #4
	.cfi_def_cfa_offset 24
	mov	r5, r1
	mov	r4, r0
.Ltmp500:
	@DEBUG_VALUE: mbedtls_mpi_shift_l:t1 <- undef
	@DEBUG_VALUE: mbedtls_mpi_shift_l:r0 <- 0
	@DEBUG_VALUE: mbedtls_mpi_shift_l:count <- $r5
	@DEBUG_VALUE: mbedtls_mpi_shift_l:X <- $r4
	.loc	1 918 9 prologue_end            @ ../../../ThirdParty/mbedTLS/library/bignum.c:918:9
	bl	mbedtls_mpi_bitlen
	.loc	1 918 33 is_stmt 0              @ ../../../ThirdParty/mbedTLS/library/bignum.c:918:33
	adds	r0, r0, r5
.Ltmp501:
	@DEBUG_VALUE: mbedtls_mpi_shift_l:v0 <- undef
	@DEBUG_VALUE: mbedtls_mpi_shift_l:i <- $r0
	.loc	1 920 12 is_stmt 1              @ ../../../ThirdParty/mbedTLS/library/bignum.c:920:12
	ldr	r1, [r4, #4]
	.loc	1 920 14 is_stmt 0              @ ../../../ThirdParty/mbedTLS/library/bignum.c:920:14
	lsls	r1, r1, #5
.Ltmp502:
	.loc	1 920 9                         @ ../../../ThirdParty/mbedTLS/library/bignum.c:920:9
	cmp	r0, r1
	bls	.LBB26_5
.Ltmp503:
@ %bb.1:
	@DEBUG_VALUE: mbedtls_mpi_shift_l:count <- $r5
	@DEBUG_VALUE: mbedtls_mpi_shift_l:X <- $r4
	@DEBUG_VALUE: mbedtls_mpi_shift_l:i <- $r0
	@DEBUG_VALUE: mbedtls_mpi_shift_l:r0 <- 0
	.loc	1 921 9 is_stmt 1               @ ../../../ThirdParty/mbedTLS/library/bignum.c:921:9
	lsls	r2, r0, #27
	lsrs	r1, r0, #5
	cbz	r2, .LBB26_3
.Ltmp504:
@ %bb.2:
	@DEBUG_VALUE: mbedtls_mpi_shift_l:count <- $r5
	@DEBUG_VALUE: mbedtls_mpi_shift_l:X <- $r4
	@DEBUG_VALUE: mbedtls_mpi_shift_l:i <- $r0
	@DEBUG_VALUE: mbedtls_mpi_shift_l:r0 <- 0
	.loc	1 0 9 is_stmt 0                 @ ../../../ThirdParty/mbedTLS/library/bignum.c:0:9
	adds	r1, r1, #1
.Ltmp505:
.LBB26_3:
	@DEBUG_VALUE: mbedtls_mpi_shift_l:count <- $r5
	@DEBUG_VALUE: mbedtls_mpi_shift_l:X <- $r4
	@DEBUG_VALUE: mbedtls_mpi_shift_l:i <- $r0
	@DEBUG_VALUE: mbedtls_mpi_shift_l:r0 <- 0
	.loc	1 921 9                         @ ../../../ThirdParty/mbedTLS/library/bignum.c:921:9
	mov	r0, r4
.Ltmp506:
	bl	mbedtls_mpi_grow
.Ltmp507:
	@DEBUG_VALUE: mbedtls_mpi_shift_l:ret <- $r0
	.loc	1 921 9                         @ ../../../ThirdParty/mbedTLS/library/bignum.c:921:9
	cbz	r0, .LBB26_5
.Ltmp508:
.LBB26_4:
	@DEBUG_VALUE: mbedtls_mpi_shift_l:X <- $r4
	@DEBUG_VALUE: mbedtls_mpi_shift_l:r0 <- 0
	@DEBUG_VALUE: mbedtls_mpi_shift_l:ret <- $r0
	@DEBUG_LABEL: mbedtls_mpi_shift_l:cleanup
	.loc	1 953 5 is_stmt 1               @ ../../../ThirdParty/mbedTLS/library/bignum.c:953:5
	add	sp, #4
	pop	{r4, r5, r6, r7, pc}
.Ltmp509:
.LBB26_5:
	@DEBUG_VALUE: mbedtls_mpi_shift_l:count <- $r5
	@DEBUG_VALUE: mbedtls_mpi_shift_l:X <- $r4
	@DEBUG_VALUE: mbedtls_mpi_shift_l:r0 <- 0
	.loc	1 0 5 is_stmt 0                 @ ../../../ThirdParty/mbedTLS/library/bignum.c:0:5
	movs	r6, #31
	ands	r6, r5
.Ltmp510:
	@DEBUG_VALUE: mbedtls_mpi_shift_l:t1 <- $r6
	lsrs	r5, r5, #5
.Ltmp511:
	@DEBUG_VALUE: mbedtls_mpi_shift_l:ret <- 0
	@DEBUG_VALUE: mbedtls_mpi_shift_l:v0 <- $r5
	.loc	1 928 9 is_stmt 1               @ ../../../ThirdParty/mbedTLS/library/bignum.c:928:9
	beq	.LBB26_11
.Ltmp512:
@ %bb.6:
	@DEBUG_VALUE: mbedtls_mpi_shift_l:t1 <- $r6
	@DEBUG_VALUE: mbedtls_mpi_shift_l:v0 <- $r5
	@DEBUG_VALUE: mbedtls_mpi_shift_l:X <- $r4
	@DEBUG_VALUE: mbedtls_mpi_shift_l:ret <- 0
	@DEBUG_VALUE: mbedtls_mpi_shift_l:r0 <- 0
	.loc	1 930 21                        @ ../../../ThirdParty/mbedTLS/library/bignum.c:930:21
	ldr	r1, [r4, #4]
.Ltmp513:
	@DEBUG_VALUE: mbedtls_mpi_shift_l:i <- $r1
	.loc	1 930 9 is_stmt 0               @ ../../../ThirdParty/mbedTLS/library/bignum.c:930:9
	cmp	r1, r5
	bls	.LBB26_9
.Ltmp514:
@ %bb.7:
	@DEBUG_VALUE: mbedtls_mpi_shift_l:t1 <- $r6
	@DEBUG_VALUE: mbedtls_mpi_shift_l:v0 <- $r5
	@DEBUG_VALUE: mbedtls_mpi_shift_l:X <- $r4
	@DEBUG_VALUE: mbedtls_mpi_shift_l:i <- $r1
	@DEBUG_VALUE: mbedtls_mpi_shift_l:ret <- 0
	@DEBUG_VALUE: mbedtls_mpi_shift_l:r0 <- 0
	.loc	1 0 9                           @ ../../../ThirdParty/mbedTLS/library/bignum.c:0:9
	movs	r0, #3
	mvns	r0, r0
.Ltmp515:
	ldr	r2, [r4, #8]
.Ltmp516:
	.loc	1 930 9                         @ ../../../ThirdParty/mbedTLS/library/bignum.c:930:9
	lsls	r3, r1, #2
	adds	r2, r3, r2
	subs	r2, r2, #4
	lsls	r3, r0, #2
	muls	r0, r5, r0
.Ltmp517:
.LBB26_8:                               @ =>This Inner Loop Header: Depth=1
	@DEBUG_VALUE: mbedtls_mpi_shift_l:t1 <- $r6
	@DEBUG_VALUE: mbedtls_mpi_shift_l:v0 <- $r5
	@DEBUG_VALUE: mbedtls_mpi_shift_l:X <- $r4
	@DEBUG_VALUE: mbedtls_mpi_shift_l:ret <- 0
	@DEBUG_VALUE: mbedtls_mpi_shift_l:r0 <- 0
	@DEBUG_VALUE: mbedtls_mpi_shift_l:i <- $r1
	.loc	1 931 27 is_stmt 1              @ ../../../ThirdParty/mbedTLS/library/bignum.c:931:27
	ldr	r7, [r2, r0]
	.loc	1 931 25 is_stmt 0              @ ../../../ThirdParty/mbedTLS/library/bignum.c:931:25
	str	r7, [r2]
	.loc	1 930 26 is_stmt 1              @ ../../../ThirdParty/mbedTLS/library/bignum.c:930:26
	adds	r2, r3, r2
	adds	r2, #12
	.loc	1 931 20                        @ ../../../ThirdParty/mbedTLS/library/bignum.c:931:20
	subs	r1, r1, #1
.Ltmp518:
	.loc	1 930 9                         @ ../../../ThirdParty/mbedTLS/library/bignum.c:930:9
	cmp	r1, r5
	bhi	.LBB26_8
.Ltmp519:
.LBB26_9:
	@DEBUG_VALUE: mbedtls_mpi_shift_l:t1 <- $r6
	@DEBUG_VALUE: mbedtls_mpi_shift_l:v0 <- $r5
	@DEBUG_VALUE: mbedtls_mpi_shift_l:X <- $r4
	@DEBUG_VALUE: mbedtls_mpi_shift_l:ret <- 0
	@DEBUG_VALUE: mbedtls_mpi_shift_l:r0 <- 0
	@DEBUG_VALUE: mbedtls_mpi_shift_l:i <- $r1
	.loc	1 933 9                         @ ../../../ThirdParty/mbedTLS/library/bignum.c:933:9
	cbz	r1, .LBB26_11
.Ltmp520:
@ %bb.10:
	@DEBUG_VALUE: mbedtls_mpi_shift_l:t1 <- $r6
	@DEBUG_VALUE: mbedtls_mpi_shift_l:v0 <- $r5
	@DEBUG_VALUE: mbedtls_mpi_shift_l:X <- $r4
	@DEBUG_VALUE: mbedtls_mpi_shift_l:i <- $r1
	@DEBUG_VALUE: mbedtls_mpi_shift_l:ret <- 0
	@DEBUG_VALUE: mbedtls_mpi_shift_l:r0 <- 0
	.loc	1 0 0 is_stmt 0                 @ ../../../ThirdParty/mbedTLS/library/bignum.c:0:0
	ldr	r0, [r4, #8]
.Ltmp521:
	.loc	1 933 9                         @ ../../../ThirdParty/mbedTLS/library/bignum.c:933:9
	lsls	r1, r1, #2
.Ltmp522:
	.loc	1 934 25 is_stmt 1              @ ../../../ThirdParty/mbedTLS/library/bignum.c:934:25
	bl	__aeabi_memclr4
.Ltmp523:
	@DEBUG_VALUE: mbedtls_mpi_shift_l:i <- undef
.LBB26_11:
	@DEBUG_VALUE: mbedtls_mpi_shift_l:t1 <- $r6
	@DEBUG_VALUE: mbedtls_mpi_shift_l:v0 <- $r5
	@DEBUG_VALUE: mbedtls_mpi_shift_l:X <- $r4
	@DEBUG_VALUE: mbedtls_mpi_shift_l:ret <- 0
	@DEBUG_VALUE: mbedtls_mpi_shift_l:r0 <- 0
	.loc	1 0 25 is_stmt 0                @ ../../../ThirdParty/mbedTLS/library/bignum.c:0:25
	movs	r0, #0
	.loc	1 940 9 is_stmt 1               @ ../../../ThirdParty/mbedTLS/library/bignum.c:940:9
	cmp	r6, #0
	beq	.LBB26_4
.Ltmp524:
@ %bb.12:
	@DEBUG_VALUE: mbedtls_mpi_shift_l:t1 <- $r6
	@DEBUG_VALUE: mbedtls_mpi_shift_l:v0 <- $r5
	@DEBUG_VALUE: mbedtls_mpi_shift_l:X <- $r4
	@DEBUG_VALUE: mbedtls_mpi_shift_l:ret <- 0
	@DEBUG_VALUE: mbedtls_mpi_shift_l:r0 <- 0
	@DEBUG_VALUE: mbedtls_mpi_shift_l:r0 <- 0
	@DEBUG_VALUE: mbedtls_mpi_shift_l:i <- $r5
	.loc	1 942 29                        @ ../../../ThirdParty/mbedTLS/library/bignum.c:942:29
	ldr	r1, [r4, #4]
.Ltmp525:
	.loc	1 942 9 is_stmt 0               @ ../../../ThirdParty/mbedTLS/library/bignum.c:942:9
	cmp	r5, r1
	bhs	.LBB26_4
.Ltmp526:
@ %bb.13:
	@DEBUG_VALUE: mbedtls_mpi_shift_l:t1 <- $r6
	@DEBUG_VALUE: mbedtls_mpi_shift_l:i <- $r5
	@DEBUG_VALUE: mbedtls_mpi_shift_l:v0 <- $r5
	@DEBUG_VALUE: mbedtls_mpi_shift_l:X <- $r4
	@DEBUG_VALUE: mbedtls_mpi_shift_l:ret <- 0
	@DEBUG_VALUE: mbedtls_mpi_shift_l:r0 <- 0
	.loc	1 0 9                           @ ../../../ThirdParty/mbedTLS/library/bignum.c:0:9
	movs	r0, #32
.Ltmp527:
	subs	r1, r0, r6
.Ltmp528:
	.loc	1 942 9                         @ ../../../ThirdParty/mbedTLS/library/bignum.c:942:9
	lsls	r0, r5, #2
.Ltmp529:
	.loc	1 0 0                           @ ../../../ThirdParty/mbedTLS/library/bignum.c:0:0
	ldr	r2, [r4, #8]
.Ltmp530:
	.loc	1 942 9                         @ ../../../ThirdParty/mbedTLS/library/bignum.c:942:9
	adds	r2, r2, r0
	movs	r0, #0
	str	r0, [sp]                        @ 4-byte Spill
.Ltmp531:
.LBB26_14:                              @ =>This Inner Loop Header: Depth=1
	@DEBUG_VALUE: mbedtls_mpi_shift_l:t1 <- $r6
	@DEBUG_VALUE: mbedtls_mpi_shift_l:i <- $r5
	@DEBUG_VALUE: mbedtls_mpi_shift_l:X <- $r4
	@DEBUG_VALUE: mbedtls_mpi_shift_l:ret <- 0
	@DEBUG_VALUE: mbedtls_mpi_shift_l:r0 <- $r0
	@DEBUG_VALUE: mbedtls_mpi_shift_l:i <- $r5
	.loc	1 944 18 is_stmt 1              @ ../../../ThirdParty/mbedTLS/library/bignum.c:944:18
	ldr	r3, [r2]
	.loc	1 945 21                        @ ../../../ThirdParty/mbedTLS/library/bignum.c:945:21
	mov	r7, r3
	lsls	r7, r6
	.loc	1 946 21                        @ ../../../ThirdParty/mbedTLS/library/bignum.c:946:21
	orrs	r7, r0
	stm	r2!, {r7}
	.loc	1 944 26                        @ ../../../ThirdParty/mbedTLS/library/bignum.c:944:26
	lsrs	r3, r1
.Ltmp532:
	@DEBUG_VALUE: mbedtls_mpi_shift_l:r1 <- $r3
	@DEBUG_VALUE: mbedtls_mpi_shift_l:r0 <- $r3
	.loc	1 942 33                        @ ../../../ThirdParty/mbedTLS/library/bignum.c:942:33
	adds	r5, r5, #1
.Ltmp533:
	@DEBUG_VALUE: mbedtls_mpi_shift_l:i <- $r5
	.loc	1 942 29 is_stmt 0              @ ../../../ThirdParty/mbedTLS/library/bignum.c:942:29
	ldr	r0, [r4, #4]
.Ltmp534:
	.loc	1 942 9                         @ ../../../ThirdParty/mbedTLS/library/bignum.c:942:9
	cmp	r5, r0
	mov	r0, r3
.Ltmp535:
	@DEBUG_VALUE: mbedtls_mpi_shift_l:r1 <- $r0
	@DEBUG_VALUE: mbedtls_mpi_shift_l:r0 <- $r0
	blo	.LBB26_14
.Ltmp536:
@ %bb.15:
	@DEBUG_VALUE: mbedtls_mpi_shift_l:t1 <- $r6
	@DEBUG_VALUE: mbedtls_mpi_shift_l:i <- $r5
	@DEBUG_VALUE: mbedtls_mpi_shift_l:X <- $r4
	@DEBUG_VALUE: mbedtls_mpi_shift_l:r1 <- $r0
	@DEBUG_VALUE: mbedtls_mpi_shift_l:r0 <- $r0
	@DEBUG_VALUE: mbedtls_mpi_shift_l:ret <- 0
	.loc	1 0 9                           @ ../../../ThirdParty/mbedTLS/library/bignum.c:0:9
	ldr	r0, [sp]                        @ 4-byte Reload
.Ltmp537:
	@DEBUG_VALUE: mbedtls_mpi_shift_l:ret <- $r0
	@DEBUG_LABEL: mbedtls_mpi_shift_l:cleanup
	.loc	1 953 5 is_stmt 1               @ ../../../ThirdParty/mbedTLS/library/bignum.c:953:5
	add	sp, #4
	pop	{r4, r5, r6, r7, pc}
.Ltmp538:
.Lfunc_end26:
	.size	mbedtls_mpi_shift_l, .Lfunc_end26-mbedtls_mpi_shift_l
	.cfi_endproc
	.cantunwind
	.fnend
                                        @ -- End function
	.section	.text.mbedtls_mpi_shift_r,"ax",%progbits
	.hidden	mbedtls_mpi_shift_r             @ -- Begin function mbedtls_mpi_shift_r
	.globl	mbedtls_mpi_shift_r
	.p2align	1
	.type	mbedtls_mpi_shift_r,%function
	.code	16                              @ @mbedtls_mpi_shift_r
	.thumb_func
mbedtls_mpi_shift_r:
.Lfunc_begin27:
	.loc	1 960 0                         @ ../../../ThirdParty/mbedTLS/library/bignum.c:960:0
	.fnstart
	.cfi_startproc
@ %bb.0:
	@DEBUG_VALUE: mbedtls_mpi_shift_r:X <- $r0
	@DEBUG_VALUE: mbedtls_mpi_shift_r:X <- $r0
	@DEBUG_VALUE: mbedtls_mpi_shift_r:count <- $r1
	@DEBUG_VALUE: mbedtls_mpi_shift_r:count <- $r1
	.save	{r4, r5, r6, r7, lr}
	push	{r4, r5, r6, r7, lr}
	.cfi_def_cfa_offset 20
	.cfi_offset lr, -4
	.cfi_offset r7, -8
	.cfi_offset r6, -12
	.cfi_offset r5, -16
	.cfi_offset r4, -20
	.pad	#4
	sub	sp, #4
	.cfi_def_cfa_offset 24
.Ltmp539:
	@DEBUG_VALUE: mbedtls_mpi_shift_r:r0 <- 0
	@DEBUG_VALUE: mbedtls_mpi_shift_r:v1 <- undef
	.loc	1 968 17 prologue_end           @ ../../../ThirdParty/mbedTLS/library/bignum.c:968:17
	ldr	r2, [r0, #4]
.Ltmp540:
	.loc	1 965 16                        @ ../../../ThirdParty/mbedTLS/library/bignum.c:965:16
	lsrs	r3, r1, #5
.Ltmp541:
	@DEBUG_VALUE: mbedtls_mpi_shift_r:v0 <- $r3
	.loc	1 968 19                        @ ../../../ThirdParty/mbedTLS/library/bignum.c:968:19
	cmp	r2, r3
	blo	.LBB27_3
.Ltmp542:
@ %bb.1:
	@DEBUG_VALUE: mbedtls_mpi_shift_r:v0 <- $r3
	@DEBUG_VALUE: mbedtls_mpi_shift_r:count <- $r1
	@DEBUG_VALUE: mbedtls_mpi_shift_r:X <- $r0
	@DEBUG_VALUE: mbedtls_mpi_shift_r:r0 <- 0
	.loc	1 0 19 is_stmt 0                @ ../../../ThirdParty/mbedTLS/library/bignum.c:0:19
	movs	r4, #31
	ands	r1, r4
.Ltmp543:
	@DEBUG_VALUE: mbedtls_mpi_shift_r:count <- [DW_OP_LLVM_entry_value 1] $r1
	@DEBUG_VALUE: mbedtls_mpi_shift_r:v1 <- $r1
	.loc	1 968 35                        @ ../../../ThirdParty/mbedTLS/library/bignum.c:968:35
	beq	.LBB27_5
.Ltmp544:
@ %bb.2:
	@DEBUG_VALUE: mbedtls_mpi_shift_r:v0 <- $r3
	@DEBUG_VALUE: mbedtls_mpi_shift_r:v1 <- $r1
	@DEBUG_VALUE: mbedtls_mpi_shift_r:X <- $r0
	@DEBUG_VALUE: mbedtls_mpi_shift_r:count <- [DW_OP_LLVM_entry_value 1] $r1
	@DEBUG_VALUE: mbedtls_mpi_shift_r:r0 <- 0
	cmp	r3, r2
	bne	.LBB27_5
.Ltmp545:
.LBB27_3:
	@DEBUG_VALUE: mbedtls_mpi_shift_r:v0 <- $r3
	@DEBUG_VALUE: mbedtls_mpi_shift_r:X <- $r0
	@DEBUG_VALUE: mbedtls_mpi_shift_r:r0 <- 0
	.loc	1 0 35                          @ ../../../ThirdParty/mbedTLS/library/bignum.c:0:35
	movs	r1, #0
	.loc	1 969 16 is_stmt 1              @ ../../../ThirdParty/mbedTLS/library/bignum.c:969:16
	bl	mbedtls_mpi_lset
.Ltmp546:
	@DEBUG_VALUE: mbedtls_mpi_shift_r:X <- [DW_OP_LLVM_entry_value 1] $r0
	mov	r2, r0
.Ltmp547:
.LBB27_4:
	.loc	1 998 1                         @ ../../../ThirdParty/mbedTLS/library/bignum.c:998:1
	mov	r0, r2
	add	sp, #4
	pop	{r4, r5, r6, r7, pc}
.LBB27_5:
.Ltmp548:
	@DEBUG_VALUE: mbedtls_mpi_shift_r:v0 <- $r3
	@DEBUG_VALUE: mbedtls_mpi_shift_r:v1 <- $r1
	@DEBUG_VALUE: mbedtls_mpi_shift_r:X <- $r0
	@DEBUG_VALUE: mbedtls_mpi_shift_r:count <- [DW_OP_LLVM_entry_value 1] $r1
	@DEBUG_VALUE: mbedtls_mpi_shift_r:r0 <- 0
	.loc	1 974 9                         @ ../../../ThirdParty/mbedTLS/library/bignum.c:974:9
	cbz	r3, .LBB27_13
.Ltmp549:
@ %bb.6:
	@DEBUG_VALUE: mbedtls_mpi_shift_r:v0 <- $r3
	@DEBUG_VALUE: mbedtls_mpi_shift_r:v1 <- $r1
	@DEBUG_VALUE: mbedtls_mpi_shift_r:X <- $r0
	@DEBUG_VALUE: mbedtls_mpi_shift_r:count <- [DW_OP_LLVM_entry_value 1] $r1
	@DEBUG_VALUE: mbedtls_mpi_shift_r:r0 <- 0
	@DEBUG_VALUE: mbedtls_mpi_shift_r:i <- 0
	.loc	1 976 28                        @ ../../../ThirdParty/mbedTLS/library/bignum.c:976:28
	ldr	r2, [r0, #4]
.Ltmp550:
	.loc	1 976 9 is_stmt 0               @ ../../../ThirdParty/mbedTLS/library/bignum.c:976:9
	cmp	r2, r3
	bne	.LBB27_8
.Ltmp551:
@ %bb.7:
	@DEBUG_VALUE: mbedtls_mpi_shift_r:v0 <- $r3
	@DEBUG_VALUE: mbedtls_mpi_shift_r:v1 <- $r1
	@DEBUG_VALUE: mbedtls_mpi_shift_r:X <- $r0
	@DEBUG_VALUE: mbedtls_mpi_shift_r:i <- 0
	@DEBUG_VALUE: mbedtls_mpi_shift_r:count <- [DW_OP_LLVM_entry_value 1] $r1
	@DEBUG_VALUE: mbedtls_mpi_shift_r:r0 <- 0
	.loc	1 0 9                           @ ../../../ThirdParty/mbedTLS/library/bignum.c:0:9
	movs	r2, #0
	b	.LBB27_10
.Ltmp552:
.LBB27_8:
	@DEBUG_VALUE: mbedtls_mpi_shift_r:v0 <- $r3
	@DEBUG_VALUE: mbedtls_mpi_shift_r:v1 <- $r1
	@DEBUG_VALUE: mbedtls_mpi_shift_r:X <- $r0
	@DEBUG_VALUE: mbedtls_mpi_shift_r:i <- 0
	@DEBUG_VALUE: mbedtls_mpi_shift_r:count <- [DW_OP_LLVM_entry_value 1] $r1
	@DEBUG_VALUE: mbedtls_mpi_shift_r:r0 <- 0
	.loc	1 976 9                         @ ../../../ThirdParty/mbedTLS/library/bignum.c:976:9
	lsls	r4, r3, #2
.Ltmp553:
	.loc	1 0 0                           @ ../../../ThirdParty/mbedTLS/library/bignum.c:0:0
	ldr	r5, [r0, #8]
	movs	r2, #0
.Ltmp554:
.LBB27_9:                               @ =>This Inner Loop Header: Depth=1
	@DEBUG_VALUE: mbedtls_mpi_shift_r:v0 <- $r3
	@DEBUG_VALUE: mbedtls_mpi_shift_r:v1 <- $r1
	@DEBUG_VALUE: mbedtls_mpi_shift_r:X <- $r0
	@DEBUG_VALUE: mbedtls_mpi_shift_r:count <- [DW_OP_LLVM_entry_value 1] $r1
	@DEBUG_VALUE: mbedtls_mpi_shift_r:r0 <- 0
	@DEBUG_VALUE: mbedtls_mpi_shift_r:i <- $r2
	.loc	1 977 23 is_stmt 1              @ ../../../ThirdParty/mbedTLS/library/bignum.c:977:23
	ldr	r6, [r5, r4]
	.loc	1 977 21 is_stmt 0              @ ../../../ThirdParty/mbedTLS/library/bignum.c:977:21
	str	r6, [r5]
	.loc	1 976 28 is_stmt 1              @ ../../../ThirdParty/mbedTLS/library/bignum.c:976:28
	ldr	r6, [r0, #4]
	.loc	1 976 30 is_stmt 0              @ ../../../ThirdParty/mbedTLS/library/bignum.c:976:30
	subs	r6, r6, r3
	.loc	1 976 23                        @ ../../../ThirdParty/mbedTLS/library/bignum.c:976:23
	adds	r5, r5, #4
	.loc	1 976 37                        @ ../../../ThirdParty/mbedTLS/library/bignum.c:976:37
	adds	r2, r2, #1
.Ltmp555:
	@DEBUG_VALUE: mbedtls_mpi_shift_r:i <- $r2
	.loc	1 976 9                         @ ../../../ThirdParty/mbedTLS/library/bignum.c:976:9
	cmp	r2, r6
	blo	.LBB27_9
.Ltmp556:
.LBB27_10:
	@DEBUG_VALUE: mbedtls_mpi_shift_r:v0 <- $r3
	@DEBUG_VALUE: mbedtls_mpi_shift_r:v1 <- $r1
	@DEBUG_VALUE: mbedtls_mpi_shift_r:X <- $r0
	@DEBUG_VALUE: mbedtls_mpi_shift_r:count <- [DW_OP_LLVM_entry_value 1] $r1
	@DEBUG_VALUE: mbedtls_mpi_shift_r:r0 <- 0
	@DEBUG_VALUE: mbedtls_mpi_shift_r:i <- $r2
	.loc	1 979 23 is_stmt 1              @ ../../../ThirdParty/mbedTLS/library/bignum.c:979:23
	ldr	r3, [r0, #4]
.Ltmp557:
	.loc	1 979 9 is_stmt 0               @ ../../../ThirdParty/mbedTLS/library/bignum.c:979:9
	cmp	r2, r3
	bhs	.LBB27_13
.Ltmp558:
@ %bb.11:
	@DEBUG_VALUE: mbedtls_mpi_shift_r:i <- $r2
	@DEBUG_VALUE: mbedtls_mpi_shift_r:v1 <- $r1
	@DEBUG_VALUE: mbedtls_mpi_shift_r:X <- $r0
	@DEBUG_VALUE: mbedtls_mpi_shift_r:count <- [DW_OP_LLVM_entry_value 1] $r1
	@DEBUG_VALUE: mbedtls_mpi_shift_r:r0 <- 0
	lsls	r3, r2, #2
.Ltmp559:
	.loc	1 0 0                           @ ../../../ThirdParty/mbedTLS/library/bignum.c:0:0
	ldr	r4, [r0, #8]
.Ltmp560:
	.loc	1 979 9                         @ ../../../ThirdParty/mbedTLS/library/bignum.c:979:9
	adds	r3, r4, r3
	movs	r4, #0
.Ltmp561:
.LBB27_12:                              @ =>This Inner Loop Header: Depth=1
	@DEBUG_VALUE: mbedtls_mpi_shift_r:i <- $r2
	@DEBUG_VALUE: mbedtls_mpi_shift_r:v1 <- $r1
	@DEBUG_VALUE: mbedtls_mpi_shift_r:X <- $r0
	@DEBUG_VALUE: mbedtls_mpi_shift_r:count <- [DW_OP_LLVM_entry_value 1] $r1
	@DEBUG_VALUE: mbedtls_mpi_shift_r:r0 <- 0
	@DEBUG_VALUE: mbedtls_mpi_shift_r:i <- $r2
	.loc	1 980 21 is_stmt 1              @ ../../../ThirdParty/mbedTLS/library/bignum.c:980:21
	stm	r3!, {r4}
	.loc	1 979 27                        @ ../../../ThirdParty/mbedTLS/library/bignum.c:979:27
	adds	r2, r2, #1
.Ltmp562:
	@DEBUG_VALUE: mbedtls_mpi_shift_r:i <- $r2
	.loc	1 979 23 is_stmt 0              @ ../../../ThirdParty/mbedTLS/library/bignum.c:979:23
	ldr	r5, [r0, #4]
.Ltmp563:
	.loc	1 979 9                         @ ../../../ThirdParty/mbedTLS/library/bignum.c:979:9
	cmp	r2, r5
	blo	.LBB27_12
.Ltmp564:
.LBB27_13:
	@DEBUG_VALUE: mbedtls_mpi_shift_r:v1 <- $r1
	@DEBUG_VALUE: mbedtls_mpi_shift_r:X <- $r0
	@DEBUG_VALUE: mbedtls_mpi_shift_r:count <- [DW_OP_LLVM_entry_value 1] $r1
	@DEBUG_VALUE: mbedtls_mpi_shift_r:r0 <- 0
	.loc	1 0 9                           @ ../../../ThirdParty/mbedTLS/library/bignum.c:0:9
	movs	r2, #0
	.loc	1 986 9 is_stmt 1               @ ../../../ThirdParty/mbedTLS/library/bignum.c:986:9
	cmp	r1, #0
	beq	.LBB27_4
.Ltmp565:
@ %bb.14:
	@DEBUG_VALUE: mbedtls_mpi_shift_r:v1 <- $r1
	@DEBUG_VALUE: mbedtls_mpi_shift_r:X <- $r0
	@DEBUG_VALUE: mbedtls_mpi_shift_r:count <- [DW_OP_LLVM_entry_value 1] $r1
	@DEBUG_VALUE: mbedtls_mpi_shift_r:r0 <- 0
	.loc	1 988 21                        @ ../../../ThirdParty/mbedTLS/library/bignum.c:988:21
	ldr	r3, [r0, #4]
.Ltmp566:
	@DEBUG_VALUE: mbedtls_mpi_shift_r:i <- $r3
	@DEBUG_VALUE: mbedtls_mpi_shift_r:r0 <- 0
	.loc	1 988 9 is_stmt 0               @ ../../../ThirdParty/mbedTLS/library/bignum.c:988:9
	cmp	r3, #0
	beq	.LBB27_4
.Ltmp567:
@ %bb.15:
	@DEBUG_VALUE: mbedtls_mpi_shift_r:i <- $r3
	@DEBUG_VALUE: mbedtls_mpi_shift_r:v1 <- $r1
	@DEBUG_VALUE: mbedtls_mpi_shift_r:X <- $r0
	@DEBUG_VALUE: mbedtls_mpi_shift_r:count <- [DW_OP_LLVM_entry_value 1] $r1
	@DEBUG_VALUE: mbedtls_mpi_shift_r:r0 <- 0
	.loc	1 0 9                           @ ../../../ThirdParty/mbedTLS/library/bignum.c:0:9
	movs	r2, #32
.Ltmp568:
	subs	r4, r2, r1
	ldr	r0, [r0, #8]
.Ltmp569:
	@DEBUG_VALUE: mbedtls_mpi_shift_r:X <- [DW_OP_LLVM_entry_value 1] $r0
	.loc	1 988 9                         @ ../../../ThirdParty/mbedTLS/library/bignum.c:988:9
	lsls	r2, r3, #2
	adds	r0, r2, r0
	subs	r0, r0, #4
	movs	r2, #0
	mov	r5, r2
.Ltmp570:
.LBB27_16:                              @ =>This Inner Loop Header: Depth=1
	@DEBUG_VALUE: mbedtls_mpi_shift_r:v1 <- $r1
	@DEBUG_VALUE: mbedtls_mpi_shift_r:X <- [DW_OP_LLVM_entry_value 1] $r0
	@DEBUG_VALUE: mbedtls_mpi_shift_r:count <- [DW_OP_LLVM_entry_value 1] $r1
	@DEBUG_VALUE: mbedtls_mpi_shift_r:r0 <- $r5
	@DEBUG_VALUE: mbedtls_mpi_shift_r:i <- $r3
	.loc	1 990 18 is_stmt 1              @ ../../../ThirdParty/mbedTLS/library/bignum.c:990:18
	ldr	r6, [r0]
	.loc	1 991 25                        @ ../../../ThirdParty/mbedTLS/library/bignum.c:991:25
	mov	r7, r6
	lsrs	r7, r1
	.loc	1 992 25                        @ ../../../ThirdParty/mbedTLS/library/bignum.c:992:25
	orrs	r7, r5
	str	r7, [r0]
	.loc	1 990 30                        @ ../../../ThirdParty/mbedTLS/library/bignum.c:990:30
	lsls	r6, r4
.Ltmp571:
	@DEBUG_VALUE: mbedtls_mpi_shift_r:r1 <- $r6
	@DEBUG_VALUE: mbedtls_mpi_shift_r:r0 <- $r6
	.loc	1 988 26                        @ ../../../ThirdParty/mbedTLS/library/bignum.c:988:26
	subs	r0, r0, #4
.Ltmp572:
	.loc	1 990 25                        @ ../../../ThirdParty/mbedTLS/library/bignum.c:990:25
	subs	r3, r3, #1
.Ltmp573:
	.loc	1 0 25 is_stmt 0                @ ../../../ThirdParty/mbedTLS/library/bignum.c:0:25
	mov	r5, r6
.Ltmp574:
	@DEBUG_VALUE: mbedtls_mpi_shift_r:r1 <- $r5
	@DEBUG_VALUE: mbedtls_mpi_shift_r:r1 <- $r5
	@DEBUG_VALUE: mbedtls_mpi_shift_r:r1 <- $r5
	@DEBUG_VALUE: mbedtls_mpi_shift_r:r0 <- $r5
	.loc	1 988 9 is_stmt 1               @ ../../../ThirdParty/mbedTLS/library/bignum.c:988:9
	bne	.LBB27_16
	b	.LBB27_4
.Ltmp575:
.Lfunc_end27:
	.size	mbedtls_mpi_shift_r, .Lfunc_end27-mbedtls_mpi_shift_r
	.cfi_endproc
	.cantunwind
	.fnend
                                        @ -- End function
	.section	.text.mbedtls_mpi_cmp_abs,"ax",%progbits
	.hidden	mbedtls_mpi_cmp_abs             @ -- Begin function mbedtls_mpi_cmp_abs
	.globl	mbedtls_mpi_cmp_abs
	.p2align	1
	.type	mbedtls_mpi_cmp_abs,%function
	.code	16                              @ @mbedtls_mpi_cmp_abs
	.thumb_func
mbedtls_mpi_cmp_abs:
.Lfunc_begin28:
	.loc	1 1004 0                        @ ../../../ThirdParty/mbedTLS/library/bignum.c:1004:0
	.fnstart
	.cfi_startproc
@ %bb.0:
	@DEBUG_VALUE: mbedtls_mpi_cmp_abs:X <- $r0
	@DEBUG_VALUE: mbedtls_mpi_cmp_abs:Y <- $r1
	.save	{r4, r5, r6, r7, lr}
	push	{r4, r5, r6, r7, lr}
	.cfi_def_cfa_offset 20
	.cfi_offset lr, -4
	.cfi_offset r7, -8
	.cfi_offset r6, -12
	.cfi_offset r5, -16
	.cfi_offset r4, -20
	.pad	#8
	sub	sp, #8
	.cfi_def_cfa_offset 28
	mov	r2, r0
	@DEBUG_VALUE: mbedtls_mpi_cmp_abs:Y <- $r1
.Ltmp576:
	@DEBUG_VALUE: mbedtls_mpi_cmp_abs:X <- $r2
	.loc	1 1009 17 prologue_end          @ ../../../ThirdParty/mbedTLS/library/bignum.c:1009:17
	ldr	r0, [r0, #4]
.Ltmp577:
	@DEBUG_VALUE: mbedtls_mpi_cmp_abs:i <- $r0
	.loc	1 1009 10 is_stmt 0             @ ../../../ThirdParty/mbedTLS/library/bignum.c:1009:10
	adds	r3, r0, #1
	lsls	r0, r0, #2
.Ltmp578:
	subs	r4, r0, #4
	movs	r0, #0
.Ltmp579:
.LBB28_1:                               @ =>This Inner Loop Header: Depth=1
	@DEBUG_VALUE: mbedtls_mpi_cmp_abs:X <- $r2
	@DEBUG_VALUE: mbedtls_mpi_cmp_abs:Y <- $r1
	@DEBUG_VALUE: mbedtls_mpi_cmp_abs:i <- undef
	.loc	1 1009 5                        @ ../../../ThirdParty/mbedTLS/library/bignum.c:1009:5
	cmp	r3, #1
	beq	.LBB28_3
.Ltmp580:
@ %bb.2:                                @   in Loop: Header=BB28_1 Depth=1
	@DEBUG_VALUE: mbedtls_mpi_cmp_abs:X <- $r2
	@DEBUG_VALUE: mbedtls_mpi_cmp_abs:Y <- $r1
	.loc	1 1010 16 is_stmt 1             @ ../../../ThirdParty/mbedTLS/library/bignum.c:1010:16
	ldr	r5, [r2, #8]
	.loc	1 1010 13 is_stmt 0             @ ../../../ThirdParty/mbedTLS/library/bignum.c:1010:13
	ldr	r5, [r5, r4]
.Ltmp581:
	.loc	1 1010 13                       @ ../../../ThirdParty/mbedTLS/library/bignum.c:1010:13
	subs	r4, r4, #4
	subs	r3, r3, #1
	cmp	r5, #0
	beq	.LBB28_1
	b	.LBB28_4
.Ltmp582:
.LBB28_3:
	@DEBUG_VALUE: mbedtls_mpi_cmp_abs:X <- $r2
	@DEBUG_VALUE: mbedtls_mpi_cmp_abs:Y <- $r1
	.loc	1 0 0                           @ ../../../ThirdParty/mbedTLS/library/bignum.c:0:0
	mov	r3, r0
.Ltmp583:
.LBB28_4:
	@DEBUG_VALUE: mbedtls_mpi_cmp_abs:X <- $r2
	@DEBUG_VALUE: mbedtls_mpi_cmp_abs:Y <- $r1
	@DEBUG_VALUE: mbedtls_mpi_cmp_abs:i <- $r3
	str	r2, [sp, #4]                    @ 4-byte Spill
.Ltmp584:
	@DEBUG_VALUE: mbedtls_mpi_cmp_abs:X <- [DW_OP_plus_uconst 4] [$sp+0]
	.loc	1 1013 17 is_stmt 1             @ ../../../ThirdParty/mbedTLS/library/bignum.c:1013:17
	ldr	r5, [r1, #4]
.Ltmp585:
	@DEBUG_VALUE: mbedtls_mpi_cmp_abs:j <- $r5
	.loc	1 1013 10 is_stmt 0             @ ../../../ThirdParty/mbedTLS/library/bignum.c:1013:10
	adds	r4, r5, #1
	lsls	r5, r5, #2
.Ltmp586:
	subs	r5, r5, #4
.Ltmp587:
.LBB28_5:                               @ =>This Inner Loop Header: Depth=1
	@DEBUG_VALUE: mbedtls_mpi_cmp_abs:X <- [DW_OP_plus_uconst 4] [$sp+0]
	@DEBUG_VALUE: mbedtls_mpi_cmp_abs:i <- $r3
	@DEBUG_VALUE: mbedtls_mpi_cmp_abs:Y <- $r1
	@DEBUG_VALUE: mbedtls_mpi_cmp_abs:j <- undef
	.loc	1 1013 5                        @ ../../../ThirdParty/mbedTLS/library/bignum.c:1013:5
	cmp	r4, #1
	beq	.LBB28_7
.Ltmp588:
@ %bb.6:                                @   in Loop: Header=BB28_5 Depth=1
	@DEBUG_VALUE: mbedtls_mpi_cmp_abs:X <- [DW_OP_plus_uconst 4] [$sp+0]
	@DEBUG_VALUE: mbedtls_mpi_cmp_abs:i <- $r3
	@DEBUG_VALUE: mbedtls_mpi_cmp_abs:Y <- $r1
	.loc	1 1014 16 is_stmt 1             @ ../../../ThirdParty/mbedTLS/library/bignum.c:1014:16
	ldr	r6, [r1, #8]
	.loc	1 1014 13 is_stmt 0             @ ../../../ThirdParty/mbedTLS/library/bignum.c:1014:13
	ldr	r6, [r6, r5]
.Ltmp589:
	.loc	1 1014 13                       @ ../../../ThirdParty/mbedTLS/library/bignum.c:1014:13
	subs	r5, r5, #4
	subs	r4, r4, #1
	cmp	r6, #0
	beq	.LBB28_5
	b	.LBB28_8
.Ltmp590:
.LBB28_7:
	@DEBUG_VALUE: mbedtls_mpi_cmp_abs:X <- [DW_OP_plus_uconst 4] [$sp+0]
	@DEBUG_VALUE: mbedtls_mpi_cmp_abs:i <- $r3
	@DEBUG_VALUE: mbedtls_mpi_cmp_abs:Y <- $r1
	.loc	1 0 0                           @ ../../../ThirdParty/mbedTLS/library/bignum.c:0:0
	mov	r4, r0
.Ltmp591:
.LBB28_8:
	@DEBUG_VALUE: mbedtls_mpi_cmp_abs:X <- [DW_OP_plus_uconst 4] [$sp+0]
	@DEBUG_VALUE: mbedtls_mpi_cmp_abs:i <- $r3
	@DEBUG_VALUE: mbedtls_mpi_cmp_abs:Y <- $r1
	@DEBUG_VALUE: mbedtls_mpi_cmp_abs:j <- $r4
	.loc	1 1017 16 is_stmt 1             @ ../../../ThirdParty/mbedTLS/library/bignum.c:1017:16
	mov	r5, r4
	orrs	r5, r3
	beq	.LBB28_10
.Ltmp592:
@ %bb.9:
	@DEBUG_VALUE: mbedtls_mpi_cmp_abs:X <- [DW_OP_plus_uconst 4] [$sp+0]
	@DEBUG_VALUE: mbedtls_mpi_cmp_abs:j <- $r4
	@DEBUG_VALUE: mbedtls_mpi_cmp_abs:i <- $r3
	@DEBUG_VALUE: mbedtls_mpi_cmp_abs:Y <- $r1
	.loc	1 0 16 is_stmt 0                @ ../../../ThirdParty/mbedTLS/library/bignum.c:0:16
	movs	r0, #1
	.loc	1 1020 9 is_stmt 1              @ ../../../ThirdParty/mbedTLS/library/bignum.c:1020:9
	cmp	r3, r4
	bls	.LBB28_11
.Ltmp593:
.LBB28_10:
	@DEBUG_VALUE: mbedtls_mpi_cmp_abs:Y <- $r1
	.loc	1 1030 1                        @ ../../../ThirdParty/mbedTLS/library/bignum.c:1030:1
	add	sp, #8
	pop	{r4, r5, r6, r7, pc}
.Ltmp594:
.LBB28_11:
	@DEBUG_VALUE: mbedtls_mpi_cmp_abs:X <- [DW_OP_plus_uconst 4] [$sp+0]
	@DEBUG_VALUE: mbedtls_mpi_cmp_abs:j <- $r4
	@DEBUG_VALUE: mbedtls_mpi_cmp_abs:i <- $r3
	@DEBUG_VALUE: mbedtls_mpi_cmp_abs:Y <- $r1
	.loc	1 0 1 is_stmt 0                 @ ../../../ThirdParty/mbedTLS/library/bignum.c:0:1
	movs	r2, #0
	mvns	r5, r2
	.loc	1 1021 9 is_stmt 1              @ ../../../ThirdParty/mbedTLS/library/bignum.c:1021:9
	cmp	r4, r3
	bhi	.LBB28_16
.Ltmp595:
@ %bb.12:
	@DEBUG_VALUE: mbedtls_mpi_cmp_abs:X <- [DW_OP_plus_uconst 4] [$sp+0]
	@DEBUG_VALUE: mbedtls_mpi_cmp_abs:j <- $r4
	@DEBUG_VALUE: mbedtls_mpi_cmp_abs:i <- $r3
	@DEBUG_VALUE: mbedtls_mpi_cmp_abs:Y <- $r1
	.loc	1 0 9 is_stmt 0                 @ ../../../ThirdParty/mbedTLS/library/bignum.c:0:9
	str	r0, [sp]                        @ 4-byte Spill
.Ltmp596:
	.loc	1 1023 5 is_stmt 1              @ ../../../ThirdParty/mbedTLS/library/bignum.c:1023:5
	adds	r4, r3, #1
.Ltmp597:
	lsls	r3, r3, #2
.Ltmp598:
	subs	r3, r3, #4
.Ltmp599:
.LBB28_13:                              @ =>This Inner Loop Header: Depth=1
	@DEBUG_VALUE: mbedtls_mpi_cmp_abs:Y <- $r1
	@DEBUG_VALUE: mbedtls_mpi_cmp_abs:i <- undef
	.loc	1 0 5 is_stmt 0                 @ ../../../ThirdParty/mbedTLS/library/bignum.c:0:5
	mov	r0, r2
.Ltmp600:
	.loc	1 1023 14                       @ ../../../ThirdParty/mbedTLS/library/bignum.c:1023:14
	subs	r4, r4, #1
.Ltmp601:
	.loc	1 1023 5                        @ ../../../ThirdParty/mbedTLS/library/bignum.c:1023:5
	beq	.LBB28_10
.Ltmp602:
@ %bb.14:                               @   in Loop: Header=BB28_13 Depth=1
	@DEBUG_VALUE: mbedtls_mpi_cmp_abs:Y <- $r1
	.loc	1 0 5                           @ ../../../ThirdParty/mbedTLS/library/bignum.c:0:5
	mov	r6, r1
	mov	r2, r5
.Ltmp603:
	subs	r7, r3, #4
.Ltmp604:
	.loc	1 1025 30 is_stmt 1             @ ../../../ThirdParty/mbedTLS/library/bignum.c:1025:30
	ldr	r5, [r1, #8]
	.loc	1 1025 27 is_stmt 0             @ ../../../ThirdParty/mbedTLS/library/bignum.c:1025:27
	ldr	r5, [r5, r3]
	.loc	1 1025 16                       @ ../../../ThirdParty/mbedTLS/library/bignum.c:1025:16
	ldr	r6, [sp, #4]                    @ 4-byte Reload
.Ltmp605:
	@DEBUG_VALUE: mbedtls_mpi_cmp_abs:X <- $r6
	ldr	r6, [r6, #8]
.Ltmp606:
	.loc	1 1025 13                       @ ../../../ThirdParty/mbedTLS/library/bignum.c:1025:13
	ldr	r3, [r6, r3]
.Ltmp607:
	.loc	1 1025 13                       @ ../../../ThirdParty/mbedTLS/library/bignum.c:1025:13
	cmp	r3, r5
	bhi	.LBB28_17
.Ltmp608:
@ %bb.15:                               @   in Loop: Header=BB28_13 Depth=1
	@DEBUG_VALUE: mbedtls_mpi_cmp_abs:Y <- $r1
	.loc	1 0 0                           @ ../../../ThirdParty/mbedTLS/library/bignum.c:0:0
	mov	r3, r7
	mov	r5, r2
	mov	r2, r0
.Ltmp609:
	.loc	1 1026 13 is_stmt 1             @ ../../../ThirdParty/mbedTLS/library/bignum.c:1026:13
	bhs	.LBB28_13
.Ltmp610:
.LBB28_16:
	@DEBUG_VALUE: mbedtls_mpi_cmp_abs:Y <- $r1
	.loc	1 0 0 is_stmt 0                 @ ../../../ThirdParty/mbedTLS/library/bignum.c:0:0
	mov	r0, r5
	.loc	1 1030 1 is_stmt 1              @ ../../../ThirdParty/mbedTLS/library/bignum.c:1030:1
	add	sp, #8
	pop	{r4, r5, r6, r7, pc}
.Ltmp611:
.LBB28_17:
	@DEBUG_VALUE: mbedtls_mpi_cmp_abs:Y <- $r1
	.loc	1 0 1 is_stmt 0                 @ ../../../ThirdParty/mbedTLS/library/bignum.c:0:1
	ldr	r0, [sp]                        @ 4-byte Reload
	.loc	1 1030 1                        @ ../../../ThirdParty/mbedTLS/library/bignum.c:1030:1
	add	sp, #8
	pop	{r4, r5, r6, r7, pc}
.Ltmp612:
.Lfunc_end28:
	.size	mbedtls_mpi_cmp_abs, .Lfunc_end28-mbedtls_mpi_cmp_abs
	.cfi_endproc
	.cantunwind
	.fnend
                                        @ -- End function
	.section	.text.mbedtls_mpi_cmp_mpi,"ax",%progbits
	.hidden	mbedtls_mpi_cmp_mpi             @ -- Begin function mbedtls_mpi_cmp_mpi
	.globl	mbedtls_mpi_cmp_mpi
	.p2align	1
	.type	mbedtls_mpi_cmp_mpi,%function
	.code	16                              @ @mbedtls_mpi_cmp_mpi
	.thumb_func
mbedtls_mpi_cmp_mpi:
.Lfunc_begin29:
	.loc	1 1036 0 is_stmt 1              @ ../../../ThirdParty/mbedTLS/library/bignum.c:1036:0
	.fnstart
	.cfi_startproc
@ %bb.0:
	@DEBUG_VALUE: mbedtls_mpi_cmp_mpi:X <- $r0
	@DEBUG_VALUE: mbedtls_mpi_cmp_mpi:X <- $r0
	@DEBUG_VALUE: mbedtls_mpi_cmp_mpi:Y <- $r1
	@DEBUG_VALUE: mbedtls_mpi_cmp_mpi:Y <- $r1
	.save	{r4, r5, r6, r7, lr}
	push	{r4, r5, r6, r7, lr}
	.cfi_def_cfa_offset 20
	.cfi_offset lr, -4
	.cfi_offset r7, -8
	.cfi_offset r6, -12
	.cfi_offset r5, -16
	.cfi_offset r4, -20
	.pad	#4
	sub	sp, #4
	.cfi_def_cfa_offset 24
.Ltmp613:
	.loc	1 1041 17 prologue_end          @ ../../../ThirdParty/mbedTLS/library/bignum.c:1041:17
	ldr	r2, [r0, #4]
.Ltmp614:
	@DEBUG_VALUE: mbedtls_mpi_cmp_mpi:i <- $r2
	.loc	1 1041 10 is_stmt 0             @ ../../../ThirdParty/mbedTLS/library/bignum.c:1041:10
	adds	r3, r2, #1
	lsls	r2, r2, #2
.Ltmp615:
	subs	r4, r2, #4
	movs	r2, #0
.Ltmp616:
.LBB29_1:                               @ =>This Inner Loop Header: Depth=1
	@DEBUG_VALUE: mbedtls_mpi_cmp_mpi:Y <- $r1
	@DEBUG_VALUE: mbedtls_mpi_cmp_mpi:X <- $r0
	@DEBUG_VALUE: mbedtls_mpi_cmp_mpi:i <- undef
	.loc	1 1041 5                        @ ../../../ThirdParty/mbedTLS/library/bignum.c:1041:5
	cmp	r3, #1
	beq	.LBB29_3
.Ltmp617:
@ %bb.2:                                @   in Loop: Header=BB29_1 Depth=1
	@DEBUG_VALUE: mbedtls_mpi_cmp_mpi:Y <- $r1
	@DEBUG_VALUE: mbedtls_mpi_cmp_mpi:X <- $r0
	.loc	1 1042 16 is_stmt 1             @ ../../../ThirdParty/mbedTLS/library/bignum.c:1042:16
	ldr	r5, [r0, #8]
	.loc	1 1042 13 is_stmt 0             @ ../../../ThirdParty/mbedTLS/library/bignum.c:1042:13
	ldr	r5, [r5, r4]
.Ltmp618:
	.loc	1 1042 13                       @ ../../../ThirdParty/mbedTLS/library/bignum.c:1042:13
	subs	r4, r4, #4
	subs	r3, r3, #1
	cmp	r5, #0
	beq	.LBB29_1
	b	.LBB29_4
.Ltmp619:
.LBB29_3:
	@DEBUG_VALUE: mbedtls_mpi_cmp_mpi:Y <- $r1
	@DEBUG_VALUE: mbedtls_mpi_cmp_mpi:X <- $r0
	.loc	1 0 0                           @ ../../../ThirdParty/mbedTLS/library/bignum.c:0:0
	mov	r3, r2
.Ltmp620:
.LBB29_4:
	@DEBUG_VALUE: mbedtls_mpi_cmp_mpi:Y <- $r1
	@DEBUG_VALUE: mbedtls_mpi_cmp_mpi:X <- $r0
	@DEBUG_VALUE: mbedtls_mpi_cmp_mpi:i <- $r3
	.loc	1 1045 17 is_stmt 1             @ ../../../ThirdParty/mbedTLS/library/bignum.c:1045:17
	ldr	r5, [r1, #4]
.Ltmp621:
	@DEBUG_VALUE: mbedtls_mpi_cmp_mpi:j <- $r5
	.loc	1 1045 10 is_stmt 0             @ ../../../ThirdParty/mbedTLS/library/bignum.c:1045:10
	adds	r4, r5, #1
	lsls	r5, r5, #2
.Ltmp622:
	subs	r5, r5, #4
.Ltmp623:
.LBB29_5:                               @ =>This Inner Loop Header: Depth=1
	@DEBUG_VALUE: mbedtls_mpi_cmp_mpi:i <- $r3
	@DEBUG_VALUE: mbedtls_mpi_cmp_mpi:Y <- $r1
	@DEBUG_VALUE: mbedtls_mpi_cmp_mpi:X <- $r0
	@DEBUG_VALUE: mbedtls_mpi_cmp_mpi:j <- undef
	.loc	1 1045 5                        @ ../../../ThirdParty/mbedTLS/library/bignum.c:1045:5
	cmp	r4, #1
	beq	.LBB29_7
.Ltmp624:
@ %bb.6:                                @   in Loop: Header=BB29_5 Depth=1
	@DEBUG_VALUE: mbedtls_mpi_cmp_mpi:i <- $r3
	@DEBUG_VALUE: mbedtls_mpi_cmp_mpi:Y <- $r1
	@DEBUG_VALUE: mbedtls_mpi_cmp_mpi:X <- $r0
	.loc	1 1046 16 is_stmt 1             @ ../../../ThirdParty/mbedTLS/library/bignum.c:1046:16
	ldr	r6, [r1, #8]
	.loc	1 1046 13 is_stmt 0             @ ../../../ThirdParty/mbedTLS/library/bignum.c:1046:13
	ldr	r6, [r6, r5]
.Ltmp625:
	.loc	1 1046 13                       @ ../../../ThirdParty/mbedTLS/library/bignum.c:1046:13
	subs	r5, r5, #4
	subs	r4, r4, #1
	cmp	r6, #0
	beq	.LBB29_5
	b	.LBB29_8
.Ltmp626:
.LBB29_7:
	@DEBUG_VALUE: mbedtls_mpi_cmp_mpi:i <- $r3
	@DEBUG_VALUE: mbedtls_mpi_cmp_mpi:Y <- $r1
	@DEBUG_VALUE: mbedtls_mpi_cmp_mpi:X <- $r0
	.loc	1 0 0                           @ ../../../ThirdParty/mbedTLS/library/bignum.c:0:0
	mov	r4, r2
.Ltmp627:
.LBB29_8:
	@DEBUG_VALUE: mbedtls_mpi_cmp_mpi:i <- $r3
	@DEBUG_VALUE: mbedtls_mpi_cmp_mpi:Y <- $r1
	@DEBUG_VALUE: mbedtls_mpi_cmp_mpi:X <- $r0
	@DEBUG_VALUE: mbedtls_mpi_cmp_mpi:j <- $r4
	.loc	1 1049 16 is_stmt 1             @ ../../../ThirdParty/mbedTLS/library/bignum.c:1049:16
	mov	r5, r4
	orrs	r5, r3
	beq	.LBB29_25
.Ltmp628:
@ %bb.9:
	@DEBUG_VALUE: mbedtls_mpi_cmp_mpi:j <- $r4
	@DEBUG_VALUE: mbedtls_mpi_cmp_mpi:i <- $r3
	@DEBUG_VALUE: mbedtls_mpi_cmp_mpi:Y <- $r1
	@DEBUG_VALUE: mbedtls_mpi_cmp_mpi:X <- $r0
	.loc	1 1052 9                        @ ../../../ThirdParty/mbedTLS/library/bignum.c:1052:9
	cmp	r3, r4
	bls	.LBB29_11
.Ltmp629:
@ %bb.10:
	@DEBUG_VALUE: mbedtls_mpi_cmp_mpi:j <- $r4
	@DEBUG_VALUE: mbedtls_mpi_cmp_mpi:i <- $r3
	@DEBUG_VALUE: mbedtls_mpi_cmp_mpi:Y <- $r1
	@DEBUG_VALUE: mbedtls_mpi_cmp_mpi:X <- $r0
	.loc	1 1052 29 is_stmt 0             @ ../../../ThirdParty/mbedTLS/library/bignum.c:1052:29
	ldr	r2, [r0]
	.loc	1 1052 17                       @ ../../../ThirdParty/mbedTLS/library/bignum.c:1052:17
	b	.LBB29_25
.Ltmp630:
.LBB29_11:
	@DEBUG_VALUE: mbedtls_mpi_cmp_mpi:j <- $r4
	@DEBUG_VALUE: mbedtls_mpi_cmp_mpi:i <- $r3
	@DEBUG_VALUE: mbedtls_mpi_cmp_mpi:Y <- $r1
	@DEBUG_VALUE: mbedtls_mpi_cmp_mpi:X <- $r0
	.loc	1 1053 9 is_stmt 1              @ ../../../ThirdParty/mbedTLS/library/bignum.c:1053:9
	cmp	r4, r3
	bls	.LBB29_13
.Ltmp631:
@ %bb.12:
	@DEBUG_VALUE: mbedtls_mpi_cmp_mpi:j <- $r4
	@DEBUG_VALUE: mbedtls_mpi_cmp_mpi:i <- $r3
	@DEBUG_VALUE: mbedtls_mpi_cmp_mpi:Y <- $r1
	@DEBUG_VALUE: mbedtls_mpi_cmp_mpi:X <- $r0
	.loc	1 1053 29 is_stmt 0             @ ../../../ThirdParty/mbedTLS/library/bignum.c:1053:29
	ldr	r0, [r1]
.Ltmp632:
	@DEBUG_VALUE: mbedtls_mpi_cmp_mpi:X <- [DW_OP_LLVM_entry_value 1] $r0
	.loc	1 1053 25                       @ ../../../ThirdParty/mbedTLS/library/bignum.c:1053:25
	rsbs	r2, r0, #0
	.loc	1 1053 17                       @ ../../../ThirdParty/mbedTLS/library/bignum.c:1053:17
	b	.LBB29_25
.Ltmp633:
.LBB29_13:
	@DEBUG_VALUE: mbedtls_mpi_cmp_mpi:j <- $r4
	@DEBUG_VALUE: mbedtls_mpi_cmp_mpi:i <- $r3
	@DEBUG_VALUE: mbedtls_mpi_cmp_mpi:Y <- $r1
	@DEBUG_VALUE: mbedtls_mpi_cmp_mpi:X <- $r0
	.loc	1 1055 12 is_stmt 1             @ ../../../ThirdParty/mbedTLS/library/bignum.c:1055:12
	ldr	r4, [r0]
.Ltmp634:
	.loc	1 1055 18 is_stmt 0             @ ../../../ThirdParty/mbedTLS/library/bignum.c:1055:18
	cmp	r4, #1
	blt	.LBB29_15
.Ltmp635:
@ %bb.14:
	@DEBUG_VALUE: mbedtls_mpi_cmp_mpi:i <- $r3
	@DEBUG_VALUE: mbedtls_mpi_cmp_mpi:Y <- $r1
	@DEBUG_VALUE: mbedtls_mpi_cmp_mpi:X <- $r0
	.loc	1 1055 24                       @ ../../../ThirdParty/mbedTLS/library/bignum.c:1055:24
	ldr	r2, [r1]
.Ltmp636:
	.loc	1 1055 9                        @ ../../../ThirdParty/mbedTLS/library/bignum.c:1055:9
	cmp	r2, #0
	bmi	.LBB29_23
.Ltmp637:
.LBB29_15:
	@DEBUG_VALUE: mbedtls_mpi_cmp_mpi:i <- $r3
	@DEBUG_VALUE: mbedtls_mpi_cmp_mpi:Y <- $r1
	@DEBUG_VALUE: mbedtls_mpi_cmp_mpi:X <- $r0
	.loc	1 0 9                           @ ../../../ThirdParty/mbedTLS/library/bignum.c:0:9
	movs	r2, #0
	str	r4, [sp]                        @ 4-byte Spill
.Ltmp638:
	.loc	1 1056 18 is_stmt 1             @ ../../../ThirdParty/mbedTLS/library/bignum.c:1056:18
	cmp	r4, #0
	bpl	.LBB29_18
.Ltmp639:
@ %bb.16:
	@DEBUG_VALUE: mbedtls_mpi_cmp_mpi:i <- $r3
	@DEBUG_VALUE: mbedtls_mpi_cmp_mpi:Y <- $r1
	@DEBUG_VALUE: mbedtls_mpi_cmp_mpi:X <- $r0
	.loc	1 0 18 is_stmt 0                @ ../../../ThirdParty/mbedTLS/library/bignum.c:0:18
	ldr	r5, [r1]
	.loc	1 1056 18                       @ ../../../ThirdParty/mbedTLS/library/bignum.c:1056:18
	cmp	r5, #0
	ble	.LBB29_18
.Ltmp640:
@ %bb.17:
	@DEBUG_VALUE: mbedtls_mpi_cmp_mpi:i <- $r3
	@DEBUG_VALUE: mbedtls_mpi_cmp_mpi:Y <- $r1
	@DEBUG_VALUE: mbedtls_mpi_cmp_mpi:X <- $r0
	.loc	1 0 18                          @ ../../../ThirdParty/mbedTLS/library/bignum.c:0:18
	mvns	r2, r2
	b	.LBB29_25
.Ltmp641:
.LBB29_18:
	@DEBUG_VALUE: mbedtls_mpi_cmp_mpi:i <- $r3
	@DEBUG_VALUE: mbedtls_mpi_cmp_mpi:Y <- $r1
	@DEBUG_VALUE: mbedtls_mpi_cmp_mpi:X <- $r0
	.loc	1 1058 5 is_stmt 1              @ ../../../ThirdParty/mbedTLS/library/bignum.c:1058:5
	adds	r5, r3, #1
	lsls	r3, r3, #2
.Ltmp642:
	subs	r3, r3, #4
.Ltmp643:
.LBB29_19:                              @ =>This Inner Loop Header: Depth=1
	@DEBUG_VALUE: mbedtls_mpi_cmp_mpi:Y <- $r1
	@DEBUG_VALUE: mbedtls_mpi_cmp_mpi:X <- $r0
	@DEBUG_VALUE: mbedtls_mpi_cmp_mpi:i <- undef
	.loc	1 1058 14 is_stmt 0             @ ../../../ThirdParty/mbedTLS/library/bignum.c:1058:14
	subs	r5, r5, #1
.Ltmp644:
	.loc	1 1058 5                        @ ../../../ThirdParty/mbedTLS/library/bignum.c:1058:5
	beq	.LBB29_25
.Ltmp645:
@ %bb.20:                               @   in Loop: Header=BB29_19 Depth=1
	@DEBUG_VALUE: mbedtls_mpi_cmp_mpi:Y <- $r1
	@DEBUG_VALUE: mbedtls_mpi_cmp_mpi:X <- $r0
	.loc	1 0 0                           @ ../../../ThirdParty/mbedTLS/library/bignum.c:0:0
	subs	r6, r3, #4
.Ltmp646:
	.loc	1 1060 30 is_stmt 1             @ ../../../ThirdParty/mbedTLS/library/bignum.c:1060:30
	ldr	r7, [r1, #8]
	.loc	1 1060 27 is_stmt 0             @ ../../../ThirdParty/mbedTLS/library/bignum.c:1060:27
	ldr	r7, [r7, r3]
	.loc	1 1060 16                       @ ../../../ThirdParty/mbedTLS/library/bignum.c:1060:16
	ldr	r4, [r0, #8]
	.loc	1 1060 13                       @ ../../../ThirdParty/mbedTLS/library/bignum.c:1060:13
	ldr	r3, [r4, r3]
.Ltmp647:
	.loc	1 1060 13                       @ ../../../ThirdParty/mbedTLS/library/bignum.c:1060:13
	cmp	r3, r7
	bhi	.LBB29_24
.Ltmp648:
@ %bb.21:                               @   in Loop: Header=BB29_19 Depth=1
	@DEBUG_VALUE: mbedtls_mpi_cmp_mpi:Y <- $r1
	@DEBUG_VALUE: mbedtls_mpi_cmp_mpi:X <- $r0
	.loc	1 0 0                           @ ../../../ThirdParty/mbedTLS/library/bignum.c:0:0
	mov	r3, r6
.Ltmp649:
	.loc	1 1061 13 is_stmt 1             @ ../../../ThirdParty/mbedTLS/library/bignum.c:1061:13
	bhs	.LBB29_19
.Ltmp650:
@ %bb.22:
	@DEBUG_VALUE: mbedtls_mpi_cmp_mpi:Y <- $r1
	@DEBUG_VALUE: mbedtls_mpi_cmp_mpi:X <- $r0
	.loc	1 1061 49 is_stmt 0             @ ../../../ThirdParty/mbedTLS/library/bignum.c:1061:49
	ldr	r0, [sp]                        @ 4-byte Reload
.Ltmp651:
	@DEBUG_VALUE: mbedtls_mpi_cmp_mpi:X <- [DW_OP_LLVM_entry_value 1] $r0
	rsbs	r2, r0, #0
	b	.LBB29_25
.Ltmp652:
.LBB29_23:
	@DEBUG_VALUE: mbedtls_mpi_cmp_mpi:i <- $r3
	@DEBUG_VALUE: mbedtls_mpi_cmp_mpi:Y <- $r1
	@DEBUG_VALUE: mbedtls_mpi_cmp_mpi:X <- $r0
	.loc	1 0 49                          @ ../../../ThirdParty/mbedTLS/library/bignum.c:0:49
	movs	r2, #1
	b	.LBB29_25
.Ltmp653:
.LBB29_24:
	@DEBUG_VALUE: mbedtls_mpi_cmp_mpi:Y <- $r1
	@DEBUG_VALUE: mbedtls_mpi_cmp_mpi:X <- $r0
	ldr	r2, [sp]                        @ 4-byte Reload
.Ltmp654:
.LBB29_25:
	@DEBUG_VALUE: mbedtls_mpi_cmp_mpi:Y <- $r1
	.loc	1 1065 1 is_stmt 1              @ ../../../ThirdParty/mbedTLS/library/bignum.c:1065:1
	mov	r0, r2
	add	sp, #4
	pop	{r4, r5, r6, r7, pc}
.Ltmp655:
.Lfunc_end29:
	.size	mbedtls_mpi_cmp_mpi, .Lfunc_end29-mbedtls_mpi_cmp_mpi
	.cfi_endproc
	.cantunwind
	.fnend
                                        @ -- End function
	.section	.text.mbedtls_mpi_cmp_int,"ax",%progbits
	.hidden	mbedtls_mpi_cmp_int             @ -- Begin function mbedtls_mpi_cmp_int
	.globl	mbedtls_mpi_cmp_int
	.p2align	1
	.type	mbedtls_mpi_cmp_int,%function
	.code	16                              @ @mbedtls_mpi_cmp_int
	.thumb_func
mbedtls_mpi_cmp_int:
.Lfunc_begin30:
	.loc	1 1071 0                        @ ../../../ThirdParty/mbedTLS/library/bignum.c:1071:0
	.fnstart
	.cfi_startproc
@ %bb.0:
	@DEBUG_VALUE: mbedtls_mpi_cmp_int:X <- $r0
	@DEBUG_VALUE: mbedtls_mpi_cmp_int:z <- $r1
	.save	{r7, lr}
	push	{r7, lr}
	.cfi_def_cfa_offset 8
	.cfi_offset lr, -4
	.cfi_offset r7, -8
	.pad	#16
	sub	sp, #16
	.cfi_def_cfa_offset 24
	mov	r2, sp
	@DEBUG_VALUE: mbedtls_mpi_cmp_int:z <- $r1
	@DEBUG_VALUE: mbedtls_mpi_cmp_int:X <- $r0
.Ltmp656:
	.loc	1 1079 9 prologue_end           @ ../../../ThirdParty/mbedTLS/library/bignum.c:1079:9
	str	r2, [sp, #12]
	movs	r2, #1
	.loc	1 1078 9                        @ ../../../ThirdParty/mbedTLS/library/bignum.c:1078:9
	str	r2, [sp, #8]
	.loc	1 1077 11                       @ ../../../ThirdParty/mbedTLS/library/bignum.c:1077:11
	cmp	r1, #0
	bpl	.LBB30_2
.Ltmp657:
@ %bb.1:
	@DEBUG_VALUE: mbedtls_mpi_cmp_int:z <- $r1
	@DEBUG_VALUE: mbedtls_mpi_cmp_int:X <- $r0
	.loc	1 0 11 is_stmt 0                @ ../../../ThirdParty/mbedTLS/library/bignum.c:0:11
	movs	r2, #0
	mvns	r2, r2
.Ltmp658:
.LBB30_2:
	@DEBUG_VALUE: mbedtls_mpi_cmp_int:z <- $r1
	@DEBUG_VALUE: mbedtls_mpi_cmp_int:X <- $r0
	.loc	1 1077 9                        @ ../../../ThirdParty/mbedTLS/library/bignum.c:1077:9
	str	r2, [sp, #4]
	.loc	1 1076 11 is_stmt 1             @ ../../../ThirdParty/mbedTLS/library/bignum.c:1076:11
	asrs	r2, r1, #31
	adds	r1, r1, r2
.Ltmp659:
	@DEBUG_VALUE: mbedtls_mpi_cmp_int:z <- [DW_OP_LLVM_entry_value 1] $r1
	eors	r1, r2
	.loc	1 1076 9 is_stmt 0              @ ../../../ThirdParty/mbedTLS/library/bignum.c:1076:9
	str	r1, [sp]
	add	r1, sp, #4
	@DEBUG_VALUE: mbedtls_mpi_cmp_int:X <- $r0
	.loc	1 1081 13 is_stmt 1             @ ../../../ThirdParty/mbedTLS/library/bignum.c:1081:13
	bl	mbedtls_mpi_cmp_mpi
.Ltmp660:
	@DEBUG_VALUE: mbedtls_mpi_cmp_int:X <- [DW_OP_LLVM_entry_value 1] $r0
	.loc	1 1081 5 is_stmt 0              @ ../../../ThirdParty/mbedTLS/library/bignum.c:1081:5
	add	sp, #16
	pop	{r7, pc}
.Ltmp661:
.Lfunc_end30:
	.size	mbedtls_mpi_cmp_int, .Lfunc_end30-mbedtls_mpi_cmp_int
	.cfi_endproc
	.cantunwind
	.fnend
                                        @ -- End function
	.section	.text.mbedtls_mpi_add_abs,"ax",%progbits
	.hidden	mbedtls_mpi_add_abs             @ -- Begin function mbedtls_mpi_add_abs
	.globl	mbedtls_mpi_add_abs
	.p2align	1
	.type	mbedtls_mpi_add_abs,%function
	.code	16                              @ @mbedtls_mpi_add_abs
	.thumb_func
mbedtls_mpi_add_abs:
.Lfunc_begin31:
	.loc	1 1088 0 is_stmt 1              @ ../../../ThirdParty/mbedTLS/library/bignum.c:1088:0
	.fnstart
	.cfi_startproc
@ %bb.0:
	@DEBUG_VALUE: mbedtls_mpi_add_abs:X <- $r0
	@DEBUG_VALUE: mbedtls_mpi_add_abs:A <- $r1
	@DEBUG_VALUE: mbedtls_mpi_add_abs:B <- $r2
	.save	{r4, r5, r6, r7, lr}
	push	{r4, r5, r6, r7, lr}
	.cfi_def_cfa_offset 20
	.cfi_offset lr, -4
	.cfi_offset r7, -8
	.cfi_offset r6, -12
	.cfi_offset r5, -16
	.cfi_offset r4, -20
	.pad	#20
	sub	sp, #20
	.cfi_def_cfa_offset 40
	mov	r6, r1
	mov	r4, r0
	@DEBUG_VALUE: mbedtls_mpi_add_abs:B <- $r2
.Ltmp662:
	@DEBUG_VALUE: mbedtls_mpi_add_abs:A <- $r6
	@DEBUG_VALUE: mbedtls_mpi_add_abs:X <- $r4
	.loc	1 1096 9 prologue_end           @ ../../../ThirdParty/mbedTLS/library/bignum.c:1096:9
	cmp	r0, r2
	mov	r1, r0
	bne	.LBB31_3
.Ltmp663:
@ %bb.1:
	@DEBUG_VALUE: mbedtls_mpi_add_abs:A <- $r6
	@DEBUG_VALUE: mbedtls_mpi_add_abs:X <- $r4
	@DEBUG_VALUE: mbedtls_mpi_add_abs:B <- $r2
	@DEBUG_VALUE: mbedtls_mpi_add_abs:A <- $r1
	cmp	r4, r2
	bne	.LBB31_4
.Ltmp664:
.LBB31_2:
	@DEBUG_VALUE: mbedtls_mpi_add_abs:X <- $r4
	@DEBUG_VALUE: mbedtls_mpi_add_abs:B <- $r2
	@DEBUG_VALUE: mbedtls_mpi_add_abs:A <- $r1
	@DEBUG_VALUE: mbedtls_mpi_add_abs:B <- $r6
	.loc	1 1103 9                        @ ../../../ThirdParty/mbedTLS/library/bignum.c:1103:9
	cmp	r1, r4
	bne	.LBB31_5
	b	.LBB31_7
.Ltmp665:
.LBB31_3:
	@DEBUG_VALUE: mbedtls_mpi_add_abs:A <- $r6
	@DEBUG_VALUE: mbedtls_mpi_add_abs:X <- $r4
	@DEBUG_VALUE: mbedtls_mpi_add_abs:B <- $r2
	.loc	1 1096 9                        @ ../../../ThirdParty/mbedTLS/library/bignum.c:1096:9
	mov	r1, r6
.Ltmp666:
	@DEBUG_VALUE: mbedtls_mpi_add_abs:A <- $r1
	cmp	r4, r2
	beq	.LBB31_2
.Ltmp667:
.LBB31_4:
	@DEBUG_VALUE: mbedtls_mpi_add_abs:X <- $r4
	@DEBUG_VALUE: mbedtls_mpi_add_abs:B <- $r2
	@DEBUG_VALUE: mbedtls_mpi_add_abs:A <- $r1
	mov	r6, r2
.Ltmp668:
	@DEBUG_VALUE: mbedtls_mpi_add_abs:B <- $r6
	@DEBUG_VALUE: mbedtls_mpi_add_abs:B <- $r6
	.loc	1 1103 9                        @ ../../../ThirdParty/mbedTLS/library/bignum.c:1103:9
	cmp	r1, r4
	beq	.LBB31_7
.Ltmp669:
.LBB31_5:
	@DEBUG_VALUE: mbedtls_mpi_add_abs:B <- $r6
	@DEBUG_VALUE: mbedtls_mpi_add_abs:X <- $r4
	@DEBUG_VALUE: mbedtls_mpi_add_abs:A <- $r1
	.loc	1 1104 9                        @ ../../../ThirdParty/mbedTLS/library/bignum.c:1104:9
	mov	r0, r4
	bl	mbedtls_mpi_copy
.Ltmp670:
	@DEBUG_VALUE: mbedtls_mpi_add_abs:ret <- $r0
	.loc	1 1104 9 is_stmt 0              @ ../../../ThirdParty/mbedTLS/library/bignum.c:1104:9
	cbz	r0, .LBB31_7
.Ltmp671:
.LBB31_6:
	@DEBUG_VALUE: mbedtls_mpi_add_abs:X <- $r4
	@DEBUG_VALUE: mbedtls_mpi_add_abs:ret <- $r0
	@DEBUG_LABEL: mbedtls_mpi_add_abs:cleanup
	.loc	1 1149 5 is_stmt 1              @ ../../../ThirdParty/mbedTLS/library/bignum.c:1149:5
	add	sp, #20
	pop	{r4, r5, r6, r7, pc}
.Ltmp672:
.LBB31_7:
	@DEBUG_VALUE: mbedtls_mpi_add_abs:B <- $r6
	@DEBUG_VALUE: mbedtls_mpi_add_abs:X <- $r4
	.loc	1 0 5 is_stmt 0                 @ ../../../ThirdParty/mbedTLS/library/bignum.c:0:5
	movs	r0, #1
	.loc	1 1109 10 is_stmt 1             @ ../../../ThirdParty/mbedTLS/library/bignum.c:1109:10
	str	r0, [r4]
.Ltmp673:
	.loc	1 1111 17                       @ ../../../ThirdParty/mbedTLS/library/bignum.c:1111:17
	ldr	r0, [r6, #4]
.Ltmp674:
	@DEBUG_VALUE: mbedtls_mpi_add_abs:j <- $r0
	.loc	1 1111 10 is_stmt 0             @ ../../../ThirdParty/mbedTLS/library/bignum.c:1111:10
	adds	r5, r0, #1
	lsls	r0, r0, #2
.Ltmp675:
	subs	r1, r0, #4
	movs	r0, #0
.Ltmp676:
.LBB31_8:                               @ =>This Inner Loop Header: Depth=1
	@DEBUG_VALUE: mbedtls_mpi_add_abs:B <- $r6
	@DEBUG_VALUE: mbedtls_mpi_add_abs:X <- $r4
	@DEBUG_VALUE: mbedtls_mpi_add_abs:j <- undef
	.loc	1 1111 5                        @ ../../../ThirdParty/mbedTLS/library/bignum.c:1111:5
	cmp	r5, #1
	beq	.LBB31_10
.Ltmp677:
@ %bb.9:                                @   in Loop: Header=BB31_8 Depth=1
	@DEBUG_VALUE: mbedtls_mpi_add_abs:B <- $r6
	@DEBUG_VALUE: mbedtls_mpi_add_abs:X <- $r4
	.loc	1 1112 16 is_stmt 1             @ ../../../ThirdParty/mbedTLS/library/bignum.c:1112:16
	ldr	r2, [r6, #8]
	.loc	1 1112 13 is_stmt 0             @ ../../../ThirdParty/mbedTLS/library/bignum.c:1112:13
	ldr	r2, [r2, r1]
.Ltmp678:
	.loc	1 1112 13                       @ ../../../ThirdParty/mbedTLS/library/bignum.c:1112:13
	subs	r1, r1, #4
	subs	r5, r5, #1
	cmp	r2, #0
	beq	.LBB31_8
	b	.LBB31_11
.Ltmp679:
.LBB31_10:
	@DEBUG_VALUE: mbedtls_mpi_add_abs:B <- $r6
	@DEBUG_VALUE: mbedtls_mpi_add_abs:X <- $r4
	.loc	1 0 0                           @ ../../../ThirdParty/mbedTLS/library/bignum.c:0:0
	mov	r5, r0
.Ltmp680:
.LBB31_11:
	@DEBUG_VALUE: mbedtls_mpi_add_abs:B <- $r6
	@DEBUG_VALUE: mbedtls_mpi_add_abs:X <- $r4
	@DEBUG_VALUE: mbedtls_mpi_add_abs:j <- $r5
	.loc	1 1115 5 is_stmt 1              @ ../../../ThirdParty/mbedTLS/library/bignum.c:1115:5
	mov	r0, r4
	mov	r1, r5
	bl	mbedtls_mpi_grow
.Ltmp681:
	@DEBUG_VALUE: mbedtls_mpi_add_abs:ret <- $r0
	.loc	1 1115 5 is_stmt 0              @ ../../../ThirdParty/mbedTLS/library/bignum.c:1115:5
	cmp	r0, #0
	bne	.LBB31_6
.Ltmp682:
@ %bb.12:
	@DEBUG_VALUE: mbedtls_mpi_add_abs:B <- $r6
	@DEBUG_VALUE: mbedtls_mpi_add_abs:j <- $r5
	@DEBUG_VALUE: mbedtls_mpi_add_abs:X <- $r4
	@DEBUG_VALUE: mbedtls_mpi_add_abs:ret <- $r0
	@DEBUG_VALUE: mbedtls_mpi_add_abs:o <- undef
	.loc	1 1118 12 is_stmt 1             @ ../../../ThirdParty/mbedTLS/library/bignum.c:1118:12
	ldr	r1, [r4, #8]
.Ltmp683:
	@DEBUG_VALUE: mbedtls_mpi_add_abs:p <- $r1
	.loc	1 0 12 is_stmt 0                @ ../../../ThirdParty/mbedTLS/library/bignum.c:0:12
	movs	r0, #0
.Ltmp684:
	@DEBUG_VALUE: mbedtls_mpi_add_abs:i <- 0
	@DEBUG_VALUE: mbedtls_mpi_add_abs:c <- 0
	@DEBUG_VALUE: mbedtls_mpi_add_abs:o <- undef
	.loc	1 1124 5 is_stmt 1              @ ../../../ThirdParty/mbedTLS/library/bignum.c:1124:5
	cbz	r5, .LBB31_16
.Ltmp685:
@ %bb.13:
	@DEBUG_VALUE: mbedtls_mpi_add_abs:B <- $r6
	@DEBUG_VALUE: mbedtls_mpi_add_abs:j <- $r5
	@DEBUG_VALUE: mbedtls_mpi_add_abs:X <- $r4
	@DEBUG_VALUE: mbedtls_mpi_add_abs:p <- $r1
	@DEBUG_VALUE: mbedtls_mpi_add_abs:c <- 0
	@DEBUG_VALUE: mbedtls_mpi_add_abs:i <- 0
	.loc	1 0 5 is_stmt 0                 @ ../../../ThirdParty/mbedTLS/library/bignum.c:0:5
	str	r0, [sp, #4]                    @ 4-byte Spill
	str	r4, [sp, #8]                    @ 4-byte Spill
.Ltmp686:
	@DEBUG_VALUE: mbedtls_mpi_add_abs:X <- [DW_OP_plus_uconst 8] [$sp+0]
	.loc	1 1117 12 is_stmt 1             @ ../../../ThirdParty/mbedTLS/library/bignum.c:1117:12
	ldr	r2, [r6, #8]
.Ltmp687:
	@DEBUG_VALUE: mbedtls_mpi_add_abs:o <- $r2
	.loc	1 0 12 is_stmt 0                @ ../../../ThirdParty/mbedTLS/library/bignum.c:0:12
	movs	r3, #0
	mov	r7, r5
	str	r3, [sp, #12]                   @ 4-byte Spill
.Ltmp688:
.LBB31_14:                              @ =>This Inner Loop Header: Depth=1
	@DEBUG_VALUE: mbedtls_mpi_add_abs:X <- [DW_OP_plus_uconst 8] [$sp+0]
	@DEBUG_VALUE: mbedtls_mpi_add_abs:j <- $r5
	@DEBUG_VALUE: mbedtls_mpi_add_abs:o <- $r2
	@DEBUG_VALUE: mbedtls_mpi_add_abs:p <- $r1
	@DEBUG_VALUE: mbedtls_mpi_add_abs:o <- $r2
	@DEBUG_VALUE: mbedtls_mpi_add_abs:p <- $r1
	@DEBUG_VALUE: mbedtls_mpi_add_abs:c <- $r3
	@DEBUG_VALUE: mbedtls_mpi_add_abs:i <- undef
	.loc	1 1126 14 is_stmt 1             @ ../../../ThirdParty/mbedTLS/library/bignum.c:1126:14
	ldm	r2!, {r6}
.Ltmp689:
	@DEBUG_VALUE: mbedtls_mpi_add_abs:tmp <- $r6
	.loc	1 1127 12                       @ ../../../ThirdParty/mbedTLS/library/bignum.c:1127:12
	ldr	r4, [r1]
	adds	r0, r4, r3
.Ltmp690:
	@DEBUG_VALUE: mbedtls_mpi_add_abs:c <- undef
	.loc	1 1129 12                       @ ../../../ThirdParty/mbedTLS/library/bignum.c:1129:12
	adds	r0, r0, r6
	str	r0, [sp, #16]                   @ 4-byte Spill
	ldr	r0, [sp, #12]                   @ 4-byte Reload
	mov	r6, r0
.Ltmp691:
	adcs	r6, r0
	.loc	1 1127 12                       @ ../../../ThirdParty/mbedTLS/library/bignum.c:1127:12
	adds	r3, r4, r3
	.loc	1 1130 11                       @ ../../../ThirdParty/mbedTLS/library/bignum.c:1130:11
	adcs	r6, r0
.Ltmp692:
	@DEBUG_VALUE: mbedtls_mpi_add_abs:c <- $r6
	.loc	1 1129 12                       @ ../../../ThirdParty/mbedTLS/library/bignum.c:1129:12
	ldr	r0, [sp, #16]                   @ 4-byte Reload
	stm	r1!, {r0}
.Ltmp693:
	@DEBUG_VALUE: mbedtls_mpi_add_abs:i <- [DW_OP_plus_uconst 1, DW_OP_stack_value] undef
	@DEBUG_VALUE: mbedtls_mpi_add_abs:p <- $r1
	@DEBUG_VALUE: mbedtls_mpi_add_abs:o <- $r2
	.loc	1 1124 19                       @ ../../../ThirdParty/mbedTLS/library/bignum.c:1124:19
	subs	r7, r7, #1
	mov	r3, r6
.Ltmp694:
	.loc	1 1124 5 is_stmt 0              @ ../../../ThirdParty/mbedTLS/library/bignum.c:1124:5
	bne	.LBB31_14
.Ltmp695:
@ %bb.15:
	@DEBUG_VALUE: mbedtls_mpi_add_abs:X <- [DW_OP_plus_uconst 8] [$sp+0]
	@DEBUG_VALUE: mbedtls_mpi_add_abs:c <- $r6
	@DEBUG_VALUE: mbedtls_mpi_add_abs:j <- $r5
	@DEBUG_VALUE: mbedtls_mpi_add_abs:o <- $r2
	@DEBUG_VALUE: mbedtls_mpi_add_abs:p <- $r1
	.loc	1 0 5                           @ ../../../ThirdParty/mbedTLS/library/bignum.c:0:5
	ldr	r4, [sp, #8]                    @ 4-byte Reload
.Ltmp696:
	@DEBUG_VALUE: mbedtls_mpi_add_abs:X <- $r4
	ldr	r0, [sp, #4]                    @ 4-byte Reload
.Ltmp697:
	@DEBUG_VALUE: mbedtls_mpi_add_abs:ret <- 0
	@DEBUG_VALUE: mbedtls_mpi_add_abs:p <- $r1
	@DEBUG_VALUE: mbedtls_mpi_add_abs:c <- $r6
	@DEBUG_VALUE: mbedtls_mpi_add_abs:i <- $r5
	cbnz	r6, .LBB31_17
	b	.LBB31_6
.Ltmp698:
.LBB31_16:
	@DEBUG_VALUE: mbedtls_mpi_add_abs:B <- $r6
	@DEBUG_VALUE: mbedtls_mpi_add_abs:j <- $r5
	@DEBUG_VALUE: mbedtls_mpi_add_abs:X <- $r4
	@DEBUG_VALUE: mbedtls_mpi_add_abs:p <- $r1
	@DEBUG_VALUE: mbedtls_mpi_add_abs:c <- 0
	@DEBUG_VALUE: mbedtls_mpi_add_abs:i <- 0
	mov	r5, r0
.Ltmp699:
	mov	r6, r0
.Ltmp700:
	@DEBUG_VALUE: mbedtls_mpi_add_abs:ret <- 0
	@DEBUG_VALUE: mbedtls_mpi_add_abs:p <- $r1
	@DEBUG_VALUE: mbedtls_mpi_add_abs:c <- $r6
	@DEBUG_VALUE: mbedtls_mpi_add_abs:i <- $r5
	.loc	1 1133 5 is_stmt 1              @ ../../../ThirdParty/mbedTLS/library/bignum.c:1133:5
	cmp	r6, #0
	beq	.LBB31_6
.Ltmp701:
.LBB31_17:
	@DEBUG_VALUE: mbedtls_mpi_add_abs:c <- $r6
	@DEBUG_VALUE: mbedtls_mpi_add_abs:i <- $r5
	@DEBUG_VALUE: mbedtls_mpi_add_abs:X <- $r4
	@DEBUG_VALUE: mbedtls_mpi_add_abs:p <- $r1
	@DEBUG_VALUE: mbedtls_mpi_add_abs:ret <- 0
	lsls	r7, r5, #2
	movs	r3, #0
	str	r3, [sp, #16]                   @ 4-byte Spill
	b	.LBB31_20
.Ltmp702:
.LBB31_18:                              @   in Loop: Header=BB31_20 Depth=1
	@DEBUG_VALUE: mbedtls_mpi_add_abs:c <- $r6
	@DEBUG_VALUE: mbedtls_mpi_add_abs:i <- $r5
	@DEBUG_VALUE: mbedtls_mpi_add_abs:X <- $r4
	@DEBUG_VALUE: mbedtls_mpi_add_abs:ret <- $r0
	.loc	1 1138 20                       @ ../../../ThirdParty/mbedTLS/library/bignum.c:1138:20
	ldr	r0, [r4, #8]
.Ltmp703:
	@DEBUG_VALUE: mbedtls_mpi_add_abs:p <- undef
	.loc	1 1139 9                        @ ../../../ThirdParty/mbedTLS/library/bignum.c:1139:9
	adds	r1, r0, r7
	ldr	r3, [sp, #16]                   @ 4-byte Reload
.Ltmp704:
.LBB31_19:                              @   in Loop: Header=BB31_20 Depth=1
	@DEBUG_VALUE: mbedtls_mpi_add_abs:c <- $r6
	@DEBUG_VALUE: mbedtls_mpi_add_abs:i <- $r5
	@DEBUG_VALUE: mbedtls_mpi_add_abs:X <- $r4
	@DEBUG_VALUE: mbedtls_mpi_add_abs:ret <- 0
	@DEBUG_VALUE: mbedtls_mpi_add_abs:p <- $r1
	.loc	1 1141 12                       @ ../../../ThirdParty/mbedTLS/library/bignum.c:1141:12
	ldr	r0, [r1]
	adds	r2, r0, r6
	stm	r1!, {r2}
.Ltmp705:
	mov	r6, r3
.Ltmp706:
	adcs	r6, r3
.Ltmp707:
	@DEBUG_VALUE: mbedtls_mpi_add_abs:c <- $r6
	@DEBUG_VALUE: mbedtls_mpi_add_abs:p <- $r1
	.loc	1 1133 5                        @ ../../../ThirdParty/mbedTLS/library/bignum.c:1133:5
	adds	r7, r7, #4
.Ltmp708:
	.loc	1 1143 10                       @ ../../../ThirdParty/mbedTLS/library/bignum.c:1143:10
	adds	r5, r5, #1
.Ltmp709:
	@DEBUG_VALUE: mbedtls_mpi_add_abs:i <- $r5
	.loc	1 1141 12                       @ ../../../ThirdParty/mbedTLS/library/bignum.c:1141:12
	cmp	r2, r0
	bhs	.LBB31_22
.Ltmp710:
.LBB31_20:                              @ =>This Inner Loop Header: Depth=1
	@DEBUG_VALUE: mbedtls_mpi_add_abs:c <- $r6
	@DEBUG_VALUE: mbedtls_mpi_add_abs:i <- $r5
	@DEBUG_VALUE: mbedtls_mpi_add_abs:X <- $r4
	@DEBUG_VALUE: mbedtls_mpi_add_abs:p <- $r1
	@DEBUG_VALUE: mbedtls_mpi_add_abs:ret <- 0
	@DEBUG_VALUE: mbedtls_mpi_add_abs:p <- $r1
	@DEBUG_VALUE: mbedtls_mpi_add_abs:c <- $r6
	@DEBUG_VALUE: mbedtls_mpi_add_abs:i <- $r5
	.loc	1 1135 21                       @ ../../../ThirdParty/mbedTLS/library/bignum.c:1135:21
	ldr	r0, [r4, #4]
.Ltmp711:
	.loc	1 1135 13 is_stmt 0             @ ../../../ThirdParty/mbedTLS/library/bignum.c:1135:13
	cmp	r5, r0
	blo	.LBB31_19
.Ltmp712:
@ %bb.21:                               @   in Loop: Header=BB31_20 Depth=1
	@DEBUG_VALUE: mbedtls_mpi_add_abs:c <- $r6
	@DEBUG_VALUE: mbedtls_mpi_add_abs:i <- $r5
	@DEBUG_VALUE: mbedtls_mpi_add_abs:X <- $r4
	@DEBUG_VALUE: mbedtls_mpi_add_abs:p <- $r1
	@DEBUG_VALUE: mbedtls_mpi_add_abs:ret <- 0
	.loc	1 1137 13 is_stmt 1             @ ../../../ThirdParty/mbedTLS/library/bignum.c:1137:13
	adds	r1, r5, #1
.Ltmp713:
	mov	r0, r4
	bl	mbedtls_mpi_grow
.Ltmp714:
	@DEBUG_VALUE: mbedtls_mpi_add_abs:ret <- $r0
	.loc	1 1137 13 is_stmt 0             @ ../../../ThirdParty/mbedTLS/library/bignum.c:1137:13
	cmp	r0, #0
	beq	.LBB31_18
	b	.LBB31_6
.Ltmp715:
.LBB31_22:
	@DEBUG_VALUE: mbedtls_mpi_add_abs:c <- $r6
	@DEBUG_VALUE: mbedtls_mpi_add_abs:i <- $r5
	@DEBUG_VALUE: mbedtls_mpi_add_abs:X <- $r4
	@DEBUG_VALUE: mbedtls_mpi_add_abs:p <- $r1
	@DEBUG_VALUE: mbedtls_mpi_add_abs:ret <- 0
	.loc	1 0 0                           @ ../../../ThirdParty/mbedTLS/library/bignum.c:0:0
	mov	r0, r3
.Ltmp716:
	@DEBUG_VALUE: mbedtls_mpi_add_abs:ret <- $r0
	@DEBUG_LABEL: mbedtls_mpi_add_abs:cleanup
	.loc	1 1149 5 is_stmt 1              @ ../../../ThirdParty/mbedTLS/library/bignum.c:1149:5
	add	sp, #20
	pop	{r4, r5, r6, r7, pc}
.Ltmp717:
.Lfunc_end31:
	.size	mbedtls_mpi_add_abs, .Lfunc_end31-mbedtls_mpi_add_abs
	.cfi_endproc
	.cantunwind
	.fnend
                                        @ -- End function
	.section	.text.mbedtls_mpi_sub_abs,"ax",%progbits
	.hidden	mbedtls_mpi_sub_abs             @ -- Begin function mbedtls_mpi_sub_abs
	.globl	mbedtls_mpi_sub_abs
	.p2align	1
	.type	mbedtls_mpi_sub_abs,%function
	.code	16                              @ @mbedtls_mpi_sub_abs
	.thumb_func
mbedtls_mpi_sub_abs:
.Lfunc_begin32:
	.loc	1 1181 0                        @ ../../../ThirdParty/mbedTLS/library/bignum.c:1181:0
	.fnstart
	.cfi_startproc
@ %bb.0:
	@DEBUG_VALUE: mbedtls_mpi_sub_abs:X <- $r0
	@DEBUG_VALUE: mbedtls_mpi_sub_abs:A <- $r1
	@DEBUG_VALUE: mbedtls_mpi_sub_abs:B <- $r2
	.save	{r4, r5, r6, r7, lr}
	push	{r4, r5, r6, r7, lr}
	.cfi_def_cfa_offset 20
	.cfi_offset lr, -4
	.cfi_offset r7, -8
	.cfi_offset r6, -12
	.cfi_offset r5, -16
	.cfi_offset r4, -20
	.pad	#12
	sub	sp, #12
	.cfi_def_cfa_offset 32
	mov	r6, r2
	mov	r7, r1
	mov	r4, r0
.Ltmp718:
	@DEBUG_VALUE: mbedtls_mpi_sub_abs:B <- $r6
	@DEBUG_VALUE: mbedtls_mpi_sub_abs:A <- $r7
	@DEBUG_VALUE: mbedtls_mpi_sub_abs:X <- $r4
	.loc	1 1189 9 prologue_end           @ ../../../ThirdParty/mbedTLS/library/bignum.c:1189:9
	mov	r0, r1
	mov	r1, r2
	bl	mbedtls_mpi_cmp_abs
.Ltmp719:
	.loc	1 1189 9 is_stmt 0              @ ../../../ThirdParty/mbedTLS/library/bignum.c:1189:9
	cmp	r0, #0
	bmi	.LBB32_8
.Ltmp720:
@ %bb.1:
	@DEBUG_VALUE: mbedtls_mpi_sub_abs:A <- $r7
	@DEBUG_VALUE: mbedtls_mpi_sub_abs:B <- $r6
	@DEBUG_VALUE: mbedtls_mpi_sub_abs:X <- $r4
	.loc	1 0 9                           @ ../../../ThirdParty/mbedTLS/library/bignum.c:0:9
	mov	r0, sp
	.loc	1 1192 5 is_stmt 1              @ ../../../ThirdParty/mbedTLS/library/bignum.c:1192:5
	bl	mbedtls_mpi_init
	.loc	1 1194 9                        @ ../../../ThirdParty/mbedTLS/library/bignum.c:1194:9
	cmp	r4, r6
	beq	.LBB32_9
.Ltmp721:
@ %bb.2:
	@DEBUG_VALUE: mbedtls_mpi_sub_abs:A <- $r7
	@DEBUG_VALUE: mbedtls_mpi_sub_abs:B <- $r6
	@DEBUG_VALUE: mbedtls_mpi_sub_abs:X <- $r4
	.loc	1 0 9 is_stmt 0                 @ ../../../ThirdParty/mbedTLS/library/bignum.c:0:9
	mov	r5, r6
.Ltmp722:
	@DEBUG_VALUE: mbedtls_mpi_sub_abs:B <- $r5
.LBB32_3:
	@DEBUG_VALUE: mbedtls_mpi_sub_abs:A <- $r7
	@DEBUG_VALUE: mbedtls_mpi_sub_abs:X <- $r4
	@DEBUG_VALUE: mbedtls_mpi_sub_abs:B <- $r5
	.loc	1 1200 9 is_stmt 1              @ ../../../ThirdParty/mbedTLS/library/bignum.c:1200:9
	cmp	r4, r7
	beq	.LBB32_5
.Ltmp723:
@ %bb.4:
	@DEBUG_VALUE: mbedtls_mpi_sub_abs:A <- $r7
	@DEBUG_VALUE: mbedtls_mpi_sub_abs:B <- $r5
	@DEBUG_VALUE: mbedtls_mpi_sub_abs:X <- $r4
	.loc	1 1201 9                        @ ../../../ThirdParty/mbedTLS/library/bignum.c:1201:9
	mov	r0, r4
	mov	r1, r7
	bl	mbedtls_mpi_copy
	mov	r6, r0
.Ltmp724:
	@DEBUG_VALUE: mbedtls_mpi_sub_abs:ret <- $r6
	.loc	1 1201 9 is_stmt 0              @ ../../../ThirdParty/mbedTLS/library/bignum.c:1201:9
	cbnz	r0, .LBB32_12
.Ltmp725:
.LBB32_5:
	@DEBUG_VALUE: mbedtls_mpi_sub_abs:A <- $r7
	@DEBUG_VALUE: mbedtls_mpi_sub_abs:B <- $r5
	@DEBUG_VALUE: mbedtls_mpi_sub_abs:X <- $r4
	.loc	1 0 9                           @ ../../../ThirdParty/mbedTLS/library/bignum.c:0:9
	movs	r0, #1
	.loc	1 1206 10 is_stmt 1             @ ../../../ThirdParty/mbedTLS/library/bignum.c:1206:10
	str	r0, [r4]
.Ltmp726:
	@DEBUG_VALUE: mbedtls_mpi_sub_abs:ret <- 0
	.loc	1 1210 17                       @ ../../../ThirdParty/mbedTLS/library/bignum.c:1210:17
	ldr	r1, [r5, #4]
.Ltmp727:
	@DEBUG_VALUE: mbedtls_mpi_sub_abs:n <- $r1
	.loc	1 1210 10 is_stmt 0             @ ../../../ThirdParty/mbedTLS/library/bignum.c:1210:10
	adds	r0, r1, #1
	lsls	r1, r1, #2
.Ltmp728:
	subs	r1, r1, #4
	movs	r6, #0
.Ltmp729:
.LBB32_6:                               @ =>This Inner Loop Header: Depth=1
	@DEBUG_VALUE: mbedtls_mpi_sub_abs:A <- $r7
	@DEBUG_VALUE: mbedtls_mpi_sub_abs:B <- $r5
	@DEBUG_VALUE: mbedtls_mpi_sub_abs:X <- $r4
	@DEBUG_VALUE: mbedtls_mpi_sub_abs:ret <- 0
	@DEBUG_VALUE: mbedtls_mpi_sub_abs:n <- undef
	.loc	1 1210 5                        @ ../../../ThirdParty/mbedTLS/library/bignum.c:1210:5
	cmp	r0, #1
	beq	.LBB32_10
.Ltmp730:
@ %bb.7:                                @   in Loop: Header=BB32_6 Depth=1
	@DEBUG_VALUE: mbedtls_mpi_sub_abs:A <- $r7
	@DEBUG_VALUE: mbedtls_mpi_sub_abs:B <- $r5
	@DEBUG_VALUE: mbedtls_mpi_sub_abs:X <- $r4
	@DEBUG_VALUE: mbedtls_mpi_sub_abs:ret <- 0
	.loc	1 1211 16 is_stmt 1             @ ../../../ThirdParty/mbedTLS/library/bignum.c:1211:16
	ldr	r2, [r5, #8]
	.loc	1 1211 13 is_stmt 0             @ ../../../ThirdParty/mbedTLS/library/bignum.c:1211:13
	ldr	r2, [r2, r1]
.Ltmp731:
	.loc	1 1211 13                       @ ../../../ThirdParty/mbedTLS/library/bignum.c:1211:13
	subs	r1, r1, #4
	subs	r0, r0, #1
	cmp	r2, #0
	beq	.LBB32_6
	b	.LBB32_11
.Ltmp732:
.LBB32_8:
	@DEBUG_VALUE: mbedtls_mpi_sub_abs:A <- $r7
	@DEBUG_VALUE: mbedtls_mpi_sub_abs:B <- $r6
	@DEBUG_VALUE: mbedtls_mpi_sub_abs:X <- $r4
	.loc	1 0 13                          @ ../../../ThirdParty/mbedTLS/library/bignum.c:0:13
	movs	r0, #9
	mvns	r6, r0
.Ltmp733:
	b	.LBB32_13
.Ltmp734:
.LBB32_9:
	@DEBUG_VALUE: mbedtls_mpi_sub_abs:A <- $r7
	@DEBUG_VALUE: mbedtls_mpi_sub_abs:B <- $r6
	@DEBUG_VALUE: mbedtls_mpi_sub_abs:X <- $r4
	mov	r5, sp
.Ltmp735:
	.loc	1 1196 9 is_stmt 1              @ ../../../ThirdParty/mbedTLS/library/bignum.c:1196:9
	mov	r0, r5
	mov	r1, r6
	bl	mbedtls_mpi_copy
	mov	r6, r0
.Ltmp736:
	@DEBUG_VALUE: mbedtls_mpi_sub_abs:ret <- $r6
	.loc	1 0 9 is_stmt 0                 @ ../../../ThirdParty/mbedTLS/library/bignum.c:0:9
	cbnz	r0, .LBB32_12
	b	.LBB32_3
.Ltmp737:
.LBB32_10:
	@DEBUG_VALUE: mbedtls_mpi_sub_abs:A <- $r7
	@DEBUG_VALUE: mbedtls_mpi_sub_abs:B <- $r5
	@DEBUG_VALUE: mbedtls_mpi_sub_abs:X <- $r4
	@DEBUG_VALUE: mbedtls_mpi_sub_abs:ret <- 0
	mov	r0, r6
.Ltmp738:
.LBB32_11:
	@DEBUG_VALUE: mbedtls_mpi_sub_abs:A <- $r7
	@DEBUG_VALUE: mbedtls_mpi_sub_abs:B <- $r5
	@DEBUG_VALUE: mbedtls_mpi_sub_abs:X <- $r4
	@DEBUG_VALUE: mbedtls_mpi_sub_abs:ret <- 0
	@DEBUG_VALUE: mbedtls_mpi_sub_abs:n <- $r0
	.loc	1 1214 30 is_stmt 1             @ ../../../ThirdParty/mbedTLS/library/bignum.c:1214:30
	ldr	r2, [r4, #8]
	.loc	1 1214 24 is_stmt 0             @ ../../../ThirdParty/mbedTLS/library/bignum.c:1214:24
	ldr	r1, [r5, #8]
	.loc	1 1214 5                        @ ../../../ThirdParty/mbedTLS/library/bignum.c:1214:5
	bl	mpi_sub_hlp
.Ltmp739:
.LBB32_12:
	@DEBUG_VALUE: mbedtls_mpi_sub_abs:A <- $r7
	@DEBUG_VALUE: mbedtls_mpi_sub_abs:X <- $r4
	@DEBUG_VALUE: mbedtls_mpi_sub_abs:ret <- $r6
	@DEBUG_LABEL: mbedtls_mpi_sub_abs:cleanup
	.loc	1 0 5                           @ ../../../ThirdParty/mbedTLS/library/bignum.c:0:5
	mov	r0, sp
	.loc	1 1218 5 is_stmt 1              @ ../../../ThirdParty/mbedTLS/library/bignum.c:1218:5
	bl	mbedtls_mpi_free
.Ltmp740:
.LBB32_13:
	@DEBUG_VALUE: mbedtls_mpi_sub_abs:A <- $r7
	@DEBUG_VALUE: mbedtls_mpi_sub_abs:X <- $r4
	.loc	1 1221 1                        @ ../../../ThirdParty/mbedTLS/library/bignum.c:1221:1
	mov	r0, r6
	add	sp, #12
	pop	{r4, r5, r6, r7, pc}
.Ltmp741:
.Lfunc_end32:
	.size	mbedtls_mpi_sub_abs, .Lfunc_end32-mbedtls_mpi_sub_abs
	.cfi_endproc
	.cantunwind
	.fnend
                                        @ -- End function
	.section	.text.mpi_sub_hlp,"ax",%progbits
	.p2align	1                               @ -- Begin function mpi_sub_hlp
	.type	mpi_sub_hlp,%function
	.code	16                              @ @mpi_sub_hlp
	.thumb_func
mpi_sub_hlp:
.Lfunc_begin33:
	.loc	1 1156 0                        @ ../../../ThirdParty/mbedTLS/library/bignum.c:1156:0
	.fnstart
	.cfi_startproc
@ %bb.0:
	@DEBUG_VALUE: mpi_sub_hlp:n <- $r0
	@DEBUG_VALUE: mpi_sub_hlp:n <- $r0
	@DEBUG_VALUE: mpi_sub_hlp:s <- $r1
	@DEBUG_VALUE: mpi_sub_hlp:s <- $r1
	@DEBUG_VALUE: mpi_sub_hlp:d <- $r2
	@DEBUG_VALUE: mpi_sub_hlp:d <- $r2
	.save	{r4, r5, r6, r7, lr}
	push	{r4, r5, r6, r7, lr}
	.cfi_def_cfa_offset 20
	.cfi_offset lr, -4
	.cfi_offset r7, -8
	.cfi_offset r6, -12
	.cfi_offset r5, -16
	.cfi_offset r4, -20
.Ltmp742:
	@DEBUG_VALUE: mpi_sub_hlp:c <- 0
	@DEBUG_VALUE: mpi_sub_hlp:i <- 0
	.loc	1 1160 5 prologue_end           @ ../../../ThirdParty/mbedTLS/library/bignum.c:1160:5
	cbz	r0, .LBB33_7
.Ltmp743:
@ %bb.1:
	@DEBUG_VALUE: mpi_sub_hlp:d <- $r2
	@DEBUG_VALUE: mpi_sub_hlp:s <- $r1
	@DEBUG_VALUE: mpi_sub_hlp:n <- $r0
	@DEBUG_VALUE: mpi_sub_hlp:i <- 0
	@DEBUG_VALUE: mpi_sub_hlp:c <- 0
	.loc	1 0 5 is_stmt 0                 @ ../../../ThirdParty/mbedTLS/library/bignum.c:0:5
	movs	r4, #0
	movs	r5, #1
	mov	r3, r4
	b	.LBB33_3
.Ltmp744:
.LBB33_2:                               @   in Loop: Header=BB33_3 Depth=1
	@DEBUG_VALUE: mpi_sub_hlp:d <- $r2
	@DEBUG_VALUE: mpi_sub_hlp:s <- [DW_OP_LLVM_entry_value 1] $r1
	@DEBUG_VALUE: mpi_sub_hlp:c <- $r3
	.loc	1 1165 12 is_stmt 1             @ ../../../ThirdParty/mbedTLS/library/bignum.c:1165:12
	subs	r6, r6, r7
	stm	r2!, {r6}
.Ltmp745:
	@DEBUG_VALUE: mpi_sub_hlp:d <- [DW_OP_LLVM_entry_value 1] $r2
	@DEBUG_VALUE: mpi_sub_hlp:d <- [DW_OP_LLVM_entry_value 1] $r2
	@DEBUG_VALUE: mpi_sub_hlp:i <- [DW_OP_plus_uconst 1, DW_OP_stack_value] undef
	@DEBUG_VALUE: mpi_sub_hlp:d <- $r2
	@DEBUG_VALUE: mpi_sub_hlp:s <- $r1
	.loc	1 1160 23                       @ ../../../ThirdParty/mbedTLS/library/bignum.c:1160:23
	subs	r0, r0, #1
.Ltmp746:
	@DEBUG_VALUE: mpi_sub_hlp:n <- [DW_OP_LLVM_entry_value 1] $r0
	.loc	1 1160 5 is_stmt 0              @ ../../../ThirdParty/mbedTLS/library/bignum.c:1160:5
	beq	.LBB33_8
.Ltmp747:
.LBB33_3:                               @ =>This Inner Loop Header: Depth=1
	@DEBUG_VALUE: mpi_sub_hlp:d <- $r2
	@DEBUG_VALUE: mpi_sub_hlp:s <- $r1
	@DEBUG_VALUE: mpi_sub_hlp:s <- $r1
	@DEBUG_VALUE: mpi_sub_hlp:d <- $r2
	@DEBUG_VALUE: mpi_sub_hlp:c <- $r3
	@DEBUG_VALUE: mpi_sub_hlp:i <- undef
	.loc	1 1162 15 is_stmt 1             @ ../../../ThirdParty/mbedTLS/library/bignum.c:1162:15
	ldr	r6, [r2]
	.loc	1 1163 12                       @ ../../../ThirdParty/mbedTLS/library/bignum.c:1163:12
	subs	r6, r6, r3
	str	r6, [r2]
	.loc	1 1162 18                       @ ../../../ThirdParty/mbedTLS/library/bignum.c:1162:18
	mov	r3, r5
.Ltmp748:
	blo	.LBB33_5
.Ltmp749:
@ %bb.4:                                @   in Loop: Header=BB33_3 Depth=1
	@DEBUG_VALUE: mpi_sub_hlp:d <- $r2
	@DEBUG_VALUE: mpi_sub_hlp:s <- $r1
	mov	r3, r4
.Ltmp750:
.LBB33_5:                               @   in Loop: Header=BB33_3 Depth=1
	@DEBUG_VALUE: mpi_sub_hlp:d <- $r2
	@DEBUG_VALUE: mpi_sub_hlp:s <- $r1
	@DEBUG_VALUE: mpi_sub_hlp:z <- $r3
	.loc	1 1164 20                       @ ../../../ThirdParty/mbedTLS/library/bignum.c:1164:20
	ldm	r1!, {r7}
.Ltmp751:
	@DEBUG_VALUE: mpi_sub_hlp:s <- [DW_OP_LLVM_entry_value 1] $r1
	@DEBUG_VALUE: mpi_sub_hlp:s <- [DW_OP_LLVM_entry_value 1] $r1
	.loc	1 1164 25 is_stmt 0             @ ../../../ThirdParty/mbedTLS/library/bignum.c:1164:25
	cmp	r6, r7
	bhs	.LBB33_2
.Ltmp752:
@ %bb.6:                                @   in Loop: Header=BB33_3 Depth=1
	@DEBUG_VALUE: mpi_sub_hlp:z <- $r3
	@DEBUG_VALUE: mpi_sub_hlp:d <- $r2
	@DEBUG_VALUE: mpi_sub_hlp:s <- [DW_OP_LLVM_entry_value 1] $r1
	.loc	1 0 25                          @ ../../../ThirdParty/mbedTLS/library/bignum.c:0:25
	adds	r3, r3, #1
.Ltmp753:
	b	.LBB33_2
.Ltmp754:
.LBB33_7:
	@DEBUG_VALUE: mpi_sub_hlp:d <- $r2
	@DEBUG_VALUE: mpi_sub_hlp:s <- $r1
	@DEBUG_VALUE: mpi_sub_hlp:n <- $r0
	@DEBUG_VALUE: mpi_sub_hlp:i <- 0
	@DEBUG_VALUE: mpi_sub_hlp:c <- 0
	movs	r3, #0
.Ltmp755:
.LBB33_8:
	@DEBUG_VALUE: mpi_sub_hlp:d <- $r2
	@DEBUG_VALUE: mpi_sub_hlp:s <- $r1
	@DEBUG_VALUE: mpi_sub_hlp:d <- $r2
	@DEBUG_VALUE: mpi_sub_hlp:c <- $r3
	.loc	1 1168 5 is_stmt 1              @ ../../../ThirdParty/mbedTLS/library/bignum.c:1168:5
	cbz	r3, .LBB33_13
.Ltmp756:
@ %bb.9:
	@DEBUG_VALUE: mpi_sub_hlp:c <- $r3
	@DEBUG_VALUE: mpi_sub_hlp:d <- $r2
	@DEBUG_VALUE: mpi_sub_hlp:s <- $r1
	.loc	1 0 5 is_stmt 0                 @ ../../../ThirdParty/mbedTLS/library/bignum.c:0:5
	movs	r0, #1
	movs	r1, #0
.Ltmp757:
	@DEBUG_VALUE: mpi_sub_hlp:s <- [DW_OP_LLVM_entry_value 1] $r1
	b	.LBB33_11
.Ltmp758:
.LBB33_10:                              @   in Loop: Header=BB33_11 Depth=1
	@DEBUG_VALUE: mpi_sub_hlp:c <- $r3
	@DEBUG_VALUE: mpi_sub_hlp:d <- $r2
	@DEBUG_VALUE: mpi_sub_hlp:s <- [DW_OP_LLVM_entry_value 1] $r1
	@DEBUG_VALUE: mpi_sub_hlp:c <- $r5
	@DEBUG_VALUE: mpi_sub_hlp:z <- $r5
	.loc	1 1171 12 is_stmt 1             @ ../../../ThirdParty/mbedTLS/library/bignum.c:1171:12
	subs	r3, r4, r3
	stm	r2!, {r3}
.Ltmp759:
	@DEBUG_VALUE: mpi_sub_hlp:d <- [DW_OP_LLVM_entry_value 1] $r2
	@DEBUG_VALUE: mpi_sub_hlp:d <- [DW_OP_LLVM_entry_value 1] $r2
	@DEBUG_VALUE: mpi_sub_hlp:d <- $r2
	.loc	1 0 12 is_stmt 0                @ ../../../ThirdParty/mbedTLS/library/bignum.c:0:12
	mov	r3, r5
.Ltmp760:
	@DEBUG_VALUE: mpi_sub_hlp:z <- $r3
	@DEBUG_VALUE: mpi_sub_hlp:c <- $r3
	bhs	.LBB33_13
.Ltmp761:
.LBB33_11:                              @ =>This Inner Loop Header: Depth=1
	@DEBUG_VALUE: mpi_sub_hlp:c <- $r3
	@DEBUG_VALUE: mpi_sub_hlp:d <- $r2
	@DEBUG_VALUE: mpi_sub_hlp:s <- [DW_OP_LLVM_entry_value 1] $r1
	@DEBUG_VALUE: mpi_sub_hlp:d <- $r2
	@DEBUG_VALUE: mpi_sub_hlp:c <- $r3
	.loc	1 1170 15 is_stmt 1             @ ../../../ThirdParty/mbedTLS/library/bignum.c:1170:15
	ldr	r4, [r2]
	.loc	1 1170 18 is_stmt 0             @ ../../../ThirdParty/mbedTLS/library/bignum.c:1170:18
	cmp	r4, r3
	mov	r5, r0
	blo	.LBB33_10
.Ltmp762:
@ %bb.12:                               @   in Loop: Header=BB33_11 Depth=1
	@DEBUG_VALUE: mpi_sub_hlp:c <- $r3
	@DEBUG_VALUE: mpi_sub_hlp:d <- $r2
	@DEBUG_VALUE: mpi_sub_hlp:s <- [DW_OP_LLVM_entry_value 1] $r1
	mov	r5, r1
	b	.LBB33_10
.Ltmp763:
.LBB33_13:
	@DEBUG_VALUE: mpi_sub_hlp:c <- $r3
	@DEBUG_VALUE: mpi_sub_hlp:d <- $r2
	.loc	1 1175 1 is_stmt 1              @ ../../../ThirdParty/mbedTLS/library/bignum.c:1175:1
	pop	{r4, r5, r6, r7, pc}
.Ltmp764:
.Lfunc_end33:
	.size	mpi_sub_hlp, .Lfunc_end33-mpi_sub_hlp
	.cfi_endproc
	.cantunwind
	.fnend
                                        @ -- End function
	.section	.text.mbedtls_mpi_add_mpi,"ax",%progbits
	.hidden	mbedtls_mpi_add_mpi             @ -- Begin function mbedtls_mpi_add_mpi
	.globl	mbedtls_mpi_add_mpi
	.p2align	1
	.type	mbedtls_mpi_add_mpi,%function
	.code	16                              @ @mbedtls_mpi_add_mpi
	.thumb_func
mbedtls_mpi_add_mpi:
.Lfunc_begin34:
	.loc	1 1227 0                        @ ../../../ThirdParty/mbedTLS/library/bignum.c:1227:0
	.fnstart
	.cfi_startproc
@ %bb.0:
	@DEBUG_VALUE: mbedtls_mpi_add_mpi:X <- $r0
	@DEBUG_VALUE: mbedtls_mpi_add_mpi:A <- $r1
	@DEBUG_VALUE: mbedtls_mpi_add_mpi:B <- $r2
	.save	{r4, r5, r6, r7, lr}
	push	{r4, r5, r6, r7, lr}
	.cfi_def_cfa_offset 20
	.cfi_offset lr, -4
	.cfi_offset r7, -8
	.cfi_offset r6, -12
	.cfi_offset r5, -16
	.cfi_offset r4, -20
	.pad	#4
	sub	sp, #4
	.cfi_def_cfa_offset 24
	mov	r5, r2
	mov	r6, r1
	mov	r4, r0
.Ltmp765:
	@DEBUG_VALUE: mbedtls_mpi_add_mpi:B <- $r5
	@DEBUG_VALUE: mbedtls_mpi_add_mpi:A <- $r6
	@DEBUG_VALUE: mbedtls_mpi_add_mpi:X <- $r4
	.loc	1 1233 12 prologue_end          @ ../../../ThirdParty/mbedTLS/library/bignum.c:1233:12
	ldr	r7, [r1]
.Ltmp766:
	@DEBUG_VALUE: mbedtls_mpi_add_mpi:s <- $r7
	.loc	1 1234 19                       @ ../../../ThirdParty/mbedTLS/library/bignum.c:1234:19
	ldr	r0, [r2]
	.loc	1 1234 14 is_stmt 0             @ ../../../ThirdParty/mbedTLS/library/bignum.c:1234:14
	muls	r0, r7, r0
.Ltmp767:
	.loc	1 1234 9                        @ ../../../ThirdParty/mbedTLS/library/bignum.c:1234:9
	bmi	.LBB34_2
.Ltmp768:
@ %bb.1:
	@DEBUG_VALUE: mbedtls_mpi_add_mpi:s <- $r7
	@DEBUG_VALUE: mbedtls_mpi_add_mpi:A <- $r6
	@DEBUG_VALUE: mbedtls_mpi_add_mpi:B <- $r5
	@DEBUG_VALUE: mbedtls_mpi_add_mpi:X <- $r4
	.loc	1 1249 9 is_stmt 1              @ ../../../ThirdParty/mbedTLS/library/bignum.c:1249:9
	mov	r0, r4
	mov	r1, r6
	mov	r2, r5
	bl	mbedtls_mpi_add_abs
.Ltmp769:
	@DEBUG_VALUE: mbedtls_mpi_add_mpi:ret <- $r0
	.loc	1 0 9 is_stmt 0                 @ ../../../ThirdParty/mbedTLS/library/bignum.c:0:9
	cbnz	r0, .LBB34_7
	b	.LBB34_4
.Ltmp770:
.LBB34_2:
	@DEBUG_VALUE: mbedtls_mpi_add_mpi:s <- $r7
	@DEBUG_VALUE: mbedtls_mpi_add_mpi:A <- $r6
	@DEBUG_VALUE: mbedtls_mpi_add_mpi:B <- $r5
	@DEBUG_VALUE: mbedtls_mpi_add_mpi:X <- $r4
	.loc	1 1236 13 is_stmt 1             @ ../../../ThirdParty/mbedTLS/library/bignum.c:1236:13
	mov	r0, r6
	mov	r1, r5
	bl	mbedtls_mpi_cmp_abs
.Ltmp771:
	.loc	1 1236 13 is_stmt 0             @ ../../../ThirdParty/mbedTLS/library/bignum.c:1236:13
	cmp	r0, #0
	bmi	.LBB34_6
.Ltmp772:
@ %bb.3:
	@DEBUG_VALUE: mbedtls_mpi_add_mpi:s <- $r7
	@DEBUG_VALUE: mbedtls_mpi_add_mpi:A <- $r6
	@DEBUG_VALUE: mbedtls_mpi_add_mpi:B <- $r5
	@DEBUG_VALUE: mbedtls_mpi_add_mpi:X <- $r4
	.loc	1 1238 13 is_stmt 1             @ ../../../ThirdParty/mbedTLS/library/bignum.c:1238:13
	mov	r0, r4
	mov	r1, r6
	mov	r2, r5
	bl	mbedtls_mpi_sub_abs
.Ltmp773:
	@DEBUG_VALUE: mbedtls_mpi_add_mpi:ret <- $r0
	.loc	1 1238 13 is_stmt 0             @ ../../../ThirdParty/mbedTLS/library/bignum.c:1238:13
	cbnz	r0, .LBB34_7
.Ltmp774:
.LBB34_4:
	@DEBUG_VALUE: mbedtls_mpi_add_mpi:s <- $r7
	@DEBUG_VALUE: mbedtls_mpi_add_mpi:A <- $r6
	@DEBUG_VALUE: mbedtls_mpi_add_mpi:B <- $r5
	@DEBUG_VALUE: mbedtls_mpi_add_mpi:X <- $r4
	@DEBUG_VALUE: mbedtls_mpi_add_mpi:ret <- $r0
	.loc	1 0 0                           @ ../../../ThirdParty/mbedTLS/library/bignum.c:0:0
	str	r7, [r4]
.Ltmp775:
.LBB34_5:
	@DEBUG_VALUE: mbedtls_mpi_add_mpi:s <- $r7
	@DEBUG_VALUE: mbedtls_mpi_add_mpi:A <- $r6
	@DEBUG_VALUE: mbedtls_mpi_add_mpi:B <- $r5
	@DEBUG_VALUE: mbedtls_mpi_add_mpi:X <- $r4
	movs	r0, #0
.Ltmp776:
	@DEBUG_VALUE: mbedtls_mpi_add_mpi:ret <- $r0
	@DEBUG_LABEL: mbedtls_mpi_add_mpi:cleanup
	.loc	1 1255 5 is_stmt 1              @ ../../../ThirdParty/mbedTLS/library/bignum.c:1255:5
	add	sp, #4
	pop	{r4, r5, r6, r7, pc}
.Ltmp777:
.LBB34_6:
	@DEBUG_VALUE: mbedtls_mpi_add_mpi:s <- $r7
	@DEBUG_VALUE: mbedtls_mpi_add_mpi:A <- $r6
	@DEBUG_VALUE: mbedtls_mpi_add_mpi:B <- $r5
	@DEBUG_VALUE: mbedtls_mpi_add_mpi:X <- $r4
	.loc	1 1243 13                       @ ../../../ThirdParty/mbedTLS/library/bignum.c:1243:13
	mov	r0, r4
	mov	r1, r5
	mov	r2, r6
	bl	mbedtls_mpi_sub_abs
.Ltmp778:
	@DEBUG_VALUE: mbedtls_mpi_add_mpi:ret <- $r0
	.loc	1 1243 13 is_stmt 0             @ ../../../ThirdParty/mbedTLS/library/bignum.c:1243:13
	cbz	r0, .LBB34_8
.Ltmp779:
.LBB34_7:
	@DEBUG_VALUE: mbedtls_mpi_add_mpi:s <- $r7
	@DEBUG_VALUE: mbedtls_mpi_add_mpi:A <- $r6
	@DEBUG_VALUE: mbedtls_mpi_add_mpi:B <- $r5
	@DEBUG_VALUE: mbedtls_mpi_add_mpi:X <- $r4
	@DEBUG_VALUE: mbedtls_mpi_add_mpi:ret <- $r0
	@DEBUG_VALUE: mbedtls_mpi_add_mpi:ret <- $r0
	@DEBUG_LABEL: mbedtls_mpi_add_mpi:cleanup
	.loc	1 1255 5 is_stmt 1              @ ../../../ThirdParty/mbedTLS/library/bignum.c:1255:5
	add	sp, #4
	pop	{r4, r5, r6, r7, pc}
.Ltmp780:
.LBB34_8:
	@DEBUG_VALUE: mbedtls_mpi_add_mpi:s <- $r7
	@DEBUG_VALUE: mbedtls_mpi_add_mpi:A <- $r6
	@DEBUG_VALUE: mbedtls_mpi_add_mpi:B <- $r5
	@DEBUG_VALUE: mbedtls_mpi_add_mpi:X <- $r4
	@DEBUG_VALUE: mbedtls_mpi_add_mpi:ret <- $r0
	.loc	1 1244 20                       @ ../../../ThirdParty/mbedTLS/library/bignum.c:1244:20
	rsbs	r0, r7, #0
.Ltmp781:
	.loc	1 1244 18 is_stmt 0             @ ../../../ThirdParty/mbedTLS/library/bignum.c:1244:18
	str	r0, [r4]
	b	.LBB34_5
.Ltmp782:
.Lfunc_end34:
	.size	mbedtls_mpi_add_mpi, .Lfunc_end34-mbedtls_mpi_add_mpi
	.cfi_endproc
	.cantunwind
	.fnend
                                        @ -- End function
	.section	.text.mbedtls_mpi_sub_mpi,"ax",%progbits
	.hidden	mbedtls_mpi_sub_mpi             @ -- Begin function mbedtls_mpi_sub_mpi
	.globl	mbedtls_mpi_sub_mpi
	.p2align	1
	.type	mbedtls_mpi_sub_mpi,%function
	.code	16                              @ @mbedtls_mpi_sub_mpi
	.thumb_func
mbedtls_mpi_sub_mpi:
.Lfunc_begin35:
	.loc	1 1262 0 is_stmt 1              @ ../../../ThirdParty/mbedTLS/library/bignum.c:1262:0
	.fnstart
	.cfi_startproc
@ %bb.0:
	@DEBUG_VALUE: mbedtls_mpi_sub_mpi:X <- $r0
	@DEBUG_VALUE: mbedtls_mpi_sub_mpi:A <- $r1
	@DEBUG_VALUE: mbedtls_mpi_sub_mpi:B <- $r2
	.save	{r4, r5, r6, r7, lr}
	push	{r4, r5, r6, r7, lr}
	.cfi_def_cfa_offset 20
	.cfi_offset lr, -4
	.cfi_offset r7, -8
	.cfi_offset r6, -12
	.cfi_offset r5, -16
	.cfi_offset r4, -20
	.pad	#4
	sub	sp, #4
	.cfi_def_cfa_offset 24
	mov	r5, r2
	mov	r6, r1
	mov	r4, r0
.Ltmp783:
	@DEBUG_VALUE: mbedtls_mpi_sub_mpi:B <- $r5
	@DEBUG_VALUE: mbedtls_mpi_sub_mpi:A <- $r6
	@DEBUG_VALUE: mbedtls_mpi_sub_mpi:X <- $r4
	.loc	1 1268 12 prologue_end          @ ../../../ThirdParty/mbedTLS/library/bignum.c:1268:12
	ldr	r7, [r1]
.Ltmp784:
	@DEBUG_VALUE: mbedtls_mpi_sub_mpi:s <- $r7
	.loc	1 1269 19                       @ ../../../ThirdParty/mbedTLS/library/bignum.c:1269:19
	ldr	r0, [r2]
	.loc	1 1269 14 is_stmt 0             @ ../../../ThirdParty/mbedTLS/library/bignum.c:1269:14
	muls	r0, r7, r0
.Ltmp785:
	.loc	1 1269 9                        @ ../../../ThirdParty/mbedTLS/library/bignum.c:1269:9
	cmp	r0, #1
	blt	.LBB35_3
.Ltmp786:
@ %bb.1:
	@DEBUG_VALUE: mbedtls_mpi_sub_mpi:s <- $r7
	@DEBUG_VALUE: mbedtls_mpi_sub_mpi:A <- $r6
	@DEBUG_VALUE: mbedtls_mpi_sub_mpi:B <- $r5
	@DEBUG_VALUE: mbedtls_mpi_sub_mpi:X <- $r4
	.loc	1 1271 13 is_stmt 1             @ ../../../ThirdParty/mbedTLS/library/bignum.c:1271:13
	mov	r0, r6
	mov	r1, r5
	bl	mbedtls_mpi_cmp_abs
.Ltmp787:
	.loc	1 1271 13 is_stmt 0             @ ../../../ThirdParty/mbedTLS/library/bignum.c:1271:13
	cmp	r0, #0
	bmi	.LBB35_5
.Ltmp788:
@ %bb.2:
	@DEBUG_VALUE: mbedtls_mpi_sub_mpi:s <- $r7
	@DEBUG_VALUE: mbedtls_mpi_sub_mpi:A <- $r6
	@DEBUG_VALUE: mbedtls_mpi_sub_mpi:B <- $r5
	@DEBUG_VALUE: mbedtls_mpi_sub_mpi:X <- $r4
	.loc	1 1273 13 is_stmt 1             @ ../../../ThirdParty/mbedTLS/library/bignum.c:1273:13
	mov	r0, r4
	mov	r1, r6
	mov	r2, r5
	bl	mbedtls_mpi_sub_abs
.Ltmp789:
	@DEBUG_VALUE: mbedtls_mpi_sub_mpi:ret <- $r0
	.loc	1 0 13 is_stmt 0                @ ../../../ThirdParty/mbedTLS/library/bignum.c:0:13
	cbnz	r0, .LBB35_6
	b	.LBB35_4
.Ltmp790:
.LBB35_3:
	@DEBUG_VALUE: mbedtls_mpi_sub_mpi:s <- $r7
	@DEBUG_VALUE: mbedtls_mpi_sub_mpi:A <- $r6
	@DEBUG_VALUE: mbedtls_mpi_sub_mpi:B <- $r5
	@DEBUG_VALUE: mbedtls_mpi_sub_mpi:X <- $r4
	.loc	1 1284 9 is_stmt 1              @ ../../../ThirdParty/mbedTLS/library/bignum.c:1284:9
	mov	r0, r4
	mov	r1, r6
	mov	r2, r5
	bl	mbedtls_mpi_add_abs
.Ltmp791:
	@DEBUG_VALUE: mbedtls_mpi_sub_mpi:ret <- $r0
	.loc	1 1284 9 is_stmt 0              @ ../../../ThirdParty/mbedTLS/library/bignum.c:1284:9
	cbnz	r0, .LBB35_6
.Ltmp792:
.LBB35_4:
	@DEBUG_VALUE: mbedtls_mpi_sub_mpi:s <- $r7
	@DEBUG_VALUE: mbedtls_mpi_sub_mpi:A <- $r6
	@DEBUG_VALUE: mbedtls_mpi_sub_mpi:B <- $r5
	@DEBUG_VALUE: mbedtls_mpi_sub_mpi:X <- $r4
	@DEBUG_VALUE: mbedtls_mpi_sub_mpi:ret <- $r0
	.loc	1 0 0                           @ ../../../ThirdParty/mbedTLS/library/bignum.c:0:0
	str	r7, [r4]
	b	.LBB35_8
.Ltmp793:
.LBB35_5:
	@DEBUG_VALUE: mbedtls_mpi_sub_mpi:s <- $r7
	@DEBUG_VALUE: mbedtls_mpi_sub_mpi:A <- $r6
	@DEBUG_VALUE: mbedtls_mpi_sub_mpi:B <- $r5
	@DEBUG_VALUE: mbedtls_mpi_sub_mpi:X <- $r4
	.loc	1 1278 13 is_stmt 1             @ ../../../ThirdParty/mbedTLS/library/bignum.c:1278:13
	mov	r0, r4
	mov	r1, r5
	mov	r2, r6
	bl	mbedtls_mpi_sub_abs
.Ltmp794:
	@DEBUG_VALUE: mbedtls_mpi_sub_mpi:ret <- $r0
	.loc	1 1278 13 is_stmt 0             @ ../../../ThirdParty/mbedTLS/library/bignum.c:1278:13
	cbz	r0, .LBB35_7
.Ltmp795:
.LBB35_6:
	@DEBUG_VALUE: mbedtls_mpi_sub_mpi:s <- $r7
	@DEBUG_VALUE: mbedtls_mpi_sub_mpi:A <- $r6
	@DEBUG_VALUE: mbedtls_mpi_sub_mpi:B <- $r5
	@DEBUG_VALUE: mbedtls_mpi_sub_mpi:X <- $r4
	@DEBUG_VALUE: mbedtls_mpi_sub_mpi:ret <- $r0
	@DEBUG_VALUE: mbedtls_mpi_sub_mpi:ret <- $r0
	@DEBUG_LABEL: mbedtls_mpi_sub_mpi:cleanup
	.loc	1 1290 5 is_stmt 1              @ ../../../ThirdParty/mbedTLS/library/bignum.c:1290:5
	add	sp, #4
	pop	{r4, r5, r6, r7, pc}
.Ltmp796:
.LBB35_7:
	@DEBUG_VALUE: mbedtls_mpi_sub_mpi:s <- $r7
	@DEBUG_VALUE: mbedtls_mpi_sub_mpi:A <- $r6
	@DEBUG_VALUE: mbedtls_mpi_sub_mpi:B <- $r5
	@DEBUG_VALUE: mbedtls_mpi_sub_mpi:X <- $r4
	@DEBUG_VALUE: mbedtls_mpi_sub_mpi:ret <- $r0
	.loc	1 1279 20                       @ ../../../ThirdParty/mbedTLS/library/bignum.c:1279:20
	rsbs	r0, r7, #0
.Ltmp797:
	.loc	1 1279 18 is_stmt 0             @ ../../../ThirdParty/mbedTLS/library/bignum.c:1279:18
	str	r0, [r4]
.Ltmp798:
.LBB35_8:
	@DEBUG_VALUE: mbedtls_mpi_sub_mpi:s <- $r7
	@DEBUG_VALUE: mbedtls_mpi_sub_mpi:A <- $r6
	@DEBUG_VALUE: mbedtls_mpi_sub_mpi:B <- $r5
	@DEBUG_VALUE: mbedtls_mpi_sub_mpi:X <- $r4
	.loc	1 0 18                          @ ../../../ThirdParty/mbedTLS/library/bignum.c:0:18
	movs	r0, #0
.Ltmp799:
	@DEBUG_VALUE: mbedtls_mpi_sub_mpi:ret <- $r0
	@DEBUG_LABEL: mbedtls_mpi_sub_mpi:cleanup
	.loc	1 1290 5 is_stmt 1              @ ../../../ThirdParty/mbedTLS/library/bignum.c:1290:5
	add	sp, #4
	pop	{r4, r5, r6, r7, pc}
.Ltmp800:
.Lfunc_end35:
	.size	mbedtls_mpi_sub_mpi, .Lfunc_end35-mbedtls_mpi_sub_mpi
	.cfi_endproc
	.cantunwind
	.fnend
                                        @ -- End function
	.section	.text.mbedtls_mpi_mul_mpi,"ax",%progbits
	.hidden	mbedtls_mpi_mul_mpi             @ -- Begin function mbedtls_mpi_mul_mpi
	.globl	mbedtls_mpi_mul_mpi
	.p2align	1
	.type	mbedtls_mpi_mul_mpi,%function
	.code	16                              @ @mbedtls_mpi_mul_mpi
	.thumb_func
mbedtls_mpi_mul_mpi:
.Lfunc_begin36:
	.loc	1 1407 0                        @ ../../../ThirdParty/mbedTLS/library/bignum.c:1407:0
	.fnstart
	.cfi_startproc
@ %bb.0:
	@DEBUG_VALUE: mbedtls_mpi_mul_mpi:X <- $r0
	@DEBUG_VALUE: mbedtls_mpi_mul_mpi:A <- $r1
	@DEBUG_VALUE: mbedtls_mpi_mul_mpi:B <- $r2
	.save	{r4, r5, r6, r7, lr}
	push	{r4, r5, r6, r7, lr}
	.cfi_def_cfa_offset 20
	.cfi_offset lr, -4
	.cfi_offset r7, -8
	.cfi_offset r6, -12
	.cfi_offset r5, -16
	.cfi_offset r4, -20
	.pad	#44
	sub	sp, #44
	.cfi_def_cfa_offset 64
	mov	r7, r2
	mov	r4, r1
	mov	r5, r0
.Ltmp801:
	@DEBUG_VALUE: mbedtls_mpi_mul_mpi:B <- $r7
	@DEBUG_VALUE: mbedtls_mpi_mul_mpi:A <- $r4
	@DEBUG_VALUE: mbedtls_mpi_mul_mpi:X <- $r5
	add	r0, sp, #32
.Ltmp802:
	.loc	1 1415 5 prologue_end           @ ../../../ThirdParty/mbedTLS/library/bignum.c:1415:5
	bl	mbedtls_mpi_init
	add	r0, sp, #20
	.loc	1 1416 5                        @ ../../../ThirdParty/mbedTLS/library/bignum.c:1416:5
	bl	mbedtls_mpi_init
	.loc	1 1418 9                        @ ../../../ThirdParty/mbedTLS/library/bignum.c:1418:9
	cmp	r5, r4
	beq	.LBB36_7
.Ltmp803:
@ %bb.1:
	@DEBUG_VALUE: mbedtls_mpi_mul_mpi:B <- $r7
	@DEBUG_VALUE: mbedtls_mpi_mul_mpi:X <- $r5
	@DEBUG_VALUE: mbedtls_mpi_mul_mpi:A <- $r4
	.loc	1 0 9 is_stmt 0                 @ ../../../ThirdParty/mbedTLS/library/bignum.c:0:9
	str	r4, [sp, #8]                    @ 4-byte Spill
.Ltmp804:
	@DEBUG_VALUE: mbedtls_mpi_mul_mpi:A <- [DW_OP_plus_uconst 8] [$sp+0]
.LBB36_2:
	@DEBUG_VALUE: mbedtls_mpi_mul_mpi:B <- $r7
	@DEBUG_VALUE: mbedtls_mpi_mul_mpi:X <- $r5
	@DEBUG_VALUE: mbedtls_mpi_mul_mpi:A <- [DW_OP_plus_uconst 8] [$sp+0]
	.loc	1 1422 9 is_stmt 1              @ ../../../ThirdParty/mbedTLS/library/bignum.c:1422:9
	cmp	r5, r7
	beq	.LBB36_19
.Ltmp805:
@ %bb.3:
	@DEBUG_VALUE: mbedtls_mpi_mul_mpi:B <- $r7
	@DEBUG_VALUE: mbedtls_mpi_mul_mpi:X <- $r5
	@DEBUG_VALUE: mbedtls_mpi_mul_mpi:A <- [DW_OP_plus_uconst 8] [$sp+0]
	.loc	1 0 9 is_stmt 0                 @ ../../../ThirdParty/mbedTLS/library/bignum.c:0:9
	mov	r6, r7
.Ltmp806:
	@DEBUG_VALUE: mbedtls_mpi_mul_mpi:B <- $r6
.LBB36_4:
	@DEBUG_VALUE: mbedtls_mpi_mul_mpi:X <- $r5
	@DEBUG_VALUE: mbedtls_mpi_mul_mpi:A <- [DW_OP_plus_uconst 8] [$sp+0]
	@DEBUG_VALUE: mbedtls_mpi_mul_mpi:B <- $r6
	ldr	r3, [sp, #8]                    @ 4-byte Reload
.Ltmp807:
	.loc	1 1427 17 is_stmt 1             @ ../../../ThirdParty/mbedTLS/library/bignum.c:1427:17
	ldr	r0, [r3, #4]
.Ltmp808:
	@DEBUG_VALUE: mbedtls_mpi_mul_mpi:i <- $r0
	.loc	1 1427 10 is_stmt 0             @ ../../../ThirdParty/mbedTLS/library/bignum.c:1427:10
	adds	r7, r0, #1
	lsls	r0, r0, #2
.Ltmp809:
	subs	r1, r0, #4
	movs	r0, #0
.Ltmp810:
.LBB36_5:                               @ =>This Inner Loop Header: Depth=1
	@DEBUG_VALUE: mbedtls_mpi_mul_mpi:B <- $r6
	@DEBUG_VALUE: mbedtls_mpi_mul_mpi:X <- $r5
	@DEBUG_VALUE: mbedtls_mpi_mul_mpi:A <- [DW_OP_plus_uconst 8] [$sp+0]
	@DEBUG_VALUE: mbedtls_mpi_mul_mpi:i <- undef
	.loc	1 1427 5                        @ ../../../ThirdParty/mbedTLS/library/bignum.c:1427:5
	cmp	r7, #1
	beq	.LBB36_8
.Ltmp811:
@ %bb.6:                                @   in Loop: Header=BB36_5 Depth=1
	@DEBUG_VALUE: mbedtls_mpi_mul_mpi:B <- $r6
	@DEBUG_VALUE: mbedtls_mpi_mul_mpi:X <- $r5
	@DEBUG_VALUE: mbedtls_mpi_mul_mpi:A <- [DW_OP_plus_uconst 8] [$sp+0]
	.loc	1 1428 16 is_stmt 1             @ ../../../ThirdParty/mbedTLS/library/bignum.c:1428:16
	ldr	r2, [r3, #8]
	.loc	1 1428 13 is_stmt 0             @ ../../../ThirdParty/mbedTLS/library/bignum.c:1428:13
	ldr	r2, [r2, r1]
.Ltmp812:
	.loc	1 1428 13                       @ ../../../ThirdParty/mbedTLS/library/bignum.c:1428:13
	subs	r1, r1, #4
	subs	r7, r7, #1
	cmp	r2, #0
	beq	.LBB36_5
	b	.LBB36_9
.Ltmp813:
.LBB36_7:
	@DEBUG_VALUE: mbedtls_mpi_mul_mpi:B <- $r7
	@DEBUG_VALUE: mbedtls_mpi_mul_mpi:X <- $r5
	@DEBUG_VALUE: mbedtls_mpi_mul_mpi:A <- $r4
	.loc	1 0 13                          @ ../../../ThirdParty/mbedTLS/library/bignum.c:0:13
	add	r0, sp, #32
	str	r0, [sp, #8]                    @ 4-byte Spill
.Ltmp814:
	.loc	1 1419 9 is_stmt 1              @ ../../../ThirdParty/mbedTLS/library/bignum.c:1419:9
	mov	r1, r4
	bl	mbedtls_mpi_copy
.Ltmp815:
	@DEBUG_VALUE: mbedtls_mpi_mul_mpi:ret <- $r0
	.loc	1 1419 9 is_stmt 0              @ ../../../ThirdParty/mbedTLS/library/bignum.c:1419:9
	cbnz	r0, .LBB36_20
	b	.LBB36_2
.Ltmp816:
.LBB36_8:
	@DEBUG_VALUE: mbedtls_mpi_mul_mpi:B <- $r6
	@DEBUG_VALUE: mbedtls_mpi_mul_mpi:X <- $r5
	@DEBUG_VALUE: mbedtls_mpi_mul_mpi:A <- [DW_OP_plus_uconst 8] [$sp+0]
	.loc	1 0 0                           @ ../../../ThirdParty/mbedTLS/library/bignum.c:0:0
	mov	r7, r0
.Ltmp817:
.LBB36_9:
	@DEBUG_VALUE: mbedtls_mpi_mul_mpi:B <- $r6
	@DEBUG_VALUE: mbedtls_mpi_mul_mpi:X <- $r5
	@DEBUG_VALUE: mbedtls_mpi_mul_mpi:A <- [DW_OP_plus_uconst 8] [$sp+0]
	@DEBUG_VALUE: mbedtls_mpi_mul_mpi:i <- $r7
	.loc	1 1431 17 is_stmt 1             @ ../../../ThirdParty/mbedTLS/library/bignum.c:1431:17
	ldr	r1, [r6, #4]
.Ltmp818:
	@DEBUG_VALUE: mbedtls_mpi_mul_mpi:j <- $r1
	.loc	1 1431 10 is_stmt 0             @ ../../../ThirdParty/mbedTLS/library/bignum.c:1431:10
	adds	r4, r1, #1
	lsls	r1, r1, #2
.Ltmp819:
	subs	r1, r1, #4
.Ltmp820:
.LBB36_10:                              @ =>This Inner Loop Header: Depth=1
	@DEBUG_VALUE: mbedtls_mpi_mul_mpi:i <- $r7
	@DEBUG_VALUE: mbedtls_mpi_mul_mpi:B <- $r6
	@DEBUG_VALUE: mbedtls_mpi_mul_mpi:X <- $r5
	@DEBUG_VALUE: mbedtls_mpi_mul_mpi:A <- [DW_OP_plus_uconst 8] [$sp+0]
	@DEBUG_VALUE: mbedtls_mpi_mul_mpi:j <- undef
	.loc	1 1431 5                        @ ../../../ThirdParty/mbedTLS/library/bignum.c:1431:5
	cmp	r4, #1
	beq	.LBB36_12
.Ltmp821:
@ %bb.11:                               @   in Loop: Header=BB36_10 Depth=1
	@DEBUG_VALUE: mbedtls_mpi_mul_mpi:i <- $r7
	@DEBUG_VALUE: mbedtls_mpi_mul_mpi:B <- $r6
	@DEBUG_VALUE: mbedtls_mpi_mul_mpi:X <- $r5
	@DEBUG_VALUE: mbedtls_mpi_mul_mpi:A <- [DW_OP_plus_uconst 8] [$sp+0]
	.loc	1 1432 16 is_stmt 1             @ ../../../ThirdParty/mbedTLS/library/bignum.c:1432:16
	ldr	r2, [r6, #8]
	.loc	1 1432 13 is_stmt 0             @ ../../../ThirdParty/mbedTLS/library/bignum.c:1432:13
	ldr	r2, [r2, r1]
.Ltmp822:
	.loc	1 1432 13                       @ ../../../ThirdParty/mbedTLS/library/bignum.c:1432:13
	subs	r1, r1, #4
	subs	r4, r4, #1
	cmp	r2, #0
	beq	.LBB36_10
	b	.LBB36_13
.Ltmp823:
.LBB36_12:
	@DEBUG_VALUE: mbedtls_mpi_mul_mpi:i <- $r7
	@DEBUG_VALUE: mbedtls_mpi_mul_mpi:B <- $r6
	@DEBUG_VALUE: mbedtls_mpi_mul_mpi:X <- $r5
	@DEBUG_VALUE: mbedtls_mpi_mul_mpi:A <- [DW_OP_plus_uconst 8] [$sp+0]
	.loc	1 0 0                           @ ../../../ThirdParty/mbedTLS/library/bignum.c:0:0
	mov	r4, r0
.Ltmp824:
.LBB36_13:
	@DEBUG_VALUE: mbedtls_mpi_mul_mpi:i <- $r7
	@DEBUG_VALUE: mbedtls_mpi_mul_mpi:B <- $r6
	@DEBUG_VALUE: mbedtls_mpi_mul_mpi:X <- $r5
	@DEBUG_VALUE: mbedtls_mpi_mul_mpi:A <- [DW_OP_plus_uconst 8] [$sp+0]
	@DEBUG_VALUE: mbedtls_mpi_mul_mpi:j <- $r4
	.loc	1 1435 5 is_stmt 1              @ ../../../ThirdParty/mbedTLS/library/bignum.c:1435:5
	adds	r1, r4, r7
	mov	r0, r5
	bl	mbedtls_mpi_grow
.Ltmp825:
	@DEBUG_VALUE: mbedtls_mpi_mul_mpi:ret <- $r0
	.loc	1 1435 5 is_stmt 0              @ ../../../ThirdParty/mbedTLS/library/bignum.c:1435:5
	cbnz	r0, .LBB36_20
.Ltmp826:
@ %bb.14:
	@DEBUG_VALUE: mbedtls_mpi_mul_mpi:i <- $r7
	@DEBUG_VALUE: mbedtls_mpi_mul_mpi:B <- $r6
	@DEBUG_VALUE: mbedtls_mpi_mul_mpi:X <- $r5
	@DEBUG_VALUE: mbedtls_mpi_mul_mpi:j <- $r4
	@DEBUG_VALUE: mbedtls_mpi_mul_mpi:ret <- $r0
	@DEBUG_VALUE: mbedtls_mpi_mul_mpi:A <- [DW_OP_plus_uconst 8] [$sp+0]
	.loc	1 0 5                           @ ../../../ThirdParty/mbedTLS/library/bignum.c:0:5
	movs	r1, #0
.Ltmp827:
	.loc	1 1436 5 is_stmt 1              @ ../../../ThirdParty/mbedTLS/library/bignum.c:1436:5
	mov	r0, r5
.Ltmp828:
	bl	mbedtls_mpi_lset
.Ltmp829:
	@DEBUG_VALUE: mbedtls_mpi_mul_mpi:ret <- $r0
	.loc	1 1436 5 is_stmt 0              @ ../../../ThirdParty/mbedTLS/library/bignum.c:1436:5
	cbnz	r0, .LBB36_20
.Ltmp830:
@ %bb.15:
	@DEBUG_VALUE: mbedtls_mpi_mul_mpi:i <- $r7
	@DEBUG_VALUE: mbedtls_mpi_mul_mpi:B <- $r6
	@DEBUG_VALUE: mbedtls_mpi_mul_mpi:X <- $r5
	@DEBUG_VALUE: mbedtls_mpi_mul_mpi:j <- $r4
	@DEBUG_VALUE: mbedtls_mpi_mul_mpi:ret <- $r0
	@DEBUG_VALUE: mbedtls_mpi_mul_mpi:A <- [DW_OP_plus_uconst 8] [$sp+0]
	@DEBUG_VALUE: mbedtls_mpi_mul_mpi:j <- $r4
	.loc	1 0 5                           @ ../../../ThirdParty/mbedTLS/library/bignum.c:0:5
	str	r0, [sp, #4]                    @ 4-byte Spill
.Ltmp831:
