	.text
	.syntax unified
	.eabi_attribute	67, "2.09"	@ Tag_conformance
	.cpu	cortex-m23
	.eabi_attribute	6, 16	@ Tag_CPU_arch
	.eabi_attribute	7, 77	@ Tag_CPU_arch_profile
	.eabi_attribute	8, 0	@ Tag_ARM_ISA_use
	.eabi_attribute	9, 3	@ Tag_THUMB_ISA_use
	.eabi_attribute	34, 0	@ Tag_CPU_unaligned_access
	.eabi_attribute	17, 1	@ Tag_ABI_PCS_GOT_use
	.eabi_attribute	20, 2	@ Tag_ABI_FP_denormal
	.eabi_attribute	21, 0	@ Tag_ABI_FP_exceptions
	.eabi_attribute	23, 1	@ Tag_ABI_FP_number_model
	.eabi_attribute	24, 1	@ Tag_ABI_align_needed
	.eabi_attribute	25, 1	@ Tag_ABI_align_preserved
	.eabi_attribute	38, 1	@ Tag_ABI_FP_16bit_format
	.eabi_attribute	18, 2	@ Tag_ABI_PCS_wchar_t
	.eabi_attribute	26, 1	@ Tag_ABI_enum_size
	.eabi_attribute	14, 0	@ Tag_ABI_PCS_R9_use
	.file	"blowfish.c"
	.file	1 "C:\\" "Keil_v5\\ARM\\ARMCLANG\\Bin\\..\\include\\stdint.h"
	.file	2 "C:\\Users\\shw26\\OneDrive\\Desktop\\2021\\2021-1\\\354\272\241\354\212\244\355\206\244\353\224\224\354\236\220\354\235\2702\\Nuvoton\\M2351_BSP_v3.00.004\\M2351Series_BSP_CMSIS_V3.00.004\\MyProject\\PulseMonitoring\\Secure" "../../../ThirdParty/mbedTLS/library/blowfish.c"
	.section	.text.mbedtls_blowfish_init,"ax",%progbits
	.hidden	mbedtls_blowfish_init           @ -- Begin function mbedtls_blowfish_init
	.globl	mbedtls_blowfish_init
	.p2align	2
	.type	mbedtls_blowfish_init,%function
	.code	16                              @ @mbedtls_blowfish_init
	.thumb_func
mbedtls_blowfish_init:
.Lfunc_begin0:
	.loc	2 161 0                         @ ../../../ThirdParty/mbedTLS/library/blowfish.c:161:0
	.fnstart
	.cfi_sections .debug_frame
	.cfi_startproc
@ %bb.0:
	@DEBUG_VALUE: mbedtls_blowfish_init:ctx <- $r0
	@DEBUG_VALUE: mbedtls_blowfish_init:ctx <- $r0
	.save	{r7, lr}
	push	{r7, lr}
	.cfi_def_cfa_offset 8
	.cfi_offset lr, -4
	.cfi_offset r7, -8
	ldr	r1, __arm_cp.0_0
	@DEBUG_VALUE: mbedtls_blowfish_init:ctx <- $r0
.Ltmp0:
	.loc	2 163 5 prologue_end            @ ../../../ThirdParty/mbedTLS/library/blowfish.c:163:5
	bl	__aeabi_memclr4
.Ltmp1:
	@DEBUG_VALUE: mbedtls_blowfish_init:ctx <- [DW_OP_LLVM_entry_value 1] $r0
	.loc	2 164 1                         @ ../../../ThirdParty/mbedTLS/library/blowfish.c:164:1
	pop	{r7, pc}
.Ltmp2:
	.p2align	2
@ %bb.1:
	.loc	2 0 1 is_stmt 0                 @ ../../../ThirdParty/mbedTLS/library/blowfish.c:0:1
__arm_cp.0_0:
	.long	4168                            @ 0x1048
.Lcpi_end0:
	.size	__arm_cp.0_0, .Lcpi_end0-__arm_cp.0_0
.Lfunc_end0:
	.size	mbedtls_blowfish_init, .Lfunc_end0-mbedtls_blowfish_init
	.cfi_endproc
	.cantunwind
	.fnend
                                        @ -- End function
	.section	.text.mbedtls_blowfish_free,"ax",%progbits
	.hidden	mbedtls_blowfish_free           @ -- Begin function mbedtls_blowfish_free
	.globl	mbedtls_blowfish_free
	.p2align	2
	.type	mbedtls_blowfish_free,%function
	.code	16                              @ @mbedtls_blowfish_free
	.thumb_func
mbedtls_blowfish_free:
.Lfunc_begin1:
	.loc	2 167 0 is_stmt 1               @ ../../../ThirdParty/mbedTLS/library/blowfish.c:167:0
	.fnstart
	.cfi_startproc
@ %bb.0:
	@DEBUG_VALUE: mbedtls_blowfish_free:ctx <- $r0
	@DEBUG_VALUE: mbedtls_blowfish_free:ctx <- $r0
	.save	{r7, lr}
	push	{r7, lr}
	.cfi_def_cfa_offset 8
	.cfi_offset lr, -4
	.cfi_offset r7, -8
.Ltmp3:
	.loc	2 168 9 prologue_end            @ ../../../ThirdParty/mbedTLS/library/blowfish.c:168:9
	cbz	r0, .LBB1_2
.Ltmp4:
@ %bb.1:
	@DEBUG_VALUE: mbedtls_blowfish_free:ctx <- $r0
	.loc	2 0 9 is_stmt 0                 @ ../../../ThirdParty/mbedTLS/library/blowfish.c:0:9
	ldr	r1, __arm_cp.1_0
	.loc	2 171 5 is_stmt 1               @ ../../../ThirdParty/mbedTLS/library/blowfish.c:171:5
	bl	mbedtls_platform_zeroize
.Ltmp5:
	@DEBUG_VALUE: mbedtls_blowfish_free:ctx <- [DW_OP_LLVM_entry_value 1] $r0
.LBB1_2:
	.loc	2 172 1                         @ ../../../ThirdParty/mbedTLS/library/blowfish.c:172:1
	pop	{r7, pc}
.Ltmp6:
	.p2align	2
@ %bb.3:
	.loc	2 0 1 is_stmt 0                 @ ../../../ThirdParty/mbedTLS/library/blowfish.c:0:1
__arm_cp.1_0:
	.long	4168                            @ 0x1048
.Lcpi_end1:
	.size	__arm_cp.1_0, .Lcpi_end1-__arm_cp.1_0
.Lfunc_end1:
	.size	mbedtls_blowfish_free, .Lfunc_end1-mbedtls_blowfish_free
	.cfi_endproc
	.cantunwind
	.fnend
                                        @ -- End function
	.section	.text.mbedtls_blowfish_setkey,"ax",%progbits
	.hidden	mbedtls_blowfish_setkey         @ -- Begin function mbedtls_blowfish_setkey
	.globl	mbedtls_blowfish_setkey
	.p2align	2
	.type	mbedtls_blowfish_setkey,%function
	.code	16                              @ @mbedtls_blowfish_setkey
	.thumb_func
mbedtls_blowfish_setkey:
.Lfunc_begin2:
	.loc	2 180 0 is_stmt 1               @ ../../../ThirdParty/mbedTLS/library/blowfish.c:180:0
	.fnstart
	.cfi_startproc
@ %bb.0:
	@DEBUG_VALUE: mbedtls_blowfish_setkey:ctx <- $r0
	@DEBUG_VALUE: mbedtls_blowfish_setkey:key <- $r1
	@DEBUG_VALUE: mbedtls_blowfish_setkey:keybits <- $r2
	.save	{r4, r5, r6, r7, lr}
	push	{r4, r5, r6, r7, lr}
	.cfi_def_cfa_offset 20
	.cfi_offset lr, -4
	.cfi_offset r7, -8
	.cfi_offset r6, -12
	.cfi_offset r5, -16
	.cfi_offset r4, -20
	.pad	#28
	sub	sp, #28
	.cfi_def_cfa_offset 48
	mov	r5, r1
	mov	r4, r0
	movs	r0, #1
.Ltmp7:
	@DEBUG_VALUE: mbedtls_blowfish_setkey:ctx <- [DW_OP_LLVM_entry_value 1] $r0
	mvns	r0, r0
	str	r0, [sp, #8]                    @ 4-byte Spill
	@DEBUG_VALUE: mbedtls_blowfish_setkey:keybits <- $r2
.Ltmp8:
	@DEBUG_VALUE: mbedtls_blowfish_setkey:key <- $r5
	@DEBUG_VALUE: mbedtls_blowfish_setkey:ctx <- $r4
	.loc	2 0 0 prologue_end              @ ../../../ThirdParty/mbedTLS/library/blowfish.c:0:0
	subs	r0, #20
.Ltmp9:
	.loc	2 186 52                        @ ../../../ThirdParty/mbedTLS/library/blowfish.c:186:52
	mov	r1, r2
	subs	r1, #32
	movw	r3, #416
	cmp	r1, r3
	bhi	.LBB2_17
.Ltmp10:
@ %bb.1:
	@DEBUG_VALUE: mbedtls_blowfish_setkey:key <- $r5
	@DEBUG_VALUE: mbedtls_blowfish_setkey:ctx <- $r4
	@DEBUG_VALUE: mbedtls_blowfish_setkey:keybits <- $r2
	.loc	2 0 52 is_stmt 0                @ ../../../ThirdParty/mbedTLS/library/blowfish.c:0:52
	movs	r1, #7
	ands	r1, r2
	.loc	2 186 52                        @ ../../../ThirdParty/mbedTLS/library/blowfish.c:186:52
	bne	.LBB2_17
.Ltmp11:
@ %bb.2:
	@DEBUG_VALUE: mbedtls_blowfish_setkey:key <- $r5
	@DEBUG_VALUE: mbedtls_blowfish_setkey:ctx <- $r4
	@DEBUG_VALUE: mbedtls_blowfish_setkey:keybits <- $r2
	.loc	2 0 52                          @ ../../../ThirdParty/mbedTLS/library/blowfish.c:0:52
	str	r2, [sp, #16]                   @ 4-byte Spill
.Ltmp12:
	@DEBUG_VALUE: mbedtls_blowfish_setkey:keybits <- [DW_OP_plus_uconst 16] [$sp+0]
	movs	r7, #0
	movs	r6, #4
.Ltmp13:
.LBB2_3:                                @ =>This Inner Loop Header: Depth=1
	@DEBUG_VALUE: mbedtls_blowfish_setkey:keybits <- [DW_OP_plus_uconst 16] [$sp+0]
	@DEBUG_VALUE: mbedtls_blowfish_setkey:key <- $r5
	@DEBUG_VALUE: mbedtls_blowfish_setkey:ctx <- $r4
	@DEBUG_VALUE: mbedtls_blowfish_setkey:i <- undef
	@DEBUG_VALUE: mbedtls_blowfish_setkey:j <- 0
	.loc	2 198 26 is_stmt 1              @ ../../../ThirdParty/mbedTLS/library/blowfish.c:198:26
	ldr	r0, __arm_cp.2_0
	adds	r1, r0, r7
.Ltmp14:
	.loc	2 197 9                         @ ../../../ThirdParty/mbedTLS/library/blowfish.c:197:9
	adds	r0, r4, r7
	adds	r0, #72
.Ltmp15:
	.loc	2 198 26                        @ ../../../ThirdParty/mbedTLS/library/blowfish.c:198:26
	movw	r2, #1024
	bl	__aeabi_memcpy4
.Ltmp16:
	@DEBUG_VALUE: mbedtls_blowfish_setkey:j <- undef
	@DEBUG_VALUE: mbedtls_blowfish_setkey:i <- [DW_OP_plus_uconst 1, DW_OP_stack_value] undef
	.loc	2 195 19                        @ ../../../ThirdParty/mbedTLS/library/blowfish.c:195:19
	movw	r0, #1024
	adds	r7, r7, r0
	subs	r6, r6, #1
.Ltmp17:
	.loc	2 195 5 is_stmt 0               @ ../../../ThirdParty/mbedTLS/library/blowfish.c:195:5
	bne	.LBB2_3
.Ltmp18:
@ %bb.4:
	@DEBUG_VALUE: mbedtls_blowfish_setkey:keybits <- [DW_OP_plus_uconst 16] [$sp+0]
	@DEBUG_VALUE: mbedtls_blowfish_setkey:key <- $r5
	@DEBUG_VALUE: mbedtls_blowfish_setkey:ctx <- $r4
	.loc	2 193 13 is_stmt 1              @ ../../../ThirdParty/mbedTLS/library/blowfish.c:193:13
	ldr	r0, [sp, #16]                   @ 4-byte Reload
.Ltmp19:
	@DEBUG_VALUE: mbedtls_blowfish_setkey:keybits <- $r0
	lsrs	r0, r0, #3
.Ltmp20:
	@DEBUG_VALUE: mbedtls_blowfish_setkey:keybits <- [DW_OP_LLVM_entry_value 1] $r2
	.loc	2 0 13 is_stmt 0                @ ../../../ThirdParty/mbedTLS/library/blowfish.c:0:13
	movs	r3, #0
	movs	r1, #4
	str	r1, [sp, #4]                    @ 4-byte Spill
	mov	r7, r3
	str	r3, [sp, #16]                   @ 4-byte Spill
	b	.LBB2_6
.Ltmp21:
.LBB2_5:                                @   in Loop: Header=BB2_6 Depth=1
	@DEBUG_VALUE: mbedtls_blowfish_setkey:j <- $r6
	@DEBUG_VALUE: mbedtls_blowfish_setkey:key <- $r5
	@DEBUG_VALUE: mbedtls_blowfish_setkey:ctx <- $r4
	@DEBUG_VALUE: mbedtls_blowfish_setkey:data <- $r1
	@DEBUG_VALUE: mbedtls_blowfish_setkey:i <- [DW_OP_plus_uconst 16] [$sp+0]
	@DEBUG_VALUE: mbedtls_blowfish_setkey:keybits <- [DW_OP_LLVM_entry_value 1] $r2
	@DEBUG_VALUE: mbedtls_blowfish_setkey:j <- $r6
	@DEBUG_VALUE: mbedtls_blowfish_setkey:data <- $r1
	.loc	2 211 21 is_stmt 1              @ ../../../ThirdParty/mbedTLS/library/blowfish.c:211:21
	ldr	r2, [sp, #16]                   @ 4-byte Reload
	lsls	r7, r2, #2
	str	r7, [sp, #12]                   @ 4-byte Spill
	ldr	r7, __arm_cp.2_1
	ldr	r2, [sp, #12]                   @ 4-byte Reload
	ldr	r7, [r7, r2]
	.loc	2 211 26 is_stmt 0              @ ../../../ThirdParty/mbedTLS/library/blowfish.c:211:26
	eors	r7, r1
	.loc	2 211 19                        @ ../../../ThirdParty/mbedTLS/library/blowfish.c:211:19
	ldr	r1, [sp, #12]                   @ 4-byte Reload
.Ltmp22:
	str	r7, [r4, r1]
	ldr	r1, [sp, #16]                   @ 4-byte Reload
.Ltmp23:
	.loc	2 202 50 is_stmt 1              @ ../../../ThirdParty/mbedTLS/library/blowfish.c:202:50
	adds	r1, r1, #1
.Ltmp24:
	@DEBUG_VALUE: mbedtls_blowfish_setkey:i <- $r1
	.loc	2 0 50 is_stmt 0                @ ../../../ThirdParty/mbedTLS/library/blowfish.c:0:50
	str	r1, [sp, #16]                   @ 4-byte Spill
.Ltmp25:
	@DEBUG_VALUE: mbedtls_blowfish_setkey:i <- [DW_OP_plus_uconst 16] [$sp+0]
	.loc	2 202 5                         @ ../../../ThirdParty/mbedTLS/library/blowfish.c:202:5
	cmp	r1, #18
	mov	r7, r6
.Ltmp26:
	@DEBUG_VALUE: mbedtls_blowfish_setkey:j <- $r7
	@DEBUG_VALUE: mbedtls_blowfish_setkey:j <- $r7
	beq	.LBB2_10
.Ltmp27:
.LBB2_6:                                @ =>This Loop Header: Depth=1
                                        @     Child Loop BB2_8 Depth 2
	@DEBUG_VALUE: mbedtls_blowfish_setkey:key <- $r5
	@DEBUG_VALUE: mbedtls_blowfish_setkey:ctx <- $r4
	@DEBUG_VALUE: mbedtls_blowfish_setkey:keybits <- [DW_OP_LLVM_entry_value 1] $r2
	@DEBUG_VALUE: mbedtls_blowfish_setkey:i <- [DW_OP_plus_uconst 16] [$sp+0]
	@DEBUG_VALUE: mbedtls_blowfish_setkey:j <- $r7
	@DEBUG_VALUE: mbedtls_blowfish_setkey:data <- 0
	@DEBUG_VALUE: mbedtls_blowfish_setkey:k <- 0
	.loc	2 0 5                           @ ../../../ThirdParty/mbedTLS/library/blowfish.c:0:5
	ldr	r2, [sp, #4]                    @ 4-byte Reload
	mov	r1, r3
	b	.LBB2_8
.Ltmp28:
.LBB2_7:                                @   in Loop: Header=BB2_8 Depth=2
	@DEBUG_VALUE: mbedtls_blowfish_setkey:key <- $r5
	@DEBUG_VALUE: mbedtls_blowfish_setkey:ctx <- $r4
	@DEBUG_VALUE: mbedtls_blowfish_setkey:data <- $r1
	@DEBUG_VALUE: mbedtls_blowfish_setkey:i <- [DW_OP_plus_uconst 16] [$sp+0]
	@DEBUG_VALUE: mbedtls_blowfish_setkey:keybits <- [DW_OP_LLVM_entry_value 1] $r2
	@DEBUG_VALUE: mbedtls_blowfish_setkey:j <- $r6
	.loc	2 207 36 is_stmt 1              @ ../../../ThirdParty/mbedTLS/library/blowfish.c:207:36
	ldrb	r7, [r5, r7]
	.loc	2 207 27 is_stmt 0              @ ../../../ThirdParty/mbedTLS/library/blowfish.c:207:27
	lsls	r1, r1, #8
.Ltmp29:
	.loc	2 207 34                        @ ../../../ThirdParty/mbedTLS/library/blowfish.c:207:34
	adds	r1, r1, r7
.Ltmp30:
	@DEBUG_VALUE: mbedtls_blowfish_setkey:k <- [DW_OP_plus_uconst 1, DW_OP_stack_value] undef
	@DEBUG_VALUE: mbedtls_blowfish_setkey:data <- $r1
	.loc	2 205 23 is_stmt 1              @ ../../../ThirdParty/mbedTLS/library/blowfish.c:205:23
	subs	r2, r2, #1
	mov	r7, r6
.Ltmp31:
	.loc	2 205 9 is_stmt 0               @ ../../../ThirdParty/mbedTLS/library/blowfish.c:205:9
	beq	.LBB2_5
.Ltmp32:
.LBB2_8:                                @   Parent Loop BB2_6 Depth=1
                                        @ =>  This Inner Loop Header: Depth=2
	@DEBUG_VALUE: mbedtls_blowfish_setkey:key <- $r5
	@DEBUG_VALUE: mbedtls_blowfish_setkey:ctx <- $r4
	@DEBUG_VALUE: mbedtls_blowfish_setkey:i <- [DW_OP_plus_uconst 16] [$sp+0]
	@DEBUG_VALUE: mbedtls_blowfish_setkey:keybits <- [DW_OP_LLVM_entry_value 1] $r2
	@DEBUG_VALUE: mbedtls_blowfish_setkey:j <- $r7
	@DEBUG_VALUE: mbedtls_blowfish_setkey:data <- $r1
	@DEBUG_VALUE: mbedtls_blowfish_setkey:k <- undef
	.loc	2 207 41 is_stmt 1              @ ../../../ThirdParty/mbedTLS/library/blowfish.c:207:41
	adds	r6, r7, #1
.Ltmp33:
	@DEBUG_VALUE: mbedtls_blowfish_setkey:j <- $r6
	.loc	2 208 17                        @ ../../../ThirdParty/mbedTLS/library/blowfish.c:208:17
	cmp	r6, r0
	blo	.LBB2_7
.Ltmp34:
@ %bb.9:                                @   in Loop: Header=BB2_8 Depth=2
	@DEBUG_VALUE: mbedtls_blowfish_setkey:j <- $r6
	@DEBUG_VALUE: mbedtls_blowfish_setkey:key <- $r5
	@DEBUG_VALUE: mbedtls_blowfish_setkey:ctx <- $r4
	@DEBUG_VALUE: mbedtls_blowfish_setkey:data <- $r1
	@DEBUG_VALUE: mbedtls_blowfish_setkey:i <- [DW_OP_plus_uconst 16] [$sp+0]
	@DEBUG_VALUE: mbedtls_blowfish_setkey:keybits <- [DW_OP_LLVM_entry_value 1] $r2
	mov	r6, r3
.Ltmp35:
	.loc	2 0 17 is_stmt 0                @ ../../../ThirdParty/mbedTLS/library/blowfish.c:0:17
	b	.LBB2_7
.Ltmp36:
.LBB2_10:
	@DEBUG_VALUE: mbedtls_blowfish_setkey:j <- $r7
	@DEBUG_VALUE: mbedtls_blowfish_setkey:key <- $r5
	@DEBUG_VALUE: mbedtls_blowfish_setkey:ctx <- $r4
	@DEBUG_VALUE: mbedtls_blowfish_setkey:i <- [DW_OP_plus_uconst 16] [$sp+0]
	@DEBUG_VALUE: mbedtls_blowfish_setkey:keybits <- [DW_OP_LLVM_entry_value 1] $r2
	@DEBUG_VALUE: mbedtls_blowfish_setkey:datal <- 0
	movs	r5, #0
.Ltmp37:
	@DEBUG_VALUE: mbedtls_blowfish_setkey:datar <- 0
	.loc	2 215 11 is_stmt 1              @ ../../../ThirdParty/mbedTLS/library/blowfish.c:215:11
	str	r5, [sp, #20]
	.loc	2 214 11                        @ ../../../ThirdParty/mbedTLS/library/blowfish.c:214:11
	str	r5, [sp, #24]
.Ltmp38:
	@DEBUG_VALUE: mbedtls_blowfish_setkey:i <- 0
	.loc	2 0 11 is_stmt 0                @ ../../../ThirdParty/mbedTLS/library/blowfish.c:0:11
	mov	r6, r4
	ldr	r7, [sp, #8]                    @ 4-byte Reload
.Ltmp39:
.LBB2_11:                               @ =>This Inner Loop Header: Depth=1
	@DEBUG_VALUE: mbedtls_blowfish_setkey:ctx <- $r4
	@DEBUG_VALUE: mbedtls_blowfish_setkey:keybits <- [DW_OP_LLVM_entry_value 1] $r2
	@DEBUG_VALUE: mbedtls_blowfish_setkey:i <- undef
	@DEBUG_VALUE: mbedtls_blowfish_setkey:datal <- [DW_OP_plus_uconst 24, DW_OP_deref] $sp
	@DEBUG_VALUE: mbedtls_blowfish_setkey:datar <- [DW_OP_plus_uconst 20, DW_OP_deref] $sp
	add	r1, sp, #24
	add	r2, sp, #20
.Ltmp40:
	.loc	2 219 9 is_stmt 1               @ ../../../ThirdParty/mbedTLS/library/blowfish.c:219:9
	mov	r0, r4
	bl	blowfish_enc
	.loc	2 220 21                        @ ../../../ThirdParty/mbedTLS/library/blowfish.c:220:21
	ldr	r0, [sp, #24]
.Ltmp41:
	@DEBUG_VALUE: mbedtls_blowfish_setkey:datal <- $r0
	.loc	2 220 19 is_stmt 0              @ ../../../ThirdParty/mbedTLS/library/blowfish.c:220:19
	str	r0, [r6]
	.loc	2 221 25 is_stmt 1              @ ../../../ThirdParty/mbedTLS/library/blowfish.c:221:25
	ldr	r0, [sp, #20]
.Ltmp42:
	@DEBUG_VALUE: mbedtls_blowfish_setkey:datar <- $r0
	.loc	2 221 23 is_stmt 0              @ ../../../ThirdParty/mbedTLS/library/blowfish.c:221:23
	str	r0, [r6, #4]
.Ltmp43:
	.loc	2 217 19 is_stmt 1              @ ../../../ThirdParty/mbedTLS/library/blowfish.c:217:19
	adds	r6, #8
.Ltmp44:
	@DEBUG_VALUE: mbedtls_blowfish_setkey:i <- [DW_OP_plus_uconst 2, DW_OP_stack_value] undef
	adds	r7, r7, #2
.Ltmp45:
	.loc	2 217 5 is_stmt 0               @ ../../../ThirdParty/mbedTLS/library/blowfish.c:217:5
	cmp	r7, #16
	blo	.LBB2_11
.Ltmp46:
@ %bb.12:
	@DEBUG_VALUE: mbedtls_blowfish_setkey:ctx <- $r4
	@DEBUG_VALUE: mbedtls_blowfish_setkey:datar <- $r0
	@DEBUG_VALUE: mbedtls_blowfish_setkey:keybits <- [DW_OP_LLVM_entry_value 1] $r2
	.loc	2 224 5 is_stmt 1               @ ../../../ThirdParty/mbedTLS/library/blowfish.c:224:5
	mov	r7, r4
	adds	r7, #72
.Ltmp47:
.LBB2_13:                               @ =>This Loop Header: Depth=1
                                        @     Child Loop BB2_14 Depth 2
	@DEBUG_VALUE: mbedtls_blowfish_setkey:ctx <- $r4
	@DEBUG_VALUE: mbedtls_blowfish_setkey:keybits <- [DW_OP_LLVM_entry_value 1] $r2
	@DEBUG_VALUE: mbedtls_blowfish_setkey:i <- $r5
	@DEBUG_VALUE: mbedtls_blowfish_setkey:j <- 0
	.loc	2 0 5 is_stmt 0                 @ ../../../ThirdParty/mbedTLS/library/blowfish.c:0:5
	str	r5, [sp, #16]                   @ 4-byte Spill
.Ltmp48:
	@DEBUG_VALUE: mbedtls_blowfish_setkey:i <- [DW_OP_plus_uconst 16] [$sp+0]
	@DEBUG_VALUE: mbedtls_blowfish_setkey:i <- [DW_OP_plus_uconst 16] [$sp+0]
	@DEBUG_VALUE: mbedtls_blowfish_setkey:i <- [DW_OP_plus_uconst 16] [$sp+0]
	mov	r6, r7
	ldr	r5, [sp, #8]                    @ 4-byte Reload
.Ltmp49:
.LBB2_14:                               @   Parent Loop BB2_13 Depth=1
                                        @ =>  This Inner Loop Header: Depth=2
	@DEBUG_VALUE: mbedtls_blowfish_setkey:ctx <- $r4
	@DEBUG_VALUE: mbedtls_blowfish_setkey:i <- [DW_OP_plus_uconst 16] [$sp+0]
	@DEBUG_VALUE: mbedtls_blowfish_setkey:keybits <- [DW_OP_LLVM_entry_value 1] $r2
	@DEBUG_VALUE: mbedtls_blowfish_setkey:j <- undef
	@DEBUG_VALUE: mbedtls_blowfish_setkey:datal <- [DW_OP_plus_uconst 24, DW_OP_deref] $sp
	@DEBUG_VALUE: mbedtls_blowfish_setkey:datar <- [DW_OP_plus_uconst 20, DW_OP_deref] $sp
	add	r1, sp, #24
	add	r2, sp, #20
.Ltmp50:
	.loc	2 228 13 is_stmt 1              @ ../../../ThirdParty/mbedTLS/library/blowfish.c:228:13
	mov	r0, r4
	bl	blowfish_enc
	.loc	2 229 28                        @ ../../../ThirdParty/mbedTLS/library/blowfish.c:229:28
	ldr	r0, [sp, #24]
.Ltmp51:
	@DEBUG_VALUE: mbedtls_blowfish_setkey:datal <- $r0
	.loc	2 229 26 is_stmt 0              @ ../../../ThirdParty/mbedTLS/library/blowfish.c:229:26
	str	r0, [r6]
	.loc	2 230 32 is_stmt 1              @ ../../../ThirdParty/mbedTLS/library/blowfish.c:230:32
	ldr	r0, [sp, #20]
.Ltmp52:
	@DEBUG_VALUE: mbedtls_blowfish_setkey:datar <- $r0
	.loc	2 230 30 is_stmt 0              @ ../../../ThirdParty/mbedTLS/library/blowfish.c:230:30
	str	r0, [r6, #4]
.Ltmp53:
	.loc	2 226 23 is_stmt 1              @ ../../../ThirdParty/mbedTLS/library/blowfish.c:226:23
	adds	r6, #8
.Ltmp54:
	@DEBUG_VALUE: mbedtls_blowfish_setkey:j <- [DW_OP_plus_uconst 2, DW_OP_stack_value] undef
	adds	r5, r5, #2
.Ltmp55:
	.loc	2 226 9 is_stmt 0               @ ../../../ThirdParty/mbedTLS/library/blowfish.c:226:9
	cmp	r5, #254
	blo	.LBB2_14
.Ltmp56:
@ %bb.15:                               @   in Loop: Header=BB2_13 Depth=1
	@DEBUG_VALUE: mbedtls_blowfish_setkey:ctx <- $r4
	@DEBUG_VALUE: mbedtls_blowfish_setkey:datar <- $r0
	@DEBUG_VALUE: mbedtls_blowfish_setkey:i <- [DW_OP_plus_uconst 16] [$sp+0]
	@DEBUG_VALUE: mbedtls_blowfish_setkey:keybits <- [DW_OP_LLVM_entry_value 1] $r2
	.loc	2 224 5 is_stmt 1               @ ../../../ThirdParty/mbedTLS/library/blowfish.c:224:5
	movw	r0, #1024
.Ltmp57:
	adds	r7, r7, r0
	ldr	r5, [sp, #16]                   @ 4-byte Reload
.Ltmp58:
	.loc	2 224 25 is_stmt 0              @ ../../../ThirdParty/mbedTLS/library/blowfish.c:224:25
	adds	r5, r5, #1
.Ltmp59:
	@DEBUG_VALUE: mbedtls_blowfish_setkey:i <- $r5
	.loc	2 224 5                         @ ../../../ThirdParty/mbedTLS/library/blowfish.c:224:5
	cmp	r5, #4
	bne	.LBB2_13
.Ltmp60:
@ %bb.16:
	@DEBUG_VALUE: mbedtls_blowfish_setkey:i <- $r5
	@DEBUG_VALUE: mbedtls_blowfish_setkey:ctx <- $r4
	@DEBUG_VALUE: mbedtls_blowfish_setkey:keybits <- [DW_OP_LLVM_entry_value 1] $r2
	.loc	2 0 5                           @ ../../../ThirdParty/mbedTLS/library/blowfish.c:0:5
	movs	r0, #0
.Ltmp61:
.LBB2_17:
	@DEBUG_VALUE: mbedtls_blowfish_setkey:ctx <- $r4
	.loc	2 234 1 is_stmt 1               @ ../../../ThirdParty/mbedTLS/library/blowfish.c:234:1
	add	sp, #28
	pop	{r4, r5, r6, r7, pc}
.Ltmp62:
	.p2align	2
@ %bb.18:
	.loc	2 0 1 is_stmt 0                 @ ../../../ThirdParty/mbedTLS/library/blowfish.c:0:1
__arm_cp.2_0:
	.long	S
.Lcpi_end2:
	.size	__arm_cp.2_0, .Lcpi_end2-__arm_cp.2_0
__arm_cp.2_1:
	.long	P
.Lcpi_end3:
	.size	__arm_cp.2_1, .Lcpi_end3-__arm_cp.2_1
.Lfunc_end2:
	.size	mbedtls_blowfish_setkey, .Lfunc_end2-mbedtls_blowfish_setkey
	.cfi_endproc
	.cantunwind
	.fnend
                                        @ -- End function
	.section	.text.blowfish_enc,"ax",%progbits
	.p2align	1                               @ -- Begin function blowfish_enc
	.type	blowfish_enc,%function
	.code	16                              @ @blowfish_enc
	.thumb_func
blowfish_enc:
.Lfunc_begin3:
	.loc	2 103 0 is_stmt 1               @ ../../../ThirdParty/mbedTLS/library/blowfish.c:103:0
	.fnstart
	.cfi_startproc
@ %bb.0:
	@DEBUG_VALUE: blowfish_enc:ctx <- $r0
	@DEBUG_VALUE: blowfish_enc:xl <- $r1
	@DEBUG_VALUE: blowfish_enc:xr <- $r2
	.save	{r4, r5, r6, r7, lr}
	push	{r4, r5, r6, r7, lr}
	.cfi_def_cfa_offset 20
	.cfi_offset lr, -4
	.cfi_offset r7, -8
	.cfi_offset r6, -12
	.cfi_offset r5, -16
	.cfi_offset r4, -20
	.pad	#12
	sub	sp, #12
	.cfi_def_cfa_offset 32
	mov	r6, r0
	str	r2, [sp, #8]                    @ 4-byte Spill
.Ltmp63:
	@DEBUG_VALUE: blowfish_enc:xr <- [DW_OP_plus_uconst 8] [$sp+0]
	@DEBUG_VALUE: blowfish_enc:xl <- $r1
	@DEBUG_VALUE: blowfish_enc:ctx <- $r6
	.loc	2 108 10 prologue_end           @ ../../../ThirdParty/mbedTLS/library/blowfish.c:108:10
	ldr	r5, [r2]
.Ltmp64:
	@DEBUG_VALUE: blowfish_enc:Xr <- $r5
	.loc	2 0 10 is_stmt 0                @ ../../../ThirdParty/mbedTLS/library/blowfish.c:0:10
	str	r1, [sp, #4]                    @ 4-byte Spill
.Ltmp65:
	@DEBUG_VALUE: blowfish_enc:xl <- [DW_OP_plus_uconst 4] [$sp+0]
	.loc	2 107 10 is_stmt 1              @ ../../../ThirdParty/mbedTLS/library/blowfish.c:107:10
	ldr	r0, [r1]
.Ltmp66:
	@DEBUG_VALUE: blowfish_enc:Xl <- $r0
	.loc	2 0 10 is_stmt 0                @ ../../../ThirdParty/mbedTLS/library/blowfish.c:0:10
	movs	r4, #0
.Ltmp67:
	@DEBUG_VALUE: blowfish_enc:i <- 0
.LBB3_1:                                @ =>This Inner Loop Header: Depth=1
	@DEBUG_VALUE: blowfish_enc:ctx <- $r6
	@DEBUG_VALUE: blowfish_enc:Xl <- $r0
	@DEBUG_VALUE: blowfish_enc:xl <- [DW_OP_plus_uconst 4] [$sp+0]
	@DEBUG_VALUE: blowfish_enc:xr <- [DW_OP_plus_uconst 8] [$sp+0]
	@DEBUG_VALUE: blowfish_enc:Xr <- $r5
	@DEBUG_VALUE: blowfish_enc:Xl <- $r0
	@DEBUG_VALUE: blowfish_enc:i <- undef
	.loc	2 112 19 is_stmt 1              @ ../../../ThirdParty/mbedTLS/library/blowfish.c:112:19
	ldr	r7, [r6, r4]
	.loc	2 112 17 is_stmt 0              @ ../../../ThirdParty/mbedTLS/library/blowfish.c:112:17
	eors	r7, r0
.Ltmp68:
	@DEBUG_VALUE: blowfish_enc:Xl <- $r7
	.loc	2 113 14 is_stmt 1              @ ../../../ThirdParty/mbedTLS/library/blowfish.c:113:14
	mov	r0, r6
	mov	r1, r7
	bl	F
	.loc	2 113 27 is_stmt 0              @ ../../../ThirdParty/mbedTLS/library/blowfish.c:113:27
	eors	r0, r5
.Ltmp69:
	@DEBUG_VALUE: blowfish_enc:temp <- $r7
	@DEBUG_VALUE: blowfish_enc:i <- [DW_OP_plus_uconst 1, DW_OP_stack_value] undef
	@DEBUG_VALUE: blowfish_enc:Xl <- $r0
	@DEBUG_VALUE: blowfish_enc:Xr <- $r7
	.loc	2 110 19 is_stmt 1              @ ../../../ThirdParty/mbedTLS/library/blowfish.c:110:19
	adds	r4, r4, #4
.Ltmp70:
	.loc	2 110 5 is_stmt 0               @ ../../../ThirdParty/mbedTLS/library/blowfish.c:110:5
	cmp	r4, #64
	mov	r5, r7
	bne	.LBB3_1
.Ltmp71:
@ %bb.2:
	@DEBUG_VALUE: blowfish_enc:Xr <- $r7
	@DEBUG_VALUE: blowfish_enc:temp <- $r7
	@DEBUG_VALUE: blowfish_enc:ctx <- $r6
	@DEBUG_VALUE: blowfish_enc:Xl <- $r0
	@DEBUG_VALUE: blowfish_enc:xl <- [DW_OP_plus_uconst 4] [$sp+0]
	@DEBUG_VALUE: blowfish_enc:xr <- [DW_OP_plus_uconst 8] [$sp+0]
	@DEBUG_VALUE: blowfish_enc:Xr <- $r0
	@DEBUG_VALUE: blowfish_enc:Xl <- $r7
	@DEBUG_VALUE: blowfish_enc:temp <- $r0
	.loc	2 124 15 is_stmt 1              @ ../../../ThirdParty/mbedTLS/library/blowfish.c:124:15
	ldr	r1, [r6, #64]
	.loc	2 125 15                        @ ../../../ThirdParty/mbedTLS/library/blowfish.c:125:15
	ldr	r2, [r6, #68]
	.loc	2 125 13 is_stmt 0              @ ../../../ThirdParty/mbedTLS/library/blowfish.c:125:13
	eors	r2, r7
.Ltmp72:
	@DEBUG_VALUE: blowfish_enc:Xl <- $r2
	.loc	2 127 9 is_stmt 1               @ ../../../ThirdParty/mbedTLS/library/blowfish.c:127:9
	ldr	r3, [sp, #4]                    @ 4-byte Reload
	str	r2, [r3]
	.loc	2 124 13                        @ ../../../ThirdParty/mbedTLS/library/blowfish.c:124:13
	eors	r1, r0
.Ltmp73:
	@DEBUG_VALUE: blowfish_enc:Xr <- $r1
	.loc	2 128 9                         @ ../../../ThirdParty/mbedTLS/library/blowfish.c:128:9
	ldr	r0, [sp, #8]                    @ 4-byte Reload
.Ltmp74:
	str	r1, [r0]
	.loc	2 129 1                         @ ../../../ThirdParty/mbedTLS/library/blowfish.c:129:1
	add	sp, #12
.Ltmp75:
	pop	{r4, r5, r6, r7, pc}
.Ltmp76:
.Lfunc_end3:
	.size	blowfish_enc, .Lfunc_end3-blowfish_enc
	.cfi_endproc
	.cantunwind
	.fnend
                                        @ -- End function
	.section	.text.mbedtls_blowfish_crypt_ecb,"ax",%progbits
	.hidden	mbedtls_blowfish_crypt_ecb      @ -- Begin function mbedtls_blowfish_crypt_ecb
	.globl	mbedtls_blowfish_crypt_ecb
	.p2align	1
	.type	mbedtls_blowfish_crypt_ecb,%function
	.code	16                              @ @mbedtls_blowfish_crypt_ecb
	.thumb_func
mbedtls_blowfish_crypt_ecb:
.Lfunc_begin4:
	.loc	2 243 0                         @ ../../../ThirdParty/mbedTLS/library/blowfish.c:243:0
	.fnstart
	.cfi_startproc
@ %bb.0:
	@DEBUG_VALUE: mbedtls_blowfish_crypt_ecb:ctx <- $r0
	@DEBUG_VALUE: mbedtls_blowfish_crypt_ecb:mode <- $r1
	@DEBUG_VALUE: mbedtls_blowfish_crypt_ecb:input <- $r2
	@DEBUG_VALUE: mbedtls_blowfish_crypt_ecb:output <- $r3
	.save	{r4, r5, r7, lr}
	push	{r4, r5, r7, lr}
	.cfi_def_cfa_offset 16
	.cfi_offset lr, -4
	.cfi_offset r7, -8
	.cfi_offset r5, -12
	.cfi_offset r4, -16
	.pad	#8
	sub	sp, #8
	.cfi_def_cfa_offset 24
	mov	r4, r3
.Ltmp77:
	@DEBUG_VALUE: mbedtls_blowfish_crypt_ecb:output <- $r4
	@DEBUG_VALUE: mbedtls_blowfish_crypt_ecb:input <- $r2
	@DEBUG_VALUE: mbedtls_blowfish_crypt_ecb:mode <- $r1
	@DEBUG_VALUE: mbedtls_blowfish_crypt_ecb:ctx <- $r0
	.loc	2 251 5 prologue_end            @ ../../../ThirdParty/mbedTLS/library/blowfish.c:251:5
	ldrb	r3, [r2]
	lsls	r3, r3, #24
	ldrb	r5, [r2, #1]
	lsls	r5, r5, #16
	adds	r3, r5, r3
	ldrb	r5, [r2, #2]
	lsls	r5, r5, #8
	adds	r3, r3, r5
	ldrb	r5, [r2, #3]
	adds	r3, r3, r5
.Ltmp78:
	@DEBUG_VALUE: mbedtls_blowfish_crypt_ecb:X0 <- $r3
	str	r3, [sp, #4]
.Ltmp79:
	.loc	2 252 5                         @ ../../../ThirdParty/mbedTLS/library/blowfish.c:252:5
	ldrb	r3, [r2, #4]
.Ltmp80:
	lsls	r3, r3, #24
	ldrb	r5, [r2, #5]
	lsls	r5, r5, #16
	adds	r3, r5, r3
	ldrb	r5, [r2, #6]
	lsls	r5, r5, #8
	adds	r3, r3, r5
	ldrb	r2, [r2, #7]
.Ltmp81:
	@DEBUG_VALUE: mbedtls_blowfish_crypt_ecb:input <- [DW_OP_LLVM_entry_value 1] $r2
	adds	r2, r3, r2
.Ltmp82:
	@DEBUG_VALUE: mbedtls_blowfish_crypt_ecb:X1 <- $r2
	str	r2, [sp]
.Ltmp83:
	@DEBUG_VALUE: mbedtls_blowfish_crypt_ecb:X1 <- [DW_OP_deref] $sp
	@DEBUG_VALUE: mbedtls_blowfish_crypt_ecb:X0 <- [DW_OP_plus_uconst 4, DW_OP_deref] $sp
	.loc	2 254 9                         @ ../../../ThirdParty/mbedTLS/library/blowfish.c:254:9
	cbz	r1, .LBB4_2
.Ltmp84:
@ %bb.1:
	@DEBUG_VALUE: mbedtls_blowfish_crypt_ecb:output <- $r4
	@DEBUG_VALUE: mbedtls_blowfish_crypt_ecb:mode <- $r1
	@DEBUG_VALUE: mbedtls_blowfish_crypt_ecb:ctx <- $r0
	@DEBUG_VALUE: mbedtls_blowfish_crypt_ecb:X0 <- [DW_OP_plus_uconst 4, DW_OP_deref] $sp
	@DEBUG_VALUE: mbedtls_blowfish_crypt_ecb:X1 <- [DW_OP_deref] $sp
	@DEBUG_VALUE: mbedtls_blowfish_crypt_ecb:input <- [DW_OP_LLVM_entry_value 1] $r2
	.loc	2 0 9 is_stmt 0                 @ ../../../ThirdParty/mbedTLS/library/blowfish.c:0:9
	add	r1, sp, #4
.Ltmp85:
	@DEBUG_VALUE: mbedtls_blowfish_crypt_ecb:mode <- [DW_OP_LLVM_entry_value 1] $r1
	mov	r2, sp
.Ltmp86:
	.loc	2 260 9 is_stmt 1               @ ../../../ThirdParty/mbedTLS/library/blowfish.c:260:9
	bl	blowfish_enc
.Ltmp87:
	@DEBUG_VALUE: mbedtls_blowfish_crypt_ecb:ctx <- [DW_OP_LLVM_entry_value 1] $r0
	.loc	2 0 9 is_stmt 0                 @ ../../../ThirdParty/mbedTLS/library/blowfish.c:0:9
	b	.LBB4_3
.Ltmp88:
.LBB4_2:
	@DEBUG_VALUE: mbedtls_blowfish_crypt_ecb:output <- $r4
	@DEBUG_VALUE: mbedtls_blowfish_crypt_ecb:mode <- $r1
	@DEBUG_VALUE: mbedtls_blowfish_crypt_ecb:ctx <- $r0
	@DEBUG_VALUE: mbedtls_blowfish_crypt_ecb:X0 <- [DW_OP_plus_uconst 4, DW_OP_deref] $sp
	@DEBUG_VALUE: mbedtls_blowfish_crypt_ecb:X1 <- [DW_OP_deref] $sp
	@DEBUG_VALUE: mbedtls_blowfish_crypt_ecb:input <- [DW_OP_LLVM_entry_value 1] $r2
	add	r1, sp, #4
.Ltmp89:
	@DEBUG_VALUE: mbedtls_blowfish_crypt_ecb:mode <- [DW_OP_LLVM_entry_value 1] $r1
	mov	r2, sp
.Ltmp90:
	.loc	2 256 9 is_stmt 1               @ ../../../ThirdParty/mbedTLS/library/blowfish.c:256:9
	bl	blowfish_dec
.Ltmp91:
	@DEBUG_VALUE: mbedtls_blowfish_crypt_ecb:ctx <- [DW_OP_LLVM_entry_value 1] $r0
.LBB4_3:
	@DEBUG_VALUE: mbedtls_blowfish_crypt_ecb:output <- $r4
	@DEBUG_VALUE: mbedtls_blowfish_crypt_ecb:X0 <- [DW_OP_plus_uconst 4, DW_OP_deref] $sp
	@DEBUG_VALUE: mbedtls_blowfish_crypt_ecb:X1 <- [DW_OP_deref] $sp
	@DEBUG_VALUE: mbedtls_blowfish_crypt_ecb:ctx <- [DW_OP_LLVM_entry_value 1] $r0
	@DEBUG_VALUE: mbedtls_blowfish_crypt_ecb:mode <- [DW_OP_LLVM_entry_value 1] $r1
	@DEBUG_VALUE: mbedtls_blowfish_crypt_ecb:input <- [DW_OP_LLVM_entry_value 1] $r2
	.loc	2 263 5                         @ ../../../ThirdParty/mbedTLS/library/blowfish.c:263:5
	ldr	r0, [sp, #4]
.Ltmp92:
	@DEBUG_VALUE: mbedtls_blowfish_crypt_ecb:X0 <- $r0
	strb	r0, [r4, #3]
.Ltmp93:
	.loc	2 264 5                         @ ../../../ThirdParty/mbedTLS/library/blowfish.c:264:5
	ldr	r1, [sp]
.Ltmp94:
	@DEBUG_VALUE: mbedtls_blowfish_crypt_ecb:X1 <- $r1
	strb	r1, [r4, #7]
.Ltmp95:
	.loc	2 263 5                         @ ../../../ThirdParty/mbedTLS/library/blowfish.c:263:5
	lsrs	r2, r0, #8
	strb	r2, [r4, #2]
	lsrs	r2, r0, #16
	strb	r2, [r4, #1]
	lsrs	r0, r0, #24
.Ltmp96:
	strb	r0, [r4]
.Ltmp97:
	.loc	2 264 5                         @ ../../../ThirdParty/mbedTLS/library/blowfish.c:264:5
	lsrs	r0, r1, #8
	strb	r0, [r4, #6]
	lsrs	r0, r1, #16
	strb	r0, [r4, #5]
	lsrs	r0, r1, #24
	strb	r0, [r4, #4]
	movs	r0, #0
.Ltmp98:
	.loc	2 266 5                         @ ../../../ThirdParty/mbedTLS/library/blowfish.c:266:5
	add	sp, #8
	pop	{r4, r5, r7, pc}
.Ltmp99:
.Lfunc_end4:
	.size	mbedtls_blowfish_crypt_ecb, .Lfunc_end4-mbedtls_blowfish_crypt_ecb
	.cfi_endproc
	.cantunwind
	.fnend
                                        @ -- End function
	.section	.text.blowfish_dec,"ax",%progbits
	.p2align	1                               @ -- Begin function blowfish_dec
	.type	blowfish_dec,%function
	.code	16                              @ @blowfish_dec
	.thumb_func
blowfish_dec:
.Lfunc_begin5:
	.loc	2 132 0                         @ ../../../ThirdParty/mbedTLS/library/blowfish.c:132:0
	.fnstart
	.cfi_startproc
@ %bb.0:
	@DEBUG_VALUE: blowfish_dec:ctx <- $r0
	@DEBUG_VALUE: blowfish_dec:xl <- $r1
	@DEBUG_VALUE: blowfish_dec:xr <- $r2
	.save	{r4, r5, r6, r7, lr}
	push	{r4, r5, r6, r7, lr}
	.cfi_def_cfa_offset 20
	.cfi_offset lr, -4
	.cfi_offset r7, -8
	.cfi_offset r6, -12
	.cfi_offset r5, -16
	.cfi_offset r4, -20
	.pad	#12
	sub	sp, #12
	.cfi_def_cfa_offset 32
	str	r0, [sp, #8]                    @ 4-byte Spill
	str	r2, [sp, #4]                    @ 4-byte Spill
.Ltmp100:
	@DEBUG_VALUE: blowfish_dec:xr <- [DW_OP_plus_uconst 4] [$sp+0]
	@DEBUG_VALUE: blowfish_dec:xl <- $r1
	@DEBUG_VALUE: blowfish_dec:ctx <- [DW_OP_plus_uconst 8] [$sp+0]
	.loc	2 137 10 prologue_end           @ ../../../ThirdParty/mbedTLS/library/blowfish.c:137:10
	ldr	r6, [r2]
.Ltmp101:
	@DEBUG_VALUE: blowfish_dec:Xr <- $r6
	.loc	2 0 10 is_stmt 0                @ ../../../ThirdParty/mbedTLS/library/blowfish.c:0:10
	str	r1, [sp]                        @ 4-byte Spill
.Ltmp102:
	@DEBUG_VALUE: blowfish_dec:xl <- [$sp+0]
	.loc	2 136 10 is_stmt 1              @ ../../../ThirdParty/mbedTLS/library/blowfish.c:136:10
	ldr	r0, [r1]
.Ltmp103:
	@DEBUG_VALUE: blowfish_dec:Xl <- $r0
	.loc	2 0 10 is_stmt 0                @ ../../../ThirdParty/mbedTLS/library/blowfish.c:0:10
	movs	r4, #17
	movs	r5, #68
.Ltmp104:
	@DEBUG_VALUE: blowfish_dec:i <- 17
.LBB5_1:                                @ =>This Inner Loop Header: Depth=1
	@DEBUG_VALUE: blowfish_dec:Xl <- $r0
	@DEBUG_VALUE: blowfish_dec:xl <- [$sp+0]
	@DEBUG_VALUE: blowfish_dec:ctx <- [DW_OP_plus_uconst 8] [$sp+0]
	@DEBUG_VALUE: blowfish_dec:xr <- [DW_OP_plus_uconst 4] [$sp+0]
	@DEBUG_VALUE: blowfish_dec:Xr <- $r6
	@DEBUG_VALUE: blowfish_dec:Xl <- $r0
	@DEBUG_VALUE: blowfish_dec:i <- $r4
	ldr	r1, [sp, #8]                    @ 4-byte Reload
.Ltmp105:
	.loc	2 141 19 is_stmt 1              @ ../../../ThirdParty/mbedTLS/library/blowfish.c:141:19
	ldr	r7, [r1, r5]
	.loc	2 141 17 is_stmt 0              @ ../../../ThirdParty/mbedTLS/library/blowfish.c:141:17
	eors	r7, r0
.Ltmp106:
	@DEBUG_VALUE: blowfish_dec:Xl <- $r7
	.loc	2 142 14 is_stmt 1              @ ../../../ThirdParty/mbedTLS/library/blowfish.c:142:14
	mov	r0, r1
	mov	r1, r7
	bl	F
	.loc	2 142 27 is_stmt 0              @ ../../../ThirdParty/mbedTLS/library/blowfish.c:142:27
	eors	r0, r6
.Ltmp107:
	@DEBUG_VALUE: blowfish_dec:Xl <- $r0
	.loc	2 139 45 is_stmt 1              @ ../../../ThirdParty/mbedTLS/library/blowfish.c:139:45
	subs	r5, r5, #4
.Ltmp108:
	@DEBUG_VALUE: blowfish_dec:temp <- $r7
	@DEBUG_VALUE: blowfish_dec:Xr <- $r7
	.loc	2 139 50 is_stmt 0              @ ../../../ThirdParty/mbedTLS/library/blowfish.c:139:50
	subs	r4, r4, #1
.Ltmp109:
	@DEBUG_VALUE: blowfish_dec:i <- $r4
	.loc	2 139 5                         @ ../../../ThirdParty/mbedTLS/library/blowfish.c:139:5
	cmp	r4, #1
	mov	r6, r7
	bhi	.LBB5_1
.Ltmp110:
@ %bb.2:
	@DEBUG_VALUE: blowfish_dec:Xr <- $r7
	@DEBUG_VALUE: blowfish_dec:temp <- $r7
	@DEBUG_VALUE: blowfish_dec:i <- $r4
	@DEBUG_VALUE: blowfish_dec:Xl <- $r0
	@DEBUG_VALUE: blowfish_dec:xl <- [$sp+0]
	@DEBUG_VALUE: blowfish_dec:ctx <- [DW_OP_plus_uconst 8] [$sp+0]
	@DEBUG_VALUE: blowfish_dec:xr <- [DW_OP_plus_uconst 4] [$sp+0]
	@DEBUG_VALUE: blowfish_dec:Xr <- $r0
	@DEBUG_VALUE: blowfish_dec:Xl <- $r7
	@DEBUG_VALUE: blowfish_dec:temp <- $r0
	.loc	2 0 5                           @ ../../../ThirdParty/mbedTLS/library/blowfish.c:0:5
	ldr	r2, [sp, #8]                    @ 4-byte Reload
	.loc	2 154 15 is_stmt 1              @ ../../../ThirdParty/mbedTLS/library/blowfish.c:154:15
	ldm	r2, {r1, r2}
	.loc	2 154 13 is_stmt 0              @ ../../../ThirdParty/mbedTLS/library/blowfish.c:154:13
	eors	r1, r7
.Ltmp111:
	@DEBUG_VALUE: blowfish_dec:Xl <- $r1
	.loc	2 156 9 is_stmt 1               @ ../../../ThirdParty/mbedTLS/library/blowfish.c:156:9
	ldr	r3, [sp]                        @ 4-byte Reload
	str	r1, [r3]
	.loc	2 153 13                        @ ../../../ThirdParty/mbedTLS/library/blowfish.c:153:13
	eors	r2, r0
.Ltmp112:
	@DEBUG_VALUE: blowfish_dec:Xr <- $r2
	.loc	2 157 9                         @ ../../../ThirdParty/mbedTLS/library/blowfish.c:157:9
	ldr	r0, [sp, #4]                    @ 4-byte Reload
.Ltmp113:
	str	r2, [r0]
	.loc	2 158 1                         @ ../../../ThirdParty/mbedTLS/library/blowfish.c:158:1
	add	sp, #12
.Ltmp114:
	pop	{r4, r5, r6, r7, pc}
.Ltmp115:
.Lfunc_end5:
	.size	blowfish_dec, .Lfunc_end5-blowfish_dec
	.cfi_endproc
	.cantunwind
	.fnend
                                        @ -- End function
	.section	.text.mbedtls_blowfish_crypt_cbc,"ax",%progbits
	.hidden	mbedtls_blowfish_crypt_cbc      @ -- Begin function mbedtls_blowfish_crypt_cbc
	.globl	mbedtls_blowfish_crypt_cbc
	.p2align	1
	.type	mbedtls_blowfish_crypt_cbc,%function
	.code	16                              @ @mbedtls_blowfish_crypt_cbc
	.thumb_func
mbedtls_blowfish_crypt_cbc:
.Lfunc_begin6:
	.loc	2 279 0                         @ ../../../ThirdParty/mbedTLS/library/blowfish.c:279:0
	.fnstart
	.cfi_startproc
@ %bb.0:
	@DEBUG_VALUE: mbedtls_blowfish_crypt_cbc:ctx <- $r0
	@DEBUG_VALUE: mbedtls_blowfish_crypt_cbc:mode <- $r1
	@DEBUG_VALUE: mbedtls_blowfish_crypt_cbc:length <- $r2
	@DEBUG_VALUE: mbedtls_blowfish_crypt_cbc:iv <- $r3
	.save	{r4, r5, r6, r7, lr}
	push	{r4, r5, r6, r7, lr}
	.cfi_def_cfa_offset 20
	.cfi_offset lr, -4
	.cfi_offset r7, -8
	.cfi_offset r6, -12
	.cfi_offset r5, -16
	.cfi_offset r4, -20
	.pad	#44
	sub	sp, #44
	.cfi_def_cfa_offset 64
	mov	r5, r2
.Ltmp116:
	@DEBUG_VALUE: mbedtls_blowfish_crypt_cbc:output <- [DW_OP_plus_uconst 68] [$sp+0]
	@DEBUG_VALUE: mbedtls_blowfish_crypt_cbc:input <- [DW_OP_plus_uconst 64] [$sp+0]
	@DEBUG_VALUE: mbedtls_blowfish_crypt_cbc:iv <- $r3
	@DEBUG_VALUE: mbedtls_blowfish_crypt_cbc:length <- $r5
	@DEBUG_VALUE: mbedtls_blowfish_crypt_cbc:mode <- $r1
	@DEBUG_VALUE: mbedtls_blowfish_crypt_cbc:ctx <- $r0
	.loc	2 289 9 prologue_end            @ ../../../ThirdParty/mbedTLS/library/blowfish.c:289:9
	lsls	r2, r2, #29
	beq	.LBB6_2
.Ltmp117:
@ %bb.1:
	@DEBUG_VALUE: mbedtls_blowfish_crypt_cbc:length <- $r5
	@DEBUG_VALUE: mbedtls_blowfish_crypt_cbc:iv <- $r3
	@DEBUG_VALUE: mbedtls_blowfish_crypt_cbc:mode <- $r1
	@DEBUG_VALUE: mbedtls_blowfish_crypt_cbc:ctx <- $r0
	@DEBUG_VALUE: mbedtls_blowfish_crypt_cbc:input <- [DW_OP_plus_uconst 64] [$sp+0]
	@DEBUG_VALUE: mbedtls_blowfish_crypt_cbc:output <- [DW_OP_plus_uconst 68] [$sp+0]
	.loc	2 0 9 is_stmt 0                 @ ../../../ThirdParty/mbedTLS/library/blowfish.c:0:9
	movs	r0, #23
.Ltmp118:
	@DEBUG_VALUE: mbedtls_blowfish_crypt_cbc:ctx <- [DW_OP_LLVM_entry_value 1] $r0
	mvns	r0, r0
	.loc	2 326 1 is_stmt 1               @ ../../../ThirdParty/mbedTLS/library/blowfish.c:326:1
	add	sp, #44
.Ltmp119:
	pop	{r4, r5, r6, r7, pc}
.Ltmp120:
.LBB6_2:
	@DEBUG_VALUE: mbedtls_blowfish_crypt_cbc:length <- $r5
	@DEBUG_VALUE: mbedtls_blowfish_crypt_cbc:iv <- $r3
	@DEBUG_VALUE: mbedtls_blowfish_crypt_cbc:mode <- $r1
	@DEBUG_VALUE: mbedtls_blowfish_crypt_cbc:ctx <- $r0
	@DEBUG_VALUE: mbedtls_blowfish_crypt_cbc:input <- [DW_OP_plus_uconst 64] [$sp+0]
	@DEBUG_VALUE: mbedtls_blowfish_crypt_cbc:output <- [DW_OP_plus_uconst 68] [$sp+0]
	.loc	2 0 1 is_stmt 0                 @ ../../../ThirdParty/mbedTLS/library/blowfish.c:0:1
	mov	r4, r3
.Ltmp121:
	@DEBUG_VALUE: mbedtls_blowfish_crypt_cbc:iv <- $r4
	ldr	r6, [sp, #68]
	ldr	r7, [sp, #64]
.Ltmp122:
	@DEBUG_VALUE: mbedtls_blowfish_crypt_cbc:output <- undef
	@DEBUG_VALUE: mbedtls_blowfish_crypt_cbc:input <- undef
	@DEBUG_VALUE: mbedtls_blowfish_crypt_cbc:length <- undef
	@DEBUG_VALUE: mbedtls_blowfish_crypt_cbc:output <- undef
	@DEBUG_VALUE: mbedtls_blowfish_crypt_cbc:input <- undef
	@DEBUG_VALUE: mbedtls_blowfish_crypt_cbc:length <- undef
	str	r1, [sp, #20]                   @ 4-byte Spill
	.loc	2 292 9 is_stmt 1               @ ../../../ThirdParty/mbedTLS/library/blowfish.c:292:9
	cbz	r1, .LBB6_8
.Ltmp123:
@ %bb.3:
	@DEBUG_VALUE: mbedtls_blowfish_crypt_cbc:iv <- $r4
	@DEBUG_VALUE: mbedtls_blowfish_crypt_cbc:mode <- $r1
	@DEBUG_VALUE: mbedtls_blowfish_crypt_cbc:ctx <- $r0
	.loc	2 311 9                         @ ../../../ThirdParty/mbedTLS/library/blowfish.c:311:9
	cmp	r5, #0
	bne	.LBB6_4
	b	.LBB6_14
.Ltmp124:
.LBB6_4:
	@DEBUG_VALUE: mbedtls_blowfish_crypt_cbc:iv <- $r4
	@DEBUG_VALUE: mbedtls_blowfish_crypt_cbc:mode <- $r1
	@DEBUG_VALUE: mbedtls_blowfish_crypt_cbc:ctx <- $r0
	.loc	2 0 9 is_stmt 0                 @ ../../../ThirdParty/mbedTLS/library/blowfish.c:0:9
	str	r0, [sp, #12]                   @ 4-byte Spill
.Ltmp125:
	@DEBUG_VALUE: mbedtls_blowfish_crypt_cbc:ctx <- [DW_OP_plus_uconst 12] [$sp+0]
	movs	r0, #0
	str	r0, [sp, #16]                   @ 4-byte Spill
.Ltmp126:
	@DEBUG_VALUE: mbedtls_blowfish_crypt_cbc:length <- $r5
	@DEBUG_VALUE: mbedtls_blowfish_crypt_cbc:input <- $r7
	@DEBUG_VALUE: mbedtls_blowfish_crypt_cbc:output <- $r6
	@DEBUG_VALUE: mbedtls_blowfish_crypt_cbc:i <- 0
.LBB6_5:                                @ =>This Inner Loop Header: Depth=1
	@DEBUG_VALUE: mbedtls_blowfish_crypt_cbc:input <- $r7
	@DEBUG_VALUE: mbedtls_blowfish_crypt_cbc:output <- $r6
	@DEBUG_VALUE: mbedtls_blowfish_crypt_cbc:length <- $r5
	@DEBUG_VALUE: mbedtls_blowfish_crypt_cbc:iv <- $r4
	@DEBUG_VALUE: mbedtls_blowfish_crypt_cbc:i <- $r0
	.loc	2 314 46 is_stmt 1              @ ../../../ThirdParty/mbedTLS/library/blowfish.c:314:46
	ldrb	r3, [r7, r0]
	.loc	2 314 57 is_stmt 0              @ ../../../ThirdParty/mbedTLS/library/blowfish.c:314:57
	ldrb	r2, [r4, r0]
	.loc	2 314 55                        @ ../../../ThirdParty/mbedTLS/library/blowfish.c:314:55
	eors	r2, r3
	.loc	2 314 27                        @ ../../../ThirdParty/mbedTLS/library/blowfish.c:314:27
	strb	r2, [r6, r0]
	.loc	2 313 58 is_stmt 1              @ ../../../ThirdParty/mbedTLS/library/blowfish.c:313:58
	adds	r0, r0, #1
.Ltmp127:
	@DEBUG_VALUE: mbedtls_blowfish_crypt_cbc:i <- $r0
	.loc	2 313 13 is_stmt 0              @ ../../../ThirdParty/mbedTLS/library/blowfish.c:313:13
	cmp	r0, #8
	bne	.LBB6_5
.Ltmp128:
@ %bb.6:                                @   in Loop: Header=BB6_5 Depth=1
	@DEBUG_VALUE: mbedtls_blowfish_crypt_cbc:input <- $r7
	@DEBUG_VALUE: mbedtls_blowfish_crypt_cbc:output <- $r6
	@DEBUG_VALUE: mbedtls_blowfish_crypt_cbc:length <- $r5
	@DEBUG_VALUE: mbedtls_blowfish_crypt_cbc:iv <- $r4
	@DEBUG_VALUE: mbedtls_blowfish_crypt_cbc:i <- $r0
	.loc	2 316 13 is_stmt 1              @ ../../../ThirdParty/mbedTLS/library/blowfish.c:316:13
	ldr	r0, [sp, #12]                   @ 4-byte Reload
.Ltmp129:
	@DEBUG_VALUE: mbedtls_blowfish_crypt_cbc:ctx <- $r0
	mov	r2, r6
	mov	r3, r6
	bl	mbedtls_blowfish_crypt_ecb
.Ltmp130:
	@DEBUG_VALUE: mbedtls_blowfish_crypt_cbc:mode <- [DW_OP_LLVM_entry_value 1] $r1
	@DEBUG_VALUE: mbedtls_blowfish_crypt_cbc:ctx <- [DW_OP_LLVM_entry_value 1] $r0
	.loc	2 317 13                        @ ../../../ThirdParty/mbedTLS/library/blowfish.c:317:13
	ldrb	r0, [r6, #1]
	str	r0, [sp, #40]                   @ 4-byte Spill
	ldrb	r0, [r6]
	str	r0, [sp, #36]                   @ 4-byte Spill
	ldrb	r0, [r6, #3]
	str	r0, [sp, #32]                   @ 4-byte Spill
	ldrb	r0, [r6, #2]
	str	r0, [sp, #28]                   @ 4-byte Spill
	ldrb	r0, [r6, #5]
	str	r0, [sp, #24]                   @ 4-byte Spill
	ldrb	r2, [r6, #4]
	ldrb	r0, [r6, #7]
	ldrb	r3, [r6, #6]
	strb	r3, [r4, #6]
	ldr	r1, [sp, #20]                   @ 4-byte Reload
	strb	r0, [r4, #7]
	strb	r2, [r4, #4]
	ldr	r0, [sp, #24]                   @ 4-byte Reload
	strb	r0, [r4, #5]
	ldr	r0, [sp, #28]                   @ 4-byte Reload
	strb	r0, [r4, #2]
	ldr	r0, [sp, #32]                   @ 4-byte Reload
	strb	r0, [r4, #3]
	ldr	r0, [sp, #36]                   @ 4-byte Reload
	strb	r0, [r4]
	ldr	r0, [sp, #40]                   @ 4-byte Reload
	strb	r0, [r4, #1]
	.loc	2 321 20                        @ ../../../ThirdParty/mbedTLS/library/blowfish.c:321:20
	subs	r5, #8
.Ltmp131:
	@DEBUG_VALUE: mbedtls_blowfish_crypt_cbc:length <- $r5
	.loc	2 320 20                        @ ../../../ThirdParty/mbedTLS/library/blowfish.c:320:20
	adds	r6, #8
.Ltmp132:
	@DEBUG_VALUE: mbedtls_blowfish_crypt_cbc:output <- $r6
	.loc	2 319 20                        @ ../../../ThirdParty/mbedTLS/library/blowfish.c:319:20
	adds	r7, #8
.Ltmp133:
	@DEBUG_VALUE: mbedtls_blowfish_crypt_cbc:input <- $r7
	.loc	2 311 9                         @ ../../../ThirdParty/mbedTLS/library/blowfish.c:311:9
	cmp	r5, #0
	ldr	r0, [sp, #16]                   @ 4-byte Reload
	bne	.LBB6_5
.Ltmp134:
@ %bb.7:
	@DEBUG_VALUE: mbedtls_blowfish_crypt_cbc:input <- $r7
	@DEBUG_VALUE: mbedtls_blowfish_crypt_cbc:output <- $r6
	@DEBUG_VALUE: mbedtls_blowfish_crypt_cbc:length <- $r5
	@DEBUG_VALUE: mbedtls_blowfish_crypt_cbc:iv <- $r4
	.loc	2 326 1                         @ ../../../ThirdParty/mbedTLS/library/blowfish.c:326:1
	add	sp, #44
	pop	{r4, r5, r6, r7, pc}
.Ltmp135:
.LBB6_8:
	@DEBUG_VALUE: mbedtls_blowfish_crypt_cbc:iv <- $r4
	@DEBUG_VALUE: mbedtls_blowfish_crypt_cbc:mode <- $r1
	@DEBUG_VALUE: mbedtls_blowfish_crypt_cbc:ctx <- $r0
	.loc	2 294 9                         @ ../../../ThirdParty/mbedTLS/library/blowfish.c:294:9
	cmp	r5, #0
	beq	.LBB6_14
.Ltmp136:
@ %bb.9:
	@DEBUG_VALUE: mbedtls_blowfish_crypt_cbc:iv <- $r4
	@DEBUG_VALUE: mbedtls_blowfish_crypt_cbc:mode <- $r1
	@DEBUG_VALUE: mbedtls_blowfish_crypt_cbc:ctx <- $r0
	.loc	2 0 9 is_stmt 0                 @ ../../../ThirdParty/mbedTLS/library/blowfish.c:0:9
	movs	r2, #0
	str	r2, [sp, #16]                   @ 4-byte Spill
	str	r0, [sp, #12]                   @ 4-byte Spill
.Ltmp137:
.LBB6_10:                               @ =>This Loop Header: Depth=1
                                        @     Child Loop BB6_11 Depth 2
	@DEBUG_VALUE: mbedtls_blowfish_crypt_cbc:iv <- $r4
	@DEBUG_VALUE: mbedtls_blowfish_crypt_cbc:length <- $r5
	@DEBUG_VALUE: mbedtls_blowfish_crypt_cbc:input <- $r7
	@DEBUG_VALUE: mbedtls_blowfish_crypt_cbc:output <- $r6
	.loc	2 296 13 is_stmt 1              @ ../../../ThirdParty/mbedTLS/library/blowfish.c:296:13
	ldrb	r2, [r7, #2]
	str	r2, [sp, #36]                   @ 4-byte Spill
	ldrb	r2, [r7, #3]
	str	r2, [sp, #32]                   @ 4-byte Spill
	ldrb	r2, [r7]
	str	r2, [sp, #28]                   @ 4-byte Spill
	ldrb	r2, [r7, #1]
	str	r2, [sp, #24]                   @ 4-byte Spill
	ldrb	r2, [r7, #6]
	str	r2, [sp, #40]                   @ 4-byte Spill
	ldrb	r2, [r7, #7]
	str	r2, [sp, #8]                    @ 4-byte Spill
	ldrb	r2, [r7, #4]
	str	r2, [sp, #4]                    @ 4-byte Spill
	ldrb	r2, [r7, #5]
	.loc	2 297 13                        @ ../../../ThirdParty/mbedTLS/library/blowfish.c:297:13
	str	r2, [sp]                        @ 4-byte Spill
	mov	r2, r7
	mov	r3, r6
	bl	mbedtls_blowfish_crypt_ecb
.Ltmp138:
	@DEBUG_VALUE: mbedtls_blowfish_crypt_cbc:mode <- [DW_OP_LLVM_entry_value 1] $r1
	@DEBUG_VALUE: mbedtls_blowfish_crypt_cbc:ctx <- [DW_OP_LLVM_entry_value 1] $r0
	.loc	2 296 13                        @ ../../../ThirdParty/mbedTLS/library/blowfish.c:296:13
	ldr	r0, [sp]                        @ 4-byte Reload
	lsls	r0, r0, #8
	ldr	r1, [sp, #4]                    @ 4-byte Reload
	adds	r0, r0, r1
	ldr	r1, [sp, #8]                    @ 4-byte Reload
	lsls	r1, r1, #8
	ldr	r2, [sp, #40]                   @ 4-byte Reload
	adds	r1, r1, r2
	lsls	r1, r1, #16
	adds	r0, r1, r0
.Ltmp139:
	@DEBUG_VALUE: mbedtls_blowfish_crypt_cbc:temp <- [DW_OP_LLVM_fragment 32 32] $r0
	str	r0, [sp, #40]                   @ 4-byte Spill
.Ltmp140:
	@DEBUG_VALUE: mbedtls_blowfish_crypt_cbc:temp <- [DW_OP_plus_uconst 40, DW_OP_LLVM_fragment 32 32] [$sp+0]
	@DEBUG_VALUE: mbedtls_blowfish_crypt_cbc:temp <- [DW_OP_plus_uconst 40, DW_OP_LLVM_fragment 32 32] [$sp+0]
	@DEBUG_VALUE: mbedtls_blowfish_crypt_cbc:temp <- [DW_OP_plus_uconst 40, DW_OP_LLVM_fragment 32 32] [$sp+0]
	ldr	r0, [sp, #24]                   @ 4-byte Reload
	lsls	r1, r0, #8
	ldr	r0, [sp, #28]                   @ 4-byte Reload
	adds	r1, r1, r0
	ldr	r0, [sp, #32]                   @ 4-byte Reload
	lsls	r2, r0, #8
	ldr	r0, [sp, #36]                   @ 4-byte Reload
	adds	r2, r2, r0
	lsls	r2, r2, #16
	adds	r1, r2, r1
.Ltmp141:
	@DEBUG_VALUE: mbedtls_blowfish_crypt_cbc:i <- 0
	@DEBUG_VALUE: mbedtls_blowfish_crypt_cbc:temp <- [DW_OP_LLVM_fragment 0 32] $r1
	.loc	2 0 13 is_stmt 0                @ ../../../ThirdParty/mbedTLS/library/blowfish.c:0:13
	ldr	r2, [sp, #16]                   @ 4-byte Reload
.Ltmp142:
.LBB6_11:                               @   Parent Loop BB6_10 Depth=1
                                        @ =>  This Inner Loop Header: Depth=2
	@DEBUG_VALUE: mbedtls_blowfish_crypt_cbc:input <- $r7
	@DEBUG_VALUE: mbedtls_blowfish_crypt_cbc:output <- $r6
	@DEBUG_VALUE: mbedtls_blowfish_crypt_cbc:length <- $r5
	@DEBUG_VALUE: mbedtls_blowfish_crypt_cbc:iv <- $r4
	@DEBUG_VALUE: mbedtls_blowfish_crypt_cbc:temp <- [DW_OP_LLVM_fragment 0 32] $r1
	@DEBUG_VALUE: mbedtls_blowfish_crypt_cbc:temp <- [DW_OP_plus_uconst 40, DW_OP_LLVM_fragment 32 32] [$sp+0]
	@DEBUG_VALUE: mbedtls_blowfish_crypt_cbc:i <- $r2
	.loc	2 300 46 is_stmt 1              @ ../../../ThirdParty/mbedTLS/library/blowfish.c:300:46
	ldrb	r3, [r6, r2]
	.loc	2 300 58 is_stmt 0              @ ../../../ThirdParty/mbedTLS/library/blowfish.c:300:58
	ldrb	r0, [r4, r2]
	.loc	2 300 56                        @ ../../../ThirdParty/mbedTLS/library/blowfish.c:300:56
	eors	r0, r3
	.loc	2 300 27                        @ ../../../ThirdParty/mbedTLS/library/blowfish.c:300:27
	strb	r0, [r6, r2]
	.loc	2 299 58 is_stmt 1              @ ../../../ThirdParty/mbedTLS/library/blowfish.c:299:58
	adds	r2, r2, #1
.Ltmp143:
	@DEBUG_VALUE: mbedtls_blowfish_crypt_cbc:i <- $r2
	.loc	2 299 13 is_stmt 0              @ ../../../ThirdParty/mbedTLS/library/blowfish.c:299:13
	cmp	r2, #8
	bne	.LBB6_11
.Ltmp144:
@ %bb.12:                               @   in Loop: Header=BB6_10 Depth=1
	@DEBUG_VALUE: mbedtls_blowfish_crypt_cbc:input <- $r7
	@DEBUG_VALUE: mbedtls_blowfish_crypt_cbc:output <- $r6
	@DEBUG_VALUE: mbedtls_blowfish_crypt_cbc:length <- $r5
	@DEBUG_VALUE: mbedtls_blowfish_crypt_cbc:iv <- $r4
	@DEBUG_VALUE: mbedtls_blowfish_crypt_cbc:i <- $r2
	@DEBUG_VALUE: mbedtls_blowfish_crypt_cbc:temp <- [DW_OP_LLVM_fragment 0 32] $r1
	@DEBUG_VALUE: mbedtls_blowfish_crypt_cbc:temp <- [DW_OP_plus_uconst 40, DW_OP_LLVM_fragment 32 32] [$sp+0]
	.loc	2 302 13 is_stmt 1              @ ../../../ThirdParty/mbedTLS/library/blowfish.c:302:13
	strb	r1, [r4]
	ldr	r2, [sp, #40]                   @ 4-byte Reload
.Ltmp145:
	strb	r2, [r4, #4]
	lsrs	r0, r1, #24
	strb	r0, [r4, #3]
	lsrs	r0, r1, #16
	strb	r0, [r4, #2]
	lsrs	r0, r1, #8
	strb	r0, [r4, #1]
	lsrs	r0, r2, #24
	strb	r0, [r4, #7]
	lsrs	r0, r2, #16
	strb	r0, [r4, #6]
	lsrs	r0, r2, #8
	strb	r0, [r4, #5]
	.loc	2 306 20                        @ ../../../ThirdParty/mbedTLS/library/blowfish.c:306:20
	subs	r5, #8
.Ltmp146:
	@DEBUG_VALUE: mbedtls_blowfish_crypt_cbc:length <- $r5
	.loc	2 305 20                        @ ../../../ThirdParty/mbedTLS/library/blowfish.c:305:20
	adds	r6, #8
.Ltmp147:
	@DEBUG_VALUE: mbedtls_blowfish_crypt_cbc:output <- $r6
	.loc	2 304 20                        @ ../../../ThirdParty/mbedTLS/library/blowfish.c:304:20
	adds	r7, #8
.Ltmp148:
	@DEBUG_VALUE: mbedtls_blowfish_crypt_cbc:input <- $r7
	.loc	2 294 9                         @ ../../../ThirdParty/mbedTLS/library/blowfish.c:294:9
	cmp	r5, #0
	ldr	r1, [sp, #20]                   @ 4-byte Reload
.Ltmp149:
	.loc	2 0 9 is_stmt 0                 @ ../../../ThirdParty/mbedTLS/library/blowfish.c:0:9
	ldr	r0, [sp, #12]                   @ 4-byte Reload
	.loc	2 294 9                         @ ../../../ThirdParty/mbedTLS/library/blowfish.c:294:9
	bne	.LBB6_10
.Ltmp150:
@ %bb.13:
	@DEBUG_VALUE: mbedtls_blowfish_crypt_cbc:input <- $r7
	@DEBUG_VALUE: mbedtls_blowfish_crypt_cbc:output <- $r6
	@DEBUG_VALUE: mbedtls_blowfish_crypt_cbc:length <- $r5
	@DEBUG_VALUE: mbedtls_blowfish_crypt_cbc:iv <- $r4
	@DEBUG_VALUE: mbedtls_blowfish_crypt_cbc:temp <- [DW_OP_plus_uconst 40, DW_OP_LLVM_fragment 32 32] [$sp+0]
	.loc	2 0 9                           @ ../../../ThirdParty/mbedTLS/library/blowfish.c:0:9
	ldr	r0, [sp, #16]                   @ 4-byte Reload
	.loc	2 326 1 is_stmt 1               @ ../../../ThirdParty/mbedTLS/library/blowfish.c:326:1
	add	sp, #44
.Ltmp151:
	pop	{r4, r5, r6, r7, pc}
.Ltmp152:
.LBB6_14:
	@DEBUG_VALUE: mbedtls_blowfish_crypt_cbc:iv <- $r4
	@DEBUG_VALUE: mbedtls_blowfish_crypt_cbc:mode <- $r1
	@DEBUG_VALUE: mbedtls_blowfish_crypt_cbc:ctx <- $r0
	.loc	2 0 1 is_stmt 0                 @ ../../../ThirdParty/mbedTLS/library/blowfish.c:0:1
	movs	r0, #0
.Ltmp153:
	@DEBUG_VALUE: mbedtls_blowfish_crypt_cbc:ctx <- [DW_OP_LLVM_entry_value 1] $r0
	.loc	2 326 1                         @ ../../../ThirdParty/mbedTLS/library/blowfish.c:326:1
	add	sp, #44
	pop	{r4, r5, r6, r7, pc}
.Ltmp154:
.Lfunc_end6:
	.size	mbedtls_blowfish_crypt_cbc, .Lfunc_end6-mbedtls_blowfish_crypt_cbc
	.cfi_endproc
	.cantunwind
	.fnend
                                        @ -- End function
	.section	.text.mbedtls_blowfish_crypt_cfb64,"ax",%progbits
	.hidden	mbedtls_blowfish_crypt_cfb64    @ -- Begin function mbedtls_blowfish_crypt_cfb64
	.globl	mbedtls_blowfish_crypt_cfb64
	.p2align	1
	.type	mbedtls_blowfish_crypt_cfb64,%function
	.code	16                              @ @mbedtls_blowfish_crypt_cfb64
	.thumb_func
mbedtls_blowfish_crypt_cfb64:
.Lfunc_begin7:
	.loc	2 340 0 is_stmt 1               @ ../../../ThirdParty/mbedTLS/library/blowfish.c:340:0
	.fnstart
	.cfi_startproc
@ %bb.0:
	@DEBUG_VALUE: mbedtls_blowfish_crypt_cfb64:ctx <- $r0
	@DEBUG_VALUE: mbedtls_blowfish_crypt_cfb64:mode <- $r1
	@DEBUG_VALUE: mbedtls_blowfish_crypt_cfb64:length <- $r2
	@DEBUG_VALUE: mbedtls_blowfish_crypt_cfb64:iv_off <- $r3
	@DEBUG_VALUE: mbedtls_blowfish_crypt_cfb64:iv_off <- $r3
	@DEBUG_VALUE: mbedtls_blowfish_crypt_cfb64:length <- $r2
	@DEBUG_VALUE: mbedtls_blowfish_crypt_cfb64:mode <- $r1
	@DEBUG_VALUE: mbedtls_blowfish_crypt_cfb64:ctx <- $r0
	.save	{r4, r5, r6, r7, lr}
	push	{r4, r5, r6, r7, lr}
	.cfi_def_cfa_offset 20
	.cfi_offset lr, -4
	.cfi_offset r7, -8
	.cfi_offset r6, -12
	.cfi_offset r5, -16
	.cfi_offset r4, -20
	.pad	#20
	sub	sp, #20
	.cfi_def_cfa_offset 40
.Ltmp155:
	@DEBUG_VALUE: mbedtls_blowfish_crypt_cfb64:output <- [DW_OP_plus_uconst 48] [$sp+0]
	@DEBUG_VALUE: mbedtls_blowfish_crypt_cfb64:input <- [DW_OP_plus_uconst 44] [$sp+0]
	@DEBUG_VALUE: mbedtls_blowfish_crypt_cfb64:iv <- [DW_OP_plus_uconst 40] [$sp+0]
	.loc	2 352 9 prologue_end            @ ../../../ThirdParty/mbedTLS/library/blowfish.c:352:9
	ldr	r6, [r3]
.Ltmp156:
	@DEBUG_VALUE: mbedtls_blowfish_crypt_cfb64:n <- $r6
	.loc	2 353 9                         @ ../../../ThirdParty/mbedTLS/library/blowfish.c:353:9
	cmp	r6, #7
	bls	.LBB7_2
.Ltmp157:
@ %bb.1:
	@DEBUG_VALUE: mbedtls_blowfish_crypt_cfb64:n <- $r6
	@DEBUG_VALUE: mbedtls_blowfish_crypt_cfb64:iv_off <- $r3
	@DEBUG_VALUE: mbedtls_blowfish_crypt_cfb64:length <- $r2
	@DEBUG_VALUE: mbedtls_blowfish_crypt_cfb64:mode <- $r1
	@DEBUG_VALUE: mbedtls_blowfish_crypt_cfb64:ctx <- $r0
	@DEBUG_VALUE: mbedtls_blowfish_crypt_cfb64:iv <- [DW_OP_plus_uconst 40] [$sp+0]
	@DEBUG_VALUE: mbedtls_blowfish_crypt_cfb64:input <- [DW_OP_plus_uconst 44] [$sp+0]
	@DEBUG_VALUE: mbedtls_blowfish_crypt_cfb64:output <- [DW_OP_plus_uconst 48] [$sp+0]
	.loc	2 0 9 is_stmt 0                 @ ../../../ThirdParty/mbedTLS/library/blowfish.c:0:9
	movs	r0, #21
.Ltmp158:
	@DEBUG_VALUE: mbedtls_blowfish_crypt_cfb64:ctx <- [DW_OP_LLVM_entry_value 1] $r0
	mvns	r0, r0
	.loc	2 386 1 is_stmt 1               @ ../../../ThirdParty/mbedTLS/library/blowfish.c:386:1
	add	sp, #20
.Ltmp159:
	pop	{r4, r5, r6, r7, pc}
.Ltmp160:
.LBB7_2:
	@DEBUG_VALUE: mbedtls_blowfish_crypt_cfb64:n <- $r6
	@DEBUG_VALUE: mbedtls_blowfish_crypt_cfb64:iv_off <- $r3
	@DEBUG_VALUE: mbedtls_blowfish_crypt_cfb64:length <- $r2
	@DEBUG_VALUE: mbedtls_blowfish_crypt_cfb64:mode <- $r1
	@DEBUG_VALUE: mbedtls_blowfish_crypt_cfb64:ctx <- $r0
	@DEBUG_VALUE: mbedtls_blowfish_crypt_cfb64:iv <- [DW_OP_plus_uconst 40] [$sp+0]
	@DEBUG_VALUE: mbedtls_blowfish_crypt_cfb64:input <- [DW_OP_plus_uconst 44] [$sp+0]
	@DEBUG_VALUE: mbedtls_blowfish_crypt_cfb64:output <- [DW_OP_plus_uconst 48] [$sp+0]
	.loc	2 0 1 is_stmt 0                 @ ../../../ThirdParty/mbedTLS/library/blowfish.c:0:1
	mov	r5, r2
.Ltmp161:
	@DEBUG_VALUE: mbedtls_blowfish_crypt_cfb64:length <- $r5
	str	r3, [sp]                        @ 4-byte Spill
.Ltmp162:
	@DEBUG_VALUE: mbedtls_blowfish_crypt_cfb64:iv_off <- [$sp+0]
	ldr	r4, [sp, #48]
	ldr	r7, [sp, #44]
	ldr	r2, [sp, #40]
	@DEBUG_VALUE: mbedtls_blowfish_crypt_cfb64:n <- $r6
.Ltmp163:
	@DEBUG_VALUE: mbedtls_blowfish_crypt_cfb64:output <- undef
	@DEBUG_VALUE: mbedtls_blowfish_crypt_cfb64:input <- undef
	@DEBUG_VALUE: mbedtls_blowfish_crypt_cfb64:length <- [DW_OP_constu 1, DW_OP_minus, DW_OP_stack_value] undef
	@DEBUG_VALUE: mbedtls_blowfish_crypt_cfb64:output <- undef
	@DEBUG_VALUE: mbedtls_blowfish_crypt_cfb64:input <- undef
	@DEBUG_VALUE: mbedtls_blowfish_crypt_cfb64:length <- [DW_OP_constu 1, DW_OP_minus, DW_OP_stack_value] undef
	str	r0, [sp, #8]                    @ 4-byte Spill
	str	r2, [sp, #16]                   @ 4-byte Spill
	.loc	2 356 9 is_stmt 1               @ ../../../ThirdParty/mbedTLS/library/blowfish.c:356:9
	cbz	r1, .LBB7_8
.Ltmp164:
@ %bb.3:
	@DEBUG_VALUE: mbedtls_blowfish_crypt_cfb64:iv_off <- [$sp+0]
	@DEBUG_VALUE: mbedtls_blowfish_crypt_cfb64:n <- $r6
	@DEBUG_VALUE: mbedtls_blowfish_crypt_cfb64:mode <- $r1
	@DEBUG_VALUE: mbedtls_blowfish_crypt_cfb64:ctx <- $r0
	@DEBUG_VALUE: mbedtls_blowfish_crypt_cfb64:iv <- [DW_OP_plus_uconst 40] [$sp+0]
	.loc	2 372 9                         @ ../../../ThirdParty/mbedTLS/library/blowfish.c:372:9
	cbz	r5, .LBB7_13
.Ltmp165:
@ %bb.4:
	@DEBUG_VALUE: mbedtls_blowfish_crypt_cfb64:iv_off <- [$sp+0]
	@DEBUG_VALUE: mbedtls_blowfish_crypt_cfb64:n <- $r6
	@DEBUG_VALUE: mbedtls_blowfish_crypt_cfb64:mode <- $r1
	@DEBUG_VALUE: mbedtls_blowfish_crypt_cfb64:ctx <- $r0
	@DEBUG_VALUE: mbedtls_blowfish_crypt_cfb64:iv <- [DW_OP_plus_uconst 40] [$sp+0]
	.loc	2 0 9 is_stmt 0                 @ ../../../ThirdParty/mbedTLS/library/blowfish.c:0:9
	movs	r1, #1
.Ltmp166:
	@DEBUG_VALUE: mbedtls_blowfish_crypt_cfb64:mode <- [DW_OP_LLVM_entry_value 1] $r1
	str	r1, [sp, #4]                    @ 4-byte Spill
	movs	r1, #7
	str	r1, [sp, #12]                   @ 4-byte Spill
	b	.LBB7_6
.Ltmp167:
.LBB7_5:                                @   in Loop: Header=BB7_6 Depth=1
	@DEBUG_VALUE: mbedtls_blowfish_crypt_cfb64:iv_off <- [$sp+0]
	@DEBUG_VALUE: mbedtls_blowfish_crypt_cfb64:input <- $r7
	@DEBUG_VALUE: mbedtls_blowfish_crypt_cfb64:n <- $r6
	@DEBUG_VALUE: mbedtls_blowfish_crypt_cfb64:output <- $r4
	@DEBUG_VALUE: mbedtls_blowfish_crypt_cfb64:iv <- [DW_OP_plus_uconst 40] [$sp+0]
	@DEBUG_VALUE: mbedtls_blowfish_crypt_cfb64:mode <- [DW_OP_LLVM_entry_value 1] $r1
	.loc	2 377 50 is_stmt 1              @ ../../../ThirdParty/mbedTLS/library/blowfish.c:377:50
	ldrb	r3, [r2, r6]
	.loc	2 377 58 is_stmt 0              @ ../../../ThirdParty/mbedTLS/library/blowfish.c:377:58
	ldrb	r1, [r7]
	.loc	2 377 56                        @ ../../../ThirdParty/mbedTLS/library/blowfish.c:377:56
	eors	r1, r3
	.loc	2 377 31                        @ ../../../ThirdParty/mbedTLS/library/blowfish.c:377:31
	strb	r1, [r4]
	.loc	2 377 19                        @ ../../../ThirdParty/mbedTLS/library/blowfish.c:377:19
	strb	r1, [r2, r6]
	.loc	2 379 21 is_stmt 1              @ ../../../ThirdParty/mbedTLS/library/blowfish.c:379:21
	adds	r6, r6, #1
.Ltmp168:
	.loc	2 379 27 is_stmt 0              @ ../../../ThirdParty/mbedTLS/library/blowfish.c:379:27
	ldr	r1, [sp, #12]                   @ 4-byte Reload
	ands	r6, r1
.Ltmp169:
	@DEBUG_VALUE: mbedtls_blowfish_crypt_cfb64:n <- $r6
	.loc	2 377 28 is_stmt 1              @ ../../../ThirdParty/mbedTLS/library/blowfish.c:377:28
	adds	r4, r4, #1
.Ltmp170:
	@DEBUG_VALUE: mbedtls_blowfish_crypt_cfb64:output <- $r4
	.loc	2 377 64 is_stmt 0              @ ../../../ThirdParty/mbedTLS/library/blowfish.c:377:64
	adds	r7, r7, #1
.Ltmp171:
	@DEBUG_VALUE: mbedtls_blowfish_crypt_cfb64:input <- $r7
	@DEBUG_VALUE: mbedtls_blowfish_crypt_cfb64:length <- [DW_OP_constu 1, DW_OP_minus, DW_OP_stack_value] $r5
	.loc	2 0 64                          @ ../../../ThirdParty/mbedTLS/library/blowfish.c:0:64
	cbz	r5, .LBB7_13
.Ltmp172:
.LBB7_6:                                @ =>This Inner Loop Header: Depth=1
	@DEBUG_VALUE: mbedtls_blowfish_crypt_cfb64:iv_off <- [$sp+0]
	@DEBUG_VALUE: mbedtls_blowfish_crypt_cfb64:n <- $r6
	@DEBUG_VALUE: mbedtls_blowfish_crypt_cfb64:iv <- [DW_OP_plus_uconst 40] [$sp+0]
	@DEBUG_VALUE: mbedtls_blowfish_crypt_cfb64:mode <- [DW_OP_LLVM_entry_value 1] $r1
	.loc	2 372 22 is_stmt 1              @ ../../../ThirdParty/mbedTLS/library/blowfish.c:372:22
	subs	r5, r5, #1
	@DEBUG_VALUE: mbedtls_blowfish_crypt_cfb64:n <- $r6
.Ltmp173:
	@DEBUG_VALUE: mbedtls_blowfish_crypt_cfb64:output <- $r4
	@DEBUG_VALUE: mbedtls_blowfish_crypt_cfb64:input <- $r7
	.loc	2 374 17                        @ ../../../ThirdParty/mbedTLS/library/blowfish.c:374:17
	cmp	r6, #0
	bne	.LBB7_5
.Ltmp174:
@ %bb.7:                                @   in Loop: Header=BB7_6 Depth=1
	@DEBUG_VALUE: mbedtls_blowfish_crypt_cfb64:iv_off <- [$sp+0]
	@DEBUG_VALUE: mbedtls_blowfish_crypt_cfb64:input <- $r7
	@DEBUG_VALUE: mbedtls_blowfish_crypt_cfb64:n <- $r6
	@DEBUG_VALUE: mbedtls_blowfish_crypt_cfb64:output <- $r4
	@DEBUG_VALUE: mbedtls_blowfish_crypt_cfb64:iv <- [DW_OP_plus_uconst 40] [$sp+0]
	@DEBUG_VALUE: mbedtls_blowfish_crypt_cfb64:mode <- [DW_OP_LLVM_entry_value 1] $r1
	.loc	2 375 17                        @ ../../../ThirdParty/mbedTLS/library/blowfish.c:375:17
	ldr	r1, [sp, #4]                    @ 4-byte Reload
	ldr	r3, [sp, #16]                   @ 4-byte Reload
	bl	mbedtls_blowfish_crypt_ecb
.Ltmp175:
	@DEBUG_VALUE: mbedtls_blowfish_crypt_cfb64:ctx <- [DW_OP_LLVM_entry_value 1] $r0
	.loc	2 0 17 is_stmt 0                @ ../../../ThirdParty/mbedTLS/library/blowfish.c:0:17
	ldr	r2, [sp, #16]                   @ 4-byte Reload
	ldr	r0, [sp, #8]                    @ 4-byte Reload
	b	.LBB7_5
.Ltmp176:
.LBB7_8:
	@DEBUG_VALUE: mbedtls_blowfish_crypt_cfb64:iv_off <- [$sp+0]
	@DEBUG_VALUE: mbedtls_blowfish_crypt_cfb64:n <- $r6
	@DEBUG_VALUE: mbedtls_blowfish_crypt_cfb64:mode <- $r1
	@DEBUG_VALUE: mbedtls_blowfish_crypt_cfb64:ctx <- $r0
	@DEBUG_VALUE: mbedtls_blowfish_crypt_cfb64:iv <- [DW_OP_plus_uconst 40] [$sp+0]
	.loc	2 358 9 is_stmt 1               @ ../../../ThirdParty/mbedTLS/library/blowfish.c:358:9
	cbz	r5, .LBB7_13
.Ltmp177:
@ %bb.9:
	@DEBUG_VALUE: mbedtls_blowfish_crypt_cfb64:iv_off <- [$sp+0]
	@DEBUG_VALUE: mbedtls_blowfish_crypt_cfb64:n <- $r6
	@DEBUG_VALUE: mbedtls_blowfish_crypt_cfb64:mode <- $r1
	@DEBUG_VALUE: mbedtls_blowfish_crypt_cfb64:ctx <- $r0
	@DEBUG_VALUE: mbedtls_blowfish_crypt_cfb64:iv <- [DW_OP_plus_uconst 40] [$sp+0]
	.loc	2 0 9 is_stmt 0                 @ ../../../ThirdParty/mbedTLS/library/blowfish.c:0:9
	movs	r1, #1
.Ltmp178:
	@DEBUG_VALUE: mbedtls_blowfish_crypt_cfb64:mode <- [DW_OP_LLVM_entry_value 1] $r1
	str	r1, [sp, #4]                    @ 4-byte Spill
	movs	r1, #7
	str	r1, [sp, #12]                   @ 4-byte Spill
	b	.LBB7_11
.Ltmp179:
.LBB7_10:                               @   in Loop: Header=BB7_11 Depth=1
	@DEBUG_VALUE: mbedtls_blowfish_crypt_cfb64:iv_off <- [$sp+0]
	@DEBUG_VALUE: mbedtls_blowfish_crypt_cfb64:input <- $r7
	@DEBUG_VALUE: mbedtls_blowfish_crypt_cfb64:n <- $r6
	@DEBUG_VALUE: mbedtls_blowfish_crypt_cfb64:output <- $r4
	@DEBUG_VALUE: mbedtls_blowfish_crypt_cfb64:iv <- [DW_OP_plus_uconst 40] [$sp+0]
	@DEBUG_VALUE: mbedtls_blowfish_crypt_cfb64:mode <- [DW_OP_LLVM_entry_value 1] $r1
	.loc	2 364 46 is_stmt 1              @ ../../../ThirdParty/mbedTLS/library/blowfish.c:364:46
	ldrb	r3, [r2, r6]
	.loc	2 363 17                        @ ../../../ThirdParty/mbedTLS/library/blowfish.c:363:17
	ldrb	r1, [r7]
.Ltmp180:
	@DEBUG_VALUE: mbedtls_blowfish_crypt_cfb64:c <- [DW_OP_LLVM_convert 8 7, DW_OP_LLVM_convert 32 7, DW_OP_stack_value] $r1
	.loc	2 364 44                        @ ../../../ThirdParty/mbedTLS/library/blowfish.c:364:44
	eors	r3, r1
	.loc	2 364 23 is_stmt 0              @ ../../../ThirdParty/mbedTLS/library/blowfish.c:364:23
	strb	r3, [r4]
	.loc	2 365 19 is_stmt 1              @ ../../../ThirdParty/mbedTLS/library/blowfish.c:365:19
	strb	r1, [r2, r6]
	.loc	2 367 21                        @ ../../../ThirdParty/mbedTLS/library/blowfish.c:367:21
	adds	r6, r6, #1
.Ltmp181:
	.loc	2 367 27 is_stmt 0              @ ../../../ThirdParty/mbedTLS/library/blowfish.c:367:27
	ldr	r1, [sp, #12]                   @ 4-byte Reload
.Ltmp182:
	ands	r6, r1
.Ltmp183:
	@DEBUG_VALUE: mbedtls_blowfish_crypt_cfb64:n <- $r6
	.loc	2 364 20 is_stmt 1              @ ../../../ThirdParty/mbedTLS/library/blowfish.c:364:20
	adds	r4, r4, #1
.Ltmp184:
	@DEBUG_VALUE: mbedtls_blowfish_crypt_cfb64:output <- $r4
	.loc	2 363 23                        @ ../../../ThirdParty/mbedTLS/library/blowfish.c:363:23
	adds	r7, r7, #1
.Ltmp185:
	@DEBUG_VALUE: mbedtls_blowfish_crypt_cfb64:input <- $r7
	@DEBUG_VALUE: mbedtls_blowfish_crypt_cfb64:length <- [DW_OP_constu 1, DW_OP_minus, DW_OP_stack_value] $r5
	.loc	2 358 9                         @ ../../../ThirdParty/mbedTLS/library/blowfish.c:358:9
	cbz	r5, .LBB7_13
.Ltmp186:
.LBB7_11:                               @ =>This Inner Loop Header: Depth=1
	@DEBUG_VALUE: mbedtls_blowfish_crypt_cfb64:iv_off <- [$sp+0]
	@DEBUG_VALUE: mbedtls_blowfish_crypt_cfb64:n <- $r6
	@DEBUG_VALUE: mbedtls_blowfish_crypt_cfb64:iv <- [DW_OP_plus_uconst 40] [$sp+0]
	@DEBUG_VALUE: mbedtls_blowfish_crypt_cfb64:mode <- [DW_OP_LLVM_entry_value 1] $r1
	.loc	2 358 22 is_stmt 0              @ ../../../ThirdParty/mbedTLS/library/blowfish.c:358:22
	subs	r5, r5, #1
	@DEBUG_VALUE: mbedtls_blowfish_crypt_cfb64:n <- $r6
.Ltmp187:
	@DEBUG_VALUE: mbedtls_blowfish_crypt_cfb64:output <- $r4
	@DEBUG_VALUE: mbedtls_blowfish_crypt_cfb64:input <- $r7
	.loc	2 360 17 is_stmt 1              @ ../../../ThirdParty/mbedTLS/library/blowfish.c:360:17
	cmp	r6, #0
	bne	.LBB7_10
.Ltmp188:
@ %bb.12:                               @   in Loop: Header=BB7_11 Depth=1
	@DEBUG_VALUE: mbedtls_blowfish_crypt_cfb64:iv_off <- [$sp+0]
	@DEBUG_VALUE: mbedtls_blowfish_crypt_cfb64:input <- $r7
	@DEBUG_VALUE: mbedtls_blowfish_crypt_cfb64:n <- $r6
	@DEBUG_VALUE: mbedtls_blowfish_crypt_cfb64:output <- $r4
	@DEBUG_VALUE: mbedtls_blowfish_crypt_cfb64:iv <- [DW_OP_plus_uconst 40] [$sp+0]
	@DEBUG_VALUE: mbedtls_blowfish_crypt_cfb64:mode <- [DW_OP_LLVM_entry_value 1] $r1
	.loc	2 361 17                        @ ../../../ThirdParty/mbedTLS/library/blowfish.c:361:17
	ldr	r1, [sp, #4]                    @ 4-byte Reload
	ldr	r3, [sp, #16]                   @ 4-byte Reload
	bl	mbedtls_blowfish_crypt_ecb
.Ltmp189:
	@DEBUG_VALUE: mbedtls_blowfish_crypt_cfb64:ctx <- [DW_OP_LLVM_entry_value 1] $r0
	.loc	2 0 17 is_stmt 0                @ ../../../ThirdParty/mbedTLS/library/blowfish.c:0:17
	ldr	r2, [sp, #16]                   @ 4-byte Reload
	ldr	r0, [sp, #8]                    @ 4-byte Reload
	b	.LBB7_10
.Ltmp190:
.LBB7_13:
	@DEBUG_VALUE: mbedtls_blowfish_crypt_cfb64:iv_off <- [$sp+0]
	@DEBUG_VALUE: mbedtls_blowfish_crypt_cfb64:n <- $r6
	@DEBUG_VALUE: mbedtls_blowfish_crypt_cfb64:iv <- [DW_OP_plus_uconst 40] [$sp+0]
	@DEBUG_VALUE: mbedtls_blowfish_crypt_cfb64:n <- $r6
	.loc	2 383 13 is_stmt 1              @ ../../../ThirdParty/mbedTLS/library/blowfish.c:383:13
	ldr	r0, [sp]                        @ 4-byte Reload
.Ltmp191:
	@DEBUG_VALUE: mbedtls_blowfish_crypt_cfb64:iv_off <- $r0
	str	r6, [r0]
	movs	r0, #0
.Ltmp192:
	@DEBUG_VALUE: mbedtls_blowfish_crypt_cfb64:iv_off <- [DW_OP_LLVM_entry_value 1] $r3
	.loc	2 386 1                         @ ../../../ThirdParty/mbedTLS/library/blowfish.c:386:1
	add	sp, #20
.Ltmp193:
	pop	{r4, r5, r6, r7, pc}
.Ltmp194:
.Lfunc_end7:
	.size	mbedtls_blowfish_crypt_cfb64, .Lfunc_end7-mbedtls_blowfish_crypt_cfb64
	.cfi_endproc
	.cantunwind
	.fnend
                                        @ -- End function
	.section	.text.mbedtls_blowfish_crypt_ctr,"ax",%progbits
	.hidden	mbedtls_blowfish_crypt_ctr      @ -- Begin function mbedtls_blowfish_crypt_ctr
	.globl	mbedtls_blowfish_crypt_ctr
	.p2align	1
	.type	mbedtls_blowfish_crypt_ctr,%function
	.code	16                              @ @mbedtls_blowfish_crypt_ctr
	.thumb_func
mbedtls_blowfish_crypt_ctr:
.Lfunc_begin8:
	.loc	2 400 0                         @ ../../../ThirdParty/mbedTLS/library/blowfish.c:400:0
	.fnstart
	.cfi_startproc
@ %bb.0:
	@DEBUG_VALUE: mbedtls_blowfish_crypt_ctr:ctx <- $r0
	@DEBUG_VALUE: mbedtls_blowfish_crypt_ctr:length <- $r1
	@DEBUG_VALUE: mbedtls_blowfish_crypt_ctr:nc_off <- $r2
	@DEBUG_VALUE: mbedtls_blowfish_crypt_ctr:nonce_counter <- $r3
	.save	{r4, r5, r6, r7, lr}
	push	{r4, r5, r6, r7, lr}
	.cfi_def_cfa_offset 20
	.cfi_offset lr, -4
	.cfi_offset r7, -8
	.cfi_offset r6, -12
	.cfi_offset r5, -16
	.cfi_offset r4, -20
	.pad	#28
	sub	sp, #28
	.cfi_def_cfa_offset 48
	str	r0, [sp, #12]                   @ 4-byte Spill
.Ltmp195:
	@DEBUG_VALUE: mbedtls_blowfish_crypt_ctr:output <- [DW_OP_plus_uconst 56] [$sp+0]
	@DEBUG_VALUE: mbedtls_blowfish_crypt_ctr:input <- [DW_OP_plus_uconst 52] [$sp+0]
	@DEBUG_VALUE: mbedtls_blowfish_crypt_ctr:stream_block <- [DW_OP_plus_uconst 48] [$sp+0]
	@DEBUG_VALUE: mbedtls_blowfish_crypt_ctr:nonce_counter <- $r3
	@DEBUG_VALUE: mbedtls_blowfish_crypt_ctr:nc_off <- $r2
	@DEBUG_VALUE: mbedtls_blowfish_crypt_ctr:length <- $r1
	@DEBUG_VALUE: mbedtls_blowfish_crypt_ctr:ctx <- [DW_OP_plus_uconst 12] [$sp+0]
	.loc	2 410 9 prologue_end            @ ../../../ThirdParty/mbedTLS/library/blowfish.c:410:9
	ldr	r7, [r2]
.Ltmp196:
	@DEBUG_VALUE: mbedtls_blowfish_crypt_ctr:n <- $r7
	.loc	2 411 9                         @ ../../../ThirdParty/mbedTLS/library/blowfish.c:411:9
	cmp	r7, #7
	bls	.LBB8_2
.Ltmp197:
@ %bb.1:
	@DEBUG_VALUE: mbedtls_blowfish_crypt_ctr:n <- $r7
	@DEBUG_VALUE: mbedtls_blowfish_crypt_ctr:nonce_counter <- $r3
	@DEBUG_VALUE: mbedtls_blowfish_crypt_ctr:nc_off <- $r2
	@DEBUG_VALUE: mbedtls_blowfish_crypt_ctr:length <- $r1
	@DEBUG_VALUE: mbedtls_blowfish_crypt_ctr:ctx <- [DW_OP_plus_uconst 12] [$sp+0]
	@DEBUG_VALUE: mbedtls_blowfish_crypt_ctr:stream_block <- [DW_OP_plus_uconst 48] [$sp+0]
	@DEBUG_VALUE: mbedtls_blowfish_crypt_ctr:input <- [DW_OP_plus_uconst 52] [$sp+0]
	@DEBUG_VALUE: mbedtls_blowfish_crypt_ctr:output <- [DW_OP_plus_uconst 56] [$sp+0]
	.loc	2 0 9 is_stmt 0                 @ ../../../ThirdParty/mbedTLS/library/blowfish.c:0:9
	movs	r0, #21
	mvns	r0, r0
	.loc	2 433 1 is_stmt 1               @ ../../../ThirdParty/mbedTLS/library/blowfish.c:433:1
	add	sp, #28
.Ltmp198:
	pop	{r4, r5, r6, r7, pc}
.Ltmp199:
.LBB8_2:
	@DEBUG_VALUE: mbedtls_blowfish_crypt_ctr:n <- $r7
	@DEBUG_VALUE: mbedtls_blowfish_crypt_ctr:nonce_counter <- $r3
	@DEBUG_VALUE: mbedtls_blowfish_crypt_ctr:nc_off <- $r2
	@DEBUG_VALUE: mbedtls_blowfish_crypt_ctr:length <- $r1
	@DEBUG_VALUE: mbedtls_blowfish_crypt_ctr:ctx <- [DW_OP_plus_uconst 12] [$sp+0]
	@DEBUG_VALUE: mbedtls_blowfish_crypt_ctr:stream_block <- [DW_OP_plus_uconst 48] [$sp+0]
	@DEBUG_VALUE: mbedtls_blowfish_crypt_ctr:input <- [DW_OP_plus_uconst 52] [$sp+0]
	@DEBUG_VALUE: mbedtls_blowfish_crypt_ctr:output <- [DW_OP_plus_uconst 56] [$sp+0]
	.loc	2 0 1 is_stmt 0                 @ ../../../ThirdParty/mbedTLS/library/blowfish.c:0:1
	mov	r5, r3
.Ltmp200:
	@DEBUG_VALUE: mbedtls_blowfish_crypt_ctr:nonce_counter <- $r5
	mov	r3, r1
.Ltmp201:
	@DEBUG_VALUE: mbedtls_blowfish_crypt_ctr:length <- $r3
	@DEBUG_VALUE: mbedtls_blowfish_crypt_ctr:length <- [DW_OP_constu 1, DW_OP_minus, DW_OP_stack_value] $r3
	@DEBUG_VALUE: mbedtls_blowfish_crypt_ctr:n <- $r7
	str	r2, [sp, #4]                    @ 4-byte Spill
.Ltmp202:
	@DEBUG_VALUE: mbedtls_blowfish_crypt_ctr:nc_off <- [DW_OP_plus_uconst 4] [$sp+0]
	@DEBUG_VALUE: mbedtls_blowfish_crypt_ctr:output <- undef
	@DEBUG_VALUE: mbedtls_blowfish_crypt_ctr:input <- undef
	.loc	2 414 5 is_stmt 1               @ ../../../ThirdParty/mbedTLS/library/blowfish.c:414:5
	cbz	r1, .LBB8_9
.Ltmp203:
@ %bb.3:
	@DEBUG_VALUE: mbedtls_blowfish_crypt_ctr:nc_off <- [DW_OP_plus_uconst 4] [$sp+0]
	@DEBUG_VALUE: mbedtls_blowfish_crypt_ctr:n <- $r7
	@DEBUG_VALUE: mbedtls_blowfish_crypt_ctr:nonce_counter <- $r5
	@DEBUG_VALUE: mbedtls_blowfish_crypt_ctr:length <- [DW_OP_constu 1, DW_OP_minus, DW_OP_stack_value] $r3
	@DEBUG_VALUE: mbedtls_blowfish_crypt_ctr:ctx <- [DW_OP_plus_uconst 12] [$sp+0]
	@DEBUG_VALUE: mbedtls_blowfish_crypt_ctr:stream_block <- [DW_OP_plus_uconst 48] [$sp+0]
	.loc	2 0 5 is_stmt 0                 @ ../../../ThirdParty/mbedTLS/library/blowfish.c:0:5
	ldr	r4, [sp, #56]
	ldr	r6, [sp, #52]
	ldr	r0, [sp, #48]
	str	r0, [sp, #24]                   @ 4-byte Spill
	movs	r0, #1
	str	r0, [sp, #8]                    @ 4-byte Spill
	movs	r0, #7
	str	r0, [sp, #20]                   @ 4-byte Spill
	b	.LBB8_5
.Ltmp204:
.LBB8_4:                                @   in Loop: Header=BB8_5 Depth=1
	@DEBUG_VALUE: mbedtls_blowfish_crypt_ctr:nc_off <- [DW_OP_plus_uconst 4] [$sp+0]
	@DEBUG_VALUE: mbedtls_blowfish_crypt_ctr:n <- $r7
	@DEBUG_VALUE: mbedtls_blowfish_crypt_ctr:input <- $r6
	@DEBUG_VALUE: mbedtls_blowfish_crypt_ctr:nonce_counter <- $r5
	@DEBUG_VALUE: mbedtls_blowfish_crypt_ctr:output <- $r4
	@DEBUG_VALUE: mbedtls_blowfish_crypt_ctr:ctx <- [DW_OP_plus_uconst 12] [$sp+0]
	@DEBUG_VALUE: mbedtls_blowfish_crypt_ctr:stream_block <- [DW_OP_plus_uconst 48] [$sp+0]
	.loc	2 425 42 is_stmt 1              @ ../../../ThirdParty/mbedTLS/library/blowfish.c:425:42
	ldr	r0, [sp, #24]                   @ 4-byte Reload
	ldrb	r0, [r0, r7]
	.loc	2 424 13                        @ ../../../ThirdParty/mbedTLS/library/blowfish.c:424:13
	ldrb	r1, [r6]
.Ltmp205:
	@DEBUG_VALUE: mbedtls_blowfish_crypt_ctr:c <- [DW_OP_LLVM_convert 8 7, DW_OP_LLVM_convert 32 7, DW_OP_stack_value] $r1
	.loc	2 425 40                        @ ../../../ThirdParty/mbedTLS/library/blowfish.c:425:40
	eors	r1, r0
.Ltmp206:
	.loc	2 425 19 is_stmt 0              @ ../../../ThirdParty/mbedTLS/library/blowfish.c:425:19
	strb	r1, [r4]
	.loc	2 427 17 is_stmt 1              @ ../../../ThirdParty/mbedTLS/library/blowfish.c:427:17
	adds	r7, r7, #1
.Ltmp207:
	.loc	2 427 23 is_stmt 0              @ ../../../ThirdParty/mbedTLS/library/blowfish.c:427:23
	ldr	r0, [sp, #20]                   @ 4-byte Reload
	ands	r7, r0
.Ltmp208:
	@DEBUG_VALUE: mbedtls_blowfish_crypt_ctr:n <- $r7
	.loc	2 425 16 is_stmt 1              @ ../../../ThirdParty/mbedTLS/library/blowfish.c:425:16
	adds	r4, r4, #1
.Ltmp209:
	@DEBUG_VALUE: mbedtls_blowfish_crypt_ctr:output <- $r4
	.loc	2 424 19                        @ ../../../ThirdParty/mbedTLS/library/blowfish.c:424:19
	adds	r6, r6, #1
.Ltmp210:
	@DEBUG_VALUE: mbedtls_blowfish_crypt_ctr:input <- $r6
	@DEBUG_VALUE: mbedtls_blowfish_crypt_ctr:length <- [DW_OP_constu 1, DW_OP_minus, DW_OP_stack_value] $r3
	.loc	2 414 5                         @ ../../../ThirdParty/mbedTLS/library/blowfish.c:414:5
	cbz	r3, .LBB8_9
.Ltmp211:
.LBB8_5:                                @ =>This Loop Header: Depth=1
                                        @     Child Loop BB8_7 Depth 2
	@DEBUG_VALUE: mbedtls_blowfish_crypt_ctr:nc_off <- [DW_OP_plus_uconst 4] [$sp+0]
	@DEBUG_VALUE: mbedtls_blowfish_crypt_ctr:n <- $r7
	@DEBUG_VALUE: mbedtls_blowfish_crypt_ctr:nonce_counter <- $r5
	@DEBUG_VALUE: mbedtls_blowfish_crypt_ctr:length <- [DW_OP_constu 1, DW_OP_minus, DW_OP_stack_value] $r3
	@DEBUG_VALUE: mbedtls_blowfish_crypt_ctr:ctx <- [DW_OP_plus_uconst 12] [$sp+0]
	@DEBUG_VALUE: mbedtls_blowfish_crypt_ctr:stream_block <- [DW_OP_plus_uconst 48] [$sp+0]
	.loc	2 414 18 is_stmt 0              @ ../../../ThirdParty/mbedTLS/library/blowfish.c:414:18
	subs	r3, r3, #1
.Ltmp212:
	@DEBUG_VALUE: mbedtls_blowfish_crypt_ctr:n <- $r7
	@DEBUG_VALUE: mbedtls_blowfish_crypt_ctr:output <- $r4
	@DEBUG_VALUE: mbedtls_blowfish_crypt_ctr:input <- $r6
	.loc	2 416 13 is_stmt 1              @ ../../../ThirdParty/mbedTLS/library/blowfish.c:416:13
	cmp	r7, #0
	bne	.LBB8_4
.Ltmp213:
@ %bb.6:                                @   in Loop: Header=BB8_5 Depth=1
	@DEBUG_VALUE: mbedtls_blowfish_crypt_ctr:nc_off <- [DW_OP_plus_uconst 4] [$sp+0]
	@DEBUG_VALUE: mbedtls_blowfish_crypt_ctr:n <- $r7
	@DEBUG_VALUE: mbedtls_blowfish_crypt_ctr:input <- $r6
	@DEBUG_VALUE: mbedtls_blowfish_crypt_ctr:nonce_counter <- $r5
	@DEBUG_VALUE: mbedtls_blowfish_crypt_ctr:output <- $r4
	@DEBUG_VALUE: mbedtls_blowfish_crypt_ctr:ctx <- [DW_OP_plus_uconst 12] [$sp+0]
	@DEBUG_VALUE: mbedtls_blowfish_crypt_ctr:stream_block <- [DW_OP_plus_uconst 48] [$sp+0]
	.loc	2 417 13                        @ ../../../ThirdParty/mbedTLS/library/blowfish.c:417:13
	ldr	r0, [sp, #12]                   @ 4-byte Reload
	ldr	r1, [sp, #8]                    @ 4-byte Reload
	mov	r2, r5
	str	r3, [sp, #16]                   @ 4-byte Spill
	ldr	r3, [sp, #24]                   @ 4-byte Reload
	bl	mbedtls_blowfish_crypt_ecb
	ldr	r3, [sp, #16]                   @ 4-byte Reload
.Ltmp214:
	@DEBUG_VALUE: mbedtls_blowfish_crypt_ctr:i <- 8
	.loc	2 0 0 is_stmt 0                 @ ../../../ThirdParty/mbedTLS/library/blowfish.c:0:0
	ldr	r0, [sp, #20]                   @ 4-byte Reload
.Ltmp215:
.LBB8_7:                                @   Parent Loop BB8_5 Depth=1
                                        @ =>  This Inner Loop Header: Depth=2
	@DEBUG_VALUE: mbedtls_blowfish_crypt_ctr:nc_off <- [DW_OP_plus_uconst 4] [$sp+0]
	@DEBUG_VALUE: mbedtls_blowfish_crypt_ctr:n <- $r7
	@DEBUG_VALUE: mbedtls_blowfish_crypt_ctr:input <- $r6
	@DEBUG_VALUE: mbedtls_blowfish_crypt_ctr:nonce_counter <- $r5
	@DEBUG_VALUE: mbedtls_blowfish_crypt_ctr:output <- $r4
	@DEBUG_VALUE: mbedtls_blowfish_crypt_ctr:ctx <- [DW_OP_plus_uconst 12] [$sp+0]
	@DEBUG_VALUE: mbedtls_blowfish_crypt_ctr:stream_block <- [DW_OP_plus_uconst 48] [$sp+0]
	@DEBUG_VALUE: mbedtls_blowfish_crypt_ctr:i <- undef
	.loc	2 420 52 is_stmt 1              @ ../../../ThirdParty/mbedTLS/library/blowfish.c:420:52
	adds	r1, r0, #1
.Ltmp216:
	.loc	2 420 13 is_stmt 0              @ ../../../ThirdParty/mbedTLS/library/blowfish.c:420:13
	bhs	.LBB8_4
.Ltmp217:
@ %bb.8:                                @   in Loop: Header=BB8_7 Depth=2
	@DEBUG_VALUE: mbedtls_blowfish_crypt_ctr:nc_off <- [DW_OP_plus_uconst 4] [$sp+0]
	@DEBUG_VALUE: mbedtls_blowfish_crypt_ctr:n <- $r7
	@DEBUG_VALUE: mbedtls_blowfish_crypt_ctr:input <- $r6
	@DEBUG_VALUE: mbedtls_blowfish_crypt_ctr:nonce_counter <- $r5
	@DEBUG_VALUE: mbedtls_blowfish_crypt_ctr:output <- $r4
	@DEBUG_VALUE: mbedtls_blowfish_crypt_ctr:ctx <- [DW_OP_plus_uconst 12] [$sp+0]
	@DEBUG_VALUE: mbedtls_blowfish_crypt_ctr:stream_block <- [DW_OP_plus_uconst 48] [$sp+0]
	.loc	2 421 21 is_stmt 1              @ ../../../ThirdParty/mbedTLS/library/blowfish.c:421:21
	ldrb	r1, [r5, r0]
	adds	r1, r1, #1
	strb	r1, [r5, r0]
	uxtb	r2, r1
.Ltmp218:
	.loc	2 421 21 is_stmt 0              @ ../../../ThirdParty/mbedTLS/library/blowfish.c:421:21
	subs	r0, r0, #1
	cmp	r2, r1
	bne	.LBB8_7
	b	.LBB8_4
.Ltmp219:
.LBB8_9:
	@DEBUG_VALUE: mbedtls_blowfish_crypt_ctr:nc_off <- [DW_OP_plus_uconst 4] [$sp+0]
	@DEBUG_VALUE: mbedtls_blowfish_crypt_ctr:n <- $r7
	@DEBUG_VALUE: mbedtls_blowfish_crypt_ctr:nonce_counter <- $r5
	@DEBUG_VALUE: mbedtls_blowfish_crypt_ctr:length <- [DW_OP_constu 1, DW_OP_minus, DW_OP_stack_value] $r3
	@DEBUG_VALUE: mbedtls_blowfish_crypt_ctr:ctx <- [DW_OP_plus_uconst 12] [$sp+0]
	@DEBUG_VALUE: mbedtls_blowfish_crypt_ctr:stream_block <- [DW_OP_plus_uconst 48] [$sp+0]
	@DEBUG_VALUE: mbedtls_blowfish_crypt_ctr:n <- $r7
	.loc	2 430 13 is_stmt 1              @ ../../../ThirdParty/mbedTLS/library/blowfish.c:430:13
	ldr	r0, [sp, #4]                    @ 4-byte Reload
.Ltmp220:
	@DEBUG_VALUE: mbedtls_blowfish_crypt_ctr:nc_off <- $r0
	str	r7, [r0]
	movs	r0, #0
.Ltmp221:
	@DEBUG_VALUE: mbedtls_blowfish_crypt_ctr:nc_off <- [DW_OP_LLVM_entry_value 1] $r2
	.loc	2 433 1                         @ ../../../ThirdParty/mbedTLS/library/blowfish.c:433:1
	add	sp, #28
.Ltmp222:
	pop	{r4, r5, r6, r7, pc}
.Ltmp223:
.Lfunc_end8:
	.size	mbedtls_blowfish_crypt_ctr, .Lfunc_end8-mbedtls_blowfish_crypt_ctr
	.cfi_endproc
	.cantunwind
	.fnend
                                        @ -- End function
	.section	.text.F,"ax",%progbits
	.p2align	1                               @ -- Begin function F
	.type	F,%function
	.code	16                              @ @F
	.thumb_func
F:
.Lfunc_begin9:
	.loc	2 84 0                          @ ../../../ThirdParty/mbedTLS/library/blowfish.c:84:0
	.fnstart
	.cfi_startproc
@ %bb.0:
	@DEBUG_VALUE: F:ctx <- $r0
	@DEBUG_VALUE: F:ctx <- $r0
	@DEBUG_VALUE: F:x <- $r1
	@DEBUG_VALUE: F:x <- $r1
	@DEBUG_VALUE: F:x <- undef
	.save	{r4, r5, r7, lr}
	push	{r4, r5, r7, lr}
	.cfi_def_cfa_offset 16
	.cfi_offset lr, -4
	.cfi_offset r7, -8
	.cfi_offset r5, -12
	.cfi_offset r4, -16
.Ltmp224:
	@DEBUG_VALUE: F:a <- [DW_OP_LLVM_convert 32 7, DW_OP_LLVM_convert 16 7, DW_OP_stack_value] undef
	.loc	2 95 9 prologue_end             @ ../../../ThirdParty/mbedTLS/library/blowfish.c:95:9
	adds	r0, #72
.Ltmp225:
	@DEBUG_VALUE: F:ctx <- [DW_OP_LLVM_entry_value 1] $r0
	@DEBUG_VALUE: F:b <- [DW_OP_LLVM_convert 32 7, DW_OP_LLVM_convert 16 7, DW_OP_constu 255, DW_OP_and, DW_OP_stack_value] undef
	@DEBUG_VALUE: F:c <- [DW_OP_LLVM_convert 32 7, DW_OP_LLVM_convert 16 7, DW_OP_constu 255, DW_OP_and, DW_OP_stack_value] undef
	@DEBUG_VALUE: F:d <- [DW_OP_LLVM_convert 32 7, DW_OP_LLVM_convert 16 7, DW_OP_constu 255, DW_OP_and, DW_OP_stack_value] $r1
	@DEBUG_VALUE: F:x <- undef
	.loc	2 93 7                          @ ../../../ThirdParty/mbedTLS/library/blowfish.c:93:7
	lsrs	r2, r1, #24
	lsls	r2, r2, #2
	.loc	2 95 9                          @ ../../../ThirdParty/mbedTLS/library/blowfish.c:95:9
	ldr	r2, [r0, r2]
	.loc	2 95 24 is_stmt 0               @ ../../../ThirdParty/mbedTLS/library/blowfish.c:95:24
	lsrs	r3, r1, #14
	movw	r4, #1020
	ands	r3, r4
	adds	r3, r0, r3
	movw	r5, #1024
	ldr	r3, [r3, r5]
	.loc	2 95 22                         @ ../../../ThirdParty/mbedTLS/library/blowfish.c:95:22
	adds	r2, r3, r2
.Ltmp226:
	@DEBUG_VALUE: F:y <- $r2
	.loc	2 96 13 is_stmt 1               @ ../../../ThirdParty/mbedTLS/library/blowfish.c:96:13
	lsrs	r3, r1, #6
	ands	r3, r4
	adds	r3, r0, r3
	movw	r4, #2048
	ldr	r3, [r3, r4]
	.loc	2 96 11 is_stmt 0               @ ../../../ThirdParty/mbedTLS/library/blowfish.c:96:11
	eors	r3, r2
.Ltmp227:
	@DEBUG_VALUE: F:y <- $r3
	.loc	2 88 9 is_stmt 1                @ ../../../ThirdParty/mbedTLS/library/blowfish.c:88:9
	uxtb	r1, r1
.Ltmp228:
	.loc	2 97 13                         @ ../../../ThirdParty/mbedTLS/library/blowfish.c:97:13
	lsls	r1, r1, #2
	adds	r0, r0, r1
	movw	r1, #3072
	ldr	r0, [r0, r1]
	.loc	2 97 11 is_stmt 0               @ ../../../ThirdParty/mbedTLS/library/blowfish.c:97:11
	adds	r0, r3, r0
.Ltmp229:
	@DEBUG_VALUE: F:y <- $r0
	.loc	2 99 5 is_stmt 1                @ ../../../ThirdParty/mbedTLS/library/blowfish.c:99:5
	pop	{r4, r5, r7, pc}
.Ltmp230:
.Lfunc_end9:
	.size	F, .Lfunc_end9-F
	.cfi_endproc
	.cantunwind
	.fnend
                                        @ -- End function
	.type	S,%object                       @ @S
	.section	.rodata.S,"a",%progbits
	.p2align	2
S:
	.long	3509652390                      @ 0xd1310ba6
	.long	2564797868                      @ 0x98dfb5ac
	.long	805139163                       @ 0x2ffd72db
	.long	3491422135                      @ 0xd01adfb7
	.long	3101798381                      @ 0xb8e1afed
	.long	1780907670                      @ 0x6a267e96
	.long	3128725573                      @ 0xba7c9045
	.long	4046225305                      @ 0xf12c7f99
	.long	614570311                       @ 0x24a19947
	.long	3012652279                      @ 0xb3916cf7
	.long	134345442                       @ 0x801f2e2
	.long	2240740374                      @ 0x858efc16
	.long	1667834072                      @ 0x636920d8
	.long	1901547113                      @ 0x71574e69
	.long	2757295779                      @ 0xa458fea3
	.long	4103290238                      @ 0xf4933d7e
	.long	227898511                       @ 0xd95748f
	.long	1921955416                      @ 0x728eb658
	.long	1904987480                      @ 0x718bcd58
	.long	2182433518                      @ 0x82154aee
	.long	2069144605                      @ 0x7b54a41d
	.long	3260701109                      @ 0xc25a59b5
	.long	2620446009                      @ 0x9c30d539
	.long	720527379                       @ 0x2af26013
	.long	3318853667                      @ 0xc5d1b023
	.long	677414384                       @ 0x286085f0
	.long	3393288472                      @ 0xca417918
	.long	3101374703                      @ 0xb8db38ef
	.long	2390351024                      @ 0x8e79dcb0
	.long	1614419982                      @ 0x603a180e
	.long	1822297739                      @ 0x6c9e0e8b
	.long	2954791486                      @ 0xb01e8a3e
	.long	3608508353                      @ 0xd71577c1
	.long	3174124327                      @ 0xbd314b27
	.long	2024746970                      @ 0x78af2fda
	.long	1432378464                      @ 0x55605c60
	.long	3864339955                      @ 0xe65525f3
	.long	2857741204                      @ 0xaa55ab94
	.long	1464375394                      @ 0x57489862
	.long	1676153920                      @ 0x63e81440
	.long	1439316330                      @ 0x55ca396a
	.long	715854006                       @ 0x2aab10b6
	.long	3033291828                      @ 0xb4cc5c34
	.long	289532110                       @ 0x1141e8ce
	.long	2706671279                      @ 0xa15486af
	.long	2087905683                      @ 0x7c72e993
	.long	3018724369                      @ 0xb3ee1411
	.long	1668267050                      @ 0x636fbc2a
	.long	732546397                       @ 0x2ba9c55d
	.long	1947742710                      @ 0x741831f6
	.long	3462151702                      @ 0xce5c3e16
	.long	2609353502                      @ 0x9b87931e
	.long	2950085171                      @ 0xafd6ba33
	.long	1814351708                      @ 0x6c24cf5c
	.long	2050118529                      @ 0x7a325381
	.long	680887927                       @ 0x28958677
	.long	999245976                       @ 0x3b8f4898
	.long	1800124847                      @ 0x6b4bb9af
	.long	3300911131                      @ 0xc4bfe81b
	.long	1713906067                      @ 0x66282193
	.long	1641548236                      @ 0x61d809cc
	.long	4213287313                      @ 0xfb21a991
	.long	1216130144                      @ 0x487cac60
	.long	1575780402                      @ 0x5dec8032
	.long	4018429277                      @ 0xef845d5d
	.long	3917837745                      @ 0xe98575b1
	.long	3693486850                      @ 0xdc262302
	.long	3949271944                      @ 0xeb651b88
	.long	596196993                       @ 0x23893e81
	.long	3549867205                      @ 0xd396acc5
	.long	258830323                       @ 0xf6d6ff3
	.long	2213823033                      @ 0x83f44239
	.long	772490370                       @ 0x2e0b4482
	.long	2760122372                      @ 0xa4842004
	.long	1774776394                      @ 0x69c8f04a
	.long	2652871518                      @ 0x9e1f9b5e
	.long	566650946                       @ 0x21c66842
	.long	4142492826                      @ 0xf6e96c9a
	.long	1728879713                      @ 0x670c9c61
	.long	2882767088                      @ 0xabd388f0
	.long	1783734482                      @ 0x6a51a0d2
	.long	3629395816                      @ 0xd8542f68
	.long	2517608232                      @ 0x960fa728
	.long	2874225571                      @ 0xab5133a3
	.long	1861159788                      @ 0x6eef0b6c
	.long	326777828                       @ 0x137a3be4
	.long	3124490320                      @ 0xba3bf050
	.long	2130389656                      @ 0x7efb2a98
	.long	2716951837                      @ 0xa1f1651d
	.long	967770486                       @ 0x39af0176
	.long	1724537150                      @ 0x66ca593e
	.long	2185432712                      @ 0x82430e88
	.long	2364442137                      @ 0x8cee8619
	.long	1164943284                      @ 0x456f9fb4
	.long	2105845187                      @ 0x7d84a5c3
	.long	998989502                       @ 0x3b8b5ebe
	.long	3765401048                      @ 0xe06f75d8
	.long	2244026483                      @ 0x85c12073
	.long	1075463327                      @ 0x401a449f
	.long	1455516326                      @ 0x56c16aa6
	.long	1322494562                      @ 0x4ed3aa62
	.long	910128902                       @ 0x363f7706
	.long	469688178                       @ 0x1bfedf72
	.long	1117454909                      @ 0x429b023d
	.long	936433444                       @ 0x37d0d724
	.long	3490320968                      @ 0xd00a1248
	.long	3675253459                      @ 0xdb0fead3
	.long	1240580251                      @ 0x49f1c09b
	.long	122909385                       @ 0x75372c9
	.long	2157517691                      @ 0x80991b7b
	.long	634681816                       @ 0x25d479d8
	.long	4142456567                      @ 0xf6e8def7
	.long	3825094682                      @ 0xe3fe501a
	.long	3061402683                      @ 0xb6794c3b
	.long	2540495037                      @ 0x976ce0bd
	.long	79693498                        @ 0x4c006ba
	.long	3249098678                      @ 0xc1a94fb6
	.long	1084186820                      @ 0x409f60c4
	.long	1583128258                      @ 0x5e5c9ec2
	.long	426386531                       @ 0x196a2463
	.long	1761308591                      @ 0x68fb6faf
	.long	1047286709                      @ 0x3e6c53b5
	.long	322548459                       @ 0x1339b2eb
	.long	995290223                       @ 0x3b52ec6f
	.long	1845252383                      @ 0x6dfc511f
	.long	2603652396                      @ 0x9b30952c
	.long	3431023940                      @ 0xcc814544
	.long	2942221577                      @ 0xaf5ebd09
	.long	3202600964                      @ 0xbee3d004
	.long	3727903485                      @ 0xde334afd
	.long	1712269319                      @ 0x660f2807
	.long	422464435                       @ 0x192e4bb3
	.long	3234572375                      @ 0xc0cba857
	.long	1170764815                      @ 0x45c8740f
	.long	3523960633                      @ 0xd20b5f39
	.long	3117677531                      @ 0xb9d3fbdb
	.long	1434042557                      @ 0x5579c0bd
	.long	442511882                       @ 0x1a60320a
	.long	3600875718                      @ 0xd6a100c6
	.long	1076654713                      @ 0x402c7279
	.long	1738483198                      @ 0x679f25fe
	.long	4213154764                      @ 0xfb1fa3cc
	.long	2393238008                      @ 0x8ea5e9f8
	.long	3677496056                      @ 0xdb3222f8
	.long	1014306527                      @ 0x3c7516df
	.long	4251020053                      @ 0xfd616b15
	.long	793779912                       @ 0x2f501ec8
	.long	2902807211                      @ 0xad0552ab
	.long	842905082                       @ 0x323db5fa
	.long	4246964064                      @ 0xfd238760
	.long	1395751752                      @ 0x53317b48
	.long	1040244610                      @ 0x3e00df82
	.long	2656851899                      @ 0x9e5c57bb
	.long	3396308128                      @ 0xca6f8ca0
	.long	445077038                       @ 0x1a87562e
	.long	3742853595                      @ 0xdf1769db
	.long	3577915638                      @ 0xd542a8f6
	.long	679411651                       @ 0x287effc3
	.long	2892444358                      @ 0xac6732c6
	.long	2354009459                      @ 0x8c4f5573
	.long	1767581616                      @ 0x695b27b0
	.long	3150600392                      @ 0xbbca58c8
	.long	3791627101                      @ 0xe1ffa35d
	.long	3102740896                      @ 0xb8f011a0
	.long	284835224                       @ 0x10fa3d98
	.long	4246832056                      @ 0xfd2183b8
	.long	1258075500                      @ 0x4afcb56c
	.long	768725851                       @ 0x2dd1d35b
	.long	2589189241                      @ 0x9a53e479
	.long	3069724005                      @ 0xb6f84565
	.long	3532540348                      @ 0xd28e49bc
	.long	1274779536                      @ 0x4bfb9790
	.long	3789419226                      @ 0xe1ddf2da
	.long	2764799539                      @ 0xa4cb7e33
	.long	1660621633                      @ 0x62fb1341
	.long	3471099624                      @ 0xcee4c6e8
	.long	4011903706                      @ 0xef20cada
	.long	913787905                       @ 0x36774c01
	.long	3497959166                      @ 0xd07e9efe
	.long	737222580                       @ 0x2bf11fb4
	.long	2514213453                      @ 0x95dbda4d
	.long	2928710040                      @ 0xae909198
	.long	3937242737                      @ 0xeaad8e71
	.long	1804850592                      @ 0x6b93d5a0
	.long	3499020752                      @ 0xd08ed1d0
	.long	2949064160                      @ 0xafc725e0
	.long	2386320175                      @ 0x8e3c5b2f
	.long	2390070455                      @ 0x8e7594b7
	.long	2415321851                      @ 0x8ff6e2fb
	.long	4061277028                      @ 0xf2122b64
	.long	2290661394                      @ 0x8888b812
	.long	2416832540                      @ 0x900df01c
	.long	1336762016                      @ 0x4fad5ea0
	.long	1754252060                      @ 0x688fc31c
	.long	3520065937                      @ 0xd1cff191
	.long	3014181293                      @ 0xb3a8c1ad
	.long	791618072                       @ 0x2f2f2218
	.long	3188594551                      @ 0xbe0e1777
	.long	3933548030                      @ 0xea752dfe
	.long	2332172193                      @ 0x8b021fa1
	.long	3852520463                      @ 0xe5a0cc0f
	.long	3043980520                      @ 0xb56f74e8
	.long	413987798                       @ 0x18acf3d6
	.long	3465142937                      @ 0xce89e299
	.long	3030929376                      @ 0xb4a84fe0
	.long	4245938359                      @ 0xfd13e0b7
	.long	2093235073                      @ 0x7cc43b81
	.long	3534596313                      @ 0xd2ada8d9
	.long	375366246                       @ 0x165fa266
	.long	2157278981                      @ 0x80957705
	.long	2479649556                      @ 0x93cc7314
	.long	555357303                       @ 0x211a1477
	.long	3870105701                      @ 0xe6ad2065
	.long	2008414854                      @ 0x77b5fa86
	.long	3344188149                      @ 0xc75442f5
	.long	4221384143                      @ 0xfb9d35cf
	.long	3956125452                      @ 0xebcdaf0c
	.long	2067696032                      @ 0x7b3e89a0
	.long	3594591187                      @ 0xd6411bd3
	.long	2921233993                      @ 0xae1e7e49
	.long	2428461                         @ 0x250e2d
	.long	544322398                       @ 0x2071b35e
	.long	577241275                       @ 0x226800bb
	.long	1471733935                      @ 0x57b8e0af
	.long	610547355                       @ 0x2464369b
	.long	4027169054                      @ 0xf009b91e
	.long	1432588573                      @ 0x5563911d
	.long	1507829418                      @ 0x59dfa6aa
	.long	2025931657                      @ 0x78c14389
	.long	3646575487                      @ 0xd95a537f
	.long	545086370                       @ 0x207d5ba2
	.long	48609733                        @ 0x2e5b9c5
	.long	2200306550                      @ 0x83260376
	.long	1653985193                      @ 0x6295cfa9
	.long	298326376                       @ 0x11c81968
	.long	1316178497                      @ 0x4e734a41
	.long	3007786442                      @ 0xb3472dca
	.long	2064951626                      @ 0x7b14a94a
	.long	458293330                       @ 0x1b510052
	.long	2589141269                      @ 0x9a532915
	.long	3591329599                      @ 0xd60f573f
	.long	3164325604                      @ 0xbc9bc6e4
	.long	727753846                       @ 0x2b60a476
	.long	2179363840                      @ 0x81e67400
	.long	146436021                       @ 0x8ba6fb5
	.long	1461446943                      @ 0x571be91f
	.long	4069977195                      @ 0xf296ec6b
	.long	705550613                       @ 0x2a0dd915
	.long	3059967265                      @ 0xb6636521
	.long	3887724982                      @ 0xe7b9f9b6
	.long	4281599278                      @ 0xff34052e
	.long	3313849956                      @ 0xc5855664
	.long	1404054877                      @ 0x53b02d5d
	.long	2845806497                      @ 0xa99f8fa1
	.long	146425753                       @ 0x8ba4799
	.long	1854211946                      @ 0x6e85076a
	.long	1266315497                      @ 0x4b7a70e9
	.long	3048417604                      @ 0xb5b32944
	.long	3681880366                      @ 0xdb75092e
	.long	3289982499                      @ 0xc4192623
	.long	2909710000                      @ 0xad6ea6b0
	.long	1235738493                      @ 0x49a7df7d
	.long	2632868024                      @ 0x9cee60b8
	.long	2414719590                      @ 0x8fedb266
	.long	3970600049                      @ 0xecaa8c71
	.long	1771706367                      @ 0x699a17ff
	.long	1449415276                      @ 0x5664526c
	.long	3266420449                      @ 0xc2b19ee1
	.long	422970021                       @ 0x193602a5
	.long	1963543593                      @ 0x75094c29
	.long	2690192192                      @ 0xa0591340
	.long	3826793022                      @ 0xe4183a3e
	.long	1062508698                      @ 0x3f54989a
	.long	1531092325                      @ 0x5b429d65
	.long	1804592342                      @ 0x6b8fe4d6
	.long	2583117782                      @ 0x99f73fd6
	.long	2714934279                      @ 0xa1d29c07
	.long	4024971509                      @ 0xefe830f5
	.long	1294809318                      @ 0x4d2d38e6
	.long	4028980673                      @ 0xf0255dc1
	.long	1289560198                      @ 0x4cdd2086
	.long	2221992742                      @ 0x8470eb26
	.long	1669523910                      @ 0x6382e9c6
	.long	35572830                        @ 0x21ecc5e
	.long	157838143                       @ 0x9686b3f
	.long	1052438473                      @ 0x3ebaefc9
	.long	1016535060                      @ 0x3c971814
	.long	1802137761                      @ 0x6b6a70a1
	.long	1753167236                      @ 0x687f3584
	.long	1386275462                      @ 0x52a0e286
	.long	3080475397                      @ 0xb79c5305
	.long	2857371447                      @ 0xaa500737
	.long	1040679964                      @ 0x3e07841c
	.long	2145300060                      @ 0x7fdeae5c
	.long	2390574316                      @ 0x8e7d44ec
	.long	1461121720                      @ 0x5716f2b8
	.long	2956646967                      @ 0xb03ada37
	.long	4031777805                      @ 0xf0500c0d
	.long	4028374788                      @ 0xf01c1f04
	.long	33600511                        @ 0x200b3ff
	.long	2920084762                      @ 0xae0cf51a
	.long	1018524850                      @ 0x3cb574b2
	.long	629373528                       @ 0x25837a58
	.long	3691585981                      @ 0xdc0921bd
	.long	3515945977                      @ 0xd19113f9
	.long	2091462646                      @ 0x7ca92ff6
	.long	2486323059                      @ 0x94324773
	.long	586499841                       @ 0x22f54701
	.long	988145025                       @ 0x3ae5e581
	.long	935516892                       @ 0x37c2dadc
	.long	3367335476                      @ 0xc8b57634
	.long	2599673255                      @ 0x9af3dda7
	.long	2839830854                      @ 0xa9446146
	.long	265290510                       @ 0xfd0030e
	.long	3972581182                      @ 0xecc8c73e
	.long	2759138881                      @ 0xa4751e41
	.long	3795373465                      @ 0xe238cd99
	.long	1005194799                      @ 0x3bea0e2f
	.long	847297441                       @ 0x3280bba1
	.long	406762289                       @ 0x183eb331
	.long	1314163512                      @ 0x4e548b38
	.long	1332590856                      @ 0x4f6db908
	.long	1866599683                      @ 0x6f420d03
	.long	4127851711                      @ 0xf60a04bf
	.long	750260880                       @ 0x2cb81290
	.long	613907577                       @ 0x24977c79
	.long	1450815602                      @ 0x5679b072
	.long	3165620655                      @ 0xbcaf89af
	.long	3734664991                      @ 0xde9a771f
	.long	3650291728                      @ 0xd9930810
	.long	3012275730                      @ 0xb38bae12
	.long	3704569646                      @ 0xdccf3f2e
	.long	1427272223                      @ 0x5512721f
	.long	778793252                       @ 0x2e6b7124
	.long	1343938022                      @ 0x501adde6
	.long	2676280711                      @ 0x9f84cd87
	.long	2052605720                      @ 0x7a584718
	.long	1946737175                      @ 0x7408da17
	.long	3164576444                      @ 0xbc9f9abc
	.long	3914038668                      @ 0xe94b7d8c
	.long	3967478842                      @ 0xec7aec3a
	.long	3682934266                      @ 0xdb851dfa
	.long	1661551462                      @ 0x63094366
	.long	3294938066                      @ 0xc464c3d2
	.long	4011595847                      @ 0xef1c1847
	.long	840292616                       @ 0x3215d908
	.long	3712170807                      @ 0xdd433b37
	.long	616741398                       @ 0x24c2ba16
	.long	312560963                       @ 0x12a14d43
	.long	711312465                       @ 0x2a65c451
	.long	1351876610                      @ 0x50940002
	.long	322626781                       @ 0x133ae4dd
	.long	1910503582                      @ 0x71dff89e
	.long	271666773                       @ 0x10314e55
	.long	2175563734                      @ 0x81ac77d6
	.long	1594956187                      @ 0x5f11199b
	.long	70604529                        @ 0x43556f1
	.long	3617834859                      @ 0xd7a3c76b
	.long	1007753275                      @ 0x3c11183b
	.long	1495573769                      @ 0x5924a509
	.long	4069517037                      @ 0xf28fe6ed
	.long	2549218298                      @ 0x97f1fbfa
	.long	2663038764                      @ 0x9ebabf2c
	.long	504708206                       @ 0x1e153c6e
	.long	2263041392                      @ 0x86e34570
	.long	3941167025                      @ 0xeae96fb1
	.long	2249088522                      @ 0x860e5e0a
	.long	1514023603                      @ 0x5a3e2ab3
	.long	1998579484                      @ 0x771fe71c
	.long	1312622330                      @ 0x4e3d06fa
	.long	694541497                       @ 0x2965dcb9
	.long	2582060303                      @ 0x99e71d0f
	.long	2151582166                      @ 0x803e89d6
	.long	1382467621                      @ 0x5266c825
	.long	776784248                       @ 0x2e4cc978
	.long	2618340202                      @ 0x9c10b36a
	.long	3323268794                      @ 0xc6150eba
	.long	2497899128                      @ 0x94e2ea78
	.long	2784771155                      @ 0xa5fc3c53
	.long	503983604                       @ 0x1e0a2df4
	.long	4076293799                      @ 0xf2f74ea7
	.long	907881277                       @ 0x361d2b3d
	.long	423175695                       @ 0x1939260f
	.long	432175456                       @ 0x19c27960
	.long	1378068232                      @ 0x5223a708
	.long	4145222326                      @ 0xf71312b6
	.long	3954048622                      @ 0xebadfe6e
	.long	3938656102                      @ 0xeac31f66
	.long	3820766613                      @ 0xe3bc4595
	.long	2793130115                      @ 0xa67bc883
	.long	2977904593                      @ 0xb17f37d1
	.long	26017576                        @ 0x18cff28
	.long	3274890735                      @ 0xc332ddef
	.long	3194772133                      @ 0xbe6c5aa5
	.long	1700274565                      @ 0x65582185
	.long	1756076034                      @ 0x68ab9802
	.long	4006520079                      @ 0xeecea50f
	.long	3677328699                      @ 0xdb2f953b
	.long	720338349                       @ 0x2aef7dad
	.long	1533947780                      @ 0x5b6e2f84
	.long	354530856                       @ 0x1521b628
	.long	688349552                       @ 0x29076170
	.long	3973924725                      @ 0xecdd4775
	.long	1637815568                      @ 0x619f1510
	.long	332179504                       @ 0x13cca830
	.long	3949051286                      @ 0xeb61bd96
	.long	53804574                        @ 0x334fe1e
	.long	2852348879                      @ 0xaa0363cf
	.long	3044236432                      @ 0xb5735c90
	.long	1282449977                      @ 0x4c70a239
	.long	3583942155                      @ 0xd59e9e0b
	.long	3416972820                      @ 0xcbaade14
	.long	4006381244                      @ 0xeecc86bc
	.long	1617046695                      @ 0x60622ca7
	.long	2628476075                      @ 0x9cab5cab
	.long	3002303598                      @ 0xb2f3846e
	.long	1686838959                      @ 0x648b1eaf
	.long	431878346                       @ 0x19bdf0ca
	.long	2686675385                      @ 0xa02369b9
	.long	1700445008                      @ 0x655abb50
	.long	1080580658                      @ 0x40685a32
	.long	1009431731                      @ 0x3c2ab4b3
	.long	832498133                       @ 0x319ee9d5
	.long	3223435511                      @ 0xc021b8f7
	.long	2605976345                      @ 0x9b540b19
	.long	2271191193                      @ 0x875fa099
	.long	2516031870                      @ 0x95f7997e
	.long	1648197032                      @ 0x623d7da8
	.long	4164389018                      @ 0xf837889a
	.long	2548247927                      @ 0x97e32d77
	.long	300782431                       @ 0x11ed935f
	.long	375919233                       @ 0x16681281
	.long	238389289                       @ 0xe358829
	.long	3353747414                      @ 0xc7e61fd6
	.long	2531188641                      @ 0x96dedfa1
	.long	2019080857                      @ 0x7858ba99
	.long	1475708069                      @ 0x57f584a5
	.long	455242339                       @ 0x1b227263
	.long	2609103871                      @ 0x9b83c3ff
	.long	448939670                       @ 0x1ac24696
	.long	3451063019                      @ 0xcdb30aeb
	.long	1395535956                      @ 0x532e3054
	.long	2413381860                      @ 0x8fd948e4
	.long	1841049896                      @ 0x6dbc3128
	.long	1491858159                      @ 0x58ebf2ef
	.long	885456874                       @ 0x34c6ffea
	.long	4264095073                      @ 0xfe28ed61
	.long	4001119347                      @ 0xee7c3c73
	.long	1565136089                      @ 0x5d4a14d9
	.long	3898914787                      @ 0xe864b7e3
	.long	1108368660                      @ 0x42105d14
	.long	540939232                       @ 0x203e13e0
	.long	1173283510                      @ 0x45eee2b6
	.long	2745871338                      @ 0xa3aaabea
	.long	3681308437                      @ 0xdb6c4f15
	.long	4207628240                      @ 0xfacb4fd0
	.long	3343053890                      @ 0xc742f442
	.long	4016749493                      @ 0xef6abbb5
	.long	1699691293                      @ 0x654f3b1d
	.long	1103962373                      @ 0x41cd2105
	.long	3625875870                      @ 0xd81e799e
	.long	2256883143                      @ 0x86854dc7
	.long	3830138730                      @ 0xe44b476a
	.long	1031889488                      @ 0x3d816250
	.long	3479347698                      @ 0xcf62a1f2
	.long	1535977030                      @ 0x5b8d2646
	.long	4236805024                      @ 0xfc8883a0
	.long	3251091107                      @ 0xc1c7b6a3
	.long	2132092099                      @ 0x7f1524c3
	.long	1774941330                      @ 0x69cb7492
	.long	1199868427                      @ 0x47848a0b
	.long	1452454533                      @ 0x5692b285
	.long	157007616                       @ 0x95bbf00
	.long	2904115357                      @ 0xad19489d
	.long	342012276                       @ 0x1462b174
	.long	595725824                       @ 0x23820e00
	.long	1480756522                      @ 0x58428d2a
	.long	206960106                       @ 0xc55f5ea
	.long	497939518                       @ 0x1dadf43e
	.long	591360097                       @ 0x233f7061
	.long	863170706                       @ 0x3372f092
	.long	2375253569                      @ 0x8d937e41
	.long	3596610801                      @ 0xd65fecf1
	.long	1814182875                      @ 0x6c223bdb
	.long	2094937945                      @ 0x7cde3759
	.long	3421402208                      @ 0xcbee7460
	.long	1082520231                      @ 0x4085f2a7
	.long	3463918190                      @ 0xce77326e
	.long	2785509508                      @ 0xa6078084
	.long	435703966                       @ 0x19f8509e
	.long	3908032597                      @ 0xe8efd855
	.long	1641649973                      @ 0x61d99735
	.long	2842273706                      @ 0xa969a7aa
	.long	3305899714                      @ 0xc50c06c2
	.long	1510255612                      @ 0x5a04abfc
	.long	2148256476                      @ 0x800bcadc
	.long	2655287854                      @ 0x9e447a2e
	.long	3276092548                      @ 0xc3453484
	.long	4258621189                      @ 0xfdd56705
	.long	236887753                       @ 0xe1e9ec9
	.long	3681803219                      @ 0xdb73dbd3
	.long	274041037                       @ 0x105588cd
	.long	1734335097                      @ 0x675fda79
	.long	3815195456                      @ 0xe3674340
	.long	3317970021                      @ 0xc5c43465
	.long	1899903192                      @ 0x713e38d8
	.long	1026095262                      @ 0x3d28f89e
	.long	4050517792                      @ 0xf16dff20
	.long	356393447                       @ 0x153e21e7
	.long	2410691914                      @ 0x8fb03d4a
	.long	3873677099                      @ 0xe6e39f2b
	.long	3682840055                      @ 0xdb83adf7
	.long	3913112168                      @ 0xe93d5a68
	.long	2491498743                      @ 0x948140f7
	.long	4132185628                      @ 0xf64c261c
	.long	2489919796                      @ 0x94692934
	.long	1091903735                      @ 0x411520f7
	.long	1979897079                      @ 0x7602d4f7
	.long	3170134830                      @ 0xbcf46b2e
	.long	3567386728                      @ 0xd4a20068
	.long	3557303409                      @ 0xd4082471
	.long	857797738                       @ 0x3320f46a
	.long	1136121015                      @ 0x43b7d4b7
	.long	1342202287                      @ 0x500061af
	.long	507115054                       @ 0x1e39f62e
	.long	2535736646                      @ 0x97244546
	.long	337727348                       @ 0x14214f74
	.long	3213592640                      @ 0xbf8b8840
	.long	1301675037                      @ 0x4d95fc1d
	.long	2528481711                      @ 0x96b591af
	.long	1895095763                      @ 0x70f4ddd3
	.long	1721773893                      @ 0x66a02f45
	.long	3216771564                      @ 0xbfbc09ec
	.long	62756741                        @ 0x3bd9785
	.long	2142006736                      @ 0x7fac6dd0
	.long	835421444                       @ 0x31cb8504
	.long	2531993523                      @ 0x96eb27b3
	.long	1442658625                      @ 0x55fd3941
	.long	3659876326                      @ 0xda2547e6
	.long	2882144922                      @ 0xabca0a9a
	.long	676362277                       @ 0x28507825
	.long	1392781812                      @ 0x530429f4
	.long	170690266                       @ 0xa2c86da
	.long	3921047035                      @ 0xe9b66dfb
	.long	1759253602                      @ 0x68dc1462
	.long	3611846912                      @ 0xd7486900
	.long	1745797284                      @ 0x680ec0a4
	.long	664899054                       @ 0x27a18dee
	.long	1329594018                      @ 0x4f3ffea2
	.long	3901205900                      @ 0xe887ad8c
	.long	3045908486                      @ 0xb58ce006
	.long	2062866102                      @ 0x7af4d6b6
	.long	2865634940                      @ 0xaace1e7c
	.long	3543621612                      @ 0xd3375fec
	.long	3464012697                      @ 0xce78a399
	.long	1080764994                      @ 0x406b2a42
	.long	553557557                       @ 0x20fe9e35
	.long	3656615353                      @ 0xd9f385b9
	.long	3996768171                      @ 0xee39d7ab
	.long	991055499                       @ 0x3b124e8b
	.long	499776247                       @ 0x1dc9faf7
	.long	1265440854                      @ 0x4b6d1856
	.long	648242737                       @ 0x26a36631
	.long	3940784050                      @ 0xeae397b2
	.long	980351604                       @ 0x3a6efa74
	.long	3713745714                      @ 0xdd5b4332
	.long	1749149687                      @ 0x6841e7f7
	.long	3396870395                      @ 0xca7820fb
	.long	4211799374                      @ 0xfb0af54e
	.long	3640570775                      @ 0xd8feb397
	.long	1161844396                      @ 0x454056ac
	.long	3125318951                      @ 0xba489527
	.long	1431517754                      @ 0x55533a3a
	.long	545492359                       @ 0x20838d87
	.long	4268468663                      @ 0xfe6ba9b7
	.long	3499529547                      @ 0xd096954b
	.long	1437099964                      @ 0x55a867bc
	.long	2702547544                      @ 0xa1159a58
	.long	3433638243                      @ 0xcca92963
	.long	2581715763                      @ 0x99e1db33
	.long	2787789398                      @ 0xa62a4a56
	.long	1060185593                      @ 0x3f3125f9
	.long	1593081372                      @ 0x5ef47e1c
	.long	2418618748                      @ 0x9029317c
	.long	4260947970                      @ 0xfdf8e802
	.long	69676912                        @ 0x4272f70
	.long	2159744348                      @ 0x80bb155c
	.long	86519011                        @ 0x5282ce3
	.long	2512459080                      @ 0x95c11548
	.long	3838209314                      @ 0xe4c66d22
	.long	1220612927                      @ 0x48c1133f
	.long	3339683548                      @ 0xc70f86dc
	.long	133810670                       @ 0x7f9c9ee
	.long	1090789135                      @ 0x41041f0f
	.long	1078426020                      @ 0x404779a4
	.long	1569222167                      @ 0x5d886e17
	.long	845107691                       @ 0x325f51eb
	.long	3583754449                      @ 0xd59bc0d1
	.long	4072456591                      @ 0xf2bcc18f
	.long	1091646820                      @ 0x41113564
	.long	628848692                       @ 0x257b7834
	.long	1613405280                      @ 0x602a9c60
	.long	3757631651                      @ 0xdff8e8a3
	.long	526609435                       @ 0x1f636c1b
	.long	236106946                       @ 0xe12b4c2
	.long	48312990                        @ 0x2e1329e
	.long	2942717905                      @ 0xaf664fd1
	.long	3402727701                      @ 0xcad18115
	.long	1797494240                      @ 0x6b2395e0
	.long	859738849                       @ 0x333e92e1
	.long	992217954                       @ 0x3b240b62
	.long	4005476642                      @ 0xeebeb922
	.long	2243076622                      @ 0x85b2a20e
	.long	3870952857                      @ 0xe6ba0d99
	.long	3732016268                      @ 0xde720c8c
	.long	765654824                       @ 0x2da2f728
	.long	3490871365                      @ 0xd0127845
	.long	2511836413                      @ 0x95b794fd
	.long	1685915746                      @ 0x647d0862
	.long	3888969200                      @ 0xe7ccf5f0
	.long	1414112111                      @ 0x5449a36f
	.long	2273134842                      @ 0x877d48fa
	.long	3281911079                      @ 0xc39dfd27
	.long	4080962846                      @ 0xf33e8d1e
	.long	172450625                       @ 0xa476341
	.long	2569994100                      @ 0x992eff74
	.long	980381355                       @ 0x3a6f6eab
	.long	4109958455                      @ 0xf4f8fd37
	.long	2819808352                      @ 0xa812dc60
	.long	2716589560                      @ 0xa1ebddf8
	.long	2568741196                      @ 0x991be14c
	.long	3681446669                      @ 0xdb6e6b0d
	.long	3329971472                      @ 0xc67b5510
	.long	1835478071                      @ 0x6d672c37
	.long	660984891                       @ 0x2765d43b
	.long	3704678404                      @ 0xdcd0e804
	.long	4045999559                      @ 0xf1290dc7
	.long	3422617507                      @ 0xcc00ffa3
	.long	3040415634                      @ 0xb5390f92
	.long	1762651403                      @ 0x690fed0b
	.long	1719377915                      @ 0x667b9ffb
	.long	3470491036                      @ 0xcedb7d9c
	.long	2693910283                      @ 0xa091cf0b
	.long	3642056355                      @ 0xd9155ea3
	.long	3138596744                      @ 0xbb132f88
	.long	1364962596                      @ 0x515bad24
	.long	2073328063                      @ 0x7b9479bf
	.long	1983633131                      @ 0x763bd6eb
	.long	926494387                       @ 0x37392eb3
	.long	3423689081                      @ 0xcc115979
	.long	2150032023                      @ 0x8026e297
	.long	4096667949                      @ 0xf42e312d
	.long	1749200295                      @ 0x6842ada7
	.long	3328846651                      @ 0xc66a2b3b
	.long	309677260                       @ 0x12754ccc
	.long	2016342300                      @ 0x782ef11c
	.long	1779581495                      @ 0x6a124237
	.long	3079819751                      @ 0xb79251e7
	.long	111262694                       @ 0x6a1bbe6
	.long	1274766160                      @ 0x4bfb6350
	.long	443224088                       @ 0x1a6b1018
	.long	298511866                       @ 0x11caedfa
	.long	1025883608                      @ 0x3d25bdd8
	.long	3806446537                      @ 0xe2e1c3c9
	.long	1145181785                      @ 0x44421659
	.long	168956806                       @ 0xa121386
	.long	3641502830                      @ 0xd90cec6e
	.long	3584813610                      @ 0xd5abea2a
	.long	1689216846                      @ 0x64af674e
	.long	3666258015                      @ 0xda86a85f
	.long	3200248200                      @ 0xbebfe988
	.long	1692713982                      @ 0x64e4c3fe
	.long	2646376535                      @ 0x9dbc8057
	.long	4042768518                      @ 0xf0f7c086
	.long	1618508792                      @ 0x60787bf8
	.long	1610833997                      @ 0x6003604d
	.long	3523052358                      @ 0xd1fd8346
	.long	4130873264                      @ 0xf6381fb0
	.long	2001055236                      @ 0x7745ae04
	.long	3610705100                      @ 0xd736fccc
	.long	2202168115                      @ 0x83426b33
	.long	4028541809                      @ 0xf01eab71
	.long	2961195399                      @ 0xb0804187
	.long	1006657119                      @ 0x3c005e5f
	.long	2006996926                      @ 0x77a057be
	.long	3186142756                      @ 0xbde8ae24
	.long	1430667929                      @ 0x55464299
	.long	3210227297                      @ 0xbf582e61
	.long	1314452623                      @ 0x4e58f48f
	.long	4074634658                      @ 0xf2ddfda2
	.long	4101304120                      @ 0xf474ef38
	.long	2273951170                      @ 0x8789bdc2
	.long	1399257539                      @ 0x5366f9c3
	.long	3367210612                      @ 0xc8b38e74
	.long	3027628629                      @ 0xb475f255
	.long	1190975929                      @ 0x46fcd9b9
	.long	2062231137                      @ 0x7aeb2661
	.long	2333990788                      @ 0x8b1ddf84
	.long	2221543033                      @ 0x846a0e79
	.long	2438960610                      @ 0x915f95e2
	.long	1181637006                      @ 0x466e598e
	.long	548689776                       @ 0x20b45770
	.long	2362791313                      @ 0x8cd55591
	.long	3372408396                      @ 0xc902de4c
	.long	3104550113                      @ 0xb90bace1
	.long	3145860560                      @ 0xbb8205d0
	.long	296247880                       @ 0x11a86248
	.long	1970579870                      @ 0x7574a99e
	.long	3078560182                      @ 0xb77f19b6
	.long	3769228297                      @ 0xe0a9dc09
	.long	1714227617                      @ 0x662d09a1
	.long	3291629107                      @ 0xc4324633
	.long	3898220290                      @ 0xe85a1f02
	.long	166772364                       @ 0x9f0be8c
	.long	1251581989                      @ 0x4a99a025
	.long	493813264                       @ 0x1d6efe10
	.long	448347421                       @ 0x1ab93d1d
	.long	195405023                       @ 0xba5a4df
	.long	2709975567                      @ 0xa186f20f
	.long	677966185                       @ 0x2868f169
	.long	3703036547                      @ 0xdcb7da83
	.long	1463355134                      @ 0x573906fe
	.long	2715995803                      @ 0xa1e2ce9b
	.long	1338867538                      @ 0x4fcd7f52
	.long	1343315457                      @ 0x50115e01
	.long	2802222074                      @ 0xa70683fa
	.long	2684532164                      @ 0xa002b5c4
	.long	233230375                       @ 0xde6d027
	.long	2599980071                      @ 0x9af88c27
	.long	2000651841                      @ 0x773f8641
	.long	3277868038                      @ 0xc3604c06
	.long	1638401717                      @ 0x61a806b5
	.long	4028070440                      @ 0xf0177a28
	.long	3237316320                      @ 0xc0f586e0
	.long	6314154                         @ 0x6058aa
	.long	819756386                       @ 0x30dc7d62
	.long	300326615                       @ 0x11e69ed7
	.long	590932579                       @ 0x2338ea63
	.long	1405279636                      @ 0x53c2dd94
	.long	3267499572                      @ 0xc2c21634
	.long	3150704214                      @ 0xbbcbee56
	.long	2428286686                      @ 0x90bcb6de
	.long	3959192993                      @ 0xebfc7da1
	.long	3461946742                      @ 0xce591d76
	.long	1862657033                      @ 0x6f05e409
	.long	1266418056                      @ 0x4b7c0188
	.long	963775037                       @ 0x39720a3d
	.long	2089974820                      @ 0x7c927c24
	.long	2263052895                      @ 0x86e3725f
	.long	1917689273                      @ 0x724d9db9
	.long	448879540                       @ 0x1ac15bb4
	.long	3550394620                      @ 0xd39eb8fc
	.long	3981727096                      @ 0xed545578
	.long	150775221                       @ 0x8fca5b5
	.long	3627908307                      @ 0xd83d7cd3
	.long	1303187396                      @ 0x4dad0fc4
	.long	508620638                       @ 0x1e50ef5e
	.long	2975983352                      @ 0xb161e6f8
	.long	2726630617                      @ 0xa28514d9
	.long	1817252668                      @ 0x6c51133c
	.long	1876281319                      @ 0x6fd5c7e7
	.long	1457606340                      @ 0x56e14ec4
	.long	908771278                       @ 0x362abfce
	.long	3720792119                      @ 0xddc6c837
	.long	3617206836                      @ 0xd79a3234
	.long	2455994898                      @ 0x92638212
	.long	1729034894                      @ 0x670efa8e
	.long	1080033504                      @ 0x406000e0
	.long	976866871                       @ 0x3a39ce37
	.long	3556439503                      @ 0xd3faf5cf
	.long	2881648439                      @ 0xabc27737
	.long	1522871579                      @ 0x5ac52d1b
	.long	1555064734                      @ 0x5cb0679e
	.long	1336096578                      @ 0x4fa33742
	.long	3548522304                      @ 0xd3822740
	.long	2579274686                      @ 0x99bc9bbe
	.long	3574697629                      @ 0xd5118e9d
	.long	3205460757                      @ 0xbf0f7315
	.long	3593280638                      @ 0xd62d1c7e
	.long	3338716283                      @ 0xc700c47b
	.long	3079412587                      @ 0xb78c1b6b
	.long	564236357                       @ 0x21a19045
	.long	2993598910                      @ 0xb26eb1be
	.long	1781952180                      @ 0x6a366eb4
	.long	1464380207                      @ 0x5748ab2f
	.long	3163844217                      @ 0xbc946e79
	.long	3332601554                      @ 0xc6a376d2
	.long	1699332808                      @ 0x6549c2c8
	.long	1393555694                      @ 0x530ff8ee
	.long	1183702653                      @ 0x468dde7d
	.long	3581086237                      @ 0xd5730a1d
	.long	1288719814                      @ 0x4cd04dc6
	.long	691649499                       @ 0x2939bbdb
	.long	2847557200                      @ 0xa9ba4650
	.long	2895455976                      @ 0xac9526e8
	.long	3193889540                      @ 0xbe5ee304
	.long	2717570544                      @ 0xa1fad5f0
	.long	1781354906                      @ 0x6a2d519a
	.long	1676643554                      @ 0x63ef8ce2
	.long	2592534050                      @ 0x9a86ee22
	.long	3230253752                      @ 0xc089c2b8
	.long	1126444790                      @ 0x43242ef6
	.long	2770207658                      @ 0xa51e03aa
	.long	2633158820                      @ 0x9cf2d0a4
	.long	2210423226                      @ 0x83c061ba
	.long	2615765581                      @ 0x9be96a4d
	.long	2414155088                      @ 0x8fe51550
	.long	3127139286                      @ 0xba645bd6
	.long	673620729                       @ 0x2826a2f9
	.long	2805611233                      @ 0xa73a3ae1
	.long	1269405062                      @ 0x4ba99586
	.long	4015350505                      @ 0xef5562e9
	.long	3341807571                      @ 0xc72fefd3
	.long	4149409754                      @ 0xf752f7da
	.long	1057255273                      @ 0x3f046f69
	.long	2012875353                      @ 0x77fa0a59
	.long	2162469141                      @ 0x80e4a915
	.long	2276492801                      @ 0x87b08601
	.long	2601117357                      @ 0x9b09e6ad
	.long	993977747                       @ 0x3b3ee593
	.long	3918593370                      @ 0xe990fd5a
	.long	2654263191                      @ 0x9e34d797
	.long	753973209                       @ 0x2cf0b7d9
	.long	36408145                        @ 0x22b8b51
	.long	2530585658                      @ 0x96d5ac3a
	.long	25011837                        @ 0x17da67d
	.long	3520020182                      @ 0xd1cf3ed6
	.long	2088578344                      @ 0x7c7d2d28
	.long	530523599                       @ 0x1f9f25cf
	.long	2918365339                      @ 0xadf2b89b
	.long	1524020338                      @ 0x5ad6b472
	.long	1518925132                      @ 0x5a88f54c
	.long	3760827505                      @ 0xe029ac71
	.long	3759777254                      @ 0xe019a5e6
	.long	1202760957                      @ 0x47b0acfd
	.long	3985898139                      @ 0xed93fa9b
	.long	3906192525                      @ 0xe8d3c48d
	.long	674977740                       @ 0x283b57cc
	.long	4174734889                      @ 0xf8d56629
	.long	2031300136                      @ 0x79132e28
	.long	2019492241                      @ 0x785f0191
	.long	3983892565                      @ 0xed756055
	.long	4153806404                      @ 0xf7960e44
	.long	3822280332                      @ 0xe3d35e8c
	.long	352677332                       @ 0x15056dd4
	.long	2297720250                      @ 0x88f46dba
	.long	60907813                        @ 0x3a16125
	.long	90501309                        @ 0x564f0bd
	.long	3286998549                      @ 0xc3eb9e15
	.long	1016092578                      @ 0x3c9057a2
	.long	2535922412                      @ 0x97271aec
	.long	2839152426                      @ 0xa93a072a
	.long	457141659                       @ 0x1b3f6d9b
	.long	509813237                       @ 0x1e6321f5
	.long	4120667899                      @ 0xf59c66fb
	.long	652014361                       @ 0x26dcf319
	.long	1966332200                      @ 0x7533d928
	.long	2975202805                      @ 0xb155fdf5
	.long	55981186                        @ 0x3563482
	.long	2327461051                      @ 0x8aba3cbb
	.long	676427537                       @ 0x28517711
	.long	3255491064                      @ 0xc20ad9f8
	.long	2882294119                      @ 0xabcc5167
	.long	3433927263                      @ 0xccad925f
	.long	1307055953                      @ 0x4de81751
	.long	942726286                       @ 0x3830dc8e
	.long	933058658                       @ 0x379d5862
	.long	2468411793                      @ 0x9320f991
	.long	3933900994                      @ 0xea7a90c2
	.long	4215176142                      @ 0xfb3e7bce
	.long	1361170020                      @ 0x5121ce64
	.long	2001714738                      @ 0x774fbe32
	.long	2830558078                      @ 0xa8b6e37e
	.long	3274259782                      @ 0xc3293d46
	.long	1222529897                      @ 0x48de5369
	.long	1679025792                      @ 0x6413e680
	.long	2729314320                      @ 0xa2ae0810
	.long	3714953764                      @ 0xdd6db224
	.long	1770335741                      @ 0x69852dfd
	.long	151462246                       @ 0x9072166
	.long	3013232138                      @ 0xb39a460a
	.long	1682292957                      @ 0x6445c0dd
	.long	1483529935                      @ 0x586cdecf
	.long	471910574                       @ 0x1c20c8ae
	.long	1539241949                      @ 0x5bbef7dd
	.long	458788160                       @ 0x1b588d40
	.long	3436315007                      @ 0xccd2017f
	.long	1807016891                      @ 0x6bb4e3bb
	.long	3718408830                      @ 0xdda26a7e
	.long	978976581                       @ 0x3a59ff45
	.long	1043663428                      @ 0x3e350a44
	.long	3165965781                      @ 0xbcb4cdd5
	.long	1927990952                      @ 0x72eacea8
	.long	4200891579                      @ 0xfa6484bb
	.long	2372276910                      @ 0x8d6612ae
	.long	3208408903                      @ 0xbf3c6f47
	.long	3533431907                      @ 0xd29be463
	.long	1412390302                      @ 0x542f5d9e
	.long	2931980059                      @ 0xaec2771b
	.long	4132332400                      @ 0xf64e6370
	.long	1947078029                      @ 0x740e0d8d
	.long	3881505623                      @ 0xe75b1357
	.long	4168226417                      @ 0xf8721671
	.long	2941484381                      @ 0xaf537d5d
	.long	1077988104                      @ 0x4040cb08
	.long	1320477388                      @ 0x4eb4e2cc
	.long	886195818                       @ 0x34d2466a
	.long	18198404                        @ 0x115af84
	.long	3786409000                      @ 0xe1b00428
	.long	2509781533                      @ 0x95983a1d
	.long	112762804                       @ 0x6b89fb4
	.long	3463356488                      @ 0xce6ea048
	.long	1866414978                      @ 0x6f3f3b82
	.long	891333506                       @ 0x3520ab82
	.long	18488651                        @ 0x11a1d4b
	.long	661792760                       @ 0x277227f8
	.long	1628790961                      @ 0x611560b1
	.long	3885187036                      @ 0xe7933fdc
	.long	3141171499                      @ 0xbb3a792b
	.long	876946877                       @ 0x344525bd
	.long	2693282273                      @ 0xa08839e1
	.long	1372485963                      @ 0x51ce794b
	.long	791857591                       @ 0x2f32c9b7
	.long	2686433993                      @ 0xa01fbac9
	.long	3759982718                      @ 0xe01cc87e
	.long	3167212022                      @ 0xbcc7d1f6
	.long	3472953795                      @ 0xcf0111c3
	.long	2716379847                      @ 0xa1e8aac7
	.long	445679433                       @ 0x1a908749
	.long	3561995674                      @ 0xd44fbd9a
	.long	3504004811                      @ 0xd0dadecb
	.long	3574258232                      @ 0xd50ada38
	.long	54117162                        @ 0x339c32a
	.long	3331405415                      @ 0xc6913667
	.long	2381918588                      @ 0x8df9317c
	.long	3769707343                      @ 0xe0b12b4f
	.long	4154350007                      @ 0xf79e59b7
	.long	1140177722                      @ 0x43f5bb3a
	.long	4074052095                      @ 0xf2d519ff
	.long	668550556                       @ 0x27d9459c
	.long	3214352940                      @ 0xbf97222c
	.long	367459370                       @ 0x15e6fc2a
	.long	261225585                       @ 0xf91fc71
	.long	2610173221                      @ 0x9b941525
	.long	4209349473                      @ 0xfae59361
	.long	3468074219                      @ 0xceb69ceb
	.long	3265815641                      @ 0xc2a86459
	.long	314222801                       @ 0x12baa8d1
	.long	3066103646                      @ 0xb6c1075e
	.long	3808782860                      @ 0xe3056a0c
	.long	282218597                       @ 0x10d25065
	.long	3406013506                      @ 0xcb03a442
	.long	3773591054                      @ 0xe0ec6e0e
	.long	379116347                       @ 0x1698db3b
	.long	1285071038                      @ 0x4c98a0be
	.long	846784868                       @ 0x3278e964
	.long	2669647154                      @ 0x9f1f9532
	.long	3771962079                      @ 0xe0d392df
	.long	3550491691                      @ 0xd3a0342b
	.long	2305946142                      @ 0x8971f21e
	.long	453669953                       @ 0x1b0a7441
	.long	1268987020                      @ 0x4ba3348c
	.long	3317592352                      @ 0xc5be7120
	.long	3279303384                      @ 0xc37632d8
	.long	3744833421                      @ 0xdf359f8d
	.long	2610507566                      @ 0x9b992f2e
	.long	3859509063                      @ 0xe60b6f47
	.long	266596637                       @ 0xfe3f11d
	.long	3847019092                      @ 0xe54cda54
	.long	517658769                       @ 0x1edad891
	.long	3462560207                      @ 0xce6279cf
	.long	3443424879                      @ 0xcd3e7e6f
	.long	370717030                       @ 0x1618b166
	.long	4247526661                      @ 0xfd2c1d05
	.long	2224018117                      @ 0x848fd2c5
	.long	4143653529                      @ 0xf6fb2299
	.long	4112773975                      @ 0xf523f357
	.long	2788324899                      @ 0xa6327623
	.long	2477274417                      @ 0x93a83531
	.long	1456262402                      @ 0x56cccd02
	.long	2901442914                      @ 0xacf08162
	.long	1517677493                      @ 0x5a75ebb5
	.long	1846949527                      @ 0x6e163697
	.long	2295493580                      @ 0x88d273cc
	.long	3734397586                      @ 0xde966292
	.long	2176403920                      @ 0x81b949d0
	.long	1280348187                      @ 0x4c50901b
	.long	1908823572                      @ 0x71c65614
	.long	3871786941                      @ 0xe6c6c7bd
	.long	846861322                       @ 0x327a140a
	.long	1172426758                      @ 0x45e1d006
	.long	3287448474                      @ 0xc3f27b9a
	.long	3383383037                      @ 0xc9aa53fd
	.long	1655181056                      @ 0x62a80f00
	.long	3139813346                      @ 0xbb25bfe2
	.long	901632758                       @ 0x35bdd2f6
	.long	1897031941                      @ 0x71126905
	.long	2986607138                      @ 0xb2040222
	.long	3066810236                      @ 0xb6cbcf7c
	.long	3447102507                      @ 0xcd769c2b
	.long	1393639104                      @ 0x53113ec0
	.long	373351379                       @ 0x1640e3d3
	.long	950779232                       @ 0x38abbd60
	.long	625454576                       @ 0x2547adf0
	.long	3124240540                      @ 0xba38209c
	.long	4148612726                      @ 0xf746ce76
	.long	2007998917                      @ 0x77afa1c5
	.long	544563296                       @ 0x20756060
	.long	2244738638                      @ 0x85cbfe4e
	.long	2330496472                      @ 0x8ae88dd8
	.long	2058025392                      @ 0x7aaaf9b0
	.long	1291430526                      @ 0x4cf9aa7e
	.long	424198748                       @ 0x1948c25c
	.long	50039436                        @ 0x2fb8a8c
	.long	29584100                        @ 0x1c36ae4
	.long	3605783033                      @ 0xd6ebe1f9
	.long	2429876329                      @ 0x90d4f869
	.long	2791104160                      @ 0xa65cdea0
	.long	1057563949                      @ 0x3f09252d
	.long	3255363231                      @ 0xc208e69f
	.long	3075367218                      @ 0xb74e6132
	.long	3463963227                      @ 0xce77e25b
	.long	1469046755                      @ 0x578fdfe3
	.long	985887462                       @ 0x3ac372e6
	.size	S, 4096

	.type	P,%object                       @ @P
	.section	.rodata.P,"a",%progbits
	.p2align	2
P:
	.long	608135816                       @ 0x243f6a88
	.long	2242054355                      @ 0x85a308d3
	.long	320440878                       @ 0x13198a2e
	.long	57701188                        @ 0x3707344
	.long	2752067618                      @ 0xa4093822
	.long	698298832                       @ 0x299f31d0
	.long	137296536                       @ 0x82efa98
	.long	3964562569                      @ 0xec4e6c89
	.long	1160258022                      @ 0x452821e6
	.long	953160567                       @ 0x38d01377
	.long	3193202383                      @ 0xbe5466cf
	.long	887688300                       @ 0x34e90c6c
	.long	3232508343                      @ 0xc0ac29b7
	.long	3380367581                      @ 0xc97c50dd
	.long	1065670069                      @ 0x3f84d5b5
	.long	3041331479                      @ 0xb5470917
	.long	2450970073                      @ 0x9216d5d9
	.long	2306472731                      @ 0x8979fb1b
	.size	P, 72

	.file	3 "C:\\Users\\shw26\\OneDrive\\Desktop\\2021\\2021-1\\\354\272\241\354\212\244\355\206\244\353\224\224\354\236\220\354\235\2702\\Nuvoton\\M2351_BSP_v3.00.004\\M2351Series_BSP_CMSIS_V3.00.004\\MyProject\\PulseMonitoring\\Secure" "../../../ThirdParty/mbedTLS/include/mbedtls\\blowfish.h"
	.file	4 "C:\\" "Keil_v5\\ARM\\ARMCLANG\\Bin\\..\\include\\stddef.h"
	.section	".note.GNU-stack","",%progbits
	.eabi_attribute	30, 1	@ Tag_ABI_optimization_goals
	.ARM_attribute	16, 1	@ Tag_AV_eba