	.text
	.syntax unified
	.eabi_attribute	67, "2.09"	@ Tag_conformance
	.cpu	cortex-m23
	.eabi_attribute	6, 16	@ Tag_CPU_arch
	.eabi_attribute	7, 77	@ Tag_CPU_arch_profile
	.eabi_attribute	8, 0	@ Tag_ARM_ISA_use
	.eabi_attribute	9, 3	@ Tag_THUMB_ISA_use
	.eabi_attribute	34, 0	@ Tag_CPU_unaligned_access
	.eabi_attribute	17, 1	@ Tag_ABI_PCS_GOT_use
	.eabi_attribute	20, 2	@ Tag_ABI_FP_denormal
	.eabi_attribute	21, 0	@ Tag_ABI_FP_exceptions
	.eabi_attribute	23, 1	@ Tag_ABI_FP_number_model
	.eabi_attribute	24, 1	@ Tag_ABI_align_needed
	.eabi_attribute	25, 1	@ Tag_ABI_align_preserved
	.eabi_attribute	38, 1	@ Tag_ABI_FP_16bit_format
	.eabi_attribute	18, 2	@ Tag_ABI_PCS_wchar_t
	.eabi_attribute	26, 1	@ Tag_ABI_enum_size
	.eabi_attribute	14, 0	@ Tag_ABI_PCS_R9_use
	.file	"BufList.c"
	.file	1 "C:/Users/shw26/AppData/Local/Arm/Packs/ARM/CMSIS/5.7.0/CMSIS/RTOS2/Include" "cmsis_os2.h"
	.file	2 "C:\\" "Keil_v5\\ARM\\ARMCLANG\\Bin\\..\\include\\stdint.h"
	.file	3 "C:/Users/shw26/AppData/Local/Arm/Packs/ARM/CMSIS-Driver/2.6.1/WiFi/ESP8266/BufList" "BufList.h"
	.file	4 "C:/Users/shw26/AppData/Local/Arm/Packs/ARM/CMSIS-Driver/2.6.1/WiFi/ESP8266/BufList" "LinkList.h"
	.file	5 "C:/Users/shw26/AppData/Local/Arm/Packs/ARM/CMSIS-Driver/2.6.1/WiFi/ESP8266/BufList" "BufList.c"
	.section	.text.BufInit,"ax",%progbits
	.hidden	BufInit                         @ -- Begin function BufInit
	.globl	BufInit
	.p2align	1
	.type	BufInit,%function
	.code	16                              @ @BufInit
	.thumb_func
BufInit:
.Lfunc_begin0:
	.loc	5 105 0                         @ C:/Users/shw26/AppData/Local/Arm/Packs/ARM/CMSIS-Driver/2.6.1/WiFi/ESP8266/BufList/BufList.c:105:0
	.fnstart
	.cfi_sections .debug_frame
	.cfi_startproc
@ %bb.0:
	@DEBUG_VALUE: BufInit:mp_id <- $r0
	@DEBUG_VALUE: BufInit:mutex <- $r1
	@DEBUG_VALUE: BufInit:p <- $r2
	.save	{r4, r5, r6, r7, lr}
	push	{r4, r5, r6, r7, lr}
	.cfi_def_cfa_offset 20
	.cfi_offset lr, -4
	.cfi_offset r7, -8
	.cfi_offset r6, -12
	.cfi_offset r5, -16
	.cfi_offset r4, -20
	.pad	#4
	sub	sp, #4
	.cfi_def_cfa_offset 24
	movs	r7, #0
	mvns	r5, r7
	@DEBUG_VALUE: BufInit:p <- $r2
	@DEBUG_VALUE: BufInit:mutex <- $r1
	@DEBUG_VALUE: BufInit:mp_id <- $r0
.Ltmp0:
	.loc	5 109 19 prologue_end           @ C:/Users/shw26/AppData/Local/Arm/Packs/ARM/CMSIS-Driver/2.6.1/WiFi/ESP8266/BufList/BufList.c:109:19
	cbz	r0, .LBB0_4
.Ltmp1:
@ %bb.1:
	@DEBUG_VALUE: BufInit:p <- $r2
	@DEBUG_VALUE: BufInit:mutex <- $r1
	@DEBUG_VALUE: BufInit:mp_id <- $r0
	.loc	5 0 19 is_stmt 0                @ C:/Users/shw26/AppData/Local/Arm/Packs/ARM/CMSIS-Driver/2.6.1/WiFi/ESP8266/BufList/BufList.c:0:19
	mov	r4, r2
.Ltmp2:
	@DEBUG_VALUE: BufInit:p <- $r4
	@DEBUG_VALUE: BufInit:mp_id <- $r0
	.loc	5 109 19                        @ C:/Users/shw26/AppData/Local/Arm/Packs/ARM/CMSIS-Driver/2.6.1/WiFi/ESP8266/BufList/BufList.c:109:19
	cbz	r2, .LBB0_4
.Ltmp3:
@ %bb.2:
	@DEBUG_VALUE: BufInit:p <- $r4
	@DEBUG_VALUE: BufInit:mutex <- $r1
	@DEBUG_VALUE: BufInit:mp_id <- $r0
	.loc	5 0 19                          @ C:/Users/shw26/AppData/Local/Arm/Packs/ARM/CMSIS-Driver/2.6.1/WiFi/ESP8266/BufList/BufList.c:0:19
	mov	r6, r0
.Ltmp4:
	@DEBUG_VALUE: BufInit:mp_id <- $r6
	str	r1, [sp]                        @ 4-byte Spill
.Ltmp5:
	@DEBUG_VALUE: BufInit:mutex <- [$sp+0]
	.loc	5 114 13 is_stmt 1              @ C:/Users/shw26/AppData/Local/Arm/Packs/ARM/CMSIS-Driver/2.6.1/WiFi/ESP8266/BufList/BufList.c:114:13
	bl	osMemoryPoolGetBlockSize
.Ltmp6:
	@DEBUG_VALUE: BufInit:bl_sz <- $r0
	.loc	5 116 9                         @ C:/Users/shw26/AppData/Local/Arm/Packs/ARM/CMSIS-Driver/2.6.1/WiFi/ESP8266/BufList/BufList.c:116:9
	lsrs	r1, r0, #16
	bne	.LBB0_4
.Ltmp7:
@ %bb.3:
	@DEBUG_VALUE: BufInit:mutex <- [$sp+0]
	@DEBUG_VALUE: BufInit:mp_id <- $r6
	@DEBUG_VALUE: BufInit:p <- $r4
	@DEBUG_VALUE: BufInit:bl_sz <- $r0
	.loc	5 123 16                        @ C:/Users/shw26/AppData/Local/Arm/Packs/ARM/CMSIS-Driver/2.6.1/WiFi/ESP8266/BufList/BufList.c:123:16
	strh	r0, [r4, #16]
	.loc	5 121 16                        @ C:/Users/shw26/AppData/Local/Arm/Packs/ARM/CMSIS-Driver/2.6.1/WiFi/ESP8266/BufList/BufList.c:121:16
	ldr	r0, [sp]                        @ 4-byte Reload
.Ltmp8:
	@DEBUG_VALUE: BufInit:mutex <- $r0
	str	r0, [r4, #8]
	.loc	5 122 16                        @ C:/Users/shw26/AppData/Local/Arm/Packs/ARM/CMSIS-Driver/2.6.1/WiFi/ESP8266/BufList/BufList.c:122:16
	str	r6, [r4, #12]
	.loc	5 125 7                         @ C:/Users/shw26/AppData/Local/Arm/Packs/ARM/CMSIS-Driver/2.6.1/WiFi/ESP8266/BufList/BufList.c:125:7
	mov	r0, r4
.Ltmp9:
	@DEBUG_VALUE: BufInit:mutex <- [DW_OP_LLVM_entry_value 1] $r1
	bl	ListInit
.Ltmp10:
	@DEBUG_VALUE: BufInit:rval <- 0
	.loc	5 0 0 is_stmt 0                 @ C:/Users/shw26/AppData/Local/Arm/Packs/ARM/CMSIS-Driver/2.6.1/WiFi/ESP8266/BufList/BufList.c:0:0
	mov	r5, r7
.Ltmp11:
.LBB0_4:
	@DEBUG_VALUE: BufInit:rval <- $r5
	.loc	5 131 3 is_stmt 1               @ C:/Users/shw26/AppData/Local/Arm/Packs/ARM/CMSIS-Driver/2.6.1/WiFi/ESP8266/BufList/BufList.c:131:3
	mov	r0, r5
	add	sp, #4
	pop	{r4, r5, r6, r7, pc}
.Ltmp12:
.Lfunc_end0:
	.size	BufInit, .Lfunc_end0-BufInit
	.cfi_endproc
	.cantunwind
	.fnend
                                        @ -- End function
	.section	.text.BufUninit,"ax",%progbits
	.hidden	BufUninit                       @ -- Begin function BufUninit
	.globl	BufUninit
	.p2align	1
	.type	BufUninit,%function
	.code	16                              @ @BufUninit
	.thumb_func
BufUninit:
.Lfunc_begin1:
	.loc	5 137 0                         @ C:/Users/shw26/AppData/Local/Arm/Packs/ARM/CMSIS-Driver/2.6.1/WiFi/ESP8266/BufList/BufList.c:137:0
	.fnstart
	.cfi_startproc
@ %bb.0:
	@DEBUG_VALUE: BufUninit:p <- $r0
	.save	{r4, r5, r7, lr}
	push	{r4, r5, r7, lr}
	.cfi_def_cfa_offset 16
	.cfi_offset lr, -4
	.cfi_offset r7, -8
	.cfi_offset r5, -12
	.cfi_offset r4, -16
	movs	r4, #0
	@DEBUG_VALUE: BufUninit:p <- $r0
.Ltmp13:
	.loc	5 141 7 prologue_end            @ C:/Users/shw26/AppData/Local/Arm/Packs/ARM/CMSIS-Driver/2.6.1/WiFi/ESP8266/BufList/BufList.c:141:7
	cbz	r0, .LBB1_4
.Ltmp14:
@ %bb.1:
	@DEBUG_VALUE: BufUninit:p <- $r0
	.loc	5 0 7 is_stmt 0                 @ C:/Users/shw26/AppData/Local/Arm/Packs/ARM/CMSIS-Driver/2.6.1/WiFi/ESP8266/BufList/BufList.c:0:7
	mov	r5, r0
.Ltmp15:
	@DEBUG_VALUE: BufUninit:p <- $r5
.LBB1_2:                                @ =>This Inner Loop Header: Depth=1
	@DEBUG_VALUE: BufUninit:p <- $r5
	.loc	5 147 16 is_stmt 1              @ C:/Users/shw26/AppData/Local/Arm/Packs/ARM/CMSIS-Driver/2.6.1/WiFi/ESP8266/BufList/BufList.c:147:16
	mov	r0, r5
	bl	Free
.Ltmp16:
	@DEBUG_VALUE: BufUninit:buf_cb <- $r0
	.loc	5 148 5                         @ C:/Users/shw26/AppData/Local/Arm/Packs/ARM/CMSIS-Driver/2.6.1/WiFi/ESP8266/BufList/BufList.c:148:5
	cmp	r0, #0
	bne	.LBB1_2
.Ltmp17:
@ %bb.3:
	@DEBUG_VALUE: BufUninit:p <- $r5
	@DEBUG_VALUE: BufUninit:buf_cb <- $r0
	.loc	5 151 5                         @ C:/Users/shw26/AppData/Local/Arm/Packs/ARM/CMSIS-Driver/2.6.1/WiFi/ESP8266/BufList/BufList.c:151:5
	mov	r0, r5
.Ltmp18:
	bl	ListInit
.Ltmp19:
	@DEBUG_VALUE: BufUninit:rval <- 0
	@DEBUG_VALUE: BufUninit:rval <- $r4
	.loc	5 155 3                         @ C:/Users/shw26/AppData/Local/Arm/Packs/ARM/CMSIS-Driver/2.6.1/WiFi/ESP8266/BufList/BufList.c:155:3
	mov	r0, r4
	pop	{r4, r5, r7, pc}
.Ltmp20:
.LBB1_4:
	@DEBUG_VALUE: BufUninit:p <- $r0
	.loc	5 0 3 is_stmt 0                 @ C:/Users/shw26/AppData/Local/Arm/Packs/ARM/CMSIS-Driver/2.6.1/WiFi/ESP8266/BufList/BufList.c:0:3
	mvns	r4, r4
.Ltmp21:
	@DEBUG_VALUE: BufUninit:rval <- $r4
	.loc	5 155 3                         @ C:/Users/shw26/AppData/Local/Arm/Packs/ARM/CMSIS-Driver/2.6.1/WiFi/ESP8266/BufList/BufList.c:155:3
	mov	r0, r4
.Ltmp22:
	@DEBUG_VALUE: BufUninit:p <- [DW_OP_LLVM_entry_value 1] $r0
	pop	{r4, r5, r7, pc}
.Ltmp23:
.Lfunc_end1:
	.size	BufUninit, .Lfunc_end1-BufUninit
	.cfi_endproc
	.cantunwind
	.fnend
                                        @ -- End function
	.section	.text.Free,"ax",%progbits
	.p2align	1                               @ -- Begin function Free
	.type	Free,%function
	.code	16                              @ @Free
	.thumb_func
Free:
.Lfunc_begin2:
	.loc	5 75 0 is_stmt 1                @ C:/Users/shw26/AppData/Local/Arm/Packs/ARM/CMSIS-Driver/2.6.1/WiFi/ESP8266/BufList/BufList.c:75:0
	.fnstart
	.cfi_startproc
@ %bb.0:
	@DEBUG_VALUE: Free:p <- $r0
	.save	{r4, r5, r7, lr}
	push	{r4, r5, r7, lr}
	.cfi_def_cfa_offset 16
	.cfi_offset lr, -4
	.cfi_offset r7, -8
	.cfi_offset r5, -12
	.cfi_offset r4, -16
	mov	r4, r0
.Ltmp24:
	@DEBUG_VALUE: Free:p <- $r4
	.loc	5 78 23 prologue_end            @ C:/Users/shw26/AppData/Local/Arm/Packs/ARM/CMSIS-Driver/2.6.1/WiFi/ESP8266/BufList/BufList.c:78:23
	bl	ListGet
	mov	r5, r0
.Ltmp25:
	@DEBUG_VALUE: Free:buf_cb <- $r5
	.loc	5 80 28                         @ C:/Users/shw26/AppData/Local/Arm/Packs/ARM/CMSIS-Driver/2.6.1/WiFi/ESP8266/BufList/BufList.c:80:28
	ldr	r0, [r4, #12]
	.loc	5 80 7 is_stmt 0                @ C:/Users/shw26/AppData/Local/Arm/Packs/ARM/CMSIS-Driver/2.6.1/WiFi/ESP8266/BufList/BufList.c:80:7
	mov	r1, r5
	bl	osMemoryPoolFree
.Ltmp26:
	.loc	5 80 7                          @ C:/Users/shw26/AppData/Local/Arm/Packs/ARM/CMSIS-Driver/2.6.1/WiFi/ESP8266/BufList/BufList.c:80:7
	cbz	r0, .LBB2_2
.Ltmp27:
@ %bb.1:
	@DEBUG_VALUE: Free:buf_cb <- $r5
	@DEBUG_VALUE: Free:p <- $r4
	@DEBUG_VALUE: Free:buf_cb <- $r5
	.loc	5 85 3 is_stmt 1                @ C:/Users/shw26/AppData/Local/Arm/Packs/ARM/CMSIS-Driver/2.6.1/WiFi/ESP8266/BufList/BufList.c:85:3
	mov	r0, r5
	pop	{r4, r5, r7, pc}
.Ltmp28:
.LBB2_2:
	@DEBUG_VALUE: Free:buf_cb <- $r5
	@DEBUG_VALUE: Free:p <- $r4
	.loc	5 82 25                         @ C:/Users/shw26/AppData/Local/Arm/Packs/ARM/CMSIS-Driver/2.6.1/WiFi/ESP8266/BufList/BufList.c:82:25
	mov	r0, r4
	bl	ListPeekHead
	mov	r5, r0
.Ltmp29:
	@DEBUG_VALUE: Free:buf_cb <- $r5
	@DEBUG_VALUE: Free:buf_cb <- $r5
	.loc	5 85 3                          @ C:/Users/shw26/AppData/Local/Arm/Packs/ARM/CMSIS-Driver/2.6.1/WiFi/ESP8266/BufList/BufList.c:85:3
	mov	r0, r5
	pop	{r4, r5, r7, pc}
.Ltmp30:
.Lfunc_end2:
	.size	Free, .Lfunc_end2-Free
	.cfi_endproc
	.cantunwind
	.fnend
                                        @ -- End function
	.section	.text.BufAlloc,"ax",%progbits
	.hidden	BufAlloc                        @ -- Begin function BufAlloc
	.globl	BufAlloc
	.p2align	1
	.type	BufAlloc,%function
	.code	16                              @ @BufAlloc
	.thumb_func
BufAlloc:
.Lfunc_begin3:
	.loc	5 159 0                         @ C:/Users/shw26/AppData/Local/Arm/Packs/ARM/CMSIS-Driver/2.6.1/WiFi/ESP8266/BufList/BufList.c:159:0
	.fnstart
	.cfi_startproc
@ %bb.0:
	@DEBUG_VALUE: BufAlloc:p <- $r0
	.save	{r4, r5, r7, lr}
	push	{r4, r5, r7, lr}
	.cfi_def_cfa_offset 16
	.cfi_offset lr, -4
	.cfi_offset r7, -8
	.cfi_offset r5, -12
	.cfi_offset r4, -16
	mov	r5, r0
.Ltmp31:
	@DEBUG_VALUE: BufAlloc:p <- $r5
	.loc	5 163 3 prologue_end            @ C:/Users/shw26/AppData/Local/Arm/Packs/ARM/CMSIS-Driver/2.6.1/WiFi/ESP8266/BufList/BufList.c:163:3
	bl	Lock
	.loc	5 165 12                        @ C:/Users/shw26/AppData/Local/Arm/Packs/ARM/CMSIS-Driver/2.6.1/WiFi/ESP8266/BufList/BufList.c:165:12
	mov	r0, r5
	bl	Alloc
	mov	r4, r0
.Ltmp32:
	@DEBUG_VALUE: BufAlloc:buf_cb <- $r4
	.loc	5 175 3                         @ C:/Users/shw26/AppData/Local/Arm/Packs/ARM/CMSIS-Driver/2.6.1/WiFi/ESP8266/BufList/BufList.c:175:3
	mov	r0, r5
	bl	Unlock
	.loc	5 167 7                         @ C:/Users/shw26/AppData/Local/Arm/Packs/ARM/CMSIS-Driver/2.6.1/WiFi/ESP8266/BufList/BufList.c:167:7
	cbz	r4, .LBB3_2
.Ltmp33:
@ %bb.1:
	@DEBUG_VALUE: BufAlloc:p <- $r5
	@DEBUG_VALUE: BufAlloc:buf_cb <- $r4
	.loc	5 0 7 is_stmt 0                 @ C:/Users/shw26/AppData/Local/Arm/Packs/ARM/CMSIS-Driver/2.6.1/WiFi/ESP8266/BufList/BufList.c:0:7
	adds	r4, #8
.Ltmp34:
.LBB3_2:
	@DEBUG_VALUE: BufAlloc:p <- $r5
	@DEBUG_VALUE: BufAlloc:usr_cb <- $r4
	.loc	5 177 3 is_stmt 1               @ C:/Users/shw26/AppData/Local/Arm/Packs/ARM/CMSIS-Driver/2.6.1/WiFi/ESP8266/BufList/BufList.c:177:3
	mov	r0, r4
	pop	{r4, r5, r7, pc}
.Ltmp35:
.Lfunc_end3:
	.size	BufAlloc, .Lfunc_end3-BufAlloc
	.cfi_endproc
	.cantunwind
	.fnend
                                        @ -- End function
	.section	.text.Lock,"ax",%progbits
	.p2align	1                               @ -- Begin function Lock
	.type	Lock,%function
	.code	16                              @ @Lock
	.thumb_func
Lock:
.Lfunc_begin4:
	.loc	5 41 0                          @ C:/Users/shw26/AppData/Local/Arm/Packs/ARM/CMSIS-Driver/2.6.1/WiFi/ESP8266/BufList/BufList.c:41:0
	.fnstart
	.cfi_startproc
@ %bb.0:
	@DEBUG_VALUE: Lock:p <- $r0
	@DEBUG_VALUE: Lock:p <- $r0
	.save	{r7, lr}
	push	{r7, lr}
	.cfi_def_cfa_offset 8
	.cfi_offset lr, -4
	.cfi_offset r7, -8
.Ltmp36:
	.loc	5 42 10 prologue_end            @ C:/Users/shw26/AppData/Local/Arm/Packs/ARM/CMSIS-Driver/2.6.1/WiFi/ESP8266/BufList/BufList.c:42:10
	ldr	r0, [r0, #8]
.Ltmp37:
	@DEBUG_VALUE: Lock:p <- [DW_OP_LLVM_entry_value 1] $r0
	.loc	5 42 7 is_stmt 0                @ C:/Users/shw26/AppData/Local/Arm/Packs/ARM/CMSIS-Driver/2.6.1/WiFi/ESP8266/BufList/BufList.c:42:7
	cbz	r0, .LBB4_2
.Ltmp38:
@ %bb.1:
	@DEBUG_VALUE: Lock:p <- [DW_OP_LLVM_entry_value 1] $r0
	.loc	5 0 7                           @ C:/Users/shw26/AppData/Local/Arm/Packs/ARM/CMSIS-Driver/2.6.1/WiFi/ESP8266/BufList/BufList.c:0:7
	movs	r1, #0
	mvns	r1, r1
.Ltmp39:
	.loc	5 43 5 is_stmt 1                @ C:/Users/shw26/AppData/Local/Arm/Packs/ARM/CMSIS-Driver/2.6.1/WiFi/ESP8266/BufList/BufList.c:43:5
	bl	osMutexAcquire
.Ltmp40:
.LBB4_2:
	@DEBUG_VALUE: Lock:p <- [DW_OP_LLVM_entry_value 1] $r0
	.loc	5 45 1                          @ C:/Users/shw26/AppData/Local/Arm/Packs/ARM/CMSIS-Driver/2.6.1/WiFi/ESP8266/BufList/BufList.c:45:1
	pop	{r7, pc}
.Ltmp41:
.Lfunc_end4:
	.size	Lock, .Lfunc_end4-Lock
	.cfi_endproc
	.cantunwind
	.fnend
                                        @ -- End function
	.section	.text.Alloc,"ax",%progbits
	.p2align	1                               @ -- Begin function Alloc
	.type	Alloc,%function
	.code	16                              @ @Alloc
	.thumb_func
Alloc:
.Lfunc_begin5:
	.loc	5 55 0                          @ C:/Users/shw26/AppData/Local/Arm/Packs/ARM/CMSIS-Driver/2.6.1/WiFi/ESP8266/BufList/BufList.c:55:0
	.fnstart
	.cfi_startproc
@ %bb.0:
	@DEBUG_VALUE: Alloc:p <- $r0
	.save	{r4, r5, r6, lr}
	push	{r4, r5, r6, lr}
	.cfi_def_cfa_offset 16
	.cfi_offset lr, -4
	.cfi_offset r6, -8
	.cfi_offset r5, -12
	.cfi_offset r4, -16
	mov	r5, r0
.Ltmp42:
	@DEBUG_VALUE: Alloc:p <- $r5
	.loc	5 59 45 prologue_end            @ C:/Users/shw26/AppData/Local/Arm/Packs/ARM/CMSIS-Driver/2.6.1/WiFi/ESP8266/BufList/BufList.c:59:45
	ldr	r0, [r0, #12]
	movs	r4, #0
	.loc	5 59 23 is_stmt 0               @ C:/Users/shw26/AppData/Local/Arm/Packs/ARM/CMSIS-Driver/2.6.1/WiFi/ESP8266/BufList/BufList.c:59:23
	mov	r1, r4
	bl	osMemoryPoolAlloc
	mov	r6, r0
.Ltmp43:
	@DEBUG_VALUE: Alloc:buf_cb <- $r6
	.loc	5 61 7 is_stmt 1                @ C:/Users/shw26/AppData/Local/Arm/Packs/ARM/CMSIS-Driver/2.6.1/WiFi/ESP8266/BufList/BufList.c:61:7
	cbz	r0, .LBB5_2
.Ltmp44:
@ %bb.1:
	@DEBUG_VALUE: Alloc:buf_cb <- $r6
	@DEBUG_VALUE: Alloc:p <- $r5
	@DEBUG_VALUE: Alloc:buf_link <- $r6
	.loc	5 65 5                          @ C:/Users/shw26/AppData/Local/Arm/Packs/ARM/CMSIS-Driver/2.6.1/WiFi/ESP8266/BufList/BufList.c:65:5
	mov	r0, r5
	mov	r1, r6
	bl	ListPut
	.loc	5 67 17                         @ C:/Users/shw26/AppData/Local/Arm/Packs/ARM/CMSIS-Driver/2.6.1/WiFi/ESP8266/BufList/BufList.c:67:17
	str	r4, [r6, #8]
.Ltmp45:
.LBB5_2:
	@DEBUG_VALUE: Alloc:buf_cb <- $r6
	@DEBUG_VALUE: Alloc:p <- $r5
	@DEBUG_VALUE: Alloc:buf_cb <- $r6
	.loc	5 71 3                          @ C:/Users/shw26/AppData/Local/Arm/Packs/ARM/CMSIS-Driver/2.6.1/WiFi/ESP8266/BufList/BufList.c:71:3
	mov	r0, r6
	pop	{r4, r5, r6, pc}
.Ltmp46:
.Lfunc_end5:
	.size	Alloc, .Lfunc_end5-Alloc
	.cfi_endproc
	.cantunwind
	.fnend
                                        @ -- End function
	.section	.text.Unlock,"ax",%progbits
	.p2align	1                               @ -- Begin function Unlock
	.type	Unlock,%function
	.code	16                              @ @Unlock
	.thumb_func
Unlock:
.Lfunc_begin6:
	.loc	5 48 0                          @ C:/Users/shw26/AppData/Local/Arm/Packs/ARM/CMSIS-Driver/2.6.1/WiFi/ESP8266/BufList/BufList.c:48:0
	.fnstart
	.cfi_startproc
@ %bb.0:
	@DEBUG_VALUE: Unlock:p <- $r0
	@DEBUG_VALUE: Unlock:p <- $r0
	.save	{r7, lr}
	push	{r7, lr}
	.cfi_def_cfa_offset 8
	.cfi_offset lr, -4
	.cfi_offset r7, -8
.Ltmp47:
	.loc	5 49 10 prologue_end            @ C:/Users/shw26/AppData/Local/Arm/Packs/ARM/CMSIS-Driver/2.6.1/WiFi/ESP8266/BufList/BufList.c:49:10
	ldr	r0, [r0, #8]
.Ltmp48:
	@DEBUG_VALUE: Unlock:p <- [DW_OP_LLVM_entry_value 1] $r0
	.loc	5 49 7 is_stmt 0                @ C:/Users/shw26/AppData/Local/Arm/Packs/ARM/CMSIS-Driver/2.6.1/WiFi/ESP8266/BufList/BufList.c:49:7
	cbz	r0, .LBB6_2
.Ltmp49:
@ %bb.1:
	@DEBUG_VALUE: Unlock:p <- [DW_OP_LLVM_entry_value 1] $r0
	.loc	5 50 5 is_stmt 1                @ C:/Users/shw26/AppData/Local/Arm/Packs/ARM/CMSIS-Driver/2.6.1/WiFi/ESP8266/BufList/BufList.c:50:5
	bl	osMutexRelease
.Ltmp50:
.LBB6_2:
	@DEBUG_VALUE: Unlock:p <- [DW_OP_LLVM_entry_value 1] $r0
	.loc	5 52 1                          @ C:/Users/shw26/AppData/Local/Arm/Packs/ARM/CMSIS-Driver/2.6.1/WiFi/ESP8266/BufList/BufList.c:52:1
	pop	{r7, pc}
.Ltmp51:
.Lfunc_end6:
	.size	Unlock, .Lfunc_end6-Unlock
	.cfi_endproc
	.cantunwind
	.fnend
                                        @ -- End function
	.section	.text.BufFree,"ax",%progbits
	.hidden	BufFree                         @ -- Begin function BufFree
	.globl	BufFree
	.p2align	1
	.type	BufFree,%function
	.code	16                              @ @BufFree
	.thumb_func
BufFree:
.Lfunc_begin7:
	.loc	5 181 0                         @ C:/Users/shw26/AppData/Local/Arm/Packs/ARM/CMSIS-Driver/2.6.1/WiFi/ESP8266/BufList/BufList.c:181:0
	.fnstart
	.cfi_startproc
@ %bb.0:
	@DEBUG_VALUE: BufFree:p <- $r0
	.save	{r4, r5, r7, lr}
	push	{r4, r5, r7, lr}
	.cfi_def_cfa_offset 16
	.cfi_offset lr, -4
	.cfi_offset r7, -8
	.cfi_offset r5, -12
	.cfi_offset r4, -16
	mov	r5, r0
.Ltmp52:
	@DEBUG_VALUE: BufFree:p <- $r5
	.loc	5 185 3 prologue_end            @ C:/Users/shw26/AppData/Local/Arm/Packs/ARM/CMSIS-Driver/2.6.1/WiFi/ESP8266/BufList/BufList.c:185:3
	bl	Lock
	.loc	5 187 12                        @ C:/Users/shw26/AppData/Local/Arm/Packs/ARM/CMSIS-Driver/2.6.1/WiFi/ESP8266/BufList/BufList.c:187:12
	mov	r0, r5
	bl	Free
	mov	r4, r0
.Ltmp53:
	@DEBUG_VALUE: BufFree:buf_cb <- $r4
	.loc	5 197 3                         @ C:/Users/shw26/AppData/Local/Arm/Packs/ARM/CMSIS-Driver/2.6.1/WiFi/ESP8266/BufList/BufList.c:197:3
	mov	r0, r5
	bl	Unlock
	.loc	5 189 7                         @ C:/Users/shw26/AppData/Local/Arm/Packs/ARM/CMSIS-Driver/2.6.1/WiFi/ESP8266/BufList/BufList.c:189:7
	cbz	r4, .LBB7_2
.Ltmp54:
@ %bb.1:
	@DEBUG_VALUE: BufFree:p <- $r5
	@DEBUG_VALUE: BufFree:buf_cb <- $r4
	.loc	5 0 7 is_stmt 0                 @ C:/Users/shw26/AppData/Local/Arm/Packs/ARM/CMSIS-Driver/2.6.1/WiFi/ESP8266/BufList/BufList.c:0:7
	adds	r4, #8
.Ltmp55:
.LBB7_2:
	@DEBUG_VALUE: BufFree:p <- $r5
	@DEBUG_VALUE: BufFree:usr_cb <- $r4
	.loc	5 199 3 is_stmt 1               @ C:/Users/shw26/AppData/Local/Arm/Packs/ARM/CMSIS-Driver/2.6.1/WiFi/ESP8266/BufList/BufList.c:199:3
	mov	r0, r4
	pop	{r4, r5, r7, pc}
.Ltmp56:
.Lfunc_end7:
	.size	BufFree, .Lfunc_end7-BufFree
	.cfi_endproc
	.cantunwind
	.fnend
                                        @ -- End function
	.section	.text.BufGetTail,"ax",%progbits
	.hidden	BufGetTail                      @ -- Begin function BufGetTail
	.globl	BufGetTail
	.p2align	1
	.type	BufGetTail,%function
	.code	16                              @ @BufGetTail
	.thumb_func
BufGetTail:
.Lfunc_begin8:
	.loc	5 208 0                         @ C:/Users/shw26/AppData/Local/Arm/Packs/ARM/CMSIS-Driver/2.6.1/WiFi/ESP8266/BufList/BufList.c:208:0
	.fnstart
	.cfi_startproc
@ %bb.0:
	@DEBUG_VALUE: BufGetTail:p <- $r0
	.save	{r4, r5, r6, lr}
	push	{r4, r5, r6, lr}
	.cfi_def_cfa_offset 16
	.cfi_offset lr, -4
	.cfi_offset r6, -8
	.cfi_offset r5, -12
	.cfi_offset r4, -16
	mov	r4, r0
.Ltmp57:
	@DEBUG_VALUE: BufGetTail:p <- $r4
	.loc	5 212 3 prologue_end            @ C:/Users/shw26/AppData/Local/Arm/Packs/ARM/CMSIS-Driver/2.6.1/WiFi/ESP8266/BufList/BufList.c:212:3
	bl	Lock
.Ltmp58:
	@DEBUG_VALUE: BufGetTail:usr_cb <- 0
	.loc	5 215 23                        @ C:/Users/shw26/AppData/Local/Arm/Packs/ARM/CMSIS-Driver/2.6.1/WiFi/ESP8266/BufList/BufList.c:215:23
	mov	r0, r4
	bl	ListPeekTail
.Ltmp59:
	@DEBUG_VALUE: BufGetTail:buf_cb <- $r0
	.loc	5 217 7                         @ C:/Users/shw26/AppData/Local/Arm/Packs/ARM/CMSIS-Driver/2.6.1/WiFi/ESP8266/BufList/BufList.c:217:7
	cbz	r0, .LBB8_2
.Ltmp60:
@ %bb.1:
	@DEBUG_VALUE: BufGetTail:p <- $r4
	@DEBUG_VALUE: BufGetTail:buf_cb <- $r0
	@DEBUG_VALUE: BufGetTail:usr_cb <- 0
	.loc	5 0 0 is_stmt 0                 @ C:/Users/shw26/AppData/Local/Arm/Packs/ARM/CMSIS-Driver/2.6.1/WiFi/ESP8266/BufList/BufList.c:0:0
	mov	r5, r0
.Ltmp61:
	@DEBUG_VALUE: BufGetTail:buf_cb <- $r5
	@DEBUG_VALUE: BufGetTail:buf_cb <- $r5
	.loc	5 218 17 is_stmt 1              @ C:/Users/shw26/AppData/Local/Arm/Packs/ARM/CMSIS-Driver/2.6.1/WiFi/ESP8266/BufList/BufList.c:218:17
	ldrh	r6, [r0, #8]
	.loc	5 218 23 is_stmt 0              @ C:/Users/shw26/AppData/Local/Arm/Packs/ARM/CMSIS-Driver/2.6.1/WiFi/ESP8266/BufList/BufList.c:218:23
	mov	r0, r4
	bl	Size
.Ltmp62:
	.loc	5 218 9                         @ C:/Users/shw26/AppData/Local/Arm/Packs/ARM/CMSIS-Driver/2.6.1/WiFi/ESP8266/BufList/BufList.c:218:9
	cmp	r6, r0
	blo	.LBB8_5
.Ltmp63:
.LBB8_2:
	@DEBUG_VALUE: BufGetTail:p <- $r4
	@DEBUG_VALUE: BufGetTail:usr_cb <- 0
	.loc	5 0 9                           @ C:/Users/shw26/AppData/Local/Arm/Packs/ARM/CMSIS-Driver/2.6.1/WiFi/ESP8266/BufList/BufList.c:0:9
	movs	r5, #0
.Ltmp64:
	@DEBUG_VALUE: BufGetTail:usr_cb <- $r5
	.loc	5 224 7 is_stmt 1               @ C:/Users/shw26/AppData/Local/Arm/Packs/ARM/CMSIS-Driver/2.6.1/WiFi/ESP8266/BufList/BufList.c:224:7
	cbnz	r5, .LBB8_4
.Ltmp65:
.LBB8_3:
	@DEBUG_VALUE: BufGetTail:usr_cb <- $r5
	@DEBUG_VALUE: BufGetTail:p <- $r4
	.loc	5 226 14                        @ C:/Users/shw26/AppData/Local/Arm/Packs/ARM/CMSIS-Driver/2.6.1/WiFi/ESP8266/BufList/BufList.c:226:14
	mov	r0, r4
	bl	BufAlloc
	mov	r5, r0
.Ltmp66:
	@DEBUG_VALUE: BufGetTail:usr_cb <- $r5
.LBB8_4:
	@DEBUG_VALUE: BufGetTail:usr_cb <- $r5
	@DEBUG_VALUE: BufGetTail:p <- $r4
	@DEBUG_VALUE: BufGetTail:usr_cb <- $r5
	.loc	5 229 3                         @ C:/Users/shw26/AppData/Local/Arm/Packs/ARM/CMSIS-Driver/2.6.1/WiFi/ESP8266/BufList/BufList.c:229:3
	mov	r0, r4
	bl	Unlock
	.loc	5 231 3                         @ C:/Users/shw26/AppData/Local/Arm/Packs/ARM/CMSIS-Driver/2.6.1/WiFi/ESP8266/BufList/BufList.c:231:3
	mov	r0, r5
	pop	{r4, r5, r6, pc}
.Ltmp67:
.LBB8_5:
	@DEBUG_VALUE: BufGetTail:buf_cb <- $r5
	@DEBUG_VALUE: BufGetTail:p <- $r4
	@DEBUG_VALUE: BufGetTail:usr_cb <- 0
	.loc	5 0 3 is_stmt 0                 @ C:/Users/shw26/AppData/Local/Arm/Packs/ARM/CMSIS-Driver/2.6.1/WiFi/ESP8266/BufList/BufList.c:0:3
	adds	r5, #8
.Ltmp68:
	@DEBUG_VALUE: BufGetTail:usr_cb <- $r5
	.loc	5 224 7 is_stmt 1               @ C:/Users/shw26/AppData/Local/Arm/Packs/ARM/CMSIS-Driver/2.6.1/WiFi/ESP8266/BufList/BufList.c:224:7
	cmp	r5, #0
	bne	.LBB8_4
	b	.LBB8_3
.Ltmp69:
.Lfunc_end8:
	.size	BufGetTail, .Lfunc_end8-BufGetTail
	.cfi_endproc
	.cantunwind
	.fnend
                                        @ -- End function
	.section	.text.Size,"ax",%progbits
	.p2align	1                               @ -- Begin function Size
	.type	Size,%function
	.code	16                              @ @Size
	.thumb_func
Size:
.Lfunc_begin9:
	.loc	5 89 0                          @ C:/Users/shw26/AppData/Local/Arm/Packs/ARM/CMSIS-Driver/2.6.1/WiFi/ESP8266/BufList/BufList.c:89:0
	.fnstart
	.cfi_startproc
@ %bb.0:
	@DEBUG_VALUE: Size:p <- $r0
	@DEBUG_VALUE: Size:p <- $r0
	.loc	5 92 11 prologue_end            @ C:/Users/shw26/AppData/Local/Arm/Packs/ARM/CMSIS-Driver/2.6.1/WiFi/ESP8266/BufList/BufList.c:92:11
	ldrh	r0, [r0, #16]
.Ltmp70:
	@DEBUG_VALUE: Size:p <- [DW_OP_LLVM_entry_value 1] $r0
	@DEBUG_VALUE: Size:sz <- $r0
	.loc	5 94 7                          @ C:/Users/shw26/AppData/Local/Arm/Packs/ARM/CMSIS-Driver/2.6.1/WiFi/ESP8266/BufList/BufList.c:94:7
	cbz	r0, .LBB9_2
.Ltmp71:
@ %bb.1:
	@DEBUG_VALUE: Size:sz <- $r0
	@DEBUG_VALUE: Size:p <- [DW_OP_LLVM_entry_value 1] $r0
	.loc	5 0 7 is_stmt 0                 @ C:/Users/shw26/AppData/Local/Arm/Packs/ARM/CMSIS-Driver/2.6.1/WiFi/ESP8266/BufList/BufList.c:0:7
	subs	r0, #12
.Ltmp72:
.LBB9_2:
	@DEBUG_VALUE: Size:p <- [DW_OP_LLVM_entry_value 1] $r0
	@DEBUG_VALUE: Size:sz <- $r0
	.loc	5 99 3 is_stmt 1                @ C:/Users/shw26/AppData/Local/Arm/Packs/ARM/CMSIS-Driver/2.6.1/WiFi/ESP8266/BufList/BufList.c:99:3
	uxth	r0, r0
.Ltmp73:
	bx	lr
.Ltmp74:
.Lfunc_end9:
	.size	Size, .Lfunc_end9-Size
	.cfi_endproc
	.cantunwind
	.fnend
                                        @ -- End function
	.section	.text.BufGetSize,"ax",%progbits
	.hidden	BufGetSize                      @ -- Begin function BufGetSize
	.globl	BufGetSize
	.p2align	1
	.type	BufGetSize,%function
	.code	16                              @ @BufGetSize
	.thumb_func
BufGetSize:
.Lfunc_begin10:
	.loc	5 235 0                         @ C:/Users/shw26/AppData/Local/Arm/Packs/ARM/CMSIS-Driver/2.6.1/WiFi/ESP8266/BufList/BufList.c:235:0
	.fnstart
	.cfi_startproc
@ %bb.0:
	@DEBUG_VALUE: BufGetSize:p <- $r0
	.save	{r4, r5, r7, lr}
	push	{r4, r5, r7, lr}
	.cfi_def_cfa_offset 16
	.cfi_offset lr, -4
	.cfi_offset r7, -8
	.cfi_offset r5, -12
	.cfi_offset r4, -16
	mov	r4, r0
.Ltmp75:
	@DEBUG_VALUE: BufGetSize:p <- $r4
	.loc	5 238 3 prologue_end            @ C:/Users/shw26/AppData/Local/Arm/Packs/ARM/CMSIS-Driver/2.6.1/WiFi/ESP8266/BufList/BufList.c:238:3
	bl	Lock
	.loc	5 240 8                         @ C:/Users/shw26/AppData/Local/Arm/Packs/ARM/CMSIS-Driver/2.6.1/WiFi/ESP8266/BufList/BufList.c:240:8
	mov	r0, r4
	bl	Size
	mov	r5, r0
.Ltmp76:
	@DEBUG_VALUE: BufGetSize:sz <- undef
	.loc	5 242 3                         @ C:/Users/shw26/AppData/Local/Arm/Packs/ARM/CMSIS-Driver/2.6.1/WiFi/ESP8266/BufList/BufList.c:242:3
	mov	r0, r4
	bl	Unlock
	.loc	5 244 3                         @ C:/Users/shw26/AppData/Local/Arm/Packs/ARM/CMSIS-Driver/2.6.1/WiFi/ESP8266/BufList/BufList.c:244:3
	mov	r0, r5
	pop	{r4, r5, r7, pc}
.Ltmp77:
.Lfunc_end10:
	.size	BufGetSize, .Lfunc_end10-BufGetSize
	.cfi_endproc
	.cantunwind
	.fnend
                                        @ -- End function
	.section	.text.BufGetFree,"ax",%progbits
	.hidden	BufGetFree                      @ -- Begin function BufGetFree
	.globl	BufGetFree
	.p2align	1
	.type	BufGetFree,%function
	.code	16                              @ @BufGetFree
	.thumb_func
BufGetFree:
.Lfunc_begin11:
	.loc	5 247 0                         @ C:/Users/shw26/AppData/Local/Arm/Packs/ARM/CMSIS-Driver/2.6.1/WiFi/ESP8266/BufList/BufList.c:247:0
	.fnstart
	.cfi_startproc
@ %bb.0:
	@DEBUG_VALUE: BufGetFree:p <- $r0
	.save	{r4, r5, r6, lr}
	push	{r4, r5, r6, lr}
	.cfi_def_cfa_offset 16
	.cfi_offset lr, -4
	.cfi_offset r6, -8
	.cfi_offset r5, -12
	.cfi_offset r4, -16
	mov	r4, r0
.Ltmp78:
	@DEBUG_VALUE: BufGetFree:p <- $r4
	.loc	5 251 3 prologue_end            @ C:/Users/shw26/AppData/Local/Arm/Packs/ARM/CMSIS-Driver/2.6.1/WiFi/ESP8266/BufList/BufList.c:251:3
	bl	Lock
	.loc	5 254 10                        @ C:/Users/shw26/AppData/Local/Arm/Packs/ARM/CMSIS-Driver/2.6.1/WiFi/ESP8266/BufList/BufList.c:254:10
	mov	r0, r4
	bl	Size
	mov	r6, r0
.Ltmp79:
	@DEBUG_VALUE: BufGetFree:maxi <- $r6
	.loc	5 257 40                        @ C:/Users/shw26/AppData/Local/Arm/Packs/ARM/CMSIS-Driver/2.6.1/WiFi/ESP8266/BufList/BufList.c:257:40
	ldr	r0, [r4, #12]
	.loc	5 257 15 is_stmt 0              @ C:/Users/shw26/AppData/Local/Arm/Packs/ARM/CMSIS-Driver/2.6.1/WiFi/ESP8266/BufList/BufList.c:257:15
	bl	osMemoryPoolGetSpace
	mov	r5, r0
	.loc	5 257 13                        @ C:/Users/shw26/AppData/Local/Arm/Packs/ARM/CMSIS-Driver/2.6.1/WiFi/ESP8266/BufList/BufList.c:257:13
	muls	r5, r6, r5
.Ltmp80:
	@DEBUG_VALUE: BufGetFree:sz <- $r5
	.loc	5 260 23 is_stmt 1              @ C:/Users/shw26/AppData/Local/Arm/Packs/ARM/CMSIS-Driver/2.6.1/WiFi/ESP8266/BufList/BufList.c:260:23
	mov	r0, r4
	bl	ListPeekTail
.Ltmp81:
	@DEBUG_VALUE: BufGetFree:buf_cb <- $r0
	.loc	5 262 7                         @ C:/Users/shw26/AppData/Local/Arm/Packs/ARM/CMSIS-Driver/2.6.1/WiFi/ESP8266/BufList/BufList.c:262:7
	cbz	r0, .LBB11_2
.Ltmp82:
@ %bb.1:
	@DEBUG_VALUE: BufGetFree:maxi <- $r6
	@DEBUG_VALUE: BufGetFree:sz <- $r5
	@DEBUG_VALUE: BufGetFree:p <- $r4
	@DEBUG_VALUE: BufGetFree:buf_cb <- $r0
	@DEBUG_VALUE: BufGetFree:buf_cb <- $r0
	.loc	5 263 17                        @ C:/Users/shw26/AppData/Local/Arm/Packs/ARM/CMSIS-Driver/2.6.1/WiFi/ESP8266/BufList/BufList.c:263:17
	adds	r1, r5, r6
	.loc	5 263 27 is_stmt 0              @ C:/Users/shw26/AppData/Local/Arm/Packs/ARM/CMSIS-Driver/2.6.1/WiFi/ESP8266/BufList/BufList.c:263:27
	ldrh	r0, [r0, #8]
.Ltmp83:
	.loc	5 263 8                         @ C:/Users/shw26/AppData/Local/Arm/Packs/ARM/CMSIS-Driver/2.6.1/WiFi/ESP8266/BufList/BufList.c:263:8
	subs	r5, r1, r0
.Ltmp84:
	@DEBUG_VALUE: BufGetFree:sz <- $r5
.LBB11_2:
	@DEBUG_VALUE: BufGetFree:maxi <- $r6
	@DEBUG_VALUE: BufGetFree:sz <- $r5
	@DEBUG_VALUE: BufGetFree:p <- $r4
	@DEBUG_VALUE: BufGetFree:sz <- $r5
	.loc	5 266 3 is_stmt 1               @ C:/Users/shw26/AppData/Local/Arm/Packs/ARM/CMSIS-Driver/2.6.1/WiFi/ESP8266/BufList/BufList.c:266:3
	mov	r0, r4
	bl	Unlock
	.loc	5 268 3                         @ C:/Users/shw26/AppData/Local/Arm/Packs/ARM/CMSIS-Driver/2.6.1/WiFi/ESP8266/BufList/BufList.c:268:3
	mov	r0, r5
	pop	{r4, r5, r6, pc}
.Ltmp85:
.Lfunc_end11:
	.size	BufGetFree, .Lfunc_end11-BufGetFree
	.cfi_endproc
	.cantunwind
	.fnend
                                        @ -- End function
	.section	.text.BufGetCount,"ax",%progbits
	.hidden	BufGetCount                     @ -- Begin function BufGetCount
	.globl	BufGetCount
	.p2align	1
	.type	BufGetCount,%function
	.code	16                              @ @BufGetCount
	.thumb_func
BufGetCount:
.Lfunc_begin12:
	.loc	5 274 0                         @ C:/Users/shw26/AppData/Local/Arm/Packs/ARM/CMSIS-Driver/2.6.1/WiFi/ESP8266/BufList/BufList.c:274:0
	.fnstart
	.cfi_startproc
@ %bb.0:
	@DEBUG_VALUE: BufGetCount:p <- $r0
	.save	{r4, r5, r7, lr}
	push	{r4, r5, r7, lr}
	.cfi_def_cfa_offset 16
	.cfi_offset lr, -4
	.cfi_offset r7, -8
	.cfi_offset r5, -12
	.cfi_offset r4, -16
	mov	r4, r0
.Ltmp86:
	@DEBUG_VALUE: BufGetCount:p <- $r4
	.loc	5 278 3 prologue_end            @ C:/Users/shw26/AppData/Local/Arm/Packs/ARM/CMSIS-Driver/2.6.1/WiFi/ESP8266/BufList/BufList.c:278:3
	bl	Lock
.Ltmp87:
	@DEBUG_VALUE: BufGetCount:n <- 0
	.loc	5 281 23                        @ C:/Users/shw26/AppData/Local/Arm/Packs/ARM/CMSIS-Driver/2.6.1/WiFi/ESP8266/BufList/BufList.c:281:23
	mov	r0, r4
	bl	ListPeekHead
.Ltmp88:
	@DEBUG_VALUE: BufGetCount:buf_cb <- $r0
	.loc	5 0 23 is_stmt 0                @ C:/Users/shw26/AppData/Local/Arm/Packs/ARM/CMSIS-Driver/2.6.1/WiFi/ESP8266/BufList/BufList.c:0:23
	movs	r5, #0
	.loc	5 283 3 is_stmt 1               @ C:/Users/shw26/AppData/Local/Arm/Packs/ARM/CMSIS-Driver/2.6.1/WiFi/ESP8266/BufList/BufList.c:283:3
	cbz	r0, .LBB12_2
.Ltmp89:
.LBB12_1:                               @ =>This Inner Loop Header: Depth=1
	@DEBUG_VALUE: BufGetCount:p <- $r4
	@DEBUG_VALUE: BufGetCount:buf_cb <- $r0
	@DEBUG_VALUE: BufGetCount:n <- $r5
	@DEBUG_VALUE: BufGetCount:buf_cb <- $r0
	.loc	5 285 19                        @ C:/Users/shw26/AppData/Local/Arm/Packs/ARM/CMSIS-Driver/2.6.1/WiFi/ESP8266/BufList/BufList.c:285:19
	ldrh	r1, [r0, #8]
	.loc	5 285 23 is_stmt 0              @ C:/Users/shw26/AppData/Local/Arm/Packs/ARM/CMSIS-Driver/2.6.1/WiFi/ESP8266/BufList/BufList.c:285:23
	adds	r1, r5, r1
	.loc	5 285 33                        @ C:/Users/shw26/AppData/Local/Arm/Packs/ARM/CMSIS-Driver/2.6.1/WiFi/ESP8266/BufList/BufList.c:285:33
	ldrh	r2, [r0, #10]
	.loc	5 285 7                         @ C:/Users/shw26/AppData/Local/Arm/Packs/ARM/CMSIS-Driver/2.6.1/WiFi/ESP8266/BufList/BufList.c:285:7
	subs	r5, r1, r2
.Ltmp90:
	@DEBUG_VALUE: BufGetCount:n <- $r5
	.loc	5 288 25 is_stmt 1              @ C:/Users/shw26/AppData/Local/Arm/Packs/ARM/CMSIS-Driver/2.6.1/WiFi/ESP8266/BufList/BufList.c:288:25
	bl	ListPeekNext
.Ltmp91:
	@DEBUG_VALUE: BufGetCount:buf_cb <- $r0
	.loc	5 283 3                         @ C:/Users/shw26/AppData/Local/Arm/Packs/ARM/CMSIS-Driver/2.6.1/WiFi/ESP8266/BufList/BufList.c:283:3
	cmp	r0, #0
	bne	.LBB12_1
.Ltmp92:
.LBB12_2:
	@DEBUG_VALUE: BufGetCount:p <- $r4
	@DEBUG_VALUE: BufGetCount:buf_cb <- $r0
	@DEBUG_VALUE: BufGetCount:n <- $r5
	.loc	5 291 3                         @ C:/Users/shw26/AppData/Local/Arm/Packs/ARM/CMSIS-Driver/2.6.1/WiFi/ESP8266/BufList/BufList.c:291:3
	mov	r0, r4
.Ltmp93:
	bl	Unlock
	.loc	5 294 3                         @ C:/Users/shw26/AppData/Local/Arm/Packs/ARM/CMSIS-Driver/2.6.1/WiFi/ESP8266/BufList/BufList.c:294:3
	mov	r0, r5
	pop	{r4, r5, r7, pc}
.Ltmp94:
.Lfunc_end12:
	.size	BufGetCount, .Lfunc_end12-BufGetCount
	.cfi_endproc
	.cantunwind
	.fnend
                                        @ -- End function
	.section	.text.BufReadByte,"ax",%progbits
	.hidden	BufReadByte                     @ -- Begin function BufReadByte
	.globl	BufReadByte
	.p2align	1
	.type	BufReadByte,%function
	.code	16                              @ @BufReadByte
	.thumb_func
BufReadByte:
.Lfunc_begin13:
	.loc	5 298 0                         @ C:/Users/shw26/AppData/Local/Arm/Packs/ARM/CMSIS-Driver/2.6.1/WiFi/ESP8266/BufList/BufList.c:298:0
	.fnstart
	.cfi_startproc
@ %bb.0:
	@DEBUG_VALUE: BufReadByte:p <- $r0
	.save	{r4, r5, r6, lr}
	push	{r4, r5, r6, lr}
	.cfi_def_cfa_offset 16
	.cfi_offset lr, -4
	.cfi_offset r6, -8
	.cfi_offset r5, -12
	.cfi_offset r4, -16
	mov	r4, r0
.Ltmp95:
	@DEBUG_VALUE: BufReadByte:p <- $r4
	.loc	5 302 3 prologue_end            @ C:/Users/shw26/AppData/Local/Arm/Packs/ARM/CMSIS-Driver/2.6.1/WiFi/ESP8266/BufList/BufList.c:302:3
	bl	Lock
	.loc	5 304 23                        @ C:/Users/shw26/AppData/Local/Arm/Packs/ARM/CMSIS-Driver/2.6.1/WiFi/ESP8266/BufList/BufList.c:304:23
	mov	r0, r4
	bl	ListPeekHead
	mov	r1, r0
.Ltmp96:
	@DEBUG_VALUE: BufReadByte:buf_cb <- $r1
	.loc	5 0 23 is_stmt 0                @ C:/Users/shw26/AppData/Local/Arm/Packs/ARM/CMSIS-Driver/2.6.1/WiFi/ESP8266/BufList/BufList.c:0:23
	movs	r5, #0
	.loc	5 306 7 is_stmt 1               @ C:/Users/shw26/AppData/Local/Arm/Packs/ARM/CMSIS-Driver/2.6.1/WiFi/ESP8266/BufList/BufList.c:306:7
	cmp	r0, #0
	.loc	5 0 0 is_stmt 0                 @ C:/Users/shw26/AppData/Local/Arm/Packs/ARM/CMSIS-Driver/2.6.1/WiFi/ESP8266/BufList/BufList.c:0:0
	mov	r0, r5
	.loc	5 306 7                         @ C:/Users/shw26/AppData/Local/Arm/Packs/ARM/CMSIS-Driver/2.6.1/WiFi/ESP8266/BufList/BufList.c:306:7
	beq	.LBB13_4
.Ltmp97:
@ %bb.1:
	@DEBUG_VALUE: BufReadByte:p <- $r4
	@DEBUG_VALUE: BufReadByte:buf_cb <- $r1
	.loc	5 307 32 is_stmt 1              @ C:/Users/shw26/AppData/Local/Arm/Packs/ARM/CMSIS-Driver/2.6.1/WiFi/ESP8266/BufList/BufList.c:307:32
	ldrh	r6, [r1, #8]
	.loc	5 307 17 is_stmt 0              @ C:/Users/shw26/AppData/Local/Arm/Packs/ARM/CMSIS-Driver/2.6.1/WiFi/ESP8266/BufList/BufList.c:307:17
	ldrh	r0, [r1, #10]
.Ltmp98:
	.loc	5 307 9                         @ C:/Users/shw26/AppData/Local/Arm/Packs/ARM/CMSIS-Driver/2.6.1/WiFi/ESP8266/BufList/BufList.c:307:9
	cmp	r0, r6
.Ltmp99:
	.loc	5 0 0                           @ C:/Users/shw26/AppData/Local/Arm/Packs/ARM/CMSIS-Driver/2.6.1/WiFi/ESP8266/BufList/BufList.c:0:0
	mov	r0, r1
.Ltmp100:
	.loc	5 307 9                         @ C:/Users/shw26/AppData/Local/Arm/Packs/ARM/CMSIS-Driver/2.6.1/WiFi/ESP8266/BufList/BufList.c:307:9
	bne	.LBB13_4
.Ltmp101:
@ %bb.2:
	@DEBUG_VALUE: BufReadByte:p <- $r4
	@DEBUG_VALUE: BufReadByte:buf_cb <- $r1
	.loc	5 309 26 is_stmt 1              @ C:/Users/shw26/AppData/Local/Arm/Packs/ARM/CMSIS-Driver/2.6.1/WiFi/ESP8266/BufList/BufList.c:309:26
	mov	r0, r4
	bl	Size
.Ltmp102:
	.loc	5 309 11 is_stmt 0              @ C:/Users/shw26/AppData/Local/Arm/Packs/ARM/CMSIS-Driver/2.6.1/WiFi/ESP8266/BufList/BufList.c:309:11
	cmp	r6, r0
.Ltmp103:
	.loc	5 0 0                           @ C:/Users/shw26/AppData/Local/Arm/Packs/ARM/CMSIS-Driver/2.6.1/WiFi/ESP8266/BufList/BufList.c:0:0
	mov	r0, r5
.Ltmp104:
	.loc	5 309 11                        @ C:/Users/shw26/AppData/Local/Arm/Packs/ARM/CMSIS-Driver/2.6.1/WiFi/ESP8266/BufList/BufList.c:309:11
	bne	.LBB13_4
.Ltmp105:
@ %bb.3:
	@DEBUG_VALUE: BufReadByte:p <- $r4
	.loc	5 310 18 is_stmt 1              @ C:/Users/shw26/AppData/Local/Arm/Packs/ARM/CMSIS-Driver/2.6.1/WiFi/ESP8266/BufList/BufList.c:310:18
	mov	r0, r4
	bl	Free
.Ltmp106:
	@DEBUG_VALUE: BufReadByte:buf_cb <- $r0
.LBB13_4:
	@DEBUG_VALUE: BufReadByte:p <- $r4
	@DEBUG_VALUE: BufReadByte:buf_cb <- $r0
	.loc	5 317 7                         @ C:/Users/shw26/AppData/Local/Arm/Packs/ARM/CMSIS-Driver/2.6.1/WiFi/ESP8266/BufList/BufList.c:317:7
	cbz	r0, .LBB13_6
.Ltmp107:
@ %bb.5:
	@DEBUG_VALUE: BufReadByte:p <- $r4
	@DEBUG_VALUE: BufReadByte:buf_cb <- $r0
	.loc	5 319 36                        @ C:/Users/shw26/AppData/Local/Arm/Packs/ARM/CMSIS-Driver/2.6.1/WiFi/ESP8266/BufList/BufList.c:319:36
	ldrh	r1, [r0, #10]
	adds	r2, r1, #1
	strh	r2, [r0, #10]
	.loc	5 319 12 is_stmt 0              @ C:/Users/shw26/AppData/Local/Arm/Packs/ARM/CMSIS-Driver/2.6.1/WiFi/ESP8266/BufList/BufList.c:319:12
	adds	r0, r0, r1
.Ltmp108:
	ldrb	r5, [r0, #12]
.Ltmp109:
	@DEBUG_VALUE: BufReadByte:rval <- $r5
	.loc	5 0 12                          @ C:/Users/shw26/AppData/Local/Arm/Packs/ARM/CMSIS-Driver/2.6.1/WiFi/ESP8266/BufList/BufList.c:0:12
	b	.LBB13_7
.Ltmp110:
.LBB13_6:
	@DEBUG_VALUE: BufReadByte:p <- $r4
	@DEBUG_VALUE: BufReadByte:buf_cb <- $r0
	mvns	r5, r5
.Ltmp111:
.LBB13_7:
	@DEBUG_VALUE: BufReadByte:p <- $r4
	@DEBUG_VALUE: BufReadByte:rval <- $r5
	.loc	5 326 3 is_stmt 1               @ C:/Users/shw26/AppData/Local/Arm/Packs/ARM/CMSIS-Driver/2.6.1/WiFi/ESP8266/BufList/BufList.c:326:3
	mov	r0, r4
	bl	Unlock
	.loc	5 328 3                         @ C:/Users/shw26/AppData/Local/Arm/Packs/ARM/CMSIS-Driver/2.6.1/WiFi/ESP8266/BufList/BufList.c:328:3
	mov	r0, r5
	pop	{r4, r5, r6, pc}
.Ltmp112:
.Lfunc_end13:
	.size	BufReadByte, .Lfunc_end13-BufReadByte
	.cfi_endproc
	.cantunwind
	.fnend
                                        @ -- End function
	.section	.text.BufPeekByte,"ax",%progbits
	.hidden	BufPeekByte                     @ -- Begin function BufPeekByte
	.globl	BufPeekByte
	.p2align	1
	.type	BufPeekByte,%function
	.code	16                              @ @BufPeekByte
	.thumb_func
BufPeekByte:
.Lfunc_begin14:
	.loc	5 331 0                         @ C:/Users/shw26/AppData/Local/Arm/Packs/ARM/CMSIS-Driver/2.6.1/WiFi/ESP8266/BufList/BufList.c:331:0
	.fnstart
	.cfi_startproc
@ %bb.0:
	@DEBUG_VALUE: BufPeekByte:p <- $r0
	.save	{r4, r5, r6, lr}
	push	{r4, r5, r6, lr}
	.cfi_def_cfa_offset 16
	.cfi_offset lr, -4
	.cfi_offset r6, -8
	.cfi_offset r5, -12
	.cfi_offset r4, -16
	mov	r4, r0
.Ltmp113:
	@DEBUG_VALUE: BufPeekByte:p <- $r4
	.loc	5 335 3 prologue_end            @ C:/Users/shw26/AppData/Local/Arm/Packs/ARM/CMSIS-Driver/2.6.1/WiFi/ESP8266/BufList/BufList.c:335:3
	bl	Lock
	.loc	5 337 23                        @ C:/Users/shw26/AppData/Local/Arm/Packs/ARM/CMSIS-Driver/2.6.1/WiFi/ESP8266/BufList/BufList.c:337:23
	mov	r0, r4
	bl	ListPeekHead
	mov	r1, r0
.Ltmp114:
	@DEBUG_VALUE: BufPeekByte:buf_cb <- $r1
	.loc	5 0 23 is_stmt 0                @ C:/Users/shw26/AppData/Local/Arm/Packs/ARM/CMSIS-Driver/2.6.1/WiFi/ESP8266/BufList/BufList.c:0:23
	movs	r5, #0
	.loc	5 339 7 is_stmt 1               @ C:/Users/shw26/AppData/Local/Arm/Packs/ARM/CMSIS-Driver/2.6.1/WiFi/ESP8266/BufList/BufList.c:339:7
	cmp	r0, #0
	.loc	5 0 0 is_stmt 0                 @ C:/Users/shw26/AppData/Local/Arm/Packs/ARM/CMSIS-Driver/2.6.1/WiFi/ESP8266/BufList/BufList.c:0:0
	mov	r0, r5
	.loc	5 339 7                         @ C:/Users/shw26/AppData/Local/Arm/Packs/ARM/CMSIS-Driver/2.6.1/WiFi/ESP8266/BufList/BufList.c:339:7
	beq	.LBB14_4
.Ltmp115:
@ %bb.1:
	@DEBUG_VALUE: BufPeekByte:p <- $r4
	@DEBUG_VALUE: BufPeekByte:buf_cb <- $r1
	.loc	5 340 32 is_stmt 1              @ C:/Users/shw26/AppData/Local/Arm/Packs/ARM/CMSIS-Driver/2.6.1/WiFi/ESP8266/BufList/BufList.c:340:32
	ldrh	r6, [r1, #8]
	.loc	5 340 17 is_stmt 0              @ C:/Users/shw26/AppData/Local/Arm/Packs/ARM/CMSIS-Driver/2.6.1/WiFi/ESP8266/BufList/BufList.c:340:17
	ldrh	r0, [r1, #10]
.Ltmp116:
	.loc	5 340 9                         @ C:/Users/shw26/AppData/Local/Arm/Packs/ARM/CMSIS-Driver/2.6.1/WiFi/ESP8266/BufList/BufList.c:340:9
	cmp	r0, r6
.Ltmp117:
	.loc	5 0 0                           @ C:/Users/shw26/AppData/Local/Arm/Packs/ARM/CMSIS-Driver/2.6.1/WiFi/ESP8266/BufList/BufList.c:0:0
	mov	r0, r1
.Ltmp118:
	.loc	5 340 9                         @ C:/Users/shw26/AppData/Local/Arm/Packs/ARM/CMSIS-Driver/2.6.1/WiFi/ESP8266/BufList/BufList.c:340:9
	bne	.LBB14_4
.Ltmp119:
@ %bb.2:
	@DEBUG_VALUE: BufPeekByte:p <- $r4
	@DEBUG_VALUE: BufPeekByte:buf_cb <- $r1
	.loc	5 342 26 is_stmt 1              @ C:/Users/shw26/AppData/Local/Arm/Packs/ARM/CMSIS-Driver/2.6.1/WiFi/ESP8266/BufList/BufList.c:342:26
	mov	r0, r4
	bl	Size
.Ltmp120:
	.loc	5 342 11 is_stmt 0              @ C:/Users/shw26/AppData/Local/Arm/Packs/ARM/CMSIS-Driver/2.6.1/WiFi/ESP8266/BufList/BufList.c:342:11
	cmp	r6, r0
.Ltmp121:
	.loc	5 0 0                           @ C:/Users/shw26/AppData/Local/Arm/Packs/ARM/CMSIS-Driver/2.6.1/WiFi/ESP8266/BufList/BufList.c:0:0
	mov	r0, r5
.Ltmp122:
	.loc	5 342 11                        @ C:/Users/shw26/AppData/Local/Arm/Packs/ARM/CMSIS-Driver/2.6.1/WiFi/ESP8266/BufList/BufList.c:342:11
	bne	.LBB14_4
.Ltmp123:
@ %bb.3:
	@DEBUG_VALUE: BufPeekByte:p <- $r4
	.loc	5 343 18 is_stmt 1              @ C:/Users/shw26/AppData/Local/Arm/Packs/ARM/CMSIS-Driver/2.6.1/WiFi/ESP8266/BufList/BufList.c:343:18
	mov	r0, r4
	bl	Free
.Ltmp124:
	@DEBUG_VALUE: BufPeekByte:buf_cb <- $r0
.LBB14_4:
	@DEBUG_VALUE: BufPeekByte:p <- $r4
	@DEBUG_VALUE: BufPeekByte:buf_cb <- $r0
	.loc	5 0 18 is_stmt 0                @ C:/Users/shw26/AppData/Local/Arm/Packs/ARM/CMSIS-Driver/2.6.1/WiFi/ESP8266/BufList/BufList.c:0:18
	mvns	r5, r5
	.loc	5 350 7 is_stmt 1               @ C:/Users/shw26/AppData/Local/Arm/Packs/ARM/CMSIS-Driver/2.6.1/WiFi/ESP8266/BufList/BufList.c:350:7
	cbz	r0, .LBB14_7
.Ltmp125:
@ %bb.5:
	@DEBUG_VALUE: BufPeekByte:p <- $r4
	@DEBUG_VALUE: BufPeekByte:buf_cb <- $r0
	.loc	5 351 17                        @ C:/Users/shw26/AppData/Local/Arm/Packs/ARM/CMSIS-Driver/2.6.1/WiFi/ESP8266/BufList/BufList.c:351:17
	ldrh	r1, [r0, #10]
	.loc	5 351 32 is_stmt 0              @ C:/Users/shw26/AppData/Local/Arm/Packs/ARM/CMSIS-Driver/2.6.1/WiFi/ESP8266/BufList/BufList.c:351:32
	ldrh	r2, [r0, #8]
.Ltmp126:
	.loc	5 351 9                         @ C:/Users/shw26/AppData/Local/Arm/Packs/ARM/CMSIS-Driver/2.6.1/WiFi/ESP8266/BufList/BufList.c:351:9
	cmp	r1, r2
	beq	.LBB14_7
.Ltmp127:
@ %bb.6:
	@DEBUG_VALUE: BufPeekByte:p <- $r4
	@DEBUG_VALUE: BufPeekByte:buf_cb <- $r0
	.loc	5 356 14 is_stmt 1              @ C:/Users/shw26/AppData/Local/Arm/Packs/ARM/CMSIS-Driver/2.6.1/WiFi/ESP8266/BufList/BufList.c:356:14
	adds	r0, r0, r1
.Ltmp128:
	ldrb	r5, [r0, #12]
.Ltmp129:
	@DEBUG_VALUE: BufPeekByte:rval <- $r5
.LBB14_7:
	@DEBUG_VALUE: BufPeekByte:p <- $r4
	@DEBUG_VALUE: BufPeekByte:rval <- $r5
	.loc	5 364 3                         @ C:/Users/shw26/AppData/Local/Arm/Packs/ARM/CMSIS-Driver/2.6.1/WiFi/ESP8266/BufList/BufList.c:364:3
	mov	r0, r4
	bl	Unlock
	.loc	5 366 3                         @ C:/Users/shw26/AppData/Local/Arm/Packs/ARM/CMSIS-Driver/2.6.1/WiFi/ESP8266/BufList/BufList.c:366:3
	mov	r0, r5
	pop	{r4, r5, r6, pc}
.Ltmp130:
.Lfunc_end14:
	.size	BufPeekByte, .Lfunc_end14-BufPeekByte
	.cfi_endproc
	.cantunwind
	.fnend
                                        @ -- End function
	.section	.text.BufPeekOffs,"ax",%progbits
	.hidden	BufPeekOffs                     @ -- Begin function BufPeekOffs
	.globl	BufPeekOffs
	.p2align	1
	.type	BufPeekOffs,%function
	.code	16                              @ @BufPeekOffs
	.thumb_func
BufPeekOffs:
.Lfunc_begin15:
	.loc	5 369 0                         @ C:/Users/shw26/AppData/Local/Arm/Packs/ARM/CMSIS-Driver/2.6.1/WiFi/ESP8266/BufList/BufList.c:369:0
	.fnstart
	.cfi_startproc
@ %bb.0:
	@DEBUG_VALUE: BufPeekOffs:offs <- $r0
	@DEBUG_VALUE: BufPeekOffs:p <- $r1
	.save	{r4, r5, r6, r7, lr}
	push	{r4, r5, r6, r7, lr}
	.cfi_def_cfa_offset 20
	.cfi_offset lr, -4
	.cfi_offset r7, -8
	.cfi_offset r6, -12
	.cfi_offset r5, -16
	.cfi_offset r4, -20
	.pad	#4
	sub	sp, #4
	.cfi_def_cfa_offset 24
	mov	r4, r1
	mov	r5, r0
.Ltmp131:
	@DEBUG_VALUE: BufPeekOffs:rdi <- 0
	@DEBUG_VALUE: BufPeekOffs:p <- $r4
	@DEBUG_VALUE: BufPeekOffs:offs <- $r5
	.loc	5 374 3 prologue_end            @ C:/Users/shw26/AppData/Local/Arm/Packs/ARM/CMSIS-Driver/2.6.1/WiFi/ESP8266/BufList/BufList.c:374:3
	mov	r0, r1
	bl	Lock
.Ltmp132:
	@DEBUG_VALUE: BufPeekOffs:n <- -1
	.loc	5 377 23                        @ C:/Users/shw26/AppData/Local/Arm/Packs/ARM/CMSIS-Driver/2.6.1/WiFi/ESP8266/BufList/BufList.c:377:23
	mov	r0, r4
	bl	ListPeekHead
.Ltmp133:
	@DEBUG_VALUE: BufPeekOffs:buf_cb <- $r0
	.loc	5 0 23 is_stmt 0                @ C:/Users/shw26/AppData/Local/Arm/Packs/ARM/CMSIS-Driver/2.6.1/WiFi/ESP8266/BufList/BufList.c:0:23
	movs	r2, #0
	mov	r1, r2
	.loc	5 379 7 is_stmt 1               @ C:/Users/shw26/AppData/Local/Arm/Packs/ARM/CMSIS-Driver/2.6.1/WiFi/ESP8266/BufList/BufList.c:379:7
	cbz	r0, .LBB15_2
.Ltmp134:
@ %bb.1:
	@DEBUG_VALUE: BufPeekOffs:offs <- $r5
	@DEBUG_VALUE: BufPeekOffs:p <- $r4
	@DEBUG_VALUE: BufPeekOffs:buf_cb <- $r0
	@DEBUG_VALUE: BufPeekOffs:n <- -1
	@DEBUG_VALUE: BufPeekOffs:rdi <- 0
	.loc	5 380 19                        @ C:/Users/shw26/AppData/Local/Arm/Packs/ARM/CMSIS-Driver/2.6.1/WiFi/ESP8266/BufList/BufList.c:380:19
	ldrh	r1, [r0, #10]
.Ltmp135:
	@DEBUG_VALUE: BufPeekOffs:rdi <- $r1
.LBB15_2:
	@DEBUG_VALUE: BufPeekOffs:offs <- $r5
	@DEBUG_VALUE: BufPeekOffs:p <- $r4
	@DEBUG_VALUE: BufPeekOffs:buf_cb <- $r0
	@DEBUG_VALUE: BufPeekOffs:n <- -1
	@DEBUG_VALUE: BufPeekOffs:rdi <- $r1
	@DEBUG_VALUE: BufPeekOffs:n <- -1
	@DEBUG_VALUE: BufPeekOffs:buf_cb <- $r0
	.loc	5 0 19 is_stmt 0                @ C:/Users/shw26/AppData/Local/Arm/Packs/ARM/CMSIS-Driver/2.6.1/WiFi/ESP8266/BufList/BufList.c:0:19
	mvns	r6, r2
.Ltmp136:
	@DEBUG_VALUE: BufPeekOffs:offs <- undef
	.loc	5 383 3 is_stmt 1               @ C:/Users/shw26/AppData/Local/Arm/Packs/ARM/CMSIS-Driver/2.6.1/WiFi/ESP8266/BufList/BufList.c:383:3
	cbz	r0, .LBB15_9
.Ltmp137:
@ %bb.3:
	@DEBUG_VALUE: BufPeekOffs:p <- $r4
	@DEBUG_VALUE: BufPeekOffs:rdi <- $r1
	@DEBUG_VALUE: BufPeekOffs:buf_cb <- $r0
	@DEBUG_VALUE: BufPeekOffs:n <- -1
	.loc	5 0 3 is_stmt 0                 @ C:/Users/shw26/AppData/Local/Arm/Packs/ARM/CMSIS-Driver/2.6.1/WiFi/ESP8266/BufList/BufList.c:0:3
	movs	r7, #0
	b	.LBB15_5
.Ltmp138:
.LBB15_4:                               @   in Loop: Header=BB15_5 Depth=1
	@DEBUG_VALUE: BufPeekOffs:offs <- $r5
	@DEBUG_VALUE: BufPeekOffs:p <- $r4
	@DEBUG_VALUE: BufPeekOffs:rdi <- $r1
	@DEBUG_VALUE: BufPeekOffs:buf_cb <- $r0
	@DEBUG_VALUE: BufPeekOffs:n <- -1
	.loc	5 387 27 is_stmt 1              @ C:/Users/shw26/AppData/Local/Arm/Packs/ARM/CMSIS-Driver/2.6.1/WiFi/ESP8266/BufList/BufList.c:387:27
	bl	ListPeekNext
.Ltmp139:
	@DEBUG_VALUE: BufPeekOffs:buf_cb <- $r0
	@DEBUG_VALUE: BufPeekOffs:n <- -1
	@DEBUG_VALUE: BufPeekOffs:rdi <- 0
	.loc	5 0 0 is_stmt 0                 @ C:/Users/shw26/AppData/Local/Arm/Packs/ARM/CMSIS-Driver/2.6.1/WiFi/ESP8266/BufList/BufList.c:0:0
	mov	r1, r7
.Ltmp140:
	@DEBUG_VALUE: BufPeekOffs:offs <- $r5
	@DEBUG_VALUE: BufPeekOffs:rdi <- $r1
	@DEBUG_VALUE: BufPeekOffs:n <- -1
	@DEBUG_VALUE: BufPeekOffs:buf_cb <- $r0
	.loc	5 383 3 is_stmt 1               @ C:/Users/shw26/AppData/Local/Arm/Packs/ARM/CMSIS-Driver/2.6.1/WiFi/ESP8266/BufList/BufList.c:383:3
	cbz	r0, .LBB15_9
.Ltmp141:
.LBB15_5:                               @ =>This Inner Loop Header: Depth=1
	@DEBUG_VALUE: BufPeekOffs:p <- $r4
	@DEBUG_VALUE: BufPeekOffs:rdi <- $r1
	@DEBUG_VALUE: BufPeekOffs:buf_cb <- $r0
	@DEBUG_VALUE: BufPeekOffs:n <- -1
	@DEBUG_VALUE: BufPeekOffs:offs <- $r5
	@DEBUG_VALUE: BufPeekOffs:rdi <- $r1
	@DEBUG_VALUE: BufPeekOffs:buf_cb <- $r0
	.loc	5 385 24                        @ C:/Users/shw26/AppData/Local/Arm/Packs/ARM/CMSIS-Driver/2.6.1/WiFi/ESP8266/BufList/BufList.c:385:24
	ldrh	r2, [r0, #8]
.Ltmp142:
	.loc	5 385 9 is_stmt 0               @ C:/Users/shw26/AppData/Local/Arm/Packs/ARM/CMSIS-Driver/2.6.1/WiFi/ESP8266/BufList/BufList.c:385:9
	cmp	r1, r2
	beq	.LBB15_4
.Ltmp143:
@ %bb.6:                                @   in Loop: Header=BB15_5 Depth=1
	@DEBUG_VALUE: BufPeekOffs:offs <- $r5
	@DEBUG_VALUE: BufPeekOffs:p <- $r4
	@DEBUG_VALUE: BufPeekOffs:rdi <- $r1
	@DEBUG_VALUE: BufPeekOffs:buf_cb <- $r0
	@DEBUG_VALUE: BufPeekOffs:n <- -1
	.loc	5 398 11 is_stmt 1              @ C:/Users/shw26/AppData/Local/Arm/Packs/ARM/CMSIS-Driver/2.6.1/WiFi/ESP8266/BufList/BufList.c:398:11
	cbz	r5, .LBB15_8
.Ltmp144:
@ %bb.7:                                @   in Loop: Header=BB15_5 Depth=1
	@DEBUG_VALUE: BufPeekOffs:offs <- $r5
	@DEBUG_VALUE: BufPeekOffs:p <- $r4
	@DEBUG_VALUE: BufPeekOffs:rdi <- $r1
	@DEBUG_VALUE: BufPeekOffs:buf_cb <- $r0
	@DEBUG_VALUE: BufPeekOffs:n <- -1
	.loc	5 400 12                        @ C:/Users/shw26/AppData/Local/Arm/Packs/ARM/CMSIS-Driver/2.6.1/WiFi/ESP8266/BufList/BufList.c:400:12
	adds	r1, r1, #1
.Ltmp145:
	@DEBUG_VALUE: BufPeekOffs:rdi <- $r1
	.loc	5 399 13                        @ C:/Users/shw26/AppData/Local/Arm/Packs/ARM/CMSIS-Driver/2.6.1/WiFi/ESP8266/BufList/BufList.c:399:13
	subs	r5, r5, #1
.Ltmp146:
	@DEBUG_VALUE: BufPeekOffs:offs <- $r5
	@DEBUG_VALUE: BufPeekOffs:offs <- $r5
	@DEBUG_VALUE: BufPeekOffs:rdi <- $r1
	@DEBUG_VALUE: BufPeekOffs:n <- -1
	@DEBUG_VALUE: BufPeekOffs:buf_cb <- $r0
	.loc	5 383 3                         @ C:/Users/shw26/AppData/Local/Arm/Packs/ARM/CMSIS-Driver/2.6.1/WiFi/ESP8266/BufList/BufList.c:383:3
	cmp	r0, #0
	bne	.LBB15_5
	b	.LBB15_9
.Ltmp147:
.LBB15_8:
	@DEBUG_VALUE: BufPeekOffs:offs <- $r5
	@DEBUG_VALUE: BufPeekOffs:p <- $r4
	@DEBUG_VALUE: BufPeekOffs:rdi <- $r1
	@DEBUG_VALUE: BufPeekOffs:buf_cb <- $r0
	@DEBUG_VALUE: BufPeekOffs:n <- -1
	@DEBUG_VALUE: BufPeekOffs:rdi <- $r1
	@DEBUG_VALUE: BufPeekOffs:buf_cb <- $r0
	.loc	5 404 13                        @ C:/Users/shw26/AppData/Local/Arm/Packs/ARM/CMSIS-Driver/2.6.1/WiFi/ESP8266/BufList/BufList.c:404:13
	adds	r0, r0, r1
.Ltmp148:
	ldrb	r6, [r0, #12]
.Ltmp149:
	@DEBUG_VALUE: BufPeekOffs:n <- $r6
.LBB15_9:
	@DEBUG_VALUE: BufPeekOffs:p <- $r4
	@DEBUG_VALUE: BufPeekOffs:rdi <- $r1
	@DEBUG_VALUE: BufPeekOffs:n <- $r6
	.loc	5 410 3                         @ C:/Users/shw26/AppData/Local/Arm/Packs/ARM/CMSIS-Driver/2.6.1/WiFi/ESP8266/BufList/BufList.c:410:3
	mov	r0, r4
	bl	Unlock
.Ltmp150:
	.loc	5 412 3                         @ C:/Users/shw26/AppData/Local/Arm/Packs/ARM/CMSIS-Driver/2.6.1/WiFi/ESP8266/BufList/BufList.c:412:3
	mov	r0, r6
	add	sp, #4
	pop	{r4, r5, r6, r7, pc}
.Ltmp151:
.Lfunc_end15:
	.size	BufPeekOffs, .Lfunc_end15-BufPeekOffs
	.cfi_endproc
	.cantunwind
	.fnend
                                        @ -- End function
	.section	.text.BufFlushByte,"ax",%progbits
	.hidden	BufFlushByte                    @ -- Begin function BufFlushByte
	.globl	BufFlushByte
	.p2align	1
	.type	BufFlushByte,%function
	.code	16                              @ @BufFlushByte
	.thumb_func
BufFlushByte:
.Lfunc_begin16:
	.loc	5 415 0                         @ C:/Users/shw26/AppData/Local/Arm/Packs/ARM/CMSIS-Driver/2.6.1/WiFi/ESP8266/BufList/BufList.c:415:0
	.fnstart
	.cfi_startproc
@ %bb.0:
	@DEBUG_VALUE: BufFlushByte:p <- $r0
	.save	{r4, r5, r6, lr}
	push	{r4, r5, r6, lr}
	.cfi_def_cfa_offset 16
	.cfi_offset lr, -4
	.cfi_offset r6, -8
	.cfi_offset r5, -12
	.cfi_offset r4, -16
	mov	r4, r0
.Ltmp152:
	@DEBUG_VALUE: BufFlushByte:p <- $r4
	.loc	5 419 3 prologue_end            @ C:/Users/shw26/AppData/Local/Arm/Packs/ARM/CMSIS-Driver/2.6.1/WiFi/ESP8266/BufList/BufList.c:419:3
	bl	Lock
	.loc	5 421 23                        @ C:/Users/shw26/AppData/Local/Arm/Packs/ARM/CMSIS-Driver/2.6.1/WiFi/ESP8266/BufList/BufList.c:421:23
	mov	r0, r4
	bl	ListPeekHead
	mov	r1, r0
.Ltmp153:
	@DEBUG_VALUE: BufFlushByte:buf_cb <- $r1
	.loc	5 0 23 is_stmt 0                @ C:/Users/shw26/AppData/Local/Arm/Packs/ARM/CMSIS-Driver/2.6.1/WiFi/ESP8266/BufList/BufList.c:0:23
	movs	r5, #0
	.loc	5 423 7 is_stmt 1               @ C:/Users/shw26/AppData/Local/Arm/Packs/ARM/CMSIS-Driver/2.6.1/WiFi/ESP8266/BufList/BufList.c:423:7
	cmp	r0, #0
	.loc	5 0 0 is_stmt 0                 @ C:/Users/shw26/AppData/Local/Arm/Packs/ARM/CMSIS-Driver/2.6.1/WiFi/ESP8266/BufList/BufList.c:0:0
	mov	r0, r5
	.loc	5 423 7                         @ C:/Users/shw26/AppData/Local/Arm/Packs/ARM/CMSIS-Driver/2.6.1/WiFi/ESP8266/BufList/BufList.c:423:7
	beq	.LBB16_4
.Ltmp154:
@ %bb.1:
	@DEBUG_VALUE: BufFlushByte:p <- $r4
	@DEBUG_VALUE: BufFlushByte:buf_cb <- $r1
	.loc	5 424 32 is_stmt 1              @ C:/Users/shw26/AppData/Local/Arm/Packs/ARM/CMSIS-Driver/2.6.1/WiFi/ESP8266/BufList/BufList.c:424:32
	ldrh	r6, [r1, #8]
	.loc	5 424 17 is_stmt 0              @ C:/Users/shw26/AppData/Local/Arm/Packs/ARM/CMSIS-Driver/2.6.1/WiFi/ESP8266/BufList/BufList.c:424:17
	ldrh	r0, [r1, #10]
.Ltmp155:
	.loc	5 424 9                         @ C:/Users/shw26/AppData/Local/Arm/Packs/ARM/CMSIS-Driver/2.6.1/WiFi/ESP8266/BufList/BufList.c:424:9
	cmp	r0, r6
.Ltmp156:
	.loc	5 0 0                           @ C:/Users/shw26/AppData/Local/Arm/Packs/ARM/CMSIS-Driver/2.6.1/WiFi/ESP8266/BufList/BufList.c:0:0
	mov	r0, r1
.Ltmp157:
	.loc	5 424 9                         @ C:/Users/shw26/AppData/Local/Arm/Packs/ARM/CMSIS-Driver/2.6.1/WiFi/ESP8266/BufList/BufList.c:424:9
	bne	.LBB16_4
.Ltmp158:
@ %bb.2:
	@DEBUG_VALUE: BufFlushByte:p <- $r4
	@DEBUG_VALUE: BufFlushByte:buf_cb <- $r1
	.loc	5 426 26 is_stmt 1              @ C:/Users/shw26/AppData/Local/Arm/Packs/ARM/CMSIS-Driver/2.6.1/WiFi/ESP8266/BufList/BufList.c:426:26
	mov	r0, r4
	bl	Size
.Ltmp159:
	.loc	5 426 11 is_stmt 0              @ C:/Users/shw26/AppData/Local/Arm/Packs/ARM/CMSIS-Driver/2.6.1/WiFi/ESP8266/BufList/BufList.c:426:11
	cmp	r6, r0
.Ltmp160:
	.loc	5 0 0                           @ C:/Users/shw26/AppData/Local/Arm/Packs/ARM/CMSIS-Driver/2.6.1/WiFi/ESP8266/BufList/BufList.c:0:0
	mov	r0, r5
.Ltmp161:
	.loc	5 426 11                        @ C:/Users/shw26/AppData/Local/Arm/Packs/ARM/CMSIS-Driver/2.6.1/WiFi/ESP8266/BufList/BufList.c:426:11
	bne	.LBB16_4
.Ltmp162:
@ %bb.3:
	@DEBUG_VALUE: BufFlushByte:p <- $r4
	.loc	5 427 18 is_stmt 1              @ C:/Users/shw26/AppData/Local/Arm/Packs/ARM/CMSIS-Driver/2.6.1/WiFi/ESP8266/BufList/BufList.c:427:18
	mov	r0, r4
	bl	Free
.Ltmp163:
	@DEBUG_VALUE: BufFlushByte:buf_cb <- $r0
.LBB16_4:
	@DEBUG_VALUE: BufFlushByte:p <- $r4
	@DEBUG_VALUE: BufFlushByte:buf_cb <- $r0
	.loc	5 0 18 is_stmt 0                @ C:/Users/shw26/AppData/Local/Arm/Packs/ARM/CMSIS-Driver/2.6.1/WiFi/ESP8266/BufList/BufList.c:0:18
	mvns	r5, r5
	.loc	5 434 7 is_stmt 1               @ C:/Users/shw26/AppData/Local/Arm/Packs/ARM/CMSIS-Driver/2.6.1/WiFi/ESP8266/BufList/BufList.c:434:7
	cbz	r0, .LBB16_7
.Ltmp164:
@ %bb.5:
	@DEBUG_VALUE: BufFlushByte:p <- $r4
	@DEBUG_VALUE: BufFlushByte:buf_cb <- $r0
	.loc	5 435 17                        @ C:/Users/shw26/AppData/Local/Arm/Packs/ARM/CMSIS-Driver/2.6.1/WiFi/ESP8266/BufList/BufList.c:435:17
	ldrh	r1, [r0, #10]
	.loc	5 435 32 is_stmt 0              @ C:/Users/shw26/AppData/Local/Arm/Packs/ARM/CMSIS-Driver/2.6.1/WiFi/ESP8266/BufList/BufList.c:435:32
	ldrh	r2, [r0, #8]
.Ltmp165:
	.loc	5 435 9                         @ C:/Users/shw26/AppData/Local/Arm/Packs/ARM/CMSIS-Driver/2.6.1/WiFi/ESP8266/BufList/BufList.c:435:9
	cmp	r1, r2
	beq	.LBB16_7
.Ltmp166:
@ %bb.6:
	@DEBUG_VALUE: BufFlushByte:p <- $r4
	@DEBUG_VALUE: BufFlushByte:buf_cb <- $r0
	.loc	5 441 38 is_stmt 1              @ C:/Users/shw26/AppData/Local/Arm/Packs/ARM/CMSIS-Driver/2.6.1/WiFi/ESP8266/BufList/BufList.c:441:38
	adds	r2, r1, #1
	strh	r2, [r0, #10]
	.loc	5 441 14 is_stmt 0              @ C:/Users/shw26/AppData/Local/Arm/Packs/ARM/CMSIS-Driver/2.6.1/WiFi/ESP8266/BufList/BufList.c:441:14
	adds	r0, r0, r1
.Ltmp167:
	ldrb	r5, [r0, #12]
.Ltmp168:
	@DEBUG_VALUE: BufFlushByte:rval <- $r5
.LBB16_7:
	@DEBUG_VALUE: BufFlushByte:p <- $r4
	@DEBUG_VALUE: BufFlushByte:rval <- $r5
	.loc	5 449 3 is_stmt 1               @ C:/Users/shw26/AppData/Local/Arm/Packs/ARM/CMSIS-Driver/2.6.1/WiFi/ESP8266/BufList/BufList.c:449:3
	mov	r0, r4
	bl	Unlock
	.loc	5 451 3                         @ C:/Users/shw26/AppData/Local/Arm/Packs/ARM/CMSIS-Driver/2.6.1/WiFi/ESP8266/BufList/BufList.c:451:3
	mov	r0, r5
	pop	{r4, r5, r6, pc}
.Ltmp169:
.Lfunc_end16:
	.size	BufFlushByte, .Lfunc_end16-BufFlushByte
	.cfi_endproc
	.cantunwind
	.fnend
                                        @ -- End function
	.section	.text.BufWriteByte,"ax",%progbits
	.hidden	BufWriteByte                    @ -- Begin function BufWriteByte
	.globl	BufWriteByte
	.p2align	1
	.type	BufWriteByte,%function
	.code	16                              @ @BufWriteByte
	.thumb_func
BufWriteByte:
.Lfunc_begin17:
	.loc	5 454 0                         @ C:/Users/shw26/AppData/Local/Arm/Packs/ARM/CMSIS-Driver/2.6.1/WiFi/ESP8266/BufList/BufList.c:454:0
	.fnstart
	.cfi_startproc
@ %bb.0:
	@DEBUG_VALUE: BufWriteByte:data <- $r0
	@DEBUG_VALUE: BufWriteByte:p <- $r1
	.save	{r4, r5, r6, lr}
	push	{r4, r5, r6, lr}
	.cfi_def_cfa_offset 16
	.cfi_offset lr, -4
	.cfi_offset r6, -8
	.cfi_offset r5, -12
	.cfi_offset r4, -16
	mov	r4, r1
	mov	r5, r0
.Ltmp170:
	@DEBUG_VALUE: BufWriteByte:p <- $r4
	@DEBUG_VALUE: BufWriteByte:data <- $r5
	.loc	5 459 3 prologue_end            @ C:/Users/shw26/AppData/Local/Arm/Packs/ARM/CMSIS-Driver/2.6.1/WiFi/ESP8266/BufList/BufList.c:459:3
	mov	r0, r1
	bl	Lock
	.loc	5 461 10                        @ C:/Users/shw26/AppData/Local/Arm/Packs/ARM/CMSIS-Driver/2.6.1/WiFi/ESP8266/BufList/BufList.c:461:10
	mov	r0, r4
	bl	Size
	mov	r6, r0
.Ltmp171:
	@DEBUG_VALUE: BufWriteByte:maxi <- [DW_OP_LLVM_convert 16 7, DW_OP_LLVM_convert 32 7, DW_OP_stack_value] undef
	.loc	5 463 23                        @ C:/Users/shw26/AppData/Local/Arm/Packs/ARM/CMSIS-Driver/2.6.1/WiFi/ESP8266/BufList/BufList.c:463:23
	mov	r0, r4
	bl	ListPeekTail
.Ltmp172:
	@DEBUG_VALUE: BufWriteByte:buf_cb <- $r0
	.loc	5 465 24                        @ C:/Users/shw26/AppData/Local/Arm/Packs/ARM/CMSIS-Driver/2.6.1/WiFi/ESP8266/BufList/BufList.c:465:24
	cbz	r0, .LBB17_2
.Ltmp173:
@ %bb.1:
	@DEBUG_VALUE: BufWriteByte:data <- $r5
	@DEBUG_VALUE: BufWriteByte:p <- $r4
	@DEBUG_VALUE: BufWriteByte:buf_cb <- $r0
	@DEBUG_VALUE: BufWriteByte:maxi <- [DW_OP_LLVM_convert 16 7, DW_OP_LLVM_convert 32 7, DW_OP_stack_value] $r6
	@DEBUG_VALUE: BufWriteByte:buf_cb <- $r0
	.loc	5 465 36 is_stmt 0              @ C:/Users/shw26/AppData/Local/Arm/Packs/ARM/CMSIS-Driver/2.6.1/WiFi/ESP8266/BufList/BufList.c:465:36
	ldrh	r1, [r0, #8]
.Ltmp174:
	.loc	5 465 7                         @ C:/Users/shw26/AppData/Local/Arm/Packs/ARM/CMSIS-Driver/2.6.1/WiFi/ESP8266/BufList/BufList.c:465:7
	cmp	r1, r6
	bne	.LBB17_3
.Ltmp175:
.LBB17_2:
	@DEBUG_VALUE: BufWriteByte:data <- $r5
	@DEBUG_VALUE: BufWriteByte:p <- $r4
	@DEBUG_VALUE: BufWriteByte:buf_cb <- $r0
	.loc	5 467 14 is_stmt 1              @ C:/Users/shw26/AppData/Local/Arm/Packs/ARM/CMSIS-Driver/2.6.1/WiFi/ESP8266/BufList/BufList.c:467:14
	mov	r0, r4
.Ltmp176:
	bl	Alloc
.Ltmp177:
	@DEBUG_VALUE: BufWriteByte:buf_cb <- $r0
.LBB17_3:
	@DEBUG_VALUE: BufWriteByte:data <- $r5
	@DEBUG_VALUE: BufWriteByte:p <- $r4
	@DEBUG_VALUE: BufWriteByte:buf_cb <- $r0
	@DEBUG_VALUE: BufWriteByte:data <- $r5
	@DEBUG_VALUE: BufWriteByte:buf_cb <- $r0
	.loc	5 470 7                         @ C:/Users/shw26/AppData/Local/Arm/Packs/ARM/CMSIS-Driver/2.6.1/WiFi/ESP8266/BufList/BufList.c:470:7
	cbz	r0, .LBB17_5
.Ltmp178:
@ %bb.4:
	@DEBUG_VALUE: BufWriteByte:data <- $r5
	@DEBUG_VALUE: BufWriteByte:p <- $r4
	@DEBUG_VALUE: BufWriteByte:buf_cb <- $r0
	@DEBUG_VALUE: BufWriteByte:data <- $r5
	.loc	5 471 29                        @ C:/Users/shw26/AppData/Local/Arm/Packs/ARM/CMSIS-Driver/2.6.1/WiFi/ESP8266/BufList/BufList.c:471:29
	ldrh	r1, [r0, #8]
	.loc	5 471 5 is_stmt 0               @ C:/Users/shw26/AppData/Local/Arm/Packs/ARM/CMSIS-Driver/2.6.1/WiFi/ESP8266/BufList/BufList.c:471:5
	adds	r2, r0, r1
	.loc	5 471 33                        @ C:/Users/shw26/AppData/Local/Arm/Packs/ARM/CMSIS-Driver/2.6.1/WiFi/ESP8266/BufList/BufList.c:471:33
	strb	r5, [r2, #12]
	.loc	5 471 29                        @ C:/Users/shw26/AppData/Local/Arm/Packs/ARM/CMSIS-Driver/2.6.1/WiFi/ESP8266/BufList/BufList.c:471:29
	adds	r1, r1, #1
	strh	r1, [r0, #8]
.Ltmp179:
	@DEBUG_VALUE: BufWriteByte:rval <- $r5
	.loc	5 0 29                          @ C:/Users/shw26/AppData/Local/Arm/Packs/ARM/CMSIS-Driver/2.6.1/WiFi/ESP8266/BufList/BufList.c:0:29
	b	.LBB17_6
.Ltmp180:
.LBB17_5:
	@DEBUG_VALUE: BufWriteByte:data <- $r5
	@DEBUG_VALUE: BufWriteByte:p <- $r4
	@DEBUG_VALUE: BufWriteByte:buf_cb <- $r0
	movs	r0, #0
.Ltmp181:
	mvns	r5, r0
.Ltmp182:
.LBB17_6:
	@DEBUG_VALUE: BufWriteByte:p <- $r4
	@DEBUG_VALUE: BufWriteByte:rval <- $r5
	.loc	5 479 3 is_stmt 1               @ C:/Users/shw26/AppData/Local/Arm/Packs/ARM/CMSIS-Driver/2.6.1/WiFi/ESP8266/BufList/BufList.c:479:3
	mov	r0, r4
	bl	Unlock
	.loc	5 481 3                         @ C:/Users/shw26/AppData/Local/Arm/Packs/ARM/CMSIS-Driver/2.6.1/WiFi/ESP8266/BufList/BufList.c:481:3
	mov	r0, r5
	pop	{r4, r5, r6, pc}
.Ltmp183:
.Lfunc_end17:
	.size	BufWriteByte, .Lfunc_end17-BufWriteByte
	.cfi_endproc
	.cantunwind
	.fnend
                                        @ -- End function
	.section	.text.BufRead,"ax",%progbits
	.hidden	BufRead                         @ -- Begin function BufRead
	.globl	BufRead
	.p2align	1
	.type	BufRead,%function
	.code	16                              @ @BufRead
	.thumb_func
BufRead:
.Lfunc_begin18:
	.loc	5 487 0                         @ C:/Users/shw26/AppData/Local/Arm/Packs/ARM/CMSIS-Driver/2.6.1/WiFi/ESP8266/BufList/BufList.c:487:0
	.fnstart
	.cfi_startproc
@ %bb.0:
	@DEBUG_VALUE: BufRead:buf <- $r0
	@DEBUG_VALUE: BufRead:num <- $r1
	@DEBUG_VALUE: BufRead:p <- $r2
	.save	{r4, r5, r6, r7, lr}
	push	{r4, r5, r6, r7, lr}
	.cfi_def_cfa_offset 20
	.cfi_offset lr, -4
	.cfi_offset r7, -8
	.cfi_offset r6, -12
	.cfi_offset r5, -16
	.cfi_offset r4, -20
	.pad	#12
	sub	sp, #12
	.cfi_def_cfa_offset 32
	mov	r4, r2
	mov	r5, r1
	mov	r6, r0
.Ltmp184:
	@DEBUG_VALUE: BufRead:p <- $r4
	@DEBUG_VALUE: BufRead:num <- $r5
	@DEBUG_VALUE: BufRead:buf <- $r6
	.loc	5 491 3 prologue_end            @ C:/Users/shw26/AppData/Local/Arm/Packs/ARM/CMSIS-Driver/2.6.1/WiFi/ESP8266/BufList/BufList.c:491:3
	mov	r0, r2
	bl	Lock
.Ltmp185:
	@DEBUG_VALUE: BufRead:n <- 0
	.loc	5 0 3 is_stmt 0                 @ C:/Users/shw26/AppData/Local/Arm/Packs/ARM/CMSIS-Driver/2.6.1/WiFi/ESP8266/BufList/BufList.c:0:3
	str	r4, [sp, #8]                    @ 4-byte Spill
.Ltmp186:
	@DEBUG_VALUE: BufRead:p <- [DW_OP_plus_uconst 8] [$sp+0]
	.loc	5 494 23 is_stmt 1              @ C:/Users/shw26/AppData/Local/Arm/Packs/ARM/CMSIS-Driver/2.6.1/WiFi/ESP8266/BufList/BufList.c:494:23
	mov	r0, r4
	bl	ListPeekHead
.Ltmp187:
	@DEBUG_VALUE: BufRead:buf_cb <- $r0
	.loc	5 0 23 is_stmt 0                @ C:/Users/shw26/AppData/Local/Arm/Packs/ARM/CMSIS-Driver/2.6.1/WiFi/ESP8266/BufList/BufList.c:0:23
	movs	r7, #0
	@DEBUG_VALUE: BufRead:buf_cb <- $r0
	.loc	5 496 3 is_stmt 1               @ C:/Users/shw26/AppData/Local/Arm/Packs/ARM/CMSIS-Driver/2.6.1/WiFi/ESP8266/BufList/BufList.c:496:3
	cbz	r0, .LBB18_13
.Ltmp188:
@ %bb.1:
	@DEBUG_VALUE: BufRead:buf <- $r6
	@DEBUG_VALUE: BufRead:num <- $r5
	@DEBUG_VALUE: BufRead:buf_cb <- $r0
	@DEBUG_VALUE: BufRead:p <- [DW_OP_plus_uconst 8] [$sp+0]
	@DEBUG_VALUE: BufRead:n <- 0
	.loc	5 0 3 is_stmt 0                 @ C:/Users/shw26/AppData/Local/Arm/Packs/ARM/CMSIS-Driver/2.6.1/WiFi/ESP8266/BufList/BufList.c:0:3
	ldr	r2, [sp, #8]                    @ 4-byte Reload
	str	r5, [sp, #4]                    @ 4-byte Spill
	b	.LBB18_5
.Ltmp189:
.LBB18_2:                               @   in Loop: Header=BB18_5 Depth=1
	@DEBUG_VALUE: BufRead:n <- $r7
	@DEBUG_VALUE: BufRead:buf <- $r6
	@DEBUG_VALUE: BufRead:p <- [DW_OP_plus_uconst 8] [$sp+0]
	movs	r0, #0
.Ltmp190:
.LBB18_3:                               @   in Loop: Header=BB18_5 Depth=1
	@DEBUG_VALUE: BufRead:n <- $r7
	@DEBUG_VALUE: BufRead:buf <- $r6
	@DEBUG_VALUE: BufRead:p <- [DW_OP_plus_uconst 8] [$sp+0]
	mov	r2, r5
	ldr	r5, [sp, #4]                    @ 4-byte Reload
.Ltmp191:
.LBB18_4:                               @   in Loop: Header=BB18_5 Depth=1
	@DEBUG_VALUE: BufRead:n <- $r7
	@DEBUG_VALUE: BufRead:buf <- $r6
	@DEBUG_VALUE: BufRead:p <- [DW_OP_plus_uconst 8] [$sp+0]
	@DEBUG_VALUE: BufRead:n <- $r7
	@DEBUG_VALUE: BufRead:buf_cb <- $r0
	cbz	r0, .LBB18_14
.Ltmp192:
.LBB18_5:                               @ =>This Loop Header: Depth=1
                                        @     Child Loop BB18_10 Depth 2
	@DEBUG_VALUE: BufRead:buf <- $r6
	@DEBUG_VALUE: BufRead:buf_cb <- $r0
	@DEBUG_VALUE: BufRead:p <- [DW_OP_plus_uconst 8] [$sp+0]
	@DEBUG_VALUE: BufRead:n <- $r7
	@DEBUG_VALUE: BufRead:buf_cb <- $r0
	.loc	5 498 32 is_stmt 1              @ C:/Users/shw26/AppData/Local/Arm/Packs/ARM/CMSIS-Driver/2.6.1/WiFi/ESP8266/BufList/BufList.c:498:32
	ldrh	r4, [r0, #8]
	.loc	5 498 17 is_stmt 0              @ C:/Users/shw26/AppData/Local/Arm/Packs/ARM/CMSIS-Driver/2.6.1/WiFi/ESP8266/BufList/BufList.c:498:17
	ldrh	r1, [r0, #10]
.Ltmp193:
	.loc	5 498 9                         @ C:/Users/shw26/AppData/Local/Arm/Packs/ARM/CMSIS-Driver/2.6.1/WiFi/ESP8266/BufList/BufList.c:498:9
	cmp	r1, r4
	bne	.LBB18_8
.Ltmp194:
@ %bb.6:                                @   in Loop: Header=BB18_5 Depth=1
	@DEBUG_VALUE: BufRead:n <- $r7
	@DEBUG_VALUE: BufRead:buf <- $r6
	@DEBUG_VALUE: BufRead:buf_cb <- $r0
	@DEBUG_VALUE: BufRead:p <- [DW_OP_plus_uconst 8] [$sp+0]
	.loc	5 500 26 is_stmt 1              @ C:/Users/shw26/AppData/Local/Arm/Packs/ARM/CMSIS-Driver/2.6.1/WiFi/ESP8266/BufList/BufList.c:500:26
	mov	r0, r2
.Ltmp195:
	.loc	5 0 26 is_stmt 0                @ C:/Users/shw26/AppData/Local/Arm/Packs/ARM/CMSIS-Driver/2.6.1/WiFi/ESP8266/BufList/BufList.c:0:26
	mov	r5, r2
	.loc	5 500 26                        @ C:/Users/shw26/AppData/Local/Arm/Packs/ARM/CMSIS-Driver/2.6.1/WiFi/ESP8266/BufList/BufList.c:500:26
	bl	Size
.Ltmp196:
	.loc	5 500 11                        @ C:/Users/shw26/AppData/Local/Arm/Packs/ARM/CMSIS-Driver/2.6.1/WiFi/ESP8266/BufList/BufList.c:500:11
	cmp	r4, r0
	bne	.LBB18_2
.Ltmp197:
@ %bb.7:                                @   in Loop: Header=BB18_5 Depth=1
	@DEBUG_VALUE: BufRead:n <- $r7
	@DEBUG_VALUE: BufRead:buf <- $r6
	@DEBUG_VALUE: BufRead:p <- [DW_OP_plus_uconst 8] [$sp+0]
	.loc	5 501 18 is_stmt 1              @ C:/Users/shw26/AppData/Local/Arm/Packs/ARM/CMSIS-Driver/2.6.1/WiFi/ESP8266/BufList/BufList.c:501:18
	mov	r0, r5
	bl	Free
.Ltmp198:
	@DEBUG_VALUE: BufRead:buf_cb <- $r0
	.loc	5 0 18 is_stmt 0                @ C:/Users/shw26/AppData/Local/Arm/Packs/ARM/CMSIS-Driver/2.6.1/WiFi/ESP8266/BufList/BufList.c:0:18
	b	.LBB18_3
.Ltmp199:
.LBB18_8:                               @   in Loop: Header=BB18_5 Depth=1
	@DEBUG_VALUE: BufRead:n <- $r7
	@DEBUG_VALUE: BufRead:buf <- $r6
	@DEBUG_VALUE: BufRead:buf_cb <- $r0
	@DEBUG_VALUE: BufRead:p <- [DW_OP_plus_uconst 8] [$sp+0]
	.loc	5 507 7 is_stmt 1               @ C:/Users/shw26/AppData/Local/Arm/Packs/ARM/CMSIS-Driver/2.6.1/WiFi/ESP8266/BufList/BufList.c:507:7
	cmp	r7, r5
	mov	r1, r7
	bhi	.LBB18_10
.Ltmp200:
@ %bb.9:                                @   in Loop: Header=BB18_5 Depth=1
	@DEBUG_VALUE: BufRead:n <- $r7
	@DEBUG_VALUE: BufRead:buf <- $r6
	@DEBUG_VALUE: BufRead:buf_cb <- $r0
	@DEBUG_VALUE: BufRead:p <- [DW_OP_plus_uconst 8] [$sp+0]
	mov	r1, r5
.Ltmp201:
.LBB18_10:                              @   Parent Loop BB18_5 Depth=1
                                        @ =>  This Inner Loop Header: Depth=2
	@DEBUG_VALUE: BufRead:n <- $r7
	@DEBUG_VALUE: BufRead:buf <- $r6
	@DEBUG_VALUE: BufRead:buf_cb <- $r0
	@DEBUG_VALUE: BufRead:p <- [DW_OP_plus_uconst 8] [$sp+0]
	@DEBUG_VALUE: BufRead:n <- $r7
	cmp	r1, r7
	beq	.LBB18_12
.Ltmp202:
@ %bb.11:                               @   in Loop: Header=BB18_10 Depth=2
	@DEBUG_VALUE: BufRead:n <- $r7
	@DEBUG_VALUE: BufRead:buf <- $r6
	@DEBUG_VALUE: BufRead:buf_cb <- $r0
	@DEBUG_VALUE: BufRead:p <- [DW_OP_plus_uconst 8] [$sp+0]
	.loc	5 508 44                        @ C:/Users/shw26/AppData/Local/Arm/Packs/ARM/CMSIS-Driver/2.6.1/WiFi/ESP8266/BufList/BufList.c:508:44
	ldrh	r2, [r0, #10]
	adds	r3, r2, #1
	strh	r3, [r0, #10]
	.loc	5 508 20 is_stmt 0              @ C:/Users/shw26/AppData/Local/Arm/Packs/ARM/CMSIS-Driver/2.6.1/WiFi/ESP8266/BufList/BufList.c:508:20
	adds	r2, r0, r2
	ldrb	r2, [r2, #12]
	.loc	5 508 18                        @ C:/Users/shw26/AppData/Local/Arm/Packs/ARM/CMSIS-Driver/2.6.1/WiFi/ESP8266/BufList/BufList.c:508:18
	strb	r2, [r6, r7]
	.loc	5 508 14                        @ C:/Users/shw26/AppData/Local/Arm/Packs/ARM/CMSIS-Driver/2.6.1/WiFi/ESP8266/BufList/BufList.c:508:14
	adds	r7, r7, #1
.Ltmp203:
	@DEBUG_VALUE: BufRead:n <- $r7
	.loc	5 510 36 is_stmt 1              @ C:/Users/shw26/AppData/Local/Arm/Packs/ARM/CMSIS-Driver/2.6.1/WiFi/ESP8266/BufList/BufList.c:510:36
	ldrh	r2, [r0, #8]
	.loc	5 510 21 is_stmt 0              @ C:/Users/shw26/AppData/Local/Arm/Packs/ARM/CMSIS-Driver/2.6.1/WiFi/ESP8266/BufList/BufList.c:510:21
	ldrh	r3, [r0, #10]
.Ltmp204:
	.loc	5 510 13                        @ C:/Users/shw26/AppData/Local/Arm/Packs/ARM/CMSIS-Driver/2.6.1/WiFi/ESP8266/BufList/BufList.c:510:13
	cmp	r3, r2
	bne	.LBB18_10
.Ltmp205:
.LBB18_12:                              @   in Loop: Header=BB18_5 Depth=1
	@DEBUG_VALUE: BufRead:n <- $r7
	@DEBUG_VALUE: BufRead:buf <- $r6
	@DEBUG_VALUE: BufRead:buf_cb <- $r0
	@DEBUG_VALUE: BufRead:p <- [DW_OP_plus_uconst 8] [$sp+0]
	@DEBUG_VALUE: BufRead:n <- $r7
	.loc	5 516 11 is_stmt 1              @ C:/Users/shw26/AppData/Local/Arm/Packs/ARM/CMSIS-Driver/2.6.1/WiFi/ESP8266/BufList/BufList.c:516:11
	cmp	r7, r5
	ldr	r2, [sp, #8]                    @ 4-byte Reload
	bne	.LBB18_4
	b	.LBB18_14
.Ltmp206:
.LBB18_13:
	@DEBUG_VALUE: BufRead:buf <- $r6
	@DEBUG_VALUE: BufRead:num <- $r5
	@DEBUG_VALUE: BufRead:buf_cb <- $r0
	@DEBUG_VALUE: BufRead:p <- [DW_OP_plus_uconst 8] [$sp+0]
	@DEBUG_VALUE: BufRead:n <- 0
	.loc	5 0 11 is_stmt 0                @ C:/Users/shw26/AppData/Local/Arm/Packs/ARM/CMSIS-Driver/2.6.1/WiFi/ESP8266/BufList/BufList.c:0:11
	ldr	r2, [sp, #8]                    @ 4-byte Reload
.Ltmp207:
.LBB18_14:
	@DEBUG_VALUE: BufRead:buf <- $r6
	@DEBUG_VALUE: BufRead:buf_cb <- $r0
	@DEBUG_VALUE: BufRead:p <- [DW_OP_plus_uconst 8] [$sp+0]
	@DEBUG_VALUE: BufRead:n <- $r7
	.loc	5 522 3 is_stmt 1               @ C:/Users/shw26/AppData/Local/Arm/Packs/ARM/CMSIS-Driver/2.6.1/WiFi/ESP8266/BufList/BufList.c:522:3
	mov	r0, r2
.Ltmp208:
	bl	Unlock
	.loc	5 524 3                         @ C:/Users/shw26/AppData/Local/Arm/Packs/ARM/CMSIS-Driver/2.6.1/WiFi/ESP8266/BufList/BufList.c:524:3
	mov	r0, r7
	add	sp, #12
.Ltmp209:
	pop	{r4, r5, r6, r7, pc}
.Ltmp210:
.Lfunc_end18:
	.size	BufRead, .Lfunc_end18-BufRead
	.cfi_endproc
	.cantunwind
	.fnend
                                        @ -- End function
	.section	.text.BufWrite,"ax",%progbits
	.hidden	BufWrite                        @ -- Begin function BufWrite
	.globl	BufWrite
	.p2align	1
	.type	BufWrite,%function
	.code	16                              @ @BufWrite
	.thumb_func
BufWrite:
.Lfunc_begin19:
	.loc	5 531 0                         @ C:/Users/shw26/AppData/Local/Arm/Packs/ARM/CMSIS-Driver/2.6.1/WiFi/ESP8266/BufList/BufList.c:531:0
	.fnstart
	.cfi_startproc
@ %bb.0:
	@DEBUG_VALUE: BufWrite:buf <- $r0
	@DEBUG_VALUE: BufWrite:num <- $r1
	@DEBUG_VALUE: BufWrite:p <- $r2
	.save	{r4, r5, r6, r7, lr}
	push	{r4, r5, r6, r7, lr}
	.cfi_def_cfa_offset 20
	.cfi_offset lr, -4
	.cfi_offset r7, -8
	.cfi_offset r6, -12
	.cfi_offset r5, -16
	.cfi_offset r4, -20
	.pad	#12
	sub	sp, #12
	.cfi_def_cfa_offset 32
	mov	r5, r2
	str	r1, [sp, #8]                    @ 4-byte Spill
	mov	r6, r0
.Ltmp211:
	@DEBUG_VALUE: BufWrite:p <- $r5
	@DEBUG_VALUE: BufWrite:num <- [DW_OP_plus_uconst 8] [$sp+0]
	@DEBUG_VALUE: BufWrite:buf <- $r6
	.loc	5 536 3 prologue_end            @ C:/Users/shw26/AppData/Local/Arm/Packs/ARM/CMSIS-Driver/2.6.1/WiFi/ESP8266/BufList/BufList.c:536:3
	mov	r0, r2
	bl	Lock
	.loc	5 538 10                        @ C:/Users/shw26/AppData/Local/Arm/Packs/ARM/CMSIS-Driver/2.6.1/WiFi/ESP8266/BufList/BufList.c:538:10
	mov	r0, r5
	bl	Size
	mov	r4, r0
.Ltmp212:
	@DEBUG_VALUE: BufWrite:n <- 0
	@DEBUG_VALUE: BufWrite:maxi <- [DW_OP_LLVM_convert 16 7, DW_OP_LLVM_convert 32 7, DW_OP_stack_value] undef
	.loc	5 0 10 is_stmt 0                @ C:/Users/shw26/AppData/Local/Arm/Packs/ARM/CMSIS-Driver/2.6.1/WiFi/ESP8266/BufList/BufList.c:0:10
	str	r5, [sp, #4]                    @ 4-byte Spill
.Ltmp213:
	@DEBUG_VALUE: BufWrite:p <- [DW_OP_plus_uconst 4] [$sp+0]
	.loc	5 541 23 is_stmt 1              @ C:/Users/shw26/AppData/Local/Arm/Packs/ARM/CMSIS-Driver/2.6.1/WiFi/ESP8266/BufList/BufList.c:541:23
	mov	r0, r5
	bl	ListPeekTail
.Ltmp214:
	@DEBUG_VALUE: BufWrite:buf_cb <- $r0
	.loc	5 0 23 is_stmt 0                @ C:/Users/shw26/AppData/Local/Arm/Packs/ARM/CMSIS-Driver/2.6.1/WiFi/ESP8266/BufList/BufList.c:0:23
	movs	r7, #0
	b	.LBB19_3
.Ltmp215:
.LBB19_1:                               @   in Loop: Header=BB19_3 Depth=1
	@DEBUG_VALUE: BufWrite:n <- $r7
	@DEBUG_VALUE: BufWrite:buf <- $r6
	@DEBUG_VALUE: BufWrite:buf_cb <- $r0
	@DEBUG_VALUE: BufWrite:p <- [DW_OP_plus_uconst 4] [$sp+0]
	@DEBUG_VALUE: BufWrite:num <- [DW_OP_plus_uconst 8] [$sp+0]
	@DEBUG_VALUE: BufWrite:n <- $r7
	.loc	5 560 11 is_stmt 1              @ C:/Users/shw26/AppData/Local/Arm/Packs/ARM/CMSIS-Driver/2.6.1/WiFi/ESP8266/BufList/BufList.c:560:11
	ldr	r1, [sp, #8]                    @ 4-byte Reload
	cmp	r7, r1
	beq	.LBB19_11
.Ltmp216:
.LBB19_2:                               @   in Loop: Header=BB19_3 Depth=1
	@DEBUG_VALUE: BufWrite:n <- $r7
	@DEBUG_VALUE: BufWrite:buf <- $r6
	@DEBUG_VALUE: BufWrite:buf_cb <- $r0
	@DEBUG_VALUE: BufWrite:p <- [DW_OP_plus_uconst 4] [$sp+0]
	@DEBUG_VALUE: BufWrite:num <- [DW_OP_plus_uconst 8] [$sp+0]
	@DEBUG_VALUE: BufWrite:n <- $r7
	.loc	5 565 3                         @ C:/Users/shw26/AppData/Local/Arm/Packs/ARM/CMSIS-Driver/2.6.1/WiFi/ESP8266/BufList/BufList.c:565:3
	cbz	r0, .LBB19_11
.Ltmp217:
.LBB19_3:                               @ =>This Loop Header: Depth=1
                                        @     Child Loop BB19_9 Depth 2
	@DEBUG_VALUE: BufWrite:buf <- $r6
	@DEBUG_VALUE: BufWrite:buf_cb <- $r0
	@DEBUG_VALUE: BufWrite:p <- [DW_OP_plus_uconst 4] [$sp+0]
	@DEBUG_VALUE: BufWrite:num <- [DW_OP_plus_uconst 8] [$sp+0]
	@DEBUG_VALUE: BufWrite:n <- $r7
	@DEBUG_VALUE: BufWrite:buf_cb <- $r0
	.loc	5 544 26                        @ C:/Users/shw26/AppData/Local/Arm/Packs/ARM/CMSIS-Driver/2.6.1/WiFi/ESP8266/BufList/BufList.c:544:26
	cbz	r0, .LBB19_5
.Ltmp218:
@ %bb.4:                                @   in Loop: Header=BB19_3 Depth=1
	@DEBUG_VALUE: BufWrite:n <- $r7
	@DEBUG_VALUE: BufWrite:buf <- $r6
	@DEBUG_VALUE: BufWrite:buf_cb <- $r0
	@DEBUG_VALUE: BufWrite:p <- [DW_OP_plus_uconst 4] [$sp+0]
	@DEBUG_VALUE: BufWrite:num <- [DW_OP_plus_uconst 8] [$sp+0]
	.loc	5 544 38 is_stmt 0              @ C:/Users/shw26/AppData/Local/Arm/Packs/ARM/CMSIS-Driver/2.6.1/WiFi/ESP8266/BufList/BufList.c:544:38
	ldrh	r1, [r0, #8]
.Ltmp219:
	.loc	5 544 9                         @ C:/Users/shw26/AppData/Local/Arm/Packs/ARM/CMSIS-Driver/2.6.1/WiFi/ESP8266/BufList/BufList.c:544:9
	cmp	r1, r4
	bne	.LBB19_6
.Ltmp220:
.LBB19_5:                               @   in Loop: Header=BB19_3 Depth=1
	@DEBUG_VALUE: BufWrite:n <- $r7
	@DEBUG_VALUE: BufWrite:buf <- $r6
	@DEBUG_VALUE: BufWrite:buf_cb <- $r0
	@DEBUG_VALUE: BufWrite:p <- [DW_OP_plus_uconst 4] [$sp+0]
	@DEBUG_VALUE: BufWrite:num <- [DW_OP_plus_uconst 8] [$sp+0]
	.loc	5 546 16 is_stmt 1              @ C:/Users/shw26/AppData/Local/Arm/Packs/ARM/CMSIS-Driver/2.6.1/WiFi/ESP8266/BufList/BufList.c:546:16
	ldr	r0, [sp, #4]                    @ 4-byte Reload
.Ltmp221:
	bl	Alloc
.Ltmp222:
	@DEBUG_VALUE: BufWrite:buf_cb <- $r0
.LBB19_6:                               @   in Loop: Header=BB19_3 Depth=1
	@DEBUG_VALUE: BufWrite:n <- $r7
	@DEBUG_VALUE: BufWrite:buf <- $r6
	@DEBUG_VALUE: BufWrite:buf_cb <- $r0
	@DEBUG_VALUE: BufWrite:p <- [DW_OP_plus_uconst 4] [$sp+0]
	@DEBUG_VALUE: BufWrite:num <- [DW_OP_plus_uconst 8] [$sp+0]
	@DEBUG_VALUE: BufWrite:buf_cb <- $r0
	.loc	5 549 9                         @ C:/Users/shw26/AppData/Local/Arm/Packs/ARM/CMSIS-Driver/2.6.1/WiFi/ESP8266/BufList/BufList.c:549:9
	cmp	r0, #0
	beq	.LBB19_2
.Ltmp223:
@ %bb.7:                                @   in Loop: Header=BB19_3 Depth=1
	@DEBUG_VALUE: BufWrite:n <- $r7
	@DEBUG_VALUE: BufWrite:buf <- $r6
	@DEBUG_VALUE: BufWrite:buf_cb <- $r0
	@DEBUG_VALUE: BufWrite:p <- [DW_OP_plus_uconst 4] [$sp+0]
	@DEBUG_VALUE: BufWrite:num <- [DW_OP_plus_uconst 8] [$sp+0]
	.loc	5 551 7                         @ C:/Users/shw26/AppData/Local/Arm/Packs/ARM/CMSIS-Driver/2.6.1/WiFi/ESP8266/BufList/BufList.c:551:7
	ldr	r1, [sp, #8]                    @ 4-byte Reload
	cmp	r7, r1
	mov	r1, r7
	bhi	.LBB19_9
.Ltmp224:
@ %bb.8:                                @   in Loop: Header=BB19_3 Depth=1
	@DEBUG_VALUE: BufWrite:n <- $r7
	@DEBUG_VALUE: BufWrite:buf <- $r6
	@DEBUG_VALUE: BufWrite:buf_cb <- $r0
	@DEBUG_VALUE: BufWrite:p <- [DW_OP_plus_uconst 4] [$sp+0]
	@DEBUG_VALUE: BufWrite:num <- [DW_OP_plus_uconst 8] [$sp+0]
	ldr	r1, [sp, #8]                    @ 4-byte Reload
.Ltmp225:
.LBB19_9:                               @   Parent Loop BB19_3 Depth=1
                                        @ =>  This Inner Loop Header: Depth=2
	@DEBUG_VALUE: BufWrite:n <- $r7
	@DEBUG_VALUE: BufWrite:buf <- $r6
	@DEBUG_VALUE: BufWrite:buf_cb <- $r0
	@DEBUG_VALUE: BufWrite:p <- [DW_OP_plus_uconst 4] [$sp+0]
	@DEBUG_VALUE: BufWrite:num <- [DW_OP_plus_uconst 8] [$sp+0]
	@DEBUG_VALUE: BufWrite:n <- $r7
	cmp	r1, r7
	beq	.LBB19_1
.Ltmp226:
@ %bb.10:                               @   in Loop: Header=BB19_9 Depth=2
	@DEBUG_VALUE: BufWrite:n <- $r7
	@DEBUG_VALUE: BufWrite:buf <- $r6
	@DEBUG_VALUE: BufWrite:buf_cb <- $r0
	@DEBUG_VALUE: BufWrite:p <- [DW_OP_plus_uconst 4] [$sp+0]
	@DEBUG_VALUE: BufWrite:num <- [DW_OP_plus_uconst 8] [$sp+0]
	.loc	5 552 39                        @ C:/Users/shw26/AppData/Local/Arm/Packs/ARM/CMSIS-Driver/2.6.1/WiFi/ESP8266/BufList/BufList.c:552:39
	ldrb	r2, [r6, r7]
	.loc	5 552 33 is_stmt 0              @ C:/Users/shw26/AppData/Local/Arm/Packs/ARM/CMSIS-Driver/2.6.1/WiFi/ESP8266/BufList/BufList.c:552:33
	ldrh	r3, [r0, #8]
	.loc	5 552 9                         @ C:/Users/shw26/AppData/Local/Arm/Packs/ARM/CMSIS-Driver/2.6.1/WiFi/ESP8266/BufList/BufList.c:552:9
	adds	r5, r0, r3
	.loc	5 552 37                        @ C:/Users/shw26/AppData/Local/Arm/Packs/ARM/CMSIS-Driver/2.6.1/WiFi/ESP8266/BufList/BufList.c:552:37
	strb	r2, [r5, #12]
	.loc	5 552 33                        @ C:/Users/shw26/AppData/Local/Arm/Packs/ARM/CMSIS-Driver/2.6.1/WiFi/ESP8266/BufList/BufList.c:552:33
	adds	r2, r3, #1
	strh	r2, [r0, #8]
	.loc	5 552 44                        @ C:/Users/shw26/AppData/Local/Arm/Packs/ARM/CMSIS-Driver/2.6.1/WiFi/ESP8266/BufList/BufList.c:552:44
	adds	r7, r7, #1
.Ltmp227:
	@DEBUG_VALUE: BufWrite:n <- $r7
	.loc	5 552 33                        @ C:/Users/shw26/AppData/Local/Arm/Packs/ARM/CMSIS-Driver/2.6.1/WiFi/ESP8266/BufList/BufList.c:552:33
	uxth	r2, r2
	.loc	5 554 13 is_stmt 1              @ C:/Users/shw26/AppData/Local/Arm/Packs/ARM/CMSIS-Driver/2.6.1/WiFi/ESP8266/BufList/BufList.c:554:13
	cmp	r2, r4
	bne	.LBB19_9
	b	.LBB19_1
.Ltmp228:
.LBB19_11:
	@DEBUG_VALUE: BufWrite:n <- $r7
	@DEBUG_VALUE: BufWrite:buf <- $r6
	@DEBUG_VALUE: BufWrite:buf_cb <- $r0
	@DEBUG_VALUE: BufWrite:p <- [DW_OP_plus_uconst 4] [$sp+0]
	@DEBUG_VALUE: BufWrite:num <- [DW_OP_plus_uconst 8] [$sp+0]
	@DEBUG_VALUE: BufWrite:n <- $r7
	.loc	5 567 3                         @ C:/Users/shw26/AppData/Local/Arm/Packs/ARM/CMSIS-Driver/2.6.1/WiFi/ESP8266/BufList/BufList.c:567:3
	ldr	r0, [sp, #4]                    @ 4-byte Reload
.Ltmp229:
	bl	Unlock
	.loc	5 569 3                         @ C:/Users/shw26/AppData/Local/Arm/Packs/ARM/CMSIS-Driver/2.6.1/WiFi/ESP8266/BufList/BufList.c:569:3
	mov	r0, r7
	add	sp, #12
.Ltmp230:
	pop	{r4, r5, r6, r7, pc}
.Ltmp231:
.Lfunc_end19:
	.size	BufWrite, .Lfunc_end19-BufWrite
	.cfi_endproc
	.cantunwind
	.fnend
                                        @ -- End function
	.section	.text.BufCopy,"ax",%progbits
	.hidden	BufCopy                         @ -- Begin function BufCopy
	.globl	BufCopy
	.p2align	1
	.type	BufCopy,%function
	.code	16                              @ @BufCopy
	.thumb_func
BufCopy:
.Lfunc_begin20:
	.loc	5 576 0                         @ C:/Users/shw26/AppData/Local/Arm/Packs/ARM/CMSIS-Driver/2.6.1/WiFi/ESP8266/BufList/BufList.c:576:0
	.fnstart
	.cfi_startproc
@ %bb.0:
	@DEBUG_VALUE: BufCopy:dst <- $r0
	@DEBUG_VALUE: BufCopy:src <- $r1
	@DEBUG_VALUE: BufCopy:num <- $r2
	.save	{r4, r5, r6, r7, lr}
	push	{r4, r5, r6, r7, lr}
	.cfi_def_cfa_offset 20
	.cfi_offset lr, -4
	.cfi_offset r7, -8
	.cfi_offset r6, -12
	.cfi_offset r5, -16
	.cfi_offset r4, -20
	.pad	#36
	sub	sp, #36
	.cfi_def_cfa_offset 56
	mov	r7, r2
	mov	r6, r1
	mov	r4, r0
.Ltmp232:
	@DEBUG_VALUE: BufCopy:num <- $r7
	@DEBUG_VALUE: BufCopy:src <- $r6
	@DEBUG_VALUE: BufCopy:dst <- $r4
	.loc	5 582 3 prologue_end            @ C:/Users/shw26/AppData/Local/Arm/Packs/ARM/CMSIS-Driver/2.6.1/WiFi/ESP8266/BufList/BufList.c:582:3
	bl	Lock
	.loc	5 583 3                         @ C:/Users/shw26/AppData/Local/Arm/Packs/ARM/CMSIS-Driver/2.6.1/WiFi/ESP8266/BufList/BufList.c:583:3
	mov	r0, r6
	bl	Lock
.Ltmp233:
	@DEBUG_VALUE: BufCopy:i <- 0
	.loc	5 586 10                        @ C:/Users/shw26/AppData/Local/Arm/Packs/ARM/CMSIS-Driver/2.6.1/WiFi/ESP8266/BufList/BufList.c:586:10
	mov	r0, r4
	bl	Size
	str	r0, [sp, #24]                   @ 4-byte Spill
.Ltmp234:
	@DEBUG_VALUE: BufCopy:maxi <- [DW_OP_plus_uconst 24] [$sp+0]
	.loc	5 0 10 is_stmt 0                @ C:/Users/shw26/AppData/Local/Arm/Packs/ARM/CMSIS-Driver/2.6.1/WiFi/ESP8266/BufList/BufList.c:0:10
	str	r4, [sp, #8]                    @ 4-byte Spill
.Ltmp235:
	@DEBUG_VALUE: BufCopy:dst <- [DW_OP_plus_uconst 8] [$sp+0]
	.loc	5 588 23 is_stmt 1              @ C:/Users/shw26/AppData/Local/Arm/Packs/ARM/CMSIS-Driver/2.6.1/WiFi/ESP8266/BufList/BufList.c:588:23
	mov	r0, r4
	bl	ListPeekTail
	mov	r5, r0
.Ltmp236:
	@DEBUG_VALUE: BufCopy:dst_cb <- $r5
	.loc	5 589 23                        @ C:/Users/shw26/AppData/Local/Arm/Packs/ARM/CMSIS-Driver/2.6.1/WiFi/ESP8266/BufList/BufList.c:589:23
	mov	r0, r6
	bl	ListPeekHead
	mov	r4, r0
.Ltmp237:
	@DEBUG_VALUE: BufCopy:src_cb <- $r4
	.loc	5 0 23 is_stmt 0                @ C:/Users/shw26/AppData/Local/Arm/Packs/ARM/CMSIS-Driver/2.6.1/WiFi/ESP8266/BufList/BufList.c:0:23
	movs	r0, #0
	.loc	5 591 3 is_stmt 1               @ C:/Users/shw26/AppData/Local/Arm/Packs/ARM/CMSIS-Driver/2.6.1/WiFi/ESP8266/BufList/BufList.c:591:3
	str	r0, [sp, #32]                   @ 4-byte Spill
	cmp	r4, #0
	beq	.LBB20_21
.Ltmp238:
@ %bb.1:
	@DEBUG_VALUE: BufCopy:num <- $r7
	@DEBUG_VALUE: BufCopy:src <- $r6
	@DEBUG_VALUE: BufCopy:dst_cb <- $r5
	@DEBUG_VALUE: BufCopy:src_cb <- $r4
	@DEBUG_VALUE: BufCopy:dst <- [DW_OP_plus_uconst 8] [$sp+0]
	@DEBUG_VALUE: BufCopy:maxi <- [DW_OP_plus_uconst 24] [$sp+0]
	@DEBUG_VALUE: BufCopy:i <- 0
	cmp	r7, #0
	beq	.LBB20_21
.Ltmp239:
@ %bb.2:
	@DEBUG_VALUE: BufCopy:num <- $r7
	@DEBUG_VALUE: BufCopy:src <- $r6
	@DEBUG_VALUE: BufCopy:dst_cb <- $r5
	@DEBUG_VALUE: BufCopy:src_cb <- $r4
	@DEBUG_VALUE: BufCopy:dst <- [DW_OP_plus_uconst 8] [$sp+0]
	@DEBUG_VALUE: BufCopy:maxi <- [DW_OP_plus_uconst 24] [$sp+0]
	@DEBUG_VALUE: BufCopy:i <- 0
	.loc	5 0 3 is_stmt 0                 @ C:/Users/shw26/AppData/Local/Arm/Packs/ARM/CMSIS-Driver/2.6.1/WiFi/ESP8266/BufList/BufList.c:0:3
	movs	r0, #0
	@DEBUG_VALUE: BufCopy:src_cb <- $r4
	@DEBUG_VALUE: BufCopy:dst_cb <- $r5
	str	r0, [sp, #32]                   @ 4-byte Spill
	str	r6, [sp, #4]                    @ 4-byte Spill
.Ltmp240:
.LBB20_3:                               @ =>This Loop Header: Depth=1
                                        @     Child Loop BB20_9 Depth 2
	@DEBUG_VALUE: BufCopy:dst_cb <- $r5
	@DEBUG_VALUE: BufCopy:src_cb <- $r4
	@DEBUG_VALUE: BufCopy:dst <- [DW_OP_plus_uconst 8] [$sp+0]
	@DEBUG_VALUE: BufCopy:maxi <- [DW_OP_plus_uconst 24] [$sp+0]
	@DEBUG_VALUE: BufCopy:i <- [DW_OP_plus_uconst 32] [$sp+0]
	@DEBUG_VALUE: BufCopy:dst_cb <- $r5
	@DEBUG_VALUE: BufCopy:src_cb <- $r4
	.loc	5 597 9 is_stmt 1               @ C:/Users/shw26/AppData/Local/Arm/Packs/ARM/CMSIS-Driver/2.6.1/WiFi/ESP8266/BufList/BufList.c:597:9
	cbnz	r5, .LBB20_5
.Ltmp241:
@ %bb.4:                                @   in Loop: Header=BB20_3 Depth=1
	@DEBUG_VALUE: BufCopy:dst_cb <- $r5
	@DEBUG_VALUE: BufCopy:src_cb <- $r4
	@DEBUG_VALUE: BufCopy:i <- [DW_OP_plus_uconst 32] [$sp+0]
	@DEBUG_VALUE: BufCopy:dst <- [DW_OP_plus_uconst 8] [$sp+0]
	@DEBUG_VALUE: BufCopy:maxi <- [DW_OP_plus_uconst 24] [$sp+0]
	.loc	5 599 16                        @ C:/Users/shw26/AppData/Local/Arm/Packs/ARM/CMSIS-Driver/2.6.1/WiFi/ESP8266/BufList/BufList.c:599:16
	ldr	r0, [sp, #8]                    @ 4-byte Reload
	bl	Alloc
	mov	r5, r0
.Ltmp242:
	@DEBUG_VALUE: BufCopy:dst_cb <- $r5
	.loc	5 601 11                        @ C:/Users/shw26/AppData/Local/Arm/Packs/ARM/CMSIS-Driver/2.6.1/WiFi/ESP8266/BufList/BufList.c:601:11
	cmp	r0, #0
	beq	.LBB20_21
.Ltmp243:
.LBB20_5:                               @   in Loop: Header=BB20_3 Depth=1
	@DEBUG_VALUE: BufCopy:dst_cb <- $r5
	@DEBUG_VALUE: BufCopy:src_cb <- $r4
	@DEBUG_VALUE: BufCopy:i <- [DW_OP_plus_uconst 32] [$sp+0]
	@DEBUG_VALUE: BufCopy:dst <- [DW_OP_plus_uconst 8] [$sp+0]
	@DEBUG_VALUE: BufCopy:maxi <- [DW_OP_plus_uconst 24] [$sp+0]
	@DEBUG_VALUE: BufCopy:dst_cb <- $r5
	.loc	5 607 34                        @ C:/Users/shw26/AppData/Local/Arm/Packs/ARM/CMSIS-Driver/2.6.1/WiFi/ESP8266/BufList/BufList.c:607:34
	ldrh	r2, [r4, #10]
	.loc	5 607 20 is_stmt 0              @ C:/Users/shw26/AppData/Local/Arm/Packs/ARM/CMSIS-Driver/2.6.1/WiFi/ESP8266/BufList/BufList.c:607:20
	ldrh	r0, [r4, #8]
	str	r0, [sp, #20]                   @ 4-byte Spill
	.loc	5 607 24                        @ C:/Users/shw26/AppData/Local/Arm/Packs/ARM/CMSIS-Driver/2.6.1/WiFi/ESP8266/BufList/BufList.c:607:24
	subs	r3, r0, r2
.Ltmp244:
	@DEBUG_VALUE: BufCopy:sz_s <- $r3
	.loc	5 606 27 is_stmt 1              @ C:/Users/shw26/AppData/Local/Arm/Packs/ARM/CMSIS-Driver/2.6.1/WiFi/ESP8266/BufList/BufList.c:606:27
	ldrh	r1, [r5, #8]
	.loc	5 606 17 is_stmt 0              @ C:/Users/shw26/AppData/Local/Arm/Packs/ARM/CMSIS-Driver/2.6.1/WiFi/ESP8266/BufList/BufList.c:606:17
	ldr	r0, [sp, #24]                   @ 4-byte Reload
	str	r1, [sp, #16]                   @ 4-byte Spill
	subs	r0, r0, r1
.Ltmp245:
	@DEBUG_VALUE: BufCopy:sz_d <- $r0
	@DEBUG_VALUE: BufCopy:i <- [DW_OP_plus_uconst 32] [$sp+0]
	.loc	5 609 23 is_stmt 1              @ C:/Users/shw26/AppData/Local/Arm/Packs/ARM/CMSIS-Driver/2.6.1/WiFi/ESP8266/BufList/BufList.c:609:23
	beq	.LBB20_13
.Ltmp246:
@ %bb.6:                                @   in Loop: Header=BB20_3 Depth=1
	@DEBUG_VALUE: BufCopy:dst_cb <- $r5
	@DEBUG_VALUE: BufCopy:src_cb <- $r4
	@DEBUG_VALUE: BufCopy:sz_s <- $r3
	@DEBUG_VALUE: BufCopy:sz_d <- $r0
	@DEBUG_VALUE: BufCopy:i <- [DW_OP_plus_uconst 32] [$sp+0]
	@DEBUG_VALUE: BufCopy:dst <- [DW_OP_plus_uconst 8] [$sp+0]
	@DEBUG_VALUE: BufCopy:maxi <- [DW_OP_plus_uconst 24] [$sp+0]
	cbz	r3, .LBB20_13
.Ltmp247:
@ %bb.7:                                @   in Loop: Header=BB20_3 Depth=1
	@DEBUG_VALUE: BufCopy:dst_cb <- $r5
	@DEBUG_VALUE: BufCopy:src_cb <- $r4
	@DEBUG_VALUE: BufCopy:sz_s <- $r3
	@DEBUG_VALUE: BufCopy:sz_d <- $r0
	@DEBUG_VALUE: BufCopy:i <- [DW_OP_plus_uconst 32] [$sp+0]
	@DEBUG_VALUE: BufCopy:dst <- [DW_OP_plus_uconst 8] [$sp+0]
	@DEBUG_VALUE: BufCopy:maxi <- [DW_OP_plus_uconst 24] [$sp+0]
	ldr	r1, [sp, #32]                   @ 4-byte Reload
	cmp	r1, r7
	bhs	.LBB20_13
.Ltmp248:
@ %bb.8:                                @   in Loop: Header=BB20_3 Depth=1
	@DEBUG_VALUE: BufCopy:dst_cb <- $r5
	@DEBUG_VALUE: BufCopy:src_cb <- $r4
	@DEBUG_VALUE: BufCopy:sz_s <- $r3
	@DEBUG_VALUE: BufCopy:sz_d <- $r0
	@DEBUG_VALUE: BufCopy:i <- [DW_OP_plus_uconst 32] [$sp+0]
	@DEBUG_VALUE: BufCopy:dst <- [DW_OP_plus_uconst 8] [$sp+0]
	@DEBUG_VALUE: BufCopy:maxi <- [DW_OP_plus_uconst 24] [$sp+0]
	.loc	5 609 5 is_stmt 0               @ C:/Users/shw26/AppData/Local/Arm/Packs/ARM/CMSIS-Driver/2.6.1/WiFi/ESP8266/BufList/BufList.c:609:5
	ldr	r0, [sp, #16]                   @ 4-byte Reload
.Ltmp249:
	mvns	r0, r0
	ldr	r1, [sp, #24]                   @ 4-byte Reload
	adds	r0, r0, r1
	str	r0, [sp, #28]                   @ 4-byte Spill
	str	r2, [sp, #12]                   @ 4-byte Spill
	mvns	r1, r2
	ldr	r0, [sp, #20]                   @ 4-byte Reload
	adds	r3, r1, r0
.Ltmp250:
	.loc	5 0 5                           @ C:/Users/shw26/AppData/Local/Arm/Packs/ARM/CMSIS-Driver/2.6.1/WiFi/ESP8266/BufList/BufList.c:0:5
	movs	r1, #0
.Ltmp251:
.LBB20_9:                               @   Parent Loop BB20_3 Depth=1
                                        @ =>  This Inner Loop Header: Depth=2
	@DEBUG_VALUE: BufCopy:dst_cb <- $r5
	@DEBUG_VALUE: BufCopy:src_cb <- $r4
	@DEBUG_VALUE: BufCopy:dst <- [DW_OP_plus_uconst 8] [$sp+0]
	@DEBUG_VALUE: BufCopy:maxi <- [DW_OP_plus_uconst 24] [$sp+0]
	@DEBUG_VALUE: BufCopy:i <- undef
	@DEBUG_VALUE: BufCopy:sz_s <- undef
	@DEBUG_VALUE: BufCopy:sz_d <- undef
	.loc	5 610 61 is_stmt 1              @ C:/Users/shw26/AppData/Local/Arm/Packs/ARM/CMSIS-Driver/2.6.1/WiFi/ESP8266/BufList/BufList.c:610:61
	ldrh	r2, [r4, #10]
	adds	r6, r2, #1
	strh	r6, [r4, #10]
	.loc	5 610 37 is_stmt 0              @ C:/Users/shw26/AppData/Local/Arm/Packs/ARM/CMSIS-Driver/2.6.1/WiFi/ESP8266/BufList/BufList.c:610:37
	adds	r2, r4, r2
	ldrb	r2, [r2, #12]
	.loc	5 610 31                        @ C:/Users/shw26/AppData/Local/Arm/Packs/ARM/CMSIS-Driver/2.6.1/WiFi/ESP8266/BufList/BufList.c:610:31
	ldrh	r6, [r5, #8]
	mov	r0, r7
	adds	r7, r6, #1
	strh	r7, [r5, #8]
	mov	r7, r0
	.loc	5 610 7                         @ C:/Users/shw26/AppData/Local/Arm/Packs/ARM/CMSIS-Driver/2.6.1/WiFi/ESP8266/BufList/BufList.c:610:7
	adds	r6, r5, r6
	.loc	5 610 35                        @ C:/Users/shw26/AppData/Local/Arm/Packs/ARM/CMSIS-Driver/2.6.1/WiFi/ESP8266/BufList/BufList.c:610:35
	strb	r2, [r6, #12]
.Ltmp252:
	@DEBUG_VALUE: BufCopy:sz_d <- [DW_OP_constu 1, DW_OP_minus, DW_OP_stack_value] undef
	@DEBUG_VALUE: BufCopy:sz_s <- [DW_OP_constu 1, DW_OP_minus, DW_OP_stack_value] undef
	@DEBUG_VALUE: BufCopy:i <- [DW_OP_plus_uconst 1, DW_OP_stack_value] undef
	.loc	5 609 23 is_stmt 1              @ C:/Users/shw26/AppData/Local/Arm/Packs/ARM/CMSIS-Driver/2.6.1/WiFi/ESP8266/BufList/BufList.c:609:23
	adds	r2, r1, #1
	ldr	r0, [sp, #28]                   @ 4-byte Reload
	cmp	r0, r1
	beq	.LBB20_12
.Ltmp253:
@ %bb.10:                               @   in Loop: Header=BB20_9 Depth=2
	@DEBUG_VALUE: BufCopy:dst_cb <- $r5
	@DEBUG_VALUE: BufCopy:src_cb <- $r4
	@DEBUG_VALUE: BufCopy:dst <- [DW_OP_plus_uconst 8] [$sp+0]
	@DEBUG_VALUE: BufCopy:maxi <- [DW_OP_plus_uconst 24] [$sp+0]
	cmp	r3, r1
	beq	.LBB20_12
.Ltmp254:
@ %bb.11:                               @   in Loop: Header=BB20_9 Depth=2
	@DEBUG_VALUE: BufCopy:dst_cb <- $r5
	@DEBUG_VALUE: BufCopy:src_cb <- $r4
	@DEBUG_VALUE: BufCopy:dst <- [DW_OP_plus_uconst 8] [$sp+0]
	@DEBUG_VALUE: BufCopy:maxi <- [DW_OP_plus_uconst 24] [$sp+0]
	.loc	5 0 0 is_stmt 0                 @ C:/Users/shw26/AppData/Local/Arm/Packs/ARM/CMSIS-Driver/2.6.1/WiFi/ESP8266/BufList/BufList.c:0:0
	ldr	r0, [sp, #32]                   @ 4-byte Reload
	adds	r1, r0, r1
	adds	r1, r1, #1
	.loc	5 609 23                        @ C:/Users/shw26/AppData/Local/Arm/Packs/ARM/CMSIS-Driver/2.6.1/WiFi/ESP8266/BufList/BufList.c:609:23
	cmp	r1, r7
	mov	r1, r2
	blo	.LBB20_9
.Ltmp255:
.LBB20_12:                              @   in Loop: Header=BB20_3 Depth=1
	@DEBUG_VALUE: BufCopy:dst_cb <- $r5
	@DEBUG_VALUE: BufCopy:src_cb <- $r4
	@DEBUG_VALUE: BufCopy:dst <- [DW_OP_plus_uconst 8] [$sp+0]
	@DEBUG_VALUE: BufCopy:maxi <- [DW_OP_plus_uconst 24] [$sp+0]
	.loc	5 620 14 is_stmt 1              @ C:/Users/shw26/AppData/Local/Arm/Packs/ARM/CMSIS-Driver/2.6.1/WiFi/ESP8266/BufList/BufList.c:620:14
	ldr	r0, [sp, #32]                   @ 4-byte Reload
	adds	r0, r0, r2
	str	r0, [sp, #32]                   @ 4-byte Spill
	ldr	r0, [sp, #24]                   @ 4-byte Reload
	ldr	r1, [sp, #16]                   @ 4-byte Reload
	subs	r0, r0, r1
	subs	r0, r0, r2
	ldr	r1, [sp, #12]                   @ 4-byte Reload
	ldr	r3, [sp, #20]                   @ 4-byte Reload
	subs	r1, r3, r1
	subs	r3, r1, r2
	ldr	r6, [sp, #4]                    @ 4-byte Reload
.Ltmp256:
.LBB20_13:                              @   in Loop: Header=BB20_3 Depth=1
	@DEBUG_VALUE: BufCopy:dst_cb <- $r5
	@DEBUG_VALUE: BufCopy:src_cb <- $r4
	@DEBUG_VALUE: BufCopy:dst <- [DW_OP_plus_uconst 8] [$sp+0]
	@DEBUG_VALUE: BufCopy:maxi <- [DW_OP_plus_uconst 24] [$sp+0]
	@DEBUG_VALUE: BufCopy:i <- [DW_OP_plus_uconst 32] [$sp+0]
	@DEBUG_VALUE: BufCopy:sz_s <- $r3
	@DEBUG_VALUE: BufCopy:sz_d <- $r0
	.loc	5 620 9 is_stmt 0               @ C:/Users/shw26/AppData/Local/Arm/Packs/ARM/CMSIS-Driver/2.6.1/WiFi/ESP8266/BufList/BufList.c:620:9
	cbz	r0, .LBB20_17
.Ltmp257:
@ %bb.14:                               @   in Loop: Header=BB20_3 Depth=1
	@DEBUG_VALUE: BufCopy:dst_cb <- $r5
	@DEBUG_VALUE: BufCopy:src_cb <- $r4
	@DEBUG_VALUE: BufCopy:sz_s <- $r3
	@DEBUG_VALUE: BufCopy:sz_d <- $r0
	@DEBUG_VALUE: BufCopy:i <- [DW_OP_plus_uconst 32] [$sp+0]
	@DEBUG_VALUE: BufCopy:dst <- [DW_OP_plus_uconst 8] [$sp+0]
	@DEBUG_VALUE: BufCopy:maxi <- [DW_OP_plus_uconst 24] [$sp+0]
	@DEBUG_VALUE: BufCopy:dst_cb <- $r5
	.loc	5 625 9 is_stmt 1               @ C:/Users/shw26/AppData/Local/Arm/Packs/ARM/CMSIS-Driver/2.6.1/WiFi/ESP8266/BufList/BufList.c:625:9
	cbz	r3, .LBB20_18
.Ltmp258:
.LBB20_15:                              @   in Loop: Header=BB20_3 Depth=1
	@DEBUG_VALUE: BufCopy:dst_cb <- $r5
	@DEBUG_VALUE: BufCopy:src_cb <- $r4
	@DEBUG_VALUE: BufCopy:sz_s <- $r3
	@DEBUG_VALUE: BufCopy:i <- [DW_OP_plus_uconst 32] [$sp+0]
	@DEBUG_VALUE: BufCopy:dst <- [DW_OP_plus_uconst 8] [$sp+0]
	@DEBUG_VALUE: BufCopy:maxi <- [DW_OP_plus_uconst 24] [$sp+0]
	@DEBUG_VALUE: BufCopy:i <- [DW_OP_plus_uconst 32] [$sp+0]
	@DEBUG_VALUE: BufCopy:dst_cb <- $r5
	@DEBUG_VALUE: BufCopy:src_cb <- $r4
	.loc	5 591 3                         @ C:/Users/shw26/AppData/Local/Arm/Packs/ARM/CMSIS-Driver/2.6.1/WiFi/ESP8266/BufList/BufList.c:591:3
	cbz	r4, .LBB20_21
.Ltmp259:
.LBB20_16:                              @   in Loop: Header=BB20_3 Depth=1
	@DEBUG_VALUE: BufCopy:dst_cb <- $r5
	@DEBUG_VALUE: BufCopy:src_cb <- $r4
	@DEBUG_VALUE: BufCopy:i <- [DW_OP_plus_uconst 32] [$sp+0]
	@DEBUG_VALUE: BufCopy:dst <- [DW_OP_plus_uconst 8] [$sp+0]
	@DEBUG_VALUE: BufCopy:maxi <- [DW_OP_plus_uconst 24] [$sp+0]
	ldr	r0, [sp, #32]                   @ 4-byte Reload
	cmp	r0, r7
	blo	.LBB20_3
	b	.LBB20_21
.Ltmp260:
.LBB20_17:                              @   in Loop: Header=BB20_3 Depth=1
	@DEBUG_VALUE: BufCopy:dst_cb <- $r5
	@DEBUG_VALUE: BufCopy:src_cb <- $r4
	@DEBUG_VALUE: BufCopy:sz_s <- $r3
	@DEBUG_VALUE: BufCopy:sz_d <- $r0
	@DEBUG_VALUE: BufCopy:i <- [DW_OP_plus_uconst 32] [$sp+0]
	@DEBUG_VALUE: BufCopy:dst <- [DW_OP_plus_uconst 8] [$sp+0]
	@DEBUG_VALUE: BufCopy:maxi <- [DW_OP_plus_uconst 24] [$sp+0]
	.loc	5 620 9                         @ C:/Users/shw26/AppData/Local/Arm/Packs/ARM/CMSIS-Driver/2.6.1/WiFi/ESP8266/BufList/BufList.c:620:9
	mov	r5, r0
.Ltmp261:
	@DEBUG_VALUE: BufCopy:sz_d <- $r5
	@DEBUG_VALUE: BufCopy:dst_cb <- $r5
	.loc	5 625 9                         @ C:/Users/shw26/AppData/Local/Arm/Packs/ARM/CMSIS-Driver/2.6.1/WiFi/ESP8266/BufList/BufList.c:625:9
	cmp	r3, #0
	bne	.LBB20_15
.Ltmp262:
.LBB20_18:                              @   in Loop: Header=BB20_3 Depth=1
	@DEBUG_VALUE: BufCopy:dst_cb <- $r5
	@DEBUG_VALUE: BufCopy:src_cb <- $r4
	@DEBUG_VALUE: BufCopy:sz_s <- $r3
	@DEBUG_VALUE: BufCopy:i <- [DW_OP_plus_uconst 32] [$sp+0]
	@DEBUG_VALUE: BufCopy:dst <- [DW_OP_plus_uconst 8] [$sp+0]
	@DEBUG_VALUE: BufCopy:maxi <- [DW_OP_plus_uconst 24] [$sp+0]
	.loc	5 627 19                        @ C:/Users/shw26/AppData/Local/Arm/Packs/ARM/CMSIS-Driver/2.6.1/WiFi/ESP8266/BufList/BufList.c:627:19
	ldrh	r4, [r4, #8]
.Ltmp263:
	.loc	5 627 26 is_stmt 0              @ C:/Users/shw26/AppData/Local/Arm/Packs/ARM/CMSIS-Driver/2.6.1/WiFi/ESP8266/BufList/BufList.c:627:26
	mov	r0, r6
	bl	Size
.Ltmp264:
	.loc	5 627 11                        @ C:/Users/shw26/AppData/Local/Arm/Packs/ARM/CMSIS-Driver/2.6.1/WiFi/ESP8266/BufList/BufList.c:627:11
	cmp	r4, r0
	bne	.LBB20_20
.Ltmp265:
@ %bb.19:                               @   in Loop: Header=BB20_3 Depth=1
	@DEBUG_VALUE: BufCopy:dst_cb <- $r5
	@DEBUG_VALUE: BufCopy:i <- [DW_OP_plus_uconst 32] [$sp+0]
	@DEBUG_VALUE: BufCopy:dst <- [DW_OP_plus_uconst 8] [$sp+0]
	@DEBUG_VALUE: BufCopy:maxi <- [DW_OP_plus_uconst 24] [$sp+0]
	.loc	5 628 18 is_stmt 1              @ C:/Users/shw26/AppData/Local/Arm/Packs/ARM/CMSIS-Driver/2.6.1/WiFi/ESP8266/BufList/BufList.c:628:18
	mov	r0, r6
	bl	Free
	mov	r4, r0
.Ltmp266:
	@DEBUG_VALUE: BufCopy:src_cb <- $r4
	@DEBUG_VALUE: BufCopy:i <- [DW_OP_plus_uconst 32] [$sp+0]
	@DEBUG_VALUE: BufCopy:dst_cb <- $r5
	@DEBUG_VALUE: BufCopy:src_cb <- $r4
	.loc	5 591 3                         @ C:/Users/shw26/AppData/Local/Arm/Packs/ARM/CMSIS-Driver/2.6.1/WiFi/ESP8266/BufList/BufList.c:591:3
	cmp	r4, #0
	bne	.LBB20_16
	b	.LBB20_21
.Ltmp267:
.LBB20_20:                              @   in Loop: Header=BB20_3 Depth=1
	@DEBUG_VALUE: BufCopy:dst_cb <- $r5
	@DEBUG_VALUE: BufCopy:i <- [DW_OP_plus_uconst 32] [$sp+0]
	@DEBUG_VALUE: BufCopy:dst <- [DW_OP_plus_uconst 8] [$sp+0]
	@DEBUG_VALUE: BufCopy:maxi <- [DW_OP_plus_uconst 24] [$sp+0]
	.loc	5 0 3 is_stmt 0                 @ C:/Users/shw26/AppData/Local/Arm/Packs/ARM/CMSIS-Driver/2.6.1/WiFi/ESP8266/BufList/BufList.c:0:3
	movs	r4, #0
	@DEBUG_VALUE: BufCopy:i <- [DW_OP_plus_uconst 32] [$sp+0]
	@DEBUG_VALUE: BufCopy:dst_cb <- $r5
.Ltmp268:
	@DEBUG_VALUE: BufCopy:src_cb <- $r4
	.loc	5 591 3                         @ C:/Users/shw26/AppData/Local/Arm/Packs/ARM/CMSIS-Driver/2.6.1/WiFi/ESP8266/BufList/BufList.c:591:3
	cmp	r4, #0
	bne	.LBB20_16
.Ltmp269:
.LBB20_21:
	@DEBUG_VALUE: BufCopy:dst_cb <- $r5
	@DEBUG_VALUE: BufCopy:src_cb <- $r4
	@DEBUG_VALUE: BufCopy:dst <- [DW_OP_plus_uconst 8] [$sp+0]
	@DEBUG_VALUE: BufCopy:maxi <- [DW_OP_plus_uconst 24] [$sp+0]
	@DEBUG_VALUE: BufCopy:i <- [DW_OP_plus_uconst 32] [$sp+0]
	.loc	5 635 3 is_stmt 1               @ C:/Users/shw26/AppData/Local/Arm/Packs/ARM/CMSIS-Driver/2.6.1/WiFi/ESP8266/BufList/BufList.c:635:3
	mov	r0, r6
	bl	Unlock
	.loc	5 636 3                         @ C:/Users/shw26/AppData/Local/Arm/Packs/ARM/CMSIS-Driver/2.6.1/WiFi/ESP8266/BufList/BufList.c:636:3
	ldr	r0, [sp, #8]                    @ 4-byte Reload
	bl	Unlock
	.loc	5 639 3                         @ C:/Users/shw26/AppData/Local/Arm/Packs/ARM/CMSIS-Driver/2.6.1/WiFi/ESP8266/BufList/BufList.c:639:3
	ldr	r0, [sp, #32]                   @ 4-byte Reload
	add	sp, #36
.Ltmp270:
	pop	{r4, r5, r6, r7, pc}
.Ltmp271:
.Lfunc_end20:
	.size	BufCopy, .Lfunc_end20-BufCopy
	.cfi_endproc
	.cantunwind
	.fnend
                                        @ -- End function
	.section	.text.BufFlush,"ax",%progbits
	.hidden	BufFlush                        @ -- Begin function BufFlush
	.globl	BufFlush
	.p2align	1
	.type	BufFlush,%function
	.code	16                              @ @BufFlush
	.thumb_func
BufFlush:
.Lfunc_begin21:
	.loc	5 646 0                         @ C:/Users/shw26/AppData/Local/Arm/Packs/ARM/CMSIS-Driver/2.6.1/WiFi/ESP8266/BufList/BufList.c:646:0
	.fnstart
	.cfi_startproc
@ %bb.0:
	@DEBUG_VALUE: BufFlush:num <- $r0
	@DEBUG_VALUE: BufFlush:p <- $r1
	.save	{r4, r5, r6, r7, lr}
	push	{r4, r5, r6, r7, lr}
	.cfi_def_cfa_offset 20
	.cfi_offset lr, -4
	.cfi_offset r7, -8
	.cfi_offset r6, -12
	.cfi_offset r5, -16
	.cfi_offset r4, -20
	.pad	#4
	sub	sp, #4
	.cfi_def_cfa_offset 24
	mov	r4, r1
	mov	r5, r0
.Ltmp272:
	@DEBUG_VALUE: BufFlush:p <- $r4
	@DEBUG_VALUE: BufFlush:num <- $r5
	.loc	5 650 3 prologue_end            @ C:/Users/shw26/AppData/Local/Arm/Packs/ARM/CMSIS-Driver/2.6.1/WiFi/ESP8266/BufList/BufList.c:650:3
	mov	r0, r1
	bl	Lock
.Ltmp273:
	@DEBUG_VALUE: BufFlush:n <- 0
	.loc	5 653 23                        @ C:/Users/shw26/AppData/Local/Arm/Packs/ARM/CMSIS-Driver/2.6.1/WiFi/ESP8266/BufList/BufList.c:653:23
	mov	r0, r4
	bl	ListPeekHead
.Ltmp274:
	@DEBUG_VALUE: BufFlush:buf_cb <- $r0
	.loc	5 0 23 is_stmt 0                @ C:/Users/shw26/AppData/Local/Arm/Packs/ARM/CMSIS-Driver/2.6.1/WiFi/ESP8266/BufList/BufList.c:0:23
	movs	r6, #0
	str	r6, [sp]                        @ 4-byte Spill
.Ltmp275:
.LBB21_1:                               @ =>This Inner Loop Header: Depth=1
	@DEBUG_VALUE: BufFlush:num <- $r5
	@DEBUG_VALUE: BufFlush:p <- $r4
	@DEBUG_VALUE: BufFlush:buf_cb <- $r0
	@DEBUG_VALUE: BufFlush:n <- $r6
	@DEBUG_VALUE: BufFlush:buf_cb <- $r0
	.loc	5 655 3 is_stmt 1               @ C:/Users/shw26/AppData/Local/Arm/Packs/ARM/CMSIS-Driver/2.6.1/WiFi/ESP8266/BufList/BufList.c:655:3
	cbz	r0, .LBB21_8
.Ltmp276:
@ %bb.2:                                @   in Loop: Header=BB21_1 Depth=1
	@DEBUG_VALUE: BufFlush:n <- $r6
	@DEBUG_VALUE: BufFlush:num <- $r5
	@DEBUG_VALUE: BufFlush:p <- $r4
	@DEBUG_VALUE: BufFlush:buf_cb <- $r0
	.loc	5 657 32                        @ C:/Users/shw26/AppData/Local/Arm/Packs/ARM/CMSIS-Driver/2.6.1/WiFi/ESP8266/BufList/BufList.c:657:32
	ldrh	r7, [r0, #8]
	.loc	5 657 17 is_stmt 0              @ C:/Users/shw26/AppData/Local/Arm/Packs/ARM/CMSIS-Driver/2.6.1/WiFi/ESP8266/BufList/BufList.c:657:17
	ldrh	r1, [r0, #10]
.Ltmp277:
	.loc	5 657 9                         @ C:/Users/shw26/AppData/Local/Arm/Packs/ARM/CMSIS-Driver/2.6.1/WiFi/ESP8266/BufList/BufList.c:657:9
	cmp	r1, r7
	bne	.LBB21_5
.Ltmp278:
@ %bb.3:                                @   in Loop: Header=BB21_1 Depth=1
	@DEBUG_VALUE: BufFlush:n <- $r6
	@DEBUG_VALUE: BufFlush:num <- $r5
	@DEBUG_VALUE: BufFlush:p <- $r4
	@DEBUG_VALUE: BufFlush:buf_cb <- $r0
	.loc	5 659 26 is_stmt 1              @ C:/Users/shw26/AppData/Local/Arm/Packs/ARM/CMSIS-Driver/2.6.1/WiFi/ESP8266/BufList/BufList.c:659:26
	mov	r0, r4
.Ltmp279:
	bl	Size
.Ltmp280:
	.loc	5 659 11 is_stmt 0              @ C:/Users/shw26/AppData/Local/Arm/Packs/ARM/CMSIS-Driver/2.6.1/WiFi/ESP8266/BufList/BufList.c:659:11
	cmp	r7, r0
	bne	.LBB21_6
.Ltmp281:
@ %bb.4:                                @   in Loop: Header=BB21_1 Depth=1
	@DEBUG_VALUE: BufFlush:n <- $r6
	@DEBUG_VALUE: BufFlush:num <- $r5
	@DEBUG_VALUE: BufFlush:p <- $r4
	.loc	5 660 18 is_stmt 1              @ C:/Users/shw26/AppData/Local/Arm/Packs/ARM/CMSIS-Driver/2.6.1/WiFi/ESP8266/BufList/BufList.c:660:18
	mov	r0, r4
	bl	Free
.Ltmp282:
	@DEBUG_VALUE: BufFlush:buf_cb <- $r0
	@DEBUG_VALUE: BufFlush:n <- $r6
	@DEBUG_VALUE: BufFlush:buf_cb <- $r0
	.loc	5 0 18 is_stmt 0                @ C:/Users/shw26/AppData/Local/Arm/Packs/ARM/CMSIS-Driver/2.6.1/WiFi/ESP8266/BufList/BufList.c:0:18
	cbnz	r5, .LBB21_7
	b	.LBB21_1
.Ltmp283:
.LBB21_5:                               @   in Loop: Header=BB21_1 Depth=1
	@DEBUG_VALUE: BufFlush:n <- $r6
	@DEBUG_VALUE: BufFlush:num <- $r5
	@DEBUG_VALUE: BufFlush:p <- $r4
	@DEBUG_VALUE: BufFlush:buf_cb <- $r0
	.loc	5 666 18 is_stmt 1              @ C:/Users/shw26/AppData/Local/Arm/Packs/ARM/CMSIS-Driver/2.6.1/WiFi/ESP8266/BufList/BufList.c:666:18
	adds	r1, r1, #1
	strh	r1, [r0, #10]
	.loc	5 668 8                         @ C:/Users/shw26/AppData/Local/Arm/Packs/ARM/CMSIS-Driver/2.6.1/WiFi/ESP8266/BufList/BufList.c:668:8
	adds	r6, r6, #1
.Ltmp284:
	@DEBUG_VALUE: BufFlush:n <- $r6
	@DEBUG_VALUE: BufFlush:n <- $r6
	@DEBUG_VALUE: BufFlush:buf_cb <- $r0
	.loc	5 0 8 is_stmt 0                 @ C:/Users/shw26/AppData/Local/Arm/Packs/ARM/CMSIS-Driver/2.6.1/WiFi/ESP8266/BufList/BufList.c:0:8
	cbnz	r5, .LBB21_7
	b	.LBB21_1
.Ltmp285:
.LBB21_6:                               @   in Loop: Header=BB21_1 Depth=1
	@DEBUG_VALUE: BufFlush:n <- $r6
	@DEBUG_VALUE: BufFlush:num <- $r5
	@DEBUG_VALUE: BufFlush:p <- $r4
	ldr	r0, [sp]                        @ 4-byte Reload
	@DEBUG_VALUE: BufFlush:n <- $r6
.Ltmp286:
	@DEBUG_VALUE: BufFlush:buf_cb <- $r0
	.loc	5 671 9 is_stmt 1               @ C:/Users/shw26/AppData/Local/Arm/Packs/ARM/CMSIS-Driver/2.6.1/WiFi/ESP8266/BufList/BufList.c:671:9
	cmp	r5, #0
	beq	.LBB21_1
.Ltmp287:
.LBB21_7:                               @   in Loop: Header=BB21_1 Depth=1
	@DEBUG_VALUE: BufFlush:n <- $r6
	@DEBUG_VALUE: BufFlush:num <- $r5
	@DEBUG_VALUE: BufFlush:p <- $r4
	@DEBUG_VALUE: BufFlush:buf_cb <- $r0
	cmp	r6, r5
	bne	.LBB21_1
.Ltmp288:
.LBB21_8:
	@DEBUG_VALUE: BufFlush:n <- $r6
	@DEBUG_VALUE: BufFlush:num <- $r5
	@DEBUG_VALUE: BufFlush:p <- $r4
	@DEBUG_VALUE: BufFlush:buf_cb <- $r0
	@DEBUG_VALUE: BufFlush:n <- $r6
	.loc	5 679 3                         @ C:/Users/shw26/AppData/Local/Arm/Packs/ARM/CMSIS-Driver/2.6.1/WiFi/ESP8266/BufList/BufList.c:679:3
	mov	r0, r4
.Ltmp289:
	bl	Unlock
	.loc	5 681 3                         @ C:/Users/shw26/AppData/Local/Arm/Packs/ARM/CMSIS-Driver/2.6.1/WiFi/ESP8266/BufList/BufList.c:681:3
	mov	r0, r6
	add	sp, #4
	pop	{r4, r5, r6, r7, pc}
.Ltmp290:
.Lfunc_end21:
	.size	BufFlush, .Lfunc_end21-BufFlush
	.cfi_endproc
	.cantunwind
	.fnend
                                        @ -- End function
	.section	.text.BufFindByte,"ax",%progbits
	.hidden	BufFindByte                     @ -- Begin function BufFindByte
	.globl	BufFindByte
	.p2align	1
	.type	BufFindByte,%function
	.code	16                              @ @BufFindByte
	.thumb_func
BufFindByte:
.Lfunc_begin22:
	.loc	5 688 0                         @ C:/Users/shw26/AppData/Local/Arm/Packs/ARM/CMSIS-Driver/2.6.1/WiFi/ESP8266/BufList/BufList.c:688:0
	.fnstart
	.cfi_startproc
@ %bb.0:
	@DEBUG_VALUE: BufFindByte:data <- $r0
	@DEBUG_VALUE: BufFindByte:p <- $r1
	.save	{r4, r5, r6, r7, lr}
	push	{r4, r5, r6, r7, lr}
	.cfi_def_cfa_offset 20
	.cfi_offset lr, -4
	.cfi_offset r7, -8
	.cfi_offset r6, -12
	.cfi_offset r5, -16
	.cfi_offset r4, -20
	.pad	#12
	sub	sp, #12
	.cfi_def_cfa_offset 32
	mov	r4, r1
	mov	r5, r0
.Ltmp291:
	@DEBUG_VALUE: BufFindByte:p <- $r4
	@DEBUG_VALUE: BufFindByte:data <- $r5
	.loc	5 693 3 prologue_end            @ C:/Users/shw26/AppData/Local/Arm/Packs/ARM/CMSIS-Driver/2.6.1/WiFi/ESP8266/BufList/BufList.c:693:3
	mov	r0, r1
	bl	Lock
.Ltmp292:
	@DEBUG_VALUE: BufFindByte:offs <- 0
	@DEBUG_VALUE: BufFindByte:rdi <- 0
	@DEBUG_VALUE: BufFindByte:n <- -1
	.loc	5 0 3 is_stmt 0                 @ C:/Users/shw26/AppData/Local/Arm/Packs/ARM/CMSIS-Driver/2.6.1/WiFi/ESP8266/BufList/BufList.c:0:3
	str	r4, [sp]                        @ 4-byte Spill
.Ltmp293:
	@DEBUG_VALUE: BufFindByte:p <- [$sp+0]
	.loc	5 699 23 is_stmt 1              @ C:/Users/shw26/AppData/Local/Arm/Packs/ARM/CMSIS-Driver/2.6.1/WiFi/ESP8266/BufList/BufList.c:699:23
	mov	r0, r4
	bl	ListPeekHead
.Ltmp294:
	@DEBUG_VALUE: BufFindByte:buf_cb <- $r0
	.loc	5 0 23 is_stmt 0                @ C:/Users/shw26/AppData/Local/Arm/Packs/ARM/CMSIS-Driver/2.6.1/WiFi/ESP8266/BufList/BufList.c:0:23
	movs	r2, #0
	mov	r1, r2
	.loc	5 701 7 is_stmt 1               @ C:/Users/shw26/AppData/Local/Arm/Packs/ARM/CMSIS-Driver/2.6.1/WiFi/ESP8266/BufList/BufList.c:701:7
	cbz	r0, .LBB22_2
.Ltmp295:
@ %bb.1:
	@DEBUG_VALUE: BufFindByte:data <- $r5
	@DEBUG_VALUE: BufFindByte:buf_cb <- $r0
	@DEBUG_VALUE: BufFindByte:p <- [$sp+0]
	@DEBUG_VALUE: BufFindByte:n <- -1
	@DEBUG_VALUE: BufFindByte:rdi <- 0
	@DEBUG_VALUE: BufFindByte:offs <- 0
	.loc	5 702 19                        @ C:/Users/shw26/AppData/Local/Arm/Packs/ARM/CMSIS-Driver/2.6.1/WiFi/ESP8266/BufList/BufList.c:702:19
	ldrh	r1, [r0, #10]
.Ltmp296:
	@DEBUG_VALUE: BufFindByte:rdi <- $r1
.LBB22_2:
	@DEBUG_VALUE: BufFindByte:data <- $r5
	@DEBUG_VALUE: BufFindByte:buf_cb <- $r0
	@DEBUG_VALUE: BufFindByte:p <- [$sp+0]
	@DEBUG_VALUE: BufFindByte:n <- -1
	@DEBUG_VALUE: BufFindByte:offs <- 0
	@DEBUG_VALUE: BufFindByte:n <- -1
	@DEBUG_VALUE: BufFindByte:rdi <- $r1
	@DEBUG_VALUE: BufFindByte:offs <- 0
	@DEBUG_VALUE: BufFindByte:buf_cb <- $r0
	.loc	5 0 19 is_stmt 0                @ C:/Users/shw26/AppData/Local/Arm/Packs/ARM/CMSIS-Driver/2.6.1/WiFi/ESP8266/BufList/BufList.c:0:19
	mvns	r4, r2
	.loc	5 705 3 is_stmt 1               @ C:/Users/shw26/AppData/Local/Arm/Packs/ARM/CMSIS-Driver/2.6.1/WiFi/ESP8266/BufList/BufList.c:705:3
	cbz	r0, .LBB22_14
.Ltmp297:
@ %bb.3:
	@DEBUG_VALUE: BufFindByte:data <- $r5
	@DEBUG_VALUE: BufFindByte:rdi <- $r1
	@DEBUG_VALUE: BufFindByte:buf_cb <- $r0
	@DEBUG_VALUE: BufFindByte:p <- [$sp+0]
	@DEBUG_VALUE: BufFindByte:n <- -1
	@DEBUG_VALUE: BufFindByte:offs <- 0
	.loc	5 0 3 is_stmt 0                 @ C:/Users/shw26/AppData/Local/Arm/Packs/ARM/CMSIS-Driver/2.6.1/WiFi/ESP8266/BufList/BufList.c:0:3
	movs	r6, #0
	str	r6, [sp, #8]                    @ 4-byte Spill
	str	r4, [sp, #4]                    @ 4-byte Spill
	b	.LBB22_6
.Ltmp298:
.LBB22_4:                               @   in Loop: Header=BB22_6 Depth=1
	@DEBUG_VALUE: BufFindByte:offs <- $r6
	@DEBUG_VALUE: BufFindByte:data <- $r5
	@DEBUG_VALUE: BufFindByte:rdi <- $r1
	@DEBUG_VALUE: BufFindByte:buf_cb <- $r0
	@DEBUG_VALUE: BufFindByte:p <- [$sp+0]
	@DEBUG_VALUE: BufFindByte:n <- -1
	.loc	5 709 27 is_stmt 1              @ C:/Users/shw26/AppData/Local/Arm/Packs/ARM/CMSIS-Driver/2.6.1/WiFi/ESP8266/BufList/BufList.c:709:27
	bl	ListPeekNext
.Ltmp299:
	@DEBUG_VALUE: BufFindByte:buf_cb <- $r0
	@DEBUG_VALUE: BufFindByte:rdi <- 0
	.loc	5 0 0 is_stmt 0                 @ C:/Users/shw26/AppData/Local/Arm/Packs/ARM/CMSIS-Driver/2.6.1/WiFi/ESP8266/BufList/BufList.c:0:0
	ldr	r1, [sp, #8]                    @ 4-byte Reload
.Ltmp300:
.LBB22_5:                               @   in Loop: Header=BB22_6 Depth=1
	@DEBUG_VALUE: BufFindByte:offs <- $r6
	@DEBUG_VALUE: BufFindByte:data <- $r5
	@DEBUG_VALUE: BufFindByte:buf_cb <- $r0
	@DEBUG_VALUE: BufFindByte:p <- [$sp+0]
	@DEBUG_VALUE: BufFindByte:n <- -1
	@DEBUG_VALUE: BufFindByte:rdi <- $r1
	@DEBUG_VALUE: BufFindByte:offs <- $r6
	@DEBUG_VALUE: BufFindByte:buf_cb <- $r0
	.loc	5 705 3 is_stmt 1               @ C:/Users/shw26/AppData/Local/Arm/Packs/ARM/CMSIS-Driver/2.6.1/WiFi/ESP8266/BufList/BufList.c:705:3
	cbz	r0, .LBB22_15
.Ltmp301:
.LBB22_6:                               @ =>This Loop Header: Depth=1
                                        @     Child Loop BB22_9 Depth 2
	@DEBUG_VALUE: BufFindByte:data <- $r5
	@DEBUG_VALUE: BufFindByte:rdi <- $r1
	@DEBUG_VALUE: BufFindByte:buf_cb <- $r0
	@DEBUG_VALUE: BufFindByte:p <- [$sp+0]
	@DEBUG_VALUE: BufFindByte:n <- -1
	@DEBUG_VALUE: BufFindByte:rdi <- $r1
	@DEBUG_VALUE: BufFindByte:offs <- $r6
	@DEBUG_VALUE: BufFindByte:buf_cb <- $r0
	.loc	5 707 24                        @ C:/Users/shw26/AppData/Local/Arm/Packs/ARM/CMSIS-Driver/2.6.1/WiFi/ESP8266/BufList/BufList.c:707:24
	ldrh	r2, [r0, #8]
.Ltmp302:
	.loc	5 707 9 is_stmt 0               @ C:/Users/shw26/AppData/Local/Arm/Packs/ARM/CMSIS-Driver/2.6.1/WiFi/ESP8266/BufList/BufList.c:707:9
	cmp	r1, r2
	beq	.LBB22_4
.Ltmp303:
@ %bb.7:                                @   in Loop: Header=BB22_6 Depth=1
	@DEBUG_VALUE: BufFindByte:offs <- $r6
	@DEBUG_VALUE: BufFindByte:data <- $r5
	@DEBUG_VALUE: BufFindByte:rdi <- $r1
	@DEBUG_VALUE: BufFindByte:buf_cb <- $r0
	@DEBUG_VALUE: BufFindByte:p <- [$sp+0]
	@DEBUG_VALUE: BufFindByte:n <- -1
	@DEBUG_VALUE: BufFindByte:rdi <- $r1
	@DEBUG_VALUE: BufFindByte:offs <- $r6
	.loc	5 716 7 is_stmt 1               @ C:/Users/shw26/AppData/Local/Arm/Packs/ARM/CMSIS-Driver/2.6.1/WiFi/ESP8266/BufList/BufList.c:716:7
	bhs	.LBB22_12
.Ltmp304:
@ %bb.8:                                @   in Loop: Header=BB22_6 Depth=1
	@DEBUG_VALUE: BufFindByte:offs <- $r6
	@DEBUG_VALUE: BufFindByte:data <- $r5
	@DEBUG_VALUE: BufFindByte:rdi <- $r1
	@DEBUG_VALUE: BufFindByte:buf_cb <- $r0
	@DEBUG_VALUE: BufFindByte:p <- [$sp+0]
	@DEBUG_VALUE: BufFindByte:n <- -1
	adds	r3, r6, r2
	subs	r3, r3, r1
	mov	r7, r0
	adds	r7, #12
.Ltmp305:
.LBB22_9:                               @   Parent Loop BB22_6 Depth=1
                                        @ =>  This Inner Loop Header: Depth=2
	@DEBUG_VALUE: BufFindByte:offs <- $r6
	@DEBUG_VALUE: BufFindByte:data <- $r5
	@DEBUG_VALUE: BufFindByte:rdi <- $r1
	@DEBUG_VALUE: BufFindByte:buf_cb <- $r0
	@DEBUG_VALUE: BufFindByte:p <- [$sp+0]
	@DEBUG_VALUE: BufFindByte:n <- -1
	@DEBUG_VALUE: BufFindByte:rdi <- $r1
	@DEBUG_VALUE: BufFindByte:offs <- $r6
	.loc	5 718 21                        @ C:/Users/shw26/AppData/Local/Arm/Packs/ARM/CMSIS-Driver/2.6.1/WiFi/ESP8266/BufList/BufList.c:718:21
	ldrb	r4, [r7, r1]
.Ltmp306:
	.loc	5 718 13 is_stmt 0              @ C:/Users/shw26/AppData/Local/Arm/Packs/ARM/CMSIS-Driver/2.6.1/WiFi/ESP8266/BufList/BufList.c:718:13
	cmp	r4, r5
	beq	.LBB22_13
.Ltmp307:
@ %bb.10:                               @   in Loop: Header=BB22_9 Depth=2
	@DEBUG_VALUE: BufFindByte:offs <- $r6
	@DEBUG_VALUE: BufFindByte:data <- $r5
	@DEBUG_VALUE: BufFindByte:rdi <- $r1
	@DEBUG_VALUE: BufFindByte:buf_cb <- $r0
	@DEBUG_VALUE: BufFindByte:p <- [$sp+0]
	@DEBUG_VALUE: BufFindByte:n <- -1
	.loc	5 724 12 is_stmt 1              @ C:/Users/shw26/AppData/Local/Arm/Packs/ARM/CMSIS-Driver/2.6.1/WiFi/ESP8266/BufList/BufList.c:724:12
	adds	r1, r1, #1
.Ltmp308:
	@DEBUG_VALUE: BufFindByte:rdi <- $r1
	.loc	5 723 13                        @ C:/Users/shw26/AppData/Local/Arm/Packs/ARM/CMSIS-Driver/2.6.1/WiFi/ESP8266/BufList/BufList.c:723:13
	adds	r6, r6, #1
.Ltmp309:
	@DEBUG_VALUE: BufFindByte:offs <- $r6
	.loc	5 716 7                         @ C:/Users/shw26/AppData/Local/Arm/Packs/ARM/CMSIS-Driver/2.6.1/WiFi/ESP8266/BufList/BufList.c:716:7
	cmp	r2, r1
	bne	.LBB22_9
.Ltmp310:
@ %bb.11:                               @   in Loop: Header=BB22_6 Depth=1
	@DEBUG_VALUE: BufFindByte:offs <- $r6
	@DEBUG_VALUE: BufFindByte:data <- $r5
	@DEBUG_VALUE: BufFindByte:rdi <- $r1
	@DEBUG_VALUE: BufFindByte:buf_cb <- $r0
	@DEBUG_VALUE: BufFindByte:p <- [$sp+0]
	@DEBUG_VALUE: BufFindByte:n <- -1
	.loc	5 0 0 is_stmt 0                 @ C:/Users/shw26/AppData/Local/Arm/Packs/ARM/CMSIS-Driver/2.6.1/WiFi/ESP8266/BufList/BufList.c:0:0
	mov	r6, r3
.Ltmp311:
	mov	r1, r2
.Ltmp312:
	ldr	r4, [sp, #4]                    @ 4-byte Reload
.Ltmp313:
.LBB22_12:                              @   in Loop: Header=BB22_6 Depth=1
	@DEBUG_VALUE: BufFindByte:data <- $r5
	@DEBUG_VALUE: BufFindByte:buf_cb <- $r0
	@DEBUG_VALUE: BufFindByte:p <- [$sp+0]
	@DEBUG_VALUE: BufFindByte:n <- -1
	mov	r7, r4
.Ltmp314:
	@DEBUG_VALUE: BufFindByte:n <- $r7
	@DEBUG_VALUE: BufFindByte:rdi <- $r1
	@DEBUG_VALUE: BufFindByte:offs <- $r6
	.loc	5 727 11 is_stmt 1              @ C:/Users/shw26/AppData/Local/Arm/Packs/ARM/CMSIS-Driver/2.6.1/WiFi/ESP8266/BufList/BufList.c:727:11
	adds	r2, r7, #1
	beq	.LBB22_5
	b	.LBB22_16
.Ltmp315:
.LBB22_13:                              @   in Loop: Header=BB22_6 Depth=1
	@DEBUG_VALUE: BufFindByte:offs <- $r6
	@DEBUG_VALUE: BufFindByte:data <- $r5
	@DEBUG_VALUE: BufFindByte:rdi <- $r1
	@DEBUG_VALUE: BufFindByte:buf_cb <- $r0
	@DEBUG_VALUE: BufFindByte:p <- [$sp+0]
	@DEBUG_VALUE: BufFindByte:n <- -1
	.loc	5 0 0 is_stmt 0                 @ C:/Users/shw26/AppData/Local/Arm/Packs/ARM/CMSIS-Driver/2.6.1/WiFi/ESP8266/BufList/BufList.c:0:0
	mov	r7, r6
	ldr	r4, [sp, #4]                    @ 4-byte Reload
.Ltmp316:
	@DEBUG_VALUE: BufFindByte:n <- $r7
	@DEBUG_VALUE: BufFindByte:rdi <- $r1
	@DEBUG_VALUE: BufFindByte:offs <- $r6
	.loc	5 727 11                        @ C:/Users/shw26/AppData/Local/Arm/Packs/ARM/CMSIS-Driver/2.6.1/WiFi/ESP8266/BufList/BufList.c:727:11
	adds	r2, r7, #1
	beq	.LBB22_5
	b	.LBB22_16
.Ltmp317:
.LBB22_14:
	@DEBUG_VALUE: BufFindByte:data <- $r5
	@DEBUG_VALUE: BufFindByte:rdi <- $r1
	@DEBUG_VALUE: BufFindByte:buf_cb <- $r0
	@DEBUG_VALUE: BufFindByte:p <- [$sp+0]
	@DEBUG_VALUE: BufFindByte:n <- -1
	@DEBUG_VALUE: BufFindByte:offs <- 0
	.loc	5 0 0                           @ C:/Users/shw26/AppData/Local/Arm/Packs/ARM/CMSIS-Driver/2.6.1/WiFi/ESP8266/BufList/BufList.c:0:0
	mov	r7, r4
	b	.LBB22_16
.Ltmp318:
.LBB22_15:
	@DEBUG_VALUE: BufFindByte:offs <- $r6
	@DEBUG_VALUE: BufFindByte:data <- $r5
	@DEBUG_VALUE: BufFindByte:rdi <- $r1
	@DEBUG_VALUE: BufFindByte:buf_cb <- $r0
	@DEBUG_VALUE: BufFindByte:p <- [$sp+0]
	@DEBUG_VALUE: BufFindByte:n <- -1
	mov	r7, r4
.Ltmp319:
.LBB22_16:
	@DEBUG_VALUE: BufFindByte:data <- $r5
	@DEBUG_VALUE: BufFindByte:rdi <- $r1
	@DEBUG_VALUE: BufFindByte:buf_cb <- $r0
	@DEBUG_VALUE: BufFindByte:p <- [$sp+0]
	@DEBUG_VALUE: BufFindByte:n <- $r7
	.loc	5 733 3 is_stmt 1               @ C:/Users/shw26/AppData/Local/Arm/Packs/ARM/CMSIS-Driver/2.6.1/WiFi/ESP8266/BufList/BufList.c:733:3
	ldr	r0, [sp]                        @ 4-byte Reload
.Ltmp320:
	bl	Unlock
.Ltmp321:
	.loc	5 735 3                         @ C:/Users/shw26/AppData/Local/Arm/Packs/ARM/CMSIS-Driver/2.6.1/WiFi/ESP8266/BufList/BufList.c:735:3
	mov	r0, r7
	add	sp, #12
.Ltmp322:
	pop	{r4, r5, r6, r7, pc}
.Ltmp323:
.Lfunc_end22:
	.size	BufFindByte, .Lfunc_end22-BufFindByte
	.cfi_endproc
	.cantunwind
	.fnend
                                        @ -- End function
	.section	.text.BufFind,"ax",%progbits
	.hidden	BufFind                         @ -- Begin function BufFind
	.globl	BufFind
	.p2align	1
	.type	BufFind,%function
	.code	16                              @ @BufFind
	.thumb_func
BufFind:
.Lfunc_begin23:
	.loc	5 744 0                         @ C:/Users/shw26/AppData/Local/Arm/Packs/ARM/CMSIS-Driver/2.6.1/WiFi/ESP8266/BufList/BufList.c:744:0
	.fnstart
	.cfi_startproc
@ %bb.0:
	@DEBUG_VALUE: BufFind:data <- $r0
	@DEBUG_VALUE: BufFind:num <- $r1
	@DEBUG_VALUE: BufFind:p <- $r2
	.save	{r4, r5, r6, r7, lr}
	push	{r4, r5, r6, r7, lr}
	.cfi_def_cfa_offset 20
	.cfi_offset lr, -4
	.cfi_offset r7, -8
	.cfi_offset r6, -12
	.cfi_offset r5, -16
	.cfi_offset r4, -20
	.pad	#20
	sub	sp, #20
	.cfi_def_cfa_offset 40
	mov	r4, r2
	str	r1, [sp, #8]                    @ 4-byte Spill
	str	r0, [sp, #12]                   @ 4-byte Spill
.Ltmp324:
	@DEBUG_VALUE: BufFind:p <- $r4
	@DEBUG_VALUE: BufFind:num <- [DW_OP_plus_uconst 8] [$sp+0]
	@DEBUG_VALUE: BufFind:data <- [DW_OP_plus_uconst 12] [$sp+0]
	.loc	5 750 3 prologue_end            @ C:/Users/shw26/AppData/Local/Arm/Packs/ARM/CMSIS-Driver/2.6.1/WiFi/ESP8266/BufList/BufList.c:750:3
	mov	r0, r2
	bl	Lock
.Ltmp325:
	@DEBUG_VALUE: BufFind:offs <- 0
	@DEBUG_VALUE: BufFind:rdi <- 0
	@DEBUG_VALUE: BufFind:i <- 0
	@DEBUG_VALUE: BufFind:n <- -1
	.loc	5 0 3 is_stmt 0                 @ C:/Users/shw26/AppData/Local/Arm/Packs/ARM/CMSIS-Driver/2.6.1/WiFi/ESP8266/BufList/BufList.c:0:3
	str	r4, [sp]                        @ 4-byte Spill
.Ltmp326:
	@DEBUG_VALUE: BufFind:p <- [$sp+0]
	.loc	5 757 23 is_stmt 1              @ C:/Users/shw26/AppData/Local/Arm/Packs/ARM/CMSIS-Driver/2.6.1/WiFi/ESP8266/BufList/BufList.c:757:23
	mov	r0, r4
	bl	ListPeekHead
	mov	r6, r0
.Ltmp327:
	@DEBUG_VALUE: BufFind:buf_cb <- $r6
	.loc	5 0 23 is_stmt 0                @ C:/Users/shw26/AppData/Local/Arm/Packs/ARM/CMSIS-Driver/2.6.1/WiFi/ESP8266/BufList/BufList.c:0:23
	movs	r2, #0
	mov	r1, r2
	.loc	5 759 7 is_stmt 1               @ C:/Users/shw26/AppData/Local/Arm/Packs/ARM/CMSIS-Driver/2.6.1/WiFi/ESP8266/BufList/BufList.c:759:7
	cbz	r0, .LBB23_2
.Ltmp328:
@ %bb.1:
	@DEBUG_VALUE: BufFind:buf_cb <- $r6
	@DEBUG_VALUE: BufFind:p <- [$sp+0]
	@DEBUG_VALUE: BufFind:data <- [DW_OP_plus_uconst 12] [$sp+0]
	@DEBUG_VALUE: BufFind:num <- [DW_OP_plus_uconst 8] [$sp+0]
	@DEBUG_VALUE: BufFind:n <- -1
	@DEBUG_VALUE: BufFind:i <- 0
	@DEBUG_VALUE: BufFind:rdi <- 0
	@DEBUG_VALUE: BufFind:offs <- 0
	.loc	5 760 19                        @ C:/Users/shw26/AppData/Local/Arm/Packs/ARM/CMSIS-Driver/2.6.1/WiFi/ESP8266/BufList/BufList.c:760:19
	ldrh	r1, [r6, #10]
.Ltmp329:
	@DEBUG_VALUE: BufFind:rdi <- $r1
.LBB23_2:
	@DEBUG_VALUE: BufFind:buf_cb <- $r6
	@DEBUG_VALUE: BufFind:p <- [$sp+0]
	@DEBUG_VALUE: BufFind:data <- [DW_OP_plus_uconst 12] [$sp+0]
	@DEBUG_VALUE: BufFind:num <- [DW_OP_plus_uconst 8] [$sp+0]
	@DEBUG_VALUE: BufFind:n <- -1
	@DEBUG_VALUE: BufFind:i <- 0
	@DEBUG_VALUE: BufFind:offs <- 0
	@DEBUG_VALUE: BufFind:n <- -1
	@DEBUG_VALUE: BufFind:i <- 0
	@DEBUG_VALUE: BufFind:rdi <- $r1
	@DEBUG_VALUE: BufFind:offs <- 0
	@DEBUG_VALUE: BufFind:buf_cb <- $r6
	.loc	5 0 19 is_stmt 0                @ C:/Users/shw26/AppData/Local/Arm/Packs/ARM/CMSIS-Driver/2.6.1/WiFi/ESP8266/BufList/BufList.c:0:19
	mvns	r7, r2
	.loc	5 763 3 is_stmt 1               @ C:/Users/shw26/AppData/Local/Arm/Packs/ARM/CMSIS-Driver/2.6.1/WiFi/ESP8266/BufList/BufList.c:763:3
	cbz	r6, .LBB23_23
.Ltmp330:
@ %bb.3:
	@DEBUG_VALUE: BufFind:buf_cb <- $r6
	@DEBUG_VALUE: BufFind:rdi <- $r1
	@DEBUG_VALUE: BufFind:p <- [$sp+0]
	@DEBUG_VALUE: BufFind:data <- [DW_OP_plus_uconst 12] [$sp+0]
	@DEBUG_VALUE: BufFind:num <- [DW_OP_plus_uconst 8] [$sp+0]
	@DEBUG_VALUE: BufFind:n <- -1
	@DEBUG_VALUE: BufFind:i <- 0
	@DEBUG_VALUE: BufFind:offs <- 0
	.loc	5 0 3 is_stmt 0                 @ C:/Users/shw26/AppData/Local/Arm/Packs/ARM/CMSIS-Driver/2.6.1/WiFi/ESP8266/BufList/BufList.c:0:3
	str	r7, [sp, #4]                    @ 4-byte Spill
	movs	r4, #0
	mov	r5, r4
	ldr	r2, [sp, #12]                   @ 4-byte Reload
	b	.LBB23_6
.Ltmp331:
.LBB23_4:                               @   in Loop: Header=BB23_6 Depth=1
	@DEBUG_VALUE: BufFind:buf_cb <- $r6
	@DEBUG_VALUE: BufFind:offs <- $r5
	@DEBUG_VALUE: BufFind:i <- $r4
	@DEBUG_VALUE: BufFind:rdi <- $r1
	@DEBUG_VALUE: BufFind:p <- [$sp+0]
	@DEBUG_VALUE: BufFind:data <- [DW_OP_plus_uconst 12] [$sp+0]
	@DEBUG_VALUE: BufFind:num <- [DW_OP_plus_uconst 8] [$sp+0]
	@DEBUG_VALUE: BufFind:n <- -1
	.loc	5 767 27 is_stmt 1              @ C:/Users/shw26/AppData/Local/Arm/Packs/ARM/CMSIS-Driver/2.6.1/WiFi/ESP8266/BufList/BufList.c:767:27
	mov	r0, r6
	bl	ListPeekNext
.Ltmp332:
	.loc	5 0 27 is_stmt 0                @ C:/Users/shw26/AppData/Local/Arm/Packs/ARM/CMSIS-Driver/2.6.1/WiFi/ESP8266/BufList/BufList.c:0:27
	ldr	r2, [sp, #12]                   @ 4-byte Reload
	.loc	5 767 27                        @ C:/Users/shw26/AppData/Local/Arm/Packs/ARM/CMSIS-Driver/2.6.1/WiFi/ESP8266/BufList/BufList.c:767:27
	mov	r6, r0
.Ltmp333:
	@DEBUG_VALUE: BufFind:buf_cb <- $r6
	.loc	5 0 27                          @ C:/Users/shw26/AppData/Local/Arm/Packs/ARM/CMSIS-Driver/2.6.1/WiFi/ESP8266/BufList/BufList.c:0:27
	movs	r1, #0
.Ltmp334:
	@DEBUG_VALUE: BufFind:rdi <- 0
.LBB23_5:                               @   in Loop: Header=BB23_6 Depth=1
	@DEBUG_VALUE: BufFind:offs <- $r5
	@DEBUG_VALUE: BufFind:i <- $r4
	@DEBUG_VALUE: BufFind:p <- [$sp+0]
	@DEBUG_VALUE: BufFind:data <- [DW_OP_plus_uconst 12] [$sp+0]
	@DEBUG_VALUE: BufFind:num <- [DW_OP_plus_uconst 8] [$sp+0]
	@DEBUG_VALUE: BufFind:n <- -1
	@DEBUG_VALUE: BufFind:i <- $r4
	@DEBUG_VALUE: BufFind:rdi <- $r1
	@DEBUG_VALUE: BufFind:offs <- $r5
	@DEBUG_VALUE: BufFind:buf_cb <- $r6
	.loc	5 763 3 is_stmt 1               @ C:/Users/shw26/AppData/Local/Arm/Packs/ARM/CMSIS-Driver/2.6.1/WiFi/ESP8266/BufList/BufList.c:763:3
	cbz	r6, .LBB23_22
.Ltmp335:
.LBB23_6:                               @ =>This Loop Header: Depth=1
                                        @     Child Loop BB23_11 Depth 2
	@DEBUG_VALUE: BufFind:buf_cb <- $r6
	@DEBUG_VALUE: BufFind:rdi <- $r1
	@DEBUG_VALUE: BufFind:p <- [$sp+0]
	@DEBUG_VALUE: BufFind:data <- [DW_OP_plus_uconst 12] [$sp+0]
	@DEBUG_VALUE: BufFind:num <- [DW_OP_plus_uconst 8] [$sp+0]
	@DEBUG_VALUE: BufFind:n <- -1
	@DEBUG_VALUE: BufFind:i <- $r4
	@DEBUG_VALUE: BufFind:rdi <- $r1
	@DEBUG_VALUE: BufFind:offs <- $r5
	@DEBUG_VALUE: BufFind:buf_cb <- $r6
	.loc	5 765 24                        @ C:/Users/shw26/AppData/Local/Arm/Packs/ARM/CMSIS-Driver/2.6.1/WiFi/ESP8266/BufList/BufList.c:765:24
	ldrh	r3, [r6, #8]
.Ltmp336:
	.loc	5 765 9 is_stmt 0               @ C:/Users/shw26/AppData/Local/Arm/Packs/ARM/CMSIS-Driver/2.6.1/WiFi/ESP8266/BufList/BufList.c:765:9
	cmp	r1, r3
	beq	.LBB23_4
.Ltmp337:
@ %bb.7:                                @   in Loop: Header=BB23_6 Depth=1
	@DEBUG_VALUE: BufFind:buf_cb <- $r6
	@DEBUG_VALUE: BufFind:offs <- $r5
	@DEBUG_VALUE: BufFind:i <- $r4
	@DEBUG_VALUE: BufFind:rdi <- $r1
	@DEBUG_VALUE: BufFind:p <- [$sp+0]
	@DEBUG_VALUE: BufFind:data <- [DW_OP_plus_uconst 12] [$sp+0]
	@DEBUG_VALUE: BufFind:num <- [DW_OP_plus_uconst 8] [$sp+0]
	@DEBUG_VALUE: BufFind:n <- -1
	.loc	5 774 7 is_stmt 1               @ C:/Users/shw26/AppData/Local/Arm/Packs/ARM/CMSIS-Driver/2.6.1/WiFi/ESP8266/BufList/BufList.c:774:7
	str	r1, [sp, #16]                   @ 4-byte Spill
	bhi	.LBB23_9
.Ltmp338:
@ %bb.8:                                @   in Loop: Header=BB23_6 Depth=1
	@DEBUG_VALUE: BufFind:buf_cb <- $r6
	@DEBUG_VALUE: BufFind:offs <- $r5
	@DEBUG_VALUE: BufFind:i <- $r4
	@DEBUG_VALUE: BufFind:rdi <- $r1
	@DEBUG_VALUE: BufFind:p <- [$sp+0]
	@DEBUG_VALUE: BufFind:data <- [DW_OP_plus_uconst 12] [$sp+0]
	@DEBUG_VALUE: BufFind:num <- [DW_OP_plus_uconst 8] [$sp+0]
	@DEBUG_VALUE: BufFind:n <- -1
	str	r3, [sp, #16]                   @ 4-byte Spill
.Ltmp339:
.LBB23_9:                               @   in Loop: Header=BB23_6 Depth=1
	@DEBUG_VALUE: BufFind:buf_cb <- $r6
	@DEBUG_VALUE: BufFind:offs <- $r5
	@DEBUG_VALUE: BufFind:i <- $r4
	@DEBUG_VALUE: BufFind:rdi <- $r1
	@DEBUG_VALUE: BufFind:p <- [$sp+0]
	@DEBUG_VALUE: BufFind:data <- [DW_OP_plus_uconst 12] [$sp+0]
	@DEBUG_VALUE: BufFind:num <- [DW_OP_plus_uconst 8] [$sp+0]
	@DEBUG_VALUE: BufFind:n <- -1
	.loc	5 0 0 is_stmt 0                 @ C:/Users/shw26/AppData/Local/Arm/Packs/ARM/CMSIS-Driver/2.6.1/WiFi/ESP8266/BufList/BufList.c:0:0
	mov	r3, r4
	b	.LBB23_11
.Ltmp340:
.LBB23_10:                              @   in Loop: Header=BB23_11 Depth=2
	@DEBUG_VALUE: BufFind:i <- $r4
	@DEBUG_VALUE: BufFind:rdi <- $r1
	@DEBUG_VALUE: BufFind:p <- [$sp+0]
	@DEBUG_VALUE: BufFind:data <- [DW_OP_plus_uconst 12] [$sp+0]
	@DEBUG_VALUE: BufFind:num <- [DW_OP_plus_uconst 8] [$sp+0]
	@DEBUG_VALUE: BufFind:n <- -1
	mov	r6, r0
.Ltmp341:
	@DEBUG_VALUE: BufFind:offs <- $r5
	.loc	5 790 12 is_stmt 1              @ C:/Users/shw26/AppData/Local/Arm/Packs/ARM/CMSIS-Driver/2.6.1/WiFi/ESP8266/BufList/BufList.c:790:12
	adds	r1, r1, #1
.Ltmp342:
	@DEBUG_VALUE: BufFind:rdi <- $r1
	.loc	5 791 13                        @ C:/Users/shw26/AppData/Local/Arm/Packs/ARM/CMSIS-Driver/2.6.1/WiFi/ESP8266/BufList/BufList.c:791:13
	ldr	r2, [sp, #8]                    @ 4-byte Reload
	cmp	r4, r2
.Ltmp343:
	.loc	5 0 0 is_stmt 0                 @ C:/Users/shw26/AppData/Local/Arm/Packs/ARM/CMSIS-Driver/2.6.1/WiFi/ESP8266/BufList/BufList.c:0:0
	mov	r3, r4
	mov	r7, r5
	ldr	r2, [sp, #12]                   @ 4-byte Reload
.Ltmp344:
	.loc	5 791 13                        @ C:/Users/shw26/AppData/Local/Arm/Packs/ARM/CMSIS-Driver/2.6.1/WiFi/ESP8266/BufList/BufList.c:791:13
	beq	.LBB23_21
.Ltmp345:
.LBB23_11:                              @   Parent Loop BB23_6 Depth=1
                                        @ =>  This Inner Loop Header: Depth=2
	@DEBUG_VALUE: BufFind:offs <- $r5
	@DEBUG_VALUE: BufFind:i <- $r4
	@DEBUG_VALUE: BufFind:rdi <- $r1
	@DEBUG_VALUE: BufFind:p <- [$sp+0]
	@DEBUG_VALUE: BufFind:data <- [DW_OP_plus_uconst 12] [$sp+0]
	@DEBUG_VALUE: BufFind:num <- [DW_OP_plus_uconst 8] [$sp+0]
	@DEBUG_VALUE: BufFind:n <- -1
	@DEBUG_VALUE: BufFind:i <- $r3
	@DEBUG_VALUE: BufFind:rdi <- $r1
	@DEBUG_VALUE: BufFind:offs <- $r5
	.loc	5 774 7 is_stmt 1               @ C:/Users/shw26/AppData/Local/Arm/Packs/ARM/CMSIS-Driver/2.6.1/WiFi/ESP8266/BufList/BufList.c:774:7
	ldr	r0, [sp, #16]                   @ 4-byte Reload
	cmp	r0, r1
	beq	.LBB23_20
.Ltmp346:
@ %bb.12:                               @   in Loop: Header=BB23_11 Depth=2
	@DEBUG_VALUE: BufFind:offs <- $r5
	@DEBUG_VALUE: BufFind:i <- $r3
	@DEBUG_VALUE: BufFind:rdi <- $r1
	@DEBUG_VALUE: BufFind:p <- [$sp+0]
	@DEBUG_VALUE: BufFind:data <- [DW_OP_plus_uconst 12] [$sp+0]
	@DEBUG_VALUE: BufFind:num <- [DW_OP_plus_uconst 8] [$sp+0]
	@DEBUG_VALUE: BufFind:n <- -1
	.loc	5 776 13                        @ C:/Users/shw26/AppData/Local/Arm/Packs/ARM/CMSIS-Driver/2.6.1/WiFi/ESP8266/BufList/BufList.c:776:13
	ldrb	r7, [r2, r3]
	mov	r0, r6
	.loc	5 776 24 is_stmt 0              @ C:/Users/shw26/AppData/Local/Arm/Packs/ARM/CMSIS-Driver/2.6.1/WiFi/ESP8266/BufList/BufList.c:776:24
	adds	r4, r6, r1
	ldrb	r6, [r4, #12]
.Ltmp347:
	.loc	5 776 13                        @ C:/Users/shw26/AppData/Local/Arm/Packs/ARM/CMSIS-Driver/2.6.1/WiFi/ESP8266/BufList/BufList.c:776:13
	cmp	r7, r6
	mov	r4, r3
	beq	.LBB23_14
.Ltmp348:
@ %bb.13:                               @   in Loop: Header=BB23_11 Depth=2
	@DEBUG_VALUE: BufFind:offs <- $r5
	@DEBUG_VALUE: BufFind:i <- $r3
	@DEBUG_VALUE: BufFind:rdi <- $r1
	@DEBUG_VALUE: BufFind:p <- [$sp+0]
	@DEBUG_VALUE: BufFind:data <- [DW_OP_plus_uconst 12] [$sp+0]
	@DEBUG_VALUE: BufFind:num <- [DW_OP_plus_uconst 8] [$sp+0]
	@DEBUG_VALUE: BufFind:n <- -1
	.loc	5 0 13                          @ C:/Users/shw26/AppData/Local/Arm/Packs/ARM/CMSIS-Driver/2.6.1/WiFi/ESP8266/BufList/BufList.c:0:13
	movs	r4, #0
.Ltmp349:
.LBB23_14:                              @   in Loop: Header=BB23_11 Depth=2
	@DEBUG_VALUE: BufFind:offs <- $r5
	@DEBUG_VALUE: BufFind:i <- $r3
	@DEBUG_VALUE: BufFind:rdi <- $r1
	@DEBUG_VALUE: BufFind:p <- [$sp+0]
	@DEBUG_VALUE: BufFind:data <- [DW_OP_plus_uconst 12] [$sp+0]
	@DEBUG_VALUE: BufFind:num <- [DW_OP_plus_uconst 8] [$sp+0]
	@DEBUG_VALUE: BufFind:n <- -1
	@DEBUG_VALUE: BufFind:i <- $r4
	.loc	5 785 13 is_stmt 1              @ C:/Users/shw26/AppData/Local/Arm/Packs/ARM/CMSIS-Driver/2.6.1/WiFi/ESP8266/BufList/BufList.c:785:13
	ldrb	r2, [r2, r4]
.Ltmp350:
	.loc	5 785 13 is_stmt 0              @ C:/Users/shw26/AppData/Local/Arm/Packs/ARM/CMSIS-Driver/2.6.1/WiFi/ESP8266/BufList/BufList.c:785:13
	cmp	r2, r6
	beq	.LBB23_17
.Ltmp351:
@ %bb.15:                               @   in Loop: Header=BB23_11 Depth=2
	@DEBUG_VALUE: BufFind:offs <- $r5
	@DEBUG_VALUE: BufFind:i <- $r4
	@DEBUG_VALUE: BufFind:rdi <- $r1
	@DEBUG_VALUE: BufFind:p <- [$sp+0]
	@DEBUG_VALUE: BufFind:data <- [DW_OP_plus_uconst 12] [$sp+0]
	@DEBUG_VALUE: BufFind:num <- [DW_OP_plus_uconst 8] [$sp+0]
	@DEBUG_VALUE: BufFind:n <- -1
	@DEBUG_VALUE: BufFind:i <- $r4
	.loc	5 776 13 is_stmt 1              @ C:/Users/shw26/AppData/Local/Arm/Packs/ARM/CMSIS-Driver/2.6.1/WiFi/ESP8266/BufList/BufList.c:776:13
	cbz	r3, .LBB23_18
.Ltmp352:
.LBB23_16:                              @   in Loop: Header=BB23_11 Depth=2
	@DEBUG_VALUE: BufFind:offs <- $r5
	@DEBUG_VALUE: BufFind:i <- $r4
	@DEBUG_VALUE: BufFind:rdi <- $r1
	@DEBUG_VALUE: BufFind:p <- [$sp+0]
	@DEBUG_VALUE: BufFind:data <- [DW_OP_plus_uconst 12] [$sp+0]
	@DEBUG_VALUE: BufFind:num <- [DW_OP_plus_uconst 8] [$sp+0]
	@DEBUG_VALUE: BufFind:n <- -1
	cmp	r7, r6
	beq	.LBB23_10
	b	.LBB23_19
.Ltmp353:
.LBB23_17:                              @   in Loop: Header=BB23_11 Depth=2
	@DEBUG_VALUE: BufFind:offs <- $r5
	@DEBUG_VALUE: BufFind:i <- $r4
	@DEBUG_VALUE: BufFind:rdi <- $r1
	@DEBUG_VALUE: BufFind:p <- [$sp+0]
	@DEBUG_VALUE: BufFind:data <- [DW_OP_plus_uconst 12] [$sp+0]
	@DEBUG_VALUE: BufFind:num <- [DW_OP_plus_uconst 8] [$sp+0]
	@DEBUG_VALUE: BufFind:n <- -1
	.loc	5 0 13 is_stmt 0                @ C:/Users/shw26/AppData/Local/Arm/Packs/ARM/CMSIS-Driver/2.6.1/WiFi/ESP8266/BufList/BufList.c:0:13
	adds	r4, r4, #1
.Ltmp354:
	@DEBUG_VALUE: BufFind:i <- $r4
	.loc	5 776 13                        @ C:/Users/shw26/AppData/Local/Arm/Packs/ARM/CMSIS-Driver/2.6.1/WiFi/ESP8266/BufList/BufList.c:776:13
	cmp	r3, #0
	bne	.LBB23_16
.Ltmp355:
.LBB23_18:                              @   in Loop: Header=BB23_11 Depth=2
	@DEBUG_VALUE: BufFind:offs <- $r5
	@DEBUG_VALUE: BufFind:i <- $r4
	@DEBUG_VALUE: BufFind:rdi <- $r1
	@DEBUG_VALUE: BufFind:p <- [$sp+0]
	@DEBUG_VALUE: BufFind:data <- [DW_OP_plus_uconst 12] [$sp+0]
	@DEBUG_VALUE: BufFind:num <- [DW_OP_plus_uconst 8] [$sp+0]
	@DEBUG_VALUE: BufFind:n <- -1
	.loc	5 0 13                          @ C:/Users/shw26/AppData/Local/Arm/Packs/ARM/CMSIS-Driver/2.6.1/WiFi/ESP8266/BufList/BufList.c:0:13
	movs	r3, #1
	.loc	5 776 13                        @ C:/Users/shw26/AppData/Local/Arm/Packs/ARM/CMSIS-Driver/2.6.1/WiFi/ESP8266/BufList/BufList.c:776:13
	cmp	r7, r6
	beq	.LBB23_10
.Ltmp356:
.LBB23_19:                              @   in Loop: Header=BB23_11 Depth=2
	@DEBUG_VALUE: BufFind:offs <- $r5
	@DEBUG_VALUE: BufFind:i <- $r4
	@DEBUG_VALUE: BufFind:rdi <- $r1
	@DEBUG_VALUE: BufFind:p <- [$sp+0]
	@DEBUG_VALUE: BufFind:data <- [DW_OP_plus_uconst 12] [$sp+0]
	@DEBUG_VALUE: BufFind:num <- [DW_OP_plus_uconst 8] [$sp+0]
	@DEBUG_VALUE: BufFind:n <- -1
	.loc	5 0 13                          @ C:/Users/shw26/AppData/Local/Arm/Packs/ARM/CMSIS-Driver/2.6.1/WiFi/ESP8266/BufList/BufList.c:0:13
	adds	r5, r5, r3
.Ltmp357:
	b	.LBB23_10
.Ltmp358:
.LBB23_20:                              @   in Loop: Header=BB23_6 Depth=1
	@DEBUG_VALUE: BufFind:offs <- $r5
	@DEBUG_VALUE: BufFind:i <- $r3
	@DEBUG_VALUE: BufFind:rdi <- $r1
	@DEBUG_VALUE: BufFind:p <- [$sp+0]
	@DEBUG_VALUE: BufFind:data <- [DW_OP_plus_uconst 12] [$sp+0]
	@DEBUG_VALUE: BufFind:num <- [DW_OP_plus_uconst 8] [$sp+0]
	@DEBUG_VALUE: BufFind:n <- -1
	ldr	r1, [sp, #16]                   @ 4-byte Reload
.Ltmp359:
	mov	r4, r3
.Ltmp360:
	@DEBUG_VALUE: BufFind:i <- $r4
	@DEBUG_VALUE: BufFind:i <- $r4
	ldr	r7, [sp, #4]                    @ 4-byte Reload
.Ltmp361:
.LBB23_21:                              @   in Loop: Header=BB23_6 Depth=1
	@DEBUG_VALUE: BufFind:offs <- $r5
	@DEBUG_VALUE: BufFind:i <- $r4
	@DEBUG_VALUE: BufFind:p <- [$sp+0]
	@DEBUG_VALUE: BufFind:data <- [DW_OP_plus_uconst 12] [$sp+0]
	@DEBUG_VALUE: BufFind:num <- [DW_OP_plus_uconst 8] [$sp+0]
	@DEBUG_VALUE: BufFind:n <- -1
	@DEBUG_VALUE: BufFind:n <- $r7
	@DEBUG_VALUE: BufFind:i <- $r4
	@DEBUG_VALUE: BufFind:rdi <- $r1
	@DEBUG_VALUE: BufFind:offs <- $r5
	.loc	5 798 11 is_stmt 1              @ C:/Users/shw26/AppData/Local/Arm/Packs/ARM/CMSIS-Driver/2.6.1/WiFi/ESP8266/BufList/BufList.c:798:11
	adds	r0, r7, #1
	beq	.LBB23_5
	b	.LBB23_23
.Ltmp362:
.LBB23_22:
	@DEBUG_VALUE: BufFind:buf_cb <- $r6
	@DEBUG_VALUE: BufFind:offs <- $r5
	@DEBUG_VALUE: BufFind:i <- $r4
	@DEBUG_VALUE: BufFind:rdi <- $r1
	@DEBUG_VALUE: BufFind:p <- [$sp+0]
	@DEBUG_VALUE: BufFind:data <- [DW_OP_plus_uconst 12] [$sp+0]
	@DEBUG_VALUE: BufFind:num <- [DW_OP_plus_uconst 8] [$sp+0]
	@DEBUG_VALUE: BufFind:n <- -1
	.loc	5 0 0 is_stmt 0                 @ C:/Users/shw26/AppData/Local/Arm/Packs/ARM/CMSIS-Driver/2.6.1/WiFi/ESP8266/BufList/BufList.c:0:0
	ldr	r7, [sp, #4]                    @ 4-byte Reload
.Ltmp363:
.LBB23_23:
	@DEBUG_VALUE: BufFind:rdi <- $r1
	@DEBUG_VALUE: BufFind:p <- [$sp+0]
	@DEBUG_VALUE: BufFind:data <- [DW_OP_plus_uconst 12] [$sp+0]
	@DEBUG_VALUE: BufFind:num <- [DW_OP_plus_uconst 8] [$sp+0]
	@DEBUG_VALUE: BufFind:n <- $r7
	.loc	5 804 3 is_stmt 1               @ C:/Users/shw26/AppData/Local/Arm/Packs/ARM/CMSIS-Driver/2.6.1/WiFi/ESP8266/BufList/BufList.c:804:3
	ldr	r0, [sp]                        @ 4-byte Reload
	bl	Unlock
.Ltmp364:
	.loc	5 806 3                         @ C:/Users/shw26/AppData/Local/Arm/Packs/ARM/CMSIS-Driver/2.6.1/WiFi/ESP8266/BufList/BufList.c:806:3
	mov	r0, r7
	add	sp, #20
.Ltmp365:
	pop	{r4, r5, r6, r7, pc}
.Ltmp366:
.Lfunc_end23:
	.size	BufFind, .Lfunc_end23-BufFind
	.cfi_endproc
	.cantunwind
	.fnend
                                        @ -- End function
	.section	.text.BufCompareString,"ax",%progbits
	.hidden	BufCompareString                @ -- Begin function BufCompareString
	.globl	BufCompareString
	.p2align	1
	.type	BufCompareString,%function
	.code	16                              @ @BufCompareString
	.thumb_func
BufCompareString:
.Lfunc_begin24:
	.loc	5 815 0                         @ C:/Users/shw26/AppData/Local/Arm/Packs/ARM/CMSIS-Driver/2.6.1/WiFi/ESP8266/BufList/BufList.c:815:0
	.fnstart
	.cfi_startproc
@ %bb.0:
	@DEBUG_VALUE: BufCompareString:string <- $r0
	@DEBUG_VALUE: BufCompareString:offs <- $r1
	@DEBUG_VALUE: BufCompareString:p <- $r2
	.save	{r4, r5, r6, r7, lr}
	push	{r4, r5, r6, r7, lr}
	.cfi_def_cfa_offset 20
	.cfi_offset lr, -4
	.cfi_offset r7, -8
	.cfi_offset r6, -12
	.cfi_offset r5, -16
	.cfi_offset r4, -20
	.pad	#12
	sub	sp, #12
	.cfi_def_cfa_offset 32
	mov	r4, r2
	mov	r5, r1
	mov	r6, r0
.Ltmp367:
	@DEBUG_VALUE: BufCompareString:rdi <- 0
	@DEBUG_VALUE: BufCompareString:p <- $r4
	@DEBUG_VALUE: BufCompareString:offs <- $r5
	@DEBUG_VALUE: BufCompareString:string <- $r6
	.loc	5 820 3 prologue_end            @ C:/Users/shw26/AppData/Local/Arm/Packs/ARM/CMSIS-Driver/2.6.1/WiFi/ESP8266/BufList/BufList.c:820:3
	mov	r0, r2
	bl	Lock
.Ltmp368:
	@DEBUG_VALUE: BufCompareString:n <- 0
	.loc	5 0 3 is_stmt 0                 @ C:/Users/shw26/AppData/Local/Arm/Packs/ARM/CMSIS-Driver/2.6.1/WiFi/ESP8266/BufList/BufList.c:0:3
	str	r4, [sp, #4]                    @ 4-byte Spill
.Ltmp369:
	@DEBUG_VALUE: BufCompareString:p <- [DW_OP_plus_uconst 4] [$sp+0]
	.loc	5 823 23 is_stmt 1              @ C:/Users/shw26/AppData/Local/Arm/Packs/ARM/CMSIS-Driver/2.6.1/WiFi/ESP8266/BufList/BufList.c:823:23
	mov	r0, r4
	bl	ListPeekHead
	mov	r4, r0
.Ltmp370:
	@DEBUG_VALUE: BufCompareString:buf_cb <- $r4
	.loc	5 0 23 is_stmt 0                @ C:/Users/shw26/AppData/Local/Arm/Packs/ARM/CMSIS-Driver/2.6.1/WiFi/ESP8266/BufList/BufList.c:0:23
	movs	r7, #0
	mov	r1, r7
	.loc	5 825 7 is_stmt 1               @ C:/Users/shw26/AppData/Local/Arm/Packs/ARM/CMSIS-Driver/2.6.1/WiFi/ESP8266/BufList/BufList.c:825:7
	cbz	r0, .LBB24_2
.Ltmp371:
@ %bb.1:
	@DEBUG_VALUE: BufCompareString:string <- $r6
	@DEBUG_VALUE: BufCompareString:offs <- $r5
	@DEBUG_VALUE: BufCompareString:buf_cb <- $r4
	@DEBUG_VALUE: BufCompareString:p <- [DW_OP_plus_uconst 4] [$sp+0]
	@DEBUG_VALUE: BufCompareString:n <- 0
	@DEBUG_VALUE: BufCompareString:rdi <- 0
	.loc	5 826 19                        @ C:/Users/shw26/AppData/Local/Arm/Packs/ARM/CMSIS-Driver/2.6.1/WiFi/ESP8266/BufList/BufList.c:826:19
	ldrh	r1, [r4, #10]
.Ltmp372:
	@DEBUG_VALUE: BufCompareString:rdi <- $r1
.LBB24_2:
	@DEBUG_VALUE: BufCompareString:string <- $r6
	@DEBUG_VALUE: BufCompareString:offs <- $r5
	@DEBUG_VALUE: BufCompareString:buf_cb <- $r4
	@DEBUG_VALUE: BufCompareString:p <- [DW_OP_plus_uconst 4] [$sp+0]
	@DEBUG_VALUE: BufCompareString:n <- 0
	@DEBUG_VALUE: BufCompareString:rdi <- $r1
	@DEBUG_VALUE: BufCompareString:n <- 0
	@DEBUG_VALUE: BufCompareString:buf_cb <- $r4
	@DEBUG_VALUE: BufCompareString:offs <- undef
	.loc	5 829 3                         @ C:/Users/shw26/AppData/Local/Arm/Packs/ARM/CMSIS-Driver/2.6.1/WiFi/ESP8266/BufList/BufList.c:829:3
	cbz	r4, .LBB24_20
.Ltmp373:
@ %bb.3:
	@DEBUG_VALUE: BufCompareString:string <- $r6
	@DEBUG_VALUE: BufCompareString:buf_cb <- $r4
	@DEBUG_VALUE: BufCompareString:rdi <- $r1
	@DEBUG_VALUE: BufCompareString:p <- [DW_OP_plus_uconst 4] [$sp+0]
	@DEBUG_VALUE: BufCompareString:n <- 0
	.loc	5 0 3 is_stmt 0                 @ C:/Users/shw26/AppData/Local/Arm/Packs/ARM/CMSIS-Driver/2.6.1/WiFi/ESP8266/BufList/BufList.c:0:3
	movs	r7, #0
	b	.LBB24_7
.Ltmp374:
.LBB24_4:                               @   in Loop: Header=BB24_7 Depth=1
	@DEBUG_VALUE: BufCompareString:n <- $r7
	@DEBUG_VALUE: BufCompareString:string <- $r6
	@DEBUG_VALUE: BufCompareString:offs <- $r5
	@DEBUG_VALUE: BufCompareString:buf_cb <- $r4
	@DEBUG_VALUE: BufCompareString:rdi <- $r1
	@DEBUG_VALUE: BufCompareString:p <- [DW_OP_plus_uconst 4] [$sp+0]
	.loc	5 844 11 is_stmt 1              @ C:/Users/shw26/AppData/Local/Arm/Packs/ARM/CMSIS-Driver/2.6.1/WiFi/ESP8266/BufList/BufList.c:844:11
	cbz	r5, .LBB24_10
.Ltmp375:
@ %bb.5:                                @   in Loop: Header=BB24_7 Depth=1
	@DEBUG_VALUE: BufCompareString:n <- $r7
	@DEBUG_VALUE: BufCompareString:string <- $r6
	@DEBUG_VALUE: BufCompareString:offs <- $r5
	@DEBUG_VALUE: BufCompareString:buf_cb <- $r4
	@DEBUG_VALUE: BufCompareString:rdi <- $r1
	@DEBUG_VALUE: BufCompareString:p <- [DW_OP_plus_uconst 4] [$sp+0]
	.loc	5 846 12                        @ C:/Users/shw26/AppData/Local/Arm/Packs/ARM/CMSIS-Driver/2.6.1/WiFi/ESP8266/BufList/BufList.c:846:12
	adds	r1, r1, #1
.Ltmp376:
	@DEBUG_VALUE: BufCompareString:rdi <- $r1
	.loc	5 845 13                        @ C:/Users/shw26/AppData/Local/Arm/Packs/ARM/CMSIS-Driver/2.6.1/WiFi/ESP8266/BufList/BufList.c:845:13
	subs	r5, r5, #1
.Ltmp377:
	@DEBUG_VALUE: BufCompareString:offs <- $r5
.LBB24_6:                               @   in Loop: Header=BB24_7 Depth=1
	@DEBUG_VALUE: BufCompareString:string <- $r6
	@DEBUG_VALUE: BufCompareString:offs <- $r5
	@DEBUG_VALUE: BufCompareString:buf_cb <- $r4
	@DEBUG_VALUE: BufCompareString:p <- [DW_OP_plus_uconst 4] [$sp+0]
	@DEBUG_VALUE: BufCompareString:offs <- $r5
	@DEBUG_VALUE: BufCompareString:rdi <- $r1
	@DEBUG_VALUE: BufCompareString:n <- $r7
	@DEBUG_VALUE: BufCompareString:buf_cb <- $r4
	.loc	5 829 3                         @ C:/Users/shw26/AppData/Local/Arm/Packs/ARM/CMSIS-Driver/2.6.1/WiFi/ESP8266/BufList/BufList.c:829:3
	cbz	r4, .LBB24_20
.Ltmp378:
.LBB24_7:                               @ =>This Loop Header: Depth=1
                                        @     Child Loop BB24_12 Depth 2
	@DEBUG_VALUE: BufCompareString:string <- $r6
	@DEBUG_VALUE: BufCompareString:buf_cb <- $r4
	@DEBUG_VALUE: BufCompareString:rdi <- $r1
	@DEBUG_VALUE: BufCompareString:p <- [DW_OP_plus_uconst 4] [$sp+0]
	@DEBUG_VALUE: BufCompareString:offs <- $r5
	@DEBUG_VALUE: BufCompareString:rdi <- $r1
	@DEBUG_VALUE: BufCompareString:n <- $r7
	@DEBUG_VALUE: BufCompareString:buf_cb <- $r4
	.loc	5 831 24                        @ C:/Users/shw26/AppData/Local/Arm/Packs/ARM/CMSIS-Driver/2.6.1/WiFi/ESP8266/BufList/BufList.c:831:24
	ldrh	r2, [r4, #8]
.Ltmp379:
	.loc	5 831 9 is_stmt 0               @ C:/Users/shw26/AppData/Local/Arm/Packs/ARM/CMSIS-Driver/2.6.1/WiFi/ESP8266/BufList/BufList.c:831:9
	cmp	r1, r2
	bne	.LBB24_4
.Ltmp380:
@ %bb.8:                                @   in Loop: Header=BB24_7 Depth=1
	@DEBUG_VALUE: BufCompareString:n <- $r7
	@DEBUG_VALUE: BufCompareString:string <- $r6
	@DEBUG_VALUE: BufCompareString:offs <- $r5
	@DEBUG_VALUE: BufCompareString:buf_cb <- $r4
	@DEBUG_VALUE: BufCompareString:rdi <- $r1
	@DEBUG_VALUE: BufCompareString:p <- [DW_OP_plus_uconst 4] [$sp+0]
	.loc	5 833 27 is_stmt 1              @ C:/Users/shw26/AppData/Local/Arm/Packs/ARM/CMSIS-Driver/2.6.1/WiFi/ESP8266/BufList/BufList.c:833:27
	mov	r0, r4
	bl	ListPeekNext
.Ltmp381:
	mov	r4, r0
.Ltmp382:
	@DEBUG_VALUE: BufCompareString:buf_cb <- $r4
	.loc	5 0 27 is_stmt 0                @ C:/Users/shw26/AppData/Local/Arm/Packs/ARM/CMSIS-Driver/2.6.1/WiFi/ESP8266/BufList/BufList.c:0:27
	movs	r1, #0
	.loc	5 835 11 is_stmt 1              @ C:/Users/shw26/AppData/Local/Arm/Packs/ARM/CMSIS-Driver/2.6.1/WiFi/ESP8266/BufList/BufList.c:835:11
	cmp	r0, #0
	bne	.LBB24_6
.Ltmp383:
@ %bb.9:                                @   in Loop: Header=BB24_7 Depth=1
	@DEBUG_VALUE: BufCompareString:n <- $r7
	@DEBUG_VALUE: BufCompareString:string <- $r6
	@DEBUG_VALUE: BufCompareString:offs <- $r5
	@DEBUG_VALUE: BufCompareString:buf_cb <- $r4
	@DEBUG_VALUE: BufCompareString:p <- [DW_OP_plus_uconst 4] [$sp+0]
	.loc	5 0 11 is_stmt 0                @ C:/Users/shw26/AppData/Local/Arm/Packs/ARM/CMSIS-Driver/2.6.1/WiFi/ESP8266/BufList/BufList.c:0:11
	mvns	r7, r1
.Ltmp384:
	b	.LBB24_6
.Ltmp385:
.LBB24_10:                              @   in Loop: Header=BB24_7 Depth=1
	@DEBUG_VALUE: BufCompareString:n <- $r7
	@DEBUG_VALUE: BufCompareString:string <- $r6
	@DEBUG_VALUE: BufCompareString:offs <- $r5
	@DEBUG_VALUE: BufCompareString:buf_cb <- $r4
	@DEBUG_VALUE: BufCompareString:rdi <- $r1
	@DEBUG_VALUE: BufCompareString:p <- [DW_OP_plus_uconst 4] [$sp+0]
	@DEBUG_VALUE: BufCompareString:rdi <- $r1
	@DEBUG_VALUE: BufCompareString:n <- $r7
	.loc	5 849 9 is_stmt 1               @ C:/Users/shw26/AppData/Local/Arm/Packs/ARM/CMSIS-Driver/2.6.1/WiFi/ESP8266/BufList/BufList.c:849:9
	cmp	r1, r2
	bhs	.LBB24_18
.Ltmp386:
@ %bb.11:                               @   in Loop: Header=BB24_7 Depth=1
	@DEBUG_VALUE: BufCompareString:n <- $r7
	@DEBUG_VALUE: BufCompareString:string <- $r6
	@DEBUG_VALUE: BufCompareString:offs <- $r5
	@DEBUG_VALUE: BufCompareString:buf_cb <- $r4
	@DEBUG_VALUE: BufCompareString:rdi <- $r1
	@DEBUG_VALUE: BufCompareString:p <- [DW_OP_plus_uconst 4] [$sp+0]
	.loc	5 0 9 is_stmt 0                 @ C:/Users/shw26/AppData/Local/Arm/Packs/ARM/CMSIS-Driver/2.6.1/WiFi/ESP8266/BufList/BufList.c:0:9
	str	r5, [sp, #8]                    @ 4-byte Spill
.Ltmp387:
	@DEBUG_VALUE: BufCompareString:offs <- [DW_OP_plus_uconst 8] [$sp+0]
	.loc	5 849 9                         @ C:/Users/shw26/AppData/Local/Arm/Packs/ARM/CMSIS-Driver/2.6.1/WiFi/ESP8266/BufList/BufList.c:849:9
	adds	r0, r7, r2
	subs	r0, r0, r1
	str	r0, [sp]                        @ 4-byte Spill
	mov	r0, r4
	adds	r0, #12
.Ltmp388:
.LBB24_12:                              @   Parent Loop BB24_7 Depth=1
                                        @ =>  This Inner Loop Header: Depth=2
	@DEBUG_VALUE: BufCompareString:offs <- [DW_OP_plus_uconst 8] [$sp+0]
	@DEBUG_VALUE: BufCompareString:n <- $r7
	@DEBUG_VALUE: BufCompareString:string <- $r6
	@DEBUG_VALUE: BufCompareString:buf_cb <- $r4
	@DEBUG_VALUE: BufCompareString:rdi <- $r1
	@DEBUG_VALUE: BufCompareString:p <- [DW_OP_plus_uconst 4] [$sp+0]
	@DEBUG_VALUE: BufCompareString:rdi <- $r1
	@DEBUG_VALUE: BufCompareString:n <- $r7
	.loc	5 850 15 is_stmt 1              @ C:/Users/shw26/AppData/Local/Arm/Packs/ARM/CMSIS-Driver/2.6.1/WiFi/ESP8266/BufList/BufList.c:850:15
	ldrb	r3, [r6, r7]
.Ltmp389:
	.loc	5 850 15 is_stmt 0              @ C:/Users/shw26/AppData/Local/Arm/Packs/ARM/CMSIS-Driver/2.6.1/WiFi/ESP8266/BufList/BufList.c:850:15
	cbz	r3, .LBB24_17
.Ltmp390:
@ %bb.13:                               @   in Loop: Header=BB24_12 Depth=2
	@DEBUG_VALUE: BufCompareString:offs <- [DW_OP_plus_uconst 8] [$sp+0]
	@DEBUG_VALUE: BufCompareString:n <- $r7
	@DEBUG_VALUE: BufCompareString:string <- $r6
	@DEBUG_VALUE: BufCompareString:buf_cb <- $r4
	@DEBUG_VALUE: BufCompareString:rdi <- $r1
	@DEBUG_VALUE: BufCompareString:p <- [DW_OP_plus_uconst 4] [$sp+0]
	.loc	5 855 28 is_stmt 1              @ C:/Users/shw26/AppData/Local/Arm/Packs/ARM/CMSIS-Driver/2.6.1/WiFi/ESP8266/BufList/BufList.c:855:28
	ldrb	r5, [r0, r1]
.Ltmp391:
	.loc	5 855 15 is_stmt 0              @ C:/Users/shw26/AppData/Local/Arm/Packs/ARM/CMSIS-Driver/2.6.1/WiFi/ESP8266/BufList/BufList.c:855:15
	cmp	r3, r5
	bne	.LBB24_16
.Ltmp392:
@ %bb.14:                               @   in Loop: Header=BB24_12 Depth=2
	@DEBUG_VALUE: BufCompareString:offs <- [DW_OP_plus_uconst 8] [$sp+0]
	@DEBUG_VALUE: BufCompareString:n <- $r7
	@DEBUG_VALUE: BufCompareString:string <- $r6
	@DEBUG_VALUE: BufCompareString:buf_cb <- $r4
	@DEBUG_VALUE: BufCompareString:rdi <- $r1
	@DEBUG_VALUE: BufCompareString:p <- [DW_OP_plus_uconst 4] [$sp+0]
	.loc	5 861 14 is_stmt 1              @ C:/Users/shw26/AppData/Local/Arm/Packs/ARM/CMSIS-Driver/2.6.1/WiFi/ESP8266/BufList/BufList.c:861:14
	adds	r1, r1, #1
.Ltmp393:
	@DEBUG_VALUE: BufCompareString:rdi <- $r1
	.loc	5 860 12                        @ C:/Users/shw26/AppData/Local/Arm/Packs/ARM/CMSIS-Driver/2.6.1/WiFi/ESP8266/BufList/BufList.c:860:12
	adds	r7, r7, #1
.Ltmp394:
	@DEBUG_VALUE: BufCompareString:n <- $r7
	.loc	5 849 9                         @ C:/Users/shw26/AppData/Local/Arm/Packs/ARM/CMSIS-Driver/2.6.1/WiFi/ESP8266/BufList/BufList.c:849:9
	cmp	r2, r1
	bne	.LBB24_12
.Ltmp395:
@ %bb.15:                               @   in Loop: Header=BB24_7 Depth=1
	@DEBUG_VALUE: BufCompareString:offs <- [DW_OP_plus_uconst 8] [$sp+0]
	@DEBUG_VALUE: BufCompareString:n <- $r7
	@DEBUG_VALUE: BufCompareString:string <- $r6
	@DEBUG_VALUE: BufCompareString:buf_cb <- $r4
	@DEBUG_VALUE: BufCompareString:rdi <- $r1
	@DEBUG_VALUE: BufCompareString:p <- [DW_OP_plus_uconst 4] [$sp+0]
	.loc	5 0 0 is_stmt 0                 @ C:/Users/shw26/AppData/Local/Arm/Packs/ARM/CMSIS-Driver/2.6.1/WiFi/ESP8266/BufList/BufList.c:0:0
	mov	r1, r2
.Ltmp396:
	ldr	r7, [sp]                        @ 4-byte Reload
.Ltmp397:
	b	.LBB24_17
.Ltmp398:
.LBB24_16:                              @   in Loop: Header=BB24_7 Depth=1
	@DEBUG_VALUE: BufCompareString:offs <- [DW_OP_plus_uconst 8] [$sp+0]
	@DEBUG_VALUE: BufCompareString:n <- $r7
	@DEBUG_VALUE: BufCompareString:string <- $r6
	@DEBUG_VALUE: BufCompareString:buf_cb <- $r4
	@DEBUG_VALUE: BufCompareString:rdi <- $r1
	@DEBUG_VALUE: BufCompareString:p <- [DW_OP_plus_uconst 4] [$sp+0]
	movs	r7, #0
.Ltmp399:
.LBB24_17:                              @   in Loop: Header=BB24_7 Depth=1
	@DEBUG_VALUE: BufCompareString:offs <- [DW_OP_plus_uconst 8] [$sp+0]
	@DEBUG_VALUE: BufCompareString:string <- $r6
	@DEBUG_VALUE: BufCompareString:buf_cb <- $r4
	@DEBUG_VALUE: BufCompareString:p <- [DW_OP_plus_uconst 4] [$sp+0]
	ldr	r5, [sp, #8]                    @ 4-byte Reload
.Ltmp400:
	@DEBUG_VALUE: BufCompareString:offs <- $r5
.LBB24_18:                              @   in Loop: Header=BB24_7 Depth=1
	@DEBUG_VALUE: BufCompareString:string <- $r6
	@DEBUG_VALUE: BufCompareString:offs <- $r5
	@DEBUG_VALUE: BufCompareString:buf_cb <- $r4
	@DEBUG_VALUE: BufCompareString:p <- [DW_OP_plus_uconst 4] [$sp+0]
	@DEBUG_VALUE: BufCompareString:rdi <- $r1
	@DEBUG_VALUE: BufCompareString:n <- $r7
	.loc	5 864 22 is_stmt 1              @ C:/Users/shw26/AppData/Local/Arm/Packs/ARM/CMSIS-Driver/2.6.1/WiFi/ESP8266/BufList/BufList.c:864:22
	cmp	r7, #1
	blt	.LBB24_20
.Ltmp401:
@ %bb.19:                               @   in Loop: Header=BB24_7 Depth=1
	@DEBUG_VALUE: BufCompareString:n <- $r7
	@DEBUG_VALUE: BufCompareString:string <- $r6
	@DEBUG_VALUE: BufCompareString:offs <- $r5
	@DEBUG_VALUE: BufCompareString:buf_cb <- $r4
	@DEBUG_VALUE: BufCompareString:rdi <- $r1
	@DEBUG_VALUE: BufCompareString:p <- [DW_OP_plus_uconst 4] [$sp+0]
	.loc	5 864 26 is_stmt 0              @ C:/Users/shw26/AppData/Local/Arm/Packs/ARM/CMSIS-Driver/2.6.1/WiFi/ESP8266/BufList/BufList.c:864:26
	ldrb	r0, [r6, r7]
.Ltmp402:
	.loc	5 864 13                        @ C:/Users/shw26/AppData/Local/Arm/Packs/ARM/CMSIS-Driver/2.6.1/WiFi/ESP8266/BufList/BufList.c:864:13
	cmp	r0, #0
	bne	.LBB24_6
.Ltmp403:
.LBB24_20:
	@DEBUG_VALUE: BufCompareString:string <- $r6
	@DEBUG_VALUE: BufCompareString:buf_cb <- $r4
	@DEBUG_VALUE: BufCompareString:rdi <- $r1
	@DEBUG_VALUE: BufCompareString:p <- [DW_OP_plus_uconst 4] [$sp+0]
	@DEBUG_VALUE: BufCompareString:n <- $r7
	.loc	5 872 3 is_stmt 1               @ C:/Users/shw26/AppData/Local/Arm/Packs/ARM/CMSIS-Driver/2.6.1/WiFi/ESP8266/BufList/BufList.c:872:3
	ldr	r0, [sp, #4]                    @ 4-byte Reload
	bl	Unlock
.Ltmp404:
	.loc	5 874 3                         @ C:/Users/shw26/AppData/Local/Arm/Packs/ARM/CMSIS-Driver/2.6.1/WiFi/ESP8266/BufList/BufList.c:874:3
	mov	r0, r7
	add	sp, #12
.Ltmp405:
	pop	{r4, r5, r6, r7, pc}
.Ltmp406:
.Lfunc_end24:
	.size	BufCompareString, .Lfunc_end24-BufCompareString
	.cfi_endproc
	.cantunwind
	.fnend
                                        @ -- End function
	.section	".note.GNU-stack","",%progbits
	.eabi_attribute	30, 1	@ Tag_ABI_optimization_goals
	.ARM_attribute	16, 1	@ Tag_AV_eba