	.text
	.syntax unified
	.eabi_attribute	67, "2.09"	@ Tag_conformance
	.cpu	cortex-m23
	.eabi_attribute	6, 16	@ Tag_CPU_arch
	.eabi_attribute	7, 77	@ Tag_CPU_arch_profile
	.eabi_attribute	8, 0	@ Tag_ARM_ISA_use
	.eabi_attribute	9, 3	@ Tag_THUMB_ISA_use
	.eabi_attribute	34, 0	@ Tag_CPU_unaligned_access
	.eabi_attribute	17, 1	@ Tag_ABI_PCS_GOT_use
	.eabi_attribute	20, 2	@ Tag_ABI_FP_denormal
	.eabi_attribute	21, 0	@ Tag_ABI_FP_exceptions
	.eabi_attribute	23, 1	@ Tag_ABI_FP_number_model
	.eabi_attribute	24, 1	@ Tag_ABI_align_needed
	.eabi_attribute	25, 1	@ Tag_ABI_align_preserved
	.eabi_attribute	38, 1	@ Tag_ABI_FP_16bit_format
	.eabi_attribute	18, 2	@ Tag_ABI_PCS_wchar_t
	.eabi_attribute	26, 1	@ Tag_ABI_enum_size
	.eabi_attribute	14, 0	@ Tag_ABI_PCS_R9_use
	.file	"camellia.c"
	.file	1 "C:\\Users\\shw26\\OneDrive\\Desktop\\2021\\2021-1\\\354\272\241\354\212\244\355\206\244\353\224\224\354\236\220\354\235\2702\\Nuvoton\\M2351_BSP_v3.00.004\\M2351Series_BSP_CMSIS_V3.00.004\\MyProject\\PulseMonitoring\\Secure" "../../../ThirdParty/mbedTLS/library/camellia.c"
	.file	2 "C:\\" "Keil_v5\\ARM\\ARMCLANG\\Bin\\..\\include\\stdint.h"
	.section	.text.mbedtls_camellia_init,"ax",%progbits
	.hidden	mbedtls_camellia_init           @ -- Begin function mbedtls_camellia_init
	.globl	mbedtls_camellia_init
	.p2align	1
	.type	mbedtls_camellia_init,%function
	.code	16                              @ @mbedtls_camellia_init
	.thumb_func
mbedtls_camellia_init:
.Lfunc_begin0:
	.loc	1 337 0                         @ ../../../ThirdParty/mbedTLS/library/camellia.c:337:0
	.fnstart
	.cfi_sections .debug_frame
	.cfi_startproc
@ %bb.0:
	@DEBUG_VALUE: mbedtls_camellia_init:ctx <- $r0
	@DEBUG_VALUE: mbedtls_camellia_init:ctx <- $r0
	@DEBUG_VALUE: mbedtls_camellia_init:ctx <- $r0
	.save	{r7, lr}
	push	{r7, lr}
	.cfi_def_cfa_offset 8
	.cfi_offset lr, -4
	.cfi_offset r7, -8
.Ltmp0:
	.loc	1 339 5 prologue_end            @ ../../../ThirdParty/mbedTLS/library/camellia.c:339:5
	movw	r1, #276
	bl	__aeabi_memclr4
.Ltmp1:
	@DEBUG_VALUE: mbedtls_camellia_init:ctx <- [DW_OP_LLVM_entry_value 1] $r0
	.loc	1 340 1                         @ ../../../ThirdParty/mbedTLS/library/camellia.c:340:1
	pop	{r7, pc}
.Ltmp2:
.Lfunc_end0:
	.size	mbedtls_camellia_init, .Lfunc_end0-mbedtls_camellia_init
	.cfi_endproc
	.cantunwind
	.fnend
                                        @ -- End function
	.section	.text.mbedtls_camellia_free,"ax",%progbits
	.hidden	mbedtls_camellia_free           @ -- Begin function mbedtls_camellia_free
	.globl	mbedtls_camellia_free
	.p2align	1
	.type	mbedtls_camellia_free,%function
	.code	16                              @ @mbedtls_camellia_free
	.thumb_func
mbedtls_camellia_free:
.Lfunc_begin1:
	.loc	1 343 0                         @ ../../../ThirdParty/mbedTLS/library/camellia.c:343:0
	.fnstart
	.cfi_startproc
@ %bb.0:
	@DEBUG_VALUE: mbedtls_camellia_free:ctx <- $r0
	@DEBUG_VALUE: mbedtls_camellia_free:ctx <- $r0
	.save	{r7, lr}
	push	{r7, lr}
	.cfi_def_cfa_offset 8
	.cfi_offset lr, -4
	.cfi_offset r7, -8
.Ltmp3:
	.loc	1 344 9 prologue_end            @ ../../../ThirdParty/mbedTLS/library/camellia.c:344:9
	cbz	r0, .LBB1_2
.Ltmp4:
@ %bb.1:
	@DEBUG_VALUE: mbedtls_camellia_free:ctx <- $r0
	.loc	1 347 5                         @ ../../../ThirdParty/mbedTLS/library/camellia.c:347:5
	movw	r1, #276
	bl	mbedtls_platform_zeroize
.Ltmp5:
	@DEBUG_VALUE: mbedtls_camellia_free:ctx <- [DW_OP_LLVM_entry_value 1] $r0
.LBB1_2:
	.loc	1 348 1                         @ ../../../ThirdParty/mbedTLS/library/camellia.c:348:1
	pop	{r7, pc}
.Ltmp6:
.Lfunc_end1:
	.size	mbedtls_camellia_free, .Lfunc_end1-mbedtls_camellia_free
	.cfi_endproc
	.cantunwind
	.fnend
                                        @ -- End function
	.section	.text.mbedtls_camellia_setkey_enc,"ax",%progbits
	.hidden	mbedtls_camellia_setkey_enc     @ -- Begin function mbedtls_camellia_setkey_enc
	.globl	mbedtls_camellia_setkey_enc
	.p2align	2
	.type	mbedtls_camellia_setkey_enc,%function
	.code	16                              @ @mbedtls_camellia_setkey_enc
	.thumb_func
mbedtls_camellia_setkey_enc:
.Lfunc_begin2:
	.loc	1 356 0                         @ ../../../ThirdParty/mbedTLS/library/camellia.c:356:0
	.fnstart
	.cfi_startproc
@ %bb.0:
	@DEBUG_VALUE: mbedtls_camellia_setkey_enc:ctx <- $r0
	@DEBUG_VALUE: mbedtls_camellia_setkey_enc:key <- $r1
	@DEBUG_VALUE: mbedtls_camellia_setkey_enc:keybits <- $r2
	.save	{r4, r5, r6, r7, lr}
	push	{r4, r5, r6, r7, lr}
	.cfi_def_cfa_offset 20
	.cfi_offset lr, -4
	.cfi_offset r7, -8
	.cfi_offset r6, -12
	.cfi_offset r5, -16
	.cfi_offset r4, -20
	.pad	#292
	sub	sp, #292
	.cfi_def_cfa_offset 312
	mov	r4, r2
	mov	r5, r1
	mov	r6, r0
.Ltmp7:
	@DEBUG_VALUE: mbedtls_camellia_setkey_enc:keybits <- $r4
	@DEBUG_VALUE: mbedtls_camellia_setkey_enc:key <- $r5
	@DEBUG_VALUE: mbedtls_camellia_setkey_enc:ctx <- $r6
	add	r0, sp, #228
	movs	r1, #64
.Ltmp8:
	.loc	1 370 5 prologue_end            @ ../../../ThirdParty/mbedTLS/library/camellia.c:370:5
	bl	__aeabi_memclr4
	str	r6, [sp, #16]                   @ 4-byte Spill
.Ltmp9:
	@DEBUG_VALUE: mbedtls_camellia_setkey_enc:ctx <- [DW_OP_plus_uconst 16] [$sp+0]
	.loc	1 368 10                        @ ../../../ThirdParty/mbedTLS/library/camellia.c:368:10
	adds	r0, r6, #4
.Ltmp10:
	@DEBUG_VALUE: mbedtls_camellia_setkey_enc:RK <- $r0
	.loc	1 371 5                         @ ../../../ThirdParty/mbedTLS/library/camellia.c:371:5
	movw	r1, #272
	bl	__aeabi_memclr4
.Ltmp11:
	@DEBUG_VALUE: mbedtls_camellia_setkey_enc:keybits <- $r4
	.loc	1 0 5 is_stmt 0                 @ ../../../ThirdParty/mbedTLS/library/camellia.c:0:5
	movs	r1, #15
	mvns	r6, r1
	.loc	1 373 5 is_stmt 1               @ ../../../ThirdParty/mbedTLS/library/camellia.c:373:5
	cmp	r4, #128
	beq	.LBB2_4
.Ltmp12:
@ %bb.1:
	@DEBUG_VALUE: mbedtls_camellia_setkey_enc:key <- $r5
	@DEBUG_VALUE: mbedtls_camellia_setkey_enc:keybits <- $r4
	@DEBUG_VALUE: mbedtls_camellia_setkey_enc:ctx <- [DW_OP_plus_uconst 16] [$sp+0]
	.loc	1 0 5 is_stmt 0                 @ ../../../ThirdParty/mbedTLS/library/camellia.c:0:5
	movw	r0, #256
	.loc	1 373 5                         @ ../../../ThirdParty/mbedTLS/library/camellia.c:373:5
	cmp	r4, r0
	beq	.LBB2_3
.Ltmp13:
@ %bb.2:
	@DEBUG_VALUE: mbedtls_camellia_setkey_enc:key <- $r5
	@DEBUG_VALUE: mbedtls_camellia_setkey_enc:keybits <- $r4
	@DEBUG_VALUE: mbedtls_camellia_setkey_enc:ctx <- [DW_OP_plus_uconst 16] [$sp+0]
	cmp	r4, #192
	beq	.LBB2_3
	b	.LBB2_59
.Ltmp14:
.LBB2_3:
	@DEBUG_VALUE: mbedtls_camellia_setkey_enc:key <- $r5
	@DEBUG_VALUE: mbedtls_camellia_setkey_enc:keybits <- $r4
	@DEBUG_VALUE: mbedtls_camellia_setkey_enc:ctx <- [DW_OP_plus_uconst 16] [$sp+0]
	.loc	1 0 5                           @ ../../../ThirdParty/mbedTLS/library/camellia.c:0:5
	str	r1, [sp, #32]                   @ 4-byte Spill
	movs	r0, #1
	str	r0, [sp, #8]                    @ 4-byte Spill
	movs	r0, #4
.Ltmp15:
	@DEBUG_VALUE: mbedtls_camellia_setkey_enc:idx <- 1
	b	.LBB2_5
.Ltmp16:
.LBB2_4:
	@DEBUG_VALUE: mbedtls_camellia_setkey_enc:key <- $r5
	@DEBUG_VALUE: mbedtls_camellia_setkey_enc:keybits <- $r4
	@DEBUG_VALUE: mbedtls_camellia_setkey_enc:ctx <- [DW_OP_plus_uconst 16] [$sp+0]
	str	r1, [sp, #32]                   @ 4-byte Spill
	movs	r0, #0
	str	r0, [sp, #8]                    @ 4-byte Spill
	movs	r0, #3
.Ltmp17:
.LBB2_5:
	@DEBUG_VALUE: mbedtls_camellia_setkey_enc:key <- $r5
	@DEBUG_VALUE: mbedtls_camellia_setkey_enc:keybits <- $r4
	@DEBUG_VALUE: mbedtls_camellia_setkey_enc:ctx <- [DW_OP_plus_uconst 16] [$sp+0]
	ldr	r1, [sp, #16]                   @ 4-byte Reload
	str	r0, [r1]
.Ltmp18:
	@DEBUG_VALUE: mbedtls_camellia_setkey_enc:i <- 0
	@DEBUG_VALUE: mbedtls_camellia_setkey_enc:idx <- [DW_OP_plus_uconst 8] [$sp+0]
	.loc	1 388 29 is_stmt 1              @ ../../../ThirdParty/mbedTLS/library/camellia.c:388:29
	lsrs	r2, r4, #3
.Ltmp19:
	.loc	1 388 5 is_stmt 0               @ ../../../ThirdParty/mbedTLS/library/camellia.c:388:5
	beq	.LBB2_7
.Ltmp20:
@ %bb.6:
	@DEBUG_VALUE: mbedtls_camellia_setkey_enc:key <- $r5
	@DEBUG_VALUE: mbedtls_camellia_setkey_enc:keybits <- $r4
	@DEBUG_VALUE: mbedtls_camellia_setkey_enc:idx <- [DW_OP_plus_uconst 8] [$sp+0]
	@DEBUG_VALUE: mbedtls_camellia_setkey_enc:ctx <- [DW_OP_plus_uconst 16] [$sp+0]
	@DEBUG_VALUE: mbedtls_camellia_setkey_enc:i <- 0
	.loc	1 0 5                           @ ../../../ThirdParty/mbedTLS/library/camellia.c:0:5
	add	r0, sp, #228
.Ltmp21:
	.loc	1 389 14 is_stmt 1              @ ../../../ThirdParty/mbedTLS/library/camellia.c:389:14
	mov	r1, r5
	bl	__aeabi_memcpy
.Ltmp22:
	@DEBUG_VALUE: mbedtls_camellia_setkey_enc:i <- undef
.LBB2_7:
	@DEBUG_VALUE: mbedtls_camellia_setkey_enc:key <- $r5
	@DEBUG_VALUE: mbedtls_camellia_setkey_enc:keybits <- $r4
	@DEBUG_VALUE: mbedtls_camellia_setkey_enc:idx <- [DW_OP_plus_uconst 8] [$sp+0]
	@DEBUG_VALUE: mbedtls_camellia_setkey_enc:ctx <- [DW_OP_plus_uconst 16] [$sp+0]
	.loc	1 0 14 is_stmt 0                @ ../../../ThirdParty/mbedTLS/library/camellia.c:0:14
	str	r4, [sp, #4]                    @ 4-byte Spill
.Ltmp23:
	@DEBUG_VALUE: mbedtls_camellia_setkey_enc:keybits <- [DW_OP_plus_uconst 4] [$sp+0]
	.loc	1 391 9 is_stmt 1               @ ../../../ThirdParty/mbedTLS/library/camellia.c:391:9
	cmp	r4, #192
	bne	.LBB2_10
.Ltmp24:
@ %bb.8:
	@DEBUG_VALUE: mbedtls_camellia_setkey_enc:keybits <- [DW_OP_plus_uconst 4] [$sp+0]
	@DEBUG_VALUE: mbedtls_camellia_setkey_enc:key <- $r5
	@DEBUG_VALUE: mbedtls_camellia_setkey_enc:idx <- [DW_OP_plus_uconst 8] [$sp+0]
	@DEBUG_VALUE: mbedtls_camellia_setkey_enc:ctx <- [DW_OP_plus_uconst 16] [$sp+0]
	.loc	1 0 9 is_stmt 0                 @ ../../../ThirdParty/mbedTLS/library/camellia.c:0:9
	mov	r0, r6
	adds	r0, #8
	movs	r1, #32
.Ltmp25:
.LBB2_9:                                @ =>This Inner Loop Header: Depth=1
	@DEBUG_VALUE: mbedtls_camellia_setkey_enc:keybits <- [DW_OP_plus_uconst 4] [$sp+0]
	@DEBUG_VALUE: mbedtls_camellia_setkey_enc:key <- $r5
	@DEBUG_VALUE: mbedtls_camellia_setkey_enc:idx <- [DW_OP_plus_uconst 8] [$sp+0]
	@DEBUG_VALUE: mbedtls_camellia_setkey_enc:ctx <- [DW_OP_plus_uconst 16] [$sp+0]
	@DEBUG_VALUE: mbedtls_camellia_setkey_enc:i <- undef
	add	r2, sp, #228
.Ltmp26:
	.loc	1 393 26 is_stmt 1              @ ../../../ThirdParty/mbedTLS/library/camellia.c:393:26
	adds	r2, r2, r0
	ldrb	r3, [r2, #24]
	.loc	1 393 25 is_stmt 0              @ ../../../ThirdParty/mbedTLS/library/camellia.c:393:25
	mvns	r3, r3
	.loc	1 393 23                        @ ../../../ThirdParty/mbedTLS/library/camellia.c:393:23
	strb	r3, [r2, r1]
.Ltmp27:
	@DEBUG_VALUE: mbedtls_camellia_setkey_enc:i <- [DW_OP_plus_uconst 1, DW_OP_stack_value] undef
	.loc	1 392 23 is_stmt 1              @ ../../../ThirdParty/mbedTLS/library/camellia.c:392:23
	adds	r0, r0, #1
.Ltmp28:
	.loc	1 392 9 is_stmt 0               @ ../../../ThirdParty/mbedTLS/library/camellia.c:392:9
	blo	.LBB2_9
.Ltmp29:
.LBB2_10:
	@DEBUG_VALUE: mbedtls_camellia_setkey_enc:keybits <- [DW_OP_plus_uconst 4] [$sp+0]
	@DEBUG_VALUE: mbedtls_camellia_setkey_enc:key <- $r5
	@DEBUG_VALUE: mbedtls_camellia_setkey_enc:idx <- [DW_OP_plus_uconst 8] [$sp+0]
	@DEBUG_VALUE: mbedtls_camellia_setkey_enc:ctx <- [DW_OP_plus_uconst 16] [$sp+0]
	.loc	1 0 9                           @ ../../../ThirdParty/mbedTLS/library/camellia.c:0:9
	movs	r0, #0
	ldr	r1, __arm_cp.2_0
.Ltmp30:
.LBB2_11:                               @ =>This Inner Loop Header: Depth=1
	@DEBUG_VALUE: mbedtls_camellia_setkey_enc:keybits <- [DW_OP_plus_uconst 4] [$sp+0]
	@DEBUG_VALUE: mbedtls_camellia_setkey_enc:idx <- [DW_OP_plus_uconst 8] [$sp+0]
	@DEBUG_VALUE: mbedtls_camellia_setkey_enc:ctx <- [DW_OP_plus_uconst 16] [$sp+0]
	@DEBUG_VALUE: mbedtls_camellia_setkey_enc:i <- undef
	.loc	1 400 9 is_stmt 1               @ ../../../ThirdParty/mbedTLS/library/camellia.c:400:9
	ldrb	r2, [r1, r0]
	lsls	r3, r2, #24
	adds	r2, r1, r0
	ldrb	r4, [r2, #1]
	lsls	r4, r4, #16
	adds	r3, r4, r3
	ldrb	r4, [r2, #2]
	lsls	r4, r4, #8
	adds	r3, r3, r4
	ldrb	r4, [r2, #3]
	adds	r3, r3, r4
	add	r4, sp, #180
	str	r3, [r4, r0]
.Ltmp31:
	.loc	1 401 9                         @ ../../../ThirdParty/mbedTLS/library/camellia.c:401:9
	ldrb	r3, [r2, #4]
	lsls	r3, r3, #24
	ldrb	r5, [r2, #5]
	lsls	r5, r5, #16
	adds	r3, r5, r3
	ldrb	r5, [r2, #6]
	lsls	r5, r5, #8
	adds	r3, r3, r5
	ldrb	r2, [r2, #7]
	adds	r2, r3, r2
.Ltmp32:
	.loc	1 400 9                         @ ../../../ThirdParty/mbedTLS/library/camellia.c:400:9
	adds	r3, r4, r0
.Ltmp33:
	.loc	1 401 9                         @ ../../../ThirdParty/mbedTLS/library/camellia.c:401:9
	str	r2, [r3, #4]
.Ltmp34:
	@DEBUG_VALUE: mbedtls_camellia_setkey_enc:i <- [DW_OP_plus_uconst 1, DW_OP_stack_value] undef
	.loc	1 399 19                        @ ../../../ThirdParty/mbedTLS/library/camellia.c:399:19
	adds	r0, #8
.Ltmp35:
	.loc	1 399 5 is_stmt 0               @ ../../../ThirdParty/mbedTLS/library/camellia.c:399:5
	cmp	r0, #48
	bne	.LBB2_11
.Ltmp36:
@ %bb.12:
	@DEBUG_VALUE: mbedtls_camellia_setkey_enc:keybits <- [DW_OP_plus_uconst 4] [$sp+0]
	@DEBUG_VALUE: mbedtls_camellia_setkey_enc:idx <- [DW_OP_plus_uconst 8] [$sp+0]
	@DEBUG_VALUE: mbedtls_camellia_setkey_enc:ctx <- [DW_OP_plus_uconst 16] [$sp+0]
	.loc	1 0 5                           @ ../../../ThirdParty/mbedTLS/library/camellia.c:0:5
	add	r0, sp, #116
	movs	r1, #64
	.loc	1 408 5 is_stmt 1               @ ../../../ThirdParty/mbedTLS/library/camellia.c:408:5
	bl	__aeabi_memclr4
	movs	r0, #0
.Ltmp37:
	@DEBUG_VALUE: mbedtls_camellia_setkey_enc:i <- 0
.LBB2_13:                               @ =>This Inner Loop Header: Depth=1
	@DEBUG_VALUE: mbedtls_camellia_setkey_enc:keybits <- [DW_OP_plus_uconst 4] [$sp+0]
	@DEBUG_VALUE: mbedtls_camellia_setkey_enc:idx <- [DW_OP_plus_uconst 8] [$sp+0]
	@DEBUG_VALUE: mbedtls_camellia_setkey_enc:ctx <- [DW_OP_plus_uconst 16] [$sp+0]
	@DEBUG_VALUE: mbedtls_camellia_setkey_enc:i <- undef
	.loc	1 0 5 is_stmt 0                 @ ../../../ThirdParty/mbedTLS/library/camellia.c:0:5
	add	r1, sp, #228
.Ltmp38:
	.loc	1 412 9 is_stmt 1               @ ../../../ThirdParty/mbedTLS/library/camellia.c:412:9
	ldrb	r2, [r1, r0]
	lsls	r2, r2, #24
	adds	r1, r1, r0
	ldrb	r3, [r1, #1]
	lsls	r3, r3, #16
	adds	r2, r3, r2
	ldrb	r3, [r1, #2]
	lsls	r3, r3, #8
	adds	r2, r2, r3
	ldrb	r1, [r1, #3]
	adds	r1, r2, r1
	add	r2, sp, #116
	str	r1, [r2, r0]
.Ltmp39:
	@DEBUG_VALUE: mbedtls_camellia_setkey_enc:i <- [DW_OP_plus_uconst 1, DW_OP_stack_value] undef
	.loc	1 411 19                        @ ../../../ThirdParty/mbedTLS/library/camellia.c:411:19
	adds	r0, r0, #4
.Ltmp40:
	.loc	1 411 5 is_stmt 0               @ ../../../ThirdParty/mbedTLS/library/camellia.c:411:5
	cmp	r0, #32
	bne	.LBB2_13
.Ltmp41:
@ %bb.14:
	@DEBUG_VALUE: mbedtls_camellia_setkey_enc:keybits <- [DW_OP_plus_uconst 4] [$sp+0]
	@DEBUG_VALUE: mbedtls_camellia_setkey_enc:idx <- [DW_OP_plus_uconst 8] [$sp+0]
	@DEBUG_VALUE: mbedtls_camellia_setkey_enc:ctx <- [DW_OP_plus_uconst 16] [$sp+0]
	.loc	1 0 5                           @ ../../../ThirdParty/mbedTLS/library/camellia.c:0:5
	mov	r0, r6
.Ltmp42:
.LBB2_15:                               @ =>This Inner Loop Header: Depth=1
	@DEBUG_VALUE: mbedtls_camellia_setkey_enc:keybits <- [DW_OP_plus_uconst 4] [$sp+0]
	@DEBUG_VALUE: mbedtls_camellia_setkey_enc:idx <- [DW_OP_plus_uconst 8] [$sp+0]
	@DEBUG_VALUE: mbedtls_camellia_setkey_enc:ctx <- [DW_OP_plus_uconst 16] [$sp+0]
	@DEBUG_VALUE: mbedtls_camellia_setkey_enc:i <- undef
	add	r1, sp, #116
.Ltmp43:
	.loc	1 416 21 is_stmt 1              @ ../../../ThirdParty/mbedTLS/library/camellia.c:416:21
	adds	r1, r1, r0
	ldr	r2, [r1, #16]
	.loc	1 416 29 is_stmt 0              @ ../../../ThirdParty/mbedTLS/library/camellia.c:416:29
	ldr	r3, [r1, #32]
	.loc	1 416 27                        @ ../../../ThirdParty/mbedTLS/library/camellia.c:416:27
	eors	r3, r2
	.loc	1 416 19                        @ ../../../ThirdParty/mbedTLS/library/camellia.c:416:19
	str	r3, [r1, #48]
.Ltmp44:
	@DEBUG_VALUE: mbedtls_camellia_setkey_enc:i <- [DW_OP_plus_uconst 1, DW_OP_stack_value] undef
	.loc	1 415 19 is_stmt 1              @ ../../../ThirdParty/mbedTLS/library/camellia.c:415:19
	adds	r0, r0, #4
.Ltmp45:
	.loc	1 415 5 is_stmt 0               @ ../../../ThirdParty/mbedTLS/library/camellia.c:415:5
	bne	.LBB2_15
.Ltmp46:
@ %bb.16:
	@DEBUG_VALUE: mbedtls_camellia_setkey_enc:keybits <- [DW_OP_plus_uconst 4] [$sp+0]
	@DEBUG_VALUE: mbedtls_camellia_setkey_enc:idx <- [DW_OP_plus_uconst 8] [$sp+0]
	@DEBUG_VALUE: mbedtls_camellia_setkey_enc:ctx <- [DW_OP_plus_uconst 16] [$sp+0]
	.loc	1 0 5                           @ ../../../ThirdParty/mbedTLS/library/camellia.c:0:5
	add	r4, sp, #116
	.loc	1 418 26 is_stmt 1              @ ../../../ThirdParty/mbedTLS/library/camellia.c:418:26
	mov	r5, r4
	adds	r5, #32
	.loc	1 418 44 is_stmt 0              @ ../../../ThirdParty/mbedTLS/library/camellia.c:418:44
	adds	r4, #40
	add	r7, sp, #180
	.loc	1 418 5                         @ ../../../ThirdParty/mbedTLS/library/camellia.c:418:5
	mov	r0, r5
	mov	r1, r7
	mov	r2, r4
	bl	camellia_feistel
	.loc	1 419 32 is_stmt 1              @ ../../../ThirdParty/mbedTLS/library/camellia.c:419:32
	adds	r7, #8
	str	r4, [sp, #28]                   @ 4-byte Spill
	.loc	1 419 5 is_stmt 0               @ ../../../ThirdParty/mbedTLS/library/camellia.c:419:5
	mov	r0, r4
	mov	r1, r7
	mov	r7, r5
	mov	r2, r5
	bl	camellia_feistel
.Ltmp47:
	@DEBUG_VALUE: mbedtls_camellia_setkey_enc:i <- 0
	.loc	1 0 5                           @ ../../../ThirdParty/mbedTLS/library/camellia.c:0:5
	mov	r0, r6
.Ltmp48:
.LBB2_17:                               @ =>This Inner Loop Header: Depth=1
	@DEBUG_VALUE: mbedtls_camellia_setkey_enc:keybits <- [DW_OP_plus_uconst 4] [$sp+0]
	@DEBUG_VALUE: mbedtls_camellia_setkey_enc:idx <- [DW_OP_plus_uconst 8] [$sp+0]
	@DEBUG_VALUE: mbedtls_camellia_setkey_enc:ctx <- [DW_OP_plus_uconst 16] [$sp+0]
	@DEBUG_VALUE: mbedtls_camellia_setkey_enc:i <- undef
	add	r1, sp, #116
.Ltmp49:
	.loc	1 422 22 is_stmt 1              @ ../../../ThirdParty/mbedTLS/library/camellia.c:422:22
	adds	r1, r1, r0
	ldr	r2, [r1, #16]
	.loc	1 422 19 is_stmt 0              @ ../../../ThirdParty/mbedTLS/library/camellia.c:422:19
	ldr	r3, [r1, #48]
	eors	r3, r2
	str	r3, [r1, #48]
.Ltmp50:
	@DEBUG_VALUE: mbedtls_camellia_setkey_enc:i <- [DW_OP_plus_uconst 1, DW_OP_stack_value] undef
	.loc	1 421 19 is_stmt 1              @ ../../../ThirdParty/mbedTLS/library/camellia.c:421:19
	adds	r0, r0, #4
.Ltmp51:
	.loc	1 421 5 is_stmt 0               @ ../../../ThirdParty/mbedTLS/library/camellia.c:421:5
	bne	.LBB2_17
.Ltmp52:
@ %bb.18:
	@DEBUG_VALUE: mbedtls_camellia_setkey_enc:keybits <- [DW_OP_plus_uconst 4] [$sp+0]
	@DEBUG_VALUE: mbedtls_camellia_setkey_enc:idx <- [DW_OP_plus_uconst 8] [$sp+0]
	@DEBUG_VALUE: mbedtls_camellia_setkey_enc:ctx <- [DW_OP_plus_uconst 16] [$sp+0]
	.loc	1 0 5                           @ ../../../ThirdParty/mbedTLS/library/camellia.c:0:5
	add	r5, sp, #180
	.loc	1 424 31 is_stmt 1              @ ../../../ThirdParty/mbedTLS/library/camellia.c:424:31
	mov	r1, r5
	adds	r1, #16
	.loc	1 424 5 is_stmt 0               @ ../../../ThirdParty/mbedTLS/library/camellia.c:424:5
	mov	r0, r7
	ldr	r4, [sp, #28]                   @ 4-byte Reload
	mov	r2, r4
	bl	camellia_feistel
	.loc	1 425 32 is_stmt 1              @ ../../../ThirdParty/mbedTLS/library/camellia.c:425:32
	adds	r5, #24
	.loc	1 425 5 is_stmt 0               @ ../../../ThirdParty/mbedTLS/library/camellia.c:425:5
	mov	r0, r4
	mov	r1, r5
	mov	r2, r7
	bl	camellia_feistel
	.loc	1 427 9 is_stmt 1               @ ../../../ThirdParty/mbedTLS/library/camellia.c:427:9
	ldr	r0, [sp, #4]                    @ 4-byte Reload
.Ltmp53:
	@DEBUG_VALUE: mbedtls_camellia_setkey_enc:keybits <- $r0
	cmp	r0, #129
	blo	.LBB2_21
.Ltmp54:
.LBB2_19:                               @ =>This Inner Loop Header: Depth=1
	@DEBUG_VALUE: mbedtls_camellia_setkey_enc:idx <- [DW_OP_plus_uconst 8] [$sp+0]
	@DEBUG_VALUE: mbedtls_camellia_setkey_enc:ctx <- [DW_OP_plus_uconst 16] [$sp+0]
	@DEBUG_VALUE: mbedtls_camellia_setkey_enc:i <- undef
	.loc	1 0 9 is_stmt 0                 @ ../../../ThirdParty/mbedTLS/library/camellia.c:0:9
	add	r0, sp, #116
.Ltmp55:
	.loc	1 430 26 is_stmt 1              @ ../../../ThirdParty/mbedTLS/library/camellia.c:430:26
	adds	r0, r0, r6
	ldr	r1, [r0, #32]
	.loc	1 430 38 is_stmt 0              @ ../../../ThirdParty/mbedTLS/library/camellia.c:430:38
	ldr	r2, [r0, #48]
	.loc	1 430 36                        @ ../../../ThirdParty/mbedTLS/library/camellia.c:430:36
	eors	r2, r1
	.loc	1 430 24                        @ ../../../ThirdParty/mbedTLS/library/camellia.c:430:24
	str	r2, [r0, #64]
.Ltmp56:
	@DEBUG_VALUE: mbedtls_camellia_setkey_enc:i <- [DW_OP_plus_uconst 1, DW_OP_stack_value] undef
	.loc	1 429 23 is_stmt 1              @ ../../../ThirdParty/mbedTLS/library/camellia.c:429:23
	adds	r6, r6, #4
.Ltmp57:
	.loc	1 429 9 is_stmt 0               @ ../../../ThirdParty/mbedTLS/library/camellia.c:429:9
	bne	.LBB2_19
.Ltmp58:
@ %bb.20:
	@DEBUG_VALUE: mbedtls_camellia_setkey_enc:idx <- [DW_OP_plus_uconst 8] [$sp+0]
	@DEBUG_VALUE: mbedtls_camellia_setkey_enc:ctx <- [DW_OP_plus_uconst 16] [$sp+0]
	.loc	1 0 9                           @ ../../../ThirdParty/mbedTLS/library/camellia.c:0:9
	add	r6, sp, #116
	.loc	1 432 30 is_stmt 1              @ ../../../ThirdParty/mbedTLS/library/camellia.c:432:30
	mov	r4, r6
	adds	r4, #48
	add	r5, sp, #180
	.loc	1 432 36 is_stmt 0              @ ../../../ThirdParty/mbedTLS/library/camellia.c:432:36
	mov	r1, r5
	adds	r1, #32
	.loc	1 432 49                        @ ../../../ThirdParty/mbedTLS/library/camellia.c:432:49
	adds	r6, #56
	.loc	1 432 9                         @ ../../../ThirdParty/mbedTLS/library/camellia.c:432:9
	mov	r0, r4
	mov	r2, r6
	bl	camellia_feistel
	.loc	1 433 36 is_stmt 1              @ ../../../ThirdParty/mbedTLS/library/camellia.c:433:36
	adds	r5, #40
	.loc	1 433 9 is_stmt 0               @ ../../../ThirdParty/mbedTLS/library/camellia.c:433:9
	mov	r0, r6
	mov	r1, r5
	mov	r2, r4
	bl	camellia_feistel
.Ltmp59:
.LBB2_21:
	@DEBUG_VALUE: mbedtls_camellia_setkey_enc:idx <- [DW_OP_plus_uconst 8] [$sp+0]
	@DEBUG_VALUE: mbedtls_camellia_setkey_enc:ctx <- [DW_OP_plus_uconst 16] [$sp+0]
	.loc	1 441 5 is_stmt 1               @ ../../../ThirdParty/mbedTLS/library/camellia.c:441:5
	ldr	r0, [sp, #116]
	str	r0, [sp, #36]
	ldr	r0, [sp, #120]
	str	r0, [sp, #40]
	ldr	r0, [sp, #124]
	str	r0, [sp, #44]
	ldr	r0, [sp, #128]
	str	r0, [sp, #48]
.Ltmp60:
	@DEBUG_VALUE: mbedtls_camellia_setkey_enc:i <- 1
	.loc	1 441 5 is_stmt 0               @ ../../../ThirdParty/mbedTLS/library/camellia.c:441:5
	ldr	r0, [sp, #8]                    @ 4-byte Reload
	lsls	r0, r0, #4
	ldr	r1, __arm_cp.2_1
	str	r0, [sp, #20]                   @ 4-byte Spill
	adds	r6, r1, r0
	movs	r3, #0
	ldr	r0, [sp, #32]                   @ 4-byte Reload
	b	.LBB2_23
.Ltmp61:
.LBB2_22:                               @   in Loop: Header=BB2_23 Depth=1
	@DEBUG_VALUE: mbedtls_camellia_setkey_enc:idx <- [DW_OP_plus_uconst 8] [$sp+0]
	@DEBUG_VALUE: mbedtls_camellia_setkey_enc:ctx <- [DW_OP_plus_uconst 16] [$sp+0]
	@DEBUG_VALUE: mbedtls_camellia_setkey_enc:i <- [DW_OP_plus_uconst 1, DW_OP_stack_value] undef
	.loc	1 441 5                         @ ../../../ThirdParty/mbedTLS/library/camellia.c:441:5
	adds	r6, r6, #1
	adds	r0, #15
	adds	r3, #16
.Ltmp62:
	.loc	1 441 5                         @ ../../../ThirdParty/mbedTLS/library/camellia.c:441:5
	cmp	r3, #64
	beq	.LBB2_25
.Ltmp63:
.LBB2_23:                               @ =>This Inner Loop Header: Depth=1
	@DEBUG_VALUE: mbedtls_camellia_setkey_enc:idx <- [DW_OP_plus_uconst 8] [$sp+0]
	@DEBUG_VALUE: mbedtls_camellia_setkey_enc:ctx <- [DW_OP_plus_uconst 16] [$sp+0]
	@DEBUG_VALUE: mbedtls_camellia_setkey_enc:i <- undef
	.loc	1 441 5                         @ ../../../ThirdParty/mbedTLS/library/camellia.c:441:5
	ldrb	r1, [r6]
.Ltmp64:
	.loc	1 441 5                         @ ../../../ThirdParty/mbedTLS/library/camellia.c:441:5
	cmp	r1, #0
	beq	.LBB2_22
.Ltmp65:
@ %bb.24:                               @   in Loop: Header=BB2_23 Depth=1
	@DEBUG_VALUE: mbedtls_camellia_setkey_enc:idx <- [DW_OP_plus_uconst 8] [$sp+0]
	@DEBUG_VALUE: mbedtls_camellia_setkey_enc:ctx <- [DW_OP_plus_uconst 16] [$sp+0]
	.loc	1 0 5                           @ ../../../ThirdParty/mbedTLS/library/camellia.c:0:5
	movs	r5, #31
.Ltmp66:
	.loc	1 441 5                         @ ../../../ThirdParty/mbedTLS/library/camellia.c:441:5
	ands	r5, r0
	ldr	r1, [sp, #36]
	str	r1, [sp, #28]                   @ 4-byte Spill
	lsls	r1, r5
	str	r0, [sp, #32]                   @ 4-byte Spill
	movs	r2, #32
	subs	r2, r2, r5
	ldr	r7, [sp, #40]
	mov	r4, r7
	lsrs	r4, r2
	eors	r4, r1
	add	r1, sp, #36
	adds	r1, r1, r3
	str	r4, [r1, #16]
	lsls	r7, r5
	ldr	r0, [sp, #44]
	mov	r4, r0
	lsrs	r4, r2
	eors	r4, r7
	str	r4, [r1, #20]
	lsls	r0, r5
	ldr	r4, [sp, #48]
	mov	r7, r4
	lsrs	r7, r2
	eors	r7, r0
	str	r7, [r1, #24]
	ldr	r7, [sp, #28]                   @ 4-byte Reload
	lsrs	r7, r2
	ldr	r0, [sp, #32]                   @ 4-byte Reload
	lsls	r4, r5
	eors	r4, r7
	str	r4, [r1, #28]
	b	.LBB2_22
.Ltmp67:
.LBB2_25:
	@DEBUG_VALUE: mbedtls_camellia_setkey_enc:idx <- [DW_OP_plus_uconst 8] [$sp+0]
	@DEBUG_VALUE: mbedtls_camellia_setkey_enc:ctx <- [DW_OP_plus_uconst 16] [$sp+0]
	.loc	1 0 5                           @ ../../../ThirdParty/mbedTLS/library/camellia.c:0:5
	movs	r0, #80
.Ltmp68:
	.loc	1 441 5                         @ ../../../ThirdParty/mbedTLS/library/camellia.c:441:5
	ldr	r1, [sp, #8]                    @ 4-byte Reload
	muls	r0, r1, r0
	ldr	r1, __arm_cp.2_2
	adds	r4, r1, r0
	movs	r0, #0
	add	r1, sp, #36
	ldr	r6, [sp, #16]                   @ 4-byte Reload
	b	.LBB2_27
.Ltmp69:
.LBB2_26:                               @   in Loop: Header=BB2_27 Depth=1
	@DEBUG_VALUE: mbedtls_camellia_setkey_enc:i <- $r0
	@DEBUG_VALUE: mbedtls_camellia_setkey_enc:idx <- [DW_OP_plus_uconst 8] [$sp+0]
	@DEBUG_VALUE: mbedtls_camellia_setkey_enc:ctx <- [DW_OP_plus_uconst 16] [$sp+0]
	.loc	1 441 5                         @ ../../../ThirdParty/mbedTLS/library/camellia.c:441:5
	adds	r1, r1, #4
	adds	r0, r0, #1
.Ltmp70:
	@DEBUG_VALUE: mbedtls_camellia_setkey_enc:i <- $r0
	.loc	1 441 5                         @ ../../../ThirdParty/mbedTLS/library/camellia.c:441:5
	cmp	r0, #20
	beq	.LBB2_29
.Ltmp71:
.LBB2_27:                               @ =>This Inner Loop Header: Depth=1
	@DEBUG_VALUE: mbedtls_camellia_setkey_enc:idx <- [DW_OP_plus_uconst 8] [$sp+0]
	@DEBUG_VALUE: mbedtls_camellia_setkey_enc:ctx <- [DW_OP_plus_uconst 16] [$sp+0]
	@DEBUG_VALUE: mbedtls_camellia_setkey_enc:i <- $r0
	.loc	1 441 5                         @ ../../../ThirdParty/mbedTLS/library/camellia.c:441:5
	ldrsb	r2, [r4, r0]
.Ltmp72:
	.loc	1 441 5                         @ ../../../ThirdParty/mbedTLS/library/camellia.c:441:5
	adds	r3, r2, #1
	beq	.LBB2_26
.Ltmp73:
@ %bb.28:                               @   in Loop: Header=BB2_27 Depth=1
	@DEBUG_VALUE: mbedtls_camellia_setkey_enc:i <- $r0
	@DEBUG_VALUE: mbedtls_camellia_setkey_enc:idx <- [DW_OP_plus_uconst 8] [$sp+0]
	@DEBUG_VALUE: mbedtls_camellia_setkey_enc:ctx <- [DW_OP_plus_uconst 16] [$sp+0]
	.loc	1 441 5                         @ ../../../ThirdParty/mbedTLS/library/camellia.c:441:5
	lsls	r2, r2, #2
	adds	r2, r6, r2
	ldr	r3, [r1]
	str	r3, [r2, #4]
	b	.LBB2_26
.Ltmp74:
.LBB2_29:
	@DEBUG_VALUE: mbedtls_camellia_setkey_enc:i <- $r0
	@DEBUG_VALUE: mbedtls_camellia_setkey_enc:idx <- [DW_OP_plus_uconst 8] [$sp+0]
	@DEBUG_VALUE: mbedtls_camellia_setkey_enc:ctx <- [DW_OP_plus_uconst 16] [$sp+0]
	.loc	1 0 5                           @ ../../../ThirdParty/mbedTLS/library/camellia.c:0:5
	str	r4, [sp, #12]                   @ 4-byte Spill
	.loc	1 444 9 is_stmt 1               @ ../../../ThirdParty/mbedTLS/library/camellia.c:444:9
	ldr	r0, [sp, #4]                    @ 4-byte Reload
.Ltmp75:
	cmp	r0, #129
	blo	.LBB2_38
.Ltmp76:
@ %bb.30:
	@DEBUG_VALUE: mbedtls_camellia_setkey_enc:idx <- [DW_OP_plus_uconst 8] [$sp+0]
	@DEBUG_VALUE: mbedtls_camellia_setkey_enc:ctx <- [DW_OP_plus_uconst 16] [$sp+0]
	.loc	1 445 9                         @ ../../../ThirdParty/mbedTLS/library/camellia.c:445:9
	ldr	r0, [sp, #132]
	str	r0, [sp, #36]
	ldr	r0, [sp, #136]
	str	r0, [sp, #40]
	ldr	r0, [sp, #140]
	str	r0, [sp, #44]
	ldr	r0, [sp, #144]
	str	r0, [sp, #48]
.Ltmp77:
	@DEBUG_VALUE: mbedtls_camellia_setkey_enc:i <- 1
	.loc	1 445 9 is_stmt 0               @ ../../../ThirdParty/mbedTLS/library/camellia.c:445:9
	ldr	r0, [sp, #20]                   @ 4-byte Reload
	ldr	r1, __arm_cp.2_1
	adds	r0, r1, r0
	adds	r3, r0, #4
	movs	r5, #0
	movs	r2, #15
	ldr	r1, [sp, #12]                   @ 4-byte Reload
	b	.LBB2_32
.Ltmp78:
.LBB2_31:                               @   in Loop: Header=BB2_32 Depth=1
	@DEBUG_VALUE: mbedtls_camellia_setkey_enc:idx <- [DW_OP_plus_uconst 8] [$sp+0]
	@DEBUG_VALUE: mbedtls_camellia_setkey_enc:ctx <- [DW_OP_plus_uconst 16] [$sp+0]
	@DEBUG_VALUE: mbedtls_camellia_setkey_enc:i <- [DW_OP_plus_uconst 1, DW_OP_stack_value] undef
	.loc	1 445 9                         @ ../../../ThirdParty/mbedTLS/library/camellia.c:445:9
	adds	r3, r3, #1
	adds	r2, #15
	adds	r5, #16
.Ltmp79:
	.loc	1 445 9                         @ ../../../ThirdParty/mbedTLS/library/camellia.c:445:9
	cmp	r5, #64
	beq	.LBB2_34
.Ltmp80:
.LBB2_32:                               @ =>This Inner Loop Header: Depth=1
	@DEBUG_VALUE: mbedtls_camellia_setkey_enc:idx <- [DW_OP_plus_uconst 8] [$sp+0]
	@DEBUG_VALUE: mbedtls_camellia_setkey_enc:ctx <- [DW_OP_plus_uconst 16] [$sp+0]
	@DEBUG_VALUE: mbedtls_camellia_setkey_enc:i <- undef
	.loc	1 445 9                         @ ../../../ThirdParty/mbedTLS/library/camellia.c:445:9
	ldrb	r0, [r3]
.Ltmp81:
	.loc	1 445 9                         @ ../../../ThirdParty/mbedTLS/library/camellia.c:445:9
	cmp	r0, #0
	beq	.LBB2_31
.Ltmp82:
@ %bb.33:                               @   in Loop: Header=BB2_32 Depth=1
	@DEBUG_VALUE: mbedtls_camellia_setkey_enc:idx <- [DW_OP_plus_uconst 8] [$sp+0]
	@DEBUG_VALUE: mbedtls_camellia_setkey_enc:ctx <- [DW_OP_plus_uconst 16] [$sp+0]
	.loc	1 0 9                           @ ../../../ThirdParty/mbedTLS/library/camellia.c:0:9
	movs	r7, #31
.Ltmp83:
	.loc	1 445 9                         @ ../../../ThirdParty/mbedTLS/library/camellia.c:445:9
	ands	r7, r2
	ldr	r0, [sp, #36]
	str	r0, [sp, #28]                   @ 4-byte Spill
	lsls	r0, r7
	movs	r1, #32
	subs	r1, r1, r7
	ldr	r6, [sp, #40]
	mov	r4, r6
	lsrs	r4, r1
	eors	r4, r0
	add	r0, sp, #36
	adds	r0, r0, r5
	str	r0, [sp, #32]                   @ 4-byte Spill
	str	r4, [r0, #16]
	lsls	r6, r7
	ldr	r0, [sp, #44]
	mov	r4, r0
	str	r1, [sp, #24]                   @ 4-byte Spill
	lsrs	r4, r1
	eors	r4, r6
	ldr	r6, [sp, #32]                   @ 4-byte Reload
	str	r4, [r6, #20]
	lsls	r0, r7
	ldr	r4, [sp, #48]
	mov	r6, r4
	lsrs	r6, r1
	eors	r6, r0
	ldr	r1, [sp, #32]                   @ 4-byte Reload
	str	r6, [r1, #24]
	ldr	r0, [sp, #28]                   @ 4-byte Reload
	ldr	r6, [sp, #24]                   @ 4-byte Reload
	lsrs	r0, r6
	lsls	r4, r7
	ldr	r6, [sp, #16]                   @ 4-byte Reload
	eors	r4, r0
	str	r4, [r1, #28]
	ldr	r1, [sp, #12]                   @ 4-byte Reload
	b	.LBB2_31
.Ltmp84:
.LBB2_34:
	@DEBUG_VALUE: mbedtls_camellia_setkey_enc:idx <- [DW_OP_plus_uconst 8] [$sp+0]
	@DEBUG_VALUE: mbedtls_camellia_setkey_enc:ctx <- [DW_OP_plus_uconst 16] [$sp+0]
	.loc	1 445 9                         @ ../../../ThirdParty/mbedTLS/library/camellia.c:445:9
	adds	r1, #20
	movs	r0, #0
	add	r2, sp, #36
	b	.LBB2_36
.Ltmp85:
.LBB2_35:                               @   in Loop: Header=BB2_36 Depth=1
	@DEBUG_VALUE: mbedtls_camellia_setkey_enc:i <- $r0
	@DEBUG_VALUE: mbedtls_camellia_setkey_enc:idx <- [DW_OP_plus_uconst 8] [$sp+0]
	@DEBUG_VALUE: mbedtls_camellia_setkey_enc:ctx <- [DW_OP_plus_uconst 16] [$sp+0]
	.loc	1 445 9                         @ ../../../ThirdParty/mbedTLS/library/camellia.c:445:9
	adds	r2, r2, #4
	adds	r0, r0, #1
.Ltmp86:
	@DEBUG_VALUE: mbedtls_camellia_setkey_enc:i <- $r0
	.loc	1 445 9                         @ ../../../ThirdParty/mbedTLS/library/camellia.c:445:9
	cmp	r0, #20
	beq	.LBB2_38
.Ltmp87:
.LBB2_36:                               @ =>This Inner Loop Header: Depth=1
	@DEBUG_VALUE: mbedtls_camellia_setkey_enc:idx <- [DW_OP_plus_uconst 8] [$sp+0]
	@DEBUG_VALUE: mbedtls_camellia_setkey_enc:ctx <- [DW_OP_plus_uconst 16] [$sp+0]
	@DEBUG_VALUE: mbedtls_camellia_setkey_enc:i <- $r0
	.loc	1 445 9                         @ ../../../ThirdParty/mbedTLS/library/camellia.c:445:9
	ldrsb	r3, [r1, r0]
.Ltmp88:
	.loc	1 445 9                         @ ../../../ThirdParty/mbedTLS/library/camellia.c:445:9
	adds	r4, r3, #1
	beq	.LBB2_35
.Ltmp89:
@ %bb.37:                               @   in Loop: Header=BB2_36 Depth=1
	@DEBUG_VALUE: mbedtls_camellia_setkey_enc:i <- $r0
	@DEBUG_VALUE: mbedtls_camellia_setkey_enc:idx <- [DW_OP_plus_uconst 8] [$sp+0]
	@DEBUG_VALUE: mbedtls_camellia_setkey_enc:ctx <- [DW_OP_plus_uconst 16] [$sp+0]
	.loc	1 445 9                         @ ../../../ThirdParty/mbedTLS/library/camellia.c:445:9
	lsls	r3, r3, #2
	adds	r3, r6, r3
	ldr	r4, [r2]
	str	r4, [r3, #4]
	b	.LBB2_35
.Ltmp90:
.LBB2_38:
	@DEBUG_VALUE: mbedtls_camellia_setkey_enc:idx <- [DW_OP_plus_uconst 8] [$sp+0]
	@DEBUG_VALUE: mbedtls_camellia_setkey_enc:ctx <- [DW_OP_plus_uconst 16] [$sp+0]
	.loc	1 449 5 is_stmt 1               @ ../../../ThirdParty/mbedTLS/library/camellia.c:449:5
	ldr	r0, [sp, #148]
	str	r0, [sp, #36]
	ldr	r0, [sp, #152]
	str	r0, [sp, #40]
	ldr	r0, [sp, #156]
	str	r0, [sp, #44]
	ldr	r0, [sp, #160]
	str	r0, [sp, #48]
.Ltmp91:
	@DEBUG_VALUE: mbedtls_camellia_setkey_enc:i <- 1
	.loc	1 449 5 is_stmt 0               @ ../../../ThirdParty/mbedTLS/library/camellia.c:449:5
	ldr	r0, [sp, #20]                   @ 4-byte Reload
	ldr	r1, __arm_cp.2_1
	adds	r2, r1, r0
	str	r2, [sp, #20]                   @ 4-byte Spill
	adds	r2, #8
	movs	r3, #0
	movs	r7, #15
	b	.LBB2_40
.Ltmp92:
.LBB2_39:                               @   in Loop: Header=BB2_40 Depth=1
	@DEBUG_VALUE: mbedtls_camellia_setkey_enc:idx <- [DW_OP_plus_uconst 8] [$sp+0]
	@DEBUG_VALUE: mbedtls_camellia_setkey_enc:ctx <- [DW_OP_plus_uconst 16] [$sp+0]
	@DEBUG_VALUE: mbedtls_camellia_setkey_enc:i <- [DW_OP_plus_uconst 1, DW_OP_stack_value] undef
	.loc	1 449 5                         @ ../../../ThirdParty/mbedTLS/library/camellia.c:449:5
	adds	r2, r2, #1
	adds	r7, #15
	adds	r3, #16
.Ltmp93:
	.loc	1 449 5                         @ ../../../ThirdParty/mbedTLS/library/camellia.c:449:5
	cmp	r3, #64
	beq	.LBB2_42
.Ltmp94:
.LBB2_40:                               @ =>This Inner Loop Header: Depth=1
	@DEBUG_VALUE: mbedtls_camellia_setkey_enc:idx <- [DW_OP_plus_uconst 8] [$sp+0]
	@DEBUG_VALUE: mbedtls_camellia_setkey_enc:ctx <- [DW_OP_plus_uconst 16] [$sp+0]
	@DEBUG_VALUE: mbedtls_camellia_setkey_enc:i <- undef
	.loc	1 449 5                         @ ../../../ThirdParty/mbedTLS/library/camellia.c:449:5
	ldrb	r0, [r2]
.Ltmp95:
	.loc	1 449 5                         @ ../../../ThirdParty/mbedTLS/library/camellia.c:449:5
	cmp	r0, #0
	beq	.LBB2_39
.Ltmp96:
@ %bb.41:                               @   in Loop: Header=BB2_40 Depth=1
	@DEBUG_VALUE: mbedtls_camellia_setkey_enc:idx <- [DW_OP_plus_uconst 8] [$sp+0]
	@DEBUG_VALUE: mbedtls_camellia_setkey_enc:ctx <- [DW_OP_plus_uconst 16] [$sp+0]
	.loc	1 0 5                           @ ../../../ThirdParty/mbedTLS/library/camellia.c:0:5
	movs	r6, #31
.Ltmp97:
	.loc	1 449 5                         @ ../../../ThirdParty/mbedTLS/library/camellia.c:449:5
	ands	r6, r7
	ldr	r0, [sp, #36]
	str	r0, [sp, #28]                   @ 4-byte Spill
	lsls	r0, r6
	movs	r4, #32
	subs	r4, r4, r6
	ldr	r5, [sp, #40]
	mov	r1, r5
	lsrs	r1, r4
	eors	r1, r0
	add	r0, sp, #36
	adds	r0, r0, r3
	str	r0, [sp, #32]                   @ 4-byte Spill
	str	r1, [r0, #16]
	lsls	r5, r6
	ldr	r0, [sp, #44]
	mov	r1, r0
	str	r4, [sp, #24]                   @ 4-byte Spill
	lsrs	r1, r4
	eors	r1, r5
	ldr	r5, [sp, #32]                   @ 4-byte Reload
	str	r1, [r5, #20]
	lsls	r0, r6
	ldr	r1, [sp, #48]
	mov	r5, r1
	lsrs	r5, r4
	eors	r5, r0
	ldr	r4, [sp, #32]                   @ 4-byte Reload
	str	r5, [r4, #24]
	ldr	r0, [sp, #28]                   @ 4-byte Reload
	ldr	r5, [sp, #24]                   @ 4-byte Reload
	lsrs	r0, r5
	lsls	r1, r6
	eors	r1, r0
	str	r1, [r4, #28]
	b	.LBB2_39
.Ltmp98:
.LBB2_42:
	@DEBUG_VALUE: mbedtls_camellia_setkey_enc:idx <- [DW_OP_plus_uconst 8] [$sp+0]
	@DEBUG_VALUE: mbedtls_camellia_setkey_enc:ctx <- [DW_OP_plus_uconst 16] [$sp+0]
	.loc	1 0 5                           @ ../../../ThirdParty/mbedTLS/library/camellia.c:0:5
	movs	r0, #40
	add	r2, sp, #36
	ldr	r7, [sp, #16]                   @ 4-byte Reload
	ldr	r4, [sp, #12]                   @ 4-byte Reload
	b	.LBB2_44
.Ltmp99:
.LBB2_43:                               @   in Loop: Header=BB2_44 Depth=1
	@DEBUG_VALUE: mbedtls_camellia_setkey_enc:idx <- [DW_OP_plus_uconst 8] [$sp+0]
	@DEBUG_VALUE: mbedtls_camellia_setkey_enc:ctx <- [DW_OP_plus_uconst 16] [$sp+0]
	@DEBUG_VALUE: mbedtls_camellia_setkey_enc:i <- [DW_OP_plus_uconst 1, DW_OP_stack_value] undef
	.loc	1 449 5                         @ ../../../ThirdParty/mbedTLS/library/camellia.c:449:5
	adds	r2, r2, #4
	adds	r0, r0, #1
.Ltmp100:
	.loc	1 449 5                         @ ../../../ThirdParty/mbedTLS/library/camellia.c:449:5
	cmp	r0, #60
	beq	.LBB2_46
.Ltmp101:
.LBB2_44:                               @ =>This Inner Loop Header: Depth=1
	@DEBUG_VALUE: mbedtls_camellia_setkey_enc:idx <- [DW_OP_plus_uconst 8] [$sp+0]
	@DEBUG_VALUE: mbedtls_camellia_setkey_enc:ctx <- [DW_OP_plus_uconst 16] [$sp+0]
	@DEBUG_VALUE: mbedtls_camellia_setkey_enc:i <- undef
	.loc	1 449 5                         @ ../../../ThirdParty/mbedTLS/library/camellia.c:449:5
	ldrsb	r3, [r4, r0]
.Ltmp102:
	.loc	1 449 5                         @ ../../../ThirdParty/mbedTLS/library/camellia.c:449:5
	adds	r1, r3, #1
	beq	.LBB2_43
.Ltmp103:
@ %bb.45:                               @   in Loop: Header=BB2_44 Depth=1
	@DEBUG_VALUE: mbedtls_camellia_setkey_enc:idx <- [DW_OP_plus_uconst 8] [$sp+0]
	@DEBUG_VALUE: mbedtls_camellia_setkey_enc:ctx <- [DW_OP_plus_uconst 16] [$sp+0]
	.loc	1 449 5                         @ ../../../ThirdParty/mbedTLS/library/camellia.c:449:5
	lsls	r1, r3, #2
	adds	r1, r7, r1
	ldr	r3, [r2]
	str	r3, [r1, #4]
	b	.LBB2_43
.Ltmp104:
.LBB2_46:
	@DEBUG_VALUE: mbedtls_camellia_setkey_enc:idx <- [DW_OP_plus_uconst 8] [$sp+0]
	@DEBUG_VALUE: mbedtls_camellia_setkey_enc:ctx <- [DW_OP_plus_uconst 16] [$sp+0]
	.loc	1 452 9 is_stmt 1               @ ../../../ThirdParty/mbedTLS/library/camellia.c:452:9
	ldr	r0, [sp, #4]                    @ 4-byte Reload
	cmp	r0, #129
	blo	.LBB2_55
.Ltmp105:
@ %bb.47:
	@DEBUG_VALUE: mbedtls_camellia_setkey_enc:idx <- [DW_OP_plus_uconst 8] [$sp+0]
	@DEBUG_VALUE: mbedtls_camellia_setkey_enc:ctx <- [DW_OP_plus_uconst 16] [$sp+0]
	.loc	1 453 9                         @ ../../../ThirdParty/mbedTLS/library/camellia.c:453:9
	ldr	r0, [sp, #164]
	str	r0, [sp, #36]
	ldr	r0, [sp, #168]
	str	r0, [sp, #40]
	ldr	r0, [sp, #172]
	str	r0, [sp, #44]
	ldr	r0, [sp, #176]
	str	r0, [sp, #48]
.Ltmp106:
	@DEBUG_VALUE: mbedtls_camellia_setkey_enc:i <- 1
	.loc	1 0 9 is_stmt 0                 @ ../../../ThirdParty/mbedTLS/library/camellia.c:0:9
	ldr	r0, [sp, #20]                   @ 4-byte Reload
.Ltmp107:
	.loc	1 453 9                         @ ../../../ThirdParty/mbedTLS/library/camellia.c:453:9
	adds	r0, #12
	movs	r2, #0
	movs	r3, #15
	b	.LBB2_49
.Ltmp108:
.LBB2_48:                               @   in Loop: Header=BB2_49 Depth=1
	@DEBUG_VALUE: mbedtls_camellia_setkey_enc:idx <- [DW_OP_plus_uconst 8] [$sp+0]
	@DEBUG_VALUE: mbedtls_camellia_setkey_enc:ctx <- [DW_OP_plus_uconst 16] [$sp+0]
	@DEBUG_VALUE: mbedtls_camellia_setkey_enc:i <- [DW_OP_plus_uconst 1, DW_OP_stack_value] undef
	.loc	1 0 9                           @ ../../../ThirdParty/mbedTLS/library/camellia.c:0:9
	ldr	r0, [sp, #20]                   @ 4-byte Reload
.Ltmp109:
	.loc	1 453 9                         @ ../../../ThirdParty/mbedTLS/library/camellia.c:453:9
	adds	r0, r0, #1
	adds	r3, #15
	adds	r2, #16
.Ltmp110:
	.loc	1 453 9                         @ ../../../ThirdParty/mbedTLS/library/camellia.c:453:9
	cmp	r2, #64
	beq	.LBB2_51
.Ltmp111:
.LBB2_49:                               @ =>This Inner Loop Header: Depth=1
	@DEBUG_VALUE: mbedtls_camellia_setkey_enc:idx <- [DW_OP_plus_uconst 8] [$sp+0]
	@DEBUG_VALUE: mbedtls_camellia_setkey_enc:ctx <- [DW_OP_plus_uconst 16] [$sp+0]
	@DEBUG_VALUE: mbedtls_camellia_setkey_enc:i <- undef
	.loc	1 0 9                           @ ../../../ThirdParty/mbedTLS/library/camellia.c:0:9
	str	r0, [sp, #20]                   @ 4-byte Spill
.Ltmp112:
	.loc	1 453 9                         @ ../../../ThirdParty/mbedTLS/library/camellia.c:453:9
	ldrb	r0, [r0]
.Ltmp113:
	.loc	1 453 9                         @ ../../../ThirdParty/mbedTLS/library/camellia.c:453:9
	cmp	r0, #0
	beq	.LBB2_48
.Ltmp114:
@ %bb.50:                               @   in Loop: Header=BB2_49 Depth=1
	@DEBUG_VALUE: mbedtls_camellia_setkey_enc:idx <- [DW_OP_plus_uconst 8] [$sp+0]
	@DEBUG_VALUE: mbedtls_camellia_setkey_enc:ctx <- [DW_OP_plus_uconst 16] [$sp+0]
	.loc	1 0 9                           @ ../../../ThirdParty/mbedTLS/library/camellia.c:0:9
	movs	r5, #31
.Ltmp115:
	.loc	1 453 9                         @ ../../../ThirdParty/mbedTLS/library/camellia.c:453:9
	ands	r5, r3
	ldr	r0, [sp, #36]
	str	r0, [sp, #32]                   @ 4-byte Spill
	lsls	r0, r5
	movs	r1, #32
	subs	r6, r1, r5
	ldr	r1, [sp, #40]
	mov	r7, r1
	lsrs	r7, r6
	eors	r7, r0
	add	r0, sp, #36
	adds	r4, r0, r2
	str	r7, [r4, #16]
	lsls	r1, r5
	ldr	r0, [sp, #44]
	mov	r7, r0
	lsrs	r7, r6
	eors	r7, r1
	str	r7, [r4, #20]
	lsls	r0, r5
	ldr	r1, [sp, #48]
	mov	r7, r1
	lsrs	r7, r6
	eors	r7, r0
	str	r7, [r4, #24]
	ldr	r7, [sp, #16]                   @ 4-byte Reload
	ldr	r0, [sp, #32]                   @ 4-byte Reload
	lsrs	r0, r6
	lsls	r1, r5
	eors	r1, r0
	str	r1, [r4, #28]
	ldr	r4, [sp, #12]                   @ 4-byte Reload
	b	.LBB2_48
.Ltmp116:
.LBB2_51:
	@DEBUG_VALUE: mbedtls_camellia_setkey_enc:idx <- [DW_OP_plus_uconst 8] [$sp+0]
	@DEBUG_VALUE: mbedtls_camellia_setkey_enc:ctx <- [DW_OP_plus_uconst 16] [$sp+0]
	.loc	1 453 9                         @ ../../../ThirdParty/mbedTLS/library/camellia.c:453:9
	adds	r4, #60
	movs	r1, #0
	b	.LBB2_53
.Ltmp117:
.LBB2_52:                               @   in Loop: Header=BB2_53 Depth=1
	@DEBUG_VALUE: mbedtls_camellia_setkey_enc:idx <- [DW_OP_plus_uconst 8] [$sp+0]
	@DEBUG_VALUE: mbedtls_camellia_setkey_enc:ctx <- [DW_OP_plus_uconst 16] [$sp+0]
	@DEBUG_VALUE: mbedtls_camellia_setkey_enc:i <- [DW_OP_plus_uconst 1, DW_OP_stack_value] undef
	.loc	1 453 9                         @ ../../../ThirdParty/mbedTLS/library/camellia.c:453:9
	adds	r4, r4, #1
	adds	r1, r1, #4
.Ltmp118:
	.loc	1 453 9                         @ ../../../ThirdParty/mbedTLS/library/camellia.c:453:9
	cmp	r1, #80
	beq	.LBB2_55
.Ltmp119:
.LBB2_53:                               @ =>This Inner Loop Header: Depth=1
	@DEBUG_VALUE: mbedtls_camellia_setkey_enc:idx <- [DW_OP_plus_uconst 8] [$sp+0]
	@DEBUG_VALUE: mbedtls_camellia_setkey_enc:ctx <- [DW_OP_plus_uconst 16] [$sp+0]
	@DEBUG_VALUE: mbedtls_camellia_setkey_enc:i <- undef
	.loc	1 453 9                         @ ../../../ThirdParty/mbedTLS/library/camellia.c:453:9
	ldrb	r0, [r4]
	sxtb	r0, r0
.Ltmp120:
	.loc	1 453 9                         @ ../../../ThirdParty/mbedTLS/library/camellia.c:453:9
	adds	r2, r0, #1
	beq	.LBB2_52
.Ltmp121:
@ %bb.54:                               @   in Loop: Header=BB2_53 Depth=1
	@DEBUG_VALUE: mbedtls_camellia_setkey_enc:idx <- [DW_OP_plus_uconst 8] [$sp+0]
	@DEBUG_VALUE: mbedtls_camellia_setkey_enc:ctx <- [DW_OP_plus_uconst 16] [$sp+0]
	.loc	1 0 9                           @ ../../../ThirdParty/mbedTLS/library/camellia.c:0:9
	add	r2, sp, #36
.Ltmp122:
	.loc	1 453 9                         @ ../../../ThirdParty/mbedTLS/library/camellia.c:453:9
	ldr	r2, [r2, r1]
	lsls	r0, r0, #2
	adds	r0, r7, r0
	str	r2, [r0, #4]
	b	.LBB2_52
.Ltmp123:
.LBB2_55:
	@DEBUG_VALUE: mbedtls_camellia_setkey_enc:idx <- [DW_OP_plus_uconst 8] [$sp+0]
	@DEBUG_VALUE: mbedtls_camellia_setkey_enc:ctx <- [DW_OP_plus_uconst 16] [$sp+0]
	@DEBUG_VALUE: mbedtls_camellia_setkey_enc:i <- 0
	.loc	1 0 9                           @ ../../../ThirdParty/mbedTLS/library/camellia.c:0:9
	movs	r0, #20
	ldr	r2, [sp, #8]                    @ 4-byte Reload
.Ltmp124:
	.loc	1 457 5 is_stmt 1               @ ../../../ThirdParty/mbedTLS/library/camellia.c:457:5
	muls	r0, r2, r0
	adr	r1, .LCPI2_3
	adds	r0, r1, r0
	movs	r1, #48
.Ltmp125:
	.loc	1 0 0 is_stmt 0                 @ ../../../ThirdParty/mbedTLS/library/camellia.c:0:0
	muls	r1, r2, r1
.Ltmp126:
	.loc	1 457 5                         @ ../../../ThirdParty/mbedTLS/library/camellia.c:457:5
	adds	r1, #128
	adds	r1, r1, r7
	adds	r1, r1, #4
	movs	r6, #0
	mov	r2, r6
	b	.LBB2_57
.Ltmp127:
.LBB2_56:                               @   in Loop: Header=BB2_57 Depth=1
	@DEBUG_VALUE: mbedtls_camellia_setkey_enc:i <- $r2
	@DEBUG_VALUE: mbedtls_camellia_setkey_enc:idx <- [DW_OP_plus_uconst 8] [$sp+0]
	@DEBUG_VALUE: mbedtls_camellia_setkey_enc:ctx <- [DW_OP_plus_uconst 16] [$sp+0]
	.loc	1 457 19                        @ ../../../ThirdParty/mbedTLS/library/camellia.c:457:19
	adds	r1, r1, #4
	.loc	1 457 26                        @ ../../../ThirdParty/mbedTLS/library/camellia.c:457:26
	adds	r2, r2, #1
.Ltmp128:
	@DEBUG_VALUE: mbedtls_camellia_setkey_enc:i <- $r2
	.loc	1 457 5                         @ ../../../ThirdParty/mbedTLS/library/camellia.c:457:5
	cmp	r2, #20
	beq	.LBB2_60
.Ltmp129:
.LBB2_57:                               @ =>This Inner Loop Header: Depth=1
	@DEBUG_VALUE: mbedtls_camellia_setkey_enc:idx <- [DW_OP_plus_uconst 8] [$sp+0]
	@DEBUG_VALUE: mbedtls_camellia_setkey_enc:ctx <- [DW_OP_plus_uconst 16] [$sp+0]
	@DEBUG_VALUE: mbedtls_camellia_setkey_enc:i <- $r2
	.loc	1 458 13 is_stmt 1              @ ../../../ThirdParty/mbedTLS/library/camellia.c:458:13
	ldrsb	r3, [r0, r2]
.Ltmp130:
	.loc	1 458 13 is_stmt 0              @ ../../../ThirdParty/mbedTLS/library/camellia.c:458:13
	adds	r4, r3, #1
	beq	.LBB2_56
.Ltmp131:
@ %bb.58:                               @   in Loop: Header=BB2_57 Depth=1
	@DEBUG_VALUE: mbedtls_camellia_setkey_enc:i <- $r2
	@DEBUG_VALUE: mbedtls_camellia_setkey_enc:idx <- [DW_OP_plus_uconst 8] [$sp+0]
	@DEBUG_VALUE: mbedtls_camellia_setkey_enc:ctx <- [DW_OP_plus_uconst 16] [$sp+0]
	.loc	1 459 37 is_stmt 1              @ ../../../ThirdParty/mbedTLS/library/camellia.c:459:37
	lsls	r3, r3, #2
	adds	r3, r7, r3
	ldr	r3, [r3, #4]
	.loc	1 459 35 is_stmt 0              @ ../../../ThirdParty/mbedTLS/library/camellia.c:459:35
	str	r3, [r1]
	b	.LBB2_56
.Ltmp132:
.LBB2_59:
	@DEBUG_VALUE: mbedtls_camellia_setkey_enc:key <- $r5
	@DEBUG_VALUE: mbedtls_camellia_setkey_enc:keybits <- $r4
	@DEBUG_VALUE: mbedtls_camellia_setkey_enc:ctx <- [DW_OP_plus_uconst 16] [$sp+0]
	.loc	1 0 35                          @ ../../../ThirdParty/mbedTLS/library/camellia.c:0:35
	subs	r6, #20
.Ltmp133:
.LBB2_60:
	@DEBUG_VALUE: mbedtls_camellia_setkey_enc:ctx <- [DW_OP_plus_uconst 16] [$sp+0]
	.loc	1 464 1 is_stmt 1               @ ../../../ThirdParty/mbedTLS/library/camellia.c:464:1
	mov	r0, r6
	add	sp, #292
.Ltmp134:
	pop	{r4, r5, r6, r7, pc}
.Ltmp135:
	.p2align	2
@ %bb.61:
	.loc	1 0 1 is_stmt 0                 @ ../../../ThirdParty/mbedTLS/library/camellia.c:0:1
__arm_cp.2_0:
	.long	SIGMA_CHARS
.Lcpi_end0:
	.size	__arm_cp.2_0, .Lcpi_end0-__arm_cp.2_0
__arm_cp.2_1:
	.long	shifts
.Lcpi_end1:
	.size	__arm_cp.2_1, .Lcpi_end1-__arm_cp.2_1
__arm_cp.2_2:
	.long	indexes
.Lcpi_end2:
	.size	__arm_cp.2_2, .Lcpi_end2-__arm_cp.2_2
.LCPI2_3:
transposes:
	.ascii	"\025\026\027\024\377\377\377\377\022\023\020\021\013\b\t\n\017\f\r\016"
	.ascii	"\031\032\033\030\035\036\037\034\022\023\020\021\377\377\377\377\377\377\377\377"
.Lfunc_end2:
	.size	mbedtls_camellia_setkey_enc, .Lfunc_end2-mbedtls_camellia_setkey_enc
	.cfi_endproc
	.cantunwind
	.fnend
                                        @ -- End function
	.section	.text.camellia_feistel,"ax",%progbits
	.p2align	2                               @ -- Begin function camellia_feistel
	.type	camellia_feistel,%function
	.code	16                              @ @camellia_feistel
	.thumb_func
camellia_feistel:
.Lfunc_begin3:
	.loc	1 313 0 is_stmt 1               @ ../../../ThirdParty/mbedTLS/library/camellia.c:313:0
	.fnstart
	.cfi_startproc
@ %bb.0:
	@DEBUG_VALUE: camellia_feistel:x <- $r0
	@DEBUG_VALUE: camellia_feistel:k <- $r1
	@DEBUG_VALUE: camellia_feistel:z <- $r2
	.save	{r4, r5, r6, r7, lr}
	push	{r4, r5, r6, r7, lr}
	.cfi_def_cfa_offset 20
	.cfi_offset lr, -4
	.cfi_offset r7, -8
	.cfi_offset r6, -12
	.cfi_offset r5, -16
	.cfi_offset r4, -20
	.pad	#4
	sub	sp, #4
	.cfi_def_cfa_offset 24
	str	r2, [sp]                        @ 4-byte Spill
	mov	r2, r1
.Ltmp136:
	@DEBUG_VALUE: camellia_feistel:z <- [DW_OP_LLVM_entry_value 1] $r2
	mov	r1, r0
.Ltmp137:
	@DEBUG_VALUE: camellia_feistel:k <- [DW_OP_LLVM_entry_value 1] $r1
	@DEBUG_VALUE: camellia_feistel:z <- [$sp+0]
	@DEBUG_VALUE: camellia_feistel:k <- $r2
	@DEBUG_VALUE: camellia_feistel:x <- $r1
	.loc	1 315 10 prologue_end           @ ../../../ThirdParty/mbedTLS/library/camellia.c:315:10
	ldr	r3, [r0]
	.loc	1 315 17 is_stmt 0              @ ../../../ThirdParty/mbedTLS/library/camellia.c:315:17
	ldr	r4, [r2]
	.loc	1 315 15                        @ ../../../ThirdParty/mbedTLS/library/camellia.c:315:15
	eors	r4, r3
.Ltmp138:
	@DEBUG_VALUE: camellia_feistel:I0 <- $r4
	.loc	1 318 22 is_stmt 1              @ ../../../ThirdParty/mbedTLS/library/camellia.c:318:22
	lsrs	r5, r4, #24
	ldr	r3, __arm_cp.3_0
	.loc	1 318 11 is_stmt 0              @ ../../../ThirdParty/mbedTLS/library/camellia.c:318:11
	ldrb	r5, [r3, r5]
	.loc	1 318 47                        @ ../../../ThirdParty/mbedTLS/library/camellia.c:318:47
	lsls	r6, r5, #24
	.loc	1 319 22 is_stmt 1              @ ../../../ThirdParty/mbedTLS/library/camellia.c:319:22
	lsrs	r5, r4, #16
	uxtb	r7, r5
	ldr	r5, __arm_cp.3_1
	ldrb	r7, [r5, r7]
	.loc	1 319 47 is_stmt 0              @ ../../../ThirdParty/mbedTLS/library/camellia.c:319:47
	lsls	r7, r7, #16
	.loc	1 318 54 is_stmt 1              @ ../../../ThirdParty/mbedTLS/library/camellia.c:318:54
	adds	r7, r7, r6
	.loc	1 320 22                        @ ../../../ThirdParty/mbedTLS/library/camellia.c:320:22
	lsrs	r6, r4, #8
	uxtb	r0, r6
	ldr	r6, __arm_cp.3_2
	ldrb	r0, [r6, r0]
	.loc	1 320 47 is_stmt 0              @ ../../../ThirdParty/mbedTLS/library/camellia.c:320:47
	lsls	r0, r0, #8
	.loc	1 319 54 is_stmt 1              @ ../../../ThirdParty/mbedTLS/library/camellia.c:319:54
	adds	r0, r7, r0
	.loc	1 321 22                        @ ../../../ThirdParty/mbedTLS/library/camellia.c:321:22
	uxtb	r4, r4
.Ltmp139:
	ldr	r7, __arm_cp.3_3
	ldrb	r4, [r7, r4]
	.loc	1 320 54                        @ ../../../ThirdParty/mbedTLS/library/camellia.c:320:54
	adds	r4, r0, r4
.Ltmp140:
	@DEBUG_VALUE: camellia_feistel:I0 <- $r4
	.loc	1 316 10                        @ ../../../ThirdParty/mbedTLS/library/camellia.c:316:10
	ldr	r0, [r1, #4]
	.loc	1 316 17 is_stmt 0              @ ../../../ThirdParty/mbedTLS/library/camellia.c:316:17
	ldr	r1, [r2, #4]
.Ltmp141:
	.loc	1 316 15                        @ ../../../ThirdParty/mbedTLS/library/camellia.c:316:15
	eors	r1, r0
.Ltmp142:
	@DEBUG_VALUE: camellia_feistel:I1 <- $r1
	.loc	1 322 22 is_stmt 1              @ ../../../ThirdParty/mbedTLS/library/camellia.c:322:22
	lsrs	r0, r1, #24
	ldrb	r0, [r5, r0]
	.loc	1 322 47 is_stmt 0              @ ../../../ThirdParty/mbedTLS/library/camellia.c:322:47
	lsls	r2, r0, #24
.Ltmp143:
	.loc	1 323 22 is_stmt 1              @ ../../../ThirdParty/mbedTLS/library/camellia.c:323:22
	lsrs	r5, r1, #16
	uxtb	r5, r5
	ldrb	r5, [r6, r5]
	.loc	1 323 47 is_stmt 0              @ ../../../ThirdParty/mbedTLS/library/camellia.c:323:47
	lsls	r5, r5, #16
	.loc	1 322 54 is_stmt 1              @ ../../../ThirdParty/mbedTLS/library/camellia.c:322:54
	adds	r2, r5, r2
	.loc	1 324 22                        @ ../../../ThirdParty/mbedTLS/library/camellia.c:324:22
	lsrs	r5, r1, #8
	uxtb	r5, r5
	ldrb	r5, [r7, r5]
	.loc	1 324 47 is_stmt 0              @ ../../../ThirdParty/mbedTLS/library/camellia.c:324:47
	lsls	r5, r5, #8
	.loc	1 323 54 is_stmt 1              @ ../../../ThirdParty/mbedTLS/library/camellia.c:323:54
	adds	r2, r2, r5
	.loc	1 325 22                        @ ../../../ThirdParty/mbedTLS/library/camellia.c:325:22
	uxtb	r1, r1
.Ltmp144:
	ldrb	r1, [r3, r1]
	.loc	1 324 54                        @ ../../../ThirdParty/mbedTLS/library/camellia.c:324:54
	adds	r1, r2, r1
.Ltmp145:
	@DEBUG_VALUE: camellia_feistel:I1 <- undef
	.loc	1 327 15                        @ ../../../ThirdParty/mbedTLS/library/camellia.c:327:15
	lsls	r2, r1, #8
	.loc	1 327 21 is_stmt 0              @ ../../../ThirdParty/mbedTLS/library/camellia.c:327:21
	adds	r2, r2, r0
	.loc	1 327 8                         @ ../../../ThirdParty/mbedTLS/library/camellia.c:327:8
	eors	r2, r4
.Ltmp146:
	@DEBUG_VALUE: camellia_feistel:I0 <- $r2
	.loc	1 0 8                           @ ../../../ThirdParty/mbedTLS/library/camellia.c:0:8
	movs	r3, #16
	.loc	1 328 22 is_stmt 1              @ ../../../ThirdParty/mbedTLS/library/camellia.c:328:22
	mov	r0, r2
	rors	r0, r3
	.loc	1 328 8 is_stmt 0               @ ../../../ThirdParty/mbedTLS/library/camellia.c:328:8
	eors	r0, r1
.Ltmp147:
	@DEBUG_VALUE: camellia_feistel:I1 <- $r0
	.loc	1 0 8                           @ ../../../ThirdParty/mbedTLS/library/camellia.c:0:8
	movs	r1, #8
	.loc	1 329 21 is_stmt 1              @ ../../../ThirdParty/mbedTLS/library/camellia.c:329:21
	mov	r3, r0
	rors	r3, r1
	.loc	1 329 8 is_stmt 0               @ ../../../ThirdParty/mbedTLS/library/camellia.c:329:8
	eors	r3, r2
.Ltmp148:
	@DEBUG_VALUE: camellia_feistel:I0 <- $r3
	.loc	1 0 8                           @ ../../../ThirdParty/mbedTLS/library/camellia.c:0:8
	ldr	r4, [sp]                        @ 4-byte Reload
.Ltmp149:
	@DEBUG_VALUE: camellia_feistel:z <- $r4
	.loc	1 333 10 is_stmt 1              @ ../../../ThirdParty/mbedTLS/library/camellia.c:333:10
	ldr	r2, [r4, #4]
	eors	r2, r3
	str	r2, [r4, #4]
	.loc	1 330 21                        @ ../../../ThirdParty/mbedTLS/library/camellia.c:330:21
	rors	r3, r1
.Ltmp150:
	@DEBUG_VALUE: camellia_feistel:I1 <- undef
	.loc	1 332 10                        @ ../../../ThirdParty/mbedTLS/library/camellia.c:332:10
	ldr	r1, [r4]
	@DEBUG_VALUE: camellia_feistel:z <- $r4
	.loc	1 330 8                         @ ../../../ThirdParty/mbedTLS/library/camellia.c:330:8
	eors	r1, r0
	.loc	1 332 10                        @ ../../../ThirdParty/mbedTLS/library/camellia.c:332:10
	eors	r1, r3
	str	r1, [r4]
	.loc	1 334 1                         @ ../../../ThirdParty/mbedTLS/library/camellia.c:334:1
	add	sp, #4
	pop	{r4, r5, r6, r7, pc}
.Ltmp151:
	.p2align	2
@ %bb.1:
	.loc	1 0 1 is_stmt 0                 @ ../../../ThirdParty/mbedTLS/library/camellia.c:0:1
__arm_cp.3_0:
	.long	FSb
.Lcpi_end3:
	.size	__arm_cp.3_0, .Lcpi_end3-__arm_cp.3_0
__arm_cp.3_1:
	.long	FSb2
.Lcpi_end4:
	.size	__arm_cp.3_1, .Lcpi_end4-__arm_cp.3_1
__arm_cp.3_2:
	.long	FSb3
.Lcpi_end5:
	.size	__arm_cp.3_2, .Lcpi_end5-__arm_cp.3_2
__arm_cp.3_3:
	.long	FSb4
.Lcpi_end6:
	.size	__arm_cp.3_3, .Lcpi_end6-__arm_cp.3_3
.Lfunc_end3:
	.size	camellia_feistel, .Lfunc_end3-camellia_feistel
	.cfi_endproc
	.cantunwind
	.fnend
                                        @ -- End function
	.section	.text.mbedtls_camellia_setkey_dec,"ax",%progbits
	.hidden	mbedtls_camellia_setkey_dec     @ -- Begin function mbedtls_camellia_setkey_dec
	.globl	mbedtls_camellia_setkey_dec
	.p2align	1
	.type	mbedtls_camellia_setkey_dec,%function
	.code	16                              @ @mbedtls_camellia_setkey_dec
	.thumb_func
mbedtls_camellia_setkey_dec:
.Lfunc_begin4:
	.loc	1 472 0 is_stmt 1               @ ../../../ThirdParty/mbedTLS/library/camellia.c:472:0
	.fnstart
	.cfi_startproc
@ %bb.0:
	@DEBUG_VALUE: mbedtls_camellia_setkey_dec:ctx <- $r0
	@DEBUG_VALUE: mbedtls_camellia_setkey_dec:key <- $r1
	@DEBUG_VALUE: mbedtls_camellia_setkey_dec:keybits <- $r2
	.save	{r4, r5, r6, r7, lr}
	push	{r4, r5, r6, r7, lr}
	.cfi_def_cfa_offset 20
	.cfi_offset lr, -4
	.cfi_offset r7, -8
	.cfi_offset r6, -12
	.cfi_offset r5, -16
	.cfi_offset r4, -20
	.pad	#276
	sub	sp, #276
	.cfi_def_cfa_offset 296
	mov	r5, r2
	mov	r6, r1
	mov	r4, r0
.Ltmp152:
	@DEBUG_VALUE: mbedtls_camellia_setkey_dec:keybits <- $r5
	@DEBUG_VALUE: mbedtls_camellia_setkey_dec:key <- $r6
	@DEBUG_VALUE: mbedtls_camellia_setkey_dec:ctx <- $r4
	mov	r7, sp
.Ltmp153:
	.loc	1 481 5 prologue_end            @ ../../../ThirdParty/mbedTLS/library/camellia.c:481:5
	mov	r0, r7
	bl	mbedtls_camellia_init
.Ltmp154:
	.loc	1 484 17                        @ ../../../ThirdParty/mbedTLS/library/camellia.c:484:17
	mov	r0, r7
	mov	r1, r6
.Ltmp155:
	@DEBUG_VALUE: mbedtls_camellia_setkey_dec:key <- $r1
	mov	r2, r5
.Ltmp156:
	@DEBUG_VALUE: mbedtls_camellia_setkey_dec:keybits <- $r2
	bl	mbedtls_camellia_setkey_enc
.Ltmp157:
	mov	r5, r0
.Ltmp158:
	@DEBUG_VALUE: mbedtls_camellia_setkey_dec:ret <- $r5
	.loc	1 484 9 is_stmt 0               @ ../../../ThirdParty/mbedTLS/library/camellia.c:484:9
	cbnz	r0, .LBB4_4
.Ltmp159:
@ %bb.1:
	@DEBUG_VALUE: mbedtls_camellia_setkey_dec:ret <- $r5
	@DEBUG_VALUE: mbedtls_camellia_setkey_dec:ctx <- $r4
	.loc	1 487 19 is_stmt 1              @ ../../../ThirdParty/mbedTLS/library/camellia.c:487:19
	ldr	r0, [sp]
	.loc	1 487 13 is_stmt 0              @ ../../../ThirdParty/mbedTLS/library/camellia.c:487:13
	str	r0, [r4]
	.loc	1 487 19                        @ ../../../ThirdParty/mbedTLS/library/camellia.c:487:19
	subs	r0, r0, #4
	rsbs	r1, r0, #0
	adcs	r1, r0
.Ltmp160:
	@DEBUG_VALUE: mbedtls_camellia_setkey_dec:SK <- [DW_OP_plus_uconst 12, DW_OP_plus_uconst 4, DW_OP_constu 24, DW_OP_minus, DW_OP_stack_value] undef
	@DEBUG_VALUE: mbedtls_camellia_setkey_dec:RK <- [DW_OP_plus_uconst 20, DW_OP_stack_value] $r4
	.loc	1 491 26 is_stmt 1              @ ../../../ThirdParty/mbedTLS/library/camellia.c:491:26
	lsls	r0, r1, #6
	mov	r2, sp
.Ltmp161:
	@DEBUG_VALUE: mbedtls_camellia_setkey_dec:idx <- [DW_OP_LLVM_convert 1 7, DW_OP_LLVM_convert 32 7, DW_OP_stack_value] undef
	@DEBUG_VALUE: mbedtls_camellia_setkey_dec:RK <- [DW_OP_plus_uconst 4, DW_OP_stack_value] $r4
	.loc	1 491 17 is_stmt 0              @ ../../../ThirdParty/mbedTLS/library/camellia.c:491:17
	adds	r0, r2, r0
	movs	r2, #196
.Ltmp162:
	@DEBUG_VALUE: mbedtls_camellia_setkey_dec:SK <- [DW_OP_plus_uconst 4, DW_OP_stack_value] undef
	.loc	1 493 13 is_stmt 1              @ ../../../ThirdParty/mbedTLS/library/camellia.c:493:13
	ldr	r2, [r0, r2]
.Ltmp163:
	@DEBUG_VALUE: mbedtls_camellia_setkey_dec:RK <- [DW_OP_plus_uconst 8, DW_OP_stack_value] $r4
	.loc	1 493 11 is_stmt 0              @ ../../../ThirdParty/mbedTLS/library/camellia.c:493:11
	str	r2, [r4, #4]
	.loc	1 491 26 is_stmt 1              @ ../../../ThirdParty/mbedTLS/library/camellia.c:491:26
	mov	r2, r0
	adds	r2, #196
.Ltmp164:
	@DEBUG_VALUE: mbedtls_camellia_setkey_dec:SK <- [DW_OP_plus_uconst 8, DW_OP_stack_value] $r2
	@DEBUG_VALUE: mbedtls_camellia_setkey_dec:RK <- [DW_OP_plus_uconst 12, DW_OP_stack_value] $r4
	.loc	1 494 13                        @ ../../../ThirdParty/mbedTLS/library/camellia.c:494:13
	ldr	r3, [r2, #4]
	.loc	1 495 13                        @ ../../../ThirdParty/mbedTLS/library/camellia.c:495:13
	ldr	r6, [r2, #8]
	.loc	1 496 13                        @ ../../../ThirdParty/mbedTLS/library/camellia.c:496:13
	ldr	r2, [r2, #12]
.Ltmp165:
	.loc	1 494 11                        @ ../../../ThirdParty/mbedTLS/library/camellia.c:494:11
	str	r3, [r4, #8]
.Ltmp166:
	@DEBUG_VALUE: mbedtls_camellia_setkey_dec:SK <- [DW_OP_plus_uconst 12, DW_OP_stack_value] undef
	@DEBUG_VALUE: mbedtls_camellia_setkey_dec:RK <- [DW_OP_plus_uconst 16, DW_OP_stack_value] $r4
	.loc	1 495 11                        @ ../../../ThirdParty/mbedTLS/library/camellia.c:495:11
	str	r6, [r4, #12]
.Ltmp167:
	@DEBUG_VALUE: mbedtls_camellia_setkey_dec:SK <- [DW_OP_plus_uconst 12, DW_OP_plus_uconst 4, DW_OP_stack_value] undef
	@DEBUG_VALUE: mbedtls_camellia_setkey_dec:RK <- [DW_OP_plus_uconst 20, DW_OP_stack_value] $r4
	.loc	1 496 11                        @ ../../../ThirdParty/mbedTLS/library/camellia.c:496:11
	str	r2, [r4, #16]
	.loc	1 491 30                        @ ../../../ThirdParty/mbedTLS/library/camellia.c:491:30
	lsls	r1, r1, #3
.Ltmp168:
	.loc	1 498 17                        @ ../../../ThirdParty/mbedTLS/library/camellia.c:498:17
	adds	r1, #22
.Ltmp169:
	@DEBUG_VALUE: mbedtls_camellia_setkey_dec:i <- $r1
	.loc	1 498 5 is_stmt 0               @ ../../../ThirdParty/mbedTLS/library/camellia.c:498:5
	adds	r0, #192
	adds	r4, #32
.Ltmp170:
	.loc	1 0 5                           @ ../../../ThirdParty/mbedTLS/library/camellia.c:0:5
	movs	r2, #2
	mvns	r3, r2
.Ltmp171:
.LBB4_2:                                @ =>This Inner Loop Header: Depth=1
	@DEBUG_VALUE: mbedtls_camellia_setkey_dec:ret <- $r5
	@DEBUG_VALUE: mbedtls_camellia_setkey_dec:i <- $r1
	lsls	r2, r3, #2
	adds	r6, r2, r0
	@DEBUG_VALUE: mbedtls_camellia_setkey_dec:i <- $r1
.Ltmp172:
	@DEBUG_VALUE: mbedtls_camellia_setkey_dec:SK <- [DW_OP_plus_uconst 4, DW_OP_stack_value] undef
	@DEBUG_VALUE: mbedtls_camellia_setkey_dec:RK <- [DW_OP_plus_uconst 4, DW_OP_stack_value] undef
	.loc	1 500 17 is_stmt 1              @ ../../../ThirdParty/mbedTLS/library/camellia.c:500:17
	ldr	r7, [r6, #8]
	.loc	1 501 17                        @ ../../../ThirdParty/mbedTLS/library/camellia.c:501:17
	ldr	r6, [r6, #12]
	.loc	1 500 15                        @ ../../../ThirdParty/mbedTLS/library/camellia.c:500:15
	str	r7, [r4, r2]
.Ltmp173:
	.loc	1 0 0 is_stmt 0                 @ ../../../ThirdParty/mbedTLS/library/camellia.c:0:0
	adds	r7, r4, r2
.Ltmp174:
	@DEBUG_VALUE: mbedtls_camellia_setkey_dec:SK <- [DW_OP_plus_uconst 8, DW_OP_stack_value] undef
	@DEBUG_VALUE: mbedtls_camellia_setkey_dec:RK <- [DW_OP_plus_uconst 8, DW_OP_stack_value] undef
	.loc	1 501 15 is_stmt 1              @ ../../../ThirdParty/mbedTLS/library/camellia.c:501:15
	str	r6, [r7, #4]
.Ltmp175:
	@DEBUG_VALUE: mbedtls_camellia_setkey_dec:SK <- [DW_OP_constu 8, DW_OP_minus, DW_OP_stack_value] undef
	.loc	1 498 39                        @ ../../../ThirdParty/mbedTLS/library/camellia.c:498:39
	adds	r0, r3, r0
	subs	r0, r0, #5
	adds	r4, #8
	.loc	1 498 45 is_stmt 0              @ ../../../ThirdParty/mbedTLS/library/camellia.c:498:45
	subs	r1, r1, #1
.Ltmp176:
	@DEBUG_VALUE: mbedtls_camellia_setkey_dec:i <- $r1
	.loc	1 498 5                         @ ../../../ThirdParty/mbedTLS/library/camellia.c:498:5
	bne	.LBB4_2
.Ltmp177:
@ %bb.3:
	@DEBUG_VALUE: mbedtls_camellia_setkey_dec:ret <- $r5
	@DEBUG_VALUE: mbedtls_camellia_setkey_dec:i <- $r1
	@DEBUG_VALUE: mbedtls_camellia_setkey_dec:RK <- [DW_OP_plus_uconst 8, DW_OP_stack_value] undef
	@DEBUG_VALUE: mbedtls_camellia_setkey_dec:SK <- [DW_OP_constu 16, DW_OP_minus, DW_OP_stack_value] undef
	.loc	1 506 13 is_stmt 1              @ ../../../ThirdParty/mbedTLS/library/camellia.c:506:13
	ldr	r1, [r0, r2]
.Ltmp178:
	@DEBUG_VALUE: mbedtls_camellia_setkey_dec:RK <- [DW_OP_plus_uconst 12, DW_OP_stack_value] undef
	.loc	1 506 11 is_stmt 0              @ ../../../ThirdParty/mbedTLS/library/camellia.c:506:11
	str	r1, [r4, r2]
.Ltmp179:
	@DEBUG_VALUE: mbedtls_camellia_setkey_dec:SK <- [DW_OP_constu 12, DW_OP_minus, DW_OP_stack_value] undef
	.loc	1 506 13                        @ ../../../ThirdParty/mbedTLS/library/camellia.c:506:13
	adds	r1, r2, #4
.Ltmp180:
	@DEBUG_VALUE: mbedtls_camellia_setkey_dec:SK <- [DW_OP_constu 8, DW_OP_minus, DW_OP_stack_value] undef
	.loc	1 507 13 is_stmt 1              @ ../../../ThirdParty/mbedTLS/library/camellia.c:507:13
	ldr	r3, [r0, r1]
	.loc	1 507 11 is_stmt 0              @ ../../../ThirdParty/mbedTLS/library/camellia.c:507:11
	str	r3, [r4, r1]
.Ltmp181:
	@DEBUG_VALUE: mbedtls_camellia_setkey_dec:RK <- [DW_OP_plus_uconst 16, DW_OP_stack_value] undef
	adds	r2, #8
.Ltmp182:
	@DEBUG_VALUE: mbedtls_camellia_setkey_dec:SK <- [DW_OP_constu 4, DW_OP_minus, DW_OP_stack_value] undef
	.loc	1 508 13 is_stmt 1              @ ../../../ThirdParty/mbedTLS/library/camellia.c:508:13
	ldr	r1, [r0, r2]
.Ltmp183:
	@DEBUG_VALUE: mbedtls_camellia_setkey_dec:RK <- [DW_OP_plus_uconst 20, DW_OP_stack_value] undef
	.loc	1 508 11 is_stmt 0              @ ../../../ThirdParty/mbedTLS/library/camellia.c:508:11
	str	r1, [r4, r2]
.Ltmp184:
	@DEBUG_VALUE: mbedtls_camellia_setkey_dec:SK <- [DW_OP_constu 4, DW_OP_minus, DW_OP_plus_uconst 4, DW_OP_stack_value] undef
	.loc	1 509 13 is_stmt 1              @ ../../../ThirdParty/mbedTLS/library/camellia.c:509:13
	ldr	r0, [r0]
.Ltmp185:
	@DEBUG_VALUE: mbedtls_camellia_setkey_dec:RK <- [DW_OP_plus_uconst 20, DW_OP_plus_uconst 4, DW_OP_stack_value] undef
	.loc	1 509 11 is_stmt 0              @ ../../../ThirdParty/mbedTLS/library/camellia.c:509:11
	str	r0, [r4]
.Ltmp186:
.LBB4_4:
	@DEBUG_VALUE: mbedtls_camellia_setkey_dec:ret <- $r5
	@DEBUG_LABEL: mbedtls_camellia_setkey_dec:exit
	.loc	1 0 11                          @ ../../../ThirdParty/mbedTLS/library/camellia.c:0:11
	mov	r0, sp
	.loc	1 512 5 is_stmt 1               @ ../../../ThirdParty/mbedTLS/library/camellia.c:512:5
	bl	mbedtls_camellia_free
	.loc	1 514 5                         @ ../../../ThirdParty/mbedTLS/library/camellia.c:514:5
	mov	r0, r5
	add	sp, #276
	pop	{r4, r5, r6, r7, pc}
.Ltmp187:
.Lfunc_end4:
	.size	mbedtls_camellia_setkey_dec, .Lfunc_end4-mbedtls_camellia_setkey_dec
	.cfi_endproc
	.cantunwind
	.fnend
                                        @ -- End function
	.section	.text.mbedtls_camellia_crypt_ecb,"ax",%progbits
	.hidden	mbedtls_camellia_crypt_ecb      @ -- Begin function mbedtls_camellia_crypt_ecb
	.globl	mbedtls_camellia_crypt_ecb
	.p2align	1
	.type	mbedtls_camellia_crypt_ecb,%function
	.code	16                              @ @mbedtls_camellia_crypt_ecb
	.thumb_func
mbedtls_camellia_crypt_ecb:
.Lfunc_begin5:
	.loc	1 524 0                         @ ../../../ThirdParty/mbedTLS/library/camellia.c:524:0
	.fnstart
	.cfi_startproc
@ %bb.0:
	@DEBUG_VALUE: mbedtls_camellia_crypt_ecb:ctx <- $r0
	@DEBUG_VALUE: mbedtls_camellia_crypt_ecb:input <- $r2
	@DEBUG_VALUE: mbedtls_camellia_crypt_ecb:output <- $r3
	.save	{r4, r5, r6, r7, lr}
	push	{r4, r5, r6, r7, lr}
	.cfi_def_cfa_offset 20
	.cfi_offset lr, -4
	.cfi_offset r7, -8
	.cfi_offset r6, -12
	.cfi_offset r5, -16
	.cfi_offset r4, -20
	.pad	#28
	sub	sp, #28
	.cfi_def_cfa_offset 48
	str	r3, [sp, #8]                    @ 4-byte Spill
	mov	r5, r0
	@DEBUG_VALUE: mbedtls_camellia_crypt_ecb:mode <- undef
.Ltmp188:
	@DEBUG_VALUE: mbedtls_camellia_crypt_ecb:output <- [DW_OP_plus_uconst 8] [$sp+0]
	@DEBUG_VALUE: mbedtls_camellia_crypt_ecb:input <- $r2
	@DEBUG_VALUE: mbedtls_camellia_crypt_ecb:ctx <- $r5
	.loc	1 540 5 prologue_end            @ ../../../ThirdParty/mbedTLS/library/camellia.c:540:5
	ldrb	r0, [r2, #8]
	lsls	r0, r0, #24
	ldrb	r1, [r2, #9]
	lsls	r1, r1, #16
	adds	r0, r1, r0
	ldrb	r1, [r2, #10]
	lsls	r1, r1, #8
	adds	r0, r0, r1
	ldrb	r1, [r2, #11]
	adds	r0, r0, r1
	str	r0, [sp, #20]
.Ltmp189:
	.loc	1 539 5                         @ ../../../ThirdParty/mbedTLS/library/camellia.c:539:5
	ldrb	r1, [r2, #4]
	lsls	r1, r1, #24
	ldrb	r3, [r2, #5]
	lsls	r3, r3, #16
	adds	r1, r3, r1
	ldrb	r3, [r2, #6]
	lsls	r3, r3, #8
	adds	r1, r1, r3
	ldrb	r3, [r2, #7]
	adds	r3, r1, r3
	str	r3, [sp, #16]
.Ltmp190:
	@DEBUG_VALUE: mbedtls_camellia_crypt_ecb:RK <- [DW_OP_plus_uconst 4, DW_OP_stack_value] $r5
	.loc	1 538 5                         @ ../../../ThirdParty/mbedTLS/library/camellia.c:538:5
	ldrb	r1, [r2]
	lsls	r1, r1, #24
	ldrb	r4, [r2, #1]
	lsls	r4, r4, #16
	adds	r1, r4, r1
	ldrb	r4, [r2, #2]
	lsls	r4, r4, #8
	adds	r1, r1, r4
	ldrb	r4, [r2, #3]
	adds	r7, r1, r4
	str	r7, [sp, #12]
.Ltmp191:
	.loc	1 535 15                        @ ../../../ThirdParty/mbedTLS/library/camellia.c:535:15
	ldr	r1, [r5]
.Ltmp192:
	@DEBUG_VALUE: mbedtls_camellia_crypt_ecb:NR <- $r1
	.loc	1 541 5                         @ ../../../ThirdParty/mbedTLS/library/camellia.c:541:5
	str	r1, [sp, #4]                    @ 4-byte Spill
.Ltmp193:
	@DEBUG_VALUE: mbedtls_camellia_crypt_ecb:NR <- [DW_OP_plus_uconst 4] [$sp+0]
	@DEBUG_VALUE: mbedtls_camellia_crypt_ecb:NR <- [DW_OP_plus_uconst 4] [$sp+0]
	ldrb	r1, [r2, #15]
	str	r1, [sp]                        @ 4-byte Spill
	ldrb	r6, [r2, #14]
	ldrb	r1, [r2, #13]
	ldrb	r2, [r2, #12]
.Ltmp194:
	@DEBUG_VALUE: mbedtls_camellia_crypt_ecb:input <- [DW_OP_LLVM_entry_value 1] $r2
	@DEBUG_VALUE: mbedtls_camellia_crypt_ecb:RK <- [DW_OP_plus_uconst 8, DW_OP_stack_value] $r5
	.loc	1 543 13                        @ ../../../ThirdParty/mbedTLS/library/camellia.c:543:13
	ldr	r4, [r5, #4]
	.loc	1 543 10 is_stmt 0              @ ../../../ThirdParty/mbedTLS/library/camellia.c:543:10
	eors	r4, r7
	str	r4, [sp, #12]
.Ltmp195:
	@DEBUG_VALUE: mbedtls_camellia_crypt_ecb:RK <- [DW_OP_plus_uconst 12, DW_OP_stack_value] $r5
	.loc	1 544 13 is_stmt 1              @ ../../../ThirdParty/mbedTLS/library/camellia.c:544:13
	ldr	r4, [r5, #8]
	.loc	1 544 10 is_stmt 0              @ ../../../ThirdParty/mbedTLS/library/camellia.c:544:10
	eors	r4, r3
	str	r4, [sp, #16]
.Ltmp196:
	@DEBUG_VALUE: mbedtls_camellia_crypt_ecb:RK <- [DW_OP_plus_uconst 16, DW_OP_stack_value] $r5
	.loc	1 545 13 is_stmt 1              @ ../../../ThirdParty/mbedTLS/library/camellia.c:545:13
	ldr	r3, [r5, #12]
	.loc	1 545 10 is_stmt 0              @ ../../../ThirdParty/mbedTLS/library/camellia.c:545:10
	eors	r3, r0
	str	r3, [sp, #20]
.Ltmp197:
	.loc	1 541 5 is_stmt 1               @ ../../../ThirdParty/mbedTLS/library/camellia.c:541:5
	lsls	r0, r2, #24
	lsls	r1, r1, #16
	adds	r0, r1, r0
	lsls	r1, r6, #8
	adds	r0, r0, r1
	ldr	r1, [sp]                        @ 4-byte Reload
	adds	r0, r0, r1
.Ltmp198:
	.loc	1 546 13                        @ ../../../ThirdParty/mbedTLS/library/camellia.c:546:13
	ldr	r1, [r5, #16]
	.loc	1 546 10 is_stmt 0              @ ../../../ThirdParty/mbedTLS/library/camellia.c:546:10
	eors	r1, r0
	str	r1, [sp, #24]
	ldr	r1, [sp, #4]                    @ 4-byte Reload
.Ltmp199:
	@DEBUG_VALUE: mbedtls_camellia_crypt_ecb:NR <- $r1
	.loc	1 546 16                        @ ../../../ThirdParty/mbedTLS/library/camellia.c:546:16
	adds	r5, #20
.Ltmp200:
	@DEBUG_VALUE: mbedtls_camellia_crypt_ecb:RK <- $r5
	.loc	1 0 16                          @ ../../../ThirdParty/mbedTLS/library/camellia.c:0:16
	add	r6, sp, #12
	.loc	1 548 5 is_stmt 1               @ ../../../ThirdParty/mbedTLS/library/camellia.c:548:5
	cmp	r1, #0
	beq	.LBB5_6
.Ltmp201:
@ %bb.1:
	@DEBUG_VALUE: mbedtls_camellia_crypt_ecb:RK <- $r5
	@DEBUG_VALUE: mbedtls_camellia_crypt_ecb:NR <- $r1
	@DEBUG_VALUE: mbedtls_camellia_crypt_ecb:output <- [DW_OP_plus_uconst 8] [$sp+0]
	@DEBUG_VALUE: mbedtls_camellia_crypt_ecb:input <- [DW_OP_LLVM_entry_value 1] $r2
	.loc	1 0 5 is_stmt 0                 @ ../../../ThirdParty/mbedTLS/library/camellia.c:0:5
	adds	r6, #8
	movs	r0, #1
	.loc	1 548 5                         @ ../../../ThirdParty/mbedTLS/library/camellia.c:548:5
	subs	r4, r0, r1
	b	.LBB5_4
.Ltmp202:
.LBB5_2:                                @   in Loop: Header=BB5_4 Depth=1
	@DEBUG_VALUE: mbedtls_camellia_crypt_ecb:output <- [DW_OP_plus_uconst 8] [$sp+0]
	@DEBUG_VALUE: mbedtls_camellia_crypt_ecb:input <- [DW_OP_LLVM_entry_value 1] $r2
	.loc	1 564 13 is_stmt 1              @ ../../../ThirdParty/mbedTLS/library/camellia.c:564:13
	ldr	r1, [r5, #48]
	ldr	r2, [sp, #12]
	ands	r1, r2
	movs	r0, #31
	rors	r1, r0
	ldr	r3, [sp, #16]
	eors	r3, r1
	str	r3, [sp, #16]
	ldr	r1, [r5, #52]
	orrs	r1, r3
	eors	r1, r2
	str	r1, [sp, #12]
.Ltmp203:
	.loc	1 566 13                        @ ../../../ThirdParty/mbedTLS/library/camellia.c:566:13
	ldr	r1, [r5, #60]
.Ltmp204:
	@DEBUG_VALUE: mbedtls_camellia_crypt_ecb:RK <- [DW_OP_plus_uconst 56, DW_OP_stack_value] $r5
	ldr	r2, [sp, #24]
	orrs	r1, r2
	ldr	r3, [sp, #20]
	eors	r3, r1
	str	r3, [sp, #20]
	ldr	r1, [r5, #56]
	ands	r1, r3
	rors	r1, r0
	eors	r1, r2
	str	r1, [sp, #24]
.Ltmp205:
	.loc	1 567 16                        @ ../../../ThirdParty/mbedTLS/library/camellia.c:567:16
	adds	r5, #64
.Ltmp206:
	@DEBUG_VALUE: mbedtls_camellia_crypt_ecb:RK <- $r5
.LBB5_3:                                @   in Loop: Header=BB5_4 Depth=1
	@DEBUG_VALUE: mbedtls_camellia_crypt_ecb:RK <- $r5
	@DEBUG_VALUE: mbedtls_camellia_crypt_ecb:output <- [DW_OP_plus_uconst 8] [$sp+0]
	@DEBUG_VALUE: mbedtls_camellia_crypt_ecb:input <- [DW_OP_LLVM_entry_value 1] $r2
	@DEBUG_VALUE: mbedtls_camellia_crypt_ecb:RK <- $r5
	@DEBUG_VALUE: mbedtls_camellia_crypt_ecb:NR <- [DW_OP_constu 1, DW_OP_minus, DW_OP_stack_value] undef
	.loc	1 548 5                         @ ../../../ThirdParty/mbedTLS/library/camellia.c:548:5
	adds	r4, r4, #1
	cmp	r4, #1
	beq	.LBB5_6
.Ltmp207:
.LBB5_4:                                @ =>This Inner Loop Header: Depth=1
	@DEBUG_VALUE: mbedtls_camellia_crypt_ecb:RK <- $r5
	@DEBUG_VALUE: mbedtls_camellia_crypt_ecb:output <- [DW_OP_plus_uconst 8] [$sp+0]
	@DEBUG_VALUE: mbedtls_camellia_crypt_ecb:input <- [DW_OP_LLVM_entry_value 1] $r2
	@DEBUG_VALUE: mbedtls_camellia_crypt_ecb:RK <- $r5
	@DEBUG_VALUE: mbedtls_camellia_crypt_ecb:NR <- [DW_OP_constu 1, DW_OP_minus, DW_OP_stack_value] undef
	.loc	1 0 5 is_stmt 0                 @ ../../../ThirdParty/mbedTLS/library/camellia.c:0:5
	add	r7, sp, #12
.Ltmp208:
	.loc	1 550 9 is_stmt 1               @ ../../../ThirdParty/mbedTLS/library/camellia.c:550:9
	mov	r0, r7
	mov	r1, r5
	mov	r2, r6
	bl	camellia_feistel
	.loc	1 551 12                        @ ../../../ThirdParty/mbedTLS/library/camellia.c:551:12
	mov	r1, r5
	adds	r1, #8
.Ltmp209:
	@DEBUG_VALUE: mbedtls_camellia_crypt_ecb:RK <- $r1
	.loc	1 552 9                         @ ../../../ThirdParty/mbedTLS/library/camellia.c:552:9
	mov	r0, r6
	mov	r2, r7
	bl	camellia_feistel
.Ltmp210:
	.loc	1 553 12                        @ ../../../ThirdParty/mbedTLS/library/camellia.c:553:12
	mov	r1, r5
	adds	r1, #16
.Ltmp211:
	@DEBUG_VALUE: mbedtls_camellia_crypt_ecb:RK <- $r1
	.loc	1 554 9                         @ ../../../ThirdParty/mbedTLS/library/camellia.c:554:9
	mov	r0, r7
	mov	r2, r6
	bl	camellia_feistel
.Ltmp212:
	.loc	1 555 12                        @ ../../../ThirdParty/mbedTLS/library/camellia.c:555:12
	mov	r1, r5
	adds	r1, #24
.Ltmp213:
	@DEBUG_VALUE: mbedtls_camellia_crypt_ecb:RK <- $r1
	.loc	1 556 9                         @ ../../../ThirdParty/mbedTLS/library/camellia.c:556:9
	mov	r0, r6
	mov	r2, r7
	bl	camellia_feistel
.Ltmp214:
	.loc	1 557 12                        @ ../../../ThirdParty/mbedTLS/library/camellia.c:557:12
	mov	r1, r5
	adds	r1, #32
.Ltmp215:
	@DEBUG_VALUE: mbedtls_camellia_crypt_ecb:RK <- $r1
	.loc	1 558 9                         @ ../../../ThirdParty/mbedTLS/library/camellia.c:558:9
	mov	r0, r7
	mov	r2, r6
	bl	camellia_feistel
.Ltmp216:
	.loc	1 559 12                        @ ../../../ThirdParty/mbedTLS/library/camellia.c:559:12
	mov	r1, r5
	adds	r1, #40
.Ltmp217:
	@DEBUG_VALUE: mbedtls_camellia_crypt_ecb:RK <- $r1
	.loc	1 560 9                         @ ../../../ThirdParty/mbedTLS/library/camellia.c:560:9
	mov	r0, r6
	mov	r2, r7
	bl	camellia_feistel
.Ltmp218:
	@DEBUG_VALUE: mbedtls_camellia_crypt_ecb:RK <- undef
	.loc	1 563 13                        @ ../../../ThirdParty/mbedTLS/library/camellia.c:563:13
	cmp	r4, #0
	bne	.LBB5_2
.Ltmp219:
@ %bb.5:                                @   in Loop: Header=BB5_4 Depth=1
	@DEBUG_VALUE: mbedtls_camellia_crypt_ecb:output <- [DW_OP_plus_uconst 8] [$sp+0]
	@DEBUG_VALUE: mbedtls_camellia_crypt_ecb:input <- [DW_OP_LLVM_entry_value 1] $r2
	.loc	1 0 13 is_stmt 0                @ ../../../ThirdParty/mbedTLS/library/camellia.c:0:13
	adds	r5, #48
.Ltmp220:
	@DEBUG_VALUE: mbedtls_camellia_crypt_ecb:RK <- $r5
	b	.LBB5_3
.Ltmp221:
.LBB5_6:
	@DEBUG_VALUE: mbedtls_camellia_crypt_ecb:RK <- $r5
	@DEBUG_VALUE: mbedtls_camellia_crypt_ecb:output <- [DW_OP_plus_uconst 8] [$sp+0]
	@DEBUG_VALUE: mbedtls_camellia_crypt_ecb:input <- [DW_OP_LLVM_entry_value 1] $r2
	@DEBUG_VALUE: mbedtls_camellia_crypt_ecb:RK <- [DW_OP_plus_uconst 4, DW_OP_stack_value] $r5
	.loc	1 571 13 is_stmt 1              @ ../../../ThirdParty/mbedTLS/library/camellia.c:571:13
	ldr	r1, [r5]
	.loc	1 571 10 is_stmt 0              @ ../../../ThirdParty/mbedTLS/library/camellia.c:571:10
	ldr	r0, [sp, #20]
	eors	r0, r1
	str	r0, [sp, #20]
.Ltmp222:
	@DEBUG_VALUE: mbedtls_camellia_crypt_ecb:RK <- [DW_OP_plus_uconst 8, DW_OP_stack_value] $r5
	.loc	1 572 13 is_stmt 1              @ ../../../ThirdParty/mbedTLS/library/camellia.c:572:13
	ldr	r1, [r5, #4]
	.loc	1 572 10 is_stmt 0              @ ../../../ThirdParty/mbedTLS/library/camellia.c:572:10
	ldr	r3, [sp, #24]
	eors	r3, r1
	str	r3, [sp, #24]
.Ltmp223:
	@DEBUG_VALUE: mbedtls_camellia_crypt_ecb:RK <- [DW_OP_plus_uconst 12, DW_OP_stack_value] $r5
	.loc	1 573 13 is_stmt 1              @ ../../../ThirdParty/mbedTLS/library/camellia.c:573:13
	ldr	r1, [r5, #8]
.Ltmp224:
	@DEBUG_VALUE: mbedtls_camellia_crypt_ecb:RK <- [DW_OP_plus_uconst 12, DW_OP_plus_uconst 4, DW_OP_stack_value] $r5
	.loc	1 574 13                        @ ../../../ThirdParty/mbedTLS/library/camellia.c:574:13
	ldr	r2, [r5, #12]
	ldr	r5, [sp, #8]                    @ 4-byte Reload
.Ltmp225:
	.loc	1 577 5                         @ ../../../ThirdParty/mbedTLS/library/camellia.c:577:5
	strb	r3, [r5, #7]
	lsrs	r4, r3, #8
	strb	r4, [r5, #6]
	lsrs	r4, r3, #16
	strb	r4, [r5, #5]
	lsrs	r3, r3, #24
	strb	r3, [r5, #4]
.Ltmp226:
	.loc	1 576 5                         @ ../../../ThirdParty/mbedTLS/library/camellia.c:576:5
	strb	r0, [r5, #3]
	lsrs	r3, r0, #8
	strb	r3, [r5, #2]
	lsrs	r3, r0, #16
	strb	r3, [r5, #1]
	lsrs	r0, r0, #24
	strb	r0, [r5]
.Ltmp227:
	.loc	1 574 10                        @ ../../../ThirdParty/mbedTLS/library/camellia.c:574:10
	ldr	r0, [sp, #16]
	eors	r0, r2
.Ltmp228:
	.loc	1 579 5                         @ ../../../ThirdParty/mbedTLS/library/camellia.c:579:5
	strb	r0, [r5, #15]
.Ltmp229:
	.loc	1 573 10                        @ ../../../ThirdParty/mbedTLS/library/camellia.c:573:10
	ldr	r2, [sp, #12]
	eors	r2, r1
.Ltmp230:
	.loc	1 578 5                         @ ../../../ThirdParty/mbedTLS/library/camellia.c:578:5
	strb	r2, [r5, #11]
.Ltmp231:
	.loc	1 579 5                         @ ../../../ThirdParty/mbedTLS/library/camellia.c:579:5
	lsrs	r1, r0, #8
	strb	r1, [r5, #14]
	lsrs	r1, r0, #16
	strb	r1, [r5, #13]
	lsrs	r0, r0, #24
	strb	r0, [r5, #12]
.Ltmp232:
	.loc	1 578 5                         @ ../../../ThirdParty/mbedTLS/library/camellia.c:578:5
	lsrs	r0, r2, #8
	strb	r0, [r5, #10]
	lsrs	r0, r2, #16
	strb	r0, [r5, #9]
	lsrs	r0, r2, #24
	strb	r0, [r5, #8]
	movs	r0, #0
.Ltmp233:
	.loc	1 581 5                         @ ../../../ThirdParty/mbedTLS/library/camellia.c:581:5
	add	sp, #28
.Ltmp234:
	pop	{r4, r5, r6, r7, pc}
.Ltmp235:
.Lfunc_end5:
	.size	mbedtls_camellia_crypt_ecb, .Lfunc_end5-mbedtls_camellia_crypt_ecb
	.cfi_endproc
	.cantunwind
	.fnend
                                        @ -- End function
	.section	.text.mbedtls_camellia_crypt_cbc,"ax",%progbits
	.hidden	mbedtls_camellia_crypt_cbc      @ -- Begin function mbedtls_camellia_crypt_cbc
	.globl	mbedtls_camellia_crypt_cbc
	.p2align	1
	.type	mbedtls_camellia_crypt_cbc,%function
	.code	16                              @ @mbedtls_camellia_crypt_cbc
	.thumb_func
mbedtls_camellia_crypt_cbc:
.Lfunc_begin6:
	.loc	1 594 0                         @ ../../../ThirdParty/mbedTLS/library/camellia.c:594:0
	.fnstart
	.cfi_startproc
@ %bb.0:
	@DEBUG_VALUE: mbedtls_camellia_crypt_cbc:ctx <- $r0
	@DEBUG_VALUE: mbedtls_camellia_crypt_cbc:mode <- $r1
	@DEBUG_VALUE: mbedtls_camellia_crypt_cbc:length <- $r2
	@DEBUG_VALUE: mbedtls_camellia_crypt_cbc:iv <- $r3
	.save	{r4, r5, r6, r7, lr}
	push	{r4, r5, r6, r7, lr}
	.cfi_def_cfa_offset 20
	.cfi_offset lr, -4
	.cfi_offset r7, -8
	.cfi_offset r6, -12
	.cfi_offset r5, -16
	.cfi_offset r4, -20
	.pad	#28
	sub	sp, #28
	.cfi_def_cfa_offset 48
	mov	r4, r3
	mov	r3, r0
.Ltmp236:
	@DEBUG_VALUE: mbedtls_camellia_crypt_cbc:iv <- [DW_OP_LLVM_entry_value 1] $r3
	@DEBUG_VALUE: mbedtls_camellia_crypt_cbc:output <- [DW_OP_plus_uconst 52] [$sp+0]
	@DEBUG_VALUE: mbedtls_camellia_crypt_cbc:input <- [DW_OP_plus_uconst 48] [$sp+0]
	@DEBUG_VALUE: mbedtls_camellia_crypt_cbc:iv <- $r4
	@DEBUG_VALUE: mbedtls_camellia_crypt_cbc:length <- $r2
	@DEBUG_VALUE: mbedtls_camellia_crypt_cbc:mode <- $r1
	@DEBUG_VALUE: mbedtls_camellia_crypt_cbc:ctx <- $r3
	.loc	1 604 9 prologue_end            @ ../../../ThirdParty/mbedTLS/library/camellia.c:604:9
	lsls	r0, r2, #28
	beq	.LBB6_2
.Ltmp237:
@ %bb.1:
	@DEBUG_VALUE: mbedtls_camellia_crypt_cbc:iv <- $r4
	@DEBUG_VALUE: mbedtls_camellia_crypt_cbc:ctx <- $r3
	@DEBUG_VALUE: mbedtls_camellia_crypt_cbc:length <- $r2
	@DEBUG_VALUE: mbedtls_camellia_crypt_cbc:mode <- $r1
	@DEBUG_VALUE: mbedtls_camellia_crypt_cbc:input <- [DW_OP_plus_uconst 48] [$sp+0]
	@DEBUG_VALUE: mbedtls_camellia_crypt_cbc:output <- [DW_OP_plus_uconst 52] [$sp+0]
	.loc	1 0 9 is_stmt 0                 @ ../../../ThirdParty/mbedTLS/library/camellia.c:0:9
	movs	r0, #37
	mvns	r0, r0
	.loc	1 641 1 is_stmt 1               @ ../../../ThirdParty/mbedTLS/library/camellia.c:641:1
	add	sp, #28
.Ltmp238:
	pop	{r4, r5, r6, r7, pc}
.Ltmp239:
.LBB6_2:
	@DEBUG_VALUE: mbedtls_camellia_crypt_cbc:iv <- $r4
	@DEBUG_VALUE: mbedtls_camellia_crypt_cbc:ctx <- $r3
	@DEBUG_VALUE: mbedtls_camellia_crypt_cbc:length <- $r2
	@DEBUG_VALUE: mbedtls_camellia_crypt_cbc:mode <- $r1
	@DEBUG_VALUE: mbedtls_camellia_crypt_cbc:input <- [DW_OP_plus_uconst 48] [$sp+0]
	@DEBUG_VALUE: mbedtls_camellia_crypt_cbc:output <- [DW_OP_plus_uconst 52] [$sp+0]
	.loc	1 0 1 is_stmt 0                 @ ../../../ThirdParty/mbedTLS/library/camellia.c:0:1
	mov	r5, r2
.Ltmp240:
	@DEBUG_VALUE: mbedtls_camellia_crypt_cbc:length <- $r5
	ldr	r6, [sp, #52]
	ldr	r7, [sp, #48]
.Ltmp241:
	@DEBUG_VALUE: mbedtls_camellia_crypt_cbc:output <- undef
	@DEBUG_VALUE: mbedtls_camellia_crypt_cbc:input <- undef
	@DEBUG_VALUE: mbedtls_camellia_crypt_cbc:length <- undef
	@DEBUG_VALUE: mbedtls_camellia_crypt_cbc:output <- undef
	@DEBUG_VALUE: mbedtls_camellia_crypt_cbc:input <- undef
	@DEBUG_VALUE: mbedtls_camellia_crypt_cbc:length <- undef
	str	r3, [sp, #8]                    @ 4-byte Spill
	.loc	1 607 9 is_stmt 1               @ ../../../ThirdParty/mbedTLS/library/camellia.c:607:9
	cbz	r1, .LBB6_8
.Ltmp242:
@ %bb.3:
	@DEBUG_VALUE: mbedtls_camellia_crypt_cbc:iv <- $r4
	@DEBUG_VALUE: mbedtls_camellia_crypt_cbc:ctx <- $r3
	@DEBUG_VALUE: mbedtls_camellia_crypt_cbc:mode <- $r1
	.loc	1 0 9 is_stmt 0                 @ ../../../ThirdParty/mbedTLS/library/camellia.c:0:9
	movs	r0, #0
.Ltmp243:
	.loc	1 626 9 is_stmt 1               @ ../../../ThirdParty/mbedTLS/library/camellia.c:626:9
	cbz	r5, .LBB6_7
.Ltmp244:
@ %bb.4:
	@DEBUG_VALUE: mbedtls_camellia_crypt_cbc:iv <- $r4
	@DEBUG_VALUE: mbedtls_camellia_crypt_cbc:ctx <- $r3
	@DEBUG_VALUE: mbedtls_camellia_crypt_cbc:mode <- $r1
	.loc	1 0 9 is_stmt 0                 @ ../../../ThirdParty/mbedTLS/library/camellia.c:0:9
	movs	r1, #16
.Ltmp245:
	@DEBUG_VALUE: mbedtls_camellia_crypt_cbc:mode <- [DW_OP_LLVM_entry_value 1] $r1
	str	r1, [sp]                        @ 4-byte Spill
	str	r0, [sp, #4]                    @ 4-byte Spill
.Ltmp246:
	@DEBUG_VALUE: mbedtls_camellia_crypt_cbc:length <- $r5
	@DEBUG_VALUE: mbedtls_camellia_crypt_cbc:input <- $r7
	@DEBUG_VALUE: mbedtls_camellia_crypt_cbc:output <- $r6
	@DEBUG_VALUE: mbedtls_camellia_crypt_cbc:i <- 0
.LBB6_5:                                @ =>This Inner Loop Header: Depth=1
	@DEBUG_VALUE: mbedtls_camellia_crypt_cbc:input <- $r7
	@DEBUG_VALUE: mbedtls_camellia_crypt_cbc:output <- $r6
	@DEBUG_VALUE: mbedtls_camellia_crypt_cbc:length <- $r5
	@DEBUG_VALUE: mbedtls_camellia_crypt_cbc:iv <- $r4
	@DEBUG_VALUE: mbedtls_camellia_crypt_cbc:mode <- [DW_OP_LLVM_entry_value 1] $r1
	@DEBUG_VALUE: mbedtls_camellia_crypt_cbc:i <- $r0
	.loc	1 629 46 is_stmt 1              @ ../../../ThirdParty/mbedTLS/library/camellia.c:629:46
	ldrb	r1, [r7, r0]
	.loc	1 629 57 is_stmt 0              @ ../../../ThirdParty/mbedTLS/library/camellia.c:629:57
	ldrb	r2, [r4, r0]
	.loc	1 629 55                        @ ../../../ThirdParty/mbedTLS/library/camellia.c:629:55
	eors	r2, r1
	.loc	1 629 27                        @ ../../../ThirdParty/mbedTLS/library/camellia.c:629:27
	strb	r2, [r6, r0]
	.loc	1 628 34 is_stmt 1              @ ../../../ThirdParty/mbedTLS/library/camellia.c:628:34
	adds	r0, r0, #1
.Ltmp247:
	@DEBUG_VALUE: mbedtls_camellia_crypt_cbc:i <- $r0
	.loc	1 628 13 is_stmt 0              @ ../../../ThirdParty/mbedTLS/library/camellia.c:628:13
	cmp	r0, #16
	bne	.LBB6_5
.Ltmp248:
@ %bb.6:                                @   in Loop: Header=BB6_5 Depth=1
	@DEBUG_VALUE: mbedtls_camellia_crypt_cbc:input <- $r7
	@DEBUG_VALUE: mbedtls_camellia_crypt_cbc:output <- $r6
	@DEBUG_VALUE: mbedtls_camellia_crypt_cbc:length <- $r5
	@DEBUG_VALUE: mbedtls_camellia_crypt_cbc:iv <- $r4
	@DEBUG_VALUE: mbedtls_camellia_crypt_cbc:i <- $r0
	@DEBUG_VALUE: mbedtls_camellia_crypt_cbc:mode <- [DW_OP_LLVM_entry_value 1] $r1
	.loc	1 631 13 is_stmt 1              @ ../../../ThirdParty/mbedTLS/library/camellia.c:631:13
	mov	r0, r3
.Ltmp249:
	mov	r2, r6
	mov	r3, r6
	bl	mbedtls_camellia_crypt_ecb
	.loc	1 632 13                        @ ../../../ThirdParty/mbedTLS/library/camellia.c:632:13
	mov	r0, r4
	mov	r1, r6
	ldr	r2, [sp]                        @ 4-byte Reload
	bl	__aeabi_memcpy
	ldr	r3, [sp, #8]                    @ 4-byte Reload
	.loc	1 636 20                        @ ../../../ThirdParty/mbedTLS/library/camellia.c:636:20
	subs	r5, #16
.Ltmp250:
	@DEBUG_VALUE: mbedtls_camellia_crypt_cbc:length <- $r5
	.loc	1 635 20                        @ ../../../ThirdParty/mbedTLS/library/camellia.c:635:20
	adds	r6, #16
.Ltmp251:
	@DEBUG_VALUE: mbedtls_camellia_crypt_cbc:output <- $r6
	.loc	1 634 20                        @ ../../../ThirdParty/mbedTLS/library/camellia.c:634:20
	adds	r7, #16
.Ltmp252:
	@DEBUG_VALUE: mbedtls_camellia_crypt_cbc:input <- $r7
	.loc	1 626 9                         @ ../../../ThirdParty/mbedTLS/library/camellia.c:626:9
	cmp	r5, #0
	ldr	r0, [sp, #4]                    @ 4-byte Reload
	bne	.LBB6_5
.Ltmp253:
.LBB6_7:
	@DEBUG_VALUE: mbedtls_camellia_crypt_cbc:iv <- $r4
	.loc	1 641 1                         @ ../../../ThirdParty/mbedTLS/library/camellia.c:641:1
	add	sp, #28
	pop	{r4, r5, r6, r7, pc}
.Ltmp254:
.LBB6_8:
	@DEBUG_VALUE: mbedtls_camellia_crypt_cbc:iv <- $r4
	@DEBUG_VALUE: mbedtls_camellia_crypt_cbc:ctx <- $r3
	@DEBUG_VALUE: mbedtls_camellia_crypt_cbc:mode <- $r1
	.loc	1 0 1 is_stmt 0                 @ ../../../ThirdParty/mbedTLS/library/camellia.c:0:1
	movs	r0, #0
.Ltmp255:
	.loc	1 609 9 is_stmt 1               @ ../../../ThirdParty/mbedTLS/library/camellia.c:609:9
	cmp	r5, #0
	beq	.LBB6_7
.Ltmp256:
@ %bb.9:
	@DEBUG_VALUE: mbedtls_camellia_crypt_cbc:iv <- $r4
	@DEBUG_VALUE: mbedtls_camellia_crypt_cbc:ctx <- $r3
	@DEBUG_VALUE: mbedtls_camellia_crypt_cbc:mode <- $r1
	.loc	1 0 9 is_stmt 0                 @ ../../../ThirdParty/mbedTLS/library/camellia.c:0:9
	str	r0, [sp, #4]                    @ 4-byte Spill
	movs	r0, #16
	str	r0, [sp]                        @ 4-byte Spill
.Ltmp257:
.LBB6_10:                               @ =>This Loop Header: Depth=1
                                        @     Child Loop BB6_11 Depth 2
	@DEBUG_VALUE: mbedtls_camellia_crypt_cbc:iv <- $r4
	@DEBUG_VALUE: mbedtls_camellia_crypt_cbc:length <- $r5
	@DEBUG_VALUE: mbedtls_camellia_crypt_cbc:input <- $r7
	@DEBUG_VALUE: mbedtls_camellia_crypt_cbc:output <- $r6
	.loc	1 611 13 is_stmt 1              @ ../../../ThirdParty/mbedTLS/library/camellia.c:611:13
	ldrb	r0, [r7, #12]
	ldrb	r1, [r7, #13]
.Ltmp258:
	@DEBUG_VALUE: mbedtls_camellia_crypt_cbc:mode <- [DW_OP_LLVM_entry_value 1] $r1
	lsls	r1, r1, #8
	adds	r0, r1, r0
	ldrb	r1, [r7, #14]
	ldrb	r2, [r7, #15]
	lsls	r2, r2, #8
	adds	r1, r2, r1
	lsls	r1, r1, #16
	adds	r0, r1, r0
	str	r0, [sp, #24]
	ldrb	r0, [r7, #8]
	ldrb	r1, [r7, #9]
	lsls	r1, r1, #8
	adds	r0, r1, r0
	ldrb	r1, [r7, #10]
	ldrb	r2, [r7, #11]
	lsls	r2, r2, #8
	adds	r1, r2, r1
	lsls	r1, r1, #16
	adds	r0, r1, r0
	str	r0, [sp, #20]
	ldrb	r0, [r7, #4]
	ldrb	r1, [r7, #5]
	lsls	r1, r1, #8
	adds	r0, r1, r0
	ldrb	r1, [r7, #6]
	ldrb	r2, [r7, #7]
	lsls	r2, r2, #8
	adds	r1, r2, r1
	lsls	r1, r1, #16
	adds	r0, r1, r0
	str	r0, [sp, #16]
	ldrb	r0, [r7]
	ldrb	r1, [r7, #1]
	lsls	r1, r1, #8
	adds	r0, r1, r0
	ldrb	r1, [r7, #2]
	ldrb	r2, [r7, #3]
	lsls	r2, r2, #8
	adds	r1, r2, r1
	lsls	r1, r1, #16
	adds	r0, r1, r0
	str	r0, [sp, #12]
	.loc	1 612 13                        @ ../../../ThirdParty/mbedTLS/library/camellia.c:612:13
	mov	r0, r3
	mov	r2, r7
	mov	r3, r6
	bl	mbedtls_camellia_crypt_ecb
.Ltmp259:
	@DEBUG_VALUE: mbedtls_camellia_crypt_cbc:i <- 0
	.loc	1 0 13 is_stmt 0                @ ../../../ThirdParty/mbedTLS/library/camellia.c:0:13
	ldr	r0, [sp, #4]                    @ 4-byte Reload
.Ltmp260:
.LBB6_11:                               @   Parent Loop BB6_10 Depth=1
                                        @ =>  This Inner Loop Header: Depth=2
	@DEBUG_VALUE: mbedtls_camellia_crypt_cbc:input <- $r7
	@DEBUG_VALUE: mbedtls_camellia_crypt_cbc:output <- $r6
	@DEBUG_VALUE: mbedtls_camellia_crypt_cbc:length <- $r5
	@DEBUG_VALUE: mbedtls_camellia_crypt_cbc:iv <- $r4
	@DEBUG_VALUE: mbedtls_camellia_crypt_cbc:i <- $r0
	.loc	1 615 46 is_stmt 1              @ ../../../ThirdParty/mbedTLS/library/camellia.c:615:46
	ldrb	r1, [r6, r0]
	.loc	1 615 58 is_stmt 0              @ ../../../ThirdParty/mbedTLS/library/camellia.c:615:58
	ldrb	r2, [r4, r0]
	.loc	1 615 56                        @ ../../../ThirdParty/mbedTLS/library/camellia.c:615:56
	eors	r2, r1
	.loc	1 615 27                        @ ../../../ThirdParty/mbedTLS/library/camellia.c:615:27
	strb	r2, [r6, r0]
	.loc	1 614 34 is_stmt 1              @ ../../../ThirdParty/mbedTLS/library/camellia.c:614:34
	adds	r0, r0, #1
.Ltmp261:
	@DEBUG_VALUE: mbedtls_camellia_crypt_cbc:i <- $r0
	.loc	1 614 13 is_stmt 0              @ ../../../ThirdParty/mbedTLS/library/camellia.c:614:13
	cmp	r0, #16
	bne	.LBB6_11
.Ltmp262:
@ %bb.12:                               @   in Loop: Header=BB6_10 Depth=1
	@DEBUG_VALUE: mbedtls_camellia_crypt_cbc:input <- $r7
	@DEBUG_VALUE: mbedtls_camellia_crypt_cbc:output <- $r6
	@DEBUG_VALUE: mbedtls_camellia_crypt_cbc:length <- $r5
	@DEBUG_VALUE: mbedtls_camellia_crypt_cbc:iv <- $r4
	@DEBUG_VALUE: mbedtls_camellia_crypt_cbc:i <- $r0
	.loc	1 0 13                          @ ../../../ThirdParty/mbedTLS/library/camellia.c:0:13
	add	r1, sp, #12
	.loc	1 617 13 is_stmt 1              @ ../../../ThirdParty/mbedTLS/library/camellia.c:617:13
	mov	r0, r4
.Ltmp263:
	ldr	r2, [sp]                        @ 4-byte Reload
	bl	__aeabi_memcpy
	.loc	1 621 20                        @ ../../../ThirdParty/mbedTLS/library/camellia.c:621:20
	subs	r5, #16
.Ltmp264:
	@DEBUG_VALUE: mbedtls_camellia_crypt_cbc:length <- $r5
	.loc	1 620 20                        @ ../../../ThirdParty/mbedTLS/library/camellia.c:620:20
	adds	r6, #16
.Ltmp265:
	@DEBUG_VALUE: mbedtls_camellia_crypt_cbc:output <- $r6
	.loc	1 619 20                        @ ../../../ThirdParty/mbedTLS/library/camellia.c:619:20
	adds	r7, #16
.Ltmp266:
	@DEBUG_VALUE: mbedtls_camellia_crypt_cbc:input <- $r7
	.loc	1 609 9                         @ ../../../ThirdParty/mbedTLS/library/camellia.c:609:9
	cmp	r5, #0
	ldr	r3, [sp, #8]                    @ 4-byte Reload
	bne	.LBB6_10
.Ltmp267:
@ %bb.13:
	@DEBUG_VALUE: mbedtls_camellia_crypt_cbc:input <- $r7
	@DEBUG_VALUE: mbedtls_camellia_crypt_cbc:output <- $r6
	@DEBUG_VALUE: mbedtls_camellia_crypt_cbc:length <- $r5
	@DEBUG_VALUE: mbedtls_camellia_crypt_cbc:iv <- $r4
	.loc	1 0 9 is_stmt 0                 @ ../../../ThirdParty/mbedTLS/library/camellia.c:0:9
	ldr	r0, [sp, #4]                    @ 4-byte Reload
	.loc	1 641 1 is_stmt 1               @ ../../../ThirdParty/mbedTLS/library/camellia.c:641:1
	add	sp, #28
	pop	{r4, r5, r6, r7, pc}
.Ltmp268:
.Lfunc_end6:
	.size	mbedtls_camellia_crypt_cbc, .Lfunc_end6-mbedtls_camellia_crypt_cbc
	.cfi_endproc
	.cantunwind
	.fnend
                                        @ -- End function
	.section	.text.mbedtls_camellia_crypt_cfb128,"ax",%progbits
	.hidden	mbedtls_camellia_crypt_cfb128   @ -- Begin function mbedtls_camellia_crypt_cfb128
	.globl	mbedtls_camellia_crypt_cfb128
	.p2align	1
	.type	mbedtls_camellia_crypt_cfb128,%function
	.code	16                              @ @mbedtls_camellia_crypt_cfb128
	.thumb_func
mbedtls_camellia_crypt_cfb128:
.Lfunc_begin7:
	.loc	1 655 0                         @ ../../../ThirdParty/mbedTLS/library/camellia.c:655:0
	.fnstart
	.cfi_startproc
@ %bb.0:
	@DEBUG_VALUE: mbedtls_camellia_crypt_cfb128:ctx <- $r0
	@DEBUG_VALUE: mbedtls_camellia_crypt_cfb128:mode <- $r1
	@DEBUG_VALUE: mbedtls_camellia_crypt_cfb128:length <- $r2
	@DEBUG_VALUE: mbedtls_camellia_crypt_cfb128:iv_off <- $r3
	@DEBUG_VALUE: mbedtls_camellia_crypt_cfb128:iv_off <- $r3
	@DEBUG_VALUE: mbedtls_camellia_crypt_cfb128:length <- $r2
	@DEBUG_VALUE: mbedtls_camellia_crypt_cfb128:mode <- $r1
	@DEBUG_VALUE: mbedtls_camellia_crypt_cfb128:ctx <- $r0
	.save	{r4, r5, r6, r7, lr}
	push	{r4, r5, r6, r7, lr}
	.cfi_def_cfa_offset 20
	.cfi_offset lr, -4
	.cfi_offset r7, -8
	.cfi_offset r6, -12
	.cfi_offset r5, -16
	.cfi_offset r4, -20
	.pad	#20
	sub	sp, #20
	.cfi_def_cfa_offset 40
.Ltmp269:
	@DEBUG_VALUE: mbedtls_camellia_crypt_cfb128:output <- [DW_OP_plus_uconst 48] [$sp+0]
	@DEBUG_VALUE: mbedtls_camellia_crypt_cfb128:input <- [DW_OP_plus_uconst 44] [$sp+0]
	@DEBUG_VALUE: mbedtls_camellia_crypt_cfb128:iv <- [DW_OP_plus_uconst 40] [$sp+0]
	.loc	1 666 9 prologue_end            @ ../../../ThirdParty/mbedTLS/library/camellia.c:666:9
	ldr	r4, [r3]
.Ltmp270:
	@DEBUG_VALUE: mbedtls_camellia_crypt_cfb128:n <- $r4
	.loc	1 667 9                         @ ../../../ThirdParty/mbedTLS/library/camellia.c:667:9
	cmp	r4, #15
	bls	.LBB7_2
.Ltmp271:
@ %bb.1:
	@DEBUG_VALUE: mbedtls_camellia_crypt_cfb128:n <- $r4
	@DEBUG_VALUE: mbedtls_camellia_crypt_cfb128:iv_off <- $r3
	@DEBUG_VALUE: mbedtls_camellia_crypt_cfb128:length <- $r2
	@DEBUG_VALUE: mbedtls_camellia_crypt_cfb128:mode <- $r1
	@DEBUG_VALUE: mbedtls_camellia_crypt_cfb128:ctx <- $r0
	@DEBUG_VALUE: mbedtls_camellia_crypt_cfb128:iv <- [DW_OP_plus_uconst 40] [$sp+0]
	@DEBUG_VALUE: mbedtls_camellia_crypt_cfb128:input <- [DW_OP_plus_uconst 44] [$sp+0]
	@DEBUG_VALUE: mbedtls_camellia_crypt_cfb128:output <- [DW_OP_plus_uconst 48] [$sp+0]
	.loc	1 0 9 is_stmt 0                 @ ../../../ThirdParty/mbedTLS/library/camellia.c:0:9
	movs	r0, #35
.Ltmp272:
	@DEBUG_VALUE: mbedtls_camellia_crypt_cfb128:ctx <- [DW_OP_LLVM_entry_value 1] $r0
	mvns	r0, r0
	.loc	1 700 1 is_stmt 1               @ ../../../ThirdParty/mbedTLS/library/camellia.c:700:1
	add	sp, #20
.Ltmp273:
	pop	{r4, r5, r6, r7, pc}
.Ltmp274:
.LBB7_2:
	@DEBUG_VALUE: mbedtls_camellia_crypt_cfb128:n <- $r4
	@DEBUG_VALUE: mbedtls_camellia_crypt_cfb128:iv_off <- $r3
	@DEBUG_VALUE: mbedtls_camellia_crypt_cfb128:length <- $r2
	@DEBUG_VALUE: mbedtls_camellia_crypt_cfb128:mode <- $r1
	@DEBUG_VALUE: mbedtls_camellia_crypt_cfb128:ctx <- $r0
	@DEBUG_VALUE: mbedtls_camellia_crypt_cfb128:iv <- [DW_OP_plus_uconst 40] [$sp+0]
	@DEBUG_VALUE: mbedtls_camellia_crypt_cfb128:input <- [DW_OP_plus_uconst 44] [$sp+0]
	@DEBUG_VALUE: mbedtls_camellia_crypt_cfb128:output <- [DW_OP_plus_uconst 48] [$sp+0]
	.loc	1 0 1 is_stmt 0                 @ ../../../ThirdParty/mbedTLS/library/camellia.c:0:1
	mov	r5, r2
.Ltmp275:
	@DEBUG_VALUE: mbedtls_camellia_crypt_cfb128:length <- $r5
	str	r3, [sp, #4]                    @ 4-byte Spill
.Ltmp276:
	@DEBUG_VALUE: mbedtls_camellia_crypt_cfb128:iv_off <- [DW_OP_plus_uconst 4] [$sp+0]
	ldr	r6, [sp, #48]
	ldr	r7, [sp, #44]
	ldr	r2, [sp, #40]
	@DEBUG_VALUE: mbedtls_camellia_crypt_cfb128:n <- $r4
.Ltmp277:
	@DEBUG_VALUE: mbedtls_camellia_crypt_cfb128:output <- undef
	@DEBUG_VALUE: mbedtls_camellia_crypt_cfb128:input <- undef
	@DEBUG_VALUE: mbedtls_camellia_crypt_cfb128:length <- [DW_OP_constu 1, DW_OP_minus, DW_OP_stack_value] undef
	@DEBUG_VALUE: mbedtls_camellia_crypt_cfb128:output <- undef
	@DEBUG_VALUE: mbedtls_camellia_crypt_cfb128:input <- undef
	@DEBUG_VALUE: mbedtls_camellia_crypt_cfb128:length <- [DW_OP_constu 1, DW_OP_minus, DW_OP_stack_value] undef
	str	r0, [sp, #8]                    @ 4-byte Spill
	str	r2, [sp, #16]                   @ 4-byte Spill
	.loc	1 670 9 is_stmt 1               @ ../../../ThirdParty/mbedTLS/library/camellia.c:670:9
	cbz	r1, .LBB7_8
.Ltmp278:
@ %bb.3:
	@DEBUG_VALUE: mbedtls_camellia_crypt_cfb128:iv_off <- [DW_OP_plus_uconst 4] [$sp+0]
	@DEBUG_VALUE: mbedtls_camellia_crypt_cfb128:n <- $r4
	@DEBUG_VALUE: mbedtls_camellia_crypt_cfb128:mode <- $r1
	@DEBUG_VALUE: mbedtls_camellia_crypt_cfb128:ctx <- $r0
	@DEBUG_VALUE: mbedtls_camellia_crypt_cfb128:iv <- [DW_OP_plus_uconst 40] [$sp+0]
	.loc	1 686 9                         @ ../../../ThirdParty/mbedTLS/library/camellia.c:686:9
	cbz	r5, .LBB7_13
.Ltmp279:
@ %bb.4:
	@DEBUG_VALUE: mbedtls_camellia_crypt_cfb128:iv_off <- [DW_OP_plus_uconst 4] [$sp+0]
	@DEBUG_VALUE: mbedtls_camellia_crypt_cfb128:n <- $r4
	@DEBUG_VALUE: mbedtls_camellia_crypt_cfb128:mode <- $r1
	@DEBUG_VALUE: mbedtls_camellia_crypt_cfb128:ctx <- $r0
	@DEBUG_VALUE: mbedtls_camellia_crypt_cfb128:iv <- [DW_OP_plus_uconst 40] [$sp+0]
	.loc	1 0 9 is_stmt 0                 @ ../../../ThirdParty/mbedTLS/library/camellia.c:0:9
	movs	r1, #15
.Ltmp280:
	@DEBUG_VALUE: mbedtls_camellia_crypt_cfb128:mode <- [DW_OP_LLVM_entry_value 1] $r1
	str	r1, [sp, #12]                   @ 4-byte Spill
	b	.LBB7_6
.Ltmp281:
.LBB7_5:                                @   in Loop: Header=BB7_6 Depth=1
	@DEBUG_VALUE: mbedtls_camellia_crypt_cfb128:iv_off <- [DW_OP_plus_uconst 4] [$sp+0]
	@DEBUG_VALUE: mbedtls_camellia_crypt_cfb128:input <- $r7
	@DEBUG_VALUE: mbedtls_camellia_crypt_cfb128:output <- $r6
	@DEBUG_VALUE: mbedtls_camellia_crypt_cfb128:n <- $r4
	@DEBUG_VALUE: mbedtls_camellia_crypt_cfb128:iv <- [DW_OP_plus_uconst 40] [$sp+0]
	@DEBUG_VALUE: mbedtls_camellia_crypt_cfb128:mode <- [DW_OP_LLVM_entry_value 1] $r1
	.loc	1 691 50 is_stmt 1              @ ../../../ThirdParty/mbedTLS/library/camellia.c:691:50
	ldrb	r3, [r2, r4]
	.loc	1 691 58 is_stmt 0              @ ../../../ThirdParty/mbedTLS/library/camellia.c:691:58
	ldrb	r1, [r7]
	.loc	1 691 56                        @ ../../../ThirdParty/mbedTLS/library/camellia.c:691:56
	eors	r1, r3
	.loc	1 691 31                        @ ../../../ThirdParty/mbedTLS/library/camellia.c:691:31
	strb	r1, [r6]
	.loc	1 691 19                        @ ../../../ThirdParty/mbedTLS/library/camellia.c:691:19
	strb	r1, [r2, r4]
	.loc	1 693 21 is_stmt 1              @ ../../../ThirdParty/mbedTLS/library/camellia.c:693:21
	adds	r4, r4, #1
.Ltmp282:
	.loc	1 693 27 is_stmt 0              @ ../../../ThirdParty/mbedTLS/library/camellia.c:693:27
	ldr	r1, [sp, #12]                   @ 4-byte Reload
	ands	r4, r1
.Ltmp283:
	@DEBUG_VALUE: mbedtls_camellia_crypt_cfb128:n <- $r4
	.loc	1 691 28 is_stmt 1              @ ../../../ThirdParty/mbedTLS/library/camellia.c:691:28
	adds	r6, r6, #1
.Ltmp284:
	@DEBUG_VALUE: mbedtls_camellia_crypt_cfb128:output <- $r6
	.loc	1 691 64 is_stmt 0              @ ../../../ThirdParty/mbedTLS/library/camellia.c:691:64
	adds	r7, r7, #1
.Ltmp285:
	@DEBUG_VALUE: mbedtls_camellia_crypt_cfb128:input <- $r7
	@DEBUG_VALUE: mbedtls_camellia_crypt_cfb128:length <- [DW_OP_constu 1, DW_OP_minus, DW_OP_stack_value] $r5
	.loc	1 0 64                          @ ../../../ThirdParty/mbedTLS/library/camellia.c:0:64
	cbz	r5, .LBB7_13
.Ltmp286:
.LBB7_6:                                @ =>This Inner Loop Header: Depth=1
	@DEBUG_VALUE: mbedtls_camellia_crypt_cfb128:iv_off <- [DW_OP_plus_uconst 4] [$sp+0]
	@DEBUG_VALUE: mbedtls_camellia_crypt_cfb128:n <- $r4
	@DEBUG_VALUE: mbedtls_camellia_crypt_cfb128:iv <- [DW_OP_plus_uconst 40] [$sp+0]
	@DEBUG_VALUE: mbedtls_camellia_crypt_cfb128:mode <- [DW_OP_LLVM_entry_value 1] $r1
	.loc	1 686 22 is_stmt 1              @ ../../../ThirdParty/mbedTLS/library/camellia.c:686:22
	subs	r5, r5, #1
	@DEBUG_VALUE: mbedtls_camellia_crypt_cfb128:n <- $r4
.Ltmp287:
	@DEBUG_VALUE: mbedtls_camellia_crypt_cfb128:output <- $r6
	@DEBUG_VALUE: mbedtls_camellia_crypt_cfb128:input <- $r7
	.loc	1 688 17                        @ ../../../ThirdParty/mbedTLS/library/camellia.c:688:17
	cmp	r4, #0
	bne	.LBB7_5
.Ltmp288:
@ %bb.7:                                @   in Loop: Header=BB7_6 Depth=1
	@DEBUG_VALUE: mbedtls_camellia_crypt_cfb128:iv_off <- [DW_OP_plus_uconst 4] [$sp+0]
	@DEBUG_VALUE: mbedtls_camellia_crypt_cfb128:input <- $r7
	@DEBUG_VALUE: mbedtls_camellia_crypt_cfb128:output <- $r6
	@DEBUG_VALUE: mbedtls_camellia_crypt_cfb128:n <- $r4
	@DEBUG_VALUE: mbedtls_camellia_crypt_cfb128:iv <- [DW_OP_plus_uconst 40] [$sp+0]
	@DEBUG_VALUE: mbedtls_camellia_crypt_cfb128:mode <- [DW_OP_LLVM_entry_value 1] $r1
	.loc	1 689 17                        @ ../../../ThirdParty/mbedTLS/library/camellia.c:689:17
	ldr	r3, [sp, #16]                   @ 4-byte Reload
	bl	mbedtls_camellia_crypt_ecb
.Ltmp289:
	@DEBUG_VALUE: mbedtls_camellia_crypt_cfb128:ctx <- [DW_OP_LLVM_entry_value 1] $r0
	.loc	1 0 17 is_stmt 0                @ ../../../ThirdParty/mbedTLS/library/camellia.c:0:17
	ldr	r2, [sp, #16]                   @ 4-byte Reload
	ldr	r0, [sp, #8]                    @ 4-byte Reload
	b	.LBB7_5
.Ltmp290:
.LBB7_8:
	@DEBUG_VALUE: mbedtls_camellia_crypt_cfb128:iv_off <- [DW_OP_plus_uconst 4] [$sp+0]
	@DEBUG_VALUE: mbedtls_camellia_crypt_cfb128:n <- $r4
	@DEBUG_VALUE: mbedtls_camellia_crypt_cfb128:mode <- $r1
	@DEBUG_VALUE: mbedtls_camellia_crypt_cfb128:ctx <- $r0
	@DEBUG_VALUE: mbedtls_camellia_crypt_cfb128:iv <- [DW_OP_plus_uconst 40] [$sp+0]
	.loc	1 672 9 is_stmt 1               @ ../../../ThirdParty/mbedTLS/library/camellia.c:672:9
	cbz	r5, .LBB7_13
.Ltmp291:
@ %bb.9:
	@DEBUG_VALUE: mbedtls_camellia_crypt_cfb128:iv_off <- [DW_OP_plus_uconst 4] [$sp+0]
	@DEBUG_VALUE: mbedtls_camellia_crypt_cfb128:n <- $r4
	@DEBUG_VALUE: mbedtls_camellia_crypt_cfb128:mode <- $r1
	@DEBUG_VALUE: mbedtls_camellia_crypt_cfb128:ctx <- $r0
	@DEBUG_VALUE: mbedtls_camellia_crypt_cfb128:iv <- [DW_OP_plus_uconst 40] [$sp+0]
	.loc	1 0 9 is_stmt 0                 @ ../../../ThirdParty/mbedTLS/library/camellia.c:0:9
	movs	r1, #15
.Ltmp292:
	@DEBUG_VALUE: mbedtls_camellia_crypt_cfb128:mode <- [DW_OP_LLVM_entry_value 1] $r1
	str	r1, [sp, #12]                   @ 4-byte Spill
	b	.LBB7_11
.Ltmp293:
.LBB7_10:                               @   in Loop: Header=BB7_11 Depth=1
	@DEBUG_VALUE: mbedtls_camellia_crypt_cfb128:iv_off <- [DW_OP_plus_uconst 4] [$sp+0]
	@DEBUG_VALUE: mbedtls_camellia_crypt_cfb128:input <- $r7
	@DEBUG_VALUE: mbedtls_camellia_crypt_cfb128:output <- $r6
	@DEBUG_VALUE: mbedtls_camellia_crypt_cfb128:n <- $r4
	@DEBUG_VALUE: mbedtls_camellia_crypt_cfb128:iv <- [DW_OP_plus_uconst 40] [$sp+0]
	@DEBUG_VALUE: mbedtls_camellia_crypt_cfb128:mode <- [DW_OP_LLVM_entry_value 1] $r1
	.loc	1 678 46 is_stmt 1              @ ../../../ThirdParty/mbedTLS/library/camellia.c:678:46
	ldrb	r3, [r2, r4]
	.loc	1 677 17                        @ ../../../ThirdParty/mbedTLS/library/camellia.c:677:17
	ldrb	r1, [r7]
.Ltmp294:
	@DEBUG_VALUE: mbedtls_camellia_crypt_cfb128:c <- [DW_OP_LLVM_convert 8 7, DW_OP_LLVM_convert 32 7, DW_OP_stack_value] $r1
	.loc	1 678 44                        @ ../../../ThirdParty/mbedTLS/library/camellia.c:678:44
	eors	r3, r1
	.loc	1 678 23 is_stmt 0              @ ../../../ThirdParty/mbedTLS/library/camellia.c:678:23
	strb	r3, [r6]
	.loc	1 679 19 is_stmt 1              @ ../../../ThirdParty/mbedTLS/library/camellia.c:679:19
	strb	r1, [r2, r4]
	.loc	1 681 21                        @ ../../../ThirdParty/mbedTLS/library/camellia.c:681:21
	adds	r4, r4, #1
.Ltmp295:
	.loc	1 681 27 is_stmt 0              @ ../../../ThirdParty/mbedTLS/library/camellia.c:681:27
	ldr	r1, [sp, #12]                   @ 4-byte Reload
.Ltmp296:
	ands	r4, r1
.Ltmp297:
	@DEBUG_VALUE: mbedtls_camellia_crypt_cfb128:n <- $r4
	.loc	1 678 20 is_stmt 1              @ ../../../ThirdParty/mbedTLS/library/camellia.c:678:20
	adds	r6, r6, #1
.Ltmp298:
	@DEBUG_VALUE: mbedtls_camellia_crypt_cfb128:output <- $r6
	.loc	1 677 23                        @ ../../../ThirdParty/mbedTLS/library/camellia.c:677:23
	adds	r7, r7, #1
.Ltmp299:
	@DEBUG_VALUE: mbedtls_camellia_crypt_cfb128:input <- $r7
	@DEBUG_VALUE: mbedtls_camellia_crypt_cfb128:length <- [DW_OP_constu 1, DW_OP_minus, DW_OP_stack_value] $r5
	.loc	1 672 9                         @ ../../../ThirdParty/mbedTLS/library/camellia.c:672:9
	cbz	r5, .LBB7_13
.Ltmp300:
.LBB7_11:                               @ =>This Inner Loop Header: Depth=1
	@DEBUG_VALUE: mbedtls_camellia_crypt_cfb128:iv_off <- [DW_OP_plus_uconst 4] [$sp+0]
	@DEBUG_VALUE: mbedtls_camellia_crypt_cfb128:n <- $r4
	@DEBUG_VALUE: mbedtls_camellia_crypt_cfb128:iv <- [DW_OP_plus_uconst 40] [$sp+0]
	@DEBUG_VALUE: mbedtls_camellia_crypt_cfb128:mode <- [DW_OP_LLVM_entry_value 1] $r1
	.loc	1 672 22 is_stmt 0              @ ../../../ThirdParty/mbedTLS/library/camellia.c:672:22
	subs	r5, r5, #1
	@DEBUG_VALUE: mbedtls_camellia_crypt_cfb128:n <- $r4
.Ltmp301:
	@DEBUG_VALUE: mbedtls_camellia_crypt_cfb128:output <- $r6
	@DEBUG_VALUE: mbedtls_camellia_crypt_cfb128:input <- $r7
	.loc	1 674 17 is_stmt 1              @ ../../../ThirdParty/mbedTLS/library/camellia.c:674:17
	cmp	r4, #0
	bne	.LBB7_10
.Ltmp302:
@ %bb.12:                               @   in Loop: Header=BB7_11 Depth=1
	@DEBUG_VALUE: mbedtls_camellia_crypt_cfb128:iv_off <- [DW_OP_plus_uconst 4] [$sp+0]
	@DEBUG_VALUE: mbedtls_camellia_crypt_cfb128:input <- $r7
	@DEBUG_VALUE: mbedtls_camellia_crypt_cfb128:output <- $r6
	@DEBUG_VALUE: mbedtls_camellia_crypt_cfb128:n <- $r4
	@DEBUG_VALUE: mbedtls_camellia_crypt_cfb128:iv <- [DW_OP_plus_uconst 40] [$sp+0]
	@DEBUG_VALUE: mbedtls_camellia_crypt_cfb128:mode <- [DW_OP_LLVM_entry_value 1] $r1
	.loc	1 675 17                        @ ../../../ThirdParty/mbedTLS/library/camellia.c:675:17
	ldr	r3, [sp, #16]                   @ 4-byte Reload
	bl	mbedtls_camellia_crypt_ecb
.Ltmp303:
	@DEBUG_VALUE: mbedtls_camellia_crypt_cfb128:ctx <- [DW_OP_LLVM_entry_value 1] $r0
	.loc	1 0 17 is_stmt 0                @ ../../../ThirdParty/mbedTLS/library/camellia.c:0:17
	ldr	r2, [sp, #16]                   @ 4-byte Reload
	ldr	r0, [sp, #8]                    @ 4-byte Reload
	b	.LBB7_10
.Ltmp304:
.LBB7_13:
	@DEBUG_VALUE: mbedtls_camellia_crypt_cfb128:iv_off <- [DW_OP_plus_uconst 4] [$sp+0]
	@DEBUG_VALUE: mbedtls_camellia_crypt_cfb128:n <- $r4
	@DEBUG_VALUE: mbedtls_camellia_crypt_cfb128:iv <- [DW_OP_plus_uconst 40] [$sp+0]
	@DEBUG_VALUE: mbedtls_camellia_crypt_cfb128:n <- $r4
	.loc	1 697 13 is_stmt 1              @ ../../../ThirdParty/mbedTLS/library/camellia.c:697:13
	ldr	r0, [sp, #4]                    @ 4-byte Reload
.Ltmp305:
	@DEBUG_VALUE: mbedtls_camellia_crypt_cfb128:iv_off <- $r0
	str	r4, [r0]
	movs	r0, #0
.Ltmp306:
	@DEBUG_VALUE: mbedtls_camellia_crypt_cfb128:iv_off <- [DW_OP_LLVM_entry_value 1] $r3
	.loc	1 700 1                         @ ../../../ThirdParty/mbedTLS/library/camellia.c:700:1
	add	sp, #20
.Ltmp307:
	pop	{r4, r5, r6, r7, pc}
.Ltmp308:
.Lfunc_end7:
	.size	mbedtls_camellia_crypt_cfb128, .Lfunc_end7-mbedtls_camellia_crypt_cfb128
	.cfi_endproc
	.cantunwind
	.fnend
                                        @ -- End function
	.section	.text.mbedtls_camellia_crypt_ctr,"ax",%progbits
	.hidden	mbedtls_camellia_crypt_ctr      @ -- Begin function mbedtls_camellia_crypt_ctr
	.globl	mbedtls_camellia_crypt_ctr
	.p2align	1
	.type	mbedtls_camellia_crypt_ctr,%function
	.code	16                              @ @mbedtls_camellia_crypt_ctr
	.thumb_func
mbedtls_camellia_crypt_ctr:
.Lfunc_begin8:
	.loc	1 714 0                         @ ../../../ThirdParty/mbedTLS/library/camellia.c:714:0
	.fnstart
	.cfi_startproc
@ %bb.0:
	@DEBUG_VALUE: mbedtls_camellia_crypt_ctr:ctx <- $r0
	@DEBUG_VALUE: mbedtls_camellia_crypt_ctr:length <- $r1
	@DEBUG_VALUE: mbedtls_camellia_crypt_ctr:nc_off <- $r2
	@DEBUG_VALUE: mbedtls_camellia_crypt_ctr:nonce_counter <- $r3
	.save	{r4, r5, r6, r7, lr}
	push	{r4, r5, r6, r7, lr}
	.cfi_def_cfa_offset 20
	.cfi_offset lr, -4
	.cfi_offset r7, -8
	.cfi_offset r6, -12
	.cfi_offset r5, -16
	.cfi_offset r4, -20
	.pad	#20
	sub	sp, #20
	.cfi_def_cfa_offset 40
	str	r0, [sp, #4]                    @ 4-byte Spill
.Ltmp309:
	@DEBUG_VALUE: mbedtls_camellia_crypt_ctr:output <- [DW_OP_plus_uconst 48] [$sp+0]
	@DEBUG_VALUE: mbedtls_camellia_crypt_ctr:input <- [DW_OP_plus_uconst 44] [$sp+0]
	@DEBUG_VALUE: mbedtls_camellia_crypt_ctr:stream_block <- [DW_OP_plus_uconst 40] [$sp+0]
	@DEBUG_VALUE: mbedtls_camellia_crypt_ctr:nonce_counter <- $r3
	@DEBUG_VALUE: mbedtls_camellia_crypt_ctr:nc_off <- $r2
	@DEBUG_VALUE: mbedtls_camellia_crypt_ctr:length <- $r1
	@DEBUG_VALUE: mbedtls_camellia_crypt_ctr:ctx <- [DW_OP_plus_uconst 4] [$sp+0]
	.loc	1 724 9 prologue_end            @ ../../../ThirdParty/mbedTLS/library/camellia.c:724:9
	ldr	r7, [r2]
.Ltmp310:
	@DEBUG_VALUE: mbedtls_camellia_crypt_ctr:n <- $r7
	.loc	1 725 9                         @ ../../../ThirdParty/mbedTLS/library/camellia.c:725:9
	cmp	r7, #15
	bls	.LBB8_2
.Ltmp311:
@ %bb.1:
	@DEBUG_VALUE: mbedtls_camellia_crypt_ctr:n <- $r7
	@DEBUG_VALUE: mbedtls_camellia_crypt_ctr:nonce_counter <- $r3
	@DEBUG_VALUE: mbedtls_camellia_crypt_ctr:nc_off <- $r2
	@DEBUG_VALUE: mbedtls_camellia_crypt_ctr:length <- $r1
	@DEBUG_VALUE: mbedtls_camellia_crypt_ctr:ctx <- [DW_OP_plus_uconst 4] [$sp+0]
	@DEBUG_VALUE: mbedtls_camellia_crypt_ctr:stream_block <- [DW_OP_plus_uconst 40] [$sp+0]
	@DEBUG_VALUE: mbedtls_camellia_crypt_ctr:input <- [DW_OP_plus_uconst 44] [$sp+0]
	@DEBUG_VALUE: mbedtls_camellia_crypt_ctr:output <- [DW_OP_plus_uconst 48] [$sp+0]
	.loc	1 0 9 is_stmt 0                 @ ../../../ThirdParty/mbedTLS/library/camellia.c:0:9
	movs	r0, #35
	mvns	r0, r0
	.loc	1 747 1 is_stmt 1               @ ../../../ThirdParty/mbedTLS/library/camellia.c:747:1
	add	sp, #20
.Ltmp312:
	pop	{r4, r5, r6, r7, pc}
.Ltmp313:
.LBB8_2:
	@DEBUG_VALUE: mbedtls_camellia_crypt_ctr:n <- $r7
	@DEBUG_VALUE: mbedtls_camellia_crypt_ctr:nonce_counter <- $r3
	@DEBUG_VALUE: mbedtls_camellia_crypt_ctr:nc_off <- $r2
	@DEBUG_VALUE: mbedtls_camellia_crypt_ctr:length <- $r1
	@DEBUG_VALUE: mbedtls_camellia_crypt_ctr:ctx <- [DW_OP_plus_uconst 4] [$sp+0]
	@DEBUG_VALUE: mbedtls_camellia_crypt_ctr:stream_block <- [DW_OP_plus_uconst 40] [$sp+0]
	@DEBUG_VALUE: mbedtls_camellia_crypt_ctr:input <- [DW_OP_plus_uconst 44] [$sp+0]
	@DEBUG_VALUE: mbedtls_camellia_crypt_ctr:output <- [DW_OP_plus_uconst 48] [$sp+0]
	@DEBUG_VALUE: mbedtls_camellia_crypt_ctr:nonce_counter <- $r3
	@DEBUG_VALUE: mbedtls_camellia_crypt_ctr:length <- [DW_OP_constu 1, DW_OP_minus, DW_OP_stack_value] $r1
	@DEBUG_VALUE: mbedtls_camellia_crypt_ctr:n <- $r7
	.loc	1 0 1 is_stmt 0                 @ ../../../ThirdParty/mbedTLS/library/camellia.c:0:1
	str	r2, [sp]                        @ 4-byte Spill
.Ltmp314:
	@DEBUG_VALUE: mbedtls_camellia_crypt_ctr:nc_off <- [$sp+0]
	@DEBUG_VALUE: mbedtls_camellia_crypt_ctr:output <- undef
	@DEBUG_VALUE: mbedtls_camellia_crypt_ctr:input <- undef
	.loc	1 728 5 is_stmt 1               @ ../../../ThirdParty/mbedTLS/library/camellia.c:728:5
	cbz	r1, .LBB8_9
.Ltmp315:
@ %bb.3:
	@DEBUG_VALUE: mbedtls_camellia_crypt_ctr:nc_off <- [$sp+0]
	@DEBUG_VALUE: mbedtls_camellia_crypt_ctr:n <- $r7
	@DEBUG_VALUE: mbedtls_camellia_crypt_ctr:nonce_counter <- $r3
	@DEBUG_VALUE: mbedtls_camellia_crypt_ctr:length <- [DW_OP_constu 1, DW_OP_minus, DW_OP_stack_value] $r1
	@DEBUG_VALUE: mbedtls_camellia_crypt_ctr:ctx <- [DW_OP_plus_uconst 4] [$sp+0]
	@DEBUG_VALUE: mbedtls_camellia_crypt_ctr:stream_block <- [DW_OP_plus_uconst 40] [$sp+0]
	.loc	1 0 5 is_stmt 0                 @ ../../../ThirdParty/mbedTLS/library/camellia.c:0:5
	mov	r5, r3
.Ltmp316:
	@DEBUG_VALUE: mbedtls_camellia_crypt_ctr:nonce_counter <- $r5
	ldr	r4, [sp, #48]
	ldr	r6, [sp, #44]
	ldr	r0, [sp, #40]
	str	r0, [sp, #16]                   @ 4-byte Spill
	movs	r0, #15
	str	r0, [sp, #12]                   @ 4-byte Spill
	b	.LBB8_5
.Ltmp317:
.LBB8_4:                                @   in Loop: Header=BB8_5 Depth=1
	@DEBUG_VALUE: mbedtls_camellia_crypt_ctr:nc_off <- [$sp+0]
	@DEBUG_VALUE: mbedtls_camellia_crypt_ctr:n <- $r7
	@DEBUG_VALUE: mbedtls_camellia_crypt_ctr:input <- $r6
	@DEBUG_VALUE: mbedtls_camellia_crypt_ctr:nonce_counter <- $r5
	@DEBUG_VALUE: mbedtls_camellia_crypt_ctr:output <- $r4
	@DEBUG_VALUE: mbedtls_camellia_crypt_ctr:ctx <- [DW_OP_plus_uconst 4] [$sp+0]
	@DEBUG_VALUE: mbedtls_camellia_crypt_ctr:stream_block <- [DW_OP_plus_uconst 40] [$sp+0]
	.loc	1 739 42 is_stmt 1              @ ../../../ThirdParty/mbedTLS/library/camellia.c:739:42
	ldr	r0, [sp, #16]                   @ 4-byte Reload
	ldrb	r0, [r0, r7]
	.loc	1 738 13                        @ ../../../ThirdParty/mbedTLS/library/camellia.c:738:13
	ldrb	r2, [r6]
.Ltmp318:
	@DEBUG_VALUE: mbedtls_camellia_crypt_ctr:c <- [DW_OP_LLVM_convert 8 7, DW_OP_LLVM_convert 32 7, DW_OP_stack_value] $r2
	.loc	1 739 40                        @ ../../../ThirdParty/mbedTLS/library/camellia.c:739:40
	eors	r2, r0
.Ltmp319:
	.loc	1 739 19 is_stmt 0              @ ../../../ThirdParty/mbedTLS/library/camellia.c:739:19
	strb	r2, [r4]
	.loc	1 741 17 is_stmt 1              @ ../../../ThirdParty/mbedTLS/library/camellia.c:741:17
	adds	r7, r7, #1
.Ltmp320:
	.loc	1 741 23 is_stmt 0              @ ../../../ThirdParty/mbedTLS/library/camellia.c:741:23
	ldr	r0, [sp, #12]                   @ 4-byte Reload
	ands	r7, r0
.Ltmp321:
	@DEBUG_VALUE: mbedtls_camellia_crypt_ctr:n <- $r7
	.loc	1 739 16 is_stmt 1              @ ../../../ThirdParty/mbedTLS/library/camellia.c:739:16
	adds	r4, r4, #1
.Ltmp322:
	@DEBUG_VALUE: mbedtls_camellia_crypt_ctr:output <- $r4
	.loc	1 738 19                        @ ../../../ThirdParty/mbedTLS/library/camellia.c:738:19
	adds	r6, r6, #1
.Ltmp323:
	@DEBUG_VALUE: mbedtls_camellia_crypt_ctr:input <- $r6
	@DEBUG_VALUE: mbedtls_camellia_crypt_ctr:length <- [DW_OP_constu 1, DW_OP_minus, DW_OP_stack_value] $r1
	.loc	1 728 5                         @ ../../../ThirdParty/mbedTLS/library/camellia.c:728:5
	cbz	r1, .LBB8_9
.Ltmp324:
.LBB8_5:                                @ =>This Loop Header: Depth=1
                                        @     Child Loop BB8_7 Depth 2
	@DEBUG_VALUE: mbedtls_camellia_crypt_ctr:nc_off <- [$sp+0]
	@DEBUG_VALUE: mbedtls_camellia_crypt_ctr:n <- $r7
	@DEBUG_VALUE: mbedtls_camellia_crypt_ctr:nonce_counter <- $r5
	@DEBUG_VALUE: mbedtls_camellia_crypt_ctr:length <- [DW_OP_constu 1, DW_OP_minus, DW_OP_stack_value] $r1
	@DEBUG_VALUE: mbedtls_camellia_crypt_ctr:ctx <- [DW_OP_plus_uconst 4] [$sp+0]
	@DEBUG_VALUE: mbedtls_camellia_crypt_ctr:stream_block <- [DW_OP_plus_uconst 40] [$sp+0]
	.loc	1 728 18 is_stmt 0              @ ../../../ThirdParty/mbedTLS/library/camellia.c:728:18
	subs	r1, r1, #1
.Ltmp325:
	@DEBUG_VALUE: mbedtls_camellia_crypt_ctr:n <- $r7
	@DEBUG_VALUE: mbedtls_camellia_crypt_ctr:output <- $r4
	@DEBUG_VALUE: mbedtls_camellia_crypt_ctr:input <- $r6
	.loc	1 730 13 is_stmt 1              @ ../../../ThirdParty/mbedTLS/library/camellia.c:730:13
	cmp	r7, #0
	bne	.LBB8_4
.Ltmp326:
@ %bb.6:                                @   in Loop: Header=BB8_5 Depth=1
	@DEBUG_VALUE: mbedtls_camellia_crypt_ctr:nc_off <- [$sp+0]
	@DEBUG_VALUE: mbedtls_camellia_crypt_ctr:n <- $r7
	@DEBUG_VALUE: mbedtls_camellia_crypt_ctr:input <- $r6
	@DEBUG_VALUE: mbedtls_camellia_crypt_ctr:nonce_counter <- $r5
	@DEBUG_VALUE: mbedtls_camellia_crypt_ctr:output <- $r4
	@DEBUG_VALUE: mbedtls_camellia_crypt_ctr:ctx <- [DW_OP_plus_uconst 4] [$sp+0]
	@DEBUG_VALUE: mbedtls_camellia_crypt_ctr:stream_block <- [DW_OP_plus_uconst 40] [$sp+0]
	.loc	1 731 13                        @ ../../../ThirdParty/mbedTLS/library/camellia.c:731:13
	ldr	r0, [sp, #4]                    @ 4-byte Reload
	mov	r2, r5
	str	r1, [sp, #8]                    @ 4-byte Spill
	ldr	r3, [sp, #16]                   @ 4-byte Reload
	bl	mbedtls_camellia_crypt_ecb
	ldr	r1, [sp, #8]                    @ 4-byte Reload
.Ltmp327:
	@DEBUG_VALUE: mbedtls_camellia_crypt_ctr:i <- 16
	.loc	1 0 0 is_stmt 0                 @ ../../../ThirdParty/mbedTLS/library/camellia.c:0:0
	ldr	r0, [sp, #12]                   @ 4-byte Reload
.Ltmp328:
.LBB8_7:                                @   Parent Loop BB8_5 Depth=1
                                        @ =>  This Inner Loop Header: Depth=2
	@DEBUG_VALUE: mbedtls_camellia_crypt_ctr:nc_off <- [$sp+0]
	@DEBUG_VALUE: mbedtls_camellia_crypt_ctr:n <- $r7
	@DEBUG_VALUE: mbedtls_camellia_crypt_ctr:input <- $r6
	@DEBUG_VALUE: mbedtls_camellia_crypt_ctr:nonce_counter <- $r5
	@DEBUG_VALUE: mbedtls_camellia_crypt_ctr:output <- $r4
	@DEBUG_VALUE: mbedtls_camellia_crypt_ctr:ctx <- [DW_OP_plus_uconst 4] [$sp+0]
	@DEBUG_VALUE: mbedtls_camellia_crypt_ctr:stream_block <- [DW_OP_plus_uconst 40] [$sp+0]
	@DEBUG_VALUE: mbedtls_camellia_crypt_ctr:i <- undef
	.loc	1 734 28 is_stmt 1              @ ../../../ThirdParty/mbedTLS/library/camellia.c:734:28
	adds	r2, r0, #1
.Ltmp329:
	.loc	1 734 13 is_stmt 0              @ ../../../ThirdParty/mbedTLS/library/camellia.c:734:13
	bhs	.LBB8_4
.Ltmp330:
@ %bb.8:                                @   in Loop: Header=BB8_7 Depth=2
	@DEBUG_VALUE: mbedtls_camellia_crypt_ctr:nc_off <- [$sp+0]
	@DEBUG_VALUE: mbedtls_camellia_crypt_ctr:n <- $r7
	@DEBUG_VALUE: mbedtls_camellia_crypt_ctr:input <- $r6
	@DEBUG_VALUE: mbedtls_camellia_crypt_ctr:nonce_counter <- $r5
	@DEBUG_VALUE: mbedtls_camellia_crypt_ctr:output <- $r4
	@DEBUG_VALUE: mbedtls_camellia_crypt_ctr:ctx <- [DW_OP_plus_uconst 4] [$sp+0]
	@DEBUG_VALUE: mbedtls_camellia_crypt_ctr:stream_block <- [DW_OP_plus_uconst 40] [$sp+0]
	.loc	1 735 21 is_stmt 1              @ ../../../ThirdParty/mbedTLS/library/camellia.c:735:21
	ldrb	r2, [r5, r0]
	adds	r3, r2, #1
	strb	r3, [r5, r0]
	uxtb	r2, r3
.Ltmp331:
	.loc	1 735 21 is_stmt 0              @ ../../../ThirdParty/mbedTLS/library/camellia.c:735:21
	subs	r0, r0, #1
	cmp	r2, r3
	bne	.LBB8_7
	b	.LBB8_4
.Ltmp332:
.LBB8_9:
	@DEBUG_VALUE: mbedtls_camellia_crypt_ctr:nc_off <- [$sp+0]
	@DEBUG_VALUE: mbedtls_camellia_crypt_ctr:n <- $r7
	@DEBUG_VALUE: mbedtls_camellia_crypt_ctr:length <- [DW_OP_constu 1, DW_OP_minus, DW_OP_stack_value] $r1
	@DEBUG_VALUE: mbedtls_camellia_crypt_ctr:ctx <- [DW_OP_plus_uconst 4] [$sp+0]
	@DEBUG_VALUE: mbedtls_camellia_crypt_ctr:stream_block <- [DW_OP_plus_uconst 40] [$sp+0]
	@DEBUG_VALUE: mbedtls_camellia_crypt_ctr:n <- $r7
	.loc	1 744 13 is_stmt 1              @ ../../../ThirdParty/mbedTLS/library/camellia.c:744:13
	ldr	r0, [sp]                        @ 4-byte Reload
.Ltmp333:
	@DEBUG_VALUE: mbedtls_camellia_crypt_ctr:nc_off <- $r0
	str	r7, [r0]
	movs	r0, #0
.Ltmp334:
	@DEBUG_VALUE: mbedtls_camellia_crypt_ctr:nc_off <- [DW_OP_LLVM_entry_value 1] $r2
	.loc	1 747 1                         @ ../../../ThirdParty/mbedTLS/library/camellia.c:747:1
	add	sp, #20
.Ltmp335:
	pop	{r4, r5, r6, r7, pc}
.Ltmp336:
.Lfunc_end8:
	.size	mbedtls_camellia_crypt_ctr, .Lfunc_end8-mbedtls_camellia_crypt_ctr
	.cfi_endproc
	.cantunwind
	.fnend
                                        @ -- End function
	.section	.text.mbedtls_camellia_self_test,"ax",%progbits
	.hidden	mbedtls_camellia_self_test      @ -- Begin function mbedtls_camellia_self_test
	.globl	mbedtls_camellia_self_test
	.p2align	2
	.type	mbedtls_camellia_self_test,%function
	.code	16                              @ @mbedtls_camellia_self_test
	.thumb_func
mbedtls_camellia_self_test:
.Lfunc_begin9:
	.loc	1 994 0                         @ ../../../ThirdParty/mbedTLS/library/camellia.c:994:0
	.fnstart
	.cfi_startproc
@ %bb.0:
	@DEBUG_VALUE: mbedtls_camellia_self_test:verbose <- $r0
	.save	{r4, r5, r6, r7, lr}
	push	{r4, r5, r6, r7, lr}
	.cfi_def_cfa_offset 20
	.cfi_offset lr, -4
	.cfi_offset r7, -8
	.cfi_offset r6, -12
	.cfi_offset r5, -16
	.cfi_offset r4, -20
	.pad	#500
	sub	sp, #500
	.cfi_def_cfa_offset 520
	movs	r1, #0
	@DEBUG_VALUE: mbedtls_camellia_self_test:verbose <- $r0
.Ltmp337:
	.loc	1 1011 5 prologue_end           @ ../../../ThirdParty/mbedTLS/library/camellia.c:1011:5
	str	r1, [sp, #468]
	str	r1, [sp, #472]
	str	r1, [sp, #476]
	str	r1, [sp, #480]
	str	r1, [sp, #484]
	str	r1, [sp, #488]
	str	r1, [sp, #492]
	str	r1, [sp, #496]
.Ltmp338:
	@DEBUG_VALUE: mbedtls_camellia_self_test:j <- 0
	.loc	1 0 5 is_stmt 0                 @ ../../../ThirdParty/mbedTLS/library/camellia.c:0:5
	movs	r6, #1
	ldr	r2, .LCPI9_36
	str	r1, [sp, #16]                   @ 4-byte Spill
	str	r6, [sp, #20]                   @ 4-byte Spill
	str	r0, [sp, #24]                   @ 4-byte Spill
.Ltmp339:
.LBB9_1:                                @ =>This Loop Header: Depth=1
                                        @     Child Loop BB9_6 Depth 2
	@DEBUG_VALUE: mbedtls_camellia_self_test:j <- $r1
	@DEBUG_VALUE: mbedtls_camellia_self_test:u <- undef
	.loc	1 1015 15 is_stmt 1             @ ../../../ThirdParty/mbedTLS/library/camellia.c:1015:15
	mov	r3, r1
	ands	r3, r6
.Ltmp340:
	@DEBUG_VALUE: mbedtls_camellia_self_test:v <- $r3
	.loc	1 0 15 is_stmt 0                @ ../../../ThirdParty/mbedTLS/library/camellia.c:0:15
	str	r3, [sp, #40]                   @ 4-byte Spill
.Ltmp341:
	@DEBUG_VALUE: mbedtls_camellia_self_test:v <- [DW_OP_plus_uconst 40] [$sp+0]
	@DEBUG_VALUE: mbedtls_camellia_self_test:v <- [DW_OP_plus_uconst 40] [$sp+0]
	@DEBUG_VALUE: mbedtls_camellia_self_test:v <- [DW_OP_plus_uconst 40] [$sp+0]
	str	r1, [sp, #12]                   @ 4-byte Spill
.Ltmp342:
	@DEBUG_VALUE: mbedtls_camellia_self_test:j <- [DW_OP_plus_uconst 12] [$sp+0]
	.loc	1 1014 15 is_stmt 1             @ ../../../ThirdParty/mbedTLS/library/camellia.c:1014:15
	lsrs	r4, r1, #1
	lsls	r3, r4, #5
	lsls	r5, r4, #6
	adds	r7, r2, r5
	.loc	1 1017 13                       @ ../../../ThirdParty/mbedTLS/library/camellia.c:1017:13
	cbz	r0, .LBB9_5
.Ltmp343:
@ %bb.2:                                @   in Loop: Header=BB9_1 Depth=1
	@DEBUG_VALUE: mbedtls_camellia_self_test:j <- [DW_OP_plus_uconst 12] [$sp+0]
	@DEBUG_VALUE: mbedtls_camellia_self_test:v <- [DW_OP_plus_uconst 40] [$sp+0]
	.loc	1 0 13 is_stmt 0                @ ../../../ThirdParty/mbedTLS/library/camellia.c:0:13
	str	r3, [sp, #36]                   @ 4-byte Spill
.Ltmp344:
	.loc	1 1019 29 is_stmt 1             @ ../../../ThirdParty/mbedTLS/library/camellia.c:1019:29
	ldr	r0, [sp, #40]                   @ 4-byte Reload
.Ltmp345:
	@DEBUG_VALUE: mbedtls_camellia_self_test:verbose <- [DW_OP_LLVM_entry_value 1] $r0
	ldr	r2, .LCPI9_23
	cbz	r0, .LBB9_4
.Ltmp346:
@ %bb.3:                                @   in Loop: Header=BB9_1 Depth=1
	@DEBUG_VALUE: mbedtls_camellia_self_test:j <- [DW_OP_plus_uconst 12] [$sp+0]
	@DEBUG_VALUE: mbedtls_camellia_self_test:v <- [DW_OP_plus_uconst 40] [$sp+0]
	ldr	r2, .LCPI9_24
.Ltmp347:
.LBB9_4:                                @   in Loop: Header=BB9_1 Depth=1
	@DEBUG_VALUE: mbedtls_camellia_self_test:j <- [DW_OP_plus_uconst 12] [$sp+0]
	@DEBUG_VALUE: mbedtls_camellia_self_test:v <- [DW_OP_plus_uconst 40] [$sp+0]
	.loc	1 1018 62                       @ ../../../ThirdParty/mbedTLS/library/camellia.c:1018:62
	mov	r1, r5
	adds	r1, #128
	.loc	1 1018 13 is_stmt 0             @ ../../../ThirdParty/mbedTLS/library/camellia.c:1018:13
	adr	r0, .LCPI9_25
	bl	__2printf
	ldr	r3, [sp, #36]                   @ 4-byte Reload
.Ltmp348:
.LBB9_5:                                @   in Loop: Header=BB9_1 Depth=1
	@DEBUG_VALUE: mbedtls_camellia_self_test:j <- [DW_OP_plus_uconst 12] [$sp+0]
	@DEBUG_VALUE: mbedtls_camellia_self_test:v <- [DW_OP_plus_uconst 40] [$sp+0]
	.loc	1 0 0                           @ ../../../ThirdParty/mbedTLS/library/camellia.c:0:0
	ldr	r0, __arm_cp.9_26
	adds	r0, r0, r3
.Ltmp349:
	str	r0, [sp, #32]                   @ 4-byte Spill
	adds	r5, #128
.Ltmp350:
	@DEBUG_VALUE: mbedtls_camellia_self_test:i <- 0
	str	r5, [sp, #36]                   @ 4-byte Spill
.Ltmp351:
	lsls	r0, r4, #3
	adds	r0, #16
	str	r0, [sp, #28]                   @ 4-byte Spill
	ldr	r6, [sp, #16]                   @ 4-byte Reload
	mov	r4, r6
.Ltmp352:
.LBB9_6:                                @   Parent Loop BB9_1 Depth=1
                                        @ =>  This Inner Loop Header: Depth=2
	@DEBUG_VALUE: mbedtls_camellia_self_test:j <- [DW_OP_plus_uconst 12] [$sp+0]
	@DEBUG_VALUE: mbedtls_camellia_self_test:v <- [DW_OP_plus_uconst 40] [$sp+0]
	@DEBUG_VALUE: mbedtls_camellia_self_test:i <- $r6
	add	r0, sp, #468
	.loc	1 1022 13 is_stmt 1             @ ../../../ThirdParty/mbedTLS/library/camellia.c:1022:13
	mov	r1, r7
	ldr	r2, [sp, #28]                   @ 4-byte Reload
	bl	__aeabi_memcpy
	.loc	1 1024 17                       @ ../../../ThirdParty/mbedTLS/library/camellia.c:1024:17
	ldr	r0, [sp, #40]                   @ 4-byte Reload
	cbnz	r0, .LBB9_8
.Ltmp353:
@ %bb.7:                                @   in Loop: Header=BB9_6 Depth=2
	@DEBUG_VALUE: mbedtls_camellia_self_test:i <- $r6
	@DEBUG_VALUE: mbedtls_camellia_self_test:j <- [DW_OP_plus_uconst 12] [$sp+0]
	@DEBUG_VALUE: mbedtls_camellia_self_test:v <- [DW_OP_plus_uconst 40] [$sp+0]
	.loc	1 0 17 is_stmt 0                @ ../../../ThirdParty/mbedTLS/library/camellia.c:0:17
	add	r0, sp, #44
	add	r1, sp, #468
.Ltmp354:
	.loc	1 1025 17 is_stmt 1             @ ../../../ThirdParty/mbedTLS/library/camellia.c:1025:17
	ldr	r2, [sp, #36]                   @ 4-byte Reload
	bl	mbedtls_camellia_setkey_dec
	ldr	r0, [sp, #32]                   @ 4-byte Reload
	.loc	1 1026 17                       @ ../../../ThirdParty/mbedTLS/library/camellia.c:1026:17
	ldrb	r1, [r0, r4]
	adds	r0, r0, r4
	ldrb	r2, [r0, #1]
	lsls	r2, r2, #8
	adds	r1, r2, r1
	ldrb	r2, [r0, #2]
	ldrb	r3, [r0, #3]
	lsls	r3, r3, #8
	adds	r2, r3, r2
	lsls	r2, r2, #16
	adds	r1, r2, r1
	str	r1, [sp, #388]
	ldrb	r1, [r0, #4]
	ldrb	r2, [r0, #5]
	lsls	r2, r2, #8
	adds	r1, r2, r1
	ldrb	r2, [r0, #6]
	ldrb	r3, [r0, #7]
	lsls	r3, r3, #8
	adds	r2, r3, r2
	lsls	r2, r2, #16
	adds	r1, r2, r1
	str	r1, [sp, #392]
	ldrb	r1, [r0, #8]
	ldrb	r2, [r0, #9]
	lsls	r2, r2, #8
	adds	r1, r2, r1
	ldrb	r2, [r0, #10]
	ldrb	r3, [r0, #11]
	lsls	r3, r3, #8
	adds	r2, r3, r2
	lsls	r2, r2, #16
	adds	r1, r2, r1
	str	r1, [sp, #396]
	ldrb	r1, [r0, #12]
	ldrb	r2, [r0, #13]
	lsls	r2, r2, #8
	adds	r1, r2, r1
	ldrb	r2, [r0, #14]
	ldrb	r0, [r0, #15]
	lsls	r0, r0, #8
	adds	r0, r0, r2
	lsls	r0, r0, #16
	adds	r0, r0, r1
	str	r0, [sp, #400]
	.loc	1 1027 17                       @ ../../../ThirdParty/mbedTLS/library/camellia.c:1027:17
	lsls	r0, r6, #4
	ldr	r1, __arm_cp.9_27
	adds	r0, r1, r0
	b	.LBB9_9
.Ltmp355:
.LBB9_8:                                @   in Loop: Header=BB9_6 Depth=2
	@DEBUG_VALUE: mbedtls_camellia_self_test:i <- $r6
	@DEBUG_VALUE: mbedtls_camellia_self_test:j <- [DW_OP_plus_uconst 12] [$sp+0]
	@DEBUG_VALUE: mbedtls_camellia_self_test:v <- [DW_OP_plus_uconst 40] [$sp+0]
	.loc	1 0 17 is_stmt 0                @ ../../../ThirdParty/mbedTLS/library/camellia.c:0:17
	add	r0, sp, #44
	add	r1, sp, #468
.Ltmp356:
	.loc	1 1029 17 is_stmt 1             @ ../../../ThirdParty/mbedTLS/library/camellia.c:1029:17
	ldr	r2, [sp, #36]                   @ 4-byte Reload
	bl	mbedtls_camellia_setkey_enc
	ldr	r0, __arm_cp.9_27
	.loc	1 1030 17                       @ ../../../ThirdParty/mbedTLS/library/camellia.c:1030:17
	ldrb	r1, [r0, r4]
	adds	r0, r0, r4
	ldrb	r2, [r0, #1]
	lsls	r2, r2, #8
	adds	r1, r2, r1
	ldrb	r2, [r0, #2]
	ldrb	r3, [r0, #3]
	lsls	r3, r3, #8
	adds	r2, r3, r2
	lsls	r2, r2, #16
	adds	r1, r2, r1
	str	r1, [sp, #388]
	ldrb	r1, [r0, #4]
	ldrb	r2, [r0, #5]
	lsls	r2, r2, #8
	adds	r1, r2, r1
	ldrb	r2, [r0, #6]
	ldrb	r3, [r0, #7]
	lsls	r3, r3, #8
	adds	r2, r3, r2
	lsls	r2, r2, #16
	adds	r1, r2, r1
	str	r1, [sp, #392]
	ldrb	r1, [r0, #8]
	ldrb	r2, [r0, #9]
	lsls	r2, r2, #8
	adds	r1, r2, r1
	ldrb	r2, [r0, #10]
	ldrb	r3, [r0, #11]
	lsls	r3, r3, #8
	adds	r2, r3, r2
	lsls	r2, r2, #16
	adds	r1, r2, r1
	str	r1, [sp, #396]
	ldrb	r1, [r0, #12]
	ldrb	r2, [r0, #13]
	lsls	r2, r2, #8
	adds	r1, r2, r1
	ldrb	r2, [r0, #14]
	ldrb	r0, [r0, #15]
	lsls	r0, r0, #8
	adds	r0, r0, r2
	lsls	r0, r0, #16
	adds	r0, r0, r1
	str	r0, [sp, #400]
	ldr	r0, [sp, #32]                   @ 4-byte Reload
	adds	r0, r0, r4
.Ltmp357:
.LBB9_9:                                @   in Loop: Header=BB9_6 Depth=2
	@DEBUG_VALUE: mbedtls_camellia_self_test:i <- $r6
	@DEBUG_VALUE: mbedtls_camellia_self_test:j <- [DW_OP_plus_uconst 12] [$sp+0]
	@DEBUG_VALUE: mbedtls_camellia_self_test:v <- [DW_OP_plus_uconst 40] [$sp+0]
	.loc	1 0 0 is_stmt 0                 @ ../../../ThirdParty/mbedTLS/library/camellia.c:0:0
	ldrb	r1, [r0, #12]
	ldrb	r2, [r0, #13]
	lsls	r2, r2, #8
	adds	r1, r2, r1
	ldrb	r2, [r0, #14]
	ldrb	r3, [r0, #15]
	lsls	r3, r3, #8
	adds	r2, r3, r2
	lsls	r2, r2, #16
	adds	r1, r2, r1
	str	r1, [sp, #384]
	ldrb	r1, [r0, #8]
	ldrb	r2, [r0, #9]
	lsls	r2, r2, #8
	adds	r1, r2, r1
	ldrb	r2, [r0, #10]
	ldrb	r3, [r0, #11]
	lsls	r3, r3, #8
	adds	r2, r3, r2
	lsls	r2, r2, #16
	adds	r1, r2, r1
	str	r1, [sp, #380]
	ldrb	r1, [r0, #4]
	ldrb	r2, [r0, #5]
	lsls	r2, r2, #8
	adds	r1, r2, r1
	ldrb	r2, [r0, #6]
	ldrb	r3, [r0, #7]
	lsls	r3, r3, #8
	adds	r2, r3, r2
	lsls	r2, r2, #16
	adds	r1, r2, r1
	str	r1, [sp, #376]
	ldrb	r1, [r0]
	ldrb	r2, [r0, #1]
	lsls	r2, r2, #8
	adds	r1, r2, r1
	ldrb	r2, [r0, #2]
	ldrb	r0, [r0, #3]
	lsls	r0, r0, #8
	adds	r0, r0, r2
	lsls	r0, r0, #16
	adds	r0, r0, r1
	str	r0, [sp, #372]
	add	r0, sp, #44
	add	r2, sp, #388
	add	r5, sp, #404
.Ltmp358:
	.loc	1 1034 13 is_stmt 1             @ ../../../ThirdParty/mbedTLS/library/camellia.c:1034:13
	mov	r3, r5
	bl	mbedtls_camellia_crypt_ecb
	add	r1, sp, #372
	movs	r2, #16
.Ltmp359:
	.loc	1 1036 17                       @ ../../../ThirdParty/mbedTLS/library/camellia.c:1036:17
	mov	r0, r5
	bl	memcmp
.Ltmp360:
	@DEBUG_VALUE: mbedtls_camellia_self_test:i <- [DW_OP_plus_uconst 1, DW_OP_stack_value] $r6
	.loc	1 1036 17 is_stmt 0             @ ../../../ThirdParty/mbedTLS/library/camellia.c:1036:17
	cmp	r0, #0
	beq	.LBB9_10
	b	.LBB9_51
.Ltmp361:
.LBB9_10:                               @   in Loop: Header=BB9_6 Depth=2
	@DEBUG_VALUE: mbedtls_camellia_self_test:i <- [DW_OP_plus_uconst 1, DW_OP_stack_value] $r6
	@DEBUG_VALUE: mbedtls_camellia_self_test:j <- [DW_OP_plus_uconst 12] [$sp+0]
	@DEBUG_VALUE: mbedtls_camellia_self_test:v <- [DW_OP_plus_uconst 40] [$sp+0]
	.loc	1 1021 23 is_stmt 1             @ ../../../ThirdParty/mbedTLS/library/camellia.c:1021:23
	adds	r7, #32
	@DEBUG_VALUE: mbedtls_camellia_self_test:i <- [DW_OP_plus_uconst 1, DW_OP_stack_value] $r6
	adds	r4, #16
	.loc	1 1021 46 is_stmt 0             @ ../../../ThirdParty/mbedTLS/library/camellia.c:1021:46
	adds	r6, r6, #1
.Ltmp362:
	@DEBUG_VALUE: mbedtls_camellia_self_test:i <- $r6
	.loc	1 1021 9                        @ ../../../ThirdParty/mbedTLS/library/camellia.c:1021:9
	cmp	r4, #16
	bne	.LBB9_11
	b	.LBB9_6
.Ltmp363:
.LBB9_11:                               @   in Loop: Header=BB9_1 Depth=1
	@DEBUG_VALUE: mbedtls_camellia_self_test:i <- $r6
	@DEBUG_VALUE: mbedtls_camellia_self_test:j <- [DW_OP_plus_uconst 12] [$sp+0]
	@DEBUG_VALUE: mbedtls_camellia_self_test:v <- [DW_OP_plus_uconst 40] [$sp+0]
	.loc	1 0 9                           @ ../../../ThirdParty/mbedTLS/library/camellia.c:0:9
	ldr	r0, [sp, #24]                   @ 4-byte Reload
	.loc	1 1045 13 is_stmt 1             @ ../../../ThirdParty/mbedTLS/library/camellia.c:1045:13
	cbz	r0, .LBB9_13
.Ltmp364:
@ %bb.12:                               @   in Loop: Header=BB9_1 Depth=1
	@DEBUG_VALUE: mbedtls_camellia_self_test:i <- $r6
	@DEBUG_VALUE: mbedtls_camellia_self_test:j <- [DW_OP_plus_uconst 12] [$sp+0]
	@DEBUG_VALUE: mbedtls_camellia_self_test:v <- [DW_OP_plus_uconst 40] [$sp+0]
	.loc	1 1046 13                       @ ../../../ThirdParty/mbedTLS/library/camellia.c:1046:13
	adr	r0, .LCPI9_28
	bl	puts
	ldr	r0, [sp, #24]                   @ 4-byte Reload
.Ltmp365:
.LBB9_13:                               @   in Loop: Header=BB9_1 Depth=1
	@DEBUG_VALUE: mbedtls_camellia_self_test:i <- $r6
	@DEBUG_VALUE: mbedtls_camellia_self_test:j <- [DW_OP_plus_uconst 12] [$sp+0]
	@DEBUG_VALUE: mbedtls_camellia_self_test:v <- [DW_OP_plus_uconst 40] [$sp+0]
	.loc	1 0 13 is_stmt 0                @ ../../../ThirdParty/mbedTLS/library/camellia.c:0:13
	ldr	r1, [sp, #12]                   @ 4-byte Reload
	.loc	1 1013 25 is_stmt 1             @ ../../../ThirdParty/mbedTLS/library/camellia.c:1013:25
	adds	r1, r1, #1
.Ltmp366:
	@DEBUG_VALUE: mbedtls_camellia_self_test:j <- $r1
	.loc	1 1013 5 is_stmt 0              @ ../../../ThirdParty/mbedTLS/library/camellia.c:1013:5
	cmp	r1, #6
	ldr	r6, [sp, #20]                   @ 4-byte Reload
.Ltmp367:
	.loc	1 0 5                           @ ../../../ThirdParty/mbedTLS/library/camellia.c:0:5
	ldr	r2, __arm_cp.9_22
	beq	.LBB9_14
	b	.LBB9_1
.Ltmp368:
.LBB9_14:
	@DEBUG_VALUE: mbedtls_camellia_self_test:j <- $r1
	@DEBUG_VALUE: mbedtls_camellia_self_test:v <- [DW_OP_plus_uconst 40] [$sp+0]
	.loc	1 1049 9 is_stmt 1              @ ../../../ThirdParty/mbedTLS/library/camellia.c:1049:9
	cbz	r0, .LBB9_16
.Ltmp369:
@ %bb.15:
	@DEBUG_VALUE: mbedtls_camellia_self_test:j <- $r1
	@DEBUG_VALUE: mbedtls_camellia_self_test:v <- [DW_OP_plus_uconst 40] [$sp+0]
	.loc	1 0 9 is_stmt 0                 @ ../../../ThirdParty/mbedTLS/library/camellia.c:0:9
	movs	r0, #10
.Ltmp370:
	.loc	1 1050 9 is_stmt 1              @ ../../../ThirdParty/mbedTLS/library/camellia.c:1050:9
	bl	putchar
.Ltmp371:
	.loc	1 0 9 is_stmt 0                 @ ../../../ThirdParty/mbedTLS/library/camellia.c:0:9
	ldr	r0, [sp, #24]                   @ 4-byte Reload
.Ltmp372:
.LBB9_16:
	@DEBUG_VALUE: mbedtls_camellia_self_test:v <- [DW_OP_plus_uconst 40] [$sp+0]
	movs	r1, #0
	movs	r2, #1
	movs	r5, #48
	ldr	r7, .LCPI9_29
	str	r2, [sp, #20]                   @ 4-byte Spill
	str	r5, [sp, #28]                   @ 4-byte Spill
.Ltmp373:
.LBB9_17:                               @ =>This Loop Header: Depth=1
                                        @     Child Loop BB9_25 Depth 2
	@DEBUG_VALUE: mbedtls_camellia_self_test:v <- [DW_OP_plus_uconst 40] [$sp+0]
	@DEBUG_VALUE: mbedtls_camellia_self_test:j <- $r1
	@DEBUG_VALUE: mbedtls_camellia_self_test:u <- undef
	.loc	1 1059 16 is_stmt 1             @ ../../../ThirdParty/mbedTLS/library/camellia.c:1059:16
	mov	r6, r1
	ands	r6, r2
.Ltmp374:
	@DEBUG_VALUE: mbedtls_camellia_self_test:v <- $r6
	.loc	1 0 16 is_stmt 0                @ ../../../ThirdParty/mbedTLS/library/camellia.c:0:16
	str	r1, [sp, #32]                   @ 4-byte Spill
.Ltmp375:
	@DEBUG_VALUE: mbedtls_camellia_self_test:j <- [DW_OP_plus_uconst 32] [$sp+0]
	.loc	1 1058 15 is_stmt 1             @ ../../../ThirdParty/mbedTLS/library/camellia.c:1058:15
	lsrs	r4, r1, #1
	muls	r5, r4, r5
	str	r6, [sp, #40]                   @ 4-byte Spill
.Ltmp376:
	@DEBUG_VALUE: mbedtls_camellia_self_test:v <- [DW_OP_plus_uconst 40] [$sp+0]
	.loc	1 1061 13                       @ ../../../ThirdParty/mbedTLS/library/camellia.c:1061:13
	cbz	r0, .LBB9_21
.Ltmp377:
@ %bb.18:                               @   in Loop: Header=BB9_17 Depth=1
	@DEBUG_VALUE: mbedtls_camellia_self_test:j <- [DW_OP_plus_uconst 32] [$sp+0]
	@DEBUG_VALUE: mbedtls_camellia_self_test:v <- [DW_OP_plus_uconst 40] [$sp+0]
	.loc	1 1063 29                       @ ../../../ThirdParty/mbedTLS/library/camellia.c:1063:29
	ldr	r2, .LCPI9_23
	cbz	r6, .LBB9_20
.Ltmp378:
@ %bb.19:                               @   in Loop: Header=BB9_17 Depth=1
	@DEBUG_VALUE: mbedtls_camellia_self_test:j <- [DW_OP_plus_uconst 32] [$sp+0]
	@DEBUG_VALUE: mbedtls_camellia_self_test:v <- [DW_OP_plus_uconst 40] [$sp+0]
	ldr	r2, .LCPI9_24
.Ltmp379:
.LBB9_20:                               @   in Loop: Header=BB9_17 Depth=1
	@DEBUG_VALUE: mbedtls_camellia_self_test:j <- [DW_OP_plus_uconst 32] [$sp+0]
	@DEBUG_VALUE: mbedtls_camellia_self_test:v <- [DW_OP_plus_uconst 40] [$sp+0]
	.loc	1 1062 66                       @ ../../../ThirdParty/mbedTLS/library/camellia.c:1062:66
	lsls	r1, r4, #6
	.loc	1 1062 62 is_stmt 0             @ ../../../ThirdParty/mbedTLS/library/camellia.c:1062:62
	adds	r1, #128
	.loc	1 1062 13                       @ ../../../ThirdParty/mbedTLS/library/camellia.c:1062:13
	adr	r0, .LCPI9_30
	bl	__2printf
	ldr	r6, [sp, #40]                   @ 4-byte Reload
.Ltmp380:
.LBB9_21:                               @   in Loop: Header=BB9_17 Depth=1
	@DEBUG_VALUE: mbedtls_camellia_self_test:j <- [DW_OP_plus_uconst 32] [$sp+0]
	@DEBUG_VALUE: mbedtls_camellia_self_test:v <- [DW_OP_plus_uconst 40] [$sp+0]
	.loc	1 0 0                           @ ../../../ThirdParty/mbedTLS/library/camellia.c:0:0
	adds	r0, r7, r5
	str	r0, [sp, #36]                   @ 4-byte Spill
	ldr	r0, __arm_cp.9_31
	.loc	1 1065 9 is_stmt 1              @ ../../../ThirdParty/mbedTLS/library/camellia.c:1065:9
	str	r0, [sp, #400]
	ldr	r1, __arm_cp.9_32
	str	r1, [sp, #396]
	ldr	r2, __arm_cp.9_33
	str	r2, [sp, #392]
	ldr	r3, __arm_cp.9_34
	str	r3, [sp, #388]
	.loc	1 1066 9                        @ ../../../ThirdParty/mbedTLS/library/camellia.c:1066:9
	str	r3, [sp, #372]
	str	r2, [sp, #376]
	str	r1, [sp, #380]
	str	r0, [sp, #384]
	.loc	1 1067 9                        @ ../../../ThirdParty/mbedTLS/library/camellia.c:1067:9
	lsls	r0, r4, #5
	ldr	r1, __arm_cp.9_35
	adds	r1, r1, r0
	.loc	1 1067 55 is_stmt 0             @ ../../../ThirdParty/mbedTLS/library/camellia.c:1067:55
	lsls	r2, r4, #3
	.loc	1 1067 51                       @ ../../../ThirdParty/mbedTLS/library/camellia.c:1067:51
	adds	r2, #16
	add	r0, sp, #468
	.loc	1 1067 9                        @ ../../../ThirdParty/mbedTLS/library/camellia.c:1067:9
	bl	__aeabi_memcpy
.Ltmp381:
	.loc	1 0 0                           @ ../../../ThirdParty/mbedTLS/library/camellia.c:0:0
	lsls	r2, r4, #6
	adds	r2, #128
	mov	r4, r6
.Ltmp382:
	.loc	1 1069 13 is_stmt 1             @ ../../../ThirdParty/mbedTLS/library/camellia.c:1069:13
	cbnz	r6, .LBB9_23
.Ltmp383:
@ %bb.22:                               @   in Loop: Header=BB9_17 Depth=1
	@DEBUG_VALUE: mbedtls_camellia_self_test:j <- [DW_OP_plus_uconst 32] [$sp+0]
	@DEBUG_VALUE: mbedtls_camellia_self_test:v <- [DW_OP_plus_uconst 40] [$sp+0]
	.loc	1 0 13 is_stmt 0                @ ../../../ThirdParty/mbedTLS/library/camellia.c:0:13
	add	r0, sp, #44
	add	r1, sp, #468
.Ltmp384:
	.loc	1 1070 13 is_stmt 1             @ ../../../ThirdParty/mbedTLS/library/camellia.c:1070:13
	bl	mbedtls_camellia_setkey_dec
	b	.LBB9_24
.Ltmp385:
.LBB9_23:                               @   in Loop: Header=BB9_17 Depth=1
	@DEBUG_VALUE: mbedtls_camellia_self_test:j <- [DW_OP_plus_uconst 32] [$sp+0]
	@DEBUG_VALUE: mbedtls_camellia_self_test:v <- [DW_OP_plus_uconst 40] [$sp+0]
	.loc	1 0 13 is_stmt 0                @ ../../../ThirdParty/mbedTLS/library/camellia.c:0:13
	add	r0, sp, #44
	add	r1, sp, #468
.Ltmp386:
	.loc	1 1072 13 is_stmt 1             @ ../../../ThirdParty/mbedTLS/library/camellia.c:1072:13
	bl	mbedtls_camellia_setkey_enc
.Ltmp387:
.LBB9_24:                               @   in Loop: Header=BB9_17 Depth=1
	@DEBUG_VALUE: mbedtls_camellia_self_test:j <- [DW_OP_plus_uconst 32] [$sp+0]
	@DEBUG_VALUE: mbedtls_camellia_self_test:v <- [DW_OP_plus_uconst 40] [$sp+0]
	.loc	1 0 13 is_stmt 0                @ ../../../ThirdParty/mbedTLS/library/camellia.c:0:13
	movs	r7, #0
	mov	r6, r7
.Ltmp388:
.LBB9_25:                               @   Parent Loop BB9_17 Depth=1
                                        @ =>  This Inner Loop Header: Depth=2
	@DEBUG_VALUE: mbedtls_camellia_self_test:j <- [DW_OP_plus_uconst 32] [$sp+0]
	@DEBUG_VALUE: mbedtls_camellia_self_test:v <- [DW_OP_plus_uconst 40] [$sp+0]
	@DEBUG_VALUE: mbedtls_camellia_self_test:i <- $r6
	.loc	1 1077 17 is_stmt 1             @ ../../../ThirdParty/mbedTLS/library/camellia.c:1077:17
	cbnz	r4, .LBB9_28
.Ltmp389:
@ %bb.26:                               @   in Loop: Header=BB9_25 Depth=2
	@DEBUG_VALUE: mbedtls_camellia_self_test:i <- $r6
	@DEBUG_VALUE: mbedtls_camellia_self_test:j <- [DW_OP_plus_uconst 32] [$sp+0]
	@DEBUG_VALUE: mbedtls_camellia_self_test:v <- [DW_OP_plus_uconst 40] [$sp+0]
	.loc	1 1078 17                       @ ../../../ThirdParty/mbedTLS/library/camellia.c:1078:17
	ldr	r0, [sp, #400]
	str	r0, [sp, #368]
	ldr	r0, [sp, #396]
	str	r0, [sp, #364]
	ldr	r0, [sp, #392]
	str	r0, [sp, #360]
	ldr	r0, [sp, #388]
	str	r0, [sp, #356]
	ldr	r0, [sp, #36]                   @ 4-byte Reload
	.loc	1 1079 17                       @ ../../../ThirdParty/mbedTLS/library/camellia.c:1079:17
	ldrb	r1, [r0, r7]
	adds	r0, r0, r7
	ldrb	r2, [r0, #1]
	lsls	r2, r2, #8
	adds	r1, r2, r1
	ldrb	r2, [r0, #2]
	ldrb	r3, [r0, #3]
	lsls	r3, r3, #8
	adds	r2, r3, r2
	lsls	r2, r2, #16
	adds	r1, r2, r1
	str	r1, [sp, #388]
	ldrb	r1, [r0, #4]
	ldrb	r2, [r0, #5]
	lsls	r2, r2, #8
	adds	r1, r2, r1
	ldrb	r2, [r0, #6]
	ldrb	r3, [r0, #7]
	lsls	r3, r3, #8
	adds	r2, r3, r2
	lsls	r2, r2, #16
	adds	r1, r2, r1
	str	r1, [sp, #392]
	ldrb	r1, [r0, #8]
	ldrb	r2, [r0, #9]
	lsls	r2, r2, #8
	adds	r1, r2, r1
	ldrb	r2, [r0, #10]
	ldrb	r3, [r0, #11]
	lsls	r3, r3, #8
	adds	r2, r3, r2
	lsls	r2, r2, #16
	adds	r1, r2, r1
	str	r1, [sp, #396]
	ldrb	r1, [r0, #12]
	ldrb	r2, [r0, #13]
	lsls	r2, r2, #8
	adds	r1, r2, r1
	ldrb	r2, [r0, #14]
	ldrb	r0, [r0, #15]
	lsls	r0, r0, #8
	adds	r0, r0, r2
	lsls	r0, r0, #16
	adds	r0, r0, r1
	str	r0, [sp, #400]
	.loc	1 1080 17                       @ ../../../ThirdParty/mbedTLS/library/camellia.c:1080:17
	lsls	r0, r6, #4
	ldr	r1, __arm_cp.9_15
	adds	r0, r1, r0
	b	.LBB9_29
.Ltmp390:
	.p2align	2
@ %bb.27:
	.loc	1 0 17 is_stmt 0                @ ../../../ThirdParty/mbedTLS/library/camellia.c:0:17
.LCPI9_36:
	.long	camellia_test_ecb_key
	.p2align	1
.LBB9_28:                               @   in Loop: Header=BB9_25 Depth=2
.Ltmp391:
	@DEBUG_VALUE: mbedtls_camellia_self_test:i <- $r6
	@DEBUG_VALUE: mbedtls_camellia_self_test:j <- [DW_OP_plus_uconst 32] [$sp+0]
	@DEBUG_VALUE: mbedtls_camellia_self_test:v <- [DW_OP_plus_uconst 40] [$sp+0]
	.loc	1 1082 17 is_stmt 1             @ ../../../ThirdParty/mbedTLS/library/camellia.c:1082:17
	ldr	r0, [sp, #384]
	str	r0, [sp, #368]
	ldr	r0, [sp, #380]
	str	r0, [sp, #364]
	ldr	r0, [sp, #376]
	str	r0, [sp, #360]
	ldr	r0, [sp, #372]
	str	r0, [sp, #356]
	ldr	r0, __arm_cp.9_15
	.loc	1 1083 17                       @ ../../../ThirdParty/mbedTLS/library/camellia.c:1083:17
	ldrb	r1, [r0, r7]
	adds	r0, r0, r7
	ldrb	r2, [r0, #1]
	lsls	r2, r2, #8
	adds	r1, r2, r1
	ldrb	r2, [r0, #2]
	ldrb	r3, [r0, #3]
	lsls	r3, r3, #8
	adds	r2, r3, r2
	lsls	r2, r2, #16
	adds	r1, r2, r1
	str	r1, [sp, #388]
	ldrb	r1, [r0, #4]
	ldrb	r2, [r0, #5]
	lsls	r2, r2, #8
	adds	r1, r2, r1
	ldrb	r2, [r0, #6]
	ldrb	r3, [r0, #7]
	lsls	r3, r3, #8
	adds	r2, r3, r2
	lsls	r2, r2, #16
	adds	r1, r2, r1
	str	r1, [sp, #392]
	ldrb	r1, [r0, #8]
	ldrb	r2, [r0, #9]
	lsls	r2, r2, #8
	adds	r1, r2, r1
	ldrb	r2, [r0, #10]
	ldrb	r3, [r0, #11]
	lsls	r3, r3, #8
	adds	r2, r3, r2
	lsls	r2, r2, #16
	adds	r1, r2, r1
	str	r1, [sp, #396]
	ldrb	r1, [r0, #12]
	ldrb	r2, [r0, #13]
	lsls	r2, r2, #8
	adds	r1, r2, r1
	ldrb	r2, [r0, #14]
	ldrb	r0, [r0, #15]
	lsls	r0, r0, #8
	adds	r0, r0, r2
	lsls	r0, r0, #16
	adds	r0, r0, r1
	str	r0, [sp, #400]
	ldr	r0, [sp, #36]                   @ 4-byte Reload
	adds	r0, r0, r7
.Ltmp392:
.LBB9_29:                               @   in Loop: Header=BB9_25 Depth=2
	@DEBUG_VALUE: mbedtls_camellia_self_test:i <- $r6
	@DEBUG_VALUE: mbedtls_camellia_self_test:j <- [DW_OP_plus_uconst 32] [$sp+0]
	@DEBUG_VALUE: mbedtls_camellia_self_test:v <- [DW_OP_plus_uconst 40] [$sp+0]
	.loc	1 0 0 is_stmt 0                 @ ../../../ThirdParty/mbedTLS/library/camellia.c:0:0
	ldrb	r1, [r0, #12]
	ldrb	r2, [r0, #13]
	lsls	r2, r2, #8
	adds	r1, r2, r1
	ldrb	r2, [r0, #14]
	ldrb	r3, [r0, #15]
	lsls	r3, r3, #8
	adds	r2, r3, r2
	lsls	r2, r2, #16
	adds	r1, r2, r1
	str	r1, [sp, #384]
	ldrb	r1, [r0, #8]
	ldrb	r2, [r0, #9]
	lsls	r2, r2, #8
	adds	r1, r2, r1
	ldrb	r2, [r0, #10]
	ldrb	r3, [r0, #11]
	lsls	r3, r3, #8
	adds	r2, r3, r2
	lsls	r2, r2, #16
	adds	r1, r2, r1
	str	r1, [sp, #380]
	ldrb	r1, [r0, #4]
	ldrb	r2, [r0, #5]
	lsls	r2, r2, #8
	adds	r1, r2, r1
	ldrb	r2, [r0, #6]
	ldrb	r3, [r0, #7]
	lsls	r3, r3, #8
	adds	r2, r3, r2
	lsls	r2, r2, #16
	adds	r1, r2, r1
	str	r1, [sp, #376]
	ldrb	r1, [r0]
	ldrb	r2, [r0, #1]
	lsls	r2, r2, #8
	adds	r1, r2, r1
	ldrb	r2, [r0, #2]
	ldrb	r0, [r0, #3]
	lsls	r0, r0, #8
	adds	r0, r0, r2
	lsls	r0, r0, #16
	adds	r0, r0, r1
	str	r0, [sp, #372]
	add	r4, sp, #404
.Ltmp393:
	.loc	1 1087 13 is_stmt 1             @ ../../../ThirdParty/mbedTLS/library/camellia.c:1087:13
	str	r4, [sp, #4]
	add	r0, sp, #388
	str	r0, [sp]
	add	r0, sp, #44
	movs	r5, #16
	add	r3, sp, #356
	ldr	r1, [sp, #40]                   @ 4-byte Reload
	mov	r2, r5
	bl	mbedtls_camellia_crypt_cbc
	add	r1, sp, #372
.Ltmp394:
	.loc	1 1089 17                       @ ../../../ThirdParty/mbedTLS/library/camellia.c:1089:17
	mov	r0, r4
	mov	r2, r5
	bl	memcmp
.Ltmp395:
	@DEBUG_VALUE: mbedtls_camellia_self_test:i <- [DW_OP_plus_uconst 1, DW_OP_stack_value] $r6
	.loc	1 1089 17 is_stmt 0             @ ../../../ThirdParty/mbedTLS/library/camellia.c:1089:17
	cmp	r0, #0
	bne	.LBB9_55
.Ltmp396:
@ %bb.30:                               @   in Loop: Header=BB9_25 Depth=2
	@DEBUG_VALUE: mbedtls_camellia_self_test:i <- [DW_OP_plus_uconst 1, DW_OP_stack_value] $r6
	@DEBUG_VALUE: mbedtls_camellia_self_test:j <- [DW_OP_plus_uconst 32] [$sp+0]
	@DEBUG_VALUE: mbedtls_camellia_self_test:v <- [DW_OP_plus_uconst 40] [$sp+0]
	@DEBUG_VALUE: mbedtls_camellia_self_test:i <- [DW_OP_plus_uconst 1, DW_OP_stack_value] $r6
	.loc	1 1075 23 is_stmt 1             @ ../../../ThirdParty/mbedTLS/library/camellia.c:1075:23
	adds	r7, #16
	.loc	1 1075 46 is_stmt 0             @ ../../../ThirdParty/mbedTLS/library/camellia.c:1075:46
	adds	r6, r6, #1
.Ltmp397:
	@DEBUG_VALUE: mbedtls_camellia_self_test:i <- $r6
	.loc	1 1075 9                        @ ../../../ThirdParty/mbedTLS/library/camellia.c:1075:9
	cmp	r7, #48
	ldr	r4, [sp, #40]                   @ 4-byte Reload
	beq	.LBB9_31
	b	.LBB9_25
.Ltmp398:
.LBB9_31:                               @   in Loop: Header=BB9_17 Depth=1
	@DEBUG_VALUE: mbedtls_camellia_self_test:i <- $r6
	@DEBUG_VALUE: mbedtls_camellia_self_test:j <- [DW_OP_plus_uconst 32] [$sp+0]
	@DEBUG_VALUE: mbedtls_camellia_self_test:v <- [DW_OP_plus_uconst 40] [$sp+0]
	.loc	1 0 9                           @ ../../../ThirdParty/mbedTLS/library/camellia.c:0:9
	ldr	r0, [sp, #24]                   @ 4-byte Reload
	ldr	r2, [sp, #20]                   @ 4-byte Reload
	.loc	1 1098 13 is_stmt 1             @ ../../../ThirdParty/mbedTLS/library/camellia.c:1098:13
	cbz	r0, .LBB9_33
.Ltmp399:
@ %bb.32:                               @   in Loop: Header=BB9_17 Depth=1
	@DEBUG_VALUE: mbedtls_camellia_self_test:i <- $r6
	@DEBUG_VALUE: mbedtls_camellia_self_test:j <- [DW_OP_plus_uconst 32] [$sp+0]
	@DEBUG_VALUE: mbedtls_camellia_self_test:v <- [DW_OP_plus_uconst 40] [$sp+0]
	.loc	1 1099 13                       @ ../../../ThirdParty/mbedTLS/library/camellia.c:1099:13
	adr	r0, .LCPI9_7
	mov	r4, r2
	bl	puts
	mov	r2, r4
	ldr	r0, [sp, #24]                   @ 4-byte Reload
.Ltmp400:
.LBB9_33:                               @   in Loop: Header=BB9_17 Depth=1
	@DEBUG_VALUE: mbedtls_camellia_self_test:i <- $r6
	@DEBUG_VALUE: mbedtls_camellia_self_test:j <- [DW_OP_plus_uconst 32] [$sp+0]
	@DEBUG_VALUE: mbedtls_camellia_self_test:v <- [DW_OP_plus_uconst 40] [$sp+0]
	.loc	1 0 13 is_stmt 0                @ ../../../ThirdParty/mbedTLS/library/camellia.c:0:13
	ldr	r1, [sp, #32]                   @ 4-byte Reload
	.loc	1 1056 25 is_stmt 1             @ ../../../ThirdParty/mbedTLS/library/camellia.c:1056:25
	adds	r1, r1, #1
.Ltmp401:
	@DEBUG_VALUE: mbedtls_camellia_self_test:j <- $r1
	.loc	1 1056 5 is_stmt 0              @ ../../../ThirdParty/mbedTLS/library/camellia.c:1056:5
	cmp	r1, #6
	ldr	r5, [sp, #28]                   @ 4-byte Reload
	ldr	r7, __arm_cp.9_8
	beq	.LBB9_34
	b	.LBB9_17
.Ltmp402:
.LBB9_34:
	@DEBUG_VALUE: mbedtls_camellia_self_test:i <- $r6
	@DEBUG_VALUE: mbedtls_camellia_self_test:j <- $r1
	@DEBUG_VALUE: mbedtls_camellia_self_test:v <- [DW_OP_plus_uconst 40] [$sp+0]
	.loc	1 1103 9 is_stmt 1              @ ../../../ThirdParty/mbedTLS/library/camellia.c:1103:9
	cbz	r0, .LBB9_36
.Ltmp403:
@ %bb.35:
	@DEBUG_VALUE: mbedtls_camellia_self_test:i <- $r6
	@DEBUG_VALUE: mbedtls_camellia_self_test:j <- $r1
	@DEBUG_VALUE: mbedtls_camellia_self_test:v <- [DW_OP_plus_uconst 40] [$sp+0]
	.loc	1 0 9 is_stmt 0                 @ ../../../ThirdParty/mbedTLS/library/camellia.c:0:9
	movs	r0, #10
.Ltmp404:
	.loc	1 1104 9 is_stmt 1              @ ../../../ThirdParty/mbedTLS/library/camellia.c:1104:9
	bl	putchar
.Ltmp405:
	.loc	1 0 9 is_stmt 0                 @ ../../../ThirdParty/mbedTLS/library/camellia.c:0:9
	ldr	r0, [sp, #24]                   @ 4-byte Reload
.Ltmp406:
.LBB9_36:
	@DEBUG_VALUE: mbedtls_camellia_self_test:i <- $r6
	@DEBUG_VALUE: mbedtls_camellia_self_test:v <- [DW_OP_plus_uconst 40] [$sp+0]
	movs	r5, #0
	movs	r6, #1
.Ltmp407:
	movs	r1, #128
	str	r1, [sp, #36]                   @ 4-byte Spill
	str	r5, [sp, #40]                   @ 4-byte Spill
	str	r6, [sp, #20]                   @ 4-byte Spill
	b	.LBB9_58
.Ltmp408:
	.p2align	2
@ %bb.37:
__arm_cp.9_22:
	.long	camellia_test_ecb_key
.Lcpi_end7:
	.size	__arm_cp.9_22, .Lcpi_end7-__arm_cp.9_22
	.p2align	2
@ %bb.38:
.LCPI9_23:
	.long	.L.str.1
	.p2align	2
@ %bb.39:
.LCPI9_24:
	.long	.L.str.2
	.p2align	2
@ %bb.40:
.LCPI9_25:
.L.str:
	.asciz	"  CAMELLIA-ECB-%3d (%s): \000\000"
	.p2align	2
@ %bb.41:
__arm_cp.9_26:
	.long	camellia_test_ecb_cipher
.Lcpi_end8:
	.size	__arm_cp.9_26, .Lcpi_end8-__arm_cp.9_26
	.p2align	2
@ %bb.42:
__arm_cp.9_27:
	.long	camellia_test_ecb_plain
.Lcpi_end9:
	.size	__arm_cp.9_27, .Lcpi_end9-__arm_cp.9_27
	.p2align	2
@ %bb.43:
.LCPI9_28:
.Lstr:
.Lstr.17:
.Lstr.15:
	.asciz	"passed\000"
	.p2align	2
@ %bb.44:
.LCPI9_29:
	.long	camellia_test_cbc_cipher
	.p2align	2
@ %bb.45:
.LCPI9_30:
.L.str.6:
	.asciz	"  CAMELLIA-CBC-%3d (%s): \000\000"
	.p2align	2
@ %bb.46:
__arm_cp.9_31:
	.long	252579084                       @ 0xf0e0d0c
.Lcpi_end10:
	.size	__arm_cp.9_31, .Lcpi_end10-__arm_cp.9_31
	.p2align	2
@ %bb.47:
__arm_cp.9_32:
	.long	185207048                       @ 0xb0a0908
.Lcpi_end11:
	.size	__arm_cp.9_32, .Lcpi_end11-__arm_cp.9_32
	.p2align	2
@ %bb.48:
__arm_cp.9_33:
	.long	117835012                       @ 0x7060504
.Lcpi_end12:
	.size	__arm_cp.9_33, .Lcpi_end12-__arm_cp.9_33
	.p2align	2
@ %bb.49:
__arm_cp.9_34:
	.long	50462976                        @ 0x3020100
.Lcpi_end13:
	.size	__arm_cp.9_34, .Lcpi_end13-__arm_cp.9_34
	.p2align	2
@ %bb.50:
__arm_cp.9_35:
	.long	camellia_test_cbc_key
.Lcpi_end14:
	.size	__arm_cp.9_35, .Lcpi_end14-__arm_cp.9_35
	.p2align	1
.LBB9_51:
.Ltmp409:
	@DEBUG_VALUE: mbedtls_camellia_self_test:i <- [DW_OP_plus_uconst 1, DW_OP_stack_value] $r6
	@DEBUG_VALUE: mbedtls_camellia_self_test:j <- [DW_OP_plus_uconst 12] [$sp+0]
	@DEBUG_VALUE: mbedtls_camellia_self_test:v <- [DW_OP_plus_uconst 40] [$sp+0]
	.loc	1 1038 21 is_stmt 1             @ ../../../ThirdParty/mbedTLS/library/camellia.c:1038:21
	ldr	r0, [sp, #24]                   @ 4-byte Reload
	cbz	r0, .LBB9_53
.Ltmp410:
@ %bb.52:
	@DEBUG_VALUE: mbedtls_camellia_self_test:i <- [DW_OP_plus_uconst 1, DW_OP_stack_value] $r6
	@DEBUG_VALUE: mbedtls_camellia_self_test:j <- [DW_OP_plus_uconst 12] [$sp+0]
	@DEBUG_VALUE: mbedtls_camellia_self_test:v <- [DW_OP_plus_uconst 40] [$sp+0]
	.loc	1 1039 21                       @ ../../../ThirdParty/mbedTLS/library/camellia.c:1039:21
	adr	r0, .LCPI9_6
	bl	puts
	ldr	r4, [sp, #20]                   @ 4-byte Reload
	b	.LBB9_54
.Ltmp411:
.LBB9_53:
	@DEBUG_VALUE: mbedtls_camellia_self_test:i <- [DW_OP_plus_uconst 1, DW_OP_stack_value] $r6
	@DEBUG_VALUE: mbedtls_camellia_self_test:j <- [DW_OP_plus_uconst 12] [$sp+0]
	@DEBUG_VALUE: mbedtls_camellia_self_test:v <- [DW_OP_plus_uconst 40] [$sp+0]
	.loc	1 0 21 is_stmt 0                @ ../../../ThirdParty/mbedTLS/library/camellia.c:0:21
	ldr	r4, [sp, #20]                   @ 4-byte Reload
.Ltmp412:
.LBB9_54:
	.loc	1 1167 1 is_stmt 1              @ ../../../ThirdParty/mbedTLS/library/camellia.c:1167:1
	mov	r0, r4
	add	sp, #500
	pop	{r4, r5, r6, r7, pc}
.LBB9_55:
.Ltmp413:
	@DEBUG_VALUE: mbedtls_camellia_self_test:i <- [DW_OP_plus_uconst 1, DW_OP_stack_value] $r6
	@DEBUG_VALUE: mbedtls_camellia_self_test:j <- [DW_OP_plus_uconst 32] [$sp+0]
	@DEBUG_VALUE: mbedtls_camellia_self_test:v <- [DW_OP_plus_uconst 40] [$sp+0]
	.loc	1 1091 21                       @ ../../../ThirdParty/mbedTLS/library/camellia.c:1091:21
	ldr	r0, [sp, #24]                   @ 4-byte Reload
	cmp	r0, #0
	bne	.LBB9_56
	b	.LBB9_67
.Ltmp414:
.LBB9_56:
	@DEBUG_VALUE: mbedtls_camellia_self_test:i <- [DW_OP_plus_uconst 1, DW_OP_stack_value] $r6
	@DEBUG_VALUE: mbedtls_camellia_self_test:j <- [DW_OP_plus_uconst 32] [$sp+0]
	@DEBUG_VALUE: mbedtls_camellia_self_test:v <- [DW_OP_plus_uconst 40] [$sp+0]
	.loc	1 1092 21                       @ ../../../ThirdParty/mbedTLS/library/camellia.c:1092:21
	adr	r0, .LCPI9_6
	bl	puts
	ldr	r4, [sp, #20]                   @ 4-byte Reload
	b	.LBB9_54
.Ltmp415:
.LBB9_57:                               @   in Loop: Header=BB9_58 Depth=1
	@DEBUG_VALUE: mbedtls_camellia_self_test:len <- $r7
	@DEBUG_VALUE: mbedtls_camellia_self_test:i <- $r5
	@DEBUG_VALUE: mbedtls_camellia_self_test:offset <- [DW_OP_plus_uconst 352, DW_OP_deref] $sp
	.loc	1 1110 25                       @ ../../../ThirdParty/mbedTLS/library/camellia.c:1110:25
	adds	r5, r5, #1
.Ltmp416:
	@DEBUG_VALUE: mbedtls_camellia_self_test:i <- $r5
	.loc	1 1110 5 is_stmt 0              @ ../../../ThirdParty/mbedTLS/library/camellia.c:1110:5
	cmp	r5, #6
	bne	.LBB9_58
	b	.LBB9_68
.Ltmp417:
.LBB9_58:                               @ =>This Inner Loop Header: Depth=1
	@DEBUG_VALUE: mbedtls_camellia_self_test:i <- $r5
	.loc	1 1113 16 is_stmt 1             @ ../../../ThirdParty/mbedTLS/library/camellia.c:1113:16
	mov	r4, r5
	ands	r4, r6
.Ltmp418:
	@DEBUG_VALUE: mbedtls_camellia_self_test:v <- $r4
	.loc	1 1112 15                       @ ../../../ThirdParty/mbedTLS/library/camellia.c:1112:15
	lsrs	r6, r5, #1
.Ltmp419:
	@DEBUG_VALUE: mbedtls_camellia_self_test:u <- $r6
	.loc	1 1115 13                       @ ../../../ThirdParty/mbedTLS/library/camellia.c:1115:13
	cbz	r0, .LBB9_62
.Ltmp420:
@ %bb.59:                               @   in Loop: Header=BB9_58 Depth=1
	@DEBUG_VALUE: mbedtls_camellia_self_test:u <- $r6
	@DEBUG_VALUE: mbedtls_camellia_self_test:i <- $r5
	@DEBUG_VALUE: mbedtls_camellia_self_test:v <- $r4
	.loc	1 1117 29                       @ ../../../ThirdParty/mbedTLS/library/camellia.c:1117:29
	ldr	r1, __arm_cp.9_2
	cbz	r4, .LBB9_61
.Ltmp421:
@ %bb.60:                               @   in Loop: Header=BB9_58 Depth=1
	@DEBUG_VALUE: mbedtls_camellia_self_test:u <- $r6
	@DEBUG_VALUE: mbedtls_camellia_self_test:i <- $r5
	@DEBUG_VALUE: mbedtls_camellia_self_test:v <- $r4
	ldr	r1, __arm_cp.9_3
.Ltmp422:
.LBB9_61:                               @   in Loop: Header=BB9_58 Depth=1
	@DEBUG_VALUE: mbedtls_camellia_self_test:u <- $r6
	@DEBUG_VALUE: mbedtls_camellia_self_test:i <- $r5
	@DEBUG_VALUE: mbedtls_camellia_self_test:v <- $r4
	.loc	1 1116 13                       @ ../../../ThirdParty/mbedTLS/library/camellia.c:1116:13
	adr	r0, .LCPI9_16
	bl	__2printf
.Ltmp423:
.LBB9_62:                               @   in Loop: Header=BB9_58 Depth=1
	@DEBUG_VALUE: mbedtls_camellia_self_test:u <- $r6
	@DEBUG_VALUE: mbedtls_camellia_self_test:i <- $r5
	@DEBUG_VALUE: mbedtls_camellia_self_test:v <- $r4
	@DEBUG_VALUE: mbedtls_camellia_self_test:offset <- 0
	.loc	1 1122 16                       @ ../../../ThirdParty/mbedTLS/library/camellia.c:1122:16
	ldr	r0, [sp, #40]                   @ 4-byte Reload
	str	r0, [sp, #352]
	.loc	1 1119 9                        @ ../../../ThirdParty/mbedTLS/library/camellia.c:1119:9
	lsls	r0, r6, #4
	ldr	r1, __arm_cp.9_17
	adds	r1, r1, r0
	ldrb	r2, [r1, #12]
	ldrb	r3, [r1, #13]
	lsls	r3, r3, #8
	adds	r2, r3, r2
	ldrb	r3, [r1, #14]
	ldrb	r7, [r1, #15]
	lsls	r7, r7, #8
	adds	r3, r7, r3
	lsls	r3, r3, #16
	adds	r2, r3, r2
	str	r2, [sp, #348]
	ldrb	r2, [r1, #8]
	ldrb	r3, [r1, #9]
	lsls	r3, r3, #8
	adds	r2, r3, r2
	ldrb	r3, [r1, #10]
	ldrb	r7, [r1, #11]
	lsls	r7, r7, #8
	adds	r3, r7, r3
	lsls	r3, r3, #16
	adds	r2, r3, r2
	str	r2, [sp, #344]
	ldrb	r2, [r1, #4]
	ldrb	r3, [r1, #5]
	lsls	r3, r3, #8
	adds	r2, r3, r2
	ldrb	r3, [r1, #6]
	ldrb	r7, [r1, #7]
	lsls	r7, r7, #8
	adds	r3, r7, r3
	lsls	r3, r3, #16
	adds	r2, r3, r2
	str	r2, [sp, #340]
	ldr	r2, __arm_cp.9_17
	ldrb	r2, [r2, r0]
	ldrb	r3, [r1, #1]
	lsls	r3, r3, #8
	adds	r2, r3, r2
	ldrb	r3, [r1, #2]
	ldrb	r1, [r1, #3]
	lsls	r1, r1, #8
	adds	r1, r1, r3
	lsls	r1, r1, #16
	adds	r1, r1, r2
	str	r1, [sp, #336]
	ldr	r2, __arm_cp.9_18
	.loc	1 1120 9                        @ ../../../ThirdParty/mbedTLS/library/camellia.c:1120:9
	ldrb	r1, [r2, r0]
	adds	r0, r2, r0
	ldrb	r2, [r0, #1]
	lsls	r2, r2, #8
	adds	r1, r2, r1
	ldrb	r2, [r0, #2]
	ldrb	r3, [r0, #3]
	lsls	r3, r3, #8
	adds	r2, r3, r2
	lsls	r2, r2, #16
	adds	r1, r2, r1
	str	r1, [sp, #468]
	ldrb	r1, [r0, #4]
	ldrb	r2, [r0, #5]
	lsls	r2, r2, #8
	adds	r1, r2, r1
	ldrb	r2, [r0, #6]
	ldrb	r3, [r0, #7]
	lsls	r3, r3, #8
	adds	r2, r3, r2
	lsls	r2, r2, #16
	adds	r1, r2, r1
	str	r1, [sp, #472]
	ldrb	r1, [r0, #8]
	ldrb	r2, [r0, #9]
	lsls	r2, r2, #8
	adds	r1, r2, r1
	ldrb	r2, [r0, #10]
	ldrb	r3, [r0, #11]
	lsls	r3, r3, #8
	adds	r2, r3, r2
	lsls	r2, r2, #16
	adds	r1, r2, r1
	str	r1, [sp, #476]
	ldrb	r1, [r0, #12]
	ldrb	r2, [r0, #13]
	lsls	r2, r2, #8
	adds	r1, r2, r1
	ldrb	r2, [r0, #14]
	ldrb	r0, [r0, #15]
	lsls	r0, r0, #8
	adds	r0, r0, r2
	lsls	r0, r0, #16
	adds	r0, r0, r1
	str	r0, [sp, #480]
	add	r0, sp, #44
	add	r1, sp, #468
	.loc	1 1123 9                        @ ../../../ThirdParty/mbedTLS/library/camellia.c:1123:9
	ldr	r2, [sp, #36]                   @ 4-byte Reload
	bl	mbedtls_camellia_setkey_enc
.Ltmp424:
	.loc	1 0 0 is_stmt 0                 @ ../../../ThirdParty/mbedTLS/library/camellia.c:0:0
	lsls	r0, r6, #2
	adr	r1, .LCPI9_19
	ldr	r7, [r1, r0]
.Ltmp425:
	@DEBUG_VALUE: mbedtls_camellia_self_test:len <- $r7
	.loc	1 1125 13 is_stmt 1             @ ../../../ThirdParty/mbedTLS/library/camellia.c:1125:13
	cbnz	r4, .LBB9_64
.Ltmp426:
@ %bb.63:                               @   in Loop: Header=BB9_58 Depth=1
	@DEBUG_VALUE: mbedtls_camellia_self_test:len <- $r7
	@DEBUG_VALUE: mbedtls_camellia_self_test:u <- $r6
	@DEBUG_VALUE: mbedtls_camellia_self_test:i <- $r5
	@DEBUG_VALUE: mbedtls_camellia_self_test:v <- $r4
	@DEBUG_VALUE: mbedtls_camellia_self_test:offset <- 0
	.loc	1 1128 13                       @ ../../../ThirdParty/mbedTLS/library/camellia.c:1128:13
	ldr	r0, [sp, #28]                   @ 4-byte Reload
	muls	r6, r0, r6
.Ltmp427:
	ldr	r0, __arm_cp.9_21
	adds	r1, r0, r6
	add	r4, sp, #404
.Ltmp428:
	mov	r0, r4
	mov	r2, r7
	bl	__aeabi_memcpy
.Ltmp429:
	@DEBUG_VALUE: mbedtls_camellia_self_test:offset <- [DW_OP_plus_uconst 352, DW_OP_deref] $sp
	.loc	1 1130 13                       @ ../../../ThirdParty/mbedTLS/library/camellia.c:1130:13
	str	r4, [sp, #8]
	str	r4, [sp, #4]
	add	r0, sp, #320
	str	r0, [sp]
	add	r0, sp, #44
	add	r2, sp, #352
	add	r3, sp, #336
	mov	r1, r7
	bl	mbedtls_camellia_crypt_ctr
.Ltmp430:
	.loc	1 1133 30                       @ ../../../ThirdParty/mbedTLS/library/camellia.c:1133:30
	ldr	r0, __arm_cp.9_20
	adds	r1, r0, r6
	.loc	1 1133 17 is_stmt 0             @ ../../../ThirdParty/mbedTLS/library/camellia.c:1133:17
	mov	r0, r4
	mov	r2, r7
	bl	memcmp
	cbz	r0, .LBB9_65
	b	.LBB9_70
.Ltmp431:
.LBB9_64:                               @   in Loop: Header=BB9_58 Depth=1
	@DEBUG_VALUE: mbedtls_camellia_self_test:len <- $r7
	@DEBUG_VALUE: mbedtls_camellia_self_test:u <- $r6
	@DEBUG_VALUE: mbedtls_camellia_self_test:i <- $r5
	@DEBUG_VALUE: mbedtls_camellia_self_test:v <- $r4
	@DEBUG_VALUE: mbedtls_camellia_self_test:offset <- 0
	.loc	1 1144 13 is_stmt 1             @ ../../../ThirdParty/mbedTLS/library/camellia.c:1144:13
	ldr	r0, [sp, #28]                   @ 4-byte Reload
	muls	r6, r0, r6
.Ltmp432:
	ldr	r0, __arm_cp.9_20
	adds	r1, r0, r6
	add	r4, sp, #404
.Ltmp433:
	mov	r0, r4
	mov	r2, r7
	bl	__aeabi_memcpy
.Ltmp434:
	@DEBUG_VALUE: mbedtls_camellia_self_test:offset <- [DW_OP_plus_uconst 352, DW_OP_deref] $sp
	.loc	1 1146 13                       @ ../../../ThirdParty/mbedTLS/library/camellia.c:1146:13
	str	r4, [sp, #8]
	str	r4, [sp, #4]
	add	r0, sp, #320
	str	r0, [sp]
	add	r0, sp, #44
	add	r2, sp, #352
	add	r3, sp, #336
	mov	r1, r7
	bl	mbedtls_camellia_crypt_ctr
.Ltmp435:
	.loc	1 1149 30                       @ ../../../ThirdParty/mbedTLS/library/camellia.c:1149:30
	ldr	r0, __arm_cp.9_21
	adds	r1, r0, r6
	.loc	1 1149 17 is_stmt 0             @ ../../../ThirdParty/mbedTLS/library/camellia.c:1149:17
	mov	r0, r4
	mov	r2, r7
	bl	memcmp
.Ltmp436:
	.loc	1 1149 17                       @ ../../../ThirdParty/mbedTLS/library/camellia.c:1149:17
	cbnz	r0, .LBB9_72
.Ltmp437:
.LBB9_65:                               @   in Loop: Header=BB9_58 Depth=1
	@DEBUG_VALUE: mbedtls_camellia_self_test:len <- $r7
	@DEBUG_VALUE: mbedtls_camellia_self_test:i <- $r5
	@DEBUG_VALUE: mbedtls_camellia_self_test:offset <- [DW_OP_plus_uconst 352, DW_OP_deref] $sp
	.loc	1 0 17                          @ ../../../ThirdParty/mbedTLS/library/camellia.c:0:17
	ldr	r0, [sp, #24]                   @ 4-byte Reload
	.loc	1 1158 13 is_stmt 1             @ ../../../ThirdParty/mbedTLS/library/camellia.c:1158:13
	cmp	r0, #0
	ldr	r6, [sp, #20]                   @ 4-byte Reload
	bne	.LBB9_66
	b	.LBB9_57
.Ltmp438:
.LBB9_66:                               @   in Loop: Header=BB9_58 Depth=1
	@DEBUG_VALUE: mbedtls_camellia_self_test:len <- $r7
	@DEBUG_VALUE: mbedtls_camellia_self_test:i <- $r5
	@DEBUG_VALUE: mbedtls_camellia_self_test:offset <- [DW_OP_plus_uconst 352, DW_OP_deref] $sp
	.loc	1 1159 13                       @ ../../../ThirdParty/mbedTLS/library/camellia.c:1159:13
	adr	r0, .LCPI9_7
	bl	puts
	ldr	r0, [sp, #24]                   @ 4-byte Reload
	b	.LBB9_57
.Ltmp439:
.LBB9_67:
	@DEBUG_VALUE: mbedtls_camellia_self_test:i <- [DW_OP_plus_uconst 1, DW_OP_stack_value] $r6
	@DEBUG_VALUE: mbedtls_camellia_self_test:j <- [DW_OP_plus_uconst 32] [$sp+0]
	@DEBUG_VALUE: mbedtls_camellia_self_test:v <- [DW_OP_plus_uconst 40] [$sp+0]
	.loc	1 0 13 is_stmt 0                @ ../../../ThirdParty/mbedTLS/library/camellia.c:0:13
	ldr	r4, [sp, #20]                   @ 4-byte Reload
	b	.LBB9_54
.Ltmp440:
.LBB9_68:
	@DEBUG_VALUE: mbedtls_camellia_self_test:len <- $r7
	@DEBUG_VALUE: mbedtls_camellia_self_test:i <- $r5
	@DEBUG_VALUE: mbedtls_camellia_self_test:offset <- [DW_OP_plus_uconst 352, DW_OP_deref] $sp
	movs	r4, #0
	.loc	1 1162 9 is_stmt 1              @ ../../../ThirdParty/mbedTLS/library/camellia.c:1162:9
	cmp	r0, #0
	bne	.LBB9_69
	b	.LBB9_54
.Ltmp441:
.LBB9_69:
	@DEBUG_VALUE: mbedtls_camellia_self_test:len <- $r7
	@DEBUG_VALUE: mbedtls_camellia_self_test:i <- $r5
	@DEBUG_VALUE: mbedtls_camellia_self_test:offset <- [DW_OP_plus_uconst 352, DW_OP_deref] $sp
	.loc	1 0 9 is_stmt 0                 @ ../../../ThirdParty/mbedTLS/library/camellia.c:0:9
	movs	r0, #10
.Ltmp442:
	.loc	1 1163 9 is_stmt 1              @ ../../../ThirdParty/mbedTLS/library/camellia.c:1163:9
	bl	putchar
	b	.LBB9_54
.Ltmp443:
.LBB9_70:
	@DEBUG_VALUE: mbedtls_camellia_self_test:len <- $r7
	@DEBUG_VALUE: mbedtls_camellia_self_test:i <- $r5
	@DEBUG_VALUE: mbedtls_camellia_self_test:offset <- [DW_OP_plus_uconst 352, DW_OP_deref] $sp
	.loc	1 1135 21                       @ ../../../ThirdParty/mbedTLS/library/camellia.c:1135:21
	ldr	r0, [sp, #24]                   @ 4-byte Reload
	cmp	r0, #0
	ldr	r4, [sp, #20]                   @ 4-byte Reload
	bne	.LBB9_71
	b	.LBB9_54
.Ltmp444:
.LBB9_71:
	@DEBUG_VALUE: mbedtls_camellia_self_test:len <- $r7
	@DEBUG_VALUE: mbedtls_camellia_self_test:i <- $r5
	@DEBUG_VALUE: mbedtls_camellia_self_test:offset <- [DW_OP_plus_uconst 352, DW_OP_deref] $sp
	.loc	1 1136 21                       @ ../../../ThirdParty/mbedTLS/library/camellia.c:1136:21
	adr	r0, .LCPI9_6
	bl	puts
	b	.LBB9_54
.Ltmp445:
.LBB9_72:
	@DEBUG_VALUE: mbedtls_camellia_self_test:len <- $r7
	@DEBUG_VALUE: mbedtls_camellia_self_test:i <- $r5
	@DEBUG_VALUE: mbedtls_camellia_self_test:offset <- [DW_OP_plus_uconst 352, DW_OP_deref] $sp
	.loc	1 1151 21                       @ ../../../ThirdParty/mbedTLS/library/camellia.c:1151:21
	ldr	r0, [sp, #24]                   @ 4-byte Reload
	cmp	r0, #0
	ldr	r4, [sp, #20]                   @ 4-byte Reload
	bne	.LBB9_73
	b	.LBB9_54
.Ltmp446:
.LBB9_73:
	@DEBUG_VALUE: mbedtls_camellia_self_test:len <- $r7
	@DEBUG_VALUE: mbedtls_camellia_self_test:i <- $r5
	@DEBUG_VALUE: mbedtls_camellia_self_test:offset <- [DW_OP_plus_uconst 352, DW_OP_deref] $sp
	.loc	1 1152 21                       @ ../../../ThirdParty/mbedTLS/library/camellia.c:1152:21
	adr	r0, .LCPI9_6
	bl	puts
	b	.LBB9_54
.Ltmp447:
	.p2align	2
@ %bb.74:
	.loc	1 0 21 is_stmt 0                @ ../../../ThirdParty/mbedTLS/library/camellia.c:0:21
__arm_cp.9_2:
	.long	.L.str.1
.Lcpi_end15:
	.size	__arm_cp.9_2, .Lcpi_end15-__arm_cp.9_2
__arm_cp.9_3:
	.long	.L.str.2
.Lcpi_end16:
	.size	__arm_cp.9_3, .Lcpi_end16-__arm_cp.9_3
.LCPI9_6:
.Lstr.13:
.Lstr.14:
.Lstr.16:
.Lstr.18:
	.asciz	"failed\000"
.LCPI9_7:
	.asciz	"passed\000"
__arm_cp.9_8:
	.long	camellia_test_cbc_cipher
.Lcpi_end17:
	.size	__arm_cp.9_8, .Lcpi_end17-__arm_cp.9_8
__arm_cp.9_15:
	.long	camellia_test_cbc_plain
.Lcpi_end18:
	.size	__arm_cp.9_15, .Lcpi_end18-__arm_cp.9_15
.LCPI9_16:
.L.str.7:
	.asciz	"  CAMELLIA-CTR-128 (%s): \000\000"
__arm_cp.9_17:
	.long	camellia_test_ctr_nonce_counter
.Lcpi_end19:
	.size	__arm_cp.9_17, .Lcpi_end19-__arm_cp.9_17
__arm_cp.9_18:
	.long	camellia_test_ctr_key
.Lcpi_end20:
	.size	__arm_cp.9_18, .Lcpi_end20-__arm_cp.9_18
.LCPI9_19:
camellia_test_ctr_len:
	.long	16                              @ 0x10
	.long	32                              @ 0x20
	.long	36                              @ 0x24
__arm_cp.9_20:
	.long	camellia_test_ctr_pt
.Lcpi_end21:
	.size	__arm_cp.9_20, .Lcpi_end21-__arm_cp.9_20
__arm_cp.9_21:
	.long	camellia_test_ctr_ct
.Lcpi_end22:
	.size	__arm_cp.9_21, .Lcpi_end22-__arm_cp.9_21
.Lfunc_end9:
	.size	mbedtls_camellia_self_test, .Lfunc_end9-mbedtls_camellia_self_test
	.cfi_endproc
	.cantunwind
	.fnend
                                        @ -- End function
	.type	SIGMA_CHARS,%object             @ @SIGMA_CHARS
	.section	.rodata.SIGMA_CHARS,"a",%progbits
SIGMA_CHARS:
	.ascii	"\240\236f\177;\314\220\213"
	.ascii	"\266z\350XL\252s\262"
	.ascii	"\306\3577/\351O\202\276"
	.ascii	"T\377S\245\361\323o\034"
	.ascii	"\020\345'\372\336h-\035"
	.ascii	"\260V\210\302\263\346\301\375"
	.size	SIGMA_CHARS, 48

	.type	shifts,%object                  @ @shifts
	.section	.rodata.cst32,"aM",%progbits,32
shifts:
	.zero	4,1
	.zero	4
	.zero	4,1
	.zero	4
	.ascii	"\001\000\001\001"
	.ascii	"\001\001\000\001"
	.asciz	"\001\001\001"
	.ascii	"\001\001\000\001"
	.size	shifts, 32

	.type	indexes,%object                 @ @indexes
	.section	.rodata.indexes,"a",%progbits
indexes:
	.ascii	"\000\001\002\003\b\t\n\013&'$%\027\024\025\026\033\377\377\032"
	.zero	20,255
	.ascii	"\004\005\006\007\f\r\016\017\020\021\022\023\377\030\031\377\037\034\035\036"
	.zero	20,255
	.ascii	"\000\001\002\003=>?<\377\377\377\377\033\030\031\032# !\""
	.ascii	"\377\377\377\377\b\t\n\013\020\021\022\023\377\377\377\377'$%&"
	.ascii	"\377\377\377\377\f\r\016\017:;89\037\034\035\036\377\377\377\377"
	.ascii	"\004\005\006\007ABC@\024\025\026\027\377\377\377\377+()*"
	.size	indexes, 160

	.type	.L.str.1,%object                @ @.str.1
	.section	.rodata.str1.1,"aMS",%progbits,1
.L.str.1:
	.asciz	"dec"
	.size	.L.str.1, 4

	.type	.L.str.2,%object                @ @.str.2
.L.str.2:
	.asciz	"enc"
	.size	.L.str.2, 4

	.type	camellia_test_ecb_cipher,%object @ @camellia_test_ecb_cipher
	.section	.rodata.camellia_test_ecb_cipher,"a",%progbits
camellia_test_ecb_cipher:
	.ascii	"gg18T\226is\bW\006VH\352\276C"
	.ascii	"8<l*\253\357\177\336%\315G\013\367t\2431"
	.ascii	"\264\2314\001\263\351\226\370N\345\316\347\327\233\t\271"
	.ascii	"\321v?\300\031\327|\3110\277\362\245o|\223d"
	.ascii	"\232\314#}\377\026\327l \357|\221\236:u\t"
	.ascii	"\005\003\373\020\253$\036|\364]\214\336\356GC5"
	.size	camellia_test_ecb_cipher, 96

	.type	camellia_test_cbc_iv,%object    @ @camellia_test_cbc_iv
	.section	.rodata.cst16,"aM",%progbits,16
	.p2align	2
camellia_test_cbc_iv:
	.ascii	"\000\001\002\003\004\005\006\007\b\t\n\013\f\r\016\017"
	.size	camellia_test_cbc_iv, 16

	.type	camellia_test_cbc_cipher,%object @ @camellia_test_cbc_cipher
	.section	.rodata.camellia_test_cbc_cipher,"a",%progbits
camellia_test_cbc_cipher:
	.ascii	"\026\007\317IK6\273\360\r\256\260\265\003\3101\253"
	.ascii	"\242\362\317g\026)\357x@\305\245\337\265\007H\207"
	.ascii	"\017\006\026P\b\317\213\213ZcXcbT>T"
	.ascii	"*H0\253Z\304\241\242@YU\375!\225\317\223"
	.ascii	"]Z\206\233\321L\345Bd\370\222\246\335.\303\325"
	.ascii	"7\323Y\3034\2306\330\204\343\020\255\337h\304I"
	.ascii	"\346\317\243_\300+\023JM,\013g7\254>\332"
	.ascii	"6\313\353s\275PK@p\261\267\336+!\353P"
	.ascii	"\343\032`U)}\226\31230\315\361\261\206\n\203"
	.size	camellia_test_cbc_cipher, 144

	.type	camellia_test_cbc_plain,%object @ @camellia_test_cbc_plain
	.section	.rodata.camellia_test_cbc_plain,"a",%progbits
camellia_test_cbc_plain:
	.ascii	"k\301\276\342.@\237\226\351=~\021s\223\027*"
	.ascii	"\256-\212W\036\003\254\234\236\267o\254E\257\216Q"
	.ascii	"0\310\034F\243\\\344\021\345\373\301\031\032\nR\357"
	.size	camellia_test_cbc_plain, 48

	.type	camellia_test_ctr_nonce_counter,%object @ @camellia_test_ctr_nonce_counter
	.section	.rodata.camellia_test_ctr_nonce_counter,"a",%progbits
camellia_test_ctr_nonce_counter:
	.ascii	"\000\000\0000\000\000\000\000\000\000\000\000\000\000\000\001"
	.ascii	"\000l\266\333\300T;Y\332H\331\013\000\000\000\001"
	.ascii	"\000\340\001{'w\177?J\027\206\360\000\000\000\001"
	.size	camellia_test_ctr_nonce_counter, 48

	.type	camellia_test_ctr_key,%object   @ @camellia_test_ctr_key
	.section	.rodata.camellia_test_ctr_key,"a",%progbits
camellia_test_ctr_key:
	.ascii	"\256hR\370\022\020g\314K\367\245vUw\363\236"
	.ascii	"~$\006x\027\372\340\327C\326\316\0372S\221c"
	.ascii	"v\221\276\003^P \250\254na\205)\371\240\334"
	.size	camellia_test_ctr_key, 48

	.type	FSb,%object                     @ @FSb
	.section	.rodata.FSb,"a",%progbits
FSb:
	.ascii	"p\202,\354\263'\300\345\344\205W5\352\f\256A#\357k\223E\031\245!\355\016ON\035e\222\275\206\270\257\217|\353\037\316>0\334_^\305\013\032\246\3419\312\325G]=\331\001Z\326QVlM\213\r\232f\373\314\260-t\022+ \360\261\204\231\337L\313\3024~v\005m\267\2511\321\027\004\327\024X:a\336\033\021\0342\017\234\026S\030\362\"\376D\317\262\303\265z\221$\b\350\250`\374iP\252\320\240}\241\211b\227T[\036\225\340\377d\322\020\304\000H\243\367u\333\212\003\346\332\t?\335\224\207\\\203\002\315J\2203sg\366\363\235\177\277\342R\233\330&\3107\306;\201\226oK\023\276c.\351y\247\214\237n\274\216)\365\371\266/\375\264Yx\230\006j\347Fq\272\324%\253B\210\242\215\372r\007\271U\370\356\254\n6I*h<8\361\244@(\323{\273\311C\301\025\343\255\364w\307\200\236"
	.size	FSb, 256

	.type	FSb2,%object                    @ @FSb2
	.section	.rodata.FSb2,"a",%progbits
FSb2:
	.ascii	"\340\005X\331gN\201\313\311\013\256j\325\030]\202F\337\326'\2122KB\333\034\236\234:\312%{\rq_\037\370\327>\235|`\271\276\274\213\0264M\303r\225\253\216\272z\263\002\264\255\242\254\330\232\027\0325\314\367\231aZ\350$V@\341c\t3\277\230\227\205h\374\354\n\332oSb\243.\b\257(\260t\302\2756\"8d\0369,\2460\345D\375\210\237e\207k\364#H\020\321Q\300\371\322\240U\241A\372C\023\304/\250\266<+\301\377\310\245 \211\000\220G\357\352\267\025\006\315\265\022~\273)\017\270\007\004\233\224!f\346\316\355\347;\376\177\305\2447\261L\221n\215v\003-\336\226&}\306\\\323\362O\031?\334y\035R\353\363m^\373i\262\3601\f\324\317\214\342u\251JW\204\021E\033\365\344\016s\252\361\335Y\024l\222T\320xp\343I\200P\247\366w\223\206\203*\307[\351\356\217\001="
	.size	FSb2, 256

	.type	FSb3,%object                    @ @FSb3
	.section	.rodata.FSb3,"a",%progbits
FSb3:
	.ascii	"8A\026v\331\223`\362r\302\253\232u\006W\240\221\367\265\311\242\214\322\220\366\007\247'\216\262I\336C\\\327\307>\365\217g\037\030n\257/\342\205\rS\360\234e\352\243\256\236\354\200-k\250+6\246\305\206M3\375fX\226:\t\225\020x\330B\314\357&\345a\032?;\202\266\333\324\230\350\213\002\353\n,\035\260o\215\210\016\031\207N\013\251\fy\021\177\"\347Y\341\332=\310\022\004tT0~\264(UhP\276\320\3041\313*\255\017\312p\3772i\bb\000$\321\373\272\355E\201sm\204\237\356J\303.\301\001\346%H\231\271\263{\371\316\277\337q)\315l\023d\233c\235\300K\267\245\211_\261\027\364\274\323F\3177^G\224\372\374[\227\376Z\254<L\0035\363#\270]j\222\325!DQ\306}9\203\334\252|wV\005\033\244\0254\036\034\370R \024\351\275\335\344\241\340\212\361\326z\273\343@O"
	.size	FSb3, 256

	.type	FSb4,%object                    @ @FSb4
	.section	.rodata.FSb4,"a",%progbits
FSb4:
	.ascii	"p,\263\300\344W\352\256#kE\245\355O\035\222\206\257|\037>\334^\013\2469\325]\331ZQl\213\232\373\260t+\360\204\337\3134vm\251\321\004\024:\336\0212\234S\362\376\317\303z$\350`i\252\240\241bT\036\340d\020\000\243u\212\346\t\335\207\203\315\220s\366\235\277R\330\310\306\201o\023c\351\247\237\274)\371/\264x\006\347q\324\253\210\215r\271\370\2546*<\361@\323\273C\025\255w\200\202\354'\345\2055\fA\357\223\031!\016Ne\275\270\217\353\3160_\305\032\341\312G=\001\326VM\rf\314-\022 \261\231L\302~\005\2671\027\327Xa\033\034\017\026\030\"D\262\265\221\b\250\374P\320}\211\227[\225\377\322\304H\367\333\003\332?\224\\\002J3g\363\177\342\233&7;\226K\276.y\214n\216\365\266\375Y\230jF\272%B\242\372\007U\356\nIh8\244({\311\301\343\364\307\236"
	.size	FSb4, 256

	.type	camellia_test_ecb_key,%object   @ @camellia_test_ecb_key
	.section	.rodata.camellia_test_ecb_key,"a",%progbits
camellia_test_ecb_key:
	.ascii	"\001#Eg\211\253\315\357\376\334\272\230vT2\020"
	.zero	16
	.zero	32
	.ascii	"\001#Eg\211\253\315\357\376\334\272\230vT2\020\000\021\"3DUfw"
	.zero	8
	.zero	32
	.ascii	"\001#Eg\211\253\315\357\376\334\272\230vT2\020\000\021\"3DUfw\210\231\252\273\314\335\356\377"
	.zero	32
	.size	camellia_test_ecb_key, 192

	.type	camellia_test_ecb_plain,%object @ @camellia_test_ecb_plain
	.section	.rodata.cst32,"aM",%progbits,32
camellia_test_ecb_plain:
	.ascii	"\001#Eg\211\253\315\357\376\334\272\230vT2\020"
	.byte	0                               @ 0x0
	.byte	0                               @ 0x0
	.byte	0                               @ 0x0
	.byte	0                               @ 0x0
	.byte	2                               @ 0x2
	.zero	11
	.size	camellia_test_ecb_plain, 32

	.type	camellia_test_cbc_key,%object   @ @camellia_test_cbc_key
	.section	.rodata.camellia_test_cbc_key,"a",%progbits
camellia_test_cbc_key:
	.ascii	"+~\025\026(\256\322\246\253\367\025\210\t\317O<"
	.zero	16
	.ascii	"\216s\260\367\332\016dR\310\020\363+\200\220y\345b\370\352\322R,k{"
	.zero	8
	.ascii	"`=\353\020\025\312q\276+s\256\360\205}w\201\0375,\007;a\b\327-\230\020\243\t\024\337\364"
	.size	camellia_test_cbc_key, 96

	.type	camellia_test_ctr_ct,%object    @ @camellia_test_ctr_ct
	.section	.rodata.camellia_test_ctr_ct,"a",%progbits
camellia_test_ctr_ct:
	.ascii	"\320\235\302\232\202\024a\232 \207|v\333\037\013?"
	.zero	32
	.ascii	"\333\363\307\215\300\203\226\324\332|\220we\273\313D+\216\216\0171\360\334\247,t\027\343S`\340H"
	.zero	16
	.ascii	"\261\235\037\315\313u\353\210/\204\234\342M\205\317s\234\346K+\\\235s\361O-]\235\316\230\211\315\337P\206\226"
	.zero	12
	.size	camellia_test_ctr_ct, 144

	.type	camellia_test_ctr_pt,%object    @ @camellia_test_ctr_pt
	.section	.rodata.camellia_test_ctr_pt,"a",%progbits
camellia_test_ctr_pt:
	.ascii	"Single block msg"
	.zero	32
	.ascii	"\000\001\002\003\004\005\006\007\b\t\n\013\f\r\016\017\020\021\022\023\024\025\026\027\030\031\032\033\034\035\036\037"
	.zero	16
	.ascii	"\000\001\002\003\004\005\006\007\b\t\n\013\f\r\016\017\020\021\022\023\024\025\026\027\030\031\032\033\034\035\036\037 !\"#"
	.zero	12
	.size	camellia_test_ctr_pt, 144

	.globl	_printf_percent
	.globl	_printf_widthprec
	.globl	_printf_pre_padding
	.globl	_printf_s
	.globl	_printf_d
	.globl	_printf_int_dec
	.globl	_printf_str
	.hidden	_printf_percent
	.hidden	_printf_widthprec
	.hidden	_printf_pre_padding
	.hidden	_printf_s
	.hidden	_printf_d
	.hidden	_printf_int_dec
	.hidden	_printf_str
	.file	3 "C:\\Users\\shw26\\OneDrive\\Desktop\\2021\\2021-1\\\354\272\241\354\212\244\355\206\244\353\224\224\354\236\220\354\235\2702\\Nuvoton\\M2351_BSP_v3.00.004\\M2351Series_BSP_CMSIS_V3.00.004\\MyProject\\PulseMonitoring\\Secure" "../../../ThirdParty/mbedTLS/include/mbedtls\\camellia.h"
	.file	4 "C:\\" "Keil_v5\\ARM\\ARMCLANG\\Bin\\..\\include\\stddef.h"
	.section	".note.GNU-stack","",%progbits
	.eabi_attribute	30, 1	@ Tag_ABI_optimization_goals
	.ARM_attribute	16, 1	@ Tag_AV_eba