	.text
	.syntax unified
	.eabi_attribute	67, "2.09"	@ Tag_conformance
	.cpu	cortex-m23
	.eabi_attribute	6, 16	@ Tag_CPU_arch
	.eabi_attribute	7, 77	@ Tag_CPU_arch_profile
	.eabi_attribute	8, 0	@ Tag_ARM_ISA_use
	.eabi_attribute	9, 3	@ Tag_THUMB_ISA_use
	.eabi_attribute	34, 0	@ Tag_CPU_unaligned_access
	.eabi_attribute	17, 1	@ Tag_ABI_PCS_GOT_use
	.eabi_attribute	20, 2	@ Tag_ABI_FP_denormal
	.eabi_attribute	21, 0	@ Tag_ABI_FP_exceptions
	.eabi_attribute	23, 1	@ Tag_ABI_FP_number_model
	.eabi_attribute	24, 1	@ Tag_ABI_align_needed
	.eabi_attribute	25, 1	@ Tag_ABI_align_preserved
	.eabi_attribute	38, 1	@ Tag_ABI_FP_16bit_format
	.eabi_attribute	18, 2	@ Tag_ABI_PCS_wchar_t
	.eabi_attribute	26, 1	@ Tag_ABI_enum_size
	.eabi_attribute	14, 0	@ Tag_ABI_PCS_R9_use
	.file	"ccm.c"
	.file	1 "C:\\Users\\shw26\\OneDrive\\Desktop\\2021\\2021-1\\\354\272\241\354\212\244\355\206\244\353\224\224\354\236\220\354\235\2702\\Nuvoton\\M2351_BSP_v3.00.004\\M2351Series_BSP_CMSIS_V3.00.004\\MyProject\\PulseMonitoring\\Secure" "../../../ThirdParty/mbedTLS/library/ccm.c"
	.file	2 "C:\\" "Keil_v5\\ARM\\ARMCLANG\\Bin\\..\\include\\stddef.h"
	.file	3 "C:\\Users\\shw26\\OneDrive\\Desktop\\2021\\2021-1\\\354\272\241\354\212\244\355\206\244\353\224\224\354\236\220\354\235\2702\\Nuvoton\\M2351_BSP_v3.00.004\\M2351Series_BSP_CMSIS_V3.00.004\\MyProject\\PulseMonitoring\\Secure" "../../../ThirdParty/mbedTLS/include/mbedtls/cipher.h"
	.section	.text.mbedtls_ccm_init,"ax",%progbits
	.hidden	mbedtls_ccm_init                @ -- Begin function mbedtls_ccm_init
	.globl	mbedtls_ccm_init
	.p2align	1
	.type	mbedtls_ccm_init,%function
	.code	16                              @ @mbedtls_ccm_init
	.thumb_func
mbedtls_ccm_init:
.Lfunc_begin0:
	.loc	1 67 0                          @ ../../../ThirdParty/mbedTLS/library/ccm.c:67:0
	.fnstart
	.cfi_sections .debug_frame
	.cfi_startproc
@ %bb.0:
	@DEBUG_VALUE: mbedtls_ccm_init:ctx <- $r0
	@DEBUG_VALUE: mbedtls_ccm_init:ctx <- $r0
	.save	{r7, lr}
	push	{r7, lr}
	.cfi_def_cfa_offset 8
	.cfi_offset lr, -4
	.cfi_offset r7, -8
	movs	r1, #64
	@DEBUG_VALUE: mbedtls_ccm_init:ctx <- $r0
.Ltmp0:
	.loc	1 69 5 prologue_end             @ ../../../ThirdParty/mbedTLS/library/ccm.c:69:5
	bl	__aeabi_memclr4
.Ltmp1:
	@DEBUG_VALUE: mbedtls_ccm_init:ctx <- [DW_OP_LLVM_entry_value 1] $r0
	.loc	1 70 1                          @ ../../../ThirdParty/mbedTLS/library/ccm.c:70:1
	pop	{r7, pc}
.Ltmp2:
.Lfunc_end0:
	.size	mbedtls_ccm_init, .Lfunc_end0-mbedtls_ccm_init
	.cfi_endproc
	.cantunwind
	.fnend
                                        @ -- End function
	.section	.text.mbedtls_ccm_setkey,"ax",%progbits
	.hidden	mbedtls_ccm_setkey              @ -- Begin function mbedtls_ccm_setkey
	.globl	mbedtls_ccm_setkey
	.p2align	1
	.type	mbedtls_ccm_setkey,%function
	.code	16                              @ @mbedtls_ccm_setkey
	.thumb_func
mbedtls_ccm_setkey:
.Lfunc_begin1:
	.loc	1 76 0                          @ ../../../ThirdParty/mbedTLS/library/ccm.c:76:0
	.fnstart
	.cfi_startproc
@ %bb.0:
	@DEBUG_VALUE: mbedtls_ccm_setkey:ctx <- $r0
	@DEBUG_VALUE: mbedtls_ccm_setkey:cipher <- $r1
	@DEBUG_VALUE: mbedtls_ccm_setkey:key <- $r2
	@DEBUG_VALUE: mbedtls_ccm_setkey:keybits <- $r3
	.save	{r4, r5, r6, r7, lr}
	push	{r4, r5, r6, r7, lr}
	.cfi_def_cfa_offset 20
	.cfi_offset lr, -4
	.cfi_offset r7, -8
	.cfi_offset r6, -12
	.cfi_offset r5, -16
	.cfi_offset r4, -20
	.pad	#4
	sub	sp, #4
	.cfi_def_cfa_offset 24
	mov	r4, r3
	mov	r5, r2
	mov	r6, r0
.Ltmp3:
	@DEBUG_VALUE: mbedtls_ccm_setkey:keybits <- $r4
	@DEBUG_VALUE: mbedtls_ccm_setkey:key <- $r5
	@DEBUG_VALUE: mbedtls_ccm_setkey:cipher <- $r1
	@DEBUG_VALUE: mbedtls_ccm_setkey:ctx <- $r6
	movs	r2, #1
.Ltmp4:
	.loc	1 83 19 prologue_end            @ ../../../ThirdParty/mbedTLS/library/ccm.c:83:19
	mov	r0, r1
.Ltmp5:
	@DEBUG_VALUE: mbedtls_ccm_setkey:cipher <- $r0
	mov	r1, r3
	bl	mbedtls_cipher_info_from_values
.Ltmp6:
	mov	r7, r0
.Ltmp7:
	@DEBUG_VALUE: mbedtls_ccm_setkey:cipher_info <- $r7
	.loc	1 0 19 is_stmt 0                @ ../../../ThirdParty/mbedTLS/library/ccm.c:0:19
	movs	r0, #12
	mvns	r0, r0
	.loc	1 84 9 is_stmt 1                @ ../../../ThirdParty/mbedTLS/library/ccm.c:84:9
	cbz	r7, .LBB1_3
.Ltmp8:
@ %bb.1:
	@DEBUG_VALUE: mbedtls_ccm_setkey:cipher_info <- $r7
	@DEBUG_VALUE: mbedtls_ccm_setkey:ctx <- $r6
	@DEBUG_VALUE: mbedtls_ccm_setkey:key <- $r5
	@DEBUG_VALUE: mbedtls_ccm_setkey:keybits <- $r4
	.loc	1 87 22                         @ ../../../ThirdParty/mbedTLS/library/ccm.c:87:22
	ldr	r1, [r7, #20]
.Ltmp9:
	.loc	1 87 9 is_stmt 0                @ ../../../ThirdParty/mbedTLS/library/ccm.c:87:9
	cmp	r1, #16
	bne	.LBB1_3
.Ltmp10:
@ %bb.2:
	@DEBUG_VALUE: mbedtls_ccm_setkey:cipher_info <- $r7
	@DEBUG_VALUE: mbedtls_ccm_setkey:ctx <- $r6
	@DEBUG_VALUE: mbedtls_ccm_setkey:key <- $r5
	@DEBUG_VALUE: mbedtls_ccm_setkey:keybits <- $r4
	.loc	1 90 5 is_stmt 1                @ ../../../ThirdParty/mbedTLS/library/ccm.c:90:5
	mov	r0, r6
	bl	mbedtls_cipher_free
.Ltmp11:
	.loc	1 92 17                         @ ../../../ThirdParty/mbedTLS/library/ccm.c:92:17
	mov	r0, r6
	mov	r1, r7
	bl	mbedtls_cipher_setup
.Ltmp12:
	@DEBUG_VALUE: mbedtls_ccm_setkey:ret <- $r0
	.loc	1 92 9 is_stmt 0                @ ../../../ThirdParty/mbedTLS/library/ccm.c:92:9
	cbz	r0, .LBB1_4
.Ltmp13:
.LBB1_3:
	@DEBUG_VALUE: mbedtls_ccm_setkey:cipher_info <- $r7
	@DEBUG_VALUE: mbedtls_ccm_setkey:ctx <- $r6
	@DEBUG_VALUE: mbedtls_ccm_setkey:key <- $r5
	@DEBUG_VALUE: mbedtls_ccm_setkey:keybits <- $r4
	.loc	1 0 0                           @ ../../../ThirdParty/mbedTLS/library/ccm.c:0:0
	add	sp, #4
	pop	{r4, r5, r6, r7, pc}
.Ltmp14:
.LBB1_4:
	@DEBUG_VALUE: mbedtls_ccm_setkey:cipher_info <- $r7
	@DEBUG_VALUE: mbedtls_ccm_setkey:ctx <- $r6
	@DEBUG_VALUE: mbedtls_ccm_setkey:key <- $r5
	@DEBUG_VALUE: mbedtls_ccm_setkey:keybits <- $r4
	@DEBUG_VALUE: mbedtls_ccm_setkey:ret <- $r0
	movs	r3, #1
.Ltmp15:
	.loc	1 95 17 is_stmt 1               @ ../../../ThirdParty/mbedTLS/library/ccm.c:95:17
	mov	r0, r6
.Ltmp16:
	mov	r1, r5
	mov	r2, r4
	bl	mbedtls_cipher_setkey
.Ltmp17:
	@DEBUG_VALUE: mbedtls_ccm_setkey:ret <- $r0
	.loc	1 0 0 is_stmt 0                 @ ../../../ThirdParty/mbedTLS/library/ccm.c:0:0
	add	sp, #4
	pop	{r4, r5, r6, r7, pc}
.Ltmp18:
.Lfunc_end1:
	.size	mbedtls_ccm_setkey, .Lfunc_end1-mbedtls_ccm_setkey
	.cfi_endproc
	.cantunwind
	.fnend
                                        @ -- End function
	.section	.text.mbedtls_ccm_free,"ax",%progbits
	.hidden	mbedtls_ccm_free                @ -- Begin function mbedtls_ccm_free
	.globl	mbedtls_ccm_free
	.p2align	1
	.type	mbedtls_ccm_free,%function
	.code	16                              @ @mbedtls_ccm_free
	.thumb_func
mbedtls_ccm_free:
.Lfunc_begin2:
	.loc	1 108 0 is_stmt 1               @ ../../../ThirdParty/mbedTLS/library/ccm.c:108:0
	.fnstart
	.cfi_startproc
@ %bb.0:
	@DEBUG_VALUE: mbedtls_ccm_free:ctx <- $r0
	@DEBUG_VALUE: mbedtls_ccm_free:ctx <- $r0
	.save	{r4, lr}
	push	{r4, lr}
	.cfi_def_cfa_offset 8
	.cfi_offset lr, -4
	.cfi_offset r4, -8
.Ltmp19:
	.loc	1 109 9 prologue_end            @ ../../../ThirdParty/mbedTLS/library/ccm.c:109:9
	cbz	r0, .LBB2_2
.Ltmp20:
@ %bb.1:
	@DEBUG_VALUE: mbedtls_ccm_free:ctx <- $r0
	.loc	1 0 9 is_stmt 0                 @ ../../../ThirdParty/mbedTLS/library/ccm.c:0:9
	mov	r4, r0
.Ltmp21:
	@DEBUG_VALUE: mbedtls_ccm_free:ctx <- $r4
	.loc	1 111 5 is_stmt 1               @ ../../../ThirdParty/mbedTLS/library/ccm.c:111:5
	bl	mbedtls_cipher_free
	movs	r1, #64
	.loc	1 112 5                         @ ../../../ThirdParty/mbedTLS/library/ccm.c:112:5
	mov	r0, r4
	bl	mbedtls_platform_zeroize
.Ltmp22:
.LBB2_2:
	.loc	1 113 1                         @ ../../../ThirdParty/mbedTLS/library/ccm.c:113:1
	pop	{r4, pc}
.Ltmp23:
.Lfunc_end2:
	.size	mbedtls_ccm_free, .Lfunc_end2-mbedtls_ccm_free
	.cfi_endproc
	.cantunwind
	.fnend
                                        @ -- End function
	.section	.text.mbedtls_ccm_star_encrypt_and_tag,"ax",%progbits
	.hidden	mbedtls_ccm_star_encrypt_and_tag @ -- Begin function mbedtls_ccm_star_encrypt_and_tag
	.globl	mbedtls_ccm_star_encrypt_and_tag
	.p2align	1
	.type	mbedtls_ccm_star_encrypt_and_tag,%function
	.code	16                              @ @mbedtls_ccm_star_encrypt_and_tag
	.thumb_func
mbedtls_ccm_star_encrypt_and_tag:
.Lfunc_begin3:
	.loc	1 323 0                         @ ../../../ThirdParty/mbedTLS/library/ccm.c:323:0
	.fnstart
	.cfi_startproc
@ %bb.0:
	@DEBUG_VALUE: mbedtls_ccm_star_encrypt_and_tag:ctx <- $r0
	@DEBUG_VALUE: mbedtls_ccm_star_encrypt_and_tag:length <- $r1
	@DEBUG_VALUE: mbedtls_ccm_star_encrypt_and_tag:iv <- $r2
	@DEBUG_VALUE: mbedtls_ccm_star_encrypt_and_tag:iv_len <- $r3
	.save	{r4, lr}
	push	{r4, lr}
	.cfi_def_cfa_offset 8
	.cfi_offset lr, -4
	.cfi_offset r4, -8
	.pad	#32
	sub	sp, #32
	.cfi_def_cfa_offset 40
	mov	r4, r2
	mov	r2, r1
.Ltmp24:
	@DEBUG_VALUE: mbedtls_ccm_star_encrypt_and_tag:iv <- [DW_OP_LLVM_entry_value 1] $r2
	@DEBUG_VALUE: mbedtls_ccm_star_encrypt_and_tag:tag_len <- [DW_OP_plus_uconst 60] [$sp+0]
	@DEBUG_VALUE: mbedtls_ccm_star_encrypt_and_tag:tag <- [DW_OP_plus_uconst 56] [$sp+0]
	@DEBUG_VALUE: mbedtls_ccm_star_encrypt_and_tag:output <- [DW_OP_plus_uconst 52] [$sp+0]
	@DEBUG_VALUE: mbedtls_ccm_star_encrypt_and_tag:input <- [DW_OP_plus_uconst 48] [$sp+0]
	@DEBUG_VALUE: mbedtls_ccm_star_encrypt_and_tag:add_len <- [DW_OP_plus_uconst 44] [$sp+0]
	@DEBUG_VALUE: mbedtls_ccm_star_encrypt_and_tag:add <- [DW_OP_plus_uconst 40] [$sp+0]
	@DEBUG_VALUE: mbedtls_ccm_star_encrypt_and_tag:iv_len <- $r3
	@DEBUG_VALUE: mbedtls_ccm_star_encrypt_and_tag:iv <- $r4
	@DEBUG_VALUE: mbedtls_ccm_star_encrypt_and_tag:length <- $r2
	@DEBUG_VALUE: mbedtls_ccm_star_encrypt_and_tag:ctx <- $r0
	ldr	r1, [sp, #60]
.Ltmp25:
	.loc	1 330 13 prologue_end           @ ../../../ThirdParty/mbedTLS/library/ccm.c:330:13
	str	r1, [sp, #24]
	ldr	r1, [sp, #56]
	str	r1, [sp, #20]
	ldr	r1, [sp, #52]
	str	r1, [sp, #16]
	ldr	r1, [sp, #48]
	str	r1, [sp, #12]
	ldr	r1, [sp, #44]
	str	r1, [sp, #8]
	ldr	r1, [sp, #40]
	str	r1, [sp, #4]
	str	r3, [sp]
	movs	r1, #0
	@DEBUG_VALUE: mbedtls_ccm_star_encrypt_and_tag:length <- $r2
	@DEBUG_VALUE: mbedtls_ccm_star_encrypt_and_tag:ctx <- $r0
	mov	r3, r4
.Ltmp26:
	@DEBUG_VALUE: mbedtls_ccm_star_encrypt_and_tag:iv_len <- [DW_OP_LLVM_entry_value 1] $r3
	@DEBUG_VALUE: mbedtls_ccm_star_encrypt_and_tag:iv <- $r3
	bl	ccm_auth_crypt
.Ltmp27:
	@DEBUG_VALUE: mbedtls_ccm_star_encrypt_and_tag:ctx <- [DW_OP_LLVM_entry_value 1] $r0
	.loc	1 330 5 is_stmt 0               @ ../../../ThirdParty/mbedTLS/library/ccm.c:330:5
	add	sp, #32
.Ltmp28:
	pop	{r4, pc}
.Ltmp29:
.Lfunc_end3:
	.size	mbedtls_ccm_star_encrypt_and_tag, .Lfunc_end3-mbedtls_ccm_star_encrypt_and_tag
	.cfi_endproc
	.cantunwind
	.fnend
                                        @ -- End function
	.section	.text.ccm_auth_crypt,"ax",%progbits
	.p2align	1                               @ -- Begin function ccm_auth_crypt
	.type	ccm_auth_crypt,%function
	.code	16                              @ @ccm_auth_crypt
	.thumb_func
ccm_auth_crypt:
.Lfunc_begin4:
	.loc	1 151 0 is_stmt 1               @ ../../../ThirdParty/mbedTLS/library/ccm.c:151:0
	.fnstart
	.cfi_startproc
@ %bb.0:
	@DEBUG_VALUE: ccm_auth_crypt:ctx <- $r0
	@DEBUG_VALUE: ccm_auth_crypt:mode <- $r1
	@DEBUG_VALUE: ccm_auth_crypt:length <- $r2
	@DEBUG_VALUE: ccm_auth_crypt:iv <- $r3
	.save	{r4, r5, r6, r7, lr}
	push	{r4, r5, r6, r7, lr}
	.cfi_def_cfa_offset 20
	.cfi_offset lr, -4
	.cfi_offset r7, -8
	.cfi_offset r6, -12
	.cfi_offset r5, -16
	.cfi_offset r4, -20
	.pad	#116
	sub	sp, #116
	.cfi_def_cfa_offset 136
	str	r1, [sp, #56]                   @ 4-byte Spill
	movs	r1, #12
.Ltmp30:
	@DEBUG_VALUE: ccm_auth_crypt:mode <- [DW_OP_LLVM_entry_value 1] $r1
	mvns	r4, r1
	ldr	r6, [sp, #144]
	movw	r1, #65280
.Ltmp31:
	@DEBUG_VALUE: ccm_auth_crypt:tag_len <- [DW_OP_plus_uconst 160] [$sp+0]
	@DEBUG_VALUE: ccm_auth_crypt:tag <- [DW_OP_plus_uconst 156] [$sp+0]
	@DEBUG_VALUE: ccm_auth_crypt:output <- [DW_OP_plus_uconst 152] [$sp+0]
	@DEBUG_VALUE: ccm_auth_crypt:input <- [DW_OP_plus_uconst 148] [$sp+0]
	@DEBUG_VALUE: ccm_auth_crypt:add_len <- [DW_OP_plus_uconst 144] [$sp+0]
	@DEBUG_VALUE: ccm_auth_crypt:add <- [DW_OP_plus_uconst 140] [$sp+0]
	@DEBUG_VALUE: ccm_auth_crypt:iv_len <- [DW_OP_plus_uconst 136] [$sp+0]
	@DEBUG_VALUE: ccm_auth_crypt:iv <- $r3
	@DEBUG_VALUE: ccm_auth_crypt:length <- $r2
	@DEBUG_VALUE: ccm_auth_crypt:mode <- [DW_OP_plus_uconst 56] [$sp+0]
	@DEBUG_VALUE: ccm_auth_crypt:ctx <- $r0
	.loc	1 169 22 prologue_end           @ ../../../ThirdParty/mbedTLS/library/ccm.c:169:22
	cmp	r6, r1
	bhi	.LBB4_12
.Ltmp32:
@ %bb.1:
	@DEBUG_VALUE: ccm_auth_crypt:iv <- $r3
	@DEBUG_VALUE: ccm_auth_crypt:length <- $r2
	@DEBUG_VALUE: ccm_auth_crypt:ctx <- $r0
	@DEBUG_VALUE: ccm_auth_crypt:mode <- [DW_OP_plus_uconst 56] [$sp+0]
	@DEBUG_VALUE: ccm_auth_crypt:iv_len <- [DW_OP_plus_uconst 136] [$sp+0]
	@DEBUG_VALUE: ccm_auth_crypt:add <- [DW_OP_plus_uconst 140] [$sp+0]
	@DEBUG_VALUE: ccm_auth_crypt:add_len <- [DW_OP_plus_uconst 144] [$sp+0]
	@DEBUG_VALUE: ccm_auth_crypt:input <- [DW_OP_plus_uconst 148] [$sp+0]
	@DEBUG_VALUE: ccm_auth_crypt:output <- [DW_OP_plus_uconst 152] [$sp+0]
	@DEBUG_VALUE: ccm_auth_crypt:tag <- [DW_OP_plus_uconst 156] [$sp+0]
	@DEBUG_VALUE: ccm_auth_crypt:tag_len <- [DW_OP_plus_uconst 160] [$sp+0]
	.loc	1 0 22 is_stmt 0                @ ../../../ThirdParty/mbedTLS/library/ccm.c:0:22
	str	r2, [sp, #60]                   @ 4-byte Spill
.Ltmp33:
	@DEBUG_VALUE: ccm_auth_crypt:length <- [DW_OP_plus_uconst 60] [$sp+0]
	ldr	r5, [sp, #136]
	subs	r1, r5, #7
	.loc	1 169 22                        @ ../../../ThirdParty/mbedTLS/library/ccm.c:169:22
	cmp	r1, #6
	bhi	.LBB4_12
.Ltmp34:
@ %bb.2:
	@DEBUG_VALUE: ccm_auth_crypt:length <- [DW_OP_plus_uconst 60] [$sp+0]
	@DEBUG_VALUE: ccm_auth_crypt:iv <- $r3
	@DEBUG_VALUE: ccm_auth_crypt:ctx <- $r0
	@DEBUG_VALUE: ccm_auth_crypt:mode <- [DW_OP_plus_uconst 56] [$sp+0]
	@DEBUG_VALUE: ccm_auth_crypt:iv_len <- [DW_OP_plus_uconst 136] [$sp+0]
	@DEBUG_VALUE: ccm_auth_crypt:add <- [DW_OP_plus_uconst 140] [$sp+0]
	@DEBUG_VALUE: ccm_auth_crypt:add_len <- [DW_OP_plus_uconst 144] [$sp+0]
	@DEBUG_VALUE: ccm_auth_crypt:input <- [DW_OP_plus_uconst 148] [$sp+0]
	@DEBUG_VALUE: ccm_auth_crypt:output <- [DW_OP_plus_uconst 152] [$sp+0]
	@DEBUG_VALUE: ccm_auth_crypt:tag <- [DW_OP_plus_uconst 156] [$sp+0]
	@DEBUG_VALUE: ccm_auth_crypt:tag_len <- [DW_OP_plus_uconst 160] [$sp+0]
	.loc	1 0 22                          @ ../../../ThirdParty/mbedTLS/library/ccm.c:0:22
	ldr	r2, [sp, #160]
	.loc	1 169 22                        @ ../../../ThirdParty/mbedTLS/library/ccm.c:169:22
	cmp	r2, #2
	beq	.LBB4_12
.Ltmp35:
@ %bb.3:
	@DEBUG_VALUE: ccm_auth_crypt:length <- [DW_OP_plus_uconst 60] [$sp+0]
	@DEBUG_VALUE: ccm_auth_crypt:iv <- $r3
	@DEBUG_VALUE: ccm_auth_crypt:ctx <- $r0
	@DEBUG_VALUE: ccm_auth_crypt:mode <- [DW_OP_plus_uconst 56] [$sp+0]
	@DEBUG_VALUE: ccm_auth_crypt:iv_len <- [DW_OP_plus_uconst 136] [$sp+0]
	@DEBUG_VALUE: ccm_auth_crypt:add <- [DW_OP_plus_uconst 140] [$sp+0]
	@DEBUG_VALUE: ccm_auth_crypt:add_len <- [DW_OP_plus_uconst 144] [$sp+0]
	@DEBUG_VALUE: ccm_auth_crypt:input <- [DW_OP_plus_uconst 148] [$sp+0]
	@DEBUG_VALUE: ccm_auth_crypt:output <- [DW_OP_plus_uconst 152] [$sp+0]
	@DEBUG_VALUE: ccm_auth_crypt:tag <- [DW_OP_plus_uconst 156] [$sp+0]
	@DEBUG_VALUE: ccm_auth_crypt:tag_len <- [DW_OP_plus_uconst 160] [$sp+0]
	cmp	r2, #16
	bhi	.LBB4_12
.Ltmp36:
@ %bb.4:
	@DEBUG_VALUE: ccm_auth_crypt:length <- [DW_OP_plus_uconst 60] [$sp+0]
	@DEBUG_VALUE: ccm_auth_crypt:iv <- $r3
	@DEBUG_VALUE: ccm_auth_crypt:ctx <- $r0
	@DEBUG_VALUE: ccm_auth_crypt:mode <- [DW_OP_plus_uconst 56] [$sp+0]
	@DEBUG_VALUE: ccm_auth_crypt:iv_len <- [DW_OP_plus_uconst 136] [$sp+0]
	@DEBUG_VALUE: ccm_auth_crypt:add <- [DW_OP_plus_uconst 140] [$sp+0]
	@DEBUG_VALUE: ccm_auth_crypt:add_len <- [DW_OP_plus_uconst 144] [$sp+0]
	@DEBUG_VALUE: ccm_auth_crypt:input <- [DW_OP_plus_uconst 148] [$sp+0]
	@DEBUG_VALUE: ccm_auth_crypt:output <- [DW_OP_plus_uconst 152] [$sp+0]
	@DEBUG_VALUE: ccm_auth_crypt:tag <- [DW_OP_plus_uconst 156] [$sp+0]
	@DEBUG_VALUE: ccm_auth_crypt:tag_len <- [DW_OP_plus_uconst 160] [$sp+0]
	.loc	1 0 22                          @ ../../../ThirdParty/mbedTLS/library/ccm.c:0:22
	movs	r7, #1
	mov	r1, r2
	str	r7, [sp, #44]                   @ 4-byte Spill
	ands	r1, r7
	.loc	1 169 22                        @ ../../../ThirdParty/mbedTLS/library/ccm.c:169:22
	bne	.LBB4_12
.Ltmp37:
@ %bb.5:
	@DEBUG_VALUE: ccm_auth_crypt:length <- [DW_OP_plus_uconst 60] [$sp+0]
	@DEBUG_VALUE: ccm_auth_crypt:iv <- $r3
	@DEBUG_VALUE: ccm_auth_crypt:ctx <- $r0
	@DEBUG_VALUE: ccm_auth_crypt:mode <- [DW_OP_plus_uconst 56] [$sp+0]
	@DEBUG_VALUE: ccm_auth_crypt:iv_len <- [DW_OP_plus_uconst 136] [$sp+0]
	@DEBUG_VALUE: ccm_auth_crypt:add <- [DW_OP_plus_uconst 140] [$sp+0]
	@DEBUG_VALUE: ccm_auth_crypt:add_len <- [DW_OP_plus_uconst 144] [$sp+0]
	@DEBUG_VALUE: ccm_auth_crypt:input <- [DW_OP_plus_uconst 148] [$sp+0]
	@DEBUG_VALUE: ccm_auth_crypt:output <- [DW_OP_plus_uconst 152] [$sp+0]
	@DEBUG_VALUE: ccm_auth_crypt:tag <- [DW_OP_plus_uconst 156] [$sp+0]
	@DEBUG_VALUE: ccm_auth_crypt:tag_len <- [DW_OP_plus_uconst 160] [$sp+0]
	@DEBUG_VALUE: ccm_auth_crypt:q <- undef
	.loc	1 0 22                          @ ../../../ThirdParty/mbedTLS/library/ccm.c:0:22
	str	r0, [sp, #52]                   @ 4-byte Spill
.Ltmp38:
	@DEBUG_VALUE: ccm_auth_crypt:ctx <- [DW_OP_plus_uconst 52] [$sp+0]
	.loc	1 194 23 is_stmt 1              @ ../../../ThirdParty/mbedTLS/library/ccm.c:194:23
	subs	r0, r6, #1
	mov	r1, r6
	sbcs	r1, r0
	.loc	1 195 10                        @ ../../../ThirdParty/mbedTLS/library/ccm.c:195:10
	lsls	r0, r1, #6
	movs	r1, #15
	.loc	1 179 9                         @ ../../../ThirdParty/mbedTLS/library/ccm.c:179:9
	subs	r1, r1, r5
	.loc	1 196 13                        @ ../../../ThirdParty/mbedTLS/library/ccm.c:196:13
	uxtb	r7, r1
	.loc	1 196 15 is_stmt 0              @ ../../../ThirdParty/mbedTLS/library/ccm.c:196:15
	subs	r1, r7, #1
	str	r1, [sp, #24]                   @ 4-byte Spill
	.loc	1 196 10                        @ ../../../ThirdParty/mbedTLS/library/ccm.c:196:10
	orrs	r0, r1
	str	r2, [sp, #20]                   @ 4-byte Spill
	.loc	1 195 37 is_stmt 1              @ ../../../ThirdParty/mbedTLS/library/ccm.c:195:37
	lsls	r1, r2, #2
	adds	r1, #248
	movs	r2, #248
	.loc	1 196 10                        @ ../../../ThirdParty/mbedTLS/library/ccm.c:196:10
	ands	r2, r1
	orrs	r2, r0
	add	r0, sp, #96
	strb	r2, [r0]
	.loc	1 198 15                        @ ../../../ThirdParty/mbedTLS/library/ccm.c:198:15
	adds	r0, r0, #1
	str	r3, [sp, #32]                   @ 4-byte Spill
.Ltmp39:
	@DEBUG_VALUE: ccm_auth_crypt:iv <- [DW_OP_plus_uconst 32] [$sp+0]
	.loc	1 198 5 is_stmt 0               @ ../../../ThirdParty/mbedTLS/library/ccm.c:198:5
	mov	r1, r3
	str	r5, [sp, #28]                   @ 4-byte Spill
	mov	r2, r5
	bl	__aeabi_memcpy
.Ltmp40:
	@DEBUG_VALUE: ccm_auth_crypt:len_left <- [DW_OP_plus_uconst 60] [$sp+0]
	@DEBUG_VALUE: ccm_auth_crypt:i <- 0
	.loc	1 0 5                           @ ../../../ThirdParty/mbedTLS/library/ccm.c:0:5
	ldr	r2, [sp, #60]                   @ 4-byte Reload
.Ltmp41:
	@DEBUG_VALUE: ccm_auth_crypt:length <- $r2
	@DEBUG_VALUE: ccm_auth_crypt:len_left <- $r2
	mov	r0, r2
	.loc	1 200 5 is_stmt 1               @ ../../../ThirdParty/mbedTLS/library/ccm.c:200:5
	cbz	r7, .LBB4_8
.Ltmp42:
@ %bb.6:
	@DEBUG_VALUE: ccm_auth_crypt:iv <- [DW_OP_plus_uconst 32] [$sp+0]
	@DEBUG_VALUE: ccm_auth_crypt:ctx <- [DW_OP_plus_uconst 52] [$sp+0]
	@DEBUG_VALUE: ccm_auth_crypt:len_left <- $r2
	@DEBUG_VALUE: ccm_auth_crypt:length <- $r2
	@DEBUG_VALUE: ccm_auth_crypt:mode <- [DW_OP_plus_uconst 56] [$sp+0]
	@DEBUG_VALUE: ccm_auth_crypt:iv_len <- [DW_OP_plus_uconst 136] [$sp+0]
	@DEBUG_VALUE: ccm_auth_crypt:add <- [DW_OP_plus_uconst 140] [$sp+0]
	@DEBUG_VALUE: ccm_auth_crypt:add_len <- [DW_OP_plus_uconst 144] [$sp+0]
	@DEBUG_VALUE: ccm_auth_crypt:input <- [DW_OP_plus_uconst 148] [$sp+0]
	@DEBUG_VALUE: ccm_auth_crypt:output <- [DW_OP_plus_uconst 152] [$sp+0]
	@DEBUG_VALUE: ccm_auth_crypt:tag <- [DW_OP_plus_uconst 156] [$sp+0]
	@DEBUG_VALUE: ccm_auth_crypt:tag_len <- [DW_OP_plus_uconst 160] [$sp+0]
	@DEBUG_VALUE: ccm_auth_crypt:i <- 0
	.loc	1 0 5 is_stmt 0                 @ ../../../ThirdParty/mbedTLS/library/ccm.c:0:5
	movs	r1, #0
	mov	r0, r2
	mov	r2, r1
.Ltmp43:
	@DEBUG_VALUE: ccm_auth_crypt:length <- [DW_OP_LLVM_entry_value 1] $r2
.LBB4_7:                                @ =>This Inner Loop Header: Depth=1
	@DEBUG_VALUE: ccm_auth_crypt:iv <- [DW_OP_plus_uconst 32] [$sp+0]
	@DEBUG_VALUE: ccm_auth_crypt:ctx <- [DW_OP_plus_uconst 52] [$sp+0]
	@DEBUG_VALUE: ccm_auth_crypt:mode <- [DW_OP_plus_uconst 56] [$sp+0]
	@DEBUG_VALUE: ccm_auth_crypt:iv_len <- [DW_OP_plus_uconst 136] [$sp+0]
	@DEBUG_VALUE: ccm_auth_crypt:add <- [DW_OP_plus_uconst 140] [$sp+0]
	@DEBUG_VALUE: ccm_auth_crypt:add_len <- [DW_OP_plus_uconst 144] [$sp+0]
	@DEBUG_VALUE: ccm_auth_crypt:input <- [DW_OP_plus_uconst 148] [$sp+0]
	@DEBUG_VALUE: ccm_auth_crypt:output <- [DW_OP_plus_uconst 152] [$sp+0]
	@DEBUG_VALUE: ccm_auth_crypt:tag <- [DW_OP_plus_uconst 156] [$sp+0]
	@DEBUG_VALUE: ccm_auth_crypt:tag_len <- [DW_OP_plus_uconst 160] [$sp+0]
	@DEBUG_VALUE: ccm_auth_crypt:length <- [DW_OP_LLVM_entry_value 1] $r2
	@DEBUG_VALUE: ccm_auth_crypt:i <- $r2
	@DEBUG_VALUE: ccm_auth_crypt:len_left <- $r0
	add	r3, sp, #96
.Ltmp44:
	.loc	1 201 9 is_stmt 1               @ ../../../ThirdParty/mbedTLS/library/ccm.c:201:9
	subs	r1, r3, r1
	.loc	1 201 17 is_stmt 0              @ ../../../ThirdParty/mbedTLS/library/ccm.c:201:17
	strb	r0, [r1, #15]
	.loc	1 200 57 is_stmt 1              @ ../../../ThirdParty/mbedTLS/library/ccm.c:200:57
	lsrs	r0, r0, #8
.Ltmp45:
	@DEBUG_VALUE: ccm_auth_crypt:len_left <- $r0
	.loc	1 200 44 is_stmt 0              @ ../../../ThirdParty/mbedTLS/library/ccm.c:200:44
	adds	r2, r2, #1
.Ltmp46:
	@DEBUG_VALUE: ccm_auth_crypt:i <- $r2
	.loc	1 200 36                        @ ../../../ThirdParty/mbedTLS/library/ccm.c:200:36
	uxtb	r1, r2
.Ltmp47:
	.loc	1 200 5                         @ ../../../ThirdParty/mbedTLS/library/ccm.c:200:5
	cmp	r7, r1
	bhi	.LBB4_7
.Ltmp48:
.LBB4_8:
	@DEBUG_VALUE: ccm_auth_crypt:iv <- [DW_OP_plus_uconst 32] [$sp+0]
	@DEBUG_VALUE: ccm_auth_crypt:ctx <- [DW_OP_plus_uconst 52] [$sp+0]
	@DEBUG_VALUE: ccm_auth_crypt:mode <- [DW_OP_plus_uconst 56] [$sp+0]
	@DEBUG_VALUE: ccm_auth_crypt:iv_len <- [DW_OP_plus_uconst 136] [$sp+0]
	@DEBUG_VALUE: ccm_auth_crypt:add <- [DW_OP_plus_uconst 140] [$sp+0]
	@DEBUG_VALUE: ccm_auth_crypt:add_len <- [DW_OP_plus_uconst 144] [$sp+0]
	@DEBUG_VALUE: ccm_auth_crypt:input <- [DW_OP_plus_uconst 148] [$sp+0]
	@DEBUG_VALUE: ccm_auth_crypt:output <- [DW_OP_plus_uconst 152] [$sp+0]
	@DEBUG_VALUE: ccm_auth_crypt:tag <- [DW_OP_plus_uconst 156] [$sp+0]
	@DEBUG_VALUE: ccm_auth_crypt:tag_len <- [DW_OP_plus_uconst 160] [$sp+0]
	@DEBUG_VALUE: ccm_auth_crypt:len_left <- $r0
	.loc	1 203 9 is_stmt 1               @ ../../../ThirdParty/mbedTLS/library/ccm.c:203:9
	cbnz	r0, .LBB4_12
.Ltmp49:
@ %bb.9:
	@DEBUG_VALUE: ccm_auth_crypt:iv <- [DW_OP_plus_uconst 32] [$sp+0]
	@DEBUG_VALUE: ccm_auth_crypt:ctx <- [DW_OP_plus_uconst 52] [$sp+0]
	@DEBUG_VALUE: ccm_auth_crypt:len_left <- $r0
	@DEBUG_VALUE: ccm_auth_crypt:mode <- [DW_OP_plus_uconst 56] [$sp+0]
	@DEBUG_VALUE: ccm_auth_crypt:iv_len <- [DW_OP_plus_uconst 136] [$sp+0]
	@DEBUG_VALUE: ccm_auth_crypt:add <- [DW_OP_plus_uconst 140] [$sp+0]
	@DEBUG_VALUE: ccm_auth_crypt:add_len <- [DW_OP_plus_uconst 144] [$sp+0]
	@DEBUG_VALUE: ccm_auth_crypt:input <- [DW_OP_plus_uconst 148] [$sp+0]
	@DEBUG_VALUE: ccm_auth_crypt:output <- [DW_OP_plus_uconst 152] [$sp+0]
	@DEBUG_VALUE: ccm_auth_crypt:tag <- [DW_OP_plus_uconst 156] [$sp+0]
	@DEBUG_VALUE: ccm_auth_crypt:tag_len <- [DW_OP_plus_uconst 160] [$sp+0]
	.loc	1 0 9 is_stmt 0                 @ ../../../ThirdParty/mbedTLS/library/ccm.c:0:9
	ldr	r0, [sp, #156]
.Ltmp50:
	str	r0, [sp, #8]                    @ 4-byte Spill
	ldr	r0, [sp, #152]
	str	r0, [sp, #40]                   @ 4-byte Spill
	ldr	r0, [sp, #148]
	str	r0, [sp, #48]                   @ 4-byte Spill
	ldr	r5, [sp, #140]
	movs	r0, #0
	.loc	1 208 5 is_stmt 1               @ ../../../ThirdParty/mbedTLS/library/ccm.c:208:5
	str	r0, [sp, #92]
	str	r0, [sp, #88]
	str	r0, [sp, #84]
	str	r0, [sp, #80]
.Ltmp51:
	@DEBUG_VALUE: ccm_auth_crypt:i <- 0
.LBB4_10:                               @ =>This Inner Loop Header: Depth=1
	@DEBUG_VALUE: ccm_auth_crypt:iv <- [DW_OP_plus_uconst 32] [$sp+0]
	@DEBUG_VALUE: ccm_auth_crypt:ctx <- [DW_OP_plus_uconst 52] [$sp+0]
	@DEBUG_VALUE: ccm_auth_crypt:mode <- [DW_OP_plus_uconst 56] [$sp+0]
	@DEBUG_VALUE: ccm_auth_crypt:iv_len <- [DW_OP_plus_uconst 136] [$sp+0]
	@DEBUG_VALUE: ccm_auth_crypt:add <- [DW_OP_plus_uconst 140] [$sp+0]
	@DEBUG_VALUE: ccm_auth_crypt:add_len <- [DW_OP_plus_uconst 144] [$sp+0]
	@DEBUG_VALUE: ccm_auth_crypt:input <- [DW_OP_plus_uconst 148] [$sp+0]
	@DEBUG_VALUE: ccm_auth_crypt:output <- [DW_OP_plus_uconst 152] [$sp+0]
	@DEBUG_VALUE: ccm_auth_crypt:tag <- [DW_OP_plus_uconst 156] [$sp+0]
	@DEBUG_VALUE: ccm_auth_crypt:tag_len <- [DW_OP_plus_uconst 160] [$sp+0]
	@DEBUG_VALUE: ccm_auth_crypt:i <- $r0
	.loc	1 0 5 is_stmt 0                 @ ../../../ThirdParty/mbedTLS/library/ccm.c:0:5
	add	r1, sp, #96
.Ltmp52:
	.loc	1 209 5 is_stmt 1               @ ../../../ThirdParty/mbedTLS/library/ccm.c:209:5
	ldrb	r1, [r1, r0]
	add	r2, sp, #80
	ldrb	r3, [r2, r0]
	eors	r3, r1
	strb	r3, [r2, r0]
	adds	r0, r0, #1
.Ltmp53:
	@DEBUG_VALUE: ccm_auth_crypt:i <- $r0
	.loc	1 209 5 is_stmt 0               @ ../../../ThirdParty/mbedTLS/library/ccm.c:209:5
	cmp	r0, #16
	bne	.LBB4_10
.Ltmp54:
@ %bb.11:
	@DEBUG_VALUE: ccm_auth_crypt:iv <- [DW_OP_plus_uconst 32] [$sp+0]
	@DEBUG_VALUE: ccm_auth_crypt:ctx <- [DW_OP_plus_uconst 52] [$sp+0]
	@DEBUG_VALUE: ccm_auth_crypt:i <- $r0
	@DEBUG_VALUE: ccm_auth_crypt:mode <- [DW_OP_plus_uconst 56] [$sp+0]
	@DEBUG_VALUE: ccm_auth_crypt:iv_len <- [DW_OP_plus_uconst 136] [$sp+0]
	@DEBUG_VALUE: ccm_auth_crypt:add <- [DW_OP_plus_uconst 140] [$sp+0]
	@DEBUG_VALUE: ccm_auth_crypt:add_len <- [DW_OP_plus_uconst 144] [$sp+0]
	@DEBUG_VALUE: ccm_auth_crypt:input <- [DW_OP_plus_uconst 148] [$sp+0]
	@DEBUG_VALUE: ccm_auth_crypt:output <- [DW_OP_plus_uconst 152] [$sp+0]
	@DEBUG_VALUE: ccm_auth_crypt:tag <- [DW_OP_plus_uconst 156] [$sp+0]
	@DEBUG_VALUE: ccm_auth_crypt:tag_len <- [DW_OP_plus_uconst 160] [$sp+0]
	@DEBUG_VALUE: ccm_auth_crypt:olen <- [DW_OP_plus_uconst 112, DW_OP_deref] $sp
	.loc	1 0 5                           @ ../../../ThirdParty/mbedTLS/library/ccm.c:0:5
	add	r0, sp, #112
.Ltmp55:
	.loc	1 209 5                         @ ../../../ThirdParty/mbedTLS/library/ccm.c:209:5
	str	r0, [sp]
	movs	r2, #16
	add	r1, sp, #80
	ldr	r0, [sp, #52]                   @ 4-byte Reload
.Ltmp56:
	@DEBUG_VALUE: ccm_auth_crypt:ctx <- $r0
	.loc	1 0 5                           @ ../../../ThirdParty/mbedTLS/library/ccm.c:0:5
	str	r2, [sp, #36]                   @ 4-byte Spill
	.loc	1 209 5                         @ ../../../ThirdParty/mbedTLS/library/ccm.c:209:5
	mov	r3, r1
	bl	mbedtls_cipher_update
.Ltmp57:
	@DEBUG_VALUE: ccm_auth_crypt:ctx <- [DW_OP_LLVM_entry_value 1] $r0
	mov	r4, r0
.Ltmp58:
	@DEBUG_VALUE: ccm_auth_crypt:ret <- $r4
	.loc	1 209 5                         @ ../../../ThirdParty/mbedTLS/library/ccm.c:209:5
	cbz	r0, .LBB4_13
.Ltmp59:
.LBB4_12:
	@DEBUG_VALUE: ccm_auth_crypt:mode <- [DW_OP_plus_uconst 56] [$sp+0]
	@DEBUG_VALUE: ccm_auth_crypt:iv_len <- [DW_OP_plus_uconst 136] [$sp+0]
	@DEBUG_VALUE: ccm_auth_crypt:add <- [DW_OP_plus_uconst 140] [$sp+0]
	@DEBUG_VALUE: ccm_auth_crypt:add_len <- [DW_OP_plus_uconst 144] [$sp+0]
	@DEBUG_VALUE: ccm_auth_crypt:input <- [DW_OP_plus_uconst 148] [$sp+0]
	@DEBUG_VALUE: ccm_auth_crypt:output <- [DW_OP_plus_uconst 152] [$sp+0]
	@DEBUG_VALUE: ccm_auth_crypt:tag <- [DW_OP_plus_uconst 156] [$sp+0]
	@DEBUG_VALUE: ccm_auth_crypt:tag_len <- [DW_OP_plus_uconst 160] [$sp+0]
	.loc	1 313 1 is_stmt 1               @ ../../../ThirdParty/mbedTLS/library/ccm.c:313:1
	mov	r0, r4
	add	sp, #116
.Ltmp60:
	pop	{r4, r5, r6, r7, pc}
.LBB4_13:
.Ltmp61:
	@DEBUG_VALUE: ccm_auth_crypt:iv <- [DW_OP_plus_uconst 32] [$sp+0]
	@DEBUG_VALUE: ccm_auth_crypt:ret <- $r4
	@DEBUG_VALUE: ccm_auth_crypt:olen <- [DW_OP_plus_uconst 112, DW_OP_deref] $sp
	@DEBUG_VALUE: ccm_auth_crypt:mode <- [DW_OP_plus_uconst 56] [$sp+0]
	@DEBUG_VALUE: ccm_auth_crypt:iv_len <- [DW_OP_plus_uconst 136] [$sp+0]
	@DEBUG_VALUE: ccm_auth_crypt:add <- [DW_OP_plus_uconst 140] [$sp+0]
	@DEBUG_VALUE: ccm_auth_crypt:add_len <- [DW_OP_plus_uconst 144] [$sp+0]
	@DEBUG_VALUE: ccm_auth_crypt:input <- [DW_OP_plus_uconst 148] [$sp+0]
	@DEBUG_VALUE: ccm_auth_crypt:output <- [DW_OP_plus_uconst 152] [$sp+0]
	@DEBUG_VALUE: ccm_auth_crypt:tag <- [DW_OP_plus_uconst 156] [$sp+0]
	@DEBUG_VALUE: ccm_auth_crypt:tag_len <- [DW_OP_plus_uconst 160] [$sp+0]
	@DEBUG_VALUE: ccm_auth_crypt:ctx <- [DW_OP_LLVM_entry_value 1] $r0
	.loc	1 215 9                         @ ../../../ThirdParty/mbedTLS/library/ccm.c:215:9
	cbz	r6, .LBB4_21
.Ltmp62:
@ %bb.14:
	@DEBUG_VALUE: ccm_auth_crypt:iv <- [DW_OP_plus_uconst 32] [$sp+0]
	@DEBUG_VALUE: ccm_auth_crypt:ret <- $r4
	@DEBUG_VALUE: ccm_auth_crypt:olen <- [DW_OP_plus_uconst 112, DW_OP_deref] $sp
	@DEBUG_VALUE: ccm_auth_crypt:mode <- [DW_OP_plus_uconst 56] [$sp+0]
	@DEBUG_VALUE: ccm_auth_crypt:iv_len <- [DW_OP_plus_uconst 136] [$sp+0]
	@DEBUG_VALUE: ccm_auth_crypt:add <- [DW_OP_plus_uconst 140] [$sp+0]
	@DEBUG_VALUE: ccm_auth_crypt:add_len <- [DW_OP_plus_uconst 144] [$sp+0]
	@DEBUG_VALUE: ccm_auth_crypt:input <- [DW_OP_plus_uconst 148] [$sp+0]
	@DEBUG_VALUE: ccm_auth_crypt:output <- [DW_OP_plus_uconst 152] [$sp+0]
	@DEBUG_VALUE: ccm_auth_crypt:tag <- [DW_OP_plus_uconst 156] [$sp+0]
	@DEBUG_VALUE: ccm_auth_crypt:tag_len <- [DW_OP_plus_uconst 160] [$sp+0]
	@DEBUG_VALUE: ccm_auth_crypt:ctx <- [DW_OP_LLVM_entry_value 1] $r0
	@DEBUG_VALUE: ccm_auth_crypt:len_left <- $r6
	@DEBUG_VALUE: ccm_auth_crypt:src <- $r5
	.loc	1 0 9 is_stmt 0                 @ ../../../ThirdParty/mbedTLS/library/ccm.c:0:9
	str	r5, [sp, #16]                   @ 4-byte Spill
.Ltmp63:
	@DEBUG_VALUE: ccm_auth_crypt:src <- [DW_OP_plus_uconst 16] [$sp+0]
	@DEBUG_VALUE: ccm_auth_crypt:src <- [DW_OP_plus_uconst 16] [$sp+0]
	movs	r5, #0
.Ltmp64:
	.loc	1 221 9 is_stmt 1               @ ../../../ThirdParty/mbedTLS/library/ccm.c:221:9
	str	r5, [sp, #96]
	add	r0, sp, #96
	.loc	1 223 14                        @ ../../../ThirdParty/mbedTLS/library/ccm.c:223:14
	strb	r6, [r0, #1]
	.loc	1 222 43                        @ ../../../ThirdParty/mbedTLS/library/ccm.c:222:43
	lsrs	r1, r6, #8
	.loc	1 222 14 is_stmt 0              @ ../../../ThirdParty/mbedTLS/library/ccm.c:222:14
	strb	r1, [r0]
	.loc	1 221 9 is_stmt 1               @ ../../../ThirdParty/mbedTLS/library/ccm.c:221:9
	str	r5, [sp, #108]
	str	r5, [sp, #104]
	str	r5, [sp, #100]
	.loc	1 225 19                        @ ../../../ThirdParty/mbedTLS/library/ccm.c:225:19
	cmp	r6, #14
	mov	r4, r6
.Ltmp65:
	blo	.LBB4_16
.Ltmp66:
@ %bb.15:
	@DEBUG_VALUE: ccm_auth_crypt:iv <- [DW_OP_plus_uconst 32] [$sp+0]
	@DEBUG_VALUE: ccm_auth_crypt:len_left <- $r6
	@DEBUG_VALUE: ccm_auth_crypt:src <- [DW_OP_plus_uconst 16] [$sp+0]
	@DEBUG_VALUE: ccm_auth_crypt:olen <- [DW_OP_plus_uconst 112, DW_OP_deref] $sp
	@DEBUG_VALUE: ccm_auth_crypt:mode <- [DW_OP_plus_uconst 56] [$sp+0]
	@DEBUG_VALUE: ccm_auth_crypt:iv_len <- [DW_OP_plus_uconst 136] [$sp+0]
	@DEBUG_VALUE: ccm_auth_crypt:add <- [DW_OP_plus_uconst 140] [$sp+0]
	@DEBUG_VALUE: ccm_auth_crypt:add_len <- [DW_OP_plus_uconst 144] [$sp+0]
	@DEBUG_VALUE: ccm_auth_crypt:input <- [DW_OP_plus_uconst 148] [$sp+0]
	@DEBUG_VALUE: ccm_auth_crypt:output <- [DW_OP_plus_uconst 152] [$sp+0]
	@DEBUG_VALUE: ccm_auth_crypt:tag <- [DW_OP_plus_uconst 156] [$sp+0]
	@DEBUG_VALUE: ccm_auth_crypt:tag_len <- [DW_OP_plus_uconst 160] [$sp+0]
	@DEBUG_VALUE: ccm_auth_crypt:ctx <- [DW_OP_LLVM_entry_value 1] $r0
	.loc	1 0 19 is_stmt 0                @ ../../../ThirdParty/mbedTLS/library/ccm.c:0:19
	movs	r4, #14
.Ltmp67:
.LBB4_16:
	@DEBUG_VALUE: ccm_auth_crypt:iv <- [DW_OP_plus_uconst 32] [$sp+0]
	@DEBUG_VALUE: ccm_auth_crypt:len_left <- $r6
	@DEBUG_VALUE: ccm_auth_crypt:src <- [DW_OP_plus_uconst 16] [$sp+0]
	@DEBUG_VALUE: ccm_auth_crypt:olen <- [DW_OP_plus_uconst 112, DW_OP_deref] $sp
	@DEBUG_VALUE: ccm_auth_crypt:mode <- [DW_OP_plus_uconst 56] [$sp+0]
	@DEBUG_VALUE: ccm_auth_crypt:iv_len <- [DW_OP_plus_uconst 136] [$sp+0]
	@DEBUG_VALUE: ccm_auth_crypt:add <- [DW_OP_plus_uconst 140] [$sp+0]
	@DEBUG_VALUE: ccm_auth_crypt:add_len <- [DW_OP_plus_uconst 144] [$sp+0]
	@DEBUG_VALUE: ccm_auth_crypt:input <- [DW_OP_plus_uconst 148] [$sp+0]
	@DEBUG_VALUE: ccm_auth_crypt:output <- [DW_OP_plus_uconst 152] [$sp+0]
	@DEBUG_VALUE: ccm_auth_crypt:tag <- [DW_OP_plus_uconst 156] [$sp+0]
	@DEBUG_VALUE: ccm_auth_crypt:tag_len <- [DW_OP_plus_uconst 160] [$sp+0]
	@DEBUG_VALUE: ccm_auth_crypt:ctx <- [DW_OP_LLVM_entry_value 1] $r0
	@DEBUG_VALUE: use_len <- $r4
	.loc	1 226 19 is_stmt 1              @ ../../../ThirdParty/mbedTLS/library/ccm.c:226:19
	adds	r0, r0, #2
	.loc	1 226 9 is_stmt 0               @ ../../../ThirdParty/mbedTLS/library/ccm.c:226:9
	ldr	r1, [sp, #16]                   @ 4-byte Reload
	mov	r2, r4
	bl	__aeabi_memcpy
	str	r4, [sp, #12]                   @ 4-byte Spill
.Ltmp68:
	@DEBUG_VALUE: use_len <- [DW_OP_plus_uconst 12] [$sp+0]
	.loc	1 227 18 is_stmt 1              @ ../../../ThirdParty/mbedTLS/library/ccm.c:227:18
	subs	r6, r6, r4
.Ltmp69:
	@DEBUG_VALUE: ccm_auth_crypt:src <- undef
	@DEBUG_VALUE: ccm_auth_crypt:len_left <- $r6
	@DEBUG_VALUE: ccm_auth_crypt:i <- 0
.LBB4_17:                               @ =>This Inner Loop Header: Depth=1
	@DEBUG_VALUE: ccm_auth_crypt:iv <- [DW_OP_plus_uconst 32] [$sp+0]
	@DEBUG_VALUE: ccm_auth_crypt:len_left <- $r6
	@DEBUG_VALUE: use_len <- [DW_OP_plus_uconst 12] [$sp+0]
	@DEBUG_VALUE: ccm_auth_crypt:olen <- [DW_OP_plus_uconst 112, DW_OP_deref] $sp
	@DEBUG_VALUE: ccm_auth_crypt:mode <- [DW_OP_plus_uconst 56] [$sp+0]
	@DEBUG_VALUE: ccm_auth_crypt:iv_len <- [DW_OP_plus_uconst 136] [$sp+0]
	@DEBUG_VALUE: ccm_auth_crypt:add <- [DW_OP_plus_uconst 140] [$sp+0]
	@DEBUG_VALUE: ccm_auth_crypt:add_len <- [DW_OP_plus_uconst 144] [$sp+0]
	@DEBUG_VALUE: ccm_auth_crypt:input <- [DW_OP_plus_uconst 148] [$sp+0]
	@DEBUG_VALUE: ccm_auth_crypt:output <- [DW_OP_plus_uconst 152] [$sp+0]
	@DEBUG_VALUE: ccm_auth_crypt:tag <- [DW_OP_plus_uconst 156] [$sp+0]
	@DEBUG_VALUE: ccm_auth_crypt:tag_len <- [DW_OP_plus_uconst 160] [$sp+0]
	@DEBUG_VALUE: ccm_auth_crypt:ctx <- [DW_OP_LLVM_entry_value 1] $r0
	@DEBUG_VALUE: ccm_auth_crypt:i <- $r5
	.loc	1 0 18 is_stmt 0                @ ../../../ThirdParty/mbedTLS/library/ccm.c:0:18
	add	r0, sp, #96
.Ltmp70:
	.loc	1 230 9 is_stmt 1               @ ../../../ThirdParty/mbedTLS/library/ccm.c:230:9
	ldrb	r0, [r0, r5]
	add	r1, sp, #80
	ldrb	r2, [r1, r5]
	eors	r2, r0
	strb	r2, [r1, r5]
	adds	r5, r5, #1
.Ltmp71:
	@DEBUG_VALUE: ccm_auth_crypt:i <- $r5
	.loc	1 230 9 is_stmt 0               @ ../../../ThirdParty/mbedTLS/library/ccm.c:230:9
	cmp	r5, #16
	bne	.LBB4_17
.Ltmp72:
@ %bb.18:
	@DEBUG_VALUE: ccm_auth_crypt:iv <- [DW_OP_plus_uconst 32] [$sp+0]
	@DEBUG_VALUE: ccm_auth_crypt:len_left <- $r6
	@DEBUG_VALUE: ccm_auth_crypt:i <- $r5
	@DEBUG_VALUE: use_len <- [DW_OP_plus_uconst 12] [$sp+0]
	@DEBUG_VALUE: ccm_auth_crypt:olen <- [DW_OP_plus_uconst 112, DW_OP_deref] $sp
	@DEBUG_VALUE: ccm_auth_crypt:mode <- [DW_OP_plus_uconst 56] [$sp+0]
	@DEBUG_VALUE: ccm_auth_crypt:iv_len <- [DW_OP_plus_uconst 136] [$sp+0]
	@DEBUG_VALUE: ccm_auth_crypt:add <- [DW_OP_plus_uconst 140] [$sp+0]
	@DEBUG_VALUE: ccm_auth_crypt:add_len <- [DW_OP_plus_uconst 144] [$sp+0]
	@DEBUG_VALUE: ccm_auth_crypt:input <- [DW_OP_plus_uconst 148] [$sp+0]
	@DEBUG_VALUE: ccm_auth_crypt:output <- [DW_OP_plus_uconst 152] [$sp+0]
	@DEBUG_VALUE: ccm_auth_crypt:tag <- [DW_OP_plus_uconst 156] [$sp+0]
	@DEBUG_VALUE: ccm_auth_crypt:tag_len <- [DW_OP_plus_uconst 160] [$sp+0]
	@DEBUG_VALUE: ccm_auth_crypt:ctx <- [DW_OP_LLVM_entry_value 1] $r0
	@DEBUG_VALUE: ccm_auth_crypt:olen <- [DW_OP_plus_uconst 112, DW_OP_deref] $sp
	.loc	1 0 9                           @ ../../../ThirdParty/mbedTLS/library/ccm.c:0:9
	add	r0, sp, #112
.Ltmp73:
	.loc	1 230 9                         @ ../../../ThirdParty/mbedTLS/library/ccm.c:230:9
	str	r0, [sp]
	movs	r5, #16
.Ltmp74:
	.loc	1 0 9                           @ ../../../ThirdParty/mbedTLS/library/ccm.c:0:9
	add	r1, sp, #80
	.loc	1 230 9                         @ ../../../ThirdParty/mbedTLS/library/ccm.c:230:9
	ldr	r0, [sp, #52]                   @ 4-byte Reload
	mov	r2, r5
	mov	r3, r1
	bl	mbedtls_cipher_update
.Ltmp75:
	@DEBUG_VALUE: ccm_auth_crypt:ret <- $r0
	.loc	1 230 9                         @ ../../../ThirdParty/mbedTLS/library/ccm.c:230:9
	cmp	r0, #0
	bne	.LBB4_19
	b	.LBB4_56
.Ltmp76:
.LBB4_19:
	@DEBUG_VALUE: ccm_auth_crypt:iv <- [DW_OP_plus_uconst 32] [$sp+0]
	@DEBUG_VALUE: ccm_auth_crypt:len_left <- $r6
	@DEBUG_VALUE: ccm_auth_crypt:ret <- $r0
	@DEBUG_VALUE: use_len <- [DW_OP_plus_uconst 12] [$sp+0]
	@DEBUG_VALUE: ccm_auth_crypt:olen <- [DW_OP_plus_uconst 112, DW_OP_deref] $sp
	@DEBUG_VALUE: ccm_auth_crypt:mode <- [DW_OP_plus_uconst 56] [$sp+0]
	@DEBUG_VALUE: ccm_auth_crypt:iv_len <- [DW_OP_plus_uconst 136] [$sp+0]
	@DEBUG_VALUE: ccm_auth_crypt:add <- [DW_OP_plus_uconst 140] [$sp+0]
	@DEBUG_VALUE: ccm_auth_crypt:add_len <- [DW_OP_plus_uconst 144] [$sp+0]
	@DEBUG_VALUE: ccm_auth_crypt:input <- [DW_OP_plus_uconst 148] [$sp+0]
	@DEBUG_VALUE: ccm_auth_crypt:output <- [DW_OP_plus_uconst 152] [$sp+0]
	@DEBUG_VALUE: ccm_auth_crypt:tag <- [DW_OP_plus_uconst 156] [$sp+0]
	@DEBUG_VALUE: ccm_auth_crypt:tag_len <- [DW_OP_plus_uconst 160] [$sp+0]
	@DEBUG_VALUE: ccm_auth_crypt:ctx <- [DW_OP_LLVM_entry_value 1] $r0
	.loc	1 0 9                           @ ../../../ThirdParty/mbedTLS/library/ccm.c:0:9
	mov	r4, r0
.Ltmp77:
	@DEBUG_VALUE: ccm_auth_crypt:ret <- $r4
	movs	r0, #0
.Ltmp78:
.LBB4_20:
	@DEBUG_VALUE: ccm_auth_crypt:iv <- [DW_OP_plus_uconst 32] [$sp+0]
	@DEBUG_VALUE: ccm_auth_crypt:olen <- [DW_OP_plus_uconst 112, DW_OP_deref] $sp
	@DEBUG_VALUE: ccm_auth_crypt:mode <- [DW_OP_plus_uconst 56] [$sp+0]
	@DEBUG_VALUE: ccm_auth_crypt:iv_len <- [DW_OP_plus_uconst 136] [$sp+0]
	@DEBUG_VALUE: ccm_auth_crypt:add <- [DW_OP_plus_uconst 140] [$sp+0]
	@DEBUG_VALUE: ccm_auth_crypt:add_len <- [DW_OP_plus_uconst 144] [$sp+0]
	@DEBUG_VALUE: ccm_auth_crypt:input <- [DW_OP_plus_uconst 148] [$sp+0]
	@DEBUG_VALUE: ccm_auth_crypt:output <- [DW_OP_plus_uconst 152] [$sp+0]
	@DEBUG_VALUE: ccm_auth_crypt:tag <- [DW_OP_plus_uconst 156] [$sp+0]
	@DEBUG_VALUE: ccm_auth_crypt:tag_len <- [DW_OP_plus_uconst 160] [$sp+0]
	@DEBUG_VALUE: ccm_auth_crypt:ctx <- [DW_OP_LLVM_entry_value 1] $r0
	cmp	r0, #0
	beq	.LBB4_12
	b	.LBB4_22
.Ltmp79:
.LBB4_21:
	@DEBUG_VALUE: ccm_auth_crypt:iv <- [DW_OP_plus_uconst 32] [$sp+0]
	@DEBUG_VALUE: ccm_auth_crypt:ret <- $r4
	@DEBUG_VALUE: ccm_auth_crypt:olen <- [DW_OP_plus_uconst 112, DW_OP_deref] $sp
	@DEBUG_VALUE: ccm_auth_crypt:mode <- [DW_OP_plus_uconst 56] [$sp+0]
	@DEBUG_VALUE: ccm_auth_crypt:iv_len <- [DW_OP_plus_uconst 136] [$sp+0]
	@DEBUG_VALUE: ccm_auth_crypt:add <- [DW_OP_plus_uconst 140] [$sp+0]
	@DEBUG_VALUE: ccm_auth_crypt:add_len <- [DW_OP_plus_uconst 144] [$sp+0]
	@DEBUG_VALUE: ccm_auth_crypt:input <- [DW_OP_plus_uconst 148] [$sp+0]
	@DEBUG_VALUE: ccm_auth_crypt:output <- [DW_OP_plus_uconst 152] [$sp+0]
	@DEBUG_VALUE: ccm_auth_crypt:tag <- [DW_OP_plus_uconst 156] [$sp+0]
	@DEBUG_VALUE: ccm_auth_crypt:tag_len <- [DW_OP_plus_uconst 160] [$sp+0]
	@DEBUG_VALUE: ccm_auth_crypt:ctx <- [DW_OP_LLVM_entry_value 1] $r0
                                        @ implicit-def: $r4
.LBB4_22:
	@DEBUG_VALUE: ccm_auth_crypt:iv <- [DW_OP_plus_uconst 32] [$sp+0]
	@DEBUG_VALUE: ccm_auth_crypt:olen <- [DW_OP_plus_uconst 112, DW_OP_deref] $sp
	@DEBUG_VALUE: ccm_auth_crypt:mode <- [DW_OP_plus_uconst 56] [$sp+0]
	@DEBUG_VALUE: ccm_auth_crypt:iv_len <- [DW_OP_plus_uconst 136] [$sp+0]
	@DEBUG_VALUE: ccm_auth_crypt:add <- [DW_OP_plus_uconst 140] [$sp+0]
	@DEBUG_VALUE: ccm_auth_crypt:add_len <- [DW_OP_plus_uconst 144] [$sp+0]
	@DEBUG_VALUE: ccm_auth_crypt:input <- [DW_OP_plus_uconst 148] [$sp+0]
	@DEBUG_VALUE: ccm_auth_crypt:output <- [DW_OP_plus_uconst 152] [$sp+0]
	@DEBUG_VALUE: ccm_auth_crypt:tag <- [DW_OP_plus_uconst 156] [$sp+0]
	@DEBUG_VALUE: ccm_auth_crypt:tag_len <- [DW_OP_plus_uconst 160] [$sp+0]
	@DEBUG_VALUE: ccm_auth_crypt:ctx <- [DW_OP_LLVM_entry_value 1] $r0
	add	r1, sp, #64
	.loc	1 255 12 is_stmt 1              @ ../../../ThirdParty/mbedTLS/library/ccm.c:255:12
	str	r1, [sp, #44]                   @ 4-byte Spill
	ldr	r0, [sp, #24]                   @ 4-byte Reload
	strb	r0, [r1]
	.loc	1 256 17                        @ ../../../ThirdParty/mbedTLS/library/ccm.c:256:17
	adds	r5, r1, #1
	.loc	1 256 5 is_stmt 0               @ ../../../ThirdParty/mbedTLS/library/ccm.c:256:5
	mov	r0, r5
	ldr	r1, [sp, #32]                   @ 4-byte Reload
.Ltmp80:
	@DEBUG_VALUE: ccm_auth_crypt:iv <- $r1
	.loc	1 0 5                           @ ../../../ThirdParty/mbedTLS/library/ccm.c:0:5
	ldr	r6, [sp, #28]                   @ 4-byte Reload
	.loc	1 256 5                         @ ../../../ThirdParty/mbedTLS/library/ccm.c:256:5
	mov	r2, r6
	bl	__aeabi_memcpy
.Ltmp81:
	@DEBUG_VALUE: ccm_auth_crypt:iv <- [DW_OP_LLVM_entry_value 1] $r3
	.loc	1 257 21 is_stmt 1              @ ../../../ThirdParty/mbedTLS/library/ccm.c:257:21
	adds	r0, r5, r6
	ldr	r5, [sp, #60]                   @ 4-byte Reload
	.loc	1 257 5 is_stmt 0               @ ../../../ThirdParty/mbedTLS/library/ccm.c:257:5
	mov	r1, r7
	bl	__aeabi_memclr
	movs	r0, #1
	str	r0, [sp, #28]                   @ 4-byte Spill
	.loc	1 258 13 is_stmt 1              @ ../../../ThirdParty/mbedTLS/library/ccm.c:258:13
	ldr	r1, [sp, #44]                   @ 4-byte Reload
	strb	r0, [r1, #15]
.Ltmp82:
	@DEBUG_VALUE: ccm_auth_crypt:dst <- [DW_OP_plus_uconst 40] [$sp+0]
	@DEBUG_VALUE: ccm_auth_crypt:src <- [DW_OP_plus_uconst 48] [$sp+0]
	@DEBUG_VALUE: ccm_auth_crypt:len_left <- $r5
	.loc	1 0 13 is_stmt 0                @ ../../../ThirdParty/mbedTLS/library/ccm.c:0:13
	b	.LBB4_25
.Ltmp83:
.LBB4_23:                               @   in Loop: Header=BB4_25 Depth=1
	@DEBUG_VALUE: use_len <- $r6
	@DEBUG_VALUE: ccm_auth_crypt:ret <- $r0
	@DEBUG_VALUE: ccm_auth_crypt:src <- [DW_OP_plus_uconst 48] [$sp+0]
	@DEBUG_VALUE: ccm_auth_crypt:dst <- [DW_OP_plus_uconst 40] [$sp+0]
	@DEBUG_VALUE: ccm_auth_crypt:olen <- [DW_OP_plus_uconst 112, DW_OP_deref] $sp
	@DEBUG_VALUE: ccm_auth_crypt:mode <- [DW_OP_plus_uconst 56] [$sp+0]
	@DEBUG_VALUE: ccm_auth_crypt:iv_len <- [DW_OP_plus_uconst 136] [$sp+0]
	@DEBUG_VALUE: ccm_auth_crypt:add <- [DW_OP_plus_uconst 140] [$sp+0]
	@DEBUG_VALUE: ccm_auth_crypt:add_len <- [DW_OP_plus_uconst 144] [$sp+0]
	@DEBUG_VALUE: ccm_auth_crypt:input <- [DW_OP_plus_uconst 148] [$sp+0]
	@DEBUG_VALUE: ccm_auth_crypt:output <- [DW_OP_plus_uconst 152] [$sp+0]
	@DEBUG_VALUE: ccm_auth_crypt:tag <- [DW_OP_plus_uconst 156] [$sp+0]
	@DEBUG_VALUE: ccm_auth_crypt:tag_len <- [DW_OP_plus_uconst 160] [$sp+0]
	@DEBUG_VALUE: ccm_auth_crypt:iv <- [DW_OP_LLVM_entry_value 1] $r3
	@DEBUG_VALUE: ccm_auth_crypt:ctx <- [DW_OP_LLVM_entry_value 1] $r0
	movs	r1, #0
	mov	r4, r0
.Ltmp84:
	@DEBUG_VALUE: ccm_auth_crypt:ret <- $r4
	ldr	r5, [sp, #60]                   @ 4-byte Reload
.Ltmp85:
.LBB4_24:                               @   in Loop: Header=BB4_25 Depth=1
	@DEBUG_VALUE: use_len <- $r6
	@DEBUG_VALUE: ccm_auth_crypt:olen <- [DW_OP_plus_uconst 112, DW_OP_deref] $sp
	@DEBUG_VALUE: ccm_auth_crypt:mode <- [DW_OP_plus_uconst 56] [$sp+0]
	@DEBUG_VALUE: ccm_auth_crypt:iv_len <- [DW_OP_plus_uconst 136] [$sp+0]
	@DEBUG_VALUE: ccm_auth_crypt:add <- [DW_OP_plus_uconst 140] [$sp+0]
	@DEBUG_VALUE: ccm_auth_crypt:add_len <- [DW_OP_plus_uconst 144] [$sp+0]
	@DEBUG_VALUE: ccm_auth_crypt:input <- [DW_OP_plus_uconst 148] [$sp+0]
	@DEBUG_VALUE: ccm_auth_crypt:output <- [DW_OP_plus_uconst 152] [$sp+0]
	@DEBUG_VALUE: ccm_auth_crypt:tag <- [DW_OP_plus_uconst 156] [$sp+0]
	@DEBUG_VALUE: ccm_auth_crypt:tag_len <- [DW_OP_plus_uconst 160] [$sp+0]
	@DEBUG_VALUE: ccm_auth_crypt:iv <- [DW_OP_LLVM_entry_value 1] $r3
	@DEBUG_VALUE: ccm_auth_crypt:ctx <- [DW_OP_LLVM_entry_value 1] $r0
	@DEBUG_VALUE: ccm_auth_crypt:len_left <- $r5
	@DEBUG_VALUE: ccm_auth_crypt:src <- [DW_OP_plus_uconst 48] [$sp+0]
	@DEBUG_VALUE: ccm_auth_crypt:dst <- [DW_OP_plus_uconst 40] [$sp+0]
	cmp	r1, #0
	beq	.LBB4_12
.Ltmp86:
.LBB4_25:                               @ =>This Loop Header: Depth=1
                                        @     Child Loop BB4_46 Depth 2
                                        @     Child Loop BB4_31 Depth 2
                                        @     Child Loop BB4_36 Depth 2
                                        @     Child Loop BB4_40 Depth 2
	@DEBUG_VALUE: ccm_auth_crypt:len_left <- $r5
	@DEBUG_VALUE: ccm_auth_crypt:src <- [DW_OP_plus_uconst 48] [$sp+0]
	@DEBUG_VALUE: ccm_auth_crypt:dst <- [DW_OP_plus_uconst 40] [$sp+0]
	@DEBUG_VALUE: ccm_auth_crypt:olen <- [DW_OP_plus_uconst 112, DW_OP_deref] $sp
	@DEBUG_VALUE: ccm_auth_crypt:mode <- [DW_OP_plus_uconst 56] [$sp+0]
	@DEBUG_VALUE: ccm_auth_crypt:iv_len <- [DW_OP_plus_uconst 136] [$sp+0]
	@DEBUG_VALUE: ccm_auth_crypt:add <- [DW_OP_plus_uconst 140] [$sp+0]
	@DEBUG_VALUE: ccm_auth_crypt:add_len <- [DW_OP_plus_uconst 144] [$sp+0]
	@DEBUG_VALUE: ccm_auth_crypt:input <- [DW_OP_plus_uconst 148] [$sp+0]
	@DEBUG_VALUE: ccm_auth_crypt:output <- [DW_OP_plus_uconst 152] [$sp+0]
	@DEBUG_VALUE: ccm_auth_crypt:tag <- [DW_OP_plus_uconst 156] [$sp+0]
	@DEBUG_VALUE: ccm_auth_crypt:tag_len <- [DW_OP_plus_uconst 160] [$sp+0]
	@DEBUG_VALUE: ccm_auth_crypt:iv <- [DW_OP_LLVM_entry_value 1] $r3
	@DEBUG_VALUE: ccm_auth_crypt:ctx <- [DW_OP_LLVM_entry_value 1] $r0
	@DEBUG_VALUE: ccm_auth_crypt:len_left <- $r5
	@DEBUG_VALUE: ccm_auth_crypt:src <- [DW_OP_plus_uconst 48] [$sp+0]
	@DEBUG_VALUE: ccm_auth_crypt:dst <- [DW_OP_plus_uconst 40] [$sp+0]
	.loc	1 270 5 is_stmt 1               @ ../../../ThirdParty/mbedTLS/library/ccm.c:270:5
	cmp	r5, #0
	bne	.LBB4_26
	b	.LBB4_49
.Ltmp87:
.LBB4_26:                               @   in Loop: Header=BB4_25 Depth=1
	@DEBUG_VALUE: ccm_auth_crypt:len_left <- $r5
	@DEBUG_VALUE: ccm_auth_crypt:src <- [DW_OP_plus_uconst 48] [$sp+0]
	@DEBUG_VALUE: ccm_auth_crypt:dst <- [DW_OP_plus_uconst 40] [$sp+0]
	@DEBUG_VALUE: ccm_auth_crypt:olen <- [DW_OP_plus_uconst 112, DW_OP_deref] $sp
	@DEBUG_VALUE: ccm_auth_crypt:mode <- [DW_OP_plus_uconst 56] [$sp+0]
	@DEBUG_VALUE: ccm_auth_crypt:iv_len <- [DW_OP_plus_uconst 136] [$sp+0]
	@DEBUG_VALUE: ccm_auth_crypt:add <- [DW_OP_plus_uconst 140] [$sp+0]
	@DEBUG_VALUE: ccm_auth_crypt:add_len <- [DW_OP_plus_uconst 144] [$sp+0]
	@DEBUG_VALUE: ccm_auth_crypt:input <- [DW_OP_plus_uconst 148] [$sp+0]
	@DEBUG_VALUE: ccm_auth_crypt:output <- [DW_OP_plus_uconst 152] [$sp+0]
	@DEBUG_VALUE: ccm_auth_crypt:tag <- [DW_OP_plus_uconst 156] [$sp+0]
	@DEBUG_VALUE: ccm_auth_crypt:tag_len <- [DW_OP_plus_uconst 160] [$sp+0]
	@DEBUG_VALUE: ccm_auth_crypt:iv <- [DW_OP_LLVM_entry_value 1] $r3
	@DEBUG_VALUE: ccm_auth_crypt:ctx <- [DW_OP_LLVM_entry_value 1] $r0
	.loc	1 0 5 is_stmt 0                 @ ../../../ThirdParty/mbedTLS/library/ccm.c:0:5
	str	r4, [sp, #44]                   @ 4-byte Spill
.Ltmp88:
	.loc	1 272 26 is_stmt 1              @ ../../../ThirdParty/mbedTLS/library/ccm.c:272:26
	cmp	r5, #16
	mov	r6, r5
	blo	.LBB4_28
.Ltmp89:
@ %bb.27:                               @   in Loop: Header=BB4_25 Depth=1
	@DEBUG_VALUE: ccm_auth_crypt:len_left <- $r5
	@DEBUG_VALUE: ccm_auth_crypt:src <- [DW_OP_plus_uconst 48] [$sp+0]
	@DEBUG_VALUE: ccm_auth_crypt:dst <- [DW_OP_plus_uconst 40] [$sp+0]
	@DEBUG_VALUE: ccm_auth_crypt:olen <- [DW_OP_plus_uconst 112, DW_OP_deref] $sp
	@DEBUG_VALUE: ccm_auth_crypt:mode <- [DW_OP_plus_uconst 56] [$sp+0]
	@DEBUG_VALUE: ccm_auth_crypt:iv_len <- [DW_OP_plus_uconst 136] [$sp+0]
	@DEBUG_VALUE: ccm_auth_crypt:add <- [DW_OP_plus_uconst 140] [$sp+0]
	@DEBUG_VALUE: ccm_auth_crypt:add_len <- [DW_OP_plus_uconst 144] [$sp+0]
	@DEBUG_VALUE: ccm_auth_crypt:input <- [DW_OP_plus_uconst 148] [$sp+0]
	@DEBUG_VALUE: ccm_auth_crypt:output <- [DW_OP_plus_uconst 152] [$sp+0]
	@DEBUG_VALUE: ccm_auth_crypt:tag <- [DW_OP_plus_uconst 156] [$sp+0]
	@DEBUG_VALUE: ccm_auth_crypt:tag_len <- [DW_OP_plus_uconst 160] [$sp+0]
	@DEBUG_VALUE: ccm_auth_crypt:iv <- [DW_OP_LLVM_entry_value 1] $r3
	@DEBUG_VALUE: ccm_auth_crypt:ctx <- [DW_OP_LLVM_entry_value 1] $r0
	ldr	r6, [sp, #36]                   @ 4-byte Reload
.Ltmp90:
.LBB4_28:                               @   in Loop: Header=BB4_25 Depth=1
	@DEBUG_VALUE: ccm_auth_crypt:len_left <- $r5
	@DEBUG_VALUE: ccm_auth_crypt:src <- [DW_OP_plus_uconst 48] [$sp+0]
	@DEBUG_VALUE: ccm_auth_crypt:dst <- [DW_OP_plus_uconst 40] [$sp+0]
	@DEBUG_VALUE: ccm_auth_crypt:olen <- [DW_OP_plus_uconst 112, DW_OP_deref] $sp
	@DEBUG_VALUE: ccm_auth_crypt:mode <- [DW_OP_plus_uconst 56] [$sp+0]
	@DEBUG_VALUE: ccm_auth_crypt:iv_len <- [DW_OP_plus_uconst 136] [$sp+0]
	@DEBUG_VALUE: ccm_auth_crypt:add <- [DW_OP_plus_uconst 140] [$sp+0]
	@DEBUG_VALUE: ccm_auth_crypt:add_len <- [DW_OP_plus_uconst 144] [$sp+0]
	@DEBUG_VALUE: ccm_auth_crypt:input <- [DW_OP_plus_uconst 148] [$sp+0]
	@DEBUG_VALUE: ccm_auth_crypt:output <- [DW_OP_plus_uconst 152] [$sp+0]
	@DEBUG_VALUE: ccm_auth_crypt:tag <- [DW_OP_plus_uconst 156] [$sp+0]
	@DEBUG_VALUE: ccm_auth_crypt:tag_len <- [DW_OP_plus_uconst 160] [$sp+0]
	@DEBUG_VALUE: ccm_auth_crypt:iv <- [DW_OP_LLVM_entry_value 1] $r3
	@DEBUG_VALUE: ccm_auth_crypt:ctx <- [DW_OP_LLVM_entry_value 1] $r0
	@DEBUG_VALUE: use_len <- $r6
	.loc	1 274 13                        @ ../../../ThirdParty/mbedTLS/library/ccm.c:274:13
	ldr	r0, [sp, #56]                   @ 4-byte Reload
	cmp	r0, #0
	str	r5, [sp, #60]                   @ 4-byte Spill
.Ltmp91:
	@DEBUG_VALUE: ccm_auth_crypt:len_left <- [DW_OP_plus_uconst 60] [$sp+0]
	beq	.LBB4_43
.Ltmp92:
.LBB4_29:                               @   in Loop: Header=BB4_25 Depth=1
	@DEBUG_VALUE: use_len <- $r6
	@DEBUG_VALUE: ccm_auth_crypt:src <- [DW_OP_plus_uconst 48] [$sp+0]
	@DEBUG_VALUE: ccm_auth_crypt:dst <- [DW_OP_plus_uconst 40] [$sp+0]
	@DEBUG_VALUE: ccm_auth_crypt:olen <- [DW_OP_plus_uconst 112, DW_OP_deref] $sp
	@DEBUG_VALUE: ccm_auth_crypt:mode <- [DW_OP_plus_uconst 56] [$sp+0]
	@DEBUG_VALUE: ccm_auth_crypt:iv_len <- [DW_OP_plus_uconst 136] [$sp+0]
	@DEBUG_VALUE: ccm_auth_crypt:add <- [DW_OP_plus_uconst 140] [$sp+0]
	@DEBUG_VALUE: ccm_auth_crypt:add_len <- [DW_OP_plus_uconst 144] [$sp+0]
	@DEBUG_VALUE: ccm_auth_crypt:input <- [DW_OP_plus_uconst 148] [$sp+0]
	@DEBUG_VALUE: ccm_auth_crypt:output <- [DW_OP_plus_uconst 152] [$sp+0]
	@DEBUG_VALUE: ccm_auth_crypt:tag <- [DW_OP_plus_uconst 156] [$sp+0]
	@DEBUG_VALUE: ccm_auth_crypt:tag_len <- [DW_OP_plus_uconst 160] [$sp+0]
	@DEBUG_VALUE: ccm_auth_crypt:iv <- [DW_OP_LLVM_entry_value 1] $r3
	@DEBUG_VALUE: ccm_auth_crypt:ctx <- [DW_OP_LLVM_entry_value 1] $r0
	@DEBUG_VALUE: ccm_auth_crypt:olen <- [DW_OP_plus_uconst 112, DW_OP_deref] $sp
	.loc	1 0 13 is_stmt 0                @ ../../../ThirdParty/mbedTLS/library/ccm.c:0:13
	add	r0, sp, #112
.Ltmp93:
	.loc	1 281 9 is_stmt 1               @ ../../../ThirdParty/mbedTLS/library/ccm.c:281:9
	str	r0, [sp]
	add	r1, sp, #64
	movs	r4, #16
	add	r3, sp, #96
	ldr	r0, [sp, #52]                   @ 4-byte Reload
	mov	r2, r4
	bl	mbedtls_cipher_update
.Ltmp94:
	@DEBUG_VALUE: ccm_auth_crypt:ret <- $r0
	.loc	1 281 9 is_stmt 0               @ ../../../ThirdParty/mbedTLS/library/ccm.c:281:9
	cmp	r0, #0
	bne	.LBB4_23
.Ltmp95:
@ %bb.30:                               @   in Loop: Header=BB4_25 Depth=1
	@DEBUG_VALUE: use_len <- $r6
	@DEBUG_VALUE: ccm_auth_crypt:ret <- $r0
	@DEBUG_VALUE: ccm_auth_crypt:src <- [DW_OP_plus_uconst 48] [$sp+0]
	@DEBUG_VALUE: ccm_auth_crypt:dst <- [DW_OP_plus_uconst 40] [$sp+0]
	@DEBUG_VALUE: ccm_auth_crypt:olen <- [DW_OP_plus_uconst 112, DW_OP_deref] $sp
	@DEBUG_VALUE: ccm_auth_crypt:mode <- [DW_OP_plus_uconst 56] [$sp+0]
	@DEBUG_VALUE: ccm_auth_crypt:iv_len <- [DW_OP_plus_uconst 136] [$sp+0]
	@DEBUG_VALUE: ccm_auth_crypt:add <- [DW_OP_plus_uconst 140] [$sp+0]
	@DEBUG_VALUE: ccm_auth_crypt:add_len <- [DW_OP_plus_uconst 144] [$sp+0]
	@DEBUG_VALUE: ccm_auth_crypt:input <- [DW_OP_plus_uconst 148] [$sp+0]
	@DEBUG_VALUE: ccm_auth_crypt:output <- [DW_OP_plus_uconst 152] [$sp+0]
	@DEBUG_VALUE: ccm_auth_crypt:tag <- [DW_OP_plus_uconst 156] [$sp+0]
	@DEBUG_VALUE: ccm_auth_crypt:tag_len <- [DW_OP_plus_uconst 160] [$sp+0]
	@DEBUG_VALUE: ccm_auth_crypt:iv <- [DW_OP_LLVM_entry_value 1] $r3
	@DEBUG_VALUE: ccm_auth_crypt:ctx <- [DW_OP_LLVM_entry_value 1] $r0
	.loc	1 0 9                           @ ../../../ThirdParty/mbedTLS/library/ccm.c:0:9
	str	r4, [sp, #32]                   @ 4-byte Spill
	movs	r0, #0
.Ltmp96:
	mov	r1, r0
	ldr	r4, [sp, #40]                   @ 4-byte Reload
	ldr	r5, [sp, #48]                   @ 4-byte Reload
.Ltmp97:
.LBB4_31:                               @   Parent Loop BB4_25 Depth=1
                                        @ =>  This Inner Loop Header: Depth=2
	@DEBUG_VALUE: use_len <- $r6
	@DEBUG_VALUE: ccm_auth_crypt:src <- [DW_OP_plus_uconst 48] [$sp+0]
	@DEBUG_VALUE: ccm_auth_crypt:dst <- [DW_OP_plus_uconst 40] [$sp+0]
	@DEBUG_VALUE: ccm_auth_crypt:olen <- [DW_OP_plus_uconst 112, DW_OP_deref] $sp
	@DEBUG_VALUE: ccm_auth_crypt:mode <- [DW_OP_plus_uconst 56] [$sp+0]
	@DEBUG_VALUE: ccm_auth_crypt:iv_len <- [DW_OP_plus_uconst 136] [$sp+0]
	@DEBUG_VALUE: ccm_auth_crypt:add <- [DW_OP_plus_uconst 140] [$sp+0]
	@DEBUG_VALUE: ccm_auth_crypt:add_len <- [DW_OP_plus_uconst 144] [$sp+0]
	@DEBUG_VALUE: ccm_auth_crypt:input <- [DW_OP_plus_uconst 148] [$sp+0]
	@DEBUG_VALUE: ccm_auth_crypt:output <- [DW_OP_plus_uconst 152] [$sp+0]
	@DEBUG_VALUE: ccm_auth_crypt:tag <- [DW_OP_plus_uconst 156] [$sp+0]
	@DEBUG_VALUE: ccm_auth_crypt:tag_len <- [DW_OP_plus_uconst 160] [$sp+0]
	@DEBUG_VALUE: ccm_auth_crypt:iv <- [DW_OP_LLVM_entry_value 1] $r3
	@DEBUG_VALUE: ccm_auth_crypt:ctx <- [DW_OP_LLVM_entry_value 1] $r0
	@DEBUG_VALUE: ccm_auth_crypt:i <- $r1
	.loc	1 281 9                         @ ../../../ThirdParty/mbedTLS/library/ccm.c:281:9
	ldrb	r2, [r5, r0]
	add	r3, sp, #96
	ldrb	r3, [r3, r0]
	eors	r3, r2
	strb	r3, [r4, r0]
	adds	r1, r1, #1
.Ltmp98:
	@DEBUG_VALUE: ccm_auth_crypt:i <- $r1
	uxtb	r0, r1
.Ltmp99:
	.loc	1 281 9                         @ ../../../ThirdParty/mbedTLS/library/ccm.c:281:9
	cmp	r6, r0
	bhi	.LBB4_31
.Ltmp100:
@ %bb.32:                               @   in Loop: Header=BB4_25 Depth=1
	@DEBUG_VALUE: use_len <- $r6
	@DEBUG_VALUE: ccm_auth_crypt:i <- $r1
	@DEBUG_VALUE: ccm_auth_crypt:src <- [DW_OP_plus_uconst 48] [$sp+0]
	@DEBUG_VALUE: ccm_auth_crypt:dst <- [DW_OP_plus_uconst 40] [$sp+0]
	@DEBUG_VALUE: ccm_auth_crypt:olen <- [DW_OP_plus_uconst 112, DW_OP_deref] $sp
	@DEBUG_VALUE: ccm_auth_crypt:mode <- [DW_OP_plus_uconst 56] [$sp+0]
	@DEBUG_VALUE: ccm_auth_crypt:iv_len <- [DW_OP_plus_uconst 136] [$sp+0]
	@DEBUG_VALUE: ccm_auth_crypt:add <- [DW_OP_plus_uconst 140] [$sp+0]
	@DEBUG_VALUE: ccm_auth_crypt:add_len <- [DW_OP_plus_uconst 144] [$sp+0]
	@DEBUG_VALUE: ccm_auth_crypt:input <- [DW_OP_plus_uconst 148] [$sp+0]
	@DEBUG_VALUE: ccm_auth_crypt:output <- [DW_OP_plus_uconst 152] [$sp+0]
	@DEBUG_VALUE: ccm_auth_crypt:tag <- [DW_OP_plus_uconst 156] [$sp+0]
	@DEBUG_VALUE: ccm_auth_crypt:tag_len <- [DW_OP_plus_uconst 160] [$sp+0]
	@DEBUG_VALUE: ccm_auth_crypt:iv <- [DW_OP_LLVM_entry_value 1] $r3
	@DEBUG_VALUE: ccm_auth_crypt:ctx <- [DW_OP_LLVM_entry_value 1] $r0
	.loc	1 283 13 is_stmt 1              @ ../../../ThirdParty/mbedTLS/library/ccm.c:283:13
	ldr	r0, [sp, #56]                   @ 4-byte Reload
	cmp	r0, #1
	bne	.LBB4_38
.Ltmp101:
@ %bb.33:                               @   in Loop: Header=BB4_25 Depth=1
	@DEBUG_VALUE: use_len <- $r6
	@DEBUG_VALUE: ccm_auth_crypt:i <- $r1
	@DEBUG_VALUE: ccm_auth_crypt:src <- [DW_OP_plus_uconst 48] [$sp+0]
	@DEBUG_VALUE: ccm_auth_crypt:dst <- [DW_OP_plus_uconst 40] [$sp+0]
	@DEBUG_VALUE: ccm_auth_crypt:olen <- [DW_OP_plus_uconst 112, DW_OP_deref] $sp
	@DEBUG_VALUE: ccm_auth_crypt:mode <- [DW_OP_plus_uconst 56] [$sp+0]
	@DEBUG_VALUE: ccm_auth_crypt:iv_len <- [DW_OP_plus_uconst 136] [$sp+0]
	@DEBUG_VALUE: ccm_auth_crypt:add <- [DW_OP_plus_uconst 140] [$sp+0]
	@DEBUG_VALUE: ccm_auth_crypt:add_len <- [DW_OP_plus_uconst 144] [$sp+0]
	@DEBUG_VALUE: ccm_auth_crypt:input <- [DW_OP_plus_uconst 148] [$sp+0]
	@DEBUG_VALUE: ccm_auth_crypt:output <- [DW_OP_plus_uconst 152] [$sp+0]
	@DEBUG_VALUE: ccm_auth_crypt:tag <- [DW_OP_plus_uconst 156] [$sp+0]
	@DEBUG_VALUE: ccm_auth_crypt:tag_len <- [DW_OP_plus_uconst 160] [$sp+0]
	@DEBUG_VALUE: ccm_auth_crypt:iv <- [DW_OP_LLVM_entry_value 1] $r3
	@DEBUG_VALUE: ccm_auth_crypt:ctx <- [DW_OP_LLVM_entry_value 1] $r0
	.loc	1 0 13 is_stmt 0                @ ../../../ThirdParty/mbedTLS/library/ccm.c:0:13
	movs	r4, #0
.Ltmp102:
	.loc	1 286 13 is_stmt 1              @ ../../../ThirdParty/mbedTLS/library/ccm.c:286:13
	cmp	r6, #15
	mov	r1, r4
.Ltmp103:
	bhi	.LBB4_35
.Ltmp104:
@ %bb.34:                               @   in Loop: Header=BB4_25 Depth=1
	@DEBUG_VALUE: use_len <- $r6
	@DEBUG_VALUE: ccm_auth_crypt:src <- [DW_OP_plus_uconst 48] [$sp+0]
	@DEBUG_VALUE: ccm_auth_crypt:dst <- [DW_OP_plus_uconst 40] [$sp+0]
	@DEBUG_VALUE: ccm_auth_crypt:olen <- [DW_OP_plus_uconst 112, DW_OP_deref] $sp
	@DEBUG_VALUE: ccm_auth_crypt:mode <- [DW_OP_plus_uconst 56] [$sp+0]
	@DEBUG_VALUE: ccm_auth_crypt:iv_len <- [DW_OP_plus_uconst 136] [$sp+0]
	@DEBUG_VALUE: ccm_auth_crypt:add <- [DW_OP_plus_uconst 140] [$sp+0]
	@DEBUG_VALUE: ccm_auth_crypt:add_len <- [DW_OP_plus_uconst 144] [$sp+0]
	@DEBUG_VALUE: ccm_auth_crypt:input <- [DW_OP_plus_uconst 148] [$sp+0]
	@DEBUG_VALUE: ccm_auth_crypt:output <- [DW_OP_plus_uconst 152] [$sp+0]
	@DEBUG_VALUE: ccm_auth_crypt:tag <- [DW_OP_plus_uconst 156] [$sp+0]
	@DEBUG_VALUE: ccm_auth_crypt:tag_len <- [DW_OP_plus_uconst 160] [$sp+0]
	@DEBUG_VALUE: ccm_auth_crypt:iv <- [DW_OP_LLVM_entry_value 1] $r3
	@DEBUG_VALUE: ccm_auth_crypt:ctx <- [DW_OP_LLVM_entry_value 1] $r0
	.loc	1 0 13 is_stmt 0                @ ../../../ThirdParty/mbedTLS/library/ccm.c:0:13
	ldr	r0, [sp, #32]                   @ 4-byte Reload
	subs	r1, r0, r6
.Ltmp105:
.LBB4_35:                               @   in Loop: Header=BB4_25 Depth=1
	@DEBUG_VALUE: use_len <- $r6
	@DEBUG_VALUE: ccm_auth_crypt:src <- [DW_OP_plus_uconst 48] [$sp+0]
	@DEBUG_VALUE: ccm_auth_crypt:dst <- [DW_OP_plus_uconst 40] [$sp+0]
	@DEBUG_VALUE: ccm_auth_crypt:olen <- [DW_OP_plus_uconst 112, DW_OP_deref] $sp
	@DEBUG_VALUE: ccm_auth_crypt:mode <- [DW_OP_plus_uconst 56] [$sp+0]
	@DEBUG_VALUE: ccm_auth_crypt:iv_len <- [DW_OP_plus_uconst 136] [$sp+0]
	@DEBUG_VALUE: ccm_auth_crypt:add <- [DW_OP_plus_uconst 140] [$sp+0]
	@DEBUG_VALUE: ccm_auth_crypt:add_len <- [DW_OP_plus_uconst 144] [$sp+0]
	@DEBUG_VALUE: ccm_auth_crypt:input <- [DW_OP_plus_uconst 148] [$sp+0]
	@DEBUG_VALUE: ccm_auth_crypt:output <- [DW_OP_plus_uconst 152] [$sp+0]
	@DEBUG_VALUE: ccm_auth_crypt:tag <- [DW_OP_plus_uconst 156] [$sp+0]
	@DEBUG_VALUE: ccm_auth_crypt:tag_len <- [DW_OP_plus_uconst 160] [$sp+0]
	@DEBUG_VALUE: ccm_auth_crypt:iv <- [DW_OP_LLVM_entry_value 1] $r3
	@DEBUG_VALUE: ccm_auth_crypt:ctx <- [DW_OP_LLVM_entry_value 1] $r0
	add	r5, sp, #96
	.loc	1 286 13                        @ ../../../ThirdParty/mbedTLS/library/ccm.c:286:13
	adds	r0, r5, r6
	bl	__aeabi_memclr
	mov	r0, r5
	ldr	r1, [sp, #40]                   @ 4-byte Reload
	mov	r2, r6
	bl	__aeabi_memcpy
.Ltmp106:
	@DEBUG_VALUE: ccm_auth_crypt:i <- 0
.LBB4_36:                               @   Parent Loop BB4_25 Depth=1
                                        @ =>  This Inner Loop Header: Depth=2
	@DEBUG_VALUE: use_len <- $r6
	@DEBUG_VALUE: ccm_auth_crypt:src <- [DW_OP_plus_uconst 48] [$sp+0]
	@DEBUG_VALUE: ccm_auth_crypt:dst <- [DW_OP_plus_uconst 40] [$sp+0]
	@DEBUG_VALUE: ccm_auth_crypt:olen <- [DW_OP_plus_uconst 112, DW_OP_deref] $sp
	@DEBUG_VALUE: ccm_auth_crypt:mode <- [DW_OP_plus_uconst 56] [$sp+0]
	@DEBUG_VALUE: ccm_auth_crypt:iv_len <- [DW_OP_plus_uconst 136] [$sp+0]
	@DEBUG_VALUE: ccm_auth_crypt:add <- [DW_OP_plus_uconst 140] [$sp+0]
	@DEBUG_VALUE: ccm_auth_crypt:add_len <- [DW_OP_plus_uconst 144] [$sp+0]
	@DEBUG_VALUE: ccm_auth_crypt:input <- [DW_OP_plus_uconst 148] [$sp+0]
	@DEBUG_VALUE: ccm_auth_crypt:output <- [DW_OP_plus_uconst 152] [$sp+0]
	@DEBUG_VALUE: ccm_auth_crypt:tag <- [DW_OP_plus_uconst 156] [$sp+0]
	@DEBUG_VALUE: ccm_auth_crypt:tag_len <- [DW_OP_plus_uconst 160] [$sp+0]
	@DEBUG_VALUE: ccm_auth_crypt:iv <- [DW_OP_LLVM_entry_value 1] $r3
	@DEBUG_VALUE: ccm_auth_crypt:ctx <- [DW_OP_LLVM_entry_value 1] $r0
	@DEBUG_VALUE: ccm_auth_crypt:i <- $r4
	.loc	1 0 13                          @ ../../../ThirdParty/mbedTLS/library/ccm.c:0:13
	add	r0, sp, #96
.Ltmp107:
	.loc	1 287 13 is_stmt 1              @ ../../../ThirdParty/mbedTLS/library/ccm.c:287:13
	ldrb	r0, [r0, r4]
	add	r1, sp, #80
	ldrb	r2, [r1, r4]
	eors	r2, r0
	strb	r2, [r1, r4]
	adds	r4, r4, #1
.Ltmp108:
	@DEBUG_VALUE: ccm_auth_crypt:i <- $r4
	.loc	1 287 13 is_stmt 0              @ ../../../ThirdParty/mbedTLS/library/ccm.c:287:13
	cmp	r4, #16
	bne	.LBB4_36
.Ltmp109:
@ %bb.37:                               @   in Loop: Header=BB4_25 Depth=1
	@DEBUG_VALUE: use_len <- $r6
	@DEBUG_VALUE: ccm_auth_crypt:i <- $r4
	@DEBUG_VALUE: ccm_auth_crypt:src <- [DW_OP_plus_uconst 48] [$sp+0]
	@DEBUG_VALUE: ccm_auth_crypt:dst <- [DW_OP_plus_uconst 40] [$sp+0]
	@DEBUG_VALUE: ccm_auth_crypt:olen <- [DW_OP_plus_uconst 112, DW_OP_deref] $sp
	@DEBUG_VALUE: ccm_auth_crypt:mode <- [DW_OP_plus_uconst 56] [$sp+0]
	@DEBUG_VALUE: ccm_auth_crypt:iv_len <- [DW_OP_plus_uconst 136] [$sp+0]
	@DEBUG_VALUE: ccm_auth_crypt:add <- [DW_OP_plus_uconst 140] [$sp+0]
	@DEBUG_VALUE: ccm_auth_crypt:add_len <- [DW_OP_plus_uconst 144] [$sp+0]
	@DEBUG_VALUE: ccm_auth_crypt:input <- [DW_OP_plus_uconst 148] [$sp+0]
	@DEBUG_VALUE: ccm_auth_crypt:output <- [DW_OP_plus_uconst 152] [$sp+0]
	@DEBUG_VALUE: ccm_auth_crypt:tag <- [DW_OP_plus_uconst 156] [$sp+0]
	@DEBUG_VALUE: ccm_auth_crypt:tag_len <- [DW_OP_plus_uconst 160] [$sp+0]
	@DEBUG_VALUE: ccm_auth_crypt:iv <- [DW_OP_LLVM_entry_value 1] $r3
	@DEBUG_VALUE: ccm_auth_crypt:ctx <- [DW_OP_LLVM_entry_value 1] $r0
	@DEBUG_VALUE: ccm_auth_crypt:olen <- [DW_OP_plus_uconst 112, DW_OP_deref] $sp
	.loc	1 0 13                          @ ../../../ThirdParty/mbedTLS/library/ccm.c:0:13
	add	r0, sp, #112
.Ltmp110:
	.loc	1 287 13                        @ ../../../ThirdParty/mbedTLS/library/ccm.c:287:13
	str	r0, [sp]
	movs	r2, #16
	add	r1, sp, #80
	ldr	r0, [sp, #52]                   @ 4-byte Reload
	mov	r3, r1
	bl	mbedtls_cipher_update
.Ltmp111:
	@DEBUG_VALUE: ccm_auth_crypt:ret <- $r0
	.loc	1 287 13                        @ ../../../ThirdParty/mbedTLS/library/ccm.c:287:13
	cmp	r0, #0
	bne	.LBB4_23
.Ltmp112:
.LBB4_38:                               @   in Loop: Header=BB4_25 Depth=1
	@DEBUG_VALUE: use_len <- $r6
	@DEBUG_VALUE: ccm_auth_crypt:src <- [DW_OP_plus_uconst 48] [$sp+0]
	@DEBUG_VALUE: ccm_auth_crypt:dst <- [DW_OP_plus_uconst 40] [$sp+0]
	@DEBUG_VALUE: ccm_auth_crypt:olen <- [DW_OP_plus_uconst 112, DW_OP_deref] $sp
	@DEBUG_VALUE: ccm_auth_crypt:mode <- [DW_OP_plus_uconst 56] [$sp+0]
	@DEBUG_VALUE: ccm_auth_crypt:iv_len <- [DW_OP_plus_uconst 136] [$sp+0]
	@DEBUG_VALUE: ccm_auth_crypt:add <- [DW_OP_plus_uconst 140] [$sp+0]
	@DEBUG_VALUE: ccm_auth_crypt:add_len <- [DW_OP_plus_uconst 144] [$sp+0]
	@DEBUG_VALUE: ccm_auth_crypt:input <- [DW_OP_plus_uconst 148] [$sp+0]
	@DEBUG_VALUE: ccm_auth_crypt:output <- [DW_OP_plus_uconst 152] [$sp+0]
	@DEBUG_VALUE: ccm_auth_crypt:tag <- [DW_OP_plus_uconst 156] [$sp+0]
	@DEBUG_VALUE: ccm_auth_crypt:tag_len <- [DW_OP_plus_uconst 160] [$sp+0]
	@DEBUG_VALUE: ccm_auth_crypt:iv <- [DW_OP_LLVM_entry_value 1] $r3
	@DEBUG_VALUE: ccm_auth_crypt:ctx <- [DW_OP_LLVM_entry_value 1] $r0
	.loc	1 0 13                          @ ../../../ThirdParty/mbedTLS/library/ccm.c:0:13
	ldr	r5, [sp, #60]                   @ 4-byte Reload
	.loc	1 292 18 is_stmt 1              @ ../../../ThirdParty/mbedTLS/library/ccm.c:292:18
	subs	r5, r5, r6
.Ltmp113:
	@DEBUG_VALUE: ccm_auth_crypt:len_left <- $r5
	.loc	1 0 18 is_stmt 0                @ ../../../ThirdParty/mbedTLS/library/ccm.c:0:18
	ldr	r4, [sp, #48]                   @ 4-byte Reload
	.loc	1 291 13 is_stmt 1              @ ../../../ThirdParty/mbedTLS/library/ccm.c:291:13
	adds	r4, r4, r6
.Ltmp114:
	@DEBUG_VALUE: ccm_auth_crypt:src <- $r4
	.loc	1 0 13 is_stmt 0                @ ../../../ThirdParty/mbedTLS/library/ccm.c:0:13
	ldr	r3, [sp, #40]                   @ 4-byte Reload
	.loc	1 290 13 is_stmt 1              @ ../../../ThirdParty/mbedTLS/library/ccm.c:290:13
	adds	r3, r3, r6
.Ltmp115:
	@DEBUG_VALUE: ccm_auth_crypt:dst <- $r3
	@DEBUG_VALUE: ccm_auth_crypt:i <- 0
	.loc	1 298 9                         @ ../../../ThirdParty/mbedTLS/library/ccm.c:298:9
	str	r3, [sp, #40]                   @ 4-byte Spill
.Ltmp116:
	@DEBUG_VALUE: ccm_auth_crypt:dst <- [DW_OP_plus_uconst 40] [$sp+0]
	str	r4, [sp, #48]                   @ 4-byte Spill
.Ltmp117:
	@DEBUG_VALUE: ccm_auth_crypt:src <- [DW_OP_plus_uconst 48] [$sp+0]
	cbz	r7, .LBB4_42
.Ltmp118:
@ %bb.39:                               @   in Loop: Header=BB4_25 Depth=1
	@DEBUG_VALUE: ccm_auth_crypt:src <- [DW_OP_plus_uconst 48] [$sp+0]
	@DEBUG_VALUE: ccm_auth_crypt:dst <- [DW_OP_plus_uconst 40] [$sp+0]
	@DEBUG_VALUE: use_len <- $r6
	@DEBUG_VALUE: ccm_auth_crypt:len_left <- $r5
	@DEBUG_VALUE: ccm_auth_crypt:olen <- [DW_OP_plus_uconst 112, DW_OP_deref] $sp
	@DEBUG_VALUE: ccm_auth_crypt:mode <- [DW_OP_plus_uconst 56] [$sp+0]
	@DEBUG_VALUE: ccm_auth_crypt:iv_len <- [DW_OP_plus_uconst 136] [$sp+0]
	@DEBUG_VALUE: ccm_auth_crypt:add <- [DW_OP_plus_uconst 140] [$sp+0]
	@DEBUG_VALUE: ccm_auth_crypt:add_len <- [DW_OP_plus_uconst 144] [$sp+0]
	@DEBUG_VALUE: ccm_auth_crypt:input <- [DW_OP_plus_uconst 148] [$sp+0]
	@DEBUG_VALUE: ccm_auth_crypt:output <- [DW_OP_plus_uconst 152] [$sp+0]
	@DEBUG_VALUE: ccm_auth_crypt:tag <- [DW_OP_plus_uconst 156] [$sp+0]
	@DEBUG_VALUE: ccm_auth_crypt:tag_len <- [DW_OP_plus_uconst 160] [$sp+0]
	@DEBUG_VALUE: ccm_auth_crypt:iv <- [DW_OP_LLVM_entry_value 1] $r3
	@DEBUG_VALUE: ccm_auth_crypt:ctx <- [DW_OP_LLVM_entry_value 1] $r0
	@DEBUG_VALUE: ccm_auth_crypt:i <- 0
	.loc	1 0 9 is_stmt 0                 @ ../../../ThirdParty/mbedTLS/library/ccm.c:0:9
	movs	r1, #0
	mov	r0, r1
.Ltmp119:
.LBB4_40:                               @   Parent Loop BB4_25 Depth=1
                                        @ =>  This Inner Loop Header: Depth=2
	@DEBUG_VALUE: ccm_auth_crypt:src <- [DW_OP_plus_uconst 48] [$sp+0]
	@DEBUG_VALUE: ccm_auth_crypt:dst <- [DW_OP_plus_uconst 40] [$sp+0]
	@DEBUG_VALUE: use_len <- $r6
	@DEBUG_VALUE: ccm_auth_crypt:len_left <- $r5
	@DEBUG_VALUE: ccm_auth_crypt:olen <- [DW_OP_plus_uconst 112, DW_OP_deref] $sp
	@DEBUG_VALUE: ccm_auth_crypt:mode <- [DW_OP_plus_uconst 56] [$sp+0]
	@DEBUG_VALUE: ccm_auth_crypt:iv_len <- [DW_OP_plus_uconst 136] [$sp+0]
	@DEBUG_VALUE: ccm_auth_crypt:add <- [DW_OP_plus_uconst 140] [$sp+0]
	@DEBUG_VALUE: ccm_auth_crypt:add_len <- [DW_OP_plus_uconst 144] [$sp+0]
	@DEBUG_VALUE: ccm_auth_crypt:input <- [DW_OP_plus_uconst 148] [$sp+0]
	@DEBUG_VALUE: ccm_auth_crypt:output <- [DW_OP_plus_uconst 152] [$sp+0]
	@DEBUG_VALUE: ccm_auth_crypt:tag <- [DW_OP_plus_uconst 156] [$sp+0]
	@DEBUG_VALUE: ccm_auth_crypt:tag_len <- [DW_OP_plus_uconst 160] [$sp+0]
	@DEBUG_VALUE: ccm_auth_crypt:iv <- [DW_OP_LLVM_entry_value 1] $r3
	@DEBUG_VALUE: ccm_auth_crypt:ctx <- [DW_OP_LLVM_entry_value 1] $r0
	@DEBUG_VALUE: ccm_auth_crypt:i <- $r0
	add	r2, sp, #64
.Ltmp120:
	.loc	1 299 19 is_stmt 1              @ ../../../ThirdParty/mbedTLS/library/ccm.c:299:19
	subs	r1, r2, r1
	.loc	1 299 17 is_stmt 0              @ ../../../ThirdParty/mbedTLS/library/ccm.c:299:17
	ldrb	r2, [r1, #15]
	adds	r2, r2, #1
	strb	r2, [r1, #15]
	uxtb	r1, r2
.Ltmp121:
	@DEBUG_VALUE: ccm_auth_crypt:i <- undef
	.loc	1 299 17                        @ ../../../ThirdParty/mbedTLS/library/ccm.c:299:17
	cmp	r1, r2
	beq	.LBB4_42
.Ltmp122:
@ %bb.41:                               @   in Loop: Header=BB4_40 Depth=2
	@DEBUG_VALUE: ccm_auth_crypt:src <- [DW_OP_plus_uconst 48] [$sp+0]
	@DEBUG_VALUE: ccm_auth_crypt:dst <- [DW_OP_plus_uconst 40] [$sp+0]
	@DEBUG_VALUE: use_len <- $r6
	@DEBUG_VALUE: ccm_auth_crypt:len_left <- $r5
	@DEBUG_VALUE: ccm_auth_crypt:olen <- [DW_OP_plus_uconst 112, DW_OP_deref] $sp
	@DEBUG_VALUE: ccm_auth_crypt:mode <- [DW_OP_plus_uconst 56] [$sp+0]
	@DEBUG_VALUE: ccm_auth_crypt:iv_len <- [DW_OP_plus_uconst 136] [$sp+0]
	@DEBUG_VALUE: ccm_auth_crypt:add <- [DW_OP_plus_uconst 140] [$sp+0]
	@DEBUG_VALUE: ccm_auth_crypt:add_len <- [DW_OP_plus_uconst 144] [$sp+0]
	@DEBUG_VALUE: ccm_auth_crypt:input <- [DW_OP_plus_uconst 148] [$sp+0]
	@DEBUG_VALUE: ccm_auth_crypt:output <- [DW_OP_plus_uconst 152] [$sp+0]
	@DEBUG_VALUE: ccm_auth_crypt:tag <- [DW_OP_plus_uconst 156] [$sp+0]
	@DEBUG_VALUE: ccm_auth_crypt:tag_len <- [DW_OP_plus_uconst 160] [$sp+0]
	@DEBUG_VALUE: ccm_auth_crypt:iv <- [DW_OP_LLVM_entry_value 1] $r3
	@DEBUG_VALUE: ccm_auth_crypt:ctx <- [DW_OP_LLVM_entry_value 1] $r0
	.loc	1 0 0                           @ ../../../ThirdParty/mbedTLS/library/ccm.c:0:0
	adds	r0, r0, #1
.Ltmp123:
	@DEBUG_VALUE: ccm_auth_crypt:i <- $r0
	.loc	1 298 21 is_stmt 1              @ ../../../ThirdParty/mbedTLS/library/ccm.c:298:21
	uxtb	r1, r0
.Ltmp124:
	.loc	1 298 9 is_stmt 0               @ ../../../ThirdParty/mbedTLS/library/ccm.c:298:9
	cmp	r7, r1
	bhi	.LBB4_40
.Ltmp125:
.LBB4_42:                               @   in Loop: Header=BB4_25 Depth=1
	@DEBUG_VALUE: ccm_auth_crypt:src <- [DW_OP_plus_uconst 48] [$sp+0]
	@DEBUG_VALUE: ccm_auth_crypt:dst <- [DW_OP_plus_uconst 40] [$sp+0]
	@DEBUG_VALUE: use_len <- $r6
	@DEBUG_VALUE: ccm_auth_crypt:len_left <- $r5
	@DEBUG_VALUE: ccm_auth_crypt:olen <- [DW_OP_plus_uconst 112, DW_OP_deref] $sp
	@DEBUG_VALUE: ccm_auth_crypt:mode <- [DW_OP_plus_uconst 56] [$sp+0]
	@DEBUG_VALUE: ccm_auth_crypt:iv_len <- [DW_OP_plus_uconst 136] [$sp+0]
	@DEBUG_VALUE: ccm_auth_crypt:add <- [DW_OP_plus_uconst 140] [$sp+0]
	@DEBUG_VALUE: ccm_auth_crypt:add_len <- [DW_OP_plus_uconst 144] [$sp+0]
	@DEBUG_VALUE: ccm_auth_crypt:input <- [DW_OP_plus_uconst 148] [$sp+0]
	@DEBUG_VALUE: ccm_auth_crypt:output <- [DW_OP_plus_uconst 152] [$sp+0]
	@DEBUG_VALUE: ccm_auth_crypt:tag <- [DW_OP_plus_uconst 156] [$sp+0]
	@DEBUG_VALUE: ccm_auth_crypt:tag_len <- [DW_OP_plus_uconst 160] [$sp+0]
	@DEBUG_VALUE: ccm_auth_crypt:iv <- [DW_OP_LLVM_entry_value 1] $r3
	@DEBUG_VALUE: ccm_auth_crypt:ctx <- [DW_OP_LLVM_entry_value 1] $r0
	.loc	1 0 9                           @ ../../../ThirdParty/mbedTLS/library/ccm.c:0:9
	ldr	r1, [sp, #28]                   @ 4-byte Reload
	ldr	r4, [sp, #44]                   @ 4-byte Reload
	b	.LBB4_24
.Ltmp126:
.LBB4_43:                               @   in Loop: Header=BB4_25 Depth=1
	@DEBUG_VALUE: ccm_auth_crypt:len_left <- [DW_OP_plus_uconst 60] [$sp+0]
	@DEBUG_VALUE: use_len <- $r6
	@DEBUG_VALUE: ccm_auth_crypt:src <- [DW_OP_plus_uconst 48] [$sp+0]
	@DEBUG_VALUE: ccm_auth_crypt:dst <- [DW_OP_plus_uconst 40] [$sp+0]
	@DEBUG_VALUE: ccm_auth_crypt:olen <- [DW_OP_plus_uconst 112, DW_OP_deref] $sp
	@DEBUG_VALUE: ccm_auth_crypt:mode <- [DW_OP_plus_uconst 56] [$sp+0]
	@DEBUG_VALUE: ccm_auth_crypt:iv_len <- [DW_OP_plus_uconst 136] [$sp+0]
	@DEBUG_VALUE: ccm_auth_crypt:add <- [DW_OP_plus_uconst 140] [$sp+0]
	@DEBUG_VALUE: ccm_auth_crypt:add_len <- [DW_OP_plus_uconst 144] [$sp+0]
	@DEBUG_VALUE: ccm_auth_crypt:input <- [DW_OP_plus_uconst 148] [$sp+0]
	@DEBUG_VALUE: ccm_auth_crypt:output <- [DW_OP_plus_uconst 152] [$sp+0]
	@DEBUG_VALUE: ccm_auth_crypt:tag <- [DW_OP_plus_uconst 156] [$sp+0]
	@DEBUG_VALUE: ccm_auth_crypt:tag_len <- [DW_OP_plus_uconst 160] [$sp+0]
	@DEBUG_VALUE: ccm_auth_crypt:iv <- [DW_OP_LLVM_entry_value 1] $r3
	@DEBUG_VALUE: ccm_auth_crypt:ctx <- [DW_OP_LLVM_entry_value 1] $r0
	movs	r4, #0
.Ltmp127:
	.loc	1 277 13 is_stmt 1              @ ../../../ThirdParty/mbedTLS/library/ccm.c:277:13
	cmp	r6, #15
	mov	r1, r4
	bhi	.LBB4_45
.Ltmp128:
@ %bb.44:                               @   in Loop: Header=BB4_25 Depth=1
	@DEBUG_VALUE: ccm_auth_crypt:len_left <- [DW_OP_plus_uconst 60] [$sp+0]
	@DEBUG_VALUE: use_len <- $r6
	@DEBUG_VALUE: ccm_auth_crypt:src <- [DW_OP_plus_uconst 48] [$sp+0]
	@DEBUG_VALUE: ccm_auth_crypt:dst <- [DW_OP_plus_uconst 40] [$sp+0]
	@DEBUG_VALUE: ccm_auth_crypt:olen <- [DW_OP_plus_uconst 112, DW_OP_deref] $sp
	@DEBUG_VALUE: ccm_auth_crypt:mode <- [DW_OP_plus_uconst 56] [$sp+0]
	@DEBUG_VALUE: ccm_auth_crypt:iv_len <- [DW_OP_plus_uconst 136] [$sp+0]
	@DEBUG_VALUE: ccm_auth_crypt:add <- [DW_OP_plus_uconst 140] [$sp+0]
	@DEBUG_VALUE: ccm_auth_crypt:add_len <- [DW_OP_plus_uconst 144] [$sp+0]
	@DEBUG_VALUE: ccm_auth_crypt:input <- [DW_OP_plus_uconst 148] [$sp+0]
	@DEBUG_VALUE: ccm_auth_crypt:output <- [DW_OP_plus_uconst 152] [$sp+0]
	@DEBUG_VALUE: ccm_auth_crypt:tag <- [DW_OP_plus_uconst 156] [$sp+0]
	@DEBUG_VALUE: ccm_auth_crypt:tag_len <- [DW_OP_plus_uconst 160] [$sp+0]
	@DEBUG_VALUE: ccm_auth_crypt:iv <- [DW_OP_LLVM_entry_value 1] $r3
	@DEBUG_VALUE: ccm_auth_crypt:ctx <- [DW_OP_LLVM_entry_value 1] $r0
	.loc	1 0 13 is_stmt 0                @ ../../../ThirdParty/mbedTLS/library/ccm.c:0:13
	movs	r0, #16
	subs	r1, r0, r6
.Ltmp129:
.LBB4_45:                               @   in Loop: Header=BB4_25 Depth=1
	@DEBUG_VALUE: ccm_auth_crypt:len_left <- [DW_OP_plus_uconst 60] [$sp+0]
	@DEBUG_VALUE: use_len <- $r6
	@DEBUG_VALUE: ccm_auth_crypt:src <- [DW_OP_plus_uconst 48] [$sp+0]
	@DEBUG_VALUE: ccm_auth_crypt:dst <- [DW_OP_plus_uconst 40] [$sp+0]
	@DEBUG_VALUE: ccm_auth_crypt:olen <- [DW_OP_plus_uconst 112, DW_OP_deref] $sp
	@DEBUG_VALUE: ccm_auth_crypt:mode <- [DW_OP_plus_uconst 56] [$sp+0]
	@DEBUG_VALUE: ccm_auth_crypt:iv_len <- [DW_OP_plus_uconst 136] [$sp+0]
	@DEBUG_VALUE: ccm_auth_crypt:add <- [DW_OP_plus_uconst 140] [$sp+0]
	@DEBUG_VALUE: ccm_auth_crypt:add_len <- [DW_OP_plus_uconst 144] [$sp+0]
	@DEBUG_VALUE: ccm_auth_crypt:input <- [DW_OP_plus_uconst 148] [$sp+0]
	@DEBUG_VALUE: ccm_auth_crypt:output <- [DW_OP_plus_uconst 152] [$sp+0]
	@DEBUG_VALUE: ccm_auth_crypt:tag <- [DW_OP_plus_uconst 156] [$sp+0]
	@DEBUG_VALUE: ccm_auth_crypt:tag_len <- [DW_OP_plus_uconst 160] [$sp+0]
	@DEBUG_VALUE: ccm_auth_crypt:iv <- [DW_OP_LLVM_entry_value 1] $r3
	@DEBUG_VALUE: ccm_auth_crypt:ctx <- [DW_OP_LLVM_entry_value 1] $r0
	add	r5, sp, #96
	.loc	1 277 13                        @ ../../../ThirdParty/mbedTLS/library/ccm.c:277:13
	adds	r0, r5, r6
	bl	__aeabi_memclr
	mov	r0, r5
	ldr	r1, [sp, #48]                   @ 4-byte Reload
	mov	r2, r6
	bl	__aeabi_memcpy
.Ltmp130:
	@DEBUG_VALUE: ccm_auth_crypt:i <- 0
.LBB4_46:                               @   Parent Loop BB4_25 Depth=1
                                        @ =>  This Inner Loop Header: Depth=2
	@DEBUG_VALUE: ccm_auth_crypt:len_left <- [DW_OP_plus_uconst 60] [$sp+0]
	@DEBUG_VALUE: use_len <- $r6
	@DEBUG_VALUE: ccm_auth_crypt:src <- [DW_OP_plus_uconst 48] [$sp+0]
	@DEBUG_VALUE: ccm_auth_crypt:dst <- [DW_OP_plus_uconst 40] [$sp+0]
	@DEBUG_VALUE: ccm_auth_crypt:olen <- [DW_OP_plus_uconst 112, DW_OP_deref] $sp
	@DEBUG_VALUE: ccm_auth_crypt:mode <- [DW_OP_plus_uconst 56] [$sp+0]
	@DEBUG_VALUE: ccm_auth_crypt:iv_len <- [DW_OP_plus_uconst 136] [$sp+0]
	@DEBUG_VALUE: ccm_auth_crypt:add <- [DW_OP_plus_uconst 140] [$sp+0]
	@DEBUG_VALUE: ccm_auth_crypt:add_len <- [DW_OP_plus_uconst 144] [$sp+0]
	@DEBUG_VALUE: ccm_auth_crypt:input <- [DW_OP_plus_uconst 148] [$sp+0]
	@DEBUG_VALUE: ccm_auth_crypt:output <- [DW_OP_plus_uconst 152] [$sp+0]
	@DEBUG_VALUE: ccm_auth_crypt:tag <- [DW_OP_plus_uconst 156] [$sp+0]
	@DEBUG_VALUE: ccm_auth_crypt:tag_len <- [DW_OP_plus_uconst 160] [$sp+0]
	@DEBUG_VALUE: ccm_auth_crypt:iv <- [DW_OP_LLVM_entry_value 1] $r3
	@DEBUG_VALUE: ccm_auth_crypt:ctx <- [DW_OP_LLVM_entry_value 1] $r0
	@DEBUG_VALUE: ccm_auth_crypt:i <- $r4
	.loc	1 0 13                          @ ../../../ThirdParty/mbedTLS/library/ccm.c:0:13
	add	r0, sp, #96
.Ltmp131:
	.loc	1 278 13 is_stmt 1              @ ../../../ThirdParty/mbedTLS/library/ccm.c:278:13
	ldrb	r0, [r0, r4]
	add	r1, sp, #80
	ldrb	r2, [r1, r4]
	eors	r2, r0
	strb	r2, [r1, r4]
	adds	r4, r4, #1
.Ltmp132:
	@DEBUG_VALUE: ccm_auth_crypt:i <- $r4
	.loc	1 278 13 is_stmt 0              @ ../../../ThirdParty/mbedTLS/library/ccm.c:278:13
	cmp	r4, #16
	bne	.LBB4_46
.Ltmp133:
@ %bb.47:                               @   in Loop: Header=BB4_25 Depth=1
	@DEBUG_VALUE: ccm_auth_crypt:len_left <- [DW_OP_plus_uconst 60] [$sp+0]
	@DEBUG_VALUE: use_len <- $r6
	@DEBUG_VALUE: ccm_auth_crypt:i <- $r4
	@DEBUG_VALUE: ccm_auth_crypt:src <- [DW_OP_plus_uconst 48] [$sp+0]
	@DEBUG_VALUE: ccm_auth_crypt:dst <- [DW_OP_plus_uconst 40] [$sp+0]
	@DEBUG_VALUE: ccm_auth_crypt:olen <- [DW_OP_plus_uconst 112, DW_OP_deref] $sp
	@DEBUG_VALUE: ccm_auth_crypt:mode <- [DW_OP_plus_uconst 56] [$sp+0]
	@DEBUG_VALUE: ccm_auth_crypt:iv_len <- [DW_OP_plus_uconst 136] [$sp+0]
	@DEBUG_VALUE: ccm_auth_crypt:add <- [DW_OP_plus_uconst 140] [$sp+0]
	@DEBUG_VALUE: ccm_auth_crypt:add_len <- [DW_OP_plus_uconst 144] [$sp+0]
	@DEBUG_VALUE: ccm_auth_crypt:input <- [DW_OP_plus_uconst 148] [$sp+0]
	@DEBUG_VALUE: ccm_auth_crypt:output <- [DW_OP_plus_uconst 152] [$sp+0]
	@DEBUG_VALUE: ccm_auth_crypt:tag <- [DW_OP_plus_uconst 156] [$sp+0]
	@DEBUG_VALUE: ccm_auth_crypt:tag_len <- [DW_OP_plus_uconst 160] [$sp+0]
	@DEBUG_VALUE: ccm_auth_crypt:iv <- [DW_OP_LLVM_entry_value 1] $r3
	@DEBUG_VALUE: ccm_auth_crypt:ctx <- [DW_OP_LLVM_entry_value 1] $r0
	@DEBUG_VALUE: ccm_auth_crypt:olen <- [DW_OP_plus_uconst 112, DW_OP_deref] $sp
	.loc	1 0 13                          @ ../../../ThirdParty/mbedTLS/library/ccm.c:0:13
	add	r0, sp, #112
.Ltmp134:
	.loc	1 278 13                        @ ../../../ThirdParty/mbedTLS/library/ccm.c:278:13
	str	r0, [sp]
	movs	r2, #16
	add	r1, sp, #80
	ldr	r0, [sp, #52]                   @ 4-byte Reload
	mov	r3, r1
	bl	mbedtls_cipher_update
.Ltmp135:
	@DEBUG_VALUE: ccm_auth_crypt:ret <- $r0
	.loc	1 278 13                        @ ../../../ThirdParty/mbedTLS/library/ccm.c:278:13
	cmp	r0, #0
	ldr	r5, [sp, #60]                   @ 4-byte Reload
.Ltmp136:
	@DEBUG_VALUE: ccm_auth_crypt:len_left <- $r5
	beq	.LBB4_29
.Ltmp137:
@ %bb.48:                               @   in Loop: Header=BB4_25 Depth=1
	@DEBUG_VALUE: use_len <- $r6
	@DEBUG_VALUE: ccm_auth_crypt:len_left <- $r5
	@DEBUG_VALUE: ccm_auth_crypt:i <- $r4
	@DEBUG_VALUE: ccm_auth_crypt:ret <- $r0
	@DEBUG_VALUE: ccm_auth_crypt:src <- [DW_OP_plus_uconst 48] [$sp+0]
	@DEBUG_VALUE: ccm_auth_crypt:dst <- [DW_OP_plus_uconst 40] [$sp+0]
	@DEBUG_VALUE: ccm_auth_crypt:olen <- [DW_OP_plus_uconst 112, DW_OP_deref] $sp
	@DEBUG_VALUE: ccm_auth_crypt:mode <- [DW_OP_plus_uconst 56] [$sp+0]
	@DEBUG_VALUE: ccm_auth_crypt:iv_len <- [DW_OP_plus_uconst 136] [$sp+0]
	@DEBUG_VALUE: ccm_auth_crypt:add <- [DW_OP_plus_uconst 140] [$sp+0]
	@DEBUG_VALUE: ccm_auth_crypt:add_len <- [DW_OP_plus_uconst 144] [$sp+0]
	@DEBUG_VALUE: ccm_auth_crypt:input <- [DW_OP_plus_uconst 148] [$sp+0]
	@DEBUG_VALUE: ccm_auth_crypt:output <- [DW_OP_plus_uconst 152] [$sp+0]
	@DEBUG_VALUE: ccm_auth_crypt:tag <- [DW_OP_plus_uconst 156] [$sp+0]
	@DEBUG_VALUE: ccm_auth_crypt:tag_len <- [DW_OP_plus_uconst 160] [$sp+0]
	@DEBUG_VALUE: ccm_auth_crypt:iv <- [DW_OP_LLVM_entry_value 1] $r3
	@DEBUG_VALUE: ccm_auth_crypt:ctx <- [DW_OP_LLVM_entry_value 1] $r0
	.loc	1 0 13                          @ ../../../ThirdParty/mbedTLS/library/ccm.c:0:13
	movs	r1, #0
	mov	r4, r0
.Ltmp138:
	@DEBUG_VALUE: ccm_auth_crypt:ret <- $r4
	b	.LBB4_24
.Ltmp139:
.LBB4_49:
	@DEBUG_VALUE: ccm_auth_crypt:len_left <- $r5
	@DEBUG_VALUE: ccm_auth_crypt:src <- [DW_OP_plus_uconst 48] [$sp+0]
	@DEBUG_VALUE: ccm_auth_crypt:dst <- [DW_OP_plus_uconst 40] [$sp+0]
	@DEBUG_VALUE: ccm_auth_crypt:olen <- [DW_OP_plus_uconst 112, DW_OP_deref] $sp
	@DEBUG_VALUE: ccm_auth_crypt:mode <- [DW_OP_plus_uconst 56] [$sp+0]
	@DEBUG_VALUE: ccm_auth_crypt:iv_len <- [DW_OP_plus_uconst 136] [$sp+0]
	@DEBUG_VALUE: ccm_auth_crypt:add <- [DW_OP_plus_uconst 140] [$sp+0]
	@DEBUG_VALUE: ccm_auth_crypt:add_len <- [DW_OP_plus_uconst 144] [$sp+0]
	@DEBUG_VALUE: ccm_auth_crypt:input <- [DW_OP_plus_uconst 148] [$sp+0]
	@DEBUG_VALUE: ccm_auth_crypt:output <- [DW_OP_plus_uconst 152] [$sp+0]
	@DEBUG_VALUE: ccm_auth_crypt:tag <- [DW_OP_plus_uconst 156] [$sp+0]
	@DEBUG_VALUE: ccm_auth_crypt:tag_len <- [DW_OP_plus_uconst 160] [$sp+0]
	@DEBUG_VALUE: ccm_auth_crypt:iv <- [DW_OP_LLVM_entry_value 1] $r3
	@DEBUG_VALUE: ccm_auth_crypt:ctx <- [DW_OP_LLVM_entry_value 1] $r0
	@DEBUG_VALUE: ccm_auth_crypt:i <- 0
	.loc	1 306 5 is_stmt 1               @ ../../../ThirdParty/mbedTLS/library/ccm.c:306:5
	cbz	r7, .LBB4_52
.Ltmp140:
@ %bb.50:
	@DEBUG_VALUE: ccm_auth_crypt:len_left <- $r5
	@DEBUG_VALUE: ccm_auth_crypt:src <- [DW_OP_plus_uconst 48] [$sp+0]
	@DEBUG_VALUE: ccm_auth_crypt:dst <- [DW_OP_plus_uconst 40] [$sp+0]
	@DEBUG_VALUE: ccm_auth_crypt:olen <- [DW_OP_plus_uconst 112, DW_OP_deref] $sp
	@DEBUG_VALUE: ccm_auth_crypt:mode <- [DW_OP_plus_uconst 56] [$sp+0]
	@DEBUG_VALUE: ccm_auth_crypt:iv_len <- [DW_OP_plus_uconst 136] [$sp+0]
	@DEBUG_VALUE: ccm_auth_crypt:add <- [DW_OP_plus_uconst 140] [$sp+0]
	@DEBUG_VALUE: ccm_auth_crypt:add_len <- [DW_OP_plus_uconst 144] [$sp+0]
	@DEBUG_VALUE: ccm_auth_crypt:input <- [DW_OP_plus_uconst 148] [$sp+0]
	@DEBUG_VALUE: ccm_auth_crypt:output <- [DW_OP_plus_uconst 152] [$sp+0]
	@DEBUG_VALUE: ccm_auth_crypt:tag <- [DW_OP_plus_uconst 156] [$sp+0]
	@DEBUG_VALUE: ccm_auth_crypt:tag_len <- [DW_OP_plus_uconst 160] [$sp+0]
	@DEBUG_VALUE: ccm_auth_crypt:iv <- [DW_OP_LLVM_entry_value 1] $r3
	@DEBUG_VALUE: ccm_auth_crypt:ctx <- [DW_OP_LLVM_entry_value 1] $r0
	@DEBUG_VALUE: ccm_auth_crypt:i <- 0
	.loc	1 0 5 is_stmt 0                 @ ../../../ThirdParty/mbedTLS/library/ccm.c:0:5
	movs	r0, #0
	mov	r2, r0
	mov	r1, r0
.Ltmp141:
.LBB4_51:                               @ =>This Inner Loop Header: Depth=1
	@DEBUG_VALUE: ccm_auth_crypt:len_left <- $r5
	@DEBUG_VALUE: ccm_auth_crypt:src <- [DW_OP_plus_uconst 48] [$sp+0]
	@DEBUG_VALUE: ccm_auth_crypt:dst <- [DW_OP_plus_uconst 40] [$sp+0]
	@DEBUG_VALUE: ccm_auth_crypt:olen <- [DW_OP_plus_uconst 112, DW_OP_deref] $sp
	@DEBUG_VALUE: ccm_auth_crypt:mode <- [DW_OP_plus_uconst 56] [$sp+0]
	@DEBUG_VALUE: ccm_auth_crypt:iv_len <- [DW_OP_plus_uconst 136] [$sp+0]
	@DEBUG_VALUE: ccm_auth_crypt:add <- [DW_OP_plus_uconst 140] [$sp+0]
	@DEBUG_VALUE: ccm_auth_crypt:add_len <- [DW_OP_plus_uconst 144] [$sp+0]
	@DEBUG_VALUE: ccm_auth_crypt:input <- [DW_OP_plus_uconst 148] [$sp+0]
	@DEBUG_VALUE: ccm_auth_crypt:output <- [DW_OP_plus_uconst 152] [$sp+0]
	@DEBUG_VALUE: ccm_auth_crypt:tag <- [DW_OP_plus_uconst 156] [$sp+0]
	@DEBUG_VALUE: ccm_auth_crypt:tag_len <- [DW_OP_plus_uconst 160] [$sp+0]
	@DEBUG_VALUE: ccm_auth_crypt:iv <- [DW_OP_LLVM_entry_value 1] $r3
	@DEBUG_VALUE: ccm_auth_crypt:ctx <- [DW_OP_LLVM_entry_value 1] $r0
	@DEBUG_VALUE: ccm_auth_crypt:i <- $r1
	add	r3, sp, #64
.Ltmp142:
	.loc	1 307 9 is_stmt 1               @ ../../../ThirdParty/mbedTLS/library/ccm.c:307:9
	subs	r2, r3, r2
	.loc	1 307 19 is_stmt 0              @ ../../../ThirdParty/mbedTLS/library/ccm.c:307:19
	strb	r0, [r2, #15]
	.loc	1 306 25 is_stmt 1              @ ../../../ThirdParty/mbedTLS/library/ccm.c:306:25
	adds	r1, r1, #1
.Ltmp143:
	@DEBUG_VALUE: ccm_auth_crypt:i <- $r1
	.loc	1 306 17 is_stmt 0              @ ../../../ThirdParty/mbedTLS/library/ccm.c:306:17
	uxtb	r2, r1
.Ltmp144:
	.loc	1 306 5                         @ ../../../ThirdParty/mbedTLS/library/ccm.c:306:5
	cmp	r7, r2
	bhi	.LBB4_51
.Ltmp145:
.LBB4_52:
	@DEBUG_VALUE: ccm_auth_crypt:len_left <- $r5
	@DEBUG_VALUE: ccm_auth_crypt:src <- [DW_OP_plus_uconst 48] [$sp+0]
	@DEBUG_VALUE: ccm_auth_crypt:dst <- [DW_OP_plus_uconst 40] [$sp+0]
	@DEBUG_VALUE: ccm_auth_crypt:olen <- [DW_OP_plus_uconst 112, DW_OP_deref] $sp
	@DEBUG_VALUE: ccm_auth_crypt:mode <- [DW_OP_plus_uconst 56] [$sp+0]
	@DEBUG_VALUE: ccm_auth_crypt:iv_len <- [DW_OP_plus_uconst 136] [$sp+0]
	@DEBUG_VALUE: ccm_auth_crypt:add <- [DW_OP_plus_uconst 140] [$sp+0]
	@DEBUG_VALUE: ccm_auth_crypt:add_len <- [DW_OP_plus_uconst 144] [$sp+0]
	@DEBUG_VALUE: ccm_auth_crypt:input <- [DW_OP_plus_uconst 148] [$sp+0]
	@DEBUG_VALUE: ccm_auth_crypt:output <- [DW_OP_plus_uconst 152] [$sp+0]
	@DEBUG_VALUE: ccm_auth_crypt:tag <- [DW_OP_plus_uconst 156] [$sp+0]
	@DEBUG_VALUE: ccm_auth_crypt:tag_len <- [DW_OP_plus_uconst 160] [$sp+0]
	@DEBUG_VALUE: ccm_auth_crypt:iv <- [DW_OP_LLVM_entry_value 1] $r3
	@DEBUG_VALUE: ccm_auth_crypt:ctx <- [DW_OP_LLVM_entry_value 1] $r0
	@DEBUG_VALUE: ccm_auth_crypt:olen <- [DW_OP_plus_uconst 112, DW_OP_deref] $sp
	.loc	1 0 5                           @ ../../../ThirdParty/mbedTLS/library/ccm.c:0:5
	add	r0, sp, #112
.Ltmp146:
	.loc	1 309 5 is_stmt 1               @ ../../../ThirdParty/mbedTLS/library/ccm.c:309:5
	str	r0, [sp]
	add	r1, sp, #64
	movs	r2, #16
	add	r3, sp, #96
	ldr	r0, [sp, #52]                   @ 4-byte Reload
	bl	mbedtls_cipher_update
	mov	r4, r0
.Ltmp147:
	@DEBUG_VALUE: ccm_auth_crypt:ret <- $r4
	.loc	1 309 5 is_stmt 0               @ ../../../ThirdParty/mbedTLS/library/ccm.c:309:5
	cmp	r0, #0
	beq	.LBB4_53
	b	.LBB4_12
.Ltmp148:
.LBB4_53:
	@DEBUG_VALUE: ccm_auth_crypt:len_left <- $r5
	@DEBUG_VALUE: ccm_auth_crypt:ret <- $r4
	@DEBUG_VALUE: ccm_auth_crypt:src <- [DW_OP_plus_uconst 48] [$sp+0]
	@DEBUG_VALUE: ccm_auth_crypt:dst <- [DW_OP_plus_uconst 40] [$sp+0]
	@DEBUG_VALUE: ccm_auth_crypt:olen <- [DW_OP_plus_uconst 112, DW_OP_deref] $sp
	@DEBUG_VALUE: ccm_auth_crypt:mode <- [DW_OP_plus_uconst 56] [$sp+0]
	@DEBUG_VALUE: ccm_auth_crypt:iv_len <- [DW_OP_plus_uconst 136] [$sp+0]
	@DEBUG_VALUE: ccm_auth_crypt:add <- [DW_OP_plus_uconst 140] [$sp+0]
	@DEBUG_VALUE: ccm_auth_crypt:add_len <- [DW_OP_plus_uconst 144] [$sp+0]
	@DEBUG_VALUE: ccm_auth_crypt:input <- [DW_OP_plus_uconst 148] [$sp+0]
	@DEBUG_VALUE: ccm_auth_crypt:output <- [DW_OP_plus_uconst 152] [$sp+0]
	@DEBUG_VALUE: ccm_auth_crypt:tag <- [DW_OP_plus_uconst 156] [$sp+0]
	@DEBUG_VALUE: ccm_auth_crypt:tag_len <- [DW_OP_plus_uconst 160] [$sp+0]
	@DEBUG_VALUE: ccm_auth_crypt:iv <- [DW_OP_LLVM_entry_value 1] $r3
	@DEBUG_VALUE: ccm_auth_crypt:ctx <- [DW_OP_LLVM_entry_value 1] $r0
	.loc	1 0 5                           @ ../../../ThirdParty/mbedTLS/library/ccm.c:0:5
	movs	r0, #0
.Ltmp149:
.LBB4_54:                               @ =>This Inner Loop Header: Depth=1
	@DEBUG_VALUE: ccm_auth_crypt:len_left <- $r5
	@DEBUG_VALUE: ccm_auth_crypt:ret <- $r4
	@DEBUG_VALUE: ccm_auth_crypt:src <- [DW_OP_plus_uconst 48] [$sp+0]
	@DEBUG_VALUE: ccm_auth_crypt:dst <- [DW_OP_plus_uconst 40] [$sp+0]
	@DEBUG_VALUE: ccm_auth_crypt:olen <- [DW_OP_plus_uconst 112, DW_OP_deref] $sp
	@DEBUG_VALUE: ccm_auth_crypt:mode <- [DW_OP_plus_uconst 56] [$sp+0]
	@DEBUG_VALUE: ccm_auth_crypt:iv_len <- [DW_OP_plus_uconst 136] [$sp+0]
	@DEBUG_VALUE: ccm_auth_crypt:add <- [DW_OP_plus_uconst 140] [$sp+0]
	@DEBUG_VALUE: ccm_auth_crypt:add_len <- [DW_OP_plus_uconst 144] [$sp+0]
	@DEBUG_VALUE: ccm_auth_crypt:input <- [DW_OP_plus_uconst 148] [$sp+0]
	@DEBUG_VALUE: ccm_auth_crypt:output <- [DW_OP_plus_uconst 152] [$sp+0]
	@DEBUG_VALUE: ccm_auth_crypt:tag <- [DW_OP_plus_uconst 156] [$sp+0]
	@DEBUG_VALUE: ccm_auth_crypt:tag_len <- [DW_OP_plus_uconst 160] [$sp+0]
	@DEBUG_VALUE: ccm_auth_crypt:iv <- [DW_OP_LLVM_entry_value 1] $r3
	@DEBUG_VALUE: ccm_auth_crypt:ctx <- [DW_OP_LLVM_entry_value 1] $r0
	@DEBUG_VALUE: ccm_auth_crypt:i <- $r0
	add	r1, sp, #80
.Ltmp150:
	.loc	1 309 5                         @ ../../../ThirdParty/mbedTLS/library/ccm.c:309:5
	ldrb	r2, [r1, r0]
	add	r3, sp, #96
	ldrb	r3, [r3, r0]
	eors	r3, r2
	strb	r3, [r1, r0]
	adds	r0, r0, #1
.Ltmp151:
	@DEBUG_VALUE: ccm_auth_crypt:i <- $r0
	.loc	1 309 5                         @ ../../../ThirdParty/mbedTLS/library/ccm.c:309:5
	cmp	r0, #16
	bne	.LBB4_54
.Ltmp152:
@ %bb.55:
	@DEBUG_VALUE: ccm_auth_crypt:len_left <- $r5
	@DEBUG_VALUE: ccm_auth_crypt:ret <- $r4
	@DEBUG_VALUE: ccm_auth_crypt:i <- $r0
	@DEBUG_VALUE: ccm_auth_crypt:src <- [DW_OP_plus_uconst 48] [$sp+0]
	@DEBUG_VALUE: ccm_auth_crypt:dst <- [DW_OP_plus_uconst 40] [$sp+0]
	@DEBUG_VALUE: ccm_auth_crypt:olen <- [DW_OP_plus_uconst 112, DW_OP_deref] $sp
	@DEBUG_VALUE: ccm_auth_crypt:mode <- [DW_OP_plus_uconst 56] [$sp+0]
	@DEBUG_VALUE: ccm_auth_crypt:iv_len <- [DW_OP_plus_uconst 136] [$sp+0]
	@DEBUG_VALUE: ccm_auth_crypt:add <- [DW_OP_plus_uconst 140] [$sp+0]
	@DEBUG_VALUE: ccm_auth_crypt:add_len <- [DW_OP_plus_uconst 144] [$sp+0]
	@DEBUG_VALUE: ccm_auth_crypt:input <- [DW_OP_plus_uconst 148] [$sp+0]
	@DEBUG_VALUE: ccm_auth_crypt:output <- [DW_OP_plus_uconst 152] [$sp+0]
	@DEBUG_VALUE: ccm_auth_crypt:tag <- [DW_OP_plus_uconst 156] [$sp+0]
	@DEBUG_VALUE: ccm_auth_crypt:tag_len <- [DW_OP_plus_uconst 160] [$sp+0]
	@DEBUG_VALUE: ccm_auth_crypt:iv <- [DW_OP_LLVM_entry_value 1] $r3
	@DEBUG_VALUE: ccm_auth_crypt:ctx <- [DW_OP_LLVM_entry_value 1] $r0
	.loc	1 0 5                           @ ../../../ThirdParty/mbedTLS/library/ccm.c:0:5
	add	r1, sp, #80
	.loc	1 310 5 is_stmt 1               @ ../../../ThirdParty/mbedTLS/library/ccm.c:310:5
	ldr	r0, [sp, #8]                    @ 4-byte Reload
.Ltmp153:
	ldr	r2, [sp, #20]                   @ 4-byte Reload
	bl	__aeabi_memcpy
	movs	r4, #0
.Ltmp154:
	.loc	1 0 5 is_stmt 0                 @ ../../../ThirdParty/mbedTLS/library/ccm.c:0:5
	b	.LBB4_12
.Ltmp155:
.LBB4_56:
	@DEBUG_VALUE: ccm_auth_crypt:iv <- [DW_OP_plus_uconst 32] [$sp+0]
	@DEBUG_VALUE: ccm_auth_crypt:len_left <- $r6
	@DEBUG_VALUE: ccm_auth_crypt:ret <- $r0
	@DEBUG_VALUE: use_len <- [DW_OP_plus_uconst 12] [$sp+0]
	@DEBUG_VALUE: ccm_auth_crypt:olen <- [DW_OP_plus_uconst 112, DW_OP_deref] $sp
	@DEBUG_VALUE: ccm_auth_crypt:mode <- [DW_OP_plus_uconst 56] [$sp+0]
	@DEBUG_VALUE: ccm_auth_crypt:iv_len <- [DW_OP_plus_uconst 136] [$sp+0]
	@DEBUG_VALUE: ccm_auth_crypt:add <- [DW_OP_plus_uconst 140] [$sp+0]
	@DEBUG_VALUE: ccm_auth_crypt:add_len <- [DW_OP_plus_uconst 144] [$sp+0]
	@DEBUG_VALUE: ccm_auth_crypt:input <- [DW_OP_plus_uconst 148] [$sp+0]
	@DEBUG_VALUE: ccm_auth_crypt:output <- [DW_OP_plus_uconst 152] [$sp+0]
	@DEBUG_VALUE: ccm_auth_crypt:tag <- [DW_OP_plus_uconst 156] [$sp+0]
	@DEBUG_VALUE: ccm_auth_crypt:tag_len <- [DW_OP_plus_uconst 160] [$sp+0]
	@DEBUG_VALUE: ccm_auth_crypt:ctx <- [DW_OP_LLVM_entry_value 1] $r0
	@DEBUG_VALUE: ccm_auth_crypt:len_left <- $r6
	@DEBUG_VALUE: ccm_auth_crypt:src <- undef
	.loc	1 232 9 is_stmt 1               @ ../../../ThirdParty/mbedTLS/library/ccm.c:232:9
	cbz	r6, .LBB4_66
.Ltmp156:
@ %bb.57:
	@DEBUG_VALUE: ccm_auth_crypt:iv <- [DW_OP_plus_uconst 32] [$sp+0]
	@DEBUG_VALUE: ccm_auth_crypt:len_left <- $r6
	@DEBUG_VALUE: ccm_auth_crypt:ret <- $r0
	@DEBUG_VALUE: use_len <- [DW_OP_plus_uconst 12] [$sp+0]
	@DEBUG_VALUE: ccm_auth_crypt:olen <- [DW_OP_plus_uconst 112, DW_OP_deref] $sp
	@DEBUG_VALUE: ccm_auth_crypt:mode <- [DW_OP_plus_uconst 56] [$sp+0]
	@DEBUG_VALUE: ccm_auth_crypt:iv_len <- [DW_OP_plus_uconst 136] [$sp+0]
	@DEBUG_VALUE: ccm_auth_crypt:add <- [DW_OP_plus_uconst 140] [$sp+0]
	@DEBUG_VALUE: ccm_auth_crypt:add_len <- [DW_OP_plus_uconst 144] [$sp+0]
	@DEBUG_VALUE: ccm_auth_crypt:input <- [DW_OP_plus_uconst 148] [$sp+0]
	@DEBUG_VALUE: ccm_auth_crypt:output <- [DW_OP_plus_uconst 152] [$sp+0]
	@DEBUG_VALUE: ccm_auth_crypt:tag <- [DW_OP_plus_uconst 156] [$sp+0]
	@DEBUG_VALUE: ccm_auth_crypt:tag_len <- [DW_OP_plus_uconst 160] [$sp+0]
	@DEBUG_VALUE: ccm_auth_crypt:ctx <- [DW_OP_LLVM_entry_value 1] $r0
	.loc	1 228 13                        @ ../../../ThirdParty/mbedTLS/library/ccm.c:228:13
	ldr	r0, [sp, #16]                   @ 4-byte Reload
.Ltmp157:
	ldr	r1, [sp, #12]                   @ 4-byte Reload
	adds	r0, r0, r1
.Ltmp158:
	@DEBUG_VALUE: ccm_auth_crypt:src <- $r0
	.loc	1 0 13 is_stmt 0                @ ../../../ThirdParty/mbedTLS/library/ccm.c:0:13
	str	r0, [sp, #16]                   @ 4-byte Spill
.Ltmp159:
	@DEBUG_VALUE: ccm_auth_crypt:src <- [DW_OP_plus_uconst 16] [$sp+0]
	@DEBUG_VALUE: ccm_auth_crypt:src <- [DW_OP_plus_uconst 16] [$sp+0]
	movs	r0, #0
	str	r0, [sp, #44]                   @ 4-byte Spill
	str	r5, [sp, #4]                    @ 4-byte Spill
.Ltmp160:
.LBB4_58:                               @ =>This Loop Header: Depth=1
                                        @     Child Loop BB4_63 Depth 2
	@DEBUG_VALUE: ccm_auth_crypt:iv <- [DW_OP_plus_uconst 32] [$sp+0]
	@DEBUG_VALUE: ccm_auth_crypt:len_left <- $r6
	@DEBUG_VALUE: ccm_auth_crypt:src <- [DW_OP_plus_uconst 16] [$sp+0]
	@DEBUG_VALUE: ccm_auth_crypt:olen <- [DW_OP_plus_uconst 112, DW_OP_deref] $sp
	@DEBUG_VALUE: ccm_auth_crypt:mode <- [DW_OP_plus_uconst 56] [$sp+0]
	@DEBUG_VALUE: ccm_auth_crypt:iv_len <- [DW_OP_plus_uconst 136] [$sp+0]
	@DEBUG_VALUE: ccm_auth_crypt:add <- [DW_OP_plus_uconst 140] [$sp+0]
	@DEBUG_VALUE: ccm_auth_crypt:add_len <- [DW_OP_plus_uconst 144] [$sp+0]
	@DEBUG_VALUE: ccm_auth_crypt:input <- [DW_OP_plus_uconst 148] [$sp+0]
	@DEBUG_VALUE: ccm_auth_crypt:output <- [DW_OP_plus_uconst 152] [$sp+0]
	@DEBUG_VALUE: ccm_auth_crypt:tag <- [DW_OP_plus_uconst 156] [$sp+0]
	@DEBUG_VALUE: ccm_auth_crypt:tag_len <- [DW_OP_plus_uconst 160] [$sp+0]
	@DEBUG_VALUE: ccm_auth_crypt:ctx <- [DW_OP_LLVM_entry_value 1] $r0
	@DEBUG_VALUE: ccm_auth_crypt:len_left <- $r6
	@DEBUG_VALUE: ccm_auth_crypt:src <- [DW_OP_plus_uconst 16] [$sp+0]
	.loc	1 234 23 is_stmt 1              @ ../../../ThirdParty/mbedTLS/library/ccm.c:234:23
	cmp	r6, #16
	str	r6, [sp, #12]                   @ 4-byte Spill
.Ltmp161:
	@DEBUG_VALUE: ccm_auth_crypt:len_left <- [DW_OP_plus_uconst 12] [$sp+0]
	blo	.LBB4_60
.Ltmp162:
@ %bb.59:                               @   in Loop: Header=BB4_58 Depth=1
	@DEBUG_VALUE: ccm_auth_crypt:iv <- [DW_OP_plus_uconst 32] [$sp+0]
	@DEBUG_VALUE: ccm_auth_crypt:len_left <- [DW_OP_plus_uconst 12] [$sp+0]
	@DEBUG_VALUE: ccm_auth_crypt:src <- [DW_OP_plus_uconst 16] [$sp+0]
	@DEBUG_VALUE: ccm_auth_crypt:olen <- [DW_OP_plus_uconst 112, DW_OP_deref] $sp
	@DEBUG_VALUE: ccm_auth_crypt:mode <- [DW_OP_plus_uconst 56] [$sp+0]
	@DEBUG_VALUE: ccm_auth_crypt:iv_len <- [DW_OP_plus_uconst 136] [$sp+0]
	@DEBUG_VALUE: ccm_auth_crypt:add <- [DW_OP_plus_uconst 140] [$sp+0]
	@DEBUG_VALUE: ccm_auth_crypt:add_len <- [DW_OP_plus_uconst 144] [$sp+0]
	@DEBUG_VALUE: ccm_auth_crypt:input <- [DW_OP_plus_uconst 148] [$sp+0]
	@DEBUG_VALUE: ccm_auth_crypt:output <- [DW_OP_plus_uconst 152] [$sp+0]
	@DEBUG_VALUE: ccm_auth_crypt:tag <- [DW_OP_plus_uconst 156] [$sp+0]
	@DEBUG_VALUE: ccm_auth_crypt:tag_len <- [DW_OP_plus_uconst 160] [$sp+0]
	@DEBUG_VALUE: ccm_auth_crypt:ctx <- [DW_OP_LLVM_entry_value 1] $r0
	mov	r6, r5
.Ltmp163:
.LBB4_60:                               @   in Loop: Header=BB4_58 Depth=1
	@DEBUG_VALUE: ccm_auth_crypt:iv <- [DW_OP_plus_uconst 32] [$sp+0]
	@DEBUG_VALUE: ccm_auth_crypt:len_left <- [DW_OP_plus_uconst 12] [$sp+0]
	@DEBUG_VALUE: ccm_auth_crypt:src <- [DW_OP_plus_uconst 16] [$sp+0]
	@DEBUG_VALUE: ccm_auth_crypt:olen <- [DW_OP_plus_uconst 112, DW_OP_deref] $sp
	@DEBUG_VALUE: ccm_auth_crypt:mode <- [DW_OP_plus_uconst 56] [$sp+0]
	@DEBUG_VALUE: ccm_auth_crypt:iv_len <- [DW_OP_plus_uconst 136] [$sp+0]
	@DEBUG_VALUE: ccm_auth_crypt:add <- [DW_OP_plus_uconst 140] [$sp+0]
	@DEBUG_VALUE: ccm_auth_crypt:add_len <- [DW_OP_plus_uconst 144] [$sp+0]
	@DEBUG_VALUE: ccm_auth_crypt:input <- [DW_OP_plus_uconst 148] [$sp+0]
	@DEBUG_VALUE: ccm_auth_crypt:output <- [DW_OP_plus_uconst 152] [$sp+0]
	@DEBUG_VALUE: ccm_auth_crypt:tag <- [DW_OP_plus_uconst 156] [$sp+0]
	@DEBUG_VALUE: ccm_auth_crypt:tag_len <- [DW_OP_plus_uconst 160] [$sp+0]
	@DEBUG_VALUE: ccm_auth_crypt:ctx <- [DW_OP_LLVM_entry_value 1] $r0
	@DEBUG_VALUE: use_len <- $r6
	.loc	1 237 13                        @ ../../../ThirdParty/mbedTLS/library/ccm.c:237:13
	cmp	r6, #15
	ldr	r1, [sp, #44]                   @ 4-byte Reload
	bhi	.LBB4_62
.Ltmp164:
@ %bb.61:                               @   in Loop: Header=BB4_58 Depth=1
	@DEBUG_VALUE: ccm_auth_crypt:iv <- [DW_OP_plus_uconst 32] [$sp+0]
	@DEBUG_VALUE: use_len <- $r6
	@DEBUG_VALUE: ccm_auth_crypt:len_left <- [DW_OP_plus_uconst 12] [$sp+0]
	@DEBUG_VALUE: ccm_auth_crypt:src <- [DW_OP_plus_uconst 16] [$sp+0]
	@DEBUG_VALUE: ccm_auth_crypt:olen <- [DW_OP_plus_uconst 112, DW_OP_deref] $sp
	@DEBUG_VALUE: ccm_auth_crypt:mode <- [DW_OP_plus_uconst 56] [$sp+0]
	@DEBUG_VALUE: ccm_auth_crypt:iv_len <- [DW_OP_plus_uconst 136] [$sp+0]
	@DEBUG_VALUE: ccm_auth_crypt:add <- [DW_OP_plus_uconst 140] [$sp+0]
	@DEBUG_VALUE: ccm_auth_crypt:add_len <- [DW_OP_plus_uconst 144] [$sp+0]
	@DEBUG_VALUE: ccm_auth_crypt:input <- [DW_OP_plus_uconst 148] [$sp+0]
	@DEBUG_VALUE: ccm_auth_crypt:output <- [DW_OP_plus_uconst 152] [$sp+0]
	@DEBUG_VALUE: ccm_auth_crypt:tag <- [DW_OP_plus_uconst 156] [$sp+0]
	@DEBUG_VALUE: ccm_auth_crypt:tag_len <- [DW_OP_plus_uconst 160] [$sp+0]
	@DEBUG_VALUE: ccm_auth_crypt:ctx <- [DW_OP_LLVM_entry_value 1] $r0
	.loc	1 0 13 is_stmt 0                @ ../../../ThirdParty/mbedTLS/library/ccm.c:0:13
	subs	r1, r5, r6
.Ltmp165:
.LBB4_62:                               @   in Loop: Header=BB4_58 Depth=1
	@DEBUG_VALUE: ccm_auth_crypt:iv <- [DW_OP_plus_uconst 32] [$sp+0]
	@DEBUG_VALUE: use_len <- $r6
	@DEBUG_VALUE: ccm_auth_crypt:len_left <- [DW_OP_plus_uconst 12] [$sp+0]
	@DEBUG_VALUE: ccm_auth_crypt:src <- [DW_OP_plus_uconst 16] [$sp+0]
	@DEBUG_VALUE: ccm_auth_crypt:olen <- [DW_OP_plus_uconst 112, DW_OP_deref] $sp
	@DEBUG_VALUE: ccm_auth_crypt:mode <- [DW_OP_plus_uconst 56] [$sp+0]
	@DEBUG_VALUE: ccm_auth_crypt:iv_len <- [DW_OP_plus_uconst 136] [$sp+0]
	@DEBUG_VALUE: ccm_auth_crypt:add <- [DW_OP_plus_uconst 140] [$sp+0]
	@DEBUG_VALUE: ccm_auth_crypt:add_len <- [DW_OP_plus_uconst 144] [$sp+0]
	@DEBUG_VALUE: ccm_auth_crypt:input <- [DW_OP_plus_uconst 148] [$sp+0]
	@DEBUG_VALUE: ccm_auth_crypt:output <- [DW_OP_plus_uconst 152] [$sp+0]
	@DEBUG_VALUE: ccm_auth_crypt:tag <- [DW_OP_plus_uconst 156] [$sp+0]
	@DEBUG_VALUE: ccm_auth_crypt:tag_len <- [DW_OP_plus_uconst 160] [$sp+0]
	@DEBUG_VALUE: ccm_auth_crypt:ctx <- [DW_OP_LLVM_entry_value 1] $r0
	add	r5, sp, #96
	.loc	1 237 13                        @ ../../../ThirdParty/mbedTLS/library/ccm.c:237:13
	adds	r0, r5, r6
	bl	__aeabi_memclr
	mov	r0, r5
	ldr	r5, [sp, #16]                   @ 4-byte Reload
	mov	r1, r5
	mov	r2, r6
	bl	__aeabi_memcpy
.Ltmp166:
	@DEBUG_VALUE: ccm_auth_crypt:i <- 0
	.loc	1 0 13                          @ ../../../ThirdParty/mbedTLS/library/ccm.c:0:13
	ldr	r0, [sp, #44]                   @ 4-byte Reload
.Ltmp167:
.LBB4_63:                               @   Parent Loop BB4_58 Depth=1
                                        @ =>  This Inner Loop Header: Depth=2
	@DEBUG_VALUE: ccm_auth_crypt:iv <- [DW_OP_plus_uconst 32] [$sp+0]
	@DEBUG_VALUE: use_len <- $r6
	@DEBUG_VALUE: ccm_auth_crypt:len_left <- [DW_OP_plus_uconst 12] [$sp+0]
	@DEBUG_VALUE: ccm_auth_crypt:src <- [DW_OP_plus_uconst 16] [$sp+0]
	@DEBUG_VALUE: ccm_auth_crypt:olen <- [DW_OP_plus_uconst 112, DW_OP_deref] $sp
	@DEBUG_VALUE: ccm_auth_crypt:mode <- [DW_OP_plus_uconst 56] [$sp+0]
	@DEBUG_VALUE: ccm_auth_crypt:iv_len <- [DW_OP_plus_uconst 136] [$sp+0]
	@DEBUG_VALUE: ccm_auth_crypt:add <- [DW_OP_plus_uconst 140] [$sp+0]
	@DEBUG_VALUE: ccm_auth_crypt:add_len <- [DW_OP_plus_uconst 144] [$sp+0]
	@DEBUG_VALUE: ccm_auth_crypt:input <- [DW_OP_plus_uconst 148] [$sp+0]
	@DEBUG_VALUE: ccm_auth_crypt:output <- [DW_OP_plus_uconst 152] [$sp+0]
	@DEBUG_VALUE: ccm_auth_crypt:tag <- [DW_OP_plus_uconst 156] [$sp+0]
	@DEBUG_VALUE: ccm_auth_crypt:tag_len <- [DW_OP_plus_uconst 160] [$sp+0]
	@DEBUG_VALUE: ccm_auth_crypt:ctx <- [DW_OP_LLVM_entry_value 1] $r0
	@DEBUG_VALUE: ccm_auth_crypt:i <- $r0
	add	r1, sp, #96
.Ltmp168:
	.loc	1 238 13 is_stmt 1              @ ../../../ThirdParty/mbedTLS/library/ccm.c:238:13
	ldrb	r1, [r1, r0]
	add	r2, sp, #80
	ldrb	r3, [r2, r0]
	eors	r3, r1
	strb	r3, [r2, r0]
	adds	r0, r0, #1
.Ltmp169:
	@DEBUG_VALUE: ccm_auth_crypt:i <- $r0
	.loc	1 238 13 is_stmt 0              @ ../../../ThirdParty/mbedTLS/library/ccm.c:238:13
	cmp	r0, #16
	bne	.LBB4_63
.Ltmp170:
@ %bb.64:                               @   in Loop: Header=BB4_58 Depth=1
	@DEBUG_VALUE: ccm_auth_crypt:iv <- [DW_OP_plus_uconst 32] [$sp+0]
	@DEBUG_VALUE: use_len <- $r6
	@DEBUG_VALUE: ccm_auth_crypt:i <- $r0
	@DEBUG_VALUE: ccm_auth_crypt:len_left <- [DW_OP_plus_uconst 12] [$sp+0]
	@DEBUG_VALUE: ccm_auth_crypt:src <- [DW_OP_plus_uconst 16] [$sp+0]
	@DEBUG_VALUE: ccm_auth_crypt:olen <- [DW_OP_plus_uconst 112, DW_OP_deref] $sp
	@DEBUG_VALUE: ccm_auth_crypt:mode <- [DW_OP_plus_uconst 56] [$sp+0]
	@DEBUG_VALUE: ccm_auth_crypt:iv_len <- [DW_OP_plus_uconst 136] [$sp+0]
	@DEBUG_VALUE: ccm_auth_crypt:add <- [DW_OP_plus_uconst 140] [$sp+0]
	@DEBUG_VALUE: ccm_auth_crypt:add_len <- [DW_OP_plus_uconst 144] [$sp+0]
	@DEBUG_VALUE: ccm_auth_crypt:input <- [DW_OP_plus_uconst 148] [$sp+0]
	@DEBUG_VALUE: ccm_auth_crypt:output <- [DW_OP_plus_uconst 152] [$sp+0]
	@DEBUG_VALUE: ccm_auth_crypt:tag <- [DW_OP_plus_uconst 156] [$sp+0]
	@DEBUG_VALUE: ccm_auth_crypt:tag_len <- [DW_OP_plus_uconst 160] [$sp+0]
	@DEBUG_VALUE: ccm_auth_crypt:ctx <- [DW_OP_LLVM_entry_value 1] $r0
	@DEBUG_VALUE: ccm_auth_crypt:olen <- [DW_OP_plus_uconst 112, DW_OP_deref] $sp
	.loc	1 0 13                          @ ../../../ThirdParty/mbedTLS/library/ccm.c:0:13
	add	r0, sp, #112
.Ltmp171:
	.loc	1 238 13                        @ ../../../ThirdParty/mbedTLS/library/ccm.c:238:13
	str	r0, [sp]
	movs	r2, #16
	add	r1, sp, #80
	ldr	r0, [sp, #52]                   @ 4-byte Reload
	mov	r3, r1
	bl	mbedtls_cipher_update
	mov	r4, r0
.Ltmp172:
	@DEBUG_VALUE: ccm_auth_crypt:ret <- $r4
	rsbs	r0, r0, #0
	adcs	r0, r4
.Ltmp173:
	.loc	1 238 13                        @ ../../../ThirdParty/mbedTLS/library/ccm.c:238:13
	cmp	r4, #0
	beq	.LBB4_65
	b	.LBB4_20
.Ltmp174:
.LBB4_65:                               @   in Loop: Header=BB4_58 Depth=1
	@DEBUG_VALUE: ccm_auth_crypt:iv <- [DW_OP_plus_uconst 32] [$sp+0]
	@DEBUG_VALUE: use_len <- $r6
	@DEBUG_VALUE: ccm_auth_crypt:ret <- $r4
	@DEBUG_VALUE: ccm_auth_crypt:len_left <- [DW_OP_plus_uconst 12] [$sp+0]
	@DEBUG_VALUE: ccm_auth_crypt:src <- [DW_OP_plus_uconst 16] [$sp+0]
	@DEBUG_VALUE: ccm_auth_crypt:olen <- [DW_OP_plus_uconst 112, DW_OP_deref] $sp
	@DEBUG_VALUE: ccm_auth_crypt:mode <- [DW_OP_plus_uconst 56] [$sp+0]
	@DEBUG_VALUE: ccm_auth_crypt:iv_len <- [DW_OP_plus_uconst 136] [$sp+0]
	@DEBUG_VALUE: ccm_auth_crypt:add <- [DW_OP_plus_uconst 140] [$sp+0]
	@DEBUG_VALUE: ccm_auth_crypt:add_len <- [DW_OP_plus_uconst 144] [$sp+0]
	@DEBUG_VALUE: ccm_auth_crypt:input <- [DW_OP_plus_uconst 148] [$sp+0]
	@DEBUG_VALUE: ccm_auth_crypt:output <- [DW_OP_plus_uconst 152] [$sp+0]
	@DEBUG_VALUE: ccm_auth_crypt:tag <- [DW_OP_plus_uconst 156] [$sp+0]
	@DEBUG_VALUE: ccm_auth_crypt:tag_len <- [DW_OP_plus_uconst 160] [$sp+0]
	@DEBUG_VALUE: ccm_auth_crypt:ctx <- [DW_OP_LLVM_entry_value 1] $r0
	.loc	1 241 17 is_stmt 1              @ ../../../ThirdParty/mbedTLS/library/ccm.c:241:17
	adds	r5, r5, r6
.Ltmp175:
	@DEBUG_VALUE: ccm_auth_crypt:src <- $r5
	.loc	1 0 17 is_stmt 0                @ ../../../ThirdParty/mbedTLS/library/ccm.c:0:17
	str	r5, [sp, #16]                   @ 4-byte Spill
.Ltmp176:
	@DEBUG_VALUE: ccm_auth_crypt:src <- [DW_OP_plus_uconst 16] [$sp+0]
	@DEBUG_VALUE: ccm_auth_crypt:src <- [DW_OP_plus_uconst 16] [$sp+0]
	ldr	r1, [sp, #12]                   @ 4-byte Reload
	.loc	1 240 22 is_stmt 1              @ ../../../ThirdParty/mbedTLS/library/ccm.c:240:22
	subs	r1, r1, r6
.Ltmp177:
	@DEBUG_VALUE: ccm_auth_crypt:len_left <- $r1
	.loc	1 0 22 is_stmt 0                @ ../../../ThirdParty/mbedTLS/library/ccm.c:0:22
	mov	r6, r1
.Ltmp178:
	@DEBUG_VALUE: ccm_auth_crypt:len_left <- $r6
	@DEBUG_VALUE: ccm_auth_crypt:len_left <- $r6
	ldr	r5, [sp, #4]                    @ 4-byte Reload
.Ltmp179:
	.loc	1 232 9 is_stmt 1               @ ../../../ThirdParty/mbedTLS/library/ccm.c:232:9
	bne	.LBB4_58
	b	.LBB4_20
.Ltmp180:
.LBB4_66:
	@DEBUG_VALUE: ccm_auth_crypt:iv <- [DW_OP_plus_uconst 32] [$sp+0]
	@DEBUG_VALUE: ccm_auth_crypt:len_left <- $r6
	@DEBUG_VALUE: ccm_auth_crypt:ret <- $r0
	@DEBUG_VALUE: use_len <- [DW_OP_plus_uconst 12] [$sp+0]
	@DEBUG_VALUE: ccm_auth_crypt:olen <- [DW_OP_plus_uconst 112, DW_OP_deref] $sp
	@DEBUG_VALUE: ccm_auth_crypt:mode <- [DW_OP_plus_uconst 56] [$sp+0]
	@DEBUG_VALUE: ccm_auth_crypt:iv_len <- [DW_OP_plus_uconst 136] [$sp+0]
	@DEBUG_VALUE: ccm_auth_crypt:add <- [DW_OP_plus_uconst 140] [$sp+0]
	@DEBUG_VALUE: ccm_auth_crypt:add_len <- [DW_OP_plus_uconst 144] [$sp+0]
	@DEBUG_VALUE: ccm_auth_crypt:input <- [DW_OP_plus_uconst 148] [$sp+0]
	@DEBUG_VALUE: ccm_auth_crypt:output <- [DW_OP_plus_uconst 152] [$sp+0]
	@DEBUG_VALUE: ccm_auth_crypt:tag <- [DW_OP_plus_uconst 156] [$sp+0]
	@DEBUG_VALUE: ccm_auth_crypt:tag_len <- [DW_OP_plus_uconst 160] [$sp+0]
	@DEBUG_VALUE: ccm_auth_crypt:ctx <- [DW_OP_LLVM_entry_value 1] $r0
                                        @ implicit-def: $r4
	.loc	1 0 9 is_stmt 0                 @ ../../../ThirdParty/mbedTLS/library/ccm.c:0:9
	ldr	r0, [sp, #44]                   @ 4-byte Reload
.Ltmp181:
	b	.LBB4_20
.Lfunc_end4:
	.size	ccm_auth_crypt, .Lfunc_end4-ccm_auth_crypt
	.cfi_endproc
	.cantunwind
	.fnend
                                        @ -- End function
	.section	.text.mbedtls_ccm_encrypt_and_tag,"ax",%progbits
	.hidden	mbedtls_ccm_encrypt_and_tag     @ -- Begin function mbedtls_ccm_encrypt_and_tag
	.globl	mbedtls_ccm_encrypt_and_tag
	.p2align	1
	.type	mbedtls_ccm_encrypt_and_tag,%function
	.code	16                              @ @mbedtls_ccm_encrypt_and_tag
	.thumb_func
mbedtls_ccm_encrypt_and_tag:
.Lfunc_begin5:
	.loc	1 339 0 is_stmt 1               @ ../../../ThirdParty/mbedTLS/library/ccm.c:339:0
	.fnstart
	.cfi_startproc
@ %bb.0:
	@DEBUG_VALUE: mbedtls_ccm_encrypt_and_tag:ctx <- $r0
	@DEBUG_VALUE: mbedtls_ccm_encrypt_and_tag:length <- $r1
	@DEBUG_VALUE: mbedtls_ccm_encrypt_and_tag:iv <- $r2
	@DEBUG_VALUE: mbedtls_ccm_encrypt_and_tag:iv_len <- $r3
	.save	{r4, r5, r6, r7, lr}
	push	{r4, r5, r6, r7, lr}
	.cfi_def_cfa_offset 20
	.cfi_offset lr, -4
	.cfi_offset r7, -8
	.cfi_offset r6, -12
	.cfi_offset r5, -16
	.cfi_offset r4, -20
	.pad	#36
	sub	sp, #36
	.cfi_def_cfa_offset 56
	ldr	r4, [sp, #76]
.Ltmp182:
	@DEBUG_VALUE: mbedtls_ccm_encrypt_and_tag:tag_len <- [DW_OP_plus_uconst 76] [$sp+0]
	@DEBUG_VALUE: mbedtls_ccm_encrypt_and_tag:tag <- [DW_OP_plus_uconst 72] [$sp+0]
	@DEBUG_VALUE: mbedtls_ccm_encrypt_and_tag:output <- [DW_OP_plus_uconst 68] [$sp+0]
	@DEBUG_VALUE: mbedtls_ccm_encrypt_and_tag:input <- [DW_OP_plus_uconst 64] [$sp+0]
	@DEBUG_VALUE: mbedtls_ccm_encrypt_and_tag:add_len <- [DW_OP_plus_uconst 60] [$sp+0]
	@DEBUG_VALUE: mbedtls_ccm_encrypt_and_tag:add <- [DW_OP_plus_uconst 56] [$sp+0]
	@DEBUG_VALUE: mbedtls_ccm_encrypt_and_tag:iv_len <- $r3
	@DEBUG_VALUE: mbedtls_ccm_encrypt_and_tag:iv <- $r2
	@DEBUG_VALUE: mbedtls_ccm_encrypt_and_tag:length <- $r1
	@DEBUG_VALUE: mbedtls_ccm_encrypt_and_tag:ctx <- $r0
	.loc	1 346 9 prologue_end            @ ../../../ThirdParty/mbedTLS/library/ccm.c:346:9
	cbz	r4, .LBB5_2
.Ltmp183:
@ %bb.1:
	@DEBUG_VALUE: mbedtls_ccm_encrypt_and_tag:iv_len <- $r3
	@DEBUG_VALUE: mbedtls_ccm_encrypt_and_tag:iv <- $r2
	@DEBUG_VALUE: mbedtls_ccm_encrypt_and_tag:length <- $r1
	@DEBUG_VALUE: mbedtls_ccm_encrypt_and_tag:ctx <- $r0
	@DEBUG_VALUE: mbedtls_ccm_encrypt_and_tag:add <- [DW_OP_plus_uconst 56] [$sp+0]
	@DEBUG_VALUE: mbedtls_ccm_encrypt_and_tag:add_len <- [DW_OP_plus_uconst 60] [$sp+0]
	@DEBUG_VALUE: mbedtls_ccm_encrypt_and_tag:input <- [DW_OP_plus_uconst 64] [$sp+0]
	@DEBUG_VALUE: mbedtls_ccm_encrypt_and_tag:output <- [DW_OP_plus_uconst 68] [$sp+0]
	@DEBUG_VALUE: mbedtls_ccm_encrypt_and_tag:tag <- [DW_OP_plus_uconst 72] [$sp+0]
	@DEBUG_VALUE: mbedtls_ccm_encrypt_and_tag:tag_len <- [DW_OP_plus_uconst 76] [$sp+0]
	.loc	1 0 9 is_stmt 0                 @ ../../../ThirdParty/mbedTLS/library/ccm.c:0:9
	mov	r5, r2
.Ltmp184:
	@DEBUG_VALUE: mbedtls_ccm_encrypt_and_tag:iv <- $r5
	ldr	r2, [sp, #72]
	str	r2, [sp, #28]                   @ 4-byte Spill
	ldr	r6, [sp, #68]
	ldr	r7, [sp, #64]
	str	r3, [sp, #32]                   @ 4-byte Spill
.Ltmp185:
	@DEBUG_VALUE: mbedtls_ccm_encrypt_and_tag:iv_len <- [DW_OP_plus_uconst 32] [$sp+0]
	ldr	r3, [sp, #60]
	ldr	r2, [sp, #56]
	.loc	1 349 13 is_stmt 1              @ ../../../ThirdParty/mbedTLS/library/ccm.c:349:13
	str	r2, [sp]
	str	r3, [sp, #4]
	str	r7, [sp, #8]
	str	r6, [sp, #12]
	ldr	r2, [sp, #28]                   @ 4-byte Reload
	str	r2, [sp, #16]
	str	r4, [sp, #20]
	mov	r2, r5
	ldr	r3, [sp, #32]                   @ 4-byte Reload
.Ltmp186:
	@DEBUG_VALUE: mbedtls_ccm_encrypt_and_tag:iv_len <- $r3
	bl	mbedtls_ccm_star_encrypt_and_tag
.Ltmp187:
	@DEBUG_VALUE: mbedtls_ccm_encrypt_and_tag:iv_len <- [DW_OP_LLVM_entry_value 1] $r3
	@DEBUG_VALUE: mbedtls_ccm_encrypt_and_tag:length <- [DW_OP_LLVM_entry_value 1] $r1
	@DEBUG_VALUE: mbedtls_ccm_encrypt_and_tag:ctx <- [DW_OP_LLVM_entry_value 1] $r0
	.loc	1 351 1                         @ ../../../ThirdParty/mbedTLS/library/ccm.c:351:1
	add	sp, #36
.Ltmp188:
	pop	{r4, r5, r6, r7, pc}
.Ltmp189:
.LBB5_2:
	@DEBUG_VALUE: mbedtls_ccm_encrypt_and_tag:iv_len <- $r3
	@DEBUG_VALUE: mbedtls_ccm_encrypt_and_tag:iv <- $r2
	@DEBUG_VALUE: mbedtls_ccm_encrypt_and_tag:length <- $r1
	@DEBUG_VALUE: mbedtls_ccm_encrypt_and_tag:ctx <- $r0
	@DEBUG_VALUE: mbedtls_ccm_encrypt_and_tag:add <- [DW_OP_plus_uconst 56] [$sp+0]
	@DEBUG_VALUE: mbedtls_ccm_encrypt_and_tag:add_len <- [DW_OP_plus_uconst 60] [$sp+0]
	@DEBUG_VALUE: mbedtls_ccm_encrypt_and_tag:input <- [DW_OP_plus_uconst 64] [$sp+0]
	@DEBUG_VALUE: mbedtls_ccm_encrypt_and_tag:output <- [DW_OP_plus_uconst 68] [$sp+0]
	@DEBUG_VALUE: mbedtls_ccm_encrypt_and_tag:tag <- [DW_OP_plus_uconst 72] [$sp+0]
	@DEBUG_VALUE: mbedtls_ccm_encrypt_and_tag:tag_len <- [DW_OP_plus_uconst 76] [$sp+0]
	.loc	1 0 1 is_stmt 0                 @ ../../../ThirdParty/mbedTLS/library/ccm.c:0:1
	movs	r0, #12
.Ltmp190:
	@DEBUG_VALUE: mbedtls_ccm_encrypt_and_tag:ctx <- [DW_OP_LLVM_entry_value 1] $r0
	mvns	r0, r0
	.loc	1 351 1                         @ ../../../ThirdParty/mbedTLS/library/ccm.c:351:1
	add	sp, #36
.Ltmp191:
	pop	{r4, r5, r6, r7, pc}
.Ltmp192:
.Lfunc_end5:
	.size	mbedtls_ccm_encrypt_and_tag, .Lfunc_end5-mbedtls_ccm_encrypt_and_tag
	.cfi_endproc
	.cantunwind
	.fnend
                                        @ -- End function
	.section	.text.mbedtls_ccm_star_auth_decrypt,"ax",%progbits
	.hidden	mbedtls_ccm_star_auth_decrypt   @ -- Begin function mbedtls_ccm_star_auth_decrypt
	.globl	mbedtls_ccm_star_auth_decrypt
	.p2align	1
	.type	mbedtls_ccm_star_auth_decrypt,%function
	.code	16                              @ @mbedtls_ccm_star_auth_decrypt
	.thumb_func
mbedtls_ccm_star_auth_decrypt:
.Lfunc_begin6:
	.loc	1 361 0 is_stmt 1               @ ../../../ThirdParty/mbedTLS/library/ccm.c:361:0
	.fnstart
	.cfi_startproc
@ %bb.0:
	@DEBUG_VALUE: mbedtls_ccm_star_auth_decrypt:ctx <- $r0
	@DEBUG_VALUE: mbedtls_ccm_star_auth_decrypt:length <- $r1
	@DEBUG_VALUE: mbedtls_ccm_star_auth_decrypt:iv <- $r2
	@DEBUG_VALUE: mbedtls_ccm_star_auth_decrypt:iv_len <- $r3
	.save	{r4, r5, r6, r7, lr}
	push	{r4, r5, r6, r7, lr}
	.cfi_def_cfa_offset 20
	.cfi_offset lr, -4
	.cfi_offset r7, -8
	.cfi_offset r6, -12
	.cfi_offset r5, -16
	.cfi_offset r4, -20
	.pad	#52
	sub	sp, #52
	.cfi_def_cfa_offset 72
	mov	r6, r2
	mov	r4, r1
.Ltmp193:
	@DEBUG_VALUE: mbedtls_ccm_star_auth_decrypt:tag_len <- [DW_OP_plus_uconst 92] [$sp+0]
	@DEBUG_VALUE: mbedtls_ccm_star_auth_decrypt:tag <- [DW_OP_plus_uconst 88] [$sp+0]
	@DEBUG_VALUE: mbedtls_ccm_star_auth_decrypt:output <- [DW_OP_plus_uconst 84] [$sp+0]
	@DEBUG_VALUE: mbedtls_ccm_star_auth_decrypt:input <- [DW_OP_plus_uconst 80] [$sp+0]
	@DEBUG_VALUE: mbedtls_ccm_star_auth_decrypt:add_len <- [DW_OP_plus_uconst 76] [$sp+0]
	@DEBUG_VALUE: mbedtls_ccm_star_auth_decrypt:add <- [DW_OP_plus_uconst 72] [$sp+0]
	@DEBUG_VALUE: mbedtls_ccm_star_auth_decrypt:iv_len <- $r3
	@DEBUG_VALUE: mbedtls_ccm_star_auth_decrypt:iv <- $r6
	@DEBUG_VALUE: mbedtls_ccm_star_auth_decrypt:length <- $r4
	@DEBUG_VALUE: mbedtls_ccm_star_auth_decrypt:ctx <- $r0
	ldr	r7, [sp, #92]
.Ltmp194:
	.loc	1 374 17 prologue_end           @ ../../../ThirdParty/mbedTLS/library/ccm.c:374:17
	str	r7, [sp, #24]
	add	r1, sp, #36
	str	r1, [sp, #20]
	ldr	r5, [sp, #84]
	str	r5, [sp, #16]
	ldr	r1, [sp, #80]
	str	r1, [sp, #12]
	ldr	r1, [sp, #76]
	str	r1, [sp, #8]
	ldr	r1, [sp, #72]
	str	r1, [sp, #4]
	str	r3, [sp]
	movs	r1, #1
	@DEBUG_VALUE: mbedtls_ccm_star_auth_decrypt:ctx <- $r0
	mov	r2, r4
	mov	r3, r6
.Ltmp195:
	@DEBUG_VALUE: mbedtls_ccm_star_auth_decrypt:iv_len <- [DW_OP_LLVM_entry_value 1] $r3
	@DEBUG_VALUE: mbedtls_ccm_star_auth_decrypt:iv <- $r3
	bl	ccm_auth_crypt
.Ltmp196:
	@DEBUG_VALUE: mbedtls_ccm_star_auth_decrypt:ctx <- [DW_OP_LLVM_entry_value 1] $r0
	@DEBUG_VALUE: mbedtls_ccm_star_auth_decrypt:ret <- $r0
	.loc	1 374 9 is_stmt 0               @ ../../../ThirdParty/mbedTLS/library/ccm.c:374:9
	cbz	r0, .LBB6_2
.Ltmp197:
@ %bb.1:
	@DEBUG_VALUE: mbedtls_ccm_star_auth_decrypt:length <- $r4
	@DEBUG_VALUE: mbedtls_ccm_star_auth_decrypt:ret <- $r0
	@DEBUG_VALUE: mbedtls_ccm_star_auth_decrypt:add <- [DW_OP_plus_uconst 72] [$sp+0]
	@DEBUG_VALUE: mbedtls_ccm_star_auth_decrypt:add_len <- [DW_OP_plus_uconst 76] [$sp+0]
	@DEBUG_VALUE: mbedtls_ccm_star_auth_decrypt:input <- [DW_OP_plus_uconst 80] [$sp+0]
	@DEBUG_VALUE: mbedtls_ccm_star_auth_decrypt:output <- [DW_OP_plus_uconst 84] [$sp+0]
	@DEBUG_VALUE: mbedtls_ccm_star_auth_decrypt:tag <- [DW_OP_plus_uconst 88] [$sp+0]
	@DEBUG_VALUE: mbedtls_ccm_star_auth_decrypt:tag_len <- [DW_OP_plus_uconst 92] [$sp+0]
	@DEBUG_VALUE: mbedtls_ccm_star_auth_decrypt:ctx <- [DW_OP_LLVM_entry_value 1] $r0
	@DEBUG_VALUE: mbedtls_ccm_star_auth_decrypt:iv_len <- [DW_OP_LLVM_entry_value 1] $r3
	.loc	1 392 1 is_stmt 1               @ ../../../ThirdParty/mbedTLS/library/ccm.c:392:1
	add	sp, #52
.Ltmp198:
	pop	{r4, r5, r6, r7, pc}
.Ltmp199:
.LBB6_2:
	@DEBUG_VALUE: mbedtls_ccm_star_auth_decrypt:length <- $r4
	@DEBUG_VALUE: mbedtls_ccm_star_auth_decrypt:ret <- $r0
	@DEBUG_VALUE: mbedtls_ccm_star_auth_decrypt:add <- [DW_OP_plus_uconst 72] [$sp+0]
	@DEBUG_VALUE: mbedtls_ccm_star_auth_decrypt:add_len <- [DW_OP_plus_uconst 76] [$sp+0]
	@DEBUG_VALUE: mbedtls_ccm_star_auth_decrypt:input <- [DW_OP_plus_uconst 80] [$sp+0]
	@DEBUG_VALUE: mbedtls_ccm_star_auth_decrypt:output <- [DW_OP_plus_uconst 84] [$sp+0]
	@DEBUG_VALUE: mbedtls_ccm_star_auth_decrypt:tag <- [DW_OP_plus_uconst 88] [$sp+0]
	@DEBUG_VALUE: mbedtls_ccm_star_auth_decrypt:tag_len <- [DW_OP_plus_uconst 92] [$sp+0]
	@DEBUG_VALUE: mbedtls_ccm_star_auth_decrypt:ctx <- [DW_OP_LLVM_entry_value 1] $r0
	@DEBUG_VALUE: mbedtls_ccm_star_auth_decrypt:iv_len <- [DW_OP_LLVM_entry_value 1] $r3
	@DEBUG_VALUE: mbedtls_ccm_star_auth_decrypt:diff <- 0
	@DEBUG_VALUE: mbedtls_ccm_star_auth_decrypt:i <- 0
	.loc	1 382 5                         @ ../../../ThirdParty/mbedTLS/library/ccm.c:382:5
	cbz	r7, .LBB6_7
.Ltmp200:
@ %bb.3:
	@DEBUG_VALUE: mbedtls_ccm_star_auth_decrypt:length <- $r4
	@DEBUG_VALUE: mbedtls_ccm_star_auth_decrypt:ret <- $r0
	@DEBUG_VALUE: mbedtls_ccm_star_auth_decrypt:add <- [DW_OP_plus_uconst 72] [$sp+0]
	@DEBUG_VALUE: mbedtls_ccm_star_auth_decrypt:add_len <- [DW_OP_plus_uconst 76] [$sp+0]
	@DEBUG_VALUE: mbedtls_ccm_star_auth_decrypt:input <- [DW_OP_plus_uconst 80] [$sp+0]
	@DEBUG_VALUE: mbedtls_ccm_star_auth_decrypt:output <- [DW_OP_plus_uconst 84] [$sp+0]
	@DEBUG_VALUE: mbedtls_ccm_star_auth_decrypt:tag <- [DW_OP_plus_uconst 88] [$sp+0]
	@DEBUG_VALUE: mbedtls_ccm_star_auth_decrypt:tag_len <- [DW_OP_plus_uconst 92] [$sp+0]
	@DEBUG_VALUE: mbedtls_ccm_star_auth_decrypt:i <- 0
	@DEBUG_VALUE: mbedtls_ccm_star_auth_decrypt:diff <- 0
	@DEBUG_VALUE: mbedtls_ccm_star_auth_decrypt:ctx <- [DW_OP_LLVM_entry_value 1] $r0
	@DEBUG_VALUE: mbedtls_ccm_star_auth_decrypt:iv_len <- [DW_OP_LLVM_entry_value 1] $r3
	.loc	1 0 5 is_stmt 0                 @ ../../../ThirdParty/mbedTLS/library/ccm.c:0:5
	str	r4, [sp, #32]                   @ 4-byte Spill
.Ltmp201:
	@DEBUG_VALUE: mbedtls_ccm_star_auth_decrypt:length <- [DW_OP_plus_uconst 32] [$sp+0]
	ldr	r0, [sp, #88]
.Ltmp202:
	movs	r3, #0
	mov	r1, r3
	mov	r2, r3
.Ltmp203:
.LBB6_4:                                @ =>This Inner Loop Header: Depth=1
	@DEBUG_VALUE: mbedtls_ccm_star_auth_decrypt:length <- [DW_OP_plus_uconst 32] [$sp+0]
	@DEBUG_VALUE: mbedtls_ccm_star_auth_decrypt:add <- [DW_OP_plus_uconst 72] [$sp+0]
	@DEBUG_VALUE: mbedtls_ccm_star_auth_decrypt:add_len <- [DW_OP_plus_uconst 76] [$sp+0]
	@DEBUG_VALUE: mbedtls_ccm_star_auth_decrypt:input <- [DW_OP_plus_uconst 80] [$sp+0]
	@DEBUG_VALUE: mbedtls_ccm_star_auth_decrypt:output <- [DW_OP_plus_uconst 84] [$sp+0]
	@DEBUG_VALUE: mbedtls_ccm_star_auth_decrypt:tag <- [DW_OP_plus_uconst 88] [$sp+0]
	@DEBUG_VALUE: mbedtls_ccm_star_auth_decrypt:tag_len <- [DW_OP_plus_uconst 92] [$sp+0]
	@DEBUG_VALUE: mbedtls_ccm_star_auth_decrypt:ctx <- [DW_OP_LLVM_entry_value 1] $r0
	@DEBUG_VALUE: mbedtls_ccm_star_auth_decrypt:iv_len <- [DW_OP_LLVM_entry_value 1] $r3
	@DEBUG_VALUE: mbedtls_ccm_star_auth_decrypt:diff <- $r1
	@DEBUG_VALUE: mbedtls_ccm_star_auth_decrypt:i <- $r2
	.loc	1 383 17 is_stmt 1              @ ../../../ThirdParty/mbedTLS/library/ccm.c:383:17
	ldrb	r6, [r0, r3]
	add	r4, sp, #36
	.loc	1 383 26 is_stmt 0              @ ../../../ThirdParty/mbedTLS/library/ccm.c:383:26
	ldrb	r3, [r4, r3]
	.loc	1 383 24                        @ ../../../ThirdParty/mbedTLS/library/ccm.c:383:24
	eors	r3, r6
	.loc	1 383 14                        @ ../../../ThirdParty/mbedTLS/library/ccm.c:383:14
	orrs	r1, r3
.Ltmp204:
	@DEBUG_VALUE: mbedtls_ccm_star_auth_decrypt:diff <- $r1
	.loc	1 382 41 is_stmt 1              @ ../../../ThirdParty/mbedTLS/library/ccm.c:382:41
	adds	r2, r2, #1
.Ltmp205:
	@DEBUG_VALUE: mbedtls_ccm_star_auth_decrypt:i <- $r2
	.loc	1 382 27 is_stmt 0              @ ../../../ThirdParty/mbedTLS/library/ccm.c:382:27
	uxtb	r3, r2
.Ltmp206:
	.loc	1 382 5                         @ ../../../ThirdParty/mbedTLS/library/ccm.c:382:5
	cmp	r3, r7
	blo	.LBB6_4
.Ltmp207:
@ %bb.5:
	@DEBUG_VALUE: mbedtls_ccm_star_auth_decrypt:length <- [DW_OP_plus_uconst 32] [$sp+0]
	@DEBUG_VALUE: mbedtls_ccm_star_auth_decrypt:i <- $r2
	@DEBUG_VALUE: mbedtls_ccm_star_auth_decrypt:diff <- $r1
	@DEBUG_VALUE: mbedtls_ccm_star_auth_decrypt:add <- [DW_OP_plus_uconst 72] [$sp+0]
	@DEBUG_VALUE: mbedtls_ccm_star_auth_decrypt:add_len <- [DW_OP_plus_uconst 76] [$sp+0]
	@DEBUG_VALUE: mbedtls_ccm_star_auth_decrypt:input <- [DW_OP_plus_uconst 80] [$sp+0]
	@DEBUG_VALUE: mbedtls_ccm_star_auth_decrypt:output <- [DW_OP_plus_uconst 84] [$sp+0]
	@DEBUG_VALUE: mbedtls_ccm_star_auth_decrypt:tag <- [DW_OP_plus_uconst 88] [$sp+0]
	@DEBUG_VALUE: mbedtls_ccm_star_auth_decrypt:tag_len <- [DW_OP_plus_uconst 92] [$sp+0]
	@DEBUG_VALUE: mbedtls_ccm_star_auth_decrypt:ctx <- [DW_OP_LLVM_entry_value 1] $r0
	@DEBUG_VALUE: mbedtls_ccm_star_auth_decrypt:iv_len <- [DW_OP_LLVM_entry_value 1] $r3
	@DEBUG_VALUE: mbedtls_ccm_star_auth_decrypt:diff <- undef
	.loc	1 385 9 is_stmt 1               @ ../../../ThirdParty/mbedTLS/library/ccm.c:385:9
	cbz	r1, .LBB6_7
.Ltmp208:
@ %bb.6:
	@DEBUG_VALUE: mbedtls_ccm_star_auth_decrypt:length <- [DW_OP_plus_uconst 32] [$sp+0]
	@DEBUG_VALUE: mbedtls_ccm_star_auth_decrypt:i <- $r2
	@DEBUG_VALUE: mbedtls_ccm_star_auth_decrypt:add <- [DW_OP_plus_uconst 72] [$sp+0]
	@DEBUG_VALUE: mbedtls_ccm_star_auth_decrypt:add_len <- [DW_OP_plus_uconst 76] [$sp+0]
	@DEBUG_VALUE: mbedtls_ccm_star_auth_decrypt:input <- [DW_OP_plus_uconst 80] [$sp+0]
	@DEBUG_VALUE: mbedtls_ccm_star_auth_decrypt:output <- [DW_OP_plus_uconst 84] [$sp+0]
	@DEBUG_VALUE: mbedtls_ccm_star_auth_decrypt:tag <- [DW_OP_plus_uconst 88] [$sp+0]
	@DEBUG_VALUE: mbedtls_ccm_star_auth_decrypt:tag_len <- [DW_OP_plus_uconst 92] [$sp+0]
	@DEBUG_VALUE: mbedtls_ccm_star_auth_decrypt:ctx <- [DW_OP_LLVM_entry_value 1] $r0
	@DEBUG_VALUE: mbedtls_ccm_star_auth_decrypt:iv_len <- [DW_OP_LLVM_entry_value 1] $r3
	.loc	1 387 9                         @ ../../../ThirdParty/mbedTLS/library/ccm.c:387:9
	mov	r0, r5
	ldr	r1, [sp, #32]                   @ 4-byte Reload
.Ltmp209:
	@DEBUG_VALUE: mbedtls_ccm_star_auth_decrypt:length <- $r1
	bl	mbedtls_platform_zeroize
.Ltmp210:
	.loc	1 0 9 is_stmt 0                 @ ../../../ThirdParty/mbedTLS/library/ccm.c:0:9
	movs	r0, #14
	mvns	r0, r0
.Ltmp211:
	.loc	1 392 1 is_stmt 1               @ ../../../ThirdParty/mbedTLS/library/ccm.c:392:1
	add	sp, #52
.Ltmp212:
	pop	{r4, r5, r6, r7, pc}
.Ltmp213:
.LBB6_7:
	@DEBUG_VALUE: mbedtls_ccm_star_auth_decrypt:add <- [DW_OP_plus_uconst 72] [$sp+0]
	@DEBUG_VALUE: mbedtls_ccm_star_auth_decrypt:add_len <- [DW_OP_plus_uconst 76] [$sp+0]
	@DEBUG_VALUE: mbedtls_ccm_star_auth_decrypt:input <- [DW_OP_plus_uconst 80] [$sp+0]
	@DEBUG_VALUE: mbedtls_ccm_star_auth_decrypt:output <- [DW_OP_plus_uconst 84] [$sp+0]
	@DEBUG_VALUE: mbedtls_ccm_star_auth_decrypt:tag <- [DW_OP_plus_uconst 88] [$sp+0]
	@DEBUG_VALUE: mbedtls_ccm_star_auth_decrypt:tag_len <- [DW_OP_plus_uconst 92] [$sp+0]
	@DEBUG_VALUE: mbedtls_ccm_star_auth_decrypt:ctx <- [DW_OP_LLVM_entry_value 1] $r0
	@DEBUG_VALUE: mbedtls_ccm_star_auth_decrypt:iv_len <- [DW_OP_LLVM_entry_value 1] $r3
	.loc	1 0 1 is_stmt 0                 @ ../../../ThirdParty/mbedTLS/library/ccm.c:0:1
	movs	r0, #0
	.loc	1 392 1                         @ ../../../ThirdParty/mbedTLS/library/ccm.c:392:1
	add	sp, #52
.Ltmp214:
	pop	{r4, r5, r6, r7, pc}
.Ltmp215:
.Lfunc_end6:
	.size	mbedtls_ccm_star_auth_decrypt, .Lfunc_end6-mbedtls_ccm_star_auth_decrypt
	.cfi_endproc
	.cantunwind
	.fnend
                                        @ -- End function
	.section	.text.mbedtls_ccm_auth_decrypt,"ax",%progbits
	.hidden	mbedtls_ccm_auth_decrypt        @ -- Begin function mbedtls_ccm_auth_decrypt
	.globl	mbedtls_ccm_auth_decrypt
	.p2align	1
	.type	mbedtls_ccm_auth_decrypt,%function
	.code	16                              @ @mbedtls_ccm_auth_decrypt
	.thumb_func
mbedtls_ccm_auth_decrypt:
.Lfunc_begin7:
	.loc	1 399 0 is_stmt 1               @ ../../../ThirdParty/mbedTLS/library/ccm.c:399:0
	.fnstart
	.cfi_startproc
@ %bb.0:
	@DEBUG_VALUE: mbedtls_ccm_auth_decrypt:ctx <- $r0
	@DEBUG_VALUE: mbedtls_ccm_auth_decrypt:length <- $r1
	@DEBUG_VALUE: mbedtls_ccm_auth_decrypt:iv <- $r2
	@DEBUG_VALUE: mbedtls_ccm_auth_decrypt:iv_len <- $r3
	.save	{r4, r5, r6, r7, lr}
	push	{r4, r5, r6, r7, lr}
	.cfi_def_cfa_offset 20
	.cfi_offset lr, -4
	.cfi_offset r7, -8
	.cfi_offset r6, -12
	.cfi_offset r5, -16
	.cfi_offset r4, -20
	.pad	#36
	sub	sp, #36
	.cfi_def_cfa_offset 56
	ldr	r4, [sp, #76]
.Ltmp216:
	@DEBUG_VALUE: mbedtls_ccm_auth_decrypt:tag_len <- [DW_OP_plus_uconst 76] [$sp+0]
	@DEBUG_VALUE: mbedtls_ccm_auth_decrypt:tag <- [DW_OP_plus_uconst 72] [$sp+0]
	@DEBUG_VALUE: mbedtls_ccm_auth_decrypt:output <- [DW_OP_plus_uconst 68] [$sp+0]
	@DEBUG_VALUE: mbedtls_ccm_auth_decrypt:input <- [DW_OP_plus_uconst 64] [$sp+0]
	@DEBUG_VALUE: mbedtls_ccm_auth_decrypt:add_len <- [DW_OP_plus_uconst 60] [$sp+0]
	@DEBUG_VALUE: mbedtls_ccm_auth_decrypt:add <- [DW_OP_plus_uconst 56] [$sp+0]
	@DEBUG_VALUE: mbedtls_ccm_auth_decrypt:iv_len <- $r3
	@DEBUG_VALUE: mbedtls_ccm_auth_decrypt:iv <- $r2
	@DEBUG_VALUE: mbedtls_ccm_auth_decrypt:length <- $r1
	@DEBUG_VALUE: mbedtls_ccm_auth_decrypt:ctx <- $r0
	.loc	1 407 9 prologue_end            @ ../../../ThirdParty/mbedTLS/library/ccm.c:407:9
	cbz	r4, .LBB7_2
.Ltmp217:
@ %bb.1:
	@DEBUG_VALUE: mbedtls_ccm_auth_decrypt:iv_len <- $r3
	@DEBUG_VALUE: mbedtls_ccm_auth_decrypt:iv <- $r2
	@DEBUG_VALUE: mbedtls_ccm_auth_decrypt:length <- $r1
	@DEBUG_VALUE: mbedtls_ccm_auth_decrypt:ctx <- $r0
	@DEBUG_VALUE: mbedtls_ccm_auth_decrypt:add <- [DW_OP_plus_uconst 56] [$sp+0]
	@DEBUG_VALUE: mbedtls_ccm_auth_decrypt:add_len <- [DW_OP_plus_uconst 60] [$sp+0]
	@DEBUG_VALUE: mbedtls_ccm_auth_decrypt:input <- [DW_OP_plus_uconst 64] [$sp+0]
	@DEBUG_VALUE: mbedtls_ccm_auth_decrypt:output <- [DW_OP_plus_uconst 68] [$sp+0]
	@DEBUG_VALUE: mbedtls_ccm_auth_decrypt:tag <- [DW_OP_plus_uconst 72] [$sp+0]
	@DEBUG_VALUE: mbedtls_ccm_auth_decrypt:tag_len <- [DW_OP_plus_uconst 76] [$sp+0]
	.loc	1 0 9 is_stmt 0                 @ ../../../ThirdParty/mbedTLS/library/ccm.c:0:9
	mov	r5, r2
.Ltmp218:
	@DEBUG_VALUE: mbedtls_ccm_auth_decrypt:iv <- $r5
	ldr	r2, [sp, #72]
	str	r2, [sp, #28]                   @ 4-byte Spill
	ldr	r6, [sp, #68]
	ldr	r7, [sp, #64]
	str	r3, [sp, #32]                   @ 4-byte Spill
.Ltmp219:
	@DEBUG_VALUE: mbedtls_ccm_auth_decrypt:iv_len <- [DW_OP_plus_uconst 32] [$sp+0]
	ldr	r3, [sp, #60]
	ldr	r2, [sp, #56]
	.loc	1 410 13 is_stmt 1              @ ../../../ThirdParty/mbedTLS/library/ccm.c:410:13
	str	r2, [sp]
	str	r3, [sp, #4]
	str	r7, [sp, #8]
	str	r6, [sp, #12]
	ldr	r2, [sp, #28]                   @ 4-byte Reload
	str	r2, [sp, #16]
	str	r4, [sp, #20]
	mov	r2, r5
	ldr	r3, [sp, #32]                   @ 4-byte Reload
.Ltmp220:
	@DEBUG_VALUE: mbedtls_ccm_auth_decrypt:iv_len <- $r3
	bl	mbedtls_ccm_star_auth_decrypt
.Ltmp221:
	@DEBUG_VALUE: mbedtls_ccm_auth_decrypt:iv_len <- [DW_OP_LLVM_entry_value 1] $r3
	@DEBUG_VALUE: mbedtls_ccm_auth_decrypt:length <- [DW_OP_LLVM_entry_value 1] $r1
	@DEBUG_VALUE: mbedtls_ccm_auth_decrypt:ctx <- [DW_OP_LLVM_entry_value 1] $r0
	.loc	1 412 1                         @ ../../../ThirdParty/mbedTLS/library/ccm.c:412:1
	add	sp, #36
.Ltmp222:
	pop	{r4, r5, r6, r7, pc}
.Ltmp223:
.LBB7_2:
	@DEBUG_VALUE: mbedtls_ccm_auth_decrypt:iv_len <- $r3
	@DEBUG_VALUE: mbedtls_ccm_auth_decrypt:iv <- $r2
	@DEBUG_VALUE: mbedtls_ccm_auth_decrypt:length <- $r1
	@DEBUG_VALUE: mbedtls_ccm_auth_decrypt:ctx <- $r0
	@DEBUG_VALUE: mbedtls_ccm_auth_decrypt:add <- [DW_OP_plus_uconst 56] [$sp+0]
	@DEBUG_VALUE: mbedtls_ccm_auth_decrypt:add_len <- [DW_OP_plus_uconst 60] [$sp+0]
	@DEBUG_VALUE: mbedtls_ccm_auth_decrypt:input <- [DW_OP_plus_uconst 64] [$sp+0]
	@DEBUG_VALUE: mbedtls_ccm_auth_decrypt:output <- [DW_OP_plus_uconst 68] [$sp+0]
	@DEBUG_VALUE: mbedtls_ccm_auth_decrypt:tag <- [DW_OP_plus_uconst 72] [$sp+0]
	@DEBUG_VALUE: mbedtls_ccm_auth_decrypt:tag_len <- [DW_OP_plus_uconst 76] [$sp+0]
	.loc	1 0 1 is_stmt 0                 @ ../../../ThirdParty/mbedTLS/library/ccm.c:0:1
	movs	r0, #12
.Ltmp224:
	@DEBUG_VALUE: mbedtls_ccm_auth_decrypt:ctx <- [DW_OP_LLVM_entry_value 1] $r0
	mvns	r0, r0
	.loc	1 412 1                         @ ../../../ThirdParty/mbedTLS/library/ccm.c:412:1
	add	sp, #36
.Ltmp225:
	pop	{r4, r5, r6, r7, pc}
.Ltmp226:
.Lfunc_end7:
	.size	mbedtls_ccm_auth_decrypt, .Lfunc_end7-mbedtls_ccm_auth_decrypt
	.cfi_endproc
	.cantunwind
	.fnend
                                        @ -- End function
	.section	.text.mbedtls_ccm_self_test,"ax",%progbits
	.hidden	mbedtls_ccm_self_test           @ -- Begin function mbedtls_ccm_self_test
	.globl	mbedtls_ccm_self_test
	.p2align	2
	.type	mbedtls_ccm_self_test,%function
	.code	16                              @ @mbedtls_ccm_self_test
	.thumb_func
mbedtls_ccm_self_test:
.Lfunc_begin8:
	.loc	1 467 0 is_stmt 1               @ ../../../ThirdParty/mbedTLS/library/ccm.c:467:0
	.fnstart
	.cfi_startproc
@ %bb.0:
	@DEBUG_VALUE: mbedtls_ccm_self_test:verbose <- $r0
	.save	{r4, r5, r6, r7, lr}
	push	{r4, r5, r6, r7, lr}
	.cfi_def_cfa_offset 20
	.cfi_offset lr, -4
	.cfi_offset r7, -8
	.cfi_offset r6, -12
	.cfi_offset r5, -16
	.cfi_offset r4, -20
	.pad	#180
	sub	sp, #180
	.cfi_def_cfa_offset 200
	mov	r5, r0
.Ltmp227:
	@DEBUG_VALUE: mbedtls_ccm_self_test:verbose <- $r5
	add	r4, sp, #116
.Ltmp228:
	.loc	1 479 5 prologue_end            @ ../../../ThirdParty/mbedTLS/library/ccm.c:479:5
	mov	r0, r4
	bl	mbedtls_ccm_init
	movs	r1, #2
.Ltmp229:
	.loc	1 481 9                         @ ../../../ThirdParty/mbedTLS/library/ccm.c:481:9
	ldr	r2, __arm_cp.8_0
	movs	r3, #128
	mov	r0, r4
	bl	mbedtls_ccm_setkey
.Ltmp230:
	.loc	1 481 9 is_stmt 0               @ ../../../ThirdParty/mbedTLS/library/ccm.c:481:9
	cbz	r0, .LBB8_3
.Ltmp231:
@ %bb.1:
	@DEBUG_VALUE: mbedtls_ccm_self_test:verbose <- $r5
	.loc	1 0 9                           @ ../../../ThirdParty/mbedTLS/library/ccm.c:0:9
	movs	r4, #1
.Ltmp232:
	.loc	1 483 13 is_stmt 1              @ ../../../ThirdParty/mbedTLS/library/ccm.c:483:13
	cmp	r5, #0
	bne	.LBB8_2
	b	.LBB8_22
.Ltmp233:
.LBB8_2:
	@DEBUG_VALUE: mbedtls_ccm_self_test:verbose <- $r5
	.loc	1 484 13                        @ ../../../ThirdParty/mbedTLS/library/ccm.c:484:13
	adr	r0, .LCPI8_1
	bl	__2printf
	b	.LBB8_22
.Ltmp234:
.LBB8_3:
	@DEBUG_VALUE: mbedtls_ccm_self_test:verbose <- $r5
	.loc	1 0 13 is_stmt 0                @ ../../../ThirdParty/mbedTLS/library/ccm.c:0:13
	movs	r0, #0
	movs	r4, #1
	ldr	r1, __arm_cp.8_2
	str	r1, [sp, #56]                   @ 4-byte Spill
	movs	r1, #24
	str	r1, [sp, #28]                   @ 4-byte Spill
	ldr	r6, __arm_cp.8_5
	str	r0, [sp, #40]                   @ 4-byte Spill
	mov	r7, r0
.Ltmp235:
	.loc	1 489 5 is_stmt 1               @ ../../../ThirdParty/mbedTLS/library/ccm.c:489:5
	str	r5, [sp, #36]                   @ 4-byte Spill
	b	.LBB8_5
.Ltmp236:
.LBB8_4:                                @   in Loop: Header=BB8_5 Depth=1
	@DEBUG_VALUE: mbedtls_ccm_self_test:i <- [DW_OP_plus_uconst 1, DW_OP_stack_value] undef
	.loc	1 489 19 is_stmt 0              @ ../../../ThirdParty/mbedTLS/library/ccm.c:489:19
	ldr	r0, [sp, #56]                   @ 4-byte Reload
	adds	r0, #32
	str	r0, [sp, #56]                   @ 4-byte Spill
	ldr	r4, [sp, #48]                   @ 4-byte Reload
	adds	r4, r4, #1
	ldr	r7, [sp, #44]                   @ 4-byte Reload
	adds	r7, r7, #4
.Ltmp237:
	.loc	1 489 5                         @ ../../../ThirdParty/mbedTLS/library/ccm.c:489:5
	cmp	r7, #12
	beq	.LBB8_19
.Ltmp238:
.LBB8_5:                                @ =>This Inner Loop Header: Depth=1
	@DEBUG_VALUE: mbedtls_ccm_self_test:i <- undef
	.loc	1 0 5                           @ ../../../ThirdParty/mbedTLS/library/ccm.c:0:5
	cbz	r5, .LBB8_7
.Ltmp239:
@ %bb.6:                                @   in Loop: Header=BB8_5 Depth=1
	.loc	1 492 13 is_stmt 1              @ ../../../ThirdParty/mbedTLS/library/ccm.c:492:13
	adr	r0, .LCPI8_3
	mov	r1, r4
	bl	__2printf
.Ltmp240:
.LBB8_7:                                @   in Loop: Header=BB8_5 Depth=1
	.loc	1 0 13 is_stmt 0                @ ../../../ThirdParty/mbedTLS/library/ccm.c:0:13
	str	r4, [sp, #48]                   @ 4-byte Spill
	ldr	r1, [sp, #40]                   @ 4-byte Reload
	.loc	1 495 9 is_stmt 1               @ ../../../ThirdParty/mbedTLS/library/ccm.c:495:9
	str	r1, [sp, #88]
	str	r1, [sp, #84]
	str	r1, [sp, #80]
	str	r1, [sp, #76]
	str	r1, [sp, #72]
	str	r1, [sp, #68]
	str	r1, [sp, #64]
	str	r1, [sp, #60]
	.loc	1 496 33                        @ ../../../ThirdParty/mbedTLS/library/ccm.c:496:33
	ldr	r0, __arm_cp.8_4
	ldr	r4, [r0, r7]
	.loc	1 496 9 is_stmt 0               @ ../../../ThirdParty/mbedTLS/library/ccm.c:496:9
	cmp	r7, #8
	beq	.LBB8_9
@ %bb.8:                                @   in Loop: Header=BB8_5 Depth=1
	.loc	1 0 9                           @ ../../../ThirdParty/mbedTLS/library/ccm.c:0:9
	ldr	r0, [sp, #28]                   @ 4-byte Reload
	subs	r1, r0, r4
.LBB8_9:                                @   in Loop: Header=BB8_5 Depth=1
	add	r5, sp, #92
.Ltmp241:
	@DEBUG_VALUE: mbedtls_ccm_self_test:verbose <- [DW_OP_LLVM_entry_value 1] $r0
	.loc	1 496 9                         @ ../../../ThirdParty/mbedTLS/library/ccm.c:496:9
	adds	r0, r5, r4
	bl	__aeabi_memclr
	mov	r0, r5
	mov	r1, r6
	mov	r2, r4
	bl	__aeabi_memcpy4
	.loc	1 501 69 is_stmt 1              @ ../../../ThirdParty/mbedTLS/library/ccm.c:501:69
	ldr	r0, __arm_cp.8_6
	mov	r2, r7
	ldr	r7, [r0, r7]
	.loc	1 498 15                        @ ../../../ThirdParty/mbedTLS/library/ccm.c:498:15
	str	r7, [sp, #20]
	add	r0, sp, #60
	mov	r1, r4
	.loc	1 501 55                        @ ../../../ThirdParty/mbedTLS/library/ccm.c:501:55
	adds	r6, r0, r4
	.loc	1 498 15                        @ ../../../ThirdParty/mbedTLS/library/ccm.c:498:15
	str	r6, [sp, #16]
	str	r0, [sp, #12]
	str	r5, [sp, #8]
	.loc	1 499 63                        @ ../../../ThirdParty/mbedTLS/library/ccm.c:499:63
	ldr	r0, __arm_cp.8_7
	ldr	r5, [r0, r2]
	.loc	1 498 15                        @ ../../../ThirdParty/mbedTLS/library/ccm.c:498:15
	str	r5, [sp, #4]
	ldr	r0, __arm_cp.8_8
	str	r0, [sp]
	.loc	1 499 48                        @ ../../../ThirdParty/mbedTLS/library/ccm.c:499:48
	ldr	r0, __arm_cp.8_9
	str	r2, [sp, #44]                   @ 4-byte Spill
	ldr	r3, [r0, r2]
	add	r0, sp, #116
	mov	r4, r1
	.loc	1 498 15                        @ ../../../ThirdParty/mbedTLS/library/ccm.c:498:15
	ldr	r2, __arm_cp.8_10
	str	r3, [sp, #52]                   @ 4-byte Spill
	bl	mbedtls_ccm_encrypt_and_tag
.Ltmp242:
	@DEBUG_VALUE: mbedtls_ccm_self_test:ret <- $r0
	.loc	1 0 15 is_stmt 0                @ ../../../ThirdParty/mbedTLS/library/ccm.c:0:15
	cbnz	r0, .LBB8_15
.Ltmp243:
@ %bb.10:                               @   in Loop: Header=BB8_5 Depth=1
	@DEBUG_VALUE: mbedtls_ccm_self_test:ret <- $r0
	.loc	1 504 56 is_stmt 1              @ ../../../ThirdParty/mbedTLS/library/ccm.c:504:56
	adds	r2, r7, r4
	add	r0, sp, #60
.Ltmp244:
	.loc	1 504 17 is_stmt 0              @ ../../../ThirdParty/mbedTLS/library/ccm.c:504:17
	ldr	r1, [sp, #56]                   @ 4-byte Reload
	bl	memcmp
	cbnz	r0, .LBB8_15
.Ltmp245:
@ %bb.11:                               @   in Loop: Header=BB8_5 Depth=1
	.loc	1 0 17                          @ ../../../ThirdParty/mbedTLS/library/ccm.c:0:17
	movs	r0, #0
	.loc	1 511 9 is_stmt 1               @ ../../../ThirdParty/mbedTLS/library/ccm.c:511:9
	str	r0, [sp, #112]
	str	r0, [sp, #108]
	str	r0, [sp, #104]
	str	r0, [sp, #100]
	str	r0, [sp, #96]
	str	r0, [sp, #32]                   @ 4-byte Spill
	str	r0, [sp, #92]
	.loc	1 513 15                        @ ../../../ThirdParty/mbedTLS/library/ccm.c:513:15
	str	r7, [sp, #20]
	str	r6, [sp, #16]
	add	r0, sp, #92
	str	r0, [sp, #12]
	add	r0, sp, #60
	str	r0, [sp, #8]
	str	r5, [sp, #4]
	ldr	r0, __arm_cp.8_8
	str	r0, [sp]
	add	r0, sp, #116
	mov	r1, r4
	ldr	r2, __arm_cp.8_10
	ldr	r3, [sp, #52]                   @ 4-byte Reload
	bl	mbedtls_ccm_auth_decrypt
.Ltmp246:
	@DEBUG_VALUE: mbedtls_ccm_self_test:ret <- $r0
	.loc	1 0 15 is_stmt 0                @ ../../../ThirdParty/mbedTLS/library/ccm.c:0:15
	ldr	r6, __arm_cp.8_5
.Ltmp247:
	.loc	1 518 22 is_stmt 1              @ ../../../ThirdParty/mbedTLS/library/ccm.c:518:22
	cbnz	r0, .LBB8_17
.Ltmp248:
@ %bb.12:                               @   in Loop: Header=BB8_5 Depth=1
	@DEBUG_VALUE: mbedtls_ccm_self_test:ret <- $r0
	.loc	1 0 22 is_stmt 0                @ ../../../ThirdParty/mbedTLS/library/ccm.c:0:22
	add	r0, sp, #92
.Ltmp249:
	.loc	1 519 17 is_stmt 1              @ ../../../ThirdParty/mbedTLS/library/ccm.c:519:17
	mov	r1, r6
	mov	r2, r4
	bl	memcmp
.Ltmp250:
	.loc	1 518 13                        @ ../../../ThirdParty/mbedTLS/library/ccm.c:518:13
	cbnz	r0, .LBB8_17
@ %bb.13:                               @   in Loop: Header=BB8_5 Depth=1
	.loc	1 0 13 is_stmt 0                @ ../../../ThirdParty/mbedTLS/library/ccm.c:0:13
	ldr	r5, [sp, #36]                   @ 4-byte Reload
	.loc	1 527 13 is_stmt 1              @ ../../../ThirdParty/mbedTLS/library/ccm.c:527:13
	cmp	r5, #0
	beq	.LBB8_4
@ %bb.14:                               @   in Loop: Header=BB8_5 Depth=1
.Ltmp251:
	.loc	1 528 13                        @ ../../../ThirdParty/mbedTLS/library/ccm.c:528:13
	adr	r0, .LCPI8_12
	bl	puts
	b	.LBB8_4
.Ltmp252:
.LBB8_15:
	.loc	1 0 13 is_stmt 0                @ ../../../ThirdParty/mbedTLS/library/ccm.c:0:13
	movs	r4, #1
.Ltmp253:
	.loc	1 506 17 is_stmt 1              @ ../../../ThirdParty/mbedTLS/library/ccm.c:506:17
	ldr	r0, [sp, #36]                   @ 4-byte Reload
	cbz	r0, .LBB8_22
@ %bb.16:
.Ltmp254:
	.loc	1 507 17                        @ ../../../ThirdParty/mbedTLS/library/ccm.c:507:17
	adr	r0, .LCPI8_11
	bl	puts
	b	.LBB8_22
.Ltmp255:
.LBB8_17:
	.loc	1 0 17 is_stmt 0                @ ../../../ThirdParty/mbedTLS/library/ccm.c:0:17
	movs	r4, #1
.Ltmp256:
	.loc	1 521 17 is_stmt 1              @ ../../../ThirdParty/mbedTLS/library/ccm.c:521:17
	ldr	r0, [sp, #36]                   @ 4-byte Reload
	cbz	r0, .LBB8_22
@ %bb.18:
.Ltmp257:
	.loc	1 522 17                        @ ../../../ThirdParty/mbedTLS/library/ccm.c:522:17
	adr	r0, .LCPI8_11
	bl	puts
	b	.LBB8_22
.Ltmp258:
.LBB8_19:
	.loc	1 0 17 is_stmt 0                @ ../../../ThirdParty/mbedTLS/library/ccm.c:0:17
	add	r0, sp, #116
	.loc	1 531 5 is_stmt 1               @ ../../../ThirdParty/mbedTLS/library/ccm.c:531:5
	bl	mbedtls_ccm_free
	.loc	1 533 9                         @ ../../../ThirdParty/mbedTLS/library/ccm.c:533:9
	cbz	r5, .LBB8_21
@ %bb.20:
	.loc	1 0 9 is_stmt 0                 @ ../../../ThirdParty/mbedTLS/library/ccm.c:0:9
	movs	r0, #10
.Ltmp259:
	.loc	1 534 9 is_stmt 1               @ ../../../ThirdParty/mbedTLS/library/ccm.c:534:9
	bl	putchar
	ldr	r4, [sp, #32]                   @ 4-byte Reload
	b	.LBB8_22
.Ltmp260:
.LBB8_21:
	.loc	1 0 9 is_stmt 0                 @ ../../../ThirdParty/mbedTLS/library/ccm.c:0:9
	ldr	r4, [sp, #32]                   @ 4-byte Reload
.LBB8_22:
	.loc	1 537 1 is_stmt 1               @ ../../../ThirdParty/mbedTLS/library/ccm.c:537:1
	mov	r0, r4
	add	sp, #180
	pop	{r4, r5, r6, r7, pc}
.Ltmp261:
	.p2align	2
@ %bb.23:
	.loc	1 0 1 is_stmt 0                 @ ../../../ThirdParty/mbedTLS/library/ccm.c:0:1
__arm_cp.8_0:
	.long	key
.Lcpi_end0:
	.size	__arm_cp.8_0, .Lcpi_end0-__arm_cp.8_0
.LCPI8_1:
.L.str:
	.asciz	"  CCM: setup failed"
__arm_cp.8_2:
	.long	res
.Lcpi_end1:
	.size	__arm_cp.8_2, .Lcpi_end1-__arm_cp.8_2
.LCPI8_3:
.L.str.1:
	.asciz	"  CCM-AES #%u: "
__arm_cp.8_4:
	.long	msg_len
.Lcpi_end2:
	.size	__arm_cp.8_4, .Lcpi_end2-__arm_cp.8_4
__arm_cp.8_5:
	.long	msg
.Lcpi_end3:
	.size	__arm_cp.8_5, .Lcpi_end3-__arm_cp.8_5
__arm_cp.8_6:
	.long	tag_len
.Lcpi_end4:
	.size	__arm_cp.8_6, .Lcpi_end4-__arm_cp.8_6
__arm_cp.8_7:
	.long	add_len
.Lcpi_end5:
	.size	__arm_cp.8_7, .Lcpi_end5-__arm_cp.8_7
__arm_cp.8_8:
	.long	ad
.Lcpi_end6:
	.size	__arm_cp.8_8, .Lcpi_end6-__arm_cp.8_8
__arm_cp.8_9:
	.long	iv_len
.Lcpi_end7:
	.size	__arm_cp.8_9, .Lcpi_end7-__arm_cp.8_9
__arm_cp.8_10:
	.long	iv
.Lcpi_end8:
	.size	__arm_cp.8_10, .Lcpi_end8-__arm_cp.8_10
.LCPI8_11:
.Lstr.7:
.Lstr.6:
	.asciz	"failed\000"
.LCPI8_12:
.Lstr:
	.asciz	"passed\000"
.Lfunc_end8:
	.size	mbedtls_ccm_self_test, .Lfunc_end8-mbedtls_ccm_self_test
	.cfi_endproc
	.cantunwind
	.fnend
                                        @ -- End function
	.type	key,%object                     @ @key
	.section	.rodata.key,"a",%progbits
key:
	.ascii	"@ABCDEFGHIJKLMNO"
	.size	key, 16

	.type	msg,%object                     @ @msg
	.section	.rodata.msg,"a",%progbits
	.p2align	2
msg:
	.ascii	" !\"#$%&'()*+,-./01234567"
	.size	msg, 24

	.type	msg_len,%object                 @ @msg_len
	.section	.rodata.msg_len,"a",%progbits
	.p2align	2
msg_len:
	.long	4                               @ 0x4
	.long	16                              @ 0x10
	.long	24                              @ 0x18
	.size	msg_len, 12

	.type	iv,%object                      @ @iv
	.section	.rodata.iv,"a",%progbits
iv:
	.ascii	"\020\021\022\023\024\025\026\027\030\031\032\033"
	.size	iv, 12

	.type	iv_len,%object                  @ @iv_len
	.section	.rodata.iv_len,"a",%progbits
	.p2align	2
iv_len:
	.long	7                               @ 0x7
	.long	8                               @ 0x8
	.long	12                              @ 0xc
	.size	iv_len, 12

	.type	ad,%object                      @ @ad
	.section	.rodata.ad,"a",%progbits
ad:
	.ascii	"\000\001\002\003\004\005\006\007\b\t\n\013\f\r\016\017\020\021\022\023"
	.size	ad, 20

	.type	add_len,%object                 @ @add_len
	.section	.rodata.add_len,"a",%progbits
	.p2align	2
add_len:
	.long	8                               @ 0x8
	.long	16                              @ 0x10
	.long	20                              @ 0x14
	.size	add_len, 12

	.type	tag_len,%object                 @ @tag_len
	.section	.rodata.tag_len,"a",%progbits
	.p2align	2
tag_len:
	.long	4                               @ 0x4
	.long	6                               @ 0x6
	.long	8                               @ 0x8
	.size	tag_len, 12

	.type	res,%object                     @ @res
	.section	.rodata.res,"a",%progbits
res:
	.ascii	"qb\001[M\254%]"
	.zero	24
	.ascii	"\322\241\360\340Q\352_b\b\032w\222\007=Y=\037\306O\277\254\315"
	.zero	10
	.ascii	"\343\262\001\251\365\267\032z\233\034\352\354\315\227\347\013av\252\331\244B\212\245HC\222\373\301\260\231Q"
	.size	res, 96

	.globl	_printf_percent
	.globl	_printf_u
	.globl	_printf_int_dec
	.hidden	_printf_percent
	.hidden	_printf_u
	.hidden	_printf_int_dec
	.file	4 "C:\\Users\\shw26\\OneDrive\\Desktop\\2021\\2021-1\\\354\272\241\354\212\244\355\206\244\353\224\224\354\236\220\354\235\2702\\Nuvoton\\M2351_BSP_v3.00.004\\M2351Series_BSP_CMSIS_V3.00.004\\MyProject\\PulseMonitoring\\Secure" "../../../ThirdParty/mbedTLS/include/mbedtls\\ccm.h"
	.section	".note.GNU-stack","",%progbits
	.eabi_attribute	30, 1	@ Tag_ABI_optimization_goals
	.ARM_attribute	16, 1	@ Tag_AV_eba