	.text
	.syntax unified
	.eabi_attribute	67, "2.09"	@ Tag_conformance
	.cpu	cortex-m23
	.eabi_attribute	6, 16	@ Tag_CPU_arch
	.eabi_attribute	7, 77	@ Tag_CPU_arch_profile
	.eabi_attribute	8, 0	@ Tag_ARM_ISA_use
	.eabi_attribute	9, 3	@ Tag_THUMB_ISA_use
	.eabi_attribute	34, 0	@ Tag_CPU_unaligned_access
	.eabi_attribute	17, 1	@ Tag_ABI_PCS_GOT_use
	.eabi_attribute	20, 2	@ Tag_ABI_FP_denormal
	.eabi_attribute	21, 0	@ Tag_ABI_FP_exceptions
	.eabi_attribute	23, 1	@ Tag_ABI_FP_number_model
	.eabi_attribute	24, 1	@ Tag_ABI_align_needed
	.eabi_attribute	25, 1	@ Tag_ABI_align_preserved
	.eabi_attribute	38, 1	@ Tag_ABI_FP_16bit_format
	.eabi_attribute	18, 2	@ Tag_ABI_PCS_wchar_t
	.eabi_attribute	26, 1	@ Tag_ABI_enum_size
	.eabi_attribute	14, 0	@ Tag_ABI_PCS_R9_use
	.file	"cipher.c"
	.file	1 "C:\\Users\\shw26\\OneDrive\\Desktop\\2021\\2021-1\\\354\272\241\354\212\244\355\206\244\353\224\224\354\236\220\354\235\2702\\Nuvoton\\M2351_BSP_v3.00.004\\M2351Series_BSP_CMSIS_V3.00.004\\MyProject\\PulseMonitoring\\Secure" "../../../ThirdParty/mbedTLS/library/cipher.c"
	.file	2 "C:\\Users\\shw26\\OneDrive\\Desktop\\2021\\2021-1\\\354\272\241\354\212\244\355\206\244\353\224\224\354\236\220\354\235\2702\\Nuvoton\\M2351_BSP_v3.00.004\\M2351Series_BSP_CMSIS_V3.00.004\\MyProject\\PulseMonitoring\\Secure" "../../../ThirdParty/mbedTLS/include/mbedtls/cipher.h"
	.file	3 "C:\\Users\\shw26\\OneDrive\\Desktop\\2021\\2021-1\\\354\272\241\354\212\244\355\206\244\353\224\224\354\236\220\354\235\2702\\Nuvoton\\M2351_BSP_v3.00.004\\M2351Series_BSP_CMSIS_V3.00.004\\MyProject\\PulseMonitoring\\Secure" "../../../ThirdParty/mbedTLS/include/mbedtls\\cipher_internal.h"
	.file	4 "C:\\" "Keil_v5\\ARM\\ARMCLANG\\Bin\\..\\include\\stddef.h"
	.file	5 "C:\\Users\\shw26\\OneDrive\\Desktop\\2021\\2021-1\\\354\272\241\354\212\244\355\206\244\353\224\224\354\236\220\354\235\2702\\Nuvoton\\M2351_BSP_v3.00.004\\M2351Series_BSP_CMSIS_V3.00.004\\MyProject\\PulseMonitoring\\Secure" "../../../ThirdParty/mbedTLS/include/mbedtls\\gcm.h"
	.file	6 "C:\\" "Keil_v5\\ARM\\ARMCLANG\\Bin\\..\\include\\stdint.h"
	.section	.text.mbedtls_cipher_list,"ax",%progbits
	.hidden	mbedtls_cipher_list             @ -- Begin function mbedtls_cipher_list
	.globl	mbedtls_cipher_list
	.p2align	2
	.type	mbedtls_cipher_list,%function
	.code	16                              @ @mbedtls_cipher_list
	.thumb_func
mbedtls_cipher_list:
.Lfunc_begin0:
	.loc	1 102 0                         @ ../../../ThirdParty/mbedTLS/library/cipher.c:102:0
	.fnstart
	.cfi_sections .debug_frame
	.cfi_startproc
@ %bb.0:
	.loc	1 106 11 prologue_end           @ ../../../ThirdParty/mbedTLS/library/cipher.c:106:11
	ldr	r0, __arm_cp.0_0
	ldrb	r1, [r0]
.Ltmp0:
	.loc	1 106 9 is_stmt 0               @ ../../../ThirdParty/mbedTLS/library/cipher.c:106:9
	cbnz	r1, .LBB0_6
@ %bb.1:
.Ltmp1:
	.loc	1 111 21 is_stmt 1              @ ../../../ThirdParty/mbedTLS/library/cipher.c:111:21
	ldr	r2, __arm_cp.0_1
	ldrb	r3, [r2]
.Ltmp2:
	@DEBUG_VALUE: mbedtls_cipher_list:type <- undef
	@DEBUG_VALUE: mbedtls_cipher_list:def <- undef
	.loc	1 111 9 is_stmt 0               @ ../../../ThirdParty/mbedTLS/library/cipher.c:111:9
	cbz	r3, .LBB0_4
.Ltmp3:
@ %bb.2:
	.loc	1 0 9                           @ ../../../ThirdParty/mbedTLS/library/cipher.c:0:9
	adds	r2, #8
	ldr	r1, __arm_cp.0_2
.LBB0_3:                                @ =>This Inner Loop Header: Depth=1
.Ltmp4:
	@DEBUG_VALUE: mbedtls_cipher_list:type <- $r1
	@DEBUG_VALUE: mbedtls_cipher_list:def <- [DW_OP_plus_uconst 8, DW_OP_stack_value] undef
	.loc	1 112 21 is_stmt 1              @ ../../../ThirdParty/mbedTLS/library/cipher.c:112:21
	stm	r1!, {r3}
.Ltmp5:
	@DEBUG_VALUE: mbedtls_cipher_list:type <- $r1
	.loc	1 111 21                        @ ../../../ThirdParty/mbedTLS/library/cipher.c:111:21
	ldrb	r3, [r2]
	.loc	1 111 9 is_stmt 0               @ ../../../ThirdParty/mbedTLS/library/cipher.c:111:9
	adds	r2, #8
	cmp	r3, #0
	bne	.LBB0_3
	b	.LBB0_5
.Ltmp6:
.LBB0_4:
	.loc	1 0 9                           @ ../../../ThirdParty/mbedTLS/library/cipher.c:0:9
	ldr	r1, __arm_cp.0_2
.Ltmp7:
	@DEBUG_VALUE: mbedtls_cipher_list:type <- $r1
.LBB0_5:
	@DEBUG_VALUE: mbedtls_cipher_list:type <- $r1
	@DEBUG_VALUE: mbedtls_cipher_list:type <- $r1
	movs	r2, #1
	.loc	1 116 24 is_stmt 1              @ ../../../ThirdParty/mbedTLS/library/cipher.c:116:24
	strb	r2, [r0]
	movs	r0, #0
	.loc	1 114 15                        @ ../../../ThirdParty/mbedTLS/library/cipher.c:114:15
	str	r0, [r1]
.Ltmp8:
.LBB0_6:
	.loc	1 119 5                         @ ../../../ThirdParty/mbedTLS/library/cipher.c:119:5
	ldr	r0, __arm_cp.0_2
	bx	lr
.Ltmp9:
	.p2align	2
@ %bb.7:
	.loc	1 0 5 is_stmt 0                 @ ../../../ThirdParty/mbedTLS/library/cipher.c:0:5
__arm_cp.0_0:
	.long	supported_init
.Lcpi_end0:
	.size	__arm_cp.0_0, .Lcpi_end0-__arm_cp.0_0
__arm_cp.0_1:
	.long	mbedtls_cipher_definitions
.Lcpi_end1:
	.size	__arm_cp.0_1, .Lcpi_end1-__arm_cp.0_1
__arm_cp.0_2:
	.long	mbedtls_cipher_supported
.Lcpi_end2:
	.size	__arm_cp.0_2, .Lcpi_end2-__arm_cp.0_2
.Lfunc_end0:
	.size	mbedtls_cipher_list, .Lfunc_end0-mbedtls_cipher_list
	.cfi_endproc
	.cantunwind
	.fnend
                                        @ -- End function
	.section	.text.mbedtls_cipher_info_from_type,"ax",%progbits
	.hidden	mbedtls_cipher_info_from_type   @ -- Begin function mbedtls_cipher_info_from_type
	.globl	mbedtls_cipher_info_from_type
	.p2align	2
	.type	mbedtls_cipher_info_from_type,%function
	.code	16                              @ @mbedtls_cipher_info_from_type
	.thumb_func
mbedtls_cipher_info_from_type:
.Lfunc_begin1:
	.loc	1 124 0 is_stmt 1               @ ../../../ThirdParty/mbedTLS/library/cipher.c:124:0
	.fnstart
	.cfi_startproc
@ %bb.0:
	@DEBUG_VALUE: mbedtls_cipher_info_from_type:cipher_type <- $r0
	@DEBUG_VALUE: mbedtls_cipher_info_from_type:cipher_type <- $r0
	.save	{r4, lr}
	push	{r4, lr}
	.cfi_def_cfa_offset 8
	.cfi_offset lr, -4
	.cfi_offset r4, -8
.Ltmp10:
	.loc	1 127 49 prologue_end           @ ../../../ThirdParty/mbedTLS/library/cipher.c:127:49
	ldr	r3, __arm_cp.1_0
	ldr	r1, [r3, #4]
	movs	r2, #0
.Ltmp11:
	@DEBUG_VALUE: mbedtls_cipher_info_from_type:def <- undef
	.loc	1 127 5 is_stmt 0               @ ../../../ThirdParty/mbedTLS/library/cipher.c:127:5
	cbz	r1, .LBB1_6
.Ltmp12:
@ %bb.1:
	@DEBUG_VALUE: mbedtls_cipher_info_from_type:cipher_type <- $r0
	.loc	1 128 18 is_stmt 1              @ ../../../ThirdParty/mbedTLS/library/cipher.c:128:18
	ldrb	r4, [r3]
.Ltmp13:
	@DEBUG_VALUE: mbedtls_cipher_info_from_type:def <- undef
	.loc	1 128 13 is_stmt 0              @ ../../../ThirdParty/mbedTLS/library/cipher.c:128:13
	cmp	r4, r0
.Ltmp14:
	@DEBUG_VALUE: mbedtls_cipher_info_from_type:def <- [DW_OP_plus_uconst 8, DW_OP_stack_value] undef
	beq	.LBB1_5
.Ltmp15:
@ %bb.2:
	@DEBUG_VALUE: mbedtls_cipher_info_from_type:cipher_type <- $r0
	.loc	1 0 13                          @ ../../../ThirdParty/mbedTLS/library/cipher.c:0:13
	adds	r3, #8
.Ltmp16:
.LBB1_3:                                @ =>This Inner Loop Header: Depth=1
	@DEBUG_VALUE: mbedtls_cipher_info_from_type:cipher_type <- $r0
	@DEBUG_VALUE: mbedtls_cipher_info_from_type:def <- [DW_OP_plus_uconst 8, DW_OP_stack_value] undef
	.loc	1 127 49 is_stmt 1              @ ../../../ThirdParty/mbedTLS/library/cipher.c:127:49
	ldr	r1, [r3, #4]
.Ltmp17:
	.loc	1 127 5 is_stmt 0               @ ../../../ThirdParty/mbedTLS/library/cipher.c:127:5
	cbz	r1, .LBB1_6
.Ltmp18:
@ %bb.4:                                @   in Loop: Header=BB1_3 Depth=1
	@DEBUG_VALUE: mbedtls_cipher_info_from_type:cipher_type <- $r0
	.loc	1 128 18 is_stmt 1              @ ../../../ThirdParty/mbedTLS/library/cipher.c:128:18
	ldrb	r4, [r3]
.Ltmp19:
	@DEBUG_VALUE: mbedtls_cipher_info_from_type:def <- [DW_OP_plus_uconst 8, DW_OP_plus_uconst 8, DW_OP_stack_value] undef
	.loc	1 128 13 is_stmt 0              @ ../../../ThirdParty/mbedTLS/library/cipher.c:128:13
	adds	r3, #8
	cmp	r4, r0
	bne	.LBB1_3
.Ltmp20:
.LBB1_5:
	@DEBUG_VALUE: mbedtls_cipher_info_from_type:cipher_type <- $r0
	.loc	1 132 1 is_stmt 1               @ ../../../ThirdParty/mbedTLS/library/cipher.c:132:1
	mov	r0, r1
.Ltmp21:
	@DEBUG_VALUE: mbedtls_cipher_info_from_type:cipher_type <- [DW_OP_LLVM_entry_value 1] $r0
	pop	{r4, pc}
.Ltmp22:
.LBB1_6:
	@DEBUG_VALUE: mbedtls_cipher_info_from_type:cipher_type <- $r0
	mov	r0, r2
.Ltmp23:
	@DEBUG_VALUE: mbedtls_cipher_info_from_type:cipher_type <- [DW_OP_LLVM_entry_value 1] $r0
	pop	{r4, pc}
.Ltmp24:
	.p2align	2
@ %bb.7:
	.loc	1 0 1 is_stmt 0                 @ ../../../ThirdParty/mbedTLS/library/cipher.c:0:1
__arm_cp.1_0:
	.long	mbedtls_cipher_definitions
.Lcpi_end3:
	.size	__arm_cp.1_0, .Lcpi_end3-__arm_cp.1_0
.Lfunc_end1:
	.size	mbedtls_cipher_info_from_type, .Lfunc_end1-mbedtls_cipher_info_from_type
	.cfi_endproc
	.cantunwind
	.fnend
                                        @ -- End function
	.section	.text.mbedtls_cipher_info_from_string,"ax",%progbits
	.hidden	mbedtls_cipher_info_from_string @ -- Begin function mbedtls_cipher_info_from_string
	.globl	mbedtls_cipher_info_from_string
	.p2align	2
	.type	mbedtls_cipher_info_from_string,%function
	.code	16                              @ @mbedtls_cipher_info_from_string
	.thumb_func
mbedtls_cipher_info_from_string:
.Lfunc_begin2:
	.loc	1 136 0 is_stmt 1               @ ../../../ThirdParty/mbedTLS/library/cipher.c:136:0
	.fnstart
	.cfi_startproc
@ %bb.0:
	@DEBUG_VALUE: mbedtls_cipher_info_from_string:cipher_name <- $r0
	.save	{r4, r5, r6, r7, lr}
	push	{r4, r5, r6, r7, lr}
	.cfi_def_cfa_offset 20
	.cfi_offset lr, -4
	.cfi_offset r7, -8
	.cfi_offset r6, -12
	.cfi_offset r5, -16
	.cfi_offset r4, -20
	.pad	#4
	sub	sp, #4
	.cfi_def_cfa_offset 24
	movs	r6, #0
	@DEBUG_VALUE: mbedtls_cipher_info_from_string:cipher_name <- $r0
.Ltmp25:
	.loc	1 139 9 prologue_end            @ ../../../ThirdParty/mbedTLS/library/cipher.c:139:9
	cbz	r0, .LBB2_6
.Ltmp26:
@ %bb.1:
	@DEBUG_VALUE: mbedtls_cipher_info_from_string:cipher_name <- $r0
	@DEBUG_VALUE: mbedtls_cipher_info_from_string:cipher_name <- $r0
	.loc	1 142 49                        @ ../../../ThirdParty/mbedTLS/library/cipher.c:142:49
	ldr	r7, __arm_cp.2_0
	ldr	r4, [r7, #4]
.Ltmp27:
	@DEBUG_VALUE: mbedtls_cipher_info_from_string:def <- undef
	.loc	1 142 5 is_stmt 0               @ ../../../ThirdParty/mbedTLS/library/cipher.c:142:5
	cbz	r4, .LBB2_7
.Ltmp28:
@ %bb.2:
	@DEBUG_VALUE: mbedtls_cipher_info_from_string:cipher_name <- $r0
	.loc	1 0 5                           @ ../../../ThirdParty/mbedTLS/library/cipher.c:0:5
	mov	r5, r0
.Ltmp29:
	@DEBUG_VALUE: mbedtls_cipher_info_from_string:cipher_name <- $r5
	adds	r7, #12
.Ltmp30:
.LBB2_3:                                @ =>This Inner Loop Header: Depth=1
	@DEBUG_VALUE: mbedtls_cipher_info_from_string:cipher_name <- $r5
	@DEBUG_VALUE: mbedtls_cipher_info_from_string:def <- undef
	.loc	1 143 35 is_stmt 1              @ ../../../ThirdParty/mbedTLS/library/cipher.c:143:35
	ldr	r0, [r4, #8]
	.loc	1 143 16 is_stmt 0              @ ../../../ThirdParty/mbedTLS/library/cipher.c:143:16
	mov	r1, r5
	bl	strcmp
.Ltmp31:
	@DEBUG_VALUE: mbedtls_cipher_info_from_string:def <- [DW_OP_plus_uconst 8, DW_OP_stack_value] undef
	.loc	1 143 13                        @ ../../../ThirdParty/mbedTLS/library/cipher.c:143:13
	cbz	r0, .LBB2_8
.Ltmp32:
@ %bb.4:                                @   in Loop: Header=BB2_3 Depth=1
	@DEBUG_VALUE: mbedtls_cipher_info_from_string:cipher_name <- $r5
	.loc	1 142 49 is_stmt 1              @ ../../../ThirdParty/mbedTLS/library/cipher.c:142:49
	ldr	r4, [r7]
.Ltmp33:
	@DEBUG_VALUE: mbedtls_cipher_info_from_string:def <- [DW_OP_plus_uconst 8, DW_OP_stack_value] undef
	.loc	1 142 5 is_stmt 0               @ ../../../ThirdParty/mbedTLS/library/cipher.c:142:5
	adds	r7, #8
	cmp	r4, #0
	bne	.LBB2_3
.Ltmp34:
@ %bb.5:
	@DEBUG_VALUE: mbedtls_cipher_info_from_string:cipher_name <- $r5
	.loc	1 0 0                           @ ../../../ThirdParty/mbedTLS/library/cipher.c:0:0
	mov	r4, r6
	b	.LBB2_8
.Ltmp35:
.LBB2_6:
	@DEBUG_VALUE: mbedtls_cipher_info_from_string:cipher_name <- $r0
	mov	r4, r6
	b	.LBB2_8
.Ltmp36:
.LBB2_7:
	@DEBUG_VALUE: mbedtls_cipher_info_from_string:cipher_name <- $r0
	mov	r4, r6
.Ltmp37:
.LBB2_8:
	.loc	1 147 1 is_stmt 1               @ ../../../ThirdParty/mbedTLS/library/cipher.c:147:1
	mov	r0, r4
	add	sp, #4
	pop	{r4, r5, r6, r7, pc}
.Ltmp38:
	.p2align	2
@ %bb.9:
	.loc	1 0 1 is_stmt 0                 @ ../../../ThirdParty/mbedTLS/library/cipher.c:0:1
__arm_cp.2_0:
	.long	mbedtls_cipher_definitions
.Lcpi_end4:
	.size	__arm_cp.2_0, .Lcpi_end4-__arm_cp.2_0
.Lfunc_end2:
	.size	mbedtls_cipher_info_from_string, .Lfunc_end2-mbedtls_cipher_info_from_string
	.cfi_endproc
	.cantunwind
	.fnend
                                        @ -- End function
	.section	.text.mbedtls_cipher_info_from_values,"ax",%progbits
	.hidden	mbedtls_cipher_info_from_values @ -- Begin function mbedtls_cipher_info_from_values
	.globl	mbedtls_cipher_info_from_values
	.p2align	2
	.type	mbedtls_cipher_info_from_values,%function
	.code	16                              @ @mbedtls_cipher_info_from_values
	.thumb_func
mbedtls_cipher_info_from_values:
.Lfunc_begin3:
	.loc	1 153 0 is_stmt 1               @ ../../../ThirdParty/mbedTLS/library/cipher.c:153:0
	.fnstart
	.cfi_startproc
@ %bb.0:
	@DEBUG_VALUE: mbedtls_cipher_info_from_values:cipher_id <- $r0
	@DEBUG_VALUE: mbedtls_cipher_info_from_values:key_bitlen <- $r1
	@DEBUG_VALUE: mbedtls_cipher_info_from_values:mode <- $r2
	.save	{r4, r5, r6, lr}
	push	{r4, r5, r6, lr}
	.cfi_def_cfa_offset 16
	.cfi_offset lr, -4
	.cfi_offset r6, -8
	.cfi_offset r5, -12
	.cfi_offset r4, -16
	mov	r3, r0
	@DEBUG_VALUE: mbedtls_cipher_info_from_values:mode <- $r2
	@DEBUG_VALUE: mbedtls_cipher_info_from_values:key_bitlen <- $r1
.Ltmp39:
	@DEBUG_VALUE: mbedtls_cipher_info_from_values:cipher_id <- $r3
	.loc	1 156 49 prologue_end           @ ../../../ThirdParty/mbedTLS/library/cipher.c:156:49
	ldr	r5, __arm_cp.3_0
	ldr	r0, [r5, #4]
	movs	r4, #0
.Ltmp40:
	@DEBUG_VALUE: mbedtls_cipher_info_from_values:def <- undef
	.loc	1 156 5 is_stmt 0               @ ../../../ThirdParty/mbedTLS/library/cipher.c:156:5
	cbz	r0, .LBB3_7
.Ltmp41:
@ %bb.1:
	@DEBUG_VALUE: mbedtls_cipher_info_from_values:cipher_id <- $r3
	@DEBUG_VALUE: mbedtls_cipher_info_from_values:mode <- $r2
	@DEBUG_VALUE: mbedtls_cipher_info_from_values:key_bitlen <- $r1
	.loc	1 0 5                           @ ../../../ThirdParty/mbedTLS/library/cipher.c:0:5
	adds	r5, #12
	b	.LBB3_3
.Ltmp42:
.LBB3_2:                                @   in Loop: Header=BB3_3 Depth=1
	@DEBUG_VALUE: mbedtls_cipher_info_from_values:cipher_id <- $r3
	@DEBUG_VALUE: mbedtls_cipher_info_from_values:mode <- $r2
	@DEBUG_VALUE: mbedtls_cipher_info_from_values:key_bitlen <- $r1
	.loc	1 156 49                        @ ../../../ThirdParty/mbedTLS/library/cipher.c:156:49
	ldr	r0, [r5]
.Ltmp43:
	@DEBUG_VALUE: mbedtls_cipher_info_from_values:def <- [DW_OP_plus_uconst 8, DW_OP_stack_value] undef
	.loc	1 156 5                         @ ../../../ThirdParty/mbedTLS/library/cipher.c:156:5
	adds	r5, #8
	cbz	r0, .LBB3_7
.Ltmp44:
.LBB3_3:                                @ =>This Inner Loop Header: Depth=1
	@DEBUG_VALUE: mbedtls_cipher_info_from_values:cipher_id <- $r3
	@DEBUG_VALUE: mbedtls_cipher_info_from_values:mode <- $r2
	@DEBUG_VALUE: mbedtls_cipher_info_from_values:key_bitlen <- $r1
	@DEBUG_VALUE: mbedtls_cipher_info_from_values:def <- undef
	.loc	1 157 24 is_stmt 1              @ ../../../ThirdParty/mbedTLS/library/cipher.c:157:24
	ldr	r6, [r0, #24]
	.loc	1 157 30 is_stmt 0              @ ../../../ThirdParty/mbedTLS/library/cipher.c:157:30
	ldrb	r6, [r6]
	.loc	1 157 50                        @ ../../../ThirdParty/mbedTLS/library/cipher.c:157:50
	cmp	r6, r3
	bne	.LBB3_2
.Ltmp45:
@ %bb.4:                                @   in Loop: Header=BB3_3 Depth=1
	@DEBUG_VALUE: mbedtls_cipher_info_from_values:cipher_id <- $r3
	@DEBUG_VALUE: mbedtls_cipher_info_from_values:mode <- $r2
	@DEBUG_VALUE: mbedtls_cipher_info_from_values:key_bitlen <- $r1
	.loc	1 158 28 is_stmt 1              @ ../../../ThirdParty/mbedTLS/library/cipher.c:158:28
	ldr	r6, [r0, #4]
	.loc	1 158 64 is_stmt 0              @ ../../../ThirdParty/mbedTLS/library/cipher.c:158:64
	cmp	r6, r1
	bne	.LBB3_2
.Ltmp46:
@ %bb.5:                                @   in Loop: Header=BB3_3 Depth=1
	@DEBUG_VALUE: mbedtls_cipher_info_from_values:cipher_id <- $r3
	@DEBUG_VALUE: mbedtls_cipher_info_from_values:mode <- $r2
	@DEBUG_VALUE: mbedtls_cipher_info_from_values:key_bitlen <- $r1
	.loc	1 159 28 is_stmt 1              @ ../../../ThirdParty/mbedTLS/library/cipher.c:159:28
	ldrb	r6, [r0, #1]
.Ltmp47:
	.loc	1 157 13                        @ ../../../ThirdParty/mbedTLS/library/cipher.c:157:13
	cmp	r6, r2
	bne	.LBB3_2
.Ltmp48:
@ %bb.6:
	@DEBUG_VALUE: mbedtls_cipher_info_from_values:cipher_id <- $r3
	@DEBUG_VALUE: mbedtls_cipher_info_from_values:mode <- $r2
	@DEBUG_VALUE: mbedtls_cipher_info_from_values:key_bitlen <- $r1
	.loc	1 163 1                         @ ../../../ThirdParty/mbedTLS/library/cipher.c:163:1
	pop	{r4, r5, r6, pc}
.Ltmp49:
.LBB3_7:
	@DEBUG_VALUE: mbedtls_cipher_info_from_values:cipher_id <- $r3
	@DEBUG_VALUE: mbedtls_cipher_info_from_values:mode <- $r2
	@DEBUG_VALUE: mbedtls_cipher_info_from_values:key_bitlen <- $r1
	.loc	1 0 0 is_stmt 0                 @ ../../../ThirdParty/mbedTLS/library/cipher.c:0:0
	mov	r0, r4
	.loc	1 163 1                         @ ../../../ThirdParty/mbedTLS/library/cipher.c:163:1
	pop	{r4, r5, r6, pc}
.Ltmp50:
	.p2align	2
@ %bb.8:
	.loc	1 0 1                           @ ../../../ThirdParty/mbedTLS/library/cipher.c:0:1
__arm_cp.3_0:
	.long	mbedtls_cipher_definitions
.Lcpi_end5:
	.size	__arm_cp.3_0, .Lcpi_end5-__arm_cp.3_0
.Lfunc_end3:
	.size	mbedtls_cipher_info_from_values, .Lfunc_end3-mbedtls_cipher_info_from_values
	.cfi_endproc
	.cantunwind
	.fnend
                                        @ -- End function
	.section	.text.mbedtls_cipher_init,"ax",%progbits
	.hidden	mbedtls_cipher_init             @ -- Begin function mbedtls_cipher_init
	.globl	mbedtls_cipher_init
	.p2align	1
	.type	mbedtls_cipher_init,%function
	.code	16                              @ @mbedtls_cipher_init
	.thumb_func
mbedtls_cipher_init:
.Lfunc_begin4:
	.loc	1 166 0 is_stmt 1               @ ../../../ThirdParty/mbedTLS/library/cipher.c:166:0
	.fnstart
	.cfi_startproc
@ %bb.0:
	@DEBUG_VALUE: mbedtls_cipher_init:ctx <- $r0
	@DEBUG_VALUE: mbedtls_cipher_init:ctx <- $r0
	.save	{r7, lr}
	push	{r7, lr}
	.cfi_def_cfa_offset 8
	.cfi_offset lr, -4
	.cfi_offset r7, -8
	movs	r1, #64
	@DEBUG_VALUE: mbedtls_cipher_init:ctx <- $r0
.Ltmp51:
	.loc	1 168 5 prologue_end            @ ../../../ThirdParty/mbedTLS/library/cipher.c:168:5
	bl	__aeabi_memclr4
.Ltmp52:
	@DEBUG_VALUE: mbedtls_cipher_init:ctx <- [DW_OP_LLVM_entry_value 1] $r0
	.loc	1 169 1                         @ ../../../ThirdParty/mbedTLS/library/cipher.c:169:1
	pop	{r7, pc}
.Ltmp53:
.Lfunc_end4:
	.size	mbedtls_cipher_init, .Lfunc_end4-mbedtls_cipher_init
	.cfi_endproc
	.cantunwind
	.fnend
                                        @ -- End function
	.section	.text.mbedtls_cipher_free,"ax",%progbits
	.hidden	mbedtls_cipher_free             @ -- Begin function mbedtls_cipher_free
	.globl	mbedtls_cipher_free
	.p2align	1
	.type	mbedtls_cipher_free,%function
	.code	16                              @ @mbedtls_cipher_free
	.thumb_func
mbedtls_cipher_free:
.Lfunc_begin5:
	.loc	1 172 0                         @ ../../../ThirdParty/mbedTLS/library/cipher.c:172:0
	.fnstart
	.cfi_startproc
@ %bb.0:
	@DEBUG_VALUE: mbedtls_cipher_free:ctx <- $r0
	@DEBUG_VALUE: mbedtls_cipher_free:ctx <- $r0
	.save	{r4, lr}
	push	{r4, lr}
	.cfi_def_cfa_offset 8
	.cfi_offset lr, -4
	.cfi_offset r4, -8
.Ltmp54:
	.loc	1 173 9 prologue_end            @ ../../../ThirdParty/mbedTLS/library/cipher.c:173:9
	cbz	r0, .LBB5_4
.Ltmp55:
@ %bb.1:
	@DEBUG_VALUE: mbedtls_cipher_free:ctx <- $r0
	.loc	1 0 9 is_stmt 0                 @ ../../../ThirdParty/mbedTLS/library/cipher.c:0:9
	mov	r4, r0
.Ltmp56:
	@DEBUG_VALUE: mbedtls_cipher_free:ctx <- $r4
	.loc	1 208 14 is_stmt 1              @ ../../../ThirdParty/mbedTLS/library/cipher.c:208:14
	ldr	r0, [r0, #60]
.Ltmp57:
	.loc	1 208 9 is_stmt 0               @ ../../../ThirdParty/mbedTLS/library/cipher.c:208:9
	cbz	r0, .LBB5_3
.Ltmp58:
@ %bb.2:
	@DEBUG_VALUE: mbedtls_cipher_free:ctx <- $r4
	.loc	1 209 14 is_stmt 1              @ ../../../ThirdParty/mbedTLS/library/cipher.c:209:14
	ldr	r1, [r4]
	.loc	1 209 27 is_stmt 0              @ ../../../ThirdParty/mbedTLS/library/cipher.c:209:27
	ldr	r1, [r1, #24]
	.loc	1 209 33                        @ ../../../ThirdParty/mbedTLS/library/cipher.c:209:33
	ldr	r1, [r1, #36]
	.loc	1 209 9                         @ ../../../ThirdParty/mbedTLS/library/cipher.c:209:9
	blx	r1
.Ltmp59:
.LBB5_3:
	@DEBUG_VALUE: mbedtls_cipher_free:ctx <- $r4
	.loc	1 0 9                           @ ../../../ThirdParty/mbedTLS/library/cipher.c:0:9
	movs	r1, #64
	.loc	1 211 5 is_stmt 1               @ ../../../ThirdParty/mbedTLS/library/cipher.c:211:5
	mov	r0, r4
	bl	mbedtls_platform_zeroize
.Ltmp60:
.LBB5_4:
	.loc	1 212 1                         @ ../../../ThirdParty/mbedTLS/library/cipher.c:212:1
	pop	{r4, pc}
.Ltmp61:
.Lfunc_end5:
	.size	mbedtls_cipher_free, .Lfunc_end5-mbedtls_cipher_free
	.cfi_endproc
	.cantunwind
	.fnend
                                        @ -- End function
	.section	.text.mbedtls_cipher_setup,"ax",%progbits
	.hidden	mbedtls_cipher_setup            @ -- Begin function mbedtls_cipher_setup
	.globl	mbedtls_cipher_setup
	.p2align	2
	.type	mbedtls_cipher_setup,%function
	.code	16                              @ @mbedtls_cipher_setup
	.thumb_func
mbedtls_cipher_setup:
.Lfunc_begin6:
	.loc	1 216 0                         @ ../../../ThirdParty/mbedTLS/library/cipher.c:216:0
	.fnstart
	.cfi_startproc
@ %bb.0:
	@DEBUG_VALUE: mbedtls_cipher_setup:ctx <- $r0
	@DEBUG_VALUE: mbedtls_cipher_setup:cipher_info <- $r1
	.save	{r4, r5, r6, lr}
	push	{r4, r5, r6, lr}
	.cfi_def_cfa_offset 16
	.cfi_offset lr, -4
	.cfi_offset r6, -8
	.cfi_offset r5, -12
	.cfi_offset r4, -16
	ldr	r4, __arm_cp.6_0
	@DEBUG_VALUE: mbedtls_cipher_setup:cipher_info <- $r1
	@DEBUG_VALUE: mbedtls_cipher_setup:ctx <- $r0
.Ltmp62:
	.loc	1 218 9 prologue_end            @ ../../../ThirdParty/mbedTLS/library/cipher.c:218:9
	cbz	r1, .LBB6_4
.Ltmp63:
@ %bb.1:
	@DEBUG_VALUE: mbedtls_cipher_setup:cipher_info <- $r1
	@DEBUG_VALUE: mbedtls_cipher_setup:ctx <- $r0
	.loc	1 0 9 is_stmt 0                 @ ../../../ThirdParty/mbedTLS/library/cipher.c:0:9
	mov	r6, r1
.Ltmp64:
	@DEBUG_VALUE: mbedtls_cipher_setup:cipher_info <- $r6
	mov	r5, r0
.Ltmp65:
	@DEBUG_VALUE: mbedtls_cipher_setup:ctx <- $r5
	movs	r1, #64
	.loc	1 221 5 is_stmt 1               @ ../../../ThirdParty/mbedTLS/library/cipher.c:221:5
	bl	__aeabi_memclr4
.Ltmp66:
	.loc	1 223 50                        @ ../../../ThirdParty/mbedTLS/library/cipher.c:223:50
	ldr	r0, [r6, #24]
	.loc	1 223 56 is_stmt 0              @ ../../../ThirdParty/mbedTLS/library/cipher.c:223:56
	ldr	r0, [r0, #32]
	.loc	1 223 37                        @ ../../../ThirdParty/mbedTLS/library/cipher.c:223:37
	blx	r0
	.loc	1 223 35                        @ ../../../ThirdParty/mbedTLS/library/cipher.c:223:35
	str	r0, [r5, #60]
.Ltmp67:
	.loc	1 223 9                         @ ../../../ThirdParty/mbedTLS/library/cipher.c:223:9
	cbz	r0, .LBB6_3
.Ltmp68:
@ %bb.2:
	@DEBUG_VALUE: mbedtls_cipher_setup:cipher_info <- $r6
	@DEBUG_VALUE: mbedtls_cipher_setup:ctx <- $r5
	.loc	1 226 22 is_stmt 1              @ ../../../ThirdParty/mbedTLS/library/cipher.c:226:22
	str	r6, [r5]
	movs	r4, #0
	.loc	1 233 12                        @ ../../../ThirdParty/mbedTLS/library/cipher.c:233:12
	mov	r0, r5
	mov	r1, r4
	bl	mbedtls_cipher_set_padding_mode
.Ltmp69:
.LBB6_3:
	@DEBUG_VALUE: mbedtls_cipher_setup:cipher_info <- $r6
	@DEBUG_VALUE: mbedtls_cipher_setup:ctx <- $r5
	.loc	1 240 1                         @ ../../../ThirdParty/mbedTLS/library/cipher.c:240:1
	mov	r0, r4
	pop	{r4, r5, r6, pc}
.Ltmp70:
.LBB6_4:
	@DEBUG_VALUE: mbedtls_cipher_setup:cipher_info <- $r1
	@DEBUG_VALUE: mbedtls_cipher_setup:ctx <- $r0
	.loc	1 0 1 is_stmt 0                 @ ../../../ThirdParty/mbedTLS/library/cipher.c:0:1
	adds	r4, #128
	.loc	1 240 1                         @ ../../../ThirdParty/mbedTLS/library/cipher.c:240:1
	mov	r0, r4
.Ltmp71:
	@DEBUG_VALUE: mbedtls_cipher_setup:ctx <- [DW_OP_LLVM_entry_value 1] $r0
	pop	{r4, r5, r6, pc}
.Ltmp72:
	.p2align	2
@ %bb.5:
	.loc	1 0 1                           @ ../../../ThirdParty/mbedTLS/library/cipher.c:0:1
__arm_cp.6_0:
	.long	4294942336                      @ 0xffff9e80
.Lcpi_end6:
	.size	__arm_cp.6_0, .Lcpi_end6-__arm_cp.6_0
.Lfunc_end6:
	.size	mbedtls_cipher_setup, .Lfunc_end6-mbedtls_cipher_setup
	.cfi_endproc
	.cantunwind
	.fnend
                                        @ -- End function
	.section	.text.mbedtls_cipher_set_padding_mode,"ax",%progbits
	.hidden	mbedtls_cipher_set_padding_mode @ -- Begin function mbedtls_cipher_set_padding_mode
	.globl	mbedtls_cipher_set_padding_mode
	.p2align	2
	.type	mbedtls_cipher_set_padding_mode,%function
	.code	16                              @ @mbedtls_cipher_set_padding_mode
	.thumb_func
mbedtls_cipher_set_padding_mode:
.Lfunc_begin7:
	.loc	1 1034 0 is_stmt 1              @ ../../../ThirdParty/mbedTLS/library/cipher.c:1034:0
	.fnstart
	.cfi_startproc
@ %bb.0:
	@DEBUG_VALUE: mbedtls_cipher_set_padding_mode:ctx <- $r0
	@DEBUG_VALUE: mbedtls_cipher_set_padding_mode:ctx <- $r0
	@DEBUG_VALUE: mbedtls_cipher_set_padding_mode:mode <- $r1
	@DEBUG_VALUE: mbedtls_cipher_set_padding_mode:mode <- $r1
	.loc	1 1037 22 prologue_end          @ ../../../ThirdParty/mbedTLS/library/cipher.c:1037:22
	ldr	r3, [r0]
	ldr	r2, __arm_cp.7_0
	.loc	1 1037 34 is_stmt 0             @ ../../../ThirdParty/mbedTLS/library/cipher.c:1037:34
	cbz	r3, .LBB7_12
.Ltmp73:
@ %bb.1:
	@DEBUG_VALUE: mbedtls_cipher_set_padding_mode:mode <- $r1
	@DEBUG_VALUE: mbedtls_cipher_set_padding_mode:ctx <- $r0
	@DEBUG_VALUE: mbedtls_cipher_set_padding_mode:mode <- $r1
	.loc	1 1037 75                       @ ../../../ThirdParty/mbedTLS/library/cipher.c:1037:75
	ldrb	r3, [r3, #1]
.Ltmp74:
	.loc	1 1037 9                        @ ../../../ThirdParty/mbedTLS/library/cipher.c:1037:9
	cmp	r3, #2
	bne	.LBB7_12
.Ltmp75:
@ %bb.2:
	@DEBUG_VALUE: mbedtls_cipher_set_padding_mode:mode <- $r1
	@DEBUG_VALUE: mbedtls_cipher_set_padding_mode:ctx <- $r0
	@DEBUG_VALUE: mbedtls_cipher_set_padding_mode:mode <- $r1
	.loc	1 1055 5 is_stmt 1              @ ../../../ThirdParty/mbedTLS/library/cipher.c:1055:5
	cmp	r1, #4
	bhi	.LBB7_6
.Ltmp76:
@ %bb.3:
	@DEBUG_VALUE: mbedtls_cipher_set_padding_mode:mode <- $r1
	@DEBUG_VALUE: mbedtls_cipher_set_padding_mode:ctx <- $r0
	@DEBUG_VALUE: mbedtls_cipher_set_padding_mode:mode <- $r1
	.loc	1 0 5 is_stmt 0                 @ ../../../ThirdParty/mbedTLS/library/cipher.c:0:5
	lsls	r2, r1, #2
	adr	r3, .LJTI7_0
	adds	r2, r3, r2
	mov	pc, r2
.Ltmp77:
@ %bb.4:
	.p2align	2
.LJTI7_0:
	b.w	.LBB7_5
	b.w	.LBB7_7
	b.w	.LBB7_8
	b.w	.LBB7_9
	b.w	.LBB7_11
.LBB7_5:
.Ltmp78:
	@DEBUG_VALUE: mbedtls_cipher_set_padding_mode:mode <- $r1
	@DEBUG_VALUE: mbedtls_cipher_set_padding_mode:ctx <- $r0
	.loc	1 1060 26 is_stmt 1             @ ../../../ThirdParty/mbedTLS/library/cipher.c:1060:26
	ldr	r1, __arm_cp.7_8
.Ltmp79:
	@DEBUG_VALUE: mbedtls_cipher_set_padding_mode:mode <- [DW_OP_LLVM_entry_value 1] $r1
	.loc	1 1059 26                       @ ../../../ThirdParty/mbedTLS/library/cipher.c:1059:26
	ldr	r2, __arm_cp.7_9
	b	.LBB7_10
.Ltmp80:
.LBB7_6:
	@DEBUG_VALUE: mbedtls_cipher_set_padding_mode:mode <- $r1
	@DEBUG_VALUE: mbedtls_cipher_set_padding_mode:ctx <- $r0
	.loc	1 0 26 is_stmt 0                @ ../../../ThirdParty/mbedTLS/library/cipher.c:0:26
	adds	r2, #128
	.loc	1 1091 1 is_stmt 1              @ ../../../ThirdParty/mbedTLS/library/cipher.c:1091:1
	mov	r0, r2
.Ltmp81:
	@DEBUG_VALUE: mbedtls_cipher_set_padding_mode:ctx <- [DW_OP_LLVM_entry_value 1] $r0
	bx	lr
.Ltmp82:
.LBB7_7:
	@DEBUG_VALUE: mbedtls_cipher_set_padding_mode:mode <- $r1
	@DEBUG_VALUE: mbedtls_cipher_set_padding_mode:ctx <- $r0
	.loc	1 1066 26                       @ ../../../ThirdParty/mbedTLS/library/cipher.c:1066:26
	ldr	r1, __arm_cp.7_6
.Ltmp83:
	@DEBUG_VALUE: mbedtls_cipher_set_padding_mode:mode <- [DW_OP_LLVM_entry_value 1] $r1
	.loc	1 1065 26                       @ ../../../ThirdParty/mbedTLS/library/cipher.c:1065:26
	ldr	r2, __arm_cp.7_7
	b	.LBB7_10
.Ltmp84:
.LBB7_8:
	@DEBUG_VALUE: mbedtls_cipher_set_padding_mode:mode <- $r1
	@DEBUG_VALUE: mbedtls_cipher_set_padding_mode:ctx <- $r0
	.loc	1 1072 26                       @ ../../../ThirdParty/mbedTLS/library/cipher.c:1072:26
	ldr	r1, __arm_cp.7_4
.Ltmp85:
	@DEBUG_VALUE: mbedtls_cipher_set_padding_mode:mode <- [DW_OP_LLVM_entry_value 1] $r1
	.loc	1 1071 26                       @ ../../../ThirdParty/mbedTLS/library/cipher.c:1071:26
	ldr	r2, __arm_cp.7_5
	b	.LBB7_10
.Ltmp86:
.LBB7_9:
	@DEBUG_VALUE: mbedtls_cipher_set_padding_mode:mode <- $r1
	@DEBUG_VALUE: mbedtls_cipher_set_padding_mode:ctx <- $r0
	.loc	1 1078 26                       @ ../../../ThirdParty/mbedTLS/library/cipher.c:1078:26
	ldr	r1, __arm_cp.7_2
.Ltmp87:
	@DEBUG_VALUE: mbedtls_cipher_set_padding_mode:mode <- [DW_OP_LLVM_entry_value 1] $r1
	.loc	1 1077 26                       @ ../../../ThirdParty/mbedTLS/library/cipher.c:1077:26
	ldr	r2, __arm_cp.7_3
.Ltmp88:
.LBB7_10:
	@DEBUG_VALUE: mbedtls_cipher_set_padding_mode:ctx <- $r0
	@DEBUG_VALUE: mbedtls_cipher_set_padding_mode:mode <- [DW_OP_LLVM_entry_value 1] $r1
	.loc	1 0 0 is_stmt 0                 @ ../../../ThirdParty/mbedTLS/library/cipher.c:0:0
	str	r2, [r0, #12]
	str	r1, [r0, #16]
	movs	r0, #0
.Ltmp89:
	@DEBUG_VALUE: mbedtls_cipher_set_padding_mode:ctx <- [DW_OP_LLVM_entry_value 1] $r0
	.loc	1 1091 1 is_stmt 1              @ ../../../ThirdParty/mbedTLS/library/cipher.c:1091:1
	bx	lr
.Ltmp90:
.LBB7_11:
	@DEBUG_VALUE: mbedtls_cipher_set_padding_mode:mode <- $r1
	@DEBUG_VALUE: mbedtls_cipher_set_padding_mode:ctx <- $r0
	.loc	1 1083 26                       @ ../../../ThirdParty/mbedTLS/library/cipher.c:1083:26
	ldr	r1, __arm_cp.7_1
.Ltmp91:
	@DEBUG_VALUE: mbedtls_cipher_set_padding_mode:mode <- [DW_OP_LLVM_entry_value 1] $r1
	.loc	1 0 26 is_stmt 0                @ ../../../ThirdParty/mbedTLS/library/cipher.c:0:26
	movs	r2, #0
	.loc	1 1082 26 is_stmt 1             @ ../../../ThirdParty/mbedTLS/library/cipher.c:1082:26
	str	r2, [r0, #12]
	.loc	1 1083 26                       @ ../../../ThirdParty/mbedTLS/library/cipher.c:1083:26
	str	r1, [r0, #16]
.Ltmp92:
.LBB7_12:
	@DEBUG_VALUE: mbedtls_cipher_set_padding_mode:ctx <- $r0
	.loc	1 1091 1                        @ ../../../ThirdParty/mbedTLS/library/cipher.c:1091:1
	mov	r0, r2
.Ltmp93:
	@DEBUG_VALUE: mbedtls_cipher_set_padding_mode:ctx <- [DW_OP_LLVM_entry_value 1] $r0
	bx	lr
.Ltmp94:
	.p2align	2
@ %bb.13:
	.loc	1 0 1 is_stmt 0                 @ ../../../ThirdParty/mbedTLS/library/cipher.c:0:1
__arm_cp.7_0:
	.long	4294942464                      @ 0xffff9f00
.Lcpi_end7:
	.size	__arm_cp.7_0, .Lcpi_end7-__arm_cp.7_0
__arm_cp.7_1:
	.long	get_no_padding
.Lcpi_end8:
	.size	__arm_cp.7_1, .Lcpi_end8-__arm_cp.7_1
__arm_cp.7_2:
	.long	get_zeros_padding
.Lcpi_end9:
	.size	__arm_cp.7_2, .Lcpi_end9-__arm_cp.7_2
__arm_cp.7_3:
	.long	add_zeros_padding
.Lcpi_end10:
	.size	__arm_cp.7_3, .Lcpi_end10-__arm_cp.7_3
__arm_cp.7_4:
	.long	get_zeros_and_len_padding
.Lcpi_end11:
	.size	__arm_cp.7_4, .Lcpi_end11-__arm_cp.7_4
__arm_cp.7_5:
	.long	add_zeros_and_len_padding
.Lcpi_end12:
	.size	__arm_cp.7_5, .Lcpi_end12-__arm_cp.7_5
__arm_cp.7_6:
	.long	get_one_and_zeros_padding
.Lcpi_end13:
	.size	__arm_cp.7_6, .Lcpi_end13-__arm_cp.7_6
__arm_cp.7_7:
	.long	add_one_and_zeros_padding
.Lcpi_end14:
	.size	__arm_cp.7_7, .Lcpi_end14-__arm_cp.7_7
__arm_cp.7_8:
	.long	get_pkcs_padding
.Lcpi_end15:
	.size	__arm_cp.7_8, .Lcpi_end15-__arm_cp.7_8
__arm_cp.7_9:
	.long	add_pkcs_padding
.Lcpi_end16:
	.size	__arm_cp.7_9, .Lcpi_end16-__arm_cp.7_9
.Lfunc_end7:
	.size	mbedtls_cipher_set_padding_mode, .Lfunc_end7-mbedtls_cipher_set_padding_mode
	.cfi_endproc
	.cantunwind
	.fnend
                                        @ -- End function
	.section	.text.mbedtls_cipher_setkey,"ax",%progbits
	.hidden	mbedtls_cipher_setkey           @ -- Begin function mbedtls_cipher_setkey
	.globl	mbedtls_cipher_setkey
	.p2align	2
	.type	mbedtls_cipher_setkey,%function
	.code	16                              @ @mbedtls_cipher_setkey
	.thumb_func
mbedtls_cipher_setkey:
.Lfunc_begin8:
	.loc	1 278 0 is_stmt 1               @ ../../../ThirdParty/mbedTLS/library/cipher.c:278:0
	.fnstart
	.cfi_startproc
@ %bb.0:
	@DEBUG_VALUE: mbedtls_cipher_setkey:ctx <- $r0
	@DEBUG_VALUE: mbedtls_cipher_setkey:key <- $r1
	@DEBUG_VALUE: mbedtls_cipher_setkey:key_bitlen <- $r2
	@DEBUG_VALUE: mbedtls_cipher_setkey:operation <- $r3
	.save	{r4, r5, r6, lr}
	push	{r4, r5, r6, lr}
	.cfi_def_cfa_offset 16
	.cfi_offset lr, -4
	.cfi_offset r6, -8
	.cfi_offset r5, -12
	.cfi_offset r4, -16
	mov	r4, r0
	@DEBUG_VALUE: mbedtls_cipher_setkey:operation <- $r3
	@DEBUG_VALUE: mbedtls_cipher_setkey:key_bitlen <- $r2
	@DEBUG_VALUE: mbedtls_cipher_setkey:key <- $r1
.Ltmp95:
	@DEBUG_VALUE: mbedtls_cipher_setkey:ctx <- $r4
	.loc	1 283 14 prologue_end           @ ../../../ThirdParty/mbedTLS/library/cipher.c:283:14
	ldr	r5, [r0]
	ldr	r0, __arm_cp.8_0
.Ltmp96:
	.loc	1 283 9 is_stmt 0               @ ../../../ThirdParty/mbedTLS/library/cipher.c:283:9
	cbz	r5, .LBB8_7
.Ltmp97:
@ %bb.1:
	@DEBUG_VALUE: mbedtls_cipher_setkey:ctx <- $r4
	@DEBUG_VALUE: mbedtls_cipher_setkey:operation <- $r3
	@DEBUG_VALUE: mbedtls_cipher_setkey:key_bitlen <- $r2
	@DEBUG_VALUE: mbedtls_cipher_setkey:key <- $r1
	@DEBUG_VALUE: mbedtls_cipher_setkey:operation <- $r3
	.loc	1 352 76 is_stmt 1              @ ../../../ThirdParty/mbedTLS/library/cipher.c:352:76
	ldrb	r6, [r5, #16]
	lsls	r6, r6, #30
	bmi	.LBB8_3
.Ltmp98:
@ %bb.2:
	@DEBUG_VALUE: mbedtls_cipher_setkey:ctx <- $r4
	@DEBUG_VALUE: mbedtls_cipher_setkey:operation <- $r3
	@DEBUG_VALUE: mbedtls_cipher_setkey:key_bitlen <- $r2
	@DEBUG_VALUE: mbedtls_cipher_setkey:key <- $r1
	.loc	1 353 37                        @ ../../../ThirdParty/mbedTLS/library/cipher.c:353:37
	ldr	r6, [r5, #4]
.Ltmp99:
	.loc	1 352 9                         @ ../../../ThirdParty/mbedTLS/library/cipher.c:352:9
	cmp	r6, r2
	bne	.LBB8_7
.Ltmp100:
.LBB8_3:
	@DEBUG_VALUE: mbedtls_cipher_setkey:ctx <- $r4
	@DEBUG_VALUE: mbedtls_cipher_setkey:operation <- $r3
	@DEBUG_VALUE: mbedtls_cipher_setkey:key_bitlen <- $r2
	@DEBUG_VALUE: mbedtls_cipher_setkey:key <- $r1
	@DEBUG_VALUE: mbedtls_cipher_setkey:operation <- $r3
	.loc	1 359 20                        @ ../../../ThirdParty/mbedTLS/library/cipher.c:359:20
	strb	r3, [r4, #8]
	.loc	1 358 21                        @ ../../../ThirdParty/mbedTLS/library/cipher.c:358:21
	str	r2, [r4, #4]
.Ltmp101:
	.loc	1 364 38                        @ ../../../ThirdParty/mbedTLS/library/cipher.c:364:38
	cmp	r3, #1
	beq	.LBB8_5
.Ltmp102:
@ %bb.4:
	@DEBUG_VALUE: mbedtls_cipher_setkey:ctx <- $r4
	@DEBUG_VALUE: mbedtls_cipher_setkey:operation <- $r3
	@DEBUG_VALUE: mbedtls_cipher_setkey:key_bitlen <- $r2
	@DEBUG_VALUE: mbedtls_cipher_setkey:key <- $r1
	.loc	1 365 51                        @ ../../../ThirdParty/mbedTLS/library/cipher.c:365:51
	ldrb	r6, [r5, #1]
	.loc	1 365 56 is_stmt 0              @ ../../../ThirdParty/mbedTLS/library/cipher.c:365:56
	subs	r6, r6, #3
	cmp	r6, #2
	bhi	.LBB8_6
.Ltmp103:
.LBB8_5:
	@DEBUG_VALUE: mbedtls_cipher_setkey:ctx <- $r4
	@DEBUG_VALUE: mbedtls_cipher_setkey:operation <- $r3
	@DEBUG_VALUE: mbedtls_cipher_setkey:key_bitlen <- $r2
	@DEBUG_VALUE: mbedtls_cipher_setkey:key <- $r1
	.loc	1 369 63 is_stmt 1              @ ../../../ThirdParty/mbedTLS/library/cipher.c:369:63
	ldr	r0, [r4, #60]
	.loc	1 369 35 is_stmt 0              @ ../../../ThirdParty/mbedTLS/library/cipher.c:369:35
	ldr	r3, [r5, #24]
.Ltmp104:
	@DEBUG_VALUE: mbedtls_cipher_setkey:operation <- [DW_OP_LLVM_entry_value 1] $r3
	.loc	1 369 41                        @ ../../../ThirdParty/mbedTLS/library/cipher.c:369:41
	ldr	r3, [r3, #24]
	.loc	1 369 17                        @ ../../../ThirdParty/mbedTLS/library/cipher.c:369:17
	blx	r3
.Ltmp105:
	@DEBUG_VALUE: mbedtls_cipher_setkey:key_bitlen <- [DW_OP_LLVM_entry_value 1] $r2
	@DEBUG_VALUE: mbedtls_cipher_setkey:key <- [DW_OP_LLVM_entry_value 1] $r1
	.loc	1 378 1 is_stmt 1               @ ../../../ThirdParty/mbedTLS/library/cipher.c:378:1
	pop	{r4, r5, r6, pc}
.Ltmp106:
.LBB8_6:
	@DEBUG_VALUE: mbedtls_cipher_setkey:ctx <- $r4
	@DEBUG_VALUE: mbedtls_cipher_setkey:operation <- $r3
	@DEBUG_VALUE: mbedtls_cipher_setkey:key_bitlen <- $r2
	@DEBUG_VALUE: mbedtls_cipher_setkey:key <- $r1
	.loc	1 373 9                         @ ../../../ThirdParty/mbedTLS/library/cipher.c:373:9
	cbz	r3, .LBB8_8
.Ltmp107:
.LBB8_7:
	@DEBUG_VALUE: mbedtls_cipher_setkey:ctx <- $r4
	@DEBUG_VALUE: mbedtls_cipher_setkey:operation <- $r3
	@DEBUG_VALUE: mbedtls_cipher_setkey:key_bitlen <- $r2
	@DEBUG_VALUE: mbedtls_cipher_setkey:key <- $r1
	.loc	1 378 1                         @ ../../../ThirdParty/mbedTLS/library/cipher.c:378:1
	pop	{r4, r5, r6, pc}
.Ltmp108:
.LBB8_8:
	@DEBUG_VALUE: mbedtls_cipher_setkey:ctx <- $r4
	@DEBUG_VALUE: mbedtls_cipher_setkey:operation <- $r3
	@DEBUG_VALUE: mbedtls_cipher_setkey:key_bitlen <- $r2
	@DEBUG_VALUE: mbedtls_cipher_setkey:key <- $r1
	.loc	1 374 63                        @ ../../../ThirdParty/mbedTLS/library/cipher.c:374:63
	ldr	r0, [r4, #60]
	.loc	1 374 35 is_stmt 0              @ ../../../ThirdParty/mbedTLS/library/cipher.c:374:35
	ldr	r3, [r5, #24]
.Ltmp109:
	@DEBUG_VALUE: mbedtls_cipher_setkey:operation <- [DW_OP_LLVM_entry_value 1] $r3
	.loc	1 374 41                        @ ../../../ThirdParty/mbedTLS/library/cipher.c:374:41
	ldr	r3, [r3, #28]
	.loc	1 374 17                        @ ../../../ThirdParty/mbedTLS/library/cipher.c:374:17
	blx	r3
.Ltmp110:
	@DEBUG_VALUE: mbedtls_cipher_setkey:key_bitlen <- [DW_OP_LLVM_entry_value 1] $r2
	@DEBUG_VALUE: mbedtls_cipher_setkey:key <- [DW_OP_LLVM_entry_value 1] $r1
	.loc	1 378 1 is_stmt 1               @ ../../../ThirdParty/mbedTLS/library/cipher.c:378:1
	pop	{r4, r5, r6, pc}
.Ltmp111:
	.p2align	2
@ %bb.9:
	.loc	1 0 1 is_stmt 0                 @ ../../../ThirdParty/mbedTLS/library/cipher.c:0:1
__arm_cp.8_0:
	.long	4294942464                      @ 0xffff9f00
.Lcpi_end17:
	.size	__arm_cp.8_0, .Lcpi_end17-__arm_cp.8_0
.Lfunc_end8:
	.size	mbedtls_cipher_setkey, .Lfunc_end8-mbedtls_cipher_setkey
	.cfi_endproc
	.cantunwind
	.fnend
                                        @ -- End function
	.section	.text.mbedtls_cipher_set_iv,"ax",%progbits
	.hidden	mbedtls_cipher_set_iv           @ -- Begin function mbedtls_cipher_set_iv
	.globl	mbedtls_cipher_set_iv
	.p2align	2
	.type	mbedtls_cipher_set_iv,%function
	.code	16                              @ @mbedtls_cipher_set_iv
	.thumb_func
mbedtls_cipher_set_iv:
.Lfunc_begin9:
	.loc	1 383 0 is_stmt 1               @ ../../../ThirdParty/mbedTLS/library/cipher.c:383:0
	.fnstart
	.cfi_startproc
@ %bb.0:
	@DEBUG_VALUE: mbedtls_cipher_set_iv:ctx <- $r0
	@DEBUG_VALUE: mbedtls_cipher_set_iv:iv <- $r1
	@DEBUG_VALUE: mbedtls_cipher_set_iv:iv_len <- $r2
	.save	{r4, r5, r6, lr}
	push	{r4, r5, r6, lr}
	.cfi_def_cfa_offset 16
	.cfi_offset lr, -4
	.cfi_offset r6, -8
	.cfi_offset r5, -12
	.cfi_offset r4, -16
	mov	r5, r0
	@DEBUG_VALUE: mbedtls_cipher_set_iv:iv_len <- $r2
	@DEBUG_VALUE: mbedtls_cipher_set_iv:iv <- $r1
.Ltmp112:
	@DEBUG_VALUE: mbedtls_cipher_set_iv:ctx <- $r5
	.loc	1 388 14 prologue_end           @ ../../../ThirdParty/mbedTLS/library/cipher.c:388:14
	ldr	r0, [r0]
	ldr	r4, __arm_cp.9_0
.Ltmp113:
	.loc	1 388 9 is_stmt 0               @ ../../../ThirdParty/mbedTLS/library/cipher.c:388:9
	cbz	r0, .LBB9_5
.Ltmp114:
@ %bb.1:
	@DEBUG_VALUE: mbedtls_cipher_set_iv:ctx <- $r5
	@DEBUG_VALUE: mbedtls_cipher_set_iv:iv_len <- $r2
	@DEBUG_VALUE: mbedtls_cipher_set_iv:iv <- $r1
	.loc	1 401 9 is_stmt 1               @ ../../../ThirdParty/mbedTLS/library/cipher.c:401:9
	cmp	r2, #16
	bls	.LBB9_3
.Ltmp115:
@ %bb.2:
	@DEBUG_VALUE: mbedtls_cipher_set_iv:ctx <- $r5
	@DEBUG_VALUE: mbedtls_cipher_set_iv:iv_len <- $r2
	@DEBUG_VALUE: mbedtls_cipher_set_iv:iv <- $r1
	.loc	1 0 9 is_stmt 0                 @ ../../../ThirdParty/mbedTLS/library/cipher.c:0:9
	adds	r4, #128
	.loc	1 434 1 is_stmt 1               @ ../../../ThirdParty/mbedTLS/library/cipher.c:434:1
	mov	r0, r4
	pop	{r4, r5, r6, pc}
.Ltmp116:
.LBB9_3:
	@DEBUG_VALUE: mbedtls_cipher_set_iv:ctx <- $r5
	@DEBUG_VALUE: mbedtls_cipher_set_iv:iv_len <- $r2
	@DEBUG_VALUE: mbedtls_cipher_set_iv:iv <- $r1
	.loc	1 404 9                         @ ../../../ThirdParty/mbedTLS/library/cipher.c:404:9
	ldrb	r3, [r0, #16]
	lsls	r3, r3, #31
	bne	.LBB9_6
.Ltmp117:
@ %bb.4:
	@DEBUG_VALUE: mbedtls_cipher_set_iv:ctx <- $r5
	@DEBUG_VALUE: mbedtls_cipher_set_iv:iv_len <- $r2
	@DEBUG_VALUE: mbedtls_cipher_set_iv:iv <- $r1
	.loc	1 408 44                        @ ../../../ThirdParty/mbedTLS/library/cipher.c:408:44
	ldr	r6, [r0, #12]
.Ltmp118:
	@DEBUG_VALUE: mbedtls_cipher_set_iv:actual_iv_size <- $r6
	.loc	1 411 13                        @ ../../../ThirdParty/mbedTLS/library/cipher.c:411:13
	cmp	r6, r2
	bls	.LBB9_7
.Ltmp119:
.LBB9_5:
	@DEBUG_VALUE: mbedtls_cipher_set_iv:ctx <- $r5
	@DEBUG_VALUE: mbedtls_cipher_set_iv:iv <- $r1
	.loc	1 434 1                         @ ../../../ThirdParty/mbedTLS/library/cipher.c:434:1
	mov	r0, r4
	pop	{r4, r5, r6, pc}
.Ltmp120:
.LBB9_6:
	@DEBUG_VALUE: mbedtls_cipher_set_iv:ctx <- $r5
	@DEBUG_VALUE: mbedtls_cipher_set_iv:iv_len <- $r2
	@DEBUG_VALUE: mbedtls_cipher_set_iv:iv <- $r1
	.loc	1 0 0 is_stmt 0                 @ ../../../ThirdParty/mbedTLS/library/cipher.c:0:0
	mov	r6, r2
.Ltmp121:
	@DEBUG_VALUE: mbedtls_cipher_set_iv:iv_len <- $r6
.LBB9_7:
	@DEBUG_VALUE: mbedtls_cipher_set_iv:ctx <- $r5
	@DEBUG_VALUE: mbedtls_cipher_set_iv:iv <- $r1
	@DEBUG_VALUE: mbedtls_cipher_set_iv:actual_iv_size <- $r6
	movs	r4, #0
	.loc	1 427 10 is_stmt 1              @ ../../../ThirdParty/mbedTLS/library/cipher.c:427:10
	cmp	r6, #0
	beq	.LBB9_5
.Ltmp122:
@ %bb.8:
	@DEBUG_VALUE: mbedtls_cipher_set_iv:actual_iv_size <- $r6
	@DEBUG_VALUE: mbedtls_cipher_set_iv:ctx <- $r5
	@DEBUG_VALUE: mbedtls_cipher_set_iv:iv <- $r1
	.loc	1 429 9                         @ ../../../ThirdParty/mbedTLS/library/cipher.c:429:9
	mov	r0, r5
	adds	r0, #40
	mov	r2, r6
	bl	__aeabi_memcpy
.Ltmp123:
	@DEBUG_VALUE: mbedtls_cipher_set_iv:iv <- [DW_OP_LLVM_entry_value 1] $r1
	.loc	1 430 22                        @ ../../../ThirdParty/mbedTLS/library/cipher.c:430:22
	str	r6, [r5, #56]
.Ltmp124:
	.loc	1 434 1                         @ ../../../ThirdParty/mbedTLS/library/cipher.c:434:1
	mov	r0, r4
	pop	{r4, r5, r6, pc}
.Ltmp125:
	.p2align	2
@ %bb.9:
	.loc	1 0 1 is_stmt 0                 @ ../../../ThirdParty/mbedTLS/library/cipher.c:0:1
__arm_cp.9_0:
	.long	4294942464                      @ 0xffff9f00
.Lcpi_end18:
	.size	__arm_cp.9_0, .Lcpi_end18-__arm_cp.9_0
.Lfunc_end9:
	.size	mbedtls_cipher_set_iv, .Lfunc_end9-mbedtls_cipher_set_iv
	.cfi_endproc
	.cantunwind
	.fnend
                                        @ -- End function
	.section	.text.mbedtls_cipher_reset,"ax",%progbits
	.hidden	mbedtls_cipher_reset            @ -- Begin function mbedtls_cipher_reset
	.globl	mbedtls_cipher_reset
	.p2align	2
	.type	mbedtls_cipher_reset,%function
	.code	16                              @ @mbedtls_cipher_reset
	.thumb_func
mbedtls_cipher_reset:
.Lfunc_begin10:
	.loc	1 437 0 is_stmt 1               @ ../../../ThirdParty/mbedTLS/library/cipher.c:437:0
	.fnstart
	.cfi_startproc
@ %bb.0:
	@DEBUG_VALUE: mbedtls_cipher_reset:ctx <- $r0
	mov	r1, r0
.Ltmp126:
	@DEBUG_VALUE: mbedtls_cipher_reset:ctx <- $r1
	.loc	1 439 14 prologue_end           @ ../../../ThirdParty/mbedTLS/library/cipher.c:439:14
	ldr	r0, [r0]
.Ltmp127:
	.loc	1 439 9 is_stmt 0               @ ../../../ThirdParty/mbedTLS/library/cipher.c:439:9
	cbz	r0, .LBB10_2
.Ltmp128:
@ %bb.1:
	@DEBUG_VALUE: mbedtls_cipher_reset:ctx <- $r1
	.loc	1 0 9                           @ ../../../ThirdParty/mbedTLS/library/cipher.c:0:9
	movs	r0, #0
	.loc	1 451 26 is_stmt 1              @ ../../../ThirdParty/mbedTLS/library/cipher.c:451:26
	str	r0, [r1, #36]
	.loc	1 454 1                         @ ../../../ThirdParty/mbedTLS/library/cipher.c:454:1
	bx	lr
.Ltmp129:
.LBB10_2:
	@DEBUG_VALUE: mbedtls_cipher_reset:ctx <- $r1
	.loc	1 0 1 is_stmt 0                 @ ../../../ThirdParty/mbedTLS/library/cipher.c:0:1
	ldr	r0, __arm_cp.10_0
	.loc	1 454 1                         @ ../../../ThirdParty/mbedTLS/library/cipher.c:454:1
	bx	lr
.Ltmp130:
	.p2align	2
@ %bb.3:
	.loc	1 0 1                           @ ../../../ThirdParty/mbedTLS/library/cipher.c:0:1
__arm_cp.10_0:
	.long	4294942464                      @ 0xffff9f00
.Lcpi_end19:
	.size	__arm_cp.10_0, .Lcpi_end19-__arm_cp.10_0
.Lfunc_end10:
	.size	mbedtls_cipher_reset, .Lfunc_end10-mbedtls_cipher_reset
	.cfi_endproc
	.cantunwind
	.fnend
                                        @ -- End function
	.section	.text.mbedtls_cipher_update_ad,"ax",%progbits
	.hidden	mbedtls_cipher_update_ad        @ -- Begin function mbedtls_cipher_update_ad
	.globl	mbedtls_cipher_update_ad
	.p2align	2
	.type	mbedtls_cipher_update_ad,%function
	.code	16                              @ @mbedtls_cipher_update_ad
	.thumb_func
mbedtls_cipher_update_ad:
.Lfunc_begin11:
	.loc	1 459 0 is_stmt 1               @ ../../../ThirdParty/mbedTLS/library/cipher.c:459:0
	.fnstart
	.cfi_startproc
@ %bb.0:
	@DEBUG_VALUE: mbedtls_cipher_update_ad:ctx <- $r0
	@DEBUG_VALUE: mbedtls_cipher_update_ad:ad <- $r1
	@DEBUG_VALUE: mbedtls_cipher_update_ad:ad_len <- $r2
	.save	{r4, r5, r7, lr}
	push	{r4, r5, r7, lr}
	.cfi_def_cfa_offset 16
	.cfi_offset lr, -4
	.cfi_offset r7, -8
	.cfi_offset r5, -12
	.cfi_offset r4, -16
	.pad	#8
	sub	sp, #8
	.cfi_def_cfa_offset 24
	mov	r5, r0
	@DEBUG_VALUE: mbedtls_cipher_update_ad:ad_len <- $r2
	@DEBUG_VALUE: mbedtls_cipher_update_ad:ad <- $r1
.Ltmp131:
	@DEBUG_VALUE: mbedtls_cipher_update_ad:ctx <- $r5
	.loc	1 462 14 prologue_end           @ ../../../ThirdParty/mbedTLS/library/cipher.c:462:14
	ldr	r0, [r0]
.Ltmp132:
	.loc	1 462 9 is_stmt 0               @ ../../../ThirdParty/mbedTLS/library/cipher.c:462:9
	cbz	r0, .LBB11_3
.Ltmp133:
@ %bb.1:
	@DEBUG_VALUE: mbedtls_cipher_update_ad:ctx <- $r5
	@DEBUG_VALUE: mbedtls_cipher_update_ad:ad_len <- $r2
	@DEBUG_VALUE: mbedtls_cipher_update_ad:ad <- $r1
	.loc	1 476 47 is_stmt 1              @ ../../../ThirdParty/mbedTLS/library/cipher.c:476:47
	ldrb	r0, [r0, #1]
.Ltmp134:
	.loc	1 476 9 is_stmt 0               @ ../../../ThirdParty/mbedTLS/library/cipher.c:476:9
	cmp	r0, #6
	bne	.LBB11_4
.Ltmp135:
@ %bb.2:
	@DEBUG_VALUE: mbedtls_cipher_update_ad:ctx <- $r5
	@DEBUG_VALUE: mbedtls_cipher_update_ad:ad_len <- $r2
	@DEBUG_VALUE: mbedtls_cipher_update_ad:ad <- $r1
	.loc	1 0 9                           @ ../../../ThirdParty/mbedTLS/library/cipher.c:0:9
	movs	r0, #8
.Ltmp136:
	.loc	1 478 83 is_stmt 1              @ ../../../ThirdParty/mbedTLS/library/cipher.c:478:83
	ldrsb	r4, [r5, r0]
	.loc	1 479 51                        @ ../../../ThirdParty/mbedTLS/library/cipher.c:479:51
	ldr	r3, [r5, #56]
	.loc	1 478 66                        @ ../../../ThirdParty/mbedTLS/library/cipher.c:478:66
	ldr	r0, [r5, #60]
	.loc	1 478 17 is_stmt 0              @ ../../../ThirdParty/mbedTLS/library/cipher.c:478:17
	str	r1, [sp]
	str	r2, [sp, #4]
	.loc	1 479 37 is_stmt 1              @ ../../../ThirdParty/mbedTLS/library/cipher.c:479:37
	adds	r5, #40
.Ltmp137:
	.loc	1 478 17                        @ ../../../ThirdParty/mbedTLS/library/cipher.c:478:17
	mov	r1, r4
.Ltmp138:
	@DEBUG_VALUE: mbedtls_cipher_update_ad:ad <- [DW_OP_LLVM_entry_value 1] $r1
	mov	r2, r5
.Ltmp139:
	@DEBUG_VALUE: mbedtls_cipher_update_ad:ad_len <- [DW_OP_LLVM_entry_value 1] $r2
	bl	mbedtls_gcm_starts
.Ltmp140:
	.loc	1 505 1                         @ ../../../ThirdParty/mbedTLS/library/cipher.c:505:1
	add	sp, #8
	pop	{r4, r5, r7, pc}
.Ltmp141:
.LBB11_3:
	@DEBUG_VALUE: mbedtls_cipher_update_ad:ctx <- $r5
	@DEBUG_VALUE: mbedtls_cipher_update_ad:ad_len <- $r2
	@DEBUG_VALUE: mbedtls_cipher_update_ad:ad <- $r1
	.loc	1 0 1 is_stmt 0                 @ ../../../ThirdParty/mbedTLS/library/cipher.c:0:1
	ldr	r0, __arm_cp.11_0
	.loc	1 505 1                         @ ../../../ThirdParty/mbedTLS/library/cipher.c:505:1
	add	sp, #8
	pop	{r4, r5, r7, pc}
.Ltmp142:
.LBB11_4:
	@DEBUG_VALUE: mbedtls_cipher_update_ad:ctx <- $r5
	@DEBUG_VALUE: mbedtls_cipher_update_ad:ad_len <- $r2
	@DEBUG_VALUE: mbedtls_cipher_update_ad:ad <- $r1
	.loc	1 0 1                           @ ../../../ThirdParty/mbedTLS/library/cipher.c:0:1
	movs	r0, #0
	.loc	1 505 1                         @ ../../../ThirdParty/mbedTLS/library/cipher.c:505:1
	add	sp, #8
	pop	{r4, r5, r7, pc}
.Ltmp143:
	.p2align	2
@ %bb.5:
	.loc	1 0 1                           @ ../../../ThirdParty/mbedTLS/library/cipher.c:0:1
__arm_cp.11_0:
	.long	4294942464                      @ 0xffff9f00
.Lcpi_end20:
	.size	__arm_cp.11_0, .Lcpi_end20-__arm_cp.11_0
.Lfunc_end11:
	.size	mbedtls_cipher_update_ad, .Lfunc_end11-mbedtls_cipher_update_ad
	.cfi_endproc
	.cantunwind
	.fnend
                                        @ -- End function
	.section	.text.mbedtls_cipher_update,"ax",%progbits
	.hidden	mbedtls_cipher_update           @ -- Begin function mbedtls_cipher_update
	.globl	mbedtls_cipher_update
	.p2align	2
	.type	mbedtls_cipher_update,%function
	.code	16                              @ @mbedtls_cipher_update
	.thumb_func
mbedtls_cipher_update:
.Lfunc_begin12:
	.loc	1 510 0 is_stmt 1               @ ../../../ThirdParty/mbedTLS/library/cipher.c:510:0
	.fnstart
	.cfi_startproc
@ %bb.0:
	@DEBUG_VALUE: mbedtls_cipher_update:ctx <- $r0
	@DEBUG_VALUE: mbedtls_cipher_update:input <- $r1
	@DEBUG_VALUE: mbedtls_cipher_update:ilen <- $r2
	@DEBUG_VALUE: mbedtls_cipher_update:output <- $r3
	@DEBUG_VALUE: mbedtls_cipher_update:output <- $r3
	@DEBUG_VALUE: mbedtls_cipher_update:ilen <- $r2
	@DEBUG_VALUE: mbedtls_cipher_update:input <- $r1
	@DEBUG_VALUE: mbedtls_cipher_update:ctx <- $r0
	.save	{r4, r5, r6, r7, lr}
	push	{r4, r5, r6, r7, lr}
	.cfi_def_cfa_offset 20
	.cfi_offset lr, -4
	.cfi_offset r7, -8
	.cfi_offset r6, -12
	.cfi_offset r5, -16
	.cfi_offset r4, -20
	.pad	#36
	sub	sp, #36
	.cfi_def_cfa_offset 56
.Ltmp144:
	@DEBUG_VALUE: mbedtls_cipher_update:olen <- [DW_OP_plus_uconst 56] [$sp+0]
	.loc	1 518 14 prologue_end           @ ../../../ThirdParty/mbedTLS/library/cipher.c:518:14
	ldr	r4, [r0]
	ldr	r7, __arm_cp.12_0
.Ltmp145:
	.loc	1 518 9 is_stmt 0               @ ../../../ThirdParty/mbedTLS/library/cipher.c:518:9
	cmp	r4, #0
	bne	.LBB12_1
	b	.LBB12_46
.Ltmp146:
.LBB12_1:
	@DEBUG_VALUE: mbedtls_cipher_update:output <- $r3
	@DEBUG_VALUE: mbedtls_cipher_update:ilen <- $r2
	@DEBUG_VALUE: mbedtls_cipher_update:input <- $r1
	@DEBUG_VALUE: mbedtls_cipher_update:ctx <- $r0
	@DEBUG_VALUE: mbedtls_cipher_update:olen <- [DW_OP_plus_uconst 56] [$sp+0]
	.loc	1 0 9                           @ ../../../ThirdParty/mbedTLS/library/cipher.c:0:9
	mov	r5, r0
.Ltmp147:
	@DEBUG_VALUE: mbedtls_cipher_update:ctx <- $r5
	str	r1, [sp, #28]                   @ 4-byte Spill
.Ltmp148:
	@DEBUG_VALUE: mbedtls_cipher_update:input <- [DW_OP_plus_uconst 28] [$sp+0]
	str	r3, [sp, #24]                   @ 4-byte Spill
.Ltmp149:
	@DEBUG_VALUE: mbedtls_cipher_update:output <- [DW_OP_plus_uconst 24] [$sp+0]
	str	r2, [sp, #32]                   @ 4-byte Spill
.Ltmp150:
	@DEBUG_VALUE: mbedtls_cipher_update:ilen <- [DW_OP_plus_uconst 32] [$sp+0]
	ldr	r0, [sp, #56]
	movs	r6, #0
	str	r0, [sp, #20]                   @ 4-byte Spill
	.loc	1 531 11 is_stmt 1              @ ../../../ThirdParty/mbedTLS/library/cipher.c:531:11
	str	r6, [r0]
	.loc	1 532 18                        @ ../../../ThirdParty/mbedTLS/library/cipher.c:532:18
	mov	r0, r5
	bl	mbedtls_cipher_get_block_size
	mov	r3, r0
.Ltmp151:
	@DEBUG_VALUE: mbedtls_cipher_update:block_size <- $r3
	.loc	1 534 27                        @ ../../../ThirdParty/mbedTLS/library/cipher.c:534:27
	ldrb	r0, [r4, #1]
.Ltmp152:
	.loc	1 534 9 is_stmt 0               @ ../../../ThirdParty/mbedTLS/library/cipher.c:534:9
	cmp	r0, #6
	beq	.LBB12_5
.Ltmp153:
@ %bb.2:
	@DEBUG_VALUE: mbedtls_cipher_update:ilen <- [DW_OP_plus_uconst 32] [$sp+0]
	@DEBUG_VALUE: mbedtls_cipher_update:output <- [DW_OP_plus_uconst 24] [$sp+0]
	@DEBUG_VALUE: mbedtls_cipher_update:input <- [DW_OP_plus_uconst 28] [$sp+0]
	@DEBUG_VALUE: mbedtls_cipher_update:ctx <- $r5
	@DEBUG_VALUE: mbedtls_cipher_update:block_size <- $r3
	@DEBUG_VALUE: mbedtls_cipher_update:olen <- [DW_OP_plus_uconst 56] [$sp+0]
	cmp	r0, #1
	bne	.LBB12_6
.Ltmp154:
@ %bb.3:
	@DEBUG_VALUE: mbedtls_cipher_update:ilen <- [DW_OP_plus_uconst 32] [$sp+0]
	@DEBUG_VALUE: mbedtls_cipher_update:output <- [DW_OP_plus_uconst 24] [$sp+0]
	@DEBUG_VALUE: mbedtls_cipher_update:input <- [DW_OP_plus_uconst 28] [$sp+0]
	@DEBUG_VALUE: mbedtls_cipher_update:ctx <- $r5
	@DEBUG_VALUE: mbedtls_cipher_update:block_size <- $r3
	@DEBUG_VALUE: mbedtls_cipher_update:olen <- [DW_OP_plus_uconst 56] [$sp+0]
	.loc	1 0 9                           @ ../../../ThirdParty/mbedTLS/library/cipher.c:0:9
	ldr	r1, [sp, #32]                   @ 4-byte Reload
.Ltmp155:
	@DEBUG_VALUE: mbedtls_cipher_update:ilen <- $r1
	.loc	1 536 13 is_stmt 1              @ ../../../ThirdParty/mbedTLS/library/cipher.c:536:13
	cmp	r3, r1
	bne	.LBB12_20
.Ltmp156:
@ %bb.4:
	@DEBUG_VALUE: mbedtls_cipher_update:output <- [DW_OP_plus_uconst 24] [$sp+0]
	@DEBUG_VALUE: mbedtls_cipher_update:input <- [DW_OP_plus_uconst 28] [$sp+0]
	@DEBUG_VALUE: mbedtls_cipher_update:ctx <- $r5
	@DEBUG_VALUE: mbedtls_cipher_update:block_size <- $r3
	@DEBUG_VALUE: mbedtls_cipher_update:ilen <- $r1
	@DEBUG_VALUE: mbedtls_cipher_update:olen <- [DW_OP_plus_uconst 56] [$sp+0]
	.loc	1 539 15                        @ ../../../ThirdParty/mbedTLS/library/cipher.c:539:15
	ldr	r0, [sp, #20]                   @ 4-byte Reload
	str	r1, [r0]
	movs	r0, #8
.Ltmp157:
	.loc	1 542 31                        @ ../../../ThirdParty/mbedTLS/library/cipher.c:542:31
	ldrsb	r1, [r5, r0]
.Ltmp158:
	@DEBUG_VALUE: mbedtls_cipher_update:ilen <- [DW_OP_LLVM_entry_value 1] $r2
	.loc	1 541 65                        @ ../../../ThirdParty/mbedTLS/library/cipher.c:541:65
	ldr	r0, [r5, #60]
	.loc	1 541 44 is_stmt 0              @ ../../../ThirdParty/mbedTLS/library/cipher.c:541:44
	ldr	r2, [r4, #24]
	.loc	1 541 50                        @ ../../../ThirdParty/mbedTLS/library/cipher.c:541:50
	ldr	r4, [r2, #4]
	.loc	1 541 26                        @ ../../../ThirdParty/mbedTLS/library/cipher.c:541:26
	ldr	r2, [sp, #28]                   @ 4-byte Reload
.Ltmp159:
	@DEBUG_VALUE: mbedtls_cipher_update:input <- $r2
	ldr	r3, [sp, #24]                   @ 4-byte Reload
.Ltmp160:
	@DEBUG_VALUE: mbedtls_cipher_update:output <- $r3
	blx	r4
.Ltmp161:
	@DEBUG_VALUE: mbedtls_cipher_update:output <- [DW_OP_LLVM_entry_value 1] $r3
	@DEBUG_VALUE: mbedtls_cipher_update:input <- [DW_OP_LLVM_entry_value 1] $r1
	@DEBUG_VALUE: mbedtls_cipher_update:ret <- $r0
	.loc	1 541 13                        @ ../../../ThirdParty/mbedTLS/library/cipher.c:541:13
	add	sp, #36
.Ltmp162:
	pop	{r4, r5, r6, r7, pc}
.Ltmp163:
.LBB12_5:
	@DEBUG_VALUE: mbedtls_cipher_update:ilen <- [DW_OP_plus_uconst 32] [$sp+0]
	@DEBUG_VALUE: mbedtls_cipher_update:output <- [DW_OP_plus_uconst 24] [$sp+0]
	@DEBUG_VALUE: mbedtls_cipher_update:input <- [DW_OP_plus_uconst 28] [$sp+0]
	@DEBUG_VALUE: mbedtls_cipher_update:ctx <- $r5
	@DEBUG_VALUE: mbedtls_cipher_update:block_size <- $r3
	@DEBUG_VALUE: mbedtls_cipher_update:olen <- [DW_OP_plus_uconst 56] [$sp+0]
	.loc	1 553 15 is_stmt 1              @ ../../../ThirdParty/mbedTLS/library/cipher.c:553:15
	ldr	r0, [sp, #20]                   @ 4-byte Reload
	ldr	r1, [sp, #32]                   @ 4-byte Reload
.Ltmp164:
	@DEBUG_VALUE: mbedtls_cipher_update:ilen <- $r1
	str	r1, [r0]
	.loc	1 554 66                        @ ../../../ThirdParty/mbedTLS/library/cipher.c:554:66
	ldr	r0, [r5, #60]
	.loc	1 554 17 is_stmt 0              @ ../../../ThirdParty/mbedTLS/library/cipher.c:554:17
	ldr	r2, [sp, #28]                   @ 4-byte Reload
.Ltmp165:
	@DEBUG_VALUE: mbedtls_cipher_update:input <- $r2
	ldr	r3, [sp, #24]                   @ 4-byte Reload
.Ltmp166:
	@DEBUG_VALUE: mbedtls_cipher_update:output <- $r3
	bl	mbedtls_gcm_update
.Ltmp167:
	@DEBUG_VALUE: mbedtls_cipher_update:output <- [DW_OP_LLVM_entry_value 1] $r3
	@DEBUG_VALUE: mbedtls_cipher_update:input <- [DW_OP_LLVM_entry_value 1] $r1
	@DEBUG_VALUE: mbedtls_cipher_update:ilen <- [DW_OP_LLVM_entry_value 1] $r2
	mov	r7, r0
	.loc	1 554 9                         @ ../../../ThirdParty/mbedTLS/library/cipher.c:554:9
	b	.LBB12_46
.Ltmp168:
.LBB12_6:
	@DEBUG_VALUE: mbedtls_cipher_update:ilen <- [DW_OP_plus_uconst 32] [$sp+0]
	@DEBUG_VALUE: mbedtls_cipher_update:output <- [DW_OP_plus_uconst 24] [$sp+0]
	@DEBUG_VALUE: mbedtls_cipher_update:input <- [DW_OP_plus_uconst 28] [$sp+0]
	@DEBUG_VALUE: mbedtls_cipher_update:ctx <- $r5
	@DEBUG_VALUE: mbedtls_cipher_update:block_size <- $r3
	@DEBUG_VALUE: mbedtls_cipher_update:olen <- [DW_OP_plus_uconst 56] [$sp+0]
	.loc	1 568 10 is_stmt 1              @ ../../../ThirdParty/mbedTLS/library/cipher.c:568:10
	cmp	r3, #0
	beq	.LBB12_21
.Ltmp169:
@ %bb.7:
	@DEBUG_VALUE: mbedtls_cipher_update:ilen <- [DW_OP_plus_uconst 32] [$sp+0]
	@DEBUG_VALUE: mbedtls_cipher_update:output <- [DW_OP_plus_uconst 24] [$sp+0]
	@DEBUG_VALUE: mbedtls_cipher_update:input <- [DW_OP_plus_uconst 28] [$sp+0]
	@DEBUG_VALUE: mbedtls_cipher_update:ctx <- $r5
	@DEBUG_VALUE: mbedtls_cipher_update:block_size <- $r3
	@DEBUG_VALUE: mbedtls_cipher_update:olen <- [DW_OP_plus_uconst 56] [$sp+0]
	.loc	1 573 25                        @ ../../../ThirdParty/mbedTLS/library/cipher.c:573:25
	ldr	r1, [sp, #24]                   @ 4-byte Reload
.Ltmp170:
	@DEBUG_VALUE: mbedtls_cipher_update:output <- $r1
	ldr	r2, [sp, #28]                   @ 4-byte Reload
.Ltmp171:
	@DEBUG_VALUE: mbedtls_cipher_update:input <- $r2
	cmp	r2, r1
	beq	.LBB12_22
.Ltmp172:
.LBB12_8:
	@DEBUG_VALUE: mbedtls_cipher_update:ctx <- $r5
	@DEBUG_VALUE: mbedtls_cipher_update:block_size <- $r3
	@DEBUG_VALUE: mbedtls_cipher_update:olen <- [DW_OP_plus_uconst 56] [$sp+0]
	.loc	1 0 0 is_stmt 0                 @ ../../../ThirdParty/mbedTLS/library/cipher.c:0:0
	adds	r7, #128
	.loc	1 580 9 is_stmt 1               @ ../../../ThirdParty/mbedTLS/library/cipher.c:580:9
	subs	r0, r0, #2
	cmp	r0, #5
	bls	.LBB12_9
	b	.LBB12_46
.Ltmp173:
.LBB12_9:
	@DEBUG_VALUE: mbedtls_cipher_update:ctx <- $r5
	@DEBUG_VALUE: mbedtls_cipher_update:block_size <- $r3
	@DEBUG_VALUE: mbedtls_cipher_update:olen <- [DW_OP_plus_uconst 56] [$sp+0]
	.loc	1 0 9 is_stmt 0                 @ ../../../ThirdParty/mbedTLS/library/cipher.c:0:9
	lsls	r1, r0, #2
	adr	r2, .LJTI12_0
	adds	r1, r2, r1
	mov	pc, r1
.Ltmp174:
@ %bb.10:
	.p2align	2
.LJTI12_0:
	b.w	.LBB12_11
	b.w	.LBB12_24
	b.w	.LBB12_46
	b.w	.LBB12_26
	b.w	.LBB12_46
	b.w	.LBB12_28
.LBB12_11:
.Ltmp175:
	@DEBUG_VALUE: mbedtls_cipher_update:ctx <- $r5
	@DEBUG_VALUE: mbedtls_cipher_update:block_size <- $r3
	@DEBUG_VALUE: mbedtls_cipher_update:olen <- [DW_OP_plus_uconst 56] [$sp+0]
	@DEBUG_VALUE: copy_len <- 0
	.loc	1 587 20 is_stmt 1              @ ../../../ThirdParty/mbedTLS/library/cipher.c:587:20
	ldrb	r0, [r5, #8]
	.loc	1 587 49 is_stmt 0              @ ../../../ThirdParty/mbedTLS/library/cipher.c:587:49
	cbnz	r0, .LBB12_17
.Ltmp176:
@ %bb.12:
	@DEBUG_VALUE: mbedtls_cipher_update:ctx <- $r5
	@DEBUG_VALUE: mbedtls_cipher_update:block_size <- $r3
	@DEBUG_VALUE: mbedtls_cipher_update:olen <- [DW_OP_plus_uconst 56] [$sp+0]
	@DEBUG_VALUE: copy_len <- 0
	.loc	1 587 65                        @ ../../../ThirdParty/mbedTLS/library/cipher.c:587:65
	ldr	r1, [r5, #12]
	.loc	1 587 77                        @ ../../../ThirdParty/mbedTLS/library/cipher.c:587:77
	cbz	r1, .LBB12_14
.Ltmp177:
@ %bb.13:
	@DEBUG_VALUE: mbedtls_cipher_update:ctx <- $r5
	@DEBUG_VALUE: mbedtls_cipher_update:block_size <- $r3
	@DEBUG_VALUE: mbedtls_cipher_update:olen <- [DW_OP_plus_uconst 56] [$sp+0]
	@DEBUG_VALUE: copy_len <- 0
	.loc	1 588 43 is_stmt 1              @ ../../../ThirdParty/mbedTLS/library/cipher.c:588:43
	ldr	r1, [r5, #36]
	.loc	1 588 36 is_stmt 0              @ ../../../ThirdParty/mbedTLS/library/cipher.c:588:36
	subs	r1, r3, r1
	.loc	1 588 61                        @ ../../../ThirdParty/mbedTLS/library/cipher.c:588:61
	ldr	r2, [sp, #32]                   @ 4-byte Reload
	cmp	r1, r2
	bhs	.LBB12_19
.Ltmp178:
.LBB12_14:
	@DEBUG_VALUE: mbedtls_cipher_update:ctx <- $r5
	@DEBUG_VALUE: mbedtls_cipher_update:block_size <- $r3
	@DEBUG_VALUE: mbedtls_cipher_update:olen <- [DW_OP_plus_uconst 56] [$sp+0]
	@DEBUG_VALUE: copy_len <- 0
	.loc	1 589 53 is_stmt 1              @ ../../../ThirdParty/mbedTLS/library/cipher.c:589:53
	cbnz	r0, .LBB12_17
.Ltmp179:
@ %bb.15:
	@DEBUG_VALUE: mbedtls_cipher_update:ctx <- $r5
	@DEBUG_VALUE: mbedtls_cipher_update:block_size <- $r3
	@DEBUG_VALUE: mbedtls_cipher_update:olen <- [DW_OP_plus_uconst 56] [$sp+0]
	@DEBUG_VALUE: copy_len <- 0
	.loc	1 589 69 is_stmt 0              @ ../../../ThirdParty/mbedTLS/library/cipher.c:589:69
	ldr	r1, [r5, #12]
	.loc	1 589 81                        @ ../../../ThirdParty/mbedTLS/library/cipher.c:589:81
	cbnz	r1, .LBB12_17
.Ltmp180:
@ %bb.16:
	@DEBUG_VALUE: mbedtls_cipher_update:ctx <- $r5
	@DEBUG_VALUE: mbedtls_cipher_update:block_size <- $r3
	@DEBUG_VALUE: mbedtls_cipher_update:olen <- [DW_OP_plus_uconst 56] [$sp+0]
	@DEBUG_VALUE: copy_len <- 0
	.loc	1 590 44 is_stmt 1              @ ../../../ThirdParty/mbedTLS/library/cipher.c:590:44
	ldr	r1, [r5, #36]
	.loc	1 590 37 is_stmt 0              @ ../../../ThirdParty/mbedTLS/library/cipher.c:590:37
	subs	r1, r3, r1
	.loc	1 590 62                        @ ../../../ThirdParty/mbedTLS/library/cipher.c:590:62
	ldr	r2, [sp, #32]                   @ 4-byte Reload
	cmp	r1, r2
	bhi	.LBB12_19
.Ltmp181:
.LBB12_17:
	@DEBUG_VALUE: mbedtls_cipher_update:ctx <- $r5
	@DEBUG_VALUE: mbedtls_cipher_update:block_size <- $r3
	@DEBUG_VALUE: mbedtls_cipher_update:olen <- [DW_OP_plus_uconst 56] [$sp+0]
	@DEBUG_VALUE: copy_len <- 0
	.loc	1 591 53 is_stmt 1              @ ../../../ThirdParty/mbedTLS/library/cipher.c:591:53
	cmp	r0, #1
	bne	.LBB12_30
.Ltmp182:
@ %bb.18:
	@DEBUG_VALUE: mbedtls_cipher_update:ctx <- $r5
	@DEBUG_VALUE: mbedtls_cipher_update:block_size <- $r3
	@DEBUG_VALUE: mbedtls_cipher_update:olen <- [DW_OP_plus_uconst 56] [$sp+0]
	@DEBUG_VALUE: copy_len <- 0
	.loc	1 592 44                        @ ../../../ThirdParty/mbedTLS/library/cipher.c:592:44
	ldr	r0, [r5, #36]
	.loc	1 592 37 is_stmt 0              @ ../../../ThirdParty/mbedTLS/library/cipher.c:592:37
	subs	r0, r3, r0
.Ltmp183:
	.loc	1 587 13 is_stmt 1              @ ../../../ThirdParty/mbedTLS/library/cipher.c:587:13
	ldr	r1, [sp, #32]                   @ 4-byte Reload
	cmp	r0, r1
	bls	.LBB12_30
.Ltmp184:
.LBB12_19:
	@DEBUG_VALUE: mbedtls_cipher_update:ctx <- $r5
	@DEBUG_VALUE: mbedtls_cipher_update:block_size <- $r3
	@DEBUG_VALUE: mbedtls_cipher_update:olen <- [DW_OP_plus_uconst 56] [$sp+0]
	@DEBUG_VALUE: copy_len <- 0
	.loc	1 594 51                        @ ../../../ThirdParty/mbedTLS/library/cipher.c:594:51
	ldr	r0, [r5, #36]
	.loc	1 594 24 is_stmt 0              @ ../../../ThirdParty/mbedTLS/library/cipher.c:594:24
	adds	r0, r5, r0
	adds	r0, #20
	.loc	1 594 13                        @ ../../../ThirdParty/mbedTLS/library/cipher.c:594:13
	ldr	r1, [sp, #28]                   @ 4-byte Reload
	ldr	r4, [sp, #32]                   @ 4-byte Reload
	mov	r2, r4
	bl	__aeabi_memcpy
.Ltmp185:
	.loc	1 597 34 is_stmt 1              @ ../../../ThirdParty/mbedTLS/library/cipher.c:597:34
	ldr	r0, [r5, #36]
	adds	r0, r0, r4
	str	r0, [r5, #36]
.Ltmp186:
	.loc	1 0 0 is_stmt 0                 @ ../../../ThirdParty/mbedTLS/library/cipher.c:0:0
	mov	r7, r6
.Ltmp187:
	.loc	1 598 13 is_stmt 1              @ ../../../ThirdParty/mbedTLS/library/cipher.c:598:13
	b	.LBB12_46
.Ltmp188:
.LBB12_20:
	@DEBUG_VALUE: mbedtls_cipher_update:output <- [DW_OP_plus_uconst 24] [$sp+0]
	@DEBUG_VALUE: mbedtls_cipher_update:input <- [DW_OP_plus_uconst 28] [$sp+0]
	@DEBUG_VALUE: mbedtls_cipher_update:ctx <- $r5
	@DEBUG_VALUE: mbedtls_cipher_update:block_size <- $r3
	@DEBUG_VALUE: mbedtls_cipher_update:ilen <- $r1
	@DEBUG_VALUE: mbedtls_cipher_update:olen <- [DW_OP_plus_uconst 56] [$sp+0]
	.loc	1 0 13 is_stmt 0                @ ../../../ThirdParty/mbedTLS/library/cipher.c:0:13
	ldr	r7, __arm_cp.12_1
	b	.LBB12_46
.Ltmp189:
.LBB12_21:
	@DEBUG_VALUE: mbedtls_cipher_update:ilen <- [DW_OP_plus_uconst 32] [$sp+0]
	@DEBUG_VALUE: mbedtls_cipher_update:output <- [DW_OP_plus_uconst 24] [$sp+0]
	@DEBUG_VALUE: mbedtls_cipher_update:input <- [DW_OP_plus_uconst 28] [$sp+0]
	@DEBUG_VALUE: mbedtls_cipher_update:ctx <- $r5
	@DEBUG_VALUE: mbedtls_cipher_update:block_size <- $r3
	@DEBUG_VALUE: mbedtls_cipher_update:olen <- [DW_OP_plus_uconst 56] [$sp+0]
	ldr	r7, __arm_cp.12_2
	b	.LBB12_46
.Ltmp190:
.LBB12_22:
	@DEBUG_VALUE: mbedtls_cipher_update:ilen <- [DW_OP_plus_uconst 32] [$sp+0]
	@DEBUG_VALUE: mbedtls_cipher_update:ctx <- $r5
	@DEBUG_VALUE: mbedtls_cipher_update:block_size <- $r3
	@DEBUG_VALUE: mbedtls_cipher_update:input <- $r2
	@DEBUG_VALUE: mbedtls_cipher_update:output <- $r1
	@DEBUG_VALUE: mbedtls_cipher_update:olen <- [DW_OP_plus_uconst 56] [$sp+0]
	.loc	1 574 20 is_stmt 1              @ ../../../ThirdParty/mbedTLS/library/cipher.c:574:20
	ldr	r1, [r5, #36]
.Ltmp191:
	@DEBUG_VALUE: mbedtls_cipher_update:output <- [DW_OP_LLVM_entry_value 1] $r3
	.loc	1 574 41 is_stmt 0              @ ../../../ThirdParty/mbedTLS/library/cipher.c:574:41
	cmp	r1, #0
	beq	.LBB12_23
	b	.LBB12_46
.Ltmp192:
.LBB12_23:
	@DEBUG_VALUE: mbedtls_cipher_update:ilen <- [DW_OP_plus_uconst 32] [$sp+0]
	@DEBUG_VALUE: mbedtls_cipher_update:ctx <- $r5
	@DEBUG_VALUE: mbedtls_cipher_update:block_size <- $r3
	@DEBUG_VALUE: mbedtls_cipher_update:input <- $r2
	@DEBUG_VALUE: mbedtls_cipher_update:olen <- [DW_OP_plus_uconst 56] [$sp+0]
	@DEBUG_VALUE: mbedtls_cipher_update:output <- [DW_OP_LLVM_entry_value 1] $r3
	.loc	1 0 41                          @ ../../../ThirdParty/mbedTLS/library/cipher.c:0:41
	ldr	r2, [sp, #32]                   @ 4-byte Reload
.Ltmp193:
	@DEBUG_VALUE: mbedtls_cipher_update:ilen <- $r2
	@DEBUG_VALUE: mbedtls_cipher_update:input <- [DW_OP_LLVM_entry_value 1] $r1
	.loc	1 574 49                        @ ../../../ThirdParty/mbedTLS/library/cipher.c:574:49
	udiv	r1, r2, r3
	muls	r1, r3, r1
	subs	r1, r2, r1
.Ltmp194:
	.loc	1 573 9 is_stmt 1               @ ../../../ThirdParty/mbedTLS/library/cipher.c:573:9
	beq	.LBB12_8
	b	.LBB12_46
.Ltmp195:
.LBB12_24:
	@DEBUG_VALUE: mbedtls_cipher_update:ctx <- $r5
	@DEBUG_VALUE: mbedtls_cipher_update:block_size <- $r3
	@DEBUG_VALUE: mbedtls_cipher_update:olen <- [DW_OP_plus_uconst 56] [$sp+0]
	.loc	1 0 9 is_stmt 0                 @ ../../../ThirdParty/mbedTLS/library/cipher.c:0:9
	movs	r0, #8
.Ltmp196:
	.loc	1 677 31 is_stmt 1              @ ../../../ThirdParty/mbedTLS/library/cipher.c:677:31
	ldrsb	r1, [r5, r0]
	.loc	1 676 65                        @ ../../../ThirdParty/mbedTLS/library/cipher.c:676:65
	ldr	r0, [r5, #60]
	.loc	1 676 44 is_stmt 0              @ ../../../ThirdParty/mbedTLS/library/cipher.c:676:44
	ldr	r2, [r4, #24]
	.loc	1 676 50                        @ ../../../ThirdParty/mbedTLS/library/cipher.c:676:50
	ldr	r4, [r2, #12]
	.loc	1 677 71 is_stmt 1              @ ../../../ThirdParty/mbedTLS/library/cipher.c:677:71
	mov	r2, r5
	adds	r2, #40
	.loc	1 676 26                        @ ../../../ThirdParty/mbedTLS/library/cipher.c:676:26
	str	r2, [sp]
	ldr	r2, [sp, #28]                   @ 4-byte Reload
	str	r2, [sp, #4]
	ldr	r2, [sp, #24]                   @ 4-byte Reload
	str	r2, [sp, #8]
	.loc	1 677 54                        @ ../../../ThirdParty/mbedTLS/library/cipher.c:677:54
	adds	r5, #36
.Ltmp197:
	@DEBUG_VALUE: mbedtls_cipher_update:ctx <- [DW_OP_LLVM_entry_value 1] $r0
	.loc	1 676 26                        @ ../../../ThirdParty/mbedTLS/library/cipher.c:676:26
	ldr	r2, [sp, #32]                   @ 4-byte Reload
	mov	r3, r5
.Ltmp198:
	blx	r4
	mov	r7, r0
.Ltmp199:
	@DEBUG_VALUE: mbedtls_cipher_update:ret <- $r7
	.loc	1 676 13 is_stmt 0              @ ../../../ThirdParty/mbedTLS/library/cipher.c:676:13
	cmp	r0, #0
	beq	.LBB12_25
	b	.LBB12_46
.Ltmp200:
.LBB12_25:
	@DEBUG_VALUE: mbedtls_cipher_update:ret <- $r7
	@DEBUG_VALUE: mbedtls_cipher_update:olen <- [DW_OP_plus_uconst 56] [$sp+0]
	@DEBUG_VALUE: mbedtls_cipher_update:ctx <- [DW_OP_LLVM_entry_value 1] $r0
	.loc	1 683 15 is_stmt 1              @ ../../../ThirdParty/mbedTLS/library/cipher.c:683:15
	ldr	r0, [sp, #20]                   @ 4-byte Reload
	ldr	r1, [sp, #32]                   @ 4-byte Reload
	str	r1, [r0]
.Ltmp201:
	.loc	1 0 0 is_stmt 0                 @ ../../../ThirdParty/mbedTLS/library/cipher.c:0:0
	mov	r7, r6
.Ltmp202:
	.loc	1 685 9 is_stmt 1               @ ../../../ThirdParty/mbedTLS/library/cipher.c:685:9
	b	.LBB12_46
.Ltmp203:
.LBB12_26:
	@DEBUG_VALUE: mbedtls_cipher_update:ctx <- $r5
	@DEBUG_VALUE: mbedtls_cipher_update:block_size <- $r3
	@DEBUG_VALUE: mbedtls_cipher_update:olen <- [DW_OP_plus_uconst 56] [$sp+0]
	.loc	1 707 65                        @ ../../../ThirdParty/mbedTLS/library/cipher.c:707:65
	ldr	r0, [r5, #60]
	.loc	1 707 44 is_stmt 0              @ ../../../ThirdParty/mbedTLS/library/cipher.c:707:44
	ldr	r1, [r4, #24]
	.loc	1 707 50                        @ ../../../ThirdParty/mbedTLS/library/cipher.c:707:50
	ldr	r4, [r1, #16]
	.loc	1 709 26 is_stmt 1              @ ../../../ThirdParty/mbedTLS/library/cipher.c:709:26
	mov	r1, r5
	adds	r1, #20
	.loc	1 707 26                        @ ../../../ThirdParty/mbedTLS/library/cipher.c:707:26
	str	r1, [sp]
	ldr	r1, [sp, #28]                   @ 4-byte Reload
	str	r1, [sp, #4]
	ldr	r1, [sp, #24]                   @ 4-byte Reload
	str	r1, [sp, #8]
	.loc	1 708 38                        @ ../../../ThirdParty/mbedTLS/library/cipher.c:708:38
	mov	r2, r5
	adds	r2, #36
	.loc	1 708 55 is_stmt 0              @ ../../../ThirdParty/mbedTLS/library/cipher.c:708:55
	adds	r5, #40
.Ltmp204:
	@DEBUG_VALUE: mbedtls_cipher_update:ctx <- [DW_OP_LLVM_entry_value 1] $r0
	.loc	1 707 26 is_stmt 1              @ ../../../ThirdParty/mbedTLS/library/cipher.c:707:26
	ldr	r1, [sp, #32]                   @ 4-byte Reload
	mov	r3, r5
.Ltmp205:
	blx	r4
	mov	r7, r0
.Ltmp206:
	@DEBUG_VALUE: mbedtls_cipher_update:ret <- $r7
	.loc	1 707 13 is_stmt 0              @ ../../../ThirdParty/mbedTLS/library/cipher.c:707:13
	cmp	r0, #0
	bne	.LBB12_46
.Ltmp207:
@ %bb.27:
	@DEBUG_VALUE: mbedtls_cipher_update:ret <- $r7
	@DEBUG_VALUE: mbedtls_cipher_update:olen <- [DW_OP_plus_uconst 56] [$sp+0]
	@DEBUG_VALUE: mbedtls_cipher_update:ctx <- [DW_OP_LLVM_entry_value 1] $r0
	.loc	1 714 15 is_stmt 1              @ ../../../ThirdParty/mbedTLS/library/cipher.c:714:15
	ldr	r0, [sp, #20]                   @ 4-byte Reload
	ldr	r1, [sp, #32]                   @ 4-byte Reload
	str	r1, [r0]
.Ltmp208:
	.loc	1 0 0 is_stmt 0                 @ ../../../ThirdParty/mbedTLS/library/cipher.c:0:0
	mov	r7, r6
.Ltmp209:
	.loc	1 716 9 is_stmt 1               @ ../../../ThirdParty/mbedTLS/library/cipher.c:716:9
	b	.LBB12_46
.Ltmp210:
.LBB12_28:
	@DEBUG_VALUE: mbedtls_cipher_update:ctx <- $r5
	@DEBUG_VALUE: mbedtls_cipher_update:block_size <- $r3
	@DEBUG_VALUE: mbedtls_cipher_update:olen <- [DW_OP_plus_uconst 56] [$sp+0]
	.loc	1 744 68                        @ ../../../ThirdParty/mbedTLS/library/cipher.c:744:68
	ldr	r0, [r5, #60]
	.loc	1 744 44 is_stmt 0              @ ../../../ThirdParty/mbedTLS/library/cipher.c:744:44
	ldr	r1, [r4, #24]
	.loc	1 744 50                        @ ../../../ThirdParty/mbedTLS/library/cipher.c:744:50
	ldr	r4, [r1, #20]
	.loc	1 744 26                        @ ../../../ThirdParty/mbedTLS/library/cipher.c:744:26
	ldr	r1, [sp, #32]                   @ 4-byte Reload
	ldr	r2, [sp, #28]                   @ 4-byte Reload
	ldr	r3, [sp, #24]                   @ 4-byte Reload
.Ltmp211:
	blx	r4
	mov	r7, r0
.Ltmp212:
	@DEBUG_VALUE: mbedtls_cipher_update:ret <- $r7
	.loc	1 744 13                        @ ../../../ThirdParty/mbedTLS/library/cipher.c:744:13
	cmp	r0, #0
	bne	.LBB12_46
.Ltmp213:
@ %bb.29:
	@DEBUG_VALUE: mbedtls_cipher_update:ret <- $r7
	@DEBUG_VALUE: mbedtls_cipher_update:ctx <- $r5
	@DEBUG_VALUE: mbedtls_cipher_update:olen <- [DW_OP_plus_uconst 56] [$sp+0]
	.loc	1 750 15 is_stmt 1              @ ../../../ThirdParty/mbedTLS/library/cipher.c:750:15
	ldr	r0, [sp, #20]                   @ 4-byte Reload
	ldr	r1, [sp, #32]                   @ 4-byte Reload
	str	r1, [r0]
.Ltmp214:
	.loc	1 0 0 is_stmt 0                 @ ../../../ThirdParty/mbedTLS/library/cipher.c:0:0
	mov	r7, r6
.Ltmp215:
	b	.LBB12_46
.Ltmp216:
.LBB12_30:
	@DEBUG_VALUE: mbedtls_cipher_update:ctx <- $r5
	@DEBUG_VALUE: mbedtls_cipher_update:block_size <- $r3
	@DEBUG_VALUE: mbedtls_cipher_update:olen <- [DW_OP_plus_uconst 56] [$sp+0]
	@DEBUG_VALUE: copy_len <- 0
	.loc	1 604 23 is_stmt 1              @ ../../../ThirdParty/mbedTLS/library/cipher.c:604:23
	ldr	r0, [r5, #36]
.Ltmp217:
	.loc	1 604 13 is_stmt 0              @ ../../../ThirdParty/mbedTLS/library/cipher.c:604:13
	cbz	r0, .LBB12_33
.Ltmp218:
@ %bb.31:
	@DEBUG_VALUE: mbedtls_cipher_update:ctx <- $r5
	@DEBUG_VALUE: mbedtls_cipher_update:block_size <- $r3
	@DEBUG_VALUE: mbedtls_cipher_update:olen <- [DW_OP_plus_uconst 56] [$sp+0]
	@DEBUG_VALUE: copy_len <- 0
	.loc	1 606 35 is_stmt 1              @ ../../../ThirdParty/mbedTLS/library/cipher.c:606:35
	subs	r2, r3, r0
.Ltmp219:
	@DEBUG_VALUE: copy_len <- $r2
	.loc	1 608 24                        @ ../../../ThirdParty/mbedTLS/library/cipher.c:608:24
	mov	r4, r5
	adds	r4, #20
	adds	r0, r4, r0
	.loc	1 608 13 is_stmt 0              @ ../../../ThirdParty/mbedTLS/library/cipher.c:608:13
	ldr	r1, [sp, #28]                   @ 4-byte Reload
	str	r2, [sp, #16]                   @ 4-byte Spill
.Ltmp220:
	@DEBUG_VALUE: copy_len <- [DW_OP_plus_uconst 16] [$sp+0]
	.loc	1 0 13                          @ ../../../ThirdParty/mbedTLS/library/cipher.c:0:13
	mov	r7, r3
.Ltmp221:
	@DEBUG_VALUE: mbedtls_cipher_update:block_size <- $r7
	.loc	1 608 13                        @ ../../../ThirdParty/mbedTLS/library/cipher.c:608:13
	bl	__aeabi_memcpy
	movs	r0, #8
.Ltmp222:
	.loc	1 612 35 is_stmt 1              @ ../../../ThirdParty/mbedTLS/library/cipher.c:612:35
	ldrsb	r1, [r5, r0]
	.loc	1 611 69                        @ ../../../ThirdParty/mbedTLS/library/cipher.c:611:69
	ldr	r0, [r5, #60]
	.loc	1 611 35 is_stmt 0              @ ../../../ThirdParty/mbedTLS/library/cipher.c:611:35
	ldr	r2, [r5]
	.loc	1 611 48                        @ ../../../ThirdParty/mbedTLS/library/cipher.c:611:48
	ldr	r2, [r2, #24]
	.loc	1 611 54                        @ ../../../ThirdParty/mbedTLS/library/cipher.c:611:54
	ldr	r6, [r2, #8]
	.loc	1 611 30                        @ ../../../ThirdParty/mbedTLS/library/cipher.c:611:30
	str	r4, [sp]
	ldr	r2, [sp, #24]                   @ 4-byte Reload
	str	r2, [sp, #4]
	.loc	1 612 58 is_stmt 1              @ ../../../ThirdParty/mbedTLS/library/cipher.c:612:58
	mov	r3, r5
	adds	r3, #40
	.loc	1 611 30                        @ ../../../ThirdParty/mbedTLS/library/cipher.c:611:30
	mov	r2, r7
	blx	r6
	mov	r3, r7
	mov	r7, r0
.Ltmp223:
	@DEBUG_VALUE: mbedtls_cipher_update:ret <- $r7
	.loc	1 611 17 is_stmt 0              @ ../../../ThirdParty/mbedTLS/library/cipher.c:611:17
	cmp	r0, #0
	bne	.LBB12_46
.Ltmp224:
@ %bb.32:
	@DEBUG_VALUE: mbedtls_cipher_update:ret <- $r7
	@DEBUG_VALUE: mbedtls_cipher_update:ctx <- $r5
	@DEBUG_VALUE: copy_len <- [DW_OP_plus_uconst 16] [$sp+0]
	@DEBUG_VALUE: mbedtls_cipher_update:olen <- [DW_OP_plus_uconst 56] [$sp+0]
	.loc	1 0 17                          @ ../../../ThirdParty/mbedTLS/library/cipher.c:0:17
	ldr	r1, [sp, #20]                   @ 4-byte Reload
	.loc	1 618 19 is_stmt 1              @ ../../../ThirdParty/mbedTLS/library/cipher.c:618:19
	ldr	r0, [r1]
	adds	r0, r0, r3
	str	r0, [r1]
	movs	r0, #0
	.loc	1 620 34                        @ ../../../ThirdParty/mbedTLS/library/cipher.c:620:34
	str	r0, [r5, #36]
	ldr	r1, [sp, #32]                   @ 4-byte Reload
	ldr	r2, [sp, #16]                   @ 4-byte Reload
	.loc	1 623 18                        @ ../../../ThirdParty/mbedTLS/library/cipher.c:623:18
	subs	r1, r1, r2
.Ltmp225:
	@DEBUG_VALUE: mbedtls_cipher_update:ilen <- $r1
	.loc	1 622 19                        @ ../../../ThirdParty/mbedTLS/library/cipher.c:622:19
	ldr	r0, [sp, #28]                   @ 4-byte Reload
	adds	r0, r0, r2
.Ltmp226:
	@DEBUG_VALUE: mbedtls_cipher_update:input <- $r0
	.loc	1 619 20                        @ ../../../ThirdParty/mbedTLS/library/cipher.c:619:20
	str	r0, [sp, #28]                   @ 4-byte Spill
.Ltmp227:
	@DEBUG_VALUE: mbedtls_cipher_update:input <- [DW_OP_plus_uconst 28] [$sp+0]
	@DEBUG_VALUE: mbedtls_cipher_update:input <- [DW_OP_plus_uconst 28] [$sp+0]
	ldr	r0, [sp, #24]                   @ 4-byte Reload
	adds	r0, r0, r3
.Ltmp228:
	@DEBUG_VALUE: mbedtls_cipher_update:output <- $r0
	.loc	1 0 20 is_stmt 0                @ ../../../ThirdParty/mbedTLS/library/cipher.c:0:20
	str	r0, [sp, #24]                   @ 4-byte Spill
.Ltmp229:
	@DEBUG_VALUE: mbedtls_cipher_update:output <- [DW_OP_plus_uconst 24] [$sp+0]
	@DEBUG_VALUE: mbedtls_cipher_update:output <- [DW_OP_plus_uconst 24] [$sp+0]
	b	.LBB12_34
.Ltmp230:
.LBB12_33:
	@DEBUG_VALUE: mbedtls_cipher_update:ctx <- $r5
	@DEBUG_VALUE: mbedtls_cipher_update:block_size <- $r3
	@DEBUG_VALUE: mbedtls_cipher_update:olen <- [DW_OP_plus_uconst 56] [$sp+0]
	@DEBUG_VALUE: copy_len <- 0
	ldr	r1, [sp, #32]                   @ 4-byte Reload
.Ltmp231:
.LBB12_34:
	@DEBUG_VALUE: mbedtls_cipher_update:ctx <- $r5
	@DEBUG_VALUE: mbedtls_cipher_update:olen <- [DW_OP_plus_uconst 56] [$sp+0]
	@DEBUG_VALUE: mbedtls_cipher_update:input <- [DW_OP_plus_uconst 28] [$sp+0]
	@DEBUG_VALUE: mbedtls_cipher_update:ilen <- $r1
	@DEBUG_VALUE: mbedtls_cipher_update:output <- [DW_OP_plus_uconst 24] [$sp+0]
	movs	r6, #0
	mov	r4, r6
	.loc	1 629 13 is_stmt 1              @ ../../../ThirdParty/mbedTLS/library/cipher.c:629:13
	cbz	r1, .LBB12_42
.Ltmp232:
@ %bb.35:
	@DEBUG_VALUE: mbedtls_cipher_update:ctx <- $r5
	@DEBUG_VALUE: mbedtls_cipher_update:ilen <- $r1
	@DEBUG_VALUE: mbedtls_cipher_update:output <- [DW_OP_plus_uconst 24] [$sp+0]
	@DEBUG_VALUE: mbedtls_cipher_update:input <- [DW_OP_plus_uconst 28] [$sp+0]
	@DEBUG_VALUE: mbedtls_cipher_update:olen <- [DW_OP_plus_uconst 56] [$sp+0]
	.loc	1 640 29                        @ ../../../ThirdParty/mbedTLS/library/cipher.c:640:29
	udiv	r0, r1, r3
	muls	r0, r3, r0
	subs	r7, r1, r0
.Ltmp233:
	@DEBUG_VALUE: copy_len <- $r7
	.loc	1 641 31                        @ ../../../ThirdParty/mbedTLS/library/cipher.c:641:31
	bne	.LBB12_41
.Ltmp234:
@ %bb.36:
	@DEBUG_VALUE: copy_len <- $r7
	@DEBUG_VALUE: mbedtls_cipher_update:ctx <- $r5
	@DEBUG_VALUE: mbedtls_cipher_update:ilen <- $r1
	@DEBUG_VALUE: mbedtls_cipher_update:output <- [DW_OP_plus_uconst 24] [$sp+0]
	@DEBUG_VALUE: mbedtls_cipher_update:input <- [DW_OP_plus_uconst 28] [$sp+0]
	@DEBUG_VALUE: mbedtls_cipher_update:olen <- [DW_OP_plus_uconst 56] [$sp+0]
	.loc	1 642 26                        @ ../../../ThirdParty/mbedTLS/library/cipher.c:642:26
	ldrb	r0, [r5, #8]
	.loc	1 642 55 is_stmt 0              @ ../../../ThirdParty/mbedTLS/library/cipher.c:642:55
	cbz	r0, .LBB12_38
.Ltmp235:
@ %bb.37:
	@DEBUG_VALUE: copy_len <- $r7
	@DEBUG_VALUE: mbedtls_cipher_update:ctx <- $r5
	@DEBUG_VALUE: mbedtls_cipher_update:ilen <- $r1
	@DEBUG_VALUE: mbedtls_cipher_update:output <- [DW_OP_plus_uconst 24] [$sp+0]
	@DEBUG_VALUE: mbedtls_cipher_update:input <- [DW_OP_plus_uconst 28] [$sp+0]
	@DEBUG_VALUE: mbedtls_cipher_update:olen <- [DW_OP_plus_uconst 56] [$sp+0]
	.loc	1 0 55                          @ ../../../ThirdParty/mbedTLS/library/cipher.c:0:55
	movs	r7, #0
.Ltmp236:
	b	.LBB12_41
.Ltmp237:
.LBB12_38:
	@DEBUG_VALUE: copy_len <- $r7
	@DEBUG_VALUE: mbedtls_cipher_update:ctx <- $r5
	@DEBUG_VALUE: mbedtls_cipher_update:ilen <- $r1
	@DEBUG_VALUE: mbedtls_cipher_update:output <- [DW_OP_plus_uconst 24] [$sp+0]
	@DEBUG_VALUE: mbedtls_cipher_update:input <- [DW_OP_plus_uconst 28] [$sp+0]
	@DEBUG_VALUE: mbedtls_cipher_update:olen <- [DW_OP_plus_uconst 56] [$sp+0]
	.loc	1 643 34 is_stmt 1              @ ../../../ThirdParty/mbedTLS/library/cipher.c:643:34
	ldr	r0, [r5, #12]
.Ltmp238:
	.loc	1 641 17                        @ ../../../ThirdParty/mbedTLS/library/cipher.c:641:17
	cbnz	r0, .LBB12_40
.Ltmp239:
@ %bb.39:
	@DEBUG_VALUE: copy_len <- $r7
	@DEBUG_VALUE: mbedtls_cipher_update:ctx <- $r5
	@DEBUG_VALUE: mbedtls_cipher_update:ilen <- $r1
	@DEBUG_VALUE: mbedtls_cipher_update:output <- [DW_OP_plus_uconst 24] [$sp+0]
	@DEBUG_VALUE: mbedtls_cipher_update:input <- [DW_OP_plus_uconst 28] [$sp+0]
	@DEBUG_VALUE: mbedtls_cipher_update:olen <- [DW_OP_plus_uconst 56] [$sp+0]
	mov	r3, r0
.Ltmp240:
.LBB12_40:
	@DEBUG_VALUE: copy_len <- $r7
	@DEBUG_VALUE: mbedtls_cipher_update:ctx <- $r5
	@DEBUG_VALUE: mbedtls_cipher_update:ilen <- $r1
	@DEBUG_VALUE: mbedtls_cipher_update:output <- [DW_OP_plus_uconst 24] [$sp+0]
	@DEBUG_VALUE: mbedtls_cipher_update:input <- [DW_OP_plus_uconst 28] [$sp+0]
	@DEBUG_VALUE: mbedtls_cipher_update:olen <- [DW_OP_plus_uconst 56] [$sp+0]
	.loc	1 0 0 is_stmt 0                 @ ../../../ThirdParty/mbedTLS/library/cipher.c:0:0
	mov	r7, r3
.Ltmp241:
.LBB12_41:
	@DEBUG_VALUE: mbedtls_cipher_update:ctx <- $r5
	@DEBUG_VALUE: mbedtls_cipher_update:ilen <- $r1
	@DEBUG_VALUE: mbedtls_cipher_update:output <- [DW_OP_plus_uconst 24] [$sp+0]
	@DEBUG_VALUE: mbedtls_cipher_update:input <- [DW_OP_plus_uconst 28] [$sp+0]
	@DEBUG_VALUE: mbedtls_cipher_update:olen <- [DW_OP_plus_uconst 56] [$sp+0]
	@DEBUG_VALUE: copy_len <- $r7
	.loc	1 648 58 is_stmt 1              @ ../../../ThirdParty/mbedTLS/library/cipher.c:648:58
	subs	r4, r1, r7
	.loc	1 648 47 is_stmt 0              @ ../../../ThirdParty/mbedTLS/library/cipher.c:648:47
	ldr	r0, [sp, #28]                   @ 4-byte Reload
	adds	r1, r0, r4
.Ltmp242:
	.loc	1 648 13                        @ ../../../ThirdParty/mbedTLS/library/cipher.c:648:13
	mov	r0, r5
	adds	r0, #20
	mov	r2, r7
	bl	__aeabi_memcpy
	.loc	1 651 34 is_stmt 1              @ ../../../ThirdParty/mbedTLS/library/cipher.c:651:34
	ldr	r0, [r5, #36]
	adds	r0, r0, r7
	str	r0, [r5, #36]
.Ltmp243:
	@DEBUG_VALUE: mbedtls_cipher_update:ilen <- $r4
.LBB12_42:
	@DEBUG_VALUE: mbedtls_cipher_update:ctx <- $r5
	@DEBUG_VALUE: mbedtls_cipher_update:output <- [DW_OP_plus_uconst 24] [$sp+0]
	@DEBUG_VALUE: mbedtls_cipher_update:input <- [DW_OP_plus_uconst 28] [$sp+0]
	@DEBUG_VALUE: mbedtls_cipher_update:olen <- [DW_OP_plus_uconst 56] [$sp+0]
	@DEBUG_VALUE: mbedtls_cipher_update:ilen <- $r4
	.loc	1 658 13                        @ ../../../ThirdParty/mbedTLS/library/cipher.c:658:13
	cbz	r4, .LBB12_45
.Ltmp244:
@ %bb.43:
	@DEBUG_VALUE: mbedtls_cipher_update:ctx <- $r5
	@DEBUG_VALUE: mbedtls_cipher_update:ilen <- $r4
	@DEBUG_VALUE: mbedtls_cipher_update:output <- [DW_OP_plus_uconst 24] [$sp+0]
	@DEBUG_VALUE: mbedtls_cipher_update:input <- [DW_OP_plus_uconst 28] [$sp+0]
	@DEBUG_VALUE: mbedtls_cipher_update:olen <- [DW_OP_plus_uconst 56] [$sp+0]
	.loc	1 0 13 is_stmt 0                @ ../../../ThirdParty/mbedTLS/library/cipher.c:0:13
	movs	r0, #8
.Ltmp245:
	.loc	1 661 35 is_stmt 1              @ ../../../ThirdParty/mbedTLS/library/cipher.c:661:35
	ldrsb	r1, [r5, r0]
	.loc	1 660 69                        @ ../../../ThirdParty/mbedTLS/library/cipher.c:660:69
	ldr	r0, [r5, #60]
	.loc	1 660 35 is_stmt 0              @ ../../../ThirdParty/mbedTLS/library/cipher.c:660:35
	ldr	r2, [r5]
	.loc	1 660 48                        @ ../../../ThirdParty/mbedTLS/library/cipher.c:660:48
	ldr	r2, [r2, #24]
	mov	r3, r4
	.loc	1 660 54                        @ ../../../ThirdParty/mbedTLS/library/cipher.c:660:54
	ldr	r4, [r2, #8]
.Ltmp246:
	.loc	1 660 30                        @ ../../../ThirdParty/mbedTLS/library/cipher.c:660:30
	ldr	r2, [sp, #28]                   @ 4-byte Reload
	str	r2, [sp]
	ldr	r2, [sp, #24]                   @ 4-byte Reload
	str	r2, [sp, #4]
	.loc	1 661 52 is_stmt 1              @ ../../../ThirdParty/mbedTLS/library/cipher.c:661:52
	adds	r5, #40
.Ltmp247:
	@DEBUG_VALUE: mbedtls_cipher_update:ctx <- [DW_OP_LLVM_entry_value 1] $r0
	.loc	1 0 52 is_stmt 0                @ ../../../ThirdParty/mbedTLS/library/cipher.c:0:52
	str	r3, [sp, #32]                   @ 4-byte Spill
	.loc	1 660 30 is_stmt 1              @ ../../../ThirdParty/mbedTLS/library/cipher.c:660:30
	mov	r2, r3
	mov	r3, r5
	blx	r4
	mov	r7, r0
.Ltmp248:
	@DEBUG_VALUE: mbedtls_cipher_update:ret <- $r7
	.loc	1 660 17 is_stmt 0              @ ../../../ThirdParty/mbedTLS/library/cipher.c:660:17
	cbnz	r0, .LBB12_46
.Ltmp249:
@ %bb.44:
	@DEBUG_VALUE: mbedtls_cipher_update:ret <- $r7
	@DEBUG_VALUE: mbedtls_cipher_update:output <- [DW_OP_plus_uconst 24] [$sp+0]
	@DEBUG_VALUE: mbedtls_cipher_update:input <- [DW_OP_plus_uconst 28] [$sp+0]
	@DEBUG_VALUE: mbedtls_cipher_update:olen <- [DW_OP_plus_uconst 56] [$sp+0]
	@DEBUG_VALUE: mbedtls_cipher_update:ctx <- [DW_OP_LLVM_entry_value 1] $r0
	.loc	1 0 17                          @ ../../../ThirdParty/mbedTLS/library/cipher.c:0:17
	ldr	r1, [sp, #20]                   @ 4-byte Reload
	.loc	1 666 19 is_stmt 1              @ ../../../ThirdParty/mbedTLS/library/cipher.c:666:19
	ldr	r0, [r1]
	ldr	r2, [sp, #32]                   @ 4-byte Reload
	adds	r0, r0, r2
	str	r0, [r1]
.Ltmp250:
	.loc	1 0 0 is_stmt 0                 @ ../../../ThirdParty/mbedTLS/library/cipher.c:0:0
	mov	r7, r6
.Ltmp251:
	.loc	1 667 9 is_stmt 1               @ ../../../ThirdParty/mbedTLS/library/cipher.c:667:9
	b	.LBB12_46
.Ltmp252:
.LBB12_45:
	@DEBUG_VALUE: mbedtls_cipher_update:ctx <- $r5
	@DEBUG_VALUE: mbedtls_cipher_update:ilen <- $r4
	@DEBUG_VALUE: mbedtls_cipher_update:output <- [DW_OP_plus_uconst 24] [$sp+0]
	@DEBUG_VALUE: mbedtls_cipher_update:input <- [DW_OP_plus_uconst 28] [$sp+0]
	@DEBUG_VALUE: mbedtls_cipher_update:olen <- [DW_OP_plus_uconst 56] [$sp+0]
	.loc	1 0 0 is_stmt 0                 @ ../../../ThirdParty/mbedTLS/library/cipher.c:0:0
	mov	r7, r6
.Ltmp253:
.LBB12_46:
	@DEBUG_VALUE: mbedtls_cipher_update:olen <- [DW_OP_plus_uconst 56] [$sp+0]
	.loc	1 757 1 is_stmt 1               @ ../../../ThirdParty/mbedTLS/library/cipher.c:757:1
	mov	r0, r7
	add	sp, #36
.Ltmp254:
	pop	{r4, r5, r6, r7, pc}
.Ltmp255:
	.p2align	2
@ %bb.47:
	.loc	1 0 1 is_stmt 0                 @ ../../../ThirdParty/mbedTLS/library/cipher.c:0:1
__arm_cp.12_0:
	.long	4294942464                      @ 0xffff9f00
.Lcpi_end21:
	.size	__arm_cp.12_0, .Lcpi_end21-__arm_cp.12_0
__arm_cp.12_1:
	.long	4294942080                      @ 0xffff9d80
.Lcpi_end22:
	.size	__arm_cp.12_1, .Lcpi_end22-__arm_cp.12_1
__arm_cp.12_2:
	.long	4294941824                      @ 0xffff9c80
.Lcpi_end23:
	.size	__arm_cp.12_2, .Lcpi_end23-__arm_cp.12_2
.Lfunc_end12:
	.size	mbedtls_cipher_update, .Lfunc_end12-mbedtls_cipher_update
	.cfi_endproc
	.cantunwind
	.fnend
                                        @ -- End function
	.section	.text.mbedtls_cipher_get_block_size,"ax",%progbits
	.p2align	1                               @ -- Begin function mbedtls_cipher_get_block_size
	.type	mbedtls_cipher_get_block_size,%function
	.code	16                              @ @mbedtls_cipher_get_block_size
	.thumb_func
mbedtls_cipher_get_block_size:
.Lfunc_begin13:
	.loc	2 473 0 is_stmt 1               @ ../../../ThirdParty/mbedTLS/include/mbedtls/cipher.h:473:0
	.fnstart
	.cfi_startproc
@ %bb.0:
	@DEBUG_VALUE: mbedtls_cipher_get_block_size:ctx <- $r0
	@DEBUG_VALUE: mbedtls_cipher_get_block_size:ctx <- $r0
	.loc	2 475 14 prologue_end           @ ../../../ThirdParty/mbedTLS/include/mbedtls/cipher.h:475:14
	ldr	r0, [r0]
.Ltmp256:
	@DEBUG_VALUE: mbedtls_cipher_get_block_size:ctx <- [DW_OP_LLVM_entry_value 1] $r0
	.loc	2 475 9 is_stmt 0               @ ../../../ThirdParty/mbedTLS/include/mbedtls/cipher.h:475:9
	cbz	r0, .LBB13_2
.Ltmp257:
@ %bb.1:
	@DEBUG_VALUE: mbedtls_cipher_get_block_size:ctx <- [DW_OP_LLVM_entry_value 1] $r0
	.loc	2 478 30 is_stmt 1              @ ../../../ThirdParty/mbedTLS/include/mbedtls/cipher.h:478:30
	ldr	r0, [r0, #20]
	.loc	2 479 1                         @ ../../../ThirdParty/mbedTLS/include/mbedtls/cipher.h:479:1
	bx	lr
.Ltmp258:
.LBB13_2:
	@DEBUG_VALUE: mbedtls_cipher_get_block_size:ctx <- [DW_OP_LLVM_entry_value 1] $r0
	.loc	2 0 1 is_stmt 0                 @ ../../../ThirdParty/mbedTLS/include/mbedtls/cipher.h:0:1
	movs	r0, #0
	.loc	2 479 1                         @ ../../../ThirdParty/mbedTLS/include/mbedtls/cipher.h:479:1
	bx	lr
.Ltmp259:
.Lfunc_end13:
	.size	mbedtls_cipher_get_block_size, .Lfunc_end13-mbedtls_cipher_get_block_size
	.cfi_endproc
	.cantunwind
	.fnend
                                        @ -- End function
	.section	.text.mbedtls_cipher_finish,"ax",%progbits
	.hidden	mbedtls_cipher_finish           @ -- Begin function mbedtls_cipher_finish
	.globl	mbedtls_cipher_finish
	.p2align	2
	.type	mbedtls_cipher_finish,%function
	.code	16                              @ @mbedtls_cipher_finish
	.thumb_func
mbedtls_cipher_finish:
.Lfunc_begin14:
	.loc	1 933 0 is_stmt 1               @ ../../../ThirdParty/mbedTLS/library/cipher.c:933:0
	.fnstart
	.cfi_startproc
@ %bb.0:
	@DEBUG_VALUE: mbedtls_cipher_finish:ctx <- $r0
	@DEBUG_VALUE: mbedtls_cipher_finish:output <- $r1
	@DEBUG_VALUE: mbedtls_cipher_finish:olen <- $r2
	.save	{r4, r5, r6, r7, lr}
	push	{r4, r5, r6, r7, lr}
	.cfi_def_cfa_offset 20
	.cfi_offset lr, -4
	.cfi_offset r7, -8
	.cfi_offset r6, -12
	.cfi_offset r5, -16
	.cfi_offset r4, -20
	.pad	#20
	sub	sp, #20
	.cfi_def_cfa_offset 40
	mov	r4, r2
	str	r1, [sp, #16]                   @ 4-byte Spill
	mov	r5, r0
.Ltmp260:
	@DEBUG_VALUE: mbedtls_cipher_finish:olen <- $r4
	@DEBUG_VALUE: mbedtls_cipher_finish:output <- [DW_OP_plus_uconst 16] [$sp+0]
	@DEBUG_VALUE: mbedtls_cipher_finish:ctx <- $r5
	.loc	1 937 14 prologue_end           @ ../../../ThirdParty/mbedTLS/library/cipher.c:937:14
	ldr	r2, [r0]
	ldr	r0, __arm_cp.14_0
.Ltmp261:
	.loc	1 937 9 is_stmt 0               @ ../../../ThirdParty/mbedTLS/library/cipher.c:937:9
	cbz	r2, .LBB14_11
.Ltmp262:
@ %bb.1:
	@DEBUG_VALUE: mbedtls_cipher_finish:ctx <- $r5
	@DEBUG_VALUE: mbedtls_cipher_finish:olen <- $r4
	@DEBUG_VALUE: mbedtls_cipher_finish:output <- [DW_OP_plus_uconst 16] [$sp+0]
	.loc	1 0 9                           @ ../../../ThirdParty/mbedTLS/library/cipher.c:0:9
	movs	r7, #0
	.loc	1 950 11 is_stmt 1              @ ../../../ThirdParty/mbedTLS/library/cipher.c:950:11
	str	r7, [r4]
.Ltmp263:
	.loc	1 952 47                        @ ../../../ThirdParty/mbedTLS/library/cipher.c:952:47
	ldrb	r1, [r2, #1]
	.loc	1 952 52 is_stmt 0              @ ../../../ThirdParty/mbedTLS/library/cipher.c:952:52
	subs	r3, r1, #3
	uxtb	r3, r3
	cmp	r3, #7
	bhs	.LBB14_3
.Ltmp264:
@ %bb.2:
	@DEBUG_VALUE: mbedtls_cipher_finish:ctx <- $r5
	@DEBUG_VALUE: mbedtls_cipher_finish:olen <- $r4
	@DEBUG_VALUE: mbedtls_cipher_finish:output <- [DW_OP_plus_uconst 16] [$sp+0]
	.loc	1 0 52                          @ ../../../ThirdParty/mbedTLS/library/cipher.c:0:52
	str	r5, [sp, #12]                   @ 4-byte Spill
.Ltmp265:
	@DEBUG_VALUE: mbedtls_cipher_finish:ctx <- [DW_OP_plus_uconst 12] [$sp+0]
	mov	r5, r7
	movs	r6, #95
	.loc	1 952 52                        @ ../../../ThirdParty/mbedTLS/library/cipher.c:952:52
	lsrs	r6, r3
	lsls	r3, r6, #31
	ldr	r5, [sp, #12]                   @ 4-byte Reload
.Ltmp266:
	@DEBUG_VALUE: mbedtls_cipher_finish:ctx <- $r5
	bne	.LBB14_10
.Ltmp267:
.LBB14_3:
	@DEBUG_VALUE: mbedtls_cipher_finish:ctx <- $r5
	@DEBUG_VALUE: mbedtls_cipher_finish:olen <- $r4
	@DEBUG_VALUE: mbedtls_cipher_finish:output <- [DW_OP_plus_uconst 16] [$sp+0]
	.loc	1 962 66 is_stmt 1              @ ../../../ThirdParty/mbedTLS/library/cipher.c:962:66
	ldrb	r2, [r2]
	movs	r3, #254
	.loc	1 962 73 is_stmt 0              @ ../../../ThirdParty/mbedTLS/library/cipher.c:962:73
	ands	r3, r2
	cmp	r3, #72
	bne	.LBB14_5
.Ltmp268:
.LBB14_4:
	@DEBUG_VALUE: mbedtls_cipher_finish:ctx <- $r5
	@DEBUG_VALUE: mbedtls_cipher_finish:olen <- $r4
	@DEBUG_VALUE: mbedtls_cipher_finish:output <- [DW_OP_plus_uconst 16] [$sp+0]
	.loc	1 0 73                          @ ../../../ThirdParty/mbedTLS/library/cipher.c:0:73
	mov	r0, r7
.Ltmp269:
	.loc	1 952 52 is_stmt 1              @ ../../../ThirdParty/mbedTLS/library/cipher.c:952:52
	add	sp, #20
.Ltmp270:
	pop	{r4, r5, r6, r7, pc}
.Ltmp271:
.LBB14_5:
	@DEBUG_VALUE: mbedtls_cipher_finish:ctx <- $r5
	@DEBUG_VALUE: mbedtls_cipher_finish:olen <- $r4
	@DEBUG_VALUE: mbedtls_cipher_finish:output <- [DW_OP_plus_uconst 16] [$sp+0]
	.loc	1 968 9                         @ ../../../ThirdParty/mbedTLS/library/cipher.c:968:9
	cmp	r1, #2
	beq	.LBB14_12
.Ltmp272:
@ %bb.6:
	@DEBUG_VALUE: mbedtls_cipher_finish:ctx <- $r5
	@DEBUG_VALUE: mbedtls_cipher_finish:olen <- $r4
	@DEBUG_VALUE: mbedtls_cipher_finish:output <- [DW_OP_plus_uconst 16] [$sp+0]
	cmp	r1, #1
	bne	.LBB14_15
.Ltmp273:
@ %bb.7:
	@DEBUG_VALUE: mbedtls_cipher_finish:ctx <- $r5
	@DEBUG_VALUE: mbedtls_cipher_finish:olen <- $r4
	@DEBUG_VALUE: mbedtls_cipher_finish:output <- [DW_OP_plus_uconst 16] [$sp+0]
	.loc	1 970 18                        @ ../../../ThirdParty/mbedTLS/library/cipher.c:970:18
	ldr	r0, [r5, #36]
.Ltmp274:
	.loc	1 970 13 is_stmt 0              @ ../../../ThirdParty/mbedTLS/library/cipher.c:970:13
	cbz	r0, .LBB14_9
.Ltmp275:
@ %bb.8:
	@DEBUG_VALUE: mbedtls_cipher_finish:ctx <- $r5
	@DEBUG_VALUE: mbedtls_cipher_finish:olen <- $r4
	@DEBUG_VALUE: mbedtls_cipher_finish:output <- [DW_OP_plus_uconst 16] [$sp+0]
	.loc	1 0 13                          @ ../../../ThirdParty/mbedTLS/library/cipher.c:0:13
	ldr	r0, __arm_cp.14_1
.Ltmp276:
.LBB14_9:
	@DEBUG_VALUE: mbedtls_cipher_finish:ctx <- $r5
	@DEBUG_VALUE: mbedtls_cipher_finish:olen <- $r4
	@DEBUG_VALUE: mbedtls_cipher_finish:output <- [DW_OP_plus_uconst 16] [$sp+0]
	.loc	1 970 13                        @ ../../../ThirdParty/mbedTLS/library/cipher.c:970:13
	add	sp, #20
.Ltmp277:
	pop	{r4, r5, r6, r7, pc}
.Ltmp278:
.LBB14_10:
	@DEBUG_VALUE: mbedtls_cipher_finish:ctx <- $r5
	@DEBUG_VALUE: mbedtls_cipher_finish:olen <- $r4
	@DEBUG_VALUE: mbedtls_cipher_finish:output <- [DW_OP_plus_uconst 16] [$sp+0]
	.loc	1 0 13                          @ ../../../ThirdParty/mbedTLS/library/cipher.c:0:13
	mov	r0, r7
.Ltmp279:
.LBB14_11:
	@DEBUG_VALUE: mbedtls_cipher_finish:ctx <- $r5
	@DEBUG_VALUE: mbedtls_cipher_finish:olen <- $r4
	@DEBUG_VALUE: mbedtls_cipher_finish:output <- [DW_OP_plus_uconst 16] [$sp+0]
	.loc	1 952 52 is_stmt 1              @ ../../../ThirdParty/mbedTLS/library/cipher.c:952:52
	add	sp, #20
.Ltmp280:
	pop	{r4, r5, r6, r7, pc}
.Ltmp281:
.LBB14_12:
	@DEBUG_VALUE: mbedtls_cipher_finish:ctx <- $r5
	@DEBUG_VALUE: mbedtls_cipher_finish:olen <- $r4
	@DEBUG_VALUE: mbedtls_cipher_finish:output <- [DW_OP_plus_uconst 16] [$sp+0]
	@DEBUG_VALUE: ret <- 0
	.loc	1 981 37                        @ ../../../ThirdParty/mbedTLS/library/cipher.c:981:37
	ldrb	r0, [r5, #8]
.Ltmp282:
	.loc	1 981 13 is_stmt 0              @ ../../../ThirdParty/mbedTLS/library/cipher.c:981:13
	cmp	r0, #1
	bne	.LBB14_16
.Ltmp283:
@ %bb.13:
	@DEBUG_VALUE: mbedtls_cipher_finish:ctx <- $r5
	@DEBUG_VALUE: mbedtls_cipher_finish:olen <- $r4
	@DEBUG_VALUE: mbedtls_cipher_finish:output <- [DW_OP_plus_uconst 16] [$sp+0]
	@DEBUG_VALUE: ret <- 0
	.loc	1 984 30 is_stmt 1              @ ../../../ThirdParty/mbedTLS/library/cipher.c:984:30
	ldr	r0, [r5, #12]
.Ltmp284:
	.loc	1 984 17 is_stmt 0              @ ../../../ThirdParty/mbedTLS/library/cipher.c:984:17
	cbz	r0, .LBB14_21
.Ltmp285:
@ %bb.14:
	@DEBUG_VALUE: mbedtls_cipher_finish:ctx <- $r5
	@DEBUG_VALUE: mbedtls_cipher_finish:olen <- $r4
	@DEBUG_VALUE: mbedtls_cipher_finish:output <- [DW_OP_plus_uconst 16] [$sp+0]
	@DEBUG_VALUE: ret <- 0
	.loc	1 0 17                          @ ../../../ThirdParty/mbedTLS/library/cipher.c:0:17
	mov	r6, r0
	.loc	1 992 54 is_stmt 1              @ ../../../ThirdParty/mbedTLS/library/cipher.c:992:54
	mov	r0, r5
	bl	mbedtls_cipher_get_iv_size
	mov	r1, r0
	.loc	1 993 36                        @ ../../../ThirdParty/mbedTLS/library/cipher.c:993:36
	ldr	r2, [r5, #36]
	.loc	1 992 31                        @ ../../../ThirdParty/mbedTLS/library/cipher.c:992:31
	mov	r0, r5
	adds	r0, #20
	.loc	1 992 13 is_stmt 0              @ ../../../ThirdParty/mbedTLS/library/cipher.c:992:13
	blx	r6
	b	.LBB14_17
.Ltmp286:
.LBB14_15:
	@DEBUG_VALUE: mbedtls_cipher_finish:ctx <- $r5
	@DEBUG_VALUE: mbedtls_cipher_finish:olen <- $r4
	@DEBUG_VALUE: mbedtls_cipher_finish:output <- [DW_OP_plus_uconst 16] [$sp+0]
	.loc	1 0 13                          @ ../../../ThirdParty/mbedTLS/library/cipher.c:0:13
	adds	r0, #128
.Ltmp287:
	.loc	1 952 52 is_stmt 1              @ ../../../ThirdParty/mbedTLS/library/cipher.c:952:52
	add	sp, #20
.Ltmp288:
	pop	{r4, r5, r6, r7, pc}
.Ltmp289:
.LBB14_16:
	@DEBUG_VALUE: mbedtls_cipher_finish:ctx <- $r5
	@DEBUG_VALUE: mbedtls_cipher_finish:olen <- $r4
	@DEBUG_VALUE: mbedtls_cipher_finish:output <- [DW_OP_plus_uconst 16] [$sp+0]
	@DEBUG_VALUE: ret <- 0
	.loc	1 995 18                        @ ../../../ThirdParty/mbedTLS/library/cipher.c:995:18
	mov	r0, r5
	bl	mbedtls_cipher_get_block_size
	mov	r1, r0
	.loc	1 995 63 is_stmt 0              @ ../../../ThirdParty/mbedTLS/library/cipher.c:995:63
	ldr	r0, [r5, #36]
.Ltmp290:
	.loc	1 995 18                        @ ../../../ThirdParty/mbedTLS/library/cipher.c:995:18
	cmp	r1, r0
	bne	.LBB14_20
.Ltmp291:
.LBB14_17:
	@DEBUG_VALUE: mbedtls_cipher_finish:ctx <- $r5
	@DEBUG_VALUE: mbedtls_cipher_finish:olen <- $r4
	@DEBUG_VALUE: mbedtls_cipher_finish:output <- [DW_OP_plus_uconst 16] [$sp+0]
	@DEBUG_VALUE: ret <- 0
	.loc	1 0 18                          @ ../../../ThirdParty/mbedTLS/library/cipher.c:0:18
	movs	r0, #8
.Ltmp292:
	.loc	1 1009 31 is_stmt 1             @ ../../../ThirdParty/mbedTLS/library/cipher.c:1009:31
	ldrsb	r0, [r5, r0]
	.loc	1 1008 65                       @ ../../../ThirdParty/mbedTLS/library/cipher.c:1008:65
	str	r0, [sp, #12]                   @ 4-byte Spill
	ldr	r6, [r5, #60]
	.loc	1 1008 31 is_stmt 0             @ ../../../ThirdParty/mbedTLS/library/cipher.c:1008:31
	ldr	r0, [r5]
	.loc	1 1008 44                       @ ../../../ThirdParty/mbedTLS/library/cipher.c:1008:44
	ldr	r0, [r0, #24]
	.loc	1 1008 50                       @ ../../../ThirdParty/mbedTLS/library/cipher.c:1008:50
	ldr	r0, [r0, #8]
	.loc	1 1009 42 is_stmt 1             @ ../../../ThirdParty/mbedTLS/library/cipher.c:1009:42
	str	r0, [sp, #8]                    @ 4-byte Spill
	mov	r0, r5
	bl	mbedtls_cipher_get_block_size
	mov	r2, r0
	.loc	1 1010 26                       @ ../../../ThirdParty/mbedTLS/library/cipher.c:1010:26
	mov	r0, r5
	adds	r0, #20
	.loc	1 1008 26                       @ ../../../ThirdParty/mbedTLS/library/cipher.c:1008:26
	str	r0, [sp]
	ldr	r0, [sp, #16]                   @ 4-byte Reload
	str	r0, [sp, #4]
	.loc	1 1009 80                       @ ../../../ThirdParty/mbedTLS/library/cipher.c:1009:80
	mov	r3, r5
	adds	r3, #40
	.loc	1 1008 26                       @ ../../../ThirdParty/mbedTLS/library/cipher.c:1008:26
	mov	r0, r6
	ldr	r1, [sp, #12]                   @ 4-byte Reload
	ldr	r6, [sp, #8]                    @ 4-byte Reload
	blx	r6
.Ltmp293:
	@DEBUG_VALUE: ret <- $r0
	.loc	1 1008 13 is_stmt 0             @ ../../../ThirdParty/mbedTLS/library/cipher.c:1008:13
	cmp	r0, #0
	bne	.LBB14_11
.Ltmp294:
@ %bb.18:
	@DEBUG_VALUE: mbedtls_cipher_finish:ctx <- $r5
	@DEBUG_VALUE: mbedtls_cipher_finish:olen <- $r4
	@DEBUG_VALUE: ret <- $r0
	@DEBUG_VALUE: mbedtls_cipher_finish:output <- [DW_OP_plus_uconst 16] [$sp+0]
	.loc	1 1016 37 is_stmt 1             @ ../../../ThirdParty/mbedTLS/library/cipher.c:1016:37
	ldrb	r0, [r5, #8]
.Ltmp295:
	.loc	1 1016 13 is_stmt 0             @ ../../../ThirdParty/mbedTLS/library/cipher.c:1016:13
	cbz	r0, .LBB14_23
.Ltmp296:
@ %bb.19:
	@DEBUG_VALUE: mbedtls_cipher_finish:ctx <- $r5
	@DEBUG_VALUE: mbedtls_cipher_finish:olen <- $r4
	@DEBUG_VALUE: mbedtls_cipher_finish:output <- [DW_OP_plus_uconst 16] [$sp+0]
	.loc	1 1021 17 is_stmt 1             @ ../../../ThirdParty/mbedTLS/library/cipher.c:1021:17
	mov	r0, r5
	bl	mbedtls_cipher_get_block_size
	.loc	1 1021 15 is_stmt 0             @ ../../../ThirdParty/mbedTLS/library/cipher.c:1021:15
	str	r0, [r4]
	b	.LBB14_4
.Ltmp297:
.LBB14_20:
	@DEBUG_VALUE: mbedtls_cipher_finish:ctx <- $r5
	@DEBUG_VALUE: mbedtls_cipher_finish:olen <- $r4
	@DEBUG_VALUE: mbedtls_cipher_finish:output <- [DW_OP_plus_uconst 16] [$sp+0]
	@DEBUG_VALUE: ret <- 0
	.loc	1 1001 30 is_stmt 1             @ ../../../ThirdParty/mbedTLS/library/cipher.c:1001:30
	ldr	r1, [r5, #12]
	orrs	r0, r1
	.loc	1 1001 42 is_stmt 0             @ ../../../ThirdParty/mbedTLS/library/cipher.c:1001:42
	beq	.LBB14_11
	b	.LBB14_22
.Ltmp298:
.LBB14_21:
	@DEBUG_VALUE: mbedtls_cipher_finish:ctx <- $r5
	@DEBUG_VALUE: mbedtls_cipher_finish:olen <- $r4
	@DEBUG_VALUE: mbedtls_cipher_finish:output <- [DW_OP_plus_uconst 16] [$sp+0]
	@DEBUG_VALUE: ret <- 0
	.loc	1 986 31 is_stmt 1              @ ../../../ThirdParty/mbedTLS/library/cipher.c:986:31
	ldr	r0, [r5, #36]
.Ltmp299:
	.loc	1 986 21 is_stmt 0              @ ../../../ThirdParty/mbedTLS/library/cipher.c:986:21
	cmp	r0, #0
	beq	.LBB14_11
.Ltmp300:
.LBB14_22:
	@DEBUG_VALUE: mbedtls_cipher_finish:ctx <- $r5
	@DEBUG_VALUE: mbedtls_cipher_finish:olen <- $r4
	@DEBUG_VALUE: mbedtls_cipher_finish:output <- [DW_OP_plus_uconst 16] [$sp+0]
	.loc	1 0 21                          @ ../../../ThirdParty/mbedTLS/library/cipher.c:0:21
	ldr	r0, __arm_cp.14_1
.Ltmp301:
	.loc	1 952 52 is_stmt 1              @ ../../../ThirdParty/mbedTLS/library/cipher.c:952:52
	add	sp, #20
.Ltmp302:
	pop	{r4, r5, r6, r7, pc}
.Ltmp303:
.LBB14_23:
	@DEBUG_VALUE: mbedtls_cipher_finish:ctx <- $r5
	@DEBUG_VALUE: mbedtls_cipher_finish:olen <- $r4
	@DEBUG_VALUE: mbedtls_cipher_finish:output <- [DW_OP_plus_uconst 16] [$sp+0]
	.loc	1 1017 26                       @ ../../../ThirdParty/mbedTLS/library/cipher.c:1017:26
	ldr	r7, [r5, #16]
	.loc	1 1017 47 is_stmt 0             @ ../../../ThirdParty/mbedTLS/library/cipher.c:1017:47
	mov	r0, r5
	bl	mbedtls_cipher_get_block_size
	mov	r1, r0
	.loc	1 1017 21                       @ ../../../ThirdParty/mbedTLS/library/cipher.c:1017:21
	ldr	r0, [sp, #16]                   @ 4-byte Reload
	mov	r2, r4
	blx	r7
.Ltmp304:
	.loc	1 952 52 is_stmt 1              @ ../../../ThirdParty/mbedTLS/library/cipher.c:952:52
	add	sp, #20
.Ltmp305:
	pop	{r4, r5, r6, r7, pc}
.Ltmp306:
	.p2align	2
@ %bb.24:
	.loc	1 0 52 is_stmt 0                @ ../../../ThirdParty/mbedTLS/library/cipher.c:0:52
__arm_cp.14_0:
	.long	4294942464                      @ 0xffff9f00
.Lcpi_end24:
	.size	__arm_cp.14_0, .Lcpi_end24-__arm_cp.14_0
__arm_cp.14_1:
	.long	4294942080                      @ 0xffff9d80
.Lcpi_end25:
	.size	__arm_cp.14_1, .Lcpi_end25-__arm_cp.14_1
.Lfunc_end14:
	.size	mbedtls_cipher_finish, .Lfunc_end14-mbedtls_cipher_finish
	.cfi_endproc
	.cantunwind
	.fnend
                                        @ -- End function
	.section	.text.mbedtls_cipher_get_iv_size,"ax",%progbits
	.p2align	1                               @ -- Begin function mbedtls_cipher_get_iv_size
	.type	mbedtls_cipher_get_iv_size,%function
	.code	16                              @ @mbedtls_cipher_get_iv_size
	.thumb_func
mbedtls_cipher_get_iv_size:
.Lfunc_begin15:
	.loc	2 512 0 is_stmt 1               @ ../../../ThirdParty/mbedTLS/include/mbedtls/cipher.h:512:0
	.fnstart
	.cfi_startproc
@ %bb.0:
	@DEBUG_VALUE: mbedtls_cipher_get_iv_size:ctx <- $r0
	@DEBUG_VALUE: mbedtls_cipher_get_iv_size:ctx <- $r0
	.loc	2 514 14 prologue_end           @ ../../../ThirdParty/mbedTLS/include/mbedtls/cipher.h:514:14
	ldr	r1, [r0]
.Ltmp307:
	.loc	2 514 9 is_stmt 0               @ ../../../ThirdParty/mbedTLS/include/mbedtls/cipher.h:514:9
	cbz	r1, .LBB15_3
.Ltmp308:
@ %bb.1:
	@DEBUG_VALUE: mbedtls_cipher_get_iv_size:ctx <- $r0
	.loc	2 517 14 is_stmt 1              @ ../../../ThirdParty/mbedTLS/include/mbedtls/cipher.h:517:14
	ldr	r0, [r0, #56]
.Ltmp309:
	@DEBUG_VALUE: mbedtls_cipher_get_iv_size:ctx <- [DW_OP_LLVM_entry_value 1] $r0
	.loc	2 517 9 is_stmt 0               @ ../../../ThirdParty/mbedTLS/include/mbedtls/cipher.h:517:9
	cbz	r0, .LBB15_4
.Ltmp310:
@ %bb.2:
	@DEBUG_VALUE: mbedtls_cipher_get_iv_size:ctx <- [DW_OP_LLVM_entry_value 1] $r0
	.loc	2 521 1 is_stmt 1               @ ../../../ThirdParty/mbedTLS/include/mbedtls/cipher.h:521:1
	bx	lr
.Ltmp311:
.LBB15_3:
	@DEBUG_VALUE: mbedtls_cipher_get_iv_size:ctx <- $r0
	.loc	2 0 1 is_stmt 0                 @ ../../../ThirdParty/mbedTLS/include/mbedtls/cipher.h:0:1
	movs	r0, #0
.Ltmp312:
	@DEBUG_VALUE: mbedtls_cipher_get_iv_size:ctx <- [DW_OP_LLVM_entry_value 1] $r0
	.loc	2 521 1                         @ ../../../ThirdParty/mbedTLS/include/mbedtls/cipher.h:521:1
	bx	lr
.Ltmp313:
.LBB15_4:
	@DEBUG_VALUE: mbedtls_cipher_get_iv_size:ctx <- [DW_OP_LLVM_entry_value 1] $r0
	.loc	2 520 36 is_stmt 1              @ ../../../ThirdParty/mbedTLS/include/mbedtls/cipher.h:520:36
	ldr	r0, [r1, #12]
	.loc	2 521 1                         @ ../../../ThirdParty/mbedTLS/include/mbedtls/cipher.h:521:1
	bx	lr
.Ltmp314:
.Lfunc_end15:
	.size	mbedtls_cipher_get_iv_size, .Lfunc_end15-mbedtls_cipher_get_iv_size
	.cfi_endproc
	.cantunwind
	.fnend
                                        @ -- End function
	.section	.text.add_pkcs_padding,"ax",%progbits
	.p2align	1                               @ -- Begin function add_pkcs_padding
	.type	add_pkcs_padding,%function
	.code	16                              @ @add_pkcs_padding
	.thumb_func
add_pkcs_padding:
.Lfunc_begin16:
	.loc	1 766 0                         @ ../../../ThirdParty/mbedTLS/library/cipher.c:766:0
	.fnstart
	.cfi_startproc
@ %bb.0:
	@DEBUG_VALUE: add_pkcs_padding:output <- $r0
	@DEBUG_VALUE: add_pkcs_padding:output <- $r0
	@DEBUG_VALUE: add_pkcs_padding:output_len <- $r1
	@DEBUG_VALUE: add_pkcs_padding:output_len <- $r1
	@DEBUG_VALUE: add_pkcs_padding:data_len <- $r2
	@DEBUG_VALUE: add_pkcs_padding:data_len <- $r2
	.save	{r4, lr}
	push	{r4, lr}
	.cfi_def_cfa_offset 8
	.cfi_offset lr, -4
	.cfi_offset r4, -8
.Ltmp315:
	.loc	1 767 37 prologue_end           @ ../../../ThirdParty/mbedTLS/library/cipher.c:767:37
	subs	r1, r1, r2
.Ltmp316:
	@DEBUG_VALUE: add_pkcs_padding:output_len <- [DW_OP_LLVM_entry_value 1] $r1
	@DEBUG_VALUE: add_pkcs_padding:i <- 0
	@DEBUG_VALUE: add_pkcs_padding:padding_len <- $r1
	.loc	1 770 5                         @ ../../../ThirdParty/mbedTLS/library/cipher.c:770:5
	beq	.LBB16_3
.Ltmp317:
@ %bb.1:
	@DEBUG_VALUE: add_pkcs_padding:data_len <- $r2
	@DEBUG_VALUE: add_pkcs_padding:padding_len <- $r1
	@DEBUG_VALUE: add_pkcs_padding:output <- $r0
	@DEBUG_VALUE: add_pkcs_padding:i <- 0
	@DEBUG_VALUE: add_pkcs_padding:output_len <- [DW_OP_LLVM_entry_value 1] $r1
	.loc	1 0 5 is_stmt 0                 @ ../../../ThirdParty/mbedTLS/library/cipher.c:0:5
	movs	r3, #0
	mov	r4, r3
.Ltmp318:
.LBB16_2:                               @ =>This Inner Loop Header: Depth=1
	@DEBUG_VALUE: add_pkcs_padding:data_len <- $r2
	@DEBUG_VALUE: add_pkcs_padding:padding_len <- $r1
	@DEBUG_VALUE: add_pkcs_padding:output <- $r0
	@DEBUG_VALUE: add_pkcs_padding:output_len <- [DW_OP_LLVM_entry_value 1] $r1
	@DEBUG_VALUE: add_pkcs_padding:i <- $r4
	.loc	1 771 25 is_stmt 1              @ ../../../ThirdParty/mbedTLS/library/cipher.c:771:25
	adds	r3, r3, r2
	.loc	1 771 30 is_stmt 0              @ ../../../ThirdParty/mbedTLS/library/cipher.c:771:30
	strb	r1, [r0, r3]
	.loc	1 770 35 is_stmt 1              @ ../../../ThirdParty/mbedTLS/library/cipher.c:770:35
	adds	r4, r4, #1
.Ltmp319:
	@DEBUG_VALUE: add_pkcs_padding:i <- $r4
	.loc	1 770 17 is_stmt 0              @ ../../../ThirdParty/mbedTLS/library/cipher.c:770:17
	uxtb	r3, r4
.Ltmp320:
	.loc	1 770 5                         @ ../../../ThirdParty/mbedTLS/library/cipher.c:770:5
	cmp	r1, r3
	bhi	.LBB16_2
.Ltmp321:
.LBB16_3:
	@DEBUG_VALUE: add_pkcs_padding:data_len <- $r2
	@DEBUG_VALUE: add_pkcs_padding:padding_len <- $r1
	@DEBUG_VALUE: add_pkcs_padding:output <- $r0
	@DEBUG_VALUE: add_pkcs_padding:output_len <- [DW_OP_LLVM_entry_value 1] $r1
	.loc	1 772 1 is_stmt 1               @ ../../../ThirdParty/mbedTLS/library/cipher.c:772:1
	pop	{r4, pc}
.Ltmp322:
.Lfunc_end16:
	.size	add_pkcs_padding, .Lfunc_end16-add_pkcs_padding
	.cfi_endproc
	.cantunwind
	.fnend
                                        @ -- End function
	.section	.text.get_pkcs_padding,"ax",%progbits
	.p2align	2                               @ -- Begin function get_pkcs_padding
	.type	get_pkcs_padding,%function
	.code	16                              @ @get_pkcs_padding
	.thumb_func
get_pkcs_padding:
.Lfunc_begin17:
	.loc	1 776 0                         @ ../../../ThirdParty/mbedTLS/library/cipher.c:776:0
	.fnstart
	.cfi_startproc
@ %bb.0:
	@DEBUG_VALUE: get_pkcs_padding:input <- $r0
	@DEBUG_VALUE: get_pkcs_padding:input_len <- $r1
	@DEBUG_VALUE: get_pkcs_padding:data_len <- $r2
	.save	{r4, r5, r6, r7, lr}
	push	{r4, r5, r6, r7, lr}
	.cfi_def_cfa_offset 20
	.cfi_offset lr, -4
	.cfi_offset r7, -8
	.cfi_offset r6, -12
	.cfi_offset r5, -16
	.cfi_offset r4, -20
	ldr	r3, __arm_cp.17_0
.Ltmp323:
	@DEBUG_VALUE: get_pkcs_padding:bad <- 0
	@DEBUG_VALUE: get_pkcs_padding:data_len <- $r2
	@DEBUG_VALUE: get_pkcs_padding:input_len <- $r1
	@DEBUG_VALUE: get_pkcs_padding:input <- $r0
	.loc	1 780 23 prologue_end           @ ../../../ThirdParty/mbedTLS/library/cipher.c:780:23
	cbz	r0, .LBB17_12
.Ltmp324:
@ %bb.1:
	@DEBUG_VALUE: get_pkcs_padding:data_len <- $r2
	@DEBUG_VALUE: get_pkcs_padding:input_len <- $r1
	@DEBUG_VALUE: get_pkcs_padding:input <- $r0
	@DEBUG_VALUE: get_pkcs_padding:bad <- 0
	cbz	r2, .LBB17_12
.Ltmp325:
@ %bb.2:
	@DEBUG_VALUE: get_pkcs_padding:data_len <- $r2
	@DEBUG_VALUE: get_pkcs_padding:input_len <- $r1
	@DEBUG_VALUE: get_pkcs_padding:input <- $r0
	@DEBUG_VALUE: get_pkcs_padding:bad <- 0
	.loc	1 783 35                        @ ../../../ThirdParty/mbedTLS/library/cipher.c:783:35
	adds	r3, r1, r0
	.loc	1 783 19 is_stmt 0              @ ../../../ThirdParty/mbedTLS/library/cipher.c:783:19
	subs	r3, r3, #1
	ldrb	r3, [r3]
.Ltmp326:
	@DEBUG_VALUE: get_pkcs_padding:padding_len <- undef
	.loc	1 784 27 is_stmt 1              @ ../../../ThirdParty/mbedTLS/library/cipher.c:784:27
	subs	r4, r1, r3
	.loc	1 784 15 is_stmt 0              @ ../../../ThirdParty/mbedTLS/library/cipher.c:784:15
	str	r4, [r2]
	.loc	1 783 19 is_stmt 1              @ ../../../ThirdParty/mbedTLS/library/cipher.c:783:19
	rsbs	r2, r3, #0
.Ltmp327:
	@DEBUG_VALUE: get_pkcs_padding:data_len <- [DW_OP_LLVM_entry_value 1] $r2
	adcs	r2, r3
	.loc	1 787 24                        @ ../../../ThirdParty/mbedTLS/library/cipher.c:787:24
	cmp	r1, r3
	blo	.LBB17_4
.Ltmp328:
@ %bb.3:
	@DEBUG_VALUE: get_pkcs_padding:input_len <- $r1
	@DEBUG_VALUE: get_pkcs_padding:input <- $r0
	@DEBUG_VALUE: get_pkcs_padding:data_len <- [DW_OP_LLVM_entry_value 1] $r2
	@DEBUG_VALUE: get_pkcs_padding:bad <- 0
	.loc	1 0 24 is_stmt 0                @ ../../../ThirdParty/mbedTLS/library/cipher.c:0:24
	movs	r5, #0
	b	.LBB17_5
.Ltmp329:
.LBB17_4:
	@DEBUG_VALUE: get_pkcs_padding:input_len <- $r1
	@DEBUG_VALUE: get_pkcs_padding:input <- $r0
	@DEBUG_VALUE: get_pkcs_padding:data_len <- [DW_OP_LLVM_entry_value 1] $r2
	@DEBUG_VALUE: get_pkcs_padding:bad <- 0
	movs	r5, #1
.Ltmp330:
.LBB17_5:
	@DEBUG_VALUE: get_pkcs_padding:input_len <- $r1
	@DEBUG_VALUE: get_pkcs_padding:input <- $r0
	@DEBUG_VALUE: get_pkcs_padding:data_len <- [DW_OP_LLVM_entry_value 1] $r2
	@DEBUG_VALUE: get_pkcs_padding:bad <- 0
	@DEBUG_VALUE: get_pkcs_padding:bad <- [DW_OP_LLVM_convert 1 7, DW_OP_LLVM_convert 8 7, DW_OP_stack_value] $r5
	.loc	1 788 9 is_stmt 1               @ ../../../ThirdParty/mbedTLS/library/cipher.c:788:9
	orrs	r2, r5
.Ltmp331:
	@DEBUG_VALUE: get_pkcs_padding:i <- 0
	@DEBUG_VALUE: get_pkcs_padding:pad_idx <- $r4
	@DEBUG_VALUE: get_pkcs_padding:bad <- undef
	.loc	1 793 5                         @ ../../../ThirdParty/mbedTLS/library/cipher.c:793:5
	cbz	r1, .LBB17_10
.Ltmp332:
@ %bb.6:
	@DEBUG_VALUE: get_pkcs_padding:pad_idx <- $r4
	@DEBUG_VALUE: get_pkcs_padding:input_len <- $r1
	@DEBUG_VALUE: get_pkcs_padding:input <- $r0
	@DEBUG_VALUE: get_pkcs_padding:i <- 0
	@DEBUG_VALUE: get_pkcs_padding:data_len <- [DW_OP_LLVM_entry_value 1] $r2
	.loc	1 0 5 is_stmt 0                 @ ../../../ThirdParty/mbedTLS/library/cipher.c:0:5
	movs	r5, #0
	mov	r6, r5
	b	.LBB17_8
.Ltmp333:
.LBB17_7:                               @   in Loop: Header=BB17_8 Depth=1
	@DEBUG_VALUE: get_pkcs_padding:i <- $r6
	@DEBUG_VALUE: get_pkcs_padding:pad_idx <- $r4
	@DEBUG_VALUE: get_pkcs_padding:bad <- $r2
	@DEBUG_VALUE: get_pkcs_padding:input_len <- $r1
	@DEBUG_VALUE: get_pkcs_padding:input <- $r0
	@DEBUG_VALUE: get_pkcs_padding:data_len <- [DW_OP_LLVM_entry_value 1] $r2
	.loc	1 794 13 is_stmt 1              @ ../../../ThirdParty/mbedTLS/library/cipher.c:794:13
	orrs	r2, r7
.Ltmp334:
	@DEBUG_VALUE: get_pkcs_padding:bad <- $r2
	.loc	1 793 33                        @ ../../../ThirdParty/mbedTLS/library/cipher.c:793:33
	adds	r6, r6, #1
.Ltmp335:
	@DEBUG_VALUE: get_pkcs_padding:i <- $r6
	.loc	1 793 5 is_stmt 0               @ ../../../ThirdParty/mbedTLS/library/cipher.c:793:5
	cmp	r1, r6
	beq	.LBB17_10
.Ltmp336:
.LBB17_8:                               @ =>This Inner Loop Header: Depth=1
	@DEBUG_VALUE: get_pkcs_padding:pad_idx <- $r4
	@DEBUG_VALUE: get_pkcs_padding:input_len <- $r1
	@DEBUG_VALUE: get_pkcs_padding:input <- $r0
	@DEBUG_VALUE: get_pkcs_padding:data_len <- [DW_OP_LLVM_entry_value 1] $r2
	@DEBUG_VALUE: get_pkcs_padding:bad <- $r2
	@DEBUG_VALUE: get_pkcs_padding:i <- $r6
	.loc	1 794 43 is_stmt 1              @ ../../../ThirdParty/mbedTLS/library/cipher.c:794:43
	cmp	r6, r4
	mov	r7, r5
	blo	.LBB17_7
.Ltmp337:
@ %bb.9:                                @   in Loop: Header=BB17_8 Depth=1
	@DEBUG_VALUE: get_pkcs_padding:i <- $r6
	@DEBUG_VALUE: get_pkcs_padding:pad_idx <- $r4
	@DEBUG_VALUE: get_pkcs_padding:bad <- $r2
	@DEBUG_VALUE: get_pkcs_padding:input_len <- $r1
	@DEBUG_VALUE: get_pkcs_padding:input <- $r0
	@DEBUG_VALUE: get_pkcs_padding:data_len <- [DW_OP_LLVM_entry_value 1] $r2
	.loc	1 0 43 is_stmt 0                @ ../../../ThirdParty/mbedTLS/library/cipher.c:0:43
	ldrb	r7, [r0, r6]
	eors	r7, r3
	b	.LBB17_7
.Ltmp338:
.LBB17_10:
	@DEBUG_VALUE: get_pkcs_padding:pad_idx <- $r4
	@DEBUG_VALUE: get_pkcs_padding:input_len <- $r1
	@DEBUG_VALUE: get_pkcs_padding:input <- $r0
	@DEBUG_VALUE: get_pkcs_padding:data_len <- [DW_OP_LLVM_entry_value 1] $r2
	@DEBUG_VALUE: get_pkcs_padding:bad <- $r2
	.loc	1 796 56 is_stmt 1              @ ../../../ThirdParty/mbedTLS/library/cipher.c:796:56
	uxtb	r3, r2
	.loc	1 796 48 is_stmt 0              @ ../../../ThirdParty/mbedTLS/library/cipher.c:796:48
	cbz	r3, .LBB17_12
.Ltmp339:
@ %bb.11:
	@DEBUG_VALUE: get_pkcs_padding:pad_idx <- $r4
	@DEBUG_VALUE: get_pkcs_padding:bad <- $r2
	@DEBUG_VALUE: get_pkcs_padding:input_len <- $r1
	@DEBUG_VALUE: get_pkcs_padding:input <- $r0
	@DEBUG_VALUE: get_pkcs_padding:data_len <- [DW_OP_LLVM_entry_value 1] $r2
	.loc	1 0 48                          @ ../../../ThirdParty/mbedTLS/library/cipher.c:0:48
	ldr	r3, __arm_cp.17_1
.Ltmp340:
.LBB17_12:
	@DEBUG_VALUE: get_pkcs_padding:input_len <- $r1
	@DEBUG_VALUE: get_pkcs_padding:input <- $r0
	.loc	1 797 1 is_stmt 1               @ ../../../ThirdParty/mbedTLS/library/cipher.c:797:1
	mov	r0, r3
.Ltmp341:
	@DEBUG_VALUE: get_pkcs_padding:input <- [DW_OP_LLVM_entry_value 1] $r0
	pop	{r4, r5, r6, r7, pc}
.Ltmp342:
	.p2align	2
@ %bb.13:
	.loc	1 0 1 is_stmt 0                 @ ../../../ThirdParty/mbedTLS/library/cipher.c:0:1
__arm_cp.17_0:
	.long	4294942464                      @ 0xffff9f00
.Lcpi_end26:
	.size	__arm_cp.17_0, .Lcpi_end26-__arm_cp.17_0
__arm_cp.17_1:
	.long	4294942208                      @ 0xffff9e00
.Lcpi_end27:
	.size	__arm_cp.17_1, .Lcpi_end27-__arm_cp.17_1
.Lfunc_end17:
	.size	get_pkcs_padding, .Lfunc_end17-get_pkcs_padding
	.cfi_endproc
	.cantunwind
	.fnend
                                        @ -- End function
	.section	.text.add_one_and_zeros_padding,"ax",%progbits
	.p2align	1                               @ -- Begin function add_one_and_zeros_padding
	.type	add_one_and_zeros_padding,%function
	.code	16                              @ @add_one_and_zeros_padding
	.thumb_func
add_one_and_zeros_padding:
.Lfunc_begin18:
	.loc	1 806 0 is_stmt 1               @ ../../../ThirdParty/mbedTLS/library/cipher.c:806:0
	.fnstart
	.cfi_startproc
@ %bb.0:
	@DEBUG_VALUE: add_one_and_zeros_padding:output <- $r0
	@DEBUG_VALUE: add_one_and_zeros_padding:output_len <- $r1
	@DEBUG_VALUE: add_one_and_zeros_padding:data_len <- $r2
	.save	{r4, r5, r7, lr}
	push	{r4, r5, r7, lr}
	.cfi_def_cfa_offset 16
	.cfi_offset lr, -4
	.cfi_offset r7, -8
	.cfi_offset r5, -12
	.cfi_offset r4, -16
	movs	r3, #128
.Ltmp343:
	@DEBUG_VALUE: add_one_and_zeros_padding:i <- 0
	@DEBUG_VALUE: add_one_and_zeros_padding:data_len <- $r2
	@DEBUG_VALUE: add_one_and_zeros_padding:output_len <- $r1
	@DEBUG_VALUE: add_one_and_zeros_padding:output <- $r0
	.loc	1 810 22 prologue_end           @ ../../../ThirdParty/mbedTLS/library/cipher.c:810:22
	strb	r3, [r0, r2]
	.loc	1 807 37                        @ ../../../ThirdParty/mbedTLS/library/cipher.c:807:37
	subs	r1, r1, r2
.Ltmp344:
	@DEBUG_VALUE: add_one_and_zeros_padding:output_len <- [DW_OP_LLVM_entry_value 1] $r1
	@DEBUG_VALUE: add_one_and_zeros_padding:padding_len <- $r1
	@DEBUG_VALUE: add_one_and_zeros_padding:i <- 1
	.loc	1 811 5                         @ ../../../ThirdParty/mbedTLS/library/cipher.c:811:5
	cmp	r1, #2
	blo	.LBB18_3
.Ltmp345:
@ %bb.1:
	@DEBUG_VALUE: add_one_and_zeros_padding:data_len <- $r2
	@DEBUG_VALUE: add_one_and_zeros_padding:padding_len <- $r1
	@DEBUG_VALUE: add_one_and_zeros_padding:output <- $r0
	@DEBUG_VALUE: add_one_and_zeros_padding:i <- 1
	@DEBUG_VALUE: add_one_and_zeros_padding:output_len <- [DW_OP_LLVM_entry_value 1] $r1
	.loc	1 0 5 is_stmt 0                 @ ../../../ThirdParty/mbedTLS/library/cipher.c:0:5
	movs	r4, #1
	movs	r3, #0
	mov	r5, r4
.Ltmp346:
.LBB18_2:                               @ =>This Inner Loop Header: Depth=1
	@DEBUG_VALUE: add_one_and_zeros_padding:data_len <- $r2
	@DEBUG_VALUE: add_one_and_zeros_padding:padding_len <- $r1
	@DEBUG_VALUE: add_one_and_zeros_padding:output <- $r0
	@DEBUG_VALUE: add_one_and_zeros_padding:output_len <- [DW_OP_LLVM_entry_value 1] $r1
	@DEBUG_VALUE: add_one_and_zeros_padding:i <- $r5
	.loc	1 812 25 is_stmt 1              @ ../../../ThirdParty/mbedTLS/library/cipher.c:812:25
	adds	r4, r4, r2
	.loc	1 812 30 is_stmt 0              @ ../../../ThirdParty/mbedTLS/library/cipher.c:812:30
	strb	r3, [r0, r4]
	.loc	1 811 35 is_stmt 1              @ ../../../ThirdParty/mbedTLS/library/cipher.c:811:35
	adds	r5, r5, #1
.Ltmp347:
	@DEBUG_VALUE: add_one_and_zeros_padding:i <- $r5
	.loc	1 811 17 is_stmt 0              @ ../../../ThirdParty/mbedTLS/library/cipher.c:811:17
	uxtb	r4, r5
.Ltmp348:
	.loc	1 811 5                         @ ../../../ThirdParty/mbedTLS/library/cipher.c:811:5
	cmp	r1, r4
	bhi	.LBB18_2
.Ltmp349:
.LBB18_3:
	@DEBUG_VALUE: add_one_and_zeros_padding:data_len <- $r2
	@DEBUG_VALUE: add_one_and_zeros_padding:padding_len <- $r1
	@DEBUG_VALUE: add_one_and_zeros_padding:output <- $r0
	@DEBUG_VALUE: add_one_and_zeros_padding:output_len <- [DW_OP_LLVM_entry_value 1] $r1
	.loc	1 813 1 is_stmt 1               @ ../../../ThirdParty/mbedTLS/library/cipher.c:813:1
	pop	{r4, r5, r7, pc}
.Ltmp350:
.Lfunc_end18:
	.size	add_one_and_zeros_padding, .Lfunc_end18-add_one_and_zeros_padding
	.cfi_endproc
	.cantunwind
	.fnend
                                        @ -- End function
	.section	.text.get_one_and_zeros_padding,"ax",%progbits
	.p2align	2                               @ -- Begin function get_one_and_zeros_padding
	.type	get_one_and_zeros_padding,%function
	.code	16                              @ @get_one_and_zeros_padding
	.thumb_func
get_one_and_zeros_padding:
.Lfunc_begin19:
	.loc	1 817 0                         @ ../../../ThirdParty/mbedTLS/library/cipher.c:817:0
	.fnstart
	.cfi_startproc
@ %bb.0:
	@DEBUG_VALUE: get_one_and_zeros_padding:input <- $r0
	@DEBUG_VALUE: get_one_and_zeros_padding:input_len <- $r1
	@DEBUG_VALUE: get_one_and_zeros_padding:data_len <- $r2
	.save	{r4, r5, r6, r7, lr}
	push	{r4, r5, r6, r7, lr}
	.cfi_def_cfa_offset 20
	.cfi_offset lr, -4
	.cfi_offset r7, -8
	.cfi_offset r6, -12
	.cfi_offset r5, -16
	.cfi_offset r4, -20
	.pad	#8
	sub	sp, #8
	.cfi_def_cfa_offset 28
	ldr	r3, __arm_cp.19_0
	str	r0, [sp, #4]                    @ 4-byte Spill
.Ltmp351:
	@DEBUG_VALUE: get_one_and_zeros_padding:done <- 0
	@DEBUG_VALUE: get_one_and_zeros_padding:data_len <- $r2
	@DEBUG_VALUE: get_one_and_zeros_padding:input_len <- $r1
	@DEBUG_VALUE: get_one_and_zeros_padding:input <- [DW_OP_plus_uconst 4] [$sp+0]
	.loc	1 821 23 prologue_end           @ ../../../ThirdParty/mbedTLS/library/cipher.c:821:23
	cbz	r0, .LBB19_11
.Ltmp352:
@ %bb.1:
	@DEBUG_VALUE: get_one_and_zeros_padding:data_len <- $r2
	@DEBUG_VALUE: get_one_and_zeros_padding:input_len <- $r1
	@DEBUG_VALUE: get_one_and_zeros_padding:input <- [DW_OP_plus_uconst 4] [$sp+0]
	@DEBUG_VALUE: get_one_and_zeros_padding:done <- 0
	cbz	r2, .LBB19_11
.Ltmp353:
@ %bb.2:
	@DEBUG_VALUE: get_one_and_zeros_padding:data_len <- $r2
	@DEBUG_VALUE: get_one_and_zeros_padding:input_len <- $r1
	@DEBUG_VALUE: get_one_and_zeros_padding:input <- [DW_OP_plus_uconst 4] [$sp+0]
	@DEBUG_VALUE: get_one_and_zeros_padding:done <- 0
	@DEBUG_VALUE: get_one_and_zeros_padding:bad <- -128
	.loc	1 0 23 is_stmt 0                @ ../../../ThirdParty/mbedTLS/library/cipher.c:0:23
	movs	r0, #0
	.loc	1 825 15 is_stmt 1              @ ../../../ThirdParty/mbedTLS/library/cipher.c:825:15
	str	r0, [r2]
	ldr	r3, __arm_cp.19_1
.Ltmp354:
	@DEBUG_VALUE: get_one_and_zeros_padding:i <- $r1
	@DEBUG_VALUE: get_one_and_zeros_padding:bad <- undef
	@DEBUG_VALUE: get_one_and_zeros_padding:done <- undef
	.loc	1 826 5                         @ ../../../ThirdParty/mbedTLS/library/cipher.c:826:5
	cbz	r1, .LBB19_11
.Ltmp355:
@ %bb.3:
	@DEBUG_VALUE: get_one_and_zeros_padding:data_len <- $r2
	@DEBUG_VALUE: get_one_and_zeros_padding:i <- $r1
	@DEBUG_VALUE: get_one_and_zeros_padding:input_len <- $r1
	@DEBUG_VALUE: get_one_and_zeros_padding:input <- [DW_OP_plus_uconst 4] [$sp+0]
	.loc	1 0 5 is_stmt 0                 @ ../../../ThirdParty/mbedTLS/library/cipher.c:0:5
	str	r2, [sp]                        @ 4-byte Spill
.Ltmp356:
	@DEBUG_VALUE: get_one_and_zeros_padding:data_len <- [$sp+0]
	.loc	1 826 5                         @ ../../../ThirdParty/mbedTLS/library/cipher.c:826:5
	subs	r5, r1, #1
	movs	r1, #128
.Ltmp357:
	@DEBUG_VALUE: get_one_and_zeros_padding:input_len <- [DW_OP_LLVM_entry_value 1] $r1
	.loc	1 0 5                           @ ../../../ThirdParty/mbedTLS/library/cipher.c:0:5
	mov	r7, r0
	b	.LBB19_5
.Ltmp358:
.LBB19_4:                               @   in Loop: Header=BB19_5 Depth=1
	@DEBUG_VALUE: get_one_and_zeros_padding:done <- $r6
	@DEBUG_VALUE: get_one_and_zeros_padding:input <- [DW_OP_plus_uconst 4] [$sp+0]
	@DEBUG_VALUE: get_one_and_zeros_padding:input_len <- [DW_OP_LLVM_entry_value 1] $r1
	@DEBUG_VALUE: get_one_and_zeros_padding:bad <- [DW_OP_LLVM_convert 32 7, DW_OP_LLVM_convert 8 7, DW_OP_stack_value] undef
	@DEBUG_VALUE: get_one_and_zeros_padding:i <- [DW_OP_constu 1, DW_OP_minus, DW_OP_stack_value] undef
	.loc	1 826 5                         @ ../../../ThirdParty/mbedTLS/library/cipher.c:826:5
	eors	r1, r4
.Ltmp359:
	@DEBUG_VALUE: get_one_and_zeros_padding:bad <- undef
	@DEBUG_VALUE: get_one_and_zeros_padding:done <- undef
	.loc	1 826 27                        @ ../../../ThirdParty/mbedTLS/library/cipher.c:826:27
	subs	r5, r5, #1
	adds	r3, r5, #1
	mov	r7, r6
.Ltmp360:
	.loc	1 826 5                         @ ../../../ThirdParty/mbedTLS/library/cipher.c:826:5
	bhs	.LBB19_9
.Ltmp361:
.LBB19_5:                               @ =>This Inner Loop Header: Depth=1
	@DEBUG_VALUE: get_one_and_zeros_padding:input <- [DW_OP_plus_uconst 4] [$sp+0]
	@DEBUG_VALUE: get_one_and_zeros_padding:input_len <- [DW_OP_LLVM_entry_value 1] $r1
	@DEBUG_VALUE: get_one_and_zeros_padding:i <- undef
	@DEBUG_VALUE: get_one_and_zeros_padding:prev_done <- undef
	.loc	1 829 19 is_stmt 1              @ ../../../ThirdParty/mbedTLS/library/cipher.c:829:19
	ldr	r2, [sp, #4]                    @ 4-byte Reload
	ldrb	r6, [r2, r5]
	.loc	1 829 32 is_stmt 0              @ ../../../ThirdParty/mbedTLS/library/cipher.c:829:32
	subs	r4, r6, #1
	sbcs	r6, r4
	.loc	1 829 14                        @ ../../../ThirdParty/mbedTLS/library/cipher.c:829:14
	orrs	r6, r7
.Ltmp362:
	@DEBUG_VALUE: get_one_and_zeros_padding:done <- $r6
	.loc	1 830 32 is_stmt 1              @ ../../../ThirdParty/mbedTLS/library/cipher.c:830:32
	cmp	r6, r7
	mov	r4, r0
	beq	.LBB19_7
.Ltmp363:
@ %bb.6:                                @   in Loop: Header=BB19_5 Depth=1
	@DEBUG_VALUE: get_one_and_zeros_padding:done <- $r6
	@DEBUG_VALUE: get_one_and_zeros_padding:input <- [DW_OP_plus_uconst 4] [$sp+0]
	@DEBUG_VALUE: get_one_and_zeros_padding:input_len <- [DW_OP_LLVM_entry_value 1] $r1
	mov	r4, r5
.Ltmp364:
.LBB19_7:                               @   in Loop: Header=BB19_5 Depth=1
	@DEBUG_VALUE: get_one_and_zeros_padding:done <- $r6
	@DEBUG_VALUE: get_one_and_zeros_padding:input <- [DW_OP_plus_uconst 4] [$sp+0]
	@DEBUG_VALUE: get_one_and_zeros_padding:input_len <- [DW_OP_LLVM_entry_value 1] $r1
	.loc	1 0 32 is_stmt 0                @ ../../../ThirdParty/mbedTLS/library/cipher.c:0:32
	ldr	r2, [sp]                        @ 4-byte Reload
.Ltmp365:
	@DEBUG_VALUE: get_one_and_zeros_padding:data_len <- $r2
	.loc	1 830 19                        @ ../../../ThirdParty/mbedTLS/library/cipher.c:830:19
	ldr	r3, [r2]
	orrs	r3, r4
	str	r3, [r2]
	.loc	1 831 29 is_stmt 1              @ ../../../ThirdParty/mbedTLS/library/cipher.c:831:29
	cmp	r6, r7
	mov	r4, r0
	beq	.LBB19_4
.Ltmp366:
@ %bb.8:                                @   in Loop: Header=BB19_5 Depth=1
	@DEBUG_VALUE: get_one_and_zeros_padding:done <- $r6
	@DEBUG_VALUE: get_one_and_zeros_padding:input <- [DW_OP_plus_uconst 4] [$sp+0]
	@DEBUG_VALUE: get_one_and_zeros_padding:input_len <- [DW_OP_LLVM_entry_value 1] $r1
	.loc	1 0 29 is_stmt 0                @ ../../../ThirdParty/mbedTLS/library/cipher.c:0:29
	ldr	r2, [sp, #4]                    @ 4-byte Reload
.Ltmp367:
	@DEBUG_VALUE: get_one_and_zeros_padding:data_len <- [DW_OP_LLVM_entry_value 1] $r2
	ldrb	r4, [r2, r5]
	b	.LBB19_4
.Ltmp368:
.LBB19_9:
	@DEBUG_VALUE: get_one_and_zeros_padding:input <- [DW_OP_plus_uconst 4] [$sp+0]
	@DEBUG_VALUE: get_one_and_zeros_padding:input_len <- [DW_OP_LLVM_entry_value 1] $r1
	ldr	r3, __arm_cp.19_1
	.loc	1 834 56 is_stmt 1              @ ../../../ThirdParty/mbedTLS/library/cipher.c:834:56
	cbnz	r1, .LBB19_11
.Ltmp369:
@ %bb.10:
	@DEBUG_VALUE: get_one_and_zeros_padding:input <- [DW_OP_plus_uconst 4] [$sp+0]
	@DEBUG_VALUE: get_one_and_zeros_padding:input_len <- [DW_OP_LLVM_entry_value 1] $r1
	mov	r3, r1
.Ltmp370:
.LBB19_11:
	@DEBUG_VALUE: get_one_and_zeros_padding:input <- [DW_OP_plus_uconst 4] [$sp+0]
	.loc	1 836 1                         @ ../../../ThirdParty/mbedTLS/library/cipher.c:836:1
	mov	r0, r3
	add	sp, #8
.Ltmp371:
	pop	{r4, r5, r6, r7, pc}
.Ltmp372:
	.p2align	2
@ %bb.12:
	.loc	1 0 1 is_stmt 0                 @ ../../../ThirdParty/mbedTLS/library/cipher.c:0:1
__arm_cp.19_0:
	.long	4294942464                      @ 0xffff9f00
.Lcpi_end28:
	.size	__arm_cp.19_0, .Lcpi_end28-__arm_cp.19_0
__arm_cp.19_1:
	.long	4294942208                      @ 0xffff9e00
.Lcpi_end29:
	.size	__arm_cp.19_1, .Lcpi_end29-__arm_cp.19_1
.Lfunc_end19:
	.size	get_one_and_zeros_padding, .Lfunc_end19-get_one_and_zeros_padding
	.cfi_endproc
	.cantunwind
	.fnend
                                        @ -- End function
	.section	.text.add_zeros_and_len_padding,"ax",%progbits
	.p2align	1                               @ -- Begin function add_zeros_and_len_padding
	.type	add_zeros_and_len_padding,%function
	.code	16                              @ @add_zeros_and_len_padding
	.thumb_func
add_zeros_and_len_padding:
.Lfunc_begin20:
	.loc	1 845 0 is_stmt 1               @ ../../../ThirdParty/mbedTLS/library/cipher.c:845:0
	.fnstart
	.cfi_startproc
@ %bb.0:
	@DEBUG_VALUE: add_zeros_and_len_padding:output <- $r0
	@DEBUG_VALUE: add_zeros_and_len_padding:output <- $r0
	@DEBUG_VALUE: add_zeros_and_len_padding:output_len <- $r1
	@DEBUG_VALUE: add_zeros_and_len_padding:output_len <- $r1
	@DEBUG_VALUE: add_zeros_and_len_padding:data_len <- $r2
	@DEBUG_VALUE: add_zeros_and_len_padding:data_len <- $r2
	.save	{r4, r5, r6, lr}
	push	{r4, r5, r6, lr}
	.cfi_def_cfa_offset 16
	.cfi_offset lr, -4
	.cfi_offset r6, -8
	.cfi_offset r5, -12
	.cfi_offset r4, -16
.Ltmp373:
	.loc	1 846 37 prologue_end           @ ../../../ThirdParty/mbedTLS/library/cipher.c:846:37
	subs	r3, r1, r2
.Ltmp374:
	@DEBUG_VALUE: add_zeros_and_len_padding:i <- 1
	@DEBUG_VALUE: add_zeros_and_len_padding:padding_len <- $r3
	.loc	1 849 5                         @ ../../../ThirdParty/mbedTLS/library/cipher.c:849:5
	cmp	r3, #2
	blo	.LBB20_3
.Ltmp375:
@ %bb.1:
	@DEBUG_VALUE: add_zeros_and_len_padding:padding_len <- $r3
	@DEBUG_VALUE: add_zeros_and_len_padding:data_len <- $r2
	@DEBUG_VALUE: add_zeros_and_len_padding:output_len <- $r1
	@DEBUG_VALUE: add_zeros_and_len_padding:output <- $r0
	@DEBUG_VALUE: add_zeros_and_len_padding:i <- 1
	.loc	1 0 0 is_stmt 0                 @ ../../../ThirdParty/mbedTLS/library/cipher.c:0:0
	subs	r2, r2, #1
.Ltmp376:
	@DEBUG_VALUE: add_zeros_and_len_padding:data_len <- [DW_OP_LLVM_entry_value 1] $r2
	movs	r5, #1
	movs	r4, #0
	mov	r6, r5
.Ltmp377:
.LBB20_2:                               @ =>This Inner Loop Header: Depth=1
	@DEBUG_VALUE: add_zeros_and_len_padding:padding_len <- $r3
	@DEBUG_VALUE: add_zeros_and_len_padding:output_len <- $r1
	@DEBUG_VALUE: add_zeros_and_len_padding:output <- $r0
	@DEBUG_VALUE: add_zeros_and_len_padding:data_len <- [DW_OP_LLVM_entry_value 1] $r2
	@DEBUG_VALUE: add_zeros_and_len_padding:i <- $r6
	.loc	1 850 29 is_stmt 1              @ ../../../ThirdParty/mbedTLS/library/cipher.c:850:29
	adds	r5, r2, r5
	.loc	1 850 34 is_stmt 0              @ ../../../ThirdParty/mbedTLS/library/cipher.c:850:34
	strb	r4, [r0, r5]
	.loc	1 849 35 is_stmt 1              @ ../../../ThirdParty/mbedTLS/library/cipher.c:849:35
	adds	r6, r6, #1
.Ltmp378:
	@DEBUG_VALUE: add_zeros_and_len_padding:i <- $r6
	.loc	1 849 17 is_stmt 0              @ ../../../ThirdParty/mbedTLS/library/cipher.c:849:17
	uxtb	r5, r6
.Ltmp379:
	.loc	1 849 5                         @ ../../../ThirdParty/mbedTLS/library/cipher.c:849:5
	cmp	r3, r5
	bhi	.LBB20_2
.Ltmp380:
.LBB20_3:
	@DEBUG_VALUE: add_zeros_and_len_padding:padding_len <- $r3
	@DEBUG_VALUE: add_zeros_and_len_padding:output_len <- $r1
	@DEBUG_VALUE: add_zeros_and_len_padding:output <- $r0
	.loc	1 851 23 is_stmt 1              @ ../../../ThirdParty/mbedTLS/library/cipher.c:851:23
	adds	r0, r1, r0
.Ltmp381:
	@DEBUG_VALUE: add_zeros_and_len_padding:output <- [DW_OP_LLVM_entry_value 1] $r0
	.loc	1 851 5 is_stmt 0               @ ../../../ThirdParty/mbedTLS/library/cipher.c:851:5
	subs	r0, r0, #1
	.loc	1 851 28                        @ ../../../ThirdParty/mbedTLS/library/cipher.c:851:28
	strb	r3, [r0]
	.loc	1 852 1 is_stmt 1               @ ../../../ThirdParty/mbedTLS/library/cipher.c:852:1
	pop	{r4, r5, r6, pc}
.Ltmp382:
.Lfunc_end20:
	.size	add_zeros_and_len_padding, .Lfunc_end20-add_zeros_and_len_padding
	.cfi_endproc
	.cantunwind
	.fnend
                                        @ -- End function
	.section	.text.get_zeros_and_len_padding,"ax",%progbits
	.p2align	2                               @ -- Begin function get_zeros_and_len_padding
	.type	get_zeros_and_len_padding,%function
	.code	16                              @ @get_zeros_and_len_padding
	.thumb_func
get_zeros_and_len_padding:
.Lfunc_begin21:
	.loc	1 856 0                         @ ../../../ThirdParty/mbedTLS/library/cipher.c:856:0
	.fnstart
	.cfi_startproc
@ %bb.0:
	@DEBUG_VALUE: get_zeros_and_len_padding:input <- $r0
	@DEBUG_VALUE: get_zeros_and_len_padding:input_len <- $r1
	@DEBUG_VALUE: get_zeros_and_len_padding:data_len <- $r2
	.save	{r4, r5, r6, lr}
	push	{r4, r5, r6, lr}
	.cfi_def_cfa_offset 16
	.cfi_offset lr, -4
	.cfi_offset r6, -8
	.cfi_offset r5, -12
	.cfi_offset r4, -16
	ldr	r3, __arm_cp.21_0
.Ltmp383:
	@DEBUG_VALUE: get_zeros_and_len_padding:bad <- 0
	@DEBUG_VALUE: get_zeros_and_len_padding:data_len <- $r2
	@DEBUG_VALUE: get_zeros_and_len_padding:input_len <- $r1
	@DEBUG_VALUE: get_zeros_and_len_padding:input <- $r0
	.loc	1 860 23 prologue_end           @ ../../../ThirdParty/mbedTLS/library/cipher.c:860:23
	cbz	r0, .LBB21_12
.Ltmp384:
@ %bb.1:
	@DEBUG_VALUE: get_zeros_and_len_padding:data_len <- $r2
	@DEBUG_VALUE: get_zeros_and_len_padding:input_len <- $r1
	@DEBUG_VALUE: get_zeros_and_len_padding:input <- $r0
	@DEBUG_VALUE: get_zeros_and_len_padding:bad <- 0
	cbz	r2, .LBB21_12
.Ltmp385:
@ %bb.2:
	@DEBUG_VALUE: get_zeros_and_len_padding:data_len <- $r2
	@DEBUG_VALUE: get_zeros_and_len_padding:input_len <- $r1
	@DEBUG_VALUE: get_zeros_and_len_padding:input <- $r0
	@DEBUG_VALUE: get_zeros_and_len_padding:bad <- 0
	.loc	1 863 35                        @ ../../../ThirdParty/mbedTLS/library/cipher.c:863:35
	subs	r3, r1, #1
	.loc	1 863 19 is_stmt 0              @ ../../../ThirdParty/mbedTLS/library/cipher.c:863:19
	ldrb	r5, [r0, r3]
.Ltmp386:
	@DEBUG_VALUE: get_zeros_and_len_padding:padding_len <- undef
	.loc	1 864 27 is_stmt 1              @ ../../../ThirdParty/mbedTLS/library/cipher.c:864:27
	subs	r4, r1, r5
	.loc	1 864 15 is_stmt 0              @ ../../../ThirdParty/mbedTLS/library/cipher.c:864:15
	str	r4, [r2]
	.loc	1 863 19 is_stmt 1              @ ../../../ThirdParty/mbedTLS/library/cipher.c:863:19
	rsbs	r2, r5, #0
.Ltmp387:
	@DEBUG_VALUE: get_zeros_and_len_padding:data_len <- [DW_OP_LLVM_entry_value 1] $r2
	adcs	r2, r5
	.loc	1 867 24                        @ ../../../ThirdParty/mbedTLS/library/cipher.c:867:24
	cmp	r1, r5
	blo	.LBB21_4
.Ltmp388:
@ %bb.3:
	@DEBUG_VALUE: get_zeros_and_len_padding:input_len <- $r1
	@DEBUG_VALUE: get_zeros_and_len_padding:input <- $r0
	@DEBUG_VALUE: get_zeros_and_len_padding:data_len <- [DW_OP_LLVM_entry_value 1] $r2
	@DEBUG_VALUE: get_zeros_and_len_padding:bad <- 0
	.loc	1 0 24 is_stmt 0                @ ../../../ThirdParty/mbedTLS/library/cipher.c:0:24
	movs	r1, #0
.Ltmp389:
	@DEBUG_VALUE: get_zeros_and_len_padding:input_len <- [DW_OP_LLVM_entry_value 1] $r1
	b	.LBB21_5
.Ltmp390:
.LBB21_4:
	@DEBUG_VALUE: get_zeros_and_len_padding:input_len <- $r1
	@DEBUG_VALUE: get_zeros_and_len_padding:input <- $r0
	@DEBUG_VALUE: get_zeros_and_len_padding:data_len <- [DW_OP_LLVM_entry_value 1] $r2
	@DEBUG_VALUE: get_zeros_and_len_padding:bad <- 0
	movs	r1, #1
.Ltmp391:
	@DEBUG_VALUE: get_zeros_and_len_padding:input_len <- [DW_OP_LLVM_entry_value 1] $r1
.LBB21_5:
	@DEBUG_VALUE: get_zeros_and_len_padding:input <- $r0
	@DEBUG_VALUE: get_zeros_and_len_padding:input_len <- [DW_OP_LLVM_entry_value 1] $r1
	@DEBUG_VALUE: get_zeros_and_len_padding:data_len <- [DW_OP_LLVM_entry_value 1] $r2
	@DEBUG_VALUE: get_zeros_and_len_padding:bad <- 0
	@DEBUG_VALUE: get_zeros_and_len_padding:bad <- [DW_OP_LLVM_convert 1 7, DW_OP_LLVM_convert 8 7, DW_OP_stack_value] $r1
	.loc	1 868 9 is_stmt 1               @ ../../../ThirdParty/mbedTLS/library/cipher.c:868:9
	orrs	r2, r1
.Ltmp392:
	@DEBUG_VALUE: get_zeros_and_len_padding:i <- 0
	@DEBUG_VALUE: get_zeros_and_len_padding:pad_idx <- $r4
	@DEBUG_VALUE: get_zeros_and_len_padding:bad <- undef
	.loc	1 872 5                         @ ../../../ThirdParty/mbedTLS/library/cipher.c:872:5
	cbz	r3, .LBB21_10
.Ltmp393:
@ %bb.6:
	@DEBUG_VALUE: get_zeros_and_len_padding:pad_idx <- $r4
	@DEBUG_VALUE: get_zeros_and_len_padding:input <- $r0
	@DEBUG_VALUE: get_zeros_and_len_padding:i <- 0
	@DEBUG_VALUE: get_zeros_and_len_padding:input_len <- [DW_OP_LLVM_entry_value 1] $r1
	@DEBUG_VALUE: get_zeros_and_len_padding:data_len <- [DW_OP_LLVM_entry_value 1] $r2
	.loc	1 0 5 is_stmt 0                 @ ../../../ThirdParty/mbedTLS/library/cipher.c:0:5
	movs	r1, #0
	mov	r5, r1
	b	.LBB21_8
.Ltmp394:
.LBB21_7:                               @   in Loop: Header=BB21_8 Depth=1
	@DEBUG_VALUE: get_zeros_and_len_padding:i <- $r5
	@DEBUG_VALUE: get_zeros_and_len_padding:pad_idx <- $r4
	@DEBUG_VALUE: get_zeros_and_len_padding:bad <- $r2
	@DEBUG_VALUE: get_zeros_and_len_padding:input <- $r0
	@DEBUG_VALUE: get_zeros_and_len_padding:input_len <- [DW_OP_LLVM_entry_value 1] $r1
	@DEBUG_VALUE: get_zeros_and_len_padding:data_len <- [DW_OP_LLVM_entry_value 1] $r2
	.loc	1 873 13 is_stmt 1              @ ../../../ThirdParty/mbedTLS/library/cipher.c:873:13
	orrs	r2, r6
.Ltmp395:
	@DEBUG_VALUE: get_zeros_and_len_padding:bad <- $r2
	.loc	1 872 37                        @ ../../../ThirdParty/mbedTLS/library/cipher.c:872:37
	adds	r5, r5, #1
.Ltmp396:
	@DEBUG_VALUE: get_zeros_and_len_padding:i <- $r5
	.loc	1 872 5 is_stmt 0               @ ../../../ThirdParty/mbedTLS/library/cipher.c:872:5
	cmp	r3, r5
	beq	.LBB21_10
.Ltmp397:
.LBB21_8:                               @ =>This Inner Loop Header: Depth=1
	@DEBUG_VALUE: get_zeros_and_len_padding:pad_idx <- $r4
	@DEBUG_VALUE: get_zeros_and_len_padding:input <- $r0
	@DEBUG_VALUE: get_zeros_and_len_padding:input_len <- [DW_OP_LLVM_entry_value 1] $r1
	@DEBUG_VALUE: get_zeros_and_len_padding:data_len <- [DW_OP_LLVM_entry_value 1] $r2
	@DEBUG_VALUE: get_zeros_and_len_padding:bad <- $r2
	@DEBUG_VALUE: get_zeros_and_len_padding:i <- $r5
	.loc	1 873 25 is_stmt 1              @ ../../../ThirdParty/mbedTLS/library/cipher.c:873:25
	cmp	r5, r4
	mov	r6, r1
	blo	.LBB21_7
.Ltmp398:
@ %bb.9:                                @   in Loop: Header=BB21_8 Depth=1
	@DEBUG_VALUE: get_zeros_and_len_padding:i <- $r5
	@DEBUG_VALUE: get_zeros_and_len_padding:pad_idx <- $r4
	@DEBUG_VALUE: get_zeros_and_len_padding:bad <- $r2
	@DEBUG_VALUE: get_zeros_and_len_padding:input <- $r0
	@DEBUG_VALUE: get_zeros_and_len_padding:input_len <- [DW_OP_LLVM_entry_value 1] $r1
	@DEBUG_VALUE: get_zeros_and_len_padding:data_len <- [DW_OP_LLVM_entry_value 1] $r2
	.loc	1 0 25 is_stmt 0                @ ../../../ThirdParty/mbedTLS/library/cipher.c:0:25
	ldrb	r6, [r0, r5]
	b	.LBB21_7
.Ltmp399:
.LBB21_10:
	@DEBUG_VALUE: get_zeros_and_len_padding:pad_idx <- $r4
	@DEBUG_VALUE: get_zeros_and_len_padding:input <- $r0
	@DEBUG_VALUE: get_zeros_and_len_padding:input_len <- [DW_OP_LLVM_entry_value 1] $r1
	@DEBUG_VALUE: get_zeros_and_len_padding:data_len <- [DW_OP_LLVM_entry_value 1] $r2
	@DEBUG_VALUE: get_zeros_and_len_padding:bad <- $r2
	.loc	1 875 56 is_stmt 1              @ ../../../ThirdParty/mbedTLS/library/cipher.c:875:56
	uxtb	r3, r2
	.loc	1 875 48 is_stmt 0              @ ../../../ThirdParty/mbedTLS/library/cipher.c:875:48
	cbz	r3, .LBB21_12
.Ltmp400:
@ %bb.11:
	@DEBUG_VALUE: get_zeros_and_len_padding:pad_idx <- $r4
	@DEBUG_VALUE: get_zeros_and_len_padding:bad <- $r2
	@DEBUG_VALUE: get_zeros_and_len_padding:input <- $r0
	@DEBUG_VALUE: get_zeros_and_len_padding:input_len <- [DW_OP_LLVM_entry_value 1] $r1
	@DEBUG_VALUE: get_zeros_and_len_padding:data_len <- [DW_OP_LLVM_entry_value 1] $r2
	.loc	1 0 48                          @ ../../../ThirdParty/mbedTLS/library/cipher.c:0:48
	ldr	r3, __arm_cp.21_1
.Ltmp401:
.LBB21_12:
	@DEBUG_VALUE: get_zeros_and_len_padding:input <- $r0
	.loc	1 876 1 is_stmt 1               @ ../../../ThirdParty/mbedTLS/library/cipher.c:876:1
	mov	r0, r3
.Ltmp402:
	@DEBUG_VALUE: get_zeros_and_len_padding:input <- [DW_OP_LLVM_entry_value 1] $r0
	pop	{r4, r5, r6, pc}
.Ltmp403:
	.p2align	2
@ %bb.13:
	.loc	1 0 1 is_stmt 0                 @ ../../../ThirdParty/mbedTLS/library/cipher.c:0:1
__arm_cp.21_0:
	.long	4294942464                      @ 0xffff9f00
.Lcpi_end30:
	.size	__arm_cp.21_0, .Lcpi_end30-__arm_cp.21_0
__arm_cp.21_1:
	.long	4294942208                      @ 0xffff9e00
.Lcpi_end31:
	.size	__arm_cp.21_1, .Lcpi_end31-__arm_cp.21_1
.Lfunc_end21:
	.size	get_zeros_and_len_padding, .Lfunc_end21-get_zeros_and_len_padding
	.cfi_endproc
	.cantunwind
	.fnend
                                        @ -- End function
	.section	.text.add_zeros_padding,"ax",%progbits
	.p2align	1                               @ -- Begin function add_zeros_padding
	.type	add_zeros_padding,%function
	.code	16                              @ @add_zeros_padding
	.thumb_func
add_zeros_padding:
.Lfunc_begin22:
	.loc	1 885 0 is_stmt 1               @ ../../../ThirdParty/mbedTLS/library/cipher.c:885:0
	.fnstart
	.cfi_startproc
@ %bb.0:
	@DEBUG_VALUE: add_zeros_padding:output <- $r0
	@DEBUG_VALUE: add_zeros_padding:output <- $r0
	@DEBUG_VALUE: add_zeros_padding:output_len <- $r1
	@DEBUG_VALUE: add_zeros_padding:output_len <- $r1
	@DEBUG_VALUE: add_zeros_padding:data_len <- $r2
	@DEBUG_VALUE: add_zeros_padding:data_len <- $r2
	.save	{r7, lr}
	push	{r7, lr}
	.cfi_def_cfa_offset 8
	.cfi_offset lr, -4
	.cfi_offset r7, -8
.Ltmp404:
	@DEBUG_VALUE: add_zeros_padding:i <- $r2
	@DEBUG_VALUE: add_zeros_padding:i <- $r2
	.loc	1 888 5 prologue_end            @ ../../../ThirdParty/mbedTLS/library/cipher.c:888:5
	cmp	r1, r2
	bls	.LBB22_2
.Ltmp405:
@ %bb.1:
	@DEBUG_VALUE: add_zeros_padding:i <- $r2
	@DEBUG_VALUE: add_zeros_padding:data_len <- $r2
	@DEBUG_VALUE: add_zeros_padding:output_len <- $r1
	@DEBUG_VALUE: add_zeros_padding:output <- $r0
	adds	r0, r0, r2
.Ltmp406:
	@DEBUG_VALUE: add_zeros_padding:output <- [DW_OP_LLVM_entry_value 1] $r0
	subs	r1, r1, r2
.Ltmp407:
	@DEBUG_VALUE: add_zeros_padding:output_len <- [DW_OP_LLVM_entry_value 1] $r1
	.loc	1 889 19                        @ ../../../ThirdParty/mbedTLS/library/cipher.c:889:19
	bl	__aeabi_memclr
.Ltmp408:
	@DEBUG_VALUE: add_zeros_padding:data_len <- [DW_OP_LLVM_entry_value 1] $r2
	@DEBUG_VALUE: add_zeros_padding:i <- undef
.LBB22_2:
	.loc	1 890 1                         @ ../../../ThirdParty/mbedTLS/library/cipher.c:890:1
	pop	{r7, pc}
.Ltmp409:
.Lfunc_end22:
	.size	add_zeros_padding, .Lfunc_end22-add_zeros_padding
	.cfi_endproc
	.cantunwind
	.fnend
                                        @ -- End function
	.section	.text.get_zeros_padding,"ax",%progbits
	.p2align	2                               @ -- Begin function get_zeros_padding
	.type	get_zeros_padding,%function
	.code	16                              @ @get_zeros_padding
	.thumb_func
get_zeros_padding:
.Lfunc_begin23:
	.loc	1 894 0                         @ ../../../ThirdParty/mbedTLS/library/cipher.c:894:0
	.fnstart
	.cfi_startproc
@ %bb.0:
	@DEBUG_VALUE: get_zeros_padding:input <- $r0
	@DEBUG_VALUE: get_zeros_padding:input_len <- $r1
	@DEBUG_VALUE: get_zeros_padding:data_len <- $r2
	.save	{r4, r5, r6, lr}
	push	{r4, r5, r6, lr}
	.cfi_def_cfa_offset 16
	.cfi_offset lr, -4
	.cfi_offset r6, -8
	.cfi_offset r5, -12
	.cfi_offset r4, -16
	mov	r3, r0
	ldr	r0, __arm_cp.23_0
.Ltmp410:
	@DEBUG_VALUE: get_zeros_padding:input <- [DW_OP_LLVM_entry_value 1] $r0
	@DEBUG_VALUE: get_zeros_padding:done <- 0
	@DEBUG_VALUE: get_zeros_padding:data_len <- $r2
	@DEBUG_VALUE: get_zeros_padding:input_len <- $r1
	@DEBUG_VALUE: get_zeros_padding:input <- $r3
	.loc	1 898 23 prologue_end           @ ../../../ThirdParty/mbedTLS/library/cipher.c:898:23
	cbz	r3, .LBB23_7
.Ltmp411:
@ %bb.1:
	@DEBUG_VALUE: get_zeros_padding:input <- $r3
	@DEBUG_VALUE: get_zeros_padding:data_len <- $r2
	@DEBUG_VALUE: get_zeros_padding:input_len <- $r1
	@DEBUG_VALUE: get_zeros_padding:done <- 0
	cbz	r2, .LBB23_7
.Ltmp412:
@ %bb.2:
	@DEBUG_VALUE: get_zeros_padding:input <- $r3
	@DEBUG_VALUE: get_zeros_padding:data_len <- $r2
	@DEBUG_VALUE: get_zeros_padding:input_len <- $r1
	@DEBUG_VALUE: get_zeros_padding:done <- 0
	.loc	1 0 23 is_stmt 0                @ ../../../ThirdParty/mbedTLS/library/cipher.c:0:23
	movs	r0, #0
	str	r0, [r2]
.Ltmp413:
	@DEBUG_VALUE: get_zeros_padding:i <- $r1
	@DEBUG_VALUE: get_zeros_padding:done <- undef
	.loc	1 902 5 is_stmt 1               @ ../../../ThirdParty/mbedTLS/library/cipher.c:902:5
	cbz	r1, .LBB23_7
.Ltmp414:
@ %bb.3:
	@DEBUG_VALUE: get_zeros_padding:input <- $r3
	@DEBUG_VALUE: get_zeros_padding:data_len <- $r2
	@DEBUG_VALUE: get_zeros_padding:i <- $r1
	@DEBUG_VALUE: get_zeros_padding:input_len <- $r1
	subs	r3, r3, #1
.Ltmp415:
	.loc	1 0 5 is_stmt 0                 @ ../../../ThirdParty/mbedTLS/library/cipher.c:0:5
	movs	r0, #0
	mov	r5, r0
	b	.LBB23_5
.Ltmp416:
.LBB23_4:                               @   in Loop: Header=BB23_5 Depth=1
	@DEBUG_VALUE: get_zeros_padding:done <- $r4
	@DEBUG_VALUE: get_zeros_padding:data_len <- $r2
	@DEBUG_VALUE: get_zeros_padding:i <- $r1
	.loc	1 906 19 is_stmt 1              @ ../../../ThirdParty/mbedTLS/library/cipher.c:906:19
	ldr	r6, [r2]
	orrs	r6, r5
.Ltmp417:
	@DEBUG_VALUE: get_zeros_padding:i <- $r1
	.loc	1 0 0 is_stmt 0                 @ ../../../ThirdParty/mbedTLS/library/cipher.c:0:0
	str	r6, [r2]
.Ltmp418:
	.loc	1 905 26 is_stmt 1              @ ../../../ThirdParty/mbedTLS/library/cipher.c:905:26
	subs	r1, r1, #1
.Ltmp419:
	@DEBUG_VALUE: get_zeros_padding:done <- undef
	.loc	1 0 26 is_stmt 0                @ ../../../ThirdParty/mbedTLS/library/cipher.c:0:26
	mov	r5, r4
.Ltmp420:
	.loc	1 902 5 is_stmt 1               @ ../../../ThirdParty/mbedTLS/library/cipher.c:902:5
	beq	.LBB23_7
.Ltmp421:
.LBB23_5:                               @ =>This Inner Loop Header: Depth=1
	@DEBUG_VALUE: get_zeros_padding:data_len <- $r2
	@DEBUG_VALUE: get_zeros_padding:i <- $r1
	@DEBUG_VALUE: get_zeros_padding:prev_done <- undef
	.loc	1 905 19                        @ ../../../ThirdParty/mbedTLS/library/cipher.c:905:19
	ldrb	r4, [r3, r1]
	.loc	1 905 30 is_stmt 0              @ ../../../ThirdParty/mbedTLS/library/cipher.c:905:30
	subs	r6, r4, #1
	sbcs	r4, r6
	.loc	1 905 14                        @ ../../../ThirdParty/mbedTLS/library/cipher.c:905:14
	orrs	r4, r5
.Ltmp422:
	@DEBUG_VALUE: get_zeros_padding:done <- $r4
	.loc	1 906 24 is_stmt 1              @ ../../../ThirdParty/mbedTLS/library/cipher.c:906:24
	cmp	r4, r5
	mov	r5, r0
	beq	.LBB23_4
.Ltmp423:
@ %bb.6:                                @   in Loop: Header=BB23_5 Depth=1
	@DEBUG_VALUE: get_zeros_padding:done <- $r4
	@DEBUG_VALUE: get_zeros_padding:data_len <- $r2
	@DEBUG_VALUE: get_zeros_padding:i <- $r1
	mov	r5, r1
	b	.LBB23_4
.Ltmp424:
.LBB23_7:
	@DEBUG_VALUE: get_zeros_padding:data_len <- $r2
	.loc	1 910 1                         @ ../../../ThirdParty/mbedTLS/library/cipher.c:910:1
	pop	{r4, r5, r6, pc}
.Ltmp425:
	.p2align	2
@ %bb.8:
	.loc	1 0 1 is_stmt 0                 @ ../../../ThirdParty/mbedTLS/library/cipher.c:0:1
__arm_cp.23_0:
	.long	4294942464                      @ 0xffff9f00
.Lcpi_end32:
	.size	__arm_cp.23_0, .Lcpi_end32-__arm_cp.23_0
.Lfunc_end23:
	.size	get_zeros_padding, .Lfunc_end23-get_zeros_padding
	.cfi_endproc
	.cantunwind
	.fnend
                                        @ -- End function
	.section	.text.get_no_padding,"ax",%progbits
	.p2align	2                               @ -- Begin function get_no_padding
	.type	get_no_padding,%function
	.code	16                              @ @get_no_padding
	.thumb_func
get_no_padding:
.Lfunc_begin24:
	.loc	1 921 0 is_stmt 1               @ ../../../ThirdParty/mbedTLS/library/cipher.c:921:0
	.fnstart
	.cfi_startproc
@ %bb.0:
	@DEBUG_VALUE: get_no_padding:input <- $r0
	@DEBUG_VALUE: get_no_padding:input_len <- $r1
	@DEBUG_VALUE: get_no_padding:data_len <- $r2
	mov	r3, r0
	ldr	r0, __arm_cp.24_0
.Ltmp426:
	@DEBUG_VALUE: get_no_padding:input <- [DW_OP_LLVM_entry_value 1] $r0
	@DEBUG_VALUE: get_no_padding:data_len <- $r2
	@DEBUG_VALUE: get_no_padding:input_len <- $r1
	@DEBUG_VALUE: get_no_padding:input <- $r3
	.loc	1 922 23 prologue_end           @ ../../../ThirdParty/mbedTLS/library/cipher.c:922:23
	cbz	r3, .LBB24_3
.Ltmp427:
@ %bb.1:
	@DEBUG_VALUE: get_no_padding:input <- $r3
	@DEBUG_VALUE: get_no_padding:data_len <- $r2
	@DEBUG_VALUE: get_no_padding:input_len <- $r1
	cbz	r2, .LBB24_3
.Ltmp428:
@ %bb.2:
	@DEBUG_VALUE: get_no_padding:input <- $r3
	@DEBUG_VALUE: get_no_padding:data_len <- $r2
	@DEBUG_VALUE: get_no_padding:input_len <- $r1
	.loc	1 925 15                        @ ../../../ThirdParty/mbedTLS/library/cipher.c:925:15
	str	r1, [r2]
	movs	r0, #0
.Ltmp429:
.LBB24_3:
	@DEBUG_VALUE: get_no_padding:input <- $r3
	@DEBUG_VALUE: get_no_padding:data_len <- $r2
	@DEBUG_VALUE: get_no_padding:input_len <- $r1
	.loc	1 928 1                         @ ../../../ThirdParty/mbedTLS/library/cipher.c:928:1
	bx	lr
.Ltmp430:
	.p2align	2
@ %bb.4:
	.loc	1 0 1 is_stmt 0                 @ ../../../ThirdParty/mbedTLS/library/cipher.c:0:1
__arm_cp.24_0:
	.long	4294942464                      @ 0xffff9f00
.Lcpi_end33:
	.size	__arm_cp.24_0, .Lcpi_end33-__arm_cp.24_0
.Lfunc_end24:
	.size	get_no_padding, .Lfunc_end24-get_no_padding
	.cfi_endproc
	.cantunwind
	.fnend
                                        @ -- End function
	.section	.text.mbedtls_cipher_write_tag,"ax",%progbits
	.hidden	mbedtls_cipher_write_tag        @ -- Begin function mbedtls_cipher_write_tag
	.globl	mbedtls_cipher_write_tag
	.p2align	2
	.type	mbedtls_cipher_write_tag,%function
	.code	16                              @ @mbedtls_cipher_write_tag
	.thumb_func
mbedtls_cipher_write_tag:
.Lfunc_begin25:
	.loc	1 1097 0 is_stmt 1              @ ../../../ThirdParty/mbedTLS/library/cipher.c:1097:0
	.fnstart
	.cfi_startproc
@ %bb.0:
	@DEBUG_VALUE: mbedtls_cipher_write_tag:ctx <- $r0
	@DEBUG_VALUE: mbedtls_cipher_write_tag:tag <- $r1
	@DEBUG_VALUE: mbedtls_cipher_write_tag:tag_len <- $r2
	.save	{r4, r5, r7, lr}
	push	{r4, r5, r7, lr}
	.cfi_def_cfa_offset 16
	.cfi_offset lr, -4
	.cfi_offset r7, -8
	.cfi_offset r5, -12
	.cfi_offset r4, -16
	mov	r3, r0
	@DEBUG_VALUE: mbedtls_cipher_write_tag:tag_len <- $r2
	@DEBUG_VALUE: mbedtls_cipher_write_tag:tag <- $r1
.Ltmp431:
	@DEBUG_VALUE: mbedtls_cipher_write_tag:ctx <- $r3
	.loc	1 1100 14 prologue_end          @ ../../../ThirdParty/mbedTLS/library/cipher.c:1100:14
	ldr	r4, [r0]
	ldr	r0, __arm_cp.25_0
.Ltmp432:
	.loc	1 1100 9 is_stmt 0              @ ../../../ThirdParty/mbedTLS/library/cipher.c:1100:9
	cbz	r4, .LBB25_4
.Ltmp433:
@ %bb.1:
	@DEBUG_VALUE: mbedtls_cipher_write_tag:ctx <- $r3
	@DEBUG_VALUE: mbedtls_cipher_write_tag:tag_len <- $r2
	@DEBUG_VALUE: mbedtls_cipher_write_tag:tag <- $r1
	.loc	1 1103 33 is_stmt 1             @ ../../../ThirdParty/mbedTLS/library/cipher.c:1103:33
	ldrb	r5, [r3, #8]
.Ltmp434:
	.loc	1 1103 9 is_stmt 0              @ ../../../ThirdParty/mbedTLS/library/cipher.c:1103:9
	cmp	r5, #1
	bne	.LBB25_4
.Ltmp435:
@ %bb.2:
	@DEBUG_VALUE: mbedtls_cipher_write_tag:ctx <- $r3
	@DEBUG_VALUE: mbedtls_cipher_write_tag:tag_len <- $r2
	@DEBUG_VALUE: mbedtls_cipher_write_tag:tag <- $r1
	.loc	1 1119 47 is_stmt 1             @ ../../../ThirdParty/mbedTLS/library/cipher.c:1119:47
	ldrb	r0, [r4, #1]
.Ltmp436:
	.loc	1 1119 9 is_stmt 0              @ ../../../ThirdParty/mbedTLS/library/cipher.c:1119:9
	cmp	r0, #6
	bne	.LBB25_5
.Ltmp437:
@ %bb.3:
	@DEBUG_VALUE: mbedtls_cipher_write_tag:ctx <- $r3
	@DEBUG_VALUE: mbedtls_cipher_write_tag:tag_len <- $r2
	@DEBUG_VALUE: mbedtls_cipher_write_tag:tag <- $r1
	.loc	1 1120 66 is_stmt 1             @ ../../../ThirdParty/mbedTLS/library/cipher.c:1120:66
	ldr	r0, [r3, #60]
	.loc	1 1120 17 is_stmt 0             @ ../../../ThirdParty/mbedTLS/library/cipher.c:1120:17
	bl	mbedtls_gcm_finish
.Ltmp438:
	@DEBUG_VALUE: mbedtls_cipher_write_tag:tag_len <- [DW_OP_LLVM_entry_value 1] $r2
	@DEBUG_VALUE: mbedtls_cipher_write_tag:tag <- [DW_OP_LLVM_entry_value 1] $r1
.LBB25_4:
	.loc	1 1137 1 is_stmt 1              @ ../../../ThirdParty/mbedTLS/library/cipher.c:1137:1
	pop	{r4, r5, r7, pc}
.LBB25_5:
.Ltmp439:
	@DEBUG_VALUE: mbedtls_cipher_write_tag:ctx <- $r3
	@DEBUG_VALUE: mbedtls_cipher_write_tag:tag_len <- $r2
	@DEBUG_VALUE: mbedtls_cipher_write_tag:tag <- $r1
	.loc	1 0 1 is_stmt 0                 @ ../../../ThirdParty/mbedTLS/library/cipher.c:0:1
	movs	r0, #0
	.loc	1 1137 1                        @ ../../../ThirdParty/mbedTLS/library/cipher.c:1137:1
	pop	{r4, r5, r7, pc}
.Ltmp440:
	.p2align	2
@ %bb.6:
	.loc	1 0 1                           @ ../../../ThirdParty/mbedTLS/library/cipher.c:0:1
__arm_cp.25_0:
	.long	4294942464                      @ 0xffff9f00
.Lcpi_end34:
	.size	__arm_cp.25_0, .Lcpi_end34-__arm_cp.25_0
.Lfunc_end25:
	.size	mbedtls_cipher_write_tag, .Lfunc_end25-mbedtls_cipher_write_tag
	.cfi_endproc
	.cantunwind
	.fnend
                                        @ -- End function
	.section	.text.mbedtls_cipher_check_tag,"ax",%progbits
	.hidden	mbedtls_cipher_check_tag        @ -- Begin function mbedtls_cipher_check_tag
	.globl	mbedtls_cipher_check_tag
	.p2align	2
	.type	mbedtls_cipher_check_tag,%function
	.code	16                              @ @mbedtls_cipher_check_tag
	.thumb_func
mbedtls_cipher_check_tag:
.Lfunc_begin26:
	.loc	1 1141 0 is_stmt 1              @ ../../../ThirdParty/mbedTLS/library/cipher.c:1141:0
	.fnstart
	.cfi_startproc
@ %bb.0:
	@DEBUG_VALUE: mbedtls_cipher_check_tag:ctx <- $r0
	@DEBUG_VALUE: mbedtls_cipher_check_tag:tag <- $r1
	@DEBUG_VALUE: mbedtls_cipher_check_tag:tag_len <- $r2
	.save	{r4, r5, r7, lr}
	push	{r4, r5, r7, lr}
	.cfi_def_cfa_offset 16
	.cfi_offset lr, -4
	.cfi_offset r7, -8
	.cfi_offset r5, -12
	.cfi_offset r4, -16
	.pad	#16
	sub	sp, #16
	.cfi_def_cfa_offset 32
	mov	r4, r2
	mov	r5, r1
	mov	r1, r0
.Ltmp441:
	@DEBUG_VALUE: mbedtls_cipher_check_tag:tag <- [DW_OP_LLVM_entry_value 1] $r1
	@DEBUG_VALUE: mbedtls_cipher_check_tag:tag_len <- $r4
	@DEBUG_VALUE: mbedtls_cipher_check_tag:tag <- $r5
	@DEBUG_VALUE: mbedtls_cipher_check_tag:ctx <- $r1
	.loc	1 1147 14 prologue_end          @ ../../../ThirdParty/mbedTLS/library/cipher.c:1147:14
	ldr	r2, [r0]
	ldr	r0, __arm_cp.26_0
.Ltmp442:
	.loc	1 1147 9 is_stmt 0              @ ../../../ThirdParty/mbedTLS/library/cipher.c:1147:9
	cbz	r2, .LBB26_2
.Ltmp443:
@ %bb.1:
	@DEBUG_VALUE: mbedtls_cipher_check_tag:tag <- $r5
	@DEBUG_VALUE: mbedtls_cipher_check_tag:tag_len <- $r4
	@DEBUG_VALUE: mbedtls_cipher_check_tag:ctx <- $r1
	.loc	1 1150 33 is_stmt 1             @ ../../../ThirdParty/mbedTLS/library/cipher.c:1150:33
	ldrb	r3, [r1, #8]
.Ltmp444:
	.loc	1 1150 9 is_stmt 0              @ ../../../ThirdParty/mbedTLS/library/cipher.c:1150:9
	cbz	r3, .LBB26_3
.Ltmp445:
.LBB26_2:
	@DEBUG_VALUE: mbedtls_cipher_check_tag:tag <- $r5
	@DEBUG_VALUE: mbedtls_cipher_check_tag:tag_len <- $r4
	.loc	1 1209 1 is_stmt 1              @ ../../../ThirdParty/mbedTLS/library/cipher.c:1209:1
	add	sp, #16
	pop	{r4, r5, r7, pc}
.Ltmp446:
.LBB26_3:
	@DEBUG_VALUE: mbedtls_cipher_check_tag:tag <- $r5
	@DEBUG_VALUE: mbedtls_cipher_check_tag:tag_len <- $r4
	@DEBUG_VALUE: mbedtls_cipher_check_tag:ctx <- $r1
	.loc	1 1166 47                       @ ../../../ThirdParty/mbedTLS/library/cipher.c:1166:47
	ldrb	r2, [r2, #1]
.Ltmp447:
	.loc	1 1166 9 is_stmt 0              @ ../../../ThirdParty/mbedTLS/library/cipher.c:1166:9
	cmp	r2, #6
	bne	.LBB26_8
.Ltmp448:
@ %bb.4:
	@DEBUG_VALUE: mbedtls_cipher_check_tag:tag <- $r5
	@DEBUG_VALUE: mbedtls_cipher_check_tag:tag_len <- $r4
	@DEBUG_VALUE: mbedtls_cipher_check_tag:ctx <- $r1
	.loc	1 1168 13 is_stmt 1             @ ../../../ThirdParty/mbedTLS/library/cipher.c:1168:13
	cmp	r4, #16
	bhi	.LBB26_2
.Ltmp449:
@ %bb.5:
	@DEBUG_VALUE: mbedtls_cipher_check_tag:tag <- $r5
	@DEBUG_VALUE: mbedtls_cipher_check_tag:tag_len <- $r4
	@DEBUG_VALUE: mbedtls_cipher_check_tag:ctx <- $r1
	.loc	1 1172 59                       @ ../../../ThirdParty/mbedTLS/library/cipher.c:1172:59
	ldr	r0, [r1, #60]
	mov	r1, sp
.Ltmp450:
	.loc	1 1171 26                       @ ../../../ThirdParty/mbedTLS/library/cipher.c:1171:26
	mov	r2, r4
	bl	mbedtls_gcm_finish
.Ltmp451:
	@DEBUG_VALUE: mbedtls_cipher_check_tag:ret <- $r0
	.loc	1 1171 13 is_stmt 0             @ ../../../ThirdParty/mbedTLS/library/cipher.c:1171:13
	cmp	r0, #0
	bne	.LBB26_2
.Ltmp452:
@ %bb.6:
	@DEBUG_VALUE: mbedtls_cipher_check_tag:tag <- $r5
	@DEBUG_VALUE: mbedtls_cipher_check_tag:tag_len <- $r4
	@DEBUG_VALUE: mbedtls_cipher_check_tag:ret <- $r0
	.loc	1 0 13                          @ ../../../ThirdParty/mbedTLS/library/cipher.c:0:13
	mov	r1, sp
.Ltmp453:
	.loc	1 1179 13 is_stmt 1             @ ../../../ThirdParty/mbedTLS/library/cipher.c:1179:13
	mov	r0, r5
.Ltmp454:
	mov	r2, r4
	bl	mbedtls_constant_time_memcmp
.Ltmp455:
	.loc	1 1179 13 is_stmt 0             @ ../../../ThirdParty/mbedTLS/library/cipher.c:1179:13
	cmp	r0, #0
	beq	.LBB26_2
.Ltmp456:
@ %bb.7:
	@DEBUG_VALUE: mbedtls_cipher_check_tag:tag <- $r5
	@DEBUG_VALUE: mbedtls_cipher_check_tag:tag_len <- $r4
	.loc	1 0 13                          @ ../../../ThirdParty/mbedTLS/library/cipher.c:0:13
	ldr	r0, __arm_cp.26_1
	.loc	1 1209 1 is_stmt 1              @ ../../../ThirdParty/mbedTLS/library/cipher.c:1209:1
	add	sp, #16
	pop	{r4, r5, r7, pc}
.Ltmp457:
.LBB26_8:
	@DEBUG_VALUE: mbedtls_cipher_check_tag:tag <- $r5
	@DEBUG_VALUE: mbedtls_cipher_check_tag:tag_len <- $r4
	@DEBUG_VALUE: mbedtls_cipher_check_tag:ctx <- $r1
	.loc	1 0 1 is_stmt 0                 @ ../../../ThirdParty/mbedTLS/library/cipher.c:0:1
	movs	r0, #0
	.loc	1 1209 1                        @ ../../../ThirdParty/mbedTLS/library/cipher.c:1209:1
	add	sp, #16
	pop	{r4, r5, r7, pc}
.Ltmp458:
	.p2align	2
@ %bb.9:
	.loc	1 0 1                           @ ../../../ThirdParty/mbedTLS/library/cipher.c:0:1
__arm_cp.26_0:
	.long	4294942464                      @ 0xffff9f00
.Lcpi_end35:
	.size	__arm_cp.26_0, .Lcpi_end35-__arm_cp.26_0
__arm_cp.26_1:
	.long	4294941952                      @ 0xffff9d00
.Lcpi_end36:
	.size	__arm_cp.26_1, .Lcpi_end36-__arm_cp.26_1
.Lfunc_end26:
	.size	mbedtls_cipher_check_tag, .Lfunc_end26-mbedtls_cipher_check_tag
	.cfi_endproc
	.cantunwind
	.fnend
                                        @ -- End function
	.section	.text.mbedtls_constant_time_memcmp,"ax",%progbits
	.p2align	1                               @ -- Begin function mbedtls_constant_time_memcmp
	.type	mbedtls_constant_time_memcmp,%function
	.code	16                              @ @mbedtls_constant_time_memcmp
	.thumb_func
mbedtls_constant_time_memcmp:
.Lfunc_begin27:
	.loc	1 86 0 is_stmt 1                @ ../../../ThirdParty/mbedTLS/library/cipher.c:86:0
	.fnstart
	.cfi_startproc
@ %bb.0:
	@DEBUG_VALUE: mbedtls_constant_time_memcmp:v1 <- $r0
	@DEBUG_VALUE: mbedtls_constant_time_memcmp:v2 <- $r1
	@DEBUG_VALUE: mbedtls_constant_time_memcmp:len <- $r2
	@DEBUG_VALUE: mbedtls_constant_time_memcmp:len <- $r2
	@DEBUG_VALUE: mbedtls_constant_time_memcmp:v2 <- $r1
	@DEBUG_VALUE: mbedtls_constant_time_memcmp:v1 <- $r0
	.save	{r4, r5, r7, lr}
	push	{r4, r5, r7, lr}
	.cfi_def_cfa_offset 16
	.cfi_offset lr, -4
	.cfi_offset r7, -8
	.cfi_offset r5, -12
	.cfi_offset r4, -16
.Ltmp459:
	@DEBUG_VALUE: mbedtls_constant_time_memcmp:p1 <- $r0
	@DEBUG_VALUE: mbedtls_constant_time_memcmp:p2 <- $r1
	@DEBUG_VALUE: mbedtls_constant_time_memcmp:i <- 0
	@DEBUG_VALUE: mbedtls_constant_time_memcmp:diff <- undef
	@DEBUG_VALUE: mbedtls_constant_time_memcmp:p2 <- $r1
	@DEBUG_VALUE: mbedtls_constant_time_memcmp:p1 <- $r0
	.loc	1 92 5 prologue_end             @ ../../../ThirdParty/mbedTLS/library/cipher.c:92:5
	cbz	r2, .LBB27_4
.Ltmp460:
@ %bb.1:
	@DEBUG_VALUE: mbedtls_constant_time_memcmp:len <- $r2
	@DEBUG_VALUE: mbedtls_constant_time_memcmp:p2 <- $r1
	@DEBUG_VALUE: mbedtls_constant_time_memcmp:v2 <- $r1
	@DEBUG_VALUE: mbedtls_constant_time_memcmp:p1 <- $r0
	@DEBUG_VALUE: mbedtls_constant_time_memcmp:v1 <- $r0
	@DEBUG_VALUE: mbedtls_constant_time_memcmp:i <- 0
	.loc	1 0 5 is_stmt 0                 @ ../../../ThirdParty/mbedTLS/library/cipher.c:0:5
	mov	r3, r0
.Ltmp461:
	@DEBUG_VALUE: mbedtls_constant_time_memcmp:v1 <- $r3
	@DEBUG_VALUE: mbedtls_constant_time_memcmp:p1 <- $r3
	movs	r0, #0
.Ltmp462:
.LBB27_2:                               @ =>This Inner Loop Header: Depth=1
	@DEBUG_VALUE: mbedtls_constant_time_memcmp:i <- undef
	.loc	1 93 17 is_stmt 1               @ ../../../ThirdParty/mbedTLS/library/cipher.c:93:17
	ldrb	r4, [r3]
	.loc	1 93 25 is_stmt 0               @ ../../../ThirdParty/mbedTLS/library/cipher.c:93:25
	ldrb	r5, [r1]
	.loc	1 93 23                         @ ../../../ThirdParty/mbedTLS/library/cipher.c:93:23
	eors	r5, r4
	.loc	1 93 14                         @ ../../../ThirdParty/mbedTLS/library/cipher.c:93:14
	orrs	r0, r5
.Ltmp463:
	@DEBUG_VALUE: mbedtls_constant_time_memcmp:diff <- [DW_OP_LLVM_convert 32 7, DW_OP_LLVM_convert 8 7, DW_OP_stack_value] $r0
	.loc	1 92 29 is_stmt 1               @ ../../../ThirdParty/mbedTLS/library/cipher.c:92:29
	adds	r3, r3, #1
	adds	r1, r1, #1
.Ltmp464:
	@DEBUG_VALUE: mbedtls_constant_time_memcmp:v2 <- [DW_OP_LLVM_entry_value 1] $r1
	@DEBUG_VALUE: mbedtls_constant_time_memcmp:i <- [DW_OP_plus_uconst 1, DW_OP_stack_value] undef
	@DEBUG_VALUE: mbedtls_constant_time_memcmp:diff <- undef
	subs	r2, r2, #1
.Ltmp465:
	@DEBUG_VALUE: mbedtls_constant_time_memcmp:len <- [DW_OP_LLVM_entry_value 1] $r2
	.loc	1 92 5 is_stmt 0                @ ../../../ThirdParty/mbedTLS/library/cipher.c:92:5
	bne	.LBB27_2
.Ltmp466:
@ %bb.3:
	.loc	1 95 5 is_stmt 1                @ ../../../ThirdParty/mbedTLS/library/cipher.c:95:5
	pop	{r4, r5, r7, pc}
.LBB27_4:
.Ltmp467:
	@DEBUG_VALUE: mbedtls_constant_time_memcmp:len <- $r2
	@DEBUG_VALUE: mbedtls_constant_time_memcmp:p2 <- $r1
	@DEBUG_VALUE: mbedtls_constant_time_memcmp:v2 <- $r1
	@DEBUG_VALUE: mbedtls_constant_time_memcmp:p1 <- $r0
	@DEBUG_VALUE: mbedtls_constant_time_memcmp:v1 <- $r0
	@DEBUG_VALUE: mbedtls_constant_time_memcmp:i <- 0
	.loc	1 0 5 is_stmt 0                 @ ../../../ThirdParty/mbedTLS/library/cipher.c:0:5
	movs	r0, #0
.Ltmp468:
	@DEBUG_VALUE: mbedtls_constant_time_memcmp:v1 <- [DW_OP_LLVM_entry_value 1] $r0
	.loc	1 95 5                          @ ../../../ThirdParty/mbedTLS/library/cipher.c:95:5
	pop	{r4, r5, r7, pc}
.Ltmp469:
.Lfunc_end27:
	.size	mbedtls_constant_time_memcmp, .Lfunc_end27-mbedtls_constant_time_memcmp
	.cfi_endproc
	.cantunwind
	.fnend
                                        @ -- End function
	.section	.text.mbedtls_cipher_crypt,"ax",%progbits
	.hidden	mbedtls_cipher_crypt            @ -- Begin function mbedtls_cipher_crypt
	.globl	mbedtls_cipher_crypt
	.p2align	1
	.type	mbedtls_cipher_crypt,%function
	.code	16                              @ @mbedtls_cipher_crypt
	.thumb_func
mbedtls_cipher_crypt:
.Lfunc_begin28:
	.loc	1 1219 0 is_stmt 1              @ ../../../ThirdParty/mbedTLS/library/cipher.c:1219:0
	.fnstart
	.cfi_startproc
@ %bb.0:
	@DEBUG_VALUE: mbedtls_cipher_crypt:ctx <- $r0
	@DEBUG_VALUE: mbedtls_cipher_crypt:iv <- $r1
	@DEBUG_VALUE: mbedtls_cipher_crypt:iv_len <- $r2
	@DEBUG_VALUE: mbedtls_cipher_crypt:input <- $r3
	.save	{r4, r5, r6, r7, lr}
	push	{r4, r5, r6, r7, lr}
	.cfi_def_cfa_offset 20
	.cfi_offset lr, -4
	.cfi_offset r7, -8
	.cfi_offset r6, -12
	.cfi_offset r5, -16
	.cfi_offset r4, -20
	.pad	#12
	sub	sp, #12
	.cfi_def_cfa_offset 32
	mov	r5, r3
	mov	r4, r0
.Ltmp470:
	@DEBUG_VALUE: mbedtls_cipher_crypt:olen <- [DW_OP_plus_uconst 40] [$sp+0]
	@DEBUG_VALUE: mbedtls_cipher_crypt:output <- [DW_OP_plus_uconst 36] [$sp+0]
	@DEBUG_VALUE: mbedtls_cipher_crypt:ilen <- [DW_OP_plus_uconst 32] [$sp+0]
	@DEBUG_VALUE: mbedtls_cipher_crypt:input <- $r5
	@DEBUG_VALUE: mbedtls_cipher_crypt:iv_len <- $r2
	@DEBUG_VALUE: mbedtls_cipher_crypt:iv <- $r1
	@DEBUG_VALUE: mbedtls_cipher_crypt:ctx <- $r4
	@DEBUG_VALUE: mbedtls_cipher_crypt:iv_len <- $r2
	@DEBUG_VALUE: mbedtls_cipher_crypt:iv <- $r1
	.loc	1 1287 17 prologue_end          @ ../../../ThirdParty/mbedTLS/library/cipher.c:1287:17
	bl	mbedtls_cipher_set_iv
.Ltmp471:
	@DEBUG_VALUE: mbedtls_cipher_crypt:iv_len <- [DW_OP_LLVM_entry_value 1] $r2
	@DEBUG_VALUE: mbedtls_cipher_crypt:iv <- [DW_OP_LLVM_entry_value 1] $r1
	@DEBUG_VALUE: mbedtls_cipher_crypt:ret <- $r0
	.loc	1 1287 9 is_stmt 0              @ ../../../ThirdParty/mbedTLS/library/cipher.c:1287:9
	cbz	r0, .LBB28_2
.Ltmp472:
.LBB28_1:
	@DEBUG_VALUE: mbedtls_cipher_crypt:input <- $r5
	@DEBUG_VALUE: mbedtls_cipher_crypt:ctx <- $r4
	@DEBUG_VALUE: mbedtls_cipher_crypt:ret <- $r0
	@DEBUG_VALUE: mbedtls_cipher_crypt:ilen <- [DW_OP_plus_uconst 32] [$sp+0]
	@DEBUG_VALUE: mbedtls_cipher_crypt:output <- [DW_OP_plus_uconst 36] [$sp+0]
	@DEBUG_VALUE: mbedtls_cipher_crypt:olen <- [DW_OP_plus_uconst 40] [$sp+0]
	@DEBUG_VALUE: mbedtls_cipher_crypt:iv_len <- [DW_OP_LLVM_entry_value 1] $r2
	@DEBUG_VALUE: mbedtls_cipher_crypt:iv <- [DW_OP_LLVM_entry_value 1] $r1
	.loc	1 1304 1 is_stmt 1              @ ../../../ThirdParty/mbedTLS/library/cipher.c:1304:1
	add	sp, #12
.Ltmp473:
	pop	{r4, r5, r6, r7, pc}
.Ltmp474:
.LBB28_2:
	@DEBUG_VALUE: mbedtls_cipher_crypt:input <- $r5
	@DEBUG_VALUE: mbedtls_cipher_crypt:ctx <- $r4
	@DEBUG_VALUE: mbedtls_cipher_crypt:ret <- $r0
	@DEBUG_VALUE: mbedtls_cipher_crypt:ilen <- [DW_OP_plus_uconst 32] [$sp+0]
	@DEBUG_VALUE: mbedtls_cipher_crypt:output <- [DW_OP_plus_uconst 36] [$sp+0]
	@DEBUG_VALUE: mbedtls_cipher_crypt:olen <- [DW_OP_plus_uconst 40] [$sp+0]
	@DEBUG_VALUE: mbedtls_cipher_crypt:iv_len <- [DW_OP_LLVM_entry_value 1] $r2
	@DEBUG_VALUE: mbedtls_cipher_crypt:iv <- [DW_OP_LLVM_entry_value 1] $r1
	.loc	1 1290 17                       @ ../../../ThirdParty/mbedTLS/library/cipher.c:1290:17
	mov	r0, r4
.Ltmp475:
	bl	mbedtls_cipher_reset
.Ltmp476:
	@DEBUG_VALUE: mbedtls_cipher_crypt:ret <- $r0
	.loc	1 1290 9 is_stmt 0              @ ../../../ThirdParty/mbedTLS/library/cipher.c:1290:9
	cmp	r0, #0
	bne	.LBB28_1
.Ltmp477:
@ %bb.3:
	@DEBUG_VALUE: mbedtls_cipher_crypt:input <- $r5
	@DEBUG_VALUE: mbedtls_cipher_crypt:ctx <- $r4
	@DEBUG_VALUE: mbedtls_cipher_crypt:ret <- $r0
	@DEBUG_VALUE: mbedtls_cipher_crypt:ilen <- [DW_OP_plus_uconst 32] [$sp+0]
	@DEBUG_VALUE: mbedtls_cipher_crypt:output <- [DW_OP_plus_uconst 36] [$sp+0]
	@DEBUG_VALUE: mbedtls_cipher_crypt:olen <- [DW_OP_plus_uconst 40] [$sp+0]
	@DEBUG_VALUE: mbedtls_cipher_crypt:iv_len <- [DW_OP_LLVM_entry_value 1] $r2
	@DEBUG_VALUE: mbedtls_cipher_crypt:iv <- [DW_OP_LLVM_entry_value 1] $r1
	.loc	1 0 9                           @ ../../../ThirdParty/mbedTLS/library/cipher.c:0:9
	add	r7, sp, #32
	ldm	r7, {r2, r6, r7}
.Ltmp478:
	.loc	1 1293 17 is_stmt 1             @ ../../../ThirdParty/mbedTLS/library/cipher.c:1293:17
	str	r7, [sp]
	mov	r0, r4
.Ltmp479:
	mov	r1, r5
	mov	r3, r6
	bl	mbedtls_cipher_update
.Ltmp480:
	@DEBUG_VALUE: mbedtls_cipher_crypt:ret <- $r0
	.loc	1 1293 9 is_stmt 0              @ ../../../ThirdParty/mbedTLS/library/cipher.c:1293:9
	cmp	r0, #0
	bne	.LBB28_1
.Ltmp481:
@ %bb.4:
	@DEBUG_VALUE: mbedtls_cipher_crypt:input <- $r5
	@DEBUG_VALUE: mbedtls_cipher_crypt:ctx <- $r4
	@DEBUG_VALUE: mbedtls_cipher_crypt:ret <- $r0
	@DEBUG_VALUE: mbedtls_cipher_crypt:ilen <- [DW_OP_plus_uconst 32] [$sp+0]
	@DEBUG_VALUE: mbedtls_cipher_crypt:output <- [DW_OP_plus_uconst 36] [$sp+0]
	@DEBUG_VALUE: mbedtls_cipher_crypt:olen <- [DW_OP_plus_uconst 40] [$sp+0]
	@DEBUG_VALUE: mbedtls_cipher_crypt:iv_len <- [DW_OP_LLVM_entry_value 1] $r2
	@DEBUG_VALUE: mbedtls_cipher_crypt:iv <- [DW_OP_LLVM_entry_value 1] $r1
	.loc	1 1297 54 is_stmt 1             @ ../../../ThirdParty/mbedTLS/library/cipher.c:1297:54
	ldr	r0, [r7]
.Ltmp482:
	.loc	1 1297 52 is_stmt 0             @ ../../../ThirdParty/mbedTLS/library/cipher.c:1297:52
	adds	r1, r6, r0
.Ltmp483:
	@DEBUG_VALUE: mbedtls_cipher_crypt:finish_olen <- [DW_OP_plus_uconst 8, DW_OP_deref] $sp
	.loc	1 0 52                          @ ../../../ThirdParty/mbedTLS/library/cipher.c:0:52
	add	r2, sp, #8
	.loc	1 1297 17                       @ ../../../ThirdParty/mbedTLS/library/cipher.c:1297:17
	mov	r0, r4
	bl	mbedtls_cipher_finish
.Ltmp484:
	@DEBUG_VALUE: mbedtls_cipher_crypt:ret <- $r0
	.loc	1 1297 9                        @ ../../../ThirdParty/mbedTLS/library/cipher.c:1297:9
	cmp	r0, #0
	bne	.LBB28_1
.Ltmp485:
@ %bb.5:
	@DEBUG_VALUE: mbedtls_cipher_crypt:input <- $r5
	@DEBUG_VALUE: mbedtls_cipher_crypt:ctx <- $r4
	@DEBUG_VALUE: mbedtls_cipher_crypt:ret <- $r0
	@DEBUG_VALUE: mbedtls_cipher_crypt:finish_olen <- [DW_OP_plus_uconst 8, DW_OP_deref] $sp
	@DEBUG_VALUE: mbedtls_cipher_crypt:ilen <- [DW_OP_plus_uconst 32] [$sp+0]
	@DEBUG_VALUE: mbedtls_cipher_crypt:output <- [DW_OP_plus_uconst 36] [$sp+0]
	@DEBUG_VALUE: mbedtls_cipher_crypt:olen <- [DW_OP_plus_uconst 40] [$sp+0]
	@DEBUG_VALUE: mbedtls_cipher_crypt:iv_len <- [DW_OP_LLVM_entry_value 1] $r2
	@DEBUG_VALUE: mbedtls_cipher_crypt:iv <- [DW_OP_LLVM_entry_value 1] $r1
	.loc	1 1301 11 is_stmt 1             @ ../../../ThirdParty/mbedTLS/library/cipher.c:1301:11
	ldr	r0, [r7]
.Ltmp486:
	.loc	1 1301 14 is_stmt 0             @ ../../../ThirdParty/mbedTLS/library/cipher.c:1301:14
	ldr	r1, [sp, #8]
.Ltmp487:
	@DEBUG_VALUE: mbedtls_cipher_crypt:finish_olen <- $r1
	.loc	1 1301 11                       @ ../../../ThirdParty/mbedTLS/library/cipher.c:1301:11
	adds	r0, r0, r1
	str	r0, [r7]
	movs	r0, #0
	.loc	1 1304 1 is_stmt 1              @ ../../../ThirdParty/mbedTLS/library/cipher.c:1304:1
	add	sp, #12
.Ltmp488:
	pop	{r4, r5, r6, r7, pc}
.Ltmp489:
.Lfunc_end28:
	.size	mbedtls_cipher_crypt, .Lfunc_end28-mbedtls_cipher_crypt
	.cfi_endproc
	.cantunwind
	.fnend
                                        @ -- End function
	.section	.text.mbedtls_cipher_auth_encrypt,"ax",%progbits
	.hidden	mbedtls_cipher_auth_encrypt     @ -- Begin function mbedtls_cipher_auth_encrypt
	.globl	mbedtls_cipher_auth_encrypt
	.p2align	2
	.type	mbedtls_cipher_auth_encrypt,%function
	.code	16                              @ @mbedtls_cipher_auth_encrypt
	.thumb_func
mbedtls_cipher_auth_encrypt:
.Lfunc_begin29:
	.loc	1 1316 0                        @ ../../../ThirdParty/mbedTLS/library/cipher.c:1316:0
	.fnstart
	.cfi_startproc
@ %bb.0:
	@DEBUG_VALUE: mbedtls_cipher_auth_encrypt:ctx <- $r0
	@DEBUG_VALUE: mbedtls_cipher_auth_encrypt:iv <- $r1
	@DEBUG_VALUE: mbedtls_cipher_auth_encrypt:iv_len <- $r2
	@DEBUG_VALUE: mbedtls_cipher_auth_encrypt:ad <- $r3
	.save	{r4, r5, r6, r7, lr}
	push	{r4, r5, r6, r7, lr}
	.cfi_def_cfa_offset 20
	.cfi_offset lr, -4
	.cfi_offset r7, -8
	.cfi_offset r6, -12
	.cfi_offset r5, -16
	.cfi_offset r4, -20
	.pad	#44
	sub	sp, #44
	.cfi_def_cfa_offset 64
	str	r2, [sp, #36]                   @ 4-byte Spill
	str	r1, [sp, #40]                   @ 4-byte Spill
.Ltmp490:
	@DEBUG_VALUE: mbedtls_cipher_auth_encrypt:tag_len <- [DW_OP_plus_uconst 88] [$sp+0]
	@DEBUG_VALUE: mbedtls_cipher_auth_encrypt:tag <- [DW_OP_plus_uconst 84] [$sp+0]
	@DEBUG_VALUE: mbedtls_cipher_auth_encrypt:olen <- [DW_OP_plus_uconst 80] [$sp+0]
	@DEBUG_VALUE: mbedtls_cipher_auth_encrypt:output <- [DW_OP_plus_uconst 76] [$sp+0]
	@DEBUG_VALUE: mbedtls_cipher_auth_encrypt:ilen <- [DW_OP_plus_uconst 72] [$sp+0]
	@DEBUG_VALUE: mbedtls_cipher_auth_encrypt:input <- [DW_OP_plus_uconst 68] [$sp+0]
	@DEBUG_VALUE: mbedtls_cipher_auth_encrypt:ad_len <- [DW_OP_plus_uconst 64] [$sp+0]
	@DEBUG_VALUE: mbedtls_cipher_auth_encrypt:ad <- $r3
	@DEBUG_VALUE: mbedtls_cipher_auth_encrypt:iv_len <- [DW_OP_plus_uconst 36] [$sp+0]
	@DEBUG_VALUE: mbedtls_cipher_auth_encrypt:iv <- [DW_OP_plus_uconst 40] [$sp+0]
	@DEBUG_VALUE: mbedtls_cipher_auth_encrypt:ctx <- $r0
	.loc	1 1358 34 prologue_end          @ ../../../ThirdParty/mbedTLS/library/cipher.c:1358:34
	ldr	r1, [r0]
	.loc	1 1358 47 is_stmt 0             @ ../../../ThirdParty/mbedTLS/library/cipher.c:1358:47
	ldrb	r6, [r1, #1]
	ldr	r1, [sp, #88]
	str	r1, [sp, #32]                   @ 4-byte Spill
	ldr	r1, [sp, #84]
	str	r1, [sp, #28]                   @ 4-byte Spill
	ldr	r1, [sp, #80]
	ldr	r7, [sp, #76]
	ldr	r2, [sp, #72]
	ldr	r5, [sp, #68]
	ldr	r4, [sp, #64]
.Ltmp491:
	.loc	1 1358 9                        @ ../../../ThirdParty/mbedTLS/library/cipher.c:1358:9
	cmp	r6, #8
	beq	.LBB29_3
.Ltmp492:
@ %bb.1:
	@DEBUG_VALUE: mbedtls_cipher_auth_encrypt:ad <- $r3
	@DEBUG_VALUE: mbedtls_cipher_auth_encrypt:ctx <- $r0
	@DEBUG_VALUE: mbedtls_cipher_auth_encrypt:iv <- [DW_OP_plus_uconst 40] [$sp+0]
	@DEBUG_VALUE: mbedtls_cipher_auth_encrypt:iv_len <- [DW_OP_plus_uconst 36] [$sp+0]
	@DEBUG_VALUE: mbedtls_cipher_auth_encrypt:ad_len <- [DW_OP_plus_uconst 64] [$sp+0]
	@DEBUG_VALUE: mbedtls_cipher_auth_encrypt:input <- [DW_OP_plus_uconst 68] [$sp+0]
	@DEBUG_VALUE: mbedtls_cipher_auth_encrypt:ilen <- [DW_OP_plus_uconst 72] [$sp+0]
	@DEBUG_VALUE: mbedtls_cipher_auth_encrypt:output <- [DW_OP_plus_uconst 76] [$sp+0]
	@DEBUG_VALUE: mbedtls_cipher_auth_encrypt:olen <- [DW_OP_plus_uconst 80] [$sp+0]
	@DEBUG_VALUE: mbedtls_cipher_auth_encrypt:tag <- [DW_OP_plus_uconst 84] [$sp+0]
	@DEBUG_VALUE: mbedtls_cipher_auth_encrypt:tag_len <- [DW_OP_plus_uconst 88] [$sp+0]
	cmp	r6, #6
	bne	.LBB29_4
.Ltmp493:
@ %bb.2:
	@DEBUG_VALUE: mbedtls_cipher_auth_encrypt:ad <- $r3
	@DEBUG_VALUE: mbedtls_cipher_auth_encrypt:ctx <- $r0
	@DEBUG_VALUE: mbedtls_cipher_auth_encrypt:iv <- [DW_OP_plus_uconst 40] [$sp+0]
	@DEBUG_VALUE: mbedtls_cipher_auth_encrypt:iv_len <- [DW_OP_plus_uconst 36] [$sp+0]
	@DEBUG_VALUE: mbedtls_cipher_auth_encrypt:ad_len <- [DW_OP_plus_uconst 64] [$sp+0]
	@DEBUG_VALUE: mbedtls_cipher_auth_encrypt:input <- [DW_OP_plus_uconst 68] [$sp+0]
	@DEBUG_VALUE: mbedtls_cipher_auth_encrypt:ilen <- [DW_OP_plus_uconst 72] [$sp+0]
	@DEBUG_VALUE: mbedtls_cipher_auth_encrypt:output <- [DW_OP_plus_uconst 76] [$sp+0]
	@DEBUG_VALUE: mbedtls_cipher_auth_encrypt:olen <- [DW_OP_plus_uconst 80] [$sp+0]
	@DEBUG_VALUE: mbedtls_cipher_auth_encrypt:tag <- [DW_OP_plus_uconst 84] [$sp+0]
	@DEBUG_VALUE: mbedtls_cipher_auth_encrypt:tag_len <- [DW_OP_plus_uconst 88] [$sp+0]
	.loc	1 1360 15 is_stmt 1             @ ../../../ThirdParty/mbedTLS/library/cipher.c:1360:15
	str	r2, [r1]
	.loc	1 1361 49                       @ ../../../ThirdParty/mbedTLS/library/cipher.c:1361:49
	ldr	r0, [r0, #60]
.Ltmp494:
	@DEBUG_VALUE: mbedtls_cipher_auth_encrypt:ctx <- [DW_OP_LLVM_entry_value 1] $r0
	.loc	1 1361 17 is_stmt 0             @ ../../../ThirdParty/mbedTLS/library/cipher.c:1361:17
	ldr	r1, [sp, #36]                   @ 4-byte Reload
	add	r6, sp, #0
	stm	r6!, {r1, r3, r4, r5, r7}
	ldr	r1, [sp, #32]                   @ 4-byte Reload
	str	r1, [sp, #20]
	ldr	r1, [sp, #28]                   @ 4-byte Reload
	str	r1, [sp, #24]
	movs	r1, #1
	ldr	r3, [sp, #40]                   @ 4-byte Reload
.Ltmp495:
	@DEBUG_VALUE: mbedtls_cipher_auth_encrypt:ad <- [DW_OP_LLVM_entry_value 1] $r3
	bl	mbedtls_gcm_crypt_and_tag
.Ltmp496:
	.loc	1 1392 1 is_stmt 1              @ ../../../ThirdParty/mbedTLS/library/cipher.c:1392:1
	add	sp, #44
.Ltmp497:
	pop	{r4, r5, r6, r7, pc}
.Ltmp498:
.LBB29_3:
	@DEBUG_VALUE: mbedtls_cipher_auth_encrypt:ad <- $r3
	@DEBUG_VALUE: mbedtls_cipher_auth_encrypt:ctx <- $r0
	@DEBUG_VALUE: mbedtls_cipher_auth_encrypt:iv <- [DW_OP_plus_uconst 40] [$sp+0]
	@DEBUG_VALUE: mbedtls_cipher_auth_encrypt:iv_len <- [DW_OP_plus_uconst 36] [$sp+0]
	@DEBUG_VALUE: mbedtls_cipher_auth_encrypt:ad_len <- [DW_OP_plus_uconst 64] [$sp+0]
	@DEBUG_VALUE: mbedtls_cipher_auth_encrypt:input <- [DW_OP_plus_uconst 68] [$sp+0]
	@DEBUG_VALUE: mbedtls_cipher_auth_encrypt:ilen <- [DW_OP_plus_uconst 72] [$sp+0]
	@DEBUG_VALUE: mbedtls_cipher_auth_encrypt:output <- [DW_OP_plus_uconst 76] [$sp+0]
	@DEBUG_VALUE: mbedtls_cipher_auth_encrypt:olen <- [DW_OP_plus_uconst 80] [$sp+0]
	@DEBUG_VALUE: mbedtls_cipher_auth_encrypt:tag <- [DW_OP_plus_uconst 84] [$sp+0]
	@DEBUG_VALUE: mbedtls_cipher_auth_encrypt:tag_len <- [DW_OP_plus_uconst 88] [$sp+0]
	.loc	1 1369 15                       @ ../../../ThirdParty/mbedTLS/library/cipher.c:1369:15
	str	r2, [r1]
	.loc	1 1370 51                       @ ../../../ThirdParty/mbedTLS/library/cipher.c:1370:51
	ldr	r0, [r0, #60]
.Ltmp499:
	@DEBUG_VALUE: mbedtls_cipher_auth_encrypt:ctx <- [DW_OP_LLVM_entry_value 1] $r0
	.loc	1 1370 17 is_stmt 0             @ ../../../ThirdParty/mbedTLS/library/cipher.c:1370:17
	add	r1, sp, #0
	stm	r1!, {r3, r4, r5, r7}
	ldr	r1, [sp, #28]                   @ 4-byte Reload
	str	r1, [sp, #16]
	ldr	r1, [sp, #32]                   @ 4-byte Reload
	str	r1, [sp, #20]
	mov	r1, r2
	ldr	r2, [sp, #40]                   @ 4-byte Reload
	ldr	r3, [sp, #36]                   @ 4-byte Reload
.Ltmp500:
	@DEBUG_VALUE: mbedtls_cipher_auth_encrypt:ad <- [DW_OP_LLVM_entry_value 1] $r3
	bl	mbedtls_ccm_encrypt_and_tag
.Ltmp501:
	.loc	1 1392 1 is_stmt 1              @ ../../../ThirdParty/mbedTLS/library/cipher.c:1392:1
	add	sp, #44
.Ltmp502:
	pop	{r4, r5, r6, r7, pc}
.Ltmp503:
.LBB29_4:
	@DEBUG_VALUE: mbedtls_cipher_auth_encrypt:ad <- $r3
	@DEBUG_VALUE: mbedtls_cipher_auth_encrypt:ctx <- $r0
	@DEBUG_VALUE: mbedtls_cipher_auth_encrypt:iv <- [DW_OP_plus_uconst 40] [$sp+0]
	@DEBUG_VALUE: mbedtls_cipher_auth_encrypt:iv_len <- [DW_OP_plus_uconst 36] [$sp+0]
	@DEBUG_VALUE: mbedtls_cipher_auth_encrypt:ad_len <- [DW_OP_plus_uconst 64] [$sp+0]
	@DEBUG_VALUE: mbedtls_cipher_auth_encrypt:input <- [DW_OP_plus_uconst 68] [$sp+0]
	@DEBUG_VALUE: mbedtls_cipher_auth_encrypt:ilen <- [DW_OP_plus_uconst 72] [$sp+0]
	@DEBUG_VALUE: mbedtls_cipher_auth_encrypt:output <- [DW_OP_plus_uconst 76] [$sp+0]
	@DEBUG_VALUE: mbedtls_cipher_auth_encrypt:olen <- [DW_OP_plus_uconst 80] [$sp+0]
	@DEBUG_VALUE: mbedtls_cipher_auth_encrypt:tag <- [DW_OP_plus_uconst 84] [$sp+0]
	@DEBUG_VALUE: mbedtls_cipher_auth_encrypt:tag_len <- [DW_OP_plus_uconst 88] [$sp+0]
	.loc	1 0 1 is_stmt 0                 @ ../../../ThirdParty/mbedTLS/library/cipher.c:0:1
	ldr	r0, __arm_cp.29_0
.Ltmp504:
	@DEBUG_VALUE: mbedtls_cipher_auth_encrypt:ctx <- [DW_OP_LLVM_entry_value 1] $r0
	.loc	1 1392 1                        @ ../../../ThirdParty/mbedTLS/library/cipher.c:1392:1
	add	sp, #44
.Ltmp505:
	pop	{r4, r5, r6, r7, pc}
.Ltmp506:
	.p2align	2
@ %bb.5:
	.loc	1 0 1                           @ ../../../ThirdParty/mbedTLS/library/cipher.c:0:1
__arm_cp.29_0:
	.long	4294942592                      @ 0xffff9f80
.Lcpi_end37:
	.size	__arm_cp.29_0, .Lcpi_end37-__arm_cp.29_0
.Lfunc_end29:
	.size	mbedtls_cipher_auth_encrypt, .Lfunc_end29-mbedtls_cipher_auth_encrypt
	.cfi_endproc
	.cantunwind
	.fnend
                                        @ -- End function
	.section	.text.mbedtls_cipher_auth_decrypt,"ax",%progbits
	.hidden	mbedtls_cipher_auth_decrypt     @ -- Begin function mbedtls_cipher_auth_decrypt
	.globl	mbedtls_cipher_auth_decrypt
	.p2align	2
	.type	mbedtls_cipher_auth_decrypt,%function
	.code	16                              @ @mbedtls_cipher_auth_decrypt
	.thumb_func
mbedtls_cipher_auth_decrypt:
.Lfunc_begin30:
	.loc	1 1403 0 is_stmt 1              @ ../../../ThirdParty/mbedTLS/library/cipher.c:1403:0
	.fnstart
	.cfi_startproc
@ %bb.0:
	@DEBUG_VALUE: mbedtls_cipher_auth_decrypt:ctx <- $r0
	@DEBUG_VALUE: mbedtls_cipher_auth_decrypt:iv <- $r1
	@DEBUG_VALUE: mbedtls_cipher_auth_decrypt:iv_len <- $r2
	@DEBUG_VALUE: mbedtls_cipher_auth_decrypt:ad <- $r3
	.save	{r4, r5, r6, r7, lr}
	push	{r4, r5, r6, r7, lr}
	.cfi_def_cfa_offset 20
	.cfi_offset lr, -4
	.cfi_offset r7, -8
	.cfi_offset r6, -12
	.cfi_offset r5, -16
	.cfi_offset r4, -20
	.pad	#44
	sub	sp, #44
	.cfi_def_cfa_offset 64
	str	r3, [sp, #28]                   @ 4-byte Spill
	str	r2, [sp, #40]                   @ 4-byte Spill
	str	r1, [sp, #36]                   @ 4-byte Spill
.Ltmp507:
	@DEBUG_VALUE: mbedtls_cipher_auth_decrypt:tag_len <- [DW_OP_plus_uconst 88] [$sp+0]
	@DEBUG_VALUE: mbedtls_cipher_auth_decrypt:tag <- [DW_OP_plus_uconst 84] [$sp+0]
	@DEBUG_VALUE: mbedtls_cipher_auth_decrypt:olen <- [DW_OP_plus_uconst 80] [$sp+0]
	@DEBUG_VALUE: mbedtls_cipher_auth_decrypt:output <- [DW_OP_plus_uconst 76] [$sp+0]
	@DEBUG_VALUE: mbedtls_cipher_auth_decrypt:ilen <- [DW_OP_plus_uconst 72] [$sp+0]
	@DEBUG_VALUE: mbedtls_cipher_auth_decrypt:input <- [DW_OP_plus_uconst 68] [$sp+0]
	@DEBUG_VALUE: mbedtls_cipher_auth_decrypt:ad_len <- [DW_OP_plus_uconst 64] [$sp+0]
	@DEBUG_VALUE: mbedtls_cipher_auth_decrypt:ad <- [DW_OP_plus_uconst 28] [$sp+0]
	@DEBUG_VALUE: mbedtls_cipher_auth_decrypt:iv_len <- [DW_OP_plus_uconst 40] [$sp+0]
	@DEBUG_VALUE: mbedtls_cipher_auth_decrypt:iv <- [DW_OP_plus_uconst 36] [$sp+0]
	@DEBUG_VALUE: mbedtls_cipher_auth_decrypt:ctx <- $r0
	.loc	1 1446 34 prologue_end          @ ../../../ThirdParty/mbedTLS/library/cipher.c:1446:34
	ldr	r1, [r0]
	.loc	1 1446 47 is_stmt 0             @ ../../../ThirdParty/mbedTLS/library/cipher.c:1446:47
	ldrb	r6, [r1, #1]
	ldr	r1, [sp, #88]
	str	r1, [sp, #32]                   @ 4-byte Spill
	add	r7, sp, #72
	ldm	r7, {r1, r3, r5, r7}
	ldr	r4, [sp, #68]
	ldr	r2, [sp, #64]
.Ltmp508:
	.loc	1 1446 9                        @ ../../../ThirdParty/mbedTLS/library/cipher.c:1446:9
	cmp	r6, #8
	beq	.LBB30_4
.Ltmp509:
@ %bb.1:
	@DEBUG_VALUE: mbedtls_cipher_auth_decrypt:ctx <- $r0
	@DEBUG_VALUE: mbedtls_cipher_auth_decrypt:iv <- [DW_OP_plus_uconst 36] [$sp+0]
	@DEBUG_VALUE: mbedtls_cipher_auth_decrypt:iv_len <- [DW_OP_plus_uconst 40] [$sp+0]
	@DEBUG_VALUE: mbedtls_cipher_auth_decrypt:ad <- [DW_OP_plus_uconst 28] [$sp+0]
	@DEBUG_VALUE: mbedtls_cipher_auth_decrypt:ad_len <- [DW_OP_plus_uconst 64] [$sp+0]
	@DEBUG_VALUE: mbedtls_cipher_auth_decrypt:input <- [DW_OP_plus_uconst 68] [$sp+0]
	@DEBUG_VALUE: mbedtls_cipher_auth_decrypt:ilen <- [DW_OP_plus_uconst 72] [$sp+0]
	@DEBUG_VALUE: mbedtls_cipher_auth_decrypt:output <- [DW_OP_plus_uconst 76] [$sp+0]
	@DEBUG_VALUE: mbedtls_cipher_auth_decrypt:olen <- [DW_OP_plus_uconst 80] [$sp+0]
	@DEBUG_VALUE: mbedtls_cipher_auth_decrypt:tag <- [DW_OP_plus_uconst 84] [$sp+0]
	@DEBUG_VALUE: mbedtls_cipher_auth_decrypt:tag_len <- [DW_OP_plus_uconst 88] [$sp+0]
	cmp	r6, #6
	bne	.LBB30_7
.Ltmp510:
@ %bb.2:
	@DEBUG_VALUE: mbedtls_cipher_auth_decrypt:ctx <- $r0
	@DEBUG_VALUE: mbedtls_cipher_auth_decrypt:iv <- [DW_OP_plus_uconst 36] [$sp+0]
	@DEBUG_VALUE: mbedtls_cipher_auth_decrypt:iv_len <- [DW_OP_plus_uconst 40] [$sp+0]
	@DEBUG_VALUE: mbedtls_cipher_auth_decrypt:ad <- [DW_OP_plus_uconst 28] [$sp+0]
	@DEBUG_VALUE: mbedtls_cipher_auth_decrypt:ad_len <- [DW_OP_plus_uconst 64] [$sp+0]
	@DEBUG_VALUE: mbedtls_cipher_auth_decrypt:input <- [DW_OP_plus_uconst 68] [$sp+0]
	@DEBUG_VALUE: mbedtls_cipher_auth_decrypt:ilen <- [DW_OP_plus_uconst 72] [$sp+0]
	@DEBUG_VALUE: mbedtls_cipher_auth_decrypt:output <- [DW_OP_plus_uconst 76] [$sp+0]
	@DEBUG_VALUE: mbedtls_cipher_auth_decrypt:olen <- [DW_OP_plus_uconst 80] [$sp+0]
	@DEBUG_VALUE: mbedtls_cipher_auth_decrypt:tag <- [DW_OP_plus_uconst 84] [$sp+0]
	@DEBUG_VALUE: mbedtls_cipher_auth_decrypt:tag_len <- [DW_OP_plus_uconst 88] [$sp+0]
	.loc	1 1450 15 is_stmt 1             @ ../../../ThirdParty/mbedTLS/library/cipher.c:1450:15
	str	r1, [r5]
	.loc	1 1451 46                       @ ../../../ThirdParty/mbedTLS/library/cipher.c:1451:46
	ldr	r0, [r0, #60]
.Ltmp511:
	@DEBUG_VALUE: mbedtls_cipher_auth_decrypt:ctx <- [DW_OP_LLVM_entry_value 1] $r0
	.loc	1 1451 15 is_stmt 0             @ ../../../ThirdParty/mbedTLS/library/cipher.c:1451:15
	ldr	r5, [sp, #28]                   @ 4-byte Reload
	str	r5, [sp]
	str	r2, [sp, #4]
	str	r7, [sp, #8]
	ldr	r2, [sp, #32]                   @ 4-byte Reload
	str	r2, [sp, #12]
	str	r4, [sp, #16]
	str	r3, [sp, #20]
	ldr	r2, [sp, #36]                   @ 4-byte Reload
	ldr	r3, [sp, #40]                   @ 4-byte Reload
	bl	mbedtls_gcm_auth_decrypt
.Ltmp512:
	@DEBUG_VALUE: ret <- $r0
	.loc	1 1455 13 is_stmt 1             @ ../../../ThirdParty/mbedTLS/library/cipher.c:1455:13
	mov	r1, r0
	adds	r1, #18
	bne	.LBB30_6
.Ltmp513:
@ %bb.3:
	@DEBUG_VALUE: mbedtls_cipher_auth_decrypt:iv <- [DW_OP_plus_uconst 36] [$sp+0]
	@DEBUG_VALUE: mbedtls_cipher_auth_decrypt:iv_len <- [DW_OP_plus_uconst 40] [$sp+0]
	@DEBUG_VALUE: mbedtls_cipher_auth_decrypt:ad <- [DW_OP_plus_uconst 28] [$sp+0]
	@DEBUG_VALUE: mbedtls_cipher_auth_decrypt:ad_len <- [DW_OP_plus_uconst 64] [$sp+0]
	@DEBUG_VALUE: mbedtls_cipher_auth_decrypt:input <- [DW_OP_plus_uconst 68] [$sp+0]
	@DEBUG_VALUE: mbedtls_cipher_auth_decrypt:ilen <- [DW_OP_plus_uconst 72] [$sp+0]
	@DEBUG_VALUE: mbedtls_cipher_auth_decrypt:output <- [DW_OP_plus_uconst 76] [$sp+0]
	@DEBUG_VALUE: mbedtls_cipher_auth_decrypt:olen <- [DW_OP_plus_uconst 80] [$sp+0]
	@DEBUG_VALUE: mbedtls_cipher_auth_decrypt:tag <- [DW_OP_plus_uconst 84] [$sp+0]
	@DEBUG_VALUE: mbedtls_cipher_auth_decrypt:tag_len <- [DW_OP_plus_uconst 88] [$sp+0]
	@DEBUG_VALUE: mbedtls_cipher_auth_decrypt:ctx <- [DW_OP_LLVM_entry_value 1] $r0
	.loc	1 0 13 is_stmt 0                @ ../../../ThirdParty/mbedTLS/library/cipher.c:0:13
	ldr	r0, __arm_cp.30_1
	.loc	1 1501 1 is_stmt 1              @ ../../../ThirdParty/mbedTLS/library/cipher.c:1501:1
	add	sp, #44
.Ltmp514:
	pop	{r4, r5, r6, r7, pc}
.Ltmp515:
.LBB30_4:
	@DEBUG_VALUE: mbedtls_cipher_auth_decrypt:ctx <- $r0
	@DEBUG_VALUE: mbedtls_cipher_auth_decrypt:iv <- [DW_OP_plus_uconst 36] [$sp+0]
	@DEBUG_VALUE: mbedtls_cipher_auth_decrypt:iv_len <- [DW_OP_plus_uconst 40] [$sp+0]
	@DEBUG_VALUE: mbedtls_cipher_auth_decrypt:ad <- [DW_OP_plus_uconst 28] [$sp+0]
	@DEBUG_VALUE: mbedtls_cipher_auth_decrypt:ad_len <- [DW_OP_plus_uconst 64] [$sp+0]
	@DEBUG_VALUE: mbedtls_cipher_auth_decrypt:input <- [DW_OP_plus_uconst 68] [$sp+0]
	@DEBUG_VALUE: mbedtls_cipher_auth_decrypt:ilen <- [DW_OP_plus_uconst 72] [$sp+0]
	@DEBUG_VALUE: mbedtls_cipher_auth_decrypt:output <- [DW_OP_plus_uconst 76] [$sp+0]
	@DEBUG_VALUE: mbedtls_cipher_auth_decrypt:olen <- [DW_OP_plus_uconst 80] [$sp+0]
	@DEBUG_VALUE: mbedtls_cipher_auth_decrypt:tag <- [DW_OP_plus_uconst 84] [$sp+0]
	@DEBUG_VALUE: mbedtls_cipher_auth_decrypt:tag_len <- [DW_OP_plus_uconst 88] [$sp+0]
	.loc	1 1466 15                       @ ../../../ThirdParty/mbedTLS/library/cipher.c:1466:15
	str	r1, [r5]
	.loc	1 1467 46                       @ ../../../ThirdParty/mbedTLS/library/cipher.c:1467:46
	ldr	r0, [r0, #60]
.Ltmp516:
	@DEBUG_VALUE: mbedtls_cipher_auth_decrypt:ctx <- [DW_OP_LLVM_entry_value 1] $r0
	.loc	1 1467 15 is_stmt 0             @ ../../../ThirdParty/mbedTLS/library/cipher.c:1467:15
	ldr	r5, [sp, #28]                   @ 4-byte Reload
	str	r5, [sp]
	str	r2, [sp, #4]
	str	r4, [sp, #8]
	str	r3, [sp, #12]
	str	r7, [sp, #16]
	ldr	r2, [sp, #32]                   @ 4-byte Reload
	str	r2, [sp, #20]
	ldr	r2, [sp, #36]                   @ 4-byte Reload
	ldr	r3, [sp, #40]                   @ 4-byte Reload
	bl	mbedtls_ccm_auth_decrypt
.Ltmp517:
	@DEBUG_VALUE: ret <- $r0
	.loc	1 1471 13 is_stmt 1             @ ../../../ThirdParty/mbedTLS/library/cipher.c:1471:13
	mov	r1, r0
	adds	r1, #15
	bne	.LBB30_6
.Ltmp518:
@ %bb.5:
	@DEBUG_VALUE: ret <- $r0
	@DEBUG_VALUE: mbedtls_cipher_auth_decrypt:iv <- [DW_OP_plus_uconst 36] [$sp+0]
	@DEBUG_VALUE: mbedtls_cipher_auth_decrypt:iv_len <- [DW_OP_plus_uconst 40] [$sp+0]
	@DEBUG_VALUE: mbedtls_cipher_auth_decrypt:ad <- [DW_OP_plus_uconst 28] [$sp+0]
	@DEBUG_VALUE: mbedtls_cipher_auth_decrypt:ad_len <- [DW_OP_plus_uconst 64] [$sp+0]
	@DEBUG_VALUE: mbedtls_cipher_auth_decrypt:input <- [DW_OP_plus_uconst 68] [$sp+0]
	@DEBUG_VALUE: mbedtls_cipher_auth_decrypt:ilen <- [DW_OP_plus_uconst 72] [$sp+0]
	@DEBUG_VALUE: mbedtls_cipher_auth_decrypt:output <- [DW_OP_plus_uconst 76] [$sp+0]
	@DEBUG_VALUE: mbedtls_cipher_auth_decrypt:olen <- [DW_OP_plus_uconst 80] [$sp+0]
	@DEBUG_VALUE: mbedtls_cipher_auth_decrypt:tag <- [DW_OP_plus_uconst 84] [$sp+0]
	@DEBUG_VALUE: mbedtls_cipher_auth_decrypt:tag_len <- [DW_OP_plus_uconst 88] [$sp+0]
	@DEBUG_VALUE: mbedtls_cipher_auth_decrypt:ctx <- [DW_OP_LLVM_entry_value 1] $r0
	.loc	1 0 13 is_stmt 0                @ ../../../ThirdParty/mbedTLS/library/cipher.c:0:13
	ldr	r0, __arm_cp.30_1
	@DEBUG_VALUE: ret <- $r0
.Ltmp519:
.LBB30_6:
	@DEBUG_VALUE: mbedtls_cipher_auth_decrypt:iv <- [DW_OP_plus_uconst 36] [$sp+0]
	@DEBUG_VALUE: mbedtls_cipher_auth_decrypt:iv_len <- [DW_OP_plus_uconst 40] [$sp+0]
	@DEBUG_VALUE: mbedtls_cipher_auth_decrypt:ad <- [DW_OP_plus_uconst 28] [$sp+0]
	@DEBUG_VALUE: mbedtls_cipher_auth_decrypt:ad_len <- [DW_OP_plus_uconst 64] [$sp+0]
	@DEBUG_VALUE: mbedtls_cipher_auth_decrypt:input <- [DW_OP_plus_uconst 68] [$sp+0]
	@DEBUG_VALUE: mbedtls_cipher_auth_decrypt:ilen <- [DW_OP_plus_uconst 72] [$sp+0]
	@DEBUG_VALUE: mbedtls_cipher_auth_decrypt:output <- [DW_OP_plus_uconst 76] [$sp+0]
	@DEBUG_VALUE: mbedtls_cipher_auth_decrypt:olen <- [DW_OP_plus_uconst 80] [$sp+0]
	@DEBUG_VALUE: mbedtls_cipher_auth_decrypt:tag <- [DW_OP_plus_uconst 84] [$sp+0]
	@DEBUG_VALUE: mbedtls_cipher_auth_decrypt:tag_len <- [DW_OP_plus_uconst 88] [$sp+0]
	@DEBUG_VALUE: mbedtls_cipher_auth_decrypt:ctx <- [DW_OP_LLVM_entry_value 1] $r0
	.loc	1 1501 1 is_stmt 1              @ ../../../ThirdParty/mbedTLS/library/cipher.c:1501:1
	add	sp, #44
.Ltmp520:
	pop	{r4, r5, r6, r7, pc}
.Ltmp521:
.LBB30_7:
	@DEBUG_VALUE: mbedtls_cipher_auth_decrypt:ctx <- $r0
	@DEBUG_VALUE: mbedtls_cipher_auth_decrypt:iv <- [DW_OP_plus_uconst 36] [$sp+0]
	@DEBUG_VALUE: mbedtls_cipher_auth_decrypt:iv_len <- [DW_OP_plus_uconst 40] [$sp+0]
	@DEBUG_VALUE: mbedtls_cipher_auth_decrypt:ad <- [DW_OP_plus_uconst 28] [$sp+0]
	@DEBUG_VALUE: mbedtls_cipher_auth_decrypt:ad_len <- [DW_OP_plus_uconst 64] [$sp+0]
	@DEBUG_VALUE: mbedtls_cipher_auth_decrypt:input <- [DW_OP_plus_uconst 68] [$sp+0]
	@DEBUG_VALUE: mbedtls_cipher_auth_decrypt:ilen <- [DW_OP_plus_uconst 72] [$sp+0]
	@DEBUG_VALUE: mbedtls_cipher_auth_decrypt:output <- [DW_OP_plus_uconst 76] [$sp+0]
	@DEBUG_VALUE: mbedtls_cipher_auth_decrypt:olen <- [DW_OP_plus_uconst 80] [$sp+0]
	@DEBUG_VALUE: mbedtls_cipher_auth_decrypt:tag <- [DW_OP_plus_uconst 84] [$sp+0]
	@DEBUG_VALUE: mbedtls_cipher_auth_decrypt:tag_len <- [DW_OP_plus_uconst 88] [$sp+0]
	.loc	1 0 1 is_stmt 0                 @ ../../../ThirdParty/mbedTLS/library/cipher.c:0:1
	ldr	r0, __arm_cp.30_0
.Ltmp522:
	@DEBUG_VALUE: mbedtls_cipher_auth_decrypt:ctx <- [DW_OP_LLVM_entry_value 1] $r0
	.loc	1 1501 1                        @ ../../../ThirdParty/mbedTLS/library/cipher.c:1501:1
	add	sp, #44
.Ltmp523:
	pop	{r4, r5, r6, r7, pc}
.Ltmp524:
	.p2align	2
@ %bb.8:
	.loc	1 0 1                           @ ../../../ThirdParty/mbedTLS/library/cipher.c:0:1
__arm_cp.30_0:
	.long	4294942592                      @ 0xffff9f80
.Lcpi_end38:
	.size	__arm_cp.30_0, .Lcpi_end38-__arm_cp.30_0
__arm_cp.30_1:
	.long	4294941952                      @ 0xffff9d00
.Lcpi_end39:
	.size	__arm_cp.30_1, .Lcpi_end39-__arm_cp.30_1
.Lfunc_end30:
	.size	mbedtls_cipher_auth_decrypt, .Lfunc_end30-mbedtls_cipher_auth_decrypt
	.cfi_endproc
	.cantunwind
	.fnend
                                        @ -- End function
	.type	supported_init,%object          @ @supported_init
	.section	.bss.supported_init,"aw",%nobits
	.p2align	2
supported_init:
	.byte	0                               @ 0x0
	.size	supported_init, 1

	.section	".note.GNU-stack","",%progbits
	.eabi_attribute	30, 1	@ Tag_ABI_optimization_goals
	.ARM_attribute	16, 1	@ Tag_AV_eba