	.text
	.syntax unified
	.eabi_attribute	67, "2.09"	@ Tag_conformance
	.cpu	cortex-m23
	.eabi_attribute	6, 16	@ Tag_CPU_arch
	.eabi_attribute	7, 77	@ Tag_CPU_arch_profile
	.eabi_attribute	8, 0	@ Tag_ARM_ISA_use
	.eabi_attribute	9, 3	@ Tag_THUMB_ISA_use
	.eabi_attribute	34, 0	@ Tag_CPU_unaligned_access
	.eabi_attribute	17, 1	@ Tag_ABI_PCS_GOT_use
	.eabi_attribute	20, 2	@ Tag_ABI_FP_denormal
	.eabi_attribute	21, 0	@ Tag_ABI_FP_exceptions
	.eabi_attribute	23, 1	@ Tag_ABI_FP_number_model
	.eabi_attribute	24, 1	@ Tag_ABI_align_needed
	.eabi_attribute	25, 1	@ Tag_ABI_align_preserved
	.eabi_attribute	38, 1	@ Tag_ABI_FP_16bit_format
	.eabi_attribute	18, 2	@ Tag_ABI_PCS_wchar_t
	.eabi_attribute	26, 1	@ Tag_ABI_enum_size
	.eabi_attribute	14, 0	@ Tag_ABI_PCS_R9_use
	.file	"cipher_wrap.c"
	.file	1 "C:\\Users\\shw26\\OneDrive\\Desktop\\2021\\2021-1\\\354\272\241\354\212\244\355\206\244\353\224\224\354\236\220\354\235\2702\\Nuvoton\\M2351_BSP_v3.00.004\\M2351Series_BSP_CMSIS_V3.00.004\\MyProject\\PulseMonitoring\\Secure" "../../../ThirdParty/mbedTLS/include/mbedtls/cipher.h"
	.file	2 "C:\\Users\\shw26\\OneDrive\\Desktop\\2021\\2021-1\\\354\272\241\354\212\244\355\206\244\353\224\224\354\236\220\354\235\2702\\Nuvoton\\M2351_BSP_v3.00.004\\M2351Series_BSP_CMSIS_V3.00.004\\MyProject\\PulseMonitoring\\Secure" "../../../ThirdParty/mbedTLS/include/mbedtls\\cipher_internal.h"
	.file	3 "C:\\" "Keil_v5\\ARM\\ARMCLANG\\Bin\\..\\include\\stddef.h"
	.file	4 "C:\\Users\\shw26\\OneDrive\\Desktop\\2021\\2021-1\\\354\272\241\354\212\244\355\206\244\353\224\224\354\236\220\354\235\2702\\Nuvoton\\M2351_BSP_v3.00.004\\M2351Series_BSP_CMSIS_V3.00.004\\MyProject\\PulseMonitoring\\Secure" "../../../ThirdParty/mbedTLS/library/cipher_wrap.c"
	.file	5 "C:\\Users\\shw26\\OneDrive\\Desktop\\2021\\2021-1\\\354\272\241\354\212\244\355\206\244\353\224\224\354\236\220\354\235\2702\\Nuvoton\\M2351_BSP_v3.00.004\\M2351Series_BSP_CMSIS_V3.00.004\\MyProject\\PulseMonitoring\\Secure" "../../../ThirdParty/mbedTLS/include/mbedtls\\aes.h"
	.file	6 "C:\\" "Keil_v5\\ARM\\ARMCLANG\\Bin\\..\\include\\stdint.h"
	.file	7 "C:\\Users\\shw26\\OneDrive\\Desktop\\2021\\2021-1\\\354\272\241\354\212\244\355\206\244\353\224\224\354\236\220\354\235\2702\\Nuvoton\\M2351_BSP_v3.00.004\\M2351Series_BSP_CMSIS_V3.00.004\\MyProject\\PulseMonitoring\\Secure" "../../../ThirdParty/mbedTLS/include/mbedtls\\gcm.h"
	.file	8 "C:\\Users\\shw26\\OneDrive\\Desktop\\2021\\2021-1\\\354\272\241\354\212\244\355\206\244\353\224\224\354\236\220\354\235\2702\\Nuvoton\\M2351_BSP_v3.00.004\\M2351Series_BSP_CMSIS_V3.00.004\\MyProject\\PulseMonitoring\\Secure" "../../../ThirdParty/mbedTLS/include/mbedtls\\ccm.h"
	.file	9 "C:\\Users\\shw26\\OneDrive\\Desktop\\2021\\2021-1\\\354\272\241\354\212\244\355\206\244\353\224\224\354\236\220\354\235\2702\\Nuvoton\\M2351_BSP_v3.00.004\\M2351Series_BSP_CMSIS_V3.00.004\\MyProject\\PulseMonitoring\\Secure" "../../../ThirdParty/mbedTLS/include/mbedtls\\arc4.h"
	.file	10 "C:\\Users\\shw26\\OneDrive\\Desktop\\2021\\2021-1\\\354\272\241\354\212\244\355\206\244\353\224\224\354\236\220\354\235\2702\\Nuvoton\\M2351_BSP_v3.00.004\\M2351Series_BSP_CMSIS_V3.00.004\\MyProject\\PulseMonitoring\\Secure" "../../../ThirdParty/mbedTLS/include/mbedtls\\blowfish.h"
	.file	11 "C:\\Users\\shw26\\OneDrive\\Desktop\\2021\\2021-1\\\354\272\241\354\212\244\355\206\244\353\224\224\354\236\220\354\235\2702\\Nuvoton\\M2351_BSP_v3.00.004\\M2351Series_BSP_CMSIS_V3.00.004\\MyProject\\PulseMonitoring\\Secure" "../../../ThirdParty/mbedTLS/include/mbedtls\\camellia.h"
	.file	12 "C:\\Users\\shw26\\OneDrive\\Desktop\\2021\\2021-1\\\354\272\241\354\212\244\355\206\244\353\224\224\354\236\220\354\235\2702\\Nuvoton\\M2351_BSP_v3.00.004\\M2351Series_BSP_CMSIS_V3.00.004\\MyProject\\PulseMonitoring\\Secure" "../../../ThirdParty/mbedTLS/include/mbedtls\\des.h"
	.section	.text.aes_crypt_ecb_wrap,"ax",%progbits
	.p2align	1                               @ -- Begin function aes_crypt_ecb_wrap
	.type	aes_crypt_ecb_wrap,%function
	.code	16                              @ @aes_crypt_ecb_wrap
	.thumb_func
aes_crypt_ecb_wrap:
.Lfunc_begin0:
	.loc	4 130 0                         @ ../../../ThirdParty/mbedTLS/library/cipher_wrap.c:130:0
	.fnstart
	.cfi_sections .debug_frame
	.cfi_startproc
@ %bb.0:
	@DEBUG_VALUE: aes_crypt_ecb_wrap:ctx <- $r0
	@DEBUG_VALUE: aes_crypt_ecb_wrap:ctx <- $r0
	@DEBUG_VALUE: aes_crypt_ecb_wrap:operation <- $r1
	@DEBUG_VALUE: aes_crypt_ecb_wrap:operation <- $r1
	@DEBUG_VALUE: aes_crypt_ecb_wrap:input <- $r2
	@DEBUG_VALUE: aes_crypt_ecb_wrap:input <- $r2
	@DEBUG_VALUE: aes_crypt_ecb_wrap:output <- $r3
	@DEBUG_VALUE: aes_crypt_ecb_wrap:output <- $r3
	@DEBUG_VALUE: aes_crypt_ecb_wrap:output <- $r3
	@DEBUG_VALUE: aes_crypt_ecb_wrap:input <- $r2
	@DEBUG_VALUE: aes_crypt_ecb_wrap:operation <- $r1
	@DEBUG_VALUE: aes_crypt_ecb_wrap:ctx <- $r0
	.save	{r7, lr}
	push	{r7, lr}
	.cfi_def_cfa_offset 8
	.cfi_offset lr, -4
	.cfi_offset r7, -8
.Ltmp0:
	.loc	4 131 12 prologue_end           @ ../../../ThirdParty/mbedTLS/library/cipher_wrap.c:131:12
	bl	mbedtls_aes_crypt_ecb
.Ltmp1:
	@DEBUG_VALUE: aes_crypt_ecb_wrap:output <- [DW_OP_LLVM_entry_value 1] $r3
	@DEBUG_VALUE: aes_crypt_ecb_wrap:input <- [DW_OP_LLVM_entry_value 1] $r2
	@DEBUG_VALUE: aes_crypt_ecb_wrap:operation <- [DW_OP_LLVM_entry_value 1] $r1
	@DEBUG_VALUE: aes_crypt_ecb_wrap:ctx <- [DW_OP_LLVM_entry_value 1] $r0
	.loc	4 131 5 is_stmt 0               @ ../../../ThirdParty/mbedTLS/library/cipher_wrap.c:131:5
	pop	{r7, pc}
.Ltmp2:
.Lfunc_end0:
	.size	aes_crypt_ecb_wrap, .Lfunc_end0-aes_crypt_ecb_wrap
	.cfi_endproc
	.cantunwind
	.fnend
                                        @ -- End function
	.section	.text.aes_crypt_cbc_wrap,"ax",%progbits
	.p2align	1                               @ -- Begin function aes_crypt_cbc_wrap
	.type	aes_crypt_cbc_wrap,%function
	.code	16                              @ @aes_crypt_cbc_wrap
	.thumb_func
aes_crypt_cbc_wrap:
.Lfunc_begin1:
	.loc	4 137 0 is_stmt 1               @ ../../../ThirdParty/mbedTLS/library/cipher_wrap.c:137:0
	.fnstart
	.cfi_startproc
@ %bb.0:
	@DEBUG_VALUE: aes_crypt_cbc_wrap:ctx <- $r0
	@DEBUG_VALUE: aes_crypt_cbc_wrap:ctx <- $r0
	@DEBUG_VALUE: aes_crypt_cbc_wrap:operation <- $r1
	@DEBUG_VALUE: aes_crypt_cbc_wrap:operation <- $r1
	@DEBUG_VALUE: aes_crypt_cbc_wrap:length <- $r2
	@DEBUG_VALUE: aes_crypt_cbc_wrap:length <- $r2
	@DEBUG_VALUE: aes_crypt_cbc_wrap:iv <- $r3
	@DEBUG_VALUE: aes_crypt_cbc_wrap:iv <- $r3
	.save	{r4, lr}
	push	{r4, lr}
	.cfi_def_cfa_offset 8
	.cfi_offset lr, -4
	.cfi_offset r4, -8
	.pad	#8
	sub	sp, #8
	.cfi_def_cfa_offset 16
.Ltmp3:
	@DEBUG_VALUE: aes_crypt_cbc_wrap:input <- [DW_OP_plus_uconst 16] [$sp+0]
	@DEBUG_VALUE: aes_crypt_cbc_wrap:output <- [DW_OP_plus_uconst 20] [$sp+0]
	ldr	r4, [sp, #20]
.Ltmp4:
	.loc	4 138 12 prologue_end           @ ../../../ThirdParty/mbedTLS/library/cipher_wrap.c:138:12
	str	r4, [sp, #4]
	ldr	r4, [sp, #16]
	str	r4, [sp]
	@DEBUG_VALUE: aes_crypt_cbc_wrap:iv <- $r3
	@DEBUG_VALUE: aes_crypt_cbc_wrap:length <- $r2
	@DEBUG_VALUE: aes_crypt_cbc_wrap:operation <- $r1
	@DEBUG_VALUE: aes_crypt_cbc_wrap:ctx <- $r0
	bl	mbedtls_aes_crypt_cbc
.Ltmp5:
	@DEBUG_VALUE: aes_crypt_cbc_wrap:iv <- [DW_OP_LLVM_entry_value 1] $r3
	@DEBUG_VALUE: aes_crypt_cbc_wrap:length <- [DW_OP_LLVM_entry_value 1] $r2
	@DEBUG_VALUE: aes_crypt_cbc_wrap:operation <- [DW_OP_LLVM_entry_value 1] $r1
	@DEBUG_VALUE: aes_crypt_cbc_wrap:ctx <- [DW_OP_LLVM_entry_value 1] $r0
	.loc	4 138 5 is_stmt 0               @ ../../../ThirdParty/mbedTLS/library/cipher_wrap.c:138:5
	add	sp, #8
.Ltmp6:
	pop	{r4, pc}
.Ltmp7:
.Lfunc_end1:
	.size	aes_crypt_cbc_wrap, .Lfunc_end1-aes_crypt_cbc_wrap
	.cfi_endproc
	.cantunwind
	.fnend
                                        @ -- End function
	.section	.text.aes_crypt_cfb128_wrap,"ax",%progbits
	.p2align	1                               @ -- Begin function aes_crypt_cfb128_wrap
	.type	aes_crypt_cfb128_wrap,%function
	.code	16                              @ @aes_crypt_cfb128_wrap
	.thumb_func
aes_crypt_cfb128_wrap:
.Lfunc_begin2:
	.loc	4 147 0 is_stmt 1               @ ../../../ThirdParty/mbedTLS/library/cipher_wrap.c:147:0
	.fnstart
	.cfi_startproc
@ %bb.0:
	@DEBUG_VALUE: aes_crypt_cfb128_wrap:ctx <- $r0
	@DEBUG_VALUE: aes_crypt_cfb128_wrap:ctx <- $r0
	@DEBUG_VALUE: aes_crypt_cfb128_wrap:operation <- $r1
	@DEBUG_VALUE: aes_crypt_cfb128_wrap:operation <- $r1
	@DEBUG_VALUE: aes_crypt_cfb128_wrap:length <- $r2
	@DEBUG_VALUE: aes_crypt_cfb128_wrap:length <- $r2
	@DEBUG_VALUE: aes_crypt_cfb128_wrap:iv_off <- $r3
	@DEBUG_VALUE: aes_crypt_cfb128_wrap:iv_off <- $r3
	.save	{r4, lr}
	push	{r4, lr}
	.cfi_def_cfa_offset 8
	.cfi_offset lr, -4
	.cfi_offset r4, -8
	.pad	#16
	sub	sp, #16
	.cfi_def_cfa_offset 24
.Ltmp8:
	@DEBUG_VALUE: aes_crypt_cfb128_wrap:iv <- [DW_OP_plus_uconst 24] [$sp+0]
	@DEBUG_VALUE: aes_crypt_cfb128_wrap:input <- [DW_OP_plus_uconst 28] [$sp+0]
	@DEBUG_VALUE: aes_crypt_cfb128_wrap:output <- [DW_OP_plus_uconst 32] [$sp+0]
	ldr	r4, [sp, #32]
.Ltmp9:
	.loc	4 148 12 prologue_end           @ ../../../ThirdParty/mbedTLS/library/cipher_wrap.c:148:12
	str	r4, [sp, #8]
	ldr	r4, [sp, #28]
	str	r4, [sp, #4]
	ldr	r4, [sp, #24]
	str	r4, [sp]
	@DEBUG_VALUE: aes_crypt_cfb128_wrap:iv_off <- $r3
	@DEBUG_VALUE: aes_crypt_cfb128_wrap:length <- $r2
	@DEBUG_VALUE: aes_crypt_cfb128_wrap:operation <- $r1
	@DEBUG_VALUE: aes_crypt_cfb128_wrap:ctx <- $r0
	bl	mbedtls_aes_crypt_cfb128
.Ltmp10:
	@DEBUG_VALUE: aes_crypt_cfb128_wrap:iv_off <- [DW_OP_LLVM_entry_value 1] $r3
	@DEBUG_VALUE: aes_crypt_cfb128_wrap:length <- [DW_OP_LLVM_entry_value 1] $r2
	@DEBUG_VALUE: aes_crypt_cfb128_wrap:operation <- [DW_OP_LLVM_entry_value 1] $r1
	@DEBUG_VALUE: aes_crypt_cfb128_wrap:ctx <- [DW_OP_LLVM_entry_value 1] $r0
	.loc	4 148 5 is_stmt 0               @ ../../../ThirdParty/mbedTLS/library/cipher_wrap.c:148:5
	add	sp, #16
.Ltmp11:
	pop	{r4, pc}
.Ltmp12:
.Lfunc_end2:
	.size	aes_crypt_cfb128_wrap, .Lfunc_end2-aes_crypt_cfb128_wrap
	.cfi_endproc
	.cantunwind
	.fnend
                                        @ -- End function
	.section	.text.aes_crypt_ctr_wrap,"ax",%progbits
	.p2align	1                               @ -- Begin function aes_crypt_ctr_wrap
	.type	aes_crypt_ctr_wrap,%function
	.code	16                              @ @aes_crypt_ctr_wrap
	.thumb_func
aes_crypt_ctr_wrap:
.Lfunc_begin3:
	.loc	4 166 0 is_stmt 1               @ ../../../ThirdParty/mbedTLS/library/cipher_wrap.c:166:0
	.fnstart
	.cfi_startproc
@ %bb.0:
	@DEBUG_VALUE: aes_crypt_ctr_wrap:ctx <- $r0
	@DEBUG_VALUE: aes_crypt_ctr_wrap:ctx <- $r0
	@DEBUG_VALUE: aes_crypt_ctr_wrap:length <- $r1
	@DEBUG_VALUE: aes_crypt_ctr_wrap:length <- $r1
	@DEBUG_VALUE: aes_crypt_ctr_wrap:nc_off <- $r2
	@DEBUG_VALUE: aes_crypt_ctr_wrap:nc_off <- $r2
	@DEBUG_VALUE: aes_crypt_ctr_wrap:nonce_counter <- $r3
	@DEBUG_VALUE: aes_crypt_ctr_wrap:nonce_counter <- $r3
	.save	{r4, lr}
	push	{r4, lr}
	.cfi_def_cfa_offset 8
	.cfi_offset lr, -4
	.cfi_offset r4, -8
	.pad	#16
	sub	sp, #16
	.cfi_def_cfa_offset 24
.Ltmp13:
	@DEBUG_VALUE: aes_crypt_ctr_wrap:stream_block <- [DW_OP_plus_uconst 24] [$sp+0]
	@DEBUG_VALUE: aes_crypt_ctr_wrap:input <- [DW_OP_plus_uconst 28] [$sp+0]
	@DEBUG_VALUE: aes_crypt_ctr_wrap:output <- [DW_OP_plus_uconst 32] [$sp+0]
	ldr	r4, [sp, #32]
.Ltmp14:
	.loc	4 167 12 prologue_end           @ ../../../ThirdParty/mbedTLS/library/cipher_wrap.c:167:12
	str	r4, [sp, #8]
	ldr	r4, [sp, #28]
	str	r4, [sp, #4]
	ldr	r4, [sp, #24]
	str	r4, [sp]
	@DEBUG_VALUE: aes_crypt_ctr_wrap:nonce_counter <- $r3
	@DEBUG_VALUE: aes_crypt_ctr_wrap:nc_off <- $r2
	@DEBUG_VALUE: aes_crypt_ctr_wrap:length <- $r1
	@DEBUG_VALUE: aes_crypt_ctr_wrap:ctx <- $r0
	bl	mbedtls_aes_crypt_ctr
.Ltmp15:
	@DEBUG_VALUE: aes_crypt_ctr_wrap:nonce_counter <- [DW_OP_LLVM_entry_value 1] $r3
	@DEBUG_VALUE: aes_crypt_ctr_wrap:nc_off <- [DW_OP_LLVM_entry_value 1] $r2
	@DEBUG_VALUE: aes_crypt_ctr_wrap:length <- [DW_OP_LLVM_entry_value 1] $r1
	@DEBUG_VALUE: aes_crypt_ctr_wrap:ctx <- [DW_OP_LLVM_entry_value 1] $r0
	.loc	4 167 5 is_stmt 0               @ ../../../ThirdParty/mbedTLS/library/cipher_wrap.c:167:5
	add	sp, #16
.Ltmp16:
	pop	{r4, pc}
.Ltmp17:
.Lfunc_end3:
	.size	aes_crypt_ctr_wrap, .Lfunc_end3-aes_crypt_ctr_wrap
	.cfi_endproc
	.cantunwind
	.fnend
                                        @ -- End function
	.section	.text.aes_setkey_enc_wrap,"ax",%progbits
	.p2align	1                               @ -- Begin function aes_setkey_enc_wrap
	.type	aes_setkey_enc_wrap,%function
	.code	16                              @ @aes_setkey_enc_wrap
	.thumb_func
aes_setkey_enc_wrap:
.Lfunc_begin4:
	.loc	4 207 0 is_stmt 1               @ ../../../ThirdParty/mbedTLS/library/cipher_wrap.c:207:0
	.fnstart
	.cfi_startproc
@ %bb.0:
	@DEBUG_VALUE: aes_setkey_enc_wrap:ctx <- $r0
	@DEBUG_VALUE: aes_setkey_enc_wrap:ctx <- $r0
	@DEBUG_VALUE: aes_setkey_enc_wrap:key <- $r1
	@DEBUG_VALUE: aes_setkey_enc_wrap:key <- $r1
	@DEBUG_VALUE: aes_setkey_enc_wrap:key_bitlen <- $r2
	@DEBUG_VALUE: aes_setkey_enc_wrap:key_bitlen <- $r2
	@DEBUG_VALUE: aes_setkey_enc_wrap:key_bitlen <- $r2
	@DEBUG_VALUE: aes_setkey_enc_wrap:key <- $r1
	@DEBUG_VALUE: aes_setkey_enc_wrap:ctx <- $r0
	.save	{r7, lr}
	push	{r7, lr}
	.cfi_def_cfa_offset 8
	.cfi_offset lr, -4
	.cfi_offset r7, -8
.Ltmp18:
	.loc	4 208 12 prologue_end           @ ../../../ThirdParty/mbedTLS/library/cipher_wrap.c:208:12
	bl	mbedtls_aes_setkey_enc
.Ltmp19:
	@DEBUG_VALUE: aes_setkey_enc_wrap:key_bitlen <- [DW_OP_LLVM_entry_value 1] $r2
	@DEBUG_VALUE: aes_setkey_enc_wrap:key <- [DW_OP_LLVM_entry_value 1] $r1
	@DEBUG_VALUE: aes_setkey_enc_wrap:ctx <- [DW_OP_LLVM_entry_value 1] $r0
	.loc	4 208 5 is_stmt 0               @ ../../../ThirdParty/mbedTLS/library/cipher_wrap.c:208:5
	pop	{r7, pc}
.Ltmp20:
.Lfunc_end4:
	.size	aes_setkey_enc_wrap, .Lfunc_end4-aes_setkey_enc_wrap
	.cfi_endproc
	.cantunwind
	.fnend
                                        @ -- End function
	.section	.text.aes_setkey_dec_wrap,"ax",%progbits
	.p2align	1                               @ -- Begin function aes_setkey_dec_wrap
	.type	aes_setkey_dec_wrap,%function
	.code	16                              @ @aes_setkey_dec_wrap
	.thumb_func
aes_setkey_dec_wrap:
.Lfunc_begin5:
	.loc	4 201 0 is_stmt 1               @ ../../../ThirdParty/mbedTLS/library/cipher_wrap.c:201:0
	.fnstart
	.cfi_startproc
@ %bb.0:
	@DEBUG_VALUE: aes_setkey_dec_wrap:ctx <- $r0
	@DEBUG_VALUE: aes_setkey_dec_wrap:ctx <- $r0
	@DEBUG_VALUE: aes_setkey_dec_wrap:key <- $r1
	@DEBUG_VALUE: aes_setkey_dec_wrap:key <- $r1
	@DEBUG_VALUE: aes_setkey_dec_wrap:key_bitlen <- $r2
	@DEBUG_VALUE: aes_setkey_dec_wrap:key_bitlen <- $r2
	@DEBUG_VALUE: aes_setkey_dec_wrap:key_bitlen <- $r2
	@DEBUG_VALUE: aes_setkey_dec_wrap:key <- $r1
	@DEBUG_VALUE: aes_setkey_dec_wrap:ctx <- $r0
	.save	{r7, lr}
	push	{r7, lr}
	.cfi_def_cfa_offset 8
	.cfi_offset lr, -4
	.cfi_offset r7, -8
.Ltmp21:
	.loc	4 202 12 prologue_end           @ ../../../ThirdParty/mbedTLS/library/cipher_wrap.c:202:12
	bl	mbedtls_aes_setkey_dec
.Ltmp22:
	@DEBUG_VALUE: aes_setkey_dec_wrap:key_bitlen <- [DW_OP_LLVM_entry_value 1] $r2
	@DEBUG_VALUE: aes_setkey_dec_wrap:key <- [DW_OP_LLVM_entry_value 1] $r1
	@DEBUG_VALUE: aes_setkey_dec_wrap:ctx <- [DW_OP_LLVM_entry_value 1] $r0
	.loc	4 202 5 is_stmt 0               @ ../../../ThirdParty/mbedTLS/library/cipher_wrap.c:202:5
	pop	{r7, pc}
.Ltmp23:
.Lfunc_end5:
	.size	aes_setkey_dec_wrap, .Lfunc_end5-aes_setkey_dec_wrap
	.cfi_endproc
	.cantunwind
	.fnend
                                        @ -- End function
	.section	.text.aes_ctx_alloc,"ax",%progbits
	.p2align	1                               @ -- Begin function aes_ctx_alloc
	.type	aes_ctx_alloc,%function
	.code	16                              @ @aes_ctx_alloc
	.thumb_func
aes_ctx_alloc:
.Lfunc_begin6:
	.loc	4 212 0 is_stmt 1               @ ../../../ThirdParty/mbedTLS/library/cipher_wrap.c:212:0
	.fnstart
	.cfi_startproc
@ %bb.0:
	.save	{r4, lr}
	push	{r4, lr}
	.cfi_def_cfa_offset 8
	.cfi_offset lr, -4
	.cfi_offset r4, -8
	movs	r0, #1
.Ltmp24:
	.loc	4 213 32 prologue_end           @ ../../../ThirdParty/mbedTLS/library/cipher_wrap.c:213:32
	movw	r1, #280
	bl	calloc
.Ltmp25:
	@DEBUG_VALUE: aes_ctx_alloc:aes <- $r0
	.loc	4 215 9                         @ ../../../ThirdParty/mbedTLS/library/cipher_wrap.c:215:9
	cbz	r0, .LBB6_2
.Ltmp26:
@ %bb.1:
	@DEBUG_VALUE: aes_ctx_alloc:aes <- $r0
	.loc	4 0 0 is_stmt 0                 @ ../../../ThirdParty/mbedTLS/library/cipher_wrap.c:0:0
	mov	r4, r0
.Ltmp27:
	@DEBUG_VALUE: aes_ctx_alloc:aes <- $r4
	@DEBUG_VALUE: aes_ctx_alloc:aes <- $r4
	.loc	4 218 5 is_stmt 1               @ ../../../ThirdParty/mbedTLS/library/cipher_wrap.c:218:5
	bl	mbedtls_aes_init
	.loc	4 221 1                         @ ../../../ThirdParty/mbedTLS/library/cipher_wrap.c:221:1
	mov	r0, r4
	pop	{r4, pc}
.Ltmp28:
.LBB6_2:
	@DEBUG_VALUE: aes_ctx_alloc:aes <- $r0
	.loc	4 0 1 is_stmt 0                 @ ../../../ThirdParty/mbedTLS/library/cipher_wrap.c:0:1
	movs	r0, #0
.Ltmp29:
	.loc	4 221 1                         @ ../../../ThirdParty/mbedTLS/library/cipher_wrap.c:221:1
	pop	{r4, pc}
.Ltmp30:
.Lfunc_end6:
	.size	aes_ctx_alloc, .Lfunc_end6-aes_ctx_alloc
	.cfi_endproc
	.cantunwind
	.fnend
                                        @ -- End function
	.section	.text.aes_ctx_free,"ax",%progbits
	.p2align	1                               @ -- Begin function aes_ctx_free
	.type	aes_ctx_free,%function
	.code	16                              @ @aes_ctx_free
	.thumb_func
aes_ctx_free:
.Lfunc_begin7:
	.loc	4 224 0 is_stmt 1               @ ../../../ThirdParty/mbedTLS/library/cipher_wrap.c:224:0
	.fnstart
	.cfi_startproc
@ %bb.0:
	@DEBUG_VALUE: aes_ctx_free:ctx <- $r0
	.save	{r4, lr}
	push	{r4, lr}
	.cfi_def_cfa_offset 8
	.cfi_offset lr, -4
	.cfi_offset r4, -8
	mov	r4, r0
.Ltmp31:
	@DEBUG_VALUE: aes_ctx_free:ctx <- $r4
	.loc	4 225 5 prologue_end            @ ../../../ThirdParty/mbedTLS/library/cipher_wrap.c:225:5
	bl	mbedtls_aes_free
	.loc	4 226 5                         @ ../../../ThirdParty/mbedTLS/library/cipher_wrap.c:226:5
	mov	r0, r4
	bl	free
	.loc	4 227 1                         @ ../../../ThirdParty/mbedTLS/library/cipher_wrap.c:227:1
	pop	{r4, pc}
.Ltmp32:
.Lfunc_end7:
	.size	aes_ctx_free, .Lfunc_end7-aes_ctx_free
	.cfi_endproc
	.cantunwind
	.fnend
                                        @ -- End function
	.section	.text.gcm_aes_setkey_wrap,"ax",%progbits
	.p2align	1                               @ -- Begin function gcm_aes_setkey_wrap
	.type	gcm_aes_setkey_wrap,%function
	.code	16                              @ @gcm_aes_setkey_wrap
	.thumb_func
gcm_aes_setkey_wrap:
.Lfunc_begin8:
	.loc	4 518 0                         @ ../../../ThirdParty/mbedTLS/library/cipher_wrap.c:518:0
	.fnstart
	.cfi_startproc
@ %bb.0:
	@DEBUG_VALUE: gcm_aes_setkey_wrap:ctx <- $r0
	@DEBUG_VALUE: gcm_aes_setkey_wrap:key <- $r1
	@DEBUG_VALUE: gcm_aes_setkey_wrap:key_bitlen <- $r2
	.save	{r7, lr}
	push	{r7, lr}
	.cfi_def_cfa_offset 8
	.cfi_offset lr, -4
	.cfi_offset r7, -8
	mov	r3, r2
	mov	r2, r1
.Ltmp33:
	@DEBUG_VALUE: gcm_aes_setkey_wrap:key_bitlen <- [DW_OP_LLVM_entry_value 1] $r2
	@DEBUG_VALUE: gcm_aes_setkey_wrap:key_bitlen <- $r3
	@DEBUG_VALUE: gcm_aes_setkey_wrap:key <- $r2
	@DEBUG_VALUE: gcm_aes_setkey_wrap:ctx <- $r0
	movs	r1, #2
	@DEBUG_VALUE: gcm_aes_setkey_wrap:key_bitlen <- $r3
	@DEBUG_VALUE: gcm_aes_setkey_wrap:key <- $r2
	@DEBUG_VALUE: gcm_aes_setkey_wrap:ctx <- $r0
.Ltmp34:
	.loc	4 519 12 prologue_end           @ ../../../ThirdParty/mbedTLS/library/cipher_wrap.c:519:12
	bl	mbedtls_gcm_setkey
.Ltmp35:
	@DEBUG_VALUE: gcm_aes_setkey_wrap:ctx <- [DW_OP_LLVM_entry_value 1] $r0
	.loc	4 519 5 is_stmt 0               @ ../../../ThirdParty/mbedTLS/library/cipher_wrap.c:519:5
	pop	{r7, pc}
.Ltmp36:
.Lfunc_end8:
	.size	gcm_aes_setkey_wrap, .Lfunc_end8-gcm_aes_setkey_wrap
	.cfi_endproc
	.cantunwind
	.fnend
                                        @ -- End function
	.section	.text.gcm_ctx_alloc,"ax",%progbits
	.p2align	1                               @ -- Begin function gcm_ctx_alloc
	.type	gcm_ctx_alloc,%function
	.code	16                              @ @gcm_ctx_alloc
	.thumb_func
gcm_ctx_alloc:
.Lfunc_begin9:
	.loc	4 91 0 is_stmt 1                @ ../../../ThirdParty/mbedTLS/library/cipher_wrap.c:91:0
	.fnstart
	.cfi_startproc
@ %bb.0:
	.save	{r4, lr}
	push	{r4, lr}
	.cfi_def_cfa_offset 8
	.cfi_offset lr, -4
	.cfi_offset r4, -8
	movs	r0, #1
.Ltmp37:
	.loc	4 92 17 prologue_end            @ ../../../ThirdParty/mbedTLS/library/cipher_wrap.c:92:17
	movw	r1, #392
	bl	calloc
	mov	r4, r0
.Ltmp38:
	@DEBUG_VALUE: gcm_ctx_alloc:ctx <- $r4
	.loc	4 94 9                          @ ../../../ThirdParty/mbedTLS/library/cipher_wrap.c:94:9
	cbz	r0, .LBB9_2
.Ltmp39:
@ %bb.1:
	@DEBUG_VALUE: gcm_ctx_alloc:ctx <- $r4
	.loc	4 95 9                          @ ../../../ThirdParty/mbedTLS/library/cipher_wrap.c:95:9
	mov	r0, r4
	bl	mbedtls_gcm_init
.Ltmp40:
.LBB9_2:
	@DEBUG_VALUE: gcm_ctx_alloc:ctx <- $r4
	.loc	4 97 5                          @ ../../../ThirdParty/mbedTLS/library/cipher_wrap.c:97:5
	mov	r0, r4
	pop	{r4, pc}
.Ltmp41:
.Lfunc_end9:
	.size	gcm_ctx_alloc, .Lfunc_end9-gcm_ctx_alloc
	.cfi_endproc
	.cantunwind
	.fnend
                                        @ -- End function
	.section	.text.gcm_ctx_free,"ax",%progbits
	.p2align	1                               @ -- Begin function gcm_ctx_free
	.type	gcm_ctx_free,%function
	.code	16                              @ @gcm_ctx_free
	.thumb_func
gcm_ctx_free:
.Lfunc_begin10:
	.loc	4 101 0                         @ ../../../ThirdParty/mbedTLS/library/cipher_wrap.c:101:0
	.fnstart
	.cfi_startproc
@ %bb.0:
	@DEBUG_VALUE: gcm_ctx_free:ctx <- $r0
	.save	{r4, lr}
	push	{r4, lr}
	.cfi_def_cfa_offset 8
	.cfi_offset lr, -4
	.cfi_offset r4, -8
	mov	r4, r0
.Ltmp42:
	@DEBUG_VALUE: gcm_ctx_free:ctx <- $r4
	.loc	4 102 5 prologue_end            @ ../../../ThirdParty/mbedTLS/library/cipher_wrap.c:102:5
	bl	mbedtls_gcm_free
	.loc	4 103 5                         @ ../../../ThirdParty/mbedTLS/library/cipher_wrap.c:103:5
	mov	r0, r4
	bl	free
	.loc	4 104 1                         @ ../../../ThirdParty/mbedTLS/library/cipher_wrap.c:104:1
	pop	{r4, pc}
.Ltmp43:
.Lfunc_end10:
	.size	gcm_ctx_free, .Lfunc_end10-gcm_ctx_free
	.cfi_endproc
	.cantunwind
	.fnend
                                        @ -- End function
	.section	.text.ccm_aes_setkey_wrap,"ax",%progbits
	.p2align	1                               @ -- Begin function ccm_aes_setkey_wrap
	.type	ccm_aes_setkey_wrap,%function
	.code	16                              @ @ccm_aes_setkey_wrap
	.thumb_func
ccm_aes_setkey_wrap:
.Lfunc_begin11:
	.loc	4 587 0                         @ ../../../ThirdParty/mbedTLS/library/cipher_wrap.c:587:0
	.fnstart
	.cfi_startproc
@ %bb.0:
	@DEBUG_VALUE: ccm_aes_setkey_wrap:ctx <- $r0
	@DEBUG_VALUE: ccm_aes_setkey_wrap:key <- $r1
	@DEBUG_VALUE: ccm_aes_setkey_wrap:key_bitlen <- $r2
	.save	{r7, lr}
	push	{r7, lr}
	.cfi_def_cfa_offset 8
	.cfi_offset lr, -4
	.cfi_offset r7, -8
	mov	r3, r2
	mov	r2, r1
.Ltmp44:
	@DEBUG_VALUE: ccm_aes_setkey_wrap:key_bitlen <- [DW_OP_LLVM_entry_value 1] $r2
	@DEBUG_VALUE: ccm_aes_setkey_wrap:key_bitlen <- $r3
	@DEBUG_VALUE: ccm_aes_setkey_wrap:key <- $r2
	@DEBUG_VALUE: ccm_aes_setkey_wrap:ctx <- $r0
	movs	r1, #2
	@DEBUG_VALUE: ccm_aes_setkey_wrap:key_bitlen <- $r3
	@DEBUG_VALUE: ccm_aes_setkey_wrap:key <- $r2
	@DEBUG_VALUE: ccm_aes_setkey_wrap:ctx <- $r0
.Ltmp45:
	.loc	4 588 12 prologue_end           @ ../../../ThirdParty/mbedTLS/library/cipher_wrap.c:588:12
	bl	mbedtls_ccm_setkey
.Ltmp46:
	@DEBUG_VALUE: ccm_aes_setkey_wrap:ctx <- [DW_OP_LLVM_entry_value 1] $r0
	.loc	4 588 5 is_stmt 0               @ ../../../ThirdParty/mbedTLS/library/cipher_wrap.c:588:5
	pop	{r7, pc}
.Ltmp47:
.Lfunc_end11:
	.size	ccm_aes_setkey_wrap, .Lfunc_end11-ccm_aes_setkey_wrap
	.cfi_endproc
	.cantunwind
	.fnend
                                        @ -- End function
	.section	.text.ccm_ctx_alloc,"ax",%progbits
	.p2align	1                               @ -- Begin function ccm_ctx_alloc
	.type	ccm_ctx_alloc,%function
	.code	16                              @ @ccm_ctx_alloc
	.thumb_func
ccm_ctx_alloc:
.Lfunc_begin12:
	.loc	4 110 0 is_stmt 1               @ ../../../ThirdParty/mbedTLS/library/cipher_wrap.c:110:0
	.fnstart
	.cfi_startproc
@ %bb.0:
	.save	{r4, lr}
	push	{r4, lr}
	.cfi_def_cfa_offset 8
	.cfi_offset lr, -4
	.cfi_offset r4, -8
	movs	r0, #1
	movs	r1, #64
.Ltmp48:
	.loc	4 111 17 prologue_end           @ ../../../ThirdParty/mbedTLS/library/cipher_wrap.c:111:17
	bl	calloc
	mov	r4, r0
.Ltmp49:
	@DEBUG_VALUE: ccm_ctx_alloc:ctx <- $r4
	.loc	4 113 9                         @ ../../../ThirdParty/mbedTLS/library/cipher_wrap.c:113:9
	cbz	r0, .LBB12_2
.Ltmp50:
@ %bb.1:
	@DEBUG_VALUE: ccm_ctx_alloc:ctx <- $r4
	.loc	4 114 9                         @ ../../../ThirdParty/mbedTLS/library/cipher_wrap.c:114:9
	mov	r0, r4
	bl	mbedtls_ccm_init
.Ltmp51:
.LBB12_2:
	@DEBUG_VALUE: ccm_ctx_alloc:ctx <- $r4
	.loc	4 116 5                         @ ../../../ThirdParty/mbedTLS/library/cipher_wrap.c:116:5
	mov	r0, r4
	pop	{r4, pc}
.Ltmp52:
.Lfunc_end12:
	.size	ccm_ctx_alloc, .Lfunc_end12-ccm_ctx_alloc
	.cfi_endproc
	.cantunwind
	.fnend
                                        @ -- End function
	.section	.text.ccm_ctx_free,"ax",%progbits
	.p2align	1                               @ -- Begin function ccm_ctx_free
	.type	ccm_ctx_free,%function
	.code	16                              @ @ccm_ctx_free
	.thumb_func
ccm_ctx_free:
.Lfunc_begin13:
	.loc	4 120 0                         @ ../../../ThirdParty/mbedTLS/library/cipher_wrap.c:120:0
	.fnstart
	.cfi_startproc
@ %bb.0:
	@DEBUG_VALUE: ccm_ctx_free:ctx <- $r0
	.save	{r4, lr}
	push	{r4, lr}
	.cfi_def_cfa_offset 8
	.cfi_offset lr, -4
	.cfi_offset r4, -8
	mov	r4, r0
.Ltmp53:
	@DEBUG_VALUE: ccm_ctx_free:ctx <- $r4
	.loc	4 121 5 prologue_end            @ ../../../ThirdParty/mbedTLS/library/cipher_wrap.c:121:5
	bl	mbedtls_ccm_free
	.loc	4 122 5                         @ ../../../ThirdParty/mbedTLS/library/cipher_wrap.c:122:5
	mov	r0, r4
	bl	free
	.loc	4 123 1                         @ ../../../ThirdParty/mbedTLS/library/cipher_wrap.c:123:1
	pop	{r4, pc}
.Ltmp54:
.Lfunc_end13:
	.size	ccm_ctx_free, .Lfunc_end13-ccm_ctx_free
	.cfi_endproc
	.cantunwind
	.fnend
                                        @ -- End function
	.section	.text.arc4_crypt_stream_wrap,"ax",%progbits
	.p2align	1                               @ -- Begin function arc4_crypt_stream_wrap
	.type	arc4_crypt_stream_wrap,%function
	.code	16                              @ @arc4_crypt_stream_wrap
	.thumb_func
arc4_crypt_stream_wrap:
.Lfunc_begin14:
	.loc	4 1824 0                        @ ../../../ThirdParty/mbedTLS/library/cipher_wrap.c:1824:0
	.fnstart
	.cfi_startproc
@ %bb.0:
	@DEBUG_VALUE: arc4_crypt_stream_wrap:ctx <- $r0
	@DEBUG_VALUE: arc4_crypt_stream_wrap:ctx <- $r0
	@DEBUG_VALUE: arc4_crypt_stream_wrap:length <- $r1
	@DEBUG_VALUE: arc4_crypt_stream_wrap:length <- $r1
	@DEBUG_VALUE: arc4_crypt_stream_wrap:input <- $r2
	@DEBUG_VALUE: arc4_crypt_stream_wrap:input <- $r2
	@DEBUG_VALUE: arc4_crypt_stream_wrap:output <- $r3
	@DEBUG_VALUE: arc4_crypt_stream_wrap:output <- $r3
	@DEBUG_VALUE: arc4_crypt_stream_wrap:output <- $r3
	@DEBUG_VALUE: arc4_crypt_stream_wrap:input <- $r2
	@DEBUG_VALUE: arc4_crypt_stream_wrap:length <- $r1
	@DEBUG_VALUE: arc4_crypt_stream_wrap:ctx <- $r0
	.save	{r7, lr}
	push	{r7, lr}
	.cfi_def_cfa_offset 8
	.cfi_offset lr, -4
	.cfi_offset r7, -8
.Ltmp55:
	.loc	4 1825 13 prologue_end          @ ../../../ThirdParty/mbedTLS/library/cipher_wrap.c:1825:13
	bl	mbedtls_arc4_crypt
.Ltmp56:
	@DEBUG_VALUE: arc4_crypt_stream_wrap:output <- [DW_OP_LLVM_entry_value 1] $r3
	@DEBUG_VALUE: arc4_crypt_stream_wrap:input <- [DW_OP_LLVM_entry_value 1] $r2
	@DEBUG_VALUE: arc4_crypt_stream_wrap:length <- [DW_OP_LLVM_entry_value 1] $r1
	@DEBUG_VALUE: arc4_crypt_stream_wrap:ctx <- [DW_OP_LLVM_entry_value 1] $r0
	.loc	4 1825 5 is_stmt 0              @ ../../../ThirdParty/mbedTLS/library/cipher_wrap.c:1825:5
	pop	{r7, pc}
.Ltmp57:
.Lfunc_end14:
	.size	arc4_crypt_stream_wrap, .Lfunc_end14-arc4_crypt_stream_wrap
	.cfi_endproc
	.cantunwind
	.fnend
                                        @ -- End function
	.section	.text.arc4_setkey_wrap,"ax",%progbits
	.p2align	2                               @ -- Begin function arc4_setkey_wrap
	.type	arc4_setkey_wrap,%function
	.code	16                              @ @arc4_setkey_wrap
	.thumb_func
arc4_setkey_wrap:
.Lfunc_begin15:
	.loc	4 1830 0 is_stmt 1              @ ../../../ThirdParty/mbedTLS/library/cipher_wrap.c:1830:0
	.fnstart
	.cfi_startproc
@ %bb.0:
	@DEBUG_VALUE: arc4_setkey_wrap:ctx <- $r0
	@DEBUG_VALUE: arc4_setkey_wrap:ctx <- $r0
	@DEBUG_VALUE: arc4_setkey_wrap:key <- $r1
	@DEBUG_VALUE: arc4_setkey_wrap:key <- $r1
	@DEBUG_VALUE: arc4_setkey_wrap:key_bitlen <- $r2
	@DEBUG_VALUE: arc4_setkey_wrap:key_bitlen <- $r2
	.save	{r7, lr}
	push	{r7, lr}
	.cfi_def_cfa_offset 8
	.cfi_offset lr, -4
	.cfi_offset r7, -8
.Ltmp58:
	.loc	4 1832 9 prologue_end           @ ../../../ThirdParty/mbedTLS/library/cipher_wrap.c:1832:9
	lsls	r3, r2, #29
	beq	.LBB15_2
.Ltmp59:
@ %bb.1:
	@DEBUG_VALUE: arc4_setkey_wrap:key_bitlen <- $r2
	@DEBUG_VALUE: arc4_setkey_wrap:key <- $r1
	@DEBUG_VALUE: arc4_setkey_wrap:ctx <- $r0
	.loc	4 0 9 is_stmt 0                 @ ../../../ThirdParty/mbedTLS/library/cipher_wrap.c:0:9
	ldr	r0, __arm_cp.15_0
.Ltmp60:
	@DEBUG_VALUE: arc4_setkey_wrap:ctx <- [DW_OP_LLVM_entry_value 1] $r0
	.loc	4 1837 1 is_stmt 1              @ ../../../ThirdParty/mbedTLS/library/cipher_wrap.c:1837:1
	pop	{r7, pc}
.Ltmp61:
.LBB15_2:
	@DEBUG_VALUE: arc4_setkey_wrap:key_bitlen <- $r2
	@DEBUG_VALUE: arc4_setkey_wrap:key <- $r1
	@DEBUG_VALUE: arc4_setkey_wrap:ctx <- $r0
	.loc	4 1835 71                       @ ../../../ThirdParty/mbedTLS/library/cipher_wrap.c:1835:71
	lsrs	r2, r2, #3
.Ltmp62:
	@DEBUG_VALUE: arc4_setkey_wrap:key_bitlen <- [DW_OP_LLVM_entry_value 1] $r2
	.loc	4 1835 5 is_stmt 0              @ ../../../ThirdParty/mbedTLS/library/cipher_wrap.c:1835:5
	bl	mbedtls_arc4_setup
.Ltmp63:
	@DEBUG_VALUE: arc4_setkey_wrap:key <- [DW_OP_LLVM_entry_value 1] $r1
	@DEBUG_VALUE: arc4_setkey_wrap:ctx <- [DW_OP_LLVM_entry_value 1] $r0
	.loc	4 0 5                           @ ../../../ThirdParty/mbedTLS/library/cipher_wrap.c:0:5
	movs	r0, #0
	.loc	4 1837 1 is_stmt 1              @ ../../../ThirdParty/mbedTLS/library/cipher_wrap.c:1837:1
	pop	{r7, pc}
.Ltmp64:
	.p2align	2
@ %bb.3:
	.loc	4 0 1 is_stmt 0                 @ ../../../ThirdParty/mbedTLS/library/cipher_wrap.c:0:1
__arm_cp.15_0:
	.long	4294942464                      @ 0xffff9f00
.Lcpi_end0:
	.size	__arm_cp.15_0, .Lcpi_end0-__arm_cp.15_0
.Lfunc_end15:
	.size	arc4_setkey_wrap, .Lfunc_end15-arc4_setkey_wrap
	.cfi_endproc
	.cantunwind
	.fnend
                                        @ -- End function
	.section	.text.arc4_ctx_alloc,"ax",%progbits
	.p2align	1                               @ -- Begin function arc4_ctx_alloc
	.type	arc4_ctx_alloc,%function
	.code	16                              @ @arc4_ctx_alloc
	.thumb_func
arc4_ctx_alloc:
.Lfunc_begin16:
	.loc	4 1840 0 is_stmt 1              @ ../../../ThirdParty/mbedTLS/library/cipher_wrap.c:1840:0
	.fnstart
	.cfi_startproc
@ %bb.0:
	.save	{r4, lr}
	push	{r4, lr}
	.cfi_def_cfa_offset 8
	.cfi_offset lr, -4
	.cfi_offset r4, -8
	movs	r0, #1
.Ltmp65:
	.loc	4 1842 11 prologue_end          @ ../../../ThirdParty/mbedTLS/library/cipher_wrap.c:1842:11
	movw	r1, #264
	bl	calloc
.Ltmp66:
	@DEBUG_VALUE: arc4_ctx_alloc:ctx <- $r0
	.loc	4 1844 9                        @ ../../../ThirdParty/mbedTLS/library/cipher_wrap.c:1844:9
	cbz	r0, .LBB16_2
.Ltmp67:
@ %bb.1:
	@DEBUG_VALUE: arc4_ctx_alloc:ctx <- $r0
	.loc	4 0 0 is_stmt 0                 @ ../../../ThirdParty/mbedTLS/library/cipher_wrap.c:0:0
	mov	r4, r0
.Ltmp68:
	@DEBUG_VALUE: arc4_ctx_alloc:ctx <- $r4
	@DEBUG_VALUE: arc4_ctx_alloc:ctx <- $r4
	.loc	4 1847 5 is_stmt 1              @ ../../../ThirdParty/mbedTLS/library/cipher_wrap.c:1847:5
	bl	mbedtls_arc4_init
	.loc	4 1850 1                        @ ../../../ThirdParty/mbedTLS/library/cipher_wrap.c:1850:1
	mov	r0, r4
	pop	{r4, pc}
.Ltmp69:
.LBB16_2:
	@DEBUG_VALUE: arc4_ctx_alloc:ctx <- $r0
	.loc	4 0 1 is_stmt 0                 @ ../../../ThirdParty/mbedTLS/library/cipher_wrap.c:0:1
	movs	r0, #0
.Ltmp70:
	.loc	4 1850 1                        @ ../../../ThirdParty/mbedTLS/library/cipher_wrap.c:1850:1
	pop	{r4, pc}
.Ltmp71:
.Lfunc_end16:
	.size	arc4_ctx_alloc, .Lfunc_end16-arc4_ctx_alloc
	.cfi_endproc
	.cantunwind
	.fnend
                                        @ -- End function
	.section	.text.arc4_ctx_free,"ax",%progbits
	.p2align	1                               @ -- Begin function arc4_ctx_free
	.type	arc4_ctx_free,%function
	.code	16                              @ @arc4_ctx_free
	.thumb_func
arc4_ctx_free:
.Lfunc_begin17:
	.loc	4 1853 0 is_stmt 1              @ ../../../ThirdParty/mbedTLS/library/cipher_wrap.c:1853:0
	.fnstart
	.cfi_startproc
@ %bb.0:
	@DEBUG_VALUE: arc4_ctx_free:ctx <- $r0
	.save	{r4, lr}
	push	{r4, lr}
	.cfi_def_cfa_offset 8
	.cfi_offset lr, -4
	.cfi_offset r4, -8
	mov	r4, r0
.Ltmp72:
	@DEBUG_VALUE: arc4_ctx_free:ctx <- $r4
	.loc	4 1854 5 prologue_end           @ ../../../ThirdParty/mbedTLS/library/cipher_wrap.c:1854:5
	bl	mbedtls_arc4_free
	.loc	4 1855 5                        @ ../../../ThirdParty/mbedTLS/library/cipher_wrap.c:1855:5
	mov	r0, r4
	bl	free
	.loc	4 1856 1                        @ ../../../ThirdParty/mbedTLS/library/cipher_wrap.c:1856:1
	pop	{r4, pc}
.Ltmp73:
.Lfunc_end17:
	.size	arc4_ctx_free, .Lfunc_end17-arc4_ctx_free
	.cfi_endproc
	.cantunwind
	.fnend
                                        @ -- End function
	.section	.text.blowfish_crypt_ecb_wrap,"ax",%progbits
	.p2align	1                               @ -- Begin function blowfish_crypt_ecb_wrap
	.type	blowfish_crypt_ecb_wrap,%function
	.code	16                              @ @blowfish_crypt_ecb_wrap
	.thumb_func
blowfish_crypt_ecb_wrap:
.Lfunc_begin18:
	.loc	4 1682 0                        @ ../../../ThirdParty/mbedTLS/library/cipher_wrap.c:1682:0
	.fnstart
	.cfi_startproc
@ %bb.0:
	@DEBUG_VALUE: blowfish_crypt_ecb_wrap:ctx <- $r0
	@DEBUG_VALUE: blowfish_crypt_ecb_wrap:ctx <- $r0
	@DEBUG_VALUE: blowfish_crypt_ecb_wrap:operation <- $r1
	@DEBUG_VALUE: blowfish_crypt_ecb_wrap:operation <- $r1
	@DEBUG_VALUE: blowfish_crypt_ecb_wrap:input <- $r2
	@DEBUG_VALUE: blowfish_crypt_ecb_wrap:input <- $r2
	@DEBUG_VALUE: blowfish_crypt_ecb_wrap:output <- $r3
	@DEBUG_VALUE: blowfish_crypt_ecb_wrap:output <- $r3
	@DEBUG_VALUE: blowfish_crypt_ecb_wrap:output <- $r3
	@DEBUG_VALUE: blowfish_crypt_ecb_wrap:input <- $r2
	@DEBUG_VALUE: blowfish_crypt_ecb_wrap:operation <- $r1
	@DEBUG_VALUE: blowfish_crypt_ecb_wrap:ctx <- $r0
	.save	{r7, lr}
	push	{r7, lr}
	.cfi_def_cfa_offset 8
	.cfi_offset lr, -4
	.cfi_offset r7, -8
.Ltmp74:
	.loc	4 1683 12 prologue_end          @ ../../../ThirdParty/mbedTLS/library/cipher_wrap.c:1683:12
	bl	mbedtls_blowfish_crypt_ecb
.Ltmp75:
	@DEBUG_VALUE: blowfish_crypt_ecb_wrap:output <- [DW_OP_LLVM_entry_value 1] $r3
	@DEBUG_VALUE: blowfish_crypt_ecb_wrap:input <- [DW_OP_LLVM_entry_value 1] $r2
	@DEBUG_VALUE: blowfish_crypt_ecb_wrap:operation <- [DW_OP_LLVM_entry_value 1] $r1
	@DEBUG_VALUE: blowfish_crypt_ecb_wrap:ctx <- [DW_OP_LLVM_entry_value 1] $r0
	.loc	4 1683 5 is_stmt 0              @ ../../../ThirdParty/mbedTLS/library/cipher_wrap.c:1683:5
	pop	{r7, pc}
.Ltmp76:
.Lfunc_end18:
	.size	blowfish_crypt_ecb_wrap, .Lfunc_end18-blowfish_crypt_ecb_wrap
	.cfi_endproc
	.cantunwind
	.fnend
                                        @ -- End function
	.section	.text.blowfish_crypt_cbc_wrap,"ax",%progbits
	.p2align	1                               @ -- Begin function blowfish_crypt_cbc_wrap
	.type	blowfish_crypt_cbc_wrap,%function
	.code	16                              @ @blowfish_crypt_cbc_wrap
	.thumb_func
blowfish_crypt_cbc_wrap:
.Lfunc_begin19:
	.loc	4 1691 0 is_stmt 1              @ ../../../ThirdParty/mbedTLS/library/cipher_wrap.c:1691:0
	.fnstart
	.cfi_startproc
@ %bb.0:
	@DEBUG_VALUE: blowfish_crypt_cbc_wrap:ctx <- $r0
	@DEBUG_VALUE: blowfish_crypt_cbc_wrap:ctx <- $r0
	@DEBUG_VALUE: blowfish_crypt_cbc_wrap:operation <- $r1
	@DEBUG_VALUE: blowfish_crypt_cbc_wrap:operation <- $r1
	@DEBUG_VALUE: blowfish_crypt_cbc_wrap:length <- $r2
	@DEBUG_VALUE: blowfish_crypt_cbc_wrap:length <- $r2
	@DEBUG_VALUE: blowfish_crypt_cbc_wrap:iv <- $r3
	@DEBUG_VALUE: blowfish_crypt_cbc_wrap:iv <- $r3
	.save	{r4, lr}
	push	{r4, lr}
	.cfi_def_cfa_offset 8
	.cfi_offset lr, -4
	.cfi_offset r4, -8
	.pad	#8
	sub	sp, #8
	.cfi_def_cfa_offset 16
.Ltmp77:
	@DEBUG_VALUE: blowfish_crypt_cbc_wrap:input <- [DW_OP_plus_uconst 16] [$sp+0]
	@DEBUG_VALUE: blowfish_crypt_cbc_wrap:output <- [DW_OP_plus_uconst 20] [$sp+0]
	ldr	r4, [sp, #20]
.Ltmp78:
	.loc	4 1692 12 prologue_end          @ ../../../ThirdParty/mbedTLS/library/cipher_wrap.c:1692:12
	str	r4, [sp, #4]
	ldr	r4, [sp, #16]
	str	r4, [sp]
	@DEBUG_VALUE: blowfish_crypt_cbc_wrap:iv <- $r3
	@DEBUG_VALUE: blowfish_crypt_cbc_wrap:length <- $r2
	@DEBUG_VALUE: blowfish_crypt_cbc_wrap:operation <- $r1
	@DEBUG_VALUE: blowfish_crypt_cbc_wrap:ctx <- $r0
	bl	mbedtls_blowfish_crypt_cbc
.Ltmp79:
	@DEBUG_VALUE: blowfish_crypt_cbc_wrap:iv <- [DW_OP_LLVM_entry_value 1] $r3
	@DEBUG_VALUE: blowfish_crypt_cbc_wrap:length <- [DW_OP_LLVM_entry_value 1] $r2
	@DEBUG_VALUE: blowfish_crypt_cbc_wrap:operation <- [DW_OP_LLVM_entry_value 1] $r1
	@DEBUG_VALUE: blowfish_crypt_cbc_wrap:ctx <- [DW_OP_LLVM_entry_value 1] $r0
	.loc	4 1692 5 is_stmt 0              @ ../../../ThirdParty/mbedTLS/library/cipher_wrap.c:1692:5
	add	sp, #8
.Ltmp80:
	pop	{r4, pc}
.Ltmp81:
.Lfunc_end19:
	.size	blowfish_crypt_cbc_wrap, .Lfunc_end19-blowfish_crypt_cbc_wrap
	.cfi_endproc
	.cantunwind
	.fnend
                                        @ -- End function
	.section	.text.blowfish_crypt_cfb64_wrap,"ax",%progbits
	.p2align	1                               @ -- Begin function blowfish_crypt_cfb64_wrap
	.type	blowfish_crypt_cfb64_wrap,%function
	.code	16                              @ @blowfish_crypt_cfb64_wrap
	.thumb_func
blowfish_crypt_cfb64_wrap:
.Lfunc_begin20:
	.loc	4 1701 0 is_stmt 1              @ ../../../ThirdParty/mbedTLS/library/cipher_wrap.c:1701:0
	.fnstart
	.cfi_startproc
@ %bb.0:
	@DEBUG_VALUE: blowfish_crypt_cfb64_wrap:ctx <- $r0
	@DEBUG_VALUE: blowfish_crypt_cfb64_wrap:ctx <- $r0
	@DEBUG_VALUE: blowfish_crypt_cfb64_wrap:operation <- $r1
	@DEBUG_VALUE: blowfish_crypt_cfb64_wrap:operation <- $r1
	@DEBUG_VALUE: blowfish_crypt_cfb64_wrap:length <- $r2
	@DEBUG_VALUE: blowfish_crypt_cfb64_wrap:length <- $r2
	@DEBUG_VALUE: blowfish_crypt_cfb64_wrap:iv_off <- $r3
	@DEBUG_VALUE: blowfish_crypt_cfb64_wrap:iv_off <- $r3
	.save	{r4, lr}
	push	{r4, lr}
	.cfi_def_cfa_offset 8
	.cfi_offset lr, -4
	.cfi_offset r4, -8
	.pad	#16
	sub	sp, #16
	.cfi_def_cfa_offset 24
.Ltmp82:
	@DEBUG_VALUE: blowfish_crypt_cfb64_wrap:iv <- [DW_OP_plus_uconst 24] [$sp+0]
	@DEBUG_VALUE: blowfish_crypt_cfb64_wrap:input <- [DW_OP_plus_uconst 28] [$sp+0]
	@DEBUG_VALUE: blowfish_crypt_cfb64_wrap:output <- [DW_OP_plus_uconst 32] [$sp+0]
	ldr	r4, [sp, #32]
.Ltmp83:
	.loc	4 1702 12 prologue_end          @ ../../../ThirdParty/mbedTLS/library/cipher_wrap.c:1702:12
	str	r4, [sp, #8]
	ldr	r4, [sp, #28]
	str	r4, [sp, #4]
	ldr	r4, [sp, #24]
	str	r4, [sp]
	@DEBUG_VALUE: blowfish_crypt_cfb64_wrap:iv_off <- $r3
	@DEBUG_VALUE: blowfish_crypt_cfb64_wrap:length <- $r2
	@DEBUG_VALUE: blowfish_crypt_cfb64_wrap:operation <- $r1
	@DEBUG_VALUE: blowfish_crypt_cfb64_wrap:ctx <- $r0
	bl	mbedtls_blowfish_crypt_cfb64
.Ltmp84:
	@DEBUG_VALUE: blowfish_crypt_cfb64_wrap:iv_off <- [DW_OP_LLVM_entry_value 1] $r3
	@DEBUG_VALUE: blowfish_crypt_cfb64_wrap:length <- [DW_OP_LLVM_entry_value 1] $r2
	@DEBUG_VALUE: blowfish_crypt_cfb64_wrap:operation <- [DW_OP_LLVM_entry_value 1] $r1
	@DEBUG_VALUE: blowfish_crypt_cfb64_wrap:ctx <- [DW_OP_LLVM_entry_value 1] $r0
	.loc	4 1702 5 is_stmt 0              @ ../../../ThirdParty/mbedTLS/library/cipher_wrap.c:1702:5
	add	sp, #16
.Ltmp85:
	pop	{r4, pc}
.Ltmp86:
.Lfunc_end20:
	.size	blowfish_crypt_cfb64_wrap, .Lfunc_end20-blowfish_crypt_cfb64_wrap
	.cfi_endproc
	.cantunwind
	.fnend
                                        @ -- End function
	.section	.text.blowfish_crypt_ctr_wrap,"ax",%progbits
	.p2align	1                               @ -- Begin function blowfish_crypt_ctr_wrap
	.type	blowfish_crypt_ctr_wrap,%function
	.code	16                              @ @blowfish_crypt_ctr_wrap
	.thumb_func
blowfish_crypt_ctr_wrap:
.Lfunc_begin21:
	.loc	4 1711 0 is_stmt 1              @ ../../../ThirdParty/mbedTLS/library/cipher_wrap.c:1711:0
	.fnstart
	.cfi_startproc
@ %bb.0:
	@DEBUG_VALUE: blowfish_crypt_ctr_wrap:ctx <- $r0
	@DEBUG_VALUE: blowfish_crypt_ctr_wrap:ctx <- $r0
	@DEBUG_VALUE: blowfish_crypt_ctr_wrap:length <- $r1
	@DEBUG_VALUE: blowfish_crypt_ctr_wrap:length <- $r1
	@DEBUG_VALUE: blowfish_crypt_ctr_wrap:nc_off <- $r2
	@DEBUG_VALUE: blowfish_crypt_ctr_wrap:nc_off <- $r2
	@DEBUG_VALUE: blowfish_crypt_ctr_wrap:nonce_counter <- $r3
	@DEBUG_VALUE: blowfish_crypt_ctr_wrap:nonce_counter <- $r3
	.save	{r4, lr}
	push	{r4, lr}
	.cfi_def_cfa_offset 8
	.cfi_offset lr, -4
	.cfi_offset r4, -8
	.pad	#16
	sub	sp, #16
	.cfi_def_cfa_offset 24
.Ltmp87:
	@DEBUG_VALUE: blowfish_crypt_ctr_wrap:stream_block <- [DW_OP_plus_uconst 24] [$sp+0]
	@DEBUG_VALUE: blowfish_crypt_ctr_wrap:input <- [DW_OP_plus_uconst 28] [$sp+0]
	@DEBUG_VALUE: blowfish_crypt_ctr_wrap:output <- [DW_OP_plus_uconst 32] [$sp+0]
	ldr	r4, [sp, #32]
.Ltmp88:
	.loc	4 1712 12 prologue_end          @ ../../../ThirdParty/mbedTLS/library/cipher_wrap.c:1712:12
	str	r4, [sp, #8]
	ldr	r4, [sp, #28]
	str	r4, [sp, #4]
	ldr	r4, [sp, #24]
	str	r4, [sp]
	@DEBUG_VALUE: blowfish_crypt_ctr_wrap:nonce_counter <- $r3
	@DEBUG_VALUE: blowfish_crypt_ctr_wrap:nc_off <- $r2
	@DEBUG_VALUE: blowfish_crypt_ctr_wrap:length <- $r1
	@DEBUG_VALUE: blowfish_crypt_ctr_wrap:ctx <- $r0
	bl	mbedtls_blowfish_crypt_ctr
.Ltmp89:
	@DEBUG_VALUE: blowfish_crypt_ctr_wrap:nonce_counter <- [DW_OP_LLVM_entry_value 1] $r3
	@DEBUG_VALUE: blowfish_crypt_ctr_wrap:nc_off <- [DW_OP_LLVM_entry_value 1] $r2
	@DEBUG_VALUE: blowfish_crypt_ctr_wrap:length <- [DW_OP_LLVM_entry_value 1] $r1
	@DEBUG_VALUE: blowfish_crypt_ctr_wrap:ctx <- [DW_OP_LLVM_entry_value 1] $r0
	.loc	4 1712 5 is_stmt 0              @ ../../../ThirdParty/mbedTLS/library/cipher_wrap.c:1712:5
	add	sp, #16
.Ltmp90:
	pop	{r4, pc}
.Ltmp91:
.Lfunc_end21:
	.size	blowfish_crypt_ctr_wrap, .Lfunc_end21-blowfish_crypt_ctr_wrap
	.cfi_endproc
	.cantunwind
	.fnend
                                        @ -- End function
	.section	.text.blowfish_setkey_wrap,"ax",%progbits
	.p2align	1                               @ -- Begin function blowfish_setkey_wrap
	.type	blowfish_setkey_wrap,%function
	.code	16                              @ @blowfish_setkey_wrap
	.thumb_func
blowfish_setkey_wrap:
.Lfunc_begin22:
	.loc	4 1719 0 is_stmt 1              @ ../../../ThirdParty/mbedTLS/library/cipher_wrap.c:1719:0
	.fnstart
	.cfi_startproc
@ %bb.0:
	@DEBUG_VALUE: blowfish_setkey_wrap:ctx <- $r0
	@DEBUG_VALUE: blowfish_setkey_wrap:ctx <- $r0
	@DEBUG_VALUE: blowfish_setkey_wrap:key <- $r1
	@DEBUG_VALUE: blowfish_setkey_wrap:key <- $r1
	@DEBUG_VALUE: blowfish_setkey_wrap:key_bitlen <- $r2
	@DEBUG_VALUE: blowfish_setkey_wrap:key_bitlen <- $r2
	@DEBUG_VALUE: blowfish_setkey_wrap:key_bitlen <- $r2
	@DEBUG_VALUE: blowfish_setkey_wrap:key <- $r1
	@DEBUG_VALUE: blowfish_setkey_wrap:ctx <- $r0
	.save	{r7, lr}
	push	{r7, lr}
	.cfi_def_cfa_offset 8
	.cfi_offset lr, -4
	.cfi_offset r7, -8
.Ltmp92:
	.loc	4 1720 12 prologue_end          @ ../../../ThirdParty/mbedTLS/library/cipher_wrap.c:1720:12
	bl	mbedtls_blowfish_setkey
.Ltmp93:
	@DEBUG_VALUE: blowfish_setkey_wrap:key_bitlen <- [DW_OP_LLVM_entry_value 1] $r2
	@DEBUG_VALUE: blowfish_setkey_wrap:key <- [DW_OP_LLVM_entry_value 1] $r1
	@DEBUG_VALUE: blowfish_setkey_wrap:ctx <- [DW_OP_LLVM_entry_value 1] $r0
	.loc	4 1720 5 is_stmt 0              @ ../../../ThirdParty/mbedTLS/library/cipher_wrap.c:1720:5
	pop	{r7, pc}
.Ltmp94:
.Lfunc_end22:
	.size	blowfish_setkey_wrap, .Lfunc_end22-blowfish_setkey_wrap
	.cfi_endproc
	.cantunwind
	.fnend
                                        @ -- End function
	.section	.text.blowfish_ctx_alloc,"ax",%progbits
	.p2align	2                               @ -- Begin function blowfish_ctx_alloc
	.type	blowfish_ctx_alloc,%function
	.code	16                              @ @blowfish_ctx_alloc
	.thumb_func
blowfish_ctx_alloc:
.Lfunc_begin23:
	.loc	4 1724 0 is_stmt 1              @ ../../../ThirdParty/mbedTLS/library/cipher_wrap.c:1724:0
	.fnstart
	.cfi_startproc
@ %bb.0:
	.save	{r4, lr}
	push	{r4, lr}
	.cfi_def_cfa_offset 8
	.cfi_offset lr, -4
	.cfi_offset r4, -8
	movs	r0, #1
	ldr	r1, __arm_cp.23_0
.Ltmp95:
	.loc	4 1726 11 prologue_end          @ ../../../ThirdParty/mbedTLS/library/cipher_wrap.c:1726:11
	bl	calloc
.Ltmp96:
	@DEBUG_VALUE: blowfish_ctx_alloc:ctx <- $r0
	.loc	4 1728 9                        @ ../../../ThirdParty/mbedTLS/library/cipher_wrap.c:1728:9
	cbz	r0, .LBB23_2
.Ltmp97:
@ %bb.1:
	@DEBUG_VALUE: blowfish_ctx_alloc:ctx <- $r0
	.loc	4 0 0 is_stmt 0                 @ ../../../ThirdParty/mbedTLS/library/cipher_wrap.c:0:0
	mov	r4, r0
.Ltmp98:
	@DEBUG_VALUE: blowfish_ctx_alloc:ctx <- $r4
	@DEBUG_VALUE: blowfish_ctx_alloc:ctx <- $r4
	.loc	4 1731 5 is_stmt 1              @ ../../../ThirdParty/mbedTLS/library/cipher_wrap.c:1731:5
	bl	mbedtls_blowfish_init
	.loc	4 1734 1                        @ ../../../ThirdParty/mbedTLS/library/cipher_wrap.c:1734:1
	mov	r0, r4
	pop	{r4, pc}
.Ltmp99:
.LBB23_2:
	@DEBUG_VALUE: blowfish_ctx_alloc:ctx <- $r0
	.loc	4 0 1 is_stmt 0                 @ ../../../ThirdParty/mbedTLS/library/cipher_wrap.c:0:1
	movs	r0, #0
.Ltmp100:
	.loc	4 1734 1                        @ ../../../ThirdParty/mbedTLS/library/cipher_wrap.c:1734:1
	pop	{r4, pc}
.Ltmp101:
	.p2align	2
@ %bb.3:
	.loc	4 0 1                           @ ../../../ThirdParty/mbedTLS/library/cipher_wrap.c:0:1
__arm_cp.23_0:
	.long	4168                            @ 0x1048
.Lcpi_end1:
	.size	__arm_cp.23_0, .Lcpi_end1-__arm_cp.23_0
.Lfunc_end23:
	.size	blowfish_ctx_alloc, .Lfunc_end23-blowfish_ctx_alloc
	.cfi_endproc
	.cantunwind
	.fnend
                                        @ -- End function
	.section	.text.blowfish_ctx_free,"ax",%progbits
	.p2align	1                               @ -- Begin function blowfish_ctx_free
	.type	blowfish_ctx_free,%function
	.code	16                              @ @blowfish_ctx_free
	.thumb_func
blowfish_ctx_free:
.Lfunc_begin24:
	.loc	4 1737 0 is_stmt 1              @ ../../../ThirdParty/mbedTLS/library/cipher_wrap.c:1737:0
	.fnstart
	.cfi_startproc
@ %bb.0:
	@DEBUG_VALUE: blowfish_ctx_free:ctx <- $r0
	.save	{r4, lr}
	push	{r4, lr}
	.cfi_def_cfa_offset 8
	.cfi_offset lr, -4
	.cfi_offset r4, -8
	mov	r4, r0
.Ltmp102:
	@DEBUG_VALUE: blowfish_ctx_free:ctx <- $r4
	.loc	4 1738 5 prologue_end           @ ../../../ThirdParty/mbedTLS/library/cipher_wrap.c:1738:5
	bl	mbedtls_blowfish_free
	.loc	4 1739 5                        @ ../../../ThirdParty/mbedTLS/library/cipher_wrap.c:1739:5
	mov	r0, r4
	bl	free
	.loc	4 1740 1                        @ ../../../ThirdParty/mbedTLS/library/cipher_wrap.c:1740:1
	pop	{r4, pc}
.Ltmp103:
.Lfunc_end24:
	.size	blowfish_ctx_free, .Lfunc_end24-blowfish_ctx_free
	.cfi_endproc
	.cantunwind
	.fnend
                                        @ -- End function
	.section	.text.camellia_crypt_ecb_wrap,"ax",%progbits
	.p2align	1                               @ -- Begin function camellia_crypt_ecb_wrap
	.type	camellia_crypt_ecb_wrap,%function
	.code	16                              @ @camellia_crypt_ecb_wrap
	.thumb_func
camellia_crypt_ecb_wrap:
.Lfunc_begin25:
	.loc	4 659 0                         @ ../../../ThirdParty/mbedTLS/library/cipher_wrap.c:659:0
	.fnstart
	.cfi_startproc
@ %bb.0:
	@DEBUG_VALUE: camellia_crypt_ecb_wrap:ctx <- $r0
	@DEBUG_VALUE: camellia_crypt_ecb_wrap:ctx <- $r0
	@DEBUG_VALUE: camellia_crypt_ecb_wrap:operation <- $r1
	@DEBUG_VALUE: camellia_crypt_ecb_wrap:operation <- $r1
	@DEBUG_VALUE: camellia_crypt_ecb_wrap:input <- $r2
	@DEBUG_VALUE: camellia_crypt_ecb_wrap:input <- $r2
	@DEBUG_VALUE: camellia_crypt_ecb_wrap:output <- $r3
	@DEBUG_VALUE: camellia_crypt_ecb_wrap:output <- $r3
	@DEBUG_VALUE: camellia_crypt_ecb_wrap:output <- $r3
	@DEBUG_VALUE: camellia_crypt_ecb_wrap:input <- $r2
	@DEBUG_VALUE: camellia_crypt_ecb_wrap:operation <- $r1
	@DEBUG_VALUE: camellia_crypt_ecb_wrap:ctx <- $r0
	.save	{r7, lr}
	push	{r7, lr}
	.cfi_def_cfa_offset 8
	.cfi_offset lr, -4
	.cfi_offset r7, -8
.Ltmp104:
	.loc	4 660 12 prologue_end           @ ../../../ThirdParty/mbedTLS/library/cipher_wrap.c:660:12
	bl	mbedtls_camellia_crypt_ecb
.Ltmp105:
	@DEBUG_VALUE: camellia_crypt_ecb_wrap:output <- [DW_OP_LLVM_entry_value 1] $r3
	@DEBUG_VALUE: camellia_crypt_ecb_wrap:input <- [DW_OP_LLVM_entry_value 1] $r2
	@DEBUG_VALUE: camellia_crypt_ecb_wrap:operation <- [DW_OP_LLVM_entry_value 1] $r1
	@DEBUG_VALUE: camellia_crypt_ecb_wrap:ctx <- [DW_OP_LLVM_entry_value 1] $r0
	.loc	4 660 5 is_stmt 0               @ ../../../ThirdParty/mbedTLS/library/cipher_wrap.c:660:5
	pop	{r7, pc}
.Ltmp106:
.Lfunc_end25:
	.size	camellia_crypt_ecb_wrap, .Lfunc_end25-camellia_crypt_ecb_wrap
	.cfi_endproc
	.cantunwind
	.fnend
                                        @ -- End function
	.section	.text.camellia_crypt_cbc_wrap,"ax",%progbits
	.p2align	1                               @ -- Begin function camellia_crypt_cbc_wrap
	.type	camellia_crypt_cbc_wrap,%function
	.code	16                              @ @camellia_crypt_cbc_wrap
	.thumb_func
camellia_crypt_cbc_wrap:
.Lfunc_begin26:
	.loc	4 668 0 is_stmt 1               @ ../../../ThirdParty/mbedTLS/library/cipher_wrap.c:668:0
	.fnstart
	.cfi_startproc
@ %bb.0:
	@DEBUG_VALUE: camellia_crypt_cbc_wrap:ctx <- $r0
	@DEBUG_VALUE: camellia_crypt_cbc_wrap:ctx <- $r0
	@DEBUG_VALUE: camellia_crypt_cbc_wrap:operation <- $r1
	@DEBUG_VALUE: camellia_crypt_cbc_wrap:operation <- $r1
	@DEBUG_VALUE: camellia_crypt_cbc_wrap:length <- $r2
	@DEBUG_VALUE: camellia_crypt_cbc_wrap:length <- $r2
	@DEBUG_VALUE: camellia_crypt_cbc_wrap:iv <- $r3
	@DEBUG_VALUE: camellia_crypt_cbc_wrap:iv <- $r3
	.save	{r4, lr}
	push	{r4, lr}
	.cfi_def_cfa_offset 8
	.cfi_offset lr, -4
	.cfi_offset r4, -8
	.pad	#8
	sub	sp, #8
	.cfi_def_cfa_offset 16
.Ltmp107:
	@DEBUG_VALUE: camellia_crypt_cbc_wrap:input <- [DW_OP_plus_uconst 16] [$sp+0]
	@DEBUG_VALUE: camellia_crypt_cbc_wrap:output <- [DW_OP_plus_uconst 20] [$sp+0]
	ldr	r4, [sp, #20]
.Ltmp108:
	.loc	4 669 12 prologue_end           @ ../../../ThirdParty/mbedTLS/library/cipher_wrap.c:669:12
	str	r4, [sp, #4]
	ldr	r4, [sp, #16]
	str	r4, [sp]
	@DEBUG_VALUE: camellia_crypt_cbc_wrap:iv <- $r3
	@DEBUG_VALUE: camellia_crypt_cbc_wrap:length <- $r2
	@DEBUG_VALUE: camellia_crypt_cbc_wrap:operation <- $r1
	@DEBUG_VALUE: camellia_crypt_cbc_wrap:ctx <- $r0
	bl	mbedtls_camellia_crypt_cbc
.Ltmp109:
	@DEBUG_VALUE: camellia_crypt_cbc_wrap:iv <- [DW_OP_LLVM_entry_value 1] $r3
	@DEBUG_VALUE: camellia_crypt_cbc_wrap:length <- [DW_OP_LLVM_entry_value 1] $r2
	@DEBUG_VALUE: camellia_crypt_cbc_wrap:operation <- [DW_OP_LLVM_entry_value 1] $r1
	@DEBUG_VALUE: camellia_crypt_cbc_wrap:ctx <- [DW_OP_LLVM_entry_value 1] $r0
	.loc	4 669 5 is_stmt 0               @ ../../../ThirdParty/mbedTLS/library/cipher_wrap.c:669:5
	add	sp, #8
.Ltmp110:
	pop	{r4, pc}
.Ltmp111:
.Lfunc_end26:
	.size	camellia_crypt_cbc_wrap, .Lfunc_end26-camellia_crypt_cbc_wrap
	.cfi_endproc
	.cantunwind
	.fnend
                                        @ -- End function
	.section	.text.camellia_crypt_cfb128_wrap,"ax",%progbits
	.p2align	1                               @ -- Begin function camellia_crypt_cfb128_wrap
	.type	camellia_crypt_cfb128_wrap,%function
	.code	16                              @ @camellia_crypt_cfb128_wrap
	.thumb_func
camellia_crypt_cfb128_wrap:
.Lfunc_begin27:
	.loc	4 678 0 is_stmt 1               @ ../../../ThirdParty/mbedTLS/library/cipher_wrap.c:678:0
	.fnstart
	.cfi_startproc
@ %bb.0:
	@DEBUG_VALUE: camellia_crypt_cfb128_wrap:ctx <- $r0
	@DEBUG_VALUE: camellia_crypt_cfb128_wrap:ctx <- $r0
	@DEBUG_VALUE: camellia_crypt_cfb128_wrap:operation <- $r1
	@DEBUG_VALUE: camellia_crypt_cfb128_wrap:operation <- $r1
	@DEBUG_VALUE: camellia_crypt_cfb128_wrap:length <- $r2
	@DEBUG_VALUE: camellia_crypt_cfb128_wrap:length <- $r2
	@DEBUG_VALUE: camellia_crypt_cfb128_wrap:iv_off <- $r3
	@DEBUG_VALUE: camellia_crypt_cfb128_wrap:iv_off <- $r3
	.save	{r4, lr}
	push	{r4, lr}
	.cfi_def_cfa_offset 8
	.cfi_offset lr, -4
	.cfi_offset r4, -8
	.pad	#16
	sub	sp, #16
	.cfi_def_cfa_offset 24
.Ltmp112:
	@DEBUG_VALUE: camellia_crypt_cfb128_wrap:iv <- [DW_OP_plus_uconst 24] [$sp+0]
	@DEBUG_VALUE: camellia_crypt_cfb128_wrap:input <- [DW_OP_plus_uconst 28] [$sp+0]
	@DEBUG_VALUE: camellia_crypt_cfb128_wrap:output <- [DW_OP_plus_uconst 32] [$sp+0]
	ldr	r4, [sp, #32]
.Ltmp113:
	.loc	4 679 12 prologue_end           @ ../../../ThirdParty/mbedTLS/library/cipher_wrap.c:679:12
	str	r4, [sp, #8]
	ldr	r4, [sp, #28]
	str	r4, [sp, #4]
	ldr	r4, [sp, #24]
	str	r4, [sp]
	@DEBUG_VALUE: camellia_crypt_cfb128_wrap:iv_off <- $r3
	@DEBUG_VALUE: camellia_crypt_cfb128_wrap:length <- $r2
	@DEBUG_VALUE: camellia_crypt_cfb128_wrap:operation <- $r1
	@DEBUG_VALUE: camellia_crypt_cfb128_wrap:ctx <- $r0
	bl	mbedtls_camellia_crypt_cfb128
.Ltmp114:
	@DEBUG_VALUE: camellia_crypt_cfb128_wrap:iv_off <- [DW_OP_LLVM_entry_value 1] $r3
	@DEBUG_VALUE: camellia_crypt_cfb128_wrap:length <- [DW_OP_LLVM_entry_value 1] $r2
	@DEBUG_VALUE: camellia_crypt_cfb128_wrap:operation <- [DW_OP_LLVM_entry_value 1] $r1
	@DEBUG_VALUE: camellia_crypt_cfb128_wrap:ctx <- [DW_OP_LLVM_entry_value 1] $r0
	.loc	4 679 5 is_stmt 0               @ ../../../ThirdParty/mbedTLS/library/cipher_wrap.c:679:5
	add	sp, #16
.Ltmp115:
	pop	{r4, pc}
.Ltmp116:
.Lfunc_end27:
	.size	camellia_crypt_cfb128_wrap, .Lfunc_end27-camellia_crypt_cfb128_wrap
	.cfi_endproc
	.cantunwind
	.fnend
                                        @ -- End function
	.section	.text.camellia_crypt_ctr_wrap,"ax",%progbits
	.p2align	1                               @ -- Begin function camellia_crypt_ctr_wrap
	.type	camellia_crypt_ctr_wrap,%function
	.code	16                              @ @camellia_crypt_ctr_wrap
	.thumb_func
camellia_crypt_ctr_wrap:
.Lfunc_begin28:
	.loc	4 688 0 is_stmt 1               @ ../../../ThirdParty/mbedTLS/library/cipher_wrap.c:688:0
	.fnstart
	.cfi_startproc
@ %bb.0:
	@DEBUG_VALUE: camellia_crypt_ctr_wrap:ctx <- $r0
	@DEBUG_VALUE: camellia_crypt_ctr_wrap:ctx <- $r0
	@DEBUG_VALUE: camellia_crypt_ctr_wrap:length <- $r1
	@DEBUG_VALUE: camellia_crypt_ctr_wrap:length <- $r1
	@DEBUG_VALUE: camellia_crypt_ctr_wrap:nc_off <- $r2
	@DEBUG_VALUE: camellia_crypt_ctr_wrap:nc_off <- $r2
	@DEBUG_VALUE: camellia_crypt_ctr_wrap:nonce_counter <- $r3
	@DEBUG_VALUE: camellia_crypt_ctr_wrap:nonce_counter <- $r3
	.save	{r4, lr}
	push	{r4, lr}
	.cfi_def_cfa_offset 8
	.cfi_offset lr, -4
	.cfi_offset r4, -8
	.pad	#16
	sub	sp, #16
	.cfi_def_cfa_offset 24
.Ltmp117:
	@DEBUG_VALUE: camellia_crypt_ctr_wrap:stream_block <- [DW_OP_plus_uconst 24] [$sp+0]
	@DEBUG_VALUE: camellia_crypt_ctr_wrap:input <- [DW_OP_plus_uconst 28] [$sp+0]
	@DEBUG_VALUE: camellia_crypt_ctr_wrap:output <- [DW_OP_plus_uconst 32] [$sp+0]
	ldr	r4, [sp, #32]
.Ltmp118:
	.loc	4 689 12 prologue_end           @ ../../../ThirdParty/mbedTLS/library/cipher_wrap.c:689:12
	str	r4, [sp, #8]
	ldr	r4, [sp, #28]
	str	r4, [sp, #4]
	ldr	r4, [sp, #24]
	str	r4, [sp]
	@DEBUG_VALUE: camellia_crypt_ctr_wrap:nonce_counter <- $r3
	@DEBUG_VALUE: camellia_crypt_ctr_wrap:nc_off <- $r2
	@DEBUG_VALUE: camellia_crypt_ctr_wrap:length <- $r1
	@DEBUG_VALUE: camellia_crypt_ctr_wrap:ctx <- $r0
	bl	mbedtls_camellia_crypt_ctr
.Ltmp119:
	@DEBUG_VALUE: camellia_crypt_ctr_wrap:nonce_counter <- [DW_OP_LLVM_entry_value 1] $r3
	@DEBUG_VALUE: camellia_crypt_ctr_wrap:nc_off <- [DW_OP_LLVM_entry_value 1] $r2
	@DEBUG_VALUE: camellia_crypt_ctr_wrap:length <- [DW_OP_LLVM_entry_value 1] $r1
	@DEBUG_VALUE: camellia_crypt_ctr_wrap:ctx <- [DW_OP_LLVM_entry_value 1] $r0
	.loc	4 689 5 is_stmt 0               @ ../../../ThirdParty/mbedTLS/library/cipher_wrap.c:689:5
	add	sp, #16
.Ltmp120:
	pop	{r4, pc}
.Ltmp121:
.Lfunc_end28:
	.size	camellia_crypt_ctr_wrap, .Lfunc_end28-camellia_crypt_ctr_wrap
	.cfi_endproc
	.cantunwind
	.fnend
                                        @ -- End function
	.section	.text.camellia_setkey_enc_wrap,"ax",%progbits
	.p2align	1                               @ -- Begin function camellia_setkey_enc_wrap
	.type	camellia_setkey_enc_wrap,%function
	.code	16                              @ @camellia_setkey_enc_wrap
	.thumb_func
camellia_setkey_enc_wrap:
.Lfunc_begin29:
	.loc	4 702 0 is_stmt 1               @ ../../../ThirdParty/mbedTLS/library/cipher_wrap.c:702:0
	.fnstart
	.cfi_startproc
@ %bb.0:
	@DEBUG_VALUE: camellia_setkey_enc_wrap:ctx <- $r0
	@DEBUG_VALUE: camellia_setkey_enc_wrap:ctx <- $r0
	@DEBUG_VALUE: camellia_setkey_enc_wrap:key <- $r1
	@DEBUG_VALUE: camellia_setkey_enc_wrap:key <- $r1
	@DEBUG_VALUE: camellia_setkey_enc_wrap:key_bitlen <- $r2
	@DEBUG_VALUE: camellia_setkey_enc_wrap:key_bitlen <- $r2
	@DEBUG_VALUE: camellia_setkey_enc_wrap:key_bitlen <- $r2
	@DEBUG_VALUE: camellia_setkey_enc_wrap:key <- $r1
	@DEBUG_VALUE: camellia_setkey_enc_wrap:ctx <- $r0
	.save	{r7, lr}
	push	{r7, lr}
	.cfi_def_cfa_offset 8
	.cfi_offset lr, -4
	.cfi_offset r7, -8
.Ltmp122:
	.loc	4 703 12 prologue_end           @ ../../../ThirdParty/mbedTLS/library/cipher_wrap.c:703:12
	bl	mbedtls_camellia_setkey_enc
.Ltmp123:
	@DEBUG_VALUE: camellia_setkey_enc_wrap:key_bitlen <- [DW_OP_LLVM_entry_value 1] $r2
	@DEBUG_VALUE: camellia_setkey_enc_wrap:key <- [DW_OP_LLVM_entry_value 1] $r1
	@DEBUG_VALUE: camellia_setkey_enc_wrap:ctx <- [DW_OP_LLVM_entry_value 1] $r0
	.loc	4 703 5 is_stmt 0               @ ../../../ThirdParty/mbedTLS/library/cipher_wrap.c:703:5
	pop	{r7, pc}
.Ltmp124:
.Lfunc_end29:
	.size	camellia_setkey_enc_wrap, .Lfunc_end29-camellia_setkey_enc_wrap
	.cfi_endproc
	.cantunwind
	.fnend
                                        @ -- End function
	.section	.text.camellia_setkey_dec_wrap,"ax",%progbits
	.p2align	1                               @ -- Begin function camellia_setkey_dec_wrap
	.type	camellia_setkey_dec_wrap,%function
	.code	16                              @ @camellia_setkey_dec_wrap
	.thumb_func
camellia_setkey_dec_wrap:
.Lfunc_begin30:
	.loc	4 696 0 is_stmt 1               @ ../../../ThirdParty/mbedTLS/library/cipher_wrap.c:696:0
	.fnstart
	.cfi_startproc
@ %bb.0:
	@DEBUG_VALUE: camellia_setkey_dec_wrap:ctx <- $r0
	@DEBUG_VALUE: camellia_setkey_dec_wrap:ctx <- $r0
	@DEBUG_VALUE: camellia_setkey_dec_wrap:key <- $r1
	@DEBUG_VALUE: camellia_setkey_dec_wrap:key <- $r1
	@DEBUG_VALUE: camellia_setkey_dec_wrap:key_bitlen <- $r2
	@DEBUG_VALUE: camellia_setkey_dec_wrap:key_bitlen <- $r2
	@DEBUG_VALUE: camellia_setkey_dec_wrap:key_bitlen <- $r2
	@DEBUG_VALUE: camellia_setkey_dec_wrap:key <- $r1
	@DEBUG_VALUE: camellia_setkey_dec_wrap:ctx <- $r0
	.save	{r7, lr}
	push	{r7, lr}
	.cfi_def_cfa_offset 8
	.cfi_offset lr, -4
	.cfi_offset r7, -8
.Ltmp125:
	.loc	4 697 12 prologue_end           @ ../../../ThirdParty/mbedTLS/library/cipher_wrap.c:697:12
	bl	mbedtls_camellia_setkey_dec
.Ltmp126:
	@DEBUG_VALUE: camellia_setkey_dec_wrap:key_bitlen <- [DW_OP_LLVM_entry_value 1] $r2
	@DEBUG_VALUE: camellia_setkey_dec_wrap:key <- [DW_OP_LLVM_entry_value 1] $r1
	@DEBUG_VALUE: camellia_setkey_dec_wrap:ctx <- [DW_OP_LLVM_entry_value 1] $r0
	.loc	4 697 5 is_stmt 0               @ ../../../ThirdParty/mbedTLS/library/cipher_wrap.c:697:5
	pop	{r7, pc}
.Ltmp127:
.Lfunc_end30:
	.size	camellia_setkey_dec_wrap, .Lfunc_end30-camellia_setkey_dec_wrap
	.cfi_endproc
	.cantunwind
	.fnend
                                        @ -- End function
	.section	.text.camellia_ctx_alloc,"ax",%progbits
	.p2align	1                               @ -- Begin function camellia_ctx_alloc
	.type	camellia_ctx_alloc,%function
	.code	16                              @ @camellia_ctx_alloc
	.thumb_func
camellia_ctx_alloc:
.Lfunc_begin31:
	.loc	4 707 0 is_stmt 1               @ ../../../ThirdParty/mbedTLS/library/cipher_wrap.c:707:0
	.fnstart
	.cfi_startproc
@ %bb.0:
	.save	{r4, lr}
	push	{r4, lr}
	.cfi_def_cfa_offset 8
	.cfi_offset lr, -4
	.cfi_offset r4, -8
	movs	r0, #1
.Ltmp128:
	.loc	4 709 11 prologue_end           @ ../../../ThirdParty/mbedTLS/library/cipher_wrap.c:709:11
	movw	r1, #276
	bl	calloc
.Ltmp129:
	@DEBUG_VALUE: camellia_ctx_alloc:ctx <- $r0
	.loc	4 711 9                         @ ../../../ThirdParty/mbedTLS/library/cipher_wrap.c:711:9
	cbz	r0, .LBB31_2
.Ltmp130:
@ %bb.1:
	@DEBUG_VALUE: camellia_ctx_alloc:ctx <- $r0
	.loc	4 0 0 is_stmt 0                 @ ../../../ThirdParty/mbedTLS/library/cipher_wrap.c:0:0
	mov	r4, r0
.Ltmp131:
	@DEBUG_VALUE: camellia_ctx_alloc:ctx <- $r4
	@DEBUG_VALUE: camellia_ctx_alloc:ctx <- $r4
	.loc	4 714 5 is_stmt 1               @ ../../../ThirdParty/mbedTLS/library/cipher_wrap.c:714:5
	bl	mbedtls_camellia_init
	.loc	4 717 1                         @ ../../../ThirdParty/mbedTLS/library/cipher_wrap.c:717:1
	mov	r0, r4
	pop	{r4, pc}
.Ltmp132:
.LBB31_2:
	@DEBUG_VALUE: camellia_ctx_alloc:ctx <- $r0
	.loc	4 0 1 is_stmt 0                 @ ../../../ThirdParty/mbedTLS/library/cipher_wrap.c:0:1
	movs	r0, #0
.Ltmp133:
	.loc	4 717 1                         @ ../../../ThirdParty/mbedTLS/library/cipher_wrap.c:717:1
	pop	{r4, pc}
.Ltmp134:
.Lfunc_end31:
	.size	camellia_ctx_alloc, .Lfunc_end31-camellia_ctx_alloc
	.cfi_endproc
	.cantunwind
	.fnend
                                        @ -- End function
	.section	.text.camellia_ctx_free,"ax",%progbits
	.p2align	1                               @ -- Begin function camellia_ctx_free
	.type	camellia_ctx_free,%function
	.code	16                              @ @camellia_ctx_free
	.thumb_func
camellia_ctx_free:
.Lfunc_begin32:
	.loc	4 720 0 is_stmt 1               @ ../../../ThirdParty/mbedTLS/library/cipher_wrap.c:720:0
	.fnstart
	.cfi_startproc
@ %bb.0:
	@DEBUG_VALUE: camellia_ctx_free:ctx <- $r0
	.save	{r4, lr}
	push	{r4, lr}
	.cfi_def_cfa_offset 8
	.cfi_offset lr, -4
	.cfi_offset r4, -8
	mov	r4, r0
.Ltmp135:
	@DEBUG_VALUE: camellia_ctx_free:ctx <- $r4
	.loc	4 721 5 prologue_end            @ ../../../ThirdParty/mbedTLS/library/cipher_wrap.c:721:5
	bl	mbedtls_camellia_free
	.loc	4 722 5                         @ ../../../ThirdParty/mbedTLS/library/cipher_wrap.c:722:5
	mov	r0, r4
	bl	free
	.loc	4 723 1                         @ ../../../ThirdParty/mbedTLS/library/cipher_wrap.c:723:1
	pop	{r4, pc}
.Ltmp136:
.Lfunc_end32:
	.size	camellia_ctx_free, .Lfunc_end32-camellia_ctx_free
	.cfi_endproc
	.cantunwind
	.fnend
                                        @ -- End function
	.section	.text.gcm_camellia_setkey_wrap,"ax",%progbits
	.p2align	1                               @ -- Begin function gcm_camellia_setkey_wrap
	.type	gcm_camellia_setkey_wrap,%function
	.code	16                              @ @gcm_camellia_setkey_wrap
	.thumb_func
gcm_camellia_setkey_wrap:
.Lfunc_begin33:
	.loc	4 893 0                         @ ../../../ThirdParty/mbedTLS/library/cipher_wrap.c:893:0
	.fnstart
	.cfi_startproc
@ %bb.0:
	@DEBUG_VALUE: gcm_camellia_setkey_wrap:ctx <- $r0
	@DEBUG_VALUE: gcm_camellia_setkey_wrap:key <- $r1
	@DEBUG_VALUE: gcm_camellia_setkey_wrap:key_bitlen <- $r2
	.save	{r7, lr}
	push	{r7, lr}
	.cfi_def_cfa_offset 8
	.cfi_offset lr, -4
	.cfi_offset r7, -8
	mov	r3, r2
	mov	r2, r1
.Ltmp137:
	@DEBUG_VALUE: gcm_camellia_setkey_wrap:key_bitlen <- [DW_OP_LLVM_entry_value 1] $r2
	@DEBUG_VALUE: gcm_camellia_setkey_wrap:key_bitlen <- $r3
	@DEBUG_VALUE: gcm_camellia_setkey_wrap:key <- $r2
	@DEBUG_VALUE: gcm_camellia_setkey_wrap:ctx <- $r0
	movs	r1, #5
	@DEBUG_VALUE: gcm_camellia_setkey_wrap:key_bitlen <- $r3
	@DEBUG_VALUE: gcm_camellia_setkey_wrap:key <- $r2
	@DEBUG_VALUE: gcm_camellia_setkey_wrap:ctx <- $r0
.Ltmp138:
	.loc	4 894 12 prologue_end           @ ../../../ThirdParty/mbedTLS/library/cipher_wrap.c:894:12
	bl	mbedtls_gcm_setkey
.Ltmp139:
	@DEBUG_VALUE: gcm_camellia_setkey_wrap:ctx <- [DW_OP_LLVM_entry_value 1] $r0
	.loc	4 894 5 is_stmt 0               @ ../../../ThirdParty/mbedTLS/library/cipher_wrap.c:894:5
	pop	{r7, pc}
.Ltmp140:
.Lfunc_end33:
	.size	gcm_camellia_setkey_wrap, .Lfunc_end33-gcm_camellia_setkey_wrap
	.cfi_endproc
	.cantunwind
	.fnend
                                        @ -- End function
	.section	.text.ccm_camellia_setkey_wrap,"ax",%progbits
	.p2align	1                               @ -- Begin function ccm_camellia_setkey_wrap
	.type	ccm_camellia_setkey_wrap,%function
	.code	16                              @ @ccm_camellia_setkey_wrap
	.thumb_func
ccm_camellia_setkey_wrap:
.Lfunc_begin34:
	.loc	4 962 0 is_stmt 1               @ ../../../ThirdParty/mbedTLS/library/cipher_wrap.c:962:0
	.fnstart
	.cfi_startproc
@ %bb.0:
	@DEBUG_VALUE: ccm_camellia_setkey_wrap:ctx <- $r0
	@DEBUG_VALUE: ccm_camellia_setkey_wrap:key <- $r1
	@DEBUG_VALUE: ccm_camellia_setkey_wrap:key_bitlen <- $r2
	.save	{r7, lr}
	push	{r7, lr}
	.cfi_def_cfa_offset 8
	.cfi_offset lr, -4
	.cfi_offset r7, -8
	mov	r3, r2
	mov	r2, r1
.Ltmp141:
	@DEBUG_VALUE: ccm_camellia_setkey_wrap:key_bitlen <- [DW_OP_LLVM_entry_value 1] $r2
	@DEBUG_VALUE: ccm_camellia_setkey_wrap:key_bitlen <- $r3
	@DEBUG_VALUE: ccm_camellia_setkey_wrap:key <- $r2
	@DEBUG_VALUE: ccm_camellia_setkey_wrap:ctx <- $r0
	movs	r1, #5
	@DEBUG_VALUE: ccm_camellia_setkey_wrap:key_bitlen <- $r3
	@DEBUG_VALUE: ccm_camellia_setkey_wrap:key <- $r2
	@DEBUG_VALUE: ccm_camellia_setkey_wrap:ctx <- $r0
.Ltmp142:
	.loc	4 963 12 prologue_end           @ ../../../ThirdParty/mbedTLS/library/cipher_wrap.c:963:12
	bl	mbedtls_ccm_setkey
.Ltmp143:
	@DEBUG_VALUE: ccm_camellia_setkey_wrap:ctx <- [DW_OP_LLVM_entry_value 1] $r0
	.loc	4 963 5 is_stmt 0               @ ../../../ThirdParty/mbedTLS/library/cipher_wrap.c:963:5
	pop	{r7, pc}
.Ltmp144:
.Lfunc_end34:
	.size	ccm_camellia_setkey_wrap, .Lfunc_end34-ccm_camellia_setkey_wrap
	.cfi_endproc
	.cantunwind
	.fnend
                                        @ -- End function
	.section	.text.des_crypt_ecb_wrap,"ax",%progbits
	.p2align	1                               @ -- Begin function des_crypt_ecb_wrap
	.type	des_crypt_ecb_wrap,%function
	.code	16                              @ @des_crypt_ecb_wrap
	.thumb_func
des_crypt_ecb_wrap:
.Lfunc_begin35:
	.loc	4 1410 0 is_stmt 1              @ ../../../ThirdParty/mbedTLS/library/cipher_wrap.c:1410:0
	.fnstart
	.cfi_startproc
@ %bb.0:
	@DEBUG_VALUE: des_crypt_ecb_wrap:ctx <- $r0
	@DEBUG_VALUE: des_crypt_ecb_wrap:operation <- $r1
	@DEBUG_VALUE: des_crypt_ecb_wrap:input <- $r2
	@DEBUG_VALUE: des_crypt_ecb_wrap:output <- $r3
	.save	{r7, lr}
	push	{r7, lr}
	.cfi_def_cfa_offset 8
	.cfi_offset lr, -4
	.cfi_offset r7, -8
	mov	r1, r2
.Ltmp145:
	@DEBUG_VALUE: des_crypt_ecb_wrap:operation <- [DW_OP_LLVM_entry_value 1] $r1
	@DEBUG_VALUE: des_crypt_ecb_wrap:output <- $r3
	@DEBUG_VALUE: des_crypt_ecb_wrap:input <- $r1
	@DEBUG_VALUE: des_crypt_ecb_wrap:ctx <- $r0
	@DEBUG_VALUE: des_crypt_ecb_wrap:input <- $r1
	@DEBUG_VALUE: des_crypt_ecb_wrap:ctx <- $r0
	.loc	4 1412 12 prologue_end          @ ../../../ThirdParty/mbedTLS/library/cipher_wrap.c:1412:12
	mov	r2, r3
.Ltmp146:
	@DEBUG_VALUE: des_crypt_ecb_wrap:output <- $r2
	bl	mbedtls_des_crypt_ecb
.Ltmp147:
	@DEBUG_VALUE: des_crypt_ecb_wrap:ctx <- [DW_OP_LLVM_entry_value 1] $r0
	.loc	4 1412 5 is_stmt 0              @ ../../../ThirdParty/mbedTLS/library/cipher_wrap.c:1412:5
	pop	{r7, pc}
.Ltmp148:
.Lfunc_end35:
	.size	des_crypt_ecb_wrap, .Lfunc_end35-des_crypt_ecb_wrap
	.cfi_endproc
	.cantunwind
	.fnend
                                        @ -- End function
	.section	.text.des_crypt_cbc_wrap,"ax",%progbits
	.p2align	1                               @ -- Begin function des_crypt_cbc_wrap
	.type	des_crypt_cbc_wrap,%function
	.code	16                              @ @des_crypt_cbc_wrap
	.thumb_func
des_crypt_cbc_wrap:
.Lfunc_begin36:
	.loc	4 1425 0 is_stmt 1              @ ../../../ThirdParty/mbedTLS/library/cipher_wrap.c:1425:0
	.fnstart
	.cfi_startproc
@ %bb.0:
	@DEBUG_VALUE: des_crypt_cbc_wrap:ctx <- $r0
	@DEBUG_VALUE: des_crypt_cbc_wrap:ctx <- $r0
	@DEBUG_VALUE: des_crypt_cbc_wrap:operation <- $r1
	@DEBUG_VALUE: des_crypt_cbc_wrap:operation <- $r1
	@DEBUG_VALUE: des_crypt_cbc_wrap:length <- $r2
	@DEBUG_VALUE: des_crypt_cbc_wrap:length <- $r2
	@DEBUG_VALUE: des_crypt_cbc_wrap:iv <- $r3
	@DEBUG_VALUE: des_crypt_cbc_wrap:iv <- $r3
	.save	{r4, lr}
	push	{r4, lr}
	.cfi_def_cfa_offset 8
	.cfi_offset lr, -4
	.cfi_offset r4, -8
	.pad	#8
	sub	sp, #8
	.cfi_def_cfa_offset 16
.Ltmp149:
	@DEBUG_VALUE: des_crypt_cbc_wrap:input <- [DW_OP_plus_uconst 16] [$sp+0]
	@DEBUG_VALUE: des_crypt_cbc_wrap:output <- [DW_OP_plus_uconst 20] [$sp+0]
	ldr	r4, [sp, #20]
.Ltmp150:
	.loc	4 1426 12 prologue_end          @ ../../../ThirdParty/mbedTLS/library/cipher_wrap.c:1426:12
	str	r4, [sp, #4]
	ldr	r4, [sp, #16]
	str	r4, [sp]
	@DEBUG_VALUE: des_crypt_cbc_wrap:iv <- $r3
	@DEBUG_VALUE: des_crypt_cbc_wrap:length <- $r2
	@DEBUG_VALUE: des_crypt_cbc_wrap:operation <- $r1
	@DEBUG_VALUE: des_crypt_cbc_wrap:ctx <- $r0
	bl	mbedtls_des_crypt_cbc
.Ltmp151:
	@DEBUG_VALUE: des_crypt_cbc_wrap:iv <- [DW_OP_LLVM_entry_value 1] $r3
	@DEBUG_VALUE: des_crypt_cbc_wrap:length <- [DW_OP_LLVM_entry_value 1] $r2
	@DEBUG_VALUE: des_crypt_cbc_wrap:operation <- [DW_OP_LLVM_entry_value 1] $r1
	@DEBUG_VALUE: des_crypt_cbc_wrap:ctx <- [DW_OP_LLVM_entry_value 1] $r0
	.loc	4 1426 5 is_stmt 0              @ ../../../ThirdParty/mbedTLS/library/cipher_wrap.c:1426:5
	add	sp, #8
.Ltmp152:
	pop	{r4, pc}
.Ltmp153:
.Lfunc_end36:
	.size	des_crypt_cbc_wrap, .Lfunc_end36-des_crypt_cbc_wrap
	.cfi_endproc
	.cantunwind
	.fnend
                                        @ -- End function
	.section	.text.des_setkey_enc_wrap,"ax",%progbits
	.p2align	1                               @ -- Begin function des_setkey_enc_wrap
	.type	des_setkey_enc_wrap,%function
	.code	16                              @ @des_setkey_enc_wrap
	.thumb_func
des_setkey_enc_wrap:
.Lfunc_begin37:
	.loc	4 1450 0 is_stmt 1              @ ../../../ThirdParty/mbedTLS/library/cipher_wrap.c:1450:0
	.fnstart
	.cfi_startproc
@ %bb.0:
	@DEBUG_VALUE: des_setkey_enc_wrap:ctx <- $r0
	@DEBUG_VALUE: des_setkey_enc_wrap:ctx <- $r0
	@DEBUG_VALUE: des_setkey_enc_wrap:key <- $r1
	@DEBUG_VALUE: des_setkey_enc_wrap:key <- $r1
	@DEBUG_VALUE: des_setkey_enc_wrap:key_bitlen <- $r2
	@DEBUG_VALUE: des_setkey_enc_wrap:key <- $r1
	@DEBUG_VALUE: des_setkey_enc_wrap:ctx <- $r0
	.save	{r7, lr}
	push	{r7, lr}
	.cfi_def_cfa_offset 8
	.cfi_offset lr, -4
	.cfi_offset r7, -8
.Ltmp154:
	.loc	4 1453 12 prologue_end          @ ../../../ThirdParty/mbedTLS/library/cipher_wrap.c:1453:12
	bl	mbedtls_des_setkey_enc
.Ltmp155:
	@DEBUG_VALUE: des_setkey_enc_wrap:key_bitlen <- [DW_OP_LLVM_entry_value 1] $r2
	@DEBUG_VALUE: des_setkey_enc_wrap:key <- [DW_OP_LLVM_entry_value 1] $r1
	@DEBUG_VALUE: des_setkey_enc_wrap:ctx <- [DW_OP_LLVM_entry_value 1] $r0
	.loc	4 1453 5 is_stmt 0              @ ../../../ThirdParty/mbedTLS/library/cipher_wrap.c:1453:5
	pop	{r7, pc}
.Ltmp156:
.Lfunc_end37:
	.size	des_setkey_enc_wrap, .Lfunc_end37-des_setkey_enc_wrap
	.cfi_endproc
	.cantunwind
	.fnend
                                        @ -- End function
	.section	.text.des_setkey_dec_wrap,"ax",%progbits
	.p2align	1                               @ -- Begin function des_setkey_dec_wrap
	.type	des_setkey_dec_wrap,%function
	.code	16                              @ @des_setkey_dec_wrap
	.thumb_func
des_setkey_dec_wrap:
.Lfunc_begin38:
	.loc	4 1442 0 is_stmt 1              @ ../../../ThirdParty/mbedTLS/library/cipher_wrap.c:1442:0
	.fnstart
	.cfi_startproc
@ %bb.0:
	@DEBUG_VALUE: des_setkey_dec_wrap:ctx <- $r0
	@DEBUG_VALUE: des_setkey_dec_wrap:ctx <- $r0
	@DEBUG_VALUE: des_setkey_dec_wrap:key <- $r1
	@DEBUG_VALUE: des_setkey_dec_wrap:key <- $r1
	@DEBUG_VALUE: des_setkey_dec_wrap:key_bitlen <- $r2
	@DEBUG_VALUE: des_setkey_dec_wrap:key <- $r1
	@DEBUG_VALUE: des_setkey_dec_wrap:ctx <- $r0
	.save	{r7, lr}
	push	{r7, lr}
	.cfi_def_cfa_offset 8
	.cfi_offset lr, -4
	.cfi_offset r7, -8
.Ltmp157:
	.loc	4 1445 12 prologue_end          @ ../../../ThirdParty/mbedTLS/library/cipher_wrap.c:1445:12
	bl	mbedtls_des_setkey_dec
.Ltmp158:
	@DEBUG_VALUE: des_setkey_dec_wrap:key_bitlen <- [DW_OP_LLVM_entry_value 1] $r2
	@DEBUG_VALUE: des_setkey_dec_wrap:key <- [DW_OP_LLVM_entry_value 1] $r1
	@DEBUG_VALUE: des_setkey_dec_wrap:ctx <- [DW_OP_LLVM_entry_value 1] $r0
	.loc	4 1445 5 is_stmt 0              @ ../../../ThirdParty/mbedTLS/library/cipher_wrap.c:1445:5
	pop	{r7, pc}
.Ltmp159:
.Lfunc_end38:
	.size	des_setkey_dec_wrap, .Lfunc_end38-des_setkey_dec_wrap
	.cfi_endproc
	.cantunwind
	.fnend
                                        @ -- End function
	.section	.text.des_ctx_alloc,"ax",%progbits
	.p2align	1                               @ -- Begin function des_ctx_alloc
	.type	des_ctx_alloc,%function
	.code	16                              @ @des_ctx_alloc
	.thumb_func
des_ctx_alloc:
.Lfunc_begin39:
	.loc	4 1489 0 is_stmt 1              @ ../../../ThirdParty/mbedTLS/library/cipher_wrap.c:1489:0
	.fnstart
	.cfi_startproc
@ %bb.0:
	.save	{r4, lr}
	push	{r4, lr}
	.cfi_def_cfa_offset 8
	.cfi_offset lr, -4
	.cfi_offset r4, -8
	movs	r0, #1
	movs	r1, #128
.Ltmp160:
	.loc	4 1490 32 prologue_end          @ ../../../ThirdParty/mbedTLS/library/cipher_wrap.c:1490:32
	bl	calloc
.Ltmp161:
	@DEBUG_VALUE: des_ctx_alloc:des <- $r0
	.loc	4 1492 9                        @ ../../../ThirdParty/mbedTLS/library/cipher_wrap.c:1492:9
	cbz	r0, .LBB39_2
.Ltmp162:
@ %bb.1:
	@DEBUG_VALUE: des_ctx_alloc:des <- $r0
	.loc	4 0 0 is_stmt 0                 @ ../../../ThirdParty/mbedTLS/library/cipher_wrap.c:0:0
	mov	r4, r0
.Ltmp163:
	@DEBUG_VALUE: des_ctx_alloc:des <- $r4
	@DEBUG_VALUE: des_ctx_alloc:des <- $r4
	.loc	4 1495 5 is_stmt 1              @ ../../../ThirdParty/mbedTLS/library/cipher_wrap.c:1495:5
	bl	mbedtls_des_init
	.loc	4 1498 1                        @ ../../../ThirdParty/mbedTLS/library/cipher_wrap.c:1498:1
	mov	r0, r4
	pop	{r4, pc}
.Ltmp164:
.LBB39_2:
	@DEBUG_VALUE: des_ctx_alloc:des <- $r0
	.loc	4 0 1 is_stmt 0                 @ ../../../ThirdParty/mbedTLS/library/cipher_wrap.c:0:1
	movs	r0, #0
.Ltmp165:
	.loc	4 1498 1                        @ ../../../ThirdParty/mbedTLS/library/cipher_wrap.c:1498:1
	pop	{r4, pc}
.Ltmp166:
.Lfunc_end39:
	.size	des_ctx_alloc, .Lfunc_end39-des_ctx_alloc
	.cfi_endproc
	.cantunwind
	.fnend
                                        @ -- End function
	.section	.text.des_ctx_free,"ax",%progbits
	.p2align	1                               @ -- Begin function des_ctx_free
	.type	des_ctx_free,%function
	.code	16                              @ @des_ctx_free
	.thumb_func
des_ctx_free:
.Lfunc_begin40:
	.loc	4 1501 0 is_stmt 1              @ ../../../ThirdParty/mbedTLS/library/cipher_wrap.c:1501:0
	.fnstart
	.cfi_startproc
@ %bb.0:
	@DEBUG_VALUE: des_ctx_free:ctx <- $r0
	.save	{r4, lr}
	push	{r4, lr}
	.cfi_def_cfa_offset 8
	.cfi_offset lr, -4
	.cfi_offset r4, -8
	mov	r4, r0
.Ltmp167:
	@DEBUG_VALUE: des_ctx_free:ctx <- $r4
	.loc	4 1502 5 prologue_end           @ ../../../ThirdParty/mbedTLS/library/cipher_wrap.c:1502:5
	bl	mbedtls_des_free
	.loc	4 1503 5                        @ ../../../ThirdParty/mbedTLS/library/cipher_wrap.c:1503:5
	mov	r0, r4
	bl	free
	.loc	4 1504 1                        @ ../../../ThirdParty/mbedTLS/library/cipher_wrap.c:1504:1
	pop	{r4, pc}
.Ltmp168:
.Lfunc_end40:
	.size	des_ctx_free, .Lfunc_end40-des_ctx_free
	.cfi_endproc
	.cantunwind
	.fnend
                                        @ -- End function
	.section	.text.des3_crypt_ecb_wrap,"ax",%progbits
	.p2align	1                               @ -- Begin function des3_crypt_ecb_wrap
	.type	des3_crypt_ecb_wrap,%function
	.code	16                              @ @des3_crypt_ecb_wrap
	.thumb_func
des3_crypt_ecb_wrap:
.Lfunc_begin41:
	.loc	4 1417 0                        @ ../../../ThirdParty/mbedTLS/library/cipher_wrap.c:1417:0
	.fnstart
	.cfi_startproc
@ %bb.0:
	@DEBUG_VALUE: des3_crypt_ecb_wrap:ctx <- $r0
	@DEBUG_VALUE: des3_crypt_ecb_wrap:operation <- $r1
	@DEBUG_VALUE: des3_crypt_ecb_wrap:input <- $r2
	@DEBUG_VALUE: des3_crypt_ecb_wrap:output <- $r3
	.save	{r7, lr}
	push	{r7, lr}
	.cfi_def_cfa_offset 8
	.cfi_offset lr, -4
	.cfi_offset r7, -8
	mov	r1, r2
.Ltmp169:
	@DEBUG_VALUE: des3_crypt_ecb_wrap:operation <- [DW_OP_LLVM_entry_value 1] $r1
	@DEBUG_VALUE: des3_crypt_ecb_wrap:output <- $r3
	@DEBUG_VALUE: des3_crypt_ecb_wrap:input <- $r1
	@DEBUG_VALUE: des3_crypt_ecb_wrap:ctx <- $r0
	@DEBUG_VALUE: des3_crypt_ecb_wrap:input <- $r1
	@DEBUG_VALUE: des3_crypt_ecb_wrap:ctx <- $r0
	.loc	4 1419 12 prologue_end          @ ../../../ThirdParty/mbedTLS/library/cipher_wrap.c:1419:12
	mov	r2, r3
.Ltmp170:
	@DEBUG_VALUE: des3_crypt_ecb_wrap:output <- $r2
	bl	mbedtls_des3_crypt_ecb
.Ltmp171:
	@DEBUG_VALUE: des3_crypt_ecb_wrap:ctx <- [DW_OP_LLVM_entry_value 1] $r0
	.loc	4 1419 5 is_stmt 0              @ ../../../ThirdParty/mbedTLS/library/cipher_wrap.c:1419:5
	pop	{r7, pc}
.Ltmp172:
.Lfunc_end41:
	.size	des3_crypt_ecb_wrap, .Lfunc_end41-des3_crypt_ecb_wrap
	.cfi_endproc
	.cantunwind
	.fnend
                                        @ -- End function
	.section	.text.des3_crypt_cbc_wrap,"ax",%progbits
	.p2align	1                               @ -- Begin function des3_crypt_cbc_wrap
	.type	des3_crypt_cbc_wrap,%function
	.code	16                              @ @des3_crypt_cbc_wrap
	.thumb_func
des3_crypt_cbc_wrap:
.Lfunc_begin42:
	.loc	4 1434 0 is_stmt 1              @ ../../../ThirdParty/mbedTLS/library/cipher_wrap.c:1434:0
	.fnstart
	.cfi_startproc
@ %bb.0:
	@DEBUG_VALUE: des3_crypt_cbc_wrap:ctx <- $r0
	@DEBUG_VALUE: des3_crypt_cbc_wrap:ctx <- $r0
	@DEBUG_VALUE: des3_crypt_cbc_wrap:operation <- $r1
	@DEBUG_VALUE: des3_crypt_cbc_wrap:operation <- $r1
	@DEBUG_VALUE: des3_crypt_cbc_wrap:length <- $r2
	@DEBUG_VALUE: des3_crypt_cbc_wrap:length <- $r2
	@DEBUG_VALUE: des3_crypt_cbc_wrap:iv <- $r3
	@DEBUG_VALUE: des3_crypt_cbc_wrap:iv <- $r3
	.save	{r4, lr}
	push	{r4, lr}
	.cfi_def_cfa_offset 8
	.cfi_offset lr, -4
	.cfi_offset r4, -8
	.pad	#8
	sub	sp, #8
	.cfi_def_cfa_offset 16
.Ltmp173:
	@DEBUG_VALUE: des3_crypt_cbc_wrap:input <- [DW_OP_plus_uconst 16] [$sp+0]
	@DEBUG_VALUE: des3_crypt_cbc_wrap:output <- [DW_OP_plus_uconst 20] [$sp+0]
	ldr	r4, [sp, #20]
.Ltmp174:
	.loc	4 1435 12 prologue_end          @ ../../../ThirdParty/mbedTLS/library/cipher_wrap.c:1435:12
	str	r4, [sp, #4]
	ldr	r4, [sp, #16]
	str	r4, [sp]
	@DEBUG_VALUE: des3_crypt_cbc_wrap:iv <- $r3
	@DEBUG_VALUE: des3_crypt_cbc_wrap:length <- $r2
	@DEBUG_VALUE: des3_crypt_cbc_wrap:operation <- $r1
	@DEBUG_VALUE: des3_crypt_cbc_wrap:ctx <- $r0
	bl	mbedtls_des3_crypt_cbc
.Ltmp175:
	@DEBUG_VALUE: des3_crypt_cbc_wrap:iv <- [DW_OP_LLVM_entry_value 1] $r3
	@DEBUG_VALUE: des3_crypt_cbc_wrap:length <- [DW_OP_LLVM_entry_value 1] $r2
	@DEBUG_VALUE: des3_crypt_cbc_wrap:operation <- [DW_OP_LLVM_entry_value 1] $r1
	@DEBUG_VALUE: des3_crypt_cbc_wrap:ctx <- [DW_OP_LLVM_entry_value 1] $r0
	.loc	4 1435 5 is_stmt 0              @ ../../../ThirdParty/mbedTLS/library/cipher_wrap.c:1435:5
	add	sp, #8
.Ltmp176:
	pop	{r4, pc}
.Ltmp177:
.Lfunc_end42:
	.size	des3_crypt_cbc_wrap, .Lfunc_end42-des3_crypt_cbc_wrap
	.cfi_endproc
	.cantunwind
	.fnend
                                        @ -- End function
	.section	.text.des3_set2key_enc_wrap,"ax",%progbits
	.p2align	1                               @ -- Begin function des3_set2key_enc_wrap
	.type	des3_set2key_enc_wrap,%function
	.code	16                              @ @des3_set2key_enc_wrap
	.thumb_func
des3_set2key_enc_wrap:
.Lfunc_begin43:
	.loc	4 1466 0 is_stmt 1              @ ../../../ThirdParty/mbedTLS/library/cipher_wrap.c:1466:0
	.fnstart
	.cfi_startproc
@ %bb.0:
	@DEBUG_VALUE: des3_set2key_enc_wrap:ctx <- $r0
	@DEBUG_VALUE: des3_set2key_enc_wrap:ctx <- $r0
	@DEBUG_VALUE: des3_set2key_enc_wrap:key <- $r1
	@DEBUG_VALUE: des3_set2key_enc_wrap:key <- $r1
	@DEBUG_VALUE: des3_set2key_enc_wrap:key_bitlen <- $r2
	@DEBUG_VALUE: des3_set2key_enc_wrap:key <- $r1
	@DEBUG_VALUE: des3_set2key_enc_wrap:ctx <- $r0
	.save	{r7, lr}
	push	{r7, lr}
	.cfi_def_cfa_offset 8
	.cfi_offset lr, -4
	.cfi_offset r7, -8
.Ltmp178:
	.loc	4 1469 12 prologue_end          @ ../../../ThirdParty/mbedTLS/library/cipher_wrap.c:1469:12
	bl	mbedtls_des3_set2key_enc
.Ltmp179:
	@DEBUG_VALUE: des3_set2key_enc_wrap:key_bitlen <- [DW_OP_LLVM_entry_value 1] $r2
	@DEBUG_VALUE: des3_set2key_enc_wrap:key <- [DW_OP_LLVM_entry_value 1] $r1
	@DEBUG_VALUE: des3_set2key_enc_wrap:ctx <- [DW_OP_LLVM_entry_value 1] $r0
	.loc	4 1469 5 is_stmt 0              @ ../../../ThirdParty/mbedTLS/library/cipher_wrap.c:1469:5
	pop	{r7, pc}
.Ltmp180:
.Lfunc_end43:
	.size	des3_set2key_enc_wrap, .Lfunc_end43-des3_set2key_enc_wrap
	.cfi_endproc
	.cantunwind
	.fnend
                                        @ -- End function
	.section	.text.des3_set2key_dec_wrap,"ax",%progbits
	.p2align	1                               @ -- Begin function des3_set2key_dec_wrap
	.type	des3_set2key_dec_wrap,%function
	.code	16                              @ @des3_set2key_dec_wrap
	.thumb_func
des3_set2key_dec_wrap:
.Lfunc_begin44:
	.loc	4 1458 0 is_stmt 1              @ ../../../ThirdParty/mbedTLS/library/cipher_wrap.c:1458:0
	.fnstart
	.cfi_startproc
@ %bb.0:
	@DEBUG_VALUE: des3_set2key_dec_wrap:ctx <- $r0
	@DEBUG_VALUE: des3_set2key_dec_wrap:ctx <- $r0
	@DEBUG_VALUE: des3_set2key_dec_wrap:key <- $r1
	@DEBUG_VALUE: des3_set2key_dec_wrap:key <- $r1
	@DEBUG_VALUE: des3_set2key_dec_wrap:key_bitlen <- $r2
	@DEBUG_VALUE: des3_set2key_dec_wrap:key <- $r1
	@DEBUG_VALUE: des3_set2key_dec_wrap:ctx <- $r0
	.save	{r7, lr}
	push	{r7, lr}
	.cfi_def_cfa_offset 8
	.cfi_offset lr, -4
	.cfi_offset r7, -8
.Ltmp181:
	.loc	4 1461 12 prologue_end          @ ../../../ThirdParty/mbedTLS/library/cipher_wrap.c:1461:12
	bl	mbedtls_des3_set2key_dec
.Ltmp182:
	@DEBUG_VALUE: des3_set2key_dec_wrap:key_bitlen <- [DW_OP_LLVM_entry_value 1] $r2
	@DEBUG_VALUE: des3_set2key_dec_wrap:key <- [DW_OP_LLVM_entry_value 1] $r1
	@DEBUG_VALUE: des3_set2key_dec_wrap:ctx <- [DW_OP_LLVM_entry_value 1] $r0
	.loc	4 1461 5 is_stmt 0              @ ../../../ThirdParty/mbedTLS/library/cipher_wrap.c:1461:5
	pop	{r7, pc}
.Ltmp183:
.Lfunc_end44:
	.size	des3_set2key_dec_wrap, .Lfunc_end44-des3_set2key_dec_wrap
	.cfi_endproc
	.cantunwind
	.fnend
                                        @ -- End function
	.section	.text.des3_ctx_alloc,"ax",%progbits
	.p2align	1                               @ -- Begin function des3_ctx_alloc
	.type	des3_ctx_alloc,%function
	.code	16                              @ @des3_ctx_alloc
	.thumb_func
des3_ctx_alloc:
.Lfunc_begin45:
	.loc	4 1507 0 is_stmt 1              @ ../../../ThirdParty/mbedTLS/library/cipher_wrap.c:1507:0
	.fnstart
	.cfi_startproc
@ %bb.0:
	.save	{r4, lr}
	push	{r4, lr}
	.cfi_def_cfa_offset 8
	.cfi_offset lr, -4
	.cfi_offset r4, -8
	movs	r0, #1
.Ltmp184:
	.loc	4 1509 12 prologue_end          @ ../../../ThirdParty/mbedTLS/library/cipher_wrap.c:1509:12
	movw	r1, #384
	bl	calloc
.Ltmp185:
	@DEBUG_VALUE: des3_ctx_alloc:des3 <- $r0
	.loc	4 1511 9                        @ ../../../ThirdParty/mbedTLS/library/cipher_wrap.c:1511:9
	cbz	r0, .LBB45_2
.Ltmp186:
@ %bb.1:
	@DEBUG_VALUE: des3_ctx_alloc:des3 <- $r0
	.loc	4 0 0 is_stmt 0                 @ ../../../ThirdParty/mbedTLS/library/cipher_wrap.c:0:0
	mov	r4, r0
.Ltmp187:
	@DEBUG_VALUE: des3_ctx_alloc:des3 <- $r4
	@DEBUG_VALUE: des3_ctx_alloc:des3 <- $r4
	.loc	4 1514 5 is_stmt 1              @ ../../../ThirdParty/mbedTLS/library/cipher_wrap.c:1514:5
	bl	mbedtls_des3_init
	.loc	4 1517 1                        @ ../../../ThirdParty/mbedTLS/library/cipher_wrap.c:1517:1
	mov	r0, r4
	pop	{r4, pc}
.Ltmp188:
.LBB45_2:
	@DEBUG_VALUE: des3_ctx_alloc:des3 <- $r0
	.loc	4 0 1 is_stmt 0                 @ ../../../ThirdParty/mbedTLS/library/cipher_wrap.c:0:1
	movs	r0, #0
.Ltmp189:
	.loc	4 1517 1                        @ ../../../ThirdParty/mbedTLS/library/cipher_wrap.c:1517:1
	pop	{r4, pc}
.Ltmp190:
.Lfunc_end45:
	.size	des3_ctx_alloc, .Lfunc_end45-des3_ctx_alloc
	.cfi_endproc
	.cantunwind
	.fnend
                                        @ -- End function
	.section	.text.des3_ctx_free,"ax",%progbits
	.p2align	1                               @ -- Begin function des3_ctx_free
	.type	des3_ctx_free,%function
	.code	16                              @ @des3_ctx_free
	.thumb_func
des3_ctx_free:
.Lfunc_begin46:
	.loc	4 1520 0 is_stmt 1              @ ../../../ThirdParty/mbedTLS/library/cipher_wrap.c:1520:0
	.fnstart
	.cfi_startproc
@ %bb.0:
	@DEBUG_VALUE: des3_ctx_free:ctx <- $r0
	.save	{r4, lr}
	push	{r4, lr}
	.cfi_def_cfa_offset 8
	.cfi_offset lr, -4
	.cfi_offset r4, -8
	mov	r4, r0
.Ltmp191:
	@DEBUG_VALUE: des3_ctx_free:ctx <- $r4
	.loc	4 1521 5 prologue_end           @ ../../../ThirdParty/mbedTLS/library/cipher_wrap.c:1521:5
	bl	mbedtls_des3_free
	.loc	4 1522 5                        @ ../../../ThirdParty/mbedTLS/library/cipher_wrap.c:1522:5
	mov	r0, r4
	bl	free
	.loc	4 1523 1                        @ ../../../ThirdParty/mbedTLS/library/cipher_wrap.c:1523:1
	pop	{r4, pc}
.Ltmp192:
.Lfunc_end46:
	.size	des3_ctx_free, .Lfunc_end46-des3_ctx_free
	.cfi_endproc
	.cantunwind
	.fnend
                                        @ -- End function
	.section	.text.des3_set3key_enc_wrap,"ax",%progbits
	.p2align	1                               @ -- Begin function des3_set3key_enc_wrap
	.type	des3_set3key_enc_wrap,%function
	.code	16                              @ @des3_set3key_enc_wrap
	.thumb_func
des3_set3key_enc_wrap:
.Lfunc_begin47:
	.loc	4 1482 0                        @ ../../../ThirdParty/mbedTLS/library/cipher_wrap.c:1482:0
	.fnstart
	.cfi_startproc
@ %bb.0:
	@DEBUG_VALUE: des3_set3key_enc_wrap:ctx <- $r0
	@DEBUG_VALUE: des3_set3key_enc_wrap:ctx <- $r0
	@DEBUG_VALUE: des3_set3key_enc_wrap:key <- $r1
	@DEBUG_VALUE: des3_set3key_enc_wrap:key <- $r1
	@DEBUG_VALUE: des3_set3key_enc_wrap:key_bitlen <- $r2
	@DEBUG_VALUE: des3_set3key_enc_wrap:key <- $r1
	@DEBUG_VALUE: des3_set3key_enc_wrap:ctx <- $r0
	.save	{r7, lr}
	push	{r7, lr}
	.cfi_def_cfa_offset 8
	.cfi_offset lr, -4
	.cfi_offset r7, -8
.Ltmp193:
	.loc	4 1485 12 prologue_end          @ ../../../ThirdParty/mbedTLS/library/cipher_wrap.c:1485:12
	bl	mbedtls_des3_set3key_enc
.Ltmp194:
	@DEBUG_VALUE: des3_set3key_enc_wrap:key_bitlen <- [DW_OP_LLVM_entry_value 1] $r2
	@DEBUG_VALUE: des3_set3key_enc_wrap:key <- [DW_OP_LLVM_entry_value 1] $r1
	@DEBUG_VALUE: des3_set3key_enc_wrap:ctx <- [DW_OP_LLVM_entry_value 1] $r0
	.loc	4 1485 5 is_stmt 0              @ ../../../ThirdParty/mbedTLS/library/cipher_wrap.c:1485:5
	pop	{r7, pc}
.Ltmp195:
.Lfunc_end47:
	.size	des3_set3key_enc_wrap, .Lfunc_end47-des3_set3key_enc_wrap
	.cfi_endproc
	.cantunwind
	.fnend
                                        @ -- End function
	.section	.text.des3_set3key_dec_wrap,"ax",%progbits
	.p2align	1                               @ -- Begin function des3_set3key_dec_wrap
	.type	des3_set3key_dec_wrap,%function
	.code	16                              @ @des3_set3key_dec_wrap
	.thumb_func
des3_set3key_dec_wrap:
.Lfunc_begin48:
	.loc	4 1474 0 is_stmt 1              @ ../../../ThirdParty/mbedTLS/library/cipher_wrap.c:1474:0
	.fnstart
	.cfi_startproc
@ %bb.0:
	@DEBUG_VALUE: des3_set3key_dec_wrap:ctx <- $r0
	@DEBUG_VALUE: des3_set3key_dec_wrap:ctx <- $r0
	@DEBUG_VALUE: des3_set3key_dec_wrap:key <- $r1
	@DEBUG_VALUE: des3_set3key_dec_wrap:key <- $r1
	@DEBUG_VALUE: des3_set3key_dec_wrap:key_bitlen <- $r2
	@DEBUG_VALUE: des3_set3key_dec_wrap:key <- $r1
	@DEBUG_VALUE: des3_set3key_dec_wrap:ctx <- $r0
	.save	{r7, lr}
	push	{r7, lr}
	.cfi_def_cfa_offset 8
	.cfi_offset lr, -4
	.cfi_offset r7, -8
.Ltmp196:
	.loc	4 1477 12 prologue_end          @ ../../../ThirdParty/mbedTLS/library/cipher_wrap.c:1477:12
	bl	mbedtls_des3_set3key_dec
.Ltmp197:
	@DEBUG_VALUE: des3_set3key_dec_wrap:key_bitlen <- [DW_OP_LLVM_entry_value 1] $r2
	@DEBUG_VALUE: des3_set3key_dec_wrap:key <- [DW_OP_LLVM_entry_value 1] $r1
	@DEBUG_VALUE: des3_set3key_dec_wrap:ctx <- [DW_OP_LLVM_entry_value 1] $r0
	.loc	4 1477 5 is_stmt 0              @ ../../../ThirdParty/mbedTLS/library/cipher_wrap.c:1477:5
	pop	{r7, pc}
.Ltmp198:
.Lfunc_end48:
	.size	des3_set3key_dec_wrap, .Lfunc_end48-des3_set3key_dec_wrap
	.cfi_endproc
	.cantunwind
	.fnend
                                        @ -- End function
	.type	aes_128_ecb_info,%object        @ @aes_128_ecb_info
	.section	.rodata.aes_128_ecb_info,"a",%progbits
	.p2align	2
aes_128_ecb_info:
	.byte	2                               @ 0x2
	.byte	1                               @ 0x1
	.zero	2
	.long	128                             @ 0x80
	.long	.L.str
	.long	0                               @ 0x0
	.long	0                               @ 0x0
	.long	16                              @ 0x10
	.long	aes_info
	.size	aes_128_ecb_info, 28

	.type	aes_192_ecb_info,%object        @ @aes_192_ecb_info
	.section	.rodata.aes_192_ecb_info,"a",%progbits
	.p2align	2
aes_192_ecb_info:
	.byte	3                               @ 0x3
	.byte	1                               @ 0x1
	.zero	2
	.long	192                             @ 0xc0
	.long	.L.str.1
	.long	0                               @ 0x0
	.long	0                               @ 0x0
	.long	16                              @ 0x10
	.long	aes_info
	.size	aes_192_ecb_info, 28

	.type	aes_256_ecb_info,%object        @ @aes_256_ecb_info
	.section	.rodata.aes_256_ecb_info,"a",%progbits
	.p2align	2
aes_256_ecb_info:
	.byte	4                               @ 0x4
	.byte	1                               @ 0x1
	.zero	2
	.long	256                             @ 0x100
	.long	.L.str.2
	.long	0                               @ 0x0
	.long	0                               @ 0x0
	.long	16                              @ 0x10
	.long	aes_info
	.size	aes_256_ecb_info, 28

	.type	aes_128_cbc_info,%object        @ @aes_128_cbc_info
	.section	.rodata.aes_128_cbc_info,"a",%progbits
	.p2align	2
aes_128_cbc_info:
	.byte	5                               @ 0x5
	.byte	2                               @ 0x2
	.zero	2
	.long	128                             @ 0x80
	.long	.L.str.3
	.long	16                              @ 0x10
	.long	0                               @ 0x0
	.long	16                              @ 0x10
	.long	aes_info
	.size	aes_128_cbc_info, 28

	.type	aes_192_cbc_info,%object        @ @aes_192_cbc_info
	.section	.rodata.aes_192_cbc_info,"a",%progbits
	.p2align	2
aes_192_cbc_info:
	.byte	6                               @ 0x6
	.byte	2                               @ 0x2
	.zero	2
	.long	192                             @ 0xc0
	.long	.L.str.4
	.long	16                              @ 0x10
	.long	0                               @ 0x0
	.long	16                              @ 0x10
	.long	aes_info
	.size	aes_192_cbc_info, 28

	.type	aes_256_cbc_info,%object        @ @aes_256_cbc_info
	.section	.rodata.aes_256_cbc_info,"a",%progbits
	.p2align	2
aes_256_cbc_info:
	.byte	7                               @ 0x7
	.byte	2                               @ 0x2
	.zero	2
	.long	256                             @ 0x100
	.long	.L.str.5
	.long	16                              @ 0x10
	.long	0                               @ 0x0
	.long	16                              @ 0x10
	.long	aes_info
	.size	aes_256_cbc_info, 28

	.type	aes_128_cfb128_info,%object     @ @aes_128_cfb128_info
	.section	.rodata.aes_128_cfb128_info,"a",%progbits
	.p2align	2
aes_128_cfb128_info:
	.byte	8                               @ 0x8
	.byte	3                               @ 0x3
	.zero	2
	.long	128                             @ 0x80
	.long	.L.str.6
	.long	16                              @ 0x10
	.long	0                               @ 0x0
	.long	16                              @ 0x10
	.long	aes_info
	.size	aes_128_cfb128_info, 28

	.type	aes_192_cfb128_info,%object     @ @aes_192_cfb128_info
	.section	.rodata.aes_192_cfb128_info,"a",%progbits
	.p2align	2
aes_192_cfb128_info:
	.byte	9                               @ 0x9
	.byte	3                               @ 0x3
	.zero	2
	.long	192                             @ 0xc0
	.long	.L.str.7
	.long	16                              @ 0x10
	.long	0                               @ 0x0
	.long	16                              @ 0x10
	.long	aes_info
	.size	aes_192_cfb128_info, 28

	.type	aes_256_cfb128_info,%object     @ @aes_256_cfb128_info
	.section	.rodata.aes_256_cfb128_info,"a",%progbits
	.p2align	2
aes_256_cfb128_info:
	.byte	10                              @ 0xa
	.byte	3                               @ 0x3
	.zero	2
	.long	256                             @ 0x100
	.long	.L.str.8
	.long	16                              @ 0x10
	.long	0                               @ 0x0
	.long	16                              @ 0x10
	.long	aes_info
	.size	aes_256_cfb128_info, 28

	.type	aes_128_ctr_info,%object        @ @aes_128_ctr_info
	.section	.rodata.aes_128_ctr_info,"a",%progbits
	.p2align	2
aes_128_ctr_info:
	.byte	11                              @ 0xb
	.byte	5                               @ 0x5
	.zero	2
	.long	128                             @ 0x80
	.long	.L.str.9
	.long	16                              @ 0x10
	.long	0                               @ 0x0
	.long	16                              @ 0x10
	.long	aes_info
	.size	aes_128_ctr_info, 28

	.type	aes_192_ctr_info,%object        @ @aes_192_ctr_info
	.section	.rodata.aes_192_ctr_info,"a",%progbits
	.p2align	2
aes_192_ctr_info:
	.byte	12                              @ 0xc
	.byte	5                               @ 0x5
	.zero	2
	.long	192                             @ 0xc0
	.long	.L.str.10
	.long	16                              @ 0x10
	.long	0                               @ 0x0
	.long	16                              @ 0x10
	.long	aes_info
	.size	aes_192_ctr_info, 28

	.type	aes_256_ctr_info,%object        @ @aes_256_ctr_info
	.section	.rodata.aes_256_ctr_info,"a",%progbits
	.p2align	2
aes_256_ctr_info:
	.byte	13                              @ 0xd
	.byte	5                               @ 0x5
	.zero	2
	.long	256                             @ 0x100
	.long	.L.str.11
	.long	16                              @ 0x10
	.long	0                               @ 0x0
	.long	16                              @ 0x10
	.long	aes_info
	.size	aes_256_ctr_info, 28

	.type	aes_128_gcm_info,%object        @ @aes_128_gcm_info
	.section	.rodata.aes_128_gcm_info,"a",%progbits
	.p2align	2
aes_128_gcm_info:
	.byte	14                              @ 0xe
	.byte	6                               @ 0x6
	.zero	2
	.long	128                             @ 0x80
	.long	.L.str.12
	.long	12                              @ 0xc
	.long	1                               @ 0x1
	.long	16                              @ 0x10
	.long	gcm_aes_info
	.size	aes_128_gcm_info, 28

	.type	aes_192_gcm_info,%object        @ @aes_192_gcm_info
	.section	.rodata.aes_192_gcm_info,"a",%progbits
	.p2align	2
aes_192_gcm_info:
	.byte	15                              @ 0xf
	.byte	6                               @ 0x6
	.zero	2
	.long	192                             @ 0xc0
	.long	.L.str.13
	.long	12                              @ 0xc
	.long	1                               @ 0x1
	.long	16                              @ 0x10
	.long	gcm_aes_info
	.size	aes_192_gcm_info, 28

	.type	aes_256_gcm_info,%object        @ @aes_256_gcm_info
	.section	.rodata.aes_256_gcm_info,"a",%progbits
	.p2align	2
aes_256_gcm_info:
	.byte	16                              @ 0x10
	.byte	6                               @ 0x6
	.zero	2
	.long	256                             @ 0x100
	.long	.L.str.14
	.long	12                              @ 0xc
	.long	1                               @ 0x1
	.long	16                              @ 0x10
	.long	gcm_aes_info
	.size	aes_256_gcm_info, 28

	.type	aes_128_ccm_info,%object        @ @aes_128_ccm_info
	.section	.rodata.aes_128_ccm_info,"a",%progbits
	.p2align	2
aes_128_ccm_info:
	.byte	43                              @ 0x2b
	.byte	8                               @ 0x8
	.zero	2
	.long	128                             @ 0x80
	.long	.L.str.15
	.long	12                              @ 0xc
	.long	1                               @ 0x1
	.long	16                              @ 0x10
	.long	ccm_aes_info
	.size	aes_128_ccm_info, 28

	.type	aes_192_ccm_info,%object        @ @aes_192_ccm_info
	.section	.rodata.aes_192_ccm_info,"a",%progbits
	.p2align	2
aes_192_ccm_info:
	.byte	44                              @ 0x2c
	.byte	8                               @ 0x8
	.zero	2
	.long	192                             @ 0xc0
	.long	.L.str.16
	.long	12                              @ 0xc
	.long	1                               @ 0x1
	.long	16                              @ 0x10
	.long	ccm_aes_info
	.size	aes_192_ccm_info, 28

	.type	aes_256_ccm_info,%object        @ @aes_256_ccm_info
	.section	.rodata.aes_256_ccm_info,"a",%progbits
	.p2align	2
aes_256_ccm_info:
	.byte	45                              @ 0x2d
	.byte	8                               @ 0x8
	.zero	2
	.long	256                             @ 0x100
	.long	.L.str.17
	.long	12                              @ 0xc
	.long	1                               @ 0x1
	.long	16                              @ 0x10
	.long	ccm_aes_info
	.size	aes_256_ccm_info, 28

	.type	arc4_128_info,%object           @ @arc4_128_info
	.section	.rodata.arc4_128_info,"a",%progbits
	.p2align	2
arc4_128_info:
	.byte	42                              @ 0x2a
	.byte	7                               @ 0x7
	.zero	2
	.long	128                             @ 0x80
	.long	.L.str.18
	.long	0                               @ 0x0
	.long	0                               @ 0x0
	.long	1                               @ 0x1
	.long	arc4_base_info
	.size	arc4_128_info, 28

	.type	blowfish_ecb_info,%object       @ @blowfish_ecb_info
	.section	.rodata.blowfish_ecb_info,"a",%progbits
	.p2align	2
blowfish_ecb_info:
	.byte	38                              @ 0x26
	.byte	1                               @ 0x1
	.zero	2
	.long	128                             @ 0x80
	.long	.L.str.19
	.long	8                               @ 0x8
	.long	2                               @ 0x2
	.long	8                               @ 0x8
	.long	blowfish_info
	.size	blowfish_ecb_info, 28

	.type	blowfish_cbc_info,%object       @ @blowfish_cbc_info
	.section	.rodata.blowfish_cbc_info,"a",%progbits
	.p2align	2
blowfish_cbc_info:
	.byte	39                              @ 0x27
	.byte	2                               @ 0x2
	.zero	2
	.long	128                             @ 0x80
	.long	.L.str.20
	.long	8                               @ 0x8
	.long	2                               @ 0x2
	.long	8                               @ 0x8
	.long	blowfish_info
	.size	blowfish_cbc_info, 28

	.type	blowfish_cfb64_info,%object     @ @blowfish_cfb64_info
	.section	.rodata.blowfish_cfb64_info,"a",%progbits
	.p2align	2
blowfish_cfb64_info:
	.byte	40                              @ 0x28
	.byte	3                               @ 0x3
	.zero	2
	.long	128                             @ 0x80
	.long	.L.str.21
	.long	8                               @ 0x8
	.long	2                               @ 0x2
	.long	8                               @ 0x8
	.long	blowfish_info
	.size	blowfish_cfb64_info, 28

	.type	blowfish_ctr_info,%object       @ @blowfish_ctr_info
	.section	.rodata.blowfish_ctr_info,"a",%progbits
	.p2align	2
blowfish_ctr_info:
	.byte	41                              @ 0x29
	.byte	5                               @ 0x5
	.zero	2
	.long	128                             @ 0x80
	.long	.L.str.22
	.long	8                               @ 0x8
	.long	2                               @ 0x2
	.long	8                               @ 0x8
	.long	blowfish_info
	.size	blowfish_ctr_info, 28

	.type	camellia_128_ecb_info,%object   @ @camellia_128_ecb_info
	.section	.rodata.camellia_128_ecb_info,"a",%progbits
	.p2align	2
camellia_128_ecb_info:
	.byte	17                              @ 0x11
	.byte	1                               @ 0x1
	.zero	2
	.long	128                             @ 0x80
	.long	.L.str.23
	.long	16                              @ 0x10
	.long	0                               @ 0x0
	.long	16                              @ 0x10
	.long	camellia_info
	.size	camellia_128_ecb_info, 28

	.type	camellia_192_ecb_info,%object   @ @camellia_192_ecb_info
	.section	.rodata.camellia_192_ecb_info,"a",%progbits
	.p2align	2
camellia_192_ecb_info:
	.byte	18                              @ 0x12
	.byte	1                               @ 0x1
	.zero	2
	.long	192                             @ 0xc0
	.long	.L.str.24
	.long	16                              @ 0x10
	.long	0                               @ 0x0
	.long	16                              @ 0x10
	.long	camellia_info
	.size	camellia_192_ecb_info, 28

	.type	camellia_256_ecb_info,%object   @ @camellia_256_ecb_info
	.section	.rodata.camellia_256_ecb_info,"a",%progbits
	.p2align	2
camellia_256_ecb_info:
	.byte	19                              @ 0x13
	.byte	1                               @ 0x1
	.zero	2
	.long	256                             @ 0x100
	.long	.L.str.25
	.long	16                              @ 0x10
	.long	0                               @ 0x0
	.long	16                              @ 0x10
	.long	camellia_info
	.size	camellia_256_ecb_info, 28

	.type	camellia_128_cbc_info,%object   @ @camellia_128_cbc_info
	.section	.rodata.camellia_128_cbc_info,"a",%progbits
	.p2align	2
camellia_128_cbc_info:
	.byte	20                              @ 0x14
	.byte	2                               @ 0x2
	.zero	2
	.long	128                             @ 0x80
	.long	.L.str.26
	.long	16                              @ 0x10
	.long	0                               @ 0x0
	.long	16                              @ 0x10
	.long	camellia_info
	.size	camellia_128_cbc_info, 28

	.type	camellia_192_cbc_info,%object   @ @camellia_192_cbc_info
	.section	.rodata.camellia_192_cbc_info,"a",%progbits
	.p2align	2
camellia_192_cbc_info:
	.byte	21                              @ 0x15
	.byte	2                               @ 0x2
	.zero	2
	.long	192                             @ 0xc0
	.long	.L.str.27
	.long	16                              @ 0x10
	.long	0                               @ 0x0
	.long	16                              @ 0x10
	.long	camellia_info
	.size	camellia_192_cbc_info, 28

	.type	camellia_256_cbc_info,%object   @ @camellia_256_cbc_info
	.section	.rodata.camellia_256_cbc_info,"a",%progbits
	.p2align	2
camellia_256_cbc_info:
	.byte	22                              @ 0x16
	.byte	2                               @ 0x2
	.zero	2
	.long	256                             @ 0x100
	.long	.L.str.28
	.long	16                              @ 0x10
	.long	0                               @ 0x0
	.long	16                              @ 0x10
	.long	camellia_info
	.size	camellia_256_cbc_info, 28

	.type	camellia_128_cfb128_info,%object @ @camellia_128_cfb128_info
	.section	.rodata.camellia_128_cfb128_info,"a",%progbits
	.p2align	2
camellia_128_cfb128_info:
	.byte	23                              @ 0x17
	.byte	3                               @ 0x3
	.zero	2
	.long	128                             @ 0x80
	.long	.L.str.29
	.long	16                              @ 0x10
	.long	0                               @ 0x0
	.long	16                              @ 0x10
	.long	camellia_info
	.size	camellia_128_cfb128_info, 28

	.type	camellia_192_cfb128_info,%object @ @camellia_192_cfb128_info
	.section	.rodata.camellia_192_cfb128_info,"a",%progbits
	.p2align	2
camellia_192_cfb128_info:
	.byte	24                              @ 0x18
	.byte	3                               @ 0x3
	.zero	2
	.long	192                             @ 0xc0
	.long	.L.str.30
	.long	16                              @ 0x10
	.long	0                               @ 0x0
	.long	16                              @ 0x10
	.long	camellia_info
	.size	camellia_192_cfb128_info, 28

	.type	camellia_256_cfb128_info,%object @ @camellia_256_cfb128_info
	.section	.rodata.camellia_256_cfb128_info,"a",%progbits
	.p2align	2
camellia_256_cfb128_info:
	.byte	25                              @ 0x19
	.byte	3                               @ 0x3
	.zero	2
	.long	256                             @ 0x100
	.long	.L.str.31
	.long	16                              @ 0x10
	.long	0                               @ 0x0
	.long	16                              @ 0x10
	.long	camellia_info
	.size	camellia_256_cfb128_info, 28

	.type	camellia_128_ctr_info,%object   @ @camellia_128_ctr_info
	.section	.rodata.camellia_128_ctr_info,"a",%progbits
	.p2align	2
camellia_128_ctr_info:
	.byte	26                              @ 0x1a
	.byte	5                               @ 0x5
	.zero	2
	.long	128                             @ 0x80
	.long	.L.str.32
	.long	16                              @ 0x10
	.long	0                               @ 0x0
	.long	16                              @ 0x10
	.long	camellia_info
	.size	camellia_128_ctr_info, 28

	.type	camellia_192_ctr_info,%object   @ @camellia_192_ctr_info
	.section	.rodata.camellia_192_ctr_info,"a",%progbits
	.p2align	2
camellia_192_ctr_info:
	.byte	27                              @ 0x1b
	.byte	5                               @ 0x5
	.zero	2
	.long	192                             @ 0xc0
	.long	.L.str.33
	.long	16                              @ 0x10
	.long	0                               @ 0x0
	.long	16                              @ 0x10
	.long	camellia_info
	.size	camellia_192_ctr_info, 28

	.type	camellia_256_ctr_info,%object   @ @camellia_256_ctr_info
	.section	.rodata.camellia_256_ctr_info,"a",%progbits
	.p2align	2
camellia_256_ctr_info:
	.byte	28                              @ 0x1c
	.byte	5                               @ 0x5
	.zero	2
	.long	256                             @ 0x100
	.long	.L.str.34
	.long	16                              @ 0x10
	.long	0                               @ 0x0
	.long	16                              @ 0x10
	.long	camellia_info
	.size	camellia_256_ctr_info, 28

	.type	camellia_128_gcm_info,%object   @ @camellia_128_gcm_info
	.section	.rodata.camellia_128_gcm_info,"a",%progbits
	.p2align	2
camellia_128_gcm_info:
	.byte	29                              @ 0x1d
	.byte	6                               @ 0x6
	.zero	2
	.long	128                             @ 0x80
	.long	.L.str.35
	.long	12                              @ 0xc
	.long	1                               @ 0x1
	.long	16                              @ 0x10
	.long	gcm_camellia_info
	.size	camellia_128_gcm_info, 28

	.type	camellia_192_gcm_info,%object   @ @camellia_192_gcm_info
	.section	.rodata.camellia_192_gcm_info,"a",%progbits
	.p2align	2
camellia_192_gcm_info:
	.byte	30                              @ 0x1e
	.byte	6                               @ 0x6
	.zero	2
	.long	192                             @ 0xc0
	.long	.L.str.36
	.long	12                              @ 0xc
	.long	1                               @ 0x1
	.long	16                              @ 0x10
	.long	gcm_camellia_info
	.size	camellia_192_gcm_info, 28

	.type	camellia_256_gcm_info,%object   @ @camellia_256_gcm_info
	.section	.rodata.camellia_256_gcm_info,"a",%progbits
	.p2align	2
camellia_256_gcm_info:
	.byte	31                              @ 0x1f
	.byte	6                               @ 0x6
	.zero	2
	.long	256                             @ 0x100
	.long	.L.str.37
	.long	12                              @ 0xc
	.long	1                               @ 0x1
	.long	16                              @ 0x10
	.long	gcm_camellia_info
	.size	camellia_256_gcm_info, 28

	.type	camellia_128_ccm_info,%object   @ @camellia_128_ccm_info
	.section	.rodata.camellia_128_ccm_info,"a",%progbits
	.p2align	2
camellia_128_ccm_info:
	.byte	46                              @ 0x2e
	.byte	8                               @ 0x8
	.zero	2
	.long	128                             @ 0x80
	.long	.L.str.38
	.long	12                              @ 0xc
	.long	1                               @ 0x1
	.long	16                              @ 0x10
	.long	ccm_camellia_info
	.size	camellia_128_ccm_info, 28

	.type	camellia_192_ccm_info,%object   @ @camellia_192_ccm_info
	.section	.rodata.camellia_192_ccm_info,"a",%progbits
	.p2align	2
camellia_192_ccm_info:
	.byte	47                              @ 0x2f
	.byte	8                               @ 0x8
	.zero	2
	.long	192                             @ 0xc0
	.long	.L.str.39
	.long	12                              @ 0xc
	.long	1                               @ 0x1
	.long	16                              @ 0x10
	.long	ccm_camellia_info
	.size	camellia_192_ccm_info, 28

	.type	camellia_256_ccm_info,%object   @ @camellia_256_ccm_info
	.section	.rodata.camellia_256_ccm_info,"a",%progbits
	.p2align	2
camellia_256_ccm_info:
	.byte	48                              @ 0x30
	.byte	8                               @ 0x8
	.zero	2
	.long	256                             @ 0x100
	.long	.L.str.40
	.long	12                              @ 0xc
	.long	1                               @ 0x1
	.long	16                              @ 0x10
	.long	ccm_camellia_info
	.size	camellia_256_ccm_info, 28

	.type	des_ecb_info,%object            @ @des_ecb_info
	.section	.rodata.des_ecb_info,"a",%progbits
	.p2align	2
des_ecb_info:
	.byte	32                              @ 0x20
	.byte	1                               @ 0x1
	.zero	2
	.long	64                              @ 0x40
	.long	.L.str.41
	.long	8                               @ 0x8
	.long	0                               @ 0x0
	.long	8                               @ 0x8
	.long	des_info
	.size	des_ecb_info, 28

	.type	des_ede_ecb_info,%object        @ @des_ede_ecb_info
	.section	.rodata.des_ede_ecb_info,"a",%progbits
	.p2align	2
des_ede_ecb_info:
	.byte	34                              @ 0x22
	.byte	1                               @ 0x1
	.zero	2
	.long	128                             @ 0x80
	.long	.L.str.42
	.long	8                               @ 0x8
	.long	0                               @ 0x0
	.long	8                               @ 0x8
	.long	des_ede_info
	.size	des_ede_ecb_info, 28

	.type	des_ede3_ecb_info,%object       @ @des_ede3_ecb_info
	.section	.rodata.des_ede3_ecb_info,"a",%progbits
	.p2align	2
des_ede3_ecb_info:
	.byte	36                              @ 0x24
	.byte	1                               @ 0x1
	.zero	2
	.long	192                             @ 0xc0
	.long	.L.str.43
	.long	8                               @ 0x8
	.long	0                               @ 0x0
	.long	8                               @ 0x8
	.long	des_ede3_info
	.size	des_ede3_ecb_info, 28

	.type	des_cbc_info,%object            @ @des_cbc_info
	.section	.rodata.des_cbc_info,"a",%progbits
	.p2align	2
des_cbc_info:
	.byte	33                              @ 0x21
	.byte	2                               @ 0x2
	.zero	2
	.long	64                              @ 0x40
	.long	.L.str.44
	.long	8                               @ 0x8
	.long	0                               @ 0x0
	.long	8                               @ 0x8
	.long	des_info
	.size	des_cbc_info, 28

	.type	des_ede_cbc_info,%object        @ @des_ede_cbc_info
	.section	.rodata.des_ede_cbc_info,"a",%progbits
	.p2align	2
des_ede_cbc_info:
	.byte	35                              @ 0x23
	.byte	2                               @ 0x2
	.zero	2
	.long	128                             @ 0x80
	.long	.L.str.45
	.long	8                               @ 0x8
	.long	0                               @ 0x0
	.long	8                               @ 0x8
	.long	des_ede_info
	.size	des_ede_cbc_info, 28

	.type	des_ede3_cbc_info,%object       @ @des_ede3_cbc_info
	.section	.rodata.des_ede3_cbc_info,"a",%progbits
	.p2align	2
des_ede3_cbc_info:
	.byte	37                              @ 0x25
	.byte	2                               @ 0x2
	.zero	2
	.long	192                             @ 0xc0
	.long	.L.str.46
	.long	8                               @ 0x8
	.long	0                               @ 0x0
	.long	8                               @ 0x8
	.long	des_ede3_info
	.size	des_ede3_cbc_info, 28

	.hidden	mbedtls_cipher_definitions      @ @mbedtls_cipher_definitions
	.type	mbedtls_cipher_definitions,%object
	.section	.rodata.mbedtls_cipher_definitions,"a",%progbits
	.globl	mbedtls_cipher_definitions
	.p2align	2
mbedtls_cipher_definitions:
	.byte	2                               @ 0x2
	.zero	3
	.long	aes_128_ecb_info
	.byte	3                               @ 0x3
	.zero	3
	.long	aes_192_ecb_info
	.byte	4                               @ 0x4
	.zero	3
	.long	aes_256_ecb_info
	.byte	5                               @ 0x5
	.zero	3
	.long	aes_128_cbc_info
	.byte	6                               @ 0x6
	.zero	3
	.long	aes_192_cbc_info
	.byte	7                               @ 0x7
	.zero	3
	.long	aes_256_cbc_info
	.byte	8                               @ 0x8
	.zero	3
	.long	aes_128_cfb128_info
	.byte	9                               @ 0x9
	.zero	3
	.long	aes_192_cfb128_info
	.byte	10                              @ 0xa
	.zero	3
	.long	aes_256_cfb128_info
	.byte	11                              @ 0xb
	.zero	3
	.long	aes_128_ctr_info
	.byte	12                              @ 0xc
	.zero	3
	.long	aes_192_ctr_info
	.byte	13                              @ 0xd
	.zero	3
	.long	aes_256_ctr_info
	.byte	14                              @ 0xe
	.zero	3
	.long	aes_128_gcm_info
	.byte	15                              @ 0xf
	.zero	3
	.long	aes_192_gcm_info
	.byte	16                              @ 0x10
	.zero	3
	.long	aes_256_gcm_info
	.byte	43                              @ 0x2b
	.zero	3
	.long	aes_128_ccm_info
	.byte	44                              @ 0x2c
	.zero	3
	.long	aes_192_ccm_info
	.byte	45                              @ 0x2d
	.zero	3
	.long	aes_256_ccm_info
	.byte	42                              @ 0x2a
	.zero	3
	.long	arc4_128_info
	.byte	38                              @ 0x26
	.zero	3
	.long	blowfish_ecb_info
	.byte	39                              @ 0x27
	.zero	3
	.long	blowfish_cbc_info
	.byte	40                              @ 0x28
	.zero	3
	.long	blowfish_cfb64_info
	.byte	41                              @ 0x29
	.zero	3
	.long	blowfish_ctr_info
	.byte	17                              @ 0x11
	.zero	3
	.long	camellia_128_ecb_info
	.byte	18                              @ 0x12
	.zero	3
	.long	camellia_192_ecb_info
	.byte	19                              @ 0x13
	.zero	3
	.long	camellia_256_ecb_info
	.byte	20                              @ 0x14
	.zero	3
	.long	camellia_128_cbc_info
	.byte	21                              @ 0x15
	.zero	3
	.long	camellia_192_cbc_info
	.byte	22                              @ 0x16
	.zero	3
	.long	camellia_256_cbc_info
	.byte	23                              @ 0x17
	.zero	3
	.long	camellia_128_cfb128_info
	.byte	24                              @ 0x18
	.zero	3
	.long	camellia_192_cfb128_info
	.byte	25                              @ 0x19
	.zero	3
	.long	camellia_256_cfb128_info
	.byte	26                              @ 0x1a
	.zero	3
	.long	camellia_128_ctr_info
	.byte	27                              @ 0x1b
	.zero	3
	.long	camellia_192_ctr_info
	.byte	28                              @ 0x1c
	.zero	3
	.long	camellia_256_ctr_info
	.byte	29                              @ 0x1d
	.zero	3
	.long	camellia_128_gcm_info
	.byte	30                              @ 0x1e
	.zero	3
	.long	camellia_192_gcm_info
	.byte	31                              @ 0x1f
	.zero	3
	.long	camellia_256_gcm_info
	.byte	46                              @ 0x2e
	.zero	3
	.long	camellia_128_ccm_info
	.byte	47                              @ 0x2f
	.zero	3
	.long	camellia_192_ccm_info
	.byte	48                              @ 0x30
	.zero	3
	.long	camellia_256_ccm_info
	.byte	32                              @ 0x20
	.zero	3
	.long	des_ecb_info
	.byte	34                              @ 0x22
	.zero	3
	.long	des_ede_ecb_info
	.byte	36                              @ 0x24
	.zero	3
	.long	des_ede3_ecb_info
	.byte	33                              @ 0x21
	.zero	3
	.long	des_cbc_info
	.byte	35                              @ 0x23
	.zero	3
	.long	des_ede_cbc_info
	.byte	37                              @ 0x25
	.zero	3
	.long	des_ede3_cbc_info
	.zero	8
	.size	mbedtls_cipher_definitions, 384

	.hidden	mbedtls_cipher_supported        @ @mbedtls_cipher_supported
	.type	mbedtls_cipher_supported,%object
	.section	.bss.mbedtls_cipher_supported,"aw",%nobits
	.globl	mbedtls_cipher_supported
	.p2align	2
mbedtls_cipher_supported:
	.zero	192
	.size	mbedtls_cipher_supported, 192

	.type	.L.str,%object                  @ @.str
	.section	.rodata.str1.1,"aMS",%progbits,1
.L.str:
	.asciz	"AES-128-ECB"
	.size	.L.str, 12

	.type	aes_info,%object                @ @aes_info
	.section	.rodata.aes_info,"a",%progbits
	.p2align	2
aes_info:
	.byte	2                               @ 0x2
	.zero	3
	.long	aes_crypt_ecb_wrap
	.long	aes_crypt_cbc_wrap
	.long	aes_crypt_cfb128_wrap
	.long	aes_crypt_ctr_wrap
	.long	0
	.long	aes_setkey_enc_wrap
	.long	aes_setkey_dec_wrap
	.long	aes_ctx_alloc
	.long	aes_ctx_free
	.size	aes_info, 40

	.type	.L.str.1,%object                @ @.str.1
	.section	.rodata.str1.1,"aMS",%progbits,1
.L.str.1:
	.asciz	"AES-192-ECB"
	.size	.L.str.1, 12

	.type	.L.str.2,%object                @ @.str.2
.L.str.2:
	.asciz	"AES-256-ECB"
	.size	.L.str.2, 12

	.type	.L.str.3,%object                @ @.str.3
.L.str.3:
	.asciz	"AES-128-CBC"
	.size	.L.str.3, 12

	.type	.L.str.4,%object                @ @.str.4
.L.str.4:
	.asciz	"AES-192-CBC"
	.size	.L.str.4, 12

	.type	.L.str.5,%object                @ @.str.5
.L.str.5:
	.asciz	"AES-256-CBC"
	.size	.L.str.5, 12

	.type	.L.str.6,%object                @ @.str.6
.L.str.6:
	.asciz	"AES-128-CFB128"
	.size	.L.str.6, 15

	.type	.L.str.7,%object                @ @.str.7
.L.str.7:
	.asciz	"AES-192-CFB128"
	.size	.L.str.7, 15

	.type	.L.str.8,%object                @ @.str.8
.L.str.8:
	.asciz	"AES-256-CFB128"
	.size	.L.str.8, 15

	.type	.L.str.9,%object                @ @.str.9
.L.str.9:
	.asciz	"AES-128-CTR"
	.size	.L.str.9, 12

	.type	.L.str.10,%object               @ @.str.10
.L.str.10:
	.asciz	"AES-192-CTR"
	.size	.L.str.10, 12

	.type	.L.str.11,%object               @ @.str.11
.L.str.11:
	.asciz	"AES-256-CTR"
	.size	.L.str.11, 12

	.type	.L.str.12,%object               @ @.str.12
.L.str.12:
	.asciz	"AES-128-GCM"
	.size	.L.str.12, 12

	.type	gcm_aes_info,%object            @ @gcm_aes_info
	.section	.rodata.gcm_aes_info,"a",%progbits
	.p2align	2
gcm_aes_info:
	.byte	2                               @ 0x2
	.zero	3
	.long	0
	.long	0
	.long	0
	.long	0
	.long	0
	.long	gcm_aes_setkey_wrap
	.long	gcm_aes_setkey_wrap
	.long	gcm_ctx_alloc
	.long	gcm_ctx_free
	.size	gcm_aes_info, 40

	.type	.L.str.13,%object               @ @.str.13
	.section	.rodata.str1.1,"aMS",%progbits,1
.L.str.13:
	.asciz	"AES-192-GCM"
	.size	.L.str.13, 12

	.type	.L.str.14,%object               @ @.str.14
.L.str.14:
	.asciz	"AES-256-GCM"
	.size	.L.str.14, 12

	.type	.L.str.15,%object               @ @.str.15
.L.str.15:
	.asciz	"AES-128-CCM"
	.size	.L.str.15, 12

	.type	ccm_aes_info,%object            @ @ccm_aes_info
	.section	.rodata.ccm_aes_info,"a",%progbits
	.p2align	2
ccm_aes_info:
	.byte	2                               @ 0x2
	.zero	3
	.long	0
	.long	0
	.long	0
	.long	0
	.long	0
	.long	ccm_aes_setkey_wrap
	.long	ccm_aes_setkey_wrap
	.long	ccm_ctx_alloc
	.long	ccm_ctx_free
	.size	ccm_aes_info, 40

	.type	.L.str.16,%object               @ @.str.16
	.section	.rodata.str1.1,"aMS",%progbits,1
.L.str.16:
	.asciz	"AES-192-CCM"
	.size	.L.str.16, 12

	.type	.L.str.17,%object               @ @.str.17
.L.str.17:
	.asciz	"AES-256-CCM"
	.size	.L.str.17, 12

	.type	.L.str.18,%object               @ @.str.18
.L.str.18:
	.asciz	"ARC4-128"
	.size	.L.str.18, 9

	.type	arc4_base_info,%object          @ @arc4_base_info
	.section	.rodata.arc4_base_info,"a",%progbits
	.p2align	2
arc4_base_info:
	.byte	7                               @ 0x7
	.zero	3
	.long	0
	.long	0
	.long	0
	.long	0
	.long	arc4_crypt_stream_wrap
	.long	arc4_setkey_wrap
	.long	arc4_setkey_wrap
	.long	arc4_ctx_alloc
	.long	arc4_ctx_free
	.size	arc4_base_info, 40

	.type	.L.str.19,%object               @ @.str.19
	.section	.rodata.str1.1,"aMS",%progbits,1
.L.str.19:
	.asciz	"BLOWFISH-ECB"
	.size	.L.str.19, 13

	.type	blowfish_info,%object           @ @blowfish_info
	.section	.rodata.blowfish_info,"a",%progbits
	.p2align	2
blowfish_info:
	.byte	6                               @ 0x6
	.zero	3
	.long	blowfish_crypt_ecb_wrap
	.long	blowfish_crypt_cbc_wrap
	.long	blowfish_crypt_cfb64_wrap
	.long	blowfish_crypt_ctr_wrap
	.long	0
	.long	blowfish_setkey_wrap
	.long	blowfish_setkey_wrap
	.long	blowfish_ctx_alloc
	.long	blowfish_ctx_free
	.size	blowfish_info, 40

	.type	.L.str.20,%object               @ @.str.20
	.section	.rodata.str1.1,"aMS",%progbits,1
.L.str.20:
	.asciz	"BLOWFISH-CBC"
	.size	.L.str.20, 13

	.type	.L.str.21,%object               @ @.str.21
.L.str.21:
	.asciz	"BLOWFISH-CFB64"
	.size	.L.str.21, 15

	.type	.L.str.22,%object               @ @.str.22
.L.str.22:
	.asciz	"BLOWFISH-CTR"
	.size	.L.str.22, 13

	.type	.L.str.23,%object               @ @.str.23
.L.str.23:
	.asciz	"CAMELLIA-128-ECB"
	.size	.L.str.23, 17

	.type	camellia_info,%object           @ @camellia_info
	.section	.rodata.camellia_info,"a",%progbits
	.p2align	2
camellia_info:
	.byte	5                               @ 0x5
	.zero	3
	.long	camellia_crypt_ecb_wrap
	.long	camellia_crypt_cbc_wrap
	.long	camellia_crypt_cfb128_wrap
	.long	camellia_crypt_ctr_wrap
	.long	0
	.long	camellia_setkey_enc_wrap
	.long	camellia_setkey_dec_wrap
	.long	camellia_ctx_alloc
	.long	camellia_ctx_free
	.size	camellia_info, 40

	.type	.L.str.24,%object               @ @.str.24
	.section	.rodata.str1.1,"aMS",%progbits,1
.L.str.24:
	.asciz	"CAMELLIA-192-ECB"
	.size	.L.str.24, 17

	.type	.L.str.25,%object               @ @.str.25
.L.str.25:
	.asciz	"CAMELLIA-256-ECB"
	.size	.L.str.25, 17

	.type	.L.str.26,%object               @ @.str.26
.L.str.26:
	.asciz	"CAMELLIA-128-CBC"
	.size	.L.str.26, 17

	.type	.L.str.27,%object               @ @.str.27
.L.str.27:
	.asciz	"CAMELLIA-192-CBC"
	.size	.L.str.27, 17

	.type	.L.str.28,%object               @ @.str.28
.L.str.28:
	.asciz	"CAMELLIA-256-CBC"
	.size	.L.str.28, 17

	.type	.L.str.29,%object               @ @.str.29
.L.str.29:
	.asciz	"CAMELLIA-128-CFB128"
	.size	.L.str.29, 20

	.type	.L.str.30,%object               @ @.str.30
.L.str.30:
	.asciz	"CAMELLIA-192-CFB128"
	.size	.L.str.30, 20

	.type	.L.str.31,%object               @ @.str.31
.L.str.31:
	.asciz	"CAMELLIA-256-CFB128"
	.size	.L.str.31, 20

	.type	.L.str.32,%object               @ @.str.32
.L.str.32:
	.asciz	"CAMELLIA-128-CTR"
	.size	.L.str.32, 17

	.type	.L.str.33,%object               @ @.str.33
.L.str.33:
	.asciz	"CAMELLIA-192-CTR"
	.size	.L.str.33, 17

	.type	.L.str.34,%object               @ @.str.34
.L.str.34:
	.asciz	"CAMELLIA-256-CTR"
	.size	.L.str.34, 17

	.type	.L.str.35,%object               @ @.str.35
.L.str.35:
	.asciz	"CAMELLIA-128-GCM"
	.size	.L.str.35, 17

	.type	gcm_camellia_info,%object       @ @gcm_camellia_info
	.section	.rodata.gcm_camellia_info,"a",%progbits
	.p2align	2
gcm_camellia_info:
	.byte	5                               @ 0x5
	.zero	3
	.long	0
	.long	0
	.long	0
	.long	0
	.long	0
	.long	gcm_camellia_setkey_wrap
	.long	gcm_camellia_setkey_wrap
	.long	gcm_ctx_alloc
	.long	gcm_ctx_free
	.size	gcm_camellia_info, 40

	.type	.L.str.36,%object               @ @.str.36
	.section	.rodata.str1.1,"aMS",%progbits,1
.L.str.36:
	.asciz	"CAMELLIA-192-GCM"
	.size	.L.str.36, 17

	.type	.L.str.37,%object               @ @.str.37
.L.str.37:
	.asciz	"CAMELLIA-256-GCM"
	.size	.L.str.37, 17

	.type	.L.str.38,%object               @ @.str.38
.L.str.38:
	.asciz	"CAMELLIA-128-CCM"
	.size	.L.str.38, 17

	.type	ccm_camellia_info,%object       @ @ccm_camellia_info
	.section	.rodata.ccm_camellia_info,"a",%progbits
	.p2align	2
ccm_camellia_info:
	.byte	5                               @ 0x5
	.zero	3
	.long	0
	.long	0
	.long	0
	.long	0
	.long	0
	.long	ccm_camellia_setkey_wrap
	.long	ccm_camellia_setkey_wrap
	.long	ccm_ctx_alloc
	.long	ccm_ctx_free
	.size	ccm_camellia_info, 40

	.type	.L.str.39,%object               @ @.str.39
	.section	.rodata.str1.1,"aMS",%progbits,1
.L.str.39:
	.asciz	"CAMELLIA-192-CCM"
	.size	.L.str.39, 17

	.type	.L.str.40,%object               @ @.str.40
.L.str.40:
	.asciz	"CAMELLIA-256-CCM"
	.size	.L.str.40, 17

	.type	.L.str.41,%object               @ @.str.41
.L.str.41:
	.asciz	"DES-ECB"
	.size	.L.str.41, 8

	.type	des_info,%object                @ @des_info
	.section	.rodata.des_info,"a",%progbits
	.p2align	2
des_info:
	.byte	3                               @ 0x3
	.zero	3
	.long	des_crypt_ecb_wrap
	.long	des_crypt_cbc_wrap
	.long	0
	.long	0
	.long	0
	.long	des_setkey_enc_wrap
	.long	des_setkey_dec_wrap
	.long	des_ctx_alloc
	.long	des_ctx_free
	.size	des_info, 40

	.type	.L.str.42,%object               @ @.str.42
	.section	.rodata.str1.1,"aMS",%progbits,1
.L.str.42:
	.asciz	"DES-EDE-ECB"
	.size	.L.str.42, 12

	.type	des_ede_info,%object            @ @des_ede_info
	.section	.rodata.des_ede_info,"a",%progbits
	.p2align	2
des_ede_info:
	.byte	3                               @ 0x3
	.zero	3
	.long	des3_crypt_ecb_wrap
	.long	des3_crypt_cbc_wrap
	.long	0
	.long	0
	.long	0
	.long	des3_set2key_enc_wrap
	.long	des3_set2key_dec_wrap
	.long	des3_ctx_alloc
	.long	des3_ctx_free
	.size	des_ede_info, 40

	.type	.L.str.43,%object               @ @.str.43
	.section	.rodata.str1.1,"aMS",%progbits,1
.L.str.43:
	.asciz	"DES-EDE3-ECB"
	.size	.L.str.43, 13

	.type	des_ede3_info,%object           @ @des_ede3_info
	.section	.rodata.des_ede3_info,"a",%progbits
	.p2align	2
des_ede3_info:
	.byte	4                               @ 0x4
	.zero	3
	.long	des3_crypt_ecb_wrap
	.long	des3_crypt_cbc_wrap
	.long	0
	.long	0
	.long	0
	.long	des3_set3key_enc_wrap
	.long	des3_set3key_dec_wrap
	.long	des3_ctx_alloc
	.long	des3_ctx_free
	.size	des_ede3_info, 40

	.type	.L.str.44,%object               @ @.str.44
	.section	.rodata.str1.1,"aMS",%progbits,1
.L.str.44:
	.asciz	"DES-CBC"
	.size	.L.str.44, 8

	.type	.L.str.45,%object               @ @.str.45
.L.str.45:
	.asciz	"DES-EDE-CBC"
	.size	.L.str.45, 12

	.type	.L.str.46,%object               @ @.str.46
.L.str.46:
	.asciz	"DES-EDE3-CBC"
	.size	.L.str.46, 13

	.section	".note.GNU-stack","",%progbits
	.eabi_attribute	30, 1	@ Tag_ABI_optimization_goals
	.ARM_attribute	16, 1	@ Tag_AV_eba