	.text
	.syntax unified
	.eabi_attribute	67, "2.09"	@ Tag_conformance
	.cpu	cortex-m23
	.eabi_attribute	6, 16	@ Tag_CPU_arch
	.eabi_attribute	7, 77	@ Tag_CPU_arch_profile
	.eabi_attribute	8, 0	@ Tag_ARM_ISA_use
	.eabi_attribute	9, 3	@ Tag_THUMB_ISA_use
	.eabi_attribute	34, 0	@ Tag_CPU_unaligned_access
	.eabi_attribute	17, 1	@ Tag_ABI_PCS_GOT_use
	.eabi_attribute	20, 2	@ Tag_ABI_FP_denormal
	.eabi_attribute	21, 0	@ Tag_ABI_FP_exceptions
	.eabi_attribute	23, 1	@ Tag_ABI_FP_number_model
	.eabi_attribute	24, 1	@ Tag_ABI_align_needed
	.eabi_attribute	25, 1	@ Tag_ABI_align_preserved
	.eabi_attribute	38, 1	@ Tag_ABI_FP_16bit_format
	.eabi_attribute	18, 2	@ Tag_ABI_PCS_wchar_t
	.eabi_attribute	26, 1	@ Tag_ABI_enum_size
	.eabi_attribute	14, 0	@ Tag_ABI_PCS_R9_use
	.file	"crypto_aes.c"
	.file	1 "C:\\" "Keil_v5\\ARM\\ARMCLANG\\Bin\\..\\include\\stdint.h"
	.file	2 "C:\\Users\\shw26\\OneDrive\\Desktop\\2021\\2021-1\\\354\272\241\354\212\244\355\206\244\353\224\224\354\236\220\354\235\2702\\Nuvoton\\M2351_BSP_v3.00.004\\M2351Series_BSP_CMSIS_V3.00.004\\MyProject\\PulseMonitoring\\Secure" "./Crypto\\crypto_aes.h"
	.file	3 "C:\\Users\\shw26\\OneDrive\\Desktop\\2021\\2021-1\\\354\272\241\354\212\244\355\206\244\353\224\224\354\236\220\354\235\2702\\Nuvoton\\M2351_BSP_v3.00.004\\M2351Series_BSP_CMSIS_V3.00.004\\MyProject\\PulseMonitoring\\Secure" "Crypto/crypto_aes.c"
	.file	4 "C:\\Users\\shw26\\OneDrive\\Desktop\\2021\\2021-1\\\354\272\241\354\212\244\355\206\244\353\224\224\354\236\220\354\235\2702\\Nuvoton\\M2351_BSP_v3.00.004\\M2351Series_BSP_CMSIS_V3.00.004\\MyProject\\PulseMonitoring\\Secure" "../../../Library/Device/Nuvoton/M2351/Include\\M2351.h"
	.file	5 "C:\\Users\\shw26\\OneDrive\\Desktop\\2021\\2021-1\\\354\272\241\354\212\244\355\206\244\353\224\224\354\236\220\354\235\2702\\Nuvoton\\M2351_BSP_v3.00.004\\M2351Series_BSP_CMSIS_V3.00.004\\MyProject\\PulseMonitoring\\Secure" "../../../Library/StdDriver/inc\\crypto.h"
	.file	6 "C:\\Users\\shw26\\OneDrive\\Desktop\\2021\\2021-1\\\354\272\241\354\212\244\355\206\244\353\224\224\354\236\220\354\235\2702\\Nuvoton\\M2351_BSP_v3.00.004\\M2351Series_BSP_CMSIS_V3.00.004\\MyProject\\PulseMonitoring\\Secure" "../../../Library/Device/Nuvoton/M2351/Include/crpt_reg.h"
	.file	7 "C:\\Users\\shw26\\OneDrive\\Desktop\\2021\\2021-1\\\354\272\241\354\212\244\355\206\244\353\224\224\354\236\220\354\235\2702\\Nuvoton\\M2351_BSP_v3.00.004\\M2351Series_BSP_CMSIS_V3.00.004\\MyProject\\PulseMonitoring\\Secure" "../../../Library/CMSIS/Include\\core_armv8mbl.h"
	.file	8 "C:\\Users\\shw26\\OneDrive\\Desktop\\2021\\2021-1\\\354\272\241\354\212\244\355\206\244\353\224\224\354\236\220\354\235\2702\\Nuvoton\\M2351_BSP_v3.00.004\\M2351Series_BSP_CMSIS_V3.00.004\\MyProject\\PulseMonitoring\\Secure" "../../../Library/Device/Nuvoton/M2351/Include/fmc_reg.h"
	.file	9 "C:\\Users\\shw26\\OneDrive\\Desktop\\2021\\2021-1\\\354\272\241\354\212\244\355\206\244\353\224\224\354\236\220\354\235\2702\\Nuvoton\\M2351_BSP_v3.00.004\\M2351Series_BSP_CMSIS_V3.00.004\\MyProject\\PulseMonitoring\\Secure" "../../../Library/Device/Nuvoton/M2351/Include/sys_reg.h"
	.section	.text.CRPT_IRQHandler,"ax",%progbits
	.hidden	CRPT_IRQHandler                 @ -- Begin function CRPT_IRQHandler
	.globl	CRPT_IRQHandler
	.p2align	2
	.type	CRPT_IRQHandler,%function
	.code	16                              @ @CRPT_IRQHandler
	.thumb_func
CRPT_IRQHandler:
.Lfunc_begin0:
	.loc	3 39 0                          @ Crypto/crypto_aes.c:39:0
	.fnstart
	.cfi_sections .debug_frame
	.cfi_startproc
@ %bb.0:
	.save	{r7, lr}
	push	{r7, lr}
	.cfi_def_cfa_offset 8
	.cfi_offset lr, -4
	.cfi_offset r7, -8
	ldr	r0, __arm_cp.0_0
.Ltmp0:
	.loc	3 40 8 prologue_end             @ Crypto/crypto_aes.c:40:8
	ldr	r1, [r0]
.Ltmp1:
	.loc	3 40 8 is_stmt 0                @ Crypto/crypto_aes.c:40:8
	lsls	r1, r1, #30
	beq	.LBB0_2
@ %bb.1:
.Ltmp2:
	.loc	3 42 20 is_stmt 1               @ Crypto/crypto_aes.c:42:20
	ldr	r1, __arm_cp.0_1
	movs	r2, #1
	str	r2, [r1]
	movs	r1, #3
	.loc	3 43 9                          @ Crypto/crypto_aes.c:43:9
	str	r1, [r0]
.Ltmp3:
.LBB0_2:
	.loc	3 46 3                          @ Crypto/crypto_aes.c:46:3
	subs	r0, r0, #4
	bl	ECC_DriverISR
	.loc	3 48 1                          @ Crypto/crypto_aes.c:48:1
	pop	{r7, pc}
.Ltmp4:
	.p2align	2
@ %bb.3:
	.loc	3 0 1 is_stmt 0                 @ Crypto/crypto_aes.c:0:1
__arm_cp.0_0:
	.long	1073946628                      @ 0x40032004
.Lcpi_end0:
	.size	__arm_cp.0_0, .Lcpi_end0-__arm_cp.0_0
__arm_cp.0_1:
	.long	g_AES_done
.Lcpi_end1:
	.size	__arm_cp.0_1, .Lcpi_end1-__arm_cp.0_1
.Lfunc_end0:
	.size	CRPT_IRQHandler, .Lfunc_end0-CRPT_IRQHandler
	.cfi_endproc
	.cantunwind
	.fnend
                                        @ -- End function
	.section	.text.M2351_Crypto_Init,"ax",%progbits
	.hidden	M2351_Crypto_Init               @ -- Begin function M2351_Crypto_Init
	.globl	M2351_Crypto_Init
	.p2align	2
	.type	M2351_Crypto_Init,%function
	.code	16                              @ @M2351_Crypto_Init
	.thumb_func
M2351_Crypto_Init:
.Lfunc_begin1:
	.loc	3 51 0 is_stmt 1                @ Crypto/crypto_aes.c:51:0
	.fnstart
	.cfi_startproc
@ %bb.0:
	@DEBUG_VALUE: M2351_Crypto_Init:channel <- $r0
	@DEBUG_VALUE: M2351_Crypto_Init:modeAES <- $r1
	.save	{r4, r5, r7, lr}
	push	{r4, r5, r7, lr}
	.cfi_def_cfa_offset 16
	.cfi_offset lr, -4
	.cfi_offset r7, -8
	.cfi_offset r5, -12
	.cfi_offset r4, -16
	.pad	#8
	sub	sp, #8
	.cfi_def_cfa_offset 24
	mov	r4, r1
	mov	r5, r0
.Ltmp5:
	@DEBUG_VALUE: M2351_Crypto_Init:modeAES <- $r4
	@DEBUG_VALUE: M2351_Crypto_Init:channel <- $r5
	.loc	3 52 25 prologue_end            @ Crypto/crypto_aes.c:52:25
	cmp	r1, #2
	blo	.LBB1_2
.Ltmp6:
@ %bb.1:
	@DEBUG_VALUE: M2351_Crypto_Init:channel <- $r5
	@DEBUG_VALUE: M2351_Crypto_Init:modeAES <- $r4
	.loc	3 53 4                          @ Crypto/crypto_aes.c:53:4
	adr	r0, .LCPI1_0
	bl	puts
.Ltmp7:
.LBB1_2:
	@DEBUG_VALUE: M2351_Crypto_Init:channel <- $r5
	@DEBUG_VALUE: M2351_Crypto_Init:modeAES <- $r4
	.loc	3 55 3                          @ Crypto/crypto_aes.c:55:3
	bl	__NVIC_EnableIRQ
	ldr	r0, __arm_cp.1_1
	.loc	3 56 3                          @ Crypto/crypto_aes.c:56:3
	ldr	r1, [r0]
	movs	r2, #3
	orrs	r1, r2
	str	r1, [r0]
	movs	r1, #0
	.loc	3 58 3                          @ Crypto/crypto_aes.c:58:3
	str	r1, [sp]
	str	r2, [sp, #4]
	movs	r3, #1
	mov	r1, r5
	mov	r2, r4
	bl	AES_Open
	.loc	3 59 1                          @ Crypto/crypto_aes.c:59:1
	add	sp, #8
	pop	{r4, r5, r7, pc}
.Ltmp8:
	.p2align	2
@ %bb.3:
	.loc	3 0 1 is_stmt 0                 @ Crypto/crypto_aes.c:0:1
.LCPI1_0:
.Lstr:
	.asciz	"Error mode , mode must be ENCRYPT or DECRYPT value\000"
__arm_cp.1_1:
	.long	1073946624                      @ 0x40032000
.Lcpi_end2:
	.size	__arm_cp.1_1, .Lcpi_end2-__arm_cp.1_1
.Lfunc_end1:
	.size	M2351_Crypto_Init, .Lfunc_end1-M2351_Crypto_Init
	.cfi_endproc
	.cantunwind
	.fnend
                                        @ -- End function
	.section	.text.__NVIC_EnableIRQ,"ax",%progbits
	.p2align	2                               @ -- Begin function __NVIC_EnableIRQ
	.type	__NVIC_EnableIRQ,%function
	.code	16                              @ @__NVIC_EnableIRQ
	.thumb_func
__NVIC_EnableIRQ:
.Lfunc_begin2:
	.loc	7 1276 0 is_stmt 1              @ ../../../Library/CMSIS/Include\core_armv8mbl.h:1276:0
	.fnstart
	.cfi_startproc
@ %bb.0:
	ldr	r0, __arm_cp.2_0
	movs	r1, #128
	@DEBUG_VALUE: __NVIC_EnableIRQ:IRQn <- 71
.Ltmp9:
	.loc	7 1279 52 prologue_end          @ ../../../Library/CMSIS/Include\core_armv8mbl.h:1279:52
	str	r1, [r0]
.Ltmp10:
	.loc	7 1281 1                        @ ../../../Library/CMSIS/Include\core_armv8mbl.h:1281:1
	bx	lr
.Ltmp11:
	.p2align	2
@ %bb.1:
	.loc	7 0 1 is_stmt 0                 @ ../../../Library/CMSIS/Include\core_armv8mbl.h:0:1
__arm_cp.2_0:
	.long	3758153992                      @ 0xe000e108
.Lcpi_end3:
	.size	__arm_cp.2_0, .Lcpi_end3-__arm_cp.2_0
.Lfunc_end2:
	.size	__NVIC_EnableIRQ, .Lfunc_end2-__NVIC_EnableIRQ
	.cfi_endproc
	.cantunwind
	.fnend
                                        @ -- End function
	.section	.text.M2351_Crypto_UseMasterKey,"ax",%progbits
	.hidden	M2351_Crypto_UseMasterKey       @ -- Begin function M2351_Crypto_UseMasterKey
	.globl	M2351_Crypto_UseMasterKey
	.p2align	2
	.type	M2351_Crypto_UseMasterKey,%function
	.code	16                              @ @M2351_Crypto_UseMasterKey
	.thumb_func
M2351_Crypto_UseMasterKey:
.Lfunc_begin3:
	.loc	3 62 0 is_stmt 1                @ Crypto/crypto_aes.c:62:0
	.fnstart
	.cfi_startproc
@ %bb.0:
	.save	{r4, r5, r7, lr}
	push	{r4, r5, r7, lr}
	.cfi_def_cfa_offset 16
	.cfi_offset lr, -4
	.cfi_offset r7, -8
	.cfi_offset r5, -12
	.cfi_offset r4, -16
.Ltmp12:
	@DEBUG_VALUE: M2351_Crypto_UseMasterKey:u32Channel <- 1
	@DEBUG_VALUE: M2351_Crypto_UseMasterKey:key_reg_addr <- 1073946956
	.loc	3 73 5 prologue_end             @ Crypto/crypto_aes.c:73:5
	bl	FMC_Open
	movs	r4, #0
	.loc	3 75 3                          @ Crypto/crypto_aes.c:75:3
	mov	r0, r4
	bl	FMC_ReadUID
	ldr	r5, __arm_cp.3_0
	str	r0, [r5]
	movs	r0, #1
	.loc	3 76 3                          @ Crypto/crypto_aes.c:76:3
	bl	FMC_ReadUID
	str	r0, [r5, #4]
	movs	r0, #2
	.loc	3 77 3                          @ Crypto/crypto_aes.c:77:3
	bl	FMC_ReadUID
	str	r0, [r5, #8]
	.loc	3 78 3                          @ Crypto/crypto_aes.c:78:3
	mov	r0, r4
	bl	FMC_ReadUID
	str	r0, [r5, #12]
	.loc	3 83 5                          @ Crypto/crypto_aes.c:83:5
	bl	FMC_Close
.Ltmp13:
	@DEBUG_VALUE: M2351_Crypto_UseMasterKey:iv_reg_addr <- 1073946988
	.loc	3 94 3                          @ Crypto/crypto_aes.c:94:3
	str	r4, [r5, #32]
	.loc	3 95 3                          @ Crypto/crypto_aes.c:95:3
	str	r4, [r5, #36]
	.loc	3 96 3                          @ Crypto/crypto_aes.c:96:3
	str	r4, [r5, #40]
	.loc	3 97 3                          @ Crypto/crypto_aes.c:97:3
	str	r4, [r5, #44]
.Ltmp14:
	@DEBUG_VALUE: M2351_Crypto_UseMasterKey:crpt <- undef
	.loc	3 99 1                          @ Crypto/crypto_aes.c:99:1
	pop	{r4, r5, r7, pc}
.Ltmp15:
	.p2align	2
@ %bb.1:
	.loc	3 0 1 is_stmt 0                 @ Crypto/crypto_aes.c:0:1
__arm_cp.3_0:
	.long	1073946956                      @ 0x4003214c
.Lcpi_end4:
	.size	__arm_cp.3_0, .Lcpi_end4-__arm_cp.3_0
.Lfunc_end3:
	.size	M2351_Crypto_UseMasterKey, .Lfunc_end3-M2351_Crypto_UseMasterKey
	.cfi_endproc
	.cantunwind
	.fnend
                                        @ -- End function
	.section	.text.FMC_ReadUID,"ax",%progbits
	.p2align	2                               @ -- Begin function FMC_ReadUID
	.type	FMC_ReadUID,%function
	.code	16                              @ @FMC_ReadUID
	.thumb_func
FMC_ReadUID:
.Lfunc_begin4:
	.file	10 "C:\\Users\\shw26\\OneDrive\\Desktop\\2021\\2021-1\\\354\272\241\354\212\244\355\206\244\353\224\224\354\236\220\354\235\2702\\Nuvoton\\M2351_BSP_v3.00.004\\M2351Series_BSP_CMSIS_V3.00.004\\MyProject\\PulseMonitoring\\Secure" "../../../Library/StdDriver/inc\\fmc.h"
	.loc	10 396 0 is_stmt 1              @ ../../../Library/StdDriver/inc\fmc.h:396:0
	.fnstart
	.cfi_startproc
@ %bb.0:
	@DEBUG_VALUE: FMC_ReadUID:u8Index <- $r0
	ldr	r1, __arm_cp.4_0
	movs	r2, #4
	@DEBUG_VALUE: FMC_ReadUID:u8Index <- $r0
.Ltmp16:
	.loc	10 397 17 prologue_end          @ ../../../Library/StdDriver/inc\fmc.h:397:17
	str	r2, [r1, #4]
	.loc	10 398 18                       @ ../../../Library/StdDriver/inc\fmc.h:398:18
	subs	r2, r1, #4
	.loc	10 398 39 is_stmt 0             @ ../../../Library/StdDriver/inc\fmc.h:398:39
	lsls	r0, r0, #2
.Ltmp17:
	@DEBUG_VALUE: FMC_ReadUID:u8Index <- [DW_OP_LLVM_entry_value 1] $r0
	.loc	10 398 18                       @ ../../../Library/StdDriver/inc\fmc.h:398:18
	str	r0, [r2]
	movs	r0, #0
	.loc	10 399 17 is_stmt 1             @ ../../../Library/StdDriver/inc\fmc.h:399:17
	str	r0, [r1]
	movs	r0, #1
	.loc	10 400 17                       @ ../../../Library/StdDriver/inc\fmc.h:400:17
	str	r0, [r1, #8]
.Ltmp18:
.LBB4_1:                                @ =>This Inner Loop Header: Depth=1
	@DEBUG_VALUE: FMC_ReadUID:u8Index <- [DW_OP_LLVM_entry_value 1] $r0
	.loc	10 404 16                       @ ../../../Library/StdDriver/inc\fmc.h:404:16
	ldr	r0, [r1, #8]
	.loc	10 404 5 is_stmt 0              @ ../../../Library/StdDriver/inc\fmc.h:404:5
	cmp	r0, #0
	bne	.LBB4_1
.Ltmp19:
@ %bb.2:
	@DEBUG_VALUE: FMC_ReadUID:u8Index <- [DW_OP_LLVM_entry_value 1] $r0
	.loc	10 406 17 is_stmt 1             @ ../../../Library/StdDriver/inc\fmc.h:406:17
	ldr	r0, [r1]
	.loc	10 406 5 is_stmt 0              @ ../../../Library/StdDriver/inc\fmc.h:406:5
	bx	lr
.Ltmp20:
	.p2align	2
@ %bb.3:
	.loc	10 0 5                          @ ../../../Library/StdDriver/inc\fmc.h:0:5
__arm_cp.4_0:
	.long	1073790984                      @ 0x4000c008
.Lcpi_end5:
	.size	__arm_cp.4_0, .Lcpi_end5-__arm_cp.4_0
.Lfunc_end4:
	.size	FMC_ReadUID, .Lfunc_end4-FMC_ReadUID
	.cfi_endproc
	.cantunwind
	.fnend
                                        @ -- End function
	.section	.text.M2351_Crypto_UseSessionKey,"ax",%progbits
	.hidden	M2351_Crypto_UseSessionKey      @ -- Begin function M2351_Crypto_UseSessionKey
	.globl	M2351_Crypto_UseSessionKey
	.p2align	2
	.type	M2351_Crypto_UseSessionKey,%function
	.code	16                              @ @M2351_Crypto_UseSessionKey
	.thumb_func
M2351_Crypto_UseSessionKey:
.Lfunc_begin5:
	.loc	3 102 0 is_stmt 1               @ Crypto/crypto_aes.c:102:0
	.fnstart
	.cfi_startproc
@ %bb.0:
	@DEBUG_VALUE: M2351_Crypto_UseSessionKey:channel <- $r0
	.save	{r4, r5, r6, lr}
	push	{r4, r5, r6, lr}
	.cfi_def_cfa_offset 16
	.cfi_offset lr, -4
	.cfi_offset r6, -8
	.cfi_offset r5, -12
	.cfi_offset r4, -16
	.pad	#48
	sub	sp, #48
	.cfi_def_cfa_offset 64
	mov	r4, r0
	movs	r5, #0
.Ltmp21:
	@DEBUG_VALUE: M2351_Crypto_UseSessionKey:channel <- $r4
	.loc	3 104 10 prologue_end           @ Crypto/crypto_aes.c:104:10
	str	r5, [sp, #44]
	str	r5, [sp, #40]
	str	r5, [sp, #36]
	str	r5, [sp, #32]
.Ltmp22:
	.loc	3 120 3                         @ Crypto/crypto_aes.c:120:3
	adr	r0, .LCPI5_0
	bl	puts
	ldr	r0, __arm_cp.5_1
.Ltmp23:
	@DEBUG_VALUE: z <- 0
.LBB5_1:                                @ =>This Inner Loop Header: Depth=1
	@DEBUG_VALUE: M2351_Crypto_UseSessionKey:channel <- $r4
	@DEBUG_VALUE: z <- undef
	.loc	3 0 3 is_stmt 0                 @ Crypto/crypto_aes.c:0:3
	add	r1, sp, #32
.Ltmp24:
	.loc	3 126 19 is_stmt 1              @ Crypto/crypto_aes.c:126:19
	ldrb	r2, [r1, r5]
	.loc	3 126 39 is_stmt 0              @ Crypto/crypto_aes.c:126:39
	lsls	r2, r2, #24
	.loc	3 126 19                        @ Crypto/crypto_aes.c:126:19
	adds	r1, r1, r5
	.loc	3 126 49                        @ Crypto/crypto_aes.c:126:49
	ldrb	r3, [r1, #1]
	.loc	3 126 69                        @ Crypto/crypto_aes.c:126:69
	lsls	r3, r3, #16
	.loc	3 126 46                        @ Crypto/crypto_aes.c:126:46
	adds	r2, r3, r2
	.loc	3 126 79                        @ Crypto/crypto_aes.c:126:79
	ldrb	r3, [r1, #2]
	.loc	3 126 99                        @ Crypto/crypto_aes.c:126:99
	lsls	r3, r3, #8
	.loc	3 126 76                        @ Crypto/crypto_aes.c:126:76
	adds	r2, r2, r3
	.loc	3 126 107                       @ Crypto/crypto_aes.c:126:107
	ldrb	r1, [r1, #3]
	.loc	3 126 105                       @ Crypto/crypto_aes.c:126:105
	adds	r1, r2, r1
	add	r2, sp, #16
	.loc	3 126 16                        @ Crypto/crypto_aes.c:126:16
	str	r1, [r2, r5]
	.loc	3 127 19 is_stmt 1              @ Crypto/crypto_aes.c:127:19
	ldrb	r1, [r0, r5]
	.loc	3 127 38 is_stmt 0              @ Crypto/crypto_aes.c:127:38
	lsls	r1, r1, #24
	.loc	3 127 19                        @ Crypto/crypto_aes.c:127:19
	adds	r2, r0, r5
	.loc	3 127 48                        @ Crypto/crypto_aes.c:127:48
	ldrb	r3, [r2, #1]
	.loc	3 127 67                        @ Crypto/crypto_aes.c:127:67
	lsls	r3, r3, #16
	.loc	3 127 45                        @ Crypto/crypto_aes.c:127:45
	adds	r1, r3, r1
	.loc	3 127 77                        @ Crypto/crypto_aes.c:127:77
	ldrb	r3, [r2, #2]
	.loc	3 127 96                        @ Crypto/crypto_aes.c:127:96
	lsls	r3, r3, #8
	.loc	3 127 74                        @ Crypto/crypto_aes.c:127:74
	adds	r1, r1, r3
	.loc	3 127 104                       @ Crypto/crypto_aes.c:127:104
	ldrb	r2, [r2, #3]
	.loc	3 127 102                       @ Crypto/crypto_aes.c:127:102
	adds	r1, r1, r2
	mov	r2, sp
	.loc	3 127 16                        @ Crypto/crypto_aes.c:127:16
	str	r1, [r2, r5]
.Ltmp25:
	@DEBUG_VALUE: z <- [DW_OP_plus_uconst 1, DW_OP_stack_value] undef
	.loc	3 124 24 is_stmt 1              @ Crypto/crypto_aes.c:124:24
	adds	r5, r5, #4
.Ltmp26:
	.loc	3 124 2 is_stmt 0               @ Crypto/crypto_aes.c:124:2
	cmp	r5, #16
	bne	.LBB5_1
.Ltmp27:
@ %bb.2:
	@DEBUG_VALUE: M2351_Crypto_UseSessionKey:channel <- $r4
	.loc	3 0 2                           @ Crypto/crypto_aes.c:0:2
	ldr	r6, __arm_cp.5_2
	add	r2, sp, #16
	movs	r5, #0
	.loc	3 129 2 is_stmt 1               @ Crypto/crypto_aes.c:129:2
	mov	r0, r6
	mov	r1, r4
	mov	r3, r5
	bl	AES_SetKey
	mov	r2, sp
	.loc	3 130 2                         @ Crypto/crypto_aes.c:130:2
	mov	r0, r6
	mov	r1, r4
	bl	AES_SetInitVect
.Ltmp28:
	@DEBUG_VALUE: z <- 0
	.loc	3 133 52                        @ Crypto/crypto_aes.c:133:52
	str	r5, [sp, #44]
	str	r5, [sp, #40]
	str	r5, [sp, #36]
.Ltmp29:
	@DEBUG_VALUE: z <- undef
	.loc	3 136 16                        @ Crypto/crypto_aes.c:136:16
	str	r5, [sp, #16]
	str	r5, [sp, #20]
	str	r5, [sp, #24]
.Ltmp30:
	@DEBUG_VALUE: z <- undef
	.loc	3 140 1                         @ Crypto/crypto_aes.c:140:1
	add	sp, #48
	pop	{r4, r5, r6, pc}
.Ltmp31:
	.p2align	2
@ %bb.3:
	.loc	3 0 1 is_stmt 0                 @ Crypto/crypto_aes.c:0:1
.LCPI5_0:
.Lstr.36:
	.asciz	"|     Secure is running ... Use sessionKey    |"
__arm_cp.5_1:
	.long	sessionIv
.Lcpi_end6:
	.size	__arm_cp.5_1, .Lcpi_end6-__arm_cp.5_1
__arm_cp.5_2:
	.long	1073946624                      @ 0x40032000
.Lcpi_end7:
	.size	__arm_cp.5_2, .Lcpi_end7-__arm_cp.5_2
.Lfunc_end5:
	.size	M2351_Crypto_UseSessionKey, .Lfunc_end5-M2351_Crypto_UseSessionKey
	.cfi_endproc
	.cantunwind
	.fnend
                                        @ -- End function
	.section	.text.M2351_Encrypt_Data,"ax",%progbits
	.hidden	M2351_Encrypt_Data              @ -- Begin function M2351_Encrypt_Data
	.globl	M2351_Encrypt_Data
	.p2align	2
	.type	M2351_Encrypt_Data,%function
	.code	16                              @ @M2351_Encrypt_Data
	.thumb_func
M2351_Encrypt_Data:
.Lfunc_begin6:
	.loc	3 144 0 is_stmt 1               @ Crypto/crypto_aes.c:144:0
	.fnstart
	.cfi_startproc
@ %bb.0:
	@DEBUG_VALUE: M2351_Encrypt_Data:channel <- $r0
	@DEBUG_VALUE: M2351_Encrypt_Data:InputData <- $r1
	@DEBUG_VALUE: M2351_Encrypt_Data:OutputData <- $r2
	.save	{r4, r5, r6, lr}
	push	{r4, r5, r6, lr}
	.cfi_def_cfa_offset 16
	.cfi_offset lr, -4
	.cfi_offset r6, -8
	.cfi_offset r5, -12
	.cfi_offset r4, -16
	.pad	#8
	sub	sp, #8
	.cfi_def_cfa_offset 24
	mov	r3, r2
	mov	r2, r1
.Ltmp32:
	@DEBUG_VALUE: M2351_Encrypt_Data:OutputData <- [DW_OP_LLVM_entry_value 1] $r2
	mov	r4, r0
.Ltmp33:
	@DEBUG_VALUE: M2351_Encrypt_Data:OutputData <- $r3
	@DEBUG_VALUE: M2351_Encrypt_Data:InputData <- $r2
	@DEBUG_VALUE: M2351_Encrypt_Data:channel <- $r4
	movs	r0, #16
.Ltmp34:
	.loc	3 151 2 prologue_end            @ Crypto/crypto_aes.c:151:2
	str	r0, [sp]
	ldr	r5, __arm_cp.6_0
	mov	r0, r5
	mov	r1, r4
	@DEBUG_VALUE: M2351_Encrypt_Data:OutputData <- $r3
	@DEBUG_VALUE: M2351_Encrypt_Data:InputData <- $r2
	bl	AES_SetDMATransfer
.Ltmp35:
	.loc	3 161 13                        @ Crypto/crypto_aes.c:161:13
	ldr	r6, __arm_cp.6_1
	movs	r0, #0
	str	r0, [r6]
	movs	r2, #5
	.loc	3 163 2                         @ Crypto/crypto_aes.c:163:2
	mov	r0, r5
	mov	r1, r4
	bl	AES_Start
.Ltmp36:
.LBB6_1:                                @ =>This Inner Loop Header: Depth=1
	@DEBUG_VALUE: M2351_Encrypt_Data:channel <- $r4
	.loc	3 166 9                         @ Crypto/crypto_aes.c:166:9
	ldr	r0, [r6]
	.loc	3 166 2 is_stmt 0               @ Crypto/crypto_aes.c:166:2
	cmp	r0, #0
	beq	.LBB6_1
.Ltmp37:
@ %bb.2:
	@DEBUG_VALUE: M2351_Encrypt_Data:channel <- $r4
	.loc	3 170 1 is_stmt 1               @ Crypto/crypto_aes.c:170:1
	add	sp, #8
	pop	{r4, r5, r6, pc}
.Ltmp38:
	.p2align	2
@ %bb.3:
	.loc	3 0 1 is_stmt 0                 @ Crypto/crypto_aes.c:0:1
__arm_cp.6_0:
	.long	1073946624                      @ 0x40032000
.Lcpi_end8:
	.size	__arm_cp.6_0, .Lcpi_end8-__arm_cp.6_0
__arm_cp.6_1:
	.long	g_AES_done
.Lcpi_end9:
	.size	__arm_cp.6_1, .Lcpi_end9-__arm_cp.6_1
.Lfunc_end6:
	.size	M2351_Encrypt_Data, .Lfunc_end6-M2351_Encrypt_Data
	.cfi_endproc
	.cantunwind
	.fnend
                                        @ -- End function
	.section	.text.M2351_Decrypt_Data,"ax",%progbits
	.hidden	M2351_Decrypt_Data              @ -- Begin function M2351_Decrypt_Data
	.globl	M2351_Decrypt_Data
	.p2align	2
	.type	M2351_Decrypt_Data,%function
	.code	16                              @ @M2351_Decrypt_Data
	.thumb_func
M2351_Decrypt_Data:
.Lfunc_begin7:
	.loc	3 174 0 is_stmt 1               @ Crypto/crypto_aes.c:174:0
	.fnstart
	.cfi_startproc
@ %bb.0:
	@DEBUG_VALUE: M2351_Decrypt_Data:channel <- $r0
	@DEBUG_VALUE: M2351_Decrypt_Data:InputData <- $r1
	@DEBUG_VALUE: M2351_Decrypt_Data:OutputData <- $r2
	.save	{r4, r5, r6, lr}
	push	{r4, r5, r6, lr}
	.cfi_def_cfa_offset 16
	.cfi_offset lr, -4
	.cfi_offset r6, -8
	.cfi_offset r5, -12
	.cfi_offset r4, -16
	.pad	#8
	sub	sp, #8
	.cfi_def_cfa_offset 24
	mov	r3, r2
	mov	r2, r1
.Ltmp39:
	@DEBUG_VALUE: M2351_Decrypt_Data:OutputData <- [DW_OP_LLVM_entry_value 1] $r2
	mov	r4, r0
.Ltmp40:
	@DEBUG_VALUE: M2351_Decrypt_Data:OutputData <- $r3
	@DEBUG_VALUE: M2351_Decrypt_Data:InputData <- $r2
	@DEBUG_VALUE: M2351_Decrypt_Data:channel <- $r4
	movs	r0, #16
.Ltmp41:
	.loc	3 182 5 prologue_end            @ Crypto/crypto_aes.c:182:5
	str	r0, [sp]
	ldr	r5, __arm_cp.7_0
	mov	r0, r5
	mov	r1, r4
	@DEBUG_VALUE: M2351_Decrypt_Data:OutputData <- $r3
	@DEBUG_VALUE: M2351_Decrypt_Data:InputData <- $r2
	bl	AES_SetDMATransfer
.Ltmp42:
	.loc	3 191 16                        @ Crypto/crypto_aes.c:191:16
	ldr	r6, __arm_cp.7_1
	movs	r0, #0
	str	r0, [r6]
	movs	r2, #5
	.loc	3 193 5                         @ Crypto/crypto_aes.c:193:5
	mov	r0, r5
	mov	r1, r4
	bl	AES_Start
.Ltmp43:
.LBB7_1:                                @ =>This Inner Loop Header: Depth=1
	@DEBUG_VALUE: M2351_Decrypt_Data:channel <- $r4
	.loc	3 195 12                        @ Crypto/crypto_aes.c:195:12
	ldr	r0, [r6]
	.loc	3 195 5 is_stmt 0               @ Crypto/crypto_aes.c:195:5
	cmp	r0, #0
	beq	.LBB7_1
.Ltmp44:
@ %bb.2:
	@DEBUG_VALUE: M2351_Decrypt_Data:channel <- $r4
	.loc	3 199 1 is_stmt 1               @ Crypto/crypto_aes.c:199:1
	add	sp, #8
	pop	{r4, r5, r6, pc}
.Ltmp45:
	.p2align	2
@ %bb.3:
	.loc	3 0 1 is_stmt 0                 @ Crypto/crypto_aes.c:0:1
__arm_cp.7_0:
	.long	1073946624                      @ 0x40032000
.Lcpi_end10:
	.size	__arm_cp.7_0, .Lcpi_end10-__arm_cp.7_0
__arm_cp.7_1:
	.long	g_AES_done
.Lcpi_end11:
	.size	__arm_cp.7_1, .Lcpi_end11-__arm_cp.7_1
.Lfunc_end7:
	.size	M2351_Decrypt_Data, .Lfunc_end7-M2351_Decrypt_Data
	.cfi_endproc
	.cantunwind
	.fnend
                                        @ -- End function
	.section	.text.M2351_FMC_Read_Key,"ax",%progbits
	.hidden	M2351_FMC_Read_Key              @ -- Begin function M2351_FMC_Read_Key
	.globl	M2351_FMC_Read_Key
	.p2align	2
	.type	M2351_FMC_Read_Key,%function
	.code	16                              @ @M2351_FMC_Read_Key
	.thumb_func
M2351_FMC_Read_Key:
.Lfunc_begin8:
	.loc	3 206 0 is_stmt 1               @ Crypto/crypto_aes.c:206:0
	.fnstart
	.cfi_startproc
@ %bb.0:
	@DEBUG_VALUE: M2351_FMC_Read_Key:num <- $r0
	@DEBUG_VALUE: M2351_FMC_Read_Key:len <- $r1
	@DEBUG_VALUE: M2351_FMC_Read_Key:len <- $r1
	@DEBUG_VALUE: M2351_FMC_Read_Key:num <- $r0
	.save	{r4, r5, r6, r7, lr}
	push	{r4, r5, r6, r7, lr}
	.cfi_def_cfa_offset 20
	.cfi_offset lr, -4
	.cfi_offset r7, -8
	.cfi_offset r6, -12
	.cfi_offset r5, -16
	.cfi_offset r4, -20
	.pad	#12
	sub	sp, #12
	.cfi_def_cfa_offset 32
.Ltmp46:
	.loc	3 210 6 prologue_end            @ Crypto/crypto_aes.c:210:6
	lsrs	r0, r0, #8
.Ltmp47:
	@DEBUG_VALUE: M2351_FMC_Read_Key:num <- [DW_OP_LLVM_entry_value 1] $r0
	beq	.LBB8_2
.Ltmp48:
@ %bb.1:
	@DEBUG_VALUE: M2351_FMC_Read_Key:len <- $r1
	@DEBUG_VALUE: M2351_FMC_Read_Key:num <- [DW_OP_LLVM_entry_value 1] $r0
	.loc	3 212 7                         @ Crypto/crypto_aes.c:212:7
	adr	r0, .LCPI8_3
	bl	puts
.Ltmp49:
	@DEBUG_VALUE: M2351_FMC_Read_Key:len <- [DW_OP_LLVM_entry_value 1] $r1
	.loc	3 243 1                         @ Crypto/crypto_aes.c:243:1
	add	sp, #12
	pop	{r4, r5, r6, r7, pc}
.Ltmp50:
.LBB8_2:
	@DEBUG_VALUE: M2351_FMC_Read_Key:len <- $r1
	@DEBUG_VALUE: M2351_FMC_Read_Key:num <- [DW_OP_LLVM_entry_value 1] $r0
	.loc	3 0 1 is_stmt 0                 @ Crypto/crypto_aes.c:0:1
	mov	r4, r1
.Ltmp51:
	@DEBUG_VALUE: M2351_FMC_Read_Key:len <- $r4
	.loc	3 216 3 is_stmt 1               @ Crypto/crypto_aes.c:216:3
	bl	SYS_UnlockReg
	.loc	3 218 3                         @ Crypto/crypto_aes.c:218:3
	bl	FMC_Open
.Ltmp52:
	@DEBUG_VALUE: M2351_FMC_Read_Key:num <- 0
	.loc	3 220 2                         @ Crypto/crypto_aes.c:220:2
	cbz	r4, .LBB8_8
.Ltmp53:
@ %bb.3:
	@DEBUG_VALUE: M2351_FMC_Read_Key:len <- $r4
	@DEBUG_VALUE: M2351_FMC_Read_Key:num <- 0
	.loc	3 0 2 is_stmt 0                 @ Crypto/crypto_aes.c:0:2
	movs	r5, #0
	ldr	r6, __arm_cp.8_0
.Ltmp54:
.LBB8_4:                                @ =>This Inner Loop Header: Depth=1
	@DEBUG_VALUE: M2351_FMC_Read_Key:len <- $r4
	@DEBUG_VALUE: M2351_FMC_Read_Key:num <- $r5
	@DEBUG_VALUE: M2351_FMC_Read_Key:u32OtpHw <- [DW_OP_plus_uconst 8, DW_OP_deref] $sp
	@DEBUG_VALUE: M2351_FMC_Read_Key:u32OtpLw <- [DW_OP_plus_uconst 4, DW_OP_deref] $sp
	add	r1, sp, #4
	add	r2, sp, #8
.Ltmp55:
	.loc	3 222 6 is_stmt 1               @ Crypto/crypto_aes.c:222:6
	mov	r0, r5
	bl	FMC_Read_OTP
.Ltmp56:
	.loc	3 222 6 is_stmt 0               @ Crypto/crypto_aes.c:222:6
	cbnz	r0, .LBB8_10
.Ltmp57:
@ %bb.5:                                @   in Loop: Header=BB8_4 Depth=1
	@DEBUG_VALUE: M2351_FMC_Read_Key:num <- $r5
	@DEBUG_VALUE: M2351_FMC_Read_Key:len <- $r4
	@DEBUG_VALUE: M2351_FMC_Read_Key:u32OtpLw <- [DW_OP_plus_uconst 4, DW_OP_deref] $sp
	@DEBUG_VALUE: M2351_FMC_Read_Key:u32OtpHw <- [DW_OP_plus_uconst 8, DW_OP_deref] $sp
	.loc	3 227 30 is_stmt 1              @ Crypto/crypto_aes.c:227:30
	ldr	r0, [sp, #4]
.Ltmp58:
	@DEBUG_VALUE: M2351_FMC_Read_Key:u32OtpLw <- $r0
	.loc	3 227 28 is_stmt 0              @ Crypto/crypto_aes.c:227:28
	str	r0, [r6]
	.loc	3 228 30 is_stmt 1              @ Crypto/crypto_aes.c:228:30
	ldr	r0, [sp, #8]
.Ltmp59:
	@DEBUG_VALUE: M2351_FMC_Read_Key:u32OtpHw <- $r0
	.loc	3 228 28 is_stmt 0              @ Crypto/crypto_aes.c:228:28
	str	r0, [r6, #4]
.Ltmp60:
	.loc	3 220 20 is_stmt 1              @ Crypto/crypto_aes.c:220:20
	adds	r6, #8
	.loc	3 220 30 is_stmt 0              @ Crypto/crypto_aes.c:220:30
	adds	r5, r5, #1
.Ltmp61:
	@DEBUG_VALUE: M2351_FMC_Read_Key:num <- $r5
	.loc	3 220 2                         @ Crypto/crypto_aes.c:220:2
	cmp	r4, r5
	bne	.LBB8_4
.Ltmp62:
@ %bb.6:
	@DEBUG_VALUE: M2351_FMC_Read_Key:num <- $r5
	@DEBUG_VALUE: M2351_FMC_Read_Key:len <- $r4
	@DEBUG_VALUE: M2351_FMC_Read_Key:u32OtpHw <- $r0
	.loc	3 0 2                           @ Crypto/crypto_aes.c:0:2
	movs	r5, #0
.Ltmp63:
	ldr	r7, __arm_cp.8_0
	adr	r6, .LCPI8_2
.Ltmp64:
.LBB8_7:                                @ =>This Inner Loop Header: Depth=1
	@DEBUG_VALUE: M2351_FMC_Read_Key:len <- $r4
	@DEBUG_VALUE: M2351_FMC_Read_Key:num <- $r5
	.loc	3 231 48 is_stmt 1              @ Crypto/crypto_aes.c:231:48
	ldm	r7!, {r2, r3}
	.loc	3 231 3 is_stmt 0               @ Crypto/crypto_aes.c:231:3
	mov	r0, r6
	mov	r1, r5
	.loc	3 231 48                        @ Crypto/crypto_aes.c:231:48
	subs	r7, #8
	.loc	3 231 3                         @ Crypto/crypto_aes.c:231:3
	bl	__2printf
	.loc	3 230 20 is_stmt 1              @ Crypto/crypto_aes.c:230:20
	adds	r7, #8
	.loc	3 230 30 is_stmt 0              @ Crypto/crypto_aes.c:230:30
	adds	r5, r5, #1
.Ltmp65:
	@DEBUG_VALUE: M2351_FMC_Read_Key:num <- $r5
	.loc	3 230 2                         @ Crypto/crypto_aes.c:230:2
	cmp	r4, r5
	bne	.LBB8_7
.Ltmp66:
.LBB8_8:
	@DEBUG_VALUE: M2351_FMC_Read_Key:len <- $r4
	.loc	3 233 2 is_stmt 1               @ Crypto/crypto_aes.c:233:2
	bl	Reg2Hex
.Ltmp67:
	@DEBUG_VALUE: M2351_FMC_Read_Key:i <- 0
	.loc	3 236 2                         @ Crypto/crypto_aes.c:236:2
	lsls	r0, r4, #1
	beq	.LBB8_11
.Ltmp68:
@ %bb.9:
	@DEBUG_VALUE: M2351_FMC_Read_Key:len <- $r4
	@DEBUG_VALUE: M2351_FMC_Read_Key:i <- 0
	lsls	r1, r4, #3
.Ltmp69:
	.loc	3 237 20                        @ Crypto/crypto_aes.c:237:20
	ldr	r0, __arm_cp.8_0
	bl	__aeabi_memclr4
.Ltmp70:
	@DEBUG_VALUE: M2351_FMC_Read_Key:i <- undef
	.loc	3 0 20 is_stmt 0                @ Crypto/crypto_aes.c:0:20
	b	.LBB8_11
.Ltmp71:
.LBB8_10:
	@DEBUG_VALUE: M2351_FMC_Read_Key:num <- $r5
	@DEBUG_VALUE: M2351_FMC_Read_Key:len <- $r4
	@DEBUG_VALUE: M2351_FMC_Read_Key:u32OtpLw <- [DW_OP_plus_uconst 4, DW_OP_deref] $sp
	@DEBUG_VALUE: M2351_FMC_Read_Key:u32OtpHw <- [DW_OP_plus_uconst 8, DW_OP_deref] $sp
	@DEBUG_VALUE: M2351_FMC_Read_Key:num <- $r5
	.loc	3 224 5 is_stmt 1               @ Crypto/crypto_aes.c:224:5
	ldr	r0, __arm_cp.8_1
	mov	r1, r5
	bl	__2printf
.Ltmp72:
.LBB8_11:
	@DEBUG_VALUE: M2351_FMC_Read_Key:len <- $r4
	@DEBUG_LABEL: M2351_FMC_Read_Key:lexit
	.loc	3 240 3                         @ Crypto/crypto_aes.c:240:3
	bl	FMC_Close
	.loc	3 241 2                         @ Crypto/crypto_aes.c:241:2
	bl	SYS_LockReg
	.loc	3 243 1                         @ Crypto/crypto_aes.c:243:1
	add	sp, #12
	pop	{r4, r5, r6, r7, pc}
.Ltmp73:
	.p2align	2
@ %bb.12:
	.loc	3 0 1 is_stmt 0                 @ Crypto/crypto_aes.c:0:1
__arm_cp.8_0:
	.long	otpPrivateKey
.Lcpi_end12:
	.size	__arm_cp.8_0, .Lcpi_end12-__arm_cp.8_0
__arm_cp.8_1:
	.long	.L.str.3
.Lcpi_end13:
	.size	__arm_cp.8_1, .Lcpi_end13-__arm_cp.8_1
.LCPI8_2:
.L.str.4:
	.asciz	"Read OTP%d : 0x%08x-0x%08x.\n\000\000\000"
.LCPI8_3:
.Lstr.37:
	.asciz	"Invalid OTP number."
.Lfunc_end8:
	.size	M2351_FMC_Read_Key, .Lfunc_end8-M2351_FMC_Read_Key
	.cfi_endproc
	.cantunwind
	.fnend
                                        @ -- End function
	.section	.text.SYS_UnlockReg,"ax",%progbits
	.p2align	2                               @ -- Begin function SYS_UnlockReg
	.type	SYS_UnlockReg,%function
	.code	16                              @ @SYS_UnlockReg
	.thumb_func
SYS_UnlockReg:
.Lfunc_begin9:
	.file	11 "C:\\Users\\shw26\\OneDrive\\Desktop\\2021\\2021-1\\\354\272\241\354\212\244\355\206\244\353\224\224\354\236\220\354\235\2702\\Nuvoton\\M2351_BSP_v3.00.004\\M2351Series_BSP_CMSIS_V3.00.004\\MyProject\\PulseMonitoring\\Secure" "../../../Library/StdDriver/inc\\sys.h"
	.loc	11 3042 0 is_stmt 1             @ ../../../Library/StdDriver/inc\sys.h:3042:0
	.fnstart
	.cfi_startproc
@ %bb.0:
	.save	{r4, lr}
	push	{r4, lr}
	.cfi_def_cfa_offset 8
	.cfi_offset lr, -4
	.cfi_offset r4, -8
	ldr	r0, __arm_cp.9_0
	movs	r1, #89
	movs	r2, #22
	movs	r3, #136
.LBB9_1:                                @ =>This Inner Loop Header: Depth=1
.Ltmp74:
	.loc	11 3045 22 prologue_end         @ ../../../Library/StdDriver/inc\sys.h:3045:22
	str	r1, [r0]
	.loc	11 3046 22                      @ ../../../Library/StdDriver/inc\sys.h:3046:22
	str	r2, [r0]
	.loc	11 3047 22                      @ ../../../Library/StdDriver/inc\sys.h:3047:22
	str	r3, [r0]
.Ltmp75:
	.loc	11 3049 16                      @ ../../../Library/StdDriver/inc\sys.h:3049:16
	ldr	r4, [r0]
.Ltmp76:
	.loc	11 3048 5                       @ ../../../Library/StdDriver/inc\sys.h:3048:5
	cmp	r4, #0
	beq	.LBB9_1
.Ltmp77:
@ %bb.2:
	.loc	11 3050 1                       @ ../../../Library/StdDriver/inc\sys.h:3050:1
	pop	{r4, pc}
.Ltmp78:
	.p2align	2
@ %bb.3:
	.loc	11 0 1 is_stmt 0                @ ../../../Library/StdDriver/inc\sys.h:0:1
__arm_cp.9_0:
	.long	1073742080                      @ 0x40000100
.Lcpi_end14:
	.size	__arm_cp.9_0, .Lcpi_end14-__arm_cp.9_0
.Lfunc_end9:
	.size	SYS_UnlockReg, .Lfunc_end9-SYS_UnlockReg
	.cfi_endproc
	.cantunwind
	.fnend
                                        @ -- End function
	.section	.text.Reg2Hex,"ax",%progbits
	.p2align	2                               @ -- Begin function Reg2Hex
	.type	Reg2Hex,%function
	.code	16                              @ @Reg2Hex
	.thumb_func
Reg2Hex:
.Lfunc_begin10:
	.loc	3 20 0 is_stmt 1                @ Crypto/crypto_aes.c:20:0
	.fnstart
	.cfi_startproc
@ %bb.0:
	.save	{r4, r5, r6, r7, lr}
	push	{r4, r5, r6, r7, lr}
	.cfi_def_cfa_offset 20
	.cfi_offset lr, -4
	.cfi_offset r7, -8
	.cfi_offset r6, -12
	.cfi_offset r5, -16
	.cfi_offset r4, -20
	.pad	#20
	sub	sp, #20
	.cfi_def_cfa_offset 40
	movs	r0, #48
	@DEBUG_VALUE: Reg2Hex:count <- 48
.Ltmp79:
	.loc	3 24 19 prologue_end            @ Crypto/crypto_aes.c:24:19
	ldr	r1, __arm_cp.10_0
	movs	r2, #0
	strb	r2, [r1, r0]
	movs	r5, #47
	@DEBUG_VALUE: Reg2Hex:output <- undef
.Ltmp80:
	@DEBUG_VALUE: Reg2Hex:ri <- 0
	@DEBUG_VALUE: Reg2Hex:idx <- 47
	.loc	3 0 19 is_stmt 0                @ Crypto/crypto_aes.c:0:19
	movs	r0, #7
	str	r0, [sp, #4]                    @ 4-byte Spill
	str	r2, [sp, #8]                    @ 4-byte Spill
	b	.LBB10_2
.Ltmp81:
.LBB10_1:                               @   in Loop: Header=BB10_2 Depth=1
	@DEBUG_VALUE: Reg2Hex:ri <- $r2
	@DEBUG_VALUE: Reg2Hex:count <- 48
	@DEBUG_VALUE: Reg2Hex:idx <- $r5
	.loc	3 27 29 is_stmt 1               @ Crypto/crypto_aes.c:27:29
	adds	r2, r2, #1
.Ltmp82:
	@DEBUG_VALUE: Reg2Hex:ri <- $r2
	.loc	3 27 5 is_stmt 0                @ Crypto/crypto_aes.c:27:5
	cmp	r5, #0
	bmi	.LBB10_8
.Ltmp83:
.LBB10_2:                               @ =>This Loop Header: Depth=1
                                        @     Child Loop BB10_6 Depth 2
	@DEBUG_VALUE: Reg2Hex:count <- 48
	@DEBUG_VALUE: Reg2Hex:idx <- $r5
	@DEBUG_VALUE: Reg2Hex:ri <- $r2
	@DEBUG_VALUE: Reg2Hex:i <- 0
	.loc	3 29 9 is_stmt 1                @ Crypto/crypto_aes.c:29:9
	cmp	r5, #0
	bmi	.LBB10_1
.Ltmp84:
@ %bb.3:                                @   in Loop: Header=BB10_2 Depth=1
	@DEBUG_VALUE: Reg2Hex:idx <- $r5
	@DEBUG_VALUE: Reg2Hex:ri <- $r2
	@DEBUG_VALUE: Reg2Hex:i <- 0
	@DEBUG_VALUE: Reg2Hex:count <- 48
	.loc	3 0 9 is_stmt 0                 @ Crypto/crypto_aes.c:0:9
	str	r2, [sp, #12]                   @ 4-byte Spill
.Ltmp85:
	@DEBUG_VALUE: Reg2Hex:ri <- [DW_OP_plus_uconst 12] [$sp+0]
	lsls	r0, r2, #2
.Ltmp86:
	.loc	3 29 9                          @ Crypto/crypto_aes.c:29:9
	cmp	r5, #7
	mov	r1, r5
	blo	.LBB10_5
.Ltmp87:
@ %bb.4:                                @   in Loop: Header=BB10_2 Depth=1
	@DEBUG_VALUE: Reg2Hex:ri <- [DW_OP_plus_uconst 12] [$sp+0]
	@DEBUG_VALUE: Reg2Hex:idx <- $r5
	@DEBUG_VALUE: Reg2Hex:i <- 0
	@DEBUG_VALUE: Reg2Hex:count <- 48
	ldr	r1, [sp, #4]                    @ 4-byte Reload
.Ltmp88:
.LBB10_5:                               @   in Loop: Header=BB10_2 Depth=1
	@DEBUG_VALUE: Reg2Hex:ri <- [DW_OP_plus_uconst 12] [$sp+0]
	@DEBUG_VALUE: Reg2Hex:idx <- $r5
	@DEBUG_VALUE: Reg2Hex:i <- 0
	@DEBUG_VALUE: Reg2Hex:count <- 48
	.loc	3 0 0                           @ Crypto/crypto_aes.c:0:0
	ldr	r2, __arm_cp.10_1
	adds	r0, r2, r0
	.loc	3 29 9                          @ Crypto/crypto_aes.c:29:9
	str	r0, [sp, #16]                   @ 4-byte Spill
	adds	r6, r1, #1
	ldr	r7, __arm_cp.10_0
	ldr	r4, [sp, #8]                    @ 4-byte Reload
.Ltmp89:
.LBB10_6:                               @   Parent Loop BB10_2 Depth=1
                                        @ =>  This Inner Loop Header: Depth=2
	@DEBUG_VALUE: Reg2Hex:ri <- [DW_OP_plus_uconst 12] [$sp+0]
	@DEBUG_VALUE: Reg2Hex:count <- 48
	@DEBUG_VALUE: Reg2Hex:idx <- undef
	@DEBUG_VALUE: Reg2Hex:i <- $r4
	.loc	3 31 47 is_stmt 1               @ Crypto/crypto_aes.c:31:47
	ldr	r0, [sp, #16]                   @ 4-byte Reload
	ldr	r0, [r0]
	.loc	3 31 27 is_stmt 0               @ Crypto/crypto_aes.c:31:27
	mov	r1, r4
	bl	get_Nth_nibble_char
	.loc	3 31 25                         @ Crypto/crypto_aes.c:31:25
	strb	r0, [r7, r5]
.Ltmp90:
	.loc	3 29 32 is_stmt 1               @ Crypto/crypto_aes.c:29:32
	subs	r7, r7, #1
.Ltmp91:
	@DEBUG_VALUE: Reg2Hex:idx <- [DW_OP_constu 1, DW_OP_minus, DW_OP_stack_value] undef
	.loc	3 29 48 is_stmt 0               @ Crypto/crypto_aes.c:29:48
	adds	r4, r4, #1
.Ltmp92:
	@DEBUG_VALUE: Reg2Hex:i <- $r4
	.loc	3 29 9                          @ Crypto/crypto_aes.c:29:9
	cmp	r6, r4
	bne	.LBB10_6
.Ltmp93:
@ %bb.7:                                @   in Loop: Header=BB10_2 Depth=1
	@DEBUG_VALUE: Reg2Hex:ri <- [DW_OP_plus_uconst 12] [$sp+0]
	@DEBUG_VALUE: Reg2Hex:i <- $r4
	@DEBUG_VALUE: Reg2Hex:count <- 48
	.loc	3 27 29 is_stmt 1               @ Crypto/crypto_aes.c:27:29
	subs	r5, r5, r4
	ldr	r2, [sp, #12]                   @ 4-byte Reload
.Ltmp94:
	@DEBUG_VALUE: Reg2Hex:ri <- $r2
	.loc	3 0 29 is_stmt 0                @ Crypto/crypto_aes.c:0:29
	b	.LBB10_1
.Ltmp95:
.LBB10_8:
	@DEBUG_VALUE: Reg2Hex:idx <- $r5
	@DEBUG_VALUE: Reg2Hex:ri <- $r2
	@DEBUG_VALUE: Reg2Hex:count <- 48
	.loc	3 35 1 is_stmt 1                @ Crypto/crypto_aes.c:35:1
	add	sp, #20
	pop	{r4, r5, r6, r7, pc}
.Ltmp96:
	.p2align	2
@ %bb.9:
	.loc	3 0 1 is_stmt 0                 @ Crypto/crypto_aes.c:0:1
__arm_cp.10_0:
	.long	d
.Lcpi_end15:
	.size	__arm_cp.10_0, .Lcpi_end15-__arm_cp.10_0
__arm_cp.10_1:
	.long	otpPrivateKey
.Lcpi_end16:
	.size	__arm_cp.10_1, .Lcpi_end16-__arm_cp.10_1
.Lfunc_end10:
	.size	Reg2Hex, .Lfunc_end10-Reg2Hex
	.cfi_endproc
	.cantunwind
	.fnend
                                        @ -- End function
	.section	.text.SYS_LockReg,"ax",%progbits
	.p2align	2                               @ -- Begin function SYS_LockReg
	.type	SYS_LockReg,%function
	.code	16                              @ @SYS_LockReg
	.thumb_func
SYS_LockReg:
.Lfunc_begin11:
	.loc	11 3060 0 is_stmt 1             @ ../../../Library/StdDriver/inc\sys.h:3060:0
	.fnstart
	.cfi_startproc
@ %bb.0:
	ldr	r0, __arm_cp.11_0
	movs	r1, #0
.Ltmp97:
	.loc	11 3061 18 prologue_end         @ ../../../Library/StdDriver/inc\sys.h:3061:18
	str	r1, [r0]
	.loc	11 3062 1                       @ ../../../Library/StdDriver/inc\sys.h:3062:1
	bx	lr
.Ltmp98:
	.p2align	2
@ %bb.1:
	.loc	11 0 1 is_stmt 0                @ ../../../Library/StdDriver/inc\sys.h:0:1
__arm_cp.11_0:
	.long	1073742080                      @ 0x40000100
.Lcpi_end17:
	.size	__arm_cp.11_0, .Lcpi_end17-__arm_cp.11_0
.Lfunc_end11:
	.size	SYS_LockReg, .Lfunc_end11-SYS_LockReg
	.cfi_endproc
	.cantunwind
	.fnend
                                        @ -- End function
	.section	.text.M2351_FMC_Write_Key,"ax",%progbits
	.hidden	M2351_FMC_Write_Key             @ -- Begin function M2351_FMC_Write_Key
	.globl	M2351_FMC_Write_Key
	.p2align	2
	.type	M2351_FMC_Write_Key,%function
	.code	16                              @ @M2351_FMC_Write_Key
	.thumb_func
M2351_FMC_Write_Key:
.Lfunc_begin12:
	.loc	3 246 0 is_stmt 1               @ Crypto/crypto_aes.c:246:0
	.fnstart
	.cfi_startproc
@ %bb.0:
	.save	{r4, r5, r6, lr}
	push	{r4, r5, r6, lr}
	.cfi_def_cfa_offset 16
	.cfi_offset lr, -4
	.cfi_offset r6, -8
	.cfi_offset r5, -12
	.cfi_offset r4, -16
	.pad	#8
	sub	sp, #8
	.cfi_def_cfa_offset 24
.Ltmp99:
	.loc	3 249 5 prologue_end            @ Crypto/crypto_aes.c:249:5
	bl	SYS_UnlockReg
	.loc	3 251 5                         @ Crypto/crypto_aes.c:251:5
	bl	FMC_Open
	movs	r4, #0
	movw	r5, #256
.Ltmp100:
	@DEBUG_VALUE: M2351_FMC_Write_Key:u32i <- 0
.LBB12_1:                               @ =>This Inner Loop Header: Depth=1
	@DEBUG_VALUE: M2351_FMC_Write_Key:u32i <- $r4
	@DEBUG_VALUE: M2351_FMC_Write_Key:u32OtpHw <- [DW_OP_plus_uconst 4, DW_OP_deref] $sp
	@DEBUG_VALUE: M2351_FMC_Write_Key:u32OtpLw <- [DW_OP_deref] $sp
	.loc	3 0 5 is_stmt 0                 @ Crypto/crypto_aes.c:0:5
	mov	r1, sp
	add	r2, sp, #4
.Ltmp101:
	.loc	3 255 12 is_stmt 1              @ Crypto/crypto_aes.c:255:12
	mov	r0, r4
	bl	FMC_Read_OTP
.Ltmp102:
	.loc	3 255 12 is_stmt 0              @ Crypto/crypto_aes.c:255:12
	cbnz	r0, .LBB12_7
.Ltmp103:
@ %bb.2:                                @   in Loop: Header=BB12_1 Depth=1
	@DEBUG_VALUE: M2351_FMC_Write_Key:u32i <- $r4
	@DEBUG_VALUE: M2351_FMC_Write_Key:u32OtpLw <- [DW_OP_deref] $sp
	@DEBUG_VALUE: M2351_FMC_Write_Key:u32OtpHw <- [DW_OP_plus_uconst 4, DW_OP_deref] $sp
	.loc	3 261 13 is_stmt 1              @ Crypto/crypto_aes.c:261:13
	ldr	r0, [sp]
.Ltmp104:
	@DEBUG_VALUE: M2351_FMC_Write_Key:u32OtpLw <- $r0
	.loc	3 0 13 is_stmt 0                @ Crypto/crypto_aes.c:0:13
	ldr	r1, [sp, #4]
.Ltmp105:
	@DEBUG_VALUE: M2351_FMC_Write_Key:u32OtpHw <- $r1
	.loc	3 261 37                        @ Crypto/crypto_aes.c:261:37
	ands	r1, r0
.Ltmp106:
	adds	r0, r1, #1
.Ltmp107:
	beq	.LBB12_8
.Ltmp108:
@ %bb.3:                                @   in Loop: Header=BB12_1 Depth=1
	@DEBUG_VALUE: M2351_FMC_Write_Key:u32i <- $r4
	.loc	3 253 49 is_stmt 1              @ Crypto/crypto_aes.c:253:49
	adds	r4, r4, #1
.Ltmp109:
	@DEBUG_VALUE: M2351_FMC_Write_Key:u32i <- $r4
	.loc	3 253 5 is_stmt 0               @ Crypto/crypto_aes.c:253:5
	cmp	r5, r4
	bne	.LBB12_1
.Ltmp110:
@ %bb.4:
	@DEBUG_VALUE: M2351_FMC_Write_Key:u32i <- $r4
	.loc	3 0 5                           @ Crypto/crypto_aes.c:0:5
	movw	r4, #256
.Ltmp111:
	.loc	3 268 8 is_stmt 1               @ Crypto/crypto_aes.c:268:8
	cmp	r4, r5
	beq	.LBB12_9
.LBB12_5:
	.loc	3 0 8 is_stmt 0                 @ Crypto/crypto_aes.c:0:8
	ldr	r6, __arm_cp.12_2
	.loc	3 274 66 is_stmt 1              @ Crypto/crypto_aes.c:274:66
	orrs	r6, r4
	ldr	r5, __arm_cp.12_3
	.loc	3 274 85 is_stmt 0              @ Crypto/crypto_aes.c:274:85
	orrs	r5, r4
	.loc	3 274 5                         @ Crypto/crypto_aes.c:274:5
	adr	r0, .LCPI12_4
	mov	r1, r4
	mov	r2, r6
	mov	r3, r5
	bl	__2printf
.Ltmp112:
	.loc	3 276 8 is_stmt 1               @ Crypto/crypto_aes.c:276:8
	mov	r0, r4
	mov	r1, r6
	mov	r2, r5
	bl	FMC_Write_OTP
.Ltmp113:
	.loc	3 276 8 is_stmt 0               @ Crypto/crypto_aes.c:276:8
	cbz	r0, .LBB12_11
@ %bb.6:
.Ltmp114:
	.loc	3 278 9 is_stmt 1               @ Crypto/crypto_aes.c:278:9
	adr	r0, .LCPI12_5
	mov	r1, r4
	bl	__2printf
	.loc	3 279 9                         @ Crypto/crypto_aes.c:279:9
	b	.LBB12_10
.Ltmp115:
.LBB12_7:
	@DEBUG_VALUE: M2351_FMC_Write_Key:u32i <- $r4
	@DEBUG_VALUE: M2351_FMC_Write_Key:u32OtpLw <- [DW_OP_deref] $sp
	@DEBUG_VALUE: M2351_FMC_Write_Key:u32OtpHw <- [DW_OP_plus_uconst 4, DW_OP_deref] $sp
	@DEBUG_VALUE: M2351_FMC_Write_Key:u32i <- $r4
	.loc	3 257 13                        @ Crypto/crypto_aes.c:257:13
	ldr	r0, __arm_cp.12_0
	mov	r1, r4
	bl	__2printf
	.loc	3 258 13                        @ Crypto/crypto_aes.c:258:13
	b	.LBB12_10
.Ltmp116:
.LBB12_8:
	@DEBUG_VALUE: M2351_FMC_Write_Key:u32i <- $r4
	@DEBUG_VALUE: M2351_FMC_Write_Key:u32i <- $r4
	.loc	3 263 13                        @ Crypto/crypto_aes.c:263:13
	adr	r0, .LCPI12_1
	mov	r1, r4
	bl	__2printf
.Ltmp117:
	.loc	3 268 8                         @ Crypto/crypto_aes.c:268:8
	cmp	r4, r5
	bne	.LBB12_5
.Ltmp118:
.LBB12_9:
	.loc	3 270 9                         @ Crypto/crypto_aes.c:270:9
	ldr	r0, __arm_cp.12_14
	bl	puts
.Ltmp119:
.LBB12_10:
	@DEBUG_LABEL: M2351_FMC_Write_Key:lexit
	.loc	3 321 5                         @ Crypto/crypto_aes.c:321:5
	bl	FMC_Close
	.loc	3 322 5                         @ Crypto/crypto_aes.c:322:5
	bl	SYS_LockReg
	.loc	3 324 1                         @ Crypto/crypto_aes.c:324:1
	add	sp, #8
	pop	{r4, r5, r6, pc}
.LBB12_11:
.Ltmp120:
	@DEBUG_VALUE: M2351_FMC_Write_Key:u32OtpHw <- [DW_OP_plus_uconst 4, DW_OP_deref] $sp
	@DEBUG_VALUE: M2351_FMC_Write_Key:u32OtpLw <- [DW_OP_deref] $sp
	.loc	3 0 1 is_stmt 0                 @ Crypto/crypto_aes.c:0:1
	mov	r1, sp
	add	r2, sp, #4
.Ltmp121:
	.loc	3 282 8 is_stmt 1               @ Crypto/crypto_aes.c:282:8
	mov	r0, r4
	bl	FMC_Read_OTP
.Ltmp122:
	.loc	3 282 8 is_stmt 0               @ Crypto/crypto_aes.c:282:8
	cbz	r0, .LBB12_13
.Ltmp123:
@ %bb.12:
	@DEBUG_VALUE: M2351_FMC_Write_Key:u32OtpLw <- [DW_OP_deref] $sp
	@DEBUG_VALUE: M2351_FMC_Write_Key:u32OtpHw <- [DW_OP_plus_uconst 4, DW_OP_deref] $sp
	.loc	3 284 9 is_stmt 1               @ Crypto/crypto_aes.c:284:9
	ldr	r0, __arm_cp.12_6
	mov	r1, r4
	bl	__2printf
	.loc	3 285 9                         @ Crypto/crypto_aes.c:285:9
	b	.LBB12_10
.Ltmp124:
.LBB12_13:
	@DEBUG_VALUE: M2351_FMC_Write_Key:u32OtpLw <- [DW_OP_deref] $sp
	@DEBUG_VALUE: M2351_FMC_Write_Key:u32OtpHw <- [DW_OP_plus_uconst 4, DW_OP_deref] $sp
	.loc	3 288 61                        @ Crypto/crypto_aes.c:288:61
	ldr	r3, [sp, #4]
.Ltmp125:
	@DEBUG_VALUE: M2351_FMC_Write_Key:u32OtpHw <- $r3
	.loc	3 288 51 is_stmt 0              @ Crypto/crypto_aes.c:288:51
	ldr	r2, [sp]
.Ltmp126:
	@DEBUG_VALUE: M2351_FMC_Write_Key:u32OtpLw <- $r2
	.loc	3 288 5                         @ Crypto/crypto_aes.c:288:5
	ldr	r0, __arm_cp.12_7
	mov	r1, r4
	bl	__2printf
.Ltmp127:
	.loc	3 290 9 is_stmt 1               @ Crypto/crypto_aes.c:290:9
	ldr	r0, [sp]
.Ltmp128:
	@DEBUG_VALUE: M2351_FMC_Write_Key:u32OtpLw <- $r0
	@DEBUG_VALUE: M2351_FMC_Write_Key:u32OtpHw <- undef
	.loc	3 290 42 is_stmt 0              @ Crypto/crypto_aes.c:290:42
	cmp	r0, r6
	bne	.LBB12_17
.Ltmp129:
@ %bb.14:
	@DEBUG_VALUE: M2351_FMC_Write_Key:u32OtpLw <- $r0
	.loc	3 0 42                          @ Crypto/crypto_aes.c:0:42
	ldr	r0, [sp, #4]
.Ltmp130:
	@DEBUG_VALUE: M2351_FMC_Write_Key:u32OtpHw <- $r0
	.loc	3 290 42                        @ Crypto/crypto_aes.c:290:42
	cmp	r0, r5
	bne	.LBB12_17
.Ltmp131:
@ %bb.15:
	@DEBUG_VALUE: M2351_FMC_Write_Key:u32OtpHw <- $r0
	.loc	3 296 5 is_stmt 1               @ Crypto/crypto_aes.c:296:5
	adr	r0, .LCPI12_9
.Ltmp132:
	mov	r1, r4
	bl	__2printf
.Ltmp133:
	.loc	3 298 8                         @ Crypto/crypto_aes.c:298:8
	mov	r0, r4
	bl	FMC_Lock_OTP
.Ltmp134:
	.loc	3 298 8 is_stmt 0               @ Crypto/crypto_aes.c:298:8
	cbz	r0, .LBB12_18
@ %bb.16:
.Ltmp135:
	.loc	3 300 9 is_stmt 1               @ Crypto/crypto_aes.c:300:9
	ldr	r0, __arm_cp.12_10
	mov	r1, r4
	bl	__2printf
	.loc	3 301 9                         @ Crypto/crypto_aes.c:301:9
	b	.LBB12_10
.Ltmp136:
.LBB12_17:
	.loc	3 292 9                         @ Crypto/crypto_aes.c:292:9
	ldr	r0, __arm_cp.12_8
	mov	r1, r4
	bl	__2printf
	.loc	3 293 9                         @ Crypto/crypto_aes.c:293:9
	b	.LBB12_10
.Ltmp137:
.LBB12_18:
	@DEBUG_VALUE: M2351_FMC_Write_Key:u32OtpHw <- [DW_OP_plus_uconst 4, DW_OP_deref] $sp
	@DEBUG_VALUE: M2351_FMC_Write_Key:u32OtpLw <- [DW_OP_deref] $sp
	.loc	3 0 9 is_stmt 0                 @ Crypto/crypto_aes.c:0:9
	mov	r1, sp
	add	r2, sp, #4
.Ltmp138:
	.loc	3 304 8 is_stmt 1               @ Crypto/crypto_aes.c:304:8
	mov	r0, r4
	bl	FMC_Read_OTP
.Ltmp139:
	.loc	3 304 8 is_stmt 0               @ Crypto/crypto_aes.c:304:8
	cbz	r0, .LBB12_20
.Ltmp140:
@ %bb.19:
	@DEBUG_VALUE: M2351_FMC_Write_Key:u32OtpLw <- [DW_OP_deref] $sp
	@DEBUG_VALUE: M2351_FMC_Write_Key:u32OtpHw <- [DW_OP_plus_uconst 4, DW_OP_deref] $sp
	.loc	3 306 9 is_stmt 1               @ Crypto/crypto_aes.c:306:9
	ldr	r0, __arm_cp.12_6
	mov	r1, r4
	bl	__2printf
	.loc	3 307 9                         @ Crypto/crypto_aes.c:307:9
	b	.LBB12_10
.Ltmp141:
.LBB12_20:
	@DEBUG_VALUE: M2351_FMC_Write_Key:u32OtpLw <- [DW_OP_deref] $sp
	@DEBUG_VALUE: M2351_FMC_Write_Key:u32OtpHw <- [DW_OP_plus_uconst 4, DW_OP_deref] $sp
	.loc	3 310 69                        @ Crypto/crypto_aes.c:310:69
	ldr	r3, [sp, #4]
.Ltmp142:
	@DEBUG_VALUE: M2351_FMC_Write_Key:u32OtpHw <- $r3
	.loc	3 310 59 is_stmt 0              @ Crypto/crypto_aes.c:310:59
	ldr	r2, [sp]
.Ltmp143:
	@DEBUG_VALUE: M2351_FMC_Write_Key:u32OtpLw <- $r2
	.loc	3 310 5                         @ Crypto/crypto_aes.c:310:5
	ldr	r0, __arm_cp.12_11
	mov	r1, r4
	bl	__2printf
.Ltmp144:
	.loc	3 312 9 is_stmt 1               @ Crypto/crypto_aes.c:312:9
	ldr	r0, [sp]
.Ltmp145:
	@DEBUG_VALUE: M2351_FMC_Write_Key:u32OtpLw <- $r0
	@DEBUG_VALUE: M2351_FMC_Write_Key:u32OtpHw <- undef
	.loc	3 312 42 is_stmt 0              @ Crypto/crypto_aes.c:312:42
	cmp	r0, r6
	bne	.LBB12_23
.Ltmp146:
@ %bb.21:
	@DEBUG_VALUE: M2351_FMC_Write_Key:u32OtpLw <- $r0
	.loc	3 0 42                          @ Crypto/crypto_aes.c:0:42
	ldr	r0, [sp, #4]
.Ltmp147:
	@DEBUG_VALUE: M2351_FMC_Write_Key:u32OtpHw <- $r0
	.loc	3 312 42                        @ Crypto/crypto_aes.c:312:42
	cmp	r0, r5
	bne	.LBB12_23
.Ltmp148:
@ %bb.22:
	@DEBUG_VALUE: M2351_FMC_Write_Key:u32OtpHw <- $r0
	.loc	3 318 5 is_stmt 1               @ Crypto/crypto_aes.c:318:5
	ldr	r0, __arm_cp.12_13
.Ltmp149:
	bl	puts
	b	.LBB12_10
.LBB12_23:
.Ltmp150:
	.loc	3 314 9                         @ Crypto/crypto_aes.c:314:9
	ldr	r0, __arm_cp.12_12
	mov	r1, r4
	bl	__2printf
	.loc	3 315 9                         @ Crypto/crypto_aes.c:315:9
	b	.LBB12_10
.Ltmp151:
	.p2align	2
@ %bb.24:
	.loc	3 0 9 is_stmt 0                 @ Crypto/crypto_aes.c:0:9
__arm_cp.12_0:
	.long	.L.str.3
.Lcpi_end18:
	.size	__arm_cp.12_0, .Lcpi_end18-__arm_cp.12_0
.LCPI12_1:
.L.str.5:
	.asciz	"OTP%d is 0xFFFFFFFF-0xFFFFFFFF. It should be a free entry.\n"
__arm_cp.12_2:
	.long	1515847680                      @ 0x5a5a0000
.Lcpi_end19:
	.size	__arm_cp.12_2, .Lcpi_end19-__arm_cp.12_2
__arm_cp.12_3:
	.long	23130                           @ 0x5a5a
.Lcpi_end20:
	.size	__arm_cp.12_3, .Lcpi_end20-__arm_cp.12_3
.LCPI12_4:
.L.str.7:
	.asciz	"Program OTP%d with 0x%x-0x%x...\n\000\000\000"
.LCPI12_5:
.L.str.8:
	.asciz	"Failed to program OTP%d!\n\000\000"
__arm_cp.12_6:
	.long	.L.str.9
.Lcpi_end21:
	.size	__arm_cp.12_6, .Lcpi_end21-__arm_cp.12_6
__arm_cp.12_7:
	.long	.L.str.10
.Lcpi_end22:
	.size	__arm_cp.12_7, .Lcpi_end22-__arm_cp.12_7
__arm_cp.12_8:
	.long	.L.str.11
.Lcpi_end23:
	.size	__arm_cp.12_8, .Lcpi_end23-__arm_cp.12_8
.LCPI12_9:
.L.str.12:
	.asciz	"Lock OTP%d...\n\000"
__arm_cp.12_10:
	.long	.L.str.13
.Lcpi_end24:
	.size	__arm_cp.12_10, .Lcpi_end24-__arm_cp.12_10
__arm_cp.12_11:
	.long	.L.str.14
.Lcpi_end25:
	.size	__arm_cp.12_11, .Lcpi_end25-__arm_cp.12_11
__arm_cp.12_12:
	.long	.L.str.15
.Lcpi_end26:
	.size	__arm_cp.12_12, .Lcpi_end26-__arm_cp.12_12
__arm_cp.12_13:
	.long	.Lstr.38
.Lcpi_end27:
	.size	__arm_cp.12_13, .Lcpi_end27-__arm_cp.12_13
__arm_cp.12_14:
	.long	.Lstr.39
.Lcpi_end28:
	.size	__arm_cp.12_14, .Lcpi_end28-__arm_cp.12_14
.Lfunc_end12:
	.size	M2351_FMC_Write_Key, .Lfunc_end12-M2351_FMC_Write_Key
	.cfi_endproc
	.cantunwind
	.fnend
                                        @ -- End function
	.section	.text.M2351_ECC_GenerateKey,"ax",%progbits
	.hidden	M2351_ECC_GenerateKey           @ -- Begin function M2351_ECC_GenerateKey
	.globl	M2351_ECC_GenerateKey
	.p2align	2
	.type	M2351_ECC_GenerateKey,%function
	.code	16                              @ @M2351_ECC_GenerateKey
	.thumb_func
M2351_ECC_GenerateKey:
.Lfunc_begin13:
	.loc	3 328 0 is_stmt 1               @ Crypto/crypto_aes.c:328:0
	.fnstart
	.cfi_startproc
@ %bb.0:
	.save	{r4, r5, r6, lr}
	push	{r4, r5, r6, lr}
	.cfi_def_cfa_offset 16
	.cfi_offset lr, -4
	.cfi_offset r6, -8
	.cfi_offset r5, -12
	.cfi_offset r4, -16
	.pad	#392
	sub	sp, #392
	.cfi_def_cfa_offset 408
.Ltmp152:
	.loc	3 330 8 prologue_end            @ Crypto/crypto_aes.c:330:8
	ldr	r0, __arm_cp.13_0
	add	r1, sp, #340
	ldm	r0!, {r2, r3, r4, r5}
	stm	r1!, {r2, r3, r4, r5}
	ldm	r0!, {r2, r3, r4, r5}
	stm	r1!, {r2, r3, r4, r5}
	ldm	r0!, {r2, r3, r4, r5}
	stm	r1!, {r2, r3, r4, r5}
	ldrb	r0, [r0]
	strb	r0, [r1]
	.loc	3 338 4                         @ Crypto/crypto_aes.c:338:4
	ldr	r0, __arm_cp.13_1
	bl	puts
	.loc	3 339 5                         @ Crypto/crypto_aes.c:339:5
	adr	r0, .LCPI13_2
	bl	puts
	.loc	3 340 5                         @ Crypto/crypto_aes.c:340:5
	adr	r0, .LCPI13_3
	bl	puts
	.loc	3 343 5                         @ Crypto/crypto_aes.c:343:5
	bl	__NVIC_EnableIRQ
	movs	r0, #3
	lsls	r1, r0, #22
	ldr	r0, __arm_cp.13_4
	.loc	3 344 5                         @ Crypto/crypto_aes.c:344:5
	ldr	r2, [r0]
	orrs	r2, r1
	str	r2, [r0]
	add	r1, sp, #4
.Ltmp153:
	.loc	3 347 8                         @ Crypto/crypto_aes.c:347:8
	str	r1, [sp]
	movs	r4, #0
	ldr	r2, __arm_cp.13_5
	add	r3, sp, #172
	mov	r1, r4
	bl	ECC_GeneratePublicKey
.Ltmp154:
	.loc	3 347 8 is_stmt 0               @ Crypto/crypto_aes.c:347:8
	cmp	r0, #0
	bmi	.LBB13_4
@ %bb.1:
	.loc	3 0 8                           @ Crypto/crypto_aes.c:0:8
	add	r0, sp, #340
	add	r1, sp, #172
	movs	r2, #24
.Ltmp155:
	.loc	3 354 8 is_stmt 1               @ Crypto/crypto_aes.c:354:8
	bl	memcmp
.Ltmp156:
	.loc	3 354 8 is_stmt 0               @ Crypto/crypto_aes.c:354:8
	cbz	r0, .LBB13_6
@ %bb.2:
.Ltmp157:
	.loc	3 357 9 is_stmt 1               @ Crypto/crypto_aes.c:357:9
	ldr	r0, __arm_cp.13_6
	add	r5, sp, #172
	add	r6, sp, #340
	mov	r1, r5
	mov	r2, r6
	bl	__2printf
	movs	r2, #24
.Ltmp158:
	.loc	3 359 12                        @ Crypto/crypto_aes.c:359:12
	mov	r0, r6
	mov	r1, r5
	bl	memcmp
.Ltmp159:
	.loc	3 359 12 is_stmt 0              @ Crypto/crypto_aes.c:359:12
	cbz	r0, .LBB13_7
.Ltmp160:
@ %bb.3:
	.loc	3 0 12                          @ Crypto/crypto_aes.c:0:12
	adr	r0, .LCPI13_8
	b	.LBB13_8
.LBB13_4:
.Ltmp161:
	.loc	3 349 9 is_stmt 1               @ Crypto/crypto_aes.c:349:9
	ldr	r0, __arm_cp.13_13
	bl	puts
.LBB13_5:                               @ =>This Inner Loop Header: Depth=1
	.loc	3 350 9                         @ Crypto/crypto_aes.c:350:9
	b	.LBB13_5
.Ltmp162:
.LBB13_6:
	.loc	3 373 3                         @ Crypto/crypto_aes.c:373:3
	ldr	r0, __arm_cp.13_10
	bl	puts
	.loc	3 374 3                         @ Crypto/crypto_aes.c:374:3
	ldr	r0, __arm_cp.13_11
	ldr	r1, __arm_cp.13_5
	bl	__2printf
	.loc	3 375 3                         @ Crypto/crypto_aes.c:375:3
	ldr	r0, __arm_cp.13_12
	add	r1, sp, #172
	add	r2, sp, #4
	bl	__2printf
	.loc	3 376 1                         @ Crypto/crypto_aes.c:376:1
	add	sp, #392
	pop	{r4, r5, r6, pc}
.LBB13_7:
	.loc	3 0 1 is_stmt 0                 @ Crypto/crypto_aes.c:0:1
	adr	r0, .LCPI13_7
.LBB13_8:
.Ltmp163:
	bl	puts
.Ltmp164:
	@DEBUG_VALUE: M2351_ECC_GenerateKey:i <- 0
	adr	r5, .LCPI13_9
	b	.LBB13_10
.Ltmp165:
.LBB13_9:                               @   in Loop: Header=BB13_10 Depth=1
	@DEBUG_VALUE: M2351_ECC_GenerateKey:i <- $r4
	.loc	3 365 41 is_stmt 1              @ Crypto/crypto_aes.c:365:41
	adds	r4, r4, #1
.Ltmp166:
	@DEBUG_VALUE: M2351_ECC_GenerateKey:i <- $r4
	.loc	3 365 9 is_stmt 0               @ Crypto/crypto_aes.c:365:9
	cmp	r4, #24
	beq	.LBB13_12
.Ltmp167:
.LBB13_10:                              @ =>This Inner Loop Header: Depth=1
	@DEBUG_VALUE: M2351_ECC_GenerateKey:i <- $r4
	.loc	3 0 9                           @ Crypto/crypto_aes.c:0:9
	add	r0, sp, #172
.Ltmp168:
	.loc	3 367 25 is_stmt 1              @ Crypto/crypto_aes.c:367:25
	ldrb	r3, [r0, r4]
	add	r0, sp, #340
	.loc	3 367 16 is_stmt 0              @ Crypto/crypto_aes.c:367:16
	ldrb	r2, [r0, r4]
.Ltmp169:
	.loc	3 367 16                        @ Crypto/crypto_aes.c:367:16
	cmp	r2, r3
	beq	.LBB13_9
.Ltmp170:
@ %bb.11:                               @   in Loop: Header=BB13_10 Depth=1
	@DEBUG_VALUE: M2351_ECC_GenerateKey:i <- $r4
	.loc	3 368 17 is_stmt 1              @ Crypto/crypto_aes.c:368:17
	mov	r0, r5
	mov	r1, r4
	bl	__2printf
	b	.LBB13_9
.Ltmp171:
.LBB13_12:                              @ =>This Inner Loop Header: Depth=1
	@DEBUG_VALUE: M2351_ECC_GenerateKey:i <- $r4
	.loc	3 370 9                         @ Crypto/crypto_aes.c:370:9
	b	.LBB13_12
.Ltmp172:
	.p2align	2
@ %bb.13:
	.loc	3 0 9 is_stmt 0                 @ Crypto/crypto_aes.c:0:9
__arm_cp.13_0:
	.long	.L__const.M2351_ECC_GenerateKey.Qx
.Lcpi_end29:
	.size	__arm_cp.13_0, .Lcpi_end29-__arm_cp.13_0
__arm_cp.13_1:
	.long	.Lstr.40
.Lcpi_end30:
	.size	__arm_cp.13_1, .Lcpi_end30-__arm_cp.13_1
.LCPI13_2:
.Lstr.41:
	.asciz	"|   Crypto ECC Public Key Generation Demo     |"
.LCPI13_3:
.Lstr.42:
	.asciz	"+---------------------------------------------+"
__arm_cp.13_4:
	.long	1073946624                      @ 0x40032000
.Lcpi_end31:
	.size	__arm_cp.13_4, .Lcpi_end31-__arm_cp.13_4
__arm_cp.13_5:
	.long	d
.Lcpi_end32:
	.size	__arm_cp.13_5, .Lcpi_end32-__arm_cp.13_5
__arm_cp.13_6:
	.long	.L.str.20
.Lcpi_end33:
	.size	__arm_cp.13_6, .Lcpi_end33-__arm_cp.13_6
.LCPI13_7:
.Lstr.45:
	.asciz	"PASS.\000\000"
.LCPI13_8:
.Lstr.44:
	.asciz	"Error !!\000\000\000"
.LCPI13_9:
.L.str.23:
	.asciz	"\n%d - 0x%x 0x%x\n\000\000\000"
__arm_cp.13_10:
	.long	.Lstr.43
.Lcpi_end34:
	.size	__arm_cp.13_10, .Lcpi_end34-__arm_cp.13_10
__arm_cp.13_11:
	.long	.L.str.25
.Lcpi_end35:
	.size	__arm_cp.13_11, .Lcpi_end35-__arm_cp.13_11
__arm_cp.13_12:
	.long	.L.str.26
.Lcpi_end36:
	.size	__arm_cp.13_12, .Lcpi_end36-__arm_cp.13_12
__arm_cp.13_13:
	.long	.Lstr.46
.Lcpi_end37:
	.size	__arm_cp.13_13, .Lcpi_end37-__arm_cp.13_13
.Lfunc_end13:
	.size	M2351_ECC_GenerateKey, .Lfunc_end13-M2351_ECC_GenerateKey
	.cfi_endproc
	.cantunwind
	.fnend
                                        @ -- End function
	.section	.text.M2351_ECDSA_GenerateSignature,"ax",%progbits
	.hidden	M2351_ECDSA_GenerateSignature   @ -- Begin function M2351_ECDSA_GenerateSignature
	.globl	M2351_ECDSA_GenerateSignature
	.p2align	2
	.type	M2351_ECDSA_GenerateSignature,%function
	.code	16                              @ @M2351_ECDSA_GenerateSignature
	.thumb_func
M2351_ECDSA_GenerateSignature:
.Lfunc_begin14:
	.loc	3 380 0 is_stmt 1               @ Crypto/crypto_aes.c:380:0
	.fnstart
	.cfi_startproc
@ %bb.0:
	.save	{r4, r5, r6, r7, lr}
	push	{r4, r5, r6, r7, lr}
	.cfi_def_cfa_offset 20
	.cfi_offset lr, -4
	.cfi_offset r7, -8
	.cfi_offset r6, -12
	.cfi_offset r5, -16
	.cfi_offset r4, -20
	.pad	#508
	sub	sp, #508
	.pad	#40
	sub	sp, #40
	.cfi_def_cfa_offset 568
.Ltmp173:
	.loc	3 381 8 prologue_end            @ Crypto/crypto_aes.c:381:8
	ldr	r0, __arm_cp.14_0
	add	r4, sp, #504
	mov	r1, r4
	ldm	r0!, {r2, r3, r5}
	stm	r1!, {r2, r3, r5}
	ldm	r0!, {r2, r3, r5}
	stm	r1!, {r2, r3, r5}
	ldm	r0!, {r2, r3, r5, r6}
	stm	r1!, {r2, r3, r5, r6}
	ldrb	r0, [r0]
	strb	r0, [r1]
	.loc	3 383 8                         @ Crypto/crypto_aes.c:383:8
	ldr	r0, __arm_cp.14_1
	add	r6, sp, #452
	mov	r1, r6
	ldm	r0!, {r2, r3, r5, r7}
	stm	r1!, {r2, r3, r5, r7}
	ldm	r0!, {r2, r3, r5, r7}
	stm	r1!, {r2, r3, r5, r7}
	ldm	r0!, {r2, r3, r5, r7}
	stm	r1!, {r2, r3, r5, r7}
	ldrb	r0, [r0]
	strb	r0, [r1]
	.loc	3 384 8                         @ Crypto/crypto_aes.c:384:8
	ldr	r0, __arm_cp.14_2
	add	r1, sp, #400
	ldm	r0!, {r2, r3, r5, r7}
	stm	r1!, {r2, r3, r5, r7}
	ldm	r0!, {r2, r3, r5, r7}
	stm	r1!, {r2, r3, r5, r7}
	ldm	r0!, {r2, r3, r5, r7}
	stm	r1!, {r2, r3, r5, r7}
	ldrb	r0, [r0]
	strb	r0, [r1]
	.loc	3 385 8                         @ Crypto/crypto_aes.c:385:8
	ldr	r0, __arm_cp.14_3
	add	r1, sp, #348
	ldm	r0!, {r2, r3, r5, r7}
	stm	r1!, {r2, r3, r5, r7}
	ldm	r0!, {r2, r3, r5, r7}
	stm	r1!, {r2, r3, r5, r7}
	ldm	r0!, {r2, r3, r5, r7}
	stm	r1!, {r2, r3, r5, r7}
	ldrb	r0, [r0]
	strb	r0, [r1]
	.loc	3 389 5                         @ Crypto/crypto_aes.c:389:5
	bl	__NVIC_EnableIRQ
	movs	r0, #3
	lsls	r0, r0, #22
	ldr	r5, __arm_cp.14_4
	.loc	3 390 5                         @ Crypto/crypto_aes.c:390:5
	ldr	r1, [r5]
	orrs	r1, r0
	str	r1, [r5]
	.loc	3 392 5                         @ Crypto/crypto_aes.c:392:5
	ldr	r0, __arm_cp.14_5
	bl	puts
	.loc	3 393 5                         @ Crypto/crypto_aes.c:393:5
	adr	r0, .LCPI14_6
	bl	puts
	.loc	3 394 5                         @ Crypto/crypto_aes.c:394:5
	adr	r0, .LCPI14_7
	bl	puts
	add	r0, sp, #12
.Ltmp174:
	.loc	3 397 8                         @ Crypto/crypto_aes.c:397:8
	str	r0, [sp, #8]
	add	r0, sp, #180
	str	r0, [sp, #4]
	str	r6, [sp]
	movs	r1, #0
	ldr	r3, __arm_cp.14_8
	mov	r0, r5
	mov	r2, r4
	bl	ECC_GenerateSignature
.Ltmp175:
	.loc	3 397 8 is_stmt 0               @ Crypto/crypto_aes.c:397:8
	cmp	r0, #0
	bmi	.LBB14_4
@ %bb.1:
	.loc	3 0 8                           @ Crypto/crypto_aes.c:0:8
	add	r0, sp, #180
	add	r1, sp, #400
	movs	r2, #49
.Ltmp176:
	.loc	3 404 8 is_stmt 1               @ Crypto/crypto_aes.c:404:8
	bl	memcmp
.Ltmp177:
	.loc	3 404 8 is_stmt 0               @ Crypto/crypto_aes.c:404:8
	cbz	r0, .LBB14_6
@ %bb.2:
.Ltmp178:
	.loc	3 406 9 is_stmt 1               @ Crypto/crypto_aes.c:406:9
	ldr	r0, __arm_cp.14_9
	add	r1, sp, #180
	add	r2, sp, #400
	bl	__2printf
.LBB14_3:                               @ =>This Inner Loop Header: Depth=1
	.loc	3 407 9                         @ Crypto/crypto_aes.c:407:9
	b	.LBB14_3
.Ltmp179:
.LBB14_4:
	.loc	3 399 9                         @ Crypto/crypto_aes.c:399:9
	ldr	r0, __arm_cp.14_13
	bl	puts
.LBB14_5:                               @ =>This Inner Loop Header: Depth=1
	.loc	3 400 9                         @ Crypto/crypto_aes.c:400:9
	b	.LBB14_5
.Ltmp180:
.LBB14_6:
	.loc	3 0 9 is_stmt 0                 @ Crypto/crypto_aes.c:0:9
	add	r0, sp, #12
	add	r1, sp, #348
	movs	r2, #49
.Ltmp181:
	.loc	3 411 8 is_stmt 1               @ Crypto/crypto_aes.c:411:8
	bl	memcmp
.Ltmp182:
	.loc	3 411 8 is_stmt 0               @ Crypto/crypto_aes.c:411:8
	cbz	r0, .LBB14_9
@ %bb.7:
.Ltmp183:
	.loc	3 413 9 is_stmt 1               @ Crypto/crypto_aes.c:413:9
	ldr	r0, __arm_cp.14_10
	add	r1, sp, #12
	add	r2, sp, #348
	bl	__2printf
.LBB14_8:                               @ =>This Inner Loop Header: Depth=1
	.loc	3 414 9                         @ Crypto/crypto_aes.c:414:9
	b	.LBB14_8
.Ltmp184:
.LBB14_9:
	.loc	3 417 5                         @ Crypto/crypto_aes.c:417:5
	ldr	r0, __arm_cp.14_11
	bl	puts
	.loc	3 418 3                         @ Crypto/crypto_aes.c:418:3
	adr	r0, .LCPI14_12
	add	r1, sp, #180
	add	r2, sp, #12
	bl	__2printf
	.loc	3 420 1                         @ Crypto/crypto_aes.c:420:1
	add	sp, #508
	add	sp, #40
	pop	{r4, r5, r6, r7, pc}
.Ltmp185:
	.p2align	2
@ %bb.10:
	.loc	3 0 1 is_stmt 0                 @ Crypto/crypto_aes.c:0:1
__arm_cp.14_0:
	.long	.L__const.M2351_ECDSA_GenerateSignature.g_SHA_msg
.Lcpi_end38:
	.size	__arm_cp.14_0, .Lcpi_end38-__arm_cp.14_0
__arm_cp.14_1:
	.long	.L__const.M2351_ECDSA_GenerateSignature.gK
.Lcpi_end39:
	.size	__arm_cp.14_1, .Lcpi_end39-__arm_cp.14_1
__arm_cp.14_2:
	.long	.L__const.M2351_ECDSA_GenerateSignature.gR
.Lcpi_end40:
	.size	__arm_cp.14_2, .Lcpi_end40-__arm_cp.14_2
__arm_cp.14_3:
	.long	.L__const.M2351_ECDSA_GenerateSignature.gS
.Lcpi_end41:
	.size	__arm_cp.14_3, .Lcpi_end41-__arm_cp.14_3
__arm_cp.14_4:
	.long	1073946624                      @ 0x40032000
.Lcpi_end42:
	.size	__arm_cp.14_4, .Lcpi_end42-__arm_cp.14_4
__arm_cp.14_5:
	.long	.Lstr.47
.Lcpi_end43:
	.size	__arm_cp.14_5, .Lcpi_end43-__arm_cp.14_5
.LCPI14_6:
.Lstr.48:
	.asciz	"|   Crypto ECDSA Singnature Generation Demo   |"
.LCPI14_7:
.Lstr.49:
	.asciz	"+---------------------------------------------+"
__arm_cp.14_8:
	.long	d
.Lcpi_end44:
	.size	__arm_cp.14_8, .Lcpi_end44-__arm_cp.14_8
__arm_cp.14_9:
	.long	.L.str.29
.Lcpi_end45:
	.size	__arm_cp.14_9, .Lcpi_end45-__arm_cp.14_9
__arm_cp.14_10:
	.long	.L.str.30
.Lcpi_end46:
	.size	__arm_cp.14_10, .Lcpi_end46-__arm_cp.14_10
__arm_cp.14_11:
	.long	.Lstr.50
.Lcpi_end47:
	.size	__arm_cp.14_11, .Lcpi_end47-__arm_cp.14_11
.LCPI14_12:
.L.str.32:
	.asciz	"Signature R : %s\nSignature S : %s\n\000"
__arm_cp.14_13:
	.long	.Lstr.51
.Lcpi_end48:
	.size	__arm_cp.14_13, .Lcpi_end48-__arm_cp.14_13
.Lfunc_end14:
	.size	M2351_ECDSA_GenerateSignature, .Lfunc_end14-M2351_ECDSA_GenerateSignature
	.cfi_endproc
	.cantunwind
	.fnend
                                        @ -- End function
	.section	.text.M2351_ECDSA_VerificationSignature,"ax",%progbits
	.hidden	M2351_ECDSA_VerificationSignature @ -- Begin function M2351_ECDSA_VerificationSignature
	.globl	M2351_ECDSA_VerificationSignature
	.p2align	2
	.type	M2351_ECDSA_VerificationSignature,%function
	.code	16                              @ @M2351_ECDSA_VerificationSignature
	.thumb_func
M2351_ECDSA_VerificationSignature:
.Lfunc_begin15:
	.loc	3 423 0 is_stmt 1               @ Crypto/crypto_aes.c:423:0
	.fnstart
	.cfi_startproc
@ %bb.0:
	.pad	#280
	sub	sp, #280
	.cfi_def_cfa_offset 280
.Ltmp186:
	.loc	3 424 8 prologue_end            @ Crypto/crypto_aes.c:424:8
	ldr	r0, __arm_cp.15_0
	add	r1, sp, #236
	str	r1, [sp, #24]                   @ 4-byte Spill
	ldm	r0!, {r2, r3, r4}
	stm	r1!, {r2, r3, r4}
	ldm	r0!, {r2, r3, r4}
	stm	r1!, {r2, r3, r4}
	ldm	r0!, {r2, r3, r4, r5}
	stm	r1!, {r2, r3, r4, r5}
	ldrb	r0, [r0]
	strb	r0, [r1]
	.loc	3 425 8                         @ Crypto/crypto_aes.c:425:8
	ldr	r0, __arm_cp.15_1
	add	r1, sp, #184
	str	r1, [sp, #20]                   @ 4-byte Spill
	ldm	r0!, {r2, r3, r4, r5}
	stm	r1!, {r2, r3, r4, r5}
	ldm	r0!, {r2, r3, r4, r5}
	stm	r1!, {r2, r3, r4, r5}
	ldm	r0!, {r2, r3, r4, r5}
	stm	r1!, {r2, r3, r4, r5}
	ldrb	r0, [r0]
	strb	r0, [r1]
	.loc	3 426 8                         @ Crypto/crypto_aes.c:426:8
	ldr	r0, __arm_cp.15_2
	add	r1, sp, #132
	str	r1, [sp, #16]                   @ 4-byte Spill
	ldm	r0!, {r2, r3, r4, r5}
	stm	r1!, {r2, r3, r4, r5}
	ldm	r0!, {r2, r3, r4, r5}
	stm	r1!, {r2, r3, r4, r5}
	ldm	r0!, {r2, r3, r4, r5}
	stm	r1!, {r2, r3, r4, r5}
	ldrb	r0, [r0]
	strb	r0, [r1]
	.loc	3 427 8                         @ Crypto/crypto_aes.c:427:8
	ldr	r0, __arm_cp.15_3
	add	r4, sp, #80
	mov	r1, r4
	ldm	r0!, {r2, r3, r5, r6}
	stm	r1!, {r2, r3, r5, r6}
	ldm	r0!, {r2, r3, r5, r6}
	stm	r1!, {r2, r3, r5, r6}
	ldm	r0!, {r2, r3, r5, r6}
	stm	r1!, {r2, r3, r5, r6}
	ldrb	r0, [r0]
	strb	r0, [r1]
	.loc	3 428 8                         @ Crypto/crypto_aes.c:428:8
	ldr	r0, __arm_cp.15_4
	add	r5, sp, #28
	mov	r1, r5
	ldm	r0!, {r2, r3, r6, r7}
	stm	r1!, {r2, r3, r6, r7}
	ldm	r0!, {r2, r3, r6, r7}
	stm	r1!, {r2, r3, r6, r7}
	ldm	r0!, {r2, r3, r6, r7}
	stm	r1!, {r2, r3, r6, r7}
	ldrb	r0, [r0]
	strb	r0, [r1]
	.loc	3 431 5                         @ Crypto/crypto_aes.c:431:5
	bl	__NVIC_EnableIRQ
	movs	r0, #3
	lsls	r0, r0, #22
	ldr	r6, __arm_cp.15_5
	.loc	3 432 5                         @ Crypto/crypto_aes.c:432:5
	ldr	r1, [r6]
	orrs	r1, r0
	str	r1, [r6]
	.loc	3 434 5                         @ Crypto/crypto_aes.c:434:5
	ldr	r0, __arm_cp.15_6
	bl	puts
	.loc	3 435 5                         @ Crypto/crypto_aes.c:435:5
	adr	r0, .LCPI15_7
	bl	puts
	.loc	3 436 5                         @ Crypto/crypto_aes.c:436:5
	adr	r0, .LCPI15_8
	bl	puts
.Ltmp187:
	.loc	3 439 8                         @ Crypto/crypto_aes.c:439:8
	ldr	r0, [sp, #16]                   @ 4-byte Reload
	add	r1, sp, #0
	stm	r1!, {r0, r4, r5}
	movs	r1, #0
	mov	r0, r6
	ldr	r2, [sp, #24]                   @ 4-byte Reload
	ldr	r3, [sp, #20]                   @ 4-byte Reload
	bl	ECC_VerifySignature
.Ltmp188:
	.loc	3 439 8 is_stmt 0               @ Crypto/crypto_aes.c:439:8
	cmp	r0, #0
	bmi	.LBB15_3
@ %bb.1:
	.loc	3 445 5 is_stmt 1               @ Crypto/crypto_aes.c:445:5
	ldr	r0, __arm_cp.15_9
	bl	puts
.LBB15_2:                               @ =>This Inner Loop Header: Depth=1
	.loc	3 447 5                         @ Crypto/crypto_aes.c:447:5
	b	.LBB15_2
.LBB15_3:
.Ltmp189:
	.loc	3 441 9                         @ Crypto/crypto_aes.c:441:9
	adr	r0, .LCPI15_10
	bl	puts
.LBB15_4:                               @ =>This Inner Loop Header: Depth=1
	.loc	3 442 9                         @ Crypto/crypto_aes.c:442:9
	b	.LBB15_4
.Ltmp190:
	.p2align	2
@ %bb.5:
	.loc	3 0 9 is_stmt 0                 @ Crypto/crypto_aes.c:0:9
__arm_cp.15_0:
	.long	.L__const.M2351_ECDSA_VerificationSignature.sha_msg
.Lcpi_end49:
	.size	__arm_cp.15_0, .Lcpi_end49-__arm_cp.15_0
__arm_cp.15_1:
	.long	.L__const.M2351_ECDSA_VerificationSignature.Qx
.Lcpi_end50:
	.size	__arm_cp.15_1, .Lcpi_end50-__arm_cp.15_1
__arm_cp.15_2:
	.long	.L__const.M2351_ECDSA_VerificationSignature.Qy
.Lcpi_end51:
	.size	__arm_cp.15_2, .Lcpi_end51-__arm_cp.15_2
__arm_cp.15_3:
	.long	.L__const.M2351_ECDSA_VerificationSignature.R
.Lcpi_end52:
	.size	__arm_cp.15_3, .Lcpi_end52-__arm_cp.15_3
__arm_cp.15_4:
	.long	.L__const.M2351_ECDSA_VerificationSignature.S
.Lcpi_end53:
	.size	__arm_cp.15_4, .Lcpi_end53-__arm_cp.15_4
__arm_cp.15_5:
	.long	1073946624                      @ 0x40032000
.Lcpi_end54:
	.size	__arm_cp.15_5, .Lcpi_end54-__arm_cp.15_5
__arm_cp.15_6:
	.long	.Lstr.52
.Lcpi_end55:
	.size	__arm_cp.15_6, .Lcpi_end55-__arm_cp.15_6
.LCPI15_7:
.Lstr.53:
	.asciz	"|   Crypto ECC Public Key Verification Demo    |\000\000\000"
.LCPI15_8:
.Lstr.54:
	.asciz	"+---------------------------------------------+"
__arm_cp.15_9:
	.long	.Lstr.55
.Lcpi_end56:
	.size	__arm_cp.15_9, .Lcpi_end56-__arm_cp.15_9
.LCPI15_10:
.Lstr.56:
	.asciz	"ECC signature verification failed!!"
.Lfunc_end15:
	.size	M2351_ECDSA_VerificationSignature, .Lfunc_end15-M2351_ECDSA_VerificationSignature
	.cfi_endproc
	.cantunwind
	.fnend
                                        @ -- End function
	.section	.text.get_Nth_nibble_char,"ax",%progbits
	.p2align	2                               @ -- Begin function get_Nth_nibble_char
	.type	get_Nth_nibble_char,%function
	.code	16                              @ @get_Nth_nibble_char
	.thumb_func
get_Nth_nibble_char:
.Lfunc_begin16:
	.loc	3 14 0 is_stmt 1                @ Crypto/crypto_aes.c:14:0
	.fnstart
	.cfi_startproc
@ %bb.0:
	@DEBUG_VALUE: get_Nth_nibble_char:val32 <- $r0
	@DEBUG_VALUE: get_Nth_nibble_char:val32 <- $r0
	@DEBUG_VALUE: get_Nth_nibble_char:idx <- $r1
	@DEBUG_VALUE: get_Nth_nibble_char:idx <- $r1
	.loc	3 15 40 prologue_end            @ Crypto/crypto_aes.c:15:40
	lsls	r1, r1, #2
.Ltmp191:
	@DEBUG_VALUE: get_Nth_nibble_char:idx <- [DW_OP_LLVM_entry_value 1] $r1
	.loc	3 15 32 is_stmt 0               @ Crypto/crypto_aes.c:15:32
	lsrs	r0, r1
.Ltmp192:
	@DEBUG_VALUE: get_Nth_nibble_char:val32 <- [DW_OP_LLVM_entry_value 1] $r0
	.loc	3 0 32                          @ Crypto/crypto_aes.c:0:32
	movs	r1, #15
	.loc	3 15 47                         @ Crypto/crypto_aes.c:15:47
	ands	r1, r0
	.loc	3 15 12                         @ Crypto/crypto_aes.c:15:12
	adr	r0, .LCPI16_0
	ldrb	r0, [r0, r1]
	.loc	3 15 5                          @ Crypto/crypto_aes.c:15:5
	bx	lr
.Ltmp193:
	.p2align	2
@ %bb.1:
	.loc	3 0 5                           @ Crypto/crypto_aes.c:0:5
.LCPI16_0:
hex_char_tbl:
	.asciz	"0123456789abcdef\000\000\000"
.Lfunc_end16:
	.size	get_Nth_nibble_char, .Lfunc_end16-get_Nth_nibble_char
	.cfi_endproc
	.cantunwind
	.fnend
                                        @ -- End function
	.type	g_AES_done,%object              @ @g_AES_done
	.section	.bss.g_AES_done,"aw",%nobits
	.p2align	2
g_AES_done:
	.long	0                               @ 0x0
	.size	g_AES_done, 4

	.hidden	sessionIv                       @ @sessionIv
	.type	sessionIv,%object
	.section	.bss.sessionIv,"aw",%nobits
	.globl	sessionIv
sessionIv:
	.zero	16
	.size	sessionIv, 16

	.type	.L.str.3,%object                @ @.str.3
	.section	.rodata.str1.1,"aMS",%progbits,1
.L.str.3:
	.asciz	"Read OTP%d failed!\n"
	.size	.L.str.3, 20

	.hidden	otpPrivateKey                   @ @otpPrivateKey
	.type	otpPrivateKey,%object
	.section	.bss.otpPrivateKey,"aw",%nobits
	.globl	otpPrivateKey
	.p2align	2
otpPrivateKey:
	.zero	24
	.size	otpPrivateKey, 24

	.hidden	d                               @ @d
	.type	d,%object
	.section	.bss.d,"aw",%nobits
	.globl	d
d:
	.zero	168
	.size	d, 168

	.type	.L.str.9,%object                @ @.str.9
	.section	.rodata.str1.1,"aMS",%progbits,1
.L.str.9:
	.asciz	"Read OTP%d failed after programmed!\n"
	.size	.L.str.9, 37

	.type	.L.str.10,%object               @ @.str.10
.L.str.10:
	.asciz	"Read back OTP%d: 0x%x-0x%x.\n"
	.size	.L.str.10, 29

	.type	.L.str.11,%object               @ @.str.11
.L.str.11:
	.asciz	"OTP%d value is not matched with programmed value!\n"
	.size	.L.str.11, 51

	.type	.L.str.13,%object               @ @.str.13
.L.str.13:
	.asciz	"Failed to lock OTP%d!\n"
	.size	.L.str.13, 23

	.type	.L.str.14,%object               @ @.str.14
.L.str.14:
	.asciz	"Read OTP%d after locked: 0x%x-0x%x.\n"
	.size	.L.str.14, 37

	.type	.L.str.15,%object               @ @.str.15
.L.str.15:
	.asciz	"OTP%d value is incorrect after locked!\n"
	.size	.L.str.15, 40

	.type	.L__const.M2351_ECC_GenerateKey.Qx,%object @ @__const.M2351_ECC_GenerateKey.Qx
	.section	.rodata.str1.4,"aMS",%progbits,1
	.p2align	2
.L__const.M2351_ECC_GenerateKey.Qx:
	.asciz	"1da18eaaa64fdd781bf699feb935744f18f1fa0efac1b255"
	.size	.L__const.M2351_ECC_GenerateKey.Qx, 49

	.type	.L.str.20,%object               @ @.str.20
	.section	.rodata.str1.1,"aMS",%progbits,1
.L.str.20:
	.asciz	"Public key 1 [%s] is not matched with expected [%s]!\n"
	.size	.L.str.20, 54

	.type	.L.str.25,%object               @ @.str.25
.L.str.25:
	.asciz	"private key : %s\n"
	.size	.L.str.25, 18

	.type	.L.str.26,%object               @ @.str.26
.L.str.26:
	.asciz	"gKey1 : %s\ngKey2 : %s\n"
	.size	.L.str.26, 23

	.type	.L__const.M2351_ECDSA_GenerateSignature.g_SHA_msg,%object @ @__const.M2351_ECDSA_GenerateSignature.g_SHA_msg
	.section	.rodata.str1.4,"aMS",%progbits,1
	.p2align	2
.L__const.M2351_ECDSA_GenerateSignature.g_SHA_msg:
	.asciz	"608079423f12421de616b7493ebe551cf4d65b92"
	.size	.L__const.M2351_ECDSA_GenerateSignature.g_SHA_msg, 41

	.type	.L__const.M2351_ECDSA_GenerateSignature.gK,%object @ @__const.M2351_ECDSA_GenerateSignature.gK
	.p2align	2
.L__const.M2351_ECDSA_GenerateSignature.gK:
	.asciz	"cb0abc7043a10783684556fb12c4154d57bc31a289685f25"
	.size	.L__const.M2351_ECDSA_GenerateSignature.gK, 49

	.type	.L__const.M2351_ECDSA_GenerateSignature.gR,%object @ @__const.M2351_ECDSA_GenerateSignature.gR
	.p2align	2
.L__const.M2351_ECDSA_GenerateSignature.gR:
	.asciz	"6994d962bdd0d793ffddf855ec5bf2f91a9698b46258a63e"
	.size	.L__const.M2351_ECDSA_GenerateSignature.gR, 49

	.type	.L__const.M2351_ECDSA_GenerateSignature.gS,%object @ @__const.M2351_ECDSA_GenerateSignature.gS
	.p2align	2
.L__const.M2351_ECDSA_GenerateSignature.gS:
	.asciz	"9cbd7f157288b914a844d941bcdf46ae2355f993d040fbed"
	.size	.L__const.M2351_ECDSA_GenerateSignature.gS, 49

	.type	.L.str.29,%object               @ @.str.29
	.section	.rodata.str1.1,"aMS",%progbits,1
.L.str.29:
	.asciz	"Signature R [%s] is not matched with expected [%s]!\n"
	.size	.L.str.29, 53

	.type	.L.str.30,%object               @ @.str.30
.L.str.30:
	.asciz	"Signature S [%s] is not matched with expected [%s]!\n"
	.size	.L.str.30, 53

	.type	.L__const.M2351_ECDSA_VerificationSignature.sha_msg,%object @ @__const.M2351_ECDSA_VerificationSignature.sha_msg
	.section	.rodata.str1.4,"aMS",%progbits,1
	.p2align	2
.L__const.M2351_ECDSA_VerificationSignature.sha_msg:
	.asciz	"608079423f12421de616b7493ebe551cf4d65b92"
	.size	.L__const.M2351_ECDSA_VerificationSignature.sha_msg, 41

	.type	.L__const.M2351_ECDSA_VerificationSignature.Qx,%object @ @__const.M2351_ECDSA_VerificationSignature.Qx
	.p2align	2
.L__const.M2351_ECDSA_VerificationSignature.Qx:
	.asciz	"1da18eaaa64fdd781bf699feb935744f18f1fa0efac1b255"
	.size	.L__const.M2351_ECDSA_VerificationSignature.Qx, 49

	.type	.L__const.M2351_ECDSA_VerificationSignature.Qy,%object @ @__const.M2351_ECDSA_VerificationSignature.Qy
	.p2align	2
.L__const.M2351_ECDSA_VerificationSignature.Qy:
	.asciz	"0bbeb7ba3ba9d4e6b8aa5738ddef4cd15ce400611094d319"
	.size	.L__const.M2351_ECDSA_VerificationSignature.Qy, 49

	.type	.L__const.M2351_ECDSA_VerificationSignature.R,%object @ @__const.M2351_ECDSA_VerificationSignature.R
	.p2align	2
.L__const.M2351_ECDSA_VerificationSignature.R:
	.asciz	"6994d962bdd0d793ffddf855ec5bf2f91a9698b46258a63e"
	.size	.L__const.M2351_ECDSA_VerificationSignature.R, 49

	.type	.L__const.M2351_ECDSA_VerificationSignature.S,%object @ @__const.M2351_ECDSA_VerificationSignature.S
	.p2align	2
.L__const.M2351_ECDSA_VerificationSignature.S:
	.asciz	"9cbd7f157288b914a844d941bcdf46ae2355f993d040fbed"
	.size	.L__const.M2351_ECDSA_VerificationSignature.S, 49

	.hidden	cipheredSessionKey              @ @cipheredSessionKey
	.type	cipheredSessionKey,%object
	.section	.bss.cipheredSessionKey,"aw",%nobits
	.globl	cipheredSessionKey
cipheredSessionKey:
	.zero	16
	.size	cipheredSessionKey, 16

	.type	.Lstr.38,%object                @ @str.38
	.section	.rodata.str1.1,"aMS",%progbits,1
.Lstr.38:
	.asciz	"OTP Write done."
	.size	.Lstr.38, 16

	.type	.Lstr.39,%object                @ @str.39
.Lstr.39:
	.asciz	"All OTP entries are used."
	.size	.Lstr.39, 26

	.type	.Lstr.40,%object                @ @str.40
.Lstr.40:
	.asciz	"+---------------------------------------------+"
	.size	.Lstr.40, 48

	.type	.Lstr.43,%object                @ @str.43
.Lstr.43:
	.asciz	"ECC key generated OK."
	.size	.Lstr.43, 22

	.type	.Lstr.46,%object                @ @str.46
.Lstr.46:
	.asciz	"ECC key generation failed!!"
	.size	.Lstr.46, 28

	.type	.Lstr.47,%object                @ @str.47
.Lstr.47:
	.asciz	"+---------------------------------------------+"
	.size	.Lstr.47, 48

	.type	.Lstr.50,%object                @ @str.50
.Lstr.50:
	.asciz	"ECC digital signature compared OK."
	.size	.Lstr.50, 35

	.type	.Lstr.51,%object                @ @str.51
.Lstr.51:
	.asciz	"ECC signature generation failed!!"
	.size	.Lstr.51, 34

	.type	.Lstr.52,%object                @ @str.52
.Lstr.52:
	.asciz	"+---------------------------------------------+"
	.size	.Lstr.52, 48

	.type	.Lstr.55,%object                @ @str.55
.Lstr.55:
	.asciz	"ECC digital signature verification OK."
	.size	.Lstr.55, 39

	.globl	_printf_percent
	.globl	_printf_flags
	.globl	_printf_widthprec
	.globl	_printf_pre_padding
	.globl	_printf_s
	.globl	_printf_x
	.globl	_printf_d
	.globl	_printf_int_dec
	.globl	_printf_longlong_hex
	.globl	_printf_str
	.hidden	_printf_percent
	.hidden	_printf_flags
	.hidden	_printf_widthprec
	.hidden	_printf_pre_padding
	.hidden	_printf_s
	.hidden	_printf_x
	.hidden	_printf_d
	.hidden	_printf_int_dec
	.hidden	_printf_longlong_hex
	.hidden	_printf_str
	.section	".note.GNU-stack","",%progbits
	.eabi_attribute	30, 1	@ Tag_ABI_optimization_goals
	.ARM_attribute	16, 1	@ Tag_AV_eba