	.text
	.syntax unified
	.eabi_attribute	67, "2.09"	@ Tag_conformance
	.cpu	cortex-m23
	.eabi_attribute	6, 16	@ Tag_CPU_arch
	.eabi_attribute	7, 77	@ Tag_CPU_arch_profile
	.eabi_attribute	8, 0	@ Tag_ARM_ISA_use
	.eabi_attribute	9, 3	@ Tag_THUMB_ISA_use
	.eabi_attribute	34, 0	@ Tag_CPU_unaligned_access
	.eabi_attribute	17, 1	@ Tag_ABI_PCS_GOT_use
	.eabi_attribute	20, 2	@ Tag_ABI_FP_denormal
	.eabi_attribute	21, 0	@ Tag_ABI_FP_exceptions
	.eabi_attribute	23, 1	@ Tag_ABI_FP_number_model
	.eabi_attribute	24, 1	@ Tag_ABI_align_needed
	.eabi_attribute	25, 1	@ Tag_ABI_align_preserved
	.eabi_attribute	38, 1	@ Tag_ABI_FP_16bit_format
	.eabi_attribute	18, 2	@ Tag_ABI_PCS_wchar_t
	.eabi_attribute	26, 1	@ Tag_ABI_enum_size
	.eabi_attribute	14, 0	@ Tag_ABI_PCS_R9_use
	.file	"crypto.c"
	.file	1 "C:\\Users\\shw26\\OneDrive\\Desktop\\2021\\2021-1\\\354\272\241\354\212\244\355\206\244\353\224\224\354\236\220\354\235\2702\\Nuvoton\\M2351_BSP_v3.00.004\\M2351Series_BSP_CMSIS_V3.00.004\\MyProject\\PulseMonitoring\\Secure" "../../../Library/StdDriver/inc\\crypto.h"
	.file	2 "C:\\" "Keil_v5\\ARM\\ARMCLANG\\Bin\\..\\include\\stdint.h"
	.file	3 "C:\\Users\\shw26\\OneDrive\\Desktop\\2021\\2021-1\\\354\272\241\354\212\244\355\206\244\353\224\224\354\236\220\354\235\2702\\Nuvoton\\M2351_BSP_v3.00.004\\M2351Series_BSP_CMSIS_V3.00.004\\MyProject\\PulseMonitoring\\Secure" "../../../Library/StdDriver/src/crypto.c"
	.file	4 "C:\\Users\\shw26\\OneDrive\\Desktop\\2021\\2021-1\\\354\272\241\354\212\244\355\206\244\353\224\224\354\236\220\354\235\2702\\Nuvoton\\M2351_BSP_v3.00.004\\M2351Series_BSP_CMSIS_V3.00.004\\MyProject\\PulseMonitoring\\Secure" "../../../Library/Device/Nuvoton/M2351/Include/crpt_reg.h"
	.section	.text.PRNG_Open,"ax",%progbits
	.hidden	PRNG_Open                       @ -- Begin function PRNG_Open
	.globl	PRNG_Open
	.p2align	1
	.type	PRNG_Open,%function
	.code	16                              @ @PRNG_Open
	.thumb_func
PRNG_Open:
.Lfunc_begin0:
	.loc	3 72 0                          @ ../../../Library/StdDriver/src/crypto.c:72:0
	.fnstart
	.cfi_sections .debug_frame
	.cfi_startproc
@ %bb.0:
	@DEBUG_VALUE: PRNG_Open:crpt <- $r0
	@DEBUG_VALUE: PRNG_Open:crpt <- $r0
	@DEBUG_VALUE: PRNG_Open:u32KeySize <- $r1
	@DEBUG_VALUE: PRNG_Open:u32KeySize <- $r1
	@DEBUG_VALUE: PRNG_Open:u32SeedReload <- $r2
	@DEBUG_VALUE: PRNG_Open:u32SeedReload <- $r2
	@DEBUG_VALUE: PRNG_Open:u32Seed <- $r3
	@DEBUG_VALUE: PRNG_Open:u32Seed <- $r3
	.loc	3 73 8 prologue_end             @ ../../../Library/StdDriver/src/crypto.c:73:8
	cbz	r2, .LBB0_2
.Ltmp0:
@ %bb.1:
	@DEBUG_VALUE: PRNG_Open:u32Seed <- $r3
	@DEBUG_VALUE: PRNG_Open:u32SeedReload <- $r2
	@DEBUG_VALUE: PRNG_Open:u32KeySize <- $r1
	@DEBUG_VALUE: PRNG_Open:crpt <- $r0
	.loc	3 75 25                         @ ../../../Library/StdDriver/src/crypto.c:75:25
	str	r3, [r0, #12]
.Ltmp1:
.LBB0_2:
	@DEBUG_VALUE: PRNG_Open:u32Seed <- $r3
	@DEBUG_VALUE: PRNG_Open:u32SeedReload <- $r2
	@DEBUG_VALUE: PRNG_Open:u32KeySize <- $r1
	@DEBUG_VALUE: PRNG_Open:crpt <- $r0
	.loc	3 78 34                         @ ../../../Library/StdDriver/src/crypto.c:78:34
	lsls	r1, r1, #2
.Ltmp2:
	@DEBUG_VALUE: PRNG_Open:u32KeySize <- [DW_OP_LLVM_entry_value 1] $r1
	.loc	3 79 37                         @ ../../../Library/StdDriver/src/crypto.c:79:37
	lsls	r2, r2, #1
.Ltmp3:
	@DEBUG_VALUE: PRNG_Open:u32SeedReload <- [DW_OP_LLVM_entry_value 1] $r2
	.loc	3 78 62                         @ ../../../Library/StdDriver/src/crypto.c:78:62
	orrs	r2, r1
	.loc	3 78 20 is_stmt 0               @ ../../../Library/StdDriver/src/crypto.c:78:20
	str	r2, [r0, #8]
	.loc	3 80 1 is_stmt 1                @ ../../../Library/StdDriver/src/crypto.c:80:1
	bx	lr
.Ltmp4:
.Lfunc_end0:
	.size	PRNG_Open, .Lfunc_end0-PRNG_Open
	.cfi_endproc
	.cantunwind
	.fnend
                                        @ -- End function
	.section	.text.PRNG_Start,"ax",%progbits
	.hidden	PRNG_Start                      @ -- Begin function PRNG_Start
	.globl	PRNG_Start
	.p2align	1
	.type	PRNG_Start,%function
	.code	16                              @ @PRNG_Start
	.thumb_func
PRNG_Start:
.Lfunc_begin1:
	.loc	3 88 0                          @ ../../../Library/StdDriver/src/crypto.c:88:0
	.fnstart
	.cfi_startproc
@ %bb.0:
	@DEBUG_VALUE: PRNG_Start:crpt <- $r0
	@DEBUG_VALUE: PRNG_Start:crpt <- $r0
	.loc	3 89 20 prologue_end            @ ../../../Library/StdDriver/src/crypto.c:89:20
	ldr	r1, [r0, #8]
	movs	r2, #1
	orrs	r2, r1
	str	r2, [r0, #8]
	.loc	3 90 1                          @ ../../../Library/StdDriver/src/crypto.c:90:1
	bx	lr
.Ltmp5:
.Lfunc_end1:
	.size	PRNG_Start, .Lfunc_end1-PRNG_Start
	.cfi_endproc
	.cantunwind
	.fnend
                                        @ -- End function
	.section	.text.PRNG_Read,"ax",%progbits
	.hidden	PRNG_Read                       @ -- Begin function PRNG_Read
	.globl	PRNG_Read
	.p2align	1
	.type	PRNG_Read,%function
	.code	16                              @ @PRNG_Read
	.thumb_func
PRNG_Read:
.Lfunc_begin2:
	.loc	3 99 0                          @ ../../../Library/StdDriver/src/crypto.c:99:0
	.fnstart
	.cfi_startproc
@ %bb.0:
	@DEBUG_VALUE: PRNG_Read:crpt <- $r0
	@DEBUG_VALUE: PRNG_Read:crpt <- $r0
	@DEBUG_VALUE: PRNG_Read:u32RandKey <- $r1
	@DEBUG_VALUE: PRNG_Read:u32RandKey <- $r1
	.save	{r4, lr}
	push	{r4, lr}
	.cfi_def_cfa_offset 8
	.cfi_offset lr, -4
	.cfi_offset r4, -8
.Ltmp6:
	.loc	3 102 21 prologue_end           @ ../../../Library/StdDriver/src/crypto.c:102:21
	ldr	r2, [r0, #8]
	.loc	3 102 91 is_stmt 0              @ ../../../Library/StdDriver/src/crypto.c:102:91
	lsrs	r2, r2, #1
	movs	r3, #6
	ands	r3, r2
.Ltmp7:
	@DEBUG_VALUE: PRNG_Read:i <- 0
	@DEBUG_VALUE: PRNG_Read:wcnt <- [DW_OP_plus_uconst 2, DW_OP_stack_value] $r3
	.loc	3 104 5 is_stmt 1               @ ../../../Library/StdDriver/src/crypto.c:104:5
	adds	r2, r3, #2
	mov	r3, r0
.Ltmp8:
	adds	r3, #16
.Ltmp9:
.LBB2_1:                                @ =>This Inner Loop Header: Depth=1
	@DEBUG_VALUE: PRNG_Read:crpt <- $r0
	@DEBUG_VALUE: PRNG_Read:i <- undef
	.loc	3 106 25                        @ ../../../Library/StdDriver/src/crypto.c:106:25
	ldm	r3!, {r4}
	.loc	3 106 23 is_stmt 0              @ ../../../Library/StdDriver/src/crypto.c:106:23
	stm	r1!, {r4}
.Ltmp10:
	@DEBUG_VALUE: PRNG_Read:u32RandKey <- [DW_OP_LLVM_entry_value 1] $r1
	@DEBUG_VALUE: PRNG_Read:i <- [DW_OP_plus_uconst 1, DW_OP_stack_value] undef
	.loc	3 104 19 is_stmt 1              @ ../../../Library/StdDriver/src/crypto.c:104:19
	subs	r2, r2, #1
.Ltmp11:
	.loc	3 104 5 is_stmt 0               @ ../../../Library/StdDriver/src/crypto.c:104:5
	bne	.LBB2_1
.Ltmp12:
@ %bb.2:
	@DEBUG_VALUE: PRNG_Read:crpt <- $r0
	.loc	3 109 20 is_stmt 1              @ ../../../Library/StdDriver/src/crypto.c:109:20
	ldr	r1, [r0, #8]
	movs	r2, #2
	bics	r1, r2
	str	r1, [r0, #8]
	.loc	3 110 1                         @ ../../../Library/StdDriver/src/crypto.c:110:1
	pop	{r4, pc}
.Ltmp13:
.Lfunc_end2:
	.size	PRNG_Read, .Lfunc_end2-PRNG_Read
	.cfi_endproc
	.cantunwind
	.fnend
                                        @ -- End function
	.section	.text.AES_Open,"ax",%progbits
	.hidden	AES_Open                        @ -- Begin function AES_Open
	.globl	AES_Open
	.p2align	2
	.type	AES_Open,%function
	.code	16                              @ @AES_Open
	.thumb_func
AES_Open:
.Lfunc_begin3:
	.loc	3 140 0                         @ ../../../Library/StdDriver/src/crypto.c:140:0
	.fnstart
	.cfi_startproc
@ %bb.0:
	@DEBUG_VALUE: AES_Open:crpt <- $r0
	@DEBUG_VALUE: AES_Open:crpt <- $r0
	@DEBUG_VALUE: AES_Open:u32Channel <- $r1
	@DEBUG_VALUE: AES_Open:u32Channel <- $r1
	@DEBUG_VALUE: AES_Open:u32EncDec <- $r2
	@DEBUG_VALUE: AES_Open:u32EncDec <- $r2
	@DEBUG_VALUE: AES_Open:u32OpMode <- $r3
	@DEBUG_VALUE: AES_Open:u32OpMode <- $r3
	.save	{r4, lr}
	push	{r4, lr}
	.cfi_def_cfa_offset 8
	.cfi_offset lr, -4
	.cfi_offset r4, -8
.Ltmp14:
	@DEBUG_VALUE: AES_Open:u32KeySize <- [DW_OP_plus_uconst 8] [$sp+0]
	@DEBUG_VALUE: AES_Open:u32SwapType <- [DW_OP_plus_uconst 12] [$sp+0]
	.loc	3 141 33 prologue_end           @ ../../../Library/StdDriver/src/crypto.c:141:33
	lsls	r4, r1, #24
	.loc	3 142 32                        @ ../../../Library/StdDriver/src/crypto.c:142:32
	lsls	r2, r2, #16
.Ltmp15:
	@DEBUG_VALUE: AES_Open:u32EncDec <- [DW_OP_LLVM_entry_value 1] $r2
	.loc	3 141 62                        @ ../../../Library/StdDriver/src/crypto.c:141:62
	orrs	r2, r4
	.loc	3 143 32                        @ ../../../Library/StdDriver/src/crypto.c:143:32
	lsls	r3, r3, #8
.Ltmp16:
	@DEBUG_VALUE: AES_Open:u32OpMode <- [DW_OP_LLVM_entry_value 1] $r3
	.loc	3 142 60                        @ ../../../Library/StdDriver/src/crypto.c:142:60
	orrs	r3, r2
	ldr	r2, [sp, #8]
	.loc	3 144 33                        @ ../../../Library/StdDriver/src/crypto.c:144:33
	lsls	r2, r2, #2
	.loc	3 143 60                        @ ../../../Library/StdDriver/src/crypto.c:143:60
	orrs	r2, r3
	ldr	r3, [sp, #12]
	.loc	3 145 34                        @ ../../../Library/StdDriver/src/crypto.c:145:34
	lsls	r3, r3, #22
	.loc	3 144 60                        @ ../../../Library/StdDriver/src/crypto.c:144:60
	orrs	r3, r2
	movw	r2, #256
	.loc	3 141 19                        @ ../../../Library/StdDriver/src/crypto.c:141:19
	str	r3, [r0, r2]
	.loc	3 146 35                        @ ../../../Library/StdDriver/src/crypto.c:146:35
	ldr	r0, [r0, r2]
.Ltmp17:
	@DEBUG_VALUE: AES_Open:crpt <- [DW_OP_LLVM_entry_value 1] $r0
	.loc	3 146 5 is_stmt 0               @ ../../../Library/StdDriver/src/crypto.c:146:5
	lsls	r1, r1, #2
.Ltmp18:
	@DEBUG_VALUE: AES_Open:u32Channel <- [DW_OP_LLVM_entry_value 1] $r1
	ldr	r2, __arm_cp.3_0
	.loc	3 146 27                        @ ../../../Library/StdDriver/src/crypto.c:146:27
	str	r0, [r2, r1]
	.loc	3 147 1 is_stmt 1               @ ../../../Library/StdDriver/src/crypto.c:147:1
	pop	{r4, pc}
.Ltmp19:
	.p2align	2
@ %bb.1:
	.loc	3 0 1 is_stmt 0                 @ ../../../Library/StdDriver/src/crypto.c:0:1
__arm_cp.3_0:
	.long	g_AES_CTL
.Lcpi_end0:
	.size	__arm_cp.3_0, .Lcpi_end0-__arm_cp.3_0
.Lfunc_end3:
	.size	AES_Open, .Lfunc_end3-AES_Open
	.cfi_endproc
	.cantunwind
	.fnend
                                        @ -- End function
	.section	.text.AES_Start,"ax",%progbits
	.hidden	AES_Start                       @ -- Begin function AES_Start
	.globl	AES_Start
	.p2align	2
	.type	AES_Start,%function
	.code	16                              @ @AES_Start
	.thumb_func
AES_Start:
.Lfunc_begin4:
	.loc	3 160 0 is_stmt 1               @ ../../../Library/StdDriver/src/crypto.c:160:0
	.fnstart
	.cfi_startproc
@ %bb.0:
	@DEBUG_VALUE: AES_Start:crpt <- $r0
	@DEBUG_VALUE: AES_Start:crpt <- $r0
	@DEBUG_VALUE: AES_Start:u32Channel <- $r1
	@DEBUG_VALUE: AES_Start:u32Channel <- $r1
	@DEBUG_VALUE: AES_Start:u32DMAMode <- $r2
	@DEBUG_VALUE: AES_Start:u32DMAMode <- $r2
	.loc	3 161 21 prologue_end           @ ../../../Library/StdDriver/src/crypto.c:161:21
	lsls	r1, r1, #2
.Ltmp20:
	@DEBUG_VALUE: AES_Start:u32Channel <- [DW_OP_LLVM_entry_value 1] $r1
	ldr	r3, __arm_cp.4_0
	ldr	r1, [r3, r1]
	movw	r3, #256
	.loc	3 161 19 is_stmt 0              @ ../../../Library/StdDriver/src/crypto.c:161:19
	str	r1, [r0, r3]
	.loc	3 162 19 is_stmt 1              @ ../../../Library/StdDriver/src/crypto.c:162:19
	ldr	r1, [r0, r3]
	.loc	3 162 59 is_stmt 0              @ ../../../Library/StdDriver/src/crypto.c:162:59
	lsls	r2, r2, #5
.Ltmp21:
	@DEBUG_VALUE: AES_Start:u32DMAMode <- [DW_OP_LLVM_entry_value 1] $r2
	.loc	3 162 19                        @ ../../../Library/StdDriver/src/crypto.c:162:19
	orrs	r2, r1
	movs	r1, #1
	orrs	r1, r2
	str	r1, [r0, r3]
	.loc	3 163 1 is_stmt 1               @ ../../../Library/StdDriver/src/crypto.c:163:1
	bx	lr
.Ltmp22:
	.p2align	2
@ %bb.1:
	.loc	3 0 1 is_stmt 0                 @ ../../../Library/StdDriver/src/crypto.c:0:1
__arm_cp.4_0:
	.long	g_AES_CTL
.Lcpi_end1:
	.size	__arm_cp.4_0, .Lcpi_end1-__arm_cp.4_0
.Lfunc_end4:
	.size	AES_Start, .Lfunc_end4-AES_Start
	.cfi_endproc
	.cantunwind
	.fnend
                                        @ -- End function
	.section	.text.AES_SetKey,"ax",%progbits
	.hidden	AES_SetKey                      @ -- Begin function AES_SetKey
	.globl	AES_SetKey
	.p2align	1
	.type	AES_SetKey,%function
	.code	16                              @ @AES_SetKey
	.thumb_func
AES_SetKey:
.Lfunc_begin5:
	.loc	3 177 0 is_stmt 1               @ ../../../Library/StdDriver/src/crypto.c:177:0
	.fnstart
	.cfi_startproc
@ %bb.0:
	@DEBUG_VALUE: AES_SetKey:crpt <- $r0
	@DEBUG_VALUE: AES_SetKey:crpt <- $r0
	@DEBUG_VALUE: AES_SetKey:u32Channel <- $r1
	@DEBUG_VALUE: AES_SetKey:u32Channel <- $r1
	@DEBUG_VALUE: AES_SetKey:au32Keys <- $r2
	@DEBUG_VALUE: AES_SetKey:au32Keys <- $r2
	@DEBUG_VALUE: AES_SetKey:u32KeySize <- $r3
	@DEBUG_VALUE: AES_SetKey:u32KeySize <- $r3
	.save	{r4, lr}
	push	{r4, lr}
	.cfi_def_cfa_offset 8
	.cfi_offset lr, -4
	.cfi_offset r4, -8
.Ltmp23:
	@DEBUG_VALUE: AES_SetKey:key_reg_addr <- undef
	.loc	3 181 29 prologue_end           @ ../../../Library/StdDriver/src/crypto.c:181:29
	lsls	r3, r3, #1
.Ltmp24:
	@DEBUG_VALUE: AES_SetKey:u32KeySize <- [DW_OP_LLVM_entry_value 1] $r3
	.loc	3 181 16 is_stmt 0              @ ../../../Library/StdDriver/src/crypto.c:181:16
	adds	r3, r3, #4
.Ltmp25:
	@DEBUG_VALUE: AES_SetKey:i <- 0
	@DEBUG_VALUE: AES_SetKey:wcnt <- $r3
	@DEBUG_VALUE: AES_SetKey:key_reg_addr <- undef
	.loc	3 183 5 is_stmt 1               @ ../../../Library/StdDriver/src/crypto.c:183:5
	beq	.LBB5_3
.Ltmp26:
@ %bb.1:
	@DEBUG_VALUE: AES_SetKey:wcnt <- $r3
	@DEBUG_VALUE: AES_SetKey:au32Keys <- $r2
	@DEBUG_VALUE: AES_SetKey:u32Channel <- $r1
	@DEBUG_VALUE: AES_SetKey:crpt <- $r0
	@DEBUG_VALUE: AES_SetKey:i <- 0
	@DEBUG_VALUE: AES_SetKey:u32KeySize <- [DW_OP_LLVM_entry_value 1] $r3
	.loc	3 0 5 is_stmt 0                 @ ../../../Library/StdDriver/src/crypto.c:0:5
	movs	r4, #60
	.loc	3 180 63 is_stmt 1              @ ../../../Library/StdDriver/src/crypto.c:180:63
	muls	r4, r1, r4
	.loc	3 180 31 is_stmt 0              @ ../../../Library/StdDriver/src/crypto.c:180:31
	adds	r0, r0, r4
.Ltmp27:
	@DEBUG_VALUE: AES_SetKey:crpt <- [DW_OP_LLVM_entry_value 1] $r0
	.loc	3 0 31                          @ ../../../Library/StdDriver/src/crypto.c:0:31
	movw	r1, #272
.Ltmp28:
	@DEBUG_VALUE: AES_SetKey:u32Channel <- [DW_OP_LLVM_entry_value 1] $r1
	.loc	3 180 49                        @ ../../../Library/StdDriver/src/crypto.c:180:49
	adds	r0, r0, r1
.Ltmp29:
	@DEBUG_VALUE: AES_SetKey:key_reg_addr <- $r0
.LBB5_2:                                @ =>This Inner Loop Header: Depth=1
	@DEBUG_VALUE: AES_SetKey:key_reg_addr <- $r0
	@DEBUG_VALUE: AES_SetKey:u32Channel <- [DW_OP_LLVM_entry_value 1] $r1
	@DEBUG_VALUE: AES_SetKey:crpt <- [DW_OP_LLVM_entry_value 1] $r0
	@DEBUG_VALUE: AES_SetKey:u32KeySize <- [DW_OP_LLVM_entry_value 1] $r3
	@DEBUG_VALUE: AES_SetKey:key_reg_addr <- $r0
	@DEBUG_VALUE: AES_SetKey:i <- undef
	.loc	3 185 9 is_stmt 1               @ ../../../Library/StdDriver/src/crypto.c:185:9
	ldm	r2!, {r1}
.Ltmp30:
	@DEBUG_VALUE: AES_SetKey:au32Keys <- [DW_OP_LLVM_entry_value 1] $r2
	stm	r0!, {r1}
.Ltmp31:
	@DEBUG_VALUE: AES_SetKey:i <- [DW_OP_plus_uconst 1, DW_OP_stack_value] undef
	@DEBUG_VALUE: AES_SetKey:key_reg_addr <- $r0
	.loc	3 183 19                        @ ../../../Library/StdDriver/src/crypto.c:183:19
	subs	r3, r3, #1
.Ltmp32:
	.loc	3 183 5 is_stmt 0               @ ../../../Library/StdDriver/src/crypto.c:183:5
	bne	.LBB5_2
.Ltmp33:
.LBB5_3:
	@DEBUG_VALUE: AES_SetKey:u32KeySize <- [DW_OP_LLVM_entry_value 1] $r3
	.loc	3 188 1 is_stmt 1               @ ../../../Library/StdDriver/src/crypto.c:188:1
	pop	{r4, pc}
.Ltmp34:
.Lfunc_end5:
	.size	AES_SetKey, .Lfunc_end5-AES_SetKey
	.cfi_endproc
	.cantunwind
	.fnend
                                        @ -- End function
	.section	.text.AES_SetInitVect,"ax",%progbits
	.hidden	AES_SetInitVect                 @ -- Begin function AES_SetInitVect
	.globl	AES_SetInitVect
	.p2align	1
	.type	AES_SetInitVect,%function
	.code	16                              @ @AES_SetInitVect
	.thumb_func
AES_SetInitVect:
.Lfunc_begin6:
	.loc	3 198 0                         @ ../../../Library/StdDriver/src/crypto.c:198:0
	.fnstart
	.cfi_startproc
@ %bb.0:
	@DEBUG_VALUE: AES_SetInitVect:crpt <- $r0
	@DEBUG_VALUE: AES_SetInitVect:u32Channel <- $r1
	@DEBUG_VALUE: AES_SetInitVect:au32IV <- $r2
	movs	r3, #60
	@DEBUG_VALUE: AES_SetInitVect:au32IV <- $r2
	@DEBUG_VALUE: AES_SetInitVect:u32Channel <- $r1
	@DEBUG_VALUE: AES_SetInitVect:crpt <- $r0
.Ltmp35:
	.loc	3 201 62 prologue_end           @ ../../../Library/StdDriver/src/crypto.c:201:62
	muls	r3, r1, r3
	.loc	3 201 31 is_stmt 0              @ ../../../Library/StdDriver/src/crypto.c:201:31
	adds	r0, r0, r3
.Ltmp36:
	@DEBUG_VALUE: AES_SetInitVect:crpt <- [DW_OP_LLVM_entry_value 1] $r0
	.loc	3 0 31                          @ ../../../Library/StdDriver/src/crypto.c:0:31
	movw	r1, #304
.Ltmp37:
	@DEBUG_VALUE: AES_SetInitVect:u32Channel <- [DW_OP_LLVM_entry_value 1] $r1
	.loc	3 201 48                        @ ../../../Library/StdDriver/src/crypto.c:201:48
	adds	r0, r0, r1
.Ltmp38:
	@DEBUG_VALUE: AES_SetInitVect:key_reg_addr <- $r0
	.loc	3 0 48                          @ ../../../Library/StdDriver/src/crypto.c:0:48
	movs	r1, #0
.Ltmp39:
	@DEBUG_VALUE: AES_SetInitVect:i <- 0
.LBB6_1:                                @ =>This Inner Loop Header: Depth=1
	@DEBUG_VALUE: AES_SetInitVect:au32IV <- $r2
	@DEBUG_VALUE: AES_SetInitVect:u32Channel <- [DW_OP_LLVM_entry_value 1] $r1
	@DEBUG_VALUE: AES_SetInitVect:crpt <- [DW_OP_LLVM_entry_value 1] $r0
	@DEBUG_VALUE: AES_SetInitVect:key_reg_addr <- undef
	@DEBUG_VALUE: AES_SetInitVect:i <- undef
	.loc	3 205 9 is_stmt 1               @ ../../../Library/StdDriver/src/crypto.c:205:9
	ldr	r3, [r2, r1]
	str	r3, [r0, r1]
.Ltmp40:
	@DEBUG_VALUE: AES_SetInitVect:i <- [DW_OP_plus_uconst 1, DW_OP_stack_value] undef
	@DEBUG_VALUE: AES_SetInitVect:key_reg_addr <- [DW_OP_plus_uconst 4, DW_OP_stack_value] undef
	.loc	3 203 19                        @ ../../../Library/StdDriver/src/crypto.c:203:19
	adds	r1, r1, #4
.Ltmp41:
	.loc	3 203 5 is_stmt 0               @ ../../../Library/StdDriver/src/crypto.c:203:5
	cmp	r1, #16
	bne	.LBB6_1
.Ltmp42:
@ %bb.2:
	@DEBUG_VALUE: AES_SetInitVect:au32IV <- $r2
	@DEBUG_VALUE: AES_SetInitVect:u32Channel <- [DW_OP_LLVM_entry_value 1] $r1
	@DEBUG_VALUE: AES_SetInitVect:crpt <- [DW_OP_LLVM_entry_value 1] $r0
	.loc	3 208 1 is_stmt 1               @ ../../../Library/StdDriver/src/crypto.c:208:1
	bx	lr
.Ltmp43:
.Lfunc_end6:
	.size	AES_SetInitVect, .Lfunc_end6-AES_SetInitVect
	.cfi_endproc
	.cantunwind
	.fnend
                                        @ -- End function
	.section	.text.AES_SetDMATransfer,"ax",%progbits
	.hidden	AES_SetDMATransfer              @ -- Begin function AES_SetDMATransfer
	.globl	AES_SetDMATransfer
	.p2align	1
	.type	AES_SetDMATransfer,%function
	.code	16                              @ @AES_SetDMATransfer
	.thumb_func
AES_SetDMATransfer:
.Lfunc_begin7:
	.loc	3 221 0                         @ ../../../Library/StdDriver/src/crypto.c:221:0
	.fnstart
	.cfi_startproc
@ %bb.0:
	@DEBUG_VALUE: AES_SetDMATransfer:crpt <- $r0
	@DEBUG_VALUE: AES_SetDMATransfer:u32Channel <- $r1
	@DEBUG_VALUE: AES_SetDMATransfer:u32SrcAddr <- $r2
	@DEBUG_VALUE: AES_SetDMATransfer:u32DstAddr <- $r3
	.save	{r4, lr}
	push	{r4, lr}
	.cfi_def_cfa_offset 8
	.cfi_offset lr, -4
	.cfi_offset r4, -8
	movs	r4, #60
.Ltmp44:
	@DEBUG_VALUE: AES_SetDMATransfer:u32TransCnt <- [DW_OP_plus_uconst 8] [$sp+0]
	@DEBUG_VALUE: AES_SetDMATransfer:u32DstAddr <- $r3
	@DEBUG_VALUE: AES_SetDMATransfer:u32SrcAddr <- $r2
	@DEBUG_VALUE: AES_SetDMATransfer:u32Channel <- $r1
	@DEBUG_VALUE: AES_SetDMATransfer:crpt <- $r0
	.loc	3 224 58 prologue_end           @ ../../../Library/StdDriver/src/crypto.c:224:58
	muls	r4, r1, r4
	.loc	3 224 33 is_stmt 0              @ ../../../Library/StdDriver/src/crypto.c:224:33
	adds	r0, r0, r4
.Ltmp45:
	@DEBUG_VALUE: AES_SetDMATransfer:crpt <- [DW_OP_LLVM_entry_value 1] $r0
	.loc	3 0 33                          @ ../../../Library/StdDriver/src/crypto.c:0:33
	movw	r1, #320
.Ltmp46:
	@DEBUG_VALUE: AES_SetDMATransfer:u32Channel <- [DW_OP_LLVM_entry_value 1] $r1
	@DEBUG_VALUE: AES_SetDMATransfer:reg_addr <- [DW_OP_plus_uconst 320, DW_OP_stack_value] $r0
	.loc	3 225 5 is_stmt 1               @ ../../../Library/StdDriver/src/crypto.c:225:5
	str	r2, [r0, r1]
	movw	r1, #324
.Ltmp47:
	@DEBUG_VALUE: AES_SetDMATransfer:reg_addr <- [DW_OP_plus_uconst 324, DW_OP_stack_value] $r0
	.loc	3 228 5                         @ ../../../Library/StdDriver/src/crypto.c:228:5
	str	r3, [r0, r1]
	movw	r1, #328
	ldr	r2, [sp, #8]
.Ltmp48:
	@DEBUG_VALUE: AES_SetDMATransfer:u32SrcAddr <- [DW_OP_LLVM_entry_value 1] $r2
	@DEBUG_VALUE: AES_SetDMATransfer:reg_addr <- [DW_OP_plus_uconst 328, DW_OP_stack_value] $r0
	.loc	3 231 5                         @ ../../../Library/StdDriver/src/crypto.c:231:5
	str	r2, [r0, r1]
	.loc	3 232 1                         @ ../../../Library/StdDriver/src/crypto.c:232:1
	pop	{r4, pc}
.Ltmp49:
.Lfunc_end7:
	.size	AES_SetDMATransfer, .Lfunc_end7-AES_SetDMATransfer
	.cfi_endproc
	.cantunwind
	.fnend
                                        @ -- End function
	.section	.text.TDES_Open,"ax",%progbits
	.hidden	TDES_Open                       @ -- Begin function TDES_Open
	.globl	TDES_Open
	.p2align	2
	.type	TDES_Open,%function
	.code	16                              @ @TDES_Open
	.thumb_func
TDES_Open:
.Lfunc_begin8:
	.loc	3 260 0                         @ ../../../Library/StdDriver/src/crypto.c:260:0
	.fnstart
	.cfi_startproc
@ %bb.0:
	@DEBUG_VALUE: TDES_Open:crpt <- $r0
	@DEBUG_VALUE: TDES_Open:u32Channel <- $r1
	@DEBUG_VALUE: TDES_Open:u32Channel <- $r1
	@DEBUG_VALUE: TDES_Open:u32EncDec <- $r2
	@DEBUG_VALUE: TDES_Open:u32EncDec <- $r2
	@DEBUG_VALUE: TDES_Open:Is3DES <- $r3
	@DEBUG_VALUE: TDES_Open:Is3DES <- $r3
	.save	{r4, lr}
	push	{r4, lr}
	.cfi_def_cfa_offset 8
	.cfi_offset lr, -4
	.cfi_offset r4, -8
.Ltmp50:
	@DEBUG_VALUE: TDES_Open:Is3Key <- [DW_OP_plus_uconst 8] [$sp+0]
	@DEBUG_VALUE: TDES_Open:u32OpMode <- [DW_OP_plus_uconst 12] [$sp+0]
	@DEBUG_VALUE: TDES_Open:u32SwapType <- [DW_OP_plus_uconst 16] [$sp+0]
	.loc	3 261 42 prologue_end           @ ../../../Library/StdDriver/src/crypto.c:261:42
	lsls	r0, r1, #24
.Ltmp51:
	@DEBUG_VALUE: TDES_Open:crpt <- [DW_OP_LLVM_entry_value 1] $r0
	.loc	3 262 41                        @ ../../../Library/StdDriver/src/crypto.c:262:41
	lsls	r2, r2, #16
.Ltmp52:
	@DEBUG_VALUE: TDES_Open:u32EncDec <- [DW_OP_LLVM_entry_value 1] $r2
	.loc	3 261 72                        @ ../../../Library/StdDriver/src/crypto.c:261:72
	orrs	r2, r0
	ldr	r4, [sp, #12]
	.loc	3 262 70                        @ ../../../Library/StdDriver/src/crypto.c:262:70
	orrs	r4, r2
	ldr	r0, [sp, #16]
	.loc	3 263 55                        @ ../../../Library/StdDriver/src/crypto.c:263:55
	lsls	r0, r0, #21
	.loc	3 263 40 is_stmt 0              @ ../../../Library/StdDriver/src/crypto.c:263:40
	orrs	r0, r4
	.loc	3 264 8 is_stmt 1               @ ../../../Library/StdDriver/src/crypto.c:264:8
	cbz	r3, .LBB8_2
.Ltmp53:
@ %bb.1:
	@DEBUG_VALUE: TDES_Open:Is3DES <- $r3
	@DEBUG_VALUE: TDES_Open:u32Channel <- $r1
	@DEBUG_VALUE: TDES_Open:u32SwapType <- [DW_OP_plus_uconst 16] [$sp+0]
	@DEBUG_VALUE: TDES_Open:u32OpMode <- [DW_OP_plus_uconst 12] [$sp+0]
	@DEBUG_VALUE: TDES_Open:Is3Key <- [DW_OP_plus_uconst 8] [$sp+0]
	@DEBUG_VALUE: TDES_Open:u32EncDec <- [DW_OP_LLVM_entry_value 1] $r2
	@DEBUG_VALUE: TDES_Open:crpt <- [DW_OP_LLVM_entry_value 1] $r0
	.loc	3 0 8 is_stmt 0                 @ ../../../Library/StdDriver/src/crypto.c:0:8
	movs	r2, #4
	orrs	r0, r2
.Ltmp54:
.LBB8_2:
	@DEBUG_VALUE: TDES_Open:Is3DES <- $r3
	@DEBUG_VALUE: TDES_Open:u32Channel <- $r1
	@DEBUG_VALUE: TDES_Open:u32SwapType <- [DW_OP_plus_uconst 16] [$sp+0]
	@DEBUG_VALUE: TDES_Open:u32OpMode <- [DW_OP_plus_uconst 12] [$sp+0]
	@DEBUG_VALUE: TDES_Open:Is3Key <- [DW_OP_plus_uconst 8] [$sp+0]
	@DEBUG_VALUE: TDES_Open:u32EncDec <- [DW_OP_LLVM_entry_value 1] $r2
	@DEBUG_VALUE: TDES_Open:crpt <- [DW_OP_LLVM_entry_value 1] $r0
	ldr	r2, [sp, #8]
	.loc	3 268 8 is_stmt 1               @ ../../../Library/StdDriver/src/crypto.c:268:8
	cbz	r2, .LBB8_4
.Ltmp55:
@ %bb.3:
	@DEBUG_VALUE: TDES_Open:Is3DES <- $r3
	@DEBUG_VALUE: TDES_Open:u32Channel <- $r1
	@DEBUG_VALUE: TDES_Open:u32SwapType <- [DW_OP_plus_uconst 16] [$sp+0]
	@DEBUG_VALUE: TDES_Open:u32OpMode <- [DW_OP_plus_uconst 12] [$sp+0]
	@DEBUG_VALUE: TDES_Open:Is3Key <- [DW_OP_plus_uconst 8] [$sp+0]
	@DEBUG_VALUE: TDES_Open:u32EncDec <- [DW_OP_LLVM_entry_value 1] $r2
	@DEBUG_VALUE: TDES_Open:crpt <- [DW_OP_LLVM_entry_value 1] $r0
	.loc	3 0 8 is_stmt 0                 @ ../../../Library/StdDriver/src/crypto.c:0:8
	movs	r2, #8
	orrs	r0, r2
.Ltmp56:
.LBB8_4:
	@DEBUG_VALUE: TDES_Open:Is3DES <- $r3
	@DEBUG_VALUE: TDES_Open:u32Channel <- $r1
	@DEBUG_VALUE: TDES_Open:u32SwapType <- [DW_OP_plus_uconst 16] [$sp+0]
	@DEBUG_VALUE: TDES_Open:u32OpMode <- [DW_OP_plus_uconst 12] [$sp+0]
	@DEBUG_VALUE: TDES_Open:Is3Key <- [DW_OP_plus_uconst 8] [$sp+0]
	@DEBUG_VALUE: TDES_Open:u32EncDec <- [DW_OP_LLVM_entry_value 1] $r2
	@DEBUG_VALUE: TDES_Open:crpt <- [DW_OP_LLVM_entry_value 1] $r0
	.loc	3 261 5 is_stmt 1               @ ../../../Library/StdDriver/src/crypto.c:261:5
	lsls	r1, r1, #2
.Ltmp57:
	@DEBUG_VALUE: TDES_Open:u32Channel <- [DW_OP_LLVM_entry_value 1] $r1
	ldr	r2, __arm_cp.8_0
	.loc	3 0 0 is_stmt 0                 @ ../../../Library/StdDriver/src/crypto.c:0:0
	str	r0, [r2, r1]
	.loc	3 272 1 is_stmt 1               @ ../../../Library/StdDriver/src/crypto.c:272:1
	pop	{r4, pc}
.Ltmp58:
	.p2align	2
@ %bb.5:
	.loc	3 0 1 is_stmt 0                 @ ../../../Library/StdDriver/src/crypto.c:0:1
__arm_cp.8_0:
	.long	g_TDES_CTL
.Lcpi_end2:
	.size	__arm_cp.8_0, .Lcpi_end2-__arm_cp.8_0
.Lfunc_end8:
	.size	TDES_Open, .Lfunc_end8-TDES_Open
	.cfi_endproc
	.cantunwind
	.fnend
                                        @ -- End function
	.section	.text.TDES_Start,"ax",%progbits
	.hidden	TDES_Start                      @ -- Begin function TDES_Start
	.globl	TDES_Start
	.p2align	2
	.type	TDES_Start,%function
	.code	16                              @ @TDES_Start
	.thumb_func
TDES_Start:
.Lfunc_begin9:
	.loc	3 285 0 is_stmt 1               @ ../../../Library/StdDriver/src/crypto.c:285:0
	.fnstart
	.cfi_startproc
@ %bb.0:
	@DEBUG_VALUE: TDES_Start:crpt <- $r0
	@DEBUG_VALUE: TDES_Start:crpt <- $r0
	@DEBUG_VALUE: TDES_Start:u32Channel <- $r1
	@DEBUG_VALUE: TDES_Start:u32Channel <- $r1
	@DEBUG_VALUE: TDES_Start:u32DMAMode <- $r2
	@DEBUG_VALUE: TDES_Start:u32DMAMode <- $r2
	.save	{r4, lr}
	push	{r4, lr}
	.cfi_def_cfa_offset 8
	.cfi_offset lr, -4
	.cfi_offset r4, -8
.Ltmp59:
	.loc	3 286 5 prologue_end            @ ../../../Library/StdDriver/src/crypto.c:286:5
	lsls	r1, r1, #2
.Ltmp60:
	@DEBUG_VALUE: TDES_Start:u32Channel <- [DW_OP_LLVM_entry_value 1] $r1
	ldr	r3, __arm_cp.9_0
	.loc	3 286 28 is_stmt 0              @ ../../../Library/StdDriver/src/crypto.c:286:28
	ldr	r4, [r3, r1]
	.loc	3 286 69                        @ ../../../Library/StdDriver/src/crypto.c:286:69
	lsls	r2, r2, #5
.Ltmp61:
	@DEBUG_VALUE: TDES_Start:u32DMAMode <- [DW_OP_LLVM_entry_value 1] $r2
	.loc	3 286 28                        @ ../../../Library/StdDriver/src/crypto.c:286:28
	orrs	r2, r4
	movs	r4, #1
	orrs	r4, r2
	str	r4, [r3, r1]
	movw	r1, #512
	.loc	3 287 20 is_stmt 1              @ ../../../Library/StdDriver/src/crypto.c:287:20
	str	r4, [r0, r1]
	.loc	3 288 1                         @ ../../../Library/StdDriver/src/crypto.c:288:1
	pop	{r4, pc}
.Ltmp62:
	.p2align	2
@ %bb.1:
	.loc	3 0 1 is_stmt 0                 @ ../../../Library/StdDriver/src/crypto.c:0:1
__arm_cp.9_0:
	.long	g_TDES_CTL
.Lcpi_end3:
	.size	__arm_cp.9_0, .Lcpi_end3-__arm_cp.9_0
.Lfunc_end9:
	.size	TDES_Start, .Lfunc_end9-TDES_Start
	.cfi_endproc
	.cantunwind
	.fnend
                                        @ -- End function
	.section	.text.TDES_SetKey,"ax",%progbits
	.hidden	TDES_SetKey                     @ -- Begin function TDES_SetKey
	.globl	TDES_SetKey
	.p2align	1
	.type	TDES_SetKey,%function
	.code	16                              @ @TDES_SetKey
	.thumb_func
TDES_SetKey:
.Lfunc_begin10:
	.loc	3 298 0 is_stmt 1               @ ../../../Library/StdDriver/src/crypto.c:298:0
	.fnstart
	.cfi_startproc
@ %bb.0:
	@DEBUG_VALUE: TDES_SetKey:crpt <- $r0
	@DEBUG_VALUE: TDES_SetKey:crpt <- $r0
	@DEBUG_VALUE: TDES_SetKey:u32Channel <- $r1
	@DEBUG_VALUE: TDES_SetKey:u32Channel <- $r1
	@DEBUG_VALUE: TDES_SetKey:au32Keys <- $r2
	@DEBUG_VALUE: TDES_SetKey:au32Keys <- $r2
	.save	{r4, lr}
	push	{r4, lr}
	.cfi_def_cfa_offset 8
	.cfi_offset lr, -4
	.cfi_offset r4, -8
.Ltmp63:
	.loc	3 301 55 prologue_end           @ ../../../Library/StdDriver/src/crypto.c:301:55
	lsls	r1, r1, #6
.Ltmp64:
	@DEBUG_VALUE: TDES_SetKey:u32Channel <- [DW_OP_LLVM_entry_value 1] $r1
	.loc	3 301 33 is_stmt 0              @ ../../../Library/StdDriver/src/crypto.c:301:33
	adds	r0, r0, r1
.Ltmp65:
	@DEBUG_VALUE: TDES_SetKey:crpt <- [DW_OP_LLVM_entry_value 1] $r0
	.loc	3 0 33                          @ ../../../Library/StdDriver/src/crypto.c:0:33
	movw	r1, #520
	.loc	3 301 45                        @ ../../../Library/StdDriver/src/crypto.c:301:45
	adds	r0, r0, r1
.Ltmp66:
	@DEBUG_VALUE: TDES_SetKey:reg_addr <- $r0
	.loc	3 0 45                          @ ../../../Library/StdDriver/src/crypto.c:0:45
	movs	r1, #0
.Ltmp67:
	@DEBUG_VALUE: TDES_SetKey:i <- 0
.LBB10_1:                               @ =>This Inner Loop Header: Depth=1
	@DEBUG_VALUE: TDES_SetKey:au32Keys <- $r2
	@DEBUG_VALUE: TDES_SetKey:crpt <- [DW_OP_LLVM_entry_value 1] $r0
	@DEBUG_VALUE: TDES_SetKey:u32Channel <- [DW_OP_LLVM_entry_value 1] $r1
	@DEBUG_VALUE: TDES_SetKey:reg_addr <- undef
	@DEBUG_VALUE: TDES_SetKey:i <- undef
	.loc	3 305 9 is_stmt 1               @ ../../../Library/StdDriver/src/crypto.c:305:9
	ldr	r3, [r2, r1]
	str	r3, [r0, r1]
	adds	r3, r0, r1
	adds	r4, r2, r1
.Ltmp68:
	@DEBUG_VALUE: TDES_SetKey:reg_addr <- [DW_OP_plus_uconst 4, DW_OP_stack_value] undef
	.loc	3 307 9                         @ ../../../Library/StdDriver/src/crypto.c:307:9
	ldr	r4, [r4, #4]
	str	r4, [r3, #4]
.Ltmp69:
	@DEBUG_VALUE: TDES_SetKey:i <- [DW_OP_plus_uconst 1, DW_OP_stack_value] undef
	@DEBUG_VALUE: TDES_SetKey:reg_addr <- [DW_OP_plus_uconst 8, DW_OP_stack_value] undef
	.loc	3 303 19                        @ ../../../Library/StdDriver/src/crypto.c:303:19
	adds	r1, #8
.Ltmp70:
	.loc	3 303 5 is_stmt 0               @ ../../../Library/StdDriver/src/crypto.c:303:5
	cmp	r1, #24
	bne	.LBB10_1
.Ltmp71:
@ %bb.2:
	@DEBUG_VALUE: TDES_SetKey:au32Keys <- $r2
	@DEBUG_VALUE: TDES_SetKey:crpt <- [DW_OP_LLVM_entry_value 1] $r0
	@DEBUG_VALUE: TDES_SetKey:u32Channel <- [DW_OP_LLVM_entry_value 1] $r1
	.loc	3 310 1 is_stmt 1               @ ../../../Library/StdDriver/src/crypto.c:310:1
	pop	{r4, pc}
.Ltmp72:
.Lfunc_end10:
	.size	TDES_SetKey, .Lfunc_end10-TDES_SetKey
	.cfi_endproc
	.cantunwind
	.fnend
                                        @ -- End function
	.section	.text.TDES_SetInitVect,"ax",%progbits
	.hidden	TDES_SetInitVect                @ -- Begin function TDES_SetInitVect
	.globl	TDES_SetInitVect
	.p2align	1
	.type	TDES_SetInitVect,%function
	.code	16                              @ @TDES_SetInitVect
	.thumb_func
TDES_SetInitVect:
.Lfunc_begin11:
	.loc	3 321 0                         @ ../../../Library/StdDriver/src/crypto.c:321:0
	.fnstart
	.cfi_startproc
@ %bb.0:
	@DEBUG_VALUE: TDES_SetInitVect:crpt <- $r0
	@DEBUG_VALUE: TDES_SetInitVect:crpt <- $r0
	@DEBUG_VALUE: TDES_SetInitVect:u32Channel <- $r1
	@DEBUG_VALUE: TDES_SetInitVect:u32Channel <- $r1
	@DEBUG_VALUE: TDES_SetInitVect:u32IVH <- $r2
	@DEBUG_VALUE: TDES_SetInitVect:u32IVH <- $r2
	@DEBUG_VALUE: TDES_SetInitVect:u32IVL <- $r3
	@DEBUG_VALUE: TDES_SetInitVect:u32IVL <- $r3
	.loc	3 324 57 prologue_end           @ ../../../Library/StdDriver/src/crypto.c:324:57
	lsls	r1, r1, #6
.Ltmp73:
	@DEBUG_VALUE: TDES_SetInitVect:u32Channel <- [DW_OP_LLVM_entry_value 1] $r1
	.loc	3 324 33 is_stmt 0              @ ../../../Library/StdDriver/src/crypto.c:324:33
	adds	r0, r0, r1
.Ltmp74:
	@DEBUG_VALUE: TDES_SetInitVect:crpt <- [DW_OP_LLVM_entry_value 1] $r0
	.loc	3 0 33                          @ ../../../Library/StdDriver/src/crypto.c:0:33
	movw	r1, #544
.Ltmp75:
	@DEBUG_VALUE: TDES_SetInitVect:reg_addr <- [DW_OP_plus_uconst 544, DW_OP_stack_value] $r0
	.loc	3 325 5 is_stmt 1               @ ../../../Library/StdDriver/src/crypto.c:325:5
	str	r2, [r0, r1]
	movw	r1, #548
.Ltmp76:
	@DEBUG_VALUE: TDES_SetInitVect:reg_addr <- [DW_OP_plus_uconst 548, DW_OP_stack_value] $r0
	.loc	3 328 5                         @ ../../../Library/StdDriver/src/crypto.c:328:5
	str	r3, [r0, r1]
	.loc	3 329 1                         @ ../../../Library/StdDriver/src/crypto.c:329:1
	bx	lr
.Ltmp77:
.Lfunc_end11:
	.size	TDES_SetInitVect, .Lfunc_end11-TDES_SetInitVect
	.cfi_endproc
	.cantunwind
	.fnend
                                        @ -- End function
	.section	.text.TDES_SetDMATransfer,"ax",%progbits
	.hidden	TDES_SetDMATransfer             @ -- Begin function TDES_SetDMATransfer
	.globl	TDES_SetDMATransfer
	.p2align	1
	.type	TDES_SetDMATransfer,%function
	.code	16                              @ @TDES_SetDMATransfer
	.thumb_func
TDES_SetDMATransfer:
.Lfunc_begin12:
	.loc	3 342 0                         @ ../../../Library/StdDriver/src/crypto.c:342:0
	.fnstart
	.cfi_startproc
@ %bb.0:
	@DEBUG_VALUE: TDES_SetDMATransfer:crpt <- $r0
	@DEBUG_VALUE: TDES_SetDMATransfer:crpt <- $r0
	@DEBUG_VALUE: TDES_SetDMATransfer:u32Channel <- $r1
	@DEBUG_VALUE: TDES_SetDMATransfer:u32Channel <- $r1
	@DEBUG_VALUE: TDES_SetDMATransfer:u32SrcAddr <- $r2
	@DEBUG_VALUE: TDES_SetDMATransfer:u32SrcAddr <- $r2
	@DEBUG_VALUE: TDES_SetDMATransfer:u32DstAddr <- $r3
	@DEBUG_VALUE: TDES_SetDMATransfer:u32DstAddr <- $r3
	@DEBUG_VALUE: TDES_SetDMATransfer:u32TransCnt <- [$sp+0]
	.loc	3 345 59 prologue_end           @ ../../../Library/StdDriver/src/crypto.c:345:59
	lsls	r1, r1, #6
.Ltmp78:
	@DEBUG_VALUE: TDES_SetDMATransfer:u32Channel <- [DW_OP_LLVM_entry_value 1] $r1
	.loc	3 345 33 is_stmt 0              @ ../../../Library/StdDriver/src/crypto.c:345:33
	adds	r0, r0, r1
.Ltmp79:
	@DEBUG_VALUE: TDES_SetDMATransfer:crpt <- [DW_OP_LLVM_entry_value 1] $r0
	.loc	3 0 33                          @ ../../../Library/StdDriver/src/crypto.c:0:33
	movw	r1, #552
.Ltmp80:
	@DEBUG_VALUE: TDES_SetDMATransfer:reg_addr <- [DW_OP_plus_uconst 552, DW_OP_stack_value] $r0
	.loc	3 346 5 is_stmt 1               @ ../../../Library/StdDriver/src/crypto.c:346:5
	str	r2, [r0, r1]
	movw	r1, #556
.Ltmp81:
	@DEBUG_VALUE: TDES_SetDMATransfer:reg_addr <- [DW_OP_plus_uconst 556, DW_OP_stack_value] $r0
	.loc	3 349 5                         @ ../../../Library/StdDriver/src/crypto.c:349:5
	str	r3, [r0, r1]
	movw	r1, #560
	ldr	r2, [sp]
.Ltmp82:
	@DEBUG_VALUE: TDES_SetDMATransfer:u32SrcAddr <- [DW_OP_LLVM_entry_value 1] $r2
	@DEBUG_VALUE: TDES_SetDMATransfer:reg_addr <- [DW_OP_plus_uconst 560, DW_OP_stack_value] $r0
	.loc	3 352 5                         @ ../../../Library/StdDriver/src/crypto.c:352:5
	str	r2, [r0, r1]
	.loc	3 353 1                         @ ../../../Library/StdDriver/src/crypto.c:353:1
	bx	lr
.Ltmp83:
.Lfunc_end12:
	.size	TDES_SetDMATransfer, .Lfunc_end12-TDES_SetDMATransfer
	.cfi_endproc
	.cantunwind
	.fnend
                                        @ -- End function
	.section	.text.SHA_Open,"ax",%progbits
	.hidden	SHA_Open                        @ -- Begin function SHA_Open
	.globl	SHA_Open
	.p2align	1
	.type	SHA_Open,%function
	.code	16                              @ @SHA_Open
	.thumb_func
SHA_Open:
.Lfunc_begin13:
	.loc	3 371 0                         @ ../../../Library/StdDriver/src/crypto.c:371:0
	.fnstart
	.cfi_startproc
@ %bb.0:
	@DEBUG_VALUE: SHA_Open:crpt <- $r0
	@DEBUG_VALUE: SHA_Open:crpt <- $r0
	@DEBUG_VALUE: SHA_Open:u32OpMode <- $r1
	@DEBUG_VALUE: SHA_Open:u32OpMode <- $r1
	@DEBUG_VALUE: SHA_Open:u32SwapType <- $r2
	@DEBUG_VALUE: SHA_Open:u32SwapType <- $r2
	@DEBUG_VALUE: SHA_Open:hmac_key_len <- $r3
	@DEBUG_VALUE: SHA_Open:hmac_key_len <- $r3
	.loc	3 372 33 prologue_end           @ ../../../Library/StdDriver/src/crypto.c:372:33
	lsls	r1, r1, #8
.Ltmp84:
	@DEBUG_VALUE: SHA_Open:u32OpMode <- [DW_OP_LLVM_entry_value 1] $r1
	.loc	3 373 35                        @ ../../../Library/StdDriver/src/crypto.c:373:35
	lsls	r2, r2, #22
.Ltmp85:
	@DEBUG_VALUE: SHA_Open:u32SwapType <- [DW_OP_LLVM_entry_value 1] $r2
	.loc	3 372 62                        @ ../../../Library/StdDriver/src/crypto.c:372:62
	orrs	r2, r1
	movw	r1, #768
	.loc	3 372 20 is_stmt 0              @ ../../../Library/StdDriver/src/crypto.c:372:20
	str	r2, [r0, r1]
	.loc	3 375 8 is_stmt 1               @ ../../../Library/StdDriver/src/crypto.c:375:8
	cbz	r3, .LBB13_2
.Ltmp86:
@ %bb.1:
	@DEBUG_VALUE: SHA_Open:hmac_key_len <- $r3
	@DEBUG_VALUE: SHA_Open:crpt <- $r0
	@DEBUG_VALUE: SHA_Open:u32SwapType <- [DW_OP_LLVM_entry_value 1] $r2
	@DEBUG_VALUE: SHA_Open:u32OpMode <- [DW_OP_LLVM_entry_value 1] $r1
	.loc	3 0 0 is_stmt 0                 @ ../../../Library/StdDriver/src/crypto.c:0:0
	adds	r0, r0, r1
.Ltmp87:
	@DEBUG_VALUE: SHA_Open:crpt <- [DW_OP_LLVM_entry_value 1] $r0
	.loc	3 377 27 is_stmt 1              @ ../../../Library/StdDriver/src/crypto.c:377:27
	str	r3, [r0, #72]
.Ltmp88:
.LBB13_2:
	@DEBUG_VALUE: SHA_Open:hmac_key_len <- $r3
	@DEBUG_VALUE: SHA_Open:u32SwapType <- [DW_OP_LLVM_entry_value 1] $r2
	@DEBUG_VALUE: SHA_Open:u32OpMode <- [DW_OP_LLVM_entry_value 1] $r1
	.loc	3 379 1                         @ ../../../Library/StdDriver/src/crypto.c:379:1
	bx	lr
.Ltmp89:
.Lfunc_end13:
	.size	SHA_Open, .Lfunc_end13-SHA_Open
	.cfi_endproc
	.cantunwind
	.fnend
                                        @ -- End function
	.section	.text.SHA_Start,"ax",%progbits
	.hidden	SHA_Start                       @ -- Begin function SHA_Start
	.globl	SHA_Start
	.p2align	1
	.type	SHA_Start,%function
	.code	16                              @ @SHA_Start
	.thumb_func
SHA_Start:
.Lfunc_begin14:
	.loc	3 391 0                         @ ../../../Library/StdDriver/src/crypto.c:391:0
	.fnstart
	.cfi_startproc
@ %bb.0:
	@DEBUG_VALUE: SHA_Start:crpt <- $r0
	@DEBUG_VALUE: SHA_Start:u32DMAMode <- $r1
	.save	{r4, lr}
	push	{r4, lr}
	.cfi_def_cfa_offset 8
	.cfi_offset lr, -4
	.cfi_offset r4, -8
	movw	r2, #768
	@DEBUG_VALUE: SHA_Start:u32DMAMode <- $r1
	@DEBUG_VALUE: SHA_Start:crpt <- $r0
.Ltmp90:
	.loc	3 392 20 prologue_end           @ ../../../Library/StdDriver/src/crypto.c:392:20
	ldr	r3, [r0, r2]
	movs	r4, #224
	bics	r3, r4
	str	r3, [r0, r2]
	.loc	3 393 20                        @ ../../../Library/StdDriver/src/crypto.c:393:20
	ldr	r3, [r0, r2]
	.loc	3 393 61 is_stmt 0              @ ../../../Library/StdDriver/src/crypto.c:393:61
	lsls	r1, r1, #5
.Ltmp91:
	@DEBUG_VALUE: SHA_Start:u32DMAMode <- [DW_OP_LLVM_entry_value 1] $r1
	.loc	3 393 20                        @ ../../../Library/StdDriver/src/crypto.c:393:20
	orrs	r1, r3
	movs	r3, #1
	orrs	r3, r1
	str	r3, [r0, r2]
	.loc	3 394 1 is_stmt 1               @ ../../../Library/StdDriver/src/crypto.c:394:1
	pop	{r4, pc}
.Ltmp92:
.Lfunc_end14:
	.size	SHA_Start, .Lfunc_end14-SHA_Start
	.cfi_endproc
	.cantunwind
	.fnend
                                        @ -- End function
	.section	.text.SHA_SetDMATransfer,"ax",%progbits
	.hidden	SHA_SetDMATransfer              @ -- Begin function SHA_SetDMATransfer
	.globl	SHA_SetDMATransfer
	.p2align	1
	.type	SHA_SetDMATransfer,%function
	.code	16                              @ @SHA_SetDMATransfer
	.thumb_func
SHA_SetDMATransfer:
.Lfunc_begin15:
	.loc	3 404 0                         @ ../../../Library/StdDriver/src/crypto.c:404:0
	.fnstart
	.cfi_startproc
@ %bb.0:
	@DEBUG_VALUE: SHA_SetDMATransfer:crpt <- $r0
	@DEBUG_VALUE: SHA_SetDMATransfer:u32SrcAddr <- $r1
	@DEBUG_VALUE: SHA_SetDMATransfer:u32TransCnt <- $r2
	movw	r3, #844
	@DEBUG_VALUE: SHA_SetDMATransfer:u32TransCnt <- $r2
	@DEBUG_VALUE: SHA_SetDMATransfer:u32SrcAddr <- $r1
	@DEBUG_VALUE: SHA_SetDMATransfer:crpt <- $r0
.Ltmp93:
	.loc	3 405 22 prologue_end           @ ../../../Library/StdDriver/src/crypto.c:405:22
	str	r1, [r0, r3]
	.loc	3 0 0 is_stmt 0                 @ ../../../Library/StdDriver/src/crypto.c:0:0
	adds	r0, r0, r3
.Ltmp94:
	@DEBUG_VALUE: SHA_SetDMATransfer:crpt <- [DW_OP_LLVM_entry_value 1] $r0
	.loc	3 406 23 is_stmt 1              @ ../../../Library/StdDriver/src/crypto.c:406:23
	str	r2, [r0, #4]
	.loc	3 407 1                         @ ../../../Library/StdDriver/src/crypto.c:407:1
	bx	lr
.Ltmp95:
.Lfunc_end15:
	.size	SHA_SetDMATransfer, .Lfunc_end15-SHA_SetDMATransfer
	.cfi_endproc
	.cantunwind
	.fnend
                                        @ -- End function
	.section	.text.SHA_Read,"ax",%progbits
	.hidden	SHA_Read                        @ -- Begin function SHA_Read
	.globl	SHA_Read
	.p2align	2
	.type	SHA_Read,%function
	.code	16                              @ @SHA_Read
	.thumb_func
SHA_Read:
.Lfunc_begin16:
	.loc	3 416 0                         @ ../../../Library/StdDriver/src/crypto.c:416:0
	.fnstart
	.cfi_startproc
@ %bb.0:
	@DEBUG_VALUE: SHA_Read:crpt <- $r0
	@DEBUG_VALUE: SHA_Read:u32Digest <- $r1
	movw	r2, #776
	@DEBUG_VALUE: SHA_Read:u32Digest <- $r1
	@DEBUG_VALUE: SHA_Read:crpt <- $r0
.Ltmp96:
	.loc	3 443 30 prologue_end           @ ../../../Library/StdDriver/src/crypto.c:443:30
	adds	r2, r0, r2
	movw	r3, #768
	.loc	3 419 16                        @ ../../../Library/StdDriver/src/crypto.c:419:16
	ldr	r0, [r0, r3]
.Ltmp97:
	@DEBUG_VALUE: SHA_Read:crpt <- [DW_OP_LLVM_entry_value 1] $r0
	@DEBUG_VALUE: SHA_Read:i <- undef
	.loc	3 421 8                         @ ../../../Library/StdDriver/src/crypto.c:421:8
	lsrs	r0, r0, #6
	movs	r3, #28
	ands	r3, r0
	adr	r0, .LCPI16_0
	ldr	r0, [r0, r3]
.Ltmp98:
	@DEBUG_VALUE: SHA_Read:reg_addr <- $r2
	@DEBUG_VALUE: SHA_Read:wcnt <- $r0
	@DEBUG_VALUE: SHA_Read:i <- 0
.LBB16_1:                               @ =>This Inner Loop Header: Depth=1
	@DEBUG_VALUE: SHA_Read:reg_addr <- $r2
	@DEBUG_VALUE: SHA_Read:crpt <- [DW_OP_LLVM_entry_value 1] $r0
	@DEBUG_VALUE: SHA_Read:i <- undef
	@DEBUG_VALUE: SHA_Read:reg_addr <- $r2
	.loc	3 446 24                        @ ../../../Library/StdDriver/src/crypto.c:446:24
	ldm	r2!, {r3}
.Ltmp99:
	.loc	3 446 22 is_stmt 0              @ ../../../Library/StdDriver/src/crypto.c:446:22
	stm	r1!, {r3}
.Ltmp100:
	@DEBUG_VALUE: SHA_Read:u32Digest <- [DW_OP_LLVM_entry_value 1] $r1
	@DEBUG_VALUE: SHA_Read:reg_addr <- $r2
	@DEBUG_VALUE: SHA_Read:i <- [DW_OP_plus_uconst 1, DW_OP_stack_value] undef
	.loc	3 444 20 is_stmt 1              @ ../../../Library/StdDriver/src/crypto.c:444:20
	subs	r0, r0, #1
.Ltmp101:
	.loc	3 444 5 is_stmt 0               @ ../../../Library/StdDriver/src/crypto.c:444:5
	bne	.LBB16_1
.Ltmp102:
@ %bb.2:
	@DEBUG_VALUE: SHA_Read:reg_addr <- $r2
	@DEBUG_VALUE: SHA_Read:crpt <- [DW_OP_LLVM_entry_value 1] $r0
	.loc	3 449 1 is_stmt 1               @ ../../../Library/StdDriver/src/crypto.c:449:1
	bx	lr
.Ltmp103:
	.p2align	2
@ %bb.3:
	.loc	3 0 1 is_stmt 0                 @ ../../../Library/StdDriver/src/crypto.c:0:1
.LCPI16_0:
.Lswitch.table.SHA_Read:
	.long	5                               @ 0x5
	.long	16                              @ 0x10
	.long	16                              @ 0x10
	.long	16                              @ 0x10
	.long	8                               @ 0x8
	.long	7                               @ 0x7
	.long	16                              @ 0x10
	.long	12                              @ 0xc
.Lfunc_end16:
	.size	SHA_Read, .Lfunc_end16-SHA_Read
	.cfi_endproc
	.cantunwind
	.fnend
                                        @ -- End function
	.section	.text.ECC_DriverISR,"ax",%progbits
	.hidden	ECC_DriverISR                   @ -- Begin function ECC_DriverISR
	.globl	ECC_DriverISR
	.p2align	2
	.type	ECC_DriverISR,%function
	.code	16                              @ @ECC_DriverISR
	.thumb_func
ECC_DriverISR:
.Lfunc_begin17:
	.loc	3 766 0 is_stmt 1               @ ../../../Library/StdDriver/src/crypto.c:766:0
	.fnstart
	.cfi_startproc
@ %bb.0:
	@DEBUG_VALUE: ECC_DriverISR:crpt <- $r0
	movs	r1, #1
	@DEBUG_VALUE: ECC_DriverISR:crpt <- $r0
.Ltmp104:
	.loc	3 767 14 prologue_end           @ ../../../Library/StdDriver/src/crypto.c:767:14
	ldr	r2, [r0, #4]
.Ltmp105:
	.loc	3 767 8 is_stmt 0               @ ../../../Library/StdDriver/src/crypto.c:767:8
	lsls	r2, r2, #9
	bpl	.LBB17_2
.Ltmp106:
@ %bb.1:
	@DEBUG_VALUE: ECC_DriverISR:crpt <- $r0
	.loc	3 0 8                           @ ../../../Library/StdDriver/src/crypto.c:0:8
	lsls	r2, r1, #22
.Ltmp107:
	.loc	3 769 20 is_stmt 1              @ ../../../Library/StdDriver/src/crypto.c:769:20
	ldr	r3, __arm_cp.17_0
	str	r1, [r3]
	.loc	3 770 22                        @ ../../../Library/StdDriver/src/crypto.c:770:22
	str	r2, [r0, #4]
.Ltmp108:
.LBB17_2:
	@DEBUG_VALUE: ECC_DriverISR:crpt <- $r0
	.loc	3 774 14                        @ ../../../Library/StdDriver/src/crypto.c:774:14
	ldr	r2, [r0, #4]
.Ltmp109:
	.loc	3 774 8 is_stmt 0               @ ../../../Library/StdDriver/src/crypto.c:774:8
	lsls	r2, r2, #8
	bpl	.LBB17_4
.Ltmp110:
@ %bb.3:
	@DEBUG_VALUE: ECC_DriverISR:crpt <- $r0
	.loc	3 0 8                           @ ../../../Library/StdDriver/src/crypto.c:0:8
	lsls	r2, r1, #23
.Ltmp111:
	.loc	3 776 23 is_stmt 1              @ ../../../Library/StdDriver/src/crypto.c:776:23
	ldr	r3, __arm_cp.17_1
	str	r1, [r3]
	.loc	3 777 22                        @ ../../../Library/StdDriver/src/crypto.c:777:22
	str	r2, [r0, #4]
.Ltmp112:
.LBB17_4:
	@DEBUG_VALUE: ECC_DriverISR:crpt <- $r0
	.loc	3 780 1                         @ ../../../Library/StdDriver/src/crypto.c:780:1
	bx	lr
.Ltmp113:
	.p2align	2
@ %bb.5:
	.loc	3 0 1 is_stmt 0                 @ ../../../Library/StdDriver/src/crypto.c:0:1
__arm_cp.17_0:
	.long	g_ECC_done
.Lcpi_end4:
	.size	__arm_cp.17_0, .Lcpi_end4-__arm_cp.17_0
__arm_cp.17_1:
	.long	g_ECCERR_done
.Lcpi_end5:
	.size	__arm_cp.17_1, .Lcpi_end5-__arm_cp.17_1
.Lfunc_end17:
	.size	ECC_DriverISR, .Lfunc_end17-ECC_DriverISR
	.cfi_endproc
	.cantunwind
	.fnend
                                        @ -- End function
	.section	.text.ECC_IsPrivateKeyValid,"ax",%progbits
	.hidden	ECC_IsPrivateKeyValid           @ -- Begin function ECC_IsPrivateKeyValid
	.globl	ECC_IsPrivateKeyValid
	.p2align	2
	.type	ECC_IsPrivateKeyValid,%function
	.code	16                              @ @ECC_IsPrivateKeyValid
	.thumb_func
ECC_IsPrivateKeyValid:
.Lfunc_begin18:
	.loc	3 983 0 is_stmt 1               @ ../../../Library/StdDriver/src/crypto.c:983:0
	.fnstart
	.cfi_startproc
@ %bb.0:
	@DEBUG_VALUE: ECC_IsPrivateKeyValid:crpt <- $r0
	@DEBUG_VALUE: ECC_IsPrivateKeyValid:ecc_curve <- $r1
	@DEBUG_VALUE: ECC_IsPrivateKeyValid:private_k <- $r2
	.save	{r4, r5, r6, r7, lr}
	push	{r4, r5, r6, r7, lr}
	.cfi_def_cfa_offset 20
	.cfi_offset lr, -4
	.cfi_offset r7, -8
	.cfi_offset r6, -12
	.cfi_offset r5, -16
	.cfi_offset r4, -20
	.pad	#12
	sub	sp, #12
	.cfi_def_cfa_offset 32
	mov	r5, r2
	mov	r0, r1
.Ltmp114:
	@DEBUG_VALUE: ECC_IsPrivateKeyValid:crpt <- [DW_OP_LLVM_entry_value 1] $r0
	@DEBUG_VALUE: ECC_IsPrivateKeyValid:private_k <- $r5
	@DEBUG_VALUE: ECC_IsPrivateKeyValid:ecc_curve <- $r0
	@DEBUG_VALUE: ECC_IsPrivateKeyValid:ecc_curve <- $r0
	.loc	3 987 14 prologue_end           @ ../../../Library/StdDriver/src/crypto.c:987:14
	bl	get_curve
.Ltmp115:
	mov	r7, r0
	.loc	3 987 12 is_stmt 0              @ ../../../Library/StdDriver/src/crypto.c:987:12
	ldr	r0, __arm_cp.18_0
	str	r7, [r0]
	movs	r4, #0
	.loc	3 988 8 is_stmt 1               @ ../../../Library/StdDriver/src/crypto.c:988:8
	cbz	r7, .LBB18_3
.Ltmp116:
@ %bb.1:
	@DEBUG_VALUE: ECC_IsPrivateKeyValid:private_k <- $r5
	@DEBUG_VALUE: ECC_IsPrivateKeyValid:crpt <- [DW_OP_LLVM_entry_value 1] $r0
	.loc	3 993 8                         @ ../../../Library/StdDriver/src/crypto.c:993:8
	mov	r0, r5
	bl	strlen
	mov	r6, r0
	movw	r0, #768
	.loc	3 993 35 is_stmt 0              @ ../../../Library/StdDriver/src/crypto.c:993:35
	adds	r0, r7, r0
	.loc	3 993 28                        @ ../../../Library/StdDriver/src/crypto.c:993:28
	bl	strlen
	movs	r1, #1
.Ltmp117:
	.loc	3 993 8                         @ ../../../Library/StdDriver/src/crypto.c:993:8
	cmp	r6, r0
	bhs	.LBB18_5
.Ltmp118:
@ %bb.2:
	@DEBUG_VALUE: ECC_IsPrivateKeyValid:private_k <- $r5
	@DEBUG_VALUE: ECC_IsPrivateKeyValid:crpt <- [DW_OP_LLVM_entry_value 1] $r0
	.loc	3 0 0                           @ ../../../Library/StdDriver/src/crypto.c:0:0
	mov	r4, r1
	b	.LBB18_4
.Ltmp119:
.LBB18_3:
	@DEBUG_VALUE: ECC_IsPrivateKeyValid:private_k <- $r5
	@DEBUG_VALUE: ECC_IsPrivateKeyValid:crpt <- [DW_OP_LLVM_entry_value 1] $r0
	mvns	r4, r4
.Ltmp120:
.LBB18_4:
	@DEBUG_VALUE: ECC_IsPrivateKeyValid:crpt <- [DW_OP_LLVM_entry_value 1] $r0
	.loc	3 1016 1 is_stmt 1              @ ../../../Library/StdDriver/src/crypto.c:1016:1
	mov	r0, r4
	add	sp, #12
	pop	{r4, r5, r6, r7, pc}
.Ltmp121:
.LBB18_5:
	@DEBUG_VALUE: ECC_IsPrivateKeyValid:private_k <- $r5
	@DEBUG_VALUE: ECC_IsPrivateKeyValid:crpt <- [DW_OP_LLVM_entry_value 1] $r0
	@DEBUG_VALUE: ECC_IsPrivateKeyValid:i <- 0
	.loc	3 998 8                         @ ../../../Library/StdDriver/src/crypto.c:998:8
	bhi	.LBB18_4
.Ltmp122:
@ %bb.6:
	@DEBUG_VALUE: ECC_IsPrivateKeyValid:private_k <- $r5
	@DEBUG_VALUE: ECC_IsPrivateKeyValid:i <- 0
	@DEBUG_VALUE: ECC_IsPrivateKeyValid:crpt <- [DW_OP_LLVM_entry_value 1] $r0
	cmp	r6, #0
	beq	.LBB18_4
.Ltmp123:
@ %bb.7:
	@DEBUG_VALUE: ECC_IsPrivateKeyValid:private_k <- $r5
	@DEBUG_VALUE: ECC_IsPrivateKeyValid:i <- 0
	@DEBUG_VALUE: ECC_IsPrivateKeyValid:crpt <- [DW_OP_LLVM_entry_value 1] $r0
	.loc	3 0 8 is_stmt 0                 @ ../../../Library/StdDriver/src/crypto.c:0:8
	str	r1, [sp, #4]                    @ 4-byte Spill
	str	r5, [sp, #8]                    @ 4-byte Spill
.Ltmp124:
	@DEBUG_VALUE: ECC_IsPrivateKeyValid:private_k <- [DW_OP_plus_uconst 8] [$sp+0]
	movw	r0, #768
.Ltmp125:
	.loc	3 1003 5 is_stmt 1              @ ../../../Library/StdDriver/src/crypto.c:1003:5
	adds	r4, r7, r0
	movs	r5, #0
	str	r5, [sp]                        @ 4-byte Spill
.Ltmp126:
.LBB18_8:                               @ =>This Inner Loop Header: Depth=1
	@DEBUG_VALUE: ECC_IsPrivateKeyValid:crpt <- [DW_OP_LLVM_entry_value 1] $r0
	@DEBUG_VALUE: ECC_IsPrivateKeyValid:i <- $r5
	.loc	3 1005 29                       @ ../../../Library/StdDriver/src/crypto.c:1005:29
	ldr	r0, [sp, #8]                    @ 4-byte Reload
.Ltmp127:
	@DEBUG_VALUE: ECC_IsPrivateKeyValid:private_k <- $r0
	ldrb	r0, [r0, r5]
.Ltmp128:
	.loc	3 1005 12 is_stmt 0             @ ../../../Library/StdDriver/src/crypto.c:1005:12
	bl	get_nibble_value
	mov	r7, r0
	.loc	3 1005 62                       @ ../../../Library/StdDriver/src/crypto.c:1005:62
	ldrb	r0, [r4, r5]
	.loc	3 1005 45                       @ ../../../Library/StdDriver/src/crypto.c:1005:45
	bl	get_nibble_value
.Ltmp129:
	.loc	3 1005 12                       @ ../../../Library/StdDriver/src/crypto.c:1005:12
	cmp	r7, r0
	blt	.LBB18_12
.Ltmp130:
@ %bb.9:                                @   in Loop: Header=BB18_8 Depth=1
	@DEBUG_VALUE: ECC_IsPrivateKeyValid:i <- $r5
	@DEBUG_VALUE: ECC_IsPrivateKeyValid:crpt <- [DW_OP_LLVM_entry_value 1] $r0
	@DEBUG_VALUE: ECC_IsPrivateKeyValid:i <- undef
	.loc	3 1010 12 is_stmt 1             @ ../../../Library/StdDriver/src/crypto.c:1010:12
	cmp	r7, r0
	bgt	.LBB18_13
.Ltmp131:
@ %bb.10:                               @   in Loop: Header=BB18_8 Depth=1
	@DEBUG_VALUE: ECC_IsPrivateKeyValid:crpt <- [DW_OP_LLVM_entry_value 1] $r0
	.loc	3 0 0 is_stmt 0                 @ ../../../Library/StdDriver/src/crypto.c:0:0
	adds	r5, r5, #1
.Ltmp132:
	@DEBUG_VALUE: ECC_IsPrivateKeyValid:i <- $r5
	.loc	3 1010 12                       @ ../../../Library/StdDriver/src/crypto.c:1010:12
	cmp	r5, r6
	blo	.LBB18_8
.Ltmp133:
@ %bb.11:
	@DEBUG_VALUE: ECC_IsPrivateKeyValid:i <- $r5
	@DEBUG_VALUE: ECC_IsPrivateKeyValid:crpt <- [DW_OP_LLVM_entry_value 1] $r0
	.loc	3 0 12                          @ ../../../Library/StdDriver/src/crypto.c:0:12
	ldr	r4, [sp]                        @ 4-byte Reload
	b	.LBB18_4
.Ltmp134:
.LBB18_12:
	@DEBUG_VALUE: ECC_IsPrivateKeyValid:i <- $r5
	@DEBUG_VALUE: ECC_IsPrivateKeyValid:crpt <- [DW_OP_LLVM_entry_value 1] $r0
	ldr	r4, [sp, #4]                    @ 4-byte Reload
	b	.LBB18_4
.Ltmp135:
.LBB18_13:
	@DEBUG_VALUE: ECC_IsPrivateKeyValid:crpt <- [DW_OP_LLVM_entry_value 1] $r0
	ldr	r4, [sp]                        @ 4-byte Reload
	b	.LBB18_4
.Ltmp136:
	.p2align	2
@ %bb.14:
__arm_cp.18_0:
	.long	pCurve
.Lcpi_end6:
	.size	__arm_cp.18_0, .Lcpi_end6-__arm_cp.18_0
.Lfunc_end18:
	.size	ECC_IsPrivateKeyValid, .Lfunc_end18-ECC_IsPrivateKeyValid
	.cfi_endproc
	.cantunwind
	.fnend
                                        @ -- End function
	.section	.text.get_curve,"ax",%progbits
	.p2align	2                               @ -- Begin function get_curve
	.type	get_curve,%function
	.code	16                              @ @get_curve
	.thumb_func
get_curve:
.Lfunc_begin19:
	.loc	3 3465 0 is_stmt 1              @ ../../../Library/StdDriver/src/crypto.c:3465:0
	.fnstart
	.cfi_startproc
@ %bb.0:
	@DEBUG_VALUE: get_curve:ecc_curve <- $r0
	.save	{r4, r5, r6, r7, lr}
	push	{r4, r5, r6, r7, lr}
	.cfi_def_cfa_offset 20
	.cfi_offset lr, -4
	.cfi_offset r7, -8
	.cfi_offset r6, -12
	.cfi_offset r5, -16
	.cfi_offset r4, -20
	.pad	#4
	sub	sp, #4
	.cfi_def_cfa_offset 24
	mov	r4, r0
	movs	r7, #15
	ldr	r5, __arm_cp.19_0
	movs	r1, #0
	movw	r3, #964
.Ltmp137:
	.loc	3 3469 5 prologue_end           @ ../../../Library/StdDriver/src/crypto.c:3469:5
	str	r1, [sp]                        @ 4-byte Spill
.Ltmp138:
	@DEBUG_VALUE: get_curve:i <- 0
	@DEBUG_VALUE: get_curve:ret <- 0
	@DEBUG_VALUE: get_curve:ecc_curve <- $r4
.LBB19_1:                               @ =>This Inner Loop Header: Depth=1
	@DEBUG_VALUE: get_curve:ecc_curve <- $r4
	@DEBUG_VALUE: get_curve:ret <- 0
	@DEBUG_VALUE: get_curve:i <- undef
	.loc	3 3471 35                       @ ../../../Library/StdDriver/src/crypto.c:3471:35
	ldrb	r6, [r5]
.Ltmp139:
	.loc	3 3471 12 is_stmt 0             @ ../../../Library/StdDriver/src/crypto.c:3471:12
	cmp	r6, r4
.Ltmp140:
	.loc	3 0 0                           @ ../../../Library/StdDriver/src/crypto.c:0:0
	mov	r0, r1
	bne	.LBB19_3
.Ltmp141:
@ %bb.2:                                @   in Loop: Header=BB19_1 Depth=1
	@DEBUG_VALUE: get_curve:ecc_curve <- $r4
	@DEBUG_VALUE: get_curve:ret <- 0
	@DEBUG_VALUE: get_curve:ret <- undef
	ldr	r0, __arm_cp.19_1
	@DEBUG_VALUE: get_curve:ret <- undef
.Ltmp142:
	@DEBUG_VALUE: get_curve:ret <- $r0
	.loc	3 3473 13 is_stmt 1             @ ../../../Library/StdDriver/src/crypto.c:3473:13
	mov	r1, r5
	movw	r2, #964
	bl	__aeabi_memcpy4
.Ltmp143:
	.loc	3 0 13 is_stmt 0                @ ../../../Library/StdDriver/src/crypto.c:0:13
	movw	r3, #964
	ldr	r1, [sp]                        @ 4-byte Reload
.Ltmp144:
	ldr	r0, __arm_cp.19_1
.Ltmp145:
.LBB19_3:                               @   in Loop: Header=BB19_1 Depth=1
	@DEBUG_VALUE: get_curve:ecc_curve <- $r4
	@DEBUG_VALUE: get_curve:ret <- $r0
	@DEBUG_VALUE: get_curve:i <- [DW_OP_plus_uconst 1, DW_OP_stack_value] undef
	.loc	3 3476 12 is_stmt 1             @ ../../../Library/StdDriver/src/crypto.c:3476:12
	cmp	r6, r4
	beq	.LBB19_6
.Ltmp146:
@ %bb.4:                                @   in Loop: Header=BB19_1 Depth=1
	@DEBUG_VALUE: get_curve:ecc_curve <- $r4
	@DEBUG_VALUE: get_curve:ret <- $r0
	@DEBUG_VALUE: get_curve:ret <- 0
	@DEBUG_VALUE: get_curve:i <- [DW_OP_plus_uconst 1, DW_OP_stack_value] undef
	.loc	3 3469 20                       @ ../../../Library/StdDriver/src/crypto.c:3469:20
	adds	r5, r5, r3
	subs	r7, r7, #1
.Ltmp147:
	.loc	3 3469 5 is_stmt 0              @ ../../../Library/StdDriver/src/crypto.c:3469:5
	bne	.LBB19_1
.Ltmp148:
@ %bb.5:
	@DEBUG_VALUE: get_curve:ecc_curve <- $r4
	@DEBUG_VALUE: get_curve:ret <- 0
	.loc	3 0 0                           @ ../../../Library/StdDriver/src/crypto.c:0:0
	mov	r0, r1
.Ltmp149:
.LBB19_6:
	@DEBUG_VALUE: get_curve:ecc_curve <- $r4
	@DEBUG_VALUE: get_curve:ret <- $r0
	.loc	3 3481 5 is_stmt 1              @ ../../../Library/StdDriver/src/crypto.c:3481:5
	add	sp, #4
	pop	{r4, r5, r6, r7, pc}
.Ltmp150:
	.p2align	2
@ %bb.7:
	.loc	3 0 5 is_stmt 0                 @ ../../../Library/StdDriver/src/crypto.c:0:5
__arm_cp.19_0:
	.long	_Curve
.Lcpi_end7:
	.size	__arm_cp.19_0, .Lcpi_end7-__arm_cp.19_0
__arm_cp.19_1:
	.long	Curve_Copy
.Lcpi_end8:
	.size	__arm_cp.19_1, .Lcpi_end8-__arm_cp.19_1
.Lfunc_end19:
	.size	get_curve, .Lfunc_end19-get_curve
	.cfi_endproc
	.cantunwind
	.fnend
                                        @ -- End function
	.section	.text.get_nibble_value,"ax",%progbits
	.p2align	1                               @ -- Begin function get_nibble_value
	.type	get_nibble_value,%function
	.code	16                              @ @get_nibble_value
	.thumb_func
get_nibble_value:
.Lfunc_begin20:
	.loc	3 949 0 is_stmt 1               @ ../../../Library/StdDriver/src/crypto.c:949:0
	.fnstart
	.cfi_startproc
@ %bb.0:
	@DEBUG_VALUE: get_nibble_value:c <- $r0
	movs	r1, #86
	mvns	r1, r1
	@DEBUG_VALUE: get_nibble_value:c <- $r0
.Ltmp151:
	.loc	3 952 19 prologue_end           @ ../../../Library/StdDriver/src/crypto.c:952:19
	mov	r2, r0
	subs	r2, #48
	cmp	r2, #10
	bhs	.LBB20_2
.Ltmp152:
@ %bb.1:
	@DEBUG_VALUE: get_nibble_value:c <- $r0
	.loc	3 0 19 is_stmt 0                @ ../../../Library/StdDriver/src/crypto.c:0:19
	adds	r1, #39
	b	.LBB20_3
.Ltmp153:
.LBB20_2:
	@DEBUG_VALUE: get_nibble_value:c <- $r0
	.loc	3 958 19 is_stmt 1              @ ../../../Library/StdDriver/src/crypto.c:958:19
	mov	r2, r0
	subs	r2, #97
	cmp	r2, #6
	bhs	.LBB20_4
.Ltmp154:
.LBB20_3:
	@DEBUG_VALUE: get_nibble_value:c <- $r0
	.loc	3 0 0 is_stmt 0                 @ ../../../Library/StdDriver/src/crypto.c:0:0
	adds	r0, r1, r0
.Ltmp155:
	@DEBUG_VALUE: get_nibble_value:c <- [DW_OP_LLVM_entry_value 1] $r0
	.loc	3 970 1 is_stmt 1               @ ../../../Library/StdDriver/src/crypto.c:970:1
	bx	lr
.Ltmp156:
.LBB20_4:
	@DEBUG_VALUE: get_nibble_value:c <- $r0
	.loc	3 964 19                        @ ../../../Library/StdDriver/src/crypto.c:964:19
	mov	r1, r0
	subs	r1, #65
	cmp	r1, #6
	blo	.LBB20_6
.Ltmp157:
@ %bb.5:
	@DEBUG_VALUE: get_nibble_value:c <- $r0
	.loc	3 0 19 is_stmt 0                @ ../../../Library/StdDriver/src/crypto.c:0:19
	movs	r0, #0
.Ltmp158:
	@DEBUG_VALUE: get_nibble_value:c <- [DW_OP_LLVM_entry_value 1] $r0
	.loc	3 964 19                        @ ../../../Library/StdDriver/src/crypto.c:964:19
	bx	lr
.Ltmp159:
.LBB20_6:
	@DEBUG_VALUE: get_nibble_value:c <- $r0
	.loc	3 0 19                          @ ../../../Library/StdDriver/src/crypto.c:0:19
	subs	r0, #55
.Ltmp160:
	@DEBUG_VALUE: get_nibble_value:c <- [DW_OP_LLVM_entry_value 1] $r0
	.loc	3 964 19                        @ ../../../Library/StdDriver/src/crypto.c:964:19
	bx	lr
.Ltmp161:
.Lfunc_end20:
	.size	get_nibble_value, .Lfunc_end20-get_nibble_value
	.cfi_endproc
	.cantunwind
	.fnend
                                        @ -- End function
	.section	.text.ECC_GeneratePublicKey,"ax",%progbits
	.hidden	ECC_GeneratePublicKey           @ -- Begin function ECC_GeneratePublicKey
	.globl	ECC_GeneratePublicKey
	.p2align	2
	.type	ECC_GeneratePublicKey,%function
	.code	16                              @ @ECC_GeneratePublicKey
	.thumb_func
ECC_GeneratePublicKey:
.Lfunc_begin21:
	.loc	3 1030 0 is_stmt 1              @ ../../../Library/StdDriver/src/crypto.c:1030:0
	.fnstart
	.cfi_startproc
@ %bb.0:
	@DEBUG_VALUE: ECC_GeneratePublicKey:crpt <- $r0
	@DEBUG_VALUE: ECC_GeneratePublicKey:ecc_curve <- $r1
	@DEBUG_VALUE: ECC_GeneratePublicKey:private_k <- $r2
	@DEBUG_VALUE: ECC_GeneratePublicKey:public_k1 <- $r3
	.save	{r4, r5, r6, r7, lr}
	push	{r4, r5, r6, r7, lr}
	.cfi_def_cfa_offset 20
	.cfi_offset lr, -4
	.cfi_offset r7, -8
	.cfi_offset r6, -12
	.cfi_offset r5, -16
	.cfi_offset r4, -20
	.pad	#12
	sub	sp, #12
	.cfi_def_cfa_offset 32
	mov	r6, r3
	mov	r7, r2
	mov	r5, r0
.Ltmp162:
	@DEBUG_VALUE: ECC_GeneratePublicKey:ret <- 0
	@DEBUG_VALUE: ECC_GeneratePublicKey:public_k2 <- [DW_OP_plus_uconst 32] [$sp+0]
	@DEBUG_VALUE: ECC_GeneratePublicKey:public_k1 <- $r6
	@DEBUG_VALUE: ECC_GeneratePublicKey:private_k <- $r7
	@DEBUG_VALUE: ECC_GeneratePublicKey:ecc_curve <- $r1
	@DEBUG_VALUE: ECC_GeneratePublicKey:crpt <- $r5
	@DEBUG_VALUE: ECC_GeneratePublicKey:ecc_curve <- $r1
	.loc	3 1034 8 prologue_end           @ ../../../Library/StdDriver/src/crypto.c:1034:8
	bl	ecc_init_curve
.Ltmp163:
	@DEBUG_VALUE: ECC_GeneratePublicKey:ecc_curve <- [DW_OP_LLVM_entry_value 1] $r1
	mov	r4, r0
.Ltmp164:
	@DEBUG_VALUE: ECC_GeneratePublicKey:ret <- undef
	.loc	3 1039 8                        @ ../../../Library/StdDriver/src/crypto.c:1039:8
	cbz	r0, .LBB21_4
.Ltmp165:
@ %bb.1:
	@DEBUG_VALUE: ECC_GeneratePublicKey:private_k <- $r7
	@DEBUG_VALUE: ECC_GeneratePublicKey:public_k1 <- $r6
	@DEBUG_VALUE: ECC_GeneratePublicKey:crpt <- $r5
	@DEBUG_VALUE: ECC_GeneratePublicKey:public_k2 <- [DW_OP_plus_uconst 32] [$sp+0]
	@DEBUG_VALUE: ECC_GeneratePublicKey:ecc_curve <- [DW_OP_LLVM_entry_value 1] $r1
	.loc	3 1034 8                        @ ../../../Library/StdDriver/src/crypto.c:1034:8
	cbz	r4, .LBB21_3
.Ltmp166:
.LBB21_2:
	@DEBUG_VALUE: ECC_GeneratePublicKey:crpt <- $r5
	@DEBUG_VALUE: ECC_GeneratePublicKey:public_k2 <- [DW_OP_plus_uconst 32] [$sp+0]
	@DEBUG_VALUE: ECC_GeneratePublicKey:ecc_curve <- [DW_OP_LLVM_entry_value 1] $r1
	.loc	3 0 8 is_stmt 0                 @ ../../../Library/StdDriver/src/crypto.c:0:8
	movs	r0, #0
	mvns	r4, r0
.Ltmp167:
.LBB21_3:
	@DEBUG_VALUE: ECC_GeneratePublicKey:crpt <- $r5
	@DEBUG_VALUE: ECC_GeneratePublicKey:public_k2 <- [DW_OP_plus_uconst 32] [$sp+0]
	@DEBUG_VALUE: ECC_GeneratePublicKey:ecc_curve <- [DW_OP_LLVM_entry_value 1] $r1
	@DEBUG_VALUE: ECC_GeneratePublicKey:ret <- $r4
	.loc	3 1073 5 is_stmt 1              @ ../../../Library/StdDriver/src/crypto.c:1073:5
	mov	r0, r4
	add	sp, #12
.Ltmp168:
	pop	{r4, r5, r6, r7, pc}
.Ltmp169:
.LBB21_4:
	@DEBUG_VALUE: ECC_GeneratePublicKey:private_k <- $r7
	@DEBUG_VALUE: ECC_GeneratePublicKey:public_k1 <- $r6
	@DEBUG_VALUE: ECC_GeneratePublicKey:crpt <- $r5
	@DEBUG_VALUE: ECC_GeneratePublicKey:public_k2 <- [DW_OP_plus_uconst 32] [$sp+0]
	@DEBUG_VALUE: ECC_GeneratePublicKey:ecc_curve <- [DW_OP_LLVM_entry_value 1] $r1
	.loc	3 0 5 is_stmt 0                 @ ../../../Library/StdDriver/src/crypto.c:0:5
	str	r6, [sp, #8]                    @ 4-byte Spill
.Ltmp170:
	@DEBUG_VALUE: ECC_GeneratePublicKey:public_k1 <- [DW_OP_plus_uconst 8] [$sp+0]
	ldr	r0, [sp, #32]
	str	r0, [sp, #4]                    @ 4-byte Spill
	movw	r0, #2560
.Ltmp171:
	.loc	3 1041 9 is_stmt 1              @ ../../../Library/StdDriver/src/crypto.c:1041:9
	adds	r0, r5, r0
	movs	r1, #71
	mvns	r1, r1
	movs	r6, #0
.Ltmp172:
.LBB21_5:                               @ =>This Inner Loop Header: Depth=1
	@DEBUG_VALUE: ECC_GeneratePublicKey:public_k1 <- [DW_OP_plus_uconst 8] [$sp+0]
	@DEBUG_VALUE: ECC_GeneratePublicKey:private_k <- $r7
	@DEBUG_VALUE: ECC_GeneratePublicKey:crpt <- $r5
	@DEBUG_VALUE: ECC_GeneratePublicKey:public_k2 <- [DW_OP_plus_uconst 32] [$sp+0]
	@DEBUG_VALUE: ECC_GeneratePublicKey:ecc_curve <- [DW_OP_LLVM_entry_value 1] $r1
	@DEBUG_VALUE: ECC_GeneratePublicKey:i <- undef
	.loc	3 1043 28                       @ ../../../Library/StdDriver/src/crypto.c:1043:28
	adds	r2, r0, r1
	str	r6, [r2, #72]
.Ltmp173:
	@DEBUG_VALUE: ECC_GeneratePublicKey:i <- [DW_OP_plus_uconst 1, DW_OP_stack_value] undef
	.loc	3 1041 22                       @ ../../../Library/StdDriver/src/crypto.c:1041:22
	adds	r1, r1, #4
.Ltmp174:
	.loc	3 1041 9 is_stmt 0              @ ../../../Library/StdDriver/src/crypto.c:1041:9
	bne	.LBB21_5
.Ltmp175:
@ %bb.6:
	@DEBUG_VALUE: ECC_GeneratePublicKey:public_k1 <- [DW_OP_plus_uconst 8] [$sp+0]
	@DEBUG_VALUE: ECC_GeneratePublicKey:private_k <- $r7
	@DEBUG_VALUE: ECC_GeneratePublicKey:crpt <- $r5
	@DEBUG_VALUE: ECC_GeneratePublicKey:public_k2 <- [DW_OP_plus_uconst 32] [$sp+0]
	@DEBUG_VALUE: ECC_GeneratePublicKey:ecc_curve <- [DW_OP_LLVM_entry_value 1] $r1
	.loc	3 0 9                           @ ../../../Library/StdDriver/src/crypto.c:0:9
	movw	r0, #2560
	.loc	3 1046 28 is_stmt 1             @ ../../../Library/StdDriver/src/crypto.c:1046:28
	adds	r1, r5, r0
	.loc	3 1046 9 is_stmt 0              @ ../../../Library/StdDriver/src/crypto.c:1046:9
	mov	r0, r7
	bl	Hex2Reg
.Ltmp176:
	.loc	3 1049 12 is_stmt 1             @ ../../../Library/StdDriver/src/crypto.c:1049:12
	ldr	r0, __arm_cp.21_0
	ldr	r7, [r0]
.Ltmp177:
	.loc	3 0 12 is_stmt 0                @ ../../../Library/StdDriver/src/crypto.c:0:12
	movw	r2, #944
	.loc	3 1049 20                       @ ../../../Library/StdDriver/src/crypto.c:1049:20
	adds	r0, r7, r2
	ldr	r0, [r0, #16]
	subs	r0, r0, #1
	subs	r1, r0, #1
	sbcs	r0, r1
.Ltmp178:
	.loc	3 1049 12                       @ ../../../Library/StdDriver/src/crypto.c:1049:12
	lsls	r0, r0, #8
	movw	r3, #2048
.Ltmp179:
	.loc	3 0 0                           @ ../../../Library/StdDriver/src/crypto.c:0:0
	str	r0, [r5, r3]
.Ltmp180:
	.loc	3 1058 36 is_stmt 1             @ ../../../Library/StdDriver/src/crypto.c:1058:36
	ldr	r0, __arm_cp.21_1
	str	r6, [r0]
	.loc	3 1058 20 is_stmt 0             @ ../../../Library/StdDriver/src/crypto.c:1058:20
	ldr	r1, __arm_cp.21_2
	str	r6, [r1]
	.loc	3 1059 23 is_stmt 1             @ ../../../Library/StdDriver/src/crypto.c:1059:23
	ldr	r6, [r5, r3]
	.loc	3 1059 45 is_stmt 0             @ ../../../Library/StdDriver/src/crypto.c:1059:45
	ldr	r2, [r7, r2]
	.loc	3 1059 53                       @ ../../../Library/StdDriver/src/crypto.c:1059:53
	lsls	r2, r2, #22
	.loc	3 1059 23                       @ ../../../Library/StdDriver/src/crypto.c:1059:23
	orrs	r2, r6
	movs	r6, #1
	orrs	r6, r2
	str	r6, [r5, r3]
.Ltmp181:
.LBB21_7:                               @ =>This Inner Loop Header: Depth=1
	@DEBUG_VALUE: ECC_GeneratePublicKey:public_k1 <- [DW_OP_plus_uconst 8] [$sp+0]
	@DEBUG_VALUE: ECC_GeneratePublicKey:crpt <- $r5
	@DEBUG_VALUE: ECC_GeneratePublicKey:public_k2 <- [DW_OP_plus_uconst 32] [$sp+0]
	@DEBUG_VALUE: ECC_GeneratePublicKey:ecc_curve <- [DW_OP_LLVM_entry_value 1] $r1
	.loc	3 1064 22 is_stmt 1             @ ../../../Library/StdDriver/src/crypto.c:1064:22
	ldr	r2, [r1]
.Ltmp182:
	@DEBUG_VALUE: ECC_GeneratePublicKey:u32Tmp <- $r2
	.loc	3 1065 23                       @ ../../../Library/StdDriver/src/crypto.c:1065:23
	ldr	r3, [r0]
	.loc	3 1065 20 is_stmt 0             @ ../../../Library/StdDriver/src/crypto.c:1065:20
	orrs	r3, r2
.Ltmp183:
	@DEBUG_VALUE: ECC_GeneratePublicKey:u32Tmp <- $r3
	.loc	3 1066 9 is_stmt 1              @ ../../../Library/StdDriver/src/crypto.c:1066:9
	beq	.LBB21_7
.Ltmp184:
@ %bb.8:
	@DEBUG_VALUE: ECC_GeneratePublicKey:public_k1 <- [DW_OP_plus_uconst 8] [$sp+0]
	@DEBUG_VALUE: ECC_GeneratePublicKey:crpt <- $r5
	@DEBUG_VALUE: ECC_GeneratePublicKey:u32Tmp <- $r3
	@DEBUG_VALUE: ECC_GeneratePublicKey:public_k2 <- [DW_OP_plus_uconst 32] [$sp+0]
	@DEBUG_VALUE: ECC_GeneratePublicKey:ecc_curve <- [DW_OP_LLVM_entry_value 1] $r1
	.loc	3 0 9 is_stmt 0                 @ ../../../Library/StdDriver/src/crypto.c:0:9
	ldr	r0, __arm_cp.21_3
	.loc	3 1069 32 is_stmt 1             @ ../../../Library/StdDriver/src/crypto.c:1069:32
	adds	r1, r5, r0
	.loc	3 1069 25 is_stmt 0             @ ../../../Library/StdDriver/src/crypto.c:1069:25
	ldr	r0, [r7, #4]
	.loc	3 1069 9                        @ ../../../Library/StdDriver/src/crypto.c:1069:9
	ldr	r2, [sp, #8]                    @ 4-byte Reload
.Ltmp185:
	@DEBUG_VALUE: ECC_GeneratePublicKey:public_k1 <- $r2
	bl	Reg2Hex
.Ltmp186:
	.loc	3 0 9                           @ ../../../Library/StdDriver/src/crypto.c:0:9
	movw	r0, #2128
	.loc	3 1070 32 is_stmt 1             @ ../../../Library/StdDriver/src/crypto.c:1070:32
	adds	r1, r5, r0
	.loc	3 1070 25 is_stmt 0             @ ../../../Library/StdDriver/src/crypto.c:1070:25
	ldr	r0, [r7, #4]
	.loc	3 1070 9                        @ ../../../Library/StdDriver/src/crypto.c:1070:9
	ldr	r2, [sp, #4]                    @ 4-byte Reload
	bl	Reg2Hex
.Ltmp187:
	.loc	3 1034 8 is_stmt 1              @ ../../../Library/StdDriver/src/crypto.c:1034:8
	cmp	r4, #0
	beq	.LBB21_3
	b	.LBB21_2
.Ltmp188:
	.p2align	2
@ %bb.9:
	.loc	3 0 8 is_stmt 0                 @ ../../../Library/StdDriver/src/crypto.c:0:8
__arm_cp.21_0:
	.long	pCurve
.Lcpi_end9:
	.size	__arm_cp.21_0, .Lcpi_end9-__arm_cp.21_0
__arm_cp.21_1:
	.long	g_ECCERR_done
.Lcpi_end10:
	.size	__arm_cp.21_1, .Lcpi_end10-__arm_cp.21_1
__arm_cp.21_2:
	.long	g_ECC_done
.Lcpi_end11:
	.size	__arm_cp.21_2, .Lcpi_end11-__arm_cp.21_2
__arm_cp.21_3:
	.long	2056                            @ 0x808
.Lcpi_end12:
	.size	__arm_cp.21_3, .Lcpi_end12-__arm_cp.21_3
.Lfunc_end21:
	.size	ECC_GeneratePublicKey, .Lfunc_end21-ECC_GeneratePublicKey
	.cfi_endproc
	.cantunwind
	.fnend
                                        @ -- End function
	.section	.text.ecc_init_curve,"ax",%progbits
	.p2align	2                               @ -- Begin function ecc_init_curve
	.type	ecc_init_curve,%function
	.code	16                              @ @ecc_init_curve
	.thumb_func
ecc_init_curve:
.Lfunc_begin22:
	.loc	3 898 0 is_stmt 1               @ ../../../Library/StdDriver/src/crypto.c:898:0
	.fnstart
	.cfi_startproc
@ %bb.0:
	@DEBUG_VALUE: ecc_init_curve:crpt <- $r0
	@DEBUG_VALUE: ecc_init_curve:ecc_curve <- $r1
	.save	{r4, r5, r6, r7, lr}
	push	{r4, r5, r6, r7, lr}
	.cfi_def_cfa_offset 20
	.cfi_offset lr, -4
	.cfi_offset r7, -8
	.cfi_offset r6, -12
	.cfi_offset r5, -16
	.cfi_offset r4, -20
	.pad	#12
	sub	sp, #12
	.cfi_def_cfa_offset 32
	mov	r5, r0
.Ltmp189:
	@DEBUG_VALUE: ecc_init_curve:ret <- 0
	@DEBUG_VALUE: ecc_init_curve:ecc_curve <- $r1
	@DEBUG_VALUE: ecc_init_curve:crpt <- $r5
	.loc	3 901 14 prologue_end           @ ../../../Library/StdDriver/src/crypto.c:901:14
	mov	r0, r1
.Ltmp190:
	@DEBUG_VALUE: ecc_init_curve:ecc_curve <- $r0
	bl	get_curve
.Ltmp191:
	mov	r4, r0
	.loc	3 901 12 is_stmt 0              @ ../../../Library/StdDriver/src/crypto.c:901:12
	ldr	r0, __arm_cp.22_0
	str	r4, [r0]
.Ltmp192:
	@DEBUG_VALUE: ecc_init_curve:ret <- undef
	.loc	3 908 8 is_stmt 1               @ ../../../Library/StdDriver/src/crypto.c:908:8
	cmp	r4, #0
	beq	.LBB22_6
.Ltmp193:
@ %bb.1:
	@DEBUG_VALUE: ecc_init_curve:crpt <- $r5
	.loc	3 0 8 is_stmt 0                 @ ../../../Library/StdDriver/src/crypto.c:0:8
	movw	r0, #944
	adds	r0, r4, r0
	str	r0, [sp, #8]                    @ 4-byte Spill
	ldr	r0, __arm_cp.22_1
.Ltmp194:
	.loc	3 910 9 is_stmt 1               @ ../../../Library/StdDriver/src/crypto.c:910:9
	adds	r0, r5, r0
	ldr	r1, __arm_cp.22_2
	adds	r1, r5, r1
	movs	r2, #35
	mvns	r3, r2
	movs	r2, #18
	lsls	r3, r3, #2
	movs	r7, #0
.Ltmp195:
.LBB22_2:                               @ =>This Inner Loop Header: Depth=1
	@DEBUG_VALUE: ecc_init_curve:crpt <- $r5
	@DEBUG_VALUE: ecc_init_curve:i <- undef
	.loc	3 912 28                        @ ../../../Library/StdDriver/src/crypto.c:912:28
	str	r7, [r1, r3]
	adds	r6, r1, r3
	.loc	3 913 28                        @ ../../../Library/StdDriver/src/crypto.c:913:28
	str	r7, [r6, #72]
	.loc	3 914 29                        @ ../../../Library/StdDriver/src/crypto.c:914:29
	str	r7, [r0]
	.loc	3 915 29                        @ ../../../Library/StdDriver/src/crypto.c:915:29
	str	r7, [r0, #72]
	.loc	3 916 28                        @ ../../../Library/StdDriver/src/crypto.c:916:28
	str	r7, [r1]
.Ltmp196:
	.loc	3 910 22                        @ ../../../Library/StdDriver/src/crypto.c:910:22
	adds	r0, r0, #4
	adds	r1, r1, #4
.Ltmp197:
	@DEBUG_VALUE: ecc_init_curve:i <- [DW_OP_plus_uconst 1, DW_OP_stack_value] undef
	subs	r2, r2, #1
.Ltmp198:
	.loc	3 910 9 is_stmt 0               @ ../../../Library/StdDriver/src/crypto.c:910:9
	bne	.LBB22_2
.Ltmp199:
@ %bb.3:
	@DEBUG_VALUE: ecc_init_curve:crpt <- $r5
	.loc	3 0 9                           @ ../../../Library/StdDriver/src/crypto.c:0:9
	ldr	r0, __arm_cp.22_3
	.loc	3 919 29 is_stmt 1              @ ../../../Library/StdDriver/src/crypto.c:919:29
	adds	r1, r5, r0
	.loc	3 919 17 is_stmt 0              @ ../../../Library/StdDriver/src/crypto.c:919:17
	mov	r0, r4
	adds	r0, #8
	.loc	3 919 9                         @ ../../../Library/StdDriver/src/crypto.c:919:9
	bl	Hex2Reg
	movw	r0, #2416
	.loc	3 920 29 is_stmt 1              @ ../../../Library/StdDriver/src/crypto.c:920:29
	adds	r1, r5, r0
	.loc	3 920 17 is_stmt 0              @ ../../../Library/StdDriver/src/crypto.c:920:17
	mov	r0, r4
	adds	r0, #152
	.loc	3 920 9                         @ ../../../Library/StdDriver/src/crypto.c:920:9
	bl	Hex2Reg
	movw	r0, #296
	.loc	3 921 17 is_stmt 1              @ ../../../Library/StdDriver/src/crypto.c:921:17
	adds	r0, r4, r0
	.loc	3 921 29 is_stmt 0              @ ../../../Library/StdDriver/src/crypto.c:921:29
	ldr	r1, __arm_cp.22_1
	adds	r1, r5, r1
	.loc	3 921 9                         @ ../../../Library/StdDriver/src/crypto.c:921:9
	bl	Hex2Reg
	movw	r0, #440
	.loc	3 922 17 is_stmt 1              @ ../../../Library/StdDriver/src/crypto.c:922:17
	adds	r0, r4, r0
	movw	r1, #2128
	.loc	3 922 29 is_stmt 0              @ ../../../Library/StdDriver/src/crypto.c:922:29
	adds	r1, r5, r1
	.loc	3 922 9                         @ ../../../Library/StdDriver/src/crypto.c:922:9
	bl	Hex2Reg
	ldr	r2, [sp, #8]                    @ 4-byte Reload
.Ltmp200:
	.loc	3 930 20 is_stmt 1              @ ../../../Library/StdDriver/src/crypto.c:930:20
	ldr	r0, [r2, #16]
.Ltmp201:
	.loc	3 930 12 is_stmt 0              @ ../../../Library/StdDriver/src/crypto.c:930:12
	cmp	r0, #1
	bne	.LBB22_5
.Ltmp202:
@ %bb.4:
	@DEBUG_VALUE: ecc_init_curve:crpt <- $r5
	.loc	3 0 12                          @ ../../../Library/StdDriver/src/crypto.c:0:12
	movs	r0, #1
	ldr	r1, __arm_cp.22_2
.Ltmp203:
	.loc	3 932 28 is_stmt 1              @ ../../../Library/StdDriver/src/crypto.c:932:28
	str	r0, [r5, r1]
	.loc	3 932 13 is_stmt 0              @ ../../../Library/StdDriver/src/crypto.c:932:13
	adds	r1, r5, r1
	.loc	3 933 70 is_stmt 1              @ ../../../Library/StdDriver/src/crypto.c:933:70
	ldr	r3, [r2]
	.loc	3 933 43 is_stmt 0              @ ../../../Library/StdDriver/src/crypto.c:933:43
	asrs	r2, r3, #31
	lsrs	r2, r2, #27
	adds	r2, r3, r2
	asrs	r2, r2, #5
	.loc	3 933 13                        @ ../../../Library/StdDriver/src/crypto.c:933:13
	lsls	r5, r2, #2
.Ltmp204:
	.loc	3 933 49                        @ ../../../Library/StdDriver/src/crypto.c:933:49
	ldr	r2, [r1, r5]
	movs	r6, #31
	.loc	3 933 57                        @ ../../../Library/StdDriver/src/crypto.c:933:57
	ands	r3, r6
	mov	r7, r0
	lsls	r7, r3
	.loc	3 933 49                        @ ../../../Library/StdDriver/src/crypto.c:933:49
	orrs	r7, r2
	str	r7, [r1, r5]
	ldr	r2, [sp, #8]                    @ 4-byte Reload
	.loc	3 934 77 is_stmt 1              @ ../../../Library/StdDriver/src/crypto.c:934:77
	ldr	r3, [r2, #4]
	.loc	3 934 50 is_stmt 0              @ ../../../Library/StdDriver/src/crypto.c:934:50
	asrs	r5, r3, #31
	lsrs	r5, r5, #27
	adds	r5, r3, r5
	asrs	r5, r5, #5
	.loc	3 934 13                        @ ../../../Library/StdDriver/src/crypto.c:934:13
	lsls	r5, r5, #2
	.loc	3 934 56                        @ ../../../Library/StdDriver/src/crypto.c:934:56
	ldr	r7, [r1, r5]
	.loc	3 934 64                        @ ../../../Library/StdDriver/src/crypto.c:934:64
	str	r7, [sp, #4]                    @ 4-byte Spill
	ands	r3, r6
	mov	r7, r0
	lsls	r7, r3
	.loc	3 934 56                        @ ../../../Library/StdDriver/src/crypto.c:934:56
	ldr	r3, [sp, #4]                    @ 4-byte Reload
	orrs	r7, r3
	str	r7, [r1, r5]
	.loc	3 935 77 is_stmt 1              @ ../../../Library/StdDriver/src/crypto.c:935:77
	ldr	r3, [r2, #8]
	.loc	3 935 50 is_stmt 0              @ ../../../Library/StdDriver/src/crypto.c:935:50
	asrs	r5, r3, #31
	lsrs	r5, r5, #27
	adds	r5, r3, r5
	asrs	r5, r5, #5
	.loc	3 935 13                        @ ../../../Library/StdDriver/src/crypto.c:935:13
	lsls	r5, r5, #2
	.loc	3 935 56                        @ ../../../Library/StdDriver/src/crypto.c:935:56
	ldr	r2, [r1, r5]
	.loc	3 935 64                        @ ../../../Library/StdDriver/src/crypto.c:935:64
	ands	r3, r6
	mov	r7, r0
	lsls	r7, r3
	.loc	3 935 56                        @ ../../../Library/StdDriver/src/crypto.c:935:56
	orrs	r7, r2
	str	r7, [r1, r5]
	.loc	3 936 77 is_stmt 1              @ ../../../Library/StdDriver/src/crypto.c:936:77
	ldr	r2, [sp, #8]                    @ 4-byte Reload
	ldr	r3, [r2, #12]
	.loc	3 936 50 is_stmt 0              @ ../../../Library/StdDriver/src/crypto.c:936:50
	asrs	r5, r3, #31
	lsrs	r5, r5, #27
	adds	r5, r3, r5
	asrs	r5, r5, #5
	.loc	3 936 13                        @ ../../../Library/StdDriver/src/crypto.c:936:13
	lsls	r5, r5, #2
	.loc	3 936 56                        @ ../../../Library/StdDriver/src/crypto.c:936:56
	ldr	r2, [r1, r5]
	.loc	3 936 64                        @ ../../../Library/StdDriver/src/crypto.c:936:64
	ands	r3, r6
	lsls	r0, r3
	.loc	3 936 56                        @ ../../../Library/StdDriver/src/crypto.c:936:56
	orrs	r0, r2
	str	r0, [r1, r5]
	b	.LBB22_6
.Ltmp205:
.LBB22_5:
	@DEBUG_VALUE: ecc_init_curve:crpt <- $r5
	.loc	3 0 56                          @ ../../../Library/StdDriver/src/crypto.c:0:56
	movw	r0, #588
.Ltmp206:
	.loc	3 940 21 is_stmt 1              @ ../../../Library/StdDriver/src/crypto.c:940:21
	adds	r0, r4, r0
	.loc	3 940 33 is_stmt 0              @ ../../../Library/StdDriver/src/crypto.c:940:33
	ldr	r1, __arm_cp.22_2
	adds	r1, r5, r1
	.loc	3 940 13                        @ ../../../Library/StdDriver/src/crypto.c:940:13
	bl	Hex2Reg
.Ltmp207:
.LBB22_6:
	.loc	3 0 13                          @ ../../../Library/StdDriver/src/crypto.c:0:13
	movs	r0, #0
	.loc	3 902 8 is_stmt 1               @ ../../../Library/StdDriver/src/crypto.c:902:8
	cbnz	r4, .LBB22_8
@ %bb.7:
	.loc	3 0 8 is_stmt 0                 @ ../../../Library/StdDriver/src/crypto.c:0:8
	mvns	r0, r0
.LBB22_8:
.Ltmp208:
	@DEBUG_VALUE: ecc_init_curve:ret <- $r0
	.loc	3 944 5 is_stmt 1               @ ../../../Library/StdDriver/src/crypto.c:944:5
	add	sp, #12
	pop	{r4, r5, r6, r7, pc}
.Ltmp209:
	.p2align	2
@ %bb.9:
	.loc	3 0 5 is_stmt 0                 @ ../../../Library/StdDriver/src/crypto.c:0:5
__arm_cp.22_0:
	.long	pCurve
.Lcpi_end13:
	.size	__arm_cp.22_0, .Lcpi_end13-__arm_cp.22_0
__arm_cp.22_1:
	.long	2056                            @ 0x808
.Lcpi_end14:
	.size	__arm_cp.22_1, .Lcpi_end14-__arm_cp.22_1
__arm_cp.22_2:
	.long	2488                            @ 0x9b8
.Lcpi_end15:
	.size	__arm_cp.22_2, .Lcpi_end15-__arm_cp.22_2
__arm_cp.22_3:
	.long	2344                            @ 0x928
.Lcpi_end16:
	.size	__arm_cp.22_3, .Lcpi_end16-__arm_cp.22_3
.Lfunc_end22:
	.size	ecc_init_curve, .Lfunc_end22-ecc_init_curve
	.cfi_endproc
	.cantunwind
	.fnend
                                        @ -- End function
	.section	.text.Hex2Reg,"ax",%progbits
	.p2align	1                               @ -- Begin function Hex2Reg
	.type	Hex2Reg,%function
	.code	16                              @ @Hex2Reg
	.thumb_func
Hex2Reg:
.Lfunc_begin23:
	.loc	3 815 0 is_stmt 1               @ ../../../Library/StdDriver/src/crypto.c:815:0
	.fnstart
	.cfi_startproc
@ %bb.0:
	@DEBUG_VALUE: Hex2Reg:input <- $r0
	@DEBUG_VALUE: Hex2Reg:reg <- $r1
	.save	{r4, r5, r6, r7, lr}
	push	{r4, r5, r6, r7, lr}
	.cfi_def_cfa_offset 20
	.cfi_offset lr, -4
	.cfi_offset r7, -8
	.cfi_offset r6, -12
	.cfi_offset r5, -16
	.cfi_offset r4, -20
	.pad	#20
	sub	sp, #20
	.cfi_def_cfa_offset 40
	str	r1, [sp, #8]                    @ 4-byte Spill
	mov	r4, r0
.Ltmp210:
	@DEBUG_VALUE: Hex2Reg:reg <- [DW_OP_plus_uconst 8] [$sp+0]
	@DEBUG_VALUE: Hex2Reg:input <- $r4
	.loc	3 820 15 prologue_end           @ ../../../Library/StdDriver/src/crypto.c:820:15
	bl	strlen
.Ltmp211:
	@DEBUG_VALUE: Hex2Reg:ri <- 0
	@DEBUG_VALUE: Hex2Reg:si <- [DW_OP_constu 1, DW_OP_minus, DW_OP_stack_value] $r0
	.loc	3 823 5                         @ ../../../Library/StdDriver/src/crypto.c:823:5
	cmp	r0, #1
	blt	.LBB23_9
.Ltmp212:
@ %bb.1:
	@DEBUG_VALUE: Hex2Reg:input <- $r4
	@DEBUG_VALUE: Hex2Reg:si <- [DW_OP_constu 1, DW_OP_minus, DW_OP_stack_value] $r0
	@DEBUG_VALUE: Hex2Reg:reg <- [DW_OP_plus_uconst 8] [$sp+0]
	@DEBUG_VALUE: Hex2Reg:ri <- 0
	.loc	3 820 29                        @ ../../../Library/StdDriver/src/crypto.c:820:29
	subs	r6, r0, #1
.Ltmp213:
	@DEBUG_VALUE: Hex2Reg:si <- $r6
	.loc	3 0 29 is_stmt 0                @ ../../../Library/StdDriver/src/crypto.c:0:29
	movs	r0, #0
	movs	r1, #7
	str	r1, [sp]                        @ 4-byte Spill
	str	r0, [sp, #4]                    @ 4-byte Spill
	mov	r2, r0
	str	r4, [sp, #16]                   @ 4-byte Spill
.Ltmp214:
	@DEBUG_VALUE: Hex2Reg:input <- [DW_OP_plus_uconst 16] [$sp+0]
	b	.LBB23_4
.Ltmp215:
.LBB23_2:                               @   in Loop: Header=BB23_4 Depth=1
	@DEBUG_VALUE: Hex2Reg:ri <- [DW_OP_plus_uconst 12] [$sp+0]
	@DEBUG_VALUE: Hex2Reg:si <- $r6
	@DEBUG_VALUE: Hex2Reg:reg <- [DW_OP_plus_uconst 8] [$sp+0]
	@DEBUG_VALUE: Hex2Reg:i <- 0
	@DEBUG_VALUE: Hex2Reg:val32 <- 0
	ldr	r4, [sp, #4]                    @ 4-byte Reload
.Ltmp216:
.LBB23_3:                               @   in Loop: Header=BB23_4 Depth=1
	@DEBUG_VALUE: Hex2Reg:ri <- [DW_OP_plus_uconst 12] [$sp+0]
	@DEBUG_VALUE: Hex2Reg:si <- $r6
	@DEBUG_VALUE: Hex2Reg:reg <- [DW_OP_plus_uconst 8] [$sp+0]
	@DEBUG_VALUE: Hex2Reg:si <- $r6
	@DEBUG_VALUE: Hex2Reg:val32 <- $r4
	ldr	r2, [sp, #12]                   @ 4-byte Reload
.Ltmp217:
	@DEBUG_VALUE: Hex2Reg:ri <- $r2
	.loc	3 832 9 is_stmt 1               @ ../../../Library/StdDriver/src/crypto.c:832:9
	lsls	r0, r2, #2
	.loc	3 832 19 is_stmt 0              @ ../../../Library/StdDriver/src/crypto.c:832:19
	ldr	r1, [sp, #8]                    @ 4-byte Reload
	str	r4, [r1, r0]
	.loc	3 832 15                        @ ../../../Library/StdDriver/src/crypto.c:832:15
	adds	r2, r2, #1
.Ltmp218:
	@DEBUG_VALUE: Hex2Reg:ri <- $r2
	.loc	3 823 5 is_stmt 1               @ ../../../Library/StdDriver/src/crypto.c:823:5
	cmp	r6, #0
	bmi	.LBB23_9
.Ltmp219:
.LBB23_4:                               @ =>This Loop Header: Depth=1
                                        @     Child Loop BB23_8 Depth 2
	@DEBUG_VALUE: Hex2Reg:si <- $r6
	@DEBUG_VALUE: Hex2Reg:reg <- [DW_OP_plus_uconst 8] [$sp+0]
	@DEBUG_VALUE: Hex2Reg:si <- $r6
	@DEBUG_VALUE: Hex2Reg:ri <- $r2
	@DEBUG_VALUE: Hex2Reg:val32 <- 0
	@DEBUG_VALUE: Hex2Reg:i <- 0
	.loc	3 826 9                         @ ../../../Library/StdDriver/src/crypto.c:826:9
	cmp	r6, #0
	str	r2, [sp, #12]                   @ 4-byte Spill
.Ltmp220:
	@DEBUG_VALUE: Hex2Reg:ri <- [DW_OP_plus_uconst 12] [$sp+0]
	@DEBUG_VALUE: Hex2Reg:ri <- [DW_OP_plus_uconst 12] [$sp+0]
	bmi	.LBB23_2
.Ltmp221:
@ %bb.5:                                @   in Loop: Header=BB23_4 Depth=1
	@DEBUG_VALUE: Hex2Reg:ri <- [DW_OP_plus_uconst 12] [$sp+0]
	@DEBUG_VALUE: Hex2Reg:si <- $r6
	@DEBUG_VALUE: Hex2Reg:reg <- [DW_OP_plus_uconst 8] [$sp+0]
	@DEBUG_VALUE: Hex2Reg:i <- 0
	@DEBUG_VALUE: Hex2Reg:val32 <- 0
	cmp	r6, #7
	mov	r0, r6
	blo	.LBB23_7
.Ltmp222:
@ %bb.6:                                @   in Loop: Header=BB23_4 Depth=1
	@DEBUG_VALUE: Hex2Reg:ri <- [DW_OP_plus_uconst 12] [$sp+0]
	@DEBUG_VALUE: Hex2Reg:si <- $r6
	@DEBUG_VALUE: Hex2Reg:reg <- [DW_OP_plus_uconst 8] [$sp+0]
	@DEBUG_VALUE: Hex2Reg:i <- 0
	@DEBUG_VALUE: Hex2Reg:val32 <- 0
	ldr	r0, [sp]                        @ 4-byte Reload
.Ltmp223:
.LBB23_7:                               @   in Loop: Header=BB23_4 Depth=1
	@DEBUG_VALUE: Hex2Reg:ri <- [DW_OP_plus_uconst 12] [$sp+0]
	@DEBUG_VALUE: Hex2Reg:si <- $r6
	@DEBUG_VALUE: Hex2Reg:reg <- [DW_OP_plus_uconst 8] [$sp+0]
	@DEBUG_VALUE: Hex2Reg:i <- 0
	@DEBUG_VALUE: Hex2Reg:val32 <- 0
	lsls	r0, r0, #2
	adds	r7, r0, #4
	ldr	r4, [sp, #4]                    @ 4-byte Reload
	mov	r5, r4
.Ltmp224:
.LBB23_8:                               @   Parent Loop BB23_4 Depth=1
                                        @ =>  This Inner Loop Header: Depth=2
	@DEBUG_VALUE: Hex2Reg:ri <- [DW_OP_plus_uconst 12] [$sp+0]
	@DEBUG_VALUE: Hex2Reg:si <- $r6
	@DEBUG_VALUE: Hex2Reg:reg <- [DW_OP_plus_uconst 8] [$sp+0]
	@DEBUG_VALUE: Hex2Reg:si <- $r6
	@DEBUG_VALUE: Hex2Reg:val32 <- $r4
	@DEBUG_VALUE: Hex2Reg:i <- undef
	.loc	3 828 26                        @ ../../../Library/StdDriver/src/crypto.c:828:26
	ldr	r0, [sp, #16]                   @ 4-byte Reload
.Ltmp225:
	@DEBUG_VALUE: Hex2Reg:input <- $r0
	ldrb	r0, [r0, r6]
.Ltmp226:
	.loc	3 828 19 is_stmt 0              @ ../../../Library/StdDriver/src/crypto.c:828:19
	bl	ch2hex
.Ltmp227:
	@DEBUG_VALUE: Hex2Reg:hex <- undef
	.loc	3 829 36 is_stmt 1              @ ../../../Library/StdDriver/src/crypto.c:829:36
	lsls	r0, r5
	.loc	3 829 19 is_stmt 0              @ ../../../Library/StdDriver/src/crypto.c:829:19
	orrs	r4, r0
.Ltmp228:
	@DEBUG_VALUE: Hex2Reg:i <- [DW_OP_plus_uconst 1, DW_OP_stack_value] undef
	@DEBUG_VALUE: Hex2Reg:val32 <- $r4
	.loc	3 826 32 is_stmt 1              @ ../../../Library/StdDriver/src/crypto.c:826:32
	adds	r5, r5, #4
.Ltmp229:
	.loc	3 830 15                        @ ../../../Library/StdDriver/src/crypto.c:830:15
	subs	r6, r6, #1
.Ltmp230:
	@DEBUG_VALUE: Hex2Reg:si <- $r6
	.loc	3 826 9                         @ ../../../Library/StdDriver/src/crypto.c:826:9
	cmp	r7, r5
	bne	.LBB23_8
	b	.LBB23_3
.Ltmp231:
.LBB23_9:
	@DEBUG_VALUE: Hex2Reg:reg <- [DW_OP_plus_uconst 8] [$sp+0]
	.loc	3 834 1                         @ ../../../Library/StdDriver/src/crypto.c:834:1
	add	sp, #20
.Ltmp232:
	pop	{r4, r5, r6, r7, pc}
.Ltmp233:
.Lfunc_end23:
	.size	Hex2Reg, .Lfunc_end23-Hex2Reg
	.cfi_endproc
	.cantunwind
	.fnend
                                        @ -- End function
	.section	.text.Reg2Hex,"ax",%progbits
	.p2align	1                               @ -- Begin function Reg2Hex
	.type	Reg2Hex,%function
	.code	16                              @ @Reg2Hex
	.thumb_func
Reg2Hex:
.Lfunc_begin24:
	.loc	3 880 0                         @ ../../../Library/StdDriver/src/crypto.c:880:0
	.fnstart
	.cfi_startproc
@ %bb.0:
	@DEBUG_VALUE: Reg2Hex:count <- $r0
	@DEBUG_VALUE: Reg2Hex:reg <- $r1
	@DEBUG_VALUE: Reg2Hex:output <- $r2
	.save	{r4, r5, r6, r7, lr}
	push	{r4, r5, r6, r7, lr}
	.cfi_def_cfa_offset 20
	.cfi_offset lr, -4
	.cfi_offset r7, -8
	.cfi_offset r6, -12
	.cfi_offset r5, -16
	.cfi_offset r4, -20
	.pad	#28
	sub	sp, #28
	.cfi_def_cfa_offset 48
	str	r1, [sp, #8]                    @ 4-byte Spill
	movs	r1, #0
.Ltmp234:
	@DEBUG_VALUE: Reg2Hex:reg <- [DW_OP_LLVM_entry_value 1] $r1
	str	r2, [sp, #12]                   @ 4-byte Spill
	str	r1, [sp, #16]                   @ 4-byte Spill
.Ltmp235:
	@DEBUG_VALUE: Reg2Hex:output <- [DW_OP_plus_uconst 12] [$sp+0]
	@DEBUG_VALUE: Reg2Hex:reg <- [DW_OP_plus_uconst 8] [$sp+0]
	@DEBUG_VALUE: Reg2Hex:count <- $r0
	.loc	3 884 19 prologue_end           @ ../../../Library/StdDriver/src/crypto.c:884:19
	strb	r1, [r2, r0]
.Ltmp236:
	@DEBUG_VALUE: Reg2Hex:ri <- 0
	@DEBUG_VALUE: Reg2Hex:idx <- [DW_OP_constu 1, DW_OP_minus, DW_OP_stack_value] $r0
	.loc	3 887 5                         @ ../../../Library/StdDriver/src/crypto.c:887:5
	cmp	r0, #1
	blt	.LBB24_9
.Ltmp237:
@ %bb.1:
	@DEBUG_VALUE: Reg2Hex:idx <- [DW_OP_constu 1, DW_OP_minus, DW_OP_stack_value] $r0
	@DEBUG_VALUE: Reg2Hex:count <- $r0
	@DEBUG_VALUE: Reg2Hex:reg <- [DW_OP_plus_uconst 8] [$sp+0]
	@DEBUG_VALUE: Reg2Hex:output <- [DW_OP_plus_uconst 12] [$sp+0]
	@DEBUG_VALUE: Reg2Hex:ri <- 0
	.loc	3 885 17                        @ ../../../Library/StdDriver/src/crypto.c:885:17
	subs	r4, r0, #1
.Ltmp238:
	@DEBUG_VALUE: Reg2Hex:idx <- $r4
	.loc	3 0 17 is_stmt 0                @ ../../../Library/StdDriver/src/crypto.c:0:17
	movs	r0, #7
.Ltmp239:
	@DEBUG_VALUE: Reg2Hex:count <- [DW_OP_LLVM_entry_value 1] $r0
	str	r0, [sp, #4]                    @ 4-byte Spill
	ldr	r0, [sp, #16]                   @ 4-byte Reload
	b	.LBB24_3
.Ltmp240:
.LBB24_2:                               @   in Loop: Header=BB24_3 Depth=1
	@DEBUG_VALUE: Reg2Hex:ri <- $r0
	@DEBUG_VALUE: Reg2Hex:reg <- [DW_OP_plus_uconst 8] [$sp+0]
	@DEBUG_VALUE: Reg2Hex:output <- [DW_OP_plus_uconst 12] [$sp+0]
	@DEBUG_VALUE: Reg2Hex:count <- [DW_OP_LLVM_entry_value 1] $r0
	@DEBUG_VALUE: Reg2Hex:idx <- $r4
	.loc	3 887 29 is_stmt 1              @ ../../../Library/StdDriver/src/crypto.c:887:29
	adds	r0, r0, #1
.Ltmp241:
	@DEBUG_VALUE: Reg2Hex:ri <- $r0
	.loc	3 887 5 is_stmt 0               @ ../../../Library/StdDriver/src/crypto.c:887:5
	cmp	r4, #0
	bmi	.LBB24_9
.Ltmp242:
.LBB24_3:                               @ =>This Loop Header: Depth=1
                                        @     Child Loop BB24_7 Depth 2
	@DEBUG_VALUE: Reg2Hex:idx <- $r4
	@DEBUG_VALUE: Reg2Hex:reg <- [DW_OP_plus_uconst 8] [$sp+0]
	@DEBUG_VALUE: Reg2Hex:output <- [DW_OP_plus_uconst 12] [$sp+0]
	@DEBUG_VALUE: Reg2Hex:count <- [DW_OP_LLVM_entry_value 1] $r0
	@DEBUG_VALUE: Reg2Hex:idx <- $r4
	@DEBUG_VALUE: Reg2Hex:ri <- $r0
	@DEBUG_VALUE: Reg2Hex:i <- 0
	.loc	3 889 9 is_stmt 1               @ ../../../Library/StdDriver/src/crypto.c:889:9
	cmp	r4, #0
	bmi	.LBB24_2
.Ltmp243:
@ %bb.4:                                @   in Loop: Header=BB24_3 Depth=1
	@DEBUG_VALUE: Reg2Hex:idx <- $r4
	@DEBUG_VALUE: Reg2Hex:ri <- $r0
	@DEBUG_VALUE: Reg2Hex:reg <- [DW_OP_plus_uconst 8] [$sp+0]
	@DEBUG_VALUE: Reg2Hex:output <- [DW_OP_plus_uconst 12] [$sp+0]
	@DEBUG_VALUE: Reg2Hex:i <- 0
	@DEBUG_VALUE: Reg2Hex:count <- [DW_OP_LLVM_entry_value 1] $r0
	.loc	3 0 9 is_stmt 0                 @ ../../../Library/StdDriver/src/crypto.c:0:9
	str	r0, [sp, #20]                   @ 4-byte Spill
.Ltmp244:
	@DEBUG_VALUE: Reg2Hex:ri <- [DW_OP_plus_uconst 20] [$sp+0]
	lsls	r0, r0, #2
.Ltmp245:
	.loc	3 889 9                         @ ../../../Library/StdDriver/src/crypto.c:889:9
	cmp	r4, #7
	mov	r1, r4
	blo	.LBB24_6
.Ltmp246:
@ %bb.5:                                @   in Loop: Header=BB24_3 Depth=1
	@DEBUG_VALUE: Reg2Hex:ri <- [DW_OP_plus_uconst 20] [$sp+0]
	@DEBUG_VALUE: Reg2Hex:idx <- $r4
	@DEBUG_VALUE: Reg2Hex:reg <- [DW_OP_plus_uconst 8] [$sp+0]
	@DEBUG_VALUE: Reg2Hex:output <- [DW_OP_plus_uconst 12] [$sp+0]
	@DEBUG_VALUE: Reg2Hex:i <- 0
	@DEBUG_VALUE: Reg2Hex:count <- [DW_OP_LLVM_entry_value 1] $r0
	ldr	r1, [sp, #4]                    @ 4-byte Reload
.Ltmp247:
.LBB24_6:                               @   in Loop: Header=BB24_3 Depth=1
	@DEBUG_VALUE: Reg2Hex:ri <- [DW_OP_plus_uconst 20] [$sp+0]
	@DEBUG_VALUE: Reg2Hex:idx <- $r4
	@DEBUG_VALUE: Reg2Hex:reg <- [DW_OP_plus_uconst 8] [$sp+0]
	@DEBUG_VALUE: Reg2Hex:output <- [DW_OP_plus_uconst 12] [$sp+0]
	@DEBUG_VALUE: Reg2Hex:i <- 0
	@DEBUG_VALUE: Reg2Hex:count <- [DW_OP_LLVM_entry_value 1] $r0
	.loc	3 0 0                           @ ../../../Library/StdDriver/src/crypto.c:0:0
	ldr	r2, [sp, #8]                    @ 4-byte Reload
	adds	r0, r2, r0
	.loc	3 889 9                         @ ../../../Library/StdDriver/src/crypto.c:889:9
	str	r0, [sp, #24]                   @ 4-byte Spill
	adds	r7, r1, #1
	ldr	r5, [sp, #12]                   @ 4-byte Reload
	ldr	r6, [sp, #16]                   @ 4-byte Reload
.Ltmp248:
.LBB24_7:                               @   Parent Loop BB24_3 Depth=1
                                        @ =>  This Inner Loop Header: Depth=2
	@DEBUG_VALUE: Reg2Hex:ri <- [DW_OP_plus_uconst 20] [$sp+0]
	@DEBUG_VALUE: Reg2Hex:reg <- [DW_OP_plus_uconst 8] [$sp+0]
	@DEBUG_VALUE: Reg2Hex:output <- [DW_OP_plus_uconst 12] [$sp+0]
	@DEBUG_VALUE: Reg2Hex:count <- [DW_OP_LLVM_entry_value 1] $r0
	@DEBUG_VALUE: Reg2Hex:idx <- undef
	@DEBUG_VALUE: Reg2Hex:i <- $r6
	.loc	3 891 47 is_stmt 1              @ ../../../Library/StdDriver/src/crypto.c:891:47
	ldr	r0, [sp, #24]                   @ 4-byte Reload
	ldr	r0, [r0]
	.loc	3 891 27 is_stmt 0              @ ../../../Library/StdDriver/src/crypto.c:891:27
	mov	r1, r6
	bl	get_Nth_nibble_char
	.loc	3 891 25                        @ ../../../Library/StdDriver/src/crypto.c:891:25
	strb	r0, [r5, r4]
.Ltmp249:
	.loc	3 889 32 is_stmt 1              @ ../../../Library/StdDriver/src/crypto.c:889:32
	subs	r5, r5, #1
.Ltmp250:
	@DEBUG_VALUE: Reg2Hex:idx <- [DW_OP_constu 1, DW_OP_minus, DW_OP_stack_value] undef
	.loc	3 889 48 is_stmt 0              @ ../../../Library/StdDriver/src/crypto.c:889:48
	adds	r6, r6, #1
.Ltmp251:
	@DEBUG_VALUE: Reg2Hex:i <- $r6
	.loc	3 889 9                         @ ../../../Library/StdDriver/src/crypto.c:889:9
	cmp	r7, r6
	bne	.LBB24_7
.Ltmp252:
@ %bb.8:                                @   in Loop: Header=BB24_3 Depth=1
	@DEBUG_VALUE: Reg2Hex:ri <- [DW_OP_plus_uconst 20] [$sp+0]
	@DEBUG_VALUE: Reg2Hex:i <- $r6
	@DEBUG_VALUE: Reg2Hex:reg <- [DW_OP_plus_uconst 8] [$sp+0]
	@DEBUG_VALUE: Reg2Hex:output <- [DW_OP_plus_uconst 12] [$sp+0]
	@DEBUG_VALUE: Reg2Hex:count <- [DW_OP_LLVM_entry_value 1] $r0
	.loc	3 887 29 is_stmt 1              @ ../../../Library/StdDriver/src/crypto.c:887:29
	subs	r4, r4, r6
	ldr	r0, [sp, #20]                   @ 4-byte Reload
.Ltmp253:
	@DEBUG_VALUE: Reg2Hex:ri <- $r0
	.loc	3 0 29 is_stmt 0                @ ../../../Library/StdDriver/src/crypto.c:0:29
	b	.LBB24_2
.Ltmp254:
.LBB24_9:
	@DEBUG_VALUE: Reg2Hex:reg <- [DW_OP_plus_uconst 8] [$sp+0]
	@DEBUG_VALUE: Reg2Hex:output <- [DW_OP_plus_uconst 12] [$sp+0]
	.loc	3 895 1 is_stmt 1               @ ../../../Library/StdDriver/src/crypto.c:895:1
	add	sp, #28
.Ltmp255:
	pop	{r4, r5, r6, r7, pc}
.Ltmp256:
.Lfunc_end24:
	.size	Reg2Hex, .Lfunc_end24-Reg2Hex
	.cfi_endproc
	.cantunwind
	.fnend
                                        @ -- End function
	.section	.text.ECC_GenerateSecretZ,"ax",%progbits
	.hidden	ECC_GenerateSecretZ             @ -- Begin function ECC_GenerateSecretZ
	.globl	ECC_GenerateSecretZ
	.p2align	2
	.type	ECC_GenerateSecretZ,%function
	.code	16                              @ @ECC_GenerateSecretZ
	.thumb_func
ECC_GenerateSecretZ:
.Lfunc_begin25:
	.loc	3 1089 0                        @ ../../../Library/StdDriver/src/crypto.c:1089:0
	.fnstart
	.cfi_startproc
@ %bb.0:
	@DEBUG_VALUE: ECC_GenerateSecretZ:crpt <- $r0
	@DEBUG_VALUE: ECC_GenerateSecretZ:ecc_curve <- $r1
	@DEBUG_VALUE: ECC_GenerateSecretZ:private_k <- $r2
	@DEBUG_VALUE: ECC_GenerateSecretZ:public_k1 <- $r3
	.save	{r4, r5, r6, r7, lr}
	push	{r4, r5, r6, r7, lr}
	.cfi_def_cfa_offset 20
	.cfi_offset lr, -4
	.cfi_offset r7, -8
	.cfi_offset r6, -12
	.cfi_offset r5, -16
	.cfi_offset r4, -20
	.pad	#20
	sub	sp, #20
	.cfi_def_cfa_offset 40
	mov	r5, r3
	mov	r4, r2
	mov	r7, r1
	mov	r6, r0
.Ltmp257:
	@DEBUG_VALUE: ECC_GenerateSecretZ:ret <- 0
	@DEBUG_VALUE: ECC_GenerateSecretZ:secret_z <- [DW_OP_plus_uconst 44] [$sp+0]
	@DEBUG_VALUE: ECC_GenerateSecretZ:public_k2 <- [DW_OP_plus_uconst 40] [$sp+0]
	@DEBUG_VALUE: ECC_GenerateSecretZ:public_k1 <- $r5
	@DEBUG_VALUE: ECC_GenerateSecretZ:private_k <- $r4
	@DEBUG_VALUE: ECC_GenerateSecretZ:ecc_curve <- $r7
	@DEBUG_VALUE: ECC_GenerateSecretZ:crpt <- $r6
	.loc	3 1093 8 prologue_end           @ ../../../Library/StdDriver/src/crypto.c:1093:8
	bl	ecc_init_curve
.Ltmp258:
	@DEBUG_VALUE: ECC_GenerateSecretZ:ret <- undef
	.loc	3 1098 8                        @ ../../../Library/StdDriver/src/crypto.c:1098:8
	cbz	r0, .LBB25_3
.Ltmp259:
@ %bb.1:
	@DEBUG_VALUE: ECC_GenerateSecretZ:ecc_curve <- $r7
	@DEBUG_VALUE: ECC_GenerateSecretZ:crpt <- $r6
	@DEBUG_VALUE: ECC_GenerateSecretZ:public_k1 <- $r5
	@DEBUG_VALUE: ECC_GenerateSecretZ:private_k <- $r4
	@DEBUG_VALUE: ECC_GenerateSecretZ:public_k2 <- [DW_OP_plus_uconst 40] [$sp+0]
	@DEBUG_VALUE: ECC_GenerateSecretZ:secret_z <- [DW_OP_plus_uconst 44] [$sp+0]
	.loc	3 1093 8                        @ ../../../Library/StdDriver/src/crypto.c:1093:8
	cmp	r0, #0
	bne	.LBB25_14
.Ltmp260:
.LBB25_2:
	@DEBUG_VALUE: ECC_GenerateSecretZ:crpt <- $r6
	@DEBUG_VALUE: ECC_GenerateSecretZ:public_k2 <- [DW_OP_plus_uconst 40] [$sp+0]
	@DEBUG_VALUE: ECC_GenerateSecretZ:secret_z <- [DW_OP_plus_uconst 44] [$sp+0]
	@DEBUG_VALUE: ECC_GenerateSecretZ:ret <- $r0
	.loc	3 1148 5                        @ ../../../Library/StdDriver/src/crypto.c:1148:5
	add	sp, #20
.Ltmp261:
	pop	{r4, r5, r6, r7, pc}
.Ltmp262:
.LBB25_3:
	@DEBUG_VALUE: ECC_GenerateSecretZ:ecc_curve <- $r7
	@DEBUG_VALUE: ECC_GenerateSecretZ:crpt <- $r6
	@DEBUG_VALUE: ECC_GenerateSecretZ:public_k1 <- $r5
	@DEBUG_VALUE: ECC_GenerateSecretZ:private_k <- $r4
	@DEBUG_VALUE: ECC_GenerateSecretZ:public_k2 <- [DW_OP_plus_uconst 40] [$sp+0]
	@DEBUG_VALUE: ECC_GenerateSecretZ:secret_z <- [DW_OP_plus_uconst 44] [$sp+0]
	.loc	3 0 5 is_stmt 0                 @ ../../../Library/StdDriver/src/crypto.c:0:5
	str	r0, [sp, #4]                    @ 4-byte Spill
	str	r5, [sp, #12]                   @ 4-byte Spill
.Ltmp263:
	@DEBUG_VALUE: ECC_GenerateSecretZ:public_k1 <- [DW_OP_plus_uconst 12] [$sp+0]
	ldr	r0, [sp, #44]
	str	r0, [sp, #16]                   @ 4-byte Spill
	ldr	r0, [sp, #40]
	str	r0, [sp, #8]                    @ 4-byte Spill
	ldr	r0, __arm_cp.25_0
.Ltmp264:
	.loc	3 1100 9 is_stmt 1              @ ../../../Library/StdDriver/src/crypto.c:1100:9
	adds	r0, r6, r0
	movw	r1, #2560
	adds	r1, r6, r1
	movs	r2, #18
.Ltmp265:
.LBB25_4:                               @ =>This Inner Loop Header: Depth=1
	@DEBUG_VALUE: ECC_GenerateSecretZ:public_k1 <- [DW_OP_plus_uconst 12] [$sp+0]
	@DEBUG_VALUE: ECC_GenerateSecretZ:ecc_curve <- $r7
	@DEBUG_VALUE: ECC_GenerateSecretZ:crpt <- $r6
	@DEBUG_VALUE: ECC_GenerateSecretZ:private_k <- $r4
	@DEBUG_VALUE: ECC_GenerateSecretZ:public_k2 <- [DW_OP_plus_uconst 40] [$sp+0]
	@DEBUG_VALUE: ECC_GenerateSecretZ:secret_z <- [DW_OP_plus_uconst 44] [$sp+0]
	@DEBUG_VALUE: ECC_GenerateSecretZ:i <- undef
	.loc	3 0 9 is_stmt 0                 @ ../../../Library/StdDriver/src/crypto.c:0:9
	movs	r5, #0
.Ltmp266:
	.loc	3 1102 28 is_stmt 1             @ ../../../Library/StdDriver/src/crypto.c:1102:28
	stm	r1!, {r5}
	.loc	3 1103 29                       @ ../../../Library/StdDriver/src/crypto.c:1103:29
	str	r5, [r0]
	.loc	3 1104 29                       @ ../../../Library/StdDriver/src/crypto.c:1104:29
	str	r5, [r0, #72]
.Ltmp267:
	.loc	3 1100 22                       @ ../../../Library/StdDriver/src/crypto.c:1100:22
	adds	r0, r0, #4
.Ltmp268:
	@DEBUG_VALUE: ECC_GenerateSecretZ:i <- [DW_OP_plus_uconst 1, DW_OP_stack_value] undef
	subs	r2, r2, #1
.Ltmp269:
	.loc	3 1100 9 is_stmt 0              @ ../../../Library/StdDriver/src/crypto.c:1100:9
	bne	.LBB25_4
.Ltmp270:
@ %bb.5:
	@DEBUG_VALUE: ECC_GenerateSecretZ:public_k1 <- [DW_OP_plus_uconst 12] [$sp+0]
	@DEBUG_VALUE: ECC_GenerateSecretZ:ecc_curve <- $r7
	@DEBUG_VALUE: ECC_GenerateSecretZ:crpt <- $r6
	@DEBUG_VALUE: ECC_GenerateSecretZ:private_k <- $r4
	@DEBUG_VALUE: ECC_GenerateSecretZ:public_k2 <- [DW_OP_plus_uconst 40] [$sp+0]
	@DEBUG_VALUE: ECC_GenerateSecretZ:secret_z <- [DW_OP_plus_uconst 44] [$sp+0]
	.loc	3 1107 39 is_stmt 1             @ ../../../Library/StdDriver/src/crypto.c:1107:39
	cmp	r7, #14
	bhi	.LBB25_15
.Ltmp271:
@ %bb.6:
	@DEBUG_VALUE: ECC_GenerateSecretZ:public_k1 <- [DW_OP_plus_uconst 12] [$sp+0]
	@DEBUG_VALUE: ECC_GenerateSecretZ:ecc_curve <- $r7
	@DEBUG_VALUE: ECC_GenerateSecretZ:crpt <- $r6
	@DEBUG_VALUE: ECC_GenerateSecretZ:private_k <- $r4
	@DEBUG_VALUE: ECC_GenerateSecretZ:public_k2 <- [DW_OP_plus_uconst 40] [$sp+0]
	@DEBUG_VALUE: ECC_GenerateSecretZ:secret_z <- [DW_OP_plus_uconst 44] [$sp+0]
	.loc	3 0 39 is_stmt 0                @ ../../../Library/StdDriver/src/crypto.c:0:39
	movs	r2, #1
	lsls	r2, r7
	ldr	r1, __arm_cp.25_1
	tst	r2, r1
	beq	.LBB25_8
.Ltmp272:
@ %bb.7:
	@DEBUG_VALUE: ECC_GenerateSecretZ:public_k1 <- [DW_OP_plus_uconst 12] [$sp+0]
	@DEBUG_VALUE: ECC_GenerateSecretZ:ecc_curve <- $r7
	@DEBUG_VALUE: ECC_GenerateSecretZ:crpt <- $r6
	@DEBUG_VALUE: ECC_GenerateSecretZ:private_k <- $r4
	@DEBUG_VALUE: ECC_GenerateSecretZ:public_k2 <- [DW_OP_plus_uconst 40] [$sp+0]
	@DEBUG_VALUE: ECC_GenerateSecretZ:secret_z <- [DW_OP_plus_uconst 44] [$sp+0]
	movw	r1, #2560
.Ltmp273:
	.loc	3 1110 34 is_stmt 1             @ ../../../Library/StdDriver/src/crypto.c:1110:34
	adds	r1, r6, r1
	movs	r2, #1
	b	.LBB25_10
.Ltmp274:
.LBB25_8:
	@DEBUG_VALUE: ECC_GenerateSecretZ:public_k1 <- [DW_OP_plus_uconst 12] [$sp+0]
	@DEBUG_VALUE: ECC_GenerateSecretZ:ecc_curve <- $r7
	@DEBUG_VALUE: ECC_GenerateSecretZ:crpt <- $r6
	@DEBUG_VALUE: ECC_GenerateSecretZ:private_k <- $r4
	@DEBUG_VALUE: ECC_GenerateSecretZ:public_k2 <- [DW_OP_plus_uconst 40] [$sp+0]
	@DEBUG_VALUE: ECC_GenerateSecretZ:secret_z <- [DW_OP_plus_uconst 44] [$sp+0]
	.loc	3 0 34 is_stmt 0                @ ../../../Library/StdDriver/src/crypto.c:0:34
	lsls	r1, r2, #22
	lsrs	r1, r1, #28
	beq	.LBB25_15
.Ltmp275:
@ %bb.9:
	@DEBUG_VALUE: ECC_GenerateSecretZ:public_k1 <- [DW_OP_plus_uconst 12] [$sp+0]
	@DEBUG_VALUE: ECC_GenerateSecretZ:ecc_curve <- $r7
	@DEBUG_VALUE: ECC_GenerateSecretZ:crpt <- $r6
	@DEBUG_VALUE: ECC_GenerateSecretZ:private_k <- $r4
	@DEBUG_VALUE: ECC_GenerateSecretZ:public_k2 <- [DW_OP_plus_uconst 40] [$sp+0]
	@DEBUG_VALUE: ECC_GenerateSecretZ:secret_z <- [DW_OP_plus_uconst 44] [$sp+0]
	movw	r1, #2560
.Ltmp276:
	.loc	3 1115 34 is_stmt 1             @ ../../../Library/StdDriver/src/crypto.c:1115:34
	adds	r1, r6, r1
	movs	r2, #2
.Ltmp277:
.LBB25_10:
	@DEBUG_VALUE: ECC_GenerateSecretZ:public_k1 <- [DW_OP_plus_uconst 12] [$sp+0]
	@DEBUG_VALUE: ECC_GenerateSecretZ:ecc_curve <- $r7
	@DEBUG_VALUE: ECC_GenerateSecretZ:crpt <- $r6
	@DEBUG_VALUE: ECC_GenerateSecretZ:private_k <- $r4
	@DEBUG_VALUE: ECC_GenerateSecretZ:public_k2 <- [DW_OP_plus_uconst 40] [$sp+0]
	@DEBUG_VALUE: ECC_GenerateSecretZ:secret_z <- [DW_OP_plus_uconst 44] [$sp+0]
	.loc	3 0 0 is_stmt 0                 @ ../../../Library/StdDriver/src/crypto.c:0:0
	mov	r0, r4
	bl	Hex2RegEx
.Ltmp278:
.LBB25_11:
	@DEBUG_VALUE: ECC_GenerateSecretZ:public_k1 <- [DW_OP_plus_uconst 12] [$sp+0]
	@DEBUG_VALUE: ECC_GenerateSecretZ:ecc_curve <- $r7
	@DEBUG_VALUE: ECC_GenerateSecretZ:crpt <- $r6
	@DEBUG_VALUE: ECC_GenerateSecretZ:private_k <- $r4
	@DEBUG_VALUE: ECC_GenerateSecretZ:public_k2 <- [DW_OP_plus_uconst 40] [$sp+0]
	@DEBUG_VALUE: ECC_GenerateSecretZ:secret_z <- [DW_OP_plus_uconst 44] [$sp+0]
	.loc	3 1122 28 is_stmt 1             @ ../../../Library/StdDriver/src/crypto.c:1122:28
	ldr	r0, __arm_cp.25_0
	adds	r4, r6, r0
.Ltmp279:
	.loc	3 1122 9 is_stmt 0              @ ../../../Library/StdDriver/src/crypto.c:1122:9
	ldr	r0, [sp, #12]                   @ 4-byte Reload
.Ltmp280:
	@DEBUG_VALUE: ECC_GenerateSecretZ:public_k1 <- $r0
	mov	r1, r4
	bl	Hex2Reg
.Ltmp281:
	.loc	3 0 9                           @ ../../../Library/StdDriver/src/crypto.c:0:9
	movw	r0, #2128
	.loc	3 1123 28 is_stmt 1             @ ../../../Library/StdDriver/src/crypto.c:1123:28
	adds	r1, r6, r0
	.loc	3 1123 9 is_stmt 0              @ ../../../Library/StdDriver/src/crypto.c:1123:9
	ldr	r0, [sp, #8]                    @ 4-byte Reload
	bl	Hex2Reg
.Ltmp282:
	.loc	3 1126 12 is_stmt 1             @ ../../../Library/StdDriver/src/crypto.c:1126:12
	ldr	r0, __arm_cp.25_2
	ldr	r0, [r0]
	movw	r7, #944
.Ltmp283:
	.loc	3 1126 20 is_stmt 0             @ ../../../Library/StdDriver/src/crypto.c:1126:20
	adds	r1, r0, r7
	ldr	r1, [r1, #16]
	subs	r1, r1, #1
	subs	r2, r1, #1
	sbcs	r1, r2
.Ltmp284:
	.loc	3 1126 12                       @ ../../../Library/StdDriver/src/crypto.c:1126:12
	lsls	r1, r1, #8
	movw	r3, #2048
.Ltmp285:
	.loc	3 0 0                           @ ../../../Library/StdDriver/src/crypto.c:0:0
	str	r1, [r6, r3]
.Ltmp286:
	.loc	3 1134 36 is_stmt 1             @ ../../../Library/StdDriver/src/crypto.c:1134:36
	ldr	r1, __arm_cp.25_3
	str	r5, [r1]
	.loc	3 1134 20 is_stmt 0             @ ../../../Library/StdDriver/src/crypto.c:1134:20
	ldr	r2, __arm_cp.25_4
	str	r5, [r2]
	.loc	3 1135 23 is_stmt 1             @ ../../../Library/StdDriver/src/crypto.c:1135:23
	ldr	r5, [r6, r3]
	.loc	3 1135 45 is_stmt 0             @ ../../../Library/StdDriver/src/crypto.c:1135:45
	ldr	r7, [r0, r7]
	.loc	3 1135 53                       @ ../../../Library/StdDriver/src/crypto.c:1135:53
	lsls	r7, r7, #22
	.loc	3 1135 23                       @ ../../../Library/StdDriver/src/crypto.c:1135:23
	orrs	r7, r5
	movs	r5, #1
	orrs	r5, r7
	str	r5, [r6, r3]
.Ltmp287:
.LBB25_12:                              @ =>This Inner Loop Header: Depth=1
	@DEBUG_VALUE: ECC_GenerateSecretZ:crpt <- $r6
	@DEBUG_VALUE: ECC_GenerateSecretZ:public_k2 <- [DW_OP_plus_uconst 40] [$sp+0]
	@DEBUG_VALUE: ECC_GenerateSecretZ:secret_z <- [DW_OP_plus_uconst 44] [$sp+0]
	.loc	3 1140 22 is_stmt 1             @ ../../../Library/StdDriver/src/crypto.c:1140:22
	ldr	r3, [r2]
.Ltmp288:
	@DEBUG_VALUE: ECC_GenerateSecretZ:u32Tmp <- $r3
	.loc	3 1141 23                       @ ../../../Library/StdDriver/src/crypto.c:1141:23
	ldr	r5, [r1]
	.loc	3 1141 20 is_stmt 0             @ ../../../Library/StdDriver/src/crypto.c:1141:20
	orrs	r5, r3
.Ltmp289:
	@DEBUG_VALUE: ECC_GenerateSecretZ:u32Tmp <- $r5
	.loc	3 1142 9 is_stmt 1              @ ../../../Library/StdDriver/src/crypto.c:1142:9
	beq	.LBB25_12
.Ltmp290:
@ %bb.13:
	@DEBUG_VALUE: ECC_GenerateSecretZ:crpt <- $r6
	@DEBUG_VALUE: ECC_GenerateSecretZ:u32Tmp <- $r5
	@DEBUG_VALUE: ECC_GenerateSecretZ:public_k2 <- [DW_OP_plus_uconst 40] [$sp+0]
	@DEBUG_VALUE: ECC_GenerateSecretZ:secret_z <- [DW_OP_plus_uconst 44] [$sp+0]
	.loc	3 1145 25                       @ ../../../Library/StdDriver/src/crypto.c:1145:25
	ldr	r0, [r0, #4]
	.loc	3 1145 9 is_stmt 0              @ ../../../Library/StdDriver/src/crypto.c:1145:9
	mov	r1, r4
	ldr	r2, [sp, #16]                   @ 4-byte Reload
	bl	Reg2Hex
	ldr	r0, [sp, #4]                    @ 4-byte Reload
.Ltmp291:
	.loc	3 1093 8 is_stmt 1              @ ../../../Library/StdDriver/src/crypto.c:1093:8
	cmp	r0, #0
	beq	.LBB25_2
.Ltmp292:
.LBB25_14:
	@DEBUG_VALUE: ECC_GenerateSecretZ:crpt <- $r6
	@DEBUG_VALUE: ECC_GenerateSecretZ:public_k2 <- [DW_OP_plus_uconst 40] [$sp+0]
	@DEBUG_VALUE: ECC_GenerateSecretZ:secret_z <- [DW_OP_plus_uconst 44] [$sp+0]
	.loc	3 0 8 is_stmt 0                 @ ../../../Library/StdDriver/src/crypto.c:0:8
	movs	r0, #0
	mvns	r0, r0
.Ltmp293:
	@DEBUG_VALUE: ECC_GenerateSecretZ:ret <- $r0
	.loc	3 1148 5 is_stmt 1              @ ../../../Library/StdDriver/src/crypto.c:1148:5
	add	sp, #20
.Ltmp294:
	pop	{r4, r5, r6, r7, pc}
.Ltmp295:
.LBB25_15:
	@DEBUG_VALUE: ECC_GenerateSecretZ:public_k1 <- [DW_OP_plus_uconst 12] [$sp+0]
	@DEBUG_VALUE: ECC_GenerateSecretZ:ecc_curve <- $r7
	@DEBUG_VALUE: ECC_GenerateSecretZ:crpt <- $r6
	@DEBUG_VALUE: ECC_GenerateSecretZ:private_k <- $r4
	@DEBUG_VALUE: ECC_GenerateSecretZ:public_k2 <- [DW_OP_plus_uconst 40] [$sp+0]
	@DEBUG_VALUE: ECC_GenerateSecretZ:secret_z <- [DW_OP_plus_uconst 44] [$sp+0]
	.loc	3 0 5 is_stmt 0                 @ ../../../Library/StdDriver/src/crypto.c:0:5
	movw	r1, #2560
.Ltmp296:
	.loc	3 1119 32 is_stmt 1             @ ../../../Library/StdDriver/src/crypto.c:1119:32
	adds	r1, r6, r1
	.loc	3 1119 13 is_stmt 0             @ ../../../Library/StdDriver/src/crypto.c:1119:13
	mov	r0, r4
	bl	Hex2Reg
	b	.LBB25_11
.Ltmp297:
	.p2align	2
@ %bb.16:
	.loc	3 0 13                          @ ../../../Library/StdDriver/src/crypto.c:0:13
__arm_cp.25_0:
	.long	2056                            @ 0x808
.Lcpi_end17:
	.size	__arm_cp.25_0, .Lcpi_end17-__arm_cp.25_0
__arm_cp.25_1:
	.long	31776                           @ 0x7c20
.Lcpi_end18:
	.size	__arm_cp.25_1, .Lcpi_end18-__arm_cp.25_1
__arm_cp.25_2:
	.long	pCurve
.Lcpi_end19:
	.size	__arm_cp.25_2, .Lcpi_end19-__arm_cp.25_2
__arm_cp.25_3:
	.long	g_ECCERR_done
.Lcpi_end20:
	.size	__arm_cp.25_3, .Lcpi_end20-__arm_cp.25_3
__arm_cp.25_4:
	.long	g_ECC_done
.Lcpi_end21:
	.size	__arm_cp.25_4, .Lcpi_end21-__arm_cp.25_4
.Lfunc_end25:
	.size	ECC_GenerateSecretZ, .Lfunc_end25-ECC_GenerateSecretZ
	.cfi_endproc
	.cantunwind
	.fnend
                                        @ -- End function
	.section	.text.Hex2RegEx,"ax",%progbits
	.p2align	1                               @ -- Begin function Hex2RegEx
	.type	Hex2RegEx,%function
	.code	16                              @ @Hex2RegEx
	.thumb_func
Hex2RegEx:
.Lfunc_begin26:
	.loc	3 837 0 is_stmt 1               @ ../../../Library/StdDriver/src/crypto.c:837:0
	.fnstart
	.cfi_startproc
@ %bb.0:
	@DEBUG_VALUE: Hex2RegEx:input <- $r0
	@DEBUG_VALUE: Hex2RegEx:reg <- $r1
	@DEBUG_VALUE: Hex2RegEx:shift <- $r2
	.save	{r4, r5, r6, r7, lr}
	push	{r4, r5, r6, r7, lr}
	.cfi_def_cfa_offset 20
	.cfi_offset lr, -4
	.cfi_offset r7, -8
	.cfi_offset r6, -12
	.cfi_offset r5, -16
	.cfi_offset r4, -20
	.pad	#28
	sub	sp, #28
	.cfi_def_cfa_offset 48
	mov	r4, r2
	str	r1, [sp, #8]                    @ 4-byte Spill
	mov	r5, r0
.Ltmp298:
	@DEBUG_VALUE: Hex2RegEx:shift <- $r4
	@DEBUG_VALUE: Hex2RegEx:reg <- [DW_OP_plus_uconst 8] [$sp+0]
	@DEBUG_VALUE: Hex2RegEx:input <- $r5
	.loc	3 842 15 prologue_end           @ ../../../Library/StdDriver/src/crypto.c:842:15
	bl	strlen
.Ltmp299:
	@DEBUG_VALUE: Hex2RegEx:carry <- 0
	@DEBUG_VALUE: Hex2RegEx:ri <- 0
	@DEBUG_VALUE: Hex2RegEx:si <- [DW_OP_constu 1, DW_OP_minus, DW_OP_stack_value] $r0
	.loc	3 845 5                         @ ../../../Library/StdDriver/src/crypto.c:845:5
	cmp	r0, #1
	blt	.LBB26_9
.Ltmp300:
@ %bb.1:
	@DEBUG_VALUE: Hex2RegEx:input <- $r5
	@DEBUG_VALUE: Hex2RegEx:shift <- $r4
	@DEBUG_VALUE: Hex2RegEx:si <- [DW_OP_constu 1, DW_OP_minus, DW_OP_stack_value] $r0
	@DEBUG_VALUE: Hex2RegEx:reg <- [DW_OP_plus_uconst 8] [$sp+0]
	@DEBUG_VALUE: Hex2RegEx:ri <- 0
	@DEBUG_VALUE: Hex2RegEx:carry <- 0
	.loc	3 0 5 is_stmt 0                 @ ../../../Library/StdDriver/src/crypto.c:0:5
	str	r5, [sp, #16]                   @ 4-byte Spill
.Ltmp301:
	@DEBUG_VALUE: Hex2RegEx:input <- [DW_OP_plus_uconst 16] [$sp+0]
	str	r4, [sp, #20]                   @ 4-byte Spill
.Ltmp302:
	@DEBUG_VALUE: Hex2RegEx:shift <- [DW_OP_plus_uconst 20] [$sp+0]
	.loc	3 842 29 is_stmt 1              @ ../../../Library/StdDriver/src/crypto.c:842:29
	subs	r4, r0, #1
.Ltmp303:
	@DEBUG_VALUE: Hex2RegEx:si <- $r4
	.loc	3 0 29 is_stmt 0                @ ../../../Library/StdDriver/src/crypto.c:0:29
	movs	r7, #0
	mov	r2, r7
	str	r7, [sp, #4]                    @ 4-byte Spill
	b	.LBB26_4
.Ltmp304:
.LBB26_2:                               @   in Loop: Header=BB26_4 Depth=1
	@DEBUG_VALUE: Hex2RegEx:ri <- [DW_OP_plus_uconst 12] [$sp+0]
	@DEBUG_VALUE: Hex2RegEx:carry <- $r7
	@DEBUG_VALUE: Hex2RegEx:si <- $r4
	@DEBUG_VALUE: Hex2RegEx:reg <- [DW_OP_plus_uconst 8] [$sp+0]
	@DEBUG_VALUE: Hex2RegEx:i <- 0
	@DEBUG_VALUE: Hex2RegEx:val32 <- 0
	ldr	r6, [sp, #4]                    @ 4-byte Reload
.Ltmp305:
.LBB26_3:                               @   in Loop: Header=BB26_4 Depth=1
	@DEBUG_VALUE: Hex2RegEx:ri <- [DW_OP_plus_uconst 12] [$sp+0]
	@DEBUG_VALUE: Hex2RegEx:carry <- $r7
	@DEBUG_VALUE: Hex2RegEx:si <- $r4
	@DEBUG_VALUE: Hex2RegEx:reg <- [DW_OP_plus_uconst 8] [$sp+0]
	@DEBUG_VALUE: Hex2RegEx:si <- $r4
	@DEBUG_VALUE: Hex2RegEx:carry <- $r7
	@DEBUG_VALUE: Hex2RegEx:val32 <- $r6
	ldr	r2, [sp, #12]                   @ 4-byte Reload
.Ltmp306:
	@DEBUG_VALUE: Hex2RegEx:ri <- $r2
	.loc	3 857 9 is_stmt 1               @ ../../../Library/StdDriver/src/crypto.c:857:9
	lsls	r0, r2, #2
	.loc	3 857 19 is_stmt 0              @ ../../../Library/StdDriver/src/crypto.c:857:19
	ldr	r1, [sp, #8]                    @ 4-byte Reload
	str	r6, [r1, r0]
	.loc	3 857 15                        @ ../../../Library/StdDriver/src/crypto.c:857:15
	adds	r2, r2, #1
.Ltmp307:
	@DEBUG_VALUE: Hex2RegEx:ri <- $r2
	.loc	3 845 5 is_stmt 1               @ ../../../Library/StdDriver/src/crypto.c:845:5
	cmp	r4, #0
	bmi	.LBB26_10
.Ltmp308:
.LBB26_4:                               @ =>This Loop Header: Depth=1
                                        @     Child Loop BB26_8 Depth 2
	@DEBUG_VALUE: Hex2RegEx:si <- $r4
	@DEBUG_VALUE: Hex2RegEx:reg <- [DW_OP_plus_uconst 8] [$sp+0]
	@DEBUG_VALUE: Hex2RegEx:si <- $r4
	@DEBUG_VALUE: Hex2RegEx:ri <- $r2
	@DEBUG_VALUE: Hex2RegEx:carry <- $r7
	@DEBUG_VALUE: Hex2RegEx:val32 <- 0
	@DEBUG_VALUE: Hex2RegEx:i <- 0
	.loc	3 848 9                         @ ../../../Library/StdDriver/src/crypto.c:848:9
	cmp	r4, #0
	str	r2, [sp, #12]                   @ 4-byte Spill
.Ltmp309:
	@DEBUG_VALUE: Hex2RegEx:ri <- [DW_OP_plus_uconst 12] [$sp+0]
	@DEBUG_VALUE: Hex2RegEx:ri <- [DW_OP_plus_uconst 12] [$sp+0]
	bmi	.LBB26_2
.Ltmp310:
@ %bb.5:                                @   in Loop: Header=BB26_4 Depth=1
	@DEBUG_VALUE: Hex2RegEx:ri <- [DW_OP_plus_uconst 12] [$sp+0]
	@DEBUG_VALUE: Hex2RegEx:carry <- $r7
	@DEBUG_VALUE: Hex2RegEx:si <- $r4
	@DEBUG_VALUE: Hex2RegEx:reg <- [DW_OP_plus_uconst 8] [$sp+0]
	@DEBUG_VALUE: Hex2RegEx:i <- 0
	@DEBUG_VALUE: Hex2RegEx:val32 <- 0
	cmp	r4, #7
	mov	r0, r4
	blo	.LBB26_7
.Ltmp311:
@ %bb.6:                                @   in Loop: Header=BB26_4 Depth=1
	@DEBUG_VALUE: Hex2RegEx:ri <- [DW_OP_plus_uconst 12] [$sp+0]
	@DEBUG_VALUE: Hex2RegEx:carry <- $r7
	@DEBUG_VALUE: Hex2RegEx:si <- $r4
	@DEBUG_VALUE: Hex2RegEx:reg <- [DW_OP_plus_uconst 8] [$sp+0]
	@DEBUG_VALUE: Hex2RegEx:i <- 0
	@DEBUG_VALUE: Hex2RegEx:val32 <- 0
	.loc	3 0 9 is_stmt 0                 @ ../../../Library/StdDriver/src/crypto.c:0:9
	movs	r0, #7
.Ltmp312:
.LBB26_7:                               @   in Loop: Header=BB26_4 Depth=1
	@DEBUG_VALUE: Hex2RegEx:ri <- [DW_OP_plus_uconst 12] [$sp+0]
	@DEBUG_VALUE: Hex2RegEx:carry <- $r7
	@DEBUG_VALUE: Hex2RegEx:si <- $r4
	@DEBUG_VALUE: Hex2RegEx:reg <- [DW_OP_plus_uconst 8] [$sp+0]
	@DEBUG_VALUE: Hex2RegEx:i <- 0
	@DEBUG_VALUE: Hex2RegEx:val32 <- 0
	.loc	3 848 9                         @ ../../../Library/StdDriver/src/crypto.c:848:9
	lsls	r0, r0, #2
	adds	r0, r0, #4
	str	r0, [sp, #24]                   @ 4-byte Spill
	movs	r5, #0
	mov	r6, r5
.Ltmp313:
.LBB26_8:                               @   Parent Loop BB26_4 Depth=1
                                        @ =>  This Inner Loop Header: Depth=2
	@DEBUG_VALUE: Hex2RegEx:ri <- [DW_OP_plus_uconst 12] [$sp+0]
	@DEBUG_VALUE: Hex2RegEx:carry <- $r7
	@DEBUG_VALUE: Hex2RegEx:si <- $r4
	@DEBUG_VALUE: Hex2RegEx:reg <- [DW_OP_plus_uconst 8] [$sp+0]
	@DEBUG_VALUE: Hex2RegEx:si <- $r4
	@DEBUG_VALUE: Hex2RegEx:carry <- $r7
	@DEBUG_VALUE: Hex2RegEx:val32 <- $r6
	@DEBUG_VALUE: Hex2RegEx:i <- undef
	.loc	3 850 36 is_stmt 1              @ ../../../Library/StdDriver/src/crypto.c:850:36
	ldr	r0, [sp, #16]                   @ 4-byte Reload
.Ltmp314:
	@DEBUG_VALUE: Hex2RegEx:input <- $r0
	ldrb	r0, [r0, r4]
.Ltmp315:
	.loc	3 850 29 is_stmt 0              @ ../../../Library/StdDriver/src/crypto.c:850:29
	bl	ch2hex
.Ltmp316:
	@DEBUG_VALUE: Hex2RegEx:hex <- $r0
	.loc	3 851 17 is_stmt 1              @ ../../../Library/StdDriver/src/crypto.c:851:17
	ldr	r1, [sp, #20]                   @ 4-byte Reload
.Ltmp317:
	@DEBUG_VALUE: Hex2RegEx:shift <- $r1
	lsls	r0, r1
.Ltmp318:
	@DEBUG_VALUE: Hex2RegEx:hex <- $r0
	.loc	3 0 17 is_stmt 0                @ ../../../Library/StdDriver/src/crypto.c:0:17
	movs	r1, #15
.Ltmp319:
	.loc	3 853 38 is_stmt 1              @ ../../../Library/StdDriver/src/crypto.c:853:38
	ands	r1, r0
	.loc	3 853 46 is_stmt 0              @ ../../../Library/StdDriver/src/crypto.c:853:46
	orrs	r1, r7
	.loc	3 853 55                        @ ../../../Library/StdDriver/src/crypto.c:853:55
	lsls	r1, r5
	.loc	3 853 19                        @ ../../../Library/StdDriver/src/crypto.c:853:19
	orrs	r6, r1
.Ltmp320:
	@DEBUG_VALUE: Hex2RegEx:val32 <- $r6
	.loc	3 854 32 is_stmt 1              @ ../../../Library/StdDriver/src/crypto.c:854:32
	lsls	r0, r0, #24
.Ltmp321:
	lsrs	r7, r0, #28
.Ltmp322:
	@DEBUG_VALUE: Hex2RegEx:i <- [DW_OP_plus_uconst 1, DW_OP_stack_value] undef
	@DEBUG_VALUE: Hex2RegEx:carry <- $r7
	.loc	3 848 32                        @ ../../../Library/StdDriver/src/crypto.c:848:32
	adds	r5, r5, #4
.Ltmp323:
	.loc	3 855 15                        @ ../../../Library/StdDriver/src/crypto.c:855:15
	subs	r4, r4, #1
.Ltmp324:
	@DEBUG_VALUE: Hex2RegEx:si <- $r4
	.loc	3 848 9                         @ ../../../Library/StdDriver/src/crypto.c:848:9
	ldr	r0, [sp, #24]                   @ 4-byte Reload
	cmp	r0, r5
	bne	.LBB26_8
	b	.LBB26_3
.Ltmp325:
.LBB26_9:
	@DEBUG_VALUE: Hex2RegEx:input <- $r5
	@DEBUG_VALUE: Hex2RegEx:shift <- $r4
	@DEBUG_VALUE: Hex2RegEx:si <- [DW_OP_constu 1, DW_OP_minus, DW_OP_stack_value] $r0
	@DEBUG_VALUE: Hex2RegEx:reg <- [DW_OP_plus_uconst 8] [$sp+0]
	@DEBUG_VALUE: Hex2RegEx:ri <- 0
	@DEBUG_VALUE: Hex2RegEx:carry <- 0
	.loc	3 0 9 is_stmt 0                 @ ../../../Library/StdDriver/src/crypto.c:0:9
	movs	r7, #0
	mov	r2, r7
.Ltmp326:
.LBB26_10:
	@DEBUG_VALUE: Hex2RegEx:reg <- [DW_OP_plus_uconst 8] [$sp+0]
	@DEBUG_VALUE: Hex2RegEx:ri <- $r2
	@DEBUG_VALUE: Hex2RegEx:carry <- $r7
	.loc	3 859 8 is_stmt 1               @ ../../../Library/StdDriver/src/crypto.c:859:8
	cbz	r7, .LBB26_12
.Ltmp327:
@ %bb.11:
	@DEBUG_VALUE: Hex2RegEx:carry <- $r7
	@DEBUG_VALUE: Hex2RegEx:ri <- $r2
	@DEBUG_VALUE: Hex2RegEx:reg <- [DW_OP_plus_uconst 8] [$sp+0]
	.loc	3 861 9                         @ ../../../Library/StdDriver/src/crypto.c:861:9
	lsls	r0, r2, #2
	.loc	3 861 17 is_stmt 0              @ ../../../Library/StdDriver/src/crypto.c:861:17
	ldr	r1, [sp, #8]                    @ 4-byte Reload
	str	r7, [r1, r0]
.Ltmp328:
.LBB26_12:
	@DEBUG_VALUE: Hex2RegEx:carry <- $r7
	@DEBUG_VALUE: Hex2RegEx:ri <- $r2
	@DEBUG_VALUE: Hex2RegEx:reg <- [DW_OP_plus_uconst 8] [$sp+0]
	.loc	3 863 1 is_stmt 1               @ ../../../Library/StdDriver/src/crypto.c:863:1
	add	sp, #28
.Ltmp329:
	pop	{r4, r5, r6, r7, pc}
.Ltmp330:
.Lfunc_end26:
	.size	Hex2RegEx, .Lfunc_end26-Hex2RegEx
	.cfi_endproc
	.cantunwind
	.fnend
                                        @ -- End function
	.section	.text.ECC_GenerateSignature,"ax",%progbits
	.hidden	ECC_GenerateSignature           @ -- Begin function ECC_GenerateSignature
	.globl	ECC_GenerateSignature
	.p2align	2
	.type	ECC_GenerateSignature,%function
	.code	16                              @ @ECC_GenerateSignature
	.thumb_func
ECC_GenerateSignature:
.Lfunc_begin27:
	.loc	3 1200 0                        @ ../../../Library/StdDriver/src/crypto.c:1200:0
	.fnstart
	.cfi_startproc
@ %bb.0:
	@DEBUG_VALUE: ECC_GenerateSignature:crpt <- $r0
	@DEBUG_VALUE: ECC_GenerateSignature:ecc_curve <- $r1
	@DEBUG_VALUE: ECC_GenerateSignature:message <- $r2
	@DEBUG_VALUE: ECC_GenerateSignature:d <- $r3
	.save	{r4, r5, r6, r7, lr}
	push	{r4, r5, r6, r7, lr}
	.cfi_def_cfa_offset 20
	.cfi_offset lr, -4
	.cfi_offset r7, -8
	.cfi_offset r6, -12
	.cfi_offset r5, -16
	.cfi_offset r4, -20
	.pad	#180
	sub	sp, #180
	.cfi_def_cfa_offset 200
	mov	r6, r3
	mov	r5, r2
	mov	r4, r0
.Ltmp331:
	@DEBUG_VALUE: ECC_GenerateSignature:ret <- 0
	@DEBUG_VALUE: ECC_GenerateSignature:S <- [DW_OP_plus_uconst 208] [$sp+0]
	@DEBUG_VALUE: ECC_GenerateSignature:R <- [DW_OP_plus_uconst 204] [$sp+0]
	@DEBUG_VALUE: ECC_GenerateSignature:k <- [DW_OP_plus_uconst 200] [$sp+0]
	@DEBUG_VALUE: ECC_GenerateSignature:d <- $r6
	@DEBUG_VALUE: ECC_GenerateSignature:message <- $r5
	@DEBUG_VALUE: ECC_GenerateSignature:ecc_curve <- $r1
	@DEBUG_VALUE: ECC_GenerateSignature:crpt <- $r4
	@DEBUG_VALUE: ECC_GenerateSignature:ecc_curve <- $r1
	.loc	3 1204 8 prologue_end           @ ../../../Library/StdDriver/src/crypto.c:1204:8
	bl	ecc_init_curve
.Ltmp332:
	@DEBUG_VALUE: ECC_GenerateSignature:ecc_curve <- [DW_OP_LLVM_entry_value 1] $r1
	@DEBUG_VALUE: ECC_GenerateSignature:ret <- undef
	.loc	3 1209 8                        @ ../../../Library/StdDriver/src/crypto.c:1209:8
	cbz	r0, .LBB27_3
.Ltmp333:
@ %bb.1:
	@DEBUG_VALUE: ECC_GenerateSignature:d <- $r6
	@DEBUG_VALUE: ECC_GenerateSignature:message <- $r5
	@DEBUG_VALUE: ECC_GenerateSignature:crpt <- $r4
	@DEBUG_VALUE: ECC_GenerateSignature:k <- [DW_OP_plus_uconst 200] [$sp+0]
	@DEBUG_VALUE: ECC_GenerateSignature:R <- [DW_OP_plus_uconst 204] [$sp+0]
	@DEBUG_VALUE: ECC_GenerateSignature:S <- [DW_OP_plus_uconst 208] [$sp+0]
	@DEBUG_VALUE: ECC_GenerateSignature:ecc_curve <- [DW_OP_LLVM_entry_value 1] $r1
	.loc	3 1204 8                        @ ../../../Library/StdDriver/src/crypto.c:1204:8
	cmp	r0, #0
	beq	.LBB27_2
	b	.LBB27_36
.Ltmp334:
.LBB27_2:
	@DEBUG_VALUE: ECC_GenerateSignature:k <- [DW_OP_plus_uconst 200] [$sp+0]
	@DEBUG_VALUE: ECC_GenerateSignature:R <- [DW_OP_plus_uconst 204] [$sp+0]
	@DEBUG_VALUE: ECC_GenerateSignature:S <- [DW_OP_plus_uconst 208] [$sp+0]
	@DEBUG_VALUE: ECC_GenerateSignature:ecc_curve <- [DW_OP_LLVM_entry_value 1] $r1
	@DEBUG_VALUE: ECC_GenerateSignature:ret <- $r0
	.loc	3 1418 5                        @ ../../../Library/StdDriver/src/crypto.c:1418:5
	add	sp, #180
.Ltmp335:
	pop	{r4, r5, r6, r7, pc}
.Ltmp336:
.LBB27_3:
	@DEBUG_VALUE: ECC_GenerateSignature:d <- $r6
	@DEBUG_VALUE: ECC_GenerateSignature:message <- $r5
	@DEBUG_VALUE: ECC_GenerateSignature:crpt <- $r4
	@DEBUG_VALUE: ECC_GenerateSignature:k <- [DW_OP_plus_uconst 200] [$sp+0]
	@DEBUG_VALUE: ECC_GenerateSignature:R <- [DW_OP_plus_uconst 204] [$sp+0]
	@DEBUG_VALUE: ECC_GenerateSignature:S <- [DW_OP_plus_uconst 208] [$sp+0]
	@DEBUG_VALUE: ECC_GenerateSignature:ecc_curve <- [DW_OP_LLVM_entry_value 1] $r1
	.loc	3 0 5 is_stmt 0                 @ ../../../Library/StdDriver/src/crypto.c:0:5
	str	r6, [sp, #12]                   @ 4-byte Spill
.Ltmp337:
	@DEBUG_VALUE: ECC_GenerateSignature:d <- [DW_OP_plus_uconst 12] [$sp+0]
	str	r5, [sp, #16]                   @ 4-byte Spill
.Ltmp338:
	@DEBUG_VALUE: ECC_GenerateSignature:message <- [DW_OP_plus_uconst 16] [$sp+0]
	str	r0, [sp, #24]                   @ 4-byte Spill
	ldr	r0, [sp, #208]
	str	r0, [sp, #20]                   @ 4-byte Spill
	ldr	r0, [sp, #204]
	str	r0, [sp, #28]                   @ 4-byte Spill
	ldr	r0, [sp, #200]
	movw	r1, #2560
.Ltmp339:
	.loc	3 1241 9 is_stmt 1              @ ../../../Library/StdDriver/src/crypto.c:1241:9
	adds	r3, r4, r1
	movs	r1, #71
	mvns	r6, r1
	mov	r1, r6
.Ltmp340:
.LBB27_4:                               @ =>This Inner Loop Header: Depth=1
	@DEBUG_VALUE: ECC_GenerateSignature:message <- [DW_OP_plus_uconst 16] [$sp+0]
	@DEBUG_VALUE: ECC_GenerateSignature:d <- [DW_OP_plus_uconst 12] [$sp+0]
	@DEBUG_VALUE: ECC_GenerateSignature:crpt <- $r4
	@DEBUG_VALUE: ECC_GenerateSignature:k <- [DW_OP_plus_uconst 200] [$sp+0]
	@DEBUG_VALUE: ECC_GenerateSignature:R <- [DW_OP_plus_uconst 204] [$sp+0]
	@DEBUG_VALUE: ECC_GenerateSignature:S <- [DW_OP_plus_uconst 208] [$sp+0]
	@DEBUG_VALUE: ECC_GenerateSignature:ecc_curve <- [DW_OP_LLVM_entry_value 1] $r1
	@DEBUG_VALUE: ECC_GenerateSignature:i <- undef
	.loc	3 1243 28                       @ ../../../Library/StdDriver/src/crypto.c:1243:28
	adds	r2, r3, r1
	movs	r5, #0
	str	r5, [r2, #72]
.Ltmp341:
	@DEBUG_VALUE: ECC_GenerateSignature:i <- [DW_OP_plus_uconst 1, DW_OP_stack_value] undef
	.loc	3 1241 22                       @ ../../../Library/StdDriver/src/crypto.c:1241:22
	adds	r1, r1, #4
.Ltmp342:
	.loc	3 1241 9 is_stmt 0              @ ../../../Library/StdDriver/src/crypto.c:1241:9
	bne	.LBB27_4
.Ltmp343:
@ %bb.5:
	@DEBUG_VALUE: ECC_GenerateSignature:message <- [DW_OP_plus_uconst 16] [$sp+0]
	@DEBUG_VALUE: ECC_GenerateSignature:d <- [DW_OP_plus_uconst 12] [$sp+0]
	@DEBUG_VALUE: ECC_GenerateSignature:crpt <- $r4
	@DEBUG_VALUE: ECC_GenerateSignature:k <- [DW_OP_plus_uconst 200] [$sp+0]
	@DEBUG_VALUE: ECC_GenerateSignature:R <- [DW_OP_plus_uconst 204] [$sp+0]
	@DEBUG_VALUE: ECC_GenerateSignature:S <- [DW_OP_plus_uconst 208] [$sp+0]
	@DEBUG_VALUE: ECC_GenerateSignature:ecc_curve <- [DW_OP_LLVM_entry_value 1] $r1
	.loc	3 0 9                           @ ../../../Library/StdDriver/src/crypto.c:0:9
	movw	r1, #2560
	.loc	3 1245 20 is_stmt 1             @ ../../../Library/StdDriver/src/crypto.c:1245:20
	adds	r1, r4, r1
	str	r0, [sp, #8]                    @ 4-byte Spill
	.loc	3 1245 9 is_stmt 0              @ ../../../Library/StdDriver/src/crypto.c:1245:9
	bl	Hex2Reg
	.loc	3 1247 9 is_stmt 1              @ ../../../Library/StdDriver/src/crypto.c:1247:9
	mov	r0, r4
	mov	r1, r5
	bl	run_ecc_codec
	ldr	r0, __arm_cp.27_0
.Ltmp344:
	@DEBUG_VALUE: ECC_GenerateSignature:i <- 0
	.loc	3 1250 9                        @ ../../../Library/StdDriver/src/crypto.c:1250:9
	adds	r7, r4, r0
	mov	r0, r6
.Ltmp345:
.LBB27_6:                               @ =>This Inner Loop Header: Depth=1
	@DEBUG_VALUE: ECC_GenerateSignature:message <- [DW_OP_plus_uconst 16] [$sp+0]
	@DEBUG_VALUE: ECC_GenerateSignature:d <- [DW_OP_plus_uconst 12] [$sp+0]
	@DEBUG_VALUE: ECC_GenerateSignature:crpt <- $r4
	@DEBUG_VALUE: ECC_GenerateSignature:k <- [DW_OP_plus_uconst 200] [$sp+0]
	@DEBUG_VALUE: ECC_GenerateSignature:R <- [DW_OP_plus_uconst 204] [$sp+0]
	@DEBUG_VALUE: ECC_GenerateSignature:S <- [DW_OP_plus_uconst 208] [$sp+0]
	@DEBUG_VALUE: ECC_GenerateSignature:ecc_curve <- [DW_OP_LLVM_entry_value 1] $r1
	@DEBUG_VALUE: ECC_GenerateSignature:i <- undef
	.loc	3 1252 28                       @ ../../../Library/StdDriver/src/crypto.c:1252:28
	adds	r1, r7, r0
	str	r5, [r1, #72]
.Ltmp346:
	@DEBUG_VALUE: ECC_GenerateSignature:i <- [DW_OP_plus_uconst 1, DW_OP_stack_value] undef
	.loc	3 1250 22                       @ ../../../Library/StdDriver/src/crypto.c:1250:22
	adds	r0, r0, #4
.Ltmp347:
	.loc	3 1250 9 is_stmt 0              @ ../../../Library/StdDriver/src/crypto.c:1250:9
	bne	.LBB27_6
.Ltmp348:
@ %bb.7:
	@DEBUG_VALUE: ECC_GenerateSignature:message <- [DW_OP_plus_uconst 16] [$sp+0]
	@DEBUG_VALUE: ECC_GenerateSignature:d <- [DW_OP_plus_uconst 12] [$sp+0]
	@DEBUG_VALUE: ECC_GenerateSignature:crpt <- $r4
	@DEBUG_VALUE: ECC_GenerateSignature:k <- [DW_OP_plus_uconst 200] [$sp+0]
	@DEBUG_VALUE: ECC_GenerateSignature:R <- [DW_OP_plus_uconst 204] [$sp+0]
	@DEBUG_VALUE: ECC_GenerateSignature:S <- [DW_OP_plus_uconst 208] [$sp+0]
	@DEBUG_VALUE: ECC_GenerateSignature:ecc_curve <- [DW_OP_LLVM_entry_value 1] $r1
	.loc	3 1254 17 is_stmt 1             @ ../../../Library/StdDriver/src/crypto.c:1254:17
	ldr	r0, __arm_cp.27_1
	ldr	r0, [r0]
	movw	r1, #768
	adds	r0, r0, r1
	.loc	3 1254 9 is_stmt 0              @ ../../../Library/StdDriver/src/crypto.c:1254:9
	mov	r1, r7
	bl	Hex2Reg
	movw	r0, #2128
.Ltmp349:
	@DEBUG_VALUE: ECC_GenerateSignature:i <- 0
	.loc	3 1257 9 is_stmt 1              @ ../../../Library/StdDriver/src/crypto.c:1257:9
	adds	r0, r4, r0
	mov	r1, r6
.Ltmp350:
.LBB27_8:                               @ =>This Inner Loop Header: Depth=1
	@DEBUG_VALUE: ECC_GenerateSignature:message <- [DW_OP_plus_uconst 16] [$sp+0]
	@DEBUG_VALUE: ECC_GenerateSignature:d <- [DW_OP_plus_uconst 12] [$sp+0]
	@DEBUG_VALUE: ECC_GenerateSignature:crpt <- $r4
	@DEBUG_VALUE: ECC_GenerateSignature:k <- [DW_OP_plus_uconst 200] [$sp+0]
	@DEBUG_VALUE: ECC_GenerateSignature:R <- [DW_OP_plus_uconst 204] [$sp+0]
	@DEBUG_VALUE: ECC_GenerateSignature:S <- [DW_OP_plus_uconst 208] [$sp+0]
	@DEBUG_VALUE: ECC_GenerateSignature:ecc_curve <- [DW_OP_LLVM_entry_value 1] $r1
	@DEBUG_VALUE: ECC_GenerateSignature:i <- undef
	.loc	3 1259 29                       @ ../../../Library/StdDriver/src/crypto.c:1259:29
	adds	r2, r0, r1
	str	r5, [r2, #72]
.Ltmp351:
	@DEBUG_VALUE: ECC_GenerateSignature:i <- [DW_OP_plus_uconst 1, DW_OP_stack_value] undef
	.loc	3 1257 22                       @ ../../../Library/StdDriver/src/crypto.c:1257:22
	adds	r1, r1, #4
.Ltmp352:
	.loc	3 1257 9 is_stmt 0              @ ../../../Library/StdDriver/src/crypto.c:1257:9
	bne	.LBB27_8
.Ltmp353:
@ %bb.9:
	@DEBUG_VALUE: ECC_GenerateSignature:message <- [DW_OP_plus_uconst 16] [$sp+0]
	@DEBUG_VALUE: ECC_GenerateSignature:d <- [DW_OP_plus_uconst 12] [$sp+0]
	@DEBUG_VALUE: ECC_GenerateSignature:crpt <- $r4
	@DEBUG_VALUE: ECC_GenerateSignature:k <- [DW_OP_plus_uconst 200] [$sp+0]
	@DEBUG_VALUE: ECC_GenerateSignature:R <- [DW_OP_plus_uconst 204] [$sp+0]
	@DEBUG_VALUE: ECC_GenerateSignature:S <- [DW_OP_plus_uconst 208] [$sp+0]
	@DEBUG_VALUE: ECC_GenerateSignature:ecc_curve <- [DW_OP_LLVM_entry_value 1] $r1
	.loc	3 1262 9 is_stmt 1              @ ../../../Library/StdDriver/src/crypto.c:1262:9
	mov	r0, r4
	movw	r1, #4608
	bl	run_ecc_codec
	ldr	r0, __arm_cp.27_2
.Ltmp354:
	@DEBUG_VALUE: ECC_GenerateSignature:i <- 0
	.loc	3 0 9 is_stmt 0                 @ ../../../Library/StdDriver/src/crypto.c:0:9
	str	r4, [sp, #32]                   @ 4-byte Spill
.Ltmp355:
	@DEBUG_VALUE: ECC_GenerateSignature:crpt <- [DW_OP_plus_uconst 32] [$sp+0]
	.loc	3 1265 9 is_stmt 1              @ ../../../Library/StdDriver/src/crypto.c:1265:9
	adds	r4, r4, r0
	mov	r0, r6
.Ltmp356:
.LBB27_10:                              @ =>This Inner Loop Header: Depth=1
	@DEBUG_VALUE: ECC_GenerateSignature:crpt <- [DW_OP_plus_uconst 32] [$sp+0]
	@DEBUG_VALUE: ECC_GenerateSignature:message <- [DW_OP_plus_uconst 16] [$sp+0]
	@DEBUG_VALUE: ECC_GenerateSignature:d <- [DW_OP_plus_uconst 12] [$sp+0]
	@DEBUG_VALUE: ECC_GenerateSignature:k <- [DW_OP_plus_uconst 200] [$sp+0]
	@DEBUG_VALUE: ECC_GenerateSignature:R <- [DW_OP_plus_uconst 204] [$sp+0]
	@DEBUG_VALUE: ECC_GenerateSignature:S <- [DW_OP_plus_uconst 208] [$sp+0]
	@DEBUG_VALUE: ECC_GenerateSignature:ecc_curve <- [DW_OP_LLVM_entry_value 1] $r1
	@DEBUG_VALUE: ECC_GenerateSignature:i <- undef
	.loc	3 0 9 is_stmt 0                 @ ../../../Library/StdDriver/src/crypto.c:0:9
	add	r1, sp, #108
.Ltmp357:
	.loc	3 1267 29 is_stmt 1             @ ../../../Library/StdDriver/src/crypto.c:1267:29
	adds	r1, r1, r0
	.loc	3 1267 31 is_stmt 0             @ ../../../Library/StdDriver/src/crypto.c:1267:31
	adds	r2, r4, r0
	ldr	r2, [r2, #72]
	.loc	3 1267 29                       @ ../../../Library/StdDriver/src/crypto.c:1267:29
	str	r2, [r1, #72]
.Ltmp358:
	@DEBUG_VALUE: ECC_GenerateSignature:i <- [DW_OP_plus_uconst 1, DW_OP_stack_value] undef
	.loc	3 1265 22 is_stmt 1             @ ../../../Library/StdDriver/src/crypto.c:1265:22
	adds	r0, r0, #4
.Ltmp359:
	.loc	3 1265 9 is_stmt 0              @ ../../../Library/StdDriver/src/crypto.c:1265:9
	bne	.LBB27_10
.Ltmp360:
@ %bb.11:
	@DEBUG_VALUE: ECC_GenerateSignature:crpt <- [DW_OP_plus_uconst 32] [$sp+0]
	@DEBUG_VALUE: ECC_GenerateSignature:message <- [DW_OP_plus_uconst 16] [$sp+0]
	@DEBUG_VALUE: ECC_GenerateSignature:d <- [DW_OP_plus_uconst 12] [$sp+0]
	@DEBUG_VALUE: ECC_GenerateSignature:k <- [DW_OP_plus_uconst 200] [$sp+0]
	@DEBUG_VALUE: ECC_GenerateSignature:R <- [DW_OP_plus_uconst 204] [$sp+0]
	@DEBUG_VALUE: ECC_GenerateSignature:S <- [DW_OP_plus_uconst 208] [$sp+0]
	@DEBUG_VALUE: ECC_GenerateSignature:ecc_curve <- [DW_OP_LLVM_entry_value 1] $r1
	.loc	3 1270 17 is_stmt 1             @ ../../../Library/StdDriver/src/crypto.c:1270:17
	ldr	r0, __arm_cp.27_1
	ldr	r0, [r0]
	str	r0, [sp, #4]                    @ 4-byte Spill
	.loc	3 1270 25 is_stmt 0             @ ../../../Library/StdDriver/src/crypto.c:1270:25
	ldr	r0, [r0, #4]
	add	r1, sp, #108
	.loc	3 1270 9                        @ ../../../Library/StdDriver/src/crypto.c:1270:9
	ldr	r2, [sp, #28]                   @ 4-byte Reload
	bl	Reg2Hex
.Ltmp361:
	@DEBUG_VALUE: ECC_GenerateSignature:i <- 0
	.loc	3 0 9                           @ ../../../Library/StdDriver/src/crypto.c:0:9
	mov	r0, r6
.Ltmp362:
.LBB27_12:                              @ =>This Inner Loop Header: Depth=1
	@DEBUG_VALUE: ECC_GenerateSignature:crpt <- [DW_OP_plus_uconst 32] [$sp+0]
	@DEBUG_VALUE: ECC_GenerateSignature:message <- [DW_OP_plus_uconst 16] [$sp+0]
	@DEBUG_VALUE: ECC_GenerateSignature:d <- [DW_OP_plus_uconst 12] [$sp+0]
	@DEBUG_VALUE: ECC_GenerateSignature:k <- [DW_OP_plus_uconst 200] [$sp+0]
	@DEBUG_VALUE: ECC_GenerateSignature:R <- [DW_OP_plus_uconst 204] [$sp+0]
	@DEBUG_VALUE: ECC_GenerateSignature:S <- [DW_OP_plus_uconst 208] [$sp+0]
	@DEBUG_VALUE: ECC_GenerateSignature:ecc_curve <- [DW_OP_LLVM_entry_value 1] $r1
	@DEBUG_VALUE: ECC_GenerateSignature:i <- undef
	.loc	3 1308 28 is_stmt 1             @ ../../../Library/StdDriver/src/crypto.c:1308:28
	adds	r1, r7, r0
	str	r5, [r1, #72]
.Ltmp363:
	@DEBUG_VALUE: ECC_GenerateSignature:i <- [DW_OP_plus_uconst 1, DW_OP_stack_value] undef
	.loc	3 1306 22                       @ ../../../Library/StdDriver/src/crypto.c:1306:22
	adds	r0, r0, #4
.Ltmp364:
	.loc	3 1306 9 is_stmt 0              @ ../../../Library/StdDriver/src/crypto.c:1306:9
	bne	.LBB27_12
.Ltmp365:
@ %bb.13:
	@DEBUG_VALUE: ECC_GenerateSignature:crpt <- [DW_OP_plus_uconst 32] [$sp+0]
	@DEBUG_VALUE: ECC_GenerateSignature:message <- [DW_OP_plus_uconst 16] [$sp+0]
	@DEBUG_VALUE: ECC_GenerateSignature:d <- [DW_OP_plus_uconst 12] [$sp+0]
	@DEBUG_VALUE: ECC_GenerateSignature:k <- [DW_OP_plus_uconst 200] [$sp+0]
	@DEBUG_VALUE: ECC_GenerateSignature:R <- [DW_OP_plus_uconst 204] [$sp+0]
	@DEBUG_VALUE: ECC_GenerateSignature:S <- [DW_OP_plus_uconst 208] [$sp+0]
	@DEBUG_VALUE: ECC_GenerateSignature:ecc_curve <- [DW_OP_LLVM_entry_value 1] $r1
	.loc	3 0 9                           @ ../../../Library/StdDriver/src/crypto.c:0:9
	movw	r0, #768
	.loc	3 1310 17 is_stmt 1             @ ../../../Library/StdDriver/src/crypto.c:1310:17
	ldr	r1, [sp, #4]                    @ 4-byte Reload
	adds	r0, r1, r0
	.loc	3 1310 9 is_stmt 0              @ ../../../Library/StdDriver/src/crypto.c:1310:9
	mov	r1, r7
	bl	Hex2Reg
	movw	r0, #2128
.Ltmp366:
	@DEBUG_VALUE: ECC_GenerateSignature:i <- 0
	.loc	3 1313 9 is_stmt 1              @ ../../../Library/StdDriver/src/crypto.c:1313:9
	ldr	r1, [sp, #32]                   @ 4-byte Reload
.Ltmp367:
	@DEBUG_VALUE: ECC_GenerateSignature:crpt <- $r1
	adds	r0, r1, r0
	mov	r1, r6
.Ltmp368:
.LBB27_14:                              @ =>This Inner Loop Header: Depth=1
	@DEBUG_VALUE: ECC_GenerateSignature:message <- [DW_OP_plus_uconst 16] [$sp+0]
	@DEBUG_VALUE: ECC_GenerateSignature:d <- [DW_OP_plus_uconst 12] [$sp+0]
	@DEBUG_VALUE: ECC_GenerateSignature:k <- [DW_OP_plus_uconst 200] [$sp+0]
	@DEBUG_VALUE: ECC_GenerateSignature:R <- [DW_OP_plus_uconst 204] [$sp+0]
	@DEBUG_VALUE: ECC_GenerateSignature:S <- [DW_OP_plus_uconst 208] [$sp+0]
	@DEBUG_VALUE: ECC_GenerateSignature:ecc_curve <- [DW_OP_LLVM_entry_value 1] $r1
	@DEBUG_VALUE: ECC_GenerateSignature:i <- undef
	.loc	3 1315 29                       @ ../../../Library/StdDriver/src/crypto.c:1315:29
	adds	r2, r0, r1
	str	r5, [r2, #72]
.Ltmp369:
	@DEBUG_VALUE: ECC_GenerateSignature:i <- [DW_OP_plus_uconst 1, DW_OP_stack_value] undef
	.loc	3 1313 22                       @ ../../../Library/StdDriver/src/crypto.c:1313:22
	adds	r1, r1, #4
.Ltmp370:
	.loc	3 1313 9 is_stmt 0              @ ../../../Library/StdDriver/src/crypto.c:1313:9
	bne	.LBB27_14
.Ltmp371:
@ %bb.15:
	@DEBUG_VALUE: ECC_GenerateSignature:message <- [DW_OP_plus_uconst 16] [$sp+0]
	@DEBUG_VALUE: ECC_GenerateSignature:d <- [DW_OP_plus_uconst 12] [$sp+0]
	@DEBUG_VALUE: ECC_GenerateSignature:k <- [DW_OP_plus_uconst 200] [$sp+0]
	@DEBUG_VALUE: ECC_GenerateSignature:R <- [DW_OP_plus_uconst 204] [$sp+0]
	@DEBUG_VALUE: ECC_GenerateSignature:S <- [DW_OP_plus_uconst 208] [$sp+0]
	@DEBUG_VALUE: ECC_GenerateSignature:ecc_curve <- [DW_OP_LLVM_entry_value 1] $r1
	.loc	3 0 9                           @ ../../../Library/StdDriver/src/crypto.c:0:9
	movw	r0, #2128
	movs	r1, #1
	ldr	r2, [sp, #32]                   @ 4-byte Reload
	.loc	3 1317 25 is_stmt 1             @ ../../../Library/StdDriver/src/crypto.c:1317:25
	str	r1, [r2, r0]
.Ltmp372:
	@DEBUG_VALUE: ECC_GenerateSignature:i <- 0
	.loc	3 1317 9 is_stmt 0              @ ../../../Library/StdDriver/src/crypto.c:1317:9
	adds	r0, r2, r0
	str	r0, [sp, #28]                   @ 4-byte Spill
	mov	r2, r6
	ldr	r0, [sp, #8]                    @ 4-byte Reload
.Ltmp373:
.LBB27_16:                              @ =>This Inner Loop Header: Depth=1
	@DEBUG_VALUE: ECC_GenerateSignature:message <- [DW_OP_plus_uconst 16] [$sp+0]
	@DEBUG_VALUE: ECC_GenerateSignature:d <- [DW_OP_plus_uconst 12] [$sp+0]
	@DEBUG_VALUE: ECC_GenerateSignature:k <- [DW_OP_plus_uconst 200] [$sp+0]
	@DEBUG_VALUE: ECC_GenerateSignature:R <- [DW_OP_plus_uconst 204] [$sp+0]
	@DEBUG_VALUE: ECC_GenerateSignature:S <- [DW_OP_plus_uconst 208] [$sp+0]
	@DEBUG_VALUE: ECC_GenerateSignature:ecc_curve <- [DW_OP_LLVM_entry_value 1] $r1
	@DEBUG_VALUE: ECC_GenerateSignature:i <- undef
	.loc	3 1322 29 is_stmt 1             @ ../../../Library/StdDriver/src/crypto.c:1322:29
	adds	r1, r4, r2
	str	r5, [r1, #72]
.Ltmp374:
	@DEBUG_VALUE: ECC_GenerateSignature:i <- [DW_OP_plus_uconst 1, DW_OP_stack_value] undef
	.loc	3 1320 22                       @ ../../../Library/StdDriver/src/crypto.c:1320:22
	adds	r2, r2, #4
.Ltmp375:
	.loc	3 1320 9 is_stmt 0              @ ../../../Library/StdDriver/src/crypto.c:1320:9
	bne	.LBB27_16
.Ltmp376:
@ %bb.17:
	@DEBUG_VALUE: ECC_GenerateSignature:message <- [DW_OP_plus_uconst 16] [$sp+0]
	@DEBUG_VALUE: ECC_GenerateSignature:d <- [DW_OP_plus_uconst 12] [$sp+0]
	@DEBUG_VALUE: ECC_GenerateSignature:k <- [DW_OP_plus_uconst 200] [$sp+0]
	@DEBUG_VALUE: ECC_GenerateSignature:R <- [DW_OP_plus_uconst 204] [$sp+0]
	@DEBUG_VALUE: ECC_GenerateSignature:S <- [DW_OP_plus_uconst 208] [$sp+0]
	@DEBUG_VALUE: ECC_GenerateSignature:ecc_curve <- [DW_OP_LLVM_entry_value 1] $r1
	.loc	3 1324 9 is_stmt 1              @ ../../../Library/StdDriver/src/crypto.c:1324:9
	mov	r1, r4
	bl	Hex2Reg
	.loc	3 1326 9                        @ ../../../Library/StdDriver/src/crypto.c:1326:9
	ldr	r0, [sp, #32]                   @ 4-byte Reload
	movw	r1, #512
	bl	run_ecc_codec
.Ltmp377:
	@DEBUG_VALUE: ECC_GenerateSignature:i <- 0
	.loc	3 0 9 is_stmt 0                 @ ../../../Library/StdDriver/src/crypto.c:0:9
	mov	r0, r6
.Ltmp378:
.LBB27_18:                              @ =>This Inner Loop Header: Depth=1
	@DEBUG_VALUE: ECC_GenerateSignature:message <- [DW_OP_plus_uconst 16] [$sp+0]
	@DEBUG_VALUE: ECC_GenerateSignature:d <- [DW_OP_plus_uconst 12] [$sp+0]
	@DEBUG_VALUE: ECC_GenerateSignature:k <- [DW_OP_plus_uconst 200] [$sp+0]
	@DEBUG_VALUE: ECC_GenerateSignature:R <- [DW_OP_plus_uconst 204] [$sp+0]
	@DEBUG_VALUE: ECC_GenerateSignature:S <- [DW_OP_plus_uconst 208] [$sp+0]
	@DEBUG_VALUE: ECC_GenerateSignature:ecc_curve <- [DW_OP_LLVM_entry_value 1] $r1
	@DEBUG_VALUE: ECC_GenerateSignature:i <- undef
	add	r1, sp, #36
.Ltmp379:
	.loc	3 1337 29 is_stmt 1             @ ../../../Library/StdDriver/src/crypto.c:1337:29
	adds	r1, r1, r0
	.loc	3 1337 31 is_stmt 0             @ ../../../Library/StdDriver/src/crypto.c:1337:31
	adds	r2, r4, r0
	ldr	r2, [r2, #72]
	.loc	3 1337 29                       @ ../../../Library/StdDriver/src/crypto.c:1337:29
	str	r2, [r1, #72]
.Ltmp380:
	@DEBUG_VALUE: ECC_GenerateSignature:i <- [DW_OP_plus_uconst 1, DW_OP_stack_value] undef
	.loc	3 1335 22 is_stmt 1             @ ../../../Library/StdDriver/src/crypto.c:1335:22
	adds	r0, r0, #4
.Ltmp381:
	.loc	3 1335 9 is_stmt 0              @ ../../../Library/StdDriver/src/crypto.c:1335:9
	bne	.LBB27_18
.Ltmp382:
@ %bb.19:
	@DEBUG_VALUE: ECC_GenerateSignature:message <- [DW_OP_plus_uconst 16] [$sp+0]
	@DEBUG_VALUE: ECC_GenerateSignature:d <- [DW_OP_plus_uconst 12] [$sp+0]
	@DEBUG_VALUE: ECC_GenerateSignature:k <- [DW_OP_plus_uconst 200] [$sp+0]
	@DEBUG_VALUE: ECC_GenerateSignature:R <- [DW_OP_plus_uconst 204] [$sp+0]
	@DEBUG_VALUE: ECC_GenerateSignature:S <- [DW_OP_plus_uconst 208] [$sp+0]
	@DEBUG_VALUE: ECC_GenerateSignature:ecc_curve <- [DW_OP_LLVM_entry_value 1] $r1
	.loc	3 0 9                           @ ../../../Library/StdDriver/src/crypto.c:0:9
	mov	r0, r6
.Ltmp383:
.LBB27_20:                              @ =>This Inner Loop Header: Depth=1
	@DEBUG_VALUE: ECC_GenerateSignature:message <- [DW_OP_plus_uconst 16] [$sp+0]
	@DEBUG_VALUE: ECC_GenerateSignature:d <- [DW_OP_plus_uconst 12] [$sp+0]
	@DEBUG_VALUE: ECC_GenerateSignature:k <- [DW_OP_plus_uconst 200] [$sp+0]
	@DEBUG_VALUE: ECC_GenerateSignature:R <- [DW_OP_plus_uconst 204] [$sp+0]
	@DEBUG_VALUE: ECC_GenerateSignature:S <- [DW_OP_plus_uconst 208] [$sp+0]
	@DEBUG_VALUE: ECC_GenerateSignature:ecc_curve <- [DW_OP_LLVM_entry_value 1] $r1
	@DEBUG_VALUE: ECC_GenerateSignature:i <- undef
	.loc	3 1348 28 is_stmt 1             @ ../../../Library/StdDriver/src/crypto.c:1348:28
	adds	r1, r7, r0
	str	r5, [r1, #72]
.Ltmp384:
	@DEBUG_VALUE: ECC_GenerateSignature:i <- [DW_OP_plus_uconst 1, DW_OP_stack_value] undef
	.loc	3 1346 22                       @ ../../../Library/StdDriver/src/crypto.c:1346:22
	adds	r0, r0, #4
.Ltmp385:
	.loc	3 1346 9 is_stmt 0              @ ../../../Library/StdDriver/src/crypto.c:1346:9
	bne	.LBB27_20
.Ltmp386:
@ %bb.21:
	@DEBUG_VALUE: ECC_GenerateSignature:message <- [DW_OP_plus_uconst 16] [$sp+0]
	@DEBUG_VALUE: ECC_GenerateSignature:d <- [DW_OP_plus_uconst 12] [$sp+0]
	@DEBUG_VALUE: ECC_GenerateSignature:k <- [DW_OP_plus_uconst 200] [$sp+0]
	@DEBUG_VALUE: ECC_GenerateSignature:R <- [DW_OP_plus_uconst 204] [$sp+0]
	@DEBUG_VALUE: ECC_GenerateSignature:S <- [DW_OP_plus_uconst 208] [$sp+0]
	@DEBUG_VALUE: ECC_GenerateSignature:ecc_curve <- [DW_OP_LLVM_entry_value 1] $r1
	.loc	3 1350 17 is_stmt 1             @ ../../../Library/StdDriver/src/crypto.c:1350:17
	ldr	r0, __arm_cp.27_1
	ldr	r0, [r0]
	movw	r1, #768
	adds	r0, r0, r1
	.loc	3 1350 9 is_stmt 0              @ ../../../Library/StdDriver/src/crypto.c:1350:9
	mov	r1, r7
	bl	Hex2Reg
.Ltmp387:
	@DEBUG_VALUE: ECC_GenerateSignature:i <- 0
	.loc	3 0 9                           @ ../../../Library/StdDriver/src/crypto.c:0:9
	mov	r0, r6
.Ltmp388:
.LBB27_22:                              @ =>This Inner Loop Header: Depth=1
	@DEBUG_VALUE: ECC_GenerateSignature:message <- [DW_OP_plus_uconst 16] [$sp+0]
	@DEBUG_VALUE: ECC_GenerateSignature:d <- [DW_OP_plus_uconst 12] [$sp+0]
	@DEBUG_VALUE: ECC_GenerateSignature:k <- [DW_OP_plus_uconst 200] [$sp+0]
	@DEBUG_VALUE: ECC_GenerateSignature:R <- [DW_OP_plus_uconst 204] [$sp+0]
	@DEBUG_VALUE: ECC_GenerateSignature:S <- [DW_OP_plus_uconst 208] [$sp+0]
	@DEBUG_VALUE: ECC_GenerateSignature:ecc_curve <- [DW_OP_LLVM_entry_value 1] $r1
	@DEBUG_VALUE: ECC_GenerateSignature:i <- undef
	.loc	3 1355 29 is_stmt 1             @ ../../../Library/StdDriver/src/crypto.c:1355:29
	adds	r1, r4, r0
	add	r2, sp, #108
	.loc	3 1355 31 is_stmt 0             @ ../../../Library/StdDriver/src/crypto.c:1355:31
	adds	r2, r2, r0
	ldr	r2, [r2, #72]
	.loc	3 1355 29                       @ ../../../Library/StdDriver/src/crypto.c:1355:29
	str	r2, [r1, #72]
.Ltmp389:
	@DEBUG_VALUE: ECC_GenerateSignature:i <- [DW_OP_plus_uconst 1, DW_OP_stack_value] undef
	.loc	3 1353 22 is_stmt 1             @ ../../../Library/StdDriver/src/crypto.c:1353:22
	adds	r0, r0, #4
.Ltmp390:
	.loc	3 1353 9 is_stmt 0              @ ../../../Library/StdDriver/src/crypto.c:1353:9
	bne	.LBB27_22
.Ltmp391:
@ %bb.23:
	@DEBUG_VALUE: ECC_GenerateSignature:message <- [DW_OP_plus_uconst 16] [$sp+0]
	@DEBUG_VALUE: ECC_GenerateSignature:d <- [DW_OP_plus_uconst 12] [$sp+0]
	@DEBUG_VALUE: ECC_GenerateSignature:k <- [DW_OP_plus_uconst 200] [$sp+0]
	@DEBUG_VALUE: ECC_GenerateSignature:R <- [DW_OP_plus_uconst 204] [$sp+0]
	@DEBUG_VALUE: ECC_GenerateSignature:S <- [DW_OP_plus_uconst 208] [$sp+0]
	@DEBUG_VALUE: ECC_GenerateSignature:ecc_curve <- [DW_OP_LLVM_entry_value 1] $r1
	.loc	3 0 9                           @ ../../../Library/StdDriver/src/crypto.c:0:9
	movw	r0, #2128
.Ltmp392:
	.loc	3 1358 9 is_stmt 1              @ ../../../Library/StdDriver/src/crypto.c:1358:9
	ldr	r1, [sp, #32]                   @ 4-byte Reload
	adds	r0, r1, r0
	mov	r1, r6
.Ltmp393:
.LBB27_24:                              @ =>This Inner Loop Header: Depth=1
	@DEBUG_VALUE: ECC_GenerateSignature:message <- [DW_OP_plus_uconst 16] [$sp+0]
	@DEBUG_VALUE: ECC_GenerateSignature:d <- [DW_OP_plus_uconst 12] [$sp+0]
	@DEBUG_VALUE: ECC_GenerateSignature:k <- [DW_OP_plus_uconst 200] [$sp+0]
	@DEBUG_VALUE: ECC_GenerateSignature:R <- [DW_OP_plus_uconst 204] [$sp+0]
	@DEBUG_VALUE: ECC_GenerateSignature:S <- [DW_OP_plus_uconst 208] [$sp+0]
	@DEBUG_VALUE: ECC_GenerateSignature:ecc_curve <- [DW_OP_LLVM_entry_value 1] $r1
	@DEBUG_VALUE: ECC_GenerateSignature:i <- undef
	.loc	3 1360 29                       @ ../../../Library/StdDriver/src/crypto.c:1360:29
	adds	r2, r0, r1
	str	r5, [r2, #72]
.Ltmp394:
	@DEBUG_VALUE: ECC_GenerateSignature:i <- [DW_OP_plus_uconst 1, DW_OP_stack_value] undef
	.loc	3 1358 22                       @ ../../../Library/StdDriver/src/crypto.c:1358:22
	adds	r1, r1, #4
.Ltmp395:
	.loc	3 1358 9 is_stmt 0              @ ../../../Library/StdDriver/src/crypto.c:1358:9
	bne	.LBB27_24
.Ltmp396:
@ %bb.25:
	@DEBUG_VALUE: ECC_GenerateSignature:message <- [DW_OP_plus_uconst 16] [$sp+0]
	@DEBUG_VALUE: ECC_GenerateSignature:d <- [DW_OP_plus_uconst 12] [$sp+0]
	@DEBUG_VALUE: ECC_GenerateSignature:k <- [DW_OP_plus_uconst 200] [$sp+0]
	@DEBUG_VALUE: ECC_GenerateSignature:R <- [DW_OP_plus_uconst 204] [$sp+0]
	@DEBUG_VALUE: ECC_GenerateSignature:S <- [DW_OP_plus_uconst 208] [$sp+0]
	@DEBUG_VALUE: ECC_GenerateSignature:ecc_curve <- [DW_OP_LLVM_entry_value 1] $r1
	.loc	3 1362 9 is_stmt 1              @ ../../../Library/StdDriver/src/crypto.c:1362:9
	ldr	r0, [sp, #12]                   @ 4-byte Reload
.Ltmp397:
	@DEBUG_VALUE: ECC_GenerateSignature:d <- $r0
	ldr	r1, [sp, #28]                   @ 4-byte Reload
	bl	Hex2Reg
.Ltmp398:
	.loc	3 1364 9                        @ ../../../Library/StdDriver/src/crypto.c:1364:9
	ldr	r0, [sp, #32]                   @ 4-byte Reload
	movw	r1, #2560
	bl	run_ecc_codec
.Ltmp399:
	@DEBUG_VALUE: ECC_GenerateSignature:i <- 0
	.loc	3 0 9 is_stmt 0                 @ ../../../Library/StdDriver/src/crypto.c:0:9
	mov	r0, r6
.Ltmp400:
.LBB27_26:                              @ =>This Inner Loop Header: Depth=1
	@DEBUG_VALUE: ECC_GenerateSignature:message <- [DW_OP_plus_uconst 16] [$sp+0]
	@DEBUG_VALUE: ECC_GenerateSignature:k <- [DW_OP_plus_uconst 200] [$sp+0]
	@DEBUG_VALUE: ECC_GenerateSignature:R <- [DW_OP_plus_uconst 204] [$sp+0]
	@DEBUG_VALUE: ECC_GenerateSignature:S <- [DW_OP_plus_uconst 208] [$sp+0]
	@DEBUG_VALUE: ECC_GenerateSignature:ecc_curve <- [DW_OP_LLVM_entry_value 1] $r1
	@DEBUG_VALUE: ECC_GenerateSignature:i <- undef
	.loc	3 1374 28 is_stmt 1             @ ../../../Library/StdDriver/src/crypto.c:1374:28
	adds	r1, r7, r0
	str	r5, [r1, #72]
.Ltmp401:
	@DEBUG_VALUE: ECC_GenerateSignature:i <- [DW_OP_plus_uconst 1, DW_OP_stack_value] undef
	.loc	3 1372 22                       @ ../../../Library/StdDriver/src/crypto.c:1372:22
	adds	r0, r0, #4
.Ltmp402:
	.loc	3 1372 9 is_stmt 0              @ ../../../Library/StdDriver/src/crypto.c:1372:9
	bne	.LBB27_26
.Ltmp403:
@ %bb.27:
	@DEBUG_VALUE: ECC_GenerateSignature:message <- [DW_OP_plus_uconst 16] [$sp+0]
	@DEBUG_VALUE: ECC_GenerateSignature:k <- [DW_OP_plus_uconst 200] [$sp+0]
	@DEBUG_VALUE: ECC_GenerateSignature:R <- [DW_OP_plus_uconst 204] [$sp+0]
	@DEBUG_VALUE: ECC_GenerateSignature:S <- [DW_OP_plus_uconst 208] [$sp+0]
	@DEBUG_VALUE: ECC_GenerateSignature:ecc_curve <- [DW_OP_LLVM_entry_value 1] $r1
	.loc	3 1376 17 is_stmt 1             @ ../../../Library/StdDriver/src/crypto.c:1376:17
	ldr	r0, __arm_cp.27_1
	ldr	r0, [r0]
	movw	r1, #768
	adds	r0, r0, r1
	.loc	3 1376 9 is_stmt 0              @ ../../../Library/StdDriver/src/crypto.c:1376:9
	mov	r1, r7
	bl	Hex2Reg
	movw	r0, #2128
.Ltmp404:
	@DEBUG_VALUE: ECC_GenerateSignature:i <- 0
	.loc	3 1379 9 is_stmt 1              @ ../../../Library/StdDriver/src/crypto.c:1379:9
	ldr	r1, [sp, #32]                   @ 4-byte Reload
	adds	r0, r1, r0
	mov	r1, r6
.Ltmp405:
.LBB27_28:                              @ =>This Inner Loop Header: Depth=1
	@DEBUG_VALUE: ECC_GenerateSignature:message <- [DW_OP_plus_uconst 16] [$sp+0]
	@DEBUG_VALUE: ECC_GenerateSignature:k <- [DW_OP_plus_uconst 200] [$sp+0]
	@DEBUG_VALUE: ECC_GenerateSignature:R <- [DW_OP_plus_uconst 204] [$sp+0]
	@DEBUG_VALUE: ECC_GenerateSignature:S <- [DW_OP_plus_uconst 208] [$sp+0]
	@DEBUG_VALUE: ECC_GenerateSignature:ecc_curve <- [DW_OP_LLVM_entry_value 1] $r1
	@DEBUG_VALUE: ECC_GenerateSignature:i <- undef
	.loc	3 1381 29                       @ ../../../Library/StdDriver/src/crypto.c:1381:29
	adds	r2, r0, r1
	str	r5, [r2, #72]
.Ltmp406:
	@DEBUG_VALUE: ECC_GenerateSignature:i <- [DW_OP_plus_uconst 1, DW_OP_stack_value] undef
	.loc	3 1379 22                       @ ../../../Library/StdDriver/src/crypto.c:1379:22
	adds	r1, r1, #4
.Ltmp407:
	.loc	3 1379 9 is_stmt 0              @ ../../../Library/StdDriver/src/crypto.c:1379:9
	bne	.LBB27_28
.Ltmp408:
@ %bb.29:
	@DEBUG_VALUE: ECC_GenerateSignature:message <- [DW_OP_plus_uconst 16] [$sp+0]
	@DEBUG_VALUE: ECC_GenerateSignature:k <- [DW_OP_plus_uconst 200] [$sp+0]
	@DEBUG_VALUE: ECC_GenerateSignature:R <- [DW_OP_plus_uconst 204] [$sp+0]
	@DEBUG_VALUE: ECC_GenerateSignature:S <- [DW_OP_plus_uconst 208] [$sp+0]
	@DEBUG_VALUE: ECC_GenerateSignature:ecc_curve <- [DW_OP_LLVM_entry_value 1] $r1
	.loc	3 1384 9 is_stmt 1              @ ../../../Library/StdDriver/src/crypto.c:1384:9
	ldr	r0, [sp, #16]                   @ 4-byte Reload
.Ltmp409:
	@DEBUG_VALUE: ECC_GenerateSignature:message <- $r0
	ldr	r1, [sp, #28]                   @ 4-byte Reload
	bl	Hex2Reg
.Ltmp410:
	.loc	3 1386 9                        @ ../../../Library/StdDriver/src/crypto.c:1386:9
	ldr	r0, [sp, #32]                   @ 4-byte Reload
	movw	r1, #4608
	bl	run_ecc_codec
.Ltmp411:
	@DEBUG_VALUE: ECC_GenerateSignature:i <- 0
	.loc	3 0 9 is_stmt 0                 @ ../../../Library/StdDriver/src/crypto.c:0:9
	mov	r0, r6
.Ltmp412:
.LBB27_30:                              @ =>This Inner Loop Header: Depth=1
	@DEBUG_VALUE: ECC_GenerateSignature:k <- [DW_OP_plus_uconst 200] [$sp+0]
	@DEBUG_VALUE: ECC_GenerateSignature:R <- [DW_OP_plus_uconst 204] [$sp+0]
	@DEBUG_VALUE: ECC_GenerateSignature:S <- [DW_OP_plus_uconst 208] [$sp+0]
	@DEBUG_VALUE: ECC_GenerateSignature:ecc_curve <- [DW_OP_LLVM_entry_value 1] $r1
	@DEBUG_VALUE: ECC_GenerateSignature:i <- undef
	.loc	3 1396 28 is_stmt 1             @ ../../../Library/StdDriver/src/crypto.c:1396:28
	adds	r1, r7, r0
	str	r5, [r1, #72]
.Ltmp413:
	@DEBUG_VALUE: ECC_GenerateSignature:i <- [DW_OP_plus_uconst 1, DW_OP_stack_value] undef
	.loc	3 1394 22                       @ ../../../Library/StdDriver/src/crypto.c:1394:22
	adds	r0, r0, #4
.Ltmp414:
	.loc	3 1394 9 is_stmt 0              @ ../../../Library/StdDriver/src/crypto.c:1394:9
	bne	.LBB27_30
.Ltmp415:
@ %bb.31:
	@DEBUG_VALUE: ECC_GenerateSignature:k <- [DW_OP_plus_uconst 200] [$sp+0]
	@DEBUG_VALUE: ECC_GenerateSignature:R <- [DW_OP_plus_uconst 204] [$sp+0]
	@DEBUG_VALUE: ECC_GenerateSignature:S <- [DW_OP_plus_uconst 208] [$sp+0]
	@DEBUG_VALUE: ECC_GenerateSignature:ecc_curve <- [DW_OP_LLVM_entry_value 1] $r1
	.loc	3 1398 17 is_stmt 1             @ ../../../Library/StdDriver/src/crypto.c:1398:17
	ldr	r0, __arm_cp.27_1
	ldr	r0, [r0]
	movw	r1, #768
	adds	r0, r0, r1
	.loc	3 1398 9 is_stmt 0              @ ../../../Library/StdDriver/src/crypto.c:1398:9
	mov	r1, r7
	bl	Hex2Reg
	movw	r0, #2128
.Ltmp416:
	@DEBUG_VALUE: ECC_GenerateSignature:i <- 0
	.loc	3 1401 9 is_stmt 1              @ ../../../Library/StdDriver/src/crypto.c:1401:9
	ldr	r1, [sp, #32]                   @ 4-byte Reload
	adds	r0, r1, r0
	mov	r1, r6
.Ltmp417:
.LBB27_32:                              @ =>This Inner Loop Header: Depth=1
	@DEBUG_VALUE: ECC_GenerateSignature:k <- [DW_OP_plus_uconst 200] [$sp+0]
	@DEBUG_VALUE: ECC_GenerateSignature:R <- [DW_OP_plus_uconst 204] [$sp+0]
	@DEBUG_VALUE: ECC_GenerateSignature:S <- [DW_OP_plus_uconst 208] [$sp+0]
	@DEBUG_VALUE: ECC_GenerateSignature:ecc_curve <- [DW_OP_LLVM_entry_value 1] $r1
	@DEBUG_VALUE: ECC_GenerateSignature:i <- undef
	.loc	3 1403 29                       @ ../../../Library/StdDriver/src/crypto.c:1403:29
	adds	r2, r0, r1
	add	r3, sp, #36
	.loc	3 1403 31 is_stmt 0             @ ../../../Library/StdDriver/src/crypto.c:1403:31
	adds	r3, r3, r1
	ldr	r3, [r3, #72]
	.loc	3 1403 29                       @ ../../../Library/StdDriver/src/crypto.c:1403:29
	str	r3, [r2, #72]
.Ltmp418:
	@DEBUG_VALUE: ECC_GenerateSignature:i <- [DW_OP_plus_uconst 1, DW_OP_stack_value] undef
	.loc	3 1401 22 is_stmt 1             @ ../../../Library/StdDriver/src/crypto.c:1401:22
	adds	r1, r1, #4
.Ltmp419:
	.loc	3 1401 9 is_stmt 0              @ ../../../Library/StdDriver/src/crypto.c:1401:9
	bne	.LBB27_32
.Ltmp420:
@ %bb.33:
	@DEBUG_VALUE: ECC_GenerateSignature:k <- [DW_OP_plus_uconst 200] [$sp+0]
	@DEBUG_VALUE: ECC_GenerateSignature:R <- [DW_OP_plus_uconst 204] [$sp+0]
	@DEBUG_VALUE: ECC_GenerateSignature:S <- [DW_OP_plus_uconst 208] [$sp+0]
	@DEBUG_VALUE: ECC_GenerateSignature:ecc_curve <- [DW_OP_LLVM_entry_value 1] $r1
	.loc	3 1406 9 is_stmt 1              @ ../../../Library/StdDriver/src/crypto.c:1406:9
	ldr	r0, [sp, #32]                   @ 4-byte Reload
	movw	r1, #2560
	bl	run_ecc_codec
.Ltmp421:
	@DEBUG_VALUE: ECC_GenerateSignature:i <- 0
.LBB27_34:                              @ =>This Inner Loop Header: Depth=1
	@DEBUG_VALUE: ECC_GenerateSignature:k <- [DW_OP_plus_uconst 200] [$sp+0]
	@DEBUG_VALUE: ECC_GenerateSignature:R <- [DW_OP_plus_uconst 204] [$sp+0]
	@DEBUG_VALUE: ECC_GenerateSignature:S <- [DW_OP_plus_uconst 208] [$sp+0]
	@DEBUG_VALUE: ECC_GenerateSignature:ecc_curve <- [DW_OP_LLVM_entry_value 1] $r1
	@DEBUG_VALUE: ECC_GenerateSignature:i <- undef
	.loc	3 0 9 is_stmt 0                 @ ../../../Library/StdDriver/src/crypto.c:0:9
	add	r0, sp, #36
.Ltmp422:
	.loc	3 1411 29 is_stmt 1             @ ../../../Library/StdDriver/src/crypto.c:1411:29
	adds	r0, r0, r6
	.loc	3 1411 31 is_stmt 0             @ ../../../Library/StdDriver/src/crypto.c:1411:31
	adds	r1, r4, r6
	ldr	r1, [r1, #72]
	.loc	3 1411 29                       @ ../../../Library/StdDriver/src/crypto.c:1411:29
	str	r1, [r0, #72]
.Ltmp423:
	@DEBUG_VALUE: ECC_GenerateSignature:i <- [DW_OP_plus_uconst 1, DW_OP_stack_value] undef
	.loc	3 1409 22 is_stmt 1             @ ../../../Library/StdDriver/src/crypto.c:1409:22
	adds	r6, r6, #4
.Ltmp424:
	.loc	3 1409 9 is_stmt 0              @ ../../../Library/StdDriver/src/crypto.c:1409:9
	bne	.LBB27_34
.Ltmp425:
@ %bb.35:
	@DEBUG_VALUE: ECC_GenerateSignature:k <- [DW_OP_plus_uconst 200] [$sp+0]
	@DEBUG_VALUE: ECC_GenerateSignature:R <- [DW_OP_plus_uconst 204] [$sp+0]
	@DEBUG_VALUE: ECC_GenerateSignature:S <- [DW_OP_plus_uconst 208] [$sp+0]
	@DEBUG_VALUE: ECC_GenerateSignature:ecc_curve <- [DW_OP_LLVM_entry_value 1] $r1
	.loc	3 1414 17 is_stmt 1             @ ../../../Library/StdDriver/src/crypto.c:1414:17
	ldr	r0, __arm_cp.27_1
	ldr	r0, [r0]
	.loc	3 1414 25 is_stmt 0             @ ../../../Library/StdDriver/src/crypto.c:1414:25
	ldr	r0, [r0, #4]
	add	r1, sp, #36
	.loc	3 1414 9                        @ ../../../Library/StdDriver/src/crypto.c:1414:9
	ldr	r2, [sp, #20]                   @ 4-byte Reload
	bl	Reg2Hex
	ldr	r0, [sp, #24]                   @ 4-byte Reload
.Ltmp426:
	.loc	3 1204 8 is_stmt 1              @ ../../../Library/StdDriver/src/crypto.c:1204:8
	cmp	r0, #0
	bne	.LBB27_36
	b	.LBB27_2
.Ltmp427:
.LBB27_36:
	@DEBUG_VALUE: ECC_GenerateSignature:k <- [DW_OP_plus_uconst 200] [$sp+0]
	@DEBUG_VALUE: ECC_GenerateSignature:R <- [DW_OP_plus_uconst 204] [$sp+0]
	@DEBUG_VALUE: ECC_GenerateSignature:S <- [DW_OP_plus_uconst 208] [$sp+0]
	@DEBUG_VALUE: ECC_GenerateSignature:ecc_curve <- [DW_OP_LLVM_entry_value 1] $r1
	.loc	3 0 8 is_stmt 0                 @ ../../../Library/StdDriver/src/crypto.c:0:8
	movs	r0, #0
	mvns	r0, r0
.Ltmp428:
	@DEBUG_VALUE: ECC_GenerateSignature:ret <- $r0
	.loc	3 1418 5 is_stmt 1              @ ../../../Library/StdDriver/src/crypto.c:1418:5
	add	sp, #180
.Ltmp429:
	pop	{r4, r5, r6, r7, pc}
.Ltmp430:
	.p2align	2
@ %bb.37:
	.loc	3 0 5 is_stmt 0                 @ ../../../Library/StdDriver/src/crypto.c:0:5
__arm_cp.27_0:
	.long	2488                            @ 0x9b8
.Lcpi_end22:
	.size	__arm_cp.27_0, .Lcpi_end22-__arm_cp.27_0
__arm_cp.27_1:
	.long	pCurve
.Lcpi_end23:
	.size	__arm_cp.27_1, .Lcpi_end23-__arm_cp.27_1
__arm_cp.27_2:
	.long	2056                            @ 0x808
.Lcpi_end24:
	.size	__arm_cp.27_2, .Lcpi_end24-__arm_cp.27_2
.Lfunc_end27:
	.size	ECC_GenerateSignature, .Lfunc_end27-ECC_GenerateSignature
	.cfi_endproc
	.cantunwind
	.fnend
                                        @ -- End function
	.section	.text.run_ecc_codec,"ax",%progbits
	.p2align	2                               @ -- Begin function run_ecc_codec
	.type	run_ecc_codec,%function
	.code	16                              @ @run_ecc_codec
	.thumb_func
run_ecc_codec:
.Lfunc_begin28:
	.loc	3 1152 0 is_stmt 1              @ ../../../Library/StdDriver/src/crypto.c:1152:0
	.fnstart
	.cfi_startproc
@ %bb.0:
	@DEBUG_VALUE: run_ecc_codec:crpt <- $r0
	@DEBUG_VALUE: run_ecc_codec:mode <- $r1
	.save	{r4, r5, r7, lr}
	push	{r4, r5, r7, lr}
	.cfi_def_cfa_offset 16
	.cfi_offset lr, -4
	.cfi_offset r7, -8
	.cfi_offset r5, -12
	.cfi_offset r4, -16
	movw	r2, #2048
	@DEBUG_VALUE: run_ecc_codec:mode <- $r1
	@DEBUG_VALUE: run_ecc_codec:crpt <- $r0
.Ltmp431:
	.loc	3 0 0 prologue_end              @ ../../../Library/StdDriver/src/crypto.c:0:0
	adds	r0, r0, r2
.Ltmp432:
	@DEBUG_VALUE: run_ecc_codec:crpt <- [DW_OP_LLVM_entry_value 1] $r0
	movw	r2, #1536
.Ltmp433:
	.loc	3 1155 14                       @ ../../../Library/StdDriver/src/crypto.c:1155:14
	ands	r2, r1
	movw	r3, #512
.Ltmp434:
	.loc	3 1155 8 is_stmt 0              @ ../../../Library/StdDriver/src/crypto.c:1155:8
	cmp	r2, r3
	beq	.LBB28_3
.Ltmp435:
@ %bb.1:
	@DEBUG_VALUE: run_ecc_codec:mode <- $r1
	@DEBUG_VALUE: run_ecc_codec:crpt <- [DW_OP_LLVM_entry_value 1] $r0
	.loc	3 1161 12 is_stmt 1             @ ../../../Library/StdDriver/src/crypto.c:1161:12
	ldr	r2, __arm_cp.28_0
	ldr	r2, [r2]
	movw	r3, #960
	.loc	3 1161 20 is_stmt 0             @ ../../../Library/StdDriver/src/crypto.c:1161:20
	ldr	r2, [r2, r3]
.Ltmp436:
	.loc	3 1161 12                       @ ../../../Library/StdDriver/src/crypto.c:1161:12
	cmp	r2, #1
	bne	.LBB28_3
.Ltmp437:
@ %bb.2:
	@DEBUG_VALUE: run_ecc_codec:mode <- $r1
	@DEBUG_VALUE: run_ecc_codec:crpt <- [DW_OP_LLVM_entry_value 1] $r0
	.loc	3 0 12                          @ ../../../Library/StdDriver/src/crypto.c:0:12
	movs	r2, #0
	b	.LBB28_4
.Ltmp438:
.LBB28_3:
	@DEBUG_VALUE: run_ecc_codec:mode <- $r1
	@DEBUG_VALUE: run_ecc_codec:crpt <- [DW_OP_LLVM_entry_value 1] $r0
	movw	r2, #256
.Ltmp439:
.LBB28_4:
	@DEBUG_VALUE: run_ecc_codec:mode <- $r1
	@DEBUG_VALUE: run_ecc_codec:crpt <- [DW_OP_LLVM_entry_value 1] $r0
	str	r2, [r0]
.Ltmp440:
	.loc	3 1173 32 is_stmt 1             @ ../../../Library/StdDriver/src/crypto.c:1173:32
	ldr	r2, __arm_cp.28_1
	movs	r4, #0
	str	r4, [r2]
	.loc	3 1173 16 is_stmt 0             @ ../../../Library/StdDriver/src/crypto.c:1173:16
	ldr	r3, __arm_cp.28_2
	str	r4, [r3]
	.loc	3 1174 33 is_stmt 1             @ ../../../Library/StdDriver/src/crypto.c:1174:33
	ldr	r4, __arm_cp.28_0
	ldr	r4, [r4]
	movw	r5, #944
	.loc	3 1174 41 is_stmt 0             @ ../../../Library/StdDriver/src/crypto.c:1174:41
	ldr	r4, [r4, r5]
	.loc	3 1174 49                       @ ../../../Library/StdDriver/src/crypto.c:1174:49
	lsls	r4, r4, #22
	.loc	3 1174 84                       @ ../../../Library/StdDriver/src/crypto.c:1174:84
	orrs	r4, r1
	.loc	3 1174 19                       @ ../../../Library/StdDriver/src/crypto.c:1174:19
	ldr	r1, [r0]
.Ltmp441:
	@DEBUG_VALUE: run_ecc_codec:mode <- [DW_OP_LLVM_entry_value 1] $r1
	orrs	r1, r4
	movs	r4, #1
	orrs	r4, r1
	str	r4, [r0]
.Ltmp442:
.LBB28_5:                               @ =>This Inner Loop Header: Depth=1
	@DEBUG_VALUE: run_ecc_codec:mode <- [DW_OP_LLVM_entry_value 1] $r1
	@DEBUG_VALUE: run_ecc_codec:crpt <- [DW_OP_LLVM_entry_value 1] $r0
	.loc	3 1178 18 is_stmt 1             @ ../../../Library/StdDriver/src/crypto.c:1178:18
	ldr	r1, [r3]
.Ltmp443:
	@DEBUG_VALUE: run_ecc_codec:u32Tmp <- $r1
	.loc	3 1179 19                       @ ../../../Library/StdDriver/src/crypto.c:1179:19
	ldr	r4, [r2]
	.loc	3 1179 16 is_stmt 0             @ ../../../Library/StdDriver/src/crypto.c:1179:16
	orrs	r4, r1
.Ltmp444:
	@DEBUG_VALUE: run_ecc_codec:u32Tmp <- $r4
	.loc	3 1180 5 is_stmt 1              @ ../../../Library/StdDriver/src/crypto.c:1180:5
	beq	.LBB28_5
.Ltmp445:
.LBB28_6:                               @ =>This Inner Loop Header: Depth=1
	@DEBUG_VALUE: run_ecc_codec:u32Tmp <- $r4
	@DEBUG_VALUE: run_ecc_codec:mode <- [DW_OP_LLVM_entry_value 1] $r1
	@DEBUG_VALUE: run_ecc_codec:crpt <- [DW_OP_LLVM_entry_value 1] $r0
	.loc	3 1183 17                       @ ../../../Library/StdDriver/src/crypto.c:1183:17
	ldr	r1, [r0, #4]
	.loc	3 1183 5 is_stmt 0              @ ../../../Library/StdDriver/src/crypto.c:1183:5
	lsls	r1, r1, #31
	bne	.LBB28_6
.Ltmp446:
@ %bb.7:
	@DEBUG_VALUE: run_ecc_codec:u32Tmp <- $r4
	@DEBUG_VALUE: run_ecc_codec:mode <- [DW_OP_LLVM_entry_value 1] $r1
	@DEBUG_VALUE: run_ecc_codec:crpt <- [DW_OP_LLVM_entry_value 1] $r0
	.loc	3 1184 1 is_stmt 1              @ ../../../Library/StdDriver/src/crypto.c:1184:1
	pop	{r4, r5, r7, pc}
.Ltmp447:
	.p2align	2
@ %bb.8:
	.loc	3 0 1 is_stmt 0                 @ ../../../Library/StdDriver/src/crypto.c:0:1
__arm_cp.28_0:
	.long	pCurve
.Lcpi_end25:
	.size	__arm_cp.28_0, .Lcpi_end25-__arm_cp.28_0
__arm_cp.28_1:
	.long	g_ECCERR_done
.Lcpi_end26:
	.size	__arm_cp.28_1, .Lcpi_end26-__arm_cp.28_1
__arm_cp.28_2:
	.long	g_ECC_done
.Lcpi_end27:
	.size	__arm_cp.28_2, .Lcpi_end27-__arm_cp.28_2
.Lfunc_end28:
	.size	run_ecc_codec, .Lfunc_end28-run_ecc_codec
	.cfi_endproc
	.cantunwind
	.fnend
                                        @ -- End function
	.section	.text.ECC_VerifySignature,"ax",%progbits
	.hidden	ECC_VerifySignature             @ -- Begin function ECC_VerifySignature
	.globl	ECC_VerifySignature
	.p2align	2
	.type	ECC_VerifySignature,%function
	.code	16                              @ @ECC_VerifySignature
	.thumb_func
ECC_VerifySignature:
.Lfunc_begin29:
	.loc	3 1436 0 is_stmt 1              @ ../../../Library/StdDriver/src/crypto.c:1436:0
	.fnstart
	.cfi_startproc
@ %bb.0:
	@DEBUG_VALUE: ECC_VerifySignature:crpt <- $r0
	@DEBUG_VALUE: ECC_VerifySignature:ecc_curve <- $r1
	@DEBUG_VALUE: ECC_VerifySignature:message <- $r2
	@DEBUG_VALUE: ECC_VerifySignature:public_k1 <- $r3
	.save	{r4, r5, r6, r7, lr}
	push	{r4, r5, r6, r7, lr}
	.cfi_def_cfa_offset 20
	.cfi_offset lr, -4
	.cfi_offset r7, -8
	.cfi_offset r6, -12
	.cfi_offset r5, -16
	.cfi_offset r4, -20
	.pad	#316
	sub	sp, #316
	.cfi_def_cfa_offset 336
	mov	r7, r3
	mov	r6, r2
	mov	r4, r1
	mov	r5, r0
.Ltmp448:
	@DEBUG_VALUE: ECC_VerifySignature:ret <- 0
	@DEBUG_VALUE: ECC_VerifySignature:S <- [DW_OP_plus_uconst 344] [$sp+0]
	@DEBUG_VALUE: ECC_VerifySignature:R <- [DW_OP_plus_uconst 340] [$sp+0]
	@DEBUG_VALUE: ECC_VerifySignature:public_k2 <- [DW_OP_plus_uconst 336] [$sp+0]
	@DEBUG_VALUE: ECC_VerifySignature:public_k1 <- $r7
	@DEBUG_VALUE: ECC_VerifySignature:message <- $r6
	@DEBUG_VALUE: ECC_VerifySignature:ecc_curve <- $r4
	@DEBUG_VALUE: ECC_VerifySignature:crpt <- $r5
	.loc	3 1460 8 prologue_end           @ ../../../Library/StdDriver/src/crypto.c:1460:8
	bl	ecc_init_curve
	movs	r1, #71
	mvns	r1, r1
.Ltmp449:
	@DEBUG_VALUE: ECC_VerifySignature:ret <- undef
	.loc	3 1465 8                        @ ../../../Library/StdDriver/src/crypto.c:1465:8
	cbz	r0, .LBB29_2
.Ltmp450:
@ %bb.1:
	@DEBUG_VALUE: ECC_VerifySignature:public_k1 <- $r7
	@DEBUG_VALUE: ECC_VerifySignature:message <- $r6
	@DEBUG_VALUE: ECC_VerifySignature:crpt <- $r5
	@DEBUG_VALUE: ECC_VerifySignature:ecc_curve <- $r4
	@DEBUG_VALUE: ECC_VerifySignature:public_k2 <- [DW_OP_plus_uconst 336] [$sp+0]
	@DEBUG_VALUE: ECC_VerifySignature:R <- [DW_OP_plus_uconst 340] [$sp+0]
	@DEBUG_VALUE: ECC_VerifySignature:S <- [DW_OP_plus_uconst 344] [$sp+0]
	.loc	3 0 8 is_stmt 0                 @ ../../../Library/StdDriver/src/crypto.c:0:8
	adds	r1, #71
	mov	r6, r1
.Ltmp451:
	b	.LBB29_49
.Ltmp452:
.LBB29_2:
	@DEBUG_VALUE: ECC_VerifySignature:public_k1 <- $r7
	@DEBUG_VALUE: ECC_VerifySignature:message <- $r6
	@DEBUG_VALUE: ECC_VerifySignature:crpt <- $r5
	@DEBUG_VALUE: ECC_VerifySignature:ecc_curve <- $r4
	@DEBUG_VALUE: ECC_VerifySignature:public_k2 <- [DW_OP_plus_uconst 336] [$sp+0]
	@DEBUG_VALUE: ECC_VerifySignature:R <- [DW_OP_plus_uconst 340] [$sp+0]
	@DEBUG_VALUE: ECC_VerifySignature:S <- [DW_OP_plus_uconst 344] [$sp+0]
	str	r6, [sp, #16]                   @ 4-byte Spill
.Ltmp453:
	@DEBUG_VALUE: ECC_VerifySignature:message <- [DW_OP_plus_uconst 16] [$sp+0]
	str	r7, [sp, #8]                    @ 4-byte Spill
.Ltmp454:
	@DEBUG_VALUE: ECC_VerifySignature:public_k1 <- [DW_OP_plus_uconst 8] [$sp+0]
	str	r4, [sp, #20]                   @ 4-byte Spill
.Ltmp455:
	@DEBUG_VALUE: ECC_VerifySignature:ecc_curve <- [DW_OP_plus_uconst 20] [$sp+0]
	ldr	r0, [sp, #344]
	str	r0, [sp, #24]                   @ 4-byte Spill
	ldr	r0, [sp, #340]
	str	r0, [sp, #12]                   @ 4-byte Spill
	ldr	r0, [sp, #336]
	str	r0, [sp, #4]                    @ 4-byte Spill
	ldr	r0, __arm_cp.29_0
.Ltmp456:
	.loc	3 1469 9 is_stmt 1              @ ../../../Library/StdDriver/src/crypto.c:1469:9
	adds	r7, r5, r0
	mov	r0, r1
	mov	r6, r1
.Ltmp457:
.LBB29_3:                               @ =>This Inner Loop Header: Depth=1
	@DEBUG_VALUE: ECC_VerifySignature:ecc_curve <- [DW_OP_plus_uconst 20] [$sp+0]
	@DEBUG_VALUE: ECC_VerifySignature:public_k1 <- [DW_OP_plus_uconst 8] [$sp+0]
	@DEBUG_VALUE: ECC_VerifySignature:message <- [DW_OP_plus_uconst 16] [$sp+0]
	@DEBUG_VALUE: ECC_VerifySignature:crpt <- $r5
	@DEBUG_VALUE: ECC_VerifySignature:public_k2 <- [DW_OP_plus_uconst 336] [$sp+0]
	@DEBUG_VALUE: ECC_VerifySignature:R <- [DW_OP_plus_uconst 340] [$sp+0]
	@DEBUG_VALUE: ECC_VerifySignature:S <- [DW_OP_plus_uconst 344] [$sp+0]
	@DEBUG_VALUE: ECC_VerifySignature:i <- undef
	.loc	3 1471 28                       @ ../../../Library/StdDriver/src/crypto.c:1471:28
	adds	r1, r7, r0
	movs	r4, #0
	str	r4, [r1, #72]
.Ltmp458:
	@DEBUG_VALUE: ECC_VerifySignature:i <- [DW_OP_plus_uconst 1, DW_OP_stack_value] undef
	.loc	3 1469 22                       @ ../../../Library/StdDriver/src/crypto.c:1469:22
	adds	r0, r0, #4
.Ltmp459:
	.loc	3 1469 9 is_stmt 0              @ ../../../Library/StdDriver/src/crypto.c:1469:9
	bne	.LBB29_3
.Ltmp460:
@ %bb.4:
	@DEBUG_VALUE: ECC_VerifySignature:ecc_curve <- [DW_OP_plus_uconst 20] [$sp+0]
	@DEBUG_VALUE: ECC_VerifySignature:public_k1 <- [DW_OP_plus_uconst 8] [$sp+0]
	@DEBUG_VALUE: ECC_VerifySignature:message <- [DW_OP_plus_uconst 16] [$sp+0]
	@DEBUG_VALUE: ECC_VerifySignature:crpt <- $r5
	@DEBUG_VALUE: ECC_VerifySignature:public_k2 <- [DW_OP_plus_uconst 336] [$sp+0]
	@DEBUG_VALUE: ECC_VerifySignature:R <- [DW_OP_plus_uconst 340] [$sp+0]
	@DEBUG_VALUE: ECC_VerifySignature:S <- [DW_OP_plus_uconst 344] [$sp+0]
	.loc	3 1473 17 is_stmt 1             @ ../../../Library/StdDriver/src/crypto.c:1473:17
	ldr	r0, __arm_cp.29_1
	ldr	r0, [r0]
	movw	r1, #768
	adds	r0, r0, r1
	.loc	3 1473 9 is_stmt 0              @ ../../../Library/StdDriver/src/crypto.c:1473:9
	mov	r1, r7
	bl	Hex2Reg
	movw	r0, #2128
.Ltmp461:
	@DEBUG_VALUE: ECC_VerifySignature:i <- 0
	.loc	3 1476 9 is_stmt 1              @ ../../../Library/StdDriver/src/crypto.c:1476:9
	adds	r0, r5, r0
	mov	r1, r6
.Ltmp462:
.LBB29_5:                               @ =>This Inner Loop Header: Depth=1
	@DEBUG_VALUE: ECC_VerifySignature:ecc_curve <- [DW_OP_plus_uconst 20] [$sp+0]
	@DEBUG_VALUE: ECC_VerifySignature:public_k1 <- [DW_OP_plus_uconst 8] [$sp+0]
	@DEBUG_VALUE: ECC_VerifySignature:message <- [DW_OP_plus_uconst 16] [$sp+0]
	@DEBUG_VALUE: ECC_VerifySignature:crpt <- $r5
	@DEBUG_VALUE: ECC_VerifySignature:public_k2 <- [DW_OP_plus_uconst 336] [$sp+0]
	@DEBUG_VALUE: ECC_VerifySignature:R <- [DW_OP_plus_uconst 340] [$sp+0]
	@DEBUG_VALUE: ECC_VerifySignature:S <- [DW_OP_plus_uconst 344] [$sp+0]
	@DEBUG_VALUE: ECC_VerifySignature:i <- undef
	.loc	3 1478 29                       @ ../../../Library/StdDriver/src/crypto.c:1478:29
	adds	r2, r0, r1
	str	r4, [r2, #72]
.Ltmp463:
	@DEBUG_VALUE: ECC_VerifySignature:i <- [DW_OP_plus_uconst 1, DW_OP_stack_value] undef
	.loc	3 1476 22                       @ ../../../Library/StdDriver/src/crypto.c:1476:22
	adds	r1, r1, #4
.Ltmp464:
	.loc	3 1476 9 is_stmt 0              @ ../../../Library/StdDriver/src/crypto.c:1476:9
	bne	.LBB29_5
.Ltmp465:
@ %bb.6:
	@DEBUG_VALUE: ECC_VerifySignature:ecc_curve <- [DW_OP_plus_uconst 20] [$sp+0]
	@DEBUG_VALUE: ECC_VerifySignature:public_k1 <- [DW_OP_plus_uconst 8] [$sp+0]
	@DEBUG_VALUE: ECC_VerifySignature:message <- [DW_OP_plus_uconst 16] [$sp+0]
	@DEBUG_VALUE: ECC_VerifySignature:crpt <- $r5
	@DEBUG_VALUE: ECC_VerifySignature:public_k2 <- [DW_OP_plus_uconst 336] [$sp+0]
	@DEBUG_VALUE: ECC_VerifySignature:R <- [DW_OP_plus_uconst 340] [$sp+0]
	@DEBUG_VALUE: ECC_VerifySignature:S <- [DW_OP_plus_uconst 344] [$sp+0]
	.loc	3 0 9                           @ ../../../Library/StdDriver/src/crypto.c:0:9
	movw	r0, #2128
	movs	r1, #1
	.loc	3 1480 25 is_stmt 1             @ ../../../Library/StdDriver/src/crypto.c:1480:25
	str	r1, [r5, r0]
	.loc	3 1480 9 is_stmt 0              @ ../../../Library/StdDriver/src/crypto.c:1480:9
	adds	r0, r5, r0
.Ltmp466:
	@DEBUG_VALUE: ECC_VerifySignature:i <- 0
	.loc	3 0 9                           @ ../../../Library/StdDriver/src/crypto.c:0:9
	str	r0, [sp]                        @ 4-byte Spill
	ldr	r0, __arm_cp.29_2
	mov	r1, r4
.Ltmp467:
.LBB29_7:                               @ =>This Inner Loop Header: Depth=1
	@DEBUG_VALUE: ECC_VerifySignature:ecc_curve <- [DW_OP_plus_uconst 20] [$sp+0]
	@DEBUG_VALUE: ECC_VerifySignature:public_k1 <- [DW_OP_plus_uconst 8] [$sp+0]
	@DEBUG_VALUE: ECC_VerifySignature:message <- [DW_OP_plus_uconst 16] [$sp+0]
	@DEBUG_VALUE: ECC_VerifySignature:crpt <- $r5
	@DEBUG_VALUE: ECC_VerifySignature:public_k2 <- [DW_OP_plus_uconst 336] [$sp+0]
	@DEBUG_VALUE: ECC_VerifySignature:R <- [DW_OP_plus_uconst 340] [$sp+0]
	@DEBUG_VALUE: ECC_VerifySignature:S <- [DW_OP_plus_uconst 344] [$sp+0]
	@DEBUG_VALUE: ECC_VerifySignature:i <- undef
	.loc	3 1485 29 is_stmt 1             @ ../../../Library/StdDriver/src/crypto.c:1485:29
	str	r4, [r1, r0]
.Ltmp468:
	@DEBUG_VALUE: ECC_VerifySignature:i <- [DW_OP_plus_uconst 1, DW_OP_stack_value] undef
	.loc	3 1483 22                       @ ../../../Library/StdDriver/src/crypto.c:1483:22
	adds	r1, r1, #4
.Ltmp469:
	.loc	3 1483 9 is_stmt 0              @ ../../../Library/StdDriver/src/crypto.c:1483:9
	cmp	r1, #72
	bne	.LBB29_7
.Ltmp470:
@ %bb.8:
	@DEBUG_VALUE: ECC_VerifySignature:ecc_curve <- [DW_OP_plus_uconst 20] [$sp+0]
	@DEBUG_VALUE: ECC_VerifySignature:public_k1 <- [DW_OP_plus_uconst 8] [$sp+0]
	@DEBUG_VALUE: ECC_VerifySignature:message <- [DW_OP_plus_uconst 16] [$sp+0]
	@DEBUG_VALUE: ECC_VerifySignature:crpt <- $r5
	@DEBUG_VALUE: ECC_VerifySignature:public_k2 <- [DW_OP_plus_uconst 336] [$sp+0]
	@DEBUG_VALUE: ECC_VerifySignature:R <- [DW_OP_plus_uconst 340] [$sp+0]
	@DEBUG_VALUE: ECC_VerifySignature:S <- [DW_OP_plus_uconst 344] [$sp+0]
	.loc	3 0 9                           @ ../../../Library/StdDriver/src/crypto.c:0:9
	ldr	r0, __arm_cp.29_3
	mov	r4, r5
	.loc	3 1487 20 is_stmt 1             @ ../../../Library/StdDriver/src/crypto.c:1487:20
	adds	r5, r5, r0
.Ltmp471:
	.loc	3 1487 9 is_stmt 0              @ ../../../Library/StdDriver/src/crypto.c:1487:9
	ldr	r0, [sp, #24]                   @ 4-byte Reload
	mov	r1, r5
	bl	Hex2Reg
	str	r4, [sp, #24]                   @ 4-byte Spill
	.loc	3 1489 9 is_stmt 1              @ ../../../Library/StdDriver/src/crypto.c:1489:9
	mov	r0, r4
	movw	r1, #512
	bl	run_ecc_codec
.Ltmp472:
	@DEBUG_VALUE: ECC_VerifySignature:i <- 0
	.loc	3 0 9 is_stmt 0                 @ ../../../Library/StdDriver/src/crypto.c:0:9
	mov	r0, r6
.Ltmp473:
.LBB29_9:                               @ =>This Inner Loop Header: Depth=1
	@DEBUG_VALUE: ECC_VerifySignature:ecc_curve <- [DW_OP_plus_uconst 20] [$sp+0]
	@DEBUG_VALUE: ECC_VerifySignature:public_k1 <- [DW_OP_plus_uconst 8] [$sp+0]
	@DEBUG_VALUE: ECC_VerifySignature:message <- [DW_OP_plus_uconst 16] [$sp+0]
	@DEBUG_VALUE: ECC_VerifySignature:public_k2 <- [DW_OP_plus_uconst 336] [$sp+0]
	@DEBUG_VALUE: ECC_VerifySignature:R <- [DW_OP_plus_uconst 340] [$sp+0]
	@DEBUG_VALUE: ECC_VerifySignature:S <- [DW_OP_plus_uconst 344] [$sp+0]
	@DEBUG_VALUE: ECC_VerifySignature:i <- undef
	add	r1, sp, #172
.Ltmp474:
	.loc	3 1494 29 is_stmt 1             @ ../../../Library/StdDriver/src/crypto.c:1494:29
	adds	r1, r1, r0
	.loc	3 1494 31 is_stmt 0             @ ../../../Library/StdDriver/src/crypto.c:1494:31
	adds	r2, r5, r0
	ldr	r2, [r2, #72]
	.loc	3 1494 29                       @ ../../../Library/StdDriver/src/crypto.c:1494:29
	str	r2, [r1, #72]
.Ltmp475:
	@DEBUG_VALUE: ECC_VerifySignature:i <- [DW_OP_plus_uconst 1, DW_OP_stack_value] undef
	.loc	3 1492 22 is_stmt 1             @ ../../../Library/StdDriver/src/crypto.c:1492:22
	adds	r0, r0, #4
.Ltmp476:
	.loc	3 1492 9 is_stmt 0              @ ../../../Library/StdDriver/src/crypto.c:1492:9
	bne	.LBB29_9
.Ltmp477:
@ %bb.10:
	@DEBUG_VALUE: ECC_VerifySignature:ecc_curve <- [DW_OP_plus_uconst 20] [$sp+0]
	@DEBUG_VALUE: ECC_VerifySignature:public_k1 <- [DW_OP_plus_uconst 8] [$sp+0]
	@DEBUG_VALUE: ECC_VerifySignature:message <- [DW_OP_plus_uconst 16] [$sp+0]
	@DEBUG_VALUE: ECC_VerifySignature:public_k2 <- [DW_OP_plus_uconst 336] [$sp+0]
	@DEBUG_VALUE: ECC_VerifySignature:R <- [DW_OP_plus_uconst 340] [$sp+0]
	@DEBUG_VALUE: ECC_VerifySignature:S <- [DW_OP_plus_uconst 344] [$sp+0]
	.loc	3 0 9                           @ ../../../Library/StdDriver/src/crypto.c:0:9
	movs	r4, #0
	mov	r0, r6
.Ltmp478:
.LBB29_11:                              @ =>This Inner Loop Header: Depth=1
	@DEBUG_VALUE: ECC_VerifySignature:ecc_curve <- [DW_OP_plus_uconst 20] [$sp+0]
	@DEBUG_VALUE: ECC_VerifySignature:public_k1 <- [DW_OP_plus_uconst 8] [$sp+0]
	@DEBUG_VALUE: ECC_VerifySignature:message <- [DW_OP_plus_uconst 16] [$sp+0]
	@DEBUG_VALUE: ECC_VerifySignature:public_k2 <- [DW_OP_plus_uconst 336] [$sp+0]
	@DEBUG_VALUE: ECC_VerifySignature:R <- [DW_OP_plus_uconst 340] [$sp+0]
	@DEBUG_VALUE: ECC_VerifySignature:S <- [DW_OP_plus_uconst 344] [$sp+0]
	@DEBUG_VALUE: ECC_VerifySignature:i <- undef
	.loc	3 1525 28 is_stmt 1             @ ../../../Library/StdDriver/src/crypto.c:1525:28
	adds	r1, r7, r0
	str	r4, [r1, #72]
.Ltmp479:
	@DEBUG_VALUE: ECC_VerifySignature:i <- [DW_OP_plus_uconst 1, DW_OP_stack_value] undef
	.loc	3 1523 22                       @ ../../../Library/StdDriver/src/crypto.c:1523:22
	adds	r0, r0, #4
.Ltmp480:
	.loc	3 1523 9 is_stmt 0              @ ../../../Library/StdDriver/src/crypto.c:1523:9
	bne	.LBB29_11
.Ltmp481:
@ %bb.12:
	@DEBUG_VALUE: ECC_VerifySignature:ecc_curve <- [DW_OP_plus_uconst 20] [$sp+0]
	@DEBUG_VALUE: ECC_VerifySignature:public_k1 <- [DW_OP_plus_uconst 8] [$sp+0]
	@DEBUG_VALUE: ECC_VerifySignature:message <- [DW_OP_plus_uconst 16] [$sp+0]
	@DEBUG_VALUE: ECC_VerifySignature:public_k2 <- [DW_OP_plus_uconst 336] [$sp+0]
	@DEBUG_VALUE: ECC_VerifySignature:R <- [DW_OP_plus_uconst 340] [$sp+0]
	@DEBUG_VALUE: ECC_VerifySignature:S <- [DW_OP_plus_uconst 344] [$sp+0]
	.loc	3 1527 17 is_stmt 1             @ ../../../Library/StdDriver/src/crypto.c:1527:17
	ldr	r0, __arm_cp.29_1
	ldr	r0, [r0]
	movw	r1, #768
	adds	r0, r0, r1
	.loc	3 1527 9 is_stmt 0              @ ../../../Library/StdDriver/src/crypto.c:1527:9
	mov	r1, r7
	bl	Hex2Reg
.Ltmp482:
	@DEBUG_VALUE: ECC_VerifySignature:i <- 0
	.loc	3 0 9                           @ ../../../Library/StdDriver/src/crypto.c:0:9
	mov	r0, r6
.Ltmp483:
.LBB29_13:                              @ =>This Inner Loop Header: Depth=1
	@DEBUG_VALUE: ECC_VerifySignature:ecc_curve <- [DW_OP_plus_uconst 20] [$sp+0]
	@DEBUG_VALUE: ECC_VerifySignature:public_k1 <- [DW_OP_plus_uconst 8] [$sp+0]
	@DEBUG_VALUE: ECC_VerifySignature:message <- [DW_OP_plus_uconst 16] [$sp+0]
	@DEBUG_VALUE: ECC_VerifySignature:public_k2 <- [DW_OP_plus_uconst 336] [$sp+0]
	@DEBUG_VALUE: ECC_VerifySignature:R <- [DW_OP_plus_uconst 340] [$sp+0]
	@DEBUG_VALUE: ECC_VerifySignature:S <- [DW_OP_plus_uconst 344] [$sp+0]
	@DEBUG_VALUE: ECC_VerifySignature:i <- undef
	.loc	3 1532 29 is_stmt 1             @ ../../../Library/StdDriver/src/crypto.c:1532:29
	adds	r1, r5, r0
	str	r4, [r1, #72]
.Ltmp484:
	@DEBUG_VALUE: ECC_VerifySignature:i <- [DW_OP_plus_uconst 1, DW_OP_stack_value] undef
	.loc	3 1530 22                       @ ../../../Library/StdDriver/src/crypto.c:1530:22
	adds	r0, r0, #4
.Ltmp485:
	.loc	3 1530 9 is_stmt 0              @ ../../../Library/StdDriver/src/crypto.c:1530:9
	bne	.LBB29_13
.Ltmp486:
@ %bb.14:
	@DEBUG_VALUE: ECC_VerifySignature:ecc_curve <- [DW_OP_plus_uconst 20] [$sp+0]
	@DEBUG_VALUE: ECC_VerifySignature:public_k1 <- [DW_OP_plus_uconst 8] [$sp+0]
	@DEBUG_VALUE: ECC_VerifySignature:message <- [DW_OP_plus_uconst 16] [$sp+0]
	@DEBUG_VALUE: ECC_VerifySignature:public_k2 <- [DW_OP_plus_uconst 336] [$sp+0]
	@DEBUG_VALUE: ECC_VerifySignature:R <- [DW_OP_plus_uconst 340] [$sp+0]
	@DEBUG_VALUE: ECC_VerifySignature:S <- [DW_OP_plus_uconst 344] [$sp+0]
	.loc	3 1534 9 is_stmt 1              @ ../../../Library/StdDriver/src/crypto.c:1534:9
	ldr	r0, [sp, #16]                   @ 4-byte Reload
.Ltmp487:
	@DEBUG_VALUE: ECC_VerifySignature:message <- $r0
	mov	r1, r5
	bl	Hex2Reg
.Ltmp488:
	.loc	3 0 9 is_stmt 0                 @ ../../../Library/StdDriver/src/crypto.c:0:9
	movw	r0, #2128
.Ltmp489:
	@DEBUG_VALUE: ECC_VerifySignature:i <- 0
	.loc	3 1536 9 is_stmt 1              @ ../../../Library/StdDriver/src/crypto.c:1536:9
	ldr	r1, [sp, #24]                   @ 4-byte Reload
	adds	r0, r1, r0
	mov	r1, r6
.Ltmp490:
.LBB29_15:                              @ =>This Inner Loop Header: Depth=1
	@DEBUG_VALUE: ECC_VerifySignature:ecc_curve <- [DW_OP_plus_uconst 20] [$sp+0]
	@DEBUG_VALUE: ECC_VerifySignature:public_k1 <- [DW_OP_plus_uconst 8] [$sp+0]
	@DEBUG_VALUE: ECC_VerifySignature:public_k2 <- [DW_OP_plus_uconst 336] [$sp+0]
	@DEBUG_VALUE: ECC_VerifySignature:R <- [DW_OP_plus_uconst 340] [$sp+0]
	@DEBUG_VALUE: ECC_VerifySignature:S <- [DW_OP_plus_uconst 344] [$sp+0]
	@DEBUG_VALUE: ECC_VerifySignature:i <- undef
	.loc	3 1538 29                       @ ../../../Library/StdDriver/src/crypto.c:1538:29
	adds	r2, r0, r1
	add	r3, sp, #172
	.loc	3 1538 31 is_stmt 0             @ ../../../Library/StdDriver/src/crypto.c:1538:31
	adds	r3, r3, r1
	ldr	r3, [r3, #72]
	.loc	3 1538 29                       @ ../../../Library/StdDriver/src/crypto.c:1538:29
	str	r3, [r2, #72]
.Ltmp491:
	@DEBUG_VALUE: ECC_VerifySignature:i <- [DW_OP_plus_uconst 1, DW_OP_stack_value] undef
	.loc	3 1536 22 is_stmt 1             @ ../../../Library/StdDriver/src/crypto.c:1536:22
	adds	r1, r1, #4
.Ltmp492:
	.loc	3 1536 9 is_stmt 0              @ ../../../Library/StdDriver/src/crypto.c:1536:9
	bne	.LBB29_15
.Ltmp493:
@ %bb.16:
	@DEBUG_VALUE: ECC_VerifySignature:ecc_curve <- [DW_OP_plus_uconst 20] [$sp+0]
	@DEBUG_VALUE: ECC_VerifySignature:public_k1 <- [DW_OP_plus_uconst 8] [$sp+0]
	@DEBUG_VALUE: ECC_VerifySignature:public_k2 <- [DW_OP_plus_uconst 336] [$sp+0]
	@DEBUG_VALUE: ECC_VerifySignature:R <- [DW_OP_plus_uconst 340] [$sp+0]
	@DEBUG_VALUE: ECC_VerifySignature:S <- [DW_OP_plus_uconst 344] [$sp+0]
	.loc	3 1541 9 is_stmt 1              @ ../../../Library/StdDriver/src/crypto.c:1541:9
	ldr	r0, [sp, #24]                   @ 4-byte Reload
	movw	r1, #2560
	bl	run_ecc_codec
.Ltmp494:
	@DEBUG_VALUE: ECC_VerifySignature:i <- 0
	.loc	3 0 9 is_stmt 0                 @ ../../../Library/StdDriver/src/crypto.c:0:9
	mov	r0, r6
.Ltmp495:
.LBB29_17:                              @ =>This Inner Loop Header: Depth=1
	@DEBUG_VALUE: ECC_VerifySignature:ecc_curve <- [DW_OP_plus_uconst 20] [$sp+0]
	@DEBUG_VALUE: ECC_VerifySignature:public_k1 <- [DW_OP_plus_uconst 8] [$sp+0]
	@DEBUG_VALUE: ECC_VerifySignature:public_k2 <- [DW_OP_plus_uconst 336] [$sp+0]
	@DEBUG_VALUE: ECC_VerifySignature:R <- [DW_OP_plus_uconst 340] [$sp+0]
	@DEBUG_VALUE: ECC_VerifySignature:S <- [DW_OP_plus_uconst 344] [$sp+0]
	@DEBUG_VALUE: ECC_VerifySignature:i <- undef
	add	r1, sp, #244
.Ltmp496:
	.loc	3 1546 29 is_stmt 1             @ ../../../Library/StdDriver/src/crypto.c:1546:29
	adds	r1, r1, r0
	.loc	3 1546 31 is_stmt 0             @ ../../../Library/StdDriver/src/crypto.c:1546:31
	adds	r2, r5, r0
	ldr	r2, [r2, #72]
	.loc	3 1546 29                       @ ../../../Library/StdDriver/src/crypto.c:1546:29
	str	r2, [r1, #72]
.Ltmp497:
	@DEBUG_VALUE: ECC_VerifySignature:i <- [DW_OP_plus_uconst 1, DW_OP_stack_value] undef
	.loc	3 1544 22 is_stmt 1             @ ../../../Library/StdDriver/src/crypto.c:1544:22
	adds	r0, r0, #4
.Ltmp498:
	.loc	3 1544 9 is_stmt 0              @ ../../../Library/StdDriver/src/crypto.c:1544:9
	bne	.LBB29_17
.Ltmp499:
@ %bb.18:
	@DEBUG_VALUE: ECC_VerifySignature:ecc_curve <- [DW_OP_plus_uconst 20] [$sp+0]
	@DEBUG_VALUE: ECC_VerifySignature:public_k1 <- [DW_OP_plus_uconst 8] [$sp+0]
	@DEBUG_VALUE: ECC_VerifySignature:public_k2 <- [DW_OP_plus_uconst 336] [$sp+0]
	@DEBUG_VALUE: ECC_VerifySignature:R <- [DW_OP_plus_uconst 340] [$sp+0]
	@DEBUG_VALUE: ECC_VerifySignature:S <- [DW_OP_plus_uconst 344] [$sp+0]
	.loc	3 0 9                           @ ../../../Library/StdDriver/src/crypto.c:0:9
	mov	r0, r6
.Ltmp500:
.LBB29_19:                              @ =>This Inner Loop Header: Depth=1
	@DEBUG_VALUE: ECC_VerifySignature:ecc_curve <- [DW_OP_plus_uconst 20] [$sp+0]
	@DEBUG_VALUE: ECC_VerifySignature:public_k1 <- [DW_OP_plus_uconst 8] [$sp+0]
	@DEBUG_VALUE: ECC_VerifySignature:public_k2 <- [DW_OP_plus_uconst 336] [$sp+0]
	@DEBUG_VALUE: ECC_VerifySignature:R <- [DW_OP_plus_uconst 340] [$sp+0]
	@DEBUG_VALUE: ECC_VerifySignature:S <- [DW_OP_plus_uconst 344] [$sp+0]
	@DEBUG_VALUE: ECC_VerifySignature:i <- undef
	.loc	3 1557 28 is_stmt 1             @ ../../../Library/StdDriver/src/crypto.c:1557:28
	adds	r1, r7, r0
	str	r4, [r1, #72]
.Ltmp501:
	@DEBUG_VALUE: ECC_VerifySignature:i <- [DW_OP_plus_uconst 1, DW_OP_stack_value] undef
	.loc	3 1555 22                       @ ../../../Library/StdDriver/src/crypto.c:1555:22
	adds	r0, r0, #4
.Ltmp502:
	.loc	3 1555 9 is_stmt 0              @ ../../../Library/StdDriver/src/crypto.c:1555:9
	bne	.LBB29_19
.Ltmp503:
@ %bb.20:
	@DEBUG_VALUE: ECC_VerifySignature:ecc_curve <- [DW_OP_plus_uconst 20] [$sp+0]
	@DEBUG_VALUE: ECC_VerifySignature:public_k1 <- [DW_OP_plus_uconst 8] [$sp+0]
	@DEBUG_VALUE: ECC_VerifySignature:public_k2 <- [DW_OP_plus_uconst 336] [$sp+0]
	@DEBUG_VALUE: ECC_VerifySignature:R <- [DW_OP_plus_uconst 340] [$sp+0]
	@DEBUG_VALUE: ECC_VerifySignature:S <- [DW_OP_plus_uconst 344] [$sp+0]
	.loc	3 1559 17 is_stmt 1             @ ../../../Library/StdDriver/src/crypto.c:1559:17
	ldr	r0, __arm_cp.29_1
	ldr	r0, [r0]
	movw	r1, #768
	adds	r0, r0, r1
	.loc	3 1559 9 is_stmt 0              @ ../../../Library/StdDriver/src/crypto.c:1559:9
	mov	r1, r7
	bl	Hex2Reg
.Ltmp504:
	@DEBUG_VALUE: ECC_VerifySignature:i <- 0
	.loc	3 0 9                           @ ../../../Library/StdDriver/src/crypto.c:0:9
	mov	r0, r6
.Ltmp505:
.LBB29_21:                              @ =>This Inner Loop Header: Depth=1
	@DEBUG_VALUE: ECC_VerifySignature:ecc_curve <- [DW_OP_plus_uconst 20] [$sp+0]
	@DEBUG_VALUE: ECC_VerifySignature:public_k1 <- [DW_OP_plus_uconst 8] [$sp+0]
	@DEBUG_VALUE: ECC_VerifySignature:public_k2 <- [DW_OP_plus_uconst 336] [$sp+0]
	@DEBUG_VALUE: ECC_VerifySignature:R <- [DW_OP_plus_uconst 340] [$sp+0]
	@DEBUG_VALUE: ECC_VerifySignature:S <- [DW_OP_plus_uconst 344] [$sp+0]
	@DEBUG_VALUE: ECC_VerifySignature:i <- undef
	.loc	3 1564 29 is_stmt 1             @ ../../../Library/StdDriver/src/crypto.c:1564:29
	adds	r1, r5, r0
	str	r4, [r1, #72]
.Ltmp506:
	@DEBUG_VALUE: ECC_VerifySignature:i <- [DW_OP_plus_uconst 1, DW_OP_stack_value] undef
	.loc	3 1562 22                       @ ../../../Library/StdDriver/src/crypto.c:1562:22
	adds	r0, r0, #4
.Ltmp507:
	.loc	3 1562 9 is_stmt 0              @ ../../../Library/StdDriver/src/crypto.c:1562:9
	bne	.LBB29_21
.Ltmp508:
@ %bb.22:
	@DEBUG_VALUE: ECC_VerifySignature:ecc_curve <- [DW_OP_plus_uconst 20] [$sp+0]
	@DEBUG_VALUE: ECC_VerifySignature:public_k1 <- [DW_OP_plus_uconst 8] [$sp+0]
	@DEBUG_VALUE: ECC_VerifySignature:public_k2 <- [DW_OP_plus_uconst 336] [$sp+0]
	@DEBUG_VALUE: ECC_VerifySignature:R <- [DW_OP_plus_uconst 340] [$sp+0]
	@DEBUG_VALUE: ECC_VerifySignature:S <- [DW_OP_plus_uconst 344] [$sp+0]
	.loc	3 1566 9 is_stmt 1              @ ../../../Library/StdDriver/src/crypto.c:1566:9
	ldr	r0, [sp, #12]                   @ 4-byte Reload
	mov	r1, r5
	bl	Hex2Reg
	movw	r0, #2128
.Ltmp509:
	@DEBUG_VALUE: ECC_VerifySignature:i <- 0
	.loc	3 1568 9                        @ ../../../Library/StdDriver/src/crypto.c:1568:9
	ldr	r1, [sp, #24]                   @ 4-byte Reload
	adds	r0, r1, r0
	mov	r1, r6
.Ltmp510:
.LBB29_23:                              @ =>This Inner Loop Header: Depth=1
	@DEBUG_VALUE: ECC_VerifySignature:ecc_curve <- [DW_OP_plus_uconst 20] [$sp+0]
	@DEBUG_VALUE: ECC_VerifySignature:public_k1 <- [DW_OP_plus_uconst 8] [$sp+0]
	@DEBUG_VALUE: ECC_VerifySignature:public_k2 <- [DW_OP_plus_uconst 336] [$sp+0]
	@DEBUG_VALUE: ECC_VerifySignature:R <- [DW_OP_plus_uconst 340] [$sp+0]
	@DEBUG_VALUE: ECC_VerifySignature:S <- [DW_OP_plus_uconst 344] [$sp+0]
	@DEBUG_VALUE: ECC_VerifySignature:i <- undef
	.loc	3 1570 29                       @ ../../../Library/StdDriver/src/crypto.c:1570:29
	adds	r2, r0, r1
	add	r3, sp, #172
	.loc	3 1570 31 is_stmt 0             @ ../../../Library/StdDriver/src/crypto.c:1570:31
	adds	r3, r3, r1
	ldr	r3, [r3, #72]
	.loc	3 1570 29                       @ ../../../Library/StdDriver/src/crypto.c:1570:29
	str	r3, [r2, #72]
.Ltmp511:
	@DEBUG_VALUE: ECC_VerifySignature:i <- [DW_OP_plus_uconst 1, DW_OP_stack_value] undef
	.loc	3 1568 22 is_stmt 1             @ ../../../Library/StdDriver/src/crypto.c:1568:22
	adds	r1, r1, #4
.Ltmp512:
	.loc	3 1568 9 is_stmt 0              @ ../../../Library/StdDriver/src/crypto.c:1568:9
	bne	.LBB29_23
.Ltmp513:
@ %bb.24:
	@DEBUG_VALUE: ECC_VerifySignature:ecc_curve <- [DW_OP_plus_uconst 20] [$sp+0]
	@DEBUG_VALUE: ECC_VerifySignature:public_k1 <- [DW_OP_plus_uconst 8] [$sp+0]
	@DEBUG_VALUE: ECC_VerifySignature:public_k2 <- [DW_OP_plus_uconst 336] [$sp+0]
	@DEBUG_VALUE: ECC_VerifySignature:R <- [DW_OP_plus_uconst 340] [$sp+0]
	@DEBUG_VALUE: ECC_VerifySignature:S <- [DW_OP_plus_uconst 344] [$sp+0]
	.loc	3 1573 9 is_stmt 1              @ ../../../Library/StdDriver/src/crypto.c:1573:9
	ldr	r0, [sp, #24]                   @ 4-byte Reload
	movw	r1, #2560
	bl	run_ecc_codec
.Ltmp514:
	@DEBUG_VALUE: ECC_VerifySignature:i <- 0
	.loc	3 0 9 is_stmt 0                 @ ../../../Library/StdDriver/src/crypto.c:0:9
	mov	r0, r6
.Ltmp515:
.LBB29_25:                              @ =>This Inner Loop Header: Depth=1
	@DEBUG_VALUE: ECC_VerifySignature:ecc_curve <- [DW_OP_plus_uconst 20] [$sp+0]
	@DEBUG_VALUE: ECC_VerifySignature:public_k1 <- [DW_OP_plus_uconst 8] [$sp+0]
	@DEBUG_VALUE: ECC_VerifySignature:public_k2 <- [DW_OP_plus_uconst 336] [$sp+0]
	@DEBUG_VALUE: ECC_VerifySignature:R <- [DW_OP_plus_uconst 340] [$sp+0]
	@DEBUG_VALUE: ECC_VerifySignature:S <- [DW_OP_plus_uconst 344] [$sp+0]
	@DEBUG_VALUE: ECC_VerifySignature:i <- undef
	add	r1, sp, #172
.Ltmp516:
	.loc	3 1578 29 is_stmt 1             @ ../../../Library/StdDriver/src/crypto.c:1578:29
	adds	r1, r1, r0
	.loc	3 1578 31 is_stmt 0             @ ../../../Library/StdDriver/src/crypto.c:1578:31
	adds	r2, r5, r0
	ldr	r2, [r2, #72]
	.loc	3 1578 29                       @ ../../../Library/StdDriver/src/crypto.c:1578:29
	str	r2, [r1, #72]
.Ltmp517:
	@DEBUG_VALUE: ECC_VerifySignature:i <- [DW_OP_plus_uconst 1, DW_OP_stack_value] undef
	.loc	3 1576 22 is_stmt 1             @ ../../../Library/StdDriver/src/crypto.c:1576:22
	adds	r0, r0, #4
.Ltmp518:
	.loc	3 1576 9 is_stmt 0              @ ../../../Library/StdDriver/src/crypto.c:1576:9
	bne	.LBB29_25
.Ltmp519:
@ %bb.26:
	@DEBUG_VALUE: ECC_VerifySignature:ecc_curve <- [DW_OP_plus_uconst 20] [$sp+0]
	@DEBUG_VALUE: ECC_VerifySignature:public_k1 <- [DW_OP_plus_uconst 8] [$sp+0]
	@DEBUG_VALUE: ECC_VerifySignature:public_k2 <- [DW_OP_plus_uconst 336] [$sp+0]
	@DEBUG_VALUE: ECC_VerifySignature:R <- [DW_OP_plus_uconst 340] [$sp+0]
	@DEBUG_VALUE: ECC_VerifySignature:S <- [DW_OP_plus_uconst 344] [$sp+0]
	.loc	3 0 9                           @ ../../../Library/StdDriver/src/crypto.c:0:9
	ldr	r4, [sp, #24]                   @ 4-byte Reload
	.loc	3 1623 9 is_stmt 1              @ ../../../Library/StdDriver/src/crypto.c:1623:9
	mov	r0, r4
	ldr	r1, [sp, #20]                   @ 4-byte Reload
.Ltmp520:
	@DEBUG_VALUE: ECC_VerifySignature:ecc_curve <- $r1
	bl	ecc_init_curve
.Ltmp521:
	.loc	3 0 9 is_stmt 0                 @ ../../../Library/StdDriver/src/crypto.c:0:9
	movw	r0, #2560
.Ltmp522:
	@DEBUG_VALUE: ECC_VerifySignature:i <- 0
	.loc	3 1626 9 is_stmt 1              @ ../../../Library/StdDriver/src/crypto.c:1626:9
	adds	r0, r4, r0
	str	r6, [sp, #16]                   @ 4-byte Spill
	mov	r1, r6
.Ltmp523:
.LBB29_27:                              @ =>This Inner Loop Header: Depth=1
	@DEBUG_VALUE: ECC_VerifySignature:public_k1 <- [DW_OP_plus_uconst 8] [$sp+0]
	@DEBUG_VALUE: ECC_VerifySignature:public_k2 <- [DW_OP_plus_uconst 336] [$sp+0]
	@DEBUG_VALUE: ECC_VerifySignature:R <- [DW_OP_plus_uconst 340] [$sp+0]
	@DEBUG_VALUE: ECC_VerifySignature:S <- [DW_OP_plus_uconst 344] [$sp+0]
	@DEBUG_VALUE: ECC_VerifySignature:i <- undef
	.loc	3 1628 28                       @ ../../../Library/StdDriver/src/crypto.c:1628:28
	adds	r2, r0, r1
	add	r3, sp, #244
	.loc	3 1628 30 is_stmt 0             @ ../../../Library/StdDriver/src/crypto.c:1628:30
	adds	r3, r3, r1
	ldr	r3, [r3, #72]
	.loc	3 1628 28                       @ ../../../Library/StdDriver/src/crypto.c:1628:28
	str	r3, [r2, #72]
.Ltmp524:
	@DEBUG_VALUE: ECC_VerifySignature:i <- [DW_OP_plus_uconst 1, DW_OP_stack_value] undef
	.loc	3 1626 22 is_stmt 1             @ ../../../Library/StdDriver/src/crypto.c:1626:22
	adds	r1, r1, #4
.Ltmp525:
	.loc	3 1626 9 is_stmt 0              @ ../../../Library/StdDriver/src/crypto.c:1626:9
	bne	.LBB29_27
.Ltmp526:
@ %bb.28:
	@DEBUG_VALUE: ECC_VerifySignature:public_k1 <- [DW_OP_plus_uconst 8] [$sp+0]
	@DEBUG_VALUE: ECC_VerifySignature:public_k2 <- [DW_OP_plus_uconst 336] [$sp+0]
	@DEBUG_VALUE: ECC_VerifySignature:R <- [DW_OP_plus_uconst 340] [$sp+0]
	@DEBUG_VALUE: ECC_VerifySignature:S <- [DW_OP_plus_uconst 344] [$sp+0]
	.loc	3 0 9                           @ ../../../Library/StdDriver/src/crypto.c:0:9
	movs	r4, #0
	.loc	3 1631 9 is_stmt 1              @ ../../../Library/StdDriver/src/crypto.c:1631:9
	ldr	r0, [sp, #24]                   @ 4-byte Reload
	mov	r1, r4
	bl	run_ecc_codec
.Ltmp527:
	@DEBUG_VALUE: ECC_VerifySignature:i <- 0
	.loc	3 0 9 is_stmt 0                 @ ../../../Library/StdDriver/src/crypto.c:0:9
	movs	r0, #18
	add	r1, sp, #28
	add	r2, sp, #100
	mov	r3, r5
.Ltmp528:
.LBB29_29:                              @ =>This Inner Loop Header: Depth=1
	@DEBUG_VALUE: ECC_VerifySignature:public_k1 <- [DW_OP_plus_uconst 8] [$sp+0]
	@DEBUG_VALUE: ECC_VerifySignature:public_k2 <- [DW_OP_plus_uconst 336] [$sp+0]
	@DEBUG_VALUE: ECC_VerifySignature:R <- [DW_OP_plus_uconst 340] [$sp+0]
	@DEBUG_VALUE: ECC_VerifySignature:S <- [DW_OP_plus_uconst 344] [$sp+0]
	@DEBUG_VALUE: ECC_VerifySignature:i <- undef
	.loc	3 1636 25 is_stmt 1             @ ../../../Library/StdDriver/src/crypto.c:1636:25
	ldr	r6, [r3]
	.loc	3 1636 23 is_stmt 0             @ ../../../Library/StdDriver/src/crypto.c:1636:23
	stm	r2!, {r6}
	.loc	3 1637 25 is_stmt 1             @ ../../../Library/StdDriver/src/crypto.c:1637:25
	ldr	r6, [r3, #72]
	.loc	3 1637 23 is_stmt 0             @ ../../../Library/StdDriver/src/crypto.c:1637:23
	stm	r1!, {r6}
.Ltmp529:
	.loc	3 1634 22 is_stmt 1             @ ../../../Library/StdDriver/src/crypto.c:1634:22
	adds	r3, r3, #4
.Ltmp530:
	@DEBUG_VALUE: ECC_VerifySignature:i <- [DW_OP_plus_uconst 1, DW_OP_stack_value] undef
	subs	r0, r0, #1
.Ltmp531:
	.loc	3 1634 9 is_stmt 0              @ ../../../Library/StdDriver/src/crypto.c:1634:9
	bne	.LBB29_29
.Ltmp532:
@ %bb.30:
	@DEBUG_VALUE: ECC_VerifySignature:public_k1 <- [DW_OP_plus_uconst 8] [$sp+0]
	@DEBUG_VALUE: ECC_VerifySignature:public_k2 <- [DW_OP_plus_uconst 336] [$sp+0]
	@DEBUG_VALUE: ECC_VerifySignature:R <- [DW_OP_plus_uconst 340] [$sp+0]
	@DEBUG_VALUE: ECC_VerifySignature:S <- [DW_OP_plus_uconst 344] [$sp+0]
	.loc	3 0 9                           @ ../../../Library/StdDriver/src/crypto.c:0:9
	ldr	r6, [sp, #24]                   @ 4-byte Reload
	.loc	3 1648 9 is_stmt 1              @ ../../../Library/StdDriver/src/crypto.c:1648:9
	mov	r0, r6
	ldr	r1, [sp, #20]                   @ 4-byte Reload
	bl	ecc_init_curve
.Ltmp533:
	@DEBUG_VALUE: ECC_VerifySignature:i <- 0
	.loc	3 1651 9                        @ ../../../Library/StdDriver/src/crypto.c:1651:9
	ldr	r0, __arm_cp.29_3
	adds	r0, r6, r0
	movs	r1, #18
.Ltmp534:
.LBB29_31:                              @ =>This Inner Loop Header: Depth=1
	@DEBUG_VALUE: ECC_VerifySignature:public_k1 <- [DW_OP_plus_uconst 8] [$sp+0]
	@DEBUG_VALUE: ECC_VerifySignature:public_k2 <- [DW_OP_plus_uconst 336] [$sp+0]
	@DEBUG_VALUE: ECC_VerifySignature:R <- [DW_OP_plus_uconst 340] [$sp+0]
	@DEBUG_VALUE: ECC_VerifySignature:S <- [DW_OP_plus_uconst 344] [$sp+0]
	@DEBUG_VALUE: ECC_VerifySignature:i <- undef
	.loc	3 1653 29                       @ ../../../Library/StdDriver/src/crypto.c:1653:29
	str	r4, [r0]
	.loc	3 1654 29                       @ ../../../Library/StdDriver/src/crypto.c:1654:29
	str	r4, [r0, #72]
.Ltmp535:
	.loc	3 1651 22                       @ ../../../Library/StdDriver/src/crypto.c:1651:22
	adds	r0, r0, #4
.Ltmp536:
	@DEBUG_VALUE: ECC_VerifySignature:i <- [DW_OP_plus_uconst 1, DW_OP_stack_value] undef
	subs	r1, r1, #1
.Ltmp537:
	.loc	3 1651 9 is_stmt 0              @ ../../../Library/StdDriver/src/crypto.c:1651:9
	bne	.LBB29_31
.Ltmp538:
@ %bb.32:
	@DEBUG_VALUE: ECC_VerifySignature:public_k1 <- [DW_OP_plus_uconst 8] [$sp+0]
	@DEBUG_VALUE: ECC_VerifySignature:public_k2 <- [DW_OP_plus_uconst 336] [$sp+0]
	@DEBUG_VALUE: ECC_VerifySignature:R <- [DW_OP_plus_uconst 340] [$sp+0]
	@DEBUG_VALUE: ECC_VerifySignature:S <- [DW_OP_plus_uconst 344] [$sp+0]
	.loc	3 1657 9 is_stmt 1              @ ../../../Library/StdDriver/src/crypto.c:1657:9
	ldr	r0, [sp, #8]                    @ 4-byte Reload
.Ltmp539:
	@DEBUG_VALUE: ECC_VerifySignature:public_k1 <- $r0
	mov	r1, r5
	bl	Hex2Reg
.Ltmp540:
	.loc	3 1658 9                        @ ../../../Library/StdDriver/src/crypto.c:1658:9
	ldr	r0, [sp, #4]                    @ 4-byte Reload
	ldr	r1, [sp]                        @ 4-byte Reload
	bl	Hex2Reg
	movw	r0, #2560
.Ltmp541:
	@DEBUG_VALUE: ECC_VerifySignature:i <- 0
	.loc	3 1661 9                        @ ../../../Library/StdDriver/src/crypto.c:1661:9
	ldr	r1, [sp, #24]                   @ 4-byte Reload
	adds	r0, r1, r0
	ldr	r1, [sp, #16]                   @ 4-byte Reload
.Ltmp542:
.LBB29_33:                              @ =>This Inner Loop Header: Depth=1
	@DEBUG_VALUE: ECC_VerifySignature:public_k2 <- [DW_OP_plus_uconst 336] [$sp+0]
	@DEBUG_VALUE: ECC_VerifySignature:R <- [DW_OP_plus_uconst 340] [$sp+0]
	@DEBUG_VALUE: ECC_VerifySignature:S <- [DW_OP_plus_uconst 344] [$sp+0]
	@DEBUG_VALUE: ECC_VerifySignature:i <- undef
	.loc	3 1663 28                       @ ../../../Library/StdDriver/src/crypto.c:1663:28
	adds	r2, r0, r1
	add	r3, sp, #172
	.loc	3 1663 30 is_stmt 0             @ ../../../Library/StdDriver/src/crypto.c:1663:30
	adds	r3, r3, r1
	ldr	r3, [r3, #72]
	.loc	3 1663 28                       @ ../../../Library/StdDriver/src/crypto.c:1663:28
	str	r3, [r2, #72]
.Ltmp543:
	@DEBUG_VALUE: ECC_VerifySignature:i <- [DW_OP_plus_uconst 1, DW_OP_stack_value] undef
	.loc	3 1661 22 is_stmt 1             @ ../../../Library/StdDriver/src/crypto.c:1661:22
	adds	r1, r1, #4
.Ltmp544:
	.loc	3 1661 9 is_stmt 0              @ ../../../Library/StdDriver/src/crypto.c:1661:9
	bne	.LBB29_33
.Ltmp545:
@ %bb.34:
	@DEBUG_VALUE: ECC_VerifySignature:public_k2 <- [DW_OP_plus_uconst 336] [$sp+0]
	@DEBUG_VALUE: ECC_VerifySignature:R <- [DW_OP_plus_uconst 340] [$sp+0]
	@DEBUG_VALUE: ECC_VerifySignature:S <- [DW_OP_plus_uconst 344] [$sp+0]
	.loc	3 0 9                           @ ../../../Library/StdDriver/src/crypto.c:0:9
	movs	r4, #0
	ldr	r6, [sp, #24]                   @ 4-byte Reload
	.loc	3 1666 9 is_stmt 1              @ ../../../Library/StdDriver/src/crypto.c:1666:9
	mov	r0, r6
	mov	r1, r4
	bl	run_ecc_codec
.Ltmp546:
	@DEBUG_VALUE: ECC_VerifySignature:i <- 0
	.loc	3 1668 9                        @ ../../../Library/StdDriver/src/crypto.c:1668:9
	ldr	r0, __arm_cp.29_3
	adds	r0, r6, r0
	movs	r1, #18
	add	r2, sp, #172
	add	r3, sp, #244
.Ltmp547:
.LBB29_35:                              @ =>This Inner Loop Header: Depth=1
	@DEBUG_VALUE: ECC_VerifySignature:public_k2 <- [DW_OP_plus_uconst 336] [$sp+0]
	@DEBUG_VALUE: ECC_VerifySignature:R <- [DW_OP_plus_uconst 340] [$sp+0]
	@DEBUG_VALUE: ECC_VerifySignature:S <- [DW_OP_plus_uconst 344] [$sp+0]
	@DEBUG_VALUE: ECC_VerifySignature:i <- undef
	.loc	3 1670 31                       @ ../../../Library/StdDriver/src/crypto.c:1670:31
	ldr	r6, [r0]
	.loc	3 1670 29 is_stmt 0             @ ../../../Library/StdDriver/src/crypto.c:1670:29
	stm	r3!, {r6}
	.loc	3 1671 31 is_stmt 1             @ ../../../Library/StdDriver/src/crypto.c:1671:31
	ldr	r6, [r0, #72]
	.loc	3 1671 29 is_stmt 0             @ ../../../Library/StdDriver/src/crypto.c:1671:29
	stm	r2!, {r6}
.Ltmp548:
	.loc	3 1668 22 is_stmt 1             @ ../../../Library/StdDriver/src/crypto.c:1668:22
	adds	r0, r0, #4
.Ltmp549:
	@DEBUG_VALUE: ECC_VerifySignature:i <- [DW_OP_plus_uconst 1, DW_OP_stack_value] undef
	subs	r1, r1, #1
.Ltmp550:
	.loc	3 1668 9 is_stmt 0              @ ../../../Library/StdDriver/src/crypto.c:1668:9
	bne	.LBB29_35
.Ltmp551:
@ %bb.36:
	@DEBUG_VALUE: ECC_VerifySignature:public_k2 <- [DW_OP_plus_uconst 336] [$sp+0]
	@DEBUG_VALUE: ECC_VerifySignature:R <- [DW_OP_plus_uconst 340] [$sp+0]
	@DEBUG_VALUE: ECC_VerifySignature:S <- [DW_OP_plus_uconst 344] [$sp+0]
	.loc	3 0 9                           @ ../../../Library/StdDriver/src/crypto.c:0:9
	ldr	r6, [sp, #24]                   @ 4-byte Reload
	.loc	3 1682 9 is_stmt 1              @ ../../../Library/StdDriver/src/crypto.c:1682:9
	mov	r0, r6
	ldr	r1, [sp, #20]                   @ 4-byte Reload
	bl	ecc_init_curve
.Ltmp552:
	@DEBUG_VALUE: ECC_VerifySignature:i <- 0
	.loc	3 1685 9                        @ ../../../Library/StdDriver/src/crypto.c:1685:9
	ldr	r0, __arm_cp.29_3
	adds	r0, r6, r0
	movs	r1, #18
	add	r2, sp, #172
	add	r3, sp, #244
.Ltmp553:
.LBB29_37:                              @ =>This Inner Loop Header: Depth=1
	@DEBUG_VALUE: ECC_VerifySignature:public_k2 <- [DW_OP_plus_uconst 336] [$sp+0]
	@DEBUG_VALUE: ECC_VerifySignature:R <- [DW_OP_plus_uconst 340] [$sp+0]
	@DEBUG_VALUE: ECC_VerifySignature:S <- [DW_OP_plus_uconst 344] [$sp+0]
	@DEBUG_VALUE: ECC_VerifySignature:i <- undef
	.loc	3 1687 31                       @ ../../../Library/StdDriver/src/crypto.c:1687:31
	ldm	r3!, {r6}
	.loc	3 1687 29 is_stmt 0             @ ../../../Library/StdDriver/src/crypto.c:1687:29
	str	r6, [r0]
	.loc	3 1688 31 is_stmt 1             @ ../../../Library/StdDriver/src/crypto.c:1688:31
	ldm	r2!, {r6}
	.loc	3 1688 29 is_stmt 0             @ ../../../Library/StdDriver/src/crypto.c:1688:29
	str	r6, [r0, #72]
.Ltmp554:
	.loc	3 1685 22 is_stmt 1             @ ../../../Library/StdDriver/src/crypto.c:1685:22
	adds	r0, r0, #4
.Ltmp555:
	@DEBUG_VALUE: ECC_VerifySignature:i <- [DW_OP_plus_uconst 1, DW_OP_stack_value] undef
	subs	r1, r1, #1
.Ltmp556:
	.loc	3 1685 9 is_stmt 0              @ ../../../Library/StdDriver/src/crypto.c:1685:9
	bne	.LBB29_37
.Ltmp557:
@ %bb.38:
	@DEBUG_VALUE: ECC_VerifySignature:public_k2 <- [DW_OP_plus_uconst 336] [$sp+0]
	@DEBUG_VALUE: ECC_VerifySignature:R <- [DW_OP_plus_uconst 340] [$sp+0]
	@DEBUG_VALUE: ECC_VerifySignature:S <- [DW_OP_plus_uconst 344] [$sp+0]
	.loc	3 0 9                           @ ../../../Library/StdDriver/src/crypto.c:0:9
	ldr	r0, __arm_cp.29_4
.Ltmp558:
	.loc	3 1692 9 is_stmt 1              @ ../../../Library/StdDriver/src/crypto.c:1692:9
	ldr	r1, [sp, #24]                   @ 4-byte Reload
	adds	r0, r1, r0
	movs	r1, #18
	add	r2, sp, #28
	add	r3, sp, #100
.Ltmp559:
.LBB29_39:                              @ =>This Inner Loop Header: Depth=1
	@DEBUG_VALUE: ECC_VerifySignature:public_k2 <- [DW_OP_plus_uconst 336] [$sp+0]
	@DEBUG_VALUE: ECC_VerifySignature:R <- [DW_OP_plus_uconst 340] [$sp+0]
	@DEBUG_VALUE: ECC_VerifySignature:S <- [DW_OP_plus_uconst 344] [$sp+0]
	@DEBUG_VALUE: ECC_VerifySignature:i <- undef
	.loc	3 1694 31                       @ ../../../Library/StdDriver/src/crypto.c:1694:31
	ldm	r3!, {r6}
	.loc	3 1694 29 is_stmt 0             @ ../../../Library/StdDriver/src/crypto.c:1694:29
	str	r6, [r0]
	.loc	3 1695 31 is_stmt 1             @ ../../../Library/StdDriver/src/crypto.c:1695:31
	ldm	r2!, {r6}
	.loc	3 1695 29 is_stmt 0             @ ../../../Library/StdDriver/src/crypto.c:1695:29
	str	r6, [r0, #72]
.Ltmp560:
	.loc	3 1692 22 is_stmt 1             @ ../../../Library/StdDriver/src/crypto.c:1692:22
	adds	r0, r0, #4
.Ltmp561:
	@DEBUG_VALUE: ECC_VerifySignature:i <- [DW_OP_plus_uconst 1, DW_OP_stack_value] undef
	subs	r1, r1, #1
.Ltmp562:
	.loc	3 1692 9 is_stmt 0              @ ../../../Library/StdDriver/src/crypto.c:1692:9
	bne	.LBB29_39
.Ltmp563:
@ %bb.40:
	@DEBUG_VALUE: ECC_VerifySignature:public_k2 <- [DW_OP_plus_uconst 336] [$sp+0]
	@DEBUG_VALUE: ECC_VerifySignature:R <- [DW_OP_plus_uconst 340] [$sp+0]
	@DEBUG_VALUE: ECC_VerifySignature:S <- [DW_OP_plus_uconst 344] [$sp+0]
	.loc	3 0 9                           @ ../../../Library/StdDriver/src/crypto.c:0:9
	ldr	r6, [sp, #24]                   @ 4-byte Reload
	.loc	3 1698 9 is_stmt 1              @ ../../../Library/StdDriver/src/crypto.c:1698:9
	mov	r0, r6
	movw	r1, #1024
	bl	run_ecc_codec
.Ltmp564:
	@DEBUG_VALUE: ECC_VerifySignature:i <- 0
	.loc	3 1701 9                        @ ../../../Library/StdDriver/src/crypto.c:1701:9
	ldr	r0, __arm_cp.29_3
	adds	r0, r6, r0
	movs	r1, #18
	add	r2, sp, #28
	add	r3, sp, #100
.Ltmp565:
.LBB29_41:                              @ =>This Inner Loop Header: Depth=1
	@DEBUG_VALUE: ECC_VerifySignature:public_k2 <- [DW_OP_plus_uconst 336] [$sp+0]
	@DEBUG_VALUE: ECC_VerifySignature:R <- [DW_OP_plus_uconst 340] [$sp+0]
	@DEBUG_VALUE: ECC_VerifySignature:S <- [DW_OP_plus_uconst 344] [$sp+0]
	@DEBUG_VALUE: ECC_VerifySignature:i <- undef
	.loc	3 1703 25                       @ ../../../Library/StdDriver/src/crypto.c:1703:25
	ldr	r6, [r0]
	.loc	3 1703 23 is_stmt 0             @ ../../../Library/StdDriver/src/crypto.c:1703:23
	stm	r3!, {r6}
	.loc	3 1704 25 is_stmt 1             @ ../../../Library/StdDriver/src/crypto.c:1704:25
	ldr	r6, [r0, #72]
	.loc	3 1704 23 is_stmt 0             @ ../../../Library/StdDriver/src/crypto.c:1704:23
	stm	r2!, {r6}
.Ltmp566:
	.loc	3 1701 22 is_stmt 1             @ ../../../Library/StdDriver/src/crypto.c:1701:22
	adds	r0, r0, #4
.Ltmp567:
	@DEBUG_VALUE: ECC_VerifySignature:i <- [DW_OP_plus_uconst 1, DW_OP_stack_value] undef
	subs	r1, r1, #1
.Ltmp568:
	.loc	3 1701 9 is_stmt 0              @ ../../../Library/StdDriver/src/crypto.c:1701:9
	bne	.LBB29_41
.Ltmp569:
@ %bb.42:
	@DEBUG_VALUE: ECC_VerifySignature:public_k2 <- [DW_OP_plus_uconst 336] [$sp+0]
	@DEBUG_VALUE: ECC_VerifySignature:R <- [DW_OP_plus_uconst 340] [$sp+0]
	@DEBUG_VALUE: ECC_VerifySignature:S <- [DW_OP_plus_uconst 344] [$sp+0]
	.loc	3 0 9                           @ ../../../Library/StdDriver/src/crypto.c:0:9
	ldr	r6, [sp, #16]                   @ 4-byte Reload
	mov	r0, r6
.Ltmp570:
.LBB29_43:                              @ =>This Inner Loop Header: Depth=1
	@DEBUG_VALUE: ECC_VerifySignature:public_k2 <- [DW_OP_plus_uconst 336] [$sp+0]
	@DEBUG_VALUE: ECC_VerifySignature:R <- [DW_OP_plus_uconst 340] [$sp+0]
	@DEBUG_VALUE: ECC_VerifySignature:S <- [DW_OP_plus_uconst 344] [$sp+0]
	@DEBUG_VALUE: ECC_VerifySignature:i <- undef
	.loc	3 1717 28 is_stmt 1             @ ../../../Library/StdDriver/src/crypto.c:1717:28
	adds	r1, r7, r0
	str	r4, [r1, #72]
.Ltmp571:
	@DEBUG_VALUE: ECC_VerifySignature:i <- [DW_OP_plus_uconst 1, DW_OP_stack_value] undef
	.loc	3 1715 22                       @ ../../../Library/StdDriver/src/crypto.c:1715:22
	adds	r0, r0, #4
.Ltmp572:
	.loc	3 1715 9 is_stmt 0              @ ../../../Library/StdDriver/src/crypto.c:1715:9
	bne	.LBB29_43
.Ltmp573:
@ %bb.44:
	@DEBUG_VALUE: ECC_VerifySignature:public_k2 <- [DW_OP_plus_uconst 336] [$sp+0]
	@DEBUG_VALUE: ECC_VerifySignature:R <- [DW_OP_plus_uconst 340] [$sp+0]
	@DEBUG_VALUE: ECC_VerifySignature:S <- [DW_OP_plus_uconst 344] [$sp+0]
	.loc	3 1719 17 is_stmt 1             @ ../../../Library/StdDriver/src/crypto.c:1719:17
	ldr	r0, __arm_cp.29_1
	ldr	r0, [r0]
	movw	r1, #768
	adds	r0, r0, r1
	.loc	3 1719 9 is_stmt 0              @ ../../../Library/StdDriver/src/crypto.c:1719:9
	mov	r1, r7
	bl	Hex2Reg
.Ltmp574:
	@DEBUG_VALUE: ECC_VerifySignature:i <- 0
	.loc	3 1725 9 is_stmt 1              @ ../../../Library/StdDriver/src/crypto.c:1725:9
	ldr	r0, [sp, #24]                   @ 4-byte Reload
	ldr	r1, __arm_cp.29_3
	adds	r0, r0, r1
	movs	r1, #18
	add	r2, sp, #100
.Ltmp575:
.LBB29_45:                              @ =>This Inner Loop Header: Depth=1
	@DEBUG_VALUE: ECC_VerifySignature:public_k2 <- [DW_OP_plus_uconst 336] [$sp+0]
	@DEBUG_VALUE: ECC_VerifySignature:R <- [DW_OP_plus_uconst 340] [$sp+0]
	@DEBUG_VALUE: ECC_VerifySignature:S <- [DW_OP_plus_uconst 344] [$sp+0]
	@DEBUG_VALUE: ECC_VerifySignature:i <- undef
	.loc	3 1727 31                       @ ../../../Library/StdDriver/src/crypto.c:1727:31
	ldm	r2!, {r3}
	.loc	3 1727 29 is_stmt 0             @ ../../../Library/StdDriver/src/crypto.c:1727:29
	str	r3, [r0]
	.loc	3 1728 29 is_stmt 1             @ ../../../Library/StdDriver/src/crypto.c:1728:29
	str	r4, [r0, #72]
.Ltmp576:
	.loc	3 1725 22                       @ ../../../Library/StdDriver/src/crypto.c:1725:22
	adds	r0, r0, #4
.Ltmp577:
	@DEBUG_VALUE: ECC_VerifySignature:i <- [DW_OP_plus_uconst 1, DW_OP_stack_value] undef
	subs	r1, r1, #1
.Ltmp578:
	.loc	3 1725 9 is_stmt 0              @ ../../../Library/StdDriver/src/crypto.c:1725:9
	bne	.LBB29_45
.Ltmp579:
@ %bb.46:
	@DEBUG_VALUE: ECC_VerifySignature:public_k2 <- [DW_OP_plus_uconst 336] [$sp+0]
	@DEBUG_VALUE: ECC_VerifySignature:R <- [DW_OP_plus_uconst 340] [$sp+0]
	@DEBUG_VALUE: ECC_VerifySignature:S <- [DW_OP_plus_uconst 344] [$sp+0]
	.loc	3 1738 9 is_stmt 1              @ ../../../Library/StdDriver/src/crypto.c:1738:9
	ldr	r0, [sp, #24]                   @ 4-byte Reload
	movw	r1, #4608
	bl	run_ecc_codec
	.loc	3 1741 17                       @ ../../../Library/StdDriver/src/crypto.c:1741:17
	ldr	r0, __arm_cp.29_1
	ldr	r0, [r0]
	.loc	3 1741 25 is_stmt 0             @ ../../../Library/StdDriver/src/crypto.c:1741:25
	ldr	r0, [r0, #4]
	.loc	3 1741 9                        @ ../../../Library/StdDriver/src/crypto.c:1741:9
	ldr	r4, __arm_cp.29_5
	mov	r1, r5
	mov	r2, r4
	bl	Reg2Hex
.Ltmp580:
	.loc	3 1747 12 is_stmt 1             @ ../../../Library/StdDriver/src/crypto.c:1747:12
	mov	r0, r4
	ldr	r1, [sp, #12]                   @ 4-byte Reload
	bl	strcasecmp
.Ltmp581:
	.loc	3 1747 12 is_stmt 0             @ ../../../Library/StdDriver/src/crypto.c:1747:12
	cbnz	r0, .LBB29_48
.Ltmp582:
@ %bb.47:
	@DEBUG_VALUE: ECC_VerifySignature:public_k2 <- [DW_OP_plus_uconst 336] [$sp+0]
	@DEBUG_VALUE: ECC_VerifySignature:R <- [DW_OP_plus_uconst 340] [$sp+0]
	@DEBUG_VALUE: ECC_VerifySignature:S <- [DW_OP_plus_uconst 344] [$sp+0]
	mov	r6, r0
	b	.LBB29_49
.Ltmp583:
.LBB29_48:
	@DEBUG_VALUE: ECC_VerifySignature:public_k2 <- [DW_OP_plus_uconst 336] [$sp+0]
	@DEBUG_VALUE: ECC_VerifySignature:R <- [DW_OP_plus_uconst 340] [$sp+0]
	@DEBUG_VALUE: ECC_VerifySignature:S <- [DW_OP_plus_uconst 344] [$sp+0]
	.loc	3 0 12                          @ ../../../Library/StdDriver/src/crypto.c:0:12
	adds	r6, #70
.Ltmp584:
.LBB29_49:
	@DEBUG_VALUE: ECC_VerifySignature:public_k2 <- [DW_OP_plus_uconst 336] [$sp+0]
	@DEBUG_VALUE: ECC_VerifySignature:R <- [DW_OP_plus_uconst 340] [$sp+0]
	@DEBUG_VALUE: ECC_VerifySignature:S <- [DW_OP_plus_uconst 344] [$sp+0]
	@DEBUG_VALUE: ECC_VerifySignature:ret <- $r6
	.loc	3 1755 5 is_stmt 1              @ ../../../Library/StdDriver/src/crypto.c:1755:5
	mov	r0, r6
	add	sp, #316
.Ltmp585:
	pop	{r4, r5, r6, r7, pc}
.Ltmp586:
	.p2align	2
@ %bb.50:
	.loc	3 0 5 is_stmt 0                 @ ../../../Library/StdDriver/src/crypto.c:0:5
__arm_cp.29_0:
	.long	2488                            @ 0x9b8
.Lcpi_end28:
	.size	__arm_cp.29_0, .Lcpi_end28-__arm_cp.29_0
__arm_cp.29_1:
	.long	pCurve
.Lcpi_end29:
	.size	__arm_cp.29_1, .Lcpi_end29-__arm_cp.29_1
__arm_cp.29_2:
	.long	1073948680                      @ 0x40032808
.Lcpi_end30:
	.size	__arm_cp.29_2, .Lcpi_end30-__arm_cp.29_2
__arm_cp.29_3:
	.long	2056                            @ 0x808
.Lcpi_end31:
	.size	__arm_cp.29_3, .Lcpi_end31-__arm_cp.29_3
__arm_cp.29_4:
	.long	2200                            @ 0x898
.Lcpi_end32:
	.size	__arm_cp.29_4, .Lcpi_end32-__arm_cp.29_4
__arm_cp.29_5:
	.long	temp_hex_str
.Lcpi_end33:
	.size	__arm_cp.29_5, .Lcpi_end33-__arm_cp.29_5
.Lfunc_end29:
	.size	ECC_VerifySignature, .Lfunc_end29-ECC_VerifySignature
	.cfi_endproc
	.cantunwind
	.fnend
                                        @ -- End function
	.section	.text.ch2hex,"ax",%progbits
	.p2align	1                               @ -- Begin function ch2hex
	.type	ch2hex,%function
	.code	16                              @ @ch2hex
	.thumb_func
ch2hex:
.Lfunc_begin30:
	.loc	3 799 0 is_stmt 1               @ ../../../Library/StdDriver/src/crypto.c:799:0
	.fnstart
	.cfi_startproc
@ %bb.0:
	@DEBUG_VALUE: ch2hex:ch <- $r0
	@DEBUG_VALUE: ch2hex:ch <- $r0
	.loc	3 800 8 prologue_end            @ ../../../Library/StdDriver/src/crypto.c:800:8
	mov	r1, r0
	subs	r1, #97
	uxtb	r1, r1
	cmp	r1, #26
	blo	.LBB30_2
.Ltmp587:
@ %bb.1:
	@DEBUG_VALUE: ch2hex:ch <- $r0
	.loc	3 0 8 is_stmt 0                 @ ../../../Library/StdDriver/src/crypto.c:0:8
	movs	r1, #54
	b	.LBB30_3
.Ltmp588:
.LBB30_2:
	@DEBUG_VALUE: ch2hex:ch <- $r0
	movs	r1, #86
.Ltmp589:
.LBB30_3:
	@DEBUG_VALUE: ch2hex:ch <- $r0
	mvns	r1, r1
	.loc	3 800 8                         @ ../../../Library/StdDriver/src/crypto.c:800:8
	cmp	r0, #58
	bhs	.LBB30_5
.Ltmp590:
@ %bb.4:
	@DEBUG_VALUE: ch2hex:ch <- $r0
	.loc	3 0 8                           @ ../../../Library/StdDriver/src/crypto.c:0:8
	movs	r1, #47
	mvns	r1, r1
.Ltmp591:
.LBB30_5:
	@DEBUG_VALUE: ch2hex:ch <- $r0
	adds	r0, r1, r0
.Ltmp592:
	@DEBUG_VALUE: ch2hex:ch <- [DW_OP_LLVM_entry_value 1] $r0
	.loc	3 812 1 is_stmt 1               @ ../../../Library/StdDriver/src/crypto.c:812:1
	uxtb	r0, r0
	bx	lr
.Ltmp593:
.Lfunc_end30:
	.size	ch2hex, .Lfunc_end30-ch2hex
	.cfi_endproc
	.cantunwind
	.fnend
                                        @ -- End function
	.section	.text.get_Nth_nibble_char,"ax",%progbits
	.p2align	2                               @ -- Begin function get_Nth_nibble_char
	.type	get_Nth_nibble_char,%function
	.code	16                              @ @get_Nth_nibble_char
	.thumb_func
get_Nth_nibble_char:
.Lfunc_begin31:
	.loc	3 874 0                         @ ../../../Library/StdDriver/src/crypto.c:874:0
	.fnstart
	.cfi_startproc
@ %bb.0:
	@DEBUG_VALUE: get_Nth_nibble_char:val32 <- $r0
	@DEBUG_VALUE: get_Nth_nibble_char:val32 <- $r0
	@DEBUG_VALUE: get_Nth_nibble_char:idx <- $r1
	@DEBUG_VALUE: get_Nth_nibble_char:idx <- $r1
	.loc	3 875 40 prologue_end           @ ../../../Library/StdDriver/src/crypto.c:875:40
	lsls	r1, r1, #2
.Ltmp594:
	@DEBUG_VALUE: get_Nth_nibble_char:idx <- [DW_OP_LLVM_entry_value 1] $r1
	.loc	3 875 32 is_stmt 0              @ ../../../Library/StdDriver/src/crypto.c:875:32
	lsrs	r0, r1
.Ltmp595:
	@DEBUG_VALUE: get_Nth_nibble_char:val32 <- [DW_OP_LLVM_entry_value 1] $r0
	.loc	3 0 32                          @ ../../../Library/StdDriver/src/crypto.c:0:32
	movs	r1, #15
	.loc	3 875 47                        @ ../../../Library/StdDriver/src/crypto.c:875:47
	ands	r1, r0
	.loc	3 875 12                        @ ../../../Library/StdDriver/src/crypto.c:875:12
	adr	r0, .LCPI31_0
	ldrb	r0, [r0, r1]
	.loc	3 875 5                         @ ../../../Library/StdDriver/src/crypto.c:875:5
	bx	lr
.Ltmp596:
	.p2align	2
@ %bb.1:
	.loc	3 0 5                           @ ../../../Library/StdDriver/src/crypto.c:0:5
.LCPI31_0:
hex_char_tbl:
	.asciz	"0123456789abcdef\000\000\000"
.Lfunc_end31:
	.size	get_Nth_nibble_char, .Lfunc_end31-get_Nth_nibble_char
	.cfi_endproc
	.cantunwind
	.fnend
                                        @ -- End function
	.type	g_AES_CTL,%object               @ @g_AES_CTL
	.section	.bss.g_AES_CTL,"aw",%nobits
	.p2align	2
g_AES_CTL:
	.zero	16
	.size	g_AES_CTL, 16

	.type	g_TDES_CTL,%object              @ @g_TDES_CTL
	.section	.bss.g_TDES_CTL,"aw",%nobits
	.p2align	2
g_TDES_CTL:
	.zero	16
	.size	g_TDES_CTL, 16

	.hidden	_Curve                          @ @_Curve
	.type	_Curve,%object
	.section	.rodata._Curve,"a",%progbits
	.globl	_Curve
	.p2align	2
_Curve:
	.byte	0                               @ 0x0
	.zero	3
	.long	48                              @ 0x30
	.asciz	"FFFFFFFFFFFFFFFFFFFFFFFFFFFFFFFEFFFFFFFFFFFFFFFC\000\000\000\000\000\000\000\000\000\000\000\000\000\000\000\000\000\000\000\000\000\000\000\000\000\000\000\000\000\000\000\000\000\000\000\000\000\000\000\000\000\000\000\000\000\000\000\000\000\000\000\000\000\000\000\000\000\000\000\000\000\000\000\000\000\000\000\000\000\000\000\000\000\000\000\000\000\000\000\000\000\000\000\000\000\000\000\000\000\000\000\000\000\000\000"
	.asciz	"64210519e59c80e70fa7e9ab72243049feb8deecc146b9b1\000\000\000\000\000\000\000\000\000\000\000\000\000\000\000\000\000\000\000\000\000\000\000\000\000\000\000\000\000\000\000\000\000\000\000\000\000\000\000\000\000\000\000\000\000\000\000\000\000\000\000\000\000\000\000\000\000\000\000\000\000\000\000\000\000\000\000\000\000\000\000\000\000\000\000\000\000\000\000\000\000\000\000\000\000\000\000\000\000\000\000\000\000\000\000"
	.asciz	"188da80eb03090f67cbf20eb43a18800f4ff0afd82ff1012\000\000\000\000\000\000\000\000\000\000\000\000\000\000\000\000\000\000\000\000\000\000\000\000\000\000\000\000\000\000\000\000\000\000\000\000\000\000\000\000\000\000\000\000\000\000\000\000\000\000\000\000\000\000\000\000\000\000\000\000\000\000\000\000\000\000\000\000\000\000\000\000\000\000\000\000\000\000\000\000\000\000\000\000\000\000\000\000\000\000\000\000\000\000\000"
	.asciz	"07192b95ffc8da78631011ed6b24cdd573f977a11e794811\000\000\000\000\000\000\000\000\000\000\000\000\000\000\000\000\000\000\000\000\000\000\000\000\000\000\000\000\000\000\000\000\000\000\000\000\000\000\000\000\000\000\000\000\000\000\000\000\000\000\000\000\000\000\000\000\000\000\000\000\000\000\000\000\000\000\000\000\000\000\000\000\000\000\000\000\000\000\000\000\000\000\000\000\000\000\000\000\000\000\000\000\000\000\000"
	.long	58                              @ 0x3a
	.asciz	"FFFFFFFFFFFFFFFFFFFFFFFFFFFFFFFEFFFFFFFFFFFFFFFF\000\000\000\000\000\000\000\000\000\000\000\000\000\000\000\000\000\000\000\000\000\000\000\000\000\000\000\000\000\000\000\000\000\000\000\000\000\000\000\000\000\000\000\000\000\000\000\000\000\000\000\000\000\000\000\000\000\000\000\000\000\000\000\000\000\000\000\000\000\000\000\000\000\000\000\000\000\000\000\000\000\000\000\000\000\000\000\000\000\000\000\000\000\000\000\000\000\000\000\000\000\000\000\000\000\000\000\000\000\000\000\000\000\000\000\000\000\000\000\000\000\000\000\000\000\000\000"
	.long	58                              @ 0x3a
	.asciz	"FFFFFFFFFFFFFFFFFFFFFFFF99DEF836146BC9B1B4D22831\000\000\000\000\000\000\000\000\000\000\000\000\000\000\000\000\000\000\000\000\000\000\000\000\000\000\000\000\000\000\000\000\000\000\000\000\000\000\000\000\000\000\000\000\000\000\000\000\000\000\000\000\000\000\000\000\000\000\000\000\000\000\000\000\000\000\000\000\000\000\000\000\000\000\000\000\000\000\000\000\000\000\000\000\000\000\000\000\000\000\000\000\000\000\000\000\000\000\000\000\000\000\000\000\000\000\000\000\000\000\000\000\000\000\000\000\000\000\000\000\000\000\000\000\000\000\000"
	.long	192                             @ 0xc0
	.long	7                               @ 0x7
	.long	2                               @ 0x2
	.long	1                               @ 0x1
	.long	0                               @ 0x0
	.byte	1                               @ 0x1
	.zero	3
	.long	56                              @ 0x38
	.asciz	"FFFFFFFFFFFFFFFFFFFFFFFFFFFFFFFEFFFFFFFFFFFFFFFFFFFFFFFE\000\000\000\000\000\000\000\000\000\000\000\000\000\000\000\000\000\000\000\000\000\000\000\000\000\000\000\000\000\000\000\000\000\000\000\000\000\000\000\000\000\000\000\000\000\000\000\000\000\000\000\000\000\000\000\000\000\000\000\000\000\000\000\000\000\000\000\000\000\000\000\000\000\000\000\000\000\000\000\000\000\000\000\000\000\000\000"
	.asciz	"b4050a850c04b3abf54132565044b0b7d7bfd8ba270b39432355ffb4\000\000\000\000\000\000\000\000\000\000\000\000\000\000\000\000\000\000\000\000\000\000\000\000\000\000\000\000\000\000\000\000\000\000\000\000\000\000\000\000\000\000\000\000\000\000\000\000\000\000\000\000\000\000\000\000\000\000\000\000\000\000\000\000\000\000\000\000\000\000\000\000\000\000\000\000\000\000\000\000\000\000\000\000\000\000\000"
	.asciz	"b70e0cbd6bb4bf7f321390b94a03c1d356c21122343280d6115c1d21\000\000\000\000\000\000\000\000\000\000\000\000\000\000\000\000\000\000\000\000\000\000\000\000\000\000\000\000\000\000\000\000\000\000\000\000\000\000\000\000\000\000\000\000\000\000\000\000\000\000\000\000\000\000\000\000\000\000\000\000\000\000\000\000\000\000\000\000\000\000\000\000\000\000\000\000\000\000\000\000\000\000\000\000\000\000\000"
	.asciz	"bd376388b5f723fb4c22dfe6cd4375a05a07476444d5819985007e34\000\000\000\000\000\000\000\000\000\000\000\000\000\000\000\000\000\000\000\000\000\000\000\000\000\000\000\000\000\000\000\000\000\000\000\000\000\000\000\000\000\000\000\000\000\000\000\000\000\000\000\000\000\000\000\000\000\000\000\000\000\000\000\000\000\000\000\000\000\000\000\000\000\000\000\000\000\000\000\000\000\000\000\000\000\000\000"
	.long	70                              @ 0x46
	.asciz	"FFFFFFFFFFFFFFFFFFFFFFFFFFFFFFFF000000000000000000000001\000\000\000\000\000\000\000\000\000\000\000\000\000\000\000\000\000\000\000\000\000\000\000\000\000\000\000\000\000\000\000\000\000\000\000\000\000\000\000\000\000\000\000\000\000\000\000\000\000\000\000\000\000\000\000\000\000\000\000\000\000\000\000\000\000\000\000\000\000\000\000\000\000\000\000\000\000\000\000\000\000\000\000\000\000\000\000\000\000\000\000\000\000\000\000\000\000\000\000\000\000\000\000\000\000\000\000\000\000\000\000\000\000\000\000\000\000\000\000"
	.long	70                              @ 0x46
	.asciz	"FFFFFFFFFFFFFFFFFFFFFFFFFFFF16A2E0B8F03E13DD29455C5C2A3D\000\000\000\000\000\000\000\000\000\000\000\000\000\000\000\000\000\000\000\000\000\000\000\000\000\000\000\000\000\000\000\000\000\000\000\000\000\000\000\000\000\000\000\000\000\000\000\000\000\000\000\000\000\000\000\000\000\000\000\000\000\000\000\000\000\000\000\000\000\000\000\000\000\000\000\000\000\000\000\000\000\000\000\000\000\000\000\000\000\000\000\000\000\000\000\000\000\000\000\000\000\000\000\000\000\000\000\000\000\000\000\000\000\000\000\000\000\000\000"
	.long	224                             @ 0xe0
	.long	9                               @ 0x9
	.long	8                               @ 0x8
	.long	3                               @ 0x3
	.long	0                               @ 0x0
	.byte	2                               @ 0x2
	.zero	3
	.long	64                              @ 0x40
	.asciz	"FFFFFFFF00000001000000000000000000000000FFFFFFFFFFFFFFFFFFFFFFFC\000\000\000\000\000\000\000\000\000\000\000\000\000\000\000\000\000\000\000\000\000\000\000\000\000\000\000\000\000\000\000\000\000\000\000\000\000\000\000\000\000\000\000\000\000\000\000\000\000\000\000\000\000\000\000\000\000\000\000\000\000\000\000\000\000\000\000\000\000\000\000\000\000\000\000\000\000\000\000"
	.asciz	"5ac635d8aa3a93e7b3ebbd55769886bc651d06b0cc53b0f63bce3c3e27d2604b\000\000\000\000\000\000\000\000\000\000\000\000\000\000\000\000\000\000\000\000\000\000\000\000\000\000\000\000\000\000\000\000\000\000\000\000\000\000\000\000\000\000\000\000\000\000\000\000\000\000\000\000\000\000\000\000\000\000\000\000\000\000\000\000\000\000\000\000\000\000\000\000\000\000\000\000\000\000\000"
	.asciz	"6b17d1f2e12c4247f8bce6e563a440f277037d812deb33a0f4a13945d898c296\000\000\000\000\000\000\000\000\000\000\000\000\000\000\000\000\000\000\000\000\000\000\000\000\000\000\000\000\000\000\000\000\000\000\000\000\000\000\000\000\000\000\000\000\000\000\000\000\000\000\000\000\000\000\000\000\000\000\000\000\000\000\000\000\000\000\000\000\000\000\000\000\000\000\000\000\000\000\000"
	.asciz	"4fe342e2fe1a7f9b8ee7eb4a7c0f9e162bce33576b315ececbb6406837bf51f5\000\000\000\000\000\000\000\000\000\000\000\000\000\000\000\000\000\000\000\000\000\000\000\000\000\000\000\000\000\000\000\000\000\000\000\000\000\000\000\000\000\000\000\000\000\000\000\000\000\000\000\000\000\000\000\000\000\000\000\000\000\000\000\000\000\000\000\000\000\000\000\000\000\000\000\000\000\000\000"
	.long	78                              @ 0x4e
	.asciz	"FFFFFFFF00000001000000000000000000000000FFFFFFFFFFFFFFFFFFFFFFFF\000\000\000\000\000\000\000\000\000\000\000\000\000\000\000\000\000\000\000\000\000\000\000\000\000\000\000\000\000\000\000\000\000\000\000\000\000\000\000\000\000\000\000\000\000\000\000\000\000\000\000\000\000\000\000\000\000\000\000\000\000\000\000\000\000\000\000\000\000\000\000\000\000\000\000\000\000\000\000\000\000\000\000\000\000\000\000\000\000\000\000\000\000\000\000\000\000\000\000\000\000\000\000\000\000\000\000\000\000\000\000"
	.long	78                              @ 0x4e
	.asciz	"FFFFFFFF00000000FFFFFFFFFFFFFFFFBCE6FAADA7179E84F3B9CAC2FC632551\000\000\000\000\000\000\000\000\000\000\000\000\000\000\000\000\000\000\000\000\000\000\000\000\000\000\000\000\000\000\000\000\000\000\000\000\000\000\000\000\000\000\000\000\000\000\000\000\000\000\000\000\000\000\000\000\000\000\000\000\000\000\000\000\000\000\000\000\000\000\000\000\000\000\000\000\000\000\000\000\000\000\000\000\000\000\000\000\000\000\000\000\000\000\000\000\000\000\000\000\000\000\000\000\000\000\000\000\000\000\000"
	.long	256                             @ 0x100
	.long	10                              @ 0xa
	.long	5                               @ 0x5
	.long	2                               @ 0x2
	.long	0                               @ 0x0
	.byte	3                               @ 0x3
	.zero	3
	.long	96                              @ 0x60
	.asciz	"FFFFFFFFFFFFFFFFFFFFFFFFFFFFFFFFFFFFFFFFFFFFFFFFFFFFFFFFFFFFFFFEFFFFFFFF0000000000000000FFFFFFFC\000\000\000\000\000\000\000\000\000\000\000\000\000\000\000\000\000\000\000\000\000\000\000\000\000\000\000\000\000\000\000\000\000\000\000\000\000\000\000\000\000\000\000\000\000\000\000"
	.asciz	"b3312fa7e23ee7e4988e056be3f82d19181d9c6efe8141120314088f5013875ac656398d8a2ed19d2a85c8edd3ec2aef\000\000\000\000\000\000\000\000\000\000\000\000\000\000\000\000\000\000\000\000\000\000\000\000\000\000\000\000\000\000\000\000\000\000\000\000\000\000\000\000\000\000\000\000\000\000\000"
	.asciz	"aa87ca22be8b05378eb1c71ef320ad746e1d3b628ba79b9859f741e082542a385502f25dbf55296c3a545e3872760ab7\000\000\000\000\000\000\000\000\000\000\000\000\000\000\000\000\000\000\000\000\000\000\000\000\000\000\000\000\000\000\000\000\000\000\000\000\000\000\000\000\000\000\000\000\000\000\000"
	.asciz	"3617de4a96262c6f5d9e98bf9292dc29f8f41dbd289a147ce9da3113b5f0b8c00a60b1ce1d7e819d7a431d7c90ea0e5f\000\000\000\000\000\000\000\000\000\000\000\000\000\000\000\000\000\000\000\000\000\000\000\000\000\000\000\000\000\000\000\000\000\000\000\000\000\000\000\000\000\000\000\000\000\000\000"
	.long	116                             @ 0x74
	.asciz	"FFFFFFFFFFFFFFFFFFFFFFFFFFFFFFFFFFFFFFFFFFFFFFFFFFFFFFFFFFFFFFFEFFFFFFFF0000000000000000FFFFFFFF\000\000\000\000\000\000\000\000\000\000\000\000\000\000\000\000\000\000\000\000\000\000\000\000\000\000\000\000\000\000\000\000\000\000\000\000\000\000\000\000\000\000\000\000\000\000\000\000\000\000\000\000\000\000\000\000\000\000\000\000\000\000\000\000\000\000\000\000\000\000\000\000\000\000\000\000\000\000\000"
	.long	116                             @ 0x74
	.asciz	"FFFFFFFFFFFFFFFFFFFFFFFFFFFFFFFFFFFFFFFFFFFFFFFFC7634D81F4372DDF581A0DB248B0A77AECEC196ACCC52973\000\000\000\000\000\000\000\000\000\000\000\000\000\000\000\000\000\000\000\000\000\000\000\000\000\000\000\000\000\000\000\000\000\000\000\000\000\000\000\000\000\000\000\000\000\000\000\000\000\000\000\000\000\000\000\000\000\000\000\000\000\000\000\000\000\000\000\000\000\000\000\000\000\000\000\000\000\000\000"
	.long	384                             @ 0x180
	.long	12                              @ 0xc
	.long	3                               @ 0x3
	.long	2                               @ 0x2
	.long	0                               @ 0x0
	.byte	4                               @ 0x4
	.zero	3
	.long	131                             @ 0x83
	.asciz	"1FFFFFFFFFFFFFFFFFFFFFFFFFFFFFFFFFFFFFFFFFFFFFFFFFFFFFFFFFFFFFFFFFFFFFFFFFFFFFFFFFFFFFFFFFFFFFFFFFFFFFFFFFFFFFFFFFFFFFFFFFFFFFFFFFC\000\000\000\000\000\000\000\000\000\000\000\000"
	.asciz	"051953eb9618e1c9a1f929a21a0b68540eea2da725b99b315f3b8b489918ef109e156193951ec7e937b1652c0bd3bb1bf073573df883d2c34f1ef451fd46b503f00\000\000\000\000\000\000\000\000\000\000\000\000"
	.asciz	"0c6858e06b70404e9cd9e3ecb662395b4429c648139053fb521f828af606b4d3dbaa14b5e77efe75928fe1dc127a2ffa8de3348b3c1856a429bf97e7e31c2e5bd66\000\000\000\000\000\000\000\000\000\000\000\000"
	.asciz	"11839296a789a3bc0045c8a5fb42c7d1bd998f54449579b446817afbd17273e662c97ee72995ef42640c550b9013fad0761353c7086a272c24088be94769fd16650\000\000\000\000\000\000\000\000\000\000\000\000"
	.long	157                             @ 0x9d
	.asciz	"1FFFFFFFFFFFFFFFFFFFFFFFFFFFFFFFFFFFFFFFFFFFFFFFFFFFFFFFFFFFFFFFFFFFFFFFFFFFFFFFFFFFFFFFFFFFFFFFFFFFFFFFFFFFFFFFFFFFFFFFFFFFFFFFFFF\000\000\000\000\000\000\000\000\000\000\000\000\000\000\000\000\000\000\000\000\000\000\000\000\000\000\000\000\000\000\000\000\000\000\000\000\000\000\000\000\000\000\000\000"
	.long	157                             @ 0x9d
	.asciz	"1FFFFFFFFFFFFFFFFFFFFFFFFFFFFFFFFFFFFFFFFFFFFFFFFFFFFFFFFFFFFFFFFFA51868783BF2F966B7FCC0148F709A5D03BB5C9B8899C47AEBB6FB71E91386409\000\000\000\000\000\000\000\000\000\000\000\000\000\000\000\000\000\000\000\000\000\000\000\000\000\000\000\000\000\000\000\000\000\000\000\000\000\000\000\000\000\000\000\000"
	.long	521                             @ 0x209
	.long	32                              @ 0x20
	.long	32                              @ 0x20
	.long	32                              @ 0x20
	.long	0                               @ 0x0
	.byte	10                              @ 0xa
	.zero	3
	.long	41                              @ 0x29
	.asciz	"00000000000000000000000000000000000000001\000\000\000\000\000\000\000\000\000\000\000\000\000\000\000\000\000\000\000\000\000\000\000\000\000\000\000\000\000\000\000\000\000\000\000\000\000\000\000\000\000\000\000\000\000\000\000\000\000\000\000\000\000\000\000\000\000\000\000\000\000\000\000\000\000\000\000\000\000\000\000\000\000\000\000\000\000\000\000\000\000\000\000\000\000\000\000\000\000\000\000\000\000\000\000\000\000\000\000\000\000\000"
	.asciz	"20a601907b8c953ca1481eb10512f78744a3205fd\000\000\000\000\000\000\000\000\000\000\000\000\000\000\000\000\000\000\000\000\000\000\000\000\000\000\000\000\000\000\000\000\000\000\000\000\000\000\000\000\000\000\000\000\000\000\000\000\000\000\000\000\000\000\000\000\000\000\000\000\000\000\000\000\000\000\000\000\000\000\000\000\000\000\000\000\000\000\000\000\000\000\000\000\000\000\000\000\000\000\000\000\000\000\000\000\000\000\000\000\000\000"
	.asciz	"3f0eba16286a2d57ea0991168d4994637e8343e36\000\000\000\000\000\000\000\000\000\000\000\000\000\000\000\000\000\000\000\000\000\000\000\000\000\000\000\000\000\000\000\000\000\000\000\000\000\000\000\000\000\000\000\000\000\000\000\000\000\000\000\000\000\000\000\000\000\000\000\000\000\000\000\000\000\000\000\000\000\000\000\000\000\000\000\000\000\000\000\000\000\000\000\000\000\000\000\000\000\000\000\000\000\000\000\000\000\000\000\000\000\000"
	.asciz	"0d51fbc6c71a0094fa2cdd545b11c5c0c797324f1\000\000\000\000\000\000\000\000\000\000\000\000\000\000\000\000\000\000\000\000\000\000\000\000\000\000\000\000\000\000\000\000\000\000\000\000\000\000\000\000\000\000\000\000\000\000\000\000\000\000\000\000\000\000\000\000\000\000\000\000\000\000\000\000\000\000\000\000\000\000\000\000\000\000\000\000\000\000\000\000\000\000\000\000\000\000\000\000\000\000\000\000\000\000\000\000\000\000\000\000\000\000"
	.long	68                              @ 0x44
	.asciz	"FFFFFFFFFFFFFFFFFFFFFFFFFFFFFFFF000000000000000000000001\000\000\000\000\000\000\000\000\000\000\000\000\000\000\000\000\000\000\000\000\000\000\000\000\000\000\000\000\000\000\000\000\000\000\000\000\000\000\000\000\000\000\000\000\000\000\000\000\000\000\000\000\000\000\000\000\000\000\000\000\000\000\000\000\000\000\000\000\000\000\000\000\000\000\000\000\000\000\000\000\000\000\000\000\000\000\000\000\000\000\000\000\000\000\000\000\000\000\000\000\000\000\000\000\000\000\000\000\000\000\000\000\000\000\000\000\000\000\000"
	.long	49                              @ 0x31
	.asciz	"40000000000000000000292FE77E70C12A4234C33\000\000\000\000\000\000\000\000\000\000\000\000\000\000\000\000\000\000\000\000\000\000\000\000\000\000\000\000\000\000\000\000\000\000\000\000\000\000\000\000\000\000\000\000\000\000\000\000\000\000\000\000\000\000\000\000\000\000\000\000\000\000\000\000\000\000\000\000\000\000\000\000\000\000\000\000\000\000\000\000\000\000\000\000\000\000\000\000\000\000\000\000\000\000\000\000\000\000\000\000\000\000\000\000\000\000\000\000\000\000\000\000\000\000\000\000\000\000\000\000\000\000\000\000\000\000\000\000\000\000\000\000\000\000"
	.long	163                             @ 0xa3
	.long	7                               @ 0x7
	.long	6                               @ 0x6
	.long	3                               @ 0x3
	.long	1                               @ 0x1
	.byte	11                              @ 0xb
	.zero	3
	.long	59                              @ 0x3b
	.asciz	"00000000000000000000000000000000000000000000000000000000001\000\000\000\000\000\000\000\000\000\000\000\000\000\000\000\000\000\000\000\000\000\000\000\000\000\000\000\000\000\000\000\000\000\000\000\000\000\000\000\000\000\000\000\000\000\000\000\000\000\000\000\000\000\000\000\000\000\000\000\000\000\000\000\000\000\000\000\000\000\000\000\000\000\000\000\000\000\000\000\000\000\000\000\000"
	.asciz	"066647ede6c332c7f8c0923bb58213b333b20e9ce4281fe115f7d8f90ad\000\000\000\000\000\000\000\000\000\000\000\000\000\000\000\000\000\000\000\000\000\000\000\000\000\000\000\000\000\000\000\000\000\000\000\000\000\000\000\000\000\000\000\000\000\000\000\000\000\000\000\000\000\000\000\000\000\000\000\000\000\000\000\000\000\000\000\000\000\000\000\000\000\000\000\000\000\000\000\000\000\000\000\000"
	.asciz	"0fac9dfcbac8313bb2139f1bb755fef65bc391f8b36f8f8eb7371fd558b\000\000\000\000\000\000\000\000\000\000\000\000\000\000\000\000\000\000\000\000\000\000\000\000\000\000\000\000\000\000\000\000\000\000\000\000\000\000\000\000\000\000\000\000\000\000\000\000\000\000\000\000\000\000\000\000\000\000\000\000\000\000\000\000\000\000\000\000\000\000\000\000\000\000\000\000\000\000\000\000\000\000\000\000"
	.asciz	"1006a08a41903350678e58528bebf8a0beff867a7ca36716f7e01f81052\000\000\000\000\000\000\000\000\000\000\000\000\000\000\000\000\000\000\000\000\000\000\000\000\000\000\000\000\000\000\000\000\000\000\000\000\000\000\000\000\000\000\000\000\000\000\000\000\000\000\000\000\000\000\000\000\000\000\000\000\000\000\000\000\000\000\000\000\000\000\000\000\000\000\000\000\000\000\000\000\000\000\000\000"
	.long	68                              @ 0x44
	.asciz	"FFFFFFFFFFFFFFFFFFFFFFFFFFFFFFFF000000000000000000000001\000\000\000\000\000\000\000\000\000\000\000\000\000\000\000\000\000\000\000\000\000\000\000\000\000\000\000\000\000\000\000\000\000\000\000\000\000\000\000\000\000\000\000\000\000\000\000\000\000\000\000\000\000\000\000\000\000\000\000\000\000\000\000\000\000\000\000\000\000\000\000\000\000\000\000\000\000\000\000\000\000\000\000\000\000\000\000\000\000\000\000\000\000\000\000\000\000\000\000\000\000\000\000\000\000\000\000\000\000\000\000\000\000\000\000\000\000\000\000"
	.long	70                              @ 0x46
	.asciz	"1000000000000000000000000000013E974E72F8A6922031D2603CFE0D7\000\000\000\000\000\000\000\000\000\000\000\000\000\000\000\000\000\000\000\000\000\000\000\000\000\000\000\000\000\000\000\000\000\000\000\000\000\000\000\000\000\000\000\000\000\000\000\000\000\000\000\000\000\000\000\000\000\000\000\000\000\000\000\000\000\000\000\000\000\000\000\000\000\000\000\000\000\000\000\000\000\000\000\000\000\000\000\000\000\000\000\000\000\000\000\000\000\000\000\000\000\000\000\000\000\000\000\000\000\000\000\000\000\000\000\000"
	.long	233                             @ 0xe9
	.long	74                              @ 0x4a
	.long	74                              @ 0x4a
	.long	74                              @ 0x4a
	.long	1                               @ 0x1
	.byte	12                              @ 0xc
	.zero	3
	.long	71                              @ 0x47
	.asciz	"00000000000000000000000000000000000000000000000000000000000000000000001\000\000\000\000\000\000\000\000\000\000\000\000\000\000\000\000\000\000\000\000\000\000\000\000\000\000\000\000\000\000\000\000\000\000\000\000\000\000\000\000\000\000\000\000\000\000\000\000\000\000\000\000\000\000\000\000\000\000\000\000\000\000\000\000\000\000\000\000\000\000\000\000"
	.asciz	"27b680ac8b8596da5a4af8a19a0303fca97fd7645309fa2a581485af6263e313b79a2f5\000\000\000\000\000\000\000\000\000\000\000\000\000\000\000\000\000\000\000\000\000\000\000\000\000\000\000\000\000\000\000\000\000\000\000\000\000\000\000\000\000\000\000\000\000\000\000\000\000\000\000\000\000\000\000\000\000\000\000\000\000\000\000\000\000\000\000\000\000\000\000\000"
	.asciz	"5f939258db7dd90e1934f8c70b0dfec2eed25b8557eac9c80e2e198f8cdbecd86b12053\000\000\000\000\000\000\000\000\000\000\000\000\000\000\000\000\000\000\000\000\000\000\000\000\000\000\000\000\000\000\000\000\000\000\000\000\000\000\000\000\000\000\000\000\000\000\000\000\000\000\000\000\000\000\000\000\000\000\000\000\000\000\000\000\000\000\000\000\000\000\000\000"
	.asciz	"3676854fe24141cb98fe6d4b20d02b4516ff702350eddb0826779c813f0df45be8112f4\000\000\000\000\000\000\000\000\000\000\000\000\000\000\000\000\000\000\000\000\000\000\000\000\000\000\000\000\000\000\000\000\000\000\000\000\000\000\000\000\000\000\000\000\000\000\000\000\000\000\000\000\000\000\000\000\000\000\000\000\000\000\000\000\000\000\000\000\000\000\000\000"
	.long	68                              @ 0x44
	.asciz	"FFFFFFFFFFFFFFFFFFFFFFFFFFFFFFFF000000000000000000000001\000\000\000\000\000\000\000\000\000\000\000\000\000\000\000\000\000\000\000\000\000\000\000\000\000\000\000\000\000\000\000\000\000\000\000\000\000\000\000\000\000\000\000\000\000\000\000\000\000\000\000\000\000\000\000\000\000\000\000\000\000\000\000\000\000\000\000\000\000\000\000\000\000\000\000\000\000\000\000\000\000\000\000\000\000\000\000\000\000\000\000\000\000\000\000\000\000\000\000\000\000\000\000\000\000\000\000\000\000\000\000\000\000\000\000\000\000\000\000"
	.long	85                              @ 0x55
	.asciz	"3FFFFFFFFFFFFFFFFFFFFFFFFFFFFFFFFFFEF90399660FC938A90165B042A7CEFADB307\000\000\000\000\000\000\000\000\000\000\000\000\000\000\000\000\000\000\000\000\000\000\000\000\000\000\000\000\000\000\000\000\000\000\000\000\000\000\000\000\000\000\000\000\000\000\000\000\000\000\000\000\000\000\000\000\000\000\000\000\000\000\000\000\000\000\000\000\000\000\000\000\000\000\000\000\000\000\000\000\000\000\000\000\000\000\000\000\000\000\000\000\000\000\000\000\000\000\000\000\000\000\000\000"
	.long	283                             @ 0x11b
	.long	12                              @ 0xc
	.long	7                               @ 0x7
	.long	5                               @ 0x5
	.long	1                               @ 0x1
	.byte	13                              @ 0xd
	.zero	3
	.long	103                             @ 0x67
	.asciz	"0000000000000000000000000000000000000000000000000000000000000000000000000000000000000000000000000000001\000\000\000\000\000\000\000\000\000\000\000\000\000\000\000\000\000\000\000\000\000\000\000\000\000\000\000\000\000\000\000\000\000\000\000\000\000\000\000\000"
	.asciz	"021a5c2c8ee9feb5c4b9a753b7b476b7fd6422ef1f3dd674761fa99d6ac27c8a9a197b272822f6cd57a55aa4f50ae317b13545f\000\000\000\000\000\000\000\000\000\000\000\000\000\000\000\000\000\000\000\000\000\000\000\000\000\000\000\000\000\000\000\000\000\000\000\000\000\000\000\000"
	.asciz	"15d4860d088ddb3496b0c6064756260441cde4af1771d4db01ffe5b34e59703dc255a868a1180515603aeab60794e54bb7996a7\000\000\000\000\000\000\000\000\000\000\000\000\000\000\000\000\000\000\000\000\000\000\000\000\000\000\000\000\000\000\000\000\000\000\000\000\000\000\000\000"
	.asciz	"061b1cfab6be5f32bbfa78324ed106a7636b9c5a7bd198d0158aa4f5488d08f38514f1fdf4b4f40d2181b3681c364ba0273c706\000\000\000\000\000\000\000\000\000\000\000\000\000\000\000\000\000\000\000\000\000\000\000\000\000\000\000\000\000\000\000\000\000\000\000\000\000\000\000\000"
	.long	68                              @ 0x44
	.asciz	"FFFFFFFFFFFFFFFFFFFFFFFFFFFFFFFF000000000000000000000001\000\000\000\000\000\000\000\000\000\000\000\000\000\000\000\000\000\000\000\000\000\000\000\000\000\000\000\000\000\000\000\000\000\000\000\000\000\000\000\000\000\000\000\000\000\000\000\000\000\000\000\000\000\000\000\000\000\000\000\000\000\000\000\000\000\000\000\000\000\000\000\000\000\000\000\000\000\000\000\000\000\000\000\000\000\000\000\000\000\000\000\000\000\000\000\000\000\000\000\000\000\000\000\000\000\000\000\000\000\000\000\000\000\000\000\000\000\000\000"
	.long	123                             @ 0x7b
	.asciz	"10000000000000000000000000000000000000000000000000001E2AAD6A612F33307BE5FA47C3C9E052F838164CD37D9A21173\000\000\000\000\000\000\000\000\000\000\000\000\000\000\000\000\000\000\000\000\000\000\000\000\000\000\000\000\000\000\000\000\000\000\000\000\000\000\000\000\000\000\000\000\000\000\000\000\000\000\000\000\000\000\000\000\000\000\000\000\000\000\000\000\000\000\000\000\000\000\000\000"
	.long	409                             @ 0x199
	.long	87                              @ 0x57
	.long	87                              @ 0x57
	.long	87                              @ 0x57
	.long	1                               @ 0x1
	.byte	14                              @ 0xe
	.zero	3
	.long	143                             @ 0x8f
	.asciz	"00000000000000000000000000000000000000000000000000000000000000000000000000000000000000000000000000000000000000000000000000000000000000000000001"
	.asciz	"2f40e7e2221f295de297117b7f3d62f5c6a97ffcb8ceff1cd6ba8ce4a9a18ad84ffabbd8efa59332be7ad6756a66e294afd185a78ff12aa520e4de739baca0c7ffeff7f2955727a"
	.asciz	"303001d34b856296c16c0d40d3cd7750a93d1d2955fa80aa5f40fc8db7b2abdbde53950f4c0d293cdd711a35b67fb1499ae60038614f1394abfa3b4c850d927e1e7769c8eec2d19"
	.asciz	"37bf27342da639b6dccfffeb73d69d78c6c27a6009cbbca1980f8533921e8a684423e43bab08a576291af8f461bb2a8b3531d2f0485c19b16e2f1516e23dd3c1a4827af1b8ac15b"
	.long	68                              @ 0x44
	.asciz	"FFFFFFFFFFFFFFFFFFFFFFFFFFFFFFFF000000000000000000000001\000\000\000\000\000\000\000\000\000\000\000\000\000\000\000\000\000\000\000\000\000\000\000\000\000\000\000\000\000\000\000\000\000\000\000\000\000\000\000\000\000\000\000\000\000\000\000\000\000\000\000\000\000\000\000\000\000\000\000\000\000\000\000\000\000\000\000\000\000\000\000\000\000\000\000\000\000\000\000\000\000\000\000\000\000\000\000\000\000\000\000\000\000\000\000\000\000\000\000\000\000\000\000\000\000\000\000\000\000\000\000\000\000\000\000\000\000\000\000"
	.long	172                             @ 0xac
	.asciz	"3FFFFFFFFFFFFFFFFFFFFFFFFFFFFFFFFFFFFFFFFFFFFFFFFFFFFFFFFFFFFFFFFFFFFFFE661CE18FF55987308059B186823851EC7DD9CA1161DE93D5174D66E8382E9BB2FE84E47\000\000\000\000\000\000\000\000\000\000\000\000\000\000\000\000\000\000\000\000\000\000\000\000\000\000\000\000\000\000\000\000"
	.long	571                             @ 0x23b
	.long	10                              @ 0xa
	.long	5                               @ 0x5
	.long	2                               @ 0x2
	.long	1                               @ 0x1
	.byte	5                               @ 0x5
	.zero	3
	.long	41                              @ 0x29
	.asciz	"00000000000000000000000000000000000000001\000\000\000\000\000\000\000\000\000\000\000\000\000\000\000\000\000\000\000\000\000\000\000\000\000\000\000\000\000\000\000\000\000\000\000\000\000\000\000\000\000\000\000\000\000\000\000\000\000\000\000\000\000\000\000\000\000\000\000\000\000\000\000\000\000\000\000\000\000\000\000\000\000\000\000\000\000\000\000\000\000\000\000\000\000\000\000\000\000\000\000\000\000\000\000\000\000\000\000\000\000\000"
	.asciz	"00000000000000000000000000000000000000001\000\000\000\000\000\000\000\000\000\000\000\000\000\000\000\000\000\000\000\000\000\000\000\000\000\000\000\000\000\000\000\000\000\000\000\000\000\000\000\000\000\000\000\000\000\000\000\000\000\000\000\000\000\000\000\000\000\000\000\000\000\000\000\000\000\000\000\000\000\000\000\000\000\000\000\000\000\000\000\000\000\000\000\000\000\000\000\000\000\000\000\000\000\000\000\000\000\000\000\000\000\000"
	.asciz	"2fe13c0537bbc11acaa07d793de4e6d5e5c94eee8\000\000\000\000\000\000\000\000\000\000\000\000\000\000\000\000\000\000\000\000\000\000\000\000\000\000\000\000\000\000\000\000\000\000\000\000\000\000\000\000\000\000\000\000\000\000\000\000\000\000\000\000\000\000\000\000\000\000\000\000\000\000\000\000\000\000\000\000\000\000\000\000\000\000\000\000\000\000\000\000\000\000\000\000\000\000\000\000\000\000\000\000\000\000\000\000\000\000\000\000\000\000"
	.asciz	"289070fb05d38ff58321f2e800536d538ccdaa3d9\000\000\000\000\000\000\000\000\000\000\000\000\000\000\000\000\000\000\000\000\000\000\000\000\000\000\000\000\000\000\000\000\000\000\000\000\000\000\000\000\000\000\000\000\000\000\000\000\000\000\000\000\000\000\000\000\000\000\000\000\000\000\000\000\000\000\000\000\000\000\000\000\000\000\000\000\000\000\000\000\000\000\000\000\000\000\000\000\000\000\000\000\000\000\000\000\000\000\000\000\000\000"
	.long	68                              @ 0x44
	.asciz	"FFFFFFFFFFFFFFFFFFFFFFFFFFFFFFFF000000000000000000000001\000\000\000\000\000\000\000\000\000\000\000\000\000\000\000\000\000\000\000\000\000\000\000\000\000\000\000\000\000\000\000\000\000\000\000\000\000\000\000\000\000\000\000\000\000\000\000\000\000\000\000\000\000\000\000\000\000\000\000\000\000\000\000\000\000\000\000\000\000\000\000\000\000\000\000\000\000\000\000\000\000\000\000\000\000\000\000\000\000\000\000\000\000\000\000\000\000\000\000\000\000\000\000\000\000\000\000\000\000\000\000\000\000\000\000\000\000\000\000"
	.long	49                              @ 0x31
	.asciz	"4000000000000000000020108A2E0CC0D99F8A5EF\000\000\000\000\000\000\000\000\000\000\000\000\000\000\000\000\000\000\000\000\000\000\000\000\000\000\000\000\000\000\000\000\000\000\000\000\000\000\000\000\000\000\000\000\000\000\000\000\000\000\000\000\000\000\000\000\000\000\000\000\000\000\000\000\000\000\000\000\000\000\000\000\000\000\000\000\000\000\000\000\000\000\000\000\000\000\000\000\000\000\000\000\000\000\000\000\000\000\000\000\000\000\000\000\000\000\000\000\000\000\000\000\000\000\000\000\000\000\000\000\000\000\000\000\000\000\000\000\000\000\000\000\000\000"
	.long	163                             @ 0xa3
	.long	7                               @ 0x7
	.long	6                               @ 0x6
	.long	3                               @ 0x3
	.long	1                               @ 0x1
	.byte	6                               @ 0x6
	.zero	3
	.long	59                              @ 0x3b
	.asciz	"00000000000000000000000000000000000000000000000000000000000\000\000\000\000\000\000\000\000\000\000\000\000\000\000\000\000\000\000\000\000\000\000\000\000\000\000\000\000\000\000\000\000\000\000\000\000\000\000\000\000\000\000\000\000\000\000\000\000\000\000\000\000\000\000\000\000\000\000\000\000\000\000\000\000\000\000\000\000\000\000\000\000\000\000\000\000\000\000\000\000\000\000\000\000"
	.asciz	"00000000000000000000000000000000000000000000000000000000001\000\000\000\000\000\000\000\000\000\000\000\000\000\000\000\000\000\000\000\000\000\000\000\000\000\000\000\000\000\000\000\000\000\000\000\000\000\000\000\000\000\000\000\000\000\000\000\000\000\000\000\000\000\000\000\000\000\000\000\000\000\000\000\000\000\000\000\000\000\000\000\000\000\000\000\000\000\000\000\000\000\000\000\000"
	.asciz	"17232ba853a7e731af129f22ff4149563a419c26bf50a4c9d6eefad6126\000\000\000\000\000\000\000\000\000\000\000\000\000\000\000\000\000\000\000\000\000\000\000\000\000\000\000\000\000\000\000\000\000\000\000\000\000\000\000\000\000\000\000\000\000\000\000\000\000\000\000\000\000\000\000\000\000\000\000\000\000\000\000\000\000\000\000\000\000\000\000\000\000\000\000\000\000\000\000\000\000\000\000\000"
	.asciz	"1db537dece819b7f70f555a67c427a8cd9bf18aeb9b56e0c11056fae6a3\000\000\000\000\000\000\000\000\000\000\000\000\000\000\000\000\000\000\000\000\000\000\000\000\000\000\000\000\000\000\000\000\000\000\000\000\000\000\000\000\000\000\000\000\000\000\000\000\000\000\000\000\000\000\000\000\000\000\000\000\000\000\000\000\000\000\000\000\000\000\000\000\000\000\000\000\000\000\000\000\000\000\000\000"
	.long	68                              @ 0x44
	.asciz	"FFFFFFFFFFFFFFFFFFFFFFFFFFFFFFFF000000000000000000000001\000\000\000\000\000\000\000\000\000\000\000\000\000\000\000\000\000\000\000\000\000\000\000\000\000\000\000\000\000\000\000\000\000\000\000\000\000\000\000\000\000\000\000\000\000\000\000\000\000\000\000\000\000\000\000\000\000\000\000\000\000\000\000\000\000\000\000\000\000\000\000\000\000\000\000\000\000\000\000\000\000\000\000\000\000\000\000\000\000\000\000\000\000\000\000\000\000\000\000\000\000\000\000\000\000\000\000\000\000\000\000\000\000\000\000\000\000\000\000"
	.long	70                              @ 0x46
	.asciz	"8000000000000000000000000000069D5BB915BCD46EFB1AD5F173ABDF\000\000\000\000\000\000\000\000\000\000\000\000\000\000\000\000\000\000\000\000\000\000\000\000\000\000\000\000\000\000\000\000\000\000\000\000\000\000\000\000\000\000\000\000\000\000\000\000\000\000\000\000\000\000\000\000\000\000\000\000\000\000\000\000\000\000\000\000\000\000\000\000\000\000\000\000\000\000\000\000\000\000\000\000\000\000\000\000\000\000\000\000\000\000\000\000\000\000\000\000\000\000\000\000\000\000\000\000\000\000\000\000\000\000\000\000\000"
	.long	233                             @ 0xe9
	.long	74                              @ 0x4a
	.long	74                              @ 0x4a
	.long	74                              @ 0x4a
	.long	1                               @ 0x1
	.byte	7                               @ 0x7
	.zero	3
	.long	71                              @ 0x47
	.asciz	"00000000000000000000000000000000000000000000000000000000000000000000000\000\000\000\000\000\000\000\000\000\000\000\000\000\000\000\000\000\000\000\000\000\000\000\000\000\000\000\000\000\000\000\000\000\000\000\000\000\000\000\000\000\000\000\000\000\000\000\000\000\000\000\000\000\000\000\000\000\000\000\000\000\000\000\000\000\000\000\000\000\000\000\000"
	.asciz	"00000000000000000000000000000000000000000000000000000000000000000000001\000\000\000\000\000\000\000\000\000\000\000\000\000\000\000\000\000\000\000\000\000\000\000\000\000\000\000\000\000\000\000\000\000\000\000\000\000\000\000\000\000\000\000\000\000\000\000\000\000\000\000\000\000\000\000\000\000\000\000\000\000\000\000\000\000\000\000\000\000\000\000\000"
	.asciz	"503213f78ca44883f1a3b8162f188e553cd265f23c1567a16876913b0c2ac2458492836\000\000\000\000\000\000\000\000\000\000\000\000\000\000\000\000\000\000\000\000\000\000\000\000\000\000\000\000\000\000\000\000\000\000\000\000\000\000\000\000\000\000\000\000\000\000\000\000\000\000\000\000\000\000\000\000\000\000\000\000\000\000\000\000\000\000\000\000\000\000\000\000"
	.asciz	"1ccda380f1c9e318d90f95d07e5426fe87e45c0e8184698e45962364e34116177dd2259\000\000\000\000\000\000\000\000\000\000\000\000\000\000\000\000\000\000\000\000\000\000\000\000\000\000\000\000\000\000\000\000\000\000\000\000\000\000\000\000\000\000\000\000\000\000\000\000\000\000\000\000\000\000\000\000\000\000\000\000\000\000\000\000\000\000\000\000\000\000\000\000"
	.long	68                              @ 0x44
	.asciz	"FFFFFFFFFFFFFFFFFFFFFFFFFFFFFFFF000000000000000000000001\000\000\000\000\000\000\000\000\000\000\000\000\000\000\000\000\000\000\000\000\000\000\000\000\000\000\000\000\000\000\000\000\000\000\000\000\000\000\000\000\000\000\000\000\000\000\000\000\000\000\000\000\000\000\000\000\000\000\000\000\000\000\000\000\000\000\000\000\000\000\000\000\000\000\000\000\000\000\000\000\000\000\000\000\000\000\000\000\000\000\000\000\000\000\000\000\000\000\000\000\000\000\000\000\000\000\000\000\000\000\000\000\000\000\000\000\000\000\000"
	.long	85                              @ 0x55
	.asciz	"1FFFFFFFFFFFFFFFFFFFFFFFFFFFFFFFFFFE9AE2ED07577265DFF7F94451E061E163C61\000\000\000\000\000\000\000\000\000\000\000\000\000\000\000\000\000\000\000\000\000\000\000\000\000\000\000\000\000\000\000\000\000\000\000\000\000\000\000\000\000\000\000\000\000\000\000\000\000\000\000\000\000\000\000\000\000\000\000\000\000\000\000\000\000\000\000\000\000\000\000\000\000\000\000\000\000\000\000\000\000\000\000\000\000\000\000\000\000\000\000\000\000\000\000\000\000\000\000\000\000\000\000\000"
	.long	283                             @ 0x11b
	.long	12                              @ 0xc
	.long	7                               @ 0x7
	.long	5                               @ 0x5
	.long	1                               @ 0x1
	.byte	8                               @ 0x8
	.zero	3
	.long	103                             @ 0x67
	.asciz	"0000000000000000000000000000000000000000000000000000000000000000000000000000000000000000000000000000000\000\000\000\000\000\000\000\000\000\000\000\000\000\000\000\000\000\000\000\000\000\000\000\000\000\000\000\000\000\000\000\000\000\000\000\000\000\000\000\000"
	.asciz	"0000000000000000000000000000000000000000000000000000000000000000000000000000000000000000000000000000001\000\000\000\000\000\000\000\000\000\000\000\000\000\000\000\000\000\000\000\000\000\000\000\000\000\000\000\000\000\000\000\000\000\000\000\000\000\000\000\000"
	.asciz	"060f05f658f49c1ad3ab1890f7184210efd0987e307c84c27accfb8f9f67cc2c460189eb5aaaa62ee222eb1b35540cfe9023746\000\000\000\000\000\000\000\000\000\000\000\000\000\000\000\000\000\000\000\000\000\000\000\000\000\000\000\000\000\000\000\000\000\000\000\000\000\000\000\000"
	.asciz	"1e369050b7c4e42acba1dacbf04299c3460782f918ea427e6325165e9ea10e3da5f6c42e9c55215aa9ca27a5863ec48d8e0286b\000\000\000\000\000\000\000\000\000\000\000\000\000\000\000\000\000\000\000\000\000\000\000\000\000\000\000\000\000\000\000\000\000\000\000\000\000\000\000\000"
	.long	68                              @ 0x44
	.asciz	"FFFFFFFFFFFFFFFFFFFFFFFFFFFFFFFF000000000000000000000001\000\000\000\000\000\000\000\000\000\000\000\000\000\000\000\000\000\000\000\000\000\000\000\000\000\000\000\000\000\000\000\000\000\000\000\000\000\000\000\000\000\000\000\000\000\000\000\000\000\000\000\000\000\000\000\000\000\000\000\000\000\000\000\000\000\000\000\000\000\000\000\000\000\000\000\000\000\000\000\000\000\000\000\000\000\000\000\000\000\000\000\000\000\000\000\000\000\000\000\000\000\000\000\000\000\000\000\000\000\000\000\000\000\000\000\000\000\000\000"
	.long	123                             @ 0x7b
