	.text
	.syntax unified
	.eabi_attribute	67, "2.09"	@ Tag_conformance
	.cpu	cortex-m23
	.eabi_attribute	6, 16	@ Tag_CPU_arch
	.eabi_attribute	7, 77	@ Tag_CPU_arch_profile
	.eabi_attribute	8, 0	@ Tag_ARM_ISA_use
	.eabi_attribute	9, 3	@ Tag_THUMB_ISA_use
	.eabi_attribute	34, 0	@ Tag_CPU_unaligned_access
	.eabi_attribute	17, 1	@ Tag_ABI_PCS_GOT_use
	.eabi_attribute	20, 2	@ Tag_ABI_FP_denormal
	.eabi_attribute	21, 0	@ Tag_ABI_FP_exceptions
	.eabi_attribute	23, 1	@ Tag_ABI_FP_number_model
	.eabi_attribute	24, 1	@ Tag_ABI_align_needed
	.eabi_attribute	25, 1	@ Tag_ABI_align_preserved
	.eabi_attribute	38, 1	@ Tag_ABI_FP_16bit_format
	.eabi_attribute	18, 2	@ Tag_ABI_PCS_wchar_t
	.eabi_attribute	26, 1	@ Tag_ABI_enum_size
	.eabi_attribute	14, 0	@ Tag_ABI_PCS_R9_use
	.file	"ctr_drbg.c"
	.file	1 "C:\\" "Keil_v5\\ARM\\ARMCLANG\\Bin\\..\\include\\stddef.h"
	.file	2 "C:\\Users\\shw26\\OneDrive\\Desktop\\2021\\2021-1\\\354\272\241\354\212\244\355\206\244\353\224\224\354\236\220\354\235\2702\\Nuvoton\\M2351_BSP_v3.00.004\\M2351Series_BSP_CMSIS_V3.00.004\\MyProject\\PulseMonitoring\\Secure" "../../../ThirdParty/mbedTLS/library/ctr_drbg.c"
	.file	3 "C:\\Users\\shw26\\OneDrive\\Desktop\\2021\\2021-1\\\354\272\241\354\212\244\355\206\244\353\224\224\354\236\220\354\235\2702\\Nuvoton\\M2351_BSP_v3.00.004\\M2351Series_BSP_CMSIS_V3.00.004\\MyProject\\PulseMonitoring\\Secure" "../../../ThirdParty/mbedTLS/include/mbedtls\\ctr_drbg.h"
	.file	4 "C:\\Users\\shw26\\OneDrive\\Desktop\\2021\\2021-1\\\354\272\241\354\212\244\355\206\244\353\224\224\354\236\220\354\235\2702\\Nuvoton\\M2351_BSP_v3.00.004\\M2351Series_BSP_CMSIS_V3.00.004\\MyProject\\PulseMonitoring\\Secure" "../../../ThirdParty/mbedTLS/include/mbedtls/aes.h"
	.file	5 "C:\\" "Keil_v5\\ARM\\ARMCLANG\\Bin\\..\\include\\stdint.h"
	.section	.text.mbedtls_ctr_drbg_init,"ax",%progbits
	.hidden	mbedtls_ctr_drbg_init           @ -- Begin function mbedtls_ctr_drbg_init
	.globl	mbedtls_ctr_drbg_init
	.p2align	1
	.type	mbedtls_ctr_drbg_init,%function
	.code	16                              @ @mbedtls_ctr_drbg_init
	.thumb_func
mbedtls_ctr_drbg_init:
.Lfunc_begin0:
	.loc	2 57 0                          @ ../../../ThirdParty/mbedTLS/library/ctr_drbg.c:57:0
	.fnstart
	.cfi_sections .debug_frame
	.cfi_startproc
@ %bb.0:
	@DEBUG_VALUE: mbedtls_ctr_drbg_init:ctx <- $r0
	@DEBUG_VALUE: mbedtls_ctr_drbg_init:ctx <- $r0
	@DEBUG_VALUE: mbedtls_ctr_drbg_init:ctx <- $r0
	.save	{r7, lr}
	push	{r7, lr}
	.cfi_def_cfa_offset 8
	.cfi_offset lr, -4
	.cfi_offset r7, -8
.Ltmp0:
	.loc	2 58 5 prologue_end             @ ../../../ThirdParty/mbedTLS/library/ctr_drbg.c:58:5
	movw	r1, #320
	bl	__aeabi_memclr4
.Ltmp1:
	@DEBUG_VALUE: mbedtls_ctr_drbg_init:ctx <- [DW_OP_LLVM_entry_value 1] $r0
	.loc	2 63 1                          @ ../../../ThirdParty/mbedTLS/library/ctr_drbg.c:63:1
	pop	{r7, pc}
.Ltmp2:
.Lfunc_end0:
	.size	mbedtls_ctr_drbg_init, .Lfunc_end0-mbedtls_ctr_drbg_init
	.cfi_endproc
	.cantunwind
	.fnend
                                        @ -- End function
	.section	.text.mbedtls_ctr_drbg_seed_entropy_len,"ax",%progbits
	.hidden	mbedtls_ctr_drbg_seed_entropy_len @ -- Begin function mbedtls_ctr_drbg_seed_entropy_len
	.globl	mbedtls_ctr_drbg_seed_entropy_len
	.p2align	2
	.type	mbedtls_ctr_drbg_seed_entropy_len,%function
	.code	16                              @ @mbedtls_ctr_drbg_seed_entropy_len
	.thumb_func
mbedtls_ctr_drbg_seed_entropy_len:
.Lfunc_begin1:
	.loc	2 88 0                          @ ../../../ThirdParty/mbedTLS/library/ctr_drbg.c:88:0
	.fnstart
	.cfi_startproc
@ %bb.0:
	@DEBUG_VALUE: mbedtls_ctr_drbg_seed_entropy_len:ctx <- $r0
	@DEBUG_VALUE: mbedtls_ctr_drbg_seed_entropy_len:f_entropy <- $r1
	@DEBUG_VALUE: mbedtls_ctr_drbg_seed_entropy_len:p_entropy <- $r2
	@DEBUG_VALUE: mbedtls_ctr_drbg_seed_entropy_len:custom <- $r3
	.save	{r4, r5, r6, r7, lr}
	push	{r4, r5, r6, r7, lr}
	.cfi_def_cfa_offset 20
	.cfi_offset lr, -4
	.cfi_offset r7, -8
	.cfi_offset r6, -12
	.cfi_offset r5, -16
	.cfi_offset r4, -20
	.pad	#36
	sub	sp, #36
	.cfi_def_cfa_offset 56
	str	r3, [sp]                        @ 4-byte Spill
	mov	r6, r2
	mov	r7, r1
	mov	r4, r0
	movs	r0, #0
.Ltmp3:
	@DEBUG_VALUE: mbedtls_ctr_drbg_seed_entropy_len:ctx <- [DW_OP_LLVM_entry_value 1] $r0
	@DEBUG_VALUE: mbedtls_ctr_drbg_seed_entropy_len:entropy_len <- [DW_OP_plus_uconst 60] [$sp+0]
	@DEBUG_VALUE: mbedtls_ctr_drbg_seed_entropy_len:len <- [DW_OP_plus_uconst 56] [$sp+0]
	@DEBUG_VALUE: mbedtls_ctr_drbg_seed_entropy_len:custom <- [$sp+0]
	@DEBUG_VALUE: mbedtls_ctr_drbg_seed_entropy_len:p_entropy <- $r6
	@DEBUG_VALUE: mbedtls_ctr_drbg_seed_entropy_len:f_entropy <- $r7
	@DEBUG_VALUE: mbedtls_ctr_drbg_seed_entropy_len:ctx <- $r4
	.loc	2 92 5 prologue_end             @ ../../../ThirdParty/mbedTLS/library/ctr_drbg.c:92:5
	str	r0, [sp, #32]
	str	r0, [sp, #28]
	str	r0, [sp, #24]
	str	r0, [sp, #20]
	str	r0, [sp, #16]
	str	r0, [sp, #12]
	str	r0, [sp, #8]
	str	r0, [sp, #4]
	.loc	2 94 29                         @ ../../../ThirdParty/mbedTLS/library/ctr_drbg.c:94:29
	mov	r5, r4
	adds	r5, #32
	.loc	2 94 5 is_stmt 0                @ ../../../ThirdParty/mbedTLS/library/ctr_drbg.c:94:5
	mov	r0, r5
	bl	mbedtls_aes_init
	movw	r0, #312
	.loc	2 96 20 is_stmt 1               @ ../../../ThirdParty/mbedTLS/library/ctr_drbg.c:96:20
	str	r7, [r4, r0]
	adds	r0, r4, r0
	.loc	2 97 20                         @ ../../../ThirdParty/mbedTLS/library/ctr_drbg.c:97:20
	str	r6, [r0, #4]
	ldr	r0, __arm_cp.1_0
	.loc	2 100 26                        @ ../../../ThirdParty/mbedTLS/library/ctr_drbg.c:100:26
	str	r0, [r4, #28]
	ldr	r0, [sp, #60]
	.loc	2 99 22                         @ ../../../ThirdParty/mbedTLS/library/ctr_drbg.c:99:22
	str	r0, [r4, #24]
	add	r1, sp, #4
.Ltmp4:
	.loc	2 105 17                        @ ../../../ThirdParty/mbedTLS/library/ctr_drbg.c:105:17
	mov	r0, r5
	movw	r2, #256
	bl	mbedtls_aes_setkey_enc
.Ltmp5:
	@DEBUG_VALUE: mbedtls_ctr_drbg_seed_entropy_len:ret <- $r0
	.loc	2 105 9 is_stmt 0               @ ../../../ThirdParty/mbedTLS/library/ctr_drbg.c:105:9
	cbz	r0, .LBB1_2
.Ltmp6:
@ %bb.1:
	@DEBUG_VALUE: mbedtls_ctr_drbg_seed_entropy_len:f_entropy <- $r7
	@DEBUG_VALUE: mbedtls_ctr_drbg_seed_entropy_len:p_entropy <- $r6
	@DEBUG_VALUE: mbedtls_ctr_drbg_seed_entropy_len:ctx <- $r4
	@DEBUG_VALUE: mbedtls_ctr_drbg_seed_entropy_len:ret <- $r0
	@DEBUG_VALUE: mbedtls_ctr_drbg_seed_entropy_len:custom <- [$sp+0]
	@DEBUG_VALUE: mbedtls_ctr_drbg_seed_entropy_len:len <- [DW_OP_plus_uconst 56] [$sp+0]
	@DEBUG_VALUE: mbedtls_ctr_drbg_seed_entropy_len:entropy_len <- [DW_OP_plus_uconst 60] [$sp+0]
	.loc	2 116 1 is_stmt 1               @ ../../../ThirdParty/mbedTLS/library/ctr_drbg.c:116:1
	add	sp, #36
.Ltmp7:
	pop	{r4, r5, r6, r7, pc}
.Ltmp8:
.LBB1_2:
	@DEBUG_VALUE: mbedtls_ctr_drbg_seed_entropy_len:f_entropy <- $r7
	@DEBUG_VALUE: mbedtls_ctr_drbg_seed_entropy_len:p_entropy <- $r6
	@DEBUG_VALUE: mbedtls_ctr_drbg_seed_entropy_len:ctx <- $r4
	@DEBUG_VALUE: mbedtls_ctr_drbg_seed_entropy_len:ret <- $r0
	@DEBUG_VALUE: mbedtls_ctr_drbg_seed_entropy_len:custom <- [$sp+0]
	@DEBUG_VALUE: mbedtls_ctr_drbg_seed_entropy_len:len <- [DW_OP_plus_uconst 56] [$sp+0]
	@DEBUG_VALUE: mbedtls_ctr_drbg_seed_entropy_len:entropy_len <- [DW_OP_plus_uconst 60] [$sp+0]
	.loc	2 0 1 is_stmt 0                 @ ../../../ThirdParty/mbedTLS/library/ctr_drbg.c:0:1
	ldr	r2, [sp, #56]
.Ltmp9:
	.loc	2 111 17 is_stmt 1              @ ../../../ThirdParty/mbedTLS/library/ctr_drbg.c:111:17
	mov	r0, r4
.Ltmp10:
	ldr	r1, [sp]                        @ 4-byte Reload
	bl	mbedtls_ctr_drbg_reseed
.Ltmp11:
	@DEBUG_VALUE: mbedtls_ctr_drbg_seed_entropy_len:ret <- $r0
	.loc	2 116 1                         @ ../../../ThirdParty/mbedTLS/library/ctr_drbg.c:116:1
	add	sp, #36
.Ltmp12:
	pop	{r4, r5, r6, r7, pc}
.Ltmp13:
	.p2align	2
@ %bb.3:
	.loc	2 0 1 is_stmt 0                 @ ../../../ThirdParty/mbedTLS/library/ctr_drbg.c:0:1
__arm_cp.1_0:
	.long	10000                           @ 0x2710
.Lcpi_end0:
	.size	__arm_cp.1_0, .Lcpi_end0-__arm_cp.1_0
.Lfunc_end1:
	.size	mbedtls_ctr_drbg_seed_entropy_len, .Lfunc_end1-mbedtls_ctr_drbg_seed_entropy_len
	.cfi_endproc
	.cantunwind
	.fnend
                                        @ -- End function
	.section	.text.mbedtls_ctr_drbg_reseed,"ax",%progbits
	.hidden	mbedtls_ctr_drbg_reseed         @ -- Begin function mbedtls_ctr_drbg_reseed
	.globl	mbedtls_ctr_drbg_reseed
	.p2align	1
	.type	mbedtls_ctr_drbg_reseed,%function
	.code	16                              @ @mbedtls_ctr_drbg_reseed
	.thumb_func
mbedtls_ctr_drbg_reseed:
.Lfunc_begin2:
	.loc	2 399 0 is_stmt 1               @ ../../../ThirdParty/mbedTLS/library/ctr_drbg.c:399:0
	.fnstart
	.cfi_startproc
@ %bb.0:
	@DEBUG_VALUE: mbedtls_ctr_drbg_reseed:ctx <- $r0
	@DEBUG_VALUE: mbedtls_ctr_drbg_reseed:ctx <- $r0
	@DEBUG_VALUE: mbedtls_ctr_drbg_reseed:additional <- $r1
	@DEBUG_VALUE: mbedtls_ctr_drbg_reseed:additional <- $r1
	@DEBUG_VALUE: mbedtls_ctr_drbg_reseed:len <- $r2
	@DEBUG_VALUE: mbedtls_ctr_drbg_reseed:len <- $r2
	.save	{r4, r5, r6, r7, lr}
	push	{r4, r5, r6, r7, lr}
	.cfi_def_cfa_offset 20
	.cfi_offset lr, -4
	.cfi_offset r7, -8
	.cfi_offset r6, -12
	.cfi_offset r5, -16
	.cfi_offset r4, -20
	.pad	#396
	sub	sp, #396
	.cfi_def_cfa_offset 416
.Ltmp14:
	@DEBUG_VALUE: mbedtls_ctr_drbg_reseed:seedlen <- 0
	.loc	2 404 14 prologue_end           @ ../../../ThirdParty/mbedTLS/library/ctr_drbg.c:404:14
	ldr	r7, [r0, #24]
	movw	r3, #384
	movs	r4, #55
	mvns	r5, r4
	.loc	2 404 60 is_stmt 0              @ ../../../ThirdParty/mbedTLS/library/ctr_drbg.c:404:60
	cmp	r7, r3
	bhi	.LBB2_11
.Ltmp15:
@ %bb.1:
	@DEBUG_VALUE: mbedtls_ctr_drbg_reseed:len <- $r2
	@DEBUG_VALUE: mbedtls_ctr_drbg_reseed:additional <- $r1
	@DEBUG_VALUE: mbedtls_ctr_drbg_reseed:ctx <- $r0
	@DEBUG_VALUE: mbedtls_ctr_drbg_reseed:seedlen <- 0
	.loc	2 0 60                          @ ../../../ThirdParty/mbedTLS/library/ctr_drbg.c:0:60
	subs	r3, r3, r7
	.loc	2 404 60                        @ ../../../ThirdParty/mbedTLS/library/ctr_drbg.c:404:60
	cmp	r3, r2
	blo	.LBB2_11
.Ltmp16:
@ %bb.2:
	@DEBUG_VALUE: mbedtls_ctr_drbg_reseed:len <- $r2
	@DEBUG_VALUE: mbedtls_ctr_drbg_reseed:additional <- $r1
	@DEBUG_VALUE: mbedtls_ctr_drbg_reseed:ctx <- $r0
	@DEBUG_VALUE: mbedtls_ctr_drbg_reseed:seedlen <- 0
	.loc	2 0 60                          @ ../../../ThirdParty/mbedTLS/library/ctr_drbg.c:0:60
	str	r1, [sp, #8]                    @ 4-byte Spill
.Ltmp17:
	@DEBUG_VALUE: mbedtls_ctr_drbg_reseed:additional <- [DW_OP_plus_uconst 8] [$sp+0]
	str	r2, [sp]                        @ 4-byte Spill
.Ltmp18:
	@DEBUG_VALUE: mbedtls_ctr_drbg_reseed:len <- [$sp+0]
	movw	r1, #312
	adds	r6, r0, r1
	str	r0, [sp, #4]                    @ 4-byte Spill
.Ltmp19:
	@DEBUG_VALUE: mbedtls_ctr_drbg_reseed:ctx <- [DW_OP_plus_uconst 4] [$sp+0]
	add	r4, sp, #12
	.loc	2 408 5 is_stmt 1               @ ../../../ThirdParty/mbedTLS/library/ctr_drbg.c:408:5
	mov	r0, r4
	movw	r1, #384
	bl	__aeabi_memclr4
.Ltmp20:
	.loc	2 413 19                        @ ../../../ThirdParty/mbedTLS/library/ctr_drbg.c:413:19
	ldr	r3, [r6]
	.loc	2 413 35 is_stmt 0              @ ../../../ThirdParty/mbedTLS/library/ctr_drbg.c:413:35
	ldr	r0, [r6, #4]
	.loc	2 413 14                        @ ../../../ThirdParty/mbedTLS/library/ctr_drbg.c:413:14
	mov	r1, r4
	mov	r2, r7
	blx	r3
.Ltmp21:
	.loc	2 413 9                         @ ../../../ThirdParty/mbedTLS/library/ctr_drbg.c:413:9
	cbz	r0, .LBB2_4
.Ltmp22:
@ %bb.3:
	@DEBUG_VALUE: mbedtls_ctr_drbg_reseed:ctx <- [DW_OP_plus_uconst 4] [$sp+0]
	@DEBUG_VALUE: mbedtls_ctr_drbg_reseed:len <- [$sp+0]
	@DEBUG_VALUE: mbedtls_ctr_drbg_reseed:additional <- [DW_OP_plus_uconst 8] [$sp+0]
	@DEBUG_VALUE: mbedtls_ctr_drbg_reseed:seedlen <- 0
	.loc	2 0 9                           @ ../../../ThirdParty/mbedTLS/library/ctr_drbg.c:0:9
	adds	r5, r5, #4
	b	.LBB2_11
.Ltmp23:
.LBB2_4:
	@DEBUG_VALUE: mbedtls_ctr_drbg_reseed:ctx <- [DW_OP_plus_uconst 4] [$sp+0]
	@DEBUG_VALUE: mbedtls_ctr_drbg_reseed:len <- [$sp+0]
	@DEBUG_VALUE: mbedtls_ctr_drbg_reseed:additional <- [DW_OP_plus_uconst 8] [$sp+0]
	@DEBUG_VALUE: mbedtls_ctr_drbg_reseed:seedlen <- 0
	ldr	r4, [sp, #4]                    @ 4-byte Reload
.Ltmp24:
	@DEBUG_VALUE: mbedtls_ctr_drbg_reseed:ctx <- $r4
	.loc	2 419 21 is_stmt 1              @ ../../../ThirdParty/mbedTLS/library/ctr_drbg.c:419:21
	ldr	r5, [r4, #24]
.Ltmp25:
	@DEBUG_VALUE: mbedtls_ctr_drbg_reseed:seedlen <- $r5
	.loc	2 424 20                        @ ../../../ThirdParty/mbedTLS/library/ctr_drbg.c:424:20
	ldr	r0, [sp, #8]                    @ 4-byte Reload
.Ltmp26:
	@DEBUG_VALUE: mbedtls_ctr_drbg_reseed:additional <- $r0
	cbz	r0, .LBB2_7
.Ltmp27:
@ %bb.5:
	@DEBUG_VALUE: mbedtls_ctr_drbg_reseed:len <- [$sp+0]
	@DEBUG_VALUE: mbedtls_ctr_drbg_reseed:seedlen <- $r5
	@DEBUG_VALUE: mbedtls_ctr_drbg_reseed:ctx <- $r4
	@DEBUG_VALUE: mbedtls_ctr_drbg_reseed:additional <- $r0
	.loc	2 0 20 is_stmt 0                @ ../../../ThirdParty/mbedTLS/library/ctr_drbg.c:0:20
	ldr	r6, [sp]                        @ 4-byte Reload
.Ltmp28:
	@DEBUG_VALUE: mbedtls_ctr_drbg_reseed:len <- $r6
	.loc	2 424 20                        @ ../../../ThirdParty/mbedTLS/library/ctr_drbg.c:424:20
	cbz	r6, .LBB2_7
.Ltmp29:
@ %bb.6:
	@DEBUG_VALUE: mbedtls_ctr_drbg_reseed:len <- $r6
	@DEBUG_VALUE: mbedtls_ctr_drbg_reseed:seedlen <- $r5
	@DEBUG_VALUE: mbedtls_ctr_drbg_reseed:ctx <- $r4
	@DEBUG_VALUE: mbedtls_ctr_drbg_reseed:additional <- $r0
	.loc	2 0 20                          @ ../../../ThirdParty/mbedTLS/library/ctr_drbg.c:0:20
	add	r0, sp, #12
.Ltmp30:
	@DEBUG_VALUE: mbedtls_ctr_drbg_reseed:additional <- [DW_OP_LLVM_entry_value 1] $r1
	.loc	2 426 22 is_stmt 1              @ ../../../ThirdParty/mbedTLS/library/ctr_drbg.c:426:22
	adds	r0, r0, r5
	.loc	2 426 9 is_stmt 0               @ ../../../ThirdParty/mbedTLS/library/ctr_drbg.c:426:9
	ldr	r1, [sp, #8]                    @ 4-byte Reload
	mov	r2, r6
	bl	__aeabi_memcpy
	.loc	2 427 17 is_stmt 1              @ ../../../ThirdParty/mbedTLS/library/ctr_drbg.c:427:17
	adds	r5, r5, r6
.Ltmp31:
	@DEBUG_VALUE: mbedtls_ctr_drbg_reseed:seedlen <- $r5
.LBB2_7:
	@DEBUG_VALUE: mbedtls_ctr_drbg_reseed:seedlen <- $r5
	@DEBUG_VALUE: mbedtls_ctr_drbg_reseed:ctx <- $r4
	@DEBUG_VALUE: mbedtls_ctr_drbg_reseed:seedlen <- $r5
	.loc	2 0 17 is_stmt 0                @ ../../../ThirdParty/mbedTLS/library/ctr_drbg.c:0:17
	add	r0, sp, #12
.Ltmp32:
	.loc	2 433 17 is_stmt 1              @ ../../../ThirdParty/mbedTLS/library/ctr_drbg.c:433:17
	mov	r1, r0
	mov	r2, r5
	bl	block_cipher_df
	mov	r5, r0
.Ltmp33:
	@DEBUG_VALUE: mbedtls_ctr_drbg_reseed:ret <- $r5
	.loc	2 433 9 is_stmt 0               @ ../../../ThirdParty/mbedTLS/library/ctr_drbg.c:433:9
	cbnz	r0, .LBB2_10
.Ltmp34:
@ %bb.8:
	@DEBUG_VALUE: mbedtls_ctr_drbg_reseed:ret <- $r5
	@DEBUG_VALUE: mbedtls_ctr_drbg_reseed:ctx <- $r4
	.loc	2 0 9                           @ ../../../ThirdParty/mbedTLS/library/ctr_drbg.c:0:9
	add	r1, sp, #12
.Ltmp35:
	.loc	2 439 17 is_stmt 1              @ ../../../ThirdParty/mbedTLS/library/ctr_drbg.c:439:17
	mov	r0, r4
	bl	ctr_drbg_update_internal
	mov	r5, r0
.Ltmp36:
	@DEBUG_VALUE: mbedtls_ctr_drbg_reseed:ret <- $r5
	.loc	2 439 9 is_stmt 0               @ ../../../ThirdParty/mbedTLS/library/ctr_drbg.c:439:9
	cbnz	r0, .LBB2_10
.Ltmp37:
@ %bb.9:
	@DEBUG_VALUE: mbedtls_ctr_drbg_reseed:ret <- $r5
	@DEBUG_VALUE: mbedtls_ctr_drbg_reseed:ctx <- $r4
	.loc	2 0 9                           @ ../../../ThirdParty/mbedTLS/library/ctr_drbg.c:0:9
	movs	r0, #1
	.loc	2 441 25 is_stmt 1              @ ../../../ThirdParty/mbedTLS/library/ctr_drbg.c:441:25
	str	r0, [r4, #16]
	movs	r5, #0
.Ltmp38:
.LBB2_10:
	@DEBUG_VALUE: mbedtls_ctr_drbg_reseed:ctx <- $r4
	@DEBUG_VALUE: mbedtls_ctr_drbg_reseed:ret <- $r5
	@DEBUG_LABEL: mbedtls_ctr_drbg_reseed:exit
	.loc	2 0 25 is_stmt 0                @ ../../../ThirdParty/mbedTLS/library/ctr_drbg.c:0:25
	add	r0, sp, #12
	.loc	2 444 5 is_stmt 1               @ ../../../ThirdParty/mbedTLS/library/ctr_drbg.c:444:5
	movw	r1, #384
	bl	mbedtls_platform_zeroize
.Ltmp39:
.LBB2_11:
	.loc	2 446 1                         @ ../../../ThirdParty/mbedTLS/library/ctr_drbg.c:446:1
	mov	r0, r5
	add	sp, #396
	pop	{r4, r5, r6, r7, pc}
.Ltmp40:
.Lfunc_end2:
	.size	mbedtls_ctr_drbg_reseed, .Lfunc_end2-mbedtls_ctr_drbg_reseed
	.cfi_endproc
	.cantunwind
	.fnend
                                        @ -- End function
	.section	.text.mbedtls_ctr_drbg_seed,"ax",%progbits
	.hidden	mbedtls_ctr_drbg_seed           @ -- Begin function mbedtls_ctr_drbg_seed
	.globl	mbedtls_ctr_drbg_seed
	.p2align	1
	.type	mbedtls_ctr_drbg_seed,%function
	.code	16                              @ @mbedtls_ctr_drbg_seed
	.thumb_func
mbedtls_ctr_drbg_seed:
.Lfunc_begin3:
	.loc	2 123 0                         @ ../../../ThirdParty/mbedTLS/library/ctr_drbg.c:123:0
	.fnstart
	.cfi_startproc
@ %bb.0:
	@DEBUG_VALUE: mbedtls_ctr_drbg_seed:ctx <- $r0
	@DEBUG_VALUE: mbedtls_ctr_drbg_seed:ctx <- $r0
	@DEBUG_VALUE: mbedtls_ctr_drbg_seed:f_entropy <- $r1
	@DEBUG_VALUE: mbedtls_ctr_drbg_seed:f_entropy <- $r1
	@DEBUG_VALUE: mbedtls_ctr_drbg_seed:p_entropy <- $r2
	@DEBUG_VALUE: mbedtls_ctr_drbg_seed:p_entropy <- $r2
	@DEBUG_VALUE: mbedtls_ctr_drbg_seed:custom <- $r3
	@DEBUG_VALUE: mbedtls_ctr_drbg_seed:custom <- $r3
	.save	{r4, lr}
	push	{r4, lr}
	.cfi_def_cfa_offset 8
	.cfi_offset lr, -4
	.cfi_offset r4, -8
	.pad	#8
	sub	sp, #8
	.cfi_def_cfa_offset 16
.Ltmp41:
	@DEBUG_VALUE: mbedtls_ctr_drbg_seed:len <- [DW_OP_plus_uconst 16] [$sp+0]
	movs	r4, #48
.Ltmp42:
	.loc	2 124 13 prologue_end           @ ../../../ThirdParty/mbedTLS/library/ctr_drbg.c:124:13
	str	r4, [sp, #4]
	ldr	r4, [sp, #16]
	str	r4, [sp]
	@DEBUG_VALUE: mbedtls_ctr_drbg_seed:custom <- $r3
	@DEBUG_VALUE: mbedtls_ctr_drbg_seed:p_entropy <- $r2
	@DEBUG_VALUE: mbedtls_ctr_drbg_seed:f_entropy <- $r1
	@DEBUG_VALUE: mbedtls_ctr_drbg_seed:ctx <- $r0
	bl	mbedtls_ctr_drbg_seed_entropy_len
.Ltmp43:
	@DEBUG_VALUE: mbedtls_ctr_drbg_seed:custom <- [DW_OP_LLVM_entry_value 1] $r3
	@DEBUG_VALUE: mbedtls_ctr_drbg_seed:p_entropy <- [DW_OP_LLVM_entry_value 1] $r2
	@DEBUG_VALUE: mbedtls_ctr_drbg_seed:f_entropy <- [DW_OP_LLVM_entry_value 1] $r1
	@DEBUG_VALUE: mbedtls_ctr_drbg_seed:ctx <- [DW_OP_LLVM_entry_value 1] $r0
	.loc	2 124 5 is_stmt 0               @ ../../../ThirdParty/mbedTLS/library/ctr_drbg.c:124:5
	add	sp, #8
.Ltmp44:
	pop	{r4, pc}
.Ltmp45:
.Lfunc_end3:
	.size	mbedtls_ctr_drbg_seed, .Lfunc_end3-mbedtls_ctr_drbg_seed
	.cfi_endproc
	.cantunwind
	.fnend
                                        @ -- End function
	.section	.text.mbedtls_ctr_drbg_free,"ax",%progbits
	.hidden	mbedtls_ctr_drbg_free           @ -- Begin function mbedtls_ctr_drbg_free
	.globl	mbedtls_ctr_drbg_free
	.p2align	1
	.type	mbedtls_ctr_drbg_free,%function
	.code	16                              @ @mbedtls_ctr_drbg_free
	.thumb_func
mbedtls_ctr_drbg_free:
.Lfunc_begin4:
	.loc	2 130 0 is_stmt 1               @ ../../../ThirdParty/mbedTLS/library/ctr_drbg.c:130:0
	.fnstart
	.cfi_startproc
@ %bb.0:
	@DEBUG_VALUE: mbedtls_ctr_drbg_free:ctx <- $r0
	@DEBUG_VALUE: mbedtls_ctr_drbg_free:ctx <- $r0
	.save	{r4, lr}
	push	{r4, lr}
	.cfi_def_cfa_offset 8
	.cfi_offset lr, -4
	.cfi_offset r4, -8
.Ltmp46:
	.loc	2 131 9 prologue_end            @ ../../../ThirdParty/mbedTLS/library/ctr_drbg.c:131:9
	cbz	r0, .LBB4_2
.Ltmp47:
@ %bb.1:
	@DEBUG_VALUE: mbedtls_ctr_drbg_free:ctx <- $r0
	.loc	2 0 9 is_stmt 0                 @ ../../../ThirdParty/mbedTLS/library/ctr_drbg.c:0:9
	mov	r4, r0
.Ltmp48:
	@DEBUG_VALUE: mbedtls_ctr_drbg_free:ctx <- $r4
	.loc	2 137 29 is_stmt 1              @ ../../../ThirdParty/mbedTLS/library/ctr_drbg.c:137:29
	adds	r0, #32
	.loc	2 137 5 is_stmt 0               @ ../../../ThirdParty/mbedTLS/library/ctr_drbg.c:137:5
	bl	mbedtls_aes_free
	.loc	2 138 5 is_stmt 1               @ ../../../ThirdParty/mbedTLS/library/ctr_drbg.c:138:5
	mov	r0, r4
	movw	r1, #320
	bl	mbedtls_platform_zeroize
.Ltmp49:
.LBB4_2:
	.loc	2 139 1                         @ ../../../ThirdParty/mbedTLS/library/ctr_drbg.c:139:1
	pop	{r4, pc}
.Ltmp50:
.Lfunc_end4:
	.size	mbedtls_ctr_drbg_free, .Lfunc_end4-mbedtls_ctr_drbg_free
	.cfi_endproc
	.cantunwind
	.fnend
                                        @ -- End function
	.section	.text.mbedtls_ctr_drbg_set_prediction_resistance,"ax",%progbits
	.hidden	mbedtls_ctr_drbg_set_prediction_resistance @ -- Begin function mbedtls_ctr_drbg_set_prediction_resistance
	.globl	mbedtls_ctr_drbg_set_prediction_resistance
	.p2align	1
	.type	mbedtls_ctr_drbg_set_prediction_resistance,%function
	.code	16                              @ @mbedtls_ctr_drbg_set_prediction_resistance
	.thumb_func
mbedtls_ctr_drbg_set_prediction_resistance:
.Lfunc_begin5:
	.loc	2 143 0                         @ ../../../ThirdParty/mbedTLS/library/ctr_drbg.c:143:0
	.fnstart
	.cfi_startproc
@ %bb.0:
	@DEBUG_VALUE: mbedtls_ctr_drbg_set_prediction_resistance:ctx <- $r0
	@DEBUG_VALUE: mbedtls_ctr_drbg_set_prediction_resistance:ctx <- $r0
	@DEBUG_VALUE: mbedtls_ctr_drbg_set_prediction_resistance:resistance <- $r1
	@DEBUG_VALUE: mbedtls_ctr_drbg_set_prediction_resistance:resistance <- $r1
	.loc	2 144 32 prologue_end           @ ../../../ThirdParty/mbedTLS/library/ctr_drbg.c:144:32
	str	r1, [r0, #20]
	.loc	2 145 1                         @ ../../../ThirdParty/mbedTLS/library/ctr_drbg.c:145:1
	bx	lr
.Ltmp51:
.Lfunc_end5:
	.size	mbedtls_ctr_drbg_set_prediction_resistance, .Lfunc_end5-mbedtls_ctr_drbg_set_prediction_resistance
	.cfi_endproc
	.cantunwind
	.fnend
                                        @ -- End function
	.section	.text.mbedtls_ctr_drbg_set_entropy_len,"ax",%progbits
	.hidden	mbedtls_ctr_drbg_set_entropy_len @ -- Begin function mbedtls_ctr_drbg_set_entropy_len
	.globl	mbedtls_ctr_drbg_set_entropy_len
	.p2align	1
	.type	mbedtls_ctr_drbg_set_entropy_len,%function
	.code	16                              @ @mbedtls_ctr_drbg_set_entropy_len
	.thumb_func
mbedtls_ctr_drbg_set_entropy_len:
.Lfunc_begin6:
	.loc	2 149 0                         @ ../../../ThirdParty/mbedTLS/library/ctr_drbg.c:149:0
	.fnstart
	.cfi_startproc
@ %bb.0:
	@DEBUG_VALUE: mbedtls_ctr_drbg_set_entropy_len:ctx <- $r0
	@DEBUG_VALUE: mbedtls_ctr_drbg_set_entropy_len:ctx <- $r0
	@DEBUG_VALUE: mbedtls_ctr_drbg_set_entropy_len:len <- $r1
	@DEBUG_VALUE: mbedtls_ctr_drbg_set_entropy_len:len <- $r1
	.loc	2 150 22 prologue_end           @ ../../../ThirdParty/mbedTLS/library/ctr_drbg.c:150:22
	str	r1, [r0, #24]
	.loc	2 151 1                         @ ../../../ThirdParty/mbedTLS/library/ctr_drbg.c:151:1
	bx	lr
.Ltmp52:
.Lfunc_end6:
	.size	mbedtls_ctr_drbg_set_entropy_len, .Lfunc_end6-mbedtls_ctr_drbg_set_entropy_len
	.cfi_endproc
	.cantunwind
	.fnend
                                        @ -- End function
	.section	.text.mbedtls_ctr_drbg_set_reseed_interval,"ax",%progbits
	.hidden	mbedtls_ctr_drbg_set_reseed_interval @ -- Begin function mbedtls_ctr_drbg_set_reseed_interval
	.globl	mbedtls_ctr_drbg_set_reseed_interval
	.p2align	1
	.type	mbedtls_ctr_drbg_set_reseed_interval,%function
	.code	16                              @ @mbedtls_ctr_drbg_set_reseed_interval
	.thumb_func
mbedtls_ctr_drbg_set_reseed_interval:
.Lfunc_begin7:
	.loc	2 155 0                         @ ../../../ThirdParty/mbedTLS/library/ctr_drbg.c:155:0
	.fnstart
	.cfi_startproc
@ %bb.0:
	@DEBUG_VALUE: mbedtls_ctr_drbg_set_reseed_interval:ctx <- $r0
	@DEBUG_VALUE: mbedtls_ctr_drbg_set_reseed_interval:ctx <- $r0
	@DEBUG_VALUE: mbedtls_ctr_drbg_set_reseed_interval:interval <- $r1
	@DEBUG_VALUE: mbedtls_ctr_drbg_set_reseed_interval:interval <- $r1
	.loc	2 156 26 prologue_end           @ ../../../ThirdParty/mbedTLS/library/ctr_drbg.c:156:26
	str	r1, [r0, #28]
	.loc	2 157 1                         @ ../../../ThirdParty/mbedTLS/library/ctr_drbg.c:157:1
	bx	lr
.Ltmp53:
.Lfunc_end7:
	.size	mbedtls_ctr_drbg_set_reseed_interval, .Lfunc_end7-mbedtls_ctr_drbg_set_reseed_interval
	.cfi_endproc
	.cantunwind
	.fnend
                                        @ -- End function
	.section	.text.mbedtls_ctr_drbg_update_ret,"ax",%progbits
	.hidden	mbedtls_ctr_drbg_update_ret     @ -- Begin function mbedtls_ctr_drbg_update_ret
	.globl	mbedtls_ctr_drbg_update_ret
	.p2align	1
	.type	mbedtls_ctr_drbg_update_ret,%function
	.code	16                              @ @mbedtls_ctr_drbg_update_ret
	.thumb_func
mbedtls_ctr_drbg_update_ret:
.Lfunc_begin8:
	.loc	2 355 0                         @ ../../../ThirdParty/mbedTLS/library/ctr_drbg.c:355:0
	.fnstart
	.cfi_startproc
@ %bb.0:
	@DEBUG_VALUE: mbedtls_ctr_drbg_update_ret:ctx <- $r0
	@DEBUG_VALUE: mbedtls_ctr_drbg_update_ret:additional <- $r1
	@DEBUG_VALUE: mbedtls_ctr_drbg_update_ret:add_len <- $r2
	@DEBUG_VALUE: mbedtls_ctr_drbg_update_ret:add_len <- $r2
	@DEBUG_VALUE: mbedtls_ctr_drbg_update_ret:additional <- $r1
	@DEBUG_VALUE: mbedtls_ctr_drbg_update_ret:ctx <- $r0
	.save	{r4, r5, r7, lr}
	push	{r4, r5, r7, lr}
	.cfi_def_cfa_offset 16
	.cfi_offset lr, -4
	.cfi_offset r7, -8
	.cfi_offset r5, -12
	.cfi_offset r4, -16
	.pad	#48
	sub	sp, #48
	.cfi_def_cfa_offset 64
.Ltmp54:
	.loc	2 359 9 prologue_end            @ ../../../ThirdParty/mbedTLS/library/ctr_drbg.c:359:9
	cbz	r2, .LBB8_4
.Ltmp55:
@ %bb.1:
	@DEBUG_VALUE: mbedtls_ctr_drbg_update_ret:add_len <- $r2
	@DEBUG_VALUE: mbedtls_ctr_drbg_update_ret:additional <- $r1
	@DEBUG_VALUE: mbedtls_ctr_drbg_update_ret:ctx <- $r0
	.loc	2 0 9 is_stmt 0                 @ ../../../ThirdParty/mbedTLS/library/ctr_drbg.c:0:9
	mov	r5, r0
.Ltmp56:
	@DEBUG_VALUE: mbedtls_ctr_drbg_update_ret:ctx <- $r5
	mov	r0, sp
.Ltmp57:
	.loc	2 362 17 is_stmt 1              @ ../../../ThirdParty/mbedTLS/library/ctr_drbg.c:362:17
	bl	block_cipher_df
.Ltmp58:
	@DEBUG_VALUE: mbedtls_ctr_drbg_update_ret:add_len <- [DW_OP_LLVM_entry_value 1] $r2
	@DEBUG_VALUE: mbedtls_ctr_drbg_update_ret:additional <- [DW_OP_LLVM_entry_value 1] $r1
	mov	r4, r0
.Ltmp59:
	@DEBUG_VALUE: mbedtls_ctr_drbg_update_ret:ret <- $r4
	.loc	2 362 9 is_stmt 0               @ ../../../ThirdParty/mbedTLS/library/ctr_drbg.c:362:9
	cbnz	r0, .LBB8_3
.Ltmp60:
@ %bb.2:
	@DEBUG_VALUE: mbedtls_ctr_drbg_update_ret:ctx <- $r5
	@DEBUG_VALUE: mbedtls_ctr_drbg_update_ret:ret <- $r4
	@DEBUG_VALUE: mbedtls_ctr_drbg_update_ret:add_len <- [DW_OP_LLVM_entry_value 1] $r2
	@DEBUG_VALUE: mbedtls_ctr_drbg_update_ret:additional <- [DW_OP_LLVM_entry_value 1] $r1
	.loc	2 0 9                           @ ../../../ThirdParty/mbedTLS/library/ctr_drbg.c:0:9
	mov	r1, sp
.Ltmp61:
	.loc	2 364 17 is_stmt 1              @ ../../../ThirdParty/mbedTLS/library/ctr_drbg.c:364:17
	mov	r0, r5
	bl	ctr_drbg_update_internal
	mov	r4, r0
.Ltmp62:
	@DEBUG_VALUE: mbedtls_ctr_drbg_update_ret:ret <- $r4
.LBB8_3:
	@DEBUG_VALUE: mbedtls_ctr_drbg_update_ret:ctx <- $r5
	@DEBUG_VALUE: mbedtls_ctr_drbg_update_ret:ret <- $r4
	@DEBUG_VALUE: mbedtls_ctr_drbg_update_ret:add_len <- [DW_OP_LLVM_entry_value 1] $r2
	@DEBUG_VALUE: mbedtls_ctr_drbg_update_ret:additional <- [DW_OP_LLVM_entry_value 1] $r1
	@DEBUG_VALUE: mbedtls_ctr_drbg_update_ret:ret <- $r4
	@DEBUG_LABEL: mbedtls_ctr_drbg_update_ret:exit
	.loc	2 0 17 is_stmt 0                @ ../../../ThirdParty/mbedTLS/library/ctr_drbg.c:0:17
	mov	r0, sp
	movs	r1, #48
	.loc	2 368 5 is_stmt 1               @ ../../../ThirdParty/mbedTLS/library/ctr_drbg.c:368:5
	bl	mbedtls_platform_zeroize
	b	.LBB8_5
.Ltmp63:
.LBB8_4:
	@DEBUG_VALUE: mbedtls_ctr_drbg_update_ret:add_len <- $r2
	@DEBUG_VALUE: mbedtls_ctr_drbg_update_ret:additional <- $r1
	@DEBUG_VALUE: mbedtls_ctr_drbg_update_ret:ctx <- $r0
	.loc	2 0 5 is_stmt 0                 @ ../../../ThirdParty/mbedTLS/library/ctr_drbg.c:0:5
	movs	r4, #0
.Ltmp64:
.LBB8_5:
	.loc	2 370 1 is_stmt 1               @ ../../../ThirdParty/mbedTLS/library/ctr_drbg.c:370:1
	mov	r0, r4
	add	sp, #48
	pop	{r4, r5, r7, pc}
.Ltmp65:
.Lfunc_end8:
	.size	mbedtls_ctr_drbg_update_ret, .Lfunc_end8-mbedtls_ctr_drbg_update_ret
	.cfi_endproc
	.cantunwind
	.fnend
                                        @ -- End function
	.section	.text.block_cipher_df,"ax",%progbits
	.p2align	1                               @ -- Begin function block_cipher_df
	.type	block_cipher_df,%function
	.code	16                              @ @block_cipher_df
	.thumb_func
block_cipher_df:
.Lfunc_begin9:
	.loc	2 161 0                         @ ../../../ThirdParty/mbedTLS/library/ctr_drbg.c:161:0
	.fnstart
	.cfi_startproc
@ %bb.0:
	@DEBUG_VALUE: block_cipher_df:output <- $r0
	@DEBUG_VALUE: block_cipher_df:data <- $r1
	@DEBUG_VALUE: block_cipher_df:data_len <- $r2
	.save	{r4, r5, r6, r7, lr}
	push	{r4, r5, r6, r7, lr}
	.cfi_def_cfa_offset 20
	.cfi_offset lr, -4
	.cfi_offset r7, -8
	.cfi_offset r6, -12
	.cfi_offset r5, -16
	.cfi_offset r4, -20
	.pad	#508
	sub	sp, #508
	.pad	#296
	sub	sp, #296
	.cfi_def_cfa_offset 824
	mov	r7, r1
.Ltmp66:
	@DEBUG_VALUE: block_cipher_df:ret <- 0
	@DEBUG_VALUE: block_cipher_df:data_len <- $r2
	@DEBUG_VALUE: block_cipher_df:data <- $r7
	@DEBUG_VALUE: block_cipher_df:output <- $r0
	.loc	2 174 18 prologue_end           @ ../../../ThirdParty/mbedTLS/library/ctr_drbg.c:174:18
	movw	r1, #256
	adds	r1, #128
.Ltmp67:
	.loc	2 174 9 is_stmt 0               @ ../../../ThirdParty/mbedTLS/library/ctr_drbg.c:174:9
	cmp	r2, r1
	bls	.LBB9_2
.Ltmp68:
@ %bb.1:
	@DEBUG_VALUE: block_cipher_df:data <- $r7
	@DEBUG_VALUE: block_cipher_df:data_len <- $r2
	@DEBUG_VALUE: block_cipher_df:output <- $r0
	@DEBUG_VALUE: block_cipher_df:ret <- 0
	.loc	2 0 9                           @ ../../../ThirdParty/mbedTLS/library/ctr_drbg.c:0:9
	movs	r0, #55
.Ltmp69:
	@DEBUG_VALUE: block_cipher_df:output <- [DW_OP_LLVM_entry_value 1] $r0
	mvns	r7, r0
.Ltmp70:
	b	.LBB9_21
.Ltmp71:
.LBB9_2:
	@DEBUG_VALUE: block_cipher_df:data <- $r7
	@DEBUG_VALUE: block_cipher_df:data_len <- $r2
	@DEBUG_VALUE: block_cipher_df:output <- $r0
	@DEBUG_VALUE: block_cipher_df:ret <- 0
	mov	r6, r2
.Ltmp72:
	@DEBUG_VALUE: block_cipher_df:data_len <- $r6
	str	r0, [sp, #8]                    @ 4-byte Spill
.Ltmp73:
	@DEBUG_VALUE: block_cipher_df:output <- [DW_OP_plus_uconst 8] [$sp+0]
	add	r4, sp, #388
.Ltmp74:
	@DEBUG_VALUE: block_cipher_df:p <- [DW_OP_plus_uconst 23, DW_OP_stack_value] $r4
	.loc	2 177 5 is_stmt 1               @ ../../../ThirdParty/mbedTLS/library/ctr_drbg.c:177:5
	mov	r0, r4
	movw	r1, #416
	bl	__aeabi_memclr4
	add	r0, sp, #12
	.loc	2 179 5                         @ ../../../ThirdParty/mbedTLS/library/ctr_drbg.c:179:5
	bl	mbedtls_aes_init
	movs	r0, #48
	.loc	2 194 10                        @ ../../../ThirdParty/mbedTLS/library/ctr_drbg.c:194:10
	strb	r0, [r4, #23]
.Ltmp75:
	@DEBUG_VALUE: block_cipher_df:p <- [DW_OP_plus_uconst 388, DW_OP_plus_uconst 20, DW_OP_stack_value] $sp
	.loc	2 192 10                        @ ../../../ThirdParty/mbedTLS/library/ctr_drbg.c:192:10
	strb	r6, [r4, #19]
	.loc	2 191 23                        @ ../../../ThirdParty/mbedTLS/library/ctr_drbg.c:191:23
	lsrs	r0, r6, #8
	.loc	2 191 10 is_stmt 0              @ ../../../ThirdParty/mbedTLS/library/ctr_drbg.c:191:10
	strb	r0, [r4, #18]
	movs	r5, #0
.Ltmp76:
	@DEBUG_VALUE: block_cipher_df:p <- undef
	.loc	2 189 10 is_stmt 1              @ ../../../ThirdParty/mbedTLS/library/ctr_drbg.c:189:10
	strh	r5, [r4, #16]
	.loc	2 194 7                         @ ../../../ThirdParty/mbedTLS/library/ctr_drbg.c:194:7
	adds	r4, #24
.Ltmp77:
	@DEBUG_VALUE: block_cipher_df:p <- $r4
	.loc	2 195 5                         @ ../../../ThirdParty/mbedTLS/library/ctr_drbg.c:195:5
	mov	r0, r4
	mov	r1, r7
	mov	r2, r6
	bl	__aeabi_memcpy
	movs	r0, #128
	.loc	2 196 17                        @ ../../../ThirdParty/mbedTLS/library/ctr_drbg.c:196:17
	strb	r0, [r4, r6]
.Ltmp78:
	@DEBUG_VALUE: block_cipher_df:i <- 0
.LBB9_3:                                @ =>This Inner Loop Header: Depth=1
	@DEBUG_VALUE: block_cipher_df:output <- [DW_OP_plus_uconst 8] [$sp+0]
	@DEBUG_VALUE: block_cipher_df:data <- $r7
	@DEBUG_VALUE: block_cipher_df:data_len <- $r6
	@DEBUG_VALUE: block_cipher_df:p <- $r4
	@DEBUG_VALUE: block_cipher_df:ret <- 0
	@DEBUG_VALUE: block_cipher_df:i <- $r5
	.loc	2 0 17 is_stmt 0                @ ../../../ThirdParty/mbedTLS/library/ctr_drbg.c:0:17
	add	r0, sp, #308
.Ltmp79:
	.loc	2 201 16 is_stmt 1              @ ../../../ThirdParty/mbedTLS/library/ctr_drbg.c:201:16
	strb	r5, [r0, r5]
	.loc	2 200 48                        @ ../../../ThirdParty/mbedTLS/library/ctr_drbg.c:200:48
	adds	r5, r5, #1
.Ltmp80:
	@DEBUG_VALUE: block_cipher_df:i <- $r5
	.loc	2 200 5 is_stmt 0               @ ../../../ThirdParty/mbedTLS/library/ctr_drbg.c:200:5
	cmp	r5, #32
	bne	.LBB9_3
.Ltmp81:
@ %bb.4:
	@DEBUG_VALUE: block_cipher_df:output <- [DW_OP_plus_uconst 8] [$sp+0]
	@DEBUG_VALUE: block_cipher_df:data <- $r7
	@DEBUG_VALUE: block_cipher_df:data_len <- $r6
	@DEBUG_VALUE: block_cipher_df:i <- $r5
	@DEBUG_VALUE: block_cipher_df:p <- $r4
	@DEBUG_VALUE: block_cipher_df:ret <- 0
	.loc	2 0 5                           @ ../../../ThirdParty/mbedTLS/library/ctr_drbg.c:0:5
	add	r0, sp, #12
	add	r1, sp, #308
.Ltmp82:
	.loc	2 203 17 is_stmt 1              @ ../../../ThirdParty/mbedTLS/library/ctr_drbg.c:203:17
	movw	r2, #256
	bl	mbedtls_aes_setkey_enc
	mov	r7, r0
.Ltmp83:
	@DEBUG_VALUE: block_cipher_df:buf_len <- undef
	@DEBUG_VALUE: block_cipher_df:ret <- $r7
	.loc	2 203 9 is_stmt 0               @ ../../../ThirdParty/mbedTLS/library/ctr_drbg.c:203:9
	cmp	r0, #0
	bne	.LBB9_19
.Ltmp84:
@ %bb.5:
	@DEBUG_VALUE: block_cipher_df:output <- [DW_OP_plus_uconst 8] [$sp+0]
	@DEBUG_VALUE: block_cipher_df:ret <- $r7
	@DEBUG_VALUE: block_cipher_df:data_len <- $r6
	@DEBUG_VALUE: block_cipher_df:i <- $r5
	@DEBUG_VALUE: block_cipher_df:p <- $r4
	.loc	2 0 9                           @ ../../../ThirdParty/mbedTLS/library/ctr_drbg.c:0:9
	adds	r6, #25
.Ltmp85:
	@DEBUG_VALUE: block_cipher_df:data_len <- [DW_OP_LLVM_entry_value 1] $r2
	@DEBUG_VALUE: block_cipher_df:buf_len <- $r6
	movs	r4, #0
.Ltmp86:
	@DEBUG_VALUE: block_cipher_df:j <- 0
	mov	r0, r4
	str	r6, [sp]                        @ 4-byte Spill
.Ltmp87:
.LBB9_6:                                @ =>This Loop Header: Depth=1
                                        @     Child Loop BB9_8 Depth 2
                                        @       Child Loop BB9_10 Depth 3
	@DEBUG_VALUE: block_cipher_df:output <- [DW_OP_plus_uconst 8] [$sp+0]
	@DEBUG_VALUE: block_cipher_df:data_len <- [DW_OP_LLVM_entry_value 1] $r2
	@DEBUG_VALUE: block_cipher_df:j <- $r0
	str	r0, [sp, #4]                    @ 4-byte Spill
.Ltmp88:
	@DEBUG_VALUE: block_cipher_df:j <- [DW_OP_plus_uconst 4] [$sp+0]
	@DEBUG_VALUE: block_cipher_df:j <- [DW_OP_plus_uconst 4] [$sp+0]
	@DEBUG_VALUE: block_cipher_df:j <- [DW_OP_plus_uconst 4] [$sp+0]
	@DEBUG_VALUE: block_cipher_df:j <- [DW_OP_plus_uconst 4] [$sp+0]
	.loc	2 215 9 is_stmt 1               @ ../../../ThirdParty/mbedTLS/library/ctr_drbg.c:215:9
	str	r4, [sp, #304]
	str	r4, [sp, #300]
	str	r4, [sp, #296]
	str	r4, [sp, #292]
	add	r5, sp, #388
.Ltmp89:
	@DEBUG_VALUE: block_cipher_df:use_len <- [$sp+0]
	@DEBUG_VALUE: block_cipher_df:use_len <- $r6
	@DEBUG_VALUE: block_cipher_df:p <- [DW_OP_plus_uconst 388, DW_OP_stack_value] $sp
	.loc	2 0 9 is_stmt 0                 @ ../../../ThirdParty/mbedTLS/library/ctr_drbg.c:0:9
	b	.LBB9_8
.Ltmp90:
.LBB9_7:                                @   in Loop: Header=BB9_8 Depth=2
	@DEBUG_VALUE: block_cipher_df:output <- [DW_OP_plus_uconst 8] [$sp+0]
	@DEBUG_VALUE: block_cipher_df:p <- $r5
	@DEBUG_VALUE: block_cipher_df:i <- $r0
	@DEBUG_VALUE: block_cipher_df:j <- [DW_OP_plus_uconst 4] [$sp+0]
	@DEBUG_VALUE: block_cipher_df:data_len <- [DW_OP_LLVM_entry_value 1] $r2
	@DEBUG_VALUE: block_cipher_df:use_len <- $r6
	add	r0, sp, #12
.Ltmp91:
	movs	r1, #1
	add	r2, sp, #292
.Ltmp92:
	.loc	2 226 25 is_stmt 1              @ ../../../ThirdParty/mbedTLS/library/ctr_drbg.c:226:25
	mov	r3, r2
	bl	mbedtls_aes_crypt_ecb
.Ltmp93:
	@DEBUG_VALUE: block_cipher_df:ret <- $r0
	.loc	2 222 15                        @ ../../../ThirdParty/mbedTLS/library/ctr_drbg.c:222:15
	adds	r5, #16
.Ltmp94:
	@DEBUG_VALUE: block_cipher_df:p <- $r5
	.loc	2 226 17                        @ ../../../ThirdParty/mbedTLS/library/ctr_drbg.c:226:17
	cmp	r0, #0
	bne	.LBB9_18
.Ltmp95:
.LBB9_8:                                @   Parent Loop BB9_6 Depth=1
                                        @ =>  This Loop Header: Depth=2
                                        @       Child Loop BB9_10 Depth 3
	@DEBUG_VALUE: block_cipher_df:output <- [DW_OP_plus_uconst 8] [$sp+0]
	@DEBUG_VALUE: block_cipher_df:use_len <- $r6
	@DEBUG_VALUE: block_cipher_df:j <- [DW_OP_plus_uconst 4] [$sp+0]
	@DEBUG_VALUE: block_cipher_df:data_len <- [DW_OP_LLVM_entry_value 1] $r2
	@DEBUG_VALUE: block_cipher_df:p <- $r5
	@DEBUG_VALUE: block_cipher_df:use_len <- $r6
	.loc	2 218 9                         @ ../../../ThirdParty/mbedTLS/library/ctr_drbg.c:218:9
	cbz	r6, .LBB9_13
.Ltmp96:
@ %bb.9:                                @   in Loop: Header=BB9_8 Depth=2
	@DEBUG_VALUE: block_cipher_df:output <- [DW_OP_plus_uconst 8] [$sp+0]
	@DEBUG_VALUE: block_cipher_df:use_len <- $r6
	@DEBUG_VALUE: block_cipher_df:p <- $r5
	@DEBUG_VALUE: block_cipher_df:j <- [DW_OP_plus_uconst 4] [$sp+0]
	@DEBUG_VALUE: block_cipher_df:data_len <- [DW_OP_LLVM_entry_value 1] $r2
	.loc	2 0 9 is_stmt 0                 @ ../../../ThirdParty/mbedTLS/library/ctr_drbg.c:0:9
	movs	r0, #0
.Ltmp97:
.LBB9_10:                               @   Parent Loop BB9_6 Depth=1
                                        @     Parent Loop BB9_8 Depth=2
                                        @ =>    This Inner Loop Header: Depth=3
	@DEBUG_VALUE: block_cipher_df:output <- [DW_OP_plus_uconst 8] [$sp+0]
	@DEBUG_VALUE: block_cipher_df:use_len <- $r6
	@DEBUG_VALUE: block_cipher_df:p <- $r5
	@DEBUG_VALUE: block_cipher_df:j <- [DW_OP_plus_uconst 4] [$sp+0]
	@DEBUG_VALUE: block_cipher_df:data_len <- [DW_OP_LLVM_entry_value 1] $r2
	@DEBUG_VALUE: block_cipher_df:i <- $r0
	.loc	2 221 29 is_stmt 1              @ ../../../ThirdParty/mbedTLS/library/ctr_drbg.c:221:29
	ldrb	r1, [r5, r0]
	add	r2, sp, #292
	.loc	2 221 26 is_stmt 0              @ ../../../ThirdParty/mbedTLS/library/ctr_drbg.c:221:26
	ldrb	r3, [r2, r0]
	eors	r3, r1
	strb	r3, [r2, r0]
	.loc	2 220 58 is_stmt 1              @ ../../../ThirdParty/mbedTLS/library/ctr_drbg.c:220:58
	adds	r0, r0, #1
.Ltmp98:
	@DEBUG_VALUE: block_cipher_df:i <- $r0
	.loc	2 220 13 is_stmt 0              @ ../../../ThirdParty/mbedTLS/library/ctr_drbg.c:220:13
	cmp	r0, #16
	bne	.LBB9_10
.Ltmp99:
@ %bb.11:                               @   in Loop: Header=BB9_8 Depth=2
	@DEBUG_VALUE: block_cipher_df:output <- [DW_OP_plus_uconst 8] [$sp+0]
	@DEBUG_VALUE: block_cipher_df:use_len <- $r6
	@DEBUG_VALUE: block_cipher_df:p <- $r5
	@DEBUG_VALUE: block_cipher_df:i <- $r0
	@DEBUG_VALUE: block_cipher_df:j <- [DW_OP_plus_uconst 4] [$sp+0]
	@DEBUG_VALUE: block_cipher_df:data_len <- [DW_OP_LLVM_entry_value 1] $r2
	.loc	2 223 21 is_stmt 1              @ ../../../ThirdParty/mbedTLS/library/ctr_drbg.c:223:21
	subs	r6, #16
.Ltmp100:
	bhs	.LBB9_7
.Ltmp101:
@ %bb.12:                               @   in Loop: Header=BB9_8 Depth=2
	@DEBUG_VALUE: block_cipher_df:output <- [DW_OP_plus_uconst 8] [$sp+0]
	@DEBUG_VALUE: block_cipher_df:p <- $r5
	@DEBUG_VALUE: block_cipher_df:i <- $r0
	@DEBUG_VALUE: block_cipher_df:j <- [DW_OP_plus_uconst 4] [$sp+0]
	@DEBUG_VALUE: block_cipher_df:data_len <- [DW_OP_LLVM_entry_value 1] $r2
	.loc	2 0 21 is_stmt 0                @ ../../../ThirdParty/mbedTLS/library/ctr_drbg.c:0:21
	movs	r6, #0
	b	.LBB9_7
.Ltmp102:
.LBB9_13:                               @   in Loop: Header=BB9_6 Depth=1
	@DEBUG_VALUE: block_cipher_df:output <- [DW_OP_plus_uconst 8] [$sp+0]
	@DEBUG_VALUE: block_cipher_df:use_len <- $r6
	@DEBUG_VALUE: block_cipher_df:p <- $r5
	@DEBUG_VALUE: block_cipher_df:j <- [DW_OP_plus_uconst 4] [$sp+0]
	@DEBUG_VALUE: block_cipher_df:data_len <- [DW_OP_LLVM_entry_value 1] $r2
	add	r0, sp, #340
	.loc	2 233 9 is_stmt 1               @ ../../../ThirdParty/mbedTLS/library/ctr_drbg.c:233:9
	ldr	r1, [sp, #292]
	ldr	r5, [sp, #4]                    @ 4-byte Reload
.Ltmp103:
	str	r1, [r0, r5]
	.loc	2 233 21 is_stmt 0              @ ../../../ThirdParty/mbedTLS/library/ctr_drbg.c:233:21
	adds	r0, r0, r5
	.loc	2 233 9                         @ ../../../ThirdParty/mbedTLS/library/ctr_drbg.c:233:9
	ldr	r1, [sp, #304]
	ldr	r2, [sp, #300]
	ldr	r3, [sp, #296]
	str	r3, [r0, #4]
	str	r2, [r0, #8]
	str	r1, [r0, #12]
	add	r0, sp, #388
	.loc	2 238 15 is_stmt 1              @ ../../../ThirdParty/mbedTLS/library/ctr_drbg.c:238:15
	ldrb	r1, [r0, #3]
	adds	r1, r1, #1
	strb	r1, [r0, #3]
.Ltmp104:
	.loc	2 212 49                        @ ../../../ThirdParty/mbedTLS/library/ctr_drbg.c:212:49
	mov	r0, r5
	adds	r0, #16
.Ltmp105:
	@DEBUG_VALUE: block_cipher_df:j <- $r0
	.loc	2 212 5 is_stmt 0               @ ../../../ThirdParty/mbedTLS/library/ctr_drbg.c:212:5
	cmp	r5, #32
	@DEBUG_VALUE: block_cipher_df:j <- $r0
	ldr	r6, [sp]                        @ 4-byte Reload
.Ltmp106:
	blo	.LBB9_6
.Ltmp107:
@ %bb.14:
	@DEBUG_VALUE: block_cipher_df:output <- [DW_OP_plus_uconst 8] [$sp+0]
	@DEBUG_VALUE: block_cipher_df:j <- $r0
	@DEBUG_VALUE: block_cipher_df:data_len <- [DW_OP_LLVM_entry_value 1] $r2
	.loc	2 0 5                           @ ../../../ThirdParty/mbedTLS/library/ctr_drbg.c:0:5
	add	r0, sp, #12
.Ltmp108:
	add	r1, sp, #340
.Ltmp109:
	.loc	2 244 17 is_stmt 1              @ ../../../ThirdParty/mbedTLS/library/ctr_drbg.c:244:17
	movw	r2, #256
	bl	mbedtls_aes_setkey_enc
	mov	r7, r0
.Ltmp110:
	@DEBUG_VALUE: block_cipher_df:ret <- $r7
	.loc	2 244 9 is_stmt 0               @ ../../../ThirdParty/mbedTLS/library/ctr_drbg.c:244:9
	cbnz	r0, .LBB9_19
.Ltmp111:
@ %bb.15:
	@DEBUG_VALUE: block_cipher_df:output <- [DW_OP_plus_uconst 8] [$sp+0]
	@DEBUG_VALUE: block_cipher_df:ret <- $r7
	@DEBUG_VALUE: block_cipher_df:data_len <- [DW_OP_LLVM_entry_value 1] $r2
	.loc	2 0 9                           @ ../../../ThirdParty/mbedTLS/library/ctr_drbg.c:0:9
	add	r6, sp, #340
	.loc	2 249 14 is_stmt 1              @ ../../../ThirdParty/mbedTLS/library/ctr_drbg.c:249:14
	adds	r6, #32
.Ltmp112:
	@DEBUG_VALUE: block_cipher_df:iv <- $r6
	.loc	2 0 14 is_stmt 0                @ ../../../ThirdParty/mbedTLS/library/ctr_drbg.c:0:14
	movs	r4, #0
.Ltmp113:
	@DEBUG_VALUE: block_cipher_df:j <- 0
	@DEBUG_VALUE: block_cipher_df:p <- [DW_OP_plus_uconst 8] [$sp+0]
	@DEBUG_VALUE: block_cipher_df:ret <- 0
	movs	r5, #1
	movs	r0, #16
	str	r0, [sp, #4]                    @ 4-byte Spill
.Ltmp114:
.LBB9_16:                               @ =>This Inner Loop Header: Depth=1
	@DEBUG_VALUE: block_cipher_df:iv <- $r6
	@DEBUG_VALUE: block_cipher_df:data_len <- [DW_OP_LLVM_entry_value 1] $r2
	@DEBUG_VALUE: block_cipher_df:ret <- 0
	@DEBUG_VALUE: block_cipher_df:p <- undef
	@DEBUG_VALUE: block_cipher_df:j <- $r4
	add	r0, sp, #12
.Ltmp115:
	.loc	2 254 21 is_stmt 1              @ ../../../ThirdParty/mbedTLS/library/ctr_drbg.c:254:21
	mov	r1, r5
	mov	r2, r6
	mov	r3, r6
	bl	mbedtls_aes_crypt_ecb
.Ltmp116:
	@DEBUG_VALUE: block_cipher_df:ret <- $r0
	.loc	2 254 13 is_stmt 0              @ ../../../ThirdParty/mbedTLS/library/ctr_drbg.c:254:13
	cbnz	r0, .LBB9_18
.Ltmp117:
@ %bb.17:                               @   in Loop: Header=BB9_16 Depth=1
	@DEBUG_VALUE: block_cipher_df:iv <- $r6
	@DEBUG_VALUE: block_cipher_df:j <- $r4
	@DEBUG_VALUE: block_cipher_df:ret <- $r0
	@DEBUG_VALUE: block_cipher_df:data_len <- [DW_OP_LLVM_entry_value 1] $r2
	.loc	2 0 0                           @ ../../../ThirdParty/mbedTLS/library/ctr_drbg.c:0:0
	ldr	r0, [sp, #8]                    @ 4-byte Reload
.Ltmp118:
	@DEBUG_VALUE: block_cipher_df:output <- $r0
	adds	r0, r0, r4
.Ltmp119:
	@DEBUG_VALUE: block_cipher_df:output <- [DW_OP_LLVM_entry_value 1] $r0
	.loc	2 259 9 is_stmt 1               @ ../../../ThirdParty/mbedTLS/library/ctr_drbg.c:259:9
	mov	r1, r6
	ldr	r2, [sp, #4]                    @ 4-byte Reload
	bl	__aeabi_memcpy
.Ltmp120:
	@DEBUG_VALUE: block_cipher_df:p <- [DW_OP_plus_uconst 16, DW_OP_stack_value] undef
	.loc	2 252 49                        @ ../../../ThirdParty/mbedTLS/library/ctr_drbg.c:252:49
	mov	r0, r4
	adds	r0, #16
.Ltmp121:
	@DEBUG_VALUE: block_cipher_df:j <- $r0
	.loc	2 0 49 is_stmt 0                @ ../../../ThirdParty/mbedTLS/library/ctr_drbg.c:0:49
	movs	r7, #0
.Ltmp122:
	@DEBUG_VALUE: block_cipher_df:ret <- 0
	.loc	2 252 5                         @ ../../../ThirdParty/mbedTLS/library/ctr_drbg.c:252:5
	cmp	r4, #32
	mov	r4, r0
.Ltmp123:
	@DEBUG_VALUE: block_cipher_df:j <- $r4
	@DEBUG_VALUE: block_cipher_df:j <- $r4
	@DEBUG_VALUE: block_cipher_df:j <- $r4
	blo	.LBB9_16
	b	.LBB9_19
.Ltmp124:
.LBB9_18:
	@DEBUG_VALUE: block_cipher_df:ret <- $r0
	@DEBUG_VALUE: block_cipher_df:data_len <- [DW_OP_LLVM_entry_value 1] $r2
	.loc	2 0 5                           @ ../../../ThirdParty/mbedTLS/library/ctr_drbg.c:0:5
	mov	r7, r0
.Ltmp125:
	@DEBUG_VALUE: block_cipher_df:ret <- $r7
.LBB9_19:
	@DEBUG_VALUE: block_cipher_df:ret <- $r7
	@DEBUG_LABEL: block_cipher_df:exit
	add	r0, sp, #12
	.loc	2 263 5 is_stmt 1               @ ../../../ThirdParty/mbedTLS/library/ctr_drbg.c:263:5
	bl	mbedtls_aes_free
	movw	r1, #256
	.loc	2 267 5                         @ ../../../ThirdParty/mbedTLS/library/ctr_drbg.c:267:5
	adds	r1, #160
	add	r0, sp, #388
	bl	mbedtls_platform_zeroize
	add	r0, sp, #340
	movs	r1, #48
	.loc	2 268 5                         @ ../../../ThirdParty/mbedTLS/library/ctr_drbg.c:268:5
	bl	mbedtls_platform_zeroize
	add	r0, sp, #308
	movs	r1, #32
	.loc	2 269 5                         @ ../../../ThirdParty/mbedTLS/library/ctr_drbg.c:269:5
	bl	mbedtls_platform_zeroize
	add	r0, sp, #292
	movs	r1, #16
	.loc	2 270 5                         @ ../../../ThirdParty/mbedTLS/library/ctr_drbg.c:270:5
	bl	mbedtls_platform_zeroize
	.loc	2 271 9                         @ ../../../ThirdParty/mbedTLS/library/ctr_drbg.c:271:9
	cbz	r7, .LBB9_21
.Ltmp126:
@ %bb.20:
	@DEBUG_VALUE: block_cipher_df:ret <- $r7
	.loc	2 0 9 is_stmt 0                 @ ../../../ThirdParty/mbedTLS/library/ctr_drbg.c:0:9
	movs	r1, #48
.Ltmp127:
	.loc	2 276 9 is_stmt 1               @ ../../../ThirdParty/mbedTLS/library/ctr_drbg.c:276:9
	ldr	r0, [sp, #8]                    @ 4-byte Reload
	bl	mbedtls_platform_zeroize
.Ltmp128:
.LBB9_21:
	.loc	2 280 1                         @ ../../../ThirdParty/mbedTLS/library/ctr_drbg.c:280:1
	mov	r0, r7
	add	sp, #508
	add	sp, #296
	pop	{r4, r5, r6, r7, pc}
.Ltmp129:
.Lfunc_end9:
	.size	block_cipher_df, .Lfunc_end9-block_cipher_df
	.cfi_endproc
	.cantunwind
	.fnend
                                        @ -- End function
	.section	.text.ctr_drbg_update_internal,"ax",%progbits
	.p2align	1                               @ -- Begin function ctr_drbg_update_internal
	.type	ctr_drbg_update_internal,%function
	.code	16                              @ @ctr_drbg_update_internal
	.thumb_func
ctr_drbg_update_internal:
.Lfunc_begin10:
	.loc	2 292 0                         @ ../../../ThirdParty/mbedTLS/library/ctr_drbg.c:292:0
	.fnstart
	.cfi_startproc
@ %bb.0:
	@DEBUG_VALUE: ctr_drbg_update_internal:ctx <- $r0
	@DEBUG_VALUE: ctr_drbg_update_internal:data <- $r1
	.save	{r4, r5, r6, r7, lr}
	push	{r4, r5, r6, r7, lr}
	.cfi_def_cfa_offset 20
	.cfi_offset lr, -4
	.cfi_offset r7, -8
	.cfi_offset r6, -12
	.cfi_offset r5, -16
	.cfi_offset r4, -20
	.pad	#68
	sub	sp, #68
	.cfi_def_cfa_offset 88
	str	r1, [sp, #4]                    @ 4-byte Spill
	mov	r4, r0
.Ltmp130:
	@DEBUG_VALUE: ctr_drbg_update_internal:ret <- 0
	@DEBUG_VALUE: ctr_drbg_update_internal:data <- [DW_OP_plus_uconst 4] [$sp+0]
	@DEBUG_VALUE: ctr_drbg_update_internal:ctx <- $r4
	add	r7, sp, #20
.Ltmp131:
	@DEBUG_VALUE: ctr_drbg_update_internal:p <- [DW_OP_plus_uconst 20, DW_OP_stack_value] $sp
	movs	r1, #48
.Ltmp132:
	.loc	2 298 5 prologue_end            @ ../../../ThirdParty/mbedTLS/library/ctr_drbg.c:298:5
	mov	r0, r7
	bl	__aeabi_memclr4
.Ltmp133:
	@DEBUG_VALUE: ctr_drbg_update_internal:j <- 0
	.loc	2 0 0 is_stmt 0                 @ ../../../ThirdParty/mbedTLS/library/ctr_drbg.c:0:0
	mov	r0, r4
	adds	r0, #32
	str	r0, [sp, #16]                   @ 4-byte Spill
	movs	r5, #0
	movs	r0, #15
	str	r0, [sp, #12]                   @ 4-byte Spill
	movs	r0, #1
	str	r0, [sp, #8]                    @ 4-byte Spill
.Ltmp134:
.LBB10_1:                               @ =>This Loop Header: Depth=1
                                        @     Child Loop BB10_2 Depth 2
	@DEBUG_VALUE: ctr_drbg_update_internal:ctx <- $r4
	@DEBUG_VALUE: ctr_drbg_update_internal:data <- [DW_OP_plus_uconst 4] [$sp+0]
	@DEBUG_VALUE: ctr_drbg_update_internal:p <- $r7
	@DEBUG_VALUE: ctr_drbg_update_internal:j <- $r5
	ldr	r0, [sp, #12]                   @ 4-byte Reload
.Ltmp135:
.LBB10_2:                               @   Parent Loop BB10_1 Depth=1
                                        @ =>  This Inner Loop Header: Depth=2
	@DEBUG_VALUE: ctr_drbg_update_internal:p <- $r7
	@DEBUG_VALUE: ctr_drbg_update_internal:j <- $r5
	@DEBUG_VALUE: ctr_drbg_update_internal:ctx <- $r4
	@DEBUG_VALUE: ctr_drbg_update_internal:data <- [DW_OP_plus_uconst 4] [$sp+0]
	@DEBUG_VALUE: ctr_drbg_update_internal:i <- undef
	.loc	2 305 48 is_stmt 1              @ ../../../ThirdParty/mbedTLS/library/ctr_drbg.c:305:48
	adds	r1, r0, #1
.Ltmp136:
	.loc	2 305 9 is_stmt 0               @ ../../../ThirdParty/mbedTLS/library/ctr_drbg.c:305:9
	bhs	.LBB10_4
.Ltmp137:
@ %bb.3:                                @   in Loop: Header=BB10_2 Depth=2
	@DEBUG_VALUE: ctr_drbg_update_internal:p <- $r7
	@DEBUG_VALUE: ctr_drbg_update_internal:j <- $r5
	@DEBUG_VALUE: ctr_drbg_update_internal:ctx <- $r4
	@DEBUG_VALUE: ctr_drbg_update_internal:data <- [DW_OP_plus_uconst 4] [$sp+0]
	.loc	2 306 17 is_stmt 1              @ ../../../ThirdParty/mbedTLS/library/ctr_drbg.c:306:17
	ldrb	r1, [r4, r0]
	adds	r1, r1, #1
	strb	r1, [r4, r0]
	uxtb	r2, r1
.Ltmp138:
	.loc	2 306 17 is_stmt 0              @ ../../../ThirdParty/mbedTLS/library/ctr_drbg.c:306:17
	subs	r0, r0, #1
	cmp	r2, r1
	bne	.LBB10_2
.Ltmp139:
.LBB10_4:                               @   in Loop: Header=BB10_1 Depth=1
	@DEBUG_VALUE: ctr_drbg_update_internal:p <- $r7
	@DEBUG_VALUE: ctr_drbg_update_internal:j <- $r5
	@DEBUG_VALUE: ctr_drbg_update_internal:ctx <- $r4
	@DEBUG_VALUE: ctr_drbg_update_internal:data <- [DW_OP_plus_uconst 4] [$sp+0]
	.loc	2 312 21 is_stmt 1              @ ../../../ThirdParty/mbedTLS/library/ctr_drbg.c:312:21
	ldr	r0, [sp, #16]                   @ 4-byte Reload
	ldr	r1, [sp, #8]                    @ 4-byte Reload
	mov	r2, r4
	mov	r3, r7
	bl	mbedtls_aes_crypt_ecb
.Ltmp140:
	@DEBUG_VALUE: ctr_drbg_update_internal:ret <- $r0
	.loc	2 312 13 is_stmt 0              @ ../../../ThirdParty/mbedTLS/library/ctr_drbg.c:312:13
	cbnz	r0, .LBB10_10
.Ltmp141:
@ %bb.5:                                @   in Loop: Header=BB10_1 Depth=1
	@DEBUG_VALUE: ctr_drbg_update_internal:p <- $r7
	@DEBUG_VALUE: ctr_drbg_update_internal:j <- $r5
	@DEBUG_VALUE: ctr_drbg_update_internal:ctx <- $r4
	@DEBUG_VALUE: ctr_drbg_update_internal:ret <- $r0
	@DEBUG_VALUE: ctr_drbg_update_internal:data <- [DW_OP_plus_uconst 4] [$sp+0]
	.loc	2 300 49 is_stmt 1              @ ../../../ThirdParty/mbedTLS/library/ctr_drbg.c:300:49
	mov	r0, r5
.Ltmp142:
	adds	r0, #16
.Ltmp143:
	@DEBUG_VALUE: ctr_drbg_update_internal:j <- $r0
	.loc	2 318 11                        @ ../../../ThirdParty/mbedTLS/library/ctr_drbg.c:318:11
	adds	r7, #16
.Ltmp144:
	@DEBUG_VALUE: ctr_drbg_update_internal:p <- $r7
	.loc	2 300 5                         @ ../../../ThirdParty/mbedTLS/library/ctr_drbg.c:300:5
	cmp	r5, #32
	mov	r5, r0
.Ltmp145:
	@DEBUG_VALUE: ctr_drbg_update_internal:j <- $r5
	@DEBUG_VALUE: ctr_drbg_update_internal:j <- $r5
	blo	.LBB10_1
.Ltmp146:
@ %bb.6:
	@DEBUG_VALUE: ctr_drbg_update_internal:p <- $r7
	@DEBUG_VALUE: ctr_drbg_update_internal:j <- $r5
	@DEBUG_VALUE: ctr_drbg_update_internal:ctx <- $r4
	@DEBUG_VALUE: ctr_drbg_update_internal:data <- [DW_OP_plus_uconst 4] [$sp+0]
	.loc	2 0 5 is_stmt 0                 @ ../../../ThirdParty/mbedTLS/library/ctr_drbg.c:0:5
	movs	r0, #0
	ldr	r5, [sp, #4]                    @ 4-byte Reload
.Ltmp147:
.LBB10_7:                               @ =>This Inner Loop Header: Depth=1
	@DEBUG_VALUE: ctr_drbg_update_internal:p <- $r7
	@DEBUG_VALUE: ctr_drbg_update_internal:ctx <- $r4
	@DEBUG_VALUE: ctr_drbg_update_internal:data <- [DW_OP_plus_uconst 4] [$sp+0]
	@DEBUG_VALUE: ctr_drbg_update_internal:i <- $r0
	.loc	2 322 19 is_stmt 1              @ ../../../ThirdParty/mbedTLS/library/ctr_drbg.c:322:19
	ldrb	r1, [r5, r0]
	add	r2, sp, #20
	.loc	2 322 16 is_stmt 0              @ ../../../ThirdParty/mbedTLS/library/ctr_drbg.c:322:16
	ldrb	r3, [r2, r0]
	eors	r3, r1
	strb	r3, [r2, r0]
	.loc	2 321 48 is_stmt 1              @ ../../../ThirdParty/mbedTLS/library/ctr_drbg.c:321:48
	adds	r0, r0, #1
.Ltmp148:
	@DEBUG_VALUE: ctr_drbg_update_internal:i <- $r0
	.loc	2 321 5 is_stmt 0               @ ../../../ThirdParty/mbedTLS/library/ctr_drbg.c:321:5
	cmp	r0, #48
	bne	.LBB10_7
.Ltmp149:
@ %bb.8:
	@DEBUG_VALUE: ctr_drbg_update_internal:p <- $r7
	@DEBUG_VALUE: ctr_drbg_update_internal:ctx <- $r4
	@DEBUG_VALUE: ctr_drbg_update_internal:i <- $r0
	@DEBUG_VALUE: ctr_drbg_update_internal:data <- [DW_OP_plus_uconst 4] [$sp+0]
	.loc	2 0 5                           @ ../../../ThirdParty/mbedTLS/library/ctr_drbg.c:0:5
	add	r1, sp, #20
.Ltmp150:
	.loc	2 327 17 is_stmt 1              @ ../../../ThirdParty/mbedTLS/library/ctr_drbg.c:327:17
	ldr	r0, [sp, #16]                   @ 4-byte Reload
.Ltmp151:
	movw	r2, #256
	bl	mbedtls_aes_setkey_enc
	mov	r6, r0
.Ltmp152:
	@DEBUG_VALUE: ctr_drbg_update_internal:ret <- $r6
	.loc	2 327 9 is_stmt 0               @ ../../../ThirdParty/mbedTLS/library/ctr_drbg.c:327:9
	cbnz	r0, .LBB10_11
.Ltmp153:
@ %bb.9:
	@DEBUG_VALUE: ctr_drbg_update_internal:p <- $r7
	@DEBUG_VALUE: ctr_drbg_update_internal:ret <- $r6
	@DEBUG_VALUE: ctr_drbg_update_internal:ctx <- $r4
	@DEBUG_VALUE: ctr_drbg_update_internal:data <- [DW_OP_plus_uconst 4] [$sp+0]
	.loc	2 332 5 is_stmt 1               @ ../../../ThirdParty/mbedTLS/library/ctr_drbg.c:332:5
	ldr	r0, [sp, #64]
	ldr	r1, [sp, #60]
	ldr	r2, [sp, #56]
	ldr	r3, [sp, #52]
	str	r3, [r4]
	str	r2, [r4, #4]
	str	r1, [r4, #8]
	str	r0, [r4, #12]
	movs	r6, #0
.Ltmp154:
	.loc	2 0 5 is_stmt 0                 @ ../../../ThirdParty/mbedTLS/library/ctr_drbg.c:0:5
	b	.LBB10_11
.Ltmp155:
.LBB10_10:
	@DEBUG_VALUE: ctr_drbg_update_internal:p <- $r7
	@DEBUG_VALUE: ctr_drbg_update_internal:j <- $r5
	@DEBUG_VALUE: ctr_drbg_update_internal:ctx <- $r4
	@DEBUG_VALUE: ctr_drbg_update_internal:ret <- $r0
	@DEBUG_VALUE: ctr_drbg_update_internal:data <- [DW_OP_plus_uconst 4] [$sp+0]
	mov	r6, r0
.Ltmp156:
	@DEBUG_VALUE: ctr_drbg_update_internal:ret <- $r6
.LBB10_11:
	@DEBUG_VALUE: ctr_drbg_update_internal:p <- $r7
	@DEBUG_VALUE: ctr_drbg_update_internal:ctx <- $r4
	@DEBUG_VALUE: ctr_drbg_update_internal:data <- [DW_OP_plus_uconst 4] [$sp+0]
	@DEBUG_VALUE: ctr_drbg_update_internal:ret <- $r6
	@DEBUG_LABEL: ctr_drbg_update_internal:exit
	add	r0, sp, #20
	movs	r1, #48
	.loc	2 336 5 is_stmt 1               @ ../../../ThirdParty/mbedTLS/library/ctr_drbg.c:336:5
	bl	mbedtls_platform_zeroize
	.loc	2 337 5                         @ ../../../ThirdParty/mbedTLS/library/ctr_drbg.c:337:5
	mov	r0, r6
	add	sp, #68
.Ltmp157:
	pop	{r4, r5, r6, r7, pc}
.Ltmp158:
.Lfunc_end10:
	.size	ctr_drbg_update_internal, .Lfunc_end10-ctr_drbg_update_internal
	.cfi_endproc
	.cantunwind
	.fnend
                                        @ -- End function
	.section	.text.mbedtls_ctr_drbg_update,"ax",%progbits
	.hidden	mbedtls_ctr_drbg_update         @ -- Begin function mbedtls_ctr_drbg_update
	.globl	mbedtls_ctr_drbg_update
	.p2align	1
	.type	mbedtls_ctr_drbg_update,%function
	.code	16                              @ @mbedtls_ctr_drbg_update
	.thumb_func
mbedtls_ctr_drbg_update:
.Lfunc_begin11:
	.loc	2 376 0                         @ ../../../ThirdParty/mbedTLS/library/ctr_drbg.c:376:0
	.fnstart
	.cfi_startproc
@ %bb.0:
	@DEBUG_VALUE: mbedtls_ctr_drbg_update:ctx <- $r0
	@DEBUG_VALUE: mbedtls_ctr_drbg_update:ctx <- $r0
	@DEBUG_VALUE: mbedtls_ctr_drbg_update:additional <- $r1
	@DEBUG_VALUE: mbedtls_ctr_drbg_update:additional <- $r1
	@DEBUG_VALUE: mbedtls_ctr_drbg_update:add_len <- $r2
	@DEBUG_VALUE: mbedtls_ctr_drbg_update:add_len <- $r2
	.save	{r7, lr}
	push	{r7, lr}
	.cfi_def_cfa_offset 8
	.cfi_offset lr, -4
	.cfi_offset r7, -8
.Ltmp159:
	.loc	2 379 9 prologue_end            @ ../../../ThirdParty/mbedTLS/library/ctr_drbg.c:379:9
	lsrs	r3, r2, #7
	cmp	r3, #3
	blo	.LBB11_2
.Ltmp160:
@ %bb.1:
	@DEBUG_VALUE: mbedtls_ctr_drbg_update:add_len <- $r2
	@DEBUG_VALUE: mbedtls_ctr_drbg_update:additional <- $r1
	@DEBUG_VALUE: mbedtls_ctr_drbg_update:ctx <- $r0
	.loc	2 0 9 is_stmt 0                 @ ../../../ThirdParty/mbedTLS/library/ctr_drbg.c:0:9
	movw	r2, #384
.Ltmp161:
	@DEBUG_VALUE: mbedtls_ctr_drbg_update:add_len <- [DW_OP_LLVM_entry_value 1] $r2
.LBB11_2:
	@DEBUG_VALUE: mbedtls_ctr_drbg_update:additional <- $r1
	@DEBUG_VALUE: mbedtls_ctr_drbg_update:ctx <- $r0
	@DEBUG_VALUE: mbedtls_ctr_drbg_update:add_len <- $r2
	@DEBUG_VALUE: mbedtls_ctr_drbg_update:additional <- $r1
	@DEBUG_VALUE: mbedtls_ctr_drbg_update:ctx <- $r0
	.loc	2 381 12 is_stmt 1              @ ../../../ThirdParty/mbedTLS/library/ctr_drbg.c:381:12
	bl	mbedtls_ctr_drbg_update_ret
.Ltmp162:
	@DEBUG_VALUE: mbedtls_ctr_drbg_update:add_len <- [DW_OP_LLVM_entry_value 1] $r2
	@DEBUG_VALUE: mbedtls_ctr_drbg_update:additional <- [DW_OP_LLVM_entry_value 1] $r1
	@DEBUG_VALUE: mbedtls_ctr_drbg_update:ctx <- [DW_OP_LLVM_entry_value 1] $r0
	.loc	2 382 1                         @ ../../../ThirdParty/mbedTLS/library/ctr_drbg.c:382:1
	pop	{r7, pc}
.Ltmp163:
.Lfunc_end11:
	.size	mbedtls_ctr_drbg_update, .Lfunc_end11-mbedtls_ctr_drbg_update
	.cfi_endproc
	.cantunwind
	.fnend
                                        @ -- End function
	.section	.text.mbedtls_ctr_drbg_random_with_add,"ax",%progbits
	.hidden	mbedtls_ctr_drbg_random_with_add @ -- Begin function mbedtls_ctr_drbg_random_with_add
	.globl	mbedtls_ctr_drbg_random_with_add
	.p2align	1
	.type	mbedtls_ctr_drbg_random_with_add,%function
	.code	16                              @ @mbedtls_ctr_drbg_random_with_add
	.thumb_func
mbedtls_ctr_drbg_random_with_add:
.Lfunc_begin12:
	.loc	2 470 0                         @ ../../../ThirdParty/mbedTLS/library/ctr_drbg.c:470:0
	.fnstart
	.cfi_startproc
@ %bb.0:
	@DEBUG_VALUE: mbedtls_ctr_drbg_random_with_add:p_rng <- $r0
	@DEBUG_VALUE: mbedtls_ctr_drbg_random_with_add:output <- $r1
	@DEBUG_VALUE: mbedtls_ctr_drbg_random_with_add:output_len <- $r2
	@DEBUG_VALUE: mbedtls_ctr_drbg_random_with_add:additional <- $r3
	.save	{r4, r5, r6, r7, lr}
	push	{r4, r5, r6, r7, lr}
	.cfi_def_cfa_offset 20
	.cfi_offset lr, -4
	.cfi_offset r7, -8
	.cfi_offset r6, -12
	.cfi_offset r5, -16
	.cfi_offset r4, -20
	.pad	#84
	sub	sp, #84
	.cfi_def_cfa_offset 104
	mov	r6, r1
	mov	r4, r0
.Ltmp164:
	@DEBUG_VALUE: mbedtls_ctr_drbg_random_with_add:p <- undef
	@DEBUG_VALUE: mbedtls_ctr_drbg_random_with_add:ctx <- undef
	movs	r0, #55
.Ltmp165:
	@DEBUG_VALUE: mbedtls_ctr_drbg_random_with_add:p_rng <- [DW_OP_LLVM_entry_value 1] $r0
	mvns	r0, r0
	movw	r1, #1024
.Ltmp166:
	@DEBUG_VALUE: mbedtls_ctr_drbg_random_with_add:output <- [DW_OP_LLVM_entry_value 1] $r1
	@DEBUG_VALUE: mbedtls_ctr_drbg_random_with_add:ret <- 0
	@DEBUG_VALUE: mbedtls_ctr_drbg_random_with_add:add_len <- [DW_OP_plus_uconst 104] [$sp+0]
	@DEBUG_VALUE: mbedtls_ctr_drbg_random_with_add:additional <- $r3
	@DEBUG_VALUE: mbedtls_ctr_drbg_random_with_add:output_len <- $r2
	@DEBUG_VALUE: mbedtls_ctr_drbg_random_with_add:output <- $r6
	@DEBUG_VALUE: mbedtls_ctr_drbg_random_with_add:p_rng <- $r4
	.loc	2 479 9 prologue_end            @ ../../../ThirdParty/mbedTLS/library/ctr_drbg.c:479:9
	cmp	r2, r1
	bls	.LBB12_2
.Ltmp167:
@ %bb.1:
	@DEBUG_VALUE: mbedtls_ctr_drbg_random_with_add:output <- $r6
	@DEBUG_VALUE: mbedtls_ctr_drbg_random_with_add:p_rng <- $r4
	@DEBUG_VALUE: mbedtls_ctr_drbg_random_with_add:additional <- $r3
	@DEBUG_VALUE: mbedtls_ctr_drbg_random_with_add:output_len <- $r2
	@DEBUG_VALUE: mbedtls_ctr_drbg_random_with_add:add_len <- [DW_OP_plus_uconst 104] [$sp+0]
	@DEBUG_VALUE: mbedtls_ctr_drbg_random_with_add:ret <- 0
	.loc	2 0 9 is_stmt 0                 @ ../../../ThirdParty/mbedTLS/library/ctr_drbg.c:0:9
	adds	r0, r0, #2
	.loc	2 542 1 is_stmt 1               @ ../../../ThirdParty/mbedTLS/library/ctr_drbg.c:542:1
	add	sp, #84
.Ltmp168:
	pop	{r4, r5, r6, r7, pc}
.Ltmp169:
.LBB12_2:
	@DEBUG_VALUE: mbedtls_ctr_drbg_random_with_add:output <- $r6
	@DEBUG_VALUE: mbedtls_ctr_drbg_random_with_add:p_rng <- $r4
	@DEBUG_VALUE: mbedtls_ctr_drbg_random_with_add:additional <- $r3
	@DEBUG_VALUE: mbedtls_ctr_drbg_random_with_add:output_len <- $r2
	@DEBUG_VALUE: mbedtls_ctr_drbg_random_with_add:add_len <- [DW_OP_plus_uconst 104] [$sp+0]
	@DEBUG_VALUE: mbedtls_ctr_drbg_random_with_add:ret <- 0
	@DEBUG_VALUE: mbedtls_ctr_drbg_random_with_add:output_len <- $r2
	.loc	2 0 1 is_stmt 0                 @ ../../../ThirdParty/mbedTLS/library/ctr_drbg.c:0:1
	ldr	r5, [sp, #104]
	movw	r1, #256
	.loc	2 482 9 is_stmt 1               @ ../../../ThirdParty/mbedTLS/library/ctr_drbg.c:482:9
	cmp	r5, r1
	bhi	.LBB12_6
.Ltmp170:
@ %bb.3:
	@DEBUG_VALUE: mbedtls_ctr_drbg_random_with_add:output <- $r6
	@DEBUG_VALUE: mbedtls_ctr_drbg_random_with_add:p_rng <- $r4
	@DEBUG_VALUE: mbedtls_ctr_drbg_random_with_add:additional <- $r3
	@DEBUG_VALUE: mbedtls_ctr_drbg_random_with_add:output_len <- $r2
	@DEBUG_VALUE: mbedtls_ctr_drbg_random_with_add:add_len <- [DW_OP_plus_uconst 104] [$sp+0]
	@DEBUG_VALUE: mbedtls_ctr_drbg_random_with_add:ret <- 0
	.loc	2 0 9 is_stmt 0                 @ ../../../ThirdParty/mbedTLS/library/ctr_drbg.c:0:9
	mov	r7, r2
.Ltmp171:
	@DEBUG_VALUE: mbedtls_ctr_drbg_random_with_add:output_len <- $r7
	str	r3, [sp, #16]                   @ 4-byte Spill
.Ltmp172:
	@DEBUG_VALUE: mbedtls_ctr_drbg_random_with_add:additional <- [DW_OP_plus_uconst 16] [$sp+0]
	add	r0, sp, #36
	movs	r1, #48
	.loc	2 485 5 is_stmt 1               @ ../../../ThirdParty/mbedTLS/library/ctr_drbg.c:485:5
	bl	__aeabi_memclr4
.Ltmp173:
	.loc	2 487 36                        @ ../../../ThirdParty/mbedTLS/library/ctr_drbg.c:487:36
	ldr	r0, [r4, #28]
	.loc	2 487 14 is_stmt 0              @ ../../../ThirdParty/mbedTLS/library/ctr_drbg.c:487:14
	ldr	r1, [r4, #16]
	.loc	2 487 52                        @ ../../../ThirdParty/mbedTLS/library/ctr_drbg.c:487:52
	cmp	r1, r0
	bgt	.LBB12_5
.Ltmp174:
@ %bb.4:
	@DEBUG_VALUE: mbedtls_ctr_drbg_random_with_add:additional <- [DW_OP_plus_uconst 16] [$sp+0]
	@DEBUG_VALUE: mbedtls_ctr_drbg_random_with_add:output_len <- $r7
	@DEBUG_VALUE: mbedtls_ctr_drbg_random_with_add:output <- $r6
	@DEBUG_VALUE: mbedtls_ctr_drbg_random_with_add:p_rng <- $r4
	@DEBUG_VALUE: mbedtls_ctr_drbg_random_with_add:add_len <- [DW_OP_plus_uconst 104] [$sp+0]
	@DEBUG_VALUE: mbedtls_ctr_drbg_random_with_add:ret <- 0
	.loc	2 488 18 is_stmt 1              @ ../../../ThirdParty/mbedTLS/library/ctr_drbg.c:488:18
	ldr	r0, [r4, #20]
.Ltmp175:
	.loc	2 487 9                         @ ../../../ThirdParty/mbedTLS/library/ctr_drbg.c:487:9
	cbz	r0, .LBB12_8
.Ltmp176:
.LBB12_5:
	@DEBUG_VALUE: mbedtls_ctr_drbg_random_with_add:additional <- [DW_OP_plus_uconst 16] [$sp+0]
	@DEBUG_VALUE: mbedtls_ctr_drbg_random_with_add:output_len <- $r7
	@DEBUG_VALUE: mbedtls_ctr_drbg_random_with_add:output <- $r6
	@DEBUG_VALUE: mbedtls_ctr_drbg_random_with_add:p_rng <- $r4
	@DEBUG_VALUE: mbedtls_ctr_drbg_random_with_add:add_len <- [DW_OP_plus_uconst 104] [$sp+0]
	@DEBUG_VALUE: mbedtls_ctr_drbg_random_with_add:ret <- 0
	.loc	2 490 21                        @ ../../../ThirdParty/mbedTLS/library/ctr_drbg.c:490:21
	mov	r0, r4
	ldr	r1, [sp, #16]                   @ 4-byte Reload
.Ltmp177:
	@DEBUG_VALUE: mbedtls_ctr_drbg_random_with_add:additional <- $r1
	mov	r2, r5
	bl	mbedtls_ctr_drbg_reseed
.Ltmp178:
	@DEBUG_VALUE: mbedtls_ctr_drbg_random_with_add:additional <- [DW_OP_LLVM_entry_value 1] $r3
	.loc	2 0 21 is_stmt 0                @ ../../../ThirdParty/mbedTLS/library/ctr_drbg.c:0:21
	ldr	r1, [sp, #16]                   @ 4-byte Reload
.Ltmp179:
	@DEBUG_VALUE: mbedtls_ctr_drbg_random_with_add:ret <- $r0
	.loc	2 490 13                        @ ../../../ThirdParty/mbedTLS/library/ctr_drbg.c:490:13
	cbz	r0, .LBB12_7
.Ltmp180:
.LBB12_6:
	@DEBUG_VALUE: mbedtls_ctr_drbg_random_with_add:output <- $r6
	@DEBUG_VALUE: mbedtls_ctr_drbg_random_with_add:p_rng <- $r4
	@DEBUG_VALUE: mbedtls_ctr_drbg_random_with_add:add_len <- [DW_OP_plus_uconst 104] [$sp+0]
	.loc	2 542 1 is_stmt 1               @ ../../../ThirdParty/mbedTLS/library/ctr_drbg.c:542:1
	add	sp, #84
.Ltmp181:
	pop	{r4, r5, r6, r7, pc}
.Ltmp182:
.LBB12_7:
	@DEBUG_VALUE: mbedtls_ctr_drbg_random_with_add:output_len <- $r7
	@DEBUG_VALUE: mbedtls_ctr_drbg_random_with_add:output <- $r6
	@DEBUG_VALUE: mbedtls_ctr_drbg_random_with_add:p_rng <- $r4
	@DEBUG_VALUE: mbedtls_ctr_drbg_random_with_add:ret <- $r0
	@DEBUG_VALUE: mbedtls_ctr_drbg_random_with_add:add_len <- [DW_OP_plus_uconst 104] [$sp+0]
	@DEBUG_VALUE: mbedtls_ctr_drbg_random_with_add:additional <- [DW_OP_LLVM_entry_value 1] $r3
	.loc	2 0 1 is_stmt 0                 @ ../../../ThirdParty/mbedTLS/library/ctr_drbg.c:0:1
	movs	r5, #0
.Ltmp183:
	@DEBUG_VALUE: mbedtls_ctr_drbg_random_with_add:add_len <- $r5
	.loc	2 497 9 is_stmt 1               @ ../../../ThirdParty/mbedTLS/library/ctr_drbg.c:497:9
	cbnz	r5, .LBB12_9
	b	.LBB12_11
.Ltmp184:
.LBB12_8:
	@DEBUG_VALUE: mbedtls_ctr_drbg_random_with_add:additional <- [DW_OP_plus_uconst 16] [$sp+0]
	@DEBUG_VALUE: mbedtls_ctr_drbg_random_with_add:output_len <- $r7
	@DEBUG_VALUE: mbedtls_ctr_drbg_random_with_add:output <- $r6
	@DEBUG_VALUE: mbedtls_ctr_drbg_random_with_add:p_rng <- $r4
	@DEBUG_VALUE: mbedtls_ctr_drbg_random_with_add:add_len <- [DW_OP_plus_uconst 104] [$sp+0]
	@DEBUG_VALUE: mbedtls_ctr_drbg_random_with_add:ret <- 0
	.loc	2 0 9 is_stmt 0                 @ ../../../ThirdParty/mbedTLS/library/ctr_drbg.c:0:9
	ldr	r1, [sp, #16]                   @ 4-byte Reload
.Ltmp185:
	@DEBUG_VALUE: mbedtls_ctr_drbg_random_with_add:additional <- $r1
	@DEBUG_VALUE: mbedtls_ctr_drbg_random_with_add:add_len <- $r5
	.loc	2 497 9                         @ ../../../ThirdParty/mbedTLS/library/ctr_drbg.c:497:9
	cbz	r5, .LBB12_11
.Ltmp186:
.LBB12_9:
	@DEBUG_VALUE: mbedtls_ctr_drbg_random_with_add:output_len <- $r7
	@DEBUG_VALUE: mbedtls_ctr_drbg_random_with_add:output <- $r6
	@DEBUG_VALUE: mbedtls_ctr_drbg_random_with_add:add_len <- $r5
	@DEBUG_VALUE: mbedtls_ctr_drbg_random_with_add:p_rng <- $r4
	.loc	2 0 9                           @ ../../../ThirdParty/mbedTLS/library/ctr_drbg.c:0:9
	add	r0, sp, #36
.Ltmp187:
	.loc	2 499 21 is_stmt 1              @ ../../../ThirdParty/mbedTLS/library/ctr_drbg.c:499:21
	mov	r2, r5
	bl	block_cipher_df
.Ltmp188:
	@DEBUG_VALUE: mbedtls_ctr_drbg_random_with_add:ret <- $r0
	.loc	2 499 13 is_stmt 0              @ ../../../ThirdParty/mbedTLS/library/ctr_drbg.c:499:13
	cbnz	r0, .LBB12_22
.Ltmp189:
@ %bb.10:
	@DEBUG_VALUE: mbedtls_ctr_drbg_random_with_add:output_len <- $r7
	@DEBUG_VALUE: mbedtls_ctr_drbg_random_with_add:output <- $r6
	@DEBUG_VALUE: mbedtls_ctr_drbg_random_with_add:add_len <- $r5
	@DEBUG_VALUE: mbedtls_ctr_drbg_random_with_add:p_rng <- $r4
	@DEBUG_VALUE: mbedtls_ctr_drbg_random_with_add:ret <- $r0
	.loc	2 0 13                          @ ../../../ThirdParty/mbedTLS/library/ctr_drbg.c:0:13
	add	r1, sp, #36
.Ltmp190:
	.loc	2 501 21 is_stmt 1              @ ../../../ThirdParty/mbedTLS/library/ctr_drbg.c:501:21
	mov	r0, r4
.Ltmp191:
	bl	ctr_drbg_update_internal
.Ltmp192:
	@DEBUG_VALUE: mbedtls_ctr_drbg_random_with_add:ret <- $r0
	.loc	2 501 13 is_stmt 0              @ ../../../ThirdParty/mbedTLS/library/ctr_drbg.c:501:13
	cbnz	r0, .LBB12_22
.Ltmp193:
.LBB12_11:
	@DEBUG_VALUE: mbedtls_ctr_drbg_random_with_add:output_len <- $r7
	@DEBUG_VALUE: mbedtls_ctr_drbg_random_with_add:output <- $r6
	@DEBUG_VALUE: mbedtls_ctr_drbg_random_with_add:add_len <- $r5
	@DEBUG_VALUE: mbedtls_ctr_drbg_random_with_add:p_rng <- $r4
	@DEBUG_VALUE: mbedtls_ctr_drbg_random_with_add:output_len <- $r7
	@DEBUG_VALUE: mbedtls_ctr_drbg_random_with_add:p <- $r6
	.loc	2 505 5 is_stmt 1               @ ../../../ThirdParty/mbedTLS/library/ctr_drbg.c:505:5
	cbz	r7, .LBB12_20
.Ltmp194:
@ %bb.12:
	@DEBUG_VALUE: mbedtls_ctr_drbg_random_with_add:output_len <- $r7
	@DEBUG_VALUE: mbedtls_ctr_drbg_random_with_add:p <- $r6
	@DEBUG_VALUE: mbedtls_ctr_drbg_random_with_add:output <- $r6
	@DEBUG_VALUE: mbedtls_ctr_drbg_random_with_add:add_len <- $r5
	@DEBUG_VALUE: mbedtls_ctr_drbg_random_with_add:p_rng <- $r4
	.loc	2 0 0 is_stmt 0                 @ ../../../ThirdParty/mbedTLS/library/ctr_drbg.c:0:0
	mov	r0, r4
	adds	r0, #32
	str	r0, [sp, #16]                   @ 4-byte Spill
	movs	r0, #15
	str	r0, [sp, #12]                   @ 4-byte Spill
	movs	r0, #1
	str	r0, [sp, #8]                    @ 4-byte Spill
	movs	r0, #16
	str	r0, [sp, #4]                    @ 4-byte Spill
	b	.LBB12_14
.Ltmp195:
.LBB12_13:                              @   in Loop: Header=BB12_14 Depth=1
	@DEBUG_VALUE: mbedtls_ctr_drbg_random_with_add:output_len <- $r7
	@DEBUG_VALUE: mbedtls_ctr_drbg_random_with_add:p <- $r6
	@DEBUG_VALUE: mbedtls_ctr_drbg_random_with_add:p_rng <- $r4
	@DEBUG_VALUE: mbedtls_ctr_drbg_random_with_add:ret <- $r0
	@DEBUG_VALUE: mbedtls_ctr_drbg_random_with_add:use_len <- $r5
	add	r1, sp, #20
	.loc	2 528 9 is_stmt 1               @ ../../../ThirdParty/mbedTLS/library/ctr_drbg.c:528:9
	mov	r0, r6
.Ltmp196:
	mov	r2, r5
	bl	__aeabi_memcpy
	.loc	2 530 20                        @ ../../../ThirdParty/mbedTLS/library/ctr_drbg.c:530:20
	subs	r7, r7, r5
.Ltmp197:
	@DEBUG_VALUE: mbedtls_ctr_drbg_random_with_add:output_len <- $r7
	.loc	2 529 11                        @ ../../../ThirdParty/mbedTLS/library/ctr_drbg.c:529:11
	adds	r6, r6, r5
.Ltmp198:
	@DEBUG_VALUE: mbedtls_ctr_drbg_random_with_add:p <- $r6
	.loc	2 505 5                         @ ../../../ThirdParty/mbedTLS/library/ctr_drbg.c:505:5
	cbz	r7, .LBB12_20
.Ltmp199:
.LBB12_14:                              @ =>This Loop Header: Depth=1
                                        @     Child Loop BB12_15 Depth 2
	@DEBUG_VALUE: mbedtls_ctr_drbg_random_with_add:output_len <- $r7
	@DEBUG_VALUE: mbedtls_ctr_drbg_random_with_add:p <- $r6
	@DEBUG_VALUE: mbedtls_ctr_drbg_random_with_add:p_rng <- $r4
	@DEBUG_VALUE: mbedtls_ctr_drbg_random_with_add:output_len <- $r7
	@DEBUG_VALUE: mbedtls_ctr_drbg_random_with_add:p <- $r6
	.loc	2 0 0 is_stmt 0                 @ ../../../ThirdParty/mbedTLS/library/ctr_drbg.c:0:0
	ldr	r0, [sp, #12]                   @ 4-byte Reload
.Ltmp200:
.LBB12_15:                              @   Parent Loop BB12_14 Depth=1
                                        @ =>  This Inner Loop Header: Depth=2
	@DEBUG_VALUE: mbedtls_ctr_drbg_random_with_add:output_len <- $r7
	@DEBUG_VALUE: mbedtls_ctr_drbg_random_with_add:p <- $r6
	@DEBUG_VALUE: mbedtls_ctr_drbg_random_with_add:p_rng <- $r4
	@DEBUG_VALUE: mbedtls_ctr_drbg_random_with_add:i <- undef
	.loc	2 510 48 is_stmt 1              @ ../../../ThirdParty/mbedTLS/library/ctr_drbg.c:510:48
	adds	r1, r0, #1
.Ltmp201:
	.loc	2 510 9 is_stmt 0               @ ../../../ThirdParty/mbedTLS/library/ctr_drbg.c:510:9
	bhs	.LBB12_17
.Ltmp202:
@ %bb.16:                               @   in Loop: Header=BB12_15 Depth=2
	@DEBUG_VALUE: mbedtls_ctr_drbg_random_with_add:output_len <- $r7
	@DEBUG_VALUE: mbedtls_ctr_drbg_random_with_add:p <- $r6
	@DEBUG_VALUE: mbedtls_ctr_drbg_random_with_add:p_rng <- $r4
	.loc	2 511 17 is_stmt 1              @ ../../../ThirdParty/mbedTLS/library/ctr_drbg.c:511:17
	ldrb	r1, [r4, r0]
	adds	r1, r1, #1
	strb	r1, [r4, r0]
	uxtb	r2, r1
.Ltmp203:
	.loc	2 511 17 is_stmt 0              @ ../../../ThirdParty/mbedTLS/library/ctr_drbg.c:511:17
	subs	r0, r0, #1
	cmp	r2, r1
	bne	.LBB12_15
.Ltmp204:
.LBB12_17:                              @   in Loop: Header=BB12_14 Depth=1
	@DEBUG_VALUE: mbedtls_ctr_drbg_random_with_add:output_len <- $r7
	@DEBUG_VALUE: mbedtls_ctr_drbg_random_with_add:p <- $r6
	@DEBUG_VALUE: mbedtls_ctr_drbg_random_with_add:p_rng <- $r4
	.loc	2 0 17                          @ ../../../ThirdParty/mbedTLS/library/ctr_drbg.c:0:17
	add	r3, sp, #20
.Ltmp205:
	.loc	2 517 21 is_stmt 1              @ ../../../ThirdParty/mbedTLS/library/ctr_drbg.c:517:21
	ldr	r0, [sp, #16]                   @ 4-byte Reload
	ldr	r1, [sp, #8]                    @ 4-byte Reload
	mov	r2, r4
	bl	mbedtls_aes_crypt_ecb
.Ltmp206:
	@DEBUG_VALUE: mbedtls_ctr_drbg_random_with_add:ret <- $r0
	.loc	2 517 13 is_stmt 0              @ ../../../ThirdParty/mbedTLS/library/ctr_drbg.c:517:13
	cbnz	r0, .LBB12_22
.Ltmp207:
@ %bb.18:                               @   in Loop: Header=BB12_14 Depth=1
	@DEBUG_VALUE: mbedtls_ctr_drbg_random_with_add:output_len <- $r7
	@DEBUG_VALUE: mbedtls_ctr_drbg_random_with_add:p <- $r6
	@DEBUG_VALUE: mbedtls_ctr_drbg_random_with_add:p_rng <- $r4
	@DEBUG_VALUE: mbedtls_ctr_drbg_random_with_add:ret <- $r0
	.loc	2 523 19 is_stmt 1              @ ../../../ThirdParty/mbedTLS/library/ctr_drbg.c:523:19
	cmp	r7, #16
	mov	r5, r7
	blo	.LBB12_13
.Ltmp208:
@ %bb.19:                               @   in Loop: Header=BB12_14 Depth=1
	@DEBUG_VALUE: mbedtls_ctr_drbg_random_with_add:output_len <- $r7
	@DEBUG_VALUE: mbedtls_ctr_drbg_random_with_add:p <- $r6
	@DEBUG_VALUE: mbedtls_ctr_drbg_random_with_add:p_rng <- $r4
	@DEBUG_VALUE: mbedtls_ctr_drbg_random_with_add:ret <- $r0
	ldr	r5, [sp, #4]                    @ 4-byte Reload
	b	.LBB12_13
.Ltmp209:
.LBB12_20:
	@DEBUG_VALUE: mbedtls_ctr_drbg_random_with_add:output_len <- $r7
	@DEBUG_VALUE: mbedtls_ctr_drbg_random_with_add:p <- $r6
	@DEBUG_VALUE: mbedtls_ctr_drbg_random_with_add:p_rng <- $r4
	.loc	2 0 19 is_stmt 0                @ ../../../ThirdParty/mbedTLS/library/ctr_drbg.c:0:19
	add	r1, sp, #36
.Ltmp210:
	.loc	2 533 17 is_stmt 1              @ ../../../ThirdParty/mbedTLS/library/ctr_drbg.c:533:17
	mov	r0, r4
	bl	ctr_drbg_update_internal
.Ltmp211:
	@DEBUG_VALUE: mbedtls_ctr_drbg_random_with_add:ret <- $r0
	.loc	2 533 9 is_stmt 0               @ ../../../ThirdParty/mbedTLS/library/ctr_drbg.c:533:9
	cbnz	r0, .LBB12_22
.Ltmp212:
@ %bb.21:
	@DEBUG_VALUE: mbedtls_ctr_drbg_random_with_add:output_len <- $r7
	@DEBUG_VALUE: mbedtls_ctr_drbg_random_with_add:p <- $r6
	@DEBUG_VALUE: mbedtls_ctr_drbg_random_with_add:p_rng <- $r4
	@DEBUG_VALUE: mbedtls_ctr_drbg_random_with_add:ret <- $r0
	.loc	2 536 24 is_stmt 1              @ ../../../ThirdParty/mbedTLS/library/ctr_drbg.c:536:24
	ldr	r0, [r4, #16]
.Ltmp213:
	adds	r0, r0, #1
	str	r0, [r4, #16]
.Ltmp214:
.LBB12_22:
	@DEBUG_VALUE: mbedtls_ctr_drbg_random_with_add:output_len <- $r7
	@DEBUG_VALUE: mbedtls_ctr_drbg_random_with_add:p_rng <- $r4
	@DEBUG_LABEL: mbedtls_ctr_drbg_random_with_add:exit
	.loc	2 0 24 is_stmt 0                @ ../../../ThirdParty/mbedTLS/library/ctr_drbg.c:0:24
	add	r0, sp, #36
	movs	r1, #48
	.loc	2 539 5 is_stmt 1               @ ../../../ThirdParty/mbedTLS/library/ctr_drbg.c:539:5
	bl	mbedtls_platform_zeroize
	add	r0, sp, #20
	movs	r1, #16
	.loc	2 540 5                         @ ../../../ThirdParty/mbedTLS/library/ctr_drbg.c:540:5
	bl	mbedtls_platform_zeroize
	movs	r0, #0
	.loc	2 542 1                         @ ../../../ThirdParty/mbedTLS/library/ctr_drbg.c:542:1
	add	sp, #84
	pop	{r4, r5, r6, r7, pc}
.Ltmp215:
.Lfunc_end12:
	.size	mbedtls_ctr_drbg_random_with_add, .Lfunc_end12-mbedtls_ctr_drbg_random_with_add
	.cfi_endproc
	.cantunwind
	.fnend
                                        @ -- End function
	.section	.text.mbedtls_ctr_drbg_random,"ax",%progbits
	.hidden	mbedtls_ctr_drbg_random         @ -- Begin function mbedtls_ctr_drbg_random
	.globl	mbedtls_ctr_drbg_random
	.p2align	1
	.type	mbedtls_ctr_drbg_random,%function
	.code	16                              @ @mbedtls_ctr_drbg_random
	.thumb_func
mbedtls_ctr_drbg_random:
.Lfunc_begin13:
	.loc	2 546 0                         @ ../../../ThirdParty/mbedTLS/library/ctr_drbg.c:546:0
	.fnstart
	.cfi_startproc
@ %bb.0:
	@DEBUG_VALUE: mbedtls_ctr_drbg_random:p_rng <- $r0
	@DEBUG_VALUE: mbedtls_ctr_drbg_random:p_rng <- $r0
	@DEBUG_VALUE: mbedtls_ctr_drbg_random:output <- $r1
	@DEBUG_VALUE: mbedtls_ctr_drbg_random:output <- $r1
	@DEBUG_VALUE: mbedtls_ctr_drbg_random:output_len <- $r2
	@DEBUG_VALUE: mbedtls_ctr_drbg_random:output_len <- $r2
	.save	{r7, lr}
	push	{r7, lr}
	.cfi_def_cfa_offset 8
	.cfi_offset lr, -4
	.cfi_offset r7, -8
	.pad	#8
	sub	sp, #8
	.cfi_def_cfa_offset 16
.Ltmp216:
	@DEBUG_VALUE: mbedtls_ctr_drbg_random:ctx <- $r0
	@DEBUG_VALUE: mbedtls_ctr_drbg_random:ctx <- $r0
	movs	r3, #0
.Ltmp217:
	.loc	2 555 11 prologue_end           @ ../../../ThirdParty/mbedTLS/library/ctr_drbg.c:555:11
	str	r3, [sp]
	@DEBUG_VALUE: mbedtls_ctr_drbg_random:ctx <- $r0
	@DEBUG_VALUE: mbedtls_ctr_drbg_random:output_len <- $r2
	@DEBUG_VALUE: mbedtls_ctr_drbg_random:output <- $r1
	@DEBUG_VALUE: mbedtls_ctr_drbg_random:p_rng <- $r0
	bl	mbedtls_ctr_drbg_random_with_add
.Ltmp218:
	@DEBUG_VALUE: mbedtls_ctr_drbg_random:output_len <- [DW_OP_LLVM_entry_value 1] $r2
	@DEBUG_VALUE: mbedtls_ctr_drbg_random:output <- [DW_OP_LLVM_entry_value 1] $r1
	@DEBUG_VALUE: mbedtls_ctr_drbg_random:p_rng <- [DW_OP_LLVM_entry_value 1] $r0
	@DEBUG_VALUE: mbedtls_ctr_drbg_random:ret <- $r0
	.loc	2 562 5                         @ ../../../ThirdParty/mbedTLS/library/ctr_drbg.c:562:5
	add	sp, #8
	pop	{r7, pc}
.Ltmp219:
.Lfunc_end13:
	.size	mbedtls_ctr_drbg_random, .Lfunc_end13-mbedtls_ctr_drbg_random
	.cfi_endproc
	.cantunwind
	.fnend
                                        @ -- End function
	.section	.text.mbedtls_ctr_drbg_self_test,"ax",%progbits
	.hidden	mbedtls_ctr_drbg_self_test      @ -- Begin function mbedtls_ctr_drbg_self_test
	.globl	mbedtls_ctr_drbg_self_test
	.p2align	2
	.type	mbedtls_ctr_drbg_self_test,%function
	.code	16                              @ @mbedtls_ctr_drbg_self_test
	.thumb_func
mbedtls_ctr_drbg_self_test:
.Lfunc_begin14:
	.loc	2 704 0                         @ ../../../ThirdParty/mbedTLS/library/ctr_drbg.c:704:0
	.fnstart
	.cfi_startproc
@ %bb.0:
	@DEBUG_VALUE: mbedtls_ctr_drbg_self_test:verbose <- $r0
	.save	{r4, r5, r6, r7, lr}
	push	{r4, r5, r6, r7, lr}
	.cfi_def_cfa_offset 20
	.cfi_offset lr, -4
	.cfi_offset r7, -8
	.cfi_offset r6, -12
	.cfi_offset r5, -16
	.cfi_offset r4, -20
	.pad	#356
	sub	sp, #356
	.cfi_def_cfa_offset 376
	mov	r5, r0
.Ltmp220:
	@DEBUG_VALUE: mbedtls_ctr_drbg_self_test:verbose <- $r5
	add	r0, sp, #36
.Ltmp221:
	.loc	2 708 5 prologue_end            @ ../../../ThirdParty/mbedTLS/library/ctr_drbg.c:708:5
	bl	mbedtls_ctr_drbg_init
	.loc	2 713 9                         @ ../../../ThirdParty/mbedTLS/library/ctr_drbg.c:713:9
	cbz	r5, .LBB14_2
.Ltmp222:
@ %bb.1:
	@DEBUG_VALUE: mbedtls_ctr_drbg_self_test:verbose <- $r5
	.loc	2 714 9                         @ ../../../ThirdParty/mbedTLS/library/ctr_drbg.c:714:9
	adr	r0, .LCPI14_0
	bl	__2printf
.Ltmp223:
.LBB14_2:
	@DEBUG_VALUE: mbedtls_ctr_drbg_self_test:verbose <- $r5
	.loc	2 716 17                        @ ../../../ThirdParty/mbedTLS/library/ctr_drbg.c:716:17
	ldr	r0, __arm_cp.14_1
	movs	r4, #0
	str	r4, [r0]
	movs	r7, #32
	movs	r0, #16
.Ltmp224:
	.loc	2 717 5                         @ ../../../ThirdParty/mbedTLS/library/ctr_drbg.c:717:5
	str	r0, [sp]
	str	r7, [sp, #4]
	add	r0, sp, #36
	ldr	r1, __arm_cp.14_2
	ldr	r2, __arm_cp.14_3
	ldr	r3, __arm_cp.14_4
	bl	mbedtls_ctr_drbg_seed_entropy_len
.Ltmp225:
	.loc	2 717 5 is_stmt 0               @ ../../../ThirdParty/mbedTLS/library/ctr_drbg.c:717:5
	cbz	r0, .LBB14_5
.Ltmp226:
@ %bb.3:
	@DEBUG_VALUE: mbedtls_ctr_drbg_self_test:verbose <- $r5
	.loc	2 0 5                           @ ../../../ThirdParty/mbedTLS/library/ctr_drbg.c:0:5
	movs	r4, #1
.Ltmp227:
	.loc	2 717 5                         @ ../../../ThirdParty/mbedTLS/library/ctr_drbg.c:717:5
	cmp	r5, #0
	beq	.LBB14_22
.Ltmp228:
@ %bb.4:
	@DEBUG_VALUE: mbedtls_ctr_drbg_self_test:verbose <- $r5
	.loc	2 717 5                         @ ../../../ThirdParty/mbedTLS/library/ctr_drbg.c:717:5
	adr	r0, .LCPI14_5
	bl	puts
	b	.LBB14_22
.Ltmp229:
.LBB14_5:
	@DEBUG_VALUE: mbedtls_ctr_drbg_self_test:verbose <- $r5
	.loc	2 0 5                           @ ../../../ThirdParty/mbedTLS/library/ctr_drbg.c:0:5
	add	r6, sp, #36
	movs	r1, #1
	.loc	2 719 5 is_stmt 1               @ ../../../ThirdParty/mbedTLS/library/ctr_drbg.c:719:5
	mov	r0, r6
	str	r1, [sp, #16]                   @ 4-byte Spill
	bl	mbedtls_ctr_drbg_set_prediction_resistance
	add	r1, sp, #20
	movs	r2, #16
.Ltmp230:
	.loc	2 720 5                         @ ../../../ThirdParty/mbedTLS/library/ctr_drbg.c:720:5
	mov	r0, r6
	bl	mbedtls_ctr_drbg_random
.Ltmp231:
	.loc	2 720 5 is_stmt 0               @ ../../../ThirdParty/mbedTLS/library/ctr_drbg.c:720:5
	cbz	r0, .LBB14_8
.Ltmp232:
@ %bb.6:
	@DEBUG_VALUE: mbedtls_ctr_drbg_self_test:verbose <- $r5
	.loc	2 720 5                         @ ../../../ThirdParty/mbedTLS/library/ctr_drbg.c:720:5
	cbz	r5, .LBB14_11
.Ltmp233:
@ %bb.7:
	@DEBUG_VALUE: mbedtls_ctr_drbg_self_test:verbose <- $r5
	.loc	2 720 5                         @ ../../../ThirdParty/mbedTLS/library/ctr_drbg.c:720:5
	adr	r0, .LCPI14_5
	bl	puts
	ldr	r4, [sp, #16]                   @ 4-byte Reload
	b	.LBB14_22
.Ltmp234:
.LBB14_8:
	@DEBUG_VALUE: mbedtls_ctr_drbg_self_test:verbose <- $r5
	.loc	2 0 5                           @ ../../../ThirdParty/mbedTLS/library/ctr_drbg.c:0:5
	add	r0, sp, #36
	add	r1, sp, #20
	movs	r2, #16
.Ltmp235:
	.loc	2 721 5 is_stmt 1               @ ../../../ThirdParty/mbedTLS/library/ctr_drbg.c:721:5
	bl	mbedtls_ctr_drbg_random
.Ltmp236:
	.loc	2 721 5 is_stmt 0               @ ../../../ThirdParty/mbedTLS/library/ctr_drbg.c:721:5
	cbz	r0, .LBB14_12
.Ltmp237:
@ %bb.9:
	@DEBUG_VALUE: mbedtls_ctr_drbg_self_test:verbose <- $r5
	.loc	2 721 5                         @ ../../../ThirdParty/mbedTLS/library/ctr_drbg.c:721:5
	cbz	r5, .LBB14_15
.Ltmp238:
@ %bb.10:
	@DEBUG_VALUE: mbedtls_ctr_drbg_self_test:verbose <- $r5
	.loc	2 721 5                         @ ../../../ThirdParty/mbedTLS/library/ctr_drbg.c:721:5
	adr	r0, .LCPI14_5
	bl	puts
	ldr	r4, [sp, #16]                   @ 4-byte Reload
	b	.LBB14_22
.Ltmp239:
.LBB14_11:
	@DEBUG_VALUE: mbedtls_ctr_drbg_self_test:verbose <- $r5
	.loc	2 0 5                           @ ../../../ThirdParty/mbedTLS/library/ctr_drbg.c:0:5
	ldr	r4, [sp, #16]                   @ 4-byte Reload
	b	.LBB14_22
.Ltmp240:
.LBB14_12:
	@DEBUG_VALUE: mbedtls_ctr_drbg_self_test:verbose <- $r5
	add	r0, sp, #20
.Ltmp241:
	.loc	2 722 5 is_stmt 1               @ ../../../ThirdParty/mbedTLS/library/ctr_drbg.c:722:5
	ldr	r1, __arm_cp.14_6
	movs	r6, #16
	mov	r2, r6
	bl	memcmp
.Ltmp242:
	.loc	2 722 5 is_stmt 0               @ ../../../ThirdParty/mbedTLS/library/ctr_drbg.c:722:5
	cbz	r0, .LBB14_16
.Ltmp243:
@ %bb.13:
	@DEBUG_VALUE: mbedtls_ctr_drbg_self_test:verbose <- $r5
	.loc	2 722 5                         @ ../../../ThirdParty/mbedTLS/library/ctr_drbg.c:722:5
	cbz	r5, .LBB14_21
.Ltmp244:
@ %bb.14:
	@DEBUG_VALUE: mbedtls_ctr_drbg_self_test:verbose <- $r5
	.loc	2 722 5                         @ ../../../ThirdParty/mbedTLS/library/ctr_drbg.c:722:5
	adr	r0, .LCPI14_5
	bl	puts
	ldr	r4, [sp, #16]                   @ 4-byte Reload
	b	.LBB14_22
.Ltmp245:
.LBB14_15:
	@DEBUG_VALUE: mbedtls_ctr_drbg_self_test:verbose <- $r5
	.loc	2 0 5                           @ ../../../ThirdParty/mbedTLS/library/ctr_drbg.c:0:5
	ldr	r4, [sp, #16]                   @ 4-byte Reload
	b	.LBB14_22
.Ltmp246:
.LBB14_16:
	@DEBUG_VALUE: mbedtls_ctr_drbg_self_test:verbose <- $r5
	add	r0, sp, #36
	.loc	2 724 5 is_stmt 1               @ ../../../ThirdParty/mbedTLS/library/ctr_drbg.c:724:5
	bl	mbedtls_ctr_drbg_free
	.loc	2 726 9                         @ ../../../ThirdParty/mbedTLS/library/ctr_drbg.c:726:9
	cbz	r5, .LBB14_18
.Ltmp247:
@ %bb.17:
	@DEBUG_VALUE: mbedtls_ctr_drbg_self_test:verbose <- $r5
	.loc	2 727 9                         @ ../../../ThirdParty/mbedTLS/library/ctr_drbg.c:727:9
	adr	r0, .LCPI14_7
	bl	puts
.Ltmp248:
	.loc	2 733 9                         @ ../../../ThirdParty/mbedTLS/library/ctr_drbg.c:733:9
	adr	r0, .LCPI14_8
	bl	__2printf
.Ltmp249:
.LBB14_18:
	@DEBUG_VALUE: mbedtls_ctr_drbg_self_test:verbose <- $r5
	.loc	2 0 9 is_stmt 0                 @ ../../../ThirdParty/mbedTLS/library/ctr_drbg.c:0:9
	add	r0, sp, #36
	.loc	2 735 5 is_stmt 1               @ ../../../ThirdParty/mbedTLS/library/ctr_drbg.c:735:5
	str	r0, [sp, #12]                   @ 4-byte Spill
	bl	mbedtls_ctr_drbg_init
	.loc	2 737 17                        @ ../../../ThirdParty/mbedTLS/library/ctr_drbg.c:737:17
	ldr	r0, __arm_cp.14_1
	str	r4, [r0]
.Ltmp250:
	.loc	2 738 5                         @ ../../../ThirdParty/mbedTLS/library/ctr_drbg.c:738:5
	str	r6, [sp]
	str	r7, [sp, #4]
	ldr	r1, __arm_cp.14_2
	ldr	r2, __arm_cp.14_9
	ldr	r3, __arm_cp.14_10
	ldr	r0, [sp, #12]                   @ 4-byte Reload
	bl	mbedtls_ctr_drbg_seed_entropy_len
.Ltmp251:
	.loc	2 738 5 is_stmt 0               @ ../../../ThirdParty/mbedTLS/library/ctr_drbg.c:738:5
	cbz	r0, .LBB14_23
.Ltmp252:
@ %bb.19:
	@DEBUG_VALUE: mbedtls_ctr_drbg_self_test:verbose <- $r5
	.loc	2 0 5                           @ ../../../ThirdParty/mbedTLS/library/ctr_drbg.c:0:5
	ldr	r4, [sp, #16]                   @ 4-byte Reload
.Ltmp253:
	.loc	2 738 5                         @ ../../../ThirdParty/mbedTLS/library/ctr_drbg.c:738:5
	cbz	r5, .LBB14_22
.Ltmp254:
@ %bb.20:
	@DEBUG_VALUE: mbedtls_ctr_drbg_self_test:verbose <- $r5
	.loc	2 738 5                         @ ../../../ThirdParty/mbedTLS/library/ctr_drbg.c:738:5
	adr	r0, .LCPI14_5
	bl	puts
	b	.LBB14_22
.Ltmp255:
.LBB14_21:
	@DEBUG_VALUE: mbedtls_ctr_drbg_self_test:verbose <- $r5
	.loc	2 0 5                           @ ../../../ThirdParty/mbedTLS/library/ctr_drbg.c:0:5
	ldr	r4, [sp, #16]                   @ 4-byte Reload
.Ltmp256:
.LBB14_22:
	@DEBUG_VALUE: mbedtls_ctr_drbg_self_test:verbose <- $r5
	.loc	2 754 1 is_stmt 1               @ ../../../ThirdParty/mbedTLS/library/ctr_drbg.c:754:1
	mov	r0, r4
	add	sp, #356
	pop	{r4, r5, r6, r7, pc}
.Ltmp257:
.LBB14_23:
	@DEBUG_VALUE: mbedtls_ctr_drbg_self_test:verbose <- $r5
	.loc	2 0 1 is_stmt 0                 @ ../../../ThirdParty/mbedTLS/library/ctr_drbg.c:0:1
	add	r0, sp, #36
	add	r1, sp, #20
	movs	r2, #16
.Ltmp258:
	.loc	2 740 5 is_stmt 1               @ ../../../ThirdParty/mbedTLS/library/ctr_drbg.c:740:5
	bl	mbedtls_ctr_drbg_random
	ldr	r4, [sp, #16]                   @ 4-byte Reload
.Ltmp259:
	.loc	2 740 5 is_stmt 0               @ ../../../ThirdParty/mbedTLS/library/ctr_drbg.c:740:5
	cbz	r0, .LBB14_26
.Ltmp260:
@ %bb.24:
	@DEBUG_VALUE: mbedtls_ctr_drbg_self_test:verbose <- $r5
	.loc	2 740 5                         @ ../../../ThirdParty/mbedTLS/library/ctr_drbg.c:740:5
	cmp	r5, #0
	beq	.LBB14_22
.Ltmp261:
@ %bb.25:
	@DEBUG_VALUE: mbedtls_ctr_drbg_self_test:verbose <- $r5
	.loc	2 740 5                         @ ../../../ThirdParty/mbedTLS/library/ctr_drbg.c:740:5
	adr	r0, .LCPI14_5
	bl	puts
	b	.LBB14_22
.Ltmp262:
.LBB14_26:
	@DEBUG_VALUE: mbedtls_ctr_drbg_self_test:verbose <- $r5
	.loc	2 0 5                           @ ../../../ThirdParty/mbedTLS/library/ctr_drbg.c:0:5
	add	r0, sp, #36
	movs	r6, #0
.Ltmp263:
	.loc	2 741 5 is_stmt 1               @ ../../../ThirdParty/mbedTLS/library/ctr_drbg.c:741:5
	mov	r1, r6
	mov	r2, r6
	bl	mbedtls_ctr_drbg_reseed
.Ltmp264:
	.loc	2 741 5 is_stmt 0               @ ../../../ThirdParty/mbedTLS/library/ctr_drbg.c:741:5
	cbz	r0, .LBB14_29
.Ltmp265:
@ %bb.27:
	@DEBUG_VALUE: mbedtls_ctr_drbg_self_test:verbose <- $r5
	.loc	2 741 5                         @ ../../../ThirdParty/mbedTLS/library/ctr_drbg.c:741:5
	cmp	r5, #0
	beq	.LBB14_22
.Ltmp266:
@ %bb.28:
	@DEBUG_VALUE: mbedtls_ctr_drbg_self_test:verbose <- $r5
	.loc	2 741 5                         @ ../../../ThirdParty/mbedTLS/library/ctr_drbg.c:741:5
	adr	r0, .LCPI14_5
	bl	puts
	b	.LBB14_22
.Ltmp267:
.LBB14_29:
	@DEBUG_VALUE: mbedtls_ctr_drbg_self_test:verbose <- $r5
	.loc	2 0 5                           @ ../../../ThirdParty/mbedTLS/library/ctr_drbg.c:0:5
	add	r0, sp, #36
	add	r1, sp, #20
	movs	r2, #16
.Ltmp268:
	.loc	2 742 5 is_stmt 1               @ ../../../ThirdParty/mbedTLS/library/ctr_drbg.c:742:5
	bl	mbedtls_ctr_drbg_random
.Ltmp269:
	.loc	2 742 5 is_stmt 0               @ ../../../ThirdParty/mbedTLS/library/ctr_drbg.c:742:5
	cbz	r0, .LBB14_32
.Ltmp270:
@ %bb.30:
	@DEBUG_VALUE: mbedtls_ctr_drbg_self_test:verbose <- $r5
	.loc	2 742 5                         @ ../../../ThirdParty/mbedTLS/library/ctr_drbg.c:742:5
	cmp	r5, #0
	beq	.LBB14_22
.Ltmp271:
@ %bb.31:
	@DEBUG_VALUE: mbedtls_ctr_drbg_self_test:verbose <- $r5
	.loc	2 742 5                         @ ../../../ThirdParty/mbedTLS/library/ctr_drbg.c:742:5
	adr	r0, .LCPI14_5
	bl	puts
	b	.LBB14_22
.Ltmp272:
.LBB14_32:
	@DEBUG_VALUE: mbedtls_ctr_drbg_self_test:verbose <- $r5
	.loc	2 0 5                           @ ../../../ThirdParty/mbedTLS/library/ctr_drbg.c:0:5
	add	r0, sp, #20
.Ltmp273:
	.loc	2 743 5 is_stmt 1               @ ../../../ThirdParty/mbedTLS/library/ctr_drbg.c:743:5
	ldr	r1, __arm_cp.14_11
	movs	r2, #16
	bl	memcmp
.Ltmp274:
	.loc	2 743 5 is_stmt 0               @ ../../../ThirdParty/mbedTLS/library/ctr_drbg.c:743:5
	cbz	r0, .LBB14_35
.Ltmp275:
@ %bb.33:
	@DEBUG_VALUE: mbedtls_ctr_drbg_self_test:verbose <- $r5
	.loc	2 743 5                         @ ../../../ThirdParty/mbedTLS/library/ctr_drbg.c:743:5
	cmp	r5, #0
	beq	.LBB14_22
.Ltmp276:
@ %bb.34:
	@DEBUG_VALUE: mbedtls_ctr_drbg_self_test:verbose <- $r5
	.loc	2 743 5                         @ ../../../ThirdParty/mbedTLS/library/ctr_drbg.c:743:5
	adr	r0, .LCPI14_5
	bl	puts
	b	.LBB14_22
.Ltmp277:
.LBB14_35:
	@DEBUG_VALUE: mbedtls_ctr_drbg_self_test:verbose <- $r5
	.loc	2 0 5                           @ ../../../ThirdParty/mbedTLS/library/ctr_drbg.c:0:5
	add	r0, sp, #36
	.loc	2 745 5 is_stmt 1               @ ../../../ThirdParty/mbedTLS/library/ctr_drbg.c:745:5
	bl	mbedtls_ctr_drbg_free
	.loc	2 747 9                         @ ../../../ThirdParty/mbedTLS/library/ctr_drbg.c:747:9
	cbz	r5, .LBB14_37
.Ltmp278:
@ %bb.36:
	@DEBUG_VALUE: mbedtls_ctr_drbg_self_test:verbose <- $r5
	.loc	2 748 9                         @ ../../../ThirdParty/mbedTLS/library/ctr_drbg.c:748:9
	adr	r0, .LCPI14_7
	bl	puts
	movs	r0, #10
.Ltmp279:
	.loc	2 751 9                         @ ../../../ThirdParty/mbedTLS/library/ctr_drbg.c:751:9
	bl	putchar
.Ltmp280:
	.loc	2 0 0 is_stmt 0                 @ ../../../ThirdParty/mbedTLS/library/ctr_drbg.c:0:0
	mov	r4, r6
	b	.LBB14_22
.Ltmp281:
.LBB14_37:
	@DEBUG_VALUE: mbedtls_ctr_drbg_self_test:verbose <- $r5
	mov	r4, r6
	b	.LBB14_22
.Ltmp282:
	.p2align	2
@ %bb.38:
.LCPI14_0:
.L.str:
	.asciz	"  CTR_DRBG (PR = TRUE) : \000\000"
__arm_cp.14_1:
	.long	test_offset
.Lcpi_end1:
	.size	__arm_cp.14_1, .Lcpi_end1-__arm_cp.14_1
__arm_cp.14_2:
	.long	ctr_drbg_self_test_entropy
.Lcpi_end2:
	.size	__arm_cp.14_2, .Lcpi_end2-__arm_cp.14_2
__arm_cp.14_3:
	.long	entropy_source_pr
.Lcpi_end3:
	.size	__arm_cp.14_3, .Lcpi_end3-__arm_cp.14_3
__arm_cp.14_4:
	.long	nonce_pers_pr
.Lcpi_end4:
	.size	__arm_cp.14_4, .Lcpi_end4-__arm_cp.14_4
.LCPI14_5:
.Lstr.7:
.Lstr.6:
.Lstr.12:
.Lstr.14:
.Lstr.8:
.Lstr.13:
.Lstr.9:
.Lstr.11:
.Lstr.5:
	.asciz	"failed\000"
__arm_cp.14_6:
	.long	result_pr
.Lcpi_end5:
	.size	__arm_cp.14_6, .Lcpi_end5-__arm_cp.14_6
.LCPI14_7:
.Lstr.10:
.Lstr:
	.asciz	"passed\000"
.LCPI14_8:
.L.str.3:
	.asciz	"  CTR_DRBG (PR = FALSE): \000\000"
__arm_cp.14_9:
	.long	entropy_source_nopr
.Lcpi_end6:
	.size	__arm_cp.14_9, .Lcpi_end6-__arm_cp.14_9
__arm_cp.14_10:
	.long	nonce_pers_nopr
.Lcpi_end7:
	.size	__arm_cp.14_10, .Lcpi_end7-__arm_cp.14_10
__arm_cp.14_11:
	.long	result_nopr
.Lcpi_end8:
	.size	__arm_cp.14_11, .Lcpi_end8-__arm_cp.14_11
.Lfunc_end14:
	.size	mbedtls_ctr_drbg_self_test, .Lfunc_end14-mbedtls_ctr_drbg_self_test
	.cfi_endproc
	.cantunwind
	.fnend
                                        @ -- End function
	.section	.text.ctr_drbg_self_test_entropy,"ax",%progbits
	.p2align	2                               @ -- Begin function ctr_drbg_self_test_entropy
	.type	ctr_drbg_self_test_entropy,%function
	.code	16                              @ @ctr_drbg_self_test_entropy
	.thumb_func
ctr_drbg_self_test_entropy:
.Lfunc_begin15:
	.loc	2 686 0 is_stmt 1               @ ../../../ThirdParty/mbedTLS/library/ctr_drbg.c:686:0
	.fnstart
	.cfi_startproc
@ %bb.0:
	@DEBUG_VALUE: ctr_drbg_self_test_entropy:data <- $r0
	@DEBUG_VALUE: ctr_drbg_self_test_entropy:buf <- $r1
	@DEBUG_VALUE: ctr_drbg_self_test_entropy:len <- $r2
	.save	{r4, r5, r6, lr}
	push	{r4, r5, r6, lr}
	.cfi_def_cfa_offset 16
	.cfi_offset lr, -4
	.cfi_offset r6, -8
	.cfi_offset r5, -12
	.cfi_offset r4, -16
.Ltmp283:
	@DEBUG_VALUE: ctr_drbg_self_test_entropy:p <- $r0
	mov	r4, r2
	mov	r2, r1
.Ltmp284:
	@DEBUG_VALUE: ctr_drbg_self_test_entropy:len <- [DW_OP_LLVM_entry_value 1] $r2
	@DEBUG_VALUE: ctr_drbg_self_test_entropy:p <- $r0
	@DEBUG_VALUE: ctr_drbg_self_test_entropy:len <- $r4
	@DEBUG_VALUE: ctr_drbg_self_test_entropy:buf <- $r2
	@DEBUG_VALUE: ctr_drbg_self_test_entropy:data <- $r0
	.loc	2 688 22 prologue_end           @ ../../../ThirdParty/mbedTLS/library/ctr_drbg.c:688:22
	ldr	r5, __arm_cp.15_0
	ldr	r6, [r5]
	.loc	2 688 20 is_stmt 0              @ ../../../ThirdParty/mbedTLS/library/ctr_drbg.c:688:20
	adds	r1, r0, r6
	.loc	2 688 5                         @ ../../../ThirdParty/mbedTLS/library/ctr_drbg.c:688:5
	mov	r0, r2
.Ltmp285:
	@DEBUG_VALUE: ctr_drbg_self_test_entropy:data <- [DW_OP_LLVM_entry_value 1] $r0
	@DEBUG_VALUE: ctr_drbg_self_test_entropy:buf <- $r0
	mov	r2, r4
	bl	__aeabi_memcpy
.Ltmp286:
	.loc	2 689 17 is_stmt 1              @ ../../../ThirdParty/mbedTLS/library/ctr_drbg.c:689:17
	adds	r0, r6, r4
	str	r0, [r5]
	movs	r0, #0
	.loc	2 690 5                         @ ../../../ThirdParty/mbedTLS/library/ctr_drbg.c:690:5
	pop	{r4, r5, r6, pc}
.Ltmp287:
	.p2align	2
@ %bb.1:
	.loc	2 0 5 is_stmt 0                 @ ../../../ThirdParty/mbedTLS/library/ctr_drbg.c:0:5
__arm_cp.15_0:
	.long	test_offset
.Lcpi_end9:
	.size	__arm_cp.15_0, .Lcpi_end9-__arm_cp.15_0
.Lfunc_end15:
	.size	ctr_drbg_self_test_entropy, .Lfunc_end15-ctr_drbg_self_test_entropy
	.cfi_endproc
	.cantunwind
	.fnend
                                        @ -- End function
	.type	test_offset,%object             @ @test_offset
	.section	.bss.test_offset,"aw",%nobits
	.p2align	2
test_offset:
	.long	0                               @ 0x0
	.size	test_offset, 4

	.type	entropy_source_pr,%object       @ @entropy_source_pr
	.section	.rodata.entropy_source_pr,"a",%progbits
entropy_source_pr:
	.ascii	"\301\200\201\246]D\002\026\031\263\361\200\261\311 \002jTo\fp\201I\213n\246bRmQ\261\313X;\372\3257_\373\311\377F\322\031\307\">\225E\235\202\341\347\"\237c1i\322kWGO\2437\311\230\034\013\373\2211MU\271\351\034Z^\344\223\222\317\305#\022\325V,Jn\377\334\020\320h"
	.size	entropy_source_pr, 96

	.type	nonce_pers_pr,%object           @ @nonce_pers_pr
	.section	.rodata.nonce_pers_pr,"a",%progbits
nonce_pers_pr:
	.ascii	"\322T\374\377\002\036i\322)\311\317\255\205\372Hl"
	.size	nonce_pers_pr, 16

	.type	result_pr,%object               @ @result_pr
	.section	.rodata.result_pr,"a",%progbits
result_pr:
	.ascii	"4\001\026V\264)\000\2175c\354\265\362Y\007#"
	.size	result_pr, 16

	.type	entropy_source_nopr,%object     @ @entropy_source_nopr
	.section	.rodata.entropy_source_nopr,"a",%progbits
entropy_source_nopr:
	.ascii	"Z\031M^+1X\024T\336\366u\373yX\376\307\333\207>V\211\374\235\003!|h\330\0038 \371\346^\004\330V\363\251\304JL\275\301\320\bF\365\230=w\034\033\023~N\017\235\216\364\t\371."
	.size	entropy_source_nopr, 64

	.type	nonce_pers_nopr,%object         @ @nonce_pers_nopr
	.section	.rodata.nonce_pers_nopr,"a",%progbits
nonce_pers_nopr:
	.ascii	"\033T\270\377\006B\277\365!\361\\\034\013f_?"
	.size	nonce_pers_nopr, 16

	.type	result_nopr,%object             @ @result_nopr
	.section	.rodata.result_nopr,"a",%progbits
result_nopr:
	.ascii	"\240T0=\212~\251\210\235\220>\007|o!\217"
	.size	result_nopr, 16

	.section	".note.GNU-stack","",%progbits
	.eabi_attribute	30, 1	@ Tag_ABI_optimization_goals
	.ARM_attribute	16, 1	@ Tag_AV_eba