	.text
	.syntax unified
	.eabi_attribute	67, "2.09"	@ Tag_conformance
	.cpu	cortex-m23
	.eabi_attribute	6, 16	@ Tag_CPU_arch
	.eabi_attribute	7, 77	@ Tag_CPU_arch_profile
	.eabi_attribute	8, 0	@ Tag_ARM_ISA_use
	.eabi_attribute	9, 3	@ Tag_THUMB_ISA_use
	.eabi_attribute	34, 0	@ Tag_CPU_unaligned_access
	.eabi_attribute	17, 1	@ Tag_ABI_PCS_GOT_use
	.eabi_attribute	20, 2	@ Tag_ABI_FP_denormal
	.eabi_attribute	21, 0	@ Tag_ABI_FP_exceptions
	.eabi_attribute	23, 1	@ Tag_ABI_FP_number_model
	.eabi_attribute	24, 1	@ Tag_ABI_align_needed
	.eabi_attribute	25, 1	@ Tag_ABI_align_preserved
	.eabi_attribute	38, 1	@ Tag_ABI_FP_16bit_format
	.eabi_attribute	18, 2	@ Tag_ABI_PCS_wchar_t
	.eabi_attribute	26, 1	@ Tag_ABI_enum_size
	.eabi_attribute	14, 0	@ Tag_ABI_PCS_R9_use
	.file	"debug.c"
	.file	1 "C:\\Users\\shw26\\OneDrive\\Desktop\\2021\\2021-1\\\354\272\241\354\212\244\355\206\244\353\224\224\354\236\220\354\235\2702\\Nuvoton\\M2351_BSP_v3.00.004\\M2351Series_BSP_CMSIS_V3.00.004\\MyProject\\PulseMonitoring\\Secure" "../../../ThirdParty/mbedTLS/library/debug.c"
	.file	2 "C:\\Users\\shw26\\OneDrive\\Desktop\\2021\\2021-1\\\354\272\241\354\212\244\355\206\244\353\224\224\354\236\220\354\235\2702\\Nuvoton\\M2351_BSP_v3.00.004\\M2351Series_BSP_CMSIS_V3.00.004\\MyProject\\PulseMonitoring\\Secure" "../../../ThirdParty/mbedTLS/include/mbedtls/md.h"
	.file	3 "C:\\Users\\shw26\\OneDrive\\Desktop\\2021\\2021-1\\\354\272\241\354\212\244\355\206\244\353\224\224\354\236\220\354\235\2702\\Nuvoton\\M2351_BSP_v3.00.004\\M2351Series_BSP_CMSIS_V3.00.004\\MyProject\\PulseMonitoring\\Secure" "../../../ThirdParty/mbedTLS/include/mbedtls/pk.h"
	.file	4 "C:\\Users\\shw26\\OneDrive\\Desktop\\2021\\2021-1\\\354\272\241\354\212\244\355\206\244\353\224\224\354\236\220\354\235\2702\\Nuvoton\\M2351_BSP_v3.00.004\\M2351Series_BSP_CMSIS_V3.00.004\\MyProject\\PulseMonitoring\\Secure" "../../../ThirdParty/mbedTLS/include/mbedtls/ecp.h"
	.file	5 "C:\\Users\\shw26\\OneDrive\\Desktop\\2021\\2021-1\\\354\272\241\354\212\244\355\206\244\353\224\224\354\236\220\354\235\2702\\Nuvoton\\M2351_BSP_v3.00.004\\M2351Series_BSP_CMSIS_V3.00.004\\MyProject\\PulseMonitoring\\Secure" "../../../ThirdParty/mbedTLS/include/mbedtls\\debug.h"
	.section	.text.mbedtls_debug_set_threshold,"ax",%progbits
	.hidden	mbedtls_debug_set_threshold     @ -- Begin function mbedtls_debug_set_threshold
	.globl	mbedtls_debug_set_threshold
	.p2align	2
	.type	mbedtls_debug_set_threshold,%function
	.code	16                              @ @mbedtls_debug_set_threshold
	.thumb_func
mbedtls_debug_set_threshold:
.Lfunc_begin0:
	.loc	1 57 0                          @ ../../../ThirdParty/mbedTLS/library/debug.c:57:0
	.fnstart
	.cfi_sections .debug_frame
	.cfi_startproc
@ %bb.0:
	@DEBUG_VALUE: mbedtls_debug_set_threshold:threshold <- $r0
	@DEBUG_VALUE: mbedtls_debug_set_threshold:threshold <- $r0
	.loc	1 58 21 prologue_end            @ ../../../ThirdParty/mbedTLS/library/debug.c:58:21
	ldr	r1, __arm_cp.0_0
	str	r0, [r1]
	.loc	1 59 1                          @ ../../../ThirdParty/mbedTLS/library/debug.c:59:1
	bx	lr
.Ltmp0:
	.p2align	2
@ %bb.1:
	.loc	1 0 1 is_stmt 0                 @ ../../../ThirdParty/mbedTLS/library/debug.c:0:1
__arm_cp.0_0:
	.long	debug_threshold
.Lcpi_end0:
	.size	__arm_cp.0_0, .Lcpi_end0-__arm_cp.0_0
.Lfunc_end0:
	.size	mbedtls_debug_set_threshold, .Lfunc_end0-mbedtls_debug_set_threshold
	.cfi_endproc
	.cantunwind
	.fnend
                                        @ -- End function
	.section	.text.mbedtls_debug_print_msg,"ax",%progbits
	.hidden	mbedtls_debug_print_msg         @ -- Begin function mbedtls_debug_print_msg
	.globl	mbedtls_debug_print_msg
	.p2align	2
	.type	mbedtls_debug_print_msg,%function
	.code	16                              @ @mbedtls_debug_print_msg
	.thumb_func
mbedtls_debug_print_msg:
.Lfunc_begin1:
	.loc	1 85 0 is_stmt 1                @ ../../../ThirdParty/mbedTLS/library/debug.c:85:0
	.fnstart
	.cfi_startproc
@ %bb.0:
	@DEBUG_VALUE: mbedtls_debug_print_msg:ssl <- $r0
	@DEBUG_VALUE: mbedtls_debug_print_msg:level <- $r1
	@DEBUG_VALUE: mbedtls_debug_print_msg:file <- $r2
	@DEBUG_VALUE: mbedtls_debug_print_msg:line <- $r3
	@DEBUG_VALUE: mbedtls_debug_print_msg:line <- $r3
	@DEBUG_VALUE: mbedtls_debug_print_msg:file <- $r2
	@DEBUG_VALUE: mbedtls_debug_print_msg:level <- $r1
	@DEBUG_VALUE: mbedtls_debug_print_msg:ssl <- $r0
	.save	{r4, r5, r6, r7, lr}
	push	{r4, r5, r6, r7, lr}
	.cfi_def_cfa_offset 20
	.cfi_offset lr, -4
	.cfi_offset r7, -8
	.cfi_offset r6, -12
	.cfi_offset r5, -16
	.cfi_offset r4, -20
	.pad	#508
	sub	sp, #508
	.pad	#16
	sub	sp, #16
	.cfi_def_cfa_offset 544
.Ltmp1:
	@DEBUG_VALUE: mbedtls_debug_print_msg:format <- [DW_OP_plus_uconst 544] [$sp+0]
	.loc	1 90 21 prologue_end            @ ../../../ThirdParty/mbedTLS/library/debug.c:90:21
	cbz	r0, .LBB1_7
.Ltmp2:
@ %bb.1:
	@DEBUG_VALUE: mbedtls_debug_print_msg:line <- $r3
	@DEBUG_VALUE: mbedtls_debug_print_msg:file <- $r2
	@DEBUG_VALUE: mbedtls_debug_print_msg:level <- $r1
	@DEBUG_VALUE: mbedtls_debug_print_msg:ssl <- $r0
	@DEBUG_VALUE: mbedtls_debug_print_msg:format <- [DW_OP_plus_uconst 544] [$sp+0]
	@DEBUG_VALUE: mbedtls_debug_print_msg:line <- $r3
	@DEBUG_VALUE: mbedtls_debug_print_msg:file <- $r2
	@DEBUG_VALUE: mbedtls_debug_print_msg:level <- $r1
	.loc	1 0 21 is_stmt 0                @ ../../../ThirdParty/mbedTLS/library/debug.c:0:21
	mov	r7, r0
.Ltmp3:
	@DEBUG_VALUE: mbedtls_debug_print_msg:ssl <- $r7
	.loc	1 90 37                         @ ../../../ThirdParty/mbedTLS/library/debug.c:90:37
	ldr	r0, [r0]
	.loc	1 90 42                         @ ../../../ThirdParty/mbedTLS/library/debug.c:90:42
	cbz	r0, .LBB1_7
.Ltmp4:
@ %bb.2:
	@DEBUG_VALUE: mbedtls_debug_print_msg:ssl <- $r7
	@DEBUG_VALUE: mbedtls_debug_print_msg:line <- $r3
	@DEBUG_VALUE: mbedtls_debug_print_msg:file <- $r2
	@DEBUG_VALUE: mbedtls_debug_print_msg:level <- $r1
	@DEBUG_VALUE: mbedtls_debug_print_msg:format <- [DW_OP_plus_uconst 544] [$sp+0]
	@DEBUG_VALUE: mbedtls_debug_print_msg:line <- $r3
	@DEBUG_VALUE: mbedtls_debug_print_msg:file <- $r2
	@DEBUG_VALUE: mbedtls_debug_print_msg:level <- $r1
	.loc	1 90 64                         @ ../../../ThirdParty/mbedTLS/library/debug.c:90:64
	ldr	r0, [r0, #16]
	.loc	1 90 70                         @ ../../../ThirdParty/mbedTLS/library/debug.c:90:70
	cbz	r0, .LBB1_7
.Ltmp5:
@ %bb.3:
	@DEBUG_VALUE: mbedtls_debug_print_msg:ssl <- $r7
	@DEBUG_VALUE: mbedtls_debug_print_msg:line <- $r3
	@DEBUG_VALUE: mbedtls_debug_print_msg:file <- $r2
	@DEBUG_VALUE: mbedtls_debug_print_msg:level <- $r1
	@DEBUG_VALUE: mbedtls_debug_print_msg:format <- [DW_OP_plus_uconst 544] [$sp+0]
	@DEBUG_VALUE: mbedtls_debug_print_msg:line <- $r3
	@DEBUG_VALUE: mbedtls_debug_print_msg:file <- $r2
	.loc	1 0 70                          @ ../../../ThirdParty/mbedTLS/library/debug.c:0:70
	mov	r6, r1
.Ltmp6:
	@DEBUG_VALUE: mbedtls_debug_print_msg:level <- $r6
	ldr	r0, __arm_cp.1_0
	ldr	r0, [r0]
	.loc	1 90 70                         @ ../../../ThirdParty/mbedTLS/library/debug.c:90:70
	cmp	r0, r1
	blt	.LBB1_7
.Ltmp7:
@ %bb.4:
	@DEBUG_VALUE: mbedtls_debug_print_msg:ssl <- $r7
	@DEBUG_VALUE: mbedtls_debug_print_msg:level <- $r6
	@DEBUG_VALUE: mbedtls_debug_print_msg:line <- $r3
	@DEBUG_VALUE: mbedtls_debug_print_msg:file <- $r2
	@DEBUG_VALUE: mbedtls_debug_print_msg:format <- [DW_OP_plus_uconst 544] [$sp+0]
	.loc	1 0 70                          @ ../../../ThirdParty/mbedTLS/library/debug.c:0:70
	mov	r4, r3
.Ltmp8:
	@DEBUG_VALUE: mbedtls_debug_print_msg:line <- $r4
	mov	r5, r2
.Ltmp9:
	@DEBUG_VALUE: mbedtls_debug_print_msg:file <- $r5
	ldr	r2, [sp, #544]
	add	r3, sp, #548
	.loc	1 93 5 is_stmt 1                @ ../../../ThirdParty/mbedTLS/library/debug.c:93:5
	str	r3, [sp, #520]
	ldr	r0, __arm_cp.1_1
	.loc	1 94 11                         @ ../../../ThirdParty/mbedTLS/library/debug.c:94:11
	adds	r1, r0, #1
	add	r0, sp, #8
	bl	vsnprintf
.Ltmp10:
	@DEBUG_VALUE: mbedtls_debug_print_msg:ret <- $r0
	.loc	1 97 18                         @ ../../../ThirdParty/mbedTLS/library/debug.c:97:18
	ldr	r1, __arm_cp.1_1
	cmp	r0, r1
	bhs	.LBB1_6
.Ltmp11:
@ %bb.5:
	@DEBUG_VALUE: mbedtls_debug_print_msg:ssl <- $r7
	@DEBUG_VALUE: mbedtls_debug_print_msg:level <- $r6
	@DEBUG_VALUE: mbedtls_debug_print_msg:file <- $r5
	@DEBUG_VALUE: mbedtls_debug_print_msg:line <- $r4
	@DEBUG_VALUE: mbedtls_debug_print_msg:ret <- $r0
	@DEBUG_VALUE: mbedtls_debug_print_msg:format <- [DW_OP_plus_uconst 544] [$sp+0]
	.loc	1 0 18 is_stmt 0                @ ../../../ThirdParty/mbedTLS/library/debug.c:0:18
	add	r1, sp, #8
	movs	r2, #10
.Ltmp12:
	.loc	1 99 22 is_stmt 1               @ ../../../ThirdParty/mbedTLS/library/debug.c:99:22
	strb	r2, [r1, r0]
	.loc	1 99 9 is_stmt 0                @ ../../../ThirdParty/mbedTLS/library/debug.c:99:9
	adds	r0, r1, r0
.Ltmp13:
	.loc	1 0 9                           @ ../../../ThirdParty/mbedTLS/library/debug.c:0:9
	movs	r1, #0
	.loc	1 100 22 is_stmt 1              @ ../../../ThirdParty/mbedTLS/library/debug.c:100:22
	strb	r1, [r0, #1]
.Ltmp14:
.LBB1_6:
	@DEBUG_VALUE: mbedtls_debug_print_msg:ssl <- $r7
	@DEBUG_VALUE: mbedtls_debug_print_msg:level <- $r6
	@DEBUG_VALUE: mbedtls_debug_print_msg:file <- $r5
	@DEBUG_VALUE: mbedtls_debug_print_msg:line <- $r4
	@DEBUG_VALUE: mbedtls_debug_print_msg:format <- [DW_OP_plus_uconst 544] [$sp+0]
	.loc	1 0 22 is_stmt 0                @ ../../../ThirdParty/mbedTLS/library/debug.c:0:22
	add	r0, sp, #8
	.loc	1 103 5 is_stmt 1               @ ../../../ThirdParty/mbedTLS/library/debug.c:103:5
	str	r0, [sp]
	mov	r0, r7
	mov	r1, r6
	mov	r2, r5
	mov	r3, r4
	bl	debug_send_line
.Ltmp15:
.LBB1_7:
	@DEBUG_VALUE: mbedtls_debug_print_msg:format <- [DW_OP_plus_uconst 544] [$sp+0]
	.loc	1 104 1                         @ ../../../ThirdParty/mbedTLS/library/debug.c:104:1
	add	sp, #508
.Ltmp16:
	add	sp, #16
	pop	{r4, r5, r6, r7, pc}
.Ltmp17:
	.p2align	2
@ %bb.8:
	.loc	1 0 1 is_stmt 0                 @ ../../../ThirdParty/mbedTLS/library/debug.c:0:1
__arm_cp.1_0:
	.long	debug_threshold
.Lcpi_end1:
	.size	__arm_cp.1_0, .Lcpi_end1-__arm_cp.1_0
__arm_cp.1_1:
	.long	511                             @ 0x1ff
.Lcpi_end2:
	.size	__arm_cp.1_1, .Lcpi_end2-__arm_cp.1_1
.Lfunc_end1:
	.size	mbedtls_debug_print_msg, .Lfunc_end1-mbedtls_debug_print_msg
	.cfi_endproc
	.cantunwind
	.fnend
                                        @ -- End function
	.section	.text.debug_send_line,"ax",%progbits
	.p2align	1                               @ -- Begin function debug_send_line
	.type	debug_send_line,%function
	.code	16                              @ @debug_send_line
	.thumb_func
debug_send_line:
.Lfunc_begin2:
	.loc	1 67 0 is_stmt 1                @ ../../../ThirdParty/mbedTLS/library/debug.c:67:0
	.fnstart
	.cfi_startproc
@ %bb.0:
	@DEBUG_VALUE: debug_send_line:ssl <- $r0
	@DEBUG_VALUE: debug_send_line:ssl <- $r0
	@DEBUG_VALUE: debug_send_line:level <- $r1
	@DEBUG_VALUE: debug_send_line:level <- $r1
	@DEBUG_VALUE: debug_send_line:file <- $r2
	@DEBUG_VALUE: debug_send_line:file <- $r2
	@DEBUG_VALUE: debug_send_line:line <- $r3
	@DEBUG_VALUE: debug_send_line:line <- $r3
	.save	{r4, r5, r7, lr}
	push	{r4, r5, r7, lr}
	.cfi_def_cfa_offset 16
	.cfi_offset lr, -4
	.cfi_offset r7, -8
	.cfi_offset r5, -12
	.cfi_offset r4, -16
	.pad	#8
	sub	sp, #8
	.cfi_def_cfa_offset 24
.Ltmp18:
	@DEBUG_VALUE: debug_send_line:str <- [DW_OP_plus_uconst 24] [$sp+0]
	.loc	1 78 10 prologue_end            @ ../../../ThirdParty/mbedTLS/library/debug.c:78:10
	ldr	r0, [r0]
.Ltmp19:
	@DEBUG_VALUE: debug_send_line:ssl <- [DW_OP_LLVM_entry_value 1] $r0
	.loc	1 78 16 is_stmt 0               @ ../../../ThirdParty/mbedTLS/library/debug.c:78:16
	ldr	r4, [r0, #16]
	.loc	1 78 34                         @ ../../../ThirdParty/mbedTLS/library/debug.c:78:34
	ldr	r0, [r0, #20]
	ldr	r5, [sp, #24]
	.loc	1 78 5                          @ ../../../ThirdParty/mbedTLS/library/debug.c:78:5
	str	r5, [sp]
	@DEBUG_VALUE: debug_send_line:line <- $r3
	@DEBUG_VALUE: debug_send_line:file <- $r2
	@DEBUG_VALUE: debug_send_line:level <- $r1
	blx	r4
.Ltmp20:
	@DEBUG_VALUE: debug_send_line:line <- [DW_OP_LLVM_entry_value 1] $r3
	@DEBUG_VALUE: debug_send_line:file <- [DW_OP_LLVM_entry_value 1] $r2
	@DEBUG_VALUE: debug_send_line:level <- [DW_OP_LLVM_entry_value 1] $r1
	.loc	1 80 1 is_stmt 1                @ ../../../ThirdParty/mbedTLS/library/debug.c:80:1
	add	sp, #8
.Ltmp21:
	pop	{r4, r5, r7, pc}
.Ltmp22:
.Lfunc_end2:
	.size	debug_send_line, .Lfunc_end2-debug_send_line
	.cfi_endproc
	.cantunwind
	.fnend
                                        @ -- End function
	.section	.text.mbedtls_debug_print_ret,"ax",%progbits
	.hidden	mbedtls_debug_print_ret         @ -- Begin function mbedtls_debug_print_ret
	.globl	mbedtls_debug_print_ret
	.p2align	2
	.type	mbedtls_debug_print_ret,%function
	.code	16                              @ @mbedtls_debug_print_ret
	.thumb_func
mbedtls_debug_print_ret:
.Lfunc_begin3:
	.loc	1 109 0                         @ ../../../ThirdParty/mbedTLS/library/debug.c:109:0
	.fnstart
	.cfi_startproc
@ %bb.0:
	@DEBUG_VALUE: mbedtls_debug_print_ret:ssl <- $r0
	@DEBUG_VALUE: mbedtls_debug_print_ret:level <- $r1
	@DEBUG_VALUE: mbedtls_debug_print_ret:file <- $r2
	@DEBUG_VALUE: mbedtls_debug_print_ret:line <- $r3
	.save	{r4, r5, r6, r7, lr}
	push	{r4, r5, r6, r7, lr}
	.cfi_def_cfa_offset 20
	.cfi_offset lr, -4
	.cfi_offset r7, -8
	.cfi_offset r6, -12
	.cfi_offset r5, -16
	.cfi_offset r4, -20
	.pad	#508
	sub	sp, #508
	.pad	#16
	sub	sp, #16
	.cfi_def_cfa_offset 544
	mov	r6, r1
.Ltmp23:
	@DEBUG_VALUE: mbedtls_debug_print_ret:ret <- [DW_OP_plus_uconst 548] [$sp+0]
	@DEBUG_VALUE: mbedtls_debug_print_ret:text <- [DW_OP_plus_uconst 544] [$sp+0]
	@DEBUG_VALUE: mbedtls_debug_print_ret:line <- $r3
	@DEBUG_VALUE: mbedtls_debug_print_ret:file <- $r2
	@DEBUG_VALUE: mbedtls_debug_print_ret:level <- $r6
	@DEBUG_VALUE: mbedtls_debug_print_ret:ssl <- $r0
	.loc	1 112 14 prologue_end           @ ../../../ThirdParty/mbedTLS/library/debug.c:112:14
	ldr	r1, [r0]
	.loc	1 112 27 is_stmt 0              @ ../../../ThirdParty/mbedTLS/library/debug.c:112:27
	cbz	r1, .LBB3_5
.Ltmp24:
@ %bb.1:
	@DEBUG_VALUE: mbedtls_debug_print_ret:level <- $r6
	@DEBUG_VALUE: mbedtls_debug_print_ret:line <- $r3
	@DEBUG_VALUE: mbedtls_debug_print_ret:file <- $r2
	@DEBUG_VALUE: mbedtls_debug_print_ret:ssl <- $r0
	@DEBUG_VALUE: mbedtls_debug_print_ret:text <- [DW_OP_plus_uconst 544] [$sp+0]
	@DEBUG_VALUE: mbedtls_debug_print_ret:ret <- [DW_OP_plus_uconst 548] [$sp+0]
	.loc	1 0 27                          @ ../../../ThirdParty/mbedTLS/library/debug.c:0:27
	mov	r5, r2
.Ltmp25:
	@DEBUG_VALUE: mbedtls_debug_print_ret:file <- $r5
	mov	r7, r0
.Ltmp26:
	@DEBUG_VALUE: mbedtls_debug_print_ret:ssl <- $r7
	ldr	r0, [sp, #548]
	ldr	r2, __arm_cp.3_1
	.loc	1 112 55                        @ ../../../ThirdParty/mbedTLS/library/debug.c:112:55
	cmp	r0, r2
	beq	.LBB3_5
.Ltmp27:
@ %bb.2:
	@DEBUG_VALUE: mbedtls_debug_print_ret:ssl <- $r7
	@DEBUG_VALUE: mbedtls_debug_print_ret:level <- $r6
	@DEBUG_VALUE: mbedtls_debug_print_ret:file <- $r5
	@DEBUG_VALUE: mbedtls_debug_print_ret:line <- $r3
	@DEBUG_VALUE: mbedtls_debug_print_ret:text <- [DW_OP_plus_uconst 544] [$sp+0]
	@DEBUG_VALUE: mbedtls_debug_print_ret:ret <- [DW_OP_plus_uconst 548] [$sp+0]
	.loc	1 0 0                           @ ../../../ThirdParty/mbedTLS/library/debug.c:0:0
	ldr	r1, [r1, #16]
	.loc	1 112 55                        @ ../../../ThirdParty/mbedTLS/library/debug.c:112:55
	cbz	r1, .LBB3_5
.Ltmp28:
@ %bb.3:
	@DEBUG_VALUE: mbedtls_debug_print_ret:ssl <- $r7
	@DEBUG_VALUE: mbedtls_debug_print_ret:level <- $r6
	@DEBUG_VALUE: mbedtls_debug_print_ret:file <- $r5
	@DEBUG_VALUE: mbedtls_debug_print_ret:line <- $r3
	@DEBUG_VALUE: mbedtls_debug_print_ret:text <- [DW_OP_plus_uconst 544] [$sp+0]
	@DEBUG_VALUE: mbedtls_debug_print_ret:ret <- [DW_OP_plus_uconst 548] [$sp+0]
	.loc	1 0 55                          @ ../../../ThirdParty/mbedTLS/library/debug.c:0:55
	ldr	r1, __arm_cp.3_0
	ldr	r1, [r1]
	.loc	1 112 55                        @ ../../../ThirdParty/mbedTLS/library/debug.c:112:55
	cmp	r1, r6
	blt	.LBB3_5
.Ltmp29:
@ %bb.4:
	@DEBUG_VALUE: mbedtls_debug_print_ret:ssl <- $r7
	@DEBUG_VALUE: mbedtls_debug_print_ret:level <- $r6
	@DEBUG_VALUE: mbedtls_debug_print_ret:file <- $r5
	@DEBUG_VALUE: mbedtls_debug_print_ret:line <- $r3
	@DEBUG_VALUE: mbedtls_debug_print_ret:text <- [DW_OP_plus_uconst 544] [$sp+0]
	@DEBUG_VALUE: mbedtls_debug_print_ret:ret <- [DW_OP_plus_uconst 548] [$sp+0]
	.loc	1 0 55                          @ ../../../ThirdParty/mbedTLS/library/debug.c:0:55
	str	r3, [sp, #8]                    @ 4-byte Spill
.Ltmp30:
	@DEBUG_VALUE: mbedtls_debug_print_ret:line <- [DW_OP_plus_uconst 8] [$sp+0]
	ldr	r3, [sp, #544]
	.loc	1 124 34 is_stmt 1              @ ../../../ThirdParty/mbedTLS/library/debug.c:124:34
	rsbs	r1, r0, #0
	.loc	1 123 5                         @ ../../../ThirdParty/mbedTLS/library/debug.c:123:5
	str	r0, [sp]
	str	r1, [sp, #4]
	add	r4, sp, #12
	adr	r2, .LCPI3_2
	mov	r0, r4
	movw	r1, #512
	bl	__2snprintf
	.loc	1 126 5                         @ ../../../ThirdParty/mbedTLS/library/debug.c:126:5
	str	r4, [sp]
	mov	r0, r7
	mov	r1, r6
	mov	r2, r5
	ldr	r3, [sp, #8]                    @ 4-byte Reload
.Ltmp31:
	@DEBUG_VALUE: mbedtls_debug_print_ret:line <- $r3
	bl	debug_send_line
.Ltmp32:
	@DEBUG_VALUE: mbedtls_debug_print_ret:line <- [DW_OP_LLVM_entry_value 1] $r3
.LBB3_5:
	@DEBUG_VALUE: mbedtls_debug_print_ret:level <- $r6
	@DEBUG_VALUE: mbedtls_debug_print_ret:text <- [DW_OP_plus_uconst 544] [$sp+0]
	@DEBUG_VALUE: mbedtls_debug_print_ret:ret <- [DW_OP_plus_uconst 548] [$sp+0]
	.loc	1 127 1                         @ ../../../ThirdParty/mbedTLS/library/debug.c:127:1
	add	sp, #508
.Ltmp33:
	add	sp, #16
	pop	{r4, r5, r6, r7, pc}
.Ltmp34:
	.p2align	2
@ %bb.6:
	.loc	1 0 1 is_stmt 0                 @ ../../../ThirdParty/mbedTLS/library/debug.c:0:1
__arm_cp.3_0:
	.long	debug_threshold
.Lcpi_end3:
	.size	__arm_cp.3_0, .Lcpi_end3-__arm_cp.3_0
__arm_cp.3_1:
	.long	4294940416                      @ 0xffff9700
.Lcpi_end4:
	.size	__arm_cp.3_1, .Lcpi_end4-__arm_cp.3_1
.LCPI3_2:
.L.str:
	.asciz	"%s() returned %d (-0x%04x)\n"
.Lfunc_end3:
	.size	mbedtls_debug_print_ret, .Lfunc_end3-mbedtls_debug_print_ret
	.cfi_endproc
	.cantunwind
	.fnend
                                        @ -- End function
	.section	.text.mbedtls_debug_print_buf,"ax",%progbits
	.hidden	mbedtls_debug_print_buf         @ -- Begin function mbedtls_debug_print_buf
	.globl	mbedtls_debug_print_buf
	.p2align	2
	.type	mbedtls_debug_print_buf,%function
	.code	16                              @ @mbedtls_debug_print_buf
	.thumb_func
mbedtls_debug_print_buf:
.Lfunc_begin4:
	.loc	1 132 0 is_stmt 1               @ ../../../ThirdParty/mbedTLS/library/debug.c:132:0
	.fnstart
	.cfi_startproc
@ %bb.0:
	@DEBUG_VALUE: mbedtls_debug_print_buf:ssl <- $r0
	@DEBUG_VALUE: mbedtls_debug_print_buf:level <- $r1
	@DEBUG_VALUE: mbedtls_debug_print_buf:file <- $r2
	@DEBUG_VALUE: mbedtls_debug_print_buf:line <- $r3
	.save	{r4, r5, r6, r7, lr}
	push	{r4, r5, r6, r7, lr}
	.cfi_def_cfa_offset 20
	.cfi_offset lr, -4
	.cfi_offset r7, -8
	.cfi_offset r6, -12
	.cfi_offset r5, -16
	.cfi_offset r4, -20
	.pad	#508
	sub	sp, #508
	.pad	#64
	sub	sp, #64
	.cfi_def_cfa_offset 592
	str	r1, [sp, #24]                   @ 4-byte Spill
	add	r1, sp, #12
.Ltmp35:
	@DEBUG_VALUE: mbedtls_debug_print_buf:level <- [DW_OP_LLVM_entry_value 1] $r1
	stm	r1!, {r0, r2, r3}               @ 12-byte Folded Spill
.Ltmp36:
	@DEBUG_VALUE: mbedtls_debug_print_buf:idx <- 0
	@DEBUG_VALUE: mbedtls_debug_print_buf:len <- [DW_OP_plus_uconst 600] [$sp+0]
	@DEBUG_VALUE: mbedtls_debug_print_buf:buf <- [DW_OP_plus_uconst 596] [$sp+0]
	@DEBUG_VALUE: mbedtls_debug_print_buf:text <- [DW_OP_plus_uconst 592] [$sp+0]
	@DEBUG_VALUE: mbedtls_debug_print_buf:line <- [DW_OP_plus_uconst 20] [$sp+0]
	@DEBUG_VALUE: mbedtls_debug_print_buf:file <- [DW_OP_plus_uconst 16] [$sp+0]
	@DEBUG_VALUE: mbedtls_debug_print_buf:level <- [DW_OP_plus_uconst 24] [$sp+0]
	@DEBUG_VALUE: mbedtls_debug_print_buf:ssl <- [DW_OP_plus_uconst 12] [$sp+0]
	.loc	1 137 14 prologue_end           @ ../../../ThirdParty/mbedTLS/library/debug.c:137:14
	ldr	r0, [r0]
	.loc	1 137 27 is_stmt 0              @ ../../../ThirdParty/mbedTLS/library/debug.c:137:27
	cmp	r0, #0
	bne	.LBB4_1
	b	.LBB4_20
.Ltmp37:
.LBB4_1:
	@DEBUG_VALUE: mbedtls_debug_print_buf:ssl <- [DW_OP_plus_uconst 12] [$sp+0]
	@DEBUG_VALUE: mbedtls_debug_print_buf:level <- [DW_OP_plus_uconst 24] [$sp+0]
	@DEBUG_VALUE: mbedtls_debug_print_buf:file <- [DW_OP_plus_uconst 16] [$sp+0]
	@DEBUG_VALUE: mbedtls_debug_print_buf:line <- [DW_OP_plus_uconst 20] [$sp+0]
	@DEBUG_VALUE: mbedtls_debug_print_buf:text <- [DW_OP_plus_uconst 592] [$sp+0]
	@DEBUG_VALUE: mbedtls_debug_print_buf:buf <- [DW_OP_plus_uconst 596] [$sp+0]
	@DEBUG_VALUE: mbedtls_debug_print_buf:len <- [DW_OP_plus_uconst 600] [$sp+0]
	@DEBUG_VALUE: mbedtls_debug_print_buf:idx <- 0
	.loc	1 137 41                        @ ../../../ThirdParty/mbedTLS/library/debug.c:137:41
	ldr	r0, [r0, #16]
	.loc	1 137 55                        @ ../../../ThirdParty/mbedTLS/library/debug.c:137:55
	cmp	r0, #0
	bne	.LBB4_2
	b	.LBB4_20
.Ltmp38:
.LBB4_2:
	@DEBUG_VALUE: mbedtls_debug_print_buf:ssl <- [DW_OP_plus_uconst 12] [$sp+0]
	@DEBUG_VALUE: mbedtls_debug_print_buf:level <- [DW_OP_plus_uconst 24] [$sp+0]
	@DEBUG_VALUE: mbedtls_debug_print_buf:file <- [DW_OP_plus_uconst 16] [$sp+0]
	@DEBUG_VALUE: mbedtls_debug_print_buf:line <- [DW_OP_plus_uconst 20] [$sp+0]
	@DEBUG_VALUE: mbedtls_debug_print_buf:text <- [DW_OP_plus_uconst 592] [$sp+0]
	@DEBUG_VALUE: mbedtls_debug_print_buf:buf <- [DW_OP_plus_uconst 596] [$sp+0]
	@DEBUG_VALUE: mbedtls_debug_print_buf:len <- [DW_OP_plus_uconst 600] [$sp+0]
	@DEBUG_VALUE: mbedtls_debug_print_buf:idx <- 0
	.loc	1 0 55                          @ ../../../ThirdParty/mbedTLS/library/debug.c:0:55
	ldr	r0, __arm_cp.4_0
	ldr	r0, [r0]
	.loc	1 137 55                        @ ../../../ThirdParty/mbedTLS/library/debug.c:137:55
	ldr	r1, [sp, #24]                   @ 4-byte Reload
	cmp	r0, r1
	bge	.LBB4_3
	b	.LBB4_20
.Ltmp39:
.LBB4_3:
	@DEBUG_VALUE: mbedtls_debug_print_buf:ssl <- [DW_OP_plus_uconst 12] [$sp+0]
	@DEBUG_VALUE: mbedtls_debug_print_buf:level <- [DW_OP_plus_uconst 24] [$sp+0]
	@DEBUG_VALUE: mbedtls_debug_print_buf:file <- [DW_OP_plus_uconst 16] [$sp+0]
	@DEBUG_VALUE: mbedtls_debug_print_buf:line <- [DW_OP_plus_uconst 20] [$sp+0]
	@DEBUG_VALUE: mbedtls_debug_print_buf:text <- [DW_OP_plus_uconst 592] [$sp+0]
	@DEBUG_VALUE: mbedtls_debug_print_buf:buf <- [DW_OP_plus_uconst 596] [$sp+0]
	@DEBUG_VALUE: mbedtls_debug_print_buf:len <- [DW_OP_plus_uconst 600] [$sp+0]
	@DEBUG_VALUE: mbedtls_debug_print_buf:idx <- 0
	.loc	1 0 55                          @ ../../../ThirdParty/mbedTLS/library/debug.c:0:55
	ldr	r5, [sp, #600]
	ldr	r3, [sp, #592]
	.loc	1 140 5 is_stmt 1               @ ../../../ThirdParty/mbedTLS/library/debug.c:140:5
	str	r5, [sp]
	add	r4, sp, #60
	adr	r2, .LCPI4_1
	mov	r0, r4
	movw	r1, #512
	bl	__2snprintf
	.loc	1 143 5                         @ ../../../ThirdParty/mbedTLS/library/debug.c:143:5
	str	r4, [sp]
	ldr	r1, [sp, #24]                   @ 4-byte Reload
	add	r3, sp, #12
	ldm	r3, {r0, r2, r3}                @ 12-byte Folded Reload
	bl	debug_send_line
	add	r0, sp, #40
	movs	r4, #0
	@DEBUG_VALUE: mbedtls_debug_print_buf:idx <- 0
	.loc	1 146 5                         @ ../../../ThirdParty/mbedTLS/library/debug.c:146:5
	strb	r4, [r0, #16]
	str	r4, [sp, #52]
	str	r4, [sp, #48]
	str	r4, [sp, #44]
	str	r4, [sp, #40]
.Ltmp40:
	@DEBUG_VALUE: mbedtls_debug_print_buf:i <- 0
	.loc	1 0 5 is_stmt 0                 @ ../../../ThirdParty/mbedTLS/library/debug.c:0:5
	str	r5, [sp, #4]                    @ 4-byte Spill
.Ltmp41:
	.loc	1 147 5 is_stmt 1               @ ../../../ThirdParty/mbedTLS/library/debug.c:147:5
	cmp	r5, #0
.Ltmp42:
	.loc	1 0 0 is_stmt 0                 @ ../../../ThirdParty/mbedTLS/library/debug.c:0:0
	mov	r6, r4
.Ltmp43:
	.loc	1 147 5                         @ ../../../ThirdParty/mbedTLS/library/debug.c:147:5
	beq	.LBB4_14
.Ltmp44:
@ %bb.4:
	@DEBUG_VALUE: mbedtls_debug_print_buf:ssl <- [DW_OP_plus_uconst 12] [$sp+0]
	@DEBUG_VALUE: mbedtls_debug_print_buf:level <- [DW_OP_plus_uconst 24] [$sp+0]
	@DEBUG_VALUE: mbedtls_debug_print_buf:file <- [DW_OP_plus_uconst 16] [$sp+0]
	@DEBUG_VALUE: mbedtls_debug_print_buf:line <- [DW_OP_plus_uconst 20] [$sp+0]
	@DEBUG_VALUE: mbedtls_debug_print_buf:text <- [DW_OP_plus_uconst 592] [$sp+0]
	@DEBUG_VALUE: mbedtls_debug_print_buf:buf <- [DW_OP_plus_uconst 596] [$sp+0]
	@DEBUG_VALUE: mbedtls_debug_print_buf:len <- [DW_OP_plus_uconst 600] [$sp+0]
	@DEBUG_VALUE: mbedtls_debug_print_buf:i <- 0
	@DEBUG_VALUE: mbedtls_debug_print_buf:idx <- 0
	.loc	1 0 5                           @ ../../../ThirdParty/mbedTLS/library/debug.c:0:5
	ldr	r2, [sp, #4]                    @ 4-byte Reload
	.loc	1 147 5                         @ ../../../ThirdParty/mbedTLS/library/debug.c:147:5
	subs	r1, r2, #1
	ldr	r0, __arm_cp.4_2
	cmp	r1, r0
	str	r2, [sp, #36]                   @ 4-byte Spill
	blo	.LBB4_6
.Ltmp45:
@ %bb.5:
	@DEBUG_VALUE: mbedtls_debug_print_buf:ssl <- [DW_OP_plus_uconst 12] [$sp+0]
	@DEBUG_VALUE: mbedtls_debug_print_buf:level <- [DW_OP_plus_uconst 24] [$sp+0]
	@DEBUG_VALUE: mbedtls_debug_print_buf:file <- [DW_OP_plus_uconst 16] [$sp+0]
	@DEBUG_VALUE: mbedtls_debug_print_buf:line <- [DW_OP_plus_uconst 20] [$sp+0]
	@DEBUG_VALUE: mbedtls_debug_print_buf:text <- [DW_OP_plus_uconst 592] [$sp+0]
	@DEBUG_VALUE: mbedtls_debug_print_buf:buf <- [DW_OP_plus_uconst 596] [$sp+0]
	@DEBUG_VALUE: mbedtls_debug_print_buf:len <- [DW_OP_plus_uconst 600] [$sp+0]
	@DEBUG_VALUE: mbedtls_debug_print_buf:i <- 0
	@DEBUG_VALUE: mbedtls_debug_print_buf:idx <- 0
	.loc	1 0 5                           @ ../../../ThirdParty/mbedTLS/library/debug.c:0:5
	adds	r0, r0, #1
	str	r0, [sp, #36]                   @ 4-byte Spill
.Ltmp46:
.LBB4_6:
	@DEBUG_VALUE: mbedtls_debug_print_buf:ssl <- [DW_OP_plus_uconst 12] [$sp+0]
	@DEBUG_VALUE: mbedtls_debug_print_buf:level <- [DW_OP_plus_uconst 24] [$sp+0]
	@DEBUG_VALUE: mbedtls_debug_print_buf:file <- [DW_OP_plus_uconst 16] [$sp+0]
	@DEBUG_VALUE: mbedtls_debug_print_buf:line <- [DW_OP_plus_uconst 20] [$sp+0]
	@DEBUG_VALUE: mbedtls_debug_print_buf:text <- [DW_OP_plus_uconst 592] [$sp+0]
	@DEBUG_VALUE: mbedtls_debug_print_buf:buf <- [DW_OP_plus_uconst 596] [$sp+0]
	@DEBUG_VALUE: mbedtls_debug_print_buf:len <- [DW_OP_plus_uconst 600] [$sp+0]
	@DEBUG_VALUE: mbedtls_debug_print_buf:i <- 0
	@DEBUG_VALUE: mbedtls_debug_print_buf:idx <- 0
	ldr	r0, [sp, #596]
	str	r0, [sp, #32]                   @ 4-byte Spill
	movs	r4, #0
	movs	r0, #15
	str	r0, [sp, #28]                   @ 4-byte Spill
	mov	r6, r4
	str	r4, [sp, #8]                    @ 4-byte Spill
	b	.LBB4_8
.Ltmp47:
.LBB4_7:                                @   in Loop: Header=BB4_8 Depth=1
	@DEBUG_VALUE: mbedtls_debug_print_buf:idx <- $r6
	@DEBUG_VALUE: mbedtls_debug_print_buf:i <- $r4
	@DEBUG_VALUE: mbedtls_debug_print_buf:ssl <- [DW_OP_plus_uconst 12] [$sp+0]
	@DEBUG_VALUE: mbedtls_debug_print_buf:level <- [DW_OP_plus_uconst 24] [$sp+0]
	@DEBUG_VALUE: mbedtls_debug_print_buf:file <- [DW_OP_plus_uconst 16] [$sp+0]
	@DEBUG_VALUE: mbedtls_debug_print_buf:line <- [DW_OP_plus_uconst 20] [$sp+0]
	@DEBUG_VALUE: mbedtls_debug_print_buf:text <- [DW_OP_plus_uconst 592] [$sp+0]
	@DEBUG_VALUE: mbedtls_debug_print_buf:buf <- [DW_OP_plus_uconst 596] [$sp+0]
	@DEBUG_VALUE: mbedtls_debug_print_buf:len <- [DW_OP_plus_uconst 600] [$sp+0]
	add	r2, sp, #40
.Ltmp48:
	.loc	1 170 21 is_stmt 1              @ ../../../ThirdParty/mbedTLS/library/debug.c:170:21
	strb	r1, [r2, r5]
	.loc	1 168 13                        @ ../../../ThirdParty/mbedTLS/library/debug.c:168:13
	adds	r6, r0, r6
.Ltmp49:
	@DEBUG_VALUE: mbedtls_debug_print_buf:idx <- $r6
	.loc	1 147 27                        @ ../../../ThirdParty/mbedTLS/library/debug.c:147:27
	adds	r4, r4, #1
.Ltmp50:
	@DEBUG_VALUE: mbedtls_debug_print_buf:i <- $r4
	.loc	1 147 5 is_stmt 0               @ ../../../ThirdParty/mbedTLS/library/debug.c:147:5
	ldr	r0, [sp, #36]                   @ 4-byte Reload
	cmp	r0, r4
	beq	.LBB4_14
.Ltmp51:
.LBB4_8:                                @ =>This Inner Loop Header: Depth=1
	@DEBUG_VALUE: mbedtls_debug_print_buf:ssl <- [DW_OP_plus_uconst 12] [$sp+0]
	@DEBUG_VALUE: mbedtls_debug_print_buf:level <- [DW_OP_plus_uconst 24] [$sp+0]
	@DEBUG_VALUE: mbedtls_debug_print_buf:file <- [DW_OP_plus_uconst 16] [$sp+0]
	@DEBUG_VALUE: mbedtls_debug_print_buf:line <- [DW_OP_plus_uconst 20] [$sp+0]
	@DEBUG_VALUE: mbedtls_debug_print_buf:text <- [DW_OP_plus_uconst 592] [$sp+0]
	@DEBUG_VALUE: mbedtls_debug_print_buf:buf <- [DW_OP_plus_uconst 596] [$sp+0]
	@DEBUG_VALUE: mbedtls_debug_print_buf:len <- [DW_OP_plus_uconst 600] [$sp+0]
	@DEBUG_VALUE: mbedtls_debug_print_buf:idx <- $r6
	@DEBUG_VALUE: mbedtls_debug_print_buf:i <- $r4
	.loc	1 152 15 is_stmt 1              @ ../../../ThirdParty/mbedTLS/library/debug.c:152:15
	mov	r5, r4
	ldr	r0, [sp, #28]                   @ 4-byte Reload
	ands	r5, r0
.Ltmp52:
	.loc	1 152 13 is_stmt 0              @ ../../../ThirdParty/mbedTLS/library/debug.c:152:13
	bne	.LBB4_12
.Ltmp53:
@ %bb.9:                                @   in Loop: Header=BB4_8 Depth=1
	@DEBUG_VALUE: mbedtls_debug_print_buf:idx <- $r6
	@DEBUG_VALUE: mbedtls_debug_print_buf:i <- $r4
	@DEBUG_VALUE: mbedtls_debug_print_buf:ssl <- [DW_OP_plus_uconst 12] [$sp+0]
	@DEBUG_VALUE: mbedtls_debug_print_buf:level <- [DW_OP_plus_uconst 24] [$sp+0]
	@DEBUG_VALUE: mbedtls_debug_print_buf:file <- [DW_OP_plus_uconst 16] [$sp+0]
	@DEBUG_VALUE: mbedtls_debug_print_buf:line <- [DW_OP_plus_uconst 20] [$sp+0]
	@DEBUG_VALUE: mbedtls_debug_print_buf:text <- [DW_OP_plus_uconst 592] [$sp+0]
	@DEBUG_VALUE: mbedtls_debug_print_buf:buf <- [DW_OP_plus_uconst 596] [$sp+0]
	@DEBUG_VALUE: mbedtls_debug_print_buf:len <- [DW_OP_plus_uconst 600] [$sp+0]
	.loc	1 154 17 is_stmt 1              @ ../../../ThirdParty/mbedTLS/library/debug.c:154:17
	cbz	r4, .LBB4_11
.Ltmp54:
@ %bb.10:                               @   in Loop: Header=BB4_8 Depth=1
	@DEBUG_VALUE: mbedtls_debug_print_buf:idx <- $r6
	@DEBUG_VALUE: mbedtls_debug_print_buf:i <- $r4
	@DEBUG_VALUE: mbedtls_debug_print_buf:ssl <- [DW_OP_plus_uconst 12] [$sp+0]
	@DEBUG_VALUE: mbedtls_debug_print_buf:level <- [DW_OP_plus_uconst 24] [$sp+0]
	@DEBUG_VALUE: mbedtls_debug_print_buf:file <- [DW_OP_plus_uconst 16] [$sp+0]
	@DEBUG_VALUE: mbedtls_debug_print_buf:line <- [DW_OP_plus_uconst 20] [$sp+0]
	@DEBUG_VALUE: mbedtls_debug_print_buf:text <- [DW_OP_plus_uconst 592] [$sp+0]
	@DEBUG_VALUE: mbedtls_debug_print_buf:buf <- [DW_OP_plus_uconst 596] [$sp+0]
	@DEBUG_VALUE: mbedtls_debug_print_buf:len <- [DW_OP_plus_uconst 600] [$sp+0]
	.loc	1 0 17 is_stmt 0                @ ../../../ThirdParty/mbedTLS/library/debug.c:0:17
	add	r7, sp, #60
.Ltmp55:
	.loc	1 156 39 is_stmt 1              @ ../../../ThirdParty/mbedTLS/library/debug.c:156:39
	adds	r0, r7, r6
	movw	r1, #512
	.loc	1 156 60 is_stmt 0              @ ../../../ThirdParty/mbedTLS/library/debug.c:156:60
	subs	r1, r1, r6
	add	r6, sp, #40
.Ltmp56:
	.loc	1 156 17                        @ ../../../ThirdParty/mbedTLS/library/debug.c:156:17
	ldr	r2, __arm_cp.4_3
	mov	r3, r6
	bl	__2snprintf
	.loc	1 157 17 is_stmt 1              @ ../../../ThirdParty/mbedTLS/library/debug.c:157:17
	str	r7, [sp]
	ldr	r1, [sp, #24]                   @ 4-byte Reload
	add	r3, sp, #12
	ldm	r3, {r0, r2, r3}                @ 12-byte Folded Reload
	bl	debug_send_line
.Ltmp57:
	@DEBUG_VALUE: mbedtls_debug_print_buf:idx <- 0
	.loc	1 0 17 is_stmt 0                @ ../../../ThirdParty/mbedTLS/library/debug.c:0:17
	ldr	r0, [sp, #8]                    @ 4-byte Reload
	.loc	1 160 17 is_stmt 1              @ ../../../ThirdParty/mbedTLS/library/debug.c:160:17
	strb	r0, [r6, #16]
	str	r0, [sp, #52]
	str	r0, [sp, #48]
	str	r0, [sp, #44]
	str	r0, [sp, #40]
.Ltmp58:
	.loc	1 0 0 is_stmt 0                 @ ../../../ThirdParty/mbedTLS/library/debug.c:0:0
	mov	r6, r0
.Ltmp59:
.LBB4_11:                               @   in Loop: Header=BB4_8 Depth=1
	@DEBUG_VALUE: mbedtls_debug_print_buf:i <- $r4
	@DEBUG_VALUE: mbedtls_debug_print_buf:ssl <- [DW_OP_plus_uconst 12] [$sp+0]
	@DEBUG_VALUE: mbedtls_debug_print_buf:level <- [DW_OP_plus_uconst 24] [$sp+0]
	@DEBUG_VALUE: mbedtls_debug_print_buf:file <- [DW_OP_plus_uconst 16] [$sp+0]
	@DEBUG_VALUE: mbedtls_debug_print_buf:line <- [DW_OP_plus_uconst 20] [$sp+0]
	@DEBUG_VALUE: mbedtls_debug_print_buf:text <- [DW_OP_plus_uconst 592] [$sp+0]
	@DEBUG_VALUE: mbedtls_debug_print_buf:buf <- [DW_OP_plus_uconst 596] [$sp+0]
	@DEBUG_VALUE: mbedtls_debug_print_buf:len <- [DW_OP_plus_uconst 600] [$sp+0]
	@DEBUG_VALUE: mbedtls_debug_print_buf:idx <- $r6
	add	r0, sp, #60
.Ltmp60:
	.loc	1 163 42 is_stmt 1              @ ../../../ThirdParty/mbedTLS/library/debug.c:163:42
	adds	r0, r0, r6
	movw	r1, #512
	.loc	1 163 63 is_stmt 0              @ ../../../ThirdParty/mbedTLS/library/debug.c:163:63
	subs	r1, r1, r6
	.loc	1 163 20                        @ ../../../ThirdParty/mbedTLS/library/debug.c:163:20
	adr	r2, .LCPI4_4
	mov	r3, r4
	bl	__2snprintf
	.loc	1 163 17                        @ ../../../ThirdParty/mbedTLS/library/debug.c:163:17
	adds	r6, r0, r6
.Ltmp61:
.LBB4_12:                               @   in Loop: Header=BB4_8 Depth=1
	@DEBUG_VALUE: mbedtls_debug_print_buf:i <- $r4
	@DEBUG_VALUE: mbedtls_debug_print_buf:ssl <- [DW_OP_plus_uconst 12] [$sp+0]
	@DEBUG_VALUE: mbedtls_debug_print_buf:level <- [DW_OP_plus_uconst 24] [$sp+0]
	@DEBUG_VALUE: mbedtls_debug_print_buf:file <- [DW_OP_plus_uconst 16] [$sp+0]
	@DEBUG_VALUE: mbedtls_debug_print_buf:line <- [DW_OP_plus_uconst 20] [$sp+0]
	@DEBUG_VALUE: mbedtls_debug_print_buf:text <- [DW_OP_plus_uconst 592] [$sp+0]
	@DEBUG_VALUE: mbedtls_debug_print_buf:buf <- [DW_OP_plus_uconst 596] [$sp+0]
	@DEBUG_VALUE: mbedtls_debug_print_buf:len <- [DW_OP_plus_uconst 600] [$sp+0]
	@DEBUG_VALUE: mbedtls_debug_print_buf:idx <- $r6
	.loc	1 0 17                          @ ../../../ThirdParty/mbedTLS/library/debug.c:0:17
	ldr	r7, [sp, #32]                   @ 4-byte Reload
	.loc	1 169 49 is_stmt 1              @ ../../../ThirdParty/mbedTLS/library/debug.c:169:49
	ldrb	r3, [r7, r4]
	add	r0, sp, #60
	.loc	1 168 38                        @ ../../../ThirdParty/mbedTLS/library/debug.c:168:38
	adds	r0, r0, r6
	movw	r1, #512
	.loc	1 168 59 is_stmt 0              @ ../../../ThirdParty/mbedTLS/library/debug.c:168:59
	subs	r1, r1, r6
	.loc	1 168 16                        @ ../../../ThirdParty/mbedTLS/library/debug.c:168:16
	ldr	r2, __arm_cp.4_5
	bl	__2snprintf
	.loc	1 170 25 is_stmt 1              @ ../../../ThirdParty/mbedTLS/library/debug.c:170:25
	ldrb	r1, [r7, r4]
	.loc	1 170 37 is_stmt 0              @ ../../../ThirdParty/mbedTLS/library/debug.c:170:37
	mov	r2, r1
	subs	r2, #32
	cmp	r2, #95
	blo	.LBB4_7
.Ltmp62:
@ %bb.13:                               @   in Loop: Header=BB4_8 Depth=1
	@DEBUG_VALUE: mbedtls_debug_print_buf:idx <- $r6
	@DEBUG_VALUE: mbedtls_debug_print_buf:i <- $r4
	@DEBUG_VALUE: mbedtls_debug_print_buf:ssl <- [DW_OP_plus_uconst 12] [$sp+0]
	@DEBUG_VALUE: mbedtls_debug_print_buf:level <- [DW_OP_plus_uconst 24] [$sp+0]
	@DEBUG_VALUE: mbedtls_debug_print_buf:file <- [DW_OP_plus_uconst 16] [$sp+0]
	@DEBUG_VALUE: mbedtls_debug_print_buf:line <- [DW_OP_plus_uconst 20] [$sp+0]
	@DEBUG_VALUE: mbedtls_debug_print_buf:text <- [DW_OP_plus_uconst 592] [$sp+0]
	@DEBUG_VALUE: mbedtls_debug_print_buf:buf <- [DW_OP_plus_uconst 596] [$sp+0]
	@DEBUG_VALUE: mbedtls_debug_print_buf:len <- [DW_OP_plus_uconst 600] [$sp+0]
	.loc	1 0 37                          @ ../../../ThirdParty/mbedTLS/library/debug.c:0:37
	movs	r1, #46
	b	.LBB4_7
.Ltmp63:
.LBB4_14:
	@DEBUG_VALUE: mbedtls_debug_print_buf:ssl <- [DW_OP_plus_uconst 12] [$sp+0]
	@DEBUG_VALUE: mbedtls_debug_print_buf:level <- [DW_OP_plus_uconst 24] [$sp+0]
	@DEBUG_VALUE: mbedtls_debug_print_buf:file <- [DW_OP_plus_uconst 16] [$sp+0]
	@DEBUG_VALUE: mbedtls_debug_print_buf:line <- [DW_OP_plus_uconst 20] [$sp+0]
	@DEBUG_VALUE: mbedtls_debug_print_buf:text <- [DW_OP_plus_uconst 592] [$sp+0]
	@DEBUG_VALUE: mbedtls_debug_print_buf:buf <- [DW_OP_plus_uconst 596] [$sp+0]
	@DEBUG_VALUE: mbedtls_debug_print_buf:len <- [DW_OP_plus_uconst 600] [$sp+0]
	@DEBUG_VALUE: mbedtls_debug_print_buf:idx <- $r6
	@DEBUG_VALUE: mbedtls_debug_print_buf:i <- $r4
	.loc	1 173 9 is_stmt 1               @ ../../../ThirdParty/mbedTLS/library/debug.c:173:9
	ldr	r0, [sp, #4]                    @ 4-byte Reload
	cbz	r0, .LBB4_20
.Ltmp64:
@ %bb.15:
	@DEBUG_VALUE: mbedtls_debug_print_buf:idx <- $r6
	@DEBUG_VALUE: mbedtls_debug_print_buf:i <- $r4
	@DEBUG_VALUE: mbedtls_debug_print_buf:ssl <- [DW_OP_plus_uconst 12] [$sp+0]
	@DEBUG_VALUE: mbedtls_debug_print_buf:level <- [DW_OP_plus_uconst 24] [$sp+0]
	@DEBUG_VALUE: mbedtls_debug_print_buf:file <- [DW_OP_plus_uconst 16] [$sp+0]
	@DEBUG_VALUE: mbedtls_debug_print_buf:line <- [DW_OP_plus_uconst 20] [$sp+0]
	@DEBUG_VALUE: mbedtls_debug_print_buf:text <- [DW_OP_plus_uconst 592] [$sp+0]
	@DEBUG_VALUE: mbedtls_debug_print_buf:buf <- [DW_OP_plus_uconst 596] [$sp+0]
	@DEBUG_VALUE: mbedtls_debug_print_buf:len <- [DW_OP_plus_uconst 600] [$sp+0]
	@DEBUG_VALUE: mbedtls_debug_print_buf:idx <- $r6
	@DEBUG_VALUE: mbedtls_debug_print_buf:i <- $r4
	.loc	1 175 9                         @ ../../../ThirdParty/mbedTLS/library/debug.c:175:9
	lsls	r0, r4, #28
	beq	.LBB4_18
.Ltmp65:
@ %bb.16:
	@DEBUG_VALUE: mbedtls_debug_print_buf:idx <- $r6
	@DEBUG_VALUE: mbedtls_debug_print_buf:i <- $r4
	@DEBUG_VALUE: mbedtls_debug_print_buf:ssl <- [DW_OP_plus_uconst 12] [$sp+0]
	@DEBUG_VALUE: mbedtls_debug_print_buf:level <- [DW_OP_plus_uconst 24] [$sp+0]
	@DEBUG_VALUE: mbedtls_debug_print_buf:file <- [DW_OP_plus_uconst 16] [$sp+0]
	@DEBUG_VALUE: mbedtls_debug_print_buf:line <- [DW_OP_plus_uconst 20] [$sp+0]
	@DEBUG_VALUE: mbedtls_debug_print_buf:text <- [DW_OP_plus_uconst 592] [$sp+0]
	@DEBUG_VALUE: mbedtls_debug_print_buf:buf <- [DW_OP_plus_uconst 596] [$sp+0]
	@DEBUG_VALUE: mbedtls_debug_print_buf:len <- [DW_OP_plus_uconst 600] [$sp+0]
	adds	r5, r4, #1
	adr	r4, .LCPI4_6
.Ltmp66:
.LBB4_17:                               @ =>This Inner Loop Header: Depth=1
	@DEBUG_VALUE: mbedtls_debug_print_buf:idx <- $r6
	@DEBUG_VALUE: mbedtls_debug_print_buf:ssl <- [DW_OP_plus_uconst 12] [$sp+0]
	@DEBUG_VALUE: mbedtls_debug_print_buf:level <- [DW_OP_plus_uconst 24] [$sp+0]
	@DEBUG_VALUE: mbedtls_debug_print_buf:file <- [DW_OP_plus_uconst 16] [$sp+0]
	@DEBUG_VALUE: mbedtls_debug_print_buf:line <- [DW_OP_plus_uconst 20] [$sp+0]
	@DEBUG_VALUE: mbedtls_debug_print_buf:text <- [DW_OP_plus_uconst 592] [$sp+0]
	@DEBUG_VALUE: mbedtls_debug_print_buf:buf <- [DW_OP_plus_uconst 596] [$sp+0]
	@DEBUG_VALUE: mbedtls_debug_print_buf:len <- [DW_OP_plus_uconst 600] [$sp+0]
	@DEBUG_VALUE: mbedtls_debug_print_buf:idx <- $r6
	@DEBUG_VALUE: mbedtls_debug_print_buf:i <- undef
	.loc	1 0 9 is_stmt 0                 @ ../../../ThirdParty/mbedTLS/library/debug.c:0:9
	add	r0, sp, #60
.Ltmp67:
	.loc	1 176 42 is_stmt 1              @ ../../../ThirdParty/mbedTLS/library/debug.c:176:42
	adds	r0, r0, r6
	movw	r1, #512
	.loc	1 176 63 is_stmt 0              @ ../../../ThirdParty/mbedTLS/library/debug.c:176:63
	subs	r1, r1, r6
	.loc	1 176 20                        @ ../../../ThirdParty/mbedTLS/library/debug.c:176:20
	mov	r2, r4
	bl	__2snprintf
	.loc	1 176 17                        @ ../../../ThirdParty/mbedTLS/library/debug.c:176:17
	adds	r6, r0, r6
.Ltmp68:
	@DEBUG_VALUE: mbedtls_debug_print_buf:i <- [DW_OP_plus_uconst 1, DW_OP_stack_value] undef
	@DEBUG_VALUE: mbedtls_debug_print_buf:idx <- $r6
	.loc	1 175 9 is_stmt 1               @ ../../../ThirdParty/mbedTLS/library/debug.c:175:9
	adds	r0, r5, #1
	lsls	r1, r5, #28
	movw	r1, #512
	mov	r5, r0
	bne	.LBB4_17
	b	.LBB4_19
.Ltmp69:
.LBB4_18:
	@DEBUG_VALUE: mbedtls_debug_print_buf:idx <- $r6
	@DEBUG_VALUE: mbedtls_debug_print_buf:i <- $r4
	@DEBUG_VALUE: mbedtls_debug_print_buf:ssl <- [DW_OP_plus_uconst 12] [$sp+0]
	@DEBUG_VALUE: mbedtls_debug_print_buf:level <- [DW_OP_plus_uconst 24] [$sp+0]
	@DEBUG_VALUE: mbedtls_debug_print_buf:file <- [DW_OP_plus_uconst 16] [$sp+0]
	@DEBUG_VALUE: mbedtls_debug_print_buf:line <- [DW_OP_plus_uconst 20] [$sp+0]
	@DEBUG_VALUE: mbedtls_debug_print_buf:text <- [DW_OP_plus_uconst 592] [$sp+0]
	@DEBUG_VALUE: mbedtls_debug_print_buf:buf <- [DW_OP_plus_uconst 596] [$sp+0]
	@DEBUG_VALUE: mbedtls_debug_print_buf:len <- [DW_OP_plus_uconst 600] [$sp+0]
	.loc	1 0 9 is_stmt 0                 @ ../../../ThirdParty/mbedTLS/library/debug.c:0:9
	movw	r1, #512
.Ltmp70:
.LBB4_19:
	@DEBUG_VALUE: mbedtls_debug_print_buf:idx <- $r6
	@DEBUG_VALUE: mbedtls_debug_print_buf:ssl <- [DW_OP_plus_uconst 12] [$sp+0]
	@DEBUG_VALUE: mbedtls_debug_print_buf:level <- [DW_OP_plus_uconst 24] [$sp+0]
	@DEBUG_VALUE: mbedtls_debug_print_buf:file <- [DW_OP_plus_uconst 16] [$sp+0]
	@DEBUG_VALUE: mbedtls_debug_print_buf:line <- [DW_OP_plus_uconst 20] [$sp+0]
	@DEBUG_VALUE: mbedtls_debug_print_buf:text <- [DW_OP_plus_uconst 592] [$sp+0]
	@DEBUG_VALUE: mbedtls_debug_print_buf:buf <- [DW_OP_plus_uconst 596] [$sp+0]
	@DEBUG_VALUE: mbedtls_debug_print_buf:len <- [DW_OP_plus_uconst 600] [$sp+0]
	@DEBUG_VALUE: mbedtls_debug_print_buf:idx <- $r6
	add	r4, sp, #60
	.loc	1 178 31 is_stmt 1              @ ../../../ThirdParty/mbedTLS/library/debug.c:178:31
	adds	r0, r4, r6
	.loc	1 178 52 is_stmt 0              @ ../../../ThirdParty/mbedTLS/library/debug.c:178:52
	subs	r1, r1, r6
	.loc	1 178 9                         @ ../../../ThirdParty/mbedTLS/library/debug.c:178:9
	ldr	r2, __arm_cp.4_3
	add	r3, sp, #40
	bl	__2snprintf
	.loc	1 179 9 is_stmt 1               @ ../../../ThirdParty/mbedTLS/library/debug.c:179:9
	str	r4, [sp]
	ldr	r1, [sp, #24]                   @ 4-byte Reload
	add	r3, sp, #12
	ldm	r3, {r0, r2, r3}                @ 12-byte Folded Reload
	bl	debug_send_line
.Ltmp71:
.LBB4_20:
	@DEBUG_VALUE: mbedtls_debug_print_buf:ssl <- [DW_OP_plus_uconst 12] [$sp+0]
	@DEBUG_VALUE: mbedtls_debug_print_buf:level <- [DW_OP_plus_uconst 24] [$sp+0]
	@DEBUG_VALUE: mbedtls_debug_print_buf:file <- [DW_OP_plus_uconst 16] [$sp+0]
	@DEBUG_VALUE: mbedtls_debug_print_buf:line <- [DW_OP_plus_uconst 20] [$sp+0]
	@DEBUG_VALUE: mbedtls_debug_print_buf:text <- [DW_OP_plus_uconst 592] [$sp+0]
	@DEBUG_VALUE: mbedtls_debug_print_buf:buf <- [DW_OP_plus_uconst 596] [$sp+0]
	@DEBUG_VALUE: mbedtls_debug_print_buf:len <- [DW_OP_plus_uconst 600] [$sp+0]
	.loc	1 181 1                         @ ../../../ThirdParty/mbedTLS/library/debug.c:181:1
	add	sp, #508
.Ltmp72:
	add	sp, #64
	pop	{r4, r5, r6, r7, pc}
.Ltmp73:
	.p2align	2
@ %bb.21:
	.loc	1 0 1 is_stmt 0                 @ ../../../ThirdParty/mbedTLS/library/debug.c:0:1
__arm_cp.4_0:
	.long	debug_threshold
.Lcpi_end5:
	.size	__arm_cp.4_0, .Lcpi_end5-__arm_cp.4_0
.LCPI4_1:
.L.str.1:
	.asciz	"dumping '%s' (%u bytes)\n\000\000\000"
__arm_cp.4_2:
	.long	4095                            @ 0xfff
.Lcpi_end6:
	.size	__arm_cp.4_2, .Lcpi_end6-__arm_cp.4_2
__arm_cp.4_3:
	.long	.L.str.2
.Lcpi_end7:
	.size	__arm_cp.4_3, .Lcpi_end7-__arm_cp.4_3
.LCPI4_4:
.L.str.3:
	.asciz	"%04x: \000"
__arm_cp.4_5:
	.long	.L.str.4
.Lcpi_end8:
	.size	__arm_cp.4_5, .Lcpi_end8-__arm_cp.4_5
.LCPI4_6:
.L.str.5:
	.asciz	"   "
.Lfunc_end4:
	.size	mbedtls_debug_print_buf, .Lfunc_end4-mbedtls_debug_print_buf
	.cfi_endproc
	.cantunwind
	.fnend
                                        @ -- End function
	.section	.text.mbedtls_debug_print_ecp,"ax",%progbits
	.hidden	mbedtls_debug_print_ecp         @ -- Begin function mbedtls_debug_print_ecp
	.globl	mbedtls_debug_print_ecp
	.p2align	2
	.type	mbedtls_debug_print_ecp,%function
	.code	16                              @ @mbedtls_debug_print_ecp
	.thumb_func
mbedtls_debug_print_ecp:
.Lfunc_begin5:
	.loc	1 187 0 is_stmt 1               @ ../../../ThirdParty/mbedTLS/library/debug.c:187:0
	.fnstart
	.cfi_startproc
@ %bb.0:
	@DEBUG_VALUE: mbedtls_debug_print_ecp:ssl <- $r0
	@DEBUG_VALUE: mbedtls_debug_print_ecp:level <- $r1
	@DEBUG_VALUE: mbedtls_debug_print_ecp:file <- $r2
	@DEBUG_VALUE: mbedtls_debug_print_ecp:line <- $r3
	.save	{r4, r5, r6, r7, lr}
	push	{r4, r5, r6, r7, lr}
	.cfi_def_cfa_offset 20
	.cfi_offset lr, -4
	.cfi_offset r7, -8
	.cfi_offset r6, -12
	.cfi_offset r5, -16
	.cfi_offset r4, -20
	.pad	#508
	sub	sp, #508
	.pad	#32
	sub	sp, #32
	.cfi_def_cfa_offset 560
	mov	r7, r0
.Ltmp74:
	@DEBUG_VALUE: mbedtls_debug_print_ecp:X <- [DW_OP_plus_uconst 564] [$sp+0]
	@DEBUG_VALUE: mbedtls_debug_print_ecp:text <- [DW_OP_plus_uconst 560] [$sp+0]
	@DEBUG_VALUE: mbedtls_debug_print_ecp:line <- $r3
	@DEBUG_VALUE: mbedtls_debug_print_ecp:file <- $r2
	@DEBUG_VALUE: mbedtls_debug_print_ecp:level <- $r1
	@DEBUG_VALUE: mbedtls_debug_print_ecp:ssl <- $r7
	.loc	1 190 14 prologue_end           @ ../../../ThirdParty/mbedTLS/library/debug.c:190:14
	ldr	r0, [r0]
	.loc	1 190 27 is_stmt 0              @ ../../../ThirdParty/mbedTLS/library/debug.c:190:27
	cbz	r0, .LBB5_4
.Ltmp75:
@ %bb.1:
	@DEBUG_VALUE: mbedtls_debug_print_ecp:ssl <- $r7
	@DEBUG_VALUE: mbedtls_debug_print_ecp:line <- $r3
	@DEBUG_VALUE: mbedtls_debug_print_ecp:file <- $r2
	@DEBUG_VALUE: mbedtls_debug_print_ecp:level <- $r1
	@DEBUG_VALUE: mbedtls_debug_print_ecp:text <- [DW_OP_plus_uconst 560] [$sp+0]
	@DEBUG_VALUE: mbedtls_debug_print_ecp:X <- [DW_OP_plus_uconst 564] [$sp+0]
	@DEBUG_VALUE: mbedtls_debug_print_ecp:line <- $r3
	@DEBUG_VALUE: mbedtls_debug_print_ecp:level <- $r1
	.loc	1 190 41                        @ ../../../ThirdParty/mbedTLS/library/debug.c:190:41
	ldr	r0, [r0, #16]
	.loc	1 190 55                        @ ../../../ThirdParty/mbedTLS/library/debug.c:190:55
	cbz	r0, .LBB5_4
.Ltmp76:
@ %bb.2:
	@DEBUG_VALUE: mbedtls_debug_print_ecp:ssl <- $r7
	@DEBUG_VALUE: mbedtls_debug_print_ecp:line <- $r3
	@DEBUG_VALUE: mbedtls_debug_print_ecp:file <- $r2
	@DEBUG_VALUE: mbedtls_debug_print_ecp:level <- $r1
	@DEBUG_VALUE: mbedtls_debug_print_ecp:text <- [DW_OP_plus_uconst 560] [$sp+0]
	@DEBUG_VALUE: mbedtls_debug_print_ecp:X <- [DW_OP_plus_uconst 564] [$sp+0]
	@DEBUG_VALUE: mbedtls_debug_print_ecp:line <- $r3
	.loc	1 0 55                          @ ../../../ThirdParty/mbedTLS/library/debug.c:0:55
	mov	r6, r1
.Ltmp77:
	@DEBUG_VALUE: mbedtls_debug_print_ecp:level <- $r6
	ldr	r0, __arm_cp.5_0
	ldr	r0, [r0]
	.loc	1 190 55                        @ ../../../ThirdParty/mbedTLS/library/debug.c:190:55
	cmp	r0, r1
	blt	.LBB5_4
.Ltmp78:
@ %bb.3:
	@DEBUG_VALUE: mbedtls_debug_print_ecp:ssl <- $r7
	@DEBUG_VALUE: mbedtls_debug_print_ecp:level <- $r6
	@DEBUG_VALUE: mbedtls_debug_print_ecp:line <- $r3
	@DEBUG_VALUE: mbedtls_debug_print_ecp:file <- $r2
	@DEBUG_VALUE: mbedtls_debug_print_ecp:text <- [DW_OP_plus_uconst 560] [$sp+0]
	@DEBUG_VALUE: mbedtls_debug_print_ecp:X <- [DW_OP_plus_uconst 564] [$sp+0]
	.loc	1 0 55                          @ ../../../ThirdParty/mbedTLS/library/debug.c:0:55
	mov	r5, r3
.Ltmp79:
	@DEBUG_VALUE: mbedtls_debug_print_ecp:line <- $r5
	ldr	r0, [sp, #564]
	str	r0, [sp, #12]                   @ 4-byte Spill
	ldr	r3, [sp, #560]
	.loc	1 193 5 is_stmt 1               @ ../../../ThirdParty/mbedTLS/library/debug.c:193:5
	str	r3, [sp, #16]                   @ 4-byte Spill
.Ltmp80:
	@DEBUG_VALUE: mbedtls_debug_print_ecp:X <- [DW_OP_plus_uconst 16, DW_OP_plus_uconst 564] [$sp+0]
	.loc	1 0 5 is_stmt 0                 @ ../../../ThirdParty/mbedTLS/library/debug.c:0:5
	add	r4, sp, #28
	str	r2, [sp, #24]                   @ 4-byte Spill
.Ltmp81:
	@DEBUG_VALUE: mbedtls_debug_print_ecp:file <- [DW_OP_plus_uconst 24] [$sp+0]
	.loc	1 193 5                         @ ../../../ThirdParty/mbedTLS/library/debug.c:193:5
	adr	r2, .LCPI5_1
	mov	r0, r4
	movw	r1, #512
	str	r5, [sp, #20]                   @ 4-byte Spill
.Ltmp82:
	@DEBUG_VALUE: mbedtls_debug_print_ecp:line <- [DW_OP_plus_uconst 20] [$sp+0]
	bl	__2snprintf
	.loc	1 194 5 is_stmt 1               @ ../../../ThirdParty/mbedTLS/library/debug.c:194:5
	str	r4, [sp]
	ldr	r5, [sp, #12]                   @ 4-byte Reload
	str	r5, [sp, #4]
	mov	r0, r7
	mov	r1, r6
	ldr	r2, [sp, #24]                   @ 4-byte Reload
.Ltmp83:
	@DEBUG_VALUE: mbedtls_debug_print_ecp:file <- $r2
	ldr	r3, [sp, #20]                   @ 4-byte Reload
.Ltmp84:
	@DEBUG_VALUE: mbedtls_debug_print_ecp:line <- $r3
	bl	mbedtls_debug_print_mpi
.Ltmp85:
	@DEBUG_VALUE: mbedtls_debug_print_ecp:line <- [DW_OP_LLVM_entry_value 1] $r3
	@DEBUG_VALUE: mbedtls_debug_print_ecp:file <- [DW_OP_LLVM_entry_value 1] $r2
	.loc	1 196 5                         @ ../../../ThirdParty/mbedTLS/library/debug.c:196:5
	adr	r2, .LCPI5_2
	mov	r0, r4
	movw	r1, #512
	ldr	r3, [sp, #16]                   @ 4-byte Reload
.Ltmp86:
	@DEBUG_VALUE: mbedtls_debug_print_ecp:X <- [DW_OP_plus_uconst 564] [$r3+0]
	bl	__2snprintf
.Ltmp87:
	.loc	1 197 63                        @ ../../../ThirdParty/mbedTLS/library/debug.c:197:63
	adds	r5, #12
	.loc	1 197 5 is_stmt 0               @ ../../../ThirdParty/mbedTLS/library/debug.c:197:5
	str	r4, [sp]
	str	r5, [sp, #4]
	mov	r0, r7
	mov	r1, r6
	ldr	r2, [sp, #24]                   @ 4-byte Reload
	ldr	r3, [sp, #20]                   @ 4-byte Reload
	bl	mbedtls_debug_print_mpi
.Ltmp88:
.LBB5_4:
	@DEBUG_VALUE: mbedtls_debug_print_ecp:ssl <- $r7
	@DEBUG_VALUE: mbedtls_debug_print_ecp:text <- [DW_OP_plus_uconst 560] [$sp+0]
	.loc	1 198 1 is_stmt 1               @ ../../../ThirdParty/mbedTLS/library/debug.c:198:1
	add	sp, #508
.Ltmp89:
	add	sp, #32
	pop	{r4, r5, r6, r7, pc}
.Ltmp90:
	.p2align	2
@ %bb.5:
	.loc	1 0 1 is_stmt 0                 @ ../../../ThirdParty/mbedTLS/library/debug.c:0:1
__arm_cp.5_0:
	.long	debug_threshold
.Lcpi_end9:
	.size	__arm_cp.5_0, .Lcpi_end9-__arm_cp.5_0
.LCPI5_1:
.L.str.6:
	.asciz	"%s(X)\000\000"
.LCPI5_2:
.L.str.7:
	.asciz	"%s(Y)\000\000"
.Lfunc_end5:
	.size	mbedtls_debug_print_ecp, .Lfunc_end5-mbedtls_debug_print_ecp
	.cfi_endproc
	.cantunwind
	.fnend
                                        @ -- End function
	.section	.text.mbedtls_debug_print_mpi,"ax",%progbits
	.hidden	mbedtls_debug_print_mpi         @ -- Begin function mbedtls_debug_print_mpi
	.globl	mbedtls_debug_print_mpi
	.p2align	2
	.type	mbedtls_debug_print_mpi,%function
	.code	16                              @ @mbedtls_debug_print_mpi
	.thumb_func
mbedtls_debug_print_mpi:
.Lfunc_begin6:
	.loc	1 205 0 is_stmt 1               @ ../../../ThirdParty/mbedTLS/library/debug.c:205:0
	.fnstart
	.cfi_startproc
@ %bb.0:
	@DEBUG_VALUE: mbedtls_debug_print_mpi:ssl <- $r0
	@DEBUG_VALUE: mbedtls_debug_print_mpi:level <- $r1
	@DEBUG_VALUE: mbedtls_debug_print_mpi:file <- $r2
	@DEBUG_VALUE: mbedtls_debug_print_mpi:line <- $r3
	.save	{r4, r5, r6, r7, lr}
	push	{r4, r5, r6, r7, lr}
	.cfi_def_cfa_offset 20
	.cfi_offset lr, -4
	.cfi_offset r7, -8
	.cfi_offset r6, -12
	.cfi_offset r5, -16
	.cfi_offset r4, -20
	.pad	#508
	sub	sp, #508
	.pad	#40
	sub	sp, #40
	.cfi_def_cfa_offset 568
	str	r1, [sp, #28]                   @ 4-byte Spill
	add	r1, sp, #16
.Ltmp91:
	@DEBUG_VALUE: mbedtls_debug_print_mpi:level <- [DW_OP_LLVM_entry_value 1] $r1
	stm	r1!, {r0, r2, r3}               @ 12-byte Folded Spill
.Ltmp92:
	@DEBUG_VALUE: mbedtls_debug_print_mpi:idx <- 0
	@DEBUG_VALUE: mbedtls_debug_print_mpi:zeros <- 1
	@DEBUG_VALUE: mbedtls_debug_print_mpi:X <- [DW_OP_plus_uconst 572] [$sp+0]
	@DEBUG_VALUE: mbedtls_debug_print_mpi:text <- [DW_OP_plus_uconst 568] [$sp+0]
	@DEBUG_VALUE: mbedtls_debug_print_mpi:line <- [DW_OP_plus_uconst 24] [$sp+0]
	@DEBUG_VALUE: mbedtls_debug_print_mpi:file <- [DW_OP_plus_uconst 20] [$sp+0]
	@DEBUG_VALUE: mbedtls_debug_print_mpi:level <- [DW_OP_plus_uconst 28] [$sp+0]
	@DEBUG_VALUE: mbedtls_debug_print_mpi:ssl <- [DW_OP_plus_uconst 16] [$sp+0]
	.loc	1 210 14 prologue_end           @ ../../../ThirdParty/mbedTLS/library/debug.c:210:14
	ldr	r0, [r0]
	.loc	1 210 27 is_stmt 0              @ ../../../ThirdParty/mbedTLS/library/debug.c:210:27
	cmp	r0, #0
	bne	.LBB6_1
	b	.LBB6_33
.Ltmp93:
.LBB6_1:
	@DEBUG_VALUE: mbedtls_debug_print_mpi:ssl <- [DW_OP_plus_uconst 16] [$sp+0]
	@DEBUG_VALUE: mbedtls_debug_print_mpi:level <- [DW_OP_plus_uconst 28] [$sp+0]
	@DEBUG_VALUE: mbedtls_debug_print_mpi:file <- [DW_OP_plus_uconst 20] [$sp+0]
	@DEBUG_VALUE: mbedtls_debug_print_mpi:line <- [DW_OP_plus_uconst 24] [$sp+0]
	@DEBUG_VALUE: mbedtls_debug_print_mpi:text <- [DW_OP_plus_uconst 568] [$sp+0]
	@DEBUG_VALUE: mbedtls_debug_print_mpi:X <- [DW_OP_plus_uconst 572] [$sp+0]
	@DEBUG_VALUE: mbedtls_debug_print_mpi:zeros <- 1
	@DEBUG_VALUE: mbedtls_debug_print_mpi:idx <- 0
	.loc	1 0 27                          @ ../../../ThirdParty/mbedTLS/library/debug.c:0:27
	ldr	r6, [sp, #572]
	.loc	1 210 55                        @ ../../../ThirdParty/mbedTLS/library/debug.c:210:55
	cmp	r6, #0
	bne	.LBB6_2
	b	.LBB6_33
.Ltmp94:
.LBB6_2:
	@DEBUG_VALUE: mbedtls_debug_print_mpi:ssl <- [DW_OP_plus_uconst 16] [$sp+0]
	@DEBUG_VALUE: mbedtls_debug_print_mpi:level <- [DW_OP_plus_uconst 28] [$sp+0]
	@DEBUG_VALUE: mbedtls_debug_print_mpi:file <- [DW_OP_plus_uconst 20] [$sp+0]
	@DEBUG_VALUE: mbedtls_debug_print_mpi:line <- [DW_OP_plus_uconst 24] [$sp+0]
	@DEBUG_VALUE: mbedtls_debug_print_mpi:text <- [DW_OP_plus_uconst 568] [$sp+0]
	@DEBUG_VALUE: mbedtls_debug_print_mpi:X <- [DW_OP_plus_uconst 572] [$sp+0]
	@DEBUG_VALUE: mbedtls_debug_print_mpi:zeros <- 1
	@DEBUG_VALUE: mbedtls_debug_print_mpi:idx <- 0
	.loc	1 0 0                           @ ../../../ThirdParty/mbedTLS/library/debug.c:0:0
	ldr	r0, [r0, #16]
	.loc	1 210 55                        @ ../../../ThirdParty/mbedTLS/library/debug.c:210:55
	cmp	r0, #0
	bne	.LBB6_3
	b	.LBB6_33
.Ltmp95:
.LBB6_3:
	@DEBUG_VALUE: mbedtls_debug_print_mpi:ssl <- [DW_OP_plus_uconst 16] [$sp+0]
	@DEBUG_VALUE: mbedtls_debug_print_mpi:level <- [DW_OP_plus_uconst 28] [$sp+0]
	@DEBUG_VALUE: mbedtls_debug_print_mpi:file <- [DW_OP_plus_uconst 20] [$sp+0]
	@DEBUG_VALUE: mbedtls_debug_print_mpi:line <- [DW_OP_plus_uconst 24] [$sp+0]
	@DEBUG_VALUE: mbedtls_debug_print_mpi:text <- [DW_OP_plus_uconst 568] [$sp+0]
	@DEBUG_VALUE: mbedtls_debug_print_mpi:X <- [DW_OP_plus_uconst 572] [$sp+0]
	@DEBUG_VALUE: mbedtls_debug_print_mpi:zeros <- 1
	@DEBUG_VALUE: mbedtls_debug_print_mpi:idx <- 0
	.loc	1 0 55                          @ ../../../ThirdParty/mbedTLS/library/debug.c:0:55
	ldr	r0, __arm_cp.6_0
	ldr	r0, [r0]
	.loc	1 210 55                        @ ../../../ThirdParty/mbedTLS/library/debug.c:210:55
	ldr	r1, [sp, #28]                   @ 4-byte Reload
	cmp	r0, r1
	bge	.LBB6_4
	b	.LBB6_33
.Ltmp96:
.LBB6_4:
	@DEBUG_VALUE: mbedtls_debug_print_mpi:ssl <- [DW_OP_plus_uconst 16] [$sp+0]
	@DEBUG_VALUE: mbedtls_debug_print_mpi:level <- [DW_OP_plus_uconst 28] [$sp+0]
	@DEBUG_VALUE: mbedtls_debug_print_mpi:file <- [DW_OP_plus_uconst 20] [$sp+0]
	@DEBUG_VALUE: mbedtls_debug_print_mpi:line <- [DW_OP_plus_uconst 24] [$sp+0]
	@DEBUG_VALUE: mbedtls_debug_print_mpi:text <- [DW_OP_plus_uconst 568] [$sp+0]
	@DEBUG_VALUE: mbedtls_debug_print_mpi:X <- [DW_OP_plus_uconst 572] [$sp+0]
	@DEBUG_VALUE: mbedtls_debug_print_mpi:zeros <- 1
	@DEBUG_VALUE: mbedtls_debug_print_mpi:idx <- 0
	.loc	1 0 55                          @ ../../../ThirdParty/mbedTLS/library/debug.c:0:55
	ldr	r3, [sp, #568]
.Ltmp97:
	.loc	1 213 17 is_stmt 1              @ ../../../ThirdParty/mbedTLS/library/debug.c:213:17
	ldr	r0, [r6, #4]
.Ltmp98:
	@DEBUG_VALUE: mbedtls_debug_print_mpi:n <- [DW_OP_constu 1, DW_OP_minus, DW_OP_stack_value] $r0
	.loc	1 213 10 is_stmt 0              @ ../../../ThirdParty/mbedTLS/library/debug.c:213:10
	lsls	r1, r0, #2
	subs	r2, r1, #4
	movs	r1, #0
	movs	r7, #1
.Ltmp99:
.LBB6_5:                                @ =>This Inner Loop Header: Depth=1
	@DEBUG_VALUE: mbedtls_debug_print_mpi:ssl <- [DW_OP_plus_uconst 16] [$sp+0]
	@DEBUG_VALUE: mbedtls_debug_print_mpi:level <- [DW_OP_plus_uconst 28] [$sp+0]
	@DEBUG_VALUE: mbedtls_debug_print_mpi:file <- [DW_OP_plus_uconst 20] [$sp+0]
	@DEBUG_VALUE: mbedtls_debug_print_mpi:line <- [DW_OP_plus_uconst 24] [$sp+0]
	@DEBUG_VALUE: mbedtls_debug_print_mpi:text <- [DW_OP_plus_uconst 568] [$sp+0]
	@DEBUG_VALUE: mbedtls_debug_print_mpi:X <- [DW_OP_plus_uconst 572] [$sp+0]
	@DEBUG_VALUE: mbedtls_debug_print_mpi:zeros <- 1
	@DEBUG_VALUE: mbedtls_debug_print_mpi:idx <- 0
	@DEBUG_VALUE: mbedtls_debug_print_mpi:n <- undef
	.loc	1 213 5                         @ ../../../ThirdParty/mbedTLS/library/debug.c:213:5
	cmp	r0, #1
	beq	.LBB6_8
.Ltmp100:
@ %bb.6:                                @   in Loop: Header=BB6_5 Depth=1
	@DEBUG_VALUE: mbedtls_debug_print_mpi:ssl <- [DW_OP_plus_uconst 16] [$sp+0]
	@DEBUG_VALUE: mbedtls_debug_print_mpi:level <- [DW_OP_plus_uconst 28] [$sp+0]
	@DEBUG_VALUE: mbedtls_debug_print_mpi:file <- [DW_OP_plus_uconst 20] [$sp+0]
	@DEBUG_VALUE: mbedtls_debug_print_mpi:line <- [DW_OP_plus_uconst 24] [$sp+0]
	@DEBUG_VALUE: mbedtls_debug_print_mpi:text <- [DW_OP_plus_uconst 568] [$sp+0]
	@DEBUG_VALUE: mbedtls_debug_print_mpi:X <- [DW_OP_plus_uconst 572] [$sp+0]
	@DEBUG_VALUE: mbedtls_debug_print_mpi:zeros <- 1
	@DEBUG_VALUE: mbedtls_debug_print_mpi:idx <- 0
	.loc	1 0 0                           @ ../../../ThirdParty/mbedTLS/library/debug.c:0:0
	subs	r0, r0, #1
.Ltmp101:
	@DEBUG_VALUE: mbedtls_debug_print_mpi:n <- $r0
	.loc	1 214 16 is_stmt 1              @ ../../../ThirdParty/mbedTLS/library/debug.c:214:16
	ldr	r4, [r6, #8]
	.loc	1 214 13 is_stmt 0              @ ../../../ThirdParty/mbedTLS/library/debug.c:214:13
	ldr	r4, [r4, r2]
.Ltmp102:
	.loc	1 214 13                        @ ../../../ThirdParty/mbedTLS/library/debug.c:214:13
	subs	r2, r2, #4
	cmp	r4, #0
	beq	.LBB6_5
.Ltmp103:
@ %bb.7:
	@DEBUG_VALUE: mbedtls_debug_print_mpi:n <- $r0
	@DEBUG_VALUE: mbedtls_debug_print_mpi:ssl <- [DW_OP_plus_uconst 16] [$sp+0]
	@DEBUG_VALUE: mbedtls_debug_print_mpi:level <- [DW_OP_plus_uconst 28] [$sp+0]
	@DEBUG_VALUE: mbedtls_debug_print_mpi:file <- [DW_OP_plus_uconst 20] [$sp+0]
	@DEBUG_VALUE: mbedtls_debug_print_mpi:line <- [DW_OP_plus_uconst 24] [$sp+0]
	@DEBUG_VALUE: mbedtls_debug_print_mpi:text <- [DW_OP_plus_uconst 568] [$sp+0]
	@DEBUG_VALUE: mbedtls_debug_print_mpi:X <- [DW_OP_plus_uconst 572] [$sp+0]
	@DEBUG_VALUE: mbedtls_debug_print_mpi:zeros <- 1
	@DEBUG_VALUE: mbedtls_debug_print_mpi:idx <- 0
	adds	r7, r0, #1
	b	.LBB6_9
.Ltmp104:
.LBB6_8:
	@DEBUG_VALUE: mbedtls_debug_print_mpi:ssl <- [DW_OP_plus_uconst 16] [$sp+0]
	@DEBUG_VALUE: mbedtls_debug_print_mpi:level <- [DW_OP_plus_uconst 28] [$sp+0]
	@DEBUG_VALUE: mbedtls_debug_print_mpi:file <- [DW_OP_plus_uconst 20] [$sp+0]
	@DEBUG_VALUE: mbedtls_debug_print_mpi:line <- [DW_OP_plus_uconst 24] [$sp+0]
	@DEBUG_VALUE: mbedtls_debug_print_mpi:text <- [DW_OP_plus_uconst 568] [$sp+0]
	@DEBUG_VALUE: mbedtls_debug_print_mpi:X <- [DW_OP_plus_uconst 572] [$sp+0]
	@DEBUG_VALUE: mbedtls_debug_print_mpi:zeros <- 1
	@DEBUG_VALUE: mbedtls_debug_print_mpi:idx <- 0
	.loc	1 0 0                           @ ../../../ThirdParty/mbedTLS/library/debug.c:0:0
	mov	r0, r1
.Ltmp105:
.LBB6_9:
	@DEBUG_VALUE: mbedtls_debug_print_mpi:ssl <- [DW_OP_plus_uconst 16] [$sp+0]
	@DEBUG_VALUE: mbedtls_debug_print_mpi:level <- [DW_OP_plus_uconst 28] [$sp+0]
	@DEBUG_VALUE: mbedtls_debug_print_mpi:file <- [DW_OP_plus_uconst 20] [$sp+0]
	@DEBUG_VALUE: mbedtls_debug_print_mpi:line <- [DW_OP_plus_uconst 24] [$sp+0]
	@DEBUG_VALUE: mbedtls_debug_print_mpi:text <- [DW_OP_plus_uconst 568] [$sp+0]
	@DEBUG_VALUE: mbedtls_debug_print_mpi:X <- [DW_OP_plus_uconst 572] [$sp+0]
	@DEBUG_VALUE: mbedtls_debug_print_mpi:zeros <- 1
	@DEBUG_VALUE: mbedtls_debug_print_mpi:idx <- 0
	@DEBUG_VALUE: mbedtls_debug_print_mpi:j <- 31
	lsls	r2, r0, #2
	ldr	r4, [r6, #8]
	ldr	r4, [r4, r2]
	movs	r2, #31
	mvns	r1, r1
.Ltmp106:
.LBB6_10:                               @ =>This Inner Loop Header: Depth=1
	@DEBUG_VALUE: mbedtls_debug_print_mpi:ssl <- [DW_OP_plus_uconst 16] [$sp+0]
	@DEBUG_VALUE: mbedtls_debug_print_mpi:level <- [DW_OP_plus_uconst 28] [$sp+0]
	@DEBUG_VALUE: mbedtls_debug_print_mpi:file <- [DW_OP_plus_uconst 20] [$sp+0]
	@DEBUG_VALUE: mbedtls_debug_print_mpi:line <- [DW_OP_plus_uconst 24] [$sp+0]
	@DEBUG_VALUE: mbedtls_debug_print_mpi:text <- [DW_OP_plus_uconst 568] [$sp+0]
	@DEBUG_VALUE: mbedtls_debug_print_mpi:X <- [DW_OP_plus_uconst 572] [$sp+0]
	@DEBUG_VALUE: mbedtls_debug_print_mpi:zeros <- 1
	@DEBUG_VALUE: mbedtls_debug_print_mpi:idx <- 0
	@DEBUG_VALUE: mbedtls_debug_print_mpi:j <- $r2
	.loc	1 218 13 is_stmt 1              @ ../../../ThirdParty/mbedTLS/library/debug.c:218:13
	mov	r5, r4
	lsrs	r5, r2
	lsls	r5, r5, #31
	bne	.LBB6_13
.Ltmp107:
@ %bb.11:                               @   in Loop: Header=BB6_10 Depth=1
	@DEBUG_VALUE: mbedtls_debug_print_mpi:j <- $r2
	@DEBUG_VALUE: mbedtls_debug_print_mpi:ssl <- [DW_OP_plus_uconst 16] [$sp+0]
	@DEBUG_VALUE: mbedtls_debug_print_mpi:level <- [DW_OP_plus_uconst 28] [$sp+0]
	@DEBUG_VALUE: mbedtls_debug_print_mpi:file <- [DW_OP_plus_uconst 20] [$sp+0]
	@DEBUG_VALUE: mbedtls_debug_print_mpi:line <- [DW_OP_plus_uconst 24] [$sp+0]
	@DEBUG_VALUE: mbedtls_debug_print_mpi:text <- [DW_OP_plus_uconst 568] [$sp+0]
	@DEBUG_VALUE: mbedtls_debug_print_mpi:X <- [DW_OP_plus_uconst 572] [$sp+0]
	@DEBUG_VALUE: mbedtls_debug_print_mpi:zeros <- 1
	@DEBUG_VALUE: mbedtls_debug_print_mpi:idx <- 0
	.loc	1 217 62                        @ ../../../ThirdParty/mbedTLS/library/debug.c:217:62
	subs	r2, r2, #1
.Ltmp108:
	@DEBUG_VALUE: mbedtls_debug_print_mpi:j <- $r2
	.loc	1 217 55 is_stmt 0              @ ../../../ThirdParty/mbedTLS/library/debug.c:217:55
	adds	r5, r2, #1
.Ltmp109:
	.loc	1 217 5                         @ ../../../ThirdParty/mbedTLS/library/debug.c:217:5
	blo	.LBB6_10
.Ltmp110:
@ %bb.12:
	@DEBUG_VALUE: mbedtls_debug_print_mpi:j <- $r2
	@DEBUG_VALUE: mbedtls_debug_print_mpi:ssl <- [DW_OP_plus_uconst 16] [$sp+0]
	@DEBUG_VALUE: mbedtls_debug_print_mpi:level <- [DW_OP_plus_uconst 28] [$sp+0]
	@DEBUG_VALUE: mbedtls_debug_print_mpi:file <- [DW_OP_plus_uconst 20] [$sp+0]
	@DEBUG_VALUE: mbedtls_debug_print_mpi:line <- [DW_OP_plus_uconst 24] [$sp+0]
	@DEBUG_VALUE: mbedtls_debug_print_mpi:text <- [DW_OP_plus_uconst 568] [$sp+0]
	@DEBUG_VALUE: mbedtls_debug_print_mpi:X <- [DW_OP_plus_uconst 572] [$sp+0]
	@DEBUG_VALUE: mbedtls_debug_print_mpi:zeros <- 1
	@DEBUG_VALUE: mbedtls_debug_print_mpi:idx <- 0
	.loc	1 0 0                           @ ../../../ThirdParty/mbedTLS/library/debug.c:0:0
	mov	r2, r1
.Ltmp111:
.LBB6_13:
	@DEBUG_VALUE: mbedtls_debug_print_mpi:ssl <- [DW_OP_plus_uconst 16] [$sp+0]
	@DEBUG_VALUE: mbedtls_debug_print_mpi:level <- [DW_OP_plus_uconst 28] [$sp+0]
	@DEBUG_VALUE: mbedtls_debug_print_mpi:file <- [DW_OP_plus_uconst 20] [$sp+0]
	@DEBUG_VALUE: mbedtls_debug_print_mpi:line <- [DW_OP_plus_uconst 24] [$sp+0]
	@DEBUG_VALUE: mbedtls_debug_print_mpi:text <- [DW_OP_plus_uconst 568] [$sp+0]
	@DEBUG_VALUE: mbedtls_debug_print_mpi:X <- [DW_OP_plus_uconst 572] [$sp+0]
	@DEBUG_VALUE: mbedtls_debug_print_mpi:zeros <- 1
	@DEBUG_VALUE: mbedtls_debug_print_mpi:idx <- 0
	mov	r5, r7
.Ltmp112:
	@DEBUG_VALUE: mbedtls_debug_print_mpi:j <- $r2
	.loc	1 222 41 is_stmt 1              @ ../../../ThirdParty/mbedTLS/library/debug.c:222:41
	lsls	r0, r0, #5
	.loc	1 222 79 is_stmt 0              @ ../../../ThirdParty/mbedTLS/library/debug.c:222:79
	adds	r0, r0, #1
	.loc	1 222 83                        @ ../../../ThirdParty/mbedTLS/library/debug.c:222:83
	adds	r0, r0, r2
	.loc	1 221 5 is_stmt 1               @ ../../../ThirdParty/mbedTLS/library/debug.c:221:5
	str	r0, [sp]
	add	r4, sp, #36
	adr	r2, .LCPI6_1
.Ltmp113:
	mov	r0, r4
	movw	r1, #512
	bl	__2snprintf
	.loc	1 224 5                         @ ../../../ThirdParty/mbedTLS/library/debug.c:224:5
	str	r4, [sp]
	ldr	r1, [sp, #28]                   @ 4-byte Reload
	add	r3, sp, #16
	ldm	r3, {r0, r2, r3}                @ 12-byte Folded Reload
	bl	debug_send_line
.Ltmp114:
	@DEBUG_VALUE: mbedtls_debug_print_mpi:i <- $r5
	@DEBUG_VALUE: mbedtls_debug_print_mpi:j <- 0
	@DEBUG_VALUE: mbedtls_debug_print_mpi:idx <- 0
	@DEBUG_VALUE: mbedtls_debug_print_mpi:zeros <- 1
	.loc	1 227 5                         @ ../../../ThirdParty/mbedTLS/library/debug.c:227:5
	cmp	r7, #0
	beq	.LBB6_29
.Ltmp115:
@ %bb.14:
	@DEBUG_VALUE: mbedtls_debug_print_mpi:i <- $r5
	@DEBUG_VALUE: mbedtls_debug_print_mpi:ssl <- [DW_OP_plus_uconst 16] [$sp+0]
	@DEBUG_VALUE: mbedtls_debug_print_mpi:level <- [DW_OP_plus_uconst 28] [$sp+0]
	@DEBUG_VALUE: mbedtls_debug_print_mpi:file <- [DW_OP_plus_uconst 20] [$sp+0]
	@DEBUG_VALUE: mbedtls_debug_print_mpi:line <- [DW_OP_plus_uconst 24] [$sp+0]
	@DEBUG_VALUE: mbedtls_debug_print_mpi:text <- [DW_OP_plus_uconst 568] [$sp+0]
	@DEBUG_VALUE: mbedtls_debug_print_mpi:X <- [DW_OP_plus_uconst 572] [$sp+0]
	@DEBUG_VALUE: mbedtls_debug_print_mpi:j <- 0
	@DEBUG_VALUE: mbedtls_debug_print_mpi:zeros <- 1
	@DEBUG_VALUE: mbedtls_debug_print_mpi:idx <- 0
	.loc	1 0 5 is_stmt 0                 @ ../../../ThirdParty/mbedTLS/library/debug.c:0:5
	movs	r0, #1
	movs	r7, #0
	mov	r4, r7
	str	r6, [sp, #12]                   @ 4-byte Spill
	b	.LBB6_17
.Ltmp116:
.LBB6_15:                               @   in Loop: Header=BB6_17 Depth=1
	@DEBUG_VALUE: mbedtls_debug_print_mpi:idx <- $r7
	@DEBUG_VALUE: mbedtls_debug_print_mpi:i <- $r5
	@DEBUG_VALUE: mbedtls_debug_print_mpi:j <- $r4
	@DEBUG_VALUE: mbedtls_debug_print_mpi:zeros <- $r0
	@DEBUG_VALUE: mbedtls_debug_print_mpi:ssl <- [DW_OP_plus_uconst 16] [$sp+0]
	@DEBUG_VALUE: mbedtls_debug_print_mpi:level <- [DW_OP_plus_uconst 28] [$sp+0]
	@DEBUG_VALUE: mbedtls_debug_print_mpi:file <- [DW_OP_plus_uconst 20] [$sp+0]
	@DEBUG_VALUE: mbedtls_debug_print_mpi:line <- [DW_OP_plus_uconst 24] [$sp+0]
	@DEBUG_VALUE: mbedtls_debug_print_mpi:text <- [DW_OP_plus_uconst 568] [$sp+0]
	@DEBUG_VALUE: mbedtls_debug_print_mpi:X <- [DW_OP_plus_uconst 572] [$sp+0]
	movs	r0, #1
.Ltmp117:
.LBB6_16:                               @   in Loop: Header=BB6_17 Depth=1
	@DEBUG_VALUE: mbedtls_debug_print_mpi:idx <- $r7
	@DEBUG_VALUE: mbedtls_debug_print_mpi:j <- $r4
	@DEBUG_VALUE: mbedtls_debug_print_mpi:ssl <- [DW_OP_plus_uconst 16] [$sp+0]
	@DEBUG_VALUE: mbedtls_debug_print_mpi:level <- [DW_OP_plus_uconst 28] [$sp+0]
	@DEBUG_VALUE: mbedtls_debug_print_mpi:file <- [DW_OP_plus_uconst 20] [$sp+0]
	@DEBUG_VALUE: mbedtls_debug_print_mpi:line <- [DW_OP_plus_uconst 24] [$sp+0]
	@DEBUG_VALUE: mbedtls_debug_print_mpi:text <- [DW_OP_plus_uconst 568] [$sp+0]
	@DEBUG_VALUE: mbedtls_debug_print_mpi:X <- [DW_OP_plus_uconst 572] [$sp+0]
	@DEBUG_VALUE: mbedtls_debug_print_mpi:zeros <- $r0
	@DEBUG_VALUE: mbedtls_debug_print_mpi:idx <- $r7
	@DEBUG_VALUE: mbedtls_debug_print_mpi:j <- $r4
	ldr	r5, [sp, #8]                    @ 4-byte Reload
.Ltmp118:
	.loc	1 227 36                        @ ../../../ThirdParty/mbedTLS/library/debug.c:227:36
	subs	r5, r5, #1
.Ltmp119:
	@DEBUG_VALUE: mbedtls_debug_print_mpi:i <- $r5
	.loc	1 227 5                         @ ../../../ThirdParty/mbedTLS/library/debug.c:227:5
	beq	.LBB6_30
.Ltmp120:
.LBB6_17:                               @ =>This Loop Header: Depth=1
                                        @     Child Loop BB6_23 Depth 2
	@DEBUG_VALUE: mbedtls_debug_print_mpi:i <- $r5
	@DEBUG_VALUE: mbedtls_debug_print_mpi:ssl <- [DW_OP_plus_uconst 16] [$sp+0]
	@DEBUG_VALUE: mbedtls_debug_print_mpi:level <- [DW_OP_plus_uconst 28] [$sp+0]
	@DEBUG_VALUE: mbedtls_debug_print_mpi:file <- [DW_OP_plus_uconst 20] [$sp+0]
	@DEBUG_VALUE: mbedtls_debug_print_mpi:line <- [DW_OP_plus_uconst 24] [$sp+0]
	@DEBUG_VALUE: mbedtls_debug_print_mpi:text <- [DW_OP_plus_uconst 568] [$sp+0]
	@DEBUG_VALUE: mbedtls_debug_print_mpi:X <- [DW_OP_plus_uconst 572] [$sp+0]
	@DEBUG_VALUE: mbedtls_debug_print_mpi:zeros <- $r0
	@DEBUG_VALUE: mbedtls_debug_print_mpi:idx <- $r7
	@DEBUG_VALUE: mbedtls_debug_print_mpi:j <- $r4
	@DEBUG_VALUE: mbedtls_debug_print_mpi:i <- $r5
	.loc	1 229 19 is_stmt 1              @ ../../../ThirdParty/mbedTLS/library/debug.c:229:19
	str	r5, [sp, #8]                    @ 4-byte Spill
	cbz	r0, .LBB6_19
.Ltmp121:
@ %bb.18:                               @   in Loop: Header=BB6_17 Depth=1
	@DEBUG_VALUE: mbedtls_debug_print_mpi:idx <- $r7
	@DEBUG_VALUE: mbedtls_debug_print_mpi:i <- $r5
	@DEBUG_VALUE: mbedtls_debug_print_mpi:j <- $r4
	@DEBUG_VALUE: mbedtls_debug_print_mpi:zeros <- $r0
	@DEBUG_VALUE: mbedtls_debug_print_mpi:ssl <- [DW_OP_plus_uconst 16] [$sp+0]
	@DEBUG_VALUE: mbedtls_debug_print_mpi:level <- [DW_OP_plus_uconst 28] [$sp+0]
	@DEBUG_VALUE: mbedtls_debug_print_mpi:file <- [DW_OP_plus_uconst 20] [$sp+0]
	@DEBUG_VALUE: mbedtls_debug_print_mpi:line <- [DW_OP_plus_uconst 24] [$sp+0]
	@DEBUG_VALUE: mbedtls_debug_print_mpi:text <- [DW_OP_plus_uconst 568] [$sp+0]
	@DEBUG_VALUE: mbedtls_debug_print_mpi:X <- [DW_OP_plus_uconst 572] [$sp+0]
	.loc	1 229 25 is_stmt 0              @ ../../../ThirdParty/mbedTLS/library/debug.c:229:25
	ldr	r1, [r6, #8]
	.loc	1 229 29                        @ ../../../ThirdParty/mbedTLS/library/debug.c:229:29
	lsls	r2, r5, #2
	.loc	1 229 22                        @ ../../../ThirdParty/mbedTLS/library/debug.c:229:22
	adds	r1, r2, r1
	subs	r1, r1, #4
	ldr	r1, [r1]
.Ltmp122:
	.loc	1 229 13                        @ ../../../ThirdParty/mbedTLS/library/debug.c:229:13
	cmp	r1, #0
	beq	.LBB6_15
.Ltmp123:
.LBB6_19:                               @   in Loop: Header=BB6_17 Depth=1
	@DEBUG_VALUE: mbedtls_debug_print_mpi:idx <- $r7
	@DEBUG_VALUE: mbedtls_debug_print_mpi:i <- $r5
	@DEBUG_VALUE: mbedtls_debug_print_mpi:j <- $r4
	@DEBUG_VALUE: mbedtls_debug_print_mpi:zeros <- $r0
	@DEBUG_VALUE: mbedtls_debug_print_mpi:ssl <- [DW_OP_plus_uconst 16] [$sp+0]
	@DEBUG_VALUE: mbedtls_debug_print_mpi:level <- [DW_OP_plus_uconst 28] [$sp+0]
	@DEBUG_VALUE: mbedtls_debug_print_mpi:file <- [DW_OP_plus_uconst 20] [$sp+0]
	@DEBUG_VALUE: mbedtls_debug_print_mpi:line <- [DW_OP_plus_uconst 24] [$sp+0]
	@DEBUG_VALUE: mbedtls_debug_print_mpi:text <- [DW_OP_plus_uconst 568] [$sp+0]
	@DEBUG_VALUE: mbedtls_debug_print_mpi:X <- [DW_OP_plus_uconst 572] [$sp+0]
	@DEBUG_VALUE: mbedtls_debug_print_mpi:zeros <- $r0
	@DEBUG_VALUE: mbedtls_debug_print_mpi:idx <- $r7
	@DEBUG_VALUE: mbedtls_debug_print_mpi:j <- $r4
	@DEBUG_VALUE: mbedtls_debug_print_mpi:k <- 3
	.loc	1 0 0                           @ ../../../ThirdParty/mbedTLS/library/debug.c:0:0
	subs	r1, r5, #1
	str	r1, [sp, #32]                   @ 4-byte Spill
	movs	r5, #24
.Ltmp124:
	b	.LBB6_23
.Ltmp125:
.LBB6_20:                               @   in Loop: Header=BB6_23 Depth=2
	@DEBUG_VALUE: mbedtls_debug_print_mpi:idx <- $r7
	@DEBUG_VALUE: mbedtls_debug_print_mpi:j <- $r4
	@DEBUG_VALUE: mbedtls_debug_print_mpi:ssl <- [DW_OP_plus_uconst 16] [$sp+0]
	@DEBUG_VALUE: mbedtls_debug_print_mpi:level <- [DW_OP_plus_uconst 28] [$sp+0]
	@DEBUG_VALUE: mbedtls_debug_print_mpi:file <- [DW_OP_plus_uconst 20] [$sp+0]
	@DEBUG_VALUE: mbedtls_debug_print_mpi:line <- [DW_OP_plus_uconst 24] [$sp+0]
	@DEBUG_VALUE: mbedtls_debug_print_mpi:text <- [DW_OP_plus_uconst 568] [$sp+0]
	@DEBUG_VALUE: mbedtls_debug_print_mpi:X <- [DW_OP_plus_uconst 572] [$sp+0]
	@DEBUG_VALUE: mbedtls_debug_print_mpi:zeros <- 0
	movw	r1, #512
.Ltmp126:
.LBB6_21:                               @   in Loop: Header=BB6_23 Depth=2
	@DEBUG_VALUE: mbedtls_debug_print_mpi:j <- $r4
	@DEBUG_VALUE: mbedtls_debug_print_mpi:ssl <- [DW_OP_plus_uconst 16] [$sp+0]
	@DEBUG_VALUE: mbedtls_debug_print_mpi:level <- [DW_OP_plus_uconst 28] [$sp+0]
	@DEBUG_VALUE: mbedtls_debug_print_mpi:file <- [DW_OP_plus_uconst 20] [$sp+0]
	@DEBUG_VALUE: mbedtls_debug_print_mpi:line <- [DW_OP_plus_uconst 24] [$sp+0]
	@DEBUG_VALUE: mbedtls_debug_print_mpi:text <- [DW_OP_plus_uconst 568] [$sp+0]
	@DEBUG_VALUE: mbedtls_debug_print_mpi:X <- [DW_OP_plus_uconst 572] [$sp+0]
	@DEBUG_VALUE: mbedtls_debug_print_mpi:zeros <- 0
	@DEBUG_VALUE: mbedtls_debug_print_mpi:idx <- $r7
	add	r0, sp, #36
	.loc	1 249 42 is_stmt 1              @ ../../../ThirdParty/mbedTLS/library/debug.c:249:42
	adds	r0, r0, r7
	.loc	1 249 63 is_stmt 0              @ ../../../ThirdParty/mbedTLS/library/debug.c:249:63
	subs	r1, r1, r7
	.loc	1 250 40 is_stmt 1              @ ../../../ThirdParty/mbedTLS/library/debug.c:250:40
	ldr	r2, [sp, #32]                   @ 4-byte Reload
	lsls	r2, r2, #2
	.loc	1 250 43 is_stmt 0              @ ../../../ThirdParty/mbedTLS/library/debug.c:250:43
	ldr	r3, [r6, #8]
	.loc	1 250 40                        @ ../../../ThirdParty/mbedTLS/library/debug.c:250:40
	ldr	r2, [r3, r2]
	.loc	1 250 52                        @ ../../../ThirdParty/mbedTLS/library/debug.c:250:52
	lsrs	r2, r5
	.loc	1 250 68                        @ ../../../ThirdParty/mbedTLS/library/debug.c:250:68
	uxtb	r3, r2
	.loc	1 249 20 is_stmt 1              @ ../../../ThirdParty/mbedTLS/library/debug.c:249:20
	ldr	r2, __arm_cp.6_3
	bl	__2snprintf
	.loc	1 249 17 is_stmt 0              @ ../../../ThirdParty/mbedTLS/library/debug.c:249:17
	adds	r7, r0, r7
.Ltmp127:
	@DEBUG_VALUE: mbedtls_debug_print_mpi:idx <- $r7
	.loc	1 252 14 is_stmt 1              @ ../../../ThirdParty/mbedTLS/library/debug.c:252:14
	adds	r4, r4, #1
.Ltmp128:
	@DEBUG_VALUE: mbedtls_debug_print_mpi:j <- $r4
	.loc	1 0 14 is_stmt 0                @ ../../../ThirdParty/mbedTLS/library/debug.c:0:14
	movs	r0, #0
.Ltmp129:
.LBB6_22:                               @   in Loop: Header=BB6_23 Depth=2
	@DEBUG_VALUE: mbedtls_debug_print_mpi:idx <- $r7
	@DEBUG_VALUE: mbedtls_debug_print_mpi:j <- $r4
	@DEBUG_VALUE: mbedtls_debug_print_mpi:ssl <- [DW_OP_plus_uconst 16] [$sp+0]
	@DEBUG_VALUE: mbedtls_debug_print_mpi:level <- [DW_OP_plus_uconst 28] [$sp+0]
	@DEBUG_VALUE: mbedtls_debug_print_mpi:file <- [DW_OP_plus_uconst 20] [$sp+0]
	@DEBUG_VALUE: mbedtls_debug_print_mpi:line <- [DW_OP_plus_uconst 24] [$sp+0]
	@DEBUG_VALUE: mbedtls_debug_print_mpi:text <- [DW_OP_plus_uconst 568] [$sp+0]
	@DEBUG_VALUE: mbedtls_debug_print_mpi:X <- [DW_OP_plus_uconst 572] [$sp+0]
	@DEBUG_VALUE: mbedtls_debug_print_mpi:zeros <- $r0
	@DEBUG_VALUE: mbedtls_debug_print_mpi:idx <- $r7
	@DEBUG_VALUE: mbedtls_debug_print_mpi:j <- $r4
	@DEBUG_VALUE: mbedtls_debug_print_mpi:k <- [DW_OP_constu 1, DW_OP_minus, DW_OP_stack_value] undef
	.loc	1 232 52 is_stmt 1              @ ../../../ThirdParty/mbedTLS/library/debug.c:232:52
	mov	r1, r5
	subs	r1, #8
.Ltmp130:
	.loc	1 232 9 is_stmt 0               @ ../../../ThirdParty/mbedTLS/library/debug.c:232:9
	cmp	r5, #0
	mov	r5, r1
	beq	.LBB6_16
.Ltmp131:
.LBB6_23:                               @   Parent Loop BB6_17 Depth=1
                                        @ =>  This Inner Loop Header: Depth=2
	@DEBUG_VALUE: mbedtls_debug_print_mpi:idx <- $r7
	@DEBUG_VALUE: mbedtls_debug_print_mpi:j <- $r4
	@DEBUG_VALUE: mbedtls_debug_print_mpi:zeros <- $r0
	@DEBUG_VALUE: mbedtls_debug_print_mpi:ssl <- [DW_OP_plus_uconst 16] [$sp+0]
	@DEBUG_VALUE: mbedtls_debug_print_mpi:level <- [DW_OP_plus_uconst 28] [$sp+0]
	@DEBUG_VALUE: mbedtls_debug_print_mpi:file <- [DW_OP_plus_uconst 20] [$sp+0]
	@DEBUG_VALUE: mbedtls_debug_print_mpi:line <- [DW_OP_plus_uconst 24] [$sp+0]
	@DEBUG_VALUE: mbedtls_debug_print_mpi:text <- [DW_OP_plus_uconst 568] [$sp+0]
	@DEBUG_VALUE: mbedtls_debug_print_mpi:X <- [DW_OP_plus_uconst 572] [$sp+0]
	@DEBUG_VALUE: mbedtls_debug_print_mpi:zeros <- $r0
	@DEBUG_VALUE: mbedtls_debug_print_mpi:idx <- $r7
	@DEBUG_VALUE: mbedtls_debug_print_mpi:j <- $r4
	@DEBUG_VALUE: mbedtls_debug_print_mpi:k <- undef
	.loc	1 234 23 is_stmt 1              @ ../../../ThirdParty/mbedTLS/library/debug.c:234:23
	cbz	r0, .LBB6_25
.Ltmp132:
@ %bb.24:                               @   in Loop: Header=BB6_23 Depth=2
	@DEBUG_VALUE: mbedtls_debug_print_mpi:idx <- $r7
	@DEBUG_VALUE: mbedtls_debug_print_mpi:j <- $r4
	@DEBUG_VALUE: mbedtls_debug_print_mpi:zeros <- $r0
	@DEBUG_VALUE: mbedtls_debug_print_mpi:ssl <- [DW_OP_plus_uconst 16] [$sp+0]
	@DEBUG_VALUE: mbedtls_debug_print_mpi:level <- [DW_OP_plus_uconst 28] [$sp+0]
	@DEBUG_VALUE: mbedtls_debug_print_mpi:file <- [DW_OP_plus_uconst 20] [$sp+0]
	@DEBUG_VALUE: mbedtls_debug_print_mpi:line <- [DW_OP_plus_uconst 24] [$sp+0]
	@DEBUG_VALUE: mbedtls_debug_print_mpi:text <- [DW_OP_plus_uconst 568] [$sp+0]
	@DEBUG_VALUE: mbedtls_debug_print_mpi:X <- [DW_OP_plus_uconst 572] [$sp+0]
	.loc	1 234 30 is_stmt 0              @ ../../../ThirdParty/mbedTLS/library/debug.c:234:30
	ldr	r0, [sp, #32]                   @ 4-byte Reload
.Ltmp133:
	lsls	r0, r0, #2
	.loc	1 234 33                        @ ../../../ThirdParty/mbedTLS/library/debug.c:234:33
	ldr	r1, [r6, #8]
	.loc	1 234 30                        @ ../../../ThirdParty/mbedTLS/library/debug.c:234:30
	ldr	r0, [r1, r0]
.Ltmp134:
	.loc	1 234 17                        @ ../../../ThirdParty/mbedTLS/library/debug.c:234:17
	lsrs	r0, r5
	lsls	r0, r0, #24
	beq	.LBB6_28
.Ltmp135:
.LBB6_25:                               @   in Loop: Header=BB6_23 Depth=2
	@DEBUG_VALUE: mbedtls_debug_print_mpi:idx <- $r7
	@DEBUG_VALUE: mbedtls_debug_print_mpi:j <- $r4
	@DEBUG_VALUE: mbedtls_debug_print_mpi:ssl <- [DW_OP_plus_uconst 16] [$sp+0]
	@DEBUG_VALUE: mbedtls_debug_print_mpi:level <- [DW_OP_plus_uconst 28] [$sp+0]
	@DEBUG_VALUE: mbedtls_debug_print_mpi:file <- [DW_OP_plus_uconst 20] [$sp+0]
	@DEBUG_VALUE: mbedtls_debug_print_mpi:line <- [DW_OP_plus_uconst 24] [$sp+0]
	@DEBUG_VALUE: mbedtls_debug_print_mpi:text <- [DW_OP_plus_uconst 568] [$sp+0]
	@DEBUG_VALUE: mbedtls_debug_print_mpi:X <- [DW_OP_plus_uconst 572] [$sp+0]
	@DEBUG_VALUE: mbedtls_debug_print_mpi:zeros <- 0
	.loc	1 239 17 is_stmt 1              @ ../../../ThirdParty/mbedTLS/library/debug.c:239:17
	cmp	r4, #1
	blt	.LBB6_20
.Ltmp136:
@ %bb.26:                               @   in Loop: Header=BB6_23 Depth=2
	@DEBUG_VALUE: mbedtls_debug_print_mpi:idx <- $r7
	@DEBUG_VALUE: mbedtls_debug_print_mpi:j <- $r4
	@DEBUG_VALUE: mbedtls_debug_print_mpi:ssl <- [DW_OP_plus_uconst 16] [$sp+0]
	@DEBUG_VALUE: mbedtls_debug_print_mpi:level <- [DW_OP_plus_uconst 28] [$sp+0]
	@DEBUG_VALUE: mbedtls_debug_print_mpi:file <- [DW_OP_plus_uconst 20] [$sp+0]
	@DEBUG_VALUE: mbedtls_debug_print_mpi:line <- [DW_OP_plus_uconst 24] [$sp+0]
	@DEBUG_VALUE: mbedtls_debug_print_mpi:text <- [DW_OP_plus_uconst 568] [$sp+0]
	@DEBUG_VALUE: mbedtls_debug_print_mpi:X <- [DW_OP_plus_uconst 572] [$sp+0]
	@DEBUG_VALUE: mbedtls_debug_print_mpi:zeros <- 0
	.loc	1 0 17 is_stmt 0                @ ../../../ThirdParty/mbedTLS/library/debug.c:0:17
	movs	r0, #15
	movw	r1, #512
	ands	r0, r4
	.loc	1 239 17                        @ ../../../ThirdParty/mbedTLS/library/debug.c:239:17
	bne	.LBB6_21
.Ltmp137:
@ %bb.27:                               @   in Loop: Header=BB6_23 Depth=2
	@DEBUG_VALUE: mbedtls_debug_print_mpi:idx <- $r7
	@DEBUG_VALUE: mbedtls_debug_print_mpi:j <- $r4
	@DEBUG_VALUE: mbedtls_debug_print_mpi:ssl <- [DW_OP_plus_uconst 16] [$sp+0]
	@DEBUG_VALUE: mbedtls_debug_print_mpi:level <- [DW_OP_plus_uconst 28] [$sp+0]
	@DEBUG_VALUE: mbedtls_debug_print_mpi:file <- [DW_OP_plus_uconst 20] [$sp+0]
	@DEBUG_VALUE: mbedtls_debug_print_mpi:line <- [DW_OP_plus_uconst 24] [$sp+0]
	@DEBUG_VALUE: mbedtls_debug_print_mpi:text <- [DW_OP_plus_uconst 568] [$sp+0]
	@DEBUG_VALUE: mbedtls_debug_print_mpi:X <- [DW_OP_plus_uconst 572] [$sp+0]
	@DEBUG_VALUE: mbedtls_debug_print_mpi:zeros <- 0
	.loc	1 0 17                          @ ../../../ThirdParty/mbedTLS/library/debug.c:0:17
	add	r6, sp, #36
.Ltmp138:
	.loc	1 243 43 is_stmt 1              @ ../../../ThirdParty/mbedTLS/library/debug.c:243:43
	adds	r0, r6, r7
	.loc	1 243 64 is_stmt 0              @ ../../../ThirdParty/mbedTLS/library/debug.c:243:64
	subs	r1, r1, r7
	.loc	1 243 21                        @ ../../../ThirdParty/mbedTLS/library/debug.c:243:21
	ldr	r2, __arm_cp.6_2
	bl	__2snprintf
	.loc	1 244 21 is_stmt 1              @ ../../../ThirdParty/mbedTLS/library/debug.c:244:21
	str	r6, [sp]
	ldr	r6, [sp, #12]                   @ 4-byte Reload
	ldr	r1, [sp, #28]                   @ 4-byte Reload
	add	r3, sp, #16
	ldm	r3, {r0, r2, r3}                @ 12-byte Folded Reload
	bl	debug_send_line
	movw	r1, #512
	movs	r7, #0
.Ltmp139:
	@DEBUG_VALUE: mbedtls_debug_print_mpi:idx <- 0
	.loc	1 0 21 is_stmt 0                @ ../../../ThirdParty/mbedTLS/library/debug.c:0:21
	b	.LBB6_21
.Ltmp140:
.LBB6_28:                               @   in Loop: Header=BB6_23 Depth=2
	@DEBUG_VALUE: mbedtls_debug_print_mpi:idx <- $r7
	@DEBUG_VALUE: mbedtls_debug_print_mpi:j <- $r4
	@DEBUG_VALUE: mbedtls_debug_print_mpi:ssl <- [DW_OP_plus_uconst 16] [$sp+0]
	@DEBUG_VALUE: mbedtls_debug_print_mpi:level <- [DW_OP_plus_uconst 28] [$sp+0]
	@DEBUG_VALUE: mbedtls_debug_print_mpi:file <- [DW_OP_plus_uconst 20] [$sp+0]
	@DEBUG_VALUE: mbedtls_debug_print_mpi:line <- [DW_OP_plus_uconst 24] [$sp+0]
	@DEBUG_VALUE: mbedtls_debug_print_mpi:text <- [DW_OP_plus_uconst 568] [$sp+0]
	@DEBUG_VALUE: mbedtls_debug_print_mpi:X <- [DW_OP_plus_uconst 572] [$sp+0]
	movs	r0, #1
	b	.LBB6_22
.Ltmp141:
.LBB6_29:
	@DEBUG_VALUE: mbedtls_debug_print_mpi:i <- $r5
	@DEBUG_VALUE: mbedtls_debug_print_mpi:ssl <- [DW_OP_plus_uconst 16] [$sp+0]
	@DEBUG_VALUE: mbedtls_debug_print_mpi:level <- [DW_OP_plus_uconst 28] [$sp+0]
	@DEBUG_VALUE: mbedtls_debug_print_mpi:file <- [DW_OP_plus_uconst 20] [$sp+0]
	@DEBUG_VALUE: mbedtls_debug_print_mpi:line <- [DW_OP_plus_uconst 24] [$sp+0]
	@DEBUG_VALUE: mbedtls_debug_print_mpi:text <- [DW_OP_plus_uconst 568] [$sp+0]
	@DEBUG_VALUE: mbedtls_debug_print_mpi:X <- [DW_OP_plus_uconst 572] [$sp+0]
	@DEBUG_VALUE: mbedtls_debug_print_mpi:j <- 0
	@DEBUG_VALUE: mbedtls_debug_print_mpi:zeros <- 1
	@DEBUG_VALUE: mbedtls_debug_print_mpi:idx <- 0
	movs	r7, #0
	movs	r0, #1
.Ltmp142:
.LBB6_30:
	@DEBUG_VALUE: mbedtls_debug_print_mpi:i <- $r5
	@DEBUG_VALUE: mbedtls_debug_print_mpi:ssl <- [DW_OP_plus_uconst 16] [$sp+0]
	@DEBUG_VALUE: mbedtls_debug_print_mpi:level <- [DW_OP_plus_uconst 28] [$sp+0]
	@DEBUG_VALUE: mbedtls_debug_print_mpi:file <- [DW_OP_plus_uconst 20] [$sp+0]
	@DEBUG_VALUE: mbedtls_debug_print_mpi:line <- [DW_OP_plus_uconst 24] [$sp+0]
	@DEBUG_VALUE: mbedtls_debug_print_mpi:text <- [DW_OP_plus_uconst 568] [$sp+0]
	@DEBUG_VALUE: mbedtls_debug_print_mpi:X <- [DW_OP_plus_uconst 572] [$sp+0]
	@DEBUG_VALUE: mbedtls_debug_print_mpi:zeros <- $r0
	@DEBUG_VALUE: mbedtls_debug_print_mpi:idx <- $r7
	.loc	1 257 9 is_stmt 1               @ ../../../ThirdParty/mbedTLS/library/debug.c:257:9
	cbz	r0, .LBB6_32
.Ltmp143:
@ %bb.31:
	@DEBUG_VALUE: mbedtls_debug_print_mpi:idx <- $r7
	@DEBUG_VALUE: mbedtls_debug_print_mpi:i <- $r5
	@DEBUG_VALUE: mbedtls_debug_print_mpi:zeros <- $r0
	@DEBUG_VALUE: mbedtls_debug_print_mpi:ssl <- [DW_OP_plus_uconst 16] [$sp+0]
	@DEBUG_VALUE: mbedtls_debug_print_mpi:level <- [DW_OP_plus_uconst 28] [$sp+0]
	@DEBUG_VALUE: mbedtls_debug_print_mpi:file <- [DW_OP_plus_uconst 20] [$sp+0]
	@DEBUG_VALUE: mbedtls_debug_print_mpi:line <- [DW_OP_plus_uconst 24] [$sp+0]
	@DEBUG_VALUE: mbedtls_debug_print_mpi:text <- [DW_OP_plus_uconst 568] [$sp+0]
	@DEBUG_VALUE: mbedtls_debug_print_mpi:X <- [DW_OP_plus_uconst 572] [$sp+0]
	.loc	1 0 9 is_stmt 0                 @ ../../../ThirdParty/mbedTLS/library/debug.c:0:9
	add	r0, sp, #36
.Ltmp144:
	.loc	1 258 38 is_stmt 1              @ ../../../ThirdParty/mbedTLS/library/debug.c:258:38
	adds	r0, r0, r7
	.loc	1 258 59 is_stmt 0              @ ../../../ThirdParty/mbedTLS/library/debug.c:258:59
	movw	r1, #512
	subs	r1, r1, r7
	.loc	1 258 16                        @ ../../../ThirdParty/mbedTLS/library/debug.c:258:16
	adr	r2, .LCPI6_4
	bl	__2snprintf
	.loc	1 258 13                        @ ../../../ThirdParty/mbedTLS/library/debug.c:258:13
	adds	r7, r0, r7
.Ltmp145:
	@DEBUG_VALUE: mbedtls_debug_print_mpi:idx <- $r7
.LBB6_32:
	@DEBUG_VALUE: mbedtls_debug_print_mpi:idx <- $r7
	@DEBUG_VALUE: mbedtls_debug_print_mpi:i <- $r5
	@DEBUG_VALUE: mbedtls_debug_print_mpi:ssl <- [DW_OP_plus_uconst 16] [$sp+0]
	@DEBUG_VALUE: mbedtls_debug_print_mpi:level <- [DW_OP_plus_uconst 28] [$sp+0]
	@DEBUG_VALUE: mbedtls_debug_print_mpi:file <- [DW_OP_plus_uconst 20] [$sp+0]
	@DEBUG_VALUE: mbedtls_debug_print_mpi:line <- [DW_OP_plus_uconst 24] [$sp+0]
	@DEBUG_VALUE: mbedtls_debug_print_mpi:text <- [DW_OP_plus_uconst 568] [$sp+0]
	@DEBUG_VALUE: mbedtls_debug_print_mpi:X <- [DW_OP_plus_uconst 572] [$sp+0]
	.loc	1 0 13                          @ ../../../ThirdParty/mbedTLS/library/debug.c:0:13
	movw	r1, #512
	@DEBUG_VALUE: mbedtls_debug_print_mpi:idx <- $r7
	add	r4, sp, #36
	.loc	1 260 27 is_stmt 1              @ ../../../ThirdParty/mbedTLS/library/debug.c:260:27
	adds	r0, r4, r7
	.loc	1 260 48 is_stmt 0              @ ../../../ThirdParty/mbedTLS/library/debug.c:260:48
	subs	r1, r1, r7
	.loc	1 260 5                         @ ../../../ThirdParty/mbedTLS/library/debug.c:260:5
	ldr	r2, __arm_cp.6_2
	bl	__2snprintf
	.loc	1 261 5 is_stmt 1               @ ../../../ThirdParty/mbedTLS/library/debug.c:261:5
	str	r4, [sp]
	ldr	r1, [sp, #28]                   @ 4-byte Reload
	add	r3, sp, #16
	ldm	r3, {r0, r2, r3}                @ 12-byte Folded Reload
	bl	debug_send_line
.Ltmp146:
.LBB6_33:
	@DEBUG_VALUE: mbedtls_debug_print_mpi:ssl <- [DW_OP_plus_uconst 16] [$sp+0]
	@DEBUG_VALUE: mbedtls_debug_print_mpi:level <- [DW_OP_plus_uconst 28] [$sp+0]
	@DEBUG_VALUE: mbedtls_debug_print_mpi:file <- [DW_OP_plus_uconst 20] [$sp+0]
	@DEBUG_VALUE: mbedtls_debug_print_mpi:line <- [DW_OP_plus_uconst 24] [$sp+0]
	@DEBUG_VALUE: mbedtls_debug_print_mpi:text <- [DW_OP_plus_uconst 568] [$sp+0]
	@DEBUG_VALUE: mbedtls_debug_print_mpi:X <- [DW_OP_plus_uconst 572] [$sp+0]
	.loc	1 262 1                         @ ../../../ThirdParty/mbedTLS/library/debug.c:262:1
	add	sp, #508
.Ltmp147:
	add	sp, #40
	pop	{r4, r5, r6, r7, pc}
.Ltmp148:
	.p2align	2
@ %bb.34:
	.loc	1 0 1 is_stmt 0                 @ ../../../ThirdParty/mbedTLS/library/debug.c:0:1
__arm_cp.6_0:
	.long	debug_threshold
.Lcpi_end10:
	.size	__arm_cp.6_0, .Lcpi_end10-__arm_cp.6_0
.LCPI6_1:
.L.str.8:
	.asciz	"value of '%s' (%d bits) is:\n\000\000\000"
__arm_cp.6_2:
	.long	.L.str.9
.Lcpi_end11:
	.size	__arm_cp.6_2, .Lcpi_end11-__arm_cp.6_2
__arm_cp.6_3:
	.long	.L.str.4
.Lcpi_end12:
	.size	__arm_cp.6_3, .Lcpi_end12-__arm_cp.6_3
.LCPI6_4:
.L.str.10:
	.asciz	" 00"
.Lfunc_end6:
	.size	mbedtls_debug_print_mpi, .Lfunc_end6-mbedtls_debug_print_mpi
	.cfi_endproc
	.cantunwind
	.fnend
                                        @ -- End function
	.section	.text.mbedtls_debug_print_crt,"ax",%progbits
	.hidden	mbedtls_debug_print_crt         @ -- Begin function mbedtls_debug_print_crt
	.globl	mbedtls_debug_print_crt
	.p2align	2
	.type	mbedtls_debug_print_crt,%function
	.code	16                              @ @mbedtls_debug_print_crt
	.thumb_func
mbedtls_debug_print_crt:
.Lfunc_begin7:
	.loc	1 332 0 is_stmt 1               @ ../../../ThirdParty/mbedTLS/library/debug.c:332:0
	.fnstart
	.cfi_startproc
@ %bb.0:
	@DEBUG_VALUE: mbedtls_debug_print_crt:ssl <- $r0
	@DEBUG_VALUE: mbedtls_debug_print_crt:level <- $r1
	@DEBUG_VALUE: mbedtls_debug_print_crt:file <- $r2
	@DEBUG_VALUE: mbedtls_debug_print_crt:line <- $r3
	.save	{r4, r5, r6, r7, lr}
	push	{r4, r5, r6, r7, lr}
	.cfi_def_cfa_offset 20
	.cfi_offset lr, -4
	.cfi_offset r7, -8
	.cfi_offset r6, -12
	.cfi_offset r5, -16
	.cfi_offset r4, -20
	ldr	r7, __arm_cp.7_4
	.pad	#1564
	add	sp, r7
	.cfi_def_cfa_offset 1584
	str	r3, [sp, #16]                   @ 4-byte Spill
	str	r2, [sp, #20]                   @ 4-byte Spill
	str	r1, [sp, #24]                   @ 4-byte Spill
	mov	r7, r0
.Ltmp149:
	@DEBUG_VALUE: mbedtls_debug_print_crt:i <- 0
	@DEBUG_VALUE: mbedtls_debug_print_crt:crt <- [DW_OP_plus_uconst 1588] [$sp+0]
	@DEBUG_VALUE: mbedtls_debug_print_crt:text <- [DW_OP_plus_uconst 1584] [$sp+0]
	@DEBUG_VALUE: mbedtls_debug_print_crt:line <- [DW_OP_plus_uconst 16] [$sp+0]
	@DEBUG_VALUE: mbedtls_debug_print_crt:file <- [DW_OP_plus_uconst 20] [$sp+0]
	@DEBUG_VALUE: mbedtls_debug_print_crt:level <- [DW_OP_plus_uconst 24] [$sp+0]
	@DEBUG_VALUE: mbedtls_debug_print_crt:ssl <- $r7
	.loc	1 336 14 prologue_end           @ ../../../ThirdParty/mbedTLS/library/debug.c:336:14
	ldr	r0, [r0]
	.loc	1 336 27 is_stmt 0              @ ../../../ThirdParty/mbedTLS/library/debug.c:336:27
	cmp	r0, #0
	beq	.LBB7_6
.Ltmp150:
@ %bb.1:
	@DEBUG_VALUE: mbedtls_debug_print_crt:ssl <- $r7
	@DEBUG_VALUE: mbedtls_debug_print_crt:level <- [DW_OP_plus_uconst 24] [$sp+0]
	@DEBUG_VALUE: mbedtls_debug_print_crt:file <- [DW_OP_plus_uconst 20] [$sp+0]
	@DEBUG_VALUE: mbedtls_debug_print_crt:line <- [DW_OP_plus_uconst 16] [$sp+0]
	@DEBUG_VALUE: mbedtls_debug_print_crt:text <- [DW_OP_plus_uconst 1584] [$sp+0]
	@DEBUG_VALUE: mbedtls_debug_print_crt:crt <- [DW_OP_plus_uconst 1588] [$sp+0]
	@DEBUG_VALUE: mbedtls_debug_print_crt:i <- 0
	.loc	1 0 27                          @ ../../../ThirdParty/mbedTLS/library/debug.c:0:27
	ldr	r4, __arm_cp.7_6
	add	r4, sp
	ldr	r4, [r4]
	.loc	1 336 55                        @ ../../../ThirdParty/mbedTLS/library/debug.c:336:55
	cmp	r4, #0
	beq	.LBB7_6
.Ltmp151:
@ %bb.2:
	@DEBUG_VALUE: mbedtls_debug_print_crt:ssl <- $r7
	@DEBUG_VALUE: mbedtls_debug_print_crt:level <- [DW_OP_plus_uconst 24] [$sp+0]
	@DEBUG_VALUE: mbedtls_debug_print_crt:file <- [DW_OP_plus_uconst 20] [$sp+0]
	@DEBUG_VALUE: mbedtls_debug_print_crt:line <- [DW_OP_plus_uconst 16] [$sp+0]
	@DEBUG_VALUE: mbedtls_debug_print_crt:text <- [DW_OP_plus_uconst 1584] [$sp+0]
	@DEBUG_VALUE: mbedtls_debug_print_crt:crt <- [DW_OP_plus_uconst 1588] [$sp+0]
	@DEBUG_VALUE: mbedtls_debug_print_crt:i <- 0
	.loc	1 0 0                           @ ../../../ThirdParty/mbedTLS/library/debug.c:0:0
	ldr	r0, [r0, #16]
	.loc	1 336 55                        @ ../../../ThirdParty/mbedTLS/library/debug.c:336:55
	cbz	r0, .LBB7_6
.Ltmp152:
@ %bb.3:
	@DEBUG_VALUE: mbedtls_debug_print_crt:ssl <- $r7
	@DEBUG_VALUE: mbedtls_debug_print_crt:level <- [DW_OP_plus_uconst 24] [$sp+0]
	@DEBUG_VALUE: mbedtls_debug_print_crt:file <- [DW_OP_plus_uconst 20] [$sp+0]
	@DEBUG_VALUE: mbedtls_debug_print_crt:line <- [DW_OP_plus_uconst 16] [$sp+0]
	@DEBUG_VALUE: mbedtls_debug_print_crt:text <- [DW_OP_plus_uconst 1584] [$sp+0]
	@DEBUG_VALUE: mbedtls_debug_print_crt:crt <- [DW_OP_plus_uconst 1588] [$sp+0]
	@DEBUG_VALUE: mbedtls_debug_print_crt:i <- 0
	.loc	1 0 55                          @ ../../../ThirdParty/mbedTLS/library/debug.c:0:55
	ldr	r0, __arm_cp.7_0
	ldr	r0, [r0]
	.loc	1 336 55                        @ ../../../ThirdParty/mbedTLS/library/debug.c:336:55
	ldr	r1, [sp, #24]                   @ 4-byte Reload
	cmp	r0, r1
	blt	.LBB7_6
.Ltmp153:
@ %bb.4:
	@DEBUG_VALUE: mbedtls_debug_print_crt:ssl <- $r7
	@DEBUG_VALUE: mbedtls_debug_print_crt:level <- [DW_OP_plus_uconst 24] [$sp+0]
	@DEBUG_VALUE: mbedtls_debug_print_crt:file <- [DW_OP_plus_uconst 20] [$sp+0]
	@DEBUG_VALUE: mbedtls_debug_print_crt:line <- [DW_OP_plus_uconst 16] [$sp+0]
	@DEBUG_VALUE: mbedtls_debug_print_crt:text <- [DW_OP_plus_uconst 1584] [$sp+0]
	@DEBUG_VALUE: mbedtls_debug_print_crt:crt <- [DW_OP_plus_uconst 1588] [$sp+0]
	@DEBUG_VALUE: mbedtls_debug_print_crt:i <- 0
	.loc	1 0 55                          @ ../../../ThirdParty/mbedTLS/library/debug.c:0:55
	ldr	r0, __arm_cp.7_7
	add	r0, sp
	ldr	r0, [r0]
	str	r0, [sp, #8]                    @ 4-byte Spill
	movs	r0, #1
	@DEBUG_VALUE: mbedtls_debug_print_crt:i <- 0
.Ltmp154:
	@DEBUG_VALUE: mbedtls_debug_print_crt:crt <- undef
	ldr	r6, [sp, #20]                   @ 4-byte Reload
.Ltmp155:
.LBB7_5:                                @ =>This Inner Loop Header: Depth=1
	@DEBUG_VALUE: mbedtls_debug_print_crt:ssl <- $r7
	@DEBUG_VALUE: mbedtls_debug_print_crt:level <- [DW_OP_plus_uconst 24] [$sp+0]
	@DEBUG_VALUE: mbedtls_debug_print_crt:file <- [DW_OP_plus_uconst 20] [$sp+0]
	@DEBUG_VALUE: mbedtls_debug_print_crt:line <- [DW_OP_plus_uconst 16] [$sp+0]
	@DEBUG_VALUE: mbedtls_debug_print_crt:text <- [DW_OP_plus_uconst 1584] [$sp+0]
	@DEBUG_VALUE: mbedtls_debug_print_crt:crt <- $r4
	@DEBUG_VALUE: mbedtls_debug_print_crt:i <- [DW_OP_plus_uconst 1, DW_OP_stack_value] undef
	.loc	1 343 9 is_stmt 1               @ ../../../ThirdParty/mbedTLS/library/debug.c:343:9
	str	r0, [sp, #12]                   @ 4-byte Spill
	str	r0, [sp]
	add	r5, sp, #1020
	adds	r5, #32
	mov	r0, r5
	movw	r1, #512
	adr	r2, .LCPI7_1
	ldr	r3, [sp, #8]                    @ 4-byte Reload
	bl	__2snprintf
	.loc	1 344 9                         @ ../../../ThirdParty/mbedTLS/library/debug.c:344:9
	str	r5, [sp]
	mov	r0, r7
	ldr	r1, [sp, #24]                   @ 4-byte Reload
	ldr	r2, [sp, #20]                   @ 4-byte Reload
	ldr	r3, [sp, #16]                   @ 4-byte Reload
	bl	debug_send_line
	add	r5, sp, #28
	.loc	1 346 9                         @ ../../../ThirdParty/mbedTLS/library/debug.c:346:9
	mov	r0, r5
	ldr	r1, __arm_cp.7_2
	ldr	r2, __arm_cp.7_3
	mov	r3, r4
	bl	mbedtls_x509_crt_info
	.loc	1 347 9                         @ ../../../ThirdParty/mbedTLS/library/debug.c:347:9
	str	r5, [sp]
	mov	r5, r7
.Ltmp156:
	@DEBUG_VALUE: mbedtls_debug_print_crt:ssl <- $r5
	@DEBUG_VALUE: mbedtls_debug_print_crt:ssl <- $r5
	.loc	1 0 9 is_stmt 0                 @ ../../../ThirdParty/mbedTLS/library/debug.c:0:9
	ldr	r7, [sp, #16]                   @ 4-byte Reload
	.loc	1 347 9                         @ ../../../ThirdParty/mbedTLS/library/debug.c:347:9
	mov	r0, r5
	ldr	r1, [sp, #24]                   @ 4-byte Reload
	mov	r2, r6
	mov	r3, r7
	bl	debug_print_line_by_line
	.loc	1 349 64 is_stmt 1              @ ../../../ThirdParty/mbedTLS/library/debug.c:349:64
	mov	r0, r4
	adds	r0, #204
	.loc	1 349 9 is_stmt 0               @ ../../../ThirdParty/mbedTLS/library/debug.c:349:9
	str	r0, [sp]
	mov	r0, r5
	ldr	r1, [sp, #24]                   @ 4-byte Reload
	mov	r2, r6
	mov	r3, r7
	mov	r7, r5
.Ltmp157:
	@DEBUG_VALUE: mbedtls_debug_print_crt:ssl <- $r7
	@DEBUG_VALUE: mbedtls_debug_print_crt:ssl <- $r7
	bl	debug_print_pk
	ldr	r0, [sp, #12]                   @ 4-byte Reload
	.loc	1 351 20 is_stmt 1              @ ../../../ThirdParty/mbedTLS/library/debug.c:351:20
	movw	r1, #320
	ldr	r4, [r4, r1]
.Ltmp158:
	@DEBUG_VALUE: mbedtls_debug_print_crt:crt <- $r4
	.loc	1 339 5                         @ ../../../ThirdParty/mbedTLS/library/debug.c:339:5
	adds	r0, r0, #1
	cmp	r4, #0
	bne	.LBB7_5
.Ltmp159:
.LBB7_6:
	@DEBUG_VALUE: mbedtls_debug_print_crt:ssl <- $r7
	@DEBUG_VALUE: mbedtls_debug_print_crt:level <- [DW_OP_plus_uconst 24] [$sp+0]
	@DEBUG_VALUE: mbedtls_debug_print_crt:file <- [DW_OP_plus_uconst 20] [$sp+0]
	@DEBUG_VALUE: mbedtls_debug_print_crt:line <- [DW_OP_plus_uconst 16] [$sp+0]
	@DEBUG_VALUE: mbedtls_debug_print_crt:text <- [DW_OP_plus_uconst 1584] [$sp+0]
	.loc	1 353 1                         @ ../../../ThirdParty/mbedTLS/library/debug.c:353:1
	ldr	r7, __arm_cp.7_5
.Ltmp160:
	add	sp, r7
.Ltmp161:
	pop	{r4, r5, r6, r7, pc}
.Ltmp162:
	.p2align	2
@ %bb.7:
	.loc	1 0 1 is_stmt 0                 @ ../../../ThirdParty/mbedTLS/library/debug.c:0:1
__arm_cp.7_0:
	.long	debug_threshold
.Lcpi_end13:
	.size	__arm_cp.7_0, .Lcpi_end13-__arm_cp.7_0
.LCPI7_1:
.L.str.11:
	.asciz	"%s #%d:\n\000\000\000"
__arm_cp.7_2:
	.long	1023                            @ 0x3ff
.Lcpi_end14:
	.size	__arm_cp.7_2, .Lcpi_end14-__arm_cp.7_2
__arm_cp.7_3:
	.long	.L.str.12
.Lcpi_end15:
	.size	__arm_cp.7_3, .Lcpi_end15-__arm_cp.7_3
__arm_cp.7_4:
	.long	4294965732                      @ 0xfffff9e4
.Lcpi_end16:
	.size	__arm_cp.7_4, .Lcpi_end16-__arm_cp.7_4
__arm_cp.7_5:
	.long	1564                            @ 0x61c
.Lcpi_end17:
	.size	__arm_cp.7_5, .Lcpi_end17-__arm_cp.7_5
__arm_cp.7_6:
	.long	1588                            @ 0x634
.Lcpi_end18:
	.size	__arm_cp.7_6, .Lcpi_end18-__arm_cp.7_6
__arm_cp.7_7:
	.long	1584                            @ 0x630
.Lcpi_end19:
	.size	__arm_cp.7_7, .Lcpi_end19-__arm_cp.7_7
.Lfunc_end7:
	.size	mbedtls_debug_print_crt, .Lfunc_end7-mbedtls_debug_print_crt
	.cfi_endproc
	.cantunwind
	.fnend
                                        @ -- End function
	.section	.text.debug_print_line_by_line,"ax",%progbits
	.p2align	2                               @ -- Begin function debug_print_line_by_line
	.type	debug_print_line_by_line,%function
	.code	16                              @ @debug_print_line_by_line
	.thumb_func
debug_print_line_by_line:
.Lfunc_begin8:
	.loc	1 306 0 is_stmt 1               @ ../../../ThirdParty/mbedTLS/library/debug.c:306:0
	.fnstart
	.cfi_startproc
@ %bb.0:
	@DEBUG_VALUE: debug_print_line_by_line:ssl <- $r0
	@DEBUG_VALUE: debug_print_line_by_line:level <- $r1
	@DEBUG_VALUE: debug_print_line_by_line:file <- $r2
	@DEBUG_VALUE: debug_print_line_by_line:line <- $r3
	.save	{r4, r5, r6, r7, lr}
	push	{r4, r5, r6, r7, lr}
	.cfi_def_cfa_offset 20
	.cfi_offset lr, -4
	.cfi_offset r7, -8
	.cfi_offset r6, -12
	.cfi_offset r5, -16
	.cfi_offset r4, -20
	.pad	#508
	sub	sp, #508
	.pad	#24
	sub	sp, #24
	.cfi_def_cfa_offset 552
	add	r4, sp, #8
	stm	r4!, {r1, r2, r3}               @ 12-byte Folded Spill
	mov	r7, r0
	ldr	r6, [sp, #552]
.Ltmp163:
	@DEBUG_VALUE: debug_print_line_by_line:cur <- $r6
	@DEBUG_VALUE: debug_print_line_by_line:start <- $r6
	@DEBUG_VALUE: debug_print_line_by_line:text <- [DW_OP_plus_uconst 552] [$sp+0]
	@DEBUG_VALUE: debug_print_line_by_line:line <- [DW_OP_plus_uconst 16] [$sp+0]
	@DEBUG_VALUE: debug_print_line_by_line:file <- [DW_OP_plus_uconst 12] [$sp+0]
	@DEBUG_VALUE: debug_print_line_by_line:level <- [DW_OP_plus_uconst 8] [$sp+0]
	@DEBUG_VALUE: debug_print_line_by_line:ssl <- $r7
	.loc	1 0 0 prologue_end              @ ../../../ThirdParty/mbedTLS/library/debug.c:0:0
	mov	r1, r6
	b	.LBB8_3
.Ltmp164:
.LBB8_1:                                @   in Loop: Header=BB8_3 Depth=1
	@DEBUG_VALUE: debug_print_line_by_line:ssl <- $r7
	@DEBUG_VALUE: debug_print_line_by_line:cur <- $r6
	@DEBUG_VALUE: debug_print_line_by_line:start <- $r1
	@DEBUG_VALUE: debug_print_line_by_line:level <- [DW_OP_plus_uconst 8] [$sp+0]
	@DEBUG_VALUE: debug_print_line_by_line:file <- [DW_OP_plus_uconst 12] [$sp+0]
	@DEBUG_VALUE: debug_print_line_by_line:line <- [DW_OP_plus_uconst 16] [$sp+0]
	@DEBUG_VALUE: debug_print_line_by_line:text <- [DW_OP_plus_uconst 552] [$sp+0]
	@DEBUG_VALUE: len <- $r4
	add	r5, sp, #20
.Ltmp165:
	.loc	1 319 13                        @ ../../../ThirdParty/mbedTLS/library/debug.c:319:13
	mov	r0, r5
	mov	r2, r4
	bl	__aeabi_memcpy
.Ltmp166:
	.loc	1 0 13 is_stmt 0                @ ../../../ThirdParty/mbedTLS/library/debug.c:0:13
	movs	r0, #0
	.loc	1 320 22 is_stmt 1              @ ../../../ThirdParty/mbedTLS/library/debug.c:320:22
	strb	r0, [r5, r4]
	.loc	1 322 13                        @ ../../../ThirdParty/mbedTLS/library/debug.c:322:13
	str	r5, [sp]
	mov	r0, r7
	add	r3, sp, #8
	ldm	r3, {r1, r2, r3}                @ 12-byte Folded Reload
	bl	debug_send_line
.Ltmp167:
	@DEBUG_VALUE: debug_print_line_by_line:start <- [DW_OP_plus_uconst 1, DW_OP_stack_value] $r6
	.loc	1 325 9                         @ ../../../ThirdParty/mbedTLS/library/debug.c:325:9
	adds	r1, r6, #1
.Ltmp168:
.LBB8_2:                                @   in Loop: Header=BB8_3 Depth=1
	@DEBUG_VALUE: debug_print_line_by_line:ssl <- $r7
	@DEBUG_VALUE: debug_print_line_by_line:cur <- $r6
	@DEBUG_VALUE: debug_print_line_by_line:level <- [DW_OP_plus_uconst 8] [$sp+0]
	@DEBUG_VALUE: debug_print_line_by_line:file <- [DW_OP_plus_uconst 12] [$sp+0]
	@DEBUG_VALUE: debug_print_line_by_line:line <- [DW_OP_plus_uconst 16] [$sp+0]
	@DEBUG_VALUE: debug_print_line_by_line:text <- [DW_OP_plus_uconst 552] [$sp+0]
	@DEBUG_VALUE: debug_print_line_by_line:start <- $r1
	.loc	1 311 39                        @ ../../../ThirdParty/mbedTLS/library/debug.c:311:39
	adds	r6, r6, #1
.Ltmp169:
	@DEBUG_VALUE: debug_print_line_by_line:cur <- $r6
.LBB8_3:                                @ =>This Inner Loop Header: Depth=1
	@DEBUG_VALUE: debug_print_line_by_line:ssl <- $r7
	@DEBUG_VALUE: debug_print_line_by_line:cur <- $r6
	@DEBUG_VALUE: debug_print_line_by_line:level <- [DW_OP_plus_uconst 8] [$sp+0]
	@DEBUG_VALUE: debug_print_line_by_line:file <- [DW_OP_plus_uconst 12] [$sp+0]
	@DEBUG_VALUE: debug_print_line_by_line:line <- [DW_OP_plus_uconst 16] [$sp+0]
	@DEBUG_VALUE: debug_print_line_by_line:text <- [DW_OP_plus_uconst 552] [$sp+0]
	@DEBUG_VALUE: debug_print_line_by_line:start <- $r1
	@DEBUG_VALUE: debug_print_line_by_line:cur <- $r6
	.loc	1 311 22 is_stmt 0              @ ../../../ThirdParty/mbedTLS/library/debug.c:311:22
	ldrb	r0, [r6]
.Ltmp170:
	.loc	1 311 5                         @ ../../../ThirdParty/mbedTLS/library/debug.c:311:5
	cmp	r0, #10
	beq	.LBB8_5
.Ltmp171:
@ %bb.4:                                @   in Loop: Header=BB8_3 Depth=1
	@DEBUG_VALUE: debug_print_line_by_line:ssl <- $r7
	@DEBUG_VALUE: debug_print_line_by_line:cur <- $r6
	@DEBUG_VALUE: debug_print_line_by_line:start <- $r1
	@DEBUG_VALUE: debug_print_line_by_line:level <- [DW_OP_plus_uconst 8] [$sp+0]
	@DEBUG_VALUE: debug_print_line_by_line:file <- [DW_OP_plus_uconst 12] [$sp+0]
	@DEBUG_VALUE: debug_print_line_by_line:line <- [DW_OP_plus_uconst 16] [$sp+0]
	@DEBUG_VALUE: debug_print_line_by_line:text <- [DW_OP_plus_uconst 552] [$sp+0]
	cmp	r0, #0
	bne	.LBB8_2
	b	.LBB8_7
.Ltmp172:
.LBB8_5:                                @   in Loop: Header=BB8_3 Depth=1
	@DEBUG_VALUE: debug_print_line_by_line:ssl <- $r7
	@DEBUG_VALUE: debug_print_line_by_line:cur <- $r6
	@DEBUG_VALUE: debug_print_line_by_line:start <- $r1
	@DEBUG_VALUE: debug_print_line_by_line:level <- [DW_OP_plus_uconst 8] [$sp+0]
	@DEBUG_VALUE: debug_print_line_by_line:file <- [DW_OP_plus_uconst 12] [$sp+0]
	@DEBUG_VALUE: debug_print_line_by_line:line <- [DW_OP_plus_uconst 16] [$sp+0]
	@DEBUG_VALUE: debug_print_line_by_line:text <- [DW_OP_plus_uconst 552] [$sp+0]
	.loc	1 315 30 is_stmt 1              @ ../../../ThirdParty/mbedTLS/library/debug.c:315:30
	subs	r0, r6, r1
	.loc	1 315 38 is_stmt 0              @ ../../../ThirdParty/mbedTLS/library/debug.c:315:38
	adds	r4, r0, #1
.Ltmp173:
	@DEBUG_VALUE: len <- $r4
	.loc	1 316 17 is_stmt 1              @ ../../../ThirdParty/mbedTLS/library/debug.c:316:17
	ldr	r0, __arm_cp.8_0
	cmp	r4, r0
	blo	.LBB8_1
.Ltmp174:
@ %bb.6:                                @   in Loop: Header=BB8_3 Depth=1
	@DEBUG_VALUE: debug_print_line_by_line:ssl <- $r7
	@DEBUG_VALUE: debug_print_line_by_line:cur <- $r6
	@DEBUG_VALUE: len <- $r4
	@DEBUG_VALUE: debug_print_line_by_line:start <- $r1
	@DEBUG_VALUE: debug_print_line_by_line:level <- [DW_OP_plus_uconst 8] [$sp+0]
	@DEBUG_VALUE: debug_print_line_by_line:file <- [DW_OP_plus_uconst 12] [$sp+0]
	@DEBUG_VALUE: debug_print_line_by_line:line <- [DW_OP_plus_uconst 16] [$sp+0]
	@DEBUG_VALUE: debug_print_line_by_line:text <- [DW_OP_plus_uconst 552] [$sp+0]
	ldr	r4, __arm_cp.8_0
.Ltmp175:
	.loc	1 0 17 is_stmt 0                @ ../../../ThirdParty/mbedTLS/library/debug.c:0:17
	b	.LBB8_1
.Ltmp176:
.LBB8_7:
	@DEBUG_VALUE: debug_print_line_by_line:ssl <- $r7
	@DEBUG_VALUE: debug_print_line_by_line:cur <- $r6
	@DEBUG_VALUE: debug_print_line_by_line:start <- $r1
	@DEBUG_VALUE: debug_print_line_by_line:level <- [DW_OP_plus_uconst 8] [$sp+0]
	@DEBUG_VALUE: debug_print_line_by_line:file <- [DW_OP_plus_uconst 12] [$sp+0]
	@DEBUG_VALUE: debug_print_line_by_line:line <- [DW_OP_plus_uconst 16] [$sp+0]
	@DEBUG_VALUE: debug_print_line_by_line:text <- [DW_OP_plus_uconst 552] [$sp+0]
	.loc	1 327 1 is_stmt 1               @ ../../../ThirdParty/mbedTLS/library/debug.c:327:1
	add	sp, #508
.Ltmp177:
	add	sp, #24
	pop	{r4, r5, r6, r7, pc}
.Ltmp178:
	.p2align	2
@ %bb.8:
	.loc	1 0 1 is_stmt 0                 @ ../../../ThirdParty/mbedTLS/library/debug.c:0:1
__arm_cp.8_0:
	.long	511                             @ 0x1ff
.Lcpi_end20:
	.size	__arm_cp.8_0, .Lcpi_end20-__arm_cp.8_0
.Lfunc_end8:
	.size	debug_print_line_by_line, .Lfunc_end8-debug_print_line_by_line
	.cfi_endproc
	.cantunwind
	.fnend
                                        @ -- End function
	.section	.text.debug_print_pk,"ax",%progbits
	.p2align	2                               @ -- Begin function debug_print_pk
	.type	debug_print_pk,%function
	.code	16                              @ @debug_print_pk
	.thumb_func
debug_print_pk:
.Lfunc_begin9:
	.loc	1 269 0 is_stmt 1               @ ../../../ThirdParty/mbedTLS/library/debug.c:269:0
	.fnstart
	.cfi_startproc
@ %bb.0:
	@DEBUG_VALUE: debug_print_pk:ssl <- $r0
	@DEBUG_VALUE: debug_print_pk:level <- $r1
	@DEBUG_VALUE: debug_print_pk:file <- $r2
	@DEBUG_VALUE: debug_print_pk:line <- $r3
	.save	{r4, r5, r6, r7, lr}
	push	{r4, r5, r6, r7, lr}
	.cfi_def_cfa_offset 20
	.cfi_offset lr, -4
	.cfi_offset r7, -8
	.cfi_offset r6, -12
	.cfi_offset r5, -16
	.cfi_offset r4, -20
	.pad	#76
	sub	sp, #76
	.cfi_def_cfa_offset 96
	mov	r5, r3
	mov	r7, r2
	str	r1, [sp, #20]                   @ 4-byte Spill
	mov	r6, r0
.Ltmp179:
	@DEBUG_VALUE: debug_print_pk:pk <- [DW_OP_plus_uconst 96] [$sp+0]
	@DEBUG_VALUE: debug_print_pk:line <- $r5
	@DEBUG_VALUE: debug_print_pk:file <- $r7
	@DEBUG_VALUE: debug_print_pk:level <- [DW_OP_plus_uconst 20] [$sp+0]
	@DEBUG_VALUE: debug_print_pk:ssl <- $r6
	add	r4, sp, #40
	movs	r1, #36
.Ltmp180:
	.loc	1 274 5 prologue_end            @ ../../../ThirdParty/mbedTLS/library/debug.c:274:5
	mov	r0, r4
	bl	__aeabi_memclr4
	ldr	r0, [sp, #96]
.Ltmp181:
	.loc	1 276 9                         @ ../../../ThirdParty/mbedTLS/library/debug.c:276:9
	mov	r1, r4
	bl	mbedtls_pk_debug
.Ltmp182:
	@DEBUG_VALUE: debug_print_pk:text <- undef
	.loc	1 276 9 is_stmt 0               @ ../../../ThirdParty/mbedTLS/library/debug.c:276:9
	cbz	r0, .LBB9_2
.Ltmp183:
@ %bb.1:
	@DEBUG_VALUE: debug_print_pk:file <- $r7
	@DEBUG_VALUE: debug_print_pk:ssl <- $r6
	@DEBUG_VALUE: debug_print_pk:line <- $r5
	@DEBUG_VALUE: debug_print_pk:level <- [DW_OP_plus_uconst 20] [$sp+0]
	@DEBUG_VALUE: debug_print_pk:pk <- [DW_OP_plus_uconst 96] [$sp+0]
	.loc	1 278 9 is_stmt 1               @ ../../../ThirdParty/mbedTLS/library/debug.c:278:9
	adr	r0, .LCPI9_0
	str	r0, [sp]
	mov	r0, r6
	ldr	r1, [sp, #20]                   @ 4-byte Reload
	mov	r2, r7
	mov	r3, r5
	bl	debug_send_line
.Ltmp184:
	.loc	1 302 1                         @ ../../../ThirdParty/mbedTLS/library/debug.c:302:1
	add	sp, #76
.Ltmp185:
	pop	{r4, r5, r6, r7, pc}
.Ltmp186:
.LBB9_2:
	@DEBUG_VALUE: debug_print_pk:file <- $r7
	@DEBUG_VALUE: debug_print_pk:ssl <- $r6
	@DEBUG_VALUE: debug_print_pk:line <- $r5
	@DEBUG_VALUE: debug_print_pk:level <- [DW_OP_plus_uconst 20] [$sp+0]
	@DEBUG_VALUE: debug_print_pk:pk <- [DW_OP_plus_uconst 96] [$sp+0]
	@DEBUG_VALUE: debug_print_pk:i <- 0
	.loc	1 0 1 is_stmt 0                 @ ../../../ThirdParty/mbedTLS/library/debug.c:0:1
	str	r6, [sp, #8]                    @ 4-byte Spill
.Ltmp187:
	@DEBUG_VALUE: debug_print_pk:ssl <- [DW_OP_plus_uconst 8] [$sp+0]
	movs	r6, #0
	movs	r0, #16
	str	r0, [sp, #16]                   @ 4-byte Spill
.Ltmp188:
	.loc	1 283 5 is_stmt 1               @ ../../../ThirdParty/mbedTLS/library/debug.c:283:5
	str	r5, [sp, #12]                   @ 4-byte Spill
.Ltmp189:
	@DEBUG_VALUE: debug_print_pk:line <- [DW_OP_plus_uconst 12] [$sp+0]
	.loc	1 0 5 is_stmt 0                 @ ../../../ThirdParty/mbedTLS/library/debug.c:0:5
	b	.LBB9_5
.Ltmp190:
.LBB9_3:                                @   in Loop: Header=BB9_5 Depth=1
	@DEBUG_VALUE: debug_print_pk:level <- [DW_OP_plus_uconst 20] [$sp+0]
	@DEBUG_VALUE: debug_print_pk:pk <- [DW_OP_plus_uconst 96] [$sp+0]
	.loc	1 299 17 is_stmt 1              @ ../../../ThirdParty/mbedTLS/library/debug.c:299:17
	adr	r0, .LCPI9_3
	str	r0, [sp]
	ldr	r0, [sp, #8]                    @ 4-byte Reload
.Ltmp191:
	@DEBUG_VALUE: debug_print_pk:ssl <- $r0
	ldr	r1, [sp, #20]                   @ 4-byte Reload
	mov	r7, r4
	mov	r2, r4
	ldr	r3, [sp, #12]                   @ 4-byte Reload
.Ltmp192:
	@DEBUG_VALUE: debug_print_pk:line <- $r3
	bl	debug_send_line
.Ltmp193:
.LBB9_4:                                @   in Loop: Header=BB9_5 Depth=1
	@DEBUG_VALUE: debug_print_pk:level <- [DW_OP_plus_uconst 20] [$sp+0]
	@DEBUG_VALUE: debug_print_pk:pk <- [DW_OP_plus_uconst 96] [$sp+0]
	@DEBUG_VALUE: debug_print_pk:i <- [DW_OP_plus_uconst 1, DW_OP_stack_value] undef
	.loc	1 283 19                        @ ../../../ThirdParty/mbedTLS/library/debug.c:283:19
	adds	r6, #12
.Ltmp194:
	.loc	1 283 5 is_stmt 0               @ ../../../ThirdParty/mbedTLS/library/debug.c:283:5
	cmp	r6, #36
	beq	.LBB9_10
.Ltmp195:
.LBB9_5:                                @ =>This Inner Loop Header: Depth=1
	@DEBUG_VALUE: debug_print_pk:level <- [DW_OP_plus_uconst 20] [$sp+0]
	@DEBUG_VALUE: debug_print_pk:pk <- [DW_OP_plus_uconst 96] [$sp+0]
	@DEBUG_VALUE: debug_print_pk:i <- undef
	.loc	1 0 5                           @ ../../../ThirdParty/mbedTLS/library/debug.c:0:5
	add	r0, sp, #40
.Ltmp196:
	.loc	1 285 22 is_stmt 1              @ ../../../ThirdParty/mbedTLS/library/debug.c:285:22
	ldrb	r0, [r0, r6]
.Ltmp197:
	.loc	1 285 13 is_stmt 0              @ ../../../ThirdParty/mbedTLS/library/debug.c:285:13
	cbz	r0, .LBB9_10
.Ltmp198:
@ %bb.6:                                @   in Loop: Header=BB9_5 Depth=1
	@DEBUG_VALUE: debug_print_pk:level <- [DW_OP_plus_uconst 20] [$sp+0]
	@DEBUG_VALUE: debug_print_pk:pk <- [DW_OP_plus_uconst 96] [$sp+0]
	.loc	1 0 13                          @ ../../../ThirdParty/mbedTLS/library/debug.c:0:13
	mov	r4, r7
.Ltmp199:
	@DEBUG_VALUE: debug_print_pk:file <- $r4
	add	r7, sp, #40
	.loc	1 288 72 is_stmt 1              @ ../../../ThirdParty/mbedTLS/library/debug.c:288:72
	adds	r0, r7, r6
	ldr	r0, [r0, #4]
	.loc	1 288 9 is_stmt 0               @ ../../../ThirdParty/mbedTLS/library/debug.c:288:9
	str	r0, [sp]
	add	r5, sp, #24
	mov	r0, r5
	ldr	r1, [sp, #16]                   @ 4-byte Reload
	adr	r2, .LCPI9_1
	adr	r3, .LCPI9_2
	bl	__2snprintf
	movs	r0, #0
	.loc	1 289 34 is_stmt 1              @ ../../../ThirdParty/mbedTLS/library/debug.c:289:34
	strb	r0, [r5, #15]
.Ltmp200:
	.loc	1 291 22                        @ ../../../ThirdParty/mbedTLS/library/debug.c:291:22
	ldrb	r0, [r7, r6]
.Ltmp201:
	.loc	1 291 13 is_stmt 0              @ ../../../ThirdParty/mbedTLS/library/debug.c:291:13
	cmp	r0, #2
	beq	.LBB9_9
.Ltmp202:
@ %bb.7:                                @   in Loop: Header=BB9_5 Depth=1
	@DEBUG_VALUE: debug_print_pk:level <- [DW_OP_plus_uconst 20] [$sp+0]
	@DEBUG_VALUE: debug_print_pk:pk <- [DW_OP_plus_uconst 96] [$sp+0]
	cmp	r0, #1
	bne	.LBB9_3
.Ltmp203:
@ %bb.8:                                @   in Loop: Header=BB9_5 Depth=1
	@DEBUG_VALUE: debug_print_pk:level <- [DW_OP_plus_uconst 20] [$sp+0]
	@DEBUG_VALUE: debug_print_pk:pk <- [DW_OP_plus_uconst 96] [$sp+0]
	.loc	1 0 13                          @ ../../../ThirdParty/mbedTLS/library/debug.c:0:13
	add	r0, sp, #40
.Ltmp204:
	.loc	1 292 77 is_stmt 1              @ ../../../ThirdParty/mbedTLS/library/debug.c:292:77
	adds	r0, r0, r6
	ldr	r0, [r0, #8]
	.loc	1 292 13 is_stmt 0              @ ../../../ThirdParty/mbedTLS/library/debug.c:292:13
	str	r0, [sp, #4]
	add	r0, sp, #24
	str	r0, [sp]
	ldr	r0, [sp, #8]                    @ 4-byte Reload
.Ltmp205:
	@DEBUG_VALUE: debug_print_pk:ssl <- $r0
	ldr	r1, [sp, #20]                   @ 4-byte Reload
	mov	r7, r4
	mov	r2, r4
	ldr	r3, [sp, #12]                   @ 4-byte Reload
.Ltmp206:
	@DEBUG_VALUE: debug_print_pk:line <- $r3
	bl	mbedtls_debug_print_mpi
.Ltmp207:
	.loc	1 0 13                          @ ../../../ThirdParty/mbedTLS/library/debug.c:0:13
	b	.LBB9_4
.Ltmp208:
.LBB9_9:                                @   in Loop: Header=BB9_5 Depth=1
	@DEBUG_VALUE: debug_print_pk:level <- [DW_OP_plus_uconst 20] [$sp+0]
	@DEBUG_VALUE: debug_print_pk:pk <- [DW_OP_plus_uconst 96] [$sp+0]
	add	r0, sp, #40
.Ltmp209:
	.loc	1 296 81 is_stmt 1              @ ../../../ThirdParty/mbedTLS/library/debug.c:296:81
	adds	r0, r0, r6
	ldr	r0, [r0, #8]
	.loc	1 296 17 is_stmt 0              @ ../../../ThirdParty/mbedTLS/library/debug.c:296:17
	str	r0, [sp, #4]
	add	r0, sp, #24
	str	r0, [sp]
	ldr	r0, [sp, #8]                    @ 4-byte Reload
.Ltmp210:
	@DEBUG_VALUE: debug_print_pk:ssl <- $r0
	ldr	r1, [sp, #20]                   @ 4-byte Reload
	mov	r7, r4
	mov	r2, r4
	ldr	r3, [sp, #12]                   @ 4-byte Reload
.Ltmp211:
	@DEBUG_VALUE: debug_print_pk:line <- $r3
	bl	mbedtls_debug_print_ecp
.Ltmp212:
	.loc	1 0 17                          @ ../../../ThirdParty/mbedTLS/library/debug.c:0:17
	b	.LBB9_4
.Ltmp213:
.LBB9_10:
	@DEBUG_VALUE: debug_print_pk:level <- [DW_OP_plus_uconst 20] [$sp+0]
	@DEBUG_VALUE: debug_print_pk:pk <- [DW_OP_plus_uconst 96] [$sp+0]
	.loc	1 302 1 is_stmt 1               @ ../../../ThirdParty/mbedTLS/library/debug.c:302:1
	add	sp, #76
.Ltmp214:
	pop	{r4, r5, r6, r7, pc}
.Ltmp215:
	.p2align	2
@ %bb.11:
	.loc	1 0 1 is_stmt 0                 @ ../../../ThirdParty/mbedTLS/library/debug.c:0:1
.LCPI9_0:
.L.str.14:
	.asciz	"invalid PK context\n"
.LCPI9_1:
.L.str.15:
	.asciz	"%s%s\000\000\000"
.LCPI9_2:
.L.str.13:
	.asciz	"crt->\000\000"
.LCPI9_3:
.L.str.16:
	.asciz	"should not happen\n\000"
.Lfunc_end9:
	.size	debug_print_pk, .Lfunc_end9-debug_print_pk
	.cfi_endproc
	.cantunwind
	.fnend
                                        @ -- End function
	.section	.text.mbedtls_debug_printf_ecdh,"ax",%progbits
	.hidden	mbedtls_debug_printf_ecdh       @ -- Begin function mbedtls_debug_printf_ecdh
	.globl	mbedtls_debug_printf_ecdh
	.p2align	1
	.type	mbedtls_debug_printf_ecdh,%function
	.code	16                              @ @mbedtls_debug_printf_ecdh
	.thumb_func
mbedtls_debug_printf_ecdh:
.Lfunc_begin10:
	.loc	1 392 0 is_stmt 1               @ ../../../ThirdParty/mbedTLS/library/debug.c:392:0
	.fnstart
	.cfi_startproc
@ %bb.0:
	@DEBUG_VALUE: mbedtls_debug_printf_ecdh:ssl <- $r0
	@DEBUG_VALUE: mbedtls_debug_printf_ecdh:ssl <- $r0
	@DEBUG_VALUE: mbedtls_debug_printf_ecdh:level <- $r1
	@DEBUG_VALUE: mbedtls_debug_printf_ecdh:level <- $r1
	@DEBUG_VALUE: mbedtls_debug_printf_ecdh:file <- $r2
	@DEBUG_VALUE: mbedtls_debug_printf_ecdh:file <- $r2
	@DEBUG_VALUE: mbedtls_debug_printf_ecdh:line <- $r3
	@DEBUG_VALUE: mbedtls_debug_printf_ecdh:line <- $r3
	@DEBUG_VALUE: mbedtls_debug_printf_ecdh:attr <- undef
	.save	{r4, lr}
	push	{r4, lr}
	.cfi_def_cfa_offset 8
	.cfi_offset lr, -4
	.cfi_offset r4, -8
	.pad	#8
	sub	sp, #8
	.cfi_def_cfa_offset 16
.Ltmp216:
	@DEBUG_VALUE: mbedtls_debug_printf_ecdh:ecdh <- [DW_OP_plus_uconst 16] [$sp+0]
	ldr	r4, [sp, #20]
.Ltmp217:
	.loc	1 394 5 prologue_end            @ ../../../ThirdParty/mbedTLS/library/debug.c:394:5
	str	r4, [sp, #4]
	ldr	r4, [sp, #16]
	str	r4, [sp]
	@DEBUG_VALUE: mbedtls_debug_printf_ecdh:line <- $r3
	@DEBUG_VALUE: mbedtls_debug_printf_ecdh:file <- $r2
	@DEBUG_VALUE: mbedtls_debug_printf_ecdh:level <- $r1
	@DEBUG_VALUE: mbedtls_debug_printf_ecdh:ssl <- $r0
	bl	mbedtls_debug_printf_ecdh_internal
.Ltmp218:
	@DEBUG_VALUE: mbedtls_debug_printf_ecdh:line <- [DW_OP_LLVM_entry_value 1] $r3
	@DEBUG_VALUE: mbedtls_debug_printf_ecdh:file <- [DW_OP_LLVM_entry_value 1] $r2
	@DEBUG_VALUE: mbedtls_debug_printf_ecdh:level <- [DW_OP_LLVM_entry_value 1] $r1
	@DEBUG_VALUE: mbedtls_debug_printf_ecdh:ssl <- [DW_OP_LLVM_entry_value 1] $r0
	.loc	1 403 1                         @ ../../../ThirdParty/mbedTLS/library/debug.c:403:1
	add	sp, #8
.Ltmp219:
	pop	{r4, pc}
.Ltmp220:
.Lfunc_end10:
	.size	mbedtls_debug_printf_ecdh, .Lfunc_end10-mbedtls_debug_printf_ecdh
	.cfi_endproc
	.cantunwind
	.fnend
                                        @ -- End function
	.section	.text.mbedtls_debug_printf_ecdh_internal,"ax",%progbits
	.p2align	2                               @ -- Begin function mbedtls_debug_printf_ecdh_internal
	.type	mbedtls_debug_printf_ecdh_internal,%function
	.code	16                              @ @mbedtls_debug_printf_ecdh_internal
	.thumb_func
mbedtls_debug_printf_ecdh_internal:
.Lfunc_begin11:
	.loc	1 362 0                         @ ../../../ThirdParty/mbedTLS/library/debug.c:362:0
	.fnstart
	.cfi_startproc
@ %bb.0:
	@DEBUG_VALUE: mbedtls_debug_printf_ecdh_internal:ssl <- $r0
	@DEBUG_VALUE: mbedtls_debug_printf_ecdh_internal:level <- $r1
	@DEBUG_VALUE: mbedtls_debug_printf_ecdh_internal:file <- $r2
	@DEBUG_VALUE: mbedtls_debug_printf_ecdh_internal:line <- $r3
	.save	{r4, r5, r7, lr}
	push	{r4, r5, r7, lr}
	.cfi_def_cfa_offset 16
	.cfi_offset lr, -4
	.cfi_offset r7, -8
	.cfi_offset r5, -12
	.cfi_offset r4, -16
	.pad	#8
	sub	sp, #8
	.cfi_def_cfa_offset 24
	ldr	r5, [sp, #28]
	ldr	r4, [sp, #24]
.Ltmp221:
	@DEBUG_VALUE: mbedtls_debug_printf_ecdh_internal:attr <- $r5
	@DEBUG_VALUE: mbedtls_debug_printf_ecdh_internal:ctx <- [DW_OP_plus_uconst 24] [$sp+0]
	@DEBUG_VALUE: mbedtls_debug_printf_ecdh_internal:ecdh <- [DW_OP_plus_uconst 24] [$sp+0]
	@DEBUG_VALUE: mbedtls_debug_printf_ecdh_internal:line <- $r3
	@DEBUG_VALUE: mbedtls_debug_printf_ecdh_internal:file <- $r2
	@DEBUG_VALUE: mbedtls_debug_printf_ecdh_internal:level <- $r1
	@DEBUG_VALUE: mbedtls_debug_printf_ecdh_internal:ssl <- $r0
	.loc	1 369 5 prologue_end            @ ../../../ThirdParty/mbedTLS/library/debug.c:369:5
	cmp	r5, #2
	beq	.LBB11_4
.Ltmp222:
@ %bb.1:
	@DEBUG_VALUE: mbedtls_debug_printf_ecdh_internal:attr <- $r5
	@DEBUG_VALUE: mbedtls_debug_printf_ecdh_internal:line <- $r3
	@DEBUG_VALUE: mbedtls_debug_printf_ecdh_internal:file <- $r2
	@DEBUG_VALUE: mbedtls_debug_printf_ecdh_internal:level <- $r1
	@DEBUG_VALUE: mbedtls_debug_printf_ecdh_internal:ssl <- $r0
	@DEBUG_VALUE: mbedtls_debug_printf_ecdh_internal:ecdh <- [DW_OP_plus_uconst 24] [$sp+0]
	@DEBUG_VALUE: mbedtls_debug_printf_ecdh_internal:ctx <- [DW_OP_plus_uconst 24] [$sp+0]
	cmp	r5, #1
	beq	.LBB11_6
.Ltmp223:
@ %bb.2:
	@DEBUG_VALUE: mbedtls_debug_printf_ecdh_internal:attr <- $r5
	@DEBUG_VALUE: mbedtls_debug_printf_ecdh_internal:line <- $r3
	@DEBUG_VALUE: mbedtls_debug_printf_ecdh_internal:file <- $r2
	@DEBUG_VALUE: mbedtls_debug_printf_ecdh_internal:level <- $r1
	@DEBUG_VALUE: mbedtls_debug_printf_ecdh_internal:ssl <- $r0
	@DEBUG_VALUE: mbedtls_debug_printf_ecdh_internal:ecdh <- [DW_OP_plus_uconst 24] [$sp+0]
	@DEBUG_VALUE: mbedtls_debug_printf_ecdh_internal:ctx <- [DW_OP_plus_uconst 24] [$sp+0]
	cbnz	r5, .LBB11_5
.Ltmp224:
@ %bb.3:
	@DEBUG_VALUE: mbedtls_debug_printf_ecdh_internal:attr <- $r5
	@DEBUG_VALUE: mbedtls_debug_printf_ecdh_internal:line <- $r3
	@DEBUG_VALUE: mbedtls_debug_printf_ecdh_internal:file <- $r2
	@DEBUG_VALUE: mbedtls_debug_printf_ecdh_internal:level <- $r1
	@DEBUG_VALUE: mbedtls_debug_printf_ecdh_internal:ssl <- $r0
	@DEBUG_VALUE: mbedtls_debug_printf_ecdh_internal:ecdh <- [DW_OP_plus_uconst 24] [$sp+0]
	@DEBUG_VALUE: mbedtls_debug_printf_ecdh_internal:ctx <- [DW_OP_plus_uconst 24] [$sp+0]
	.loc	1 372 9                         @ ../../../ThirdParty/mbedTLS/library/debug.c:372:9
	adr	r5, .LCPI11_2
.Ltmp225:
	.loc	1 373 40                        @ ../../../ThirdParty/mbedTLS/library/debug.c:373:40
	adds	r4, #136
	b	.LBB11_7
.Ltmp226:
.LBB11_4:
	@DEBUG_VALUE: mbedtls_debug_printf_ecdh_internal:attr <- $r5
	@DEBUG_VALUE: mbedtls_debug_printf_ecdh_internal:line <- $r3
	@DEBUG_VALUE: mbedtls_debug_printf_ecdh_internal:file <- $r2
	@DEBUG_VALUE: mbedtls_debug_printf_ecdh_internal:level <- $r1
	@DEBUG_VALUE: mbedtls_debug_printf_ecdh_internal:ssl <- $r0
	@DEBUG_VALUE: mbedtls_debug_printf_ecdh_internal:ecdh <- [DW_OP_plus_uconst 24] [$sp+0]
	@DEBUG_VALUE: mbedtls_debug_printf_ecdh_internal:ctx <- [DW_OP_plus_uconst 24] [$sp+0]
	.loc	1 380 9                         @ ../../../ThirdParty/mbedTLS/library/debug.c:380:9
	adr	r5, .LCPI11_0
.Ltmp227:
	.loc	1 381 40                        @ ../../../ThirdParty/mbedTLS/library/debug.c:381:40
	adds	r4, #208
	.loc	1 380 9                         @ ../../../ThirdParty/mbedTLS/library/debug.c:380:9
	str	r5, [sp]
	str	r4, [sp, #4]
	bl	mbedtls_debug_print_mpi
.Ltmp228:
	@DEBUG_VALUE: mbedtls_debug_printf_ecdh_internal:line <- [DW_OP_LLVM_entry_value 1] $r3
	@DEBUG_VALUE: mbedtls_debug_printf_ecdh_internal:file <- [DW_OP_LLVM_entry_value 1] $r2
	@DEBUG_VALUE: mbedtls_debug_printf_ecdh_internal:level <- [DW_OP_LLVM_entry_value 1] $r1
	@DEBUG_VALUE: mbedtls_debug_printf_ecdh_internal:ssl <- [DW_OP_LLVM_entry_value 1] $r0
.LBB11_5:
	@DEBUG_VALUE: mbedtls_debug_printf_ecdh_internal:ecdh <- [DW_OP_plus_uconst 24] [$sp+0]
	@DEBUG_VALUE: mbedtls_debug_printf_ecdh_internal:ctx <- [DW_OP_plus_uconst 24] [$sp+0]
	.loc	1 386 1                         @ ../../../ThirdParty/mbedTLS/library/debug.c:386:1
	add	sp, #8
.Ltmp229:
	pop	{r4, r5, r7, pc}
.LBB11_6:
.Ltmp230:
	@DEBUG_VALUE: mbedtls_debug_printf_ecdh_internal:attr <- $r5
	@DEBUG_VALUE: mbedtls_debug_printf_ecdh_internal:line <- $r3
	@DEBUG_VALUE: mbedtls_debug_printf_ecdh_internal:file <- $r2
	@DEBUG_VALUE: mbedtls_debug_printf_ecdh_internal:level <- $r1
	@DEBUG_VALUE: mbedtls_debug_printf_ecdh_internal:ssl <- $r0
	@DEBUG_VALUE: mbedtls_debug_printf_ecdh_internal:ecdh <- [DW_OP_plus_uconst 24] [$sp+0]
	@DEBUG_VALUE: mbedtls_debug_printf_ecdh_internal:ctx <- [DW_OP_plus_uconst 24] [$sp+0]
	.loc	1 376 9                         @ ../../../ThirdParty/mbedTLS/library/debug.c:376:9
	adr	r5, .LCPI11_1
.Ltmp231:
	.loc	1 377 40                        @ ../../../ThirdParty/mbedTLS/library/debug.c:377:40
	adds	r4, #172
.Ltmp232:
.LBB11_7:
	@DEBUG_VALUE: mbedtls_debug_printf_ecdh_internal:line <- $r3
	@DEBUG_VALUE: mbedtls_debug_printf_ecdh_internal:file <- $r2
	@DEBUG_VALUE: mbedtls_debug_printf_ecdh_internal:level <- $r1
	@DEBUG_VALUE: mbedtls_debug_printf_ecdh_internal:ssl <- $r0
	@DEBUG_VALUE: mbedtls_debug_printf_ecdh_internal:ecdh <- [DW_OP_plus_uconst 24] [$sp+0]
	@DEBUG_VALUE: mbedtls_debug_printf_ecdh_internal:ctx <- [DW_OP_plus_uconst 24] [$sp+0]
	.loc	1 0 0 is_stmt 0                 @ ../../../ThirdParty/mbedTLS/library/debug.c:0:0
	str	r5, [sp]
	str	r4, [sp, #4]
	bl	mbedtls_debug_print_ecp
.Ltmp233:
	@DEBUG_VALUE: mbedtls_debug_printf_ecdh_internal:line <- [DW_OP_LLVM_entry_value 1] $r3
	@DEBUG_VALUE: mbedtls_debug_printf_ecdh_internal:file <- [DW_OP_LLVM_entry_value 1] $r2
	@DEBUG_VALUE: mbedtls_debug_printf_ecdh_internal:level <- [DW_OP_LLVM_entry_value 1] $r1
	@DEBUG_VALUE: mbedtls_debug_printf_ecdh_internal:ssl <- [DW_OP_LLVM_entry_value 1] $r0
	.loc	1 386 1 is_stmt 1               @ ../../../ThirdParty/mbedTLS/library/debug.c:386:1
	add	sp, #8
.Ltmp234:
	pop	{r4, r5, r7, pc}
.Ltmp235:
	.p2align	2
@ %bb.8:
	.loc	1 0 1 is_stmt 0                 @ ../../../ThirdParty/mbedTLS/library/debug.c:0:1
.LCPI11_0:
.L.str.19:
	.asciz	"ECDH: z"
.LCPI11_1:
.L.str.18:
	.asciz	"ECDH: Qp\000\000\000"
.LCPI11_2:
.L.str.17:
	.asciz	"ECDH: Q"
.Lfunc_end11:
	.size	mbedtls_debug_printf_ecdh_internal, .Lfunc_end11-mbedtls_debug_printf_ecdh_internal
	.cfi_endproc
	.cantunwind
	.fnend
                                        @ -- End function
	.type	debug_threshold,%object         @ @debug_threshold
	.section	.bss.debug_threshold,"aw",%nobits
	.p2align	2
debug_threshold:
	.long	0                               @ 0x0
	.size	debug_threshold, 4

	.type	.L.str.2,%object                @ @.str.2
	.section	.rodata.str1.1,"aMS",%progbits,1
.L.str.2:
	.asciz	"  %s\n"
	.size	.L.str.2, 6

	.type	.L.str.4,%object                @ @.str.4
.L.str.4:
	.asciz	" %02x"
	.size	.L.str.4, 6

	.type	.L.str.9,%object                @ @.str.9
.L.str.9:
	.asciz	"\n"
	.size	.L.str.9, 2

	.type	.L.str.12,%object               @ @.str.12
.L.str.12:
	.zero	1
	.size	.L.str.12, 1

	.globl	_printf_percent
	.globl	_printf_flags
	.globl	_printf_widthprec
	.globl	_printf_pre_padding
	.globl	_printf_return_value
	.globl	_printf_s
	.globl	_printf_x
	.globl	_printf_d
	.globl	_printf_u
	.globl	_printf_int_dec
	.globl	_printf_longlong_hex
	.globl	_printf_str
	.hidden	_printf_percent
	.hidden	_printf_flags
	.hidden	_printf_widthprec
	.hidden	_printf_pre_padding
	.hidden	_printf_return_value
	.hidden	_printf_s
	.hidden	_printf_x
	.hidden	_printf_d
	.hidden	_printf_u
	.hidden	_printf_int_dec
	.hidden	_printf_longlong_hex
	.hidden	_printf_str
	.file	6 "C:\\Users\\shw26\\OneDrive\\Desktop\\2021\\2021-1\\\354\272\241\354\212\244\355\206\244\353\224\224\354\236\220\354\235\2702\\Nuvoton\\M2351_BSP_v3.00.004\\M2351Series_BSP_CMSIS_V3.00.004\\MyProject\\PulseMonitoring\\Secure" "../../../ThirdParty/mbedTLS/library\\debug.c"
	.file	7 "C:\\" "Keil_v5\\ARM\\ARMCLANG\\Bin\\..\\include\\stdarg.h"
	.file	8 "C:\\Users\\shw26\\OneDrive\\Desktop\\2021\\2021-1\\\354\272\241\354\212\244\355\206\244\353\224\224\354\236\220\354\235\2702\\Nuvoton\\M2351_BSP_v3.00.004\\M2351Series_BSP_CMSIS_V3.00.004\\MyProject\\PulseMonitoring\\Secure" "../../../ThirdParty/mbedTLS/include/mbedtls/ssl.h"
	.file	9 "C:\\" "Keil_v5\\ARM\\ARMCLANG\\Bin\\..\\include\\stdio.h"
	.file	10 "C:\\" "Keil_v5\\ARM\\ARMCLANG\\Bin\\..\\include\\stdint.h"
	.file	11 "C:\\Users\\shw26\\OneDrive\\Desktop\\2021\\2021-1\\\354\272\241\354\212\244\355\206\244\353\224\224\354\236\220\354\235\2702\\Nuvoton\\M2351_BSP_v3.00.004\\M2351Series_BSP_CMSIS_V3.00.004\\MyProject\\PulseMonitoring\\Secure" "../../../ThirdParty/mbedTLS/include/mbedtls/x509_crt.h"
	.file	12 "C:\\Users\\shw26\\OneDrive\\Desktop\\2021\\2021-1\\\354\272\241\354\212\244\355\206\244\353\224\224\354\236\220\354\235\2702\\Nuvoton\\M2351_BSP_v3.00.004\\M2351Series_BSP_CMSIS_V3.00.004\\MyProject\\PulseMonitoring\\Secure" "../../../ThirdParty/mbedTLS/include/mbedtls/asn1.h"
	.file	13 "C:\\Users\\shw26\\OneDrive\\Desktop\\2021\\2021-1\\\354\272\241\354\212\244\355\206\244\353\224\224\354\236\220\354\235\2702\\Nuvoton\\M2351_BSP_v3.00.004\\M2351Series_BSP_CMSIS_V3.00.004\\MyProject\\PulseMonitoring\\Secure" "../../../ThirdParty/mbedTLS/include/mbedtls/x509.h"
	.file	14 "C:\\Users\\shw26\\OneDrive\\Desktop\\2021\\2021-1\\\354\272\241\354\212\244\355\206\244\353\224\224\354\236\220\354\235\2702\\Nuvoton\\M2351_BSP_v3.00.004\\M2351Series_BSP_CMSIS_V3.00.004\\MyProject\\PulseMonitoring\\Secure" "../../../ThirdParty/mbedTLS/include/mbedtls/x509_crl.h"
	.file	15 "C:\\Users\\shw26\\OneDrive\\Desktop\\2021\\2021-1\\\354\272\241\354\212\244\355\206\244\353\224\224\354\236\220\354\235\2702\\Nuvoton\\M2351_BSP_v3.00.004\\M2351Series_BSP_CMSIS_V3.00.004\\MyProject\\PulseMonitoring\\Secure" "../../../ThirdParty/mbedTLS/include/mbedtls/bignum.h"
	.file	16 "C:\\Users\\shw26\\OneDrive\\Desktop\\2021\\2021-1\\\354\272\241\354\212\244\355\206\244\353\224\224\354\236\220\354\235\2702\\Nuvoton\\M2351_BSP_v3.00.004\\M2351Series_BSP_CMSIS_V3.00.004\\MyProject\\PulseMonitoring\\Secure" "../../../ThirdParty/mbedTLS/include/mbedtls/ecdh.h"
	.section	".note.GNU-stack","",%progbits
	.eabi_attribute	30, 1	@ Tag_ABI_optimization_goals
	.ARM_attribute	16, 1	@ Tag_AV_eba