	.text
	.syntax unified
	.eabi_attribute	67, "2.09"	@ Tag_conformance
	.cpu	cortex-m23
	.eabi_attribute	6, 16	@ Tag_CPU_arch
	.eabi_attribute	7, 77	@ Tag_CPU_arch_profile
	.eabi_attribute	8, 0	@ Tag_ARM_ISA_use
	.eabi_attribute	9, 3	@ Tag_THUMB_ISA_use
	.eabi_attribute	34, 0	@ Tag_CPU_unaligned_access
	.eabi_attribute	17, 1	@ Tag_ABI_PCS_GOT_use
	.eabi_attribute	20, 2	@ Tag_ABI_FP_denormal
	.eabi_attribute	21, 0	@ Tag_ABI_FP_exceptions
	.eabi_attribute	23, 1	@ Tag_ABI_FP_number_model
	.eabi_attribute	24, 1	@ Tag_ABI_align_needed
	.eabi_attribute	25, 1	@ Tag_ABI_align_preserved
	.eabi_attribute	38, 1	@ Tag_ABI_FP_16bit_format
	.eabi_attribute	18, 2	@ Tag_ABI_PCS_wchar_t
	.eabi_attribute	26, 1	@ Tag_ABI_enum_size
	.eabi_attribute	14, 0	@ Tag_ABI_PCS_R9_use
	.file	"des.c"
	.file	1 "C:\\Users\\shw26\\OneDrive\\Desktop\\2021\\2021-1\\\354\272\241\354\212\244\355\206\244\353\224\224\354\236\220\354\235\2702\\Nuvoton\\M2351_BSP_v3.00.004\\M2351Series_BSP_CMSIS_V3.00.004\\MyProject\\PulseMonitoring\\Secure" "../../../ThirdParty/mbedTLS/library/des.c"
	.file	2 "C:\\" "Keil_v5\\ARM\\ARMCLANG\\Bin\\..\\include\\stdint.h"
	.section	.text.mbedtls_des_init,"ax",%progbits
	.hidden	mbedtls_des_init                @ -- Begin function mbedtls_des_init
	.globl	mbedtls_des_init
	.p2align	1
	.type	mbedtls_des_init,%function
	.code	16                              @ @mbedtls_des_init
	.thumb_func
mbedtls_des_init:
.Lfunc_begin0:
	.loc	1 306 0                         @ ../../../ThirdParty/mbedTLS/library/des.c:306:0
	.fnstart
	.cfi_sections .debug_frame
	.cfi_startproc
@ %bb.0:
	@DEBUG_VALUE: mbedtls_des_init:ctx <- $r0
	@DEBUG_VALUE: mbedtls_des_init:ctx <- $r0
	.save	{r7, lr}
	push	{r7, lr}
	.cfi_def_cfa_offset 8
	.cfi_offset lr, -4
	.cfi_offset r7, -8
	movs	r1, #128
	@DEBUG_VALUE: mbedtls_des_init:ctx <- $r0
.Ltmp0:
	.loc	1 307 5 prologue_end            @ ../../../ThirdParty/mbedTLS/library/des.c:307:5
	bl	__aeabi_memclr4
.Ltmp1:
	@DEBUG_VALUE: mbedtls_des_init:ctx <- [DW_OP_LLVM_entry_value 1] $r0
	.loc	1 308 1                         @ ../../../ThirdParty/mbedTLS/library/des.c:308:1
	pop	{r7, pc}
.Ltmp2:
.Lfunc_end0:
	.size	mbedtls_des_init, .Lfunc_end0-mbedtls_des_init
	.cfi_endproc
	.cantunwind
	.fnend
                                        @ -- End function
	.section	.text.mbedtls_des_free,"ax",%progbits
	.hidden	mbedtls_des_free                @ -- Begin function mbedtls_des_free
	.globl	mbedtls_des_free
	.p2align	1
	.type	mbedtls_des_free,%function
	.code	16                              @ @mbedtls_des_free
	.thumb_func
mbedtls_des_free:
.Lfunc_begin1:
	.loc	1 311 0                         @ ../../../ThirdParty/mbedTLS/library/des.c:311:0
	.fnstart
	.cfi_startproc
@ %bb.0:
	@DEBUG_VALUE: mbedtls_des_free:ctx <- $r0
	@DEBUG_VALUE: mbedtls_des_free:ctx <- $r0
	.save	{r7, lr}
	push	{r7, lr}
	.cfi_def_cfa_offset 8
	.cfi_offset lr, -4
	.cfi_offset r7, -8
.Ltmp3:
	.loc	1 312 9 prologue_end            @ ../../../ThirdParty/mbedTLS/library/des.c:312:9
	cbz	r0, .LBB1_2
.Ltmp4:
@ %bb.1:
	@DEBUG_VALUE: mbedtls_des_free:ctx <- $r0
	.loc	1 0 9 is_stmt 0                 @ ../../../ThirdParty/mbedTLS/library/des.c:0:9
	movs	r1, #128
	.loc	1 315 5 is_stmt 1               @ ../../../ThirdParty/mbedTLS/library/des.c:315:5
	bl	mbedtls_platform_zeroize
.Ltmp5:
	@DEBUG_VALUE: mbedtls_des_free:ctx <- [DW_OP_LLVM_entry_value 1] $r0
.LBB1_2:
	.loc	1 316 1                         @ ../../../ThirdParty/mbedTLS/library/des.c:316:1
	pop	{r7, pc}
.Ltmp6:
.Lfunc_end1:
	.size	mbedtls_des_free, .Lfunc_end1-mbedtls_des_free
	.cfi_endproc
	.cantunwind
	.fnend
                                        @ -- End function
	.section	.text.mbedtls_des3_init,"ax",%progbits
	.hidden	mbedtls_des3_init               @ -- Begin function mbedtls_des3_init
	.globl	mbedtls_des3_init
	.p2align	1
	.type	mbedtls_des3_init,%function
	.code	16                              @ @mbedtls_des3_init
	.thumb_func
mbedtls_des3_init:
.Lfunc_begin2:
	.loc	1 319 0                         @ ../../../ThirdParty/mbedTLS/library/des.c:319:0
	.fnstart
	.cfi_startproc
@ %bb.0:
	@DEBUG_VALUE: mbedtls_des3_init:ctx <- $r0
	@DEBUG_VALUE: mbedtls_des3_init:ctx <- $r0
	@DEBUG_VALUE: mbedtls_des3_init:ctx <- $r0
	.save	{r7, lr}
	push	{r7, lr}
	.cfi_def_cfa_offset 8
	.cfi_offset lr, -4
	.cfi_offset r7, -8
.Ltmp7:
	.loc	1 320 5 prologue_end            @ ../../../ThirdParty/mbedTLS/library/des.c:320:5
	movw	r1, #384
	bl	__aeabi_memclr4
.Ltmp8:
	@DEBUG_VALUE: mbedtls_des3_init:ctx <- [DW_OP_LLVM_entry_value 1] $r0
	.loc	1 321 1                         @ ../../../ThirdParty/mbedTLS/library/des.c:321:1
	pop	{r7, pc}
.Ltmp9:
.Lfunc_end2:
	.size	mbedtls_des3_init, .Lfunc_end2-mbedtls_des3_init
	.cfi_endproc
	.cantunwind
	.fnend
                                        @ -- End function
	.section	.text.mbedtls_des3_free,"ax",%progbits
	.hidden	mbedtls_des3_free               @ -- Begin function mbedtls_des3_free
	.globl	mbedtls_des3_free
	.p2align	1
	.type	mbedtls_des3_free,%function
	.code	16                              @ @mbedtls_des3_free
	.thumb_func
mbedtls_des3_free:
.Lfunc_begin3:
	.loc	1 324 0                         @ ../../../ThirdParty/mbedTLS/library/des.c:324:0
	.fnstart
	.cfi_startproc
@ %bb.0:
	@DEBUG_VALUE: mbedtls_des3_free:ctx <- $r0
	@DEBUG_VALUE: mbedtls_des3_free:ctx <- $r0
	.save	{r7, lr}
	push	{r7, lr}
	.cfi_def_cfa_offset 8
	.cfi_offset lr, -4
	.cfi_offset r7, -8
.Ltmp10:
	.loc	1 325 9 prologue_end            @ ../../../ThirdParty/mbedTLS/library/des.c:325:9
	cbz	r0, .LBB3_2
.Ltmp11:
@ %bb.1:
	@DEBUG_VALUE: mbedtls_des3_free:ctx <- $r0
	.loc	1 328 5                         @ ../../../ThirdParty/mbedTLS/library/des.c:328:5
	movw	r1, #384
	bl	mbedtls_platform_zeroize
.Ltmp12:
	@DEBUG_VALUE: mbedtls_des3_free:ctx <- [DW_OP_LLVM_entry_value 1] $r0
.LBB3_2:
	.loc	1 329 1                         @ ../../../ThirdParty/mbedTLS/library/des.c:329:1
	pop	{r7, pc}
.Ltmp13:
.Lfunc_end3:
	.size	mbedtls_des3_free, .Lfunc_end3-mbedtls_des3_free
	.cfi_endproc
	.cantunwind
	.fnend
                                        @ -- End function
	.section	.text.mbedtls_des_key_set_parity,"ax",%progbits
	.hidden	mbedtls_des_key_set_parity      @ -- Begin function mbedtls_des_key_set_parity
	.globl	mbedtls_des_key_set_parity
	.p2align	2
	.type	mbedtls_des_key_set_parity,%function
	.code	16                              @ @mbedtls_des_key_set_parity
	.thumb_func
mbedtls_des_key_set_parity:
.Lfunc_begin4:
	.loc	1 344 0                         @ ../../../ThirdParty/mbedTLS/library/des.c:344:0
	.fnstart
	.cfi_startproc
@ %bb.0:
	@DEBUG_VALUE: mbedtls_des_key_set_parity:key <- $r0
	@DEBUG_VALUE: mbedtls_des_key_set_parity:key <- $r0
	movs	r1, #0
.Ltmp14:
	@DEBUG_VALUE: mbedtls_des_key_set_parity:i <- 0
	ldr	r2, __arm_cp.4_0
.Ltmp15:
.LBB4_1:                                @ =>This Inner Loop Header: Depth=1
	@DEBUG_VALUE: mbedtls_des_key_set_parity:key <- $r0
	@DEBUG_VALUE: mbedtls_des_key_set_parity:i <- $r1
	.loc	1 348 35 prologue_end           @ ../../../ThirdParty/mbedTLS/library/des.c:348:35
	ldrb	r3, [r0, r1]
	.loc	1 348 42 is_stmt 0              @ ../../../ThirdParty/mbedTLS/library/des.c:348:42
	lsrs	r3, r3, #1
	.loc	1 348 18                        @ ../../../ThirdParty/mbedTLS/library/des.c:348:18
	ldrb	r3, [r2, r3]
	.loc	1 348 16                        @ ../../../ThirdParty/mbedTLS/library/des.c:348:16
	strb	r3, [r0, r1]
	.loc	1 347 44 is_stmt 1              @ ../../../ThirdParty/mbedTLS/library/des.c:347:44
	adds	r1, r1, #1
.Ltmp16:
	@DEBUG_VALUE: mbedtls_des_key_set_parity:i <- $r1
	.loc	1 347 5 is_stmt 0               @ ../../../ThirdParty/mbedTLS/library/des.c:347:5
	cmp	r1, #8
	bne	.LBB4_1
.Ltmp17:
@ %bb.2:
	@DEBUG_VALUE: mbedtls_des_key_set_parity:i <- $r1
	@DEBUG_VALUE: mbedtls_des_key_set_parity:key <- $r0
	.loc	1 349 1 is_stmt 1               @ ../../../ThirdParty/mbedTLS/library/des.c:349:1
	bx	lr
.Ltmp18:
	.p2align	2
@ %bb.3:
	.loc	1 0 1 is_stmt 0                 @ ../../../ThirdParty/mbedTLS/library/des.c:0:1
__arm_cp.4_0:
	.long	odd_parity_table
.Lcpi_end0:
	.size	__arm_cp.4_0, .Lcpi_end0-__arm_cp.4_0
.Lfunc_end4:
	.size	mbedtls_des_key_set_parity, .Lfunc_end4-mbedtls_des_key_set_parity
	.cfi_endproc
	.cantunwind
	.fnend
                                        @ -- End function
	.section	.text.mbedtls_des_key_check_key_parity,"ax",%progbits
	.hidden	mbedtls_des_key_check_key_parity @ -- Begin function mbedtls_des_key_check_key_parity
	.globl	mbedtls_des_key_check_key_parity
	.p2align	2
	.type	mbedtls_des_key_check_key_parity,%function
	.code	16                              @ @mbedtls_des_key_check_key_parity
	.thumb_func
mbedtls_des_key_check_key_parity:
.Lfunc_begin5:
	.loc	1 355 0 is_stmt 1               @ ../../../ThirdParty/mbedTLS/library/des.c:355:0
	.fnstart
	.cfi_startproc
@ %bb.0:
	@DEBUG_VALUE: mbedtls_des_key_check_key_parity:key <- $r0
	.save	{r4, r5, r6, lr}
	push	{r4, r5, r6, lr}
	.cfi_def_cfa_offset 16
	.cfi_offset lr, -4
	.cfi_offset r6, -8
	.cfi_offset r5, -12
	.cfi_offset r4, -16
	mov	r1, r0
	movs	r2, #0
	ldr	r3, __arm_cp.5_0
	movs	r0, #1
.Ltmp19:
	@DEBUG_VALUE: mbedtls_des_key_check_key_parity:key <- [DW_OP_LLVM_entry_value 1] $r0
	mov	r4, r2
.Ltmp20:
	@DEBUG_VALUE: mbedtls_des_key_check_key_parity:i <- 0
	@DEBUG_VALUE: mbedtls_des_key_check_key_parity:key <- $r1
.LBB5_1:                                @ =>This Inner Loop Header: Depth=1
	@DEBUG_VALUE: mbedtls_des_key_check_key_parity:key <- $r1
	@DEBUG_VALUE: mbedtls_des_key_check_key_parity:i <- $r4
	.loc	1 359 13 prologue_end           @ ../../../ThirdParty/mbedTLS/library/des.c:359:13
	ldrb	r5, [r1, r4]
	.loc	1 359 47 is_stmt 0              @ ../../../ThirdParty/mbedTLS/library/des.c:359:47
	lsrs	r6, r5, #1
	.loc	1 359 23                        @ ../../../ThirdParty/mbedTLS/library/des.c:359:23
	ldrb	r6, [r3, r6]
.Ltmp21:
	@DEBUG_VALUE: mbedtls_des_key_check_key_parity:i <- [DW_OP_plus_uconst 1, DW_OP_stack_value] $r4
	.loc	1 359 13                        @ ../../../ThirdParty/mbedTLS/library/des.c:359:13
	cmp	r5, r6
	bne	.LBB5_4
.Ltmp22:
@ %bb.2:                                @   in Loop: Header=BB5_1 Depth=1
	@DEBUG_VALUE: mbedtls_des_key_check_key_parity:i <- [DW_OP_plus_uconst 1, DW_OP_stack_value] $r4
	@DEBUG_VALUE: mbedtls_des_key_check_key_parity:key <- $r1
	.loc	1 358 44 is_stmt 1              @ ../../../ThirdParty/mbedTLS/library/des.c:358:44
	adds	r4, r4, #1
.Ltmp23:
	@DEBUG_VALUE: mbedtls_des_key_check_key_parity:i <- [DW_OP_plus_uconst 1, DW_OP_stack_value] $r4
	.loc	1 358 5 is_stmt 0               @ ../../../ThirdParty/mbedTLS/library/des.c:358:5
	cmp	r4, #8
	bne	.LBB5_1
.Ltmp24:
@ %bb.3:
	@DEBUG_VALUE: mbedtls_des_key_check_key_parity:i <- [DW_OP_plus_uconst 1, DW_OP_stack_value] $r4
	@DEBUG_VALUE: mbedtls_des_key_check_key_parity:key <- $r1
	.loc	1 0 0                           @ ../../../ThirdParty/mbedTLS/library/des.c:0:0
	mov	r0, r2
.Ltmp25:
.LBB5_4:
	@DEBUG_VALUE: mbedtls_des_key_check_key_parity:i <- [DW_OP_plus_uconst 1, DW_OP_stack_value] $r4
	@DEBUG_VALUE: mbedtls_des_key_check_key_parity:key <- $r1
	.loc	1 363 1 is_stmt 1               @ ../../../ThirdParty/mbedTLS/library/des.c:363:1
	pop	{r4, r5, r6, pc}
.Ltmp26:
	.p2align	2
@ %bb.5:
	.loc	1 0 1 is_stmt 0                 @ ../../../ThirdParty/mbedTLS/library/des.c:0:1
__arm_cp.5_0:
	.long	odd_parity_table
.Lcpi_end1:
	.size	__arm_cp.5_0, .Lcpi_end1-__arm_cp.5_0
.Lfunc_end5:
	.size	mbedtls_des_key_check_key_parity, .Lfunc_end5-mbedtls_des_key_check_key_parity
	.cfi_endproc
	.cantunwind
	.fnend
                                        @ -- End function
	.section	.text.mbedtls_des_key_check_weak,"ax",%progbits
	.hidden	mbedtls_des_key_check_weak      @ -- Begin function mbedtls_des_key_check_weak
	.globl	mbedtls_des_key_check_weak
	.p2align	2
	.type	mbedtls_des_key_check_weak,%function
	.code	16                              @ @mbedtls_des_key_check_weak
	.thumb_func
mbedtls_des_key_check_weak:
.Lfunc_begin6:
	.loc	1 410 0 is_stmt 1               @ ../../../ThirdParty/mbedTLS/library/des.c:410:0
	.fnstart
	.cfi_startproc
@ %bb.0:
	@DEBUG_VALUE: mbedtls_des_key_check_weak:key <- $r0
	.save	{r4, r5, r6, r7, lr}
	push	{r4, r5, r6, r7, lr}
	.cfi_def_cfa_offset 20
	.cfi_offset lr, -4
	.cfi_offset r7, -8
	.cfi_offset r6, -12
	.cfi_offset r5, -16
	.cfi_offset r4, -20
	.pad	#12
	sub	sp, #12
	.cfi_def_cfa_offset 32
	mov	r5, r0
	movs	r7, #0
	ldr	r4, __arm_cp.6_0
	movs	r6, #8
	movs	r0, #1
.Ltmp27:
	@DEBUG_VALUE: mbedtls_des_key_check_weak:key <- [DW_OP_LLVM_entry_value 1] $r0
	str	r0, [sp, #8]                    @ 4-byte Spill
	str	r7, [sp, #4]                    @ 4-byte Spill
.Ltmp28:
	@DEBUG_VALUE: mbedtls_des_key_check_weak:i <- 0
	@DEBUG_VALUE: mbedtls_des_key_check_weak:key <- $r5
.LBB6_1:                                @ =>This Inner Loop Header: Depth=1
	@DEBUG_VALUE: mbedtls_des_key_check_weak:key <- $r5
	@DEBUG_VALUE: mbedtls_des_key_check_weak:i <- undef
	.loc	1 414 13 prologue_end           @ ../../../ThirdParty/mbedTLS/library/des.c:414:13
	adds	r0, r4, r7
	mov	r1, r5
	mov	r2, r6
	bl	memcmp
.Ltmp29:
	@DEBUG_VALUE: mbedtls_des_key_check_weak:i <- [DW_OP_plus_uconst 1, DW_OP_stack_value] undef
	.loc	1 0 13 is_stmt 0                @ ../../../ThirdParty/mbedTLS/library/des.c:0:13
	cbz	r0, .LBB6_4
.Ltmp30:
@ %bb.2:                                @   in Loop: Header=BB6_1 Depth=1
	@DEBUG_VALUE: mbedtls_des_key_check_weak:key <- $r5
	@DEBUG_VALUE: mbedtls_des_key_check_weak:i <- [DW_OP_plus_uconst 1, DW_OP_stack_value] undef
	.loc	1 413 19 is_stmt 1              @ ../../../ThirdParty/mbedTLS/library/des.c:413:19
	adds	r7, #8
.Ltmp31:
	.loc	1 413 5 is_stmt 0               @ ../../../ThirdParty/mbedTLS/library/des.c:413:5
	cmp	r7, #128
	bne	.LBB6_1
.Ltmp32:
@ %bb.3:
	@DEBUG_VALUE: mbedtls_des_key_check_weak:key <- $r5
	.loc	1 0 0                           @ ../../../ThirdParty/mbedTLS/library/des.c:0:0
	ldr	r0, [sp, #4]                    @ 4-byte Reload
	.loc	1 418 1 is_stmt 1               @ ../../../ThirdParty/mbedTLS/library/des.c:418:1
	add	sp, #12
	pop	{r4, r5, r6, r7, pc}
.Ltmp33:
.LBB6_4:
	@DEBUG_VALUE: mbedtls_des_key_check_weak:key <- $r5
	.loc	1 0 1 is_stmt 0                 @ ../../../ThirdParty/mbedTLS/library/des.c:0:1
	ldr	r0, [sp, #8]                    @ 4-byte Reload
	.loc	1 418 1                         @ ../../../ThirdParty/mbedTLS/library/des.c:418:1
	add	sp, #12
	pop	{r4, r5, r6, r7, pc}
.Ltmp34:
	.p2align	2
@ %bb.5:
	.loc	1 0 1                           @ ../../../ThirdParty/mbedTLS/library/des.c:0:1
__arm_cp.6_0:
	.long	weak_key_table
.Lcpi_end2:
	.size	__arm_cp.6_0, .Lcpi_end2-__arm_cp.6_0
.Lfunc_end6:
	.size	mbedtls_des_key_check_weak, .Lfunc_end6-mbedtls_des_key_check_weak
	.cfi_endproc
	.cantunwind
	.fnend
                                        @ -- End function
	.section	.text.mbedtls_des_setkey,"ax",%progbits
	.hidden	mbedtls_des_setkey              @ -- Begin function mbedtls_des_setkey
	.globl	mbedtls_des_setkey
	.p2align	2
	.type	mbedtls_des_setkey,%function
	.code	16                              @ @mbedtls_des_setkey
	.thumb_func
mbedtls_des_setkey:
.Lfunc_begin7:
	.loc	1 422 0 is_stmt 1               @ ../../../ThirdParty/mbedTLS/library/des.c:422:0
	.fnstart
	.cfi_startproc
@ %bb.0:
	@DEBUG_VALUE: mbedtls_des_setkey:SK <- $r0
	@DEBUG_VALUE: mbedtls_des_setkey:key <- $r1
	.save	{r4, r5, r6, r7, lr}
	push	{r4, r5, r6, r7, lr}
	.cfi_def_cfa_offset 20
	.cfi_offset lr, -4
	.cfi_offset r7, -8
	.cfi_offset r6, -12
	.cfi_offset r5, -16
	.cfi_offset r4, -20
	.pad	#84
	sub	sp, #84
	.cfi_def_cfa_offset 104
	str	r0, [sp, #72]                   @ 4-byte Spill
	@DEBUG_VALUE: mbedtls_des_setkey:key <- $r1
.Ltmp35:
	@DEBUG_VALUE: mbedtls_des_setkey:SK <- [DW_OP_plus_uconst 72] [$sp+0]
	.loc	1 426 5 prologue_end            @ ../../../ThirdParty/mbedTLS/library/des.c:426:5
	ldrb	r2, [r1]
	lsls	r0, r2, #24
	ldrb	r3, [r1, #1]
	lsls	r3, r3, #16
	adds	r0, r3, r0
	ldrb	r3, [r1, #2]
	lsls	r3, r3, #8
	adds	r0, r0, r3
	ldrb	r3, [r1, #3]
	adds	r3, r0, r3
.Ltmp36:
	@DEBUG_VALUE: mbedtls_des_setkey:X <- undef
	.loc	1 427 5                         @ ../../../ThirdParty/mbedTLS/library/des.c:427:5
	ldrb	r0, [r1, #4]
	lsls	r0, r0, #24
	ldrb	r4, [r1, #5]
	lsls	r4, r4, #16
	adds	r0, r4, r0
	ldrb	r4, [r1, #6]
	lsls	r4, r4, #8
	adds	r0, r0, r4
	ldrb	r1, [r1, #7]
.Ltmp37:
	@DEBUG_VALUE: mbedtls_des_setkey:key <- [DW_OP_LLVM_entry_value 1] $r1
	adds	r1, r0, r1
.Ltmp38:
	@DEBUG_VALUE: mbedtls_des_setkey:Y <- $r1
	.loc	1 432 14                        @ ../../../ThirdParty/mbedTLS/library/des.c:432:14
	lsrs	r0, r1, #4
	.loc	1 432 21 is_stmt 0              @ ../../../ThirdParty/mbedTLS/library/des.c:432:21
	str	r3, [sp, #80]                   @ 4-byte Spill
	eors	r0, r3
	ldr	r5, __arm_cp.7_0
	.loc	1 432 26                        @ ../../../ThirdParty/mbedTLS/library/des.c:432:26
	ands	r5, r0
.Ltmp39:
	@DEBUG_VALUE: mbedtls_des_setkey:T <- $r5
	.loc	1 433 7 is_stmt 1               @ ../../../ThirdParty/mbedTLS/library/des.c:433:7
	mov	r6, r5
	eors	r6, r3
	.loc	1 439 12                        @ ../../../ThirdParty/mbedTLS/library/des.c:439:12
	lsls	r0, r6, #28
	lsrs	r0, r0, #26
	ldr	r4, __arm_cp.7_1
	ldr	r0, [r4, r0]
	.loc	1 439 34 is_stmt 0              @ ../../../ThirdParty/mbedTLS/library/des.c:439:34
	lsls	r7, r0, #3
	.loc	1 439 43                        @ ../../../ThirdParty/mbedTLS/library/des.c:439:43
	lsrs	r0, r6, #6
	movs	r3, #60
	ands	r0, r3
	ldr	r0, [r4, r0]
	.loc	1 439 66                        @ ../../../ThirdParty/mbedTLS/library/des.c:439:66
	lsls	r0, r0, #2
	.loc	1 439 40                        @ ../../../ThirdParty/mbedTLS/library/des.c:439:40
	orrs	r0, r7
	.loc	1 440 14 is_stmt 1              @ ../../../ThirdParty/mbedTLS/library/des.c:440:14
	lsrs	r7, r6, #14
	ands	r7, r3
	ldr	r7, [r4, r7]
	.loc	1 440 36 is_stmt 0              @ ../../../ThirdParty/mbedTLS/library/des.c:440:36
	lsls	r7, r7, #1
	.loc	1 440 11                        @ ../../../ThirdParty/mbedTLS/library/des.c:440:11
	orrs	r7, r0
	.loc	1 440 45                        @ ../../../ThirdParty/mbedTLS/library/des.c:440:45
	lsrs	r0, r6, #22
	ands	r0, r3
	ldr	r0, [r4, r0]
	.loc	1 440 42                        @ ../../../ThirdParty/mbedTLS/library/des.c:440:42
	orrs	r0, r7
	.loc	1 441 14 is_stmt 1              @ ../../../ThirdParty/mbedTLS/library/des.c:441:14
	lsrs	r7, r6, #3
	ands	r7, r3
	ldr	r7, [r4, r7]
	.loc	1 441 36 is_stmt 0              @ ../../../ThirdParty/mbedTLS/library/des.c:441:36
	lsls	r7, r7, #7
	.loc	1 441 11                        @ ../../../ThirdParty/mbedTLS/library/des.c:441:11
	orrs	r7, r0
	.loc	1 441 45                        @ ../../../ThirdParty/mbedTLS/library/des.c:441:45
	lsrs	r0, r6, #11
	ands	r0, r3
	ldr	r0, [r4, r0]
	.loc	1 441 68                        @ ../../../ThirdParty/mbedTLS/library/des.c:441:68
	lsls	r0, r0, #6
	.loc	1 441 42                        @ ../../../ThirdParty/mbedTLS/library/des.c:441:42
	orrs	r0, r7
	.loc	1 442 14 is_stmt 1              @ ../../../ThirdParty/mbedTLS/library/des.c:442:14
	lsrs	r6, r6, #19
	ands	r6, r3
	ldr	r6, [r4, r6]
	.loc	1 442 36 is_stmt 0              @ ../../../ThirdParty/mbedTLS/library/des.c:442:36
	lsls	r6, r6, #5
	.loc	1 442 11                        @ ../../../ThirdParty/mbedTLS/library/des.c:442:11
	orrs	r6, r0
	.loc	1 442 45                        @ ../../../ThirdParty/mbedTLS/library/des.c:442:45
	lsrs	r0, r2, #3
	movs	r2, #28
	.loc	1 442 53                        @ ../../../ThirdParty/mbedTLS/library/des.c:442:53
	ands	r2, r0
	.loc	1 442 45                        @ ../../../ThirdParty/mbedTLS/library/des.c:442:45
	ldr	r0, [r4, r2]
	.loc	1 442 68                        @ ../../../ThirdParty/mbedTLS/library/des.c:442:68
	lsls	r2, r0, #4
	.loc	1 442 42                        @ ../../../ThirdParty/mbedTLS/library/des.c:442:42
	orrs	r2, r6
.Ltmp40:
	@DEBUG_VALUE: mbedtls_des_setkey:X <- $r2
	.loc	1 0 42                          @ ../../../ThirdParty/mbedTLS/library/des.c:0:42
	ldr	r0, __arm_cp.7_2
	.loc	1 449 7 is_stmt 1               @ ../../../ThirdParty/mbedTLS/library/des.c:449:7
	adds	r4, r0, #1
	ands	r2, r4
.Ltmp41:
	@DEBUG_VALUE: mbedtls_des_setkey:X <- undef
	.loc	1 434 13                        @ ../../../ThirdParty/mbedTLS/library/des.c:434:13
	lsls	r0, r5, #4
	.loc	1 434 7 is_stmt 0               @ ../../../ThirdParty/mbedTLS/library/des.c:434:7
	eors	r0, r1
.Ltmp42:
	@DEBUG_VALUE: mbedtls_des_setkey:Y <- $r0
	.loc	1 0 7                           @ ../../../ThirdParty/mbedTLS/library/des.c:0:7
	ldr	r1, __arm_cp.7_3
	.loc	1 437 7 is_stmt 1               @ ../../../ThirdParty/mbedTLS/library/des.c:437:7
	ands	r1, r0
	ldr	r0, __arm_cp.7_4
.Ltmp43:
	@DEBUG_VALUE: mbedtls_des_setkey:T <- [DW_OP_constu 269488144, DW_OP_and, DW_OP_stack_value] undef
	@DEBUG_VALUE: mbedtls_des_setkey:X <- undef
	ldr	r5, [sp, #80]                   @ 4-byte Reload
	ands	r0, r5
	adds	r1, r1, r0
.Ltmp44:
	@DEBUG_VALUE: mbedtls_des_setkey:Y <- $r1
	.loc	1 444 12                        @ ../../../ThirdParty/mbedTLS/library/des.c:444:12
	lsls	r5, r1, #1
	ands	r5, r3
	ldr	r0, __arm_cp.7_5
	ldr	r5, [r0, r5]
	.loc	1 444 34 is_stmt 0              @ ../../../ThirdParty/mbedTLS/library/des.c:444:34
	lsls	r5, r5, #3
	.loc	1 444 43                        @ ../../../ThirdParty/mbedTLS/library/des.c:444:43
	lsrs	r6, r1, #7
	ands	r6, r3
	ldr	r6, [r0, r6]
	.loc	1 444 66                        @ ../../../ThirdParty/mbedTLS/library/des.c:444:66
	lsls	r6, r6, #2
	.loc	1 444 40                        @ ../../../ThirdParty/mbedTLS/library/des.c:444:40
	orrs	r6, r5
	.loc	1 445 14 is_stmt 1              @ ../../../ThirdParty/mbedTLS/library/des.c:445:14
	lsrs	r5, r1, #15
	ands	r5, r3
	ldr	r5, [r0, r5]
	.loc	1 445 36 is_stmt 0              @ ../../../ThirdParty/mbedTLS/library/des.c:445:36
	lsls	r5, r5, #1
	.loc	1 445 11                        @ ../../../ThirdParty/mbedTLS/library/des.c:445:11
	orrs	r5, r6
	.loc	1 445 45                        @ ../../../ThirdParty/mbedTLS/library/des.c:445:45
	lsrs	r6, r1, #23
	ands	r6, r3
	ldr	r6, [r0, r6]
	.loc	1 445 42                        @ ../../../ThirdParty/mbedTLS/library/des.c:445:42
	orrs	r6, r5
	.loc	1 446 14 is_stmt 1              @ ../../../ThirdParty/mbedTLS/library/des.c:446:14
	lsrs	r5, r1, #2
	ands	r5, r3
	ldr	r5, [r0, r5]
	.loc	1 446 36 is_stmt 0              @ ../../../ThirdParty/mbedTLS/library/des.c:446:36
	lsls	r5, r5, #7
	.loc	1 446 11                        @ ../../../ThirdParty/mbedTLS/library/des.c:446:11
	orrs	r5, r6
	.loc	1 446 45                        @ ../../../ThirdParty/mbedTLS/library/des.c:446:45
	lsrs	r6, r1, #10
	ands	r6, r3
	ldr	r6, [r0, r6]
	.loc	1 446 68                        @ ../../../ThirdParty/mbedTLS/library/des.c:446:68
	lsls	r6, r6, #6
	.loc	1 446 42                        @ ../../../ThirdParty/mbedTLS/library/des.c:446:42
	orrs	r6, r5
	.loc	1 447 14 is_stmt 1              @ ../../../ThirdParty/mbedTLS/library/des.c:447:14
	lsrs	r5, r1, #18
	ands	r5, r3
	ldr	r3, [r0, r5]
	.loc	1 447 36 is_stmt 0              @ ../../../ThirdParty/mbedTLS/library/des.c:447:36
	lsls	r3, r3, #5
	.loc	1 447 11                        @ ../../../ThirdParty/mbedTLS/library/des.c:447:11
	orrs	r3, r6
	.loc	1 447 53                        @ ../../../ThirdParty/mbedTLS/library/des.c:447:53
	lsrs	r1, r1, #28
.Ltmp45:
	lsls	r1, r1, #2
	.loc	1 447 45                        @ ../../../ThirdParty/mbedTLS/library/des.c:447:45
	ldr	r0, [r0, r1]
	.loc	1 447 68                        @ ../../../ThirdParty/mbedTLS/library/des.c:447:68
	lsls	r5, r0, #4
	.loc	1 447 42                        @ ../../../ThirdParty/mbedTLS/library/des.c:447:42
	orrs	r5, r3
.Ltmp46:
	@DEBUG_VALUE: mbedtls_des_setkey:Y <- $r5
	.loc	1 450 7 is_stmt 1               @ ../../../ThirdParty/mbedTLS/library/des.c:450:7
	ands	r5, r4
.Ltmp47:
	@DEBUG_VALUE: mbedtls_des_setkey:Y <- $r5
	.loc	1 0 7 is_stmt 0                 @ ../../../ThirdParty/mbedTLS/library/des.c:0:7
	movs	r1, #1
	lsls	r0, r1, #16
	str	r0, [sp, #64]                   @ 4-byte Spill
	lsls	r0, r1, #17
	str	r0, [sp, #60]                   @ 4-byte Spill
	lsls	r0, r1, #18
	str	r0, [sp, #56]                   @ 4-byte Spill
	lsls	r0, r1, #20
	str	r0, [sp, #52]                   @ 4-byte Spill
	lsls	r0, r1, #21
	str	r0, [sp, #48]                   @ 4-byte Spill
	lsls	r0, r1, #24
	str	r0, [sp, #44]                   @ 4-byte Spill
	lsls	r0, r1, #27
	str	r0, [sp, #40]                   @ 4-byte Spill
	movs	r3, #0
.Ltmp48:
	@DEBUG_VALUE: mbedtls_des_setkey:i <- 0
	@DEBUG_VALUE: mbedtls_des_setkey:X <- $r2
	@DEBUG_VALUE: mbedtls_des_setkey:SK <- undef
	str	r1, [sp, #68]                   @ 4-byte Spill
	b	.LBB7_3
.Ltmp49:
.LBB7_1:                                @   in Loop: Header=BB7_3 Depth=1
	@DEBUG_VALUE: mbedtls_des_setkey:Y <- $r5
	@DEBUG_VALUE: mbedtls_des_setkey:i <- $r3
	@DEBUG_VALUE: mbedtls_des_setkey:X <- $r2
	@DEBUG_VALUE: mbedtls_des_setkey:SK <- [DW_OP_plus_uconst 72] [$sp+0]
	@DEBUG_VALUE: mbedtls_des_setkey:key <- [DW_OP_LLVM_entry_value 1] $r1
	@DEBUG_VALUE: mbedtls_des_setkey:X <- undef
	@DEBUG_VALUE: mbedtls_des_setkey:Y <- undef
	ldr	r3, __arm_cp.7_2
.Ltmp50:
	subs	r0, r3, #2
	movs	r4, #26
	movs	r6, #2
.Ltmp51:
.LBB7_2:                                @   in Loop: Header=BB7_3 Depth=1
	@DEBUG_VALUE: mbedtls_des_setkey:SK <- [DW_OP_plus_uconst 72] [$sp+0]
	@DEBUG_VALUE: mbedtls_des_setkey:key <- [DW_OP_LLVM_entry_value 1] $r1
	str	r6, [sp, #24]                   @ 4-byte Spill
	str	r0, [sp, #76]                   @ 4-byte Spill
	str	r4, [sp, #32]                   @ 4-byte Spill
	mov	r1, r2
	lsrs	r1, r4
	lsls	r2, r6
	mov	r4, r2
	ands	r4, r0
	mov	r7, r4
	orrs	r7, r1
.Ltmp52:
	.loc	1 469 52 is_stmt 1              @ ../../../ThirdParty/mbedTLS/library/des.c:469:52
	lsls	r6, r7, #18
	str	r7, [sp, #80]                   @ 4-byte Spill
	movs	r0, #65
	lsls	r0, r0, #19
	.loc	1 469 59 is_stmt 0              @ ../../../ThirdParty/mbedTLS/library/des.c:469:59
	ands	r0, r6
	.loc	1 468 50 is_stmt 1              @ ../../../ThirdParty/mbedTLS/library/des.c:468:50
	lsls	r1, r1, #28
	.loc	1 468 57 is_stmt 0              @ ../../../ThirdParty/mbedTLS/library/des.c:468:57
	adds	r3, r3, #2
	str	r3, [sp, #28]                   @ 4-byte Spill
	ands	r1, r3
.Ltmp53:
	@DEBUG_VALUE: mbedtls_des_setkey:Y <- undef
	@DEBUG_VALUE: mbedtls_des_setkey:X <- undef
	.loc	1 468 23                        @ ../../../ThirdParty/mbedTLS/library/des.c:468:23
	lsls	r6, r4, #4
	str	r4, [sp, #8]                    @ 4-byte Spill
	movs	r3, #9
	lsls	r3, r3, #26
	.loc	1 468 30                        @ ../../../ThirdParty/mbedTLS/library/des.c:468:30
	ands	r3, r6
	.loc	1 468 44                        @ ../../../ThirdParty/mbedTLS/library/des.c:468:44
	adds	r1, r3, r1
	.loc	1 469 25 is_stmt 1              @ ../../../ThirdParty/mbedTLS/library/des.c:469:25
	lsls	r3, r2, #14
	.loc	1 469 32 is_stmt 0              @ ../../../ThirdParty/mbedTLS/library/des.c:469:32
	ldr	r6, [sp, #40]                   @ 4-byte Reload
	ands	r3, r6
	.loc	1 469 19                        @ ../../../ThirdParty/mbedTLS/library/des.c:469:19
	orrs	r3, r1
	.loc	1 469 46                        @ ../../../ThirdParty/mbedTLS/library/des.c:469:46
	orrs	r3, r0
	.loc	1 470 25 is_stmt 1              @ ../../../ThirdParty/mbedTLS/library/des.c:470:25
	lsls	r0, r2, #6
	.loc	1 470 32 is_stmt 0              @ ../../../ThirdParty/mbedTLS/library/des.c:470:32
	ldr	r1, [sp, #44]                   @ 4-byte Reload
	ands	r0, r1
	.loc	1 470 19                        @ ../../../ThirdParty/mbedTLS/library/des.c:470:19
	orrs	r0, r3
	.loc	1 470 52                        @ ../../../ThirdParty/mbedTLS/library/des.c:470:52
	lsls	r1, r2, #9
	.loc	1 470 59                        @ ../../../ThirdParty/mbedTLS/library/des.c:470:59
	ldr	r3, [sp, #48]                   @ 4-byte Reload
	ands	r1, r3
	.loc	1 470 46                        @ ../../../ThirdParty/mbedTLS/library/des.c:470:46
	orrs	r1, r0
	.loc	1 471 25 is_stmt 1              @ ../../../ThirdParty/mbedTLS/library/des.c:471:25
	lsrs	r3, r2, #1
	.loc	1 471 32 is_stmt 0              @ ../../../ThirdParty/mbedTLS/library/des.c:471:32
	ldr	r0, [sp, #52]                   @ 4-byte Reload
	ands	r3, r0
	.loc	1 471 19                        @ ../../../ThirdParty/mbedTLS/library/des.c:471:19
	orrs	r3, r1
	.loc	1 471 52                        @ ../../../ThirdParty/mbedTLS/library/des.c:471:52
	lsls	r1, r7, #10
	.loc	1 471 59                        @ ../../../ThirdParty/mbedTLS/library/des.c:471:59
	str	r1, [sp, #4]                    @ 4-byte Spill
	ldr	r6, [sp, #56]                   @ 4-byte Reload
	ands	r1, r6
	.loc	1 471 46                        @ ../../../ThirdParty/mbedTLS/library/des.c:471:46
	orrs	r1, r3
	.loc	1 472 25 is_stmt 1              @ ../../../ThirdParty/mbedTLS/library/des.c:472:25
	lsls	r3, r4, #2
	.loc	1 472 32 is_stmt 0              @ ../../../ThirdParty/mbedTLS/library/des.c:472:32
	ldr	r6, [sp, #60]                   @ 4-byte Reload
	ands	r3, r6
	.loc	1 472 19                        @ ../../../ThirdParty/mbedTLS/library/des.c:472:19
	orrs	r3, r1
	.loc	1 472 52                        @ ../../../ThirdParty/mbedTLS/library/des.c:472:52
	lsrs	r6, r2, #10
	.loc	1 472 59                        @ ../../../ThirdParty/mbedTLS/library/des.c:472:59
	ldr	r1, [sp, #64]                   @ 4-byte Reload
	ands	r6, r1
	.loc	1 472 46                        @ ../../../ThirdParty/mbedTLS/library/des.c:472:46
	orrs	r6, r3
.Ltmp54:
	.loc	1 0 0                           @ ../../../ThirdParty/mbedTLS/library/des.c:0:0
	mov	r0, r5
	ldr	r1, [sp, #24]                   @ 4-byte Reload
	lsls	r0, r1
.Ltmp55:
	.loc	1 475 59 is_stmt 1              @ ../../../ThirdParty/mbedTLS/library/des.c:475:59
	mov	r3, r0
	movw	r7, #256
	ands	r3, r7
	.loc	1 473 19                        @ ../../../ThirdParty/mbedTLS/library/des.c:473:19
	orrs	r3, r6
	.loc	1 473 25 is_stmt 0              @ ../../../ThirdParty/mbedTLS/library/des.c:473:25
	lsrs	r6, r0, #13
	movw	r7, #8192
	.loc	1 473 32                        @ ../../../ThirdParty/mbedTLS/library/des.c:473:32
	ands	r6, r7
	.loc	1 473 46                        @ ../../../ThirdParty/mbedTLS/library/des.c:473:46
	orrs	r6, r3
	.loc	1 473 52                        @ ../../../ThirdParty/mbedTLS/library/des.c:473:52
	lsrs	r3, r0, #4
	mov	r1, r0
	movw	r7, #4096
	.loc	1 473 59                        @ ../../../ThirdParty/mbedTLS/library/des.c:473:59
	ands	r3, r7
	.loc	1 474 19 is_stmt 1              @ ../../../ThirdParty/mbedTLS/library/des.c:474:19
	orrs	r3, r6
.Ltmp56:
	.loc	1 0 0 is_stmt 0                 @ ../../../ThirdParty/mbedTLS/library/des.c:0:0
	ldr	r0, [sp, #32]                   @ 4-byte Reload
	lsrs	r5, r0
	str	r5, [sp, #32]                   @ 4-byte Spill
	ldr	r4, [sp, #76]                   @ 4-byte Reload
	ands	r4, r1
.Ltmp57:
	.loc	1 475 25 is_stmt 1              @ ../../../ThirdParty/mbedTLS/library/des.c:475:25
	lsrs	r0, r4, #14
.Ltmp58:
	.loc	1 0 0 is_stmt 0                 @ ../../../ThirdParty/mbedTLS/library/des.c:0:0
	str	r0, [sp, #16]                   @ 4-byte Spill
	orrs	r4, r5
.Ltmp59:
	.loc	1 474 25 is_stmt 1              @ ../../../ThirdParty/mbedTLS/library/des.c:474:25
	lsls	r6, r4, #6
	.loc	1 474 32 is_stmt 0              @ ../../../ThirdParty/mbedTLS/library/des.c:474:32
	str	r4, [sp, #76]                   @ 4-byte Spill
	movw	r7, #2048
	ands	r6, r7
	.loc	1 474 46                        @ ../../../ThirdParty/mbedTLS/library/des.c:474:46
	orrs	r6, r3
	.loc	1 474 52                        @ ../../../ThirdParty/mbedTLS/library/des.c:474:52
	str	r1, [sp]                        @ 4-byte Spill
	lsrs	r3, r1, #1
	movw	r5, #1024
	.loc	1 474 59                        @ ../../../ThirdParty/mbedTLS/library/des.c:474:59
	ands	r3, r5
	.loc	1 475 19 is_stmt 1              @ ../../../ThirdParty/mbedTLS/library/des.c:475:19
	orrs	r3, r6
	.loc	1 475 32 is_stmt 0              @ ../../../ThirdParty/mbedTLS/library/des.c:475:32
	mov	r6, r0
	movw	r0, #512
	ands	r6, r0
	.loc	1 475 46                        @ ../../../ThirdParty/mbedTLS/library/des.c:475:46
	orrs	r6, r3
	.loc	1 476 25 is_stmt 1              @ ../../../ThirdParty/mbedTLS/library/des.c:476:25
	lsrs	r3, r1, #5
	movs	r0, #32
	.loc	1 476 32 is_stmt 0              @ ../../../ThirdParty/mbedTLS/library/des.c:476:32
	str	r0, [sp, #24]                   @ 4-byte Spill
	ands	r3, r0
	.loc	1 476 19                        @ ../../../ThirdParty/mbedTLS/library/des.c:476:19
	orrs	r3, r6
	.loc	1 476 52                        @ ../../../ThirdParty/mbedTLS/library/des.c:476:52
	lsrs	r6, r1, #10
	movs	r5, #16
	.loc	1 476 59                        @ ../../../ThirdParty/mbedTLS/library/des.c:476:59
	ands	r5, r6
	.loc	1 476 46                        @ ../../../ThirdParty/mbedTLS/library/des.c:476:46
	orrs	r5, r3
	.loc	1 477 25 is_stmt 1              @ ../../../ThirdParty/mbedTLS/library/des.c:477:25
	lsrs	r0, r4, #3
	str	r0, [sp, #20]                   @ 4-byte Spill
	movs	r3, #8
	.loc	1 477 32 is_stmt 0              @ ../../../ThirdParty/mbedTLS/library/des.c:477:32
	ands	r3, r0
	.loc	1 477 19                        @ ../../../ThirdParty/mbedTLS/library/des.c:477:19
	orrs	r3, r5
	.loc	1 477 52                        @ ../../../ThirdParty/mbedTLS/library/des.c:477:52
	lsrs	r5, r1, #18
	movs	r6, #4
	.loc	1 477 59                        @ ../../../ThirdParty/mbedTLS/library/des.c:477:59
	ands	r6, r5
	.loc	1 477 46                        @ ../../../ThirdParty/mbedTLS/library/des.c:477:46
	orrs	r6, r3
	.loc	1 478 25 is_stmt 1              @ ../../../ThirdParty/mbedTLS/library/des.c:478:25
	lsrs	r3, r1, #26
	movs	r0, #2
	.loc	1 478 32 is_stmt 0              @ ../../../ThirdParty/mbedTLS/library/des.c:478:32
	str	r0, [sp, #12]                   @ 4-byte Spill
	ands	r3, r0
	.loc	1 478 19                        @ ../../../ThirdParty/mbedTLS/library/des.c:478:19
	orrs	r3, r6
	.loc	1 478 59                        @ ../../../ThirdParty/mbedTLS/library/des.c:478:59
	lsls	r5, r1, #7
	lsrs	r5, r5, #31
	.loc	1 478 46                        @ ../../../ThirdParty/mbedTLS/library/des.c:478:46
	orrs	r5, r3
.Ltmp60:
	@DEBUG_VALUE: mbedtls_des_setkey:SK <- [DW_OP_plus_uconst 72, DW_OP_deref_size 4, DW_OP_plus_uconst 4, DW_OP_stack_value] $sp
	.loc	1 468 15 is_stmt 1              @ ../../../ThirdParty/mbedTLS/library/des.c:468:15
	ldr	r0, [sp, #72]                   @ 4-byte Reload
.Ltmp61:
	@DEBUG_VALUE: mbedtls_des_setkey:SK <- [DW_OP_plus_uconst 4, DW_OP_stack_value] undef
	str	r5, [r0]
	.loc	1 481 32                        @ ../../../ThirdParty/mbedTLS/library/des.c:481:32
	ldr	r0, [sp, #40]                   @ 4-byte Reload
.Ltmp62:
	@DEBUG_VALUE: mbedtls_des_setkey:SK <- [DW_OP_plus_uconst 72, DW_OP_deref_size 4, DW_OP_plus_uconst 4, DW_OP_stack_value] $sp
	.loc	1 0 32 is_stmt 0                @ ../../../ThirdParty/mbedTLS/library/des.c:0:32
	ldr	r1, [sp, #4]                    @ 4-byte Reload
	.loc	1 481 32                        @ ../../../ThirdParty/mbedTLS/library/des.c:481:32
	ands	r1, r0
	mov	r7, r2
	ldr	r2, [sp, #80]                   @ 4-byte Reload
	.loc	1 480 23 is_stmt 1              @ ../../../ThirdParty/mbedTLS/library/des.c:480:23
	lsls	r6, r2, #15
	ldr	r4, [sp, #68]                   @ 4-byte Reload
	lsls	r3, r4, #29
	.loc	1 480 30 is_stmt 0              @ ../../../ThirdParty/mbedTLS/library/des.c:480:30
	ands	r3, r6
	.loc	1 480 50                        @ ../../../ThirdParty/mbedTLS/library/des.c:480:50
	lsls	r5, r7, #17
	.loc	1 480 57                        @ ../../../ThirdParty/mbedTLS/library/des.c:480:57
	ldr	r0, [sp, #28]                   @ 4-byte Reload
	ands	r5, r0
	.loc	1 480 44                        @ ../../../ThirdParty/mbedTLS/library/des.c:480:44
	adds	r3, r3, r5
	.loc	1 481 19 is_stmt 1              @ ../../../ThirdParty/mbedTLS/library/des.c:481:19
	orrs	r3, r1
	.loc	1 481 52 is_stmt 0              @ ../../../ThirdParty/mbedTLS/library/des.c:481:52
	lsls	r0, r2, #22
	lsls	r5, r4, #26
	.loc	1 481 59                        @ ../../../ThirdParty/mbedTLS/library/des.c:481:59
	ands	r5, r0
	.loc	1 481 46                        @ ../../../ThirdParty/mbedTLS/library/des.c:481:46
	orrs	r5, r3
	.loc	1 482 25 is_stmt 1              @ ../../../ThirdParty/mbedTLS/library/des.c:482:25
	lsrs	r0, r7, #2
	lsls	r3, r4, #25
	.loc	1 482 32 is_stmt 0              @ ../../../ThirdParty/mbedTLS/library/des.c:482:32
	ands	r3, r0
	.loc	1 482 19                        @ ../../../ThirdParty/mbedTLS/library/des.c:482:19
	orrs	r3, r5
	ldr	r4, [sp, #8]                    @ 4-byte Reload
	.loc	1 482 52                        @ ../../../ThirdParty/mbedTLS/library/des.c:482:52
	lsls	r0, r4, #1
	.loc	1 482 59                        @ ../../../ThirdParty/mbedTLS/library/des.c:482:59
	ldr	r2, [sp, #44]                   @ 4-byte Reload
	ands	r0, r2
	.loc	1 482 46                        @ ../../../ThirdParty/mbedTLS/library/des.c:482:46
	orrs	r0, r3
	.loc	1 483 25 is_stmt 1              @ ../../../ThirdParty/mbedTLS/library/des.c:483:25
	ldr	r2, [sp, #80]                   @ 4-byte Reload
	lsls	r3, r2, #16
	.loc	1 483 32 is_stmt 0              @ ../../../ThirdParty/mbedTLS/library/des.c:483:32
	ldr	r2, [sp, #48]                   @ 4-byte Reload
	ands	r3, r2
	.loc	1 483 19                        @ ../../../ThirdParty/mbedTLS/library/des.c:483:19
	orrs	r3, r0
	.loc	1 483 52                        @ ../../../ThirdParty/mbedTLS/library/des.c:483:52
	lsls	r0, r7, #11
	.loc	1 483 59                        @ ../../../ThirdParty/mbedTLS/library/des.c:483:59
	ldr	r2, [sp, #52]                   @ 4-byte Reload
	ands	r0, r2
	.loc	1 483 46                        @ ../../../ThirdParty/mbedTLS/library/des.c:483:46
	orrs	r0, r3
	.loc	1 484 25 is_stmt 1              @ ../../../ThirdParty/mbedTLS/library/des.c:484:25
	lsls	r3, r4, #3
	ldr	r2, [sp, #68]                   @ 4-byte Reload
	lsls	r4, r2, #19
	.loc	1 484 32 is_stmt 0              @ ../../../ThirdParty/mbedTLS/library/des.c:484:32
	ands	r4, r3
	.loc	1 484 19                        @ ../../../ThirdParty/mbedTLS/library/des.c:484:19
	orrs	r4, r0
	.loc	1 484 52                        @ ../../../ThirdParty/mbedTLS/library/des.c:484:52
	lsrs	r0, r7, #6
	.loc	1 484 59                        @ ../../../ThirdParty/mbedTLS/library/des.c:484:59
	ldr	r2, [sp, #56]                   @ 4-byte Reload
	ands	r0, r2
	.loc	1 484 46                        @ ../../../ThirdParty/mbedTLS/library/des.c:484:46
	orrs	r0, r4
	.loc	1 485 32 is_stmt 1              @ ../../../ThirdParty/mbedTLS/library/des.c:485:32
	ldr	r2, [sp, #60]                   @ 4-byte Reload
	ands	r6, r2
	.loc	1 485 19 is_stmt 0              @ ../../../ThirdParty/mbedTLS/library/des.c:485:19
	orrs	r6, r0
	.loc	1 485 52                        @ ../../../ThirdParty/mbedTLS/library/des.c:485:52
	lsrs	r0, r7, #4
	.loc	1 485 59                        @ ../../../ThirdParty/mbedTLS/library/des.c:485:59
	ldr	r2, [sp, #64]                   @ 4-byte Reload
	ands	r0, r2
	.loc	1 485 46                        @ ../../../ThirdParty/mbedTLS/library/des.c:485:46
	orrs	r0, r6
	ldr	r1, [sp]                        @ 4-byte Reload
	.loc	1 488 32 is_stmt 1              @ ../../../ThirdParty/mbedTLS/library/des.c:488:32
	mov	r2, r1
	movw	r3, #512
	ands	r2, r3
	.loc	1 486 19                        @ ../../../ThirdParty/mbedTLS/library/des.c:486:19
	orrs	r2, r0
	.loc	1 486 25 is_stmt 0              @ ../../../ThirdParty/mbedTLS/library/des.c:486:25
	lsrs	r0, r1, #2
	.loc	1 486 32                        @ ../../../ThirdParty/mbedTLS/library/des.c:486:32
	movw	r3, #8192
	ands	r0, r3
	.loc	1 486 46                        @ ../../../ThirdParty/mbedTLS/library/des.c:486:46
	orrs	r0, r2
	ldr	r5, [sp, #76]                   @ 4-byte Reload
	.loc	1 486 52                        @ ../../../ThirdParty/mbedTLS/library/des.c:486:52
	lsls	r2, r5, #8
	.loc	1 486 59                        @ ../../../ThirdParty/mbedTLS/library/des.c:486:59
	movw	r3, #4096
	ands	r2, r3
	.loc	1 487 19 is_stmt 1              @ ../../../ThirdParty/mbedTLS/library/des.c:487:19
	orrs	r2, r0
	.loc	1 487 32 is_stmt 0              @ ../../../ThirdParty/mbedTLS/library/des.c:487:32
	movw	r0, #2048
	adds	r0, #8
	ldr	r3, [sp, #16]                   @ 4-byte Reload
	ands	r0, r3
	.loc	1 487 46                        @ ../../../ThirdParty/mbedTLS/library/des.c:487:46
	orrs	r0, r2
	.loc	1 487 52                        @ ../../../ThirdParty/mbedTLS/library/des.c:487:52
	lsrs	r2, r1, #9
	.loc	1 487 59                        @ ../../../ThirdParty/mbedTLS/library/des.c:487:59
	movw	r3, #1024
	ands	r2, r3
	.loc	1 488 19 is_stmt 1              @ ../../../ThirdParty/mbedTLS/library/des.c:488:19
	orrs	r2, r0
	.loc	1 488 52 is_stmt 0              @ ../../../ThirdParty/mbedTLS/library/des.c:488:52
	lsls	r0, r5, #7
	.loc	1 488 59                        @ ../../../ThirdParty/mbedTLS/library/des.c:488:59
	movw	r3, #256
	ands	r0, r3
	.loc	1 488 46                        @ ../../../ThirdParty/mbedTLS/library/des.c:488:46
	orrs	r0, r2
	.loc	1 489 25 is_stmt 1              @ ../../../ThirdParty/mbedTLS/library/des.c:489:25
	lsrs	r2, r1, #7
	.loc	1 489 32 is_stmt 0              @ ../../../ThirdParty/mbedTLS/library/des.c:489:32
	ldr	r3, [sp, #24]                   @ 4-byte Reload
	ands	r2, r3
	.loc	1 489 19                        @ ../../../ThirdParty/mbedTLS/library/des.c:489:19
	orrs	r2, r0
	movs	r0, #17
	.loc	1 489 59                        @ ../../../ThirdParty/mbedTLS/library/des.c:489:59
	ldr	r3, [sp, #20]                   @ 4-byte Reload
	ands	r0, r3
	.loc	1 489 46                        @ ../../../ThirdParty/mbedTLS/library/des.c:489:46
	orrs	r0, r2
	.loc	1 490 32 is_stmt 1              @ ../../../ThirdParty/mbedTLS/library/des.c:490:32
	ldr	r2, [sp, #32]                   @ 4-byte Reload
	lsls	r2, r2, #31
	lsrs	r2, r2, #29
	.loc	1 490 19 is_stmt 0              @ ../../../ThirdParty/mbedTLS/library/des.c:490:19
	orrs	r2, r0
	.loc	1 490 52                        @ ../../../ThirdParty/mbedTLS/library/des.c:490:52
	lsrs	r0, r1, #21
	.loc	1 490 59                        @ ../../../ThirdParty/mbedTLS/library/des.c:490:59
	ldr	r1, [sp, #12]                   @ 4-byte Reload
	ands	r0, r1
	.loc	1 490 46                        @ ../../../ThirdParty/mbedTLS/library/des.c:490:46
	orrs	r0, r2
.Ltmp63:
	@DEBUG_VALUE: mbedtls_des_setkey:SK <- [DW_OP_plus_uconst 72, DW_OP_deref_size 4, DW_OP_plus_uconst 8, DW_OP_stack_value] $sp
	.loc	1 0 46                          @ ../../../ThirdParty/mbedTLS/library/des.c:0:46
	ldr	r1, [sp, #72]                   @ 4-byte Reload
.Ltmp64:
	@DEBUG_VALUE: mbedtls_des_setkey:SK <- [DW_OP_plus_uconst 8, DW_OP_stack_value] $r1
	.loc	1 480 15 is_stmt 1              @ ../../../ThirdParty/mbedTLS/library/des.c:480:15
	str	r0, [r1, #4]
.Ltmp65:
	.loc	1 455 5                         @ ../../../ThirdParty/mbedTLS/library/des.c:455:5
	adds	r1, #8
.Ltmp66:
	.loc	1 0 5 is_stmt 0                 @ ../../../ThirdParty/mbedTLS/library/des.c:0:5
	str	r1, [sp, #72]                   @ 4-byte Spill
	ldr	r3, [sp, #36]                   @ 4-byte Reload
.Ltmp67:
	.loc	1 455 26                        @ ../../../ThirdParty/mbedTLS/library/des.c:455:26
	adds	r3, r3, #1
.Ltmp68:
	@DEBUG_VALUE: mbedtls_des_setkey:i <- $r3
	.loc	1 455 5                         @ ../../../ThirdParty/mbedTLS/library/des.c:455:5
	cmp	r3, #16
	ldr	r2, [sp, #80]                   @ 4-byte Reload
	ldr	r1, [sp, #68]                   @ 4-byte Reload
	beq	.LBB7_6
.Ltmp69:
.LBB7_3:                                @ =>This Inner Loop Header: Depth=1
	@DEBUG_VALUE: mbedtls_des_setkey:key <- [DW_OP_LLVM_entry_value 1] $r1
	@DEBUG_VALUE: mbedtls_des_setkey:SK <- [DW_OP_plus_uconst 72] [$sp+0]
	@DEBUG_VALUE: mbedtls_des_setkey:X <- $r2
	@DEBUG_VALUE: mbedtls_des_setkey:Y <- $r5
	@DEBUG_VALUE: mbedtls_des_setkey:i <- $r3
	.loc	1 457 19 is_stmt 1              @ ../../../ThirdParty/mbedTLS/library/des.c:457:19
	cmp	r3, #15
	str	r3, [sp, #36]                   @ 4-byte Spill
	bls	.LBB7_4
	b	.LBB7_1
.Ltmp70:
.LBB7_4:                                @   in Loop: Header=BB7_3 Depth=1
	@DEBUG_VALUE: mbedtls_des_setkey:Y <- $r5
	@DEBUG_VALUE: mbedtls_des_setkey:i <- $r3
	@DEBUG_VALUE: mbedtls_des_setkey:X <- $r2
	@DEBUG_VALUE: mbedtls_des_setkey:SK <- [DW_OP_plus_uconst 72] [$sp+0]
	@DEBUG_VALUE: mbedtls_des_setkey:key <- [DW_OP_LLVM_entry_value 1] $r1
	.loc	1 0 19 is_stmt 0                @ ../../../ThirdParty/mbedTLS/library/des.c:0:19
	movs	r0, #1
	lsls	r0, r3
	ldr	r4, __arm_cp.7_6
	tst	r0, r4
	bne	.LBB7_5
	b	.LBB7_1
.Ltmp71:
.LBB7_5:                                @   in Loop: Header=BB7_3 Depth=1
	@DEBUG_VALUE: mbedtls_des_setkey:Y <- $r5
	@DEBUG_VALUE: mbedtls_des_setkey:i <- $r3
	@DEBUG_VALUE: mbedtls_des_setkey:X <- $r2
	@DEBUG_VALUE: mbedtls_des_setkey:SK <- [DW_OP_plus_uconst 72] [$sp+0]
	@DEBUG_VALUE: mbedtls_des_setkey:key <- [DW_OP_LLVM_entry_value 1] $r1
	movs	r4, #27
	mov	r6, r1
	ldr	r3, __arm_cp.7_2
.Ltmp72:
	mov	r0, r3
	b	.LBB7_2
.Ltmp73:
.LBB7_6:
	@DEBUG_VALUE: mbedtls_des_setkey:i <- $r3
	@DEBUG_VALUE: mbedtls_des_setkey:key <- [DW_OP_LLVM_entry_value 1] $r1
	.loc	1 492 1 is_stmt 1               @ ../../../ThirdParty/mbedTLS/library/des.c:492:1
	add	sp, #84
	pop	{r4, r5, r6, r7, pc}
.Ltmp74:
	.p2align	2
@ %bb.7:
	.loc	1 0 1 is_stmt 0                 @ ../../../ThirdParty/mbedTLS/library/des.c:0:1
__arm_cp.7_0:
	.long	252645135                       @ 0xf0f0f0f
.Lcpi_end3:
	.size	__arm_cp.7_0, .Lcpi_end3-__arm_cp.7_0
__arm_cp.7_1:
	.long	LHs
.Lcpi_end4:
	.size	__arm_cp.7_1, .Lcpi_end4-__arm_cp.7_1
__arm_cp.7_2:
	.long	268435454                       @ 0xffffffe
.Lcpi_end5:
	.size	__arm_cp.7_2, .Lcpi_end5-__arm_cp.7_2
__arm_cp.7_3:
	.long	4025479151                      @ 0xefefefef
.Lcpi_end6:
	.size	__arm_cp.7_3, .Lcpi_end6-__arm_cp.7_3
__arm_cp.7_4:
	.long	269488144                       @ 0x10101010
.Lcpi_end7:
	.size	__arm_cp.7_4, .Lcpi_end7-__arm_cp.7_4
__arm_cp.7_5:
	.long	RHs
.Lcpi_end8:
	.size	__arm_cp.7_5, .Lcpi_end8-__arm_cp.7_5
__arm_cp.7_6:
	.long	33027                           @ 0x8103
.Lcpi_end9:
	.size	__arm_cp.7_6, .Lcpi_end9-__arm_cp.7_6
.Lfunc_end7:
	.size	mbedtls_des_setkey, .Lfunc_end7-mbedtls_des_setkey
	.cfi_endproc
	.cantunwind
	.fnend
                                        @ -- End function
	.section	.text.mbedtls_des_setkey_enc,"ax",%progbits
	.hidden	mbedtls_des_setkey_enc          @ -- Begin function mbedtls_des_setkey_enc
	.globl	mbedtls_des_setkey_enc
	.p2align	1
	.type	mbedtls_des_setkey_enc,%function
	.code	16                              @ @mbedtls_des_setkey_enc
	.thumb_func
mbedtls_des_setkey_enc:
.Lfunc_begin8:
	.loc	1 499 0 is_stmt 1               @ ../../../ThirdParty/mbedTLS/library/des.c:499:0
	.fnstart
	.cfi_startproc
@ %bb.0:
	@DEBUG_VALUE: mbedtls_des_setkey_enc:ctx <- $r0
	@DEBUG_VALUE: mbedtls_des_setkey_enc:ctx <- $r0
	@DEBUG_VALUE: mbedtls_des_setkey_enc:key <- $r1
	@DEBUG_VALUE: mbedtls_des_setkey_enc:key <- $r1
	@DEBUG_VALUE: mbedtls_des_setkey_enc:key <- $r1
	@DEBUG_VALUE: mbedtls_des_setkey_enc:ctx <- $r0
	.save	{r7, lr}
	push	{r7, lr}
	.cfi_def_cfa_offset 8
	.cfi_offset lr, -4
	.cfi_offset r7, -8
.Ltmp75:
	.loc	1 500 5 prologue_end            @ ../../../ThirdParty/mbedTLS/library/des.c:500:5
	bl	mbedtls_des_setkey
.Ltmp76:
	@DEBUG_VALUE: mbedtls_des_setkey_enc:key <- [DW_OP_LLVM_entry_value 1] $r1
	@DEBUG_VALUE: mbedtls_des_setkey_enc:ctx <- [DW_OP_LLVM_entry_value 1] $r0
	.loc	1 0 5 is_stmt 0                 @ ../../../ThirdParty/mbedTLS/library/des.c:0:5
	movs	r0, #0
	.loc	1 502 5 is_stmt 1               @ ../../../ThirdParty/mbedTLS/library/des.c:502:5
	pop	{r7, pc}
.Ltmp77:
.Lfunc_end8:
	.size	mbedtls_des_setkey_enc, .Lfunc_end8-mbedtls_des_setkey_enc
	.cfi_endproc
	.cantunwind
	.fnend
                                        @ -- End function
	.section	.text.mbedtls_des_setkey_dec,"ax",%progbits
	.hidden	mbedtls_des_setkey_dec          @ -- Begin function mbedtls_des_setkey_dec
	.globl	mbedtls_des_setkey_dec
	.p2align	1
	.type	mbedtls_des_setkey_dec,%function
	.code	16                              @ @mbedtls_des_setkey_dec
	.thumb_func
mbedtls_des_setkey_dec:
.Lfunc_begin9:
	.loc	1 509 0                         @ ../../../ThirdParty/mbedTLS/library/des.c:509:0
	.fnstart
	.cfi_startproc
@ %bb.0:
	@DEBUG_VALUE: mbedtls_des_setkey_dec:ctx <- $r0
	@DEBUG_VALUE: mbedtls_des_setkey_dec:key <- $r1
	.save	{r4, r5, r6, lr}
	push	{r4, r5, r6, lr}
	.cfi_def_cfa_offset 16
	.cfi_offset lr, -4
	.cfi_offset r6, -8
	.cfi_offset r5, -12
	.cfi_offset r4, -16
	mov	r4, r0
	@DEBUG_VALUE: mbedtls_des_setkey_dec:key <- $r1
.Ltmp78:
	@DEBUG_VALUE: mbedtls_des_setkey_dec:ctx <- $r4
	@DEBUG_VALUE: mbedtls_des_setkey_dec:key <- $r1
	.loc	1 512 5 prologue_end            @ ../../../ThirdParty/mbedTLS/library/des.c:512:5
	bl	mbedtls_des_setkey
.Ltmp79:
	@DEBUG_VALUE: mbedtls_des_setkey_dec:key <- [DW_OP_LLVM_entry_value 1] $r1
	@DEBUG_VALUE: mbedtls_des_setkey_dec:i <- 0
	.loc	1 514 5                         @ ../../../ThirdParty/mbedTLS/library/des.c:514:5
	mov	r0, r4
	adds	r0, #124
	movs	r1, #1
	mvns	r1, r1
	lsls	r2, r1, #2
.Ltmp80:
.LBB9_1:                                @ =>This Inner Loop Header: Depth=1
	@DEBUG_VALUE: mbedtls_des_setkey_dec:key <- [DW_OP_LLVM_entry_value 1] $r1
	@DEBUG_VALUE: mbedtls_des_setkey_dec:i <- undef
	.loc	1 516 9                         @ ../../../ThirdParty/mbedTLS/library/des.c:516:9
	adds	r3, r2, r0
	ldr	r5, [r3, #4]
	ldr	r6, [r4]
.Ltmp81:
	@DEBUG_VALUE: t <- $r6
	str	r5, [r4]
	str	r6, [r3, #4]
.Ltmp82:
	@DEBUG_VALUE: t <- 0
	.loc	1 517 9                         @ ../../../ThirdParty/mbedTLS/library/des.c:517:9
	ldr	r3, [r4, #4]
.Ltmp83:
	@DEBUG_VALUE: t <- $r3
	ldr	r5, [r0]
	str	r5, [r4, #4]
	str	r3, [r0]
.Ltmp84:
	.loc	1 514 19                        @ ../../../ThirdParty/mbedTLS/library/des.c:514:19
	adds	r4, #8
	subs	r0, #8
.Ltmp85:
	@DEBUG_VALUE: t <- 0
	@DEBUG_VALUE: mbedtls_des_setkey_dec:i <- [DW_OP_plus_uconst 2, DW_OP_stack_value] undef
	adds	r1, r1, #2
.Ltmp86:
	.loc	1 514 5 is_stmt 0               @ ../../../ThirdParty/mbedTLS/library/des.c:514:5
	cmp	r1, #14
	blo	.LBB9_1
.Ltmp87:
@ %bb.2:
	@DEBUG_VALUE: mbedtls_des_setkey_dec:key <- [DW_OP_LLVM_entry_value 1] $r1
	.loc	1 0 5                           @ ../../../ThirdParty/mbedTLS/library/des.c:0:5
	movs	r0, #0
	.loc	1 520 5 is_stmt 1               @ ../../../ThirdParty/mbedTLS/library/des.c:520:5
	pop	{r4, r5, r6, pc}
.Ltmp88:
.Lfunc_end9:
	.size	mbedtls_des_setkey_dec, .Lfunc_end9-mbedtls_des_setkey_dec
	.cfi_endproc
	.cantunwind
	.fnend
                                        @ -- End function
	.section	.text.mbedtls_des3_set2key_enc,"ax",%progbits
	.hidden	mbedtls_des3_set2key_enc        @ -- Begin function mbedtls_des3_set2key_enc
	.globl	mbedtls_des3_set2key_enc
	.p2align	1
	.type	mbedtls_des3_set2key_enc,%function
	.code	16                              @ @mbedtls_des3_set2key_enc
	.thumb_func
mbedtls_des3_set2key_enc:
.Lfunc_begin10:
	.loc	1 553 0                         @ ../../../ThirdParty/mbedTLS/library/des.c:553:0
	.fnstart
	.cfi_startproc
@ %bb.0:
	@DEBUG_VALUE: mbedtls_des3_set2key_enc:ctx <- $r0
	@DEBUG_VALUE: mbedtls_des3_set2key_enc:key <- $r1
	.save	{r4, lr}
	push	{r4, lr}
	.cfi_def_cfa_offset 8
	.cfi_offset lr, -4
	.cfi_offset r4, -8
	.pad	#384
	sub	sp, #384
	.cfi_def_cfa_offset 392
	mov	r2, r1
.Ltmp89:
	@DEBUG_VALUE: mbedtls_des3_set2key_enc:key <- $r2
	@DEBUG_VALUE: mbedtls_des3_set2key_enc:ctx <- $r0
	mov	r4, sp
	@DEBUG_VALUE: mbedtls_des3_set2key_enc:ctx <- $r0
.Ltmp90:
	.loc	1 556 5 prologue_end            @ ../../../ThirdParty/mbedTLS/library/des.c:556:5
	mov	r1, r4
	@DEBUG_VALUE: mbedtls_des3_set2key_enc:key <- $r2
	bl	des3_set2key
.Ltmp91:
	@DEBUG_VALUE: mbedtls_des3_set2key_enc:ctx <- [DW_OP_LLVM_entry_value 1] $r0
	.loc	1 557 5                         @ ../../../ThirdParty/mbedTLS/library/des.c:557:5
	mov	r0, r4
	movw	r1, #384
	bl	mbedtls_platform_zeroize
	movs	r0, #0
	.loc	1 559 5                         @ ../../../ThirdParty/mbedTLS/library/des.c:559:5
	add	sp, #384
	pop	{r4, pc}
.Ltmp92:
.Lfunc_end10:
	.size	mbedtls_des3_set2key_enc, .Lfunc_end10-mbedtls_des3_set2key_enc
	.cfi_endproc
	.cantunwind
	.fnend
                                        @ -- End function
	.section	.text.des3_set2key,"ax",%progbits
	.p2align	1                               @ -- Begin function des3_set2key
	.type	des3_set2key,%function
	.code	16                              @ @des3_set2key
	.thumb_func
des3_set2key:
.Lfunc_begin11:
	.loc	1 526 0                         @ ../../../ThirdParty/mbedTLS/library/des.c:526:0
	.fnstart
	.cfi_startproc
@ %bb.0:
	@DEBUG_VALUE: des3_set2key:esk <- $r0
	@DEBUG_VALUE: des3_set2key:dsk <- $r1
	@DEBUG_VALUE: des3_set2key:key <- $r2
	.save	{r4, r5, r6, r7, lr}
	push	{r4, r5, r6, r7, lr}
	.cfi_def_cfa_offset 20
	.cfi_offset lr, -4
	.cfi_offset r7, -8
	.cfi_offset r6, -12
	.cfi_offset r5, -16
	.cfi_offset r4, -20
	.pad	#36
	sub	sp, #36
	.cfi_def_cfa_offset 56
	mov	r6, r2
	mov	r4, r1
	mov	r5, r0
.Ltmp93:
	@DEBUG_VALUE: des3_set2key:key <- $r6
	@DEBUG_VALUE: des3_set2key:dsk <- $r4
	@DEBUG_VALUE: des3_set2key:esk <- $r5
	.loc	1 529 5 prologue_end            @ ../../../ThirdParty/mbedTLS/library/des.c:529:5
	mov	r1, r2
	bl	mbedtls_des_setkey
	.loc	1 530 29                        @ ../../../ThirdParty/mbedTLS/library/des.c:530:29
	mov	r0, r4
	adds	r0, #128
	.loc	1 530 39 is_stmt 0              @ ../../../ThirdParty/mbedTLS/library/des.c:530:39
	adds	r6, #8
.Ltmp94:
	.loc	1 530 5                         @ ../../../ThirdParty/mbedTLS/library/des.c:530:5
	mov	r1, r6
	bl	mbedtls_des_setkey
	movw	r0, #256
	str	r5, [sp, #24]                   @ 4-byte Spill
.Ltmp95:
	@DEBUG_VALUE: des3_set2key:esk <- [DW_OP_plus_uconst 24] [$sp+0]
	.loc	1 532 5 is_stmt 1               @ ../../../ThirdParty/mbedTLS/library/des.c:532:5
	adds	r0, r5, r0
	str	r0, [sp, #16]                   @ 4-byte Spill
	movs	r1, #1
	mvns	r0, r1
.Ltmp96:
	@DEBUG_VALUE: des3_set2key:i <- 0
	.loc	1 0 5 is_stmt 0                 @ ../../../ThirdParty/mbedTLS/library/des.c:0:5
	str	r4, [sp, #20]                   @ 4-byte Spill
.Ltmp97:
	@DEBUG_VALUE: des3_set2key:dsk <- [DW_OP_plus_uconst 20] [$sp+0]
	.loc	1 532 5                         @ ../../../ThirdParty/mbedTLS/library/des.c:532:5
	adds	r4, #248
	str	r4, [sp, #12]                   @ 4-byte Spill
	movs	r7, #0
	movs	r1, #248
	str	r1, [sp, #8]                    @ 4-byte Spill
	movs	r1, #128
	str	r1, [sp, #4]                    @ 4-byte Spill
	movs	r1, #252
	str	r1, [sp]                        @ 4-byte Spill
	mov	r3, r7
	ldr	r1, [sp, #20]                   @ 4-byte Reload
.Ltmp98:
.LBB11_1:                               @ =>This Inner Loop Header: Depth=1
	@DEBUG_VALUE: des3_set2key:dsk <- [DW_OP_plus_uconst 20] [$sp+0]
	@DEBUG_VALUE: des3_set2key:esk <- [DW_OP_plus_uconst 24] [$sp+0]
	@DEBUG_VALUE: des3_set2key:i <- undef
	.loc	1 0 5                           @ ../../../ThirdParty/mbedTLS/library/des.c:0:5
	str	r0, [sp, #32]                   @ 4-byte Spill
	ldr	r4, [sp, #24]                   @ 4-byte Reload
.Ltmp99:
	.loc	1 534 23 is_stmt 1              @ ../../../ThirdParty/mbedTLS/library/des.c:534:23
	adds	r2, r4, r7
	ldr	r6, [r2, #120]
	.loc	1 534 21 is_stmt 0              @ ../../../ThirdParty/mbedTLS/library/des.c:534:21
	str	r6, [r1, r3]
	adds	r0, r1, r3
	.loc	1 535 23 is_stmt 1              @ ../../../ThirdParty/mbedTLS/library/des.c:535:23
	str	r0, [sp, #28]                   @ 4-byte Spill
	ldr	r2, [r2, #124]
	.loc	1 535 21 is_stmt 0              @ ../../../ThirdParty/mbedTLS/library/des.c:535:21
	str	r2, [r0, #4]
	.loc	1 537 21 is_stmt 1              @ ../../../ThirdParty/mbedTLS/library/des.c:537:21
	adds	r2, r4, r3
	.loc	1 537 23 is_stmt 0              @ ../../../ThirdParty/mbedTLS/library/des.c:537:23
	adds	r0, r1, r7
	ldr	r5, [sp, #8]                    @ 4-byte Reload
	ldr	r5, [r0, r5]
	.loc	1 537 21                        @ ../../../ThirdParty/mbedTLS/library/des.c:537:21
	ldr	r6, [sp, #4]                    @ 4-byte Reload
	str	r5, [r2, r6]
	.loc	1 538 23 is_stmt 1              @ ../../../ThirdParty/mbedTLS/library/des.c:538:23
	ldr	r5, [sp]                        @ 4-byte Reload
	ldr	r0, [r0, r5]
	movs	r5, #132
	.loc	1 538 21 is_stmt 0              @ ../../../ThirdParty/mbedTLS/library/des.c:538:21
	str	r0, [r2, r5]
	.loc	1 540 23 is_stmt 1              @ ../../../ThirdParty/mbedTLS/library/des.c:540:23
	ldr	r0, [r4, r3]
	ldr	r4, [sp, #16]                   @ 4-byte Reload
	.loc	1 540 21 is_stmt 0              @ ../../../ThirdParty/mbedTLS/library/des.c:540:21
	str	r0, [r4, r3]
	adds	r0, r4, r3
	.loc	1 541 23 is_stmt 1              @ ../../../ThirdParty/mbedTLS/library/des.c:541:23
	ldr	r2, [r2, #4]
	.loc	1 541 21 is_stmt 0              @ ../../../ThirdParty/mbedTLS/library/des.c:541:21
	str	r2, [r0, #4]
	.loc	1 543 21 is_stmt 1              @ ../../../ThirdParty/mbedTLS/library/des.c:543:21
	ldr	r0, [sp, #12]                   @ 4-byte Reload
	adds	r0, r0, r3
	.loc	1 544 23                        @ ../../../ThirdParty/mbedTLS/library/des.c:544:23
	ldr	r2, [sp, #28]                   @ 4-byte Reload
	ldr	r2, [r2, #4]
	.loc	1 543 23                        @ ../../../ThirdParty/mbedTLS/library/des.c:543:23
	ldr	r5, [r1, r3]
	.loc	1 543 21 is_stmt 0              @ ../../../ThirdParty/mbedTLS/library/des.c:543:21
	str	r5, [r0, #8]
	.loc	1 544 21 is_stmt 1              @ ../../../ThirdParty/mbedTLS/library/des.c:544:21
	str	r2, [r0, #12]
	ldr	r0, [sp, #32]                   @ 4-byte Reload
.Ltmp100:
	.loc	1 532 19                        @ ../../../ThirdParty/mbedTLS/library/des.c:532:19
	subs	r7, #8
	adds	r3, #8
.Ltmp101:
	@DEBUG_VALUE: des3_set2key:i <- [DW_OP_plus_uconst 2, DW_OP_stack_value] undef
	adds	r0, r0, #2
.Ltmp102:
	.loc	1 532 5 is_stmt 0               @ ../../../ThirdParty/mbedTLS/library/des.c:532:5
	cmp	r0, #30
	blo	.LBB11_1
.Ltmp103:
@ %bb.2:
	@DEBUG_VALUE: des3_set2key:dsk <- [DW_OP_plus_uconst 20] [$sp+0]
	@DEBUG_VALUE: des3_set2key:esk <- [DW_OP_plus_uconst 24] [$sp+0]
	.loc	1 546 1 is_stmt 1               @ ../../../ThirdParty/mbedTLS/library/des.c:546:1
	add	sp, #36
.Ltmp104:
	pop	{r4, r5, r6, r7, pc}
.Ltmp105:
.Lfunc_end11:
	.size	des3_set2key, .Lfunc_end11-des3_set2key
	.cfi_endproc
	.cantunwind
	.fnend
                                        @ -- End function
	.section	.text.mbedtls_des3_set2key_dec,"ax",%progbits
	.hidden	mbedtls_des3_set2key_dec        @ -- Begin function mbedtls_des3_set2key_dec
	.globl	mbedtls_des3_set2key_dec
	.p2align	1
	.type	mbedtls_des3_set2key_dec,%function
	.code	16                              @ @mbedtls_des3_set2key_dec
	.thumb_func
mbedtls_des3_set2key_dec:
.Lfunc_begin12:
	.loc	1 567 0                         @ ../../../ThirdParty/mbedTLS/library/des.c:567:0
	.fnstart
	.cfi_startproc
@ %bb.0:
	@DEBUG_VALUE: mbedtls_des3_set2key_dec:ctx <- $r0
	@DEBUG_VALUE: mbedtls_des3_set2key_dec:key <- $r1
	.save	{r4, lr}
	push	{r4, lr}
	.cfi_def_cfa_offset 8
	.cfi_offset lr, -4
	.cfi_offset r4, -8
	.pad	#384
	sub	sp, #384
	.cfi_def_cfa_offset 392
	mov	r2, r1
	mov	r1, r0
.Ltmp106:
	@DEBUG_VALUE: mbedtls_des3_set2key_dec:key <- [DW_OP_LLVM_entry_value 1] $r1
	@DEBUG_VALUE: mbedtls_des3_set2key_dec:key <- $r2
	@DEBUG_VALUE: mbedtls_des3_set2key_dec:ctx <- $r1
	mov	r4, sp
.Ltmp107:
	.loc	1 570 5 prologue_end            @ ../../../ThirdParty/mbedTLS/library/des.c:570:5
	mov	r0, r4
	@DEBUG_VALUE: mbedtls_des3_set2key_dec:key <- $r2
	@DEBUG_VALUE: mbedtls_des3_set2key_dec:ctx <- $r1
	bl	des3_set2key
.Ltmp108:
	.loc	1 571 5                         @ ../../../ThirdParty/mbedTLS/library/des.c:571:5
	mov	r0, r4
	movw	r1, #384
	bl	mbedtls_platform_zeroize
	movs	r0, #0
	.loc	1 573 5                         @ ../../../ThirdParty/mbedTLS/library/des.c:573:5
	add	sp, #384
	pop	{r4, pc}
.Ltmp109:
.Lfunc_end12:
	.size	mbedtls_des3_set2key_dec, .Lfunc_end12-mbedtls_des3_set2key_dec
	.cfi_endproc
	.cantunwind
	.fnend
                                        @ -- End function
	.section	.text.mbedtls_des3_set3key_enc,"ax",%progbits
	.hidden	mbedtls_des3_set3key_enc        @ -- Begin function mbedtls_des3_set3key_enc
	.globl	mbedtls_des3_set3key_enc
	.p2align	1
	.type	mbedtls_des3_set3key_enc,%function
	.code	16                              @ @mbedtls_des3_set3key_enc
	.thumb_func
mbedtls_des3_set3key_enc:
.Lfunc_begin13:
	.loc	1 604 0                         @ ../../../ThirdParty/mbedTLS/library/des.c:604:0
	.fnstart
	.cfi_startproc
@ %bb.0:
	@DEBUG_VALUE: mbedtls_des3_set3key_enc:ctx <- $r0
	@DEBUG_VALUE: mbedtls_des3_set3key_enc:key <- $r1
	.save	{r4, lr}
	push	{r4, lr}
	.cfi_def_cfa_offset 8
	.cfi_offset lr, -4
	.cfi_offset r4, -8
	.pad	#384
	sub	sp, #384
	.cfi_def_cfa_offset 392
	mov	r2, r1
.Ltmp110:
	@DEBUG_VALUE: mbedtls_des3_set3key_enc:key <- $r2
	@DEBUG_VALUE: mbedtls_des3_set3key_enc:ctx <- $r0
	mov	r4, sp
	@DEBUG_VALUE: mbedtls_des3_set3key_enc:ctx <- $r0
.Ltmp111:
	.loc	1 607 5 prologue_end            @ ../../../ThirdParty/mbedTLS/library/des.c:607:5
	mov	r1, r4
	@DEBUG_VALUE: mbedtls_des3_set3key_enc:key <- $r2
	bl	des3_set3key
.Ltmp112:
	@DEBUG_VALUE: mbedtls_des3_set3key_enc:ctx <- [DW_OP_LLVM_entry_value 1] $r0
	.loc	1 608 5                         @ ../../../ThirdParty/mbedTLS/library/des.c:608:5
	mov	r0, r4
	movw	r1, #384
	bl	mbedtls_platform_zeroize
	movs	r0, #0
	.loc	1 610 5                         @ ../../../ThirdParty/mbedTLS/library/des.c:610:5
	add	sp, #384
	pop	{r4, pc}
.Ltmp113:
.Lfunc_end13:
	.size	mbedtls_des3_set3key_enc, .Lfunc_end13-mbedtls_des3_set3key_enc
	.cfi_endproc
	.cantunwind
	.fnend
                                        @ -- End function
	.section	.text.des3_set3key,"ax",%progbits
	.p2align	1                               @ -- Begin function des3_set3key
	.type	des3_set3key,%function
	.code	16                              @ @des3_set3key
	.thumb_func
des3_set3key:
.Lfunc_begin14:
	.loc	1 579 0                         @ ../../../ThirdParty/mbedTLS/library/des.c:579:0
	.fnstart
	.cfi_startproc
@ %bb.0:
	@DEBUG_VALUE: des3_set3key:esk <- $r0
	@DEBUG_VALUE: des3_set3key:dsk <- $r1
	@DEBUG_VALUE: des3_set3key:key <- $r2
	.save	{r4, r5, r6, r7, lr}
	push	{r4, r5, r6, r7, lr}
	.cfi_def_cfa_offset 20
	.cfi_offset lr, -4
	.cfi_offset r7, -8
	.cfi_offset r6, -12
	.cfi_offset r5, -16
	.cfi_offset r4, -20
	.pad	#28
	sub	sp, #28
	.cfi_def_cfa_offset 48
	mov	r6, r2
	mov	r4, r1
	mov	r5, r0
.Ltmp114:
	@DEBUG_VALUE: des3_set3key:key <- $r6
	@DEBUG_VALUE: des3_set3key:dsk <- $r4
	@DEBUG_VALUE: des3_set3key:esk <- $r5
	.loc	1 582 5 prologue_end            @ ../../../ThirdParty/mbedTLS/library/des.c:582:5
	mov	r1, r2
	bl	mbedtls_des_setkey
	.loc	1 583 29                        @ ../../../ThirdParty/mbedTLS/library/des.c:583:29
	mov	r0, r4
	adds	r0, #128
	.loc	1 583 39 is_stmt 0              @ ../../../ThirdParty/mbedTLS/library/des.c:583:39
	mov	r1, r6
	adds	r1, #8
	.loc	1 583 5                         @ ../../../ThirdParty/mbedTLS/library/des.c:583:5
	bl	mbedtls_des_setkey
	movw	r0, #256
	.loc	1 584 29 is_stmt 1              @ ../../../ThirdParty/mbedTLS/library/des.c:584:29
	adds	r0, r5, r0
	.loc	1 584 39 is_stmt 0              @ ../../../ThirdParty/mbedTLS/library/des.c:584:39
	adds	r6, #16
.Ltmp115:
	.loc	1 584 5                         @ ../../../ThirdParty/mbedTLS/library/des.c:584:5
	mov	r1, r6
	bl	mbedtls_des_setkey
	movw	r0, #376
.Ltmp116:
	@DEBUG_VALUE: des3_set3key:i <- 0
	.loc	1 0 5                           @ ../../../ThirdParty/mbedTLS/library/des.c:0:5
	str	r5, [sp, #24]                   @ 4-byte Spill
.Ltmp117:
	@DEBUG_VALUE: des3_set3key:esk <- [DW_OP_plus_uconst 24] [$sp+0]
	.loc	1 586 5 is_stmt 1               @ ../../../ThirdParty/mbedTLS/library/des.c:586:5
	adds	r0, r5, r0
	str	r4, [sp, #20]                   @ 4-byte Spill
.Ltmp118:
	@DEBUG_VALUE: des3_set3key:dsk <- [DW_OP_plus_uconst 20] [$sp+0]
	adds	r4, #248
	str	r4, [sp, #16]                   @ 4-byte Spill
	movs	r1, #1
	mvns	r2, r1
	movs	r1, #0
	movs	r3, #248
	str	r3, [sp, #8]                    @ 4-byte Spill
	movs	r3, #128
	str	r3, [sp, #4]                    @ 4-byte Spill
	movs	r3, #252
	str	r3, [sp]                        @ 4-byte Spill
	mov	r3, r1
	str	r2, [sp, #12]                   @ 4-byte Spill
.Ltmp119:
.LBB14_1:                               @ =>This Inner Loop Header: Depth=1
	@DEBUG_VALUE: des3_set3key:dsk <- [DW_OP_plus_uconst 20] [$sp+0]
	@DEBUG_VALUE: des3_set3key:esk <- [DW_OP_plus_uconst 24] [$sp+0]
	@DEBUG_VALUE: des3_set3key:i <- undef
	.loc	1 588 23                        @ ../../../ThirdParty/mbedTLS/library/des.c:588:23
	ldr	r7, [r0]
	ldr	r5, [sp, #20]                   @ 4-byte Reload
	.loc	1 588 21 is_stmt 0              @ ../../../ThirdParty/mbedTLS/library/des.c:588:21
	str	r7, [r5, r3]
	adds	r7, r5, r3
	.loc	1 589 23 is_stmt 1              @ ../../../ThirdParty/mbedTLS/library/des.c:589:23
	ldr	r6, [r0, #4]
	.loc	1 589 21 is_stmt 0              @ ../../../ThirdParty/mbedTLS/library/des.c:589:21
	str	r6, [r7, #4]
	.loc	1 591 21 is_stmt 1              @ ../../../ThirdParty/mbedTLS/library/des.c:591:21
	ldr	r4, [sp, #24]                   @ 4-byte Reload
	adds	r6, r4, r3
	.loc	1 591 23 is_stmt 0              @ ../../../ThirdParty/mbedTLS/library/des.c:591:23
	adds	r7, r5, r1
	ldr	r5, [sp, #8]                    @ 4-byte Reload
	ldr	r5, [r7, r5]
	.loc	1 591 21                        @ ../../../ThirdParty/mbedTLS/library/des.c:591:21
	ldr	r4, [sp, #4]                    @ 4-byte Reload
	str	r5, [r6, r4]
	.loc	1 592 23 is_stmt 1              @ ../../../ThirdParty/mbedTLS/library/des.c:592:23
	ldr	r4, [sp]                        @ 4-byte Reload
	ldr	r5, [r7, r4]
	movs	r7, #132
	.loc	1 592 21 is_stmt 0              @ ../../../ThirdParty/mbedTLS/library/des.c:592:21
	str	r5, [r6, r7]
	.loc	1 594 21 is_stmt 1              @ ../../../ThirdParty/mbedTLS/library/des.c:594:21
	ldr	r5, [sp, #16]                   @ 4-byte Reload
	adds	r5, r5, r3
	.loc	1 594 23 is_stmt 0              @ ../../../ThirdParty/mbedTLS/library/des.c:594:23
	ldr	r4, [sp, #24]                   @ 4-byte Reload
	adds	r6, r4, r1
	ldr	r6, [r6, #120]
	.loc	1 594 21                        @ ../../../ThirdParty/mbedTLS/library/des.c:594:21
	str	r6, [r5, #8]
	.loc	1 595 23 is_stmt 1              @ ../../../ThirdParty/mbedTLS/library/des.c:595:23
	ldr	r4, [sp, #12]                   @ 4-byte Reload
	lsls	r6, r4, #2
.Ltmp120:
	.loc	1 586 19                        @ ../../../ThirdParty/mbedTLS/library/des.c:586:19
	adds	r0, r0, r6
.Ltmp121:
	.loc	1 595 23                        @ ../../../ThirdParty/mbedTLS/library/des.c:595:23
	mov	r6, r0
	subs	r6, #244
	ldr	r6, [r6]
	.loc	1 595 21 is_stmt 0              @ ../../../ThirdParty/mbedTLS/library/des.c:595:21
	str	r6, [r5, #12]
.Ltmp122:
	.loc	1 586 19 is_stmt 1              @ ../../../ThirdParty/mbedTLS/library/des.c:586:19
	subs	r1, #8
	adds	r3, #8
.Ltmp123:
	@DEBUG_VALUE: des3_set3key:i <- [DW_OP_plus_uconst 2, DW_OP_stack_value] undef
	adds	r2, r2, #2
.Ltmp124:
	.loc	1 586 5 is_stmt 0               @ ../../../ThirdParty/mbedTLS/library/des.c:586:5
	cmp	r2, #30
	blo	.LBB14_1
.Ltmp125:
@ %bb.2:
	@DEBUG_VALUE: des3_set3key:dsk <- [DW_OP_plus_uconst 20] [$sp+0]
	@DEBUG_VALUE: des3_set3key:esk <- [DW_OP_plus_uconst 24] [$sp+0]
	.loc	1 597 1 is_stmt 1               @ ../../../ThirdParty/mbedTLS/library/des.c:597:1
	add	sp, #28
.Ltmp126:
	pop	{r4, r5, r6, r7, pc}
.Ltmp127:
.Lfunc_end14:
	.size	des3_set3key, .Lfunc_end14-des3_set3key
	.cfi_endproc
	.cantunwind
	.fnend
                                        @ -- End function
	.section	.text.mbedtls_des3_set3key_dec,"ax",%progbits
	.hidden	mbedtls_des3_set3key_dec        @ -- Begin function mbedtls_des3_set3key_dec
	.globl	mbedtls_des3_set3key_dec
	.p2align	1
	.type	mbedtls_des3_set3key_dec,%function
	.code	16                              @ @mbedtls_des3_set3key_dec
	.thumb_func
mbedtls_des3_set3key_dec:
.Lfunc_begin15:
	.loc	1 618 0                         @ ../../../ThirdParty/mbedTLS/library/des.c:618:0
	.fnstart
	.cfi_startproc
@ %bb.0:
	@DEBUG_VALUE: mbedtls_des3_set3key_dec:ctx <- $r0
	@DEBUG_VALUE: mbedtls_des3_set3key_dec:key <- $r1
	.save	{r4, lr}
	push	{r4, lr}
	.cfi_def_cfa_offset 8
	.cfi_offset lr, -4
	.cfi_offset r4, -8
	.pad	#384
	sub	sp, #384
	.cfi_def_cfa_offset 392
	mov	r2, r1
	mov	r1, r0
.Ltmp128:
	@DEBUG_VALUE: mbedtls_des3_set3key_dec:key <- [DW_OP_LLVM_entry_value 1] $r1
	@DEBUG_VALUE: mbedtls_des3_set3key_dec:key <- $r2
	@DEBUG_VALUE: mbedtls_des3_set3key_dec:ctx <- $r1
	mov	r4, sp
.Ltmp129:
	.loc	1 621 5 prologue_end            @ ../../../ThirdParty/mbedTLS/library/des.c:621:5
	mov	r0, r4
	@DEBUG_VALUE: mbedtls_des3_set3key_dec:key <- $r2
	@DEBUG_VALUE: mbedtls_des3_set3key_dec:ctx <- $r1
	bl	des3_set3key
.Ltmp130:
	.loc	1 622 5                         @ ../../../ThirdParty/mbedTLS/library/des.c:622:5
	mov	r0, r4
	movw	r1, #384
	bl	mbedtls_platform_zeroize
	movs	r0, #0
	.loc	1 624 5                         @ ../../../ThirdParty/mbedTLS/library/des.c:624:5
	add	sp, #384
	pop	{r4, pc}
.Ltmp131:
.Lfunc_end15:
	.size	mbedtls_des3_set3key_dec, .Lfunc_end15-mbedtls_des3_set3key_dec
	.cfi_endproc
	.cantunwind
	.fnend
                                        @ -- End function
	.section	.text.mbedtls_des_crypt_ecb,"ax",%progbits
	.hidden	mbedtls_des_crypt_ecb           @ -- Begin function mbedtls_des_crypt_ecb
	.globl	mbedtls_des_crypt_ecb
	.p2align	2
	.type	mbedtls_des_crypt_ecb,%function
	.code	16                              @ @mbedtls_des_crypt_ecb
	.thumb_func
mbedtls_des_crypt_ecb:
.Lfunc_begin16:
	.loc	1 634 0                         @ ../../../ThirdParty/mbedTLS/library/des.c:634:0
	.fnstart
	.cfi_startproc
@ %bb.0:
	@DEBUG_VALUE: mbedtls_des_crypt_ecb:ctx <- $r0
	@DEBUG_VALUE: mbedtls_des_crypt_ecb:input <- $r1
	@DEBUG_VALUE: mbedtls_des_crypt_ecb:output <- $r2
	.save	{r4, r5, r6, r7, lr}
	push	{r4, r5, r6, r7, lr}
	.cfi_def_cfa_offset 20
	.cfi_offset lr, -4
	.cfi_offset r7, -8
	.cfi_offset r6, -12
	.cfi_offset r5, -16
	.cfi_offset r4, -20
	.pad	#24
	sub	sp, #24
	.cfi_def_cfa_offset 44
	str	r2, [sp]                        @ 4-byte Spill
	str	r0, [sp, #4]                    @ 4-byte Spill
.Ltmp132:
	@DEBUG_VALUE: mbedtls_des_crypt_ecb:SK <- undef
	@DEBUG_VALUE: mbedtls_des_crypt_ecb:output <- [$sp+0]
	@DEBUG_VALUE: mbedtls_des_crypt_ecb:input <- $r1
	@DEBUG_VALUE: mbedtls_des_crypt_ecb:ctx <- [DW_OP_plus_uconst 4] [$sp+0]
	.loc	1 641 5 prologue_end            @ ../../../ThirdParty/mbedTLS/library/des.c:641:5
	ldrb	r0, [r1, #4]
	lsls	r0, r0, #24
	ldrb	r2, [r1, #5]
	lsls	r2, r2, #16
	adds	r0, r2, r0
	ldrb	r2, [r1, #6]
	lsls	r2, r2, #8
	adds	r0, r0, r2
	ldrb	r2, [r1, #7]
	adds	r2, r0, r2
.Ltmp133:
	@DEBUG_VALUE: mbedtls_des_crypt_ecb:Y <- $r2
	.loc	1 640 5                         @ ../../../ThirdParty/mbedTLS/library/des.c:640:5
	ldrb	r0, [r1]
	lsls	r0, r0, #24
	ldrb	r3, [r1, #1]
	lsls	r3, r3, #16
	adds	r0, r3, r0
	ldrb	r3, [r1, #2]
	lsls	r3, r3, #8
	adds	r0, r0, r3
	ldrb	r1, [r1, #3]
.Ltmp134:
	@DEBUG_VALUE: mbedtls_des_crypt_ecb:input <- [DW_OP_LLVM_entry_value 1] $r1
	adds	r0, r0, r1
.Ltmp135:
	@DEBUG_VALUE: mbedtls_des_crypt_ecb:X <- $r0
	.loc	1 643 5                         @ ../../../ThirdParty/mbedTLS/library/des.c:643:5
	lsrs	r1, r0, #4
	eors	r1, r2
	ldr	r3, __arm_cp.16_0
	ands	r1, r3
.Ltmp136:
	@DEBUG_VALUE: mbedtls_des_crypt_ecb:T <- $r1
	eors	r2, r1
.Ltmp137:
	@DEBUG_VALUE: mbedtls_des_crypt_ecb:Y <- $r2
	uxth	r3, r2
	lsls	r4, r1, #4
	eors	r4, r0
.Ltmp138:
	@DEBUG_VALUE: mbedtls_des_crypt_ecb:X <- $r4
	lsrs	r0, r4, #16
	eors	r0, r3
.Ltmp139:
	@DEBUG_VALUE: mbedtls_des_crypt_ecb:T <- $r0
	lsls	r1, r0, #16
	eors	r1, r4
.Ltmp140:
	@DEBUG_VALUE: mbedtls_des_crypt_ecb:X <- $r1
	eors	r0, r2
.Ltmp141:
	@DEBUG_VALUE: mbedtls_des_crypt_ecb:Y <- $r0
	lsrs	r2, r0, #2
	eors	r2, r1
	ldr	r3, __arm_cp.16_1
	ands	r2, r3
.Ltmp142:
	@DEBUG_VALUE: mbedtls_des_crypt_ecb:T <- $r2
	eors	r1, r2
.Ltmp143:
	@DEBUG_VALUE: mbedtls_des_crypt_ecb:X <- $r1
	lsls	r2, r2, #2
.Ltmp144:
	eors	r2, r0
.Ltmp145:
	@DEBUG_VALUE: mbedtls_des_crypt_ecb:Y <- $r2
	lsrs	r0, r2, #8
	eors	r0, r1
	ldr	r3, __arm_cp.16_2
	ands	r0, r3
.Ltmp146:
	@DEBUG_VALUE: mbedtls_des_crypt_ecb:T <- $r0
	eors	r1, r0
.Ltmp147:
	@DEBUG_VALUE: mbedtls_des_crypt_ecb:X <- $r1
	lsls	r6, r0, #8
	eors	r6, r2
.Ltmp148:
	@DEBUG_VALUE: mbedtls_des_crypt_ecb:Y <- $r6
	lsls	r5, r6, #1
.Ltmp149:
	@DEBUG_VALUE: mbedtls_des_crypt_ecb:Y <- undef
	eors	r5, r1
	ldr	r0, __arm_cp.16_3
.Ltmp150:
	ands	r5, r0
.Ltmp151:
	@DEBUG_VALUE: mbedtls_des_crypt_ecb:T <- $r5
	.loc	1 0 5 is_stmt 0                 @ ../../../ThirdParty/mbedTLS/library/des.c:0:5
	movs	r0, #31
	.loc	1 643 5                         @ ../../../ThirdParty/mbedTLS/library/des.c:643:5
	rors	r6, r0
	eors	r6, r5
.Ltmp152:
	@DEBUG_VALUE: mbedtls_des_crypt_ecb:Y <- $r6
	eors	r5, r1
.Ltmp153:
	@DEBUG_VALUE: mbedtls_des_crypt_ecb:X <- $r5
	rors	r5, r0
.Ltmp154:
	@DEBUG_VALUE: mbedtls_des_crypt_ecb:X <- $r5
	.loc	1 0 5                           @ ../../../ThirdParty/mbedTLS/library/des.c:0:5
	movs	r1, #0
.Ltmp155:
	@DEBUG_VALUE: mbedtls_des_crypt_ecb:i <- 0
	@DEBUG_VALUE: mbedtls_des_crypt_ecb:SK <- undef
.LBB16_1:                               @ =>This Inner Loop Header: Depth=1
	@DEBUG_VALUE: mbedtls_des_crypt_ecb:Y <- $r6
	@DEBUG_VALUE: mbedtls_des_crypt_ecb:X <- $r5
	@DEBUG_VALUE: mbedtls_des_crypt_ecb:ctx <- [DW_OP_plus_uconst 4] [$sp+0]
	@DEBUG_VALUE: mbedtls_des_crypt_ecb:output <- [$sp+0]
	@DEBUG_VALUE: mbedtls_des_crypt_ecb:input <- [DW_OP_LLVM_entry_value 1] $r1
	@DEBUG_VALUE: mbedtls_des_crypt_ecb:SK <- undef
	@DEBUG_VALUE: mbedtls_des_crypt_ecb:Y <- $r6
	@DEBUG_VALUE: mbedtls_des_crypt_ecb:X <- $r5
	@DEBUG_VALUE: mbedtls_des_crypt_ecb:i <- undef
	str	r1, [sp, #20]                   @ 4-byte Spill
	movs	r2, #4
.Ltmp156:
	.loc	1 647 9 is_stmt 1               @ ../../../ThirdParty/mbedTLS/library/des.c:647:9
	str	r2, [sp, #16]                   @ 4-byte Spill
	mov	r0, r6
	rors	r0, r2
	ldr	r2, [sp, #4]                    @ 4-byte Reload
	adds	r1, r2, r1
.Ltmp157:
	@DEBUG_VALUE: mbedtls_des_crypt_ecb:X <- undef
	@DEBUG_VALUE: mbedtls_des_crypt_ecb:SK <- [DW_OP_plus_uconst 8, DW_OP_stack_value] undef
	str	r1, [sp, #12]                   @ 4-byte Spill
	ldr	r1, [r1, #4]
	eors	r1, r0
.Ltmp158:
	@DEBUG_VALUE: mbedtls_des_crypt_ecb:T <- $r1
	lsls	r0, r1, #26
	lsrs	r0, r0, #24
	ldr	r4, __arm_cp.16_4
	ldr	r0, [r4, r0]
.Ltmp159:
	@DEBUG_VALUE: mbedtls_des_crypt_ecb:SK <- [DW_OP_plus_uconst 4, DW_OP_stack_value] undef
	str	r0, [sp, #8]                    @ 4-byte Spill
	ldr	r0, [sp, #20]                   @ 4-byte Reload
	ldr	r0, [r2, r0]
	eors	r0, r6
.Ltmp160:
	@DEBUG_VALUE: mbedtls_des_crypt_ecb:T <- $r0
	lsrs	r7, r0, #6
	movs	r2, #252
	ands	r7, r2
	ldr	r4, __arm_cp.16_5
	ldr	r7, [r4, r7]
	lsls	r4, r0, #26
	lsrs	r4, r4, #24
	ldr	r3, __arm_cp.16_6
	ldr	r4, [r3, r4]
	eors	r4, r5
	eors	r4, r7
	lsrs	r5, r0, #14
	ands	r5, r2
	ldr	r3, __arm_cp.16_7
	ldr	r5, [r3, r5]
	eors	r5, r4
	lsrs	r0, r0, #22
.Ltmp161:
	ands	r0, r2
	ldr	r7, __arm_cp.16_8
	ldr	r0, [r7, r0]
	eors	r0, r5
	ldr	r3, [sp, #8]                    @ 4-byte Reload
	eors	r0, r3
	lsrs	r4, r1, #6
	ands	r4, r2
	ldr	r5, __arm_cp.16_9
	ldr	r4, [r5, r4]
	eors	r4, r0
	lsrs	r0, r1, #14
	ands	r0, r2
	ldr	r5, __arm_cp.16_10
	ldr	r0, [r5, r0]
	eors	r0, r4
	lsrs	r1, r1, #22
	ands	r1, r2
	ldr	r4, __arm_cp.16_11
	ldr	r5, [r4, r1]
	eors	r5, r0
.Ltmp162:
	@DEBUG_VALUE: mbedtls_des_crypt_ecb:X <- $r5
	@DEBUG_VALUE: mbedtls_des_crypt_ecb:SK <- [DW_OP_plus_uconst 12, DW_OP_stack_value] undef
	.loc	1 0 9 is_stmt 0                 @ ../../../ThirdParty/mbedTLS/library/des.c:0:9
	ldr	r3, [sp, #12]                   @ 4-byte Reload
.Ltmp163:
	.loc	1 648 9 is_stmt 1               @ ../../../ThirdParty/mbedTLS/library/des.c:648:9
	ldr	r0, [r3, #8]
	eors	r0, r5
.Ltmp164:
	@DEBUG_VALUE: mbedtls_des_crypt_ecb:T <- $r0
	lsrs	r1, r0, #6
	ands	r1, r2
	ldr	r4, __arm_cp.16_5
	ldr	r1, [r4, r1]
	lsls	r4, r0, #26
	lsrs	r4, r4, #24
	ldr	r7, __arm_cp.16_6
	ldr	r4, [r7, r4]
	eors	r4, r6
	eors	r4, r1
	lsrs	r1, r0, #14
	ands	r1, r2
	ldr	r6, __arm_cp.16_7
.Ltmp165:
	ldr	r1, [r6, r1]
	eors	r1, r4
	lsrs	r0, r0, #22
.Ltmp166:
	ands	r0, r2
	ldr	r4, __arm_cp.16_8
	ldr	r4, [r4, r0]
	eors	r4, r1
	mov	r1, r5
	ldr	r0, [sp, #16]                   @ 4-byte Reload
	rors	r1, r0
.Ltmp167:
	@DEBUG_VALUE: mbedtls_des_crypt_ecb:Y <- undef
	@DEBUG_VALUE: mbedtls_des_crypt_ecb:SK <- [DW_OP_plus_uconst 16, DW_OP_stack_value] undef
	ldr	r0, [r3, #12]
	eors	r0, r1
.Ltmp168:
	@DEBUG_VALUE: mbedtls_des_crypt_ecb:T <- $r0
	lsls	r1, r0, #26
	lsrs	r1, r1, #24
	ldr	r3, __arm_cp.16_4
	ldr	r1, [r3, r1]
	eors	r1, r4
	lsrs	r4, r0, #6
	ands	r4, r2
	ldr	r3, __arm_cp.16_9
	ldr	r4, [r3, r4]
	eors	r4, r1
	lsrs	r1, r0, #14
	ands	r1, r2
	ldr	r3, __arm_cp.16_10
	ldr	r1, [r3, r1]
	eors	r1, r4
	lsrs	r0, r0, #22
.Ltmp169:
	ands	r0, r2
	ldr	r2, __arm_cp.16_11
	ldr	r6, [r2, r0]
	eors	r6, r1
.Ltmp170:
	@DEBUG_VALUE: mbedtls_des_crypt_ecb:i <- [DW_OP_plus_uconst 1, DW_OP_stack_value] undef
	@DEBUG_VALUE: mbedtls_des_crypt_ecb:Y <- $r6
	.loc	1 0 9 is_stmt 0                 @ ../../../ThirdParty/mbedTLS/library/des.c:0:9
	ldr	r1, [sp, #20]                   @ 4-byte Reload
.Ltmp171:
	.loc	1 645 19 is_stmt 1              @ ../../../ThirdParty/mbedTLS/library/des.c:645:19
	adds	r1, #16
.Ltmp172:
	.loc	1 645 5 is_stmt 0               @ ../../../ThirdParty/mbedTLS/library/des.c:645:5
	cmp	r1, #128
	bne	.LBB16_1
.Ltmp173:
@ %bb.2:
	@DEBUG_VALUE: mbedtls_des_crypt_ecb:Y <- $r6
	@DEBUG_VALUE: mbedtls_des_crypt_ecb:X <- $r5
	@DEBUG_VALUE: mbedtls_des_crypt_ecb:ctx <- [DW_OP_plus_uconst 4] [$sp+0]
	@DEBUG_VALUE: mbedtls_des_crypt_ecb:output <- [$sp+0]
	@DEBUG_VALUE: mbedtls_des_crypt_ecb:input <- [DW_OP_LLVM_entry_value 1] $r1
	@DEBUG_VALUE: mbedtls_des_crypt_ecb:Y <- $r6
	@DEBUG_VALUE: mbedtls_des_crypt_ecb:X <- $r5
	.loc	1 0 5                           @ ../../../ThirdParty/mbedTLS/library/des.c:0:5
	movs	r0, #1
.Ltmp174:
	.loc	1 651 5 is_stmt 1               @ ../../../ThirdParty/mbedTLS/library/des.c:651:5
	rors	r6, r0
.Ltmp175:
	@DEBUG_VALUE: mbedtls_des_crypt_ecb:Y <- $r6
	mov	r0, r6
	eors	r0, r5
	ldr	r1, __arm_cp.16_3
	ands	r0, r1
.Ltmp176:
	@DEBUG_VALUE: mbedtls_des_crypt_ecb:T <- $r0
	eors	r6, r0
.Ltmp177:
	@DEBUG_VALUE: mbedtls_des_crypt_ecb:Y <- $r6
	eors	r0, r5
.Ltmp178:
	lsrs	r0, r0, #1
.Ltmp179:
	@DEBUG_VALUE: mbedtls_des_crypt_ecb:X <- undef
	lsls	r1, r5, #31
	adds	r0, r0, r1
.Ltmp180:
	@DEBUG_VALUE: mbedtls_des_crypt_ecb:X <- $r0
	lsrs	r1, r0, #8
	eors	r1, r6
	ldr	r2, __arm_cp.16_2
	ands	r1, r2
.Ltmp181:
	@DEBUG_VALUE: mbedtls_des_crypt_ecb:T <- $r1
	eors	r6, r1
.Ltmp182:
	@DEBUG_VALUE: mbedtls_des_crypt_ecb:Y <- $r6
	lsls	r1, r1, #8
.Ltmp183:
	eors	r1, r0
.Ltmp184:
	@DEBUG_VALUE: mbedtls_des_crypt_ecb:X <- $r1
	lsrs	r0, r1, #2
	eors	r0, r6
	ldr	r2, __arm_cp.16_1
	ands	r0, r2
.Ltmp185:
	@DEBUG_VALUE: mbedtls_des_crypt_ecb:T <- $r0
	eors	r6, r0
.Ltmp186:
	@DEBUG_VALUE: mbedtls_des_crypt_ecb:Y <- $r6
	lsrs	r2, r6, #16
	lsls	r3, r0, #2
	eors	r3, r1
.Ltmp187:
	@DEBUG_VALUE: mbedtls_des_crypt_ecb:X <- $r3
	uxth	r1, r3
	eors	r1, r2
.Ltmp188:
	@DEBUG_VALUE: mbedtls_des_crypt_ecb:T <- $r1
	lsls	r0, r1, #16
	eors	r0, r6
.Ltmp189:
	@DEBUG_VALUE: mbedtls_des_crypt_ecb:Y <- $r0
	lsrs	r2, r0, #4
	eors	r1, r3
.Ltmp190:
	@DEBUG_VALUE: mbedtls_des_crypt_ecb:X <- $r1
	eors	r2, r1
	ldr	r3, __arm_cp.16_0
	ands	r2, r3
.Ltmp191:
	@DEBUG_VALUE: mbedtls_des_crypt_ecb:T <- $r2
	eors	r1, r2
.Ltmp192:
	@DEBUG_VALUE: mbedtls_des_crypt_ecb:X <- $r1
	.loc	1 0 5 is_stmt 0                 @ ../../../ThirdParty/mbedTLS/library/des.c:0:5
	ldr	r4, [sp]                        @ 4-byte Reload
.Ltmp193:
	.loc	1 654 5 is_stmt 1               @ ../../../ThirdParty/mbedTLS/library/des.c:654:5
	strb	r1, [r4, #7]
	lsrs	r3, r1, #8
	strb	r3, [r4, #6]
	lsrs	r3, r1, #16
	strb	r3, [r4, #5]
	lsrs	r1, r1, #24
.Ltmp194:
	strb	r1, [r4, #4]
.Ltmp195:
	.loc	1 651 5                         @ ../../../ThirdParty/mbedTLS/library/des.c:651:5
	lsls	r1, r2, #4
	eors	r1, r0
.Ltmp196:
	@DEBUG_VALUE: mbedtls_des_crypt_ecb:Y <- $r1
	.loc	1 653 5                         @ ../../../ThirdParty/mbedTLS/library/des.c:653:5
	strb	r1, [r4, #3]
	lsrs	r0, r1, #8
	strb	r0, [r4, #2]
	lsrs	r0, r1, #16
	strb	r0, [r4, #1]
	lsrs	r0, r1, #24
	strb	r0, [r4]
	movs	r0, #0
.Ltmp197:
	.loc	1 656 5                         @ ../../../ThirdParty/mbedTLS/library/des.c:656:5
	add	sp, #24
.Ltmp198:
	pop	{r4, r5, r6, r7, pc}
.Ltmp199:
	.p2align	2
@ %bb.3:
	.loc	1 0 5 is_stmt 0                 @ ../../../ThirdParty/mbedTLS/library/des.c:0:5
__arm_cp.16_0:
	.long	252645135                       @ 0xf0f0f0f
.Lcpi_end10:
	.size	__arm_cp.16_0, .Lcpi_end10-__arm_cp.16_0
__arm_cp.16_1:
	.long	858993459                       @ 0x33333333
.Lcpi_end11:
	.size	__arm_cp.16_1, .Lcpi_end11-__arm_cp.16_1
__arm_cp.16_2:
	.long	16711935                        @ 0xff00ff
.Lcpi_end12:
	.size	__arm_cp.16_2, .Lcpi_end12-__arm_cp.16_2
__arm_cp.16_3:
	.long	2863311530                      @ 0xaaaaaaaa
.Lcpi_end13:
	.size	__arm_cp.16_3, .Lcpi_end13-__arm_cp.16_3
__arm_cp.16_4:
	.long	SB7
.Lcpi_end14:
	.size	__arm_cp.16_4, .Lcpi_end14-__arm_cp.16_4
__arm_cp.16_5:
	.long	SB6
.Lcpi_end15:
	.size	__arm_cp.16_5, .Lcpi_end15-__arm_cp.16_5
__arm_cp.16_6:
	.long	SB8
.Lcpi_end16:
	.size	__arm_cp.16_6, .Lcpi_end16-__arm_cp.16_6
__arm_cp.16_7:
	.long	SB4
.Lcpi_end17:
	.size	__arm_cp.16_7, .Lcpi_end17-__arm_cp.16_7
__arm_cp.16_8:
	.long	SB2
.Lcpi_end18:
	.size	__arm_cp.16_8, .Lcpi_end18-__arm_cp.16_8
__arm_cp.16_9:
	.long	SB5
.Lcpi_end19:
	.size	__arm_cp.16_9, .Lcpi_end19-__arm_cp.16_9
__arm_cp.16_10:
	.long	SB3
.Lcpi_end20:
	.size	__arm_cp.16_10, .Lcpi_end20-__arm_cp.16_10
__arm_cp.16_11:
	.long	SB1
.Lcpi_end21:
	.size	__arm_cp.16_11, .Lcpi_end21-__arm_cp.16_11
.Lfunc_end16:
	.size	mbedtls_des_crypt_ecb, .Lfunc_end16-mbedtls_des_crypt_ecb
	.cfi_endproc
	.cantunwind
	.fnend
                                        @ -- End function
	.section	.text.mbedtls_des_crypt_cbc,"ax",%progbits
	.hidden	mbedtls_des_crypt_cbc           @ -- Begin function mbedtls_des_crypt_cbc
	.globl	mbedtls_des_crypt_cbc
	.p2align	1
	.type	mbedtls_des_crypt_cbc,%function
	.code	16                              @ @mbedtls_des_crypt_cbc
	.thumb_func
mbedtls_des_crypt_cbc:
.Lfunc_begin17:
	.loc	1 670 0 is_stmt 1               @ ../../../ThirdParty/mbedTLS/library/des.c:670:0
	.fnstart
	.cfi_startproc
@ %bb.0:
	@DEBUG_VALUE: mbedtls_des_crypt_cbc:ctx <- $r0
	@DEBUG_VALUE: mbedtls_des_crypt_cbc:mode <- $r1
	@DEBUG_VALUE: mbedtls_des_crypt_cbc:length <- $r2
	@DEBUG_VALUE: mbedtls_des_crypt_cbc:iv <- $r3
	.save	{r4, r5, r6, r7, lr}
	push	{r4, r5, r6, r7, lr}
	.cfi_def_cfa_offset 20
	.cfi_offset lr, -4
	.cfi_offset r7, -8
	.cfi_offset r6, -12
	.cfi_offset r5, -16
	.cfi_offset r4, -20
	.pad	#44
	sub	sp, #44
	.cfi_def_cfa_offset 64
	mov	r5, r2
.Ltmp200:
	@DEBUG_VALUE: mbedtls_des_crypt_cbc:output <- [DW_OP_plus_uconst 68] [$sp+0]
	@DEBUG_VALUE: mbedtls_des_crypt_cbc:input <- [DW_OP_plus_uconst 64] [$sp+0]
	@DEBUG_VALUE: mbedtls_des_crypt_cbc:iv <- $r3
	@DEBUG_VALUE: mbedtls_des_crypt_cbc:length <- $r5
	@DEBUG_VALUE: mbedtls_des_crypt_cbc:mode <- $r1
	@DEBUG_VALUE: mbedtls_des_crypt_cbc:ctx <- $r0
	.loc	1 674 9 prologue_end            @ ../../../ThirdParty/mbedTLS/library/des.c:674:9
	lsls	r2, r2, #29
	beq	.LBB17_3
.Ltmp201:
@ %bb.1:
	@DEBUG_VALUE: mbedtls_des_crypt_cbc:length <- $r5
	@DEBUG_VALUE: mbedtls_des_crypt_cbc:iv <- $r3
	@DEBUG_VALUE: mbedtls_des_crypt_cbc:mode <- $r1
	@DEBUG_VALUE: mbedtls_des_crypt_cbc:ctx <- $r0
	@DEBUG_VALUE: mbedtls_des_crypt_cbc:input <- [DW_OP_plus_uconst 64] [$sp+0]
	@DEBUG_VALUE: mbedtls_des_crypt_cbc:output <- [DW_OP_plus_uconst 68] [$sp+0]
	.loc	1 0 9 is_stmt 0                 @ ../../../ThirdParty/mbedTLS/library/des.c:0:9
	movs	r0, #49
.Ltmp202:
	@DEBUG_VALUE: mbedtls_des_crypt_cbc:ctx <- [DW_OP_LLVM_entry_value 1] $r0
	mvns	r1, r0
.Ltmp203:
	@DEBUG_VALUE: mbedtls_des_crypt_cbc:mode <- [DW_OP_LLVM_entry_value 1] $r1
.LBB17_2:
	@DEBUG_VALUE: mbedtls_des_crypt_cbc:mode <- [DW_OP_LLVM_entry_value 1] $r1
	.loc	1 711 1 is_stmt 1               @ ../../../ThirdParty/mbedTLS/library/des.c:711:1
	mov	r0, r1
	add	sp, #44
	pop	{r4, r5, r6, r7, pc}
.Ltmp204:
.LBB17_3:
	@DEBUG_VALUE: mbedtls_des_crypt_cbc:length <- $r5
	@DEBUG_VALUE: mbedtls_des_crypt_cbc:iv <- $r3
	@DEBUG_VALUE: mbedtls_des_crypt_cbc:mode <- $r1
	@DEBUG_VALUE: mbedtls_des_crypt_cbc:ctx <- $r0
	@DEBUG_VALUE: mbedtls_des_crypt_cbc:input <- [DW_OP_plus_uconst 64] [$sp+0]
	@DEBUG_VALUE: mbedtls_des_crypt_cbc:output <- [DW_OP_plus_uconst 68] [$sp+0]
	.loc	1 0 1 is_stmt 0                 @ ../../../ThirdParty/mbedTLS/library/des.c:0:1
	mov	r4, r3
.Ltmp205:
	@DEBUG_VALUE: mbedtls_des_crypt_cbc:iv <- $r4
	ldr	r6, [sp, #68]
	ldr	r7, [sp, #64]
.Ltmp206:
	@DEBUG_VALUE: mbedtls_des_crypt_cbc:output <- undef
	@DEBUG_VALUE: mbedtls_des_crypt_cbc:input <- undef
	@DEBUG_VALUE: mbedtls_des_crypt_cbc:length <- undef
	.loc	1 677 9 is_stmt 1               @ ../../../ThirdParty/mbedTLS/library/des.c:677:9
	cmp	r1, #1
	@DEBUG_VALUE: mbedtls_des_crypt_cbc:output <- undef
	@DEBUG_VALUE: mbedtls_des_crypt_cbc:input <- undef
	@DEBUG_VALUE: mbedtls_des_crypt_cbc:length <- undef
	str	r0, [sp, #40]                   @ 4-byte Spill
	bne	.LBB17_9
.Ltmp207:
@ %bb.4:
	@DEBUG_VALUE: mbedtls_des_crypt_cbc:iv <- $r4
	@DEBUG_VALUE: mbedtls_des_crypt_cbc:mode <- $r1
	@DEBUG_VALUE: mbedtls_des_crypt_cbc:ctx <- $r0
	.loc	1 0 9 is_stmt 0                 @ ../../../ThirdParty/mbedTLS/library/des.c:0:9
	movs	r1, #0
.Ltmp208:
	@DEBUG_VALUE: mbedtls_des_crypt_cbc:mode <- [DW_OP_LLVM_entry_value 1] $r1
	.loc	1 679 9 is_stmt 1               @ ../../../ThirdParty/mbedTLS/library/des.c:679:9
	cmp	r5, #0
	beq	.LBB17_2
.Ltmp209:
@ %bb.5:
	@DEBUG_VALUE: mbedtls_des_crypt_cbc:iv <- $r4
	@DEBUG_VALUE: mbedtls_des_crypt_cbc:ctx <- $r0
	@DEBUG_VALUE: mbedtls_des_crypt_cbc:mode <- [DW_OP_LLVM_entry_value 1] $r1
	.loc	1 0 9 is_stmt 0                 @ ../../../ThirdParty/mbedTLS/library/des.c:0:9
	str	r1, [sp, #36]                   @ 4-byte Spill
.Ltmp210:
.LBB17_6:                               @ =>This Loop Header: Depth=1
                                        @     Child Loop BB17_7 Depth 2
	@DEBUG_VALUE: mbedtls_des_crypt_cbc:iv <- $r4
	@DEBUG_VALUE: mbedtls_des_crypt_cbc:mode <- [DW_OP_LLVM_entry_value 1] $r1
	@DEBUG_VALUE: mbedtls_des_crypt_cbc:length <- $r5
	@DEBUG_VALUE: mbedtls_des_crypt_cbc:input <- $r7
	@DEBUG_VALUE: mbedtls_des_crypt_cbc:output <- $r6
	@DEBUG_VALUE: mbedtls_des_crypt_cbc:i <- 0
	mov	r3, r1
.Ltmp211:
.LBB17_7:                               @   Parent Loop BB17_6 Depth=1
                                        @ =>  This Inner Loop Header: Depth=2
	@DEBUG_VALUE: mbedtls_des_crypt_cbc:input <- $r7
	@DEBUG_VALUE: mbedtls_des_crypt_cbc:output <- $r6
	@DEBUG_VALUE: mbedtls_des_crypt_cbc:length <- $r5
	@DEBUG_VALUE: mbedtls_des_crypt_cbc:iv <- $r4
	@DEBUG_VALUE: mbedtls_des_crypt_cbc:mode <- [DW_OP_LLVM_entry_value 1] $r1
	@DEBUG_VALUE: mbedtls_des_crypt_cbc:i <- $r3
	.loc	1 682 46 is_stmt 1              @ ../../../ThirdParty/mbedTLS/library/des.c:682:46
	ldrb	r1, [r7, r3]
	.loc	1 682 57 is_stmt 0              @ ../../../ThirdParty/mbedTLS/library/des.c:682:57
	ldrb	r2, [r4, r3]
	.loc	1 682 55                        @ ../../../ThirdParty/mbedTLS/library/des.c:682:55
	eors	r2, r1
	.loc	1 682 27                        @ ../../../ThirdParty/mbedTLS/library/des.c:682:27
	strb	r2, [r6, r3]
	.loc	1 681 33 is_stmt 1              @ ../../../ThirdParty/mbedTLS/library/des.c:681:33
	adds	r3, r3, #1
.Ltmp212:
	@DEBUG_VALUE: mbedtls_des_crypt_cbc:i <- $r3
	.loc	1 681 13 is_stmt 0              @ ../../../ThirdParty/mbedTLS/library/des.c:681:13
	cmp	r3, #8
	bne	.LBB17_7
.Ltmp213:
@ %bb.8:                                @   in Loop: Header=BB17_6 Depth=1
	@DEBUG_VALUE: mbedtls_des_crypt_cbc:input <- $r7
	@DEBUG_VALUE: mbedtls_des_crypt_cbc:output <- $r6
	@DEBUG_VALUE: mbedtls_des_crypt_cbc:length <- $r5
	@DEBUG_VALUE: mbedtls_des_crypt_cbc:iv <- $r4
	@DEBUG_VALUE: mbedtls_des_crypt_cbc:i <- $r3
	@DEBUG_VALUE: mbedtls_des_crypt_cbc:mode <- [DW_OP_LLVM_entry_value 1] $r1
	.loc	1 684 13 is_stmt 1              @ ../../../ThirdParty/mbedTLS/library/des.c:684:13
	mov	r1, r6
	mov	r2, r6
	bl	mbedtls_des_crypt_ecb
.Ltmp214:
	@DEBUG_VALUE: mbedtls_des_crypt_cbc:ctx <- [DW_OP_LLVM_entry_value 1] $r0
	.loc	1 685 13                        @ ../../../ThirdParty/mbedTLS/library/des.c:685:13
	ldrb	r0, [r6, #1]
	str	r0, [sp, #32]                   @ 4-byte Spill
	ldrb	r0, [r6]
	str	r0, [sp, #28]                   @ 4-byte Spill
	ldrb	r0, [r6, #3]
	str	r0, [sp, #24]                   @ 4-byte Spill
	ldrb	r0, [r6, #2]
	str	r0, [sp, #20]                   @ 4-byte Spill
	ldrb	r0, [r6, #5]
	str	r0, [sp, #16]                   @ 4-byte Spill
	ldrb	r2, [r6, #4]
	ldrb	r1, [r6, #7]
	ldrb	r3, [r6, #6]
	strb	r3, [r4, #6]
	ldr	r0, [sp, #40]                   @ 4-byte Reload
	strb	r1, [r4, #7]
	strb	r2, [r4, #4]
	ldr	r1, [sp, #16]                   @ 4-byte Reload
	strb	r1, [r4, #5]
	ldr	r1, [sp, #20]                   @ 4-byte Reload
	strb	r1, [r4, #2]
	ldr	r1, [sp, #24]                   @ 4-byte Reload
	strb	r1, [r4, #3]
	ldr	r1, [sp, #28]                   @ 4-byte Reload
	strb	r1, [r4]
	ldr	r1, [sp, #32]                   @ 4-byte Reload
	strb	r1, [r4, #1]
	.loc	1 689 20                        @ ../../../ThirdParty/mbedTLS/library/des.c:689:20
	subs	r5, #8
.Ltmp215:
	@DEBUG_VALUE: mbedtls_des_crypt_cbc:length <- $r5
	.loc	1 688 20                        @ ../../../ThirdParty/mbedTLS/library/des.c:688:20
	adds	r6, #8
.Ltmp216:
	@DEBUG_VALUE: mbedtls_des_crypt_cbc:output <- $r6
	.loc	1 687 20                        @ ../../../ThirdParty/mbedTLS/library/des.c:687:20
	adds	r7, #8
.Ltmp217:
	@DEBUG_VALUE: mbedtls_des_crypt_cbc:input <- $r7
	.loc	1 679 9                         @ ../../../ThirdParty/mbedTLS/library/des.c:679:9
	cmp	r5, #0
	ldr	r1, [sp, #36]                   @ 4-byte Reload
	bne	.LBB17_6
	b	.LBB17_2
.Ltmp218:
.LBB17_9:
	@DEBUG_VALUE: mbedtls_des_crypt_cbc:iv <- $r4
	@DEBUG_VALUE: mbedtls_des_crypt_cbc:mode <- $r1
	@DEBUG_VALUE: mbedtls_des_crypt_cbc:ctx <- $r0
	.loc	1 0 9 is_stmt 0                 @ ../../../ThirdParty/mbedTLS/library/des.c:0:9
	movs	r1, #0
.Ltmp219:
	@DEBUG_VALUE: mbedtls_des_crypt_cbc:mode <- [DW_OP_LLVM_entry_value 1] $r1
	.loc	1 694 9 is_stmt 1               @ ../../../ThirdParty/mbedTLS/library/des.c:694:9
	cmp	r5, #0
	beq	.LBB17_2
.Ltmp220:
@ %bb.10:
	@DEBUG_VALUE: mbedtls_des_crypt_cbc:iv <- $r4
	@DEBUG_VALUE: mbedtls_des_crypt_cbc:ctx <- $r0
	@DEBUG_VALUE: mbedtls_des_crypt_cbc:mode <- [DW_OP_LLVM_entry_value 1] $r1
	.loc	1 0 9 is_stmt 0                 @ ../../../ThirdParty/mbedTLS/library/des.c:0:9
	str	r1, [sp, #36]                   @ 4-byte Spill
.Ltmp221:
.LBB17_11:                              @ =>This Loop Header: Depth=1
                                        @     Child Loop BB17_12 Depth 2
	@DEBUG_VALUE: mbedtls_des_crypt_cbc:iv <- $r4
	@DEBUG_VALUE: mbedtls_des_crypt_cbc:mode <- [DW_OP_LLVM_entry_value 1] $r1
	@DEBUG_VALUE: mbedtls_des_crypt_cbc:length <- $r5
	@DEBUG_VALUE: mbedtls_des_crypt_cbc:input <- $r7
	@DEBUG_VALUE: mbedtls_des_crypt_cbc:output <- $r6
	str	r5, [sp, #32]                   @ 4-byte Spill
.Ltmp222:
	@DEBUG_VALUE: mbedtls_des_crypt_cbc:length <- [DW_OP_plus_uconst 32] [$sp+0]
	@DEBUG_VALUE: mbedtls_des_crypt_cbc:length <- [DW_OP_plus_uconst 32] [$sp+0]
	@DEBUG_VALUE: mbedtls_des_crypt_cbc:length <- [DW_OP_plus_uconst 32] [$sp+0]
	.loc	1 696 13 is_stmt 1              @ ../../../ThirdParty/mbedTLS/library/des.c:696:13
	ldrb	r5, [r7, #2]
	ldrb	r1, [r7, #3]
	str	r1, [sp, #28]                   @ 4-byte Spill
	ldrb	r1, [r7]
	str	r1, [sp, #24]                   @ 4-byte Spill
	ldrb	r1, [r7, #1]
	str	r1, [sp, #20]                   @ 4-byte Spill
	ldrb	r1, [r7, #6]
	str	r1, [sp, #16]                   @ 4-byte Spill
	ldrb	r1, [r7, #7]
	str	r1, [sp, #12]                   @ 4-byte Spill
	ldrb	r1, [r7, #4]
	str	r1, [sp, #8]                    @ 4-byte Spill
	ldrb	r1, [r7, #5]
	.loc	1 697 13                        @ ../../../ThirdParty/mbedTLS/library/des.c:697:13
	str	r1, [sp, #4]                    @ 4-byte Spill
	mov	r1, r7
	mov	r2, r6
	bl	mbedtls_des_crypt_ecb
.Ltmp223:
	@DEBUG_VALUE: mbedtls_des_crypt_cbc:ctx <- [DW_OP_LLVM_entry_value 1] $r0
	.loc	1 696 13                        @ ../../../ThirdParty/mbedTLS/library/des.c:696:13
	ldr	r0, [sp, #4]                    @ 4-byte Reload
	lsls	r0, r0, #8
	ldr	r1, [sp, #8]                    @ 4-byte Reload
	adds	r0, r0, r1
	ldr	r1, [sp, #12]                   @ 4-byte Reload
	lsls	r1, r1, #8
	ldr	r2, [sp, #16]                   @ 4-byte Reload
	adds	r1, r1, r2
	lsls	r1, r1, #16
	adds	r0, r1, r0
.Ltmp224:
	@DEBUG_VALUE: mbedtls_des_crypt_cbc:temp <- [DW_OP_LLVM_fragment 32 32] $r0
	ldr	r1, [sp, #20]                   @ 4-byte Reload
	lsls	r1, r1, #8
	ldr	r2, [sp, #24]                   @ 4-byte Reload
	adds	r1, r1, r2
	ldr	r2, [sp, #28]                   @ 4-byte Reload
	lsls	r2, r2, #8
	adds	r2, r2, r5
	lsls	r2, r2, #16
	adds	r1, r2, r1
.Ltmp225:
	@DEBUG_VALUE: mbedtls_des_crypt_cbc:temp <- [DW_OP_LLVM_fragment 0 32] $r1
	@DEBUG_VALUE: mbedtls_des_crypt_cbc:i <- 0
	.loc	1 0 13 is_stmt 0                @ ../../../ThirdParty/mbedTLS/library/des.c:0:13
	ldr	r2, [sp, #36]                   @ 4-byte Reload
.Ltmp226:
.LBB17_12:                              @   Parent Loop BB17_11 Depth=1
                                        @ =>  This Inner Loop Header: Depth=2
	@DEBUG_VALUE: mbedtls_des_crypt_cbc:input <- $r7
	@DEBUG_VALUE: mbedtls_des_crypt_cbc:output <- $r6
	@DEBUG_VALUE: mbedtls_des_crypt_cbc:iv <- $r4
	@DEBUG_VALUE: mbedtls_des_crypt_cbc:temp <- [DW_OP_LLVM_fragment 0 32] $r1
	@DEBUG_VALUE: mbedtls_des_crypt_cbc:temp <- [DW_OP_LLVM_fragment 32 32] $r0
	@DEBUG_VALUE: mbedtls_des_crypt_cbc:length <- [DW_OP_plus_uconst 32] [$sp+0]
	@DEBUG_VALUE: mbedtls_des_crypt_cbc:mode <- [DW_OP_LLVM_entry_value 1] $r1
	@DEBUG_VALUE: mbedtls_des_crypt_cbc:i <- $r2
	.loc	1 700 46 is_stmt 1              @ ../../../ThirdParty/mbedTLS/library/des.c:700:46
	ldrb	r3, [r6, r2]
	.loc	1 700 58 is_stmt 0              @ ../../../ThirdParty/mbedTLS/library/des.c:700:58
	ldrb	r5, [r4, r2]
	.loc	1 700 56                        @ ../../../ThirdParty/mbedTLS/library/des.c:700:56
	eors	r5, r3
	.loc	1 700 27                        @ ../../../ThirdParty/mbedTLS/library/des.c:700:27
	strb	r5, [r6, r2]
	.loc	1 699 33 is_stmt 1              @ ../../../ThirdParty/mbedTLS/library/des.c:699:33
	adds	r2, r2, #1
.Ltmp227:
	@DEBUG_VALUE: mbedtls_des_crypt_cbc:i <- $r2
	.loc	1 699 13 is_stmt 0              @ ../../../ThirdParty/mbedTLS/library/des.c:699:13
	cmp	r2, #8
	bne	.LBB17_12
.Ltmp228:
@ %bb.13:                               @   in Loop: Header=BB17_11 Depth=1
	@DEBUG_VALUE: mbedtls_des_crypt_cbc:input <- $r7
	@DEBUG_VALUE: mbedtls_des_crypt_cbc:output <- $r6
	@DEBUG_VALUE: mbedtls_des_crypt_cbc:iv <- $r4
	@DEBUG_VALUE: mbedtls_des_crypt_cbc:i <- $r2
	@DEBUG_VALUE: mbedtls_des_crypt_cbc:temp <- [DW_OP_LLVM_fragment 0 32] $r1
	@DEBUG_VALUE: mbedtls_des_crypt_cbc:temp <- [DW_OP_LLVM_fragment 32 32] $r0
	@DEBUG_VALUE: mbedtls_des_crypt_cbc:length <- [DW_OP_plus_uconst 32] [$sp+0]
	@DEBUG_VALUE: mbedtls_des_crypt_cbc:mode <- [DW_OP_LLVM_entry_value 1] $r1
	.loc	1 702 13 is_stmt 1              @ ../../../ThirdParty/mbedTLS/library/des.c:702:13
	strb	r1, [r4]
	strb	r0, [r4, #4]
	lsrs	r2, r1, #24
.Ltmp229:
	strb	r2, [r4, #3]
	lsrs	r2, r1, #16
	strb	r2, [r4, #2]
	lsrs	r1, r1, #8
.Ltmp230:
	strb	r1, [r4, #1]
	lsrs	r1, r0, #24
	strb	r1, [r4, #7]
	lsrs	r1, r0, #16
	strb	r1, [r4, #6]
	lsrs	r0, r0, #8
.Ltmp231:
	strb	r0, [r4, #5]
	ldr	r5, [sp, #32]                   @ 4-byte Reload
	.loc	1 706 20                        @ ../../../ThirdParty/mbedTLS/library/des.c:706:20
	subs	r5, #8
.Ltmp232:
	@DEBUG_VALUE: mbedtls_des_crypt_cbc:length <- $r5
	.loc	1 705 20                        @ ../../../ThirdParty/mbedTLS/library/des.c:705:20
	adds	r6, #8
.Ltmp233:
	@DEBUG_VALUE: mbedtls_des_crypt_cbc:output <- $r6
	.loc	1 704 20                        @ ../../../ThirdParty/mbedTLS/library/des.c:704:20
	adds	r7, #8
.Ltmp234:
	@DEBUG_VALUE: mbedtls_des_crypt_cbc:input <- $r7
	.loc	1 694 9                         @ ../../../ThirdParty/mbedTLS/library/des.c:694:9
	cmp	r5, #0
	ldr	r0, [sp, #40]                   @ 4-byte Reload
	bne	.LBB17_11
.Ltmp235:
@ %bb.14:
	@DEBUG_VALUE: mbedtls_des_crypt_cbc:input <- $r7
	@DEBUG_VALUE: mbedtls_des_crypt_cbc:output <- $r6
	@DEBUG_VALUE: mbedtls_des_crypt_cbc:length <- $r5
	@DEBUG_VALUE: mbedtls_des_crypt_cbc:iv <- $r4
	@DEBUG_VALUE: mbedtls_des_crypt_cbc:mode <- [DW_OP_LLVM_entry_value 1] $r1
	.loc	1 0 9 is_stmt 0                 @ ../../../ThirdParty/mbedTLS/library/des.c:0:9
	ldr	r1, [sp, #36]                   @ 4-byte Reload
	b	.LBB17_2
.Lfunc_end17:
	.size	mbedtls_des_crypt_cbc, .Lfunc_end17-mbedtls_des_crypt_cbc
	.cfi_endproc
	.cantunwind
	.fnend
                                        @ -- End function
	.section	.text.mbedtls_des3_crypt_ecb,"ax",%progbits
	.hidden	mbedtls_des3_crypt_ecb          @ -- Begin function mbedtls_des3_crypt_ecb
	.globl	mbedtls_des3_crypt_ecb
	.p2align	2
	.type	mbedtls_des3_crypt_ecb,%function
	.code	16                              @ @mbedtls_des3_crypt_ecb
	.thumb_func
mbedtls_des3_crypt_ecb:
.Lfunc_begin18:
	.loc	1 721 0 is_stmt 1               @ ../../../ThirdParty/mbedTLS/library/des.c:721:0
	.fnstart
	.cfi_startproc
@ %bb.0:
	@DEBUG_VALUE: mbedtls_des3_crypt_ecb:ctx <- $r0
	@DEBUG_VALUE: mbedtls_des3_crypt_ecb:input <- $r1
	@DEBUG_VALUE: mbedtls_des3_crypt_ecb:output <- $r2
	.save	{r4, r5, r6, r7, lr}
	push	{r4, r5, r6, r7, lr}
	.cfi_def_cfa_offset 20
	.cfi_offset lr, -4
	.cfi_offset r7, -8
	.cfi_offset r6, -12
	.cfi_offset r5, -16
	.cfi_offset r4, -20
	.pad	#28
	sub	sp, #28
	.cfi_def_cfa_offset 48
	str	r2, [sp]                        @ 4-byte Spill
	mov	r5, r0
.Ltmp236:
	@DEBUG_VALUE: mbedtls_des3_crypt_ecb:SK <- undef
	@DEBUG_VALUE: mbedtls_des3_crypt_ecb:output <- [$sp+0]
	@DEBUG_VALUE: mbedtls_des3_crypt_ecb:input <- $r1
	@DEBUG_VALUE: mbedtls_des3_crypt_ecb:ctx <- $r5
	.loc	1 728 5 prologue_end            @ ../../../ThirdParty/mbedTLS/library/des.c:728:5
	ldrb	r0, [r1, #4]
	lsls	r0, r0, #24
	ldrb	r2, [r1, #5]
	lsls	r2, r2, #16
	adds	r0, r2, r0
	ldrb	r2, [r1, #6]
	lsls	r2, r2, #8
	adds	r0, r0, r2
	ldrb	r2, [r1, #7]
	adds	r2, r0, r2
.Ltmp237:
	@DEBUG_VALUE: mbedtls_des3_crypt_ecb:Y <- $r2
	.loc	1 727 5                         @ ../../../ThirdParty/mbedTLS/library/des.c:727:5
	ldrb	r0, [r1]
	lsls	r0, r0, #24
	ldrb	r3, [r1, #1]
	lsls	r3, r3, #16
	adds	r0, r3, r0
	ldrb	r3, [r1, #2]
	lsls	r3, r3, #8
	adds	r0, r0, r3
	ldrb	r1, [r1, #3]
.Ltmp238:
	@DEBUG_VALUE: mbedtls_des3_crypt_ecb:input <- [DW_OP_LLVM_entry_value 1] $r1
	adds	r0, r0, r1
.Ltmp239:
	@DEBUG_VALUE: mbedtls_des3_crypt_ecb:X <- $r0
	.loc	1 730 5                         @ ../../../ThirdParty/mbedTLS/library/des.c:730:5
	lsrs	r1, r0, #4
	eors	r1, r2
	ldr	r3, __arm_cp.18_0
	ands	r1, r3
.Ltmp240:
	@DEBUG_VALUE: mbedtls_des3_crypt_ecb:T <- $r1
	eors	r2, r1
.Ltmp241:
	@DEBUG_VALUE: mbedtls_des3_crypt_ecb:Y <- $r2
	uxth	r3, r2
	lsls	r4, r1, #4
	eors	r4, r0
.Ltmp242:
	@DEBUG_VALUE: mbedtls_des3_crypt_ecb:X <- $r4
	lsrs	r1, r4, #16
.Ltmp243:
	eors	r1, r3
.Ltmp244:
	@DEBUG_VALUE: mbedtls_des3_crypt_ecb:T <- $r1
	lsls	r0, r1, #16
	eors	r0, r4
.Ltmp245:
	@DEBUG_VALUE: mbedtls_des3_crypt_ecb:X <- $r0
	eors	r1, r2
.Ltmp246:
	@DEBUG_VALUE: mbedtls_des3_crypt_ecb:Y <- $r1
	lsrs	r2, r1, #2
	eors	r2, r0
	ldr	r3, __arm_cp.18_1
	ands	r2, r3
.Ltmp247:
	@DEBUG_VALUE: mbedtls_des3_crypt_ecb:T <- $r2
	eors	r0, r2
.Ltmp248:
	@DEBUG_VALUE: mbedtls_des3_crypt_ecb:X <- $r0
	lsls	r2, r2, #2
.Ltmp249:
	eors	r2, r1
.Ltmp250:
	@DEBUG_VALUE: mbedtls_des3_crypt_ecb:Y <- $r2
	lsrs	r1, r2, #8
	eors	r1, r0
	ldr	r3, __arm_cp.18_2
	ands	r1, r3
.Ltmp251:
	@DEBUG_VALUE: mbedtls_des3_crypt_ecb:T <- $r1
	eors	r0, r1
.Ltmp252:
	@DEBUG_VALUE: mbedtls_des3_crypt_ecb:X <- $r0
	lsls	r1, r1, #8
.Ltmp253:
	eors	r1, r2
.Ltmp254:
	@DEBUG_VALUE: mbedtls_des3_crypt_ecb:Y <- $r1
	lsls	r3, r1, #1
.Ltmp255:
	@DEBUG_VALUE: mbedtls_des3_crypt_ecb:Y <- undef
	eors	r3, r0
	ldr	r2, __arm_cp.18_3
	ands	r3, r2
.Ltmp256:
	@DEBUG_VALUE: mbedtls_des3_crypt_ecb:T <- $r3
	.loc	1 0 5 is_stmt 0                 @ ../../../ThirdParty/mbedTLS/library/des.c:0:5
	movs	r2, #31
	.loc	1 730 5                         @ ../../../ThirdParty/mbedTLS/library/des.c:730:5
	rors	r1, r2
	eors	r1, r3
.Ltmp257:
	@DEBUG_VALUE: mbedtls_des3_crypt_ecb:Y <- $r1
	eors	r3, r0
.Ltmp258:
	@DEBUG_VALUE: mbedtls_des3_crypt_ecb:X <- $r3
	rors	r3, r2
.Ltmp259:
	@DEBUG_VALUE: mbedtls_des3_crypt_ecb:X <- $r3
	.loc	1 0 5                           @ ../../../ThirdParty/mbedTLS/library/des.c:0:5
	movs	r2, #0
.Ltmp260:
	@DEBUG_VALUE: mbedtls_des3_crypt_ecb:i <- 0
	@DEBUG_VALUE: mbedtls_des3_crypt_ecb:SK <- undef
	str	r5, [sp, #8]                    @ 4-byte Spill
.Ltmp261:
.LBB18_1:                               @ =>This Inner Loop Header: Depth=1
	@DEBUG_VALUE: mbedtls_des3_crypt_ecb:X <- $r3
	@DEBUG_VALUE: mbedtls_des3_crypt_ecb:Y <- $r1
	@DEBUG_VALUE: mbedtls_des3_crypt_ecb:output <- [$sp+0]
	@DEBUG_VALUE: mbedtls_des3_crypt_ecb:input <- [DW_OP_LLVM_entry_value 1] $r1
	@DEBUG_VALUE: mbedtls_des3_crypt_ecb:SK <- undef
	@DEBUG_VALUE: mbedtls_des3_crypt_ecb:Y <- $r1
	@DEBUG_VALUE: mbedtls_des3_crypt_ecb:X <- $r3
	@DEBUG_VALUE: mbedtls_des3_crypt_ecb:i <- undef
	str	r2, [sp, #20]                   @ 4-byte Spill
	movs	r4, #4
.Ltmp262:
	.loc	1 734 9 is_stmt 1               @ ../../../ThirdParty/mbedTLS/library/des.c:734:9
	str	r4, [sp, #24]                   @ 4-byte Spill
	mov	r0, r1
	rors	r0, r4
	adds	r4, r5, r2
.Ltmp263:
	@DEBUG_VALUE: mbedtls_des3_crypt_ecb:X <- undef
	@DEBUG_VALUE: mbedtls_des3_crypt_ecb:SK <- [DW_OP_plus_uconst 8, DW_OP_stack_value] undef
	str	r4, [sp, #16]                   @ 4-byte Spill
	ldr	r6, [r4, #4]
	eors	r6, r0
.Ltmp264:
	@DEBUG_VALUE: mbedtls_des3_crypt_ecb:T <- $r6
	lsls	r0, r6, #26
	lsrs	r0, r0, #24
	ldr	r4, __arm_cp.18_4
	ldr	r0, [r4, r0]
.Ltmp265:
	@DEBUG_VALUE: mbedtls_des3_crypt_ecb:SK <- [DW_OP_plus_uconst 4, DW_OP_stack_value] undef
	str	r0, [sp, #12]                   @ 4-byte Spill
	ldr	r0, [r5, r2]
	eors	r0, r1
.Ltmp266:
	@DEBUG_VALUE: mbedtls_des3_crypt_ecb:T <- $r0
	lsrs	r4, r0, #6
	movs	r7, #252
	ands	r4, r7
	ldr	r5, __arm_cp.18_5
	ldr	r4, [r5, r4]
	lsls	r5, r0, #26
	lsrs	r5, r5, #24
	ldr	r2, __arm_cp.18_6
	ldr	r5, [r2, r5]
	eors	r5, r3
	eors	r5, r4
	lsrs	r3, r0, #14
	ands	r3, r7
	ldr	r2, __arm_cp.18_7
	ldr	r3, [r2, r3]
	eors	r3, r5
	lsrs	r0, r0, #22
.Ltmp267:
	ands	r0, r7
	ldr	r4, __arm_cp.18_8
	ldr	r0, [r4, r0]
	eors	r0, r3
	ldr	r2, [sp, #12]                   @ 4-byte Reload
	eors	r0, r2
	lsrs	r3, r6, #6
	ands	r3, r7
	ldr	r4, __arm_cp.18_9
	ldr	r3, [r4, r3]
	eors	r3, r0
	lsrs	r0, r6, #14
	ands	r0, r7
	ldr	r4, __arm_cp.18_10
	ldr	r0, [r4, r0]
	eors	r0, r3
	lsrs	r3, r6, #22
	ldr	r5, __arm_cp.18_5
	ands	r3, r7
	ldr	r4, __arm_cp.18_11
	ldr	r3, [r4, r3]
	eors	r3, r0
.Ltmp268:
	@DEBUG_VALUE: mbedtls_des3_crypt_ecb:X <- $r3
	@DEBUG_VALUE: mbedtls_des3_crypt_ecb:SK <- [DW_OP_plus_uconst 12, DW_OP_stack_value] undef
	.loc	1 0 9 is_stmt 0                 @ ../../../ThirdParty/mbedTLS/library/des.c:0:9
	ldr	r6, [sp, #16]                   @ 4-byte Reload
.Ltmp269:
	.loc	1 735 9 is_stmt 1               @ ../../../ThirdParty/mbedTLS/library/des.c:735:9
	ldr	r0, [r6, #8]
	eors	r0, r3
.Ltmp270:
	@DEBUG_VALUE: mbedtls_des3_crypt_ecb:T <- $r0
	lsrs	r4, r0, #6
	ands	r4, r7
	ldr	r4, [r5, r4]
	lsls	r5, r0, #26
	lsrs	r5, r5, #24
	ldr	r2, __arm_cp.18_6
	ldr	r5, [r2, r5]
	eors	r5, r1
	eors	r5, r4
	lsrs	r1, r0, #14
.Ltmp271:
	ands	r1, r7
	ldr	r2, __arm_cp.18_7
	ldr	r1, [r2, r1]
	ldr	r2, [sp, #20]                   @ 4-byte Reload
	eors	r1, r5
	lsrs	r0, r0, #22
.Ltmp272:
	ands	r0, r7
	ldr	r4, __arm_cp.18_8
	ldr	r4, [r4, r0]
	eors	r4, r1
	mov	r1, r3
	ldr	r0, [sp, #24]                   @ 4-byte Reload
	rors	r1, r0
.Ltmp273:
	@DEBUG_VALUE: mbedtls_des3_crypt_ecb:Y <- undef
	@DEBUG_VALUE: mbedtls_des3_crypt_ecb:SK <- [DW_OP_plus_uconst 16, DW_OP_stack_value] undef
	ldr	r0, [r6, #12]
	eors	r0, r1
.Ltmp274:
	@DEBUG_VALUE: mbedtls_des3_crypt_ecb:T <- $r0
	lsls	r1, r0, #26
	lsrs	r1, r1, #24
	ldr	r5, __arm_cp.18_4
	ldr	r1, [r5, r1]
	eors	r1, r4
	lsrs	r4, r0, #6
	ands	r4, r7
	ldr	r5, __arm_cp.18_9
	ldr	r4, [r5, r4]
	eors	r4, r1
	lsrs	r1, r0, #14
	ands	r1, r7
	ldr	r5, __arm_cp.18_10
	ldr	r5, [r5, r1]
	eors	r5, r4
	lsrs	r0, r0, #22
.Ltmp275:
	ands	r0, r7
	ldr	r1, __arm_cp.18_11
	ldr	r1, [r1, r0]
	eors	r1, r5
.Ltmp276:
	@DEBUG_VALUE: mbedtls_des3_crypt_ecb:i <- [DW_OP_plus_uconst 1, DW_OP_stack_value] undef
	@DEBUG_VALUE: mbedtls_des3_crypt_ecb:Y <- $r1
	.loc	1 0 9 is_stmt 0                 @ ../../../ThirdParty/mbedTLS/library/des.c:0:9
	ldr	r5, [sp, #8]                    @ 4-byte Reload
.Ltmp277:
	.loc	1 732 19 is_stmt 1              @ ../../../ThirdParty/mbedTLS/library/des.c:732:19
	adds	r2, #16
.Ltmp278:
	.loc	1 732 5 is_stmt 0               @ ../../../ThirdParty/mbedTLS/library/des.c:732:5
	cmp	r2, #128
	bne	.LBB18_1
.Ltmp279:
@ %bb.2:
	@DEBUG_VALUE: mbedtls_des3_crypt_ecb:X <- $r3
	@DEBUG_VALUE: mbedtls_des3_crypt_ecb:Y <- $r1
	@DEBUG_VALUE: mbedtls_des3_crypt_ecb:output <- [$sp+0]
	@DEBUG_VALUE: mbedtls_des3_crypt_ecb:input <- [DW_OP_LLVM_entry_value 1] $r1
	.loc	1 738 5 is_stmt 1               @ ../../../ThirdParty/mbedTLS/library/des.c:738:5
	adds	r5, #128
	str	r5, [sp, #4]                    @ 4-byte Spill
	movs	r2, #0
	ldr	r5, [sp, #24]                   @ 4-byte Reload
	ldr	r6, __arm_cp.18_5
.Ltmp280:
.LBB18_3:                               @ =>This Inner Loop Header: Depth=1
	@DEBUG_VALUE: mbedtls_des3_crypt_ecb:X <- $r3
	@DEBUG_VALUE: mbedtls_des3_crypt_ecb:Y <- $r1
	@DEBUG_VALUE: mbedtls_des3_crypt_ecb:output <- [$sp+0]
	@DEBUG_VALUE: mbedtls_des3_crypt_ecb:input <- [DW_OP_LLVM_entry_value 1] $r1
	@DEBUG_VALUE: mbedtls_des3_crypt_ecb:SK <- undef
	@DEBUG_VALUE: mbedtls_des3_crypt_ecb:Y <- $r1
	@DEBUG_VALUE: mbedtls_des3_crypt_ecb:X <- $r3
	@DEBUG_VALUE: mbedtls_des3_crypt_ecb:i <- undef
	.loc	1 740 9                         @ ../../../ThirdParty/mbedTLS/library/des.c:740:9
	str	r2, [sp, #20]                   @ 4-byte Spill
	mov	r0, r3
	rors	r0, r5
	ldr	r5, [sp, #4]                    @ 4-byte Reload
	adds	r2, r5, r2
.Ltmp281:
	@DEBUG_VALUE: mbedtls_des3_crypt_ecb:Y <- undef
	@DEBUG_VALUE: mbedtls_des3_crypt_ecb:SK <- [DW_OP_plus_uconst 8, DW_OP_stack_value] undef
	str	r2, [sp, #16]                   @ 4-byte Spill
	ldr	r2, [r2, #4]
	eors	r2, r0
.Ltmp282:
	@DEBUG_VALUE: mbedtls_des3_crypt_ecb:T <- $r2
	lsls	r0, r2, #26
	lsrs	r0, r0, #24
	ldr	r4, __arm_cp.18_4
	ldr	r0, [r4, r0]
.Ltmp283:
	@DEBUG_VALUE: mbedtls_des3_crypt_ecb:SK <- [DW_OP_plus_uconst 4, DW_OP_stack_value] undef
	str	r0, [sp, #12]                   @ 4-byte Spill
	ldr	r0, [sp, #20]                   @ 4-byte Reload
	ldr	r0, [r5, r0]
	eors	r0, r3
.Ltmp284:
	@DEBUG_VALUE: mbedtls_des3_crypt_ecb:T <- $r0
	lsrs	r4, r0, #6
	ands	r4, r7
	ldr	r4, [r6, r4]
	lsls	r6, r0, #26
	lsrs	r6, r6, #24
	ldr	r5, __arm_cp.18_6
	ldr	r6, [r5, r6]
	eors	r6, r1
	eors	r6, r4
	lsrs	r1, r0, #14
	ands	r1, r7
	ldr	r5, __arm_cp.18_7
	ldr	r1, [r5, r1]
	eors	r1, r6
	ldr	r5, __arm_cp.18_5
	lsrs	r0, r0, #22
.Ltmp285:
	ands	r0, r7
	ldr	r4, __arm_cp.18_8
	ldr	r0, [r4, r0]
	eors	r0, r1
	ldr	r1, [sp, #12]                   @ 4-byte Reload
	eors	r0, r1
	lsrs	r1, r2, #6
	ands	r1, r7
	ldr	r4, __arm_cp.18_9
	ldr	r1, [r4, r1]
	eors	r1, r0
	lsrs	r0, r2, #14
	ands	r0, r7
	ldr	r4, __arm_cp.18_10
	ldr	r0, [r4, r0]
	eors	r0, r1
	lsrs	r1, r2, #22
	ands	r1, r7
	ldr	r2, __arm_cp.18_11
	ldr	r1, [r2, r1]
	eors	r1, r0
.Ltmp286:
	@DEBUG_VALUE: mbedtls_des3_crypt_ecb:Y <- $r1
	@DEBUG_VALUE: mbedtls_des3_crypt_ecb:SK <- [DW_OP_plus_uconst 12, DW_OP_stack_value] undef
	.loc	1 0 9 is_stmt 0                 @ ../../../ThirdParty/mbedTLS/library/des.c:0:9
	ldr	r6, [sp, #16]                   @ 4-byte Reload
.Ltmp287:
	.loc	1 741 9 is_stmt 1               @ ../../../ThirdParty/mbedTLS/library/des.c:741:9
	ldr	r0, [r6, #8]
	eors	r0, r1
.Ltmp288:
	@DEBUG_VALUE: mbedtls_des3_crypt_ecb:T <- $r0
	lsrs	r2, r0, #6
	ands	r2, r7
	ldr	r2, [r5, r2]
	lsls	r4, r0, #26
	lsrs	r4, r4, #24
	ldr	r5, __arm_cp.18_6
	ldr	r4, [r5, r4]
	eors	r4, r3
	eors	r4, r2
	lsrs	r2, r0, #14
	ands	r2, r7
	ldr	r3, __arm_cp.18_7
.Ltmp289:
	ldr	r2, [r3, r2]
	ldr	r5, [sp, #24]                   @ 4-byte Reload
	eors	r2, r4
	ldr	r4, __arm_cp.18_4
	lsrs	r0, r0, #22
.Ltmp290:
	ands	r0, r7
	ldr	r3, __arm_cp.18_8
	ldr	r3, [r3, r0]
	eors	r3, r2
	mov	r2, r1
	rors	r2, r5
.Ltmp291:
	@DEBUG_VALUE: mbedtls_des3_crypt_ecb:X <- undef
	@DEBUG_VALUE: mbedtls_des3_crypt_ecb:SK <- [DW_OP_plus_uconst 16, DW_OP_stack_value] undef
	ldr	r0, [r6, #12]
	ldr	r6, __arm_cp.18_5
	eors	r0, r2
.Ltmp292:
	@DEBUG_VALUE: mbedtls_des3_crypt_ecb:T <- $r0
	lsls	r2, r0, #26
	lsrs	r2, r2, #24
	ldr	r2, [r4, r2]
	eors	r2, r3
	lsrs	r3, r0, #6
	ands	r3, r7
	ldr	r4, __arm_cp.18_9
	ldr	r3, [r4, r3]
	eors	r3, r2
	lsrs	r2, r0, #14
	ands	r2, r7
	ldr	r4, __arm_cp.18_10
	ldr	r2, [r4, r2]
	eors	r2, r3
	lsrs	r0, r0, #22
.Ltmp293:
	ands	r0, r7
	ldr	r3, __arm_cp.18_11
	ldr	r3, [r3, r0]
	eors	r3, r2
.Ltmp294:
	@DEBUG_VALUE: mbedtls_des3_crypt_ecb:i <- [DW_OP_plus_uconst 1, DW_OP_stack_value] undef
	@DEBUG_VALUE: mbedtls_des3_crypt_ecb:X <- $r3
	.loc	1 0 9 is_stmt 0                 @ ../../../ThirdParty/mbedTLS/library/des.c:0:9
	ldr	r2, [sp, #20]                   @ 4-byte Reload
.Ltmp295:
	.loc	1 738 19 is_stmt 1              @ ../../../ThirdParty/mbedTLS/library/des.c:738:19
	adds	r2, #16
.Ltmp296:
	.loc	1 738 5 is_stmt 0               @ ../../../ThirdParty/mbedTLS/library/des.c:738:5
	cmp	r2, #128
	bne	.LBB18_3
.Ltmp297:
@ %bb.4:
	@DEBUG_VALUE: mbedtls_des3_crypt_ecb:X <- $r3
	@DEBUG_VALUE: mbedtls_des3_crypt_ecb:Y <- $r1
	@DEBUG_VALUE: mbedtls_des3_crypt_ecb:output <- [$sp+0]
	@DEBUG_VALUE: mbedtls_des3_crypt_ecb:input <- [DW_OP_LLVM_entry_value 1] $r1
	.loc	1 0 5                           @ ../../../ThirdParty/mbedTLS/library/des.c:0:5
	movw	r0, #256
.Ltmp298:
	.loc	1 744 5 is_stmt 1               @ ../../../ThirdParty/mbedTLS/library/des.c:744:5
	ldr	r2, [sp, #8]                    @ 4-byte Reload
	adds	r0, r2, r0
	str	r0, [sp, #8]                    @ 4-byte Spill
	movs	r0, #127
	mvns	r6, r0
.Ltmp299:
.LBB18_5:                               @ =>This Inner Loop Header: Depth=1
	@DEBUG_VALUE: mbedtls_des3_crypt_ecb:X <- $r3
	@DEBUG_VALUE: mbedtls_des3_crypt_ecb:Y <- $r1
	@DEBUG_VALUE: mbedtls_des3_crypt_ecb:output <- [$sp+0]
	@DEBUG_VALUE: mbedtls_des3_crypt_ecb:input <- [DW_OP_LLVM_entry_value 1] $r1
	@DEBUG_VALUE: mbedtls_des3_crypt_ecb:SK <- undef
	@DEBUG_VALUE: mbedtls_des3_crypt_ecb:Y <- $r1
	@DEBUG_VALUE: mbedtls_des3_crypt_ecb:X <- $r3
	@DEBUG_VALUE: mbedtls_des3_crypt_ecb:i <- undef
	.loc	1 746 9                         @ ../../../ThirdParty/mbedTLS/library/des.c:746:9
	str	r6, [sp, #20]                   @ 4-byte Spill
	mov	r0, r1
	rors	r0, r5
	ldr	r2, [sp, #8]                    @ 4-byte Reload
	adds	r5, r2, r6
	mov	r2, r5
	adds	r2, #128
.Ltmp300:
	@DEBUG_VALUE: mbedtls_des3_crypt_ecb:X <- undef
	@DEBUG_VALUE: mbedtls_des3_crypt_ecb:SK <- [DW_OP_plus_uconst 8, DW_OP_stack_value] undef
	str	r2, [sp, #16]                   @ 4-byte Spill
	ldr	r6, [r2, #4]
	eors	r6, r0
.Ltmp301:
	@DEBUG_VALUE: mbedtls_des3_crypt_ecb:T <- $r6
	lsls	r0, r6, #26
	lsrs	r0, r0, #24
	ldr	r2, __arm_cp.18_4
	ldr	r0, [r2, r0]
	str	r0, [sp, #12]                   @ 4-byte Spill
	movs	r0, #128
.Ltmp302:
	@DEBUG_VALUE: mbedtls_des3_crypt_ecb:SK <- [DW_OP_plus_uconst 4, DW_OP_stack_value] undef
	ldr	r0, [r5, r0]
	eors	r0, r1
.Ltmp303:
	@DEBUG_VALUE: mbedtls_des3_crypt_ecb:T <- $r0
	lsrs	r5, r0, #6
	ands	r5, r7
	ldr	r4, __arm_cp.18_5
	ldr	r5, [r4, r5]
	lsls	r4, r0, #26
	lsrs	r4, r4, #24
	ldr	r2, __arm_cp.18_6
	ldr	r4, [r2, r4]
	eors	r4, r3
	eors	r4, r5
	lsrs	r3, r0, #14
	ands	r3, r7
	ldr	r2, __arm_cp.18_7
	ldr	r3, [r2, r3]
	eors	r3, r4
	lsrs	r0, r0, #22
.Ltmp304:
	ands	r0, r7
	ldr	r4, __arm_cp.18_8
	ldr	r0, [r4, r0]
	eors	r0, r3
	ldr	r2, [sp, #12]                   @ 4-byte Reload
	eors	r0, r2
	lsrs	r3, r6, #6
	ands	r3, r7
	ldr	r4, __arm_cp.18_9
	ldr	r3, [r4, r3]
	eors	r3, r0
	lsrs	r0, r6, #14
	ands	r0, r7
	ldr	r4, __arm_cp.18_10
	ldr	r0, [r4, r0]
	eors	r0, r3
	lsrs	r3, r6, #22
	ands	r3, r7
	ldr	r6, __arm_cp.18_11
	ldr	r3, [r6, r3]
	eors	r3, r0
.Ltmp305:
	@DEBUG_VALUE: mbedtls_des3_crypt_ecb:X <- $r3
	@DEBUG_VALUE: mbedtls_des3_crypt_ecb:SK <- [DW_OP_plus_uconst 12, DW_OP_stack_value] undef
	.loc	1 0 9 is_stmt 0                 @ ../../../ThirdParty/mbedTLS/library/des.c:0:9
	ldr	r2, [sp, #16]                   @ 4-byte Reload
.Ltmp306:
	.loc	1 747 9 is_stmt 1               @ ../../../ThirdParty/mbedTLS/library/des.c:747:9
	ldr	r0, [r2, #8]
	eors	r0, r3
.Ltmp307:
	@DEBUG_VALUE: mbedtls_des3_crypt_ecb:T <- $r0
	lsrs	r4, r0, #6
	ands	r4, r7
	ldr	r5, __arm_cp.18_5
	ldr	r4, [r5, r4]
	lsls	r5, r0, #26
	lsrs	r5, r5, #24
	ldr	r6, __arm_cp.18_6
	ldr	r5, [r6, r5]
	eors	r5, r1
	eors	r5, r4
	lsrs	r1, r0, #14
.Ltmp308:
	ands	r1, r7
	ldr	r4, __arm_cp.18_7
	ldr	r1, [r4, r1]
	eors	r1, r5
	ldr	r5, [sp, #24]                   @ 4-byte Reload
	lsrs	r0, r0, #22
.Ltmp309:
	ands	r0, r7
	ldr	r4, __arm_cp.18_8
	ldr	r4, [r4, r0]
	eors	r4, r1
	mov	r1, r3
	rors	r1, r5
.Ltmp310:
	@DEBUG_VALUE: mbedtls_des3_crypt_ecb:Y <- undef
	@DEBUG_VALUE: mbedtls_des3_crypt_ecb:SK <- [DW_OP_plus_uconst 16, DW_OP_stack_value] undef
	ldr	r0, [r2, #12]
	eors	r0, r1
.Ltmp311:
	@DEBUG_VALUE: mbedtls_des3_crypt_ecb:T <- $r0
	lsls	r1, r0, #26
	lsrs	r1, r1, #24
	ldr	r2, __arm_cp.18_4
	ldr	r1, [r2, r1]
	eors	r1, r4
	lsrs	r2, r0, #6
	ands	r2, r7
	ldr	r4, __arm_cp.18_9
	ldr	r2, [r4, r2]
	eors	r2, r1
	lsrs	r1, r0, #14
	ands	r1, r7
	ldr	r4, __arm_cp.18_10
	ldr	r4, [r4, r1]
	eors	r4, r2
	lsrs	r0, r0, #22
.Ltmp312:
	ands	r0, r7
	ldr	r1, __arm_cp.18_11
	ldr	r1, [r1, r0]
	ldr	r6, [sp, #20]                   @ 4-byte Reload
	eors	r1, r4
.Ltmp313:
	@DEBUG_VALUE: mbedtls_des3_crypt_ecb:i <- [DW_OP_plus_uconst 1, DW_OP_stack_value] undef
	@DEBUG_VALUE: mbedtls_des3_crypt_ecb:Y <- $r1
	.loc	1 744 19                        @ ../../../ThirdParty/mbedTLS/library/des.c:744:19
	adds	r6, #16
.Ltmp314:
	.loc	1 744 5 is_stmt 0               @ ../../../ThirdParty/mbedTLS/library/des.c:744:5
	bne	.LBB18_5
.Ltmp315:
@ %bb.6:
	@DEBUG_VALUE: mbedtls_des3_crypt_ecb:X <- $r3
	@DEBUG_VALUE: mbedtls_des3_crypt_ecb:Y <- $r1
	@DEBUG_VALUE: mbedtls_des3_crypt_ecb:output <- [$sp+0]
	@DEBUG_VALUE: mbedtls_des3_crypt_ecb:input <- [DW_OP_LLVM_entry_value 1] $r1
	@DEBUG_VALUE: mbedtls_des3_crypt_ecb:Y <- $r1
	@DEBUG_VALUE: mbedtls_des3_crypt_ecb:X <- $r3
	.loc	1 0 5                           @ ../../../ThirdParty/mbedTLS/library/des.c:0:5
	movs	r0, #1
.Ltmp316:
	.loc	1 750 5 is_stmt 1               @ ../../../ThirdParty/mbedTLS/library/des.c:750:5
	rors	r1, r0
.Ltmp317:
	@DEBUG_VALUE: mbedtls_des3_crypt_ecb:Y <- $r1
	mov	r0, r1
	eors	r0, r3
	ldr	r2, __arm_cp.18_3
	ands	r0, r2
.Ltmp318:
	@DEBUG_VALUE: mbedtls_des3_crypt_ecb:T <- $r0
	eors	r1, r0
.Ltmp319:
	@DEBUG_VALUE: mbedtls_des3_crypt_ecb:Y <- $r1
	eors	r0, r3
.Ltmp320:
	lsrs	r0, r0, #1
.Ltmp321:
	@DEBUG_VALUE: mbedtls_des3_crypt_ecb:X <- undef
	lsls	r2, r3, #31
	adds	r0, r0, r2
.Ltmp322:
	@DEBUG_VALUE: mbedtls_des3_crypt_ecb:X <- $r0
	lsrs	r2, r0, #8
	eors	r2, r1
	ldr	r3, __arm_cp.18_2
	ands	r2, r3
.Ltmp323:
	@DEBUG_VALUE: mbedtls_des3_crypt_ecb:T <- $r2
	eors	r1, r2
.Ltmp324:
	@DEBUG_VALUE: mbedtls_des3_crypt_ecb:Y <- $r1
	lsls	r2, r2, #8
.Ltmp325:
	eors	r2, r0
.Ltmp326:
	@DEBUG_VALUE: mbedtls_des3_crypt_ecb:X <- $r2
	lsrs	r0, r2, #2
	eors	r0, r1
	ldr	r3, __arm_cp.18_1
	ands	r0, r3
.Ltmp327:
	@DEBUG_VALUE: mbedtls_des3_crypt_ecb:T <- $r0
	eors	r1, r0
.Ltmp328:
	@DEBUG_VALUE: mbedtls_des3_crypt_ecb:Y <- $r1
	lsrs	r3, r1, #16
	lsls	r4, r0, #2
	eors	r4, r2
.Ltmp329:
	@DEBUG_VALUE: mbedtls_des3_crypt_ecb:X <- $r4
	uxth	r2, r4
	eors	r2, r3
.Ltmp330:
	@DEBUG_VALUE: mbedtls_des3_crypt_ecb:T <- $r2
	lsls	r0, r2, #16
	eors	r0, r1
.Ltmp331:
	@DEBUG_VALUE: mbedtls_des3_crypt_ecb:Y <- $r0
	lsrs	r1, r0, #4
	eors	r2, r4
.Ltmp332:
	@DEBUG_VALUE: mbedtls_des3_crypt_ecb:X <- $r2
	eors	r1, r2
	ldr	r3, __arm_cp.18_0
	ands	r1, r3
.Ltmp333:
	@DEBUG_VALUE: mbedtls_des3_crypt_ecb:T <- $r1
	eors	r2, r1
.Ltmp334:
	@DEBUG_VALUE: mbedtls_des3_crypt_ecb:X <- $r2
	.loc	1 0 5 is_stmt 0                 @ ../../../ThirdParty/mbedTLS/library/des.c:0:5
	ldr	r4, [sp]                        @ 4-byte Reload
.Ltmp335:
	.loc	1 753 5 is_stmt 1               @ ../../../ThirdParty/mbedTLS/library/des.c:753:5
	strb	r2, [r4, #7]
	lsrs	r3, r2, #8
	strb	r3, [r4, #6]
	lsrs	r3, r2, #16
	strb	r3, [r4, #5]
	lsrs	r2, r2, #24
.Ltmp336:
	strb	r2, [r4, #4]
.Ltmp337:
	.loc	1 750 5                         @ ../../../ThirdParty/mbedTLS/library/des.c:750:5
	lsls	r1, r1, #4
.Ltmp338:
	eors	r1, r0
.Ltmp339:
	@DEBUG_VALUE: mbedtls_des3_crypt_ecb:Y <- $r1
	.loc	1 752 5                         @ ../../../ThirdParty/mbedTLS/library/des.c:752:5
	strb	r1, [r4, #3]
	lsrs	r0, r1, #8
	strb	r0, [r4, #2]
	lsrs	r0, r1, #16
	strb	r0, [r4, #1]
	lsrs	r0, r1, #24
	strb	r0, [r4]
	movs	r0, #0
.Ltmp340:
	.loc	1 755 5                         @ ../../../ThirdParty/mbedTLS/library/des.c:755:5
	add	sp, #28
.Ltmp341:
	pop	{r4, r5, r6, r7, pc}
.Ltmp342:
	.p2align	2
@ %bb.7:
	.loc	1 0 5 is_stmt 0                 @ ../../../ThirdParty/mbedTLS/library/des.c:0:5
__arm_cp.18_0:
	.long	252645135                       @ 0xf0f0f0f
.Lcpi_end22:
	.size	__arm_cp.18_0, .Lcpi_end22-__arm_cp.18_0
__arm_cp.18_1:
	.long	858993459                       @ 0x33333333
.Lcpi_end23:
	.size	__arm_cp.18_1, .Lcpi_end23-__arm_cp.18_1
__arm_cp.18_2:
	.long	16711935                        @ 0xff00ff
.Lcpi_end24:
	.size	__arm_cp.18_2, .Lcpi_end24-__arm_cp.18_2
__arm_cp.18_3:
	.long	2863311530                      @ 0xaaaaaaaa
.Lcpi_end25:
	.size	__arm_cp.18_3, .Lcpi_end25-__arm_cp.18_3
__arm_cp.18_4:
	.long	SB7
.Lcpi_end26:
	.size	__arm_cp.18_4, .Lcpi_end26-__arm_cp.18_4
__arm_cp.18_5:
	.long	SB6
.Lcpi_end27:
	.size	__arm_cp.18_5, .Lcpi_end27-__arm_cp.18_5
__arm_cp.18_6:
	.long	SB8
.Lcpi_end28:
	.size	__arm_cp.18_6, .Lcpi_end28-__arm_cp.18_6
__arm_cp.18_7:
	.long	SB4
.Lcpi_end29:
	.size	__arm_cp.18_7, .Lcpi_end29-__arm_cp.18_7
__arm_cp.18_8:
	.long	SB2
.Lcpi_end30:
	.size	__arm_cp.18_8, .Lcpi_end30-__arm_cp.18_8
__arm_cp.18_9:
	.long	SB5
.Lcpi_end31:
	.size	__arm_cp.18_9, .Lcpi_end31-__arm_cp.18_9
__arm_cp.18_10:
	.long	SB3
.Lcpi_end32:
	.size	__arm_cp.18_10, .Lcpi_end32-__arm_cp.18_10
__arm_cp.18_11:
	.long	SB1
.Lcpi_end33:
	.size	__arm_cp.18_11, .Lcpi_end33-__arm_cp.18_11
.Lfunc_end18:
	.size	mbedtls_des3_crypt_ecb, .Lfunc_end18-mbedtls_des3_crypt_ecb
	.cfi_endproc
	.cantunwind
	.fnend
                                        @ -- End function
	.section	.text.mbedtls_des3_crypt_cbc,"ax",%progbits
	.hidden	mbedtls_des3_crypt_cbc          @ -- Begin function mbedtls_des3_crypt_cbc
	.globl	mbedtls_des3_crypt_cbc
	.p2align	1
	.type	mbedtls_des3_crypt_cbc,%function
	.code	16                              @ @mbedtls_des3_crypt_cbc
	.thumb_func
mbedtls_des3_crypt_cbc:
.Lfunc_begin19:
	.loc	1 769 0 is_stmt 1               @ ../../../ThirdParty/mbedTLS/library/des.c:769:0
	.fnstart
	.cfi_startproc
@ %bb.0:
	@DEBUG_VALUE: mbedtls_des3_crypt_cbc:ctx <- $r0
	@DEBUG_VALUE: mbedtls_des3_crypt_cbc:mode <- $r1
	@DEBUG_VALUE: mbedtls_des3_crypt_cbc:length <- $r2
	@DEBUG_VALUE: mbedtls_des3_crypt_cbc:iv <- $r3
	.save	{r4, r5, r6, r7, lr}
	push	{r4, r5, r6, r7, lr}
	.cfi_def_cfa_offset 20
	.cfi_offset lr, -4
	.cfi_offset r7, -8
	.cfi_offset r6, -12
	.cfi_offset r5, -16
	.cfi_offset r4, -20
	.pad	#44
	sub	sp, #44
	.cfi_def_cfa_offset 64
	mov	r5, r2
.Ltmp343:
	@DEBUG_VALUE: mbedtls_des3_crypt_cbc:output <- [DW_OP_plus_uconst 68] [$sp+0]
	@DEBUG_VALUE: mbedtls_des3_crypt_cbc:input <- [DW_OP_plus_uconst 64] [$sp+0]
	@DEBUG_VALUE: mbedtls_des3_crypt_cbc:iv <- $r3
	@DEBUG_VALUE: mbedtls_des3_crypt_cbc:length <- $r5
	@DEBUG_VALUE: mbedtls_des3_crypt_cbc:mode <- $r1
	@DEBUG_VALUE: mbedtls_des3_crypt_cbc:ctx <- $r0
	.loc	1 773 9 prologue_end            @ ../../../ThirdParty/mbedTLS/library/des.c:773:9
	lsls	r2, r2, #29
	beq	.LBB19_3
.Ltmp344:
@ %bb.1:
	@DEBUG_VALUE: mbedtls_des3_crypt_cbc:length <- $r5
	@DEBUG_VALUE: mbedtls_des3_crypt_cbc:iv <- $r3
	@DEBUG_VALUE: mbedtls_des3_crypt_cbc:mode <- $r1
	@DEBUG_VALUE: mbedtls_des3_crypt_cbc:ctx <- $r0
	@DEBUG_VALUE: mbedtls_des3_crypt_cbc:input <- [DW_OP_plus_uconst 64] [$sp+0]
	@DEBUG_VALUE: mbedtls_des3_crypt_cbc:output <- [DW_OP_plus_uconst 68] [$sp+0]
	.loc	1 0 9 is_stmt 0                 @ ../../../ThirdParty/mbedTLS/library/des.c:0:9
	movs	r0, #49
.Ltmp345:
	@DEBUG_VALUE: mbedtls_des3_crypt_cbc:ctx <- [DW_OP_LLVM_entry_value 1] $r0
	mvns	r1, r0
.Ltmp346:
	@DEBUG_VALUE: mbedtls_des3_crypt_cbc:mode <- [DW_OP_LLVM_entry_value 1] $r1
.LBB19_2:
	@DEBUG_VALUE: mbedtls_des3_crypt_cbc:mode <- [DW_OP_LLVM_entry_value 1] $r1
	.loc	1 810 1 is_stmt 1               @ ../../../ThirdParty/mbedTLS/library/des.c:810:1
	mov	r0, r1
	add	sp, #44
	pop	{r4, r5, r6, r7, pc}
.Ltmp347:
.LBB19_3:
	@DEBUG_VALUE: mbedtls_des3_crypt_cbc:length <- $r5
	@DEBUG_VALUE: mbedtls_des3_crypt_cbc:iv <- $r3
	@DEBUG_VALUE: mbedtls_des3_crypt_cbc:mode <- $r1
	@DEBUG_VALUE: mbedtls_des3_crypt_cbc:ctx <- $r0
	@DEBUG_VALUE: mbedtls_des3_crypt_cbc:input <- [DW_OP_plus_uconst 64] [$sp+0]
	@DEBUG_VALUE: mbedtls_des3_crypt_cbc:output <- [DW_OP_plus_uconst 68] [$sp+0]
	.loc	1 0 1 is_stmt 0                 @ ../../../ThirdParty/mbedTLS/library/des.c:0:1
	mov	r4, r3
.Ltmp348:
	@DEBUG_VALUE: mbedtls_des3_crypt_cbc:iv <- $r4
	ldr	r6, [sp, #68]
	ldr	r7, [sp, #64]
.Ltmp349:
	@DEBUG_VALUE: mbedtls_des3_crypt_cbc:output <- undef
	@DEBUG_VALUE: mbedtls_des3_crypt_cbc:input <- undef
	@DEBUG_VALUE: mbedtls_des3_crypt_cbc:length <- undef
	.loc	1 776 9 is_stmt 1               @ ../../../ThirdParty/mbedTLS/library/des.c:776:9
	cmp	r1, #1
	@DEBUG_VALUE: mbedtls_des3_crypt_cbc:output <- undef
	@DEBUG_VALUE: mbedtls_des3_crypt_cbc:input <- undef
	@DEBUG_VALUE: mbedtls_des3_crypt_cbc:length <- undef
	str	r0, [sp, #40]                   @ 4-byte Spill
	bne	.LBB19_9
.Ltmp350:
@ %bb.4:
	@DEBUG_VALUE: mbedtls_des3_crypt_cbc:iv <- $r4
	@DEBUG_VALUE: mbedtls_des3_crypt_cbc:mode <- $r1
	@DEBUG_VALUE: mbedtls_des3_crypt_cbc:ctx <- $r0
	.loc	1 0 9 is_stmt 0                 @ ../../../ThirdParty/mbedTLS/library/des.c:0:9
	movs	r1, #0
.Ltmp351:
	@DEBUG_VALUE: mbedtls_des3_crypt_cbc:mode <- [DW_OP_LLVM_entry_value 1] $r1
	.loc	1 778 9 is_stmt 1               @ ../../../ThirdParty/mbedTLS/library/des.c:778:9
	cmp	r5, #0
	beq	.LBB19_2
.Ltmp352:
@ %bb.5:
	@DEBUG_VALUE: mbedtls_des3_crypt_cbc:iv <- $r4
	@DEBUG_VALUE: mbedtls_des3_crypt_cbc:ctx <- $r0
	@DEBUG_VALUE: mbedtls_des3_crypt_cbc:mode <- [DW_OP_LLVM_entry_value 1] $r1
	.loc	1 0 9 is_stmt 0                 @ ../../../ThirdParty/mbedTLS/library/des.c:0:9
	str	r1, [sp, #36]                   @ 4-byte Spill
.Ltmp353:
.LBB19_6:                               @ =>This Loop Header: Depth=1
                                        @     Child Loop BB19_7 Depth 2
	@DEBUG_VALUE: mbedtls_des3_crypt_cbc:iv <- $r4
	@DEBUG_VALUE: mbedtls_des3_crypt_cbc:mode <- [DW_OP_LLVM_entry_value 1] $r1
	@DEBUG_VALUE: mbedtls_des3_crypt_cbc:length <- $r5
	@DEBUG_VALUE: mbedtls_des3_crypt_cbc:input <- $r7
	@DEBUG_VALUE: mbedtls_des3_crypt_cbc:output <- $r6
	@DEBUG_VALUE: mbedtls_des3_crypt_cbc:i <- 0
	mov	r3, r1
.Ltmp354:
.LBB19_7:                               @   Parent Loop BB19_6 Depth=1
                                        @ =>  This Inner Loop Header: Depth=2
	@DEBUG_VALUE: mbedtls_des3_crypt_cbc:input <- $r7
	@DEBUG_VALUE: mbedtls_des3_crypt_cbc:output <- $r6
	@DEBUG_VALUE: mbedtls_des3_crypt_cbc:length <- $r5
	@DEBUG_VALUE: mbedtls_des3_crypt_cbc:iv <- $r4
	@DEBUG_VALUE: mbedtls_des3_crypt_cbc:mode <- [DW_OP_LLVM_entry_value 1] $r1
	@DEBUG_VALUE: mbedtls_des3_crypt_cbc:i <- $r3
	.loc	1 781 46 is_stmt 1              @ ../../../ThirdParty/mbedTLS/library/des.c:781:46
	ldrb	r1, [r7, r3]
	.loc	1 781 57 is_stmt 0              @ ../../../ThirdParty/mbedTLS/library/des.c:781:57
	ldrb	r2, [r4, r3]
	.loc	1 781 55                        @ ../../../ThirdParty/mbedTLS/library/des.c:781:55
	eors	r2, r1
	.loc	1 781 27                        @ ../../../ThirdParty/mbedTLS/library/des.c:781:27
	strb	r2, [r6, r3]
	.loc	1 780 33 is_stmt 1              @ ../../../ThirdParty/mbedTLS/library/des.c:780:33
	adds	r3, r3, #1
.Ltmp355:
	@DEBUG_VALUE: mbedtls_des3_crypt_cbc:i <- $r3
	.loc	1 780 13 is_stmt 0              @ ../../../ThirdParty/mbedTLS/library/des.c:780:13
	cmp	r3, #8
	bne	.LBB19_7
.Ltmp356:
@ %bb.8:                                @   in Loop: Header=BB19_6 Depth=1
	@DEBUG_VALUE: mbedtls_des3_crypt_cbc:input <- $r7
	@DEBUG_VALUE: mbedtls_des3_crypt_cbc:output <- $r6
	@DEBUG_VALUE: mbedtls_des3_crypt_cbc:length <- $r5
	@DEBUG_VALUE: mbedtls_des3_crypt_cbc:iv <- $r4
	@DEBUG_VALUE: mbedtls_des3_crypt_cbc:i <- $r3
	@DEBUG_VALUE: mbedtls_des3_crypt_cbc:mode <- [DW_OP_LLVM_entry_value 1] $r1
	.loc	1 783 13 is_stmt 1              @ ../../../ThirdParty/mbedTLS/library/des.c:783:13
	mov	r1, r6
	mov	r2, r6
	bl	mbedtls_des3_crypt_ecb
.Ltmp357:
	@DEBUG_VALUE: mbedtls_des3_crypt_cbc:ctx <- [DW_OP_LLVM_entry_value 1] $r0
	.loc	1 784 13                        @ ../../../ThirdParty/mbedTLS/library/des.c:784:13
	ldrb	r0, [r6, #1]
	str	r0, [sp, #32]                   @ 4-byte Spill
	ldrb	r0, [r6]
	str	r0, [sp, #28]                   @ 4-byte Spill
	ldrb	r0, [r6, #3]
	str	r0, [sp, #24]                   @ 4-byte Spill
	ldrb	r0, [r6, #2]
	str	r0, [sp, #20]                   @ 4-byte Spill
	ldrb	r0, [r6, #5]
	str	r0, [sp, #16]                   @ 4-byte Spill
	ldrb	r2, [r6, #4]
	ldrb	r1, [r6, #7]
	ldrb	r3, [r6, #6]
	strb	r3, [r4, #6]
	ldr	r0, [sp, #40]                   @ 4-byte Reload
	strb	r1, [r4, #7]
	strb	r2, [r4, #4]
	ldr	r1, [sp, #16]                   @ 4-byte Reload
	strb	r1, [r4, #5]
	ldr	r1, [sp, #20]                   @ 4-byte Reload
	strb	r1, [r4, #2]
	ldr	r1, [sp, #24]                   @ 4-byte Reload
	strb	r1, [r4, #3]
	ldr	r1, [sp, #28]                   @ 4-byte Reload
	strb	r1, [r4]
	ldr	r1, [sp, #32]                   @ 4-byte Reload
	strb	r1, [r4, #1]
	.loc	1 788 20                        @ ../../../ThirdParty/mbedTLS/library/des.c:788:20
	subs	r5, #8
.Ltmp358:
	@DEBUG_VALUE: mbedtls_des3_crypt_cbc:length <- $r5
	.loc	1 787 20                        @ ../../../ThirdParty/mbedTLS/library/des.c:787:20
	adds	r6, #8
.Ltmp359:
	@DEBUG_VALUE: mbedtls_des3_crypt_cbc:output <- $r6
	.loc	1 786 20                        @ ../../../ThirdParty/mbedTLS/library/des.c:786:20
	adds	r7, #8
.Ltmp360:
	@DEBUG_VALUE: mbedtls_des3_crypt_cbc:input <- $r7
	.loc	1 778 9                         @ ../../../ThirdParty/mbedTLS/library/des.c:778:9
	cmp	r5, #0
	ldr	r1, [sp, #36]                   @ 4-byte Reload
	bne	.LBB19_6
	b	.LBB19_2
.Ltmp361:
.LBB19_9:
	@DEBUG_VALUE: mbedtls_des3_crypt_cbc:iv <- $r4
	@DEBUG_VALUE: mbedtls_des3_crypt_cbc:mode <- $r1
	@DEBUG_VALUE: mbedtls_des3_crypt_cbc:ctx <- $r0
	.loc	1 0 9 is_stmt 0                 @ ../../../ThirdParty/mbedTLS/library/des.c:0:9
	movs	r1, #0
.Ltmp362:
	@DEBUG_VALUE: mbedtls_des3_crypt_cbc:mode <- [DW_OP_LLVM_entry_value 1] $r1
	.loc	1 793 9 is_stmt 1               @ ../../../ThirdParty/mbedTLS/library/des.c:793:9
	cmp	r5, #0
	beq	.LBB19_2
.Ltmp363:
@ %bb.10:
	@DEBUG_VALUE: mbedtls_des3_crypt_cbc:iv <- $r4
	@DEBUG_VALUE: mbedtls_des3_crypt_cbc:ctx <- $r0
	@DEBUG_VALUE: mbedtls_des3_crypt_cbc:mode <- [DW_OP_LLVM_entry_value 1] $r1
	.loc	1 0 9 is_stmt 0                 @ ../../../ThirdParty/mbedTLS/library/des.c:0:9
	str	r1, [sp, #36]                   @ 4-byte Spill
.Ltmp364:
.LBB19_11:                              @ =>This Loop Header: Depth=1
                                        @     Child Loop BB19_12 Depth 2
	@DEBUG_VALUE: mbedtls_des3_crypt_cbc:iv <- $r4
	@DEBUG_VALUE: mbedtls_des3_crypt_cbc:mode <- [DW_OP_LLVM_entry_value 1] $r1
	@DEBUG_VALUE: mbedtls_des3_crypt_cbc:length <- $r5
	@DEBUG_VALUE: mbedtls_des3_crypt_cbc:input <- $r7
	@DEBUG_VALUE: mbedtls_des3_crypt_cbc:output <- $r6
	str	r5, [sp, #32]                   @ 4-byte Spill
.Ltmp365:
	@DEBUG_VALUE: mbedtls_des3_crypt_cbc:length <- [DW_OP_plus_uconst 32] [$sp+0]
	@DEBUG_VALUE: mbedtls_des3_crypt_cbc:length <- [DW_OP_plus_uconst 32] [$sp+0]
	@DEBUG_VALUE: mbedtls_des3_crypt_cbc:length <- [DW_OP_plus_uconst 32] [$sp+0]
	.loc	1 795 13 is_stmt 1              @ ../../../ThirdParty/mbedTLS/library/des.c:795:13
	ldrb	r5, [r7, #2]
	ldrb	r1, [r7, #3]
	str	r1, [sp, #28]                   @ 4-byte Spill
	ldrb	r1, [r7]
	str	r1, [sp, #24]                   @ 4-byte Spill
	ldrb	r1, [r7, #1]
	str	r1, [sp, #20]                   @ 4-byte Spill
	ldrb	r1, [r7, #6]
	str	r1, [sp, #16]                   @ 4-byte Spill
	ldrb	r1, [r7, #7]
	str	r1, [sp, #12]                   @ 4-byte Spill
	ldrb	r1, [r7, #4]
	str	r1, [sp, #8]                    @ 4-byte Spill
	ldrb	r1, [r7, #5]
	.loc	1 796 13                        @ ../../../ThirdParty/mbedTLS/library/des.c:796:13
	str	r1, [sp, #4]                    @ 4-byte Spill
	mov	r1, r7
	mov	r2, r6
	bl	mbedtls_des3_crypt_ecb
.Ltmp366:
	@DEBUG_VALUE: mbedtls_des3_crypt_cbc:ctx <- [DW_OP_LLVM_entry_value 1] $r0
	.loc	1 795 13                        @ ../../../ThirdParty/mbedTLS/library/des.c:795:13
	ldr	r0, [sp, #4]                    @ 4-byte Reload
	lsls	r0, r0, #8
	ldr	r1, [sp, #8]                    @ 4-byte Reload
	adds	r0, r0, r1
	ldr	r1, [sp, #12]                   @ 4-byte Reload
	lsls	r1, r1, #8
	ldr	r2, [sp, #16]                   @ 4-byte Reload
	adds	r1, r1, r2
	lsls	r1, r1, #16
	adds	r0, r1, r0
.Ltmp367:
	@DEBUG_VALUE: mbedtls_des3_crypt_cbc:temp <- [DW_OP_LLVM_fragment 32 32] $r0
	ldr	r1, [sp, #20]                   @ 4-byte Reload
	lsls	r1, r1, #8
	ldr	r2, [sp, #24]                   @ 4-byte Reload
	adds	r1, r1, r2
	ldr	r2, [sp, #28]                   @ 4-byte Reload
	lsls	r2, r2, #8
	adds	r2, r2, r5
	lsls	r2, r2, #16
	adds	r1, r2, r1
.Ltmp368:
	@DEBUG_VALUE: mbedtls_des3_crypt_cbc:temp <- [DW_OP_LLVM_fragment 0 32] $r1
	@DEBUG_VALUE: mbedtls_des3_crypt_cbc:i <- 0
	.loc	1 0 13 is_stmt 0                @ ../../../ThirdParty/mbedTLS/library/des.c:0:13
	ldr	r2, [sp, #36]                   @ 4-byte Reload
.Ltmp369:
.LBB19_12:                              @   Parent Loop BB19_11 Depth=1
                                        @ =>  This Inner Loop Header: Depth=2
	@DEBUG_VALUE: mbedtls_des3_crypt_cbc:input <- $r7
	@DEBUG_VALUE: mbedtls_des3_crypt_cbc:output <- $r6
	@DEBUG_VALUE: mbedtls_des3_crypt_cbc:iv <- $r4
	@DEBUG_VALUE: mbedtls_des3_crypt_cbc:temp <- [DW_OP_LLVM_fragment 0 32] $r1
	@DEBUG_VALUE: mbedtls_des3_crypt_cbc:temp <- [DW_OP_LLVM_fragment 32 32] $r0
	@DEBUG_VALUE: mbedtls_des3_crypt_cbc:length <- [DW_OP_plus_uconst 32] [$sp+0]
	@DEBUG_VALUE: mbedtls_des3_crypt_cbc:mode <- [DW_OP_LLVM_entry_value 1] $r1
	@DEBUG_VALUE: mbedtls_des3_crypt_cbc:i <- $r2
	.loc	1 799 46 is_stmt 1              @ ../../../ThirdParty/mbedTLS/library/des.c:799:46
	ldrb	r3, [r6, r2]
	.loc	1 799 58 is_stmt 0              @ ../../../ThirdParty/mbedTLS/library/des.c:799:58
	ldrb	r5, [r4, r2]
	.loc	1 799 56                        @ ../../../ThirdParty/mbedTLS/library/des.c:799:56
	eors	r5, r3
	.loc	1 799 27                        @ ../../../ThirdParty/mbedTLS/library/des.c:799:27
	strb	r5, [r6, r2]
	.loc	1 798 33 is_stmt 1              @ ../../../ThirdParty/mbedTLS/library/des.c:798:33
	adds	r2, r2, #1
.Ltmp370:
	@DEBUG_VALUE: mbedtls_des3_crypt_cbc:i <- $r2
	.loc	1 798 13 is_stmt 0              @ ../../../ThirdParty/mbedTLS/library/des.c:798:13
	cmp	r2, #8
	bne	.LBB19_12
.Ltmp371:
@ %bb.13:                               @   in Loop: Header=BB19_11 Depth=1
	@DEBUG_VALUE: mbedtls_des3_crypt_cbc:input <- $r7
	@DEBUG_VALUE: mbedtls_des3_crypt_cbc:output <- $r6
	@DEBUG_VALUE: mbedtls_des3_crypt_cbc:iv <- $r4
	@DEBUG_VALUE: mbedtls_des3_crypt_cbc:i <- $r2
	@DEBUG_VALUE: mbedtls_des3_crypt_cbc:temp <- [DW_OP_LLVM_fragment 0 32] $r1
	@DEBUG_VALUE: mbedtls_des3_crypt_cbc:temp <- [DW_OP_LLVM_fragment 32 32] $r0
	@DEBUG_VALUE: mbedtls_des3_crypt_cbc:length <- [DW_OP_plus_uconst 32] [$sp+0]
	@DEBUG_VALUE: mbedtls_des3_crypt_cbc:mode <- [DW_OP_LLVM_entry_value 1] $r1
	.loc	1 801 13 is_stmt 1              @ ../../../ThirdParty/mbedTLS/library/des.c:801:13
	strb	r1, [r4]
	strb	r0, [r4, #4]
	lsrs	r2, r1, #24
.Ltmp372:
	strb	r2, [r4, #3]
	lsrs	r2, r1, #16
	strb	r2, [r4, #2]
	lsrs	r1, r1, #8
.Ltmp373:
	strb	r1, [r4, #1]
	lsrs	r1, r0, #24
	strb	r1, [r4, #7]
	lsrs	r1, r0, #16
	strb	r1, [r4, #6]
	lsrs	r0, r0, #8
.Ltmp374:
	strb	r0, [r4, #5]
	ldr	r5, [sp, #32]                   @ 4-byte Reload
	.loc	1 805 20                        @ ../../../ThirdParty/mbedTLS/library/des.c:805:20
	subs	r5, #8
.Ltmp375:
	@DEBUG_VALUE: mbedtls_des3_crypt_cbc:length <- $r5
	.loc	1 804 20                        @ ../../../ThirdParty/mbedTLS/library/des.c:804:20
	adds	r6, #8
.Ltmp376:
	@DEBUG_VALUE: mbedtls_des3_crypt_cbc:output <- $r6
	.loc	1 803 20                        @ ../../../ThirdParty/mbedTLS/library/des.c:803:20
	adds	r7, #8
.Ltmp377:
	@DEBUG_VALUE: mbedtls_des3_crypt_cbc:input <- $r7
	.loc	1 793 9                         @ ../../../ThirdParty/mbedTLS/library/des.c:793:9
	cmp	r5, #0
	ldr	r0, [sp, #40]                   @ 4-byte Reload
	bne	.LBB19_11
.Ltmp378:
@ %bb.14:
	@DEBUG_VALUE: mbedtls_des3_crypt_cbc:input <- $r7
	@DEBUG_VALUE: mbedtls_des3_crypt_cbc:output <- $r6
	@DEBUG_VALUE: mbedtls_des3_crypt_cbc:length <- $r5
	@DEBUG_VALUE: mbedtls_des3_crypt_cbc:iv <- $r4
	@DEBUG_VALUE: mbedtls_des3_crypt_cbc:mode <- [DW_OP_LLVM_entry_value 1] $r1
	.loc	1 0 9 is_stmt 0                 @ ../../../ThirdParty/mbedTLS/library/des.c:0:9
	ldr	r1, [sp, #36]                   @ 4-byte Reload
	b	.LBB19_2
.Lfunc_end19:
	.size	mbedtls_des3_crypt_cbc, .Lfunc_end19-mbedtls_des3_crypt_cbc
	.cfi_endproc
	.cantunwind
	.fnend
                                        @ -- End function
	.section	.text.mbedtls_des_self_test,"ax",%progbits
	.hidden	mbedtls_des_self_test           @ -- Begin function mbedtls_des_self_test
	.globl	mbedtls_des_self_test
	.p2align	2
	.type	mbedtls_des_self_test,%function
	.code	16                              @ @mbedtls_des_self_test
	.thumb_func
mbedtls_des_self_test:
.Lfunc_begin20:
	.loc	1 872 0 is_stmt 1               @ ../../../ThirdParty/mbedTLS/library/des.c:872:0
	.fnstart
	.cfi_startproc
@ %bb.0:
	@DEBUG_VALUE: mbedtls_des_self_test:verbose <- $r0
	.save	{r4, r5, r6, r7, lr}
	push	{r4, r5, r6, r7, lr}
	.cfi_def_cfa_offset 20
	.cfi_offset lr, -4
	.cfi_offset r7, -8
	.cfi_offset r6, -12
	.cfi_offset r5, -16
	.cfi_offset r4, -20
	.pad	#508
	sub	sp, #508
	.pad	#56
	sub	sp, #56
	.cfi_def_cfa_offset 584
	str	r0, [sp, #24]                   @ 4-byte Spill
.Ltmp379:
	@DEBUG_VALUE: mbedtls_des_self_test:ret <- 0
	@DEBUG_VALUE: mbedtls_des_self_test:verbose <- [DW_OP_plus_uconst 24] [$sp+0]
	add	r0, sp, #436
.Ltmp380:
	.loc	1 882 5 prologue_end            @ ../../../ThirdParty/mbedTLS/library/des.c:882:5
	bl	mbedtls_des_init
	add	r0, sp, #52
	.loc	1 883 5                         @ ../../../ThirdParty/mbedTLS/library/des.c:883:5
	bl	mbedtls_des3_init
	movs	r4, #0
.Ltmp381:
	@DEBUG_VALUE: mbedtls_des_self_test:i <- 0
	.loc	1 0 5 is_stmt 0                 @ ../../../ThirdParty/mbedTLS/library/des.c:0:5
	movs	r6, #1
	str	r6, [sp, #20]                   @ 4-byte Spill
	b	.LBB20_2
.Ltmp382:
.LBB20_1:                               @   in Loop: Header=BB20_2 Depth=1
	@DEBUG_VALUE: mbedtls_des_self_test:v <- $r7
	@DEBUG_VALUE: mbedtls_des_self_test:u <- $r5
	@DEBUG_VALUE: mbedtls_des_self_test:i <- $r4
	@DEBUG_VALUE: mbedtls_des_self_test:buf <- [DW_OP_plus_uconst 40, DW_OP_deref] $sp
	@DEBUG_VALUE: mbedtls_des_self_test:verbose <- [DW_OP_plus_uconst 24] [$sp+0]
	@DEBUG_VALUE: mbedtls_des_self_test:ret <- 0
	.loc	1 887 25 is_stmt 1              @ ../../../ThirdParty/mbedTLS/library/des.c:887:25
	adds	r4, r4, #1
.Ltmp383:
	@DEBUG_VALUE: mbedtls_des_self_test:i <- $r4
	.loc	1 887 5 is_stmt 0               @ ../../../ThirdParty/mbedTLS/library/des.c:887:5
	cmp	r4, #6
	beq	.LBB20_29
.Ltmp384:
.LBB20_2:                               @ =>This Loop Header: Depth=1
                                        @     Child Loop BB20_20 Depth 2
	@DEBUG_VALUE: mbedtls_des_self_test:verbose <- [DW_OP_plus_uconst 24] [$sp+0]
	@DEBUG_VALUE: mbedtls_des_self_test:ret <- 0
	@DEBUG_VALUE: mbedtls_des_self_test:i <- $r4
	.loc	1 890 16 is_stmt 1              @ ../../../ThirdParty/mbedTLS/library/des.c:890:16
	mov	r7, r4
	ands	r7, r6
.Ltmp385:
	@DEBUG_VALUE: mbedtls_des_self_test:v <- $r7
	.loc	1 889 15                        @ ../../../ThirdParty/mbedTLS/library/des.c:889:15
	lsrs	r5, r4, #1
.Ltmp386:
	@DEBUG_VALUE: mbedtls_des_self_test:u <- $r5
	.loc	1 892 13                        @ ../../../ThirdParty/mbedTLS/library/des.c:892:13
	ldr	r0, [sp, #24]                   @ 4-byte Reload
	cbz	r0, .LBB20_9
.Ltmp387:
@ %bb.3:                                @   in Loop: Header=BB20_2 Depth=1
	@DEBUG_VALUE: mbedtls_des_self_test:v <- $r7
	@DEBUG_VALUE: mbedtls_des_self_test:u <- $r5
	@DEBUG_VALUE: mbedtls_des_self_test:i <- $r4
	@DEBUG_VALUE: mbedtls_des_self_test:verbose <- [DW_OP_plus_uconst 24] [$sp+0]
	@DEBUG_VALUE: mbedtls_des_self_test:ret <- 0
	.loc	1 894 29                        @ ../../../ThirdParty/mbedTLS/library/des.c:894:29
	cbz	r5, .LBB20_5
.Ltmp388:
@ %bb.4:                                @   in Loop: Header=BB20_2 Depth=1
	@DEBUG_VALUE: mbedtls_des_self_test:v <- $r7
	@DEBUG_VALUE: mbedtls_des_self_test:u <- $r5
	@DEBUG_VALUE: mbedtls_des_self_test:i <- $r4
	@DEBUG_VALUE: mbedtls_des_self_test:verbose <- [DW_OP_plus_uconst 24] [$sp+0]
	@DEBUG_VALUE: mbedtls_des_self_test:ret <- 0
	.loc	1 0 29 is_stmt 0                @ ../../../ThirdParty/mbedTLS/library/des.c:0:29
	movs	r1, #51
	b	.LBB20_6
.Ltmp389:
.LBB20_5:                               @   in Loop: Header=BB20_2 Depth=1
	@DEBUG_VALUE: mbedtls_des_self_test:v <- $r7
	@DEBUG_VALUE: mbedtls_des_self_test:u <- $r5
	@DEBUG_VALUE: mbedtls_des_self_test:i <- $r4
	@DEBUG_VALUE: mbedtls_des_self_test:verbose <- [DW_OP_plus_uconst 24] [$sp+0]
	@DEBUG_VALUE: mbedtls_des_self_test:ret <- 0
	movs	r1, #32
.Ltmp390:
.LBB20_6:                               @   in Loop: Header=BB20_2 Depth=1
	@DEBUG_VALUE: mbedtls_des_self_test:v <- $r7
	@DEBUG_VALUE: mbedtls_des_self_test:u <- $r5
	@DEBUG_VALUE: mbedtls_des_self_test:i <- $r4
	@DEBUG_VALUE: mbedtls_des_self_test:verbose <- [DW_OP_plus_uconst 24] [$sp+0]
	@DEBUG_VALUE: mbedtls_des_self_test:ret <- 0
	.loc	1 895 29 is_stmt 1              @ ../../../ThirdParty/mbedTLS/library/des.c:895:29
	ldr	r3, __arm_cp.20_3
	cbz	r7, .LBB20_8
.Ltmp391:
@ %bb.7:                                @   in Loop: Header=BB20_2 Depth=1
	@DEBUG_VALUE: mbedtls_des_self_test:v <- $r7
	@DEBUG_VALUE: mbedtls_des_self_test:u <- $r5
	@DEBUG_VALUE: mbedtls_des_self_test:i <- $r4
	@DEBUG_VALUE: mbedtls_des_self_test:verbose <- [DW_OP_plus_uconst 24] [$sp+0]
	@DEBUG_VALUE: mbedtls_des_self_test:ret <- 0
	ldr	r3, __arm_cp.20_4
.Ltmp392:
.LBB20_8:                               @   in Loop: Header=BB20_2 Depth=1
	@DEBUG_VALUE: mbedtls_des_self_test:v <- $r7
	@DEBUG_VALUE: mbedtls_des_self_test:u <- $r5
	@DEBUG_VALUE: mbedtls_des_self_test:i <- $r4
	@DEBUG_VALUE: mbedtls_des_self_test:verbose <- [DW_OP_plus_uconst 24] [$sp+0]
	@DEBUG_VALUE: mbedtls_des_self_test:ret <- 0
	.loc	1 0 29 is_stmt 0                @ ../../../ThirdParty/mbedTLS/library/des.c:0:29
	movs	r2, #56
	.loc	1 894 60 is_stmt 1              @ ../../../ThirdParty/mbedTLS/library/des.c:894:60
	muls	r2, r5, r2
	.loc	1 894 56 is_stmt 0              @ ../../../ThirdParty/mbedTLS/library/des.c:894:56
	adds	r2, #56
	.loc	1 893 13 is_stmt 1              @ ../../../ThirdParty/mbedTLS/library/des.c:893:13
	adr	r0, .LCPI20_5
	bl	__2printf
.Ltmp393:
.LBB20_9:                               @   in Loop: Header=BB20_2 Depth=1
	@DEBUG_VALUE: mbedtls_des_self_test:v <- $r7
	@DEBUG_VALUE: mbedtls_des_self_test:u <- $r5
	@DEBUG_VALUE: mbedtls_des_self_test:i <- $r4
	@DEBUG_VALUE: mbedtls_des_self_test:verbose <- [DW_OP_plus_uconst 24] [$sp+0]
	@DEBUG_VALUE: mbedtls_des_self_test:ret <- 0
	@DEBUG_VALUE: mbedtls_des_self_test:buf <- 8367815003007840078
	.loc	1 897 9                         @ ../../../ThirdParty/mbedTLS/library/des.c:897:9
	ldr	r0, __arm_cp.20_1
	str	r0, [sp, #40]
	ldr	r0, __arm_cp.20_0
	str	r0, [sp, #44]
	.loc	1 899 9                         @ ../../../ThirdParty/mbedTLS/library/des.c:899:9
	cmp	r4, #5
	bhi	.LBB20_28
.Ltmp394:
@ %bb.10:                               @   in Loop: Header=BB20_2 Depth=1
	@DEBUG_VALUE: mbedtls_des_self_test:v <- $r7
	@DEBUG_VALUE: mbedtls_des_self_test:u <- $r5
	@DEBUG_VALUE: mbedtls_des_self_test:i <- $r4
	@DEBUG_VALUE: mbedtls_des_self_test:verbose <- [DW_OP_plus_uconst 24] [$sp+0]
	@DEBUG_VALUE: mbedtls_des_self_test:buf <- 8367815003007840078
	@DEBUG_VALUE: mbedtls_des_self_test:ret <- 0
	.loc	1 0 9 is_stmt 0                 @ ../../../ThirdParty/mbedTLS/library/des.c:0:9
	lsls	r0, r4, #2
	adr	r1, .LJTI20_0
	adds	r0, r1, r0
	mov	pc, r0
.Ltmp395:
@ %bb.11:
	.p2align	2
.LJTI20_0:
	b.w	.LBB20_12
	b.w	.LBB20_13
	b.w	.LBB20_14
	b.w	.LBB20_15
	b.w	.LBB20_16
	b.w	.LBB20_17
.LBB20_12:                              @   in Loop: Header=BB20_2 Depth=1
.Ltmp396:
	@DEBUG_VALUE: mbedtls_des_self_test:v <- $r7
	@DEBUG_VALUE: mbedtls_des_self_test:u <- $r5
	@DEBUG_VALUE: mbedtls_des_self_test:i <- $r4
	@DEBUG_VALUE: mbedtls_des_self_test:verbose <- [DW_OP_plus_uconst 24] [$sp+0]
	@DEBUG_VALUE: mbedtls_des_self_test:buf <- 8367815003007840078
	@DEBUG_VALUE: mbedtls_des_self_test:ret <- 0
	add	r0, sp, #436
.Ltmp397:
	.loc	1 902 13 is_stmt 1              @ ../../../ThirdParty/mbedTLS/library/des.c:902:13
	ldr	r1, __arm_cp.20_6
	bl	mbedtls_des_setkey_dec
	b	.LBB20_18
.Ltmp398:
.LBB20_13:                              @   in Loop: Header=BB20_2 Depth=1
	@DEBUG_VALUE: mbedtls_des_self_test:v <- $r7
	@DEBUG_VALUE: mbedtls_des_self_test:u <- $r5
	@DEBUG_VALUE: mbedtls_des_self_test:i <- $r4
	@DEBUG_VALUE: mbedtls_des_self_test:verbose <- [DW_OP_plus_uconst 24] [$sp+0]
	@DEBUG_VALUE: mbedtls_des_self_test:buf <- 8367815003007840078
	@DEBUG_VALUE: mbedtls_des_self_test:ret <- 0
	.loc	1 0 13 is_stmt 0                @ ../../../ThirdParty/mbedTLS/library/des.c:0:13
	add	r0, sp, #436
	.loc	1 906 13 is_stmt 1              @ ../../../ThirdParty/mbedTLS/library/des.c:906:13
	ldr	r1, __arm_cp.20_6
	bl	mbedtls_des_setkey_enc
	b	.LBB20_18
.Ltmp399:
.LBB20_14:                              @   in Loop: Header=BB20_2 Depth=1
	@DEBUG_VALUE: mbedtls_des_self_test:v <- $r7
	@DEBUG_VALUE: mbedtls_des_self_test:u <- $r5
	@DEBUG_VALUE: mbedtls_des_self_test:i <- $r4
	@DEBUG_VALUE: mbedtls_des_self_test:verbose <- [DW_OP_plus_uconst 24] [$sp+0]
	@DEBUG_VALUE: mbedtls_des_self_test:buf <- 8367815003007840078
	@DEBUG_VALUE: mbedtls_des_self_test:ret <- 0
	.loc	1 0 13 is_stmt 0                @ ../../../ThirdParty/mbedTLS/library/des.c:0:13
	add	r0, sp, #52
	.loc	1 910 13 is_stmt 1              @ ../../../ThirdParty/mbedTLS/library/des.c:910:13
	ldr	r1, __arm_cp.20_6
	bl	mbedtls_des3_set2key_dec
	b	.LBB20_18
.Ltmp400:
.LBB20_15:                              @   in Loop: Header=BB20_2 Depth=1
	@DEBUG_VALUE: mbedtls_des_self_test:v <- $r7
	@DEBUG_VALUE: mbedtls_des_self_test:u <- $r5
	@DEBUG_VALUE: mbedtls_des_self_test:i <- $r4
	@DEBUG_VALUE: mbedtls_des_self_test:verbose <- [DW_OP_plus_uconst 24] [$sp+0]
	@DEBUG_VALUE: mbedtls_des_self_test:buf <- 8367815003007840078
	@DEBUG_VALUE: mbedtls_des_self_test:ret <- 0
	.loc	1 0 13 is_stmt 0                @ ../../../ThirdParty/mbedTLS/library/des.c:0:13
	add	r0, sp, #52
	.loc	1 914 13 is_stmt 1              @ ../../../ThirdParty/mbedTLS/library/des.c:914:13
	ldr	r1, __arm_cp.20_6
	bl	mbedtls_des3_set2key_enc
	b	.LBB20_18
.Ltmp401:
.LBB20_16:                              @   in Loop: Header=BB20_2 Depth=1
	@DEBUG_VALUE: mbedtls_des_self_test:v <- $r7
	@DEBUG_VALUE: mbedtls_des_self_test:u <- $r5
	@DEBUG_VALUE: mbedtls_des_self_test:i <- $r4
	@DEBUG_VALUE: mbedtls_des_self_test:verbose <- [DW_OP_plus_uconst 24] [$sp+0]
	@DEBUG_VALUE: mbedtls_des_self_test:buf <- 8367815003007840078
	@DEBUG_VALUE: mbedtls_des_self_test:ret <- 0
	.loc	1 0 13 is_stmt 0                @ ../../../ThirdParty/mbedTLS/library/des.c:0:13
	add	r0, sp, #52
	.loc	1 918 13 is_stmt 1              @ ../../../ThirdParty/mbedTLS/library/des.c:918:13
	ldr	r1, __arm_cp.20_6
	bl	mbedtls_des3_set3key_dec
	b	.LBB20_18
.Ltmp402:
.LBB20_17:                              @   in Loop: Header=BB20_2 Depth=1
	@DEBUG_VALUE: mbedtls_des_self_test:v <- $r7
	@DEBUG_VALUE: mbedtls_des_self_test:u <- $r5
	@DEBUG_VALUE: mbedtls_des_self_test:i <- $r4
	@DEBUG_VALUE: mbedtls_des_self_test:verbose <- [DW_OP_plus_uconst 24] [$sp+0]
	@DEBUG_VALUE: mbedtls_des_self_test:buf <- 8367815003007840078
	@DEBUG_VALUE: mbedtls_des_self_test:ret <- 0
	.loc	1 0 13 is_stmt 0                @ ../../../ThirdParty/mbedTLS/library/des.c:0:13
	add	r0, sp, #52
	.loc	1 922 13 is_stmt 1              @ ../../../ThirdParty/mbedTLS/library/des.c:922:13
	ldr	r1, __arm_cp.20_6
	bl	mbedtls_des3_set3key_enc
.Ltmp403:
.LBB20_18:                              @   in Loop: Header=BB20_2 Depth=1
	@DEBUG_VALUE: mbedtls_des_self_test:v <- $r7
	@DEBUG_VALUE: mbedtls_des_self_test:u <- $r5
	@DEBUG_VALUE: mbedtls_des_self_test:i <- $r4
	@DEBUG_VALUE: mbedtls_des_self_test:verbose <- [DW_OP_plus_uconst 24] [$sp+0]
	@DEBUG_VALUE: mbedtls_des_self_test:buf <- 8367815003007840078
	@DEBUG_VALUE: mbedtls_des_self_test:ret <- 0
	@DEBUG_VALUE: mbedtls_des_self_test:j <- 0
	.loc	1 0 13 is_stmt 0                @ ../../../ThirdParty/mbedTLS/library/des.c:0:13
	ldr	r6, __arm_cp.20_2
	b	.LBB20_20
.Ltmp404:
.LBB20_19:                              @   in Loop: Header=BB20_20 Depth=2
	@DEBUG_VALUE: mbedtls_des_self_test:v <- $r7
	@DEBUG_VALUE: mbedtls_des_self_test:u <- $r5
	@DEBUG_VALUE: mbedtls_des_self_test:i <- $r4
	@DEBUG_VALUE: mbedtls_des_self_test:buf <- [DW_OP_plus_uconst 40, DW_OP_deref] $sp
	@DEBUG_VALUE: mbedtls_des_self_test:verbose <- [DW_OP_plus_uconst 24] [$sp+0]
	@DEBUG_VALUE: mbedtls_des_self_test:ret <- 0
	add	r0, sp, #52
	add	r1, sp, #40
.Ltmp405:
	.loc	1 934 17 is_stmt 1              @ ../../../ThirdParty/mbedTLS/library/des.c:934:17
	mov	r2, r1
	bl	mbedtls_des3_crypt_ecb
.Ltmp406:
	@DEBUG_VALUE: mbedtls_des_self_test:j <- [DW_OP_plus_uconst 1, DW_OP_stack_value] undef
	.loc	1 929 23                        @ ../../../ThirdParty/mbedTLS/library/des.c:929:23
	subs	r6, r6, #1
.Ltmp407:
	.loc	1 929 9 is_stmt 0               @ ../../../ThirdParty/mbedTLS/library/des.c:929:9
	beq	.LBB20_22
.Ltmp408:
.LBB20_20:                              @   Parent Loop BB20_2 Depth=1
                                        @ =>  This Inner Loop Header: Depth=2
	@DEBUG_VALUE: mbedtls_des_self_test:v <- $r7
	@DEBUG_VALUE: mbedtls_des_self_test:u <- $r5
	@DEBUG_VALUE: mbedtls_des_self_test:i <- $r4
	@DEBUG_VALUE: mbedtls_des_self_test:verbose <- [DW_OP_plus_uconst 24] [$sp+0]
	@DEBUG_VALUE: mbedtls_des_self_test:ret <- 0
	@DEBUG_VALUE: mbedtls_des_self_test:buf <- [DW_OP_plus_uconst 40, DW_OP_deref] $sp
	@DEBUG_VALUE: mbedtls_des_self_test:j <- undef
	.loc	1 931 17 is_stmt 1              @ ../../../ThirdParty/mbedTLS/library/des.c:931:17
	cmp	r5, #0
	bne	.LBB20_19
.Ltmp409:
@ %bb.21:                               @   in Loop: Header=BB20_20 Depth=2
	@DEBUG_VALUE: mbedtls_des_self_test:v <- $r7
	@DEBUG_VALUE: mbedtls_des_self_test:u <- $r5
	@DEBUG_VALUE: mbedtls_des_self_test:i <- $r4
	@DEBUG_VALUE: mbedtls_des_self_test:buf <- [DW_OP_plus_uconst 40, DW_OP_deref] $sp
	@DEBUG_VALUE: mbedtls_des_self_test:verbose <- [DW_OP_plus_uconst 24] [$sp+0]
	@DEBUG_VALUE: mbedtls_des_self_test:ret <- 0
	.loc	1 0 17 is_stmt 0                @ ../../../ThirdParty/mbedTLS/library/des.c:0:17
	add	r0, sp, #436
	add	r1, sp, #40
.Ltmp410:
	.loc	1 932 17 is_stmt 1              @ ../../../ThirdParty/mbedTLS/library/des.c:932:17
	mov	r2, r1
	bl	mbedtls_des_crypt_ecb
.Ltmp411:
	@DEBUG_VALUE: mbedtls_des_self_test:j <- [DW_OP_plus_uconst 1, DW_OP_stack_value] undef
	.loc	1 929 23                        @ ../../../ThirdParty/mbedTLS/library/des.c:929:23
	subs	r6, r6, #1
.Ltmp412:
	.loc	1 929 9 is_stmt 0               @ ../../../ThirdParty/mbedTLS/library/des.c:929:9
	bne	.LBB20_20
.Ltmp413:
.LBB20_22:                              @   in Loop: Header=BB20_2 Depth=1
	@DEBUG_VALUE: mbedtls_des_self_test:v <- $r7
	@DEBUG_VALUE: mbedtls_des_self_test:u <- $r5
	@DEBUG_VALUE: mbedtls_des_self_test:i <- $r4
	@DEBUG_VALUE: mbedtls_des_self_test:buf <- [DW_OP_plus_uconst 40, DW_OP_deref] $sp
	@DEBUG_VALUE: mbedtls_des_self_test:verbose <- [DW_OP_plus_uconst 24] [$sp+0]
	@DEBUG_VALUE: mbedtls_des_self_test:ret <- 0
	.loc	1 0 9                           @ ../../../ThirdParty/mbedTLS/library/des.c:0:9
	ldr	r6, [sp, #20]                   @ 4-byte Reload
.Ltmp414:
	.loc	1 937 40 is_stmt 1              @ ../../../ThirdParty/mbedTLS/library/des.c:937:40
	cbnz	r7, .LBB20_24
.Ltmp415:
@ %bb.23:                               @   in Loop: Header=BB20_2 Depth=1
	@DEBUG_VALUE: mbedtls_des_self_test:v <- $r7
	@DEBUG_VALUE: mbedtls_des_self_test:u <- $r5
	@DEBUG_VALUE: mbedtls_des_self_test:i <- $r4
	@DEBUG_VALUE: mbedtls_des_self_test:buf <- [DW_OP_plus_uconst 40, DW_OP_deref] $sp
	@DEBUG_VALUE: mbedtls_des_self_test:verbose <- [DW_OP_plus_uconst 24] [$sp+0]
	@DEBUG_VALUE: mbedtls_des_self_test:ret <- 0
	.loc	1 938 30                        @ ../../../ThirdParty/mbedTLS/library/des.c:938:30
	lsls	r0, r5, #3
	ldr	r1, __arm_cp.20_8
	b	.LBB20_25
.Ltmp416:
.LBB20_24:                              @   in Loop: Header=BB20_2 Depth=1
	@DEBUG_VALUE: mbedtls_des_self_test:v <- $r7
	@DEBUG_VALUE: mbedtls_des_self_test:u <- $r5
	@DEBUG_VALUE: mbedtls_des_self_test:i <- $r4
	@DEBUG_VALUE: mbedtls_des_self_test:buf <- [DW_OP_plus_uconst 40, DW_OP_deref] $sp
	@DEBUG_VALUE: mbedtls_des_self_test:verbose <- [DW_OP_plus_uconst 24] [$sp+0]
	@DEBUG_VALUE: mbedtls_des_self_test:ret <- 0
	.loc	1 940 32                        @ ../../../ThirdParty/mbedTLS/library/des.c:940:32
	lsls	r0, r5, #3
	ldr	r1, __arm_cp.20_7
.Ltmp417:
.LBB20_25:                              @   in Loop: Header=BB20_2 Depth=1
	@DEBUG_VALUE: mbedtls_des_self_test:v <- $r7
	@DEBUG_VALUE: mbedtls_des_self_test:u <- $r5
	@DEBUG_VALUE: mbedtls_des_self_test:i <- $r4
	@DEBUG_VALUE: mbedtls_des_self_test:buf <- [DW_OP_plus_uconst 40, DW_OP_deref] $sp
	@DEBUG_VALUE: mbedtls_des_self_test:verbose <- [DW_OP_plus_uconst 24] [$sp+0]
	@DEBUG_VALUE: mbedtls_des_self_test:ret <- 0
	.loc	1 0 0 is_stmt 0                 @ ../../../ThirdParty/mbedTLS/library/des.c:0:0
	adds	r1, r1, r0
	@DEBUG_VALUE: mbedtls_des_self_test:buf <- [DW_OP_plus_uconst 40, DW_OP_deref] $sp
	add	r0, sp, #40
	movs	r2, #8
	bl	memcmp
.Ltmp418:
	cmp	r0, #0
	beq	.LBB20_26
	b	.LBB20_66
.Ltmp419:
.LBB20_26:                              @   in Loop: Header=BB20_2 Depth=1
	@DEBUG_VALUE: mbedtls_des_self_test:v <- $r7
	@DEBUG_VALUE: mbedtls_des_self_test:u <- $r5
	@DEBUG_VALUE: mbedtls_des_self_test:i <- $r4
	@DEBUG_VALUE: mbedtls_des_self_test:buf <- [DW_OP_plus_uconst 40, DW_OP_deref] $sp
	@DEBUG_VALUE: mbedtls_des_self_test:verbose <- [DW_OP_plus_uconst 24] [$sp+0]
	@DEBUG_VALUE: mbedtls_des_self_test:ret <- 0
	.loc	1 949 13 is_stmt 1              @ ../../../ThirdParty/mbedTLS/library/des.c:949:13
	ldr	r0, [sp, #24]                   @ 4-byte Reload
	cmp	r0, #0
	beq	.LBB20_1
.Ltmp420:
@ %bb.27:                               @   in Loop: Header=BB20_2 Depth=1
	@DEBUG_VALUE: mbedtls_des_self_test:v <- $r7
	@DEBUG_VALUE: mbedtls_des_self_test:u <- $r5
	@DEBUG_VALUE: mbedtls_des_self_test:i <- $r4
	@DEBUG_VALUE: mbedtls_des_self_test:buf <- [DW_OP_plus_uconst 40, DW_OP_deref] $sp
	@DEBUG_VALUE: mbedtls_des_self_test:verbose <- [DW_OP_plus_uconst 24] [$sp+0]
	@DEBUG_VALUE: mbedtls_des_self_test:ret <- 0
	.loc	1 950 13                        @ ../../../ThirdParty/mbedTLS/library/des.c:950:13
	adr	r0, .LCPI20_10
	bl	puts
	b	.LBB20_1
.Ltmp421:
.LBB20_28:
	@DEBUG_VALUE: mbedtls_des_self_test:v <- $r7
	@DEBUG_VALUE: mbedtls_des_self_test:u <- $r5
	@DEBUG_VALUE: mbedtls_des_self_test:i <- $r4
	@DEBUG_VALUE: mbedtls_des_self_test:verbose <- [DW_OP_plus_uconst 24] [$sp+0]
	@DEBUG_VALUE: mbedtls_des_self_test:buf <- 8367815003007840078
	@DEBUG_VALUE: mbedtls_des_self_test:ret <- 0
	.loc	1 0 13 is_stmt 0                @ ../../../ThirdParty/mbedTLS/library/des.c:0:13
	movs	r6, #1
	b	.LBB20_69
.Ltmp422:
.LBB20_29:
	@DEBUG_VALUE: mbedtls_des_self_test:v <- $r7
	@DEBUG_VALUE: mbedtls_des_self_test:u <- $r5
	@DEBUG_VALUE: mbedtls_des_self_test:i <- $r4
	@DEBUG_VALUE: mbedtls_des_self_test:buf <- [DW_OP_plus_uconst 40, DW_OP_deref] $sp
	@DEBUG_VALUE: mbedtls_des_self_test:verbose <- [DW_OP_plus_uconst 24] [$sp+0]
	@DEBUG_VALUE: mbedtls_des_self_test:ret <- 0
	.loc	1 953 9 is_stmt 1               @ ../../../ThirdParty/mbedTLS/library/des.c:953:9
	ldr	r0, [sp, #24]                   @ 4-byte Reload
	cbz	r0, .LBB20_31
.Ltmp423:
@ %bb.30:
	@DEBUG_VALUE: mbedtls_des_self_test:v <- $r7
	@DEBUG_VALUE: mbedtls_des_self_test:u <- $r5
	@DEBUG_VALUE: mbedtls_des_self_test:i <- $r4
	@DEBUG_VALUE: mbedtls_des_self_test:buf <- [DW_OP_plus_uconst 40, DW_OP_deref] $sp
	@DEBUG_VALUE: mbedtls_des_self_test:verbose <- [DW_OP_plus_uconst 24] [$sp+0]
	@DEBUG_VALUE: mbedtls_des_self_test:ret <- 0
	.loc	1 0 9 is_stmt 0                 @ ../../../ThirdParty/mbedTLS/library/des.c:0:9
	movs	r0, #10
.Ltmp424:
	.loc	1 954 9 is_stmt 1               @ ../../../ThirdParty/mbedTLS/library/des.c:954:9
	bl	putchar
.Ltmp425:
.LBB20_31:
	@DEBUG_VALUE: mbedtls_des_self_test:v <- $r7
	@DEBUG_VALUE: mbedtls_des_self_test:u <- $r5
	@DEBUG_VALUE: mbedtls_des_self_test:i <- $r4
	@DEBUG_VALUE: mbedtls_des_self_test:buf <- [DW_OP_plus_uconst 40, DW_OP_deref] $sp
	@DEBUG_VALUE: mbedtls_des_self_test:verbose <- [DW_OP_plus_uconst 24] [$sp+0]
	@DEBUG_VALUE: mbedtls_des_self_test:ret <- 0
	.loc	1 0 9 is_stmt 0                 @ ../../../ThirdParty/mbedTLS/library/des.c:0:9
	movs	r7, #0
.Ltmp426:
	movs	r6, #1
	movs	r0, #8
	str	r0, [sp, #28]                   @ 4-byte Spill
	mov	r4, r7
.Ltmp427:
	str	r6, [sp, #20]                   @ 4-byte Spill
	str	r7, [sp, #8]                    @ 4-byte Spill
	b	.LBB20_33
.Ltmp428:
.LBB20_32:                              @   in Loop: Header=BB20_33 Depth=1
	@DEBUG_VALUE: mbedtls_des_self_test:i <- [DW_OP_plus_uconst 12] [$sp+0]
	@DEBUG_VALUE: mbedtls_des_self_test:u <- $r5
	@DEBUG_VALUE: mbedtls_des_self_test:iv <- [DW_OP_plus_uconst 32, DW_OP_deref] $sp
	@DEBUG_VALUE: mbedtls_des_self_test:v <- [DW_OP_plus_uconst 16] [$sp+0]
	@DEBUG_VALUE: mbedtls_des_self_test:buf <- [DW_OP_plus_uconst 40, DW_OP_deref] $sp
	@DEBUG_VALUE: mbedtls_des_self_test:verbose <- [DW_OP_plus_uconst 24] [$sp+0]
	@DEBUG_VALUE: mbedtls_des_self_test:ret <- 0
	ldr	r4, [sp, #12]                   @ 4-byte Reload
.Ltmp429:
	@DEBUG_VALUE: mbedtls_des_self_test:i <- $r4
	.loc	1 960 25 is_stmt 1              @ ../../../ThirdParty/mbedTLS/library/des.c:960:25
	adds	r4, r4, #1
.Ltmp430:
	@DEBUG_VALUE: mbedtls_des_self_test:i <- $r4
	.loc	1 960 5 is_stmt 0               @ ../../../ThirdParty/mbedTLS/library/des.c:960:5
	cmp	r4, #6
	bne	.LBB20_33
	b	.LBB20_71
.Ltmp431:
.LBB20_33:                              @ =>This Loop Header: Depth=1
                                        @     Child Loop BB20_57 Depth 2
                                        @     Child Loop BB20_53 Depth 2
	@DEBUG_VALUE: mbedtls_des_self_test:u <- $r5
	@DEBUG_VALUE: mbedtls_des_self_test:buf <- [DW_OP_plus_uconst 40, DW_OP_deref] $sp
	@DEBUG_VALUE: mbedtls_des_self_test:verbose <- [DW_OP_plus_uconst 24] [$sp+0]
	@DEBUG_VALUE: mbedtls_des_self_test:ret <- 0
	@DEBUG_VALUE: mbedtls_des_self_test:i <- $r4
	.loc	1 963 16 is_stmt 1              @ ../../../ThirdParty/mbedTLS/library/des.c:963:16
	mov	r0, r4
	ands	r0, r6
.Ltmp432:
	@DEBUG_VALUE: mbedtls_des_self_test:v <- $r0
	.loc	1 0 16 is_stmt 0                @ ../../../ThirdParty/mbedTLS/library/des.c:0:16
	str	r0, [sp, #16]                   @ 4-byte Spill
.Ltmp433:
	@DEBUG_VALUE: mbedtls_des_self_test:v <- [DW_OP_plus_uconst 16] [$sp+0]
	@DEBUG_VALUE: mbedtls_des_self_test:v <- [DW_OP_plus_uconst 16] [$sp+0]
	.loc	1 962 15 is_stmt 1              @ ../../../ThirdParty/mbedTLS/library/des.c:962:15
	lsrs	r5, r4, #1
.Ltmp434:
	@DEBUG_VALUE: mbedtls_des_self_test:u <- $r5
	.loc	1 965 13                        @ ../../../ThirdParty/mbedTLS/library/des.c:965:13
	ldr	r0, [sp, #24]                   @ 4-byte Reload
	cbz	r0, .LBB20_40
.Ltmp435:
@ %bb.34:                               @   in Loop: Header=BB20_33 Depth=1
	@DEBUG_VALUE: mbedtls_des_self_test:u <- $r5
	@DEBUG_VALUE: mbedtls_des_self_test:i <- $r4
	@DEBUG_VALUE: mbedtls_des_self_test:v <- [DW_OP_plus_uconst 16] [$sp+0]
	@DEBUG_VALUE: mbedtls_des_self_test:buf <- [DW_OP_plus_uconst 40, DW_OP_deref] $sp
	@DEBUG_VALUE: mbedtls_des_self_test:verbose <- [DW_OP_plus_uconst 24] [$sp+0]
	@DEBUG_VALUE: mbedtls_des_self_test:ret <- 0
	.loc	1 967 29                        @ ../../../ThirdParty/mbedTLS/library/des.c:967:29
	cbz	r5, .LBB20_36
.Ltmp436:
@ %bb.35:                               @   in Loop: Header=BB20_33 Depth=1
	@DEBUG_VALUE: mbedtls_des_self_test:u <- $r5
	@DEBUG_VALUE: mbedtls_des_self_test:i <- $r4
	@DEBUG_VALUE: mbedtls_des_self_test:v <- [DW_OP_plus_uconst 16] [$sp+0]
	@DEBUG_VALUE: mbedtls_des_self_test:buf <- [DW_OP_plus_uconst 40, DW_OP_deref] $sp
	@DEBUG_VALUE: mbedtls_des_self_test:verbose <- [DW_OP_plus_uconst 24] [$sp+0]
	@DEBUG_VALUE: mbedtls_des_self_test:ret <- 0
	.loc	1 0 29 is_stmt 0                @ ../../../ThirdParty/mbedTLS/library/des.c:0:29
	movs	r1, #51
	b	.LBB20_37
.Ltmp437:
.LBB20_36:                              @   in Loop: Header=BB20_33 Depth=1
	@DEBUG_VALUE: mbedtls_des_self_test:u <- $r5
	@DEBUG_VALUE: mbedtls_des_self_test:i <- $r4
	@DEBUG_VALUE: mbedtls_des_self_test:v <- [DW_OP_plus_uconst 16] [$sp+0]
	@DEBUG_VALUE: mbedtls_des_self_test:buf <- [DW_OP_plus_uconst 40, DW_OP_deref] $sp
	@DEBUG_VALUE: mbedtls_des_self_test:verbose <- [DW_OP_plus_uconst 24] [$sp+0]
	@DEBUG_VALUE: mbedtls_des_self_test:ret <- 0
	movs	r1, #32
.Ltmp438:
.LBB20_37:                              @   in Loop: Header=BB20_33 Depth=1
	@DEBUG_VALUE: mbedtls_des_self_test:u <- $r5
	@DEBUG_VALUE: mbedtls_des_self_test:i <- $r4
	@DEBUG_VALUE: mbedtls_des_self_test:v <- [DW_OP_plus_uconst 16] [$sp+0]
	@DEBUG_VALUE: mbedtls_des_self_test:buf <- [DW_OP_plus_uconst 40, DW_OP_deref] $sp
	@DEBUG_VALUE: mbedtls_des_self_test:verbose <- [DW_OP_plus_uconst 24] [$sp+0]
	@DEBUG_VALUE: mbedtls_des_self_test:ret <- 0
	.loc	1 968 29 is_stmt 1              @ ../../../ThirdParty/mbedTLS/library/des.c:968:29
	ldr	r0, [sp, #16]                   @ 4-byte Reload
	ldr	r3, __arm_cp.20_3
	cbz	r0, .LBB20_39
.Ltmp439:
@ %bb.38:                               @   in Loop: Header=BB20_33 Depth=1
	@DEBUG_VALUE: mbedtls_des_self_test:u <- $r5
	@DEBUG_VALUE: mbedtls_des_self_test:i <- $r4
	@DEBUG_VALUE: mbedtls_des_self_test:v <- [DW_OP_plus_uconst 16] [$sp+0]
	@DEBUG_VALUE: mbedtls_des_self_test:buf <- [DW_OP_plus_uconst 40, DW_OP_deref] $sp
	@DEBUG_VALUE: mbedtls_des_self_test:verbose <- [DW_OP_plus_uconst 24] [$sp+0]
	@DEBUG_VALUE: mbedtls_des_self_test:ret <- 0
	ldr	r3, __arm_cp.20_4
.Ltmp440:
.LBB20_39:                              @   in Loop: Header=BB20_33 Depth=1
	@DEBUG_VALUE: mbedtls_des_self_test:u <- $r5
	@DEBUG_VALUE: mbedtls_des_self_test:i <- $r4
	@DEBUG_VALUE: mbedtls_des_self_test:v <- [DW_OP_plus_uconst 16] [$sp+0]
	@DEBUG_VALUE: mbedtls_des_self_test:buf <- [DW_OP_plus_uconst 40, DW_OP_deref] $sp
	@DEBUG_VALUE: mbedtls_des_self_test:verbose <- [DW_OP_plus_uconst 24] [$sp+0]
	@DEBUG_VALUE: mbedtls_des_self_test:ret <- 0
	.loc	1 0 29 is_stmt 0                @ ../../../ThirdParty/mbedTLS/library/des.c:0:29
	movs	r2, #56
	.loc	1 967 60 is_stmt 1              @ ../../../ThirdParty/mbedTLS/library/des.c:967:60
	muls	r2, r5, r2
	.loc	1 967 56 is_stmt 0              @ ../../../ThirdParty/mbedTLS/library/des.c:967:56
	adds	r2, #56
	.loc	1 966 13 is_stmt 1              @ ../../../ThirdParty/mbedTLS/library/des.c:966:13
	adr	r0, .LCPI20_11
	bl	__2printf
.Ltmp441:
.LBB20_40:                              @   in Loop: Header=BB20_33 Depth=1
	@DEBUG_VALUE: mbedtls_des_self_test:u <- $r5
	@DEBUG_VALUE: mbedtls_des_self_test:i <- $r4
	@DEBUG_VALUE: mbedtls_des_self_test:v <- [DW_OP_plus_uconst 16] [$sp+0]
	@DEBUG_VALUE: mbedtls_des_self_test:buf <- [DW_OP_plus_uconst 40, DW_OP_deref] $sp
	@DEBUG_VALUE: mbedtls_des_self_test:verbose <- [DW_OP_plus_uconst 24] [$sp+0]
	@DEBUG_VALUE: mbedtls_des_self_test:ret <- 0
	@DEBUG_VALUE: mbedtls_des_self_test:buf <- 8367815003007840078
	@DEBUG_VALUE: mbedtls_des_self_test:iv <- -1167088091436534766
	@DEBUG_VALUE: mbedtls_des_self_test:prv <- -1167088091436534766
	.loc	1 972 9                         @ ../../../ThirdParty/mbedTLS/library/des.c:972:9
	ldr	r0, __arm_cp.20_1
	str	r0, [sp, #40]
	.loc	1 970 9                         @ ../../../ThirdParty/mbedTLS/library/des.c:970:9
	ldr	r0, __arm_cp.20_12
	str	r0, [sp, #36]
	ldr	r0, __arm_cp.20_13
	str	r0, [sp, #32]
	.loc	1 972 9                         @ ../../../ThirdParty/mbedTLS/library/des.c:972:9
	ldr	r0, __arm_cp.20_0
	str	r0, [sp, #44]
	.loc	1 974 9                         @ ../../../ThirdParty/mbedTLS/library/des.c:974:9
	cmp	r4, #5
	bls	.LBB20_41
	b	.LBB20_70
.Ltmp442:
.LBB20_41:                              @   in Loop: Header=BB20_33 Depth=1
	@DEBUG_VALUE: mbedtls_des_self_test:u <- $r5
	@DEBUG_VALUE: mbedtls_des_self_test:i <- $r4
	@DEBUG_VALUE: mbedtls_des_self_test:v <- [DW_OP_plus_uconst 16] [$sp+0]
	@DEBUG_VALUE: mbedtls_des_self_test:verbose <- [DW_OP_plus_uconst 24] [$sp+0]
	@DEBUG_VALUE: mbedtls_des_self_test:prv <- -1167088091436534766
	@DEBUG_VALUE: mbedtls_des_self_test:iv <- -1167088091436534766
	@DEBUG_VALUE: mbedtls_des_self_test:buf <- 8367815003007840078
	@DEBUG_VALUE: mbedtls_des_self_test:ret <- 0
	.loc	1 0 9 is_stmt 0                 @ ../../../ThirdParty/mbedTLS/library/des.c:0:9
	lsls	r0, r4, #2
	adr	r1, .LJTI20_1
	adds	r0, r1, r0
	mov	pc, r0
.Ltmp443:
@ %bb.42:
	.p2align	2
.LJTI20_1:
	b.w	.LBB20_43
	b.w	.LBB20_44
	b.w	.LBB20_45
	b.w	.LBB20_46
	b.w	.LBB20_47
	b.w	.LBB20_48
.LBB20_43:                              @   in Loop: Header=BB20_33 Depth=1
.Ltmp444:
	@DEBUG_VALUE: mbedtls_des_self_test:u <- $r5
	@DEBUG_VALUE: mbedtls_des_self_test:i <- $r4
	@DEBUG_VALUE: mbedtls_des_self_test:v <- [DW_OP_plus_uconst 16] [$sp+0]
	@DEBUG_VALUE: mbedtls_des_self_test:verbose <- [DW_OP_plus_uconst 24] [$sp+0]
	@DEBUG_VALUE: mbedtls_des_self_test:prv <- -1167088091436534766
	@DEBUG_VALUE: mbedtls_des_self_test:iv <- -1167088091436534766
	@DEBUG_VALUE: mbedtls_des_self_test:buf <- 8367815003007840078
	@DEBUG_VALUE: mbedtls_des_self_test:ret <- 0
	add	r0, sp, #436
.Ltmp445:
	.loc	1 977 13 is_stmt 1              @ ../../../ThirdParty/mbedTLS/library/des.c:977:13
	ldr	r1, __arm_cp.20_6
	bl	mbedtls_des_setkey_dec
	b	.LBB20_49
.Ltmp446:
.LBB20_44:                              @   in Loop: Header=BB20_33 Depth=1
	@DEBUG_VALUE: mbedtls_des_self_test:u <- $r5
	@DEBUG_VALUE: mbedtls_des_self_test:i <- $r4
	@DEBUG_VALUE: mbedtls_des_self_test:v <- [DW_OP_plus_uconst 16] [$sp+0]
	@DEBUG_VALUE: mbedtls_des_self_test:verbose <- [DW_OP_plus_uconst 24] [$sp+0]
	@DEBUG_VALUE: mbedtls_des_self_test:prv <- -1167088091436534766
	@DEBUG_VALUE: mbedtls_des_self_test:iv <- -1167088091436534766
	@DEBUG_VALUE: mbedtls_des_self_test:buf <- 8367815003007840078
	@DEBUG_VALUE: mbedtls_des_self_test:ret <- 0
	.loc	1 0 13 is_stmt 0                @ ../../../ThirdParty/mbedTLS/library/des.c:0:13
	add	r0, sp, #436
	.loc	1 981 13 is_stmt 1              @ ../../../ThirdParty/mbedTLS/library/des.c:981:13
	ldr	r1, __arm_cp.20_6
	bl	mbedtls_des_setkey_enc
	b	.LBB20_49
.Ltmp447:
.LBB20_45:                              @   in Loop: Header=BB20_33 Depth=1
	@DEBUG_VALUE: mbedtls_des_self_test:u <- $r5
	@DEBUG_VALUE: mbedtls_des_self_test:i <- $r4
	@DEBUG_VALUE: mbedtls_des_self_test:v <- [DW_OP_plus_uconst 16] [$sp+0]
	@DEBUG_VALUE: mbedtls_des_self_test:verbose <- [DW_OP_plus_uconst 24] [$sp+0]
	@DEBUG_VALUE: mbedtls_des_self_test:prv <- -1167088091436534766
	@DEBUG_VALUE: mbedtls_des_self_test:iv <- -1167088091436534766
	@DEBUG_VALUE: mbedtls_des_self_test:buf <- 8367815003007840078
	@DEBUG_VALUE: mbedtls_des_self_test:ret <- 0
	.loc	1 0 13 is_stmt 0                @ ../../../ThirdParty/mbedTLS/library/des.c:0:13
	add	r0, sp, #52
	.loc	1 985 13 is_stmt 1              @ ../../../ThirdParty/mbedTLS/library/des.c:985:13
	ldr	r1, __arm_cp.20_6
	bl	mbedtls_des3_set2key_dec
	b	.LBB20_49
.Ltmp448:
.LBB20_46:                              @   in Loop: Header=BB20_33 Depth=1
	@DEBUG_VALUE: mbedtls_des_self_test:u <- $r5
	@DEBUG_VALUE: mbedtls_des_self_test:i <- $r4
	@DEBUG_VALUE: mbedtls_des_self_test:v <- [DW_OP_plus_uconst 16] [$sp+0]
	@DEBUG_VALUE: mbedtls_des_self_test:verbose <- [DW_OP_plus_uconst 24] [$sp+0]
	@DEBUG_VALUE: mbedtls_des_self_test:prv <- -1167088091436534766
	@DEBUG_VALUE: mbedtls_des_self_test:iv <- -1167088091436534766
	@DEBUG_VALUE: mbedtls_des_self_test:buf <- 8367815003007840078
	@DEBUG_VALUE: mbedtls_des_self_test:ret <- 0
	.loc	1 0 13 is_stmt 0                @ ../../../ThirdParty/mbedTLS/library/des.c:0:13
	add	r0, sp, #52
	.loc	1 989 13 is_stmt 1              @ ../../../ThirdParty/mbedTLS/library/des.c:989:13
	ldr	r1, __arm_cp.20_6
	bl	mbedtls_des3_set2key_enc
	b	.LBB20_49
.Ltmp449:
.LBB20_47:                              @   in Loop: Header=BB20_33 Depth=1
	@DEBUG_VALUE: mbedtls_des_self_test:u <- $r5
	@DEBUG_VALUE: mbedtls_des_self_test:i <- $r4
	@DEBUG_VALUE: mbedtls_des_self_test:v <- [DW_OP_plus_uconst 16] [$sp+0]
	@DEBUG_VALUE: mbedtls_des_self_test:verbose <- [DW_OP_plus_uconst 24] [$sp+0]
	@DEBUG_VALUE: mbedtls_des_self_test:prv <- -1167088091436534766
	@DEBUG_VALUE: mbedtls_des_self_test:iv <- -1167088091436534766
	@DEBUG_VALUE: mbedtls_des_self_test:buf <- 8367815003007840078
	@DEBUG_VALUE: mbedtls_des_self_test:ret <- 0
	.loc	1 0 13 is_stmt 0                @ ../../../ThirdParty/mbedTLS/library/des.c:0:13
	add	r0, sp, #52
	.loc	1 993 13 is_stmt 1              @ ../../../ThirdParty/mbedTLS/library/des.c:993:13
	ldr	r1, __arm_cp.20_6
	bl	mbedtls_des3_set3key_dec
	b	.LBB20_49
.Ltmp450:
.LBB20_48:                              @   in Loop: Header=BB20_33 Depth=1
	@DEBUG_VALUE: mbedtls_des_self_test:u <- $r5
	@DEBUG_VALUE: mbedtls_des_self_test:i <- $r4
	@DEBUG_VALUE: mbedtls_des_self_test:v <- [DW_OP_plus_uconst 16] [$sp+0]
	@DEBUG_VALUE: mbedtls_des_self_test:verbose <- [DW_OP_plus_uconst 24] [$sp+0]
	@DEBUG_VALUE: mbedtls_des_self_test:prv <- -1167088091436534766
	@DEBUG_VALUE: mbedtls_des_self_test:iv <- -1167088091436534766
	@DEBUG_VALUE: mbedtls_des_self_test:buf <- 8367815003007840078
	@DEBUG_VALUE: mbedtls_des_self_test:ret <- 0
	.loc	1 0 13 is_stmt 0                @ ../../../ThirdParty/mbedTLS/library/des.c:0:13
	add	r0, sp, #52
	.loc	1 997 13 is_stmt 1              @ ../../../ThirdParty/mbedTLS/library/des.c:997:13
	ldr	r1, __arm_cp.20_6
	bl	mbedtls_des3_set3key_enc
.Ltmp451:
.LBB20_49:                              @   in Loop: Header=BB20_33 Depth=1
	@DEBUG_VALUE: mbedtls_des_self_test:u <- $r5
	@DEBUG_VALUE: mbedtls_des_self_test:i <- $r4
	@DEBUG_VALUE: mbedtls_des_self_test:v <- [DW_OP_plus_uconst 16] [$sp+0]
	@DEBUG_VALUE: mbedtls_des_self_test:verbose <- [DW_OP_plus_uconst 24] [$sp+0]
	@DEBUG_VALUE: mbedtls_des_self_test:prv <- -1167088091436534766
	@DEBUG_VALUE: mbedtls_des_self_test:iv <- -1167088091436534766
	@DEBUG_VALUE: mbedtls_des_self_test:buf <- 8367815003007840078
	@DEBUG_VALUE: mbedtls_des_self_test:ret <- 0
	.loc	1 0 13 is_stmt 0                @ ../../../ThirdParty/mbedTLS/library/des.c:0:13
	str	r4, [sp, #12]                   @ 4-byte Spill
.Ltmp452:
	@DEBUG_VALUE: mbedtls_des_self_test:i <- [DW_OP_plus_uconst 12] [$sp+0]
	.loc	1 1004 13 is_stmt 1             @ ../../../ThirdParty/mbedTLS/library/des.c:1004:13
	ldr	r0, [sp, #16]                   @ 4-byte Reload
	ldr	r4, __arm_cp.20_2
	cbz	r0, .LBB20_53
.Ltmp453:
@ %bb.50:                               @   in Loop: Header=BB20_33 Depth=1
	@DEBUG_VALUE: mbedtls_des_self_test:i <- [DW_OP_plus_uconst 12] [$sp+0]
	@DEBUG_VALUE: mbedtls_des_self_test:u <- $r5
	@DEBUG_VALUE: mbedtls_des_self_test:v <- [DW_OP_plus_uconst 16] [$sp+0]
	@DEBUG_VALUE: mbedtls_des_self_test:verbose <- [DW_OP_plus_uconst 24] [$sp+0]
	@DEBUG_VALUE: mbedtls_des_self_test:prv <- -1167088091436534766
	@DEBUG_VALUE: mbedtls_des_self_test:iv <- -1167088091436534766
	@DEBUG_VALUE: mbedtls_des_self_test:buf <- 8367815003007840078
	@DEBUG_VALUE: mbedtls_des_self_test:ret <- 0
	.loc	1 0 13 is_stmt 0                @ ../../../ThirdParty/mbedTLS/library/des.c:0:13
	ldr	r6, __arm_cp.20_13
	ldr	r7, __arm_cp.20_12
	b	.LBB20_57
.Ltmp454:
.LBB20_51:                              @   in Loop: Header=BB20_53 Depth=2
	@DEBUG_VALUE: mbedtls_des_self_test:i <- [DW_OP_plus_uconst 12] [$sp+0]
	@DEBUG_VALUE: mbedtls_des_self_test:u <- $r5
	@DEBUG_VALUE: mbedtls_des_self_test:iv <- [DW_OP_plus_uconst 32, DW_OP_deref] $sp
	@DEBUG_VALUE: mbedtls_des_self_test:v <- [DW_OP_plus_uconst 16] [$sp+0]
	@DEBUG_VALUE: mbedtls_des_self_test:buf <- [DW_OP_plus_uconst 40, DW_OP_deref] $sp
	@DEBUG_VALUE: mbedtls_des_self_test:verbose <- [DW_OP_plus_uconst 24] [$sp+0]
	@DEBUG_VALUE: mbedtls_des_self_test:prv <- -1167088091436534766
	@DEBUG_VALUE: mbedtls_des_self_test:ret <- 0
	add	r0, sp, #40
.Ltmp455:
	.loc	1 1011 21 is_stmt 1             @ ../../../ThirdParty/mbedTLS/library/des.c:1011:21
	str	r0, [sp]
	str	r0, [sp, #4]
	add	r0, sp, #52
	add	r3, sp, #32
	mov	r1, r7
	ldr	r2, [sp, #28]                   @ 4-byte Reload
	bl	mbedtls_des3_crypt_cbc
.Ltmp456:
.LBB20_52:                              @   in Loop: Header=BB20_53 Depth=2
	@DEBUG_VALUE: mbedtls_des_self_test:i <- [DW_OP_plus_uconst 12] [$sp+0]
	@DEBUG_VALUE: mbedtls_des_self_test:u <- $r5
	@DEBUG_VALUE: mbedtls_des_self_test:iv <- [DW_OP_plus_uconst 32, DW_OP_deref] $sp
	@DEBUG_VALUE: mbedtls_des_self_test:v <- [DW_OP_plus_uconst 16] [$sp+0]
	@DEBUG_VALUE: mbedtls_des_self_test:buf <- [DW_OP_plus_uconst 40, DW_OP_deref] $sp
	@DEBUG_VALUE: mbedtls_des_self_test:verbose <- [DW_OP_plus_uconst 24] [$sp+0]
	@DEBUG_VALUE: mbedtls_des_self_test:prv <- -1167088091436534766
	@DEBUG_VALUE: mbedtls_des_self_test:ret <- 0
	@DEBUG_VALUE: mbedtls_des_self_test:j <- [DW_OP_plus_uconst 1, DW_OP_stack_value] undef
	.loc	1 1006 27                       @ ../../../ThirdParty/mbedTLS/library/des.c:1006:27
	subs	r4, r4, #1
.Ltmp457:
	.loc	1 1006 13 is_stmt 0             @ ../../../ThirdParty/mbedTLS/library/des.c:1006:13
	beq	.LBB20_60
.Ltmp458:
.LBB20_53:                              @   Parent Loop BB20_33 Depth=1
                                        @ =>  This Inner Loop Header: Depth=2
	@DEBUG_VALUE: mbedtls_des_self_test:i <- [DW_OP_plus_uconst 12] [$sp+0]
	@DEBUG_VALUE: mbedtls_des_self_test:u <- $r5
	@DEBUG_VALUE: mbedtls_des_self_test:v <- [DW_OP_plus_uconst 16] [$sp+0]
	@DEBUG_VALUE: mbedtls_des_self_test:verbose <- [DW_OP_plus_uconst 24] [$sp+0]
	@DEBUG_VALUE: mbedtls_des_self_test:prv <- -1167088091436534766
	@DEBUG_VALUE: mbedtls_des_self_test:ret <- 0
	@DEBUG_VALUE: mbedtls_des_self_test:buf <- [DW_OP_plus_uconst 40, DW_OP_deref] $sp
	@DEBUG_VALUE: mbedtls_des_self_test:j <- undef
	@DEBUG_VALUE: mbedtls_des_self_test:iv <- [DW_OP_plus_uconst 32, DW_OP_deref] $sp
	.loc	1 1008 21 is_stmt 1             @ ../../../ThirdParty/mbedTLS/library/des.c:1008:21
	cmp	r5, #0
	bne	.LBB20_51
.Ltmp459:
@ %bb.54:                               @   in Loop: Header=BB20_53 Depth=2
	@DEBUG_VALUE: mbedtls_des_self_test:i <- [DW_OP_plus_uconst 12] [$sp+0]
	@DEBUG_VALUE: mbedtls_des_self_test:u <- $r5
	@DEBUG_VALUE: mbedtls_des_self_test:iv <- [DW_OP_plus_uconst 32, DW_OP_deref] $sp
	@DEBUG_VALUE: mbedtls_des_self_test:v <- [DW_OP_plus_uconst 16] [$sp+0]
	@DEBUG_VALUE: mbedtls_des_self_test:buf <- [DW_OP_plus_uconst 40, DW_OP_deref] $sp
	@DEBUG_VALUE: mbedtls_des_self_test:verbose <- [DW_OP_plus_uconst 24] [$sp+0]
	@DEBUG_VALUE: mbedtls_des_self_test:prv <- -1167088091436534766
	@DEBUG_VALUE: mbedtls_des_self_test:ret <- 0
	.loc	1 0 21 is_stmt 0                @ ../../../ThirdParty/mbedTLS/library/des.c:0:21
	add	r0, sp, #40
.Ltmp460:
	.loc	1 1009 21 is_stmt 1             @ ../../../ThirdParty/mbedTLS/library/des.c:1009:21
	str	r0, [sp]
	str	r0, [sp, #4]
	add	r0, sp, #436
	add	r3, sp, #32
	mov	r1, r7
	ldr	r2, [sp, #28]                   @ 4-byte Reload
	bl	mbedtls_des_crypt_cbc
	b	.LBB20_52
.Ltmp461:
.LBB20_55:                              @   in Loop: Header=BB20_57 Depth=2
	@DEBUG_VALUE: mbedtls_des_self_test:i <- [DW_OP_plus_uconst 12] [$sp+0]
	@DEBUG_VALUE: mbedtls_des_self_test:u <- $r5
	@DEBUG_VALUE: mbedtls_des_self_test:iv <- [DW_OP_plus_uconst 32, DW_OP_deref] $sp
	@DEBUG_VALUE: mbedtls_des_self_test:v <- [DW_OP_plus_uconst 16] [$sp+0]
	@DEBUG_VALUE: mbedtls_des_self_test:buf <- [DW_OP_plus_uconst 40, DW_OP_deref] $sp
	@DEBUG_VALUE: mbedtls_des_self_test:verbose <- [DW_OP_plus_uconst 24] [$sp+0]
	@DEBUG_VALUE: mbedtls_des_self_test:ret <- 0
	.loc	1 0 21 is_stmt 0                @ ../../../ThirdParty/mbedTLS/library/des.c:0:21
	add	r0, sp, #40
.Ltmp462:
	.loc	1 1023 21 is_stmt 1             @ ../../../ThirdParty/mbedTLS/library/des.c:1023:21
	str	r0, [sp]
	str	r0, [sp, #4]
	add	r0, sp, #52
	movs	r1, #1
	movs	r2, #8
	add	r3, sp, #32
	bl	mbedtls_des3_crypt_cbc
.Ltmp463:
.LBB20_56:                              @   in Loop: Header=BB20_57 Depth=2
	@DEBUG_VALUE: mbedtls_des_self_test:i <- [DW_OP_plus_uconst 12] [$sp+0]
	@DEBUG_VALUE: mbedtls_des_self_test:u <- $r5
	@DEBUG_VALUE: mbedtls_des_self_test:iv <- [DW_OP_plus_uconst 32, DW_OP_deref] $sp
	@DEBUG_VALUE: mbedtls_des_self_test:v <- [DW_OP_plus_uconst 16] [$sp+0]
	@DEBUG_VALUE: mbedtls_des_self_test:buf <- [DW_OP_plus_uconst 40, DW_OP_deref] $sp
	@DEBUG_VALUE: mbedtls_des_self_test:verbose <- [DW_OP_plus_uconst 24] [$sp+0]
	@DEBUG_VALUE: mbedtls_des_self_test:ret <- 0
	@DEBUG_VALUE: tmp <- undef
	.loc	1 1026 17                       @ ../../../ThirdParty/mbedTLS/library/des.c:1026:17
	ldr	r0, [sp, #40]
.Ltmp464:
	@DEBUG_VALUE: mbedtls_des_self_test:prv <- [DW_OP_LLVM_fragment 0 32] $r0
	@DEBUG_VALUE: mbedtls_des_self_test:buf <- undef
	.loc	1 1027 17                       @ ../../../ThirdParty/mbedTLS/library/des.c:1027:17
	str	r6, [sp, #40]
	.loc	1 1026 17                       @ ../../../ThirdParty/mbedTLS/library/des.c:1026:17
	ldr	r1, [sp, #44]
.Ltmp465:
	@DEBUG_VALUE: mbedtls_des_self_test:prv <- [DW_OP_LLVM_fragment 32 32] $r1
	.loc	1 1027 17                       @ ../../../ThirdParty/mbedTLS/library/des.c:1027:17
	str	r7, [sp, #44]
.Ltmp466:
	@DEBUG_VALUE: mbedtls_des_self_test:j <- [DW_OP_plus_uconst 1, DW_OP_stack_value] undef
	.loc	1 1016 27                       @ ../../../ThirdParty/mbedTLS/library/des.c:1016:27
	subs	r4, r4, #1
	mov	r6, r0
	mov	r7, r1
.Ltmp467:
	.loc	1 1016 13 is_stmt 0             @ ../../../ThirdParty/mbedTLS/library/des.c:1016:13
	beq	.LBB20_59
.Ltmp468:
.LBB20_57:                              @   Parent Loop BB20_33 Depth=1
                                        @ =>  This Inner Loop Header: Depth=2
	@DEBUG_VALUE: mbedtls_des_self_test:i <- [DW_OP_plus_uconst 12] [$sp+0]
	@DEBUG_VALUE: mbedtls_des_self_test:u <- $r5
	@DEBUG_VALUE: mbedtls_des_self_test:v <- [DW_OP_plus_uconst 16] [$sp+0]
	@DEBUG_VALUE: mbedtls_des_self_test:verbose <- [DW_OP_plus_uconst 24] [$sp+0]
	@DEBUG_VALUE: mbedtls_des_self_test:ret <- 0
	@DEBUG_VALUE: mbedtls_des_self_test:buf <- [DW_OP_plus_uconst 40, DW_OP_deref] $sp
	@DEBUG_VALUE: mbedtls_des_self_test:j <- undef
	@DEBUG_VALUE: mbedtls_des_self_test:iv <- [DW_OP_plus_uconst 32, DW_OP_deref] $sp
	@DEBUG_VALUE: mbedtls_des_self_test:prv <- undef
	.loc	1 1020 21 is_stmt 1             @ ../../../ThirdParty/mbedTLS/library/des.c:1020:21
	cmp	r5, #0
	bne	.LBB20_55
.Ltmp469:
@ %bb.58:                               @   in Loop: Header=BB20_57 Depth=2
	@DEBUG_VALUE: mbedtls_des_self_test:i <- [DW_OP_plus_uconst 12] [$sp+0]
	@DEBUG_VALUE: mbedtls_des_self_test:u <- $r5
	@DEBUG_VALUE: mbedtls_des_self_test:iv <- [DW_OP_plus_uconst 32, DW_OP_deref] $sp
	@DEBUG_VALUE: mbedtls_des_self_test:v <- [DW_OP_plus_uconst 16] [$sp+0]
	@DEBUG_VALUE: mbedtls_des_self_test:buf <- [DW_OP_plus_uconst 40, DW_OP_deref] $sp
	@DEBUG_VALUE: mbedtls_des_self_test:verbose <- [DW_OP_plus_uconst 24] [$sp+0]
	@DEBUG_VALUE: mbedtls_des_self_test:ret <- 0
	.loc	1 0 21 is_stmt 0                @ ../../../ThirdParty/mbedTLS/library/des.c:0:21
	add	r0, sp, #40
.Ltmp470:
	.loc	1 1021 21 is_stmt 1             @ ../../../ThirdParty/mbedTLS/library/des.c:1021:21
	str	r0, [sp]
	str	r0, [sp, #4]
	add	r0, sp, #436
	movs	r1, #1
	movs	r2, #8
	add	r3, sp, #32
	bl	mbedtls_des_crypt_cbc
	b	.LBB20_56
.Ltmp471:
.LBB20_59:                              @   in Loop: Header=BB20_33 Depth=1
	@DEBUG_VALUE: mbedtls_des_self_test:i <- [DW_OP_plus_uconst 12] [$sp+0]
	@DEBUG_VALUE: mbedtls_des_self_test:u <- $r5
	@DEBUG_VALUE: mbedtls_des_self_test:prv <- [DW_OP_LLVM_fragment 32 32] $r1
	@DEBUG_VALUE: mbedtls_des_self_test:prv <- [DW_OP_LLVM_fragment 0 32] $r0
	@DEBUG_VALUE: mbedtls_des_self_test:iv <- [DW_OP_plus_uconst 32, DW_OP_deref] $sp
	@DEBUG_VALUE: mbedtls_des_self_test:v <- [DW_OP_plus_uconst 16] [$sp+0]
	@DEBUG_VALUE: mbedtls_des_self_test:verbose <- [DW_OP_plus_uconst 24] [$sp+0]
	@DEBUG_VALUE: mbedtls_des_self_test:ret <- 0
	@DEBUG_VALUE: mbedtls_des_self_test:prv <- [DW_OP_LLVM_fragment 0 32] $r0
	@DEBUG_VALUE: mbedtls_des_self_test:prv <- [DW_OP_LLVM_fragment 32 32] $r1
	@DEBUG_VALUE: mbedtls_des_self_test:buf <- [DW_OP_LLVM_fragment 0 32] $r0
	@DEBUG_VALUE: mbedtls_des_self_test:buf <- [DW_OP_LLVM_fragment 32 32] $r1
	.loc	1 1030 13                       @ ../../../ThirdParty/mbedTLS/library/des.c:1030:13
	str	r0, [sp, #40]
	str	r1, [sp, #44]
	ldr	r6, [sp, #20]                   @ 4-byte Reload
	ldr	r7, [sp, #8]                    @ 4-byte Reload
.Ltmp472:
.LBB20_60:                              @   in Loop: Header=BB20_33 Depth=1
	@DEBUG_VALUE: mbedtls_des_self_test:i <- [DW_OP_plus_uconst 12] [$sp+0]
	@DEBUG_VALUE: mbedtls_des_self_test:u <- $r5
	@DEBUG_VALUE: mbedtls_des_self_test:iv <- [DW_OP_plus_uconst 32, DW_OP_deref] $sp
	@DEBUG_VALUE: mbedtls_des_self_test:v <- [DW_OP_plus_uconst 16] [$sp+0]
	@DEBUG_VALUE: mbedtls_des_self_test:verbose <- [DW_OP_plus_uconst 24] [$sp+0]
	@DEBUG_VALUE: mbedtls_des_self_test:ret <- 0
	.loc	1 1033 40                       @ ../../../ThirdParty/mbedTLS/library/des.c:1033:40
	ldr	r0, [sp, #16]                   @ 4-byte Reload
	cbnz	r0, .LBB20_63
.Ltmp473:
@ %bb.61:                               @   in Loop: Header=BB20_33 Depth=1
	@DEBUG_VALUE: mbedtls_des_self_test:i <- [DW_OP_plus_uconst 12] [$sp+0]
	@DEBUG_VALUE: mbedtls_des_self_test:u <- $r5
	@DEBUG_VALUE: mbedtls_des_self_test:iv <- [DW_OP_plus_uconst 32, DW_OP_deref] $sp
	@DEBUG_VALUE: mbedtls_des_self_test:v <- [DW_OP_plus_uconst 16] [$sp+0]
	@DEBUG_VALUE: mbedtls_des_self_test:verbose <- [DW_OP_plus_uconst 24] [$sp+0]
	@DEBUG_VALUE: mbedtls_des_self_test:ret <- 0
	.loc	1 1034 30                       @ ../../../ThirdParty/mbedTLS/library/des.c:1034:30
	lsls	r0, r5, #3
	ldr	r1, __arm_cp.20_14
	adds	r1, r1, r0
.Ltmp474:
	@DEBUG_VALUE: mbedtls_des_self_test:buf <- [DW_OP_plus_uconst 40, DW_OP_deref] $sp
	.loc	1 0 30 is_stmt 0                @ ../../../ThirdParty/mbedTLS/library/des.c:0:30
	add	r0, sp, #40
	.loc	1 1034 17                       @ ../../../ThirdParty/mbedTLS/library/des.c:1034:17
	ldr	r2, [sp, #28]                   @ 4-byte Reload
	bl	memcmp
	.loc	1 1034 63                       @ ../../../ThirdParty/mbedTLS/library/des.c:1034:63
	cbnz	r0, .LBB20_66
.Ltmp475:
@ %bb.62:                               @   in Loop: Header=BB20_33 Depth=1
	@DEBUG_VALUE: mbedtls_des_self_test:i <- [DW_OP_plus_uconst 12] [$sp+0]
	@DEBUG_VALUE: mbedtls_des_self_test:u <- $r5
	@DEBUG_VALUE: mbedtls_des_self_test:iv <- [DW_OP_plus_uconst 32, DW_OP_deref] $sp
	@DEBUG_VALUE: mbedtls_des_self_test:v <- [DW_OP_plus_uconst 16] [$sp+0]
	@DEBUG_VALUE: mbedtls_des_self_test:buf <- [DW_OP_plus_uconst 40, DW_OP_deref] $sp
	@DEBUG_VALUE: mbedtls_des_self_test:verbose <- [DW_OP_plus_uconst 24] [$sp+0]
	@DEBUG_VALUE: mbedtls_des_self_test:ret <- 0
	.loc	1 1035 44 is_stmt 1             @ ../../../ThirdParty/mbedTLS/library/des.c:1035:44
	ldr	r0, [sp, #16]                   @ 4-byte Reload
	cbz	r0, .LBB20_64
.Ltmp476:
.LBB20_63:                              @   in Loop: Header=BB20_33 Depth=1
	@DEBUG_VALUE: mbedtls_des_self_test:i <- [DW_OP_plus_uconst 12] [$sp+0]
	@DEBUG_VALUE: mbedtls_des_self_test:u <- $r5
	@DEBUG_VALUE: mbedtls_des_self_test:iv <- [DW_OP_plus_uconst 32, DW_OP_deref] $sp
	@DEBUG_VALUE: mbedtls_des_self_test:v <- [DW_OP_plus_uconst 16] [$sp+0]
	@DEBUG_VALUE: mbedtls_des_self_test:verbose <- [DW_OP_plus_uconst 24] [$sp+0]
	@DEBUG_VALUE: mbedtls_des_self_test:ret <- 0
	.loc	1 1036 32                       @ ../../../ThirdParty/mbedTLS/library/des.c:1036:32
	lsls	r0, r5, #3
	ldr	r1, __arm_cp.20_15
	adds	r1, r1, r0
.Ltmp477:
	@DEBUG_VALUE: mbedtls_des_self_test:buf <- [DW_OP_plus_uconst 40, DW_OP_deref] $sp
	.loc	1 0 32 is_stmt 0                @ ../../../ThirdParty/mbedTLS/library/des.c:0:32
	add	r0, sp, #40
	movs	r2, #8
	.loc	1 1036 19                       @ ../../../ThirdParty/mbedTLS/library/des.c:1036:19
	bl	memcmp
.Ltmp478:
	.loc	1 1033 13 is_stmt 1             @ ../../../ThirdParty/mbedTLS/library/des.c:1033:13
	cbnz	r0, .LBB20_66
.Ltmp479:
.LBB20_64:                              @   in Loop: Header=BB20_33 Depth=1
	@DEBUG_VALUE: mbedtls_des_self_test:i <- [DW_OP_plus_uconst 12] [$sp+0]
	@DEBUG_VALUE: mbedtls_des_self_test:u <- $r5
	@DEBUG_VALUE: mbedtls_des_self_test:iv <- [DW_OP_plus_uconst 32, DW_OP_deref] $sp
	@DEBUG_VALUE: mbedtls_des_self_test:v <- [DW_OP_plus_uconst 16] [$sp+0]
	@DEBUG_VALUE: mbedtls_des_self_test:buf <- [DW_OP_plus_uconst 40, DW_OP_deref] $sp
	@DEBUG_VALUE: mbedtls_des_self_test:verbose <- [DW_OP_plus_uconst 24] [$sp+0]
	@DEBUG_VALUE: mbedtls_des_self_test:ret <- 0
	.loc	1 1045 13                       @ ../../../ThirdParty/mbedTLS/library/des.c:1045:13
	ldr	r0, [sp, #24]                   @ 4-byte Reload
	cmp	r0, #0
	bne	.LBB20_65
	b	.LBB20_32
.Ltmp480:
.LBB20_65:                              @   in Loop: Header=BB20_33 Depth=1
	@DEBUG_VALUE: mbedtls_des_self_test:i <- [DW_OP_plus_uconst 12] [$sp+0]
	@DEBUG_VALUE: mbedtls_des_self_test:u <- $r5
	@DEBUG_VALUE: mbedtls_des_self_test:iv <- [DW_OP_plus_uconst 32, DW_OP_deref] $sp
	@DEBUG_VALUE: mbedtls_des_self_test:v <- [DW_OP_plus_uconst 16] [$sp+0]
	@DEBUG_VALUE: mbedtls_des_self_test:buf <- [DW_OP_plus_uconst 40, DW_OP_deref] $sp
	@DEBUG_VALUE: mbedtls_des_self_test:verbose <- [DW_OP_plus_uconst 24] [$sp+0]
	@DEBUG_VALUE: mbedtls_des_self_test:ret <- 0
	.loc	1 1046 13                       @ ../../../ThirdParty/mbedTLS/library/des.c:1046:13
	adr	r0, .LCPI20_10
	bl	puts
	b	.LBB20_32
.Ltmp481:
.LBB20_66:
	@DEBUG_VALUE: mbedtls_des_self_test:u <- $r5
	@DEBUG_VALUE: mbedtls_des_self_test:buf <- [DW_OP_plus_uconst 40, DW_OP_deref] $sp
	@DEBUG_VALUE: mbedtls_des_self_test:verbose <- [DW_OP_plus_uconst 24] [$sp+0]
	@DEBUG_VALUE: mbedtls_des_self_test:ret <- 0
	.loc	1 0 0 is_stmt 0                 @ ../../../ThirdParty/mbedTLS/library/des.c:0:0
	ldr	r0, [sp, #24]                   @ 4-byte Reload
	cbz	r0, .LBB20_68
.Ltmp482:
@ %bb.67:
	@DEBUG_VALUE: mbedtls_des_self_test:u <- $r5
	@DEBUG_VALUE: mbedtls_des_self_test:buf <- [DW_OP_plus_uconst 40, DW_OP_deref] $sp
	@DEBUG_VALUE: mbedtls_des_self_test:verbose <- [DW_OP_plus_uconst 24] [$sp+0]
	@DEBUG_VALUE: mbedtls_des_self_test:ret <- 0
	adr	r0, .LCPI20_9
	bl	puts
.Ltmp483:
.LBB20_68:
	@DEBUG_VALUE: mbedtls_des_self_test:u <- $r5
	@DEBUG_VALUE: mbedtls_des_self_test:buf <- [DW_OP_plus_uconst 40, DW_OP_deref] $sp
	@DEBUG_VALUE: mbedtls_des_self_test:verbose <- [DW_OP_plus_uconst 24] [$sp+0]
	@DEBUG_VALUE: mbedtls_des_self_test:ret <- 0
	@DEBUG_VALUE: mbedtls_des_self_test:ret <- $r6
	@DEBUG_LABEL: mbedtls_des_self_test:exit
	add	r0, sp, #436
	.loc	1 1054 5 is_stmt 1              @ ../../../ThirdParty/mbedTLS/library/des.c:1054:5
	bl	mbedtls_des_free
	add	r0, sp, #52
	.loc	1 1055 5                        @ ../../../ThirdParty/mbedTLS/library/des.c:1055:5
	bl	mbedtls_des3_free
.Ltmp484:
.LBB20_69:
	@DEBUG_VALUE: mbedtls_des_self_test:u <- $r5
	@DEBUG_VALUE: mbedtls_des_self_test:verbose <- [DW_OP_plus_uconst 24] [$sp+0]
	.loc	1 1058 1                        @ ../../../ThirdParty/mbedTLS/library/des.c:1058:1
	mov	r0, r6
	add	sp, #508
.Ltmp485:
	add	sp, #56
	pop	{r4, r5, r6, r7, pc}
.Ltmp486:
.LBB20_70:
	@DEBUG_VALUE: mbedtls_des_self_test:u <- $r5
	@DEBUG_VALUE: mbedtls_des_self_test:i <- $r4
	@DEBUG_VALUE: mbedtls_des_self_test:v <- [DW_OP_plus_uconst 16] [$sp+0]
	@DEBUG_VALUE: mbedtls_des_self_test:verbose <- [DW_OP_plus_uconst 24] [$sp+0]
	@DEBUG_VALUE: mbedtls_des_self_test:prv <- -1167088091436534766
	@DEBUG_VALUE: mbedtls_des_self_test:iv <- -1167088091436534766
	@DEBUG_VALUE: mbedtls_des_self_test:buf <- 8367815003007840078
	@DEBUG_VALUE: mbedtls_des_self_test:ret <- 0
	.loc	1 0 1 is_stmt 0                 @ ../../../ThirdParty/mbedTLS/library/des.c:0:1
	movs	r6, #1
	.loc	1 1058 1                        @ ../../../ThirdParty/mbedTLS/library/des.c:1058:1
	b	.LBB20_69
.Ltmp487:
.LBB20_71:
	@DEBUG_VALUE: mbedtls_des_self_test:u <- $r5
	@DEBUG_VALUE: mbedtls_des_self_test:i <- $r4
	@DEBUG_VALUE: mbedtls_des_self_test:iv <- [DW_OP_plus_uconst 32, DW_OP_deref] $sp
	@DEBUG_VALUE: mbedtls_des_self_test:v <- [DW_OP_plus_uconst 16] [$sp+0]
	@DEBUG_VALUE: mbedtls_des_self_test:buf <- [DW_OP_plus_uconst 40, DW_OP_deref] $sp
	@DEBUG_VALUE: mbedtls_des_self_test:verbose <- [DW_OP_plus_uconst 24] [$sp+0]
	@DEBUG_VALUE: mbedtls_des_self_test:ret <- 0
	.loc	1 0 1                           @ ../../../ThirdParty/mbedTLS/library/des.c:0:1
	movs	r6, #0
	.loc	1 1050 9 is_stmt 1              @ ../../../ThirdParty/mbedTLS/library/des.c:1050:9
	ldr	r0, [sp, #24]                   @ 4-byte Reload
	cmp	r0, #0
	beq	.LBB20_68
.Ltmp488:
@ %bb.72:
	@DEBUG_VALUE: mbedtls_des_self_test:u <- $r5
	@DEBUG_VALUE: mbedtls_des_self_test:i <- $r4
	@DEBUG_VALUE: mbedtls_des_self_test:iv <- [DW_OP_plus_uconst 32, DW_OP_deref] $sp
	@DEBUG_VALUE: mbedtls_des_self_test:v <- [DW_OP_plus_uconst 16] [$sp+0]
	@DEBUG_VALUE: mbedtls_des_self_test:buf <- [DW_OP_plus_uconst 40, DW_OP_deref] $sp
	@DEBUG_VALUE: mbedtls_des_self_test:verbose <- [DW_OP_plus_uconst 24] [$sp+0]
	@DEBUG_VALUE: mbedtls_des_self_test:ret <- 0
	.loc	1 0 9 is_stmt 0                 @ ../../../ThirdParty/mbedTLS/library/des.c:0:9
	movs	r0, #10
.Ltmp489:
	.loc	1 1051 9 is_stmt 1              @ ../../../ThirdParty/mbedTLS/library/des.c:1051:9
	bl	putchar
	b	.LBB20_68
.Ltmp490:
	.p2align	2
@ %bb.73:
	.loc	1 0 9 is_stmt 0                 @ ../../../ThirdParty/mbedTLS/library/des.c:0:9
__arm_cp.20_0:
	.long	1948283753                      @ 0x74207369
.Lcpi_end34:
	.size	__arm_cp.20_0, .Lcpi_end34-__arm_cp.20_0
__arm_cp.20_1:
	.long	544698190                       @ 0x20776f4e
.Lcpi_end35:
	.size	__arm_cp.20_1, .Lcpi_end35-__arm_cp.20_1
__arm_cp.20_2:
	.long	10000                           @ 0x2710
.Lcpi_end36:
	.size	__arm_cp.20_2, .Lcpi_end36-__arm_cp.20_2
__arm_cp.20_3:
	.long	.L.str.1
.Lcpi_end37:
	.size	__arm_cp.20_3, .Lcpi_end37-__arm_cp.20_3
__arm_cp.20_4:
	.long	.L.str.2
.Lcpi_end38:
	.size	__arm_cp.20_4, .Lcpi_end38-__arm_cp.20_4
.LCPI20_5:
.L.str:
	.asciz	"  DES%c-ECB-%3d (%s): \000"
__arm_cp.20_6:
	.long	des3_test_keys
.Lcpi_end39:
	.size	__arm_cp.20_6, .Lcpi_end39-__arm_cp.20_6
__arm_cp.20_7:
	.long	des3_test_ecb_enc
.Lcpi_end40:
	.size	__arm_cp.20_7, .Lcpi_end40-__arm_cp.20_7
__arm_cp.20_8:
	.long	des3_test_ecb_dec
.Lcpi_end41:
	.size	__arm_cp.20_8, .Lcpi_end41-__arm_cp.20_8
.LCPI20_9:
.Lstr.9:
.Lstr.7:
	.asciz	"failed\000"
.LCPI20_10:
.Lstr.8:
.Lstr:
	.asciz	"passed\000"
.LCPI20_11:
.L.str.6:
	.asciz	"  DES%c-CBC-%3d (%s): \000"
__arm_cp.20_12:
	.long	4023233424                      @ 0xefcdab90
.Lcpi_end42:
	.size	__arm_cp.20_12, .Lcpi_end42-__arm_cp.20_12
__arm_cp.20_13:
	.long	2018915346                      @ 0x78563412
.Lcpi_end43:
	.size	__arm_cp.20_13, .Lcpi_end43-__arm_cp.20_13
__arm_cp.20_14:
	.long	des3_test_cbc_dec
.Lcpi_end44:
	.size	__arm_cp.20_14, .Lcpi_end44-__arm_cp.20_14
__arm_cp.20_15:
	.long	des3_test_cbc_enc
.Lcpi_end45:
	.size	__arm_cp.20_15, .Lcpi_end45-__arm_cp.20_15
.Lfunc_end20:
	.size	mbedtls_des_self_test, .Lfunc_end20-mbedtls_des_self_test
	.cfi_endproc
	.cantunwind
	.fnend
                                        @ -- End function
	.type	odd_parity_table,%object        @ @odd_parity_table
	.section	.rodata.odd_parity_table,"a",%progbits
odd_parity_table:
	.ascii	"\001\002\004\007\b\013\r\016\020\023\025\026\031\032\034\037 #%&)*,/12478;=>@CEFIJLOQRTWX[]^abdghkmnpsuvyz|\177\200\203\205\206\211\212\214\217\221\222\224\227\230\233\235\236\241\242\244\247\250\253\255\256\260\263\265\266\271\272\274\277\301\302\304\307\310\313\315\316\320\323\325\326\331\332\334\337\340\343\345\346\351\352\354\357\361\362\364\367\370\373\375\376"
	.size	odd_parity_table, 128

	.type	weak_key_table,%object          @ @weak_key_table
	.section	.rodata.weak_key_table,"a",%progbits
weak_key_table:
	.zero	8,1
	.zero	8,254
	.ascii	"\037\037\037\037\016\016\016\016"
	.ascii	"\340\340\340\340\361\361\361\361"
	.ascii	"\001\037\001\037\001\016\001\016"
	.ascii	"\037\001\037\001\016\001\016\001"
	.ascii	"\001\340\001\340\001\361\001\361"
	.ascii	"\340\001\340\001\361\001\361\001"
	.ascii	"\001\376\001\376\001\376\001\376"
	.ascii	"\376\001\376\001\376\001\376\001"
	.ascii	"\037\340\037\340\016\361\016\361"
	.ascii	"\340\037\340\037\361\016\361\016"
	.ascii	"\037\376\037\376\016\376\016\376"
	.ascii	"\376\037\376\037\376\016\376\016"
	.ascii	"\340\376\340\376\361\376\361\376"
	.ascii	"\376\340\376\340\376\361\376\361"
	.size	weak_key_table, 128

	.type	LHs,%object                     @ @LHs
	.section	.rodata.LHs,"a",%progbits
	.p2align	2
LHs:
	.long	0                               @ 0x0
	.long	1                               @ 0x1
	.long	256                             @ 0x100
	.long	257                             @ 0x101
	.long	65536                           @ 0x10000
	.long	65537                           @ 0x10001
	.long	65792                           @ 0x10100
	.long	65793                           @ 0x10101
	.long	16777216                        @ 0x1000000
	.long	16777217                        @ 0x1000001
	.long	16777472                        @ 0x1000100
	.long	16777473                        @ 0x1000101
	.long	16842752                        @ 0x1010000
	.long	16842753                        @ 0x1010001
	.long	16843008                        @ 0x1010100
	.long	16843009                        @ 0x1010101
	.size	LHs, 64

	.type	RHs,%object                     @ @RHs
	.section	.rodata.RHs,"a",%progbits
	.p2align	2
RHs:
	.long	0                               @ 0x0
	.long	16777216                        @ 0x1000000
	.long	65536                           @ 0x10000
	.long	16842752                        @ 0x1010000
	.long	256                             @ 0x100
	.long	16777472                        @ 0x1000100
	.long	65792                           @ 0x10100
	.long	16843008                        @ 0x1010100
	.long	1                               @ 0x1
	.long	16777217                        @ 0x1000001
	.long	65537                           @ 0x10001
	.long	16842753                        @ 0x1010001
	.long	257                             @ 0x101
	.long	16777473                        @ 0x1000101
	.long	65793                           @ 0x10101
	.long	16843009                        @ 0x1010101
	.size	RHs, 64

	.type	SB8,%object                     @ @SB8
	.section	.rodata.SB8,"a",%progbits
	.p2align	2
SB8:
	.long	268439616                       @ 0x10001040
	.long	4096                            @ 0x1000
	.long	262144                          @ 0x40000
	.long	268701760                       @ 0x10041040
	.long	268435456                       @ 0x10000000
	.long	268439616                       @ 0x10001040
	.long	64                              @ 0x40
	.long	268435456                       @ 0x10000000
	.long	262208                          @ 0x40040
	.long	268697600                       @ 0x10040000
	.long	268701760                       @ 0x10041040
	.long	266240                          @ 0x41000
	.long	268701696                       @ 0x10041000
	.long	266304                          @ 0x41040
	.long	4096                            @ 0x1000
	.long	64                              @ 0x40
	.long	268697600                       @ 0x10040000
	.long	268435520                       @ 0x10000040
	.long	268439552                       @ 0x10001000
	.long	4160                            @ 0x1040
	.long	266240                          @ 0x41000
	.long	262208                          @ 0x40040
	.long	268697664                       @ 0x10040040
	.long	268701696                       @ 0x10041000
	.long	4160                            @ 0x1040
	.long	0                               @ 0x0
	.long	0                               @ 0x0
	.long	268697664                       @ 0x10040040
	.long	268435520                       @ 0x10000040
	.long	268439552                       @ 0x10001000
	.long	266304                          @ 0x41040
	.long	262144                          @ 0x40000
	.long	266304                          @ 0x41040
	.long	262144                          @ 0x40000
	.long	268701696                       @ 0x10041000
	.long	4096                            @ 0x1000
	.long	64                              @ 0x40
	.long	268697664                       @ 0x10040040
	.long	4096                            @ 0x1000
	.long	266304                          @ 0x41040
	.long	268439552                       @ 0x10001000
	.long	64                              @ 0x40
	.long	268435520                       @ 0x10000040
	.long	268697600                       @ 0x10040000
	.long	268697664                       @ 0x10040040
	.long	268435456                       @ 0x10000000
	.long	262144                          @ 0x40000
	.long	268439616                       @ 0x10001040
	.long	0                               @ 0x0
	.long	268701760                       @ 0x10041040
	.long	262208                          @ 0x40040
	.long	268435520                       @ 0x10000040
	.long	268697600                       @ 0x10040000
	.long	268439552                       @ 0x10001000
	.long	268439616                       @ 0x10001040
	.long	0                               @ 0x0
	.long	268701760                       @ 0x10041040
	.long	266240                          @ 0x41000
	.long	266240                          @ 0x41000
	.long	4160                            @ 0x1040
	.long	4160                            @ 0x1040
	.long	262208                          @ 0x40040
	.long	268435456                       @ 0x10000000
	.long	268701696                       @ 0x10041000
	.size	SB8, 256

	.type	SB6,%object                     @ @SB6
	.section	.rodata.SB6,"a",%progbits
	.p2align	2
SB6:
	.long	536870928                       @ 0x20000010
	.long	541065216                       @ 0x20400000
	.long	16384                           @ 0x4000
	.long	541081616                       @ 0x20404010
	.long	541065216                       @ 0x20400000
	.long	16                              @ 0x10
	.long	541081616                       @ 0x20404010
	.long	4194304                         @ 0x400000
	.long	536887296                       @ 0x20004000
	.long	4210704                         @ 0x404010
	.long	4194304                         @ 0x400000
	.long	536870928                       @ 0x20000010
	.long	4194320                         @ 0x400010
	.long	536887296                       @ 0x20004000
	.long	536870912                       @ 0x20000000
	.long	16400                           @ 0x4010
	.long	0                               @ 0x0
	.long	4194320                         @ 0x400010
	.long	536887312                       @ 0x20004010
	.long	16384                           @ 0x4000
	.long	4210688                         @ 0x404000
	.long	536887312                       @ 0x20004010
	.long	16                              @ 0x10
	.long	541065232                       @ 0x20400010
	.long	541065232                       @ 0x20400010
	.long	0                               @ 0x0
	.long	4210704                         @ 0x404010
	.long	541081600                       @ 0x20404000
	.long	16400                           @ 0x4010
	.long	4210688                         @ 0x404000
	.long	541081600                       @ 0x20404000
	.long	536870912                       @ 0x20000000
	.long	536887296                       @ 0x20004000
	.long	16                              @ 0x10
	.long	541065232                       @ 0x20400010
	.long	4210688                         @ 0x404000
	.long	541081616                       @ 0x20404010
	.long	4194304                         @ 0x400000
	.long	16400                           @ 0x4010
	.long	536870928                       @ 0x20000010
	.long	4194304                         @ 0x400000
	.long	536887296                       @ 0x20004000
	.long	536870912                       @ 0x20000000
	.long	16400                           @ 0x4010
	.long	536870928                       @ 0x20000010
	.long	541081616                       @ 0x20404010
	.long	4210688                         @ 0x404000
	.long	541065216                       @ 0x20400000
	.long	4210704                         @ 0x404010
	.long	541081600                       @ 0x20404000
	.long	0                               @ 0x0
	.long	541065232                       @ 0x20400010
	.long	16                              @ 0x10
	.long	16384                           @ 0x4000
	.long	541065216                       @ 0x20400000
	.long	4210704                         @ 0x404010
	.long	16384                           @ 0x4000
	.long	4194320                         @ 0x400010
	.long	536887312                       @ 0x20004010
	.long	0                               @ 0x0
	.long	541081600                       @ 0x20404000
	.long	536870912                       @ 0x20000000
	.long	4194320                         @ 0x400010
	.long	536887312                       @ 0x20004010
	.size	SB6, 256

	.type	SB4,%object                     @ @SB4
	.section	.rodata.SB4,"a",%progbits
	.p2align	2
SB4:
	.long	8396801                         @ 0x802001
	.long	8321                            @ 0x2081
	.long	8321                            @ 0x2081
	.long	128                             @ 0x80
	.long	8396928                         @ 0x802080
	.long	8388737                         @ 0x800081
	.long	8388609                         @ 0x800001
	.long	8193                            @ 0x2001
	.long	0                               @ 0x0
	.long	8396800                         @ 0x802000
	.long	8396800                         @ 0x802000
	.long	8396929                         @ 0x802081
	.long	129                             @ 0x81
	.long	0                               @ 0x0
	.long	8388736                         @ 0x800080
	.long	8388609                         @ 0x800001
	.long	1                               @ 0x1
	.long	8192                            @ 0x2000
	.long	8388608                         @ 0x800000
	.long	8396801                         @ 0x802001
	.long	128                             @ 0x80
	.long	8388608                         @ 0x800000
	.long	8193                            @ 0x2001
	.long	8320                            @ 0x2080
	.long	8388737                         @ 0x800081
	.long	1                               @ 0x1
	.long	8320                            @ 0x2080
	.long	8388736                         @ 0x800080
	.long	8192                            @ 0x2000
	.long	8396928                         @ 0x802080
	.long	8396929                         @ 0x802081
	.long	129                             @ 0x81
	.long	8388736                         @ 0x800080
	.long	8388609                         @ 0x800001
	.long	8396800                         @ 0x802000
	.long	8396929                         @ 0x802081
	.long	129                             @ 0x81
	.long	0                               @ 0x0
	.long	0                               @ 0x0
	.long	8396800                         @ 0x802000
	.long	8320                            @ 0x2080
	.long	8388736                         @ 0x800080
	.long	8388737                         @ 0x800081
	.long	1                               @ 0x1
	.long	8396801                         @ 0x802001
	.long	8321                            @ 0x2081
	.long	8321                            @ 0x2081
	.long	128                             @ 0x80
	.long	8396929                         @ 0x802081
	.long	129                             @ 0x81
	.long	1                               @ 0x1
	.long	8192                            @ 0x2000
	.long	8388609                         @ 0x800001
	.long	8193                            @ 0x2001
	.long	8396928                         @ 0x802080
	.long	8388737                         @ 0x800081
	.long	8193                            @ 0x2001
	.long	8320                            @ 0x2080
	.long	8388608                         @ 0x800000
	.long	8396801                         @ 0x802001
	.long	128                             @ 0x80
	.long	8388608                         @ 0x800000
	.long	8192                            @ 0x2000
	.long	8396928                         @ 0x802080
	.size	SB4, 256

	.type	SB2,%object                     @ @SB2
	.section	.rodata.SB2,"a",%progbits
	.p2align	2
SB2:
	.long	2148565024                      @ 0x80108020
	.long	2147516416                      @ 0x80008000
	.long	32768                           @ 0x8000
	.long	1081376                         @ 0x108020
	.long	1048576                         @ 0x100000
	.long	32                              @ 0x20
	.long	2148532256                      @ 0x80100020
	.long	2147516448                      @ 0x80008020
	.long	2147483680                      @ 0x80000020
	.long	2148565024                      @ 0x80108020
	.long	2148564992                      @ 0x80108000
	.long	2147483648                      @ 0x80000000
	.long	2147516416                      @ 0x80008000
	.long	1048576                         @ 0x100000
	.long	32                              @ 0x20
	.long	2148532256                      @ 0x80100020
	.long	1081344                         @ 0x108000
	.long	1048608                         @ 0x100020
	.long	2147516448                      @ 0x80008020
	.long	0                               @ 0x0
	.long	2147483648                      @ 0x80000000
	.long	32768                           @ 0x8000
	.long	1081376                         @ 0x108020
	.long	2148532224                      @ 0x80100000
	.long	1048608                         @ 0x100020
	.long	2147483680                      @ 0x80000020
	.long	0                               @ 0x0
	.long	1081344                         @ 0x108000
	.long	32800                           @ 0x8020
	.long	2148564992                      @ 0x80108000
	.long	2148532224                      @ 0x80100000
	.long	32800                           @ 0x8020
	.long	0                               @ 0x0
	.long	1081376                         @ 0x108020
	.long	2148532256                      @ 0x80100020
	.long	1048576                         @ 0x100000
	.long	2147516448                      @ 0x80008020
	.long	2148532224                      @ 0x80100000
	.long	2148564992                      @ 0x80108000
	.long	32768                           @ 0x8000
	.long	2148532224                      @ 0x80100000
	.long	2147516416                      @ 0x80008000
	.long	32                              @ 0x20
	.long	2148565024                      @ 0x80108020
	.long	1081376                         @ 0x108020
	.long	32                              @ 0x20
	.long	32768                           @ 0x8000
	.long	2147483648                      @ 0x80000000
	.long	32800                           @ 0x8020
	.long	2148564992                      @ 0x80108000
	.long	1048576                         @ 0x100000
	.long	2147483680                      @ 0x80000020
	.long	1048608                         @ 0x100020
	.long	2147516448                      @ 0x80008020
	.long	2147483680                      @ 0x80000020
	.long	1048608                         @ 0x100020
	.long	1081344                         @ 0x108000
	.long	0                               @ 0x0
	.long	2147516416                      @ 0x80008000
	.long	32800                           @ 0x8020
	.long	2147483648                      @ 0x80000000
	.long	2148532256                      @ 0x80100020
	.long	2148565024                      @ 0x80108020
	.long	1081344                         @ 0x108000
	.size	SB2, 256

	.type	SB7,%object                     @ @SB7
	.section	.rodata.SB7,"a",%progbits
	.p2align	2
SB7:
	.long	2097152                         @ 0x200000
	.long	69206018                        @ 0x4200002
	.long	67110914                        @ 0x4000802
	.long	0                               @ 0x0
	.long	2048                            @ 0x800
	.long	67110914                        @ 0x4000802
	.long	2099202                         @ 0x200802
	.long	69208064                        @ 0x4200800
	.long	69208066                        @ 0x4200802
	.long	2097152                         @ 0x200000
	.long	0                               @ 0x0
	.long	67108866                        @ 0x4000002
	.long	2                               @ 0x2
	.long	67108864                        @ 0x4000000
	.long	69206018                        @ 0x4200002
	.long	2050                            @ 0x802
	.long	67110912                        @ 0x4000800
	.long	2099202                         @ 0x200802
	.long	2097154                         @ 0x200002
	.long	67110912                        @ 0x4000800
	.long	67108866                        @ 0x4000002
	.long	69206016                        @ 0x4200000
	.long	69208064                        @ 0x4200800
	.long	2097154                         @ 0x200002
	.long	69206016                        @ 0x4200000
	.long	2048                            @ 0x800
	.long	2050                            @ 0x802
	.long	69208066                        @ 0x4200802
	.long	2099200                         @ 0x200800
	.long	2                               @ 0x2
	.long	67108864                        @ 0x4000000
	.long	2099200                         @ 0x200800
	.long	67108864                        @ 0x4000000
	.long	2099200                         @ 0x200800
	.long	2097152                         @ 0x200000
	.long	67110914                        @ 0x4000802
	.long	67110914                        @ 0x4000802
	.long	69206018                        @ 0x4200002
	.long	69206018                        @ 0x4200002
	.long	2                               @ 0x2
	.long	2097154                         @ 0x200002
	.long	67108864                        @ 0x4000000
	.long	67110912                        @ 0x4000800
	.long	2097152                         @ 0x200000
	.long	69208064                        @ 0x4200800
	.long	2050                            @ 0x802
	.long	2099202                         @ 0x200802
	.long	69208064                        @ 0x4200800
	.long	2050                            @ 0x802
	.long	67108866                        @ 0x4000002
	.long	69208066                        @ 0x4200802
	.long	69206016                        @ 0x4200000
	.long	2099200                         @ 0x200800
	.long	0                               @ 0x0
	.long	2                               @ 0x2
	.long	69208066                        @ 0x4200802
	.long	0                               @ 0x0
	.long	2099202                         @ 0x200802
	.long	69206016                        @ 0x4200000
	.long	2048                            @ 0x800
	.long	67108866                        @ 0x4000002
	.long	67110912                        @ 0x4000800
	.long	2048                            @ 0x800
	.long	2097154                         @ 0x200002
	.size	SB7, 256

	.type	SB5,%object                     @ @SB5
	.section	.rodata.SB5,"a",%progbits
	.p2align	2
SB5:
	.long	256                             @ 0x100
	.long	34078976                        @ 0x2080100
	.long	34078720                        @ 0x2080000
	.long	1107296512                      @ 0x42000100
	.long	524288                          @ 0x80000
	.long	256                             @ 0x100
	.long	1073741824                      @ 0x40000000
	.long	34078720                        @ 0x2080000
	.long	1074266368                      @ 0x40080100
	.long	524288                          @ 0x80000
	.long	33554688                        @ 0x2000100
	.long	1074266368                      @ 0x40080100
	.long	1107296512                      @ 0x42000100
	.long	1107820544                      @ 0x42080000
	.long	524544                          @ 0x80100
	.long	1073741824                      @ 0x40000000
	.long	33554432                        @ 0x2000000
	.long	1074266112                      @ 0x40080000
	.long	1074266112                      @ 0x40080000
	.long	0                               @ 0x0
	.long	1073742080                      @ 0x40000100
	.long	1107820800                      @ 0x42080100
	.long	1107820800                      @ 0x42080100
	.long	33554688                        @ 0x2000100
	.long	1107820544                      @ 0x42080000
	.long	1073742080                      @ 0x40000100
	.long	0                               @ 0x0
	.long	1107296256                      @ 0x42000000
	.long	34078976                        @ 0x2080100
	.long	33554432                        @ 0x2000000
	.long	1107296256                      @ 0x42000000
	.long	524544                          @ 0x80100
	.long	524288                          @ 0x80000
	.long	1107296512                      @ 0x42000100
	.long	256                             @ 0x100
	.long	33554432                        @ 0x2000000
	.long	1073741824                      @ 0x40000000
	.long	34078720                        @ 0x2080000
	.long	1107296512                      @ 0x42000100
	.long	1074266368                      @ 0x40080100
	.long	33554688                        @ 0x2000100
	.long	1073741824                      @ 0x40000000
	.long	1107820544                      @ 0x42080000
	.long	34078976                        @ 0x2080100
	.long	1074266368                      @ 0x40080100
	.long	256                             @ 0x100
	.long	33554432                        @ 0x2000000
	.long	1107820544                      @ 0x42080000
	.long	1107820800                      @ 0x42080100
	.long	524544                          @ 0x80100
	.long	1107296256                      @ 0x42000000
	.long	1107820800                      @ 0x42080100
	.long	34078720                        @ 0x2080000
	.long	0                               @ 0x0
	.long	1074266112                      @ 0x40080000
	.long	1107296256                      @ 0x42000000
	.long	524544                          @ 0x80100
	.long	33554688                        @ 0x2000100
	.long	1073742080                      @ 0x40000100
	.long	524288                          @ 0x80000
	.long	0                               @ 0x0
	.long	1074266112                      @ 0x40080000
	.long	34078976                        @ 0x2080100
	.long	1073742080                      @ 0x40000100
	.size	SB5, 256

	.type	SB3,%object                     @ @SB3
	.section	.rodata.SB3,"a",%progbits
	.p2align	2
SB3:
	.long	520                             @ 0x208
	.long	134349312                       @ 0x8020200
	.long	0                               @ 0x0
	.long	134348808                       @ 0x8020008
	.long	134218240                       @ 0x8000200
	.long	0                               @ 0x0
	.long	131592                          @ 0x20208
	.long	134218240                       @ 0x8000200
	.long	131080                          @ 0x20008
	.long	134217736                       @ 0x8000008
	.long	134217736                       @ 0x8000008
	.long	131072                          @ 0x20000
	.long	134349320                       @ 0x8020208
	.long	131080                          @ 0x20008
	.long	134348800                       @ 0x8020000
	.long	520                             @ 0x208
	.long	134217728                       @ 0x8000000
	.long	8                               @ 0x8
	.long	134349312                       @ 0x8020200
	.long	512                             @ 0x200
	.long	131584                          @ 0x20200
	.long	134348800                       @ 0x8020000
	.long	134348808                       @ 0x8020008
	.long	131592                          @ 0x20208
	.long	134218248                       @ 0x8000208
	.long	131584                          @ 0x20200
	.long	131072                          @ 0x20000
	.long	134218248                       @ 0x8000208
	.long	8                               @ 0x8
	.long	134349320                       @ 0x8020208
	.long	512                             @ 0x200
	.long	134217728                       @ 0x8000000
	.long	134349312                       @ 0x8020200
	.long	134217728                       @ 0x8000000
	.long	131080                          @ 0x20008
	.long	520                             @ 0x208
	.long	131072                          @ 0x20000
	.long	134349312                       @ 0x8020200
	.long	134218240                       @ 0x8000200
	.long	0                               @ 0x0
	.long	512                             @ 0x200
	.long	131080                          @ 0x20008
	.long	134349320                       @ 0x8020208
	.long	134218240                       @ 0x8000200
	.long	134217736                       @ 0x8000008
	.long	512                             @ 0x200
	.long	0                               @ 0x0
	.long	134348808                       @ 0x8020008
	.long	134218248                       @ 0x8000208
	.long	131072                          @ 0x20000
	.long	134217728                       @ 0x8000000
	.long	134349320                       @ 0x8020208
	.long	8                               @ 0x8
	.long	131592                          @ 0x20208
	.long	131584                          @ 0x20200
	.long	134217736                       @ 0x8000008
	.long	134348800                       @ 0x8020000
	.long	134218248                       @ 0x8000208
	.long	520                             @ 0x208
	.long	134348800                       @ 0x8020000
	.long	131592                          @ 0x20208
	.long	8                               @ 0x8
	.long	134348808                       @ 0x8020008
	.long	131584                          @ 0x20200
	.size	SB3, 256

	.type	SB1,%object                     @ @SB1
	.section	.rodata.SB1,"a",%progbits
	.p2align	2
SB1:
	.long	16843776                        @ 0x1010400
	.long	0                               @ 0x0
	.long	65536                           @ 0x10000
	.long	16843780                        @ 0x1010404
	.long	16842756                        @ 0x1010004
	.long	66564                           @ 0x10404
	.long	4                               @ 0x4
	.long	65536                           @ 0x10000
	.long	1024                            @ 0x400
	.long	16843776                        @ 0x1010400
	.long	16843780                        @ 0x1010404
	.long	1024                            @ 0x400
	.long	16778244                        @ 0x1000404
	.long	16842756                        @ 0x1010004
	.long	16777216                        @ 0x1000000
	.long	4                               @ 0x4
	.long	1028                            @ 0x404
	.long	16778240                        @ 0x1000400
	.long	16778240                        @ 0x1000400
	.long	66560                           @ 0x10400
	.long	66560                           @ 0x10400
	.long	16842752                        @ 0x1010000
	.long	16842752                        @ 0x1010000
	.long	16778244                        @ 0x1000404
	.long	65540                           @ 0x10004
	.long	16777220                        @ 0x1000004
	.long	16777220                        @ 0x1000004
	.long	65540                           @ 0x10004
	.long	0                               @ 0x0
	.long	1028                            @ 0x404
	.long	66564                           @ 0x10404
	.long	16777216                        @ 0x1000000
	.long	65536                           @ 0x10000
	.long	16843780                        @ 0x1010404
	.long	4                               @ 0x4
	.long	16842752                        @ 0x1010000
	.long	16843776                        @ 0x1010400
	.long	16777216                        @ 0x1000000
	.long	16777216                        @ 0x1000000
	.long	1024                            @ 0x400
	.long	16842756                        @ 0x1010004
	.long	65536                           @ 0x10000
	.long	66560                           @ 0x10400
	.long	16777220                        @ 0x1000004
	.long	1024                            @ 0x400
	.long	4                               @ 0x4
	.long	16778244                        @ 0x1000404
	.long	66564                           @ 0x10404
	.long	16843780                        @ 0x1010404
	.long	65540                           @ 0x10004
	.long	16842752                        @ 0x1010000
	.long	16778244                        @ 0x1000404
	.long	16777220                        @ 0x1000004
	.long	1028                            @ 0x404
	.long	66564                           @ 0x10404
	.long	16843776                        @ 0x1010400
	.long	1028                            @ 0x404
	.long	16778240                        @ 0x1000400
	.long	16778240                        @ 0x1000400
	.long	0                               @ 0x0
	.long	65540                           @ 0x10004
	.long	66560                           @ 0x10400
	.long	0                               @ 0x0
	.long	16842756                        @ 0x1010004
	.size	SB1, 256

	.type	.L.str.1,%object                @ @.str.1
	.section	.rodata.str1.1,"aMS",%progbits,1
.L.str.1:
	.asciz	"dec"
	.size	.L.str.1, 4

	.type	.L.str.2,%object                @ @.str.2
.L.str.2:
	.asciz	"enc"
	.size	.L.str.2, 4

	.type	des3_test_keys,%object          @ @des3_test_keys
	.section	.rodata.des3_test_keys,"a",%progbits
des3_test_keys:
	.ascii	"\001#Eg\211\253\315\357#Eg\211\253\315\357\001Eg\211\253\315\357\001#"
	.size	des3_test_keys, 24

	.type	des3_test_ecb_dec,%object       @ @des3_test_ecb_dec
	.section	.rodata.des3_test_ecb_dec,"a",%progbits
des3_test_ecb_dec:
	.ascii	"\315\326O/\224'\301]"
	.ascii	"i\226\310\372G\242\253\353"
	.ascii	"\203%9vD\t\032\n"
	.size	des3_test_ecb_dec, 24

	.type	des3_test_ecb_enc,%object       @ @des3_test_ecb_enc
	.section	.rodata.des3_test_ecb_enc,"a",%progbits
des3_test_ecb_enc:
	.ascii	"j*\031\364\036\312\205K"
	.ascii	"\003\346\237[\372X\353B"
	.ascii	"\335\027\350\270\2647\3222"
	.size	des3_test_ecb_enc, 24

	.type	des3_test_cbc_dec,%object       @ @des3_test_cbc_dec
	.section	.rodata.des3_test_cbc_dec,"a",%progbits
des3_test_cbc_dec:
	.ascii	"\022\237@\271\322\000V\263"
	.ascii	"G\016\374\232k\216\343\223"
	.ascii	"\305\316\317c\354\354QL"
	.size	des3_test_cbc_dec, 24

	.type	des3_test_cbc_enc,%object       @ @des3_test_cbc_enc
	.section	.rodata.des3_test_cbc_enc,"a",%progbits
des3_test_cbc_enc:
	.ascii	"T\361Z\366\353\343\244\264"
	.ascii	"5v\021V_\241\216M"
	.ascii	"\313\031\037\205\321\355\2049"
	.size	des3_test_cbc_enc, 24

	.globl	_printf_percent
	.globl	_printf_widthprec
	.globl	_printf_pre_padding
	.globl	_printf_c
	.globl	_printf_s
	.globl	_printf_d
	.globl	_printf_int_dec
	.globl	_printf_str
	.hidden	_printf_percent
	.hidden	_printf_widthprec
	.hidden	_printf_pre_padding
	.hidden	_printf_c
	.hidden	_printf_s
	.hidden	_printf_d
	.hidden	_printf_int_dec
	.hidden	_printf_str
	.file	3 "C:\\Users\\shw26\\OneDrive\\Desktop\\2021\\2021-1\\\354\272\241\354\212\244\355\206\244\353\224\224\354\236\220\354\235\2702\\Nuvoton\\M2351_BSP_v3.00.004\\M2351Series_BSP_CMSIS_V3.00.004\\MyProject\\PulseMonitoring\\Secure" "../../../ThirdParty/mbedTLS/include/mbedtls\\des.h"
	.file	4 "C:\\" "Keil_v5\\ARM\\ARMCLANG\\Bin\\..\\include\\stddef.h"
	.section	".note.GNU-stack","",%progbits
	.eabi_attribute	30, 1	@ Tag_ABI_optimization_goals
	.ARM_attribute	16, 1	@ Tag_AV_eba