	.text
	.syntax unified
	.eabi_attribute	67, "2.09"	@ Tag_conformance
	.cpu	cortex-m23
	.eabi_attribute	6, 16	@ Tag_CPU_arch
	.eabi_attribute	7, 77	@ Tag_CPU_arch_profile
	.eabi_attribute	8, 0	@ Tag_ARM_ISA_use
	.eabi_attribute	9, 3	@ Tag_THUMB_ISA_use
	.eabi_attribute	34, 0	@ Tag_CPU_unaligned_access
	.eabi_attribute	17, 1	@ Tag_ABI_PCS_GOT_use
	.eabi_attribute	20, 2	@ Tag_ABI_FP_denormal
	.eabi_attribute	21, 0	@ Tag_ABI_FP_exceptions
	.eabi_attribute	23, 1	@ Tag_ABI_FP_number_model
	.eabi_attribute	24, 1	@ Tag_ABI_align_needed
	.eabi_attribute	25, 1	@ Tag_ABI_align_preserved
	.eabi_attribute	38, 1	@ Tag_ABI_FP_16bit_format
	.eabi_attribute	18, 2	@ Tag_ABI_PCS_wchar_t
	.eabi_attribute	26, 1	@ Tag_ABI_enum_size
	.eabi_attribute	14, 0	@ Tag_ABI_PCS_R9_use
	.file	"dhm.c"
	.file	1 "C:\\" "Keil_v5\\ARM\\ARMCLANG\\Bin\\..\\include\\stddef.h"
	.file	2 "C:\\Users\\shw26\\OneDrive\\Desktop\\2021\\2021-1\\\354\272\241\354\212\244\355\206\244\353\224\224\354\236\220\354\235\2702\\Nuvoton\\M2351_BSP_v3.00.004\\M2351Series_BSP_CMSIS_V3.00.004\\MyProject\\PulseMonitoring\\Secure" "../../../ThirdParty/mbedTLS/library/dhm.c"
	.section	.text.mbedtls_dhm_init,"ax",%progbits
	.hidden	mbedtls_dhm_init                @ -- Begin function mbedtls_dhm_init
	.globl	mbedtls_dhm_init
	.p2align	1
	.type	mbedtls_dhm_init,%function
	.code	16                              @ @mbedtls_dhm_init
	.thumb_func
mbedtls_dhm_init:
.Lfunc_begin0:
	.loc	2 130 0                         @ ../../../ThirdParty/mbedTLS/library/dhm.c:130:0
	.fnstart
	.cfi_sections .debug_frame
	.cfi_startproc
@ %bb.0:
	@DEBUG_VALUE: mbedtls_dhm_init:ctx <- $r0
	@DEBUG_VALUE: mbedtls_dhm_init:ctx <- $r0
	.save	{r7, lr}
	push	{r7, lr}
	.cfi_def_cfa_offset 8
	.cfi_offset lr, -4
	.cfi_offset r7, -8
	movs	r1, #124
	@DEBUG_VALUE: mbedtls_dhm_init:ctx <- $r0
.Ltmp0:
	.loc	2 132 5 prologue_end            @ ../../../ThirdParty/mbedTLS/library/dhm.c:132:5
	bl	__aeabi_memclr4
.Ltmp1:
	@DEBUG_VALUE: mbedtls_dhm_init:ctx <- [DW_OP_LLVM_entry_value 1] $r0
	.loc	2 133 1                         @ ../../../ThirdParty/mbedTLS/library/dhm.c:133:1
	pop	{r7, pc}
.Ltmp2:
.Lfunc_end0:
	.size	mbedtls_dhm_init, .Lfunc_end0-mbedtls_dhm_init
	.cfi_endproc
	.cantunwind
	.fnend
                                        @ -- End function
	.section	.text.mbedtls_dhm_read_params,"ax",%progbits
	.hidden	mbedtls_dhm_read_params         @ -- Begin function mbedtls_dhm_read_params
	.globl	mbedtls_dhm_read_params
	.p2align	1
	.type	mbedtls_dhm_read_params,%function
	.code	16                              @ @mbedtls_dhm_read_params
	.thumb_func
mbedtls_dhm_read_params:
.Lfunc_begin1:
	.loc	2 141 0                         @ ../../../ThirdParty/mbedTLS/library/dhm.c:141:0
	.fnstart
	.cfi_startproc
@ %bb.0:
	@DEBUG_VALUE: mbedtls_dhm_read_params:ctx <- $r0
	@DEBUG_VALUE: mbedtls_dhm_read_params:p <- $r1
	@DEBUG_VALUE: mbedtls_dhm_read_params:end <- $r2
	.save	{r4, r5, r6, r7, lr}
	push	{r4, r5, r6, r7, lr}
	.cfi_def_cfa_offset 20
	.cfi_offset lr, -4
	.cfi_offset r7, -8
	.cfi_offset r6, -12
	.cfi_offset r5, -16
	.cfi_offset r4, -20
	.pad	#4
	sub	sp, #4
	.cfi_def_cfa_offset 24
	mov	r6, r2
	mov	r7, r1
	mov	r4, r0
.Ltmp3:
	@DEBUG_VALUE: mbedtls_dhm_read_params:end <- $r6
	@DEBUG_VALUE: mbedtls_dhm_read_params:p <- $r7
	@DEBUG_VALUE: mbedtls_dhm_read_params:ctx <- $r4
	.loc	2 147 40 prologue_end           @ ../../../ThirdParty/mbedTLS/library/dhm.c:147:40
	adds	r5, r0, #4
	.loc	2 147 17 is_stmt 0              @ ../../../ThirdParty/mbedTLS/library/dhm.c:147:17
	mov	r0, r5
	bl	dhm_read_bignum
.Ltmp4:
	@DEBUG_VALUE: mbedtls_dhm_read_params:ret <- $r0
	.loc	2 147 60                        @ ../../../ThirdParty/mbedTLS/library/dhm.c:147:60
	cbz	r0, .LBB1_2
.Ltmp5:
.LBB1_1:
	@DEBUG_VALUE: mbedtls_dhm_read_params:p <- $r7
	@DEBUG_VALUE: mbedtls_dhm_read_params:end <- $r6
	@DEBUG_VALUE: mbedtls_dhm_read_params:ctx <- $r4
	@DEBUG_VALUE: mbedtls_dhm_read_params:ret <- $r0
	.loc	2 158 1 is_stmt 1               @ ../../../ThirdParty/mbedTLS/library/dhm.c:158:1
	add	sp, #4
	pop	{r4, r5, r6, r7, pc}
.Ltmp6:
.LBB1_2:
	@DEBUG_VALUE: mbedtls_dhm_read_params:p <- $r7
	@DEBUG_VALUE: mbedtls_dhm_read_params:end <- $r6
	@DEBUG_VALUE: mbedtls_dhm_read_params:ctx <- $r4
	@DEBUG_VALUE: mbedtls_dhm_read_params:ret <- $r0
	.loc	2 148 44                        @ ../../../ThirdParty/mbedTLS/library/dhm.c:148:44
	mov	r0, r4
.Ltmp7:
	adds	r0, #16
	.loc	2 148 21 is_stmt 0              @ ../../../ThirdParty/mbedTLS/library/dhm.c:148:21
	mov	r1, r7
	mov	r2, r6
	bl	dhm_read_bignum
.Ltmp8:
	@DEBUG_VALUE: mbedtls_dhm_read_params:ret <- $r0
	.loc	2 148 64                        @ ../../../ThirdParty/mbedTLS/library/dhm.c:148:64
	cmp	r0, #0
	bne	.LBB1_1
.Ltmp9:
@ %bb.3:
	@DEBUG_VALUE: mbedtls_dhm_read_params:p <- $r7
	@DEBUG_VALUE: mbedtls_dhm_read_params:end <- $r6
	@DEBUG_VALUE: mbedtls_dhm_read_params:ctx <- $r4
	@DEBUG_VALUE: mbedtls_dhm_read_params:ret <- $r0
	.loc	2 149 44 is_stmt 1              @ ../../../ThirdParty/mbedTLS/library/dhm.c:149:44
	mov	r0, r4
.Ltmp10:
	adds	r0, #52
	str	r0, [sp]                        @ 4-byte Spill
	.loc	2 149 21 is_stmt 0              @ ../../../ThirdParty/mbedTLS/library/dhm.c:149:21
	mov	r1, r7
	mov	r2, r6
	bl	dhm_read_bignum
.Ltmp11:
	@DEBUG_VALUE: mbedtls_dhm_read_params:ret <- $r0
	.loc	2 147 9 is_stmt 1               @ ../../../ThirdParty/mbedTLS/library/dhm.c:147:9
	cmp	r0, #0
	bne	.LBB1_1
.Ltmp12:
@ %bb.4:
	@DEBUG_VALUE: mbedtls_dhm_read_params:p <- $r7
	@DEBUG_VALUE: mbedtls_dhm_read_params:end <- $r6
	@DEBUG_VALUE: mbedtls_dhm_read_params:ctx <- $r4
	@DEBUG_VALUE: mbedtls_dhm_read_params:ret <- $r0
	.loc	2 152 17                        @ ../../../ThirdParty/mbedTLS/library/dhm.c:152:17
	ldr	r0, [sp]                        @ 4-byte Reload
.Ltmp13:
	mov	r1, r5
	bl	dhm_check_range
.Ltmp14:
	@DEBUG_VALUE: mbedtls_dhm_read_params:ret <- $r0
	.loc	2 152 9 is_stmt 0               @ ../../../ThirdParty/mbedTLS/library/dhm.c:152:9
	cmp	r0, #0
	bne	.LBB1_1
.Ltmp15:
@ %bb.5:
	@DEBUG_VALUE: mbedtls_dhm_read_params:p <- $r7
	@DEBUG_VALUE: mbedtls_dhm_read_params:end <- $r6
	@DEBUG_VALUE: mbedtls_dhm_read_params:ctx <- $r4
	@DEBUG_VALUE: mbedtls_dhm_read_params:ret <- $r0
	.loc	2 155 16 is_stmt 1              @ ../../../ThirdParty/mbedTLS/library/dhm.c:155:16
	mov	r0, r5
.Ltmp16:
	bl	mbedtls_mpi_size
	.loc	2 155 14 is_stmt 0              @ ../../../ThirdParty/mbedTLS/library/dhm.c:155:14
	str	r0, [r4]
	movs	r0, #0
	.loc	2 158 1 is_stmt 1               @ ../../../ThirdParty/mbedTLS/library/dhm.c:158:1
	add	sp, #4
	pop	{r4, r5, r6, r7, pc}
.Ltmp17:
.Lfunc_end1:
	.size	mbedtls_dhm_read_params, .Lfunc_end1-mbedtls_dhm_read_params
	.cfi_endproc
	.cantunwind
	.fnend
                                        @ -- End function
	.section	.text.dhm_read_bignum,"ax",%progbits
	.p2align	2                               @ -- Begin function dhm_read_bignum
	.type	dhm_read_bignum,%function
	.code	16                              @ @dhm_read_bignum
	.thumb_func
dhm_read_bignum:
.Lfunc_begin2:
	.loc	2 74 0                          @ ../../../ThirdParty/mbedTLS/library/dhm.c:74:0
	.fnstart
	.cfi_startproc
@ %bb.0:
	@DEBUG_VALUE: dhm_read_bignum:X <- $r0
	@DEBUG_VALUE: dhm_read_bignum:p <- $r1
	@DEBUG_VALUE: dhm_read_bignum:end <- $r2
	.save	{r4, r5, r6, lr}
	push	{r4, r5, r6, lr}
	.cfi_def_cfa_offset 16
	.cfi_offset lr, -4
	.cfi_offset r6, -8
	.cfi_offset r5, -12
	.cfi_offset r4, -16
	mov	r5, r1
	@DEBUG_VALUE: dhm_read_bignum:end <- $r2
.Ltmp18:
	@DEBUG_VALUE: dhm_read_bignum:p <- $r5
	@DEBUG_VALUE: dhm_read_bignum:X <- $r0
	.loc	2 77 15 prologue_end            @ ../../../ThirdParty/mbedTLS/library/dhm.c:77:15
	ldr	r1, [r1]
	.loc	2 77 13 is_stmt 0               @ ../../../ThirdParty/mbedTLS/library/dhm.c:77:13
	subs	r3, r2, r1
	ldr	r4, __arm_cp.2_0
.Ltmp19:
	.loc	2 77 9                          @ ../../../ThirdParty/mbedTLS/library/dhm.c:77:9
	cmp	r3, #2
	blt	.LBB2_5
.Ltmp20:
@ %bb.1:
	@DEBUG_VALUE: dhm_read_bignum:p <- $r5
	@DEBUG_VALUE: dhm_read_bignum:end <- $r2
	@DEBUG_VALUE: dhm_read_bignum:X <- $r0
	.loc	2 80 28 is_stmt 1               @ ../../../ThirdParty/mbedTLS/library/dhm.c:80:28
	ldrb	r3, [r1, #1]
	.loc	2 80 11 is_stmt 0               @ ../../../ThirdParty/mbedTLS/library/dhm.c:80:11
	ldrb	r6, [r1]
	.loc	2 81 10 is_stmt 1               @ ../../../ThirdParty/mbedTLS/library/dhm.c:81:10
	adds	r1, r1, #2
	str	r1, [r5]
	.loc	2 80 19                         @ ../../../ThirdParty/mbedTLS/library/dhm.c:80:19
	lsls	r6, r6, #8
	.loc	2 80 26 is_stmt 0               @ ../../../ThirdParty/mbedTLS/library/dhm.c:80:26
	adds	r6, r6, r3
.Ltmp21:
	@DEBUG_VALUE: dhm_read_bignum:n <- $r6
	.loc	2 83 20 is_stmt 1               @ ../../../ThirdParty/mbedTLS/library/dhm.c:83:20
	subs	r2, r2, r1
.Ltmp22:
	@DEBUG_VALUE: dhm_read_bignum:end <- [DW_OP_LLVM_entry_value 1] $r2
	.loc	2 83 9 is_stmt 0                @ ../../../ThirdParty/mbedTLS/library/dhm.c:83:9
	cmp	r2, r6
	blt	.LBB2_5
.Ltmp23:
@ %bb.2:
	@DEBUG_VALUE: dhm_read_bignum:n <- $r6
	@DEBUG_VALUE: dhm_read_bignum:p <- $r5
	@DEBUG_VALUE: dhm_read_bignum:X <- $r0
	@DEBUG_VALUE: dhm_read_bignum:end <- [DW_OP_LLVM_entry_value 1] $r2
	.loc	2 86 17 is_stmt 1               @ ../../../ThirdParty/mbedTLS/library/dhm.c:86:17
	mov	r2, r6
	bl	mbedtls_mpi_read_binary
.Ltmp24:
	@DEBUG_VALUE: dhm_read_bignum:X <- [DW_OP_LLVM_entry_value 1] $r0
	@DEBUG_VALUE: dhm_read_bignum:ret <- $r0
	.loc	2 86 9 is_stmt 0                @ ../../../ThirdParty/mbedTLS/library/dhm.c:86:9
	cbz	r0, .LBB2_4
.Ltmp25:
@ %bb.3:
	@DEBUG_VALUE: dhm_read_bignum:n <- $r6
	@DEBUG_VALUE: dhm_read_bignum:p <- $r5
	@DEBUG_VALUE: dhm_read_bignum:ret <- $r0
	@DEBUG_VALUE: dhm_read_bignum:X <- [DW_OP_LLVM_entry_value 1] $r0
	@DEBUG_VALUE: dhm_read_bignum:end <- [DW_OP_LLVM_entry_value 1] $r2
	.loc	2 87 52 is_stmt 1               @ ../../../ThirdParty/mbedTLS/library/dhm.c:87:52
	adds	r4, r4, r0
	subs	r4, #128
.Ltmp26:
	.loc	2 92 1                          @ ../../../ThirdParty/mbedTLS/library/dhm.c:92:1
	mov	r0, r4
.Ltmp27:
	pop	{r4, r5, r6, pc}
.Ltmp28:
.LBB2_4:
	@DEBUG_VALUE: dhm_read_bignum:n <- $r6
	@DEBUG_VALUE: dhm_read_bignum:p <- $r5
	@DEBUG_VALUE: dhm_read_bignum:ret <- $r0
	@DEBUG_VALUE: dhm_read_bignum:X <- [DW_OP_LLVM_entry_value 1] $r0
	@DEBUG_VALUE: dhm_read_bignum:end <- [DW_OP_LLVM_entry_value 1] $r2
	.loc	2 89 10                         @ ../../../ThirdParty/mbedTLS/library/dhm.c:89:10
	ldr	r0, [r5]
.Ltmp29:
	adds	r0, r0, r6
	str	r0, [r5]
	movs	r4, #0
.Ltmp30:
.LBB2_5:
	@DEBUG_VALUE: dhm_read_bignum:p <- $r5
	.loc	2 92 1                          @ ../../../ThirdParty/mbedTLS/library/dhm.c:92:1
	mov	r0, r4
	pop	{r4, r5, r6, pc}
.Ltmp31:
	.p2align	2
@ %bb.6:
	.loc	2 0 1 is_stmt 0                 @ ../../../ThirdParty/mbedTLS/library/dhm.c:0:1
__arm_cp.2_0:
	.long	4294954880                      @ 0xffffcf80
.Lcpi_end0:
	.size	__arm_cp.2_0, .Lcpi_end0-__arm_cp.2_0
.Lfunc_end2:
	.size	dhm_read_bignum, .Lfunc_end2-dhm_read_bignum
	.cfi_endproc
	.cantunwind
	.fnend
                                        @ -- End function
	.section	.text.dhm_check_range,"ax",%progbits
	.p2align	2                               @ -- Begin function dhm_check_range
	.type	dhm_check_range,%function
	.code	16                              @ @dhm_check_range
	.thumb_func
dhm_check_range:
.Lfunc_begin3:
	.loc	2 107 0 is_stmt 1               @ ../../../ThirdParty/mbedTLS/library/dhm.c:107:0
	.fnstart
	.cfi_startproc
@ %bb.0:
	@DEBUG_VALUE: dhm_check_range:param <- $r0
	@DEBUG_VALUE: dhm_check_range:P <- $r1
	.save	{r4, r5, r6, lr}
	push	{r4, r5, r6, lr}
	.cfi_def_cfa_offset 16
	.cfi_offset lr, -4
	.cfi_offset r6, -8
	.cfi_offset r5, -12
	.cfi_offset r4, -16
	.pad	#24
	sub	sp, #24
	.cfi_def_cfa_offset 40
	mov	r5, r1
	mov	r4, r0
.Ltmp32:
	@DEBUG_VALUE: dhm_check_range:ret <- 0
	@DEBUG_VALUE: dhm_check_range:P <- $r5
	@DEBUG_VALUE: dhm_check_range:param <- $r4
	add	r6, sp, #12
.Ltmp33:
	.loc	2 111 5 prologue_end            @ ../../../ThirdParty/mbedTLS/library/dhm.c:111:5
	mov	r0, r6
	bl	mbedtls_mpi_init
	mov	r0, sp
	.loc	2 112 5                         @ ../../../ThirdParty/mbedTLS/library/dhm.c:112:5
	bl	mbedtls_mpi_init
	movs	r1, #2
.Ltmp34:
	.loc	2 114 5                         @ ../../../ThirdParty/mbedTLS/library/dhm.c:114:5
	mov	r0, r6
	bl	mbedtls_mpi_lset
	mov	r6, r0
.Ltmp35:
	@DEBUG_VALUE: dhm_check_range:ret <- $r6
	.loc	2 114 5 is_stmt 0               @ ../../../ThirdParty/mbedTLS/library/dhm.c:114:5
	cbnz	r0, .LBB3_6
.Ltmp36:
@ %bb.1:
	@DEBUG_VALUE: dhm_check_range:ret <- $r6
	@DEBUG_VALUE: dhm_check_range:P <- $r5
	@DEBUG_VALUE: dhm_check_range:param <- $r4
	.loc	2 0 5                           @ ../../../ThirdParty/mbedTLS/library/dhm.c:0:5
	mov	r0, sp
	movs	r2, #2
.Ltmp37:
	.loc	2 115 5 is_stmt 1               @ ../../../ThirdParty/mbedTLS/library/dhm.c:115:5
	mov	r1, r5
	bl	mbedtls_mpi_sub_int
	mov	r6, r0
.Ltmp38:
	@DEBUG_VALUE: dhm_check_range:ret <- $r6
	.loc	2 115 5 is_stmt 0               @ ../../../ThirdParty/mbedTLS/library/dhm.c:115:5
	cbnz	r0, .LBB3_6
.Ltmp39:
@ %bb.2:
	@DEBUG_VALUE: dhm_check_range:ret <- $r6
	@DEBUG_VALUE: dhm_check_range:P <- $r5
	@DEBUG_VALUE: dhm_check_range:param <- $r4
	.loc	2 0 5                           @ ../../../ThirdParty/mbedTLS/library/dhm.c:0:5
	add	r1, sp, #12
.Ltmp40:
	.loc	2 117 9 is_stmt 1               @ ../../../ThirdParty/mbedTLS/library/dhm.c:117:9
	mov	r0, r4
	bl	mbedtls_mpi_cmp_mpi
	.loc	2 117 46 is_stmt 0              @ ../../../ThirdParty/mbedTLS/library/dhm.c:117:46
	cmp	r0, #0
	bmi	.LBB3_4
.Ltmp41:
@ %bb.3:
	@DEBUG_VALUE: dhm_check_range:ret <- $r6
	@DEBUG_VALUE: dhm_check_range:P <- $r5
	@DEBUG_VALUE: dhm_check_range:param <- $r4
	.loc	2 0 46                          @ ../../../ThirdParty/mbedTLS/library/dhm.c:0:46
	mov	r1, sp
	.loc	2 118 13 is_stmt 1              @ ../../../ThirdParty/mbedTLS/library/dhm.c:118:13
	mov	r0, r4
	bl	mbedtls_mpi_cmp_mpi
.Ltmp42:
	.loc	2 117 9                         @ ../../../ThirdParty/mbedTLS/library/dhm.c:117:9
	cmp	r0, #1
	blt	.LBB3_5
.Ltmp43:
.LBB3_4:
	@DEBUG_VALUE: dhm_check_range:ret <- $r6
	@DEBUG_VALUE: dhm_check_range:P <- $r5
	@DEBUG_VALUE: dhm_check_range:param <- $r4
	.loc	2 0 9 is_stmt 0                 @ ../../../ThirdParty/mbedTLS/library/dhm.c:0:9
	ldr	r6, __arm_cp.3_0
.Ltmp44:
	@DEBUG_VALUE: dhm_check_range:ret <- -12416
	b	.LBB3_6
.Ltmp45:
.LBB3_5:
	@DEBUG_VALUE: dhm_check_range:ret <- $r6
	@DEBUG_VALUE: dhm_check_range:P <- $r5
	@DEBUG_VALUE: dhm_check_range:param <- $r4
	movs	r6, #0
.Ltmp46:
.LBB3_6:
	@DEBUG_VALUE: dhm_check_range:P <- $r5
	@DEBUG_VALUE: dhm_check_range:param <- $r4
	@DEBUG_VALUE: dhm_check_range:ret <- $r6
	@DEBUG_LABEL: dhm_check_range:cleanup
	add	r0, sp, #12
	.loc	2 124 5 is_stmt 1               @ ../../../ThirdParty/mbedTLS/library/dhm.c:124:5
	bl	mbedtls_mpi_free
	mov	r0, sp
	.loc	2 125 5                         @ ../../../ThirdParty/mbedTLS/library/dhm.c:125:5
	bl	mbedtls_mpi_free
	.loc	2 126 5                         @ ../../../ThirdParty/mbedTLS/library/dhm.c:126:5
	mov	r0, r6
	add	sp, #24
	pop	{r4, r5, r6, pc}
.Ltmp47:
	.p2align	2
@ %bb.7:
	.loc	2 0 5 is_stmt 0                 @ ../../../ThirdParty/mbedTLS/library/dhm.c:0:5
__arm_cp.3_0:
	.long	4294954880                      @ 0xffffcf80
.Lcpi_end1:
	.size	__arm_cp.3_0, .Lcpi_end1-__arm_cp.3_0
.Lfunc_end3:
	.size	dhm_check_range, .Lfunc_end3-dhm_check_range
	.cfi_endproc
	.cantunwind
	.fnend
                                        @ -- End function
	.section	.text.mbedtls_dhm_make_params,"ax",%progbits
	.hidden	mbedtls_dhm_make_params         @ -- Begin function mbedtls_dhm_make_params
	.globl	mbedtls_dhm_make_params
	.p2align	2
	.type	mbedtls_dhm_make_params,%function
	.code	16                              @ @mbedtls_dhm_make_params
	.thumb_func
mbedtls_dhm_make_params:
.Lfunc_begin4:
	.loc	2 167 0 is_stmt 1               @ ../../../ThirdParty/mbedTLS/library/dhm.c:167:0
	.fnstart
	.cfi_startproc
@ %bb.0:
	@DEBUG_VALUE: mbedtls_dhm_make_params:ctx <- $r0
	@DEBUG_VALUE: mbedtls_dhm_make_params:x_size <- $r1
	@DEBUG_VALUE: mbedtls_dhm_make_params:output <- $r2
	@DEBUG_VALUE: mbedtls_dhm_make_params:olen <- $r3
	.save	{r4, r5, r6, r7, lr}
	push	{r4, r5, r6, r7, lr}
	.cfi_def_cfa_offset 20
	.cfi_offset lr, -4
	.cfi_offset r7, -8
	.cfi_offset r6, -12
	.cfi_offset r5, -16
	.cfi_offset r4, -20
	.pad	#28
	sub	sp, #28
	.cfi_def_cfa_offset 48
	mov	r4, r3
	str	r2, [sp, #16]                   @ 4-byte Spill
	str	r1, [sp, #24]                   @ 4-byte Spill
	mov	r5, r0
.Ltmp48:
	@DEBUG_VALUE: mbedtls_dhm_make_params:p_rng <- [DW_OP_plus_uconst 52] [$sp+0]
	@DEBUG_VALUE: mbedtls_dhm_make_params:f_rng <- [DW_OP_plus_uconst 48] [$sp+0]
	@DEBUG_VALUE: mbedtls_dhm_make_params:olen <- $r4
	@DEBUG_VALUE: mbedtls_dhm_make_params:output <- [DW_OP_plus_uconst 16] [$sp+0]
	@DEBUG_VALUE: mbedtls_dhm_make_params:x_size <- [DW_OP_plus_uconst 24] [$sp+0]
	@DEBUG_VALUE: mbedtls_dhm_make_params:ctx <- $r5
	@DEBUG_VALUE: mbedtls_dhm_make_params:count <- 0
	.loc	2 176 36 prologue_end           @ ../../../ThirdParty/mbedTLS/library/dhm.c:176:36
	adds	r7, r0, #4
	movs	r6, #0
	.loc	2 176 9 is_stmt 0               @ ../../../ThirdParty/mbedTLS/library/dhm.c:176:9
	mov	r0, r7
	mov	r1, r6
	bl	mbedtls_mpi_cmp_int
.Ltmp49:
	.loc	2 176 9                         @ ../../../ThirdParty/mbedTLS/library/dhm.c:176:9
	cbz	r0, .LBB4_11
.Ltmp50:
@ %bb.1:
	@DEBUG_VALUE: mbedtls_dhm_make_params:ctx <- $r5
	@DEBUG_VALUE: mbedtls_dhm_make_params:olen <- $r4
	@DEBUG_VALUE: mbedtls_dhm_make_params:x_size <- [DW_OP_plus_uconst 24] [$sp+0]
	@DEBUG_VALUE: mbedtls_dhm_make_params:output <- [DW_OP_plus_uconst 16] [$sp+0]
	@DEBUG_VALUE: mbedtls_dhm_make_params:f_rng <- [DW_OP_plus_uconst 48] [$sp+0]
	@DEBUG_VALUE: mbedtls_dhm_make_params:p_rng <- [DW_OP_plus_uconst 52] [$sp+0]
	@DEBUG_VALUE: mbedtls_dhm_make_params:count <- 0
	.loc	2 0 9                           @ ../../../ThirdParty/mbedTLS/library/dhm.c:0:9
	str	r4, [sp, #8]                    @ 4-byte Spill
.Ltmp51:
	@DEBUG_VALUE: mbedtls_dhm_make_params:olen <- [DW_OP_plus_uconst 8] [$sp+0]
	ldr	r3, [sp, #52]
	ldr	r2, [sp, #48]
	str	r5, [sp, #12]                   @ 4-byte Spill
.Ltmp52:
	@DEBUG_VALUE: mbedtls_dhm_make_params:ctx <- [DW_OP_plus_uconst 12] [$sp+0]
	adds	r5, #28
	str	r2, [sp, #20]                   @ 4-byte Spill
.Ltmp53:
.LBB4_2:                                @ =>This Loop Header: Depth=1
                                        @     Child Loop BB4_3 Depth 2
	@DEBUG_VALUE: mbedtls_dhm_make_params:ctx <- [DW_OP_plus_uconst 12] [$sp+0]
	@DEBUG_VALUE: mbedtls_dhm_make_params:olen <- [DW_OP_plus_uconst 8] [$sp+0]
	@DEBUG_VALUE: mbedtls_dhm_make_params:x_size <- [DW_OP_plus_uconst 24] [$sp+0]
	@DEBUG_VALUE: mbedtls_dhm_make_params:output <- [DW_OP_plus_uconst 16] [$sp+0]
	@DEBUG_VALUE: mbedtls_dhm_make_params:f_rng <- [DW_OP_plus_uconst 48] [$sp+0]
	@DEBUG_VALUE: mbedtls_dhm_make_params:p_rng <- [DW_OP_plus_uconst 52] [$sp+0]
	@DEBUG_VALUE: mbedtls_dhm_make_params:count <- $r6
	.loc	2 184 9 is_stmt 1               @ ../../../ThirdParty/mbedTLS/library/dhm.c:184:9
	mov	r0, r5
	ldr	r1, [sp, #24]                   @ 4-byte Reload
	mov	r4, r3
	bl	mbedtls_mpi_fill_random
.Ltmp54:
	@DEBUG_VALUE: mbedtls_dhm_make_params:ret <- $r0
	.loc	2 0 0 is_stmt 0                 @ ../../../ThirdParty/mbedTLS/library/dhm.c:0:0
	cbnz	r0, .LBB4_8
.Ltmp55:
.LBB4_3:                                @   Parent Loop BB4_2 Depth=1
                                        @ =>  This Inner Loop Header: Depth=2
	@DEBUG_VALUE: mbedtls_dhm_make_params:ctx <- [DW_OP_plus_uconst 12] [$sp+0]
	@DEBUG_VALUE: mbedtls_dhm_make_params:olen <- [DW_OP_plus_uconst 8] [$sp+0]
	@DEBUG_VALUE: mbedtls_dhm_make_params:count <- $r6
	@DEBUG_VALUE: mbedtls_dhm_make_params:ret <- $r0
	@DEBUG_VALUE: mbedtls_dhm_make_params:x_size <- [DW_OP_plus_uconst 24] [$sp+0]
	@DEBUG_VALUE: mbedtls_dhm_make_params:output <- [DW_OP_plus_uconst 16] [$sp+0]
	@DEBUG_VALUE: mbedtls_dhm_make_params:f_rng <- [DW_OP_plus_uconst 48] [$sp+0]
	@DEBUG_VALUE: mbedtls_dhm_make_params:p_rng <- [DW_OP_plus_uconst 52] [$sp+0]
	.loc	2 186 16 is_stmt 1              @ ../../../ThirdParty/mbedTLS/library/dhm.c:186:16
	mov	r0, r5
.Ltmp56:
	mov	r1, r7
	bl	mbedtls_mpi_cmp_mpi
	.loc	2 186 9 is_stmt 0               @ ../../../ThirdParty/mbedTLS/library/dhm.c:186:9
	cmp	r0, #0
	bmi	.LBB4_5
.Ltmp57:
@ %bb.4:                                @   in Loop: Header=BB4_3 Depth=2
	@DEBUG_VALUE: mbedtls_dhm_make_params:ctx <- [DW_OP_plus_uconst 12] [$sp+0]
	@DEBUG_VALUE: mbedtls_dhm_make_params:olen <- [DW_OP_plus_uconst 8] [$sp+0]
	@DEBUG_VALUE: mbedtls_dhm_make_params:count <- $r6
	@DEBUG_VALUE: mbedtls_dhm_make_params:x_size <- [DW_OP_plus_uconst 24] [$sp+0]
	@DEBUG_VALUE: mbedtls_dhm_make_params:output <- [DW_OP_plus_uconst 16] [$sp+0]
	@DEBUG_VALUE: mbedtls_dhm_make_params:f_rng <- [DW_OP_plus_uconst 48] [$sp+0]
	@DEBUG_VALUE: mbedtls_dhm_make_params:p_rng <- [DW_OP_plus_uconst 52] [$sp+0]
	.loc	2 0 9                           @ ../../../ThirdParty/mbedTLS/library/dhm.c:0:9
	movs	r1, #1
.Ltmp58:
	.loc	2 187 13 is_stmt 1              @ ../../../ThirdParty/mbedTLS/library/dhm.c:187:13
	mov	r0, r5
	bl	mbedtls_mpi_shift_r
.Ltmp59:
	@DEBUG_VALUE: mbedtls_dhm_make_params:ret <- $r0
	.loc	2 0 0 is_stmt 0                 @ ../../../ThirdParty/mbedTLS/library/dhm.c:0:0
	cmp	r0, #0
	beq	.LBB4_3
	b	.LBB4_8
.Ltmp60:
.LBB4_5:                                @   in Loop: Header=BB4_2 Depth=1
	@DEBUG_VALUE: mbedtls_dhm_make_params:ctx <- [DW_OP_plus_uconst 12] [$sp+0]
	@DEBUG_VALUE: mbedtls_dhm_make_params:olen <- [DW_OP_plus_uconst 8] [$sp+0]
	@DEBUG_VALUE: mbedtls_dhm_make_params:count <- $r6
	@DEBUG_VALUE: mbedtls_dhm_make_params:x_size <- [DW_OP_plus_uconst 24] [$sp+0]
	@DEBUG_VALUE: mbedtls_dhm_make_params:output <- [DW_OP_plus_uconst 16] [$sp+0]
	@DEBUG_VALUE: mbedtls_dhm_make_params:f_rng <- [DW_OP_plus_uconst 48] [$sp+0]
	@DEBUG_VALUE: mbedtls_dhm_make_params:p_rng <- [DW_OP_plus_uconst 52] [$sp+0]
	@DEBUG_VALUE: mbedtls_dhm_make_params:count <- [DW_OP_plus_uconst 1, DW_OP_stack_value] $r6
	.loc	2 189 13 is_stmt 1              @ ../../../ThirdParty/mbedTLS/library/dhm.c:189:13
	cmp	r6, #11
	beq	.LBB4_12
.Ltmp61:
@ %bb.6:                                @   in Loop: Header=BB4_2 Depth=1
	@DEBUG_VALUE: mbedtls_dhm_make_params:ctx <- [DW_OP_plus_uconst 12] [$sp+0]
	@DEBUG_VALUE: mbedtls_dhm_make_params:olen <- [DW_OP_plus_uconst 8] [$sp+0]
	@DEBUG_VALUE: mbedtls_dhm_make_params:count <- [DW_OP_plus_uconst 1, DW_OP_stack_value] $r6
	@DEBUG_VALUE: mbedtls_dhm_make_params:x_size <- [DW_OP_plus_uconst 24] [$sp+0]
	@DEBUG_VALUE: mbedtls_dhm_make_params:output <- [DW_OP_plus_uconst 16] [$sp+0]
	@DEBUG_VALUE: mbedtls_dhm_make_params:f_rng <- [DW_OP_plus_uconst 48] [$sp+0]
	@DEBUG_VALUE: mbedtls_dhm_make_params:p_rng <- [DW_OP_plus_uconst 52] [$sp+0]
	.loc	2 192 12                        @ ../../../ThirdParty/mbedTLS/library/dhm.c:192:12
	mov	r0, r5
	mov	r1, r7
	bl	dhm_check_range
.Ltmp62:
	.loc	2 189 18                        @ ../../../ThirdParty/mbedTLS/library/dhm.c:189:18
	adds	r6, r6, #1
.Ltmp63:
	@DEBUG_VALUE: mbedtls_dhm_make_params:count <- $r6
	.loc	2 191 5                         @ ../../../ThirdParty/mbedTLS/library/dhm.c:191:5
	cmp	r0, #0
	mov	r3, r4
	ldr	r2, [sp, #20]                   @ 4-byte Reload
	bne	.LBB4_2
.Ltmp64:
@ %bb.7:
	@DEBUG_VALUE: mbedtls_dhm_make_params:ctx <- [DW_OP_plus_uconst 12] [$sp+0]
	@DEBUG_VALUE: mbedtls_dhm_make_params:olen <- [DW_OP_plus_uconst 8] [$sp+0]
	@DEBUG_VALUE: mbedtls_dhm_make_params:count <- $r6
	@DEBUG_VALUE: mbedtls_dhm_make_params:x_size <- [DW_OP_plus_uconst 24] [$sp+0]
	@DEBUG_VALUE: mbedtls_dhm_make_params:output <- [DW_OP_plus_uconst 16] [$sp+0]
	@DEBUG_VALUE: mbedtls_dhm_make_params:f_rng <- [DW_OP_plus_uconst 48] [$sp+0]
	@DEBUG_VALUE: mbedtls_dhm_make_params:p_rng <- [DW_OP_plus_uconst 52] [$sp+0]
	.loc	2 0 5 is_stmt 0                 @ ../../../ThirdParty/mbedTLS/library/dhm.c:0:5
	ldr	r6, [sp, #12]                   @ 4-byte Reload
.Ltmp65:
	@DEBUG_VALUE: mbedtls_dhm_make_params:ctx <- $r6
	.loc	2 197 5 is_stmt 1               @ ../../../ThirdParty/mbedTLS/library/dhm.c:197:5
	mov	r0, r6
	adds	r0, #76
	str	r0, [sp]
	mov	r4, r6
	adds	r4, #40
	adds	r6, #16
.Ltmp66:
	mov	r0, r4
	mov	r1, r6
	mov	r2, r5
	mov	r3, r7
	bl	mbedtls_mpi_exp_mod
.Ltmp67:
	@DEBUG_VALUE: mbedtls_dhm_make_params:ret <- $r0
	.loc	2 197 5 is_stmt 0               @ ../../../ThirdParty/mbedTLS/library/dhm.c:197:5
	cbz	r0, .LBB4_14
.Ltmp68:
.LBB4_8:
	@DEBUG_VALUE: mbedtls_dhm_make_params:x_size <- [DW_OP_plus_uconst 24] [$sp+0]
	@DEBUG_VALUE: mbedtls_dhm_make_params:output <- [DW_OP_plus_uconst 16] [$sp+0]
	@DEBUG_VALUE: mbedtls_dhm_make_params:f_rng <- [DW_OP_plus_uconst 48] [$sp+0]
	@DEBUG_VALUE: mbedtls_dhm_make_params:p_rng <- [DW_OP_plus_uconst 52] [$sp+0]
	@DEBUG_VALUE: mbedtls_dhm_make_params:ret <- $r0
	@DEBUG_LABEL: mbedtls_dhm_make_params:cleanup
	.loc	2 231 9 is_stmt 1               @ ../../../ThirdParty/mbedTLS/library/dhm.c:231:9
	cbz	r0, .LBB4_10
.Ltmp69:
@ %bb.9:
	@DEBUG_VALUE: mbedtls_dhm_make_params:ret <- $r0
	@DEBUG_VALUE: mbedtls_dhm_make_params:x_size <- [DW_OP_plus_uconst 24] [$sp+0]
	@DEBUG_VALUE: mbedtls_dhm_make_params:output <- [DW_OP_plus_uconst 16] [$sp+0]
	@DEBUG_VALUE: mbedtls_dhm_make_params:f_rng <- [DW_OP_plus_uconst 48] [$sp+0]
	@DEBUG_VALUE: mbedtls_dhm_make_params:p_rng <- [DW_OP_plus_uconst 52] [$sp+0]
	.loc	2 0 9 is_stmt 0                 @ ../../../ThirdParty/mbedTLS/library/dhm.c:0:9
	movw	r1, #12672
	subs	r0, r0, r1
.Ltmp70:
.LBB4_10:
	@DEBUG_VALUE: mbedtls_dhm_make_params:x_size <- [DW_OP_plus_uconst 24] [$sp+0]
	@DEBUG_VALUE: mbedtls_dhm_make_params:output <- [DW_OP_plus_uconst 16] [$sp+0]
	@DEBUG_VALUE: mbedtls_dhm_make_params:f_rng <- [DW_OP_plus_uconst 48] [$sp+0]
	@DEBUG_VALUE: mbedtls_dhm_make_params:p_rng <- [DW_OP_plus_uconst 52] [$sp+0]
	.loc	2 231 9                         @ ../../../ThirdParty/mbedTLS/library/dhm.c:231:9
	add	sp, #28
.Ltmp71:
	pop	{r4, r5, r6, r7, pc}
.LBB4_11:
.Ltmp72:
	@DEBUG_VALUE: mbedtls_dhm_make_params:ctx <- $r5
	@DEBUG_VALUE: mbedtls_dhm_make_params:olen <- $r4
	@DEBUG_VALUE: mbedtls_dhm_make_params:x_size <- [DW_OP_plus_uconst 24] [$sp+0]
	@DEBUG_VALUE: mbedtls_dhm_make_params:output <- [DW_OP_plus_uconst 16] [$sp+0]
	@DEBUG_VALUE: mbedtls_dhm_make_params:f_rng <- [DW_OP_plus_uconst 48] [$sp+0]
	@DEBUG_VALUE: mbedtls_dhm_make_params:p_rng <- [DW_OP_plus_uconst 52] [$sp+0]
	@DEBUG_VALUE: mbedtls_dhm_make_params:count <- 0
	.loc	2 0 9                           @ ../../../ThirdParty/mbedTLS/library/dhm.c:0:9
	ldr	r0, __arm_cp.4_0
	.loc	2 235 1 is_stmt 1               @ ../../../ThirdParty/mbedTLS/library/dhm.c:235:1
	add	sp, #28
.Ltmp73:
	pop	{r4, r5, r6, r7, pc}
.Ltmp74:
.LBB4_12:
	@DEBUG_VALUE: mbedtls_dhm_make_params:ctx <- [DW_OP_plus_uconst 12] [$sp+0]
	@DEBUG_VALUE: mbedtls_dhm_make_params:olen <- [DW_OP_plus_uconst 8] [$sp+0]
	@DEBUG_VALUE: mbedtls_dhm_make_params:count <- [DW_OP_plus_uconst 1, DW_OP_stack_value] $r6
	@DEBUG_VALUE: mbedtls_dhm_make_params:x_size <- [DW_OP_plus_uconst 24] [$sp+0]
	@DEBUG_VALUE: mbedtls_dhm_make_params:output <- [DW_OP_plus_uconst 16] [$sp+0]
	@DEBUG_VALUE: mbedtls_dhm_make_params:f_rng <- [DW_OP_plus_uconst 48] [$sp+0]
	@DEBUG_VALUE: mbedtls_dhm_make_params:p_rng <- [DW_OP_plus_uconst 52] [$sp+0]
	.loc	2 0 1 is_stmt 0                 @ ../../../ThirdParty/mbedTLS/library/dhm.c:0:1
	ldr	r0, __arm_cp.4_1
.Ltmp75:
.LBB4_13:
	@DEBUG_VALUE: mbedtls_dhm_make_params:olen <- [DW_OP_plus_uconst 8] [$sp+0]
	@DEBUG_VALUE: mbedtls_dhm_make_params:x_size <- [DW_OP_plus_uconst 24] [$sp+0]
	@DEBUG_VALUE: mbedtls_dhm_make_params:output <- [DW_OP_plus_uconst 16] [$sp+0]
	@DEBUG_VALUE: mbedtls_dhm_make_params:f_rng <- [DW_OP_plus_uconst 48] [$sp+0]
	@DEBUG_VALUE: mbedtls_dhm_make_params:p_rng <- [DW_OP_plus_uconst 52] [$sp+0]
	.loc	2 235 1                         @ ../../../ThirdParty/mbedTLS/library/dhm.c:235:1
	add	sp, #28
.Ltmp76:
	pop	{r4, r5, r6, r7, pc}
.LBB4_14:
.Ltmp77:
	@DEBUG_VALUE: mbedtls_dhm_make_params:olen <- [DW_OP_plus_uconst 8] [$sp+0]
	@DEBUG_VALUE: mbedtls_dhm_make_params:ret <- $r0
	@DEBUG_VALUE: mbedtls_dhm_make_params:x_size <- [DW_OP_plus_uconst 24] [$sp+0]
	@DEBUG_VALUE: mbedtls_dhm_make_params:output <- [DW_OP_plus_uconst 16] [$sp+0]
	@DEBUG_VALUE: mbedtls_dhm_make_params:f_rng <- [DW_OP_plus_uconst 48] [$sp+0]
	@DEBUG_VALUE: mbedtls_dhm_make_params:p_rng <- [DW_OP_plus_uconst 52] [$sp+0]
	.loc	2 200 17 is_stmt 1              @ ../../../ThirdParty/mbedTLS/library/dhm.c:200:17
	mov	r0, r4
.Ltmp78:
	mov	r1, r7
	bl	dhm_check_range
.Ltmp79:
	@DEBUG_VALUE: mbedtls_dhm_make_params:ret <- $r0
	.loc	2 200 9 is_stmt 0               @ ../../../ThirdParty/mbedTLS/library/dhm.c:200:9
	cmp	r0, #0
	bne	.LBB4_13
.Ltmp80:
@ %bb.15:
	@DEBUG_VALUE: mbedtls_dhm_make_params:olen <- [DW_OP_plus_uconst 8] [$sp+0]
	@DEBUG_VALUE: mbedtls_dhm_make_params:ret <- $r0
	@DEBUG_VALUE: mbedtls_dhm_make_params:x_size <- [DW_OP_plus_uconst 24] [$sp+0]
	@DEBUG_VALUE: mbedtls_dhm_make_params:output <- [DW_OP_plus_uconst 16] [$sp+0]
	@DEBUG_VALUE: mbedtls_dhm_make_params:f_rng <- [DW_OP_plus_uconst 48] [$sp+0]
	@DEBUG_VALUE: mbedtls_dhm_make_params:p_rng <- [DW_OP_plus_uconst 52] [$sp+0]
	.loc	2 0 9                           @ ../../../ThirdParty/mbedTLS/library/dhm.c:0:9
	mov	r5, r4
	.loc	2 216 10 is_stmt 1              @ ../../../ThirdParty/mbedTLS/library/dhm.c:216:10
	mov	r0, r7
.Ltmp81:
	bl	mbedtls_mpi_size
	str	r0, [sp, #24]                   @ 4-byte Spill
.Ltmp82:
	@DEBUG_VALUE: mbedtls_dhm_make_params:n1 <- [DW_OP_plus_uconst 24] [$sp+0]
	.loc	2 217 10                        @ ../../../ThirdParty/mbedTLS/library/dhm.c:217:10
	mov	r0, r6
	bl	mbedtls_mpi_size
	mov	r4, r0
.Ltmp83:
	@DEBUG_VALUE: mbedtls_dhm_make_params:n2 <- $r4
	.loc	2 218 10                        @ ../../../ThirdParty/mbedTLS/library/dhm.c:218:10
	mov	r0, r5
	bl	mbedtls_mpi_size
	str	r0, [sp, #20]                   @ 4-byte Spill
.Ltmp84:
	@DEBUG_VALUE: mbedtls_dhm_make_params:n3 <- [DW_OP_plus_uconst 20] [$sp+0]
	@DEBUG_VALUE: mbedtls_dhm_make_params:p <- [DW_OP_plus_uconst 16] [$sp+0]
	.loc	2 221 5                         @ ../../../ThirdParty/mbedTLS/library/dhm.c:221:5
	ldr	r0, [sp, #16]                   @ 4-byte Reload
.Ltmp85:
	@DEBUG_VALUE: mbedtls_dhm_make_params:p <- $r0
	.loc	2 0 5 is_stmt 0                 @ ../../../ThirdParty/mbedTLS/library/dhm.c:0:5
	str	r5, [sp, #4]                    @ 4-byte Spill
	.loc	2 221 5                         @ ../../../ThirdParty/mbedTLS/library/dhm.c:221:5
	adds	r5, r0, #2
.Ltmp86:
	@DEBUG_VALUE: mbedtls_dhm_make_params:p <- [DW_OP_plus_uconst 16] [$sp+0]
	mov	r0, r7
	ldr	r7, [sp, #24]                   @ 4-byte Reload
.Ltmp87:
	@DEBUG_VALUE: mbedtls_dhm_make_params:n1 <- $r7
	mov	r1, r5
	mov	r2, r7
	bl	mbedtls_mpi_write_binary
.Ltmp88:
	@DEBUG_VALUE: mbedtls_dhm_make_params:ret <- $r0
	.loc	2 221 5                         @ ../../../ThirdParty/mbedTLS/library/dhm.c:221:5
	cmp	r0, #0
	bne	.LBB4_8
.Ltmp89:
@ %bb.16:
	@DEBUG_VALUE: mbedtls_dhm_make_params:olen <- [DW_OP_plus_uconst 8] [$sp+0]
	@DEBUG_VALUE: mbedtls_dhm_make_params:n1 <- $r7
	@DEBUG_VALUE: mbedtls_dhm_make_params:n2 <- $r4
	@DEBUG_VALUE: mbedtls_dhm_make_params:ret <- $r0
	@DEBUG_VALUE: mbedtls_dhm_make_params:p <- [DW_OP_plus_uconst 16] [$sp+0]
	@DEBUG_VALUE: mbedtls_dhm_make_params:n3 <- [DW_OP_plus_uconst 20] [$sp+0]
	@DEBUG_VALUE: mbedtls_dhm_make_params:x_size <- [DW_OP_plus_uconst 24] [$sp+0]
	@DEBUG_VALUE: mbedtls_dhm_make_params:output <- [DW_OP_plus_uconst 16] [$sp+0]
	@DEBUG_VALUE: mbedtls_dhm_make_params:f_rng <- [DW_OP_plus_uconst 48] [$sp+0]
	@DEBUG_VALUE: mbedtls_dhm_make_params:p_rng <- [DW_OP_plus_uconst 52] [$sp+0]
	@DEBUG_VALUE: mbedtls_dhm_make_params:p <- $r5
	.loc	2 0 5                           @ ../../../ThirdParty/mbedTLS/library/dhm.c:0:5
	ldr	r1, [sp, #16]                   @ 4-byte Reload
	.loc	2 221 5                         @ ../../../ThirdParty/mbedTLS/library/dhm.c:221:5
	strb	r7, [r1, #1]
	lsrs	r0, r7, #8
.Ltmp90:
	strb	r0, [r1]
	adds	r5, r5, r7
.Ltmp91:
	@DEBUG_VALUE: mbedtls_dhm_make_params:p <- $r5
	.loc	2 222 5 is_stmt 1               @ ../../../ThirdParty/mbedTLS/library/dhm.c:222:5
	adds	r1, r5, #2
	mov	r0, r6
	mov	r2, r4
	bl	mbedtls_mpi_write_binary
.Ltmp92:
	@DEBUG_VALUE: mbedtls_dhm_make_params:ret <- $r0
	.loc	2 222 5 is_stmt 0               @ ../../../ThirdParty/mbedTLS/library/dhm.c:222:5
	cmp	r0, #0
	bne	.LBB4_8
.Ltmp93:
@ %bb.17:
	@DEBUG_VALUE: mbedtls_dhm_make_params:olen <- [DW_OP_plus_uconst 8] [$sp+0]
	@DEBUG_VALUE: mbedtls_dhm_make_params:n1 <- $r7
	@DEBUG_VALUE: mbedtls_dhm_make_params:p <- $r5
	@DEBUG_VALUE: mbedtls_dhm_make_params:n2 <- $r4
	@DEBUG_VALUE: mbedtls_dhm_make_params:ret <- $r0
	@DEBUG_VALUE: mbedtls_dhm_make_params:n3 <- [DW_OP_plus_uconst 20] [$sp+0]
	@DEBUG_VALUE: mbedtls_dhm_make_params:x_size <- [DW_OP_plus_uconst 24] [$sp+0]
	@DEBUG_VALUE: mbedtls_dhm_make_params:output <- [DW_OP_plus_uconst 16] [$sp+0]
	@DEBUG_VALUE: mbedtls_dhm_make_params:f_rng <- [DW_OP_plus_uconst 48] [$sp+0]
	@DEBUG_VALUE: mbedtls_dhm_make_params:p_rng <- [DW_OP_plus_uconst 52] [$sp+0]
	@DEBUG_VALUE: mbedtls_dhm_make_params:p <- undef
	.loc	2 222 5                         @ ../../../ThirdParty/mbedTLS/library/dhm.c:222:5
	strb	r4, [r5, #1]
	lsrs	r0, r4, #8
.Ltmp94:
	strb	r0, [r5]
	adds	r0, r5, #1
.Ltmp95:
	@DEBUG_VALUE: mbedtls_dhm_make_params:p <- $r0
	adds	r5, r0, r4
.Ltmp96:
	@DEBUG_VALUE: mbedtls_dhm_make_params:p <- undef
	.loc	2 223 5 is_stmt 1               @ ../../../ThirdParty/mbedTLS/library/dhm.c:223:5
	adds	r1, r5, #3
	ldr	r0, [sp, #4]                    @ 4-byte Reload
	ldr	r2, [sp, #20]                   @ 4-byte Reload
	bl	mbedtls_mpi_write_binary
.Ltmp97:
	@DEBUG_VALUE: mbedtls_dhm_make_params:ret <- $r0
	.loc	2 223 5 is_stmt 0               @ ../../../ThirdParty/mbedTLS/library/dhm.c:223:5
	cmp	r0, #0
	bne	.LBB4_8
.Ltmp98:
@ %bb.18:
	@DEBUG_VALUE: mbedtls_dhm_make_params:olen <- [DW_OP_plus_uconst 8] [$sp+0]
	@DEBUG_VALUE: mbedtls_dhm_make_params:n1 <- $r7
	@DEBUG_VALUE: mbedtls_dhm_make_params:n2 <- $r4
	@DEBUG_VALUE: mbedtls_dhm_make_params:ret <- $r0
	@DEBUG_VALUE: mbedtls_dhm_make_params:n3 <- [DW_OP_plus_uconst 20] [$sp+0]
	@DEBUG_VALUE: mbedtls_dhm_make_params:x_size <- [DW_OP_plus_uconst 24] [$sp+0]
	@DEBUG_VALUE: mbedtls_dhm_make_params:output <- [DW_OP_plus_uconst 16] [$sp+0]
	@DEBUG_VALUE: mbedtls_dhm_make_params:f_rng <- [DW_OP_plus_uconst 48] [$sp+0]
	@DEBUG_VALUE: mbedtls_dhm_make_params:p_rng <- [DW_OP_plus_uconst 52] [$sp+0]
	.loc	2 0 0                           @ ../../../ThirdParty/mbedTLS/library/dhm.c:0:0
	adds	r0, r5, #1
.Ltmp99:
	@DEBUG_VALUE: mbedtls_dhm_make_params:p <- undef
	ldr	r2, [sp, #20]                   @ 4-byte Reload
.Ltmp100:
	.loc	2 223 5                         @ ../../../ThirdParty/mbedTLS/library/dhm.c:223:5
	strb	r2, [r0, #1]
	lsrs	r1, r2, #8
	strb	r1, [r0]
	adds	r0, r0, #1
.Ltmp101:
	@DEBUG_VALUE: mbedtls_dhm_make_params:p <- $r0
	adds	r0, r0, r2
.Ltmp102:
	@DEBUG_VALUE: mbedtls_dhm_make_params:p <- undef
	.loc	2 225 15 is_stmt 1              @ ../../../ThirdParty/mbedTLS/library/dhm.c:225:15
	ldr	r1, [sp, #16]                   @ 4-byte Reload
	subs	r0, r0, r1
	adds	r0, r0, #1
	.loc	2 225 11 is_stmt 0              @ ../../../ThirdParty/mbedTLS/library/dhm.c:225:11
	ldr	r1, [sp, #8]                    @ 4-byte Reload
.Ltmp103:
	@DEBUG_VALUE: mbedtls_dhm_make_params:olen <- $r1
	str	r0, [r1]
	.loc	2 227 14 is_stmt 1              @ ../../../ThirdParty/mbedTLS/library/dhm.c:227:14
	ldr	r0, [sp, #12]                   @ 4-byte Reload
	str	r7, [r0]
	movs	r0, #0
	b	.LBB4_8
.Ltmp104:
	.p2align	2
@ %bb.19:
	.loc	2 0 14 is_stmt 0                @ ../../../ThirdParty/mbedTLS/library/dhm.c:0:14
__arm_cp.4_0:
	.long	4294954880                      @ 0xffffcf80
.Lcpi_end2:
	.size	__arm_cp.4_0, .Lcpi_end2-__arm_cp.4_0
__arm_cp.4_1:
	.long	4294954624                      @ 0xffffce80
.Lcpi_end3:
	.size	__arm_cp.4_1, .Lcpi_end3-__arm_cp.4_1
.Lfunc_end4:
	.size	mbedtls_dhm_make_params, .Lfunc_end4-mbedtls_dhm_make_params
	.cfi_endproc
	.cantunwind
	.fnend
                                        @ -- End function
	.section	.text.mbedtls_dhm_set_group,"ax",%progbits
	.hidden	mbedtls_dhm_set_group           @ -- Begin function mbedtls_dhm_set_group
	.globl	mbedtls_dhm_set_group
	.p2align	1
	.type	mbedtls_dhm_set_group,%function
	.code	16                              @ @mbedtls_dhm_set_group
	.thumb_func
mbedtls_dhm_set_group:
.Lfunc_begin5:
	.loc	2 243 0 is_stmt 1               @ ../../../ThirdParty/mbedTLS/library/dhm.c:243:0
	.fnstart
	.cfi_startproc
@ %bb.0:
	@DEBUG_VALUE: mbedtls_dhm_set_group:ctx <- $r0
	@DEBUG_VALUE: mbedtls_dhm_set_group:P <- $r1
	@DEBUG_VALUE: mbedtls_dhm_set_group:G <- $r2
	.save	{r4, r5, r6, lr}
	push	{r4, r5, r6, lr}
	.cfi_def_cfa_offset 16
	.cfi_offset lr, -4
	.cfi_offset r6, -8
	.cfi_offset r5, -12
	.cfi_offset r4, -16
	mov	r6, r2
	mov	r4, r0
.Ltmp105:
	@DEBUG_VALUE: mbedtls_dhm_set_group:G <- $r6
	@DEBUG_VALUE: mbedtls_dhm_set_group:P <- $r1
	@DEBUG_VALUE: mbedtls_dhm_set_group:ctx <- $r4
	.loc	2 249 41 prologue_end           @ ../../../ThirdParty/mbedTLS/library/dhm.c:249:41
	adds	r5, r0, #4
	.loc	2 249 17 is_stmt 0              @ ../../../ThirdParty/mbedTLS/library/dhm.c:249:17
	mov	r0, r5
	@DEBUG_VALUE: mbedtls_dhm_set_group:P <- $r1
	bl	mbedtls_mpi_copy
.Ltmp106:
	@DEBUG_VALUE: mbedtls_dhm_set_group:P <- [DW_OP_LLVM_entry_value 1] $r1
	@DEBUG_VALUE: mbedtls_dhm_set_group:ret <- $r0
	.loc	2 249 55                        @ ../../../ThirdParty/mbedTLS/library/dhm.c:249:55
	cbnz	r0, .LBB5_2
.Ltmp107:
@ %bb.1:
	@DEBUG_VALUE: mbedtls_dhm_set_group:G <- $r6
	@DEBUG_VALUE: mbedtls_dhm_set_group:ctx <- $r4
	@DEBUG_VALUE: mbedtls_dhm_set_group:ret <- $r0
	@DEBUG_VALUE: mbedtls_dhm_set_group:P <- [DW_OP_LLVM_entry_value 1] $r1
	.loc	2 250 45 is_stmt 1              @ ../../../ThirdParty/mbedTLS/library/dhm.c:250:45
	mov	r0, r4
.Ltmp108:
	adds	r0, #16
	.loc	2 250 21 is_stmt 0              @ ../../../ThirdParty/mbedTLS/library/dhm.c:250:21
	mov	r1, r6
	bl	mbedtls_mpi_copy
.Ltmp109:
	@DEBUG_VALUE: mbedtls_dhm_set_group:ret <- $r0
	.loc	2 249 9 is_stmt 1               @ ../../../ThirdParty/mbedTLS/library/dhm.c:249:9
	cbz	r0, .LBB5_3
.Ltmp110:
.LBB5_2:
	@DEBUG_VALUE: mbedtls_dhm_set_group:G <- $r6
	@DEBUG_VALUE: mbedtls_dhm_set_group:ctx <- $r4
	@DEBUG_VALUE: mbedtls_dhm_set_group:ret <- $r0
	@DEBUG_VALUE: mbedtls_dhm_set_group:P <- [DW_OP_LLVM_entry_value 1] $r1
	@DEBUG_VALUE: mbedtls_dhm_set_group:ret <- $r0
	.loc	2 252 50                        @ ../../../ThirdParty/mbedTLS/library/dhm.c:252:50
	movw	r1, #13696
	subs	r0, r0, r1
.Ltmp111:
	.loc	2 257 1                         @ ../../../ThirdParty/mbedTLS/library/dhm.c:257:1
	pop	{r4, r5, r6, pc}
.Ltmp112:
.LBB5_3:
	@DEBUG_VALUE: mbedtls_dhm_set_group:G <- $r6
	@DEBUG_VALUE: mbedtls_dhm_set_group:ctx <- $r4
	@DEBUG_VALUE: mbedtls_dhm_set_group:ret <- $r0
	@DEBUG_VALUE: mbedtls_dhm_set_group:P <- [DW_OP_LLVM_entry_value 1] $r1
	.loc	2 255 16                        @ ../../../ThirdParty/mbedTLS/library/dhm.c:255:16
	mov	r0, r5
.Ltmp113:
	bl	mbedtls_mpi_size
	.loc	2 255 14 is_stmt 0              @ ../../../ThirdParty/mbedTLS/library/dhm.c:255:14
	str	r0, [r4]
	movs	r0, #0
	.loc	2 257 1 is_stmt 1               @ ../../../ThirdParty/mbedTLS/library/dhm.c:257:1
	pop	{r4, r5, r6, pc}
.Ltmp114:
.Lfunc_end5:
	.size	mbedtls_dhm_set_group, .Lfunc_end5-mbedtls_dhm_set_group
	.cfi_endproc
	.cantunwind
	.fnend
                                        @ -- End function
	.section	.text.mbedtls_dhm_read_public,"ax",%progbits
	.hidden	mbedtls_dhm_read_public         @ -- Begin function mbedtls_dhm_read_public
	.globl	mbedtls_dhm_read_public
	.p2align	2
	.type	mbedtls_dhm_read_public,%function
	.code	16                              @ @mbedtls_dhm_read_public
	.thumb_func
mbedtls_dhm_read_public:
.Lfunc_begin6:
	.loc	2 264 0                         @ ../../../ThirdParty/mbedTLS/library/dhm.c:264:0
	.fnstart
	.cfi_startproc
@ %bb.0:
	@DEBUG_VALUE: mbedtls_dhm_read_public:ctx <- $r0
	@DEBUG_VALUE: mbedtls_dhm_read_public:ctx <- $r0
	@DEBUG_VALUE: mbedtls_dhm_read_public:input <- $r1
	@DEBUG_VALUE: mbedtls_dhm_read_public:input <- $r1
	@DEBUG_VALUE: mbedtls_dhm_read_public:ilen <- $r2
	@DEBUG_VALUE: mbedtls_dhm_read_public:ilen <- $r2
	.save	{r7, lr}
	push	{r7, lr}
	.cfi_def_cfa_offset 8
	.cfi_offset lr, -4
	.cfi_offset r7, -8
.Ltmp115:
	.loc	2 269 18 prologue_end           @ ../../../ThirdParty/mbedTLS/library/dhm.c:269:18
	cbz	r2, .LBB6_2
.Ltmp116:
@ %bb.1:
	@DEBUG_VALUE: mbedtls_dhm_read_public:ilen <- $r2
	@DEBUG_VALUE: mbedtls_dhm_read_public:input <- $r1
	@DEBUG_VALUE: mbedtls_dhm_read_public:ctx <- $r0
	.loc	2 269 33 is_stmt 0              @ ../../../ThirdParty/mbedTLS/library/dhm.c:269:33
	ldr	r3, [r0]
.Ltmp117:
	.loc	2 269 9                         @ ../../../ThirdParty/mbedTLS/library/dhm.c:269:9
	cmp	r3, r2
	bhs	.LBB6_3
.Ltmp118:
.LBB6_2:
	@DEBUG_VALUE: mbedtls_dhm_read_public:ilen <- $r2
	@DEBUG_VALUE: mbedtls_dhm_read_public:input <- $r1
	@DEBUG_VALUE: mbedtls_dhm_read_public:ctx <- $r0
	.loc	2 0 9                           @ ../../../ThirdParty/mbedTLS/library/dhm.c:0:9
	ldr	r0, __arm_cp.6_0
.Ltmp119:
	@DEBUG_VALUE: mbedtls_dhm_read_public:ctx <- [DW_OP_LLVM_entry_value 1] $r0
	.loc	2 276 1 is_stmt 1               @ ../../../ThirdParty/mbedTLS/library/dhm.c:276:1
	pop	{r7, pc}
.Ltmp120:
.LBB6_3:
	@DEBUG_VALUE: mbedtls_dhm_read_public:ilen <- $r2
	@DEBUG_VALUE: mbedtls_dhm_read_public:input <- $r1
	@DEBUG_VALUE: mbedtls_dhm_read_public:ctx <- $r0
	.loc	2 272 48                        @ ../../../ThirdParty/mbedTLS/library/dhm.c:272:48
	adds	r0, #52
.Ltmp121:
	@DEBUG_VALUE: mbedtls_dhm_read_public:ctx <- [DW_OP_LLVM_entry_value 1] $r0
	.loc	2 272 17 is_stmt 0              @ ../../../ThirdParty/mbedTLS/library/dhm.c:272:17
	bl	mbedtls_mpi_read_binary
.Ltmp122:
	@DEBUG_VALUE: mbedtls_dhm_read_public:ilen <- [DW_OP_LLVM_entry_value 1] $r2
	@DEBUG_VALUE: mbedtls_dhm_read_public:input <- [DW_OP_LLVM_entry_value 1] $r1
	@DEBUG_VALUE: mbedtls_dhm_read_public:ret <- $r0
	.loc	2 272 9                         @ ../../../ThirdParty/mbedTLS/library/dhm.c:272:9
	cbz	r0, .LBB6_5
.Ltmp123:
@ %bb.4:
	@DEBUG_VALUE: mbedtls_dhm_read_public:ret <- $r0
	@DEBUG_VALUE: mbedtls_dhm_read_public:ilen <- [DW_OP_LLVM_entry_value 1] $r2
	@DEBUG_VALUE: mbedtls_dhm_read_public:input <- [DW_OP_LLVM_entry_value 1] $r1
	@DEBUG_VALUE: mbedtls_dhm_read_public:ctx <- [DW_OP_LLVM_entry_value 1] $r0
	.loc	2 0 9                           @ ../../../ThirdParty/mbedTLS/library/dhm.c:0:9
	movw	r1, #12800
	subs	r0, r0, r1
.Ltmp124:
.LBB6_5:
	@DEBUG_VALUE: mbedtls_dhm_read_public:ilen <- [DW_OP_LLVM_entry_value 1] $r2
	@DEBUG_VALUE: mbedtls_dhm_read_public:input <- [DW_OP_LLVM_entry_value 1] $r1
	@DEBUG_VALUE: mbedtls_dhm_read_public:ctx <- [DW_OP_LLVM_entry_value 1] $r0
	.loc	2 272 9                         @ ../../../ThirdParty/mbedTLS/library/dhm.c:272:9
	pop	{r7, pc}
.Ltmp125:
	.p2align	2
@ %bb.6:
	.loc	2 0 9                           @ ../../../ThirdParty/mbedTLS/library/dhm.c:0:9
__arm_cp.6_0:
	.long	4294954880                      @ 0xffffcf80
.Lcpi_end4:
	.size	__arm_cp.6_0, .Lcpi_end4-__arm_cp.6_0
.Lfunc_end6:
	.size	mbedtls_dhm_read_public, .Lfunc_end6-mbedtls_dhm_read_public
	.cfi_endproc
	.cantunwind
	.fnend
                                        @ -- End function
	.section	.text.mbedtls_dhm_make_public,"ax",%progbits
	.hidden	mbedtls_dhm_make_public         @ -- Begin function mbedtls_dhm_make_public
	.globl	mbedtls_dhm_make_public
	.p2align	2
	.type	mbedtls_dhm_make_public,%function
	.code	16                              @ @mbedtls_dhm_make_public
	.thumb_func
mbedtls_dhm_make_public:
.Lfunc_begin7:
	.loc	2 285 0 is_stmt 1               @ ../../../ThirdParty/mbedTLS/library/dhm.c:285:0
	.fnstart
	.cfi_startproc
@ %bb.0:
	@DEBUG_VALUE: mbedtls_dhm_make_public:ctx <- $r0
	@DEBUG_VALUE: mbedtls_dhm_make_public:x_size <- $r1
	@DEBUG_VALUE: mbedtls_dhm_make_public:output <- $r2
	@DEBUG_VALUE: mbedtls_dhm_make_public:olen <- $r3
	.save	{r4, r5, r6, r7, lr}
	push	{r4, r5, r6, r7, lr}
	.cfi_def_cfa_offset 20
	.cfi_offset lr, -4
	.cfi_offset r7, -8
	.cfi_offset r6, -12
	.cfi_offset r5, -16
	.cfi_offset r4, -20
	.pad	#28
	sub	sp, #28
	.cfi_def_cfa_offset 48
	mov	r7, r3
	ldr	r4, __arm_cp.7_0
.Ltmp126:
	@DEBUG_VALUE: mbedtls_dhm_make_public:count <- 0
	@DEBUG_VALUE: mbedtls_dhm_make_public:p_rng <- [DW_OP_plus_uconst 52] [$sp+0]
	@DEBUG_VALUE: mbedtls_dhm_make_public:f_rng <- [DW_OP_plus_uconst 48] [$sp+0]
	@DEBUG_VALUE: mbedtls_dhm_make_public:olen <- $r7
	@DEBUG_VALUE: mbedtls_dhm_make_public:output <- $r2
	@DEBUG_VALUE: mbedtls_dhm_make_public:x_size <- $r1
	@DEBUG_VALUE: mbedtls_dhm_make_public:ctx <- $r0
	.loc	2 291 18 prologue_end           @ ../../../ThirdParty/mbedTLS/library/dhm.c:291:18
	cmp	r3, #0
	beq	.LBB7_14
.Ltmp127:
@ %bb.1:
	@DEBUG_VALUE: mbedtls_dhm_make_public:olen <- $r7
	@DEBUG_VALUE: mbedtls_dhm_make_public:output <- $r2
	@DEBUG_VALUE: mbedtls_dhm_make_public:x_size <- $r1
	@DEBUG_VALUE: mbedtls_dhm_make_public:ctx <- $r0
	@DEBUG_VALUE: mbedtls_dhm_make_public:f_rng <- [DW_OP_plus_uconst 48] [$sp+0]
	@DEBUG_VALUE: mbedtls_dhm_make_public:p_rng <- [DW_OP_plus_uconst 52] [$sp+0]
	@DEBUG_VALUE: mbedtls_dhm_make_public:count <- 0
	.loc	2 0 18 is_stmt 0                @ ../../../ThirdParty/mbedTLS/library/dhm.c:0:18
	mov	r3, r0
.Ltmp128:
	@DEBUG_VALUE: mbedtls_dhm_make_public:ctx <- $r3
	.loc	2 291 33                        @ ../../../ThirdParty/mbedTLS/library/dhm.c:291:33
	ldr	r0, [r0]
.Ltmp129:
	.loc	2 291 9                         @ ../../../ThirdParty/mbedTLS/library/dhm.c:291:9
	cmp	r0, r7
	blo	.LBB7_14
.Ltmp130:
@ %bb.2:
	@DEBUG_VALUE: mbedtls_dhm_make_public:olen <- $r7
	@DEBUG_VALUE: mbedtls_dhm_make_public:ctx <- $r3
	@DEBUG_VALUE: mbedtls_dhm_make_public:output <- $r2
	@DEBUG_VALUE: mbedtls_dhm_make_public:x_size <- $r1
	@DEBUG_VALUE: mbedtls_dhm_make_public:f_rng <- [DW_OP_plus_uconst 48] [$sp+0]
	@DEBUG_VALUE: mbedtls_dhm_make_public:p_rng <- [DW_OP_plus_uconst 52] [$sp+0]
	@DEBUG_VALUE: mbedtls_dhm_make_public:count <- 0
	.loc	2 0 9                           @ ../../../ThirdParty/mbedTLS/library/dhm.c:0:9
	str	r1, [sp, #24]                   @ 4-byte Spill
.Ltmp131:
	@DEBUG_VALUE: mbedtls_dhm_make_public:x_size <- [DW_OP_plus_uconst 24] [$sp+0]
	str	r2, [sp, #8]                    @ 4-byte Spill
.Ltmp132:
	@DEBUG_VALUE: mbedtls_dhm_make_public:output <- [DW_OP_plus_uconst 8] [$sp+0]
	.loc	2 294 36 is_stmt 1              @ ../../../ThirdParty/mbedTLS/library/dhm.c:294:36
	adds	r6, r3, #4
	movs	r5, #0
	.loc	2 294 9 is_stmt 0               @ ../../../ThirdParty/mbedTLS/library/dhm.c:294:9
	mov	r0, r6
	str	r3, [sp, #20]                   @ 4-byte Spill
.Ltmp133:
	@DEBUG_VALUE: mbedtls_dhm_make_public:ctx <- [DW_OP_plus_uconst 20] [$sp+0]
	mov	r1, r5
	bl	mbedtls_mpi_cmp_int
.Ltmp134:
	.loc	2 294 9                         @ ../../../ThirdParty/mbedTLS/library/dhm.c:294:9
	cbz	r0, .LBB7_14
.Ltmp135:
@ %bb.3:
	@DEBUG_VALUE: mbedtls_dhm_make_public:ctx <- [DW_OP_plus_uconst 20] [$sp+0]
	@DEBUG_VALUE: mbedtls_dhm_make_public:output <- [DW_OP_plus_uconst 8] [$sp+0]
	@DEBUG_VALUE: mbedtls_dhm_make_public:x_size <- [DW_OP_plus_uconst 24] [$sp+0]
	@DEBUG_VALUE: mbedtls_dhm_make_public:olen <- $r7
	@DEBUG_VALUE: mbedtls_dhm_make_public:f_rng <- [DW_OP_plus_uconst 48] [$sp+0]
	@DEBUG_VALUE: mbedtls_dhm_make_public:p_rng <- [DW_OP_plus_uconst 52] [$sp+0]
	@DEBUG_VALUE: mbedtls_dhm_make_public:count <- 0
	.loc	2 0 9                           @ ../../../ThirdParty/mbedTLS/library/dhm.c:0:9
	str	r7, [sp, #4]                    @ 4-byte Spill
.Ltmp136:
	@DEBUG_VALUE: mbedtls_dhm_make_public:olen <- [DW_OP_plus_uconst 4] [$sp+0]
	ldr	r3, [sp, #52]
	ldr	r2, [sp, #48]
.Ltmp137:
	ldr	r7, [sp, #20]                   @ 4-byte Reload
.Ltmp138:
	@DEBUG_VALUE: mbedtls_dhm_make_public:ctx <- $r7
	adds	r7, #28
.Ltmp139:
	movs	r4, #1
	str	r3, [sp, #16]                   @ 4-byte Spill
	str	r2, [sp, #12]                   @ 4-byte Spill
.Ltmp140:
.LBB7_4:                                @ =>This Loop Header: Depth=1
                                        @     Child Loop BB7_5 Depth 2
	@DEBUG_VALUE: mbedtls_dhm_make_public:olen <- [DW_OP_plus_uconst 4] [$sp+0]
	@DEBUG_VALUE: mbedtls_dhm_make_public:output <- [DW_OP_plus_uconst 8] [$sp+0]
	@DEBUG_VALUE: mbedtls_dhm_make_public:f_rng <- [DW_OP_plus_uconst 48] [$sp+0]
	@DEBUG_VALUE: mbedtls_dhm_make_public:p_rng <- [DW_OP_plus_uconst 52] [$sp+0]
	@DEBUG_VALUE: mbedtls_dhm_make_public:count <- $r5
	.loc	2 302 9 is_stmt 1               @ ../../../ThirdParty/mbedTLS/library/dhm.c:302:9
	mov	r0, r7
	ldr	r1, [sp, #24]                   @ 4-byte Reload
.Ltmp141:
	@DEBUG_VALUE: mbedtls_dhm_make_public:x_size <- $r1
	bl	mbedtls_mpi_fill_random
.Ltmp142:
	@DEBUG_VALUE: mbedtls_dhm_make_public:x_size <- [DW_OP_LLVM_entry_value 1] $r1
	@DEBUG_VALUE: mbedtls_dhm_make_public:ret <- $r0
	.loc	2 0 0 is_stmt 0                 @ ../../../ThirdParty/mbedTLS/library/dhm.c:0:0
	cbnz	r0, .LBB7_10
.Ltmp143:
.LBB7_5:                                @   Parent Loop BB7_4 Depth=1
                                        @ =>  This Inner Loop Header: Depth=2
	@DEBUG_VALUE: mbedtls_dhm_make_public:olen <- [DW_OP_plus_uconst 4] [$sp+0]
	@DEBUG_VALUE: mbedtls_dhm_make_public:output <- [DW_OP_plus_uconst 8] [$sp+0]
	@DEBUG_VALUE: mbedtls_dhm_make_public:count <- $r5
	@DEBUG_VALUE: mbedtls_dhm_make_public:ret <- $r0
	@DEBUG_VALUE: mbedtls_dhm_make_public:f_rng <- [DW_OP_plus_uconst 48] [$sp+0]
	@DEBUG_VALUE: mbedtls_dhm_make_public:p_rng <- [DW_OP_plus_uconst 52] [$sp+0]
	.loc	2 304 16 is_stmt 1              @ ../../../ThirdParty/mbedTLS/library/dhm.c:304:16
	mov	r0, r7
.Ltmp144:
	mov	r1, r6
	bl	mbedtls_mpi_cmp_mpi
	.loc	2 304 9 is_stmt 0               @ ../../../ThirdParty/mbedTLS/library/dhm.c:304:9
	cmp	r0, #0
	bmi	.LBB7_7
.Ltmp145:
@ %bb.6:                                @   in Loop: Header=BB7_5 Depth=2
	@DEBUG_VALUE: mbedtls_dhm_make_public:olen <- [DW_OP_plus_uconst 4] [$sp+0]
	@DEBUG_VALUE: mbedtls_dhm_make_public:output <- [DW_OP_plus_uconst 8] [$sp+0]
	@DEBUG_VALUE: mbedtls_dhm_make_public:count <- $r5
	@DEBUG_VALUE: mbedtls_dhm_make_public:f_rng <- [DW_OP_plus_uconst 48] [$sp+0]
	@DEBUG_VALUE: mbedtls_dhm_make_public:p_rng <- [DW_OP_plus_uconst 52] [$sp+0]
	.loc	2 305 13 is_stmt 1              @ ../../../ThirdParty/mbedTLS/library/dhm.c:305:13
	mov	r0, r7
	mov	r1, r4
	bl	mbedtls_mpi_shift_r
.Ltmp146:
	@DEBUG_VALUE: mbedtls_dhm_make_public:ret <- $r0
	.loc	2 0 0 is_stmt 0                 @ ../../../ThirdParty/mbedTLS/library/dhm.c:0:0
	cmp	r0, #0
	beq	.LBB7_5
	b	.LBB7_10
.Ltmp147:
.LBB7_7:                                @   in Loop: Header=BB7_4 Depth=1
	@DEBUG_VALUE: mbedtls_dhm_make_public:olen <- [DW_OP_plus_uconst 4] [$sp+0]
	@DEBUG_VALUE: mbedtls_dhm_make_public:output <- [DW_OP_plus_uconst 8] [$sp+0]
	@DEBUG_VALUE: mbedtls_dhm_make_public:count <- $r5
	@DEBUG_VALUE: mbedtls_dhm_make_public:f_rng <- [DW_OP_plus_uconst 48] [$sp+0]
	@DEBUG_VALUE: mbedtls_dhm_make_public:p_rng <- [DW_OP_plus_uconst 52] [$sp+0]
	@DEBUG_VALUE: mbedtls_dhm_make_public:count <- [DW_OP_plus_uconst 1, DW_OP_stack_value] $r5
	.loc	2 307 13 is_stmt 1              @ ../../../ThirdParty/mbedTLS/library/dhm.c:307:13
	cmp	r5, #11
	beq	.LBB7_13
.Ltmp148:
@ %bb.8:                                @   in Loop: Header=BB7_4 Depth=1
	@DEBUG_VALUE: mbedtls_dhm_make_public:olen <- [DW_OP_plus_uconst 4] [$sp+0]
	@DEBUG_VALUE: mbedtls_dhm_make_public:output <- [DW_OP_plus_uconst 8] [$sp+0]
	@DEBUG_VALUE: mbedtls_dhm_make_public:count <- [DW_OP_plus_uconst 1, DW_OP_stack_value] $r5
	@DEBUG_VALUE: mbedtls_dhm_make_public:f_rng <- [DW_OP_plus_uconst 48] [$sp+0]
	@DEBUG_VALUE: mbedtls_dhm_make_public:p_rng <- [DW_OP_plus_uconst 52] [$sp+0]
	.loc	2 310 12                        @ ../../../ThirdParty/mbedTLS/library/dhm.c:310:12
	mov	r0, r7
	mov	r1, r6
	bl	dhm_check_range
.Ltmp149:
	.loc	2 307 18                        @ ../../../ThirdParty/mbedTLS/library/dhm.c:307:18
	adds	r5, r5, #1
.Ltmp150:
	@DEBUG_VALUE: mbedtls_dhm_make_public:count <- $r5
	.loc	2 309 5                         @ ../../../ThirdParty/mbedTLS/library/dhm.c:309:5
	cmp	r0, #0
	ldr	r3, [sp, #16]                   @ 4-byte Reload
	ldr	r2, [sp, #12]                   @ 4-byte Reload
	bne	.LBB7_4
.Ltmp151:
@ %bb.9:
	@DEBUG_VALUE: mbedtls_dhm_make_public:olen <- [DW_OP_plus_uconst 4] [$sp+0]
	@DEBUG_VALUE: mbedtls_dhm_make_public:output <- [DW_OP_plus_uconst 8] [$sp+0]
	@DEBUG_VALUE: mbedtls_dhm_make_public:count <- $r5
	@DEBUG_VALUE: mbedtls_dhm_make_public:f_rng <- [DW_OP_plus_uconst 48] [$sp+0]
	@DEBUG_VALUE: mbedtls_dhm_make_public:p_rng <- [DW_OP_plus_uconst 52] [$sp+0]
	.loc	2 0 5 is_stmt 0                 @ ../../../ThirdParty/mbedTLS/library/dhm.c:0:5
	ldr	r1, [sp, #20]                   @ 4-byte Reload
.Ltmp152:
	.loc	2 312 5 is_stmt 1               @ ../../../ThirdParty/mbedTLS/library/dhm.c:312:5
	mov	r0, r1
	adds	r0, #76
	str	r0, [sp]
	mov	r5, r1
.Ltmp153:
	adds	r5, #40
	adds	r1, #16
	mov	r0, r5
	mov	r2, r7
	mov	r3, r6
	bl	mbedtls_mpi_exp_mod
.Ltmp154:
	@DEBUG_VALUE: mbedtls_dhm_make_public:ret <- $r0
	.loc	2 312 5 is_stmt 0               @ ../../../ThirdParty/mbedTLS/library/dhm.c:312:5
	cbz	r0, .LBB7_15
.Ltmp155:
.LBB7_10:
	@DEBUG_VALUE: mbedtls_dhm_make_public:olen <- [DW_OP_plus_uconst 4] [$sp+0]
	@DEBUG_VALUE: mbedtls_dhm_make_public:output <- [DW_OP_plus_uconst 8] [$sp+0]
	@DEBUG_VALUE: mbedtls_dhm_make_public:ret <- $r0
	@DEBUG_VALUE: mbedtls_dhm_make_public:f_rng <- [DW_OP_plus_uconst 48] [$sp+0]
	@DEBUG_VALUE: mbedtls_dhm_make_public:p_rng <- [DW_OP_plus_uconst 52] [$sp+0]
	@DEBUG_VALUE: mbedtls_dhm_make_public:ret <- $r0
	@DEBUG_LABEL: mbedtls_dhm_make_public:cleanup
	.loc	2 322 9 is_stmt 1               @ ../../../ThirdParty/mbedTLS/library/dhm.c:322:9
	cbz	r0, .LBB7_12
.Ltmp156:
.LBB7_11:
	@DEBUG_VALUE: mbedtls_dhm_make_public:ret <- $r0
	@DEBUG_VALUE: mbedtls_dhm_make_public:f_rng <- [DW_OP_plus_uconst 48] [$sp+0]
	@DEBUG_VALUE: mbedtls_dhm_make_public:p_rng <- [DW_OP_plus_uconst 52] [$sp+0]
	.loc	2 0 9 is_stmt 0                 @ ../../../ThirdParty/mbedTLS/library/dhm.c:0:9
	movw	r1, #12928
	subs	r0, r0, r1
.Ltmp157:
.LBB7_12:
	@DEBUG_VALUE: mbedtls_dhm_make_public:f_rng <- [DW_OP_plus_uconst 48] [$sp+0]
	@DEBUG_VALUE: mbedtls_dhm_make_public:p_rng <- [DW_OP_plus_uconst 52] [$sp+0]
	.loc	2 322 9                         @ ../../../ThirdParty/mbedTLS/library/dhm.c:322:9
	add	sp, #28
.Ltmp158:
	pop	{r4, r5, r6, r7, pc}
.LBB7_13:
.Ltmp159:
	@DEBUG_VALUE: mbedtls_dhm_make_public:olen <- [DW_OP_plus_uconst 4] [$sp+0]
	@DEBUG_VALUE: mbedtls_dhm_make_public:output <- [DW_OP_plus_uconst 8] [$sp+0]
	@DEBUG_VALUE: mbedtls_dhm_make_public:count <- [DW_OP_plus_uconst 1, DW_OP_stack_value] $r5
	@DEBUG_VALUE: mbedtls_dhm_make_public:f_rng <- [DW_OP_plus_uconst 48] [$sp+0]
	@DEBUG_VALUE: mbedtls_dhm_make_public:p_rng <- [DW_OP_plus_uconst 52] [$sp+0]
	.loc	2 0 9                           @ ../../../ThirdParty/mbedTLS/library/dhm.c:0:9
	ldr	r4, __arm_cp.7_1
.Ltmp160:
.LBB7_14:
	@DEBUG_VALUE: mbedtls_dhm_make_public:f_rng <- [DW_OP_plus_uconst 48] [$sp+0]
	@DEBUG_VALUE: mbedtls_dhm_make_public:p_rng <- [DW_OP_plus_uconst 52] [$sp+0]
	.loc	2 326 1 is_stmt 1               @ ../../../ThirdParty/mbedTLS/library/dhm.c:326:1
	mov	r0, r4
	add	sp, #28
.Ltmp161:
	pop	{r4, r5, r6, r7, pc}
.LBB7_15:
.Ltmp162:
	@DEBUG_VALUE: mbedtls_dhm_make_public:olen <- [DW_OP_plus_uconst 4] [$sp+0]
	@DEBUG_VALUE: mbedtls_dhm_make_public:output <- [DW_OP_plus_uconst 8] [$sp+0]
	@DEBUG_VALUE: mbedtls_dhm_make_public:ret <- $r0
	@DEBUG_VALUE: mbedtls_dhm_make_public:f_rng <- [DW_OP_plus_uconst 48] [$sp+0]
	@DEBUG_VALUE: mbedtls_dhm_make_public:p_rng <- [DW_OP_plus_uconst 52] [$sp+0]
	.loc	2 315 17                        @ ../../../ThirdParty/mbedTLS/library/dhm.c:315:17
	mov	r0, r5
.Ltmp163:
	mov	r1, r6
	bl	dhm_check_range
	mov	r4, r0
.Ltmp164:
	@DEBUG_VALUE: mbedtls_dhm_make_public:ret <- $r4
	.loc	2 315 9 is_stmt 0               @ ../../../ThirdParty/mbedTLS/library/dhm.c:315:9
	cmp	r0, #0
	ldr	r2, [sp, #4]                    @ 4-byte Reload
.Ltmp165:
	@DEBUG_VALUE: mbedtls_dhm_make_public:olen <- $r2
	@DEBUG_VALUE: mbedtls_dhm_make_public:olen <- $r2
	bne	.LBB7_14
.Ltmp166:
@ %bb.16:
	@DEBUG_VALUE: mbedtls_dhm_make_public:output <- [DW_OP_plus_uconst 8] [$sp+0]
	@DEBUG_VALUE: mbedtls_dhm_make_public:ret <- $r4
	@DEBUG_VALUE: mbedtls_dhm_make_public:olen <- $r2
	@DEBUG_VALUE: mbedtls_dhm_make_public:f_rng <- [DW_OP_plus_uconst 48] [$sp+0]
	@DEBUG_VALUE: mbedtls_dhm_make_public:p_rng <- [DW_OP_plus_uconst 52] [$sp+0]
	.loc	2 318 5 is_stmt 1               @ ../../../ThirdParty/mbedTLS/library/dhm.c:318:5
	mov	r0, r5
	ldr	r1, [sp, #8]                    @ 4-byte Reload
.Ltmp167:
	@DEBUG_VALUE: mbedtls_dhm_make_public:output <- $r1
	@DEBUG_VALUE: mbedtls_dhm_make_public:output <- $r1
	bl	mbedtls_mpi_write_binary
.Ltmp168:
	@DEBUG_VALUE: mbedtls_dhm_make_public:output <- [DW_OP_LLVM_entry_value 1] $r2
	@DEBUG_VALUE: mbedtls_dhm_make_public:output <- [DW_OP_LLVM_entry_value 1] $r2
	@DEBUG_VALUE: mbedtls_dhm_make_public:ret <- $r0
	@DEBUG_VALUE: mbedtls_dhm_make_public:ret <- $r0
	@DEBUG_LABEL: mbedtls_dhm_make_public:cleanup
	.loc	2 322 9                         @ ../../../ThirdParty/mbedTLS/library/dhm.c:322:9
	cmp	r0, #0
	beq	.LBB7_12
	b	.LBB7_11
.Ltmp169:
	.p2align	2
@ %bb.17:
	.loc	2 0 9 is_stmt 0                 @ ../../../ThirdParty/mbedTLS/library/dhm.c:0:9
__arm_cp.7_0:
	.long	4294954880                      @ 0xffffcf80
.Lcpi_end5:
	.size	__arm_cp.7_0, .Lcpi_end5-__arm_cp.7_0
__arm_cp.7_1:
	.long	4294954368                      @ 0xffffcd80
.Lcpi_end6:
	.size	__arm_cp.7_1, .Lcpi_end6-__arm_cp.7_1
.Lfunc_end7:
	.size	mbedtls_dhm_make_public, .Lfunc_end7-mbedtls_dhm_make_public
	.cfi_endproc
	.cantunwind
	.fnend
                                        @ -- End function
	.section	.text.mbedtls_dhm_calc_secret,"ax",%progbits
	.hidden	mbedtls_dhm_calc_secret         @ -- Begin function mbedtls_dhm_calc_secret
	.globl	mbedtls_dhm_calc_secret
	.p2align	2
	.type	mbedtls_dhm_calc_secret,%function
	.code	16                              @ @mbedtls_dhm_calc_secret
	.thumb_func
mbedtls_dhm_calc_secret:
.Lfunc_begin8:
	.loc	2 400 0 is_stmt 1               @ ../../../ThirdParty/mbedTLS/library/dhm.c:400:0
	.fnstart
	.cfi_startproc
@ %bb.0:
	@DEBUG_VALUE: mbedtls_dhm_calc_secret:ctx <- $r0
	@DEBUG_VALUE: mbedtls_dhm_calc_secret:output <- $r1
	@DEBUG_VALUE: mbedtls_dhm_calc_secret:output_size <- $r2
	@DEBUG_VALUE: mbedtls_dhm_calc_secret:olen <- $r3
	.save	{r4, r5, r6, r7, lr}
	push	{r4, r5, r6, r7, lr}
	.cfi_def_cfa_offset 20
	.cfi_offset lr, -4
	.cfi_offset r7, -8
	.cfi_offset r6, -12
	.cfi_offset r5, -16
	.cfi_offset r4, -20
	.pad	#28
	sub	sp, #28
	.cfi_def_cfa_offset 48
	mov	r5, r0
.Ltmp170:
	@DEBUG_VALUE: mbedtls_dhm_calc_secret:p_rng <- [DW_OP_plus_uconst 52] [$sp+0]
	@DEBUG_VALUE: mbedtls_dhm_calc_secret:f_rng <- [DW_OP_plus_uconst 48] [$sp+0]
	@DEBUG_VALUE: mbedtls_dhm_calc_secret:olen <- $r3
	@DEBUG_VALUE: mbedtls_dhm_calc_secret:output_size <- $r2
	@DEBUG_VALUE: mbedtls_dhm_calc_secret:output <- $r1
	@DEBUG_VALUE: mbedtls_dhm_calc_secret:ctx <- $r5
	.loc	2 407 28 prologue_end           @ ../../../ThirdParty/mbedTLS/library/dhm.c:407:28
	ldr	r0, [r0]
.Ltmp171:
	.loc	2 407 9 is_stmt 0               @ ../../../ThirdParty/mbedTLS/library/dhm.c:407:9
	cmp	r0, r2
	bls	.LBB8_2
.Ltmp172:
@ %bb.1:
	@DEBUG_VALUE: mbedtls_dhm_calc_secret:ctx <- $r5
	@DEBUG_VALUE: mbedtls_dhm_calc_secret:olen <- $r3
	@DEBUG_VALUE: mbedtls_dhm_calc_secret:output_size <- $r2
	@DEBUG_VALUE: mbedtls_dhm_calc_secret:output <- $r1
	@DEBUG_VALUE: mbedtls_dhm_calc_secret:f_rng <- [DW_OP_plus_uconst 48] [$sp+0]
	@DEBUG_VALUE: mbedtls_dhm_calc_secret:p_rng <- [DW_OP_plus_uconst 52] [$sp+0]
	.loc	2 0 9                           @ ../../../ThirdParty/mbedTLS/library/dhm.c:0:9
	ldr	r4, __arm_cp.8_0
	b	.LBB8_16
.Ltmp173:
.LBB8_2:
	@DEBUG_VALUE: mbedtls_dhm_calc_secret:ctx <- $r5
	@DEBUG_VALUE: mbedtls_dhm_calc_secret:olen <- $r3
	@DEBUG_VALUE: mbedtls_dhm_calc_secret:output_size <- $r2
	@DEBUG_VALUE: mbedtls_dhm_calc_secret:output <- $r1
	@DEBUG_VALUE: mbedtls_dhm_calc_secret:f_rng <- [DW_OP_plus_uconst 48] [$sp+0]
	@DEBUG_VALUE: mbedtls_dhm_calc_secret:p_rng <- [DW_OP_plus_uconst 52] [$sp+0]
	str	r3, [sp, #8]                    @ 4-byte Spill
.Ltmp174:
	@DEBUG_VALUE: mbedtls_dhm_calc_secret:olen <- [DW_OP_plus_uconst 8] [$sp+0]
	str	r1, [sp, #12]                   @ 4-byte Spill
.Ltmp175:
	@DEBUG_VALUE: mbedtls_dhm_calc_secret:output <- [DW_OP_plus_uconst 12] [$sp+0]
	.loc	2 410 40 is_stmt 1              @ ../../../ThirdParty/mbedTLS/library/dhm.c:410:40
	mov	r7, r5
	adds	r7, #52
	.loc	2 410 50 is_stmt 0              @ ../../../ThirdParty/mbedTLS/library/dhm.c:410:50
	adds	r6, r5, #4
	.loc	2 410 17                        @ ../../../ThirdParty/mbedTLS/library/dhm.c:410:17
	mov	r0, r7
	mov	r1, r6
	bl	dhm_check_range
.Ltmp176:
	@DEBUG_VALUE: mbedtls_dhm_calc_secret:output_size <- [DW_OP_LLVM_entry_value 1] $r2
	mov	r4, r0
.Ltmp177:
	@DEBUG_VALUE: mbedtls_dhm_calc_secret:ret <- $r4
	.loc	2 410 9                         @ ../../../ThirdParty/mbedTLS/library/dhm.c:410:9
	cmp	r0, #0
	bne	.LBB8_16
.Ltmp178:
@ %bb.3:
	@DEBUG_VALUE: mbedtls_dhm_calc_secret:output <- [DW_OP_plus_uconst 12] [$sp+0]
	@DEBUG_VALUE: mbedtls_dhm_calc_secret:olen <- [DW_OP_plus_uconst 8] [$sp+0]
	@DEBUG_VALUE: mbedtls_dhm_calc_secret:ctx <- $r5
	@DEBUG_VALUE: mbedtls_dhm_calc_secret:ret <- $r4
	@DEBUG_VALUE: mbedtls_dhm_calc_secret:f_rng <- [DW_OP_plus_uconst 48] [$sp+0]
	@DEBUG_VALUE: mbedtls_dhm_calc_secret:p_rng <- [DW_OP_plus_uconst 52] [$sp+0]
	@DEBUG_VALUE: mbedtls_dhm_calc_secret:output_size <- [DW_OP_LLVM_entry_value 1] $r2
	.loc	2 0 9                           @ ../../../ThirdParty/mbedTLS/library/dhm.c:0:9
	ldr	r4, [sp, #48]
.Ltmp179:
	add	r0, sp, #16
	.loc	2 413 5 is_stmt 1               @ ../../../ThirdParty/mbedTLS/library/dhm.c:413:5
	bl	mbedtls_mpi_init
	.loc	2 416 9                         @ ../../../ThirdParty/mbedTLS/library/dhm.c:416:9
	str	r4, [sp, #4]                    @ 4-byte Spill
	cbz	r4, .LBB8_7
.Ltmp180:
@ %bb.4:
	@DEBUG_VALUE: mbedtls_dhm_calc_secret:output <- [DW_OP_plus_uconst 12] [$sp+0]
	@DEBUG_VALUE: mbedtls_dhm_calc_secret:olen <- [DW_OP_plus_uconst 8] [$sp+0]
	@DEBUG_VALUE: mbedtls_dhm_calc_secret:ctx <- $r5
	@DEBUG_VALUE: mbedtls_dhm_calc_secret:f_rng <- [DW_OP_plus_uconst 48] [$sp+0]
	@DEBUG_VALUE: mbedtls_dhm_calc_secret:p_rng <- [DW_OP_plus_uconst 52] [$sp+0]
	@DEBUG_VALUE: mbedtls_dhm_calc_secret:output_size <- [DW_OP_LLVM_entry_value 1] $r2
	.loc	2 0 9 is_stmt 0                 @ ../../../ThirdParty/mbedTLS/library/dhm.c:0:9
	ldr	r2, [sp, #52]
.Ltmp181:
	.loc	2 418 9 is_stmt 1               @ ../../../ThirdParty/mbedTLS/library/dhm.c:418:9
	mov	r0, r5
	mov	r1, r4
	bl	dhm_update_blinding
	mov	r4, r0
.Ltmp182:
	@DEBUG_VALUE: mbedtls_dhm_calc_secret:ret <- $r4
	.loc	2 418 9 is_stmt 0               @ ../../../ThirdParty/mbedTLS/library/dhm.c:418:9
	cbnz	r0, .LBB8_14
.Ltmp183:
@ %bb.5:
	@DEBUG_VALUE: mbedtls_dhm_calc_secret:output <- [DW_OP_plus_uconst 12] [$sp+0]
	@DEBUG_VALUE: mbedtls_dhm_calc_secret:olen <- [DW_OP_plus_uconst 8] [$sp+0]
	@DEBUG_VALUE: mbedtls_dhm_calc_secret:ctx <- $r5
	@DEBUG_VALUE: mbedtls_dhm_calc_secret:ret <- $r4
	@DEBUG_VALUE: mbedtls_dhm_calc_secret:f_rng <- [DW_OP_plus_uconst 48] [$sp+0]
	@DEBUG_VALUE: mbedtls_dhm_calc_secret:p_rng <- [DW_OP_plus_uconst 52] [$sp+0]
	@DEBUG_VALUE: mbedtls_dhm_calc_secret:output_size <- [DW_OP_LLVM_entry_value 1] $r2
	.loc	2 419 9 is_stmt 1               @ ../../../ThirdParty/mbedTLS/library/dhm.c:419:9
	mov	r2, r5
	adds	r2, #88
	add	r0, sp, #16
	mov	r1, r7
	bl	mbedtls_mpi_mul_mpi
	mov	r4, r0
.Ltmp184:
	@DEBUG_VALUE: mbedtls_dhm_calc_secret:ret <- $r4
	.loc	2 419 9 is_stmt 0               @ ../../../ThirdParty/mbedTLS/library/dhm.c:419:9
	cbnz	r0, .LBB8_14
.Ltmp185:
@ %bb.6:
	@DEBUG_VALUE: mbedtls_dhm_calc_secret:output <- [DW_OP_plus_uconst 12] [$sp+0]
	@DEBUG_VALUE: mbedtls_dhm_calc_secret:olen <- [DW_OP_plus_uconst 8] [$sp+0]
	@DEBUG_VALUE: mbedtls_dhm_calc_secret:ctx <- $r5
	@DEBUG_VALUE: mbedtls_dhm_calc_secret:ret <- $r4
	@DEBUG_VALUE: mbedtls_dhm_calc_secret:f_rng <- [DW_OP_plus_uconst 48] [$sp+0]
	@DEBUG_VALUE: mbedtls_dhm_calc_secret:p_rng <- [DW_OP_plus_uconst 52] [$sp+0]
	@DEBUG_VALUE: mbedtls_dhm_calc_secret:output_size <- [DW_OP_LLVM_entry_value 1] $r2
	.loc	2 0 9                           @ ../../../ThirdParty/mbedTLS/library/dhm.c:0:9
	add	r0, sp, #16
.Ltmp186:
	.loc	2 420 9 is_stmt 1               @ ../../../ThirdParty/mbedTLS/library/dhm.c:420:9
	mov	r1, r0
	mov	r2, r6
	bl	mbedtls_mpi_mod_mpi
	b	.LBB8_8
.Ltmp187:
.LBB8_7:
	@DEBUG_VALUE: mbedtls_dhm_calc_secret:output <- [DW_OP_plus_uconst 12] [$sp+0]
	@DEBUG_VALUE: mbedtls_dhm_calc_secret:olen <- [DW_OP_plus_uconst 8] [$sp+0]
	@DEBUG_VALUE: mbedtls_dhm_calc_secret:ctx <- $r5
	@DEBUG_VALUE: mbedtls_dhm_calc_secret:f_rng <- [DW_OP_plus_uconst 48] [$sp+0]
	@DEBUG_VALUE: mbedtls_dhm_calc_secret:p_rng <- [DW_OP_plus_uconst 52] [$sp+0]
	@DEBUG_VALUE: mbedtls_dhm_calc_secret:output_size <- [DW_OP_LLVM_entry_value 1] $r2
	.loc	2 0 9 is_stmt 0                 @ ../../../ThirdParty/mbedTLS/library/dhm.c:0:9
	add	r0, sp, #16
.Ltmp188:
	.loc	2 423 9 is_stmt 1               @ ../../../ThirdParty/mbedTLS/library/dhm.c:423:9
	mov	r1, r7
	bl	mbedtls_mpi_copy
.Ltmp189:
.LBB8_8:
	@DEBUG_VALUE: mbedtls_dhm_calc_secret:output <- [DW_OP_plus_uconst 12] [$sp+0]
	@DEBUG_VALUE: mbedtls_dhm_calc_secret:olen <- [DW_OP_plus_uconst 8] [$sp+0]
	@DEBUG_VALUE: mbedtls_dhm_calc_secret:ctx <- $r5
	@DEBUG_VALUE: mbedtls_dhm_calc_secret:f_rng <- [DW_OP_plus_uconst 48] [$sp+0]
	@DEBUG_VALUE: mbedtls_dhm_calc_secret:p_rng <- [DW_OP_plus_uconst 52] [$sp+0]
	@DEBUG_VALUE: mbedtls_dhm_calc_secret:output_size <- [DW_OP_LLVM_entry_value 1] $r2
	.loc	2 0 0 is_stmt 0                 @ ../../../ThirdParty/mbedTLS/library/dhm.c:0:0
	mov	r4, r0
.Ltmp190:
	@DEBUG_VALUE: mbedtls_dhm_calc_secret:ret <- $r4
	cbnz	r0, .LBB8_14
.Ltmp191:
@ %bb.9:
	@DEBUG_VALUE: mbedtls_dhm_calc_secret:output <- [DW_OP_plus_uconst 12] [$sp+0]
	@DEBUG_VALUE: mbedtls_dhm_calc_secret:olen <- [DW_OP_plus_uconst 8] [$sp+0]
	@DEBUG_VALUE: mbedtls_dhm_calc_secret:ctx <- $r5
	@DEBUG_VALUE: mbedtls_dhm_calc_secret:ret <- $r4
	@DEBUG_VALUE: mbedtls_dhm_calc_secret:f_rng <- [DW_OP_plus_uconst 48] [$sp+0]
	@DEBUG_VALUE: mbedtls_dhm_calc_secret:p_rng <- [DW_OP_plus_uconst 52] [$sp+0]
	@DEBUG_VALUE: mbedtls_dhm_calc_secret:output_size <- [DW_OP_LLVM_entry_value 1] $r2
	.loc	2 426 5 is_stmt 1               @ ../../../ThirdParty/mbedTLS/library/dhm.c:426:5
	mov	r0, r5
	adds	r0, #76
	str	r0, [sp]
	mov	r7, r5
	adds	r7, #64
	mov	r2, r5
	adds	r2, #28
	add	r1, sp, #16
	mov	r0, r7
	mov	r3, r6
	bl	mbedtls_mpi_exp_mod
	mov	r4, r0
.Ltmp192:
	@DEBUG_VALUE: mbedtls_dhm_calc_secret:ret <- $r4
	.loc	2 426 5 is_stmt 0               @ ../../../ThirdParty/mbedTLS/library/dhm.c:426:5
	cbnz	r0, .LBB8_14
.Ltmp193:
@ %bb.10:
	@DEBUG_VALUE: mbedtls_dhm_calc_secret:output <- [DW_OP_plus_uconst 12] [$sp+0]
	@DEBUG_VALUE: mbedtls_dhm_calc_secret:olen <- [DW_OP_plus_uconst 8] [$sp+0]
	@DEBUG_VALUE: mbedtls_dhm_calc_secret:ctx <- $r5
	@DEBUG_VALUE: mbedtls_dhm_calc_secret:ret <- $r4
	@DEBUG_VALUE: mbedtls_dhm_calc_secret:f_rng <- [DW_OP_plus_uconst 48] [$sp+0]
	@DEBUG_VALUE: mbedtls_dhm_calc_secret:p_rng <- [DW_OP_plus_uconst 52] [$sp+0]
	@DEBUG_VALUE: mbedtls_dhm_calc_secret:output_size <- [DW_OP_LLVM_entry_value 1] $r2
	.loc	2 430 9 is_stmt 1               @ ../../../ThirdParty/mbedTLS/library/dhm.c:430:9
	ldr	r0, [sp, #4]                    @ 4-byte Reload
	cbz	r0, .LBB8_13
.Ltmp194:
@ %bb.11:
	@DEBUG_VALUE: mbedtls_dhm_calc_secret:output <- [DW_OP_plus_uconst 12] [$sp+0]
	@DEBUG_VALUE: mbedtls_dhm_calc_secret:olen <- [DW_OP_plus_uconst 8] [$sp+0]
	@DEBUG_VALUE: mbedtls_dhm_calc_secret:ctx <- $r5
	@DEBUG_VALUE: mbedtls_dhm_calc_secret:ret <- $r4
	@DEBUG_VALUE: mbedtls_dhm_calc_secret:f_rng <- [DW_OP_plus_uconst 48] [$sp+0]
	@DEBUG_VALUE: mbedtls_dhm_calc_secret:p_rng <- [DW_OP_plus_uconst 52] [$sp+0]
	@DEBUG_VALUE: mbedtls_dhm_calc_secret:output_size <- [DW_OP_LLVM_entry_value 1] $r2
	.loc	2 432 9                         @ ../../../ThirdParty/mbedTLS/library/dhm.c:432:9
	adds	r5, #100
.Ltmp195:
	mov	r0, r7
	mov	r1, r7
	mov	r2, r5
	bl	mbedtls_mpi_mul_mpi
	mov	r4, r0
.Ltmp196:
	@DEBUG_VALUE: mbedtls_dhm_calc_secret:ret <- $r4
	.loc	2 432 9 is_stmt 0               @ ../../../ThirdParty/mbedTLS/library/dhm.c:432:9
	cbnz	r0, .LBB8_14
.Ltmp197:
@ %bb.12:
	@DEBUG_VALUE: mbedtls_dhm_calc_secret:output <- [DW_OP_plus_uconst 12] [$sp+0]
	@DEBUG_VALUE: mbedtls_dhm_calc_secret:olen <- [DW_OP_plus_uconst 8] [$sp+0]
	@DEBUG_VALUE: mbedtls_dhm_calc_secret:ret <- $r4
	@DEBUG_VALUE: mbedtls_dhm_calc_secret:f_rng <- [DW_OP_plus_uconst 48] [$sp+0]
	@DEBUG_VALUE: mbedtls_dhm_calc_secret:p_rng <- [DW_OP_plus_uconst 52] [$sp+0]
	@DEBUG_VALUE: mbedtls_dhm_calc_secret:output_size <- [DW_OP_LLVM_entry_value 1] $r2
	.loc	2 433 9 is_stmt 1               @ ../../../ThirdParty/mbedTLS/library/dhm.c:433:9
	mov	r0, r7
	mov	r1, r7
	mov	r2, r6
	bl	mbedtls_mpi_mod_mpi
	mov	r4, r0
.Ltmp198:
	@DEBUG_VALUE: mbedtls_dhm_calc_secret:ret <- $r4
	.loc	2 433 9 is_stmt 0               @ ../../../ThirdParty/mbedTLS/library/dhm.c:433:9
	cbnz	r0, .LBB8_14
.Ltmp199:
.LBB8_13:
	@DEBUG_VALUE: mbedtls_dhm_calc_secret:output <- [DW_OP_plus_uconst 12] [$sp+0]
	@DEBUG_VALUE: mbedtls_dhm_calc_secret:olen <- [DW_OP_plus_uconst 8] [$sp+0]
	@DEBUG_VALUE: mbedtls_dhm_calc_secret:ret <- $r4
	@DEBUG_VALUE: mbedtls_dhm_calc_secret:f_rng <- [DW_OP_plus_uconst 48] [$sp+0]
	@DEBUG_VALUE: mbedtls_dhm_calc_secret:p_rng <- [DW_OP_plus_uconst 52] [$sp+0]
	@DEBUG_VALUE: mbedtls_dhm_calc_secret:output_size <- [DW_OP_LLVM_entry_value 1] $r2
	.loc	2 436 13 is_stmt 1              @ ../../../ThirdParty/mbedTLS/library/dhm.c:436:13
	mov	r0, r7
	bl	mbedtls_mpi_size
	mov	r2, r0
	.loc	2 436 11 is_stmt 0              @ ../../../ThirdParty/mbedTLS/library/dhm.c:436:11
	ldr	r0, [sp, #8]                    @ 4-byte Reload
.Ltmp200:
	@DEBUG_VALUE: mbedtls_dhm_calc_secret:olen <- $r0
	str	r2, [r0]
.Ltmp201:
	.loc	2 438 5 is_stmt 1               @ ../../../ThirdParty/mbedTLS/library/dhm.c:438:5
	mov	r0, r7
.Ltmp202:
	@DEBUG_VALUE: mbedtls_dhm_calc_secret:olen <- [DW_OP_LLVM_entry_value 1] $r3
	ldr	r1, [sp, #12]                   @ 4-byte Reload
.Ltmp203:
	@DEBUG_VALUE: mbedtls_dhm_calc_secret:output <- $r1
	bl	mbedtls_mpi_write_binary
.Ltmp204:
	@DEBUG_VALUE: mbedtls_dhm_calc_secret:output <- [DW_OP_LLVM_entry_value 1] $r1
	mov	r4, r0
.Ltmp205:
	@DEBUG_VALUE: mbedtls_dhm_calc_secret:ret <- $r4
.LBB8_14:
	@DEBUG_VALUE: mbedtls_dhm_calc_secret:ret <- $r4
	@DEBUG_VALUE: mbedtls_dhm_calc_secret:f_rng <- [DW_OP_plus_uconst 48] [$sp+0]
	@DEBUG_VALUE: mbedtls_dhm_calc_secret:p_rng <- [DW_OP_plus_uconst 52] [$sp+0]
	@DEBUG_VALUE: mbedtls_dhm_calc_secret:output_size <- [DW_OP_LLVM_entry_value 1] $r2
	@DEBUG_VALUE: mbedtls_dhm_calc_secret:ret <- $r4
	@DEBUG_LABEL: mbedtls_dhm_calc_secret:cleanup
	.loc	2 0 5 is_stmt 0                 @ ../../../ThirdParty/mbedTLS/library/dhm.c:0:5
	add	r0, sp, #16
	.loc	2 441 5 is_stmt 1               @ ../../../ThirdParty/mbedTLS/library/dhm.c:441:5
	bl	mbedtls_mpi_free
	.loc	2 443 9                         @ ../../../ThirdParty/mbedTLS/library/dhm.c:443:9
	cbz	r4, .LBB8_16
.Ltmp206:
@ %bb.15:
	@DEBUG_VALUE: mbedtls_dhm_calc_secret:ret <- $r4
	@DEBUG_VALUE: mbedtls_dhm_calc_secret:f_rng <- [DW_OP_plus_uconst 48] [$sp+0]
	@DEBUG_VALUE: mbedtls_dhm_calc_secret:p_rng <- [DW_OP_plus_uconst 52] [$sp+0]
	@DEBUG_VALUE: mbedtls_dhm_calc_secret:output_size <- [DW_OP_LLVM_entry_value 1] $r2
	.loc	2 0 9 is_stmt 0                 @ ../../../ThirdParty/mbedTLS/library/dhm.c:0:9
	movw	r0, #13056
	subs	r4, r4, r0
.Ltmp207:
.LBB8_16:
	@DEBUG_VALUE: mbedtls_dhm_calc_secret:f_rng <- [DW_OP_plus_uconst 48] [$sp+0]
	@DEBUG_VALUE: mbedtls_dhm_calc_secret:p_rng <- [DW_OP_plus_uconst 52] [$sp+0]
	.loc	2 447 1 is_stmt 1               @ ../../../ThirdParty/mbedTLS/library/dhm.c:447:1
	mov	r0, r4
	add	sp, #28
.Ltmp208:
	pop	{r4, r5, r6, r7, pc}
.Ltmp209:
	.p2align	2
@ %bb.17:
	.loc	2 0 1 is_stmt 0                 @ ../../../ThirdParty/mbedTLS/library/dhm.c:0:1
__arm_cp.8_0:
	.long	4294954880                      @ 0xffffcf80
.Lcpi_end7:
	.size	__arm_cp.8_0, .Lcpi_end7-__arm_cp.8_0
.Lfunc_end8:
	.size	mbedtls_dhm_calc_secret, .Lfunc_end8-mbedtls_dhm_calc_secret
	.cfi_endproc
	.cantunwind
	.fnend
                                        @ -- End function
	.section	.text.dhm_update_blinding,"ax",%progbits
	.p2align	1                               @ -- Begin function dhm_update_blinding
	.type	dhm_update_blinding,%function
	.code	16                              @ @dhm_update_blinding
	.thumb_func
dhm_update_blinding:
.Lfunc_begin9:
	.loc	2 336 0 is_stmt 1               @ ../../../ThirdParty/mbedTLS/library/dhm.c:336:0
	.fnstart
	.cfi_startproc
@ %bb.0:
	@DEBUG_VALUE: dhm_update_blinding:ctx <- $r0
	@DEBUG_VALUE: dhm_update_blinding:f_rng <- $r1
	@DEBUG_VALUE: dhm_update_blinding:p_rng <- $r2
	.save	{r4, r5, r6, r7, lr}
	push	{r4, r5, r6, r7, lr}
	.cfi_def_cfa_offset 20
	.cfi_offset lr, -4
	.cfi_offset r7, -8
	.cfi_offset r6, -12
	.cfi_offset r5, -16
	.cfi_offset r4, -20
	.pad	#28
	sub	sp, #28
	.cfi_def_cfa_offset 48
	str	r2, [sp, #24]                   @ 4-byte Spill
	mov	r6, r1
	mov	r7, r0
.Ltmp210:
	@DEBUG_VALUE: dhm_update_blinding:p_rng <- [DW_OP_plus_uconst 24] [$sp+0]
	@DEBUG_VALUE: dhm_update_blinding:f_rng <- $r6
	@DEBUG_VALUE: dhm_update_blinding:ctx <- $r7
	.loc	2 343 36 prologue_end           @ ../../../ThirdParty/mbedTLS/library/dhm.c:343:36
	mov	r5, r0
	adds	r5, #28
	.loc	2 343 45 is_stmt 0              @ ../../../ThirdParty/mbedTLS/library/dhm.c:343:45
	mov	r4, r0
	adds	r4, #112
	.loc	2 343 9                         @ ../../../ThirdParty/mbedTLS/library/dhm.c:343:9
	mov	r0, r5
	mov	r1, r4
	bl	mbedtls_mpi_cmp_mpi
.Ltmp211:
	.loc	2 343 9                         @ ../../../ThirdParty/mbedTLS/library/dhm.c:343:9
	cbz	r0, .LBB9_5
.Ltmp212:
@ %bb.1:
	@DEBUG_VALUE: dhm_update_blinding:ctx <- $r7
	@DEBUG_VALUE: dhm_update_blinding:f_rng <- $r6
	@DEBUG_VALUE: dhm_update_blinding:p_rng <- [DW_OP_plus_uconst 24] [$sp+0]
	.loc	2 345 9 is_stmt 1               @ ../../../ThirdParty/mbedTLS/library/dhm.c:345:9
	mov	r0, r4
	mov	r1, r5
	bl	mbedtls_mpi_copy
.Ltmp213:
	@DEBUG_VALUE: dhm_update_blinding:ret <- $r0
	.loc	2 345 9 is_stmt 0               @ ../../../ThirdParty/mbedTLS/library/dhm.c:345:9
	cmp	r0, #0
	bne	.LBB9_17
.Ltmp214:
@ %bb.2:
	@DEBUG_VALUE: dhm_update_blinding:ctx <- $r7
	@DEBUG_VALUE: dhm_update_blinding:f_rng <- $r6
	@DEBUG_VALUE: dhm_update_blinding:ret <- $r0
	@DEBUG_VALUE: dhm_update_blinding:p_rng <- [DW_OP_plus_uconst 24] [$sp+0]
	.loc	2 346 9 is_stmt 1               @ ../../../ThirdParty/mbedTLS/library/dhm.c:346:9
	mov	r0, r7
.Ltmp215:
	adds	r0, #88
	movs	r1, #1
	bl	mbedtls_mpi_lset
.Ltmp216:
	@DEBUG_VALUE: dhm_update_blinding:ret <- $r0
	.loc	2 346 9 is_stmt 0               @ ../../../ThirdParty/mbedTLS/library/dhm.c:346:9
	cmp	r0, #0
	bne	.LBB9_17
.Ltmp217:
@ %bb.3:
	@DEBUG_VALUE: dhm_update_blinding:ctx <- $r7
	@DEBUG_VALUE: dhm_update_blinding:f_rng <- $r6
	@DEBUG_VALUE: dhm_update_blinding:ret <- $r0
	@DEBUG_VALUE: dhm_update_blinding:p_rng <- [DW_OP_plus_uconst 24] [$sp+0]
	.loc	2 347 9 is_stmt 1               @ ../../../ThirdParty/mbedTLS/library/dhm.c:347:9
	adds	r7, #100
.Ltmp218:
	.loc	2 0 9 is_stmt 0                 @ ../../../ThirdParty/mbedTLS/library/dhm.c:0:9
	movs	r1, #1
	.loc	2 347 9                         @ ../../../ThirdParty/mbedTLS/library/dhm.c:347:9
	mov	r0, r7
.Ltmp219:
	bl	mbedtls_mpi_lset
.Ltmp220:
	@DEBUG_VALUE: dhm_update_blinding:ret <- $r0
	.loc	2 347 9                         @ ../../../ThirdParty/mbedTLS/library/dhm.c:347:9
	cmp	r0, #0
	bne	.LBB9_17
.Ltmp221:
.LBB9_4:
	@DEBUG_VALUE: dhm_update_blinding:ret <- $r0
	@DEBUG_VALUE: dhm_update_blinding:p_rng <- [DW_OP_plus_uconst 24] [$sp+0]
	.loc	2 0 9                           @ ../../../ThirdParty/mbedTLS/library/dhm.c:0:9
	movs	r0, #0
.Ltmp222:
	.loc	2 391 1 is_stmt 1               @ ../../../ThirdParty/mbedTLS/library/dhm.c:391:1
	add	sp, #28
.Ltmp223:
	pop	{r4, r5, r6, r7, pc}
.LBB9_5:
.Ltmp224:
	@DEBUG_VALUE: dhm_update_blinding:ctx <- $r7
	@DEBUG_VALUE: dhm_update_blinding:f_rng <- $r6
	@DEBUG_VALUE: dhm_update_blinding:p_rng <- [DW_OP_plus_uconst 24] [$sp+0]
	.loc	2 0 1 is_stmt 0                 @ ../../../ThirdParty/mbedTLS/library/dhm.c:0:1
	str	r6, [sp, #20]                   @ 4-byte Spill
.Ltmp225:
	@DEBUG_VALUE: dhm_update_blinding:f_rng <- [DW_OP_plus_uconst 20] [$sp+0]
	.loc	2 356 36 is_stmt 1              @ ../../../ThirdParty/mbedTLS/library/dhm.c:356:36
	mov	r6, r7
	adds	r6, #88
	movs	r1, #1
	.loc	2 356 9 is_stmt 0               @ ../../../ThirdParty/mbedTLS/library/dhm.c:356:9
	mov	r0, r6
	bl	mbedtls_mpi_cmp_int
.Ltmp226:
	.loc	2 356 9                         @ ../../../ThirdParty/mbedTLS/library/dhm.c:356:9
	cbz	r0, .LBB9_10
.Ltmp227:
@ %bb.6:
	@DEBUG_VALUE: dhm_update_blinding:f_rng <- [DW_OP_plus_uconst 20] [$sp+0]
	@DEBUG_VALUE: dhm_update_blinding:ctx <- $r7
	@DEBUG_VALUE: dhm_update_blinding:p_rng <- [DW_OP_plus_uconst 24] [$sp+0]
	.loc	2 358 9 is_stmt 1               @ ../../../ThirdParty/mbedTLS/library/dhm.c:358:9
	mov	r0, r6
	mov	r1, r6
	mov	r2, r6
	bl	mbedtls_mpi_mul_mpi
.Ltmp228:
	@DEBUG_VALUE: dhm_update_blinding:ret <- $r0
	.loc	2 358 9 is_stmt 0               @ ../../../ThirdParty/mbedTLS/library/dhm.c:358:9
	cmp	r0, #0
	bne	.LBB9_17
.Ltmp229:
@ %bb.7:
	@DEBUG_VALUE: dhm_update_blinding:f_rng <- [DW_OP_plus_uconst 20] [$sp+0]
	@DEBUG_VALUE: dhm_update_blinding:ctx <- $r7
	@DEBUG_VALUE: dhm_update_blinding:ret <- $r0
	@DEBUG_VALUE: dhm_update_blinding:p_rng <- [DW_OP_plus_uconst 24] [$sp+0]
	.loc	2 359 9 is_stmt 1               @ ../../../ThirdParty/mbedTLS/library/dhm.c:359:9
	adds	r4, r7, #4
	mov	r0, r6
.Ltmp230:
	mov	r1, r6
	mov	r2, r4
	bl	mbedtls_mpi_mod_mpi
.Ltmp231:
	@DEBUG_VALUE: dhm_update_blinding:ret <- $r0
	.loc	2 359 9 is_stmt 0               @ ../../../ThirdParty/mbedTLS/library/dhm.c:359:9
	cmp	r0, #0
	bne	.LBB9_17
.Ltmp232:
@ %bb.8:
	@DEBUG_VALUE: dhm_update_blinding:f_rng <- [DW_OP_plus_uconst 20] [$sp+0]
	@DEBUG_VALUE: dhm_update_blinding:ctx <- $r7
	@DEBUG_VALUE: dhm_update_blinding:ret <- $r0
	@DEBUG_VALUE: dhm_update_blinding:p_rng <- [DW_OP_plus_uconst 24] [$sp+0]
	.loc	2 361 9 is_stmt 1               @ ../../../ThirdParty/mbedTLS/library/dhm.c:361:9
	adds	r7, #100
.Ltmp233:
	mov	r0, r7
.Ltmp234:
	mov	r1, r7
	mov	r5, r7
	mov	r2, r7
	bl	mbedtls_mpi_mul_mpi
.Ltmp235:
	@DEBUG_VALUE: dhm_update_blinding:ret <- $r0
	.loc	2 361 9 is_stmt 0               @ ../../../ThirdParty/mbedTLS/library/dhm.c:361:9
	cbnz	r0, .LBB9_17
.Ltmp236:
@ %bb.9:
	@DEBUG_VALUE: dhm_update_blinding:f_rng <- [DW_OP_plus_uconst 20] [$sp+0]
	@DEBUG_VALUE: dhm_update_blinding:ret <- $r0
	@DEBUG_VALUE: dhm_update_blinding:p_rng <- [DW_OP_plus_uconst 24] [$sp+0]
	.loc	2 0 9                           @ ../../../ThirdParty/mbedTLS/library/dhm.c:0:9
	mov	r0, r5
.Ltmp237:
	.loc	2 362 9 is_stmt 1               @ ../../../ThirdParty/mbedTLS/library/dhm.c:362:9
	mov	r1, r5
	mov	r2, r4
	bl	mbedtls_mpi_mod_mpi
.Ltmp238:
	@DEBUG_VALUE: dhm_update_blinding:ret <- $r0
	.loc	2 362 9 is_stmt 0               @ ../../../ThirdParty/mbedTLS/library/dhm.c:362:9
	cbnz	r0, .LBB9_17
	b	.LBB9_4
.Ltmp239:
.LBB9_10:
	@DEBUG_VALUE: dhm_update_blinding:f_rng <- [DW_OP_plus_uconst 20] [$sp+0]
	@DEBUG_VALUE: dhm_update_blinding:ctx <- $r7
	@DEBUG_VALUE: dhm_update_blinding:p_rng <- [DW_OP_plus_uconst 24] [$sp+0]
	.loc	2 0 9                           @ ../../../ThirdParty/mbedTLS/library/dhm.c:0:9
	str	r7, [sp, #12]                   @ 4-byte Spill
.Ltmp240:
	@DEBUG_VALUE: dhm_update_blinding:ctx <- [DW_OP_plus_uconst 12] [$sp+0]
	adds	r7, r7, #4
	movs	r1, #0
	movs	r4, #1
	movs	r0, #13
	mvns	r0, r0
.Ltmp241:
	.loc	2 373 5 is_stmt 1               @ ../../../ThirdParty/mbedTLS/library/dhm.c:373:5
	str	r0, [sp, #8]                    @ 4-byte Spill
.Ltmp242:
.LBB9_11:                               @ =>This Loop Header: Depth=1
                                        @     Child Loop BB9_12 Depth 2
	@DEBUG_VALUE: dhm_update_blinding:ctx <- [DW_OP_plus_uconst 12] [$sp+0]
	@DEBUG_VALUE: dhm_update_blinding:p_rng <- [DW_OP_plus_uconst 24] [$sp+0]
	@DEBUG_VALUE: dhm_update_blinding:count <- $r1
	.loc	2 0 5 is_stmt 0                 @ ../../../ThirdParty/mbedTLS/library/dhm.c:0:5
	str	r1, [sp, #16]                   @ 4-byte Spill
.Ltmp243:
	@DEBUG_VALUE: dhm_update_blinding:count <- [DW_OP_plus_uconst 16] [$sp+0]
	@DEBUG_VALUE: dhm_update_blinding:count <- [DW_OP_plus_uconst 16] [$sp+0]
	@DEBUG_VALUE: dhm_update_blinding:count <- [DW_OP_plus_uconst 16] [$sp+0]
	.loc	2 375 9 is_stmt 1               @ ../../../ThirdParty/mbedTLS/library/dhm.c:375:9
	mov	r0, r7
	bl	mbedtls_mpi_size
	mov	r1, r0
	mov	r0, r6
	ldr	r2, [sp, #20]                   @ 4-byte Reload
.Ltmp244:
	@DEBUG_VALUE: dhm_update_blinding:f_rng <- $r2
	ldr	r3, [sp, #24]                   @ 4-byte Reload
	bl	mbedtls_mpi_fill_random
.Ltmp245:
	@DEBUG_VALUE: dhm_update_blinding:ret <- $r0
	.loc	2 0 9 is_stmt 0                 @ ../../../ThirdParty/mbedTLS/library/dhm.c:0:9
	cbnz	r0, .LBB9_17
.Ltmp246:
.LBB9_12:                               @   Parent Loop BB9_11 Depth=1
                                        @ =>  This Inner Loop Header: Depth=2
	@DEBUG_VALUE: dhm_update_blinding:ctx <- [DW_OP_plus_uconst 12] [$sp+0]
	@DEBUG_VALUE: dhm_update_blinding:ret <- $r0
	@DEBUG_VALUE: dhm_update_blinding:count <- [DW_OP_plus_uconst 16] [$sp+0]
	@DEBUG_VALUE: dhm_update_blinding:p_rng <- [DW_OP_plus_uconst 24] [$sp+0]
	.loc	2 377 16 is_stmt 1              @ ../../../ThirdParty/mbedTLS/library/dhm.c:377:16
	mov	r0, r6
.Ltmp247:
	mov	r1, r7
	bl	mbedtls_mpi_cmp_mpi
	.loc	2 377 9 is_stmt 0               @ ../../../ThirdParty/mbedTLS/library/dhm.c:377:9
	cmp	r0, #0
	bmi	.LBB9_14
.Ltmp248:
@ %bb.13:                               @   in Loop: Header=BB9_12 Depth=2
	@DEBUG_VALUE: dhm_update_blinding:ctx <- [DW_OP_plus_uconst 12] [$sp+0]
	@DEBUG_VALUE: dhm_update_blinding:count <- [DW_OP_plus_uconst 16] [$sp+0]
	@DEBUG_VALUE: dhm_update_blinding:p_rng <- [DW_OP_plus_uconst 24] [$sp+0]
	.loc	2 378 13 is_stmt 1              @ ../../../ThirdParty/mbedTLS/library/dhm.c:378:13
	mov	r0, r6
	mov	r1, r4
	bl	mbedtls_mpi_shift_r
.Ltmp249:
	@DEBUG_VALUE: dhm_update_blinding:ret <- $r0
	.loc	2 0 0 is_stmt 0                 @ ../../../ThirdParty/mbedTLS/library/dhm.c:0:0
	cmp	r0, #0
	beq	.LBB9_12
	b	.LBB9_17
.Ltmp250:
.LBB9_14:                               @   in Loop: Header=BB9_11 Depth=1
	@DEBUG_VALUE: dhm_update_blinding:ctx <- [DW_OP_plus_uconst 12] [$sp+0]
	@DEBUG_VALUE: dhm_update_blinding:count <- [DW_OP_plus_uconst 16] [$sp+0]
	@DEBUG_VALUE: dhm_update_blinding:p_rng <- [DW_OP_plus_uconst 24] [$sp+0]
	@DEBUG_VALUE: dhm_update_blinding:count <- [DW_OP_plus_uconst 16, DW_OP_deref_size 4, DW_OP_plus_uconst 1, DW_OP_stack_value] $sp
	.loc	2 380 13 is_stmt 1              @ ../../../ThirdParty/mbedTLS/library/dhm.c:380:13
	ldr	r0, [sp, #16]                   @ 4-byte Reload
.Ltmp251:
	@DEBUG_VALUE: dhm_update_blinding:count <- [DW_OP_plus_uconst 1, DW_OP_stack_value] $r0
	cmp	r0, #11
.Ltmp252:
	@DEBUG_VALUE: dhm_update_blinding:count <- [DW_OP_plus_uconst 16, DW_OP_deref_size 4, DW_OP_plus_uconst 1, DW_OP_stack_value] $sp
	beq	.LBB9_18
.Ltmp253:
@ %bb.15:                               @   in Loop: Header=BB9_11 Depth=1
	@DEBUG_VALUE: dhm_update_blinding:ctx <- [DW_OP_plus_uconst 12] [$sp+0]
	@DEBUG_VALUE: dhm_update_blinding:count <- [DW_OP_plus_uconst 16, DW_OP_deref_size 4, DW_OP_plus_uconst 1, DW_OP_stack_value] $sp
	@DEBUG_VALUE: dhm_update_blinding:p_rng <- [DW_OP_plus_uconst 24] [$sp+0]
	.loc	2 0 13 is_stmt 0                @ ../../../ThirdParty/mbedTLS/library/dhm.c:0:13
	movs	r1, #1
	.loc	2 383 12 is_stmt 1              @ ../../../ThirdParty/mbedTLS/library/dhm.c:383:12
	mov	r0, r6
	bl	mbedtls_mpi_cmp_int
	ldr	r1, [sp, #16]                   @ 4-byte Reload
.Ltmp254:
	.loc	2 380 18                        @ ../../../ThirdParty/mbedTLS/library/dhm.c:380:18
	adds	r1, r1, #1
.Ltmp255:
	@DEBUG_VALUE: dhm_update_blinding:count <- $r1
	.loc	2 382 5                         @ ../../../ThirdParty/mbedTLS/library/dhm.c:382:5
	cmp	r0, #1
	blt	.LBB9_11
.Ltmp256:
@ %bb.16:
	@DEBUG_VALUE: dhm_update_blinding:ctx <- [DW_OP_plus_uconst 12] [$sp+0]
	@DEBUG_VALUE: dhm_update_blinding:count <- $r1
	@DEBUG_VALUE: dhm_update_blinding:p_rng <- [DW_OP_plus_uconst 24] [$sp+0]
	.loc	2 386 5                         @ ../../../ThirdParty/mbedTLS/library/dhm.c:386:5
	ldr	r4, [sp, #12]                   @ 4-byte Reload
.Ltmp257:
	@DEBUG_VALUE: dhm_update_blinding:ctx <- $r4
	adds	r4, #100
.Ltmp258:
	mov	r0, r4
	mov	r1, r6
.Ltmp259:
	mov	r2, r7
	bl	mbedtls_mpi_inv_mod
.Ltmp260:
	@DEBUG_VALUE: dhm_update_blinding:ret <- $r0
	.loc	2 386 5 is_stmt 0               @ ../../../ThirdParty/mbedTLS/library/dhm.c:386:5
	cbz	r0, .LBB9_19
.Ltmp261:
.LBB9_17:
	@DEBUG_VALUE: dhm_update_blinding:ret <- $r0
	@DEBUG_VALUE: dhm_update_blinding:p_rng <- [DW_OP_plus_uconst 24] [$sp+0]
	.loc	2 391 1 is_stmt 1               @ ../../../ThirdParty/mbedTLS/library/dhm.c:391:1
	add	sp, #28
.Ltmp262:
	pop	{r4, r5, r6, r7, pc}
.Ltmp263:
.LBB9_18:
	@DEBUG_VALUE: dhm_update_blinding:ctx <- [DW_OP_plus_uconst 12] [$sp+0]
	@DEBUG_VALUE: dhm_update_blinding:count <- [DW_OP_plus_uconst 16, DW_OP_deref_size 4, DW_OP_plus_uconst 1, DW_OP_stack_value] $sp
	@DEBUG_VALUE: dhm_update_blinding:p_rng <- [DW_OP_plus_uconst 24] [$sp+0]
	.loc	2 0 0 is_stmt 0                 @ ../../../ThirdParty/mbedTLS/library/dhm.c:0:0
	ldr	r0, [sp, #8]                    @ 4-byte Reload
	.loc	2 391 1                         @ ../../../ThirdParty/mbedTLS/library/dhm.c:391:1
	add	sp, #28
.Ltmp264:
	pop	{r4, r5, r6, r7, pc}
.LBB9_19:
.Ltmp265:
	@DEBUG_VALUE: dhm_update_blinding:ret <- $r0
	@DEBUG_VALUE: dhm_update_blinding:p_rng <- [DW_OP_plus_uconst 24] [$sp+0]
	.loc	2 0 1                           @ ../../../ThirdParty/mbedTLS/library/dhm.c:0:1
	ldr	r0, [sp, #12]                   @ 4-byte Reload
.Ltmp266:
	.loc	2 387 5 is_stmt 1               @ ../../../ThirdParty/mbedTLS/library/dhm.c:387:5
	adds	r0, #76
	str	r0, [sp]
	mov	r0, r4
	mov	r1, r4
	mov	r2, r5
	mov	r3, r7
	bl	mbedtls_mpi_exp_mod
.Ltmp267:
	@DEBUG_VALUE: dhm_update_blinding:ret <- $r0
	@DEBUG_VALUE: dhm_update_blinding:ret <- $r0
	.loc	2 391 1                         @ ../../../ThirdParty/mbedTLS/library/dhm.c:391:1
	add	sp, #28
.Ltmp268:
	pop	{r4, r5, r6, r7, pc}
.Ltmp269:
.Lfunc_end9:
	.size	dhm_update_blinding, .Lfunc_end9-dhm_update_blinding
	.cfi_endproc
	.cantunwind
	.fnend
                                        @ -- End function
	.section	.text.mbedtls_dhm_free,"ax",%progbits
	.hidden	mbedtls_dhm_free                @ -- Begin function mbedtls_dhm_free
	.globl	mbedtls_dhm_free
	.p2align	1
	.type	mbedtls_dhm_free,%function
	.code	16                              @ @mbedtls_dhm_free
	.thumb_func
mbedtls_dhm_free:
.Lfunc_begin10:
	.loc	2 453 0                         @ ../../../ThirdParty/mbedTLS/library/dhm.c:453:0
	.fnstart
	.cfi_startproc
@ %bb.0:
	@DEBUG_VALUE: mbedtls_dhm_free:ctx <- $r0
	@DEBUG_VALUE: mbedtls_dhm_free:ctx <- $r0
	.save	{r4, lr}
	push	{r4, lr}
	.cfi_def_cfa_offset 8
	.cfi_offset lr, -4
	.cfi_offset r4, -8
.Ltmp270:
	.loc	2 454 9 prologue_end            @ ../../../ThirdParty/mbedTLS/library/dhm.c:454:9
	cbz	r0, .LBB10_2
.Ltmp271:
@ %bb.1:
	@DEBUG_VALUE: mbedtls_dhm_free:ctx <- $r0
	.loc	2 0 9 is_stmt 0                 @ ../../../ThirdParty/mbedTLS/library/dhm.c:0:9
	mov	r4, r0
.Ltmp272:
	@DEBUG_VALUE: mbedtls_dhm_free:ctx <- $r4
	.loc	2 457 29 is_stmt 1              @ ../../../ThirdParty/mbedTLS/library/dhm.c:457:29
	adds	r0, #112
	.loc	2 457 5 is_stmt 0               @ ../../../ThirdParty/mbedTLS/library/dhm.c:457:5
	bl	mbedtls_mpi_free
	.loc	2 458 29 is_stmt 1              @ ../../../ThirdParty/mbedTLS/library/dhm.c:458:29
	mov	r0, r4
	adds	r0, #100
	.loc	2 458 5 is_stmt 0               @ ../../../ThirdParty/mbedTLS/library/dhm.c:458:5
	bl	mbedtls_mpi_free
	.loc	2 459 29 is_stmt 1              @ ../../../ThirdParty/mbedTLS/library/dhm.c:459:29
	mov	r0, r4
	adds	r0, #88
	.loc	2 459 5 is_stmt 0               @ ../../../ThirdParty/mbedTLS/library/dhm.c:459:5
	bl	mbedtls_mpi_free
	.loc	2 460 29 is_stmt 1              @ ../../../ThirdParty/mbedTLS/library/dhm.c:460:29
	mov	r0, r4
	adds	r0, #76
	.loc	2 460 5 is_stmt 0               @ ../../../ThirdParty/mbedTLS/library/dhm.c:460:5
	bl	mbedtls_mpi_free
	.loc	2 461 29 is_stmt 1              @ ../../../ThirdParty/mbedTLS/library/dhm.c:461:29
	mov	r0, r4
	adds	r0, #64
	.loc	2 461 5 is_stmt 0               @ ../../../ThirdParty/mbedTLS/library/dhm.c:461:5
	bl	mbedtls_mpi_free
	.loc	2 462 29 is_stmt 1              @ ../../../ThirdParty/mbedTLS/library/dhm.c:462:29
	mov	r0, r4
	adds	r0, #52
	.loc	2 462 5 is_stmt 0               @ ../../../ThirdParty/mbedTLS/library/dhm.c:462:5
	bl	mbedtls_mpi_free
	.loc	2 463 29 is_stmt 1              @ ../../../ThirdParty/mbedTLS/library/dhm.c:463:29
	mov	r0, r4
	adds	r0, #40
	.loc	2 463 5 is_stmt 0               @ ../../../ThirdParty/mbedTLS/library/dhm.c:463:5
	bl	mbedtls_mpi_free
	.loc	2 464 29 is_stmt 1              @ ../../../ThirdParty/mbedTLS/library/dhm.c:464:29
	mov	r0, r4
	adds	r0, #28
	.loc	2 464 5 is_stmt 0               @ ../../../ThirdParty/mbedTLS/library/dhm.c:464:5
	bl	mbedtls_mpi_free
	.loc	2 465 29 is_stmt 1              @ ../../../ThirdParty/mbedTLS/library/dhm.c:465:29
	mov	r0, r4
	adds	r0, #16
	.loc	2 465 5 is_stmt 0               @ ../../../ThirdParty/mbedTLS/library/dhm.c:465:5
	bl	mbedtls_mpi_free
	.loc	2 466 29 is_stmt 1              @ ../../../ThirdParty/mbedTLS/library/dhm.c:466:29
	adds	r0, r4, #4
	.loc	2 466 5 is_stmt 0               @ ../../../ThirdParty/mbedTLS/library/dhm.c:466:5
	bl	mbedtls_mpi_free
	movs	r1, #124
	.loc	2 468 5 is_stmt 1               @ ../../../ThirdParty/mbedTLS/library/dhm.c:468:5
	mov	r0, r4
	bl	mbedtls_platform_zeroize
.Ltmp273:
.LBB10_2:
	.loc	2 469 1                         @ ../../../ThirdParty/mbedTLS/library/dhm.c:469:1
	pop	{r4, pc}
.Ltmp274:
.Lfunc_end10:
	.size	mbedtls_dhm_free, .Lfunc_end10-mbedtls_dhm_free
	.cfi_endproc
	.cantunwind
	.fnend
                                        @ -- End function
	.section	.text.mbedtls_dhm_parse_dhm,"ax",%progbits
	.hidden	mbedtls_dhm_parse_dhm           @ -- Begin function mbedtls_dhm_parse_dhm
	.globl	mbedtls_dhm_parse_dhm
	.p2align	2
	.type	mbedtls_dhm_parse_dhm,%function
	.code	16                              @ @mbedtls_dhm_parse_dhm
	.thumb_func
mbedtls_dhm_parse_dhm:
.Lfunc_begin11:
	.loc	2 477 0                         @ ../../../ThirdParty/mbedTLS/library/dhm.c:477:0
	.fnstart
	.cfi_startproc
@ %bb.0:
	@DEBUG_VALUE: mbedtls_dhm_parse_dhm:dhm <- $r0
	@DEBUG_VALUE: mbedtls_dhm_parse_dhm:dhmin <- $r1
	@DEBUG_VALUE: mbedtls_dhm_parse_dhm:dhminlen <- $r2
	@DEBUG_VALUE: mbedtls_dhm_parse_dhm:dhminlen <- $r2
	.save	{r4, r5, r6, r7, lr}
	push	{r4, r5, r6, r7, lr}
	.cfi_def_cfa_offset 20
	.cfi_offset lr, -4
	.cfi_offset r7, -8
	.cfi_offset r6, -12
	.cfi_offset r5, -16
	.cfi_offset r4, -20
	.pad	#52
	sub	sp, #52
	.cfi_def_cfa_offset 72
	mov	r5, r1
	mov	r4, r0
	str	r2, [sp, #48]
.Ltmp275:
	@DEBUG_VALUE: mbedtls_dhm_parse_dhm:dhmin <- $r5
	@DEBUG_VALUE: mbedtls_dhm_parse_dhm:dhm <- $r4
	add	r0, sp, #28
.Ltmp276:
	.loc	2 489 5 prologue_end            @ ../../../ThirdParty/mbedTLS/library/dhm.c:489:5
	bl	mbedtls_pem_init
.Ltmp277:
	@DEBUG_VALUE: mbedtls_dhm_parse_dhm:dhminlen <- [DW_OP_LLVM_entry_value 1] $r2
	.loc	2 0 5 is_stmt 0                 @ ../../../ThirdParty/mbedTLS/library/dhm.c:0:5
	ldr	r7, __arm_cp.11_0
.Ltmp278:
	.loc	2 492 9 is_stmt 1               @ ../../../ThirdParty/mbedTLS/library/dhm.c:492:9
	ldr	r0, [sp, #48]
.Ltmp279:
	@DEBUG_VALUE: mbedtls_dhm_parse_dhm:dhminlen <- $r0
	.loc	2 0 0 is_stmt 0                 @ ../../../ThirdParty/mbedTLS/library/dhm.c:0:0
	mov	r6, r7
	.loc	2 492 23                        @ ../../../ThirdParty/mbedTLS/library/dhm.c:492:23
	cbz	r0, .LBB11_2
.Ltmp280:
@ %bb.1:
	@DEBUG_VALUE: mbedtls_dhm_parse_dhm:dhmin <- $r5
	@DEBUG_VALUE: mbedtls_dhm_parse_dhm:dhm <- $r4
	@DEBUG_VALUE: mbedtls_dhm_parse_dhm:dhminlen <- $r0
	.loc	2 492 41                        @ ../../../ThirdParty/mbedTLS/library/dhm.c:492:41
	adds	r0, r0, r5
.Ltmp281:
	.loc	2 492 26                        @ ../../../ThirdParty/mbedTLS/library/dhm.c:492:26
	subs	r0, r0, #1
	ldrb	r0, [r0]
	.loc	2 0 0                           @ ../../../ThirdParty/mbedTLS/library/dhm.c:0:0
	mov	r6, r7
.Ltmp282:
	.loc	2 492 9                         @ ../../../ThirdParty/mbedTLS/library/dhm.c:492:9
	cbz	r0, .LBB11_13
.Ltmp283:
.LBB11_2:
	@DEBUG_VALUE: mbedtls_dhm_parse_dhm:dhmin <- $r5
	@DEBUG_VALUE: mbedtls_dhm_parse_dhm:dhm <- $r4
	@DEBUG_VALUE: mbedtls_dhm_parse_dhm:ret <- $r6
	.loc	2 500 9 is_stmt 1               @ ../../../ThirdParty/mbedTLS/library/dhm.c:500:9
	cbz	r6, .LBB11_14
.Ltmp284:
.LBB11_3:
	@DEBUG_VALUE: mbedtls_dhm_parse_dhm:ret <- $r6
	@DEBUG_VALUE: mbedtls_dhm_parse_dhm:dhmin <- $r5
	@DEBUG_VALUE: mbedtls_dhm_parse_dhm:dhm <- $r4
	.loc	2 507 14                        @ ../../../ThirdParty/mbedTLS/library/dhm.c:507:14
	cmp	r6, r7
	bne	.LBB11_10
.Ltmp285:
@ %bb.4:
	@DEBUG_VALUE: mbedtls_dhm_parse_dhm:ret <- $r6
	@DEBUG_VALUE: mbedtls_dhm_parse_dhm:dhmin <- $r5
	@DEBUG_VALUE: mbedtls_dhm_parse_dhm:dhm <- $r4
	.loc	2 510 9                         @ ../../../ThirdParty/mbedTLS/library/dhm.c:510:9
	cbnz	r6, .LBB11_6
.Ltmp286:
.LBB11_5:
	@DEBUG_VALUE: mbedtls_dhm_parse_dhm:ret <- $r6
	@DEBUG_VALUE: mbedtls_dhm_parse_dhm:dhmin <- $r5
	@DEBUG_VALUE: mbedtls_dhm_parse_dhm:dhm <- $r4
	.loc	2 0 9 is_stmt 0                 @ ../../../ThirdParty/mbedTLS/library/dhm.c:0:9
	ldr	r5, [sp, #28]
.Ltmp287:
.LBB11_6:
	@DEBUG_VALUE: mbedtls_dhm_parse_dhm:ret <- $r6
	@DEBUG_VALUE: mbedtls_dhm_parse_dhm:dhm <- $r4
	@DEBUG_VALUE: mbedtls_dhm_parse_dhm:p <- $r5
	.loc	2 510 7                         @ ../../../ThirdParty/mbedTLS/library/dhm.c:510:7
	str	r5, [sp, #40]
	.loc	2 514 15 is_stmt 1              @ ../../../ThirdParty/mbedTLS/library/dhm.c:514:15
	ldr	r0, [sp, #48]
.Ltmp288:
	@DEBUG_VALUE: mbedtls_dhm_parse_dhm:dhminlen <- $r0
	.loc	2 514 13 is_stmt 0              @ ../../../ThirdParty/mbedTLS/library/dhm.c:514:13
	adds	r1, r5, r0
.Ltmp289:
	@DEBUG_VALUE: mbedtls_dhm_parse_dhm:len <- [DW_OP_plus_uconst 44, DW_OP_deref] $sp
	@DEBUG_VALUE: mbedtls_dhm_parse_dhm:end <- $r1
	@DEBUG_VALUE: mbedtls_dhm_parse_dhm:p <- [DW_OP_plus_uconst 40, DW_OP_deref] $sp
	.loc	2 0 13                          @ ../../../ThirdParty/mbedTLS/library/dhm.c:0:13
	add	r0, sp, #40
.Ltmp290:
	add	r2, sp, #44
	movs	r3, #48
.Ltmp291:
	.loc	2 523 17 is_stmt 1              @ ../../../ThirdParty/mbedTLS/library/dhm.c:523:17
	bl	mbedtls_asn1_get_tag
.Ltmp292:
	@DEBUG_VALUE: mbedtls_dhm_parse_dhm:ret <- $r0
	.loc	2 523 9 is_stmt 0               @ ../../../ThirdParty/mbedTLS/library/dhm.c:523:9
	cbnz	r0, .LBB11_9
.Ltmp293:
@ %bb.7:
	@DEBUG_VALUE: mbedtls_dhm_parse_dhm:dhm <- $r4
	@DEBUG_VALUE: mbedtls_dhm_parse_dhm:ret <- $r0
	@DEBUG_VALUE: mbedtls_dhm_parse_dhm:p <- [DW_OP_plus_uconst 40, DW_OP_deref] $sp
	@DEBUG_VALUE: mbedtls_dhm_parse_dhm:len <- [DW_OP_plus_uconst 44, DW_OP_deref] $sp
	.loc	2 530 15 is_stmt 1              @ ../../../ThirdParty/mbedTLS/library/dhm.c:530:15
	ldr	r0, [sp, #44]
.Ltmp294:
	@DEBUG_VALUE: mbedtls_dhm_parse_dhm:len <- $r0
	.loc	2 530 11 is_stmt 0              @ ../../../ThirdParty/mbedTLS/library/dhm.c:530:11
	ldr	r1, [sp, #40]
.Ltmp295:
	@DEBUG_VALUE: mbedtls_dhm_parse_dhm:p <- $r1
	.loc	2 530 13                        @ ../../../ThirdParty/mbedTLS/library/dhm.c:530:13
	adds	r7, r1, r0
.Ltmp296:
	@DEBUG_VALUE: mbedtls_dhm_parse_dhm:end <- $r7
	@DEBUG_VALUE: mbedtls_dhm_parse_dhm:p <- [DW_OP_plus_uconst 40, DW_OP_deref] $sp
	.loc	2 532 54 is_stmt 1              @ ../../../ThirdParty/mbedTLS/library/dhm.c:532:54
	adds	r5, r4, #4
	add	r0, sp, #40
.Ltmp297:
	.loc	2 532 17 is_stmt 0              @ ../../../ThirdParty/mbedTLS/library/dhm.c:532:17
	mov	r1, r7
	mov	r2, r5
	bl	mbedtls_asn1_get_mpi
.Ltmp298:
	@DEBUG_VALUE: mbedtls_dhm_parse_dhm:ret <- $r0
	.loc	2 532 66                        @ ../../../ThirdParty/mbedTLS/library/dhm.c:532:66
	cbnz	r0, .LBB11_9
.Ltmp299:
@ %bb.8:
	@DEBUG_VALUE: mbedtls_dhm_parse_dhm:end <- $r7
	@DEBUG_VALUE: mbedtls_dhm_parse_dhm:dhm <- $r4
	@DEBUG_VALUE: mbedtls_dhm_parse_dhm:ret <- $r0
	@DEBUG_VALUE: mbedtls_dhm_parse_dhm:p <- [DW_OP_plus_uconst 40, DW_OP_deref] $sp
	@DEBUG_VALUE: mbedtls_dhm_parse_dhm:p <- [DW_OP_plus_uconst 40, DW_OP_deref] $sp
	.loc	2 533 58 is_stmt 1              @ ../../../ThirdParty/mbedTLS/library/dhm.c:533:58
	mov	r2, r4
	adds	r2, #16
	add	r0, sp, #40
.Ltmp300:
	.loc	2 533 21 is_stmt 0              @ ../../../ThirdParty/mbedTLS/library/dhm.c:533:21
	mov	r1, r7
	bl	mbedtls_asn1_get_mpi
.Ltmp301:
	@DEBUG_VALUE: mbedtls_dhm_parse_dhm:ret <- $r0
	.loc	2 532 9 is_stmt 1               @ ../../../ThirdParty/mbedTLS/library/dhm.c:532:9
	cbz	r0, .LBB11_15
.Ltmp302:
.LBB11_9:
	@DEBUG_VALUE: mbedtls_dhm_parse_dhm:dhm <- $r4
	@DEBUG_VALUE: mbedtls_dhm_parse_dhm:ret <- $r0
	@DEBUG_VALUE: mbedtls_dhm_parse_dhm:p <- [DW_OP_plus_uconst 40, DW_OP_deref] $sp
	.loc	2 0 0 is_stmt 0                 @ ../../../ThirdParty/mbedTLS/library/dhm.c:0:0
	movw	r1, #13184
	subs	r6, r0, r1
.Ltmp303:
	@DEBUG_VALUE: mbedtls_dhm_parse_dhm:ret <- $r6
.LBB11_10:
	@DEBUG_VALUE: mbedtls_dhm_parse_dhm:dhm <- $r4
	@DEBUG_VALUE: mbedtls_dhm_parse_dhm:ret <- $r6
	@DEBUG_LABEL: mbedtls_dhm_parse_dhm:exit
	add	r0, sp, #28
	.loc	2 566 5 is_stmt 1               @ ../../../ThirdParty/mbedTLS/library/dhm.c:566:5
	bl	mbedtls_pem_free
	.loc	2 568 9                         @ ../../../ThirdParty/mbedTLS/library/dhm.c:568:9
	cbz	r6, .LBB11_12
.Ltmp304:
@ %bb.11:
	@DEBUG_VALUE: mbedtls_dhm_parse_dhm:ret <- $r6
	@DEBUG_VALUE: mbedtls_dhm_parse_dhm:dhm <- $r4
	.loc	2 569 9                         @ ../../../ThirdParty/mbedTLS/library/dhm.c:569:9
	mov	r0, r4
	bl	mbedtls_dhm_free
.Ltmp305:
.LBB11_12:
	@DEBUG_VALUE: mbedtls_dhm_parse_dhm:ret <- $r6
	@DEBUG_VALUE: mbedtls_dhm_parse_dhm:dhm <- $r4
	.loc	2 572 1                         @ ../../../ThirdParty/mbedTLS/library/dhm.c:572:1
	mov	r0, r6
	add	sp, #52
	pop	{r4, r5, r6, r7, pc}
.Ltmp306:
.LBB11_13:
	@DEBUG_VALUE: mbedtls_dhm_parse_dhm:dhmin <- $r5
	@DEBUG_VALUE: mbedtls_dhm_parse_dhm:dhm <- $r4
	@DEBUG_VALUE: mbedtls_dhm_parse_dhm:dhminlen <- [DW_OP_plus_uconst 48, DW_OP_deref] $sp
	.loc	2 0 1 is_stmt 0                 @ ../../../ThirdParty/mbedTLS/library/dhm.c:0:1
	add	r0, sp, #48
	movs	r1, #0
.Ltmp307:
	.loc	2 495 15 is_stmt 1              @ ../../../ThirdParty/mbedTLS/library/dhm.c:495:15
	str	r1, [sp]
	str	r1, [sp, #4]
	str	r0, [sp, #8]
	add	r0, sp, #28
	adr	r1, .LCPI11_1
	adr	r2, .LCPI11_2
	mov	r3, r5
	bl	mbedtls_pem_read_buffer
	mov	r6, r0
.Ltmp308:
	@DEBUG_VALUE: mbedtls_dhm_parse_dhm:ret <- $r6
	@DEBUG_VALUE: mbedtls_dhm_parse_dhm:ret <- $r6
	.loc	2 500 9                         @ ../../../ThirdParty/mbedTLS/library/dhm.c:500:9
	cmp	r6, #0
	bne	.LBB11_3
.Ltmp309:
.LBB11_14:
	@DEBUG_VALUE: mbedtls_dhm_parse_dhm:ret <- $r6
	@DEBUG_VALUE: mbedtls_dhm_parse_dhm:dhmin <- $r5
	@DEBUG_VALUE: mbedtls_dhm_parse_dhm:dhm <- $r4
	.loc	2 505 24                        @ ../../../ThirdParty/mbedTLS/library/dhm.c:505:24
	ldr	r0, [sp, #32]
.Ltmp310:
	@DEBUG_VALUE: mbedtls_dhm_parse_dhm:dhminlen <- $r0
	.loc	2 505 18 is_stmt 0              @ ../../../ThirdParty/mbedTLS/library/dhm.c:505:18
	str	r0, [sp, #48]
.Ltmp311:
	.loc	2 510 9 is_stmt 1               @ ../../../ThirdParty/mbedTLS/library/dhm.c:510:9
	cmp	r6, #0
	beq	.LBB11_5
	b	.LBB11_6
.Ltmp312:
.LBB11_15:
	@DEBUG_VALUE: mbedtls_dhm_parse_dhm:end <- $r7
	@DEBUG_VALUE: mbedtls_dhm_parse_dhm:dhm <- $r4
	@DEBUG_VALUE: mbedtls_dhm_parse_dhm:ret <- $r0
	@DEBUG_VALUE: mbedtls_dhm_parse_dhm:p <- [DW_OP_plus_uconst 40, DW_OP_deref] $sp
	.loc	2 539 9                         @ ../../../ThirdParty/mbedTLS/library/dhm.c:539:9
	ldr	r0, [sp, #40]
.Ltmp313:
	@DEBUG_VALUE: mbedtls_dhm_parse_dhm:p <- $r0
	.loc	2 539 9 is_stmt 0               @ ../../../ThirdParty/mbedTLS/library/dhm.c:539:9
	cmp	r0, r7
	beq	.LBB11_22
.Ltmp314:
@ %bb.16:
	@DEBUG_VALUE: mbedtls_dhm_parse_dhm:end <- $r7
	@DEBUG_VALUE: mbedtls_dhm_parse_dhm:dhm <- $r4
	@DEBUG_VALUE: mbedtls_dhm_parse_dhm:p <- $r0
	.loc	2 0 9                           @ ../../../ThirdParty/mbedTLS/library/dhm.c:0:9
	add	r6, sp, #16
.Ltmp315:
	.loc	2 544 9 is_stmt 1               @ ../../../ThirdParty/mbedTLS/library/dhm.c:544:9
	mov	r0, r6
.Ltmp316:
	bl	mbedtls_mpi_init
.Ltmp317:
	@DEBUG_VALUE: mbedtls_dhm_parse_dhm:p <- [DW_OP_plus_uconst 40, DW_OP_deref] $sp
	.loc	2 0 9 is_stmt 0                 @ ../../../ThirdParty/mbedTLS/library/dhm.c:0:9
	add	r0, sp, #40
	.loc	2 545 15 is_stmt 1              @ ../../../ThirdParty/mbedTLS/library/dhm.c:545:15
	mov	r1, r7
	mov	r2, r6
	bl	mbedtls_asn1_get_mpi
	str	r0, [sp, #12]                   @ 4-byte Spill
.Ltmp318:
	@DEBUG_VALUE: mbedtls_dhm_parse_dhm:ret <- [DW_OP_plus_uconst 12] [$sp+0]
	.loc	2 546 9                         @ ../../../ThirdParty/mbedTLS/library/dhm.c:546:9
	mov	r0, r6
	bl	mbedtls_mpi_free
	ldr	r0, [sp, #12]                   @ 4-byte Reload
.Ltmp319:
	@DEBUG_VALUE: mbedtls_dhm_parse_dhm:ret <- $r0
	.loc	2 0 9 is_stmt 0                 @ ../../../ThirdParty/mbedTLS/library/dhm.c:0:9
	ldr	r1, __arm_cp.11_3
	.loc	2 547 14 is_stmt 1              @ ../../../ThirdParty/mbedTLS/library/dhm.c:547:14
	cbz	r0, .LBB11_18
.Ltmp320:
@ %bb.17:
	@DEBUG_VALUE: mbedtls_dhm_parse_dhm:end <- $r7
	@DEBUG_VALUE: mbedtls_dhm_parse_dhm:dhm <- $r4
	@DEBUG_VALUE: mbedtls_dhm_parse_dhm:ret <- $r0
	@DEBUG_VALUE: mbedtls_dhm_parse_dhm:p <- [DW_OP_plus_uconst 40, DW_OP_deref] $sp
	.loc	2 549 50                        @ ../../../ThirdParty/mbedTLS/library/dhm.c:549:50
	adds	r6, r0, r1
.Ltmp321:
	@DEBUG_VALUE: mbedtls_dhm_parse_dhm:ret <- $r6
	.loc	2 0 50 is_stmt 0                @ ../../../ThirdParty/mbedTLS/library/dhm.c:0:50
	movs	r0, #6
	@DEBUG_VALUE: mbedtls_dhm_parse_dhm:ret <- $r6
	cmp	r0, #6
	bne	.LBB11_21
	b	.LBB11_10
.Ltmp322:
.LBB11_18:
	@DEBUG_VALUE: mbedtls_dhm_parse_dhm:end <- $r7
	@DEBUG_VALUE: mbedtls_dhm_parse_dhm:dhm <- $r4
	@DEBUG_VALUE: mbedtls_dhm_parse_dhm:ret <- $r0
	@DEBUG_VALUE: mbedtls_dhm_parse_dhm:p <- [DW_OP_plus_uconst 40, DW_OP_deref] $sp
	.loc	2 552 14 is_stmt 1              @ ../../../ThirdParty/mbedTLS/library/dhm.c:552:14
	ldr	r2, [sp, #40]
.Ltmp323:
	@DEBUG_VALUE: mbedtls_dhm_parse_dhm:p <- $r2
	.loc	2 0 14 is_stmt 0                @ ../../../ThirdParty/mbedTLS/library/dhm.c:0:14
	movs	r6, #0
.Ltmp324:
	.loc	2 552 14                        @ ../../../ThirdParty/mbedTLS/library/dhm.c:552:14
	cmp	r2, r7
	mov	r0, r6
.Ltmp325:
	bne	.LBB11_23
.Ltmp326:
@ %bb.19:
	@DEBUG_VALUE: mbedtls_dhm_parse_dhm:end <- $r7
	@DEBUG_VALUE: mbedtls_dhm_parse_dhm:dhm <- $r4
	@DEBUG_VALUE: mbedtls_dhm_parse_dhm:p <- $r2
	cmp	r2, r7
	bne	.LBB11_24
.Ltmp327:
.LBB11_20:
	@DEBUG_VALUE: mbedtls_dhm_parse_dhm:end <- $r7
	@DEBUG_VALUE: mbedtls_dhm_parse_dhm:dhm <- $r4
	@DEBUG_VALUE: mbedtls_dhm_parse_dhm:p <- $r2
	@DEBUG_VALUE: mbedtls_dhm_parse_dhm:ret <- $r6
	.loc	2 0 14                          @ ../../../ThirdParty/mbedTLS/library/dhm.c:0:14
	cmp	r0, #6
	beq	.LBB11_10
.Ltmp328:
.LBB11_21:
	@DEBUG_VALUE: mbedtls_dhm_parse_dhm:end <- $r7
	@DEBUG_VALUE: mbedtls_dhm_parse_dhm:ret <- $r6
	@DEBUG_VALUE: mbedtls_dhm_parse_dhm:dhm <- $r4
	cmp	r0, #0
                                        @ implicit-def: $r6
	bne	.LBB11_12
.Ltmp329:
.LBB11_22:
	@DEBUG_VALUE: mbedtls_dhm_parse_dhm:end <- $r7
	@DEBUG_VALUE: mbedtls_dhm_parse_dhm:dhm <- $r4
	@DEBUG_VALUE: mbedtls_dhm_parse_dhm:ret <- 0
	.loc	2 562 16 is_stmt 1              @ ../../../ThirdParty/mbedTLS/library/dhm.c:562:16
	mov	r0, r5
	bl	mbedtls_mpi_size
	.loc	2 562 14 is_stmt 0              @ ../../../ThirdParty/mbedTLS/library/dhm.c:562:14
	str	r0, [r4]
	movs	r6, #0
	b	.LBB11_10
.Ltmp330:
.LBB11_23:
	@DEBUG_VALUE: mbedtls_dhm_parse_dhm:end <- $r7
	@DEBUG_VALUE: mbedtls_dhm_parse_dhm:dhm <- $r4
	@DEBUG_VALUE: mbedtls_dhm_parse_dhm:p <- $r2
	.loc	2 0 14                          @ ../../../ThirdParty/mbedTLS/library/dhm.c:0:14
	movs	r0, #6
.Ltmp331:
	.loc	2 552 14 is_stmt 1              @ ../../../ThirdParty/mbedTLS/library/dhm.c:552:14
	cmp	r2, r7
	beq	.LBB11_20
.Ltmp332:
.LBB11_24:
	@DEBUG_VALUE: mbedtls_dhm_parse_dhm:end <- $r7
	@DEBUG_VALUE: mbedtls_dhm_parse_dhm:dhm <- $r4
	@DEBUG_VALUE: mbedtls_dhm_parse_dhm:p <- $r2
	.loc	2 0 14 is_stmt 0                @ ../../../ThirdParty/mbedTLS/library/dhm.c:0:14
	subs	r1, #102
	.loc	2 552 14                        @ ../../../ThirdParty/mbedTLS/library/dhm.c:552:14
	mov	r6, r1
.Ltmp333:
	@DEBUG_VALUE: mbedtls_dhm_parse_dhm:ret <- $r6
	.loc	2 0 14                          @ ../../../ThirdParty/mbedTLS/library/dhm.c:0:14
	cmp	r0, #6
	bne	.LBB11_21
	b	.LBB11_10
.Ltmp334:
	.p2align	2
@ %bb.25:
__arm_cp.11_0:
	.long	4294963072                      @ 0xffffef80
.Lcpi_end8:
	.size	__arm_cp.11_0, .Lcpi_end8-__arm_cp.11_0
.LCPI11_1:
.L.str:
	.asciz	"-----BEGIN DH PARAMETERS-----\000\000"
.LCPI11_2:
.L.str.1:
	.asciz	"-----END DH PARAMETERS-----"
__arm_cp.11_3:
	.long	4294954112                      @ 0xffffcc80
.Lcpi_end9:
	.size	__arm_cp.11_3, .Lcpi_end9-__arm_cp.11_3
.Lfunc_end11:
	.size	mbedtls_dhm_parse_dhm, .Lfunc_end11-mbedtls_dhm_parse_dhm
	.cfi_endproc
	.cantunwind
	.fnend
                                        @ -- End function
	.section	.text.mbedtls_dhm_self_test,"ax",%progbits
	.hidden	mbedtls_dhm_self_test           @ -- Begin function mbedtls_dhm_self_test
	.globl	mbedtls_dhm_self_test
	.p2align	2
	.type	mbedtls_dhm_self_test,%function
	.code	16                              @ @mbedtls_dhm_self_test
	.thumb_func
mbedtls_dhm_self_test:
.Lfunc_begin12:
	.loc	2 667 0 is_stmt 1               @ ../../../ThirdParty/mbedTLS/library/dhm.c:667:0
	.fnstart
	.cfi_startproc
@ %bb.0:
	@DEBUG_VALUE: mbedtls_dhm_self_test:verbose <- $r0
	.save	{r4, r5, r7, lr}
	push	{r4, r5, r7, lr}
	.cfi_def_cfa_offset 16
	.cfi_offset lr, -4
	.cfi_offset r7, -8
	.cfi_offset r5, -12
	.cfi_offset r4, -16
	.pad	#128
	sub	sp, #128
	.cfi_def_cfa_offset 144
	mov	r5, r0
.Ltmp335:
	@DEBUG_VALUE: mbedtls_dhm_self_test:verbose <- $r5
	add	r0, sp, #4
.Ltmp336:
	.loc	2 671 5 prologue_end            @ ../../../ThirdParty/mbedTLS/library/dhm.c:671:5
	bl	mbedtls_dhm_init
	.loc	2 673 9                         @ ../../../ThirdParty/mbedTLS/library/dhm.c:673:9
	cbz	r5, .LBB12_2
.Ltmp337:
@ %bb.1:
	@DEBUG_VALUE: mbedtls_dhm_self_test:verbose <- $r5
	.loc	2 674 9                         @ ../../../ThirdParty/mbedTLS/library/dhm.c:674:9
	adr	r0, .LCPI12_0
	bl	__2printf
.Ltmp338:
.LBB12_2:
	@DEBUG_VALUE: mbedtls_dhm_self_test:verbose <- $r5
	.loc	2 0 9 is_stmt 0                 @ ../../../ThirdParty/mbedTLS/library/dhm.c:0:9
	add	r0, sp, #4
.Ltmp339:
	.loc	2 676 17 is_stmt 1              @ ../../../ThirdParty/mbedTLS/library/dhm.c:676:17
	ldr	r1, __arm_cp.12_1
	movs	r2, #251
	bl	mbedtls_dhm_parse_dhm
.Ltmp340:
	@DEBUG_VALUE: mbedtls_dhm_self_test:ret <- $r0
	.loc	2 676 9 is_stmt 0               @ ../../../ThirdParty/mbedTLS/library/dhm.c:676:9
	cbz	r0, .LBB12_5
.Ltmp341:
@ %bb.3:
	@DEBUG_VALUE: mbedtls_dhm_self_test:verbose <- $r5
	@DEBUG_VALUE: mbedtls_dhm_self_test:ret <- $r0
	.loc	2 0 9                           @ ../../../ThirdParty/mbedTLS/library/dhm.c:0:9
	movs	r4, #1
.Ltmp342:
	.loc	2 680 13 is_stmt 1              @ ../../../ThirdParty/mbedTLS/library/dhm.c:680:13
	cbz	r5, .LBB12_7
.Ltmp343:
@ %bb.4:
	@DEBUG_VALUE: mbedtls_dhm_self_test:verbose <- $r5
	@DEBUG_VALUE: mbedtls_dhm_self_test:ret <- $r0
	.loc	2 681 13                        @ ../../../ThirdParty/mbedTLS/library/dhm.c:681:13
	adr	r0, .LCPI12_2
.Ltmp344:
	bl	puts
	b	.LBB12_7
.Ltmp345:
.LBB12_5:
	@DEBUG_VALUE: mbedtls_dhm_self_test:verbose <- $r5
	@DEBUG_VALUE: mbedtls_dhm_self_test:ret <- $r0
	.loc	2 0 13 is_stmt 0                @ ../../../ThirdParty/mbedTLS/library/dhm.c:0:13
	movs	r4, #0
	.loc	2 687 9 is_stmt 1               @ ../../../ThirdParty/mbedTLS/library/dhm.c:687:9
	cbz	r5, .LBB12_7
.Ltmp346:
@ %bb.6:
	@DEBUG_VALUE: mbedtls_dhm_self_test:verbose <- $r5
	@DEBUG_VALUE: mbedtls_dhm_self_test:ret <- $r0
	.loc	2 688 9                         @ ../../../ThirdParty/mbedTLS/library/dhm.c:688:9
	adr	r0, .LCPI12_3
.Ltmp347:
	bl	puts
.Ltmp348:
.LBB12_7:
	@DEBUG_VALUE: mbedtls_dhm_self_test:verbose <- $r5
	@DEBUG_VALUE: mbedtls_dhm_self_test:ret <- $r4
	@DEBUG_LABEL: mbedtls_dhm_self_test:exit
	.loc	2 0 9 is_stmt 0                 @ ../../../ThirdParty/mbedTLS/library/dhm.c:0:9
	add	r0, sp, #4
	.loc	2 691 5 is_stmt 1               @ ../../../ThirdParty/mbedTLS/library/dhm.c:691:5
	bl	mbedtls_dhm_free
	.loc	2 693 5                         @ ../../../ThirdParty/mbedTLS/library/dhm.c:693:5
	mov	r0, r4
	add	sp, #128
	pop	{r4, r5, r7, pc}
.Ltmp349:
	.p2align	2
@ %bb.8:
	.loc	2 0 5 is_stmt 0                 @ ../../../ThirdParty/mbedTLS/library/dhm.c:0:5
.LCPI12_0:
.L.str.2:
	.asciz	"  DHM parameter load: \000"
__arm_cp.12_1:
	.long	mbedtls_test_dhm_params
.Lcpi_end10:
	.size	__arm_cp.12_1, .Lcpi_end10-__arm_cp.12_1
.LCPI12_2:
.Lstr.5:
	.asciz	"failed\000"
.LCPI12_3:
.Lstr:
	.asciz	"passed\n"
.Lfunc_end12:
	.size	mbedtls_dhm_self_test, .Lfunc_end12-mbedtls_dhm_self_test
	.cfi_endproc
	.cantunwind
	.fnend
                                        @ -- End function
	.type	mbedtls_test_dhm_params,%object @ @mbedtls_test_dhm_params
	.section	.rodata.mbedtls_test_dhm_params,"a",%progbits
mbedtls_test_dhm_params:
	.asciz	"-----BEGIN DH PARAMETERS-----\r\nMIGHAoGBAJ419DBEOgmQTzo5qXl5fQcN9TN455wkOL7052HzxxRVMyhYmwQcgJvh\r\n1sa18fyfR9OiVEMYglOpkqVoGLN7qd5aQNNi5W7/C+VBdHTBJcGZJyyP5B3qcz32\r\n9mLJKudlVudV0Qxk5qUJaPZ/xupz0NyoVpviuiBOI1gNi8ovSXWzAgEC\r\n-----END DH PARAMETERS-----\r\n"
	.size	mbedtls_test_dhm_params, 251

	.file	3 "C:\\Users\\shw26\\OneDrive\\Desktop\\2021\\2021-1\\\354\272\241\354\212\244\355\206\244\353\224\224\354\236\220\354\235\2702\\Nuvoton\\M2351_BSP_v3.00.004\\M2351Series_BSP_CMSIS_V3.00.004\\MyProject\\PulseMonitoring\\Secure" "../../../ThirdParty/mbedTLS/include/mbedtls\\dhm.h"
	.file	4 "C:\\Users\\shw26\\OneDrive\\Desktop\\2021\\2021-1\\\354\272\241\354\212\244\355\206\244\353\224\224\354\236\220\354\235\2702\\Nuvoton\\M2351_BSP_v3.00.004\\M2351Series_BSP_CMSIS_V3.00.004\\MyProject\\PulseMonitoring\\Secure" "../../../ThirdParty/mbedTLS/include/mbedtls/bignum.h"
	.file	5 "C:\\" "Keil_v5\\ARM\\ARMCLANG\\Bin\\..\\include\\stdint.h"
	.file	6 "C:\\Users\\shw26\\OneDrive\\Desktop\\2021\\2021-1\\\354\272\241\354\212\244\355\206\244\353\224\224\354\236\220\354\235\2702\\Nuvoton\\M2351_BSP_v3.00.004\\M2351Series_BSP_CMSIS_V3.00.004\\MyProject\\PulseMonitoring\\Secure" "../../../ThirdParty/mbedTLS/include/mbedtls\\pem.h"
	.section	".note.GNU-stack","",%progbits
	.eabi_attribute	30, 1	@ Tag_ABI_optimization_goals
	.ARM_attribute	16, 1	@ Tag_AV_eba