	.text
	.syntax unified
	.eabi_attribute	67, "2.09"	@ Tag_conformance
	.cpu	cortex-m23
	.eabi_attribute	6, 16	@ Tag_CPU_arch
	.eabi_attribute	7, 77	@ Tag_CPU_arch_profile
	.eabi_attribute	8, 0	@ Tag_ARM_ISA_use
	.eabi_attribute	9, 3	@ Tag_THUMB_ISA_use
	.eabi_attribute	34, 0	@ Tag_CPU_unaligned_access
	.eabi_attribute	17, 1	@ Tag_ABI_PCS_GOT_use
	.eabi_attribute	20, 2	@ Tag_ABI_FP_denormal
	.eabi_attribute	21, 0	@ Tag_ABI_FP_exceptions
	.eabi_attribute	23, 1	@ Tag_ABI_FP_number_model
	.eabi_attribute	24, 1	@ Tag_ABI_align_needed
	.eabi_attribute	25, 1	@ Tag_ABI_align_preserved
	.eabi_attribute	38, 1	@ Tag_ABI_FP_16bit_format
	.eabi_attribute	18, 2	@ Tag_ABI_PCS_wchar_t
	.eabi_attribute	26, 1	@ Tag_ABI_enum_size
	.eabi_attribute	14, 0	@ Tag_ABI_PCS_R9_use
	.file	"ecdh.c"
	.file	1 "C:\\Users\\shw26\\OneDrive\\Desktop\\2021\\2021-1\\\354\272\241\354\212\244\355\206\244\353\224\224\354\236\220\354\235\2702\\Nuvoton\\M2351_BSP_v3.00.004\\M2351Series_BSP_CMSIS_V3.00.004\\MyProject\\PulseMonitoring\\Secure" "../../../ThirdParty/mbedTLS/include/mbedtls/ecp.h"
	.file	2 "C:\\Users\\shw26\\OneDrive\\Desktop\\2021\\2021-1\\\354\272\241\354\212\244\355\206\244\353\224\224\354\236\220\354\235\2702\\Nuvoton\\M2351_BSP_v3.00.004\\M2351Series_BSP_CMSIS_V3.00.004\\MyProject\\PulseMonitoring\\Secure" "../../../ThirdParty/mbedTLS/include/mbedtls\\ecdh.h"
	.file	3 "C:\\" "Keil_v5\\ARM\\ARMCLANG\\Bin\\..\\include\\stddef.h"
	.section	.text.mbedtls_ecdh_gen_public,"ax",%progbits
	.hidden	mbedtls_ecdh_gen_public         @ -- Begin function mbedtls_ecdh_gen_public
	.globl	mbedtls_ecdh_gen_public
	.p2align	1
	.type	mbedtls_ecdh_gen_public,%function
	.code	16                              @ @mbedtls_ecdh_gen_public
	.thumb_func
mbedtls_ecdh_gen_public:
.Lfunc_begin0:
	.file	4 "C:\\Users\\shw26\\OneDrive\\Desktop\\2021\\2021-1\\\354\272\241\354\212\244\355\206\244\353\224\224\354\236\220\354\235\2702\\Nuvoton\\M2351_BSP_v3.00.004\\M2351Series_BSP_CMSIS_V3.00.004\\MyProject\\PulseMonitoring\\Secure" "../../../ThirdParty/mbedTLS/library/ecdh.c"
	.loc	4 87 0                          @ ../../../ThirdParty/mbedTLS/library/ecdh.c:87:0
	.fnstart
	.cfi_sections .debug_frame
	.cfi_startproc
@ %bb.0:
	@DEBUG_VALUE: mbedtls_ecdh_gen_public:grp <- $r0
	@DEBUG_VALUE: mbedtls_ecdh_gen_public:grp <- $r0
	@DEBUG_VALUE: mbedtls_ecdh_gen_public:d <- $r1
	@DEBUG_VALUE: mbedtls_ecdh_gen_public:d <- $r1
	@DEBUG_VALUE: mbedtls_ecdh_gen_public:Q <- $r2
	@DEBUG_VALUE: mbedtls_ecdh_gen_public:Q <- $r2
	@DEBUG_VALUE: mbedtls_ecdh_gen_public:f_rng <- $r3
	@DEBUG_VALUE: mbedtls_ecdh_gen_public:f_rng <- $r3
	.save	{r4, lr}
	push	{r4, lr}
	.cfi_def_cfa_offset 8
	.cfi_offset lr, -4
	.cfi_offset r4, -8
	.pad	#8
	sub	sp, #8
	.cfi_def_cfa_offset 16
.Ltmp0:
	@DEBUG_VALUE: mbedtls_ecdh_gen_public:p_rng <- [DW_OP_plus_uconst 16] [$sp+0]
	ldr	r4, [sp, #16]
.Ltmp1:
	.loc	4 92 13 prologue_end            @ ../../../ThirdParty/mbedTLS/library/ecdh.c:92:13
	str	r4, [sp]
	@DEBUG_VALUE: mbedtls_ecdh_gen_public:f_rng <- $r3
	@DEBUG_VALUE: mbedtls_ecdh_gen_public:Q <- $r2
	@DEBUG_VALUE: mbedtls_ecdh_gen_public:d <- $r1
	@DEBUG_VALUE: mbedtls_ecdh_gen_public:grp <- $r0
	bl	ecdh_gen_public_restartable
.Ltmp2:
	@DEBUG_VALUE: mbedtls_ecdh_gen_public:f_rng <- [DW_OP_LLVM_entry_value 1] $r3
	@DEBUG_VALUE: mbedtls_ecdh_gen_public:Q <- [DW_OP_LLVM_entry_value 1] $r2
	@DEBUG_VALUE: mbedtls_ecdh_gen_public:d <- [DW_OP_LLVM_entry_value 1] $r1
	@DEBUG_VALUE: mbedtls_ecdh_gen_public:grp <- [DW_OP_LLVM_entry_value 1] $r0
	.loc	4 92 5 is_stmt 0                @ ../../../ThirdParty/mbedTLS/library/ecdh.c:92:5
	add	sp, #8
.Ltmp3:
	pop	{r4, pc}
.Ltmp4:
.Lfunc_end0:
	.size	mbedtls_ecdh_gen_public, .Lfunc_end0-mbedtls_ecdh_gen_public
	.cfi_endproc
	.cantunwind
	.fnend
                                        @ -- End function
	.section	.text.ecdh_gen_public_restartable,"ax",%progbits
	.p2align	1                               @ -- Begin function ecdh_gen_public_restartable
	.type	ecdh_gen_public_restartable,%function
	.code	16                              @ @ecdh_gen_public_restartable
	.thumb_func
ecdh_gen_public_restartable:
.Lfunc_begin1:
	.loc	4 65 0 is_stmt 1                @ ../../../ThirdParty/mbedTLS/library/ecdh.c:65:0
	.fnstart
	.cfi_startproc
@ %bb.0:
	@DEBUG_VALUE: ecdh_gen_public_restartable:grp <- $r0
	@DEBUG_VALUE: ecdh_gen_public_restartable:d <- $r1
	@DEBUG_VALUE: ecdh_gen_public_restartable:Q <- $r2
	@DEBUG_VALUE: ecdh_gen_public_restartable:f_rng <- $r3
	.save	{r4, r5, r6, r7, lr}
	push	{r4, r5, r6, r7, lr}
	.cfi_def_cfa_offset 20
	.cfi_offset lr, -4
	.cfi_offset r7, -8
	.cfi_offset r6, -12
	.cfi_offset r5, -16
	.cfi_offset r4, -20
	.pad	#20
	sub	sp, #20
	.cfi_def_cfa_offset 40
	mov	r7, r3
	str	r2, [sp, #16]                   @ 4-byte Spill
	mov	r4, r1
	mov	r6, r0
	@DEBUG_VALUE: ecdh_gen_public_restartable:rs_ctx <- 0
.Ltmp5:
	@DEBUG_VALUE: ecdh_gen_public_restartable:p_rng <- [DW_OP_plus_uconst 40] [$sp+0]
	@DEBUG_VALUE: ecdh_gen_public_restartable:f_rng <- $r7
	@DEBUG_VALUE: ecdh_gen_public_restartable:Q <- [DW_OP_plus_uconst 16] [$sp+0]
	@DEBUG_VALUE: ecdh_gen_public_restartable:d <- $r4
	@DEBUG_VALUE: ecdh_gen_public_restartable:grp <- $r6
	ldr	r5, [sp, #40]
.Ltmp6:
	.loc	4 72 9 prologue_end             @ ../../../ThirdParty/mbedTLS/library/ecdh.c:72:9
	mov	r2, r3
	mov	r3, r5
	bl	mbedtls_ecp_gen_privkey
.Ltmp7:
	@DEBUG_VALUE: ecdh_gen_public_restartable:ret <- $r0
	.loc	4 72 9 is_stmt 0                @ ../../../ThirdParty/mbedTLS/library/ecdh.c:72:9
	cbz	r0, .LBB1_2
.Ltmp8:
@ %bb.1:
	@DEBUG_VALUE: ecdh_gen_public_restartable:f_rng <- $r7
	@DEBUG_VALUE: ecdh_gen_public_restartable:grp <- $r6
	@DEBUG_VALUE: ecdh_gen_public_restartable:d <- $r4
	@DEBUG_VALUE: ecdh_gen_public_restartable:ret <- $r0
	@DEBUG_VALUE: ecdh_gen_public_restartable:Q <- [DW_OP_plus_uconst 16] [$sp+0]
	@DEBUG_VALUE: ecdh_gen_public_restartable:p_rng <- [DW_OP_plus_uconst 40] [$sp+0]
	@DEBUG_VALUE: ecdh_gen_public_restartable:rs_ctx <- 0
	@DEBUG_VALUE: ecdh_gen_public_restartable:ret <- $r0
	@DEBUG_LABEL: ecdh_gen_public_restartable:cleanup
	.loc	4 78 5 is_stmt 1                @ ../../../ThirdParty/mbedTLS/library/ecdh.c:78:5
	add	sp, #20
.Ltmp9:
	pop	{r4, r5, r6, r7, pc}
.Ltmp10:
.LBB1_2:
	@DEBUG_VALUE: ecdh_gen_public_restartable:f_rng <- $r7
	@DEBUG_VALUE: ecdh_gen_public_restartable:grp <- $r6
	@DEBUG_VALUE: ecdh_gen_public_restartable:d <- $r4
	@DEBUG_VALUE: ecdh_gen_public_restartable:ret <- $r0
	@DEBUG_VALUE: ecdh_gen_public_restartable:Q <- [DW_OP_plus_uconst 16] [$sp+0]
	@DEBUG_VALUE: ecdh_gen_public_restartable:p_rng <- [DW_OP_plus_uconst 40] [$sp+0]
	@DEBUG_VALUE: ecdh_gen_public_restartable:rs_ctx <- 0
	.loc	4 0 5 is_stmt 0                 @ ../../../ThirdParty/mbedTLS/library/ecdh.c:0:5
	movs	r0, #0
.Ltmp11:
	.loc	4 74 5 is_stmt 1                @ ../../../ThirdParty/mbedTLS/library/ecdh.c:74:5
	str	r7, [sp]
	str	r5, [sp, #4]
	str	r0, [sp, #8]
	mov	r3, r6
	adds	r3, #40
	mov	r0, r6
	ldr	r1, [sp, #16]                   @ 4-byte Reload
	mov	r2, r4
	bl	mbedtls_ecp_mul_restartable
.Ltmp12:
	@DEBUG_VALUE: ecdh_gen_public_restartable:ret <- $r0
	@DEBUG_VALUE: ecdh_gen_public_restartable:ret <- $r0
	@DEBUG_LABEL: ecdh_gen_public_restartable:cleanup
	.loc	4 78 5                          @ ../../../ThirdParty/mbedTLS/library/ecdh.c:78:5
	add	sp, #20
.Ltmp13:
	pop	{r4, r5, r6, r7, pc}
.Ltmp14:
.Lfunc_end1:
	.size	ecdh_gen_public_restartable, .Lfunc_end1-ecdh_gen_public_restartable
	.cfi_endproc
	.cantunwind
	.fnend
                                        @ -- End function
	.section	.text.mbedtls_ecdh_compute_shared,"ax",%progbits
	.hidden	mbedtls_ecdh_compute_shared     @ -- Begin function mbedtls_ecdh_compute_shared
	.globl	mbedtls_ecdh_compute_shared
	.p2align	1
	.type	mbedtls_ecdh_compute_shared,%function
	.code	16                              @ @mbedtls_ecdh_compute_shared
	.thumb_func
mbedtls_ecdh_compute_shared:
.Lfunc_begin2:
	.loc	4 136 0                         @ ../../../ThirdParty/mbedTLS/library/ecdh.c:136:0
	.fnstart
	.cfi_startproc
@ %bb.0:
	@DEBUG_VALUE: mbedtls_ecdh_compute_shared:grp <- $r0
	@DEBUG_VALUE: mbedtls_ecdh_compute_shared:grp <- $r0
	@DEBUG_VALUE: mbedtls_ecdh_compute_shared:z <- $r1
	@DEBUG_VALUE: mbedtls_ecdh_compute_shared:z <- $r1
	@DEBUG_VALUE: mbedtls_ecdh_compute_shared:Q <- $r2
	@DEBUG_VALUE: mbedtls_ecdh_compute_shared:Q <- $r2
	@DEBUG_VALUE: mbedtls_ecdh_compute_shared:d <- $r3
	@DEBUG_VALUE: mbedtls_ecdh_compute_shared:d <- $r3
	.save	{r4, lr}
	push	{r4, lr}
	.cfi_def_cfa_offset 8
	.cfi_offset lr, -4
	.cfi_offset r4, -8
	.pad	#8
	sub	sp, #8
	.cfi_def_cfa_offset 16
.Ltmp15:
	@DEBUG_VALUE: mbedtls_ecdh_compute_shared:f_rng <- [DW_OP_plus_uconst 16] [$sp+0]
	@DEBUG_VALUE: mbedtls_ecdh_compute_shared:p_rng <- [DW_OP_plus_uconst 20] [$sp+0]
	ldr	r4, [sp, #20]
.Ltmp16:
	.loc	4 141 13 prologue_end           @ ../../../ThirdParty/mbedTLS/library/ecdh.c:141:13
	str	r4, [sp, #4]
	ldr	r4, [sp, #16]
	str	r4, [sp]
	@DEBUG_VALUE: mbedtls_ecdh_compute_shared:d <- $r3
	@DEBUG_VALUE: mbedtls_ecdh_compute_shared:Q <- $r2
	@DEBUG_VALUE: mbedtls_ecdh_compute_shared:z <- $r1
	@DEBUG_VALUE: mbedtls_ecdh_compute_shared:grp <- $r0
	bl	ecdh_compute_shared_restartable
.Ltmp17:
	@DEBUG_VALUE: mbedtls_ecdh_compute_shared:d <- [DW_OP_LLVM_entry_value 1] $r3
	@DEBUG_VALUE: mbedtls_ecdh_compute_shared:Q <- [DW_OP_LLVM_entry_value 1] $r2
	@DEBUG_VALUE: mbedtls_ecdh_compute_shared:z <- [DW_OP_LLVM_entry_value 1] $r1
	@DEBUG_VALUE: mbedtls_ecdh_compute_shared:grp <- [DW_OP_LLVM_entry_value 1] $r0
	.loc	4 141 5 is_stmt 0               @ ../../../ThirdParty/mbedTLS/library/ecdh.c:141:5
	add	sp, #8
.Ltmp18:
	pop	{r4, pc}
.Ltmp19:
.Lfunc_end2:
	.size	mbedtls_ecdh_compute_shared, .Lfunc_end2-mbedtls_ecdh_compute_shared
	.cfi_endproc
	.cantunwind
	.fnend
                                        @ -- End function
	.section	.text.ecdh_compute_shared_restartable,"ax",%progbits
	.p2align	2                               @ -- Begin function ecdh_compute_shared_restartable
	.type	ecdh_compute_shared_restartable,%function
	.code	16                              @ @ecdh_compute_shared_restartable
	.thumb_func
ecdh_compute_shared_restartable:
.Lfunc_begin3:
	.loc	4 106 0 is_stmt 1               @ ../../../ThirdParty/mbedTLS/library/ecdh.c:106:0
	.fnstart
	.cfi_startproc
@ %bb.0:
	@DEBUG_VALUE: ecdh_compute_shared_restartable:grp <- $r0
	@DEBUG_VALUE: ecdh_compute_shared_restartable:z <- $r1
	@DEBUG_VALUE: ecdh_compute_shared_restartable:Q <- $r2
	@DEBUG_VALUE: ecdh_compute_shared_restartable:d <- $r3
	.save	{r4, r5, r6, r7, lr}
	push	{r4, r5, r6, r7, lr}
	.cfi_def_cfa_offset 20
	.cfi_offset lr, -4
	.cfi_offset r7, -8
	.cfi_offset r6, -12
	.cfi_offset r5, -16
	.cfi_offset r4, -20
	.pad	#52
	sub	sp, #52
	.cfi_def_cfa_offset 72
	mov	r6, r3
	mov	r5, r2
	str	r1, [sp, #12]                   @ 4-byte Spill
	mov	r7, r0
	@DEBUG_VALUE: ecdh_compute_shared_restartable:rs_ctx <- 0
.Ltmp20:
	@DEBUG_VALUE: ecdh_compute_shared_restartable:p_rng <- [DW_OP_plus_uconst 76] [$sp+0]
	@DEBUG_VALUE: ecdh_compute_shared_restartable:f_rng <- [DW_OP_plus_uconst 72] [$sp+0]
	@DEBUG_VALUE: ecdh_compute_shared_restartable:d <- $r6
	@DEBUG_VALUE: ecdh_compute_shared_restartable:Q <- $r5
	@DEBUG_VALUE: ecdh_compute_shared_restartable:z <- [DW_OP_plus_uconst 12] [$sp+0]
	@DEBUG_VALUE: ecdh_compute_shared_restartable:grp <- $r7
	add	r4, sp, #16
.Ltmp21:
	.loc	4 110 5 prologue_end            @ ../../../ThirdParty/mbedTLS/library/ecdh.c:110:5
	mov	r0, r4
	bl	mbedtls_ecp_point_init
	movs	r0, #0
.Ltmp22:
	.loc	4 112 5                         @ ../../../ThirdParty/mbedTLS/library/ecdh.c:112:5
	str	r0, [sp, #8]
	ldr	r0, [sp, #76]
	str	r0, [sp, #4]
	ldr	r0, [sp, #72]
	str	r0, [sp]
	mov	r0, r7
.Ltmp23:
	@DEBUG_VALUE: ecdh_compute_shared_restartable:grp <- $r0
	mov	r1, r4
	mov	r2, r6
.Ltmp24:
	@DEBUG_VALUE: ecdh_compute_shared_restartable:d <- $r2
	mov	r3, r5
.Ltmp25:
	@DEBUG_VALUE: ecdh_compute_shared_restartable:Q <- $r3
	bl	mbedtls_ecp_mul_restartable
.Ltmp26:
	mov	r5, r0
.Ltmp27:
	@DEBUG_VALUE: ecdh_compute_shared_restartable:ret <- $r5
	.loc	4 112 5 is_stmt 0               @ ../../../ThirdParty/mbedTLS/library/ecdh.c:112:5
	cbnz	r0, .LBB3_4
.Ltmp28:
@ %bb.1:
	@DEBUG_VALUE: ecdh_compute_shared_restartable:ret <- $r5
	@DEBUG_VALUE: ecdh_compute_shared_restartable:z <- [DW_OP_plus_uconst 12] [$sp+0]
	@DEBUG_VALUE: ecdh_compute_shared_restartable:f_rng <- [DW_OP_plus_uconst 72] [$sp+0]
	@DEBUG_VALUE: ecdh_compute_shared_restartable:p_rng <- [DW_OP_plus_uconst 76] [$sp+0]
	@DEBUG_VALUE: ecdh_compute_shared_restartable:rs_ctx <- 0
	.loc	4 0 5                           @ ../../../ThirdParty/mbedTLS/library/ecdh.c:0:5
	ldr	r4, [sp, #12]                   @ 4-byte Reload
	add	r0, sp, #16
.Ltmp29:
	.loc	4 115 9 is_stmt 1               @ ../../../ThirdParty/mbedTLS/library/ecdh.c:115:9
	bl	mbedtls_ecp_is_zero
.Ltmp30:
	.loc	4 115 9 is_stmt 0               @ ../../../ThirdParty/mbedTLS/library/ecdh.c:115:9
	cbz	r0, .LBB3_3
.Ltmp31:
@ %bb.2:
	@DEBUG_VALUE: ecdh_compute_shared_restartable:ret <- $r5
	@DEBUG_VALUE: ecdh_compute_shared_restartable:z <- [DW_OP_plus_uconst 12] [$sp+0]
	@DEBUG_VALUE: ecdh_compute_shared_restartable:f_rng <- [DW_OP_plus_uconst 72] [$sp+0]
	@DEBUG_VALUE: ecdh_compute_shared_restartable:p_rng <- [DW_OP_plus_uconst 76] [$sp+0]
	@DEBUG_VALUE: ecdh_compute_shared_restartable:rs_ctx <- 0
	.loc	4 0 9                           @ ../../../ThirdParty/mbedTLS/library/ecdh.c:0:9
	ldr	r5, __arm_cp.3_0
.Ltmp32:
	b	.LBB3_4
.Ltmp33:
.LBB3_3:
	@DEBUG_VALUE: ecdh_compute_shared_restartable:ret <- $r5
	@DEBUG_VALUE: ecdh_compute_shared_restartable:z <- [DW_OP_plus_uconst 12] [$sp+0]
	@DEBUG_VALUE: ecdh_compute_shared_restartable:f_rng <- [DW_OP_plus_uconst 72] [$sp+0]
	@DEBUG_VALUE: ecdh_compute_shared_restartable:p_rng <- [DW_OP_plus_uconst 76] [$sp+0]
	@DEBUG_VALUE: ecdh_compute_shared_restartable:rs_ctx <- 0
	add	r1, sp, #16
.Ltmp34:
	.loc	4 121 5 is_stmt 1               @ ../../../ThirdParty/mbedTLS/library/ecdh.c:121:5
	mov	r0, r4
	bl	mbedtls_mpi_copy
	mov	r5, r0
.Ltmp35:
	@DEBUG_VALUE: ecdh_compute_shared_restartable:ret <- $r5
.LBB3_4:
	@DEBUG_VALUE: ecdh_compute_shared_restartable:z <- [DW_OP_plus_uconst 12] [$sp+0]
	@DEBUG_VALUE: ecdh_compute_shared_restartable:f_rng <- [DW_OP_plus_uconst 72] [$sp+0]
	@DEBUG_VALUE: ecdh_compute_shared_restartable:p_rng <- [DW_OP_plus_uconst 76] [$sp+0]
	@DEBUG_VALUE: ecdh_compute_shared_restartable:rs_ctx <- 0
	@DEBUG_VALUE: ecdh_compute_shared_restartable:ret <- $r5
	@DEBUG_LABEL: ecdh_compute_shared_restartable:cleanup
	.loc	4 0 5 is_stmt 0                 @ ../../../ThirdParty/mbedTLS/library/ecdh.c:0:5
	add	r0, sp, #16
	.loc	4 124 5 is_stmt 1               @ ../../../ThirdParty/mbedTLS/library/ecdh.c:124:5
	bl	mbedtls_ecp_point_free
	.loc	4 126 5                         @ ../../../ThirdParty/mbedTLS/library/ecdh.c:126:5
	mov	r0, r5
	add	sp, #52
.Ltmp36:
	pop	{r4, r5, r6, r7, pc}
.Ltmp37:
	.p2align	2
@ %bb.5:
	.loc	4 0 5 is_stmt 0                 @ ../../../ThirdParty/mbedTLS/library/ecdh.c:0:5
__arm_cp.3_0:
	.long	4294946944                      @ 0xffffb080
.Lcpi_end0:
	.size	__arm_cp.3_0, .Lcpi_end0-__arm_cp.3_0
.Lfunc_end3:
	.size	ecdh_compute_shared_restartable, .Lfunc_end3-ecdh_compute_shared_restartable
	.cfi_endproc
	.cantunwind
	.fnend
                                        @ -- End function
	.section	.text.mbedtls_ecdh_init,"ax",%progbits
	.hidden	mbedtls_ecdh_init               @ -- Begin function mbedtls_ecdh_init
	.globl	mbedtls_ecdh_init
	.p2align	1
	.type	mbedtls_ecdh_init,%function
	.code	16                              @ @mbedtls_ecdh_init
	.thumb_func
mbedtls_ecdh_init:
.Lfunc_begin4:
	.loc	4 163 0 is_stmt 1               @ ../../../ThirdParty/mbedTLS/library/ecdh.c:163:0
	.fnstart
	.cfi_startproc
@ %bb.0:
	@DEBUG_VALUE: mbedtls_ecdh_init:ctx <- $r0
	.save	{r4, lr}
	push	{r4, lr}
	.cfi_def_cfa_offset 8
	.cfi_offset lr, -4
	.cfi_offset r4, -8
	mov	r4, r0
.Ltmp38:
	@DEBUG_VALUE: mbedtls_ecdh_init:ctx <- $r4
	.loc	4 167 5 prologue_end            @ ../../../ThirdParty/mbedTLS/library/ecdh.c:167:5
	bl	ecdh_init_internal
	.loc	4 168 35                        @ ../../../ThirdParty/mbedTLS/library/ecdh.c:168:35
	mov	r0, r4
	adds	r0, #224
	.loc	4 168 5 is_stmt 0               @ ../../../ThirdParty/mbedTLS/library/ecdh.c:168:5
	bl	mbedtls_ecp_point_init
	movw	r0, #260
	.loc	4 169 35 is_stmt 1              @ ../../../ThirdParty/mbedTLS/library/ecdh.c:169:35
	adds	r0, r4, r0
	.loc	4 169 5 is_stmt 0               @ ../../../ThirdParty/mbedTLS/library/ecdh.c:169:5
	bl	mbedtls_ecp_point_init
	movw	r0, #296
	.loc	4 170 29 is_stmt 1              @ ../../../ThirdParty/mbedTLS/library/ecdh.c:170:29
	adds	r0, r4, r0
	.loc	4 170 5 is_stmt 0               @ ../../../ThirdParty/mbedTLS/library/ecdh.c:170:5
	bl	mbedtls_mpi_init
	movs	r0, #220
	movs	r1, #0
	.loc	4 176 23 is_stmt 1              @ ../../../ThirdParty/mbedTLS/library/ecdh.c:176:23
	str	r1, [r4, r0]
	.loc	4 180 1                         @ ../../../ThirdParty/mbedTLS/library/ecdh.c:180:1
	pop	{r4, pc}
.Ltmp39:
.Lfunc_end4:
	.size	mbedtls_ecdh_init, .Lfunc_end4-mbedtls_ecdh_init
	.cfi_endproc
	.cantunwind
	.fnend
                                        @ -- End function
	.section	.text.ecdh_init_internal,"ax",%progbits
	.p2align	1                               @ -- Begin function ecdh_init_internal
	.type	ecdh_init_internal,%function
	.code	16                              @ @ecdh_init_internal
	.thumb_func
ecdh_init_internal:
.Lfunc_begin5:
	.loc	4 147 0                         @ ../../../ThirdParty/mbedTLS/library/ecdh.c:147:0
	.fnstart
	.cfi_startproc
@ %bb.0:
	@DEBUG_VALUE: ecdh_init_internal:ctx <- $r0
	.save	{r4, lr}
	push	{r4, lr}
	.cfi_def_cfa_offset 8
	.cfi_offset lr, -4
	.cfi_offset r4, -8
	mov	r4, r0
.Ltmp40:
	@DEBUG_VALUE: ecdh_init_internal:ctx <- $r4
	.loc	4 148 5 prologue_end            @ ../../../ThirdParty/mbedTLS/library/ecdh.c:148:5
	bl	mbedtls_ecp_group_init
	.loc	4 149 29                        @ ../../../ThirdParty/mbedTLS/library/ecdh.c:149:29
	mov	r0, r4
	adds	r0, #124
	.loc	4 149 5 is_stmt 0               @ ../../../ThirdParty/mbedTLS/library/ecdh.c:149:5
	bl	mbedtls_mpi_init
	.loc	4 150 35 is_stmt 1              @ ../../../ThirdParty/mbedTLS/library/ecdh.c:150:35
	mov	r0, r4
	adds	r0, #136
	.loc	4 150 5 is_stmt 0               @ ../../../ThirdParty/mbedTLS/library/ecdh.c:150:5
	bl	mbedtls_ecp_point_init
	.loc	4 151 35 is_stmt 1              @ ../../../ThirdParty/mbedTLS/library/ecdh.c:151:35
	mov	r0, r4
	adds	r0, #172
	.loc	4 151 5 is_stmt 0               @ ../../../ThirdParty/mbedTLS/library/ecdh.c:151:5
	bl	mbedtls_ecp_point_init
	.loc	4 152 29 is_stmt 1              @ ../../../ThirdParty/mbedTLS/library/ecdh.c:152:29
	adds	r4, #208
.Ltmp41:
	@DEBUG_VALUE: ecdh_init_internal:ctx <- [DW_OP_LLVM_entry_value 1] $r0
	.loc	4 152 5 is_stmt 0               @ ../../../ThirdParty/mbedTLS/library/ecdh.c:152:5
	mov	r0, r4
	bl	mbedtls_mpi_init
	.loc	4 157 1 is_stmt 1               @ ../../../ThirdParty/mbedTLS/library/ecdh.c:157:1
	pop	{r4, pc}
.Ltmp42:
.Lfunc_end5:
	.size	ecdh_init_internal, .Lfunc_end5-ecdh_init_internal
	.cfi_endproc
	.cantunwind
	.fnend
                                        @ -- End function
	.section	.text.mbedtls_ecdh_setup,"ax",%progbits
	.hidden	mbedtls_ecdh_setup              @ -- Begin function mbedtls_ecdh_setup
	.globl	mbedtls_ecdh_setup
	.p2align	1
	.type	mbedtls_ecdh_setup,%function
	.code	16                              @ @mbedtls_ecdh_setup
	.thumb_func
mbedtls_ecdh_setup:
.Lfunc_begin6:
	.loc	4 200 0                         @ ../../../ThirdParty/mbedTLS/library/ecdh.c:200:0
	.fnstart
	.cfi_startproc
@ %bb.0:
	@DEBUG_VALUE: mbedtls_ecdh_setup:ctx <- $r0
	@DEBUG_VALUE: mbedtls_ecdh_setup:ctx <- $r0
	@DEBUG_VALUE: mbedtls_ecdh_setup:grp_id <- $r1
	@DEBUG_VALUE: mbedtls_ecdh_setup:grp_id <- $r1
	@DEBUG_VALUE: mbedtls_ecdh_setup:grp_id <- $r1
	@DEBUG_VALUE: mbedtls_ecdh_setup:ctx <- $r0
	.save	{r7, lr}
	push	{r7, lr}
	.cfi_def_cfa_offset 8
	.cfi_offset lr, -4
	.cfi_offset r7, -8
.Ltmp43:
	.loc	4 204 13 prologue_end           @ ../../../ThirdParty/mbedTLS/library/ecdh.c:204:13
	bl	ecdh_setup_internal
.Ltmp44:
	@DEBUG_VALUE: mbedtls_ecdh_setup:grp_id <- [DW_OP_LLVM_entry_value 1] $r1
	@DEBUG_VALUE: mbedtls_ecdh_setup:ctx <- [DW_OP_LLVM_entry_value 1] $r0
	.loc	4 204 5 is_stmt 0               @ ../../../ThirdParty/mbedTLS/library/ecdh.c:204:5
	pop	{r7, pc}
.Ltmp45:
.Lfunc_end6:
	.size	mbedtls_ecdh_setup, .Lfunc_end6-mbedtls_ecdh_setup
	.cfi_endproc
	.cantunwind
	.fnend
                                        @ -- End function
	.section	.text.ecdh_setup_internal,"ax",%progbits
	.p2align	2                               @ -- Begin function ecdh_setup_internal
	.type	ecdh_setup_internal,%function
	.code	16                              @ @ecdh_setup_internal
	.thumb_func
ecdh_setup_internal:
.Lfunc_begin7:
	.loc	4 184 0 is_stmt 1               @ ../../../ThirdParty/mbedTLS/library/ecdh.c:184:0
	.fnstart
	.cfi_startproc
@ %bb.0:
	@DEBUG_VALUE: ecdh_setup_internal:ctx <- $r0
	@DEBUG_VALUE: ecdh_setup_internal:ctx <- $r0
	@DEBUG_VALUE: ecdh_setup_internal:grp_id <- $r1
	@DEBUG_VALUE: ecdh_setup_internal:grp_id <- $r1
	@DEBUG_VALUE: ecdh_setup_internal:grp_id <- $r1
	@DEBUG_VALUE: ecdh_setup_internal:ctx <- $r0
	.save	{r7, lr}
	push	{r7, lr}
	.cfi_def_cfa_offset 8
	.cfi_offset lr, -4
	.cfi_offset r7, -8
.Ltmp46:
	.loc	4 187 11 prologue_end           @ ../../../ThirdParty/mbedTLS/library/ecdh.c:187:11
	bl	mbedtls_ecp_group_load
.Ltmp47:
	@DEBUG_VALUE: ecdh_setup_internal:grp_id <- [DW_OP_LLVM_entry_value 1] $r1
	@DEBUG_VALUE: ecdh_setup_internal:ctx <- [DW_OP_LLVM_entry_value 1] $r0
	@DEBUG_VALUE: ecdh_setup_internal:ret <- $r0
	.loc	4 188 9                         @ ../../../ThirdParty/mbedTLS/library/ecdh.c:188:9
	cbz	r0, .LBB7_2
.Ltmp48:
@ %bb.1:
	@DEBUG_VALUE: ecdh_setup_internal:ret <- $r0
	@DEBUG_VALUE: ecdh_setup_internal:grp_id <- [DW_OP_LLVM_entry_value 1] $r1
	@DEBUG_VALUE: ecdh_setup_internal:ctx <- [DW_OP_LLVM_entry_value 1] $r0
	.loc	4 0 9 is_stmt 0                 @ ../../../ThirdParty/mbedTLS/library/ecdh.c:0:9
	ldr	r0, __arm_cp.7_0
.Ltmp49:
.LBB7_2:
	@DEBUG_VALUE: ecdh_setup_internal:grp_id <- [DW_OP_LLVM_entry_value 1] $r1
	@DEBUG_VALUE: ecdh_setup_internal:ctx <- [DW_OP_LLVM_entry_value 1] $r0
	.loc	4 194 1 is_stmt 1               @ ../../../ThirdParty/mbedTLS/library/ecdh.c:194:1
	pop	{r7, pc}
.Ltmp50:
	.p2align	2
@ %bb.3:
	.loc	4 0 1 is_stmt 0                 @ ../../../ThirdParty/mbedTLS/library/ecdh.c:0:1
__arm_cp.7_0:
	.long	4294947200                      @ 0xffffb180
.Lcpi_end1:
	.size	__arm_cp.7_0, .Lcpi_end1-__arm_cp.7_0
.Lfunc_end7:
	.size	ecdh_setup_internal, .Lfunc_end7-ecdh_setup_internal
	.cfi_endproc
	.cantunwind
	.fnend
                                        @ -- End function
	.section	.text.mbedtls_ecdh_free,"ax",%progbits
	.hidden	mbedtls_ecdh_free               @ -- Begin function mbedtls_ecdh_free
	.globl	mbedtls_ecdh_free
	.p2align	1
	.type	mbedtls_ecdh_free,%function
	.code	16                              @ @mbedtls_ecdh_free
	.thumb_func
mbedtls_ecdh_free:
.Lfunc_begin8:
	.loc	4 247 0 is_stmt 1               @ ../../../ThirdParty/mbedTLS/library/ecdh.c:247:0
	.fnstart
	.cfi_startproc
@ %bb.0:
	@DEBUG_VALUE: mbedtls_ecdh_free:ctx <- $r0
	@DEBUG_VALUE: mbedtls_ecdh_free:ctx <- $r0
	.save	{r4, lr}
	push	{r4, lr}
	.cfi_def_cfa_offset 8
	.cfi_offset lr, -4
	.cfi_offset r4, -8
.Ltmp51:
	.loc	4 248 9 prologue_end            @ ../../../ThirdParty/mbedTLS/library/ecdh.c:248:9
	cbz	r0, .LBB8_2
.Ltmp52:
@ %bb.1:
	@DEBUG_VALUE: mbedtls_ecdh_free:ctx <- $r0
	.loc	4 0 9 is_stmt 0                 @ ../../../ThirdParty/mbedTLS/library/ecdh.c:0:9
	mov	r4, r0
.Ltmp53:
	@DEBUG_VALUE: mbedtls_ecdh_free:ctx <- $r4
	.loc	4 252 35 is_stmt 1              @ ../../../ThirdParty/mbedTLS/library/ecdh.c:252:35
	adds	r0, #224
	.loc	4 252 5 is_stmt 0               @ ../../../ThirdParty/mbedTLS/library/ecdh.c:252:5
	bl	mbedtls_ecp_point_free
	movw	r0, #260
	.loc	4 253 35 is_stmt 1              @ ../../../ThirdParty/mbedTLS/library/ecdh.c:253:35
	adds	r0, r4, r0
	.loc	4 253 5 is_stmt 0               @ ../../../ThirdParty/mbedTLS/library/ecdh.c:253:5
	bl	mbedtls_ecp_point_free
	movw	r0, #296
	.loc	4 254 29 is_stmt 1              @ ../../../ThirdParty/mbedTLS/library/ecdh.c:254:29
	adds	r0, r4, r0
	.loc	4 254 5 is_stmt 0               @ ../../../ThirdParty/mbedTLS/library/ecdh.c:254:5
	bl	mbedtls_mpi_free
	.loc	4 255 5 is_stmt 1               @ ../../../ThirdParty/mbedTLS/library/ecdh.c:255:5
	mov	r0, r4
	bl	ecdh_free_internal
.Ltmp54:
.LBB8_2:
	.loc	4 270 1                         @ ../../../ThirdParty/mbedTLS/library/ecdh.c:270:1
	pop	{r4, pc}
.Ltmp55:
.Lfunc_end8:
	.size	mbedtls_ecdh_free, .Lfunc_end8-mbedtls_ecdh_free
	.cfi_endproc
	.cantunwind
	.fnend
                                        @ -- End function
	.section	.text.ecdh_free_internal,"ax",%progbits
	.p2align	1                               @ -- Begin function ecdh_free_internal
	.type	ecdh_free_internal,%function
	.code	16                              @ @ecdh_free_internal
	.thumb_func
ecdh_free_internal:
.Lfunc_begin9:
	.loc	4 219 0                         @ ../../../ThirdParty/mbedTLS/library/ecdh.c:219:0
	.fnstart
	.cfi_startproc
@ %bb.0:
	@DEBUG_VALUE: ecdh_free_internal:ctx <- $r0
	.save	{r4, lr}
	push	{r4, lr}
	.cfi_def_cfa_offset 8
	.cfi_offset lr, -4
	.cfi_offset r4, -8
	mov	r4, r0
.Ltmp56:
	@DEBUG_VALUE: ecdh_free_internal:ctx <- $r4
	.loc	4 220 5 prologue_end            @ ../../../ThirdParty/mbedTLS/library/ecdh.c:220:5
	bl	mbedtls_ecp_group_free
	.loc	4 221 29                        @ ../../../ThirdParty/mbedTLS/library/ecdh.c:221:29
	mov	r0, r4
	adds	r0, #124
	.loc	4 221 5 is_stmt 0               @ ../../../ThirdParty/mbedTLS/library/ecdh.c:221:5
	bl	mbedtls_mpi_free
	.loc	4 222 35 is_stmt 1              @ ../../../ThirdParty/mbedTLS/library/ecdh.c:222:35
	mov	r0, r4
	adds	r0, #136
	.loc	4 222 5 is_stmt 0               @ ../../../ThirdParty/mbedTLS/library/ecdh.c:222:5
	bl	mbedtls_ecp_point_free
	.loc	4 223 35 is_stmt 1              @ ../../../ThirdParty/mbedTLS/library/ecdh.c:223:35
	mov	r0, r4
	adds	r0, #172
	.loc	4 223 5 is_stmt 0               @ ../../../ThirdParty/mbedTLS/library/ecdh.c:223:5
	bl	mbedtls_ecp_point_free
	.loc	4 224 29 is_stmt 1              @ ../../../ThirdParty/mbedTLS/library/ecdh.c:224:29
	adds	r4, #208
.Ltmp57:
	@DEBUG_VALUE: ecdh_free_internal:ctx <- [DW_OP_LLVM_entry_value 1] $r0
	.loc	4 224 5 is_stmt 0               @ ../../../ThirdParty/mbedTLS/library/ecdh.c:224:5
	mov	r0, r4
	bl	mbedtls_mpi_free
	.loc	4 229 1 is_stmt 1               @ ../../../ThirdParty/mbedTLS/library/ecdh.c:229:1
	pop	{r4, pc}
.Ltmp58:
.Lfunc_end9:
	.size	ecdh_free_internal, .Lfunc_end9-ecdh_free_internal
	.cfi_endproc
	.cantunwind
	.fnend
                                        @ -- End function
	.section	.text.mbedtls_ecdh_make_params,"ax",%progbits
	.hidden	mbedtls_ecdh_make_params        @ -- Begin function mbedtls_ecdh_make_params
	.globl	mbedtls_ecdh_make_params
	.p2align	1
	.type	mbedtls_ecdh_make_params,%function
	.code	16                              @ @mbedtls_ecdh_make_params
	.thumb_func
mbedtls_ecdh_make_params:
.Lfunc_begin10:
	.loc	4 334 0                         @ ../../../ThirdParty/mbedTLS/library/ecdh.c:334:0
	.fnstart
	.cfi_startproc
@ %bb.0:
	@DEBUG_VALUE: mbedtls_ecdh_make_params:ctx <- $r0
	@DEBUG_VALUE: mbedtls_ecdh_make_params:olen <- $r1
	@DEBUG_VALUE: mbedtls_ecdh_make_params:buf <- $r2
	@DEBUG_VALUE: mbedtls_ecdh_make_params:blen <- $r3
	.save	{r4, r5, r7, lr}
	push	{r4, r5, r7, lr}
	.cfi_def_cfa_offset 16
	.cfi_offset lr, -4
	.cfi_offset r7, -8
	.cfi_offset r5, -12
	.cfi_offset r4, -16
	.pad	#16
	sub	sp, #16
	.cfi_def_cfa_offset 32
	mov	r4, r2
	movs	r2, #220
.Ltmp59:
	@DEBUG_VALUE: mbedtls_ecdh_make_params:buf <- [DW_OP_LLVM_entry_value 1] $r2
	@DEBUG_VALUE: mbedtls_ecdh_make_params:restart_enabled <- 0
	@DEBUG_VALUE: mbedtls_ecdh_make_params:p_rng <- [DW_OP_plus_uconst 36] [$sp+0]
	@DEBUG_VALUE: mbedtls_ecdh_make_params:f_rng <- [DW_OP_plus_uconst 32] [$sp+0]
	@DEBUG_VALUE: mbedtls_ecdh_make_params:blen <- $r3
	@DEBUG_VALUE: mbedtls_ecdh_make_params:buf <- $r4
	@DEBUG_VALUE: mbedtls_ecdh_make_params:olen <- $r1
	@DEBUG_VALUE: mbedtls_ecdh_make_params:ctx <- $r0
	.loc	4 348 56 prologue_end           @ ../../../ThirdParty/mbedTLS/library/ecdh.c:348:56
	ldr	r2, [r0, r2]
	ldr	r5, [sp, #36]
	.loc	4 348 13 is_stmt 0              @ ../../../ThirdParty/mbedTLS/library/ecdh.c:348:13
	str	r5, [sp, #8]
	ldr	r5, [sp, #32]
	str	r5, [sp, #4]
	str	r3, [sp]
	@DEBUG_VALUE: mbedtls_ecdh_make_params:olen <- $r1
	mov	r3, r4
.Ltmp60:
	@DEBUG_VALUE: mbedtls_ecdh_make_params:blen <- [DW_OP_LLVM_entry_value 1] $r3
	@DEBUG_VALUE: mbedtls_ecdh_make_params:buf <- $r3
	bl	ecdh_make_params_internal
.Ltmp61:
	@DEBUG_VALUE: mbedtls_ecdh_make_params:olen <- [DW_OP_LLVM_entry_value 1] $r1
	@DEBUG_VALUE: mbedtls_ecdh_make_params:ctx <- [DW_OP_LLVM_entry_value 1] $r0
	.loc	4 348 5                         @ ../../../ThirdParty/mbedTLS/library/ecdh.c:348:5
	add	sp, #16
.Ltmp62:
	pop	{r4, r5, r7, pc}
.Ltmp63:
.Lfunc_end10:
	.size	mbedtls_ecdh_make_params, .Lfunc_end10-mbedtls_ecdh_make_params
	.cfi_endproc
	.cantunwind
	.fnend
                                        @ -- End function
	.section	.text.ecdh_make_params_internal,"ax",%progbits
	.p2align	2                               @ -- Begin function ecdh_make_params_internal
	.type	ecdh_make_params_internal,%function
	.code	16                              @ @ecdh_make_params_internal
	.thumb_func
ecdh_make_params_internal:
.Lfunc_begin11:
	.loc	4 280 0 is_stmt 1               @ ../../../ThirdParty/mbedTLS/library/ecdh.c:280:0
	.fnstart
	.cfi_startproc
@ %bb.0:
	@DEBUG_VALUE: ecdh_make_params_internal:ctx <- $r0
	@DEBUG_VALUE: ecdh_make_params_internal:olen <- $r1
	@DEBUG_VALUE: ecdh_make_params_internal:point_format <- $r2
	@DEBUG_VALUE: ecdh_make_params_internal:buf <- $r3
	.save	{r4, r5, r6, r7, lr}
	push	{r4, r5, r6, r7, lr}
	.cfi_def_cfa_offset 20
	.cfi_offset lr, -4
	.cfi_offset r7, -8
	.cfi_offset r6, -12
	.cfi_offset r5, -16
	.cfi_offset r4, -20
	.pad	#28
	sub	sp, #28
	.cfi_def_cfa_offset 48
	mov	r6, r0
	@DEBUG_VALUE: ecdh_make_params_internal:restart_enabled <- undef
.Ltmp64:
	@DEBUG_VALUE: ecdh_make_params_internal:p_rng <- [DW_OP_plus_uconst 56] [$sp+0]
	@DEBUG_VALUE: ecdh_make_params_internal:f_rng <- [DW_OP_plus_uconst 52] [$sp+0]
	@DEBUG_VALUE: ecdh_make_params_internal:blen <- [DW_OP_plus_uconst 48] [$sp+0]
	@DEBUG_VALUE: ecdh_make_params_internal:buf <- $r3
	@DEBUG_VALUE: ecdh_make_params_internal:point_format <- $r2
	@DEBUG_VALUE: ecdh_make_params_internal:olen <- $r1
	@DEBUG_VALUE: ecdh_make_params_internal:ctx <- $r6
	.loc	4 287 18 prologue_end           @ ../../../ThirdParty/mbedTLS/library/ecdh.c:287:18
	ldr	r0, [r0, #88]
.Ltmp65:
	.loc	4 287 9 is_stmt 0               @ ../../../ThirdParty/mbedTLS/library/ecdh.c:287:9
	cbz	r0, .LBB11_3
.Ltmp66:
@ %bb.1:
	@DEBUG_VALUE: ecdh_make_params_internal:ctx <- $r6
	@DEBUG_VALUE: ecdh_make_params_internal:buf <- $r3
	@DEBUG_VALUE: ecdh_make_params_internal:point_format <- $r2
	@DEBUG_VALUE: ecdh_make_params_internal:olen <- $r1
	@DEBUG_VALUE: ecdh_make_params_internal:blen <- [DW_OP_plus_uconst 48] [$sp+0]
	@DEBUG_VALUE: ecdh_make_params_internal:f_rng <- [DW_OP_plus_uconst 52] [$sp+0]
	@DEBUG_VALUE: ecdh_make_params_internal:p_rng <- [DW_OP_plus_uconst 56] [$sp+0]
	.loc	4 0 9                           @ ../../../ThirdParty/mbedTLS/library/ecdh.c:0:9
	mov	r7, r3
.Ltmp67:
	@DEBUG_VALUE: ecdh_make_params_internal:buf <- $r7
	mov	r5, r2
.Ltmp68:
	@DEBUG_VALUE: ecdh_make_params_internal:point_format <- $r5
	str	r1, [sp, #16]                   @ 4-byte Spill
.Ltmp69:
	@DEBUG_VALUE: ecdh_make_params_internal:olen <- [DW_OP_plus_uconst 16] [$sp+0]
	ldr	r0, [sp, #56]
	ldr	r3, [sp, #52]
.Ltmp70:
	.loc	4 303 17 is_stmt 1              @ ../../../ThirdParty/mbedTLS/library/ecdh.c:303:17
	str	r0, [sp]
	.loc	4 303 59 is_stmt 0              @ ../../../ThirdParty/mbedTLS/library/ecdh.c:303:59
	mov	r1, r6
	adds	r1, #124
	.loc	4 303 68                        @ ../../../ThirdParty/mbedTLS/library/ecdh.c:303:68
	mov	r4, r6
	adds	r4, #136
	.loc	4 303 17                        @ ../../../ThirdParty/mbedTLS/library/ecdh.c:303:17
	mov	r0, r6
	mov	r2, r4
	bl	mbedtls_ecdh_gen_public
.Ltmp71:
	@DEBUG_VALUE: ecdh_make_params_internal:ret <- $r0
	.loc	4 303 9                         @ ../../../ThirdParty/mbedTLS/library/ecdh.c:303:9
	cbz	r0, .LBB11_4
.Ltmp72:
.LBB11_2:
	@DEBUG_VALUE: ecdh_make_params_internal:olen <- [DW_OP_plus_uconst 16] [$sp+0]
	@DEBUG_VALUE: ecdh_make_params_internal:ctx <- $r6
	@DEBUG_VALUE: ecdh_make_params_internal:point_format <- $r5
	@DEBUG_VALUE: ecdh_make_params_internal:ret <- $r0
	@DEBUG_VALUE: ecdh_make_params_internal:f_rng <- [DW_OP_plus_uconst 52] [$sp+0]
	@DEBUG_VALUE: ecdh_make_params_internal:p_rng <- [DW_OP_plus_uconst 56] [$sp+0]
	.loc	4 321 1 is_stmt 1               @ ../../../ThirdParty/mbedTLS/library/ecdh.c:321:1
	add	sp, #28
.Ltmp73:
	pop	{r4, r5, r6, r7, pc}
.Ltmp74:
.LBB11_3:
	@DEBUG_VALUE: ecdh_make_params_internal:ctx <- $r6
	@DEBUG_VALUE: ecdh_make_params_internal:buf <- $r3
	@DEBUG_VALUE: ecdh_make_params_internal:point_format <- $r2
	@DEBUG_VALUE: ecdh_make_params_internal:olen <- $r1
	@DEBUG_VALUE: ecdh_make_params_internal:blen <- [DW_OP_plus_uconst 48] [$sp+0]
	@DEBUG_VALUE: ecdh_make_params_internal:f_rng <- [DW_OP_plus_uconst 52] [$sp+0]
	@DEBUG_VALUE: ecdh_make_params_internal:p_rng <- [DW_OP_plus_uconst 56] [$sp+0]
	.loc	4 0 1 is_stmt 0                 @ ../../../ThirdParty/mbedTLS/library/ecdh.c:0:1
	ldr	r0, __arm_cp.11_0
	.loc	4 321 1                         @ ../../../ThirdParty/mbedTLS/library/ecdh.c:321:1
	add	sp, #28
.Ltmp75:
	pop	{r4, r5, r6, r7, pc}
.Ltmp76:
.LBB11_4:
	@DEBUG_VALUE: ecdh_make_params_internal:olen <- [DW_OP_plus_uconst 16] [$sp+0]
	@DEBUG_VALUE: ecdh_make_params_internal:buf <- $r7
	@DEBUG_VALUE: ecdh_make_params_internal:ctx <- $r6
	@DEBUG_VALUE: ecdh_make_params_internal:point_format <- $r5
	@DEBUG_VALUE: ecdh_make_params_internal:ret <- $r0
	@DEBUG_VALUE: ecdh_make_params_internal:blen <- [DW_OP_plus_uconst 48] [$sp+0]
	@DEBUG_VALUE: ecdh_make_params_internal:f_rng <- [DW_OP_plus_uconst 52] [$sp+0]
	@DEBUG_VALUE: ecdh_make_params_internal:p_rng <- [DW_OP_plus_uconst 56] [$sp+0]
	.loc	4 0 1                           @ ../../../ThirdParty/mbedTLS/library/ecdh.c:0:1
	ldr	r3, [sp, #48]
.Ltmp77:
	@DEBUG_VALUE: ecdh_make_params_internal:grp_len <- [DW_OP_plus_uconst 24, DW_OP_deref] $sp
	add	r1, sp, #24
.Ltmp78:
	.loc	4 308 17 is_stmt 1              @ ../../../ThirdParty/mbedTLS/library/ecdh.c:308:17
	mov	r0, r6
.Ltmp79:
	mov	r2, r7
	str	r3, [sp, #12]                   @ 4-byte Spill
	bl	mbedtls_ecp_tls_write_group
.Ltmp80:
	@DEBUG_VALUE: ecdh_make_params_internal:ret <- $r0
	.loc	4 308 9 is_stmt 0               @ ../../../ThirdParty/mbedTLS/library/ecdh.c:308:9
	cmp	r0, #0
	bne	.LBB11_2
.Ltmp81:
@ %bb.5:
	@DEBUG_VALUE: ecdh_make_params_internal:olen <- [DW_OP_plus_uconst 16] [$sp+0]
	@DEBUG_VALUE: ecdh_make_params_internal:buf <- $r7
	@DEBUG_VALUE: ecdh_make_params_internal:ctx <- $r6
	@DEBUG_VALUE: ecdh_make_params_internal:point_format <- $r5
	@DEBUG_VALUE: ecdh_make_params_internal:ret <- $r0
	@DEBUG_VALUE: ecdh_make_params_internal:grp_len <- [DW_OP_plus_uconst 24, DW_OP_deref] $sp
	@DEBUG_VALUE: ecdh_make_params_internal:blen <- [DW_OP_plus_uconst 48] [$sp+0]
	@DEBUG_VALUE: ecdh_make_params_internal:f_rng <- [DW_OP_plus_uconst 52] [$sp+0]
	@DEBUG_VALUE: ecdh_make_params_internal:p_rng <- [DW_OP_plus_uconst 56] [$sp+0]
	.loc	4 312 12 is_stmt 1              @ ../../../ThirdParty/mbedTLS/library/ecdh.c:312:12
	ldr	r0, [sp, #24]
.Ltmp82:
	@DEBUG_VALUE: ecdh_make_params_internal:grp_len <- $r0
	.loc	4 313 10                        @ ../../../ThirdParty/mbedTLS/library/ecdh.c:313:10
	ldr	r1, [sp, #12]                   @ 4-byte Reload
	subs	r1, r1, r0
.Ltmp83:
	@DEBUG_VALUE: ecdh_make_params_internal:pt_len <- [DW_OP_plus_uconst 20, DW_OP_deref] $sp
	@DEBUG_VALUE: ecdh_make_params_internal:blen <- $r1
	.loc	4 312 9                         @ ../../../ThirdParty/mbedTLS/library/ecdh.c:312:9
	adds	r0, r7, r0
.Ltmp84:
	@DEBUG_VALUE: ecdh_make_params_internal:buf <- $r0
	.loc	4 315 17                        @ ../../../ThirdParty/mbedTLS/library/ecdh.c:315:17
	str	r0, [sp]
	str	r1, [sp, #4]
	add	r3, sp, #20
	mov	r0, r6
.Ltmp85:
	mov	r1, r4
.Ltmp86:
	mov	r2, r5
	bl	mbedtls_ecp_tls_write_point
.Ltmp87:
	@DEBUG_VALUE: ecdh_make_params_internal:ret <- $r0
	.loc	4 315 9 is_stmt 0               @ ../../../ThirdParty/mbedTLS/library/ecdh.c:315:9
	cmp	r0, #0
	bne	.LBB11_2
.Ltmp88:
@ %bb.6:
	@DEBUG_VALUE: ecdh_make_params_internal:olen <- [DW_OP_plus_uconst 16] [$sp+0]
	@DEBUG_VALUE: ecdh_make_params_internal:ctx <- $r6
	@DEBUG_VALUE: ecdh_make_params_internal:point_format <- $r5
	@DEBUG_VALUE: ecdh_make_params_internal:ret <- $r0
	@DEBUG_VALUE: ecdh_make_params_internal:pt_len <- [DW_OP_plus_uconst 20, DW_OP_deref] $sp
	@DEBUG_VALUE: ecdh_make_params_internal:f_rng <- [DW_OP_plus_uconst 52] [$sp+0]
	@DEBUG_VALUE: ecdh_make_params_internal:p_rng <- [DW_OP_plus_uconst 56] [$sp+0]
	.loc	4 319 13 is_stmt 1              @ ../../../ThirdParty/mbedTLS/library/ecdh.c:319:13
	ldr	r0, [sp, #24]
.Ltmp89:
	@DEBUG_VALUE: ecdh_make_params_internal:grp_len <- $r0
	.loc	4 319 23 is_stmt 0              @ ../../../ThirdParty/mbedTLS/library/ecdh.c:319:23
	ldr	r1, [sp, #20]
.Ltmp90:
	@DEBUG_VALUE: ecdh_make_params_internal:pt_len <- $r1
	.loc	4 319 21                        @ ../../../ThirdParty/mbedTLS/library/ecdh.c:319:21
	adds	r0, r1, r0
.Ltmp91:
	.loc	4 319 11                        @ ../../../ThirdParty/mbedTLS/library/ecdh.c:319:11
	ldr	r1, [sp, #16]                   @ 4-byte Reload
.Ltmp92:
	@DEBUG_VALUE: ecdh_make_params_internal:olen <- $r1
	str	r0, [r1]
	movs	r0, #0
	.loc	4 321 1 is_stmt 1               @ ../../../ThirdParty/mbedTLS/library/ecdh.c:321:1
	add	sp, #28
.Ltmp93:
	pop	{r4, r5, r6, r7, pc}
.Ltmp94:
	.p2align	2
@ %bb.7:
	.loc	4 0 1 is_stmt 0                 @ ../../../ThirdParty/mbedTLS/library/ecdh.c:0:1
__arm_cp.11_0:
	.long	4294946944                      @ 0xffffb080
.Lcpi_end2:
	.size	__arm_cp.11_0, .Lcpi_end2-__arm_cp.11_0
.Lfunc_end11:
	.size	ecdh_make_params_internal, .Lfunc_end11-ecdh_make_params_internal
	.cfi_endproc
	.cantunwind
	.fnend
                                        @ -- End function
	.section	.text.mbedtls_ecdh_read_params,"ax",%progbits
	.hidden	mbedtls_ecdh_read_params        @ -- Begin function mbedtls_ecdh_read_params
	.globl	mbedtls_ecdh_read_params
	.p2align	1
	.type	mbedtls_ecdh_read_params,%function
	.code	16                              @ @mbedtls_ecdh_read_params
	.thumb_func
mbedtls_ecdh_read_params:
.Lfunc_begin12:
	.loc	4 382 0 is_stmt 1               @ ../../../ThirdParty/mbedTLS/library/ecdh.c:382:0
	.fnstart
	.cfi_startproc
@ %bb.0:
	@DEBUG_VALUE: mbedtls_ecdh_read_params:ctx <- $r0
	@DEBUG_VALUE: mbedtls_ecdh_read_params:buf <- $r1
	@DEBUG_VALUE: mbedtls_ecdh_read_params:end <- $r2
	.save	{r4, r5, r6, lr}
	push	{r4, r5, r6, lr}
	.cfi_def_cfa_offset 16
	.cfi_offset lr, -4
	.cfi_offset r6, -8
	.cfi_offset r5, -12
	.cfi_offset r4, -16
	.pad	#8
	sub	sp, #8
	.cfi_def_cfa_offset 24
	mov	r4, r2
	mov	r5, r1
	mov	r6, r0
.Ltmp95:
	@DEBUG_VALUE: mbedtls_ecdh_read_params:end <- $r4
	@DEBUG_VALUE: mbedtls_ecdh_read_params:buf <- $r5
	@DEBUG_VALUE: mbedtls_ecdh_read_params:ctx <- $r6
	.loc	4 390 68 prologue_end           @ ../../../ThirdParty/mbedTLS/library/ecdh.c:390:68
	ldr	r0, [r1]
	.loc	4 390 66 is_stmt 0              @ ../../../ThirdParty/mbedTLS/library/ecdh.c:390:66
	subs	r2, r2, r0
.Ltmp96:
	@DEBUG_VALUE: mbedtls_ecdh_read_params:grp_id <- [DW_OP_plus_uconst 4, DW_OP_deref] $sp
	.loc	4 0 66                          @ ../../../ThirdParty/mbedTLS/library/ecdh.c:0:66
	add	r0, sp, #4
	.loc	4 390 17                        @ ../../../ThirdParty/mbedTLS/library/ecdh.c:390:17
	bl	mbedtls_ecp_tls_read_group_id
.Ltmp97:
	@DEBUG_VALUE: mbedtls_ecdh_read_params:ret <- $r0
	.loc	4 390 9                         @ ../../../ThirdParty/mbedTLS/library/ecdh.c:390:9
	cbz	r0, .LBB12_2
.Ltmp98:
.LBB12_1:
	@DEBUG_VALUE: mbedtls_ecdh_read_params:ctx <- $r6
	@DEBUG_VALUE: mbedtls_ecdh_read_params:buf <- $r5
	@DEBUG_VALUE: mbedtls_ecdh_read_params:end <- $r4
	@DEBUG_VALUE: mbedtls_ecdh_read_params:ret <- $r0
	.loc	4 409 1 is_stmt 1               @ ../../../ThirdParty/mbedTLS/library/ecdh.c:409:1
	add	sp, #8
	pop	{r4, r5, r6, pc}
.Ltmp99:
.LBB12_2:
	@DEBUG_VALUE: mbedtls_ecdh_read_params:ctx <- $r6
	@DEBUG_VALUE: mbedtls_ecdh_read_params:buf <- $r5
	@DEBUG_VALUE: mbedtls_ecdh_read_params:end <- $r4
	@DEBUG_VALUE: mbedtls_ecdh_read_params:ret <- $r0
	@DEBUG_VALUE: mbedtls_ecdh_read_params:grp_id <- [DW_OP_plus_uconst 4, DW_OP_deref] $sp
	.loc	4 0 1 is_stmt 0                 @ ../../../ThirdParty/mbedTLS/library/ecdh.c:0:1
	add	r0, sp, #4
.Ltmp100:
	.loc	4 394 42 is_stmt 1              @ ../../../ThirdParty/mbedTLS/library/ecdh.c:394:42
	ldrb	r1, [r0]
.Ltmp101:
	@DEBUG_VALUE: mbedtls_ecdh_read_params:grp_id <- undef
	.loc	4 394 17 is_stmt 0              @ ../../../ThirdParty/mbedTLS/library/ecdh.c:394:17
	mov	r0, r6
	bl	mbedtls_ecdh_setup
.Ltmp102:
	@DEBUG_VALUE: mbedtls_ecdh_read_params:ret <- $r0
	.loc	4 394 9                         @ ../../../ThirdParty/mbedTLS/library/ecdh.c:394:9
	cmp	r0, #0
	bne	.LBB12_1
.Ltmp103:
@ %bb.3:
	@DEBUG_VALUE: mbedtls_ecdh_read_params:ctx <- $r6
	@DEBUG_VALUE: mbedtls_ecdh_read_params:buf <- $r5
	@DEBUG_VALUE: mbedtls_ecdh_read_params:end <- $r4
	@DEBUG_VALUE: mbedtls_ecdh_read_params:ret <- $r0
	.loc	4 398 13 is_stmt 1              @ ../../../ThirdParty/mbedTLS/library/ecdh.c:398:13
	mov	r0, r6
.Ltmp104:
	mov	r1, r5
	mov	r2, r4
	bl	ecdh_read_params_internal
	.loc	4 409 1                         @ ../../../ThirdParty/mbedTLS/library/ecdh.c:409:1
	add	sp, #8
	pop	{r4, r5, r6, pc}
.Ltmp105:
.Lfunc_end12:
	.size	mbedtls_ecdh_read_params, .Lfunc_end12-mbedtls_ecdh_read_params
	.cfi_endproc
	.cantunwind
	.fnend
                                        @ -- End function
	.section	.text.ecdh_read_params_internal,"ax",%progbits
	.p2align	1                               @ -- Begin function ecdh_read_params_internal
	.type	ecdh_read_params_internal,%function
	.code	16                              @ @ecdh_read_params_internal
	.thumb_func
ecdh_read_params_internal:
.Lfunc_begin13:
	.loc	4 367 0                         @ ../../../ThirdParty/mbedTLS/library/ecdh.c:367:0
	.fnstart
	.cfi_startproc
@ %bb.0:
	@DEBUG_VALUE: ecdh_read_params_internal:ctx <- $r0
	@DEBUG_VALUE: ecdh_read_params_internal:buf <- $r1
	@DEBUG_VALUE: ecdh_read_params_internal:end <- $r2
	.save	{r4, lr}
	push	{r4, lr}
	.cfi_def_cfa_offset 8
	.cfi_offset lr, -4
	.cfi_offset r4, -8
	mov	r4, r1
	@DEBUG_VALUE: ecdh_read_params_internal:end <- $r2
.Ltmp106:
	@DEBUG_VALUE: ecdh_read_params_internal:buf <- $r4
	@DEBUG_VALUE: ecdh_read_params_internal:ctx <- $r0
	.loc	4 369 47 prologue_end           @ ../../../ThirdParty/mbedTLS/library/ecdh.c:369:47
	ldr	r1, [r1]
	.loc	4 369 45 is_stmt 0              @ ../../../ThirdParty/mbedTLS/library/ecdh.c:369:45
	subs	r3, r2, r1
	.loc	4 368 58 is_stmt 1              @ ../../../ThirdParty/mbedTLS/library/ecdh.c:368:58
	mov	r1, r0
	adds	r1, #172
	.loc	4 368 13 is_stmt 0              @ ../../../ThirdParty/mbedTLS/library/ecdh.c:368:13
	mov	r2, r4
.Ltmp107:
	@DEBUG_VALUE: ecdh_read_params_internal:end <- [DW_OP_LLVM_entry_value 1] $r2
	bl	mbedtls_ecp_tls_read_point
.Ltmp108:
	@DEBUG_VALUE: ecdh_read_params_internal:ctx <- [DW_OP_LLVM_entry_value 1] $r0
	.loc	4 368 5                         @ ../../../ThirdParty/mbedTLS/library/ecdh.c:368:5
	pop	{r4, pc}
.Ltmp109:
.Lfunc_end13:
	.size	ecdh_read_params_internal, .Lfunc_end13-ecdh_read_params_internal
	.cfi_endproc
	.cantunwind
	.fnend
                                        @ -- End function
	.section	.text.mbedtls_ecdh_get_params,"ax",%progbits
	.hidden	mbedtls_ecdh_get_params         @ -- Begin function mbedtls_ecdh_get_params
	.globl	mbedtls_ecdh_get_params
	.p2align	1
	.type	mbedtls_ecdh_get_params,%function
	.code	16                              @ @mbedtls_ecdh_get_params
	.thumb_func
mbedtls_ecdh_get_params:
.Lfunc_begin14:
	.loc	4 438 0 is_stmt 1               @ ../../../ThirdParty/mbedTLS/library/ecdh.c:438:0
	.fnstart
	.cfi_startproc
@ %bb.0:
	@DEBUG_VALUE: mbedtls_ecdh_get_params:ctx <- $r0
	@DEBUG_VALUE: mbedtls_ecdh_get_params:key <- $r1
	@DEBUG_VALUE: mbedtls_ecdh_get_params:side <- $r2
	.save	{r4, r5, r6, lr}
	push	{r4, r5, r6, lr}
	.cfi_def_cfa_offset 16
	.cfi_offset lr, -4
	.cfi_offset r6, -8
	.cfi_offset r5, -12
	.cfi_offset r4, -16
	mov	r4, r2
	mov	r5, r1
	mov	r6, r0
.Ltmp110:
	@DEBUG_VALUE: mbedtls_ecdh_get_params:side <- $r4
	@DEBUG_VALUE: mbedtls_ecdh_get_params:key <- $r5
	@DEBUG_VALUE: mbedtls_ecdh_get_params:ctx <- $r6
	.loc	4 445 51 prologue_end           @ ../../../ThirdParty/mbedTLS/library/ecdh.c:445:51
	ldrb	r1, [r1]
	.loc	4 445 17 is_stmt 0              @ ../../../ThirdParty/mbedTLS/library/ecdh.c:445:17
	bl	mbedtls_ecdh_setup
.Ltmp111:
	@DEBUG_VALUE: mbedtls_ecdh_get_params:ret <- $r0
	.loc	4 445 9                         @ ../../../ThirdParty/mbedTLS/library/ecdh.c:445:9
	cbz	r0, .LBB14_2
.Ltmp112:
@ %bb.1:
	@DEBUG_VALUE: mbedtls_ecdh_get_params:ctx <- $r6
	@DEBUG_VALUE: mbedtls_ecdh_get_params:key <- $r5
	@DEBUG_VALUE: mbedtls_ecdh_get_params:side <- $r4
	@DEBUG_VALUE: mbedtls_ecdh_get_params:ret <- $r0
	.loc	4 460 1 is_stmt 1               @ ../../../ThirdParty/mbedTLS/library/ecdh.c:460:1
	pop	{r4, r5, r6, pc}
.Ltmp113:
.LBB14_2:
	@DEBUG_VALUE: mbedtls_ecdh_get_params:ctx <- $r6
	@DEBUG_VALUE: mbedtls_ecdh_get_params:key <- $r5
	@DEBUG_VALUE: mbedtls_ecdh_get_params:side <- $r4
	@DEBUG_VALUE: mbedtls_ecdh_get_params:ret <- $r0
	@DEBUG_VALUE: mbedtls_ecdh_get_params:side <- $r4
	.loc	4 449 13                        @ ../../../ThirdParty/mbedTLS/library/ecdh.c:449:13
	mov	r0, r6
.Ltmp114:
	mov	r1, r5
	mov	r2, r4
	bl	ecdh_get_params_internal
	.loc	4 460 1                         @ ../../../ThirdParty/mbedTLS/library/ecdh.c:460:1
	pop	{r4, r5, r6, pc}
.Ltmp115:
.Lfunc_end14:
	.size	mbedtls_ecdh_get_params, .Lfunc_end14-mbedtls_ecdh_get_params
	.cfi_endproc
	.cantunwind
	.fnend
                                        @ -- End function
	.section	.text.ecdh_get_params_internal,"ax",%progbits
	.p2align	2                               @ -- Begin function ecdh_get_params_internal
	.type	ecdh_get_params_internal,%function
	.code	16                              @ @ecdh_get_params_internal
	.thumb_func
ecdh_get_params_internal:
.Lfunc_begin15:
	.loc	4 414 0                         @ ../../../ThirdParty/mbedTLS/library/ecdh.c:414:0
	.fnstart
	.cfi_startproc
@ %bb.0:
	@DEBUG_VALUE: ecdh_get_params_internal:ctx <- $r0
	@DEBUG_VALUE: ecdh_get_params_internal:key <- $r1
	@DEBUG_VALUE: ecdh_get_params_internal:side <- $r2
	.save	{r4, r5, r7, lr}
	push	{r4, r5, r7, lr}
	.cfi_def_cfa_offset 16
	.cfi_offset lr, -4
	.cfi_offset r7, -8
	.cfi_offset r5, -12
	.cfi_offset r4, -16
	mov	r4, r1
	mov	r5, r0
	@DEBUG_VALUE: ecdh_get_params_internal:side <- $r2
.Ltmp116:
	@DEBUG_VALUE: ecdh_get_params_internal:key <- $r4
	@DEBUG_VALUE: ecdh_get_params_internal:ctx <- $r5
	.loc	4 418 9 prologue_end            @ ../../../ThirdParty/mbedTLS/library/ecdh.c:418:9
	cbz	r2, .LBB15_3
.Ltmp117:
@ %bb.1:
	@DEBUG_VALUE: ecdh_get_params_internal:ctx <- $r5
	@DEBUG_VALUE: ecdh_get_params_internal:key <- $r4
	@DEBUG_VALUE: ecdh_get_params_internal:side <- $r2
	cmp	r2, #1
	bne	.LBB15_5
.Ltmp118:
@ %bb.2:
	@DEBUG_VALUE: ecdh_get_params_internal:ctx <- $r5
	@DEBUG_VALUE: ecdh_get_params_internal:key <- $r4
	@DEBUG_VALUE: ecdh_get_params_internal:side <- $r2
	.loc	4 419 41                        @ ../../../ThirdParty/mbedTLS/library/ecdh.c:419:41
	adds	r5, #172
.Ltmp119:
	.loc	4 419 51 is_stmt 0              @ ../../../ThirdParty/mbedTLS/library/ecdh.c:419:51
	adds	r4, #136
.Ltmp120:
	.loc	4 419 17                        @ ../../../ThirdParty/mbedTLS/library/ecdh.c:419:17
	mov	r0, r5
	mov	r1, r4
	bl	mbedtls_ecp_copy
.Ltmp121:
	@DEBUG_VALUE: ecdh_get_params_internal:side <- [DW_OP_LLVM_entry_value 1] $r2
	.loc	4 0 0                           @ ../../../ThirdParty/mbedTLS/library/ecdh.c:0:0
	pop	{r4, r5, r7, pc}
.Ltmp122:
.LBB15_3:
	@DEBUG_VALUE: ecdh_get_params_internal:ctx <- $r5
	@DEBUG_VALUE: ecdh_get_params_internal:key <- $r4
	@DEBUG_VALUE: ecdh_get_params_internal:side <- $r2
	.loc	4 425 41 is_stmt 1              @ ../../../ThirdParty/mbedTLS/library/ecdh.c:425:41
	mov	r0, r5
	adds	r0, #136
	.loc	4 425 50 is_stmt 0              @ ../../../ThirdParty/mbedTLS/library/ecdh.c:425:50
	mov	r1, r4
	adds	r1, #136
	.loc	4 425 17                        @ ../../../ThirdParty/mbedTLS/library/ecdh.c:425:17
	bl	mbedtls_ecp_copy
.Ltmp123:
	@DEBUG_VALUE: ecdh_get_params_internal:side <- [DW_OP_LLVM_entry_value 1] $r2
	@DEBUG_VALUE: ecdh_get_params_internal:ret <- $r0
	.loc	4 425 61                        @ ../../../ThirdParty/mbedTLS/library/ecdh.c:425:61
	cbz	r0, .LBB15_6
.Ltmp124:
@ %bb.4:
	@DEBUG_VALUE: ecdh_get_params_internal:ctx <- $r5
	@DEBUG_VALUE: ecdh_get_params_internal:key <- $r4
	@DEBUG_VALUE: ecdh_get_params_internal:ret <- $r0
	@DEBUG_VALUE: ecdh_get_params_internal:side <- [DW_OP_LLVM_entry_value 1] $r2
	.loc	4 0 0                           @ ../../../ThirdParty/mbedTLS/library/ecdh.c:0:0
	pop	{r4, r5, r7, pc}
.Ltmp125:
.LBB15_5:
	@DEBUG_VALUE: ecdh_get_params_internal:ctx <- $r5
	@DEBUG_VALUE: ecdh_get_params_internal:key <- $r4
	@DEBUG_VALUE: ecdh_get_params_internal:side <- $r2
	ldr	r0, __arm_cp.15_0
	pop	{r4, r5, r7, pc}
.Ltmp126:
.LBB15_6:
	@DEBUG_VALUE: ecdh_get_params_internal:ctx <- $r5
	@DEBUG_VALUE: ecdh_get_params_internal:key <- $r4
	@DEBUG_VALUE: ecdh_get_params_internal:ret <- $r0
	@DEBUG_VALUE: ecdh_get_params_internal:side <- [DW_OP_LLVM_entry_value 1] $r2
	.loc	4 426 45 is_stmt 1              @ ../../../ThirdParty/mbedTLS/library/ecdh.c:426:45
	adds	r5, #124
.Ltmp127:
	.loc	4 426 54 is_stmt 0              @ ../../../ThirdParty/mbedTLS/library/ecdh.c:426:54
	adds	r4, #124
.Ltmp128:
	.loc	4 426 21                        @ ../../../ThirdParty/mbedTLS/library/ecdh.c:426:21
	mov	r0, r5
.Ltmp129:
	mov	r1, r4
	bl	mbedtls_mpi_copy
.Ltmp130:
	@DEBUG_VALUE: ecdh_get_params_internal:ret <- $r0
	.loc	4 0 0                           @ ../../../ThirdParty/mbedTLS/library/ecdh.c:0:0
	pop	{r4, r5, r7, pc}
.Ltmp131:
	.p2align	2
@ %bb.7:
__arm_cp.15_0:
	.long	4294946944                      @ 0xffffb080
.Lcpi_end3:
	.size	__arm_cp.15_0, .Lcpi_end3-__arm_cp.15_0
.Lfunc_end15:
	.size	ecdh_get_params_internal, .Lfunc_end15-ecdh_get_params_internal
	.cfi_endproc
	.cantunwind
	.fnend
                                        @ -- End function
	.section	.text.mbedtls_ecdh_make_public,"ax",%progbits
	.hidden	mbedtls_ecdh_make_public        @ -- Begin function mbedtls_ecdh_make_public
	.globl	mbedtls_ecdh_make_public
	.p2align	1
	.type	mbedtls_ecdh_make_public,%function
	.code	16                              @ @mbedtls_ecdh_make_public
	.thumb_func
mbedtls_ecdh_make_public:
.Lfunc_begin16:
	.loc	4 507 0 is_stmt 1               @ ../../../ThirdParty/mbedTLS/library/ecdh.c:507:0
	.fnstart
	.cfi_startproc
@ %bb.0:
	@DEBUG_VALUE: mbedtls_ecdh_make_public:ctx <- $r0
	@DEBUG_VALUE: mbedtls_ecdh_make_public:olen <- $r1
	@DEBUG_VALUE: mbedtls_ecdh_make_public:buf <- $r2
	@DEBUG_VALUE: mbedtls_ecdh_make_public:blen <- $r3
	.save	{r4, r5, r7, lr}
	push	{r4, r5, r7, lr}
	.cfi_def_cfa_offset 16
	.cfi_offset lr, -4
	.cfi_offset r7, -8
	.cfi_offset r5, -12
	.cfi_offset r4, -16
	.pad	#16
	sub	sp, #16
	.cfi_def_cfa_offset 32
	mov	r4, r2
	movs	r2, #220
.Ltmp132:
	@DEBUG_VALUE: mbedtls_ecdh_make_public:buf <- [DW_OP_LLVM_entry_value 1] $r2
	@DEBUG_VALUE: mbedtls_ecdh_make_public:restart_enabled <- 0
	@DEBUG_VALUE: mbedtls_ecdh_make_public:p_rng <- [DW_OP_plus_uconst 36] [$sp+0]
	@DEBUG_VALUE: mbedtls_ecdh_make_public:f_rng <- [DW_OP_plus_uconst 32] [$sp+0]
	@DEBUG_VALUE: mbedtls_ecdh_make_public:blen <- $r3
	@DEBUG_VALUE: mbedtls_ecdh_make_public:buf <- $r4
	@DEBUG_VALUE: mbedtls_ecdh_make_public:olen <- $r1
	@DEBUG_VALUE: mbedtls_ecdh_make_public:ctx <- $r0
	.loc	4 519 56 prologue_end           @ ../../../ThirdParty/mbedTLS/library/ecdh.c:519:56
	ldr	r2, [r0, r2]
	ldr	r5, [sp, #36]
	.loc	4 519 13 is_stmt 0              @ ../../../ThirdParty/mbedTLS/library/ecdh.c:519:13
	str	r5, [sp, #8]
	ldr	r5, [sp, #32]
	str	r5, [sp, #4]
	str	r3, [sp]
	@DEBUG_VALUE: mbedtls_ecdh_make_public:olen <- $r1
	mov	r3, r4
.Ltmp133:
	@DEBUG_VALUE: mbedtls_ecdh_make_public:blen <- [DW_OP_LLVM_entry_value 1] $r3
	@DEBUG_VALUE: mbedtls_ecdh_make_public:buf <- $r3
	bl	ecdh_make_public_internal
.Ltmp134:
	@DEBUG_VALUE: mbedtls_ecdh_make_public:olen <- [DW_OP_LLVM_entry_value 1] $r1
	@DEBUG_VALUE: mbedtls_ecdh_make_public:ctx <- [DW_OP_LLVM_entry_value 1] $r0
	.loc	4 519 5                         @ ../../../ThirdParty/mbedTLS/library/ecdh.c:519:5
	add	sp, #16
.Ltmp135:
	pop	{r4, r5, r7, pc}
.Ltmp136:
.Lfunc_end16:
	.size	mbedtls_ecdh_make_public, .Lfunc_end16-mbedtls_ecdh_make_public
	.cfi_endproc
	.cantunwind
	.fnend
                                        @ -- End function
	.section	.text.ecdh_make_public_internal,"ax",%progbits
	.p2align	2                               @ -- Begin function ecdh_make_public_internal
	.type	ecdh_make_public_internal,%function
	.code	16                              @ @ecdh_make_public_internal
	.thumb_func
ecdh_make_public_internal:
.Lfunc_begin17:
	.loc	4 470 0 is_stmt 1               @ ../../../ThirdParty/mbedTLS/library/ecdh.c:470:0
	.fnstart
	.cfi_startproc
@ %bb.0:
	@DEBUG_VALUE: ecdh_make_public_internal:ctx <- $r0
	@DEBUG_VALUE: ecdh_make_public_internal:olen <- $r1
	@DEBUG_VALUE: ecdh_make_public_internal:point_format <- $r2
	@DEBUG_VALUE: ecdh_make_public_internal:buf <- $r3
	.save	{r4, r5, r6, r7, lr}
	push	{r4, r5, r6, r7, lr}
	.cfi_def_cfa_offset 20
	.cfi_offset lr, -4
	.cfi_offset r7, -8
	.cfi_offset r6, -12
	.cfi_offset r5, -16
	.cfi_offset r4, -20
	.pad	#12
	sub	sp, #12
	.cfi_def_cfa_offset 32
	mov	r7, r0
	@DEBUG_VALUE: ecdh_make_public_internal:restart_enabled <- undef
.Ltmp137:
	@DEBUG_VALUE: ecdh_make_public_internal:p_rng <- [DW_OP_plus_uconst 40] [$sp+0]
	@DEBUG_VALUE: ecdh_make_public_internal:f_rng <- [DW_OP_plus_uconst 36] [$sp+0]
	@DEBUG_VALUE: ecdh_make_public_internal:blen <- [DW_OP_plus_uconst 32] [$sp+0]
	@DEBUG_VALUE: ecdh_make_public_internal:buf <- $r3
	@DEBUG_VALUE: ecdh_make_public_internal:point_format <- $r2
	@DEBUG_VALUE: ecdh_make_public_internal:olen <- $r1
	@DEBUG_VALUE: ecdh_make_public_internal:ctx <- $r7
	.loc	4 476 18 prologue_end           @ ../../../ThirdParty/mbedTLS/library/ecdh.c:476:18
	ldr	r0, [r0, #88]
.Ltmp138:
	.loc	4 476 9 is_stmt 0               @ ../../../ThirdParty/mbedTLS/library/ecdh.c:476:9
	cbz	r0, .LBB17_3
.Ltmp139:
@ %bb.1:
	@DEBUG_VALUE: ecdh_make_public_internal:ctx <- $r7
	@DEBUG_VALUE: ecdh_make_public_internal:buf <- $r3
	@DEBUG_VALUE: ecdh_make_public_internal:point_format <- $r2
	@DEBUG_VALUE: ecdh_make_public_internal:olen <- $r1
	@DEBUG_VALUE: ecdh_make_public_internal:blen <- [DW_OP_plus_uconst 32] [$sp+0]
	@DEBUG_VALUE: ecdh_make_public_internal:f_rng <- [DW_OP_plus_uconst 36] [$sp+0]
	@DEBUG_VALUE: ecdh_make_public_internal:p_rng <- [DW_OP_plus_uconst 40] [$sp+0]
	.loc	4 0 9                           @ ../../../ThirdParty/mbedTLS/library/ecdh.c:0:9
	mov	r6, r3
.Ltmp140:
	@DEBUG_VALUE: ecdh_make_public_internal:buf <- $r6
	mov	r5, r2
.Ltmp141:
	@DEBUG_VALUE: ecdh_make_public_internal:point_format <- $r5
	str	r1, [sp, #8]                    @ 4-byte Spill
.Ltmp142:
	@DEBUG_VALUE: ecdh_make_public_internal:olen <- [DW_OP_plus_uconst 8] [$sp+0]
	ldr	r0, [sp, #40]
	ldr	r3, [sp, #36]
.Ltmp143:
	.loc	4 491 17 is_stmt 1              @ ../../../ThirdParty/mbedTLS/library/ecdh.c:491:17
	str	r0, [sp]
	.loc	4 491 59 is_stmt 0              @ ../../../ThirdParty/mbedTLS/library/ecdh.c:491:59
	mov	r1, r7
	adds	r1, #124
	.loc	4 491 68                        @ ../../../ThirdParty/mbedTLS/library/ecdh.c:491:68
	mov	r4, r7
	adds	r4, #136
	.loc	4 491 17                        @ ../../../ThirdParty/mbedTLS/library/ecdh.c:491:17
	mov	r0, r7
	mov	r2, r4
	bl	mbedtls_ecdh_gen_public
.Ltmp144:
	@DEBUG_VALUE: ecdh_make_public_internal:ret <- $r0
	.loc	4 491 9                         @ ../../../ThirdParty/mbedTLS/library/ecdh.c:491:9
	cbz	r0, .LBB17_4
.Ltmp145:
@ %bb.2:
	@DEBUG_VALUE: ecdh_make_public_internal:olen <- [DW_OP_plus_uconst 8] [$sp+0]
	@DEBUG_VALUE: ecdh_make_public_internal:ctx <- $r7
	@DEBUG_VALUE: ecdh_make_public_internal:buf <- $r6
	@DEBUG_VALUE: ecdh_make_public_internal:point_format <- $r5
	@DEBUG_VALUE: ecdh_make_public_internal:ret <- $r0
	@DEBUG_VALUE: ecdh_make_public_internal:blen <- [DW_OP_plus_uconst 32] [$sp+0]
	@DEBUG_VALUE: ecdh_make_public_internal:f_rng <- [DW_OP_plus_uconst 36] [$sp+0]
	@DEBUG_VALUE: ecdh_make_public_internal:p_rng <- [DW_OP_plus_uconst 40] [$sp+0]
	.loc	4 498 1 is_stmt 1               @ ../../../ThirdParty/mbedTLS/library/ecdh.c:498:1
	add	sp, #12
.Ltmp146:
	pop	{r4, r5, r6, r7, pc}
.Ltmp147:
.LBB17_3:
	@DEBUG_VALUE: ecdh_make_public_internal:ctx <- $r7
	@DEBUG_VALUE: ecdh_make_public_internal:buf <- $r3
	@DEBUG_VALUE: ecdh_make_public_internal:point_format <- $r2
	@DEBUG_VALUE: ecdh_make_public_internal:olen <- $r1
	@DEBUG_VALUE: ecdh_make_public_internal:blen <- [DW_OP_plus_uconst 32] [$sp+0]
	@DEBUG_VALUE: ecdh_make_public_internal:f_rng <- [DW_OP_plus_uconst 36] [$sp+0]
	@DEBUG_VALUE: ecdh_make_public_internal:p_rng <- [DW_OP_plus_uconst 40] [$sp+0]
	.loc	4 0 1 is_stmt 0                 @ ../../../ThirdParty/mbedTLS/library/ecdh.c:0:1
	ldr	r0, __arm_cp.17_0
	.loc	4 498 1                         @ ../../../ThirdParty/mbedTLS/library/ecdh.c:498:1
	add	sp, #12
.Ltmp148:
	pop	{r4, r5, r6, r7, pc}
.Ltmp149:
.LBB17_4:
	@DEBUG_VALUE: ecdh_make_public_internal:olen <- [DW_OP_plus_uconst 8] [$sp+0]
	@DEBUG_VALUE: ecdh_make_public_internal:ctx <- $r7
	@DEBUG_VALUE: ecdh_make_public_internal:buf <- $r6
	@DEBUG_VALUE: ecdh_make_public_internal:point_format <- $r5
	@DEBUG_VALUE: ecdh_make_public_internal:ret <- $r0
	@DEBUG_VALUE: ecdh_make_public_internal:blen <- [DW_OP_plus_uconst 32] [$sp+0]
	@DEBUG_VALUE: ecdh_make_public_internal:f_rng <- [DW_OP_plus_uconst 36] [$sp+0]
	@DEBUG_VALUE: ecdh_make_public_internal:p_rng <- [DW_OP_plus_uconst 40] [$sp+0]
	.loc	4 0 1                           @ ../../../ThirdParty/mbedTLS/library/ecdh.c:0:1
	ldr	r0, [sp, #32]
.Ltmp150:
	.loc	4 496 12 is_stmt 1              @ ../../../ThirdParty/mbedTLS/library/ecdh.c:496:12
	str	r6, [sp]
	str	r0, [sp, #4]
	mov	r0, r7
	mov	r1, r4
	mov	r2, r5
	ldr	r3, [sp, #8]                    @ 4-byte Reload
.Ltmp151:
	@DEBUG_VALUE: ecdh_make_public_internal:olen <- $r3
	bl	mbedtls_ecp_tls_write_point
.Ltmp152:
	@DEBUG_VALUE: ecdh_make_public_internal:olen <- [DW_OP_LLVM_entry_value 1] $r1
	.loc	4 498 1                         @ ../../../ThirdParty/mbedTLS/library/ecdh.c:498:1
	add	sp, #12
.Ltmp153:
	pop	{r4, r5, r6, r7, pc}
.Ltmp154:
	.p2align	2
@ %bb.5:
	.loc	4 0 1 is_stmt 0                 @ ../../../ThirdParty/mbedTLS/library/ecdh.c:0:1
__arm_cp.17_0:
	.long	4294946944                      @ 0xffffb080
.Lcpi_end4:
	.size	__arm_cp.17_0, .Lcpi_end4-__arm_cp.17_0
.Lfunc_end17:
	.size	ecdh_make_public_internal, .Lfunc_end17-ecdh_make_public_internal
	.cfi_endproc
	.cantunwind
	.fnend
                                        @ -- End function
	.section	.text.mbedtls_ecdh_read_public,"ax",%progbits
	.hidden	mbedtls_ecdh_read_public        @ -- Begin function mbedtls_ecdh_read_public
	.globl	mbedtls_ecdh_read_public
	.p2align	1
	.type	mbedtls_ecdh_read_public,%function
	.code	16                              @ @mbedtls_ecdh_read_public
	.thumb_func
mbedtls_ecdh_read_public:
.Lfunc_begin18:
	.loc	4 556 0 is_stmt 1               @ ../../../ThirdParty/mbedTLS/library/ecdh.c:556:0
	.fnstart
	.cfi_startproc
@ %bb.0:
	@DEBUG_VALUE: mbedtls_ecdh_read_public:ctx <- $r0
	@DEBUG_VALUE: mbedtls_ecdh_read_public:ctx <- $r0
	@DEBUG_VALUE: mbedtls_ecdh_read_public:buf <- $r1
	@DEBUG_VALUE: mbedtls_ecdh_read_public:buf <- $r1
	@DEBUG_VALUE: mbedtls_ecdh_read_public:blen <- $r2
	@DEBUG_VALUE: mbedtls_ecdh_read_public:blen <- $r2
	@DEBUG_VALUE: mbedtls_ecdh_read_public:blen <- $r2
	@DEBUG_VALUE: mbedtls_ecdh_read_public:buf <- $r1
	@DEBUG_VALUE: mbedtls_ecdh_read_public:ctx <- $r0
	.save	{r7, lr}
	push	{r7, lr}
	.cfi_def_cfa_offset 8
	.cfi_offset lr, -4
	.cfi_offset r7, -8
.Ltmp155:
	.loc	4 561 13 prologue_end           @ ../../../ThirdParty/mbedTLS/library/ecdh.c:561:13
	bl	ecdh_read_public_internal
.Ltmp156:
	@DEBUG_VALUE: mbedtls_ecdh_read_public:blen <- [DW_OP_LLVM_entry_value 1] $r2
	@DEBUG_VALUE: mbedtls_ecdh_read_public:buf <- [DW_OP_LLVM_entry_value 1] $r1
	@DEBUG_VALUE: mbedtls_ecdh_read_public:ctx <- [DW_OP_LLVM_entry_value 1] $r0
	.loc	4 561 5 is_stmt 0               @ ../../../ThirdParty/mbedTLS/library/ecdh.c:561:5
	pop	{r7, pc}
.Ltmp157:
.Lfunc_end18:
	.size	mbedtls_ecdh_read_public, .Lfunc_end18-mbedtls_ecdh_read_public
	.cfi_endproc
	.cantunwind
	.fnend
                                        @ -- End function
	.section	.text.ecdh_read_public_internal,"ax",%progbits
	.p2align	2                               @ -- Begin function ecdh_read_public_internal
	.type	ecdh_read_public_internal,%function
	.code	16                              @ @ecdh_read_public_internal
	.thumb_func
ecdh_read_public_internal:
.Lfunc_begin19:
	.loc	4 537 0 is_stmt 1               @ ../../../ThirdParty/mbedTLS/library/ecdh.c:537:0
	.fnstart
	.cfi_startproc
@ %bb.0:
	@DEBUG_VALUE: ecdh_read_public_internal:ctx <- $r0
	@DEBUG_VALUE: ecdh_read_public_internal:buf <- $r1
	@DEBUG_VALUE: ecdh_read_public_internal:blen <- $r2
	.save	{r4, r5, r7, lr}
	push	{r4, r5, r7, lr}
	.cfi_def_cfa_offset 16
	.cfi_offset lr, -4
	.cfi_offset r7, -8
	.cfi_offset r5, -12
	.cfi_offset r4, -16
	.pad	#8
	sub	sp, #8
	.cfi_def_cfa_offset 24
	mov	r4, r2
	mov	r5, r1
.Ltmp158:
	@DEBUG_VALUE: ecdh_read_public_internal:p <- $r5
	@DEBUG_VALUE: ecdh_read_public_internal:blen <- $r4
	@DEBUG_VALUE: ecdh_read_public_internal:buf <- $r5
	@DEBUG_VALUE: ecdh_read_public_internal:ctx <- $r0
	.loc	4 539 26 prologue_end           @ ../../../ThirdParty/mbedTLS/library/ecdh.c:539:26
	str	r1, [sp, #4]
.Ltmp159:
	@DEBUG_VALUE: ecdh_read_public_internal:p <- [DW_OP_plus_uconst 4, DW_OP_deref] $sp
	.loc	4 541 62                        @ ../../../ThirdParty/mbedTLS/library/ecdh.c:541:62
	mov	r1, r0
	adds	r1, #172
	add	r2, sp, #4
	.loc	4 541 17 is_stmt 0              @ ../../../ThirdParty/mbedTLS/library/ecdh.c:541:17
	mov	r3, r4
	bl	mbedtls_ecp_tls_read_point
.Ltmp160:
	@DEBUG_VALUE: ecdh_read_public_internal:ctx <- [DW_OP_LLVM_entry_value 1] $r0
	@DEBUG_VALUE: ecdh_read_public_internal:ret <- $r0
	.loc	4 541 9                         @ ../../../ThirdParty/mbedTLS/library/ecdh.c:541:9
	ldr	r1, [sp, #4]
	subs	r1, r1, r5
	cmp	r1, r4
	beq	.LBB19_2
.Ltmp161:
@ %bb.1:
	@DEBUG_VALUE: ecdh_read_public_internal:buf <- $r5
	@DEBUG_VALUE: ecdh_read_public_internal:blen <- $r4
	@DEBUG_VALUE: ecdh_read_public_internal:ret <- $r0
	@DEBUG_VALUE: ecdh_read_public_internal:p <- [DW_OP_plus_uconst 4, DW_OP_deref] $sp
	@DEBUG_VALUE: ecdh_read_public_internal:ctx <- [DW_OP_LLVM_entry_value 1] $r0
	.loc	4 0 9                           @ ../../../ThirdParty/mbedTLS/library/ecdh.c:0:9
	ldr	r1, __arm_cp.19_0
	.loc	4 541 9                         @ ../../../ThirdParty/mbedTLS/library/ecdh.c:541:9
	cbz	r0, .LBB19_4
	b	.LBB19_3
.Ltmp162:
.LBB19_2:
	@DEBUG_VALUE: ecdh_read_public_internal:buf <- $r5
	@DEBUG_VALUE: ecdh_read_public_internal:blen <- $r4
	@DEBUG_VALUE: ecdh_read_public_internal:ret <- $r0
	@DEBUG_VALUE: ecdh_read_public_internal:p <- [DW_OP_plus_uconst 4, DW_OP_deref] $sp
	@DEBUG_VALUE: ecdh_read_public_internal:ctx <- [DW_OP_LLVM_entry_value 1] $r0
	.loc	4 0 9                           @ ../../../ThirdParty/mbedTLS/library/ecdh.c:0:9
	movs	r1, #0
	.loc	4 541 9                         @ ../../../ThirdParty/mbedTLS/library/ecdh.c:541:9
	cbz	r0, .LBB19_4
.Ltmp163:
.LBB19_3:
	@DEBUG_VALUE: ecdh_read_public_internal:buf <- $r5
	@DEBUG_VALUE: ecdh_read_public_internal:blen <- $r4
	@DEBUG_VALUE: ecdh_read_public_internal:ret <- $r0
	@DEBUG_VALUE: ecdh_read_public_internal:p <- [DW_OP_plus_uconst 4, DW_OP_deref] $sp
	@DEBUG_VALUE: ecdh_read_public_internal:ctx <- [DW_OP_LLVM_entry_value 1] $r0
	mov	r1, r0
.Ltmp164:
.LBB19_4:
	@DEBUG_VALUE: ecdh_read_public_internal:buf <- $r5
	@DEBUG_VALUE: ecdh_read_public_internal:blen <- $r4
	@DEBUG_VALUE: ecdh_read_public_internal:ret <- $r0
	@DEBUG_VALUE: ecdh_read_public_internal:p <- [DW_OP_plus_uconst 4, DW_OP_deref] $sp
	@DEBUG_VALUE: ecdh_read_public_internal:ctx <- [DW_OP_LLVM_entry_value 1] $r0
	.loc	4 549 1 is_stmt 1               @ ../../../ThirdParty/mbedTLS/library/ecdh.c:549:1
	mov	r0, r1
.Ltmp165:
	add	sp, #8
.Ltmp166:
	pop	{r4, r5, r7, pc}
.Ltmp167:
	.p2align	2
@ %bb.5:
	.loc	4 0 1 is_stmt 0                 @ ../../../ThirdParty/mbedTLS/library/ecdh.c:0:1
__arm_cp.19_0:
	.long	4294946944                      @ 0xffffb080
.Lcpi_end5:
	.size	__arm_cp.19_0, .Lcpi_end5-__arm_cp.19_0
.Lfunc_end19:
	.size	ecdh_read_public_internal, .Lfunc_end19-ecdh_read_public_internal
	.cfi_endproc
	.cantunwind
	.fnend
                                        @ -- End function
	.section	.text.mbedtls_ecdh_calc_secret,"ax",%progbits
	.hidden	mbedtls_ecdh_calc_secret        @ -- Begin function mbedtls_ecdh_calc_secret
	.globl	mbedtls_ecdh_calc_secret
	.p2align	1
	.type	mbedtls_ecdh_calc_secret,%function
	.code	16                              @ @mbedtls_ecdh_calc_secret
	.thumb_func
mbedtls_ecdh_calc_secret:
.Lfunc_begin20:
	.loc	4 627 0 is_stmt 1               @ ../../../ThirdParty/mbedTLS/library/ecdh.c:627:0
	.fnstart
	.cfi_startproc
@ %bb.0:
	@DEBUG_VALUE: mbedtls_ecdh_calc_secret:ctx <- $r0
	@DEBUG_VALUE: mbedtls_ecdh_calc_secret:ctx <- $r0
	@DEBUG_VALUE: mbedtls_ecdh_calc_secret:olen <- $r1
	@DEBUG_VALUE: mbedtls_ecdh_calc_secret:olen <- $r1
	@DEBUG_VALUE: mbedtls_ecdh_calc_secret:buf <- $r2
	@DEBUG_VALUE: mbedtls_ecdh_calc_secret:buf <- $r2
	@DEBUG_VALUE: mbedtls_ecdh_calc_secret:blen <- $r3
	@DEBUG_VALUE: mbedtls_ecdh_calc_secret:blen <- $r3
	.save	{r4, lr}
	push	{r4, lr}
	.cfi_def_cfa_offset 8
	.cfi_offset lr, -4
	.cfi_offset r4, -8
	.pad	#8
	sub	sp, #8
	.cfi_def_cfa_offset 16
.Ltmp168:
	@DEBUG_VALUE: mbedtls_ecdh_calc_secret:f_rng <- [DW_OP_plus_uconst 16] [$sp+0]
	@DEBUG_VALUE: mbedtls_ecdh_calc_secret:p_rng <- [DW_OP_plus_uconst 20] [$sp+0]
	@DEBUG_VALUE: mbedtls_ecdh_calc_secret:restart_enabled <- 0
	ldr	r4, [sp, #20]
.Ltmp169:
	.loc	4 638 13 prologue_end           @ ../../../ThirdParty/mbedTLS/library/ecdh.c:638:13
	str	r4, [sp, #4]
	ldr	r4, [sp, #16]
	str	r4, [sp]
	@DEBUG_VALUE: mbedtls_ecdh_calc_secret:blen <- $r3
	@DEBUG_VALUE: mbedtls_ecdh_calc_secret:buf <- $r2
	@DEBUG_VALUE: mbedtls_ecdh_calc_secret:olen <- $r1
	@DEBUG_VALUE: mbedtls_ecdh_calc_secret:ctx <- $r0
	bl	ecdh_calc_secret_internal
.Ltmp170:
	@DEBUG_VALUE: mbedtls_ecdh_calc_secret:blen <- [DW_OP_LLVM_entry_value 1] $r3
	@DEBUG_VALUE: mbedtls_ecdh_calc_secret:buf <- [DW_OP_LLVM_entry_value 1] $r2
	@DEBUG_VALUE: mbedtls_ecdh_calc_secret:olen <- [DW_OP_LLVM_entry_value 1] $r1
	@DEBUG_VALUE: mbedtls_ecdh_calc_secret:ctx <- [DW_OP_LLVM_entry_value 1] $r0
	.loc	4 638 5 is_stmt 0               @ ../../../ThirdParty/mbedTLS/library/ecdh.c:638:5
	add	sp, #8
.Ltmp171:
	pop	{r4, pc}
.Ltmp172:
.Lfunc_end20:
	.size	mbedtls_ecdh_calc_secret, .Lfunc_end20-mbedtls_ecdh_calc_secret
	.cfi_endproc
	.cantunwind
	.fnend
                                        @ -- End function
	.section	.text.ecdh_calc_secret_internal,"ax",%progbits
	.p2align	2                               @ -- Begin function ecdh_calc_secret_internal
	.type	ecdh_calc_secret_internal,%function
	.code	16                              @ @ecdh_calc_secret_internal
	.thumb_func
ecdh_calc_secret_internal:
.Lfunc_begin21:
	.loc	4 582 0 is_stmt 1               @ ../../../ThirdParty/mbedTLS/library/ecdh.c:582:0
	.fnstart
	.cfi_startproc
@ %bb.0:
	@DEBUG_VALUE: ecdh_calc_secret_internal:ctx <- $r0
	@DEBUG_VALUE: ecdh_calc_secret_internal:olen <- $r1
	@DEBUG_VALUE: ecdh_calc_secret_internal:buf <- $r2
	@DEBUG_VALUE: ecdh_calc_secret_internal:blen <- $r3
	.save	{r4, r5, r6, r7, lr}
	push	{r4, r5, r6, r7, lr}
	.cfi_def_cfa_offset 20
	.cfi_offset lr, -4
	.cfi_offset r7, -8
	.cfi_offset r6, -12
	.cfi_offset r5, -16
	.cfi_offset r4, -20
	.pad	#20
	sub	sp, #20
	.cfi_def_cfa_offset 40
	ldr	r5, __arm_cp.21_0
	@DEBUG_VALUE: ecdh_calc_secret_internal:restart_enabled <- undef
.Ltmp173:
	@DEBUG_VALUE: ecdh_calc_secret_internal:p_rng <- [DW_OP_plus_uconst 44] [$sp+0]
	@DEBUG_VALUE: ecdh_calc_secret_internal:f_rng <- [DW_OP_plus_uconst 40] [$sp+0]
	@DEBUG_VALUE: ecdh_calc_secret_internal:blen <- $r3
	@DEBUG_VALUE: ecdh_calc_secret_internal:buf <- $r2
	@DEBUG_VALUE: ecdh_calc_secret_internal:olen <- $r1
	@DEBUG_VALUE: ecdh_calc_secret_internal:ctx <- $r0
	.loc	4 588 21 prologue_end           @ ../../../ThirdParty/mbedTLS/library/ecdh.c:588:21
	cbz	r0, .LBB21_5
.Ltmp174:
@ %bb.1:
	@DEBUG_VALUE: ecdh_calc_secret_internal:blen <- $r3
	@DEBUG_VALUE: ecdh_calc_secret_internal:buf <- $r2
	@DEBUG_VALUE: ecdh_calc_secret_internal:olen <- $r1
	@DEBUG_VALUE: ecdh_calc_secret_internal:ctx <- $r0
	@DEBUG_VALUE: ecdh_calc_secret_internal:f_rng <- [DW_OP_plus_uconst 40] [$sp+0]
	@DEBUG_VALUE: ecdh_calc_secret_internal:p_rng <- [DW_OP_plus_uconst 44] [$sp+0]
	@DEBUG_VALUE: ecdh_calc_secret_internal:blen <- $r3
	.loc	4 0 21 is_stmt 0                @ ../../../ThirdParty/mbedTLS/library/ecdh.c:0:21
	mov	r7, r0
.Ltmp175:
	@DEBUG_VALUE: ecdh_calc_secret_internal:ctx <- $r7
	.loc	4 588 33                        @ ../../../ThirdParty/mbedTLS/library/ecdh.c:588:33
	ldr	r0, [r0, #88]
.Ltmp176:
	.loc	4 588 9                         @ ../../../ThirdParty/mbedTLS/library/ecdh.c:588:9
	cbz	r0, .LBB21_5
.Ltmp177:
@ %bb.2:
	@DEBUG_VALUE: ecdh_calc_secret_internal:ctx <- $r7
	@DEBUG_VALUE: ecdh_calc_secret_internal:blen <- $r3
	@DEBUG_VALUE: ecdh_calc_secret_internal:buf <- $r2
	@DEBUG_VALUE: ecdh_calc_secret_internal:olen <- $r1
	@DEBUG_VALUE: ecdh_calc_secret_internal:f_rng <- [DW_OP_plus_uconst 40] [$sp+0]
	@DEBUG_VALUE: ecdh_calc_secret_internal:p_rng <- [DW_OP_plus_uconst 44] [$sp+0]
	.loc	4 0 9                           @ ../../../ThirdParty/mbedTLS/library/ecdh.c:0:9
	mov	r4, r3
.Ltmp178:
	@DEBUG_VALUE: ecdh_calc_secret_internal:blen <- $r4
	str	r1, [sp, #12]                   @ 4-byte Spill
.Ltmp179:
	@DEBUG_VALUE: ecdh_calc_secret_internal:olen <- [DW_OP_plus_uconst 12] [$sp+0]
	str	r2, [sp, #16]                   @ 4-byte Spill
.Ltmp180:
	@DEBUG_VALUE: ecdh_calc_secret_internal:buf <- [DW_OP_plus_uconst 16] [$sp+0]
	ldr	r0, [sp, #44]
	ldr	r1, [sp, #40]
.Ltmp181:
	.loc	4 606 17 is_stmt 1              @ ../../../ThirdParty/mbedTLS/library/ecdh.c:606:17
	str	r1, [sp]
	str	r0, [sp, #4]
	.loc	4 606 63 is_stmt 0              @ ../../../ThirdParty/mbedTLS/library/ecdh.c:606:63
	mov	r6, r7
	adds	r6, #208
	.loc	4 606 72                        @ ../../../ThirdParty/mbedTLS/library/ecdh.c:606:72
	mov	r2, r7
	adds	r2, #172
	.loc	4 607 23 is_stmt 1              @ ../../../ThirdParty/mbedTLS/library/ecdh.c:607:23
	mov	r3, r7
	adds	r3, #124
	.loc	4 606 17                        @ ../../../ThirdParty/mbedTLS/library/ecdh.c:606:17
	mov	r0, r7
	mov	r1, r6
	bl	mbedtls_ecdh_compute_shared
.Ltmp182:
	@DEBUG_VALUE: ecdh_calc_secret_internal:ret <- $r0
	.loc	4 606 9 is_stmt 0               @ ../../../ThirdParty/mbedTLS/library/ecdh.c:606:9
	cbnz	r0, .LBB21_4
.Ltmp183:
@ %bb.3:
	@DEBUG_VALUE: ecdh_calc_secret_internal:buf <- [DW_OP_plus_uconst 16] [$sp+0]
	@DEBUG_VALUE: ecdh_calc_secret_internal:olen <- [DW_OP_plus_uconst 12] [$sp+0]
	@DEBUG_VALUE: ecdh_calc_secret_internal:ctx <- $r7
	@DEBUG_VALUE: ecdh_calc_secret_internal:blen <- $r4
	@DEBUG_VALUE: ecdh_calc_secret_internal:ret <- $r0
	@DEBUG_VALUE: ecdh_calc_secret_internal:f_rng <- [DW_OP_plus_uconst 40] [$sp+0]
	@DEBUG_VALUE: ecdh_calc_secret_internal:p_rng <- [DW_OP_plus_uconst 44] [$sp+0]
	.loc	4 613 9 is_stmt 1               @ ../../../ThirdParty/mbedTLS/library/ecdh.c:613:9
	mov	r0, r6
.Ltmp184:
	bl	mbedtls_mpi_size
.Ltmp185:
	.loc	4 613 9 is_stmt 0               @ ../../../ThirdParty/mbedTLS/library/ecdh.c:613:9
	cmp	r0, r4
	.loc	4 0 0                           @ ../../../ThirdParty/mbedTLS/library/ecdh.c:0:0
	mov	r0, r5
	.loc	4 613 9                         @ ../../../ThirdParty/mbedTLS/library/ecdh.c:613:9
	bls	.LBB21_6
.Ltmp186:
.LBB21_4:
	@DEBUG_VALUE: ecdh_calc_secret_internal:buf <- [DW_OP_plus_uconst 16] [$sp+0]
	@DEBUG_VALUE: ecdh_calc_secret_internal:olen <- [DW_OP_plus_uconst 12] [$sp+0]
	@DEBUG_VALUE: ecdh_calc_secret_internal:ctx <- $r7
	@DEBUG_VALUE: ecdh_calc_secret_internal:blen <- $r4
	@DEBUG_VALUE: ecdh_calc_secret_internal:f_rng <- [DW_OP_plus_uconst 40] [$sp+0]
	@DEBUG_VALUE: ecdh_calc_secret_internal:p_rng <- [DW_OP_plus_uconst 44] [$sp+0]
	.loc	4 618 1 is_stmt 1               @ ../../../ThirdParty/mbedTLS/library/ecdh.c:618:1
	add	sp, #20
.Ltmp187:
	pop	{r4, r5, r6, r7, pc}
.Ltmp188:
.LBB21_5:
	@DEBUG_VALUE: ecdh_calc_secret_internal:blen <- $r3
	@DEBUG_VALUE: ecdh_calc_secret_internal:buf <- $r2
	@DEBUG_VALUE: ecdh_calc_secret_internal:olen <- $r1
	@DEBUG_VALUE: ecdh_calc_secret_internal:f_rng <- [DW_OP_plus_uconst 40] [$sp+0]
	@DEBUG_VALUE: ecdh_calc_secret_internal:p_rng <- [DW_OP_plus_uconst 44] [$sp+0]
	.loc	4 0 0 is_stmt 0                 @ ../../../ThirdParty/mbedTLS/library/ecdh.c:0:0
	mov	r0, r5
	.loc	4 618 1                         @ ../../../ThirdParty/mbedTLS/library/ecdh.c:618:1
	add	sp, #20
.Ltmp189:
	pop	{r4, r5, r6, r7, pc}
.Ltmp190:
.LBB21_6:
	@DEBUG_VALUE: ecdh_calc_secret_internal:buf <- [DW_OP_plus_uconst 16] [$sp+0]
	@DEBUG_VALUE: ecdh_calc_secret_internal:olen <- [DW_OP_plus_uconst 12] [$sp+0]
	@DEBUG_VALUE: ecdh_calc_secret_internal:ctx <- $r7
	@DEBUG_VALUE: ecdh_calc_secret_internal:blen <- $r4
	@DEBUG_VALUE: ecdh_calc_secret_internal:f_rng <- [DW_OP_plus_uconst 40] [$sp+0]
	@DEBUG_VALUE: ecdh_calc_secret_internal:p_rng <- [DW_OP_plus_uconst 44] [$sp+0]
	.loc	4 616 22 is_stmt 1              @ ../../../ThirdParty/mbedTLS/library/ecdh.c:616:22
	ldr	r0, [r7, #88]
	.loc	4 616 32 is_stmt 0              @ ../../../ThirdParty/mbedTLS/library/ecdh.c:616:32
	lsls	r1, r0, #29
	.loc	4 616 28                        @ ../../../ThirdParty/mbedTLS/library/ecdh.c:616:28
	lsrs	r2, r0, #3
	.loc	4 616 32                        @ ../../../ThirdParty/mbedTLS/library/ecdh.c:616:32
	cbz	r1, .LBB21_8
.Ltmp191:
@ %bb.7:
	@DEBUG_VALUE: ecdh_calc_secret_internal:buf <- [DW_OP_plus_uconst 16] [$sp+0]
	@DEBUG_VALUE: ecdh_calc_secret_internal:olen <- [DW_OP_plus_uconst 12] [$sp+0]
	@DEBUG_VALUE: ecdh_calc_secret_internal:ctx <- $r7
	@DEBUG_VALUE: ecdh_calc_secret_internal:blen <- $r4
	@DEBUG_VALUE: ecdh_calc_secret_internal:f_rng <- [DW_OP_plus_uconst 40] [$sp+0]
	@DEBUG_VALUE: ecdh_calc_secret_internal:p_rng <- [DW_OP_plus_uconst 44] [$sp+0]
	.loc	4 0 32                          @ ../../../ThirdParty/mbedTLS/library/ecdh.c:0:32
	adds	r2, r2, #1
.Ltmp192:
.LBB21_8:
	@DEBUG_VALUE: ecdh_calc_secret_internal:buf <- [DW_OP_plus_uconst 16] [$sp+0]
	@DEBUG_VALUE: ecdh_calc_secret_internal:olen <- [DW_OP_plus_uconst 12] [$sp+0]
	@DEBUG_VALUE: ecdh_calc_secret_internal:ctx <- $r7
	@DEBUG_VALUE: ecdh_calc_secret_internal:blen <- $r4
	@DEBUG_VALUE: ecdh_calc_secret_internal:f_rng <- [DW_OP_plus_uconst 40] [$sp+0]
	@DEBUG_VALUE: ecdh_calc_secret_internal:p_rng <- [DW_OP_plus_uconst 44] [$sp+0]
	ldr	r0, [sp, #12]                   @ 4-byte Reload
.Ltmp193:
	@DEBUG_VALUE: ecdh_calc_secret_internal:olen <- $r0
	.loc	4 616 11                        @ ../../../ThirdParty/mbedTLS/library/ecdh.c:616:11
	str	r2, [r0]
	.loc	4 617 12 is_stmt 1              @ ../../../ThirdParty/mbedTLS/library/ecdh.c:617:12
	mov	r0, r6
.Ltmp194:
	@DEBUG_VALUE: ecdh_calc_secret_internal:olen <- [DW_OP_LLVM_entry_value 1] $r1
	ldr	r1, [sp, #16]                   @ 4-byte Reload
.Ltmp195:
	@DEBUG_VALUE: ecdh_calc_secret_internal:buf <- $r1
	bl	mbedtls_mpi_write_binary
.Ltmp196:
	@DEBUG_VALUE: ecdh_calc_secret_internal:buf <- [DW_OP_LLVM_entry_value 1] $r2
	.loc	4 618 1                         @ ../../../ThirdParty/mbedTLS/library/ecdh.c:618:1
	add	sp, #20
.Ltmp197:
	pop	{r4, r5, r6, r7, pc}
.Ltmp198:
	.p2align	2
@ %bb.9:
	.loc	4 0 1 is_stmt 0                 @ ../../../ThirdParty/mbedTLS/library/ecdh.c:0:1
__arm_cp.21_0:
	.long	4294946944                      @ 0xffffb080
.Lcpi_end6:
	.size	__arm_cp.21_0, .Lcpi_end6-__arm_cp.21_0
.Lfunc_end21:
	.size	ecdh_calc_secret_internal, .Lfunc_end21-ecdh_calc_secret_internal
	.cfi_endproc
	.cantunwind
	.fnend
                                        @ -- End function
	.file	5 "C:\\Users\\shw26\\OneDrive\\Desktop\\2021\\2021-1\\\354\272\241\354\212\244\355\206\244\353\224\224\354\236\220\354\235\2702\\Nuvoton\\M2351_BSP_v3.00.004\\M2351Series_BSP_CMSIS_V3.00.004\\MyProject\\PulseMonitoring\\Secure" "../../../ThirdParty/mbedTLS/include/mbedtls/bignum.h"
	.file	6 "C:\\" "Keil_v5\\ARM\\ARMCLANG\\Bin\\..\\include\\stdint.h"
	.section	".note.GNU-stack","",%progbits
	.eabi_attribute	30, 1	@ Tag_ABI_optimization_goals
	.ARM_attribute	16, 1	@ Tag_AV_eba