	.text
	.syntax unified
	.eabi_attribute	67, "2.09"	@ Tag_conformance
	.cpu	cortex-m23
	.eabi_attribute	6, 16	@ Tag_CPU_arch
	.eabi_attribute	7, 77	@ Tag_CPU_arch_profile
	.eabi_attribute	8, 0	@ Tag_ARM_ISA_use
	.eabi_attribute	9, 3	@ Tag_THUMB_ISA_use
	.eabi_attribute	34, 0	@ Tag_CPU_unaligned_access
	.eabi_attribute	17, 1	@ Tag_ABI_PCS_GOT_use
	.eabi_attribute	20, 2	@ Tag_ABI_FP_denormal
	.eabi_attribute	21, 0	@ Tag_ABI_FP_exceptions
	.eabi_attribute	23, 1	@ Tag_ABI_FP_number_model
	.eabi_attribute	24, 1	@ Tag_ABI_align_needed
	.eabi_attribute	25, 1	@ Tag_ABI_align_preserved
	.eabi_attribute	38, 1	@ Tag_ABI_FP_16bit_format
	.eabi_attribute	18, 2	@ Tag_ABI_PCS_wchar_t
	.eabi_attribute	26, 1	@ Tag_ABI_enum_size
	.eabi_attribute	14, 0	@ Tag_ABI_PCS_R9_use
	.file	"ecdsa.c"
	.file	1 "C:\\Users\\shw26\\OneDrive\\Desktop\\2021\\2021-1\\\354\272\241\354\212\244\355\206\244\353\224\224\354\236\220\354\235\2702\\Nuvoton\\M2351_BSP_v3.00.004\\M2351Series_BSP_CMSIS_V3.00.004\\MyProject\\PulseMonitoring\\Secure" "../../../ThirdParty/mbedTLS/include/mbedtls/ecp.h"
	.file	2 "C:\\Users\\shw26\\OneDrive\\Desktop\\2021\\2021-1\\\354\272\241\354\212\244\355\206\244\353\224\224\354\236\220\354\235\2702\\Nuvoton\\M2351_BSP_v3.00.004\\M2351Series_BSP_CMSIS_V3.00.004\\MyProject\\PulseMonitoring\\Secure" "../../../ThirdParty/mbedTLS/include/mbedtls/md.h"
	.section	.text.mbedtls_ecdsa_sign,"ax",%progbits
	.hidden	mbedtls_ecdsa_sign              @ -- Begin function mbedtls_ecdsa_sign
	.globl	mbedtls_ecdsa_sign
	.p2align	1
	.type	mbedtls_ecdsa_sign,%function
	.code	16                              @ @mbedtls_ecdsa_sign
	.thumb_func
mbedtls_ecdsa_sign:
.Lfunc_begin0:
	.file	3 "C:\\Users\\shw26\\OneDrive\\Desktop\\2021\\2021-1\\\354\272\241\354\212\244\355\206\244\353\224\224\354\236\220\354\235\2702\\Nuvoton\\M2351_BSP_v3.00.004\\M2351Series_BSP_CMSIS_V3.00.004\\MyProject\\PulseMonitoring\\Secure" "../../../ThirdParty/mbedTLS/library/ecdsa.c"
	.loc	3 391 0                         @ ../../../ThirdParty/mbedTLS/library/ecdsa.c:391:0
	.fnstart
	.cfi_sections .debug_frame
	.cfi_startproc
@ %bb.0:
	@DEBUG_VALUE: mbedtls_ecdsa_sign:grp <- $r0
	@DEBUG_VALUE: mbedtls_ecdsa_sign:grp <- $r0
	@DEBUG_VALUE: mbedtls_ecdsa_sign:r <- $r1
	@DEBUG_VALUE: mbedtls_ecdsa_sign:r <- $r1
	@DEBUG_VALUE: mbedtls_ecdsa_sign:s <- $r2
	@DEBUG_VALUE: mbedtls_ecdsa_sign:s <- $r2
	@DEBUG_VALUE: mbedtls_ecdsa_sign:d <- $r3
	@DEBUG_VALUE: mbedtls_ecdsa_sign:d <- $r3
	.save	{r4, lr}
	push	{r4, lr}
	.cfi_def_cfa_offset 8
	.cfi_offset lr, -4
	.cfi_offset r4, -8
	.pad	#16
	sub	sp, #16
	.cfi_def_cfa_offset 24
.Ltmp0:
	@DEBUG_VALUE: mbedtls_ecdsa_sign:buf <- [DW_OP_plus_uconst 24] [$sp+0]
	@DEBUG_VALUE: mbedtls_ecdsa_sign:blen <- [DW_OP_plus_uconst 28] [$sp+0]
	@DEBUG_VALUE: mbedtls_ecdsa_sign:f_rng <- [DW_OP_plus_uconst 32] [$sp+0]
	@DEBUG_VALUE: mbedtls_ecdsa_sign:p_rng <- [DW_OP_plus_uconst 36] [$sp+0]
	ldr	r4, [sp, #36]
.Ltmp1:
	.loc	3 399 13 prologue_end           @ ../../../ThirdParty/mbedTLS/library/ecdsa.c:399:13
	str	r4, [sp, #12]
	ldr	r4, [sp, #32]
	str	r4, [sp, #8]
	ldr	r4, [sp, #28]
	str	r4, [sp, #4]
	ldr	r4, [sp, #24]
	str	r4, [sp]
	@DEBUG_VALUE: mbedtls_ecdsa_sign:d <- $r3
	@DEBUG_VALUE: mbedtls_ecdsa_sign:s <- $r2
	@DEBUG_VALUE: mbedtls_ecdsa_sign:r <- $r1
	@DEBUG_VALUE: mbedtls_ecdsa_sign:grp <- $r0
	bl	ecdsa_sign_restartable
.Ltmp2:
	@DEBUG_VALUE: mbedtls_ecdsa_sign:d <- [DW_OP_LLVM_entry_value 1] $r3
	@DEBUG_VALUE: mbedtls_ecdsa_sign:s <- [DW_OP_LLVM_entry_value 1] $r2
	@DEBUG_VALUE: mbedtls_ecdsa_sign:r <- [DW_OP_LLVM_entry_value 1] $r1
	@DEBUG_VALUE: mbedtls_ecdsa_sign:grp <- [DW_OP_LLVM_entry_value 1] $r0
	.loc	3 399 5 is_stmt 0               @ ../../../ThirdParty/mbedTLS/library/ecdsa.c:399:5
	add	sp, #16
.Ltmp3:
	pop	{r4, pc}
.Ltmp4:
.Lfunc_end0:
	.size	mbedtls_ecdsa_sign, .Lfunc_end0-mbedtls_ecdsa_sign
	.cfi_endproc
	.cantunwind
	.fnend
                                        @ -- End function
	.section	.text.ecdsa_sign_restartable,"ax",%progbits
	.p2align	2                               @ -- Begin function ecdsa_sign_restartable
	.type	ecdsa_sign_restartable,%function
	.code	16                              @ @ecdsa_sign_restartable
	.thumb_func
ecdsa_sign_restartable:
.Lfunc_begin1:
	.loc	3 258 0 is_stmt 1               @ ../../../ThirdParty/mbedTLS/library/ecdsa.c:258:0
	.fnstart
	.cfi_startproc
@ %bb.0:
	@DEBUG_VALUE: ecdsa_sign_restartable:grp <- $r0
	@DEBUG_VALUE: ecdsa_sign_restartable:r <- $r1
	@DEBUG_VALUE: ecdsa_sign_restartable:s <- $r2
	@DEBUG_VALUE: ecdsa_sign_restartable:d <- $r3
	@DEBUG_VALUE: ecdsa_sign_restartable:rs_ctx <- undef
	.save	{r4, r5, r6, r7, lr}
	push	{r4, r5, r6, r7, lr}
	.cfi_def_cfa_offset 20
	.cfi_offset lr, -4
	.cfi_offset r7, -8
	.cfi_offset r6, -12
	.cfi_offset r5, -16
	.cfi_offset r4, -20
	.pad	#140
	sub	sp, #140
	.cfi_def_cfa_offset 160
.Ltmp5:
	@DEBUG_VALUE: ecdsa_sign_restartable:pr <- undef
	mov	r6, r0
.Ltmp6:
	@DEBUG_VALUE: ecdsa_sign_restartable:pk <- [DW_OP_plus_uconst 84, DW_OP_stack_value] $sp
	@DEBUG_VALUE: ecdsa_sign_restartable:p_key_tries <- [DW_OP_plus_uconst 136, DW_OP_stack_value] $sp
	@DEBUG_VALUE: ecdsa_sign_restartable:p_sign_tries <- [DW_OP_plus_uconst 132, DW_OP_stack_value] $sp
	@DEBUG_VALUE: ecdsa_sign_restartable:p_rng <- [DW_OP_plus_uconst 172] [$sp+0]
	@DEBUG_VALUE: ecdsa_sign_restartable:f_rng <- [DW_OP_plus_uconst 168] [$sp+0]
	@DEBUG_VALUE: ecdsa_sign_restartable:blen <- [DW_OP_plus_uconst 164] [$sp+0]
	@DEBUG_VALUE: ecdsa_sign_restartable:buf <- [DW_OP_plus_uconst 160] [$sp+0]
	@DEBUG_VALUE: ecdsa_sign_restartable:d <- $r3
	@DEBUG_VALUE: ecdsa_sign_restartable:s <- $r2
	@DEBUG_VALUE: ecdsa_sign_restartable:r <- $r1
	@DEBUG_VALUE: ecdsa_sign_restartable:grp <- $r6
	.loc	3 266 16 prologue_end           @ ../../../ThirdParty/mbedTLS/library/ecdsa.c:266:16
	ldr	r0, [r0, #84]
.Ltmp7:
	.loc	3 266 9 is_stmt 0               @ ../../../ThirdParty/mbedTLS/library/ecdsa.c:266:9
	cmp	r0, #0
	bne	.LBB1_1
	b	.LBB1_21
.Ltmp8:
.LBB1_1:
	@DEBUG_VALUE: ecdsa_sign_restartable:grp <- $r6
	@DEBUG_VALUE: ecdsa_sign_restartable:d <- $r3
	@DEBUG_VALUE: ecdsa_sign_restartable:s <- $r2
	@DEBUG_VALUE: ecdsa_sign_restartable:r <- $r1
	@DEBUG_VALUE: ecdsa_sign_restartable:buf <- [DW_OP_plus_uconst 160] [$sp+0]
	@DEBUG_VALUE: ecdsa_sign_restartable:blen <- [DW_OP_plus_uconst 164] [$sp+0]
	@DEBUG_VALUE: ecdsa_sign_restartable:f_rng <- [DW_OP_plus_uconst 168] [$sp+0]
	@DEBUG_VALUE: ecdsa_sign_restartable:p_rng <- [DW_OP_plus_uconst 172] [$sp+0]
	@DEBUG_VALUE: ecdsa_sign_restartable:p_sign_tries <- [DW_OP_plus_uconst 132, DW_OP_stack_value] $sp
	@DEBUG_VALUE: ecdsa_sign_restartable:p_key_tries <- [DW_OP_plus_uconst 136, DW_OP_stack_value] $sp
	@DEBUG_VALUE: ecdsa_sign_restartable:pk <- [DW_OP_plus_uconst 84, DW_OP_stack_value] $sp
	.loc	3 0 9                           @ ../../../ThirdParty/mbedTLS/library/ecdsa.c:0:9
	mov	r5, r3
.Ltmp9:
	@DEBUG_VALUE: ecdsa_sign_restartable:d <- $r5
	mov	r7, r1
.Ltmp10:
	@DEBUG_VALUE: ecdsa_sign_restartable:r <- $r7
	str	r2, [sp, #28]                   @ 4-byte Spill
.Ltmp11:
	@DEBUG_VALUE: ecdsa_sign_restartable:s <- [DW_OP_plus_uconst 28] [$sp+0]
	movs	r1, #1
.Ltmp12:
	.loc	3 270 9 is_stmt 1               @ ../../../ThirdParty/mbedTLS/library/ecdsa.c:270:9
	mov	r0, r3
	bl	mbedtls_mpi_cmp_int
	ldr	r4, __arm_cp.1_1
.Ltmp13:
	.loc	3 0 0 is_stmt 0                 @ ../../../ThirdParty/mbedTLS/library/ecdsa.c:0:0
	adds	r4, #128
.Ltmp14:
	.loc	3 270 41                        @ ../../../ThirdParty/mbedTLS/library/ecdsa.c:270:41
	cmp	r0, #0
	bpl	.LBB1_2
	b	.LBB1_25
.Ltmp15:
.LBB1_2:
	@DEBUG_VALUE: ecdsa_sign_restartable:s <- [DW_OP_plus_uconst 28] [$sp+0]
	@DEBUG_VALUE: ecdsa_sign_restartable:r <- $r7
	@DEBUG_VALUE: ecdsa_sign_restartable:grp <- $r6
	@DEBUG_VALUE: ecdsa_sign_restartable:d <- $r5
	@DEBUG_VALUE: ecdsa_sign_restartable:buf <- [DW_OP_plus_uconst 160] [$sp+0]
	@DEBUG_VALUE: ecdsa_sign_restartable:blen <- [DW_OP_plus_uconst 164] [$sp+0]
	@DEBUG_VALUE: ecdsa_sign_restartable:f_rng <- [DW_OP_plus_uconst 168] [$sp+0]
	@DEBUG_VALUE: ecdsa_sign_restartable:p_rng <- [DW_OP_plus_uconst 172] [$sp+0]
	@DEBUG_VALUE: ecdsa_sign_restartable:p_sign_tries <- [DW_OP_plus_uconst 132, DW_OP_stack_value] $sp
	@DEBUG_VALUE: ecdsa_sign_restartable:p_key_tries <- [DW_OP_plus_uconst 136, DW_OP_stack_value] $sp
	@DEBUG_VALUE: ecdsa_sign_restartable:pk <- [DW_OP_plus_uconst 84, DW_OP_stack_value] $sp
	.loc	3 0 41                          @ ../../../ThirdParty/mbedTLS/library/ecdsa.c:0:41
	str	r7, [sp, #52]                   @ 4-byte Spill
.Ltmp16:
	@DEBUG_VALUE: ecdsa_sign_restartable:r <- [DW_OP_plus_uconst 52] [$sp+0]
	mov	r7, r6
	adds	r7, #76
	.loc	3 270 44                        @ ../../../ThirdParty/mbedTLS/library/ecdsa.c:270:44
	mov	r0, r5
	mov	r1, r7
	bl	mbedtls_mpi_cmp_mpi
.Ltmp17:
	.loc	3 270 9                         @ ../../../ThirdParty/mbedTLS/library/ecdsa.c:270:9
	cmp	r0, #0
	bmi	.LBB1_3
	b	.LBB1_25
.Ltmp18:
.LBB1_3:
	@DEBUG_VALUE: ecdsa_sign_restartable:r <- [DW_OP_plus_uconst 52] [$sp+0]
	@DEBUG_VALUE: ecdsa_sign_restartable:s <- [DW_OP_plus_uconst 28] [$sp+0]
	@DEBUG_VALUE: ecdsa_sign_restartable:grp <- $r6
	@DEBUG_VALUE: ecdsa_sign_restartable:d <- $r5
	@DEBUG_VALUE: ecdsa_sign_restartable:buf <- [DW_OP_plus_uconst 160] [$sp+0]
	@DEBUG_VALUE: ecdsa_sign_restartable:blen <- [DW_OP_plus_uconst 164] [$sp+0]
	@DEBUG_VALUE: ecdsa_sign_restartable:f_rng <- [DW_OP_plus_uconst 168] [$sp+0]
	@DEBUG_VALUE: ecdsa_sign_restartable:p_rng <- [DW_OP_plus_uconst 172] [$sp+0]
	@DEBUG_VALUE: ecdsa_sign_restartable:p_sign_tries <- [DW_OP_plus_uconst 132, DW_OP_stack_value] $sp
	@DEBUG_VALUE: ecdsa_sign_restartable:p_key_tries <- [DW_OP_plus_uconst 136, DW_OP_stack_value] $sp
	@DEBUG_VALUE: ecdsa_sign_restartable:pk <- [DW_OP_plus_uconst 84, DW_OP_stack_value] $sp
	.loc	3 0 9                           @ ../../../ThirdParty/mbedTLS/library/ecdsa.c:0:9
	str	r7, [sp, #40]                   @ 4-byte Spill
	str	r5, [sp, #12]                   @ 4-byte Spill
.Ltmp19:
	@DEBUG_VALUE: ecdsa_sign_restartable:d <- [DW_OP_plus_uconst 12] [$sp+0]
	ldr	r0, [sp, #172]
	str	r0, [sp, #44]                   @ 4-byte Spill
	ldr	r7, [sp, #168]
	ldr	r0, [sp, #164]
	str	r0, [sp, #20]                   @ 4-byte Spill
	ldr	r0, [sp, #160]
	.loc	3 273 5 is_stmt 1               @ ../../../ThirdParty/mbedTLS/library/ecdsa.c:273:5
	str	r0, [sp, #16]                   @ 4-byte Spill
	add	r0, sp, #96
	bl	mbedtls_ecp_point_init
	add	r0, sp, #84
	.loc	3 274 5                         @ ../../../ThirdParty/mbedTLS/library/ecdsa.c:274:5
	bl	mbedtls_mpi_init
	add	r0, sp, #72
	.loc	3 275 5                         @ ../../../ThirdParty/mbedTLS/library/ecdsa.c:275:5
	bl	mbedtls_mpi_init
	add	r0, sp, #60
	.loc	3 276 5                         @ ../../../ThirdParty/mbedTLS/library/ecdsa.c:276:5
	bl	mbedtls_mpi_init
	movs	r0, #0
.Ltmp20:
	@DEBUG_VALUE: ecdsa_sign_restartable:sign_tries <- 0
	.loc	3 0 5 is_stmt 0                 @ ../../../ThirdParty/mbedTLS/library/ecdsa.c:0:5
	str	r0, [sp, #48]                   @ 4-byte Spill
	.loc	3 297 19 is_stmt 1              @ ../../../ThirdParty/mbedTLS/library/ecdsa.c:297:19
	str	r0, [sp, #132]
.Ltmp21:
	.loc	3 0 0 is_stmt 0                 @ ../../../ThirdParty/mbedTLS/library/ecdsa.c:0:0
	mov	r0, r6
	adds	r0, #40
	str	r0, [sp, #36]                   @ 4-byte Spill
	add	r1, sp, #136
	add	r0, sp, #132
	mov	r5, r6
.Ltmp22:
	@DEBUG_VALUE: ecdsa_sign_restartable:grp <- $r5
	str	r7, [sp, #32]                   @ 4-byte Spill
.Ltmp23:
.LBB1_4:                                @ =>This Loop Header: Depth=1
                                        @     Child Loop BB1_6 Depth 2
	@DEBUG_VALUE: ecdsa_sign_restartable:grp <- $r5
	@DEBUG_VALUE: ecdsa_sign_restartable:buf <- [DW_OP_plus_uconst 160] [$sp+0]
	@DEBUG_VALUE: ecdsa_sign_restartable:blen <- [DW_OP_plus_uconst 164] [$sp+0]
	@DEBUG_VALUE: ecdsa_sign_restartable:f_rng <- [DW_OP_plus_uconst 168] [$sp+0]
	@DEBUG_VALUE: ecdsa_sign_restartable:p_rng <- [DW_OP_plus_uconst 172] [$sp+0]
	@DEBUG_VALUE: ecdsa_sign_restartable:pk <- [DW_OP_plus_uconst 84, DW_OP_stack_value] $sp
	@DEBUG_VALUE: ecdsa_sign_restartable:sign_tries <- 0
	@DEBUG_VALUE: ecdsa_sign_restartable:p_sign_tries <- $r0
	@DEBUG_VALUE: ecdsa_sign_restartable:p_key_tries <- $r1
	mov	r2, r0
.Ltmp24:
	@DEBUG_VALUE: ecdsa_sign_restartable:p_sign_tries <- $r2
	.loc	3 300 13 is_stmt 1              @ ../../../ThirdParty/mbedTLS/library/ecdsa.c:300:13
	ldm	r2!, {r0}
.Ltmp25:
	@DEBUG_VALUE: ecdsa_sign_restartable:p_sign_tries <- $r2
	.loc	3 0 13 is_stmt 0                @ ../../../ThirdParty/mbedTLS/library/ecdsa.c:0:13
	str	r2, [sp, #24]                   @ 4-byte Spill
.Ltmp26:
	@DEBUG_VALUE: ecdsa_sign_restartable:p_sign_tries <- [DW_OP_plus_uconst 24] [$sp+0]
	@DEBUG_VALUE: ecdsa_sign_restartable:p_sign_tries <- [DW_OP_plus_uconst 24] [$sp+0]
	@DEBUG_VALUE: ecdsa_sign_restartable:p_sign_tries <- [DW_OP_plus_uconst 24] [$sp+0]
	.loc	3 300 13                        @ ../../../ThirdParty/mbedTLS/library/ecdsa.c:300:13
	cmp	r0, #10
	bgt	.LBB1_23
.Ltmp27:
@ %bb.5:                                @   in Loop: Header=BB1_4 Depth=1
	@DEBUG_VALUE: ecdsa_sign_restartable:grp <- $r5
	@DEBUG_VALUE: ecdsa_sign_restartable:p_key_tries <- $r1
	@DEBUG_VALUE: ecdsa_sign_restartable:p_sign_tries <- [DW_OP_plus_uconst 24] [$sp+0]
	@DEBUG_VALUE: ecdsa_sign_restartable:buf <- [DW_OP_plus_uconst 160] [$sp+0]
	@DEBUG_VALUE: ecdsa_sign_restartable:blen <- [DW_OP_plus_uconst 164] [$sp+0]
	@DEBUG_VALUE: ecdsa_sign_restartable:f_rng <- [DW_OP_plus_uconst 168] [$sp+0]
	@DEBUG_VALUE: ecdsa_sign_restartable:p_rng <- [DW_OP_plus_uconst 172] [$sp+0]
	@DEBUG_VALUE: ecdsa_sign_restartable:pk <- [DW_OP_plus_uconst 84, DW_OP_stack_value] $sp
	@DEBUG_VALUE: ecdsa_sign_restartable:sign_tries <- 0
	.loc	3 310 22 is_stmt 1              @ ../../../ThirdParty/mbedTLS/library/ecdsa.c:310:22
	ldr	r0, [sp, #48]                   @ 4-byte Reload
	str	r0, [r1]
.Ltmp28:
.LBB1_6:                                @   Parent Loop BB1_4 Depth=1
                                        @ =>  This Inner Loop Header: Depth=2
	@DEBUG_VALUE: ecdsa_sign_restartable:grp <- $r5
	@DEBUG_VALUE: ecdsa_sign_restartable:p_key_tries <- $r1
	@DEBUG_VALUE: ecdsa_sign_restartable:p_sign_tries <- [DW_OP_plus_uconst 24] [$sp+0]
	@DEBUG_VALUE: ecdsa_sign_restartable:buf <- [DW_OP_plus_uconst 160] [$sp+0]
	@DEBUG_VALUE: ecdsa_sign_restartable:blen <- [DW_OP_plus_uconst 164] [$sp+0]
	@DEBUG_VALUE: ecdsa_sign_restartable:f_rng <- [DW_OP_plus_uconst 168] [$sp+0]
	@DEBUG_VALUE: ecdsa_sign_restartable:p_rng <- [DW_OP_plus_uconst 172] [$sp+0]
	@DEBUG_VALUE: ecdsa_sign_restartable:pk <- [DW_OP_plus_uconst 84, DW_OP_stack_value] $sp
	@DEBUG_VALUE: ecdsa_sign_restartable:sign_tries <- 0
	@DEBUG_VALUE: ecdsa_sign_restartable:p_key_tries <- $r1
	.loc	3 313 17                        @ ../../../ThirdParty/mbedTLS/library/ecdsa.c:313:17
	ldm	r1!, {r0}
.Ltmp29:
	@DEBUG_VALUE: ecdsa_sign_restartable:p_key_tries <- $r1
	.loc	3 313 17 is_stmt 0              @ ../../../ThirdParty/mbedTLS/library/ecdsa.c:313:17
	cmp	r0, #10
	bgt	.LBB1_23
.Ltmp30:
@ %bb.7:                                @   in Loop: Header=BB1_6 Depth=2
	@DEBUG_VALUE: ecdsa_sign_restartable:grp <- $r5
	@DEBUG_VALUE: ecdsa_sign_restartable:p_key_tries <- $r1
	@DEBUG_VALUE: ecdsa_sign_restartable:p_sign_tries <- [DW_OP_plus_uconst 24] [$sp+0]
	@DEBUG_VALUE: ecdsa_sign_restartable:buf <- [DW_OP_plus_uconst 160] [$sp+0]
	@DEBUG_VALUE: ecdsa_sign_restartable:blen <- [DW_OP_plus_uconst 164] [$sp+0]
	@DEBUG_VALUE: ecdsa_sign_restartable:f_rng <- [DW_OP_plus_uconst 168] [$sp+0]
	@DEBUG_VALUE: ecdsa_sign_restartable:p_rng <- [DW_OP_plus_uconst 172] [$sp+0]
	@DEBUG_VALUE: ecdsa_sign_restartable:pk <- [DW_OP_plus_uconst 84, DW_OP_stack_value] $sp
	@DEBUG_VALUE: ecdsa_sign_restartable:sign_tries <- 0
	.loc	3 0 17                          @ ../../../ThirdParty/mbedTLS/library/ecdsa.c:0:17
	str	r1, [sp, #56]                   @ 4-byte Spill
.Ltmp31:
	@DEBUG_VALUE: ecdsa_sign_restartable:p_key_tries <- [DW_OP_plus_uconst 56] [$sp+0]
	@DEBUG_VALUE: ecdsa_sign_restartable:p_key_tries <- [DW_OP_plus_uconst 56] [$sp+0]
	add	r1, sp, #84
.Ltmp32:
	.loc	3 319 13 is_stmt 1              @ ../../../ThirdParty/mbedTLS/library/ecdsa.c:319:13
	mov	r0, r5
	mov	r2, r7
	mov	r6, r5
.Ltmp33:
	@DEBUG_VALUE: ecdsa_sign_restartable:grp <- $r6
	@DEBUG_VALUE: ecdsa_sign_restartable:grp <- $r6
	.loc	3 0 13 is_stmt 0                @ ../../../ThirdParty/mbedTLS/library/ecdsa.c:0:13
	ldr	r5, [sp, #44]                   @ 4-byte Reload
	.loc	3 319 13                        @ ../../../ThirdParty/mbedTLS/library/ecdsa.c:319:13
	mov	r3, r5
	bl	mbedtls_ecp_gen_privkey
.Ltmp34:
	@DEBUG_VALUE: ecdsa_sign_restartable:ret <- $r0
	.loc	3 319 13                        @ ../../../ThirdParty/mbedTLS/library/ecdsa.c:319:13
	cmp	r0, #0
	bne	.LBB1_22
.Ltmp35:
@ %bb.8:                                @   in Loop: Header=BB1_6 Depth=2
	@DEBUG_VALUE: ecdsa_sign_restartable:p_key_tries <- [DW_OP_plus_uconst 56] [$sp+0]
	@DEBUG_VALUE: ecdsa_sign_restartable:grp <- $r6
	@DEBUG_VALUE: ecdsa_sign_restartable:ret <- $r0
	@DEBUG_VALUE: ecdsa_sign_restartable:p_sign_tries <- [DW_OP_plus_uconst 24] [$sp+0]
	@DEBUG_VALUE: ecdsa_sign_restartable:buf <- [DW_OP_plus_uconst 160] [$sp+0]
	@DEBUG_VALUE: ecdsa_sign_restartable:blen <- [DW_OP_plus_uconst 164] [$sp+0]
	@DEBUG_VALUE: ecdsa_sign_restartable:f_rng <- [DW_OP_plus_uconst 168] [$sp+0]
	@DEBUG_VALUE: ecdsa_sign_restartable:p_rng <- [DW_OP_plus_uconst 172] [$sp+0]
	@DEBUG_VALUE: ecdsa_sign_restartable:pk <- [DW_OP_plus_uconst 84, DW_OP_stack_value] $sp
	@DEBUG_VALUE: ecdsa_sign_restartable:sign_tries <- 0
	.loc	3 327 13 is_stmt 1              @ ../../../ThirdParty/mbedTLS/library/ecdsa.c:327:13
	str	r7, [sp]
	str	r5, [sp, #4]
	ldr	r0, [sp, #48]                   @ 4-byte Reload
.Ltmp36:
	str	r0, [sp, #8]
	add	r1, sp, #96
	add	r2, sp, #84
	mov	r0, r6
	ldr	r3, [sp, #36]                   @ 4-byte Reload
	bl	mbedtls_ecp_mul_restartable
.Ltmp37:
	@DEBUG_VALUE: ecdsa_sign_restartable:ret <- $r0
	.loc	3 327 13 is_stmt 0              @ ../../../ThirdParty/mbedTLS/library/ecdsa.c:327:13
	cmp	r0, #0
	bne	.LBB1_22
.Ltmp38:
@ %bb.9:                                @   in Loop: Header=BB1_6 Depth=2
	@DEBUG_VALUE: ecdsa_sign_restartable:p_key_tries <- [DW_OP_plus_uconst 56] [$sp+0]
	@DEBUG_VALUE: ecdsa_sign_restartable:grp <- $r6
	@DEBUG_VALUE: ecdsa_sign_restartable:ret <- $r0
	@DEBUG_VALUE: ecdsa_sign_restartable:p_sign_tries <- [DW_OP_plus_uconst 24] [$sp+0]
	@DEBUG_VALUE: ecdsa_sign_restartable:buf <- [DW_OP_plus_uconst 160] [$sp+0]
	@DEBUG_VALUE: ecdsa_sign_restartable:blen <- [DW_OP_plus_uconst 164] [$sp+0]
	@DEBUG_VALUE: ecdsa_sign_restartable:f_rng <- [DW_OP_plus_uconst 168] [$sp+0]
	@DEBUG_VALUE: ecdsa_sign_restartable:p_rng <- [DW_OP_plus_uconst 172] [$sp+0]
	@DEBUG_VALUE: ecdsa_sign_restartable:pk <- [DW_OP_plus_uconst 84, DW_OP_stack_value] $sp
	@DEBUG_VALUE: ecdsa_sign_restartable:sign_tries <- 0
	.loc	3 0 13                          @ ../../../ThirdParty/mbedTLS/library/ecdsa.c:0:13
	mov	r5, r6
.Ltmp39:
	@DEBUG_VALUE: ecdsa_sign_restartable:grp <- $r5
	@DEBUG_VALUE: ecdsa_sign_restartable:grp <- $r5
	add	r1, sp, #96
	ldr	r6, [sp, #52]                   @ 4-byte Reload
.Ltmp40:
	@DEBUG_VALUE: ecdsa_sign_restartable:r <- $r6
	.loc	3 329 13 is_stmt 1              @ ../../../ThirdParty/mbedTLS/library/ecdsa.c:329:13
	mov	r0, r6
.Ltmp41:
	ldr	r2, [sp, #40]                   @ 4-byte Reload
	bl	mbedtls_mpi_mod_mpi
.Ltmp42:
	@DEBUG_VALUE: ecdsa_sign_restartable:ret <- $r0
	.loc	3 329 13 is_stmt 0              @ ../../../ThirdParty/mbedTLS/library/ecdsa.c:329:13
	cmp	r0, #0
	bne	.LBB1_22
.Ltmp43:
@ %bb.10:                               @   in Loop: Header=BB1_6 Depth=2
	@DEBUG_VALUE: ecdsa_sign_restartable:p_key_tries <- [DW_OP_plus_uconst 56] [$sp+0]
	@DEBUG_VALUE: ecdsa_sign_restartable:grp <- $r5
	@DEBUG_VALUE: ecdsa_sign_restartable:ret <- $r0
	@DEBUG_VALUE: ecdsa_sign_restartable:p_sign_tries <- [DW_OP_plus_uconst 24] [$sp+0]
	@DEBUG_VALUE: ecdsa_sign_restartable:buf <- [DW_OP_plus_uconst 160] [$sp+0]
	@DEBUG_VALUE: ecdsa_sign_restartable:blen <- [DW_OP_plus_uconst 164] [$sp+0]
	@DEBUG_VALUE: ecdsa_sign_restartable:f_rng <- [DW_OP_plus_uconst 168] [$sp+0]
	@DEBUG_VALUE: ecdsa_sign_restartable:p_rng <- [DW_OP_plus_uconst 172] [$sp+0]
	@DEBUG_VALUE: ecdsa_sign_restartable:pk <- [DW_OP_plus_uconst 84, DW_OP_stack_value] $sp
	@DEBUG_VALUE: ecdsa_sign_restartable:sign_tries <- 0
	.loc	3 0 13                          @ ../../../ThirdParty/mbedTLS/library/ecdsa.c:0:13
	movs	r4, #0
	.loc	3 331 16 is_stmt 1              @ ../../../ThirdParty/mbedTLS/library/ecdsa.c:331:16
	mov	r0, r6
.Ltmp44:
	mov	r1, r4
	bl	mbedtls_mpi_cmp_int
.Ltmp45:
	.loc	3 330 9                         @ ../../../ThirdParty/mbedTLS/library/ecdsa.c:330:9
	cmp	r0, #0
	ldr	r7, [sp, #32]                   @ 4-byte Reload
	ldr	r1, [sp, #56]                   @ 4-byte Reload
.Ltmp46:
	@DEBUG_VALUE: ecdsa_sign_restartable:p_key_tries <- $r1
	@DEBUG_VALUE: ecdsa_sign_restartable:p_key_tries <- $r1
	beq	.LBB1_6
.Ltmp47:
@ %bb.11:                               @   in Loop: Header=BB1_4 Depth=1
	@DEBUG_VALUE: ecdsa_sign_restartable:grp <- $r5
	@DEBUG_VALUE: ecdsa_sign_restartable:p_key_tries <- $r1
	@DEBUG_VALUE: ecdsa_sign_restartable:p_sign_tries <- [DW_OP_plus_uconst 24] [$sp+0]
	@DEBUG_VALUE: ecdsa_sign_restartable:buf <- [DW_OP_plus_uconst 160] [$sp+0]
	@DEBUG_VALUE: ecdsa_sign_restartable:blen <- [DW_OP_plus_uconst 164] [$sp+0]
	@DEBUG_VALUE: ecdsa_sign_restartable:f_rng <- [DW_OP_plus_uconst 168] [$sp+0]
	@DEBUG_VALUE: ecdsa_sign_restartable:p_rng <- [DW_OP_plus_uconst 172] [$sp+0]
	@DEBUG_VALUE: ecdsa_sign_restartable:pk <- [DW_OP_plus_uconst 84, DW_OP_stack_value] $sp
	@DEBUG_VALUE: ecdsa_sign_restartable:sign_tries <- 0
	.loc	3 0 9 is_stmt 0                 @ ../../../ThirdParty/mbedTLS/library/ecdsa.c:0:9
	add	r1, sp, #72
.Ltmp48:
	.loc	3 348 9 is_stmt 1               @ ../../../ThirdParty/mbedTLS/library/ecdsa.c:348:9
	mov	r0, r5
	ldr	r2, [sp, #16]                   @ 4-byte Reload
	ldr	r3, [sp, #20]                   @ 4-byte Reload
	bl	derive_mpi
.Ltmp49:
	@DEBUG_VALUE: ecdsa_sign_restartable:ret <- $r0
	.loc	3 348 9 is_stmt 0               @ ../../../ThirdParty/mbedTLS/library/ecdsa.c:348:9
	cbnz	r0, .LBB1_22
.Ltmp50:
@ %bb.12:                               @   in Loop: Header=BB1_4 Depth=1
	@DEBUG_VALUE: ecdsa_sign_restartable:grp <- $r5
	@DEBUG_VALUE: ecdsa_sign_restartable:ret <- $r0
	@DEBUG_VALUE: ecdsa_sign_restartable:p_sign_tries <- [DW_OP_plus_uconst 24] [$sp+0]
	@DEBUG_VALUE: ecdsa_sign_restartable:buf <- [DW_OP_plus_uconst 160] [$sp+0]
	@DEBUG_VALUE: ecdsa_sign_restartable:blen <- [DW_OP_plus_uconst 164] [$sp+0]
	@DEBUG_VALUE: ecdsa_sign_restartable:f_rng <- [DW_OP_plus_uconst 168] [$sp+0]
	@DEBUG_VALUE: ecdsa_sign_restartable:p_rng <- [DW_OP_plus_uconst 172] [$sp+0]
	@DEBUG_VALUE: ecdsa_sign_restartable:pk <- [DW_OP_plus_uconst 84, DW_OP_stack_value] $sp
	@DEBUG_VALUE: ecdsa_sign_restartable:sign_tries <- 0
	.loc	3 0 9                           @ ../../../ThirdParty/mbedTLS/library/ecdsa.c:0:9
	add	r1, sp, #60
.Ltmp51:
	.loc	3 354 9 is_stmt 1               @ ../../../ThirdParty/mbedTLS/library/ecdsa.c:354:9
	mov	r0, r5
.Ltmp52:
	mov	r2, r7
	ldr	r3, [sp, #44]                   @ 4-byte Reload
	bl	mbedtls_ecp_gen_privkey
.Ltmp53:
	@DEBUG_VALUE: ecdsa_sign_restartable:ret <- $r0
	.loc	3 354 9 is_stmt 0               @ ../../../ThirdParty/mbedTLS/library/ecdsa.c:354:9
	cbnz	r0, .LBB1_22
.Ltmp54:
@ %bb.13:                               @   in Loop: Header=BB1_4 Depth=1
	@DEBUG_VALUE: ecdsa_sign_restartable:grp <- $r5
	@DEBUG_VALUE: ecdsa_sign_restartable:ret <- $r0
	@DEBUG_VALUE: ecdsa_sign_restartable:p_sign_tries <- [DW_OP_plus_uconst 24] [$sp+0]
	@DEBUG_VALUE: ecdsa_sign_restartable:buf <- [DW_OP_plus_uconst 160] [$sp+0]
	@DEBUG_VALUE: ecdsa_sign_restartable:blen <- [DW_OP_plus_uconst 164] [$sp+0]
	@DEBUG_VALUE: ecdsa_sign_restartable:f_rng <- [DW_OP_plus_uconst 168] [$sp+0]
	@DEBUG_VALUE: ecdsa_sign_restartable:p_rng <- [DW_OP_plus_uconst 172] [$sp+0]
	@DEBUG_VALUE: ecdsa_sign_restartable:pk <- [DW_OP_plus_uconst 84, DW_OP_stack_value] $sp
	@DEBUG_VALUE: ecdsa_sign_restartable:sign_tries <- 0
	.loc	3 0 9                           @ ../../../ThirdParty/mbedTLS/library/ecdsa.c:0:9
	ldr	r6, [sp, #28]                   @ 4-byte Reload
.Ltmp55:
	@DEBUG_VALUE: ecdsa_sign_restartable:s <- $r6
	@DEBUG_VALUE: ecdsa_sign_restartable:r <- [DW_OP_LLVM_entry_value 1] $r1
	.loc	3 359 9 is_stmt 1               @ ../../../ThirdParty/mbedTLS/library/ecdsa.c:359:9
	mov	r0, r6
.Ltmp56:
	ldr	r1, [sp, #52]                   @ 4-byte Reload
	ldr	r2, [sp, #12]                   @ 4-byte Reload
.Ltmp57:
	@DEBUG_VALUE: ecdsa_sign_restartable:d <- $r2
	bl	mbedtls_mpi_mul_mpi
.Ltmp58:
	@DEBUG_VALUE: ecdsa_sign_restartable:d <- [DW_OP_LLVM_entry_value 1] $r3
	@DEBUG_VALUE: ecdsa_sign_restartable:ret <- $r0
	.loc	3 359 9 is_stmt 0               @ ../../../ThirdParty/mbedTLS/library/ecdsa.c:359:9
	cbnz	r0, .LBB1_22
.Ltmp59:
@ %bb.14:                               @   in Loop: Header=BB1_4 Depth=1
	@DEBUG_VALUE: ecdsa_sign_restartable:grp <- $r5
	@DEBUG_VALUE: ecdsa_sign_restartable:ret <- $r0
	@DEBUG_VALUE: ecdsa_sign_restartable:p_sign_tries <- [DW_OP_plus_uconst 24] [$sp+0]
	@DEBUG_VALUE: ecdsa_sign_restartable:buf <- [DW_OP_plus_uconst 160] [$sp+0]
	@DEBUG_VALUE: ecdsa_sign_restartable:blen <- [DW_OP_plus_uconst 164] [$sp+0]
	@DEBUG_VALUE: ecdsa_sign_restartable:f_rng <- [DW_OP_plus_uconst 168] [$sp+0]
	@DEBUG_VALUE: ecdsa_sign_restartable:p_rng <- [DW_OP_plus_uconst 172] [$sp+0]
	@DEBUG_VALUE: ecdsa_sign_restartable:pk <- [DW_OP_plus_uconst 84, DW_OP_stack_value] $sp
	@DEBUG_VALUE: ecdsa_sign_restartable:sign_tries <- 0
	.loc	3 0 9                           @ ../../../ThirdParty/mbedTLS/library/ecdsa.c:0:9
	add	r0, sp, #72
.Ltmp60:
	.loc	3 360 9 is_stmt 1               @ ../../../ThirdParty/mbedTLS/library/ecdsa.c:360:9
	mov	r1, r0
	mov	r2, r6
	bl	mbedtls_mpi_add_mpi
.Ltmp61:
	@DEBUG_VALUE: ecdsa_sign_restartable:ret <- $r0
	.loc	3 360 9 is_stmt 0               @ ../../../ThirdParty/mbedTLS/library/ecdsa.c:360:9
	cbnz	r0, .LBB1_22
.Ltmp62:
@ %bb.15:                               @   in Loop: Header=BB1_4 Depth=1
	@DEBUG_VALUE: ecdsa_sign_restartable:grp <- $r5
	@DEBUG_VALUE: ecdsa_sign_restartable:ret <- $r0
	@DEBUG_VALUE: ecdsa_sign_restartable:p_sign_tries <- [DW_OP_plus_uconst 24] [$sp+0]
	@DEBUG_VALUE: ecdsa_sign_restartable:buf <- [DW_OP_plus_uconst 160] [$sp+0]
	@DEBUG_VALUE: ecdsa_sign_restartable:blen <- [DW_OP_plus_uconst 164] [$sp+0]
	@DEBUG_VALUE: ecdsa_sign_restartable:f_rng <- [DW_OP_plus_uconst 168] [$sp+0]
	@DEBUG_VALUE: ecdsa_sign_restartable:p_rng <- [DW_OP_plus_uconst 172] [$sp+0]
	@DEBUG_VALUE: ecdsa_sign_restartable:pk <- [DW_OP_plus_uconst 84, DW_OP_stack_value] $sp
	@DEBUG_VALUE: ecdsa_sign_restartable:sign_tries <- 0
	.loc	3 0 9                           @ ../../../ThirdParty/mbedTLS/library/ecdsa.c:0:9
	add	r0, sp, #72
.Ltmp63:
	add	r2, sp, #60
.Ltmp64:
	.loc	3 361 9 is_stmt 1               @ ../../../ThirdParty/mbedTLS/library/ecdsa.c:361:9
	mov	r1, r0
	bl	mbedtls_mpi_mul_mpi
.Ltmp65:
	@DEBUG_VALUE: ecdsa_sign_restartable:ret <- $r0
	.loc	3 361 9 is_stmt 0               @ ../../../ThirdParty/mbedTLS/library/ecdsa.c:361:9
	cbnz	r0, .LBB1_22
.Ltmp66:
@ %bb.16:                               @   in Loop: Header=BB1_4 Depth=1
	@DEBUG_VALUE: ecdsa_sign_restartable:grp <- $r5
	@DEBUG_VALUE: ecdsa_sign_restartable:ret <- $r0
	@DEBUG_VALUE: ecdsa_sign_restartable:p_sign_tries <- [DW_OP_plus_uconst 24] [$sp+0]
	@DEBUG_VALUE: ecdsa_sign_restartable:buf <- [DW_OP_plus_uconst 160] [$sp+0]
	@DEBUG_VALUE: ecdsa_sign_restartable:blen <- [DW_OP_plus_uconst 164] [$sp+0]
	@DEBUG_VALUE: ecdsa_sign_restartable:f_rng <- [DW_OP_plus_uconst 168] [$sp+0]
	@DEBUG_VALUE: ecdsa_sign_restartable:p_rng <- [DW_OP_plus_uconst 172] [$sp+0]
	@DEBUG_VALUE: ecdsa_sign_restartable:pk <- [DW_OP_plus_uconst 84, DW_OP_stack_value] $sp
	@DEBUG_VALUE: ecdsa_sign_restartable:sign_tries <- 0
	.loc	3 0 9                           @ ../../../ThirdParty/mbedTLS/library/ecdsa.c:0:9
	add	r0, sp, #84
.Ltmp67:
	add	r2, sp, #60
.Ltmp68:
	.loc	3 362 9 is_stmt 1               @ ../../../ThirdParty/mbedTLS/library/ecdsa.c:362:9
	mov	r1, r0
	bl	mbedtls_mpi_mul_mpi
.Ltmp69:
	@DEBUG_VALUE: ecdsa_sign_restartable:ret <- $r0
	.loc	3 362 9 is_stmt 0               @ ../../../ThirdParty/mbedTLS/library/ecdsa.c:362:9
	cbnz	r0, .LBB1_22
.Ltmp70:
@ %bb.17:                               @   in Loop: Header=BB1_4 Depth=1
	@DEBUG_VALUE: ecdsa_sign_restartable:grp <- $r5
	@DEBUG_VALUE: ecdsa_sign_restartable:ret <- $r0
	@DEBUG_VALUE: ecdsa_sign_restartable:p_sign_tries <- [DW_OP_plus_uconst 24] [$sp+0]
	@DEBUG_VALUE: ecdsa_sign_restartable:buf <- [DW_OP_plus_uconst 160] [$sp+0]
	@DEBUG_VALUE: ecdsa_sign_restartable:blen <- [DW_OP_plus_uconst 164] [$sp+0]
	@DEBUG_VALUE: ecdsa_sign_restartable:f_rng <- [DW_OP_plus_uconst 168] [$sp+0]
	@DEBUG_VALUE: ecdsa_sign_restartable:p_rng <- [DW_OP_plus_uconst 172] [$sp+0]
	@DEBUG_VALUE: ecdsa_sign_restartable:pk <- [DW_OP_plus_uconst 84, DW_OP_stack_value] $sp
	@DEBUG_VALUE: ecdsa_sign_restartable:sign_tries <- 0
	.loc	3 0 9                           @ ../../../ThirdParty/mbedTLS/library/ecdsa.c:0:9
	add	r1, sp, #84
	ldr	r6, [sp, #28]                   @ 4-byte Reload
.Ltmp71:
	@DEBUG_VALUE: ecdsa_sign_restartable:s <- [DW_OP_LLVM_entry_value 1] $r2
	.loc	3 363 9 is_stmt 1               @ ../../../ThirdParty/mbedTLS/library/ecdsa.c:363:9
	mov	r0, r6
.Ltmp72:
	ldr	r2, [sp, #40]                   @ 4-byte Reload
	bl	mbedtls_mpi_inv_mod
.Ltmp73:
	@DEBUG_VALUE: ecdsa_sign_restartable:ret <- $r0
	.loc	3 363 9 is_stmt 0               @ ../../../ThirdParty/mbedTLS/library/ecdsa.c:363:9
	cbnz	r0, .LBB1_22
.Ltmp74:
@ %bb.18:                               @   in Loop: Header=BB1_4 Depth=1
	@DEBUG_VALUE: ecdsa_sign_restartable:grp <- $r5
	@DEBUG_VALUE: ecdsa_sign_restartable:ret <- $r0
	@DEBUG_VALUE: ecdsa_sign_restartable:p_sign_tries <- [DW_OP_plus_uconst 24] [$sp+0]
	@DEBUG_VALUE: ecdsa_sign_restartable:buf <- [DW_OP_plus_uconst 160] [$sp+0]
	@DEBUG_VALUE: ecdsa_sign_restartable:blen <- [DW_OP_plus_uconst 164] [$sp+0]
	@DEBUG_VALUE: ecdsa_sign_restartable:f_rng <- [DW_OP_plus_uconst 168] [$sp+0]
	@DEBUG_VALUE: ecdsa_sign_restartable:p_rng <- [DW_OP_plus_uconst 172] [$sp+0]
	@DEBUG_VALUE: ecdsa_sign_restartable:pk <- [DW_OP_plus_uconst 84, DW_OP_stack_value] $sp
	@DEBUG_VALUE: ecdsa_sign_restartable:sign_tries <- 0
	.loc	3 0 9                           @ ../../../ThirdParty/mbedTLS/library/ecdsa.c:0:9
	add	r2, sp, #72
.Ltmp75:
	.loc	3 364 9 is_stmt 1               @ ../../../ThirdParty/mbedTLS/library/ecdsa.c:364:9
	mov	r0, r6
.Ltmp76:
	mov	r1, r6
	bl	mbedtls_mpi_mul_mpi
.Ltmp77:
	@DEBUG_VALUE: ecdsa_sign_restartable:ret <- $r0
	.loc	3 364 9 is_stmt 0               @ ../../../ThirdParty/mbedTLS/library/ecdsa.c:364:9
	cbnz	r0, .LBB1_22
.Ltmp78:
@ %bb.19:                               @   in Loop: Header=BB1_4 Depth=1
	@DEBUG_VALUE: ecdsa_sign_restartable:grp <- $r5
	@DEBUG_VALUE: ecdsa_sign_restartable:ret <- $r0
	@DEBUG_VALUE: ecdsa_sign_restartable:p_sign_tries <- [DW_OP_plus_uconst 24] [$sp+0]
	@DEBUG_VALUE: ecdsa_sign_restartable:buf <- [DW_OP_plus_uconst 160] [$sp+0]
	@DEBUG_VALUE: ecdsa_sign_restartable:blen <- [DW_OP_plus_uconst 164] [$sp+0]
	@DEBUG_VALUE: ecdsa_sign_restartable:f_rng <- [DW_OP_plus_uconst 168] [$sp+0]
	@DEBUG_VALUE: ecdsa_sign_restartable:p_rng <- [DW_OP_plus_uconst 172] [$sp+0]
	@DEBUG_VALUE: ecdsa_sign_restartable:pk <- [DW_OP_plus_uconst 84, DW_OP_stack_value] $sp
	@DEBUG_VALUE: ecdsa_sign_restartable:sign_tries <- 0
	.loc	3 365 9 is_stmt 1               @ ../../../ThirdParty/mbedTLS/library/ecdsa.c:365:9
	mov	r0, r6
.Ltmp79:
	mov	r1, r6
	ldr	r2, [sp, #40]                   @ 4-byte Reload
	bl	mbedtls_mpi_mod_mpi
.Ltmp80:
	@DEBUG_VALUE: ecdsa_sign_restartable:ret <- $r0
	.loc	3 365 9 is_stmt 0               @ ../../../ThirdParty/mbedTLS/library/ecdsa.c:365:9
	cbnz	r0, .LBB1_22
.Ltmp81:
@ %bb.20:                               @   in Loop: Header=BB1_4 Depth=1
	@DEBUG_VALUE: ecdsa_sign_restartable:grp <- $r5
	@DEBUG_VALUE: ecdsa_sign_restartable:ret <- $r0
	@DEBUG_VALUE: ecdsa_sign_restartable:p_sign_tries <- [DW_OP_plus_uconst 24] [$sp+0]
	@DEBUG_VALUE: ecdsa_sign_restartable:buf <- [DW_OP_plus_uconst 160] [$sp+0]
	@DEBUG_VALUE: ecdsa_sign_restartable:blen <- [DW_OP_plus_uconst 164] [$sp+0]
	@DEBUG_VALUE: ecdsa_sign_restartable:f_rng <- [DW_OP_plus_uconst 168] [$sp+0]
	@DEBUG_VALUE: ecdsa_sign_restartable:p_rng <- [DW_OP_plus_uconst 172] [$sp+0]
	@DEBUG_VALUE: ecdsa_sign_restartable:pk <- [DW_OP_plus_uconst 84, DW_OP_stack_value] $sp
	@DEBUG_VALUE: ecdsa_sign_restartable:sign_tries <- 0
	.loc	3 367 12 is_stmt 1              @ ../../../ThirdParty/mbedTLS/library/ecdsa.c:367:12
	mov	r0, r6
.Ltmp82:
	mov	r1, r4
	bl	mbedtls_mpi_cmp_int
.Ltmp83:
	.loc	3 366 5                         @ ../../../ThirdParty/mbedTLS/library/ecdsa.c:366:5
	cmp	r0, #0
	ldr	r1, [sp, #56]                   @ 4-byte Reload
	ldr	r0, [sp, #24]                   @ 4-byte Reload
	beq	.LBB1_4
	b	.LBB1_24
.Ltmp84:
.LBB1_21:
	@DEBUG_VALUE: ecdsa_sign_restartable:grp <- $r6
	@DEBUG_VALUE: ecdsa_sign_restartable:d <- $r3
	@DEBUG_VALUE: ecdsa_sign_restartable:s <- $r2
	@DEBUG_VALUE: ecdsa_sign_restartable:r <- $r1
	@DEBUG_VALUE: ecdsa_sign_restartable:buf <- [DW_OP_plus_uconst 160] [$sp+0]
	@DEBUG_VALUE: ecdsa_sign_restartable:blen <- [DW_OP_plus_uconst 164] [$sp+0]
	@DEBUG_VALUE: ecdsa_sign_restartable:f_rng <- [DW_OP_plus_uconst 168] [$sp+0]
	@DEBUG_VALUE: ecdsa_sign_restartable:p_rng <- [DW_OP_plus_uconst 172] [$sp+0]
	@DEBUG_VALUE: ecdsa_sign_restartable:p_sign_tries <- [DW_OP_plus_uconst 132, DW_OP_stack_value] $sp
	@DEBUG_VALUE: ecdsa_sign_restartable:p_key_tries <- [DW_OP_plus_uconst 136, DW_OP_stack_value] $sp
	@DEBUG_VALUE: ecdsa_sign_restartable:pk <- [DW_OP_plus_uconst 84, DW_OP_stack_value] $sp
	.loc	3 0 5 is_stmt 0                 @ ../../../ThirdParty/mbedTLS/library/ecdsa.c:0:5
	ldr	r4, __arm_cp.1_0
	b	.LBB1_25
.Ltmp85:
.LBB1_22:
	@DEBUG_VALUE: ecdsa_sign_restartable:ret <- $r0
	@DEBUG_VALUE: ecdsa_sign_restartable:p_sign_tries <- [DW_OP_plus_uconst 24] [$sp+0]
	@DEBUG_VALUE: ecdsa_sign_restartable:buf <- [DW_OP_plus_uconst 160] [$sp+0]
	@DEBUG_VALUE: ecdsa_sign_restartable:blen <- [DW_OP_plus_uconst 164] [$sp+0]
	@DEBUG_VALUE: ecdsa_sign_restartable:f_rng <- [DW_OP_plus_uconst 168] [$sp+0]
	@DEBUG_VALUE: ecdsa_sign_restartable:p_rng <- [DW_OP_plus_uconst 172] [$sp+0]
	@DEBUG_VALUE: ecdsa_sign_restartable:pk <- [DW_OP_plus_uconst 84, DW_OP_stack_value] $sp
	@DEBUG_VALUE: ecdsa_sign_restartable:sign_tries <- 0
	mov	r4, r0
.Ltmp86:
	@DEBUG_VALUE: ecdsa_sign_restartable:ret <- $r4
	b	.LBB1_24
.Ltmp87:
.LBB1_23:
	@DEBUG_VALUE: ecdsa_sign_restartable:grp <- $r5
	@DEBUG_VALUE: ecdsa_sign_restartable:p_key_tries <- $r1
	@DEBUG_VALUE: ecdsa_sign_restartable:p_sign_tries <- [DW_OP_plus_uconst 24] [$sp+0]
	@DEBUG_VALUE: ecdsa_sign_restartable:buf <- [DW_OP_plus_uconst 160] [$sp+0]
	@DEBUG_VALUE: ecdsa_sign_restartable:blen <- [DW_OP_plus_uconst 164] [$sp+0]
	@DEBUG_VALUE: ecdsa_sign_restartable:f_rng <- [DW_OP_plus_uconst 168] [$sp+0]
	@DEBUG_VALUE: ecdsa_sign_restartable:p_rng <- [DW_OP_plus_uconst 172] [$sp+0]
	@DEBUG_VALUE: ecdsa_sign_restartable:pk <- [DW_OP_plus_uconst 84, DW_OP_stack_value] $sp
	@DEBUG_VALUE: ecdsa_sign_restartable:sign_tries <- 0
	ldr	r4, __arm_cp.1_1
.Ltmp88:
.LBB1_24:
	@DEBUG_VALUE: ecdsa_sign_restartable:p_sign_tries <- [DW_OP_plus_uconst 24] [$sp+0]
	@DEBUG_VALUE: ecdsa_sign_restartable:buf <- [DW_OP_plus_uconst 160] [$sp+0]
	@DEBUG_VALUE: ecdsa_sign_restartable:blen <- [DW_OP_plus_uconst 164] [$sp+0]
	@DEBUG_VALUE: ecdsa_sign_restartable:f_rng <- [DW_OP_plus_uconst 168] [$sp+0]
	@DEBUG_VALUE: ecdsa_sign_restartable:p_rng <- [DW_OP_plus_uconst 172] [$sp+0]
	@DEBUG_VALUE: ecdsa_sign_restartable:pk <- [DW_OP_plus_uconst 84, DW_OP_stack_value] $sp
	@DEBUG_VALUE: ecdsa_sign_restartable:sign_tries <- 0
	@DEBUG_VALUE: ecdsa_sign_restartable:ret <- $r4
	@DEBUG_LABEL: ecdsa_sign_restartable:cleanup
	add	r0, sp, #96
	.loc	3 375 5 is_stmt 1               @ ../../../ThirdParty/mbedTLS/library/ecdsa.c:375:5
	bl	mbedtls_ecp_point_free
	add	r0, sp, #84
	.loc	3 376 5                         @ ../../../ThirdParty/mbedTLS/library/ecdsa.c:376:5
	bl	mbedtls_mpi_free
	add	r0, sp, #72
	.loc	3 377 5                         @ ../../../ThirdParty/mbedTLS/library/ecdsa.c:377:5
	bl	mbedtls_mpi_free
	add	r0, sp, #60
	.loc	3 378 5                         @ ../../../ThirdParty/mbedTLS/library/ecdsa.c:378:5
	bl	mbedtls_mpi_free
.Ltmp89:
.LBB1_25:
	@DEBUG_VALUE: ecdsa_sign_restartable:buf <- [DW_OP_plus_uconst 160] [$sp+0]
	@DEBUG_VALUE: ecdsa_sign_restartable:blen <- [DW_OP_plus_uconst 164] [$sp+0]
	@DEBUG_VALUE: ecdsa_sign_restartable:f_rng <- [DW_OP_plus_uconst 168] [$sp+0]
	@DEBUG_VALUE: ecdsa_sign_restartable:p_rng <- [DW_OP_plus_uconst 172] [$sp+0]
	@DEBUG_VALUE: ecdsa_sign_restartable:pk <- [DW_OP_plus_uconst 84, DW_OP_stack_value] $sp
	.loc	3 383 1                         @ ../../../ThirdParty/mbedTLS/library/ecdsa.c:383:1
	mov	r0, r4
	add	sp, #140
.Ltmp90:
	pop	{r4, r5, r6, r7, pc}
.Ltmp91:
	.p2align	2
@ %bb.26:
	.loc	3 0 1 is_stmt 0                 @ ../../../ThirdParty/mbedTLS/library/ecdsa.c:0:1
__arm_cp.1_0:
	.long	4294946944                      @ 0xffffb080
.Lcpi_end0:
	.size	__arm_cp.1_0, .Lcpi_end0-__arm_cp.1_0
__arm_cp.1_1:
	.long	4294947584                      @ 0xffffb300
.Lcpi_end1:
	.size	__arm_cp.1_1, .Lcpi_end1-__arm_cp.1_1
.Lfunc_end1:
	.size	ecdsa_sign_restartable, .Lfunc_end1-ecdsa_sign_restartable
	.cfi_endproc
	.cantunwind
	.fnend
                                        @ -- End function
	.section	.text.mbedtls_ecdsa_sign_det,"ax",%progbits
	.hidden	mbedtls_ecdsa_sign_det          @ -- Begin function mbedtls_ecdsa_sign_det
	.globl	mbedtls_ecdsa_sign_det
	.p2align	1
	.type	mbedtls_ecdsa_sign_det,%function
	.code	16                              @ @mbedtls_ecdsa_sign_det
	.thumb_func
mbedtls_ecdsa_sign_det:
.Lfunc_begin2:
	.loc	3 477 0 is_stmt 1               @ ../../../ThirdParty/mbedTLS/library/ecdsa.c:477:0
	.fnstart
	.cfi_startproc
@ %bb.0:
	@DEBUG_VALUE: mbedtls_ecdsa_sign_det:grp <- $r0
	@DEBUG_VALUE: mbedtls_ecdsa_sign_det:grp <- $r0
	@DEBUG_VALUE: mbedtls_ecdsa_sign_det:r <- $r1
	@DEBUG_VALUE: mbedtls_ecdsa_sign_det:r <- $r1
	@DEBUG_VALUE: mbedtls_ecdsa_sign_det:s <- $r2
	@DEBUG_VALUE: mbedtls_ecdsa_sign_det:s <- $r2
	@DEBUG_VALUE: mbedtls_ecdsa_sign_det:d <- $r3
	@DEBUG_VALUE: mbedtls_ecdsa_sign_det:d <- $r3
	@DEBUG_VALUE: mbedtls_ecdsa_sign_det:md_alg <- undef
	.save	{r4, lr}
	push	{r4, lr}
	.cfi_def_cfa_offset 8
	.cfi_offset lr, -4
	.cfi_offset r4, -8
	.pad	#16
	sub	sp, #16
	.cfi_def_cfa_offset 24
.Ltmp92:
	@DEBUG_VALUE: mbedtls_ecdsa_sign_det:buf <- [DW_OP_plus_uconst 24] [$sp+0]
	@DEBUG_VALUE: mbedtls_ecdsa_sign_det:blen <- [DW_OP_plus_uconst 28] [$sp+0]
	ldr	r4, [sp, #32]
.Ltmp93:
	.loc	3 484 13 prologue_end           @ ../../../ThirdParty/mbedTLS/library/ecdsa.c:484:13
	str	r4, [sp, #8]
	ldr	r4, [sp, #28]
	str	r4, [sp, #4]
	ldr	r4, [sp, #24]
	str	r4, [sp]
	@DEBUG_VALUE: mbedtls_ecdsa_sign_det:d <- $r3
	@DEBUG_VALUE: mbedtls_ecdsa_sign_det:s <- $r2
	@DEBUG_VALUE: mbedtls_ecdsa_sign_det:r <- $r1
	@DEBUG_VALUE: mbedtls_ecdsa_sign_det:grp <- $r0
	bl	ecdsa_sign_det_restartable
.Ltmp94:
	@DEBUG_VALUE: mbedtls_ecdsa_sign_det:d <- [DW_OP_LLVM_entry_value 1] $r3
	@DEBUG_VALUE: mbedtls_ecdsa_sign_det:s <- [DW_OP_LLVM_entry_value 1] $r2
	@DEBUG_VALUE: mbedtls_ecdsa_sign_det:r <- [DW_OP_LLVM_entry_value 1] $r1
	@DEBUG_VALUE: mbedtls_ecdsa_sign_det:grp <- [DW_OP_LLVM_entry_value 1] $r0
	.loc	3 484 5 is_stmt 0               @ ../../../ThirdParty/mbedTLS/library/ecdsa.c:484:5
	add	sp, #16
.Ltmp95:
	pop	{r4, pc}
.Ltmp96:
.Lfunc_end2:
	.size	mbedtls_ecdsa_sign_det, .Lfunc_end2-mbedtls_ecdsa_sign_det
	.cfi_endproc
	.cantunwind
	.fnend
                                        @ -- End function
	.section	.text.ecdsa_sign_det_restartable,"ax",%progbits
	.p2align	2                               @ -- Begin function ecdsa_sign_det_restartable
	.type	ecdsa_sign_det_restartable,%function
	.code	16                              @ @ecdsa_sign_det_restartable
	.thumb_func
ecdsa_sign_det_restartable:
.Lfunc_begin3:
	.loc	3 413 0 is_stmt 1               @ ../../../ThirdParty/mbedTLS/library/ecdsa.c:413:0
	.fnstart
	.cfi_startproc
@ %bb.0:
	@DEBUG_VALUE: ecdsa_sign_det_restartable:grp <- $r0
	@DEBUG_VALUE: ecdsa_sign_det_restartable:r <- $r1
	@DEBUG_VALUE: ecdsa_sign_det_restartable:s <- $r2
	@DEBUG_VALUE: ecdsa_sign_det_restartable:d <- $r3
	.save	{r4, r5, r6, r7, lr}
	push	{r4, r5, r6, r7, lr}
	.cfi_def_cfa_offset 20
	.cfi_offset lr, -4
	.cfi_offset r7, -8
	.cfi_offset r6, -12
	.cfi_offset r5, -16
	.cfi_offset r4, -20
	.pad	#284
	sub	sp, #284
	.cfi_def_cfa_offset 304
	mov	r6, r3
	str	r2, [sp, #36]                   @ 4-byte Spill
	str	r1, [sp, #32]                   @ 4-byte Spill
	mov	r7, r0
.Ltmp97:
	@DEBUG_VALUE: ecdsa_sign_det_restartable:p_rng <- [DW_OP_plus_uconst 184, DW_OP_stack_value] $sp
	@DEBUG_VALUE: ecdsa_sign_det_restartable:rs_ctx <- undef
	@DEBUG_VALUE: ecdsa_sign_det_restartable:md_alg <- undef
	@DEBUG_VALUE: ecdsa_sign_det_restartable:blen <- [DW_OP_plus_uconst 308] [$sp+0]
	@DEBUG_VALUE: ecdsa_sign_det_restartable:buf <- [DW_OP_plus_uconst 304] [$sp+0]
	@DEBUG_VALUE: ecdsa_sign_det_restartable:d <- $r6
	@DEBUG_VALUE: ecdsa_sign_det_restartable:s <- [DW_OP_plus_uconst 36] [$sp+0]
	@DEBUG_VALUE: ecdsa_sign_det_restartable:r <- [DW_OP_plus_uconst 32] [$sp+0]
	@DEBUG_VALUE: ecdsa_sign_det_restartable:grp <- $r7
	.loc	3 418 29 prologue_end           @ ../../../ThirdParty/mbedTLS/library/ecdsa.c:418:29
	ldr	r4, [r0, #92]
.Ltmp98:
	@DEBUG_VALUE: ecdsa_sign_det_restartable:grp_len <- undef
	.loc	3 0 29 is_stmt 0                @ ../../../ThirdParty/mbedTLS/library/ecdsa.c:0:29
	ldr	r0, [sp, #312]
.Ltmp99:
	.loc	3 422 21 is_stmt 1              @ ../../../ThirdParty/mbedTLS/library/ecdsa.c:422:21
	bl	mbedtls_md_info_from_type
.Ltmp100:
	@DEBUG_VALUE: ecdsa_sign_det_restartable:md_info <- $r0
	.loc	3 422 9 is_stmt 0               @ ../../../ThirdParty/mbedTLS/library/ecdsa.c:422:9
	cmp	r0, #0
	beq	.LBB3_6
.Ltmp101:
@ %bb.1:
	@DEBUG_VALUE: ecdsa_sign_det_restartable:grp <- $r7
	@DEBUG_VALUE: ecdsa_sign_det_restartable:d <- $r6
	@DEBUG_VALUE: ecdsa_sign_det_restartable:md_info <- $r0
	@DEBUG_VALUE: ecdsa_sign_det_restartable:r <- [DW_OP_plus_uconst 32] [$sp+0]
	@DEBUG_VALUE: ecdsa_sign_det_restartable:s <- [DW_OP_plus_uconst 36] [$sp+0]
	@DEBUG_VALUE: ecdsa_sign_det_restartable:buf <- [DW_OP_plus_uconst 304] [$sp+0]
	@DEBUG_VALUE: ecdsa_sign_det_restartable:blen <- [DW_OP_plus_uconst 308] [$sp+0]
	@DEBUG_VALUE: ecdsa_sign_det_restartable:p_rng <- [DW_OP_plus_uconst 184, DW_OP_stack_value] $sp
	.loc	3 0 9                           @ ../../../ThirdParty/mbedTLS/library/ecdsa.c:0:9
	mov	r5, r0
.Ltmp102:
	@DEBUG_VALUE: ecdsa_sign_det_restartable:md_info <- $r5
	adds	r0, r4, #7
	mov	r4, r6
.Ltmp103:
	@DEBUG_VALUE: ecdsa_sign_det_restartable:d <- $r4
	lsrs	r6, r0, #3
.Ltmp104:
	@DEBUG_VALUE: ecdsa_sign_det_restartable:grp_len <- $r6
	add	r0, sp, #40
	.loc	3 425 5 is_stmt 1               @ ../../../ThirdParty/mbedTLS/library/ecdsa.c:425:5
	bl	mbedtls_mpi_init
	add	r0, sp, #184
	.loc	3 426 5                         @ ../../../ThirdParty/mbedTLS/library/ecdsa.c:426:5
	bl	mbedtls_hmac_drbg_init
	add	r1, sp, #52
	str	r4, [sp, #28]                   @ 4-byte Spill
.Ltmp105:
	@DEBUG_VALUE: ecdsa_sign_det_restartable:d <- [DW_OP_plus_uconst 28] [$sp+0]
	.loc	3 443 5                         @ ../../../ThirdParty/mbedTLS/library/ecdsa.c:443:5
	mov	r0, r4
	mov	r2, r6
	bl	mbedtls_mpi_write_binary
	mov	r4, r0
.Ltmp106:
	@DEBUG_VALUE: ecdsa_sign_det_restartable:ret <- $r4
	.loc	3 443 5 is_stmt 0               @ ../../../ThirdParty/mbedTLS/library/ecdsa.c:443:5
	cbnz	r0, .LBB3_5
.Ltmp107:
@ %bb.2:
	@DEBUG_VALUE: ecdsa_sign_det_restartable:d <- [DW_OP_plus_uconst 28] [$sp+0]
	@DEBUG_VALUE: ecdsa_sign_det_restartable:grp <- $r7
	@DEBUG_VALUE: ecdsa_sign_det_restartable:grp_len <- $r6
	@DEBUG_VALUE: ecdsa_sign_det_restartable:md_info <- $r5
	@DEBUG_VALUE: ecdsa_sign_det_restartable:ret <- $r4
	@DEBUG_VALUE: ecdsa_sign_det_restartable:r <- [DW_OP_plus_uconst 32] [$sp+0]
	@DEBUG_VALUE: ecdsa_sign_det_restartable:s <- [DW_OP_plus_uconst 36] [$sp+0]
	@DEBUG_VALUE: ecdsa_sign_det_restartable:buf <- [DW_OP_plus_uconst 304] [$sp+0]
	@DEBUG_VALUE: ecdsa_sign_det_restartable:blen <- [DW_OP_plus_uconst 308] [$sp+0]
	@DEBUG_VALUE: ecdsa_sign_det_restartable:p_rng <- [DW_OP_plus_uconst 184, DW_OP_stack_value] $sp
	.loc	3 0 5                           @ ../../../ThirdParty/mbedTLS/library/ecdsa.c:0:5
	ldr	r3, [sp, #308]
	ldr	r2, [sp, #304]
	add	r1, sp, #40
.Ltmp108:
	.loc	3 444 5 is_stmt 1               @ ../../../ThirdParty/mbedTLS/library/ecdsa.c:444:5
	mov	r0, r7
	str	r2, [sp, #24]                   @ 4-byte Spill
	str	r3, [sp, #20]                   @ 4-byte Spill
	bl	derive_mpi
	mov	r4, r0
.Ltmp109:
	@DEBUG_VALUE: ecdsa_sign_det_restartable:ret <- $r4
	.loc	3 444 5 is_stmt 0               @ ../../../ThirdParty/mbedTLS/library/ecdsa.c:444:5
	cbnz	r0, .LBB3_5
.Ltmp110:
@ %bb.3:
	@DEBUG_VALUE: ecdsa_sign_det_restartable:d <- [DW_OP_plus_uconst 28] [$sp+0]
	@DEBUG_VALUE: ecdsa_sign_det_restartable:grp <- $r7
	@DEBUG_VALUE: ecdsa_sign_det_restartable:grp_len <- $r6
	@DEBUG_VALUE: ecdsa_sign_det_restartable:md_info <- $r5
	@DEBUG_VALUE: ecdsa_sign_det_restartable:ret <- $r4
	@DEBUG_VALUE: ecdsa_sign_det_restartable:r <- [DW_OP_plus_uconst 32] [$sp+0]
	@DEBUG_VALUE: ecdsa_sign_det_restartable:s <- [DW_OP_plus_uconst 36] [$sp+0]
	@DEBUG_VALUE: ecdsa_sign_det_restartable:buf <- [DW_OP_plus_uconst 304] [$sp+0]
	@DEBUG_VALUE: ecdsa_sign_det_restartable:blen <- [DW_OP_plus_uconst 308] [$sp+0]
	@DEBUG_VALUE: ecdsa_sign_det_restartable:p_rng <- [DW_OP_plus_uconst 184, DW_OP_stack_value] $sp
	.loc	3 0 5                           @ ../../../ThirdParty/mbedTLS/library/ecdsa.c:0:5
	add	r0, sp, #52
.Ltmp111:
	.loc	3 445 5 is_stmt 1               @ ../../../ThirdParty/mbedTLS/library/ecdsa.c:445:5
	adds	r1, r0, r6
	add	r0, sp, #40
	mov	r2, r6
	bl	mbedtls_mpi_write_binary
	mov	r4, r0
.Ltmp112:
	@DEBUG_VALUE: ecdsa_sign_det_restartable:ret <- $r4
	.loc	3 445 5 is_stmt 0               @ ../../../ThirdParty/mbedTLS/library/ecdsa.c:445:5
	cbnz	r0, .LBB3_5
.Ltmp113:
@ %bb.4:
	@DEBUG_VALUE: ecdsa_sign_det_restartable:d <- [DW_OP_plus_uconst 28] [$sp+0]
	@DEBUG_VALUE: ecdsa_sign_det_restartable:grp <- $r7
	@DEBUG_VALUE: ecdsa_sign_det_restartable:grp_len <- $r6
	@DEBUG_VALUE: ecdsa_sign_det_restartable:md_info <- $r5
	@DEBUG_VALUE: ecdsa_sign_det_restartable:ret <- $r4
	@DEBUG_VALUE: ecdsa_sign_det_restartable:r <- [DW_OP_plus_uconst 32] [$sp+0]
	@DEBUG_VALUE: ecdsa_sign_det_restartable:s <- [DW_OP_plus_uconst 36] [$sp+0]
	@DEBUG_VALUE: ecdsa_sign_det_restartable:buf <- [DW_OP_plus_uconst 304] [$sp+0]
	@DEBUG_VALUE: ecdsa_sign_det_restartable:blen <- [DW_OP_plus_uconst 308] [$sp+0]
	@DEBUG_VALUE: ecdsa_sign_det_restartable:p_rng <- [DW_OP_plus_uconst 184, DW_OP_stack_value] $sp
	.loc	3 446 57 is_stmt 1              @ ../../../ThirdParty/mbedTLS/library/ecdsa.c:446:57
	lsls	r3, r6, #1
	add	r4, sp, #184
.Ltmp114:
	.loc	3 0 57 is_stmt 0                @ ../../../ThirdParty/mbedTLS/library/ecdsa.c:0:57
	add	r2, sp, #52
	.loc	3 446 5                         @ ../../../ThirdParty/mbedTLS/library/ecdsa.c:446:5
	mov	r0, r4
	mov	r1, r5
	bl	mbedtls_hmac_drbg_seed_buf
	.loc	3 458 11 is_stmt 1              @ ../../../ThirdParty/mbedTLS/library/ecdsa.c:458:11
	str	r4, [sp, #12]
	ldr	r0, __arm_cp.3_1
	str	r0, [sp, #8]
	ldr	r0, [sp, #20]                   @ 4-byte Reload
	str	r0, [sp, #4]
	ldr	r0, [sp, #24]                   @ 4-byte Reload
	str	r0, [sp]
	mov	r0, r7
	ldr	r1, [sp, #32]                   @ 4-byte Reload
	ldr	r2, [sp, #36]                   @ 4-byte Reload
	ldr	r3, [sp, #28]                   @ 4-byte Reload
.Ltmp115:
	@DEBUG_VALUE: ecdsa_sign_det_restartable:d <- $r3
	bl	ecdsa_sign_restartable
.Ltmp116:
	mov	r4, r0
.Ltmp117:
	@DEBUG_VALUE: ecdsa_sign_det_restartable:ret <- $r4
.LBB3_5:
	@DEBUG_VALUE: ecdsa_sign_det_restartable:grp <- $r7
	@DEBUG_VALUE: ecdsa_sign_det_restartable:grp_len <- $r6
	@DEBUG_VALUE: ecdsa_sign_det_restartable:md_info <- $r5
	@DEBUG_VALUE: ecdsa_sign_det_restartable:ret <- $r4
	@DEBUG_VALUE: ecdsa_sign_det_restartable:r <- [DW_OP_plus_uconst 32] [$sp+0]
	@DEBUG_VALUE: ecdsa_sign_det_restartable:s <- [DW_OP_plus_uconst 36] [$sp+0]
	@DEBUG_VALUE: ecdsa_sign_det_restartable:buf <- [DW_OP_plus_uconst 304] [$sp+0]
	@DEBUG_VALUE: ecdsa_sign_det_restartable:blen <- [DW_OP_plus_uconst 308] [$sp+0]
	@DEBUG_VALUE: ecdsa_sign_det_restartable:p_rng <- [DW_OP_plus_uconst 184, DW_OP_stack_value] $sp
	@DEBUG_VALUE: ecdsa_sign_det_restartable:ret <- $r4
	@DEBUG_LABEL: ecdsa_sign_det_restartable:cleanup
	.loc	3 0 11 is_stmt 0                @ ../../../ThirdParty/mbedTLS/library/ecdsa.c:0:11
	add	r0, sp, #184
	.loc	3 463 5 is_stmt 1               @ ../../../ThirdParty/mbedTLS/library/ecdsa.c:463:5
	bl	mbedtls_hmac_drbg_free
	add	r0, sp, #40
	.loc	3 464 5                         @ ../../../ThirdParty/mbedTLS/library/ecdsa.c:464:5
	bl	mbedtls_mpi_free
	b	.LBB3_7
.Ltmp118:
.LBB3_6:
	@DEBUG_VALUE: ecdsa_sign_det_restartable:grp <- $r7
	@DEBUG_VALUE: ecdsa_sign_det_restartable:d <- $r6
	@DEBUG_VALUE: ecdsa_sign_det_restartable:md_info <- $r0
	@DEBUG_VALUE: ecdsa_sign_det_restartable:r <- [DW_OP_plus_uconst 32] [$sp+0]
	@DEBUG_VALUE: ecdsa_sign_det_restartable:s <- [DW_OP_plus_uconst 36] [$sp+0]
	@DEBUG_VALUE: ecdsa_sign_det_restartable:buf <- [DW_OP_plus_uconst 304] [$sp+0]
	@DEBUG_VALUE: ecdsa_sign_det_restartable:blen <- [DW_OP_plus_uconst 308] [$sp+0]
	@DEBUG_VALUE: ecdsa_sign_det_restartable:p_rng <- [DW_OP_plus_uconst 184, DW_OP_stack_value] $sp
	.loc	3 0 5 is_stmt 0                 @ ../../../ThirdParty/mbedTLS/library/ecdsa.c:0:5
	ldr	r4, __arm_cp.3_0
.Ltmp119:
.LBB3_7:
	@DEBUG_VALUE: ecdsa_sign_det_restartable:grp <- $r7
	@DEBUG_VALUE: ecdsa_sign_det_restartable:r <- [DW_OP_plus_uconst 32] [$sp+0]
	@DEBUG_VALUE: ecdsa_sign_det_restartable:s <- [DW_OP_plus_uconst 36] [$sp+0]
	@DEBUG_VALUE: ecdsa_sign_det_restartable:buf <- [DW_OP_plus_uconst 304] [$sp+0]
	@DEBUG_VALUE: ecdsa_sign_det_restartable:blen <- [DW_OP_plus_uconst 308] [$sp+0]
	@DEBUG_VALUE: ecdsa_sign_det_restartable:p_rng <- [DW_OP_plus_uconst 184, DW_OP_stack_value] $sp
	.loc	3 469 1 is_stmt 1               @ ../../../ThirdParty/mbedTLS/library/ecdsa.c:469:1
	mov	r0, r4
	add	sp, #284
.Ltmp120:
	pop	{r4, r5, r6, r7, pc}
.Ltmp121:
	.p2align	2
@ %bb.8:
	.loc	3 0 1 is_stmt 0                 @ ../../../ThirdParty/mbedTLS/library/ecdsa.c:0:1
__arm_cp.3_0:
	.long	4294946944                      @ 0xffffb080
.Lcpi_end2:
	.size	__arm_cp.3_0, .Lcpi_end2-__arm_cp.3_0
__arm_cp.3_1:
	.long	mbedtls_hmac_drbg_random
.Lcpi_end3:
	.size	__arm_cp.3_1, .Lcpi_end3-__arm_cp.3_1
.Lfunc_end3:
	.size	ecdsa_sign_det_restartable, .Lfunc_end3-ecdsa_sign_det_restartable
	.cfi_endproc
	.cantunwind
	.fnend
                                        @ -- End function
	.section	.text.mbedtls_ecdsa_verify,"ax",%progbits
	.hidden	mbedtls_ecdsa_verify            @ -- Begin function mbedtls_ecdsa_verify
	.globl	mbedtls_ecdsa_verify
	.p2align	1
	.type	mbedtls_ecdsa_verify,%function
	.code	16                              @ @mbedtls_ecdsa_verify
	.thumb_func
mbedtls_ecdsa_verify:
.Lfunc_begin4:
	.loc	3 610 0 is_stmt 1               @ ../../../ThirdParty/mbedTLS/library/ecdsa.c:610:0
	.fnstart
	.cfi_startproc
@ %bb.0:
	@DEBUG_VALUE: mbedtls_ecdsa_verify:grp <- $r0
	@DEBUG_VALUE: mbedtls_ecdsa_verify:grp <- $r0
	@DEBUG_VALUE: mbedtls_ecdsa_verify:buf <- $r1
	@DEBUG_VALUE: mbedtls_ecdsa_verify:buf <- $r1
	@DEBUG_VALUE: mbedtls_ecdsa_verify:blen <- $r2
	@DEBUG_VALUE: mbedtls_ecdsa_verify:blen <- $r2
	@DEBUG_VALUE: mbedtls_ecdsa_verify:Q <- $r3
	@DEBUG_VALUE: mbedtls_ecdsa_verify:Q <- $r3
	.save	{r4, lr}
	push	{r4, lr}
	.cfi_def_cfa_offset 8
	.cfi_offset lr, -4
	.cfi_offset r4, -8
	.pad	#8
	sub	sp, #8
	.cfi_def_cfa_offset 16
.Ltmp122:
	@DEBUG_VALUE: mbedtls_ecdsa_verify:r <- [DW_OP_plus_uconst 16] [$sp+0]
	@DEBUG_VALUE: mbedtls_ecdsa_verify:s <- [DW_OP_plus_uconst 20] [$sp+0]
	ldr	r4, [sp, #20]
.Ltmp123:
	.loc	3 617 13 prologue_end           @ ../../../ThirdParty/mbedTLS/library/ecdsa.c:617:13
	str	r4, [sp, #4]
	ldr	r4, [sp, #16]
	str	r4, [sp]
	@DEBUG_VALUE: mbedtls_ecdsa_verify:Q <- $r3
	@DEBUG_VALUE: mbedtls_ecdsa_verify:blen <- $r2
	@DEBUG_VALUE: mbedtls_ecdsa_verify:buf <- $r1
	@DEBUG_VALUE: mbedtls_ecdsa_verify:grp <- $r0
	bl	ecdsa_verify_restartable
.Ltmp124:
	@DEBUG_VALUE: mbedtls_ecdsa_verify:Q <- [DW_OP_LLVM_entry_value 1] $r3
	@DEBUG_VALUE: mbedtls_ecdsa_verify:blen <- [DW_OP_LLVM_entry_value 1] $r2
	@DEBUG_VALUE: mbedtls_ecdsa_verify:buf <- [DW_OP_LLVM_entry_value 1] $r1
	@DEBUG_VALUE: mbedtls_ecdsa_verify:grp <- [DW_OP_LLVM_entry_value 1] $r0
	.loc	3 617 5 is_stmt 0               @ ../../../ThirdParty/mbedTLS/library/ecdsa.c:617:5
	add	sp, #8
.Ltmp125:
	pop	{r4, pc}
.Ltmp126:
.Lfunc_end4:
	.size	mbedtls_ecdsa_verify, .Lfunc_end4-mbedtls_ecdsa_verify
	.cfi_endproc
	.cantunwind
	.fnend
                                        @ -- End function
	.section	.text.ecdsa_verify_restartable,"ax",%progbits
	.p2align	2                               @ -- Begin function ecdsa_verify_restartable
	.type	ecdsa_verify_restartable,%function
	.code	16                              @ @ecdsa_verify_restartable
	.thumb_func
ecdsa_verify_restartable:
.Lfunc_begin5:
	.loc	3 498 0 is_stmt 1               @ ../../../ThirdParty/mbedTLS/library/ecdsa.c:498:0
	.fnstart
	.cfi_startproc
@ %bb.0:
	@DEBUG_VALUE: ecdsa_verify_restartable:grp <- $r0
	@DEBUG_VALUE: ecdsa_verify_restartable:buf <- $r1
	@DEBUG_VALUE: ecdsa_verify_restartable:blen <- $r2
	@DEBUG_VALUE: ecdsa_verify_restartable:Q <- $r3
	.save	{r4, r5, r6, r7, lr}
	push	{r4, r5, r6, r7, lr}
	.cfi_def_cfa_offset 20
	.cfi_offset lr, -4
	.cfi_offset r7, -8
	.cfi_offset r6, -12
	.cfi_offset r5, -16
	.cfi_offset r4, -20
	.pad	#116
	sub	sp, #116
	.cfi_def_cfa_offset 136
	mov	r7, r3
	mov	r5, r2
	mov	r6, r1
	mov	r4, r0
.Ltmp127:
	@DEBUG_VALUE: ecdsa_verify_restartable:pu2 <- [DW_OP_plus_uconst 68, DW_OP_stack_value] $sp
	@DEBUG_VALUE: ecdsa_verify_restartable:pu1 <- [DW_OP_plus_uconst 80, DW_OP_stack_value] $sp
	@DEBUG_VALUE: ecdsa_verify_restartable:rs_ctx <- undef
	@DEBUG_VALUE: ecdsa_verify_restartable:s <- [DW_OP_plus_uconst 140] [$sp+0]
	@DEBUG_VALUE: ecdsa_verify_restartable:r <- [DW_OP_plus_uconst 136] [$sp+0]
	@DEBUG_VALUE: ecdsa_verify_restartable:Q <- $r7
	@DEBUG_VALUE: ecdsa_verify_restartable:blen <- $r5
	@DEBUG_VALUE: ecdsa_verify_restartable:buf <- $r6
	@DEBUG_VALUE: ecdsa_verify_restartable:grp <- $r4
	add	r0, sp, #32
.Ltmp128:
	.loc	3 504 5 prologue_end            @ ../../../ThirdParty/mbedTLS/library/ecdsa.c:504:5
	bl	mbedtls_ecp_point_init
	add	r0, sp, #104
	.loc	3 505 5                         @ ../../../ThirdParty/mbedTLS/library/ecdsa.c:505:5
	bl	mbedtls_mpi_init
	add	r0, sp, #92
	.loc	3 506 5                         @ ../../../ThirdParty/mbedTLS/library/ecdsa.c:506:5
	bl	mbedtls_mpi_init
	add	r0, sp, #80
	.loc	3 507 5                         @ ../../../ThirdParty/mbedTLS/library/ecdsa.c:507:5
	bl	mbedtls_mpi_init
	add	r0, sp, #68
	.loc	3 508 5                         @ ../../../ThirdParty/mbedTLS/library/ecdsa.c:508:5
	bl	mbedtls_mpi_init
.Ltmp129:
	.loc	3 511 16                        @ ../../../ThirdParty/mbedTLS/library/ecdsa.c:511:16
	ldr	r0, [r4, #84]
.Ltmp130:
	.loc	3 511 9 is_stmt 0               @ ../../../ThirdParty/mbedTLS/library/ecdsa.c:511:9
	cbz	r0, .LBB5_4
.Ltmp131:
@ %bb.1:
	@DEBUG_VALUE: ecdsa_verify_restartable:Q <- $r7
	@DEBUG_VALUE: ecdsa_verify_restartable:buf <- $r6
	@DEBUG_VALUE: ecdsa_verify_restartable:blen <- $r5
	@DEBUG_VALUE: ecdsa_verify_restartable:grp <- $r4
	@DEBUG_VALUE: ecdsa_verify_restartable:r <- [DW_OP_plus_uconst 136] [$sp+0]
	@DEBUG_VALUE: ecdsa_verify_restartable:s <- [DW_OP_plus_uconst 140] [$sp+0]
	@DEBUG_VALUE: ecdsa_verify_restartable:pu1 <- [DW_OP_plus_uconst 80, DW_OP_stack_value] $sp
	@DEBUG_VALUE: ecdsa_verify_restartable:pu2 <- [DW_OP_plus_uconst 68, DW_OP_stack_value] $sp
	.loc	3 0 9                           @ ../../../ThirdParty/mbedTLS/library/ecdsa.c:0:9
	str	r7, [sp, #28]                   @ 4-byte Spill
.Ltmp132:
	@DEBUG_VALUE: ecdsa_verify_restartable:Q <- [DW_OP_plus_uconst 28] [$sp+0]
	ldr	r7, [sp, #136]
	movs	r1, #1
.Ltmp133:
	.loc	3 532 9 is_stmt 1               @ ../../../ThirdParty/mbedTLS/library/ecdsa.c:532:9
	mov	r0, r7
	bl	mbedtls_mpi_cmp_int
	ldr	r1, __arm_cp.5_1
	.loc	3 532 41 is_stmt 0              @ ../../../ThirdParty/mbedTLS/library/ecdsa.c:532:41
	cmp	r0, #0
	bmi	.LBB5_5
.Ltmp134:
@ %bb.2:
	@DEBUG_VALUE: ecdsa_verify_restartable:Q <- [DW_OP_plus_uconst 28] [$sp+0]
	@DEBUG_VALUE: ecdsa_verify_restartable:buf <- $r6
	@DEBUG_VALUE: ecdsa_verify_restartable:blen <- $r5
	@DEBUG_VALUE: ecdsa_verify_restartable:grp <- $r4
	@DEBUG_VALUE: ecdsa_verify_restartable:r <- [DW_OP_plus_uconst 136] [$sp+0]
	@DEBUG_VALUE: ecdsa_verify_restartable:s <- [DW_OP_plus_uconst 140] [$sp+0]
	@DEBUG_VALUE: ecdsa_verify_restartable:pu1 <- [DW_OP_plus_uconst 80, DW_OP_stack_value] $sp
	@DEBUG_VALUE: ecdsa_verify_restartable:pu2 <- [DW_OP_plus_uconst 68, DW_OP_stack_value] $sp
	.loc	3 0 41                          @ ../../../ThirdParty/mbedTLS/library/ecdsa.c:0:41
	str	r5, [sp, #24]                   @ 4-byte Spill
.Ltmp135:
	@DEBUG_VALUE: ecdsa_verify_restartable:blen <- [DW_OP_plus_uconst 24] [$sp+0]
	str	r1, [sp, #20]                   @ 4-byte Spill
	mov	r5, r4
	adds	r5, #76
	.loc	3 532 44                        @ ../../../ThirdParty/mbedTLS/library/ecdsa.c:532:44
	mov	r0, r7
	mov	r1, r5
	bl	mbedtls_mpi_cmp_mpi
	.loc	3 532 83                        @ ../../../ThirdParty/mbedTLS/library/ecdsa.c:532:83
	cmp	r0, #0
	bmi	.LBB5_8
.Ltmp136:
.LBB5_3:
	@DEBUG_VALUE: ecdsa_verify_restartable:grp <- $r4
	@DEBUG_VALUE: ecdsa_verify_restartable:r <- [DW_OP_plus_uconst 136] [$sp+0]
	@DEBUG_VALUE: ecdsa_verify_restartable:s <- [DW_OP_plus_uconst 140] [$sp+0]
	@DEBUG_VALUE: ecdsa_verify_restartable:pu1 <- [DW_OP_plus_uconst 80, DW_OP_stack_value] $sp
	@DEBUG_VALUE: ecdsa_verify_restartable:pu2 <- [DW_OP_plus_uconst 68, DW_OP_stack_value] $sp
	.loc	3 0 0                           @ ../../../ThirdParty/mbedTLS/library/ecdsa.c:0:0
	ldr	r6, __arm_cp.5_1
	b	.LBB5_6
.Ltmp137:
.LBB5_4:
	@DEBUG_VALUE: ecdsa_verify_restartable:Q <- $r7
	@DEBUG_VALUE: ecdsa_verify_restartable:buf <- $r6
	@DEBUG_VALUE: ecdsa_verify_restartable:blen <- $r5
	@DEBUG_VALUE: ecdsa_verify_restartable:grp <- $r4
	@DEBUG_VALUE: ecdsa_verify_restartable:r <- [DW_OP_plus_uconst 136] [$sp+0]
	@DEBUG_VALUE: ecdsa_verify_restartable:s <- [DW_OP_plus_uconst 140] [$sp+0]
	@DEBUG_VALUE: ecdsa_verify_restartable:pu1 <- [DW_OP_plus_uconst 80, DW_OP_stack_value] $sp
	@DEBUG_VALUE: ecdsa_verify_restartable:pu2 <- [DW_OP_plus_uconst 68, DW_OP_stack_value] $sp
	ldr	r6, __arm_cp.5_0
.Ltmp138:
	b	.LBB5_7
.Ltmp139:
.LBB5_5:
	@DEBUG_VALUE: ecdsa_verify_restartable:Q <- [DW_OP_plus_uconst 28] [$sp+0]
	@DEBUG_VALUE: ecdsa_verify_restartable:buf <- $r6
	@DEBUG_VALUE: ecdsa_verify_restartable:blen <- $r5
	@DEBUG_VALUE: ecdsa_verify_restartable:grp <- $r4
	@DEBUG_VALUE: ecdsa_verify_restartable:r <- [DW_OP_plus_uconst 136] [$sp+0]
	@DEBUG_VALUE: ecdsa_verify_restartable:s <- [DW_OP_plus_uconst 140] [$sp+0]
	@DEBUG_VALUE: ecdsa_verify_restartable:pu1 <- [DW_OP_plus_uconst 80, DW_OP_stack_value] $sp
	@DEBUG_VALUE: ecdsa_verify_restartable:pu2 <- [DW_OP_plus_uconst 68, DW_OP_stack_value] $sp
	mov	r6, r1
.Ltmp140:
.LBB5_6:
	@DEBUG_VALUE: ecdsa_verify_restartable:grp <- $r4
	@DEBUG_VALUE: ecdsa_verify_restartable:r <- [DW_OP_plus_uconst 136] [$sp+0]
	@DEBUG_VALUE: ecdsa_verify_restartable:s <- [DW_OP_plus_uconst 140] [$sp+0]
	@DEBUG_VALUE: ecdsa_verify_restartable:pu1 <- [DW_OP_plus_uconst 80, DW_OP_stack_value] $sp
	@DEBUG_VALUE: ecdsa_verify_restartable:pu2 <- [DW_OP_plus_uconst 68, DW_OP_stack_value] $sp
	@DEBUG_VALUE: ecdsa_verify_restartable:ret <- $r6
	@DEBUG_LABEL: ecdsa_verify_restartable:cleanup
	add	r0, sp, #32
	.loc	3 591 5 is_stmt 1               @ ../../../ThirdParty/mbedTLS/library/ecdsa.c:591:5
	bl	mbedtls_ecp_point_free
	add	r0, sp, #104
	.loc	3 592 5                         @ ../../../ThirdParty/mbedTLS/library/ecdsa.c:592:5
	bl	mbedtls_mpi_free
	add	r0, sp, #92
	.loc	3 593 5                         @ ../../../ThirdParty/mbedTLS/library/ecdsa.c:593:5
	bl	mbedtls_mpi_free
	add	r0, sp, #80
	.loc	3 594 5                         @ ../../../ThirdParty/mbedTLS/library/ecdsa.c:594:5
	bl	mbedtls_mpi_free
	add	r0, sp, #68
	.loc	3 595 5                         @ ../../../ThirdParty/mbedTLS/library/ecdsa.c:595:5
	bl	mbedtls_mpi_free
.Ltmp141:
.LBB5_7:
	@DEBUG_VALUE: ecdsa_verify_restartable:grp <- $r4
	@DEBUG_VALUE: ecdsa_verify_restartable:r <- [DW_OP_plus_uconst 136] [$sp+0]
	@DEBUG_VALUE: ecdsa_verify_restartable:s <- [DW_OP_plus_uconst 140] [$sp+0]
	@DEBUG_VALUE: ecdsa_verify_restartable:pu1 <- [DW_OP_plus_uconst 80, DW_OP_stack_value] $sp
	@DEBUG_VALUE: ecdsa_verify_restartable:pu2 <- [DW_OP_plus_uconst 68, DW_OP_stack_value] $sp
	.loc	3 600 1                         @ ../../../ThirdParty/mbedTLS/library/ecdsa.c:600:1
	mov	r0, r6
	add	sp, #116
.Ltmp142:
	pop	{r4, r5, r6, r7, pc}
.Ltmp143:
.LBB5_8:
	@DEBUG_VALUE: ecdsa_verify_restartable:blen <- [DW_OP_plus_uconst 24] [$sp+0]
	@DEBUG_VALUE: ecdsa_verify_restartable:Q <- [DW_OP_plus_uconst 28] [$sp+0]
	@DEBUG_VALUE: ecdsa_verify_restartable:buf <- $r6
	@DEBUG_VALUE: ecdsa_verify_restartable:grp <- $r4
	@DEBUG_VALUE: ecdsa_verify_restartable:r <- [DW_OP_plus_uconst 136] [$sp+0]
	@DEBUG_VALUE: ecdsa_verify_restartable:s <- [DW_OP_plus_uconst 140] [$sp+0]
	@DEBUG_VALUE: ecdsa_verify_restartable:pu1 <- [DW_OP_plus_uconst 80, DW_OP_stack_value] $sp
	@DEBUG_VALUE: ecdsa_verify_restartable:pu2 <- [DW_OP_plus_uconst 68, DW_OP_stack_value] $sp
	.loc	3 0 1 is_stmt 0                 @ ../../../ThirdParty/mbedTLS/library/ecdsa.c:0:1
	str	r5, [sp, #16]                   @ 4-byte Spill
	str	r7, [sp, #12]                   @ 4-byte Spill
	ldr	r5, [sp, #140]
	movs	r1, #1
.Ltmp144:
	.loc	3 533 13 is_stmt 1              @ ../../../ThirdParty/mbedTLS/library/ecdsa.c:533:13
	mov	r0, r5
	bl	mbedtls_mpi_cmp_int
	.loc	3 533 45 is_stmt 0              @ ../../../ThirdParty/mbedTLS/library/ecdsa.c:533:45
	cmp	r0, #0
	bmi	.LBB5_3
.Ltmp145:
@ %bb.9:
	@DEBUG_VALUE: ecdsa_verify_restartable:blen <- [DW_OP_plus_uconst 24] [$sp+0]
	@DEBUG_VALUE: ecdsa_verify_restartable:Q <- [DW_OP_plus_uconst 28] [$sp+0]
	@DEBUG_VALUE: ecdsa_verify_restartable:buf <- $r6
	@DEBUG_VALUE: ecdsa_verify_restartable:grp <- $r4
	@DEBUG_VALUE: ecdsa_verify_restartable:r <- [DW_OP_plus_uconst 136] [$sp+0]
	@DEBUG_VALUE: ecdsa_verify_restartable:s <- [DW_OP_plus_uconst 140] [$sp+0]
	@DEBUG_VALUE: ecdsa_verify_restartable:pu1 <- [DW_OP_plus_uconst 80, DW_OP_stack_value] $sp
	@DEBUG_VALUE: ecdsa_verify_restartable:pu2 <- [DW_OP_plus_uconst 68, DW_OP_stack_value] $sp
	.loc	3 533 48                        @ ../../../ThirdParty/mbedTLS/library/ecdsa.c:533:48
	mov	r0, r5
	ldr	r7, [sp, #16]                   @ 4-byte Reload
	mov	r1, r7
	bl	mbedtls_mpi_cmp_mpi
.Ltmp146:
	.loc	3 532 9 is_stmt 1               @ ../../../ThirdParty/mbedTLS/library/ecdsa.c:532:9
	cmp	r0, #0
	bpl	.LBB5_3
.Ltmp147:
@ %bb.10:
	@DEBUG_VALUE: ecdsa_verify_restartable:blen <- [DW_OP_plus_uconst 24] [$sp+0]
	@DEBUG_VALUE: ecdsa_verify_restartable:Q <- [DW_OP_plus_uconst 28] [$sp+0]
	@DEBUG_VALUE: ecdsa_verify_restartable:buf <- $r6
	@DEBUG_VALUE: ecdsa_verify_restartable:grp <- $r4
	@DEBUG_VALUE: ecdsa_verify_restartable:r <- [DW_OP_plus_uconst 136] [$sp+0]
	@DEBUG_VALUE: ecdsa_verify_restartable:s <- [DW_OP_plus_uconst 140] [$sp+0]
	@DEBUG_VALUE: ecdsa_verify_restartable:pu1 <- [DW_OP_plus_uconst 80, DW_OP_stack_value] $sp
	@DEBUG_VALUE: ecdsa_verify_restartable:pu2 <- [DW_OP_plus_uconst 68, DW_OP_stack_value] $sp
	.loc	3 0 9 is_stmt 0                 @ ../../../ThirdParty/mbedTLS/library/ecdsa.c:0:9
	add	r1, sp, #104
.Ltmp148:
	.loc	3 542 5 is_stmt 1               @ ../../../ThirdParty/mbedTLS/library/ecdsa.c:542:5
	mov	r0, r4
	mov	r2, r6
	ldr	r3, [sp, #24]                   @ 4-byte Reload
.Ltmp149:
	@DEBUG_VALUE: ecdsa_verify_restartable:blen <- $r3
	bl	derive_mpi
.Ltmp150:
	mov	r6, r0
.Ltmp151:
	@DEBUG_VALUE: ecdsa_verify_restartable:ret <- $r6
	.loc	3 542 5 is_stmt 0               @ ../../../ThirdParty/mbedTLS/library/ecdsa.c:542:5
	cmp	r0, #0
	bne	.LBB5_6
.Ltmp152:
@ %bb.11:
	@DEBUG_VALUE: ecdsa_verify_restartable:Q <- [DW_OP_plus_uconst 28] [$sp+0]
	@DEBUG_VALUE: ecdsa_verify_restartable:ret <- $r6
	@DEBUG_VALUE: ecdsa_verify_restartable:grp <- $r4
	@DEBUG_VALUE: ecdsa_verify_restartable:r <- [DW_OP_plus_uconst 136] [$sp+0]
	@DEBUG_VALUE: ecdsa_verify_restartable:s <- [DW_OP_plus_uconst 140] [$sp+0]
	@DEBUG_VALUE: ecdsa_verify_restartable:pu1 <- [DW_OP_plus_uconst 80, DW_OP_stack_value] $sp
	@DEBUG_VALUE: ecdsa_verify_restartable:pu2 <- [DW_OP_plus_uconst 68, DW_OP_stack_value] $sp
	.loc	3 0 5                           @ ../../../ThirdParty/mbedTLS/library/ecdsa.c:0:5
	add	r0, sp, #92
.Ltmp153:
	.loc	3 549 5 is_stmt 1               @ ../../../ThirdParty/mbedTLS/library/ecdsa.c:549:5
	mov	r1, r5
	mov	r2, r7
	bl	mbedtls_mpi_inv_mod
	mov	r6, r0
.Ltmp154:
	@DEBUG_VALUE: ecdsa_verify_restartable:ret <- $r6
	.loc	3 549 5 is_stmt 0               @ ../../../ThirdParty/mbedTLS/library/ecdsa.c:549:5
	cmp	r0, #0
	bne	.LBB5_6
.Ltmp155:
@ %bb.12:
	@DEBUG_VALUE: ecdsa_verify_restartable:Q <- [DW_OP_plus_uconst 28] [$sp+0]
	@DEBUG_VALUE: ecdsa_verify_restartable:ret <- $r6
	@DEBUG_VALUE: ecdsa_verify_restartable:grp <- $r4
	@DEBUG_VALUE: ecdsa_verify_restartable:r <- [DW_OP_plus_uconst 136] [$sp+0]
	@DEBUG_VALUE: ecdsa_verify_restartable:s <- [DW_OP_plus_uconst 140] [$sp+0]
	@DEBUG_VALUE: ecdsa_verify_restartable:pu1 <- [DW_OP_plus_uconst 80, DW_OP_stack_value] $sp
	@DEBUG_VALUE: ecdsa_verify_restartable:pu2 <- [DW_OP_plus_uconst 68, DW_OP_stack_value] $sp
	.loc	3 0 5                           @ ../../../ThirdParty/mbedTLS/library/ecdsa.c:0:5
	add	r0, sp, #80
	add	r1, sp, #104
	add	r2, sp, #92
.Ltmp156:
	.loc	3 551 5 is_stmt 1               @ ../../../ThirdParty/mbedTLS/library/ecdsa.c:551:5
	bl	mbedtls_mpi_mul_mpi
	mov	r6, r0
.Ltmp157:
	@DEBUG_VALUE: ecdsa_verify_restartable:ret <- $r6
	.loc	3 551 5 is_stmt 0               @ ../../../ThirdParty/mbedTLS/library/ecdsa.c:551:5
	cmp	r0, #0
	bne	.LBB5_6
.Ltmp158:
@ %bb.13:
	@DEBUG_VALUE: ecdsa_verify_restartable:Q <- [DW_OP_plus_uconst 28] [$sp+0]
	@DEBUG_VALUE: ecdsa_verify_restartable:ret <- $r6
	@DEBUG_VALUE: ecdsa_verify_restartable:grp <- $r4
	@DEBUG_VALUE: ecdsa_verify_restartable:r <- [DW_OP_plus_uconst 136] [$sp+0]
	@DEBUG_VALUE: ecdsa_verify_restartable:s <- [DW_OP_plus_uconst 140] [$sp+0]
	@DEBUG_VALUE: ecdsa_verify_restartable:pu1 <- [DW_OP_plus_uconst 80, DW_OP_stack_value] $sp
	@DEBUG_VALUE: ecdsa_verify_restartable:pu2 <- [DW_OP_plus_uconst 68, DW_OP_stack_value] $sp
	.loc	3 0 5                           @ ../../../ThirdParty/mbedTLS/library/ecdsa.c:0:5
	add	r0, sp, #80
.Ltmp159:
	.loc	3 552 5 is_stmt 1               @ ../../../ThirdParty/mbedTLS/library/ecdsa.c:552:5
	mov	r1, r0
	mov	r2, r7
	bl	mbedtls_mpi_mod_mpi
	mov	r6, r0
.Ltmp160:
	@DEBUG_VALUE: ecdsa_verify_restartable:ret <- $r6
	.loc	3 552 5 is_stmt 0               @ ../../../ThirdParty/mbedTLS/library/ecdsa.c:552:5
	cmp	r0, #0
	bne	.LBB5_6
.Ltmp161:
@ %bb.14:
	@DEBUG_VALUE: ecdsa_verify_restartable:Q <- [DW_OP_plus_uconst 28] [$sp+0]
	@DEBUG_VALUE: ecdsa_verify_restartable:ret <- $r6
	@DEBUG_VALUE: ecdsa_verify_restartable:grp <- $r4
	@DEBUG_VALUE: ecdsa_verify_restartable:r <- [DW_OP_plus_uconst 136] [$sp+0]
	@DEBUG_VALUE: ecdsa_verify_restartable:s <- [DW_OP_plus_uconst 140] [$sp+0]
	@DEBUG_VALUE: ecdsa_verify_restartable:pu1 <- [DW_OP_plus_uconst 80, DW_OP_stack_value] $sp
	@DEBUG_VALUE: ecdsa_verify_restartable:pu2 <- [DW_OP_plus_uconst 68, DW_OP_stack_value] $sp
	.loc	3 0 5                           @ ../../../ThirdParty/mbedTLS/library/ecdsa.c:0:5
	add	r0, sp, #68
	add	r2, sp, #92
.Ltmp162:
	.loc	3 554 5 is_stmt 1               @ ../../../ThirdParty/mbedTLS/library/ecdsa.c:554:5
	ldr	r1, [sp, #12]                   @ 4-byte Reload
	bl	mbedtls_mpi_mul_mpi
	mov	r6, r0
.Ltmp163:
	@DEBUG_VALUE: ecdsa_verify_restartable:ret <- $r6
	.loc	3 554 5 is_stmt 0               @ ../../../ThirdParty/mbedTLS/library/ecdsa.c:554:5
	cmp	r0, #0
	bne	.LBB5_6
.Ltmp164:
@ %bb.15:
	@DEBUG_VALUE: ecdsa_verify_restartable:Q <- [DW_OP_plus_uconst 28] [$sp+0]
	@DEBUG_VALUE: ecdsa_verify_restartable:ret <- $r6
	@DEBUG_VALUE: ecdsa_verify_restartable:grp <- $r4
	@DEBUG_VALUE: ecdsa_verify_restartable:r <- [DW_OP_plus_uconst 136] [$sp+0]
	@DEBUG_VALUE: ecdsa_verify_restartable:s <- [DW_OP_plus_uconst 140] [$sp+0]
	@DEBUG_VALUE: ecdsa_verify_restartable:pu1 <- [DW_OP_plus_uconst 80, DW_OP_stack_value] $sp
	@DEBUG_VALUE: ecdsa_verify_restartable:pu2 <- [DW_OP_plus_uconst 68, DW_OP_stack_value] $sp
	.loc	3 0 5                           @ ../../../ThirdParty/mbedTLS/library/ecdsa.c:0:5
	add	r0, sp, #68
.Ltmp165:
	.loc	3 555 5 is_stmt 1               @ ../../../ThirdParty/mbedTLS/library/ecdsa.c:555:5
	mov	r1, r0
	mov	r2, r7
	bl	mbedtls_mpi_mod_mpi
	mov	r6, r0
.Ltmp166:
	@DEBUG_VALUE: ecdsa_verify_restartable:ret <- $r6
	.loc	3 555 5 is_stmt 0               @ ../../../ThirdParty/mbedTLS/library/ecdsa.c:555:5
	cmp	r0, #0
	bne	.LBB5_6
.Ltmp167:
@ %bb.16:
	@DEBUG_VALUE: ecdsa_verify_restartable:Q <- [DW_OP_plus_uconst 28] [$sp+0]
	@DEBUG_VALUE: ecdsa_verify_restartable:ret <- $r6
	@DEBUG_VALUE: ecdsa_verify_restartable:grp <- $r4
	@DEBUG_VALUE: ecdsa_verify_restartable:r <- [DW_OP_plus_uconst 136] [$sp+0]
	@DEBUG_VALUE: ecdsa_verify_restartable:s <- [DW_OP_plus_uconst 140] [$sp+0]
	@DEBUG_VALUE: ecdsa_verify_restartable:pu1 <- [DW_OP_plus_uconst 80, DW_OP_stack_value] $sp
	@DEBUG_VALUE: ecdsa_verify_restartable:pu2 <- [DW_OP_plus_uconst 68, DW_OP_stack_value] $sp
	.loc	3 0 5                           @ ../../../ThirdParty/mbedTLS/library/ecdsa.c:0:5
	movs	r0, #0
.Ltmp168:
	.loc	3 566 5 is_stmt 1               @ ../../../ThirdParty/mbedTLS/library/ecdsa.c:566:5
	str	r0, [sp, #8]
	ldr	r0, [sp, #28]                   @ 4-byte Reload
.Ltmp169:
	@DEBUG_VALUE: ecdsa_verify_restartable:Q <- $r0
	str	r0, [sp, #4]
	add	r0, sp, #68
.Ltmp170:
	str	r0, [sp]
	mov	r3, r4
	adds	r3, #40
	add	r1, sp, #32
	add	r2, sp, #80
	mov	r0, r4
	bl	mbedtls_ecp_muladd_restartable
	mov	r6, r0
.Ltmp171:
	@DEBUG_VALUE: ecdsa_verify_restartable:ret <- $r6
	.loc	3 566 5 is_stmt 0               @ ../../../ThirdParty/mbedTLS/library/ecdsa.c:566:5
	cmp	r0, #0
	bne	.LBB5_6
.Ltmp172:
@ %bb.17:
	@DEBUG_VALUE: ecdsa_verify_restartable:ret <- $r6
	@DEBUG_VALUE: ecdsa_verify_restartable:grp <- $r4
	@DEBUG_VALUE: ecdsa_verify_restartable:r <- [DW_OP_plus_uconst 136] [$sp+0]
	@DEBUG_VALUE: ecdsa_verify_restartable:s <- [DW_OP_plus_uconst 140] [$sp+0]
	@DEBUG_VALUE: ecdsa_verify_restartable:pu1 <- [DW_OP_plus_uconst 80, DW_OP_stack_value] $sp
	@DEBUG_VALUE: ecdsa_verify_restartable:pu2 <- [DW_OP_plus_uconst 68, DW_OP_stack_value] $sp
	.loc	3 0 5                           @ ../../../ThirdParty/mbedTLS/library/ecdsa.c:0:5
	add	r0, sp, #32
.Ltmp173:
	.loc	3 569 9 is_stmt 1               @ ../../../ThirdParty/mbedTLS/library/ecdsa.c:569:9
	bl	mbedtls_ecp_is_zero
.Ltmp174:
	.loc	3 569 9 is_stmt 0               @ ../../../ThirdParty/mbedTLS/library/ecdsa.c:569:9
	cmp	r0, #0
	bne	.LBB5_3
.Ltmp175:
@ %bb.18:
	@DEBUG_VALUE: ecdsa_verify_restartable:ret <- $r6
	@DEBUG_VALUE: ecdsa_verify_restartable:grp <- $r4
	@DEBUG_VALUE: ecdsa_verify_restartable:r <- [DW_OP_plus_uconst 136] [$sp+0]
	@DEBUG_VALUE: ecdsa_verify_restartable:s <- [DW_OP_plus_uconst 140] [$sp+0]
	@DEBUG_VALUE: ecdsa_verify_restartable:pu1 <- [DW_OP_plus_uconst 80, DW_OP_stack_value] $sp
	@DEBUG_VALUE: ecdsa_verify_restartable:pu2 <- [DW_OP_plus_uconst 68, DW_OP_stack_value] $sp
	.loc	3 0 9                           @ ../../../ThirdParty/mbedTLS/library/ecdsa.c:0:9
	add	r0, sp, #32
.Ltmp176:
	.loc	3 579 5 is_stmt 1               @ ../../../ThirdParty/mbedTLS/library/ecdsa.c:579:5
	mov	r1, r0
	ldr	r2, [sp, #16]                   @ 4-byte Reload
	bl	mbedtls_mpi_mod_mpi
	mov	r6, r0
.Ltmp177:
	@DEBUG_VALUE: ecdsa_verify_restartable:ret <- $r6
	.loc	3 579 5 is_stmt 0               @ ../../../ThirdParty/mbedTLS/library/ecdsa.c:579:5
	cmp	r0, #0
	bne	.LBB5_6
.Ltmp178:
@ %bb.19:
	@DEBUG_VALUE: ecdsa_verify_restartable:ret <- $r6
	@DEBUG_VALUE: ecdsa_verify_restartable:grp <- $r4
	@DEBUG_VALUE: ecdsa_verify_restartable:r <- [DW_OP_plus_uconst 136] [$sp+0]
	@DEBUG_VALUE: ecdsa_verify_restartable:s <- [DW_OP_plus_uconst 140] [$sp+0]
	@DEBUG_VALUE: ecdsa_verify_restartable:pu1 <- [DW_OP_plus_uconst 80, DW_OP_stack_value] $sp
	@DEBUG_VALUE: ecdsa_verify_restartable:pu2 <- [DW_OP_plus_uconst 68, DW_OP_stack_value] $sp
	.loc	3 0 5                           @ ../../../ThirdParty/mbedTLS/library/ecdsa.c:0:5
	add	r0, sp, #32
.Ltmp179:
	.loc	3 584 9 is_stmt 1               @ ../../../ThirdParty/mbedTLS/library/ecdsa.c:584:9
	ldr	r1, [sp, #12]                   @ 4-byte Reload
	bl	mbedtls_mpi_cmp_mpi
.Ltmp180:
	.loc	3 584 9 is_stmt 0               @ ../../../ThirdParty/mbedTLS/library/ecdsa.c:584:9
	cbnz	r0, .LBB5_21
.Ltmp181:
@ %bb.20:
	@DEBUG_VALUE: ecdsa_verify_restartable:ret <- $r6
	@DEBUG_VALUE: ecdsa_verify_restartable:grp <- $r4
	@DEBUG_VALUE: ecdsa_verify_restartable:r <- [DW_OP_plus_uconst 136] [$sp+0]
	@DEBUG_VALUE: ecdsa_verify_restartable:s <- [DW_OP_plus_uconst 140] [$sp+0]
	@DEBUG_VALUE: ecdsa_verify_restartable:pu1 <- [DW_OP_plus_uconst 80, DW_OP_stack_value] $sp
	@DEBUG_VALUE: ecdsa_verify_restartable:pu2 <- [DW_OP_plus_uconst 68, DW_OP_stack_value] $sp
	str	r0, [sp, #20]                   @ 4-byte Spill
.Ltmp182:
.LBB5_21:
	@DEBUG_VALUE: ecdsa_verify_restartable:ret <- $r6
	@DEBUG_VALUE: ecdsa_verify_restartable:grp <- $r4
	@DEBUG_VALUE: ecdsa_verify_restartable:r <- [DW_OP_plus_uconst 136] [$sp+0]
	@DEBUG_VALUE: ecdsa_verify_restartable:s <- [DW_OP_plus_uconst 140] [$sp+0]
	@DEBUG_VALUE: ecdsa_verify_restartable:pu1 <- [DW_OP_plus_uconst 80, DW_OP_stack_value] $sp
	@DEBUG_VALUE: ecdsa_verify_restartable:pu2 <- [DW_OP_plus_uconst 68, DW_OP_stack_value] $sp
	.loc	3 0 0                           @ ../../../ThirdParty/mbedTLS/library/ecdsa.c:0:0
	ldr	r6, [sp, #20]                   @ 4-byte Reload
.Ltmp183:
	b	.LBB5_6
.Ltmp184:
	.p2align	2
@ %bb.22:
__arm_cp.5_0:
	.long	4294946944                      @ 0xffffb080
.Lcpi_end4:
	.size	__arm_cp.5_0, .Lcpi_end4-__arm_cp.5_0
__arm_cp.5_1:
	.long	4294947328                      @ 0xffffb200
.Lcpi_end5:
	.size	__arm_cp.5_1, .Lcpi_end5-__arm_cp.5_1
.Lfunc_end5:
	.size	ecdsa_verify_restartable, .Lfunc_end5-ecdsa_verify_restartable
	.cfi_endproc
	.cantunwind
	.fnend
                                        @ -- End function
	.section	.text.mbedtls_ecdsa_write_signature_restartable,"ax",%progbits
	.hidden	mbedtls_ecdsa_write_signature_restartable @ -- Begin function mbedtls_ecdsa_write_signature_restartable
	.globl	mbedtls_ecdsa_write_signature_restartable
	.p2align	1
	.type	mbedtls_ecdsa_write_signature_restartable,%function
	.code	16                              @ @mbedtls_ecdsa_write_signature_restartable
	.thumb_func
mbedtls_ecdsa_write_signature_restartable:
.Lfunc_begin6:
	.loc	3 655 0 is_stmt 1               @ ../../../ThirdParty/mbedTLS/library/ecdsa.c:655:0
	.fnstart
	.cfi_startproc
@ %bb.0:
	@DEBUG_VALUE: mbedtls_ecdsa_write_signature_restartable:ctx <- $r0
	@DEBUG_VALUE: mbedtls_ecdsa_write_signature_restartable:md_alg <- $r1
	@DEBUG_VALUE: mbedtls_ecdsa_write_signature_restartable:hash <- $r2
	@DEBUG_VALUE: mbedtls_ecdsa_write_signature_restartable:hlen <- $r3
	.save	{r4, r5, r6, r7, lr}
	push	{r4, r5, r6, r7, lr}
	.cfi_def_cfa_offset 20
	.cfi_offset lr, -4
	.cfi_offset r7, -8
	.cfi_offset r6, -12
	.cfi_offset r5, -16
	.cfi_offset r4, -20
	.pad	#44
	sub	sp, #44
	.cfi_def_cfa_offset 64
	str	r3, [sp, #16]                   @ 4-byte Spill
	mov	r6, r2
	str	r1, [sp, #12]                   @ 4-byte Spill
	mov	r4, r0
	@DEBUG_VALUE: mbedtls_ecdsa_write_signature_restartable:rs_ctx <- undef
	@DEBUG_VALUE: mbedtls_ecdsa_write_signature_restartable:p_rng <- undef
	@DEBUG_VALUE: mbedtls_ecdsa_write_signature_restartable:f_rng <- undef
.Ltmp185:
	@DEBUG_VALUE: mbedtls_ecdsa_write_signature_restartable:slen <- [DW_OP_plus_uconst 68] [$sp+0]
	@DEBUG_VALUE: mbedtls_ecdsa_write_signature_restartable:sig <- [DW_OP_plus_uconst 64] [$sp+0]
	@DEBUG_VALUE: mbedtls_ecdsa_write_signature_restartable:hlen <- [DW_OP_plus_uconst 16] [$sp+0]
	@DEBUG_VALUE: mbedtls_ecdsa_write_signature_restartable:hash <- $r6
	@DEBUG_VALUE: mbedtls_ecdsa_write_signature_restartable:md_alg <- [DW_OP_plus_uconst 12] [$sp+0]
	@DEBUG_VALUE: mbedtls_ecdsa_write_signature_restartable:ctx <- $r4
	add	r5, sp, #32
.Ltmp186:
	.loc	3 663 5 prologue_end            @ ../../../ThirdParty/mbedTLS/library/ecdsa.c:663:5
	mov	r0, r5
	bl	mbedtls_mpi_init
	add	r7, sp, #20
	.loc	3 664 5                         @ ../../../ThirdParty/mbedTLS/library/ecdsa.c:664:5
	mov	r0, r7
	bl	mbedtls_mpi_init
.Ltmp187:
	.loc	3 670 5                         @ ../../../ThirdParty/mbedTLS/library/ecdsa.c:670:5
	str	r6, [sp]
	ldr	r0, [sp, #16]                   @ 4-byte Reload
.Ltmp188:
	@DEBUG_VALUE: mbedtls_ecdsa_write_signature_restartable:hlen <- $r0
	str	r0, [sp, #4]
	ldr	r0, [sp, #12]                   @ 4-byte Reload
.Ltmp189:
	@DEBUG_VALUE: mbedtls_ecdsa_write_signature_restartable:md_alg <- $r0
	str	r0, [sp, #8]
	mov	r3, r4
	adds	r3, #124
	mov	r0, r4
.Ltmp190:
	mov	r1, r5
	mov	r2, r7
	bl	ecdsa_sign_det_restartable
	mov	r4, r0
.Ltmp191:
	@DEBUG_VALUE: mbedtls_ecdsa_write_signature_restartable:ret <- $r4
	.loc	3 670 5 is_stmt 0               @ ../../../ThirdParty/mbedTLS/library/ecdsa.c:670:5
	cbnz	r0, .LBB6_2
.Ltmp192:
@ %bb.1:
	@DEBUG_VALUE: mbedtls_ecdsa_write_signature_restartable:hash <- $r6
	@DEBUG_VALUE: mbedtls_ecdsa_write_signature_restartable:ret <- $r4
	@DEBUG_VALUE: mbedtls_ecdsa_write_signature_restartable:sig <- [DW_OP_plus_uconst 64] [$sp+0]
	@DEBUG_VALUE: mbedtls_ecdsa_write_signature_restartable:slen <- [DW_OP_plus_uconst 68] [$sp+0]
	.loc	3 0 5                           @ ../../../ThirdParty/mbedTLS/library/ecdsa.c:0:5
	ldr	r3, [sp, #68]
	ldr	r2, [sp, #64]
	add	r0, sp, #32
	add	r1, sp, #20
.Ltmp193:
	.loc	3 684 5 is_stmt 1               @ ../../../ThirdParty/mbedTLS/library/ecdsa.c:684:5
	bl	ecdsa_signature_to_asn1
	mov	r4, r0
.Ltmp194:
	@DEBUG_VALUE: mbedtls_ecdsa_write_signature_restartable:ret <- $r4
.LBB6_2:
	@DEBUG_VALUE: mbedtls_ecdsa_write_signature_restartable:hash <- $r6
	@DEBUG_VALUE: mbedtls_ecdsa_write_signature_restartable:ret <- $r4
	@DEBUG_VALUE: mbedtls_ecdsa_write_signature_restartable:sig <- [DW_OP_plus_uconst 64] [$sp+0]
	@DEBUG_VALUE: mbedtls_ecdsa_write_signature_restartable:slen <- [DW_OP_plus_uconst 68] [$sp+0]
	@DEBUG_VALUE: mbedtls_ecdsa_write_signature_restartable:ret <- $r4
	@DEBUG_LABEL: mbedtls_ecdsa_write_signature_restartable:cleanup
	.loc	3 0 5 is_stmt 0                 @ ../../../ThirdParty/mbedTLS/library/ecdsa.c:0:5
	add	r0, sp, #32
	.loc	3 687 5 is_stmt 1               @ ../../../ThirdParty/mbedTLS/library/ecdsa.c:687:5
	bl	mbedtls_mpi_free
	add	r0, sp, #20
	.loc	3 688 5                         @ ../../../ThirdParty/mbedTLS/library/ecdsa.c:688:5
	bl	mbedtls_mpi_free
	.loc	3 690 5                         @ ../../../ThirdParty/mbedTLS/library/ecdsa.c:690:5
	mov	r0, r4
	add	sp, #44
.Ltmp195:
	pop	{r4, r5, r6, r7, pc}
.Ltmp196:
.Lfunc_end6:
	.size	mbedtls_ecdsa_write_signature_restartable, .Lfunc_end6-mbedtls_ecdsa_write_signature_restartable
	.cfi_endproc
	.cantunwind
	.fnend
                                        @ -- End function
	.section	.text.ecdsa_signature_to_asn1,"ax",%progbits
	.p2align	1                               @ -- Begin function ecdsa_signature_to_asn1
	.type	ecdsa_signature_to_asn1,%function
	.code	16                              @ @ecdsa_signature_to_asn1
	.thumb_func
ecdsa_signature_to_asn1:
.Lfunc_begin7:
	.loc	3 626 0                         @ ../../../ThirdParty/mbedTLS/library/ecdsa.c:626:0
	.fnstart
	.cfi_startproc
@ %bb.0:
	@DEBUG_VALUE: ecdsa_signature_to_asn1:r <- $r0
	@DEBUG_VALUE: ecdsa_signature_to_asn1:s <- $r1
	@DEBUG_VALUE: ecdsa_signature_to_asn1:sig <- $r2
	@DEBUG_VALUE: ecdsa_signature_to_asn1:slen <- $r3
	.save	{r4, r5, r6, r7, lr}
	push	{r4, r5, r6, r7, lr}
	.cfi_def_cfa_offset 20
	.cfi_offset lr, -4
	.cfi_offset r7, -8
	.cfi_offset r6, -12
	.cfi_offset r5, -16
	.cfi_offset r4, -20
	.pad	#148
	sub	sp, #148
	.cfi_def_cfa_offset 168
	mov	r4, r3
	mov	r5, r2
	mov	r2, r1
.Ltmp197:
	@DEBUG_VALUE: ecdsa_signature_to_asn1:sig <- [DW_OP_LLVM_entry_value 1] $r2
	mov	r7, r0
	add	r1, sp, #8
.Ltmp198:
	@DEBUG_VALUE: ecdsa_signature_to_asn1:s <- [DW_OP_LLVM_entry_value 1] $r1
	@DEBUG_VALUE: ecdsa_signature_to_asn1:slen <- $r4
	@DEBUG_VALUE: ecdsa_signature_to_asn1:sig <- $r5
	@DEBUG_VALUE: ecdsa_signature_to_asn1:s <- $r2
	@DEBUG_VALUE: ecdsa_signature_to_asn1:r <- $r7
	.loc	3 629 28 prologue_end           @ ../../../ThirdParty/mbedTLS/library/ecdsa.c:629:28
	mov	r0, r1
	adds	r0, #139
.Ltmp199:
	@DEBUG_VALUE: ecdsa_signature_to_asn1:p <- $r0
	.loc	3 629 20 is_stmt 0              @ ../../../ThirdParty/mbedTLS/library/ecdsa.c:629:20
	str	r0, [sp, #4]
.Ltmp200:
	@DEBUG_VALUE: ecdsa_signature_to_asn1:len <- 0
	@DEBUG_VALUE: ecdsa_signature_to_asn1:p <- [DW_OP_plus_uconst 4, DW_OP_deref] $sp
	.loc	3 0 20                          @ ../../../ThirdParty/mbedTLS/library/ecdsa.c:0:20
	add	r0, sp, #4
	@DEBUG_VALUE: ecdsa_signature_to_asn1:s <- $r2
.Ltmp201:
	.loc	3 632 5 is_stmt 1               @ ../../../ThirdParty/mbedTLS/library/ecdsa.c:632:5
	bl	mbedtls_asn1_write_mpi
.Ltmp202:
	mov	r6, r0
.Ltmp203:
	@DEBUG_VALUE: ecdsa_signature_to_asn1:ret <- $r6
	.loc	3 632 5 is_stmt 0               @ ../../../ThirdParty/mbedTLS/library/ecdsa.c:632:5
	cmp	r0, #0
	bmi	.LBB7_7
.Ltmp204:
@ %bb.1:
	@DEBUG_VALUE: ecdsa_signature_to_asn1:r <- $r7
	@DEBUG_VALUE: ecdsa_signature_to_asn1:ret <- $r6
	@DEBUG_VALUE: ecdsa_signature_to_asn1:sig <- $r5
	@DEBUG_VALUE: ecdsa_signature_to_asn1:slen <- $r4
	@DEBUG_VALUE: ecdsa_signature_to_asn1:p <- [DW_OP_plus_uconst 4, DW_OP_deref] $sp
	@DEBUG_VALUE: ecdsa_signature_to_asn1:len <- 0
	@DEBUG_VALUE: ecdsa_signature_to_asn1:p <- [DW_OP_plus_uconst 4, DW_OP_deref] $sp
	@DEBUG_VALUE: ecdsa_signature_to_asn1:len <- $r6
	.loc	3 0 5                           @ ../../../ThirdParty/mbedTLS/library/ecdsa.c:0:5
	add	r0, sp, #4
	add	r1, sp, #8
.Ltmp205:
	.loc	3 633 5 is_stmt 1               @ ../../../ThirdParty/mbedTLS/library/ecdsa.c:633:5
	mov	r2, r7
	bl	mbedtls_asn1_write_mpi
.Ltmp206:
	@DEBUG_VALUE: ecdsa_signature_to_asn1:ret <- $r0
	.loc	3 633 5 is_stmt 0               @ ../../../ThirdParty/mbedTLS/library/ecdsa.c:633:5
	cmp	r0, #0
	bmi	.LBB7_5
.Ltmp207:
@ %bb.2:
	@DEBUG_VALUE: ecdsa_signature_to_asn1:r <- $r7
	@DEBUG_VALUE: ecdsa_signature_to_asn1:len <- $r6
	@DEBUG_VALUE: ecdsa_signature_to_asn1:sig <- $r5
	@DEBUG_VALUE: ecdsa_signature_to_asn1:slen <- $r4
	@DEBUG_VALUE: ecdsa_signature_to_asn1:ret <- $r0
	@DEBUG_VALUE: ecdsa_signature_to_asn1:p <- [DW_OP_plus_uconst 4, DW_OP_deref] $sp
	.loc	3 633 5                         @ ../../../ThirdParty/mbedTLS/library/ecdsa.c:633:5
	adds	r7, r0, r6
.Ltmp208:
	@DEBUG_VALUE: ecdsa_signature_to_asn1:len <- $r7
	@DEBUG_VALUE: ecdsa_signature_to_asn1:p <- [DW_OP_plus_uconst 4, DW_OP_deref] $sp
	.loc	3 0 5                           @ ../../../ThirdParty/mbedTLS/library/ecdsa.c:0:5
	add	r0, sp, #4
.Ltmp209:
	add	r1, sp, #8
.Ltmp210:
	.loc	3 635 5 is_stmt 1               @ ../../../ThirdParty/mbedTLS/library/ecdsa.c:635:5
	mov	r2, r7
	bl	mbedtls_asn1_write_len
	mov	r6, r0
.Ltmp211:
	@DEBUG_VALUE: ecdsa_signature_to_asn1:ret <- $r6
	.loc	3 635 5 is_stmt 0               @ ../../../ThirdParty/mbedTLS/library/ecdsa.c:635:5
	cmp	r0, #0
	bmi	.LBB7_7
.Ltmp212:
@ %bb.3:
	@DEBUG_VALUE: ecdsa_signature_to_asn1:len <- $r7
	@DEBUG_VALUE: ecdsa_signature_to_asn1:ret <- $r6
	@DEBUG_VALUE: ecdsa_signature_to_asn1:sig <- $r5
	@DEBUG_VALUE: ecdsa_signature_to_asn1:slen <- $r4
	@DEBUG_VALUE: ecdsa_signature_to_asn1:p <- [DW_OP_plus_uconst 4, DW_OP_deref] $sp
	@DEBUG_VALUE: ecdsa_signature_to_asn1:p <- [DW_OP_plus_uconst 4, DW_OP_deref] $sp
	@DEBUG_VALUE: ecdsa_signature_to_asn1:len <- undef
	.loc	3 0 5                           @ ../../../ThirdParty/mbedTLS/library/ecdsa.c:0:5
	add	r0, sp, #4
	add	r1, sp, #8
	movs	r2, #48
.Ltmp213:
	.loc	3 636 5 is_stmt 1               @ ../../../ThirdParty/mbedTLS/library/ecdsa.c:636:5
	bl	mbedtls_asn1_write_tag
.Ltmp214:
	@DEBUG_VALUE: ecdsa_signature_to_asn1:ret <- $r0
	.loc	3 636 5 is_stmt 0               @ ../../../ThirdParty/mbedTLS/library/ecdsa.c:636:5
	cmp	r0, #0
	bmi	.LBB7_6
.Ltmp215:
@ %bb.4:
	@DEBUG_VALUE: ecdsa_signature_to_asn1:sig <- $r5
	@DEBUG_VALUE: ecdsa_signature_to_asn1:slen <- $r4
	@DEBUG_VALUE: ecdsa_signature_to_asn1:ret <- $r0
	@DEBUG_VALUE: ecdsa_signature_to_asn1:p <- [DW_OP_plus_uconst 4, DW_OP_deref] $sp
	.loc	3 635 5 is_stmt 1               @ ../../../ThirdParty/mbedTLS/library/ecdsa.c:635:5
	adds	r1, r6, r7
.Ltmp216:
	@DEBUG_VALUE: ecdsa_signature_to_asn1:len <- $r1
	.loc	3 636 5                         @ ../../../ThirdParty/mbedTLS/library/ecdsa.c:636:5
	adds	r6, r1, r0
.Ltmp217:
	@DEBUG_VALUE: ecdsa_signature_to_asn1:len <- $r6
	.loc	3 639 18                        @ ../../../ThirdParty/mbedTLS/library/ecdsa.c:639:18
	ldr	r1, [sp, #4]
.Ltmp218:
	@DEBUG_VALUE: ecdsa_signature_to_asn1:p <- $r1
	.loc	3 639 5 is_stmt 0               @ ../../../ThirdParty/mbedTLS/library/ecdsa.c:639:5
	mov	r0, r5
.Ltmp219:
	mov	r2, r6
	bl	__aeabi_memcpy
.Ltmp220:
	.loc	3 640 11 is_stmt 1              @ ../../../ThirdParty/mbedTLS/library/ecdsa.c:640:11
	str	r6, [r4]
	movs	r6, #0
.Ltmp221:
	.loc	3 0 11 is_stmt 0                @ ../../../ThirdParty/mbedTLS/library/ecdsa.c:0:11
	b	.LBB7_7
.Ltmp222:
.LBB7_5:
	@DEBUG_VALUE: ecdsa_signature_to_asn1:r <- $r7
	@DEBUG_VALUE: ecdsa_signature_to_asn1:len <- $r6
	@DEBUG_VALUE: ecdsa_signature_to_asn1:sig <- $r5
	@DEBUG_VALUE: ecdsa_signature_to_asn1:slen <- $r4
	@DEBUG_VALUE: ecdsa_signature_to_asn1:ret <- $r0
	@DEBUG_VALUE: ecdsa_signature_to_asn1:p <- [DW_OP_plus_uconst 4, DW_OP_deref] $sp
	mov	r6, r0
.Ltmp223:
	@DEBUG_VALUE: ecdsa_signature_to_asn1:ret <- $r6
	b	.LBB7_7
.Ltmp224:
.LBB7_6:
	@DEBUG_VALUE: ecdsa_signature_to_asn1:sig <- $r5
	@DEBUG_VALUE: ecdsa_signature_to_asn1:slen <- $r4
	@DEBUG_VALUE: ecdsa_signature_to_asn1:ret <- $r0
	@DEBUG_VALUE: ecdsa_signature_to_asn1:p <- [DW_OP_plus_uconst 4, DW_OP_deref] $sp
	mov	r6, r0
.Ltmp225:
	@DEBUG_VALUE: ecdsa_signature_to_asn1:ret <- $r6
.LBB7_7:
	@DEBUG_VALUE: ecdsa_signature_to_asn1:sig <- $r5
	@DEBUG_VALUE: ecdsa_signature_to_asn1:slen <- $r4
	.loc	3 643 1 is_stmt 1               @ ../../../ThirdParty/mbedTLS/library/ecdsa.c:643:1
	mov	r0, r6
	add	sp, #148
	pop	{r4, r5, r6, r7, pc}
.Ltmp226:
.Lfunc_end7:
	.size	ecdsa_signature_to_asn1, .Lfunc_end7-ecdsa_signature_to_asn1
	.cfi_endproc
	.cantunwind
	.fnend
                                        @ -- End function
	.section	.text.mbedtls_ecdsa_write_signature,"ax",%progbits
	.hidden	mbedtls_ecdsa_write_signature   @ -- Begin function mbedtls_ecdsa_write_signature
	.globl	mbedtls_ecdsa_write_signature
	.p2align	1
	.type	mbedtls_ecdsa_write_signature,%function
	.code	16                              @ @mbedtls_ecdsa_write_signature
	.thumb_func
mbedtls_ecdsa_write_signature:
.Lfunc_begin8:
	.loc	3 702 0                         @ ../../../ThirdParty/mbedTLS/library/ecdsa.c:702:0
	.fnstart
	.cfi_startproc
@ %bb.0:
	@DEBUG_VALUE: mbedtls_ecdsa_write_signature:ctx <- $r0
	@DEBUG_VALUE: mbedtls_ecdsa_write_signature:ctx <- $r0
	@DEBUG_VALUE: mbedtls_ecdsa_write_signature:md_alg <- $r1
	@DEBUG_VALUE: mbedtls_ecdsa_write_signature:md_alg <- $r1
	@DEBUG_VALUE: mbedtls_ecdsa_write_signature:hash <- $r2
	@DEBUG_VALUE: mbedtls_ecdsa_write_signature:hash <- $r2
	@DEBUG_VALUE: mbedtls_ecdsa_write_signature:hlen <- $r3
	@DEBUG_VALUE: mbedtls_ecdsa_write_signature:hlen <- $r3
	@DEBUG_VALUE: mbedtls_ecdsa_write_signature:f_rng <- undef
	@DEBUG_VALUE: mbedtls_ecdsa_write_signature:p_rng <- undef
	.save	{r4, lr}
	push	{r4, lr}
	.cfi_def_cfa_offset 8
	.cfi_offset lr, -4
	.cfi_offset r4, -8
	.pad	#24
	sub	sp, #24
	.cfi_def_cfa_offset 32
.Ltmp227:
	@DEBUG_VALUE: mbedtls_ecdsa_write_signature:sig <- [DW_OP_plus_uconst 32] [$sp+0]
	@DEBUG_VALUE: mbedtls_ecdsa_write_signature:slen <- [DW_OP_plus_uconst 36] [$sp+0]
	ldr	r4, [sp, #36]
.Ltmp228:
	.loc	3 707 13 prologue_end           @ ../../../ThirdParty/mbedTLS/library/ecdsa.c:707:13
	str	r4, [sp, #4]
	ldr	r4, [sp, #32]
	str	r4, [sp]
	@DEBUG_VALUE: mbedtls_ecdsa_write_signature:hlen <- $r3
	@DEBUG_VALUE: mbedtls_ecdsa_write_signature:hash <- $r2
	@DEBUG_VALUE: mbedtls_ecdsa_write_signature:md_alg <- $r1
	@DEBUG_VALUE: mbedtls_ecdsa_write_signature:ctx <- $r0
	bl	mbedtls_ecdsa_write_signature_restartable
.Ltmp229:
	@DEBUG_VALUE: mbedtls_ecdsa_write_signature:hlen <- [DW_OP_LLVM_entry_value 1] $r3
	@DEBUG_VALUE: mbedtls_ecdsa_write_signature:hash <- [DW_OP_LLVM_entry_value 1] $r2
	@DEBUG_VALUE: mbedtls_ecdsa_write_signature:md_alg <- [DW_OP_LLVM_entry_value 1] $r1
	@DEBUG_VALUE: mbedtls_ecdsa_write_signature:ctx <- [DW_OP_LLVM_entry_value 1] $r0
	.loc	3 707 5 is_stmt 0               @ ../../../ThirdParty/mbedTLS/library/ecdsa.c:707:5
	add	sp, #24
.Ltmp230:
	pop	{r4, pc}
.Ltmp231:
.Lfunc_end8:
	.size	mbedtls_ecdsa_write_signature, .Lfunc_end8-mbedtls_ecdsa_write_signature
	.cfi_endproc
	.cantunwind
	.fnend
                                        @ -- End function
	.section	.text.mbedtls_ecdsa_write_signature_det,"ax",%progbits
	.hidden	mbedtls_ecdsa_write_signature_det @ -- Begin function mbedtls_ecdsa_write_signature_det
	.globl	mbedtls_ecdsa_write_signature_det
	.p2align	1
	.type	mbedtls_ecdsa_write_signature_det,%function
	.code	16                              @ @mbedtls_ecdsa_write_signature_det
	.thumb_func
mbedtls_ecdsa_write_signature_det:
.Lfunc_begin9:
	.loc	3 717 0 is_stmt 1               @ ../../../ThirdParty/mbedTLS/library/ecdsa.c:717:0
	.fnstart
	.cfi_startproc
@ %bb.0:
	@DEBUG_VALUE: mbedtls_ecdsa_write_signature_det:ctx <- $r0
	@DEBUG_VALUE: mbedtls_ecdsa_write_signature_det:hash <- $r1
	@DEBUG_VALUE: mbedtls_ecdsa_write_signature_det:hlen <- $r2
	@DEBUG_VALUE: mbedtls_ecdsa_write_signature_det:sig <- $r3
	.save	{r4, lr}
	push	{r4, lr}
	.cfi_def_cfa_offset 8
	.cfi_offset lr, -4
	.cfi_offset r4, -8
	.pad	#16
	sub	sp, #16
	.cfi_def_cfa_offset 24
	mov	r4, r2
	mov	r2, r1
.Ltmp232:
	@DEBUG_VALUE: mbedtls_ecdsa_write_signature_det:hlen <- [DW_OP_LLVM_entry_value 1] $r2
	@DEBUG_VALUE: mbedtls_ecdsa_write_signature_det:md_alg <- undef
	@DEBUG_VALUE: mbedtls_ecdsa_write_signature_det:slen <- [DW_OP_plus_uconst 24] [$sp+0]
	@DEBUG_VALUE: mbedtls_ecdsa_write_signature_det:sig <- $r3
	@DEBUG_VALUE: mbedtls_ecdsa_write_signature_det:hlen <- $r4
	@DEBUG_VALUE: mbedtls_ecdsa_write_signature_det:hash <- $r2
	@DEBUG_VALUE: mbedtls_ecdsa_write_signature_det:ctx <- $r0
	ldr	r1, [sp, #24]
.Ltmp233:
	.loc	3 722 13 prologue_end           @ ../../../ThirdParty/mbedTLS/library/ecdsa.c:722:13
	str	r3, [sp]
	str	r1, [sp, #4]
	ldr	r1, [sp, #28]
	@DEBUG_VALUE: mbedtls_ecdsa_write_signature_det:hash <- $r2
	@DEBUG_VALUE: mbedtls_ecdsa_write_signature_det:ctx <- $r0
	mov	r3, r4
.Ltmp234:
	@DEBUG_VALUE: mbedtls_ecdsa_write_signature_det:sig <- [DW_OP_LLVM_entry_value 1] $r3
	@DEBUG_VALUE: mbedtls_ecdsa_write_signature_det:hlen <- $r3
	bl	mbedtls_ecdsa_write_signature
.Ltmp235:
	@DEBUG_VALUE: mbedtls_ecdsa_write_signature_det:ctx <- [DW_OP_LLVM_entry_value 1] $r0
	.loc	3 722 5 is_stmt 0               @ ../../../ThirdParty/mbedTLS/library/ecdsa.c:722:5
	add	sp, #16
.Ltmp236:
	pop	{r4, pc}
.Ltmp237:
.Lfunc_end9:
	.size	mbedtls_ecdsa_write_signature_det, .Lfunc_end9-mbedtls_ecdsa_write_signature_det
	.cfi_endproc
	.cantunwind
	.fnend
                                        @ -- End function
	.section	.text.mbedtls_ecdsa_read_signature,"ax",%progbits
	.hidden	mbedtls_ecdsa_read_signature    @ -- Begin function mbedtls_ecdsa_read_signature
	.globl	mbedtls_ecdsa_read_signature
	.p2align	1
	.type	mbedtls_ecdsa_read_signature,%function
	.code	16                              @ @mbedtls_ecdsa_read_signature
	.thumb_func
mbedtls_ecdsa_read_signature:
.Lfunc_begin10:
	.loc	3 733 0 is_stmt 1               @ ../../../ThirdParty/mbedTLS/library/ecdsa.c:733:0
	.fnstart
	.cfi_startproc
@ %bb.0:
	@DEBUG_VALUE: mbedtls_ecdsa_read_signature:ctx <- $r0
	@DEBUG_VALUE: mbedtls_ecdsa_read_signature:ctx <- $r0
	@DEBUG_VALUE: mbedtls_ecdsa_read_signature:hash <- $r1
	@DEBUG_VALUE: mbedtls_ecdsa_read_signature:hash <- $r1
	@DEBUG_VALUE: mbedtls_ecdsa_read_signature:hlen <- $r2
	@DEBUG_VALUE: mbedtls_ecdsa_read_signature:hlen <- $r2
	@DEBUG_VALUE: mbedtls_ecdsa_read_signature:sig <- $r3
	@DEBUG_VALUE: mbedtls_ecdsa_read_signature:sig <- $r3
	.save	{r4, lr}
	push	{r4, lr}
	.cfi_def_cfa_offset 8
	.cfi_offset lr, -4
	.cfi_offset r4, -8
	.pad	#8
	sub	sp, #8
	.cfi_def_cfa_offset 16
.Ltmp238:
	@DEBUG_VALUE: mbedtls_ecdsa_read_signature:slen <- [DW_OP_plus_uconst 16] [$sp+0]
	ldr	r4, [sp, #16]
.Ltmp239:
	.loc	3 737 13 prologue_end           @ ../../../ThirdParty/mbedTLS/library/ecdsa.c:737:13
	str	r4, [sp]
	@DEBUG_VALUE: mbedtls_ecdsa_read_signature:sig <- $r3
	@DEBUG_VALUE: mbedtls_ecdsa_read_signature:hlen <- $r2
	@DEBUG_VALUE: mbedtls_ecdsa_read_signature:hash <- $r1
	@DEBUG_VALUE: mbedtls_ecdsa_read_signature:ctx <- $r0
	bl	mbedtls_ecdsa_read_signature_restartable
.Ltmp240:
	@DEBUG_VALUE: mbedtls_ecdsa_read_signature:sig <- [DW_OP_LLVM_entry_value 1] $r3
	@DEBUG_VALUE: mbedtls_ecdsa_read_signature:hlen <- [DW_OP_LLVM_entry_value 1] $r2
	@DEBUG_VALUE: mbedtls_ecdsa_read_signature:hash <- [DW_OP_LLVM_entry_value 1] $r1
	@DEBUG_VALUE: mbedtls_ecdsa_read_signature:ctx <- [DW_OP_LLVM_entry_value 1] $r0
	.loc	3 737 5 is_stmt 0               @ ../../../ThirdParty/mbedTLS/library/ecdsa.c:737:5
	add	sp, #8
.Ltmp241:
	pop	{r4, pc}
.Ltmp242:
.Lfunc_end10:
	.size	mbedtls_ecdsa_read_signature, .Lfunc_end10-mbedtls_ecdsa_read_signature
	.cfi_endproc
	.cantunwind
	.fnend
                                        @ -- End function
	.section	.text.mbedtls_ecdsa_read_signature_restartable,"ax",%progbits
	.hidden	mbedtls_ecdsa_read_signature_restartable @ -- Begin function mbedtls_ecdsa_read_signature_restartable
	.globl	mbedtls_ecdsa_read_signature_restartable
	.p2align	2
	.type	mbedtls_ecdsa_read_signature_restartable,%function
	.code	16                              @ @mbedtls_ecdsa_read_signature_restartable
	.thumb_func
mbedtls_ecdsa_read_signature_restartable:
.Lfunc_begin11:
	.loc	3 748 0 is_stmt 1               @ ../../../ThirdParty/mbedTLS/library/ecdsa.c:748:0
	.fnstart
	.cfi_startproc
@ %bb.0:
	@DEBUG_VALUE: mbedtls_ecdsa_read_signature_restartable:ctx <- $r0
	@DEBUG_VALUE: mbedtls_ecdsa_read_signature_restartable:hash <- $r1
	@DEBUG_VALUE: mbedtls_ecdsa_read_signature_restartable:hlen <- $r2
	@DEBUG_VALUE: mbedtls_ecdsa_read_signature_restartable:sig <- $r3
	.save	{r4, r5, r6, r7, lr}
	push	{r4, r5, r6, r7, lr}
	.cfi_def_cfa_offset 20
	.cfi_offset lr, -4
	.cfi_offset r7, -8
	.cfi_offset r6, -12
	.cfi_offset r5, -16
	.cfi_offset r4, -20
	.pad	#52
	sub	sp, #52
	.cfi_def_cfa_offset 72
	mov	r4, r3
	str	r2, [sp, #16]                   @ 4-byte Spill
	mov	r5, r1
	mov	r6, r0
.Ltmp243:
	@DEBUG_VALUE: mbedtls_ecdsa_read_signature_restartable:p <- $r4
	@DEBUG_VALUE: mbedtls_ecdsa_read_signature_restartable:rs_ctx <- undef
	@DEBUG_VALUE: mbedtls_ecdsa_read_signature_restartable:slen <- [DW_OP_plus_uconst 72] [$sp+0]
	@DEBUG_VALUE: mbedtls_ecdsa_read_signature_restartable:sig <- $r4
	@DEBUG_VALUE: mbedtls_ecdsa_read_signature_restartable:hlen <- [DW_OP_plus_uconst 16] [$sp+0]
	@DEBUG_VALUE: mbedtls_ecdsa_read_signature_restartable:hash <- $r5
	@DEBUG_VALUE: mbedtls_ecdsa_read_signature_restartable:ctx <- $r6
	.loc	3 750 20 prologue_end           @ ../../../ThirdParty/mbedTLS/library/ecdsa.c:750:20
	str	r3, [sp, #48]
	add	r0, sp, #32
	.loc	3 758 5                         @ ../../../ThirdParty/mbedTLS/library/ecdsa.c:758:5
	bl	mbedtls_mpi_init
	add	r0, sp, #20
	.loc	3 759 5                         @ ../../../ThirdParty/mbedTLS/library/ecdsa.c:759:5
	bl	mbedtls_mpi_init
	ldr	r0, [sp, #72]
	.loc	3 751 36                        @ ../../../ThirdParty/mbedTLS/library/ecdsa.c:751:36
	adds	r7, r4, r0
.Ltmp244:
	@DEBUG_VALUE: mbedtls_ecdsa_read_signature_restartable:len <- [DW_OP_plus_uconst 44, DW_OP_deref] $sp
	@DEBUG_VALUE: mbedtls_ecdsa_read_signature_restartable:end <- $r7
	@DEBUG_VALUE: mbedtls_ecdsa_read_signature_restartable:p <- [DW_OP_plus_uconst 48, DW_OP_deref] $sp
	.loc	3 0 36 is_stmt 0                @ ../../../ThirdParty/mbedTLS/library/ecdsa.c:0:36
	add	r0, sp, #48
	add	r2, sp, #44
	movs	r3, #48
.Ltmp245:
	.loc	3 761 17 is_stmt 1              @ ../../../ThirdParty/mbedTLS/library/ecdsa.c:761:17
	mov	r1, r7
	bl	mbedtls_asn1_get_tag
.Ltmp246:
	@DEBUG_VALUE: mbedtls_ecdsa_read_signature_restartable:ret <- $r0
	.loc	3 0 17 is_stmt 0                @ ../../../ThirdParty/mbedTLS/library/ecdsa.c:0:17
	ldr	r4, __arm_cp.11_0
.Ltmp247:
	.loc	3 761 9                         @ ../../../ThirdParty/mbedTLS/library/ecdsa.c:761:9
	cbz	r0, .LBB11_2
.Ltmp248:
@ %bb.1:
	@DEBUG_VALUE: mbedtls_ecdsa_read_signature_restartable:end <- $r7
	@DEBUG_VALUE: mbedtls_ecdsa_read_signature_restartable:ctx <- $r6
	@DEBUG_VALUE: mbedtls_ecdsa_read_signature_restartable:hash <- $r5
	@DEBUG_VALUE: mbedtls_ecdsa_read_signature_restartable:ret <- $r0
	@DEBUG_VALUE: mbedtls_ecdsa_read_signature_restartable:p <- [DW_OP_plus_uconst 48, DW_OP_deref] $sp
	@DEBUG_VALUE: mbedtls_ecdsa_read_signature_restartable:len <- [DW_OP_plus_uconst 44, DW_OP_deref] $sp
	@DEBUG_VALUE: mbedtls_ecdsa_read_signature_restartable:hlen <- [DW_OP_plus_uconst 16] [$sp+0]
	@DEBUG_VALUE: mbedtls_ecdsa_read_signature_restartable:slen <- [DW_OP_plus_uconst 72] [$sp+0]
	.loc	3 764 13 is_stmt 1              @ ../../../ThirdParty/mbedTLS/library/ecdsa.c:764:13
	adds	r4, r0, r4
.Ltmp249:
	@DEBUG_VALUE: mbedtls_ecdsa_read_signature_restartable:ret <- $r4
	.loc	3 765 9                         @ ../../../ThirdParty/mbedTLS/library/ecdsa.c:765:9
	b	.LBB11_7
.Ltmp250:
.LBB11_2:
	@DEBUG_VALUE: mbedtls_ecdsa_read_signature_restartable:end <- $r7
	@DEBUG_VALUE: mbedtls_ecdsa_read_signature_restartable:ctx <- $r6
	@DEBUG_VALUE: mbedtls_ecdsa_read_signature_restartable:hash <- $r5
	@DEBUG_VALUE: mbedtls_ecdsa_read_signature_restartable:ret <- $r0
	@DEBUG_VALUE: mbedtls_ecdsa_read_signature_restartable:p <- [DW_OP_plus_uconst 48, DW_OP_deref] $sp
	@DEBUG_VALUE: mbedtls_ecdsa_read_signature_restartable:len <- [DW_OP_plus_uconst 44, DW_OP_deref] $sp
	@DEBUG_VALUE: mbedtls_ecdsa_read_signature_restartable:hlen <- [DW_OP_plus_uconst 16] [$sp+0]
	@DEBUG_VALUE: mbedtls_ecdsa_read_signature_restartable:slen <- [DW_OP_plus_uconst 72] [$sp+0]
	.loc	3 0 9 is_stmt 0                 @ ../../../ThirdParty/mbedTLS/library/ecdsa.c:0:9
	str	r5, [sp, #12]                   @ 4-byte Spill
.Ltmp251:
	@DEBUG_VALUE: mbedtls_ecdsa_read_signature_restartable:hash <- [DW_OP_plus_uconst 12] [$sp+0]
	.loc	3 768 13 is_stmt 1              @ ../../../ThirdParty/mbedTLS/library/ecdsa.c:768:13
	ldr	r0, [sp, #44]
.Ltmp252:
	@DEBUG_VALUE: mbedtls_ecdsa_read_signature_restartable:len <- $r0
	.loc	3 768 9 is_stmt 0               @ ../../../ThirdParty/mbedTLS/library/ecdsa.c:768:9
	ldr	r1, [sp, #48]
.Ltmp253:
	@DEBUG_VALUE: mbedtls_ecdsa_read_signature_restartable:p <- $r1
	.loc	3 768 11                        @ ../../../ThirdParty/mbedTLS/library/ecdsa.c:768:11
	adds	r0, r1, r0
.Ltmp254:
	.loc	3 768 9                         @ ../../../ThirdParty/mbedTLS/library/ecdsa.c:768:9
	cmp	r0, r7
	beq	.LBB11_4
.Ltmp255:
@ %bb.3:
	@DEBUG_VALUE: mbedtls_ecdsa_read_signature_restartable:hash <- [DW_OP_plus_uconst 12] [$sp+0]
	@DEBUG_VALUE: mbedtls_ecdsa_read_signature_restartable:end <- $r7
	@DEBUG_VALUE: mbedtls_ecdsa_read_signature_restartable:ctx <- $r6
	@DEBUG_VALUE: mbedtls_ecdsa_read_signature_restartable:p <- $r1
	@DEBUG_VALUE: mbedtls_ecdsa_read_signature_restartable:hlen <- [DW_OP_plus_uconst 16] [$sp+0]
	@DEBUG_VALUE: mbedtls_ecdsa_read_signature_restartable:slen <- [DW_OP_plus_uconst 72] [$sp+0]
	.loc	3 0 9                           @ ../../../ThirdParty/mbedTLS/library/ecdsa.c:0:9
	subs	r4, #102
	b	.LBB11_7
.Ltmp256:
.LBB11_4:
	@DEBUG_VALUE: mbedtls_ecdsa_read_signature_restartable:hash <- [DW_OP_plus_uconst 12] [$sp+0]
	@DEBUG_VALUE: mbedtls_ecdsa_read_signature_restartable:end <- $r7
	@DEBUG_VALUE: mbedtls_ecdsa_read_signature_restartable:ctx <- $r6
	@DEBUG_VALUE: mbedtls_ecdsa_read_signature_restartable:p <- $r1
	@DEBUG_VALUE: mbedtls_ecdsa_read_signature_restartable:hlen <- [DW_OP_plus_uconst 16] [$sp+0]
	@DEBUG_VALUE: mbedtls_ecdsa_read_signature_restartable:slen <- [DW_OP_plus_uconst 72] [$sp+0]
	@DEBUG_VALUE: mbedtls_ecdsa_read_signature_restartable:p <- [DW_OP_plus_uconst 48, DW_OP_deref] $sp
	add	r0, sp, #48
	add	r2, sp, #32
.Ltmp257:
	.loc	3 775 17 is_stmt 1              @ ../../../ThirdParty/mbedTLS/library/ecdsa.c:775:17
	mov	r1, r7
	bl	mbedtls_asn1_get_mpi
.Ltmp258:
	@DEBUG_VALUE: mbedtls_ecdsa_read_signature_restartable:ret <- $r0
	.loc	3 775 60 is_stmt 0              @ ../../../ThirdParty/mbedTLS/library/ecdsa.c:775:60
	cbnz	r0, .LBB11_6
.Ltmp259:
@ %bb.5:
	@DEBUG_VALUE: mbedtls_ecdsa_read_signature_restartable:hash <- [DW_OP_plus_uconst 12] [$sp+0]
	@DEBUG_VALUE: mbedtls_ecdsa_read_signature_restartable:end <- $r7
	@DEBUG_VALUE: mbedtls_ecdsa_read_signature_restartable:ctx <- $r6
	@DEBUG_VALUE: mbedtls_ecdsa_read_signature_restartable:ret <- $r0
	@DEBUG_VALUE: mbedtls_ecdsa_read_signature_restartable:p <- [DW_OP_plus_uconst 48, DW_OP_deref] $sp
	@DEBUG_VALUE: mbedtls_ecdsa_read_signature_restartable:hlen <- [DW_OP_plus_uconst 16] [$sp+0]
	@DEBUG_VALUE: mbedtls_ecdsa_read_signature_restartable:slen <- [DW_OP_plus_uconst 72] [$sp+0]
	@DEBUG_VALUE: mbedtls_ecdsa_read_signature_restartable:p <- [DW_OP_plus_uconst 48, DW_OP_deref] $sp
	.loc	3 0 60                          @ ../../../ThirdParty/mbedTLS/library/ecdsa.c:0:60
	add	r0, sp, #48
.Ltmp260:
	add	r2, sp, #20
	.loc	3 776 21 is_stmt 1              @ ../../../ThirdParty/mbedTLS/library/ecdsa.c:776:21
	mov	r1, r7
	bl	mbedtls_asn1_get_mpi
.Ltmp261:
	@DEBUG_VALUE: mbedtls_ecdsa_read_signature_restartable:ret <- $r0
	.loc	3 775 9                         @ ../../../ThirdParty/mbedTLS/library/ecdsa.c:775:9
	cbz	r0, .LBB11_8
.Ltmp262:
.LBB11_6:
	@DEBUG_VALUE: mbedtls_ecdsa_read_signature_restartable:hash <- [DW_OP_plus_uconst 12] [$sp+0]
	@DEBUG_VALUE: mbedtls_ecdsa_read_signature_restartable:end <- $r7
	@DEBUG_VALUE: mbedtls_ecdsa_read_signature_restartable:ctx <- $r6
	@DEBUG_VALUE: mbedtls_ecdsa_read_signature_restartable:ret <- $r0
	@DEBUG_VALUE: mbedtls_ecdsa_read_signature_restartable:p <- [DW_OP_plus_uconst 48, DW_OP_deref] $sp
	@DEBUG_VALUE: mbedtls_ecdsa_read_signature_restartable:hlen <- [DW_OP_plus_uconst 16] [$sp+0]
	@DEBUG_VALUE: mbedtls_ecdsa_read_signature_restartable:slen <- [DW_OP_plus_uconst 72] [$sp+0]
	@DEBUG_VALUE: mbedtls_ecdsa_read_signature_restartable:ret <- $r0
	.loc	3 778 13                        @ ../../../ThirdParty/mbedTLS/library/ecdsa.c:778:13
	adds	r4, r0, r4
.Ltmp263:
	@DEBUG_VALUE: mbedtls_ecdsa_read_signature_restartable:ret <- $r4
.LBB11_7:
	@DEBUG_VALUE: mbedtls_ecdsa_read_signature_restartable:end <- $r7
	@DEBUG_VALUE: mbedtls_ecdsa_read_signature_restartable:ctx <- $r6
	@DEBUG_VALUE: mbedtls_ecdsa_read_signature_restartable:hlen <- [DW_OP_plus_uconst 16] [$sp+0]
	@DEBUG_VALUE: mbedtls_ecdsa_read_signature_restartable:slen <- [DW_OP_plus_uconst 72] [$sp+0]
	@DEBUG_VALUE: mbedtls_ecdsa_read_signature_restartable:ret <- $r4
	@DEBUG_LABEL: mbedtls_ecdsa_read_signature_restartable:cleanup
	.loc	3 0 13 is_stmt 0                @ ../../../ThirdParty/mbedTLS/library/ecdsa.c:0:13
	add	r0, sp, #32
	.loc	3 798 5 is_stmt 1               @ ../../../ThirdParty/mbedTLS/library/ecdsa.c:798:5
	bl	mbedtls_mpi_free
	add	r0, sp, #20
	.loc	3 799 5                         @ ../../../ThirdParty/mbedTLS/library/ecdsa.c:799:5
	bl	mbedtls_mpi_free
	.loc	3 801 5                         @ ../../../ThirdParty/mbedTLS/library/ecdsa.c:801:5
	mov	r0, r4
	add	sp, #52
.Ltmp264:
	pop	{r4, r5, r6, r7, pc}
.Ltmp265:
.LBB11_8:
	@DEBUG_VALUE: mbedtls_ecdsa_read_signature_restartable:hash <- [DW_OP_plus_uconst 12] [$sp+0]
	@DEBUG_VALUE: mbedtls_ecdsa_read_signature_restartable:end <- $r7
	@DEBUG_VALUE: mbedtls_ecdsa_read_signature_restartable:ctx <- $r6
	@DEBUG_VALUE: mbedtls_ecdsa_read_signature_restartable:ret <- $r0
	@DEBUG_VALUE: mbedtls_ecdsa_read_signature_restartable:p <- [DW_OP_plus_uconst 48, DW_OP_deref] $sp
	@DEBUG_VALUE: mbedtls_ecdsa_read_signature_restartable:hlen <- [DW_OP_plus_uconst 16] [$sp+0]
	@DEBUG_VALUE: mbedtls_ecdsa_read_signature_restartable:slen <- [DW_OP_plus_uconst 72] [$sp+0]
	.loc	3 0 5 is_stmt 0                 @ ../../../ThirdParty/mbedTLS/library/ecdsa.c:0:5
	add	r0, sp, #20
.Ltmp266:
	.loc	3 786 17 is_stmt 1              @ ../../../ThirdParty/mbedTLS/library/ecdsa.c:786:17
	str	r0, [sp, #4]
	add	r0, sp, #32
	str	r0, [sp]
	.loc	3 787 49                        @ ../../../ThirdParty/mbedTLS/library/ecdsa.c:787:49
	mov	r3, r6
	adds	r3, #136
	.loc	3 786 17                        @ ../../../ThirdParty/mbedTLS/library/ecdsa.c:786:17
	mov	r0, r6
	ldr	r1, [sp, #12]                   @ 4-byte Reload
.Ltmp267:
	@DEBUG_VALUE: mbedtls_ecdsa_read_signature_restartable:hash <- $r1
	ldr	r2, [sp, #16]                   @ 4-byte Reload
	bl	ecdsa_verify_restartable
.Ltmp268:
	mov	r4, r0
.Ltmp269:
	@DEBUG_VALUE: mbedtls_ecdsa_read_signature_restartable:ret <- $r4
	.loc	3 786 9 is_stmt 0               @ ../../../ThirdParty/mbedTLS/library/ecdsa.c:786:9
	cmp	r0, #0
	bne	.LBB11_7
.Ltmp270:
@ %bb.9:
	@DEBUG_VALUE: mbedtls_ecdsa_read_signature_restartable:end <- $r7
	@DEBUG_VALUE: mbedtls_ecdsa_read_signature_restartable:ctx <- $r6
	@DEBUG_VALUE: mbedtls_ecdsa_read_signature_restartable:ret <- $r4
	@DEBUG_VALUE: mbedtls_ecdsa_read_signature_restartable:p <- [DW_OP_plus_uconst 48, DW_OP_deref] $sp
	@DEBUG_VALUE: mbedtls_ecdsa_read_signature_restartable:hlen <- [DW_OP_plus_uconst 16] [$sp+0]
	@DEBUG_VALUE: mbedtls_ecdsa_read_signature_restartable:slen <- [DW_OP_plus_uconst 72] [$sp+0]
	.loc	3 794 9 is_stmt 1               @ ../../../ThirdParty/mbedTLS/library/ecdsa.c:794:9
	ldr	r0, [sp, #48]
.Ltmp271:
	@DEBUG_VALUE: mbedtls_ecdsa_read_signature_restartable:p <- $r0
	.loc	3 794 9 is_stmt 0               @ ../../../ThirdParty/mbedTLS/library/ecdsa.c:794:9
	cmp	r0, r7
	beq	.LBB11_11
.Ltmp272:
@ %bb.10:
	@DEBUG_VALUE: mbedtls_ecdsa_read_signature_restartable:end <- $r7
	@DEBUG_VALUE: mbedtls_ecdsa_read_signature_restartable:ctx <- $r6
	@DEBUG_VALUE: mbedtls_ecdsa_read_signature_restartable:ret <- $r4
	@DEBUG_VALUE: mbedtls_ecdsa_read_signature_restartable:p <- $r0
	@DEBUG_VALUE: mbedtls_ecdsa_read_signature_restartable:hlen <- [DW_OP_plus_uconst 16] [$sp+0]
	@DEBUG_VALUE: mbedtls_ecdsa_read_signature_restartable:slen <- [DW_OP_plus_uconst 72] [$sp+0]
	.loc	3 0 9                           @ ../../../ThirdParty/mbedTLS/library/ecdsa.c:0:9
	ldr	r4, __arm_cp.11_1
.Ltmp273:
	b	.LBB11_7
.Ltmp274:
.LBB11_11:
	@DEBUG_VALUE: mbedtls_ecdsa_read_signature_restartable:end <- $r7
	@DEBUG_VALUE: mbedtls_ecdsa_read_signature_restartable:ctx <- $r6
	@DEBUG_VALUE: mbedtls_ecdsa_read_signature_restartable:ret <- $r4
	@DEBUG_VALUE: mbedtls_ecdsa_read_signature_restartable:p <- $r0
	@DEBUG_VALUE: mbedtls_ecdsa_read_signature_restartable:hlen <- [DW_OP_plus_uconst 16] [$sp+0]
	@DEBUG_VALUE: mbedtls_ecdsa_read_signature_restartable:slen <- [DW_OP_plus_uconst 72] [$sp+0]
	movs	r4, #0
.Ltmp275:
	b	.LBB11_7
.Ltmp276:
	.p2align	2
@ %bb.12:
__arm_cp.11_0:
	.long	4294946944                      @ 0xffffb080
.Lcpi_end6:
	.size	__arm_cp.11_0, .Lcpi_end6-__arm_cp.11_0
__arm_cp.11_1:
	.long	4294947840                      @ 0xffffb400
.Lcpi_end7:
	.size	__arm_cp.11_1, .Lcpi_end7-__arm_cp.11_1
.Lfunc_end11:
	.size	mbedtls_ecdsa_read_signature_restartable, .Lfunc_end11-mbedtls_ecdsa_read_signature_restartable
	.cfi_endproc
	.cantunwind
	.fnend
                                        @ -- End function
	.section	.text.mbedtls_ecdsa_genkey,"ax",%progbits
	.hidden	mbedtls_ecdsa_genkey            @ -- Begin function mbedtls_ecdsa_genkey
	.globl	mbedtls_ecdsa_genkey
	.p2align	1
	.type	mbedtls_ecdsa_genkey,%function
	.code	16                              @ @mbedtls_ecdsa_genkey
	.thumb_func
mbedtls_ecdsa_genkey:
.Lfunc_begin12:
	.loc	3 810 0 is_stmt 1               @ ../../../ThirdParty/mbedTLS/library/ecdsa.c:810:0
	.fnstart
	.cfi_startproc
@ %bb.0:
	@DEBUG_VALUE: mbedtls_ecdsa_genkey:ctx <- $r0
	@DEBUG_VALUE: mbedtls_ecdsa_genkey:gid <- $r1
	@DEBUG_VALUE: mbedtls_ecdsa_genkey:f_rng <- $r2
	@DEBUG_VALUE: mbedtls_ecdsa_genkey:p_rng <- $r3
	.save	{r4, r5, r6, lr}
	push	{r4, r5, r6, lr}
	.cfi_def_cfa_offset 16
	.cfi_offset lr, -4
	.cfi_offset r6, -8
	.cfi_offset r5, -12
	.cfi_offset r4, -16
	.pad	#8
	sub	sp, #8
	.cfi_def_cfa_offset 24
	mov	r6, r3
	mov	r4, r2
	mov	r5, r0
.Ltmp277:
	@DEBUG_VALUE: mbedtls_ecdsa_genkey:ret <- 0
	@DEBUG_VALUE: mbedtls_ecdsa_genkey:p_rng <- $r6
	@DEBUG_VALUE: mbedtls_ecdsa_genkey:f_rng <- $r4
	@DEBUG_VALUE: mbedtls_ecdsa_genkey:gid <- $r1
	@DEBUG_VALUE: mbedtls_ecdsa_genkey:ctx <- $r5
	@DEBUG_VALUE: mbedtls_ecdsa_genkey:gid <- $r1
	.loc	3 815 11 prologue_end           @ ../../../ThirdParty/mbedTLS/library/ecdsa.c:815:11
	bl	mbedtls_ecp_group_load
.Ltmp278:
	@DEBUG_VALUE: mbedtls_ecdsa_genkey:gid <- [DW_OP_LLVM_entry_value 1] $r1
	@DEBUG_VALUE: mbedtls_ecdsa_genkey:ret <- $r0
	.loc	3 816 9                         @ ../../../ThirdParty/mbedTLS/library/ecdsa.c:816:9
	cbz	r0, .LBB12_2
.Ltmp279:
@ %bb.1:
	@DEBUG_VALUE: mbedtls_ecdsa_genkey:p_rng <- $r6
	@DEBUG_VALUE: mbedtls_ecdsa_genkey:ctx <- $r5
	@DEBUG_VALUE: mbedtls_ecdsa_genkey:f_rng <- $r4
	@DEBUG_VALUE: mbedtls_ecdsa_genkey:ret <- $r0
	@DEBUG_VALUE: mbedtls_ecdsa_genkey:gid <- [DW_OP_LLVM_entry_value 1] $r1
	.loc	3 821 1                         @ ../../../ThirdParty/mbedTLS/library/ecdsa.c:821:1
	add	sp, #8
	pop	{r4, r5, r6, pc}
.Ltmp280:
.LBB12_2:
	@DEBUG_VALUE: mbedtls_ecdsa_genkey:p_rng <- $r6
	@DEBUG_VALUE: mbedtls_ecdsa_genkey:ctx <- $r5
	@DEBUG_VALUE: mbedtls_ecdsa_genkey:f_rng <- $r4
	@DEBUG_VALUE: mbedtls_ecdsa_genkey:ret <- $r0
	@DEBUG_VALUE: mbedtls_ecdsa_genkey:gid <- [DW_OP_LLVM_entry_value 1] $r1
	.loc	3 819 13                        @ ../../../ThirdParty/mbedTLS/library/ecdsa.c:819:13
	str	r6, [sp]
	.loc	3 819 55 is_stmt 0              @ ../../../ThirdParty/mbedTLS/library/ecdsa.c:819:55
	mov	r1, r5
	adds	r1, #124
	.loc	3 820 44 is_stmt 1              @ ../../../ThirdParty/mbedTLS/library/ecdsa.c:820:44
	mov	r2, r5
	adds	r2, #136
	.loc	3 819 13                        @ ../../../ThirdParty/mbedTLS/library/ecdsa.c:819:13
	mov	r0, r5
.Ltmp281:
	mov	r3, r4
	bl	mbedtls_ecp_gen_keypair
	.loc	3 821 1                         @ ../../../ThirdParty/mbedTLS/library/ecdsa.c:821:1
	add	sp, #8
	pop	{r4, r5, r6, pc}
.Ltmp282:
.Lfunc_end12:
	.size	mbedtls_ecdsa_genkey, .Lfunc_end12-mbedtls_ecdsa_genkey
	.cfi_endproc
	.cantunwind
	.fnend
                                        @ -- End function
	.section	.text.mbedtls_ecdsa_from_keypair,"ax",%progbits
	.hidden	mbedtls_ecdsa_from_keypair      @ -- Begin function mbedtls_ecdsa_from_keypair
	.globl	mbedtls_ecdsa_from_keypair
	.p2align	1
	.type	mbedtls_ecdsa_from_keypair,%function
	.code	16                              @ @mbedtls_ecdsa_from_keypair
	.thumb_func
mbedtls_ecdsa_from_keypair:
.Lfunc_begin13:
	.loc	3 828 0                         @ ../../../ThirdParty/mbedTLS/library/ecdsa.c:828:0
	.fnstart
	.cfi_startproc
@ %bb.0:
	@DEBUG_VALUE: mbedtls_ecdsa_from_keypair:ctx <- $r0
	@DEBUG_VALUE: mbedtls_ecdsa_from_keypair:key <- $r1
	.save	{r4, r5, r6, lr}
	push	{r4, r5, r6, lr}
	.cfi_def_cfa_offset 16
	.cfi_offset lr, -4
	.cfi_offset r6, -8
	.cfi_offset r5, -12
	.cfi_offset r4, -16
	mov	r5, r1
	mov	r4, r0
.Ltmp283:
	@DEBUG_VALUE: mbedtls_ecdsa_from_keypair:key <- $r5
	@DEBUG_VALUE: mbedtls_ecdsa_from_keypair:ctx <- $r4
	.loc	3 833 17 prologue_end           @ ../../../ThirdParty/mbedTLS/library/ecdsa.c:833:17
	bl	mbedtls_ecp_group_copy
	mov	r6, r0
.Ltmp284:
	@DEBUG_VALUE: mbedtls_ecdsa_from_keypair:ret <- $r6
	.loc	3 833 71 is_stmt 0              @ ../../../ThirdParty/mbedTLS/library/ecdsa.c:833:71
	cbnz	r0, .LBB13_3
.Ltmp285:
@ %bb.1:
	@DEBUG_VALUE: mbedtls_ecdsa_from_keypair:ret <- $r6
	@DEBUG_VALUE: mbedtls_ecdsa_from_keypair:key <- $r5
	@DEBUG_VALUE: mbedtls_ecdsa_from_keypair:ctx <- $r4
	.loc	3 834 45 is_stmt 1              @ ../../../ThirdParty/mbedTLS/library/ecdsa.c:834:45
	mov	r0, r4
	adds	r0, #124
	.loc	3 834 54 is_stmt 0              @ ../../../ThirdParty/mbedTLS/library/ecdsa.c:834:54
	mov	r1, r5
	adds	r1, #124
	.loc	3 834 21                        @ ../../../ThirdParty/mbedTLS/library/ecdsa.c:834:21
	bl	mbedtls_mpi_copy
	mov	r6, r0
.Ltmp286:
	@DEBUG_VALUE: mbedtls_ecdsa_from_keypair:ret <- $r6
	.loc	3 834 65                        @ ../../../ThirdParty/mbedTLS/library/ecdsa.c:834:65
	cbnz	r0, .LBB13_3
.Ltmp287:
@ %bb.2:
	@DEBUG_VALUE: mbedtls_ecdsa_from_keypair:ret <- $r6
	@DEBUG_VALUE: mbedtls_ecdsa_from_keypair:key <- $r5
	@DEBUG_VALUE: mbedtls_ecdsa_from_keypair:ctx <- $r4
	.loc	3 835 45 is_stmt 1              @ ../../../ThirdParty/mbedTLS/library/ecdsa.c:835:45
	mov	r0, r4
	adds	r0, #136
	.loc	3 835 54 is_stmt 0              @ ../../../ThirdParty/mbedTLS/library/ecdsa.c:835:54
	adds	r5, #136
.Ltmp288:
	.loc	3 835 21                        @ ../../../ThirdParty/mbedTLS/library/ecdsa.c:835:21
	mov	r1, r5
	bl	mbedtls_ecp_copy
	mov	r6, r0
.Ltmp289:
	@DEBUG_VALUE: mbedtls_ecdsa_from_keypair:ret <- $r6
	.loc	3 833 9 is_stmt 1               @ ../../../ThirdParty/mbedTLS/library/ecdsa.c:833:9
	cbz	r0, .LBB13_4
.Ltmp290:
.LBB13_3:
	@DEBUG_VALUE: mbedtls_ecdsa_from_keypair:ret <- $r6
	@DEBUG_VALUE: mbedtls_ecdsa_from_keypair:ctx <- $r4
	@DEBUG_VALUE: mbedtls_ecdsa_from_keypair:ret <- $r6
	.loc	3 837 9                         @ ../../../ThirdParty/mbedTLS/library/ecdsa.c:837:9
	mov	r0, r4
	bl	mbedtls_ecdsa_free
.Ltmp291:
	@DEBUG_VALUE: mbedtls_ecdsa_from_keypair:ret <- $r6
	.loc	3 840 5                         @ ../../../ThirdParty/mbedTLS/library/ecdsa.c:840:5
	mov	r0, r6
	pop	{r4, r5, r6, pc}
.Ltmp292:
.LBB13_4:
	@DEBUG_VALUE: mbedtls_ecdsa_from_keypair:ret <- $r6
	@DEBUG_VALUE: mbedtls_ecdsa_from_keypair:ctx <- $r4
	.loc	3 0 5 is_stmt 0                 @ ../../../ThirdParty/mbedTLS/library/ecdsa.c:0:5
	movs	r6, #0
.Ltmp293:
	@DEBUG_VALUE: mbedtls_ecdsa_from_keypair:ret <- $r6
	.loc	3 840 5                         @ ../../../ThirdParty/mbedTLS/library/ecdsa.c:840:5
	mov	r0, r6
	pop	{r4, r5, r6, pc}
.Ltmp294:
.Lfunc_end13:
	.size	mbedtls_ecdsa_from_keypair, .Lfunc_end13-mbedtls_ecdsa_from_keypair
	.cfi_endproc
	.cantunwind
	.fnend
                                        @ -- End function
	.section	.text.mbedtls_ecdsa_free,"ax",%progbits
	.hidden	mbedtls_ecdsa_free              @ -- Begin function mbedtls_ecdsa_free
	.globl	mbedtls_ecdsa_free
	.p2align	1
	.type	mbedtls_ecdsa_free,%function
	.code	16                              @ @mbedtls_ecdsa_free
	.thumb_func
mbedtls_ecdsa_free:
.Lfunc_begin14:
	.loc	3 857 0 is_stmt 1               @ ../../../ThirdParty/mbedTLS/library/ecdsa.c:857:0
	.fnstart
	.cfi_startproc
@ %bb.0:
	@DEBUG_VALUE: mbedtls_ecdsa_free:ctx <- $r0
	@DEBUG_VALUE: mbedtls_ecdsa_free:ctx <- $r0
	.save	{r7, lr}
	push	{r7, lr}
	.cfi_def_cfa_offset 8
	.cfi_offset lr, -4
	.cfi_offset r7, -8
.Ltmp295:
	.loc	3 858 9 prologue_end            @ ../../../ThirdParty/mbedTLS/library/ecdsa.c:858:9
	cbz	r0, .LBB14_2
.Ltmp296:
@ %bb.1:
	@DEBUG_VALUE: mbedtls_ecdsa_free:ctx <- $r0
	.loc	3 861 5                         @ ../../../ThirdParty/mbedTLS/library/ecdsa.c:861:5
	bl	mbedtls_ecp_keypair_free
.Ltmp297:
	@DEBUG_VALUE: mbedtls_ecdsa_free:ctx <- [DW_OP_LLVM_entry_value 1] $r0
.LBB14_2:
	.loc	3 862 1                         @ ../../../ThirdParty/mbedTLS/library/ecdsa.c:862:1
	pop	{r7, pc}
.Ltmp298:
.Lfunc_end14:
	.size	mbedtls_ecdsa_free, .Lfunc_end14-mbedtls_ecdsa_free
	.cfi_endproc
	.cantunwind
	.fnend
                                        @ -- End function
	.section	.text.mbedtls_ecdsa_init,"ax",%progbits
	.hidden	mbedtls_ecdsa_init              @ -- Begin function mbedtls_ecdsa_init
	.globl	mbedtls_ecdsa_init
	.p2align	1
	.type	mbedtls_ecdsa_init,%function
	.code	16                              @ @mbedtls_ecdsa_init
	.thumb_func
mbedtls_ecdsa_init:
.Lfunc_begin15:
	.loc	3 847 0                         @ ../../../ThirdParty/mbedTLS/library/ecdsa.c:847:0
	.fnstart
	.cfi_startproc
@ %bb.0:
	@DEBUG_VALUE: mbedtls_ecdsa_init:ctx <- $r0
	@DEBUG_VALUE: mbedtls_ecdsa_init:ctx <- $r0
	@DEBUG_VALUE: mbedtls_ecdsa_init:ctx <- $r0
	.save	{r7, lr}
	push	{r7, lr}
	.cfi_def_cfa_offset 8
	.cfi_offset lr, -4
	.cfi_offset r7, -8
.Ltmp299:
	.loc	3 850 5 prologue_end            @ ../../../ThirdParty/mbedTLS/library/ecdsa.c:850:5
	bl	mbedtls_ecp_keypair_init
.Ltmp300:
	@DEBUG_VALUE: mbedtls_ecdsa_init:ctx <- [DW_OP_LLVM_entry_value 1] $r0
	.loc	3 851 1                         @ ../../../ThirdParty/mbedTLS/library/ecdsa.c:851:1
	pop	{r7, pc}
.Ltmp301:
.Lfunc_end15:
	.size	mbedtls_ecdsa_init, .Lfunc_end15-mbedtls_ecdsa_init
	.cfi_endproc
	.cantunwind
	.fnend
                                        @ -- End function
	.section	.text.derive_mpi,"ax",%progbits
	.p2align	1                               @ -- Begin function derive_mpi
	.type	derive_mpi,%function
	.code	16                              @ @derive_mpi
	.thumb_func
derive_mpi:
.Lfunc_begin16:
	.loc	3 231 0                         @ ../../../ThirdParty/mbedTLS/library/ecdsa.c:231:0
	.fnstart
	.cfi_startproc
@ %bb.0:
	@DEBUG_VALUE: derive_mpi:grp <- $r0
	@DEBUG_VALUE: derive_mpi:x <- $r1
	@DEBUG_VALUE: derive_mpi:buf <- $r2
	@DEBUG_VALUE: derive_mpi:blen <- $r3
	.save	{r4, r5, r6, lr}
	push	{r4, r5, r6, lr}
	.cfi_def_cfa_offset 16
	.cfi_offset lr, -4
	.cfi_offset r6, -8
	.cfi_offset r5, -12
	.cfi_offset r4, -16
	mov	r5, r1
	mov	r4, r0
	@DEBUG_VALUE: derive_mpi:blen <- $r3
	@DEBUG_VALUE: derive_mpi:buf <- $r2
.Ltmp302:
	@DEBUG_VALUE: derive_mpi:x <- $r5
	@DEBUG_VALUE: derive_mpi:grp <- $r4
	.loc	3 233 28 prologue_end           @ ../../../ThirdParty/mbedTLS/library/ecdsa.c:233:28
	ldr	r0, [r0, #92]
	.loc	3 233 34 is_stmt 0              @ ../../../ThirdParty/mbedTLS/library/ecdsa.c:233:34
	adds	r0, r0, #7
	.loc	3 233 40                        @ ../../../ThirdParty/mbedTLS/library/ecdsa.c:233:40
	lsrs	r6, r0, #3
.Ltmp303:
	@DEBUG_VALUE: derive_mpi:n_size <- $r6
	.loc	3 234 23 is_stmt 1              @ ../../../ThirdParty/mbedTLS/library/ecdsa.c:234:23
	cmp	r3, r6
	bhi	.LBB16_2
.Ltmp304:
@ %bb.1:
	@DEBUG_VALUE: derive_mpi:n_size <- $r6
	@DEBUG_VALUE: derive_mpi:x <- $r5
	@DEBUG_VALUE: derive_mpi:grp <- $r4
	@DEBUG_VALUE: derive_mpi:blen <- $r3
	@DEBUG_VALUE: derive_mpi:buf <- $r2
	mov	r6, r3
.Ltmp305:
	@DEBUG_VALUE: derive_mpi:blen <- $r6
.LBB16_2:
	@DEBUG_VALUE: derive_mpi:x <- $r5
	@DEBUG_VALUE: derive_mpi:grp <- $r4
	@DEBUG_VALUE: derive_mpi:buf <- $r2
	@DEBUG_VALUE: derive_mpi:use_size <- $r6
	.loc	3 236 5                         @ ../../../ThirdParty/mbedTLS/library/ecdsa.c:236:5
	mov	r0, r5
	mov	r1, r2
.Ltmp306:
	@DEBUG_VALUE: derive_mpi:buf <- $r1
	mov	r2, r6
	bl	mbedtls_mpi_read_binary
.Ltmp307:
	@DEBUG_VALUE: derive_mpi:ret <- $r0
	.loc	3 236 5 is_stmt 0               @ ../../../ThirdParty/mbedTLS/library/ecdsa.c:236:5
	cbz	r0, .LBB16_4
.Ltmp308:
.LBB16_3:
	@DEBUG_VALUE: derive_mpi:use_size <- $r6
	@DEBUG_VALUE: derive_mpi:x <- $r5
	@DEBUG_VALUE: derive_mpi:grp <- $r4
	@DEBUG_VALUE: derive_mpi:ret <- $r0
	@DEBUG_VALUE: derive_mpi:ret <- $r0
	@DEBUG_LABEL: derive_mpi:cleanup
	.loc	3 245 5 is_stmt 1               @ ../../../ThirdParty/mbedTLS/library/ecdsa.c:245:5
	pop	{r4, r5, r6, pc}
.Ltmp309:
.LBB16_4:
	@DEBUG_VALUE: derive_mpi:use_size <- $r6
	@DEBUG_VALUE: derive_mpi:x <- $r5
	@DEBUG_VALUE: derive_mpi:grp <- $r4
	@DEBUG_VALUE: derive_mpi:ret <- $r0
	.loc	3 237 29                        @ ../../../ThirdParty/mbedTLS/library/ecdsa.c:237:29
	ldr	r0, [r4, #92]
.Ltmp310:
	.loc	3 237 18 is_stmt 0              @ ../../../ThirdParty/mbedTLS/library/ecdsa.c:237:18
	lsls	r1, r6, #3
.Ltmp311:
	.loc	3 237 9                         @ ../../../ThirdParty/mbedTLS/library/ecdsa.c:237:9
	cmp	r0, r1
	bhs	.LBB16_6
.Ltmp312:
@ %bb.5:
	@DEBUG_VALUE: derive_mpi:use_size <- $r6
	@DEBUG_VALUE: derive_mpi:x <- $r5
	@DEBUG_VALUE: derive_mpi:grp <- $r4
	.loc	3 238 9 is_stmt 1               @ ../../../ThirdParty/mbedTLS/library/ecdsa.c:238:9
	subs	r1, r1, r0
	mov	r0, r5
	bl	mbedtls_mpi_shift_r
.Ltmp313:
	@DEBUG_VALUE: derive_mpi:ret <- $r0
	.loc	3 238 9 is_stmt 0               @ ../../../ThirdParty/mbedTLS/library/ecdsa.c:238:9
	cmp	r0, #0
	bne	.LBB16_3
.Ltmp314:
.LBB16_6:
	@DEBUG_VALUE: derive_mpi:use_size <- $r6
	@DEBUG_VALUE: derive_mpi:x <- $r5
	@DEBUG_VALUE: derive_mpi:grp <- $r4
	@DEBUG_VALUE: derive_mpi:ret <- 0
	.loc	3 241 39 is_stmt 1              @ ../../../ThirdParty/mbedTLS/library/ecdsa.c:241:39
	adds	r4, #76
.Ltmp315:
	.loc	3 241 9 is_stmt 0               @ ../../../ThirdParty/mbedTLS/library/ecdsa.c:241:9
	mov	r0, r5
	mov	r1, r4
	bl	mbedtls_mpi_cmp_mpi
.Ltmp316:
	.loc	3 241 9                         @ ../../../ThirdParty/mbedTLS/library/ecdsa.c:241:9
	cmp	r0, #0
	bmi	.LBB16_8
.Ltmp317:
@ %bb.7:
	@DEBUG_VALUE: derive_mpi:use_size <- $r6
	@DEBUG_VALUE: derive_mpi:x <- $r5
	@DEBUG_VALUE: derive_mpi:ret <- 0
	.loc	3 242 9 is_stmt 1               @ ../../../ThirdParty/mbedTLS/library/ecdsa.c:242:9
	mov	r0, r5
	mov	r1, r5
	mov	r2, r4
	bl	mbedtls_mpi_sub_mpi
.Ltmp318:
	@DEBUG_VALUE: derive_mpi:ret <- $r0
	@DEBUG_VALUE: derive_mpi:ret <- $r0
	@DEBUG_LABEL: derive_mpi:cleanup
	.loc	3 245 5                         @ ../../../ThirdParty/mbedTLS/library/ecdsa.c:245:5
	pop	{r4, r5, r6, pc}
.Ltmp319:
.LBB16_8:
	@DEBUG_VALUE: derive_mpi:use_size <- $r6
	@DEBUG_VALUE: derive_mpi:x <- $r5
	@DEBUG_VALUE: derive_mpi:ret <- 0
	.loc	3 0 5 is_stmt 0                 @ ../../../ThirdParty/mbedTLS/library/ecdsa.c:0:5
	movs	r0, #0
.Ltmp320:
	@DEBUG_VALUE: derive_mpi:ret <- $r0
	@DEBUG_LABEL: derive_mpi:cleanup
	.loc	3 245 5                         @ ../../../ThirdParty/mbedTLS/library/ecdsa.c:245:5
	pop	{r4, r5, r6, pc}
.Ltmp321:
.Lfunc_end16:
	.size	derive_mpi, .Lfunc_end16-derive_mpi
	.cfi_endproc
	.cantunwind
	.fnend
                                        @ -- End function
	.file	4 "C:\\Users\\shw26\\OneDrive\\Desktop\\2021\\2021-1\\\354\272\241\354\212\244\355\206\244\353\224\224\354\236\220\354\235\2702\\Nuvoton\\M2351_BSP_v3.00.004\\M2351Series_BSP_CMSIS_V3.00.004\\MyProject\\PulseMonitoring\\Secure" "../../../ThirdParty/mbedTLS/include/mbedtls/bignum.h"
	.file	5 "C:\\" "Keil_v5\\ARM\\ARMCLANG\\Bin\\..\\include\\stddef.h"
	.file	6 "C:\\" "Keil_v5\\ARM\\ARMCLANG\\Bin\\..\\include\\stdint.h"
	.file	7 "C:\\Users\\shw26\\OneDrive\\Desktop\\2021\\2021-1\\\354\272\241\354\212\244\355\206\244\353\224\224\354\236\220\354\235\2702\\Nuvoton\\M2351_BSP_v3.00.004\\M2351Series_BSP_CMSIS_V3.00.004\\MyProject\\PulseMonitoring\\Secure" "../../../ThirdParty/mbedTLS/include/mbedtls\\ecdsa.h"
	.file	8 "C:\\Users\\shw26\\OneDrive\\Desktop\\2021\\2021-1\\\354\272\241\354\212\244\355\206\244\353\224\224\354\236\220\354\235\2702\\Nuvoton\\M2351_BSP_v3.00.004\\M2351Series_BSP_CMSIS_V3.00.004\\MyProject\\PulseMonitoring\\Secure" "../../../ThirdParty/mbedTLS/include/mbedtls\\hmac_drbg.h"
	.section	".note.GNU-stack","",%progbits
	.eabi_attribute	30, 1	@ Tag_ABI_optimization_goals
	.ARM_attribute	16, 1	@ Tag_AV_eba