	.text
	.syntax unified
	.eabi_attribute	67, "2.09"	@ Tag_conformance
	.cpu	cortex-m23
	.eabi_attribute	6, 16	@ Tag_CPU_arch
	.eabi_attribute	7, 77	@ Tag_CPU_arch_profile
	.eabi_attribute	8, 0	@ Tag_ARM_ISA_use
	.eabi_attribute	9, 3	@ Tag_THUMB_ISA_use
	.eabi_attribute	34, 0	@ Tag_CPU_unaligned_access
	.eabi_attribute	17, 1	@ Tag_ABI_PCS_GOT_use
	.eabi_attribute	20, 2	@ Tag_ABI_FP_denormal
	.eabi_attribute	21, 0	@ Tag_ABI_FP_exceptions
	.eabi_attribute	23, 1	@ Tag_ABI_FP_number_model
	.eabi_attribute	24, 1	@ Tag_ABI_align_needed
	.eabi_attribute	25, 1	@ Tag_ABI_align_preserved
	.eabi_attribute	38, 1	@ Tag_ABI_FP_16bit_format
	.eabi_attribute	18, 2	@ Tag_ABI_PCS_wchar_t
	.eabi_attribute	26, 1	@ Tag_ABI_enum_size
	.eabi_attribute	14, 0	@ Tag_ABI_PCS_R9_use
	.file	"ecp.c"
	.file	1 "C:\\Users\\shw26\\OneDrive\\Desktop\\2021\\2021-1\\\354\272\241\354\212\244\355\206\244\353\224\224\354\236\220\354\235\2702\\Nuvoton\\M2351_BSP_v3.00.004\\M2351Series_BSP_CMSIS_V3.00.004\\MyProject\\PulseMonitoring\\Secure" "../../../ThirdParty/mbedTLS/library/ecp.c"
	.file	2 "C:\\Users\\shw26\\OneDrive\\Desktop\\2021\\2021-1\\\354\272\241\354\212\244\355\206\244\353\224\224\354\236\220\354\235\2702\\Nuvoton\\M2351_BSP_v3.00.004\\M2351Series_BSP_CMSIS_V3.00.004\\MyProject\\PulseMonitoring\\Secure" "../../../ThirdParty/mbedTLS/include/mbedtls\\ecp.h"
	.file	3 "C:\\" "Keil_v5\\ARM\\ARMCLANG\\Bin\\..\\include\\stdint.h"
	.section	.text.mbedtls_ecp_curve_list,"ax",%progbits
	.hidden	mbedtls_ecp_curve_list          @ -- Begin function mbedtls_ecp_curve_list
	.globl	mbedtls_ecp_curve_list
	.p2align	2
	.type	mbedtls_ecp_curve_list,%function
	.code	16                              @ @mbedtls_ecp_curve_list
	.thumb_func
mbedtls_ecp_curve_list:
.Lfunc_begin0:
	.loc	1 435 0                         @ ../../../ThirdParty/mbedTLS/library/ecp.c:435:0
	.fnstart
	.cfi_sections .debug_frame
	.cfi_startproc
@ %bb.0:
	.loc	1 436 5 prologue_end            @ ../../../ThirdParty/mbedTLS/library/ecp.c:436:5
	ldr	r0, __arm_cp.0_0
	bx	lr
.Ltmp0:
	.p2align	2
@ %bb.1:
	.loc	1 0 5 is_stmt 0                 @ ../../../ThirdParty/mbedTLS/library/ecp.c:0:5
__arm_cp.0_0:
	.long	ecp_supported_curves
.Lcpi_end0:
	.size	__arm_cp.0_0, .Lcpi_end0-__arm_cp.0_0
.Lfunc_end0:
	.size	mbedtls_ecp_curve_list, .Lfunc_end0-mbedtls_ecp_curve_list
	.cfi_endproc
	.cantunwind
	.fnend
                                        @ -- End function
	.section	.text.mbedtls_ecp_grp_id_list,"ax",%progbits
	.hidden	mbedtls_ecp_grp_id_list         @ -- Begin function mbedtls_ecp_grp_id_list
	.globl	mbedtls_ecp_grp_id_list
	.p2align	2
	.type	mbedtls_ecp_grp_id_list,%function
	.code	16                              @ @mbedtls_ecp_grp_id_list
	.thumb_func
mbedtls_ecp_grp_id_list:
.Lfunc_begin1:
	.loc	1 443 0 is_stmt 1               @ ../../../ThirdParty/mbedTLS/library/ecp.c:443:0
	.fnstart
	.cfi_startproc
@ %bb.0:
	.save	{r4, lr}
	push	{r4, lr}
	.cfi_def_cfa_offset 8
	.cfi_offset lr, -4
	.cfi_offset r4, -8
.Ltmp1:
	.loc	1 446 11 prologue_end           @ ../../../ThirdParty/mbedTLS/library/ecp.c:446:11
	ldr	r0, __arm_cp.1_0
	ldrb	r1, [r0]
.Ltmp2:
	.loc	1 446 9 is_stmt 0               @ ../../../ThirdParty/mbedTLS/library/ecp.c:446:9
	cbnz	r1, .LBB1_4
@ %bb.1:
	.loc	1 0 9                           @ ../../../ThirdParty/mbedTLS/library/ecp.c:0:9
	ldr	r1, __arm_cp.1_1
	adds	r1, #12
	movs	r3, #0
	movs	r4, #5
	ldr	r2, __arm_cp.1_2
.LBB1_2:                                @ =>This Inner Loop Header: Depth=1
.Ltmp3:
	@DEBUG_VALUE: curve_info <- undef
	@DEBUG_VALUE: i <- $r3
	.loc	1 455 39 is_stmt 1              @ ../../../ThirdParty/mbedTLS/library/ecp.c:455:39
	strb	r4, [r2, r3]
	.loc	1 455 35 is_stmt 0              @ ../../../ThirdParty/mbedTLS/library/ecp.c:455:35
	adds	r3, r3, #1
.Ltmp4:
	@DEBUG_VALUE: i <- $r3
	@DEBUG_VALUE: curve_info <- [DW_OP_plus_uconst 12, DW_OP_stack_value] undef
	.loc	1 452 29 is_stmt 1              @ ../../../ThirdParty/mbedTLS/library/ecp.c:452:29
	ldrb	r4, [r1]
	.loc	1 452 36 is_stmt 0              @ ../../../ThirdParty/mbedTLS/library/ecp.c:452:36
	adds	r1, #12
.Ltmp5:
	.loc	1 451 9 is_stmt 1               @ ../../../ThirdParty/mbedTLS/library/ecp.c:451:9
	cmp	r3, #11
	bne	.LBB1_2
.Ltmp6:
@ %bb.3:
	@DEBUG_VALUE: i <- $r3
	@DEBUG_VALUE: i <- 11
	.loc	1 0 9 is_stmt 0                 @ ../../../ThirdParty/mbedTLS/library/ecp.c:0:9
	movs	r1, #1
	.loc	1 459 19 is_stmt 1              @ ../../../ThirdParty/mbedTLS/library/ecp.c:459:19
	strb	r1, [r0]
	movs	r0, #0
	.loc	1 457 33                        @ ../../../ThirdParty/mbedTLS/library/ecp.c:457:33
	strb	r0, [r2, #11]
.Ltmp7:
.LBB1_4:
	.loc	1 462 5                         @ ../../../ThirdParty/mbedTLS/library/ecp.c:462:5
	ldr	r0, __arm_cp.1_2
	pop	{r4, pc}
.Ltmp8:
	.p2align	2
@ %bb.5:
	.loc	1 0 5 is_stmt 0                 @ ../../../ThirdParty/mbedTLS/library/ecp.c:0:5
__arm_cp.1_0:
	.long	mbedtls_ecp_grp_id_list.init_done
.Lcpi_end1:
	.size	__arm_cp.1_0, .Lcpi_end1-__arm_cp.1_0
__arm_cp.1_1:
	.long	ecp_supported_curves
.Lcpi_end2:
	.size	__arm_cp.1_1, .Lcpi_end2-__arm_cp.1_1
__arm_cp.1_2:
	.long	ecp_supported_grp_id
.Lcpi_end3:
	.size	__arm_cp.1_2, .Lcpi_end3-__arm_cp.1_2
.Lfunc_end1:
	.size	mbedtls_ecp_grp_id_list, .Lfunc_end1-mbedtls_ecp_grp_id_list
	.cfi_endproc
	.cantunwind
	.fnend
                                        @ -- End function
	.section	.text.mbedtls_ecp_curve_info_from_grp_id,"ax",%progbits
	.hidden	mbedtls_ecp_curve_info_from_grp_id @ -- Begin function mbedtls_ecp_curve_info_from_grp_id
	.globl	mbedtls_ecp_curve_info_from_grp_id
	.p2align	2
	.type	mbedtls_ecp_curve_info_from_grp_id,%function
	.code	16                              @ @mbedtls_ecp_curve_info_from_grp_id
	.thumb_func
mbedtls_ecp_curve_info_from_grp_id:
.Lfunc_begin2:
	.loc	1 469 0 is_stmt 1               @ ../../../ThirdParty/mbedTLS/library/ecp.c:469:0
	.fnstart
	.cfi_startproc
@ %bb.0:
	@DEBUG_VALUE: mbedtls_ecp_curve_info_from_grp_id:grp_id <- $r0
	mov	r1, r0
.Ltmp9:
	@DEBUG_VALUE: mbedtls_ecp_curve_info_from_grp_id:grp_id <- $r1
	ldr	r0, __arm_cp.2_0
	movs	r3, #5
	movs	r2, #0
.Ltmp10:
	@DEBUG_VALUE: mbedtls_ecp_curve_info_from_grp_id:curve_info <- $r0
.LBB2_1:                                @ =>This Inner Loop Header: Depth=1
	@DEBUG_VALUE: mbedtls_ecp_curve_info_from_grp_id:grp_id <- $r1
	@DEBUG_VALUE: mbedtls_ecp_curve_info_from_grp_id:curve_info <- $r0
	@DEBUG_VALUE: mbedtls_ecp_curve_info_from_grp_id:curve_info <- $r0
	.loc	1 476 13 prologue_end           @ ../../../ThirdParty/mbedTLS/library/ecp.c:476:13
	cmp	r3, r1
	beq	.LBB2_4
.Ltmp11:
@ %bb.2:                                @   in Loop: Header=BB2_1 Depth=1
	@DEBUG_VALUE: mbedtls_ecp_curve_info_from_grp_id:grp_id <- $r1
	@DEBUG_VALUE: mbedtls_ecp_curve_info_from_grp_id:curve_info <- $r0
	.loc	1 473 25                        @ ../../../ThirdParty/mbedTLS/library/ecp.c:473:25
	ldrb	r3, [r0, #12]
	.loc	1 474 23                        @ ../../../ThirdParty/mbedTLS/library/ecp.c:474:23
	adds	r0, #12
.Ltmp12:
	@DEBUG_VALUE: mbedtls_ecp_curve_info_from_grp_id:curve_info <- $r0
	.loc	1 472 5                         @ ../../../ThirdParty/mbedTLS/library/ecp.c:472:5
	cmp	r3, #0
	bne	.LBB2_1
.Ltmp13:
@ %bb.3:
	@DEBUG_VALUE: mbedtls_ecp_curve_info_from_grp_id:grp_id <- $r1
	@DEBUG_VALUE: mbedtls_ecp_curve_info_from_grp_id:curve_info <- $r0
	.loc	1 0 0 is_stmt 0                 @ ../../../ThirdParty/mbedTLS/library/ecp.c:0:0
	mov	r0, r2
.Ltmp14:
.LBB2_4:
	@DEBUG_VALUE: mbedtls_ecp_curve_info_from_grp_id:grp_id <- $r1
	.loc	1 481 1 is_stmt 1               @ ../../../ThirdParty/mbedTLS/library/ecp.c:481:1
	bx	lr
.Ltmp15:
	.p2align	2
@ %bb.5:
	.loc	1 0 1 is_stmt 0                 @ ../../../ThirdParty/mbedTLS/library/ecp.c:0:1
__arm_cp.2_0:
	.long	ecp_supported_curves
.Lcpi_end4:
	.size	__arm_cp.2_0, .Lcpi_end4-__arm_cp.2_0
.Lfunc_end2:
	.size	mbedtls_ecp_curve_info_from_grp_id, .Lfunc_end2-mbedtls_ecp_curve_info_from_grp_id
	.cfi_endproc
	.cantunwind
	.fnend
                                        @ -- End function
	.section	.text.mbedtls_ecp_curve_info_from_tls_id,"ax",%progbits
	.hidden	mbedtls_ecp_curve_info_from_tls_id @ -- Begin function mbedtls_ecp_curve_info_from_tls_id
	.globl	mbedtls_ecp_curve_info_from_tls_id
	.p2align	2
	.type	mbedtls_ecp_curve_info_from_tls_id,%function
	.code	16                              @ @mbedtls_ecp_curve_info_from_tls_id
	.thumb_func
mbedtls_ecp_curve_info_from_tls_id:
.Lfunc_begin3:
	.loc	1 487 0 is_stmt 1               @ ../../../ThirdParty/mbedTLS/library/ecp.c:487:0
	.fnstart
	.cfi_startproc
@ %bb.0:
	@DEBUG_VALUE: mbedtls_ecp_curve_info_from_tls_id:tls_id <- $r0
	mov	r1, r0
.Ltmp16:
	@DEBUG_VALUE: mbedtls_ecp_curve_info_from_tls_id:tls_id <- $r1
	ldr	r0, __arm_cp.3_0
	movs	r2, #0
.Ltmp17:
	@DEBUG_VALUE: mbedtls_ecp_curve_info_from_tls_id:curve_info <- $r0
.LBB3_1:                                @ =>This Inner Loop Header: Depth=1
	@DEBUG_VALUE: mbedtls_ecp_curve_info_from_tls_id:tls_id <- $r1
	@DEBUG_VALUE: mbedtls_ecp_curve_info_from_tls_id:curve_info <- $r0
	@DEBUG_VALUE: mbedtls_ecp_curve_info_from_tls_id:curve_info <- $r0
	.loc	1 494 25 prologue_end           @ ../../../ThirdParty/mbedTLS/library/ecp.c:494:25
	ldrh	r3, [r0, #2]
.Ltmp18:
	.loc	1 494 13 is_stmt 0              @ ../../../ThirdParty/mbedTLS/library/ecp.c:494:13
	cmp	r3, r1
	beq	.LBB3_4
.Ltmp19:
@ %bb.2:                                @   in Loop: Header=BB3_1 Depth=1
	@DEBUG_VALUE: mbedtls_ecp_curve_info_from_tls_id:tls_id <- $r1
	@DEBUG_VALUE: mbedtls_ecp_curve_info_from_tls_id:curve_info <- $r0
	.loc	1 491 25 is_stmt 1              @ ../../../ThirdParty/mbedTLS/library/ecp.c:491:25
	ldrb	r3, [r0, #12]
	.loc	1 492 23                        @ ../../../ThirdParty/mbedTLS/library/ecp.c:492:23
	adds	r0, #12
.Ltmp20:
	@DEBUG_VALUE: mbedtls_ecp_curve_info_from_tls_id:curve_info <- $r0
	.loc	1 490 5                         @ ../../../ThirdParty/mbedTLS/library/ecp.c:490:5
	cmp	r3, #0
	bne	.LBB3_1
.Ltmp21:
@ %bb.3:
	@DEBUG_VALUE: mbedtls_ecp_curve_info_from_tls_id:tls_id <- $r1
	@DEBUG_VALUE: mbedtls_ecp_curve_info_from_tls_id:curve_info <- $r0
	.loc	1 0 0 is_stmt 0                 @ ../../../ThirdParty/mbedTLS/library/ecp.c:0:0
	mov	r0, r2
.Ltmp22:
.LBB3_4:
	@DEBUG_VALUE: mbedtls_ecp_curve_info_from_tls_id:tls_id <- $r1
	.loc	1 499 1 is_stmt 1               @ ../../../ThirdParty/mbedTLS/library/ecp.c:499:1
	bx	lr
.Ltmp23:
	.p2align	2
@ %bb.5:
	.loc	1 0 1 is_stmt 0                 @ ../../../ThirdParty/mbedTLS/library/ecp.c:0:1
__arm_cp.3_0:
	.long	ecp_supported_curves
.Lcpi_end5:
	.size	__arm_cp.3_0, .Lcpi_end5-__arm_cp.3_0
.Lfunc_end3:
	.size	mbedtls_ecp_curve_info_from_tls_id, .Lfunc_end3-mbedtls_ecp_curve_info_from_tls_id
	.cfi_endproc
	.cantunwind
	.fnend
                                        @ -- End function
	.section	.text.mbedtls_ecp_curve_info_from_name,"ax",%progbits
	.hidden	mbedtls_ecp_curve_info_from_name @ -- Begin function mbedtls_ecp_curve_info_from_name
	.globl	mbedtls_ecp_curve_info_from_name
	.p2align	2
	.type	mbedtls_ecp_curve_info_from_name,%function
	.code	16                              @ @mbedtls_ecp_curve_info_from_name
	.thumb_func
mbedtls_ecp_curve_info_from_name:
.Lfunc_begin4:
	.loc	1 505 0 is_stmt 1               @ ../../../ThirdParty/mbedTLS/library/ecp.c:505:0
	.fnstart
	.cfi_startproc
@ %bb.0:
	@DEBUG_VALUE: mbedtls_ecp_curve_info_from_name:name <- $r0
	.save	{r4, r5, r6, lr}
	push	{r4, r5, r6, lr}
	.cfi_def_cfa_offset 16
	.cfi_offset lr, -4
	.cfi_offset r6, -8
	.cfi_offset r5, -12
	.cfi_offset r4, -16
	movs	r4, #0
	@DEBUG_VALUE: mbedtls_ecp_curve_info_from_name:name <- $r0
.Ltmp24:
	.loc	1 508 9 prologue_end            @ ../../../ThirdParty/mbedTLS/library/ecp.c:508:9
	cbz	r0, .LBB4_4
.Ltmp25:
@ %bb.1:
	@DEBUG_VALUE: mbedtls_ecp_curve_info_from_name:name <- $r0
	.loc	1 0 9 is_stmt 0                 @ ../../../ThirdParty/mbedTLS/library/ecp.c:0:9
	mov	r5, r0
.Ltmp26:
	@DEBUG_VALUE: mbedtls_ecp_curve_info_from_name:name <- $r5
	ldr	r6, __arm_cp.4_0
.Ltmp27:
.LBB4_2:                                @ =>This Inner Loop Header: Depth=1
	@DEBUG_VALUE: mbedtls_ecp_curve_info_from_name:name <- $r5
	@DEBUG_VALUE: mbedtls_ecp_curve_info_from_name:curve_info <- $r6
	.loc	1 515 33 is_stmt 1              @ ../../../ThirdParty/mbedTLS/library/ecp.c:515:33
	ldr	r0, [r6, #8]
	.loc	1 515 13 is_stmt 0              @ ../../../ThirdParty/mbedTLS/library/ecp.c:515:13
	mov	r1, r5
	bl	strcmp
.Ltmp28:
	.loc	1 515 13                        @ ../../../ThirdParty/mbedTLS/library/ecp.c:515:13
	cbz	r0, .LBB4_5
.Ltmp29:
@ %bb.3:                                @   in Loop: Header=BB4_2 Depth=1
	@DEBUG_VALUE: mbedtls_ecp_curve_info_from_name:curve_info <- $r6
	@DEBUG_VALUE: mbedtls_ecp_curve_info_from_name:name <- $r5
	.loc	1 512 25 is_stmt 1              @ ../../../ThirdParty/mbedTLS/library/ecp.c:512:25
	ldrb	r0, [r6, #12]
	.loc	1 513 23                        @ ../../../ThirdParty/mbedTLS/library/ecp.c:513:23
	adds	r6, #12
.Ltmp30:
	@DEBUG_VALUE: mbedtls_ecp_curve_info_from_name:curve_info <- $r6
	.loc	1 511 5                         @ ../../../ThirdParty/mbedTLS/library/ecp.c:511:5
	cmp	r0, #0
	bne	.LBB4_2
.Ltmp31:
.LBB4_4:
	.loc	1 520 1                         @ ../../../ThirdParty/mbedTLS/library/ecp.c:520:1
	mov	r0, r4
	pop	{r4, r5, r6, pc}
.LBB4_5:
.Ltmp32:
	@DEBUG_VALUE: mbedtls_ecp_curve_info_from_name:curve_info <- $r6
	@DEBUG_VALUE: mbedtls_ecp_curve_info_from_name:name <- $r5
	mov	r0, r6
	pop	{r4, r5, r6, pc}
.Ltmp33:
	.p2align	2
@ %bb.6:
	.loc	1 0 1 is_stmt 0                 @ ../../../ThirdParty/mbedTLS/library/ecp.c:0:1
__arm_cp.4_0:
	.long	ecp_supported_curves
.Lcpi_end6:
	.size	__arm_cp.4_0, .Lcpi_end6-__arm_cp.4_0
.Lfunc_end4:
	.size	mbedtls_ecp_curve_info_from_name, .Lfunc_end4-mbedtls_ecp_curve_info_from_name
	.cfi_endproc
	.cantunwind
	.fnend
                                        @ -- End function
	.section	.text.mbedtls_ecp_point_init,"ax",%progbits
	.hidden	mbedtls_ecp_point_init          @ -- Begin function mbedtls_ecp_point_init
	.globl	mbedtls_ecp_point_init
	.p2align	1
	.type	mbedtls_ecp_point_init,%function
	.code	16                              @ @mbedtls_ecp_point_init
	.thumb_func
mbedtls_ecp_point_init:
.Lfunc_begin5:
	.loc	1 540 0 is_stmt 1               @ ../../../ThirdParty/mbedTLS/library/ecp.c:540:0
	.fnstart
	.cfi_startproc
@ %bb.0:
	@DEBUG_VALUE: mbedtls_ecp_point_init:pt <- $r0
	.save	{r4, lr}
	push	{r4, lr}
	.cfi_def_cfa_offset 8
	.cfi_offset lr, -4
	.cfi_offset r4, -8
	mov	r4, r0
.Ltmp34:
	@DEBUG_VALUE: mbedtls_ecp_point_init:pt <- $r4
	.loc	1 543 5 prologue_end            @ ../../../ThirdParty/mbedTLS/library/ecp.c:543:5
	bl	mbedtls_mpi_init
	.loc	1 544 28                        @ ../../../ThirdParty/mbedTLS/library/ecp.c:544:28
	mov	r0, r4
	adds	r0, #12
	.loc	1 544 5 is_stmt 0               @ ../../../ThirdParty/mbedTLS/library/ecp.c:544:5
	bl	mbedtls_mpi_init
	.loc	1 545 28 is_stmt 1              @ ../../../ThirdParty/mbedTLS/library/ecp.c:545:28
	adds	r4, #24
.Ltmp35:
	@DEBUG_VALUE: mbedtls_ecp_point_init:pt <- [DW_OP_LLVM_entry_value 1] $r0
	.loc	1 545 5 is_stmt 0               @ ../../../ThirdParty/mbedTLS/library/ecp.c:545:5
	mov	r0, r4
	bl	mbedtls_mpi_init
	.loc	1 546 1 is_stmt 1               @ ../../../ThirdParty/mbedTLS/library/ecp.c:546:1
	pop	{r4, pc}
.Ltmp36:
.Lfunc_end5:
	.size	mbedtls_ecp_point_init, .Lfunc_end5-mbedtls_ecp_point_init
	.cfi_endproc
	.cantunwind
	.fnend
                                        @ -- End function
	.section	.text.mbedtls_ecp_group_init,"ax",%progbits
	.hidden	mbedtls_ecp_group_init          @ -- Begin function mbedtls_ecp_group_init
	.globl	mbedtls_ecp_group_init
	.p2align	1
	.type	mbedtls_ecp_group_init,%function
	.code	16                              @ @mbedtls_ecp_group_init
	.thumb_func
mbedtls_ecp_group_init:
.Lfunc_begin6:
	.loc	1 552 0                         @ ../../../ThirdParty/mbedTLS/library/ecp.c:552:0
	.fnstart
	.cfi_startproc
@ %bb.0:
	@DEBUG_VALUE: mbedtls_ecp_group_init:grp <- $r0
	.save	{r4, lr}
	push	{r4, lr}
	.cfi_def_cfa_offset 8
	.cfi_offset lr, -4
	.cfi_offset r4, -8
	mov	r4, r0
	movs	r0, #0
.Ltmp37:
	@DEBUG_VALUE: mbedtls_ecp_group_init:grp <- [DW_OP_LLVM_entry_value 1] $r0
	@DEBUG_VALUE: mbedtls_ecp_group_init:grp <- $r4
	.loc	1 555 13 prologue_end           @ ../../../ThirdParty/mbedTLS/library/ecp.c:555:13
	strb	r0, [r4]
	.loc	1 556 29                        @ ../../../ThirdParty/mbedTLS/library/ecp.c:556:29
	adds	r0, r4, #4
	.loc	1 556 5 is_stmt 0               @ ../../../ThirdParty/mbedTLS/library/ecp.c:556:5
	bl	mbedtls_mpi_init
	.loc	1 557 29 is_stmt 1              @ ../../../ThirdParty/mbedTLS/library/ecp.c:557:29
	mov	r0, r4
	adds	r0, #16
	.loc	1 557 5 is_stmt 0               @ ../../../ThirdParty/mbedTLS/library/ecp.c:557:5
	bl	mbedtls_mpi_init
	.loc	1 558 29 is_stmt 1              @ ../../../ThirdParty/mbedTLS/library/ecp.c:558:29
	mov	r0, r4
	adds	r0, #28
	.loc	1 558 5 is_stmt 0               @ ../../../ThirdParty/mbedTLS/library/ecp.c:558:5
	bl	mbedtls_mpi_init
	.loc	1 559 35 is_stmt 1              @ ../../../ThirdParty/mbedTLS/library/ecp.c:559:35
	mov	r0, r4
	adds	r0, #40
	.loc	1 559 5 is_stmt 0               @ ../../../ThirdParty/mbedTLS/library/ecp.c:559:5
	bl	mbedtls_ecp_point_init
	.loc	1 560 29 is_stmt 1              @ ../../../ThirdParty/mbedTLS/library/ecp.c:560:29
	mov	r0, r4
	adds	r0, #76
	.loc	1 560 5 is_stmt 0               @ ../../../ThirdParty/mbedTLS/library/ecp.c:560:5
	bl	mbedtls_mpi_init
	.loc	1 561 10 is_stmt 1              @ ../../../ThirdParty/mbedTLS/library/ecp.c:561:10
	adds	r4, #88
.Ltmp38:
	.loc	1 0 10 is_stmt 0                @ ../../../ThirdParty/mbedTLS/library/ecp.c:0:10
	movs	r1, #36
	.loc	1 562 16 is_stmt 1              @ ../../../ThirdParty/mbedTLS/library/ecp.c:562:16
	mov	r0, r4
	bl	__aeabi_memclr4
	.loc	1 570 1                         @ ../../../ThirdParty/mbedTLS/library/ecp.c:570:1
	pop	{r4, pc}
.Ltmp39:
.Lfunc_end6:
	.size	mbedtls_ecp_group_init, .Lfunc_end6-mbedtls_ecp_group_init
	.cfi_endproc
	.cantunwind
	.fnend
                                        @ -- End function
	.section	.text.mbedtls_ecp_keypair_init,"ax",%progbits
	.hidden	mbedtls_ecp_keypair_init        @ -- Begin function mbedtls_ecp_keypair_init
	.globl	mbedtls_ecp_keypair_init
	.p2align	1
	.type	mbedtls_ecp_keypair_init,%function
	.code	16                              @ @mbedtls_ecp_keypair_init
	.thumb_func
mbedtls_ecp_keypair_init:
.Lfunc_begin7:
	.loc	1 576 0                         @ ../../../ThirdParty/mbedTLS/library/ecp.c:576:0
	.fnstart
	.cfi_startproc
@ %bb.0:
	@DEBUG_VALUE: mbedtls_ecp_keypair_init:key <- $r0
	.save	{r4, lr}
	push	{r4, lr}
	.cfi_def_cfa_offset 8
	.cfi_offset lr, -4
	.cfi_offset r4, -8
	mov	r4, r0
.Ltmp40:
	@DEBUG_VALUE: mbedtls_ecp_keypair_init:key <- $r4
	.loc	1 579 5 prologue_end            @ ../../../ThirdParty/mbedTLS/library/ecp.c:579:5
	bl	mbedtls_ecp_group_init
	.loc	1 580 29                        @ ../../../ThirdParty/mbedTLS/library/ecp.c:580:29
	mov	r0, r4
	adds	r0, #124
	.loc	1 580 5 is_stmt 0               @ ../../../ThirdParty/mbedTLS/library/ecp.c:580:5
	bl	mbedtls_mpi_init
	.loc	1 581 35 is_stmt 1              @ ../../../ThirdParty/mbedTLS/library/ecp.c:581:35
	adds	r4, #136
.Ltmp41:
	@DEBUG_VALUE: mbedtls_ecp_keypair_init:key <- [DW_OP_LLVM_entry_value 1] $r0
	.loc	1 581 5 is_stmt 0               @ ../../../ThirdParty/mbedTLS/library/ecp.c:581:5
	mov	r0, r4
	bl	mbedtls_ecp_point_init
	.loc	1 582 1 is_stmt 1               @ ../../../ThirdParty/mbedTLS/library/ecp.c:582:1
	pop	{r4, pc}
.Ltmp42:
.Lfunc_end7:
	.size	mbedtls_ecp_keypair_init, .Lfunc_end7-mbedtls_ecp_keypair_init
	.cfi_endproc
	.cantunwind
	.fnend
                                        @ -- End function
	.section	.text.mbedtls_ecp_point_free,"ax",%progbits
	.hidden	mbedtls_ecp_point_free          @ -- Begin function mbedtls_ecp_point_free
	.globl	mbedtls_ecp_point_free
	.p2align	1
	.type	mbedtls_ecp_point_free,%function
	.code	16                              @ @mbedtls_ecp_point_free
	.thumb_func
mbedtls_ecp_point_free:
.Lfunc_begin8:
	.loc	1 588 0                         @ ../../../ThirdParty/mbedTLS/library/ecp.c:588:0
	.fnstart
	.cfi_startproc
@ %bb.0:
	@DEBUG_VALUE: mbedtls_ecp_point_free:pt <- $r0
	@DEBUG_VALUE: mbedtls_ecp_point_free:pt <- $r0
	.save	{r4, lr}
	push	{r4, lr}
	.cfi_def_cfa_offset 8
	.cfi_offset lr, -4
	.cfi_offset r4, -8
.Ltmp43:
	.loc	1 589 9 prologue_end            @ ../../../ThirdParty/mbedTLS/library/ecp.c:589:9
	cbz	r0, .LBB8_2
.Ltmp44:
@ %bb.1:
	@DEBUG_VALUE: mbedtls_ecp_point_free:pt <- $r0
	.loc	1 0 9 is_stmt 0                 @ ../../../ThirdParty/mbedTLS/library/ecp.c:0:9
	mov	r4, r0
.Ltmp45:
	@DEBUG_VALUE: mbedtls_ecp_point_free:pt <- $r4
	.loc	1 592 5 is_stmt 1               @ ../../../ThirdParty/mbedTLS/library/ecp.c:592:5
	bl	mbedtls_mpi_free
	.loc	1 593 30                        @ ../../../ThirdParty/mbedTLS/library/ecp.c:593:30
	mov	r0, r4
	adds	r0, #12
	.loc	1 593 5 is_stmt 0               @ ../../../ThirdParty/mbedTLS/library/ecp.c:593:5
	bl	mbedtls_mpi_free
	.loc	1 594 30 is_stmt 1              @ ../../../ThirdParty/mbedTLS/library/ecp.c:594:30
	adds	r4, #24
.Ltmp46:
	@DEBUG_VALUE: mbedtls_ecp_point_free:pt <- [DW_OP_LLVM_entry_value 1] $r0
	.loc	1 594 5 is_stmt 0               @ ../../../ThirdParty/mbedTLS/library/ecp.c:594:5
	mov	r0, r4
	bl	mbedtls_mpi_free
.Ltmp47:
.LBB8_2:
	.loc	1 595 1 is_stmt 1               @ ../../../ThirdParty/mbedTLS/library/ecp.c:595:1
	pop	{r4, pc}
.Ltmp48:
.Lfunc_end8:
	.size	mbedtls_ecp_point_free, .Lfunc_end8-mbedtls_ecp_point_free
	.cfi_endproc
	.cantunwind
	.fnend
                                        @ -- End function
	.section	.text.mbedtls_ecp_group_free,"ax",%progbits
	.hidden	mbedtls_ecp_group_free          @ -- Begin function mbedtls_ecp_group_free
	.globl	mbedtls_ecp_group_free
	.p2align	1
	.type	mbedtls_ecp_group_free,%function
	.code	16                              @ @mbedtls_ecp_group_free
	.thumb_func
mbedtls_ecp_group_free:
.Lfunc_begin9:
	.loc	1 601 0                         @ ../../../ThirdParty/mbedTLS/library/ecp.c:601:0
	.fnstart
	.cfi_startproc
@ %bb.0:
	@DEBUG_VALUE: mbedtls_ecp_group_free:grp <- $r0
	@DEBUG_VALUE: mbedtls_ecp_group_free:grp <- $r0
	.save	{r4, r5, r6, lr}
	push	{r4, r5, r6, lr}
	.cfi_def_cfa_offset 16
	.cfi_offset lr, -4
	.cfi_offset r6, -8
	.cfi_offset r5, -12
	.cfi_offset r4, -16
.Ltmp49:
	.loc	1 604 9 prologue_end            @ ../../../ThirdParty/mbedTLS/library/ecp.c:604:9
	cbz	r0, .LBB9_9
.Ltmp50:
@ %bb.1:
	@DEBUG_VALUE: mbedtls_ecp_group_free:grp <- $r0
	.loc	1 0 9 is_stmt 0                 @ ../../../ThirdParty/mbedTLS/library/ecp.c:0:9
	mov	r4, r0
.Ltmp51:
	@DEBUG_VALUE: mbedtls_ecp_group_free:grp <- $r4
	.loc	1 607 14 is_stmt 1              @ ../../../ThirdParty/mbedTLS/library/ecp.c:607:14
	ldr	r0, [r0, #96]
.Ltmp52:
	.loc	1 607 9 is_stmt 0               @ ../../../ThirdParty/mbedTLS/library/ecp.c:607:9
	cmp	r0, #1
	beq	.LBB9_3
.Ltmp53:
@ %bb.2:
	@DEBUG_VALUE: mbedtls_ecp_group_free:grp <- $r4
	.loc	1 609 33 is_stmt 1              @ ../../../ThirdParty/mbedTLS/library/ecp.c:609:33
	adds	r0, r4, #4
	.loc	1 609 9 is_stmt 0               @ ../../../ThirdParty/mbedTLS/library/ecp.c:609:9
	bl	mbedtls_mpi_free
	.loc	1 610 33 is_stmt 1              @ ../../../ThirdParty/mbedTLS/library/ecp.c:610:33
	mov	r0, r4
	adds	r0, #16
	.loc	1 610 9 is_stmt 0               @ ../../../ThirdParty/mbedTLS/library/ecp.c:610:9
	bl	mbedtls_mpi_free
	.loc	1 611 33 is_stmt 1              @ ../../../ThirdParty/mbedTLS/library/ecp.c:611:33
	mov	r0, r4
	adds	r0, #28
	.loc	1 611 9 is_stmt 0               @ ../../../ThirdParty/mbedTLS/library/ecp.c:611:9
	bl	mbedtls_mpi_free
	.loc	1 612 39 is_stmt 1              @ ../../../ThirdParty/mbedTLS/library/ecp.c:612:39
	mov	r0, r4
	adds	r0, #40
	.loc	1 612 9 is_stmt 0               @ ../../../ThirdParty/mbedTLS/library/ecp.c:612:9
	bl	mbedtls_ecp_point_free
	.loc	1 613 33 is_stmt 1              @ ../../../ThirdParty/mbedTLS/library/ecp.c:613:33
	mov	r0, r4
	adds	r0, #76
	.loc	1 613 9 is_stmt 0               @ ../../../ThirdParty/mbedTLS/library/ecp.c:613:9
	bl	mbedtls_mpi_free
.Ltmp54:
.LBB9_3:
	@DEBUG_VALUE: mbedtls_ecp_group_free:grp <- $r4
	.loc	1 616 14 is_stmt 1              @ ../../../ThirdParty/mbedTLS/library/ecp.c:616:14
	ldr	r0, [r4, #116]
.Ltmp55:
	.loc	1 616 9 is_stmt 0               @ ../../../ThirdParty/mbedTLS/library/ecp.c:616:9
	cbz	r0, .LBB9_8
.Ltmp56:
@ %bb.4:
	@DEBUG_VALUE: mbedtls_ecp_group_free:grp <- $r4
	@DEBUG_VALUE: mbedtls_ecp_group_free:i <- 0
	.loc	1 618 30 is_stmt 1              @ ../../../ThirdParty/mbedTLS/library/ecp.c:618:30
	ldr	r0, [r4, #120]
.Ltmp57:
	.loc	1 618 9 is_stmt 0               @ ../../../ThirdParty/mbedTLS/library/ecp.c:618:9
	cbz	r0, .LBB9_7
.Ltmp58:
@ %bb.5:
	@DEBUG_VALUE: mbedtls_ecp_group_free:grp <- $r4
	@DEBUG_VALUE: mbedtls_ecp_group_free:i <- 0
	.loc	1 0 9                           @ ../../../ThirdParty/mbedTLS/library/ecp.c:0:9
	movs	r5, #0
	mov	r6, r5
.Ltmp59:
.LBB9_6:                                @ =>This Inner Loop Header: Depth=1
	@DEBUG_VALUE: mbedtls_ecp_group_free:grp <- $r4
	@DEBUG_VALUE: mbedtls_ecp_group_free:i <- $r6
	.loc	1 619 43 is_stmt 1              @ ../../../ThirdParty/mbedTLS/library/ecp.c:619:43
	ldr	r0, [r4, #116]
	.loc	1 619 13 is_stmt 0              @ ../../../ThirdParty/mbedTLS/library/ecp.c:619:13
	adds	r0, r0, r5
	bl	mbedtls_ecp_point_free
	.loc	1 618 23 is_stmt 1              @ ../../../ThirdParty/mbedTLS/library/ecp.c:618:23
	adds	r5, #36
	.loc	1 618 39 is_stmt 0              @ ../../../ThirdParty/mbedTLS/library/ecp.c:618:39
	adds	r6, r6, #1
.Ltmp60:
	@DEBUG_VALUE: mbedtls_ecp_group_free:i <- $r6
	.loc	1 618 30                        @ ../../../ThirdParty/mbedTLS/library/ecp.c:618:30
	ldr	r0, [r4, #120]
.Ltmp61:
	.loc	1 618 9                         @ ../../../ThirdParty/mbedTLS/library/ecp.c:618:9
	cmp	r6, r0
	blo	.LBB9_6
.Ltmp62:
.LBB9_7:
	@DEBUG_VALUE: mbedtls_ecp_group_free:grp <- $r4
	.loc	1 620 28 is_stmt 1              @ ../../../ThirdParty/mbedTLS/library/ecp.c:620:28
	ldr	r0, [r4, #116]
	.loc	1 620 9 is_stmt 0               @ ../../../ThirdParty/mbedTLS/library/ecp.c:620:9
	bl	free
.Ltmp63:
.LBB9_8:
	@DEBUG_VALUE: mbedtls_ecp_group_free:grp <- $r4
	.loc	1 0 9                           @ ../../../ThirdParty/mbedTLS/library/ecp.c:0:9
	movs	r1, #124
	.loc	1 623 5 is_stmt 1               @ ../../../ThirdParty/mbedTLS/library/ecp.c:623:5
	mov	r0, r4
	bl	mbedtls_platform_zeroize
.Ltmp64:
.LBB9_9:
	.loc	1 624 1                         @ ../../../ThirdParty/mbedTLS/library/ecp.c:624:1
	pop	{r4, r5, r6, pc}
.Ltmp65:
.Lfunc_end9:
	.size	mbedtls_ecp_group_free, .Lfunc_end9-mbedtls_ecp_group_free
	.cfi_endproc
	.cantunwind
	.fnend
                                        @ -- End function
	.section	.text.mbedtls_ecp_keypair_free,"ax",%progbits
	.hidden	mbedtls_ecp_keypair_free        @ -- Begin function mbedtls_ecp_keypair_free
	.globl	mbedtls_ecp_keypair_free
	.p2align	1
	.type	mbedtls_ecp_keypair_free,%function
	.code	16                              @ @mbedtls_ecp_keypair_free
	.thumb_func
mbedtls_ecp_keypair_free:
.Lfunc_begin10:
	.loc	1 630 0                         @ ../../../ThirdParty/mbedTLS/library/ecp.c:630:0
	.fnstart
	.cfi_startproc
@ %bb.0:
	@DEBUG_VALUE: mbedtls_ecp_keypair_free:key <- $r0
	@DEBUG_VALUE: mbedtls_ecp_keypair_free:key <- $r0
	.save	{r4, lr}
	push	{r4, lr}
	.cfi_def_cfa_offset 8
	.cfi_offset lr, -4
	.cfi_offset r4, -8
.Ltmp66:
	.loc	1 631 9 prologue_end            @ ../../../ThirdParty/mbedTLS/library/ecp.c:631:9
	cbz	r0, .LBB10_2
.Ltmp67:
@ %bb.1:
	@DEBUG_VALUE: mbedtls_ecp_keypair_free:key <- $r0
	.loc	1 0 9 is_stmt 0                 @ ../../../ThirdParty/mbedTLS/library/ecp.c:0:9
	mov	r4, r0
.Ltmp68:
	@DEBUG_VALUE: mbedtls_ecp_keypair_free:key <- $r4
	.loc	1 634 5 is_stmt 1               @ ../../../ThirdParty/mbedTLS/library/ecp.c:634:5
	bl	mbedtls_ecp_group_free
	.loc	1 635 29                        @ ../../../ThirdParty/mbedTLS/library/ecp.c:635:29
	mov	r0, r4
	adds	r0, #124
	.loc	1 635 5 is_stmt 0               @ ../../../ThirdParty/mbedTLS/library/ecp.c:635:5
	bl	mbedtls_mpi_free
	.loc	1 636 35 is_stmt 1              @ ../../../ThirdParty/mbedTLS/library/ecp.c:636:35
	adds	r4, #136
.Ltmp69:
	@DEBUG_VALUE: mbedtls_ecp_keypair_free:key <- [DW_OP_LLVM_entry_value 1] $r0
	.loc	1 636 5 is_stmt 0               @ ../../../ThirdParty/mbedTLS/library/ecp.c:636:5
	mov	r0, r4
	bl	mbedtls_ecp_point_free
.Ltmp70:
.LBB10_2:
	.loc	1 637 1 is_stmt 1               @ ../../../ThirdParty/mbedTLS/library/ecp.c:637:1
	pop	{r4, pc}
.Ltmp71:
.Lfunc_end10:
	.size	mbedtls_ecp_keypair_free, .Lfunc_end10-mbedtls_ecp_keypair_free
	.cfi_endproc
	.cantunwind
	.fnend
                                        @ -- End function
	.section	.text.mbedtls_ecp_copy,"ax",%progbits
	.hidden	mbedtls_ecp_copy                @ -- Begin function mbedtls_ecp_copy
	.globl	mbedtls_ecp_copy
	.p2align	1
	.type	mbedtls_ecp_copy,%function
	.code	16                              @ @mbedtls_ecp_copy
	.thumb_func
mbedtls_ecp_copy:
.Lfunc_begin11:
	.loc	1 643 0                         @ ../../../ThirdParty/mbedTLS/library/ecp.c:643:0
	.fnstart
	.cfi_startproc
@ %bb.0:
	@DEBUG_VALUE: mbedtls_ecp_copy:P <- $r0
	@DEBUG_VALUE: mbedtls_ecp_copy:Q <- $r1
	.save	{r4, r5, r7, lr}
	push	{r4, r5, r7, lr}
	.cfi_def_cfa_offset 16
	.cfi_offset lr, -4
	.cfi_offset r7, -8
	.cfi_offset r5, -12
	.cfi_offset r4, -16
	mov	r4, r1
	mov	r5, r0
.Ltmp72:
	@DEBUG_VALUE: mbedtls_ecp_copy:Q <- $r4
	@DEBUG_VALUE: mbedtls_ecp_copy:P <- $r5
	.loc	1 648 5 prologue_end            @ ../../../ThirdParty/mbedTLS/library/ecp.c:648:5
	bl	mbedtls_mpi_copy
.Ltmp73:
	@DEBUG_VALUE: mbedtls_ecp_copy:ret <- $r0
	.loc	1 648 5 is_stmt 0               @ ../../../ThirdParty/mbedTLS/library/ecp.c:648:5
	cbz	r0, .LBB11_2
.Ltmp74:
.LBB11_1:
	@DEBUG_VALUE: mbedtls_ecp_copy:P <- $r5
	@DEBUG_VALUE: mbedtls_ecp_copy:Q <- $r4
	@DEBUG_VALUE: mbedtls_ecp_copy:ret <- $r0
	@DEBUG_VALUE: mbedtls_ecp_copy:ret <- $r0
	@DEBUG_LABEL: mbedtls_ecp_copy:cleanup
	.loc	1 653 5 is_stmt 1               @ ../../../ThirdParty/mbedTLS/library/ecp.c:653:5
	pop	{r4, r5, r7, pc}
.Ltmp75:
.LBB11_2:
	@DEBUG_VALUE: mbedtls_ecp_copy:P <- $r5
	@DEBUG_VALUE: mbedtls_ecp_copy:Q <- $r4
	@DEBUG_VALUE: mbedtls_ecp_copy:ret <- $r0
	.loc	1 649 5                         @ ../../../ThirdParty/mbedTLS/library/ecp.c:649:5
	mov	r0, r5
.Ltmp76:
	adds	r0, #12
	mov	r1, r4
	adds	r1, #12
	bl	mbedtls_mpi_copy
.Ltmp77:
	@DEBUG_VALUE: mbedtls_ecp_copy:ret <- $r0
	.loc	1 649 5 is_stmt 0               @ ../../../ThirdParty/mbedTLS/library/ecp.c:649:5
	cmp	r0, #0
	bne	.LBB11_1
.Ltmp78:
@ %bb.3:
	@DEBUG_VALUE: mbedtls_ecp_copy:P <- $r5
	@DEBUG_VALUE: mbedtls_ecp_copy:Q <- $r4
	@DEBUG_VALUE: mbedtls_ecp_copy:ret <- $r0
	.loc	1 650 5 is_stmt 1               @ ../../../ThirdParty/mbedTLS/library/ecp.c:650:5
	adds	r5, #24
.Ltmp79:
	adds	r4, #24
.Ltmp80:
	mov	r0, r5
.Ltmp81:
	mov	r1, r4
	bl	mbedtls_mpi_copy
.Ltmp82:
	@DEBUG_VALUE: mbedtls_ecp_copy:ret <- $r0
	@DEBUG_VALUE: mbedtls_ecp_copy:ret <- $r0
	@DEBUG_LABEL: mbedtls_ecp_copy:cleanup
	.loc	1 653 5                         @ ../../../ThirdParty/mbedTLS/library/ecp.c:653:5
	pop	{r4, r5, r7, pc}
.Ltmp83:
.Lfunc_end11:
	.size	mbedtls_ecp_copy, .Lfunc_end11-mbedtls_ecp_copy
	.cfi_endproc
	.cantunwind
	.fnend
                                        @ -- End function
	.section	.text.mbedtls_ecp_group_copy,"ax",%progbits
	.hidden	mbedtls_ecp_group_copy          @ -- Begin function mbedtls_ecp_group_copy
	.globl	mbedtls_ecp_group_copy
	.p2align	1
	.type	mbedtls_ecp_group_copy,%function
	.code	16                              @ @mbedtls_ecp_group_copy
	.thumb_func
mbedtls_ecp_group_copy:
.Lfunc_begin12:
	.loc	1 660 0                         @ ../../../ThirdParty/mbedTLS/library/ecp.c:660:0
	.fnstart
	.cfi_startproc
@ %bb.0:
	@DEBUG_VALUE: mbedtls_ecp_group_copy:dst <- $r0
	@DEBUG_VALUE: mbedtls_ecp_group_copy:dst <- $r0
	@DEBUG_VALUE: mbedtls_ecp_group_copy:src <- $r1
	@DEBUG_VALUE: mbedtls_ecp_group_copy:src <- $r1
	.save	{r7, lr}
	push	{r7, lr}
	.cfi_def_cfa_offset 8
	.cfi_offset lr, -4
	.cfi_offset r7, -8
.Ltmp84:
	.loc	1 664 47 prologue_end           @ ../../../ThirdParty/mbedTLS/library/ecp.c:664:47
	ldrb	r1, [r1]
.Ltmp85:
	@DEBUG_VALUE: mbedtls_ecp_group_copy:src <- [DW_OP_LLVM_entry_value 1] $r1
	@DEBUG_VALUE: mbedtls_ecp_group_copy:dst <- $r0
	.loc	1 664 13 is_stmt 0              @ ../../../ThirdParty/mbedTLS/library/ecp.c:664:13
	bl	mbedtls_ecp_group_load
.Ltmp86:
	@DEBUG_VALUE: mbedtls_ecp_group_copy:dst <- [DW_OP_LLVM_entry_value 1] $r0
	.loc	1 664 5                         @ ../../../ThirdParty/mbedTLS/library/ecp.c:664:5
	pop	{r7, pc}
.Ltmp87:
.Lfunc_end12:
	.size	mbedtls_ecp_group_copy, .Lfunc_end12-mbedtls_ecp_group_copy
	.cfi_endproc
	.cantunwind
	.fnend
                                        @ -- End function
	.section	.text.mbedtls_ecp_set_zero,"ax",%progbits
	.hidden	mbedtls_ecp_set_zero            @ -- Begin function mbedtls_ecp_set_zero
	.globl	mbedtls_ecp_set_zero
	.p2align	1
	.type	mbedtls_ecp_set_zero,%function
	.code	16                              @ @mbedtls_ecp_set_zero
	.thumb_func
mbedtls_ecp_set_zero:
.Lfunc_begin13:
	.loc	1 671 0 is_stmt 1               @ ../../../ThirdParty/mbedTLS/library/ecp.c:671:0
	.fnstart
	.cfi_startproc
@ %bb.0:
	@DEBUG_VALUE: mbedtls_ecp_set_zero:pt <- $r0
	.save	{r4, lr}
	push	{r4, lr}
	.cfi_def_cfa_offset 8
	.cfi_offset lr, -4
	.cfi_offset r4, -8
	mov	r4, r0
.Ltmp88:
	@DEBUG_VALUE: mbedtls_ecp_set_zero:pt <- $r4
	movs	r1, #1
.Ltmp89:
	.loc	1 675 5 prologue_end            @ ../../../ThirdParty/mbedTLS/library/ecp.c:675:5
	bl	mbedtls_mpi_lset
.Ltmp90:
	@DEBUG_VALUE: mbedtls_ecp_set_zero:ret <- $r0
	.loc	1 675 5 is_stmt 0               @ ../../../ThirdParty/mbedTLS/library/ecp.c:675:5
	cbz	r0, .LBB13_2
.Ltmp91:
.LBB13_1:
	@DEBUG_VALUE: mbedtls_ecp_set_zero:pt <- $r4
	@DEBUG_VALUE: mbedtls_ecp_set_zero:ret <- $r0
	@DEBUG_VALUE: mbedtls_ecp_set_zero:ret <- $r0
	@DEBUG_LABEL: mbedtls_ecp_set_zero:cleanup
	.loc	1 680 5 is_stmt 1               @ ../../../ThirdParty/mbedTLS/library/ecp.c:680:5
	pop	{r4, pc}
.Ltmp92:
.LBB13_2:
	@DEBUG_VALUE: mbedtls_ecp_set_zero:pt <- $r4
	@DEBUG_VALUE: mbedtls_ecp_set_zero:ret <- $r0
	.loc	1 676 5                         @ ../../../ThirdParty/mbedTLS/library/ecp.c:676:5
	mov	r0, r4
.Ltmp93:
	adds	r0, #12
	movs	r1, #1
	bl	mbedtls_mpi_lset
.Ltmp94:
	@DEBUG_VALUE: mbedtls_ecp_set_zero:ret <- $r0
	.loc	1 676 5 is_stmt 0               @ ../../../ThirdParty/mbedTLS/library/ecp.c:676:5
	cmp	r0, #0
	bne	.LBB13_1
.Ltmp95:
@ %bb.3:
	@DEBUG_VALUE: mbedtls_ecp_set_zero:pt <- $r4
	@DEBUG_VALUE: mbedtls_ecp_set_zero:ret <- $r0
	.loc	1 677 5 is_stmt 1               @ ../../../ThirdParty/mbedTLS/library/ecp.c:677:5
	adds	r4, #24
.Ltmp96:
	@DEBUG_VALUE: mbedtls_ecp_set_zero:pt <- [DW_OP_LLVM_entry_value 1] $r0
	.loc	1 0 5 is_stmt 0                 @ ../../../ThirdParty/mbedTLS/library/ecp.c:0:5
	movs	r1, #0
	.loc	1 677 5                         @ ../../../ThirdParty/mbedTLS/library/ecp.c:677:5
	mov	r0, r4
.Ltmp97:
	bl	mbedtls_mpi_lset
.Ltmp98:
	@DEBUG_VALUE: mbedtls_ecp_set_zero:ret <- $r0
	@DEBUG_VALUE: mbedtls_ecp_set_zero:ret <- $r0
	@DEBUG_LABEL: mbedtls_ecp_set_zero:cleanup
	.loc	1 680 5 is_stmt 1               @ ../../../ThirdParty/mbedTLS/library/ecp.c:680:5
	pop	{r4, pc}
.Ltmp99:
.Lfunc_end13:
	.size	mbedtls_ecp_set_zero, .Lfunc_end13-mbedtls_ecp_set_zero
	.cfi_endproc
	.cantunwind
	.fnend
                                        @ -- End function
	.section	.text.mbedtls_ecp_is_zero,"ax",%progbits
	.hidden	mbedtls_ecp_is_zero             @ -- Begin function mbedtls_ecp_is_zero
	.globl	mbedtls_ecp_is_zero
	.p2align	1
	.type	mbedtls_ecp_is_zero,%function
	.code	16                              @ @mbedtls_ecp_is_zero
	.thumb_func
mbedtls_ecp_is_zero:
.Lfunc_begin14:
	.loc	1 687 0                         @ ../../../ThirdParty/mbedTLS/library/ecp.c:687:0
	.fnstart
	.cfi_startproc
@ %bb.0:
	@DEBUG_VALUE: mbedtls_ecp_is_zero:pt <- $r0
	@DEBUG_VALUE: mbedtls_ecp_is_zero:pt <- $r0
	.save	{r7, lr}
	push	{r7, lr}
	.cfi_def_cfa_offset 8
	.cfi_offset lr, -4
	.cfi_offset r7, -8
.Ltmp100:
	.loc	1 690 39 prologue_end           @ ../../../ThirdParty/mbedTLS/library/ecp.c:690:39
	adds	r0, #24
.Ltmp101:
	@DEBUG_VALUE: mbedtls_ecp_is_zero:pt <- [DW_OP_LLVM_entry_value 1] $r0
	.loc	1 0 39 is_stmt 0                @ ../../../ThirdParty/mbedTLS/library/ecp.c:0:39
	movs	r1, #0
	.loc	1 690 13                        @ ../../../ThirdParty/mbedTLS/library/ecp.c:690:13
	bl	mbedtls_mpi_cmp_int
	.loc	1 690 46                        @ ../../../ThirdParty/mbedTLS/library/ecp.c:690:46
	rsbs	r1, r0, #0
	adcs	r0, r1
	.loc	1 690 5                         @ ../../../ThirdParty/mbedTLS/library/ecp.c:690:5
	pop	{r7, pc}
.Ltmp102:
.Lfunc_end14:
	.size	mbedtls_ecp_is_zero, .Lfunc_end14-mbedtls_ecp_is_zero
	.cfi_endproc
	.cantunwind
	.fnend
                                        @ -- End function
	.section	.text.mbedtls_ecp_point_cmp,"ax",%progbits
	.hidden	mbedtls_ecp_point_cmp           @ -- Begin function mbedtls_ecp_point_cmp
	.globl	mbedtls_ecp_point_cmp
	.p2align	2
	.type	mbedtls_ecp_point_cmp,%function
	.code	16                              @ @mbedtls_ecp_point_cmp
	.thumb_func
mbedtls_ecp_point_cmp:
.Lfunc_begin15:
	.loc	1 698 0 is_stmt 1               @ ../../../ThirdParty/mbedTLS/library/ecp.c:698:0
	.fnstart
	.cfi_startproc
@ %bb.0:
	@DEBUG_VALUE: mbedtls_ecp_point_cmp:P <- $r0
	@DEBUG_VALUE: mbedtls_ecp_point_cmp:Q <- $r1
	.save	{r4, r5, r7, lr}
	push	{r4, r5, r7, lr}
	.cfi_def_cfa_offset 16
	.cfi_offset lr, -4
	.cfi_offset r7, -8
	.cfi_offset r5, -12
	.cfi_offset r4, -16
	mov	r4, r1
	mov	r5, r0
.Ltmp103:
	@DEBUG_VALUE: mbedtls_ecp_point_cmp:Q <- $r4
	@DEBUG_VALUE: mbedtls_ecp_point_cmp:P <- $r5
	.loc	1 702 9 prologue_end            @ ../../../ThirdParty/mbedTLS/library/ecp.c:702:9
	bl	mbedtls_mpi_cmp_mpi
	.loc	1 702 50 is_stmt 0              @ ../../../ThirdParty/mbedTLS/library/ecp.c:702:50
	cbnz	r0, .LBB15_3
.Ltmp104:
@ %bb.1:
	@DEBUG_VALUE: mbedtls_ecp_point_cmp:P <- $r5
	@DEBUG_VALUE: mbedtls_ecp_point_cmp:Q <- $r4
	.loc	1 703 38 is_stmt 1              @ ../../../ThirdParty/mbedTLS/library/ecp.c:703:38
	mov	r0, r5
	adds	r0, #12
	.loc	1 703 45 is_stmt 0              @ ../../../ThirdParty/mbedTLS/library/ecp.c:703:45
	mov	r1, r4
	adds	r1, #12
	.loc	1 703 13                        @ ../../../ThirdParty/mbedTLS/library/ecp.c:703:13
	bl	mbedtls_mpi_cmp_mpi
	.loc	1 703 54                        @ ../../../ThirdParty/mbedTLS/library/ecp.c:703:54
	cbnz	r0, .LBB15_3
.Ltmp105:
@ %bb.2:
	@DEBUG_VALUE: mbedtls_ecp_point_cmp:P <- $r5
	@DEBUG_VALUE: mbedtls_ecp_point_cmp:Q <- $r4
	.loc	1 704 38 is_stmt 1              @ ../../../ThirdParty/mbedTLS/library/ecp.c:704:38
	adds	r5, #24
.Ltmp106:
	.loc	1 704 45 is_stmt 0              @ ../../../ThirdParty/mbedTLS/library/ecp.c:704:45
	adds	r4, #24
.Ltmp107:
	.loc	1 704 13                        @ ../../../ThirdParty/mbedTLS/library/ecp.c:704:13
	mov	r0, r5
	mov	r1, r4
	bl	mbedtls_mpi_cmp_mpi
.Ltmp108:
	.loc	1 702 9 is_stmt 1               @ ../../../ThirdParty/mbedTLS/library/ecp.c:702:9
	cbz	r0, .LBB15_4
.LBB15_3:
	.loc	1 0 9 is_stmt 0                 @ ../../../ThirdParty/mbedTLS/library/ecp.c:0:9
	ldr	r0, __arm_cp.15_0
	.loc	1 710 1 is_stmt 1               @ ../../../ThirdParty/mbedTLS/library/ecp.c:710:1
	pop	{r4, r5, r7, pc}
.LBB15_4:
	.loc	1 0 1 is_stmt 0                 @ ../../../ThirdParty/mbedTLS/library/ecp.c:0:1
	movs	r0, #0
	.loc	1 710 1                         @ ../../../ThirdParty/mbedTLS/library/ecp.c:710:1
	pop	{r4, r5, r7, pc}
.Ltmp109:
	.p2align	2
@ %bb.5:
	.loc	1 0 1                           @ ../../../ThirdParty/mbedTLS/library/ecp.c:0:1
__arm_cp.15_0:
	.long	4294946944                      @ 0xffffb080
.Lcpi_end7:
	.size	__arm_cp.15_0, .Lcpi_end7-__arm_cp.15_0
.Lfunc_end15:
	.size	mbedtls_ecp_point_cmp, .Lfunc_end15-mbedtls_ecp_point_cmp
	.cfi_endproc
	.cantunwind
	.fnend
                                        @ -- End function
	.section	.text.mbedtls_ecp_point_read_string,"ax",%progbits
	.hidden	mbedtls_ecp_point_read_string   @ -- Begin function mbedtls_ecp_point_read_string
	.globl	mbedtls_ecp_point_read_string
	.p2align	1
	.type	mbedtls_ecp_point_read_string,%function
	.code	16                              @ @mbedtls_ecp_point_read_string
	.thumb_func
mbedtls_ecp_point_read_string:
.Lfunc_begin16:
	.loc	1 717 0 is_stmt 1               @ ../../../ThirdParty/mbedTLS/library/ecp.c:717:0
	.fnstart
	.cfi_startproc
@ %bb.0:
	@DEBUG_VALUE: mbedtls_ecp_point_read_string:P <- $r0
	@DEBUG_VALUE: mbedtls_ecp_point_read_string:radix <- $r1
	@DEBUG_VALUE: mbedtls_ecp_point_read_string:x <- $r2
	@DEBUG_VALUE: mbedtls_ecp_point_read_string:y <- $r3
	.save	{r4, r5, r6, lr}
	push	{r4, r5, r6, lr}
	.cfi_def_cfa_offset 16
	.cfi_offset lr, -4
	.cfi_offset r6, -8
	.cfi_offset r5, -12
	.cfi_offset r4, -16
	mov	r5, r3
	mov	r6, r1
	mov	r4, r0
.Ltmp110:
	@DEBUG_VALUE: mbedtls_ecp_point_read_string:y <- $r5
	@DEBUG_VALUE: mbedtls_ecp_point_read_string:x <- $r2
	@DEBUG_VALUE: mbedtls_ecp_point_read_string:radix <- $r6
	@DEBUG_VALUE: mbedtls_ecp_point_read_string:P <- $r4
	@DEBUG_VALUE: mbedtls_ecp_point_read_string:x <- $r2
	.loc	1 723 5 prologue_end            @ ../../../ThirdParty/mbedTLS/library/ecp.c:723:5
	bl	mbedtls_mpi_read_string
.Ltmp111:
	@DEBUG_VALUE: mbedtls_ecp_point_read_string:x <- [DW_OP_LLVM_entry_value 1] $r2
	@DEBUG_VALUE: mbedtls_ecp_point_read_string:ret <- $r0
	.loc	1 723 5 is_stmt 0               @ ../../../ThirdParty/mbedTLS/library/ecp.c:723:5
	cbz	r0, .LBB16_2
.Ltmp112:
.LBB16_1:
	@DEBUG_VALUE: mbedtls_ecp_point_read_string:radix <- $r6
	@DEBUG_VALUE: mbedtls_ecp_point_read_string:y <- $r5
	@DEBUG_VALUE: mbedtls_ecp_point_read_string:P <- $r4
	@DEBUG_VALUE: mbedtls_ecp_point_read_string:ret <- $r0
	@DEBUG_VALUE: mbedtls_ecp_point_read_string:x <- [DW_OP_LLVM_entry_value 1] $r2
	@DEBUG_VALUE: mbedtls_ecp_point_read_string:ret <- $r0
	@DEBUG_LABEL: mbedtls_ecp_point_read_string:cleanup
	.loc	1 728 5 is_stmt 1               @ ../../../ThirdParty/mbedTLS/library/ecp.c:728:5
	pop	{r4, r5, r6, pc}
.Ltmp113:
.LBB16_2:
	@DEBUG_VALUE: mbedtls_ecp_point_read_string:radix <- $r6
	@DEBUG_VALUE: mbedtls_ecp_point_read_string:y <- $r5
	@DEBUG_VALUE: mbedtls_ecp_point_read_string:P <- $r4
	@DEBUG_VALUE: mbedtls_ecp_point_read_string:ret <- $r0
	@DEBUG_VALUE: mbedtls_ecp_point_read_string:x <- [DW_OP_LLVM_entry_value 1] $r2
	.loc	1 724 5                         @ ../../../ThirdParty/mbedTLS/library/ecp.c:724:5
	mov	r0, r4
.Ltmp114:
	adds	r0, #12
	mov	r1, r6
	mov	r2, r5
	bl	mbedtls_mpi_read_string
.Ltmp115:
	@DEBUG_VALUE: mbedtls_ecp_point_read_string:ret <- $r0
	.loc	1 724 5 is_stmt 0               @ ../../../ThirdParty/mbedTLS/library/ecp.c:724:5
	cmp	r0, #0
	bne	.LBB16_1
.Ltmp116:
@ %bb.3:
	@DEBUG_VALUE: mbedtls_ecp_point_read_string:radix <- $r6
	@DEBUG_VALUE: mbedtls_ecp_point_read_string:y <- $r5
	@DEBUG_VALUE: mbedtls_ecp_point_read_string:P <- $r4
	@DEBUG_VALUE: mbedtls_ecp_point_read_string:ret <- $r0
	@DEBUG_VALUE: mbedtls_ecp_point_read_string:x <- [DW_OP_LLVM_entry_value 1] $r2
	.loc	1 725 5 is_stmt 1               @ ../../../ThirdParty/mbedTLS/library/ecp.c:725:5
	adds	r4, #24
.Ltmp117:
	.loc	1 0 5 is_stmt 0                 @ ../../../ThirdParty/mbedTLS/library/ecp.c:0:5
	movs	r1, #1
	.loc	1 725 5                         @ ../../../ThirdParty/mbedTLS/library/ecp.c:725:5
	mov	r0, r4
.Ltmp118:
	bl	mbedtls_mpi_lset
.Ltmp119:
	@DEBUG_VALUE: mbedtls_ecp_point_read_string:ret <- $r0
	@DEBUG_VALUE: mbedtls_ecp_point_read_string:ret <- $r0
	@DEBUG_LABEL: mbedtls_ecp_point_read_string:cleanup
	.loc	1 728 5 is_stmt 1               @ ../../../ThirdParty/mbedTLS/library/ecp.c:728:5
	pop	{r4, r5, r6, pc}
.Ltmp120:
.Lfunc_end16:
	.size	mbedtls_ecp_point_read_string, .Lfunc_end16-mbedtls_ecp_point_read_string
	.cfi_endproc
	.cantunwind
	.fnend
                                        @ -- End function
	.section	.text.mbedtls_ecp_point_write_binary,"ax",%progbits
	.hidden	mbedtls_ecp_point_write_binary  @ -- Begin function mbedtls_ecp_point_write_binary
	.globl	mbedtls_ecp_point_write_binary
	.p2align	2
	.type	mbedtls_ecp_point_write_binary,%function
	.code	16                              @ @mbedtls_ecp_point_write_binary
	.thumb_func
mbedtls_ecp_point_write_binary:
.Lfunc_begin17:
	.loc	1 738 0                         @ ../../../ThirdParty/mbedTLS/library/ecp.c:738:0
	.fnstart
	.cfi_startproc
@ %bb.0:
	@DEBUG_VALUE: mbedtls_ecp_point_write_binary:grp <- $r0
	@DEBUG_VALUE: mbedtls_ecp_point_write_binary:P <- $r1
	@DEBUG_VALUE: mbedtls_ecp_point_write_binary:format <- $r2
	@DEBUG_VALUE: mbedtls_ecp_point_write_binary:olen <- $r3
	.save	{r4, r5, r6, r7, lr}
	push	{r4, r5, r6, r7, lr}
	.cfi_def_cfa_offset 20
	.cfi_offset lr, -4
	.cfi_offset r7, -8
	.cfi_offset r6, -12
	.cfi_offset r5, -16
	.cfi_offset r4, -20
	.pad	#12
	sub	sp, #12
	.cfi_def_cfa_offset 32
	str	r3, [sp, #8]                    @ 4-byte Spill
	mov	r5, r2
	mov	r7, r0
.Ltmp121:
	@DEBUG_VALUE: mbedtls_ecp_point_write_binary:buflen <- [DW_OP_plus_uconst 36] [$sp+0]
	@DEBUG_VALUE: mbedtls_ecp_point_write_binary:buf <- [DW_OP_plus_uconst 32] [$sp+0]
	@DEBUG_VALUE: mbedtls_ecp_point_write_binary:olen <- [DW_OP_plus_uconst 8] [$sp+0]
	@DEBUG_VALUE: mbedtls_ecp_point_write_binary:format <- $r5
	@DEBUG_VALUE: mbedtls_ecp_point_write_binary:P <- $r1
	@DEBUG_VALUE: mbedtls_ecp_point_write_binary:grp <- $r7
	@DEBUG_VALUE: mbedtls_ecp_point_write_binary:ret <- 0
	str	r1, [sp, #4]                    @ 4-byte Spill
.Ltmp122:
	@DEBUG_VALUE: mbedtls_ecp_point_write_binary:P <- [DW_OP_plus_uconst 4] [$sp+0]
	.loc	1 751 34 prologue_end           @ ../../../ThirdParty/mbedTLS/library/ecp.c:751:34
	mov	r0, r1
	adds	r0, #24
	movs	r6, #0
	.loc	1 751 9 is_stmt 0               @ ../../../ThirdParty/mbedTLS/library/ecp.c:751:9
	mov	r1, r6
	bl	mbedtls_mpi_cmp_int
	ldr	r4, [sp, #36]
	ldr	r1, [sp, #32]
.Ltmp123:
	.loc	1 751 9                         @ ../../../ThirdParty/mbedTLS/library/ecp.c:751:9
	cbz	r0, .LBB17_5
.Ltmp124:
@ %bb.1:
	@DEBUG_VALUE: mbedtls_ecp_point_write_binary:grp <- $r7
	@DEBUG_VALUE: mbedtls_ecp_point_write_binary:format <- $r5
	@DEBUG_VALUE: mbedtls_ecp_point_write_binary:P <- [DW_OP_plus_uconst 4] [$sp+0]
	@DEBUG_VALUE: mbedtls_ecp_point_write_binary:olen <- [DW_OP_plus_uconst 8] [$sp+0]
	@DEBUG_VALUE: mbedtls_ecp_point_write_binary:buf <- [DW_OP_plus_uconst 32] [$sp+0]
	@DEBUG_VALUE: mbedtls_ecp_point_write_binary:buflen <- [DW_OP_plus_uconst 36] [$sp+0]
	@DEBUG_VALUE: mbedtls_ecp_point_write_binary:ret <- 0
	.loc	1 0 9                           @ ../../../ThirdParty/mbedTLS/library/ecp.c:0:9
	str	r1, [sp]                        @ 4-byte Spill
	.loc	1 762 36 is_stmt 1              @ ../../../ThirdParty/mbedTLS/library/ecp.c:762:36
	adds	r0, r7, #4
	.loc	1 762 12 is_stmt 0              @ ../../../ThirdParty/mbedTLS/library/ecp.c:762:12
	bl	mbedtls_mpi_size
	mov	r7, r0
.Ltmp125:
	@DEBUG_VALUE: mbedtls_ecp_point_write_binary:plen <- $r7
	.loc	1 764 9 is_stmt 1               @ ../../../ThirdParty/mbedTLS/library/ecp.c:764:9
	cmp	r5, #1
	beq	.LBB17_7
.Ltmp126:
@ %bb.2:
	@DEBUG_VALUE: mbedtls_ecp_point_write_binary:plen <- $r7
	@DEBUG_VALUE: mbedtls_ecp_point_write_binary:format <- $r5
	@DEBUG_VALUE: mbedtls_ecp_point_write_binary:P <- [DW_OP_plus_uconst 4] [$sp+0]
	@DEBUG_VALUE: mbedtls_ecp_point_write_binary:olen <- [DW_OP_plus_uconst 8] [$sp+0]
	@DEBUG_VALUE: mbedtls_ecp_point_write_binary:buf <- [DW_OP_plus_uconst 32] [$sp+0]
	@DEBUG_VALUE: mbedtls_ecp_point_write_binary:buflen <- [DW_OP_plus_uconst 36] [$sp+0]
	@DEBUG_VALUE: mbedtls_ecp_point_write_binary:ret <- 0
	cbnz	r5, .LBB17_13
.Ltmp127:
@ %bb.3:
	@DEBUG_VALUE: mbedtls_ecp_point_write_binary:plen <- $r7
	@DEBUG_VALUE: mbedtls_ecp_point_write_binary:format <- $r5
	@DEBUG_VALUE: mbedtls_ecp_point_write_binary:P <- [DW_OP_plus_uconst 4] [$sp+0]
	@DEBUG_VALUE: mbedtls_ecp_point_write_binary:olen <- [DW_OP_plus_uconst 8] [$sp+0]
	@DEBUG_VALUE: mbedtls_ecp_point_write_binary:buf <- [DW_OP_plus_uconst 32] [$sp+0]
	@DEBUG_VALUE: mbedtls_ecp_point_write_binary:buflen <- [DW_OP_plus_uconst 36] [$sp+0]
	@DEBUG_VALUE: mbedtls_ecp_point_write_binary:ret <- 0
	.loc	1 766 19                        @ ../../../ThirdParty/mbedTLS/library/ecp.c:766:19
	lsls	r0, r7, #1
	.loc	1 766 26 is_stmt 0              @ ../../../ThirdParty/mbedTLS/library/ecp.c:766:26
	adds	r0, r0, #1
	.loc	1 766 15                        @ ../../../ThirdParty/mbedTLS/library/ecp.c:766:15
	ldr	r1, [sp, #8]                    @ 4-byte Reload
	str	r0, [r1]
	.loc	1 768 13 is_stmt 1              @ ../../../ThirdParty/mbedTLS/library/ecp.c:768:13
	cmp	r0, r4
	bls	.LBB17_10
.Ltmp128:
@ %bb.4:
	@DEBUG_VALUE: mbedtls_ecp_point_write_binary:plen <- $r7
	@DEBUG_VALUE: mbedtls_ecp_point_write_binary:format <- $r5
	@DEBUG_VALUE: mbedtls_ecp_point_write_binary:P <- [DW_OP_plus_uconst 4] [$sp+0]
	@DEBUG_VALUE: mbedtls_ecp_point_write_binary:olen <- [DW_OP_plus_uconst 8] [$sp+0]
	@DEBUG_VALUE: mbedtls_ecp_point_write_binary:buf <- [DW_OP_plus_uconst 32] [$sp+0]
	@DEBUG_VALUE: mbedtls_ecp_point_write_binary:buflen <- [DW_OP_plus_uconst 36] [$sp+0]
	@DEBUG_VALUE: mbedtls_ecp_point_write_binary:ret <- 0
	.loc	1 0 13 is_stmt 0                @ ../../../ThirdParty/mbedTLS/library/ecp.c:0:13
	ldr	r6, __arm_cp.17_0
	b	.LBB17_13
.Ltmp129:
.LBB17_5:
	@DEBUG_VALUE: mbedtls_ecp_point_write_binary:grp <- $r7
	@DEBUG_VALUE: mbedtls_ecp_point_write_binary:format <- $r5
	@DEBUG_VALUE: mbedtls_ecp_point_write_binary:P <- [DW_OP_plus_uconst 4] [$sp+0]
	@DEBUG_VALUE: mbedtls_ecp_point_write_binary:olen <- [DW_OP_plus_uconst 8] [$sp+0]
	@DEBUG_VALUE: mbedtls_ecp_point_write_binary:buf <- [DW_OP_plus_uconst 32] [$sp+0]
	@DEBUG_VALUE: mbedtls_ecp_point_write_binary:buflen <- [DW_OP_plus_uconst 36] [$sp+0]
	@DEBUG_VALUE: mbedtls_ecp_point_write_binary:ret <- 0
	.loc	1 753 13 is_stmt 1              @ ../../../ThirdParty/mbedTLS/library/ecp.c:753:13
	cbz	r4, .LBB17_9
.Ltmp130:
@ %bb.6:
	@DEBUG_VALUE: mbedtls_ecp_point_write_binary:grp <- $r7
	@DEBUG_VALUE: mbedtls_ecp_point_write_binary:format <- $r5
	@DEBUG_VALUE: mbedtls_ecp_point_write_binary:P <- [DW_OP_plus_uconst 4] [$sp+0]
	@DEBUG_VALUE: mbedtls_ecp_point_write_binary:olen <- [DW_OP_plus_uconst 8] [$sp+0]
	@DEBUG_VALUE: mbedtls_ecp_point_write_binary:buf <- [DW_OP_plus_uconst 32] [$sp+0]
	@DEBUG_VALUE: mbedtls_ecp_point_write_binary:buflen <- [DW_OP_plus_uconst 36] [$sp+0]
	@DEBUG_VALUE: mbedtls_ecp_point_write_binary:ret <- 0
	.loc	1 0 13 is_stmt 0                @ ../../../ThirdParty/mbedTLS/library/ecp.c:0:13
	movs	r6, #0
	.loc	1 756 16 is_stmt 1              @ ../../../ThirdParty/mbedTLS/library/ecp.c:756:16
	strb	r6, [r1]
	movs	r0, #1
	.loc	1 757 15                        @ ../../../ThirdParty/mbedTLS/library/ecp.c:757:15
	ldr	r1, [sp, #8]                    @ 4-byte Reload
	str	r0, [r1]
	.loc	1 759 9                         @ ../../../ThirdParty/mbedTLS/library/ecp.c:759:9
	b	.LBB17_13
.Ltmp131:
.LBB17_7:
	@DEBUG_VALUE: mbedtls_ecp_point_write_binary:plen <- $r7
	@DEBUG_VALUE: mbedtls_ecp_point_write_binary:format <- $r5
	@DEBUG_VALUE: mbedtls_ecp_point_write_binary:P <- [DW_OP_plus_uconst 4] [$sp+0]
	@DEBUG_VALUE: mbedtls_ecp_point_write_binary:olen <- [DW_OP_plus_uconst 8] [$sp+0]
	@DEBUG_VALUE: mbedtls_ecp_point_write_binary:buf <- [DW_OP_plus_uconst 32] [$sp+0]
	@DEBUG_VALUE: mbedtls_ecp_point_write_binary:buflen <- [DW_OP_plus_uconst 36] [$sp+0]
	@DEBUG_VALUE: mbedtls_ecp_point_write_binary:ret <- 0
	.loc	1 777 22                        @ ../../../ThirdParty/mbedTLS/library/ecp.c:777:22
	adds	r0, r7, #1
	.loc	1 777 15 is_stmt 0              @ ../../../ThirdParty/mbedTLS/library/ecp.c:777:15
	ldr	r1, [sp, #8]                    @ 4-byte Reload
	str	r0, [r1]
	.loc	1 779 13 is_stmt 1              @ ../../../ThirdParty/mbedTLS/library/ecp.c:779:13
	cmp	r0, r4
	bls	.LBB17_12
.Ltmp132:
@ %bb.8:
	@DEBUG_VALUE: mbedtls_ecp_point_write_binary:plen <- $r7
	@DEBUG_VALUE: mbedtls_ecp_point_write_binary:format <- $r5
	@DEBUG_VALUE: mbedtls_ecp_point_write_binary:P <- [DW_OP_plus_uconst 4] [$sp+0]
	@DEBUG_VALUE: mbedtls_ecp_point_write_binary:olen <- [DW_OP_plus_uconst 8] [$sp+0]
	@DEBUG_VALUE: mbedtls_ecp_point_write_binary:buf <- [DW_OP_plus_uconst 32] [$sp+0]
	@DEBUG_VALUE: mbedtls_ecp_point_write_binary:buflen <- [DW_OP_plus_uconst 36] [$sp+0]
	@DEBUG_VALUE: mbedtls_ecp_point_write_binary:ret <- 0
	.loc	1 0 13 is_stmt 0                @ ../../../ThirdParty/mbedTLS/library/ecp.c:0:13
	ldr	r6, __arm_cp.17_0
	b	.LBB17_13
.Ltmp133:
.LBB17_9:
	@DEBUG_VALUE: mbedtls_ecp_point_write_binary:grp <- $r7
	@DEBUG_VALUE: mbedtls_ecp_point_write_binary:format <- $r5
	@DEBUG_VALUE: mbedtls_ecp_point_write_binary:P <- [DW_OP_plus_uconst 4] [$sp+0]
	@DEBUG_VALUE: mbedtls_ecp_point_write_binary:olen <- [DW_OP_plus_uconst 8] [$sp+0]
	@DEBUG_VALUE: mbedtls_ecp_point_write_binary:buf <- [DW_OP_plus_uconst 32] [$sp+0]
	@DEBUG_VALUE: mbedtls_ecp_point_write_binary:buflen <- [DW_OP_plus_uconst 36] [$sp+0]
	@DEBUG_VALUE: mbedtls_ecp_point_write_binary:ret <- 0
	ldr	r6, __arm_cp.17_0
	b	.LBB17_13
.Ltmp134:
.LBB17_10:
	@DEBUG_VALUE: mbedtls_ecp_point_write_binary:plen <- $r7
	@DEBUG_VALUE: mbedtls_ecp_point_write_binary:format <- $r5
	@DEBUG_VALUE: mbedtls_ecp_point_write_binary:P <- [DW_OP_plus_uconst 4] [$sp+0]
	@DEBUG_VALUE: mbedtls_ecp_point_write_binary:olen <- [DW_OP_plus_uconst 8] [$sp+0]
	@DEBUG_VALUE: mbedtls_ecp_point_write_binary:buf <- [DW_OP_plus_uconst 32] [$sp+0]
	@DEBUG_VALUE: mbedtls_ecp_point_write_binary:buflen <- [DW_OP_plus_uconst 36] [$sp+0]
	@DEBUG_VALUE: mbedtls_ecp_point_write_binary:ret <- 0
	movs	r0, #4
	ldr	r1, [sp]                        @ 4-byte Reload
.Ltmp135:
	.loc	1 771 16 is_stmt 1              @ ../../../ThirdParty/mbedTLS/library/ecp.c:771:16
	strb	r0, [r1]
.Ltmp136:
	.loc	1 772 9                         @ ../../../ThirdParty/mbedTLS/library/ecp.c:772:9
	adds	r5, r1, #1
.Ltmp137:
	ldr	r0, [sp, #4]                    @ 4-byte Reload
	mov	r1, r5
	mov	r2, r7
	bl	mbedtls_mpi_write_binary
	mov	r6, r0
.Ltmp138:
	@DEBUG_VALUE: mbedtls_ecp_point_write_binary:ret <- $r6
	.loc	1 772 9 is_stmt 0               @ ../../../ThirdParty/mbedTLS/library/ecp.c:772:9
	cbnz	r0, .LBB17_13
.Ltmp139:
@ %bb.11:
	@DEBUG_VALUE: mbedtls_ecp_point_write_binary:plen <- $r7
	@DEBUG_VALUE: mbedtls_ecp_point_write_binary:ret <- $r6
	@DEBUG_VALUE: mbedtls_ecp_point_write_binary:P <- [DW_OP_plus_uconst 4] [$sp+0]
	@DEBUG_VALUE: mbedtls_ecp_point_write_binary:olen <- [DW_OP_plus_uconst 8] [$sp+0]
	@DEBUG_VALUE: mbedtls_ecp_point_write_binary:buf <- [DW_OP_plus_uconst 32] [$sp+0]
	@DEBUG_VALUE: mbedtls_ecp_point_write_binary:buflen <- [DW_OP_plus_uconst 36] [$sp+0]
	.loc	1 773 9 is_stmt 1               @ ../../../ThirdParty/mbedTLS/library/ecp.c:773:9
	adds	r1, r5, r7
	ldr	r0, [sp, #4]                    @ 4-byte Reload
	adds	r0, #12
	mov	r2, r7
	bl	mbedtls_mpi_write_binary
	mov	r6, r0
.Ltmp140:
	@DEBUG_VALUE: mbedtls_ecp_point_write_binary:ret <- $r6
	.loc	1 773 9 is_stmt 0               @ ../../../ThirdParty/mbedTLS/library/ecp.c:773:9
	b	.LBB17_13
.Ltmp141:
.LBB17_12:
	@DEBUG_VALUE: mbedtls_ecp_point_write_binary:plen <- $r7
	@DEBUG_VALUE: mbedtls_ecp_point_write_binary:format <- $r5
	@DEBUG_VALUE: mbedtls_ecp_point_write_binary:P <- [DW_OP_plus_uconst 4] [$sp+0]
	@DEBUG_VALUE: mbedtls_ecp_point_write_binary:olen <- [DW_OP_plus_uconst 8] [$sp+0]
	@DEBUG_VALUE: mbedtls_ecp_point_write_binary:buf <- [DW_OP_plus_uconst 32] [$sp+0]
	@DEBUG_VALUE: mbedtls_ecp_point_write_binary:buflen <- [DW_OP_plus_uconst 36] [$sp+0]
	@DEBUG_VALUE: mbedtls_ecp_point_write_binary:ret <- 0
	.loc	1 0 9                           @ ../../../ThirdParty/mbedTLS/library/ecp.c:0:9
	ldr	r4, [sp, #4]                    @ 4-byte Reload
.Ltmp142:
	.loc	1 782 50 is_stmt 1              @ ../../../ThirdParty/mbedTLS/library/ecp.c:782:50
	mov	r0, r4
	adds	r0, #12
	movs	r1, #0
	.loc	1 782 25 is_stmt 0              @ ../../../ThirdParty/mbedTLS/library/ecp.c:782:25
	bl	mbedtls_mpi_get_bit
	.loc	1 782 18                        @ ../../../ThirdParty/mbedTLS/library/ecp.c:782:18
	adds	r0, r0, #2
	ldr	r1, [sp]                        @ 4-byte Reload
	.loc	1 782 16                        @ ../../../ThirdParty/mbedTLS/library/ecp.c:782:16
	strb	r0, [r1]
.Ltmp143:
	.loc	1 783 9 is_stmt 1               @ ../../../ThirdParty/mbedTLS/library/ecp.c:783:9
	adds	r1, r1, #1
	mov	r0, r4
	mov	r2, r7
	bl	mbedtls_mpi_write_binary
	mov	r6, r0
.Ltmp144:
	@DEBUG_VALUE: mbedtls_ecp_point_write_binary:ret <- $r6
.LBB17_13:
	@DEBUG_VALUE: mbedtls_ecp_point_write_binary:P <- [DW_OP_plus_uconst 4] [$sp+0]
	@DEBUG_VALUE: mbedtls_ecp_point_write_binary:olen <- [DW_OP_plus_uconst 8] [$sp+0]
	@DEBUG_VALUE: mbedtls_ecp_point_write_binary:buf <- [DW_OP_plus_uconst 32] [$sp+0]
	@DEBUG_VALUE: mbedtls_ecp_point_write_binary:buflen <- [DW_OP_plus_uconst 36] [$sp+0]
	.loc	1 788 1                         @ ../../../ThirdParty/mbedTLS/library/ecp.c:788:1
	mov	r0, r6
	add	sp, #12
.Ltmp145:
	pop	{r4, r5, r6, r7, pc}
.Ltmp146:
	.p2align	2
@ %bb.14:
	.loc	1 0 1 is_stmt 0                 @ ../../../ThirdParty/mbedTLS/library/ecp.c:0:1
__arm_cp.17_0:
	.long	4294947072                      @ 0xffffb100
.Lcpi_end8:
	.size	__arm_cp.17_0, .Lcpi_end8-__arm_cp.17_0
.Lfunc_end17:
	.size	mbedtls_ecp_point_write_binary, .Lfunc_end17-mbedtls_ecp_point_write_binary
	.cfi_endproc
	.cantunwind
	.fnend
                                        @ -- End function
	.section	.text.mbedtls_ecp_point_read_binary,"ax",%progbits
	.hidden	mbedtls_ecp_point_read_binary   @ -- Begin function mbedtls_ecp_point_read_binary
	.globl	mbedtls_ecp_point_read_binary
	.p2align	2
	.type	mbedtls_ecp_point_read_binary,%function
	.code	16                              @ @mbedtls_ecp_point_read_binary
	.thumb_func
mbedtls_ecp_point_read_binary:
.Lfunc_begin18:
	.loc	1 796 0 is_stmt 1               @ ../../../ThirdParty/mbedTLS/library/ecp.c:796:0
	.fnstart
	.cfi_startproc
@ %bb.0:
	@DEBUG_VALUE: mbedtls_ecp_point_read_binary:grp <- $r0
	@DEBUG_VALUE: mbedtls_ecp_point_read_binary:pt <- $r1
	@DEBUG_VALUE: mbedtls_ecp_point_read_binary:buf <- $r2
	@DEBUG_VALUE: mbedtls_ecp_point_read_binary:ilen <- $r3
	.save	{r4, r5, r6, r7, lr}
	push	{r4, r5, r6, r7, lr}
	.cfi_def_cfa_offset 20
	.cfi_offset lr, -4
	.cfi_offset r7, -8
	.cfi_offset r6, -12
	.cfi_offset r5, -16
	.cfi_offset r4, -20
	.pad	#4
	sub	sp, #4
	.cfi_def_cfa_offset 24
	ldr	r5, __arm_cp.18_0
	@DEBUG_VALUE: mbedtls_ecp_point_read_binary:ilen <- $r3
	@DEBUG_VALUE: mbedtls_ecp_point_read_binary:buf <- $r2
	@DEBUG_VALUE: mbedtls_ecp_point_read_binary:pt <- $r1
	@DEBUG_VALUE: mbedtls_ecp_point_read_binary:grp <- $r0
.Ltmp147:
	.loc	1 803 9 prologue_end            @ ../../../ThirdParty/mbedTLS/library/ecp.c:803:9
	cbz	r3, .LBB18_10
.Ltmp148:
@ %bb.1:
	@DEBUG_VALUE: mbedtls_ecp_point_read_binary:ilen <- $r3
	@DEBUG_VALUE: mbedtls_ecp_point_read_binary:buf <- $r2
	@DEBUG_VALUE: mbedtls_ecp_point_read_binary:pt <- $r1
	@DEBUG_VALUE: mbedtls_ecp_point_read_binary:grp <- $r0
	.loc	1 0 9 is_stmt 0                 @ ../../../ThirdParty/mbedTLS/library/ecp.c:0:9
	mov	r6, r3
.Ltmp149:
	@DEBUG_VALUE: mbedtls_ecp_point_read_binary:ilen <- $r6
	mov	r7, r2
.Ltmp150:
	@DEBUG_VALUE: mbedtls_ecp_point_read_binary:buf <- $r7
	mov	r4, r1
.Ltmp151:
	@DEBUG_VALUE: mbedtls_ecp_point_read_binary:pt <- $r4
	.loc	1 806 9 is_stmt 1               @ ../../../ThirdParty/mbedTLS/library/ecp.c:806:9
	ldrb	r1, [r2]
.Ltmp152:
	.loc	1 806 9 is_stmt 0               @ ../../../ThirdParty/mbedTLS/library/ecp.c:806:9
	cbz	r1, .LBB18_7
.Ltmp153:
@ %bb.2:
	@DEBUG_VALUE: mbedtls_ecp_point_read_binary:buf <- $r7
	@DEBUG_VALUE: mbedtls_ecp_point_read_binary:ilen <- $r6
	@DEBUG_VALUE: mbedtls_ecp_point_read_binary:pt <- $r4
	@DEBUG_VALUE: mbedtls_ecp_point_read_binary:grp <- $r0
	.loc	1 814 36 is_stmt 1              @ ../../../ThirdParty/mbedTLS/library/ecp.c:814:36
	adds	r0, r0, #4
.Ltmp154:
	@DEBUG_VALUE: mbedtls_ecp_point_read_binary:grp <- [DW_OP_LLVM_entry_value 1] $r0
	.loc	1 814 12 is_stmt 0              @ ../../../ThirdParty/mbedTLS/library/ecp.c:814:12
	bl	mbedtls_mpi_size
	mov	r2, r0
.Ltmp155:
	@DEBUG_VALUE: mbedtls_ecp_point_read_binary:plen <- $r2
	.loc	1 816 9 is_stmt 1               @ ../../../ThirdParty/mbedTLS/library/ecp.c:816:9
	ldrb	r0, [r7]
.Ltmp156:
	.loc	1 816 9 is_stmt 0               @ ../../../ThirdParty/mbedTLS/library/ecp.c:816:9
	cmp	r0, #4
	bne	.LBB18_9
.Ltmp157:
@ %bb.3:
	@DEBUG_VALUE: mbedtls_ecp_point_read_binary:buf <- $r7
	@DEBUG_VALUE: mbedtls_ecp_point_read_binary:ilen <- $r6
	@DEBUG_VALUE: mbedtls_ecp_point_read_binary:pt <- $r4
	@DEBUG_VALUE: mbedtls_ecp_point_read_binary:plen <- $r2
	@DEBUG_VALUE: mbedtls_ecp_point_read_binary:grp <- [DW_OP_LLVM_entry_value 1] $r0
	.loc	1 819 19 is_stmt 1              @ ../../../ThirdParty/mbedTLS/library/ecp.c:819:19
	lsls	r0, r2, #1
	.loc	1 819 26 is_stmt 0              @ ../../../ThirdParty/mbedTLS/library/ecp.c:819:26
	adds	r0, r0, #1
.Ltmp158:
	.loc	1 819 9                         @ ../../../ThirdParty/mbedTLS/library/ecp.c:819:9
	cmp	r0, r6
	bne	.LBB18_10
.Ltmp159:
@ %bb.4:
	@DEBUG_VALUE: mbedtls_ecp_point_read_binary:buf <- $r7
	@DEBUG_VALUE: mbedtls_ecp_point_read_binary:ilen <- $r6
	@DEBUG_VALUE: mbedtls_ecp_point_read_binary:pt <- $r4
	@DEBUG_VALUE: mbedtls_ecp_point_read_binary:plen <- $r2
	@DEBUG_VALUE: mbedtls_ecp_point_read_binary:grp <- [DW_OP_LLVM_entry_value 1] $r0
	.loc	1 822 5 is_stmt 1               @ ../../../ThirdParty/mbedTLS/library/ecp.c:822:5
	adds	r6, r7, #1
.Ltmp160:
	@DEBUG_VALUE: mbedtls_ecp_point_read_binary:ilen <- [DW_OP_LLVM_entry_value 1] $r3
	mov	r0, r4
	mov	r1, r6
	mov	r5, r2
	bl	mbedtls_mpi_read_binary
.Ltmp161:
	.loc	1 0 5 is_stmt 0                 @ ../../../ThirdParty/mbedTLS/library/ecp.c:0:5
	mov	r2, r5
	.loc	1 822 5                         @ ../../../ThirdParty/mbedTLS/library/ecp.c:822:5
	mov	r5, r0
.Ltmp162:
	@DEBUG_VALUE: mbedtls_ecp_point_read_binary:ret <- $r5
	.loc	1 822 5                         @ ../../../ThirdParty/mbedTLS/library/ecp.c:822:5
	cbnz	r0, .LBB18_10
.Ltmp163:
@ %bb.5:
	@DEBUG_VALUE: mbedtls_ecp_point_read_binary:buf <- $r7
	@DEBUG_VALUE: mbedtls_ecp_point_read_binary:ret <- $r5
	@DEBUG_VALUE: mbedtls_ecp_point_read_binary:pt <- $r4
	@DEBUG_VALUE: mbedtls_ecp_point_read_binary:ilen <- [DW_OP_LLVM_entry_value 1] $r3
	@DEBUG_VALUE: mbedtls_ecp_point_read_binary:grp <- [DW_OP_LLVM_entry_value 1] $r0
	.loc	1 823 5 is_stmt 1               @ ../../../ThirdParty/mbedTLS/library/ecp.c:823:5
	adds	r1, r6, r2
	mov	r0, r4
	adds	r0, #12
	bl	mbedtls_mpi_read_binary
	mov	r5, r0
.Ltmp164:
	@DEBUG_VALUE: mbedtls_ecp_point_read_binary:ret <- $r5
	.loc	1 823 5 is_stmt 0               @ ../../../ThirdParty/mbedTLS/library/ecp.c:823:5
	cbnz	r0, .LBB18_10
.Ltmp165:
@ %bb.6:
	@DEBUG_VALUE: mbedtls_ecp_point_read_binary:buf <- $r7
	@DEBUG_VALUE: mbedtls_ecp_point_read_binary:ret <- $r5
	@DEBUG_VALUE: mbedtls_ecp_point_read_binary:pt <- $r4
	@DEBUG_VALUE: mbedtls_ecp_point_read_binary:ilen <- [DW_OP_LLVM_entry_value 1] $r3
	@DEBUG_VALUE: mbedtls_ecp_point_read_binary:grp <- [DW_OP_LLVM_entry_value 1] $r0
	.loc	1 824 5 is_stmt 1               @ ../../../ThirdParty/mbedTLS/library/ecp.c:824:5
	adds	r4, #24
.Ltmp166:
	@DEBUG_VALUE: mbedtls_ecp_point_read_binary:pt <- [DW_OP_LLVM_entry_value 1] $r1
	.loc	1 0 5 is_stmt 0                 @ ../../../ThirdParty/mbedTLS/library/ecp.c:0:5
	movs	r1, #1
	.loc	1 824 5                         @ ../../../ThirdParty/mbedTLS/library/ecp.c:824:5
	mov	r0, r4
	bl	mbedtls_mpi_lset
	mov	r5, r0
.Ltmp167:
	@DEBUG_VALUE: mbedtls_ecp_point_read_binary:ret <- $r5
	.loc	1 0 5                           @ ../../../ThirdParty/mbedTLS/library/ecp.c:0:5
	b	.LBB18_10
.Ltmp168:
.LBB18_7:
	@DEBUG_VALUE: mbedtls_ecp_point_read_binary:buf <- $r7
	@DEBUG_VALUE: mbedtls_ecp_point_read_binary:ilen <- $r6
	@DEBUG_VALUE: mbedtls_ecp_point_read_binary:pt <- $r4
	@DEBUG_VALUE: mbedtls_ecp_point_read_binary:grp <- $r0
	.loc	1 808 13 is_stmt 1              @ ../../../ThirdParty/mbedTLS/library/ecp.c:808:13
	cmp	r6, #1
	bne	.LBB18_10
.Ltmp169:
@ %bb.8:
	@DEBUG_VALUE: mbedtls_ecp_point_read_binary:buf <- $r7
	@DEBUG_VALUE: mbedtls_ecp_point_read_binary:ilen <- $r6
	@DEBUG_VALUE: mbedtls_ecp_point_read_binary:pt <- $r4
	@DEBUG_VALUE: mbedtls_ecp_point_read_binary:grp <- $r0
	.loc	1 809 21                        @ ../../../ThirdParty/mbedTLS/library/ecp.c:809:21
	mov	r0, r4
.Ltmp170:
	@DEBUG_VALUE: mbedtls_ecp_point_read_binary:grp <- [DW_OP_LLVM_entry_value 1] $r0
	bl	mbedtls_ecp_set_zero
	mov	r5, r0
	.loc	1 809 13 is_stmt 0              @ ../../../ThirdParty/mbedTLS/library/ecp.c:809:13
	b	.LBB18_10
.Ltmp171:
.LBB18_9:
	@DEBUG_VALUE: mbedtls_ecp_point_read_binary:buf <- $r7
	@DEBUG_VALUE: mbedtls_ecp_point_read_binary:ilen <- $r6
	@DEBUG_VALUE: mbedtls_ecp_point_read_binary:pt <- $r4
	@DEBUG_VALUE: mbedtls_ecp_point_read_binary:plen <- $r2
	@DEBUG_VALUE: mbedtls_ecp_point_read_binary:grp <- [DW_OP_LLVM_entry_value 1] $r0
	.loc	1 0 13                          @ ../../../ThirdParty/mbedTLS/library/ecp.c:0:13
	ldr	r5, __arm_cp.18_1
.Ltmp172:
.LBB18_10:
	.loc	1 828 1 is_stmt 1               @ ../../../ThirdParty/mbedTLS/library/ecp.c:828:1
	mov	r0, r5
	add	sp, #4
	pop	{r4, r5, r6, r7, pc}
.Ltmp173:
	.p2align	2
@ %bb.11:
	.loc	1 0 1 is_stmt 0                 @ ../../../ThirdParty/mbedTLS/library/ecp.c:0:1
__arm_cp.18_0:
	.long	4294946944                      @ 0xffffb080
.Lcpi_end9:
	.size	__arm_cp.18_0, .Lcpi_end9-__arm_cp.18_0
__arm_cp.18_1:
	.long	4294947200                      @ 0xffffb180
.Lcpi_end10:
	.size	__arm_cp.18_1, .Lcpi_end10-__arm_cp.18_1
.Lfunc_end18:
	.size	mbedtls_ecp_point_read_binary, .Lfunc_end18-mbedtls_ecp_point_read_binary
	.cfi_endproc
	.cantunwind
	.fnend
                                        @ -- End function
	.section	.text.mbedtls_ecp_tls_read_point,"ax",%progbits
	.hidden	mbedtls_ecp_tls_read_point      @ -- Begin function mbedtls_ecp_tls_read_point
	.globl	mbedtls_ecp_tls_read_point
	.p2align	2
	.type	mbedtls_ecp_tls_read_point,%function
	.code	16                              @ @mbedtls_ecp_tls_read_point
	.thumb_func
mbedtls_ecp_tls_read_point:
.Lfunc_begin19:
	.loc	1 839 0 is_stmt 1               @ ../../../ThirdParty/mbedTLS/library/ecp.c:839:0
	.fnstart
	.cfi_startproc
@ %bb.0:
	@DEBUG_VALUE: mbedtls_ecp_tls_read_point:grp <- $r0
	@DEBUG_VALUE: mbedtls_ecp_tls_read_point:pt <- $r1
	@DEBUG_VALUE: mbedtls_ecp_tls_read_point:buf <- $r2
	@DEBUG_VALUE: mbedtls_ecp_tls_read_point:buf_len <- $r3
	.save	{r4, r5, r6, lr}
	push	{r4, r5, r6, lr}
	.cfi_def_cfa_offset 16
	.cfi_offset lr, -4
	.cfi_offset r6, -8
	.cfi_offset r5, -12
	.cfi_offset r4, -16
	mov	r5, r0
	ldr	r0, __arm_cp.19_0
.Ltmp174:
	@DEBUG_VALUE: mbedtls_ecp_tls_read_point:grp <- [DW_OP_LLVM_entry_value 1] $r0
	@DEBUG_VALUE: mbedtls_ecp_tls_read_point:buf_len <- $r3
	@DEBUG_VALUE: mbedtls_ecp_tls_read_point:buf <- $r2
	@DEBUG_VALUE: mbedtls_ecp_tls_read_point:pt <- $r1
	@DEBUG_VALUE: mbedtls_ecp_tls_read_point:grp <- $r5
	.loc	1 850 9 prologue_end            @ ../../../ThirdParty/mbedTLS/library/ecp.c:850:9
	cmp	r3, #2
	blo	.LBB19_4
.Ltmp175:
@ %bb.1:
	@DEBUG_VALUE: mbedtls_ecp_tls_read_point:grp <- $r5
	@DEBUG_VALUE: mbedtls_ecp_tls_read_point:buf_len <- $r3
	@DEBUG_VALUE: mbedtls_ecp_tls_read_point:buf <- $r2
	@DEBUG_VALUE: mbedtls_ecp_tls_read_point:pt <- $r1
	.loc	1 0 9 is_stmt 0                 @ ../../../ThirdParty/mbedTLS/library/ecp.c:0:9
	mov	r6, r3
.Ltmp176:
	@DEBUG_VALUE: mbedtls_ecp_tls_read_point:buf_len <- $r6
	.loc	1 853 23 is_stmt 1              @ ../../../ThirdParty/mbedTLS/library/ecp.c:853:23
	ldr	r3, [r2]
	adds	r4, r3, #1
	str	r4, [r2]
.Ltmp177:
	@DEBUG_VALUE: mbedtls_ecp_tls_read_point:data_len <- undef
	.loc	1 853 16 is_stmt 0              @ ../../../ThirdParty/mbedTLS/library/ecp.c:853:16
	ldrb	r3, [r3]
.Ltmp178:
	.loc	1 854 22 is_stmt 1              @ ../../../ThirdParty/mbedTLS/library/ecp.c:854:22
	cbz	r3, .LBB19_4
.Ltmp179:
@ %bb.2:
	@DEBUG_VALUE: mbedtls_ecp_tls_read_point:buf_len <- $r6
	@DEBUG_VALUE: mbedtls_ecp_tls_read_point:grp <- $r5
	@DEBUG_VALUE: mbedtls_ecp_tls_read_point:buf <- $r2
	@DEBUG_VALUE: mbedtls_ecp_tls_read_point:pt <- $r1
	.loc	1 0 22 is_stmt 0                @ ../../../ThirdParty/mbedTLS/library/ecp.c:0:22
	subs	r6, r6, #1
.Ltmp180:
	@DEBUG_VALUE: mbedtls_ecp_tls_read_point:buf_len <- [DW_OP_LLVM_entry_value 1] $r3
	.loc	1 854 22                        @ ../../../ThirdParty/mbedTLS/library/ecp.c:854:22
	cmp	r6, r3
	blo	.LBB19_4
.Ltmp181:
@ %bb.3:
	@DEBUG_VALUE: mbedtls_ecp_tls_read_point:grp <- $r5
	@DEBUG_VALUE: mbedtls_ecp_tls_read_point:buf <- $r2
	@DEBUG_VALUE: mbedtls_ecp_tls_read_point:pt <- $r1
	@DEBUG_VALUE: mbedtls_ecp_tls_read_point:buf_len <- [DW_OP_LLVM_entry_value 1] $r3
	@DEBUG_VALUE: mbedtls_ecp_tls_read_point:buf_start <- $r4
	.loc	1 861 10 is_stmt 1              @ ../../../ThirdParty/mbedTLS/library/ecp.c:861:10
	adds	r0, r4, r3
	str	r0, [r2]
	.loc	1 863 13                        @ ../../../ThirdParty/mbedTLS/library/ecp.c:863:13
	mov	r0, r5
	mov	r2, r4
.Ltmp182:
	@DEBUG_VALUE: mbedtls_ecp_tls_read_point:buf <- [DW_OP_LLVM_entry_value 1] $r2
	bl	mbedtls_ecp_point_read_binary
.Ltmp183:
	@DEBUG_VALUE: mbedtls_ecp_tls_read_point:pt <- [DW_OP_LLVM_entry_value 1] $r1
.LBB19_4:
	@DEBUG_VALUE: mbedtls_ecp_tls_read_point:grp <- $r5
	.loc	1 864 1                         @ ../../../ThirdParty/mbedTLS/library/ecp.c:864:1
	pop	{r4, r5, r6, pc}
.Ltmp184:
	.p2align	2
@ %bb.5:
	.loc	1 0 1 is_stmt 0                 @ ../../../ThirdParty/mbedTLS/library/ecp.c:0:1
__arm_cp.19_0:
	.long	4294946944                      @ 0xffffb080
.Lcpi_end11:
	.size	__arm_cp.19_0, .Lcpi_end11-__arm_cp.19_0
.Lfunc_end19:
	.size	mbedtls_ecp_tls_read_point, .Lfunc_end19-mbedtls_ecp_tls_read_point
	.cfi_endproc
	.cantunwind
	.fnend
                                        @ -- End function
	.section	.text.mbedtls_ecp_tls_write_point,"ax",%progbits
	.hidden	mbedtls_ecp_tls_write_point     @ -- Begin function mbedtls_ecp_tls_write_point
	.globl	mbedtls_ecp_tls_write_point
	.p2align	2
	.type	mbedtls_ecp_tls_write_point,%function
	.code	16                              @ @mbedtls_ecp_tls_write_point
	.thumb_func
mbedtls_ecp_tls_write_point:
.Lfunc_begin20:
	.loc	1 875 0 is_stmt 1               @ ../../../ThirdParty/mbedTLS/library/ecp.c:875:0
	.fnstart
	.cfi_startproc
@ %bb.0:
	@DEBUG_VALUE: mbedtls_ecp_tls_write_point:grp <- $r0
	@DEBUG_VALUE: mbedtls_ecp_tls_write_point:pt <- $r1
	@DEBUG_VALUE: mbedtls_ecp_tls_write_point:format <- $r2
	@DEBUG_VALUE: mbedtls_ecp_tls_write_point:olen <- $r3
	.save	{r4, r5, r6, lr}
	push	{r4, r5, r6, lr}
	.cfi_def_cfa_offset 16
	.cfi_offset lr, -4
	.cfi_offset r6, -8
	.cfi_offset r5, -12
	.cfi_offset r4, -16
	.pad	#8
	sub	sp, #8
	.cfi_def_cfa_offset 24
	mov	r4, r3
	ldr	r3, [sp, #28]
.Ltmp185:
	@DEBUG_VALUE: mbedtls_ecp_tls_write_point:olen <- [DW_OP_LLVM_entry_value 1] $r3
	@DEBUG_VALUE: mbedtls_ecp_tls_write_point:blen <- [DW_OP_plus_uconst 28] [$sp+0]
	@DEBUG_VALUE: mbedtls_ecp_tls_write_point:buf <- [DW_OP_plus_uconst 24] [$sp+0]
	@DEBUG_VALUE: mbedtls_ecp_tls_write_point:olen <- $r4
	@DEBUG_VALUE: mbedtls_ecp_tls_write_point:format <- $r2
	@DEBUG_VALUE: mbedtls_ecp_tls_write_point:pt <- $r1
	@DEBUG_VALUE: mbedtls_ecp_tls_write_point:grp <- $r0
	.loc	1 887 9 prologue_end            @ ../../../ThirdParty/mbedTLS/library/ecp.c:887:9
	cbz	r3, .LBB20_3
.Ltmp186:
@ %bb.1:
	@DEBUG_VALUE: mbedtls_ecp_tls_write_point:olen <- $r4
	@DEBUG_VALUE: mbedtls_ecp_tls_write_point:format <- $r2
	@DEBUG_VALUE: mbedtls_ecp_tls_write_point:pt <- $r1
	@DEBUG_VALUE: mbedtls_ecp_tls_write_point:grp <- $r0
	@DEBUG_VALUE: mbedtls_ecp_tls_write_point:buf <- [DW_OP_plus_uconst 24] [$sp+0]
	@DEBUG_VALUE: mbedtls_ecp_tls_write_point:blen <- [DW_OP_plus_uconst 28] [$sp+0]
	.loc	1 0 9 is_stmt 0                 @ ../../../ThirdParty/mbedTLS/library/ecp.c:0:9
	ldr	r5, [sp, #24]
.Ltmp187:
	.loc	1 891 37 is_stmt 1              @ ../../../ThirdParty/mbedTLS/library/ecp.c:891:37
	subs	r3, r3, #1
	.loc	1 891 27 is_stmt 0              @ ../../../ThirdParty/mbedTLS/library/ecp.c:891:27
	adds	r6, r5, #1
	.loc	1 890 17 is_stmt 1              @ ../../../ThirdParty/mbedTLS/library/ecp.c:890:17
	str	r6, [sp]
	str	r3, [sp, #4]
	mov	r3, r4
	bl	mbedtls_ecp_point_write_binary
.Ltmp188:
	@DEBUG_VALUE: mbedtls_ecp_tls_write_point:format <- [DW_OP_LLVM_entry_value 1] $r2
	@DEBUG_VALUE: mbedtls_ecp_tls_write_point:pt <- [DW_OP_LLVM_entry_value 1] $r1
	@DEBUG_VALUE: mbedtls_ecp_tls_write_point:grp <- [DW_OP_LLVM_entry_value 1] $r0
	@DEBUG_VALUE: mbedtls_ecp_tls_write_point:ret <- $r0
	.loc	1 890 9 is_stmt 0               @ ../../../ThirdParty/mbedTLS/library/ecp.c:890:9
	cbz	r0, .LBB20_4
.Ltmp189:
@ %bb.2:
	@DEBUG_VALUE: mbedtls_ecp_tls_write_point:olen <- $r4
	@DEBUG_VALUE: mbedtls_ecp_tls_write_point:ret <- $r0
	@DEBUG_VALUE: mbedtls_ecp_tls_write_point:buf <- [DW_OP_plus_uconst 24] [$sp+0]
	@DEBUG_VALUE: mbedtls_ecp_tls_write_point:blen <- [DW_OP_plus_uconst 28] [$sp+0]
	@DEBUG_VALUE: mbedtls_ecp_tls_write_point:format <- [DW_OP_LLVM_entry_value 1] $r2
	@DEBUG_VALUE: mbedtls_ecp_tls_write_point:pt <- [DW_OP_LLVM_entry_value 1] $r1
	@DEBUG_VALUE: mbedtls_ecp_tls_write_point:grp <- [DW_OP_LLVM_entry_value 1] $r0
	.loc	1 901 1 is_stmt 1               @ ../../../ThirdParty/mbedTLS/library/ecp.c:901:1
	add	sp, #8
.Ltmp190:
	pop	{r4, r5, r6, pc}
.Ltmp191:
.LBB20_3:
	@DEBUG_VALUE: mbedtls_ecp_tls_write_point:olen <- $r4
	@DEBUG_VALUE: mbedtls_ecp_tls_write_point:format <- $r2
	@DEBUG_VALUE: mbedtls_ecp_tls_write_point:pt <- $r1
	@DEBUG_VALUE: mbedtls_ecp_tls_write_point:grp <- $r0
	@DEBUG_VALUE: mbedtls_ecp_tls_write_point:buf <- [DW_OP_plus_uconst 24] [$sp+0]
	@DEBUG_VALUE: mbedtls_ecp_tls_write_point:blen <- [DW_OP_plus_uconst 28] [$sp+0]
	.loc	1 0 1 is_stmt 0                 @ ../../../ThirdParty/mbedTLS/library/ecp.c:0:1
	ldr	r0, __arm_cp.20_0
.Ltmp192:
	@DEBUG_VALUE: mbedtls_ecp_tls_write_point:grp <- [DW_OP_LLVM_entry_value 1] $r0
	.loc	1 901 1                         @ ../../../ThirdParty/mbedTLS/library/ecp.c:901:1
	add	sp, #8
.Ltmp193:
	pop	{r4, r5, r6, pc}
.Ltmp194:
.LBB20_4:
	@DEBUG_VALUE: mbedtls_ecp_tls_write_point:olen <- $r4
	@DEBUG_VALUE: mbedtls_ecp_tls_write_point:ret <- $r0
	@DEBUG_VALUE: mbedtls_ecp_tls_write_point:buf <- [DW_OP_plus_uconst 24] [$sp+0]
	@DEBUG_VALUE: mbedtls_ecp_tls_write_point:blen <- [DW_OP_plus_uconst 28] [$sp+0]
	@DEBUG_VALUE: mbedtls_ecp_tls_write_point:format <- [DW_OP_LLVM_entry_value 1] $r2
	@DEBUG_VALUE: mbedtls_ecp_tls_write_point:pt <- [DW_OP_LLVM_entry_value 1] $r1
	@DEBUG_VALUE: mbedtls_ecp_tls_write_point:grp <- [DW_OP_LLVM_entry_value 1] $r0
	.loc	1 897 30 is_stmt 1              @ ../../../ThirdParty/mbedTLS/library/ecp.c:897:30
	ldr	r0, [r4]
.Ltmp195:
	.loc	1 897 12 is_stmt 0              @ ../../../ThirdParty/mbedTLS/library/ecp.c:897:12
	strb	r0, [r5]
	.loc	1 898 5 is_stmt 1               @ ../../../ThirdParty/mbedTLS/library/ecp.c:898:5
	ldr	r0, [r4]
	adds	r0, r0, #1
	str	r0, [r4]
	movs	r0, #0
	.loc	1 901 1                         @ ../../../ThirdParty/mbedTLS/library/ecp.c:901:1
	add	sp, #8
.Ltmp196:
	pop	{r4, r5, r6, pc}
.Ltmp197:
	.p2align	2
@ %bb.5:
	.loc	1 0 1 is_stmt 0                 @ ../../../ThirdParty/mbedTLS/library/ecp.c:0:1
__arm_cp.20_0:
	.long	4294946944                      @ 0xffffb080
.Lcpi_end12:
	.size	__arm_cp.20_0, .Lcpi_end12-__arm_cp.20_0
.Lfunc_end20:
	.size	mbedtls_ecp_tls_write_point, .Lfunc_end20-mbedtls_ecp_tls_write_point
	.cfi_endproc
	.cantunwind
	.fnend
                                        @ -- End function
	.section	.text.mbedtls_ecp_tls_read_group,"ax",%progbits
	.hidden	mbedtls_ecp_tls_read_group      @ -- Begin function mbedtls_ecp_tls_read_group
	.globl	mbedtls_ecp_tls_read_group
	.p2align	1
	.type	mbedtls_ecp_tls_read_group,%function
	.code	16                              @ @mbedtls_ecp_tls_read_group
	.thumb_func
mbedtls_ecp_tls_read_group:
.Lfunc_begin21:
	.loc	1 908 0 is_stmt 1               @ ../../../ThirdParty/mbedTLS/library/ecp.c:908:0
	.fnstart
	.cfi_startproc
@ %bb.0:
	@DEBUG_VALUE: mbedtls_ecp_tls_read_group:grp <- $r0
	@DEBUG_VALUE: mbedtls_ecp_tls_read_group:buf <- $r1
	@DEBUG_VALUE: mbedtls_ecp_tls_read_group:len <- $r2
	.save	{r4, lr}
	push	{r4, lr}
	.cfi_def_cfa_offset 8
	.cfi_offset lr, -4
	.cfi_offset r4, -8
	.pad	#8
	sub	sp, #8
	.cfi_def_cfa_offset 16
	mov	r4, r0
.Ltmp198:
	@DEBUG_VALUE: mbedtls_ecp_tls_read_group:grp_id <- [DW_OP_plus_uconst 4, DW_OP_deref] $sp
	@DEBUG_VALUE: mbedtls_ecp_tls_read_group:len <- $r2
	@DEBUG_VALUE: mbedtls_ecp_tls_read_group:buf <- $r1
	@DEBUG_VALUE: mbedtls_ecp_tls_read_group:grp <- $r4
	add	r0, sp, #4
	@DEBUG_VALUE: mbedtls_ecp_tls_read_group:len <- $r2
	@DEBUG_VALUE: mbedtls_ecp_tls_read_group:buf <- $r1
.Ltmp199:
	.loc	1 915 17 prologue_end           @ ../../../ThirdParty/mbedTLS/library/ecp.c:915:17
	bl	mbedtls_ecp_tls_read_group_id
.Ltmp200:
	@DEBUG_VALUE: mbedtls_ecp_tls_read_group:len <- [DW_OP_LLVM_entry_value 1] $r2
	@DEBUG_VALUE: mbedtls_ecp_tls_read_group:buf <- [DW_OP_LLVM_entry_value 1] $r1
	@DEBUG_VALUE: mbedtls_ecp_tls_read_group:ret <- $r0
	.loc	1 915 9 is_stmt 0               @ ../../../ThirdParty/mbedTLS/library/ecp.c:915:9
	cbz	r0, .LBB21_2
.Ltmp201:
@ %bb.1:
	@DEBUG_VALUE: mbedtls_ecp_tls_read_group:grp <- $r4
	@DEBUG_VALUE: mbedtls_ecp_tls_read_group:ret <- $r0
	@DEBUG_VALUE: mbedtls_ecp_tls_read_group:grp_id <- [DW_OP_plus_uconst 4, DW_OP_deref] $sp
	@DEBUG_VALUE: mbedtls_ecp_tls_read_group:len <- [DW_OP_LLVM_entry_value 1] $r2
	@DEBUG_VALUE: mbedtls_ecp_tls_read_group:buf <- [DW_OP_LLVM_entry_value 1] $r1
	.loc	1 919 1 is_stmt 1               @ ../../../ThirdParty/mbedTLS/library/ecp.c:919:1
	add	sp, #8
.Ltmp202:
	pop	{r4, pc}
.Ltmp203:
.LBB21_2:
	@DEBUG_VALUE: mbedtls_ecp_tls_read_group:grp <- $r4
	@DEBUG_VALUE: mbedtls_ecp_tls_read_group:ret <- $r0
	@DEBUG_VALUE: mbedtls_ecp_tls_read_group:grp_id <- [DW_OP_plus_uconst 4, DW_OP_deref] $sp
	@DEBUG_VALUE: mbedtls_ecp_tls_read_group:len <- [DW_OP_LLVM_entry_value 1] $r2
	@DEBUG_VALUE: mbedtls_ecp_tls_read_group:buf <- [DW_OP_LLVM_entry_value 1] $r1
	.loc	1 0 1 is_stmt 0                 @ ../../../ThirdParty/mbedTLS/library/ecp.c:0:1
	add	r0, sp, #4
.Ltmp204:
	.loc	1 918 42 is_stmt 1              @ ../../../ThirdParty/mbedTLS/library/ecp.c:918:42
	ldrb	r1, [r0]
.Ltmp205:
	@DEBUG_VALUE: mbedtls_ecp_tls_read_group:grp_id <- undef
	.loc	1 918 13 is_stmt 0              @ ../../../ThirdParty/mbedTLS/library/ecp.c:918:13
	mov	r0, r4
	bl	mbedtls_ecp_group_load
	.loc	1 919 1 is_stmt 1               @ ../../../ThirdParty/mbedTLS/library/ecp.c:919:1
	add	sp, #8
	pop	{r4, pc}
.Ltmp206:
.Lfunc_end21:
	.size	mbedtls_ecp_tls_read_group, .Lfunc_end21-mbedtls_ecp_tls_read_group
	.cfi_endproc
	.cantunwind
	.fnend
                                        @ -- End function
	.section	.text.mbedtls_ecp_tls_read_group_id,"ax",%progbits
	.hidden	mbedtls_ecp_tls_read_group_id   @ -- Begin function mbedtls_ecp_tls_read_group_id
	.globl	mbedtls_ecp_tls_read_group_id
	.p2align	2
	.type	mbedtls_ecp_tls_read_group_id,%function
	.code	16                              @ @mbedtls_ecp_tls_read_group_id
	.thumb_func
mbedtls_ecp_tls_read_group_id:
.Lfunc_begin22:
	.loc	1 927 0                         @ ../../../ThirdParty/mbedTLS/library/ecp.c:927:0
	.fnstart
	.cfi_startproc
@ %bb.0:
	@DEBUG_VALUE: mbedtls_ecp_tls_read_group_id:grp <- $r0
	@DEBUG_VALUE: mbedtls_ecp_tls_read_group_id:buf <- $r1
	@DEBUG_VALUE: mbedtls_ecp_tls_read_group_id:len <- $r2
	.save	{r4, lr}
	push	{r4, lr}
	.cfi_def_cfa_offset 8
	.cfi_offset lr, -4
	.cfi_offset r4, -8
	mov	r4, r0
	ldr	r0, __arm_cp.22_0
.Ltmp207:
	@DEBUG_VALUE: mbedtls_ecp_tls_read_group_id:grp <- [DW_OP_LLVM_entry_value 1] $r0
	@DEBUG_VALUE: mbedtls_ecp_tls_read_group_id:len <- $r2
	@DEBUG_VALUE: mbedtls_ecp_tls_read_group_id:buf <- $r1
	@DEBUG_VALUE: mbedtls_ecp_tls_read_group_id:grp <- $r4
	.loc	1 937 9 prologue_end            @ ../../../ThirdParty/mbedTLS/library/ecp.c:937:9
	cmp	r2, #3
	blo	.LBB22_4
.Ltmp208:
@ %bb.1:
	@DEBUG_VALUE: mbedtls_ecp_tls_read_group_id:grp <- $r4
	@DEBUG_VALUE: mbedtls_ecp_tls_read_group_id:len <- $r2
	@DEBUG_VALUE: mbedtls_ecp_tls_read_group_id:buf <- $r1
	.loc	1 943 16                        @ ../../../ThirdParty/mbedTLS/library/ecp.c:943:16
	ldr	r2, [r1]
.Ltmp209:
	@DEBUG_VALUE: mbedtls_ecp_tls_read_group_id:len <- [DW_OP_LLVM_entry_value 1] $r2
	adds	r3, r2, #1
	str	r3, [r1]
	.loc	1 943 9 is_stmt 0               @ ../../../ThirdParty/mbedTLS/library/ecp.c:943:9
	ldrb	r3, [r2]
.Ltmp210:
	.loc	1 943 9                         @ ../../../ThirdParty/mbedTLS/library/ecp.c:943:9
	cmp	r3, #3
	bne	.LBB22_4
.Ltmp211:
@ %bb.2:
	@DEBUG_VALUE: mbedtls_ecp_tls_read_group_id:grp <- $r4
	@DEBUG_VALUE: mbedtls_ecp_tls_read_group_id:buf <- $r1
	@DEBUG_VALUE: mbedtls_ecp_tls_read_group_id:len <- [DW_OP_LLVM_entry_value 1] $r2
	.loc	1 949 21 is_stmt 1              @ ../../../ThirdParty/mbedTLS/library/ecp.c:949:21
	adds	r0, r2, #2
	str	r0, [r1]
	.loc	1 950 12                        @ ../../../ThirdParty/mbedTLS/library/ecp.c:950:12
	ldrb	r0, [r2, #1]
.Ltmp212:
	@DEBUG_VALUE: mbedtls_ecp_tls_read_group_id:tls_id <- [DW_OP_LLVM_convert 8 7, DW_OP_LLVM_convert 16 7, DW_OP_constu 8, DW_OP_shl, DW_OP_stack_value] undef
	.loc	1 951 22                        @ ../../../ThirdParty/mbedTLS/library/ecp.c:951:22
	adds	r3, r2, #3
	str	r3, [r1]
.Ltmp213:
	@DEBUG_VALUE: mbedtls_ecp_tls_read_group_id:tls_id <- [DW_OP_LLVM_convert 8 7, DW_OP_LLVM_convert 32 7, DW_OP_stack_value] undef
	.loc	1 950 12                        @ ../../../ThirdParty/mbedTLS/library/ecp.c:950:12
	lsls	r0, r0, #8
	.loc	1 951 15                        @ ../../../ThirdParty/mbedTLS/library/ecp.c:951:15
	ldrb	r1, [r2, #2]
.Ltmp214:
	@DEBUG_VALUE: mbedtls_ecp_tls_read_group_id:buf <- [DW_OP_LLVM_entry_value 1] $r1
	.loc	1 951 12 is_stmt 0              @ ../../../ThirdParty/mbedTLS/library/ecp.c:951:12
	adds	r0, r0, r1
.Ltmp215:
	@DEBUG_VALUE: mbedtls_ecp_tls_read_group_id:tls_id <- $r0
	.loc	1 953 24 is_stmt 1              @ ../../../ThirdParty/mbedTLS/library/ecp.c:953:24
	uxth	r0, r0
.Ltmp216:
	bl	mbedtls_ecp_curve_info_from_tls_id
.Ltmp217:
	@DEBUG_VALUE: mbedtls_ecp_tls_read_group_id:curve_info <- $r0
	.loc	1 953 9 is_stmt 0               @ ../../../ThirdParty/mbedTLS/library/ecp.c:953:9
	cbz	r0, .LBB22_5
.Ltmp218:
@ %bb.3:
	@DEBUG_VALUE: mbedtls_ecp_tls_read_group_id:grp <- $r4
	@DEBUG_VALUE: mbedtls_ecp_tls_read_group_id:curve_info <- $r0
	@DEBUG_VALUE: mbedtls_ecp_tls_read_group_id:buf <- [DW_OP_LLVM_entry_value 1] $r1
	@DEBUG_VALUE: mbedtls_ecp_tls_read_group_id:len <- [DW_OP_LLVM_entry_value 1] $r2
	.loc	1 956 24 is_stmt 1              @ ../../../ThirdParty/mbedTLS/library/ecp.c:956:24
	ldrb	r0, [r0]
.Ltmp219:
	.loc	1 956 10 is_stmt 0              @ ../../../ThirdParty/mbedTLS/library/ecp.c:956:10
	strb	r0, [r4]
	movs	r0, #0
.Ltmp220:
.LBB22_4:
	@DEBUG_VALUE: mbedtls_ecp_tls_read_group_id:grp <- $r4
	.loc	1 959 1 is_stmt 1               @ ../../../ThirdParty/mbedTLS/library/ecp.c:959:1
	pop	{r4, pc}
.Ltmp221:
.LBB22_5:
	@DEBUG_VALUE: mbedtls_ecp_tls_read_group_id:grp <- $r4
	@DEBUG_VALUE: mbedtls_ecp_tls_read_group_id:curve_info <- $r0
	@DEBUG_VALUE: mbedtls_ecp_tls_read_group_id:buf <- [DW_OP_LLVM_entry_value 1] $r1
	@DEBUG_VALUE: mbedtls_ecp_tls_read_group_id:len <- [DW_OP_LLVM_entry_value 1] $r2
	.loc	1 0 1 is_stmt 0                 @ ../../../ThirdParty/mbedTLS/library/ecp.c:0:1
	ldr	r0, __arm_cp.22_1
.Ltmp222:
	.loc	1 959 1                         @ ../../../ThirdParty/mbedTLS/library/ecp.c:959:1
	pop	{r4, pc}
.Ltmp223:
	.p2align	2
@ %bb.6:
	.loc	1 0 1                           @ ../../../ThirdParty/mbedTLS/library/ecp.c:0:1
__arm_cp.22_0:
	.long	4294946944                      @ 0xffffb080
.Lcpi_end13:
	.size	__arm_cp.22_0, .Lcpi_end13-__arm_cp.22_0
__arm_cp.22_1:
	.long	4294947200                      @ 0xffffb180
.Lcpi_end14:
	.size	__arm_cp.22_1, .Lcpi_end14-__arm_cp.22_1
.Lfunc_end22:
	.size	mbedtls_ecp_tls_read_group_id, .Lfunc_end22-mbedtls_ecp_tls_read_group_id
	.cfi_endproc
	.cantunwind
	.fnend
                                        @ -- End function
	.section	.text.mbedtls_ecp_tls_write_group,"ax",%progbits
	.hidden	mbedtls_ecp_tls_write_group     @ -- Begin function mbedtls_ecp_tls_write_group
	.globl	mbedtls_ecp_tls_write_group
	.p2align	2
	.type	mbedtls_ecp_tls_write_group,%function
	.code	16                              @ @mbedtls_ecp_tls_write_group
	.thumb_func
mbedtls_ecp_tls_write_group:
.Lfunc_begin23:
	.loc	1 966 0 is_stmt 1               @ ../../../ThirdParty/mbedTLS/library/ecp.c:966:0
	.fnstart
	.cfi_startproc
@ %bb.0:
	@DEBUG_VALUE: mbedtls_ecp_tls_write_group:grp <- $r0
	@DEBUG_VALUE: mbedtls_ecp_tls_write_group:olen <- $r1
	@DEBUG_VALUE: mbedtls_ecp_tls_write_group:buf <- $r2
	@DEBUG_VALUE: mbedtls_ecp_tls_write_group:blen <- $r3
	.save	{r4, r5, r6, lr}
	push	{r4, r5, r6, lr}
	.cfi_def_cfa_offset 16
	.cfi_offset lr, -4
	.cfi_offset r6, -8
	.cfi_offset r5, -12
	.cfi_offset r4, -16
	mov	r5, r3
	mov	r4, r2
	mov	r6, r1
.Ltmp224:
	@DEBUG_VALUE: mbedtls_ecp_tls_write_group:blen <- $r5
	@DEBUG_VALUE: mbedtls_ecp_tls_write_group:buf <- $r4
	@DEBUG_VALUE: mbedtls_ecp_tls_write_group:olen <- $r6
	@DEBUG_VALUE: mbedtls_ecp_tls_write_group:grp <- $r0
	.loc	1 972 65 prologue_end           @ ../../../ThirdParty/mbedTLS/library/ecp.c:972:65
	ldrb	r0, [r0]
.Ltmp225:
	@DEBUG_VALUE: mbedtls_ecp_tls_write_group:grp <- [DW_OP_LLVM_entry_value 1] $r0
	.loc	1 972 24 is_stmt 0              @ ../../../ThirdParty/mbedTLS/library/ecp.c:972:24
	bl	mbedtls_ecp_curve_info_from_grp_id
	mov	r1, r0
.Ltmp226:
	@DEBUG_VALUE: mbedtls_ecp_tls_write_group:curve_info <- $r1
	.loc	1 0 24                          @ ../../../ThirdParty/mbedTLS/library/ecp.c:0:24
	ldr	r0, __arm_cp.23_0
.Ltmp227:
	.loc	1 972 9                         @ ../../../ThirdParty/mbedTLS/library/ecp.c:972:9
	cbz	r1, .LBB23_4
.Ltmp228:
@ %bb.1:
	@DEBUG_VALUE: mbedtls_ecp_tls_write_group:olen <- $r6
	@DEBUG_VALUE: mbedtls_ecp_tls_write_group:blen <- $r5
	@DEBUG_VALUE: mbedtls_ecp_tls_write_group:buf <- $r4
	@DEBUG_VALUE: mbedtls_ecp_tls_write_group:curve_info <- $r1
	@DEBUG_VALUE: mbedtls_ecp_tls_write_group:grp <- [DW_OP_LLVM_entry_value 1] $r0
	.loc	1 0 9                           @ ../../../ThirdParty/mbedTLS/library/ecp.c:0:9
	movs	r2, #3
	.loc	1 978 11 is_stmt 1              @ ../../../ThirdParty/mbedTLS/library/ecp.c:978:11
	str	r2, [r6]
	.loc	1 979 9                         @ ../../../ThirdParty/mbedTLS/library/ecp.c:979:9
	cmp	r5, #3
	bhs	.LBB23_3
.Ltmp229:
@ %bb.2:
	@DEBUG_VALUE: mbedtls_ecp_tls_write_group:olen <- $r6
	@DEBUG_VALUE: mbedtls_ecp_tls_write_group:blen <- $r5
	@DEBUG_VALUE: mbedtls_ecp_tls_write_group:buf <- $r4
	@DEBUG_VALUE: mbedtls_ecp_tls_write_group:curve_info <- $r1
	@DEBUG_VALUE: mbedtls_ecp_tls_write_group:grp <- [DW_OP_LLVM_entry_value 1] $r0
	.loc	1 0 9 is_stmt 0                 @ ../../../ThirdParty/mbedTLS/library/ecp.c:0:9
	adds	r0, #128
	.loc	1 994 1 is_stmt 1               @ ../../../ThirdParty/mbedTLS/library/ecp.c:994:1
	pop	{r4, r5, r6, pc}
.Ltmp230:
.LBB23_3:
	@DEBUG_VALUE: mbedtls_ecp_tls_write_group:olen <- $r6
	@DEBUG_VALUE: mbedtls_ecp_tls_write_group:blen <- $r5
	@DEBUG_VALUE: mbedtls_ecp_tls_write_group:buf <- $r4
	@DEBUG_VALUE: mbedtls_ecp_tls_write_group:curve_info <- $r1
	@DEBUG_VALUE: mbedtls_ecp_tls_write_group:grp <- [DW_OP_LLVM_entry_value 1] $r0
	@DEBUG_VALUE: mbedtls_ecp_tls_write_group:buf <- [DW_OP_plus_uconst 1, DW_OP_stack_value] $r4
	.loc	1 985 12                        @ ../../../ThirdParty/mbedTLS/library/ecp.c:985:12
	strb	r2, [r4]
	.loc	1 990 26                        @ ../../../ThirdParty/mbedTLS/library/ecp.c:990:26
	ldrb	r0, [r1, #3]
	.loc	1 990 12 is_stmt 0              @ ../../../ThirdParty/mbedTLS/library/ecp.c:990:12
	strb	r0, [r4, #1]
	.loc	1 991 26 is_stmt 1              @ ../../../ThirdParty/mbedTLS/library/ecp.c:991:26
	ldrb	r0, [r1, #2]
	.loc	1 991 12 is_stmt 0              @ ../../../ThirdParty/mbedTLS/library/ecp.c:991:12
	strb	r0, [r4, #2]
	movs	r0, #0
.Ltmp231:
.LBB23_4:
	@DEBUG_VALUE: mbedtls_ecp_tls_write_group:olen <- $r6
	@DEBUG_VALUE: mbedtls_ecp_tls_write_group:blen <- $r5
	@DEBUG_VALUE: mbedtls_ecp_tls_write_group:curve_info <- $r1
	@DEBUG_VALUE: mbedtls_ecp_tls_write_group:grp <- [DW_OP_LLVM_entry_value 1] $r0
	.loc	1 994 1 is_stmt 1               @ ../../../ThirdParty/mbedTLS/library/ecp.c:994:1
	pop	{r4, r5, r6, pc}
.Ltmp232:
	.p2align	2
@ %bb.5:
	.loc	1 0 1 is_stmt 0                 @ ../../../ThirdParty/mbedTLS/library/ecp.c:0:1
__arm_cp.23_0:
	.long	4294946944                      @ 0xffffb080
.Lcpi_end15:
	.size	__arm_cp.23_0, .Lcpi_end15-__arm_cp.23_0
.Lfunc_end23:
	.size	mbedtls_ecp_tls_write_group, .Lfunc_end23-mbedtls_ecp_tls_write_group
	.cfi_endproc
	.cantunwind
	.fnend
                                        @ -- End function
	.section	.text.mbedtls_ecp_mul_restartable,"ax",%progbits
	.hidden	mbedtls_ecp_mul_restartable     @ -- Begin function mbedtls_ecp_mul_restartable
	.globl	mbedtls_ecp_mul_restartable
	.p2align	2
	.type	mbedtls_ecp_mul_restartable,%function
	.code	16                              @ @mbedtls_ecp_mul_restartable
	.thumb_func
mbedtls_ecp_mul_restartable:
.Lfunc_begin24:
	.loc	1 2439 0 is_stmt 1              @ ../../../ThirdParty/mbedTLS/library/ecp.c:2439:0
	.fnstart
	.cfi_startproc
@ %bb.0:
	@DEBUG_VALUE: mbedtls_ecp_mul_restartable:grp <- $r0
	@DEBUG_VALUE: mbedtls_ecp_mul_restartable:R <- $r1
	@DEBUG_VALUE: mbedtls_ecp_mul_restartable:m <- $r2
	@DEBUG_VALUE: mbedtls_ecp_mul_restartable:P <- $r3
	.save	{r4, r5, r6, r7, lr}
	push	{r4, r5, r6, r7, lr}
	.cfi_def_cfa_offset 20
	.cfi_offset lr, -4
	.cfi_offset r7, -8
	.cfi_offset r6, -12
	.cfi_offset r5, -16
	.cfi_offset r4, -20
	.pad	#20
	sub	sp, #20
	.cfi_def_cfa_offset 40
	mov	r4, r3
	mov	r5, r2
	str	r1, [sp, #16]                   @ 4-byte Spill
	mov	r7, r0
.Ltmp233:
	@DEBUG_VALUE: mbedtls_ecp_mul_restartable:ret <- -20352
	@DEBUG_VALUE: mbedtls_ecp_mul_restartable:rs_ctx <- undef
	@DEBUG_VALUE: mbedtls_ecp_mul_restartable:p_rng <- [DW_OP_plus_uconst 44] [$sp+0]
	@DEBUG_VALUE: mbedtls_ecp_mul_restartable:f_rng <- [DW_OP_plus_uconst 40] [$sp+0]
	@DEBUG_VALUE: mbedtls_ecp_mul_restartable:P <- $r4
	@DEBUG_VALUE: mbedtls_ecp_mul_restartable:m <- $r5
	@DEBUG_VALUE: mbedtls_ecp_mul_restartable:R <- [DW_OP_plus_uconst 16] [$sp+0]
	@DEBUG_VALUE: mbedtls_ecp_mul_restartable:grp <- $r7
	.loc	1 2469 9 prologue_end           @ ../../../ThirdParty/mbedTLS/library/ecp.c:2469:9
	mov	r1, r2
	bl	mbedtls_ecp_check_privkey
	mov	r6, r0
.Ltmp234:
	@DEBUG_VALUE: mbedtls_ecp_mul_restartable:ret <- $r6
	.loc	1 2469 9 is_stmt 0              @ ../../../ThirdParty/mbedTLS/library/ecp.c:2469:9
	cbnz	r0, .LBB24_2
.Ltmp235:
@ %bb.1:
	@DEBUG_VALUE: mbedtls_ecp_mul_restartable:grp <- $r7
	@DEBUG_VALUE: mbedtls_ecp_mul_restartable:ret <- $r6
	@DEBUG_VALUE: mbedtls_ecp_mul_restartable:m <- $r5
	@DEBUG_VALUE: mbedtls_ecp_mul_restartable:P <- $r4
	@DEBUG_VALUE: mbedtls_ecp_mul_restartable:R <- [DW_OP_plus_uconst 16] [$sp+0]
	@DEBUG_VALUE: mbedtls_ecp_mul_restartable:f_rng <- [DW_OP_plus_uconst 40] [$sp+0]
	@DEBUG_VALUE: mbedtls_ecp_mul_restartable:p_rng <- [DW_OP_plus_uconst 44] [$sp+0]
	.loc	1 2470 9 is_stmt 1              @ ../../../ThirdParty/mbedTLS/library/ecp.c:2470:9
	mov	r0, r7
	mov	r1, r4
	bl	mbedtls_ecp_check_pubkey
	mov	r6, r0
.Ltmp236:
	@DEBUG_VALUE: mbedtls_ecp_mul_restartable:ret <- $r6
	.loc	1 2470 9 is_stmt 0              @ ../../../ThirdParty/mbedTLS/library/ecp.c:2470:9
	cbz	r0, .LBB24_3
.Ltmp237:
.LBB24_2:
	@DEBUG_VALUE: mbedtls_ecp_mul_restartable:grp <- $r7
	@DEBUG_VALUE: mbedtls_ecp_mul_restartable:ret <- $r6
	@DEBUG_VALUE: mbedtls_ecp_mul_restartable:m <- $r5
	@DEBUG_VALUE: mbedtls_ecp_mul_restartable:P <- $r4
	@DEBUG_VALUE: mbedtls_ecp_mul_restartable:R <- [DW_OP_plus_uconst 16] [$sp+0]
	@DEBUG_VALUE: mbedtls_ecp_mul_restartable:f_rng <- [DW_OP_plus_uconst 40] [$sp+0]
	@DEBUG_VALUE: mbedtls_ecp_mul_restartable:p_rng <- [DW_OP_plus_uconst 44] [$sp+0]
	@DEBUG_VALUE: mbedtls_ecp_mul_restartable:ret <- $r6
	@DEBUG_LABEL: mbedtls_ecp_mul_restartable:cleanup
	.loc	1 2495 5 is_stmt 1              @ ../../../ThirdParty/mbedTLS/library/ecp.c:2495:5
	mov	r0, r6
	add	sp, #20
.Ltmp238:
	pop	{r4, r5, r6, r7, pc}
.Ltmp239:
.LBB24_3:
	@DEBUG_VALUE: mbedtls_ecp_mul_restartable:grp <- $r7
	@DEBUG_VALUE: mbedtls_ecp_mul_restartable:ret <- $r6
	@DEBUG_VALUE: mbedtls_ecp_mul_restartable:m <- $r5
	@DEBUG_VALUE: mbedtls_ecp_mul_restartable:P <- $r4
	@DEBUG_VALUE: mbedtls_ecp_mul_restartable:R <- [DW_OP_plus_uconst 16] [$sp+0]
	@DEBUG_VALUE: mbedtls_ecp_mul_restartable:f_rng <- [DW_OP_plus_uconst 40] [$sp+0]
	@DEBUG_VALUE: mbedtls_ecp_mul_restartable:p_rng <- [DW_OP_plus_uconst 44] [$sp+0]
	.loc	1 0 5 is_stmt 0                 @ ../../../ThirdParty/mbedTLS/library/ecp.c:0:5
	ldr	r0, [sp, #44]
	str	r0, [sp, #12]                   @ 4-byte Spill
	ldr	r6, [sp, #40]
.Ltmp240:
	@DEBUG_VALUE: mbedtls_ecp_mul_restartable:ret <- -20352
	.loc	1 2475 9 is_stmt 1              @ ../../../ThirdParty/mbedTLS/library/ecp.c:2475:9
	mov	r0, r7
	bl	ecp_get_type
.Ltmp241:
	.loc	1 2475 9 is_stmt 0              @ ../../../ThirdParty/mbedTLS/library/ecp.c:2475:9
	cmp	r0, #2
	str	r6, [sp, #8]                    @ 4-byte Spill
	bne	.LBB24_6
.Ltmp242:
@ %bb.4:
	@DEBUG_VALUE: mbedtls_ecp_mul_restartable:grp <- $r7
	@DEBUG_VALUE: mbedtls_ecp_mul_restartable:m <- $r5
	@DEBUG_VALUE: mbedtls_ecp_mul_restartable:P <- $r4
	@DEBUG_VALUE: mbedtls_ecp_mul_restartable:R <- [DW_OP_plus_uconst 16] [$sp+0]
	@DEBUG_VALUE: mbedtls_ecp_mul_restartable:f_rng <- [DW_OP_plus_uconst 40] [$sp+0]
	@DEBUG_VALUE: mbedtls_ecp_mul_restartable:p_rng <- [DW_OP_plus_uconst 44] [$sp+0]
	@DEBUG_VALUE: mbedtls_ecp_mul_restartable:ret <- -20352
	.loc	1 2476 9 is_stmt 1              @ ../../../ThirdParty/mbedTLS/library/ecp.c:2476:9
	str	r6, [sp]
	ldr	r0, [sp, #12]                   @ 4-byte Reload
	str	r0, [sp, #4]
	mov	r0, r7
	ldr	r1, [sp, #16]                   @ 4-byte Reload
	mov	r2, r5
	mov	r3, r4
	bl	ecp_mul_mxz
	mov	r6, r0
.Ltmp243:
	@DEBUG_VALUE: mbedtls_ecp_mul_restartable:ret <- $r6
	.loc	1 2476 9 is_stmt 0              @ ../../../ThirdParty/mbedTLS/library/ecp.c:2476:9
	cmp	r0, #0
	bne	.LBB24_2
.Ltmp244:
@ %bb.5:
	@DEBUG_VALUE: mbedtls_ecp_mul_restartable:grp <- $r7
	@DEBUG_VALUE: mbedtls_ecp_mul_restartable:ret <- $r6
	@DEBUG_VALUE: mbedtls_ecp_mul_restartable:m <- $r5
	@DEBUG_VALUE: mbedtls_ecp_mul_restartable:P <- $r4
	@DEBUG_VALUE: mbedtls_ecp_mul_restartable:R <- [DW_OP_plus_uconst 16] [$sp+0]
	@DEBUG_VALUE: mbedtls_ecp_mul_restartable:f_rng <- [DW_OP_plus_uconst 40] [$sp+0]
	@DEBUG_VALUE: mbedtls_ecp_mul_restartable:p_rng <- [DW_OP_plus_uconst 44] [$sp+0]
	.loc	1 0 9                           @ ../../../ThirdParty/mbedTLS/library/ecp.c:0:9
	movs	r6, #0
.Ltmp245:
	b	.LBB24_7
.Ltmp246:
.LBB24_6:
	@DEBUG_VALUE: mbedtls_ecp_mul_restartable:grp <- $r7
	@DEBUG_VALUE: mbedtls_ecp_mul_restartable:m <- $r5
	@DEBUG_VALUE: mbedtls_ecp_mul_restartable:P <- $r4
	@DEBUG_VALUE: mbedtls_ecp_mul_restartable:R <- [DW_OP_plus_uconst 16] [$sp+0]
	@DEBUG_VALUE: mbedtls_ecp_mul_restartable:f_rng <- [DW_OP_plus_uconst 40] [$sp+0]
	@DEBUG_VALUE: mbedtls_ecp_mul_restartable:p_rng <- [DW_OP_plus_uconst 44] [$sp+0]
	@DEBUG_VALUE: mbedtls_ecp_mul_restartable:ret <- -20352
	ldr	r6, __arm_cp.24_0
.Ltmp247:
.LBB24_7:
	@DEBUG_VALUE: mbedtls_ecp_mul_restartable:grp <- $r7
	@DEBUG_VALUE: mbedtls_ecp_mul_restartable:m <- $r5
	@DEBUG_VALUE: mbedtls_ecp_mul_restartable:P <- $r4
	@DEBUG_VALUE: mbedtls_ecp_mul_restartable:R <- [DW_OP_plus_uconst 16] [$sp+0]
	@DEBUG_VALUE: mbedtls_ecp_mul_restartable:f_rng <- [DW_OP_plus_uconst 40] [$sp+0]
	@DEBUG_VALUE: mbedtls_ecp_mul_restartable:p_rng <- [DW_OP_plus_uconst 44] [$sp+0]
	@DEBUG_VALUE: mbedtls_ecp_mul_restartable:ret <- $r6
	.loc	1 2479 9 is_stmt 1              @ ../../../ThirdParty/mbedTLS/library/ecp.c:2479:9
	mov	r0, r7
	bl	ecp_get_type
.Ltmp248:
	.loc	1 2479 9 is_stmt 0              @ ../../../ThirdParty/mbedTLS/library/ecp.c:2479:9
	cmp	r0, #1
	bne	.LBB24_2
.Ltmp249:
@ %bb.8:
	@DEBUG_VALUE: mbedtls_ecp_mul_restartable:grp <- $r7
	@DEBUG_VALUE: mbedtls_ecp_mul_restartable:ret <- $r6
	@DEBUG_VALUE: mbedtls_ecp_mul_restartable:m <- $r5
	@DEBUG_VALUE: mbedtls_ecp_mul_restartable:P <- $r4
	@DEBUG_VALUE: mbedtls_ecp_mul_restartable:R <- [DW_OP_plus_uconst 16] [$sp+0]
	@DEBUG_VALUE: mbedtls_ecp_mul_restartable:f_rng <- [DW_OP_plus_uconst 40] [$sp+0]
	@DEBUG_VALUE: mbedtls_ecp_mul_restartable:p_rng <- [DW_OP_plus_uconst 44] [$sp+0]
	.loc	1 2480 9 is_stmt 1              @ ../../../ThirdParty/mbedTLS/library/ecp.c:2480:9
	ldr	r0, [sp, #8]                    @ 4-byte Reload
	str	r0, [sp]
	ldr	r0, [sp, #12]                   @ 4-byte Reload
	str	r0, [sp, #4]
	mov	r0, r7
	ldr	r1, [sp, #16]                   @ 4-byte Reload
	mov	r2, r5
	mov	r3, r4
	bl	ecp_mul_comb
	mov	r6, r0
.Ltmp250:
	@DEBUG_VALUE: mbedtls_ecp_mul_restartable:ret <- $r6
	.loc	1 0 9 is_stmt 0                 @ ../../../ThirdParty/mbedTLS/library/ecp.c:0:9
	b	.LBB24_2
.Ltmp251:
	.p2align	2
@ %bb.9:
__arm_cp.24_0:
	.long	4294946944                      @ 0xffffb080
.Lcpi_end16:
	.size	__arm_cp.24_0, .Lcpi_end16-__arm_cp.24_0
.Lfunc_end24:
	.size	mbedtls_ecp_mul_restartable, .Lfunc_end24-mbedtls_ecp_mul_restartable
	.cfi_endproc
	.cantunwind
	.fnend
                                        @ -- End function
	.section	.text.mbedtls_ecp_check_privkey,"ax",%progbits
	.hidden	mbedtls_ecp_check_privkey       @ -- Begin function mbedtls_ecp_check_privkey
	.globl	mbedtls_ecp_check_privkey
	.p2align	2
	.type	mbedtls_ecp_check_privkey,%function
	.code	16                              @ @mbedtls_ecp_check_privkey
	.thumb_func
mbedtls_ecp_check_privkey:
.Lfunc_begin25:
	.loc	1 2761 0 is_stmt 1              @ ../../../ThirdParty/mbedTLS/library/ecp.c:2761:0
	.fnstart
	.cfi_startproc
@ %bb.0:
	@DEBUG_VALUE: mbedtls_ecp_check_privkey:grp <- $r0
	@DEBUG_VALUE: mbedtls_ecp_check_privkey:d <- $r1
	.save	{r4, r5, r6, r7, lr}
	push	{r4, r5, r6, r7, lr}
	.cfi_def_cfa_offset 20
	.cfi_offset lr, -4
	.cfi_offset r7, -8
	.cfi_offset r6, -12
	.cfi_offset r5, -16
	.cfi_offset r4, -20
	.pad	#4
	sub	sp, #4
	.cfi_def_cfa_offset 24
	mov	r5, r1
	mov	r6, r0
.Ltmp252:
	@DEBUG_VALUE: mbedtls_ecp_check_privkey:d <- $r5
	@DEBUG_VALUE: mbedtls_ecp_check_privkey:grp <- $r6
	.loc	1 2766 9 prologue_end           @ ../../../ThirdParty/mbedTLS/library/ecp.c:2766:9
	bl	ecp_get_type
.Ltmp253:
	.loc	1 2766 9 is_stmt 0              @ ../../../ThirdParty/mbedTLS/library/ecp.c:2766:9
	cmp	r0, #1
	beq	.LBB25_8
.Ltmp254:
@ %bb.1:
	@DEBUG_VALUE: mbedtls_ecp_check_privkey:grp <- $r6
	@DEBUG_VALUE: mbedtls_ecp_check_privkey:d <- $r5
	cmp	r0, #2
	bne	.LBB25_11
.Ltmp255:
@ %bb.2:
	@DEBUG_VALUE: mbedtls_ecp_check_privkey:grp <- $r6
	@DEBUG_VALUE: mbedtls_ecp_check_privkey:d <- $r5
	.loc	1 0 9                           @ ../../../ThirdParty/mbedTLS/library/ecp.c:0:9
	movs	r7, #0
.Ltmp256:
	.loc	1 2769 13 is_stmt 1             @ ../../../ThirdParty/mbedTLS/library/ecp.c:2769:13
	mov	r0, r5
	mov	r1, r7
	bl	mbedtls_mpi_get_bit
	ldr	r4, __arm_cp.25_1
	.loc	1 2769 46 is_stmt 0             @ ../../../ThirdParty/mbedTLS/library/ecp.c:2769:46
	cbnz	r0, .LBB25_12
.Ltmp257:
@ %bb.3:
	@DEBUG_VALUE: mbedtls_ecp_check_privkey:grp <- $r6
	@DEBUG_VALUE: mbedtls_ecp_check_privkey:d <- $r5
	.loc	1 0 46                          @ ../../../ThirdParty/mbedTLS/library/ecp.c:0:46
	movs	r1, #1
	.loc	1 2770 17 is_stmt 1             @ ../../../ThirdParty/mbedTLS/library/ecp.c:2770:17
	mov	r0, r5
	bl	mbedtls_mpi_get_bit
	.loc	1 2770 50 is_stmt 0             @ ../../../ThirdParty/mbedTLS/library/ecp.c:2770:50
	cbnz	r0, .LBB25_12
.Ltmp258:
@ %bb.4:
	@DEBUG_VALUE: mbedtls_ecp_check_privkey:grp <- $r6
	@DEBUG_VALUE: mbedtls_ecp_check_privkey:d <- $r5
	.loc	1 2771 17 is_stmt 1             @ ../../../ThirdParty/mbedTLS/library/ecp.c:2771:17
	mov	r0, r5
	bl	mbedtls_mpi_bitlen
	.loc	1 2771 53 is_stmt 0             @ ../../../ThirdParty/mbedTLS/library/ecp.c:2771:53
	ldr	r1, [r6, #92]
	.loc	1 2771 41                       @ ../../../ThirdParty/mbedTLS/library/ecp.c:2771:41
	subs	r0, r0, #1
.Ltmp259:
	.loc	1 2769 13 is_stmt 1             @ ../../../ThirdParty/mbedTLS/library/ecp.c:2769:13
	cmp	r0, r1
	bne	.LBB25_12
.Ltmp260:
@ %bb.5:
	@DEBUG_VALUE: mbedtls_ecp_check_privkey:grp <- $r6
	@DEBUG_VALUE: mbedtls_ecp_check_privkey:d <- $r5
	.loc	1 2775 31                       @ ../../../ThirdParty/mbedTLS/library/ecp.c:2775:31
	cmp	r1, #254
	bne	.LBB25_7
.Ltmp261:
@ %bb.6:
	@DEBUG_VALUE: mbedtls_ecp_check_privkey:grp <- $r6
	@DEBUG_VALUE: mbedtls_ecp_check_privkey:d <- $r5
	.loc	1 0 31 is_stmt 0                @ ../../../ThirdParty/mbedTLS/library/ecp.c:0:31
	movs	r1, #2
	.loc	1 2775 34                       @ ../../../ThirdParty/mbedTLS/library/ecp.c:2775:34
	mov	r0, r5
	bl	mbedtls_mpi_get_bit
.Ltmp262:
	.loc	1 2775 13                       @ ../../../ThirdParty/mbedTLS/library/ecp.c:2775:13
	cbnz	r0, .LBB25_12
.Ltmp263:
.LBB25_7:
	@DEBUG_VALUE: mbedtls_ecp_check_privkey:grp <- $r6
	@DEBUG_VALUE: mbedtls_ecp_check_privkey:d <- $r5
	.loc	1 0 0                           @ ../../../ThirdParty/mbedTLS/library/ecp.c:0:0
	mov	r4, r7
.Ltmp264:
	.loc	1 2778 9 is_stmt 1              @ ../../../ThirdParty/mbedTLS/library/ecp.c:2778:9
	b	.LBB25_12
.Ltmp265:
.LBB25_8:
	@DEBUG_VALUE: mbedtls_ecp_check_privkey:grp <- $r6
	@DEBUG_VALUE: mbedtls_ecp_check_privkey:d <- $r5
	.loc	1 0 9 is_stmt 0                 @ ../../../ThirdParty/mbedTLS/library/ecp.c:0:9
	movs	r1, #1
.Ltmp266:
	.loc	1 2785 13 is_stmt 1             @ ../../../ThirdParty/mbedTLS/library/ecp.c:2785:13
	mov	r0, r5
	bl	mbedtls_mpi_cmp_int
	ldr	r4, __arm_cp.25_1
	.loc	1 2785 45 is_stmt 0             @ ../../../ThirdParty/mbedTLS/library/ecp.c:2785:45
	cmp	r0, #0
	bmi	.LBB25_12
.Ltmp267:
@ %bb.9:
	@DEBUG_VALUE: mbedtls_ecp_check_privkey:grp <- $r6
	@DEBUG_VALUE: mbedtls_ecp_check_privkey:d <- $r5
	.loc	1 2786 47 is_stmt 1             @ ../../../ThirdParty/mbedTLS/library/ecp.c:2786:47
	adds	r6, #76
.Ltmp268:
	.loc	1 2786 17 is_stmt 0             @ ../../../ThirdParty/mbedTLS/library/ecp.c:2786:17
	mov	r0, r5
	mov	r1, r6
	bl	mbedtls_mpi_cmp_mpi
.Ltmp269:
	.loc	1 2785 13 is_stmt 1             @ ../../../ThirdParty/mbedTLS/library/ecp.c:2785:13
	cmp	r0, #0
	bpl	.LBB25_12
.Ltmp270:
@ %bb.10:
	@DEBUG_VALUE: mbedtls_ecp_check_privkey:d <- $r5
	.loc	1 0 13 is_stmt 0                @ ../../../ThirdParty/mbedTLS/library/ecp.c:0:13
	movs	r4, #0
	b	.LBB25_12
.Ltmp271:
.LBB25_11:
	@DEBUG_VALUE: mbedtls_ecp_check_privkey:grp <- $r6
	@DEBUG_VALUE: mbedtls_ecp_check_privkey:d <- $r5
	ldr	r4, __arm_cp.25_0
.Ltmp272:
.LBB25_12:
	@DEBUG_VALUE: mbedtls_ecp_check_privkey:d <- $r5
	mov	r0, r4
	add	sp, #4
	pop	{r4, r5, r6, r7, pc}
.Ltmp273:
	.p2align	2
@ %bb.13:
__arm_cp.25_0:
	.long	4294946944                      @ 0xffffb080
.Lcpi_end17:
	.size	__arm_cp.25_0, .Lcpi_end17-__arm_cp.25_0
__arm_cp.25_1:
	.long	4294947712                      @ 0xffffb380
.Lcpi_end18:
	.size	__arm_cp.25_1, .Lcpi_end18-__arm_cp.25_1
.Lfunc_end25:
	.size	mbedtls_ecp_check_privkey, .Lfunc_end25-mbedtls_ecp_check_privkey
	.cfi_endproc
	.cantunwind
	.fnend
                                        @ -- End function
	.section	.text.mbedtls_ecp_check_pubkey,"ax",%progbits
	.hidden	mbedtls_ecp_check_pubkey        @ -- Begin function mbedtls_ecp_check_pubkey
	.globl	mbedtls_ecp_check_pubkey
	.p2align	2
	.type	mbedtls_ecp_check_pubkey,%function
	.code	16                              @ @mbedtls_ecp_check_pubkey
	.thumb_func
mbedtls_ecp_check_pubkey:
.Lfunc_begin26:
	.loc	1 2737 0 is_stmt 1              @ ../../../ThirdParty/mbedTLS/library/ecp.c:2737:0
	.fnstart
	.cfi_startproc
@ %bb.0:
	@DEBUG_VALUE: mbedtls_ecp_check_pubkey:grp <- $r0
	@DEBUG_VALUE: mbedtls_ecp_check_pubkey:pt <- $r1
	.save	{r4, r5, r7, lr}
	push	{r4, r5, r7, lr}
	.cfi_def_cfa_offset 16
	.cfi_offset lr, -4
	.cfi_offset r7, -8
	.cfi_offset r5, -12
	.cfi_offset r4, -16
	mov	r4, r1
	mov	r5, r0
.Ltmp274:
	@DEBUG_VALUE: mbedtls_ecp_check_pubkey:pt <- $r4
	@DEBUG_VALUE: mbedtls_ecp_check_pubkey:grp <- $r5
	.loc	1 2742 35 prologue_end          @ ../../../ThirdParty/mbedTLS/library/ecp.c:2742:35
	mov	r0, r1
	adds	r0, #24
	movs	r1, #1
	.loc	1 2742 9 is_stmt 0              @ ../../../ThirdParty/mbedTLS/library/ecp.c:2742:9
	bl	mbedtls_mpi_cmp_int
.Ltmp275:
	.loc	1 2742 9                        @ ../../../ThirdParty/mbedTLS/library/ecp.c:2742:9
	cbz	r0, .LBB26_2
.Ltmp276:
@ %bb.1:
	@DEBUG_VALUE: mbedtls_ecp_check_pubkey:grp <- $r5
	@DEBUG_VALUE: mbedtls_ecp_check_pubkey:pt <- $r4
	.loc	1 0 9                           @ ../../../ThirdParty/mbedTLS/library/ecp.c:0:9
	ldr	r0, __arm_cp.26_0
	.loc	1 2754 1 is_stmt 1              @ ../../../ThirdParty/mbedTLS/library/ecp.c:2754:1
	pop	{r4, r5, r7, pc}
.Ltmp277:
.LBB26_2:
	@DEBUG_VALUE: mbedtls_ecp_check_pubkey:grp <- $r5
	@DEBUG_VALUE: mbedtls_ecp_check_pubkey:pt <- $r4
	.loc	1 2746 9                        @ ../../../ThirdParty/mbedTLS/library/ecp.c:2746:9
	mov	r0, r5
	bl	ecp_get_type
.Ltmp278:
	.loc	1 2746 9 is_stmt 0              @ ../../../ThirdParty/mbedTLS/library/ecp.c:2746:9
	cmp	r0, #1
	beq	.LBB26_5
.Ltmp279:
@ %bb.3:
	@DEBUG_VALUE: mbedtls_ecp_check_pubkey:grp <- $r5
	@DEBUG_VALUE: mbedtls_ecp_check_pubkey:pt <- $r4
	cmp	r0, #2
	bne	.LBB26_6
.Ltmp280:
@ %bb.4:
	@DEBUG_VALUE: mbedtls_ecp_check_pubkey:grp <- $r5
	@DEBUG_VALUE: mbedtls_ecp_check_pubkey:pt <- $r4
	.loc	1 2747 17 is_stmt 1             @ ../../../ThirdParty/mbedTLS/library/ecp.c:2747:17
	mov	r0, r5
	mov	r1, r4
	bl	ecp_check_pubkey_mx
.Ltmp281:
	.loc	1 2754 1                        @ ../../../ThirdParty/mbedTLS/library/ecp.c:2754:1
	pop	{r4, r5, r7, pc}
.Ltmp282:
.LBB26_5:
	@DEBUG_VALUE: mbedtls_ecp_check_pubkey:grp <- $r5
	@DEBUG_VALUE: mbedtls_ecp_check_pubkey:pt <- $r4
	.loc	1 2751 17                       @ ../../../ThirdParty/mbedTLS/library/ecp.c:2751:17
	mov	r0, r5
	mov	r1, r4
	bl	ecp_check_pubkey_sw
.Ltmp283:
	.loc	1 2754 1                        @ ../../../ThirdParty/mbedTLS/library/ecp.c:2754:1
	pop	{r4, r5, r7, pc}
.Ltmp284:
.LBB26_6:
	@DEBUG_VALUE: mbedtls_ecp_check_pubkey:grp <- $r5
	@DEBUG_VALUE: mbedtls_ecp_check_pubkey:pt <- $r4
	.loc	1 0 1 is_stmt 0                 @ ../../../ThirdParty/mbedTLS/library/ecp.c:0:1
	ldr	r0, __arm_cp.26_1
	.loc	1 2754 1                        @ ../../../ThirdParty/mbedTLS/library/ecp.c:2754:1
	pop	{r4, r5, r7, pc}
.Ltmp285:
	.p2align	2
@ %bb.7:
	.loc	1 0 1                           @ ../../../ThirdParty/mbedTLS/library/ecp.c:0:1
__arm_cp.26_0:
	.long	4294947712                      @ 0xffffb380
.Lcpi_end19:
	.size	__arm_cp.26_0, .Lcpi_end19-__arm_cp.26_0
__arm_cp.26_1:
	.long	4294946944                      @ 0xffffb080
.Lcpi_end20:
	.size	__arm_cp.26_1, .Lcpi_end20-__arm_cp.26_1
.Lfunc_end26:
	.size	mbedtls_ecp_check_pubkey, .Lfunc_end26-mbedtls_ecp_check_pubkey
	.cfi_endproc
	.cantunwind
	.fnend
                                        @ -- End function
	.section	.text.ecp_get_type,"ax",%progbits
	.p2align	1                               @ -- Begin function ecp_get_type
	.type	ecp_get_type,%function
	.code	16                              @ @ecp_get_type
	.thumb_func
ecp_get_type:
.Lfunc_begin27:
	.loc	1 526 0 is_stmt 1               @ ../../../ThirdParty/mbedTLS/library/ecp.c:526:0
	.fnstart
	.cfi_startproc
@ %bb.0:
	@DEBUG_VALUE: ecp_get_type:grp <- $r0
	@DEBUG_VALUE: ecp_get_type:grp <- $r0
	.loc	1 527 18 prologue_end           @ ../../../ThirdParty/mbedTLS/library/ecp.c:527:18
	ldr	r1, [r0, #48]
.Ltmp286:
	.loc	1 527 9 is_stmt 0               @ ../../../ThirdParty/mbedTLS/library/ecp.c:527:9
	cbz	r1, .LBB27_3
.Ltmp287:
@ %bb.1:
	@DEBUG_VALUE: ecp_get_type:grp <- $r0
	.loc	1 530 18 is_stmt 1              @ ../../../ThirdParty/mbedTLS/library/ecp.c:530:18
	ldr	r0, [r0, #60]
.Ltmp288:
	@DEBUG_VALUE: ecp_get_type:grp <- [DW_OP_LLVM_entry_value 1] $r0
	.loc	1 530 9 is_stmt 0               @ ../../../ThirdParty/mbedTLS/library/ecp.c:530:9
	cbz	r0, .LBB27_4
.Ltmp289:
@ %bb.2:
	@DEBUG_VALUE: ecp_get_type:grp <- [DW_OP_LLVM_entry_value 1] $r0
	.loc	1 0 9                           @ ../../../ThirdParty/mbedTLS/library/ecp.c:0:9
	movs	r0, #1
	.loc	1 530 9                         @ ../../../ThirdParty/mbedTLS/library/ecp.c:530:9
	bx	lr
.Ltmp290:
.LBB27_3:
	@DEBUG_VALUE: ecp_get_type:grp <- $r0
	.loc	1 0 9                           @ ../../../ThirdParty/mbedTLS/library/ecp.c:0:9
	movs	r0, #0
.Ltmp291:
	@DEBUG_VALUE: ecp_get_type:grp <- [DW_OP_LLVM_entry_value 1] $r0
	.loc	1 534 1 is_stmt 1               @ ../../../ThirdParty/mbedTLS/library/ecp.c:534:1
	bx	lr
.Ltmp292:
.LBB27_4:
	@DEBUG_VALUE: ecp_get_type:grp <- [DW_OP_LLVM_entry_value 1] $r0
	.loc	1 0 1 is_stmt 0                 @ ../../../ThirdParty/mbedTLS/library/ecp.c:0:1
	movs	r0, #2
	.loc	1 530 9 is_stmt 1               @ ../../../ThirdParty/mbedTLS/library/ecp.c:530:9
	bx	lr
.Ltmp293:
.Lfunc_end27:
	.size	ecp_get_type, .Lfunc_end27-ecp_get_type
	.cfi_endproc
	.cantunwind
	.fnend
                                        @ -- End function
	.section	.text.ecp_mul_mxz,"ax",%progbits
	.p2align	1                               @ -- Begin function ecp_mul_mxz
	.type	ecp_mul_mxz,%function
	.code	16                              @ @ecp_mul_mxz
	.thumb_func
ecp_mul_mxz:
.Lfunc_begin28:
	.loc	1 2376 0                        @ ../../../ThirdParty/mbedTLS/library/ecp.c:2376:0
	.fnstart
	.cfi_startproc
@ %bb.0:
	@DEBUG_VALUE: ecp_mul_mxz:grp <- $r0
	@DEBUG_VALUE: ecp_mul_mxz:R <- $r1
	@DEBUG_VALUE: ecp_mul_mxz:m <- $r2
	@DEBUG_VALUE: ecp_mul_mxz:P <- $r3
	.save	{r4, r5, r6, r7, lr}
	push	{r4, r5, r6, r7, lr}
	.cfi_def_cfa_offset 20
	.cfi_offset lr, -4
	.cfi_offset r7, -8
	.cfi_offset r6, -12
	.cfi_offset r5, -16
	.cfi_offset r4, -20
	.pad	#76
	sub	sp, #76
	.cfi_def_cfa_offset 96
	mov	r6, r3
	str	r2, [sp, #24]                   @ 4-byte Spill
	mov	r4, r1
	mov	r5, r0
.Ltmp294:
	@DEBUG_VALUE: ecp_mul_mxz:p_rng <- [DW_OP_plus_uconst 100] [$sp+0]
	@DEBUG_VALUE: ecp_mul_mxz:f_rng <- [DW_OP_plus_uconst 96] [$sp+0]
	@DEBUG_VALUE: ecp_mul_mxz:P <- $r6
	@DEBUG_VALUE: ecp_mul_mxz:m <- [DW_OP_plus_uconst 24] [$sp+0]
	@DEBUG_VALUE: ecp_mul_mxz:R <- $r4
	@DEBUG_VALUE: ecp_mul_mxz:grp <- $r5
	add	r0, sp, #40
.Ltmp295:
	.loc	1 2383 5 prologue_end           @ ../../../ThirdParty/mbedTLS/library/ecp.c:2383:5
	bl	mbedtls_ecp_point_init
	add	r7, sp, #28
	.loc	1 2384 5                        @ ../../../ThirdParty/mbedTLS/library/ecp.c:2384:5
	mov	r0, r7
	bl	mbedtls_mpi_init
.Ltmp296:
	.loc	1 2387 5                        @ ../../../ThirdParty/mbedTLS/library/ecp.c:2387:5
	mov	r0, r7
	mov	r1, r6
	bl	mbedtls_mpi_copy
	mov	r7, r0
.Ltmp297:
	@DEBUG_VALUE: ecp_mul_mxz:ret <- $r7
	.loc	1 2387 5 is_stmt 0              @ ../../../ThirdParty/mbedTLS/library/ecp.c:2387:5
	cmp	r0, #0
	beq	.LBB28_1
	b	.LBB28_21
.Ltmp298:
.LBB28_1:
	@DEBUG_VALUE: ecp_mul_mxz:ret <- $r7
	@DEBUG_VALUE: ecp_mul_mxz:P <- $r6
	@DEBUG_VALUE: ecp_mul_mxz:grp <- $r5
	@DEBUG_VALUE: ecp_mul_mxz:R <- $r4
	@DEBUG_VALUE: ecp_mul_mxz:m <- [DW_OP_plus_uconst 24] [$sp+0]
	@DEBUG_VALUE: ecp_mul_mxz:f_rng <- [DW_OP_plus_uconst 96] [$sp+0]
	@DEBUG_VALUE: ecp_mul_mxz:p_rng <- [DW_OP_plus_uconst 100] [$sp+0]
	.loc	1 0 5                           @ ../../../ThirdParty/mbedTLS/library/ecp.c:0:5
	add	r0, sp, #40
.Ltmp299:
	.loc	1 2388 5 is_stmt 1              @ ../../../ThirdParty/mbedTLS/library/ecp.c:2388:5
	mov	r1, r6
	bl	mbedtls_ecp_copy
	mov	r7, r0
.Ltmp300:
	@DEBUG_VALUE: ecp_mul_mxz:ret <- $r7
	.loc	1 2388 5 is_stmt 0              @ ../../../ThirdParty/mbedTLS/library/ecp.c:2388:5
	cmp	r0, #0
	bne	.LBB28_21
.Ltmp301:
@ %bb.2:
	@DEBUG_VALUE: ecp_mul_mxz:ret <- $r7
	@DEBUG_VALUE: ecp_mul_mxz:P <- $r6
	@DEBUG_VALUE: ecp_mul_mxz:grp <- $r5
	@DEBUG_VALUE: ecp_mul_mxz:R <- $r4
	@DEBUG_VALUE: ecp_mul_mxz:m <- [DW_OP_plus_uconst 24] [$sp+0]
	@DEBUG_VALUE: ecp_mul_mxz:f_rng <- [DW_OP_plus_uconst 96] [$sp+0]
	@DEBUG_VALUE: ecp_mul_mxz:p_rng <- [DW_OP_plus_uconst 100] [$sp+0]
	.loc	1 0 5                           @ ../../../ThirdParty/mbedTLS/library/ecp.c:0:5
	movs	r1, #1
.Ltmp302:
	.loc	1 2391 5 is_stmt 1              @ ../../../ThirdParty/mbedTLS/library/ecp.c:2391:5
	mov	r0, r4
	bl	mbedtls_mpi_lset
	mov	r7, r0
.Ltmp303:
	@DEBUG_VALUE: ecp_mul_mxz:ret <- $r7
	.loc	1 2391 5 is_stmt 0              @ ../../../ThirdParty/mbedTLS/library/ecp.c:2391:5
	cmp	r0, #0
	bne	.LBB28_21
.Ltmp304:
@ %bb.3:
	@DEBUG_VALUE: ecp_mul_mxz:ret <- $r7
	@DEBUG_VALUE: ecp_mul_mxz:P <- $r6
	@DEBUG_VALUE: ecp_mul_mxz:grp <- $r5
	@DEBUG_VALUE: ecp_mul_mxz:R <- $r4
	@DEBUG_VALUE: ecp_mul_mxz:m <- [DW_OP_plus_uconst 24] [$sp+0]
	@DEBUG_VALUE: ecp_mul_mxz:f_rng <- [DW_OP_plus_uconst 96] [$sp+0]
	@DEBUG_VALUE: ecp_mul_mxz:p_rng <- [DW_OP_plus_uconst 100] [$sp+0]
	.loc	1 2392 5 is_stmt 1              @ ../../../ThirdParty/mbedTLS/library/ecp.c:2392:5
	mov	r0, r4
	adds	r0, #24
	movs	r1, #0
	str	r0, [sp, #20]                   @ 4-byte Spill
	bl	mbedtls_mpi_lset
	mov	r7, r0
.Ltmp305:
	@DEBUG_VALUE: ecp_mul_mxz:ret <- $r7
	.loc	1 2392 5 is_stmt 0              @ ../../../ThirdParty/mbedTLS/library/ecp.c:2392:5
	cmp	r0, #0
	bne	.LBB28_21
.Ltmp306:
@ %bb.4:
	@DEBUG_VALUE: ecp_mul_mxz:ret <- $r7
	@DEBUG_VALUE: ecp_mul_mxz:P <- $r6
	@DEBUG_VALUE: ecp_mul_mxz:grp <- $r5
	@DEBUG_VALUE: ecp_mul_mxz:R <- $r4
	@DEBUG_VALUE: ecp_mul_mxz:m <- [DW_OP_plus_uconst 24] [$sp+0]
	@DEBUG_VALUE: ecp_mul_mxz:f_rng <- [DW_OP_plus_uconst 96] [$sp+0]
	@DEBUG_VALUE: ecp_mul_mxz:p_rng <- [DW_OP_plus_uconst 100] [$sp+0]
	.loc	1 0 5                           @ ../../../ThirdParty/mbedTLS/library/ecp.c:0:5
	ldr	r0, [sp, #100]
	str	r0, [sp, #12]                   @ 4-byte Spill
	ldr	r0, [sp, #96]
	.loc	1 2393 5 is_stmt 1              @ ../../../ThirdParty/mbedTLS/library/ecp.c:2393:5
	str	r0, [sp, #16]                   @ 4-byte Spill
	.loc	1 2393 27 is_stmt 0             @ ../../../ThirdParty/mbedTLS/library/ecp.c:2393:27
	mov	r0, r4
	adds	r0, #12
	.loc	1 2393 5                        @ ../../../ThirdParty/mbedTLS/library/ecp.c:2393:5
	bl	mbedtls_mpi_free
	.loc	1 0 0                           @ ../../../ThirdParty/mbedTLS/library/ecp.c:0:0
	adds	r6, r5, #4
.Ltmp307:
.LBB28_5:                               @ =>This Inner Loop Header: Depth=1
	@DEBUG_VALUE: ecp_mul_mxz:ret <- $r7
	@DEBUG_VALUE: ecp_mul_mxz:grp <- $r5
	@DEBUG_VALUE: ecp_mul_mxz:R <- $r4
	@DEBUG_VALUE: ecp_mul_mxz:m <- [DW_OP_plus_uconst 24] [$sp+0]
	@DEBUG_VALUE: ecp_mul_mxz:f_rng <- [DW_OP_plus_uconst 96] [$sp+0]
	@DEBUG_VALUE: ecp_mul_mxz:p_rng <- [DW_OP_plus_uconst 100] [$sp+0]
	add	r0, sp, #40
	.loc	1 2396 5 is_stmt 1              @ ../../../ThirdParty/mbedTLS/library/ecp.c:2396:5
	mov	r1, r6
	bl	mbedtls_mpi_cmp_mpi
	cmp	r0, #0
	bmi	.LBB28_7
.Ltmp308:
@ %bb.6:                                @   in Loop: Header=BB28_5 Depth=1
	@DEBUG_VALUE: ecp_mul_mxz:ret <- $r7
	@DEBUG_VALUE: ecp_mul_mxz:grp <- $r5
	@DEBUG_VALUE: ecp_mul_mxz:R <- $r4
	@DEBUG_VALUE: ecp_mul_mxz:m <- [DW_OP_plus_uconst 24] [$sp+0]
	@DEBUG_VALUE: ecp_mul_mxz:f_rng <- [DW_OP_plus_uconst 96] [$sp+0]
	@DEBUG_VALUE: ecp_mul_mxz:p_rng <- [DW_OP_plus_uconst 100] [$sp+0]
	.loc	1 0 5 is_stmt 0                 @ ../../../ThirdParty/mbedTLS/library/ecp.c:0:5
	add	r0, sp, #40
.Ltmp309:
	.loc	1 2396 5                        @ ../../../ThirdParty/mbedTLS/library/ecp.c:2396:5
	mov	r1, r0
	mov	r2, r6
	bl	mbedtls_mpi_sub_abs
	mov	r7, r0
.Ltmp310:
	@DEBUG_VALUE: ecp_mul_mxz:ret <- $r7
	.loc	1 2396 5                        @ ../../../ThirdParty/mbedTLS/library/ecp.c:2396:5
	cmp	r0, #0
	beq	.LBB28_5
	b	.LBB28_21
.Ltmp311:
.LBB28_7:
	@DEBUG_VALUE: ecp_mul_mxz:ret <- $r7
	@DEBUG_VALUE: ecp_mul_mxz:grp <- $r5
	@DEBUG_VALUE: ecp_mul_mxz:R <- $r4
	@DEBUG_VALUE: ecp_mul_mxz:m <- [DW_OP_plus_uconst 24] [$sp+0]
	@DEBUG_VALUE: ecp_mul_mxz:f_rng <- [DW_OP_plus_uconst 96] [$sp+0]
	@DEBUG_VALUE: ecp_mul_mxz:p_rng <- [DW_OP_plus_uconst 100] [$sp+0]
	.loc	1 2399 9 is_stmt 1              @ ../../../ThirdParty/mbedTLS/library/ecp.c:2399:9
	ldr	r0, [sp, #16]                   @ 4-byte Reload
	cbz	r0, .LBB28_9
.Ltmp312:
@ %bb.8:
	@DEBUG_VALUE: ecp_mul_mxz:ret <- $r7
	@DEBUG_VALUE: ecp_mul_mxz:grp <- $r5
	@DEBUG_VALUE: ecp_mul_mxz:R <- $r4
	@DEBUG_VALUE: ecp_mul_mxz:m <- [DW_OP_plus_uconst 24] [$sp+0]
	@DEBUG_VALUE: ecp_mul_mxz:f_rng <- [DW_OP_plus_uconst 96] [$sp+0]
	@DEBUG_VALUE: ecp_mul_mxz:p_rng <- [DW_OP_plus_uconst 100] [$sp+0]
	.loc	1 0 9 is_stmt 0                 @ ../../../ThirdParty/mbedTLS/library/ecp.c:0:9
	add	r1, sp, #40
.Ltmp313:
	.loc	1 2400 9 is_stmt 1              @ ../../../ThirdParty/mbedTLS/library/ecp.c:2400:9
	mov	r0, r5
	ldr	r2, [sp, #16]                   @ 4-byte Reload
	ldr	r3, [sp, #12]                   @ 4-byte Reload
	bl	ecp_randomize_mxz
	mov	r7, r0
.Ltmp314:
	@DEBUG_VALUE: ecp_mul_mxz:ret <- $r7
	.loc	1 2400 9 is_stmt 0              @ ../../../ThirdParty/mbedTLS/library/ecp.c:2400:9
	cmp	r0, #0
	bne	.LBB28_21
.Ltmp315:
.LBB28_9:
	@DEBUG_VALUE: ecp_mul_mxz:ret <- $r7
	@DEBUG_VALUE: ecp_mul_mxz:grp <- $r5
	@DEBUG_VALUE: ecp_mul_mxz:R <- $r4
	@DEBUG_VALUE: ecp_mul_mxz:m <- [DW_OP_plus_uconst 24] [$sp+0]
	@DEBUG_VALUE: ecp_mul_mxz:f_rng <- [DW_OP_plus_uconst 96] [$sp+0]
	@DEBUG_VALUE: ecp_mul_mxz:p_rng <- [DW_OP_plus_uconst 100] [$sp+0]
	.loc	1 2403 9 is_stmt 1              @ ../../../ThirdParty/mbedTLS/library/ecp.c:2403:9
	ldr	r0, [sp, #24]                   @ 4-byte Reload
	bl	mbedtls_mpi_bitlen
	mov	r1, r0
.Ltmp316:
	@DEBUG_VALUE: ecp_mul_mxz:i <- $r1
	.loc	1 0 9 is_stmt 0                 @ ../../../ThirdParty/mbedTLS/library/ecp.c:0:9
	add	r0, sp, #40
.Ltmp317:
	adds	r0, #24
	str	r0, [sp, #16]                   @ 4-byte Spill
.Ltmp318:
.LBB28_10:                              @ =>This Inner Loop Header: Depth=1
	@DEBUG_VALUE: ecp_mul_mxz:ret <- $r7
	@DEBUG_VALUE: ecp_mul_mxz:grp <- $r5
	@DEBUG_VALUE: ecp_mul_mxz:R <- $r4
	@DEBUG_VALUE: ecp_mul_mxz:m <- [DW_OP_plus_uconst 24] [$sp+0]
	@DEBUG_VALUE: ecp_mul_mxz:f_rng <- [DW_OP_plus_uconst 96] [$sp+0]
	@DEBUG_VALUE: ecp_mul_mxz:p_rng <- [DW_OP_plus_uconst 100] [$sp+0]
	@DEBUG_VALUE: ecp_mul_mxz:i <- undef
	.loc	1 2404 5 is_stmt 1              @ ../../../ThirdParty/mbedTLS/library/ecp.c:2404:5
	cbz	r1, .LBB28_16
.Ltmp319:
@ %bb.11:                               @   in Loop: Header=BB28_10 Depth=1
	@DEBUG_VALUE: ecp_mul_mxz:ret <- $r7
	@DEBUG_VALUE: ecp_mul_mxz:grp <- $r5
	@DEBUG_VALUE: ecp_mul_mxz:R <- $r4
	@DEBUG_VALUE: ecp_mul_mxz:m <- [DW_OP_plus_uconst 24] [$sp+0]
	@DEBUG_VALUE: ecp_mul_mxz:f_rng <- [DW_OP_plus_uconst 96] [$sp+0]
	@DEBUG_VALUE: ecp_mul_mxz:p_rng <- [DW_OP_plus_uconst 100] [$sp+0]
	.loc	1 0 0 is_stmt 0                 @ ../../../ThirdParty/mbedTLS/library/ecp.c:0:0
	subs	r1, r1, #1
.Ltmp320:
	@DEBUG_VALUE: ecp_mul_mxz:i <- $r1
	.loc	1 2406 13 is_stmt 1             @ ../../../ThirdParty/mbedTLS/library/ecp.c:2406:13
	ldr	r0, [sp, #24]                   @ 4-byte Reload
	str	r1, [sp, #12]                   @ 4-byte Spill
.Ltmp321:
	@DEBUG_VALUE: ecp_mul_mxz:i <- [DW_OP_plus_uconst 12] [$sp+0]
	bl	mbedtls_mpi_get_bit
.Ltmp322:
	.loc	1 2414 9                        @ ../../../ThirdParty/mbedTLS/library/ecp.c:2414:9
	uxtb	r6, r0
.Ltmp323:
	@DEBUG_VALUE: ecp_mul_mxz:b <- $r6
	.loc	1 0 9 is_stmt 0                 @ ../../../ThirdParty/mbedTLS/library/ecp.c:0:9
	add	r1, sp, #40
	.loc	1 2414 9                        @ ../../../ThirdParty/mbedTLS/library/ecp.c:2414:9
	mov	r0, r4
	mov	r2, r6
	bl	mbedtls_mpi_safe_cond_swap
.Ltmp324:
	@DEBUG_VALUE: ecp_mul_mxz:ret <- $r0
	.loc	1 2414 9                        @ ../../../ThirdParty/mbedTLS/library/ecp.c:2414:9
	cbnz	r0, .LBB28_17
.Ltmp325:
@ %bb.12:                               @   in Loop: Header=BB28_10 Depth=1
	@DEBUG_VALUE: ecp_mul_mxz:b <- $r6
	@DEBUG_VALUE: ecp_mul_mxz:grp <- $r5
	@DEBUG_VALUE: ecp_mul_mxz:R <- $r4
	@DEBUG_VALUE: ecp_mul_mxz:ret <- $r0
	@DEBUG_VALUE: ecp_mul_mxz:i <- [DW_OP_plus_uconst 12] [$sp+0]
	@DEBUG_VALUE: ecp_mul_mxz:m <- [DW_OP_plus_uconst 24] [$sp+0]
	@DEBUG_VALUE: ecp_mul_mxz:f_rng <- [DW_OP_plus_uconst 96] [$sp+0]
	@DEBUG_VALUE: ecp_mul_mxz:p_rng <- [DW_OP_plus_uconst 100] [$sp+0]
	.loc	1 2415 9 is_stmt 1              @ ../../../ThirdParty/mbedTLS/library/ecp.c:2415:9
	ldr	r0, [sp, #20]                   @ 4-byte Reload
.Ltmp326:
	ldr	r1, [sp, #16]                   @ 4-byte Reload
	str	r6, [sp, #8]                    @ 4-byte Spill
.Ltmp327:
	@DEBUG_VALUE: ecp_mul_mxz:b <- [DW_OP_plus_uconst 8] [$sp+0]
	mov	r2, r6
	bl	mbedtls_mpi_safe_cond_swap
.Ltmp328:
	@DEBUG_VALUE: ecp_mul_mxz:ret <- $r0
	.loc	1 2415 9 is_stmt 0              @ ../../../ThirdParty/mbedTLS/library/ecp.c:2415:9
	cbnz	r0, .LBB28_18
.Ltmp329:
@ %bb.13:                               @   in Loop: Header=BB28_10 Depth=1
	@DEBUG_VALUE: ecp_mul_mxz:b <- [DW_OP_plus_uconst 8] [$sp+0]
	@DEBUG_VALUE: ecp_mul_mxz:grp <- $r5
	@DEBUG_VALUE: ecp_mul_mxz:R <- $r4
	@DEBUG_VALUE: ecp_mul_mxz:ret <- $r0
	@DEBUG_VALUE: ecp_mul_mxz:i <- [DW_OP_plus_uconst 12] [$sp+0]
	@DEBUG_VALUE: ecp_mul_mxz:m <- [DW_OP_plus_uconst 24] [$sp+0]
	@DEBUG_VALUE: ecp_mul_mxz:f_rng <- [DW_OP_plus_uconst 96] [$sp+0]
	@DEBUG_VALUE: ecp_mul_mxz:p_rng <- [DW_OP_plus_uconst 100] [$sp+0]
	.loc	1 0 9                           @ ../../../ThirdParty/mbedTLS/library/ecp.c:0:9
	add	r0, sp, #28
.Ltmp330:
	.loc	1 2416 9 is_stmt 1              @ ../../../ThirdParty/mbedTLS/library/ecp.c:2416:9
	str	r0, [sp, #4]
	add	r2, sp, #40
	str	r2, [sp]
	mov	r0, r5
	mov	r1, r4
	mov	r3, r4
	bl	ecp_double_add_mxz
.Ltmp331:
	@DEBUG_VALUE: ecp_mul_mxz:ret <- $r0
	.loc	1 2416 9 is_stmt 0              @ ../../../ThirdParty/mbedTLS/library/ecp.c:2416:9
	cbnz	r0, .LBB28_19
.Ltmp332:
@ %bb.14:                               @   in Loop: Header=BB28_10 Depth=1
	@DEBUG_VALUE: ecp_mul_mxz:b <- [DW_OP_plus_uconst 8] [$sp+0]
	@DEBUG_VALUE: ecp_mul_mxz:grp <- $r5
	@DEBUG_VALUE: ecp_mul_mxz:R <- $r4
	@DEBUG_VALUE: ecp_mul_mxz:ret <- $r0
	@DEBUG_VALUE: ecp_mul_mxz:i <- [DW_OP_plus_uconst 12] [$sp+0]
	@DEBUG_VALUE: ecp_mul_mxz:m <- [DW_OP_plus_uconst 24] [$sp+0]
	@DEBUG_VALUE: ecp_mul_mxz:f_rng <- [DW_OP_plus_uconst 96] [$sp+0]
	@DEBUG_VALUE: ecp_mul_mxz:p_rng <- [DW_OP_plus_uconst 100] [$sp+0]
	.loc	1 0 9                           @ ../../../ThirdParty/mbedTLS/library/ecp.c:0:9
	add	r1, sp, #40
.Ltmp333:
	.loc	1 2417 9 is_stmt 1              @ ../../../ThirdParty/mbedTLS/library/ecp.c:2417:9
	mov	r0, r4
.Ltmp334:
	.loc	1 0 9 is_stmt 0                 @ ../../../ThirdParty/mbedTLS/library/ecp.c:0:9
	ldr	r6, [sp, #8]                    @ 4-byte Reload
.Ltmp335:
	@DEBUG_VALUE: ecp_mul_mxz:b <- $r6
	.loc	1 2417 9                        @ ../../../ThirdParty/mbedTLS/library/ecp.c:2417:9
	mov	r2, r6
	bl	mbedtls_mpi_safe_cond_swap
.Ltmp336:
	@DEBUG_VALUE: ecp_mul_mxz:ret <- $r0
	.loc	1 2417 9                        @ ../../../ThirdParty/mbedTLS/library/ecp.c:2417:9
	cbnz	r0, .LBB28_20
.Ltmp337:
@ %bb.15:                               @   in Loop: Header=BB28_10 Depth=1
	@DEBUG_VALUE: ecp_mul_mxz:b <- $r6
	@DEBUG_VALUE: ecp_mul_mxz:grp <- $r5
	@DEBUG_VALUE: ecp_mul_mxz:R <- $r4
	@DEBUG_VALUE: ecp_mul_mxz:ret <- $r0
	@DEBUG_VALUE: ecp_mul_mxz:i <- [DW_OP_plus_uconst 12] [$sp+0]
	@DEBUG_VALUE: ecp_mul_mxz:m <- [DW_OP_plus_uconst 24] [$sp+0]
	@DEBUG_VALUE: ecp_mul_mxz:f_rng <- [DW_OP_plus_uconst 96] [$sp+0]
	@DEBUG_VALUE: ecp_mul_mxz:p_rng <- [DW_OP_plus_uconst 100] [$sp+0]
	.loc	1 2418 9 is_stmt 1              @ ../../../ThirdParty/mbedTLS/library/ecp.c:2418:9
	ldr	r0, [sp, #20]                   @ 4-byte Reload
.Ltmp338:
	ldr	r1, [sp, #16]                   @ 4-byte Reload
	mov	r2, r6
	bl	mbedtls_mpi_safe_cond_swap
	mov	r7, r0
.Ltmp339:
	@DEBUG_VALUE: ecp_mul_mxz:ret <- $r7
	.loc	1 2418 9 is_stmt 0              @ ../../../ThirdParty/mbedTLS/library/ecp.c:2418:9
	cmp	r0, #0
	ldr	r1, [sp, #12]                   @ 4-byte Reload
	beq	.LBB28_10
	b	.LBB28_21
.Ltmp340:
.LBB28_16:
	@DEBUG_VALUE: ecp_mul_mxz:ret <- $r7
	@DEBUG_VALUE: ecp_mul_mxz:grp <- $r5
	@DEBUG_VALUE: ecp_mul_mxz:R <- $r4
	@DEBUG_VALUE: ecp_mul_mxz:m <- [DW_OP_plus_uconst 24] [$sp+0]
	@DEBUG_VALUE: ecp_mul_mxz:f_rng <- [DW_OP_plus_uconst 96] [$sp+0]
	@DEBUG_VALUE: ecp_mul_mxz:p_rng <- [DW_OP_plus_uconst 100] [$sp+0]
	.loc	1 2421 5 is_stmt 1              @ ../../../ThirdParty/mbedTLS/library/ecp.c:2421:5
	mov	r0, r5
	mov	r1, r4
	bl	ecp_normalize_mxz
	mov	r7, r0
.Ltmp341:
	@DEBUG_VALUE: ecp_mul_mxz:ret <- $r7
	.loc	1 0 5 is_stmt 0                 @ ../../../ThirdParty/mbedTLS/library/ecp.c:0:5
	b	.LBB28_21
.Ltmp342:
.LBB28_17:
	@DEBUG_VALUE: ecp_mul_mxz:b <- $r6
	@DEBUG_VALUE: ecp_mul_mxz:grp <- $r5
	@DEBUG_VALUE: ecp_mul_mxz:R <- $r4
	@DEBUG_VALUE: ecp_mul_mxz:ret <- $r0
	@DEBUG_VALUE: ecp_mul_mxz:i <- [DW_OP_plus_uconst 12] [$sp+0]
	@DEBUG_VALUE: ecp_mul_mxz:m <- [DW_OP_plus_uconst 24] [$sp+0]
	@DEBUG_VALUE: ecp_mul_mxz:f_rng <- [DW_OP_plus_uconst 96] [$sp+0]
	@DEBUG_VALUE: ecp_mul_mxz:p_rng <- [DW_OP_plus_uconst 100] [$sp+0]
	mov	r7, r0
.Ltmp343:
	@DEBUG_VALUE: ecp_mul_mxz:ret <- $r7
	b	.LBB28_21
.Ltmp344:
.LBB28_18:
	@DEBUG_VALUE: ecp_mul_mxz:b <- [DW_OP_plus_uconst 8] [$sp+0]
	@DEBUG_VALUE: ecp_mul_mxz:grp <- $r5
	@DEBUG_VALUE: ecp_mul_mxz:R <- $r4
	@DEBUG_VALUE: ecp_mul_mxz:ret <- $r0
	@DEBUG_VALUE: ecp_mul_mxz:i <- [DW_OP_plus_uconst 12] [$sp+0]
	@DEBUG_VALUE: ecp_mul_mxz:m <- [DW_OP_plus_uconst 24] [$sp+0]
	@DEBUG_VALUE: ecp_mul_mxz:f_rng <- [DW_OP_plus_uconst 96] [$sp+0]
	@DEBUG_VALUE: ecp_mul_mxz:p_rng <- [DW_OP_plus_uconst 100] [$sp+0]
	mov	r7, r0
.Ltmp345:
	@DEBUG_VALUE: ecp_mul_mxz:ret <- $r7
	b	.LBB28_21
.Ltmp346:
.LBB28_19:
	@DEBUG_VALUE: ecp_mul_mxz:b <- [DW_OP_plus_uconst 8] [$sp+0]
	@DEBUG_VALUE: ecp_mul_mxz:grp <- $r5
	@DEBUG_VALUE: ecp_mul_mxz:R <- $r4
	@DEBUG_VALUE: ecp_mul_mxz:ret <- $r0
	@DEBUG_VALUE: ecp_mul_mxz:i <- [DW_OP_plus_uconst 12] [$sp+0]
	@DEBUG_VALUE: ecp_mul_mxz:m <- [DW_OP_plus_uconst 24] [$sp+0]
	@DEBUG_VALUE: ecp_mul_mxz:f_rng <- [DW_OP_plus_uconst 96] [$sp+0]
	@DEBUG_VALUE: ecp_mul_mxz:p_rng <- [DW_OP_plus_uconst 100] [$sp+0]
	mov	r7, r0
.Ltmp347:
	@DEBUG_VALUE: ecp_mul_mxz:ret <- $r7
	b	.LBB28_21
.Ltmp348:
.LBB28_20:
	@DEBUG_VALUE: ecp_mul_mxz:b <- $r6
	@DEBUG_VALUE: ecp_mul_mxz:grp <- $r5
	@DEBUG_VALUE: ecp_mul_mxz:R <- $r4
	@DEBUG_VALUE: ecp_mul_mxz:ret <- $r0
	@DEBUG_VALUE: ecp_mul_mxz:i <- [DW_OP_plus_uconst 12] [$sp+0]
	@DEBUG_VALUE: ecp_mul_mxz:m <- [DW_OP_plus_uconst 24] [$sp+0]
	@DEBUG_VALUE: ecp_mul_mxz:f_rng <- [DW_OP_plus_uconst 96] [$sp+0]
	@DEBUG_VALUE: ecp_mul_mxz:p_rng <- [DW_OP_plus_uconst 100] [$sp+0]
	mov	r7, r0
.Ltmp349:
	@DEBUG_VALUE: ecp_mul_mxz:ret <- $r7
.LBB28_21:
	@DEBUG_VALUE: ecp_mul_mxz:ret <- $r7
	@DEBUG_VALUE: ecp_mul_mxz:grp <- $r5
	@DEBUG_VALUE: ecp_mul_mxz:R <- $r4
	@DEBUG_VALUE: ecp_mul_mxz:m <- [DW_OP_plus_uconst 24] [$sp+0]
	@DEBUG_VALUE: ecp_mul_mxz:f_rng <- [DW_OP_plus_uconst 96] [$sp+0]
	@DEBUG_VALUE: ecp_mul_mxz:p_rng <- [DW_OP_plus_uconst 100] [$sp+0]
	@DEBUG_VALUE: ecp_mul_mxz:ret <- $r7
	@DEBUG_LABEL: ecp_mul_mxz:cleanup
	add	r0, sp, #40
	.loc	1 2424 5 is_stmt 1              @ ../../../ThirdParty/mbedTLS/library/ecp.c:2424:5
	bl	mbedtls_ecp_point_free
	add	r0, sp, #28
	.loc	1 2425 5                        @ ../../../ThirdParty/mbedTLS/library/ecp.c:2425:5
	bl	mbedtls_mpi_free
	.loc	1 2427 5                        @ ../../../ThirdParty/mbedTLS/library/ecp.c:2427:5
	mov	r0, r7
	add	sp, #76
.Ltmp350:
	pop	{r4, r5, r6, r7, pc}
.Ltmp351:
.Lfunc_end28:
	.size	ecp_mul_mxz, .Lfunc_end28-ecp_mul_mxz
	.cfi_endproc
	.cantunwind
	.fnend
                                        @ -- End function
	.section	.text.ecp_mul_comb,"ax",%progbits
	.p2align	2                               @ -- Begin function ecp_mul_comb
	.type	ecp_mul_comb,%function
	.code	16                              @ @ecp_mul_comb
	.thumb_func
ecp_mul_comb:
.Lfunc_begin29:
	.loc	1 2084 0                        @ ../../../ThirdParty/mbedTLS/library/ecp.c:2084:0
	.fnstart
	.cfi_startproc
@ %bb.0:
	@DEBUG_VALUE: ecp_mul_comb:grp <- $r0
	@DEBUG_VALUE: ecp_mul_comb:R <- $r1
	@DEBUG_VALUE: ecp_mul_comb:m <- $r2
	@DEBUG_VALUE: ecp_mul_comb:P <- $r3
	.save	{r4, r5, r6, r7, lr}
	push	{r4, r5, r6, r7, lr}
	.cfi_def_cfa_offset 20
	.cfi_offset lr, -4
	.cfi_offset r7, -8
	.cfi_offset r6, -12
	.cfi_offset r5, -16
	.cfi_offset r4, -20
	.pad	#60
	sub	sp, #60
	.cfi_def_cfa_offset 80
	mov	r4, r3
	str	r2, [sp, #44]                   @ 4-byte Spill
	mov	r5, r1
	mov	r7, r0
.Ltmp352:
	@DEBUG_VALUE: ecp_mul_comb:p_rng <- [DW_OP_plus_uconst 84] [$sp+0]
	@DEBUG_VALUE: ecp_mul_comb:f_rng <- [DW_OP_plus_uconst 80] [$sp+0]
	@DEBUG_VALUE: ecp_mul_comb:P <- $r4
	@DEBUG_VALUE: ecp_mul_comb:m <- [DW_OP_plus_uconst 44] [$sp+0]
	@DEBUG_VALUE: ecp_mul_comb:R <- $r5
	@DEBUG_VALUE: ecp_mul_comb:grp <- $r7
	@DEBUG_VALUE: ecp_mul_comb:rs_ctx <- undef
	.loc	1 2095 41 prologue_end          @ ../../../ThirdParty/mbedTLS/library/ecp.c:2095:41
	mov	r0, r3
	adds	r0, #12
	.loc	1 2095 52 is_stmt 0             @ ../../../ThirdParty/mbedTLS/library/ecp.c:2095:52
	mov	r1, r7
	adds	r1, #52
	.loc	1 2095 16                       @ ../../../ThirdParty/mbedTLS/library/ecp.c:2095:16
	bl	mbedtls_mpi_cmp_mpi
	.loc	1 2095 61                       @ ../../../ThirdParty/mbedTLS/library/ecp.c:2095:61
	cbz	r0, .LBB29_2
.Ltmp353:
@ %bb.1:
	@DEBUG_VALUE: ecp_mul_comb:grp <- $r7
	@DEBUG_VALUE: ecp_mul_comb:R <- $r5
	@DEBUG_VALUE: ecp_mul_comb:P <- $r4
	@DEBUG_VALUE: ecp_mul_comb:m <- [DW_OP_plus_uconst 44] [$sp+0]
	@DEBUG_VALUE: ecp_mul_comb:f_rng <- [DW_OP_plus_uconst 80] [$sp+0]
	@DEBUG_VALUE: ecp_mul_comb:p_rng <- [DW_OP_plus_uconst 84] [$sp+0]
	.loc	1 0 61                          @ ../../../ThirdParty/mbedTLS/library/ecp.c:0:61
	movs	r6, #0
	b	.LBB29_3
.Ltmp354:
.LBB29_2:
	@DEBUG_VALUE: ecp_mul_comb:grp <- $r7
	@DEBUG_VALUE: ecp_mul_comb:R <- $r5
	@DEBUG_VALUE: ecp_mul_comb:P <- $r4
	@DEBUG_VALUE: ecp_mul_comb:m <- [DW_OP_plus_uconst 44] [$sp+0]
	@DEBUG_VALUE: ecp_mul_comb:f_rng <- [DW_OP_plus_uconst 80] [$sp+0]
	@DEBUG_VALUE: ecp_mul_comb:p_rng <- [DW_OP_plus_uconst 84] [$sp+0]
	.loc	1 2096 52 is_stmt 1             @ ../../../ThirdParty/mbedTLS/library/ecp.c:2096:52
	mov	r1, r7
	adds	r1, #40
	.loc	1 2096 16 is_stmt 0             @ ../../../ThirdParty/mbedTLS/library/ecp.c:2096:16
	mov	r0, r4
	bl	mbedtls_mpi_cmp_mpi
	.loc	1 2096 56                       @ ../../../ThirdParty/mbedTLS/library/ecp.c:2096:56
	rsbs	r6, r0, #0
	adcs	r6, r0
.Ltmp355:
.LBB29_3:
	@DEBUG_VALUE: ecp_mul_comb:grp <- $r7
	@DEBUG_VALUE: ecp_mul_comb:R <- $r5
	@DEBUG_VALUE: ecp_mul_comb:P <- $r4
	@DEBUG_VALUE: ecp_mul_comb:m <- [DW_OP_plus_uconst 44] [$sp+0]
	@DEBUG_VALUE: ecp_mul_comb:f_rng <- [DW_OP_plus_uconst 80] [$sp+0]
	@DEBUG_VALUE: ecp_mul_comb:p_rng <- [DW_OP_plus_uconst 84] [$sp+0]
	@DEBUG_VALUE: ecp_mul_comb:p_eq_g <- undef
	.loc	1 0 56                          @ ../../../ThirdParty/mbedTLS/library/ecp.c:0:56
	str	r4, [sp, #36]                   @ 4-byte Spill
.Ltmp356:
	@DEBUG_VALUE: ecp_mul_comb:P <- [DW_OP_plus_uconst 36] [$sp+0]
	.loc	1 2102 9 is_stmt 1              @ ../../../ThirdParty/mbedTLS/library/ecp.c:2102:9
	mov	r0, r7
	mov	r1, r6
	bl	ecp_pick_window_size
	mov	r3, r0
.Ltmp357:
	@DEBUG_VALUE: ecp_mul_comb:w <- undef
	.loc	1 2103 24                       @ ../../../ThirdParty/mbedTLS/library/ecp.c:2103:24
	subs	r0, r0, #1
	.loc	1 2104 16                       @ ../../../ThirdParty/mbedTLS/library/ecp.c:2104:16
	ldr	r4, [r7, #92]
.Ltmp358:
	@DEBUG_VALUE: ecp_mul_comb:d <- undef
	.loc	1 0 16 is_stmt 0                @ ../../../ThirdParty/mbedTLS/library/ecp.c:0:16
	movs	r1, #1
	.loc	1 2103 17 is_stmt 1             @ ../../../ThirdParty/mbedTLS/library/ecp.c:2103:17
	mov	r2, r1
	str	r0, [sp, #56]                   @ 4-byte Spill
	lsls	r2, r0
.Ltmp359:
	@DEBUG_VALUE: ecp_mul_comb:T_size <- [DW_OP_LLVM_convert 32 7, DW_OP_LLVM_convert 8 7, DW_OP_stack_value] $r2
	.loc	1 0 17 is_stmt 0                @ ../../../ThirdParty/mbedTLS/library/ecp.c:0:17
	str	r6, [sp, #32]                   @ 4-byte Spill
.Ltmp360:
	.loc	1 2107 16 is_stmt 1             @ ../../../ThirdParty/mbedTLS/library/ecp.c:2107:16
	str	r5, [sp, #52]                   @ 4-byte Spill
	str	r2, [sp, #48]                   @ 4-byte Spill
	cbz	r6, .LBB29_6
.Ltmp361:
@ %bb.4:
	@DEBUG_VALUE: ecp_mul_comb:P <- [DW_OP_plus_uconst 36] [$sp+0]
	@DEBUG_VALUE: ecp_mul_comb:grp <- $r7
	@DEBUG_VALUE: ecp_mul_comb:R <- $r5
	@DEBUG_VALUE: ecp_mul_comb:T_size <- [DW_OP_LLVM_convert 32 7, DW_OP_LLVM_convert 8 7, DW_OP_stack_value] $r2
	@DEBUG_VALUE: ecp_mul_comb:m <- [DW_OP_plus_uconst 44] [$sp+0]
	@DEBUG_VALUE: ecp_mul_comb:f_rng <- [DW_OP_plus_uconst 80] [$sp+0]
	@DEBUG_VALUE: ecp_mul_comb:p_rng <- [DW_OP_plus_uconst 84] [$sp+0]
	.loc	1 2107 24 is_stmt 0             @ ../../../ThirdParty/mbedTLS/library/ecp.c:2107:24
	ldr	r6, [r7, #116]
.Ltmp362:
	.loc	1 2107 9                        @ ../../../ThirdParty/mbedTLS/library/ecp.c:2107:9
	cbz	r6, .LBB29_6
.Ltmp363:
@ %bb.5:
	@DEBUG_VALUE: ecp_mul_comb:P <- [DW_OP_plus_uconst 36] [$sp+0]
	@DEBUG_VALUE: ecp_mul_comb:grp <- $r7
	@DEBUG_VALUE: ecp_mul_comb:R <- $r5
	@DEBUG_VALUE: ecp_mul_comb:T_size <- [DW_OP_LLVM_convert 32 7, DW_OP_LLVM_convert 8 7, DW_OP_stack_value] $r2
	@DEBUG_VALUE: ecp_mul_comb:m <- [DW_OP_plus_uconst 44] [$sp+0]
	@DEBUG_VALUE: ecp_mul_comb:f_rng <- [DW_OP_plus_uconst 80] [$sp+0]
	@DEBUG_VALUE: ecp_mul_comb:p_rng <- [DW_OP_plus_uconst 84] [$sp+0]
	.loc	1 0 9                           @ ../../../ThirdParty/mbedTLS/library/ecp.c:0:9
	movs	r1, #0
	b	.LBB29_12
.Ltmp364:
.LBB29_6:
	@DEBUG_VALUE: ecp_mul_comb:P <- [DW_OP_plus_uconst 36] [$sp+0]
	@DEBUG_VALUE: ecp_mul_comb:grp <- $r7
	@DEBUG_VALUE: ecp_mul_comb:R <- $r5
	@DEBUG_VALUE: ecp_mul_comb:T_size <- [DW_OP_LLVM_convert 32 7, DW_OP_LLVM_convert 8 7, DW_OP_stack_value] $r2
	@DEBUG_VALUE: ecp_mul_comb:m <- [DW_OP_plus_uconst 44] [$sp+0]
	@DEBUG_VALUE: ecp_mul_comb:f_rng <- [DW_OP_plus_uconst 80] [$sp+0]
	@DEBUG_VALUE: ecp_mul_comb:p_rng <- [DW_OP_plus_uconst 84] [$sp+0]
	str	r4, [sp, #20]                   @ 4-byte Spill
	str	r1, [sp, #24]                   @ 4-byte Spill
	str	r3, [sp, #28]                   @ 4-byte Spill
	str	r7, [sp, #40]                   @ 4-byte Spill
.Ltmp365:
	@DEBUG_VALUE: ecp_mul_comb:grp <- [DW_OP_plus_uconst 40] [$sp+0]
	.loc	1 2130 33 is_stmt 1             @ ../../../ThirdParty/mbedTLS/library/ecp.c:2130:33
	uxtb	r7, r2
	movs	r4, #36
	.loc	1 2130 17 is_stmt 0             @ ../../../ThirdParty/mbedTLS/library/ecp.c:2130:17
	mov	r0, r7
	mov	r1, r4
	bl	calloc
.Ltmp366:
	@DEBUG_VALUE: ecp_mul_comb:T <- $r0
	.loc	1 2131 17 is_stmt 1             @ ../../../ThirdParty/mbedTLS/library/ecp.c:2131:17
	cbz	r0, .LBB29_15
.Ltmp367:
@ %bb.7:
	@DEBUG_VALUE: ecp_mul_comb:grp <- [DW_OP_plus_uconst 40] [$sp+0]
	@DEBUG_VALUE: ecp_mul_comb:P <- [DW_OP_plus_uconst 36] [$sp+0]
	@DEBUG_VALUE: ecp_mul_comb:R <- $r5
	@DEBUG_VALUE: ecp_mul_comb:T <- $r0
	@DEBUG_VALUE: ecp_mul_comb:m <- [DW_OP_plus_uconst 44] [$sp+0]
	@DEBUG_VALUE: ecp_mul_comb:f_rng <- [DW_OP_plus_uconst 80] [$sp+0]
	@DEBUG_VALUE: ecp_mul_comb:p_rng <- [DW_OP_plus_uconst 84] [$sp+0]
	.loc	1 0 0 is_stmt 0                 @ ../../../ThirdParty/mbedTLS/library/ecp.c:0:0
	mov	r6, r0
.Ltmp368:
	@DEBUG_VALUE: ecp_mul_comb:T <- $r6
	@DEBUG_VALUE: ecp_mul_comb:i <- 0
	.loc	1 2137 13 is_stmt 1             @ ../../../ThirdParty/mbedTLS/library/ecp.c:2137:13
	ldr	r0, [sp, #56]                   @ 4-byte Reload
	cmp	r0, #7
	bhi	.LBB29_11
.Ltmp369:
@ %bb.8:
	@DEBUG_VALUE: ecp_mul_comb:grp <- [DW_OP_plus_uconst 40] [$sp+0]
	@DEBUG_VALUE: ecp_mul_comb:P <- [DW_OP_plus_uconst 36] [$sp+0]
	@DEBUG_VALUE: ecp_mul_comb:T <- $r6
	@DEBUG_VALUE: ecp_mul_comb:R <- $r5
	@DEBUG_VALUE: ecp_mul_comb:m <- [DW_OP_plus_uconst 44] [$sp+0]
	@DEBUG_VALUE: ecp_mul_comb:f_rng <- [DW_OP_plus_uconst 80] [$sp+0]
	@DEBUG_VALUE: ecp_mul_comb:p_rng <- [DW_OP_plus_uconst 84] [$sp+0]
	@DEBUG_VALUE: ecp_mul_comb:i <- 0
	.loc	1 0 13 is_stmt 0                @ ../../../ThirdParty/mbedTLS/library/ecp.c:0:13
	movs	r0, #0
	mov	r5, r0
.Ltmp370:
.LBB29_9:                               @ =>This Inner Loop Header: Depth=1
	@DEBUG_VALUE: ecp_mul_comb:grp <- [DW_OP_plus_uconst 40] [$sp+0]
	@DEBUG_VALUE: ecp_mul_comb:P <- [DW_OP_plus_uconst 36] [$sp+0]
	@DEBUG_VALUE: ecp_mul_comb:T <- $r6
	@DEBUG_VALUE: ecp_mul_comb:m <- [DW_OP_plus_uconst 44] [$sp+0]
	@DEBUG_VALUE: ecp_mul_comb:f_rng <- [DW_OP_plus_uconst 80] [$sp+0]
	@DEBUG_VALUE: ecp_mul_comb:p_rng <- [DW_OP_plus_uconst 84] [$sp+0]
	@DEBUG_VALUE: ecp_mul_comb:i <- $r5
	.loc	1 2138 42 is_stmt 1             @ ../../../ThirdParty/mbedTLS/library/ecp.c:2138:42
	muls	r0, r4, r0
	adds	r0, r6, r0
	.loc	1 2138 17 is_stmt 0             @ ../../../ThirdParty/mbedTLS/library/ecp.c:2138:17
	bl	mbedtls_ecp_point_init
	.loc	1 2137 38 is_stmt 1             @ ../../../ThirdParty/mbedTLS/library/ecp.c:2137:38
	adds	r5, r5, #1
.Ltmp371:
	@DEBUG_VALUE: ecp_mul_comb:i <- $r5
	.loc	1 2137 25 is_stmt 0             @ ../../../ThirdParty/mbedTLS/library/ecp.c:2137:25
	uxtb	r0, r5
.Ltmp372:
	.loc	1 2137 13                       @ ../../../ThirdParty/mbedTLS/library/ecp.c:2137:13
	cmp	r7, r0
	bhi	.LBB29_9
.Ltmp373:
@ %bb.10:
	@DEBUG_VALUE: ecp_mul_comb:grp <- [DW_OP_plus_uconst 40] [$sp+0]
	@DEBUG_VALUE: ecp_mul_comb:P <- [DW_OP_plus_uconst 36] [$sp+0]
	@DEBUG_VALUE: ecp_mul_comb:T <- $r6
	@DEBUG_VALUE: ecp_mul_comb:i <- $r5
	@DEBUG_VALUE: ecp_mul_comb:m <- [DW_OP_plus_uconst 44] [$sp+0]
	@DEBUG_VALUE: ecp_mul_comb:f_rng <- [DW_OP_plus_uconst 80] [$sp+0]
	@DEBUG_VALUE: ecp_mul_comb:p_rng <- [DW_OP_plus_uconst 84] [$sp+0]
	.loc	1 0 13                          @ ../../../ThirdParty/mbedTLS/library/ecp.c:0:13
	ldr	r5, [sp, #52]                   @ 4-byte Reload
.Ltmp374:
.LBB29_11:
	@DEBUG_VALUE: ecp_mul_comb:grp <- [DW_OP_plus_uconst 40] [$sp+0]
	@DEBUG_VALUE: ecp_mul_comb:P <- [DW_OP_plus_uconst 36] [$sp+0]
	@DEBUG_VALUE: ecp_mul_comb:T <- $r6
	@DEBUG_VALUE: ecp_mul_comb:m <- [DW_OP_plus_uconst 44] [$sp+0]
	@DEBUG_VALUE: ecp_mul_comb:f_rng <- [DW_OP_plus_uconst 80] [$sp+0]
	@DEBUG_VALUE: ecp_mul_comb:p_rng <- [DW_OP_plus_uconst 84] [$sp+0]
	ldr	r7, [sp, #40]                   @ 4-byte Reload
.Ltmp375:
	@DEBUG_VALUE: ecp_mul_comb:grp <- $r7
	ldr	r2, [sp, #48]                   @ 4-byte Reload
	ldr	r3, [sp, #28]                   @ 4-byte Reload
	ldr	r1, [sp, #24]                   @ 4-byte Reload
	ldr	r4, [sp, #20]                   @ 4-byte Reload
.Ltmp376:
.LBB29_12:
	@DEBUG_VALUE: ecp_mul_comb:P <- [DW_OP_plus_uconst 36] [$sp+0]
	@DEBUG_VALUE: ecp_mul_comb:grp <- $r7
	@DEBUG_VALUE: ecp_mul_comb:m <- [DW_OP_plus_uconst 44] [$sp+0]
	@DEBUG_VALUE: ecp_mul_comb:f_rng <- [DW_OP_plus_uconst 80] [$sp+0]
	@DEBUG_VALUE: ecp_mul_comb:p_rng <- [DW_OP_plus_uconst 84] [$sp+0]
	ldr	r0, [sp, #56]                   @ 4-byte Reload
	adds	r0, r0, r4
	udiv	r4, r0, r3
.Ltmp377:
	@DEBUG_VALUE: ecp_mul_comb:T_ok <- undef
	@DEBUG_VALUE: ecp_mul_comb:T <- $r6
	@DEBUG_VALUE: ecp_mul_comb:d <- $r4
	.loc	1 2144 9 is_stmt 1              @ ../../../ThirdParty/mbedTLS/library/ecp.c:2144:9
	cbz	r1, .LBB29_18
.Ltmp378:
@ %bb.13:
	@DEBUG_VALUE: ecp_mul_comb:P <- [DW_OP_plus_uconst 36] [$sp+0]
	@DEBUG_VALUE: ecp_mul_comb:grp <- $r7
	@DEBUG_VALUE: ecp_mul_comb:T <- $r6
	@DEBUG_VALUE: ecp_mul_comb:d <- $r4
	@DEBUG_VALUE: ecp_mul_comb:m <- [DW_OP_plus_uconst 44] [$sp+0]
	@DEBUG_VALUE: ecp_mul_comb:f_rng <- [DW_OP_plus_uconst 80] [$sp+0]
	@DEBUG_VALUE: ecp_mul_comb:p_rng <- [DW_OP_plus_uconst 84] [$sp+0]
	.loc	1 2146 9                        @ ../../../ThirdParty/mbedTLS/library/ecp.c:2146:9
	str	r4, [sp]
	mov	r0, r7
	mov	r1, r6
	ldr	r2, [sp, #36]                   @ 4-byte Reload
.Ltmp379:
	@DEBUG_VALUE: ecp_mul_comb:P <- $r2
	.loc	1 0 9 is_stmt 0                 @ ../../../ThirdParty/mbedTLS/library/ecp.c:0:9
	mov	r5, r3
	.loc	1 2146 9                        @ ../../../ThirdParty/mbedTLS/library/ecp.c:2146:9
	bl	ecp_precompute_comb
.Ltmp380:
	@DEBUG_VALUE: ecp_mul_comb:ret <- $r0
	@DEBUG_VALUE: ecp_mul_comb:ret <- $r0
	.loc	1 2146 9                        @ ../../../ThirdParty/mbedTLS/library/ecp.c:2146:9
	cbz	r0, .LBB29_16
.Ltmp381:
@ %bb.14:
	@DEBUG_VALUE: ecp_mul_comb:grp <- $r7
	@DEBUG_VALUE: ecp_mul_comb:T <- $r6
	@DEBUG_VALUE: ecp_mul_comb:d <- $r4
	@DEBUG_VALUE: ecp_mul_comb:ret <- $r0
	@DEBUG_VALUE: ecp_mul_comb:m <- [DW_OP_plus_uconst 44] [$sp+0]
	@DEBUG_VALUE: ecp_mul_comb:f_rng <- [DW_OP_plus_uconst 80] [$sp+0]
	@DEBUG_VALUE: ecp_mul_comb:p_rng <- [DW_OP_plus_uconst 84] [$sp+0]
	.loc	1 0 9                           @ ../../../ThirdParty/mbedTLS/library/ecp.c:0:9
	mov	r1, r0
.Ltmp382:
	@DEBUG_VALUE: ecp_mul_comb:ret <- $r1
	ldr	r5, [sp, #52]                   @ 4-byte Reload
	b	.LBB29_19
.Ltmp383:
.LBB29_15:
	@DEBUG_VALUE: ecp_mul_comb:grp <- [DW_OP_plus_uconst 40] [$sp+0]
	@DEBUG_VALUE: ecp_mul_comb:P <- [DW_OP_plus_uconst 36] [$sp+0]
	@DEBUG_VALUE: ecp_mul_comb:R <- $r5
	@DEBUG_VALUE: ecp_mul_comb:T <- $r0
	@DEBUG_VALUE: ecp_mul_comb:m <- [DW_OP_plus_uconst 44] [$sp+0]
	@DEBUG_VALUE: ecp_mul_comb:f_rng <- [DW_OP_plus_uconst 80] [$sp+0]
	@DEBUG_VALUE: ecp_mul_comb:p_rng <- [DW_OP_plus_uconst 84] [$sp+0]
	movs	r6, #0
	ldr	r4, __arm_cp.29_0
	ldr	r7, [sp, #40]                   @ 4-byte Reload
.Ltmp384:
	@DEBUG_VALUE: ecp_mul_comb:grp <- $r7
	b	.LBB29_20
.Ltmp385:
.LBB29_16:
	@DEBUG_VALUE: ecp_mul_comb:grp <- $r7
	@DEBUG_VALUE: ecp_mul_comb:T <- $r6
	@DEBUG_VALUE: ecp_mul_comb:d <- $r4
	@DEBUG_VALUE: ecp_mul_comb:ret <- $r0
	@DEBUG_VALUE: ecp_mul_comb:m <- [DW_OP_plus_uconst 44] [$sp+0]
	@DEBUG_VALUE: ecp_mul_comb:f_rng <- [DW_OP_plus_uconst 80] [$sp+0]
	@DEBUG_VALUE: ecp_mul_comb:p_rng <- [DW_OP_plus_uconst 84] [$sp+0]
	.loc	1 2148 13 is_stmt 1             @ ../../../ThirdParty/mbedTLS/library/ecp.c:2148:13
	ldr	r0, [sp, #32]                   @ 4-byte Reload
.Ltmp386:
	.loc	1 0 13 is_stmt 0                @ ../../../ThirdParty/mbedTLS/library/ecp.c:0:13
	ldr	r2, [sp, #48]                   @ 4-byte Reload
	mov	r3, r5
	ldr	r5, [sp, #52]                   @ 4-byte Reload
	.loc	1 2148 13                       @ ../../../ThirdParty/mbedTLS/library/ecp.c:2148:13
	cbz	r0, .LBB29_18
.Ltmp387:
@ %bb.17:
	@DEBUG_VALUE: ecp_mul_comb:grp <- $r7
	@DEBUG_VALUE: ecp_mul_comb:T <- $r6
	@DEBUG_VALUE: ecp_mul_comb:d <- $r4
	@DEBUG_VALUE: ecp_mul_comb:m <- [DW_OP_plus_uconst 44] [$sp+0]
	@DEBUG_VALUE: ecp_mul_comb:f_rng <- [DW_OP_plus_uconst 80] [$sp+0]
	@DEBUG_VALUE: ecp_mul_comb:p_rng <- [DW_OP_plus_uconst 84] [$sp+0]
	.loc	1 2153 27 is_stmt 1             @ ../../../ThirdParty/mbedTLS/library/ecp.c:2153:27
	uxtb	r0, r2
	.loc	1 2152 20                       @ ../../../ThirdParty/mbedTLS/library/ecp.c:2152:20
	str	r6, [r7, #116]
	.loc	1 2153 25                       @ ../../../ThirdParty/mbedTLS/library/ecp.c:2153:25
	str	r0, [r7, #120]
.Ltmp388:
.LBB29_18:
	@DEBUG_VALUE: ecp_mul_comb:grp <- $r7
	@DEBUG_VALUE: ecp_mul_comb:T <- $r6
	@DEBUG_VALUE: ecp_mul_comb:d <- $r4
	@DEBUG_VALUE: ecp_mul_comb:m <- [DW_OP_plus_uconst 44] [$sp+0]
	@DEBUG_VALUE: ecp_mul_comb:f_rng <- [DW_OP_plus_uconst 80] [$sp+0]
	@DEBUG_VALUE: ecp_mul_comb:p_rng <- [DW_OP_plus_uconst 84] [$sp+0]
	.loc	1 0 25 is_stmt 0                @ ../../../ThirdParty/mbedTLS/library/ecp.c:0:25
	ldr	r0, [sp, #84]
	ldr	r1, [sp, #80]
.Ltmp389:
	.loc	1 2158 5 is_stmt 1              @ ../../../ThirdParty/mbedTLS/library/ecp.c:2158:5
	uxtb	r2, r2
	str	r2, [sp]
	str	r3, [sp, #4]
	str	r4, [sp, #8]
	str	r1, [sp, #12]
	str	r0, [sp, #16]
	mov	r0, r7
	mov	r1, r5
	ldr	r2, [sp, #44]                   @ 4-byte Reload
	mov	r3, r6
	bl	ecp_mul_comb_after_precomp
.Ltmp390:
.LBB29_19:
	@DEBUG_VALUE: ecp_mul_comb:grp <- $r7
	@DEBUG_VALUE: ecp_mul_comb:T <- $r6
	@DEBUG_VALUE: ecp_mul_comb:d <- $r4
	@DEBUG_VALUE: ecp_mul_comb:m <- [DW_OP_plus_uconst 44] [$sp+0]
	@DEBUG_VALUE: ecp_mul_comb:f_rng <- [DW_OP_plus_uconst 80] [$sp+0]
	@DEBUG_VALUE: ecp_mul_comb:p_rng <- [DW_OP_plus_uconst 84] [$sp+0]
	.loc	1 0 5 is_stmt 0                 @ ../../../ThirdParty/mbedTLS/library/ecp.c:0:5
	mov	r4, r0
.Ltmp391:
	@DEBUG_VALUE: ecp_mul_comb:ret <- $r4
.LBB29_20:
	@DEBUG_VALUE: ecp_mul_comb:grp <- $r7
	@DEBUG_VALUE: ecp_mul_comb:m <- [DW_OP_plus_uconst 44] [$sp+0]
	@DEBUG_VALUE: ecp_mul_comb:f_rng <- [DW_OP_plus_uconst 80] [$sp+0]
	@DEBUG_VALUE: ecp_mul_comb:p_rng <- [DW_OP_plus_uconst 84] [$sp+0]
	@DEBUG_VALUE: ecp_mul_comb:T <- $r6
	@DEBUG_VALUE: ecp_mul_comb:ret <- $r4
	@DEBUG_LABEL: ecp_mul_comb:cleanup
	.loc	1 2165 19 is_stmt 1             @ ../../../ThirdParty/mbedTLS/library/ecp.c:2165:19
	ldr	r0, [r7, #116]
.Ltmp392:
	@DEBUG_VALUE: ecp_mul_comb:T <- undef
	.loc	1 2180 9                        @ ../../../ThirdParty/mbedTLS/library/ecp.c:2180:9
	cmp	r6, r0
	beq	.LBB29_26
.Ltmp393:
@ %bb.21:
	@DEBUG_VALUE: ecp_mul_comb:grp <- $r7
	@DEBUG_VALUE: ecp_mul_comb:ret <- $r4
	@DEBUG_VALUE: ecp_mul_comb:m <- [DW_OP_plus_uconst 44] [$sp+0]
	@DEBUG_VALUE: ecp_mul_comb:f_rng <- [DW_OP_plus_uconst 80] [$sp+0]
	@DEBUG_VALUE: ecp_mul_comb:p_rng <- [DW_OP_plus_uconst 84] [$sp+0]
	cbz	r6, .LBB29_26
.Ltmp394:
@ %bb.22:
	@DEBUG_VALUE: ecp_mul_comb:grp <- $r7
	@DEBUG_VALUE: ecp_mul_comb:ret <- $r4
	@DEBUG_VALUE: ecp_mul_comb:m <- [DW_OP_plus_uconst 44] [$sp+0]
	@DEBUG_VALUE: ecp_mul_comb:f_rng <- [DW_OP_plus_uconst 80] [$sp+0]
	@DEBUG_VALUE: ecp_mul_comb:p_rng <- [DW_OP_plus_uconst 84] [$sp+0]
	@DEBUG_VALUE: ecp_mul_comb:i <- 0
	.loc	1 0 9 is_stmt 0                 @ ../../../ThirdParty/mbedTLS/library/ecp.c:0:9
	str	r4, [sp, #44]                   @ 4-byte Spill
.Ltmp395:
	@DEBUG_VALUE: ecp_mul_comb:ret <- [DW_OP_plus_uconst 44] [$sp+0]
	.loc	1 2182 9 is_stmt 1              @ ../../../ThirdParty/mbedTLS/library/ecp.c:2182:9
	ldr	r0, [sp, #56]                   @ 4-byte Reload
	cmp	r0, #7
	bhi	.LBB29_25
.Ltmp396:
@ %bb.23:
	@DEBUG_VALUE: ecp_mul_comb:ret <- [DW_OP_plus_uconst 44] [$sp+0]
	@DEBUG_VALUE: ecp_mul_comb:grp <- $r7
	@DEBUG_VALUE: ecp_mul_comb:m <- [DW_OP_plus_uconst 44] [$sp+0]
	@DEBUG_VALUE: ecp_mul_comb:f_rng <- [DW_OP_plus_uconst 80] [$sp+0]
	@DEBUG_VALUE: ecp_mul_comb:p_rng <- [DW_OP_plus_uconst 84] [$sp+0]
	@DEBUG_VALUE: ecp_mul_comb:i <- 0
	.loc	1 0 9 is_stmt 0                 @ ../../../ThirdParty/mbedTLS/library/ecp.c:0:9
	ldr	r0, [sp, #48]                   @ 4-byte Reload
	uxtb	r4, r0
	movs	r0, #0
	movs	r5, #36
	mov	r7, r0
.Ltmp397:
.LBB29_24:                              @ =>This Inner Loop Header: Depth=1
	@DEBUG_VALUE: ecp_mul_comb:ret <- [DW_OP_plus_uconst 44] [$sp+0]
	@DEBUG_VALUE: ecp_mul_comb:m <- [DW_OP_plus_uconst 44] [$sp+0]
	@DEBUG_VALUE: ecp_mul_comb:f_rng <- [DW_OP_plus_uconst 80] [$sp+0]
	@DEBUG_VALUE: ecp_mul_comb:p_rng <- [DW_OP_plus_uconst 84] [$sp+0]
	@DEBUG_VALUE: ecp_mul_comb:i <- $r7
	.loc	1 2183 38 is_stmt 1             @ ../../../ThirdParty/mbedTLS/library/ecp.c:2183:38
	muls	r0, r5, r0
	adds	r0, r6, r0
	.loc	1 2183 13 is_stmt 0             @ ../../../ThirdParty/mbedTLS/library/ecp.c:2183:13
	bl	mbedtls_ecp_point_free
	.loc	1 2182 34 is_stmt 1             @ ../../../ThirdParty/mbedTLS/library/ecp.c:2182:34
	adds	r7, r7, #1
.Ltmp398:
	@DEBUG_VALUE: ecp_mul_comb:i <- $r7
	.loc	1 2182 21 is_stmt 0             @ ../../../ThirdParty/mbedTLS/library/ecp.c:2182:21
	uxtb	r0, r7
.Ltmp399:
	.loc	1 2182 9                        @ ../../../ThirdParty/mbedTLS/library/ecp.c:2182:9
	cmp	r4, r0
	bhi	.LBB29_24
.Ltmp400:
.LBB29_25:
	@DEBUG_VALUE: ecp_mul_comb:ret <- [DW_OP_plus_uconst 44] [$sp+0]
	@DEBUG_VALUE: ecp_mul_comb:m <- [DW_OP_plus_uconst 44] [$sp+0]
	@DEBUG_VALUE: ecp_mul_comb:f_rng <- [DW_OP_plus_uconst 80] [$sp+0]
	@DEBUG_VALUE: ecp_mul_comb:p_rng <- [DW_OP_plus_uconst 84] [$sp+0]
	.loc	1 2184 9 is_stmt 1              @ ../../../ThirdParty/mbedTLS/library/ecp.c:2184:9
	mov	r0, r6
	bl	free
	ldr	r5, [sp, #52]                   @ 4-byte Reload
	ldr	r4, [sp, #44]                   @ 4-byte Reload
.Ltmp401:
	@DEBUG_VALUE: ecp_mul_comb:ret <- $r4
.LBB29_26:
	@DEBUG_VALUE: ecp_mul_comb:ret <- $r4
	@DEBUG_VALUE: ecp_mul_comb:m <- [DW_OP_plus_uconst 44] [$sp+0]
	@DEBUG_VALUE: ecp_mul_comb:f_rng <- [DW_OP_plus_uconst 80] [$sp+0]
	@DEBUG_VALUE: ecp_mul_comb:p_rng <- [DW_OP_plus_uconst 84] [$sp+0]
	.loc	1 2192 13                       @ ../../../ThirdParty/mbedTLS/library/ecp.c:2192:13
	cbz	r4, .LBB29_28
.Ltmp402:
@ %bb.27:
	@DEBUG_VALUE: ecp_mul_comb:ret <- $r4
	@DEBUG_VALUE: ecp_mul_comb:m <- [DW_OP_plus_uconst 44] [$sp+0]
	@DEBUG_VALUE: ecp_mul_comb:f_rng <- [DW_OP_plus_uconst 80] [$sp+0]
	@DEBUG_VALUE: ecp_mul_comb:p_rng <- [DW_OP_plus_uconst 84] [$sp+0]
	.loc	1 2193 13                       @ ../../../ThirdParty/mbedTLS/library/ecp.c:2193:13
	mov	r0, r5
	bl	mbedtls_ecp_point_free
.Ltmp403:
.LBB29_28:
	@DEBUG_VALUE: ecp_mul_comb:ret <- $r4
	@DEBUG_VALUE: ecp_mul_comb:m <- [DW_OP_plus_uconst 44] [$sp+0]
	@DEBUG_VALUE: ecp_mul_comb:f_rng <- [DW_OP_plus_uconst 80] [$sp+0]
	@DEBUG_VALUE: ecp_mul_comb:p_rng <- [DW_OP_plus_uconst 84] [$sp+0]
	.loc	1 2197 5                        @ ../../../ThirdParty/mbedTLS/library/ecp.c:2197:5
	mov	r0, r4
	add	sp, #60
.Ltmp404:
	pop	{r4, r5, r6, r7, pc}
.Ltmp405:
	.p2align	2
@ %bb.29:
	.loc	1 0 5 is_stmt 0                 @ ../../../ThirdParty/mbedTLS/library/ecp.c:0:5
__arm_cp.29_0:
	.long	4294947456                      @ 0xffffb280
.Lcpi_end21:
	.size	__arm_cp.29_0, .Lcpi_end21-__arm_cp.29_0
.Lfunc_end29:
	.size	ecp_mul_comb, .Lfunc_end29-ecp_mul_comb
	.cfi_endproc
	.cantunwind
	.fnend
                                        @ -- End function
	.section	.text.mbedtls_ecp_mul,"ax",%progbits
	.hidden	mbedtls_ecp_mul                 @ -- Begin function mbedtls_ecp_mul
	.globl	mbedtls_ecp_mul
	.p2align	1
	.type	mbedtls_ecp_mul,%function
	.code	16                              @ @mbedtls_ecp_mul
	.thumb_func
mbedtls_ecp_mul:
.Lfunc_begin30:
	.loc	1 2504 0 is_stmt 1              @ ../../../ThirdParty/mbedTLS/library/ecp.c:2504:0
	.fnstart
	.cfi_startproc
@ %bb.0:
	@DEBUG_VALUE: mbedtls_ecp_mul:grp <- $r0
	@DEBUG_VALUE: mbedtls_ecp_mul:grp <- $r0
	@DEBUG_VALUE: mbedtls_ecp_mul:R <- $r1
	@DEBUG_VALUE: mbedtls_ecp_mul:R <- $r1
	@DEBUG_VALUE: mbedtls_ecp_mul:m <- $r2
	@DEBUG_VALUE: mbedtls_ecp_mul:m <- $r2
	@DEBUG_VALUE: mbedtls_ecp_mul:P <- $r3
	@DEBUG_VALUE: mbedtls_ecp_mul:P <- $r3
	.save	{r4, lr}
	push	{r4, lr}
	.cfi_def_cfa_offset 8
	.cfi_offset lr, -4
	.cfi_offset r4, -8
	.pad	#16
	sub	sp, #16
	.cfi_def_cfa_offset 24
.Ltmp406:
	@DEBUG_VALUE: mbedtls_ecp_mul:f_rng <- [DW_OP_plus_uconst 24] [$sp+0]
	@DEBUG_VALUE: mbedtls_ecp_mul:p_rng <- [DW_OP_plus_uconst 28] [$sp+0]
	ldr	r4, [sp, #28]
.Ltmp407:
	.loc	1 2509 13 prologue_end          @ ../../../ThirdParty/mbedTLS/library/ecp.c:2509:13
	str	r4, [sp, #4]
	ldr	r4, [sp, #24]
	str	r4, [sp]
	@DEBUG_VALUE: mbedtls_ecp_mul:P <- $r3
	@DEBUG_VALUE: mbedtls_ecp_mul:m <- $r2
	@DEBUG_VALUE: mbedtls_ecp_mul:R <- $r1
	@DEBUG_VALUE: mbedtls_ecp_mul:grp <- $r0
	bl	mbedtls_ecp_mul_restartable
.Ltmp408:
	@DEBUG_VALUE: mbedtls_ecp_mul:P <- [DW_OP_LLVM_entry_value 1] $r3
	@DEBUG_VALUE: mbedtls_ecp_mul:m <- [DW_OP_LLVM_entry_value 1] $r2
	@DEBUG_VALUE: mbedtls_ecp_mul:R <- [DW_OP_LLVM_entry_value 1] $r1
	@DEBUG_VALUE: mbedtls_ecp_mul:grp <- [DW_OP_LLVM_entry_value 1] $r0
	.loc	1 2509 5 is_stmt 0              @ ../../../ThirdParty/mbedTLS/library/ecp.c:2509:5
	add	sp, #16
.Ltmp409:
	pop	{r4, pc}
.Ltmp410:
.Lfunc_end30:
	.size	mbedtls_ecp_mul, .Lfunc_end30-mbedtls_ecp_mul
	.cfi_endproc
	.cantunwind
	.fnend
                                        @ -- End function
	.section	.text.mbedtls_ecp_muladd_restartable,"ax",%progbits
	.hidden	mbedtls_ecp_muladd_restartable  @ -- Begin function mbedtls_ecp_muladd_restartable
	.globl	mbedtls_ecp_muladd_restartable
	.p2align	2
	.type	mbedtls_ecp_muladd_restartable,%function
	.code	16                              @ @mbedtls_ecp_muladd_restartable
	.thumb_func
mbedtls_ecp_muladd_restartable:
.Lfunc_begin31:
	.loc	1 2611 0 is_stmt 1              @ ../../../ThirdParty/mbedTLS/library/ecp.c:2611:0
	.fnstart
	.cfi_startproc
@ %bb.0:
	@DEBUG_VALUE: mbedtls_ecp_muladd_restartable:grp <- $r0
	@DEBUG_VALUE: mbedtls_ecp_muladd_restartable:R <- $r1
	@DEBUG_VALUE: mbedtls_ecp_muladd_restartable:m <- $r2
	@DEBUG_VALUE: mbedtls_ecp_muladd_restartable:P <- $r3
	.save	{r4, r5, r6, r7, lr}
	push	{r4, r5, r6, r7, lr}
	.cfi_def_cfa_offset 20
	.cfi_offset lr, -4
	.cfi_offset r7, -8
	.cfi_offset r6, -12
	.cfi_offset r5, -16
	.cfi_offset r4, -20
	.pad	#52
	sub	sp, #52
	.cfi_def_cfa_offset 72
	mov	r6, r3
	mov	r7, r2
	mov	r4, r1
	mov	r5, r0
.Ltmp411:
	@DEBUG_VALUE: mbedtls_ecp_muladd_restartable:pR <- undef
	@DEBUG_VALUE: mbedtls_ecp_muladd_restartable:pmP <- [DW_OP_plus_uconst 16, DW_OP_stack_value] $sp
	@DEBUG_VALUE: mbedtls_ecp_muladd_restartable:rs_ctx <- [DW_OP_plus_uconst 80] [$sp+0]
	@DEBUG_VALUE: mbedtls_ecp_muladd_restartable:Q <- [DW_OP_plus_uconst 76] [$sp+0]
	@DEBUG_VALUE: mbedtls_ecp_muladd_restartable:n <- [DW_OP_plus_uconst 72] [$sp+0]
	@DEBUG_VALUE: mbedtls_ecp_muladd_restartable:P <- $r6
	@DEBUG_VALUE: mbedtls_ecp_muladd_restartable:m <- $r7
	@DEBUG_VALUE: mbedtls_ecp_muladd_restartable:R <- $r4
	@DEBUG_VALUE: mbedtls_ecp_muladd_restartable:grp <- $r5
	.loc	1 2626 9 prologue_end           @ ../../../ThirdParty/mbedTLS/library/ecp.c:2626:9
	bl	ecp_get_type
.Ltmp412:
	.loc	1 2626 9 is_stmt 0              @ ../../../ThirdParty/mbedTLS/library/ecp.c:2626:9
	cmp	r0, #1
	bne	.LBB31_6
.Ltmp413:
@ %bb.1:
	@DEBUG_VALUE: mbedtls_ecp_muladd_restartable:m <- $r7
	@DEBUG_VALUE: mbedtls_ecp_muladd_restartable:P <- $r6
	@DEBUG_VALUE: mbedtls_ecp_muladd_restartable:grp <- $r5
	@DEBUG_VALUE: mbedtls_ecp_muladd_restartable:R <- $r4
	@DEBUG_VALUE: mbedtls_ecp_muladd_restartable:n <- [DW_OP_plus_uconst 72] [$sp+0]
	@DEBUG_VALUE: mbedtls_ecp_muladd_restartable:Q <- [DW_OP_plus_uconst 76] [$sp+0]
	@DEBUG_VALUE: mbedtls_ecp_muladd_restartable:rs_ctx <- [DW_OP_plus_uconst 80] [$sp+0]
	@DEBUG_VALUE: mbedtls_ecp_muladd_restartable:pmP <- [DW_OP_plus_uconst 16, DW_OP_stack_value] $sp
	.loc	1 0 9                           @ ../../../ThirdParty/mbedTLS/library/ecp.c:0:9
	str	r6, [sp, #8]                    @ 4-byte Spill
.Ltmp414:
	@DEBUG_VALUE: mbedtls_ecp_muladd_restartable:P <- [DW_OP_plus_uconst 8] [$sp+0]
	ldr	r6, [sp, #80]
	str	r4, [sp, #12]                   @ 4-byte Spill
.Ltmp415:
	@DEBUG_VALUE: mbedtls_ecp_muladd_restartable:R <- [DW_OP_plus_uconst 12] [$sp+0]
	add	r4, sp, #16
	.loc	1 2629 5 is_stmt 1              @ ../../../ThirdParty/mbedTLS/library/ecp.c:2629:5
	mov	r0, r4
	bl	mbedtls_ecp_point_init
	str	r6, [sp, #4]                    @ 4-byte Spill
.Ltmp416:
	.loc	1 2650 5                        @ ../../../ThirdParty/mbedTLS/library/ecp.c:2650:5
	str	r6, [sp]
	mov	r0, r5
	mov	r1, r4
	ldr	r4, [sp, #12]                   @ 4-byte Reload
.Ltmp417:
	@DEBUG_VALUE: mbedtls_ecp_muladd_restartable:R <- $r4
	mov	r2, r7
	ldr	r3, [sp, #8]                    @ 4-byte Reload
.Ltmp418:
	@DEBUG_VALUE: mbedtls_ecp_muladd_restartable:P <- $r3
	bl	mbedtls_ecp_mul_shortcuts
.Ltmp419:
	mov	r6, r0
.Ltmp420:
	@DEBUG_VALUE: mbedtls_ecp_muladd_restartable:ret <- $r6
	.loc	1 2650 5 is_stmt 0              @ ../../../ThirdParty/mbedTLS/library/ecp.c:2650:5
	cbnz	r0, .LBB31_5
.Ltmp421:
@ %bb.2:
	@DEBUG_VALUE: mbedtls_ecp_muladd_restartable:m <- $r7
	@DEBUG_VALUE: mbedtls_ecp_muladd_restartable:ret <- $r6
	@DEBUG_VALUE: mbedtls_ecp_muladd_restartable:grp <- $r5
	@DEBUG_VALUE: mbedtls_ecp_muladd_restartable:R <- $r4
	@DEBUG_VALUE: mbedtls_ecp_muladd_restartable:n <- [DW_OP_plus_uconst 72] [$sp+0]
	@DEBUG_VALUE: mbedtls_ecp_muladd_restartable:Q <- [DW_OP_plus_uconst 76] [$sp+0]
	@DEBUG_VALUE: mbedtls_ecp_muladd_restartable:rs_ctx <- [DW_OP_plus_uconst 80] [$sp+0]
	@DEBUG_VALUE: mbedtls_ecp_muladd_restartable:pmP <- [DW_OP_plus_uconst 16, DW_OP_stack_value] $sp
	.loc	1 0 5                           @ ../../../ThirdParty/mbedTLS/library/ecp.c:0:5
	ldr	r3, [sp, #76]
	ldr	r2, [sp, #72]
.Ltmp422:
	.loc	1 2657 5 is_stmt 1              @ ../../../ThirdParty/mbedTLS/library/ecp.c:2657:5
	ldr	r0, [sp, #4]                    @ 4-byte Reload
	str	r0, [sp]
	mov	r0, r5
	mov	r1, r4
	bl	mbedtls_ecp_mul_shortcuts
	mov	r6, r0
.Ltmp423:
	@DEBUG_VALUE: mbedtls_ecp_muladd_restartable:ret <- $r6
	.loc	1 2657 5 is_stmt 0              @ ../../../ThirdParty/mbedTLS/library/ecp.c:2657:5
	cbnz	r0, .LBB31_5
.Ltmp424:
@ %bb.3:
	@DEBUG_VALUE: mbedtls_ecp_muladd_restartable:m <- $r7
	@DEBUG_VALUE: mbedtls_ecp_muladd_restartable:ret <- $r6
	@DEBUG_VALUE: mbedtls_ecp_muladd_restartable:grp <- $r5
	@DEBUG_VALUE: mbedtls_ecp_muladd_restartable:R <- $r4
	@DEBUG_VALUE: mbedtls_ecp_muladd_restartable:n <- [DW_OP_plus_uconst 72] [$sp+0]
	@DEBUG_VALUE: mbedtls_ecp_muladd_restartable:Q <- [DW_OP_plus_uconst 76] [$sp+0]
	@DEBUG_VALUE: mbedtls_ecp_muladd_restartable:rs_ctx <- [DW_OP_plus_uconst 80] [$sp+0]
	@DEBUG_VALUE: mbedtls_ecp_muladd_restartable:pmP <- [DW_OP_plus_uconst 16, DW_OP_stack_value] $sp
	.loc	1 0 5                           @ ../../../ThirdParty/mbedTLS/library/ecp.c:0:5
	add	r2, sp, #16
.Ltmp425:
	.loc	1 2671 5 is_stmt 1              @ ../../../ThirdParty/mbedTLS/library/ecp.c:2671:5
	mov	r0, r5
	mov	r1, r4
	mov	r3, r4
	bl	ecp_add_mixed
	mov	r6, r0
.Ltmp426:
	@DEBUG_VALUE: mbedtls_ecp_muladd_restartable:ret <- $r6
	.loc	1 2671 5 is_stmt 0              @ ../../../ThirdParty/mbedTLS/library/ecp.c:2671:5
	cbnz	r0, .LBB31_5
.Ltmp427:
@ %bb.4:
	@DEBUG_VALUE: mbedtls_ecp_muladd_restartable:m <- $r7
	@DEBUG_VALUE: mbedtls_ecp_muladd_restartable:ret <- $r6
	@DEBUG_VALUE: mbedtls_ecp_muladd_restartable:grp <- $r5
	@DEBUG_VALUE: mbedtls_ecp_muladd_restartable:R <- $r4
	@DEBUG_VALUE: mbedtls_ecp_muladd_restartable:n <- [DW_OP_plus_uconst 72] [$sp+0]
	@DEBUG_VALUE: mbedtls_ecp_muladd_restartable:Q <- [DW_OP_plus_uconst 76] [$sp+0]
	@DEBUG_VALUE: mbedtls_ecp_muladd_restartable:rs_ctx <- [DW_OP_plus_uconst 80] [$sp+0]
	@DEBUG_VALUE: mbedtls_ecp_muladd_restartable:pmP <- [DW_OP_plus_uconst 16, DW_OP_stack_value] $sp
	.loc	1 2679 5 is_stmt 1              @ ../../../ThirdParty/mbedTLS/library/ecp.c:2679:5
	mov	r0, r5
	mov	r1, r4
	bl	ecp_normalize_jac
	mov	r6, r0
.Ltmp428:
	@DEBUG_VALUE: mbedtls_ecp_muladd_restartable:ret <- $r6
.LBB31_5:
	@DEBUG_VALUE: mbedtls_ecp_muladd_restartable:m <- $r7
	@DEBUG_VALUE: mbedtls_ecp_muladd_restartable:ret <- $r6
	@DEBUG_VALUE: mbedtls_ecp_muladd_restartable:grp <- $r5
	@DEBUG_VALUE: mbedtls_ecp_muladd_restartable:R <- $r4
	@DEBUG_VALUE: mbedtls_ecp_muladd_restartable:n <- [DW_OP_plus_uconst 72] [$sp+0]
	@DEBUG_VALUE: mbedtls_ecp_muladd_restartable:Q <- [DW_OP_plus_uconst 76] [$sp+0]
	@DEBUG_VALUE: mbedtls_ecp_muladd_restartable:rs_ctx <- [DW_OP_plus_uconst 80] [$sp+0]
	@DEBUG_VALUE: mbedtls_ecp_muladd_restartable:pmP <- [DW_OP_plus_uconst 16, DW_OP_stack_value] $sp
	@DEBUG_VALUE: mbedtls_ecp_muladd_restartable:ret <- $r6
	@DEBUG_LABEL: mbedtls_ecp_muladd_restartable:cleanup
	.loc	1 0 5 is_stmt 0                 @ ../../../ThirdParty/mbedTLS/library/ecp.c:0:5
	add	r0, sp, #16
	.loc	1 2692 5 is_stmt 1              @ ../../../ThirdParty/mbedTLS/library/ecp.c:2692:5
	bl	mbedtls_ecp_point_free
	b	.LBB31_7
.Ltmp429:
.LBB31_6:
	@DEBUG_VALUE: mbedtls_ecp_muladd_restartable:m <- $r7
	@DEBUG_VALUE: mbedtls_ecp_muladd_restartable:P <- $r6
	@DEBUG_VALUE: mbedtls_ecp_muladd_restartable:grp <- $r5
	@DEBUG_VALUE: mbedtls_ecp_muladd_restartable:R <- $r4
	@DEBUG_VALUE: mbedtls_ecp_muladd_restartable:n <- [DW_OP_plus_uconst 72] [$sp+0]
	@DEBUG_VALUE: mbedtls_ecp_muladd_restartable:Q <- [DW_OP_plus_uconst 76] [$sp+0]
	@DEBUG_VALUE: mbedtls_ecp_muladd_restartable:rs_ctx <- [DW_OP_plus_uconst 80] [$sp+0]
	@DEBUG_VALUE: mbedtls_ecp_muladd_restartable:pmP <- [DW_OP_plus_uconst 16, DW_OP_stack_value] $sp
	.loc	1 0 5 is_stmt 0                 @ ../../../ThirdParty/mbedTLS/library/ecp.c:0:5
	ldr	r6, __arm_cp.31_0
.Ltmp430:
.LBB31_7:
	@DEBUG_VALUE: mbedtls_ecp_muladd_restartable:m <- $r7
	@DEBUG_VALUE: mbedtls_ecp_muladd_restartable:grp <- $r5
	@DEBUG_VALUE: mbedtls_ecp_muladd_restartable:R <- $r4
	@DEBUG_VALUE: mbedtls_ecp_muladd_restartable:n <- [DW_OP_plus_uconst 72] [$sp+0]
	@DEBUG_VALUE: mbedtls_ecp_muladd_restartable:Q <- [DW_OP_plus_uconst 76] [$sp+0]
	@DEBUG_VALUE: mbedtls_ecp_muladd_restartable:rs_ctx <- [DW_OP_plus_uconst 80] [$sp+0]
	@DEBUG_VALUE: mbedtls_ecp_muladd_restartable:pmP <- [DW_OP_plus_uconst 16, DW_OP_stack_value] $sp
	.loc	1 2697 1 is_stmt 1              @ ../../../ThirdParty/mbedTLS/library/ecp.c:2697:1
	mov	r0, r6
	add	sp, #52
.Ltmp431:
	pop	{r4, r5, r6, r7, pc}
.Ltmp432:
	.p2align	2
@ %bb.8:
	.loc	1 0 1 is_stmt 0                 @ ../../../ThirdParty/mbedTLS/library/ecp.c:0:1
__arm_cp.31_0:
	.long	4294947200                      @ 0xffffb180
.Lcpi_end22:
	.size	__arm_cp.31_0, .Lcpi_end22-__arm_cp.31_0
.Lfunc_end31:
	.size	mbedtls_ecp_muladd_restartable, .Lfunc_end31-mbedtls_ecp_muladd_restartable
	.cfi_endproc
	.cantunwind
	.fnend
                                        @ -- End function
	.section	.text.mbedtls_ecp_mul_shortcuts,"ax",%progbits
	.p2align	1                               @ -- Begin function mbedtls_ecp_mul_shortcuts
	.type	mbedtls_ecp_mul_shortcuts,%function
	.code	16                              @ @mbedtls_ecp_mul_shortcuts
	.thumb_func
mbedtls_ecp_mul_shortcuts:
.Lfunc_begin32:
	.loc	1 2579 0 is_stmt 1              @ ../../../ThirdParty/mbedTLS/library/ecp.c:2579:0
	.fnstart
	.cfi_startproc
@ %bb.0:
	@DEBUG_VALUE: mbedtls_ecp_mul_shortcuts:grp <- $r0
	@DEBUG_VALUE: mbedtls_ecp_mul_shortcuts:R <- $r1
	@DEBUG_VALUE: mbedtls_ecp_mul_shortcuts:m <- $r2
	@DEBUG_VALUE: mbedtls_ecp_mul_shortcuts:P <- $r3
	.save	{r4, r5, r6, r7, lr}
	push	{r4, r5, r6, r7, lr}
	.cfi_def_cfa_offset 20
	.cfi_offset lr, -4
	.cfi_offset r7, -8
	.cfi_offset r6, -12
	.cfi_offset r5, -16
	.cfi_offset r4, -20
	.pad	#20
	sub	sp, #20
	.cfi_def_cfa_offset 40
	mov	r6, r3
	mov	r5, r2
	mov	r4, r1
	mov	r7, r0
.Ltmp433:
	@DEBUG_VALUE: mbedtls_ecp_mul_shortcuts:rs_ctx <- [DW_OP_plus_uconst 40] [$sp+0]
	@DEBUG_VALUE: mbedtls_ecp_mul_shortcuts:P <- $r6
	@DEBUG_VALUE: mbedtls_ecp_mul_shortcuts:m <- $r5
	@DEBUG_VALUE: mbedtls_ecp_mul_shortcuts:R <- $r4
	@DEBUG_VALUE: mbedtls_ecp_mul_shortcuts:grp <- $r7
	movs	r1, #1
.Ltmp434:
	.loc	1 2582 9 prologue_end           @ ../../../ThirdParty/mbedTLS/library/ecp.c:2582:9
	mov	r0, r2
	bl	mbedtls_mpi_cmp_int
.Ltmp435:
	.loc	1 2582 9 is_stmt 0              @ ../../../ThirdParty/mbedTLS/library/ecp.c:2582:9
	cbz	r0, .LBB32_3
.Ltmp436:
@ %bb.1:
	@DEBUG_VALUE: mbedtls_ecp_mul_shortcuts:grp <- $r7
	@DEBUG_VALUE: mbedtls_ecp_mul_shortcuts:P <- $r6
	@DEBUG_VALUE: mbedtls_ecp_mul_shortcuts:m <- $r5
	@DEBUG_VALUE: mbedtls_ecp_mul_shortcuts:R <- $r4
	@DEBUG_VALUE: mbedtls_ecp_mul_shortcuts:rs_ctx <- [DW_OP_plus_uconst 40] [$sp+0]
	.loc	1 0 9                           @ ../../../ThirdParty/mbedTLS/library/ecp.c:0:9
	str	r7, [sp, #16]                   @ 4-byte Spill
.Ltmp437:
	@DEBUG_VALUE: mbedtls_ecp_mul_shortcuts:grp <- [DW_OP_plus_uconst 16] [$sp+0]
	movs	r7, #0
	mvns	r1, r7
.Ltmp438:
	.loc	1 2586 14 is_stmt 1             @ ../../../ThirdParty/mbedTLS/library/ecp.c:2586:14
	mov	r0, r5
	bl	mbedtls_mpi_cmp_int
.Ltmp439:
	.loc	1 2586 14 is_stmt 0             @ ../../../ThirdParty/mbedTLS/library/ecp.c:2586:14
	cbz	r0, .LBB32_4
.Ltmp440:
@ %bb.2:
	@DEBUG_VALUE: mbedtls_ecp_mul_shortcuts:grp <- [DW_OP_plus_uconst 16] [$sp+0]
	@DEBUG_VALUE: mbedtls_ecp_mul_shortcuts:P <- $r6
	@DEBUG_VALUE: mbedtls_ecp_mul_shortcuts:m <- $r5
	@DEBUG_VALUE: mbedtls_ecp_mul_shortcuts:R <- $r4
	@DEBUG_VALUE: mbedtls_ecp_mul_shortcuts:rs_ctx <- [DW_OP_plus_uconst 40] [$sp+0]
	.loc	1 2594 9 is_stmt 1              @ ../../../ThirdParty/mbedTLS/library/ecp.c:2594:9
	str	r7, [sp]
	str	r7, [sp, #4]
	ldr	r0, [sp, #16]                   @ 4-byte Reload
.Ltmp441:
	@DEBUG_VALUE: mbedtls_ecp_mul_shortcuts:grp <- $r0
	mov	r1, r4
	mov	r2, r5
	mov	r3, r6
	bl	mbedtls_ecp_mul_restartable
.Ltmp442:
	@DEBUG_VALUE: mbedtls_ecp_mul_shortcuts:ret <- $r0
	.loc	1 0 9 is_stmt 0                 @ ../../../ThirdParty/mbedTLS/library/ecp.c:0:9
	b	.LBB32_5
.Ltmp443:
.LBB32_3:
	@DEBUG_VALUE: mbedtls_ecp_mul_shortcuts:grp <- $r7
	@DEBUG_VALUE: mbedtls_ecp_mul_shortcuts:P <- $r6
	@DEBUG_VALUE: mbedtls_ecp_mul_shortcuts:m <- $r5
	@DEBUG_VALUE: mbedtls_ecp_mul_shortcuts:R <- $r4
	@DEBUG_VALUE: mbedtls_ecp_mul_shortcuts:rs_ctx <- [DW_OP_plus_uconst 40] [$sp+0]
	.loc	1 2584 9 is_stmt 1              @ ../../../ThirdParty/mbedTLS/library/ecp.c:2584:9
	mov	r0, r4
	mov	r1, r6
	bl	mbedtls_ecp_copy
.Ltmp444:
	@DEBUG_VALUE: mbedtls_ecp_mul_shortcuts:ret <- $r0
	@DEBUG_VALUE: mbedtls_ecp_mul_shortcuts:ret <- $r0
	@DEBUG_LABEL: mbedtls_ecp_mul_shortcuts:cleanup
	.loc	1 2599 5                        @ ../../../ThirdParty/mbedTLS/library/ecp.c:2599:5
	add	sp, #20
.Ltmp445:
	pop	{r4, r5, r6, r7, pc}
.Ltmp446:
.LBB32_4:
	@DEBUG_VALUE: mbedtls_ecp_mul_shortcuts:grp <- [DW_OP_plus_uconst 16] [$sp+0]
	@DEBUG_VALUE: mbedtls_ecp_mul_shortcuts:P <- $r6
	@DEBUG_VALUE: mbedtls_ecp_mul_shortcuts:m <- $r5
	@DEBUG_VALUE: mbedtls_ecp_mul_shortcuts:R <- $r4
	@DEBUG_VALUE: mbedtls_ecp_mul_shortcuts:rs_ctx <- [DW_OP_plus_uconst 40] [$sp+0]
	.loc	1 2588 9                        @ ../../../ThirdParty/mbedTLS/library/ecp.c:2588:9
	mov	r0, r4
	mov	r1, r6
	bl	mbedtls_ecp_copy
.Ltmp447:
	@DEBUG_VALUE: mbedtls_ecp_mul_shortcuts:ret <- $r0
	.loc	1 2588 9 is_stmt 0              @ ../../../ThirdParty/mbedTLS/library/ecp.c:2588:9
	cbz	r0, .LBB32_6
.Ltmp448:
.LBB32_5:
	@DEBUG_VALUE: mbedtls_ecp_mul_shortcuts:P <- $r6
	@DEBUG_VALUE: mbedtls_ecp_mul_shortcuts:m <- $r5
	@DEBUG_VALUE: mbedtls_ecp_mul_shortcuts:rs_ctx <- [DW_OP_plus_uconst 40] [$sp+0]
	@DEBUG_VALUE: mbedtls_ecp_mul_shortcuts:ret <- $r0
	@DEBUG_LABEL: mbedtls_ecp_mul_shortcuts:cleanup
	.loc	1 2599 5 is_stmt 1              @ ../../../ThirdParty/mbedTLS/library/ecp.c:2599:5
	add	sp, #20
.Ltmp449:
	pop	{r4, r5, r6, r7, pc}
.Ltmp450:
.LBB32_6:
	@DEBUG_VALUE: mbedtls_ecp_mul_shortcuts:grp <- [DW_OP_plus_uconst 16] [$sp+0]
	@DEBUG_VALUE: mbedtls_ecp_mul_shortcuts:P <- $r6
	@DEBUG_VALUE: mbedtls_ecp_mul_shortcuts:m <- $r5
	@DEBUG_VALUE: mbedtls_ecp_mul_shortcuts:R <- $r4
	@DEBUG_VALUE: mbedtls_ecp_mul_shortcuts:ret <- $r0
	@DEBUG_VALUE: mbedtls_ecp_mul_shortcuts:rs_ctx <- [DW_OP_plus_uconst 40] [$sp+0]
	.loc	1 2589 38                       @ ../../../ThirdParty/mbedTLS/library/ecp.c:2589:38
	adds	r4, #12
.Ltmp451:
	.loc	1 2589 13 is_stmt 0             @ ../../../ThirdParty/mbedTLS/library/ecp.c:2589:13
	mov	r0, r4
.Ltmp452:
	mov	r1, r7
	bl	mbedtls_mpi_cmp_int
.Ltmp453:
	.loc	1 2589 13                       @ ../../../ThirdParty/mbedTLS/library/ecp.c:2589:13
	cmp	r0, #0
.Ltmp454:
	.loc	1 0 0                           @ ../../../ThirdParty/mbedTLS/library/ecp.c:0:0
	mov	r0, r7
.Ltmp455:
	.loc	1 2589 13                       @ ../../../ThirdParty/mbedTLS/library/ecp.c:2589:13
	beq	.LBB32_5
.Ltmp456:
@ %bb.7:
	@DEBUG_VALUE: mbedtls_ecp_mul_shortcuts:grp <- [DW_OP_plus_uconst 16] [$sp+0]
	@DEBUG_VALUE: mbedtls_ecp_mul_shortcuts:P <- $r6
	@DEBUG_VALUE: mbedtls_ecp_mul_shortcuts:m <- $r5
	@DEBUG_VALUE: mbedtls_ecp_mul_shortcuts:rs_ctx <- [DW_OP_plus_uconst 40] [$sp+0]
	.loc	1 2590 13 is_stmt 1             @ ../../../ThirdParty/mbedTLS/library/ecp.c:2590:13
	ldr	r0, [sp, #16]                   @ 4-byte Reload
.Ltmp457:
	@DEBUG_VALUE: mbedtls_ecp_mul_shortcuts:grp <- $r0
	adds	r1, r0, #4
	mov	r0, r4
.Ltmp458:
	mov	r2, r4
	bl	mbedtls_mpi_sub_mpi
.Ltmp459:
	@DEBUG_VALUE: mbedtls_ecp_mul_shortcuts:ret <- $r0
	@DEBUG_VALUE: mbedtls_ecp_mul_shortcuts:ret <- $r0
	@DEBUG_LABEL: mbedtls_ecp_mul_shortcuts:cleanup
	.loc	1 2599 5                        @ ../../../ThirdParty/mbedTLS/library/ecp.c:2599:5
	add	sp, #20
.Ltmp460:
	pop	{r4, r5, r6, r7, pc}
.Ltmp461:
.Lfunc_end32:
	.size	mbedtls_ecp_mul_shortcuts, .Lfunc_end32-mbedtls_ecp_mul_shortcuts
	.cfi_endproc
	.cantunwind
	.fnend
                                        @ -- End function
	.section	.text.ecp_add_mixed,"ax",%progbits
	.p2align	2                               @ -- Begin function ecp_add_mixed
	.type	ecp_add_mixed,%function
	.code	16                              @ @ecp_add_mixed
	.thumb_func
ecp_add_mixed:
.Lfunc_begin33:
	.loc	1 1402 0                        @ ../../../ThirdParty/mbedTLS/library/ecp.c:1402:0
	.fnstart
	.cfi_startproc
@ %bb.0:
	@DEBUG_VALUE: ecp_add_mixed:grp <- $r0
	@DEBUG_VALUE: ecp_add_mixed:R <- $r1
	@DEBUG_VALUE: ecp_add_mixed:P <- $r2
	@DEBUG_VALUE: ecp_add_mixed:Q <- $r3
	.save	{r4, r5, r6, r7, lr}
	push	{r4, r5, r6, r7, lr}
	.cfi_def_cfa_offset 20
	.cfi_offset lr, -4
	.cfi_offset r7, -8
	.cfi_offset r6, -12
	.cfi_offset r5, -16
	.cfi_offset r4, -20
	.pad	#100
	sub	sp, #100
	.cfi_def_cfa_offset 120
	mov	r4, r3
	mov	r6, r2
	mov	r5, r1
	str	r0, [sp, #12]                   @ 4-byte Spill
.Ltmp462:
	@DEBUG_VALUE: ecp_add_mixed:Q <- $r4
	@DEBUG_VALUE: ecp_add_mixed:P <- $r6
	@DEBUG_VALUE: ecp_add_mixed:R <- $r5
	@DEBUG_VALUE: ecp_add_mixed:grp <- [DW_OP_plus_uconst 12] [$sp+0]
	.loc	1 1407 14 prologue_end          @ ../../../ThirdParty/mbedTLS/library/ecp.c:1407:14
	ldr	r0, __arm_cp.33_3
	ldr	r1, [r0]
	adds	r1, r1, #1
	str	r1, [r0]
.Ltmp463:
	.loc	1 1418 34                       @ ../../../ThirdParty/mbedTLS/library/ecp.c:1418:34
	mov	r7, r2
	adds	r7, #24
	movs	r1, #0
	.loc	1 1418 9 is_stmt 0              @ ../../../ThirdParty/mbedTLS/library/ecp.c:1418:9
	mov	r0, r7
	bl	mbedtls_mpi_cmp_int
.Ltmp464:
	.loc	1 1418 9                        @ ../../../ThirdParty/mbedTLS/library/ecp.c:1418:9
	cbz	r0, .LBB33_6
.Ltmp465:
@ %bb.1:
	@DEBUG_VALUE: ecp_add_mixed:P <- $r6
	@DEBUG_VALUE: ecp_add_mixed:R <- $r5
	@DEBUG_VALUE: ecp_add_mixed:Q <- $r4
	@DEBUG_VALUE: ecp_add_mixed:grp <- [DW_OP_plus_uconst 12] [$sp+0]
	.loc	1 0 9                           @ ../../../ThirdParty/mbedTLS/library/ecp.c:0:9
	str	r5, [sp, #8]                    @ 4-byte Spill
.Ltmp466:
	@DEBUG_VALUE: ecp_add_mixed:R <- [DW_OP_plus_uconst 8] [$sp+0]
	.loc	1 1421 12 is_stmt 1             @ ../../../ThirdParty/mbedTLS/library/ecp.c:1421:12
	mov	r5, r4
	adds	r5, #24
	.loc	1 1421 14 is_stmt 0             @ ../../../ThirdParty/mbedTLS/library/ecp.c:1421:14
	ldr	r0, [r4, #32]
	.loc	1 1421 24                       @ ../../../ThirdParty/mbedTLS/library/ecp.c:1421:24
	cbz	r0, .LBB33_3
.Ltmp467:
@ %bb.2:
	@DEBUG_VALUE: ecp_add_mixed:R <- [DW_OP_plus_uconst 8] [$sp+0]
	@DEBUG_VALUE: ecp_add_mixed:P <- $r6
	@DEBUG_VALUE: ecp_add_mixed:Q <- $r4
	@DEBUG_VALUE: ecp_add_mixed:grp <- [DW_OP_plus_uconst 12] [$sp+0]
	.loc	1 0 24                          @ ../../../ThirdParty/mbedTLS/library/ecp.c:0:24
	movs	r1, #0
	.loc	1 1421 27                       @ ../../../ThirdParty/mbedTLS/library/ecp.c:1421:27
	mov	r0, r5
	bl	mbedtls_mpi_cmp_int
.Ltmp468:
	.loc	1 1421 9                        @ ../../../ThirdParty/mbedTLS/library/ecp.c:1421:9
	cmp	r0, #0
	bne	.LBB33_3
	b	.LBB33_20
.Ltmp469:
.LBB33_3:
	@DEBUG_VALUE: ecp_add_mixed:R <- [DW_OP_plus_uconst 8] [$sp+0]
	@DEBUG_VALUE: ecp_add_mixed:P <- $r6
	@DEBUG_VALUE: ecp_add_mixed:Q <- $r4
	@DEBUG_VALUE: ecp_add_mixed:grp <- [DW_OP_plus_uconst 12] [$sp+0]
	.loc	1 1427 14 is_stmt 1             @ ../../../ThirdParty/mbedTLS/library/ecp.c:1427:14
	ldr	r0, [r4, #32]
	.loc	1 1427 24 is_stmt 0             @ ../../../ThirdParty/mbedTLS/library/ecp.c:1427:24
	cbz	r0, .LBB33_7
.Ltmp470:
@ %bb.4:
	@DEBUG_VALUE: ecp_add_mixed:R <- [DW_OP_plus_uconst 8] [$sp+0]
	@DEBUG_VALUE: ecp_add_mixed:P <- $r6
	@DEBUG_VALUE: ecp_add_mixed:Q <- $r4
	@DEBUG_VALUE: ecp_add_mixed:grp <- [DW_OP_plus_uconst 12] [$sp+0]
	.loc	1 0 24                          @ ../../../ThirdParty/mbedTLS/library/ecp.c:0:24
	movs	r1, #1
	.loc	1 1427 27                       @ ../../../ThirdParty/mbedTLS/library/ecp.c:1427:27
	mov	r0, r5
	bl	mbedtls_mpi_cmp_int
.Ltmp471:
	.loc	1 1427 9                        @ ../../../ThirdParty/mbedTLS/library/ecp.c:1427:9
	cbz	r0, .LBB33_7
.Ltmp472:
@ %bb.5:
	@DEBUG_VALUE: ecp_add_mixed:R <- [DW_OP_plus_uconst 8] [$sp+0]
	@DEBUG_VALUE: ecp_add_mixed:P <- $r6
	@DEBUG_VALUE: ecp_add_mixed:Q <- $r4
	@DEBUG_VALUE: ecp_add_mixed:grp <- [DW_OP_plus_uconst 12] [$sp+0]
	.loc	1 0 9                           @ ../../../ThirdParty/mbedTLS/library/ecp.c:0:9
	ldr	r5, __arm_cp.33_4
	b	.LBB33_23
.Ltmp473:
.LBB33_6:
	@DEBUG_VALUE: ecp_add_mixed:P <- $r6
	@DEBUG_VALUE: ecp_add_mixed:R <- $r5
	@DEBUG_VALUE: ecp_add_mixed:Q <- $r4
	@DEBUG_VALUE: ecp_add_mixed:grp <- [DW_OP_plus_uconst 12] [$sp+0]
	.loc	1 1419 17 is_stmt 1             @ ../../../ThirdParty/mbedTLS/library/ecp.c:1419:17
	mov	r0, r5
	mov	r1, r4
	bl	mbedtls_ecp_copy
	mov	r5, r0
.Ltmp474:
	.loc	1 1419 9 is_stmt 0              @ ../../../ThirdParty/mbedTLS/library/ecp.c:1419:9
	b	.LBB33_23
.Ltmp475:
.LBB33_7:
	@DEBUG_VALUE: ecp_add_mixed:R <- [DW_OP_plus_uconst 8] [$sp+0]
	@DEBUG_VALUE: ecp_add_mixed:P <- $r6
	@DEBUG_VALUE: ecp_add_mixed:Q <- $r4
	@DEBUG_VALUE: ecp_add_mixed:grp <- [DW_OP_plus_uconst 12] [$sp+0]
	.loc	1 0 9                           @ ../../../ThirdParty/mbedTLS/library/ecp.c:0:9
	add	r5, sp, #88
	.loc	1 1430 5 is_stmt 1              @ ../../../ThirdParty/mbedTLS/library/ecp.c:1430:5
	mov	r0, r5
	bl	mbedtls_mpi_init
	add	r0, sp, #76
	.loc	1 1431 5                        @ ../../../ThirdParty/mbedTLS/library/ecp.c:1431:5
	bl	mbedtls_mpi_init
	add	r0, sp, #64
	.loc	1 1432 5                        @ ../../../ThirdParty/mbedTLS/library/ecp.c:1432:5
	bl	mbedtls_mpi_init
	add	r0, sp, #52
	.loc	1 1433 5                        @ ../../../ThirdParty/mbedTLS/library/ecp.c:1433:5
	bl	mbedtls_mpi_init
	add	r0, sp, #40
	.loc	1 1434 5                        @ ../../../ThirdParty/mbedTLS/library/ecp.c:1434:5
	bl	mbedtls_mpi_init
	add	r0, sp, #28
	.loc	1 1435 5                        @ ../../../ThirdParty/mbedTLS/library/ecp.c:1435:5
	bl	mbedtls_mpi_init
	add	r0, sp, #16
	.loc	1 1436 5                        @ ../../../ThirdParty/mbedTLS/library/ecp.c:1436:5
	bl	mbedtls_mpi_init
.Ltmp476:
	.loc	1 1438 5                        @ ../../../ThirdParty/mbedTLS/library/ecp.c:1438:5
	mov	r0, r5
	mov	r1, r7
	mov	r2, r7
	bl	mbedtls_mpi_mul_mpi
	mov	r5, r0
.Ltmp477:
	@DEBUG_VALUE: ecp_add_mixed:ret <- $r5
	.loc	1 1438 5 is_stmt 0              @ ../../../ThirdParty/mbedTLS/library/ecp.c:1438:5
	cmp	r0, #0
	bne	.LBB33_22
.Ltmp478:
@ %bb.8:
	@DEBUG_VALUE: ecp_add_mixed:R <- [DW_OP_plus_uconst 8] [$sp+0]
	@DEBUG_VALUE: ecp_add_mixed:P <- $r6
	@DEBUG_VALUE: ecp_add_mixed:ret <- $r5
	@DEBUG_VALUE: ecp_add_mixed:Q <- $r4
	@DEBUG_VALUE: ecp_add_mixed:grp <- [DW_OP_plus_uconst 12] [$sp+0]
	.loc	1 0 5                           @ ../../../ThirdParty/mbedTLS/library/ecp.c:0:5
	add	r0, sp, #88
.Ltmp479:
	.loc	1 1439 5 is_stmt 1              @ ../../../ThirdParty/mbedTLS/library/ecp.c:1439:5
	ldr	r1, [sp, #12]                   @ 4-byte Reload
	bl	ecp_modp
	mov	r5, r0
.Ltmp480:
	@DEBUG_VALUE: ecp_add_mixed:ret <- $r5
	.loc	1 1439 5 is_stmt 0              @ ../../../ThirdParty/mbedTLS/library/ecp.c:1439:5
	cmp	r0, #0
	bne	.LBB33_22
.Ltmp481:
@ %bb.9:
	@DEBUG_VALUE: ecp_add_mixed:R <- [DW_OP_plus_uconst 8] [$sp+0]
	@DEBUG_VALUE: ecp_add_mixed:P <- $r6
	@DEBUG_VALUE: ecp_add_mixed:ret <- $r5
	@DEBUG_VALUE: ecp_add_mixed:Q <- $r4
	@DEBUG_VALUE: ecp_add_mixed:grp <- [DW_OP_plus_uconst 12] [$sp+0]
	.loc	1 1439 5                        @ ../../../ThirdParty/mbedTLS/library/ecp.c:1439:5
	ldr	r1, __arm_cp.33_2
	ldr	r0, [r1]
	adds	r0, r0, #1
	str	r0, [r1]
	add	r0, sp, #76
	add	r1, sp, #88
.Ltmp482:
	.loc	1 1440 5 is_stmt 1              @ ../../../ThirdParty/mbedTLS/library/ecp.c:1440:5
	mov	r2, r7
	bl	mbedtls_mpi_mul_mpi
	mov	r5, r0
.Ltmp483:
	@DEBUG_VALUE: ecp_add_mixed:ret <- $r5
	.loc	1 1440 5 is_stmt 0              @ ../../../ThirdParty/mbedTLS/library/ecp.c:1440:5
	cmp	r0, #0
	bne	.LBB33_22
.Ltmp484:
@ %bb.10:
	@DEBUG_VALUE: ecp_add_mixed:R <- [DW_OP_plus_uconst 8] [$sp+0]
	@DEBUG_VALUE: ecp_add_mixed:P <- $r6
	@DEBUG_VALUE: ecp_add_mixed:ret <- $r5
	@DEBUG_VALUE: ecp_add_mixed:Q <- $r4
	@DEBUG_VALUE: ecp_add_mixed:grp <- [DW_OP_plus_uconst 12] [$sp+0]
	.loc	1 0 5                           @ ../../../ThirdParty/mbedTLS/library/ecp.c:0:5
	add	r0, sp, #76
.Ltmp485:
	.loc	1 1441 5 is_stmt 1              @ ../../../ThirdParty/mbedTLS/library/ecp.c:1441:5
	ldr	r1, [sp, #12]                   @ 4-byte Reload
	bl	ecp_modp
	mov	r5, r0
.Ltmp486:
	@DEBUG_VALUE: ecp_add_mixed:ret <- $r5
	.loc	1 1441 5 is_stmt 0              @ ../../../ThirdParty/mbedTLS/library/ecp.c:1441:5
	cmp	r0, #0
	bne	.LBB33_22
.Ltmp487:
@ %bb.11:
	@DEBUG_VALUE: ecp_add_mixed:R <- [DW_OP_plus_uconst 8] [$sp+0]
	@DEBUG_VALUE: ecp_add_mixed:P <- $r6
	@DEBUG_VALUE: ecp_add_mixed:ret <- $r5
	@DEBUG_VALUE: ecp_add_mixed:Q <- $r4
	@DEBUG_VALUE: ecp_add_mixed:grp <- [DW_OP_plus_uconst 12] [$sp+0]
	.loc	1 0 5                           @ ../../../ThirdParty/mbedTLS/library/ecp.c:0:5
	ldr	r1, __arm_cp.33_2
	.loc	1 1441 5                        @ ../../../ThirdParty/mbedTLS/library/ecp.c:1441:5
	ldr	r0, [r1]
	adds	r0, r0, #1
	str	r0, [r1]
	add	r0, sp, #88
.Ltmp488:
	.loc	1 1442 5 is_stmt 1              @ ../../../ThirdParty/mbedTLS/library/ecp.c:1442:5
	mov	r1, r0
	mov	r2, r4
	bl	mbedtls_mpi_mul_mpi
	mov	r5, r0
.Ltmp489:
	@DEBUG_VALUE: ecp_add_mixed:ret <- $r5
	.loc	1 1442 5 is_stmt 0              @ ../../../ThirdParty/mbedTLS/library/ecp.c:1442:5
	cmp	r0, #0
	bne	.LBB33_22
.Ltmp490:
@ %bb.12:
	@DEBUG_VALUE: ecp_add_mixed:R <- [DW_OP_plus_uconst 8] [$sp+0]
	@DEBUG_VALUE: ecp_add_mixed:P <- $r6
	@DEBUG_VALUE: ecp_add_mixed:ret <- $r5
	@DEBUG_VALUE: ecp_add_mixed:Q <- $r4
	@DEBUG_VALUE: ecp_add_mixed:grp <- [DW_OP_plus_uconst 12] [$sp+0]
	.loc	1 0 5                           @ ../../../ThirdParty/mbedTLS/library/ecp.c:0:5
	add	r0, sp, #88
.Ltmp491:
	.loc	1 1443 5 is_stmt 1              @ ../../../ThirdParty/mbedTLS/library/ecp.c:1443:5
	ldr	r1, [sp, #12]                   @ 4-byte Reload
	bl	ecp_modp
	mov	r5, r0
.Ltmp492:
	@DEBUG_VALUE: ecp_add_mixed:ret <- $r5
	.loc	1 1443 5 is_stmt 0              @ ../../../ThirdParty/mbedTLS/library/ecp.c:1443:5
	cmp	r0, #0
	bne	.LBB33_22
.Ltmp493:
@ %bb.13:
	@DEBUG_VALUE: ecp_add_mixed:R <- [DW_OP_plus_uconst 8] [$sp+0]
	@DEBUG_VALUE: ecp_add_mixed:P <- $r6
	@DEBUG_VALUE: ecp_add_mixed:ret <- $r5
	@DEBUG_VALUE: ecp_add_mixed:Q <- $r4
	@DEBUG_VALUE: ecp_add_mixed:grp <- [DW_OP_plus_uconst 12] [$sp+0]
	.loc	1 0 5                           @ ../../../ThirdParty/mbedTLS/library/ecp.c:0:5
	ldr	r1, __arm_cp.33_2
	.loc	1 1443 5                        @ ../../../ThirdParty/mbedTLS/library/ecp.c:1443:5
	ldr	r0, [r1]
	adds	r0, r0, #1
	str	r0, [r1]
.Ltmp494:
	.loc	1 1444 5 is_stmt 1              @ ../../../ThirdParty/mbedTLS/library/ecp.c:1444:5
	adds	r4, #12
.Ltmp495:
	.loc	1 0 5 is_stmt 0                 @ ../../../ThirdParty/mbedTLS/library/ecp.c:0:5
	add	r0, sp, #76
	.loc	1 1444 5                        @ ../../../ThirdParty/mbedTLS/library/ecp.c:1444:5
	mov	r1, r0
	mov	r2, r4
	bl	mbedtls_mpi_mul_mpi
	mov	r5, r0
.Ltmp496:
	@DEBUG_VALUE: ecp_add_mixed:ret <- $r5
	.loc	1 1444 5                        @ ../../../ThirdParty/mbedTLS/library/ecp.c:1444:5
	cbnz	r0, .LBB33_22
.Ltmp497:
@ %bb.14:
	@DEBUG_VALUE: ecp_add_mixed:R <- [DW_OP_plus_uconst 8] [$sp+0]
	@DEBUG_VALUE: ecp_add_mixed:P <- $r6
	@DEBUG_VALUE: ecp_add_mixed:ret <- $r5
	@DEBUG_VALUE: ecp_add_mixed:grp <- [DW_OP_plus_uconst 12] [$sp+0]
	.loc	1 0 5                           @ ../../../ThirdParty/mbedTLS/library/ecp.c:0:5
	add	r0, sp, #76
.Ltmp498:
	.loc	1 1445 5 is_stmt 1              @ ../../../ThirdParty/mbedTLS/library/ecp.c:1445:5
	ldr	r1, [sp, #12]                   @ 4-byte Reload
	bl	ecp_modp
	mov	r5, r0
.Ltmp499:
	@DEBUG_VALUE: ecp_add_mixed:ret <- $r5
	.loc	1 1445 5 is_stmt 0              @ ../../../ThirdParty/mbedTLS/library/ecp.c:1445:5
	cbnz	r0, .LBB33_22
.Ltmp500:
@ %bb.15:
	@DEBUG_VALUE: ecp_add_mixed:R <- [DW_OP_plus_uconst 8] [$sp+0]
	@DEBUG_VALUE: ecp_add_mixed:P <- $r6
	@DEBUG_VALUE: ecp_add_mixed:ret <- $r5
	@DEBUG_VALUE: ecp_add_mixed:grp <- [DW_OP_plus_uconst 12] [$sp+0]
	.loc	1 0 5                           @ ../../../ThirdParty/mbedTLS/library/ecp.c:0:5
	ldr	r1, __arm_cp.33_2
	.loc	1 1445 5                        @ ../../../ThirdParty/mbedTLS/library/ecp.c:1445:5
	ldr	r0, [r1]
	adds	r0, r0, #1
	str	r0, [r1]
	add	r0, sp, #88
.Ltmp501:
	.loc	1 1446 5 is_stmt 1              @ ../../../ThirdParty/mbedTLS/library/ecp.c:1446:5
	mov	r1, r0
	mov	r2, r6
	bl	mbedtls_mpi_sub_mpi
	mov	r5, r0
.Ltmp502:
	@DEBUG_VALUE: ecp_add_mixed:ret <- $r5
	.loc	1 1446 5 is_stmt 0              @ ../../../ThirdParty/mbedTLS/library/ecp.c:1446:5
	cbnz	r0, .LBB33_22
.Ltmp503:
@ %bb.16:
	@DEBUG_VALUE: ecp_add_mixed:R <- [DW_OP_plus_uconst 8] [$sp+0]
	@DEBUG_VALUE: ecp_add_mixed:P <- $r6
	@DEBUG_VALUE: ecp_add_mixed:ret <- $r5
	@DEBUG_VALUE: ecp_add_mixed:grp <- [DW_OP_plus_uconst 12] [$sp+0]
	.loc	1 0 0                           @ ../../../ThirdParty/mbedTLS/library/ecp.c:0:0
	ldr	r0, [sp, #12]                   @ 4-byte Reload
	adds	r0, r0, #4
	str	r0, [sp, #4]                    @ 4-byte Spill
	movs	r4, #0
.Ltmp504:
.LBB33_17:                              @ =>This Inner Loop Header: Depth=1
	@DEBUG_VALUE: ecp_add_mixed:R <- [DW_OP_plus_uconst 8] [$sp+0]
	@DEBUG_VALUE: ecp_add_mixed:P <- $r6
	@DEBUG_VALUE: ecp_add_mixed:ret <- $r5
	@DEBUG_VALUE: ecp_add_mixed:grp <- [DW_OP_plus_uconst 12] [$sp+0]
	.loc	1 1447 5 is_stmt 1              @ ../../../ThirdParty/mbedTLS/library/ecp.c:1447:5
	ldr	r0, [sp, #88]
	cmp	r0, #0
	bpl	.LBB33_21
.Ltmp505:
@ %bb.18:                               @   in Loop: Header=BB33_17 Depth=1
	@DEBUG_VALUE: ecp_add_mixed:R <- [DW_OP_plus_uconst 8] [$sp+0]
	@DEBUG_VALUE: ecp_add_mixed:P <- $r6
	@DEBUG_VALUE: ecp_add_mixed:ret <- $r5
	@DEBUG_VALUE: ecp_add_mixed:grp <- [DW_OP_plus_uconst 12] [$sp+0]
	.loc	1 0 5 is_stmt 0                 @ ../../../ThirdParty/mbedTLS/library/ecp.c:0:5
	add	r0, sp, #88
	.loc	1 1447 5                        @ ../../../ThirdParty/mbedTLS/library/ecp.c:1447:5
	mov	r1, r4
	bl	mbedtls_mpi_cmp_int
	cbz	r0, .LBB33_21
.Ltmp506:
@ %bb.19:                               @   in Loop: Header=BB33_17 Depth=1
	@DEBUG_VALUE: ecp_add_mixed:R <- [DW_OP_plus_uconst 8] [$sp+0]
	@DEBUG_VALUE: ecp_add_mixed:P <- $r6
	@DEBUG_VALUE: ecp_add_mixed:ret <- $r5
	@DEBUG_VALUE: ecp_add_mixed:grp <- [DW_OP_plus_uconst 12] [$sp+0]
	.loc	1 0 5                           @ ../../../ThirdParty/mbedTLS/library/ecp.c:0:5
	add	r0, sp, #88
.Ltmp507:
	.loc	1 1447 5                        @ ../../../ThirdParty/mbedTLS/library/ecp.c:1447:5
	mov	r1, r0
	ldr	r2, [sp, #4]                    @ 4-byte Reload
	bl	mbedtls_mpi_add_mpi
	mov	r5, r0
.Ltmp508:
	@DEBUG_VALUE: ecp_add_mixed:ret <- $r5
	.loc	1 1447 5                        @ ../../../ThirdParty/mbedTLS/library/ecp.c:1447:5
	cmp	r0, #0
	beq	.LBB33_17
	b	.LBB33_22
.Ltmp509:
.LBB33_20:
	@DEBUG_VALUE: ecp_add_mixed:R <- [DW_OP_plus_uconst 8] [$sp+0]
	@DEBUG_VALUE: ecp_add_mixed:P <- $r6
	@DEBUG_VALUE: ecp_add_mixed:Q <- $r4
	@DEBUG_VALUE: ecp_add_mixed:grp <- [DW_OP_plus_uconst 12] [$sp+0]
	.loc	1 1422 17 is_stmt 1             @ ../../../ThirdParty/mbedTLS/library/ecp.c:1422:17
	ldr	r0, [sp, #8]                    @ 4-byte Reload
.Ltmp510:
	@DEBUG_VALUE: ecp_add_mixed:R <- $r0
	mov	r1, r6
	bl	mbedtls_ecp_copy
.Ltmp511:
	mov	r5, r0
	.loc	1 1422 9 is_stmt 0              @ ../../../ThirdParty/mbedTLS/library/ecp.c:1422:9
	b	.LBB33_23
.Ltmp512:
.LBB33_21:
	@DEBUG_VALUE: ecp_add_mixed:R <- [DW_OP_plus_uconst 8] [$sp+0]
	@DEBUG_VALUE: ecp_add_mixed:P <- $r6
	@DEBUG_VALUE: ecp_add_mixed:ret <- $r5
	@DEBUG_VALUE: ecp_add_mixed:grp <- [DW_OP_plus_uconst 12] [$sp+0]
	.loc	1 1448 5 is_stmt 1              @ ../../../ThirdParty/mbedTLS/library/ecp.c:1448:5
	mov	r2, r6
	adds	r2, #12
	add	r0, sp, #76
	mov	r1, r0
	str	r2, [sp]                        @ 4-byte Spill
	bl	mbedtls_mpi_sub_mpi
	mov	r5, r0
.Ltmp513:
	@DEBUG_VALUE: ecp_add_mixed:ret <- $r5
	.loc	1 1448 5 is_stmt 0              @ ../../../ThirdParty/mbedTLS/library/ecp.c:1448:5
	cbz	r0, .LBB33_24
.Ltmp514:
.LBB33_22:
	@DEBUG_VALUE: ecp_add_mixed:P <- $r6
	@DEBUG_VALUE: ecp_add_mixed:ret <- $r5
	@DEBUG_VALUE: ecp_add_mixed:grp <- [DW_OP_plus_uconst 12] [$sp+0]
	@DEBUG_VALUE: ecp_add_mixed:ret <- $r5
	@DEBUG_LABEL: ecp_add_mixed:cleanup
	.loc	1 0 5                           @ ../../../ThirdParty/mbedTLS/library/ecp.c:0:5
	add	r0, sp, #88
	.loc	1 1497 5 is_stmt 1              @ ../../../ThirdParty/mbedTLS/library/ecp.c:1497:5
	bl	mbedtls_mpi_free
	add	r0, sp, #76
	.loc	1 1498 5                        @ ../../../ThirdParty/mbedTLS/library/ecp.c:1498:5
	bl	mbedtls_mpi_free
	add	r0, sp, #64
	.loc	1 1499 5                        @ ../../../ThirdParty/mbedTLS/library/ecp.c:1499:5
	bl	mbedtls_mpi_free
	add	r0, sp, #52
	.loc	1 1500 5                        @ ../../../ThirdParty/mbedTLS/library/ecp.c:1500:5
	bl	mbedtls_mpi_free
	add	r0, sp, #40
	.loc	1 1501 5                        @ ../../../ThirdParty/mbedTLS/library/ecp.c:1501:5
	bl	mbedtls_mpi_free
	add	r0, sp, #28
	.loc	1 1502 5                        @ ../../../ThirdParty/mbedTLS/library/ecp.c:1502:5
	bl	mbedtls_mpi_free
	add	r0, sp, #16
	.loc	1 1503 5                        @ ../../../ThirdParty/mbedTLS/library/ecp.c:1503:5
	bl	mbedtls_mpi_free
.Ltmp515:
.LBB33_23:
	@DEBUG_VALUE: ecp_add_mixed:P <- $r6
	@DEBUG_VALUE: ecp_add_mixed:grp <- [DW_OP_plus_uconst 12] [$sp+0]
	.loc	1 1506 1                        @ ../../../ThirdParty/mbedTLS/library/ecp.c:1506:1
	mov	r0, r5
	add	sp, #100
.Ltmp516:
	pop	{r4, r5, r6, r7, pc}
.Ltmp517:
.LBB33_24:
	@DEBUG_VALUE: ecp_add_mixed:R <- [DW_OP_plus_uconst 8] [$sp+0]
	@DEBUG_VALUE: ecp_add_mixed:P <- $r6
	@DEBUG_VALUE: ecp_add_mixed:ret <- $r5
	@DEBUG_VALUE: ecp_add_mixed:grp <- [DW_OP_plus_uconst 12] [$sp+0]
	.loc	1 0 1 is_stmt 0                 @ ../../../ThirdParty/mbedTLS/library/ecp.c:0:1
	movs	r4, #0
.Ltmp518:
.LBB33_25:                              @ =>This Inner Loop Header: Depth=1
	@DEBUG_VALUE: ecp_add_mixed:R <- [DW_OP_plus_uconst 8] [$sp+0]
	@DEBUG_VALUE: ecp_add_mixed:P <- $r6
	@DEBUG_VALUE: ecp_add_mixed:ret <- $r5
	@DEBUG_VALUE: ecp_add_mixed:grp <- [DW_OP_plus_uconst 12] [$sp+0]
	.loc	1 1449 5 is_stmt 1              @ ../../../ThirdParty/mbedTLS/library/ecp.c:1449:5
	ldr	r0, [sp, #76]
	cmp	r0, #0
	bpl	.LBB33_28
.Ltmp519:
@ %bb.26:                               @   in Loop: Header=BB33_25 Depth=1
	@DEBUG_VALUE: ecp_add_mixed:R <- [DW_OP_plus_uconst 8] [$sp+0]
	@DEBUG_VALUE: ecp_add_mixed:P <- $r6
	@DEBUG_VALUE: ecp_add_mixed:ret <- $r5
	@DEBUG_VALUE: ecp_add_mixed:grp <- [DW_OP_plus_uconst 12] [$sp+0]
	.loc	1 0 5 is_stmt 0                 @ ../../../ThirdParty/mbedTLS/library/ecp.c:0:5
	add	r0, sp, #76
	.loc	1 1449 5                        @ ../../../ThirdParty/mbedTLS/library/ecp.c:1449:5
	mov	r1, r4
	bl	mbedtls_mpi_cmp_int
	cbz	r0, .LBB33_28
.Ltmp520:
@ %bb.27:                               @   in Loop: Header=BB33_25 Depth=1
	@DEBUG_VALUE: ecp_add_mixed:R <- [DW_OP_plus_uconst 8] [$sp+0]
	@DEBUG_VALUE: ecp_add_mixed:P <- $r6
	@DEBUG_VALUE: ecp_add_mixed:ret <- $r5
	@DEBUG_VALUE: ecp_add_mixed:grp <- [DW_OP_plus_uconst 12] [$sp+0]
	.loc	1 0 5                           @ ../../../ThirdParty/mbedTLS/library/ecp.c:0:5
	add	r0, sp, #76
.Ltmp521:
	.loc	1 1449 5                        @ ../../../ThirdParty/mbedTLS/library/ecp.c:1449:5
	mov	r1, r0
	ldr	r2, [sp, #4]                    @ 4-byte Reload
	bl	mbedtls_mpi_add_mpi
	mov	r5, r0
.Ltmp522:
	@DEBUG_VALUE: ecp_add_mixed:ret <- $r5
	.loc	1 1449 5                        @ ../../../ThirdParty/mbedTLS/library/ecp.c:1449:5
	cmp	r0, #0
	beq	.LBB33_25
	b	.LBB33_22
.Ltmp523:
.LBB33_28:
	@DEBUG_VALUE: ecp_add_mixed:R <- [DW_OP_plus_uconst 8] [$sp+0]
	@DEBUG_VALUE: ecp_add_mixed:P <- $r6
	@DEBUG_VALUE: ecp_add_mixed:ret <- $r5
	@DEBUG_VALUE: ecp_add_mixed:grp <- [DW_OP_plus_uconst 12] [$sp+0]
	.loc	1 0 5                           @ ../../../ThirdParty/mbedTLS/library/ecp.c:0:5
	add	r0, sp, #88
	movs	r1, #0
.Ltmp524:
	.loc	1 1452 9 is_stmt 1              @ ../../../ThirdParty/mbedTLS/library/ecp.c:1452:9
	bl	mbedtls_mpi_cmp_int
.Ltmp525:
	.loc	1 1452 9 is_stmt 0              @ ../../../ThirdParty/mbedTLS/library/ecp.c:1452:9
	cmp	r0, #0
	beq	.LBB33_41
.Ltmp526:
@ %bb.29:
	@DEBUG_VALUE: ecp_add_mixed:R <- [DW_OP_plus_uconst 8] [$sp+0]
	@DEBUG_VALUE: ecp_add_mixed:P <- $r6
	@DEBUG_VALUE: ecp_add_mixed:ret <- $r5
	@DEBUG_VALUE: ecp_add_mixed:grp <- [DW_OP_plus_uconst 12] [$sp+0]
	.loc	1 0 9                           @ ../../../ThirdParty/mbedTLS/library/ecp.c:0:9
	add	r0, sp, #16
	add	r2, sp, #88
.Ltmp527:
	.loc	1 1466 5 is_stmt 1              @ ../../../ThirdParty/mbedTLS/library/ecp.c:1466:5
	mov	r1, r7
	bl	mbedtls_mpi_mul_mpi
	mov	r5, r0
.Ltmp528:
	@DEBUG_VALUE: ecp_add_mixed:ret <- $r5
	.loc	1 1466 5 is_stmt 0              @ ../../../ThirdParty/mbedTLS/library/ecp.c:1466:5
	cmp	r0, #0
	bne	.LBB33_22
.Ltmp529:
@ %bb.30:
	@DEBUG_VALUE: ecp_add_mixed:R <- [DW_OP_plus_uconst 8] [$sp+0]
	@DEBUG_VALUE: ecp_add_mixed:P <- $r6
	@DEBUG_VALUE: ecp_add_mixed:ret <- $r5
	@DEBUG_VALUE: ecp_add_mixed:grp <- [DW_OP_plus_uconst 12] [$sp+0]
	.loc	1 0 5                           @ ../../../ThirdParty/mbedTLS/library/ecp.c:0:5
	add	r0, sp, #16
.Ltmp530:
	.loc	1 1467 5 is_stmt 1              @ ../../../ThirdParty/mbedTLS/library/ecp.c:1467:5
	ldr	r1, [sp, #12]                   @ 4-byte Reload
	bl	ecp_modp
	mov	r5, r0
.Ltmp531:
	@DEBUG_VALUE: ecp_add_mixed:ret <- $r5
	.loc	1 1467 5 is_stmt 0              @ ../../../ThirdParty/mbedTLS/library/ecp.c:1467:5
	cmp	r0, #0
	bne	.LBB33_22
.Ltmp532:
@ %bb.31:
	@DEBUG_VALUE: ecp_add_mixed:R <- [DW_OP_plus_uconst 8] [$sp+0]
	@DEBUG_VALUE: ecp_add_mixed:P <- $r6
	@DEBUG_VALUE: ecp_add_mixed:ret <- $r5
	@DEBUG_VALUE: ecp_add_mixed:grp <- [DW_OP_plus_uconst 12] [$sp+0]
	.loc	1 0 5                           @ ../../../ThirdParty/mbedTLS/library/ecp.c:0:5
	ldr	r1, __arm_cp.33_2
	.loc	1 1467 5                        @ ../../../ThirdParty/mbedTLS/library/ecp.c:1467:5
	ldr	r0, [r1]
	adds	r0, r0, #1
	str	r0, [r1]
	add	r0, sp, #64
	add	r1, sp, #88
.Ltmp533:
	.loc	1 1468 5 is_stmt 1              @ ../../../ThirdParty/mbedTLS/library/ecp.c:1468:5
	mov	r2, r1
	bl	mbedtls_mpi_mul_mpi
	mov	r5, r0
.Ltmp534:
	@DEBUG_VALUE: ecp_add_mixed:ret <- $r5
	.loc	1 1468 5 is_stmt 0              @ ../../../ThirdParty/mbedTLS/library/ecp.c:1468:5
	cmp	r0, #0
	bne	.LBB33_22
.Ltmp535:
@ %bb.32:
	@DEBUG_VALUE: ecp_add_mixed:R <- [DW_OP_plus_uconst 8] [$sp+0]
	@DEBUG_VALUE: ecp_add_mixed:P <- $r6
	@DEBUG_VALUE: ecp_add_mixed:ret <- $r5
	@DEBUG_VALUE: ecp_add_mixed:grp <- [DW_OP_plus_uconst 12] [$sp+0]
	.loc	1 0 5                           @ ../../../ThirdParty/mbedTLS/library/ecp.c:0:5
	add	r0, sp, #64
.Ltmp536:
	.loc	1 1469 5 is_stmt 1              @ ../../../ThirdParty/mbedTLS/library/ecp.c:1469:5
	ldr	r1, [sp, #12]                   @ 4-byte Reload
	bl	ecp_modp
	mov	r5, r0
.Ltmp537:
	@DEBUG_VALUE: ecp_add_mixed:ret <- $r5
	.loc	1 1469 5 is_stmt 0              @ ../../../ThirdParty/mbedTLS/library/ecp.c:1469:5
	cmp	r0, #0
	bne	.LBB33_22
.Ltmp538:
@ %bb.33:
	@DEBUG_VALUE: ecp_add_mixed:R <- [DW_OP_plus_uconst 8] [$sp+0]
	@DEBUG_VALUE: ecp_add_mixed:P <- $r6
	@DEBUG_VALUE: ecp_add_mixed:ret <- $r5
	@DEBUG_VALUE: ecp_add_mixed:grp <- [DW_OP_plus_uconst 12] [$sp+0]
	.loc	1 0 5                           @ ../../../ThirdParty/mbedTLS/library/ecp.c:0:5
	ldr	r1, __arm_cp.33_2
	.loc	1 1469 5                        @ ../../../ThirdParty/mbedTLS/library/ecp.c:1469:5
	ldr	r0, [r1]
	adds	r0, r0, #1
	str	r0, [r1]
	add	r0, sp, #52
	add	r1, sp, #64
	add	r2, sp, #88
.Ltmp539:
	.loc	1 1470 5 is_stmt 1              @ ../../../ThirdParty/mbedTLS/library/ecp.c:1470:5
	bl	mbedtls_mpi_mul_mpi
	mov	r5, r0
.Ltmp540:
	@DEBUG_VALUE: ecp_add_mixed:ret <- $r5
	.loc	1 1470 5 is_stmt 0              @ ../../../ThirdParty/mbedTLS/library/ecp.c:1470:5
	cmp	r0, #0
	bne	.LBB33_22
.Ltmp541:
@ %bb.34:
	@DEBUG_VALUE: ecp_add_mixed:R <- [DW_OP_plus_uconst 8] [$sp+0]
	@DEBUG_VALUE: ecp_add_mixed:P <- $r6
	@DEBUG_VALUE: ecp_add_mixed:ret <- $r5
	@DEBUG_VALUE: ecp_add_mixed:grp <- [DW_OP_plus_uconst 12] [$sp+0]
	.loc	1 0 5                           @ ../../../ThirdParty/mbedTLS/library/ecp.c:0:5
	add	r0, sp, #52
.Ltmp542:
	.loc	1 1471 5 is_stmt 1              @ ../../../ThirdParty/mbedTLS/library/ecp.c:1471:5
	ldr	r1, [sp, #12]                   @ 4-byte Reload
	bl	ecp_modp
	mov	r5, r0
.Ltmp543:
	@DEBUG_VALUE: ecp_add_mixed:ret <- $r5
	.loc	1 1471 5 is_stmt 0              @ ../../../ThirdParty/mbedTLS/library/ecp.c:1471:5
	cmp	r0, #0
	bne	.LBB33_22
.Ltmp544:
@ %bb.35:
	@DEBUG_VALUE: ecp_add_mixed:R <- [DW_OP_plus_uconst 8] [$sp+0]
	@DEBUG_VALUE: ecp_add_mixed:P <- $r6
	@DEBUG_VALUE: ecp_add_mixed:ret <- $r5
	@DEBUG_VALUE: ecp_add_mixed:grp <- [DW_OP_plus_uconst 12] [$sp+0]
	.loc	1 0 5                           @ ../../../ThirdParty/mbedTLS/library/ecp.c:0:5
	ldr	r1, __arm_cp.33_2
	.loc	1 1471 5                        @ ../../../ThirdParty/mbedTLS/library/ecp.c:1471:5
	ldr	r0, [r1]
	adds	r0, r0, #1
	str	r0, [r1]
	add	r0, sp, #64
.Ltmp545:
	.loc	1 1472 5 is_stmt 1              @ ../../../ThirdParty/mbedTLS/library/ecp.c:1472:5
	mov	r1, r0
	mov	r2, r6
	bl	mbedtls_mpi_mul_mpi
	mov	r5, r0
.Ltmp546:
	@DEBUG_VALUE: ecp_add_mixed:ret <- $r5
	.loc	1 1472 5 is_stmt 0              @ ../../../ThirdParty/mbedTLS/library/ecp.c:1472:5
	cmp	r0, #0
	bne	.LBB33_22
.Ltmp547:
@ %bb.36:
	@DEBUG_VALUE: ecp_add_mixed:R <- [DW_OP_plus_uconst 8] [$sp+0]
	@DEBUG_VALUE: ecp_add_mixed:P <- $r6
	@DEBUG_VALUE: ecp_add_mixed:ret <- $r5
	@DEBUG_VALUE: ecp_add_mixed:grp <- [DW_OP_plus_uconst 12] [$sp+0]
	.loc	1 0 5                           @ ../../../ThirdParty/mbedTLS/library/ecp.c:0:5
	add	r0, sp, #64
.Ltmp548:
	.loc	1 1473 5 is_stmt 1              @ ../../../ThirdParty/mbedTLS/library/ecp.c:1473:5
	ldr	r1, [sp, #12]                   @ 4-byte Reload
	bl	ecp_modp
	mov	r5, r0
.Ltmp549:
	@DEBUG_VALUE: ecp_add_mixed:ret <- $r5
	.loc	1 1473 5 is_stmt 0              @ ../../../ThirdParty/mbedTLS/library/ecp.c:1473:5
	cmp	r0, #0
	bne	.LBB33_22
.Ltmp550:
@ %bb.37:
	@DEBUG_VALUE: ecp_add_mixed:R <- [DW_OP_plus_uconst 8] [$sp+0]
	@DEBUG_VALUE: ecp_add_mixed:P <- $r6
	@DEBUG_VALUE: ecp_add_mixed:ret <- $r5
	@DEBUG_VALUE: ecp_add_mixed:grp <- [DW_OP_plus_uconst 12] [$sp+0]
	.loc	1 0 5                           @ ../../../ThirdParty/mbedTLS/library/ecp.c:0:5
	ldr	r1, __arm_cp.33_2
	.loc	1 1473 5                        @ ../../../ThirdParty/mbedTLS/library/ecp.c:1473:5
	ldr	r0, [r1]
	adds	r0, r0, #1
	str	r0, [r1]
	add	r0, sp, #88
	add	r1, sp, #64
	movs	r2, #2
.Ltmp551:
	.loc	1 1474 5 is_stmt 1              @ ../../../ThirdParty/mbedTLS/library/ecp.c:1474:5
	bl	mbedtls_mpi_mul_int
.Ltmp552:
.LBB33_38:                              @ =>This Inner Loop Header: Depth=1
	@DEBUG_VALUE: ecp_add_mixed:R <- [DW_OP_plus_uconst 8] [$sp+0]
	@DEBUG_VALUE: ecp_add_mixed:P <- $r6
	@DEBUG_VALUE: ecp_add_mixed:ret <- $r5
	@DEBUG_VALUE: ecp_add_mixed:grp <- [DW_OP_plus_uconst 12] [$sp+0]
	.loc	1 0 0 is_stmt 0                 @ ../../../ThirdParty/mbedTLS/library/ecp.c:0:0
	mov	r5, r0
.Ltmp553:
	@DEBUG_VALUE: ecp_add_mixed:ret <- $r5
	cmp	r0, #0
	beq	.LBB33_39
	b	.LBB33_22
.Ltmp554:
.LBB33_39:                              @   in Loop: Header=BB33_38 Depth=1
	@DEBUG_VALUE: ecp_add_mixed:R <- [DW_OP_plus_uconst 8] [$sp+0]
	@DEBUG_VALUE: ecp_add_mixed:P <- $r6
	@DEBUG_VALUE: ecp_add_mixed:ret <- $r5
	@DEBUG_VALUE: ecp_add_mixed:grp <- [DW_OP_plus_uconst 12] [$sp+0]
	add	r0, sp, #88
	.loc	1 1475 5 is_stmt 1              @ ../../../ThirdParty/mbedTLS/library/ecp.c:1475:5
	ldr	r1, [sp, #4]                    @ 4-byte Reload
	bl	mbedtls_mpi_cmp_mpi
	cmp	r0, #0
	bmi	.LBB33_45
.Ltmp555:
@ %bb.40:                               @   in Loop: Header=BB33_38 Depth=1
	@DEBUG_VALUE: ecp_add_mixed:R <- [DW_OP_plus_uconst 8] [$sp+0]
	@DEBUG_VALUE: ecp_add_mixed:P <- $r6
	@DEBUG_VALUE: ecp_add_mixed:ret <- $r5
	@DEBUG_VALUE: ecp_add_mixed:grp <- [DW_OP_plus_uconst 12] [$sp+0]
	.loc	1 0 5 is_stmt 0                 @ ../../../ThirdParty/mbedTLS/library/ecp.c:0:5
	add	r0, sp, #88
.Ltmp556:
	.loc	1 1475 5                        @ ../../../ThirdParty/mbedTLS/library/ecp.c:1475:5
	mov	r1, r0
	ldr	r2, [sp, #4]                    @ 4-byte Reload
	bl	mbedtls_mpi_sub_abs
	b	.LBB33_38
.Ltmp557:
.LBB33_41:
	@DEBUG_VALUE: ecp_add_mixed:R <- [DW_OP_plus_uconst 8] [$sp+0]
	@DEBUG_VALUE: ecp_add_mixed:P <- $r6
	@DEBUG_VALUE: ecp_add_mixed:ret <- $r5
	@DEBUG_VALUE: ecp_add_mixed:grp <- [DW_OP_plus_uconst 12] [$sp+0]
	.loc	1 0 5                           @ ../../../ThirdParty/mbedTLS/library/ecp.c:0:5
	add	r0, sp, #76
	movs	r1, #0
.Ltmp558:
	.loc	1 1454 13 is_stmt 1             @ ../../../ThirdParty/mbedTLS/library/ecp.c:1454:13
	bl	mbedtls_mpi_cmp_int
.Ltmp559:
	.loc	1 1454 13 is_stmt 0             @ ../../../ThirdParty/mbedTLS/library/ecp.c:1454:13
	cbz	r0, .LBB33_43
.Ltmp560:
@ %bb.42:
	@DEBUG_VALUE: ecp_add_mixed:R <- [DW_OP_plus_uconst 8] [$sp+0]
	@DEBUG_VALUE: ecp_add_mixed:P <- $r6
	@DEBUG_VALUE: ecp_add_mixed:ret <- $r5
	@DEBUG_VALUE: ecp_add_mixed:grp <- [DW_OP_plus_uconst 12] [$sp+0]
	.loc	1 1461 19 is_stmt 1             @ ../../../ThirdParty/mbedTLS/library/ecp.c:1461:19
	ldr	r0, [sp, #8]                    @ 4-byte Reload
.Ltmp561:
	@DEBUG_VALUE: ecp_add_mixed:R <- $r0
	bl	mbedtls_ecp_set_zero
.Ltmp562:
	.loc	1 0 19 is_stmt 0                @ ../../../ThirdParty/mbedTLS/library/ecp.c:0:19
	b	.LBB33_44
.Ltmp563:
.LBB33_43:
	@DEBUG_VALUE: ecp_add_mixed:R <- [DW_OP_plus_uconst 8] [$sp+0]
	@DEBUG_VALUE: ecp_add_mixed:P <- $r6
	@DEBUG_VALUE: ecp_add_mixed:ret <- $r5
	@DEBUG_VALUE: ecp_add_mixed:grp <- [DW_OP_plus_uconst 12] [$sp+0]
	.loc	1 1456 19 is_stmt 1             @ ../../../ThirdParty/mbedTLS/library/ecp.c:1456:19
	ldr	r0, [sp, #12]                   @ 4-byte Reload
	ldr	r1, [sp, #8]                    @ 4-byte Reload
.Ltmp564:
	@DEBUG_VALUE: ecp_add_mixed:R <- $r1
	mov	r2, r6
	bl	ecp_double_jac
.Ltmp565:
.LBB33_44:
	@DEBUG_VALUE: ecp_add_mixed:P <- $r6
	@DEBUG_VALUE: ecp_add_mixed:ret <- $r5
	@DEBUG_VALUE: ecp_add_mixed:grp <- [DW_OP_plus_uconst 12] [$sp+0]
	.loc	1 0 0 is_stmt 0                 @ ../../../ThirdParty/mbedTLS/library/ecp.c:0:0
	mov	r5, r0
.Ltmp566:
	@DEBUG_VALUE: ecp_add_mixed:ret <- $r5
	b	.LBB33_22
.Ltmp567:
.LBB33_45:
	@DEBUG_VALUE: ecp_add_mixed:R <- [DW_OP_plus_uconst 8] [$sp+0]
	@DEBUG_VALUE: ecp_add_mixed:P <- $r6
	@DEBUG_VALUE: ecp_add_mixed:ret <- $r5
	@DEBUG_VALUE: ecp_add_mixed:grp <- [DW_OP_plus_uconst 12] [$sp+0]
	add	r0, sp, #40
	add	r1, sp, #76
.Ltmp568:
	.loc	1 1476 5 is_stmt 1              @ ../../../ThirdParty/mbedTLS/library/ecp.c:1476:5
	mov	r2, r1
	bl	mbedtls_mpi_mul_mpi
	mov	r5, r0
.Ltmp569:
	@DEBUG_VALUE: ecp_add_mixed:ret <- $r5
	.loc	1 1476 5 is_stmt 0              @ ../../../ThirdParty/mbedTLS/library/ecp.c:1476:5
	cmp	r0, #0
	beq	.LBB33_46
	b	.LBB33_22
.Ltmp570:
.LBB33_46:
	@DEBUG_VALUE: ecp_add_mixed:R <- [DW_OP_plus_uconst 8] [$sp+0]
	@DEBUG_VALUE: ecp_add_mixed:P <- $r6
	@DEBUG_VALUE: ecp_add_mixed:ret <- $r5
	@DEBUG_VALUE: ecp_add_mixed:grp <- [DW_OP_plus_uconst 12] [$sp+0]
	.loc	1 0 5                           @ ../../../ThirdParty/mbedTLS/library/ecp.c:0:5
	add	r0, sp, #40
.Ltmp571:
	.loc	1 1477 5 is_stmt 1              @ ../../../ThirdParty/mbedTLS/library/ecp.c:1477:5
	ldr	r1, [sp, #12]                   @ 4-byte Reload
	bl	ecp_modp
	mov	r5, r0
.Ltmp572:
	@DEBUG_VALUE: ecp_add_mixed:ret <- $r5
	.loc	1 1477 5 is_stmt 0              @ ../../../ThirdParty/mbedTLS/library/ecp.c:1477:5
	cmp	r0, #0
	beq	.LBB33_47
	b	.LBB33_22
.Ltmp573:
.LBB33_47:
	@DEBUG_VALUE: ecp_add_mixed:R <- [DW_OP_plus_uconst 8] [$sp+0]
	@DEBUG_VALUE: ecp_add_mixed:P <- $r6
	@DEBUG_VALUE: ecp_add_mixed:ret <- $r5
	@DEBUG_VALUE: ecp_add_mixed:grp <- [DW_OP_plus_uconst 12] [$sp+0]
	.loc	1 0 5                           @ ../../../ThirdParty/mbedTLS/library/ecp.c:0:5
	ldr	r1, __arm_cp.33_2
	.loc	1 1477 5                        @ ../../../ThirdParty/mbedTLS/library/ecp.c:1477:5
	ldr	r0, [r1]
	adds	r0, r0, #1
	str	r0, [r1]
	add	r0, sp, #40
	add	r2, sp, #88
.Ltmp574:
	.loc	1 1478 5 is_stmt 1              @ ../../../ThirdParty/mbedTLS/library/ecp.c:1478:5
	mov	r1, r0
	bl	mbedtls_mpi_sub_mpi
	mov	r5, r0
.Ltmp575:
	@DEBUG_VALUE: ecp_add_mixed:ret <- $r5
	.loc	1 1478 5 is_stmt 0              @ ../../../ThirdParty/mbedTLS/library/ecp.c:1478:5
	cmp	r0, #0
	beq	.LBB33_48
	b	.LBB33_22
.Ltmp576:
.LBB33_48:
	@DEBUG_VALUE: ecp_add_mixed:R <- [DW_OP_plus_uconst 8] [$sp+0]
	@DEBUG_VALUE: ecp_add_mixed:P <- $r6
	@DEBUG_VALUE: ecp_add_mixed:ret <- $r5
	@DEBUG_VALUE: ecp_add_mixed:grp <- [DW_OP_plus_uconst 12] [$sp+0]
	.loc	1 0 5                           @ ../../../ThirdParty/mbedTLS/library/ecp.c:0:5
	movs	r4, #0
.Ltmp577:
.LBB33_49:                              @ =>This Inner Loop Header: Depth=1
	@DEBUG_VALUE: ecp_add_mixed:R <- [DW_OP_plus_uconst 8] [$sp+0]
	@DEBUG_VALUE: ecp_add_mixed:P <- $r6
	@DEBUG_VALUE: ecp_add_mixed:ret <- $r5
	@DEBUG_VALUE: ecp_add_mixed:grp <- [DW_OP_plus_uconst 12] [$sp+0]
	.loc	1 1479 5 is_stmt 1              @ ../../../ThirdParty/mbedTLS/library/ecp.c:1479:5
	ldr	r0, [sp, #40]
	cmp	r0, #0
	bpl	.LBB33_52
.Ltmp578:
@ %bb.50:                               @   in Loop: Header=BB33_49 Depth=1
	@DEBUG_VALUE: ecp_add_mixed:R <- [DW_OP_plus_uconst 8] [$sp+0]
	@DEBUG_VALUE: ecp_add_mixed:P <- $r6
	@DEBUG_VALUE: ecp_add_mixed:ret <- $r5
	@DEBUG_VALUE: ecp_add_mixed:grp <- [DW_OP_plus_uconst 12] [$sp+0]
	.loc	1 0 5 is_stmt 0                 @ ../../../ThirdParty/mbedTLS/library/ecp.c:0:5
	add	r0, sp, #40
	.loc	1 1479 5                        @ ../../../ThirdParty/mbedTLS/library/ecp.c:1479:5
	mov	r1, r4
	bl	mbedtls_mpi_cmp_int
	cbz	r0, .LBB33_52
.Ltmp579:
@ %bb.51:                               @   in Loop: Header=BB33_49 Depth=1
	@DEBUG_VALUE: ecp_add_mixed:R <- [DW_OP_plus_uconst 8] [$sp+0]
	@DEBUG_VALUE: ecp_add_mixed:P <- $r6
	@DEBUG_VALUE: ecp_add_mixed:ret <- $r5
	@DEBUG_VALUE: ecp_add_mixed:grp <- [DW_OP_plus_uconst 12] [$sp+0]
	.loc	1 0 5                           @ ../../../ThirdParty/mbedTLS/library/ecp.c:0:5
	add	r0, sp, #40
.Ltmp580:
	.loc	1 1479 5                        @ ../../../ThirdParty/mbedTLS/library/ecp.c:1479:5
	mov	r1, r0
	ldr	r2, [sp, #4]                    @ 4-byte Reload
	bl	mbedtls_mpi_add_mpi
	mov	r5, r0
.Ltmp581:
	@DEBUG_VALUE: ecp_add_mixed:ret <- $r5
	.loc	1 1479 5                        @ ../../../ThirdParty/mbedTLS/library/ecp.c:1479:5
	cmp	r0, #0
	beq	.LBB33_49
	b	.LBB33_22
.Ltmp582:
.LBB33_52:
	@DEBUG_VALUE: ecp_add_mixed:R <- [DW_OP_plus_uconst 8] [$sp+0]
	@DEBUG_VALUE: ecp_add_mixed:P <- $r6
	@DEBUG_VALUE: ecp_add_mixed:ret <- $r5
	@DEBUG_VALUE: ecp_add_mixed:grp <- [DW_OP_plus_uconst 12] [$sp+0]
	.loc	1 0 5                           @ ../../../ThirdParty/mbedTLS/library/ecp.c:0:5
	add	r0, sp, #40
	add	r2, sp, #52
.Ltmp583:
	.loc	1 1480 5 is_stmt 1              @ ../../../ThirdParty/mbedTLS/library/ecp.c:1480:5
	mov	r1, r0
	bl	mbedtls_mpi_sub_mpi
	mov	r5, r0
.Ltmp584:
	@DEBUG_VALUE: ecp_add_mixed:ret <- $r5
	.loc	1 1480 5 is_stmt 0              @ ../../../ThirdParty/mbedTLS/library/ecp.c:1480:5
	cmp	r0, #0
	beq	.LBB33_53
	b	.LBB33_22
.Ltmp585:
.LBB33_53:
	@DEBUG_VALUE: ecp_add_mixed:R <- [DW_OP_plus_uconst 8] [$sp+0]
	@DEBUG_VALUE: ecp_add_mixed:P <- $r6
	@DEBUG_VALUE: ecp_add_mixed:ret <- $r5
	@DEBUG_VALUE: ecp_add_mixed:grp <- [DW_OP_plus_uconst 12] [$sp+0]
	.loc	1 0 5                           @ ../../../ThirdParty/mbedTLS/library/ecp.c:0:5
	movs	r4, #0
.Ltmp586:
.LBB33_54:                              @ =>This Inner Loop Header: Depth=1
	@DEBUG_VALUE: ecp_add_mixed:R <- [DW_OP_plus_uconst 8] [$sp+0]
	@DEBUG_VALUE: ecp_add_mixed:P <- $r6
	@DEBUG_VALUE: ecp_add_mixed:ret <- $r5
	@DEBUG_VALUE: ecp_add_mixed:grp <- [DW_OP_plus_uconst 12] [$sp+0]
	.loc	1 1481 5 is_stmt 1              @ ../../../ThirdParty/mbedTLS/library/ecp.c:1481:5
	ldr	r0, [sp, #40]
	cmp	r0, #0
	bpl	.LBB33_57
.Ltmp587:
@ %bb.55:                               @   in Loop: Header=BB33_54 Depth=1
	@DEBUG_VALUE: ecp_add_mixed:R <- [DW_OP_plus_uconst 8] [$sp+0]
	@DEBUG_VALUE: ecp_add_mixed:P <- $r6
	@DEBUG_VALUE: ecp_add_mixed:ret <- $r5
	@DEBUG_VALUE: ecp_add_mixed:grp <- [DW_OP_plus_uconst 12] [$sp+0]
	.loc	1 0 5 is_stmt 0                 @ ../../../ThirdParty/mbedTLS/library/ecp.c:0:5
	add	r0, sp, #40
	.loc	1 1481 5                        @ ../../../ThirdParty/mbedTLS/library/ecp.c:1481:5
	mov	r1, r4
	bl	mbedtls_mpi_cmp_int
	cbz	r0, .LBB33_57
.Ltmp588:
@ %bb.56:                               @   in Loop: Header=BB33_54 Depth=1
	@DEBUG_VALUE: ecp_add_mixed:R <- [DW_OP_plus_uconst 8] [$sp+0]
	@DEBUG_VALUE: ecp_add_mixed:P <- $r6
	@DEBUG_VALUE: ecp_add_mixed:ret <- $r5
	@DEBUG_VALUE: ecp_add_mixed:grp <- [DW_OP_plus_uconst 12] [$sp+0]
	.loc	1 0 5                           @ ../../../ThirdParty/mbedTLS/library/ecp.c:0:5
	add	r0, sp, #40
.Ltmp589:
	.loc	1 1481 5                        @ ../../../ThirdParty/mbedTLS/library/ecp.c:1481:5
	mov	r1, r0
	ldr	r2, [sp, #4]                    @ 4-byte Reload
	bl	mbedtls_mpi_add_mpi
	mov	r5, r0
.Ltmp590:
	@DEBUG_VALUE: ecp_add_mixed:ret <- $r5
	.loc	1 1481 5                        @ ../../../ThirdParty/mbedTLS/library/ecp.c:1481:5
	cmp	r0, #0
	beq	.LBB33_54
	b	.LBB33_22
.Ltmp591:
.LBB33_57:
	@DEBUG_VALUE: ecp_add_mixed:R <- [DW_OP_plus_uconst 8] [$sp+0]
	@DEBUG_VALUE: ecp_add_mixed:P <- $r6
	@DEBUG_VALUE: ecp_add_mixed:ret <- $r5
	@DEBUG_VALUE: ecp_add_mixed:grp <- [DW_OP_plus_uconst 12] [$sp+0]
	.loc	1 0 5                           @ ../../../ThirdParty/mbedTLS/library/ecp.c:0:5
	add	r0, sp, #64
	add	r2, sp, #40
.Ltmp592:
	.loc	1 1482 5 is_stmt 1              @ ../../../ThirdParty/mbedTLS/library/ecp.c:1482:5
	mov	r1, r0
	bl	mbedtls_mpi_sub_mpi
	mov	r5, r0
.Ltmp593:
	@DEBUG_VALUE: ecp_add_mixed:ret <- $r5
	.loc	1 1482 5 is_stmt 0              @ ../../../ThirdParty/mbedTLS/library/ecp.c:1482:5
	cmp	r0, #0
	beq	.LBB33_58
	b	.LBB33_22
.Ltmp594:
.LBB33_58:
	@DEBUG_VALUE: ecp_add_mixed:R <- [DW_OP_plus_uconst 8] [$sp+0]
	@DEBUG_VALUE: ecp_add_mixed:P <- $r6
	@DEBUG_VALUE: ecp_add_mixed:ret <- $r5
	@DEBUG_VALUE: ecp_add_mixed:grp <- [DW_OP_plus_uconst 12] [$sp+0]
	.loc	1 0 5                           @ ../../../ThirdParty/mbedTLS/library/ecp.c:0:5
	movs	r4, #0
.Ltmp595:
.LBB33_59:                              @ =>This Inner Loop Header: Depth=1
	@DEBUG_VALUE: ecp_add_mixed:R <- [DW_OP_plus_uconst 8] [$sp+0]
	@DEBUG_VALUE: ecp_add_mixed:P <- $r6
	@DEBUG_VALUE: ecp_add_mixed:ret <- $r5
	@DEBUG_VALUE: ecp_add_mixed:grp <- [DW_OP_plus_uconst 12] [$sp+0]
	.loc	1 1483 5 is_stmt 1              @ ../../../ThirdParty/mbedTLS/library/ecp.c:1483:5
	ldr	r0, [sp, #64]
	cmp	r0, #0
	bpl	.LBB33_64
.Ltmp596:
@ %bb.60:                               @   in Loop: Header=BB33_59 Depth=1
	@DEBUG_VALUE: ecp_add_mixed:R <- [DW_OP_plus_uconst 8] [$sp+0]
	@DEBUG_VALUE: ecp_add_mixed:P <- $r6
	@DEBUG_VALUE: ecp_add_mixed:ret <- $r5
	@DEBUG_VALUE: ecp_add_mixed:grp <- [DW_OP_plus_uconst 12] [$sp+0]
	.loc	1 0 5 is_stmt 0                 @ ../../../ThirdParty/mbedTLS/library/ecp.c:0:5
	add	r0, sp, #64
	.loc	1 1483 5                        @ ../../../ThirdParty/mbedTLS/library/ecp.c:1483:5
	mov	r1, r4
	bl	mbedtls_mpi_cmp_int
	cbz	r0, .LBB33_64
.Ltmp597:
@ %bb.61:                               @   in Loop: Header=BB33_59 Depth=1
	@DEBUG_VALUE: ecp_add_mixed:R <- [DW_OP_plus_uconst 8] [$sp+0]
	@DEBUG_VALUE: ecp_add_mixed:P <- $r6
	@DEBUG_VALUE: ecp_add_mixed:ret <- $r5
	@DEBUG_VALUE: ecp_add_mixed:grp <- [DW_OP_plus_uconst 12] [$sp+0]
	.loc	1 0 5                           @ ../../../ThirdParty/mbedTLS/library/ecp.c:0:5
	add	r0, sp, #64
.Ltmp598:
	.loc	1 1483 5                        @ ../../../ThirdParty/mbedTLS/library/ecp.c:1483:5
	mov	r1, r0
	ldr	r2, [sp, #4]                    @ 4-byte Reload
	bl	mbedtls_mpi_add_mpi
	mov	r5, r0
.Ltmp599:
	@DEBUG_VALUE: ecp_add_mixed:ret <- $r5
	.loc	1 1483 5                        @ ../../../ThirdParty/mbedTLS/library/ecp.c:1483:5
	cmp	r0, #0
	beq	.LBB33_59
	b	.LBB33_22
.Ltmp600:
	.p2align	2
@ %bb.62:
	.loc	1 0 5                           @ ../../../ThirdParty/mbedTLS/library/ecp.c:0:5
__arm_cp.33_3:
	.long	add_count
.Lcpi_end23:
	.size	__arm_cp.33_3, .Lcpi_end23-__arm_cp.33_3
	.p2align	2
@ %bb.63:
__arm_cp.33_4:
	.long	4294946944                      @ 0xffffb080
.Lcpi_end24:
	.size	__arm_cp.33_4, .Lcpi_end24-__arm_cp.33_4
	.p2align	1
.LBB33_64:
.Ltmp601:
	@DEBUG_VALUE: ecp_add_mixed:R <- [DW_OP_plus_uconst 8] [$sp+0]
	@DEBUG_VALUE: ecp_add_mixed:P <- $r6
	@DEBUG_VALUE: ecp_add_mixed:ret <- $r5
	@DEBUG_VALUE: ecp_add_mixed:grp <- [DW_OP_plus_uconst 12] [$sp+0]
	add	r0, sp, #64
	add	r2, sp, #76
.Ltmp602:
	.loc	1 1484 5 is_stmt 1              @ ../../../ThirdParty/mbedTLS/library/ecp.c:1484:5
	mov	r1, r0
	bl	mbedtls_mpi_mul_mpi
	mov	r5, r0
.Ltmp603:
	@DEBUG_VALUE: ecp_add_mixed:ret <- $r5
	.loc	1 1484 5 is_stmt 0              @ ../../../ThirdParty/mbedTLS/library/ecp.c:1484:5
	cmp	r0, #0
	beq	.LBB33_65
	b	.LBB33_22
.Ltmp604:
.LBB33_65:
	@DEBUG_VALUE: ecp_add_mixed:R <- [DW_OP_plus_uconst 8] [$sp+0]
	@DEBUG_VALUE: ecp_add_mixed:P <- $r6
	@DEBUG_VALUE: ecp_add_mixed:ret <- $r5
	@DEBUG_VALUE: ecp_add_mixed:grp <- [DW_OP_plus_uconst 12] [$sp+0]
	.loc	1 0 5                           @ ../../../ThirdParty/mbedTLS/library/ecp.c:0:5
	add	r0, sp, #64
.Ltmp605:
	.loc	1 1485 5 is_stmt 1              @ ../../../ThirdParty/mbedTLS/library/ecp.c:1485:5
	ldr	r1, [sp, #12]                   @ 4-byte Reload
	bl	ecp_modp
	mov	r5, r0
.Ltmp606:
	@DEBUG_VALUE: ecp_add_mixed:ret <- $r5
	.loc	1 1485 5 is_stmt 0              @ ../../../ThirdParty/mbedTLS/library/ecp.c:1485:5
	cmp	r0, #0
	beq	.LBB33_66
	b	.LBB33_22
.Ltmp607:
.LBB33_66:
	@DEBUG_VALUE: ecp_add_mixed:R <- [DW_OP_plus_uconst 8] [$sp+0]
	@DEBUG_VALUE: ecp_add_mixed:P <- $r6
	@DEBUG_VALUE: ecp_add_mixed:ret <- $r5
	@DEBUG_VALUE: ecp_add_mixed:grp <- [DW_OP_plus_uconst 12] [$sp+0]
	.loc	1 0 5                           @ ../../../ThirdParty/mbedTLS/library/ecp.c:0:5
	ldr	r1, __arm_cp.33_2
	.loc	1 1485 5                        @ ../../../ThirdParty/mbedTLS/library/ecp.c:1485:5
	ldr	r0, [r1]
	adds	r0, r0, #1
	str	r0, [r1]
	add	r0, sp, #52
.Ltmp608:
	.loc	1 1486 5 is_stmt 1              @ ../../../ThirdParty/mbedTLS/library/ecp.c:1486:5
	mov	r1, r0
	ldr	r2, [sp]                        @ 4-byte Reload
	bl	mbedtls_mpi_mul_mpi
	mov	r5, r0
.Ltmp609:
	@DEBUG_VALUE: ecp_add_mixed:ret <- $r5
	.loc	1 1486 5 is_stmt 0              @ ../../../ThirdParty/mbedTLS/library/ecp.c:1486:5
	cmp	r0, #0
	beq	.LBB33_67
	b	.LBB33_22
.Ltmp610:
.LBB33_67:
	@DEBUG_VALUE: ecp_add_mixed:R <- [DW_OP_plus_uconst 8] [$sp+0]
	@DEBUG_VALUE: ecp_add_mixed:P <- $r6
	@DEBUG_VALUE: ecp_add_mixed:ret <- $r5
	@DEBUG_VALUE: ecp_add_mixed:grp <- [DW_OP_plus_uconst 12] [$sp+0]
	.loc	1 0 5                           @ ../../../ThirdParty/mbedTLS/library/ecp.c:0:5
	add	r0, sp, #52
.Ltmp611:
	.loc	1 1487 5 is_stmt 1              @ ../../../ThirdParty/mbedTLS/library/ecp.c:1487:5
	ldr	r1, [sp, #12]                   @ 4-byte Reload
	bl	ecp_modp
	mov	r5, r0
.Ltmp612:
	@DEBUG_VALUE: ecp_add_mixed:ret <- $r5
	.loc	1 1487 5 is_stmt 0              @ ../../../ThirdParty/mbedTLS/library/ecp.c:1487:5
	cmp	r0, #0
	beq	.LBB33_68
	b	.LBB33_22
.Ltmp613:
.LBB33_68:
	@DEBUG_VALUE: ecp_add_mixed:R <- [DW_OP_plus_uconst 8] [$sp+0]
	@DEBUG_VALUE: ecp_add_mixed:P <- $r6
	@DEBUG_VALUE: ecp_add_mixed:ret <- $r5
	@DEBUG_VALUE: ecp_add_mixed:grp <- [DW_OP_plus_uconst 12] [$sp+0]
	.loc	1 0 5                           @ ../../../ThirdParty/mbedTLS/library/ecp.c:0:5
	ldr	r1, __arm_cp.33_2
	.loc	1 1487 5                        @ ../../../ThirdParty/mbedTLS/library/ecp.c:1487:5
	ldr	r0, [r1]
	adds	r0, r0, #1
	str	r0, [r1]
	add	r0, sp, #28
	add	r1, sp, #64
	add	r2, sp, #52
.Ltmp614:
	.loc	1 1488 5 is_stmt 1              @ ../../../ThirdParty/mbedTLS/library/ecp.c:1488:5
	bl	mbedtls_mpi_sub_mpi
	mov	r5, r0
.Ltmp615:
	@DEBUG_VALUE: ecp_add_mixed:ret <- $r5
	.loc	1 1488 5 is_stmt 0              @ ../../../ThirdParty/mbedTLS/library/ecp.c:1488:5
	cmp	r0, #0
	beq	.LBB33_69
	b	.LBB33_22
.Ltmp616:
.LBB33_69:
	@DEBUG_VALUE: ecp_add_mixed:R <- [DW_OP_plus_uconst 8] [$sp+0]
	@DEBUG_VALUE: ecp_add_mixed:P <- $r6
	@DEBUG_VALUE: ecp_add_mixed:ret <- $r5
	@DEBUG_VALUE: ecp_add_mixed:grp <- [DW_OP_plus_uconst 12] [$sp+0]
	.loc	1 0 5                           @ ../../../ThirdParty/mbedTLS/library/ecp.c:0:5
	movs	r4, #0
.Ltmp617:
.LBB33_70:                              @ =>This Inner Loop Header: Depth=1
	@DEBUG_VALUE: ecp_add_mixed:R <- [DW_OP_plus_uconst 8] [$sp+0]
	@DEBUG_VALUE: ecp_add_mixed:P <- $r6
	@DEBUG_VALUE: ecp_add_mixed:ret <- $r5
	@DEBUG_VALUE: ecp_add_mixed:grp <- [DW_OP_plus_uconst 12] [$sp+0]
	.loc	1 1489 5 is_stmt 1              @ ../../../ThirdParty/mbedTLS/library/ecp.c:1489:5
	ldr	r0, [sp, #28]
	cmp	r0, #0
	bpl	.LBB33_73
.Ltmp618:
@ %bb.71:                               @   in Loop: Header=BB33_70 Depth=1
	@DEBUG_VALUE: ecp_add_mixed:R <- [DW_OP_plus_uconst 8] [$sp+0]
	@DEBUG_VALUE: ecp_add_mixed:P <- $r6
	@DEBUG_VALUE: ecp_add_mixed:ret <- $r5
	@DEBUG_VALUE: ecp_add_mixed:grp <- [DW_OP_plus_uconst 12] [$sp+0]
	.loc	1 0 5 is_stmt 0                 @ ../../../ThirdParty/mbedTLS/library/ecp.c:0:5
	add	r0, sp, #28
	.loc	1 1489 5                        @ ../../../ThirdParty/mbedTLS/library/ecp.c:1489:5
	mov	r1, r4
	bl	mbedtls_mpi_cmp_int
	cbz	r0, .LBB33_73
.Ltmp619:
@ %bb.72:                               @   in Loop: Header=BB33_70 Depth=1
	@DEBUG_VALUE: ecp_add_mixed:R <- [DW_OP_plus_uconst 8] [$sp+0]
	@DEBUG_VALUE: ecp_add_mixed:P <- $r6
	@DEBUG_VALUE: ecp_add_mixed:ret <- $r5
	@DEBUG_VALUE: ecp_add_mixed:grp <- [DW_OP_plus_uconst 12] [$sp+0]
	.loc	1 0 5                           @ ../../../ThirdParty/mbedTLS/library/ecp.c:0:5
	add	r0, sp, #28
.Ltmp620:
	.loc	1 1489 5                        @ ../../../ThirdParty/mbedTLS/library/ecp.c:1489:5
	mov	r1, r0
	ldr	r2, [sp, #4]                    @ 4-byte Reload
	bl	mbedtls_mpi_add_mpi
	mov	r5, r0
.Ltmp621:
	@DEBUG_VALUE: ecp_add_mixed:ret <- $r5
	.loc	1 1489 5                        @ ../../../ThirdParty/mbedTLS/library/ecp.c:1489:5
	cmp	r0, #0
	beq	.LBB33_70
	b	.LBB33_22
.Ltmp622:
.LBB33_73:
	@DEBUG_VALUE: ecp_add_mixed:R <- [DW_OP_plus_uconst 8] [$sp+0]
	@DEBUG_VALUE: ecp_add_mixed:P <- $r6
	@DEBUG_VALUE: ecp_add_mixed:ret <- $r5
	@DEBUG_VALUE: ecp_add_mixed:grp <- [DW_OP_plus_uconst 12] [$sp+0]
	.loc	1 0 5                           @ ../../../ThirdParty/mbedTLS/library/ecp.c:0:5
	add	r1, sp, #40
.Ltmp623:
	.loc	1 1491 5 is_stmt 1              @ ../../../ThirdParty/mbedTLS/library/ecp.c:1491:5
	ldr	r0, [sp, #8]                    @ 4-byte Reload
.Ltmp624:
	@DEBUG_VALUE: ecp_add_mixed:R <- $r0
	bl	mbedtls_mpi_copy
.Ltmp625:
	mov	r5, r0
.Ltmp626:
	@DEBUG_VALUE: ecp_add_mixed:ret <- $r5
	.loc	1 1491 5 is_stmt 0              @ ../../../ThirdParty/mbedTLS/library/ecp.c:1491:5
	cmp	r0, #0
	beq	.LBB33_74
	b	.LBB33_22
.Ltmp627:
.LBB33_74:
	@DEBUG_VALUE: ecp_add_mixed:P <- $r6
	@DEBUG_VALUE: ecp_add_mixed:ret <- $r5
	@DEBUG_VALUE: ecp_add_mixed:grp <- [DW_OP_plus_uconst 12] [$sp+0]
	.loc	1 1492 5 is_stmt 1              @ ../../../ThirdParty/mbedTLS/library/ecp.c:1492:5
	ldr	r0, [sp, #8]                    @ 4-byte Reload
	adds	r0, #12
	add	r1, sp, #28
	bl	mbedtls_mpi_copy
	mov	r5, r0
.Ltmp628:
	@DEBUG_VALUE: ecp_add_mixed:ret <- $r5
	.loc	1 1492 5 is_stmt 0              @ ../../../ThirdParty/mbedTLS/library/ecp.c:1492:5
	cmp	r0, #0
	beq	.LBB33_75
	b	.LBB33_22
.Ltmp629:
.LBB33_75:
	@DEBUG_VALUE: ecp_add_mixed:P <- $r6
	@DEBUG_VALUE: ecp_add_mixed:ret <- $r5
	@DEBUG_VALUE: ecp_add_mixed:grp <- [DW_OP_plus_uconst 12] [$sp+0]
	.loc	1 0 5                           @ ../../../ThirdParty/mbedTLS/library/ecp.c:0:5
	ldr	r0, [sp, #8]                    @ 4-byte Reload
.Ltmp630:
	.loc	1 1493 5 is_stmt 1              @ ../../../ThirdParty/mbedTLS/library/ecp.c:1493:5
	adds	r0, #24
	add	r1, sp, #16
	bl	mbedtls_mpi_copy
	b	.LBB33_44
.Ltmp631:
	.p2align	2
@ %bb.76:
	.loc	1 0 5 is_stmt 0                 @ ../../../ThirdParty/mbedTLS/library/ecp.c:0:5
__arm_cp.33_2:
	.long	mul_count
.Lcpi_end25:
	.size	__arm_cp.33_2, .Lcpi_end25-__arm_cp.33_2
.Lfunc_end33:
	.size	ecp_add_mixed, .Lfunc_end33-ecp_add_mixed
	.cfi_endproc
	.cantunwind
	.fnend
                                        @ -- End function
	.section	.text.ecp_normalize_jac,"ax",%progbits
	.p2align	2                               @ -- Begin function ecp_normalize_jac
	.type	ecp_normalize_jac,%function
	.code	16                              @ @ecp_normalize_jac
	.thumb_func
ecp_normalize_jac:
.Lfunc_begin34:
	.loc	1 1083 0 is_stmt 1              @ ../../../ThirdParty/mbedTLS/library/ecp.c:1083:0
	.fnstart
	.cfi_startproc
@ %bb.0:
	@DEBUG_VALUE: ecp_normalize_jac:grp <- $r0
	@DEBUG_VALUE: ecp_normalize_jac:pt <- $r1
	.save	{r4, r5, r6, r7, lr}
	push	{r4, r5, r6, r7, lr}
	.cfi_def_cfa_offset 20
	.cfi_offset lr, -4
	.cfi_offset r7, -8
	.cfi_offset r6, -12
	.cfi_offset r5, -16
	.cfi_offset r4, -20
	.pad	#28
	sub	sp, #28
	.cfi_def_cfa_offset 48
	mov	r5, r1
	mov	r6, r0
.Ltmp632:
	@DEBUG_VALUE: ecp_normalize_jac:pt <- $r5
	@DEBUG_VALUE: ecp_normalize_jac:grp <- $r6
	.loc	1 1087 35 prologue_end          @ ../../../ThirdParty/mbedTLS/library/ecp.c:1087:35
	mov	r4, r1
	adds	r4, #24
	movs	r7, #0
	.loc	1 1087 9 is_stmt 0              @ ../../../ThirdParty/mbedTLS/library/ecp.c:1087:9
	mov	r0, r4
	mov	r1, r7
	bl	mbedtls_mpi_cmp_int
.Ltmp633:
	.loc	1 1087 9                        @ ../../../ThirdParty/mbedTLS/library/ecp.c:1087:9
	cmp	r0, #0
	beq	.LBB34_12
.Ltmp634:
@ %bb.1:
	@DEBUG_VALUE: ecp_normalize_jac:grp <- $r6
	@DEBUG_VALUE: ecp_normalize_jac:pt <- $r5
	.loc	1 0 9                           @ ../../../ThirdParty/mbedTLS/library/ecp.c:0:9
	add	r7, sp, #16
	.loc	1 1095 5 is_stmt 1              @ ../../../ThirdParty/mbedTLS/library/ecp.c:1095:5
	mov	r0, r7
	bl	mbedtls_mpi_init
	add	r0, sp, #4
	.loc	1 1096 5                        @ ../../../ThirdParty/mbedTLS/library/ecp.c:1096:5
	bl	mbedtls_mpi_init
.Ltmp635:
	.loc	1 1101 5                        @ ../../../ThirdParty/mbedTLS/library/ecp.c:1101:5
	adds	r2, r6, #4
	mov	r0, r7
	mov	r1, r4
	bl	mbedtls_mpi_inv_mod
	mov	r7, r0
.Ltmp636:
	@DEBUG_VALUE: ecp_normalize_jac:ret <- $r7
	.loc	1 1101 5 is_stmt 0              @ ../../../ThirdParty/mbedTLS/library/ecp.c:1101:5
	cmp	r0, #0
	bne	.LBB34_11
.Ltmp637:
@ %bb.2:
	@DEBUG_VALUE: ecp_normalize_jac:ret <- $r7
	@DEBUG_VALUE: ecp_normalize_jac:grp <- $r6
	@DEBUG_VALUE: ecp_normalize_jac:pt <- $r5
	.loc	1 0 5                           @ ../../../ThirdParty/mbedTLS/library/ecp.c:0:5
	add	r0, sp, #4
	add	r1, sp, #16
.Ltmp638:
	.loc	1 1102 5 is_stmt 1              @ ../../../ThirdParty/mbedTLS/library/ecp.c:1102:5
	mov	r2, r1
	bl	mbedtls_mpi_mul_mpi
	mov	r7, r0
.Ltmp639:
	@DEBUG_VALUE: ecp_normalize_jac:ret <- $r7
	.loc	1 1102 5 is_stmt 0              @ ../../../ThirdParty/mbedTLS/library/ecp.c:1102:5
	cmp	r0, #0
	bne	.LBB34_11
.Ltmp640:
@ %bb.3:
	@DEBUG_VALUE: ecp_normalize_jac:ret <- $r7
	@DEBUG_VALUE: ecp_normalize_jac:grp <- $r6
	@DEBUG_VALUE: ecp_normalize_jac:pt <- $r5
	.loc	1 0 5                           @ ../../../ThirdParty/mbedTLS/library/ecp.c:0:5
	add	r0, sp, #4
.Ltmp641:
	.loc	1 1103 5 is_stmt 1              @ ../../../ThirdParty/mbedTLS/library/ecp.c:1103:5
	mov	r1, r6
	bl	ecp_modp
	mov	r7, r0
.Ltmp642:
	@DEBUG_VALUE: ecp_normalize_jac:ret <- $r7
	.loc	1 1103 5 is_stmt 0              @ ../../../ThirdParty/mbedTLS/library/ecp.c:1103:5
	cbnz	r0, .LBB34_11
.Ltmp643:
@ %bb.4:
	@DEBUG_VALUE: ecp_normalize_jac:ret <- $r7
	@DEBUG_VALUE: ecp_normalize_jac:grp <- $r6
	@DEBUG_VALUE: ecp_normalize_jac:pt <- $r5
	.loc	1 1103 5                        @ ../../../ThirdParty/mbedTLS/library/ecp.c:1103:5
	ldr	r1, __arm_cp.34_0
	ldr	r0, [r1]
	adds	r0, r0, #1
	str	r0, [r1]
	add	r2, sp, #4
.Ltmp644:
	.loc	1 1104 5 is_stmt 1              @ ../../../ThirdParty/mbedTLS/library/ecp.c:1104:5
	mov	r0, r5
	mov	r1, r5
	bl	mbedtls_mpi_mul_mpi
	mov	r7, r0
.Ltmp645:
	@DEBUG_VALUE: ecp_normalize_jac:ret <- $r7
	.loc	1 1104 5 is_stmt 0              @ ../../../ThirdParty/mbedTLS/library/ecp.c:1104:5
	cbnz	r0, .LBB34_11
.Ltmp646:
@ %bb.5:
	@DEBUG_VALUE: ecp_normalize_jac:ret <- $r7
	@DEBUG_VALUE: ecp_normalize_jac:grp <- $r6
	@DEBUG_VALUE: ecp_normalize_jac:pt <- $r5
	.loc	1 1105 5 is_stmt 1              @ ../../../ThirdParty/mbedTLS/library/ecp.c:1105:5
	mov	r0, r5
	mov	r1, r6
	bl	ecp_modp
	mov	r7, r0
.Ltmp647:
	@DEBUG_VALUE: ecp_normalize_jac:ret <- $r7
	.loc	1 1105 5 is_stmt 0              @ ../../../ThirdParty/mbedTLS/library/ecp.c:1105:5
	cbnz	r0, .LBB34_11
.Ltmp648:
@ %bb.6:
	@DEBUG_VALUE: ecp_normalize_jac:ret <- $r7
	@DEBUG_VALUE: ecp_normalize_jac:grp <- $r6
	@DEBUG_VALUE: ecp_normalize_jac:pt <- $r5
	.loc	1 0 5                           @ ../../../ThirdParty/mbedTLS/library/ecp.c:0:5
	ldr	r1, __arm_cp.34_0
	.loc	1 1105 5                        @ ../../../ThirdParty/mbedTLS/library/ecp.c:1105:5
	ldr	r0, [r1]
	adds	r0, r0, #1
	str	r0, [r1]
.Ltmp649:
	.loc	1 1110 5 is_stmt 1              @ ../../../ThirdParty/mbedTLS/library/ecp.c:1110:5
	adds	r5, #12
.Ltmp650:
	.loc	1 0 5 is_stmt 0                 @ ../../../ThirdParty/mbedTLS/library/ecp.c:0:5
	add	r2, sp, #4
	.loc	1 1110 5                        @ ../../../ThirdParty/mbedTLS/library/ecp.c:1110:5
	mov	r0, r5
	mov	r1, r5
	bl	mbedtls_mpi_mul_mpi
	mov	r7, r0
.Ltmp651:
	@DEBUG_VALUE: ecp_normalize_jac:ret <- $r7
	.loc	1 1110 5                        @ ../../../ThirdParty/mbedTLS/library/ecp.c:1110:5
	cbnz	r0, .LBB34_11
.Ltmp652:
@ %bb.7:
	@DEBUG_VALUE: ecp_normalize_jac:ret <- $r7
	@DEBUG_VALUE: ecp_normalize_jac:grp <- $r6
	.loc	1 1111 5 is_stmt 1              @ ../../../ThirdParty/mbedTLS/library/ecp.c:1111:5
	mov	r0, r5
	mov	r1, r6
	bl	ecp_modp
	mov	r7, r0
.Ltmp653:
	@DEBUG_VALUE: ecp_normalize_jac:ret <- $r7
	.loc	1 1111 5 is_stmt 0              @ ../../../ThirdParty/mbedTLS/library/ecp.c:1111:5
	cbnz	r0, .LBB34_11
.Ltmp654:
@ %bb.8:
	@DEBUG_VALUE: ecp_normalize_jac:ret <- $r7
	@DEBUG_VALUE: ecp_normalize_jac:grp <- $r6
	.loc	1 0 5                           @ ../../../ThirdParty/mbedTLS/library/ecp.c:0:5
	ldr	r1, __arm_cp.34_0
	.loc	1 1111 5                        @ ../../../ThirdParty/mbedTLS/library/ecp.c:1111:5
	ldr	r0, [r1]
	adds	r0, r0, #1
	str	r0, [r1]
	add	r2, sp, #16
.Ltmp655:
	.loc	1 1112 5 is_stmt 1              @ ../../../ThirdParty/mbedTLS/library/ecp.c:1112:5
	mov	r0, r5
	mov	r1, r5
	bl	mbedtls_mpi_mul_mpi
	mov	r7, r0
.Ltmp656:
	@DEBUG_VALUE: ecp_normalize_jac:ret <- $r7
	.loc	1 1112 5 is_stmt 0              @ ../../../ThirdParty/mbedTLS/library/ecp.c:1112:5
	cbnz	r0, .LBB34_11
.Ltmp657:
@ %bb.9:
	@DEBUG_VALUE: ecp_normalize_jac:ret <- $r7
	@DEBUG_VALUE: ecp_normalize_jac:grp <- $r6
	.loc	1 1113 5 is_stmt 1              @ ../../../ThirdParty/mbedTLS/library/ecp.c:1113:5
	mov	r0, r5
	mov	r1, r6
	bl	ecp_modp
	mov	r7, r0
.Ltmp658:
	@DEBUG_VALUE: ecp_normalize_jac:ret <- $r7
	.loc	1 1113 5 is_stmt 0              @ ../../../ThirdParty/mbedTLS/library/ecp.c:1113:5
	cbnz	r0, .LBB34_11
.Ltmp659:
@ %bb.10:
	@DEBUG_VALUE: ecp_normalize_jac:ret <- $r7
	@DEBUG_VALUE: ecp_normalize_jac:grp <- $r6
	.loc	1 0 5                           @ ../../../ThirdParty/mbedTLS/library/ecp.c:0:5
	ldr	r1, __arm_cp.34_0
	.loc	1 1113 5                        @ ../../../ThirdParty/mbedTLS/library/ecp.c:1113:5
	ldr	r0, [r1]
	adds	r0, r0, #1
	str	r0, [r1]
	movs	r1, #1
.Ltmp660:
	.loc	1 1118 5 is_stmt 1              @ ../../../ThirdParty/mbedTLS/library/ecp.c:1118:5
	mov	r0, r4
	bl	mbedtls_mpi_lset
	mov	r7, r0
.Ltmp661:
	@DEBUG_VALUE: ecp_normalize_jac:ret <- $r7
.LBB34_11:
	@DEBUG_VALUE: ecp_normalize_jac:ret <- $r7
	@DEBUG_VALUE: ecp_normalize_jac:grp <- $r6
	@DEBUG_VALUE: ecp_normalize_jac:ret <- $r7
	@DEBUG_LABEL: ecp_normalize_jac:cleanup
	.loc	1 0 5 is_stmt 0                 @ ../../../ThirdParty/mbedTLS/library/ecp.c:0:5
	add	r0, sp, #16
	.loc	1 1122 5 is_stmt 1              @ ../../../ThirdParty/mbedTLS/library/ecp.c:1122:5
	bl	mbedtls_mpi_free
	add	r0, sp, #4
	.loc	1 1123 5                        @ ../../../ThirdParty/mbedTLS/library/ecp.c:1123:5
	bl	mbedtls_mpi_free
.Ltmp662:
.LBB34_12:
	@DEBUG_VALUE: ecp_normalize_jac:grp <- $r6
	.loc	1 1126 1                        @ ../../../ThirdParty/mbedTLS/library/ecp.c:1126:1
	mov	r0, r7
	add	sp, #28
	pop	{r4, r5, r6, r7, pc}
.Ltmp663:
	.p2align	2
@ %bb.13:
	.loc	1 0 1 is_stmt 0                 @ ../../../ThirdParty/mbedTLS/library/ecp.c:0:1
__arm_cp.34_0:
	.long	mul_count
.Lcpi_end26:
	.size	__arm_cp.34_0, .Lcpi_end26-__arm_cp.34_0
.Lfunc_end34:
	.size	ecp_normalize_jac, .Lfunc_end34-ecp_normalize_jac
	.cfi_endproc
	.cantunwind
	.fnend
                                        @ -- End function
	.section	.text.mbedtls_ecp_muladd,"ax",%progbits
	.hidden	mbedtls_ecp_muladd              @ -- Begin function mbedtls_ecp_muladd
	.globl	mbedtls_ecp_muladd
	.p2align	1
	.type	mbedtls_ecp_muladd,%function
	.code	16                              @ @mbedtls_ecp_muladd
	.thumb_func
mbedtls_ecp_muladd:
.Lfunc_begin35:
	.loc	1 2706 0 is_stmt 1              @ ../../../ThirdParty/mbedTLS/library/ecp.c:2706:0
	.fnstart
	.cfi_startproc
@ %bb.0:
	@DEBUG_VALUE: mbedtls_ecp_muladd:grp <- $r0
	@DEBUG_VALUE: mbedtls_ecp_muladd:grp <- $r0
	@DEBUG_VALUE: mbedtls_ecp_muladd:R <- $r1
	@DEBUG_VALUE: mbedtls_ecp_muladd:R <- $r1
	@DEBUG_VALUE: mbedtls_ecp_muladd:m <- $r2
	@DEBUG_VALUE: mbedtls_ecp_muladd:m <- $r2
	@DEBUG_VALUE: mbedtls_ecp_muladd:P <- $r3
	@DEBUG_VALUE: mbedtls_ecp_muladd:P <- $r3
	.save	{r4, lr}
	push	{r4, lr}
	.cfi_def_cfa_offset 8
	.cfi_offset lr, -4
	.cfi_offset r4, -8
	.pad	#16
	sub	sp, #16
	.cfi_def_cfa_offset 24
.Ltmp664:
	@DEBUG_VALUE: mbedtls_ecp_muladd:n <- [DW_OP_plus_uconst 24] [$sp+0]
	@DEBUG_VALUE: mbedtls_ecp_muladd:Q <- [DW_OP_plus_uconst 28] [$sp+0]
	movs	r4, #0
.Ltmp665:
	.loc	1 2713 13 prologue_end          @ ../../../ThirdParty/mbedTLS/library/ecp.c:2713:13
	str	r4, [sp, #8]
	ldr	r4, [sp, #28]
	str	r4, [sp, #4]
	ldr	r4, [sp, #24]
	str	r4, [sp]
	@DEBUG_VALUE: mbedtls_ecp_muladd:P <- $r3
	@DEBUG_VALUE: mbedtls_ecp_muladd:m <- $r2
	@DEBUG_VALUE: mbedtls_ecp_muladd:R <- $r1
	@DEBUG_VALUE: mbedtls_ecp_muladd:grp <- $r0
	bl	mbedtls_ecp_muladd_restartable
.Ltmp666:
	@DEBUG_VALUE: mbedtls_ecp_muladd:P <- [DW_OP_LLVM_entry_value 1] $r3
	@DEBUG_VALUE: mbedtls_ecp_muladd:m <- [DW_OP_LLVM_entry_value 1] $r2
	@DEBUG_VALUE: mbedtls_ecp_muladd:R <- [DW_OP_LLVM_entry_value 1] $r1
	@DEBUG_VALUE: mbedtls_ecp_muladd:grp <- [DW_OP_LLVM_entry_value 1] $r0
	.loc	1 2713 5 is_stmt 0              @ ../../../ThirdParty/mbedTLS/library/ecp.c:2713:5
	add	sp, #16
.Ltmp667:
	pop	{r4, pc}
.Ltmp668:
.Lfunc_end35:
	.size	mbedtls_ecp_muladd, .Lfunc_end35-mbedtls_ecp_muladd
	.cfi_endproc
	.cantunwind
	.fnend
                                        @ -- End function
	.section	.text.ecp_check_pubkey_mx,"ax",%progbits
	.p2align	2                               @ -- Begin function ecp_check_pubkey_mx
	.type	ecp_check_pubkey_mx,%function
	.code	16                              @ @ecp_check_pubkey_mx
	.thumb_func
ecp_check_pubkey_mx:
.Lfunc_begin36:
	.loc	1 2721 0 is_stmt 1              @ ../../../ThirdParty/mbedTLS/library/ecp.c:2721:0
	.fnstart
	.cfi_startproc
@ %bb.0:
	@DEBUG_VALUE: ecp_check_pubkey_mx:grp <- $r0
	@DEBUG_VALUE: ecp_check_pubkey_mx:pt <- $r1
	.save	{r4, lr}
	push	{r4, lr}
	.cfi_def_cfa_offset 8
	.cfi_offset lr, -4
	.cfi_offset r4, -8
	mov	r4, r0
	@DEBUG_VALUE: ecp_check_pubkey_mx:pt <- $r1
.Ltmp669:
	@DEBUG_VALUE: ecp_check_pubkey_mx:grp <- $r4
	.loc	1 2725 9 prologue_end           @ ../../../ThirdParty/mbedTLS/library/ecp.c:2725:9
	mov	r0, r1
.Ltmp670:
	@DEBUG_VALUE: ecp_check_pubkey_mx:pt <- $r0
	bl	mbedtls_mpi_size
.Ltmp671:
	.loc	1 2725 45 is_stmt 0             @ ../../../ThirdParty/mbedTLS/library/ecp.c:2725:45
	ldr	r1, [r4, #92]
	.loc	1 2725 51                       @ ../../../ThirdParty/mbedTLS/library/ecp.c:2725:51
	adds	r1, r1, #7
	.loc	1 2725 57                       @ ../../../ThirdParty/mbedTLS/library/ecp.c:2725:57
	lsrs	r1, r1, #3
.Ltmp672:
	.loc	1 2725 9                        @ ../../../ThirdParty/mbedTLS/library/ecp.c:2725:9
	cmp	r0, r1
	bhi	.LBB36_2
.Ltmp673:
@ %bb.1:
	@DEBUG_VALUE: ecp_check_pubkey_mx:grp <- $r4
	.loc	1 0 9                           @ ../../../ThirdParty/mbedTLS/library/ecp.c:0:9
	movs	r0, #0
	.loc	1 2729 1 is_stmt 1              @ ../../../ThirdParty/mbedTLS/library/ecp.c:2729:1
	pop	{r4, pc}
.Ltmp674:
.LBB36_2:
	@DEBUG_VALUE: ecp_check_pubkey_mx:grp <- $r4
	.loc	1 0 1 is_stmt 0                 @ ../../../ThirdParty/mbedTLS/library/ecp.c:0:1
	ldr	r0, __arm_cp.36_0
	.loc	1 2729 1                        @ ../../../ThirdParty/mbedTLS/library/ecp.c:2729:1
	pop	{r4, pc}
.Ltmp675:
	.p2align	2
@ %bb.3:
	.loc	1 0 1                           @ ../../../ThirdParty/mbedTLS/library/ecp.c:0:1
__arm_cp.36_0:
	.long	4294947712                      @ 0xffffb380
.Lcpi_end27:
	.size	__arm_cp.36_0, .Lcpi_end27-__arm_cp.36_0
.Lfunc_end36:
	.size	ecp_check_pubkey_mx, .Lfunc_end36-ecp_check_pubkey_mx
	.cfi_endproc
	.cantunwind
	.fnend
                                        @ -- End function
	.section	.text.ecp_check_pubkey_sw,"ax",%progbits
	.p2align	2                               @ -- Begin function ecp_check_pubkey_sw
	.type	ecp_check_pubkey_sw,%function
	.code	16                              @ @ecp_check_pubkey_sw
	.thumb_func
ecp_check_pubkey_sw:
.Lfunc_begin37:
	.loc	1 2518 0 is_stmt 1              @ ../../../ThirdParty/mbedTLS/library/ecp.c:2518:0
	.fnstart
	.cfi_startproc
@ %bb.0:
	@DEBUG_VALUE: ecp_check_pubkey_sw:grp <- $r0
	@DEBUG_VALUE: ecp_check_pubkey_sw:pt <- $r1
	.save	{r4, r5, r6, r7, lr}
	push	{r4, r5, r6, r7, lr}
	.cfi_def_cfa_offset 20
	.cfi_offset lr, -4
	.cfi_offset r7, -8
	.cfi_offset r6, -12
	.cfi_offset r5, -16
	.cfi_offset r4, -20
	.pad	#36
	sub	sp, #36
	.cfi_def_cfa_offset 56
	mov	r6, r1
	mov	r5, r0
.Ltmp676:
	@DEBUG_VALUE: ecp_check_pubkey_sw:pt <- $r6
	@DEBUG_VALUE: ecp_check_pubkey_sw:grp <- $r5
	movs	r1, #0
.Ltmp677:
	.loc	1 2523 9 prologue_end           @ ../../../ThirdParty/mbedTLS/library/ecp.c:2523:9
	mov	r0, r6
	bl	mbedtls_mpi_cmp_int
	ldr	r4, __arm_cp.37_0
	.loc	1 2523 46 is_stmt 0             @ ../../../ThirdParty/mbedTLS/library/ecp.c:2523:46
	cmp	r0, #0
	bmi	.LBB37_4
.Ltmp678:
@ %bb.1:
	@DEBUG_VALUE: ecp_check_pubkey_sw:pt <- $r6
	@DEBUG_VALUE: ecp_check_pubkey_sw:grp <- $r5
	.loc	1 2524 39 is_stmt 1             @ ../../../ThirdParty/mbedTLS/library/ecp.c:2524:39
	mov	r7, r6
	adds	r7, #12
	movs	r1, #0
	.loc	1 2524 13 is_stmt 0             @ ../../../ThirdParty/mbedTLS/library/ecp.c:2524:13
	mov	r0, r7
	bl	mbedtls_mpi_cmp_int
	.loc	1 2524 50                       @ ../../../ThirdParty/mbedTLS/library/ecp.c:2524:50
	cmp	r0, #0
	bmi	.LBB37_5
.Ltmp679:
@ %bb.2:
	@DEBUG_VALUE: ecp_check_pubkey_sw:pt <- $r6
	@DEBUG_VALUE: ecp_check_pubkey_sw:grp <- $r5
	.loc	1 0 50                          @ ../../../ThirdParty/mbedTLS/library/ecp.c:0:50
	str	r4, [sp, #8]                    @ 4-byte Spill
	.loc	1 2525 48 is_stmt 1             @ ../../../ThirdParty/mbedTLS/library/ecp.c:2525:48
	adds	r4, r5, #4
	.loc	1 2525 13 is_stmt 0             @ ../../../ThirdParty/mbedTLS/library/ecp.c:2525:13
	mov	r0, r6
	mov	r1, r4
	bl	mbedtls_mpi_cmp_mpi
	.loc	1 2525 57                       @ ../../../ThirdParty/mbedTLS/library/ecp.c:2525:57
	cmp	r0, #0
	bmi	.LBB37_6
.Ltmp680:
@ %bb.3:
	@DEBUG_VALUE: ecp_check_pubkey_sw:pt <- $r6
	@DEBUG_VALUE: ecp_check_pubkey_sw:grp <- $r5
	.loc	1 0 0                           @ ../../../ThirdParty/mbedTLS/library/ecp.c:0:0
	ldr	r7, __arm_cp.37_0
	b	.LBB37_13
.Ltmp681:
.LBB37_4:
	@DEBUG_VALUE: ecp_check_pubkey_sw:pt <- $r6
	@DEBUG_VALUE: ecp_check_pubkey_sw:grp <- $r5
	mov	r7, r4
	b	.LBB37_13
.Ltmp682:
.LBB37_5:
	@DEBUG_VALUE: ecp_check_pubkey_sw:pt <- $r6
	@DEBUG_VALUE: ecp_check_pubkey_sw:grp <- $r5
	mov	r7, r4
	b	.LBB37_13
.Ltmp683:
.LBB37_6:
	@DEBUG_VALUE: ecp_check_pubkey_sw:pt <- $r6
	@DEBUG_VALUE: ecp_check_pubkey_sw:grp <- $r5
	str	r5, [sp, #4]                    @ 4-byte Spill
.Ltmp684:
	@DEBUG_VALUE: ecp_check_pubkey_sw:grp <- [DW_OP_plus_uconst 4] [$sp+0]
	.loc	1 2526 13 is_stmt 1             @ ../../../ThirdParty/mbedTLS/library/ecp.c:2526:13
	mov	r0, r7
	mov	r1, r4
	bl	mbedtls_mpi_cmp_mpi
.Ltmp685:
	.loc	1 2523 9                        @ ../../../ThirdParty/mbedTLS/library/ecp.c:2523:9
	cmp	r0, #0
	bmi	.LBB37_8
.Ltmp686:
@ %bb.7:
	@DEBUG_VALUE: ecp_check_pubkey_sw:grp <- [DW_OP_plus_uconst 4] [$sp+0]
	@DEBUG_VALUE: ecp_check_pubkey_sw:pt <- $r6
	.loc	1 0 0 is_stmt 0                 @ ../../../ThirdParty/mbedTLS/library/ecp.c:0:0
	ldr	r7, __arm_cp.37_0
	b	.LBB37_13
.Ltmp687:
.LBB37_8:
	@DEBUG_VALUE: ecp_check_pubkey_sw:grp <- [DW_OP_plus_uconst 4] [$sp+0]
	@DEBUG_VALUE: ecp_check_pubkey_sw:pt <- $r6
	str	r4, [sp]                        @ 4-byte Spill
	add	r4, sp, #24
	.loc	1 2529 5 is_stmt 1              @ ../../../ThirdParty/mbedTLS/library/ecp.c:2529:5
	mov	r0, r4
	bl	mbedtls_mpi_init
	add	r0, sp, #12
	.loc	1 2530 5                        @ ../../../ThirdParty/mbedTLS/library/ecp.c:2530:5
	bl	mbedtls_mpi_init
.Ltmp688:
	.loc	1 2536 5                        @ ../../../ThirdParty/mbedTLS/library/ecp.c:2536:5
	mov	r0, r4
	mov	r1, r7
	mov	r2, r7
	bl	mbedtls_mpi_mul_mpi
	mov	r7, r0
.Ltmp689:
	@DEBUG_VALUE: ecp_check_pubkey_sw:ret <- $r7
	.loc	1 2536 5 is_stmt 0              @ ../../../ThirdParty/mbedTLS/library/ecp.c:2536:5
	cbnz	r0, .LBB37_12
.Ltmp690:
@ %bb.9:
	@DEBUG_VALUE: ecp_check_pubkey_sw:grp <- [DW_OP_plus_uconst 4] [$sp+0]
	@DEBUG_VALUE: ecp_check_pubkey_sw:ret <- $r7
	@DEBUG_VALUE: ecp_check_pubkey_sw:pt <- $r6
	.loc	1 0 5                           @ ../../../ThirdParty/mbedTLS/library/ecp.c:0:5
	add	r0, sp, #24
.Ltmp691:
	.loc	1 2537 5 is_stmt 1              @ ../../../ThirdParty/mbedTLS/library/ecp.c:2537:5
	ldr	r1, [sp, #4]                    @ 4-byte Reload
.Ltmp692:
	@DEBUG_VALUE: ecp_check_pubkey_sw:grp <- $r1
	bl	ecp_modp
.Ltmp693:
	mov	r7, r0
.Ltmp694:
	@DEBUG_VALUE: ecp_check_pubkey_sw:ret <- $r7
	.loc	1 2537 5 is_stmt 0              @ ../../../ThirdParty/mbedTLS/library/ecp.c:2537:5
	cbnz	r0, .LBB37_12
.Ltmp695:
@ %bb.10:
	@DEBUG_VALUE: ecp_check_pubkey_sw:ret <- $r7
	@DEBUG_VALUE: ecp_check_pubkey_sw:pt <- $r6
	.loc	1 2537 5                        @ ../../../ThirdParty/mbedTLS/library/ecp.c:2537:5
	ldr	r4, __arm_cp.37_1
	ldr	r0, [r4]
	adds	r0, r0, #1
	str	r0, [r4]
	add	r0, sp, #12
.Ltmp696:
	.loc	1 2538 5 is_stmt 1              @ ../../../ThirdParty/mbedTLS/library/ecp.c:2538:5
	mov	r1, r6
	mov	r2, r6
	bl	mbedtls_mpi_mul_mpi
	mov	r7, r0
.Ltmp697:
	@DEBUG_VALUE: ecp_check_pubkey_sw:ret <- $r7
	.loc	1 2538 5 is_stmt 0              @ ../../../ThirdParty/mbedTLS/library/ecp.c:2538:5
	cbnz	r0, .LBB37_12
.Ltmp698:
@ %bb.11:
	@DEBUG_VALUE: ecp_check_pubkey_sw:ret <- $r7
	@DEBUG_VALUE: ecp_check_pubkey_sw:pt <- $r6
	.loc	1 0 5                           @ ../../../ThirdParty/mbedTLS/library/ecp.c:0:5
	add	r0, sp, #12
.Ltmp699:
	.loc	1 2539 5 is_stmt 1              @ ../../../ThirdParty/mbedTLS/library/ecp.c:2539:5
	ldr	r1, [sp, #4]                    @ 4-byte Reload
	bl	ecp_modp
	mov	r7, r0
.Ltmp700:
	@DEBUG_VALUE: ecp_check_pubkey_sw:ret <- $r7
	.loc	1 2539 5 is_stmt 0              @ ../../../ThirdParty/mbedTLS/library/ecp.c:2539:5
	cbz	r0, .LBB37_14
.Ltmp701:
.LBB37_12:
	@DEBUG_VALUE: ecp_check_pubkey_sw:pt <- $r6
	@DEBUG_VALUE: ecp_check_pubkey_sw:ret <- $r7
	@DEBUG_LABEL: ecp_check_pubkey_sw:cleanup
	.loc	1 0 5                           @ ../../../ThirdParty/mbedTLS/library/ecp.c:0:5
	add	r0, sp, #24
	.loc	1 2563 5 is_stmt 1              @ ../../../ThirdParty/mbedTLS/library/ecp.c:2563:5
	bl	mbedtls_mpi_free
	add	r0, sp, #12
	.loc	1 2564 5                        @ ../../../ThirdParty/mbedTLS/library/ecp.c:2564:5
	bl	mbedtls_mpi_free
.Ltmp702:
.LBB37_13:
	@DEBUG_VALUE: ecp_check_pubkey_sw:pt <- $r6
	.loc	1 2567 1                        @ ../../../ThirdParty/mbedTLS/library/ecp.c:2567:1
	mov	r0, r7
	add	sp, #36
	pop	{r4, r5, r6, r7, pc}
.Ltmp703:
.LBB37_14:
	@DEBUG_VALUE: ecp_check_pubkey_sw:ret <- $r7
	@DEBUG_VALUE: ecp_check_pubkey_sw:pt <- $r6
	.loc	1 2539 5                        @ ../../../ThirdParty/mbedTLS/library/ecp.c:2539:5
	ldr	r0, [r4]
	adds	r0, r0, #1
	str	r0, [r4]
	ldr	r2, [sp, #4]                    @ 4-byte Reload
.Ltmp704:
	.loc	1 2542 16                       @ ../../../ThirdParty/mbedTLS/library/ecp.c:2542:16
	ldr	r0, [r2, #24]
.Ltmp705:
	.loc	1 2542 9 is_stmt 0              @ ../../../ThirdParty/mbedTLS/library/ecp.c:2542:9
	cbz	r0, .LBB37_19
.Ltmp706:
@ %bb.15:
	@DEBUG_VALUE: ecp_check_pubkey_sw:ret <- $r7
	@DEBUG_VALUE: ecp_check_pubkey_sw:pt <- $r6
	.loc	1 2542 14                       @ ../../../ThirdParty/mbedTLS/library/ecp.c:2542:14
	adds	r2, #16
	add	r0, sp, #12
.Ltmp707:
	.loc	1 2549 9 is_stmt 1              @ ../../../ThirdParty/mbedTLS/library/ecp.c:2549:9
	mov	r1, r0
	bl	mbedtls_mpi_add_mpi
	mov	r7, r0
.Ltmp708:
	@DEBUG_VALUE: ecp_check_pubkey_sw:ret <- $r7
	.loc	1 2549 9 is_stmt 0              @ ../../../ThirdParty/mbedTLS/library/ecp.c:2549:9
	cmp	r0, #0
	bne	.LBB37_12
.Ltmp709:
@ %bb.16:
	@DEBUG_VALUE: ecp_check_pubkey_sw:ret <- $r7
	@DEBUG_VALUE: ecp_check_pubkey_sw:pt <- $r6
	.loc	1 0 9                           @ ../../../ThirdParty/mbedTLS/library/ecp.c:0:9
	ldr	r5, [sp]                        @ 4-byte Reload
.Ltmp710:
.LBB37_17:                              @ =>This Inner Loop Header: Depth=1
	@DEBUG_VALUE: ecp_check_pubkey_sw:ret <- $r7
	@DEBUG_VALUE: ecp_check_pubkey_sw:pt <- $r6
	add	r0, sp, #12
	.loc	1 2550 9 is_stmt 1              @ ../../../ThirdParty/mbedTLS/library/ecp.c:2550:9
	mov	r1, r5
	bl	mbedtls_mpi_cmp_mpi
	cmp	r0, #0
	bmi	.LBB37_24
.Ltmp711:
@ %bb.18:                               @   in Loop: Header=BB37_17 Depth=1
	@DEBUG_VALUE: ecp_check_pubkey_sw:ret <- $r7
	@DEBUG_VALUE: ecp_check_pubkey_sw:pt <- $r6
	.loc	1 0 9 is_stmt 0                 @ ../../../ThirdParty/mbedTLS/library/ecp.c:0:9
	add	r0, sp, #12
.Ltmp712:
	.loc	1 2550 9                        @ ../../../ThirdParty/mbedTLS/library/ecp.c:2550:9
	mov	r1, r0
	mov	r2, r5
	bl	mbedtls_mpi_sub_abs
	mov	r7, r0
.Ltmp713:
	@DEBUG_VALUE: ecp_check_pubkey_sw:ret <- $r7
	.loc	1 2550 9                        @ ../../../ThirdParty/mbedTLS/library/ecp.c:2550:9
	cmp	r0, #0
	beq	.LBB37_17
	b	.LBB37_12
.Ltmp714:
.LBB37_19:
	@DEBUG_VALUE: ecp_check_pubkey_sw:ret <- $r7
	@DEBUG_VALUE: ecp_check_pubkey_sw:pt <- $r6
	.loc	1 0 9                           @ ../../../ThirdParty/mbedTLS/library/ecp.c:0:9
	add	r0, sp, #12
	movs	r2, #3
.Ltmp715:
	.loc	1 2544 9 is_stmt 1              @ ../../../ThirdParty/mbedTLS/library/ecp.c:2544:9
	mov	r1, r0
	bl	mbedtls_mpi_sub_int
	mov	r7, r0
.Ltmp716:
	@DEBUG_VALUE: ecp_check_pubkey_sw:ret <- $r7
	.loc	1 2544 9 is_stmt 0              @ ../../../ThirdParty/mbedTLS/library/ecp.c:2544:9
	cmp	r0, #0
	bne	.LBB37_12
.Ltmp717:
@ %bb.20:
	@DEBUG_VALUE: ecp_check_pubkey_sw:ret <- $r7
	@DEBUG_VALUE: ecp_check_pubkey_sw:pt <- $r6
	.loc	1 0 9                           @ ../../../ThirdParty/mbedTLS/library/ecp.c:0:9
	movs	r5, #0
.Ltmp718:
.LBB37_21:                              @ =>This Inner Loop Header: Depth=1
	@DEBUG_VALUE: ecp_check_pubkey_sw:ret <- $r7
	@DEBUG_VALUE: ecp_check_pubkey_sw:pt <- $r6
	.loc	1 2545 9 is_stmt 1              @ ../../../ThirdParty/mbedTLS/library/ecp.c:2545:9
	ldr	r0, [sp, #12]
	cmp	r0, #0
	ldr	r7, [sp]                        @ 4-byte Reload
.Ltmp719:
	bpl	.LBB37_24
.Ltmp720:
@ %bb.22:                               @   in Loop: Header=BB37_21 Depth=1
	@DEBUG_VALUE: ecp_check_pubkey_sw:pt <- $r6
	.loc	1 0 9 is_stmt 0                 @ ../../../ThirdParty/mbedTLS/library/ecp.c:0:9
	add	r0, sp, #12
	.loc	1 2545 9                        @ ../../../ThirdParty/mbedTLS/library/ecp.c:2545:9
	mov	r1, r5
	bl	mbedtls_mpi_cmp_int
	cbz	r0, .LBB37_24
.Ltmp721:
@ %bb.23:                               @   in Loop: Header=BB37_21 Depth=1
	@DEBUG_VALUE: ecp_check_pubkey_sw:pt <- $r6
	.loc	1 0 9                           @ ../../../ThirdParty/mbedTLS/library/ecp.c:0:9
	add	r0, sp, #12
.Ltmp722:
	.loc	1 2545 9                        @ ../../../ThirdParty/mbedTLS/library/ecp.c:2545:9
	mov	r1, r0
	mov	r2, r7
	bl	mbedtls_mpi_add_mpi
	mov	r7, r0
.Ltmp723:
	@DEBUG_VALUE: ecp_check_pubkey_sw:ret <- $r7
	.loc	1 2545 9                        @ ../../../ThirdParty/mbedTLS/library/ecp.c:2545:9
	cmp	r0, #0
	beq	.LBB37_21
	b	.LBB37_12
.Ltmp724:
.LBB37_24:
	@DEBUG_VALUE: ecp_check_pubkey_sw:pt <- $r6
	.loc	1 0 9                           @ ../../../ThirdParty/mbedTLS/library/ecp.c:0:9
	add	r0, sp, #12
.Ltmp725:
	.loc	1 2553 5 is_stmt 1              @ ../../../ThirdParty/mbedTLS/library/ecp.c:2553:5
	mov	r1, r0
	mov	r2, r6
	bl	mbedtls_mpi_mul_mpi
	mov	r7, r0
.Ltmp726:
	@DEBUG_VALUE: ecp_check_pubkey_sw:ret <- $r7
	.loc	1 2553 5 is_stmt 0              @ ../../../ThirdParty/mbedTLS/library/ecp.c:2553:5
	cmp	r0, #0
	bne	.LBB37_12
.Ltmp727:
@ %bb.25:
	@DEBUG_VALUE: ecp_check_pubkey_sw:ret <- $r7
	@DEBUG_VALUE: ecp_check_pubkey_sw:pt <- $r6
	.loc	1 0 5                           @ ../../../ThirdParty/mbedTLS/library/ecp.c:0:5
	add	r0, sp, #12
.Ltmp728:
	.loc	1 2554 5 is_stmt 1              @ ../../../ThirdParty/mbedTLS/library/ecp.c:2554:5
	ldr	r1, [sp, #4]                    @ 4-byte Reload
	bl	ecp_modp
	mov	r7, r0
.Ltmp729:
	@DEBUG_VALUE: ecp_check_pubkey_sw:ret <- $r7
	.loc	1 2554 5 is_stmt 0              @ ../../../ThirdParty/mbedTLS/library/ecp.c:2554:5
	cmp	r0, #0
	bne	.LBB37_12
.Ltmp730:
@ %bb.26:
	@DEBUG_VALUE: ecp_check_pubkey_sw:ret <- $r7
	@DEBUG_VALUE: ecp_check_pubkey_sw:pt <- $r6
	.loc	1 2554 5                        @ ../../../ThirdParty/mbedTLS/library/ecp.c:2554:5
	ldr	r0, [r4]
	adds	r0, r0, #1
	str	r0, [r4]
	ldr	r2, [sp, #4]                    @ 4-byte Reload
.Ltmp731:
	.loc	1 2555 5 is_stmt 1              @ ../../../ThirdParty/mbedTLS/library/ecp.c:2555:5
	adds	r2, #28
	add	r0, sp, #12
	mov	r1, r0
	bl	mbedtls_mpi_add_mpi
	mov	r7, r0
.Ltmp732:
	@DEBUG_VALUE: ecp_check_pubkey_sw:ret <- $r7
	.loc	1 2555 5 is_stmt 0              @ ../../../ThirdParty/mbedTLS/library/ecp.c:2555:5
	cmp	r0, #0
	bne	.LBB37_12
.Ltmp733:
@ %bb.27:
	@DEBUG_VALUE: ecp_check_pubkey_sw:ret <- $r7
	@DEBUG_VALUE: ecp_check_pubkey_sw:pt <- $r6
	.loc	1 0 5                           @ ../../../ThirdParty/mbedTLS/library/ecp.c:0:5
	ldr	r5, [sp]                        @ 4-byte Reload
.Ltmp734:
.LBB37_28:                              @ =>This Inner Loop Header: Depth=1
	@DEBUG_VALUE: ecp_check_pubkey_sw:ret <- $r7
	@DEBUG_VALUE: ecp_check_pubkey_sw:pt <- $r6
	@DEBUG_VALUE: ecp_check_pubkey_sw:ret <- 0
	add	r0, sp, #12
	.loc	1 2556 5 is_stmt 1              @ ../../../ThirdParty/mbedTLS/library/ecp.c:2556:5
	mov	r1, r5
	bl	mbedtls_mpi_cmp_mpi
	cmp	r0, #0
	bmi	.LBB37_30
.Ltmp735:
@ %bb.29:                               @   in Loop: Header=BB37_28 Depth=1
	@DEBUG_VALUE: ecp_check_pubkey_sw:pt <- $r6
	@DEBUG_VALUE: ecp_check_pubkey_sw:ret <- 0
	.loc	1 0 5 is_stmt 0                 @ ../../../ThirdParty/mbedTLS/library/ecp.c:0:5
	add	r0, sp, #12
.Ltmp736:
	.loc	1 2556 5                        @ ../../../ThirdParty/mbedTLS/library/ecp.c:2556:5
	mov	r1, r0
	mov	r2, r5
	bl	mbedtls_mpi_sub_abs
	mov	r7, r0
.Ltmp737:
	@DEBUG_VALUE: ecp_check_pubkey_sw:ret <- $r7
	.loc	1 2556 5                        @ ../../../ThirdParty/mbedTLS/library/ecp.c:2556:5
	cmp	r0, #0
	beq	.LBB37_28
	b	.LBB37_12
.Ltmp738:
.LBB37_30:
	@DEBUG_VALUE: ecp_check_pubkey_sw:pt <- $r6
	@DEBUG_VALUE: ecp_check_pubkey_sw:ret <- 0
	.loc	1 0 5                           @ ../../../ThirdParty/mbedTLS/library/ecp.c:0:5
	add	r0, sp, #24
	add	r1, sp, #12
.Ltmp739:
	.loc	1 2558 9 is_stmt 1              @ ../../../ThirdParty/mbedTLS/library/ecp.c:2558:9
	bl	mbedtls_mpi_cmp_mpi
.Ltmp740:
	.loc	1 2558 9 is_stmt 0              @ ../../../ThirdParty/mbedTLS/library/ecp.c:2558:9
	cbnz	r0, .LBB37_32
.Ltmp741:
@ %bb.31:
	@DEBUG_VALUE: ecp_check_pubkey_sw:pt <- $r6
	@DEBUG_VALUE: ecp_check_pubkey_sw:ret <- 0
	str	r0, [sp, #8]                    @ 4-byte Spill
.Ltmp742:
.LBB37_32:
	@DEBUG_VALUE: ecp_check_pubkey_sw:pt <- $r6
	@DEBUG_VALUE: ecp_check_pubkey_sw:ret <- 0
	.loc	1 0 0                           @ ../../../ThirdParty/mbedTLS/library/ecp.c:0:0
	ldr	r7, [sp, #8]                    @ 4-byte Reload
	b	.LBB37_12
.Ltmp743:
	.p2align	2
@ %bb.33:
__arm_cp.37_0:
	.long	4294947712                      @ 0xffffb380
.Lcpi_end28:
	.size	__arm_cp.37_0, .Lcpi_end28-__arm_cp.37_0
__arm_cp.37_1:
	.long	mul_count
.Lcpi_end29:
	.size	__arm_cp.37_1, .Lcpi_end29-__arm_cp.37_1
.Lfunc_end37:
	.size	ecp_check_pubkey_sw, .Lfunc_end37-ecp_check_pubkey_sw
	.cfi_endproc
	.cantunwind
	.fnend
                                        @ -- End function
	.section	.text.mbedtls_ecp_gen_privkey,"ax",%progbits
	.hidden	mbedtls_ecp_gen_privkey         @ -- Begin function mbedtls_ecp_gen_privkey
	.globl	mbedtls_ecp_gen_privkey
	.p2align	2
	.type	mbedtls_ecp_gen_privkey,%function
	.code	16                              @ @mbedtls_ecp_gen_privkey
	.thumb_func
mbedtls_ecp_gen_privkey:
.Lfunc_begin38:
	.loc	1 2803 0 is_stmt 1              @ ../../../ThirdParty/mbedTLS/library/ecp.c:2803:0
	.fnstart
	.cfi_startproc
@ %bb.0:
	@DEBUG_VALUE: mbedtls_ecp_gen_privkey:grp <- $r0
	@DEBUG_VALUE: mbedtls_ecp_gen_privkey:d <- $r1
	@DEBUG_VALUE: mbedtls_ecp_gen_privkey:f_rng <- $r2
	@DEBUG_VALUE: mbedtls_ecp_gen_privkey:p_rng <- $r3
	.save	{r4, r5, r6, r7, lr}
	push	{r4, r5, r6, r7, lr}
	.cfi_def_cfa_offset 20
	.cfi_offset lr, -4
	.cfi_offset r7, -8
	.cfi_offset r6, -12
	.cfi_offset r5, -16
	.cfi_offset r4, -20
	.pad	#28
	sub	sp, #28
	.cfi_def_cfa_offset 48
	mov	r5, r3
	mov	r4, r2
	mov	r6, r1
	mov	r7, r0
.Ltmp744:
	@DEBUG_VALUE: mbedtls_ecp_gen_privkey:ret <- -20352
	@DEBUG_VALUE: mbedtls_ecp_gen_privkey:p_rng <- $r5
	@DEBUG_VALUE: mbedtls_ecp_gen_privkey:f_rng <- $r4
	@DEBUG_VALUE: mbedtls_ecp_gen_privkey:d <- $r6
	@DEBUG_VALUE: mbedtls_ecp_gen_privkey:grp <- $r7
	.loc	1 2811 21 prologue_end          @ ../../../ThirdParty/mbedTLS/library/ecp.c:2811:21
	ldr	r0, [r0, #92]
	.loc	1 2811 27 is_stmt 0             @ ../../../ThirdParty/mbedTLS/library/ecp.c:2811:27
	adds	r0, r0, #7
	str	r0, [sp, #20]                   @ 4-byte Spill
	.loc	1 2811 33                       @ ../../../ThirdParty/mbedTLS/library/ecp.c:2811:33
	lsrs	r0, r0, #3
.Ltmp745:
	@DEBUG_VALUE: mbedtls_ecp_gen_privkey:n_size <- $r0
	.loc	1 2814 9 is_stmt 1              @ ../../../ThirdParty/mbedTLS/library/ecp.c:2814:9
	str	r0, [sp, #24]                   @ 4-byte Spill
.Ltmp746:
	@DEBUG_VALUE: mbedtls_ecp_gen_privkey:n_size <- [DW_OP_plus_uconst 24] [$sp+0]
	@DEBUG_VALUE: mbedtls_ecp_gen_privkey:n_size <- [DW_OP_plus_uconst 24] [$sp+0]
	mov	r0, r7
	bl	ecp_get_type
.Ltmp747:
	.loc	1 2814 9 is_stmt 0              @ ../../../ThirdParty/mbedTLS/library/ecp.c:2814:9
	cmp	r0, #2
	str	r7, [sp, #16]                   @ 4-byte Spill
.Ltmp748:
	@DEBUG_VALUE: mbedtls_ecp_gen_privkey:grp <- [DW_OP_plus_uconst 16] [$sp+0]
	bne	.LBB38_6
.Ltmp749:
@ %bb.1:
	@DEBUG_VALUE: mbedtls_ecp_gen_privkey:grp <- [DW_OP_plus_uconst 16] [$sp+0]
	@DEBUG_VALUE: mbedtls_ecp_gen_privkey:d <- $r6
	@DEBUG_VALUE: mbedtls_ecp_gen_privkey:p_rng <- $r5
	@DEBUG_VALUE: mbedtls_ecp_gen_privkey:f_rng <- $r4
	@DEBUG_VALUE: mbedtls_ecp_gen_privkey:n_size <- [DW_OP_plus_uconst 24] [$sp+0]
	@DEBUG_VALUE: mbedtls_ecp_gen_privkey:ret <- -20352
	.loc	1 0 9                           @ ../../../ThirdParty/mbedTLS/library/ecp.c:0:9
	movs	r0, #12
	str	r0, [sp, #12]                   @ 4-byte Spill
.Ltmp750:
.LBB38_2:                               @ =>This Inner Loop Header: Depth=1
	@DEBUG_VALUE: mbedtls_ecp_gen_privkey:grp <- [DW_OP_plus_uconst 16] [$sp+0]
	@DEBUG_VALUE: mbedtls_ecp_gen_privkey:d <- $r6
	@DEBUG_VALUE: mbedtls_ecp_gen_privkey:p_rng <- $r5
	@DEBUG_VALUE: mbedtls_ecp_gen_privkey:n_size <- [DW_OP_plus_uconst 24] [$sp+0]
	.loc	1 2820 13 is_stmt 1             @ ../../../ThirdParty/mbedTLS/library/ecp.c:2820:13
	mov	r0, r6
	ldr	r1, [sp, #24]                   @ 4-byte Reload
	mov	r7, r4
	mov	r2, r4
	mov	r3, r5
	bl	mbedtls_mpi_fill_random
.Ltmp751:
	@DEBUG_VALUE: mbedtls_ecp_gen_privkey:ret <- $r0
	.loc	1 2820 13 is_stmt 0             @ ../../../ThirdParty/mbedTLS/library/ecp.c:2820:13
	cbnz	r0, .LBB38_10
.Ltmp752:
@ %bb.3:                                @   in Loop: Header=BB38_2 Depth=1
	@DEBUG_VALUE: mbedtls_ecp_gen_privkey:grp <- [DW_OP_plus_uconst 16] [$sp+0]
	@DEBUG_VALUE: mbedtls_ecp_gen_privkey:d <- $r6
	@DEBUG_VALUE: mbedtls_ecp_gen_privkey:p_rng <- $r5
	@DEBUG_VALUE: mbedtls_ecp_gen_privkey:ret <- $r0
	@DEBUG_VALUE: mbedtls_ecp_gen_privkey:n_size <- [DW_OP_plus_uconst 24] [$sp+0]
	.loc	1 2821 18 is_stmt 1             @ ../../../ThirdParty/mbedTLS/library/ecp.c:2821:18
	mov	r0, r6
.Ltmp753:
	bl	mbedtls_mpi_bitlen
.Ltmp754:
	.loc	1 2821 9 is_stmt 0              @ ../../../ThirdParty/mbedTLS/library/ecp.c:2821:9
	cmp	r0, #0
	mov	r4, r7
	beq	.LBB38_2
.Ltmp755:
@ %bb.4:
	@DEBUG_VALUE: mbedtls_ecp_gen_privkey:grp <- [DW_OP_plus_uconst 16] [$sp+0]
	@DEBUG_VALUE: mbedtls_ecp_gen_privkey:d <- $r6
	@DEBUG_VALUE: mbedtls_ecp_gen_privkey:p_rng <- $r5
	@DEBUG_VALUE: mbedtls_ecp_gen_privkey:n_size <- [DW_OP_plus_uconst 24] [$sp+0]
	.loc	1 2824 13 is_stmt 1             @ ../../../ThirdParty/mbedTLS/library/ecp.c:2824:13
	mov	r0, r6
	bl	mbedtls_mpi_bitlen
.Ltmp756:
	.loc	1 2825 22                       @ ../../../ThirdParty/mbedTLS/library/ecp.c:2825:22
	ldr	r1, [sp, #16]                   @ 4-byte Reload
.Ltmp757:
	@DEBUG_VALUE: mbedtls_ecp_gen_privkey:grp <- $r1
	ldr	r1, [r1, #92]
.Ltmp758:
	.loc	1 2824 37                       @ ../../../ThirdParty/mbedTLS/library/ecp.c:2824:37
	subs	r0, r0, #1
.Ltmp759:
	@DEBUG_VALUE: b <- $r0
	.loc	1 2825 13                       @ ../../../ThirdParty/mbedTLS/library/ecp.c:2825:13
	cmp	r0, r1
	bls	.LBB38_7
.Ltmp760:
@ %bb.5:
	@DEBUG_VALUE: mbedtls_ecp_gen_privkey:d <- $r6
	@DEBUG_VALUE: mbedtls_ecp_gen_privkey:p_rng <- $r5
	@DEBUG_VALUE: b <- $r0
	@DEBUG_VALUE: mbedtls_ecp_gen_privkey:n_size <- [DW_OP_plus_uconst 24] [$sp+0]
	.loc	1 2826 13                       @ ../../../ThirdParty/mbedTLS/library/ecp.c:2826:13
	subs	r1, r0, r1
	mov	r0, r6
.Ltmp761:
	bl	mbedtls_mpi_shift_r
.Ltmp762:
	@DEBUG_VALUE: mbedtls_ecp_gen_privkey:ret <- $r0
	.loc	1 0 13 is_stmt 0                @ ../../../ThirdParty/mbedTLS/library/ecp.c:0:13
	cbnz	r0, .LBB38_10
	b	.LBB38_8
.Ltmp763:
.LBB38_6:
	@DEBUG_VALUE: mbedtls_ecp_gen_privkey:grp <- [DW_OP_plus_uconst 16] [$sp+0]
	@DEBUG_VALUE: mbedtls_ecp_gen_privkey:d <- $r6
	@DEBUG_VALUE: mbedtls_ecp_gen_privkey:p_rng <- $r5
	@DEBUG_VALUE: mbedtls_ecp_gen_privkey:f_rng <- $r4
	@DEBUG_VALUE: mbedtls_ecp_gen_privkey:n_size <- [DW_OP_plus_uconst 24] [$sp+0]
	@DEBUG_VALUE: mbedtls_ecp_gen_privkey:ret <- -20352
	mov	r7, r4
.Ltmp764:
	@DEBUG_VALUE: mbedtls_ecp_gen_privkey:f_rng <- $r7
	ldr	r4, __arm_cp.38_0
	b	.LBB38_13
.Ltmp765:
.LBB38_7:
	@DEBUG_VALUE: mbedtls_ecp_gen_privkey:d <- $r6
	@DEBUG_VALUE: mbedtls_ecp_gen_privkey:p_rng <- $r5
	@DEBUG_VALUE: b <- $r0
	@DEBUG_VALUE: mbedtls_ecp_gen_privkey:n_size <- [DW_OP_plus_uconst 24] [$sp+0]
	movs	r2, #1
.Ltmp766:
	.loc	1 2828 13 is_stmt 1             @ ../../../ThirdParty/mbedTLS/library/ecp.c:2828:13
	mov	r0, r6
.Ltmp767:
	bl	mbedtls_mpi_set_bit
.Ltmp768:
