	.text
	.syntax unified
	.eabi_attribute	67, "2.09"	@ Tag_conformance
	.cpu	cortex-m23
	.eabi_attribute	6, 16	@ Tag_CPU_arch
	.eabi_attribute	7, 77	@ Tag_CPU_arch_profile
	.eabi_attribute	8, 0	@ Tag_ARM_ISA_use
	.eabi_attribute	9, 3	@ Tag_THUMB_ISA_use
	.eabi_attribute	34, 0	@ Tag_CPU_unaligned_access
	.eabi_attribute	17, 1	@ Tag_ABI_PCS_GOT_use
	.eabi_attribute	20, 2	@ Tag_ABI_FP_denormal
	.eabi_attribute	21, 0	@ Tag_ABI_FP_exceptions
	.eabi_attribute	23, 1	@ Tag_ABI_FP_number_model
	.eabi_attribute	24, 1	@ Tag_ABI_align_needed
	.eabi_attribute	25, 1	@ Tag_ABI_align_preserved
	.eabi_attribute	38, 1	@ Tag_ABI_FP_16bit_format
	.eabi_attribute	18, 2	@ Tag_ABI_PCS_wchar_t
	.eabi_attribute	26, 1	@ Tag_ABI_enum_size
	.eabi_attribute	14, 0	@ Tag_ABI_PCS_R9_use
	.file	"ecp_curves.c"
	.file	1 "C:\\" "Keil_v5\\ARM\\ARMCLANG\\Bin\\..\\include\\stdint.h"
	.file	2 "C:\\Users\\shw26\\OneDrive\\Desktop\\2021\\2021-1\\\354\272\241\354\212\244\355\206\244\353\224\224\354\236\220\354\235\2702\\Nuvoton\\M2351_BSP_v3.00.004\\M2351Series_BSP_CMSIS_V3.00.004\\MyProject\\PulseMonitoring\\Secure" "../../../ThirdParty/mbedTLS/include/mbedtls/bignum.h"
	.file	3 "C:\\Users\\shw26\\OneDrive\\Desktop\\2021\\2021-1\\\354\272\241\354\212\244\355\206\244\353\224\224\354\236\220\354\235\2702\\Nuvoton\\M2351_BSP_v3.00.004\\M2351Series_BSP_CMSIS_V3.00.004\\MyProject\\PulseMonitoring\\Secure" "../../../ThirdParty/mbedTLS/library/ecp_curves.c"
	.file	4 "C:\\Users\\shw26\\OneDrive\\Desktop\\2021\\2021-1\\\354\272\241\354\212\244\355\206\244\353\224\224\354\236\220\354\235\2702\\Nuvoton\\M2351_BSP_v3.00.004\\M2351Series_BSP_CMSIS_V3.00.004\\MyProject\\PulseMonitoring\\Secure" "../../../ThirdParty/mbedTLS/include/mbedtls\\ecp.h"
	.section	.text.mbedtls_ecp_group_load,"ax",%progbits
	.hidden	mbedtls_ecp_group_load          @ -- Begin function mbedtls_ecp_group_load
	.globl	mbedtls_ecp_group_load
	.p2align	2
	.type	mbedtls_ecp_group_load,%function
	.code	16                              @ @mbedtls_ecp_group_load
	.thumb_func
mbedtls_ecp_group_load:
.Lfunc_begin0:
	.loc	3 755 0                         @ ../../../ThirdParty/mbedTLS/library/ecp_curves.c:755:0
	.fnstart
	.cfi_sections .debug_frame
	.cfi_startproc
@ %bb.0:
	@DEBUG_VALUE: mbedtls_ecp_group_load:grp <- $r0
	@DEBUG_VALUE: mbedtls_ecp_group_load:id <- $r1
	.save	{r4, r5, r7, lr}
	push	{r4, r5, r7, lr}
	.cfi_def_cfa_offset 16
	.cfi_offset lr, -4
	.cfi_offset r7, -8
	.cfi_offset r5, -12
	.cfi_offset r4, -16
	.pad	#40
	sub	sp, #40
	.cfi_def_cfa_offset 56
	mov	r5, r1
	mov	r4, r0
.Ltmp0:
	@DEBUG_VALUE: mbedtls_ecp_group_load:id <- $r5
	@DEBUG_VALUE: mbedtls_ecp_group_load:grp <- $r4
	.loc	3 757 5 prologue_end            @ ../../../ThirdParty/mbedTLS/library/ecp_curves.c:757:5
	bl	mbedtls_ecp_group_free
	.loc	3 759 13                        @ ../../../ThirdParty/mbedTLS/library/ecp_curves.c:759:13
	strb	r5, [r4]
	.loc	3 761 5                         @ ../../../ThirdParty/mbedTLS/library/ecp_curves.c:761:5
	subs	r0, r5, #1
	cmp	r0, #12
	bhi	.LBB0_4
.Ltmp1:
@ %bb.1:
	@DEBUG_VALUE: mbedtls_ecp_group_load:id <- $r5
	@DEBUG_VALUE: mbedtls_ecp_group_load:grp <- $r4
	.loc	3 0 5 is_stmt 0                 @ ../../../ThirdParty/mbedTLS/library/ecp_curves.c:0:5
	lsls	r1, r0, #2
	adr	r2, .LJTI0_0
	adds	r1, r2, r1
	mov	pc, r1
.Ltmp2:
@ %bb.2:
	.p2align	2
.LJTI0_0:
	b.w	.LBB0_3
	b.w	.LBB0_5
	b.w	.LBB0_6
	b.w	.LBB0_7
	b.w	.LBB0_8
	b.w	.LBB0_9
	b.w	.LBB0_10
	b.w	.LBB0_11
	b.w	.LBB0_12
	b.w	.LBB0_13
	b.w	.LBB0_14
	b.w	.LBB0_15
	b.w	.LBB0_16
.LBB0_3:
.Ltmp3:
	@DEBUG_VALUE: mbedtls_ecp_group_load:id <- $r5
	@DEBUG_VALUE: mbedtls_ecp_group_load:grp <- $r4
	.loc	3 765 9 is_stmt 1               @ ../../../ThirdParty/mbedTLS/library/ecp_curves.c:765:9
	ldr	r0, __arm_cp.0_65
	str	r0, [r4, #100]
	movs	r2, #24
	.loc	3 766 17                        @ ../../../ThirdParty/mbedTLS/library/ecp_curves.c:766:17
	str	r2, [sp, #32]
	ldr	r0, __arm_cp.0_66
	str	r0, [sp, #28]
	str	r2, [sp, #24]
	ldr	r0, __arm_cp.0_67
	str	r0, [sp, #20]
	str	r2, [sp, #16]
	ldr	r0, __arm_cp.0_68
	str	r0, [sp, #12]
	str	r2, [sp, #8]
	ldr	r0, __arm_cp.0_69
	str	r0, [sp, #4]
	movs	r5, #0
.Ltmp4:
	str	r5, [sp]
	ldr	r1, __arm_cp.0_70
	mov	r0, r4
	mov	r3, r5
	bl	ecp_group_load
	.loc	3 766 9 is_stmt 0               @ ../../../ThirdParty/mbedTLS/library/ecp_curves.c:766:9
	b	.LBB0_17
.Ltmp5:
.LBB0_4:
	@DEBUG_VALUE: mbedtls_ecp_group_load:id <- $r5
	@DEBUG_VALUE: mbedtls_ecp_group_load:grp <- $r4
	.loc	3 839 9 is_stmt 1               @ ../../../ThirdParty/mbedTLS/library/ecp_curves.c:839:9
	mov	r0, r4
	bl	mbedtls_ecp_group_free
	ldr	r5, __arm_cp.0_71
.Ltmp6:
	.loc	3 0 9 is_stmt 0                 @ ../../../ThirdParty/mbedTLS/library/ecp_curves.c:0:9
	b	.LBB0_17
.Ltmp7:
.LBB0_5:
	@DEBUG_VALUE: mbedtls_ecp_group_load:id <- $r5
	@DEBUG_VALUE: mbedtls_ecp_group_load:grp <- $r4
	.loc	3 771 9 is_stmt 1               @ ../../../ThirdParty/mbedTLS/library/ecp_curves.c:771:9
	ldr	r0, __arm_cp.0_59
	str	r0, [r4, #100]
	movs	r0, #28
	.loc	3 772 17                        @ ../../../ThirdParty/mbedTLS/library/ecp_curves.c:772:17
	str	r0, [sp, #32]
	ldr	r1, __arm_cp.0_60
	str	r1, [sp, #28]
	str	r0, [sp, #24]
	ldr	r1, __arm_cp.0_61
	str	r1, [sp, #20]
	str	r0, [sp, #16]
	ldr	r1, __arm_cp.0_62
	str	r1, [sp, #12]
	str	r0, [sp, #8]
	ldr	r0, __arm_cp.0_63
	str	r0, [sp, #4]
	movs	r5, #0
.Ltmp8:
	str	r5, [sp]
	ldr	r1, __arm_cp.0_64
	movs	r2, #32
	mov	r0, r4
	mov	r3, r5
	bl	ecp_group_load
	.loc	3 772 9 is_stmt 0               @ ../../../ThirdParty/mbedTLS/library/ecp_curves.c:772:9
	b	.LBB0_17
.Ltmp9:
.LBB0_6:
	@DEBUG_VALUE: mbedtls_ecp_group_load:id <- $r5
	@DEBUG_VALUE: mbedtls_ecp_group_load:grp <- $r4
	.loc	3 777 9 is_stmt 1               @ ../../../ThirdParty/mbedTLS/library/ecp_curves.c:777:9
	ldr	r0, __arm_cp.0_53
	str	r0, [r4, #100]
	movs	r2, #32
	.loc	3 778 17                        @ ../../../ThirdParty/mbedTLS/library/ecp_curves.c:778:17
	str	r2, [sp, #32]
	ldr	r0, __arm_cp.0_54
	str	r0, [sp, #28]
	str	r2, [sp, #24]
	ldr	r0, __arm_cp.0_55
	str	r0, [sp, #20]
	str	r2, [sp, #16]
	ldr	r0, __arm_cp.0_56
	str	r0, [sp, #12]
	str	r2, [sp, #8]
	ldr	r0, __arm_cp.0_57
	str	r0, [sp, #4]
	movs	r5, #0
.Ltmp10:
	str	r5, [sp]
	ldr	r1, __arm_cp.0_58
	mov	r0, r4
	mov	r3, r5
	bl	ecp_group_load
	.loc	3 778 9 is_stmt 0               @ ../../../ThirdParty/mbedTLS/library/ecp_curves.c:778:9
	b	.LBB0_17
.Ltmp11:
.LBB0_7:
	@DEBUG_VALUE: mbedtls_ecp_group_load:id <- $r5
	@DEBUG_VALUE: mbedtls_ecp_group_load:grp <- $r4
	.loc	3 783 9 is_stmt 1               @ ../../../ThirdParty/mbedTLS/library/ecp_curves.c:783:9
	ldr	r0, __arm_cp.0_47
	str	r0, [r4, #100]
	movs	r2, #48
	.loc	3 784 17                        @ ../../../ThirdParty/mbedTLS/library/ecp_curves.c:784:17
	str	r2, [sp, #32]
	ldr	r0, __arm_cp.0_48
	str	r0, [sp, #28]
	str	r2, [sp, #24]
	ldr	r0, __arm_cp.0_49
	str	r0, [sp, #20]
	str	r2, [sp, #16]
	ldr	r0, __arm_cp.0_50
	str	r0, [sp, #12]
	str	r2, [sp, #8]
	ldr	r0, __arm_cp.0_51
	str	r0, [sp, #4]
	movs	r5, #0
.Ltmp12:
	str	r5, [sp]
	ldr	r1, __arm_cp.0_52
	mov	r0, r4
	mov	r3, r5
	bl	ecp_group_load
	.loc	3 784 9 is_stmt 0               @ ../../../ThirdParty/mbedTLS/library/ecp_curves.c:784:9
	b	.LBB0_17
.Ltmp13:
.LBB0_8:
	@DEBUG_VALUE: mbedtls_ecp_group_load:id <- $r5
	@DEBUG_VALUE: mbedtls_ecp_group_load:grp <- $r4
	.loc	3 789 9 is_stmt 1               @ ../../../ThirdParty/mbedTLS/library/ecp_curves.c:789:9
	ldr	r0, __arm_cp.0_41
	str	r0, [r4, #100]
	movs	r2, #68
	.loc	3 790 17                        @ ../../../ThirdParty/mbedTLS/library/ecp_curves.c:790:17
	str	r2, [sp, #32]
	ldr	r0, __arm_cp.0_42
	str	r0, [sp, #28]
	str	r2, [sp, #24]
	ldr	r0, __arm_cp.0_43
	str	r0, [sp, #20]
	str	r2, [sp, #16]
	ldr	r0, __arm_cp.0_44
	str	r0, [sp, #12]
	str	r2, [sp, #8]
	ldr	r0, __arm_cp.0_45
	str	r0, [sp, #4]
	movs	r5, #0
.Ltmp14:
	str	r5, [sp]
	ldr	r1, __arm_cp.0_46
	mov	r0, r4
	mov	r3, r5
	bl	ecp_group_load
	.loc	3 790 9 is_stmt 0               @ ../../../ThirdParty/mbedTLS/library/ecp_curves.c:790:9
	b	.LBB0_17
.Ltmp15:
.LBB0_9:
	@DEBUG_VALUE: mbedtls_ecp_group_load:id <- $r5
	@DEBUG_VALUE: mbedtls_ecp_group_load:grp <- $r4
	.loc	3 0 9                           @ ../../../ThirdParty/mbedTLS/library/ecp_curves.c:0:9
	movs	r2, #32
	.loc	3 813 17 is_stmt 1              @ ../../../ThirdParty/mbedTLS/library/ecp_curves.c:813:17
	str	r2, [sp, #32]
	ldr	r0, __arm_cp.0_14
	str	r0, [sp, #28]
	str	r2, [sp, #24]
	ldr	r0, __arm_cp.0_15
	str	r0, [sp, #20]
	str	r2, [sp, #16]
	ldr	r0, __arm_cp.0_16
	str	r0, [sp, #12]
	str	r2, [sp, #8]
	ldr	r0, __arm_cp.0_17
	str	r0, [sp, #4]
	str	r2, [sp]
	ldr	r1, __arm_cp.0_18
	ldr	r3, __arm_cp.0_19
	mov	r0, r4
	bl	ecp_group_load
	movs	r5, #0
.Ltmp16:
	.loc	3 813 9 is_stmt 0               @ ../../../ThirdParty/mbedTLS/library/ecp_curves.c:813:9
	b	.LBB0_17
.Ltmp17:
.LBB0_10:
	@DEBUG_VALUE: mbedtls_ecp_group_load:id <- $r5
	@DEBUG_VALUE: mbedtls_ecp_group_load:grp <- $r4
	.loc	3 0 9                           @ ../../../ThirdParty/mbedTLS/library/ecp_curves.c:0:9
	movs	r2, #48
	.loc	3 818 17 is_stmt 1              @ ../../../ThirdParty/mbedTLS/library/ecp_curves.c:818:17
	str	r2, [sp, #32]
	ldr	r0, __arm_cp.0_8
	str	r0, [sp, #28]
	str	r2, [sp, #24]
	ldr	r0, __arm_cp.0_9
	str	r0, [sp, #20]
	str	r2, [sp, #16]
	ldr	r0, __arm_cp.0_10
	str	r0, [sp, #12]
	str	r2, [sp, #8]
	ldr	r0, __arm_cp.0_11
	str	r0, [sp, #4]
	str	r2, [sp]
	ldr	r1, __arm_cp.0_12
	ldr	r3, __arm_cp.0_13
	mov	r0, r4
	bl	ecp_group_load
	movs	r5, #0
.Ltmp18:
	.loc	3 818 9 is_stmt 0               @ ../../../ThirdParty/mbedTLS/library/ecp_curves.c:818:9
	b	.LBB0_17
.Ltmp19:
.LBB0_11:
	@DEBUG_VALUE: mbedtls_ecp_group_load:id <- $r5
	@DEBUG_VALUE: mbedtls_ecp_group_load:grp <- $r4
	.loc	3 0 9                           @ ../../../ThirdParty/mbedTLS/library/ecp_curves.c:0:9
	movs	r2, #64
	.loc	3 823 17 is_stmt 1              @ ../../../ThirdParty/mbedTLS/library/ecp_curves.c:823:17
	str	r2, [sp, #32]
	ldr	r0, __arm_cp.0_2
	str	r0, [sp, #28]
	str	r2, [sp, #24]
	ldr	r0, __arm_cp.0_3
	str	r0, [sp, #20]
	str	r2, [sp, #16]
	ldr	r0, __arm_cp.0_4
	str	r0, [sp, #12]
	str	r2, [sp, #8]
	ldr	r0, __arm_cp.0_5
	str	r0, [sp, #4]
	str	r2, [sp]
	ldr	r1, __arm_cp.0_6
	ldr	r3, __arm_cp.0_7
	mov	r0, r4
	bl	ecp_group_load
	movs	r5, #0
.Ltmp20:
	.loc	3 823 9 is_stmt 0               @ ../../../ThirdParty/mbedTLS/library/ecp_curves.c:823:9
	b	.LBB0_17
.Ltmp21:
.LBB0_12:
	@DEBUG_VALUE: mbedtls_ecp_group_load:id <- $r5
	@DEBUG_VALUE: mbedtls_ecp_group_load:grp <- $r4
	.loc	3 828 19 is_stmt 1              @ ../../../ThirdParty/mbedTLS/library/ecp_curves.c:828:19
	ldr	r0, __arm_cp.0_1
	str	r0, [r4, #100]
	.loc	3 829 17                        @ ../../../ThirdParty/mbedTLS/library/ecp_curves.c:829:17
	mov	r0, r4
	bl	ecp_use_curve25519
	mov	r5, r0
.Ltmp22:
	.loc	3 829 9 is_stmt 0               @ ../../../ThirdParty/mbedTLS/library/ecp_curves.c:829:9
	b	.LBB0_17
.Ltmp23:
.LBB0_13:
	@DEBUG_VALUE: mbedtls_ecp_group_load:id <- $r5
	@DEBUG_VALUE: mbedtls_ecp_group_load:grp <- $r4
	.loc	3 795 19 is_stmt 1              @ ../../../ThirdParty/mbedTLS/library/ecp_curves.c:795:19
	ldr	r0, __arm_cp.0_34
	str	r0, [r4, #100]
	movs	r2, #24
	.loc	3 796 17                        @ ../../../ThirdParty/mbedTLS/library/ecp_curves.c:796:17
	str	r2, [sp, #32]
	ldr	r0, __arm_cp.0_35
	str	r0, [sp, #28]
	str	r2, [sp, #24]
	ldr	r0, __arm_cp.0_36
	str	r0, [sp, #20]
	str	r2, [sp, #16]
	ldr	r0, __arm_cp.0_37
	str	r0, [sp, #12]
	movs	r0, #4
	str	r0, [sp, #8]
	ldr	r1, __arm_cp.0_38
	str	r1, [sp, #4]
	str	r0, [sp]
	ldr	r1, __arm_cp.0_39
	ldr	r3, __arm_cp.0_40
	mov	r0, r4
	bl	ecp_group_load
	movs	r5, #0
.Ltmp24:
	.loc	3 796 9 is_stmt 0               @ ../../../ThirdParty/mbedTLS/library/ecp_curves.c:796:9
	b	.LBB0_17
.Ltmp25:
.LBB0_14:
	@DEBUG_VALUE: mbedtls_ecp_group_load:id <- $r5
	@DEBUG_VALUE: mbedtls_ecp_group_load:grp <- $r4
	.loc	3 801 19 is_stmt 1              @ ../../../ThirdParty/mbedTLS/library/ecp_curves.c:801:19
	ldr	r0, __arm_cp.0_27
	str	r0, [r4, #100]
	movs	r0, #32
	.loc	3 802 17                        @ ../../../ThirdParty/mbedTLS/library/ecp_curves.c:802:17
	str	r0, [sp, #32]
	ldr	r0, __arm_cp.0_28
	str	r0, [sp, #28]
	movs	r2, #28
	str	r2, [sp, #24]
	ldr	r0, __arm_cp.0_29
	str	r0, [sp, #20]
	str	r2, [sp, #16]
	ldr	r0, __arm_cp.0_30
	str	r0, [sp, #12]
	movs	r0, #4
	str	r0, [sp, #8]
	ldr	r1, __arm_cp.0_31
	str	r1, [sp, #4]
	str	r0, [sp]
	ldr	r1, __arm_cp.0_32
	ldr	r3, __arm_cp.0_33
	mov	r0, r4
	bl	ecp_group_load
	movs	r5, #0
.Ltmp26:
	.loc	3 802 9 is_stmt 0               @ ../../../ThirdParty/mbedTLS/library/ecp_curves.c:802:9
	b	.LBB0_17
.Ltmp27:
.LBB0_15:
	@DEBUG_VALUE: mbedtls_ecp_group_load:id <- $r5
	@DEBUG_VALUE: mbedtls_ecp_group_load:grp <- $r4
	.loc	3 807 19 is_stmt 1              @ ../../../ThirdParty/mbedTLS/library/ecp_curves.c:807:19
	ldr	r0, __arm_cp.0_20
	str	r0, [r4, #100]
	movs	r2, #32
	.loc	3 808 17                        @ ../../../ThirdParty/mbedTLS/library/ecp_curves.c:808:17
	str	r2, [sp, #32]
	ldr	r0, __arm_cp.0_21
	str	r0, [sp, #28]
	str	r2, [sp, #24]
	ldr	r0, __arm_cp.0_22
	str	r0, [sp, #20]
	str	r2, [sp, #16]
	ldr	r0, __arm_cp.0_23
	str	r0, [sp, #12]
	movs	r0, #4
	str	r0, [sp, #8]
	ldr	r1, __arm_cp.0_24
	str	r1, [sp, #4]
	str	r0, [sp]
	ldr	r1, __arm_cp.0_25
	ldr	r3, __arm_cp.0_26
	mov	r0, r4
	bl	ecp_group_load
	movs	r5, #0
.Ltmp28:
	.loc	3 808 9 is_stmt 0               @ ../../../ThirdParty/mbedTLS/library/ecp_curves.c:808:9
	b	.LBB0_17
.Ltmp29:
.LBB0_16:
	@DEBUG_VALUE: mbedtls_ecp_group_load:id <- $r5
	@DEBUG_VALUE: mbedtls_ecp_group_load:grp <- $r4
	.loc	3 834 19 is_stmt 1              @ ../../../ThirdParty/mbedTLS/library/ecp_curves.c:834:19
	ldr	r0, __arm_cp.0_0
	str	r0, [r4, #100]
	.loc	3 835 17                        @ ../../../ThirdParty/mbedTLS/library/ecp_curves.c:835:17
	mov	r0, r4
	bl	ecp_use_curve448
	mov	r5, r0
.Ltmp30:
.LBB0_17:
	@DEBUG_VALUE: mbedtls_ecp_group_load:grp <- $r4
	.loc	3 842 1                         @ ../../../ThirdParty/mbedTLS/library/ecp_curves.c:842:1
	mov	r0, r5
	add	sp, #40
	pop	{r4, r5, r7, pc}
.Ltmp31:
	.p2align	2
@ %bb.18:
	.loc	3 0 1 is_stmt 0                 @ ../../../ThirdParty/mbedTLS/library/ecp_curves.c:0:1
__arm_cp.0_0:
	.long	ecp_mod_p448
.Lcpi_end0:
	.size	__arm_cp.0_0, .Lcpi_end0-__arm_cp.0_0
__arm_cp.0_1:
	.long	ecp_mod_p255
.Lcpi_end1:
	.size	__arm_cp.0_1, .Lcpi_end1-__arm_cp.0_1
__arm_cp.0_2:
	.long	brainpoolP512r1_n
.Lcpi_end2:
	.size	__arm_cp.0_2, .Lcpi_end2-__arm_cp.0_2
__arm_cp.0_3:
	.long	brainpoolP512r1_gy
.Lcpi_end3:
	.size	__arm_cp.0_3, .Lcpi_end3-__arm_cp.0_3
__arm_cp.0_4:
	.long	brainpoolP512r1_gx
.Lcpi_end4:
	.size	__arm_cp.0_4, .Lcpi_end4-__arm_cp.0_4
__arm_cp.0_5:
	.long	brainpoolP512r1_b
.Lcpi_end5:
	.size	__arm_cp.0_5, .Lcpi_end5-__arm_cp.0_5
__arm_cp.0_6:
	.long	brainpoolP512r1_p
.Lcpi_end6:
	.size	__arm_cp.0_6, .Lcpi_end6-__arm_cp.0_6
__arm_cp.0_7:
	.long	brainpoolP512r1_a
.Lcpi_end7:
	.size	__arm_cp.0_7, .Lcpi_end7-__arm_cp.0_7
__arm_cp.0_8:
	.long	brainpoolP384r1_n
.Lcpi_end8:
	.size	__arm_cp.0_8, .Lcpi_end8-__arm_cp.0_8
__arm_cp.0_9:
	.long	brainpoolP384r1_gy
.Lcpi_end9:
	.size	__arm_cp.0_9, .Lcpi_end9-__arm_cp.0_9
__arm_cp.0_10:
	.long	brainpoolP384r1_gx
.Lcpi_end10:
	.size	__arm_cp.0_10, .Lcpi_end10-__arm_cp.0_10
__arm_cp.0_11:
	.long	brainpoolP384r1_b
.Lcpi_end11:
	.size	__arm_cp.0_11, .Lcpi_end11-__arm_cp.0_11
__arm_cp.0_12:
	.long	brainpoolP384r1_p
.Lcpi_end12:
	.size	__arm_cp.0_12, .Lcpi_end12-__arm_cp.0_12
__arm_cp.0_13:
	.long	brainpoolP384r1_a
.Lcpi_end13:
	.size	__arm_cp.0_13, .Lcpi_end13-__arm_cp.0_13
__arm_cp.0_14:
	.long	brainpoolP256r1_n
.Lcpi_end14:
	.size	__arm_cp.0_14, .Lcpi_end14-__arm_cp.0_14
__arm_cp.0_15:
	.long	brainpoolP256r1_gy
.Lcpi_end15:
	.size	__arm_cp.0_15, .Lcpi_end15-__arm_cp.0_15
__arm_cp.0_16:
	.long	brainpoolP256r1_gx
.Lcpi_end16:
	.size	__arm_cp.0_16, .Lcpi_end16-__arm_cp.0_16
__arm_cp.0_17:
	.long	brainpoolP256r1_b
.Lcpi_end17:
	.size	__arm_cp.0_17, .Lcpi_end17-__arm_cp.0_17
__arm_cp.0_18:
	.long	brainpoolP256r1_p
.Lcpi_end18:
	.size	__arm_cp.0_18, .Lcpi_end18-__arm_cp.0_18
__arm_cp.0_19:
	.long	brainpoolP256r1_a
.Lcpi_end19:
	.size	__arm_cp.0_19, .Lcpi_end19-__arm_cp.0_19
__arm_cp.0_20:
	.long	ecp_mod_p256k1
.Lcpi_end20:
	.size	__arm_cp.0_20, .Lcpi_end20-__arm_cp.0_20
__arm_cp.0_21:
	.long	secp256k1_n
.Lcpi_end21:
	.size	__arm_cp.0_21, .Lcpi_end21-__arm_cp.0_21
__arm_cp.0_22:
	.long	secp256k1_gy
.Lcpi_end22:
	.size	__arm_cp.0_22, .Lcpi_end22-__arm_cp.0_22
__arm_cp.0_23:
	.long	secp256k1_gx
.Lcpi_end23:
	.size	__arm_cp.0_23, .Lcpi_end23-__arm_cp.0_23
__arm_cp.0_24:
	.long	secp256k1_b
.Lcpi_end24:
	.size	__arm_cp.0_24, .Lcpi_end24-__arm_cp.0_24
__arm_cp.0_25:
	.long	secp256k1_p
.Lcpi_end25:
	.size	__arm_cp.0_25, .Lcpi_end25-__arm_cp.0_25
__arm_cp.0_26:
	.long	secp256k1_a
.Lcpi_end26:
	.size	__arm_cp.0_26, .Lcpi_end26-__arm_cp.0_26
__arm_cp.0_27:
	.long	ecp_mod_p224k1
.Lcpi_end27:
	.size	__arm_cp.0_27, .Lcpi_end27-__arm_cp.0_27
__arm_cp.0_28:
	.long	secp224k1_n
.Lcpi_end28:
	.size	__arm_cp.0_28, .Lcpi_end28-__arm_cp.0_28
__arm_cp.0_29:
	.long	secp224k1_gy
.Lcpi_end29:
	.size	__arm_cp.0_29, .Lcpi_end29-__arm_cp.0_29
__arm_cp.0_30:
	.long	secp224k1_gx
.Lcpi_end30:
	.size	__arm_cp.0_30, .Lcpi_end30-__arm_cp.0_30
__arm_cp.0_31:
	.long	secp224k1_b
.Lcpi_end31:
	.size	__arm_cp.0_31, .Lcpi_end31-__arm_cp.0_31
__arm_cp.0_32:
	.long	secp224k1_p
.Lcpi_end32:
	.size	__arm_cp.0_32, .Lcpi_end32-__arm_cp.0_32
__arm_cp.0_33:
	.long	secp224k1_a
.Lcpi_end33:
	.size	__arm_cp.0_33, .Lcpi_end33-__arm_cp.0_33
__arm_cp.0_34:
	.long	ecp_mod_p192k1
.Lcpi_end34:
	.size	__arm_cp.0_34, .Lcpi_end34-__arm_cp.0_34
__arm_cp.0_35:
	.long	secp192k1_n
.Lcpi_end35:
	.size	__arm_cp.0_35, .Lcpi_end35-__arm_cp.0_35
__arm_cp.0_36:
	.long	secp192k1_gy
.Lcpi_end36:
	.size	__arm_cp.0_36, .Lcpi_end36-__arm_cp.0_36
__arm_cp.0_37:
	.long	secp192k1_gx
.Lcpi_end37:
	.size	__arm_cp.0_37, .Lcpi_end37-__arm_cp.0_37
__arm_cp.0_38:
	.long	secp192k1_b
.Lcpi_end38:
	.size	__arm_cp.0_38, .Lcpi_end38-__arm_cp.0_38
__arm_cp.0_39:
	.long	secp192k1_p
.Lcpi_end39:
	.size	__arm_cp.0_39, .Lcpi_end39-__arm_cp.0_39
__arm_cp.0_40:
	.long	secp192k1_a
.Lcpi_end40:
	.size	__arm_cp.0_40, .Lcpi_end40-__arm_cp.0_40
__arm_cp.0_41:
	.long	ecp_mod_p521
.Lcpi_end41:
	.size	__arm_cp.0_41, .Lcpi_end41-__arm_cp.0_41
__arm_cp.0_42:
	.long	secp521r1_n
.Lcpi_end42:
	.size	__arm_cp.0_42, .Lcpi_end42-__arm_cp.0_42
__arm_cp.0_43:
	.long	secp521r1_gy
.Lcpi_end43:
	.size	__arm_cp.0_43, .Lcpi_end43-__arm_cp.0_43
__arm_cp.0_44:
	.long	secp521r1_gx
.Lcpi_end44:
	.size	__arm_cp.0_44, .Lcpi_end44-__arm_cp.0_44
__arm_cp.0_45:
	.long	secp521r1_b
.Lcpi_end45:
	.size	__arm_cp.0_45, .Lcpi_end45-__arm_cp.0_45
__arm_cp.0_46:
	.long	secp521r1_p
.Lcpi_end46:
	.size	__arm_cp.0_46, .Lcpi_end46-__arm_cp.0_46
__arm_cp.0_47:
	.long	ecp_mod_p384
.Lcpi_end47:
	.size	__arm_cp.0_47, .Lcpi_end47-__arm_cp.0_47
__arm_cp.0_48:
	.long	secp384r1_n
.Lcpi_end48:
	.size	__arm_cp.0_48, .Lcpi_end48-__arm_cp.0_48
__arm_cp.0_49:
	.long	secp384r1_gy
.Lcpi_end49:
	.size	__arm_cp.0_49, .Lcpi_end49-__arm_cp.0_49
__arm_cp.0_50:
	.long	secp384r1_gx
.Lcpi_end50:
	.size	__arm_cp.0_50, .Lcpi_end50-__arm_cp.0_50
__arm_cp.0_51:
	.long	secp384r1_b
.Lcpi_end51:
	.size	__arm_cp.0_51, .Lcpi_end51-__arm_cp.0_51
__arm_cp.0_52:
	.long	secp384r1_p
.Lcpi_end52:
	.size	__arm_cp.0_52, .Lcpi_end52-__arm_cp.0_52
__arm_cp.0_53:
	.long	ecp_mod_p256
.Lcpi_end53:
	.size	__arm_cp.0_53, .Lcpi_end53-__arm_cp.0_53
__arm_cp.0_54:
	.long	secp256r1_n
.Lcpi_end54:
	.size	__arm_cp.0_54, .Lcpi_end54-__arm_cp.0_54
__arm_cp.0_55:
	.long	secp256r1_gy
.Lcpi_end55:
	.size	__arm_cp.0_55, .Lcpi_end55-__arm_cp.0_55
__arm_cp.0_56:
	.long	secp256r1_gx
.Lcpi_end56:
	.size	__arm_cp.0_56, .Lcpi_end56-__arm_cp.0_56
__arm_cp.0_57:
	.long	secp256r1_b
.Lcpi_end57:
	.size	__arm_cp.0_57, .Lcpi_end57-__arm_cp.0_57
__arm_cp.0_58:
	.long	secp256r1_p
.Lcpi_end58:
	.size	__arm_cp.0_58, .Lcpi_end58-__arm_cp.0_58
__arm_cp.0_59:
	.long	ecp_mod_p224
.Lcpi_end59:
	.size	__arm_cp.0_59, .Lcpi_end59-__arm_cp.0_59
__arm_cp.0_60:
	.long	secp224r1_n
.Lcpi_end60:
	.size	__arm_cp.0_60, .Lcpi_end60-__arm_cp.0_60
__arm_cp.0_61:
	.long	secp224r1_gy
.Lcpi_end61:
	.size	__arm_cp.0_61, .Lcpi_end61-__arm_cp.0_61
__arm_cp.0_62:
	.long	secp224r1_gx
.Lcpi_end62:
	.size	__arm_cp.0_62, .Lcpi_end62-__arm_cp.0_62
__arm_cp.0_63:
	.long	secp224r1_b
.Lcpi_end63:
	.size	__arm_cp.0_63, .Lcpi_end63-__arm_cp.0_63
__arm_cp.0_64:
	.long	secp224r1_p
.Lcpi_end64:
	.size	__arm_cp.0_64, .Lcpi_end64-__arm_cp.0_64
__arm_cp.0_65:
	.long	ecp_mod_p192
.Lcpi_end65:
	.size	__arm_cp.0_65, .Lcpi_end65-__arm_cp.0_65
__arm_cp.0_66:
	.long	secp192r1_n
.Lcpi_end66:
	.size	__arm_cp.0_66, .Lcpi_end66-__arm_cp.0_66
__arm_cp.0_67:
	.long	secp192r1_gy
.Lcpi_end67:
	.size	__arm_cp.0_67, .Lcpi_end67-__arm_cp.0_67
__arm_cp.0_68:
	.long	secp192r1_gx
.Lcpi_end68:
	.size	__arm_cp.0_68, .Lcpi_end68-__arm_cp.0_68
__arm_cp.0_69:
	.long	secp192r1_b
.Lcpi_end69:
	.size	__arm_cp.0_69, .Lcpi_end69-__arm_cp.0_69
__arm_cp.0_70:
	.long	secp192r1_p
.Lcpi_end70:
	.size	__arm_cp.0_70, .Lcpi_end70-__arm_cp.0_70
__arm_cp.0_71:
	.long	4294947200                      @ 0xffffb180
.Lcpi_end71:
	.size	__arm_cp.0_71, .Lcpi_end71-__arm_cp.0_71
.Lfunc_end0:
	.size	mbedtls_ecp_group_load, .Lfunc_end0-mbedtls_ecp_group_load
	.cfi_endproc
	.cantunwind
	.fnend
                                        @ -- End function
	.section	.text.ecp_mod_p192,"ax",%progbits
	.p2align	1                               @ -- Begin function ecp_mod_p192
	.type	ecp_mod_p192,%function
	.code	16                              @ @ecp_mod_p192
	.thumb_func
ecp_mod_p192:
.Lfunc_begin1:
	.loc	3 904 0 is_stmt 1               @ ../../../ThirdParty/mbedTLS/library/ecp_curves.c:904:0
	.fnstart
	.cfi_startproc
@ %bb.0:
	@DEBUG_VALUE: ecp_mod_p192:N <- $r0
	.save	{r4, r5, r6, r7, lr}
	push	{r4, r5, r6, r7, lr}
	.cfi_def_cfa_offset 20
	.cfi_offset lr, -4
	.cfi_offset r7, -8
	.cfi_offset r6, -12
	.cfi_offset r5, -16
	.cfi_offset r4, -20
	.pad	#12
	sub	sp, #12
	.cfi_def_cfa_offset 32
	mov	r6, r0
	movs	r0, #0
.Ltmp32:
	@DEBUG_VALUE: ecp_mod_p192:N <- [DW_OP_LLVM_entry_value 1] $r0
	@DEBUG_VALUE: ecp_mod_p192:c <- 0
	@DEBUG_VALUE: ecp_mod_p192:N <- $r6
	.loc	3 906 22 prologue_end           @ ../../../ThirdParty/mbedTLS/library/ecp_curves.c:906:22
	str	r0, [sp, #8]
	movs	r1, #12
.Ltmp33:
	.loc	3 910 5                         @ ../../../ThirdParty/mbedTLS/library/ecp_curves.c:910:5
	mov	r0, r6
	bl	mbedtls_mpi_grow
	mov	r5, r0
.Ltmp34:
	@DEBUG_VALUE: ecp_mod_p192:ret <- $r5
	.loc	3 910 5 is_stmt 0               @ ../../../ThirdParty/mbedTLS/library/ecp_curves.c:910:5
	cmp	r0, #0
	bne	.LBB1_5
.Ltmp35:
@ %bb.1:
	@DEBUG_VALUE: ecp_mod_p192:N <- $r6
	@DEBUG_VALUE: ecp_mod_p192:ret <- $r5
	@DEBUG_VALUE: ecp_mod_p192:c <- 0
	@DEBUG_VALUE: ecp_mod_p192:c <- [DW_OP_plus_uconst 8, DW_OP_deref] $sp
	@DEBUG_VALUE: ecp_mod_p192:p <- undef
	.loc	3 913 18 is_stmt 1              @ ../../../ThirdParty/mbedTLS/library/ecp_curves.c:913:18
	ldr	r0, [r6, #4]
	.loc	3 912 12                        @ ../../../ThirdParty/mbedTLS/library/ecp_curves.c:912:12
	str	r0, [sp]                        @ 4-byte Spill
	ldr	r4, [r6, #8]
	.loc	3 915 5                         @ ../../../ThirdParty/mbedTLS/library/ecp_curves.c:915:5
	mov	r1, r4
	adds	r1, #24
	add	r7, sp, #8
	mov	r0, r4
	mov	r2, r7
	bl	add64
	.loc	3 916 5                         @ ../../../ThirdParty/mbedTLS/library/ecp_curves.c:916:5
	ldr	r1, [r6, #8]
	adds	r1, #40
	mov	r0, r4
	mov	r2, r7
	bl	add64
	str	r5, [sp, #4]                    @ 4-byte Spill
.Ltmp36:
	@DEBUG_VALUE: ecp_mod_p192:ret <- [DW_OP_plus_uconst 4] [$sp+0]
	.loc	3 917 5                         @ ../../../ThirdParty/mbedTLS/library/ecp_curves.c:917:5
	mov	r5, r4
	adds	r5, #8
.Ltmp37:
	@DEBUG_VALUE: ecp_mod_p192:p <- $r5
	mov	r0, r5
	mov	r1, r7
	bl	carry64
	.loc	3 918 5                         @ ../../../ThirdParty/mbedTLS/library/ecp_curves.c:918:5
	ldr	r1, [r6, #8]
	adds	r1, #24
	mov	r0, r5
	mov	r2, r7
	bl	add64
	.loc	3 919 5                         @ ../../../ThirdParty/mbedTLS/library/ecp_curves.c:919:5
	ldr	r1, [r6, #8]
	adds	r1, #32
	mov	r0, r5
	mov	r2, r7
	bl	add64
	.loc	3 920 5                         @ ../../../ThirdParty/mbedTLS/library/ecp_curves.c:920:5
	ldr	r1, [r6, #8]
	adds	r1, #40
	mov	r0, r5
	mov	r2, r7
	bl	add64
	.loc	3 921 5                         @ ../../../ThirdParty/mbedTLS/library/ecp_curves.c:921:5
	mov	r5, r4
.Ltmp38:
	adds	r5, #16
.Ltmp39:
	@DEBUG_VALUE: ecp_mod_p192:p <- $r5
	mov	r0, r5
	mov	r1, r7
	bl	carry64
	.loc	3 922 5                         @ ../../../ThirdParty/mbedTLS/library/ecp_curves.c:922:5
	ldr	r1, [r6, #8]
	adds	r1, #32
	mov	r0, r5
	mov	r2, r7
	bl	add64
	.loc	3 923 5                         @ ../../../ThirdParty/mbedTLS/library/ecp_curves.c:923:5
	ldr	r1, [r6, #8]
	adds	r1, #40
	mov	r0, r5
	ldr	r5, [sp, #4]                    @ 4-byte Reload
.Ltmp40:
	@DEBUG_VALUE: ecp_mod_p192:ret <- $r5
	mov	r2, r7
	bl	add64
.Ltmp41:
	@DEBUG_VALUE: ecp_mod_p192:p <- undef
	.loc	3 924 5                         @ ../../../ThirdParty/mbedTLS/library/ecp_curves.c:924:5
	ldr	r0, [sp, #8]
.Ltmp42:
	@DEBUG_VALUE: ecp_mod_p192:c <- $r0
	str	r0, [r4, #24]
.Ltmp43:
	@DEBUG_VALUE: ecp_mod_p192:end <- undef
	@DEBUG_VALUE: ecp_mod_p192:p <- [DW_OP_plus_uconst 28, DW_OP_stack_value] $r4
	.loc	3 0 5 is_stmt 0                 @ ../../../ThirdParty/mbedTLS/library/ecp_curves.c:0:5
	ldr	r0, [sp]                        @ 4-byte Reload
.Ltmp44:
	.loc	3 924 5                         @ ../../../ThirdParty/mbedTLS/library/ecp_curves.c:924:5
	cmp	r0, #8
	blt	.LBB1_5
.Ltmp45:
@ %bb.2:
	@DEBUG_VALUE: ecp_mod_p192:N <- $r6
	@DEBUG_VALUE: ecp_mod_p192:ret <- $r5
	@DEBUG_VALUE: ecp_mod_p192:p <- [DW_OP_plus_uconst 28, DW_OP_stack_value] $r4
	.loc	3 0 0                           @ ../../../ThirdParty/mbedTLS/library/ecp_curves.c:0:0
	lsls	r0, r0, #2
	adds	r0, r4, r0
.Ltmp46:
	@DEBUG_VALUE: ecp_mod_p192:end <- $r0
	.loc	3 924 5                         @ ../../../ThirdParty/mbedTLS/library/ecp_curves.c:924:5
	mov	r1, r4
	adds	r1, #32
	cmp	r0, r1
	bhi	.LBB1_4
.Ltmp47:
@ %bb.3:
	@DEBUG_VALUE: ecp_mod_p192:N <- $r6
	@DEBUG_VALUE: ecp_mod_p192:ret <- $r5
	@DEBUG_VALUE: ecp_mod_p192:p <- [DW_OP_plus_uconst 28, DW_OP_stack_value] $r4
	@DEBUG_VALUE: ecp_mod_p192:end <- $r0
	mov	r0, r1
.Ltmp48:
.LBB1_4:
	@DEBUG_VALUE: ecp_mod_p192:N <- $r6
	@DEBUG_VALUE: ecp_mod_p192:ret <- $r5
	@DEBUG_VALUE: ecp_mod_p192:p <- [DW_OP_plus_uconst 28, DW_OP_stack_value] $r4
	mvns	r1, r4
	adds	r1, r0, r1
	subs	r1, #24
	movs	r0, #3
	bics	r1, r0
	adds	r4, #28
.Ltmp49:
	@DEBUG_VALUE: ecp_mod_p192:p <- $r4
	mov	r0, r4
	bl	__aeabi_memclr4
.Ltmp50:
	@DEBUG_VALUE: ecp_mod_p192:p <- undef
.LBB1_5:
	@DEBUG_VALUE: ecp_mod_p192:N <- $r6
	@DEBUG_VALUE: ecp_mod_p192:ret <- $r5
	@DEBUG_LABEL: ecp_mod_p192:cleanup
	.loc	3 927 5 is_stmt 1               @ ../../../ThirdParty/mbedTLS/library/ecp_curves.c:927:5
	mov	r0, r5
	add	sp, #12
	pop	{r4, r5, r6, r7, pc}
.Ltmp51:
.Lfunc_end1:
	.size	ecp_mod_p192, .Lfunc_end1-ecp_mod_p192
	.cfi_endproc
	.cantunwind
	.fnend
                                        @ -- End function
	.section	.text.ecp_group_load,"ax",%progbits
	.p2align	1                               @ -- Begin function ecp_group_load
	.type	ecp_group_load,%function
	.code	16                              @ @ecp_group_load
	.thumb_func
ecp_group_load:
.Lfunc_begin2:
	.loc	3 591 0                         @ ../../../ThirdParty/mbedTLS/library/ecp_curves.c:591:0
	.fnstart
	.cfi_startproc
@ %bb.0:
	@DEBUG_VALUE: ecp_group_load:grp <- $r0
	@DEBUG_VALUE: ecp_group_load:p <- $r1
	@DEBUG_VALUE: ecp_group_load:plen <- $r2
	@DEBUG_VALUE: ecp_group_load:a <- $r3
	.save	{r4, r5, r6, r7, lr}
	push	{r4, r5, r6, r7, lr}
	.cfi_def_cfa_offset 20
	.cfi_offset lr, -4
	.cfi_offset r7, -8
	.cfi_offset r6, -12
	.cfi_offset r5, -16
	.cfi_offset r4, -20
	.pad	#28
	sub	sp, #28
	.cfi_def_cfa_offset 48
	mov	r6, r3
	mov	r4, r0
.Ltmp52:
	@DEBUG_VALUE: ecp_group_load:nlen <- [DW_OP_plus_uconst 80] [$sp+0]
	@DEBUG_VALUE: ecp_group_load:n <- [DW_OP_plus_uconst 76] [$sp+0]
	@DEBUG_VALUE: ecp_group_load:gylen <- [DW_OP_plus_uconst 72] [$sp+0]
	@DEBUG_VALUE: ecp_group_load:gy <- [DW_OP_plus_uconst 68] [$sp+0]
	@DEBUG_VALUE: ecp_group_load:gxlen <- [DW_OP_plus_uconst 64] [$sp+0]
	@DEBUG_VALUE: ecp_group_load:gx <- [DW_OP_plus_uconst 60] [$sp+0]
	@DEBUG_VALUE: ecp_group_load:blen <- [DW_OP_plus_uconst 56] [$sp+0]
	@DEBUG_VALUE: ecp_group_load:b <- [DW_OP_plus_uconst 52] [$sp+0]
	@DEBUG_VALUE: ecp_group_load:alen <- [DW_OP_plus_uconst 48] [$sp+0]
	@DEBUG_VALUE: ecp_group_load:a <- $r6
	@DEBUG_VALUE: ecp_group_load:plen <- $r2
	@DEBUG_VALUE: ecp_group_load:p <- $r1
	@DEBUG_VALUE: ecp_group_load:grp <- $r4
	.loc	3 592 25 prologue_end           @ ../../../ThirdParty/mbedTLS/library/ecp_curves.c:592:25
	adds	r0, r0, #4
	str	r0, [sp, #24]                   @ 4-byte Spill
	@DEBUG_VALUE: ecp_group_load:plen <- $r2
	@DEBUG_VALUE: ecp_group_load:p <- $r1
	.loc	3 592 5 is_stmt 0               @ ../../../ThirdParty/mbedTLS/library/ecp_curves.c:592:5
	bl	ecp_mpi_load
.Ltmp53:
	@DEBUG_VALUE: ecp_group_load:plen <- [DW_OP_LLVM_entry_value 1] $r2
	@DEBUG_VALUE: ecp_group_load:p <- [DW_OP_LLVM_entry_value 1] $r1
	.loc	3 0 5                           @ ../../../ThirdParty/mbedTLS/library/ecp_curves.c:0:5
	ldr	r0, [sp, #80]
	str	r0, [sp, #4]                    @ 4-byte Spill
	ldr	r0, [sp, #76]
	str	r0, [sp]                        @ 4-byte Spill
	ldr	r0, [sp, #72]
	str	r0, [sp, #20]                   @ 4-byte Spill
	ldr	r0, [sp, #68]
	str	r0, [sp, #16]                   @ 4-byte Spill
	ldr	r0, [sp, #64]
	str	r0, [sp, #12]                   @ 4-byte Spill
	ldr	r0, [sp, #60]
	str	r0, [sp, #8]                    @ 4-byte Spill
	ldr	r7, [sp, #56]
	ldr	r5, [sp, #52]
	.loc	3 593 9 is_stmt 1               @ ../../../ThirdParty/mbedTLS/library/ecp_curves.c:593:9
	cbz	r6, .LBB2_2
.Ltmp54:
@ %bb.1:
	@DEBUG_VALUE: ecp_group_load:a <- $r6
	@DEBUG_VALUE: ecp_group_load:grp <- $r4
	@DEBUG_VALUE: ecp_group_load:alen <- [DW_OP_plus_uconst 48] [$sp+0]
	@DEBUG_VALUE: ecp_group_load:b <- [DW_OP_plus_uconst 52] [$sp+0]
	@DEBUG_VALUE: ecp_group_load:blen <- [DW_OP_plus_uconst 56] [$sp+0]
	@DEBUG_VALUE: ecp_group_load:gx <- [DW_OP_plus_uconst 60] [$sp+0]
	@DEBUG_VALUE: ecp_group_load:gxlen <- [DW_OP_plus_uconst 64] [$sp+0]
	@DEBUG_VALUE: ecp_group_load:gy <- [DW_OP_plus_uconst 68] [$sp+0]
	@DEBUG_VALUE: ecp_group_load:gylen <- [DW_OP_plus_uconst 72] [$sp+0]
	@DEBUG_VALUE: ecp_group_load:n <- [DW_OP_plus_uconst 76] [$sp+0]
	@DEBUG_VALUE: ecp_group_load:nlen <- [DW_OP_plus_uconst 80] [$sp+0]
	@DEBUG_VALUE: ecp_group_load:plen <- [DW_OP_LLVM_entry_value 1] $r2
	@DEBUG_VALUE: ecp_group_load:p <- [DW_OP_LLVM_entry_value 1] $r1
	.loc	3 0 9 is_stmt 0                 @ ../../../ThirdParty/mbedTLS/library/ecp_curves.c:0:9
	ldr	r2, [sp, #48]
.Ltmp55:
	.loc	3 594 29 is_stmt 1              @ ../../../ThirdParty/mbedTLS/library/ecp_curves.c:594:29
	mov	r0, r4
	adds	r0, #16
	.loc	3 594 9 is_stmt 0               @ ../../../ThirdParty/mbedTLS/library/ecp_curves.c:594:9
	mov	r1, r6
	bl	ecp_mpi_load
.Ltmp56:
.LBB2_2:
	@DEBUG_VALUE: ecp_group_load:a <- $r6
	@DEBUG_VALUE: ecp_group_load:grp <- $r4
	@DEBUG_VALUE: ecp_group_load:alen <- [DW_OP_plus_uconst 48] [$sp+0]
	@DEBUG_VALUE: ecp_group_load:b <- [DW_OP_plus_uconst 52] [$sp+0]
	@DEBUG_VALUE: ecp_group_load:blen <- [DW_OP_plus_uconst 56] [$sp+0]
	@DEBUG_VALUE: ecp_group_load:gx <- [DW_OP_plus_uconst 60] [$sp+0]
	@DEBUG_VALUE: ecp_group_load:gxlen <- [DW_OP_plus_uconst 64] [$sp+0]
	@DEBUG_VALUE: ecp_group_load:gy <- [DW_OP_plus_uconst 68] [$sp+0]
	@DEBUG_VALUE: ecp_group_load:gylen <- [DW_OP_plus_uconst 72] [$sp+0]
	@DEBUG_VALUE: ecp_group_load:n <- [DW_OP_plus_uconst 76] [$sp+0]
	@DEBUG_VALUE: ecp_group_load:nlen <- [DW_OP_plus_uconst 80] [$sp+0]
	@DEBUG_VALUE: ecp_group_load:plen <- [DW_OP_LLVM_entry_value 1] $r2
	@DEBUG_VALUE: ecp_group_load:p <- [DW_OP_LLVM_entry_value 1] $r1
	.loc	3 595 25 is_stmt 1              @ ../../../ThirdParty/mbedTLS/library/ecp_curves.c:595:25
	mov	r0, r4
	adds	r0, #28
	.loc	3 595 5 is_stmt 0               @ ../../../ThirdParty/mbedTLS/library/ecp_curves.c:595:5
	mov	r1, r5
	mov	r2, r7
	bl	ecp_mpi_load
	.loc	3 596 25 is_stmt 1              @ ../../../ThirdParty/mbedTLS/library/ecp_curves.c:596:25
	mov	r6, r4
.Ltmp57:
	adds	r6, #76
	.loc	3 596 5 is_stmt 0               @ ../../../ThirdParty/mbedTLS/library/ecp_curves.c:596:5
	mov	r0, r6
	ldr	r1, [sp]                        @ 4-byte Reload
	ldr	r2, [sp, #4]                    @ 4-byte Reload
	bl	ecp_mpi_load
	.loc	3 598 27 is_stmt 1              @ ../../../ThirdParty/mbedTLS/library/ecp_curves.c:598:27
	mov	r0, r4
	adds	r0, #40
	.loc	3 598 5 is_stmt 0               @ ../../../ThirdParty/mbedTLS/library/ecp_curves.c:598:5
	ldr	r1, [sp, #8]                    @ 4-byte Reload
	ldr	r2, [sp, #12]                   @ 4-byte Reload
	bl	ecp_mpi_load
	.loc	3 599 27 is_stmt 1              @ ../../../ThirdParty/mbedTLS/library/ecp_curves.c:599:27
	mov	r0, r4
	adds	r0, #52
	.loc	3 599 5 is_stmt 0               @ ../../../ThirdParty/mbedTLS/library/ecp_curves.c:599:5
	ldr	r1, [sp, #16]                   @ 4-byte Reload
	ldr	r2, [sp, #20]                   @ 4-byte Reload
	bl	ecp_mpi_load
	.loc	3 600 27 is_stmt 1              @ ../../../ThirdParty/mbedTLS/library/ecp_curves.c:600:27
	mov	r0, r4
	adds	r0, #64
	.loc	3 600 5 is_stmt 0               @ ../../../ThirdParty/mbedTLS/library/ecp_curves.c:600:5
	bl	ecp_mpi_set1
	.loc	3 602 18 is_stmt 1              @ ../../../ThirdParty/mbedTLS/library/ecp_curves.c:602:18
	ldr	r0, [sp, #24]                   @ 4-byte Reload
	bl	mbedtls_mpi_bitlen
	.loc	3 602 16 is_stmt 0              @ ../../../ThirdParty/mbedTLS/library/ecp_curves.c:602:16
	str	r0, [r4, #88]
	.loc	3 603 18 is_stmt 1              @ ../../../ThirdParty/mbedTLS/library/ecp_curves.c:603:18
	mov	r0, r6
	bl	mbedtls_mpi_bitlen
	movs	r1, #1
	.loc	3 603 16 is_stmt 0              @ ../../../ThirdParty/mbedTLS/library/ecp_curves.c:603:16
	str	r0, [r4, #92]
	.loc	3 605 12 is_stmt 1              @ ../../../ThirdParty/mbedTLS/library/ecp_curves.c:605:12
	str	r1, [r4, #96]
	.loc	3 607 5                         @ ../../../ThirdParty/mbedTLS/library/ecp_curves.c:607:5
	add	sp, #28
.Ltmp58:
	pop	{r4, r5, r6, r7, pc}
.Ltmp59:
.Lfunc_end2:
	.size	ecp_group_load, .Lfunc_end2-ecp_group_load
	.cfi_endproc
	.cantunwind
	.fnend
                                        @ -- End function
	.section	.text.ecp_mod_p224,"ax",%progbits
	.p2align	1                               @ -- Begin function ecp_mod_p224
	.type	ecp_mod_p224,%function
	.code	16                              @ @ecp_mod_p224
	.thumb_func
ecp_mod_p224:
.Lfunc_begin3:
	.loc	3 1063 0                        @ ../../../ThirdParty/mbedTLS/library/ecp_curves.c:1063:0
	.fnstart
	.cfi_startproc
@ %bb.0:
	@DEBUG_VALUE: ecp_mod_p224:N <- $r0
	.save	{r4, r5, r6, r7, lr}
	push	{r4, r5, r6, r7, lr}
	.cfi_def_cfa_offset 20
	.cfi_offset lr, -4
	.cfi_offset r7, -8
	.cfi_offset r6, -12
	.cfi_offset r5, -16
	.cfi_offset r4, -20
	.pad	#68
	sub	sp, #68
	.cfi_def_cfa_offset 88
	mov	r6, r0
	add	r0, sp, #64
.Ltmp60:
	@DEBUG_VALUE: ecp_mod_p224:N <- [DW_OP_LLVM_entry_value 1] $r0
	movs	r4, #0
.Ltmp61:
	@DEBUG_VALUE: ecp_mod_p224:c <- 0
	@DEBUG_VALUE: ecp_mod_p224:N <- $r6
	.loc	3 1064 5 prologue_end           @ ../../../ThirdParty/mbedTLS/library/ecp_curves.c:1064:5
	strb	r4, [r0]
.Ltmp62:
	@DEBUG_VALUE: ecp_mod_p224:bits <- 224
	@DEBUG_VALUE: ecp_mod_p224:i <- 0
	.loc	3 0 5 is_stmt 0                 @ ../../../ThirdParty/mbedTLS/library/ecp_curves.c:0:5
	add	r0, sp, #16
	.loc	3 1064 5                        @ ../../../ThirdParty/mbedTLS/library/ecp_curves.c:1064:5
	str	r0, [sp, #56]
	movs	r5, #8
	str	r5, [sp, #52]
	movs	r0, #1
	str	r0, [sp, #48]
	str	r4, [sp, #16]
	str	r4, [sp, #20]
	str	r4, [sp, #24]
	str	r4, [sp, #28]
	str	r4, [sp, #32]
	str	r4, [sp, #36]
	str	r4, [sp, #40]
	str	r4, [sp, #44]
	movs	r1, #14
.Ltmp63:
	.loc	3 1064 5                        @ ../../../ThirdParty/mbedTLS/library/ecp_curves.c:1064:5
	mov	r0, r6
	bl	mbedtls_mpi_grow
	mov	r7, r0
.Ltmp64:
	@DEBUG_VALUE: ecp_mod_p224:ret <- $r7
	.loc	3 1064 5                        @ ../../../ThirdParty/mbedTLS/library/ecp_curves.c:1064:5
	cmp	r0, #0
	beq	.LBB3_1
	b	.LBB3_24
.Ltmp65:
.LBB3_1:
	@DEBUG_VALUE: ecp_mod_p224:ret <- $r7
	@DEBUG_VALUE: ecp_mod_p224:N <- $r6
	@DEBUG_VALUE: ecp_mod_p224:i <- 0
	@DEBUG_VALUE: ecp_mod_p224:bits <- 224
	@DEBUG_VALUE: ecp_mod_p224:c <- 0
	.loc	3 0 5                           @ ../../../ThirdParty/mbedTLS/library/ecp_curves.c:0:5
	str	r7, [sp]                        @ 4-byte Spill
.Ltmp66:
	@DEBUG_VALUE: ecp_mod_p224:ret <- [$sp+0]
	.loc	3 1064 5                        @ ../../../ThirdParty/mbedTLS/library/ecp_curves.c:1064:5
	ldr	r0, [r6, #8]
	ldr	r1, [r0]
.Ltmp67:
	@DEBUG_VALUE: ecp_mod_p224:cur <- $r1
	str	r1, [sp, #60]
	.loc	3 1066 5 is_stmt 1              @ ../../../ThirdParty/mbedTLS/library/ecp_curves.c:1066:5
	ldr	r1, [r0, #28]
.Ltmp68:
	@DEBUG_VALUE: ecp_mod_p224:cur <- [DW_OP_plus_uconst 60, DW_OP_deref] $sp
	@DEBUG_VALUE: ecp_mod_p224:c <- [DW_OP_plus_uconst 64, DW_OP_deref] $sp
	.loc	3 0 5 is_stmt 0                 @ ../../../ThirdParty/mbedTLS/library/ecp_curves.c:0:5
	add	r7, sp, #60
	str	r6, [sp, #12]                   @ 4-byte Spill
.Ltmp69:
	@DEBUG_VALUE: ecp_mod_p224:N <- [DW_OP_plus_uconst 12] [$sp+0]
	add	r6, sp, #64
	.loc	3 1066 5                        @ ../../../ThirdParty/mbedTLS/library/ecp_curves.c:1066:5
	mov	r0, r7
	mov	r2, r6
	bl	sub32
	.loc	3 1067 5 is_stmt 1              @ ../../../ThirdParty/mbedTLS/library/ecp_curves.c:1067:5
	ldr	r0, [sp, #12]                   @ 4-byte Reload
.Ltmp70:
	@DEBUG_VALUE: ecp_mod_p224:N <- $r0
	ldr	r0, [r0, #8]
.Ltmp71:
	ldr	r1, [r0, #44]
	mov	r0, r7
	mov	r2, r6
	bl	sub32
	.loc	3 1068 5                        @ ../../../ThirdParty/mbedTLS/library/ecp_curves.c:1068:5
	ldr	r0, [sp, #12]                   @ 4-byte Reload
	ldr	r0, [r0, #8]
	ldr	r1, [sp, #60]
.Ltmp72:
	@DEBUG_VALUE: ecp_mod_p224:cur <- $r1
	str	r1, [r0]
	ldrb	r1, [r6]
.Ltmp73:
	@DEBUG_VALUE: ecp_mod_p224:cc <- undef
	@DEBUG_VALUE: ecp_mod_p224:c <- 0
	strb	r4, [r6]
.Ltmp74:
	@DEBUG_VALUE: ecp_mod_p224:i <- 1
	ldr	r0, [r0, #4]
.Ltmp75:
	@DEBUG_VALUE: ecp_mod_p224:cur <- $r0
	str	r0, [sp, #60]
	.loc	3 1064 5                        @ ../../../ThirdParty/mbedTLS/library/ecp_curves.c:1064:5
	ldr	r0, [sp, #12]                   @ 4-byte Reload
.Ltmp76:
	adds	r0, #8
	str	r0, [sp, #8]                    @ 4-byte Spill
	.loc	3 1068 5                        @ ../../../ThirdParty/mbedTLS/library/ecp_curves.c:1068:5
	sxtb	r1, r1
	cmp	r1, #0
	str	r4, [sp, #4]                    @ 4-byte Spill
	bmi	.LBB3_3
.Ltmp77:
@ %bb.2:
	@DEBUG_VALUE: ecp_mod_p224:ret <- [$sp+0]
	@DEBUG_VALUE: ecp_mod_p224:i <- 1
	@DEBUG_VALUE: ecp_mod_p224:bits <- 224
	@DEBUG_VALUE: ecp_mod_p224:c <- 0
	@DEBUG_VALUE: ecp_mod_p224:c <- [DW_OP_plus_uconst 64, DW_OP_deref] $sp
	@DEBUG_VALUE: ecp_mod_p224:cur <- [DW_OP_plus_uconst 60, DW_OP_deref] $sp
	.loc	3 0 5 is_stmt 0                 @ ../../../ThirdParty/mbedTLS/library/ecp_curves.c:0:5
	add	r0, sp, #60
	add	r2, sp, #64
.Ltmp78:
	.loc	3 1068 5                        @ ../../../ThirdParty/mbedTLS/library/ecp_curves.c:1068:5
	bl	add32
	b	.LBB3_4
.Ltmp79:
.LBB3_3:
	@DEBUG_VALUE: ecp_mod_p224:ret <- [$sp+0]
	@DEBUG_VALUE: ecp_mod_p224:i <- 1
	@DEBUG_VALUE: ecp_mod_p224:bits <- 224
	@DEBUG_VALUE: ecp_mod_p224:c <- 0
	@DEBUG_VALUE: ecp_mod_p224:c <- [DW_OP_plus_uconst 64, DW_OP_deref] $sp
	@DEBUG_VALUE: ecp_mod_p224:cur <- [DW_OP_plus_uconst 60, DW_OP_deref] $sp
	rsbs	r1, r1, #0
	add	r0, sp, #60
	add	r2, sp, #64
	bl	sub32
.Ltmp80:
.LBB3_4:
	@DEBUG_VALUE: ecp_mod_p224:ret <- [$sp+0]
	@DEBUG_VALUE: ecp_mod_p224:c <- [DW_OP_plus_uconst 64, DW_OP_deref] $sp
	@DEBUG_VALUE: ecp_mod_p224:cur <- [DW_OP_plus_uconst 60, DW_OP_deref] $sp
	@DEBUG_VALUE: ecp_mod_p224:i <- 1
	@DEBUG_VALUE: ecp_mod_p224:bits <- 224
	.loc	3 0 5                           @ ../../../ThirdParty/mbedTLS/library/ecp_curves.c:0:5
	ldr	r4, [sp, #8]                    @ 4-byte Reload
	.loc	3 1069 5 is_stmt 1              @ ../../../ThirdParty/mbedTLS/library/ecp_curves.c:1069:5
	ldr	r0, [r4]
	ldr	r1, [r0, #32]
	@DEBUG_VALUE: ecp_mod_p224:cur <- [DW_OP_plus_uconst 60, DW_OP_deref] $sp
	@DEBUG_VALUE: ecp_mod_p224:c <- [DW_OP_plus_uconst 64, DW_OP_deref] $sp
	add	r7, sp, #60
	add	r6, sp, #64
	mov	r0, r7
	mov	r2, r6
	bl	sub32
	.loc	3 1070 5                        @ ../../../ThirdParty/mbedTLS/library/ecp_curves.c:1070:5
	ldr	r0, [r4]
	ldr	r1, [r0, #48]
	mov	r0, r7
	mov	r2, r6
	bl	sub32
	.loc	3 1071 5                        @ ../../../ThirdParty/mbedTLS/library/ecp_curves.c:1071:5
	ldr	r0, [r4]
	ldr	r1, [sp, #60]
.Ltmp81:
	@DEBUG_VALUE: ecp_mod_p224:cur <- $r1
	str	r1, [r0, #4]
	ldrb	r1, [r6]
.Ltmp82:
	@DEBUG_VALUE: ecp_mod_p224:cc <- undef
	@DEBUG_VALUE: ecp_mod_p224:c <- 0
	ldr	r2, [sp, #4]                    @ 4-byte Reload
	strb	r2, [r6]
.Ltmp83:
	@DEBUG_VALUE: ecp_mod_p224:i <- 2
	ldr	r0, [r0, #8]
.Ltmp84:
	@DEBUG_VALUE: ecp_mod_p224:cur <- $r0
	str	r0, [sp, #60]
	sxtb	r1, r1
	cmp	r1, #0
	bmi	.LBB3_6
.Ltmp85:
@ %bb.5:
	@DEBUG_VALUE: ecp_mod_p224:ret <- [$sp+0]
	@DEBUG_VALUE: ecp_mod_p224:cur <- $r0
	@DEBUG_VALUE: ecp_mod_p224:i <- 2
	@DEBUG_VALUE: ecp_mod_p224:bits <- 224
	@DEBUG_VALUE: ecp_mod_p224:c <- 0
	@DEBUG_VALUE: ecp_mod_p224:c <- [DW_OP_plus_uconst 64, DW_OP_deref] $sp
	@DEBUG_VALUE: ecp_mod_p224:cur <- [DW_OP_plus_uconst 60, DW_OP_deref] $sp
	.loc	3 0 5 is_stmt 0                 @ ../../../ThirdParty/mbedTLS/library/ecp_curves.c:0:5
	add	r0, sp, #60
	add	r2, sp, #64
.Ltmp86:
	.loc	3 1071 5                        @ ../../../ThirdParty/mbedTLS/library/ecp_curves.c:1071:5
	bl	add32
	b	.LBB3_7
.Ltmp87:
.LBB3_6:
	@DEBUG_VALUE: ecp_mod_p224:ret <- [$sp+0]
	@DEBUG_VALUE: ecp_mod_p224:cur <- $r0
	@DEBUG_VALUE: ecp_mod_p224:i <- 2
	@DEBUG_VALUE: ecp_mod_p224:bits <- 224
	@DEBUG_VALUE: ecp_mod_p224:c <- 0
	@DEBUG_VALUE: ecp_mod_p224:c <- [DW_OP_plus_uconst 64, DW_OP_deref] $sp
	@DEBUG_VALUE: ecp_mod_p224:cur <- [DW_OP_plus_uconst 60, DW_OP_deref] $sp
	rsbs	r1, r1, #0
	add	r0, sp, #60
	add	r2, sp, #64
	bl	sub32
.Ltmp88:
.LBB3_7:
	@DEBUG_VALUE: ecp_mod_p224:ret <- [$sp+0]
	@DEBUG_VALUE: ecp_mod_p224:c <- [DW_OP_plus_uconst 64, DW_OP_deref] $sp
	@DEBUG_VALUE: ecp_mod_p224:cur <- [DW_OP_plus_uconst 60, DW_OP_deref] $sp
	@DEBUG_VALUE: ecp_mod_p224:i <- 2
	@DEBUG_VALUE: ecp_mod_p224:bits <- 224
	.loc	3 0 5                           @ ../../../ThirdParty/mbedTLS/library/ecp_curves.c:0:5
	ldr	r4, [sp, #8]                    @ 4-byte Reload
	.loc	3 1072 5 is_stmt 1              @ ../../../ThirdParty/mbedTLS/library/ecp_curves.c:1072:5
	ldr	r0, [r4]
	ldr	r1, [r0, #36]
	@DEBUG_VALUE: ecp_mod_p224:cur <- [DW_OP_plus_uconst 60, DW_OP_deref] $sp
	@DEBUG_VALUE: ecp_mod_p224:c <- [DW_OP_plus_uconst 64, DW_OP_deref] $sp
	add	r7, sp, #60
	add	r6, sp, #64
	mov	r0, r7
	mov	r2, r6
	bl	sub32
	.loc	3 1073 5                        @ ../../../ThirdParty/mbedTLS/library/ecp_curves.c:1073:5
	ldr	r0, [r4]
	ldr	r1, [r0, #52]
	mov	r0, r7
	mov	r2, r6
	bl	sub32
	.loc	3 1074 5                        @ ../../../ThirdParty/mbedTLS/library/ecp_curves.c:1074:5
	ldr	r0, [r4]
	ldr	r1, [sp, #60]
.Ltmp89:
	@DEBUG_VALUE: ecp_mod_p224:cur <- $r1
	str	r1, [r0, #8]
	ldrb	r1, [r6]
.Ltmp90:
	@DEBUG_VALUE: ecp_mod_p224:cc <- undef
	@DEBUG_VALUE: ecp_mod_p224:c <- 0
	ldr	r2, [sp, #4]                    @ 4-byte Reload
	strb	r2, [r6]
.Ltmp91:
	@DEBUG_VALUE: ecp_mod_p224:i <- 3
	ldr	r0, [r0, #12]
.Ltmp92:
	@DEBUG_VALUE: ecp_mod_p224:cur <- $r0
	str	r0, [sp, #60]
	sxtb	r1, r1
	cmp	r1, #0
	bmi	.LBB3_9
.Ltmp93:
@ %bb.8:
	@DEBUG_VALUE: ecp_mod_p224:ret <- [$sp+0]
	@DEBUG_VALUE: ecp_mod_p224:cur <- $r0
	@DEBUG_VALUE: ecp_mod_p224:i <- 3
	@DEBUG_VALUE: ecp_mod_p224:bits <- 224
	@DEBUG_VALUE: ecp_mod_p224:c <- 0
	@DEBUG_VALUE: ecp_mod_p224:c <- [DW_OP_plus_uconst 64, DW_OP_deref] $sp
	@DEBUG_VALUE: ecp_mod_p224:cur <- [DW_OP_plus_uconst 60, DW_OP_deref] $sp
	.loc	3 0 5 is_stmt 0                 @ ../../../ThirdParty/mbedTLS/library/ecp_curves.c:0:5
	add	r0, sp, #60
	add	r2, sp, #64
.Ltmp94:
	.loc	3 1074 5                        @ ../../../ThirdParty/mbedTLS/library/ecp_curves.c:1074:5
	bl	add32
	b	.LBB3_10
.Ltmp95:
.LBB3_9:
	@DEBUG_VALUE: ecp_mod_p224:ret <- [$sp+0]
	@DEBUG_VALUE: ecp_mod_p224:cur <- $r0
	@DEBUG_VALUE: ecp_mod_p224:i <- 3
	@DEBUG_VALUE: ecp_mod_p224:bits <- 224
	@DEBUG_VALUE: ecp_mod_p224:c <- 0
	@DEBUG_VALUE: ecp_mod_p224:c <- [DW_OP_plus_uconst 64, DW_OP_deref] $sp
	@DEBUG_VALUE: ecp_mod_p224:cur <- [DW_OP_plus_uconst 60, DW_OP_deref] $sp
	rsbs	r1, r1, #0
	add	r0, sp, #60
	add	r2, sp, #64
	bl	sub32
.Ltmp96:
.LBB3_10:
	@DEBUG_VALUE: ecp_mod_p224:ret <- [$sp+0]
	@DEBUG_VALUE: ecp_mod_p224:c <- [DW_OP_plus_uconst 64, DW_OP_deref] $sp
	@DEBUG_VALUE: ecp_mod_p224:cur <- [DW_OP_plus_uconst 60, DW_OP_deref] $sp
	@DEBUG_VALUE: ecp_mod_p224:i <- 3
	@DEBUG_VALUE: ecp_mod_p224:bits <- 224
	.loc	3 0 5                           @ ../../../ThirdParty/mbedTLS/library/ecp_curves.c:0:5
	ldr	r4, [sp, #8]                    @ 4-byte Reload
	.loc	3 1075 5 is_stmt 1              @ ../../../ThirdParty/mbedTLS/library/ecp_curves.c:1075:5
	ldr	r0, [r4]
	ldr	r1, [r0, #40]
	@DEBUG_VALUE: ecp_mod_p224:cur <- [DW_OP_plus_uconst 60, DW_OP_deref] $sp
	@DEBUG_VALUE: ecp_mod_p224:c <- [DW_OP_plus_uconst 64, DW_OP_deref] $sp
	add	r7, sp, #60
	add	r6, sp, #64
	mov	r0, r7
	mov	r2, r6
	bl	sub32
	.loc	3 1076 5                        @ ../../../ThirdParty/mbedTLS/library/ecp_curves.c:1076:5
	ldr	r0, [r4]
	ldr	r1, [r0, #28]
	mov	r0, r7
	mov	r2, r6
	bl	add32
	.loc	3 1077 5                        @ ../../../ThirdParty/mbedTLS/library/ecp_curves.c:1077:5
	ldr	r0, [r4]
	ldr	r1, [r0, #44]
	mov	r0, r7
	mov	r2, r6
	bl	add32
	.loc	3 1078 5                        @ ../../../ThirdParty/mbedTLS/library/ecp_curves.c:1078:5
	ldr	r0, [r4]
	ldr	r1, [sp, #60]
.Ltmp97:
	@DEBUG_VALUE: ecp_mod_p224:cur <- $r1
	str	r1, [r0, #12]
	ldrb	r1, [r6]
.Ltmp98:
	@DEBUG_VALUE: ecp_mod_p224:cc <- undef
	@DEBUG_VALUE: ecp_mod_p224:c <- 0
	ldr	r2, [sp, #4]                    @ 4-byte Reload
	strb	r2, [r6]
.Ltmp99:
	@DEBUG_VALUE: ecp_mod_p224:i <- 4
	ldr	r0, [r0, #16]
.Ltmp100:
	@DEBUG_VALUE: ecp_mod_p224:cur <- $r0
	str	r0, [sp, #60]
	sxtb	r1, r1
	cmp	r1, #0
	bmi	.LBB3_12
.Ltmp101:
@ %bb.11:
	@DEBUG_VALUE: ecp_mod_p224:ret <- [$sp+0]
	@DEBUG_VALUE: ecp_mod_p224:cur <- $r0
	@DEBUG_VALUE: ecp_mod_p224:i <- 4
	@DEBUG_VALUE: ecp_mod_p224:bits <- 224
	@DEBUG_VALUE: ecp_mod_p224:c <- 0
	@DEBUG_VALUE: ecp_mod_p224:c <- [DW_OP_plus_uconst 64, DW_OP_deref] $sp
	@DEBUG_VALUE: ecp_mod_p224:cur <- [DW_OP_plus_uconst 60, DW_OP_deref] $sp
	.loc	3 0 5 is_stmt 0                 @ ../../../ThirdParty/mbedTLS/library/ecp_curves.c:0:5
	add	r0, sp, #60
	add	r2, sp, #64
.Ltmp102:
	.loc	3 1078 5                        @ ../../../ThirdParty/mbedTLS/library/ecp_curves.c:1078:5
	bl	add32
	b	.LBB3_13
.Ltmp103:
.LBB3_12:
	@DEBUG_VALUE: ecp_mod_p224:ret <- [$sp+0]
	@DEBUG_VALUE: ecp_mod_p224:cur <- $r0
	@DEBUG_VALUE: ecp_mod_p224:i <- 4
	@DEBUG_VALUE: ecp_mod_p224:bits <- 224
	@DEBUG_VALUE: ecp_mod_p224:c <- 0
	@DEBUG_VALUE: ecp_mod_p224:c <- [DW_OP_plus_uconst 64, DW_OP_deref] $sp
	@DEBUG_VALUE: ecp_mod_p224:cur <- [DW_OP_plus_uconst 60, DW_OP_deref] $sp
	rsbs	r1, r1, #0
	add	r0, sp, #60
	add	r2, sp, #64
	bl	sub32
.Ltmp104:
.LBB3_13:
	@DEBUG_VALUE: ecp_mod_p224:ret <- [$sp+0]
	@DEBUG_VALUE: ecp_mod_p224:c <- [DW_OP_plus_uconst 64, DW_OP_deref] $sp
	@DEBUG_VALUE: ecp_mod_p224:cur <- [DW_OP_plus_uconst 60, DW_OP_deref] $sp
	@DEBUG_VALUE: ecp_mod_p224:i <- 4
	@DEBUG_VALUE: ecp_mod_p224:bits <- 224
	.loc	3 0 5                           @ ../../../ThirdParty/mbedTLS/library/ecp_curves.c:0:5
	ldr	r4, [sp, #8]                    @ 4-byte Reload
	.loc	3 1079 5 is_stmt 1              @ ../../../ThirdParty/mbedTLS/library/ecp_curves.c:1079:5
	ldr	r0, [r4]
	ldr	r1, [r0, #44]
	@DEBUG_VALUE: ecp_mod_p224:cur <- [DW_OP_plus_uconst 60, DW_OP_deref] $sp
	@DEBUG_VALUE: ecp_mod_p224:c <- [DW_OP_plus_uconst 64, DW_OP_deref] $sp
	add	r7, sp, #60
	add	r6, sp, #64
	mov	r0, r7
	mov	r2, r6
	bl	sub32
	.loc	3 1080 5                        @ ../../../ThirdParty/mbedTLS/library/ecp_curves.c:1080:5
	ldr	r0, [r4]
	ldr	r1, [r0, #32]
	mov	r0, r7
	mov	r2, r6
	bl	add32
	.loc	3 1081 5                        @ ../../../ThirdParty/mbedTLS/library/ecp_curves.c:1081:5
	ldr	r0, [r4]
	ldr	r1, [r0, #48]
	mov	r0, r7
	mov	r2, r6
	bl	add32
	.loc	3 1082 5                        @ ../../../ThirdParty/mbedTLS/library/ecp_curves.c:1082:5
	ldr	r0, [r4]
	ldr	r1, [sp, #60]
.Ltmp105:
	@DEBUG_VALUE: ecp_mod_p224:cur <- $r1
	str	r1, [r0, #16]
	ldrb	r1, [r6]
.Ltmp106:
	@DEBUG_VALUE: ecp_mod_p224:cc <- undef
	@DEBUG_VALUE: ecp_mod_p224:c <- 0
	ldr	r2, [sp, #4]                    @ 4-byte Reload
	strb	r2, [r6]
.Ltmp107:
	@DEBUG_VALUE: ecp_mod_p224:i <- 5
	ldr	r0, [r0, #20]
.Ltmp108:
	@DEBUG_VALUE: ecp_mod_p224:cur <- $r0
	str	r0, [sp, #60]
	sxtb	r1, r1
	cmp	r1, #0
	bmi	.LBB3_15
.Ltmp109:
@ %bb.14:
	@DEBUG_VALUE: ecp_mod_p224:ret <- [$sp+0]
	@DEBUG_VALUE: ecp_mod_p224:cur <- $r0
	@DEBUG_VALUE: ecp_mod_p224:i <- 5
	@DEBUG_VALUE: ecp_mod_p224:bits <- 224
	@DEBUG_VALUE: ecp_mod_p224:c <- 0
	@DEBUG_VALUE: ecp_mod_p224:c <- [DW_OP_plus_uconst 64, DW_OP_deref] $sp
	@DEBUG_VALUE: ecp_mod_p224:cur <- [DW_OP_plus_uconst 60, DW_OP_deref] $sp
	.loc	3 0 5 is_stmt 0                 @ ../../../ThirdParty/mbedTLS/library/ecp_curves.c:0:5
	add	r0, sp, #60
	add	r2, sp, #64
.Ltmp110:
	.loc	3 1082 5                        @ ../../../ThirdParty/mbedTLS/library/ecp_curves.c:1082:5
	bl	add32
	b	.LBB3_16
.Ltmp111:
.LBB3_15:
	@DEBUG_VALUE: ecp_mod_p224:ret <- [$sp+0]
	@DEBUG_VALUE: ecp_mod_p224:cur <- $r0
	@DEBUG_VALUE: ecp_mod_p224:i <- 5
	@DEBUG_VALUE: ecp_mod_p224:bits <- 224
	@DEBUG_VALUE: ecp_mod_p224:c <- 0
	@DEBUG_VALUE: ecp_mod_p224:c <- [DW_OP_plus_uconst 64, DW_OP_deref] $sp
	@DEBUG_VALUE: ecp_mod_p224:cur <- [DW_OP_plus_uconst 60, DW_OP_deref] $sp
	rsbs	r1, r1, #0
	add	r0, sp, #60
	add	r2, sp, #64
	bl	sub32
.Ltmp112:
.LBB3_16:
	@DEBUG_VALUE: ecp_mod_p224:ret <- [$sp+0]
	@DEBUG_VALUE: ecp_mod_p224:c <- [DW_OP_plus_uconst 64, DW_OP_deref] $sp
	@DEBUG_VALUE: ecp_mod_p224:cur <- [DW_OP_plus_uconst 60, DW_OP_deref] $sp
	@DEBUG_VALUE: ecp_mod_p224:i <- 5
	@DEBUG_VALUE: ecp_mod_p224:bits <- 224
	.loc	3 0 5                           @ ../../../ThirdParty/mbedTLS/library/ecp_curves.c:0:5
	ldr	r4, [sp, #8]                    @ 4-byte Reload
	.loc	3 1083 5 is_stmt 1              @ ../../../ThirdParty/mbedTLS/library/ecp_curves.c:1083:5
	ldr	r0, [r4]
	ldr	r1, [r0, #48]
	@DEBUG_VALUE: ecp_mod_p224:cur <- [DW_OP_plus_uconst 60, DW_OP_deref] $sp
	@DEBUG_VALUE: ecp_mod_p224:c <- [DW_OP_plus_uconst 64, DW_OP_deref] $sp
	add	r7, sp, #60
	add	r6, sp, #64
	mov	r0, r7
	mov	r2, r6
	bl	sub32
	.loc	3 1084 5                        @ ../../../ThirdParty/mbedTLS/library/ecp_curves.c:1084:5
	ldr	r0, [r4]
	ldr	r1, [r0, #36]
	mov	r0, r7
	mov	r2, r6
	bl	add32
	.loc	3 1085 5                        @ ../../../ThirdParty/mbedTLS/library/ecp_curves.c:1085:5
	ldr	r0, [r4]
	ldr	r1, [r0, #52]
	mov	r0, r7
	mov	r2, r6
	bl	add32
	.loc	3 1086 5                        @ ../../../ThirdParty/mbedTLS/library/ecp_curves.c:1086:5
	ldr	r0, [r4]
	ldr	r1, [sp, #60]
.Ltmp113:
	@DEBUG_VALUE: ecp_mod_p224:cur <- $r1
	str	r1, [r0, #20]
	ldrb	r1, [r6]
.Ltmp114:
	@DEBUG_VALUE: ecp_mod_p224:cc <- undef
	@DEBUG_VALUE: ecp_mod_p224:c <- 0
	.loc	3 0 5 is_stmt 0                 @ ../../../ThirdParty/mbedTLS/library/ecp_curves.c:0:5
	ldr	r4, [sp, #4]                    @ 4-byte Reload
	.loc	3 1086 5                        @ ../../../ThirdParty/mbedTLS/library/ecp_curves.c:1086:5
	strb	r4, [r6]
.Ltmp115:
	@DEBUG_VALUE: ecp_mod_p224:i <- 6
	ldr	r0, [r0, #24]
.Ltmp116:
	@DEBUG_VALUE: ecp_mod_p224:cur <- $r0
	str	r0, [sp, #60]
	sxtb	r1, r1
	cmp	r1, #0
	bmi	.LBB3_18
.Ltmp117:
@ %bb.17:
	@DEBUG_VALUE: ecp_mod_p224:ret <- [$sp+0]
	@DEBUG_VALUE: ecp_mod_p224:cur <- $r0
	@DEBUG_VALUE: ecp_mod_p224:i <- 6
	@DEBUG_VALUE: ecp_mod_p224:bits <- 224
	@DEBUG_VALUE: ecp_mod_p224:c <- 0
	@DEBUG_VALUE: ecp_mod_p224:c <- [DW_OP_plus_uconst 64, DW_OP_deref] $sp
	@DEBUG_VALUE: ecp_mod_p224:cur <- [DW_OP_plus_uconst 60, DW_OP_deref] $sp
	.loc	3 0 5                           @ ../../../ThirdParty/mbedTLS/library/ecp_curves.c:0:5
	add	r0, sp, #60
	add	r2, sp, #64
.Ltmp118:
	.loc	3 1086 5                        @ ../../../ThirdParty/mbedTLS/library/ecp_curves.c:1086:5
	bl	add32
	b	.LBB3_19
.Ltmp119:
.LBB3_18:
	@DEBUG_VALUE: ecp_mod_p224:ret <- [$sp+0]
	@DEBUG_VALUE: ecp_mod_p224:cur <- $r0
	@DEBUG_VALUE: ecp_mod_p224:i <- 6
	@DEBUG_VALUE: ecp_mod_p224:bits <- 224
	@DEBUG_VALUE: ecp_mod_p224:c <- 0
	@DEBUG_VALUE: ecp_mod_p224:c <- [DW_OP_plus_uconst 64, DW_OP_deref] $sp
	@DEBUG_VALUE: ecp_mod_p224:cur <- [DW_OP_plus_uconst 60, DW_OP_deref] $sp
	rsbs	r1, r1, #0
	add	r0, sp, #60
	add	r2, sp, #64
	bl	sub32
.Ltmp120:
.LBB3_19:
	@DEBUG_VALUE: ecp_mod_p224:ret <- [$sp+0]
	@DEBUG_VALUE: ecp_mod_p224:c <- [DW_OP_plus_uconst 64, DW_OP_deref] $sp
	@DEBUG_VALUE: ecp_mod_p224:cur <- [DW_OP_plus_uconst 60, DW_OP_deref] $sp
	@DEBUG_VALUE: ecp_mod_p224:i <- 6
	@DEBUG_VALUE: ecp_mod_p224:bits <- 224
	.loc	3 0 5                           @ ../../../ThirdParty/mbedTLS/library/ecp_curves.c:0:5
	ldr	r0, [sp, #12]                   @ 4-byte Reload
	.loc	3 1087 5 is_stmt 1              @ ../../../ThirdParty/mbedTLS/library/ecp_curves.c:1087:5
	ldr	r0, [r0, #8]
	ldr	r1, [r0, #52]
	@DEBUG_VALUE: ecp_mod_p224:cur <- [DW_OP_plus_uconst 60, DW_OP_deref] $sp
	@DEBUG_VALUE: ecp_mod_p224:c <- [DW_OP_plus_uconst 64, DW_OP_deref] $sp
	add	r6, sp, #60
	add	r7, sp, #64
	mov	r0, r6
	mov	r2, r7
	bl	sub32
	.loc	3 1088 5                        @ ../../../ThirdParty/mbedTLS/library/ecp_curves.c:1088:5
	ldr	r0, [sp, #12]                   @ 4-byte Reload
	ldr	r0, [r0, #8]
	ldr	r1, [r0, #40]
	mov	r0, r6
	mov	r2, r7
	bl	add32
	.loc	3 1089 5                        @ ../../../ThirdParty/mbedTLS/library/ecp_curves.c:1089:5
	ldr	r0, [sp, #12]                   @ 4-byte Reload
	ldr	r3, [r0, #8]
	ldr	r2, [sp, #60]
.Ltmp121:
	@DEBUG_VALUE: ecp_mod_p224:cur <- $r2
	@DEBUG_VALUE: ecp_mod_p224:i <- 7
	ldrb	r1, [r7]
	sxtb	r1, r1
.Ltmp122:
	@DEBUG_VALUE: ecp_mod_p224:c <- undef
	asrs	r0, r1, #31
	mov	r6, r1
	bics	r6, r0
.Ltmp123:
	@DEBUG_VALUE: ecp_mod_p224:cur <- 0
	str	r2, [r3, #24]
	str	r6, [r3, #28]
	ldr	r0, [sp, #12]                   @ 4-byte Reload
	str	r4, [sp, #60]
.Ltmp124:
	@DEBUG_VALUE: ecp_mod_p224:i <- 8
	ldr	r2, [r0, #4]
	cmp	r2, #9
	blo	.LBB3_22
.Ltmp125:
@ %bb.20:
	@DEBUG_VALUE: ecp_mod_p224:ret <- [$sp+0]
	@DEBUG_VALUE: ecp_mod_p224:i <- 8
	@DEBUG_VALUE: ecp_mod_p224:cur <- 0
	@DEBUG_VALUE: ecp_mod_p224:bits <- 224
	adds	r3, #32
.Ltmp126:
.LBB3_21:                               @ =>This Inner Loop Header: Depth=1
	@DEBUG_VALUE: ecp_mod_p224:ret <- [$sp+0]
	@DEBUG_VALUE: ecp_mod_p224:bits <- 224
	.loc	3 1089 5 is_stmt 0              @ ../../../ThirdParty/mbedTLS/library/ecp_curves.c:1089:5
	ldr	r2, [sp, #60]
.Ltmp127:
	@DEBUG_VALUE: ecp_mod_p224:cur <- $r2
	stm	r3!, {r2}
.Ltmp128:
	@DEBUG_VALUE: ecp_mod_p224:i <- $r5
	.loc	3 1089 5                        @ ../../../ThirdParty/mbedTLS/library/ecp_curves.c:1089:5
	adds	r5, r5, #1
.Ltmp129:
	@DEBUG_VALUE: ecp_mod_p224:i <- $r5
	ldr	r2, [r0, #4]
.Ltmp130:
	cmp	r5, r2
	blo	.LBB3_21
.Ltmp131:
.LBB3_22:
	@DEBUG_VALUE: ecp_mod_p224:ret <- [$sp+0]
	@DEBUG_VALUE: ecp_mod_p224:bits <- 224
	@DEBUG_VALUE: ecp_mod_p224:c <- $r1
	cmp	r1, #0
	ldr	r7, [sp]                        @ 4-byte Reload
.Ltmp132:
	@DEBUG_VALUE: ecp_mod_p224:ret <- $r7
	bpl	.LBB3_24
.Ltmp133:
@ %bb.23:
	@DEBUG_VALUE: ecp_mod_p224:ret <- $r7
	@DEBUG_VALUE: ecp_mod_p224:c <- $r1
	@DEBUG_VALUE: ecp_mod_p224:bits <- 224
	.loc	3 0 5                           @ ../../../ThirdParty/mbedTLS/library/ecp_curves.c:0:5
	add	r2, sp, #48
.Ltmp134:
	.loc	3 1089 5                        @ ../../../ThirdParty/mbedTLS/library/ecp_curves.c:1089:5
	bl	fix_negative
.Ltmp135:
.LBB3_24:
	@DEBUG_VALUE: ecp_mod_p224:ret <- $r7
	@DEBUG_VALUE: ecp_mod_p224:bits <- 224
	@DEBUG_LABEL: ecp_mod_p224:cleanup
	.loc	3 1092 5 is_stmt 1              @ ../../../ThirdParty/mbedTLS/library/ecp_curves.c:1092:5
	mov	r0, r7
	add	sp, #68
	pop	{r4, r5, r6, r7, pc}
.Ltmp136:
.Lfunc_end3:
	.size	ecp_mod_p224, .Lfunc_end3-ecp_mod_p224
	.cfi_endproc
	.cantunwind
	.fnend
                                        @ -- End function
	.section	.text.ecp_mod_p256,"ax",%progbits
	.p2align	1                               @ -- Begin function ecp_mod_p256
	.type	ecp_mod_p256,%function
	.code	16                              @ @ecp_mod_p256
	.thumb_func
ecp_mod_p256:
.Lfunc_begin4:
	.loc	3 1101 0                        @ ../../../ThirdParty/mbedTLS/library/ecp_curves.c:1101:0
	.fnstart
	.cfi_startproc
@ %bb.0:
	@DEBUG_VALUE: ecp_mod_p256:N <- $r0
	.save	{r4, r5, r6, r7, lr}
	push	{r4, r5, r6, r7, lr}
	.cfi_def_cfa_offset 20
	.cfi_offset lr, -4
	.cfi_offset r7, -8
	.cfi_offset r6, -12
	.cfi_offset r5, -16
	.cfi_offset r4, -20
	.pad	#68
	sub	sp, #68
	.cfi_def_cfa_offset 88
	mov	r4, r0
	add	r0, sp, #64
.Ltmp137:
	@DEBUG_VALUE: ecp_mod_p256:N <- [DW_OP_LLVM_entry_value 1] $r0
	movs	r7, #0
.Ltmp138:
	@DEBUG_VALUE: ecp_mod_p256:c <- 0
	@DEBUG_VALUE: ecp_mod_p256:N <- $r4
	.loc	3 1102 5 prologue_end           @ ../../../ThirdParty/mbedTLS/library/ecp_curves.c:1102:5
	strb	r7, [r0]
.Ltmp139:
	@DEBUG_VALUE: ecp_mod_p256:bits <- 256
	@DEBUG_VALUE: ecp_mod_p256:i <- 0
	.loc	3 0 5 is_stmt 0                 @ ../../../ThirdParty/mbedTLS/library/ecp_curves.c:0:5
	add	r0, sp, #12
	.loc	3 1102 5                        @ ../../../ThirdParty/mbedTLS/library/ecp_curves.c:1102:5
	str	r0, [sp, #56]
	movs	r5, #9
	str	r5, [sp, #52]
	movs	r1, #1
	str	r1, [sp, #48]
	movs	r1, #36
	bl	__aeabi_memclr4
	movs	r1, #16
.Ltmp140:
	.loc	3 1102 5                        @ ../../../ThirdParty/mbedTLS/library/ecp_curves.c:1102:5
	mov	r0, r4
	bl	mbedtls_mpi_grow
	mov	r6, r0
.Ltmp141:
	@DEBUG_VALUE: ecp_mod_p256:ret <- $r6
	.loc	3 1102 5                        @ ../../../ThirdParty/mbedTLS/library/ecp_curves.c:1102:5
	cmp	r0, #0
	beq	.LBB4_1
	b	.LBB4_27
.Ltmp142:
.LBB4_1:
	@DEBUG_VALUE: ecp_mod_p256:ret <- $r6
	@DEBUG_VALUE: ecp_mod_p256:N <- $r4
	@DEBUG_VALUE: ecp_mod_p256:i <- 0
	@DEBUG_VALUE: ecp_mod_p256:bits <- 256
	@DEBUG_VALUE: ecp_mod_p256:c <- 0
	.loc	3 0 5                           @ ../../../ThirdParty/mbedTLS/library/ecp_curves.c:0:5
	str	r6, [sp]                        @ 4-byte Spill
.Ltmp143:
	@DEBUG_VALUE: ecp_mod_p256:ret <- [$sp+0]
	.loc	3 1102 5                        @ ../../../ThirdParty/mbedTLS/library/ecp_curves.c:1102:5
	ldr	r0, [r4, #8]
	ldr	r1, [r0]
.Ltmp144:
	@DEBUG_VALUE: ecp_mod_p256:cur <- $r1
	str	r1, [sp, #60]
	.loc	3 1104 5 is_stmt 1              @ ../../../ThirdParty/mbedTLS/library/ecp_curves.c:1104:5
	ldr	r1, [r0, #32]
.Ltmp145:
	@DEBUG_VALUE: ecp_mod_p256:cur <- [DW_OP_plus_uconst 60, DW_OP_deref] $sp
	@DEBUG_VALUE: ecp_mod_p256:c <- [DW_OP_plus_uconst 64, DW_OP_deref] $sp
	.loc	3 0 5 is_stmt 0                 @ ../../../ThirdParty/mbedTLS/library/ecp_curves.c:0:5
	str	r7, [sp, #8]                    @ 4-byte Spill
	add	r7, sp, #60
	add	r6, sp, #64
	.loc	3 1104 5                        @ ../../../ThirdParty/mbedTLS/library/ecp_curves.c:1104:5
	mov	r0, r7
	mov	r2, r6
	bl	add32
	.loc	3 1105 5 is_stmt 1              @ ../../../ThirdParty/mbedTLS/library/ecp_curves.c:1105:5
	ldr	r0, [r4, #8]
	ldr	r1, [r0, #36]
	mov	r0, r7
	mov	r2, r6
	bl	add32
	.loc	3 1106 5                        @ ../../../ThirdParty/mbedTLS/library/ecp_curves.c:1106:5
	ldr	r0, [r4, #8]
	ldr	r1, [r0, #44]
	mov	r0, r7
	mov	r2, r6
	bl	sub32
	.loc	3 1107 5                        @ ../../../ThirdParty/mbedTLS/library/ecp_curves.c:1107:5
	ldr	r0, [r4, #8]
	ldr	r1, [r0, #48]
	mov	r0, r7
	mov	r2, r6
	bl	sub32
	.loc	3 1108 5                        @ ../../../ThirdParty/mbedTLS/library/ecp_curves.c:1108:5
	ldr	r0, [r4, #8]
	ldr	r1, [r0, #52]
	mov	r0, r7
	mov	r2, r6
	bl	sub32
	.loc	3 1109 5                        @ ../../../ThirdParty/mbedTLS/library/ecp_curves.c:1109:5
	ldr	r0, [r4, #8]
	ldr	r1, [r0, #56]
	mov	r0, r7
	mov	r2, r6
	bl	sub32
	.loc	3 1110 5                        @ ../../../ThirdParty/mbedTLS/library/ecp_curves.c:1110:5
	ldr	r0, [r4, #8]
	ldr	r1, [sp, #60]
.Ltmp146:
	@DEBUG_VALUE: ecp_mod_p256:cur <- $r1
	str	r1, [r0]
	ldrb	r1, [r6]
.Ltmp147:
	@DEBUG_VALUE: ecp_mod_p256:cc <- undef
	@DEBUG_VALUE: ecp_mod_p256:c <- 0
	ldr	r2, [sp, #8]                    @ 4-byte Reload
	strb	r2, [r6]
.Ltmp148:
	@DEBUG_VALUE: ecp_mod_p256:i <- 1
	ldr	r0, [r0, #4]
.Ltmp149:
	@DEBUG_VALUE: ecp_mod_p256:cur <- $r0
	str	r0, [sp, #60]
	str	r4, [sp, #4]                    @ 4-byte Spill
.Ltmp150:
	@DEBUG_VALUE: ecp_mod_p256:N <- [DW_OP_plus_uconst 4] [$sp+0]
	.loc	3 1102 5                        @ ../../../ThirdParty/mbedTLS/library/ecp_curves.c:1102:5
	adds	r4, #8
	.loc	3 1110 5                        @ ../../../ThirdParty/mbedTLS/library/ecp_curves.c:1110:5
	sxtb	r1, r1
	cmp	r1, #0
	bmi	.LBB4_3
.Ltmp151:
@ %bb.2:
	@DEBUG_VALUE: ecp_mod_p256:N <- [DW_OP_plus_uconst 4] [$sp+0]
	@DEBUG_VALUE: ecp_mod_p256:ret <- [$sp+0]
	@DEBUG_VALUE: ecp_mod_p256:cur <- $r0
	@DEBUG_VALUE: ecp_mod_p256:i <- 1
	@DEBUG_VALUE: ecp_mod_p256:bits <- 256
	@DEBUG_VALUE: ecp_mod_p256:c <- 0
	@DEBUG_VALUE: ecp_mod_p256:c <- [DW_OP_plus_uconst 64, DW_OP_deref] $sp
	@DEBUG_VALUE: ecp_mod_p256:cur <- [DW_OP_plus_uconst 60, DW_OP_deref] $sp
	.loc	3 0 5 is_stmt 0                 @ ../../../ThirdParty/mbedTLS/library/ecp_curves.c:0:5
	add	r0, sp, #60
	add	r2, sp, #64
.Ltmp152:
	.loc	3 1110 5                        @ ../../../ThirdParty/mbedTLS/library/ecp_curves.c:1110:5
	bl	add32
	b	.LBB4_4
.Ltmp153:
.LBB4_3:
	@DEBUG_VALUE: ecp_mod_p256:N <- [DW_OP_plus_uconst 4] [$sp+0]
	@DEBUG_VALUE: ecp_mod_p256:ret <- [$sp+0]
	@DEBUG_VALUE: ecp_mod_p256:cur <- $r0
	@DEBUG_VALUE: ecp_mod_p256:i <- 1
	@DEBUG_VALUE: ecp_mod_p256:bits <- 256
	@DEBUG_VALUE: ecp_mod_p256:c <- 0
	@DEBUG_VALUE: ecp_mod_p256:c <- [DW_OP_plus_uconst 64, DW_OP_deref] $sp
	@DEBUG_VALUE: ecp_mod_p256:cur <- [DW_OP_plus_uconst 60, DW_OP_deref] $sp
	rsbs	r1, r1, #0
	add	r0, sp, #60
	add	r2, sp, #64
	bl	sub32
.Ltmp154:
.LBB4_4:
	@DEBUG_VALUE: ecp_mod_p256:N <- [DW_OP_plus_uconst 4] [$sp+0]
	@DEBUG_VALUE: ecp_mod_p256:ret <- [$sp+0]
	@DEBUG_VALUE: ecp_mod_p256:c <- [DW_OP_plus_uconst 64, DW_OP_deref] $sp
	@DEBUG_VALUE: ecp_mod_p256:cur <- [DW_OP_plus_uconst 60, DW_OP_deref] $sp
	@DEBUG_VALUE: ecp_mod_p256:i <- 1
	@DEBUG_VALUE: ecp_mod_p256:bits <- 256
	.loc	3 1112 5 is_stmt 1              @ ../../../ThirdParty/mbedTLS/library/ecp_curves.c:1112:5
	ldr	r0, [r4]
	ldr	r1, [r0, #36]
	@DEBUG_VALUE: ecp_mod_p256:cur <- [DW_OP_plus_uconst 60, DW_OP_deref] $sp
	@DEBUG_VALUE: ecp_mod_p256:c <- [DW_OP_plus_uconst 64, DW_OP_deref] $sp
	add	r7, sp, #60
	add	r6, sp, #64
	mov	r0, r7
	mov	r2, r6
	bl	add32
	.loc	3 1113 5                        @ ../../../ThirdParty/mbedTLS/library/ecp_curves.c:1113:5
	ldr	r0, [r4]
	ldr	r1, [r0, #40]
	mov	r0, r7
	mov	r2, r6
	bl	add32
	.loc	3 1114 5                        @ ../../../ThirdParty/mbedTLS/library/ecp_curves.c:1114:5
	ldr	r0, [r4]
	ldr	r1, [r0, #48]
	mov	r0, r7
	mov	r2, r6
	bl	sub32
	.loc	3 1115 5                        @ ../../../ThirdParty/mbedTLS/library/ecp_curves.c:1115:5
	ldr	r0, [r4]
	ldr	r1, [r0, #52]
	mov	r0, r7
	mov	r2, r6
	bl	sub32
	.loc	3 1116 5                        @ ../../../ThirdParty/mbedTLS/library/ecp_curves.c:1116:5
	ldr	r0, [r4]
	ldr	r1, [r0, #56]
	mov	r0, r7
	mov	r2, r6
	bl	sub32
	.loc	3 1117 5                        @ ../../../ThirdParty/mbedTLS/library/ecp_curves.c:1117:5
	ldr	r0, [r4]
	ldr	r1, [r0, #60]
	mov	r0, r7
	mov	r2, r6
	bl	sub32
	.loc	3 1118 5                        @ ../../../ThirdParty/mbedTLS/library/ecp_curves.c:1118:5
	ldr	r0, [r4]
	ldr	r1, [sp, #60]
.Ltmp155:
	@DEBUG_VALUE: ecp_mod_p256:cur <- $r1
	str	r1, [r0, #4]
	ldrb	r1, [r6]
.Ltmp156:
	@DEBUG_VALUE: ecp_mod_p256:cc <- undef
	@DEBUG_VALUE: ecp_mod_p256:c <- 0
	ldr	r2, [sp, #8]                    @ 4-byte Reload
	strb	r2, [r6]
.Ltmp157:
	@DEBUG_VALUE: ecp_mod_p256:i <- 2
	ldr	r0, [r0, #8]
.Ltmp158:
	@DEBUG_VALUE: ecp_mod_p256:cur <- $r0
	str	r0, [sp, #60]
	sxtb	r1, r1
	cmp	r1, #0
	bmi	.LBB4_6
.Ltmp159:
@ %bb.5:
	@DEBUG_VALUE: ecp_mod_p256:N <- [DW_OP_plus_uconst 4] [$sp+0]
	@DEBUG_VALUE: ecp_mod_p256:ret <- [$sp+0]
	@DEBUG_VALUE: ecp_mod_p256:cur <- $r0
	@DEBUG_VALUE: ecp_mod_p256:i <- 2
	@DEBUG_VALUE: ecp_mod_p256:bits <- 256
	@DEBUG_VALUE: ecp_mod_p256:c <- 0
	@DEBUG_VALUE: ecp_mod_p256:c <- [DW_OP_plus_uconst 64, DW_OP_deref] $sp
	@DEBUG_VALUE: ecp_mod_p256:cur <- [DW_OP_plus_uconst 60, DW_OP_deref] $sp
	.loc	3 0 5 is_stmt 0                 @ ../../../ThirdParty/mbedTLS/library/ecp_curves.c:0:5
	add	r0, sp, #60
	add	r2, sp, #64
.Ltmp160:
	.loc	3 1118 5                        @ ../../../ThirdParty/mbedTLS/library/ecp_curves.c:1118:5
	bl	add32
	b	.LBB4_7
.Ltmp161:
.LBB4_6:
	@DEBUG_VALUE: ecp_mod_p256:N <- [DW_OP_plus_uconst 4] [$sp+0]
	@DEBUG_VALUE: ecp_mod_p256:ret <- [$sp+0]
	@DEBUG_VALUE: ecp_mod_p256:cur <- $r0
	@DEBUG_VALUE: ecp_mod_p256:i <- 2
	@DEBUG_VALUE: ecp_mod_p256:bits <- 256
	@DEBUG_VALUE: ecp_mod_p256:c <- 0
	@DEBUG_VALUE: ecp_mod_p256:c <- [DW_OP_plus_uconst 64, DW_OP_deref] $sp
	@DEBUG_VALUE: ecp_mod_p256:cur <- [DW_OP_plus_uconst 60, DW_OP_deref] $sp
	rsbs	r1, r1, #0
	add	r0, sp, #60
	add	r2, sp, #64
	bl	sub32
.Ltmp162:
.LBB4_7:
	@DEBUG_VALUE: ecp_mod_p256:N <- [DW_OP_plus_uconst 4] [$sp+0]
	@DEBUG_VALUE: ecp_mod_p256:ret <- [$sp+0]
	@DEBUG_VALUE: ecp_mod_p256:c <- [DW_OP_plus_uconst 64, DW_OP_deref] $sp
	@DEBUG_VALUE: ecp_mod_p256:cur <- [DW_OP_plus_uconst 60, DW_OP_deref] $sp
	@DEBUG_VALUE: ecp_mod_p256:i <- 2
	@DEBUG_VALUE: ecp_mod_p256:bits <- 256
	.loc	3 1120 5 is_stmt 1              @ ../../../ThirdParty/mbedTLS/library/ecp_curves.c:1120:5
	ldr	r0, [r4]
	ldr	r1, [r0, #40]
	@DEBUG_VALUE: ecp_mod_p256:cur <- [DW_OP_plus_uconst 60, DW_OP_deref] $sp
	@DEBUG_VALUE: ecp_mod_p256:c <- [DW_OP_plus_uconst 64, DW_OP_deref] $sp
	add	r7, sp, #60
	add	r6, sp, #64
	mov	r0, r7
	mov	r2, r6
	bl	add32
	.loc	3 1121 5                        @ ../../../ThirdParty/mbedTLS/library/ecp_curves.c:1121:5
	ldr	r0, [r4]
	ldr	r1, [r0, #44]
	mov	r0, r7
	mov	r2, r6
	bl	add32
	.loc	3 1122 5                        @ ../../../ThirdParty/mbedTLS/library/ecp_curves.c:1122:5
	ldr	r0, [r4]
	ldr	r1, [r0, #52]
	mov	r0, r7
	mov	r2, r6
	bl	sub32
	.loc	3 1123 5                        @ ../../../ThirdParty/mbedTLS/library/ecp_curves.c:1123:5
	ldr	r0, [r4]
	ldr	r1, [r0, #56]
	mov	r0, r7
	mov	r2, r6
	bl	sub32
	.loc	3 1124 5                        @ ../../../ThirdParty/mbedTLS/library/ecp_curves.c:1124:5
	ldr	r0, [r4]
	ldr	r1, [r0, #60]
	mov	r0, r7
	mov	r2, r6
	bl	sub32
	.loc	3 1125 5                        @ ../../../ThirdParty/mbedTLS/library/ecp_curves.c:1125:5
	ldr	r0, [r4]
	ldr	r1, [sp, #60]
.Ltmp163:
	@DEBUG_VALUE: ecp_mod_p256:cur <- $r1
	str	r1, [r0, #8]
	ldrb	r1, [r6]
.Ltmp164:
	@DEBUG_VALUE: ecp_mod_p256:cc <- undef
	@DEBUG_VALUE: ecp_mod_p256:c <- 0
	ldr	r2, [sp, #8]                    @ 4-byte Reload
	strb	r2, [r6]
.Ltmp165:
	@DEBUG_VALUE: ecp_mod_p256:i <- 3
	ldr	r0, [r0, #12]
.Ltmp166:
	@DEBUG_VALUE: ecp_mod_p256:cur <- $r0
	str	r0, [sp, #60]
	sxtb	r1, r1
	cmp	r1, #0
	bmi	.LBB4_9
.Ltmp167:
@ %bb.8:
	@DEBUG_VALUE: ecp_mod_p256:N <- [DW_OP_plus_uconst 4] [$sp+0]
	@DEBUG_VALUE: ecp_mod_p256:ret <- [$sp+0]
	@DEBUG_VALUE: ecp_mod_p256:cur <- $r0
	@DEBUG_VALUE: ecp_mod_p256:i <- 3
	@DEBUG_VALUE: ecp_mod_p256:bits <- 256
	@DEBUG_VALUE: ecp_mod_p256:c <- 0
	@DEBUG_VALUE: ecp_mod_p256:c <- [DW_OP_plus_uconst 64, DW_OP_deref] $sp
	@DEBUG_VALUE: ecp_mod_p256:cur <- [DW_OP_plus_uconst 60, DW_OP_deref] $sp
	.loc	3 0 5 is_stmt 0                 @ ../../../ThirdParty/mbedTLS/library/ecp_curves.c:0:5
	add	r0, sp, #60
	add	r2, sp, #64
.Ltmp168:
	.loc	3 1125 5                        @ ../../../ThirdParty/mbedTLS/library/ecp_curves.c:1125:5
	bl	add32
	b	.LBB4_10
.Ltmp169:
.LBB4_9:
	@DEBUG_VALUE: ecp_mod_p256:N <- [DW_OP_plus_uconst 4] [$sp+0]
	@DEBUG_VALUE: ecp_mod_p256:ret <- [$sp+0]
	@DEBUG_VALUE: ecp_mod_p256:cur <- $r0
	@DEBUG_VALUE: ecp_mod_p256:i <- 3
	@DEBUG_VALUE: ecp_mod_p256:bits <- 256
	@DEBUG_VALUE: ecp_mod_p256:c <- 0
	@DEBUG_VALUE: ecp_mod_p256:c <- [DW_OP_plus_uconst 64, DW_OP_deref] $sp
	@DEBUG_VALUE: ecp_mod_p256:cur <- [DW_OP_plus_uconst 60, DW_OP_deref] $sp
	rsbs	r1, r1, #0
	add	r0, sp, #60
	add	r2, sp, #64
	bl	sub32
.Ltmp170:
.LBB4_10:
	@DEBUG_VALUE: ecp_mod_p256:N <- [DW_OP_plus_uconst 4] [$sp+0]
	@DEBUG_VALUE: ecp_mod_p256:ret <- [$sp+0]
	@DEBUG_VALUE: ecp_mod_p256:c <- [DW_OP_plus_uconst 64, DW_OP_deref] $sp
	@DEBUG_VALUE: ecp_mod_p256:cur <- [DW_OP_plus_uconst 60, DW_OP_deref] $sp
	@DEBUG_VALUE: ecp_mod_p256:i <- 3
	@DEBUG_VALUE: ecp_mod_p256:bits <- 256
	.loc	3 1127 5 is_stmt 1              @ ../../../ThirdParty/mbedTLS/library/ecp_curves.c:1127:5
	ldr	r0, [r4]
	ldr	r1, [r0, #44]
	@DEBUG_VALUE: ecp_mod_p256:cur <- [DW_OP_plus_uconst 60, DW_OP_deref] $sp
	@DEBUG_VALUE: ecp_mod_p256:c <- [DW_OP_plus_uconst 64, DW_OP_deref] $sp
	add	r7, sp, #60
	add	r6, sp, #64
	mov	r0, r7
	mov	r2, r6
	bl	add32
	.loc	3 1128 5                        @ ../../../ThirdParty/mbedTLS/library/ecp_curves.c:1128:5
	ldr	r0, [r4]
	ldr	r1, [r0, #44]
	mov	r0, r7
	mov	r2, r6
	bl	add32
	.loc	3 1129 5                        @ ../../../ThirdParty/mbedTLS/library/ecp_curves.c:1129:5
	ldr	r0, [r4]
	ldr	r1, [r0, #48]
	mov	r0, r7
	mov	r2, r6
	bl	add32
	.loc	3 1130 5                        @ ../../../ThirdParty/mbedTLS/library/ecp_curves.c:1130:5
	ldr	r0, [r4]
	ldr	r1, [r0, #48]
	mov	r0, r7
	mov	r2, r6
	bl	add32
	.loc	3 1131 5                        @ ../../../ThirdParty/mbedTLS/library/ecp_curves.c:1131:5
	ldr	r0, [r4]
	ldr	r1, [r0, #52]
	mov	r0, r7
	mov	r2, r6
	bl	add32
	.loc	3 1132 5                        @ ../../../ThirdParty/mbedTLS/library/ecp_curves.c:1132:5
	ldr	r0, [r4]
	ldr	r1, [r0, #60]
	mov	r0, r7
	mov	r2, r6
	bl	sub32
	.loc	3 1133 5                        @ ../../../ThirdParty/mbedTLS/library/ecp_curves.c:1133:5
	ldr	r0, [r4]
	ldr	r1, [r0, #32]
	mov	r0, r7
	mov	r2, r6
	bl	sub32
	.loc	3 1134 5                        @ ../../../ThirdParty/mbedTLS/library/ecp_curves.c:1134:5
	ldr	r0, [r4]
	ldr	r1, [r0, #36]
	mov	r0, r7
	mov	r2, r6
	bl	sub32
	.loc	3 1135 5                        @ ../../../ThirdParty/mbedTLS/library/ecp_curves.c:1135:5
	ldr	r0, [r4]
	ldr	r1, [sp, #60]
.Ltmp171:
	@DEBUG_VALUE: ecp_mod_p256:cur <- $r1
	str	r1, [r0, #12]
	ldrb	r1, [r6]
.Ltmp172:
	@DEBUG_VALUE: ecp_mod_p256:cc <- undef
	@DEBUG_VALUE: ecp_mod_p256:c <- 0
	ldr	r2, [sp, #8]                    @ 4-byte Reload
	strb	r2, [r6]
.Ltmp173:
	@DEBUG_VALUE: ecp_mod_p256:i <- 4
	ldr	r0, [r0, #16]
.Ltmp174:
	@DEBUG_VALUE: ecp_mod_p256:cur <- $r0
	str	r0, [sp, #60]
	sxtb	r1, r1
	cmp	r1, #0
	bmi	.LBB4_12
.Ltmp175:
@ %bb.11:
	@DEBUG_VALUE: ecp_mod_p256:N <- [DW_OP_plus_uconst 4] [$sp+0]
	@DEBUG_VALUE: ecp_mod_p256:ret <- [$sp+0]
	@DEBUG_VALUE: ecp_mod_p256:cur <- $r0
	@DEBUG_VALUE: ecp_mod_p256:i <- 4
	@DEBUG_VALUE: ecp_mod_p256:bits <- 256
	@DEBUG_VALUE: ecp_mod_p256:c <- 0
	@DEBUG_VALUE: ecp_mod_p256:c <- [DW_OP_plus_uconst 64, DW_OP_deref] $sp
	@DEBUG_VALUE: ecp_mod_p256:cur <- [DW_OP_plus_uconst 60, DW_OP_deref] $sp
	.loc	3 0 5 is_stmt 0                 @ ../../../ThirdParty/mbedTLS/library/ecp_curves.c:0:5
	add	r0, sp, #60
	add	r2, sp, #64
.Ltmp176:
	.loc	3 1135 5                        @ ../../../ThirdParty/mbedTLS/library/ecp_curves.c:1135:5
	bl	add32
	b	.LBB4_13
.Ltmp177:
.LBB4_12:
	@DEBUG_VALUE: ecp_mod_p256:N <- [DW_OP_plus_uconst 4] [$sp+0]
	@DEBUG_VALUE: ecp_mod_p256:ret <- [$sp+0]
	@DEBUG_VALUE: ecp_mod_p256:cur <- $r0
	@DEBUG_VALUE: ecp_mod_p256:i <- 4
	@DEBUG_VALUE: ecp_mod_p256:bits <- 256
	@DEBUG_VALUE: ecp_mod_p256:c <- 0
	@DEBUG_VALUE: ecp_mod_p256:c <- [DW_OP_plus_uconst 64, DW_OP_deref] $sp
	@DEBUG_VALUE: ecp_mod_p256:cur <- [DW_OP_plus_uconst 60, DW_OP_deref] $sp
	rsbs	r1, r1, #0
	add	r0, sp, #60
	add	r2, sp, #64
	bl	sub32
.Ltmp178:
.LBB4_13:
	@DEBUG_VALUE: ecp_mod_p256:N <- [DW_OP_plus_uconst 4] [$sp+0]
	@DEBUG_VALUE: ecp_mod_p256:ret <- [$sp+0]
	@DEBUG_VALUE: ecp_mod_p256:c <- [DW_OP_plus_uconst 64, DW_OP_deref] $sp
	@DEBUG_VALUE: ecp_mod_p256:cur <- [DW_OP_plus_uconst 60, DW_OP_deref] $sp
	@DEBUG_VALUE: ecp_mod_p256:i <- 4
	@DEBUG_VALUE: ecp_mod_p256:bits <- 256
	.loc	3 1137 5 is_stmt 1              @ ../../../ThirdParty/mbedTLS/library/ecp_curves.c:1137:5
	ldr	r0, [r4]
	ldr	r1, [r0, #48]
	@DEBUG_VALUE: ecp_mod_p256:cur <- [DW_OP_plus_uconst 60, DW_OP_deref] $sp
	@DEBUG_VALUE: ecp_mod_p256:c <- [DW_OP_plus_uconst 64, DW_OP_deref] $sp
	add	r7, sp, #60
	add	r6, sp, #64
	mov	r0, r7
	mov	r2, r6
	bl	add32
	.loc	3 1138 5                        @ ../../../ThirdParty/mbedTLS/library/ecp_curves.c:1138:5
	ldr	r0, [r4]
	ldr	r1, [r0, #48]
	mov	r0, r7
	mov	r2, r6
	bl	add32
	.loc	3 1139 5                        @ ../../../ThirdParty/mbedTLS/library/ecp_curves.c:1139:5
	ldr	r0, [r4]
	ldr	r1, [r0, #52]
	mov	r0, r7
	mov	r2, r6
	bl	add32
	.loc	3 1140 5                        @ ../../../ThirdParty/mbedTLS/library/ecp_curves.c:1140:5
	ldr	r0, [r4]
	ldr	r1, [r0, #52]
	mov	r0, r7
	mov	r2, r6
	bl	add32
	.loc	3 1141 5                        @ ../../../ThirdParty/mbedTLS/library/ecp_curves.c:1141:5
	ldr	r0, [r4]
	ldr	r1, [r0, #56]
	mov	r0, r7
	mov	r2, r6
	bl	add32
	.loc	3 1142 5                        @ ../../../ThirdParty/mbedTLS/library/ecp_curves.c:1142:5
	ldr	r0, [r4]
	ldr	r1, [r0, #36]
	mov	r0, r7
	mov	r2, r6
	bl	sub32
	.loc	3 1143 5                        @ ../../../ThirdParty/mbedTLS/library/ecp_curves.c:1143:5
	ldr	r0, [r4]
	ldr	r1, [r0, #40]
	mov	r0, r7
	mov	r2, r6
	bl	sub32
	.loc	3 1144 5                        @ ../../../ThirdParty/mbedTLS/library/ecp_curves.c:1144:5
	ldr	r0, [r4]
	ldr	r1, [sp, #60]
.Ltmp179:
	@DEBUG_VALUE: ecp_mod_p256:cur <- $r1
	str	r1, [r0, #16]
	ldrb	r1, [r6]
.Ltmp180:
	@DEBUG_VALUE: ecp_mod_p256:cc <- undef
	@DEBUG_VALUE: ecp_mod_p256:c <- 0
	ldr	r2, [sp, #8]                    @ 4-byte Reload
	strb	r2, [r6]
.Ltmp181:
	@DEBUG_VALUE: ecp_mod_p256:i <- 5
	ldr	r0, [r0, #20]
.Ltmp182:
	@DEBUG_VALUE: ecp_mod_p256:cur <- $r0
	str	r0, [sp, #60]
	sxtb	r1, r1
	cmp	r1, #0
	bmi	.LBB4_15
.Ltmp183:
@ %bb.14:
	@DEBUG_VALUE: ecp_mod_p256:N <- [DW_OP_plus_uconst 4] [$sp+0]
	@DEBUG_VALUE: ecp_mod_p256:ret <- [$sp+0]
	@DEBUG_VALUE: ecp_mod_p256:cur <- $r0
	@DEBUG_VALUE: ecp_mod_p256:i <- 5
	@DEBUG_VALUE: ecp_mod_p256:bits <- 256
	@DEBUG_VALUE: ecp_mod_p256:c <- 0
	@DEBUG_VALUE: ecp_mod_p256:c <- [DW_OP_plus_uconst 64, DW_OP_deref] $sp
	@DEBUG_VALUE: ecp_mod_p256:cur <- [DW_OP_plus_uconst 60, DW_OP_deref] $sp
	.loc	3 0 5 is_stmt 0                 @ ../../../ThirdParty/mbedTLS/library/ecp_curves.c:0:5
	add	r0, sp, #60
	add	r2, sp, #64
.Ltmp184:
	.loc	3 1144 5                        @ ../../../ThirdParty/mbedTLS/library/ecp_curves.c:1144:5
	bl	add32
	b	.LBB4_16
.Ltmp185:
.LBB4_15:
	@DEBUG_VALUE: ecp_mod_p256:N <- [DW_OP_plus_uconst 4] [$sp+0]
	@DEBUG_VALUE: ecp_mod_p256:ret <- [$sp+0]
	@DEBUG_VALUE: ecp_mod_p256:cur <- $r0
	@DEBUG_VALUE: ecp_mod_p256:i <- 5
	@DEBUG_VALUE: ecp_mod_p256:bits <- 256
	@DEBUG_VALUE: ecp_mod_p256:c <- 0
	@DEBUG_VALUE: ecp_mod_p256:c <- [DW_OP_plus_uconst 64, DW_OP_deref] $sp
	@DEBUG_VALUE: ecp_mod_p256:cur <- [DW_OP_plus_uconst 60, DW_OP_deref] $sp
	rsbs	r1, r1, #0
	add	r0, sp, #60
	add	r2, sp, #64
	bl	sub32
.Ltmp186:
.LBB4_16:
	@DEBUG_VALUE: ecp_mod_p256:N <- [DW_OP_plus_uconst 4] [$sp+0]
	@DEBUG_VALUE: ecp_mod_p256:ret <- [$sp+0]
	@DEBUG_VALUE: ecp_mod_p256:c <- [DW_OP_plus_uconst 64, DW_OP_deref] $sp
	@DEBUG_VALUE: ecp_mod_p256:cur <- [DW_OP_plus_uconst 60, DW_OP_deref] $sp
	@DEBUG_VALUE: ecp_mod_p256:i <- 5
	@DEBUG_VALUE: ecp_mod_p256:bits <- 256
	.loc	3 1146 5 is_stmt 1              @ ../../../ThirdParty/mbedTLS/library/ecp_curves.c:1146:5
	ldr	r0, [r4]
	ldr	r1, [r0, #52]
	@DEBUG_VALUE: ecp_mod_p256:cur <- [DW_OP_plus_uconst 60, DW_OP_deref] $sp
	@DEBUG_VALUE: ecp_mod_p256:c <- [DW_OP_plus_uconst 64, DW_OP_deref] $sp
	add	r7, sp, #60
	add	r6, sp, #64
	mov	r0, r7
	mov	r2, r6
	bl	add32
	.loc	3 1147 5                        @ ../../../ThirdParty/mbedTLS/library/ecp_curves.c:1147:5
	ldr	r0, [r4]
	ldr	r1, [r0, #52]
	mov	r0, r7
	mov	r2, r6
	bl	add32
	.loc	3 1148 5                        @ ../../../ThirdParty/mbedTLS/library/ecp_curves.c:1148:5
	ldr	r0, [r4]
	ldr	r1, [r0, #56]
	mov	r0, r7
	mov	r2, r6
	bl	add32
	.loc	3 1149 5                        @ ../../../ThirdParty/mbedTLS/library/ecp_curves.c:1149:5
	ldr	r0, [r4]
	ldr	r1, [r0, #56]
	mov	r0, r7
	mov	r2, r6
	bl	add32
	.loc	3 1150 5                        @ ../../../ThirdParty/mbedTLS/library/ecp_curves.c:1150:5
	ldr	r0, [r4]
	ldr	r1, [r0, #60]
	mov	r0, r7
	mov	r2, r6
	bl	add32
	.loc	3 1151 5                        @ ../../../ThirdParty/mbedTLS/library/ecp_curves.c:1151:5
	ldr	r0, [r4]
	ldr	r1, [r0, #40]
	mov	r0, r7
	mov	r2, r6
	bl	sub32
	.loc	3 1152 5                        @ ../../../ThirdParty/mbedTLS/library/ecp_curves.c:1152:5
	ldr	r0, [r4]
	ldr	r1, [r0, #44]
	mov	r0, r7
	mov	r2, r6
	bl	sub32
	.loc	3 1153 5                        @ ../../../ThirdParty/mbedTLS/library/ecp_curves.c:1153:5
	ldr	r0, [r4]
	ldr	r1, [sp, #60]
.Ltmp187:
	@DEBUG_VALUE: ecp_mod_p256:cur <- $r1
	str	r1, [r0, #20]
	ldrb	r1, [r6]
.Ltmp188:
	@DEBUG_VALUE: ecp_mod_p256:cc <- undef
	@DEBUG_VALUE: ecp_mod_p256:c <- 0
	ldr	r2, [sp, #8]                    @ 4-byte Reload
	strb	r2, [r6]
.Ltmp189:
	@DEBUG_VALUE: ecp_mod_p256:i <- 6
	ldr	r0, [r0, #24]
.Ltmp190:
	@DEBUG_VALUE: ecp_mod_p256:cur <- $r0
	str	r0, [sp, #60]
	sxtb	r1, r1
	cmp	r1, #0
	bmi	.LBB4_18
.Ltmp191:
@ %bb.17:
	@DEBUG_VALUE: ecp_mod_p256:N <- [DW_OP_plus_uconst 4] [$sp+0]
	@DEBUG_VALUE: ecp_mod_p256:ret <- [$sp+0]
	@DEBUG_VALUE: ecp_mod_p256:cur <- $r0
	@DEBUG_VALUE: ecp_mod_p256:i <- 6
	@DEBUG_VALUE: ecp_mod_p256:bits <- 256
	@DEBUG_VALUE: ecp_mod_p256:c <- 0
	@DEBUG_VALUE: ecp_mod_p256:c <- [DW_OP_plus_uconst 64, DW_OP_deref] $sp
	@DEBUG_VALUE: ecp_mod_p256:cur <- [DW_OP_plus_uconst 60, DW_OP_deref] $sp
	.loc	3 0 5 is_stmt 0                 @ ../../../ThirdParty/mbedTLS/library/ecp_curves.c:0:5
	add	r0, sp, #60
	add	r2, sp, #64
.Ltmp192:
	.loc	3 1153 5                        @ ../../../ThirdParty/mbedTLS/library/ecp_curves.c:1153:5
	bl	add32
	b	.LBB4_19
.Ltmp193:
.LBB4_18:
	@DEBUG_VALUE: ecp_mod_p256:N <- [DW_OP_plus_uconst 4] [$sp+0]
	@DEBUG_VALUE: ecp_mod_p256:ret <- [$sp+0]
	@DEBUG_VALUE: ecp_mod_p256:cur <- $r0
	@DEBUG_VALUE: ecp_mod_p256:i <- 6
	@DEBUG_VALUE: ecp_mod_p256:bits <- 256
	@DEBUG_VALUE: ecp_mod_p256:c <- 0
	@DEBUG_VALUE: ecp_mod_p256:c <- [DW_OP_plus_uconst 64, DW_OP_deref] $sp
	@DEBUG_VALUE: ecp_mod_p256:cur <- [DW_OP_plus_uconst 60, DW_OP_deref] $sp
	rsbs	r1, r1, #0
	add	r0, sp, #60
	add	r2, sp, #64
	bl	sub32
.Ltmp194:
.LBB4_19:
	@DEBUG_VALUE: ecp_mod_p256:N <- [DW_OP_plus_uconst 4] [$sp+0]
	@DEBUG_VALUE: ecp_mod_p256:ret <- [$sp+0]
	@DEBUG_VALUE: ecp_mod_p256:c <- [DW_OP_plus_uconst 64, DW_OP_deref] $sp
	@DEBUG_VALUE: ecp_mod_p256:cur <- [DW_OP_plus_uconst 60, DW_OP_deref] $sp
	@DEBUG_VALUE: ecp_mod_p256:i <- 6
	@DEBUG_VALUE: ecp_mod_p256:bits <- 256
	.loc	3 1155 5 is_stmt 1              @ ../../../ThirdParty/mbedTLS/library/ecp_curves.c:1155:5
	ldr	r0, [r4]
	ldr	r1, [r0, #56]
	@DEBUG_VALUE: ecp_mod_p256:cur <- [DW_OP_plus_uconst 60, DW_OP_deref] $sp
	@DEBUG_VALUE: ecp_mod_p256:c <- [DW_OP_plus_uconst 64, DW_OP_deref] $sp
	add	r7, sp, #60
	add	r6, sp, #64
	mov	r0, r7
	mov	r2, r6
	bl	add32
	.loc	3 1156 5                        @ ../../../ThirdParty/mbedTLS/library/ecp_curves.c:1156:5
	ldr	r0, [r4]
	ldr	r1, [r0, #56]
	mov	r0, r7
	mov	r2, r6
	bl	add32
	.loc	3 1157 5                        @ ../../../ThirdParty/mbedTLS/library/ecp_curves.c:1157:5
	ldr	r0, [r4]
	ldr	r1, [r0, #60]
	mov	r0, r7
	mov	r2, r6
	bl	add32
	.loc	3 1158 5                        @ ../../../ThirdParty/mbedTLS/library/ecp_curves.c:1158:5
	ldr	r0, [r4]
	ldr	r1, [r0, #60]
	mov	r0, r7
	mov	r2, r6
	bl	add32
	.loc	3 1159 5                        @ ../../../ThirdParty/mbedTLS/library/ecp_curves.c:1159:5
	ldr	r0, [r4]
	ldr	r1, [r0, #56]
	mov	r0, r7
	mov	r2, r6
	bl	add32
	.loc	3 1160 5                        @ ../../../ThirdParty/mbedTLS/library/ecp_curves.c:1160:5
	ldr	r0, [r4]
	ldr	r1, [r0, #52]
	mov	r0, r7
	mov	r2, r6
	bl	add32
	.loc	3 1161 5                        @ ../../../ThirdParty/mbedTLS/library/ecp_curves.c:1161:5
	ldr	r0, [r4]
	ldr	r1, [r0, #32]
	mov	r0, r7
	mov	r2, r6
	bl	sub32
	.loc	3 1162 5                        @ ../../../ThirdParty/mbedTLS/library/ecp_curves.c:1162:5
	ldr	r0, [r4]
	ldr	r1, [r0, #36]
	mov	r0, r7
	mov	r2, r6
	bl	sub32
	.loc	3 1163 5                        @ ../../../ThirdParty/mbedTLS/library/ecp_curves.c:1163:5
	ldr	r0, [r4]
	ldr	r1, [sp, #60]
.Ltmp195:
	@DEBUG_VALUE: ecp_mod_p256:cur <- $r1
	str	r1, [r0, #24]
	ldrb	r1, [r6]
.Ltmp196:
	@DEBUG_VALUE: ecp_mod_p256:cc <- undef
	@DEBUG_VALUE: ecp_mod_p256:c <- 0
	ldr	r2, [sp, #8]                    @ 4-byte Reload
	strb	r2, [r6]
.Ltmp197:
	@DEBUG_VALUE: ecp_mod_p256:i <- 7
	ldr	r0, [r0, #28]
.Ltmp198:
	@DEBUG_VALUE: ecp_mod_p256:cur <- $r0
	str	r0, [sp, #60]
	sxtb	r1, r1
	cmp	r1, #0
	bmi	.LBB4_21
.Ltmp199:
@ %bb.20:
	@DEBUG_VALUE: ecp_mod_p256:N <- [DW_OP_plus_uconst 4] [$sp+0]
	@DEBUG_VALUE: ecp_mod_p256:ret <- [$sp+0]
	@DEBUG_VALUE: ecp_mod_p256:cur <- $r0
	@DEBUG_VALUE: ecp_mod_p256:i <- 7
	@DEBUG_VALUE: ecp_mod_p256:bits <- 256
	@DEBUG_VALUE: ecp_mod_p256:c <- 0
	@DEBUG_VALUE: ecp_mod_p256:c <- [DW_OP_plus_uconst 64, DW_OP_deref] $sp
	@DEBUG_VALUE: ecp_mod_p256:cur <- [DW_OP_plus_uconst 60, DW_OP_deref] $sp
	.loc	3 0 5 is_stmt 0                 @ ../../../ThirdParty/mbedTLS/library/ecp_curves.c:0:5
	add	r0, sp, #60
	add	r2, sp, #64
.Ltmp200:
	.loc	3 1163 5                        @ ../../../ThirdParty/mbedTLS/library/ecp_curves.c:1163:5
	bl	add32
	b	.LBB4_22
.Ltmp201:
.LBB4_21:
	@DEBUG_VALUE: ecp_mod_p256:N <- [DW_OP_plus_uconst 4] [$sp+0]
	@DEBUG_VALUE: ecp_mod_p256:ret <- [$sp+0]
	@DEBUG_VALUE: ecp_mod_p256:cur <- $r0
	@DEBUG_VALUE: ecp_mod_p256:i <- 7
	@DEBUG_VALUE: ecp_mod_p256:bits <- 256
	@DEBUG_VALUE: ecp_mod_p256:c <- 0
	@DEBUG_VALUE: ecp_mod_p256:c <- [DW_OP_plus_uconst 64, DW_OP_deref] $sp
	@DEBUG_VALUE: ecp_mod_p256:cur <- [DW_OP_plus_uconst 60, DW_OP_deref] $sp
	rsbs	r1, r1, #0
	add	r0, sp, #60
	add	r2, sp, #64
	bl	sub32
.Ltmp202:
.LBB4_22:
	@DEBUG_VALUE: ecp_mod_p256:N <- [DW_OP_plus_uconst 4] [$sp+0]
	@DEBUG_VALUE: ecp_mod_p256:ret <- [$sp+0]
	@DEBUG_VALUE: ecp_mod_p256:c <- [DW_OP_plus_uconst 64, DW_OP_deref] $sp
	@DEBUG_VALUE: ecp_mod_p256:cur <- [DW_OP_plus_uconst 60, DW_OP_deref] $sp
	@DEBUG_VALUE: ecp_mod_p256:i <- 7
	@DEBUG_VALUE: ecp_mod_p256:bits <- 256
	.loc	3 0 5                           @ ../../../ThirdParty/mbedTLS/library/ecp_curves.c:0:5
	ldr	r4, [sp, #4]                    @ 4-byte Reload
.Ltmp203:
	@DEBUG_VALUE: ecp_mod_p256:N <- $r4
	.loc	3 1165 5 is_stmt 1              @ ../../../ThirdParty/mbedTLS/library/ecp_curves.c:1165:5
	ldr	r0, [r4, #8]
	ldr	r1, [r0, #60]
	@DEBUG_VALUE: ecp_mod_p256:cur <- [DW_OP_plus_uconst 60, DW_OP_deref] $sp
	@DEBUG_VALUE: ecp_mod_p256:c <- [DW_OP_plus_uconst 64, DW_OP_deref] $sp
	add	r7, sp, #60
	add	r6, sp, #64
	mov	r0, r7
	mov	r2, r6
	bl	add32
	.loc	3 1166 5                        @ ../../../ThirdParty/mbedTLS/library/ecp_curves.c:1166:5
	ldr	r0, [r4, #8]
	ldr	r1, [r0, #60]
	mov	r0, r7
	mov	r2, r6
	bl	add32
	.loc	3 1167 5                        @ ../../../ThirdParty/mbedTLS/library/ecp_curves.c:1167:5
	ldr	r0, [r4, #8]
	ldr	r1, [r0, #60]
	mov	r0, r7
	mov	r2, r6
	bl	add32
	.loc	3 1168 5                        @ ../../../ThirdParty/mbedTLS/library/ecp_curves.c:1168:5
	ldr	r0, [r4, #8]
	ldr	r1, [r0, #32]
	mov	r0, r7
	mov	r2, r6
	bl	add32
	.loc	3 1169 5                        @ ../../../ThirdParty/mbedTLS/library/ecp_curves.c:1169:5
	ldr	r0, [r4, #8]
	ldr	r1, [r0, #40]
	mov	r0, r7
	mov	r2, r6
	bl	sub32
	.loc	3 1170 5                        @ ../../../ThirdParty/mbedTLS/library/ecp_curves.c:1170:5
	ldr	r0, [r4, #8]
	ldr	r1, [r0, #44]
	mov	r0, r7
	mov	r2, r6
	bl	sub32
	.loc	3 1171 5                        @ ../../../ThirdParty/mbedTLS/library/ecp_curves.c:1171:5
	ldr	r0, [r4, #8]
	ldr	r1, [r0, #48]
	mov	r0, r7
	mov	r2, r6
	bl	sub32
	.loc	3 1172 5                        @ ../../../ThirdParty/mbedTLS/library/ecp_curves.c:1172:5
	ldr	r0, [r4, #8]
	ldr	r1, [r0, #52]
	mov	r0, r7
	mov	r2, r6
	bl	sub32
	.loc	3 1173 5                        @ ../../../ThirdParty/mbedTLS/library/ecp_curves.c:1173:5
	ldr	r7, [r4, #8]
	ldr	r2, [sp, #60]
.Ltmp204:
	@DEBUG_VALUE: ecp_mod_p256:cur <- $r2
	@DEBUG_VALUE: ecp_mod_p256:i <- 8
	ldrb	r1, [r6]
	sxtb	r1, r1
.Ltmp205:
	@DEBUG_VALUE: ecp_mod_p256:c <- undef
	asrs	r3, r1, #31
	mov	r4, r1
.Ltmp206:
	bics	r4, r3
.Ltmp207:
	@DEBUG_VALUE: ecp_mod_p256:cur <- 0
	str	r2, [r7, #28]
	str	r4, [r7, #32]
	ldr	r0, [sp, #4]                    @ 4-byte Reload
	ldr	r2, [sp, #8]                    @ 4-byte Reload
	str	r2, [sp, #60]
.Ltmp208:
	@DEBUG_VALUE: ecp_mod_p256:i <- 9
	ldr	r2, [r0, #4]
	cmp	r2, #10
	blo	.LBB4_25
.Ltmp209:
@ %bb.23:
	@DEBUG_VALUE: ecp_mod_p256:ret <- [$sp+0]
	@DEBUG_VALUE: ecp_mod_p256:i <- 9
	@DEBUG_VALUE: ecp_mod_p256:cur <- 0
	@DEBUG_VALUE: ecp_mod_p256:bits <- 256
	adds	r7, #36
.Ltmp210:
.LBB4_24:                               @ =>This Inner Loop Header: Depth=1
	@DEBUG_VALUE: ecp_mod_p256:ret <- [$sp+0]
	@DEBUG_VALUE: ecp_mod_p256:bits <- 256
	.loc	3 1173 5 is_stmt 0              @ ../../../ThirdParty/mbedTLS/library/ecp_curves.c:1173:5
	ldr	r2, [sp, #60]
.Ltmp211:
	@DEBUG_VALUE: ecp_mod_p256:cur <- $r2
	stm	r7!, {r2}
.Ltmp212:
	@DEBUG_VALUE: ecp_mod_p256:i <- $r5
	.loc	3 1173 5                        @ ../../../ThirdParty/mbedTLS/library/ecp_curves.c:1173:5
	adds	r5, r5, #1
.Ltmp213:
	@DEBUG_VALUE: ecp_mod_p256:i <- $r5
	ldr	r2, [r0, #4]
.Ltmp214:
	cmp	r5, r2
	blo	.LBB4_24
.Ltmp215:
.LBB4_25:
	@DEBUG_VALUE: ecp_mod_p256:ret <- [$sp+0]
	@DEBUG_VALUE: ecp_mod_p256:bits <- 256
	@DEBUG_VALUE: ecp_mod_p256:c <- $r1
	cmp	r1, #0
	ldr	r6, [sp]                        @ 4-byte Reload
.Ltmp216:
	@DEBUG_VALUE: ecp_mod_p256:ret <- $r6
	bpl	.LBB4_27
.Ltmp217:
@ %bb.26:
	@DEBUG_VALUE: ecp_mod_p256:ret <- $r6
	@DEBUG_VALUE: ecp_mod_p256:c <- $r1
	@DEBUG_VALUE: ecp_mod_p256:bits <- 256
	.loc	3 0 5                           @ ../../../ThirdParty/mbedTLS/library/ecp_curves.c:0:5
	add	r2, sp, #48
.Ltmp218:
	.loc	3 1173 5                        @ ../../../ThirdParty/mbedTLS/library/ecp_curves.c:1173:5
	bl	fix_negative
.Ltmp219:
.LBB4_27:
	@DEBUG_VALUE: ecp_mod_p256:ret <- $r6
	@DEBUG_VALUE: ecp_mod_p256:bits <- 256
	@DEBUG_LABEL: ecp_mod_p256:cleanup
	.loc	3 1176 5 is_stmt 1              @ ../../../ThirdParty/mbedTLS/library/ecp_curves.c:1176:5
	mov	r0, r6
	add	sp, #68
	pop	{r4, r5, r6, r7, pc}
.Ltmp220:
.Lfunc_end4:
	.size	ecp_mod_p256, .Lfunc_end4-ecp_mod_p256
	.cfi_endproc
	.cantunwind
	.fnend
                                        @ -- End function
	.section	.text.ecp_mod_p384,"ax",%progbits
	.p2align	1                               @ -- Begin function ecp_mod_p384
	.type	ecp_mod_p384,%function
	.code	16                              @ @ecp_mod_p384
	.thumb_func
ecp_mod_p384:
.Lfunc_begin5:
	.loc	3 1185 0                        @ ../../../ThirdParty/mbedTLS/library/ecp_curves.c:1185:0
	.fnstart
	.cfi_startproc
@ %bb.0:
	@DEBUG_VALUE: ecp_mod_p384:N <- $r0
	.save	{r4, r5, r6, r7, lr}
	push	{r4, r5, r6, r7, lr}
	.cfi_def_cfa_offset 20
	.cfi_offset lr, -4
	.cfi_offset r7, -8
	.cfi_offset r6, -12
	.cfi_offset r5, -16
	.cfi_offset r4, -20
	.pad	#84
	sub	sp, #84
	.cfi_def_cfa_offset 104
	mov	r4, r0
	add	r0, sp, #80
.Ltmp221:
	@DEBUG_VALUE: ecp_mod_p384:N <- [DW_OP_LLVM_entry_value 1] $r0
	movs	r7, #0
.Ltmp222:
	@DEBUG_VALUE: ecp_mod_p384:c <- 0
	@DEBUG_VALUE: ecp_mod_p384:N <- $r4
	.loc	3 1186 5 prologue_end           @ ../../../ThirdParty/mbedTLS/library/ecp_curves.c:1186:5
	strb	r7, [r0]
.Ltmp223:
	@DEBUG_VALUE: ecp_mod_p384:bits <- 384
	@DEBUG_VALUE: ecp_mod_p384:i <- 0
	.loc	3 0 5 is_stmt 0                 @ ../../../ThirdParty/mbedTLS/library/ecp_curves.c:0:5
	add	r0, sp, #12
	.loc	3 1186 5                        @ ../../../ThirdParty/mbedTLS/library/ecp_curves.c:1186:5
	str	r0, [sp, #72]
	movs	r5, #13
	str	r5, [sp, #68]
	movs	r1, #1
	str	r1, [sp, #64]
	movs	r1, #52
	bl	__aeabi_memclr4
	movs	r1, #24
.Ltmp224:
	.loc	3 1186 5                        @ ../../../ThirdParty/mbedTLS/library/ecp_curves.c:1186:5
	mov	r0, r4
	bl	mbedtls_mpi_grow
	mov	r6, r0
.Ltmp225:
	@DEBUG_VALUE: ecp_mod_p384:ret <- $r6
	.loc	3 1186 5                        @ ../../../ThirdParty/mbedTLS/library/ecp_curves.c:1186:5
	cmp	r0, #0
	beq	.LBB5_1
	b	.LBB5_39
.Ltmp226:
.LBB5_1:
	@DEBUG_VALUE: ecp_mod_p384:ret <- $r6
	@DEBUG_VALUE: ecp_mod_p384:N <- $r4
	@DEBUG_VALUE: ecp_mod_p384:i <- 0
	@DEBUG_VALUE: ecp_mod_p384:bits <- 384
	@DEBUG_VALUE: ecp_mod_p384:c <- 0
	.loc	3 0 5                           @ ../../../ThirdParty/mbedTLS/library/ecp_curves.c:0:5
	str	r6, [sp]                        @ 4-byte Spill
.Ltmp227:
	@DEBUG_VALUE: ecp_mod_p384:ret <- [$sp+0]
	.loc	3 1186 5                        @ ../../../ThirdParty/mbedTLS/library/ecp_curves.c:1186:5
	ldr	r0, [r4, #8]
	ldr	r1, [r0]
.Ltmp228:
	@DEBUG_VALUE: ecp_mod_p384:cur <- $r1
	str	r1, [sp, #76]
	.loc	3 1188 5 is_stmt 1              @ ../../../ThirdParty/mbedTLS/library/ecp_curves.c:1188:5
	ldr	r1, [r0, #48]
.Ltmp229:
	@DEBUG_VALUE: ecp_mod_p384:cur <- [DW_OP_plus_uconst 76, DW_OP_deref] $sp
	@DEBUG_VALUE: ecp_mod_p384:c <- [DW_OP_plus_uconst 80, DW_OP_deref] $sp
	.loc	3 0 5 is_stmt 0                 @ ../../../ThirdParty/mbedTLS/library/ecp_curves.c:0:5
	str	r7, [sp, #8]                    @ 4-byte Spill
	add	r7, sp, #76
	add	r6, sp, #80
	.loc	3 1188 5                        @ ../../../ThirdParty/mbedTLS/library/ecp_curves.c:1188:5
	mov	r0, r7
	mov	r2, r6
	bl	add32
	.loc	3 1189 5 is_stmt 1              @ ../../../ThirdParty/mbedTLS/library/ecp_curves.c:1189:5
	ldr	r0, [r4, #8]
	ldr	r1, [r0, #84]
	mov	r0, r7
	mov	r2, r6
	bl	add32
	.loc	3 1190 5                        @ ../../../ThirdParty/mbedTLS/library/ecp_curves.c:1190:5
	ldr	r0, [r4, #8]
	ldr	r1, [r0, #80]
	mov	r0, r7
	mov	r2, r6
	bl	add32
	.loc	3 1191 5                        @ ../../../ThirdParty/mbedTLS/library/ecp_curves.c:1191:5
	ldr	r0, [r4, #8]
	ldr	r1, [r0, #92]
	mov	r0, r7
	mov	r2, r6
	bl	sub32
	.loc	3 1192 5                        @ ../../../ThirdParty/mbedTLS/library/ecp_curves.c:1192:5
	ldr	r0, [r4, #8]
	ldr	r1, [sp, #76]
.Ltmp230:
	@DEBUG_VALUE: ecp_mod_p384:cur <- $r1
	str	r1, [r0]
	ldrb	r1, [r6]
.Ltmp231:
	@DEBUG_VALUE: ecp_mod_p384:cc <- undef
	@DEBUG_VALUE: ecp_mod_p384:c <- 0
	ldr	r2, [sp, #8]                    @ 4-byte Reload
	strb	r2, [r6]
.Ltmp232:
	@DEBUG_VALUE: ecp_mod_p384:i <- 1
	ldr	r0, [r0, #4]
.Ltmp233:
	@DEBUG_VALUE: ecp_mod_p384:cur <- $r0
	str	r0, [sp, #76]
	str	r4, [sp, #4]                    @ 4-byte Spill
.Ltmp234:
	@DEBUG_VALUE: ecp_mod_p384:N <- [DW_OP_plus_uconst 4] [$sp+0]
	.loc	3 1186 5                        @ ../../../ThirdParty/mbedTLS/library/ecp_curves.c:1186:5
	adds	r4, #8
	.loc	3 1192 5                        @ ../../../ThirdParty/mbedTLS/library/ecp_curves.c:1192:5
	sxtb	r1, r1
	cmp	r1, #0
	bmi	.LBB5_3
.Ltmp235:
@ %bb.2:
	@DEBUG_VALUE: ecp_mod_p384:N <- [DW_OP_plus_uconst 4] [$sp+0]
	@DEBUG_VALUE: ecp_mod_p384:ret <- [$sp+0]
	@DEBUG_VALUE: ecp_mod_p384:cur <- $r0
	@DEBUG_VALUE: ecp_mod_p384:i <- 1
	@DEBUG_VALUE: ecp_mod_p384:bits <- 384
	@DEBUG_VALUE: ecp_mod_p384:c <- 0
	@DEBUG_VALUE: ecp_mod_p384:c <- [DW_OP_plus_uconst 80, DW_OP_deref] $sp
	@DEBUG_VALUE: ecp_mod_p384:cur <- [DW_OP_plus_uconst 76, DW_OP_deref] $sp
	.loc	3 0 5 is_stmt 0                 @ ../../../ThirdParty/mbedTLS/library/ecp_curves.c:0:5
	add	r0, sp, #76
	add	r2, sp, #80
.Ltmp236:
	.loc	3 1192 5                        @ ../../../ThirdParty/mbedTLS/library/ecp_curves.c:1192:5
	bl	add32
	b	.LBB5_4
.Ltmp237:
.LBB5_3:
	@DEBUG_VALUE: ecp_mod_p384:N <- [DW_OP_plus_uconst 4] [$sp+0]
	@DEBUG_VALUE: ecp_mod_p384:ret <- [$sp+0]
	@DEBUG_VALUE: ecp_mod_p384:cur <- $r0
	@DEBUG_VALUE: ecp_mod_p384:i <- 1
	@DEBUG_VALUE: ecp_mod_p384:bits <- 384
	@DEBUG_VALUE: ecp_mod_p384:c <- 0
	@DEBUG_VALUE: ecp_mod_p384:c <- [DW_OP_plus_uconst 80, DW_OP_deref] $sp
	@DEBUG_VALUE: ecp_mod_p384:cur <- [DW_OP_plus_uconst 76, DW_OP_deref] $sp
	rsbs	r1, r1, #0
	add	r0, sp, #76
	add	r2, sp, #80
	bl	sub32
.Ltmp238:
.LBB5_4:
	@DEBUG_VALUE: ecp_mod_p384:N <- [DW_OP_plus_uconst 4] [$sp+0]
	@DEBUG_VALUE: ecp_mod_p384:ret <- [$sp+0]
	@DEBUG_VALUE: ecp_mod_p384:c <- [DW_OP_plus_uconst 80, DW_OP_deref] $sp
	@DEBUG_VALUE: ecp_mod_p384:cur <- [DW_OP_plus_uconst 76, DW_OP_deref] $sp
	@DEBUG_VALUE: ecp_mod_p384:i <- 1
	@DEBUG_VALUE: ecp_mod_p384:bits <- 384
	.loc	3 1194 5 is_stmt 1              @ ../../../ThirdParty/mbedTLS/library/ecp_curves.c:1194:5
	ldr	r0, [r4]
	ldr	r1, [r0, #52]
	@DEBUG_VALUE: ecp_mod_p384:cur <- [DW_OP_plus_uconst 76, DW_OP_deref] $sp
	@DEBUG_VALUE: ecp_mod_p384:c <- [DW_OP_plus_uconst 80, DW_OP_deref] $sp
	add	r7, sp, #76
	add	r6, sp, #80
	mov	r0, r7
	mov	r2, r6
	bl	add32
	.loc	3 1195 5                        @ ../../../ThirdParty/mbedTLS/library/ecp_curves.c:1195:5
	ldr	r0, [r4]
	ldr	r1, [r0, #88]
	mov	r0, r7
	mov	r2, r6
	bl	add32
	.loc	3 1196 5                        @ ../../../ThirdParty/mbedTLS/library/ecp_curves.c:1196:5
	ldr	r0, [r4]
	ldr	r1, [r0, #92]
	mov	r0, r7
	mov	r2, r6
	bl	add32
	.loc	3 1197 5                        @ ../../../ThirdParty/mbedTLS/library/ecp_curves.c:1197:5
	ldr	r0, [r4]
	ldr	r1, [r0, #48]
	mov	r0, r7
	mov	r2, r6
	bl	sub32
	.loc	3 1198 5                        @ ../../../ThirdParty/mbedTLS/library/ecp_curves.c:1198:5
	ldr	r0, [r4]
	ldr	r1, [r0, #80]
	mov	r0, r7
	mov	r2, r6
	bl	sub32
	.loc	3 1199 5                        @ ../../../ThirdParty/mbedTLS/library/ecp_curves.c:1199:5
	ldr	r0, [r4]
	ldr	r1, [sp, #76]
.Ltmp239:
	@DEBUG_VALUE: ecp_mod_p384:cur <- $r1
	str	r1, [r0, #4]
	ldrb	r1, [r6]
.Ltmp240:
	@DEBUG_VALUE: ecp_mod_p384:cc <- undef
	@DEBUG_VALUE: ecp_mod_p384:c <- 0
	ldr	r2, [sp, #8]                    @ 4-byte Reload
	strb	r2, [r6]
.Ltmp241:
	@DEBUG_VALUE: ecp_mod_p384:i <- 2
	ldr	r0, [r0, #8]
.Ltmp242:
	@DEBUG_VALUE: ecp_mod_p384:cur <- $r0
	str	r0, [sp, #76]
	sxtb	r1, r1
	cmp	r1, #0
	bmi	.LBB5_6
.Ltmp243:
@ %bb.5:
	@DEBUG_VALUE: ecp_mod_p384:N <- [DW_OP_plus_uconst 4] [$sp+0]
	@DEBUG_VALUE: ecp_mod_p384:ret <- [$sp+0]
	@DEBUG_VALUE: ecp_mod_p384:cur <- $r0
	@DEBUG_VALUE: ecp_mod_p384:i <- 2
	@DEBUG_VALUE: ecp_mod_p384:bits <- 384
	@DEBUG_VALUE: ecp_mod_p384:c <- 0
	@DEBUG_VALUE: ecp_mod_p384:c <- [DW_OP_plus_uconst 80, DW_OP_deref] $sp
	@DEBUG_VALUE: ecp_mod_p384:cur <- [DW_OP_plus_uconst 76, DW_OP_deref] $sp
	.loc	3 0 5 is_stmt 0                 @ ../../../ThirdParty/mbedTLS/library/ecp_curves.c:0:5
	add	r0, sp, #76
	add	r2, sp, #80
.Ltmp244:
	.loc	3 1199 5                        @ ../../../ThirdParty/mbedTLS/library/ecp_curves.c:1199:5
	bl	add32
	b	.LBB5_7
.Ltmp245:
.LBB5_6:
	@DEBUG_VALUE: ecp_mod_p384:N <- [DW_OP_plus_uconst 4] [$sp+0]
	@DEBUG_VALUE: ecp_mod_p384:ret <- [$sp+0]
	@DEBUG_VALUE: ecp_mod_p384:cur <- $r0
	@DEBUG_VALUE: ecp_mod_p384:i <- 2
	@DEBUG_VALUE: ecp_mod_p384:bits <- 384
	@DEBUG_VALUE: ecp_mod_p384:c <- 0
	@DEBUG_VALUE: ecp_mod_p384:c <- [DW_OP_plus_uconst 80, DW_OP_deref] $sp
	@DEBUG_VALUE: ecp_mod_p384:cur <- [DW_OP_plus_uconst 76, DW_OP_deref] $sp
	rsbs	r1, r1, #0
	add	r0, sp, #76
	add	r2, sp, #80
	bl	sub32
.Ltmp246:
.LBB5_7:
	@DEBUG_VALUE: ecp_mod_p384:N <- [DW_OP_plus_uconst 4] [$sp+0]
	@DEBUG_VALUE: ecp_mod_p384:ret <- [$sp+0]
	@DEBUG_VALUE: ecp_mod_p384:c <- [DW_OP_plus_uconst 80, DW_OP_deref] $sp
	@DEBUG_VALUE: ecp_mod_p384:cur <- [DW_OP_plus_uconst 76, DW_OP_deref] $sp
	@DEBUG_VALUE: ecp_mod_p384:i <- 2
	@DEBUG_VALUE: ecp_mod_p384:bits <- 384
	.loc	3 1201 5 is_stmt 1              @ ../../../ThirdParty/mbedTLS/library/ecp_curves.c:1201:5
	ldr	r0, [r4]
	ldr	r1, [r0, #56]
	@DEBUG_VALUE: ecp_mod_p384:cur <- [DW_OP_plus_uconst 76, DW_OP_deref] $sp
	@DEBUG_VALUE: ecp_mod_p384:c <- [DW_OP_plus_uconst 80, DW_OP_deref] $sp
	add	r7, sp, #76
	add	r6, sp, #80
	mov	r0, r7
	mov	r2, r6
	bl	add32
	.loc	3 1202 5                        @ ../../../ThirdParty/mbedTLS/library/ecp_curves.c:1202:5
	ldr	r0, [r4]
	ldr	r1, [r0, #92]
	mov	r0, r7
	mov	r2, r6
	bl	add32
	.loc	3 1203 5                        @ ../../../ThirdParty/mbedTLS/library/ecp_curves.c:1203:5
	ldr	r0, [r4]
	ldr	r1, [r0, #52]
	mov	r0, r7
	mov	r2, r6
	bl	sub32
	.loc	3 1204 5                        @ ../../../ThirdParty/mbedTLS/library/ecp_curves.c:1204:5
	ldr	r0, [r4]
	ldr	r1, [r0, #84]
	mov	r0, r7
	mov	r2, r6
	bl	sub32
	.loc	3 1205 5                        @ ../../../ThirdParty/mbedTLS/library/ecp_curves.c:1205:5
	ldr	r0, [r4]
	ldr	r1, [sp, #76]
.Ltmp247:
	@DEBUG_VALUE: ecp_mod_p384:cur <- $r1
	str	r1, [r0, #8]
	ldrb	r1, [r6]
.Ltmp248:
	@DEBUG_VALUE: ecp_mod_p384:cc <- undef
	@DEBUG_VALUE: ecp_mod_p384:c <- 0
	ldr	r2, [sp, #8]                    @ 4-byte Reload
	strb	r2, [r6]
.Ltmp249:
	@DEBUG_VALUE: ecp_mod_p384:i <- 3
	ldr	r0, [r0, #12]
.Ltmp250:
	@DEBUG_VALUE: ecp_mod_p384:cur <- $r0
	str	r0, [sp, #76]
	sxtb	r1, r1
	cmp	r1, #0
	bmi	.LBB5_9
.Ltmp251:
@ %bb.8:
	@DEBUG_VALUE: ecp_mod_p384:N <- [DW_OP_plus_uconst 4] [$sp+0]
	@DEBUG_VALUE: ecp_mod_p384:ret <- [$sp+0]
	@DEBUG_VALUE: ecp_mod_p384:cur <- $r0
	@DEBUG_VALUE: ecp_mod_p384:i <- 3
	@DEBUG_VALUE: ecp_mod_p384:bits <- 384
	@DEBUG_VALUE: ecp_mod_p384:c <- 0
	@DEBUG_VALUE: ecp_mod_p384:c <- [DW_OP_plus_uconst 80, DW_OP_deref] $sp
	@DEBUG_VALUE: ecp_mod_p384:cur <- [DW_OP_plus_uconst 76, DW_OP_deref] $sp
	.loc	3 0 5 is_stmt 0                 @ ../../../ThirdParty/mbedTLS/library/ecp_curves.c:0:5
	add	r0, sp, #76
	add	r2, sp, #80
.Ltmp252:
	.loc	3 1205 5                        @ ../../../ThirdParty/mbedTLS/library/ecp_curves.c:1205:5
	bl	add32
	b	.LBB5_10
.Ltmp253:
.LBB5_9:
	@DEBUG_VALUE: ecp_mod_p384:N <- [DW_OP_plus_uconst 4] [$sp+0]
	@DEBUG_VALUE: ecp_mod_p384:ret <- [$sp+0]
	@DEBUG_VALUE: ecp_mod_p384:cur <- $r0
	@DEBUG_VALUE: ecp_mod_p384:i <- 3
	@DEBUG_VALUE: ecp_mod_p384:bits <- 384
	@DEBUG_VALUE: ecp_mod_p384:c <- 0
	@DEBUG_VALUE: ecp_mod_p384:c <- [DW_OP_plus_uconst 80, DW_OP_deref] $sp
	@DEBUG_VALUE: ecp_mod_p384:cur <- [DW_OP_plus_uconst 76, DW_OP_deref] $sp
	rsbs	r1, r1, #0
	add	r0, sp, #76
	add	r2, sp, #80
	bl	sub32
.Ltmp254:
.LBB5_10:
	@DEBUG_VALUE: ecp_mod_p384:N <- [DW_OP_plus_uconst 4] [$sp+0]
	@DEBUG_VALUE: ecp_mod_p384:ret <- [$sp+0]
	@DEBUG_VALUE: ecp_mod_p384:c <- [DW_OP_plus_uconst 80, DW_OP_deref] $sp
	@DEBUG_VALUE: ecp_mod_p384:cur <- [DW_OP_plus_uconst 76, DW_OP_deref] $sp
	@DEBUG_VALUE: ecp_mod_p384:i <- 3
	@DEBUG_VALUE: ecp_mod_p384:bits <- 384
	.loc	3 1207 5 is_stmt 1              @ ../../../ThirdParty/mbedTLS/library/ecp_curves.c:1207:5
	ldr	r0, [r4]
	ldr	r1, [r0, #60]
	@DEBUG_VALUE: ecp_mod_p384:cur <- [DW_OP_plus_uconst 76, DW_OP_deref] $sp
	@DEBUG_VALUE: ecp_mod_p384:c <- [DW_OP_plus_uconst 80, DW_OP_deref] $sp
	add	r7, sp, #76
	add	r6, sp, #80
	mov	r0, r7
	mov	r2, r6
	bl	add32
	.loc	3 1208 5                        @ ../../../ThirdParty/mbedTLS/library/ecp_curves.c:1208:5
	ldr	r0, [r4]
	ldr	r1, [r0, #48]
	mov	r0, r7
	mov	r2, r6
	bl	add32
	.loc	3 1209 5                        @ ../../../ThirdParty/mbedTLS/library/ecp_curves.c:1209:5
	ldr	r0, [r4]
	ldr	r1, [r0, #80]
	mov	r0, r7
	mov	r2, r6
	bl	add32
	.loc	3 1210 5                        @ ../../../ThirdParty/mbedTLS/library/ecp_curves.c:1210:5
	ldr	r0, [r4]
	ldr	r1, [r0, #84]
	mov	r0, r7
	mov	r2, r6
	bl	add32
	.loc	3 1211 5                        @ ../../../ThirdParty/mbedTLS/library/ecp_curves.c:1211:5
	ldr	r0, [r4]
	ldr	r1, [r0, #56]
	mov	r0, r7
	mov	r2, r6
	bl	sub32
	.loc	3 1212 5                        @ ../../../ThirdParty/mbedTLS/library/ecp_curves.c:1212:5
	ldr	r0, [r4]
	ldr	r1, [r0, #88]
	mov	r0, r7
	mov	r2, r6
	bl	sub32
	.loc	3 1213 5                        @ ../../../ThirdParty/mbedTLS/library/ecp_curves.c:1213:5
	ldr	r0, [r4]
	ldr	r1, [r0, #92]
	mov	r0, r7
	mov	r2, r6
	bl	sub32
	.loc	3 1214 5                        @ ../../../ThirdParty/mbedTLS/library/ecp_curves.c:1214:5
	ldr	r0, [r4]
	ldr	r1, [sp, #76]
.Ltmp255:
	@DEBUG_VALUE: ecp_mod_p384:cur <- $r1
	str	r1, [r0, #12]
	ldrb	r1, [r6]
.Ltmp256:
	@DEBUG_VALUE: ecp_mod_p384:cc <- undef
	@DEBUG_VALUE: ecp_mod_p384:c <- 0
	ldr	r2, [sp, #8]                    @ 4-byte Reload
	strb	r2, [r6]
.Ltmp257:
	@DEBUG_VALUE: ecp_mod_p384:i <- 4
	ldr	r0, [r0, #16]
.Ltmp258:
	@DEBUG_VALUE: ecp_mod_p384:cur <- $r0
	str	r0, [sp, #76]
	sxtb	r1, r1
	cmp	r1, #0
	bmi	.LBB5_12
.Ltmp259:
@ %bb.11:
	@DEBUG_VALUE: ecp_mod_p384:N <- [DW_OP_plus_uconst 4] [$sp+0]
	@DEBUG_VALUE: ecp_mod_p384:ret <- [$sp+0]
	@DEBUG_VALUE: ecp_mod_p384:cur <- $r0
	@DEBUG_VALUE: ecp_mod_p384:i <- 4
	@DEBUG_VALUE: ecp_mod_p384:bits <- 384
	@DEBUG_VALUE: ecp_mod_p384:c <- 0
	@DEBUG_VALUE: ecp_mod_p384:c <- [DW_OP_plus_uconst 80, DW_OP_deref] $sp
	@DEBUG_VALUE: ecp_mod_p384:cur <- [DW_OP_plus_uconst 76, DW_OP_deref] $sp
	.loc	3 0 5 is_stmt 0                 @ ../../../ThirdParty/mbedTLS/library/ecp_curves.c:0:5
	add	r0, sp, #76
	add	r2, sp, #80
.Ltmp260:
	.loc	3 1214 5                        @ ../../../ThirdParty/mbedTLS/library/ecp_curves.c:1214:5
	bl	add32
	b	.LBB5_13
.Ltmp261:
.LBB5_12:
	@DEBUG_VALUE: ecp_mod_p384:N <- [DW_OP_plus_uconst 4] [$sp+0]
	@DEBUG_VALUE: ecp_mod_p384:ret <- [$sp+0]
	@DEBUG_VALUE: ecp_mod_p384:cur <- $r0
	@DEBUG_VALUE: ecp_mod_p384:i <- 4
	@DEBUG_VALUE: ecp_mod_p384:bits <- 384
	@DEBUG_VALUE: ecp_mod_p384:c <- 0
	@DEBUG_VALUE: ecp_mod_p384:c <- [DW_OP_plus_uconst 80, DW_OP_deref] $sp
	@DEBUG_VALUE: ecp_mod_p384:cur <- [DW_OP_plus_uconst 76, DW_OP_deref] $sp
	rsbs	r1, r1, #0
	add	r0, sp, #76
	add	r2, sp, #80
	bl	sub32
.Ltmp262:
.LBB5_13:
	@DEBUG_VALUE: ecp_mod_p384:N <- [DW_OP_plus_uconst 4] [$sp+0]
	@DEBUG_VALUE: ecp_mod_p384:ret <- [$sp+0]
	@DEBUG_VALUE: ecp_mod_p384:c <- [DW_OP_plus_uconst 80, DW_OP_deref] $sp
	@DEBUG_VALUE: ecp_mod_p384:cur <- [DW_OP_plus_uconst 76, DW_OP_deref] $sp
	@DEBUG_VALUE: ecp_mod_p384:i <- 4
	@DEBUG_VALUE: ecp_mod_p384:bits <- 384
	.loc	3 1216 5 is_stmt 1              @ ../../../ThirdParty/mbedTLS/library/ecp_curves.c:1216:5
	ldr	r0, [r4]
	ldr	r1, [r0, #84]
	@DEBUG_VALUE: ecp_mod_p384:cur <- [DW_OP_plus_uconst 76, DW_OP_deref] $sp
	@DEBUG_VALUE: ecp_mod_p384:c <- [DW_OP_plus_uconst 80, DW_OP_deref] $sp
	add	r7, sp, #76
	add	r6, sp, #80
	mov	r0, r7
	mov	r2, r6
	bl	add32
	.loc	3 1217 5                        @ ../../../ThirdParty/mbedTLS/library/ecp_curves.c:1217:5
	ldr	r0, [r4]
	ldr	r1, [r0, #84]
	mov	r0, r7
	mov	r2, r6
	bl	add32
	.loc	3 1218 5                        @ ../../../ThirdParty/mbedTLS/library/ecp_curves.c:1218:5
	ldr	r0, [r4]
	ldr	r1, [r0, #64]
	mov	r0, r7
	mov	r2, r6
	bl	add32
	.loc	3 1219 5                        @ ../../../ThirdParty/mbedTLS/library/ecp_curves.c:1219:5
	ldr	r0, [r4]
	ldr	r1, [r0, #52]
	mov	r0, r7
	mov	r2, r6
	bl	add32
	.loc	3 1220 5                        @ ../../../ThirdParty/mbedTLS/library/ecp_curves.c:1220:5
	ldr	r0, [r4]
	ldr	r1, [r0, #48]
	mov	r0, r7
	mov	r2, r6
	bl	add32
	.loc	3 1221 5                        @ ../../../ThirdParty/mbedTLS/library/ecp_curves.c:1221:5
	ldr	r0, [r4]
	ldr	r1, [r0, #80]
	mov	r0, r7
	mov	r2, r6
	bl	add32
	.loc	3 1222 5                        @ ../../../ThirdParty/mbedTLS/library/ecp_curves.c:1222:5
	ldr	r0, [r4]
	ldr	r1, [r0, #88]
	mov	r0, r7
	mov	r2, r6
	bl	add32
	.loc	3 1223 5                        @ ../../../ThirdParty/mbedTLS/library/ecp_curves.c:1223:5
	ldr	r0, [r4]
	ldr	r1, [r0, #60]
	mov	r0, r7
	mov	r2, r6
	bl	sub32
	.loc	3 1224 5                        @ ../../../ThirdParty/mbedTLS/library/ecp_curves.c:1224:5
	ldr	r0, [r4]
	ldr	r1, [r0, #92]
	mov	r0, r7
	mov	r2, r6
	bl	sub32
	.loc	3 1225 5                        @ ../../../ThirdParty/mbedTLS/library/ecp_curves.c:1225:5
	ldr	r0, [r4]
	ldr	r1, [r0, #92]
	mov	r0, r7
	mov	r2, r6
	bl	sub32
	.loc	3 1226 5                        @ ../../../ThirdParty/mbedTLS/library/ecp_curves.c:1226:5
	ldr	r0, [r4]
	ldr	r1, [sp, #76]
.Ltmp263:
	@DEBUG_VALUE: ecp_mod_p384:cur <- $r1
	str	r1, [r0, #16]
	ldrb	r1, [r6]
.Ltmp264:
	@DEBUG_VALUE: ecp_mod_p384:cc <- undef
	@DEBUG_VALUE: ecp_mod_p384:c <- 0
	ldr	r2, [sp, #8]                    @ 4-byte Reload
	strb	r2, [r6]
.Ltmp265:
	@DEBUG_VALUE: ecp_mod_p384:i <- 5
	ldr	r0, [r0, #20]
.Ltmp266:
	@DEBUG_VALUE: ecp_mod_p384:cur <- $r0
	str	r0, [sp, #76]
	sxtb	r1, r1
	cmp	r1, #0
	bmi	.LBB5_15
.Ltmp267:
@ %bb.14:
	@DEBUG_VALUE: ecp_mod_p384:N <- [DW_OP_plus_uconst 4] [$sp+0]
	@DEBUG_VALUE: ecp_mod_p384:ret <- [$sp+0]
	@DEBUG_VALUE: ecp_mod_p384:cur <- $r0
	@DEBUG_VALUE: ecp_mod_p384:i <- 5
	@DEBUG_VALUE: ecp_mod_p384:bits <- 384
	@DEBUG_VALUE: ecp_mod_p384:c <- 0
	@DEBUG_VALUE: ecp_mod_p384:c <- [DW_OP_plus_uconst 80, DW_OP_deref] $sp
	@DEBUG_VALUE: ecp_mod_p384:cur <- [DW_OP_plus_uconst 76, DW_OP_deref] $sp
	.loc	3 0 5 is_stmt 0                 @ ../../../ThirdParty/mbedTLS/library/ecp_curves.c:0:5
	add	r0, sp, #76
	add	r2, sp, #80
.Ltmp268:
	.loc	3 1226 5                        @ ../../../ThirdParty/mbedTLS/library/ecp_curves.c:1226:5
	bl	add32
	b	.LBB5_16
.Ltmp269:
.LBB5_15:
	@DEBUG_VALUE: ecp_mod_p384:N <- [DW_OP_plus_uconst 4] [$sp+0]
	@DEBUG_VALUE: ecp_mod_p384:ret <- [$sp+0]
	@DEBUG_VALUE: ecp_mod_p384:cur <- $r0
	@DEBUG_VALUE: ecp_mod_p384:i <- 5
	@DEBUG_VALUE: ecp_mod_p384:bits <- 384
	@DEBUG_VALUE: ecp_mod_p384:c <- 0
	@DEBUG_VALUE: ecp_mod_p384:c <- [DW_OP_plus_uconst 80, DW_OP_deref] $sp
	@DEBUG_VALUE: ecp_mod_p384:cur <- [DW_OP_plus_uconst 76, DW_OP_deref] $sp
	rsbs	r1, r1, #0
	add	r0, sp, #76
	add	r2, sp, #80
	bl	sub32
.Ltmp270:
.LBB5_16:
	@DEBUG_VALUE: ecp_mod_p384:N <- [DW_OP_plus_uconst 4] [$sp+0]
	@DEBUG_VALUE: ecp_mod_p384:ret <- [$sp+0]
	@DEBUG_VALUE: ecp_mod_p384:c <- [DW_OP_plus_uconst 80, DW_OP_deref] $sp
	@DEBUG_VALUE: ecp_mod_p384:cur <- [DW_OP_plus_uconst 76, DW_OP_deref] $sp
	@DEBUG_VALUE: ecp_mod_p384:i <- 5
	@DEBUG_VALUE: ecp_mod_p384:bits <- 384
	.loc	3 1228 5 is_stmt 1              @ ../../../ThirdParty/mbedTLS/library/ecp_curves.c:1228:5
	ldr	r0, [r4]
	ldr	r1, [r0, #88]
	@DEBUG_VALUE: ecp_mod_p384:cur <- [DW_OP_plus_uconst 76, DW_OP_deref] $sp
	@DEBUG_VALUE: ecp_mod_p384:c <- [DW_OP_plus_uconst 80, DW_OP_deref] $sp
	add	r7, sp, #76
	add	r6, sp, #80
	mov	r0, r7
	mov	r2, r6
	bl	add32
	.loc	3 1229 5                        @ ../../../ThirdParty/mbedTLS/library/ecp_curves.c:1229:5
	ldr	r0, [r4]
	ldr	r1, [r0, #88]
	mov	r0, r7
	mov	r2, r6
	bl	add32
	.loc	3 1230 5                        @ ../../../ThirdParty/mbedTLS/library/ecp_curves.c:1230:5
	ldr	r0, [r4]
	ldr	r1, [r0, #68]
	mov	r0, r7
	mov	r2, r6
	bl	add32
	.loc	3 1231 5                        @ ../../../ThirdParty/mbedTLS/library/ecp_curves.c:1231:5
	ldr	r0, [r4]
	ldr	r1, [r0, #56]
	mov	r0, r7
	mov	r2, r6
	bl	add32
	.loc	3 1232 5                        @ ../../../ThirdParty/mbedTLS/library/ecp_curves.c:1232:5
	ldr	r0, [r4]
	ldr	r1, [r0, #52]
	mov	r0, r7
	mov	r2, r6
	bl	add32
	.loc	3 1233 5                        @ ../../../ThirdParty/mbedTLS/library/ecp_curves.c:1233:5
	ldr	r0, [r4]
	ldr	r1, [r0, #84]
	mov	r0, r7
	mov	r2, r6
	bl	add32
	.loc	3 1234 5                        @ ../../../ThirdParty/mbedTLS/library/ecp_curves.c:1234:5
	ldr	r0, [r4]
	ldr	r1, [r0, #92]
	mov	r0, r7
	mov	r2, r6
	bl	add32
	.loc	3 1235 5                        @ ../../../ThirdParty/mbedTLS/library/ecp_curves.c:1235:5
	ldr	r0, [r4]
	ldr	r1, [r0, #64]
	mov	r0, r7
	mov	r2, r6
	bl	sub32
	.loc	3 1236 5                        @ ../../../ThirdParty/mbedTLS/library/ecp_curves.c:1236:5
	ldr	r0, [r4]
	ldr	r1, [sp, #76]
.Ltmp271:
	@DEBUG_VALUE: ecp_mod_p384:cur <- $r1
	str	r1, [r0, #20]
	ldrb	r1, [r6]
.Ltmp272:
	@DEBUG_VALUE: ecp_mod_p384:cc <- undef
	@DEBUG_VALUE: ecp_mod_p384:c <- 0
	ldr	r2, [sp, #8]                    @ 4-byte Reload
	strb	r2, [r6]
.Ltmp273:
	@DEBUG_VALUE: ecp_mod_p384:i <- 6
	ldr	r0, [r0, #24]
.Ltmp274:
	@DEBUG_VALUE: ecp_mod_p384:cur <- $r0
	str	r0, [sp, #76]
	sxtb	r1, r1
	cmp	r1, #0
	bmi	.LBB5_18
.Ltmp275:
@ %bb.17:
	@DEBUG_VALUE: ecp_mod_p384:N <- [DW_OP_plus_uconst 4] [$sp+0]
	@DEBUG_VALUE: ecp_mod_p384:ret <- [$sp+0]
	@DEBUG_VALUE: ecp_mod_p384:cur <- $r0
	@DEBUG_VALUE: ecp_mod_p384:i <- 6
	@DEBUG_VALUE: ecp_mod_p384:bits <- 384
	@DEBUG_VALUE: ecp_mod_p384:c <- 0
	@DEBUG_VALUE: ecp_mod_p384:c <- [DW_OP_plus_uconst 80, DW_OP_deref] $sp
	@DEBUG_VALUE: ecp_mod_p384:cur <- [DW_OP_plus_uconst 76, DW_OP_deref] $sp
	.loc	3 0 5 is_stmt 0                 @ ../../../ThirdParty/mbedTLS/library/ecp_curves.c:0:5
	add	r0, sp, #76
	add	r2, sp, #80
.Ltmp276:
	.loc	3 1236 5                        @ ../../../ThirdParty/mbedTLS/library/ecp_curves.c:1236:5
	bl	add32
	b	.LBB5_19
.Ltmp277:
.LBB5_18:
	@DEBUG_VALUE: ecp_mod_p384:N <- [DW_OP_plus_uconst 4] [$sp+0]
	@DEBUG_VALUE: ecp_mod_p384:ret <- [$sp+0]
	@DEBUG_VALUE: ecp_mod_p384:cur <- $r0
	@DEBUG_VALUE: ecp_mod_p384:i <- 6
	@DEBUG_VALUE: ecp_mod_p384:bits <- 384
	@DEBUG_VALUE: ecp_mod_p384:c <- 0
	@DEBUG_VALUE: ecp_mod_p384:c <- [DW_OP_plus_uconst 80, DW_OP_deref] $sp
	@DEBUG_VALUE: ecp_mod_p384:cur <- [DW_OP_plus_uconst 76, DW_OP_deref] $sp
	rsbs	r1, r1, #0
	add	r0, sp, #76
	add	r2, sp, #80
	bl	sub32
.Ltmp278:
.LBB5_19:
	@DEBUG_VALUE: ecp_mod_p384:N <- [DW_OP_plus_uconst 4] [$sp+0]
	@DEBUG_VALUE: ecp_mod_p384:ret <- [$sp+0]
	@DEBUG_VALUE: ecp_mod_p384:c <- [DW_OP_plus_uconst 80, DW_OP_deref] $sp
	@DEBUG_VALUE: ecp_mod_p384:cur <- [DW_OP_plus_uconst 76, DW_OP_deref] $sp
	@DEBUG_VALUE: ecp_mod_p384:i <- 6
	@DEBUG_VALUE: ecp_mod_p384:bits <- 384
	.loc	3 1238 5 is_stmt 1              @ ../../../ThirdParty/mbedTLS/library/ecp_curves.c:1238:5
	ldr	r0, [r4]
	ldr	r1, [r0, #92]
	@DEBUG_VALUE: ecp_mod_p384:cur <- [DW_OP_plus_uconst 76, DW_OP_deref] $sp
	@DEBUG_VALUE: ecp_mod_p384:c <- [DW_OP_plus_uconst 80, DW_OP_deref] $sp
	add	r7, sp, #76
	add	r6, sp, #80
	mov	r0, r7
	mov	r2, r6
	bl	add32
	.loc	3 1239 5                        @ ../../../ThirdParty/mbedTLS/library/ecp_curves.c:1239:5
	ldr	r0, [r4]
	ldr	r1, [r0, #92]
	mov	r0, r7
	mov	r2, r6
	bl	add32
	.loc	3 1240 5                        @ ../../../ThirdParty/mbedTLS/library/ecp_curves.c:1240:5
	ldr	r0, [r4]
	ldr	r1, [r0, #72]
	mov	r0, r7
	mov	r2, r6
	bl	add32
	.loc	3 1241 5                        @ ../../../ThirdParty/mbedTLS/library/ecp_curves.c:1241:5
	ldr	r0, [r4]
	ldr	r1, [r0, #60]
	mov	r0, r7
	mov	r2, r6
	bl	add32
	.loc	3 1242 5                        @ ../../../ThirdParty/mbedTLS/library/ecp_curves.c:1242:5
	ldr	r0, [r4]
	ldr	r1, [r0, #56]
	mov	r0, r7
	mov	r2, r6
	bl	add32
	.loc	3 1243 5                        @ ../../../ThirdParty/mbedTLS/library/ecp_curves.c:1243:5
	ldr	r0, [r4]
	ldr	r1, [r0, #88]
	mov	r0, r7
	mov	r2, r6
	bl	add32
	.loc	3 1244 5                        @ ../../../ThirdParty/mbedTLS/library/ecp_curves.c:1244:5
	ldr	r0, [r4]
	ldr	r1, [r0, #68]
	mov	r0, r7
	mov	r2, r6
	bl	sub32
	.loc	3 1245 5                        @ ../../../ThirdParty/mbedTLS/library/ecp_curves.c:1245:5
	ldr	r0, [r4]
	ldr	r1, [sp, #76]
.Ltmp279:
	@DEBUG_VALUE: ecp_mod_p384:cur <- $r1
	str	r1, [r0, #24]
	ldrb	r1, [r6]
.Ltmp280:
	@DEBUG_VALUE: ecp_mod_p384:cc <- undef
	@DEBUG_VALUE: ecp_mod_p384:c <- 0
	ldr	r2, [sp, #8]                    @ 4-byte Reload
	strb	r2, [r6]
.Ltmp281:
	@DEBUG_VALUE: ecp_mod_p384:i <- 7
	ldr	r0, [r0, #28]
.Ltmp282:
	@DEBUG_VALUE: ecp_mod_p384:cur <- $r0
	str	r0, [sp, #76]
	sxtb	r1, r1
	cmp	r1, #0
	bmi	.LBB5_21
.Ltmp283:
@ %bb.20:
	@DEBUG_VALUE: ecp_mod_p384:N <- [DW_OP_plus_uconst 4] [$sp+0]
	@DEBUG_VALUE: ecp_mod_p384:ret <- [$sp+0]
	@DEBUG_VALUE: ecp_mod_p384:cur <- $r0
	@DEBUG_VALUE: ecp_mod_p384:i <- 7
	@DEBUG_VALUE: ecp_mod_p384:bits <- 384
	@DEBUG_VALUE: ecp_mod_p384:c <- 0
	@DEBUG_VALUE: ecp_mod_p384:c <- [DW_OP_plus_uconst 80, DW_OP_deref] $sp
	@DEBUG_VALUE: ecp_mod_p384:cur <- [DW_OP_plus_uconst 76, DW_OP_deref] $sp
	.loc	3 0 5 is_stmt 0                 @ ../../../ThirdParty/mbedTLS/library/ecp_curves.c:0:5
	add	r0, sp, #76
	add	r2, sp, #80
.Ltmp284:
	.loc	3 1245 5                        @ ../../../ThirdParty/mbedTLS/library/ecp_curves.c:1245:5
	bl	add32
	b	.LBB5_22
.Ltmp285:
.LBB5_21:
	@DEBUG_VALUE: ecp_mod_p384:N <- [DW_OP_plus_uconst 4] [$sp+0]
	@DEBUG_VALUE: ecp_mod_p384:ret <- [$sp+0]
	@DEBUG_VALUE: ecp_mod_p384:cur <- $r0
	@DEBUG_VALUE: ecp_mod_p384:i <- 7
	@DEBUG_VALUE: ecp_mod_p384:bits <- 384
	@DEBUG_VALUE: ecp_mod_p384:c <- 0
	@DEBUG_VALUE: ecp_mod_p384:c <- [DW_OP_plus_uconst 80, DW_OP_deref] $sp
	@DEBUG_VALUE: ecp_mod_p384:cur <- [DW_OP_plus_uconst 76, DW_OP_deref] $sp
	rsbs	r1, r1, #0
	add	r0, sp, #76
	add	r2, sp, #80
	bl	sub32
.Ltmp286:
.LBB5_22:
	@DEBUG_VALUE: ecp_mod_p384:N <- [DW_OP_plus_uconst 4] [$sp+0]
	@DEBUG_VALUE: ecp_mod_p384:ret <- [$sp+0]
	@DEBUG_VALUE: ecp_mod_p384:c <- [DW_OP_plus_uconst 80, DW_OP_deref] $sp
	@DEBUG_VALUE: ecp_mod_p384:cur <- [DW_OP_plus_uconst 76, DW_OP_deref] $sp
	@DEBUG_VALUE: ecp_mod_p384:i <- 7
	@DEBUG_VALUE: ecp_mod_p384:bits <- 384
	.loc	3 1247 5 is_stmt 1              @ ../../../ThirdParty/mbedTLS/library/ecp_curves.c:1247:5
	ldr	r0, [r4]
	ldr	r1, [r0, #76]
	@DEBUG_VALUE: ecp_mod_p384:cur <- [DW_OP_plus_uconst 76, DW_OP_deref] $sp
	@DEBUG_VALUE: ecp_mod_p384:c <- [DW_OP_plus_uconst 80, DW_OP_deref] $sp
	add	r7, sp, #76
	add	r6, sp, #80
	mov	r0, r7
	mov	r2, r6
	bl	add32
	.loc	3 1248 5                        @ ../../../ThirdParty/mbedTLS/library/ecp_curves.c:1248:5
	ldr	r0, [r4]
	ldr	r1, [r0, #64]
	mov	r0, r7
	mov	r2, r6
	bl	add32
	.loc	3 1249 5                        @ ../../../ThirdParty/mbedTLS/library/ecp_curves.c:1249:5
	ldr	r0, [r4]
	ldr	r1, [r0, #60]
	mov	r0, r7
	mov	r2, r6
	bl	add32
	.loc	3 1250 5                        @ ../../../ThirdParty/mbedTLS/library/ecp_curves.c:1250:5
	ldr	r0, [r4]
	ldr	r1, [r0, #92]
	mov	r0, r7
	mov	r2, r6
	bl	add32
	.loc	3 1251 5                        @ ../../../ThirdParty/mbedTLS/library/ecp_curves.c:1251:5
	ldr	r0, [r4]
	ldr	r1, [r0, #72]
	mov	r0, r7
	mov	r2, r6
	bl	sub32
	.loc	3 1252 5                        @ ../../../ThirdParty/mbedTLS/library/ecp_curves.c:1252:5
	ldr	r0, [r4]
	ldr	r1, [sp, #76]
.Ltmp287:
	@DEBUG_VALUE: ecp_mod_p384:cur <- $r1
	str	r1, [r0, #28]
	ldrb	r1, [r6]
.Ltmp288:
	@DEBUG_VALUE: ecp_mod_p384:cc <- undef
	@DEBUG_VALUE: ecp_mod_p384:c <- 0
	ldr	r2, [sp, #8]                    @ 4-byte Reload
	strb	r2, [r6]
.Ltmp289:
	@DEBUG_VALUE: ecp_mod_p384:i <- 8
	ldr	r0, [r0, #32]
.Ltmp290:
	@DEBUG_VALUE: ecp_mod_p384:cur <- $r0
	str	r0, [sp, #76]
	sxtb	r1, r1
	cmp	r1, #0
	bmi	.LBB5_24
.Ltmp291:
@ %bb.23:
	@DEBUG_VALUE: ecp_mod_p384:N <- [DW_OP_plus_uconst 4] [$sp+0]
	@DEBUG_VALUE: ecp_mod_p384:ret <- [$sp+0]
	@DEBUG_VALUE: ecp_mod_p384:cur <- $r0
	@DEBUG_VALUE: ecp_mod_p384:i <- 8
	@DEBUG_VALUE: ecp_mod_p384:bits <- 384
	@DEBUG_VALUE: ecp_mod_p384:c <- 0
	@DEBUG_VALUE: ecp_mod_p384:c <- [DW_OP_plus_uconst 80, DW_OP_deref] $sp
	@DEBUG_VALUE: ecp_mod_p384:cur <- [DW_OP_plus_uconst 76, DW_OP_deref] $sp
	.loc	3 0 5 is_stmt 0                 @ ../../../ThirdParty/mbedTLS/library/ecp_curves.c:0:5
	add	r0, sp, #76
	add	r2, sp, #80
.Ltmp292:
	.loc	3 1252 5                        @ ../../../ThirdParty/mbedTLS/library/ecp_curves.c:1252:5
	bl	add32
	b	.LBB5_25
.Ltmp293:
.LBB5_24:
	@DEBUG_VALUE: ecp_mod_p384:N <- [DW_OP_plus_uconst 4] [$sp+0]
	@DEBUG_VALUE: ecp_mod_p384:ret <- [$sp+0]
	@DEBUG_VALUE: ecp_mod_p384:cur <- $r0
	@DEBUG_VALUE: ecp_mod_p384:i <- 8
	@DEBUG_VALUE: ecp_mod_p384:bits <- 384
	@DEBUG_VALUE: ecp_mod_p384:c <- 0
	@DEBUG_VALUE: ecp_mod_p384:c <- [DW_OP_plus_uconst 80, DW_OP_deref] $sp
	@DEBUG_VALUE: ecp_mod_p384:cur <- [DW_OP_plus_uconst 76, DW_OP_deref] $sp
	rsbs	r1, r1, #0
	add	r0, sp, #76
	add	r2, sp, #80
	bl	sub32
.Ltmp294:
.LBB5_25:
	@DEBUG_VALUE: ecp_mod_p384:N <- [DW_OP_plus_uconst 4] [$sp+0]
	@DEBUG_VALUE: ecp_mod_p384:ret <- [$sp+0]
	@DEBUG_VALUE: ecp_mod_p384:c <- [DW_OP_plus_uconst 80, DW_OP_deref] $sp
	@DEBUG_VALUE: ecp_mod_p384:cur <- [DW_OP_plus_uconst 76, DW_OP_deref] $sp
	@DEBUG_VALUE: ecp_mod_p384:i <- 8
	@DEBUG_VALUE: ecp_mod_p384:bits <- 384
	.loc	3 1254 5 is_stmt 1              @ ../../../ThirdParty/mbedTLS/library/ecp_curves.c:1254:5
	ldr	r0, [r4]
	ldr	r1, [r0, #80]
	@DEBUG_VALUE: ecp_mod_p384:cur <- [DW_OP_plus_uconst 76, DW_OP_deref] $sp
	@DEBUG_VALUE: ecp_mod_p384:c <- [DW_OP_plus_uconst 80, DW_OP_deref] $sp
	add	r7, sp, #76
	add	r6, sp, #80
	mov	r0, r7
	mov	r2, r6
	bl	add32
	.loc	3 1255 5                        @ ../../../ThirdParty/mbedTLS/library/ecp_curves.c:1255:5
	ldr	r0, [r4]
	ldr	r1, [r0, #68]
	mov	r0, r7
	mov	r2, r6
	bl	add32
	.loc	3 1256 5                        @ ../../../ThirdParty/mbedTLS/library/ecp_curves.c:1256:5
	ldr	r0, [r4]
	ldr	r1, [r0, #64]
	mov	r0, r7
	mov	r2, r6
	bl	add32
	.loc	3 1257 5                        @ ../../../ThirdParty/mbedTLS/library/ecp_curves.c:1257:5
	ldr	r0, [r4]
	ldr	r1, [r0, #76]
	mov	r0, r7
	mov	r2, r6
	bl	sub32
	.loc	3 1258 5                        @ ../../../ThirdParty/mbedTLS/library/ecp_curves.c:1258:5
	ldr	r0, [r4]
	ldr	r1, [sp, #76]
.Ltmp295:
	@DEBUG_VALUE: ecp_mod_p384:cur <- $r1
	str	r1, [r0, #32]
	ldrb	r1, [r6]
.Ltmp296:
	@DEBUG_VALUE: ecp_mod_p384:cc <- undef
	@DEBUG_VALUE: ecp_mod_p384:c <- 0
	ldr	r2, [sp, #8]                    @ 4-byte Reload
	strb	r2, [r6]
.Ltmp297:
	@DEBUG_VALUE: ecp_mod_p384:i <- 9
	ldr	r0, [r0, #36]
.Ltmp298:
	@DEBUG_VALUE: ecp_mod_p384:cur <- $r0
	str	r0, [sp, #76]
	sxtb	r1, r1
	cmp	r1, #0
	bmi	.LBB5_27
.Ltmp299:
@ %bb.26:
	@DEBUG_VALUE: ecp_mod_p384:N <- [DW_OP_plus_uconst 4] [$sp+0]
	@DEBUG_VALUE: ecp_mod_p384:ret <- [$sp+0]
	@DEBUG_VALUE: ecp_mod_p384:cur <- $r0
	@DEBUG_VALUE: ecp_mod_p384:i <- 9
	@DEBUG_VALUE: ecp_mod_p384:bits <- 384
	@DEBUG_VALUE: ecp_mod_p384:c <- 0
	@DEBUG_VALUE: ecp_mod_p384:c <- [DW_OP_plus_uconst 80, DW_OP_deref] $sp
	@DEBUG_VALUE: ecp_mod_p384:cur <- [DW_OP_plus_uconst 76, DW_OP_deref] $sp
	.loc	3 0 5 is_stmt 0                 @ ../../../ThirdParty/mbedTLS/library/ecp_curves.c:0:5
	add	r0, sp, #76
	add	r2, sp, #80
.Ltmp300:
	.loc	3 1258 5                        @ ../../../ThirdParty/mbedTLS/library/ecp_curves.c:1258:5
	bl	add32
	b	.LBB5_28
.Ltmp301:
.LBB5_27:
	@DEBUG_VALUE: ecp_mod_p384:N <- [DW_OP_plus_uconst 4] [$sp+0]
	@DEBUG_VALUE: ecp_mod_p384:ret <- [$sp+0]
	@DEBUG_VALUE: ecp_mod_p384:cur <- $r0
	@DEBUG_VALUE: ecp_mod_p384:i <- 9
	@DEBUG_VALUE: ecp_mod_p384:bits <- 384
	@DEBUG_VALUE: ecp_mod_p384:c <- 0
	@DEBUG_VALUE: ecp_mod_p384:c <- [DW_OP_plus_uconst 80, DW_OP_deref] $sp
	@DEBUG_VALUE: ecp_mod_p384:cur <- [DW_OP_plus_uconst 76, DW_OP_deref] $sp
	rsbs	r1, r1, #0
	add	r0, sp, #76
	add	r2, sp, #80
	bl	sub32
.Ltmp302:
.LBB5_28:
	@DEBUG_VALUE: ecp_mod_p384:N <- [DW_OP_plus_uconst 4] [$sp+0]
	@DEBUG_VALUE: ecp_mod_p384:ret <- [$sp+0]
	@DEBUG_VALUE: ecp_mod_p384:c <- [DW_OP_plus_uconst 80, DW_OP_deref] $sp
	@DEBUG_VALUE: ecp_mod_p384:cur <- [DW_OP_plus_uconst 76, DW_OP_deref] $sp
	@DEBUG_VALUE: ecp_mod_p384:i <- 9
	@DEBUG_VALUE: ecp_mod_p384:bits <- 384
	.loc	3 1260 5 is_stmt 1              @ ../../../ThirdParty/mbedTLS/library/ecp_curves.c:1260:5
	ldr	r0, [r4]
	ldr	r1, [r0, #84]
	@DEBUG_VALUE: ecp_mod_p384:cur <- [DW_OP_plus_uconst 76, DW_OP_deref] $sp
	@DEBUG_VALUE: ecp_mod_p384:c <- [DW_OP_plus_uconst 80, DW_OP_deref] $sp
	add	r7, sp, #76
	add	r6, sp, #80
	mov	r0, r7
	mov	r2, r6
	bl	add32
	.loc	3 1261 5                        @ ../../../ThirdParty/mbedTLS/library/ecp_curves.c:1261:5
	ldr	r0, [r4]
	ldr	r1, [r0, #72]
	mov	r0, r7
	mov	r2, r6
	bl	add32
	.loc	3 1262 5                        @ ../../../ThirdParty/mbedTLS/library/ecp_curves.c:1262:5
	ldr	r0, [r4]
	ldr	r1, [r0, #68]
	mov	r0, r7
	mov	r2, r6
	bl	add32
	.loc	3 1263 5                        @ ../../../ThirdParty/mbedTLS/library/ecp_curves.c:1263:5
	ldr	r0, [r4]
	ldr	r1, [r0, #80]
	mov	r0, r7
	mov	r2, r6
	bl	sub32
	.loc	3 1264 5                        @ ../../../ThirdParty/mbedTLS/library/ecp_curves.c:1264:5
	ldr	r0, [r4]
	ldr	r1, [sp, #76]
.Ltmp303:
	@DEBUG_VALUE: ecp_mod_p384:cur <- $r1
	str	r1, [r0, #36]
	ldrb	r1, [r6]
.Ltmp304:
	@DEBUG_VALUE: ecp_mod_p384:cc <- undef
	@DEBUG_VALUE: ecp_mod_p384:c <- 0
	ldr	r2, [sp, #8]                    @ 4-byte Reload
	strb	r2, [r6]
.Ltmp305:
	@DEBUG_VALUE: ecp_mod_p384:i <- 10
	ldr	r0, [r0, #40]
.Ltmp306:
	@DEBUG_VALUE: ecp_mod_p384:cur <- $r0
	str	r0, [sp, #76]
	sxtb	r1, r1
	cmp	r1, #0
	bmi	.LBB5_30
.Ltmp307:
@ %bb.29:
	@DEBUG_VALUE: ecp_mod_p384:N <- [DW_OP_plus_uconst 4] [$sp+0]
	@DEBUG_VALUE: ecp_mod_p384:ret <- [$sp+0]
	@DEBUG_VALUE: ecp_mod_p384:cur <- $r0
	@DEBUG_VALUE: ecp_mod_p384:i <- 10
	@DEBUG_VALUE: ecp_mod_p384:bits <- 384
	@DEBUG_VALUE: ecp_mod_p384:c <- 0
	@DEBUG_VALUE: ecp_mod_p384:c <- [DW_OP_plus_uconst 80, DW_OP_deref] $sp
	@DEBUG_VALUE: ecp_mod_p384:cur <- [DW_OP_plus_uconst 76, DW_OP_deref] $sp
	.loc	3 0 5 is_stmt 0                 @ ../../../ThirdParty/mbedTLS/library/ecp_curves.c:0:5
	add	r0, sp, #76
	add	r2, sp, #80
.Ltmp308:
	.loc	3 1264 5                        @ ../../../ThirdParty/mbedTLS/library/ecp_curves.c:1264:5
	bl	add32
	b	.LBB5_31
.Ltmp309:
.LBB5_30:
	@DEBUG_VALUE: ecp_mod_p384:N <- [DW_OP_plus_uconst 4] [$sp+0]
	@DEBUG_VALUE: ecp_mod_p384:ret <- [$sp+0]
	@DEBUG_VALUE: ecp_mod_p384:cur <- $r0
	@DEBUG_VALUE: ecp_mod_p384:i <- 10
	@DEBUG_VALUE: ecp_mod_p384:bits <- 384
	@DEBUG_VALUE: ecp_mod_p384:c <- 0
	@DEBUG_VALUE: ecp_mod_p384:c <- [DW_OP_plus_uconst 80, DW_OP_deref] $sp
	@DEBUG_VALUE: ecp_mod_p384:cur <- [DW_OP_plus_uconst 76, DW_OP_deref] $sp
	rsbs	r1, r1, #0
	add	r0, sp, #76
	add	r2, sp, #80
	bl	sub32
.Ltmp310:
.LBB5_31:
	@DEBUG_VALUE: ecp_mod_p384:N <- [DW_OP_plus_uconst 4] [$sp+0]
	@DEBUG_VALUE: ecp_mod_p384:ret <- [$sp+0]
	@DEBUG_VALUE: ecp_mod_p384:c <- [DW_OP_plus_uconst 80, DW_OP_deref] $sp
	@DEBUG_VALUE: ecp_mod_p384:cur <- [DW_OP_plus_uconst 76, DW_OP_deref] $sp
	@DEBUG_VALUE: ecp_mod_p384:i <- 10
	@DEBUG_VALUE: ecp_mod_p384:bits <- 384
	.loc	3 1266 5 is_stmt 1              @ ../../../ThirdParty/mbedTLS/library/ecp_curves.c:1266:5
	ldr	r0, [r4]
	ldr	r1, [r0, #88]
	@DEBUG_VALUE: ecp_mod_p384:cur <- [DW_OP_plus_uconst 76, DW_OP_deref] $sp
	@DEBUG_VALUE: ecp_mod_p384:c <- [DW_OP_plus_uconst 80, DW_OP_deref] $sp
	add	r7, sp, #76
	add	r6, sp, #80
	mov	r0, r7
	mov	r2, r6
	bl	add32
	.loc	3 1267 5                        @ ../../../ThirdParty/mbedTLS/library/ecp_curves.c:1267:5
	ldr	r0, [r4]
	ldr	r1, [r0, #76]
	mov	r0, r7
	mov	r2, r6
	bl	add32
	.loc	3 1268 5                        @ ../../../ThirdParty/mbedTLS/library/ecp_curves.c:1268:5
	ldr	r0, [r4]
	ldr	r1, [r0, #72]
	mov	r0, r7
	mov	r2, r6
	bl	add32
	.loc	3 1269 5                        @ ../../../ThirdParty/mbedTLS/library/ecp_curves.c:1269:5
	ldr	r0, [r4]
	ldr	r1, [r0, #84]
	mov	r0, r7
	mov	r2, r6
	bl	sub32
	.loc	3 1270 5                        @ ../../../ThirdParty/mbedTLS/library/ecp_curves.c:1270:5
	ldr	r0, [r4]
	ldr	r1, [sp, #76]
.Ltmp311:
	@DEBUG_VALUE: ecp_mod_p384:cur <- $r1
	str	r1, [r0, #40]
	ldrb	r1, [r6]
.Ltmp312:
	@DEBUG_VALUE: ecp_mod_p384:cc <- undef
	@DEBUG_VALUE: ecp_mod_p384:c <- 0
	ldr	r2, [sp, #8]                    @ 4-byte Reload
	strb	r2, [r6]
.Ltmp313:
	@DEBUG_VALUE: ecp_mod_p384:i <- 11
	ldr	r0, [r0, #44]
.Ltmp314:
	@DEBUG_VALUE: ecp_mod_p384:cur <- $r0
	str	r0, [sp, #76]
	sxtb	r1, r1
	cmp	r1, #0
	bmi	.LBB5_33
.Ltmp315:
@ %bb.32:
	@DEBUG_VALUE: ecp_mod_p384:N <- [DW_OP_plus_uconst 4] [$sp+0]
	@DEBUG_VALUE: ecp_mod_p384:ret <- [$sp+0]
	@DEBUG_VALUE: ecp_mod_p384:cur <- $r0
	@DEBUG_VALUE: ecp_mod_p384:i <- 11
	@DEBUG_VALUE: ecp_mod_p384:bits <- 384
	@DEBUG_VALUE: ecp_mod_p384:c <- 0
	@DEBUG_VALUE: ecp_mod_p384:c <- [DW_OP_plus_uconst 80, DW_OP_deref] $sp
	@DEBUG_VALUE: ecp_mod_p384:cur <- [DW_OP_plus_uconst 76, DW_OP_deref] $sp
	.loc	3 0 5 is_stmt 0                 @ ../../../ThirdParty/mbedTLS/library/ecp_curves.c:0:5
	add	r0, sp, #76
	add	r2, sp, #80
.Ltmp316:
	.loc	3 1270 5                        @ ../../../ThirdParty/mbedTLS/library/ecp_curves.c:1270:5
	bl	add32
	b	.LBB5_34
.Ltmp317:
.LBB5_33:
	@DEBUG_VALUE: ecp_mod_p384:N <- [DW_OP_plus_uconst 4] [$sp+0]
	@DEBUG_VALUE: ecp_mod_p384:ret <- [$sp+0]
	@DEBUG_VALUE: ecp_mod_p384:cur <- $r0
	@DEBUG_VALUE: ecp_mod_p384:i <- 11
	@DEBUG_VALUE: ecp_mod_p384:bits <- 384
	@DEBUG_VALUE: ecp_mod_p384:c <- 0
	@DEBUG_VALUE: ecp_mod_p384:c <- [DW_OP_plus_uconst 80, DW_OP_deref] $sp
	@DEBUG_VALUE: ecp_mod_p384:cur <- [DW_OP_plus_uconst 76, DW_OP_deref] $sp
	rsbs	r1, r1, #0
	add	r0, sp, #76
	add	r2, sp, #80
	bl	sub32
.Ltmp318:
.LBB5_34:
	@DEBUG_VALUE: ecp_mod_p384:N <- [DW_OP_plus_uconst 4] [$sp+0]
	@DEBUG_VALUE: ecp_mod_p384:ret <- [$sp+0]
	@DEBUG_VALUE: ecp_mod_p384:c <- [DW_OP_plus_uconst 80, DW_OP_deref] $sp
	@DEBUG_VALUE: ecp_mod_p384:cur <- [DW_OP_plus_uconst 76, DW_OP_deref] $sp
	@DEBUG_VALUE: ecp_mod_p384:i <- 11
	@DEBUG_VALUE: ecp_mod_p384:bits <- 384
	.loc	3 0 5                           @ ../../../ThirdParty/mbedTLS/library/ecp_curves.c:0:5
	ldr	r4, [sp, #4]                    @ 4-byte Reload
.Ltmp319:
	@DEBUG_VALUE: ecp_mod_p384:N <- $r4
	.loc	3 1272 5 is_stmt 1              @ ../../../ThirdParty/mbedTLS/library/ecp_curves.c:1272:5
	ldr	r0, [r4, #8]
	ldr	r1, [r0, #92]
	@DEBUG_VALUE: ecp_mod_p384:cur <- [DW_OP_plus_uconst 76, DW_OP_deref] $sp
	@DEBUG_VALUE: ecp_mod_p384:c <- [DW_OP_plus_uconst 80, DW_OP_deref] $sp
	add	r7, sp, #76
	add	r6, sp, #80
	mov	r0, r7
	mov	r2, r6
	bl	add32
	.loc	3 1273 5                        @ ../../../ThirdParty/mbedTLS/library/ecp_curves.c:1273:5
	ldr	r0, [r4, #8]
	ldr	r1, [r0, #80]
	mov	r0, r7
	mov	r2, r6
	bl	add32
	.loc	3 1274 5                        @ ../../../ThirdParty/mbedTLS/library/ecp_curves.c:1274:5
	ldr	r0, [r4, #8]
	ldr	r1, [r0, #76]
	mov	r0, r7
	mov	r2, r6
	bl	add32
	.loc	3 1275 5                        @ ../../../ThirdParty/mbedTLS/library/ecp_curves.c:1275:5
	ldr	r0, [r4, #8]
	ldr	r1, [r0, #88]
	mov	r0, r7
	mov	r2, r6
	bl	sub32
	.loc	3 1276 5                        @ ../../../ThirdParty/mbedTLS/library/ecp_curves.c:1276:5
	ldr	r7, [r4, #8]
	ldr	r2, [sp, #76]
.Ltmp320:
	@DEBUG_VALUE: ecp_mod_p384:cur <- $r2
	@DEBUG_VALUE: ecp_mod_p384:i <- 12
	ldrb	r1, [r6]
	sxtb	r1, r1
.Ltmp321:
	@DEBUG_VALUE: ecp_mod_p384:c <- undef
	asrs	r3, r1, #31
	mov	r4, r1
.Ltmp322:
	bics	r4, r3
.Ltmp323:
	@DEBUG_VALUE: ecp_mod_p384:cur <- 0
	str	r2, [r7, #44]
	str	r4, [r7, #48]
	ldr	r0, [sp, #4]                    @ 4-byte Reload
	ldr	r2, [sp, #8]                    @ 4-byte Reload
	str	r2, [sp, #76]
.Ltmp324:
	@DEBUG_VALUE: ecp_mod_p384:i <- 13
	ldr	r2, [r0, #4]
	cmp	r2, #14
	blo	.LBB5_37
.Ltmp325:
@ %bb.35:
	@DEBUG_VALUE: ecp_mod_p384:ret <- [$sp+0]
	@DEBUG_VALUE: ecp_mod_p384:i <- 13
	@DEBUG_VALUE: ecp_mod_p384:cur <- 0
	@DEBUG_VALUE: ecp_mod_p384:bits <- 384
	adds	r7, #52
.Ltmp326:
.LBB5_36:                               @ =>This Inner Loop Header: Depth=1
	@DEBUG_VALUE: ecp_mod_p384:ret <- [$sp+0]
	@DEBUG_VALUE: ecp_mod_p384:bits <- 384
	.loc	3 1276 5 is_stmt 0              @ ../../../ThirdParty/mbedTLS/library/ecp_curves.c:1276:5
	ldr	r2, [sp, #76]
.Ltmp327:
	@DEBUG_VALUE: ecp_mod_p384:cur <- $r2
	stm	r7!, {r2}
.Ltmp328:
	@DEBUG_VALUE: ecp_mod_p384:i <- $r5
	.loc	3 1276 5                        @ ../../../ThirdParty/mbedTLS/library/ecp_curves.c:1276:5
	adds	r5, r5, #1
.Ltmp329:
	@DEBUG_VALUE: ecp_mod_p384:i <- $r5
	ldr	r2, [r0, #4]
.Ltmp330:
	cmp	r5, r2
	blo	.LBB5_36
.Ltmp331:
.LBB5_37:
	@DEBUG_VALUE: ecp_mod_p384:ret <- [$sp+0]
	@DEBUG_VALUE: ecp_mod_p384:bits <- 384
	@DEBUG_VALUE: ecp_mod_p384:c <- $r1
	cmp	r1, #0
	ldr	r6, [sp]                        @ 4-byte Reload
.Ltmp332:
	@DEBUG_VALUE: ecp_mod_p384:ret <- $r6
	bpl	.LBB5_39
.Ltmp333:
@ %bb.38:
	@DEBUG_VALUE: ecp_mod_p384:ret <- $r6
	@DEBUG_VALUE: ecp_mod_p384:c <- $r1
	@DEBUG_VALUE: ecp_mod_p384:bits <- 384
	.loc	3 0 5                           @ ../../../ThirdParty/mbedTLS/library/ecp_curves.c:0:5
	add	r2, sp, #64
.Ltmp334:
	.loc	3 1276 5                        @ ../../../ThirdParty/mbedTLS/library/ecp_curves.c:1276:5
	bl	fix_negative
.Ltmp335:
.LBB5_39:
	@DEBUG_VALUE: ecp_mod_p384:ret <- $r6
	@DEBUG_VALUE: ecp_mod_p384:bits <- 384
	@DEBUG_LABEL: ecp_mod_p384:cleanup
	.loc	3 1279 5 is_stmt 1              @ ../../../ThirdParty/mbedTLS/library/ecp_curves.c:1279:5
	mov	r0, r6
	add	sp, #84
	pop	{r4, r5, r6, r7, pc}
.Ltmp336:
.Lfunc_end5:
	.size	ecp_mod_p384, .Lfunc_end5-ecp_mod_p384
	.cfi_endproc
	.cantunwind
	.fnend
                                        @ -- End function
	.section	.text.ecp_mod_p521,"ax",%progbits
	.p2align	2                               @ -- Begin function ecp_mod_p521
	.type	ecp_mod_p521,%function
	.code	16                              @ @ecp_mod_p521
	.thumb_func
ecp_mod_p521:
.Lfunc_begin6:
	.loc	3 1312 0                        @ ../../../ThirdParty/mbedTLS/library/ecp_curves.c:1312:0
	.fnstart
	.cfi_startproc
@ %bb.0:
	@DEBUG_VALUE: ecp_mod_p521:N <- $r0
	@DEBUG_VALUE: ecp_mod_p521:N <- $r0
	.save	{r4, lr}
	push	{r4, lr}
	.cfi_def_cfa_offset 8
	.cfi_offset lr, -4
	.cfi_offset r4, -8
	.pad	#88
	sub	sp, #88
	.cfi_def_cfa_offset 96
.Ltmp337:
	.loc	3 1321 12 prologue_end          @ ../../../ThirdParty/mbedTLS/library/ecp_curves.c:1321:12
	ldr	r1, [r0, #4]
.Ltmp338:
	.loc	3 1321 9 is_stmt 0              @ ../../../ThirdParty/mbedTLS/library/ecp_curves.c:1321:9
	cmp	r1, #17
	bhs	.LBB6_2
.Ltmp339:
@ %bb.1:
	@DEBUG_VALUE: ecp_mod_p521:N <- $r0
	.loc	3 0 9                           @ ../../../ThirdParty/mbedTLS/library/ecp_curves.c:0:9
	movs	r0, #0
.Ltmp340:
	@DEBUG_VALUE: ecp_mod_p521:N <- [DW_OP_LLVM_entry_value 1] $r0
	.loc	3 1343 1 is_stmt 1              @ ../../../ThirdParty/mbedTLS/library/ecp_curves.c:1343:1
	add	sp, #88
	pop	{r4, pc}
.Ltmp341:
.LBB6_2:
	@DEBUG_VALUE: ecp_mod_p521:N <- $r0
	.loc	3 0 1 is_stmt 0                 @ ../../../ThirdParty/mbedTLS/library/ecp_curves.c:0:1
	mov	r4, r0
.Ltmp342:
	@DEBUG_VALUE: ecp_mod_p521:N <- $r4
	add	r0, sp, #4
	.loc	3 1329 9 is_stmt 1              @ ../../../ThirdParty/mbedTLS/library/ecp_curves.c:1329:9
	str	r0, [sp, #84]
	movs	r2, #1
	.loc	3 1325 9                        @ ../../../ThirdParty/mbedTLS/library/ecp_curves.c:1325:9
	str	r2, [sp, #76]
	.loc	3 1326 16                       @ ../../../ThirdParty/mbedTLS/library/ecp_curves.c:1326:16
	subs	r1, #16
	.loc	3 1327 9                        @ ../../../ThirdParty/mbedTLS/library/ecp_curves.c:1327:9
	cmp	r1, #18
	blo	.LBB6_4
.Ltmp343:
@ %bb.3:
	@DEBUG_VALUE: ecp_mod_p521:N <- $r4
	.loc	3 0 9 is_stmt 0                 @ ../../../ThirdParty/mbedTLS/library/ecp_curves.c:0:9
	movs	r1, #18
.Ltmp344:
.LBB6_4:
	@DEBUG_VALUE: ecp_mod_p521:N <- $r4
	str	r1, [sp, #80]
	.loc	3 1330 44 is_stmt 1             @ ../../../ThirdParty/mbedTLS/library/ecp_curves.c:1330:44
	lsls	r2, r1, #2
	.loc	3 1330 20 is_stmt 0             @ ../../../ThirdParty/mbedTLS/library/ecp_curves.c:1330:20
	ldr	r1, [r4, #8]
	.loc	3 1330 35                       @ ../../../ThirdParty/mbedTLS/library/ecp_curves.c:1330:35
	adds	r1, #64
	.loc	3 1330 5                        @ ../../../ThirdParty/mbedTLS/library/ecp_curves.c:1330:5
	bl	__aeabi_memcpy4
	add	r0, sp, #76
	movs	r1, #9
.Ltmp345:
	.loc	3 1331 5 is_stmt 1              @ ../../../ThirdParty/mbedTLS/library/ecp_curves.c:1331:5
	bl	mbedtls_mpi_shift_r
.Ltmp346:
	@DEBUG_VALUE: ecp_mod_p521:ret <- $r0
	.loc	3 1331 5 is_stmt 0              @ ../../../ThirdParty/mbedTLS/library/ecp_curves.c:1331:5
	cbz	r0, .LBB6_6
.Ltmp347:
@ %bb.5:
	@DEBUG_VALUE: ecp_mod_p521:N <- $r4
	@DEBUG_VALUE: ecp_mod_p521:ret <- $r0
	.loc	3 1343 1 is_stmt 1              @ ../../../ThirdParty/mbedTLS/library/ecp_curves.c:1343:1
	add	sp, #88
	pop	{r4, pc}
.Ltmp348:
.LBB6_6:
	@DEBUG_VALUE: ecp_mod_p521:N <- $r4
	@DEBUG_VALUE: ecp_mod_p521:ret <- $r0
	.loc	3 1334 8                        @ ../../../ThirdParty/mbedTLS/library/ecp_curves.c:1334:8
	ldr	r0, [r4, #8]
.Ltmp349:
	.loc	3 1334 26 is_stmt 0             @ ../../../ThirdParty/mbedTLS/library/ecp_curves.c:1334:26
	ldr	r1, [r0, #64]
	ldr	r2, __arm_cp.6_0
	ands	r2, r1
	str	r2, [r0, #64]
.Ltmp350:
	@DEBUG_VALUE: ecp_mod_p521:i <- 17
	.loc	3 1335 33 is_stmt 1             @ ../../../ThirdParty/mbedTLS/library/ecp_curves.c:1335:33
	ldr	r1, [r4, #4]
.Ltmp351:
	.loc	3 1335 5 is_stmt 0              @ ../../../ThirdParty/mbedTLS/library/ecp_curves.c:1335:5
	cmp	r1, #18
	blo	.LBB6_9
.Ltmp352:
@ %bb.7:
	@DEBUG_VALUE: ecp_mod_p521:N <- $r4
	@DEBUG_VALUE: ecp_mod_p521:i <- 17
	adds	r0, #68
	movs	r1, #17
	movs	r2, #0
.Ltmp353:
.LBB6_8:                                @ =>This Inner Loop Header: Depth=1
	@DEBUG_VALUE: ecp_mod_p521:N <- $r4
	@DEBUG_VALUE: ecp_mod_p521:i <- $r1
	.loc	3 1336 17 is_stmt 1             @ ../../../ThirdParty/mbedTLS/library/ecp_curves.c:1336:17
	stm	r0!, {r2}
	.loc	3 1335 37                       @ ../../../ThirdParty/mbedTLS/library/ecp_curves.c:1335:37
	adds	r1, r1, #1
.Ltmp354:
	@DEBUG_VALUE: ecp_mod_p521:i <- $r1
	.loc	3 1335 33 is_stmt 0             @ ../../../ThirdParty/mbedTLS/library/ecp_curves.c:1335:33
	ldr	r3, [r4, #4]
.Ltmp355:
	.loc	3 1335 5                        @ ../../../ThirdParty/mbedTLS/library/ecp_curves.c:1335:5
	cmp	r1, r3
	blo	.LBB6_8
.Ltmp356:
.LBB6_9:
	@DEBUG_VALUE: ecp_mod_p521:N <- $r4
	.loc	3 0 5                           @ ../../../ThirdParty/mbedTLS/library/ecp_curves.c:0:5
	add	r2, sp, #76
.Ltmp357:
	.loc	3 1339 5 is_stmt 1              @ ../../../ThirdParty/mbedTLS/library/ecp_curves.c:1339:5
	mov	r0, r4
	mov	r1, r4
	bl	mbedtls_mpi_add_abs
.Ltmp358:
	@DEBUG_VALUE: ecp_mod_p521:ret <- $r0
	.loc	3 1343 1                        @ ../../../ThirdParty/mbedTLS/library/ecp_curves.c:1343:1
	add	sp, #88
	pop	{r4, pc}
.Ltmp359:
	.p2align	2
@ %bb.10:
	.loc	3 0 1 is_stmt 0                 @ ../../../ThirdParty/mbedTLS/library/ecp_curves.c:0:1
__arm_cp.6_0:
	.long	511                             @ 0x1ff
.Lcpi_end72:
	.size	__arm_cp.6_0, .Lcpi_end72-__arm_cp.6_0
.Lfunc_end6:
	.size	ecp_mod_p521, .Lfunc_end6-ecp_mod_p521
	.cfi_endproc
	.cantunwind
	.fnend
                                        @ -- End function
	.section	.text.ecp_mod_p192k1,"ax",%progbits
	.p2align	2                               @ -- Begin function ecp_mod_p192k1
	.type	ecp_mod_p192k1,%function
	.code	16                              @ @ecp_mod_p192k1
	.thumb_func
ecp_mod_p192k1:
.Lfunc_begin7:
	.loc	3 1553 0 is_stmt 1              @ ../../../ThirdParty/mbedTLS/library/ecp_curves.c:1553:0
	.fnstart
	.cfi_startproc
@ %bb.0:
	@DEBUG_VALUE: ecp_mod_p192k1:N <- $r0
	@DEBUG_VALUE: ecp_mod_p192k1:N <- $r0
	.save	{r7, lr}
	push	{r7, lr}
	.cfi_def_cfa_offset 8
	.cfi_offset lr, -4
	.cfi_offset r7, -8
.Ltmp360:
	.loc	3 1558 13 prologue_end          @ ../../../ThirdParty/mbedTLS/library/ecp_curves.c:1558:13
	ldr	r1, __arm_cp.7_0
	movs	r2, #6
	@DEBUG_VALUE: ecp_mod_p192k1:N <- $r0
	bl	ecp_mod_koblitz
.Ltmp361:
	@DEBUG_VALUE: ecp_mod_p192k1:N <- [DW_OP_LLVM_entry_value 1] $r0
	.loc	3 1558 5 is_stmt 0              @ ../../../ThirdParty/mbedTLS/library/ecp_curves.c:1558:5
	pop	{r7, pc}
.Ltmp362:
	.p2align	2
@ %bb.1:
	.loc	3 0 5                           @ ../../../ThirdParty/mbedTLS/library/ecp_curves.c:0:5
__arm_cp.7_0:
	.long	ecp_mod_p192k1.Rp
.Lcpi_end73:
	.size	__arm_cp.7_0, .Lcpi_end73-__arm_cp.7_0
.Lfunc_end7:
	.size	ecp_mod_p192k1, .Lfunc_end7-ecp_mod_p192k1
	.cfi_endproc
	.cantunwind
	.fnend
                                        @ -- End function
	.section	.text.ecp_mod_p224k1,"ax",%progbits
	.p2align	2                               @ -- Begin function ecp_mod_p224k1
	.type	ecp_mod_p224k1,%function
	.code	16                              @ @ecp_mod_p224k1
	.thumb_func
ecp_mod_p224k1:
.Lfunc_begin8:
	.loc	3 1568 0 is_stmt 1              @ ../../../ThirdParty/mbedTLS/library/ecp_curves.c:1568:0
	.fnstart
	.cfi_startproc
@ %bb.0:
	@DEBUG_VALUE: ecp_mod_p224k1:N <- $r0
	@DEBUG_VALUE: ecp_mod_p224k1:N <- $r0
	.save	{r7, lr}
	push	{r7, lr}
	.cfi_def_cfa_offset 8
	.cfi_offset lr, -4
	.cfi_offset r7, -8
.Ltmp363:
	.loc	3 1576 13 prologue_end          @ ../../../ThirdParty/mbedTLS/library/ecp_curves.c:1576:13
	ldr	r1, __arm_cp.8_0
	movs	r2, #7
	@DEBUG_VALUE: ecp_mod_p224k1:N <- $r0
	bl	ecp_mod_koblitz
.Ltmp364:
	@DEBUG_VALUE: ecp_mod_p224k1:N <- [DW_OP_LLVM_entry_value 1] $r0
	.loc	3 1576 5 is_stmt 0              @ ../../../ThirdParty/mbedTLS/library/ecp_curves.c:1576:5
	pop	{r7, pc}
.Ltmp365:
	.p2align	2
@ %bb.1:
	.loc	3 0 5                           @ ../../../ThirdParty/mbedTLS/library/ecp_curves.c:0:5
__arm_cp.8_0:
	.long	ecp_mod_p224k1.Rp
.Lcpi_end74:
	.size	__arm_cp.8_0, .Lcpi_end74-__arm_cp.8_0
.Lfunc_end8:
	.size	ecp_mod_p224k1, .Lfunc_end8-ecp_mod_p224k1
	.cfi_endproc
	.cantunwind
	.fnend
                                        @ -- End function
	.section	.text.ecp_mod_p256k1,"ax",%progbits
	.p2align	2                               @ -- Begin function ecp_mod_p256k1
	.type	ecp_mod_p256k1,%function
	.code	16                              @ @ecp_mod_p256k1
	.thumb_func
ecp_mod_p256k1:
.Lfunc_begin9:
	.loc	3 1588 0 is_stmt 1              @ ../../../ThirdParty/mbedTLS/library/ecp_curves.c:1588:0
	.fnstart
	.cfi_startproc
@ %bb.0:
	@DEBUG_VALUE: ecp_mod_p256k1:N <- $r0
	@DEBUG_VALUE: ecp_mod_p256k1:N <- $r0
	.save	{r7, lr}
	push	{r7, lr}
	.cfi_def_cfa_offset 8
	.cfi_offset lr, -4
	.cfi_offset r7, -8
.Ltmp366:
	.loc	3 1592 13 prologue_end          @ ../../../ThirdParty/mbedTLS/library/ecp_curves.c:1592:13
	ldr	r1, __arm_cp.9_0
	movs	r2, #8
	@DEBUG_VALUE: ecp_mod_p256k1:N <- $r0
	bl	ecp_mod_koblitz
.Ltmp367:
	@DEBUG_VALUE: ecp_mod_p256k1:N <- [DW_OP_LLVM_entry_value 1] $r0
	.loc	3 1592 5 is_stmt 0              @ ../../../ThirdParty/mbedTLS/library/ecp_curves.c:1592:5
	pop	{r7, pc}
.Ltmp368:
	.p2align	2
@ %bb.1:
	.loc	3 0 5                           @ ../../../ThirdParty/mbedTLS/library/ecp_curves.c:0:5
__arm_cp.9_0:
	.long	ecp_mod_p256k1.Rp
.Lcpi_end75:
	.size	__arm_cp.9_0, .Lcpi_end75-__arm_cp.9_0
.Lfunc_end9:
	.size	ecp_mod_p256k1, .Lfunc_end9-ecp_mod_p256k1
	.cfi_endproc
	.cantunwind
	.fnend
                                        @ -- End function
	.section	.text.ecp_mod_p255,"ax",%progbits
	.p2align	2                               @ -- Begin function ecp_mod_p255
	.type	ecp_mod_p255,%function
	.code	16                              @ @ecp_mod_p255
	.thumb_func
ecp_mod_p255:
.Lfunc_begin10:
	.loc	3 1361 0 is_stmt 1              @ ../../../ThirdParty/mbedTLS/library/ecp_curves.c:1361:0
	.fnstart
	.cfi_startproc
@ %bb.0:
	@DEBUG_VALUE: ecp_mod_p255:N <- $r0
	.save	{r4, r5, r6, lr}
	push	{r4, r5, r6, lr}
	.cfi_def_cfa_offset 16
	.cfi_offset lr, -4
	.cfi_offset r6, -8
	.cfi_offset r5, -12
	.cfi_offset r4, -16
	.pad	#56
	sub	sp, #56
	.cfi_def_cfa_offset 72
	mov	r4, r0
.Ltmp369:
	@DEBUG_VALUE: ecp_mod_p255:N <- $r4
	.loc	3 1367 12 prologue_end          @ ../../../ThirdParty/mbedTLS/library/ecp_curves.c:1367:12
	ldr	r0, [r0, #4]
.Ltmp370:
	.loc	3 1367 9 is_stmt 0              @ ../../../ThirdParty/mbedTLS/library/ecp_curves.c:1367:9
	cmp	r0, #8
	bhs	.LBB10_2
.Ltmp371:
@ %bb.1:
	@DEBUG_VALUE: ecp_mod_p255:N <- $r4
	.loc	3 0 9                           @ ../../../ThirdParty/mbedTLS/library/ecp_curves.c:0:9
	movs	r0, #0
	.loc	3 1392 1 is_stmt 1              @ ../../../ThirdParty/mbedTLS/library/ecp_curves.c:1392:1
	add	sp, #56
	pop	{r4, r5, r6, pc}
.Ltmp372:
.LBB10_2:
	@DEBUG_VALUE: ecp_mod_p255:N <- $r4
	.loc	3 0 1 is_stmt 0                 @ ../../../ThirdParty/mbedTLS/library/ecp_curves.c:0:1
	movs	r1, #1
	.loc	3 1371 9 is_stmt 1              @ ../../../ThirdParty/mbedTLS/library/ecp_curves.c:1371:9
	str	r1, [sp, #44]
	.loc	3 1372 16                       @ ../../../ThirdParty/mbedTLS/library/ecp_curves.c:1372:16
	subs	r6, r0, #7
	.loc	3 1372 9 is_stmt 0              @ ../../../ThirdParty/mbedTLS/library/ecp_curves.c:1372:9
	str	r6, [sp, #48]
	.loc	3 1373 9 is_stmt 1              @ ../../../ThirdParty/mbedTLS/library/ecp_curves.c:1373:9
	cmp	r6, #9
	bls	.LBB10_4
.Ltmp373:
@ %bb.3:
	@DEBUG_VALUE: ecp_mod_p255:N <- $r4
	.loc	3 0 9 is_stmt 0                 @ ../../../ThirdParty/mbedTLS/library/ecp_curves.c:0:9
	ldr	r0, __arm_cp.10_0
	.loc	3 1392 1 is_stmt 1              @ ../../../ThirdParty/mbedTLS/library/ecp_curves.c:1392:1
	add	sp, #56
	pop	{r4, r5, r6, pc}
.Ltmp374:
.LBB10_4:
	@DEBUG_VALUE: ecp_mod_p255:N <- $r4
	.loc	3 0 1 is_stmt 0                 @ ../../../ThirdParty/mbedTLS/library/ecp_curves.c:0:1
	add	r5, sp, #4
	.loc	3 1375 9 is_stmt 1              @ ../../../ThirdParty/mbedTLS/library/ecp_curves.c:1375:9
	str	r5, [sp, #52]
	movs	r1, #40
	.loc	3 1376 5                        @ ../../../ThirdParty/mbedTLS/library/ecp_curves.c:1376:5
	mov	r0, r5
	bl	__aeabi_memclr4
	.loc	3 1377 20                       @ ../../../ThirdParty/mbedTLS/library/ecp_curves.c:1377:20
	ldr	r1, [r4, #8]
	.loc	3 1377 44 is_stmt 0             @ ../../../ThirdParty/mbedTLS/library/ecp_curves.c:1377:44
	lsls	r2, r6, #2
	.loc	3 1377 35                       @ ../../../ThirdParty/mbedTLS/library/ecp_curves.c:1377:35
	adds	r1, #28
	.loc	3 1377 5                        @ ../../../ThirdParty/mbedTLS/library/ecp_curves.c:1377:5
	mov	r0, r5
	bl	__aeabi_memcpy4
	add	r0, sp, #44
	movs	r1, #31
.Ltmp375:
	.loc	3 1378 5 is_stmt 1              @ ../../../ThirdParty/mbedTLS/library/ecp_curves.c:1378:5
	bl	mbedtls_mpi_shift_r
.Ltmp376:
	@DEBUG_VALUE: ecp_mod_p255:ret <- $r0
	.loc	3 1378 5 is_stmt 0              @ ../../../ThirdParty/mbedTLS/library/ecp_curves.c:1378:5
	cbz	r0, .LBB10_6
.Ltmp377:
.LBB10_5:
	@DEBUG_VALUE: ecp_mod_p255:N <- $r4
	@DEBUG_VALUE: ecp_mod_p255:ret <- $r0
	.loc	3 1392 1 is_stmt 1              @ ../../../ThirdParty/mbedTLS/library/ecp_curves.c:1392:1
	add	sp, #56
	pop	{r4, r5, r6, pc}
.Ltmp378:
.LBB10_6:
	@DEBUG_VALUE: ecp_mod_p255:N <- $r4
	@DEBUG_VALUE: ecp_mod_p255:ret <- $r0
	.loc	3 1379 8                        @ ../../../ThirdParty/mbedTLS/library/ecp_curves.c:1379:8
	ldr	r0, [sp, #48]
.Ltmp379:
	adds	r0, r0, #1
	str	r0, [sp, #48]
	movs	r1, #255
	movs	r5, #0
.Ltmp380:
	.loc	3 1382 5                        @ ../../../ThirdParty/mbedTLS/library/ecp_curves.c:1382:5
	mov	r0, r4
	mov	r2, r5
	bl	mbedtls_mpi_set_bit
.Ltmp381:
	@DEBUG_VALUE: ecp_mod_p255:ret <- $r0
	.loc	3 1382 5 is_stmt 0              @ ../../../ThirdParty/mbedTLS/library/ecp_curves.c:1382:5
	cmp	r0, #0
	bne	.LBB10_5
.Ltmp382:
@ %bb.7:
	@DEBUG_VALUE: ecp_mod_p255:N <- $r4
	@DEBUG_VALUE: ecp_mod_p255:ret <- $r0
	@DEBUG_VALUE: ecp_mod_p255:i <- 8
	.loc	3 1383 33 is_stmt 1             @ ../../../ThirdParty/mbedTLS/library/ecp_curves.c:1383:33
	ldr	r0, [r4, #4]
.Ltmp383:
	.loc	3 1383 5 is_stmt 0              @ ../../../ThirdParty/mbedTLS/library/ecp_curves.c:1383:5
	cmp	r0, #9
	blo	.LBB10_10
.Ltmp384:
@ %bb.8:
	@DEBUG_VALUE: ecp_mod_p255:N <- $r4
	@DEBUG_VALUE: ecp_mod_p255:i <- 8
	.loc	3 0 0                           @ ../../../ThirdParty/mbedTLS/library/ecp_curves.c:0:0
	ldr	r0, [r4, #8]
.Ltmp385:
	.loc	3 1383 5                        @ ../../../ThirdParty/mbedTLS/library/ecp_curves.c:1383:5
	adds	r0, #32
	movs	r1, #8
.Ltmp386:
.LBB10_9:                               @ =>This Inner Loop Header: Depth=1
	@DEBUG_VALUE: ecp_mod_p255:N <- $r4
	@DEBUG_VALUE: ecp_mod_p255:i <- $r1
	.loc	3 1384 17 is_stmt 1             @ ../../../ThirdParty/mbedTLS/library/ecp_curves.c:1384:17
	stm	r0!, {r5}
	.loc	3 1383 37                       @ ../../../ThirdParty/mbedTLS/library/ecp_curves.c:1383:37
	adds	r1, r1, #1
.Ltmp387:
	@DEBUG_VALUE: ecp_mod_p255:i <- $r1
	.loc	3 1383 33 is_stmt 0             @ ../../../ThirdParty/mbedTLS/library/ecp_curves.c:1383:33
	ldr	r2, [r4, #4]
.Ltmp388:
	.loc	3 1383 5                        @ ../../../ThirdParty/mbedTLS/library/ecp_curves.c:1383:5
	cmp	r1, r2
	blo	.LBB10_9
.Ltmp389:
.LBB10_10:
	@DEBUG_VALUE: ecp_mod_p255:N <- $r4
	.loc	3 0 5                           @ ../../../ThirdParty/mbedTLS/library/ecp_curves.c:0:5
	add	r0, sp, #44
	movs	r2, #19
.Ltmp390:
	.loc	3 1387 5 is_stmt 1              @ ../../../ThirdParty/mbedTLS/library/ecp_curves.c:1387:5
	mov	r1, r0
	bl	mbedtls_mpi_mul_int
.Ltmp391:
	@DEBUG_VALUE: ecp_mod_p255:ret <- $r0
	.loc	3 1387 5 is_stmt 0              @ ../../../ThirdParty/mbedTLS/library/ecp_curves.c:1387:5
	cmp	r0, #0
	bne	.LBB10_5
.Ltmp392:
@ %bb.11:
	@DEBUG_VALUE: ecp_mod_p255:N <- $r4
	@DEBUG_VALUE: ecp_mod_p255:ret <- $r0
	.loc	3 0 5                           @ ../../../ThirdParty/mbedTLS/library/ecp_curves.c:0:5
	add	r2, sp, #44
.Ltmp393:
	.loc	3 1388 5 is_stmt 1              @ ../../../ThirdParty/mbedTLS/library/ecp_curves.c:1388:5
	mov	r0, r4
.Ltmp394:
	mov	r1, r4
	bl	mbedtls_mpi_add_abs
.Ltmp395:
	@DEBUG_VALUE: ecp_mod_p255:ret <- $r0
	.loc	3 1392 1                        @ ../../../ThirdParty/mbedTLS/library/ecp_curves.c:1392:1
	add	sp, #56
	pop	{r4, r5, r6, pc}
.Ltmp396:
	.p2align	2
@ %bb.12:
	.loc	3 0 1 is_stmt 0                 @ ../../../ThirdParty/mbedTLS/library/ecp_curves.c:0:1
__arm_cp.10_0:
	.long	4294946944                      @ 0xffffb080
.Lcpi_end76:
	.size	__arm_cp.10_0, .Lcpi_end76-__arm_cp.10_0
.Lfunc_end10:
	.size	ecp_mod_p255, .Lfunc_end10-ecp_mod_p255
	.cfi_endproc
	.cantunwind
	.fnend
                                        @ -- End function
	.section	.text.ecp_use_curve25519,"ax",%progbits
	.p2align	2                               @ -- Begin function ecp_use_curve25519
	.type	ecp_use_curve25519,%function
	.code	16                              @ @ecp_use_curve25519
	.thumb_func
ecp_use_curve25519:
.Lfunc_begin11:
	.loc	3 671 0 is_stmt 1               @ ../../../ThirdParty/mbedTLS/library/ecp_curves.c:671:0
	.fnstart
	.cfi_startproc
@ %bb.0:
	@DEBUG_VALUE: ecp_use_curve25519:grp <- $r0
	.save	{r4, r5, r6, lr}
	push	{r4, r5, r6, lr}
	.cfi_def_cfa_offset 16
	.cfi_offset lr, -4
	.cfi_offset r6, -8
	.cfi_offset r5, -12
	.cfi_offset r4, -16
	mov	r4, r0
.Ltmp397:
	@DEBUG_VALUE: ecp_use_curve25519:grp <- $r4
	.loc	3 675 5 prologue_end            @ ../../../ThirdParty/mbedTLS/library/ecp_curves.c:675:5
	adds	r0, #16
	movs	r1, #16
	adr	r2, .LCPI11_0
	bl	mbedtls_mpi_read_string
	mov	r5, r0
.Ltmp398:
	@DEBUG_VALUE: ecp_use_curve25519:ret <- $r5
	.loc	3 675 5 is_stmt 0               @ ../../../ThirdParty/mbedTLS/library/ecp_curves.c:675:5
	cbnz	r0, .LBB11_9
.Ltmp399:
@ %bb.1:
	@DEBUG_VALUE: ecp_use_curve25519:ret <- $r5
	@DEBUG_VALUE: ecp_use_curve25519:grp <- $r4
	.loc	3 678 5 is_stmt 1               @ ../../../ThirdParty/mbedTLS/library/ecp_curves.c:678:5
	adds	r6, r4, #4
	movs	r1, #1
	mov	r0, r6
	bl	mbedtls_mpi_lset
	mov	r5, r0
.Ltmp400:
	@DEBUG_VALUE: ecp_use_curve25519:ret <- $r5
	.loc	3 678 5 is_stmt 0               @ ../../../ThirdParty/mbedTLS/library/ecp_curves.c:678:5
	cbnz	r0, .LBB11_9
.Ltmp401:
@ %bb.2:
	@DEBUG_VALUE: ecp_use_curve25519:ret <- $r5
	@DEBUG_VALUE: ecp_use_curve25519:grp <- $r4
	.loc	3 0 5                           @ ../../../ThirdParty/mbedTLS/library/ecp_curves.c:0:5
	movs	r1, #255
.Ltmp402:
	.loc	3 679 5 is_stmt 1               @ ../../../ThirdParty/mbedTLS/library/ecp_curves.c:679:5
	mov	r0, r6
	bl	mbedtls_mpi_shift_l
	mov	r5, r0
.Ltmp403:
	@DEBUG_VALUE: ecp_use_curve25519:ret <- $r5
	.loc	3 679 5 is_stmt 0               @ ../../../ThirdParty/mbedTLS/library/ecp_curves.c:679:5
	cbnz	r0, .LBB11_9
.Ltmp404:
@ %bb.3:
	@DEBUG_VALUE: ecp_use_curve25519:ret <- $r5
	@DEBUG_VALUE: ecp_use_curve25519:grp <- $r4
	.loc	3 0 5                           @ ../../../ThirdParty/mbedTLS/library/ecp_curves.c:0:5
	movs	r2, #19
.Ltmp405:
	.loc	3 680 5 is_stmt 1               @ ../../../ThirdParty/mbedTLS/library/ecp_curves.c:680:5
	mov	r0, r6
	mov	r1, r6
	bl	mbedtls_mpi_sub_int
	mov	r5, r0
.Ltmp406:
	@DEBUG_VALUE: ecp_use_curve25519:ret <- $r5
	.loc	3 680 5 is_stmt 0               @ ../../../ThirdParty/mbedTLS/library/ecp_curves.c:680:5
	cbnz	r0, .LBB11_9
.Ltmp407:
@ %bb.4:
	@DEBUG_VALUE: ecp_use_curve25519:ret <- $r5
	@DEBUG_VALUE: ecp_use_curve25519:grp <- $r4
	.loc	3 681 18 is_stmt 1              @ ../../../ThirdParty/mbedTLS/library/ecp_curves.c:681:18
	mov	r0, r6
	bl	mbedtls_mpi_bitlen
	.loc	3 681 16 is_stmt 0              @ ../../../ThirdParty/mbedTLS/library/ecp_curves.c:681:16
	str	r0, [r4, #88]
.Ltmp408:
	.loc	3 684 5 is_stmt 1               @ ../../../ThirdParty/mbedTLS/library/ecp_curves.c:684:5
	mov	r6, r4
	adds	r6, #76
	movs	r1, #16
	adr	r2, .LCPI11_1
	mov	r0, r6
	bl	mbedtls_mpi_read_string
	mov	r5, r0
.Ltmp409:
	@DEBUG_VALUE: ecp_use_curve25519:ret <- $r5
	.loc	3 684 5 is_stmt 0               @ ../../../ThirdParty/mbedTLS/library/ecp_curves.c:684:5
	cbnz	r0, .LBB11_9
.Ltmp410:
@ %bb.5:
	@DEBUG_VALUE: ecp_use_curve25519:ret <- $r5
	@DEBUG_VALUE: ecp_use_curve25519:grp <- $r4
	.loc	3 0 5                           @ ../../../ThirdParty/mbedTLS/library/ecp_curves.c:0:5
	movs	r1, #252
	movs	r2, #1
.Ltmp411:
	.loc	3 686 5 is_stmt 1               @ ../../../ThirdParty/mbedTLS/library/ecp_curves.c:686:5
	mov	r0, r6
	bl	mbedtls_mpi_set_bit
	mov	r5, r0
.Ltmp412:
	@DEBUG_VALUE: ecp_use_curve25519:ret <- $r5
	.loc	3 686 5 is_stmt 0               @ ../../../ThirdParty/mbedTLS/library/ecp_curves.c:686:5
	cbnz	r0, .LBB11_9
.Ltmp413:
@ %bb.6:
	@DEBUG_VALUE: ecp_use_curve25519:ret <- $r5
	@DEBUG_VALUE: ecp_use_curve25519:grp <- $r4
	.loc	3 690 5 is_stmt 1               @ ../../../ThirdParty/mbedTLS/library/ecp_curves.c:690:5
	mov	r0, r4
	adds	r0, #40
	movs	r1, #9
	bl	mbedtls_mpi_lset
	mov	r5, r0
.Ltmp414:
	@DEBUG_VALUE: ecp_use_curve25519:ret <- $r5
	.loc	3 690 5 is_stmt 0               @ ../../../ThirdParty/mbedTLS/library/ecp_curves.c:690:5
	cbnz	r0, .LBB11_9
.Ltmp415:
@ %bb.7:
	@DEBUG_VALUE: ecp_use_curve25519:ret <- $r5
	@DEBUG_VALUE: ecp_use_curve25519:grp <- $r4
	.loc	3 691 5 is_stmt 1               @ ../../../ThirdParty/mbedTLS/library/ecp_curves.c:691:5
	mov	r0, r4
	adds	r0, #64
	movs	r1, #1
	bl	mbedtls_mpi_lset
	mov	r5, r0
.Ltmp416:
	@DEBUG_VALUE: ecp_use_curve25519:ret <- $r5
	.loc	3 691 5 is_stmt 0               @ ../../../ThirdParty/mbedTLS/library/ecp_curves.c:691:5
	cbnz	r0, .LBB11_9
.Ltmp417:
@ %bb.8:
	@DEBUG_VALUE: ecp_use_curve25519:ret <- $r5
	@DEBUG_VALUE: ecp_use_curve25519:grp <- $r4
	.loc	3 692 31 is_stmt 1              @ ../../../ThirdParty/mbedTLS/library/ecp_curves.c:692:31
	mov	r0, r4
	adds	r0, #52
	.loc	3 692 5 is_stmt 0               @ ../../../ThirdParty/mbedTLS/library/ecp_curves.c:692:5
	bl	mbedtls_mpi_free
	movs	r0, #254
	.loc	3 695 16 is_stmt 1              @ ../../../ThirdParty/mbedTLS/library/ecp_curves.c:695:16
	str	r0, [r4, #92]
	movs	r5, #0
.Ltmp418:
.LBB11_9:
	@DEBUG_VALUE: ecp_use_curve25519:grp <- $r4
	@DEBUG_VALUE: ecp_use_curve25519:ret <- $r5
	@DEBUG_LABEL: ecp_use_curve25519:cleanup
	.loc	3 698 9                         @ ../../../ThirdParty/mbedTLS/library/ecp_curves.c:698:9
	cbz	r5, .LBB11_11
.Ltmp419:
@ %bb.10:
	@DEBUG_VALUE: ecp_use_curve25519:ret <- $r5
	@DEBUG_VALUE: ecp_use_curve25519:grp <- $r4
	.loc	3 699 9                         @ ../../../ThirdParty/mbedTLS/library/ecp_curves.c:699:9
	mov	r0, r4
	bl	mbedtls_ecp_group_free
.Ltmp420:
.LBB11_11:
	@DEBUG_VALUE: ecp_use_curve25519:ret <- $r5
	@DEBUG_VALUE: ecp_use_curve25519:grp <- $r4
	.loc	3 701 5                         @ ../../../ThirdParty/mbedTLS/library/ecp_curves.c:701:5
	mov	r0, r5
	pop	{r4, r5, r6, pc}
.Ltmp421:
	.p2align	2
@ %bb.12:
	.loc	3 0 5 is_stmt 0                 @ ../../../ThirdParty/mbedTLS/library/ecp_curves.c:0:5
.LCPI11_0:
.L.str:
	.asciz	"01DB42\000"
.LCPI11_1:
.L.str.1:
	.asciz	"14DEF9DEA2F79CD65812631A5CF5D3ED\000\000\000"
.Lfunc_end11:
	.size	ecp_use_curve25519, .Lfunc_end11-ecp_use_curve25519
	.cfi_endproc
	.cantunwind
	.fnend
                                        @ -- End function
	.section	.text.ecp_mod_p448,"ax",%progbits
	.p2align	2                               @ -- Begin function ecp_mod_p448
	.type	ecp_mod_p448,%function
	.code	16                              @ @ecp_mod_p448
	.thumb_func
ecp_mod_p448:
.Lfunc_begin12:
	.loc	3 1418 0 is_stmt 1              @ ../../../ThirdParty/mbedTLS/library/ecp_curves.c:1418:0
	.fnstart
	.cfi_startproc
@ %bb.0:
	@DEBUG_VALUE: ecp_mod_p448:N <- $r0
	@DEBUG_VALUE: ecp_mod_p448:N <- $r0
	.save	{r4, r5, r6, r7, lr}
	push	{r4, r5, r6, r7, lr}
	.cfi_def_cfa_offset 20
	.cfi_offset lr, -4
	.cfi_offset r7, -8
	.cfi_offset r6, -12
	.cfi_offset r5, -16
	.cfi_offset r4, -20
	.pad	#140
	sub	sp, #140
	.cfi_def_cfa_offset 160
.Ltmp422:
	.loc	3 1424 12 prologue_end          @ ../../../ThirdParty/mbedTLS/library/ecp_curves.c:1424:12
	ldr	r7, [r0, #4]
.Ltmp423:
	.loc	3 1424 9 is_stmt 0              @ ../../../ThirdParty/mbedTLS/library/ecp_curves.c:1424:9
	cmp	r7, #15
	bhs	.LBB12_2
.Ltmp424:
@ %bb.1:
	@DEBUG_VALUE: ecp_mod_p448:N <- $r0
	.loc	3 0 9                           @ ../../../ThirdParty/mbedTLS/library/ecp_curves.c:0:9
	movs	r0, #0
.Ltmp425:
	@DEBUG_VALUE: ecp_mod_p448:N <- [DW_OP_LLVM_entry_value 1] $r0
	.loc	3 1463 1 is_stmt 1              @ ../../../ThirdParty/mbedTLS/library/ecp_curves.c:1463:1
	add	sp, #140
	pop	{r4, r5, r6, r7, pc}
.Ltmp426:
.LBB12_2:
	@DEBUG_VALUE: ecp_mod_p448:N <- $r0
	.loc	3 0 1 is_stmt 0                 @ ../../../ThirdParty/mbedTLS/library/ecp_curves.c:0:1
	mov	r4, r0
.Ltmp427:
	@DEBUG_VALUE: ecp_mod_p448:N <- $r4
	movs	r0, #1
	.loc	3 1428 9 is_stmt 1              @ ../../../ThirdParty/mbedTLS/library/ecp_curves.c:1428:9
	str	r0, [sp, #128]
	.loc	3 1429 16                       @ ../../../ThirdParty/mbedTLS/library/ecp_curves.c:1429:16
	subs	r7, #14
	.loc	3 1429 9 is_stmt 0              @ ../../../ThirdParty/mbedTLS/library/ecp_curves.c:1429:9
	str	r7, [sp, #132]
	.loc	3 1430 9 is_stmt 1              @ ../../../ThirdParty/mbedTLS/library/ecp_curves.c:1430:9
	cmp	r7, #14
	bls	.LBB12_4
.Ltmp428:
@ %bb.3:
	@DEBUG_VALUE: ecp_mod_p448:N <- $r4
	.loc	3 0 9 is_stmt 0                 @ ../../../ThirdParty/mbedTLS/library/ecp_curves.c:0:9
	ldr	r0, __arm_cp.12_0
	.loc	3 1463 1 is_stmt 1              @ ../../../ThirdParty/mbedTLS/library/ecp_curves.c:1463:1
	add	sp, #140
	pop	{r4, r5, r6, r7, pc}
.Ltmp429:
.LBB12_4:
	@DEBUG_VALUE: ecp_mod_p448:N <- $r4
	.loc	3 0 1 is_stmt 0                 @ ../../../ThirdParty/mbedTLS/library/ecp_curves.c:0:1
	add	r6, sp, #56
	.loc	3 1433 9 is_stmt 1              @ ../../../ThirdParty/mbedTLS/library/ecp_curves.c:1433:9
	str	r6, [sp, #136]
	movs	r1, #60
	.loc	3 1434 5                        @ ../../../ThirdParty/mbedTLS/library/ecp_curves.c:1434:5
	mov	r0, r6
	bl	__aeabi_memclr4
	.loc	3 1435 20                       @ ../../../ThirdParty/mbedTLS/library/ecp_curves.c:1435:20
	ldr	r5, [r4, #8]
	.loc	3 1435 40 is_stmt 0             @ ../../../ThirdParty/mbedTLS/library/ecp_curves.c:1435:40
	lsls	r2, r7, #2
	.loc	3 1435 22                       @ ../../../ThirdParty/mbedTLS/library/ecp_curves.c:1435:22
	adds	r5, #56
	.loc	3 1435 5                        @ ../../../ThirdParty/mbedTLS/library/ecp_curves.c:1435:5
	mov	r0, r6
	mov	r1, r5
	bl	__aeabi_memcpy4
.Ltmp430:
	@DEBUG_VALUE: ecp_mod_p448:i <- 14
	.loc	3 1438 33 is_stmt 1             @ ../../../ThirdParty/mbedTLS/library/ecp_curves.c:1438:33
	ldr	r0, [r4, #4]
.Ltmp431:
	.loc	3 1438 5 is_stmt 0              @ ../../../ThirdParty/mbedTLS/library/ecp_curves.c:1438:5
	cmp	r0, #15
	blo	.LBB12_7
.Ltmp432:
@ %bb.5:
	@DEBUG_VALUE: ecp_mod_p448:N <- $r4
	@DEBUG_VALUE: ecp_mod_p448:i <- 14
	.loc	3 0 5                           @ ../../../ThirdParty/mbedTLS/library/ecp_curves.c:0:5
	movs	r0, #14
	movs	r1, #0
.Ltmp433:
.LBB12_6:                               @ =>This Inner Loop Header: Depth=1
	@DEBUG_VALUE: ecp_mod_p448:N <- $r4
	@DEBUG_VALUE: ecp_mod_p448:i <- $r0
	.loc	3 1439 17 is_stmt 1             @ ../../../ThirdParty/mbedTLS/library/ecp_curves.c:1439:17
	stm	r5!, {r1}
	.loc	3 1438 37                       @ ../../../ThirdParty/mbedTLS/library/ecp_curves.c:1438:37
	adds	r0, r0, #1
.Ltmp434:
	@DEBUG_VALUE: ecp_mod_p448:i <- $r0
	.loc	3 1438 33 is_stmt 0             @ ../../../ThirdParty/mbedTLS/library/ecp_curves.c:1438:33
	ldr	r2, [r4, #4]
.Ltmp435:
	.loc	3 1438 5                        @ ../../../ThirdParty/mbedTLS/library/ecp_curves.c:1438:5
	cmp	r0, r2
	blo	.LBB12_6
.Ltmp436:
.LBB12_7:
	@DEBUG_VALUE: ecp_mod_p448:N <- $r4
	.loc	3 0 5                           @ ../../../ThirdParty/mbedTLS/library/ecp_curves.c:0:5
	add	r2, sp, #128
.Ltmp437:
	.loc	3 1442 5 is_stmt 1              @ ../../../ThirdParty/mbedTLS/library/ecp_curves.c:1442:5
	mov	r0, r4
	mov	r1, r4
	bl	mbedtls_mpi_add_mpi
.Ltmp438:
	@DEBUG_VALUE: ecp_mod_p448:ret <- $r0
	.loc	3 1442 5 is_stmt 0              @ ../../../ThirdParty/mbedTLS/library/ecp_curves.c:1442:5
	cbz	r0, .LBB12_9
.Ltmp439:
.LBB12_8:
	@DEBUG_VALUE: ecp_mod_p448:N <- $r4
	@DEBUG_VALUE: ecp_mod_p448:ret <- $r0
	.loc	3 1463 1 is_stmt 1              @ ../../../ThirdParty/mbedTLS/library/ecp_curves.c:1463:1
	add	sp, #140
	pop	{r4, r5, r6, r7, pc}
.Ltmp440:
.LBB12_9:
	@DEBUG_VALUE: ecp_mod_p448:N <- $r4
	@DEBUG_VALUE: ecp_mod_p448:ret <- $r0
	.loc	3 1445 9                        @ ../../../ThirdParty/mbedTLS/library/ecp_curves.c:1445:9
	ldr	r0, [sp, #132]
.Ltmp441:
	str	r0, [sp, #120]
	ldr	r0, [sp, #128]
	str	r0, [sp, #116]
	mov	r0, sp
	.loc	3 1446 9                        @ ../../../ThirdParty/mbedTLS/library/ecp_curves.c:1446:9
	str	r0, [sp, #124]
	add	r1, sp, #56
	.loc	3 1447 5                        @ ../../../ThirdParty/mbedTLS/library/ecp_curves.c:1447:5
	ldm	r1!, {r2, r3, r5}
	stm	r0!, {r2, r3, r5}
	ldm	r1!, {r2, r3, r5, r6}
	stm	r0!, {r2, r3, r5, r6}
	ldm	r1!, {r2, r3, r5}
	stm	r0!, {r2, r3, r5}
	ldm	r1!, {r2, r3, r5, r6}
	stm	r0!, {r2, r3, r5, r6}
	add	r0, sp, #116
	movs	r1, #224
.Ltmp442:
	.loc	3 1448 5                        @ ../../../ThirdParty/mbedTLS/library/ecp_curves.c:1448:5
	bl	mbedtls_mpi_shift_r
.Ltmp443:
	@DEBUG_VALUE: ecp_mod_p448:ret <- $r0
	.loc	3 1448 5 is_stmt 0              @ ../../../ThirdParty/mbedTLS/library/ecp_curves.c:1448:5
	cmp	r0, #0
	bne	.LBB12_8
.Ltmp444:
@ %bb.10:
	@DEBUG_VALUE: ecp_mod_p448:N <- $r4
	@DEBUG_VALUE: ecp_mod_p448:ret <- $r0
	.loc	3 0 5                           @ ../../../ThirdParty/mbedTLS/library/ecp_curves.c:0:5
	add	r2, sp, #116
.Ltmp445:
	.loc	3 1449 5 is_stmt 1              @ ../../../ThirdParty/mbedTLS/library/ecp_curves.c:1449:5
	mov	r0, r4
.Ltmp446:
	mov	r1, r4
	bl	mbedtls_mpi_add_mpi
.Ltmp447:
	@DEBUG_VALUE: ecp_mod_p448:ret <- $r0
	.loc	3 1449 5 is_stmt 0              @ ../../../ThirdParty/mbedTLS/library/ecp_curves.c:1449:5
	cmp	r0, #0
	bne	.LBB12_8
.Ltmp448:
@ %bb.11:
	@DEBUG_VALUE: ecp_mod_p448:N <- $r4
	@DEBUG_VALUE: ecp_mod_p448:ret <- $r0
	@DEBUG_VALUE: ecp_mod_p448:i <- 7
	.loc	3 1454 36 is_stmt 1             @ ../../../ThirdParty/mbedTLS/library/ecp_curves.c:1454:36
	ldr	r0, [sp, #132]
.Ltmp449:
	.loc	3 1454 5 is_stmt 0              @ ../../../ThirdParty/mbedTLS/library/ecp_curves.c:1454:5
	cmp	r0, #8
	blo	.LBB12_15
.Ltmp450:
@ %bb.12:
	@DEBUG_VALUE: ecp_mod_p448:N <- $r4
	@DEBUG_VALUE: ecp_mod_p448:i <- 7
	.loc	3 0 0                           @ ../../../ThirdParty/mbedTLS/library/ecp_curves.c:0:0
	ldr	r0, [sp, #132]
.Ltmp451:
	.loc	3 1454 5                        @ ../../../ThirdParty/mbedTLS/library/ecp_curves.c:1454:5
	cmp	r0, #8
	bhi	.LBB12_14
.Ltmp452:
@ %bb.13:
	@DEBUG_VALUE: ecp_mod_p448:N <- $r4
	@DEBUG_VALUE: ecp_mod_p448:i <- 7
	.loc	3 0 5                           @ ../../../ThirdParty/mbedTLS/library/ecp_curves.c:0:5
	movs	r0, #8
.Ltmp453:
.LBB12_14:
	@DEBUG_VALUE: ecp_mod_p448:N <- $r4
	@DEBUG_VALUE: ecp_mod_p448:i <- 7
	.loc	3 1454 5                        @ ../../../ThirdParty/mbedTLS/library/ecp_curves.c:1454:5
	lsls	r1, r0, #2
	subs	r1, #28
	add	r0, sp, #56
	adds	r0, #28
.Ltmp454:
	.loc	3 1455 15 is_stmt 1             @ ../../../ThirdParty/mbedTLS/library/ecp_curves.c:1455:15
	bl	__aeabi_memclr4
.Ltmp455:
	@DEBUG_VALUE: ecp_mod_p448:i <- undef
.LBB12_15:
	@DEBUG_VALUE: ecp_mod_p448:N <- $r4
	.loc	3 0 15 is_stmt 0                @ ../../../ThirdParty/mbedTLS/library/ecp_curves.c:0:15
	add	r0, sp, #128
	add	r2, sp, #116
.Ltmp456:
	.loc	3 1456 5 is_stmt 1              @ ../../../ThirdParty/mbedTLS/library/ecp_curves.c:1456:5
	mov	r1, r0
	bl	mbedtls_mpi_add_mpi
.Ltmp457:
	@DEBUG_VALUE: ecp_mod_p448:ret <- $r0
	.loc	3 1456 5 is_stmt 0              @ ../../../ThirdParty/mbedTLS/library/ecp_curves.c:1456:5
	cmp	r0, #0
	bne	.LBB12_8
.Ltmp458:
@ %bb.16:
	@DEBUG_VALUE: ecp_mod_p448:N <- $r4
	@DEBUG_VALUE: ecp_mod_p448:ret <- $r0
	.loc	3 0 5                           @ ../../../ThirdParty/mbedTLS/library/ecp_curves.c:0:5
	movs	r0, #15
.Ltmp459:
	.loc	3 1457 9 is_stmt 1              @ ../../../ThirdParty/mbedTLS/library/ecp_curves.c:1457:9
	str	r0, [sp, #132]
	add	r0, sp, #128
	movs	r1, #224
.Ltmp460:
	.loc	3 1458 5                        @ ../../../ThirdParty/mbedTLS/library/ecp_curves.c:1458:5
	bl	mbedtls_mpi_shift_l
.Ltmp461:
	@DEBUG_VALUE: ecp_mod_p448:ret <- $r0
	.loc	3 1458 5 is_stmt 0              @ ../../../ThirdParty/mbedTLS/library/ecp_curves.c:1458:5
	cmp	r0, #0
	bne	.LBB12_8
.Ltmp462:
@ %bb.17:
	@DEBUG_VALUE: ecp_mod_p448:N <- $r4
	@DEBUG_VALUE: ecp_mod_p448:ret <- $r0
	.loc	3 0 5                           @ ../../../ThirdParty/mbedTLS/library/ecp_curves.c:0:5
	add	r2, sp, #128
.Ltmp463:
	.loc	3 1459 5 is_stmt 1              @ ../../../ThirdParty/mbedTLS/library/ecp_curves.c:1459:5
	mov	r0, r4
.Ltmp464:
	mov	r1, r4
	bl	mbedtls_mpi_add_mpi
.Ltmp465:
	@DEBUG_VALUE: ecp_mod_p448:ret <- $r0
	.loc	3 1463 1                        @ ../../../ThirdParty/mbedTLS/library/ecp_curves.c:1463:1
	add	sp, #140
	pop	{r4, r5, r6, r7, pc}
.Ltmp466:
	.p2align	2
@ %bb.18:
	.loc	3 0 1 is_stmt 0                 @ ../../../ThirdParty/mbedTLS/library/ecp_curves.c:0:1
__arm_cp.12_0:
	.long	4294946944                      @ 0xffffb080
.Lcpi_end77:
	.size	__arm_cp.12_0, .Lcpi_end77-__arm_cp.12_0
.Lfunc_end12:
	.size	ecp_mod_p448, .Lfunc_end12-ecp_mod_p448
	.cfi_endproc
	.cantunwind
	.fnend
                                        @ -- End function
	.section	.text.ecp_use_curve448,"ax",%progbits
	.p2align	2                               @ -- Begin function ecp_use_curve448
	.type	ecp_use_curve448,%function
	.code	16                              @ @ecp_use_curve448
	.thumb_func
ecp_use_curve448:
.Lfunc_begin13:
	.loc	3 710 0 is_stmt 1               @ ../../../ThirdParty/mbedTLS/library/ecp_curves.c:710:0
	.fnstart
	.cfi_startproc
@ %bb.0:
	@DEBUG_VALUE: ecp_use_curve448:grp <- $r0
	.save	{r4, r5, r6, r7, lr}
	push	{r4, r5, r6, r7, lr}
	.cfi_def_cfa_offset 20
	.cfi_offset lr, -4
	.cfi_offset r7, -8
	.cfi_offset r6, -12
	.cfi_offset r5, -16
	.cfi_offset r4, -20
	.pad	#12
	sub	sp, #12
	.cfi_def_cfa_offset 32
	mov	r4, r0
.Ltmp467:
	@DEBUG_VALUE: ecp_use_curve448:grp <- $r4
	mov	r0, sp
.Ltmp468:
	.loc	3 714 5 prologue_end            @ ../../../ThirdParty/mbedTLS/library/ecp_curves.c:714:5
	bl	mbedtls_mpi_init
.Ltmp469:
	.loc	3 717 5                         @ ../../../ThirdParty/mbedTLS/library/ecp_curves.c:717:5
	mov	r0, r4
	adds	r0, #16
	movs	r1, #16
	adr	r2, .LCPI13_0
	bl	mbedtls_mpi_read_string
	mov	r5, r0
.Ltmp470:
	@DEBUG_VALUE: ecp_use_curve448:ret <- $r5
	.loc	3 717 5 is_stmt 0               @ ../../../ThirdParty/mbedTLS/library/ecp_curves.c:717:5
	cmp	r0, #0
	bne	.LBB13_12
.Ltmp471:
@ %bb.1:
	@DEBUG_VALUE: ecp_use_curve448:ret <- $r5
	@DEBUG_VALUE: ecp_use_curve448:grp <- $r4
	.loc	3 720 5 is_stmt 1               @ ../../../ThirdParty/mbedTLS/library/ecp_curves.c:720:5
	adds	r6, r4, #4
	movs	r1, #1
	mov	r0, r6
	bl	mbedtls_mpi_lset
	mov	r5, r0
.Ltmp472:
	@DEBUG_VALUE: ecp_use_curve448:ret <- $r5
	.loc	3 720 5 is_stmt 0               @ ../../../ThirdParty/mbedTLS/library/ecp_curves.c:720:5
	cmp	r0, #0
	bne	.LBB13_12
.Ltmp473:
@ %bb.2:
	@DEBUG_VALUE: ecp_use_curve448:ret <- $r5
	@DEBUG_VALUE: ecp_use_curve448:grp <- $r4
	.loc	3 0 5                           @ ../../../ThirdParty/mbedTLS/library/ecp_curves.c:0:5
	movs	r1, #224
.Ltmp474:
	.loc	3 721 5 is_stmt 1               @ ../../../ThirdParty/mbedTLS/library/ecp_curves.c:721:5
	mov	r0, r6
	bl	mbedtls_mpi_shift_l
	mov	r5, r0
.Ltmp475:
	@DEBUG_VALUE: ecp_use_curve448:ret <- $r5
	.loc	3 721 5 is_stmt 0               @ ../../../ThirdParty/mbedTLS/library/ecp_curves.c:721:5
	cmp	r0, #0
	bne	.LBB13_12
.Ltmp476:
@ %bb.3:
	@DEBUG_VALUE: ecp_use_curve448:ret <- $r5
	@DEBUG_VALUE: ecp_use_curve448:grp <- $r4
	.loc	3 0 5                           @ ../../../ThirdParty/mbedTLS/library/ecp_curves.c:0:5
	movs	r2, #1
.Ltmp477:
	.loc	3 722 5 is_stmt 1               @ ../../../ThirdParty/mbedTLS/library/ecp_curves.c:722:5
	mov	r0, r6
	mov	r1, r6
	bl	mbedtls_mpi_sub_int
	mov	r5, r0
.Ltmp478:
	@DEBUG_VALUE: ecp_use_curve448:ret <- $r5
	.loc	3 722 5 is_stmt 0               @ ../../../ThirdParty/mbedTLS/library/ecp_curves.c:722:5
	cmp	r0, #0
	bne	.LBB13_12
.Ltmp479:
@ %bb.4:
	@DEBUG_VALUE: ecp_use_curve448:ret <- $r5
	@DEBUG_VALUE: ecp_use_curve448:grp <- $r4
	.loc	3 0 5                           @ ../../../ThirdParty/mbedTLS/library/ecp_curves.c:0:5
	movs	r1, #224
.Ltmp480:
	.loc	3 723 5 is_stmt 1               @ ../../../ThirdParty/mbedTLS/library/ecp_curves.c:723:5
	mov	r0, r6
	bl	mbedtls_mpi_shift_l
	mov	r5, r0
.Ltmp481:
	@DEBUG_VALUE: ecp_use_curve448:ret <- $r5
	.loc	3 723 5 is_stmt 0               @ ../../../ThirdParty/mbedTLS/library/ecp_curves.c:723:5
	cbnz	r0, .LBB13_12
.Ltmp482:
@ %bb.5:
	@DEBUG_VALUE: ecp_use_curve448:ret <- $r5
	@DEBUG_VALUE: ecp_use_curve448:grp <- $r4
	.loc	3 0 5                           @ ../../../ThirdParty/mbedTLS/library/ecp_curves.c:0:5
	movs	r2, #1
.Ltmp483:
	.loc	3 724 5 is_stmt 1               @ ../../../ThirdParty/mbedTLS/library/ecp_curves.c:724:5
	mov	r0, r6
	mov	r1, r6
	bl	mbedtls_mpi_sub_int
	mov	r5, r0
.Ltmp484:
	@DEBUG_VALUE: ecp_use_curve448:ret <- $r5
	.loc	3 724 5 is_stmt 0               @ ../../../ThirdParty/mbedTLS/library/ecp_curves.c:724:5
	cbnz	r0, .LBB13_12
.Ltmp485:
@ %bb.6:
	@DEBUG_VALUE: ecp_use_curve448:ret <- $r5
	@DEBUG_VALUE: ecp_use_curve448:grp <- $r4
	.loc	3 725 18 is_stmt 1              @ ../../../ThirdParty/mbedTLS/library/ecp_curves.c:725:18
	mov	r0, r6
	bl	mbedtls_mpi_bitlen
	.loc	3 725 16 is_stmt 0              @ ../../../ThirdParty/mbedTLS/library/ecp_curves.c:725:16
	str	r0, [r4, #88]
.Ltmp486:
	.loc	3 729 5 is_stmt 1               @ ../../../ThirdParty/mbedTLS/library/ecp_curves.c:729:5
	mov	r0, r4
	adds	r0, #40
	movs	r1, #5
	bl	mbedtls_mpi_lset
	mov	r5, r0
.Ltmp487:
	@DEBUG_VALUE: ecp_use_curve448:ret <- $r5
	.loc	3 729 5 is_stmt 0               @ ../../../ThirdParty/mbedTLS/library/ecp_curves.c:729:5
	cbnz	r0, .LBB13_12
.Ltmp488:
@ %bb.7:
	@DEBUG_VALUE: ecp_use_curve448:ret <- $r5
	@DEBUG_VALUE: ecp_use_curve448:grp <- $r4
	.loc	3 730 5 is_stmt 1               @ ../../../ThirdParty/mbedTLS/library/ecp_curves.c:730:5
	mov	r0, r4
	adds	r0, #64
	movs	r1, #1
	bl	mbedtls_mpi_lset
	mov	r5, r0
.Ltmp489:
	@DEBUG_VALUE: ecp_use_curve448:ret <- $r5
	.loc	3 730 5 is_stmt 0               @ ../../../ThirdParty/mbedTLS/library/ecp_curves.c:730:5
	cbnz	r0, .LBB13_12
.Ltmp490:
@ %bb.8:
	@DEBUG_VALUE: ecp_use_curve448:ret <- $r5
	@DEBUG_VALUE: ecp_use_curve448:grp <- $r4
	.loc	3 731 31 is_stmt 1              @ ../../../ThirdParty/mbedTLS/library/ecp_curves.c:731:31
	mov	r0, r4
	adds	r0, #52
	.loc	3 731 5 is_stmt 0               @ ../../../ThirdParty/mbedTLS/library/ecp_curves.c:731:5
	bl	mbedtls_mpi_free
.Ltmp491:
	.loc	3 734 5 is_stmt 1               @ ../../../ThirdParty/mbedTLS/library/ecp_curves.c:734:5
	mov	r6, r4
	adds	r6, #76
	movw	r7, #446
	movs	r2, #1
	mov	r0, r6
	movw	r1, #446
	bl	mbedtls_mpi_set_bit
	mov	r5, r0
.Ltmp492:
	@DEBUG_VALUE: ecp_use_curve448:ret <- $r5
	.loc	3 734 5 is_stmt 0               @ ../../../ThirdParty/mbedTLS/library/ecp_curves.c:734:5
	cbnz	r0, .LBB13_12
.Ltmp493:
@ %bb.9:
	@DEBUG_VALUE: ecp_use_curve448:ret <- $r5
	@DEBUG_VALUE: ecp_use_curve448:grp <- $r4
	.loc	3 0 5                           @ ../../../ThirdParty/mbedTLS/library/ecp_curves.c:0:5
	mov	r0, sp
	movs	r1, #16
.Ltmp494:
	.loc	3 735 5 is_stmt 1               @ ../../../ThirdParty/mbedTLS/library/ecp_curves.c:735:5
	adr	r2, .LCPI13_1
	bl	mbedtls_mpi_read_string
	mov	r5, r0
.Ltmp495:
	@DEBUG_VALUE: ecp_use_curve448:ret <- $r5
	.loc	3 735 5 is_stmt 0               @ ../../../ThirdParty/mbedTLS/library/ecp_curves.c:735:5
	cbnz	r0, .LBB13_12
.Ltmp496:
@ %bb.10:
	@DEBUG_VALUE: ecp_use_curve448:ret <- $r5
	@DEBUG_VALUE: ecp_use_curve448:grp <- $r4
	.loc	3 0 5                           @ ../../../ThirdParty/mbedTLS/library/ecp_curves.c:0:5
	mov	r2, sp
.Ltmp497:
	.loc	3 737 5 is_stmt 1               @ ../../../ThirdParty/mbedTLS/library/ecp_curves.c:737:5
	mov	r0, r6
	mov	r1, r6
	bl	mbedtls_mpi_sub_mpi
	mov	r5, r0
.Ltmp498:
	@DEBUG_VALUE: ecp_use_curve448:ret <- $r5
	.loc	3 737 5 is_stmt 0               @ ../../../ThirdParty/mbedTLS/library/ecp_curves.c:737:5
	cbnz	r0, .LBB13_12
.Ltmp499:
@ %bb.11:
	@DEBUG_VALUE: ecp_use_curve448:ret <- $r5
	@DEBUG_VALUE: ecp_use_curve448:grp <- $r4
	.loc	3 740 16 is_stmt 1              @ ../../../ThirdParty/mbedTLS/library/ecp_curves.c:740:16
	adds	r0, r7, #1
	str	r0, [r4, #92]
	movs	r5, #0
.Ltmp500:
.LBB13_12:
	@DEBUG_VALUE: ecp_use_curve448:grp <- $r4
	@DEBUG_VALUE: ecp_use_curve448:ret <- $r5
	@DEBUG_LABEL: ecp_use_curve448:cleanup
	.loc	3 0 16 is_stmt 0                @ ../../../ThirdParty/mbedTLS/library/ecp_curves.c:0:16
	mov	r0, sp
	.loc	3 743 5 is_stmt 1               @ ../../../ThirdParty/mbedTLS/library/ecp_curves.c:743:5
	bl	mbedtls_mpi_free
	.loc	3 744 9                         @ ../../../ThirdParty/mbedTLS/library/ecp_curves.c:744:9
	cbz	r5, .LBB13_14
.Ltmp501:
@ %bb.13:
	@DEBUG_VALUE: ecp_use_curve448:ret <- $r5
	@DEBUG_VALUE: ecp_use_curve448:grp <- $r4
	.loc	3 745 9                         @ ../../../ThirdParty/mbedTLS/library/ecp_curves.c:745:9
	mov	r0, r4
	bl	mbedtls_ecp_group_free
.Ltmp502:
.LBB13_14:
	@DEBUG_VALUE: ecp_use_curve448:ret <- $r5
	@DEBUG_VALUE: ecp_use_curve448:grp <- $r4
	.loc	3 747 5                         @ ../../../ThirdParty/mbedTLS/library/ecp_curves.c:747:5
	mov	r0, r5
	add	sp, #12
	pop	{r4, r5, r6, r7, pc}
.Ltmp503:
	.p2align	2
@ %bb.15:
	.loc	3 0 5 is_stmt 0                 @ ../../../ThirdParty/mbedTLS/library/ecp_curves.c:0:5
.LCPI13_0:
.L.str.2:
	.asciz	"98AA\000\000\000"
.LCPI13_1:
.L.str.3:
	.asciz	"8335DC163BB124B65129C96FDE933D8D723A70AADC873D6D54A7BB0D\000\000\000"
.Lfunc_end13:
	.size	ecp_use_curve448, .Lfunc_end13-ecp_use_curve448
	.cfi_endproc
	.cantunwind
	.fnend
                                        @ -- End function
	.section	.text.ecp_mpi_load,"ax",%progbits
	.p2align	1                               @ -- Begin function ecp_mpi_load
	.type	ecp_mpi_load,%function
	.code	16                              @ @ecp_mpi_load
	.thumb_func
ecp_mpi_load:
.Lfunc_begin14:
	.loc	3 564 0 is_stmt 1               @ ../../../ThirdParty/mbedTLS/library/ecp_curves.c:564:0
	.fnstart
	.cfi_startproc
@ %bb.0:
	@DEBUG_VALUE: ecp_mpi_load:X <- $r0
	@DEBUG_VALUE: ecp_mpi_load:p <- $r1
	@DEBUG_VALUE: ecp_mpi_load:len <- $r2
	movs	r3, #1
	@DEBUG_VALUE: ecp_mpi_load:len <- $r2
	@DEBUG_VALUE: ecp_mpi_load:p <- $r1
	@DEBUG_VALUE: ecp_mpi_load:X <- $r0
.Ltmp504:
	.loc	3 566 16 prologue_end           @ ../../../ThirdParty/mbedTLS/library/ecp_curves.c:566:16
	lsrs	r2, r2, #2
.Ltmp505:
	@DEBUG_VALUE: ecp_mpi_load:len <- [DW_OP_LLVM_entry_value 1] $r2
	.loc	3 565 10                        @ ../../../ThirdParty/mbedTLS/library/ecp_curves.c:565:10
	str	r3, [r0]
	.loc	3 566 10                        @ ../../../ThirdParty/mbedTLS/library/ecp_curves.c:566:10
	str	r2, [r0, #4]
	.loc	3 567 10                        @ ../../../ThirdParty/mbedTLS/library/ecp_curves.c:567:10
	str	r1, [r0, #8]
	.loc	3 568 1                         @ ../../../ThirdParty/mbedTLS/library/ecp_curves.c:568:1
	bx	lr
.Ltmp506:
.Lfunc_end14:
	.size	ecp_mpi_load, .Lfunc_end14-ecp_mpi_load
	.cfi_endproc
	.cantunwind
	.fnend
                                        @ -- End function
	.section	.text.ecp_mpi_set1,"ax",%progbits
	.p2align	2                               @ -- Begin function ecp_mpi_set1
	.type	ecp_mpi_set1,%function
	.code	16                              @ @ecp_mpi_set1
	.thumb_func
ecp_mpi_set1:
.Lfunc_begin15:
	.loc	3 574 0                         @ ../../../ThirdParty/mbedTLS/library/ecp_curves.c:574:0
	.fnstart
	.cfi_startproc
@ %bb.0:
	@DEBUG_VALUE: ecp_mpi_set1:X <- $r0
	@DEBUG_VALUE: ecp_mpi_set1:X <- $r0
	.loc	3 578 10 prologue_end           @ ../../../ThirdParty/mbedTLS/library/ecp_curves.c:578:10
	ldr	r1, __arm_cp.15_0
	movs	r2, #1
	.loc	3 576 10                        @ ../../../ThirdParty/mbedTLS/library/ecp_curves.c:576:10
	str	r2, [r0]
	.loc	3 577 10                        @ ../../../ThirdParty/mbedTLS/library/ecp_curves.c:577:10
	str	r2, [r0, #4]
	.loc	3 578 10                        @ ../../../ThirdParty/mbedTLS/library/ecp_curves.c:578:10
	str	r1, [r0, #8]
	.loc	3 579 1                         @ ../../../ThirdParty/mbedTLS/library/ecp_curves.c:579:1
	bx	lr
.Ltmp507:
	.p2align	2
@ %bb.1:
	.loc	3 0 1 is_stmt 0                 @ ../../../ThirdParty/mbedTLS/library/ecp_curves.c:0:1
__arm_cp.15_0:
	.long	ecp_mpi_set1.one
.Lcpi_end78:
	.size	__arm_cp.15_0, .Lcpi_end78-__arm_cp.15_0
.Lfunc_end15:
	.size	ecp_mpi_set1, .Lfunc_end15-ecp_mpi_set1
	.cfi_endproc
	.cantunwind
	.fnend
                                        @ -- End function
	.section	.text.add64,"ax",%progbits
	.p2align	1                               @ -- Begin function add64
	.type	add64,%function
	.code	16                              @ @add64
	.thumb_func
add64:
.Lfunc_begin16:
	.loc	3 870 0 is_stmt 1               @ ../../../ThirdParty/mbedTLS/library/ecp_curves.c:870:0
	.fnstart
	.cfi_startproc
@ %bb.0:
	@DEBUG_VALUE: add64:dst <- $r0
	@DEBUG_VALUE: add64:src <- $r1
	@DEBUG_VALUE: add64:carry <- $r2
	.save	{r4, r5, r6, r7, lr}
	push	{r4, r5, r6, r7, lr}
	.cfi_def_cfa_offset 20
	.cfi_offset lr, -4
	.cfi_offset r7, -8
	.cfi_offset r6, -12
	.cfi_offset r5, -16
	.cfi_offset r4, -20
	.pad	#8
	sub	sp, #8
	.cfi_def_cfa_offset 28
	str	r2, [sp]                        @ 4-byte Spill
.Ltmp508:
	@DEBUG_VALUE: add64:carry <- [$sp+0]
	movs	r3, #0
.Ltmp509:
	@DEBUG_VALUE: add64:i <- 0
	@DEBUG_VALUE: add64:c <- 0
	movs	r2, #1
	str	r2, [sp, #4]                    @ 4-byte Spill
	mov	r6, r3
	mov	r5, r3
	@DEBUG_VALUE: add64:src <- $r1
	@DEBUG_VALUE: add64:dst <- $r0
	b	.LBB16_2
.Ltmp510:
.LBB16_1:                               @   in Loop: Header=BB16_2 Depth=1
	@DEBUG_VALUE: add64:i <- $r5
	@DEBUG_VALUE: add64:carry <- [$sp+0]
	@DEBUG_VALUE: add64:src <- [DW_OP_LLVM_entry_value 1] $r1
	@DEBUG_VALUE: add64:dst <- [DW_OP_LLVM_entry_value 1] $r0
	.loc	3 875 14 prologue_end           @ ../../../ThirdParty/mbedTLS/library/ecp_curves.c:875:14
	adds	r2, r4, r6
	.loc	3 878 11                        @ ../../../ThirdParty/mbedTLS/library/ecp_curves.c:878:11
	adcs	r7, r3
.Ltmp511:
	@DEBUG_VALUE: add64:c <- $r7
	.loc	3 873 54                        @ ../../../ThirdParty/mbedTLS/library/ecp_curves.c:873:54
	adds	r2, r5, #1
.Ltmp512:
	@DEBUG_VALUE: add64:i <- $r2
	@DEBUG_VALUE: add64:src <- $r1
	@DEBUG_VALUE: add64:dst <- $r0
	.loc	3 873 5 is_stmt 0               @ ../../../ThirdParty/mbedTLS/library/ecp_curves.c:873:5
	cmp	r5, #0
	mov	r6, r7
	mov	r5, r2
.Ltmp513:
	@DEBUG_VALUE: add64:i <- $r5
	@DEBUG_VALUE: add64:i <- $r5
	bne	.LBB16_4
.Ltmp514:
.LBB16_2:                               @ =>This Inner Loop Header: Depth=1
	@DEBUG_VALUE: add64:src <- $r1
	@DEBUG_VALUE: add64:dst <- $r0
	@DEBUG_VALUE: add64:carry <- [$sp+0]
	@DEBUG_VALUE: add64:dst <- $r0
	@DEBUG_VALUE: add64:src <- $r1
	@DEBUG_VALUE: add64:c <- $r6
	@DEBUG_VALUE: add64:i <- $r5
	.loc	3 875 14 is_stmt 1              @ ../../../ThirdParty/mbedTLS/library/ecp_curves.c:875:14
	ldr	r4, [r0]
	adds	r7, r4, r6
	str	r7, [r0]
.Ltmp515:
	@DEBUG_VALUE: add64:c <- undef
	.loc	3 877 17                        @ ../../../ThirdParty/mbedTLS/library/ecp_curves.c:877:17
	ldr	r2, [r1]
	.loc	3 877 14 is_stmt 0              @ ../../../ThirdParty/mbedTLS/library/ecp_curves.c:877:14
	adds	r2, r2, r7
	stm	r0!, {r2}
.Ltmp516:
	@DEBUG_VALUE: add64:dst <- [DW_OP_LLVM_entry_value 1] $r0
	@DEBUG_VALUE: add64:dst <- [DW_OP_LLVM_entry_value 1] $r0
	.loc	3 878 23 is_stmt 1              @ ../../../ThirdParty/mbedTLS/library/ecp_curves.c:878:23
	ldm	r1!, {r7}
.Ltmp517:
	@DEBUG_VALUE: add64:src <- [DW_OP_LLVM_entry_value 1] $r1
	@DEBUG_VALUE: add64:src <- [DW_OP_LLVM_entry_value 1] $r1
	.loc	3 878 21 is_stmt 0              @ ../../../ThirdParty/mbedTLS/library/ecp_curves.c:878:21
	cmp	r2, r7
	ldr	r7, [sp, #4]                    @ 4-byte Reload
	blo	.LBB16_1
.Ltmp518:
@ %bb.3:                                @   in Loop: Header=BB16_2 Depth=1
	@DEBUG_VALUE: add64:i <- $r5
	@DEBUG_VALUE: add64:carry <- [$sp+0]
	@DEBUG_VALUE: add64:src <- [DW_OP_LLVM_entry_value 1] $r1
	@DEBUG_VALUE: add64:dst <- [DW_OP_LLVM_entry_value 1] $r0
	mov	r7, r3
	b	.LBB16_1
.Ltmp519:
.LBB16_4:
	@DEBUG_VALUE: add64:c <- $r7
	@DEBUG_VALUE: add64:i <- $r5
	@DEBUG_VALUE: add64:src <- $r1
	@DEBUG_VALUE: add64:dst <- $r0
	@DEBUG_VALUE: add64:carry <- [$sp+0]
	@DEBUG_VALUE: add64:c <- $r7
	.loc	3 0 21                          @ ../../../ThirdParty/mbedTLS/library/ecp_curves.c:0:21
	ldr	r1, [sp]                        @ 4-byte Reload
.Ltmp520:
	@DEBUG_VALUE: add64:src <- [DW_OP_LLVM_entry_value 1] $r1
	.loc	3 880 12 is_stmt 1              @ ../../../ThirdParty/mbedTLS/library/ecp_curves.c:880:12
	ldr	r0, [r1]
.Ltmp521:
	@DEBUG_VALUE: add64:dst <- [DW_OP_LLVM_entry_value 1] $r0
	adds	r0, r0, r7
	str	r0, [r1]
	.loc	3 881 1                         @ ../../../ThirdParty/mbedTLS/library/ecp_curves.c:881:1
	add	sp, #8
.Ltmp522:
	pop	{r4, r5, r6, r7, pc}
.Ltmp523:
.Lfunc_end16:
	.size	add64, .Lfunc_end16-add64
	.cfi_endproc
	.cantunwind
	.fnend
                                        @ -- End function
	.section	.text.carry64,"ax",%progbits
	.p2align	1                               @ -- Begin function carry64
	.type	carry64,%function
	.code	16                              @ @carry64
	.thumb_func
carry64:
.Lfunc_begin17:
	.loc	3 885 0                         @ ../../../ThirdParty/mbedTLS/library/ecp_curves.c:885:0
	.fnstart
	.cfi_startproc
@ %bb.0:
	@DEBUG_VALUE: carry64:dst <- $r0
	@DEBUG_VALUE: carry64:carry <- $r1
	@DEBUG_VALUE: carry64:carry <- $r1
	.save	{r4, r5, r6, lr}
	push	{r4, r5, r6, lr}
	.cfi_def_cfa_offset 16
	.cfi_offset lr, -4
	.cfi_offset r6, -8
	.cfi_offset r5, -12
	.cfi_offset r4, -16
	movs	r2, #0
.Ltmp524:
	@DEBUG_VALUE: carry64:i <- 0
	movs	r3, #1
	mov	r4, r2
	@DEBUG_VALUE: carry64:dst <- $r0
	b	.LBB17_2
.Ltmp525:
.LBB17_1:                               @   in Loop: Header=BB17_2 Depth=1
	@DEBUG_VALUE: carry64:i <- $r4
	@DEBUG_VALUE: carry64:carry <- $r1
	@DEBUG_VALUE: carry64:dst <- [DW_OP_LLVM_entry_value 1] $r0
	.loc	3 890 17 prologue_end           @ ../../../ThirdParty/mbedTLS/library/ecp_curves.c:890:17
	str	r5, [r1]
.Ltmp526:
	.loc	3 887 54                        @ ../../../ThirdParty/mbedTLS/library/ecp_curves.c:887:54
	adds	r5, r4, #1
.Ltmp527:
	@DEBUG_VALUE: carry64:i <- $r5
	@DEBUG_VALUE: carry64:dst <- $r0
	.loc	3 887 5 is_stmt 0               @ ../../../ThirdParty/mbedTLS/library/ecp_curves.c:887:5
	cmp	r4, #0
	mov	r4, r5
.Ltmp528:
	@DEBUG_VALUE: carry64:i <- $r4
	@DEBUG_VALUE: carry64:i <- $r4
	bne	.LBB17_4
.Ltmp529:
.LBB17_2:                               @ =>This Inner Loop Header: Depth=1
	@DEBUG_VALUE: carry64:carry <- $r1
	@DEBUG_VALUE: carry64:dst <- $r0
	@DEBUG_VALUE: carry64:dst <- $r0
	@DEBUG_VALUE: carry64:i <- $r4
	.loc	3 889 17 is_stmt 1              @ ../../../ThirdParty/mbedTLS/library/ecp_curves.c:889:17
	ldr	r5, [r1]
	.loc	3 889 14 is_stmt 0              @ ../../../ThirdParty/mbedTLS/library/ecp_curves.c:889:14
	ldr	r6, [r0]
	adds	r5, r6, r5
	stm	r0!, {r5}
.Ltmp530:
	@DEBUG_VALUE: carry64:dst <- [DW_OP_LLVM_entry_value 1] $r0
	@DEBUG_VALUE: carry64:dst <- [DW_OP_LLVM_entry_value 1] $r0
	.loc	3 890 28 is_stmt 1              @ ../../../ThirdParty/mbedTLS/library/ecp_curves.c:890:28
	ldr	r6, [r1]
	.loc	3 890 26 is_stmt 0              @ ../../../ThirdParty/mbedTLS/library/ecp_curves.c:890:26
	cmp	r5, r6
	mov	r5, r3
	blo	.LBB17_1
.Ltmp531:
@ %bb.3:                                @   in Loop: Header=BB17_2 Depth=1
	@DEBUG_VALUE: carry64:i <- $r4
	@DEBUG_VALUE: carry64:carry <- $r1
	@DEBUG_VALUE: carry64:dst <- [DW_OP_LLVM_entry_value 1] $r0
	mov	r5, r2
	b	.LBB17_1
.Ltmp532:
.LBB17_4:
	@DEBUG_VALUE: carry64:i <- $r4
	@DEBUG_VALUE: carry64:carry <- $r1
	@DEBUG_VALUE: carry64:dst <- $r0
	.loc	3 892 1 is_stmt 1               @ ../../../ThirdParty/mbedTLS/library/ecp_curves.c:892:1
	pop	{r4, r5, r6, pc}
.Ltmp533:
.Lfunc_end17:
	.size	carry64, .Lfunc_end17-carry64
	.cfi_endproc
	.cantunwind
	.fnend
                                        @ -- End function
	.section	.text.sub32,"ax",%progbits
	.p2align	1                               @ -- Begin function sub32
	.type	sub32,%function
	.code	16                              @ @sub32
	.thumb_func
sub32:
.Lfunc_begin18:
	.loc	3 989 0                         @ ../../../ThirdParty/mbedTLS/library/ecp_curves.c:989:0
	.fnstart
	.cfi_startproc
@ %bb.0:
	@DEBUG_VALUE: sub32:dst <- $r0
	@DEBUG_VALUE: sub32:dst <- $r0
	@DEBUG_VALUE: sub32:src <- $r1
	@DEBUG_VALUE: sub32:src <- $r1
	@DEBUG_VALUE: sub32:carry <- $r2
	@DEBUG_VALUE: sub32:carry <- $r2
	.save	{r4, lr}
	push	{r4, lr}
	.cfi_def_cfa_offset 8
	.cfi_offset lr, -4
	.cfi_offset r4, -8
.Ltmp534:
	.loc	3 990 17 prologue_end           @ ../../../ThirdParty/mbedTLS/library/ecp_curves.c:990:17
	ldr	r4, [r0]
	.loc	3 990 12 is_stmt 0              @ ../../../ThirdParty/mbedTLS/library/ecp_curves.c:990:12
	ldrb	r3, [r2]
	cmp	r4, r1
	bhs	.LBB18_2
.Ltmp535:
@ %bb.1:
	@DEBUG_VALUE: sub32:carry <- $r2
	@DEBUG_VALUE: sub32:src <- $r1
	@DEBUG_VALUE: sub32:dst <- $r0
	.loc	3 0 12                          @ ../../../ThirdParty/mbedTLS/library/ecp_curves.c:0:12
	subs	r3, r3, #1
.Ltmp536:
.LBB18_2:
	@DEBUG_VALUE: sub32:carry <- $r2
	@DEBUG_VALUE: sub32:src <- $r1
	@DEBUG_VALUE: sub32:dst <- $r0
	.loc	3 990 12                        @ ../../../ThirdParty/mbedTLS/library/ecp_curves.c:990:12
	strb	r3, [r2]
	.loc	3 991 10 is_stmt 1              @ ../../../ThirdParty/mbedTLS/library/ecp_curves.c:991:10
	ldr	r2, [r0]
.Ltmp537:
	@DEBUG_VALUE: sub32:carry <- [DW_OP_LLVM_entry_value 1] $r2
	subs	r1, r2, r1
.Ltmp538:
	@DEBUG_VALUE: sub32:src <- [DW_OP_LLVM_entry_value 1] $r1
	str	r1, [r0]
	.loc	3 992 1                         @ ../../../ThirdParty/mbedTLS/library/ecp_curves.c:992:1
	pop	{r4, pc}
.Ltmp539:
.Lfunc_end18:
	.size	sub32, .Lfunc_end18-sub32
	.cfi_endproc
	.cantunwind
	.fnend
                                        @ -- End function
	.section	.text.add32,"ax",%progbits
	.p2align	1                               @ -- Begin function add32
	.type	add32,%function
	.code	16                              @ @add32
	.thumb_func
add32:
.Lfunc_begin19:
	.loc	3 983 0                         @ ../../../ThirdParty/mbedTLS/library/ecp_curves.c:983:0
	.fnstart
	.cfi_startproc
@ %bb.0:
	@DEBUG_VALUE: add32:dst <- $r0
	@DEBUG_VALUE: add32:dst <- $r0
	@DEBUG_VALUE: add32:src <- $r1
	@DEBUG_VALUE: add32:src <- $r1
	@DEBUG_VALUE: add32:carry <- $r2
	@DEBUG_VALUE: add32:carry <- $r2
	.save	{r4, lr}
	push	{r4, lr}
	.cfi_def_cfa_offset 8
	.cfi_offset lr, -4
	.cfi_offset r4, -8
.Ltmp540:
	.loc	3 984 10 prologue_end           @ ../../../ThirdParty/mbedTLS/library/ecp_curves.c:984:10
	ldr	r3, [r0]
	movs	r4, #0
	adds	r1, r3, r1
.Ltmp541:
	@DEBUG_VALUE: add32:src <- [DW_OP_LLVM_entry_value 1] $r1
	str	r1, [r0]
	.loc	3 985 12                        @ ../../../ThirdParty/mbedTLS/library/ecp_curves.c:985:12
	ldrb	r0, [r2]
.Ltmp542:
	@DEBUG_VALUE: add32:dst <- [DW_OP_LLVM_entry_value 1] $r0
	adcs	r0, r4
	strb	r0, [r2]
	.loc	3 986 1                         @ ../../../ThirdParty/mbedTLS/library/ecp_curves.c:986:1
	pop	{r4, pc}
.Ltmp543:
.Lfunc_end19:
	.size	add32, .Lfunc_end19-add32
	.cfi_endproc
	.cantunwind
	.fnend
                                        @ -- End function
	.section	.text.fix_negative,"ax",%progbits
	.p2align	1                               @ -- Begin function fix_negative
	.type	fix_negative,%function
	.code	16                              @ @fix_negative
	.thumb_func
fix_negative:
.Lfunc_begin20:
	.loc	3 1036 0                        @ ../../../ThirdParty/mbedTLS/library/ecp_curves.c:1036:0
	.fnstart
	.cfi_startproc
@ %bb.0:
	@DEBUG_VALUE: fix_negative:N <- $r0
	@DEBUG_VALUE: fix_negative:c <- $r1
	@DEBUG_VALUE: fix_negative:C <- $r2
	.save	{r4, lr}
	push	{r4, lr}
	.cfi_def_cfa_offset 8
	.cfi_offset lr, -4
	.cfi_offset r4, -8
	mov	r4, r0
	@DEBUG_VALUE: fix_negative:bits <- undef
	@DEBUG_VALUE: fix_negative:C <- $r2
	@DEBUG_VALUE: fix_negative:c <- $r1
.Ltmp544:
	@DEBUG_VALUE: fix_negative:N <- $r4
	.loc	3 1047 14 prologue_end          @ ../../../ThirdParty/mbedTLS/library/ecp_curves.c:1047:14
	ldr	r0, [r2, #4]
	.loc	3 1047 8 is_stmt 0              @ ../../../ThirdParty/mbedTLS/library/ecp_curves.c:1047:8
	ldr	r3, [r2, #8]
	.loc	3 1047 16                       @ ../../../ThirdParty/mbedTLS/library/ecp_curves.c:1047:16
	lsls	r0, r0, #2
	.loc	3 1047 5                        @ ../../../ThirdParty/mbedTLS/library/ecp_curves.c:1047:5
	adds	r0, r0, r3
	subs	r0, r0, #4
	.loc	3 1047 43                       @ ../../../ThirdParty/mbedTLS/library/ecp_curves.c:1047:43
	rsbs	r1, r1, #0
.Ltmp545:
	@DEBUG_VALUE: fix_negative:c <- [DW_OP_LLVM_entry_value 1] $r1
	.loc	3 1047 22                       @ ../../../ThirdParty/mbedTLS/library/ecp_curves.c:1047:22
	str	r1, [r0]
.Ltmp546:
	.loc	3 1050 5 is_stmt 1              @ ../../../ThirdParty/mbedTLS/library/ecp_curves.c:1050:5
	mov	r0, r4
	mov	r1, r2
	mov	r2, r4
.Ltmp547:
	@DEBUG_VALUE: fix_negative:C <- [DW_OP_LLVM_entry_value 1] $r2
	bl	mbedtls_mpi_sub_abs
.Ltmp548:
	@DEBUG_VALUE: fix_negative:ret <- $r0
	.loc	3 1050 5 is_stmt 0              @ ../../../ThirdParty/mbedTLS/library/ecp_curves.c:1050:5
	cbz	r0, .LBB20_2
.Ltmp549:
@ %bb.1:
	@DEBUG_VALUE: fix_negative:N <- $r4
	@DEBUG_VALUE: fix_negative:ret <- $r0
	@DEBUG_VALUE: fix_negative:C <- [DW_OP_LLVM_entry_value 1] $r2
	@DEBUG_VALUE: fix_negative:c <- [DW_OP_LLVM_entry_value 1] $r1
	@DEBUG_LABEL: fix_negative:cleanup
	.loc	3 1055 5 is_stmt 1              @ ../../../ThirdParty/mbedTLS/library/ecp_curves.c:1055:5
	pop	{r4, pc}
.Ltmp550:
.LBB20_2:
	@DEBUG_VALUE: fix_negative:N <- $r4
	@DEBUG_VALUE: fix_negative:ret <- $r0
	@DEBUG_VALUE: fix_negative:C <- [DW_OP_LLVM_entry_value 1] $r2
	@DEBUG_VALUE: fix_negative:c <- [DW_OP_LLVM_entry_value 1] $r1
	.loc	3 0 5 is_stmt 0                 @ ../../../ThirdParty/mbedTLS/library/ecp_curves.c:0:5
	movs	r0, #0
.Ltmp551:
	mvns	r0, r0
	.loc	3 1051 10 is_stmt 1             @ ../../../ThirdParty/mbedTLS/library/ecp_curves.c:1051:10
	str	r0, [r4]
.Ltmp552:
	@DEBUG_LABEL: fix_negative:cleanup
	.loc	3 1055 5                        @ ../../../ThirdParty/mbedTLS/library/ecp_curves.c:1055:5
	pop	{r4, pc}
.Ltmp553:
.Lfunc_end20:
	.size	fix_negative, .Lfunc_end20-fix_negative
	.cfi_endproc
	.cantunwind
	.fnend
                                        @ -- End function
	.section	.text.ecp_mod_koblitz,"ax",%progbits
	.p2align	1                               @ -- Begin function ecp_mod_koblitz
	.type	ecp_mod_koblitz,%function
	.code	16                              @ @ecp_mod_koblitz
	.thumb_func
ecp_mod_koblitz:
.Lfunc_begin21:
	.loc	3 1480 0                        @ ../../../ThirdParty/mbedTLS/library/ecp_curves.c:1480:0
	.fnstart
	.cfi_startproc
@ %bb.0:
	@DEBUG_VALUE: ecp_mod_koblitz:N <- $r0
	@DEBUG_VALUE: ecp_mod_koblitz:Rp <- $r1
	@DEBUG_VALUE: ecp_mod_koblitz:p_limbs <- $r2
	@DEBUG_VALUE: ecp_mod_koblitz:mask <- 0
	@DEBUG_VALUE: ecp_mod_koblitz:shift <- 0
	@DEBUG_VALUE: ecp_mod_koblitz:adjust <- 0
	@DEBUG_VALUE: ecp_mod_koblitz:p_limbs <- $r2
	@DEBUG_VALUE: ecp_mod_koblitz:Rp <- $r1
	@DEBUG_VALUE: ecp_mod_koblitz:N <- $r0
	.save	{r4, r5, r6, r7, lr}
	push	{r4, r5, r6, r7, lr}
	.cfi_def_cfa_offset 20
	.cfi_offset lr, -4
	.cfi_offset r7, -8
	.cfi_offset r6, -12
	.cfi_offset r5, -16
	.cfi_offset r4, -20
	.pad	#76
	sub	sp, #76
	.cfi_def_cfa_offset 96
.Ltmp554:
	.loc	3 1486 12 prologue_end          @ ../../../ThirdParty/mbedTLS/library/ecp_curves.c:1486:12
	ldr	r3, [r0, #4]
.Ltmp555:
	.loc	3 1486 9 is_stmt 0              @ ../../../ThirdParty/mbedTLS/library/ecp_curves.c:1486:9
	cmp	r3, r2
	bhs	.LBB21_2
.Ltmp556:
@ %bb.1:
	@DEBUG_VALUE: ecp_mod_koblitz:p_limbs <- $r2
	@DEBUG_VALUE: ecp_mod_koblitz:Rp <- $r1
	@DEBUG_VALUE: ecp_mod_koblitz:N <- $r0
	@DEBUG_VALUE: ecp_mod_koblitz:adjust <- 0
	@DEBUG_VALUE: ecp_mod_koblitz:shift <- 0
	@DEBUG_VALUE: ecp_mod_koblitz:mask <- 0
	.loc	3 0 9                           @ ../../../ThirdParty/mbedTLS/library/ecp_curves.c:0:9
	movs	r0, #0
.Ltmp557:
	@DEBUG_VALUE: ecp_mod_koblitz:N <- [DW_OP_LLVM_entry_value 1] $r0
	.loc	3 1542 1 is_stmt 1              @ ../../../ThirdParty/mbedTLS/library/ecp_curves.c:1542:1
	add	sp, #76
	pop	{r4, r5, r6, r7, pc}
.Ltmp558:
.LBB21_2:
	@DEBUG_VALUE: ecp_mod_koblitz:p_limbs <- $r2
	@DEBUG_VALUE: ecp_mod_koblitz:Rp <- $r1
	@DEBUG_VALUE: ecp_mod_koblitz:N <- $r0
	@DEBUG_VALUE: ecp_mod_koblitz:adjust <- 0
	@DEBUG_VALUE: ecp_mod_koblitz:shift <- 0
	@DEBUG_VALUE: ecp_mod_koblitz:mask <- 0
	.loc	3 0 1 is_stmt 0                 @ ../../../ThirdParty/mbedTLS/library/ecp_curves.c:0:1
	mov	r5, r2
.Ltmp559:
	@DEBUG_VALUE: ecp_mod_koblitz:p_limbs <- $r5
	mov	r4, r0
.Ltmp560:
	@DEBUG_VALUE: ecp_mod_koblitz:N <- $r4
	.loc	3 1491 9 is_stmt 1              @ ../../../ThirdParty/mbedTLS/library/ecp_curves.c:1491:9
	str	r1, [sp, #60]
	movs	r1, #1
.Ltmp561:
	@DEBUG_VALUE: ecp_mod_koblitz:Rp <- [DW_OP_LLVM_entry_value 1] $r1
	.loc	3 1490 9                        @ ../../../ThirdParty/mbedTLS/library/ecp_curves.c:1490:9
	str	r1, [sp, #52]
	movs	r2, #2
	.loc	3 1492 9                        @ ../../../ThirdParty/mbedTLS/library/ecp_curves.c:1492:9
	str	r2, [sp, #56]
	add	r0, sp, #8
	.loc	3 1496 9                        @ ../../../ThirdParty/mbedTLS/library/ecp_curves.c:1496:9
	str	r0, [sp, #72]
	.loc	3 1495 9                        @ ../../../ThirdParty/mbedTLS/library/ecp_curves.c:1495:9
	str	r1, [sp, #64]
	.loc	3 1499 16                       @ ../../../ThirdParty/mbedTLS/library/ecp_curves.c:1499:16
	subs	r1, r3, r5
	.loc	3 1500 9                        @ ../../../ThirdParty/mbedTLS/library/ecp_curves.c:1500:9
	cmp	r1, r5
	mov	r7, r5
	bhi	.LBB21_4
.Ltmp562:
@ %bb.3:
	@DEBUG_VALUE: ecp_mod_koblitz:p_limbs <- $r5
	@DEBUG_VALUE: ecp_mod_koblitz:N <- $r4
	@DEBUG_VALUE: ecp_mod_koblitz:Rp <- [DW_OP_LLVM_entry_value 1] $r1
	@DEBUG_VALUE: ecp_mod_koblitz:adjust <- 0
	@DEBUG_VALUE: ecp_mod_koblitz:shift <- 0
	@DEBUG_VALUE: ecp_mod_koblitz:mask <- 0
	mov	r7, r1
.Ltmp563:
.LBB21_4:
	@DEBUG_VALUE: ecp_mod_koblitz:p_limbs <- $r5
	@DEBUG_VALUE: ecp_mod_koblitz:N <- $r4
	@DEBUG_VALUE: ecp_mod_koblitz:Rp <- [DW_OP_LLVM_entry_value 1] $r1
	@DEBUG_VALUE: ecp_mod_koblitz:adjust <- 0
	@DEBUG_VALUE: ecp_mod_koblitz:shift <- 0
	@DEBUG_VALUE: ecp_mod_koblitz:mask <- 0
	.loc	3 0 0 is_stmt 0                 @ ../../../ThirdParty/mbedTLS/library/ecp_curves.c:0:0
	str	r7, [sp, #68]
	movs	r1, #44
	str	r0, [sp, #4]                    @ 4-byte Spill
	.loc	3 1502 5 is_stmt 1              @ ../../../ThirdParty/mbedTLS/library/ecp_curves.c:1502:5
	bl	__aeabi_memclr4
	.loc	3 1503 22                       @ ../../../ThirdParty/mbedTLS/library/ecp_curves.c:1503:22
	lsls	r1, r5, #2
	.loc	3 1503 20 is_stmt 0             @ ../../../ThirdParty/mbedTLS/library/ecp_curves.c:1503:20
	ldr	r0, [r4, #8]
	str	r1, [sp]                        @ 4-byte Spill
	.loc	3 1503 22                       @ ../../../ThirdParty/mbedTLS/library/ecp_curves.c:1503:22
	adds	r6, r0, r1
	.loc	3 1503 46                       @ ../../../ThirdParty/mbedTLS/library/ecp_curves.c:1503:46
	lsls	r2, r7, #2
	.loc	3 1503 5                        @ ../../../ThirdParty/mbedTLS/library/ecp_curves.c:1503:5
	ldr	r0, [sp, #4]                    @ 4-byte Reload
	mov	r1, r6
	bl	__aeabi_memcpy4
	.loc	3 1506 9 is_stmt 1              @ ../../../ThirdParty/mbedTLS/library/ecp_curves.c:1506:9
	adds	r0, r7, #2
	str	r0, [sp, #68]
.Ltmp564:
	@DEBUG_VALUE: ecp_mod_koblitz:i <- $r5
	.loc	3 1511 30                       @ ../../../ThirdParty/mbedTLS/library/ecp_curves.c:1511:30
	ldr	r0, [r4, #4]
.Ltmp565:
	.loc	3 1511 5 is_stmt 0              @ ../../../ThirdParty/mbedTLS/library/ecp_curves.c:1511:5
	cmp	r0, r5
	bls	.LBB21_7
.Ltmp566:
@ %bb.5:
	@DEBUG_VALUE: ecp_mod_koblitz:i <- $r5
	@DEBUG_VALUE: ecp_mod_koblitz:p_limbs <- $r5
	@DEBUG_VALUE: ecp_mod_koblitz:N <- $r4
	@DEBUG_VALUE: ecp_mod_koblitz:Rp <- [DW_OP_LLVM_entry_value 1] $r1
	@DEBUG_VALUE: ecp_mod_koblitz:adjust <- 0
	@DEBUG_VALUE: ecp_mod_koblitz:shift <- 0
	@DEBUG_VALUE: ecp_mod_koblitz:mask <- 0
	.loc	3 0 5                           @ ../../../ThirdParty/mbedTLS/library/ecp_curves.c:0:5
	movs	r0, #0
	mov	r1, r5
.Ltmp567:
.LBB21_6:                               @ =>This Inner Loop Header: Depth=1
	@DEBUG_VALUE: ecp_mod_koblitz:p_limbs <- $r5
	@DEBUG_VALUE: ecp_mod_koblitz:N <- $r4
	@DEBUG_VALUE: ecp_mod_koblitz:Rp <- [DW_OP_LLVM_entry_value 1] $r1
	@DEBUG_VALUE: ecp_mod_koblitz:adjust <- 0
	@DEBUG_VALUE: ecp_mod_koblitz:shift <- 0
	@DEBUG_VALUE: ecp_mod_koblitz:mask <- 0
	@DEBUG_VALUE: ecp_mod_koblitz:i <- $r1
	.loc	3 1512 17 is_stmt 1             @ ../../../ThirdParty/mbedTLS/library/ecp_curves.c:1512:17
	stm	r6!, {r0}
	.loc	3 1511 34                       @ ../../../ThirdParty/mbedTLS/library/ecp_curves.c:1511:34
	adds	r1, r1, #1
.Ltmp568:
	@DEBUG_VALUE: ecp_mod_koblitz:i <- $r1
	.loc	3 1511 30 is_stmt 0             @ ../../../ThirdParty/mbedTLS/library/ecp_curves.c:1511:30
	ldr	r2, [r4, #4]
.Ltmp569:
	.loc	3 1511 5                        @ ../../../ThirdParty/mbedTLS/library/ecp_curves.c:1511:5
	cmp	r1, r2
	blo	.LBB21_6
.Ltmp570:
.LBB21_7:
	@DEBUG_VALUE: ecp_mod_koblitz:p_limbs <- $r5
	@DEBUG_VALUE: ecp_mod_koblitz:N <- $r4
	@DEBUG_VALUE: ecp_mod_koblitz:Rp <- [DW_OP_LLVM_entry_value 1] $r1
	@DEBUG_VALUE: ecp_mod_koblitz:adjust <- 0
	@DEBUG_VALUE: ecp_mod_koblitz:shift <- 0
	@DEBUG_VALUE: ecp_mod_koblitz:mask <- 0
	.loc	3 0 5                           @ ../../../ThirdParty/mbedTLS/library/ecp_curves.c:0:5
	add	r0, sp, #64
	add	r2, sp, #52
.Ltmp571:
	.loc	3 1515 5 is_stmt 1              @ ../../../ThirdParty/mbedTLS/library/ecp_curves.c:1515:5
	mov	r1, r0
	bl	mbedtls_mpi_mul_mpi
.Ltmp572:
	@DEBUG_VALUE: ecp_mod_koblitz:ret <- $r0
	.loc	3 1515 5 is_stmt 0              @ ../../../ThirdParty/mbedTLS/library/ecp_curves.c:1515:5
	cbz	r0, .LBB21_9
.Ltmp573:
.LBB21_8:
	@DEBUG_VALUE: ecp_mod_koblitz:N <- $r4
	@DEBUG_VALUE: ecp_mod_koblitz:ret <- $r0
	@DEBUG_VALUE: ecp_mod_koblitz:Rp <- [DW_OP_LLVM_entry_value 1] $r1
	@DEBUG_VALUE: ecp_mod_koblitz:adjust <- 0
	@DEBUG_VALUE: ecp_mod_koblitz:shift <- 0
	@DEBUG_VALUE: ecp_mod_koblitz:mask <- 0
	.loc	3 1542 1 is_stmt 1              @ ../../../ThirdParty/mbedTLS/library/ecp_curves.c:1542:1
	add	sp, #76
	pop	{r4, r5, r6, r7, pc}
.Ltmp574:
.LBB21_9:
	@DEBUG_VALUE: ecp_mod_koblitz:p_limbs <- $r5
	@DEBUG_VALUE: ecp_mod_koblitz:N <- $r4
	@DEBUG_VALUE: ecp_mod_koblitz:ret <- $r0
	@DEBUG_VALUE: ecp_mod_koblitz:Rp <- [DW_OP_LLVM_entry_value 1] $r1
	@DEBUG_VALUE: ecp_mod_koblitz:adjust <- 0
	@DEBUG_VALUE: ecp_mod_koblitz:shift <- 0
	@DEBUG_VALUE: ecp_mod_koblitz:mask <- 0
	.loc	3 0 1 is_stmt 0                 @ ../../../ThirdParty/mbedTLS/library/ecp_curves.c:0:1
	add	r2, sp, #64
.Ltmp575:
	.loc	3 1516 5 is_stmt 1              @ ../../../ThirdParty/mbedTLS/library/ecp_curves.c:1516:5
	mov	r0, r4
.Ltmp576:
	mov	r1, r4
	bl	mbedtls_mpi_add_abs
.Ltmp577:
	@DEBUG_VALUE: ecp_mod_koblitz:ret <- $r0
	.loc	3 1516 5 is_stmt 0              @ ../../../ThirdParty/mbedTLS/library/ecp_curves.c:1516:5
	cmp	r0, #0
	bne	.LBB21_8
.Ltmp578:
@ %bb.10:
	@DEBUG_VALUE: ecp_mod_koblitz:p_limbs <- $r5
	@DEBUG_VALUE: ecp_mod_koblitz:N <- $r4
	@DEBUG_VALUE: ecp_mod_koblitz:ret <- $r0
	@DEBUG_VALUE: ecp_mod_koblitz:Rp <- [DW_OP_LLVM_entry_value 1] $r1
	@DEBUG_VALUE: ecp_mod_koblitz:adjust <- 0
	@DEBUG_VALUE: ecp_mod_koblitz:shift <- 0
	@DEBUG_VALUE: ecp_mod_koblitz:mask <- 0
	.loc	3 1521 14 is_stmt 1             @ ../../../ThirdParty/mbedTLS/library/ecp_curves.c:1521:14
	ldr	r0, [r4, #4]
.Ltmp579:
	.loc	3 1521 16 is_stmt 0             @ ../../../ThirdParty/mbedTLS/library/ecp_curves.c:1521:16
	subs	r0, r0, r5
	.loc	3 1522 9 is_stmt 1              @ ../../../ThirdParty/mbedTLS/library/ecp_curves.c:1522:9
	cmp	r0, r5
	mov	r7, r5
	bhi	.LBB21_12
.Ltmp580:
@ %bb.11:
	@DEBUG_VALUE: ecp_mod_koblitz:p_limbs <- $r5
	@DEBUG_VALUE: ecp_mod_koblitz:N <- $r4
	@DEBUG_VALUE: ecp_mod_koblitz:Rp <- [DW_OP_LLVM_entry_value 1] $r1
	@DEBUG_VALUE: ecp_mod_koblitz:adjust <- 0
	@DEBUG_VALUE: ecp_mod_koblitz:shift <- 0
	@DEBUG_VALUE: ecp_mod_koblitz:mask <- 0
	mov	r7, r0
.Ltmp581:
.LBB21_12:
	@DEBUG_VALUE: ecp_mod_koblitz:p_limbs <- $r5
	@DEBUG_VALUE: ecp_mod_koblitz:N <- $r4
	@DEBUG_VALUE: ecp_mod_koblitz:Rp <- [DW_OP_LLVM_entry_value 1] $r1
	@DEBUG_VALUE: ecp_mod_koblitz:adjust <- 0
	@DEBUG_VALUE: ecp_mod_koblitz:shift <- 0
	@DEBUG_VALUE: ecp_mod_koblitz:mask <- 0
	.loc	3 0 0 is_stmt 0                 @ ../../../ThirdParty/mbedTLS/library/ecp_curves.c:0:0
	str	r7, [sp, #68]
	add	r0, sp, #8
	str	r0, [sp, #4]                    @ 4-byte Spill
	movs	r1, #44
	.loc	3 1524 5 is_stmt 1              @ ../../../ThirdParty/mbedTLS/library/ecp_curves.c:1524:5
	bl	__aeabi_memclr4
	.loc	3 1525 20                       @ ../../../ThirdParty/mbedTLS/library/ecp_curves.c:1525:20
	ldr	r0, [r4, #8]
	.loc	3 1525 22 is_stmt 0             @ ../../../ThirdParty/mbedTLS/library/ecp_curves.c:1525:22
	ldr	r1, [sp]                        @ 4-byte Reload
	adds	r6, r0, r1
	.loc	3 1525 46                       @ ../../../ThirdParty/mbedTLS/library/ecp_curves.c:1525:46
	lsls	r2, r7, #2
	.loc	3 1525 5                        @ ../../../ThirdParty/mbedTLS/library/ecp_curves.c:1525:5
	ldr	r0, [sp, #4]                    @ 4-byte Reload
	mov	r1, r6
	bl	__aeabi_memcpy4
	.loc	3 1528 14 is_stmt 1             @ ../../../ThirdParty/mbedTLS/library/ecp_curves.c:1528:14
	ldr	r0, [sp, #56]
	.loc	3 1528 9 is_stmt 0              @ ../../../ThirdParty/mbedTLS/library/ecp_curves.c:1528:9
	adds	r0, r0, r7
	str	r0, [sp, #68]
.Ltmp582:
	@DEBUG_VALUE: ecp_mod_koblitz:i <- $r5
	.loc	3 1533 30 is_stmt 1             @ ../../../ThirdParty/mbedTLS/library/ecp_curves.c:1533:30
	ldr	r0, [r4, #4]
.Ltmp583:
	.loc	3 1533 5 is_stmt 0              @ ../../../ThirdParty/mbedTLS/library/ecp_curves.c:1533:5
	cmp	r0, r5
	bls	.LBB21_15
.Ltmp584:
@ %bb.13:
	@DEBUG_VALUE: ecp_mod_koblitz:i <- $r5
	@DEBUG_VALUE: ecp_mod_koblitz:p_limbs <- $r5
	@DEBUG_VALUE: ecp_mod_koblitz:N <- $r4
	@DEBUG_VALUE: ecp_mod_koblitz:Rp <- [DW_OP_LLVM_entry_value 1] $r1
	@DEBUG_VALUE: ecp_mod_koblitz:adjust <- 0
	@DEBUG_VALUE: ecp_mod_koblitz:shift <- 0
	@DEBUG_VALUE: ecp_mod_koblitz:mask <- 0
	.loc	3 0 5                           @ ../../../ThirdParty/mbedTLS/library/ecp_curves.c:0:5
	movs	r0, #0
.Ltmp585:
.LBB21_14:                              @ =>This Inner Loop Header: Depth=1
	@DEBUG_VALUE: ecp_mod_koblitz:i <- $r5
	@DEBUG_VALUE: ecp_mod_koblitz:N <- $r4
	@DEBUG_VALUE: ecp_mod_koblitz:Rp <- [DW_OP_LLVM_entry_value 1] $r1
	@DEBUG_VALUE: ecp_mod_koblitz:adjust <- 0
	@DEBUG_VALUE: ecp_mod_koblitz:shift <- 0
	@DEBUG_VALUE: ecp_mod_koblitz:mask <- 0
	@DEBUG_VALUE: ecp_mod_koblitz:i <- $r5
	.loc	3 1534 17 is_stmt 1             @ ../../../ThirdParty/mbedTLS/library/ecp_curves.c:1534:17
	stm	r6!, {r0}
	.loc	3 1533 34                       @ ../../../ThirdParty/mbedTLS/library/ecp_curves.c:1533:34
	adds	r5, r5, #1
.Ltmp586:
	@DEBUG_VALUE: ecp_mod_koblitz:p_limbs <- [DW_OP_LLVM_entry_value 1] $r2
	@DEBUG_VALUE: ecp_mod_koblitz:i <- $r5
	.loc	3 1533 30 is_stmt 0             @ ../../../ThirdParty/mbedTLS/library/ecp_curves.c:1533:30
	ldr	r1, [r4, #4]
.Ltmp587:
	.loc	3 1533 5                        @ ../../../ThirdParty/mbedTLS/library/ecp_curves.c:1533:5
	cmp	r5, r1
	blo	.LBB21_14
.Ltmp588:
.LBB21_15:
	@DEBUG_VALUE: ecp_mod_koblitz:i <- $r5
	@DEBUG_VALUE: ecp_mod_koblitz:N <- $r4
	@DEBUG_VALUE: ecp_mod_koblitz:Rp <- [DW_OP_LLVM_entry_value 1] $r1
	@DEBUG_VALUE: ecp_mod_koblitz:adjust <- 0
	@DEBUG_VALUE: ecp_mod_koblitz:shift <- 0
	@DEBUG_VALUE: ecp_mod_koblitz:mask <- 0
	.loc	3 0 5                           @ ../../../ThirdParty/mbedTLS/library/ecp_curves.c:0:5
	add	r0, sp, #64
	add	r2, sp, #52
.Ltmp589:
	.loc	3 1537 5 is_stmt 1              @ ../../../ThirdParty/mbedTLS/library/ecp_curves.c:1537:5
	mov	r1, r0
	bl	mbedtls_mpi_mul_mpi
.Ltmp590:
	@DEBUG_VALUE: ecp_mod_koblitz:ret <- $r0
	.loc	3 1537 5 is_stmt 0              @ ../../../ThirdParty/mbedTLS/library/ecp_curves.c:1537:5
	cmp	r0, #0
	bne	.LBB21_8
.Ltmp591:
@ %bb.16:
	@DEBUG_VALUE: ecp_mod_koblitz:i <- $r5
	@DEBUG_VALUE: ecp_mod_koblitz:N <- $r4
	@DEBUG_VALUE: ecp_mod_koblitz:ret <- $r0
	@DEBUG_VALUE: ecp_mod_koblitz:Rp <- [DW_OP_LLVM_entry_value 1] $r1
	@DEBUG_VALUE: ecp_mod_koblitz:adjust <- 0
	@DEBUG_VALUE: ecp_mod_koblitz:shift <- 0
	@DEBUG_VALUE: ecp_mod_koblitz:mask <- 0
	.loc	3 0 5                           @ ../../../ThirdParty/mbedTLS/library/ecp_curves.c:0:5
	add	r2, sp, #64
.Ltmp592:
	.loc	3 1538 5 is_stmt 1              @ ../../../ThirdParty/mbedTLS/library/ecp_curves.c:1538:5
	mov	r0, r4
.Ltmp593:
	mov	r1, r4
	bl	mbedtls_mpi_add_abs
.Ltmp594:
	@DEBUG_VALUE: ecp_mod_koblitz:ret <- $r0
	.loc	3 1542 1                        @ ../../../ThirdParty/mbedTLS/library/ecp_curves.c:1542:1
	add	sp, #76
	pop	{r4, r5, r6, r7, pc}
.Ltmp595:
.Lfunc_end21:
	.size	ecp_mod_koblitz, .Lfunc_end21-ecp_mod_koblitz
	.cfi_endproc
	.cantunwind
	.fnend
                                        @ -- End function
	.type	secp192r1_p,%object             @ @secp192r1_p
	.section	.rodata.secp192r1_p,"a",%progbits
	.p2align	2
secp192r1_p:
	.long	4294967295                      @ 0xffffffff
	.long	4294967295                      @ 0xffffffff
	.long	4294967294                      @ 0xfffffffe
	.long	4294967295                      @ 0xffffffff
	.long	4294967295                      @ 0xffffffff
	.long	4294967295                      @ 0xffffffff
	.size	secp192r1_p, 24

	.type	secp192r1_b,%object             @ @secp192r1_b
	.section	.rodata.secp192r1_b,"a",%progbits
	.p2align	2
secp192r1_b:
	.long	3242637745                      @ 0xc146b9b1
	.long	4273528556                      @ 0xfeb8deec
	.long	1914974281                      @ 0x72243049
	.long	262662571                       @ 0xfa7e9ab
	.long	3852239079                      @ 0xe59c80e7
	.long	1679885593                      @ 0x64210519
	.size	secp192r1_b, 24

	.type	secp192r1_gx,%object            @ @secp192r1_gx
	.section	.rodata.secp192r1_gx,"a",%progbits
	.p2align	2
secp192r1_gx:
	.long	2197753874                      @ 0x82ff1012
	.long	4110355197                      @ 0xf4ff0afd
	.long	1134659584                      @ 0x43a18800
	.long	2092900587                      @ 0x7cbf20eb
	.long	2955972854                      @ 0xb03090f6
	.long	411936782                       @ 0x188da80e
	.size	secp192r1_gx, 24

	.type	secp192r1_gy,%object            @ @secp192r1_gy
	.section	.rodata.secp192r1_gy,"a",%progbits
	.p2align	2
secp192r1_gy:
	.long	511264785                       @ 0x1e794811
	.long	1945728929                      @ 0x73f977a1
	.long	1797574101                      @ 0x6b24cdd5
	.long	1661997549                      @ 0x631011ed
	.long	4291353208                      @ 0xffc8da78
	.long	119090069                       @ 0x7192b95
	.size	secp192r1_gy, 24

	.type	secp192r1_n,%object             @ @secp192r1_n
	.section	.rodata.secp192r1_n,"a",%progbits
	.p2align	2
secp192r1_n:
	.long	3033671729                      @ 0xb4d22831
	.long	342608305                       @ 0x146bc9b1
	.long	2581526582                      @ 0x99def836
	.long	4294967295                      @ 0xffffffff
	.long	4294967295                      @ 0xffffffff
	.long	4294967295                      @ 0xffffffff
	.size	secp192r1_n, 24

	.type	secp224r1_p,%object             @ @secp224r1_p
	.section	.rodata.secp224r1_p,"a",%progbits
	.p2align	2
secp224r1_p:
	.long	1                               @ 0x1
	.long	0                               @ 0x0
	.long	0                               @ 0x0
	.long	4294967295                      @ 0xffffffff
	.long	4294967295                      @ 0xffffffff
	.long	4294967295                      @ 0xffffffff
	.long	4294967295                      @ 0xffffffff
	.long	0                               @ 0x0
	.size	secp224r1_p, 32

	.type	secp224r1_b,%object             @ @secp224r1_b
	.section	.rodata.secp224r1_b,"a",%progbits
	.p2align	2
secp224r1_b:
	.long	592838580                       @ 0x2355ffb4
	.long	655046979                       @ 0x270b3943
	.long	3619674298                      @ 0xd7bfd8ba
	.long	1346678967                      @ 0x5044b0b7
	.long	4114690646                      @ 0xf5413256
	.long	201634731                       @ 0xc04b3ab
	.long	3020229253                      @ 0xb4050a85
	.size	secp224r1_b, 28

	.type	secp224r1_gx,%object            @ @secp224r1_gx
	.section	.rodata.secp224r1_gx,"a",%progbits
	.p2align	2
secp224r1_gx:
	.long	291249441                       @ 0x115c1d21
	.long	875725014                       @ 0x343280d6
	.long	1455558946                      @ 0x56c21122
	.long	1241760211                      @ 0x4a03c1d3
	.long	840143033                       @ 0x321390b9
	.long	1807007615                      @ 0x6bb4bf7f
	.long	3071151293                      @ 0xb70e0cbd
	.size	secp224r1_gx, 28

	.type	secp224r1_gy,%object            @ @secp224r1_gy
	.section	.rodata.secp224r1_gy,"a",%progbits
	.p2align	2
secp224r1_gy:
	.long	2231402036                      @ 0x85007e34
	.long	1154843033                      @ 0x44d58199
	.long	1510426468                      @ 0x5a074764
	.long	3443750304                      @ 0xcd4375a0
	.long	1277353958                      @ 0x4c22dfe6
	.long	3052872699                      @ 0xb5f723fb
	.long	3174523784                      @ 0xbd376388
	.size	secp224r1_gy, 28

	.type	secp224r1_n,%object             @ @secp224r1_n
	.section	.rodata.secp224r1_n,"a",%progbits
	.p2align	2
secp224r1_n:
	.long	1549543997                      @ 0x5c5c2a3d
	.long	333261125                       @ 0x13dd2945
	.long	3770216510                      @ 0xe0b8f03e
	.long	4294907554                      @ 0xffff16a2
	.long	4294967295                      @ 0xffffffff
	.long	4294967295                      @ 0xffffffff
	.long	4294967295                      @ 0xffffffff
	.size	secp224r1_n, 28

	.type	secp256r1_p,%object             @ @secp256r1_p
	.section	.rodata.secp256r1_p,"a",%progbits
	.p2align	2
secp256r1_p:
	.long	4294967295                      @ 0xffffffff
	.long	4294967295                      @ 0xffffffff
	.long	4294967295                      @ 0xffffffff
	.long	0                               @ 0x0
	.long	0                               @ 0x0
	.long	0                               @ 0x0
	.long	1                               @ 0x1
	.long	4294967295                      @ 0xffffffff
	.size	secp256r1_p, 32

	.type	secp256r1_b,%object             @ @secp256r1_b
	.section	.rodata.secp256r1_b,"a",%progbits
	.p2align	2
secp256r1_b:
	.long	668098635                       @ 0x27d2604b
	.long	1003371582                      @ 0x3bce3c3e
	.long	3428036854                      @ 0xcc53b0f6
	.long	1696401072                      @ 0x651d06b0
	.long	1989707452                      @ 0x769886bc
	.long	3018571093                      @ 0xb3ebbd55
	.long	2855965671                      @ 0xaa3a93e7
	.long	1522939352                      @ 0x5ac635d8
	.size	secp256r1_b, 32

	.type	secp256r1_gx,%object            @ @secp256r1_gx
	.section	.rodata.secp256r1_gx,"a",%progbits
	.p2align	2
secp256r1_gx:
	.long	3633889942                      @ 0xd898c296
	.long	4104206661                      @ 0xf4a13945
	.long	770388896                       @ 0x2deb33a0
	.long	1996717441                      @ 0x77037d81
	.long	1671708914                      @ 0x63a440f2
	.long	4173129445                      @ 0xf8bce6e5
	.long	3777774151                      @ 0xe12c4247
	.long	1796723186                      @ 0x6b17d1f2
	.size	secp256r1_gx, 32

	.type	secp256r1_gy,%object            @ @secp256r1_gy
	.section	.rodata.secp256r1_gy,"a",%progbits
	.p2align	2
secp256r1_gy:
	.long	935285237                       @ 0x37bf51f5
	.long	3417718888                      @ 0xcbb64068
	.long	1798397646                      @ 0x6b315ece
	.long	734933847                       @ 0x2bce3357
	.long	2081398294                      @ 0x7c0f9e16
	.long	2397563722                      @ 0x8ee7eb4a
	.long	4263149467                      @ 0xfe1a7f9b
	.long	1340293858                      @ 0x4fe342e2
	.size	secp256r1_gy, 32

	.type	secp256r1_n,%object             @ @secp256r1_n
	.section	.rodata.secp256r1_n,"a",%progbits
	.p2align	2
secp256r1_n:
	.long	4234356049                      @ 0xfc632551
	.long	4089039554                      @ 0xf3b9cac2
	.long	2803342980                      @ 0xa7179e84
	.long	3169254061                      @ 0xbce6faad
	.long	4294967295                      @ 0xffffffff
	.long	4294967295                      @ 0xffffffff
	.long	0                               @ 0x0
	.long	4294967295                      @ 0xffffffff
	.size	secp256r1_n, 32

	.type	secp384r1_p,%object             @ @secp384r1_p
	.section	.rodata.secp384r1_p,"a",%progbits
	.p2align	2
secp384r1_p:
	.long	4294967295                      @ 0xffffffff
	.long	0                               @ 0x0
	.long	0                               @ 0x0
	.long	4294967295                      @ 0xffffffff
	.long	4294967294                      @ 0xfffffffe
	.long	4294967295                      @ 0xffffffff
	.long	4294967295                      @ 0xffffffff
	.long	4294967295                      @ 0xffffffff
	.long	4294967295                      @ 0xffffffff
	.long	4294967295                      @ 0xffffffff
	.long	4294967295                      @ 0xffffffff
	.long	4294967295                      @ 0xffffffff
	.size	secp384r1_p, 48

	.type	secp384r1_b,%object             @ @secp384r1_b
	.section	.rodata.secp384r1_b,"a",%progbits
	.p2align	2
secp384r1_b:
	.long	3555470063                      @ 0xd3ec2aef
	.long	713410797                       @ 0x2a85c8ed
	.long	2318324125                      @ 0x8a2ed19d
	.long	3327539597                      @ 0xc656398d
	.long	1343457114                      @ 0x5013875a
	.long	51644559                        @ 0x314088f
	.long	4269883666                      @ 0xfe814112
	.long	404593774                       @ 0x181d9c6e
	.long	3824692505                      @ 0xe3f82d19
	.long	2559444331                      @ 0x988e056b
	.long	3795773412                      @ 0xe23ee7e4
	.long	3006345127                      @ 0xb3312fa7
	.size	secp384r1_b, 48

	.type	secp384r1_gx,%object            @ @secp384r1_gx
	.section	.rodata.secp384r1_gx,"a",%progbits
	.p2align	2
secp384r1_gx:
	.long	1920338615                      @ 0x72760ab7
	.long	978607672                       @ 0x3a545e38
	.long	3210029420                      @ 0xbf55296c
	.long	1426256477                      @ 0x5502f25d
	.long	2186553912                      @ 0x82542a38
	.long	1509376480                      @ 0x59f741e0
	.long	2343017368                      @ 0x8ba79b98
	.long	1847409506                      @ 0x6e1d3b62
	.long	4079005044                      @ 0xf320ad74
	.long	2394015518                      @ 0x8eb1c71e
	.long	3196781879                      @ 0xbe8b0537
	.long	2861025826                      @ 0xaa87ca22
	.size	secp384r1_gx, 48

	.type	secp384r1_gy,%object            @ @secp384r1_gy
	.section	.rodata.secp384r1_gy,"a",%progbits
	.p2align	2
secp384r1_gy:
	.long	2431258207                      @ 0x90ea0e5f
	.long	2051218812                      @ 0x7a431d7c
	.long	494829981                       @ 0x1d7e819d
	.long	174109134                       @ 0xa60b1ce
	.long	3052452032                      @ 0xb5f0b8c0
	.long	3923390739                      @ 0xe9da3113
	.long	681186428                       @ 0x289a147c
	.long	4176747965                      @ 0xf8f41dbd
	.long	2459098153                      @ 0x9292dc29
	.long	1570674879                      @ 0x5d9e98bf
	.long	2519084143                      @ 0x96262c6f
	.long	907533898                       @ 0x3617de4a
	.size	secp384r1_gy, 48

	.type	secp384r1_n,%object             @ @secp384r1_n
	.section	.rodata.secp384r1_n,"a",%progbits
	.p2align	2
secp384r1_n:
	.long	3435473267                      @ 0xccc52973
	.long	3974895978                      @ 0xecec196a
	.long	1219536762                      @ 0x48b0a77a
	.long	1478102450                      @ 0x581a0db2
	.long	4097256927                      @ 0xf4372ddf
	.long	3345173889                      @ 0xc7634d81
	.long	4294967295                      @ 0xffffffff
	.long	4294967295                      @ 0xffffffff
	.long	4294967295                      @ 0xffffffff
	.long	4294967295                      @ 0xffffffff
	.long	4294967295                      @ 0xffffffff
	.long	4294967295                      @ 0xffffffff
	.size	secp384r1_n, 48

	.type	secp521r1_p,%object             @ @secp521r1_p
	.section	.rodata.secp521r1_p,"a",%progbits
	.p2align	2
secp521r1_p:
	.long	4294967295                      @ 0xffffffff
	.long	4294967295                      @ 0xffffffff
	.long	4294967295                      @ 0xffffffff
	.long	4294967295                      @ 0xffffffff
	.long	4294967295                      @ 0xffffffff
	.long	4294967295                      @ 0xffffffff
	.long	4294967295                      @ 0xffffffff
	.long	4294967295                      @ 0xffffffff
	.long	4294967295                      @ 0xffffffff
	.long	4294967295                      @ 0xffffffff
	.long	4294967295                      @ 0xffffffff
	.long	4294967295                      @ 0xffffffff
	.long	4294967295                      @ 0xffffffff
	.long	4294967295                      @ 0xffffffff
	.long	4294967295                      @ 0xffffffff
	.long	4294967295                      @ 0xffffffff
	.long	511                             @ 0x1ff
	.size	secp521r1_p, 68

	.type	secp521r1_b,%object             @ @secp521r1_b
	.section	.rodata.secp521r1_b,"a",%progbits
	.p2align	2
secp521r1_b:
	.long	1800421120                      @ 0x6b503f00
	.long	4014284756                      @ 0xef451fd4
	.long	1026307313                      @ 0x3d2c34f1
	.long	896786312                       @ 0x3573df88
	.long	1001504519                      @ 0x3bb1bf07
	.long	374522045                       @ 0x1652c0bd
	.long	3967718267                      @ 0xec7e937b
	.long	1444493649                      @ 0x56193951
	.long	2398161377                      @ 0x8ef109e1
	.long	3098839441                      @ 0xb8b48991
	.long	2578650611                      @ 0x99b315f3
	.long	2732225115                      @ 0xa2da725b
	.long	3062186222                      @ 0xb68540ee
	.long	2459574688                      @ 0x929a21a0
	.long	2384239135                      @ 0x8e1c9a1f
	.long	2503915873                      @ 0x953eb961
	.long	81                              @ 0x51
	.size	secp521r1_b, 68

	.type	secp521r1_gx,%object            @ @secp521r1_gx
	.section	.rodata.secp521r1_gx,"a",%progbits
	.p2align	2
secp521r1_gx:
	.long	3269836134                      @ 0xc2e5bd66
	.long	4185816625                      @ 0xf97e7e31
	.long	2238333595                      @ 0x856a429b
	.long	860402625                       @ 0x3348b3c1
	.long	2734663902                      @ 0xa2ffa8de
	.long	4263362855                      @ 0xfe1dc127
	.long	4024916264                      @ 0xefe75928
	.long	2706071159                      @ 0xa14b5e77
	.long	1800224186                      @ 0x6b4d3dba
	.long	4163415904                      @ 0xf828af60
	.long	88061217                        @ 0x53fb521
	.long	2623832377                      @ 0x9c648139
	.long	597013570                       @ 0x2395b442
	.long	2654915430                      @ 0x9e3ecb66
	.long	67430861                        @ 0x404e9cd
	.long	2240677559                      @ 0x858e06b7
	.long	198                             @ 0xc6
	.size	secp521r1_gx, 68

	.type	secp521r1_gy,%object            @ @secp521r1_gy
	.section	.rodata.secp521r1_gy,"a",%progbits
	.p2align	2
secp521r1_gy:
	.long	2681300560                      @ 0x9fd16650
	.long	2294191222                      @ 0x88be9476
	.long	2725429824                      @ 0xa272c240
	.long	893153414                       @ 0x353c7086
	.long	1068304225                      @ 0x3fad0761
	.long	3310401793                      @ 0xc550b901
	.long	1593058880                      @ 0x5ef42640
	.long	2548986521                      @ 0x97ee7299
	.long	658400812                       @ 0x273e662c
	.long	397393175                       @ 0x17afbd17
	.long	1469793384                      @ 0x579b4468
	.long	2566210633                      @ 0x98f54449
	.long	746396633                       @ 0x2c7d1bd9
	.long	1552572340                      @ 0x5c8a5fb4
	.long	2587607044                      @ 0x9a3bc004
	.long	959015544                       @ 0x39296a78
	.long	280                             @ 0x118
	.size	secp521r1_gy, 68

	.type	secp521r1_n,%object             @ @secp521r1_n
	.section	.rodata.secp521r1_n,"a",%progbits
	.p2align	2
secp521r1_n:
	.long	2436391945                      @ 0x91386409
	.long	3144660766                      @ 0xbb6fb71e
	.long	2308720558                      @ 0x899c47ae
	.long	1001769400                      @ 0x3bb5c9b8
	.long	4144604624                      @ 0xf709a5d0
	.long	2144076104                      @ 0x7fcc0148
	.long	3207566955                      @ 0xbf2f966b
	.long	1367771011                      @ 0x51868783
	.long	4294967290                      @ 0xfffffffa
	.long	4294967295                      @ 0xffffffff
	.long	4294967295                      @ 0xffffffff
	.long	4294967295                      @ 0xffffffff
	.long	4294967295                      @ 0xffffffff
	.long	4294967295                      @ 0xffffffff
	.long	4294967295                      @ 0xffffffff
	.long	4294967295                      @ 0xffffffff
	.long	511                             @ 0x1ff
	.size	secp521r1_n, 68

	.type	secp192k1_p,%object             @ @secp192k1_p
	.section	.rodata.secp192k1_p,"a",%progbits
	.p2align	2
secp192k1_p:
	.long	4294962743                      @ 0xffffee37
	.long	4294967294                      @ 0xfffffffe
	.long	4294967295                      @ 0xffffffff
	.long	4294967295                      @ 0xffffffff
	.long	4294967295                      @ 0xffffffff
	.long	4294967295                      @ 0xffffffff
	.size	secp192k1_p, 24

	.type	secp192k1_a,%object             @ @secp192k1_a
	.section	.rodata.secp192k1_a,"a",%progbits
	.p2align	2
secp192k1_a:
	.zero	4
	.size	secp192k1_a, 4

	.type	secp192k1_b,%object             @ @secp192k1_b
	.section	.rodata.secp192k1_b,"a",%progbits
	.p2align	2
secp192k1_b:
	.long	3                               @ 0x3
	.size	secp192k1_b, 4

	.type	secp192k1_gx,%object            @ @secp192k1_gx
	.section	.rodata.secp192k1_gx,"a",%progbits
	.p2align	2
secp192k1_gx:
	.long	3940576381                      @ 0xeae06c7d
	.long	497406385                       @ 0x1da5d1b1
	.long	2159539252                      @ 0x80b7f434
	.long	649100546                       @ 0x26b07d02
	.long	3226986926                      @ 0xc057e9ae
	.long	3679449358                      @ 0xdb4ff10e
	.size	secp192k1_gx, 24

	.type	secp192k1_gy,%object            @ @secp192k1_gy
	.section	.rodata.secp192k1_gy,"a",%progbits
	.p2align	2
secp192k1_gy:
	.long	3646828445                      @ 0xd95e2f9d
	.long	1082305160                      @ 0x4082aa88
	.long	364807732                       @ 0x15be8634
	.long	2218877904                      @ 0x844163d0
	.long	2622892199                      @ 0x9c5628a7
	.long	2603560813                      @ 0x9b2f2f6d
	.size	secp192k1_gy, 24

	.type	secp192k1_n,%object             @ @secp192k1_n
	.section	.rodata.secp192k1_n,"a",%progbits
	.p2align	2
secp192k1_n:
	.long	1960770957                      @ 0x74defd8d
	.long	258557546                       @ 0xf69466a
	.long	653458455                       @ 0x26f2fc17
	.long	4294967294                      @ 0xfffffffe
	.long	4294967295                      @ 0xffffffff
	.long	4294967295                      @ 0xffffffff
	.size	secp192k1_n, 24

	.type	secp224k1_p,%object             @ @secp224k1_p
	.section	.rodata.secp224k1_p,"a",%progbits
	.p2align	2
secp224k1_p:
	.long	4294960493                      @ 0xffffe56d
	.long	4294967294                      @ 0xfffffffe
	.long	4294967295                      @ 0xffffffff
	.long	4294967295                      @ 0xffffffff
	.long	4294967295                      @ 0xffffffff
	.long	4294967295                      @ 0xffffffff
	.long	4294967295                      @ 0xffffffff
	.size	secp224k1_p, 28

	.type	secp224k1_a,%object             @ @secp224k1_a
	.section	.rodata.secp224k1_a,"a",%progbits
	.p2align	2
secp224k1_a:
	.zero	4
	.size	secp224k1_a, 4

	.type	secp224k1_b,%object             @ @secp224k1_b
	.section	.rodata.secp224k1_b,"a",%progbits
	.p2align	2
secp224k1_b:
	.long	5                               @ 0x5
	.size	secp224k1_b, 4

	.type	secp224k1_gx,%object            @ @secp224k1_gx
	.section	.rodata.secp224k1_gx,"a",%progbits
	.p2align	2
secp224k1_gx:
	.long	3065488476                      @ 0xb6b7a45c
	.long	259941646                       @ 0xf7e650e
	.long	3832575401                      @ 0xe47075a9
	.long	1772382185                      @ 0x69a467e9
	.long	821831841                       @ 0x30fc28a1
	.long	1307613663                      @ 0x4df099df
	.long	2705677107                      @ 0xa1455b33
	.size	secp224k1_gx, 28

	.type	secp224k1_gy,%object            @ @secp224k1_gy
	.section	.rodata.secp224k1_gy,"a",%progbits
	.p2align	2
secp224k1_gy:
	.long	1433231781                      @ 0x556d61a5
	.long	3804908507                      @ 0xe2ca4bdb
	.long	3232808281                      @ 0xc0b0bd59
	.long	4158855671                      @ 0xf7e319f7
	.long	2194340822                      @ 0x82cafbd6
	.long	2142909506                      @ 0x7fba3442
	.long	2114494445                      @ 0x7e089fed
	.size	secp224k1_gy, 28

	.type	secp224k1_n,%object             @ @secp224k1_n
	.section	.rodata.secp224k1_n,"a",%progbits
	.p2align	2
secp224k1_n:
	.long	1990177271                      @ 0x769fb1f7
	.long	3404769649                      @ 0xcaf0a971
	.long	3538706820                      @ 0xd2ec6184
	.long	122088                          @ 0x1dce8
	.long	0                               @ 0x0
	.long	0                               @ 0x0
	.long	0                               @ 0x0
	.long	1                               @ 0x1
	.size	secp224k1_n, 32

	.type	secp256k1_p,%object             @ @secp256k1_p
	.section	.rodata.secp256k1_p,"a",%progbits
	.p2align	2
secp256k1_p:
	.long	4294966319                      @ 0xfffffc2f
	.long	4294967294                      @ 0xfffffffe
	.long	4294967295                      @ 0xffffffff
	.long	4294967295                      @ 0xffffffff
	.long	4294967295                      @ 0xffffffff
	.long	4294967295                      @ 0xffffffff
	.long	4294967295                      @ 0xffffffff
	.long	4294967295                      @ 0xffffffff
	.size	secp256k1_p, 32

	.type	secp256k1_a,%object             @ @secp256k1_a
	.section	.rodata.secp256k1_a,"a",%progbits
	.p2align	2
secp256k1_a:
	.zero	4
	.size	secp256k1_a, 4

	.type	secp256k1_b,%object             @ @secp256k1_b
	.section	.rodata.secp256k1_b,"a",%progbits
	.p2align	2
secp256k1_b:
	.long	7                               @ 0x7
	.size	secp256k1_b, 4

	.type	secp256k1_gx,%object            @ @secp256k1_gx
	.section	.rodata.secp256k1_gx,"a",%progbits
	.p2align	2
secp256k1_gx:
	.long	385357720                       @ 0x16f81798
	.long	1509065051                      @ 0x59f2815b
	.long	768485593                       @ 0x2dce28d9
	.long	43777243                        @ 0x29bfcdb
	.long	3464956679                      @ 0xce870b07
	.long	1436574357                      @ 0x55a06295
	.long	4191992748                      @ 0xf9dcbbac
	.long	2042521214                      @ 0x79be667e
	.size	secp256k1_gx, 32

	.type	secp256k1_gy,%object            @ @secp256k1_gy
	.section	.rodata.secp256k1_gy,"a",%progbits
	.p2align	2
secp256k1_gy:
	.long	4212184248                      @ 0xfb10d4b8
	.long	2621952143                      @ 0x9c47d08f
	.long	2793755673                      @ 0xa6855419
	.long	4246189128                      @ 0xfd17b448
	.long	235997352                       @ 0xe1108a8
	.long	1571093500                      @ 0x5da4fbfc
	.long	648266853                       @ 0x26a3c465
	.long	1211816567                      @ 0x483ada77
	.size	secp256k1_gy, 32

	.type	secp256k1_n,%object             @ @secp256k1_n
	.section	.rodata.secp256k1_n,"a",%progbits
	.p2align	2
secp256k1_n:
	.long	3493216577                      @ 0xd0364141
	.long	3218235020                      @ 0xbfd25e8c
	.long	2940772411                      @ 0xaf48a03b
	.long	3132021990                      @ 0xbaaedce6
	.long	4294967294                      @ 0xfffffffe
	.long	4294967295                      @ 0xffffffff
	.long	4294967295                      @ 0xffffffff
	.long	4294967295                      @ 0xffffffff
	.size	secp256k1_n, 32

	.type	brainpoolP256r1_p,%object       @ @brainpoolP256r1_p
	.section	.rodata.brainpoolP256r1_p,"a",%progbits
	.p2align	2
brainpoolP256r1_p:
	.long	527324023                       @ 0x1f6e5377
	.long	538134557                       @ 0x2013481d
	.long	3576045608                      @ 0xd5262028
	.long	1849423395                      @ 0x6e3bf623
	.long	2642644338                      @ 0x9d838d72
	.long	1046874768                      @ 0x3e660a90
	.long	2716772796                      @ 0xa1eea9bc
	.long	2851821531                      @ 0xa9fb57db
	.size	brainpoolP256r1_p, 32

	.type	brainpoolP256r1_a,%object       @ @brainpoolP256r1_a
	.section	.rodata.brainpoolP256r1_a,"a",%progbits
	.p2align	2
brainpoolP256r1_a:
	.long	4080055769                      @ 0xf330b5d9
	.long	3913960260                      @ 0xe94a4b44
	.long	651975788                       @ 0x26dc5c6c
	.long	4219491777                      @ 0xfb8055c1
	.long	1098579943                      @ 0x417affe7
	.long	4009129264                      @ 0xeef67530
	.long	4230754391                      @ 0xfc2c3057
	.long	2103052661                      @ 0x7d5a0975
	.size	brainpoolP256r1_a, 32

	.type	brainpoolP256r1_b,%object       @ @brainpoolP256r1_b
	.section	.rodata.brainpoolP256r1_b,"a",%progbits
	.p2align	2
brainpoolP256r1_b:
	.long	4287367094                      @ 0xff8c07b6
	.long	1808587800                      @ 0x6bccdc18
	.long	1559749070                      @ 0x5cf7e1ce
	.long	2508461609                      @ 0x95841629
	.long	3151461567                      @ 0xbbd77cbf
	.long	4080055769                      @ 0xf330b5d9
	.long	3913960260                      @ 0xe94a4b44
	.long	651975788                       @ 0x26dc5c6c
	.size	brainpoolP256r1_b, 32

	.type	brainpoolP256r1_gx,%object      @ @brainpoolP256r1_gx
	.section	.rodata.brainpoolP256r1_gx,"a",%progbits
	.p2align	2
brainpoolP256r1_gx:
	.long	2597204578                      @ 0x9ace3262
	.long	977556413                       @ 0x3a4453bd
	.long	3820823490                      @ 0xe3bd23c2
	.long	3118344161                      @ 0xb9de27e1
	.long	4236359599                      @ 0xfc81b7af
	.long	743131183                       @ 0x2c4b482f
	.long	3414054859                      @ 0xcb7e57cb
	.long	2345840313                      @ 0x8bd2aeb9
	.size	brainpoolP256r1_gx, 32

	.type	brainpoolP256r1_gy,%object      @ @brainpoolP256r1_gy
	.section	.rodata.brainpoolP256r1_gy,"a",%progbits
	.p2align	2
brainpoolP256r1_gy:
	.long	788818327                       @ 0x2f046997
	.long	1545426119                      @ 0x5c1d54c7
	.long	770543188                       @ 0x2ded8e54
	.long	3262596371                      @ 0xc2774513
	.long	341908937                       @ 0x14611dc9
	.long	2549630490                      @ 0x97f8461a
	.long	3285894397                      @ 0xc3dac4fd
	.long	1417607221                      @ 0x547ef835
	.size	brainpoolP256r1_gy, 32

	.type	brainpoolP256r1_n,%object       @ @brainpoolP256r1_n
	.section	.rodata.brainpoolP256r1_n,"a",%progbits
	.p2align	2
brainpoolP256r1_n:
	.long	2538100391                      @ 0x974856a7
	.long	2417888898                      @ 0x901e0e82
	.long	3043075831                      @ 0xb561a6f7
	.long	2352577187                      @ 0x8c397aa3
	.long	2642644337                      @ 0x9d838d71
	.long	1046874768                      @ 0x3e660a90
	.long	2716772796                      @ 0xa1eea9bc
	.long	2851821531                      @ 0xa9fb57db
	.size	brainpoolP256r1_n, 32

	.type	brainpoolP384r1_p,%object       @ @brainpoolP384r1_p
	.section	.rodata.brainpoolP384r1_p,"a",%progbits
	.p2align	2
brainpoolP384r1_p:
	.long	822602835                       @ 0x3107ec53
	.long	2269577235                      @ 0x87470013
	.long	2417826417                      @ 0x901d1a71
	.long	2899552041                      @ 0xacd3a729
	.long	2142703907                      @ 0x7fb71123
	.long	313645593                       @ 0x12b1da19
	.long	3981727412                      @ 0xed5456b4
	.long	355430665                       @ 0x152f7109
	.long	1357267423                      @ 0x50e641df
	.long	257781630                       @ 0xf5d6f7e
	.long	2738384168                      @ 0xa3386d28
	.long	2360942210                      @ 0x8cb91e82
	.size	brainpoolP384r1_p, 48

	.type	brainpoolP384r1_a,%object       @ @brainpoolP384r1_a
	.section	.rodata.brainpoolP384r1_a,"a",%progbits
	.p2align	2
brainpoolP384r1_a:
	.long	583936038                       @ 0x22ce2826
	.long	78170077                        @ 0x4a8c7dd
	.long	1346032875                      @ 0x503ad4eb
	.long	2326102346                      @ 0x8aa5814a
	.long	3130128655                      @ 0xba91f90f
	.long	328295919                       @ 0x139165ef
	.long	1337075591                      @ 0x4fb22787
	.long	3267273358                      @ 0xc2bea28e
	.long	3456479136                      @ 0xce05afa0
	.long	1014106122                      @ 0x3c72080a
	.long	1032590604                      @ 0x3d8c150c
	.long	2076410566                      @ 0x7bc382c6
	.size	brainpoolP384r1_a, 48

	.type	brainpoolP384r1_b,%object       @ @brainpoolP384r1_b
	.section	.rodata.brainpoolP384r1_b,"a",%progbits
	.p2align	2
brainpoolP384r1_b:
	.long	4199566353                      @ 0xfa504c11
	.long	985106070                       @ 0x3ab78696
	.long	2514209172                      @ 0x95dbc994
	.long	2092185858                      @ 0x7cb43902
	.long	1055613653                      @ 0x3eeb62d5
	.long	780668581                       @ 0x2e880ea5
	.long	131912358                       @ 0x7dcd2a6
	.long	800554465                       @ 0x2fb77de1
	.long	384844924                       @ 0x16f0447c
	.long	2335814996                      @ 0x8b39b554
	.long	583936038                       @ 0x22ce2826
	.long	78170077                        @ 0x4a8c7dd
	.size	brainpoolP384r1_b, 48

	.type	brainpoolP384r1_gx,%object      @ @brainpoolP384r1_gx
	.section	.rodata.brainpoolP384r1_gx,"a",%progbits
	.p2align	2
brainpoolP384r1_gx:
	.long	1205120798                      @ 0x47d4af1e
	.long	4018647778                      @ 0xef87b2e2
	.long	920012458                       @ 0x36d646aa
	.long	3894861876                      @ 0xe826e034
	.long	213717224                       @ 0xcbd10e8
	.long	3682585342                      @ 0xdb7fcafe
	.long	2129743843                      @ 0x7ef14fe3
	.long	2286396391                      @ 0x8847a3e7
	.long	3082895211                      @ 0xb7c13f6b
	.long	2728802945                      @ 0xa2a63a81
	.long	1758414335                      @ 0x68cf45ff
	.long	488400112                       @ 0x1d1c64f0
	.size	brainpoolP384r1_gx, 48

	.type	brainpoolP384r1_gy,%object      @ @brainpoolP384r1_gy
	.section	.rodata.brainpoolP384r1_gy,"a",%progbits
	.p2align	2
brainpoolP384r1_gy:
	.long	641487637                       @ 0x263c5315
	.long	1115816769                      @ 0x42820341
	.long	2006024465                      @ 0x77918111
	.long	239486497                       @ 0xe464621
	.long	4187040040                      @ 0xf9912928
	.long	3785098575                      @ 0xe19c054f
	.long	4276901988                      @ 0xfeec5864
	.long	1656163113                      @ 0x62b70b29
	.long	2513425746                      @ 0x95cfd552
	.long	1555164046                      @ 0x5cb1eb8e
	.long	553239204                       @ 0x20f9c2a4
	.long	2327715189                      @ 0x8abe1d75
	.size	brainpoolP384r1_gy, 48

	.type	brainpoolP384r1_n,%object       @ @brainpoolP384r1_n
	.section	.rodata.brainpoolP384r1_n,"a",%progbits
	.p2align	2
brainpoolP384r1_n:
	.long	3909379429                      @ 0xe9046565
	.long	998781442                       @ 0x3b883202
	.long	1803535120                      @ 0x6b7fc310
	.long	3476731567                      @ 0xcf3ab6af
	.long	2885952935                      @ 0xac0425a7
	.long	521563756                       @ 0x1f166e6c
	.long	3981727411                      @ 0xed5456b3
	.long	355430665                       @ 0x152f7109
	.long	1357267423                      @ 0x50e641df
	.long	257781630                       @ 0xf5d6f7e
	.long	2738384168                      @ 0xa3386d28
	.long	2360942210                      @ 0x8cb91e82
	.size	brainpoolP384r1_n, 48

	.type	brainpoolP512r1_p,%object       @ @brainpoolP512r1_p
	.section	.rodata.brainpoolP512r1_p,"a",%progbits
	.p2align	2
brainpoolP512r1_p:
	.long	1480214771                      @ 0x583a48f3
	.long	682254422                       @ 0x28aa6056
	.long	763545221                       @ 0x2d82c685
	.long	679608111                       @ 0x2881ff2f
	.long	3869475046                      @ 0xe6a380e6
	.long	2932711722                      @ 0xaecda12a
	.long	2613471298                      @ 0x9bc66842
	.long	2102237952                      @ 0x7d4d9b00
	.long	1882392689                      @ 0x70330871
	.long	3596852426                      @ 0xd6639cca
	.long	3016348174                      @ 0xb3c9d20e
	.long	3408956851                      @ 0xcb308db3
	.long	868875271                       @ 0x33c9fc07
	.long	1070917294                      @ 0x3fd4e6ae
	.long	3689530507                      @ 0xdbe9c48b
	.long	2866650552                      @ 0xaadd9db8
	.size	brainpoolP512r1_p, 64

	.type	brainpoolP512r1_a,%object       @ @brainpoolP512r1_a
	.section	.rodata.brainpoolP512r1_a,"a",%progbits
	.p2align	2
brainpoolP512r1_a:
	.long	2013041866                      @ 0x77fc94ca
	.long	3888229453                      @ 0xe7c1ac4d
	.long	737331129                       @ 0x2bf2c7b9
	.long	2131826599                      @ 0x7f1117a7
	.long	2342176949                      @ 0x8b9ac8b5
	.long	170848713                       @ 0xa2ef1c9
	.long	2821012129                      @ 0xa8253aa1
	.long	770530650                       @ 0x2ded5d5a
	.long	3935855548                      @ 0xea9863bc
	.long	2821997002                      @ 0xa83441ca
	.long	1039734288                      @ 0x3df91610
	.long	2496388493                      @ 0x94cbdd8d
	.long	2887994565                      @ 0xac234cc5
	.long	3794956613                      @ 0xe2327145
	.long	2338339721                      @ 0x8b603b89
	.long	2016453425                      @ 0x7830a331
	.size	brainpoolP512r1_a, 64

	.type	brainpoolP512r1_b,%object       @ @brainpoolP512r1_b
	.section	.rodata.brainpoolP512r1_b,"a",%progbits
	.p2align	2
brainpoolP512r1_b:
	.long	2148988707                      @ 0x8016f723
	.long	671726947                       @ 0x2809bd63
	.long	1589306845                      @ 0x5ebae5dd
	.long	2554351799                      @ 0x984050b7
	.long	3691527783                      @ 0xdc083e67
	.long	2013041866                      @ 0x77fc94ca
	.long	3888229453                      @ 0xe7c1ac4d
	.long	737331129                       @ 0x2bf2c7b9
	.long	2131826599                      @ 0x7f1117a7
	.long	2342176949                      @ 0x8b9ac8b5
	.long	170848713                       @ 0xa2ef1c9
	.long	2821012129                      @ 0xa8253aa1
	.long	770530650                       @ 0x2ded5d5a
	.long	3935855548                      @ 0xea9863bc
	.long	2821997002                      @ 0xa83441ca
	.long	1039734288                      @ 0x3df91610
	.size	brainpoolP512r1_b, 64

	.type	brainpoolP512r1_gx,%object      @ @brainpoolP512r1_gx
	.section	.rodata.brainpoolP512r1_gx,"a",%progbits
	.p2align	2
brainpoolP512r1_gx:
	.long	3166304290                      @ 0xbcb9f822
	.long	2335515145                      @ 0x8b352209
	.long	1080712808                      @ 0x406a5e68
	.long	2087538759                      @ 0x7c6d5047
	.long	2478407007                      @ 0x93b97d5f
	.long	1355901051                      @ 0x50d1687b
	.long	3805336717                      @ 0xe2d0d48d
	.long	4282064760                      @ 0xff3b1f78
	.long	4107274638                      @ 0xf4d0098e
	.long	3023790830                      @ 0xb43b62ee
	.long	3050903233                      @ 0xb5d916c1
	.long	2246942576                      @ 0x85ed9f70
	.long	2622253715                      @ 0x9c4c6a93
	.long	1512124974                      @ 0x5a21322e
	.long	3626948964                      @ 0xd82ed964
	.long	2175722685                      @ 0x81aee4bd
	.size	brainpoolP512r1_gx, 64

	.type	brainpoolP512r1_gy,%object      @ @brainpoolP512r1_gy
	.section	.rodata.brainpoolP512r1_gy,"a",%progbits
	.p2align	2
brainpoolP512r1_gy:
	.long	987236498                       @ 0x3ad80892
	.long	2026708495                      @ 0x78cd1e0f
	.long	2834322438                      @ 0xa8f05406
	.long	3519687471                      @ 0xd1ca2b2f
	.long	2317837230                      @ 0x8a2763ae
	.long	1539984344                      @ 0x5bca4bd8
	.long	1247758430                      @ 0x4a5f485e
	.long	3000819273                      @ 0xb2dcde49
	.long	2283766033                      @ 0x881f8111
	.long	2684405083                      @ 0xa000c55b
	.long	614824730                       @ 0x24a57b1a
	.long	4060739328                      @ 0xf209f700
	.long	3480756989                      @ 0xcf7822fd
	.long	3236609961                      @ 0xc0eabfa9
	.long	1449341676                      @ 0x566332ec
	.long	2111715421                      @ 0x7dde385d
	.size	brainpoolP512r1_gy, 64

	.type	brainpoolP512r1_n,%object       @ @brainpoolP512r1_n
	.section	.rodata.brainpoolP512r1_n,"a",%progbits
	.p2align	2
brainpoolP512r1_n:
	.long	2628321385                      @ 0x9ca90069
	.long	3045561986                      @ 0xb5879682
	.long	140368605                       @ 0x85ddadd
	.long	498193281                       @ 0x1db1d381
	.long	2141982791                      @ 0x7fac1047
	.long	1099325721                      @ 0x41866119
	.long	1286153753                      @ 0x4ca92619
	.long	1430150209                      @ 0x553e5c41
	.long	1882392688                      @ 0x70330870
	.long	3596852426                      @ 0xd6639cca
	.long	3016348174                      @ 0xb3c9d20e
	.long	3408956851                      @ 0xcb308db3
	.long	868875271                       @ 0x33c9fc07
	.long	1070917294                      @ 0x3fd4e6ae
	.long	3689530507                      @ 0xdbe9c48b
	.long	2866650552                      @ 0xaadd9db8
	.size	brainpoolP512r1_n, 64

	.type	ecp_mpi_set1.one,%object        @ @ecp_mpi_set1.one
	.section	.data.ecp_mpi_set1.one,"aw",%progbits
	.p2align	2
ecp_mpi_set1.one:
	.long	1                               @ 0x1
	.size	ecp_mpi_set1.one, 4

	.type	ecp_mod_p192k1.Rp,%object       @ @ecp_mod_p192k1.Rp
	.section	.data.ecp_mod_p192k1.Rp,"aw",%progbits
	.p2align	2
ecp_mod_p192k1.Rp:
	.long	4553                            @ 0x11c9
	.long	1                               @ 0x1
	.size	ecp_mod_p192k1.Rp, 8

	.type	ecp_mod_p224k1.Rp,%object       @ @ecp_mod_p224k1.Rp
	.section	.data.ecp_mod_p224k1.Rp,"aw",%progbits
	.p2align	2
ecp_mod_p224k1.Rp:
	.long	6803                            @ 0x1a93
	.long	1                               @ 0x1
	.size	ecp_mod_p224k1.Rp, 8

	.type	ecp_mod_p256k1.Rp,%object       @ @ecp_mod_p256k1.Rp
	.section	.data.ecp_mod_p256k1.Rp,"aw",%progbits
	.p2align	2
ecp_mod_p256k1.Rp:
	.long	977                             @ 0x3d1
	.long	1                               @ 0x1
	.size	ecp_mod_p256k1.Rp, 8

	.file	5 "C:\\" "Keil_v5\\ARM\\ARMCLANG\\Bin\\..\\include\\stddef.h"
	.section	".note.GNU-stack","",%progbits
	.eabi_attribute	30, 1	@ Tag_ABI_optimization_goals
	.ARM_attribute	16, 1	@ Tag_AV_eba