	.text
	.syntax unified
	.eabi_attribute	67, "2.09"	@ Tag_conformance
	.cpu	cortex-m23
	.eabi_attribute	6, 16	@ Tag_CPU_arch
	.eabi_attribute	7, 77	@ Tag_CPU_arch_profile
	.eabi_attribute	8, 0	@ Tag_ARM_ISA_use
	.eabi_attribute	9, 3	@ Tag_THUMB_ISA_use
	.eabi_attribute	34, 0	@ Tag_CPU_unaligned_access
	.eabi_attribute	17, 1	@ Tag_ABI_PCS_GOT_use
	.eabi_attribute	20, 2	@ Tag_ABI_FP_denormal
	.eabi_attribute	21, 0	@ Tag_ABI_FP_exceptions
	.eabi_attribute	23, 1	@ Tag_ABI_FP_number_model
	.eabi_attribute	24, 1	@ Tag_ABI_align_needed
	.eabi_attribute	25, 1	@ Tag_ABI_align_preserved
	.eabi_attribute	38, 1	@ Tag_ABI_FP_16bit_format
	.eabi_attribute	18, 2	@ Tag_ABI_PCS_wchar_t
	.eabi_attribute	26, 1	@ Tag_ABI_enum_size
	.eabi_attribute	14, 0	@ Tag_ABI_PCS_R9_use
	.file	"entropy_poll_hw.c"
	.section	.text.mbedtls_hardware_poll,"ax",%progbits
	.hidden	mbedtls_hardware_poll           @ -- Begin function mbedtls_hardware_poll
	.weak	mbedtls_hardware_poll
	.p2align	1
	.type	mbedtls_hardware_poll,%function
	.code	16                              @ @mbedtls_hardware_poll
	.thumb_func
mbedtls_hardware_poll:
.Lfunc_begin0:
	.file	1 "C:/Users/shw26/AppData/Local/Arm/Packs/ARM/mbedTLS/1.7.0/MDK/library" "entropy_poll_hw.c"
	.loc	1 44 0                          @ C:/Users/shw26/AppData/Local/Arm/Packs/ARM/mbedTLS/1.7.0/MDK/library/entropy_poll_hw.c:44:0
	.fnstart
	.cfi_sections .debug_frame
	.cfi_startproc
@ %bb.0:
	@DEBUG_VALUE: mbedtls_hardware_poll:data <- $r0
	@DEBUG_VALUE: mbedtls_hardware_poll:output <- $r1
	@DEBUG_VALUE: mbedtls_hardware_poll:len <- $r2
	@DEBUG_VALUE: mbedtls_hardware_poll:olen <- $r3
	.save	{r4, r5, r7, lr}
	push	{r4, r5, r7, lr}
	.cfi_def_cfa_offset 16
	.cfi_offset lr, -4
	.cfi_offset r7, -8
	.cfi_offset r5, -12
	.cfi_offset r4, -16
	mov	r4, r3
.Ltmp0:
	@DEBUG_VALUE: mbedtls_hardware_poll:olen <- $r4
	@DEBUG_VALUE: mbedtls_hardware_poll:len <- $r2
	@DEBUG_VALUE: mbedtls_hardware_poll:output <- $r1
	.loc	1 47 7 prologue_end             @ C:/Users/shw26/AppData/Local/Arm/Packs/ARM/mbedTLS/1.7.0/MDK/library/entropy_poll_hw.c:47:7
	cmp	r2, #4
	bhs	.LBB0_2
.Ltmp1:
@ %bb.1:
	@DEBUG_VALUE: mbedtls_hardware_poll:olen <- $r4
	@DEBUG_VALUE: mbedtls_hardware_poll:len <- $r2
	@DEBUG_VALUE: mbedtls_hardware_poll:output <- $r1
	@DEBUG_VALUE: mbedtls_hardware_poll:data <- $r0
	.loc	1 0 7 is_stmt 0                 @ C:/Users/shw26/AppData/Local/Arm/Packs/ARM/mbedTLS/1.7.0/MDK/library/entropy_poll_hw.c:0:7
	movs	r0, #0
.Ltmp2:
	@DEBUG_VALUE: mbedtls_hardware_poll:data <- [DW_OP_LLVM_entry_value 1] $r0
	b	.LBB0_3
.Ltmp3:
.LBB0_2:
	@DEBUG_VALUE: mbedtls_hardware_poll:olen <- $r4
	@DEBUG_VALUE: mbedtls_hardware_poll:len <- $r2
	@DEBUG_VALUE: mbedtls_hardware_poll:output <- $r1
	@DEBUG_VALUE: mbedtls_hardware_poll:data <- $r0
	mov	r5, r1
.Ltmp4:
	@DEBUG_VALUE: mbedtls_hardware_poll:output <- $r5
	.loc	1 55 11 is_stmt 1               @ C:/Users/shw26/AppData/Local/Arm/Packs/ARM/mbedTLS/1.7.0/MDK/library/entropy_poll_hw.c:55:11
	bl	osKernelGetTickCount
.Ltmp5:
	@DEBUG_VALUE: mbedtls_hardware_poll:len <- [DW_OP_LLVM_entry_value 1] $r2
	@DEBUG_VALUE: mbedtls_hardware_poll:data <- [DW_OP_LLVM_entry_value 1] $r0
	@DEBUG_VALUE: mbedtls_hardware_poll:timer <- $r0
	.loc	1 57 3                          @ C:/Users/shw26/AppData/Local/Arm/Packs/ARM/mbedTLS/1.7.0/MDK/library/entropy_poll_hw.c:57:3
	strb	r0, [r5]
	lsrs	r1, r0, #24
	strb	r1, [r5, #3]
	lsrs	r1, r0, #16
	strb	r1, [r5, #2]
	lsrs	r0, r0, #8
.Ltmp6:
	strb	r0, [r5, #1]
	movs	r0, #4
.Ltmp7:
.LBB0_3:
	@DEBUG_VALUE: mbedtls_hardware_poll:olen <- $r4
	@DEBUG_VALUE: mbedtls_hardware_poll:data <- [DW_OP_LLVM_entry_value 1] $r0
	.loc	1 0 0 is_stmt 0                 @ C:/Users/shw26/AppData/Local/Arm/Packs/ARM/mbedTLS/1.7.0/MDK/library/entropy_poll_hw.c:0:0
	str	r0, [r4]
	movs	r0, #0
	.loc	1 60 1 is_stmt 1                @ C:/Users/shw26/AppData/Local/Arm/Packs/ARM/mbedTLS/1.7.0/MDK/library/entropy_poll_hw.c:60:1
	pop	{r4, r5, r7, pc}
.Ltmp8:
.Lfunc_end0:
	.size	mbedtls_hardware_poll, .Lfunc_end0-mbedtls_hardware_poll
	.cfi_endproc
	.cantunwind
	.fnend
                                        @ -- End function
	.file	2 "C:\\" "Keil_v5\\ARM\\ARMCLANG\\Bin\\..\\include\\string.h"
	.file	3 "C:\\" "Keil_v5\\ARM\\ARMCLANG\\Bin\\..\\include\\stdint.h"
	.section	".note.GNU-stack","",%progbits
	.eabi_attribute	30, 1	@ Tag_ABI_optimization_goals
	.ARM_attribute	16, 1	@ Tag_AV_eba