	.text
	.syntax unified
	.eabi_attribute	67, "2.09"	@ Tag_conformance
	.cpu	cortex-m23
	.eabi_attribute	6, 16	@ Tag_CPU_arch
	.eabi_attribute	7, 77	@ Tag_CPU_arch_profile
	.eabi_attribute	8, 0	@ Tag_ARM_ISA_use
	.eabi_attribute	9, 3	@ Tag_THUMB_ISA_use
	.eabi_attribute	34, 0	@ Tag_CPU_unaligned_access
	.eabi_attribute	17, 1	@ Tag_ABI_PCS_GOT_use
	.eabi_attribute	20, 2	@ Tag_ABI_FP_denormal
	.eabi_attribute	21, 0	@ Tag_ABI_FP_exceptions
	.eabi_attribute	23, 1	@ Tag_ABI_FP_number_model
	.eabi_attribute	24, 1	@ Tag_ABI_align_needed
	.eabi_attribute	25, 1	@ Tag_ABI_align_preserved
	.eabi_attribute	38, 1	@ Tag_ABI_FP_16bit_format
	.eabi_attribute	18, 2	@ Tag_ABI_PCS_wchar_t
	.eabi_attribute	26, 1	@ Tag_ABI_enum_size
	.eabi_attribute	14, 0	@ Tag_ABI_PCS_R9_use
	.file	"entropy.c"
	.file	1 "C:\\Users\\shw26\\OneDrive\\Desktop\\2021\\2021-1\\\354\272\241\354\212\244\355\206\244\353\224\224\354\236\220\354\235\2702\\Nuvoton\\M2351_BSP_v3.00.004\\M2351Series_BSP_CMSIS_V3.00.004\\MyProject\\PulseMonitoring\\Secure" "../../../ThirdParty/mbedTLS/include/mbedtls\\entropy.h"
	.file	2 "C:\\" "Keil_v5\\ARM\\ARMCLANG\\Bin\\..\\include\\stdint.h"
	.file	3 "C:\\Users\\shw26\\OneDrive\\Desktop\\2021\\2021-1\\\354\272\241\354\212\244\355\206\244\353\224\224\354\236\220\354\235\2702\\Nuvoton\\M2351_BSP_v3.00.004\\M2351Series_BSP_CMSIS_V3.00.004\\MyProject\\PulseMonitoring\\Secure" "../../../ThirdParty/mbedTLS/include/mbedtls/sha512.h"
	.file	4 "C:\\" "Keil_v5\\ARM\\ARMCLANG\\Bin\\..\\include\\stddef.h"
	.section	.text.mbedtls_entropy_init,"ax",%progbits
	.hidden	mbedtls_entropy_init            @ -- Begin function mbedtls_entropy_init
	.globl	mbedtls_entropy_init
	.p2align	2
	.type	mbedtls_entropy_init,%function
	.code	16                              @ @mbedtls_entropy_init
	.thumb_func
mbedtls_entropy_init:
.Lfunc_begin0:
	.file	5 "C:\\Users\\shw26\\OneDrive\\Desktop\\2021\\2021-1\\\354\272\241\354\212\244\355\206\244\353\224\224\354\236\220\354\235\2702\\Nuvoton\\M2351_BSP_v3.00.004\\M2351Series_BSP_CMSIS_V3.00.004\\MyProject\\PulseMonitoring\\Secure" "../../../ThirdParty/mbedTLS/library/entropy.c"
	.loc	5 66 0                          @ ../../../ThirdParty/mbedTLS/library/entropy.c:66:0
	.fnstart
	.cfi_sections .debug_frame
	.cfi_startproc
@ %bb.0:
	@DEBUG_VALUE: mbedtls_entropy_init:ctx <- $r0
	.save	{r4, r5, r7, lr}
	push	{r4, r5, r7, lr}
	.cfi_def_cfa_offset 16
	.cfi_offset lr, -4
	.cfi_offset r7, -8
	.cfi_offset r5, -12
	.cfi_offset r4, -16
	.pad	#8
	sub	sp, #8
	.cfi_def_cfa_offset 24
	mov	r5, r0
	movs	r4, #0
.Ltmp0:
	@DEBUG_VALUE: mbedtls_entropy_init:ctx <- $r5
	.loc	5 74 30 prologue_end            @ ../../../ThirdParty/mbedTLS/library/entropy.c:74:30
	str	r4, [r0]
	.loc	5 67 10                         @ ../../../ThirdParty/mbedTLS/library/entropy.c:67:10
	adds	r0, #224
	.loc	5 68 5                          @ ../../../ThirdParty/mbedTLS/library/entropy.c:68:5
	movw	r1, #404
	bl	__aeabi_memclr8
	.loc	5 76 32                         @ ../../../ThirdParty/mbedTLS/library/entropy.c:76:32
	mov	r0, r5
	adds	r0, #8
	.loc	5 76 5 is_stmt 0                @ ../../../ThirdParty/mbedTLS/library/entropy.c:76:5
	bl	mbedtls_sha512_init
	movs	r0, #1
	.loc	5 109 5 is_stmt 1               @ ../../../ThirdParty/mbedTLS/library/entropy.c:109:5
	str	r0, [sp]
	ldr	r1, __arm_cp.0_0
	movs	r3, #32
	mov	r0, r5
	mov	r2, r4
	bl	mbedtls_entropy_add_source
	.loc	5 120 1                         @ ../../../ThirdParty/mbedTLS/library/entropy.c:120:1
	add	sp, #8
	pop	{r4, r5, r7, pc}
.Ltmp1:
	.p2align	2
@ %bb.1:
	.loc	5 0 1 is_stmt 0                 @ ../../../ThirdParty/mbedTLS/library/entropy.c:0:1
__arm_cp.0_0:
	.long	mbedtls_hardware_poll
.Lcpi_end0:
	.size	__arm_cp.0_0, .Lcpi_end0-__arm_cp.0_0
.Lfunc_end0:
	.size	mbedtls_entropy_init, .Lfunc_end0-mbedtls_entropy_init
	.cfi_endproc
	.cantunwind
	.fnend
                                        @ -- End function
	.section	.text.mbedtls_entropy_add_source,"ax",%progbits
	.hidden	mbedtls_entropy_add_source      @ -- Begin function mbedtls_entropy_add_source
	.globl	mbedtls_entropy_add_source
	.p2align	1
	.type	mbedtls_entropy_add_source,%function
	.code	16                              @ @mbedtls_entropy_add_source
	.thumb_func
mbedtls_entropy_add_source:
.Lfunc_begin1:
	.loc	5 146 0 is_stmt 1               @ ../../../ThirdParty/mbedTLS/library/entropy.c:146:0
	.fnstart
	.cfi_startproc
@ %bb.0:
	@DEBUG_VALUE: mbedtls_entropy_add_source:ctx <- $r0
	@DEBUG_VALUE: mbedtls_entropy_add_source:f_source <- $r1
	@DEBUG_VALUE: mbedtls_entropy_add_source:p_source <- $r2
	@DEBUG_VALUE: mbedtls_entropy_add_source:threshold <- $r3
	.save	{r4, r5, r6, r7, lr}
	push	{r4, r5, r6, r7, lr}
	.cfi_def_cfa_offset 20
	.cfi_offset lr, -4
	.cfi_offset r7, -8
	.cfi_offset r6, -12
	.cfi_offset r5, -16
	.cfi_offset r4, -20
	movs	r4, #224
.Ltmp2:
	@DEBUG_VALUE: mbedtls_entropy_add_source:strong <- [DW_OP_plus_uconst 20] [$sp+0]
	@DEBUG_VALUE: mbedtls_entropy_add_source:threshold <- $r3
	@DEBUG_VALUE: mbedtls_entropy_add_source:p_source <- $r2
	@DEBUG_VALUE: mbedtls_entropy_add_source:f_source <- $r1
	@DEBUG_VALUE: mbedtls_entropy_add_source:ctx <- $r0
	.loc	5 154 16 prologue_end           @ ../../../ThirdParty/mbedTLS/library/entropy.c:154:16
	ldr	r4, [r0, r4]
.Ltmp3:
	@DEBUG_VALUE: mbedtls_entropy_add_source:ret <- 0
	@DEBUG_VALUE: mbedtls_entropy_add_source:idx <- $r4
	.loc	5 155 9                         @ ../../../ThirdParty/mbedTLS/library/entropy.c:155:9
	cmp	r4, #19
	ble	.LBB1_2
.Ltmp4:
@ %bb.1:
	@DEBUG_VALUE: mbedtls_entropy_add_source:idx <- $r4
	@DEBUG_VALUE: mbedtls_entropy_add_source:threshold <- $r3
	@DEBUG_VALUE: mbedtls_entropy_add_source:p_source <- $r2
	@DEBUG_VALUE: mbedtls_entropy_add_source:f_source <- $r1
	@DEBUG_VALUE: mbedtls_entropy_add_source:ctx <- $r0
	@DEBUG_VALUE: mbedtls_entropy_add_source:strong <- [DW_OP_plus_uconst 20] [$sp+0]
	@DEBUG_VALUE: mbedtls_entropy_add_source:ret <- 0
	.loc	5 0 9 is_stmt 0                 @ ../../../ThirdParty/mbedTLS/library/entropy.c:0:9
	movs	r0, #61
.Ltmp5:
	@DEBUG_VALUE: mbedtls_entropy_add_source:ctx <- [DW_OP_LLVM_entry_value 1] $r0
	mvns	r0, r0
.Ltmp6:
	@DEBUG_VALUE: mbedtls_entropy_add_source:ret <- $r0
	@DEBUG_LABEL: mbedtls_entropy_add_source:exit
	.loc	5 174 5 is_stmt 1               @ ../../../ThirdParty/mbedTLS/library/entropy.c:174:5
	pop	{r4, r5, r6, r7, pc}
.Ltmp7:
.LBB1_2:
	@DEBUG_VALUE: mbedtls_entropy_add_source:idx <- $r4
	@DEBUG_VALUE: mbedtls_entropy_add_source:threshold <- $r3
	@DEBUG_VALUE: mbedtls_entropy_add_source:p_source <- $r2
	@DEBUG_VALUE: mbedtls_entropy_add_source:f_source <- $r1
	@DEBUG_VALUE: mbedtls_entropy_add_source:ctx <- $r0
	@DEBUG_VALUE: mbedtls_entropy_add_source:strong <- [DW_OP_plus_uconst 20] [$sp+0]
	@DEBUG_VALUE: mbedtls_entropy_add_source:ret <- 0
	.loc	5 0 5 is_stmt 0                 @ ../../../ThirdParty/mbedTLS/library/entropy.c:0:5
	ldr	r5, [sp, #20]
	movs	r6, #20
	.loc	5 161 22 is_stmt 1              @ ../../../ThirdParty/mbedTLS/library/entropy.c:161:22
	muls	r6, r4, r6
	adds	r6, r0, r6
	adds	r0, #224
.Ltmp8:
	@DEBUG_VALUE: mbedtls_entropy_add_source:ctx <- [DW_OP_LLVM_entry_value 1] $r0
	.loc	5 0 22 is_stmt 0                @ ../../../ThirdParty/mbedTLS/library/entropy.c:0:22
	movs	r7, #228
	.loc	5 161 32                        @ ../../../ThirdParty/mbedTLS/library/entropy.c:161:32
	str	r1, [r6, r7]
	.loc	5 166 22 is_stmt 1              @ ../../../ThirdParty/mbedTLS/library/entropy.c:166:22
	adds	r1, r4, #1
.Ltmp9:
	@DEBUG_VALUE: mbedtls_entropy_add_source:f_source <- [DW_OP_LLVM_entry_value 1] $r1
	str	r1, [r0]
	.loc	5 161 22                        @ ../../../ThirdParty/mbedTLS/library/entropy.c:161:22
	adds	r6, #228
	.loc	5 163 32                        @ ../../../ThirdParty/mbedTLS/library/entropy.c:163:32
	str	r3, [r6, #12]
	.loc	5 164 32                        @ ../../../ThirdParty/mbedTLS/library/entropy.c:164:32
	str	r5, [r6, #16]
	.loc	5 162 32                        @ ../../../ThirdParty/mbedTLS/library/entropy.c:162:32
	str	r2, [r6, #4]
	movs	r0, #0
.Ltmp10:
	@DEBUG_VALUE: mbedtls_entropy_add_source:ret <- $r0
	@DEBUG_LABEL: mbedtls_entropy_add_source:exit
	.loc	5 174 5                         @ ../../../ThirdParty/mbedTLS/library/entropy.c:174:5
	pop	{r4, r5, r6, r7, pc}
.Ltmp11:
.Lfunc_end1:
	.size	mbedtls_entropy_add_source, .Lfunc_end1-mbedtls_entropy_add_source
	.cfi_endproc
	.cantunwind
	.fnend
                                        @ -- End function
	.section	.text.mbedtls_entropy_free,"ax",%progbits
	.hidden	mbedtls_entropy_free            @ -- Begin function mbedtls_entropy_free
	.globl	mbedtls_entropy_free
	.p2align	1
	.type	mbedtls_entropy_free,%function
	.code	16                              @ @mbedtls_entropy_free
	.thumb_func
mbedtls_entropy_free:
.Lfunc_begin2:
	.loc	5 123 0                         @ ../../../ThirdParty/mbedTLS/library/entropy.c:123:0
	.fnstart
	.cfi_startproc
@ %bb.0:
	@DEBUG_VALUE: mbedtls_entropy_free:ctx <- $r0
	.save	{r4, r5, r7, lr}
	push	{r4, r5, r7, lr}
	.cfi_def_cfa_offset 16
	.cfi_offset lr, -4
	.cfi_offset r7, -8
	.cfi_offset r5, -12
	.cfi_offset r4, -16
	mov	r4, r0
.Ltmp12:
	@DEBUG_VALUE: mbedtls_entropy_free:ctx <- $r4
	.loc	5 131 32 prologue_end           @ ../../../ThirdParty/mbedTLS/library/entropy.c:131:32
	adds	r0, #8
	.loc	5 131 5 is_stmt 0               @ ../../../ThirdParty/mbedTLS/library/entropy.c:131:5
	bl	mbedtls_sha512_free
	movs	r0, #224
	movs	r5, #0
	.loc	5 138 23 is_stmt 1              @ ../../../ThirdParty/mbedTLS/library/entropy.c:138:23
	str	r5, [r4, r0]
	.loc	5 139 31                        @ ../../../ThirdParty/mbedTLS/library/entropy.c:139:31
	mov	r0, r4
	adds	r0, #228
	.loc	5 139 5 is_stmt 0               @ ../../../ThirdParty/mbedTLS/library/entropy.c:139:5
	movw	r1, #400
	bl	mbedtls_platform_zeroize
	.loc	5 140 30 is_stmt 1              @ ../../../ThirdParty/mbedTLS/library/entropy.c:140:30
	str	r5, [r4]
	.loc	5 141 1                         @ ../../../ThirdParty/mbedTLS/library/entropy.c:141:1
	pop	{r4, r5, r7, pc}
.Ltmp13:
.Lfunc_end2:
	.size	mbedtls_entropy_free, .Lfunc_end2-mbedtls_entropy_free
	.cfi_endproc
	.cantunwind
	.fnend
                                        @ -- End function
	.section	.text.mbedtls_entropy_update_manual,"ax",%progbits
	.hidden	mbedtls_entropy_update_manual   @ -- Begin function mbedtls_entropy_update_manual
	.globl	mbedtls_entropy_update_manual
	.p2align	1
	.type	mbedtls_entropy_update_manual,%function
	.code	16                              @ @mbedtls_entropy_update_manual
	.thumb_func
mbedtls_entropy_update_manual:
.Lfunc_begin3:
	.loc	5 238 0                         @ ../../../ThirdParty/mbedTLS/library/entropy.c:238:0
	.fnstart
	.cfi_startproc
@ %bb.0:
	@DEBUG_VALUE: mbedtls_entropy_update_manual:ctx <- $r0
	@DEBUG_VALUE: mbedtls_entropy_update_manual:data <- $r1
	@DEBUG_VALUE: mbedtls_entropy_update_manual:len <- $r2
	.save	{r7, lr}
	push	{r7, lr}
	.cfi_def_cfa_offset 8
	.cfi_offset lr, -4
	.cfi_offset r7, -8
	mov	r3, r2
	mov	r2, r1
.Ltmp14:
	@DEBUG_VALUE: mbedtls_entropy_update_manual:len <- [DW_OP_LLVM_entry_value 1] $r2
	@DEBUG_VALUE: mbedtls_entropy_update_manual:len <- $r3
	@DEBUG_VALUE: mbedtls_entropy_update_manual:data <- $r2
	@DEBUG_VALUE: mbedtls_entropy_update_manual:ctx <- $r0
	movs	r1, #20
	@DEBUG_VALUE: mbedtls_entropy_update_manual:len <- $r3
	@DEBUG_VALUE: mbedtls_entropy_update_manual:data <- $r2
	@DEBUG_VALUE: mbedtls_entropy_update_manual:ctx <- $r0
.Ltmp15:
	.loc	5 246 11 prologue_end           @ ../../../ThirdParty/mbedTLS/library/entropy.c:246:11
	bl	entropy_update
.Ltmp16:
	@DEBUG_VALUE: mbedtls_entropy_update_manual:ctx <- [DW_OP_LLVM_entry_value 1] $r0
	@DEBUG_VALUE: mbedtls_entropy_update_manual:ret <- $r0
	.loc	5 253 5                         @ ../../../ThirdParty/mbedTLS/library/entropy.c:253:5
	pop	{r7, pc}
.Ltmp17:
.Lfunc_end3:
	.size	mbedtls_entropy_update_manual, .Lfunc_end3-mbedtls_entropy_update_manual
	.cfi_endproc
	.cantunwind
	.fnend
                                        @ -- End function
	.section	.text.entropy_update,"ax",%progbits
	.p2align	1                               @ -- Begin function entropy_update
	.type	entropy_update,%function
	.code	16                              @ @entropy_update
	.thumb_func
entropy_update:
.Lfunc_begin4:
	.loc	5 182 0                         @ ../../../ThirdParty/mbedTLS/library/entropy.c:182:0
	.fnstart
	.cfi_startproc
@ %bb.0:
	@DEBUG_VALUE: entropy_update:ctx <- $r0
	@DEBUG_VALUE: entropy_update:source_id <- $r1
	@DEBUG_VALUE: entropy_update:data <- $r2
	@DEBUG_VALUE: entropy_update:len <- $r3
	.save	{r4, r5, r6, r7, lr}
	push	{r4, r5, r6, r7, lr}
	.cfi_def_cfa_offset 20
	.cfi_offset lr, -4
	.cfi_offset r7, -8
	.cfi_offset r6, -12
	.cfi_offset r5, -16
	.cfi_offset r4, -20
	.pad	#76
	sub	sp, #76
	.cfi_def_cfa_offset 96
	mov	r5, r3
	mov	r7, r1
	mov	r4, r0
.Ltmp18:
	@DEBUG_VALUE: entropy_update:ret <- 0
	@DEBUG_VALUE: entropy_update:p <- undef
	@DEBUG_VALUE: entropy_update:use_len <- $r5
	@DEBUG_VALUE: entropy_update:len <- $r5
	@DEBUG_VALUE: entropy_update:data <- $r2
	@DEBUG_VALUE: entropy_update:source_id <- $r7
	@DEBUG_VALUE: entropy_update:ctx <- $r4
	.loc	5 189 9 prologue_end            @ ../../../ThirdParty/mbedTLS/library/entropy.c:189:9
	cmp	r3, #65
	blo	.LBB4_3
.Ltmp19:
@ %bb.1:
	@DEBUG_VALUE: entropy_update:source_id <- $r7
	@DEBUG_VALUE: entropy_update:len <- $r5
	@DEBUG_VALUE: entropy_update:use_len <- $r5
	@DEBUG_VALUE: entropy_update:ctx <- $r4
	@DEBUG_VALUE: entropy_update:data <- $r2
	@DEBUG_VALUE: entropy_update:ret <- 0
	.loc	5 0 9 is_stmt 0                 @ ../../../ThirdParty/mbedTLS/library/entropy.c:0:9
	add	r6, sp, #8
	movs	r3, #0
.Ltmp20:
	.loc	5 192 21 is_stmt 1              @ ../../../ThirdParty/mbedTLS/library/entropy.c:192:21
	mov	r0, r2
	mov	r1, r5
	str	r6, [sp, #4]                    @ 4-byte Spill
	mov	r2, r6
.Ltmp21:
	@DEBUG_VALUE: entropy_update:data <- [DW_OP_LLVM_entry_value 1] $r2
	bl	mbedtls_sha512_ret
	mov	r6, r0
.Ltmp22:
	@DEBUG_VALUE: entropy_update:ret <- $r6
	.loc	5 192 13 is_stmt 0              @ ../../../ThirdParty/mbedTLS/library/entropy.c:192:13
	cbnz	r0, .LBB4_8
.Ltmp23:
@ %bb.2:
	@DEBUG_VALUE: entropy_update:source_id <- $r7
	@DEBUG_VALUE: entropy_update:ret <- $r6
	@DEBUG_VALUE: entropy_update:len <- $r5
	@DEBUG_VALUE: entropy_update:use_len <- $r5
	@DEBUG_VALUE: entropy_update:ctx <- $r4
	@DEBUG_VALUE: entropy_update:data <- [DW_OP_LLVM_entry_value 1] $r2
	.loc	5 0 13                          @ ../../../ThirdParty/mbedTLS/library/entropy.c:0:13
	movs	r5, #64
.Ltmp24:
	b	.LBB4_4
.Ltmp25:
.LBB4_3:
	@DEBUG_VALUE: entropy_update:source_id <- $r7
	@DEBUG_VALUE: entropy_update:len <- $r5
	@DEBUG_VALUE: entropy_update:use_len <- $r5
	@DEBUG_VALUE: entropy_update:ctx <- $r4
	@DEBUG_VALUE: entropy_update:data <- $r2
	@DEBUG_VALUE: entropy_update:ret <- 0
	str	r2, [sp, #4]                    @ 4-byte Spill
.Ltmp26:
	@DEBUG_VALUE: entropy_update:data <- [DW_OP_plus_uconst 4] [$sp+0]
.LBB4_4:
	@DEBUG_VALUE: entropy_update:source_id <- $r7
	@DEBUG_VALUE: entropy_update:ctx <- $r4
	@DEBUG_VALUE: entropy_update:source_id <- $r7
	@DEBUG_VALUE: entropy_update:use_len <- $r5
	@DEBUG_VALUE: entropy_update:p <- [DW_OP_plus_uconst 4] [$sp+0]
	add	r0, sp, #72
	.loc	5 203 15 is_stmt 1              @ ../../../ThirdParty/mbedTLS/library/entropy.c:203:15
	strb	r5, [r0, #1]
	.loc	5 202 15                        @ ../../../ThirdParty/mbedTLS/library/entropy.c:202:15
	strb	r7, [r0]
.Ltmp27:
	.loc	5 211 14                        @ ../../../ThirdParty/mbedTLS/library/entropy.c:211:14
	ldr	r0, [r4]
	.loc	5 211 39 is_stmt 0              @ ../../../ThirdParty/mbedTLS/library/entropy.c:211:39
	cbz	r0, .LBB4_7
.Ltmp28:
.LBB4_5:
	@DEBUG_VALUE: entropy_update:source_id <- $r7
	@DEBUG_VALUE: entropy_update:use_len <- $r5
	@DEBUG_VALUE: entropy_update:ctx <- $r4
	@DEBUG_VALUE: entropy_update:p <- [DW_OP_plus_uconst 4] [$sp+0]
	.loc	5 0 39                          @ ../../../ThirdParty/mbedTLS/library/entropy.c:0:39
	movs	r0, #1
	.loc	5 215 34 is_stmt 1              @ ../../../ThirdParty/mbedTLS/library/entropy.c:215:34
	str	r0, [r4]
.Ltmp29:
	.loc	5 216 50                        @ ../../../ThirdParty/mbedTLS/library/entropy.c:216:50
	adds	r4, #8
.Ltmp30:
	.loc	5 0 50 is_stmt 0                @ ../../../ThirdParty/mbedTLS/library/entropy.c:0:50
	add	r1, sp, #72
	movs	r2, #2
	.loc	5 216 17                        @ ../../../ThirdParty/mbedTLS/library/entropy.c:216:17
	mov	r0, r4
	bl	mbedtls_sha512_update_ret
	mov	r6, r0
.Ltmp31:
	@DEBUG_VALUE: entropy_update:ret <- $r6
	.loc	5 216 9                         @ ../../../ThirdParty/mbedTLS/library/entropy.c:216:9
	cbnz	r0, .LBB4_8
.Ltmp32:
@ %bb.6:
	@DEBUG_VALUE: entropy_update:source_id <- $r7
	@DEBUG_VALUE: entropy_update:ret <- $r6
	@DEBUG_VALUE: entropy_update:use_len <- $r5
	@DEBUG_VALUE: entropy_update:p <- [DW_OP_plus_uconst 4] [$sp+0]
	.loc	5 218 11 is_stmt 1              @ ../../../ThirdParty/mbedTLS/library/entropy.c:218:11
	mov	r0, r4
	ldr	r1, [sp, #4]                    @ 4-byte Reload
	mov	r2, r5
	bl	mbedtls_sha512_update_ret
	mov	r6, r0
.Ltmp33:
	@DEBUG_VALUE: entropy_update:ret <- $r6
	.loc	5 0 11 is_stmt 0                @ ../../../ThirdParty/mbedTLS/library/entropy.c:0:11
	b	.LBB4_8
.Ltmp34:
.LBB4_7:
	@DEBUG_VALUE: entropy_update:source_id <- $r7
	@DEBUG_VALUE: entropy_update:use_len <- $r5
	@DEBUG_VALUE: entropy_update:ctx <- $r4
	@DEBUG_VALUE: entropy_update:p <- [DW_OP_plus_uconst 4] [$sp+0]
	.loc	5 212 54 is_stmt 1              @ ../../../ThirdParty/mbedTLS/library/entropy.c:212:54
	mov	r0, r4
	adds	r0, #8
	movs	r1, #0
	.loc	5 212 21 is_stmt 0              @ ../../../ThirdParty/mbedTLS/library/entropy.c:212:21
	bl	mbedtls_sha512_starts_ret
	mov	r6, r0
.Ltmp35:
	@DEBUG_VALUE: entropy_update:ret <- $r6
	.loc	5 211 9 is_stmt 1               @ ../../../ThirdParty/mbedTLS/library/entropy.c:211:9
	cmp	r0, #0
	beq	.LBB4_5
.Ltmp36:
.LBB4_8:
	@DEBUG_VALUE: entropy_update:source_id <- $r7
	@DEBUG_VALUE: entropy_update:ret <- $r6
	@DEBUG_VALUE: entropy_update:use_len <- $r5
	@DEBUG_VALUE: entropy_update:ret <- $r6
	@DEBUG_LABEL: entropy_update:cleanup
	.loc	5 0 9 is_stmt 0                 @ ../../../ThirdParty/mbedTLS/library/entropy.c:0:9
	add	r0, sp, #8
	movs	r1, #64
	.loc	5 231 5 is_stmt 1               @ ../../../ThirdParty/mbedTLS/library/entropy.c:231:5
	bl	mbedtls_platform_zeroize
	.loc	5 233 5                         @ ../../../ThirdParty/mbedTLS/library/entropy.c:233:5
	mov	r0, r6
	add	sp, #76
	pop	{r4, r5, r6, r7, pc}
.Ltmp37:
.Lfunc_end4:
	.size	entropy_update, .Lfunc_end4-entropy_update
	.cfi_endproc
	.cantunwind
	.fnend
                                        @ -- End function
	.section	.text.mbedtls_entropy_gather,"ax",%progbits
	.hidden	mbedtls_entropy_gather          @ -- Begin function mbedtls_entropy_gather
	.globl	mbedtls_entropy_gather
	.p2align	1
	.type	mbedtls_entropy_gather,%function
	.code	16                              @ @mbedtls_entropy_gather
	.thumb_func
mbedtls_entropy_gather:
.Lfunc_begin5:
	.loc	5 308 0                         @ ../../../ThirdParty/mbedTLS/library/entropy.c:308:0
	.fnstart
	.cfi_startproc
@ %bb.0:
	@DEBUG_VALUE: mbedtls_entropy_gather:ctx <- $r0
	@DEBUG_VALUE: mbedtls_entropy_gather:ctx <- $r0
	@DEBUG_VALUE: mbedtls_entropy_gather:ctx <- $r0
	.save	{r7, lr}
	push	{r7, lr}
	.cfi_def_cfa_offset 8
	.cfi_offset lr, -4
	.cfi_offset r7, -8
.Ltmp38:
	.loc	5 316 11 prologue_end           @ ../../../ThirdParty/mbedTLS/library/entropy.c:316:11
	bl	entropy_gather_internal
.Ltmp39:
	@DEBUG_VALUE: mbedtls_entropy_gather:ctx <- [DW_OP_LLVM_entry_value 1] $r0
	@DEBUG_VALUE: mbedtls_entropy_gather:ret <- $r0
	.loc	5 323 5                         @ ../../../ThirdParty/mbedTLS/library/entropy.c:323:5
	pop	{r7, pc}
.Ltmp40:
.Lfunc_end5:
	.size	mbedtls_entropy_gather, .Lfunc_end5-mbedtls_entropy_gather
	.cfi_endproc
	.cantunwind
	.fnend
                                        @ -- End function
	.section	.text.entropy_gather_internal,"ax",%progbits
	.p2align	1                               @ -- Begin function entropy_gather_internal
	.type	entropy_gather_internal,%function
	.code	16                              @ @entropy_gather_internal
	.thumb_func
entropy_gather_internal:
.Lfunc_begin6:
	.loc	5 260 0                         @ ../../../ThirdParty/mbedTLS/library/entropy.c:260:0
	.fnstart
	.cfi_startproc
@ %bb.0:
	@DEBUG_VALUE: entropy_gather_internal:ctx <- $r0
	.save	{r4, r5, r6, r7, lr}
	push	{r4, r5, r6, r7, lr}
	.cfi_def_cfa_offset 20
	.cfi_offset lr, -4
	.cfi_offset r7, -8
	.cfi_offset r6, -12
	.cfi_offset r5, -16
	.cfi_offset r4, -20
	.pad	#172
	sub	sp, #172
	.cfi_def_cfa_offset 192
	movs	r1, #224
.Ltmp41:
	@DEBUG_VALUE: entropy_gather_internal:have_one_strong <- 0
	@DEBUG_VALUE: entropy_gather_internal:ctx <- $r0
	.loc	5 265 14 prologue_end           @ ../../../ThirdParty/mbedTLS/library/entropy.c:265:14
	ldr	r2, [r0, r1]
	movs	r1, #60
	mvns	r4, r1
.Ltmp42:
	.loc	5 265 9 is_stmt 0               @ ../../../ThirdParty/mbedTLS/library/entropy.c:265:9
	cmp	r2, #0
	beq	.LBB6_11
.Ltmp43:
@ %bb.1:
	@DEBUG_VALUE: entropy_gather_internal:ctx <- $r0
	@DEBUG_VALUE: entropy_gather_internal:have_one_strong <- 0
	.loc	5 0 0                           @ ../../../ThirdParty/mbedTLS/library/entropy.c:0:0
	mov	r1, r0
	adds	r1, #224
.Ltmp44:
	@DEBUG_VALUE: entropy_gather_internal:ret <- 0
	@DEBUG_VALUE: entropy_gather_internal:i <- 0
	@DEBUG_VALUE: entropy_gather_internal:have_one_strong <- 0
	str	r1, [sp, #12]                   @ 4-byte Spill
.Ltmp45:
	.loc	5 271 26 is_stmt 1              @ ../../../ThirdParty/mbedTLS/library/entropy.c:271:26
	ldr	r1, [r1]
.Ltmp46:
	.loc	5 271 5 is_stmt 0               @ ../../../ThirdParty/mbedTLS/library/entropy.c:271:5
	cmp	r1, #1
	blt	.LBB6_15
.Ltmp47:
@ %bb.2:
	@DEBUG_VALUE: entropy_gather_internal:ctx <- $r0
	@DEBUG_VALUE: entropy_gather_internal:i <- 0
	@DEBUG_VALUE: entropy_gather_internal:ret <- 0
	@DEBUG_VALUE: entropy_gather_internal:have_one_strong <- 0
	.loc	5 0 5                           @ ../../../ThirdParty/mbedTLS/library/entropy.c:0:5
	str	r0, [sp, #8]                    @ 4-byte Spill
.Ltmp48:
	@DEBUG_VALUE: entropy_gather_internal:ctx <- [DW_OP_plus_uconst 8] [$sp+0]
	mov	r5, r0
	.loc	5 271 5                         @ ../../../ThirdParty/mbedTLS/library/entropy.c:271:5
	adds	r5, #244
	movs	r0, #0
	str	r4, [sp]                        @ 4-byte Spill
	lsls	r1, r4, #2
	str	r1, [sp, #28]                   @ 4-byte Spill
	movs	r1, #228
	str	r1, [sp, #24]                   @ 4-byte Spill
	movs	r1, #232
	str	r1, [sp, #20]                   @ 4-byte Spill
	movs	r1, #128
	str	r1, [sp, #16]                   @ 4-byte Spill
	str	r0, [sp, #4]                    @ 4-byte Spill
	str	r0, [sp, #32]                   @ 4-byte Spill
	mov	r4, r0
	b	.LBB6_5
.Ltmp49:
.LBB6_3:                                @   in Loop: Header=BB6_5 Depth=1
	@DEBUG_VALUE: entropy_gather_internal:i <- $r4
	@DEBUG_VALUE: entropy_gather_internal:ret <- $r0
	@DEBUG_VALUE: entropy_gather_internal:have_one_strong <- [DW_OP_plus_uconst 4] [$sp+0]
	.loc	5 0 5                           @ ../../../ThirdParty/mbedTLS/library/entropy.c:0:5
	movs	r0, #236
.Ltmp50:
	.loc	5 291 33 is_stmt 1              @ ../../../ThirdParty/mbedTLS/library/entropy.c:291:33
	ldr	r1, [r6, r0]
	.loc	5 291 36 is_stmt 0              @ ../../../ThirdParty/mbedTLS/library/entropy.c:291:36
	ldr	r2, [sp, #40]
.Ltmp51:
	@DEBUG_VALUE: entropy_gather_internal:olen <- $r2
	.loc	5 291 33                        @ ../../../ThirdParty/mbedTLS/library/entropy.c:291:33
	adds	r1, r1, r2
	str	r1, [r6, r0]
.Ltmp52:
.LBB6_4:                                @   in Loop: Header=BB6_5 Depth=1
	@DEBUG_VALUE: entropy_gather_internal:i <- $r4
	@DEBUG_VALUE: entropy_gather_internal:have_one_strong <- [DW_OP_plus_uconst 4] [$sp+0]
	@DEBUG_VALUE: entropy_gather_internal:ret <- 0
	.loc	5 271 19 is_stmt 1              @ ../../../ThirdParty/mbedTLS/library/entropy.c:271:19
	adds	r5, #20
	.loc	5 271 41 is_stmt 0              @ ../../../ThirdParty/mbedTLS/library/entropy.c:271:41
	adds	r4, r4, #1
.Ltmp53:
	@DEBUG_VALUE: entropy_gather_internal:i <- $r4
	@DEBUG_VALUE: entropy_gather_internal:have_one_strong <- [DW_OP_plus_uconst 4] [$sp+0]
	.loc	5 271 26                        @ ../../../ThirdParty/mbedTLS/library/entropy.c:271:26
	ldr	r0, [sp, #12]                   @ 4-byte Reload
	ldr	r0, [r0]
.Ltmp54:
	.loc	5 271 5                         @ ../../../ThirdParty/mbedTLS/library/entropy.c:271:5
	cmp	r4, r0
	bge	.LBB6_13
.Ltmp55:
.LBB6_5:                                @ =>This Inner Loop Header: Depth=1
	@DEBUG_VALUE: entropy_gather_internal:ret <- 0
	@DEBUG_VALUE: entropy_gather_internal:have_one_strong <- [DW_OP_plus_uconst 4] [$sp+0]
	@DEBUG_VALUE: entropy_gather_internal:i <- $r4
	.loc	5 273 28 is_stmt 1              @ ../../../ThirdParty/mbedTLS/library/entropy.c:273:28
	ldr	r0, [r5]
.Ltmp56:
	@DEBUG_VALUE: entropy_gather_internal:olen <- 0
	.loc	5 276 14                        @ ../../../ThirdParty/mbedTLS/library/entropy.c:276:14
	str	r0, [sp, #36]                   @ 4-byte Spill
	ldr	r0, [sp, #32]                   @ 4-byte Reload
	str	r0, [sp, #40]
.Ltmp57:
	.loc	5 277 36                        @ ../../../ThirdParty/mbedTLS/library/entropy.c:277:36
	ldr	r0, [sp, #28]                   @ 4-byte Reload
	adds	r6, r0, r5
	ldr	r0, [sp, #24]                   @ 4-byte Reload
	ldr	r7, [r6, r0]
	.loc	5 277 61 is_stmt 0              @ ../../../ThirdParty/mbedTLS/library/entropy.c:277:61
	ldr	r0, [sp, #20]                   @ 4-byte Reload
	ldr	r0, [r6, r0]
.Ltmp58:
	@DEBUG_VALUE: entropy_gather_internal:olen <- [DW_OP_plus_uconst 40, DW_OP_deref] $sp
	.loc	5 0 61                          @ ../../../ThirdParty/mbedTLS/library/entropy.c:0:61
	add	r1, sp, #44
	add	r3, sp, #40
	.loc	5 277 21                        @ ../../../ThirdParty/mbedTLS/library/entropy.c:277:21
	ldr	r2, [sp, #16]                   @ 4-byte Reload
	blx	r7
	ldr	r1, [sp, #36]                   @ 4-byte Reload
.Ltmp59:
	@DEBUG_VALUE: entropy_gather_internal:ret <- $r0
	.loc	5 273 13 is_stmt 1              @ ../../../ThirdParty/mbedTLS/library/entropy.c:273:13
	cmp	r1, #1
	bne	.LBB6_7
.Ltmp60:
@ %bb.6:                                @   in Loop: Header=BB6_5 Depth=1
	@DEBUG_VALUE: entropy_gather_internal:i <- $r4
	@DEBUG_VALUE: entropy_gather_internal:ret <- $r0
	@DEBUG_VALUE: entropy_gather_internal:olen <- [DW_OP_plus_uconst 40, DW_OP_deref] $sp
	@DEBUG_VALUE: entropy_gather_internal:have_one_strong <- [DW_OP_plus_uconst 4] [$sp+0]
	str	r1, [sp, #4]                    @ 4-byte Spill
.Ltmp61:
.LBB6_7:                                @   in Loop: Header=BB6_5 Depth=1
	@DEBUG_VALUE: entropy_gather_internal:i <- $r4
	@DEBUG_VALUE: entropy_gather_internal:ret <- $r0
	@DEBUG_VALUE: entropy_gather_internal:olen <- [DW_OP_plus_uconst 40, DW_OP_deref] $sp
	@DEBUG_VALUE: entropy_gather_internal:have_one_strong <- [DW_OP_plus_uconst 4] [$sp+0]
	@DEBUG_VALUE: entropy_gather_internal:have_one_strong <- [DW_OP_plus_uconst 4] [$sp+0]
	.loc	5 277 13                        @ ../../../ThirdParty/mbedTLS/library/entropy.c:277:13
	cbnz	r0, .LBB6_12
.Ltmp62:
@ %bb.8:                                @   in Loop: Header=BB6_5 Depth=1
	@DEBUG_VALUE: entropy_gather_internal:i <- $r4
	@DEBUG_VALUE: entropy_gather_internal:ret <- $r0
	@DEBUG_VALUE: entropy_gather_internal:olen <- [DW_OP_plus_uconst 40, DW_OP_deref] $sp
	@DEBUG_VALUE: entropy_gather_internal:have_one_strong <- [DW_OP_plus_uconst 4] [$sp+0]
	.loc	5 286 13                        @ ../../../ThirdParty/mbedTLS/library/entropy.c:286:13
	ldr	r3, [sp, #40]
.Ltmp63:
	@DEBUG_VALUE: entropy_gather_internal:olen <- $r3
	.loc	5 286 13 is_stmt 0              @ ../../../ThirdParty/mbedTLS/library/entropy.c:286:13
	cmp	r3, #0
	beq	.LBB6_4
.Ltmp64:
@ %bb.9:                                @   in Loop: Header=BB6_5 Depth=1
	@DEBUG_VALUE: entropy_gather_internal:i <- $r4
	@DEBUG_VALUE: entropy_gather_internal:olen <- $r3
	@DEBUG_VALUE: entropy_gather_internal:ret <- $r0
	@DEBUG_VALUE: entropy_gather_internal:have_one_strong <- [DW_OP_plus_uconst 4] [$sp+0]
	.loc	5 288 25 is_stmt 1              @ ../../../ThirdParty/mbedTLS/library/entropy.c:288:25
	uxtb	r1, r4
	add	r2, sp, #44
	ldr	r0, [sp, #8]                    @ 4-byte Reload
.Ltmp65:
	@DEBUG_VALUE: entropy_gather_internal:ctx <- $r0
	bl	entropy_update
.Ltmp66:
	@DEBUG_VALUE: entropy_gather_internal:ctx <- [DW_OP_LLVM_entry_value 1] $r0
	@DEBUG_VALUE: entropy_gather_internal:ret <- $r0
	.loc	5 288 17 is_stmt 0              @ ../../../ThirdParty/mbedTLS/library/entropy.c:288:17
	cmp	r0, #0
	beq	.LBB6_3
.Ltmp67:
@ %bb.10:
	@DEBUG_VALUE: entropy_gather_internal:i <- $r4
	@DEBUG_VALUE: entropy_gather_internal:ret <- $r0
	@DEBUG_VALUE: entropy_gather_internal:have_one_strong <- [DW_OP_plus_uconst 4] [$sp+0]
	.loc	5 0 0                           @ ../../../ThirdParty/mbedTLS/library/entropy.c:0:0
	mov	r4, r0
.Ltmp68:
	@DEBUG_VALUE: entropy_gather_internal:ret <- $r4
	@DEBUG_VALUE: entropy_gather_internal:ret <- $r4
	b	.LBB6_16
.Ltmp69:
.LBB6_11:
	@DEBUG_VALUE: entropy_gather_internal:ctx <- $r0
	@DEBUG_VALUE: entropy_gather_internal:have_one_strong <- 0
	subs	r4, r4, #3
	b	.LBB6_16
.Ltmp70:
.LBB6_12:
	@DEBUG_VALUE: entropy_gather_internal:i <- $r4
	@DEBUG_VALUE: entropy_gather_internal:ret <- $r0
	@DEBUG_VALUE: entropy_gather_internal:olen <- [DW_OP_plus_uconst 40, DW_OP_deref] $sp
	@DEBUG_VALUE: entropy_gather_internal:have_one_strong <- [DW_OP_plus_uconst 4] [$sp+0]
	mov	r4, r0
.Ltmp71:
	@DEBUG_VALUE: entropy_gather_internal:ret <- $r4
	@DEBUG_VALUE: entropy_gather_internal:ret <- $r4
	b	.LBB6_15
.Ltmp72:
.LBB6_13:
	@DEBUG_VALUE: entropy_gather_internal:i <- $r4
	@DEBUG_VALUE: entropy_gather_internal:have_one_strong <- [DW_OP_plus_uconst 4] [$sp+0]
	@DEBUG_VALUE: entropy_gather_internal:ret <- 0
	.loc	5 295 25 is_stmt 1              @ ../../../ThirdParty/mbedTLS/library/entropy.c:295:25
	ldr	r0, [sp, #4]                    @ 4-byte Reload
	ldr	r4, [sp]                        @ 4-byte Reload
.Ltmp73:
	cbz	r0, .LBB6_15
.Ltmp74:
@ %bb.14:
	@DEBUG_VALUE: entropy_gather_internal:have_one_strong <- [DW_OP_plus_uconst 4] [$sp+0]
	@DEBUG_VALUE: entropy_gather_internal:ret <- 0
	.loc	5 0 25 is_stmt 0                @ ../../../ThirdParty/mbedTLS/library/entropy.c:0:25
	movs	r4, #0
.Ltmp75:
.LBB6_15:
	@DEBUG_VALUE: entropy_gather_internal:ret <- $r4
	@DEBUG_LABEL: entropy_gather_internal:cleanup
	add	r0, sp, #44
	movs	r1, #128
	.loc	5 299 5 is_stmt 1               @ ../../../ThirdParty/mbedTLS/library/entropy.c:299:5
	bl	mbedtls_platform_zeroize
.Ltmp76:
.LBB6_16:
	.loc	5 302 1                         @ ../../../ThirdParty/mbedTLS/library/entropy.c:302:1
	mov	r0, r4
	add	sp, #172
	pop	{r4, r5, r6, r7, pc}
.Ltmp77:
.Lfunc_end6:
	.size	entropy_gather_internal, .Lfunc_end6-entropy_gather_internal
	.cfi_endproc
	.cantunwind
	.fnend
                                        @ -- End function
	.section	.text.mbedtls_entropy_func,"ax",%progbits
	.hidden	mbedtls_entropy_func            @ -- Begin function mbedtls_entropy_func
	.globl	mbedtls_entropy_func
	.p2align	1
	.type	mbedtls_entropy_func,%function
	.code	16                              @ @mbedtls_entropy_func
	.thumb_func
mbedtls_entropy_func:
.Lfunc_begin7:
	.loc	5 327 0                         @ ../../../ThirdParty/mbedTLS/library/entropy.c:327:0
	.fnstart
	.cfi_startproc
@ %bb.0:
	@DEBUG_VALUE: mbedtls_entropy_func:data <- $r0
	@DEBUG_VALUE: mbedtls_entropy_func:output <- $r1
	@DEBUG_VALUE: mbedtls_entropy_func:len <- $r2
	.save	{r4, r5, r6, r7, lr}
	push	{r4, r5, r6, r7, lr}
	.cfi_def_cfa_offset 20
	.cfi_offset lr, -4
	.cfi_offset r7, -8
	.cfi_offset r6, -12
	.cfi_offset r5, -16
	.cfi_offset r4, -20
	.pad	#92
	sub	sp, #92
	.cfi_def_cfa_offset 112
	mov	r6, r0
.Ltmp78:
	@DEBUG_VALUE: mbedtls_entropy_func:ctx <- undef
	movs	r0, #59
.Ltmp79:
	@DEBUG_VALUE: mbedtls_entropy_func:data <- [DW_OP_LLVM_entry_value 1] $r0
	mvns	r7, r0
.Ltmp80:
	@DEBUG_VALUE: mbedtls_entropy_func:count <- 0
	@DEBUG_VALUE: mbedtls_entropy_func:len <- $r2
	@DEBUG_VALUE: mbedtls_entropy_func:output <- $r1
	@DEBUG_VALUE: mbedtls_entropy_func:data <- $r6
	.loc	5 332 9 prologue_end            @ ../../../ThirdParty/mbedTLS/library/entropy.c:332:9
	cmp	r2, #64
	bhi	.LBB7_22
.Ltmp81:
@ %bb.1:
	@DEBUG_VALUE: mbedtls_entropy_func:data <- $r6
	@DEBUG_VALUE: mbedtls_entropy_func:len <- $r2
	@DEBUG_VALUE: mbedtls_entropy_func:output <- $r1
	@DEBUG_VALUE: mbedtls_entropy_func:count <- 0
	.loc	5 0 9 is_stmt 0                 @ ../../../ThirdParty/mbedTLS/library/entropy.c:0:9
	add	r0, sp, #4
	stm	r0!, {r1, r2, r7}               @ 12-byte Folded Spill
	.loc	5 355 5 is_stmt 1               @ ../../../ThirdParty/mbedTLS/library/entropy.c:355:5
	mov	r0, r6
	adds	r0, #236
	str	r0, [sp, #16]                   @ 4-byte Spill
.Ltmp82:
	.loc	5 0 0 is_stmt 0                 @ ../../../ThirdParty/mbedTLS/library/entropy.c:0:0
	mov	r5, r6
	adds	r5, #224
	movs	r4, #0
	str	r5, [sp, #24]                   @ 4-byte Spill
	str	r6, [sp, #20]                   @ 4-byte Spill
	b	.LBB7_4
.Ltmp83:
.LBB7_2:                                @   in Loop: Header=BB7_4 Depth=1
	@DEBUG_VALUE: mbedtls_entropy_func:i <- 0
	@DEBUG_VALUE: mbedtls_entropy_func:done <- 1
	movs	r1, #1
.Ltmp84:
.LBB7_3:                                @   in Loop: Header=BB7_4 Depth=1
	adds	r4, r4, #1
.Ltmp85:
	@DEBUG_VALUE: mbedtls_entropy_func:done <- $r1
	@DEBUG_VALUE: mbedtls_entropy_func:count <- $r4
	ldr	r6, [sp, #20]                   @ 4-byte Reload
	ldr	r5, [sp, #24]                   @ 4-byte Reload
.Ltmp86:
	.loc	5 370 5 is_stmt 1               @ ../../../ThirdParty/mbedTLS/library/entropy.c:370:5
	cbnz	r1, .LBB7_13
.Ltmp87:
.LBB7_4:                                @ =>This Loop Header: Depth=1
                                        @     Child Loop BB7_9 Depth 2
	@DEBUG_VALUE: mbedtls_entropy_func:count <- undef
	.loc	5 357 13                        @ ../../../ThirdParty/mbedTLS/library/entropy.c:357:13
	movw	r0, #257
	cmp	r4, r0
	beq	.LBB7_11
.Ltmp88:
@ %bb.5:                                @   in Loop: Header=BB7_4 Depth=1
	@DEBUG_VALUE: mbedtls_entropy_func:count <- undef
	.loc	5 363 21                        @ ../../../ThirdParty/mbedTLS/library/entropy.c:363:21
	mov	r0, r6
	bl	entropy_gather_internal
.Ltmp89:
	@DEBUG_VALUE: mbedtls_entropy_func:len <- [DW_OP_LLVM_entry_value 1] $r2
	@DEBUG_VALUE: mbedtls_entropy_func:output <- [DW_OP_LLVM_entry_value 1] $r1
	@DEBUG_VALUE: mbedtls_entropy_func:ret <- $r0
	.loc	5 363 13 is_stmt 0              @ ../../../ThirdParty/mbedTLS/library/entropy.c:363:13
	cbnz	r0, .LBB7_12
.Ltmp90:
@ %bb.6:                                @   in Loop: Header=BB7_4 Depth=1
	@DEBUG_VALUE: mbedtls_entropy_func:ret <- $r0
	@DEBUG_VALUE: mbedtls_entropy_func:count <- undef
	@DEBUG_VALUE: mbedtls_entropy_func:done <- 1
	@DEBUG_VALUE: mbedtls_entropy_func:i <- 0
	.loc	5 367 30 is_stmt 1              @ ../../../ThirdParty/mbedTLS/library/entropy.c:367:30
	ldr	r0, [r5]
.Ltmp91:
	.loc	5 367 9 is_stmt 0               @ ../../../ThirdParty/mbedTLS/library/entropy.c:367:9
	cmp	r0, #1
	blt	.LBB7_2
.Ltmp92:
@ %bb.7:                                @   in Loop: Header=BB7_4 Depth=1
	@DEBUG_VALUE: mbedtls_entropy_func:i <- 0
	@DEBUG_VALUE: mbedtls_entropy_func:done <- 1
	.loc	5 0 0                           @ ../../../ThirdParty/mbedTLS/library/entropy.c:0:0
	ldr	r0, [r5]
	movs	r5, #0
	movs	r7, #1
	ldr	r2, [sp, #16]                   @ 4-byte Reload
	mov	r3, r5
	b	.LBB7_9
.Ltmp93:
.LBB7_8:                                @   in Loop: Header=BB7_9 Depth=2
	@DEBUG_VALUE: mbedtls_entropy_func:done <- $r7
	@DEBUG_VALUE: mbedtls_entropy_func:i <- $r3
	@DEBUG_VALUE: mbedtls_entropy_func:done <- $r1
	adds	r2, #20
	.loc	5 367 45                        @ ../../../ThirdParty/mbedTLS/library/entropy.c:367:45
	adds	r3, r3, #1
.Ltmp94:
	@DEBUG_VALUE: mbedtls_entropy_func:i <- $r3
	.loc	5 367 9                         @ ../../../ThirdParty/mbedTLS/library/entropy.c:367:9
	cmp	r3, r0
	mov	r7, r1
	bge	.LBB7_3
.Ltmp95:
.LBB7_9:                                @   Parent Loop BB7_4 Depth=1
                                        @ =>  This Inner Loop Header: Depth=2
	@DEBUG_VALUE: mbedtls_entropy_func:done <- $r7
	@DEBUG_VALUE: mbedtls_entropy_func:i <- $r3
	.loc	5 368 32 is_stmt 1              @ ../../../ThirdParty/mbedTLS/library/entropy.c:368:32
	ldm	r2!, {r1, r6}
	subs	r2, #8
.Ltmp96:
	.loc	5 368 17 is_stmt 0              @ ../../../ThirdParty/mbedTLS/library/entropy.c:368:17
	cmp	r1, r6
	mov	r1, r5
	blo	.LBB7_8
.Ltmp97:
@ %bb.10:                               @   in Loop: Header=BB7_9 Depth=2
	@DEBUG_VALUE: mbedtls_entropy_func:done <- $r7
	@DEBUG_VALUE: mbedtls_entropy_func:i <- $r3
	mov	r1, r7
	b	.LBB7_8
.Ltmp98:
.LBB7_11:
	.loc	5 0 0                           @ ../../../ThirdParty/mbedTLS/library/entropy.c:0:0
	ldr	r7, [sp, #12]                   @ 4-byte Reload
	b	.LBB7_21
.LBB7_12:
.Ltmp99:
	@DEBUG_VALUE: mbedtls_entropy_func:ret <- $r0
	mov	r7, r0
.Ltmp100:
	@DEBUG_VALUE: mbedtls_entropy_func:ret <- $r7
	b	.LBB7_21
.Ltmp101:
.LBB7_13:
	@DEBUG_VALUE: mbedtls_entropy_func:count <- $r4
	@DEBUG_VALUE: mbedtls_entropy_func:done <- $r1
	add	r7, sp, #28
	movs	r1, #64
.Ltmp102:
	.loc	5 373 5 is_stmt 1               @ ../../../ThirdParty/mbedTLS/library/entropy.c:373:5
	mov	r0, r7
	bl	__aeabi_memclr4
.Ltmp103:
	.loc	5 381 50                        @ ../../../ThirdParty/mbedTLS/library/entropy.c:381:50
	mov	r5, r6
	adds	r5, #8
	.loc	5 381 17 is_stmt 0              @ ../../../ThirdParty/mbedTLS/library/entropy.c:381:17
	mov	r0, r5
	mov	r1, r7
	bl	mbedtls_sha512_finish_ret
	mov	r7, r0
.Ltmp104:
	@DEBUG_VALUE: mbedtls_entropy_func:ret <- $r7
	.loc	5 381 9                         @ ../../../ThirdParty/mbedTLS/library/entropy.c:381:9
	cbnz	r0, .LBB7_21
.Ltmp105:
@ %bb.14:
	@DEBUG_VALUE: mbedtls_entropy_func:ret <- $r7
	@DEBUG_VALUE: mbedtls_entropy_func:count <- $r4
	.loc	5 387 5 is_stmt 1               @ ../../../ThirdParty/mbedTLS/library/entropy.c:387:5
	mov	r0, r5
	bl	mbedtls_sha512_free
	.loc	5 388 5                         @ ../../../ThirdParty/mbedTLS/library/entropy.c:388:5
	mov	r0, r5
	bl	mbedtls_sha512_init
	movs	r1, #0
.Ltmp106:
	.loc	5 389 17                        @ ../../../ThirdParty/mbedTLS/library/entropy.c:389:17
	mov	r0, r5
	bl	mbedtls_sha512_starts_ret
	mov	r7, r0
.Ltmp107:
	@DEBUG_VALUE: mbedtls_entropy_func:ret <- $r7
	.loc	5 389 9 is_stmt 0               @ ../../../ThirdParty/mbedTLS/library/entropy.c:389:9
	cbnz	r0, .LBB7_21
.Ltmp108:
@ %bb.15:
	@DEBUG_VALUE: mbedtls_entropy_func:ret <- $r7
	@DEBUG_VALUE: mbedtls_entropy_func:count <- $r4
	.loc	5 0 9                           @ ../../../ThirdParty/mbedTLS/library/entropy.c:0:9
	add	r1, sp, #28
	movs	r2, #64
.Ltmp109:
	.loc	5 391 17 is_stmt 1              @ ../../../ThirdParty/mbedTLS/library/entropy.c:391:17
	mov	r0, r5
	bl	mbedtls_sha512_update_ret
	mov	r7, r0
.Ltmp110:
	@DEBUG_VALUE: mbedtls_entropy_func:ret <- $r7
	.loc	5 391 9 is_stmt 0               @ ../../../ThirdParty/mbedTLS/library/entropy.c:391:9
	cbnz	r0, .LBB7_21
.Ltmp111:
@ %bb.16:
	@DEBUG_VALUE: mbedtls_entropy_func:ret <- $r7
	@DEBUG_VALUE: mbedtls_entropy_func:count <- $r4
	.loc	5 0 9                           @ ../../../ThirdParty/mbedTLS/library/entropy.c:0:9
	movs	r1, #64
	add	r0, sp, #28
	movs	r4, #0
.Ltmp112:
	.loc	5 398 17 is_stmt 1              @ ../../../ThirdParty/mbedTLS/library/entropy.c:398:17
	mov	r2, r0
	mov	r3, r4
	bl	mbedtls_sha512_ret
	mov	r7, r0
.Ltmp113:
	@DEBUG_VALUE: mbedtls_entropy_func:ret <- $r7
	.loc	5 398 9 is_stmt 0               @ ../../../ThirdParty/mbedTLS/library/entropy.c:398:9
	cbnz	r0, .LBB7_21
.Ltmp114:
@ %bb.17:
	@DEBUG_VALUE: mbedtls_entropy_func:ret <- $r7
	@DEBUG_VALUE: mbedtls_entropy_func:i <- 0
	.loc	5 0 9                           @ ../../../ThirdParty/mbedTLS/library/entropy.c:0:9
	ldr	r1, [sp, #24]                   @ 4-byte Reload
.Ltmp115:
	.loc	5 424 26 is_stmt 1              @ ../../../ThirdParty/mbedTLS/library/entropy.c:424:26
	ldr	r0, [r1]
.Ltmp116:
	.loc	5 424 5 is_stmt 0               @ ../../../ThirdParty/mbedTLS/library/entropy.c:424:5
	cmp	r0, #1
	blt	.LBB7_20
.Ltmp117:
@ %bb.18:
	@DEBUG_VALUE: mbedtls_entropy_func:ret <- $r7
	@DEBUG_VALUE: mbedtls_entropy_func:i <- 0
	adds	r6, #236
.Ltmp118:
	.loc	5 0 0                           @ ../../../ThirdParty/mbedTLS/library/entropy.c:0:0
	ldr	r0, [r1]
	movs	r1, #0
	mov	r2, r1
.Ltmp119:
.LBB7_19:                               @ =>This Inner Loop Header: Depth=1
	@DEBUG_VALUE: mbedtls_entropy_func:ret <- $r7
	@DEBUG_VALUE: mbedtls_entropy_func:i <- $r2
	.loc	5 425 29 is_stmt 1              @ ../../../ThirdParty/mbedTLS/library/entropy.c:425:29
	str	r1, [r6]
	adds	r6, #20
	.loc	5 424 41                        @ ../../../ThirdParty/mbedTLS/library/entropy.c:424:41
	adds	r2, r2, #1
.Ltmp120:
	@DEBUG_VALUE: mbedtls_entropy_func:i <- $r2
	.loc	5 424 5 is_stmt 0               @ ../../../ThirdParty/mbedTLS/library/entropy.c:424:5
	cmp	r2, r0
	blt	.LBB7_19
.Ltmp121:
.LBB7_20:
	@DEBUG_VALUE: mbedtls_entropy_func:ret <- $r7
	.loc	5 0 5                           @ ../../../ThirdParty/mbedTLS/library/entropy.c:0:5
	add	r1, sp, #28
	.loc	5 427 5 is_stmt 1               @ ../../../ThirdParty/mbedTLS/library/entropy.c:427:5
	ldr	r0, [sp, #4]                    @ 4-byte Reload
	ldr	r2, [sp, #8]                    @ 4-byte Reload
	bl	__aeabi_memcpy
.Ltmp122:
	@DEBUG_VALUE: mbedtls_entropy_func:ret <- 0
	.loc	5 0 0 is_stmt 0                 @ ../../../ThirdParty/mbedTLS/library/entropy.c:0:0
	mov	r7, r4
.Ltmp123:
.LBB7_21:
	@DEBUG_VALUE: mbedtls_entropy_func:ret <- $r7
	@DEBUG_LABEL: mbedtls_entropy_func:exit
	add	r0, sp, #28
	movs	r1, #64
	.loc	5 432 5 is_stmt 1               @ ../../../ThirdParty/mbedTLS/library/entropy.c:432:5
	bl	mbedtls_platform_zeroize
.Ltmp124:
.LBB7_22:
	.loc	5 440 1                         @ ../../../ThirdParty/mbedTLS/library/entropy.c:440:1
	mov	r0, r7
	add	sp, #92
	pop	{r4, r5, r6, r7, pc}
.Ltmp125:
.Lfunc_end7:
	.size	mbedtls_entropy_func, .Lfunc_end7-mbedtls_entropy_func
	.cfi_endproc
	.cantunwind
	.fnend
                                        @ -- End function
	.section	.text.mbedtls_entropy_source_self_test,"ax",%progbits
	.hidden	mbedtls_entropy_source_self_test @ -- Begin function mbedtls_entropy_source_self_test
	.globl	mbedtls_entropy_source_self_test
	.p2align	2
	.type	mbedtls_entropy_source_self_test,%function
	.code	16                              @ @mbedtls_entropy_source_self_test
	.thumb_func
mbedtls_entropy_source_self_test:
.Lfunc_begin8:
	.loc	5 597 0                         @ ../../../ThirdParty/mbedTLS/library/entropy.c:597:0
	.fnstart
	.cfi_startproc
@ %bb.0:
	@DEBUG_VALUE: mbedtls_entropy_source_self_test:verbose <- $r0
	.save	{r4, r5, r7, lr}
	push	{r4, r5, r7, lr}
	.cfi_def_cfa_offset 16
	.cfi_offset lr, -4
	.cfi_offset r7, -8
	.cfi_offset r5, -12
	.cfi_offset r4, -16
	.pad	#32
	sub	sp, #32
	.cfi_def_cfa_offset 48
	mov	r4, r0
.Ltmp126:
	@DEBUG_VALUE: mbedtls_entropy_source_self_test:ret <- 0
	@DEBUG_VALUE: mbedtls_entropy_source_self_test:verbose <- $r4
	.loc	5 602 9 prologue_end            @ ../../../ThirdParty/mbedTLS/library/entropy.c:602:9
	cbz	r0, .LBB8_2
.Ltmp127:
@ %bb.1:
	@DEBUG_VALUE: mbedtls_entropy_source_self_test:verbose <- $r4
	@DEBUG_VALUE: mbedtls_entropy_source_self_test:ret <- 0
	.loc	5 603 9                         @ ../../../ThirdParty/mbedTLS/library/entropy.c:603:9
	adr	r0, .LCPI8_0
	bl	__2printf
.Ltmp128:
.LBB8_2:
	@DEBUG_VALUE: mbedtls_entropy_source_self_test:verbose <- $r4
	@DEBUG_VALUE: mbedtls_entropy_source_self_test:ret <- 0
	.loc	5 0 9 is_stmt 0                 @ ../../../ThirdParty/mbedTLS/library/entropy.c:0:9
	movs	r0, #0
	.loc	5 605 5 is_stmt 1               @ ../../../ThirdParty/mbedTLS/library/entropy.c:605:5
	str	r0, [sp, #28]
	str	r0, [sp, #24]
	str	r0, [sp, #20]
	str	r0, [sp, #16]
	.loc	5 606 5                         @ ../../../ThirdParty/mbedTLS/library/entropy.c:606:5
	str	r0, [sp]
	str	r0, [sp, #4]
	str	r0, [sp, #8]
	str	r0, [sp, #12]
	add	r0, sp, #16
.Ltmp129:
	.loc	5 608 17                        @ ../../../ThirdParty/mbedTLS/library/entropy.c:608:17
	bl	mbedtls_entropy_source_self_test_gather
	mov	r5, r0
.Ltmp130:
	@DEBUG_VALUE: mbedtls_entropy_source_self_test:ret <- $r5
	.loc	5 608 9 is_stmt 0               @ ../../../ThirdParty/mbedTLS/library/entropy.c:608:9
	cbnz	r0, .LBB8_7
.Ltmp131:
@ %bb.3:
	@DEBUG_VALUE: mbedtls_entropy_source_self_test:ret <- $r5
	@DEBUG_VALUE: mbedtls_entropy_source_self_test:verbose <- $r4
	.loc	5 0 9                           @ ../../../ThirdParty/mbedTLS/library/entropy.c:0:9
	mov	r0, sp
.Ltmp132:
	.loc	5 610 17 is_stmt 1              @ ../../../ThirdParty/mbedTLS/library/entropy.c:610:17
	bl	mbedtls_entropy_source_self_test_gather
	mov	r5, r0
.Ltmp133:
	@DEBUG_VALUE: mbedtls_entropy_source_self_test:ret <- $r5
	.loc	5 610 9 is_stmt 0               @ ../../../ThirdParty/mbedTLS/library/entropy.c:610:9
	cbnz	r0, .LBB8_7
.Ltmp134:
@ %bb.4:
	@DEBUG_VALUE: mbedtls_entropy_source_self_test:ret <- $r5
	@DEBUG_VALUE: mbedtls_entropy_source_self_test:verbose <- $r4
	.loc	5 0 9                           @ ../../../ThirdParty/mbedTLS/library/entropy.c:0:9
	add	r0, sp, #16
.Ltmp135:
	.loc	5 614 17 is_stmt 1              @ ../../../ThirdParty/mbedTLS/library/entropy.c:614:17
	bl	mbedtls_entropy_source_self_test_check_bits
	mov	r5, r0
.Ltmp136:
	@DEBUG_VALUE: mbedtls_entropy_source_self_test:ret <- $r5
	.loc	5 614 9 is_stmt 0               @ ../../../ThirdParty/mbedTLS/library/entropy.c:614:9
	cbnz	r0, .LBB8_7
.Ltmp137:
@ %bb.5:
	@DEBUG_VALUE: mbedtls_entropy_source_self_test:ret <- $r5
	@DEBUG_VALUE: mbedtls_entropy_source_self_test:verbose <- $r4
	.loc	5 0 9                           @ ../../../ThirdParty/mbedTLS/library/entropy.c:0:9
	mov	r0, sp
.Ltmp138:
	.loc	5 616 17 is_stmt 1              @ ../../../ThirdParty/mbedTLS/library/entropy.c:616:17
	bl	mbedtls_entropy_source_self_test_check_bits
	mov	r5, r0
.Ltmp139:
	@DEBUG_VALUE: mbedtls_entropy_source_self_test:ret <- $r5
	.loc	5 616 9 is_stmt 0               @ ../../../ThirdParty/mbedTLS/library/entropy.c:616:9
	cbnz	r0, .LBB8_7
.Ltmp140:
@ %bb.6:
	@DEBUG_VALUE: mbedtls_entropy_source_self_test:ret <- $r5
	@DEBUG_VALUE: mbedtls_entropy_source_self_test:verbose <- $r4
	.loc	5 0 9                           @ ../../../ThirdParty/mbedTLS/library/entropy.c:0:9
	add	r0, sp, #16
	mov	r1, sp
	movs	r2, #16
	.loc	5 621 11 is_stmt 1              @ ../../../ThirdParty/mbedTLS/library/entropy.c:621:11
	bl	memcmp
	.loc	5 621 48 is_stmt 0              @ ../../../ThirdParty/mbedTLS/library/entropy.c:621:48
	rsbs	r5, r0, #0
.Ltmp141:
	adcs	r5, r0
.Ltmp142:
	@DEBUG_VALUE: mbedtls_entropy_source_self_test:ret <- $r5
.LBB8_7:
	@DEBUG_VALUE: mbedtls_entropy_source_self_test:ret <- $r5
	@DEBUG_VALUE: mbedtls_entropy_source_self_test:verbose <- $r4
	@DEBUG_VALUE: mbedtls_entropy_source_self_test:ret <- $r5
	@DEBUG_LABEL: mbedtls_entropy_source_self_test:cleanup
	.loc	5 624 9 is_stmt 1               @ ../../../ThirdParty/mbedTLS/library/entropy.c:624:9
	cbz	r4, .LBB8_12
.Ltmp143:
@ %bb.8:
	@DEBUG_VALUE: mbedtls_entropy_source_self_test:ret <- $r5
	@DEBUG_VALUE: mbedtls_entropy_source_self_test:verbose <- $r4
	.loc	5 626 13                        @ ../../../ThirdParty/mbedTLS/library/entropy.c:626:13
	cbz	r5, .LBB8_10
.Ltmp144:
@ %bb.9:
	@DEBUG_VALUE: mbedtls_entropy_source_self_test:ret <- $r5
	@DEBUG_VALUE: mbedtls_entropy_source_self_test:verbose <- $r4
	.loc	5 0 13 is_stmt 0                @ ../../../ThirdParty/mbedTLS/library/entropy.c:0:13
	adr	r0, .LCPI8_2
	b	.LBB8_11
.Ltmp145:
.LBB8_10:
	@DEBUG_VALUE: mbedtls_entropy_source_self_test:ret <- $r5
	@DEBUG_VALUE: mbedtls_entropy_source_self_test:verbose <- $r4
	adr	r0, .LCPI8_1
.Ltmp146:
.LBB8_11:
	@DEBUG_VALUE: mbedtls_entropy_source_self_test:ret <- $r5
	@DEBUG_VALUE: mbedtls_entropy_source_self_test:verbose <- $r4
	bl	puts
	movs	r0, #10
.Ltmp147:
	.loc	5 631 9 is_stmt 1               @ ../../../ThirdParty/mbedTLS/library/entropy.c:631:9
	bl	putchar
.Ltmp148:
.LBB8_12:
	@DEBUG_VALUE: mbedtls_entropy_source_self_test:ret <- $r5
	@DEBUG_VALUE: mbedtls_entropy_source_self_test:verbose <- $r4
	.loc	5 634 17                        @ ../../../ThirdParty/mbedTLS/library/entropy.c:634:17
	subs	r0, r5, #1
	sbcs	r5, r0
.Ltmp149:
	.loc	5 634 5 is_stmt 0               @ ../../../ThirdParty/mbedTLS/library/entropy.c:634:5
	mov	r0, r5
	add	sp, #32
	pop	{r4, r5, r7, pc}
.Ltmp150:
	.p2align	2
@ %bb.13:
	.loc	5 0 5                           @ ../../../ThirdParty/mbedTLS/library/entropy.c:0:5
.LCPI8_0:
.L.str:
	.asciz	"  ENTROPY_BIAS test: \000\000"
.LCPI8_1:
.Lstr:
	.asciz	"passed\000"
.LCPI8_2:
.Lstr.5:
	.asciz	"failed\000"
.Lfunc_end8:
	.size	mbedtls_entropy_source_self_test, .Lfunc_end8-mbedtls_entropy_source_self_test
	.cfi_endproc
	.cantunwind
	.fnend
                                        @ -- End function
	.section	.text.mbedtls_entropy_source_self_test_gather,"ax",%progbits
	.p2align	1                               @ -- Begin function mbedtls_entropy_source_self_test_gather
	.type	mbedtls_entropy_source_self_test_gather,%function
	.code	16                              @ @mbedtls_entropy_source_self_test_gather
	.thumb_func
mbedtls_entropy_source_self_test_gather:
.Lfunc_begin9:
	.loc	5 544 0 is_stmt 1               @ ../../../ThirdParty/mbedTLS/library/entropy.c:544:0
	.fnstart
	.cfi_startproc
@ %bb.0:
	@DEBUG_VALUE: mbedtls_entropy_source_self_test_gather:buf <- $r0
	.save	{r4, r5, r6, r7, lr}
	push	{r4, r5, r6, r7, lr}
	.cfi_def_cfa_offset 20
	.cfi_offset lr, -4
	.cfi_offset r7, -8
	.cfi_offset r6, -12
	.cfi_offset r5, -16
	.cfi_offset r4, -20
	.pad	#12
	sub	sp, #12
	.cfi_def_cfa_offset 32
	str	r0, [sp, #4]                    @ 4-byte Spill
	movs	r4, #0
.Ltmp151:
	@DEBUG_VALUE: mbedtls_entropy_source_self_test_gather:olen <- 0
	@DEBUG_VALUE: mbedtls_entropy_source_self_test_gather:entropy_len <- 0
	@DEBUG_VALUE: mbedtls_entropy_source_self_test_gather:ret <- 0
	@DEBUG_VALUE: mbedtls_entropy_source_self_test_gather:buf_len <- 16
	@DEBUG_VALUE: mbedtls_entropy_source_self_test_gather:buf <- [DW_OP_plus_uconst 4] [$sp+0]
	.loc	5 547 12 prologue_end           @ ../../../ThirdParty/mbedTLS/library/entropy.c:547:12
	str	r4, [sp, #8]
	movs	r0, #14
	mvns	r7, r0
.Ltmp152:
	@DEBUG_VALUE: mbedtls_entropy_source_self_test_gather:attempts <- 16
	.loc	5 0 12 is_stmt 0                @ ../../../ThirdParty/mbedTLS/library/entropy.c:0:12
	movs	r6, #16
	mov	r5, r4
.Ltmp153:
.LBB9_1:                                @ =>This Inner Loop Header: Depth=1
	@DEBUG_VALUE: mbedtls_entropy_source_self_test_gather:buf <- [DW_OP_plus_uconst 4] [$sp+0]
	@DEBUG_VALUE: mbedtls_entropy_source_self_test_gather:buf_len <- 16
	@DEBUG_VALUE: mbedtls_entropy_source_self_test_gather:ret <- 0
	@DEBUG_VALUE: mbedtls_entropy_source_self_test_gather:entropy_len <- $r5
	@DEBUG_VALUE: mbedtls_entropy_source_self_test_gather:attempts <- undef
	.loc	5 552 54 is_stmt 1              @ ../../../ThirdParty/mbedTLS/library/entropy.c:552:54
	ldr	r0, [sp, #4]                    @ 4-byte Reload
	adds	r1, r0, r5
	.loc	5 553 52                        @ ../../../ThirdParty/mbedTLS/library/entropy.c:553:52
	subs	r2, r6, r5
.Ltmp154:
	@DEBUG_VALUE: mbedtls_entropy_source_self_test_gather:olen <- [DW_OP_plus_uconst 8, DW_OP_deref] $sp
	.loc	5 0 52 is_stmt 0                @ ../../../ThirdParty/mbedTLS/library/entropy.c:0:52
	add	r3, sp, #8
	.loc	5 552 21 is_stmt 1              @ ../../../ThirdParty/mbedTLS/library/entropy.c:552:21
	mov	r0, r4
	bl	mbedtls_hardware_poll
.Ltmp155:
	@DEBUG_VALUE: mbedtls_entropy_source_self_test_gather:ret <- $r0
	.loc	5 552 13 is_stmt 0              @ ../../../ThirdParty/mbedTLS/library/entropy.c:552:13
	cbnz	r0, .LBB9_6
.Ltmp156:
@ %bb.2:                                @   in Loop: Header=BB9_1 Depth=1
	@DEBUG_VALUE: mbedtls_entropy_source_self_test_gather:entropy_len <- $r5
	@DEBUG_VALUE: mbedtls_entropy_source_self_test_gather:ret <- $r0
	@DEBUG_VALUE: mbedtls_entropy_source_self_test_gather:olen <- [DW_OP_plus_uconst 8, DW_OP_deref] $sp
	@DEBUG_VALUE: mbedtls_entropy_source_self_test_gather:buf <- [DW_OP_plus_uconst 4] [$sp+0]
	@DEBUG_VALUE: mbedtls_entropy_source_self_test_gather:buf_len <- 16
	.loc	5 556 24 is_stmt 1              @ ../../../ThirdParty/mbedTLS/library/entropy.c:556:24
	ldr	r0, [sp, #8]
.Ltmp157:
	@DEBUG_VALUE: mbedtls_entropy_source_self_test_gather:olen <- $r0
	.loc	5 556 21 is_stmt 0              @ ../../../ThirdParty/mbedTLS/library/entropy.c:556:21
	adds	r5, r0, r5
.Ltmp158:
	@DEBUG_VALUE: mbedtls_entropy_source_self_test_gather:attempts <- [DW_OP_constu 1, DW_OP_minus, DW_OP_stack_value] undef
	@DEBUG_VALUE: mbedtls_entropy_source_self_test_gather:entropy_len <- $r5
	@DEBUG_VALUE: mbedtls_entropy_source_self_test_gather:ret <- 0
	.loc	5 550 5 is_stmt 1               @ ../../../ThirdParty/mbedTLS/library/entropy.c:550:5
	cmp	r5, #15
	bhi	.LBB9_4
.Ltmp159:
@ %bb.3:                                @   in Loop: Header=BB9_1 Depth=1
	@DEBUG_VALUE: mbedtls_entropy_source_self_test_gather:entropy_len <- $r5
	@DEBUG_VALUE: mbedtls_entropy_source_self_test_gather:olen <- $r0
	@DEBUG_VALUE: mbedtls_entropy_source_self_test_gather:buf <- [DW_OP_plus_uconst 4] [$sp+0]
	@DEBUG_VALUE: mbedtls_entropy_source_self_test_gather:buf_len <- 16
	@DEBUG_VALUE: mbedtls_entropy_source_self_test_gather:ret <- 0
	adds	r0, r7, #1
.Ltmp160:
	cmp	r7, #0
	mov	r7, r0
	bne	.LBB9_1
.Ltmp161:
.LBB9_4:
	@DEBUG_VALUE: mbedtls_entropy_source_self_test_gather:entropy_len <- $r5
	@DEBUG_VALUE: mbedtls_entropy_source_self_test_gather:buf <- [DW_OP_plus_uconst 4] [$sp+0]
	@DEBUG_VALUE: mbedtls_entropy_source_self_test_gather:buf_len <- 16
	@DEBUG_VALUE: mbedtls_entropy_source_self_test_gather:ret <- 0
	.loc	5 550 25 is_stmt 0              @ ../../../ThirdParty/mbedTLS/library/entropy.c:550:25
	cmp	r5, #16
	blo	.LBB9_7
.Ltmp162:
@ %bb.5:
	@DEBUG_VALUE: mbedtls_entropy_source_self_test_gather:entropy_len <- $r5
	@DEBUG_VALUE: mbedtls_entropy_source_self_test_gather:buf <- [DW_OP_plus_uconst 4] [$sp+0]
	@DEBUG_VALUE: mbedtls_entropy_source_self_test_gather:buf_len <- 16
	@DEBUG_VALUE: mbedtls_entropy_source_self_test_gather:ret <- 0
	.loc	5 0 25                          @ ../../../ThirdParty/mbedTLS/library/entropy.c:0:25
	movs	r0, #0
.Ltmp163:
	@DEBUG_VALUE: mbedtls_entropy_source_self_test_gather:ret <- $r0
.LBB9_6:
	@DEBUG_VALUE: mbedtls_entropy_source_self_test_gather:entropy_len <- $r5
	@DEBUG_VALUE: mbedtls_entropy_source_self_test_gather:ret <- $r0
	@DEBUG_VALUE: mbedtls_entropy_source_self_test_gather:buf <- [DW_OP_plus_uconst 4] [$sp+0]
	@DEBUG_VALUE: mbedtls_entropy_source_self_test_gather:buf_len <- 16
	.loc	5 566 1 is_stmt 1               @ ../../../ThirdParty/mbedTLS/library/entropy.c:566:1
	add	sp, #12
.Ltmp164:
	pop	{r4, r5, r6, r7, pc}
.Ltmp165:
.LBB9_7:
	@DEBUG_VALUE: mbedtls_entropy_source_self_test_gather:entropy_len <- $r5
	@DEBUG_VALUE: mbedtls_entropy_source_self_test_gather:buf <- [DW_OP_plus_uconst 4] [$sp+0]
	@DEBUG_VALUE: mbedtls_entropy_source_self_test_gather:buf_len <- 16
	@DEBUG_VALUE: mbedtls_entropy_source_self_test_gather:ret <- 0
	.loc	5 0 1 is_stmt 0                 @ ../../../ThirdParty/mbedTLS/library/entropy.c:0:1
	movs	r0, #1
.Ltmp166:
	@DEBUG_VALUE: mbedtls_entropy_source_self_test_gather:ret <- $r0
	.loc	5 566 1                         @ ../../../ThirdParty/mbedTLS/library/entropy.c:566:1
	add	sp, #12
.Ltmp167:
	pop	{r4, r5, r6, r7, pc}
.Ltmp168:
.Lfunc_end9:
	.size	mbedtls_entropy_source_self_test_gather, .Lfunc_end9-mbedtls_entropy_source_self_test_gather
	.cfi_endproc
	.cantunwind
	.fnend
                                        @ -- End function
	.section	.text.mbedtls_entropy_source_self_test_check_bits,"ax",%progbits
	.p2align	1                               @ -- Begin function mbedtls_entropy_source_self_test_check_bits
	.type	mbedtls_entropy_source_self_test_check_bits,%function
	.code	16                              @ @mbedtls_entropy_source_self_test_check_bits
	.thumb_func
mbedtls_entropy_source_self_test_check_bits:
.Lfunc_begin10:
	.loc	5 571 0 is_stmt 1               @ ../../../ThirdParty/mbedTLS/library/entropy.c:571:0
	.fnstart
	.cfi_startproc
@ %bb.0:
	@DEBUG_VALUE: mbedtls_entropy_source_self_test_check_bits:buf <- $r0
	@DEBUG_VALUE: mbedtls_entropy_source_self_test_check_bits:buf <- $r0
	.save	{r4, lr}
	push	{r4, lr}
	.cfi_def_cfa_offset 8
	.cfi_offset lr, -4
	.cfi_offset r4, -8
	movs	r1, #255
	movs	r3, #0
.Ltmp169:
	@DEBUG_VALUE: mbedtls_entropy_source_self_test_check_bits:i <- 0
	@DEBUG_VALUE: mbedtls_entropy_source_self_test_check_bits:unset <- undef
	@DEBUG_VALUE: mbedtls_entropy_source_self_test_check_bits:set <- undef
	@DEBUG_VALUE: mbedtls_entropy_source_self_test_check_bits:buf_len <- 16
	mov	r2, r3
.Ltmp170:
.LBB10_1:                               @ =>This Inner Loop Header: Depth=1
	@DEBUG_VALUE: mbedtls_entropy_source_self_test_check_bits:buf <- $r0
	@DEBUG_VALUE: mbedtls_entropy_source_self_test_check_bits:buf_len <- 16
	@DEBUG_VALUE: mbedtls_entropy_source_self_test_check_bits:i <- $r3
	.loc	5 578 16 prologue_end           @ ../../../ThirdParty/mbedTLS/library/entropy.c:578:16
	ldrb	r4, [r0, r3]
	.loc	5 579 15                        @ ../../../ThirdParty/mbedTLS/library/entropy.c:579:15
	orrs	r2, r4
.Ltmp171:
	@DEBUG_VALUE: mbedtls_entropy_source_self_test_check_bits:unset <- [DW_OP_LLVM_convert 32 7, DW_OP_LLVM_convert 8 7, DW_OP_stack_value] $r2
	.loc	5 578 13                        @ ../../../ThirdParty/mbedTLS/library/entropy.c:578:13
	ands	r1, r4
.Ltmp172:
	@DEBUG_VALUE: mbedtls_entropy_source_self_test_check_bits:set <- [DW_OP_LLVM_convert 32 7, DW_OP_LLVM_convert 8 7, DW_OP_stack_value] $r1
	.loc	5 576 31                        @ ../../../ThirdParty/mbedTLS/library/entropy.c:576:31
	adds	r3, r3, #1
.Ltmp173:
	@DEBUG_VALUE: mbedtls_entropy_source_self_test_check_bits:i <- $r3
	@DEBUG_VALUE: mbedtls_entropy_source_self_test_check_bits:unset <- undef
	@DEBUG_VALUE: mbedtls_entropy_source_self_test_check_bits:set <- undef
	.loc	5 576 5 is_stmt 0               @ ../../../ThirdParty/mbedTLS/library/entropy.c:576:5
	cmp	r3, #16
	bne	.LBB10_1
.Ltmp174:
@ %bb.2:
	@DEBUG_VALUE: mbedtls_entropy_source_self_test_check_bits:i <- $r3
	@DEBUG_VALUE: mbedtls_entropy_source_self_test_check_bits:buf <- $r0
	@DEBUG_VALUE: mbedtls_entropy_source_self_test_check_bits:buf_len <- 16
	.loc	5 582 25 is_stmt 1              @ ../../../ThirdParty/mbedTLS/library/entropy.c:582:25
	rsbs	r3, r2, #0
.Ltmp175:
	adcs	r3, r2
	.loc	5 582 17 is_stmt 0              @ ../../../ThirdParty/mbedTLS/library/entropy.c:582:17
	subs	r1, #255
	rsbs	r0, r1, #0
.Ltmp176:
	@DEBUG_VALUE: mbedtls_entropy_source_self_test_check_bits:buf <- [DW_OP_LLVM_entry_value 1] $r0
	adcs	r0, r1
	.loc	5 582 25                        @ ../../../ThirdParty/mbedTLS/library/entropy.c:582:25
	orrs	r0, r3
	.loc	5 582 5                         @ ../../../ThirdParty/mbedTLS/library/entropy.c:582:5
	pop	{r4, pc}
.Ltmp177:
.Lfunc_end10:
	.size	mbedtls_entropy_source_self_test_check_bits, .Lfunc_end10-mbedtls_entropy_source_self_test_check_bits
	.cfi_endproc
	.cantunwind
	.fnend
                                        @ -- End function
	.section	.text.mbedtls_entropy_self_test,"ax",%progbits
	.hidden	mbedtls_entropy_self_test       @ -- Begin function mbedtls_entropy_self_test
	.globl	mbedtls_entropy_self_test
	.p2align	2
	.type	mbedtls_entropy_self_test,%function
	.code	16                              @ @mbedtls_entropy_self_test
	.thumb_func
mbedtls_entropy_self_test:
.Lfunc_begin11:
	.loc	5 645 0 is_stmt 1               @ ../../../ThirdParty/mbedTLS/library/entropy.c:645:0
	.fnstart
	.cfi_startproc
@ %bb.0:
	@DEBUG_VALUE: mbedtls_entropy_self_test:verbose <- $r0
	.save	{r4, r5, r6, r7, lr}
	push	{r4, r5, r6, r7, lr}
	.cfi_def_cfa_offset 20
	.cfi_offset lr, -4
	.cfi_offset r7, -8
	.cfi_offset r6, -12
	.cfi_offset r5, -16
	.cfi_offset r4, -20
	.pad	#508
	sub	sp, #508
	.pad	#264
	sub	sp, #264
	.cfi_def_cfa_offset 792
	mov	r4, r0
.Ltmp178:
	@DEBUG_VALUE: mbedtls_entropy_self_test:ret <- 1
	@DEBUG_VALUE: mbedtls_entropy_self_test:verbose <- $r4
	add	r0, sp, #72
	movs	r5, #64
.Ltmp179:
	.loc	5 649 19 prologue_end           @ ../../../ThirdParty/mbedTLS/library/entropy.c:649:19
	mov	r1, r5
	bl	__aeabi_memclr4
	add	r0, sp, #8
	.loc	5 650 19                        @ ../../../ThirdParty/mbedTLS/library/entropy.c:650:19
	mov	r1, r5
	bl	__aeabi_memclr4
	.loc	5 654 9                         @ ../../../ThirdParty/mbedTLS/library/entropy.c:654:9
	cbz	r4, .LBB11_2
.Ltmp180:
@ %bb.1:
	@DEBUG_VALUE: mbedtls_entropy_self_test:verbose <- $r4
	@DEBUG_VALUE: mbedtls_entropy_self_test:ret <- 1
	.loc	5 655 9                         @ ../../../ThirdParty/mbedTLS/library/entropy.c:655:9
	adr	r0, .LCPI11_0
	bl	__2printf
.Ltmp181:
.LBB11_2:
	@DEBUG_VALUE: mbedtls_entropy_self_test:verbose <- $r4
	@DEBUG_VALUE: mbedtls_entropy_self_test:ret <- 1
	.loc	5 0 9 is_stmt 0                 @ ../../../ThirdParty/mbedTLS/library/entropy.c:0:9
	add	r5, sp, #136
	.loc	5 658 5 is_stmt 1               @ ../../../ThirdParty/mbedTLS/library/entropy.c:658:5
	mov	r0, r5
	bl	mbedtls_entropy_init
.Ltmp182:
	.loc	5 661 17                        @ ../../../ThirdParty/mbedTLS/library/entropy.c:661:17
	mov	r0, r5
	bl	mbedtls_entropy_gather
	mov	r5, r0
.Ltmp183:
	@DEBUG_VALUE: mbedtls_entropy_self_test:ret <- $r5
	.loc	5 661 9 is_stmt 0               @ ../../../ThirdParty/mbedTLS/library/entropy.c:661:9
	cbnz	r0, .LBB11_15
.Ltmp184:
@ %bb.3:
	@DEBUG_VALUE: mbedtls_entropy_self_test:ret <- $r5
	@DEBUG_VALUE: mbedtls_entropy_self_test:verbose <- $r4
	.loc	5 0 9                           @ ../../../ThirdParty/mbedTLS/library/entropy.c:0:9
	movs	r7, #0
	.loc	5 664 11 is_stmt 1              @ ../../../ThirdParty/mbedTLS/library/entropy.c:664:11
	str	r7, [sp]
	add	r0, sp, #136
	ldr	r1, __arm_cp.11_1
	movs	r3, #16
	mov	r2, r7
	bl	mbedtls_entropy_add_source
	mov	r5, r0
.Ltmp185:
	@DEBUG_VALUE: mbedtls_entropy_self_test:ret <- $r5
	.loc	5 666 9                         @ ../../../ThirdParty/mbedTLS/library/entropy.c:666:9
	cbnz	r0, .LBB11_15
.Ltmp186:
@ %bb.4:
	@DEBUG_VALUE: mbedtls_entropy_self_test:ret <- $r5
	@DEBUG_VALUE: mbedtls_entropy_self_test:verbose <- $r4
	.loc	5 0 9 is_stmt 0                 @ ../../../ThirdParty/mbedTLS/library/entropy.c:0:9
	add	r0, sp, #136
	add	r1, sp, #72
	movs	r2, #64
.Ltmp187:
	.loc	5 669 17 is_stmt 1              @ ../../../ThirdParty/mbedTLS/library/entropy.c:669:17
	bl	mbedtls_entropy_update_manual
	mov	r5, r0
.Ltmp188:
	@DEBUG_VALUE: mbedtls_entropy_self_test:ret <- $r5
	.loc	5 669 9 is_stmt 0               @ ../../../ThirdParty/mbedTLS/library/entropy.c:669:9
	cbnz	r0, .LBB11_15
.Ltmp189:
@ %bb.5:
	@DEBUG_VALUE: mbedtls_entropy_self_test:ret <- $r5
	@DEBUG_VALUE: mbedtls_entropy_self_test:verbose <- $r4
	.loc	5 0 9                           @ ../../../ThirdParty/mbedTLS/library/entropy.c:0:9
	movs	r0, #64
	str	r0, [sp, #4]                    @ 4-byte Spill
	mov	r6, r7
.Ltmp190:
.LBB11_6:                               @ =>This Loop Header: Depth=1
                                        @     Child Loop BB11_8 Depth 2
	@DEBUG_VALUE: mbedtls_entropy_self_test:verbose <- $r4
	@DEBUG_VALUE: mbedtls_entropy_self_test:i <- $r6
	add	r0, sp, #136
	add	r1, sp, #72
.Ltmp191:
	.loc	5 682 21 is_stmt 1              @ ../../../ThirdParty/mbedTLS/library/entropy.c:682:21
	ldr	r2, [sp, #4]                    @ 4-byte Reload
	bl	mbedtls_entropy_func
.Ltmp192:
	@DEBUG_VALUE: mbedtls_entropy_self_test:ret <- $r0
	.loc	5 682 13 is_stmt 0              @ ../../../ThirdParty/mbedTLS/library/entropy.c:682:13
	cbnz	r0, .LBB11_14
.Ltmp193:
@ %bb.7:                                @   in Loop: Header=BB11_6 Depth=1
	@DEBUG_VALUE: mbedtls_entropy_self_test:i <- $r6
	@DEBUG_VALUE: mbedtls_entropy_self_test:verbose <- $r4
	@DEBUG_VALUE: mbedtls_entropy_self_test:ret <- $r0
	.loc	5 0 13                          @ ../../../ThirdParty/mbedTLS/library/entropy.c:0:13
	mov	r0, r7
.Ltmp194:
.LBB11_8:                               @   Parent Loop BB11_6 Depth=1
                                        @ =>  This Inner Loop Header: Depth=2
	@DEBUG_VALUE: mbedtls_entropy_self_test:i <- $r6
	@DEBUG_VALUE: mbedtls_entropy_self_test:verbose <- $r4
	@DEBUG_VALUE: mbedtls_entropy_self_test:j <- $r0
	add	r1, sp, #72
.Ltmp195:
	.loc	5 686 23 is_stmt 1              @ ../../../ThirdParty/mbedTLS/library/entropy.c:686:23
	ldrb	r1, [r1, r0]
	add	r2, sp, #8
	.loc	5 686 20 is_stmt 0              @ ../../../ThirdParty/mbedTLS/library/entropy.c:686:20
	ldrb	r3, [r2, r0]
	orrs	r3, r1
	strb	r3, [r2, r0]
	.loc	5 685 41 is_stmt 1              @ ../../../ThirdParty/mbedTLS/library/entropy.c:685:41
	adds	r0, r0, #1
.Ltmp196:
	@DEBUG_VALUE: mbedtls_entropy_self_test:j <- $r0
	.loc	5 685 9 is_stmt 0               @ ../../../ThirdParty/mbedTLS/library/entropy.c:685:9
	cmp	r0, #64
	bne	.LBB11_8
.Ltmp197:
@ %bb.9:                                @   in Loop: Header=BB11_6 Depth=1
	@DEBUG_VALUE: mbedtls_entropy_self_test:i <- $r6
	@DEBUG_VALUE: mbedtls_entropy_self_test:verbose <- $r4
	@DEBUG_VALUE: mbedtls_entropy_self_test:j <- $r0
	.loc	5 680 25 is_stmt 1              @ ../../../ThirdParty/mbedTLS/library/entropy.c:680:25
	adds	r6, r6, #1
.Ltmp198:
	@DEBUG_VALUE: mbedtls_entropy_self_test:i <- $r6
	.loc	5 680 5 is_stmt 0               @ ../../../ThirdParty/mbedTLS/library/entropy.c:680:5
	cmp	r6, #8
	bne	.LBB11_6
.Ltmp199:
@ %bb.10:
	@DEBUG_VALUE: mbedtls_entropy_self_test:i <- $r6
	@DEBUG_VALUE: mbedtls_entropy_self_test:verbose <- $r4
	@DEBUG_VALUE: mbedtls_entropy_self_test:j <- $r0
	.loc	5 0 5                           @ ../../../ThirdParty/mbedTLS/library/entropy.c:0:5
	movs	r0, #0
.Ltmp200:
	movs	r5, #1
.Ltmp201:
.LBB11_11:                              @ =>This Inner Loop Header: Depth=1
	@DEBUG_VALUE: mbedtls_entropy_self_test:i <- $r6
	@DEBUG_VALUE: mbedtls_entropy_self_test:verbose <- $r4
	@DEBUG_VALUE: mbedtls_entropy_self_test:j <- $r0
	add	r1, sp, #8
.Ltmp202:
	.loc	5 691 13 is_stmt 1              @ ../../../ThirdParty/mbedTLS/library/entropy.c:691:13
	ldrb	r1, [r1, r0]
.Ltmp203:
	@DEBUG_VALUE: mbedtls_entropy_self_test:j <- undef
	.loc	5 691 13 is_stmt 0              @ ../../../ThirdParty/mbedTLS/library/entropy.c:691:13
	cbz	r1, .LBB11_15
.Ltmp204:
@ %bb.12:                               @   in Loop: Header=BB11_11 Depth=1
	@DEBUG_VALUE: mbedtls_entropy_self_test:i <- $r6
	@DEBUG_VALUE: mbedtls_entropy_self_test:verbose <- $r4
	.loc	5 0 0                           @ ../../../ThirdParty/mbedTLS/library/entropy.c:0:0
	adds	r0, r0, #1
.Ltmp205:
	@DEBUG_VALUE: mbedtls_entropy_self_test:j <- $r0
	.loc	5 689 5 is_stmt 1               @ ../../../ThirdParty/mbedTLS/library/entropy.c:689:5
	cmp	r0, #64
	bne	.LBB11_11
.Ltmp206:
@ %bb.13:
	@DEBUG_VALUE: mbedtls_entropy_self_test:i <- $r6
	@DEBUG_VALUE: mbedtls_entropy_self_test:verbose <- $r4
	@DEBUG_VALUE: mbedtls_entropy_self_test:j <- $r0
	.loc	5 0 5 is_stmt 0                 @ ../../../ThirdParty/mbedTLS/library/entropy.c:0:5
	movs	r0, #0
.Ltmp207:
	.loc	5 699 17 is_stmt 1              @ ../../../ThirdParty/mbedTLS/library/entropy.c:699:17
	bl	mbedtls_entropy_source_self_test
.Ltmp208:
.LBB11_14:
	@DEBUG_VALUE: mbedtls_entropy_self_test:i <- $r6
	@DEBUG_VALUE: mbedtls_entropy_self_test:verbose <- $r4
	.loc	5 0 17 is_stmt 0                @ ../../../ThirdParty/mbedTLS/library/entropy.c:0:17
	mov	r5, r0
.Ltmp209:
	@DEBUG_VALUE: mbedtls_entropy_self_test:ret <- $r5
.LBB11_15:
	@DEBUG_VALUE: mbedtls_entropy_self_test:verbose <- $r4
	@DEBUG_VALUE: mbedtls_entropy_self_test:ret <- $r5
	@DEBUG_LABEL: mbedtls_entropy_self_test:cleanup
	add	r0, sp, #136
	.loc	5 704 5 is_stmt 1               @ ../../../ThirdParty/mbedTLS/library/entropy.c:704:5
	bl	mbedtls_entropy_free
	.loc	5 707 9                         @ ../../../ThirdParty/mbedTLS/library/entropy.c:707:9
	cbz	r4, .LBB11_20
.Ltmp210:
@ %bb.16:
	@DEBUG_VALUE: mbedtls_entropy_self_test:ret <- $r5
	@DEBUG_VALUE: mbedtls_entropy_self_test:verbose <- $r4
	.loc	5 709 13                        @ ../../../ThirdParty/mbedTLS/library/entropy.c:709:13
	cbz	r5, .LBB11_18
.Ltmp211:
@ %bb.17:
	@DEBUG_VALUE: mbedtls_entropy_self_test:ret <- $r5
	@DEBUG_VALUE: mbedtls_entropy_self_test:verbose <- $r4
	.loc	5 0 13 is_stmt 0                @ ../../../ThirdParty/mbedTLS/library/entropy.c:0:13
	adr	r0, .LCPI11_3
	b	.LBB11_19
.Ltmp212:
.LBB11_18:
	@DEBUG_VALUE: mbedtls_entropy_self_test:ret <- $r5
	@DEBUG_VALUE: mbedtls_entropy_self_test:verbose <- $r4
	adr	r0, .LCPI11_2
.Ltmp213:
.LBB11_19:
	@DEBUG_VALUE: mbedtls_entropy_self_test:ret <- $r5
	@DEBUG_VALUE: mbedtls_entropy_self_test:verbose <- $r4
	bl	puts
	movs	r0, #10
.Ltmp214:
	.loc	5 714 9 is_stmt 1               @ ../../../ThirdParty/mbedTLS/library/entropy.c:714:9
	bl	putchar
.Ltmp215:
.LBB11_20:
	@DEBUG_VALUE: mbedtls_entropy_self_test:ret <- $r5
	@DEBUG_VALUE: mbedtls_entropy_self_test:verbose <- $r4
	.loc	5 717 17                        @ ../../../ThirdParty/mbedTLS/library/entropy.c:717:17
	subs	r0, r5, #1
	sbcs	r5, r0
.Ltmp216:
	.loc	5 717 5 is_stmt 0               @ ../../../ThirdParty/mbedTLS/library/entropy.c:717:5
	mov	r0, r5
	add	sp, #508
	add	sp, #264
	pop	{r4, r5, r6, r7, pc}
.Ltmp217:
	.p2align	2
@ %bb.21:
	.loc	5 0 5                           @ ../../../ThirdParty/mbedTLS/library/entropy.c:0:5
.LCPI11_0:
.L.str.4:
	.asciz	"  ENTROPY test: \000\000\000"
__arm_cp.11_1:
	.long	entropy_dummy_source
.Lcpi_end1:
	.size	__arm_cp.11_1, .Lcpi_end1-__arm_cp.11_1
.LCPI11_2:
.Lstr.6:
	.asciz	"passed\000"
.LCPI11_3:
.Lstr.7:
	.asciz	"failed\000"
.Lfunc_end11:
	.size	mbedtls_entropy_self_test, .Lfunc_end11-mbedtls_entropy_self_test
	.cfi_endproc
	.cantunwind
	.fnend
                                        @ -- End function
	.section	.text.entropy_dummy_source,"ax",%progbits
	.p2align	1                               @ -- Begin function entropy_dummy_source
	.type	entropy_dummy_source,%function
	.code	16                              @ @entropy_dummy_source
	.thumb_func
entropy_dummy_source:
.Lfunc_begin12:
	.loc	5 531 0 is_stmt 1               @ ../../../ThirdParty/mbedTLS/library/entropy.c:531:0
	.fnstart
	.cfi_startproc
@ %bb.0:
	@DEBUG_VALUE: entropy_dummy_source:data <- $r0
	@DEBUG_VALUE: entropy_dummy_source:output <- $r1
	@DEBUG_VALUE: entropy_dummy_source:len <- $r2
	@DEBUG_VALUE: entropy_dummy_source:olen <- $r3
	.save	{r4, r5, r7, lr}
	push	{r4, r5, r7, lr}
	.cfi_def_cfa_offset 16
	.cfi_offset lr, -4
	.cfi_offset r7, -8
	.cfi_offset r5, -12
	.cfi_offset r4, -16
	mov	r4, r3
	mov	r5, r2
	mov	r0, r1
.Ltmp218:
	@DEBUG_VALUE: entropy_dummy_source:data <- [DW_OP_LLVM_entry_value 1] $r0
	@DEBUG_VALUE: entropy_dummy_source:olen <- $r4
	@DEBUG_VALUE: entropy_dummy_source:len <- $r5
	@DEBUG_VALUE: entropy_dummy_source:output <- $r0
	movs	r2, #42
	@DEBUG_VALUE: entropy_dummy_source:output <- $r0
.Ltmp219:
	.loc	5 534 5 prologue_end            @ ../../../ThirdParty/mbedTLS/library/entropy.c:534:5
	mov	r1, r5
	bl	__aeabi_memset
.Ltmp220:
	.loc	5 535 11                        @ ../../../ThirdParty/mbedTLS/library/entropy.c:535:11
	str	r5, [r4]
	movs	r0, #0
	.loc	5 537 5                         @ ../../../ThirdParty/mbedTLS/library/entropy.c:537:5
	pop	{r4, r5, r7, pc}
.Ltmp221:
.Lfunc_end12:
	.size	entropy_dummy_source, .Lfunc_end12-entropy_dummy_source
	.cfi_endproc
	.cantunwind
	.fnend
                                        @ -- End function
	.section	".note.GNU-stack","",%progbits
	.eabi_attribute	30, 1	@ Tag_ABI_optimization_goals
	.ARM_attribute	16, 1	@ Tag_AV_eba