	.text
	.syntax unified
	.eabi_attribute	67, "2.09"	@ Tag_conformance
	.cpu	cortex-m23
	.eabi_attribute	6, 16	@ Tag_CPU_arch
	.eabi_attribute	7, 77	@ Tag_CPU_arch_profile
	.eabi_attribute	8, 0	@ Tag_ARM_ISA_use
	.eabi_attribute	9, 3	@ Tag_THUMB_ISA_use
	.eabi_attribute	34, 0	@ Tag_CPU_unaligned_access
	.eabi_attribute	17, 1	@ Tag_ABI_PCS_GOT_use
	.eabi_attribute	20, 2	@ Tag_ABI_FP_denormal
	.eabi_attribute	21, 0	@ Tag_ABI_FP_exceptions
	.eabi_attribute	23, 1	@ Tag_ABI_FP_number_model
	.eabi_attribute	24, 1	@ Tag_ABI_align_needed
	.eabi_attribute	25, 1	@ Tag_ABI_align_preserved
	.eabi_attribute	38, 1	@ Tag_ABI_FP_16bit_format
	.eabi_attribute	18, 2	@ Tag_ABI_PCS_wchar_t
	.eabi_attribute	26, 1	@ Tag_ABI_enum_size
	.eabi_attribute	14, 0	@ Tag_ABI_PCS_R9_use
	.file	"error.c"
	.section	.text.mbedtls_strerror,"ax",%progbits
	.hidden	mbedtls_strerror                @ -- Begin function mbedtls_strerror
	.globl	mbedtls_strerror
	.p2align	2
	.type	mbedtls_strerror,%function
	.code	16                              @ @mbedtls_strerror
	.thumb_func
mbedtls_strerror:
.Lfunc_begin0:
	.file	1 "C:\\Users\\shw26\\OneDrive\\Desktop\\2021\\2021-1\\\354\272\241\354\212\244\355\206\244\353\224\224\354\236\220\354\235\2702\\Nuvoton\\M2351_BSP_v3.00.004\\M2351Series_BSP_CMSIS_V3.00.004\\MyProject\\PulseMonitoring\\Secure" "../../../ThirdParty/mbedTLS/library/error.c"
	.loc	1 214 0                         @ ../../../ThirdParty/mbedTLS/library/error.c:214:0
	.fnstart
	.cfi_sections .debug_frame
	.cfi_startproc
@ %bb.0:
	@DEBUG_VALUE: mbedtls_strerror:ret <- $r0
	@DEBUG_VALUE: mbedtls_strerror:buf <- $r1
	@DEBUG_VALUE: mbedtls_strerror:buflen <- $r2
	@DEBUG_VALUE: mbedtls_strerror:buflen <- $r2
	@DEBUG_VALUE: mbedtls_strerror:buf <- $r1
	@DEBUG_VALUE: mbedtls_strerror:ret <- $r0
	.save	{r4, r5, r6, r7, lr}
	push	{r4, r5, r6, r7, lr}
	.cfi_def_cfa_offset 20
	.cfi_offset lr, -4
	.cfi_offset r7, -8
	.cfi_offset r6, -12
	.cfi_offset r5, -16
	.cfi_offset r4, -20
	.pad	#4
	sub	sp, #4
	.cfi_def_cfa_offset 24
.Ltmp0:
	.loc	1 218 9 prologue_end            @ ../../../ThirdParty/mbedTLS/library/error.c:218:9
	cmp	r2, #0
	bne	.LBB0_1
	bl	.LBB0_6164
.Ltmp1:
.LBB0_1:
	@DEBUG_VALUE: mbedtls_strerror:buflen <- $r2
	@DEBUG_VALUE: mbedtls_strerror:buf <- $r1
	@DEBUG_VALUE: mbedtls_strerror:ret <- $r0
	.loc	1 0 9 is_stmt 0                 @ ../../../ThirdParty/mbedTLS/library/error.c:0:9
	mov	r4, r2
.Ltmp2:
	@DEBUG_VALUE: mbedtls_strerror:buflen <- $r4
	mov	r5, r1
.Ltmp3:
	@DEBUG_VALUE: mbedtls_strerror:buf <- $r5
	mov	r6, r0
.Ltmp4:
	@DEBUG_VALUE: mbedtls_strerror:ret <- $r6
	.loc	1 221 5 is_stmt 1               @ ../../../ThirdParty/mbedTLS/library/error.c:221:5
	mov	r0, r1
	mov	r1, r2
	bl	__aeabi_memclr
	.loc	1 223 9                         @ ../../../ThirdParty/mbedTLS/library/error.c:223:9
	asrs	r0, r6, #31
	adds	r6, r6, r0
.Ltmp5:
	@DEBUG_VALUE: mbedtls_strerror:ret <- [DW_OP_LLVM_entry_value 1] $r0
	eors	r6, r0
.Ltmp6:
	@DEBUG_VALUE: mbedtls_strerror:ret <- $r6
	.loc	1 0 9 is_stmt 0                 @ ../../../ThirdParty/mbedTLS/library/error.c:0:9
	ldr	r7, __arm_cp.0_1712
.Ltmp7:
	.loc	1 226 13 is_stmt 1              @ ../../../ThirdParty/mbedTLS/library/error.c:226:13
	ands	r7, r6
	ldr	r0, .LCPI0_1713
.Ltmp8:
	.loc	1 226 9 is_stmt 0               @ ../../../ThirdParty/mbedTLS/library/error.c:226:9
	cmp	r7, r0
	str	r6, [sp]                        @ 4-byte Spill
	bgt	.LBB0_9
.Ltmp9:
@ %bb.2:
	@DEBUG_VALUE: mbedtls_strerror:ret <- $r6
	@DEBUG_VALUE: mbedtls_strerror:buf <- $r5
	@DEBUG_VALUE: mbedtls_strerror:buflen <- $r4
	.loc	1 0 9                           @ ../../../ThirdParty/mbedTLS/library/error.c:0:9
	ldr	r0, .LCPI0_1714
	.loc	1 226 9                         @ ../../../ThirdParty/mbedTLS/library/error.c:226:9
	cmp	r7, r0
	bgt	.LBB0_16
.Ltmp10:
@ %bb.3:
	@DEBUG_VALUE: mbedtls_strerror:ret <- $r6
	@DEBUG_VALUE: mbedtls_strerror:buf <- $r5
	@DEBUG_VALUE: mbedtls_strerror:buflen <- $r4
	.loc	1 0 9                           @ ../../../ThirdParty/mbedTLS/library/error.c:0:9
	ldr	r0, .LCPI0_1715
	.loc	1 226 9                         @ ../../../ThirdParty/mbedTLS/library/error.c:226:9
	cmp	r7, r0
	bgt	.LBB0_31
.Ltmp11:
@ %bb.4:
	@DEBUG_VALUE: mbedtls_strerror:ret <- $r6
	@DEBUG_VALUE: mbedtls_strerror:buf <- $r5
	@DEBUG_VALUE: mbedtls_strerror:buflen <- $r4
	.loc	1 0 9                           @ ../../../ThirdParty/mbedTLS/library/error.c:0:9
	ldr	r0, .LCPI0_1716
	.loc	1 226 9                         @ ../../../ThirdParty/mbedTLS/library/error.c:226:9
	cmp	r7, r0
	ble	.LBB0_5
	b	.LBB0_58
.Ltmp12:
.LBB0_5:
	@DEBUG_VALUE: mbedtls_strerror:ret <- $r6
	@DEBUG_VALUE: mbedtls_strerror:buf <- $r5
	@DEBUG_VALUE: mbedtls_strerror:buflen <- $r4
	.loc	1 0 9                           @ ../../../ThirdParty/mbedTLS/library/error.c:0:9
	ldr	r0, __arm_cp.0_1717
	.loc	1 226 9                         @ ../../../ThirdParty/mbedTLS/library/error.c:226:9
	cmp	r7, r0
	ble	.LBB0_6
	b	.LBB0_96
.Ltmp13:
.LBB0_6:
	@DEBUG_VALUE: mbedtls_strerror:ret <- $r6
	@DEBUG_VALUE: mbedtls_strerror:buf <- $r5
	@DEBUG_VALUE: mbedtls_strerror:buflen <- $r4
	cmp	r7, #0
	bne	.LBB0_7
	bl	.LBB0_5784
.Ltmp14:
.LBB0_7:
	@DEBUG_VALUE: mbedtls_strerror:ret <- $r6
	@DEBUG_VALUE: mbedtls_strerror:buf <- $r5
	@DEBUG_VALUE: mbedtls_strerror:buflen <- $r4
	.loc	1 0 9                           @ ../../../ThirdParty/mbedTLS/library/error.c:0:9
	movw	r0, #4224
	.loc	1 226 9                         @ ../../../ThirdParty/mbedTLS/library/error.c:226:9
	cmp	r7, r0
	bne	.LBB0_8
	bl	.LBB0_1356
.Ltmp15:
.LBB0_8:
	bl	.LBB0_2871
.LBB0_9:
.Ltmp16:
	@DEBUG_VALUE: mbedtls_strerror:ret <- $r6
	@DEBUG_VALUE: mbedtls_strerror:buf <- $r5
	@DEBUG_VALUE: mbedtls_strerror:buflen <- $r4
	.loc	1 0 9                           @ ../../../ThirdParty/mbedTLS/library/error.c:0:9
	ldr	r6, .LCPI0_1718
.Ltmp17:
	.loc	1 226 9                         @ ../../../ThirdParty/mbedTLS/library/error.c:226:9
	cmp	r7, r6
	bgt	.LBB0_25
.Ltmp18:
@ %bb.10:
	@DEBUG_VALUE: mbedtls_strerror:buf <- $r5
	@DEBUG_VALUE: mbedtls_strerror:buflen <- $r4
	.loc	1 0 9                           @ ../../../ThirdParty/mbedTLS/library/error.c:0:9
	ldr	r0, .LCPI0_1719
	.loc	1 226 9                         @ ../../../ThirdParty/mbedTLS/library/error.c:226:9
	cmp	r7, r0
	bgt	.LBB0_36
.Ltmp19:
@ %bb.11:
	@DEBUG_VALUE: mbedtls_strerror:buf <- $r5
	@DEBUG_VALUE: mbedtls_strerror:buflen <- $r4
	.loc	1 0 9                           @ ../../../ThirdParty/mbedTLS/library/error.c:0:9
	ldr	r0, .LCPI0_1720
	.loc	1 226 9                         @ ../../../ThirdParty/mbedTLS/library/error.c:226:9
	cmp	r7, r0
	ble	.LBB0_12
	b	.LBB0_62
.Ltmp20:
.LBB0_12:
	@DEBUG_VALUE: mbedtls_strerror:buf <- $r5
	@DEBUG_VALUE: mbedtls_strerror:buflen <- $r4
	.loc	1 0 9                           @ ../../../ThirdParty/mbedTLS/library/error.c:0:9
	ldr	r0, .LCPI0_1721
	.loc	1 226 9                         @ ../../../ThirdParty/mbedTLS/library/error.c:226:9
	cmp	r7, r0
	ble	.LBB0_13
	b	.LBB0_99
.Ltmp21:
.LBB0_13:
	@DEBUG_VALUE: mbedtls_strerror:buf <- $r5
	@DEBUG_VALUE: mbedtls_strerror:buflen <- $r4
	.loc	1 0 9                           @ ../../../ThirdParty/mbedTLS/library/error.c:0:9
	movw	r0, #15232
	.loc	1 226 9                         @ ../../../ThirdParty/mbedTLS/library/error.c:226:9
	cmp	r7, r0
	bne	.LBB0_14
	bl	.LBB0_2301
.Ltmp22:
.LBB0_14:
	@DEBUG_VALUE: mbedtls_strerror:buf <- $r5
	@DEBUG_VALUE: mbedtls_strerror:buflen <- $r4
	.loc	1 0 9                           @ ../../../ThirdParty/mbedTLS/library/error.c:0:9
	movw	r0, #15360
	.loc	1 226 9                         @ ../../../ThirdParty/mbedTLS/library/error.c:226:9
	cmp	r7, r0
	bne	.LBB0_15
	bl	.LBB0_1926
.Ltmp23:
.LBB0_15:
	bl	.LBB0_2871
.LBB0_16:
.Ltmp24:
	@DEBUG_VALUE: mbedtls_strerror:ret <- $r6
	@DEBUG_VALUE: mbedtls_strerror:buf <- $r5
	@DEBUG_VALUE: mbedtls_strerror:buflen <- $r4
	.loc	1 0 9                           @ ../../../ThirdParty/mbedTLS/library/error.c:0:9
	ldr	r0, .LCPI0_1722
	.loc	1 226 9                         @ ../../../ThirdParty/mbedTLS/library/error.c:226:9
	cmp	r7, r0
	bgt	.LBB0_41
.Ltmp25:
@ %bb.17:
	@DEBUG_VALUE: mbedtls_strerror:ret <- $r6
	@DEBUG_VALUE: mbedtls_strerror:buf <- $r5
	@DEBUG_VALUE: mbedtls_strerror:buflen <- $r4
	.loc	1 0 9                           @ ../../../ThirdParty/mbedTLS/library/error.c:0:9
	ldr	r0, .LCPI0_1723
	.loc	1 226 9                         @ ../../../ThirdParty/mbedTLS/library/error.c:226:9
	cmp	r7, r0
	ble	.LBB0_18
	b	.LBB0_66
.Ltmp26:
.LBB0_18:
	@DEBUG_VALUE: mbedtls_strerror:ret <- $r6
	@DEBUG_VALUE: mbedtls_strerror:buf <- $r5
	@DEBUG_VALUE: mbedtls_strerror:buflen <- $r4
	.loc	1 0 9                           @ ../../../ThirdParty/mbedTLS/library/error.c:0:9
	ldr	r0, .LCPI0_1724
	.loc	1 226 9                         @ ../../../ThirdParty/mbedTLS/library/error.c:226:9
	cmp	r7, r0
	ble	.LBB0_19
	b	.LBB0_102
.Ltmp27:
.LBB0_19:
	@DEBUG_VALUE: mbedtls_strerror:ret <- $r6
	@DEBUG_VALUE: mbedtls_strerror:buf <- $r5
	@DEBUG_VALUE: mbedtls_strerror:buflen <- $r4
	.loc	1 0 9                           @ ../../../ThirdParty/mbedTLS/library/error.c:0:9
	movw	r0, #12544
	.loc	1 226 9                         @ ../../../ThirdParty/mbedTLS/library/error.c:226:9
	cmp	r7, r0
	bne	.LBB0_20
	bl	.LBB0_726
.Ltmp28:
.LBB0_20:
	@DEBUG_VALUE: mbedtls_strerror:ret <- $r6
	@DEBUG_VALUE: mbedtls_strerror:buf <- $r5
	@DEBUG_VALUE: mbedtls_strerror:buflen <- $r4
	.loc	1 0 9                           @ ../../../ThirdParty/mbedTLS/library/error.c:0:9
	movw	r0, #12672
	.loc	1 226 9                         @ ../../../ThirdParty/mbedTLS/library/error.c:226:9
	cmp	r7, r0
	beq	.LBB0_21
	bl	.LBB0_2871
.Ltmp29:
.LBB0_21:
	@DEBUG_VALUE: mbedtls_strerror:buf <- $r5
	@DEBUG_VALUE: mbedtls_strerror:buflen <- $r4
	.loc	1 258 13 is_stmt 1              @ ../../../ThirdParty/mbedTLS/library/error.c:258:13
	ldr	r2, __arm_cp.0_1399
	mov	r0, r5
	mov	r1, r4
	bl	__2snprintf
	ldr	r0, .LCPI0_1400
.Ltmp30:
	.loc	1 259 13                        @ ../../../ThirdParty/mbedTLS/library/error.c:259:13
	cmp	r7, r0
	ble	.LBB0_22
	bl	.LBB0_751
.Ltmp31:
.LBB0_22:
	@DEBUG_VALUE: mbedtls_strerror:buf <- $r5
	@DEBUG_VALUE: mbedtls_strerror:buflen <- $r4
	.loc	1 0 13 is_stmt 0                @ ../../../ThirdParty/mbedTLS/library/error.c:0:13
	ldr	r0, .LCPI0_1397
	.loc	1 259 13                        @ ../../../ThirdParty/mbedTLS/library/error.c:259:13
	cmp	r7, r0
	bgt	.LBB0_23
	b	.LBB0_295
.Ltmp32:
.LBB0_23:
	@DEBUG_VALUE: mbedtls_strerror:buf <- $r5
	@DEBUG_VALUE: mbedtls_strerror:buflen <- $r4
	.loc	1 0 13                          @ ../../../ThirdParty/mbedTLS/library/error.c:0:13
	movw	r0, #13056
	.loc	1 259 13                        @ ../../../ThirdParty/mbedTLS/library/error.c:259:13
	cmp	r7, r0
	beq	.LBB0_24
	bl	.LBB0_776
.Ltmp33:
.LBB0_24:
	.loc	1 0 13                          @ ../../../ThirdParty/mbedTLS/library/error.c:0:13
	bl	.LBB0_762
.LBB0_25:
.Ltmp34:
	@DEBUG_VALUE: mbedtls_strerror:buf <- $r5
	@DEBUG_VALUE: mbedtls_strerror:buflen <- $r4
	ldr	r0, __arm_cp.0_1401
	.loc	1 226 9 is_stmt 1               @ ../../../ThirdParty/mbedTLS/library/error.c:226:9
	cmp	r7, r0
	bgt	.LBB0_46
.Ltmp35:
@ %bb.26:
	@DEBUG_VALUE: mbedtls_strerror:buf <- $r5
	@DEBUG_VALUE: mbedtls_strerror:buflen <- $r4
	.loc	1 0 9 is_stmt 0                 @ ../../../ThirdParty/mbedTLS/library/error.c:0:9
	ldr	r0, .LCPI0_1402
	.loc	1 226 9                         @ ../../../ThirdParty/mbedTLS/library/error.c:226:9
	cmp	r7, r0
	ble	.LBB0_27
	b	.LBB0_70
.Ltmp36:
.LBB0_27:
	@DEBUG_VALUE: mbedtls_strerror:buf <- $r5
	@DEBUG_VALUE: mbedtls_strerror:buflen <- $r4
	.loc	1 0 9                           @ ../../../ThirdParty/mbedTLS/library/error.c:0:9
	ldr	r0, .LCPI0_1403
	.loc	1 226 9                         @ ../../../ThirdParty/mbedTLS/library/error.c:226:9
	cmp	r7, r0
	ble	.LBB0_28
	b	.LBB0_121
.Ltmp37:
.LBB0_28:
	@DEBUG_VALUE: mbedtls_strerror:buf <- $r5
	@DEBUG_VALUE: mbedtls_strerror:buflen <- $r4
	.loc	1 0 9                           @ ../../../ThirdParty/mbedTLS/library/error.c:0:9
	movw	r0, #20096
	.loc	1 226 9                         @ ../../../ThirdParty/mbedTLS/library/error.c:226:9
	cmp	r7, r0
	bne	.LBB0_29
	bl	.LBB0_836
.Ltmp38:
.LBB0_29:
	@DEBUG_VALUE: mbedtls_strerror:buf <- $r5
	@DEBUG_VALUE: mbedtls_strerror:buflen <- $r4
	.loc	1 0 9                           @ ../../../ThirdParty/mbedTLS/library/error.c:0:9
	movw	r0, #20224
	.loc	1 226 9                         @ ../../../ThirdParty/mbedTLS/library/error.c:226:9
	cmp	r7, r0
	bne	.LBB0_30
	bl	.LBB0_820
.Ltmp39:
.LBB0_30:
	bl	.LBB0_2871
.LBB0_31:
.Ltmp40:
	@DEBUG_VALUE: mbedtls_strerror:ret <- $r6
	@DEBUG_VALUE: mbedtls_strerror:buf <- $r5
	@DEBUG_VALUE: mbedtls_strerror:buflen <- $r4
	.loc	1 0 9                           @ ../../../ThirdParty/mbedTLS/library/error.c:0:9
	ldr	r0, .LCPI0_1404
	.loc	1 226 9                         @ ../../../ThirdParty/mbedTLS/library/error.c:226:9
	cmp	r7, r0
	ble	.LBB0_32
	b	.LBB0_74
.Ltmp41:
.LBB0_32:
	@DEBUG_VALUE: mbedtls_strerror:ret <- $r6
	@DEBUG_VALUE: mbedtls_strerror:buf <- $r5
	@DEBUG_VALUE: mbedtls_strerror:buflen <- $r4
	.loc	1 0 9                           @ ../../../ThirdParty/mbedTLS/library/error.c:0:9
	ldr	r0, .LCPI0_1405
	.loc	1 226 9                         @ ../../../ThirdParty/mbedTLS/library/error.c:226:9
	cmp	r7, r0
	ble	.LBB0_33
	b	.LBB0_124
.Ltmp42:
.LBB0_33:
	@DEBUG_VALUE: mbedtls_strerror:ret <- $r6
	@DEBUG_VALUE: mbedtls_strerror:buf <- $r5
	@DEBUG_VALUE: mbedtls_strerror:buflen <- $r4
	.loc	1 0 9                           @ ../../../ThirdParty/mbedTLS/library/error.c:0:9
	movw	r0, #5120
	.loc	1 226 9                         @ ../../../ThirdParty/mbedTLS/library/error.c:226:9
	cmp	r7, r0
	bne	.LBB0_34
	bl	.LBB0_1813
.Ltmp43:
.LBB0_34:
	@DEBUG_VALUE: mbedtls_strerror:ret <- $r6
	@DEBUG_VALUE: mbedtls_strerror:buf <- $r5
	@DEBUG_VALUE: mbedtls_strerror:buflen <- $r4
	.loc	1 0 9                           @ ../../../ThirdParty/mbedTLS/library/error.c:0:9
	movw	r0, #5248
	.loc	1 226 9                         @ ../../../ThirdParty/mbedTLS/library/error.c:226:9
	cmp	r7, r0
	bne	.LBB0_35
	bl	.LBB0_1821
.Ltmp44:
.LBB0_35:
	bl	.LBB0_2871
.LBB0_36:
.Ltmp45:
	@DEBUG_VALUE: mbedtls_strerror:buf <- $r5
	@DEBUG_VALUE: mbedtls_strerror:buflen <- $r4
	.loc	1 0 9                           @ ../../../ThirdParty/mbedTLS/library/error.c:0:9
	ldr	r0, .LCPI0_1406
	.loc	1 226 9                         @ ../../../ThirdParty/mbedTLS/library/error.c:226:9
	cmp	r7, r0
	ble	.LBB0_37
	b	.LBB0_78
.Ltmp46:
.LBB0_37:
	@DEBUG_VALUE: mbedtls_strerror:buf <- $r5
	@DEBUG_VALUE: mbedtls_strerror:buflen <- $r4
	.loc	1 0 9                           @ ../../../ThirdParty/mbedTLS/library/error.c:0:9
	ldr	r0, .LCPI0_1407
	.loc	1 226 9                         @ ../../../ThirdParty/mbedTLS/library/error.c:226:9
	cmp	r7, r0
	ble	.LBB0_38
	b	.LBB0_127
.Ltmp47:
.LBB0_38:
	@DEBUG_VALUE: mbedtls_strerror:buf <- $r5
	@DEBUG_VALUE: mbedtls_strerror:buflen <- $r4
	.loc	1 0 9                           @ ../../../ThirdParty/mbedTLS/library/error.c:0:9
	movw	r0, #16256
	.loc	1 226 9                         @ ../../../ThirdParty/mbedTLS/library/error.c:226:9
	cmp	r7, r0
	bne	.LBB0_39
	bl	.LBB0_1908
.Ltmp48:
.LBB0_39:
	@DEBUG_VALUE: mbedtls_strerror:buf <- $r5
	@DEBUG_VALUE: mbedtls_strerror:buflen <- $r4
	.loc	1 0 9                           @ ../../../ThirdParty/mbedTLS/library/error.c:0:9
	movw	r0, #19200
	.loc	1 226 9                         @ ../../../ThirdParty/mbedTLS/library/error.c:226:9
	cmp	r7, r0
	bne	.LBB0_40
	bl	.LBB0_1202
.Ltmp49:
.LBB0_40:
	bl	.LBB0_2871
.LBB0_41:
.Ltmp50:
	@DEBUG_VALUE: mbedtls_strerror:ret <- $r6
	@DEBUG_VALUE: mbedtls_strerror:buf <- $r5
	@DEBUG_VALUE: mbedtls_strerror:buflen <- $r4
	.loc	1 0 9                           @ ../../../ThirdParty/mbedTLS/library/error.c:0:9
	ldr	r0, .LCPI0_1408
	.loc	1 226 9                         @ ../../../ThirdParty/mbedTLS/library/error.c:226:9
	cmp	r7, r0
	ble	.LBB0_42
	b	.LBB0_82
.Ltmp51:
.LBB0_42:
	@DEBUG_VALUE: mbedtls_strerror:ret <- $r6
	@DEBUG_VALUE: mbedtls_strerror:buf <- $r5
	@DEBUG_VALUE: mbedtls_strerror:buflen <- $r4
	.loc	1 0 9                           @ ../../../ThirdParty/mbedTLS/library/error.c:0:9
	ldr	r0, .LCPI0_1409
	.loc	1 226 9                         @ ../../../ThirdParty/mbedTLS/library/error.c:226:9
	cmp	r7, r0
	ble	.LBB0_43
	b	.LBB0_130
.Ltmp52:
.LBB0_43:
	@DEBUG_VALUE: mbedtls_strerror:ret <- $r6
	@DEBUG_VALUE: mbedtls_strerror:buf <- $r5
	@DEBUG_VALUE: mbedtls_strerror:buflen <- $r4
	.loc	1 0 9                           @ ../../../ThirdParty/mbedTLS/library/error.c:0:9
	movw	r0, #13568
	.loc	1 226 9                         @ ../../../ThirdParty/mbedTLS/library/error.c:226:9
	cmp	r7, r0
	bne	.LBB0_44
	bl	.LBB0_806
.Ltmp53:
.LBB0_44:
	@DEBUG_VALUE: mbedtls_strerror:ret <- $r6
	@DEBUG_VALUE: mbedtls_strerror:buf <- $r5
	@DEBUG_VALUE: mbedtls_strerror:buflen <- $r4
	.loc	1 0 9                           @ ../../../ThirdParty/mbedTLS/library/error.c:0:9
	movw	r0, #13696
	.loc	1 226 9                         @ ../../../ThirdParty/mbedTLS/library/error.c:226:9
	cmp	r7, r0
	bne	.LBB0_45
	bl	.LBB0_811
.Ltmp54:
.LBB0_45:
	bl	.LBB0_2871
.LBB0_46:
.Ltmp55:
	@DEBUG_VALUE: mbedtls_strerror:buf <- $r5
	@DEBUG_VALUE: mbedtls_strerror:buflen <- $r4
	.loc	1 0 9                           @ ../../../ThirdParty/mbedTLS/library/error.c:0:9
	ldr	r0, .LCPI0_1410
	.loc	1 226 9                         @ ../../../ThirdParty/mbedTLS/library/error.c:226:9
	cmp	r7, r0
	ble	.LBB0_47
	b	.LBB0_86
.Ltmp56:
.LBB0_47:
	@DEBUG_VALUE: mbedtls_strerror:buf <- $r5
	@DEBUG_VALUE: mbedtls_strerror:buflen <- $r4
	.loc	1 0 9                           @ ../../../ThirdParty/mbedTLS/library/error.c:0:9
	ldr	r0, .LCPI0_1411
	.loc	1 226 9                         @ ../../../ThirdParty/mbedTLS/library/error.c:226:9
	cmp	r7, r0
	ble	.LBB0_48
	b	.LBB0_165
.Ltmp57:
.LBB0_48:
	@DEBUG_VALUE: mbedtls_strerror:buf <- $r5
	@DEBUG_VALUE: mbedtls_strerror:buflen <- $r4
	.loc	1 0 9                           @ ../../../ThirdParty/mbedTLS/library/error.c:0:9
	movw	r0, #24704
	.loc	1 226 9                         @ ../../../ThirdParty/mbedTLS/library/error.c:226:9
	cmp	r7, r0
	bne	.LBB0_49
	b	.LBB0_248
.Ltmp58:
.LBB0_49:
	@DEBUG_VALUE: mbedtls_strerror:buf <- $r5
	@DEBUG_VALUE: mbedtls_strerror:buflen <- $r4
	.loc	1 0 9                           @ ../../../ThirdParty/mbedTLS/library/error.c:0:9
	movw	r0, #24832
	.loc	1 226 9                         @ ../../../ThirdParty/mbedTLS/library/error.c:226:9
	cmp	r7, r0
	beq	.LBB0_50
	bl	.LBB0_2871
.Ltmp59:
.LBB0_50:
	@DEBUG_VALUE: mbedtls_strerror:buf <- $r5
	@DEBUG_VALUE: mbedtls_strerror:buflen <- $r4
	.loc	1 237 13 is_stmt 1              @ ../../../ThirdParty/mbedTLS/library/error.c:237:13
	adr	r2, .LCPI0_1725
	mov	r0, r5
	mov	r1, r4
	bl	__2snprintf
	ldr	r0, .LCPI0_1412
.Ltmp60:
	.loc	1 238 13                        @ ../../../ThirdParty/mbedTLS/library/error.c:238:13
	cmp	r7, r0
	ble	.LBB0_51
	b	.LBB0_275
.Ltmp61:
.LBB0_51:
	@DEBUG_VALUE: mbedtls_strerror:buf <- $r5
	@DEBUG_VALUE: mbedtls_strerror:buflen <- $r4
	.loc	1 0 13 is_stmt 0                @ ../../../ThirdParty/mbedTLS/library/error.c:0:13
	ldr	r0, .LCPI0_1714
	.loc	1 238 13                        @ ../../../ThirdParty/mbedTLS/library/error.c:238:13
	cmp	r7, r0
	bgt	.LBB0_52
	b	.LBB0_332
.Ltmp62:
.LBB0_52:
	@DEBUG_VALUE: mbedtls_strerror:buf <- $r5
	@DEBUG_VALUE: mbedtls_strerror:buflen <- $r4
	.loc	1 0 13                          @ ../../../ThirdParty/mbedTLS/library/error.c:0:13
	ldr	r0, .LCPI0_1413
	.loc	1 238 13                        @ ../../../ThirdParty/mbedTLS/library/error.c:238:13
	cmp	r7, r0
	bgt	.LBB0_53
	bl	.LBB0_421
.Ltmp63:
.LBB0_53:
	@DEBUG_VALUE: mbedtls_strerror:buf <- $r5
	@DEBUG_VALUE: mbedtls_strerror:buflen <- $r4
	.loc	1 0 13                          @ ../../../ThirdParty/mbedTLS/library/error.c:0:13
	ldr	r0, .LCPI0_1722
	.loc	1 238 13                        @ ../../../ThirdParty/mbedTLS/library/error.c:238:13
	cmp	r7, r0
	ble	.LBB0_54
	bl	.LBB0_483
.Ltmp64:
.LBB0_54:
	@DEBUG_VALUE: mbedtls_strerror:buf <- $r5
	@DEBUG_VALUE: mbedtls_strerror:buflen <- $r4
	.loc	1 0 13                          @ ../../../ThirdParty/mbedTLS/library/error.c:0:13
	movw	r0, #13184
	.loc	1 238 13                        @ ../../../ThirdParty/mbedTLS/library/error.c:238:13
	cmp	r7, r0
	bne	.LBB0_55
	bl	.LBB0_783
.Ltmp65:
.LBB0_55:
	@DEBUG_VALUE: mbedtls_strerror:buf <- $r5
	@DEBUG_VALUE: mbedtls_strerror:buflen <- $r4
	.loc	1 0 13                          @ ../../../ThirdParty/mbedTLS/library/error.c:0:13
	movw	r0, #13312
	.loc	1 238 13                        @ ../../../ThirdParty/mbedTLS/library/error.c:238:13
	cmp	r7, r0
	bne	.LBB0_56
	bl	.LBB0_787
.Ltmp66:
.LBB0_56:
	@DEBUG_VALUE: mbedtls_strerror:buf <- $r5
	@DEBUG_VALUE: mbedtls_strerror:buflen <- $r4
	.loc	1 0 13                          @ ../../../ThirdParty/mbedTLS/library/error.c:0:13
	movw	r0, #13440
	.loc	1 238 13                        @ ../../../ThirdParty/mbedTLS/library/error.c:238:13
	cmp	r7, r0
	bne	.LBB0_57
	bl	.LBB0_797
.Ltmp67:
.LBB0_57:
	bl	.LBB0_1909
.Ltmp68:
.LBB0_58:
	@DEBUG_VALUE: mbedtls_strerror:ret <- $r6
	@DEBUG_VALUE: mbedtls_strerror:buf <- $r5
	@DEBUG_VALUE: mbedtls_strerror:buflen <- $r4
	.loc	1 0 13                          @ ../../../ThirdParty/mbedTLS/library/error.c:0:13
	ldr	r0, .LCPI0_1726
	.loc	1 226 9 is_stmt 1               @ ../../../ThirdParty/mbedTLS/library/error.c:226:9
	cmp	r7, r0
	ble	.LBB0_59
	b	.LBB0_174
.Ltmp69:
.LBB0_59:
	@DEBUG_VALUE: mbedtls_strerror:ret <- $r6
	@DEBUG_VALUE: mbedtls_strerror:buf <- $r5
	@DEBUG_VALUE: mbedtls_strerror:buflen <- $r4
	.loc	1 0 9 is_stmt 0                 @ ../../../ThirdParty/mbedTLS/library/error.c:0:9
	movw	r0, #4608
	.loc	1 226 9                         @ ../../../ThirdParty/mbedTLS/library/error.c:226:9
	cmp	r7, r0
	bne	.LBB0_60
	bl	.LBB0_1502
.Ltmp70:
.LBB0_60:
	@DEBUG_VALUE: mbedtls_strerror:ret <- $r6
	@DEBUG_VALUE: mbedtls_strerror:buf <- $r5
	@DEBUG_VALUE: mbedtls_strerror:buflen <- $r4
	.loc	1 0 9                           @ ../../../ThirdParty/mbedTLS/library/error.c:0:9
	movw	r0, #4736
	.loc	1 226 9                         @ ../../../ThirdParty/mbedTLS/library/error.c:226:9
	cmp	r7, r0
	bne	.LBB0_61
	bl	.LBB0_1507
.Ltmp71:
.LBB0_61:
	bl	.LBB0_2871
.LBB0_62:
.Ltmp72:
	@DEBUG_VALUE: mbedtls_strerror:buf <- $r5
	@DEBUG_VALUE: mbedtls_strerror:buflen <- $r4
	.loc	1 0 9                           @ ../../../ThirdParty/mbedTLS/library/error.c:0:9
	ldr	r0, .LCPI0_1727
	.loc	1 226 9                         @ ../../../ThirdParty/mbedTLS/library/error.c:226:9
	cmp	r7, r0
	ble	.LBB0_63
	b	.LBB0_177
.Ltmp73:
.LBB0_63:
	@DEBUG_VALUE: mbedtls_strerror:buf <- $r5
	@DEBUG_VALUE: mbedtls_strerror:buflen <- $r4
	.loc	1 0 9                           @ ../../../ThirdParty/mbedTLS/library/error.c:0:9
	movw	r0, #15744
	.loc	1 226 9                         @ ../../../ThirdParty/mbedTLS/library/error.c:226:9
	cmp	r7, r0
	bne	.LBB0_64
	bl	.LBB0_2148
.Ltmp74:
.LBB0_64:
	@DEBUG_VALUE: mbedtls_strerror:buf <- $r5
	@DEBUG_VALUE: mbedtls_strerror:buflen <- $r4
	.loc	1 0 9                           @ ../../../ThirdParty/mbedTLS/library/error.c:0:9
	movw	r0, #15872
	.loc	1 226 9                         @ ../../../ThirdParty/mbedTLS/library/error.c:226:9
	cmp	r7, r0
	bne	.LBB0_65
	bl	.LBB0_1934
.Ltmp75:
.LBB0_65:
	bl	.LBB0_2871
.LBB0_66:
.Ltmp76:
	@DEBUG_VALUE: mbedtls_strerror:ret <- $r6
	@DEBUG_VALUE: mbedtls_strerror:buf <- $r5
	@DEBUG_VALUE: mbedtls_strerror:buflen <- $r4
	.loc	1 0 9                           @ ../../../ThirdParty/mbedTLS/library/error.c:0:9
	ldr	r0, .LCPI0_1728
	.loc	1 226 9                         @ ../../../ThirdParty/mbedTLS/library/error.c:226:9
	cmp	r7, r0
	ble	.LBB0_67
	b	.LBB0_180
.Ltmp77:
.LBB0_67:
	@DEBUG_VALUE: mbedtls_strerror:ret <- $r6
	@DEBUG_VALUE: mbedtls_strerror:buf <- $r5
	@DEBUG_VALUE: mbedtls_strerror:buflen <- $r4
	.loc	1 0 9                           @ ../../../ThirdParty/mbedTLS/library/error.c:0:9
	movw	r0, #13056
	.loc	1 226 9                         @ ../../../ThirdParty/mbedTLS/library/error.c:226:9
	cmp	r7, r0
	bne	.LBB0_68
	bl	.LBB0_762
.Ltmp78:
.LBB0_68:
	@DEBUG_VALUE: mbedtls_strerror:ret <- $r6
	@DEBUG_VALUE: mbedtls_strerror:buf <- $r5
	@DEBUG_VALUE: mbedtls_strerror:buflen <- $r4
	.loc	1 0 9                           @ ../../../ThirdParty/mbedTLS/library/error.c:0:9
	movw	r0, #13184
	.loc	1 226 9                         @ ../../../ThirdParty/mbedTLS/library/error.c:226:9
	cmp	r7, r0
	bne	.LBB0_69
	bl	.LBB0_783
.Ltmp79:
.LBB0_69:
	bl	.LBB0_2871
.LBB0_70:
.Ltmp80:
	@DEBUG_VALUE: mbedtls_strerror:buf <- $r5
	@DEBUG_VALUE: mbedtls_strerror:buflen <- $r4
	.loc	1 0 9                           @ ../../../ThirdParty/mbedTLS/library/error.c:0:9
	ldr	r0, .LCPI0_530
	.loc	1 226 9                         @ ../../../ThirdParty/mbedTLS/library/error.c:226:9
	cmp	r7, r0
	ble	.LBB0_71
	b	.LBB0_183
.Ltmp81:
.LBB0_71:
	@DEBUG_VALUE: mbedtls_strerror:buf <- $r5
	@DEBUG_VALUE: mbedtls_strerror:buflen <- $r4
	.loc	1 0 9                           @ ../../../ThirdParty/mbedTLS/library/error.c:0:9
	movw	r0, #20736
	.loc	1 226 9                         @ ../../../ThirdParty/mbedTLS/library/error.c:226:9
	cmp	r7, r0
	bne	.LBB0_72
	bl	.LBB0_1249
.Ltmp82:
.LBB0_72:
	@DEBUG_VALUE: mbedtls_strerror:buf <- $r5
	@DEBUG_VALUE: mbedtls_strerror:buflen <- $r4
	.loc	1 0 9                           @ ../../../ThirdParty/mbedTLS/library/error.c:0:9
	movw	r0, #20864
	.loc	1 226 9                         @ ../../../ThirdParty/mbedTLS/library/error.c:226:9
	cmp	r7, r0
	bne	.LBB0_73
	bl	.LBB0_1289
.Ltmp83:
.LBB0_73:
	bl	.LBB0_2871
.LBB0_74:
.Ltmp84:
	@DEBUG_VALUE: mbedtls_strerror:ret <- $r6
	@DEBUG_VALUE: mbedtls_strerror:buf <- $r5
	@DEBUG_VALUE: mbedtls_strerror:buflen <- $r4
	.loc	1 0 9                           @ ../../../ThirdParty/mbedTLS/library/error.c:0:9
	ldr	r0, .LCPI0_531
	.loc	1 226 9                         @ ../../../ThirdParty/mbedTLS/library/error.c:226:9
	cmp	r7, r0
	ble	.LBB0_75
	b	.LBB0_186
.Ltmp85:
.LBB0_75:
	@DEBUG_VALUE: mbedtls_strerror:ret <- $r6
	@DEBUG_VALUE: mbedtls_strerror:buf <- $r5
	@DEBUG_VALUE: mbedtls_strerror:buflen <- $r4
	.loc	1 0 9                           @ ../../../ThirdParty/mbedTLS/library/error.c:0:9
	movw	r0, #7936
	.loc	1 226 9                         @ ../../../ThirdParty/mbedTLS/library/error.c:226:9
	cmp	r7, r0
	bne	.LBB0_76
	bl	.LBB0_2482
.Ltmp86:
.LBB0_76:
	@DEBUG_VALUE: mbedtls_strerror:ret <- $r6
	@DEBUG_VALUE: mbedtls_strerror:buf <- $r5
	@DEBUG_VALUE: mbedtls_strerror:buflen <- $r4
	.loc	1 0 9                           @ ../../../ThirdParty/mbedTLS/library/error.c:0:9
	movw	r0, #8064
	.loc	1 226 9                         @ ../../../ThirdParty/mbedTLS/library/error.c:226:9
	cmp	r7, r0
	bne	.LBB0_77
	bl	.LBB0_2478
.Ltmp87:
.LBB0_77:
	bl	.LBB0_2871
.LBB0_78:
.Ltmp88:
	@DEBUG_VALUE: mbedtls_strerror:buf <- $r5
	@DEBUG_VALUE: mbedtls_strerror:buflen <- $r4
	.loc	1 0 9                           @ ../../../ThirdParty/mbedTLS/library/error.c:0:9
	ldr	r0, .LCPI0_532
	.loc	1 226 9                         @ ../../../ThirdParty/mbedTLS/library/error.c:226:9
	cmp	r7, r0
	ble	.LBB0_79
	b	.LBB0_192
.Ltmp89:
.LBB0_79:
	@DEBUG_VALUE: mbedtls_strerror:buf <- $r5
	@DEBUG_VALUE: mbedtls_strerror:buflen <- $r4
	.loc	1 0 9                           @ ../../../ThirdParty/mbedTLS/library/error.c:0:9
	movw	r0, #19584
	.loc	1 226 9                         @ ../../../ThirdParty/mbedTLS/library/error.c:226:9
	cmp	r7, r0
	bne	.LBB0_80
	bl	.LBB0_1082
.Ltmp90:
.LBB0_80:
	@DEBUG_VALUE: mbedtls_strerror:buf <- $r5
	@DEBUG_VALUE: mbedtls_strerror:buflen <- $r4
	.loc	1 0 9                           @ ../../../ThirdParty/mbedTLS/library/error.c:0:9
	movw	r0, #19712
	.loc	1 226 9                         @ ../../../ThirdParty/mbedTLS/library/error.c:226:9
	cmp	r7, r0
	bne	.LBB0_81
	bl	.LBB0_999
.Ltmp91:
.LBB0_81:
	bl	.LBB0_2871
.LBB0_82:
.Ltmp92:
	@DEBUG_VALUE: mbedtls_strerror:ret <- $r6
	@DEBUG_VALUE: mbedtls_strerror:buf <- $r5
	@DEBUG_VALUE: mbedtls_strerror:buflen <- $r4
	.loc	1 0 9                           @ ../../../ThirdParty/mbedTLS/library/error.c:0:9
	ldr	r0, .LCPI0_533
	.loc	1 226 9                         @ ../../../ThirdParty/mbedTLS/library/error.c:226:9
	cmp	r7, r0
	ble	.LBB0_83
	b	.LBB0_195
.Ltmp93:
.LBB0_83:
	@DEBUG_VALUE: mbedtls_strerror:ret <- $r6
	@DEBUG_VALUE: mbedtls_strerror:buf <- $r5
	@DEBUG_VALUE: mbedtls_strerror:buflen <- $r4
	.loc	1 0 9                           @ ../../../ThirdParty/mbedTLS/library/error.c:0:9
	movw	r0, #14720
	.loc	1 226 9                         @ ../../../ThirdParty/mbedTLS/library/error.c:226:9
	cmp	r7, r0
	bne	.LBB0_84
	bl	.LBB0_1962
.Ltmp94:
.LBB0_84:
	@DEBUG_VALUE: mbedtls_strerror:ret <- $r6
	@DEBUG_VALUE: mbedtls_strerror:buf <- $r5
	@DEBUG_VALUE: mbedtls_strerror:buflen <- $r4
	.loc	1 0 9                           @ ../../../ThirdParty/mbedTLS/library/error.c:0:9
	movw	r0, #14848
	.loc	1 226 9                         @ ../../../ThirdParty/mbedTLS/library/error.c:226:9
	cmp	r7, r0
	bne	.LBB0_85
	bl	.LBB0_1953
.Ltmp95:
.LBB0_85:
	bl	.LBB0_2871
.LBB0_86:
.Ltmp96:
	@DEBUG_VALUE: mbedtls_strerror:buf <- $r5
	@DEBUG_VALUE: mbedtls_strerror:buflen <- $r4
	.loc	1 0 9                           @ ../../../ThirdParty/mbedTLS/library/error.c:0:9
	ldr	r0, .LCPI0_534
	.loc	1 226 9                         @ ../../../ThirdParty/mbedTLS/library/error.c:226:9
	cmp	r7, r0
	ble	.LBB0_87
	b	.LBB0_240
.Ltmp97:
.LBB0_87:
	@DEBUG_VALUE: mbedtls_strerror:buf <- $r5
	@DEBUG_VALUE: mbedtls_strerror:buflen <- $r4
	.loc	1 0 9                           @ ../../../ThirdParty/mbedTLS/library/error.c:0:9
	movw	r0, #25216
	.loc	1 226 9                         @ ../../../ThirdParty/mbedTLS/library/error.c:226:9
	cmp	r7, r0
	bne	.LBB0_88
	bl	.LBB0_604
.Ltmp98:
.LBB0_88:
	@DEBUG_VALUE: mbedtls_strerror:buf <- $r5
	@DEBUG_VALUE: mbedtls_strerror:buflen <- $r4
	.loc	1 0 9                           @ ../../../ThirdParty/mbedTLS/library/error.c:0:9
	movw	r0, #25344
	.loc	1 226 9                         @ ../../../ThirdParty/mbedTLS/library/error.c:226:9
	cmp	r7, r0
	beq	.LBB0_89
	bl	.LBB0_2871
.Ltmp99:
.LBB0_89:
	@DEBUG_VALUE: mbedtls_strerror:buf <- $r5
	@DEBUG_VALUE: mbedtls_strerror:buflen <- $r4
	.loc	1 245 13 is_stmt 1              @ ../../../ThirdParty/mbedTLS/library/error.c:245:13
	ldr	r2, __arm_cp.0_535
	mov	r0, r5
	mov	r1, r4
	bl	__2snprintf
	ldr	r0, .LCPI0_508
.Ltmp100:
	.loc	1 246 13                        @ ../../../ThirdParty/mbedTLS/library/error.c:246:13
	cmp	r7, r0
	ble	.LBB0_90
	b	.LBB0_263
.Ltmp101:
.LBB0_90:
	@DEBUG_VALUE: mbedtls_strerror:buf <- $r5
	@DEBUG_VALUE: mbedtls_strerror:buflen <- $r4
	.loc	1 0 13 is_stmt 0                @ ../../../ThirdParty/mbedTLS/library/error.c:0:13
	ldr	r0, .LCPI0_536
	.loc	1 246 13                        @ ../../../ThirdParty/mbedTLS/library/error.c:246:13
	cmp	r7, r0
	bgt	.LBB0_91
	b	.LBB0_302
.Ltmp102:
.LBB0_91:
	@DEBUG_VALUE: mbedtls_strerror:buf <- $r5
	@DEBUG_VALUE: mbedtls_strerror:buflen <- $r4
	.loc	1 0 13                          @ ../../../ThirdParty/mbedTLS/library/error.c:0:13
	ldr	r0, .LCPI0_526
	.loc	1 246 13                        @ ../../../ThirdParty/mbedTLS/library/error.c:246:13
	cmp	r7, r0
	bgt	.LBB0_92
	b	.LBB0_344
.Ltmp103:
.LBB0_92:
	@DEBUG_VALUE: mbedtls_strerror:buf <- $r5
	@DEBUG_VALUE: mbedtls_strerror:buflen <- $r4
	.loc	1 0 13                          @ ../../../ThirdParty/mbedTLS/library/error.c:0:13
	movw	r0, #13184
	.loc	1 246 13                        @ ../../../ThirdParty/mbedTLS/library/error.c:246:13
	cmp	r7, r0
	bne	.LBB0_93
	bl	.LBB0_783
.Ltmp104:
.LBB0_93:
	@DEBUG_VALUE: mbedtls_strerror:buf <- $r5
	@DEBUG_VALUE: mbedtls_strerror:buflen <- $r4
	.loc	1 0 13                          @ ../../../ThirdParty/mbedTLS/library/error.c:0:13
	movw	r0, #13312
	.loc	1 246 13                        @ ../../../ThirdParty/mbedTLS/library/error.c:246:13
	cmp	r7, r0
	bne	.LBB0_94
	bl	.LBB0_787
.Ltmp105:
.LBB0_94:
	@DEBUG_VALUE: mbedtls_strerror:buf <- $r5
	@DEBUG_VALUE: mbedtls_strerror:buflen <- $r4
	.loc	1 0 13                          @ ../../../ThirdParty/mbedTLS/library/error.c:0:13
	movw	r0, #13440
	.loc	1 246 13                        @ ../../../ThirdParty/mbedTLS/library/error.c:246:13
	cmp	r7, r0
	bne	.LBB0_95
	bl	.LBB0_797
.Ltmp106:
.LBB0_95:
	bl	.LBB0_957
.Ltmp107:
.LBB0_96:
	@DEBUG_VALUE: mbedtls_strerror:ret <- $r6
	@DEBUG_VALUE: mbedtls_strerror:buf <- $r5
	@DEBUG_VALUE: mbedtls_strerror:buflen <- $r4
	.loc	1 0 13                          @ ../../../ThirdParty/mbedTLS/library/error.c:0:13
	movw	r0, #4352
	.loc	1 226 9 is_stmt 1               @ ../../../ThirdParty/mbedTLS/library/error.c:226:9
	cmp	r7, r0
	bne	.LBB0_97
	bl	.LBB0_1492
.Ltmp108:
.LBB0_97:
	@DEBUG_VALUE: mbedtls_strerror:ret <- $r6
	@DEBUG_VALUE: mbedtls_strerror:buf <- $r5
	@DEBUG_VALUE: mbedtls_strerror:buflen <- $r4
	.loc	1 0 9 is_stmt 0                 @ ../../../ThirdParty/mbedTLS/library/error.c:0:9
	movw	r0, #4480
	.loc	1 226 9                         @ ../../../ThirdParty/mbedTLS/library/error.c:226:9
	cmp	r7, r0
	bne	.LBB0_98
	bl	.LBB0_1495
.Ltmp109:
.LBB0_98:
	bl	.LBB0_2871
.LBB0_99:
.Ltmp110:
	@DEBUG_VALUE: mbedtls_strerror:buf <- $r5
	@DEBUG_VALUE: mbedtls_strerror:buflen <- $r4
	.loc	1 0 9                           @ ../../../ThirdParty/mbedTLS/library/error.c:0:9
	movw	r0, #15488
	.loc	1 226 9                         @ ../../../ThirdParty/mbedTLS/library/error.c:226:9
	cmp	r7, r0
	bne	.LBB0_100
	bl	.LBB0_2165
.Ltmp111:
.LBB0_100:
	@DEBUG_VALUE: mbedtls_strerror:buf <- $r5
	@DEBUG_VALUE: mbedtls_strerror:buflen <- $r4
	.loc	1 0 9                           @ ../../../ThirdParty/mbedTLS/library/error.c:0:9
	movw	r0, #15616
	.loc	1 226 9                         @ ../../../ThirdParty/mbedTLS/library/error.c:226:9
	cmp	r7, r0
	bne	.LBB0_101
	bl	.LBB0_2156
.Ltmp112:
.LBB0_101:
	bl	.LBB0_2871
.LBB0_102:
.Ltmp113:
	@DEBUG_VALUE: mbedtls_strerror:ret <- $r6
	@DEBUG_VALUE: mbedtls_strerror:buf <- $r5
	@DEBUG_VALUE: mbedtls_strerror:buflen <- $r4
	.loc	1 0 9                           @ ../../../ThirdParty/mbedTLS/library/error.c:0:9
	movw	r0, #12800
	.loc	1 226 9                         @ ../../../ThirdParty/mbedTLS/library/error.c:226:9
	cmp	r7, r0
	bne	.LBB0_103
	bl	.LBB0_750
.Ltmp114:
.LBB0_103:
	@DEBUG_VALUE: mbedtls_strerror:ret <- $r6
	@DEBUG_VALUE: mbedtls_strerror:buf <- $r5
	@DEBUG_VALUE: mbedtls_strerror:buflen <- $r4
	.loc	1 0 9                           @ ../../../ThirdParty/mbedTLS/library/error.c:0:9
	movw	r0, #12928
	.loc	1 226 9                         @ ../../../ThirdParty/mbedTLS/library/error.c:226:9
	cmp	r7, r0
	beq	.LBB0_104
	bl	.LBB0_2871
.Ltmp115:
.LBB0_104:
	@DEBUG_VALUE: mbedtls_strerror:buf <- $r5
	@DEBUG_VALUE: mbedtls_strerror:buflen <- $r4
	.loc	1 262 13 is_stmt 1              @ ../../../ThirdParty/mbedTLS/library/error.c:262:13
	ldr	r2, __arm_cp.0_537
	mov	r0, r5
	mov	r1, r4
	bl	__2snprintf
	ldr	r0, .LCPI0_508
.Ltmp116:
	.loc	1 263 13                        @ ../../../ThirdParty/mbedTLS/library/error.c:263:13
	cmp	r7, r0
	bgt	.LBB0_105
	b	.LBB0_256
.Ltmp117:
.LBB0_105:
	@DEBUG_VALUE: mbedtls_strerror:buf <- $r5
	@DEBUG_VALUE: mbedtls_strerror:buflen <- $r4
	.loc	1 0 13 is_stmt 0                @ ../../../ThirdParty/mbedTLS/library/error.c:0:13
	ldr	r0, .LCPI0_504
	.loc	1 263 13                        @ ../../../ThirdParty/mbedTLS/library/error.c:263:13
	cmp	r7, r0
	bgt	.LBB0_106
	b	.LBB0_289
.Ltmp118:
.LBB0_106:
	@DEBUG_VALUE: mbedtls_strerror:buf <- $r5
	@DEBUG_VALUE: mbedtls_strerror:buflen <- $r4
	.loc	1 0 13                          @ ../../../ThirdParty/mbedTLS/library/error.c:0:13
	movw	r0, #20096
	.loc	1 263 13                        @ ../../../ThirdParty/mbedTLS/library/error.c:263:13
	cmp	r7, r0
	beq	.LBB0_107
	bl	.LBB0_770
.Ltmp119:
.LBB0_107:
	bl	.LBB0_836
.Ltmp120:
	.p2align	2
@ %bb.108:
	.loc	1 0 13                          @ ../../../ThirdParty/mbedTLS/library/error.c:0:13
__arm_cp.0_1712:
	.long	65408                           @ 0xff80
.Lcpi_end0:
	.size	__arm_cp.0_1712, .Lcpi_end0-__arm_cp.0_1712
	.p2align	2
@ %bb.109:
.LCPI0_1713:
	.long	15231                           @ 0x3b7f
	.p2align	2
@ %bb.110:
.LCPI0_1714:
	.long	12543                           @ 0x30ff
	.p2align	2
@ %bb.111:
.LCPI0_1715:
	.long	5119                            @ 0x13ff
	.p2align	2
@ %bb.112:
.LCPI0_1716:
	.long	4607                            @ 0x11ff
	.p2align	2
@ %bb.113:
__arm_cp.0_1717:
	.long	4351                            @ 0x10ff
.Lcpi_end1:
	.size	__arm_cp.0_1717, .Lcpi_end1-__arm_cp.0_1717
	.p2align	2
@ %bb.114:
.LCPI0_1718:
	.long	20095                           @ 0x4e7f
	.p2align	2
@ %bb.115:
.LCPI0_1719:
	.long	16255                           @ 0x3f7f
	.p2align	2
@ %bb.116:
.LCPI0_1720:
	.long	15743                           @ 0x3d7f
	.p2align	2
@ %bb.117:
.LCPI0_1721:
	.long	15487                           @ 0x3c7f
	.p2align	2
@ %bb.118:
.LCPI0_1722:
	.long	13567                           @ 0x34ff
	.p2align	2
@ %bb.119:
.LCPI0_1723:
	.long	13055                           @ 0x32ff
	.p2align	2
@ %bb.120:
.LCPI0_1724:
	.long	12799                           @ 0x31ff
	.p2align	1
.LBB0_121:
.Ltmp121:
	@DEBUG_VALUE: mbedtls_strerror:buf <- $r5
	@DEBUG_VALUE: mbedtls_strerror:buflen <- $r4
	movw	r0, #20352
	.loc	1 226 9 is_stmt 1               @ ../../../ThirdParty/mbedTLS/library/error.c:226:9
	cmp	r7, r0
	bne	.LBB0_122
	bl	.LBB0_817
.Ltmp122:
.LBB0_122:
	@DEBUG_VALUE: mbedtls_strerror:buf <- $r5
	@DEBUG_VALUE: mbedtls_strerror:buflen <- $r4
	.loc	1 0 9 is_stmt 0                 @ ../../../ThirdParty/mbedTLS/library/error.c:0:9
	movw	r0, #20608
	.loc	1 226 9                         @ ../../../ThirdParty/mbedTLS/library/error.c:226:9
	cmp	r7, r0
	bne	.LBB0_123
	bl	.LBB0_1231
.Ltmp123:
.LBB0_123:
	bl	.LBB0_2871
.LBB0_124:
.Ltmp124:
	@DEBUG_VALUE: mbedtls_strerror:ret <- $r6
	@DEBUG_VALUE: mbedtls_strerror:buf <- $r5
	@DEBUG_VALUE: mbedtls_strerror:buflen <- $r4
	.loc	1 0 9                           @ ../../../ThirdParty/mbedTLS/library/error.c:0:9
	movw	r0, #7680
	.loc	1 226 9                         @ ../../../ThirdParty/mbedTLS/library/error.c:226:9
	cmp	r7, r0
	bne	.LBB0_125
	bl	.LBB0_2866
.Ltmp125:
.LBB0_125:
	@DEBUG_VALUE: mbedtls_strerror:ret <- $r6
	@DEBUG_VALUE: mbedtls_strerror:buf <- $r5
	@DEBUG_VALUE: mbedtls_strerror:buflen <- $r4
	.loc	1 0 9                           @ ../../../ThirdParty/mbedTLS/library/error.c:0:9
	movw	r0, #7808
	.loc	1 226 9                         @ ../../../ThirdParty/mbedTLS/library/error.c:226:9
	cmp	r7, r0
	bne	.LBB0_126
	bl	.LBB0_2500
.Ltmp126:
.LBB0_126:
	bl	.LBB0_2871
.LBB0_127:
.Ltmp127:
	@DEBUG_VALUE: mbedtls_strerror:buf <- $r5
	@DEBUG_VALUE: mbedtls_strerror:buflen <- $r4
	.loc	1 0 9                           @ ../../../ThirdParty/mbedTLS/library/error.c:0:9
	movw	r0, #19328
	.loc	1 226 9                         @ ../../../ThirdParty/mbedTLS/library/error.c:226:9
	cmp	r7, r0
	bne	.LBB0_128
	bl	.LBB0_1177
.Ltmp128:
.LBB0_128:
	@DEBUG_VALUE: mbedtls_strerror:buf <- $r5
	@DEBUG_VALUE: mbedtls_strerror:buflen <- $r4
	.loc	1 0 9                           @ ../../../ThirdParty/mbedTLS/library/error.c:0:9
	movw	r0, #19456
	.loc	1 226 9                         @ ../../../ThirdParty/mbedTLS/library/error.c:226:9
	cmp	r7, r0
	bne	.LBB0_129
	bl	.LBB0_1172
.Ltmp129:
.LBB0_129:
	bl	.LBB0_2871
.LBB0_130:
.Ltmp130:
	@DEBUG_VALUE: mbedtls_strerror:ret <- $r6
	@DEBUG_VALUE: mbedtls_strerror:buf <- $r5
	@DEBUG_VALUE: mbedtls_strerror:buflen <- $r4
	.loc	1 0 9                           @ ../../../ThirdParty/mbedTLS/library/error.c:0:9
	movw	r0, #14464
	.loc	1 226 9                         @ ../../../ThirdParty/mbedTLS/library/error.c:226:9
	cmp	r7, r0
	bne	.LBB0_131
	bl	.LBB0_2456
.Ltmp131:
.LBB0_131:
	@DEBUG_VALUE: mbedtls_strerror:ret <- $r6
	@DEBUG_VALUE: mbedtls_strerror:buf <- $r5
	@DEBUG_VALUE: mbedtls_strerror:buflen <- $r4
	.loc	1 0 9                           @ ../../../ThirdParty/mbedTLS/library/error.c:0:9
	movw	r0, #14592
	.loc	1 226 9                         @ ../../../ThirdParty/mbedTLS/library/error.c:226:9
	cmp	r7, r0
	bne	.LBB0_132
	bl	.LBB0_1966
.Ltmp132:
.LBB0_132:
	bl	.LBB0_2871
@ %bb.133:
@ %bb.134:
@ %bb.135:
@ %bb.136:
@ %bb.137:
@ %bb.138:
@ %bb.139:
@ %bb.140:
@ %bb.141:
@ %bb.142:
@ %bb.143:
	.p2align	2
@ %bb.144:
	.loc	1 0 9                           @ ../../../ThirdParty/mbedTLS/library/error.c:0:9
.LCPI0_1397:
	.long	13055                           @ 0x32ff
@ %bb.145:
	.p2align	2
@ %bb.146:
__arm_cp.0_1399:
	.long	.L.str.10
.Lcpi_end2:
	.size	__arm_cp.0_1399, .Lcpi_end2-__arm_cp.0_1399
	.p2align	2
@ %bb.147:
.LCPI0_1400:
	.long	13439                           @ 0x347f
	.p2align	2
@ %bb.148:
__arm_cp.0_1401:
	.long	24703                           @ 0x607f
.Lcpi_end3:
	.size	__arm_cp.0_1401, .Lcpi_end3-__arm_cp.0_1401
	.p2align	2
@ %bb.149:
.LCPI0_1402:
	.long	20735                           @ 0x50ff
	.p2align	2
@ %bb.150:
.LCPI0_1403:
	.long	20351                           @ 0x4f7f
	.p2align	2
@ %bb.151:
.LCPI0_1404:
	.long	7935                            @ 0x1eff
	.p2align	2
@ %bb.152:
.LCPI0_1405:
	.long	7679                            @ 0x1dff
	.p2align	2
@ %bb.153:
.LCPI0_1406:
	.long	19583                           @ 0x4c7f
	.p2align	2
@ %bb.154:
.LCPI0_1407:
	.long	19327                           @ 0x4b7f
	.p2align	2
@ %bb.155:
.LCPI0_1408:
	.long	14719                           @ 0x397f
	.p2align	2
@ %bb.156:
.LCPI0_1409:
	.long	14463                           @ 0x387f
	.p2align	2
@ %bb.157:
.LCPI0_1410:
	.long	25215                           @ 0x627f
	.p2align	2
@ %bb.158:
.LCPI0_1411:
	.long	24959                           @ 0x617f
	.p2align	2
@ %bb.159:
.LCPI0_1412:
	.long	19199                           @ 0x4aff
	.p2align	2
@ %bb.160:
.LCPI0_1413:
	.long	13183                           @ 0x337f
	.p2align	2
@ %bb.161:
.LCPI0_1725:
.L.str.1:
	.asciz	"CIPHER - Bad input parameters\000\000"
	.p2align	2
@ %bb.162:
.LCPI0_1726:
	.long	4863                            @ 0x12ff
	.p2align	2
@ %bb.163:
.LCPI0_1727:
	.long	15999                           @ 0x3e7f
	.p2align	2
@ %bb.164:
.LCPI0_1728:
	.long	13311                           @ 0x33ff
	.p2align	1
.LBB0_165:
.Ltmp133:
	@DEBUG_VALUE: mbedtls_strerror:buf <- $r5
	@DEBUG_VALUE: mbedtls_strerror:buflen <- $r4
	movw	r0, #24960
	.loc	1 226 9                         @ ../../../ThirdParty/mbedTLS/library/error.c:226:9
	cmp	r7, r0
	bne	.LBB0_166
	bl	.LBB0_561
.Ltmp134:
.LBB0_166:
	@DEBUG_VALUE: mbedtls_strerror:buf <- $r5
	@DEBUG_VALUE: mbedtls_strerror:buflen <- $r4
	.loc	1 0 9                           @ ../../../ThirdParty/mbedTLS/library/error.c:0:9
	movw	r0, #25088
	.loc	1 226 9                         @ ../../../ThirdParty/mbedTLS/library/error.c:226:9
	cmp	r7, r0
	beq	.LBB0_167
	bl	.LBB0_2871
.Ltmp135:
.LBB0_167:
	@DEBUG_VALUE: mbedtls_strerror:buf <- $r5
	@DEBUG_VALUE: mbedtls_strerror:buflen <- $r4
	.loc	1 241 13 is_stmt 1              @ ../../../ThirdParty/mbedTLS/library/error.c:241:13
	ldr	r2, __arm_cp.0_538
	mov	r0, r5
	mov	r1, r4
	bl	__2snprintf
	ldr	r0, .LCPI0_519
.Ltmp136:
	.loc	1 242 13                        @ ../../../ThirdParty/mbedTLS/library/error.c:242:13
	cmp	r7, r0
	bgt	.LBB0_168
	b	.LBB0_269
.Ltmp137:
.LBB0_168:
	@DEBUG_VALUE: mbedtls_strerror:buf <- $r5
	@DEBUG_VALUE: mbedtls_strerror:buflen <- $r4
	cmp	r7, r6
	bgt	.LBB0_169
	b	.LBB0_310
.Ltmp138:
.LBB0_169:
	@DEBUG_VALUE: mbedtls_strerror:buf <- $r5
	@DEBUG_VALUE: mbedtls_strerror:buflen <- $r4
	ldr	r0, .LCPI0_522
	cmp	r7, r0
	bgt	.LBB0_170
	b	.LBB0_364
.Ltmp139:
.LBB0_170:
	@DEBUG_VALUE: mbedtls_strerror:buf <- $r5
	@DEBUG_VALUE: mbedtls_strerror:buflen <- $r4
	.loc	1 0 13 is_stmt 0                @ ../../../ThirdParty/mbedTLS/library/error.c:0:13
	ldr	r0, .LCPI0_534
	.loc	1 242 13                        @ ../../../ThirdParty/mbedTLS/library/error.c:242:13
	cmp	r7, r0
	ble	.LBB0_171
	bl	.LBB0_480
.Ltmp140:
.LBB0_171:
	@DEBUG_VALUE: mbedtls_strerror:buf <- $r5
	@DEBUG_VALUE: mbedtls_strerror:buflen <- $r4
	.loc	1 0 13                          @ ../../../ThirdParty/mbedTLS/library/error.c:0:13
	movw	r0, #25216
	.loc	1 242 13                        @ ../../../ThirdParty/mbedTLS/library/error.c:242:13
	cmp	r7, r0
	bne	.LBB0_172
	bl	.LBB0_604
.Ltmp141:
.LBB0_172:
	@DEBUG_VALUE: mbedtls_strerror:buf <- $r5
	@DEBUG_VALUE: mbedtls_strerror:buflen <- $r4
	.loc	1 0 13                          @ ../../../ThirdParty/mbedTLS/library/error.c:0:13
	movw	r0, #25344
	.loc	1 242 13                        @ ../../../ThirdParty/mbedTLS/library/error.c:242:13
	cmp	r7, r0
	bne	.LBB0_173
	b	.LBB0_89
.Ltmp142:
.LBB0_173:
	bl	.LBB0_1203
.Ltmp143:
.LBB0_174:
	@DEBUG_VALUE: mbedtls_strerror:ret <- $r6
	@DEBUG_VALUE: mbedtls_strerror:buf <- $r5
	@DEBUG_VALUE: mbedtls_strerror:buflen <- $r4
	.loc	1 0 13                          @ ../../../ThirdParty/mbedTLS/library/error.c:0:13
	movw	r0, #4864
	.loc	1 226 9 is_stmt 1               @ ../../../ThirdParty/mbedTLS/library/error.c:226:9
	cmp	r7, r0
	bne	.LBB0_175
	bl	.LBB0_1629
.Ltmp144:
.LBB0_175:
	@DEBUG_VALUE: mbedtls_strerror:ret <- $r6
	@DEBUG_VALUE: mbedtls_strerror:buf <- $r5
	@DEBUG_VALUE: mbedtls_strerror:buflen <- $r4
	.loc	1 0 9 is_stmt 0                 @ ../../../ThirdParty/mbedTLS/library/error.c:0:9
	movw	r0, #4992
	.loc	1 226 9                         @ ../../../ThirdParty/mbedTLS/library/error.c:226:9
	cmp	r7, r0
	bne	.LBB0_176
	bl	.LBB0_1637
.Ltmp145:
.LBB0_176:
	bl	.LBB0_2871
.LBB0_177:
.Ltmp146:
	@DEBUG_VALUE: mbedtls_strerror:buf <- $r5
	@DEBUG_VALUE: mbedtls_strerror:buflen <- $r4
	.loc	1 0 9                           @ ../../../ThirdParty/mbedTLS/library/error.c:0:9
	movw	r0, #16000
	.loc	1 226 9                         @ ../../../ThirdParty/mbedTLS/library/error.c:226:9
	cmp	r7, r0
	bne	.LBB0_178
	bl	.LBB0_1923
.Ltmp147:
.LBB0_178:
	@DEBUG_VALUE: mbedtls_strerror:buf <- $r5
	@DEBUG_VALUE: mbedtls_strerror:buflen <- $r4
	.loc	1 0 9                           @ ../../../ThirdParty/mbedTLS/library/error.c:0:9
	movw	r0, #16128
	.loc	1 226 9                         @ ../../../ThirdParty/mbedTLS/library/error.c:226:9
	cmp	r7, r0
	bne	.LBB0_179
	bl	.LBB0_1912
.Ltmp148:
.LBB0_179:
	bl	.LBB0_2871
.LBB0_180:
.Ltmp149:
	@DEBUG_VALUE: mbedtls_strerror:ret <- $r6
	@DEBUG_VALUE: mbedtls_strerror:buf <- $r5
	@DEBUG_VALUE: mbedtls_strerror:buflen <- $r4
	.loc	1 0 9                           @ ../../../ThirdParty/mbedTLS/library/error.c:0:9
	movw	r0, #13312
	.loc	1 226 9                         @ ../../../ThirdParty/mbedTLS/library/error.c:226:9
	cmp	r7, r0
	bne	.LBB0_181
	bl	.LBB0_787
.Ltmp150:
.LBB0_181:
	@DEBUG_VALUE: mbedtls_strerror:ret <- $r6
	@DEBUG_VALUE: mbedtls_strerror:buf <- $r5
	@DEBUG_VALUE: mbedtls_strerror:buflen <- $r4
	.loc	1 0 9                           @ ../../../ThirdParty/mbedTLS/library/error.c:0:9
	movw	r0, #13440
	.loc	1 226 9                         @ ../../../ThirdParty/mbedTLS/library/error.c:226:9
	cmp	r7, r0
	bne	.LBB0_182
	bl	.LBB0_797
.Ltmp151:
.LBB0_182:
	bl	.LBB0_2871
.LBB0_183:
.Ltmp152:
	@DEBUG_VALUE: mbedtls_strerror:buf <- $r5
	@DEBUG_VALUE: mbedtls_strerror:buflen <- $r4
	.loc	1 0 9                           @ ../../../ThirdParty/mbedTLS/library/error.c:0:9
	movw	r0, #20992
	.loc	1 226 9                         @ ../../../ThirdParty/mbedTLS/library/error.c:226:9
	cmp	r7, r0
	bne	.LBB0_184
	bl	.LBB0_1342
.Ltmp153:
.LBB0_184:
	@DEBUG_VALUE: mbedtls_strerror:buf <- $r5
	@DEBUG_VALUE: mbedtls_strerror:buflen <- $r4
	.loc	1 0 9                           @ ../../../ThirdParty/mbedTLS/library/error.c:0:9
	movw	r0, #21120
	.loc	1 226 9                         @ ../../../ThirdParty/mbedTLS/library/error.c:226:9
	cmp	r7, r0
	bne	.LBB0_185
	bl	.LBB0_1353
.Ltmp154:
.LBB0_185:
	bl	.LBB0_2871
.LBB0_186:
.Ltmp155:
	@DEBUG_VALUE: mbedtls_strerror:ret <- $r6
	@DEBUG_VALUE: mbedtls_strerror:buf <- $r5
	@DEBUG_VALUE: mbedtls_strerror:buflen <- $r4
	.loc	1 0 9                           @ ../../../ThirdParty/mbedTLS/library/error.c:0:9
	movw	r0, #12160
	.loc	1 226 9                         @ ../../../ThirdParty/mbedTLS/library/error.c:226:9
	cmp	r7, r0
	bne	.LBB0_187
	bl	.LBB0_2870
.Ltmp156:
.LBB0_187:
	@DEBUG_VALUE: mbedtls_strerror:ret <- $r6
	@DEBUG_VALUE: mbedtls_strerror:buf <- $r5
	@DEBUG_VALUE: mbedtls_strerror:buflen <- $r4
	.loc	1 0 9                           @ ../../../ThirdParty/mbedTLS/library/error.c:0:9
	movw	r0, #12416
	.loc	1 226 9                         @ ../../../ThirdParty/mbedTLS/library/error.c:226:9
	cmp	r7, r0
	beq	.LBB0_188
	bl	.LBB0_2871
.Ltmp157:
.LBB0_188:
	@DEBUG_VALUE: mbedtls_strerror:buf <- $r5
	@DEBUG_VALUE: mbedtls_strerror:buflen <- $r4
	.loc	1 254 13 is_stmt 1              @ ../../../ThirdParty/mbedTLS/library/error.c:254:13
	ldr	r2, __arm_cp.0_539
	mov	r0, r5
	mov	r1, r4
	bl	__2snprintf
	ldr	r0, .LCPI0_529
.Ltmp158:
	.loc	1 255 13                        @ ../../../ThirdParty/mbedTLS/library/error.c:255:13
	cmp	r7, r0
	ble	.LBB0_189
	bl	.LBB0_727
.Ltmp159:
.LBB0_189:
	@DEBUG_VALUE: mbedtls_strerror:buf <- $r5
	@DEBUG_VALUE: mbedtls_strerror:buflen <- $r4
	.loc	1 0 13 is_stmt 0                @ ../../../ThirdParty/mbedTLS/library/error.c:0:13
	ldr	r0, .LCPI0_536
	.loc	1 255 13                        @ ../../../ThirdParty/mbedTLS/library/error.c:255:13
	cmp	r7, r0
	ble	.LBB0_190
	bl	.LBB0_730
.Ltmp160:
.LBB0_190:
	@DEBUG_VALUE: mbedtls_strerror:buf <- $r5
	@DEBUG_VALUE: mbedtls_strerror:buflen <- $r4
	.loc	1 0 13                          @ ../../../ThirdParty/mbedTLS/library/error.c:0:13
	movw	r0, #12544
	.loc	1 255 13                        @ ../../../ThirdParty/mbedTLS/library/error.c:255:13
	cmp	r7, r0
	beq	.LBB0_191
	bl	.LBB0_739
.Ltmp161:
.LBB0_191:
	.loc	1 0 13                          @ ../../../ThirdParty/mbedTLS/library/error.c:0:13
	bl	.LBB0_726
.LBB0_192:
.Ltmp162:
	@DEBUG_VALUE: mbedtls_strerror:buf <- $r5
	@DEBUG_VALUE: mbedtls_strerror:buflen <- $r4
	movw	r0, #19840
	.loc	1 226 9 is_stmt 1               @ ../../../ThirdParty/mbedTLS/library/error.c:226:9
	cmp	r7, r0
	bne	.LBB0_193
	bl	.LBB0_956
.Ltmp163:
.LBB0_193:
	@DEBUG_VALUE: mbedtls_strerror:buf <- $r5
	@DEBUG_VALUE: mbedtls_strerror:buflen <- $r4
	.loc	1 0 9 is_stmt 0                 @ ../../../ThirdParty/mbedTLS/library/error.c:0:9
	movw	r0, #19968
	.loc	1 226 9                         @ ../../../ThirdParty/mbedTLS/library/error.c:226:9
	cmp	r7, r0
	bne	.LBB0_194
	bl	.LBB0_916
.Ltmp164:
.LBB0_194:
	bl	.LBB0_2871
.LBB0_195:
.Ltmp165:
	@DEBUG_VALUE: mbedtls_strerror:ret <- $r6
	@DEBUG_VALUE: mbedtls_strerror:buf <- $r5
	@DEBUG_VALUE: mbedtls_strerror:buflen <- $r4
	.loc	1 0 9                           @ ../../../ThirdParty/mbedTLS/library/error.c:0:9
	movw	r0, #14976
	.loc	1 226 9                         @ ../../../ThirdParty/mbedTLS/library/error.c:226:9
	cmp	r7, r0
	bne	.LBB0_196
	bl	.LBB0_1929
.Ltmp166:
.LBB0_196:
	@DEBUG_VALUE: mbedtls_strerror:ret <- $r6
	@DEBUG_VALUE: mbedtls_strerror:buf <- $r5
	@DEBUG_VALUE: mbedtls_strerror:buflen <- $r4
	.loc	1 0 9                           @ ../../../ThirdParty/mbedTLS/library/error.c:0:9
	movw	r0, #15104
	.loc	1 226 9                         @ ../../../ThirdParty/mbedTLS/library/error.c:226:9
	cmp	r7, r0
	bne	.LBB0_197
	bl	.LBB0_2356
.Ltmp167:
.LBB0_197:
	bl	.LBB0_2871
@ %bb.198:
@ %bb.199:
@ %bb.200:
@ %bb.201:
@ %bb.202:
@ %bb.203:
	.p2align	2
@ %bb.204:
	.loc	1 0 9                           @ ../../../ThirdParty/mbedTLS/library/error.c:0:9
.LCPI0_504:
	.long	20095                           @ 0x4e7f
@ %bb.205:
@ %bb.206:
@ %bb.207:
	.p2align	2
@ %bb.208:
.LCPI0_508:
	.long	13567                           @ 0x34ff
@ %bb.209:
@ %bb.210:
@ %bb.211:
@ %bb.212:
@ %bb.213:
@ %bb.214:
@ %bb.215:
@ %bb.216:
@ %bb.217:
@ %bb.218:
	.p2align	2
@ %bb.219:
.LCPI0_519:
	.long	19327                           @ 0x4b7f
@ %bb.220:
@ %bb.221:
	.p2align	2
@ %bb.222:
.LCPI0_522:
	.long	25215                           @ 0x627f
@ %bb.223:
@ %bb.224:
@ %bb.225:
	.p2align	2
@ %bb.226:
.LCPI0_526:
	.long	13183                           @ 0x337f
@ %bb.227:
@ %bb.228:
	.p2align	2
@ %bb.229:
.LCPI0_529:
	.long	13311                           @ 0x33ff
	.p2align	2
@ %bb.230:
.LCPI0_530:
	.long	20991                           @ 0x51ff
	.p2align	2
@ %bb.231:
.LCPI0_531:
	.long	12159                           @ 0x2f7f
	.p2align	2
@ %bb.232:
.LCPI0_532:
	.long	19839                           @ 0x4d7f
	.p2align	2
@ %bb.233:
.LCPI0_533:
	.long	14975                           @ 0x3a7f
	.p2align	2
@ %bb.234:
.LCPI0_534:
	.long	25471                           @ 0x637f
	.p2align	2
@ %bb.235:
__arm_cp.0_535:
	.long	.L.str.5
.Lcpi_end4:
	.size	__arm_cp.0_535, .Lcpi_end4-__arm_cp.0_535
	.p2align	2
@ %bb.236:
.LCPI0_536:
	.long	12927                           @ 0x327f
	.p2align	2
@ %bb.237:
__arm_cp.0_537:
	.long	.L.str.12
.Lcpi_end5:
	.size	__arm_cp.0_537, .Lcpi_end5-__arm_cp.0_537
	.p2align	2
@ %bb.238:
__arm_cp.0_538:
	.long	.L.str.3
.Lcpi_end6:
	.size	__arm_cp.0_538, .Lcpi_end6-__arm_cp.0_538
	.p2align	2
@ %bb.239:
__arm_cp.0_539:
	.long	.L.str.8
.Lcpi_end7:
	.size	__arm_cp.0_539, .Lcpi_end7-__arm_cp.0_539
	.p2align	1
.LBB0_240:
.Ltmp168:
	@DEBUG_VALUE: mbedtls_strerror:buf <- $r5
	@DEBUG_VALUE: mbedtls_strerror:buflen <- $r4
	movw	r0, #25472
	.loc	1 226 9                         @ ../../../ThirdParty/mbedTLS/library/error.c:226:9
	cmp	r7, r0
	bne	.LBB0_241
	bl	.LBB0_721
.Ltmp169:
.LBB0_241:
	@DEBUG_VALUE: mbedtls_strerror:buf <- $r5
	@DEBUG_VALUE: mbedtls_strerror:buflen <- $r4
	.loc	1 0 9                           @ ../../../ThirdParty/mbedTLS/library/error.c:0:9
	movw	r0, #25600
	.loc	1 226 9                         @ ../../../ThirdParty/mbedTLS/library/error.c:226:9
	cmp	r7, r0
	beq	.LBB0_242
	bl	.LBB0_2871
.Ltmp170:
.LBB0_242:
	@DEBUG_VALUE: mbedtls_strerror:buf <- $r5
	@DEBUG_VALUE: mbedtls_strerror:buflen <- $r4
	.loc	1 249 13 is_stmt 1              @ ../../../ThirdParty/mbedTLS/library/error.c:249:13
	ldr	r2, __arm_cp.0_1729
	mov	r0, r5
	mov	r1, r4
	bl	__2snprintf
	ldr	r0, .LCPI0_1730
.Ltmp171:
	.loc	1 253 13                        @ ../../../ThirdParty/mbedTLS/library/error.c:253:13
	cmp	r7, r0
	bgt	.LBB0_260
.Ltmp172:
@ %bb.243:
	@DEBUG_VALUE: mbedtls_strerror:buf <- $r5
	@DEBUG_VALUE: mbedtls_strerror:buflen <- $r4
	.loc	1 0 13 is_stmt 0                @ ../../../ThirdParty/mbedTLS/library/error.c:0:13
	ldr	r0, .LCPI0_1731
	.loc	1 253 13                        @ ../../../ThirdParty/mbedTLS/library/error.c:253:13
	cmp	r7, r0
	bgt	.LBB0_244
	b	.LBB0_298
.Ltmp173:
.LBB0_244:
	@DEBUG_VALUE: mbedtls_strerror:buf <- $r5
	@DEBUG_VALUE: mbedtls_strerror:buflen <- $r4
	.loc	1 0 13                          @ ../../../ThirdParty/mbedTLS/library/error.c:0:13
	ldr	r0, .LCPI0_1732
	.loc	1 253 13                        @ ../../../ThirdParty/mbedTLS/library/error.c:253:13
	cmp	r7, r0
	bgt	.LBB0_257
.Ltmp174:
@ %bb.245:
	@DEBUG_VALUE: mbedtls_strerror:buf <- $r5
	@DEBUG_VALUE: mbedtls_strerror:buflen <- $r4
	.loc	1 0 13                          @ ../../../ThirdParty/mbedTLS/library/error.c:0:13
	movw	r0, #12800
	.loc	1 253 13                        @ ../../../ThirdParty/mbedTLS/library/error.c:253:13
	cmp	r7, r0
	bne	.LBB0_246
	bl	.LBB0_750
.Ltmp175:
.LBB0_246:
	@DEBUG_VALUE: mbedtls_strerror:buf <- $r5
	@DEBUG_VALUE: mbedtls_strerror:buflen <- $r4
	.loc	1 0 13                          @ ../../../ThirdParty/mbedTLS/library/error.c:0:13
	movw	r0, #12928
	.loc	1 253 13                        @ ../../../ThirdParty/mbedTLS/library/error.c:253:13
	cmp	r7, r0
	bne	.LBB0_247
	b	.LBB0_104
.Ltmp176:
.LBB0_247:
	bl	.LBB0_837
.LBB0_248:
.Ltmp177:
	@DEBUG_VALUE: mbedtls_strerror:buf <- $r5
	@DEBUG_VALUE: mbedtls_strerror:buflen <- $r4
	.loc	1 235 13 is_stmt 1              @ ../../../ThirdParty/mbedTLS/library/error.c:235:13
	adr	r2, .LCPI0_1733
	mov	r0, r5
	mov	r1, r4
	bl	__2snprintf
	ldr	r0, .LCPI0_1734
.Ltmp178:
	.loc	1 236 13                        @ ../../../ThirdParty/mbedTLS/library/error.c:236:13
	cmp	r7, r0
	ble	.LBB0_249
	b	.LBB0_282
.Ltmp179:
.LBB0_249:
	@DEBUG_VALUE: mbedtls_strerror:buf <- $r5
	@DEBUG_VALUE: mbedtls_strerror:buflen <- $r4
	.loc	1 0 13 is_stmt 0                @ ../../../ThirdParty/mbedTLS/library/error.c:0:13
	ldr	r0, __arm_cp.0_1735
	.loc	1 236 13                        @ ../../../ThirdParty/mbedTLS/library/error.c:236:13
	cmp	r7, r0
	ble	.LBB0_250
	b	.LBB0_320
.Ltmp180:
.LBB0_250:
	@DEBUG_VALUE: mbedtls_strerror:buf <- $r5
	@DEBUG_VALUE: mbedtls_strerror:buflen <- $r4
	.loc	1 0 13                          @ ../../../ThirdParty/mbedTLS/library/error.c:0:13
	ldr	r0, .LCPI0_1736
	.loc	1 236 13                        @ ../../../ThirdParty/mbedTLS/library/error.c:236:13
	cmp	r7, r0
	ble	.LBB0_251
	b	.LBB0_401
.Ltmp181:
.LBB0_251:
	@DEBUG_VALUE: mbedtls_strerror:buf <- $r5
	@DEBUG_VALUE: mbedtls_strerror:buflen <- $r4
	.loc	1 0 13                          @ ../../../ThirdParty/mbedTLS/library/error.c:0:13
	ldr	r0, .LCPI0_1737
	.loc	1 236 13                        @ ../../../ThirdParty/mbedTLS/library/error.c:236:13
	cmp	r7, r0
	ble	.LBB0_252
	b	.LBB0_490
.Ltmp182:
.LBB0_252:
	@DEBUG_VALUE: mbedtls_strerror:buf <- $r5
	@DEBUG_VALUE: mbedtls_strerror:buflen <- $r4
	.loc	1 0 13                          @ ../../../ThirdParty/mbedTLS/library/error.c:0:13
	ldr	r0, .LCPI0_1738
	.loc	1 236 13                        @ ../../../ThirdParty/mbedTLS/library/error.c:236:13
	cmp	r7, r0
	ble	.LBB0_253
	bl	.LBB0_537
.Ltmp183:
.LBB0_253:
	@DEBUG_VALUE: mbedtls_strerror:buf <- $r5
	@DEBUG_VALUE: mbedtls_strerror:buflen <- $r4
	.loc	1 0 13                          @ ../../../ThirdParty/mbedTLS/library/error.c:0:13
	movw	r0, #4224
	.loc	1 236 13                        @ ../../../ThirdParty/mbedTLS/library/error.c:236:13
	cmp	r7, r0
	bne	.LBB0_254
	bl	.LBB0_1356
.Ltmp184:
.LBB0_254:
	@DEBUG_VALUE: mbedtls_strerror:buf <- $r5
	@DEBUG_VALUE: mbedtls_strerror:buflen <- $r4
	.loc	1 0 13                          @ ../../../ThirdParty/mbedTLS/library/error.c:0:13
	movw	r0, #4352
	.loc	1 236 13                        @ ../../../ThirdParty/mbedTLS/library/error.c:236:13
	cmp	r7, r0
	bne	.LBB0_255
	bl	.LBB0_1492
.Ltmp185:
.LBB0_255:
	bl	.LBB0_2889
.LBB0_256:
.Ltmp186:
	@DEBUG_VALUE: mbedtls_strerror:buf <- $r5
	@DEBUG_VALUE: mbedtls_strerror:buflen <- $r4
	.loc	1 0 13                          @ ../../../ThirdParty/mbedTLS/library/error.c:0:13
	ldr	r0, .LCPI0_1730
	.loc	1 263 13 is_stmt 1              @ ../../../ThirdParty/mbedTLS/library/error.c:263:13
	cmp	r7, r0
	ble	.LBB0_257
	b	.LBB0_292
.Ltmp187:
.LBB0_257:
	@DEBUG_VALUE: mbedtls_strerror:buf <- $r5
	@DEBUG_VALUE: mbedtls_strerror:buflen <- $r4
	.loc	1 0 13 is_stmt 0                @ ../../../ThirdParty/mbedTLS/library/error.c:0:13
	movw	r0, #13056
	cmp	r7, r0
	bne	.LBB0_258
	bl	.LBB0_762
.Ltmp188:
.LBB0_258:
	@DEBUG_VALUE: mbedtls_strerror:buf <- $r5
	@DEBUG_VALUE: mbedtls_strerror:buflen <- $r4
	movw	r0, #13184
	cmp	r7, r0
	bne	.LBB0_259
	bl	.LBB0_783
.Ltmp189:
.LBB0_259:
	bl	.LBB0_837
.LBB0_260:
.Ltmp190:
	@DEBUG_VALUE: mbedtls_strerror:buf <- $r5
	@DEBUG_VALUE: mbedtls_strerror:buflen <- $r4
	ldr	r0, .LCPI0_1739
	.loc	1 253 13 is_stmt 1              @ ../../../ThirdParty/mbedTLS/library/error.c:253:13
	cmp	r7, r0
	ble	.LBB0_261
	bl	.LBB0_766
.Ltmp191:
.LBB0_261:
	@DEBUG_VALUE: mbedtls_strerror:buf <- $r5
	@DEBUG_VALUE: mbedtls_strerror:buflen <- $r4
	.loc	1 0 13 is_stmt 0                @ ../../../ThirdParty/mbedTLS/library/error.c:0:13
	movw	r0, #13312
	.loc	1 253 13                        @ ../../../ThirdParty/mbedTLS/library/error.c:253:13
	cmp	r7, r0
	beq	.LBB0_262
	bl	.LBB0_773
.Ltmp192:
.LBB0_262:
	bl	.LBB0_787
.LBB0_263:
.Ltmp193:
	@DEBUG_VALUE: mbedtls_strerror:buf <- $r5
	@DEBUG_VALUE: mbedtls_strerror:buflen <- $r4
	.loc	1 246 13 is_stmt 1              @ ../../../ThirdParty/mbedTLS/library/error.c:246:13
	cmp	r7, r6
	bgt	.LBB0_264
	b	.LBB0_306
.Ltmp194:
.LBB0_264:
	@DEBUG_VALUE: mbedtls_strerror:buf <- $r5
	@DEBUG_VALUE: mbedtls_strerror:buflen <- $r4
	.loc	1 0 13 is_stmt 0                @ ../../../ThirdParty/mbedTLS/library/error.c:0:13
	ldr	r0, .LCPI0_1425
	.loc	1 246 13                        @ ../../../ThirdParty/mbedTLS/library/error.c:246:13
	cmp	r7, r0
	bgt	.LBB0_265
	b	.LBB0_347
.Ltmp195:
.LBB0_265:
	@DEBUG_VALUE: mbedtls_strerror:buf <- $r5
	@DEBUG_VALUE: mbedtls_strerror:buflen <- $r4
	.loc	1 0 13                          @ ../../../ThirdParty/mbedTLS/library/error.c:0:13
	movw	r0, #20352
	.loc	1 246 13                        @ ../../../ThirdParty/mbedTLS/library/error.c:246:13
	cmp	r7, r0
	bne	.LBB0_266
	bl	.LBB0_817
.Ltmp196:
.LBB0_266:
	@DEBUG_VALUE: mbedtls_strerror:buf <- $r5
	@DEBUG_VALUE: mbedtls_strerror:buflen <- $r4
	.loc	1 0 13                          @ ../../../ThirdParty/mbedTLS/library/error.c:0:13
	movw	r0, #25600
	.loc	1 246 13                        @ ../../../ThirdParty/mbedTLS/library/error.c:246:13
	cmp	r7, r0
	beq	.LBB0_242
.Ltmp197:
@ %bb.267:
	@DEBUG_VALUE: mbedtls_strerror:buf <- $r5
	@DEBUG_VALUE: mbedtls_strerror:buflen <- $r4
	.loc	1 0 13                          @ ../../../ThirdParty/mbedTLS/library/error.c:0:13
	movw	r0, #25472
	.loc	1 246 13                        @ ../../../ThirdParty/mbedTLS/library/error.c:246:13
	cmp	r7, r0
	bne	.LBB0_268
	bl	.LBB0_721
.Ltmp198:
.LBB0_268:
	bl	.LBB0_957
.LBB0_269:
.Ltmp199:
	@DEBUG_VALUE: mbedtls_strerror:buf <- $r5
	@DEBUG_VALUE: mbedtls_strerror:buflen <- $r4
	.loc	1 0 13                          @ ../../../ThirdParty/mbedTLS/library/error.c:0:13
	ldr	r0, .LCPI0_1426
	.loc	1 242 13 is_stmt 1              @ ../../../ThirdParty/mbedTLS/library/error.c:242:13
	cmp	r7, r0
	ble	.LBB0_270
	b	.LBB0_315
.Ltmp200:
.LBB0_270:
	@DEBUG_VALUE: mbedtls_strerror:buf <- $r5
	@DEBUG_VALUE: mbedtls_strerror:buflen <- $r4
	.loc	1 0 13 is_stmt 0                @ ../../../ThirdParty/mbedTLS/library/error.c:0:13
	ldr	r0, .LCPI0_1416
	.loc	1 242 13                        @ ../../../ThirdParty/mbedTLS/library/error.c:242:13
	cmp	r7, r0
	ble	.LBB0_271
	b	.LBB0_368
.Ltmp201:
.LBB0_271:
	@DEBUG_VALUE: mbedtls_strerror:buf <- $r5
	@DEBUG_VALUE: mbedtls_strerror:buflen <- $r4
	.loc	1 0 13                          @ ../../../ThirdParty/mbedTLS/library/error.c:0:13
	movw	r0, #12416
	.loc	1 242 13                        @ ../../../ThirdParty/mbedTLS/library/error.c:242:13
	cmp	r7, r0
	bne	.LBB0_272
	b	.LBB0_188
.Ltmp202:
.LBB0_272:
	@DEBUG_VALUE: mbedtls_strerror:buf <- $r5
	@DEBUG_VALUE: mbedtls_strerror:buflen <- $r4
	.loc	1 0 13                          @ ../../../ThirdParty/mbedTLS/library/error.c:0:13
	movw	r0, #12544
	.loc	1 242 13                        @ ../../../ThirdParty/mbedTLS/library/error.c:242:13
	cmp	r7, r0
	bne	.LBB0_273
	bl	.LBB0_726
.Ltmp203:
.LBB0_273:
	@DEBUG_VALUE: mbedtls_strerror:buf <- $r5
	@DEBUG_VALUE: mbedtls_strerror:buflen <- $r4
	.loc	1 0 13                          @ ../../../ThirdParty/mbedTLS/library/error.c:0:13
	movw	r0, #12672
	.loc	1 242 13                        @ ../../../ThirdParty/mbedTLS/library/error.c:242:13
	cmp	r7, r0
	bne	.LBB0_274
	b	.LBB0_21
.Ltmp204:
.LBB0_274:
	bl	.LBB0_1203
.LBB0_275:
.Ltmp205:
	@DEBUG_VALUE: mbedtls_strerror:buf <- $r5
	@DEBUG_VALUE: mbedtls_strerror:buflen <- $r4
	.loc	1 0 13                          @ ../../../ThirdParty/mbedTLS/library/error.c:0:13
	ldr	r0, .LCPI0_1427
	.loc	1 238 13 is_stmt 1              @ ../../../ThirdParty/mbedTLS/library/error.c:238:13
	cmp	r7, r0
	bgt	.LBB0_276
	b	.LBB0_338
.Ltmp206:
.LBB0_276:
	@DEBUG_VALUE: mbedtls_strerror:buf <- $r5
	@DEBUG_VALUE: mbedtls_strerror:buflen <- $r4
	ldr	r0, .LCPI0_1428
	cmp	r7, r0
	bgt	.LBB0_277
	b	.LBB0_426
.Ltmp207:
.LBB0_277:
	@DEBUG_VALUE: mbedtls_strerror:buf <- $r5
	@DEBUG_VALUE: mbedtls_strerror:buflen <- $r4
	.loc	1 0 13 is_stmt 0                @ ../../../ThirdParty/mbedTLS/library/error.c:0:13
	ldr	r0, .LCPI0_1429
	.loc	1 238 13                        @ ../../../ThirdParty/mbedTLS/library/error.c:238:13
	cmp	r7, r0
	ble	.LBB0_278
	b	.LBB0_486
.Ltmp208:
.LBB0_278:
	@DEBUG_VALUE: mbedtls_strerror:buf <- $r5
	@DEBUG_VALUE: mbedtls_strerror:buflen <- $r4
	.loc	1 0 13                          @ ../../../ThirdParty/mbedTLS/library/error.c:0:13
	movw	r0, #24960
	.loc	1 238 13                        @ ../../../ThirdParty/mbedTLS/library/error.c:238:13
	cmp	r7, r0
	bne	.LBB0_279
	bl	.LBB0_561
.Ltmp209:
.LBB0_279:
	@DEBUG_VALUE: mbedtls_strerror:buf <- $r5
	@DEBUG_VALUE: mbedtls_strerror:buflen <- $r4
	.loc	1 0 13                          @ ../../../ThirdParty/mbedTLS/library/error.c:0:13
	movw	r0, #25088
	.loc	1 238 13                        @ ../../../ThirdParty/mbedTLS/library/error.c:238:13
	cmp	r7, r0
	bne	.LBB0_280
	b	.LBB0_167
.Ltmp210:
.LBB0_280:
	@DEBUG_VALUE: mbedtls_strerror:buf <- $r5
	@DEBUG_VALUE: mbedtls_strerror:buflen <- $r4
	.loc	1 0 13                          @ ../../../ThirdParty/mbedTLS/library/error.c:0:13
	movw	r0, #25216
	.loc	1 238 13                        @ ../../../ThirdParty/mbedTLS/library/error.c:238:13
	cmp	r7, r0
	bne	.LBB0_281
	bl	.LBB0_604
.Ltmp211:
.LBB0_281:
	bl	.LBB0_1909
.LBB0_282:
.Ltmp212:
	@DEBUG_VALUE: mbedtls_strerror:buf <- $r5
	@DEBUG_VALUE: mbedtls_strerror:buflen <- $r4
	.loc	1 0 13                          @ ../../../ThirdParty/mbedTLS/library/error.c:0:13
	ldr	r0, .LCPI0_1430
	.loc	1 236 13 is_stmt 1              @ ../../../ThirdParty/mbedTLS/library/error.c:236:13
	cmp	r7, r0
	ble	.LBB0_283
	b	.LBB0_326
.Ltmp213:
.LBB0_283:
	@DEBUG_VALUE: mbedtls_strerror:buf <- $r5
	@DEBUG_VALUE: mbedtls_strerror:buflen <- $r4
	.loc	1 0 13 is_stmt 0                @ ../../../ThirdParty/mbedTLS/library/error.c:0:13
	ldr	r0, .LCPI0_1431
	.loc	1 236 13                        @ ../../../ThirdParty/mbedTLS/library/error.c:236:13
	cmp	r7, r0
	ble	.LBB0_284
	b	.LBB0_406
.Ltmp214:
.LBB0_284:
	@DEBUG_VALUE: mbedtls_strerror:buf <- $r5
	@DEBUG_VALUE: mbedtls_strerror:buflen <- $r4
	.loc	1 0 13                          @ ../../../ThirdParty/mbedTLS/library/error.c:0:13
	ldr	r0, .LCPI0_1432
	.loc	1 236 13                        @ ../../../ThirdParty/mbedTLS/library/error.c:236:13
	cmp	r7, r0
	ble	.LBB0_285
	b	.LBB0_494
.Ltmp215:
.LBB0_285:
	@DEBUG_VALUE: mbedtls_strerror:buf <- $r5
	@DEBUG_VALUE: mbedtls_strerror:buflen <- $r4
	.loc	1 0 13                          @ ../../../ThirdParty/mbedTLS/library/error.c:0:13
	ldr	r0, .LCPI0_1433
	.loc	1 236 13                        @ ../../../ThirdParty/mbedTLS/library/error.c:236:13
	cmp	r7, r0
	ble	.LBB0_286
	b	.LBB0_540
.Ltmp216:
.LBB0_286:
	@DEBUG_VALUE: mbedtls_strerror:buf <- $r5
	@DEBUG_VALUE: mbedtls_strerror:buflen <- $r4
	.loc	1 0 13                          @ ../../../ThirdParty/mbedTLS/library/error.c:0:13
	movw	r0, #15104
	.loc	1 236 13                        @ ../../../ThirdParty/mbedTLS/library/error.c:236:13
	cmp	r7, r0
	bne	.LBB0_287
	bl	.LBB0_2356
.Ltmp217:
.LBB0_287:
	@DEBUG_VALUE: mbedtls_strerror:buf <- $r5
	@DEBUG_VALUE: mbedtls_strerror:buflen <- $r4
	.loc	1 0 13                          @ ../../../ThirdParty/mbedTLS/library/error.c:0:13
	movw	r0, #15232
	.loc	1 236 13                        @ ../../../ThirdParty/mbedTLS/library/error.c:236:13
	cmp	r7, r0
	bne	.LBB0_288
	bl	.LBB0_2301
.Ltmp218:
.LBB0_288:
	bl	.LBB0_2889
.LBB0_289:
.Ltmp219:
	@DEBUG_VALUE: mbedtls_strerror:buf <- $r5
	@DEBUG_VALUE: mbedtls_strerror:buflen <- $r4
	.loc	1 0 13                          @ ../../../ThirdParty/mbedTLS/library/error.c:0:13
	movw	r0, #13568
	.loc	1 263 13 is_stmt 1              @ ../../../ThirdParty/mbedTLS/library/error.c:263:13
	cmp	r7, r0
	bne	.LBB0_290
	bl	.LBB0_806
.Ltmp220:
.LBB0_290:
	@DEBUG_VALUE: mbedtls_strerror:buf <- $r5
	@DEBUG_VALUE: mbedtls_strerror:buflen <- $r4
	.loc	1 0 13 is_stmt 0                @ ../../../ThirdParty/mbedTLS/library/error.c:0:13
	movw	r0, #13696
	.loc	1 263 13                        @ ../../../ThirdParty/mbedTLS/library/error.c:263:13
	cmp	r7, r0
	bne	.LBB0_291
	bl	.LBB0_811
.Ltmp221:
.LBB0_291:
	bl	.LBB0_837
.LBB0_292:
.Ltmp222:
	@DEBUG_VALUE: mbedtls_strerror:buf <- $r5
	@DEBUG_VALUE: mbedtls_strerror:buflen <- $r4
	.loc	1 0 13                          @ ../../../ThirdParty/mbedTLS/library/error.c:0:13
	movw	r0, #13312
	.loc	1 263 13                        @ ../../../ThirdParty/mbedTLS/library/error.c:263:13
	cmp	r7, r0
	bne	.LBB0_293
	bl	.LBB0_787
.Ltmp223:
.LBB0_293:
	@DEBUG_VALUE: mbedtls_strerror:buf <- $r5
	@DEBUG_VALUE: mbedtls_strerror:buflen <- $r4
	.loc	1 0 13                          @ ../../../ThirdParty/mbedTLS/library/error.c:0:13
	movw	r0, #13440
	.loc	1 263 13                        @ ../../../ThirdParty/mbedTLS/library/error.c:263:13
	cmp	r7, r0
	bne	.LBB0_294
	bl	.LBB0_797
.Ltmp224:
.LBB0_294:
	bl	.LBB0_837
.LBB0_295:
.Ltmp225:
	@DEBUG_VALUE: mbedtls_strerror:buf <- $r5
	@DEBUG_VALUE: mbedtls_strerror:buflen <- $r4
	.loc	1 0 13                          @ ../../../ThirdParty/mbedTLS/library/error.c:0:13
	movw	r0, #12800
	.loc	1 259 13 is_stmt 1              @ ../../../ThirdParty/mbedTLS/library/error.c:259:13
	cmp	r7, r0
	bne	.LBB0_296
	bl	.LBB0_750
.Ltmp226:
.LBB0_296:
	@DEBUG_VALUE: mbedtls_strerror:buf <- $r5
	@DEBUG_VALUE: mbedtls_strerror:buflen <- $r4
	.loc	1 0 13 is_stmt 0                @ ../../../ThirdParty/mbedTLS/library/error.c:0:13
	movw	r0, #12928
	.loc	1 259 13                        @ ../../../ThirdParty/mbedTLS/library/error.c:259:13
	cmp	r7, r0
	bne	.LBB0_297
	b	.LBB0_104
.Ltmp227:
.LBB0_297:
	bl	.LBB0_821
.LBB0_298:
.Ltmp228:
	@DEBUG_VALUE: mbedtls_strerror:buf <- $r5
	@DEBUG_VALUE: mbedtls_strerror:buflen <- $r4
	.loc	1 0 13                          @ ../../../ThirdParty/mbedTLS/library/error.c:0:13
	movw	r0, #12416
	.loc	1 253 13 is_stmt 1              @ ../../../ThirdParty/mbedTLS/library/error.c:253:13
	cmp	r7, r0
	bne	.LBB0_299
	b	.LBB0_188
.Ltmp229:
.LBB0_299:
	@DEBUG_VALUE: mbedtls_strerror:buf <- $r5
	@DEBUG_VALUE: mbedtls_strerror:buflen <- $r4
	.loc	1 0 13 is_stmt 0                @ ../../../ThirdParty/mbedTLS/library/error.c:0:13
	movw	r0, #12544
	.loc	1 253 13                        @ ../../../ThirdParty/mbedTLS/library/error.c:253:13
	cmp	r7, r0
	bne	.LBB0_300
	bl	.LBB0_726
.Ltmp230:
.LBB0_300:
	@DEBUG_VALUE: mbedtls_strerror:buf <- $r5
	@DEBUG_VALUE: mbedtls_strerror:buflen <- $r4
	.loc	1 0 13                          @ ../../../ThirdParty/mbedTLS/library/error.c:0:13
	movw	r0, #12672
	.loc	1 253 13                        @ ../../../ThirdParty/mbedTLS/library/error.c:253:13
	cmp	r7, r0
	bne	.LBB0_301
	bl	.LBB0_21
.Ltmp231:
.LBB0_301:
	bl	.LBB0_837
.LBB0_302:
.Ltmp232:
	@DEBUG_VALUE: mbedtls_strerror:buf <- $r5
	@DEBUG_VALUE: mbedtls_strerror:buflen <- $r4
	.loc	1 0 13                          @ ../../../ThirdParty/mbedTLS/library/error.c:0:13
	ldr	r0, .LCPI0_1740
	.loc	1 246 13 is_stmt 1              @ ../../../ThirdParty/mbedTLS/library/error.c:246:13
	cmp	r7, r0
	ble	.LBB0_303
	b	.LBB0_350
.Ltmp233:
.LBB0_303:
	@DEBUG_VALUE: mbedtls_strerror:buf <- $r5
	@DEBUG_VALUE: mbedtls_strerror:buflen <- $r4
	.loc	1 0 13 is_stmt 0                @ ../../../ThirdParty/mbedTLS/library/error.c:0:13
	movw	r0, #12416
	.loc	1 246 13                        @ ../../../ThirdParty/mbedTLS/library/error.c:246:13
	cmp	r7, r0
	bne	.LBB0_304
	b	.LBB0_188
.Ltmp234:
.LBB0_304:
	@DEBUG_VALUE: mbedtls_strerror:buf <- $r5
	@DEBUG_VALUE: mbedtls_strerror:buflen <- $r4
	.loc	1 0 13                          @ ../../../ThirdParty/mbedTLS/library/error.c:0:13
	movw	r0, #12544
	.loc	1 246 13                        @ ../../../ThirdParty/mbedTLS/library/error.c:246:13
	cmp	r7, r0
	bne	.LBB0_305
	bl	.LBB0_726
.Ltmp235:
.LBB0_305:
	bl	.LBB0_957
.LBB0_306:
.Ltmp236:
	@DEBUG_VALUE: mbedtls_strerror:buf <- $r5
	@DEBUG_VALUE: mbedtls_strerror:buflen <- $r4
	.loc	1 0 13                          @ ../../../ThirdParty/mbedTLS/library/error.c:0:13
	ldr	r0, .LCPI0_1741
	.loc	1 246 13                        @ ../../../ThirdParty/mbedTLS/library/error.c:246:13
	cmp	r7, r0
	ble	.LBB0_307
	bl	.LBB0_808
.Ltmp237:
.LBB0_307:
	@DEBUG_VALUE: mbedtls_strerror:buf <- $r5
	@DEBUG_VALUE: mbedtls_strerror:buflen <- $r4
	.loc	1 0 13                          @ ../../../ThirdParty/mbedTLS/library/error.c:0:13
	movw	r0, #13568
	.loc	1 246 13                        @ ../../../ThirdParty/mbedTLS/library/error.c:246:13
	cmp	r7, r0
	bne	.LBB0_308
	bl	.LBB0_806
.Ltmp238:
.LBB0_308:
	@DEBUG_VALUE: mbedtls_strerror:buf <- $r5
	@DEBUG_VALUE: mbedtls_strerror:buflen <- $r4
	.loc	1 0 13                          @ ../../../ThirdParty/mbedTLS/library/error.c:0:13
	movw	r0, #13696
	.loc	1 246 13                        @ ../../../ThirdParty/mbedTLS/library/error.c:246:13
	cmp	r7, r0
	bne	.LBB0_309
	bl	.LBB0_811
.Ltmp239:
.LBB0_309:
	bl	.LBB0_957
.LBB0_310:
.Ltmp240:
	@DEBUG_VALUE: mbedtls_strerror:buf <- $r5
	@DEBUG_VALUE: mbedtls_strerror:buflen <- $r4
	.loc	1 0 13                          @ ../../../ThirdParty/mbedTLS/library/error.c:0:13
	ldr	r0, .LCPI0_1742
	.loc	1 242 13 is_stmt 1              @ ../../../ThirdParty/mbedTLS/library/error.c:242:13
	cmp	r7, r0
	ble	.LBB0_311
	b	.LBB0_372
.Ltmp241:
.LBB0_311:
	@DEBUG_VALUE: mbedtls_strerror:buf <- $r5
	@DEBUG_VALUE: mbedtls_strerror:buflen <- $r4
	.loc	1 0 13 is_stmt 0                @ ../../../ThirdParty/mbedTLS/library/error.c:0:13
	movw	r0, #19328
	.loc	1 242 13                        @ ../../../ThirdParty/mbedTLS/library/error.c:242:13
	cmp	r7, r0
	bne	.LBB0_312
	bl	.LBB0_1177
.Ltmp242:
.LBB0_312:
	@DEBUG_VALUE: mbedtls_strerror:buf <- $r5
	@DEBUG_VALUE: mbedtls_strerror:buflen <- $r4
	.loc	1 0 13                          @ ../../../ThirdParty/mbedTLS/library/error.c:0:13
	movw	r0, #19456
	.loc	1 242 13                        @ ../../../ThirdParty/mbedTLS/library/error.c:242:13
	cmp	r7, r0
	bne	.LBB0_313
	bl	.LBB0_1172
.Ltmp243:
.LBB0_313:
	@DEBUG_VALUE: mbedtls_strerror:buf <- $r5
	@DEBUG_VALUE: mbedtls_strerror:buflen <- $r4
	.loc	1 0 13                          @ ../../../ThirdParty/mbedTLS/library/error.c:0:13
	movw	r0, #19584
	.loc	1 242 13                        @ ../../../ThirdParty/mbedTLS/library/error.c:242:13
	cmp	r7, r0
	bne	.LBB0_314
	bl	.LBB0_1082
.Ltmp244:
.LBB0_314:
	bl	.LBB0_1203
.LBB0_315:
.Ltmp245:
	@DEBUG_VALUE: mbedtls_strerror:buf <- $r5
	@DEBUG_VALUE: mbedtls_strerror:buflen <- $r4
	.loc	1 0 13                          @ ../../../ThirdParty/mbedTLS/library/error.c:0:13
	ldr	r0, .LCPI0_563
	.loc	1 242 13                        @ ../../../ThirdParty/mbedTLS/library/error.c:242:13
	cmp	r7, r0
	ble	.LBB0_316
	b	.LBB0_397
.Ltmp246:
.LBB0_316:
	@DEBUG_VALUE: mbedtls_strerror:buf <- $r5
	@DEBUG_VALUE: mbedtls_strerror:buflen <- $r4
	.loc	1 0 13                          @ ../../../ThirdParty/mbedTLS/library/error.c:0:13
	movw	r0, #13184
	.loc	1 242 13                        @ ../../../ThirdParty/mbedTLS/library/error.c:242:13
	cmp	r7, r0
	bne	.LBB0_317
	bl	.LBB0_783
.Ltmp247:
.LBB0_317:
	@DEBUG_VALUE: mbedtls_strerror:buf <- $r5
	@DEBUG_VALUE: mbedtls_strerror:buflen <- $r4
	.loc	1 0 13                          @ ../../../ThirdParty/mbedTLS/library/error.c:0:13
	movw	r0, #13312
	.loc	1 242 13                        @ ../../../ThirdParty/mbedTLS/library/error.c:242:13
	cmp	r7, r0
	bne	.LBB0_318
	bl	.LBB0_787
.Ltmp248:
.LBB0_318:
	@DEBUG_VALUE: mbedtls_strerror:buf <- $r5
	@DEBUG_VALUE: mbedtls_strerror:buflen <- $r4
	.loc	1 0 13                          @ ../../../ThirdParty/mbedTLS/library/error.c:0:13
	movw	r0, #13440
	.loc	1 242 13                        @ ../../../ThirdParty/mbedTLS/library/error.c:242:13
	cmp	r7, r0
	bne	.LBB0_319
	bl	.LBB0_797
.Ltmp249:
.LBB0_319:
	bl	.LBB0_1203
.LBB0_320:
.Ltmp250:
	@DEBUG_VALUE: mbedtls_strerror:buf <- $r5
	@DEBUG_VALUE: mbedtls_strerror:buflen <- $r4
	.loc	1 0 13                          @ ../../../ThirdParty/mbedTLS/library/error.c:0:13
	ldr	r0, .LCPI0_564
	.loc	1 236 13 is_stmt 1              @ ../../../ThirdParty/mbedTLS/library/error.c:236:13
	cmp	r7, r0
	ble	.LBB0_321
	b	.LBB0_411
.Ltmp251:
.LBB0_321:
	@DEBUG_VALUE: mbedtls_strerror:buf <- $r5
	@DEBUG_VALUE: mbedtls_strerror:buflen <- $r4
	.loc	1 0 13 is_stmt 0                @ ../../../ThirdParty/mbedTLS/library/error.c:0:13
	ldr	r0, .LCPI0_565
	.loc	1 236 13                        @ ../../../ThirdParty/mbedTLS/library/error.c:236:13
	cmp	r7, r0
	ble	.LBB0_322
	b	.LBB0_498
.Ltmp252:
.LBB0_322:
	@DEBUG_VALUE: mbedtls_strerror:buf <- $r5
	@DEBUG_VALUE: mbedtls_strerror:buflen <- $r4
	.loc	1 0 13                          @ ../../../ThirdParty/mbedTLS/library/error.c:0:13
	ldr	r0, .LCPI0_560
	.loc	1 236 13                        @ ../../../ThirdParty/mbedTLS/library/error.c:236:13
	cmp	r7, r0
	ble	.LBB0_323
	b	.LBB0_543
.Ltmp253:
.LBB0_323:
	@DEBUG_VALUE: mbedtls_strerror:buf <- $r5
	@DEBUG_VALUE: mbedtls_strerror:buflen <- $r4
	.loc	1 0 13                          @ ../../../ThirdParty/mbedTLS/library/error.c:0:13
	movw	r0, #12416
	.loc	1 236 13                        @ ../../../ThirdParty/mbedTLS/library/error.c:236:13
	cmp	r7, r0
	bne	.LBB0_324
	b	.LBB0_188
.Ltmp254:
.LBB0_324:
	@DEBUG_VALUE: mbedtls_strerror:buf <- $r5
	@DEBUG_VALUE: mbedtls_strerror:buflen <- $r4
	.loc	1 0 13                          @ ../../../ThirdParty/mbedTLS/library/error.c:0:13
	movw	r0, #12544
	.loc	1 236 13                        @ ../../../ThirdParty/mbedTLS/library/error.c:236:13
	cmp	r7, r0
	bne	.LBB0_325
	bl	.LBB0_726
.Ltmp255:
.LBB0_325:
	bl	.LBB0_2889
.LBB0_326:
.Ltmp256:
	@DEBUG_VALUE: mbedtls_strerror:buf <- $r5
	@DEBUG_VALUE: mbedtls_strerror:buflen <- $r4
	.loc	1 0 13                          @ ../../../ThirdParty/mbedTLS/library/error.c:0:13
	ldr	r0, .LCPI0_566
	.loc	1 236 13                        @ ../../../ThirdParty/mbedTLS/library/error.c:236:13
	cmp	r7, r0
	ble	.LBB0_327
	b	.LBB0_416
.Ltmp257:
.LBB0_327:
	@DEBUG_VALUE: mbedtls_strerror:buf <- $r5
	@DEBUG_VALUE: mbedtls_strerror:buflen <- $r4
	.loc	1 0 13                          @ ../../../ThirdParty/mbedTLS/library/error.c:0:13
	ldr	r0, .LCPI0_553
	.loc	1 236 13                        @ ../../../ThirdParty/mbedTLS/library/error.c:236:13
	cmp	r7, r0
	ble	.LBB0_328
	b	.LBB0_502
.Ltmp258:
.LBB0_328:
	@DEBUG_VALUE: mbedtls_strerror:buf <- $r5
	@DEBUG_VALUE: mbedtls_strerror:buflen <- $r4
	.loc	1 0 13                          @ ../../../ThirdParty/mbedTLS/library/error.c:0:13
	ldr	r0, .LCPI0_567
	.loc	1 236 13                        @ ../../../ThirdParty/mbedTLS/library/error.c:236:13
	cmp	r7, r0
	ble	.LBB0_329
	b	.LBB0_546
.Ltmp259:
.LBB0_329:
	@DEBUG_VALUE: mbedtls_strerror:buf <- $r5
	@DEBUG_VALUE: mbedtls_strerror:buflen <- $r4
	.loc	1 0 13                          @ ../../../ThirdParty/mbedTLS/library/error.c:0:13
	movw	r0, #19968
	.loc	1 236 13                        @ ../../../ThirdParty/mbedTLS/library/error.c:236:13
	cmp	r7, r0
	bne	.LBB0_330
	bl	.LBB0_916
.Ltmp260:
.LBB0_330:
	@DEBUG_VALUE: mbedtls_strerror:buf <- $r5
	@DEBUG_VALUE: mbedtls_strerror:buflen <- $r4
	.loc	1 0 13                          @ ../../../ThirdParty/mbedTLS/library/error.c:0:13
	movw	r0, #20096
	.loc	1 236 13                        @ ../../../ThirdParty/mbedTLS/library/error.c:236:13
	cmp	r7, r0
	bne	.LBB0_331
	bl	.LBB0_836
.Ltmp261:
.LBB0_331:
	bl	.LBB0_2889
.LBB0_332:
.Ltmp262:
	@DEBUG_VALUE: mbedtls_strerror:buf <- $r5
	@DEBUG_VALUE: mbedtls_strerror:buflen <- $r4
	.loc	1 0 13                          @ ../../../ThirdParty/mbedTLS/library/error.c:0:13
	ldr	r0, .LCPI0_568
	.loc	1 238 13 is_stmt 1              @ ../../../ThirdParty/mbedTLS/library/error.c:238:13
	cmp	r7, r0
	ble	.LBB0_333
	b	.LBB0_438
.Ltmp263:
.LBB0_333:
	@DEBUG_VALUE: mbedtls_strerror:buf <- $r5
	@DEBUG_VALUE: mbedtls_strerror:buflen <- $r4
	.loc	1 0 13 is_stmt 0                @ ../../../ThirdParty/mbedTLS/library/error.c:0:13
	ldr	r0, .LCPI0_549
	.loc	1 238 13                        @ ../../../ThirdParty/mbedTLS/library/error.c:238:13
	cmp	r7, r0
	bgt	.LBB0_334
	b	.LBB0_522
.Ltmp264:
.LBB0_334:
	@DEBUG_VALUE: mbedtls_strerror:buf <- $r5
	@DEBUG_VALUE: mbedtls_strerror:buflen <- $r4
	.loc	1 0 13                          @ ../../../ThirdParty/mbedTLS/library/error.c:0:13
	movw	r0, #4480
	.loc	1 238 13                        @ ../../../ThirdParty/mbedTLS/library/error.c:238:13
	cmp	r7, r0
	bne	.LBB0_335
	bl	.LBB0_1495
.Ltmp265:
.LBB0_335:
	@DEBUG_VALUE: mbedtls_strerror:buf <- $r5
	@DEBUG_VALUE: mbedtls_strerror:buflen <- $r4
	.loc	1 0 13                          @ ../../../ThirdParty/mbedTLS/library/error.c:0:13
	movw	r0, #4608
	.loc	1 238 13                        @ ../../../ThirdParty/mbedTLS/library/error.c:238:13
	cmp	r7, r0
	bne	.LBB0_336
	bl	.LBB0_1502
.Ltmp266:
.LBB0_336:
	@DEBUG_VALUE: mbedtls_strerror:buf <- $r5
	@DEBUG_VALUE: mbedtls_strerror:buflen <- $r4
	.loc	1 0 13                          @ ../../../ThirdParty/mbedTLS/library/error.c:0:13
	movw	r0, #4736
	.loc	1 238 13                        @ ../../../ThirdParty/mbedTLS/library/error.c:238:13
	cmp	r7, r0
	bne	.LBB0_337
	bl	.LBB0_1507
.Ltmp267:
.LBB0_337:
	bl	.LBB0_1909
.LBB0_338:
.Ltmp268:
	@DEBUG_VALUE: mbedtls_strerror:buf <- $r5
	@DEBUG_VALUE: mbedtls_strerror:buflen <- $r4
	.loc	1 0 13                          @ ../../../ThirdParty/mbedTLS/library/error.c:0:13
	ldr	r0, .LCPI0_561
	.loc	1 238 13                        @ ../../../ThirdParty/mbedTLS/library/error.c:238:13
	cmp	r7, r0
	ble	.LBB0_339
	b	.LBB0_475
.Ltmp269:
.LBB0_339:
	@DEBUG_VALUE: mbedtls_strerror:buf <- $r5
	@DEBUG_VALUE: mbedtls_strerror:buflen <- $r4
	.loc	1 0 13                          @ ../../../ThirdParty/mbedTLS/library/error.c:0:13
	ldr	r0, .LCPI0_569
	.loc	1 238 13                        @ ../../../ThirdParty/mbedTLS/library/error.c:238:13
	cmp	r7, r0
	bgt	.LBB0_340
	b	.LBB0_525
.Ltmp270:
.LBB0_340:
	@DEBUG_VALUE: mbedtls_strerror:buf <- $r5
	@DEBUG_VALUE: mbedtls_strerror:buflen <- $r4
	.loc	1 0 13                          @ ../../../ThirdParty/mbedTLS/library/error.c:0:13
	movw	r0, #19456
	.loc	1 238 13                        @ ../../../ThirdParty/mbedTLS/library/error.c:238:13
	cmp	r7, r0
	bne	.LBB0_341
	bl	.LBB0_1172
.Ltmp271:
.LBB0_341:
	@DEBUG_VALUE: mbedtls_strerror:buf <- $r5
	@DEBUG_VALUE: mbedtls_strerror:buflen <- $r4
	.loc	1 0 13                          @ ../../../ThirdParty/mbedTLS/library/error.c:0:13
	movw	r0, #19584
	.loc	1 238 13                        @ ../../../ThirdParty/mbedTLS/library/error.c:238:13
	cmp	r7, r0
	bne	.LBB0_342
	bl	.LBB0_1082
.Ltmp272:
.LBB0_342:
	@DEBUG_VALUE: mbedtls_strerror:buf <- $r5
	@DEBUG_VALUE: mbedtls_strerror:buflen <- $r4
	.loc	1 0 13                          @ ../../../ThirdParty/mbedTLS/library/error.c:0:13
	movw	r0, #19712
	.loc	1 238 13                        @ ../../../ThirdParty/mbedTLS/library/error.c:238:13
	cmp	r7, r0
	bne	.LBB0_343
	bl	.LBB0_999
.Ltmp273:
.LBB0_343:
	bl	.LBB0_1909
.LBB0_344:
.Ltmp274:
	@DEBUG_VALUE: mbedtls_strerror:buf <- $r5
	@DEBUG_VALUE: mbedtls_strerror:buflen <- $r4
	.loc	1 0 13                          @ ../../../ThirdParty/mbedTLS/library/error.c:0:13
	movw	r0, #12928
	.loc	1 246 13 is_stmt 1              @ ../../../ThirdParty/mbedTLS/library/error.c:246:13
	cmp	r7, r0
	bne	.LBB0_345
	b	.LBB0_104
.Ltmp275:
.LBB0_345:
	@DEBUG_VALUE: mbedtls_strerror:buf <- $r5
	@DEBUG_VALUE: mbedtls_strerror:buflen <- $r4
	.loc	1 0 13 is_stmt 0                @ ../../../ThirdParty/mbedTLS/library/error.c:0:13
	movw	r0, #13056
	.loc	1 246 13                        @ ../../../ThirdParty/mbedTLS/library/error.c:246:13
	cmp	r7, r0
	bne	.LBB0_346
	bl	.LBB0_762
.Ltmp276:
.LBB0_346:
	bl	.LBB0_957
.LBB0_347:
.Ltmp277:
	@DEBUG_VALUE: mbedtls_strerror:buf <- $r5
	@DEBUG_VALUE: mbedtls_strerror:buflen <- $r4
	.loc	1 0 13                          @ ../../../ThirdParty/mbedTLS/library/error.c:0:13
	movw	r0, #20096
	.loc	1 246 13                        @ ../../../ThirdParty/mbedTLS/library/error.c:246:13
	cmp	r7, r0
	bne	.LBB0_348
	bl	.LBB0_836
.Ltmp278:
.LBB0_348:
	@DEBUG_VALUE: mbedtls_strerror:buf <- $r5
	@DEBUG_VALUE: mbedtls_strerror:buflen <- $r4
	.loc	1 0 13                          @ ../../../ThirdParty/mbedTLS/library/error.c:0:13
	movw	r0, #20224
	.loc	1 246 13                        @ ../../../ThirdParty/mbedTLS/library/error.c:246:13
	cmp	r7, r0
	bne	.LBB0_349
	bl	.LBB0_820
.Ltmp279:
.LBB0_349:
	bl	.LBB0_957
.LBB0_350:
.Ltmp280:
	@DEBUG_VALUE: mbedtls_strerror:buf <- $r5
	@DEBUG_VALUE: mbedtls_strerror:buflen <- $r4
	.loc	1 0 13                          @ ../../../ThirdParty/mbedTLS/library/error.c:0:13
	movw	r0, #12672
	.loc	1 246 13                        @ ../../../ThirdParty/mbedTLS/library/error.c:246:13
	cmp	r7, r0
	bne	.LBB0_351
	bl	.LBB0_21
.Ltmp281:
.LBB0_351:
	@DEBUG_VALUE: mbedtls_strerror:buf <- $r5
	@DEBUG_VALUE: mbedtls_strerror:buflen <- $r4
	.loc	1 0 13                          @ ../../../ThirdParty/mbedTLS/library/error.c:0:13
	movw	r0, #12800
	.loc	1 246 13                        @ ../../../ThirdParty/mbedTLS/library/error.c:246:13
	cmp	r7, r0
	bne	.LBB0_352
	bl	.LBB0_750
.Ltmp282:
.LBB0_352:
	bl	.LBB0_957
	.p2align	2
@ %bb.353:
	.loc	1 0 13                          @ ../../../ThirdParty/mbedTLS/library/error.c:0:13
__arm_cp.0_1729:
	.long	.L.str.7
.Lcpi_end8:
	.size	__arm_cp.0_1729, .Lcpi_end8-__arm_cp.0_1729
	.p2align	2
@ %bb.354:
.LCPI0_1730:
	.long	13311                           @ 0x33ff
	.p2align	2
@ %bb.355:
.LCPI0_1731:
	.long	12799                           @ 0x31ff
	.p2align	2
@ %bb.356:
.LCPI0_1732:
	.long	13055                           @ 0x32ff
	.p2align	2
@ %bb.357:
.LCPI0_1733:
.L.str:
	.asciz	"CIPHER - The selected feature is not available\000"
	.p2align	2
@ %bb.358:
.LCPI0_1734:
	.long	15103                           @ 0x3aff
	.p2align	2
@ %bb.359:
__arm_cp.0_1735:
	.long	12415                           @ 0x307f
.Lcpi_end9:
	.size	__arm_cp.0_1735, .Lcpi_end9-__arm_cp.0_1735
	.p2align	2
@ %bb.360:
.LCPI0_1736:
	.long	5247                            @ 0x147f
	.p2align	2
@ %bb.361:
.LCPI0_1737:
	.long	4735                            @ 0x127f
	.p2align	2
@ %bb.362:
.LCPI0_1738:
	.long	4479                            @ 0x117f
	.p2align	2
@ %bb.363:
.LCPI0_1739:
	.long	13695                           @ 0x357f
	.p2align	1
.LBB0_364:
.Ltmp283:
	@DEBUG_VALUE: mbedtls_strerror:buf <- $r5
	@DEBUG_VALUE: mbedtls_strerror:buflen <- $r4
	movw	r0, #20096
	.loc	1 242 13 is_stmt 1              @ ../../../ThirdParty/mbedTLS/library/error.c:242:13
	cmp	r7, r0
	bne	.LBB0_365
	bl	.LBB0_836
.Ltmp284:
.LBB0_365:
	@DEBUG_VALUE: mbedtls_strerror:buf <- $r5
	@DEBUG_VALUE: mbedtls_strerror:buflen <- $r4
	.loc	1 0 13 is_stmt 0                @ ../../../ThirdParty/mbedTLS/library/error.c:0:13
	movw	r0, #20224
	.loc	1 242 13                        @ ../../../ThirdParty/mbedTLS/library/error.c:242:13
	cmp	r7, r0
	bne	.LBB0_366
	bl	.LBB0_820
.Ltmp285:
.LBB0_366:
	@DEBUG_VALUE: mbedtls_strerror:buf <- $r5
	@DEBUG_VALUE: mbedtls_strerror:buflen <- $r4
	.loc	1 0 13                          @ ../../../ThirdParty/mbedTLS/library/error.c:0:13
	movw	r0, #20352
	.loc	1 242 13                        @ ../../../ThirdParty/mbedTLS/library/error.c:242:13
	cmp	r7, r0
	bne	.LBB0_367
	bl	.LBB0_817
.Ltmp286:
.LBB0_367:
	bl	.LBB0_1203
.LBB0_368:
.Ltmp287:
	@DEBUG_VALUE: mbedtls_strerror:buf <- $r5
	@DEBUG_VALUE: mbedtls_strerror:buflen <- $r4
	.loc	1 0 13                          @ ../../../ThirdParty/mbedTLS/library/error.c:0:13
	movw	r0, #12800
	.loc	1 242 13                        @ ../../../ThirdParty/mbedTLS/library/error.c:242:13
	cmp	r7, r0
	bne	.LBB0_369
	bl	.LBB0_750
.Ltmp288:
.LBB0_369:
	@DEBUG_VALUE: mbedtls_strerror:buf <- $r5
	@DEBUG_VALUE: mbedtls_strerror:buflen <- $r4
	.loc	1 0 13                          @ ../../../ThirdParty/mbedTLS/library/error.c:0:13
	movw	r0, #12928
	.loc	1 242 13                        @ ../../../ThirdParty/mbedTLS/library/error.c:242:13
	cmp	r7, r0
	bne	.LBB0_370
	b	.LBB0_104
.Ltmp289:
.LBB0_370:
	@DEBUG_VALUE: mbedtls_strerror:buf <- $r5
	@DEBUG_VALUE: mbedtls_strerror:buflen <- $r4
	.loc	1 0 13                          @ ../../../ThirdParty/mbedTLS/library/error.c:0:13
	movw	r0, #13056
	.loc	1 242 13                        @ ../../../ThirdParty/mbedTLS/library/error.c:242:13
	cmp	r7, r0
	bne	.LBB0_371
	bl	.LBB0_762
.Ltmp290:
.LBB0_371:
	bl	.LBB0_1203
.LBB0_372:
.Ltmp291:
	@DEBUG_VALUE: mbedtls_strerror:buf <- $r5
	@DEBUG_VALUE: mbedtls_strerror:buflen <- $r4
	.loc	1 0 13                          @ ../../../ThirdParty/mbedTLS/library/error.c:0:13
	movw	r0, #19712
	.loc	1 242 13                        @ ../../../ThirdParty/mbedTLS/library/error.c:242:13
	cmp	r7, r0
	bne	.LBB0_373
	bl	.LBB0_999
.Ltmp292:
.LBB0_373:
	@DEBUG_VALUE: mbedtls_strerror:buf <- $r5
	@DEBUG_VALUE: mbedtls_strerror:buflen <- $r4
	.loc	1 0 13                          @ ../../../ThirdParty/mbedTLS/library/error.c:0:13
	movw	r0, #19840
	.loc	1 242 13                        @ ../../../ThirdParty/mbedTLS/library/error.c:242:13
	cmp	r7, r0
	bne	.LBB0_374
	bl	.LBB0_956
.Ltmp293:
.LBB0_374:
	@DEBUG_VALUE: mbedtls_strerror:buf <- $r5
	@DEBUG_VALUE: mbedtls_strerror:buflen <- $r4
	.loc	1 0 13                          @ ../../../ThirdParty/mbedTLS/library/error.c:0:13
	movw	r0, #19968
	.loc	1 242 13                        @ ../../../ThirdParty/mbedTLS/library/error.c:242:13
	cmp	r7, r0
	bne	.LBB0_375
	bl	.LBB0_916
.Ltmp294:
.LBB0_375:
	bl	.LBB0_1203
@ %bb.376:
@ %bb.377:
	.p2align	2
@ %bb.378:
	.loc	1 0 13                          @ ../../../ThirdParty/mbedTLS/library/error.c:0:13
.LCPI0_1416:
	.long	12799                           @ 0x31ff
@ %bb.379:
@ %bb.380:
@ %bb.381:
@ %bb.382:
@ %bb.383:
@ %bb.384:
@ %bb.385:
@ %bb.386:
	.p2align	2
@ %bb.387:
.LCPI0_1425:
	.long	20351                           @ 0x4f7f
	.p2align	2
@ %bb.388:
.LCPI0_1426:
	.long	13183                           @ 0x337f
	.p2align	2
@ %bb.389:
.LCPI0_1427:
	.long	20607                           @ 0x507f
	.p2align	2
@ %bb.390:
.LCPI0_1428:
	.long	24959                           @ 0x617f
	.p2align	2
@ %bb.391:
.LCPI0_1429:
	.long	25343                           @ 0x62ff
	.p2align	2
@ %bb.392:
.LCPI0_1430:
	.long	19967                           @ 0x4dff
	.p2align	2
@ %bb.393:
.LCPI0_1431:
	.long	16127                           @ 0x3eff
	.p2align	2
@ %bb.394:
.LCPI0_1432:
	.long	15615                           @ 0x3cff
	.p2align	2
@ %bb.395:
.LCPI0_1433:
	.long	15359                           @ 0x3bff
	.p2align	2
@ %bb.396:
.LCPI0_1740:
	.long	12671                           @ 0x317f
	.p2align	1
.LBB0_397:
.Ltmp295:
	@DEBUG_VALUE: mbedtls_strerror:buf <- $r5
	@DEBUG_VALUE: mbedtls_strerror:buflen <- $r4
	movw	r0, #13568
	.loc	1 242 13                        @ ../../../ThirdParty/mbedTLS/library/error.c:242:13
	cmp	r7, r0
	bne	.LBB0_398
	bl	.LBB0_806
.Ltmp296:
.LBB0_398:
	@DEBUG_VALUE: mbedtls_strerror:buf <- $r5
	@DEBUG_VALUE: mbedtls_strerror:buflen <- $r4
	.loc	1 0 13                          @ ../../../ThirdParty/mbedTLS/library/error.c:0:13
	movw	r0, #13696
	.loc	1 242 13                        @ ../../../ThirdParty/mbedTLS/library/error.c:242:13
	cmp	r7, r0
	bne	.LBB0_399
	bl	.LBB0_811
.Ltmp297:
.LBB0_399:
	@DEBUG_VALUE: mbedtls_strerror:buf <- $r5
	@DEBUG_VALUE: mbedtls_strerror:buflen <- $r4
	.loc	1 0 13                          @ ../../../ThirdParty/mbedTLS/library/error.c:0:13
	movw	r0, #19200
	.loc	1 242 13                        @ ../../../ThirdParty/mbedTLS/library/error.c:242:13
	cmp	r7, r0
	bne	.LBB0_400
	bl	.LBB0_1202
.Ltmp298:
.LBB0_400:
	bl	.LBB0_1203
.LBB0_401:
.Ltmp299:
	@DEBUG_VALUE: mbedtls_strerror:buf <- $r5
	@DEBUG_VALUE: mbedtls_strerror:buflen <- $r4
	.loc	1 0 13                          @ ../../../ThirdParty/mbedTLS/library/error.c:0:13
	ldr	r0, .LCPI0_570
	.loc	1 236 13 is_stmt 1              @ ../../../ThirdParty/mbedTLS/library/error.c:236:13
	cmp	r7, r0
	ble	.LBB0_402
	b	.LBB0_506
.Ltmp300:
.LBB0_402:
	@DEBUG_VALUE: mbedtls_strerror:buf <- $r5
	@DEBUG_VALUE: mbedtls_strerror:buflen <- $r4
	.loc	1 0 13 is_stmt 0                @ ../../../ThirdParty/mbedTLS/library/error.c:0:13
	ldr	r0, .LCPI0_571
	.loc	1 236 13                        @ ../../../ThirdParty/mbedTLS/library/error.c:236:13
	cmp	r7, r0
	ble	.LBB0_403
	b	.LBB0_549
.Ltmp301:
.LBB0_403:
	@DEBUG_VALUE: mbedtls_strerror:buf <- $r5
	@DEBUG_VALUE: mbedtls_strerror:buflen <- $r4
	.loc	1 0 13                          @ ../../../ThirdParty/mbedTLS/library/error.c:0:13
	movw	r0, #5248
	.loc	1 236 13                        @ ../../../ThirdParty/mbedTLS/library/error.c:236:13
	cmp	r7, r0
	bne	.LBB0_404
	bl	.LBB0_1821
.Ltmp302:
.LBB0_404:
	@DEBUG_VALUE: mbedtls_strerror:buf <- $r5
	@DEBUG_VALUE: mbedtls_strerror:buflen <- $r4
	.loc	1 0 13                          @ ../../../ThirdParty/mbedTLS/library/error.c:0:13
	movw	r0, #7680
	.loc	1 236 13                        @ ../../../ThirdParty/mbedTLS/library/error.c:236:13
	cmp	r7, r0
	bne	.LBB0_405
	bl	.LBB0_2866
.Ltmp303:
.LBB0_405:
	bl	.LBB0_2889
.LBB0_406:
.Ltmp304:
	@DEBUG_VALUE: mbedtls_strerror:buf <- $r5
	@DEBUG_VALUE: mbedtls_strerror:buflen <- $r4
	.loc	1 0 13                          @ ../../../ThirdParty/mbedTLS/library/error.c:0:13
	ldr	r0, .LCPI0_569
	.loc	1 236 13                        @ ../../../ThirdParty/mbedTLS/library/error.c:236:13
	cmp	r7, r0
	ble	.LBB0_407
	b	.LBB0_510
.Ltmp305:
.LBB0_407:
	@DEBUG_VALUE: mbedtls_strerror:buf <- $r5
	@DEBUG_VALUE: mbedtls_strerror:buflen <- $r4
	.loc	1 0 13                          @ ../../../ThirdParty/mbedTLS/library/error.c:0:13
	ldr	r0, .LCPI0_572
	.loc	1 236 13                        @ ../../../ThirdParty/mbedTLS/library/error.c:236:13
	cmp	r7, r0
	ble	.LBB0_408
	b	.LBB0_552
.Ltmp306:
.LBB0_408:
	@DEBUG_VALUE: mbedtls_strerror:buf <- $r5
	@DEBUG_VALUE: mbedtls_strerror:buflen <- $r4
	.loc	1 0 13                          @ ../../../ThirdParty/mbedTLS/library/error.c:0:13
	movw	r0, #16128
	.loc	1 236 13                        @ ../../../ThirdParty/mbedTLS/library/error.c:236:13
	cmp	r7, r0
	bne	.LBB0_409
	bl	.LBB0_1912
.Ltmp307:
.LBB0_409:
	@DEBUG_VALUE: mbedtls_strerror:buf <- $r5
	@DEBUG_VALUE: mbedtls_strerror:buflen <- $r4
	.loc	1 0 13                          @ ../../../ThirdParty/mbedTLS/library/error.c:0:13
	movw	r0, #16256
	.loc	1 236 13                        @ ../../../ThirdParty/mbedTLS/library/error.c:236:13
	cmp	r7, r0
	bne	.LBB0_410
	bl	.LBB0_1908
.Ltmp308:
.LBB0_410:
	bl	.LBB0_2889
.LBB0_411:
.Ltmp309:
	@DEBUG_VALUE: mbedtls_strerror:buf <- $r5
	@DEBUG_VALUE: mbedtls_strerror:buflen <- $r4
	.loc	1 0 13                          @ ../../../ThirdParty/mbedTLS/library/error.c:0:13
	ldr	r0, .LCPI0_573
	.loc	1 236 13                        @ ../../../ThirdParty/mbedTLS/library/error.c:236:13
	cmp	r7, r0
	ble	.LBB0_412
	b	.LBB0_514
.Ltmp310:
.LBB0_412:
	@DEBUG_VALUE: mbedtls_strerror:buf <- $r5
	@DEBUG_VALUE: mbedtls_strerror:buflen <- $r4
	.loc	1 0 13                          @ ../../../ThirdParty/mbedTLS/library/error.c:0:13
	ldr	r0, .LCPI0_550
	.loc	1 236 13                        @ ../../../ThirdParty/mbedTLS/library/error.c:236:13
	cmp	r7, r0
	ble	.LBB0_413
	b	.LBB0_555
.Ltmp311:
.LBB0_413:
	@DEBUG_VALUE: mbedtls_strerror:buf <- $r5
	@DEBUG_VALUE: mbedtls_strerror:buflen <- $r4
	.loc	1 0 13                          @ ../../../ThirdParty/mbedTLS/library/error.c:0:13
	movw	r0, #13440
	.loc	1 236 13                        @ ../../../ThirdParty/mbedTLS/library/error.c:236:13
	cmp	r7, r0
	bne	.LBB0_414
	bl	.LBB0_797
.Ltmp312:
.LBB0_414:
	@DEBUG_VALUE: mbedtls_strerror:buf <- $r5
	@DEBUG_VALUE: mbedtls_strerror:buflen <- $r4
	.loc	1 0 13                          @ ../../../ThirdParty/mbedTLS/library/error.c:0:13
	movw	r0, #13568
	.loc	1 236 13                        @ ../../../ThirdParty/mbedTLS/library/error.c:236:13
	cmp	r7, r0
	bne	.LBB0_415
	bl	.LBB0_806
.Ltmp313:
.LBB0_415:
	bl	.LBB0_2889
.LBB0_416:
.Ltmp314:
	@DEBUG_VALUE: mbedtls_strerror:buf <- $r5
	@DEBUG_VALUE: mbedtls_strerror:buflen <- $r4
	ldr	r0, .LCPI0_574
	cmp	r7, r0
	ble	.LBB0_417
	b	.LBB0_518
.Ltmp315:
.LBB0_417:
	@DEBUG_VALUE: mbedtls_strerror:buf <- $r5
	@DEBUG_VALUE: mbedtls_strerror:buflen <- $r4
	ldr	r0, __arm_cp.0_554
	cmp	r7, r0
	ble	.LBB0_418
	b	.LBB0_558
.Ltmp316:
.LBB0_418:
	@DEBUG_VALUE: mbedtls_strerror:buf <- $r5
	@DEBUG_VALUE: mbedtls_strerror:buflen <- $r4
	.loc	1 0 13                          @ ../../../ThirdParty/mbedTLS/library/error.c:0:13
	movw	r0, #21120
	.loc	1 236 13                        @ ../../../ThirdParty/mbedTLS/library/error.c:236:13
	cmp	r7, r0
	bne	.LBB0_419
	bl	.LBB0_1353
.Ltmp317:
.LBB0_419:
	@DEBUG_VALUE: mbedtls_strerror:buf <- $r5
	@DEBUG_VALUE: mbedtls_strerror:buflen <- $r4
	.loc	1 0 13                          @ ../../../ThirdParty/mbedTLS/library/error.c:0:13
	movw	r0, #24832
	.loc	1 236 13                        @ ../../../ThirdParty/mbedTLS/library/error.c:236:13
	cmp	r7, r0
	bne	.LBB0_420
	bl	.LBB0_50
.Ltmp318:
.LBB0_420:
	bl	.LBB0_2889
.LBB0_421:
.Ltmp319:
	@DEBUG_VALUE: mbedtls_strerror:buf <- $r5
	@DEBUG_VALUE: mbedtls_strerror:buflen <- $r4
	.loc	1 0 13                          @ ../../../ThirdParty/mbedTLS/library/error.c:0:13
	ldr	r0, .LCPI0_542
	.loc	1 238 13 is_stmt 1              @ ../../../ThirdParty/mbedTLS/library/error.c:238:13
	cmp	r7, r0
	bgt	.LBB0_422
	b	.LBB0_528
.Ltmp320:
.LBB0_422:
	@DEBUG_VALUE: mbedtls_strerror:buf <- $r5
	@DEBUG_VALUE: mbedtls_strerror:buflen <- $r4
	.loc	1 0 13 is_stmt 0                @ ../../../ThirdParty/mbedTLS/library/error.c:0:13
	movw	r0, #12800
	.loc	1 238 13                        @ ../../../ThirdParty/mbedTLS/library/error.c:238:13
	cmp	r7, r0
	bne	.LBB0_423
	bl	.LBB0_750
.Ltmp321:
.LBB0_423:
	@DEBUG_VALUE: mbedtls_strerror:buf <- $r5
	@DEBUG_VALUE: mbedtls_strerror:buflen <- $r4
	.loc	1 0 13                          @ ../../../ThirdParty/mbedTLS/library/error.c:0:13
	movw	r0, #12928
	.loc	1 238 13                        @ ../../../ThirdParty/mbedTLS/library/error.c:238:13
	cmp	r7, r0
	bne	.LBB0_424
	bl	.LBB0_104
.Ltmp322:
.LBB0_424:
	@DEBUG_VALUE: mbedtls_strerror:buf <- $r5
	@DEBUG_VALUE: mbedtls_strerror:buflen <- $r4
	.loc	1 0 13                          @ ../../../ThirdParty/mbedTLS/library/error.c:0:13
	movw	r0, #13056
	.loc	1 238 13                        @ ../../../ThirdParty/mbedTLS/library/error.c:238:13
	cmp	r7, r0
	bne	.LBB0_425
	bl	.LBB0_762
.Ltmp323:
.LBB0_425:
	bl	.LBB0_1909
.LBB0_426:
.Ltmp324:
	@DEBUG_VALUE: mbedtls_strerror:buf <- $r5
	@DEBUG_VALUE: mbedtls_strerror:buflen <- $r4
	.loc	1 0 13                          @ ../../../ThirdParty/mbedTLS/library/error.c:0:13
	ldr	r0, .LCPI0_575
	.loc	1 238 13                        @ ../../../ThirdParty/mbedTLS/library/error.c:238:13
	cmp	r7, r0
	bgt	.LBB0_427
	b	.LBB0_531
.Ltmp325:
.LBB0_427:
	@DEBUG_VALUE: mbedtls_strerror:buf <- $r5
	@DEBUG_VALUE: mbedtls_strerror:buflen <- $r4
	.loc	1 0 13                          @ ../../../ThirdParty/mbedTLS/library/error.c:0:13
	movw	r0, #20864
	.loc	1 238 13                        @ ../../../ThirdParty/mbedTLS/library/error.c:238:13
	cmp	r7, r0
	bne	.LBB0_428
	bl	.LBB0_1289
.Ltmp326:
.LBB0_428:
	@DEBUG_VALUE: mbedtls_strerror:buf <- $r5
	@DEBUG_VALUE: mbedtls_strerror:buflen <- $r4
	.loc	1 0 13                          @ ../../../ThirdParty/mbedTLS/library/error.c:0:13
	movw	r0, #20992
	.loc	1 238 13                        @ ../../../ThirdParty/mbedTLS/library/error.c:238:13
	cmp	r7, r0
	bne	.LBB0_429
	bl	.LBB0_1342
.Ltmp327:
.LBB0_429:
	@DEBUG_VALUE: mbedtls_strerror:buf <- $r5
	@DEBUG_VALUE: mbedtls_strerror:buflen <- $r4
	.loc	1 0 13                          @ ../../../ThirdParty/mbedTLS/library/error.c:0:13
	movw	r0, #21120
	.loc	1 238 13                        @ ../../../ThirdParty/mbedTLS/library/error.c:238:13
	cmp	r7, r0
	bne	.LBB0_430
	bl	.LBB0_1353
.Ltmp328:
.LBB0_430:
	bl	.LBB0_1909
@ %bb.431:
@ %bb.432:
@ %bb.433:
@ %bb.434:
	.p2align	2
@ %bb.435:
	.loc	1 0 13                          @ ../../../ThirdParty/mbedTLS/library/error.c:0:13
.LCPI0_549:
	.long	4479                            @ 0x117f
	.p2align	2
@ %bb.436:
.LCPI0_1741:
	.long	19839                           @ 0x4d7f
	.p2align	2
@ %bb.437:
.LCPI0_1742:
	.long	19711                           @ 0x4cff
	.p2align	1
.LBB0_438:
.Ltmp329:
	@DEBUG_VALUE: mbedtls_strerror:buf <- $r5
	@DEBUG_VALUE: mbedtls_strerror:buflen <- $r4
	ldr	r0, .LCPI0_576
	.loc	1 238 13                        @ ../../../ThirdParty/mbedTLS/library/error.c:238:13
	cmp	r7, r0
	bgt	.LBB0_439
	bl	.LBB0_1504
.Ltmp330:
.LBB0_439:
	@DEBUG_VALUE: mbedtls_strerror:buf <- $r5
	@DEBUG_VALUE: mbedtls_strerror:buflen <- $r4
	.loc	1 0 13                          @ ../../../ThirdParty/mbedTLS/library/error.c:0:13
	movw	r0, #5120
	.loc	1 238 13                        @ ../../../ThirdParty/mbedTLS/library/error.c:238:13
	cmp	r7, r0
	bne	.LBB0_440
	bl	.LBB0_1813
.Ltmp331:
.LBB0_440:
	@DEBUG_VALUE: mbedtls_strerror:buf <- $r5
	@DEBUG_VALUE: mbedtls_strerror:buflen <- $r4
	.loc	1 0 13                          @ ../../../ThirdParty/mbedTLS/library/error.c:0:13
	movw	r0, #5248
	.loc	1 238 13                        @ ../../../ThirdParty/mbedTLS/library/error.c:238:13
	cmp	r7, r0
	bne	.LBB0_441
	bl	.LBB0_1821
.Ltmp332:
.LBB0_441:
	@DEBUG_VALUE: mbedtls_strerror:buf <- $r5
	@DEBUG_VALUE: mbedtls_strerror:buflen <- $r4
	.loc	1 0 13                          @ ../../../ThirdParty/mbedTLS/library/error.c:0:13
	movw	r0, #12416
	.loc	1 238 13                        @ ../../../ThirdParty/mbedTLS/library/error.c:238:13
	cmp	r7, r0
	bne	.LBB0_442
	b	.LBB0_188
.Ltmp333:
.LBB0_442:
	bl	.LBB0_1909
@ %bb.443:
@ %bb.444:
	.p2align	2
@ %bb.445:
	.loc	1 0 13                          @ ../../../ThirdParty/mbedTLS/library/error.c:0:13
.LCPI0_542:
	.long	12799                           @ 0x31ff
@ %bb.446:
@ %bb.447:
	.p2align	2
@ %bb.448:
.LCPI0_550:
	.long	13695                           @ 0x357f
@ %bb.449:
@ %bb.450:
	.p2align	2
@ %bb.451:
.LCPI0_553:
	.long	20607                           @ 0x507f
	.p2align	2
@ %bb.452:
__arm_cp.0_554:
	.long	24959                           @ 0x617f
.Lcpi_end10:
	.size	__arm_cp.0_554, .Lcpi_end10-__arm_cp.0_554
@ %bb.453:
@ %bb.454:
@ %bb.455:
@ %bb.456:
@ %bb.457:
	.p2align	2
@ %bb.458:
.LCPI0_560:
	.long	12671                           @ 0x317f
	.p2align	2
@ %bb.459:
.LCPI0_561:
	.long	19839                           @ 0x4d7f
@ %bb.460:
	.p2align	2
@ %bb.461:
.LCPI0_563:
	.long	13567                           @ 0x34ff
	.p2align	2
@ %bb.462:
.LCPI0_564:
	.long	13439                           @ 0x347f
	.p2align	2
@ %bb.463:
.LCPI0_565:
	.long	12927                           @ 0x327f
	.p2align	2
@ %bb.464:
.LCPI0_566:
	.long	21119                           @ 0x527f
	.p2align	2
@ %bb.465:
.LCPI0_567:
	.long	20223                           @ 0x4eff
	.p2align	2
@ %bb.466:
.LCPI0_568:
	.long	4863                            @ 0x12ff
	.p2align	2
@ %bb.467:
.LCPI0_569:
	.long	19455                           @ 0x4bff
	.p2align	2
@ %bb.468:
.LCPI0_570:
	.long	8063                            @ 0x1f7f
	.p2align	2
@ %bb.469:
.LCPI0_571:
	.long	7807                            @ 0x1e7f
	.p2align	2
@ %bb.470:
.LCPI0_572:
	.long	19199                           @ 0x4aff
	.p2align	2
@ %bb.471:
.LCPI0_573:
	.long	14591                           @ 0x38ff
	.p2align	2
@ %bb.472:
.LCPI0_574:
	.long	25215                           @ 0x627f
	.p2align	2
@ %bb.473:
.LCPI0_575:
	.long	20863                           @ 0x517f
	.p2align	2
@ %bb.474:
.LCPI0_576:
	.long	5119                            @ 0x13ff
	.p2align	1
.LBB0_475:
.Ltmp334:
	@DEBUG_VALUE: mbedtls_strerror:buf <- $r5
	@DEBUG_VALUE: mbedtls_strerror:buflen <- $r4
	.loc	1 238 13                        @ ../../../ThirdParty/mbedTLS/library/error.c:238:13
	cmp	r7, r6
	bgt	.LBB0_476
	b	.LBB0_534
.Ltmp335:
.LBB0_476:
	@DEBUG_VALUE: mbedtls_strerror:buf <- $r5
	@DEBUG_VALUE: mbedtls_strerror:buflen <- $r4
	.loc	1 0 13                          @ ../../../ThirdParty/mbedTLS/library/error.c:0:13
	movw	r0, #20096
	.loc	1 238 13                        @ ../../../ThirdParty/mbedTLS/library/error.c:238:13
	cmp	r7, r0
	bne	.LBB0_477
	bl	.LBB0_836
.Ltmp336:
.LBB0_477:
	@DEBUG_VALUE: mbedtls_strerror:buf <- $r5
	@DEBUG_VALUE: mbedtls_strerror:buflen <- $r4
	.loc	1 0 13                          @ ../../../ThirdParty/mbedTLS/library/error.c:0:13
	movw	r0, #20224
	.loc	1 238 13                        @ ../../../ThirdParty/mbedTLS/library/error.c:238:13
	cmp	r7, r0
	bne	.LBB0_478
	bl	.LBB0_820
.Ltmp337:
.LBB0_478:
	@DEBUG_VALUE: mbedtls_strerror:buf <- $r5
	@DEBUG_VALUE: mbedtls_strerror:buflen <- $r4
	.loc	1 0 13                          @ ../../../ThirdParty/mbedTLS/library/error.c:0:13
	movw	r0, #20352
	.loc	1 238 13                        @ ../../../ThirdParty/mbedTLS/library/error.c:238:13
	cmp	r7, r0
	bne	.LBB0_479
	bl	.LBB0_817
.Ltmp338:
.LBB0_479:
	bl	.LBB0_1909
.LBB0_480:
.Ltmp339:
	@DEBUG_VALUE: mbedtls_strerror:buf <- $r5
	@DEBUG_VALUE: mbedtls_strerror:buflen <- $r4
	.loc	1 0 13                          @ ../../../ThirdParty/mbedTLS/library/error.c:0:13
	movw	r0, #25472
	.loc	1 242 13 is_stmt 1              @ ../../../ThirdParty/mbedTLS/library/error.c:242:13
	cmp	r7, r0
	bne	.LBB0_481
	b	.LBB0_721
.Ltmp340:
.LBB0_481:
	@DEBUG_VALUE: mbedtls_strerror:buf <- $r5
	@DEBUG_VALUE: mbedtls_strerror:buflen <- $r4
	.loc	1 0 13 is_stmt 0                @ ../../../ThirdParty/mbedTLS/library/error.c:0:13
	movw	r0, #25600
	.loc	1 242 13                        @ ../../../ThirdParty/mbedTLS/library/error.c:242:13
	cmp	r7, r0
	bne	.LBB0_482
	b	.LBB0_242
.Ltmp341:
.LBB0_482:
	bl	.LBB0_1203
.LBB0_483:
.Ltmp342:
	@DEBUG_VALUE: mbedtls_strerror:buf <- $r5
	@DEBUG_VALUE: mbedtls_strerror:buflen <- $r4
	.loc	1 0 13                          @ ../../../ThirdParty/mbedTLS/library/error.c:0:13
	movw	r0, #13568
	.loc	1 238 13 is_stmt 1              @ ../../../ThirdParty/mbedTLS/library/error.c:238:13
	cmp	r7, r0
	bne	.LBB0_484
	bl	.LBB0_806
.Ltmp343:
.LBB0_484:
	@DEBUG_VALUE: mbedtls_strerror:buf <- $r5
	@DEBUG_VALUE: mbedtls_strerror:buflen <- $r4
	.loc	1 0 13 is_stmt 0                @ ../../../ThirdParty/mbedTLS/library/error.c:0:13
	movw	r0, #13696
	.loc	1 238 13                        @ ../../../ThirdParty/mbedTLS/library/error.c:238:13
	cmp	r7, r0
	beq	.LBB0_485
	bl	.LBB0_1529
.Ltmp344:
.LBB0_485:
	.loc	1 0 13                          @ ../../../ThirdParty/mbedTLS/library/error.c:0:13
	bl	.LBB0_811
.LBB0_486:
.Ltmp345:
	@DEBUG_VALUE: mbedtls_strerror:buf <- $r5
	@DEBUG_VALUE: mbedtls_strerror:buflen <- $r4
	movw	r0, #25344
	.loc	1 238 13                        @ ../../../ThirdParty/mbedTLS/library/error.c:238:13
	cmp	r7, r0
	bne	.LBB0_487
	bl	.LBB0_89
.Ltmp346:
.LBB0_487:
	@DEBUG_VALUE: mbedtls_strerror:buf <- $r5
	@DEBUG_VALUE: mbedtls_strerror:buflen <- $r4
	.loc	1 0 13                          @ ../../../ThirdParty/mbedTLS/library/error.c:0:13
	movw	r0, #25472
	.loc	1 238 13                        @ ../../../ThirdParty/mbedTLS/library/error.c:238:13
	cmp	r7, r0
	bne	.LBB0_488
	b	.LBB0_721
.Ltmp347:
.LBB0_488:
	@DEBUG_VALUE: mbedtls_strerror:buf <- $r5
	@DEBUG_VALUE: mbedtls_strerror:buflen <- $r4
	.loc	1 0 13                          @ ../../../ThirdParty/mbedTLS/library/error.c:0:13
	movw	r0, #25600
	.loc	1 238 13                        @ ../../../ThirdParty/mbedTLS/library/error.c:238:13
	cmp	r7, r0
	bne	.LBB0_489
	b	.LBB0_242
.Ltmp348:
.LBB0_489:
	bl	.LBB0_1909
.LBB0_490:
.Ltmp349:
	@DEBUG_VALUE: mbedtls_strerror:buf <- $r5
	@DEBUG_VALUE: mbedtls_strerror:buflen <- $r4
	.loc	1 0 13                          @ ../../../ThirdParty/mbedTLS/library/error.c:0:13
	ldr	r0, .LCPI0_1743
	.loc	1 236 13 is_stmt 1              @ ../../../ThirdParty/mbedTLS/library/error.c:236:13
	cmp	r7, r0
	ble	.LBB0_491
	b	.LBB0_697
.Ltmp350:
.LBB0_491:
	@DEBUG_VALUE: mbedtls_strerror:buf <- $r5
	@DEBUG_VALUE: mbedtls_strerror:buflen <- $r4
	.loc	1 0 13 is_stmt 0                @ ../../../ThirdParty/mbedTLS/library/error.c:0:13
	movw	r0, #4736
	.loc	1 236 13                        @ ../../../ThirdParty/mbedTLS/library/error.c:236:13
	cmp	r7, r0
	bne	.LBB0_492
	bl	.LBB0_1507
.Ltmp351:
.LBB0_492:
	@DEBUG_VALUE: mbedtls_strerror:buf <- $r5
	@DEBUG_VALUE: mbedtls_strerror:buflen <- $r4
	.loc	1 0 13                          @ ../../../ThirdParty/mbedTLS/library/error.c:0:13
	movw	r0, #4864
	.loc	1 236 13                        @ ../../../ThirdParty/mbedTLS/library/error.c:236:13
	cmp	r7, r0
	bne	.LBB0_493
	bl	.LBB0_1629
.Ltmp352:
.LBB0_493:
	bl	.LBB0_2889
.LBB0_494:
.Ltmp353:
	@DEBUG_VALUE: mbedtls_strerror:buf <- $r5
	@DEBUG_VALUE: mbedtls_strerror:buflen <- $r4
	.loc	1 0 13                          @ ../../../ThirdParty/mbedTLS/library/error.c:0:13
	ldr	r0, .LCPI0_1744
	.loc	1 236 13                        @ ../../../ThirdParty/mbedTLS/library/error.c:236:13
	cmp	r7, r0
	ble	.LBB0_495
	b	.LBB0_700
.Ltmp354:
.LBB0_495:
	@DEBUG_VALUE: mbedtls_strerror:buf <- $r5
	@DEBUG_VALUE: mbedtls_strerror:buflen <- $r4
	.loc	1 0 13                          @ ../../../ThirdParty/mbedTLS/library/error.c:0:13
	movw	r0, #15616
	.loc	1 236 13                        @ ../../../ThirdParty/mbedTLS/library/error.c:236:13
	cmp	r7, r0
	bne	.LBB0_496
	bl	.LBB0_2156
.Ltmp355:
.LBB0_496:
	@DEBUG_VALUE: mbedtls_strerror:buf <- $r5
	@DEBUG_VALUE: mbedtls_strerror:buflen <- $r4
	.loc	1 0 13                          @ ../../../ThirdParty/mbedTLS/library/error.c:0:13
	movw	r0, #15744
	.loc	1 236 13                        @ ../../../ThirdParty/mbedTLS/library/error.c:236:13
	cmp	r7, r0
	bne	.LBB0_497
	bl	.LBB0_2148
.Ltmp356:
.LBB0_497:
	bl	.LBB0_2889
.LBB0_498:
.Ltmp357:
	@DEBUG_VALUE: mbedtls_strerror:buf <- $r5
	@DEBUG_VALUE: mbedtls_strerror:buflen <- $r4
	.loc	1 0 13                          @ ../../../ThirdParty/mbedTLS/library/error.c:0:13
	ldr	r0, .LCPI0_1745
	.loc	1 236 13                        @ ../../../ThirdParty/mbedTLS/library/error.c:236:13
	cmp	r7, r0
	ble	.LBB0_499
	b	.LBB0_703
.Ltmp358:
.LBB0_499:
	@DEBUG_VALUE: mbedtls_strerror:buf <- $r5
	@DEBUG_VALUE: mbedtls_strerror:buflen <- $r4
	.loc	1 0 13                          @ ../../../ThirdParty/mbedTLS/library/error.c:0:13
	movw	r0, #12928
	.loc	1 236 13                        @ ../../../ThirdParty/mbedTLS/library/error.c:236:13
	cmp	r7, r0
	bne	.LBB0_500
	bl	.LBB0_104
.Ltmp359:
.LBB0_500:
	@DEBUG_VALUE: mbedtls_strerror:buf <- $r5
	@DEBUG_VALUE: mbedtls_strerror:buflen <- $r4
	.loc	1 0 13                          @ ../../../ThirdParty/mbedTLS/library/error.c:0:13
	movw	r0, #13056
	.loc	1 236 13                        @ ../../../ThirdParty/mbedTLS/library/error.c:236:13
	cmp	r7, r0
	bne	.LBB0_501
	bl	.LBB0_762
.Ltmp360:
.LBB0_501:
	bl	.LBB0_2889
.LBB0_502:
.Ltmp361:
	@DEBUG_VALUE: mbedtls_strerror:buf <- $r5
	@DEBUG_VALUE: mbedtls_strerror:buflen <- $r4
	.loc	1 0 13                          @ ../../../ThirdParty/mbedTLS/library/error.c:0:13
	ldr	r0, .LCPI0_1746
	.loc	1 236 13                        @ ../../../ThirdParty/mbedTLS/library/error.c:236:13
	cmp	r7, r0
	ble	.LBB0_503
	b	.LBB0_706
.Ltmp362:
.LBB0_503:
	@DEBUG_VALUE: mbedtls_strerror:buf <- $r5
	@DEBUG_VALUE: mbedtls_strerror:buflen <- $r4
	.loc	1 0 13                          @ ../../../ThirdParty/mbedTLS/library/error.c:0:13
	movw	r0, #20608
	.loc	1 236 13                        @ ../../../ThirdParty/mbedTLS/library/error.c:236:13
	cmp	r7, r0
	bne	.LBB0_504
	bl	.LBB0_1231
.Ltmp363:
.LBB0_504:
	@DEBUG_VALUE: mbedtls_strerror:buf <- $r5
	@DEBUG_VALUE: mbedtls_strerror:buflen <- $r4
	.loc	1 0 13                          @ ../../../ThirdParty/mbedTLS/library/error.c:0:13
	movw	r0, #20736
	.loc	1 236 13                        @ ../../../ThirdParty/mbedTLS/library/error.c:236:13
	cmp	r7, r0
	bne	.LBB0_505
	bl	.LBB0_1249
.Ltmp364:
.LBB0_505:
	bl	.LBB0_2889
.LBB0_506:
.Ltmp365:
	@DEBUG_VALUE: mbedtls_strerror:buf <- $r5
	@DEBUG_VALUE: mbedtls_strerror:buflen <- $r4
	.loc	1 0 13                          @ ../../../ThirdParty/mbedTLS/library/error.c:0:13
	ldr	r0, .LCPI0_1438
	.loc	1 236 13                        @ ../../../ThirdParty/mbedTLS/library/error.c:236:13
	cmp	r7, r0
	ble	.LBB0_507
	b	.LBB0_709
.Ltmp366:
.LBB0_507:
	@DEBUG_VALUE: mbedtls_strerror:buf <- $r5
	@DEBUG_VALUE: mbedtls_strerror:buflen <- $r4
	.loc	1 0 13                          @ ../../../ThirdParty/mbedTLS/library/error.c:0:13
	movw	r0, #8064
	.loc	1 236 13                        @ ../../../ThirdParty/mbedTLS/library/error.c:236:13
	cmp	r7, r0
	bne	.LBB0_508
	bl	.LBB0_2478
.Ltmp367:
.LBB0_508:
	@DEBUG_VALUE: mbedtls_strerror:buf <- $r5
	@DEBUG_VALUE: mbedtls_strerror:buflen <- $r4
	.loc	1 0 13                          @ ../../../ThirdParty/mbedTLS/library/error.c:0:13
	movw	r0, #11904
	.loc	1 236 13                        @ ../../../ThirdParty/mbedTLS/library/error.c:236:13
	cmp	r7, r0
	bne	.LBB0_509
	bl	.LBB0_2888
.Ltmp368:
.LBB0_509:
	bl	.LBB0_2889
.LBB0_510:
.Ltmp369:
	@DEBUG_VALUE: mbedtls_strerror:buf <- $r5
	@DEBUG_VALUE: mbedtls_strerror:buflen <- $r4
	.loc	1 0 13                          @ ../../../ThirdParty/mbedTLS/library/error.c:0:13
	ldr	r0, .LCPI0_1439
	.loc	1 236 13                        @ ../../../ThirdParty/mbedTLS/library/error.c:236:13
	cmp	r7, r0
	ble	.LBB0_511
	b	.LBB0_712
.Ltmp370:
.LBB0_511:
	@DEBUG_VALUE: mbedtls_strerror:buf <- $r5
	@DEBUG_VALUE: mbedtls_strerror:buflen <- $r4
	.loc	1 0 13                          @ ../../../ThirdParty/mbedTLS/library/error.c:0:13
	movw	r0, #19456
	.loc	1 236 13                        @ ../../../ThirdParty/mbedTLS/library/error.c:236:13
	cmp	r7, r0
	bne	.LBB0_512
	bl	.LBB0_1172
.Ltmp371:
.LBB0_512:
	@DEBUG_VALUE: mbedtls_strerror:buf <- $r5
	@DEBUG_VALUE: mbedtls_strerror:buflen <- $r4
	.loc	1 0 13                          @ ../../../ThirdParty/mbedTLS/library/error.c:0:13
	movw	r0, #19584
	.loc	1 236 13                        @ ../../../ThirdParty/mbedTLS/library/error.c:236:13
	cmp	r7, r0
	bne	.LBB0_513
	bl	.LBB0_1082
.Ltmp372:
.LBB0_513:
	bl	.LBB0_2889
.LBB0_514:
.Ltmp373:
	@DEBUG_VALUE: mbedtls_strerror:buf <- $r5
	@DEBUG_VALUE: mbedtls_strerror:buflen <- $r4
	.loc	1 0 13                          @ ../../../ThirdParty/mbedTLS/library/error.c:0:13
	ldr	r0, .LCPI0_1440
	.loc	1 236 13                        @ ../../../ThirdParty/mbedTLS/library/error.c:236:13
	cmp	r7, r0
	ble	.LBB0_515
	b	.LBB0_715
.Ltmp374:
.LBB0_515:
	@DEBUG_VALUE: mbedtls_strerror:buf <- $r5
	@DEBUG_VALUE: mbedtls_strerror:buflen <- $r4
	.loc	1 0 13                          @ ../../../ThirdParty/mbedTLS/library/error.c:0:13
	movw	r0, #14592
	.loc	1 236 13                        @ ../../../ThirdParty/mbedTLS/library/error.c:236:13
	cmp	r7, r0
	bne	.LBB0_516
	bl	.LBB0_1966
.Ltmp375:
.LBB0_516:
	@DEBUG_VALUE: mbedtls_strerror:buf <- $r5
	@DEBUG_VALUE: mbedtls_strerror:buflen <- $r4
	.loc	1 0 13                          @ ../../../ThirdParty/mbedTLS/library/error.c:0:13
	movw	r0, #14720
	.loc	1 236 13                        @ ../../../ThirdParty/mbedTLS/library/error.c:236:13
	cmp	r7, r0
	bne	.LBB0_517
	bl	.LBB0_1962
.Ltmp376:
.LBB0_517:
	bl	.LBB0_2889
.LBB0_518:
.Ltmp377:
	@DEBUG_VALUE: mbedtls_strerror:buf <- $r5
	@DEBUG_VALUE: mbedtls_strerror:buflen <- $r4
	.loc	1 0 13                          @ ../../../ThirdParty/mbedTLS/library/error.c:0:13
	ldr	r0, .LCPI0_1441
	.loc	1 236 13                        @ ../../../ThirdParty/mbedTLS/library/error.c:236:13
	cmp	r7, r0
	ble	.LBB0_519
	b	.LBB0_718
.Ltmp378:
.LBB0_519:
	@DEBUG_VALUE: mbedtls_strerror:buf <- $r5
	@DEBUG_VALUE: mbedtls_strerror:buflen <- $r4
	.loc	1 0 13                          @ ../../../ThirdParty/mbedTLS/library/error.c:0:13
	movw	r0, #25216
	.loc	1 236 13                        @ ../../../ThirdParty/mbedTLS/library/error.c:236:13
	cmp	r7, r0
	bne	.LBB0_520
	b	.LBB0_604
.Ltmp379:
.LBB0_520:
	@DEBUG_VALUE: mbedtls_strerror:buf <- $r5
	@DEBUG_VALUE: mbedtls_strerror:buflen <- $r4
	.loc	1 0 13                          @ ../../../ThirdParty/mbedTLS/library/error.c:0:13
	movw	r0, #25344
	.loc	1 236 13                        @ ../../../ThirdParty/mbedTLS/library/error.c:236:13
	cmp	r7, r0
	bne	.LBB0_521
	bl	.LBB0_89
.Ltmp380:
.LBB0_521:
	bl	.LBB0_2889
.LBB0_522:
.Ltmp381:
	@DEBUG_VALUE: mbedtls_strerror:buf <- $r5
	@DEBUG_VALUE: mbedtls_strerror:buflen <- $r4
	.loc	1 0 13                          @ ../../../ThirdParty/mbedTLS/library/error.c:0:13
	movw	r0, #4224
	.loc	1 238 13 is_stmt 1              @ ../../../ThirdParty/mbedTLS/library/error.c:238:13
	cmp	r7, r0
	bne	.LBB0_523
	bl	.LBB0_1356
.Ltmp382:
.LBB0_523:
	@DEBUG_VALUE: mbedtls_strerror:buf <- $r5
	@DEBUG_VALUE: mbedtls_strerror:buflen <- $r4
	.loc	1 0 13 is_stmt 0                @ ../../../ThirdParty/mbedTLS/library/error.c:0:13
	movw	r0, #4352
	.loc	1 238 13                        @ ../../../ThirdParty/mbedTLS/library/error.c:238:13
	cmp	r7, r0
	bne	.LBB0_524
	bl	.LBB0_1492
.Ltmp383:
.LBB0_524:
	bl	.LBB0_1909
.LBB0_525:
.Ltmp384:
	@DEBUG_VALUE: mbedtls_strerror:buf <- $r5
	@DEBUG_VALUE: mbedtls_strerror:buflen <- $r4
	.loc	1 0 13                          @ ../../../ThirdParty/mbedTLS/library/error.c:0:13
	movw	r0, #19200
	.loc	1 238 13                        @ ../../../ThirdParty/mbedTLS/library/error.c:238:13
	cmp	r7, r0
	bne	.LBB0_526
	bl	.LBB0_1202
.Ltmp385:
.LBB0_526:
	@DEBUG_VALUE: mbedtls_strerror:buf <- $r5
	@DEBUG_VALUE: mbedtls_strerror:buflen <- $r4
	.loc	1 0 13                          @ ../../../ThirdParty/mbedTLS/library/error.c:0:13
	movw	r0, #19328
	.loc	1 238 13                        @ ../../../ThirdParty/mbedTLS/library/error.c:238:13
	cmp	r7, r0
	bne	.LBB0_527
	bl	.LBB0_1177
.Ltmp386:
.LBB0_527:
	bl	.LBB0_1909
.LBB0_528:
.Ltmp387:
	@DEBUG_VALUE: mbedtls_strerror:buf <- $r5
	@DEBUG_VALUE: mbedtls_strerror:buflen <- $r4
	.loc	1 0 13                          @ ../../../ThirdParty/mbedTLS/library/error.c:0:13
	movw	r0, #12544
	.loc	1 238 13                        @ ../../../ThirdParty/mbedTLS/library/error.c:238:13
	cmp	r7, r0
	bne	.LBB0_529
	b	.LBB0_726
.Ltmp388:
.LBB0_529:
	@DEBUG_VALUE: mbedtls_strerror:buf <- $r5
	@DEBUG_VALUE: mbedtls_strerror:buflen <- $r4
	.loc	1 0 13                          @ ../../../ThirdParty/mbedTLS/library/error.c:0:13
	movw	r0, #12672
	.loc	1 238 13                        @ ../../../ThirdParty/mbedTLS/library/error.c:238:13
	cmp	r7, r0
	bne	.LBB0_530
	bl	.LBB0_21
.Ltmp389:
.LBB0_530:
	bl	.LBB0_1909
.LBB0_531:
.Ltmp390:
	@DEBUG_VALUE: mbedtls_strerror:buf <- $r5
	@DEBUG_VALUE: mbedtls_strerror:buflen <- $r4
	.loc	1 0 13                          @ ../../../ThirdParty/mbedTLS/library/error.c:0:13
	movw	r0, #20608
	.loc	1 238 13                        @ ../../../ThirdParty/mbedTLS/library/error.c:238:13
	cmp	r7, r0
	bne	.LBB0_532
	bl	.LBB0_1231
.Ltmp391:
.LBB0_532:
	@DEBUG_VALUE: mbedtls_strerror:buf <- $r5
	@DEBUG_VALUE: mbedtls_strerror:buflen <- $r4
	.loc	1 0 13                          @ ../../../ThirdParty/mbedTLS/library/error.c:0:13
	movw	r0, #20736
	.loc	1 238 13                        @ ../../../ThirdParty/mbedTLS/library/error.c:238:13
	cmp	r7, r0
	bne	.LBB0_533
	bl	.LBB0_1249
.Ltmp392:
.LBB0_533:
	bl	.LBB0_1909
.LBB0_534:
.Ltmp393:
	@DEBUG_VALUE: mbedtls_strerror:buf <- $r5
	@DEBUG_VALUE: mbedtls_strerror:buflen <- $r4
	.loc	1 0 13                          @ ../../../ThirdParty/mbedTLS/library/error.c:0:13
	movw	r0, #19840
	.loc	1 238 13                        @ ../../../ThirdParty/mbedTLS/library/error.c:238:13
	cmp	r7, r0
	bne	.LBB0_535
	bl	.LBB0_956
.Ltmp394:
.LBB0_535:
	@DEBUG_VALUE: mbedtls_strerror:buf <- $r5
	@DEBUG_VALUE: mbedtls_strerror:buflen <- $r4
	.loc	1 0 13                          @ ../../../ThirdParty/mbedTLS/library/error.c:0:13
	movw	r0, #19968
	.loc	1 238 13                        @ ../../../ThirdParty/mbedTLS/library/error.c:238:13
	cmp	r7, r0
	bne	.LBB0_536
	bl	.LBB0_916
.Ltmp395:
.LBB0_536:
	bl	.LBB0_1909
.LBB0_537:
.Ltmp396:
	@DEBUG_VALUE: mbedtls_strerror:buf <- $r5
	@DEBUG_VALUE: mbedtls_strerror:buflen <- $r4
	.loc	1 0 13                          @ ../../../ThirdParty/mbedTLS/library/error.c:0:13
	movw	r0, #4480
	.loc	1 236 13 is_stmt 1              @ ../../../ThirdParty/mbedTLS/library/error.c:236:13
	cmp	r7, r0
	bne	.LBB0_538
	bl	.LBB0_1495
.Ltmp397:
.LBB0_538:
	@DEBUG_VALUE: mbedtls_strerror:buf <- $r5
	@DEBUG_VALUE: mbedtls_strerror:buflen <- $r4
	.loc	1 0 13 is_stmt 0                @ ../../../ThirdParty/mbedTLS/library/error.c:0:13
	movw	r0, #4608
	.loc	1 236 13                        @ ../../../ThirdParty/mbedTLS/library/error.c:236:13
	cmp	r7, r0
	bne	.LBB0_539
	bl	.LBB0_1502
.Ltmp398:
.LBB0_539:
	bl	.LBB0_2889
.LBB0_540:
.Ltmp399:
	@DEBUG_VALUE: mbedtls_strerror:buf <- $r5
	@DEBUG_VALUE: mbedtls_strerror:buflen <- $r4
	.loc	1 0 13                          @ ../../../ThirdParty/mbedTLS/library/error.c:0:13
	movw	r0, #15360
	.loc	1 236 13                        @ ../../../ThirdParty/mbedTLS/library/error.c:236:13
	cmp	r7, r0
	bne	.LBB0_541
	bl	.LBB0_1926
.Ltmp400:
.LBB0_541:
	@DEBUG_VALUE: mbedtls_strerror:buf <- $r5
	@DEBUG_VALUE: mbedtls_strerror:buflen <- $r4
	.loc	1 0 13                          @ ../../../ThirdParty/mbedTLS/library/error.c:0:13
	movw	r0, #15488
	.loc	1 236 13                        @ ../../../ThirdParty/mbedTLS/library/error.c:236:13
	cmp	r7, r0
	bne	.LBB0_542
	bl	.LBB0_2165
.Ltmp401:
.LBB0_542:
	bl	.LBB0_2889
.LBB0_543:
.Ltmp402:
	@DEBUG_VALUE: mbedtls_strerror:buf <- $r5
	@DEBUG_VALUE: mbedtls_strerror:buflen <- $r4
	.loc	1 0 13                          @ ../../../ThirdParty/mbedTLS/library/error.c:0:13
	movw	r0, #12672
	.loc	1 236 13                        @ ../../../ThirdParty/mbedTLS/library/error.c:236:13
	cmp	r7, r0
	bne	.LBB0_544
	bl	.LBB0_21
.Ltmp403:
.LBB0_544:
	@DEBUG_VALUE: mbedtls_strerror:buf <- $r5
	@DEBUG_VALUE: mbedtls_strerror:buflen <- $r4
	.loc	1 0 13                          @ ../../../ThirdParty/mbedTLS/library/error.c:0:13
	movw	r0, #12800
	.loc	1 236 13                        @ ../../../ThirdParty/mbedTLS/library/error.c:236:13
	cmp	r7, r0
	bne	.LBB0_545
	b	.LBB0_750
.Ltmp404:
.LBB0_545:
	bl	.LBB0_2889
.LBB0_546:
.Ltmp405:
	@DEBUG_VALUE: mbedtls_strerror:buf <- $r5
	@DEBUG_VALUE: mbedtls_strerror:buflen <- $r4
	.loc	1 0 13                          @ ../../../ThirdParty/mbedTLS/library/error.c:0:13
	movw	r0, #20224
	.loc	1 236 13                        @ ../../../ThirdParty/mbedTLS/library/error.c:236:13
	cmp	r7, r0
	bne	.LBB0_547
	bl	.LBB0_820
.Ltmp406:
.LBB0_547:
	@DEBUG_VALUE: mbedtls_strerror:buf <- $r5
	@DEBUG_VALUE: mbedtls_strerror:buflen <- $r4
	.loc	1 0 13                          @ ../../../ThirdParty/mbedTLS/library/error.c:0:13
	movw	r0, #20352
	.loc	1 236 13                        @ ../../../ThirdParty/mbedTLS/library/error.c:236:13
	cmp	r7, r0
	bne	.LBB0_548
	bl	.LBB0_817
.Ltmp407:
.LBB0_548:
	bl	.LBB0_2889
.LBB0_549:
.Ltmp408:
	@DEBUG_VALUE: mbedtls_strerror:buf <- $r5
	@DEBUG_VALUE: mbedtls_strerror:buflen <- $r4
	.loc	1 0 13                          @ ../../../ThirdParty/mbedTLS/library/error.c:0:13
	movw	r0, #7808
	.loc	1 236 13                        @ ../../../ThirdParty/mbedTLS/library/error.c:236:13
	cmp	r7, r0
	bne	.LBB0_550
	bl	.LBB0_2500
.Ltmp409:
.LBB0_550:
	@DEBUG_VALUE: mbedtls_strerror:buf <- $r5
	@DEBUG_VALUE: mbedtls_strerror:buflen <- $r4
	.loc	1 0 13                          @ ../../../ThirdParty/mbedTLS/library/error.c:0:13
	movw	r0, #7936
	.loc	1 236 13                        @ ../../../ThirdParty/mbedTLS/library/error.c:236:13
	cmp	r7, r0
	bne	.LBB0_551
	bl	.LBB0_2482
.Ltmp410:
.LBB0_551:
	bl	.LBB0_2889
.LBB0_552:
.Ltmp411:
	@DEBUG_VALUE: mbedtls_strerror:buf <- $r5
	@DEBUG_VALUE: mbedtls_strerror:buflen <- $r4
	.loc	1 0 13                          @ ../../../ThirdParty/mbedTLS/library/error.c:0:13
	movw	r0, #19200
	.loc	1 236 13                        @ ../../../ThirdParty/mbedTLS/library/error.c:236:13
	cmp	r7, r0
	bne	.LBB0_553
	bl	.LBB0_1202
.Ltmp412:
.LBB0_553:
	@DEBUG_VALUE: mbedtls_strerror:buf <- $r5
	@DEBUG_VALUE: mbedtls_strerror:buflen <- $r4
	.loc	1 0 13                          @ ../../../ThirdParty/mbedTLS/library/error.c:0:13
	movw	r0, #19328
	.loc	1 236 13                        @ ../../../ThirdParty/mbedTLS/library/error.c:236:13
	cmp	r7, r0
	bne	.LBB0_554
	bl	.LBB0_1177
.Ltmp413:
.LBB0_554:
	bl	.LBB0_2889
.LBB0_555:
.Ltmp414:
	@DEBUG_VALUE: mbedtls_strerror:buf <- $r5
	@DEBUG_VALUE: mbedtls_strerror:buflen <- $r4
	.loc	1 0 13                          @ ../../../ThirdParty/mbedTLS/library/error.c:0:13
	movw	r0, #13696
	.loc	1 236 13                        @ ../../../ThirdParty/mbedTLS/library/error.c:236:13
	cmp	r7, r0
	bne	.LBB0_556
	b	.LBB0_811
.Ltmp415:
.LBB0_556:
	@DEBUG_VALUE: mbedtls_strerror:buf <- $r5
	@DEBUG_VALUE: mbedtls_strerror:buflen <- $r4
	.loc	1 0 13                          @ ../../../ThirdParty/mbedTLS/library/error.c:0:13
	movw	r0, #14464
	.loc	1 236 13                        @ ../../../ThirdParty/mbedTLS/library/error.c:236:13
	cmp	r7, r0
	bne	.LBB0_557
	bl	.LBB0_2456
.Ltmp416:
.LBB0_557:
	bl	.LBB0_2889
.LBB0_558:
.Ltmp417:
	@DEBUG_VALUE: mbedtls_strerror:buf <- $r5
	@DEBUG_VALUE: mbedtls_strerror:buflen <- $r4
	.loc	1 0 13                          @ ../../../ThirdParty/mbedTLS/library/error.c:0:13
	movw	r0, #24960
	.loc	1 236 13                        @ ../../../ThirdParty/mbedTLS/library/error.c:236:13
	cmp	r7, r0
	beq	.LBB0_561
.Ltmp418:
@ %bb.559:
	@DEBUG_VALUE: mbedtls_strerror:buf <- $r5
	@DEBUG_VALUE: mbedtls_strerror:buflen <- $r4
	.loc	1 0 13                          @ ../../../ThirdParty/mbedTLS/library/error.c:0:13
	movw	r0, #25088
	.loc	1 236 13                        @ ../../../ThirdParty/mbedTLS/library/error.c:236:13
	cmp	r7, r0
	bne	.LBB0_560
	bl	.LBB0_167
.Ltmp419:
.LBB0_560:
	bl	.LBB0_2889
.LBB0_561:
.Ltmp420:
	@DEBUG_VALUE: mbedtls_strerror:buf <- $r5
	@DEBUG_VALUE: mbedtls_strerror:buflen <- $r4
	.loc	1 239 13 is_stmt 1              @ ../../../ThirdParty/mbedTLS/library/error.c:239:13
	adr	r2, .LCPI0_585
	mov	r0, r5
	mov	r1, r4
	bl	__2snprintf
	ldr	r0, .LCPI0_582
.Ltmp421:
	.loc	1 240 13                        @ ../../../ThirdParty/mbedTLS/library/error.c:240:13
	cmp	r7, r0
	bgt	.LBB0_568
.Ltmp422:
@ %bb.562:
	@DEBUG_VALUE: mbedtls_strerror:buf <- $r5
	@DEBUG_VALUE: mbedtls_strerror:buflen <- $r4
	.loc	1 0 13 is_stmt 0                @ ../../../ThirdParty/mbedTLS/library/error.c:0:13
	ldr	r0, .LCPI0_586
	.loc	1 240 13                        @ ../../../ThirdParty/mbedTLS/library/error.c:240:13
	cmp	r7, r0
	bgt	.LBB0_574
.Ltmp423:
@ %bb.563:
	@DEBUG_VALUE: mbedtls_strerror:buf <- $r5
	@DEBUG_VALUE: mbedtls_strerror:buflen <- $r4
	.loc	1 0 13                          @ ../../../ThirdParty/mbedTLS/library/error.c:0:13
	ldr	r0, __arm_cp.0_587
	.loc	1 240 13                        @ ../../../ThirdParty/mbedTLS/library/error.c:240:13
	cmp	r7, r0
	bgt	.LBB0_584
.Ltmp424:
@ %bb.564:
	@DEBUG_VALUE: mbedtls_strerror:buf <- $r5
	@DEBUG_VALUE: mbedtls_strerror:buflen <- $r4
	.loc	1 0 13                          @ ../../../ThirdParty/mbedTLS/library/error.c:0:13
	ldr	r0, __arm_cp.0_588
	.loc	1 240 13                        @ ../../../ThirdParty/mbedTLS/library/error.c:240:13
	cmp	r7, r0
	ble	.LBB0_565
	b	.LBB0_648
.Ltmp425:
.LBB0_565:
	@DEBUG_VALUE: mbedtls_strerror:buf <- $r5
	@DEBUG_VALUE: mbedtls_strerror:buflen <- $r4
	.loc	1 0 13                          @ ../../../ThirdParty/mbedTLS/library/error.c:0:13
	movw	r0, #4224
	.loc	1 240 13                        @ ../../../ThirdParty/mbedTLS/library/error.c:240:13
	cmp	r7, r0
	bne	.LBB0_566
	bl	.LBB0_1356
.Ltmp426:
.LBB0_566:
	@DEBUG_VALUE: mbedtls_strerror:buf <- $r5
	@DEBUG_VALUE: mbedtls_strerror:buflen <- $r4
	.loc	1 0 13                          @ ../../../ThirdParty/mbedTLS/library/error.c:0:13
	movw	r0, #12416
	.loc	1 240 13                        @ ../../../ThirdParty/mbedTLS/library/error.c:240:13
	cmp	r7, r0
	bne	.LBB0_567
	bl	.LBB0_188
.Ltmp427:
.LBB0_567:
	bl	.LBB0_1357
.LBB0_568:
.Ltmp428:
	@DEBUG_VALUE: mbedtls_strerror:buf <- $r5
	@DEBUG_VALUE: mbedtls_strerror:buflen <- $r4
	.loc	1 0 13                          @ ../../../ThirdParty/mbedTLS/library/error.c:0:13
	ldr	r0, .LCPI0_580
	.loc	1 240 13                        @ ../../../ThirdParty/mbedTLS/library/error.c:240:13
	cmp	r7, r0
	bgt	.LBB0_579
.Ltmp429:
@ %bb.569:
	@DEBUG_VALUE: mbedtls_strerror:buf <- $r5
	@DEBUG_VALUE: mbedtls_strerror:buflen <- $r4
	.loc	1 0 13                          @ ../../../ThirdParty/mbedTLS/library/error.c:0:13
	ldr	r0, .LCPI0_589
	.loc	1 240 13                        @ ../../../ThirdParty/mbedTLS/library/error.c:240:13
	cmp	r7, r0
	bgt	.LBB0_588
.Ltmp430:
@ %bb.570:
	@DEBUG_VALUE: mbedtls_strerror:buf <- $r5
	@DEBUG_VALUE: mbedtls_strerror:buflen <- $r4
	.loc	1 0 13                          @ ../../../ThirdParty/mbedTLS/library/error.c:0:13
	ldr	r0, .LCPI0_590
	.loc	1 240 13                        @ ../../../ThirdParty/mbedTLS/library/error.c:240:13
	cmp	r7, r0
	ble	.LBB0_571
	b	.LBB0_651
.Ltmp431:
.LBB0_571:
	@DEBUG_VALUE: mbedtls_strerror:buf <- $r5
	@DEBUG_VALUE: mbedtls_strerror:buflen <- $r4
	.loc	1 0 13                          @ ../../../ThirdParty/mbedTLS/library/error.c:0:13
	movw	r0, #19712
	.loc	1 240 13                        @ ../../../ThirdParty/mbedTLS/library/error.c:240:13
	cmp	r7, r0
	bne	.LBB0_572
	bl	.LBB0_999
.Ltmp432:
.LBB0_572:
	@DEBUG_VALUE: mbedtls_strerror:buf <- $r5
	@DEBUG_VALUE: mbedtls_strerror:buflen <- $r4
	.loc	1 0 13                          @ ../../../ThirdParty/mbedTLS/library/error.c:0:13
	movw	r0, #19840
	.loc	1 240 13                        @ ../../../ThirdParty/mbedTLS/library/error.c:240:13
	cmp	r7, r0
	bne	.LBB0_573
	bl	.LBB0_956
.Ltmp433:
.LBB0_573:
	bl	.LBB0_1357
.LBB0_574:
.Ltmp434:
	@DEBUG_VALUE: mbedtls_strerror:buf <- $r5
	@DEBUG_VALUE: mbedtls_strerror:buflen <- $r4
	.loc	1 0 13                          @ ../../../ThirdParty/mbedTLS/library/error.c:0:13
	ldr	r0, .LCPI0_591
	.loc	1 240 13                        @ ../../../ThirdParty/mbedTLS/library/error.c:240:13
	cmp	r7, r0
	bgt	.LBB0_592
.Ltmp435:
@ %bb.575:
	@DEBUG_VALUE: mbedtls_strerror:buf <- $r5
	@DEBUG_VALUE: mbedtls_strerror:buflen <- $r4
	.loc	1 0 13                          @ ../../../ThirdParty/mbedTLS/library/error.c:0:13
	ldr	r0, .LCPI0_592
	.loc	1 240 13                        @ ../../../ThirdParty/mbedTLS/library/error.c:240:13
	cmp	r7, r0
	ble	.LBB0_576
	b	.LBB0_654
.Ltmp436:
.LBB0_576:
	@DEBUG_VALUE: mbedtls_strerror:buf <- $r5
	@DEBUG_VALUE: mbedtls_strerror:buflen <- $r4
	.loc	1 0 13                          @ ../../../ThirdParty/mbedTLS/library/error.c:0:13
	movw	r0, #13312
	.loc	1 240 13                        @ ../../../ThirdParty/mbedTLS/library/error.c:240:13
	cmp	r7, r0
	bne	.LBB0_577
	b	.LBB0_787
.Ltmp437:
.LBB0_577:
	@DEBUG_VALUE: mbedtls_strerror:buf <- $r5
	@DEBUG_VALUE: mbedtls_strerror:buflen <- $r4
	.loc	1 0 13                          @ ../../../ThirdParty/mbedTLS/library/error.c:0:13
	movw	r0, #13440
	.loc	1 240 13                        @ ../../../ThirdParty/mbedTLS/library/error.c:240:13
	cmp	r7, r0
	bne	.LBB0_578
	b	.LBB0_797
.Ltmp438:
.LBB0_578:
	bl	.LBB0_1357
.LBB0_579:
.Ltmp439:
	@DEBUG_VALUE: mbedtls_strerror:buf <- $r5
	@DEBUG_VALUE: mbedtls_strerror:buflen <- $r4
	ldr	r0, __arm_cp.0_593
	cmp	r7, r0
	bgt	.LBB0_596
.Ltmp440:
@ %bb.580:
	@DEBUG_VALUE: mbedtls_strerror:buf <- $r5
	@DEBUG_VALUE: mbedtls_strerror:buflen <- $r4
	.loc	1 0 13                          @ ../../../ThirdParty/mbedTLS/library/error.c:0:13
	ldr	r0, __arm_cp.0_594
	.loc	1 240 13                        @ ../../../ThirdParty/mbedTLS/library/error.c:240:13
	cmp	r7, r0
	ble	.LBB0_581
	b	.LBB0_657
.Ltmp441:
.LBB0_581:
	@DEBUG_VALUE: mbedtls_strerror:buf <- $r5
	@DEBUG_VALUE: mbedtls_strerror:buflen <- $r4
	.loc	1 0 13                          @ ../../../ThirdParty/mbedTLS/library/error.c:0:13
	movw	r0, #20864
	.loc	1 240 13                        @ ../../../ThirdParty/mbedTLS/library/error.c:240:13
	cmp	r7, r0
	bne	.LBB0_582
	bl	.LBB0_1289
.Ltmp442:
.LBB0_582:
	@DEBUG_VALUE: mbedtls_strerror:buf <- $r5
	@DEBUG_VALUE: mbedtls_strerror:buflen <- $r4
	.loc	1 0 13                          @ ../../../ThirdParty/mbedTLS/library/error.c:0:13
	movw	r0, #20992
	.loc	1 240 13                        @ ../../../ThirdParty/mbedTLS/library/error.c:240:13
	cmp	r7, r0
	bne	.LBB0_583
	bl	.LBB0_1342
.Ltmp443:
.LBB0_583:
	bl	.LBB0_1357
.LBB0_584:
.Ltmp444:
	@DEBUG_VALUE: mbedtls_strerror:buf <- $r5
	@DEBUG_VALUE: mbedtls_strerror:buflen <- $r4
	.loc	1 0 13                          @ ../../../ThirdParty/mbedTLS/library/error.c:0:13
	ldr	r0, __arm_cp.0_595
	.loc	1 240 13                        @ ../../../ThirdParty/mbedTLS/library/error.c:240:13
	cmp	r7, r0
	ble	.LBB0_585
	b	.LBB0_660
.Ltmp445:
.LBB0_585:
	@DEBUG_VALUE: mbedtls_strerror:buf <- $r5
	@DEBUG_VALUE: mbedtls_strerror:buflen <- $r4
	.loc	1 0 13                          @ ../../../ThirdParty/mbedTLS/library/error.c:0:13
	movw	r0, #12800
	.loc	1 240 13                        @ ../../../ThirdParty/mbedTLS/library/error.c:240:13
	cmp	r7, r0
	bne	.LBB0_586
	b	.LBB0_750
.Ltmp446:
.LBB0_586:
	@DEBUG_VALUE: mbedtls_strerror:buf <- $r5
	@DEBUG_VALUE: mbedtls_strerror:buflen <- $r4
	.loc	1 0 13                          @ ../../../ThirdParty/mbedTLS/library/error.c:0:13
	movw	r0, #12928
	.loc	1 240 13                        @ ../../../ThirdParty/mbedTLS/library/error.c:240:13
	cmp	r7, r0
	bne	.LBB0_587
	bl	.LBB0_104
.Ltmp447:
.LBB0_587:
	bl	.LBB0_1357
.LBB0_588:
.Ltmp448:
	@DEBUG_VALUE: mbedtls_strerror:buf <- $r5
	@DEBUG_VALUE: mbedtls_strerror:buflen <- $r4
	.loc	1 0 13                          @ ../../../ThirdParty/mbedTLS/library/error.c:0:13
	ldr	r0, .LCPI0_596
	.loc	1 240 13                        @ ../../../ThirdParty/mbedTLS/library/error.c:240:13
	cmp	r7, r0
	ble	.LBB0_589
	b	.LBB0_663
.Ltmp449:
.LBB0_589:
	@DEBUG_VALUE: mbedtls_strerror:buf <- $r5
	@DEBUG_VALUE: mbedtls_strerror:buflen <- $r4
	.loc	1 0 13                          @ ../../../ThirdParty/mbedTLS/library/error.c:0:13
	movw	r0, #20224
	.loc	1 240 13                        @ ../../../ThirdParty/mbedTLS/library/error.c:240:13
	cmp	r7, r0
	bne	.LBB0_590
	b	.LBB0_820
.Ltmp450:
.LBB0_590:
	@DEBUG_VALUE: mbedtls_strerror:buf <- $r5
	@DEBUG_VALUE: mbedtls_strerror:buflen <- $r4
	.loc	1 0 13                          @ ../../../ThirdParty/mbedTLS/library/error.c:0:13
	movw	r0, #20352
	.loc	1 240 13                        @ ../../../ThirdParty/mbedTLS/library/error.c:240:13
	cmp	r7, r0
	bne	.LBB0_591
	b	.LBB0_817
.Ltmp451:
.LBB0_591:
	bl	.LBB0_1357
.LBB0_592:
.Ltmp452:
	@DEBUG_VALUE: mbedtls_strerror:buf <- $r5
	@DEBUG_VALUE: mbedtls_strerror:buflen <- $r4
	.loc	1 0 13                          @ ../../../ThirdParty/mbedTLS/library/error.c:0:13
	ldr	r0, .LCPI0_597
	.loc	1 240 13                        @ ../../../ThirdParty/mbedTLS/library/error.c:240:13
	cmp	r7, r0
	ble	.LBB0_593
	b	.LBB0_691
.Ltmp453:
.LBB0_593:
	@DEBUG_VALUE: mbedtls_strerror:buf <- $r5
	@DEBUG_VALUE: mbedtls_strerror:buflen <- $r4
	.loc	1 0 13                          @ ../../../ThirdParty/mbedTLS/library/error.c:0:13
	movw	r0, #19200
	.loc	1 240 13                        @ ../../../ThirdParty/mbedTLS/library/error.c:240:13
	cmp	r7, r0
	bne	.LBB0_594
	bl	.LBB0_1202
.Ltmp454:
.LBB0_594:
	@DEBUG_VALUE: mbedtls_strerror:buf <- $r5
	@DEBUG_VALUE: mbedtls_strerror:buflen <- $r4
	.loc	1 0 13                          @ ../../../ThirdParty/mbedTLS/library/error.c:0:13
	movw	r0, #19328
	.loc	1 240 13                        @ ../../../ThirdParty/mbedTLS/library/error.c:240:13
	cmp	r7, r0
	bne	.LBB0_595
	bl	.LBB0_1177
.Ltmp455:
.LBB0_595:
	bl	.LBB0_1357
.LBB0_596:
.Ltmp456:
	@DEBUG_VALUE: mbedtls_strerror:buf <- $r5
	@DEBUG_VALUE: mbedtls_strerror:buflen <- $r4
	.loc	1 0 13                          @ ../../../ThirdParty/mbedTLS/library/error.c:0:13
	ldr	r0, __arm_cp.0_584
	.loc	1 240 13                        @ ../../../ThirdParty/mbedTLS/library/error.c:240:13
	cmp	r7, r0
	ble	.LBB0_597
	b	.LBB0_694
.Ltmp457:
.LBB0_597:
	@DEBUG_VALUE: mbedtls_strerror:buf <- $r5
	@DEBUG_VALUE: mbedtls_strerror:buflen <- $r4
	.loc	1 0 13                          @ ../../../ThirdParty/mbedTLS/library/error.c:0:13
	movw	r0, #25216
	.loc	1 240 13                        @ ../../../ThirdParty/mbedTLS/library/error.c:240:13
	cmp	r7, r0
	beq	.LBB0_604
.Ltmp458:
@ %bb.598:
	@DEBUG_VALUE: mbedtls_strerror:buf <- $r5
	@DEBUG_VALUE: mbedtls_strerror:buflen <- $r4
	.loc	1 0 13                          @ ../../../ThirdParty/mbedTLS/library/error.c:0:13
	movw	r0, #25344
	.loc	1 240 13                        @ ../../../ThirdParty/mbedTLS/library/error.c:240:13
	cmp	r7, r0
	bne	.LBB0_599
	bl	.LBB0_89
.Ltmp459:
.LBB0_599:
	bl	.LBB0_1357
	.p2align	2
@ %bb.600:
	.loc	1 0 13                          @ ../../../ThirdParty/mbedTLS/library/error.c:0:13
.LCPI0_1743:
	.long	4991                            @ 0x137f
	.p2align	2
@ %bb.601:
.LCPI0_1744:
	.long	15871                           @ 0x3dff
	.p2align	2
@ %bb.602:
.LCPI0_1745:
	.long	13183                           @ 0x337f
	.p2align	2
@ %bb.603:
.LCPI0_1746:
	.long	20863                           @ 0x517f
	.p2align	1
.LBB0_604:
.Ltmp460:
	@DEBUG_VALUE: mbedtls_strerror:buf <- $r5
	@DEBUG_VALUE: mbedtls_strerror:buflen <- $r4
	.loc	1 243 13 is_stmt 1              @ ../../../ThirdParty/mbedTLS/library/error.c:243:13
	ldr	r2, __arm_cp.0_598
	mov	r0, r5
	mov	r1, r4
	bl	__2snprintf
	ldr	r0, .LCPI0_599
.Ltmp461:
	.loc	1 244 13                        @ ../../../ThirdParty/mbedTLS/library/error.c:244:13
	cmp	r7, r0
	ble	.LBB0_611
.Ltmp462:
@ %bb.605:
	@DEBUG_VALUE: mbedtls_strerror:buf <- $r5
	@DEBUG_VALUE: mbedtls_strerror:buflen <- $r4
	cmp	r7, r6
	ble	.LBB0_617
.Ltmp463:
@ %bb.606:
	@DEBUG_VALUE: mbedtls_strerror:buf <- $r5
	@DEBUG_VALUE: mbedtls_strerror:buflen <- $r4
	.loc	1 0 13 is_stmt 0                @ ../../../ThirdParty/mbedTLS/library/error.c:0:13
	ldr	r0, __arm_cp.0_600
	.loc	1 244 13                        @ ../../../ThirdParty/mbedTLS/library/error.c:244:13
	cmp	r7, r0
	bgt	.LBB0_635
.Ltmp464:
@ %bb.607:
	@DEBUG_VALUE: mbedtls_strerror:buf <- $r5
	@DEBUG_VALUE: mbedtls_strerror:buflen <- $r4
	.loc	1 0 13                          @ ../../../ThirdParty/mbedTLS/library/error.c:0:13
	movw	r0, #20096
	.loc	1 244 13                        @ ../../../ThirdParty/mbedTLS/library/error.c:244:13
	cmp	r7, r0
	bne	.LBB0_608
	b	.LBB0_836
.Ltmp465:
.LBB0_608:
	@DEBUG_VALUE: mbedtls_strerror:buf <- $r5
	@DEBUG_VALUE: mbedtls_strerror:buflen <- $r4
	.loc	1 0 13                          @ ../../../ThirdParty/mbedTLS/library/error.c:0:13
	movw	r0, #20224
	.loc	1 244 13                        @ ../../../ThirdParty/mbedTLS/library/error.c:244:13
	cmp	r7, r0
	bne	.LBB0_609
	b	.LBB0_820
.Ltmp466:
.LBB0_609:
	@DEBUG_VALUE: mbedtls_strerror:buf <- $r5
	@DEBUG_VALUE: mbedtls_strerror:buflen <- $r4
	.loc	1 0 13                          @ ../../../ThirdParty/mbedTLS/library/error.c:0:13
	movw	r0, #20352
	.loc	1 244 13                        @ ../../../ThirdParty/mbedTLS/library/error.c:244:13
	cmp	r7, r0
	bne	.LBB0_610
	b	.LBB0_817
.Ltmp467:
.LBB0_610:
	bl	.LBB0_1083
.LBB0_611:
.Ltmp468:
	@DEBUG_VALUE: mbedtls_strerror:buf <- $r5
	@DEBUG_VALUE: mbedtls_strerror:buflen <- $r4
	.loc	1 0 13                          @ ../../../ThirdParty/mbedTLS/library/error.c:0:13
	ldr	r0, __arm_cp.0_595
	.loc	1 244 13                        @ ../../../ThirdParty/mbedTLS/library/error.c:244:13
	cmp	r7, r0
	bgt	.LBB0_630
.Ltmp469:
@ %bb.612:
	@DEBUG_VALUE: mbedtls_strerror:buf <- $r5
	@DEBUG_VALUE: mbedtls_strerror:buflen <- $r4
	.loc	1 0 13                          @ ../../../ThirdParty/mbedTLS/library/error.c:0:13
	ldr	r0, .LCPI0_601
	.loc	1 244 13                        @ ../../../ThirdParty/mbedTLS/library/error.c:244:13
	cmp	r7, r0
	ble	.LBB0_639
.Ltmp470:
@ %bb.613:
	@DEBUG_VALUE: mbedtls_strerror:buf <- $r5
	@DEBUG_VALUE: mbedtls_strerror:buflen <- $r4
	.loc	1 0 13                          @ ../../../ThirdParty/mbedTLS/library/error.c:0:13
	movw	r0, #12672
	.loc	1 244 13                        @ ../../../ThirdParty/mbedTLS/library/error.c:244:13
	cmp	r7, r0
	bne	.LBB0_614
	bl	.LBB0_21
.Ltmp471:
.LBB0_614:
	@DEBUG_VALUE: mbedtls_strerror:buf <- $r5
	@DEBUG_VALUE: mbedtls_strerror:buflen <- $r4
	.loc	1 0 13                          @ ../../../ThirdParty/mbedTLS/library/error.c:0:13
	movw	r0, #12800
	.loc	1 244 13                        @ ../../../ThirdParty/mbedTLS/library/error.c:244:13
	cmp	r7, r0
	bne	.LBB0_615
	b	.LBB0_750
.Ltmp472:
.LBB0_615:
	@DEBUG_VALUE: mbedtls_strerror:buf <- $r5
	@DEBUG_VALUE: mbedtls_strerror:buflen <- $r4
	.loc	1 0 13                          @ ../../../ThirdParty/mbedTLS/library/error.c:0:13
	movw	r0, #12928
	.loc	1 244 13                        @ ../../../ThirdParty/mbedTLS/library/error.c:244:13
	cmp	r7, r0
	bne	.LBB0_616
	bl	.LBB0_104
.Ltmp473:
.LBB0_616:
	bl	.LBB0_1083
.LBB0_617:
.Ltmp474:
	@DEBUG_VALUE: mbedtls_strerror:buf <- $r5
	@DEBUG_VALUE: mbedtls_strerror:buflen <- $r4
	.loc	1 0 13                          @ ../../../ThirdParty/mbedTLS/library/error.c:0:13
	ldr	r0, .LCPI0_582
	.loc	1 244 13                        @ ../../../ThirdParty/mbedTLS/library/error.c:244:13
	cmp	r7, r0
	ble	.LBB0_642
.Ltmp475:
@ %bb.618:
	@DEBUG_VALUE: mbedtls_strerror:buf <- $r5
	@DEBUG_VALUE: mbedtls_strerror:buflen <- $r4
	.loc	1 0 13                          @ ../../../ThirdParty/mbedTLS/library/error.c:0:13
	movw	r0, #19712
	.loc	1 244 13                        @ ../../../ThirdParty/mbedTLS/library/error.c:244:13
	cmp	r7, r0
	bne	.LBB0_619
	bl	.LBB0_999
.Ltmp476:
.LBB0_619:
	@DEBUG_VALUE: mbedtls_strerror:buf <- $r5
	@DEBUG_VALUE: mbedtls_strerror:buflen <- $r4
	.loc	1 0 13                          @ ../../../ThirdParty/mbedTLS/library/error.c:0:13
	movw	r0, #19840
	.loc	1 244 13                        @ ../../../ThirdParty/mbedTLS/library/error.c:244:13
	cmp	r7, r0
	bne	.LBB0_620
	bl	.LBB0_956
.Ltmp477:
.LBB0_620:
	@DEBUG_VALUE: mbedtls_strerror:buf <- $r5
	@DEBUG_VALUE: mbedtls_strerror:buflen <- $r4
	.loc	1 0 13                          @ ../../../ThirdParty/mbedTLS/library/error.c:0:13
	movw	r0, #19968
	.loc	1 244 13                        @ ../../../ThirdParty/mbedTLS/library/error.c:244:13
	cmp	r7, r0
	bne	.LBB0_621
	bl	.LBB0_916
.Ltmp478:
.LBB0_621:
	bl	.LBB0_1083
@ %bb.622:
@ %bb.623:
@ %bb.624:
@ %bb.625:
	.p2align	2
@ %bb.626:
	.loc	1 0 13                          @ ../../../ThirdParty/mbedTLS/library/error.c:0:13
.LCPI0_1438:
	.long	12031                           @ 0x2eff
	.p2align	2
@ %bb.627:
.LCPI0_1439:
	.long	19711                           @ 0x4cff
	.p2align	2
@ %bb.628:
.LCPI0_1440:
	.long	14847                           @ 0x39ff
	.p2align	2
@ %bb.629:
.LCPI0_1441:
	.long	25471                           @ 0x637f
	.p2align	1
.LBB0_630:
.Ltmp479:
	@DEBUG_VALUE: mbedtls_strerror:buf <- $r5
	@DEBUG_VALUE: mbedtls_strerror:buflen <- $r4
	ldr	r0, .LCPI0_586
	.loc	1 244 13                        @ ../../../ThirdParty/mbedTLS/library/error.c:244:13
	cmp	r7, r0
	ble	.LBB0_645
.Ltmp480:
@ %bb.631:
	@DEBUG_VALUE: mbedtls_strerror:buf <- $r5
	@DEBUG_VALUE: mbedtls_strerror:buflen <- $r4
	.loc	1 0 13                          @ ../../../ThirdParty/mbedTLS/library/error.c:0:13
	movw	r0, #13312
	.loc	1 244 13                        @ ../../../ThirdParty/mbedTLS/library/error.c:244:13
	cmp	r7, r0
	bne	.LBB0_632
	b	.LBB0_787
.Ltmp481:
.LBB0_632:
	@DEBUG_VALUE: mbedtls_strerror:buf <- $r5
	@DEBUG_VALUE: mbedtls_strerror:buflen <- $r4
	.loc	1 0 13                          @ ../../../ThirdParty/mbedTLS/library/error.c:0:13
	movw	r0, #13440
	.loc	1 244 13                        @ ../../../ThirdParty/mbedTLS/library/error.c:244:13
	cmp	r7, r0
	bne	.LBB0_633
	b	.LBB0_797
.Ltmp482:
.LBB0_633:
	@DEBUG_VALUE: mbedtls_strerror:buf <- $r5
	@DEBUG_VALUE: mbedtls_strerror:buflen <- $r4
	.loc	1 0 13                          @ ../../../ThirdParty/mbedTLS/library/error.c:0:13
	movw	r0, #13568
	.loc	1 244 13                        @ ../../../ThirdParty/mbedTLS/library/error.c:244:13
	cmp	r7, r0
	bne	.LBB0_634
	b	.LBB0_806
.Ltmp483:
.LBB0_634:
	bl	.LBB0_1083
.LBB0_635:
.Ltmp484:
	@DEBUG_VALUE: mbedtls_strerror:buf <- $r5
	@DEBUG_VALUE: mbedtls_strerror:buflen <- $r4
	.loc	1 0 13                          @ ../../../ThirdParty/mbedTLS/library/error.c:0:13
	movw	r0, #25600
	.loc	1 244 13                        @ ../../../ThirdParty/mbedTLS/library/error.c:244:13
	cmp	r7, r0
	bne	.LBB0_636
	bl	.LBB0_242
.Ltmp485:
.LBB0_636:
	@DEBUG_VALUE: mbedtls_strerror:buf <- $r5
	@DEBUG_VALUE: mbedtls_strerror:buflen <- $r4
	.loc	1 0 13                          @ ../../../ThirdParty/mbedTLS/library/error.c:0:13
	movw	r0, #25472
	.loc	1 244 13                        @ ../../../ThirdParty/mbedTLS/library/error.c:244:13
	cmp	r7, r0
	bne	.LBB0_637
	b	.LBB0_721
.Ltmp486:
.LBB0_637:
	@DEBUG_VALUE: mbedtls_strerror:buf <- $r5
	@DEBUG_VALUE: mbedtls_strerror:buflen <- $r4
	.loc	1 0 13                          @ ../../../ThirdParty/mbedTLS/library/error.c:0:13
	movw	r0, #25344
	.loc	1 244 13                        @ ../../../ThirdParty/mbedTLS/library/error.c:244:13
	cmp	r7, r0
	bne	.LBB0_638
	bl	.LBB0_89
.Ltmp487:
.LBB0_638:
	bl	.LBB0_1083
.LBB0_639:
.Ltmp488:
	@DEBUG_VALUE: mbedtls_strerror:buf <- $r5
	@DEBUG_VALUE: mbedtls_strerror:buflen <- $r4
	.loc	1 0 13                          @ ../../../ThirdParty/mbedTLS/library/error.c:0:13
	movw	r0, #12416
	.loc	1 244 13                        @ ../../../ThirdParty/mbedTLS/library/error.c:244:13
	cmp	r7, r0
	bne	.LBB0_640
	bl	.LBB0_188
.Ltmp489:
.LBB0_640:
	@DEBUG_VALUE: mbedtls_strerror:buf <- $r5
	@DEBUG_VALUE: mbedtls_strerror:buflen <- $r4
	.loc	1 0 13                          @ ../../../ThirdParty/mbedTLS/library/error.c:0:13
	movw	r0, #12544
	.loc	1 244 13                        @ ../../../ThirdParty/mbedTLS/library/error.c:244:13
	cmp	r7, r0
	bne	.LBB0_641
	b	.LBB0_726
.Ltmp490:
.LBB0_641:
	bl	.LBB0_1083
.LBB0_642:
.Ltmp491:
	@DEBUG_VALUE: mbedtls_strerror:buf <- $r5
	@DEBUG_VALUE: mbedtls_strerror:buflen <- $r4
	.loc	1 0 13                          @ ../../../ThirdParty/mbedTLS/library/error.c:0:13
	movw	r0, #13696
	.loc	1 244 13                        @ ../../../ThirdParty/mbedTLS/library/error.c:244:13
	cmp	r7, r0
	bne	.LBB0_643
	b	.LBB0_811
.Ltmp492:
.LBB0_643:
	@DEBUG_VALUE: mbedtls_strerror:buf <- $r5
	@DEBUG_VALUE: mbedtls_strerror:buflen <- $r4
	.loc	1 0 13                          @ ../../../ThirdParty/mbedTLS/library/error.c:0:13
	movw	r0, #19584
	.loc	1 244 13                        @ ../../../ThirdParty/mbedTLS/library/error.c:244:13
	cmp	r7, r0
	bne	.LBB0_644
	bl	.LBB0_1082
.Ltmp493:
.LBB0_644:
	bl	.LBB0_1083
.LBB0_645:
.Ltmp494:
	@DEBUG_VALUE: mbedtls_strerror:buf <- $r5
	@DEBUG_VALUE: mbedtls_strerror:buflen <- $r4
	.loc	1 0 13                          @ ../../../ThirdParty/mbedTLS/library/error.c:0:13
	movw	r0, #13056
	.loc	1 244 13                        @ ../../../ThirdParty/mbedTLS/library/error.c:244:13
	cmp	r7, r0
	bne	.LBB0_646
	b	.LBB0_762
.Ltmp495:
.LBB0_646:
	@DEBUG_VALUE: mbedtls_strerror:buf <- $r5
	@DEBUG_VALUE: mbedtls_strerror:buflen <- $r4
	.loc	1 0 13                          @ ../../../ThirdParty/mbedTLS/library/error.c:0:13
	movw	r0, #13184
	.loc	1 244 13                        @ ../../../ThirdParty/mbedTLS/library/error.c:244:13
	cmp	r7, r0
	bne	.LBB0_647
	b	.LBB0_783
.Ltmp496:
.LBB0_647:
	bl	.LBB0_1083
.LBB0_648:
.Ltmp497:
	@DEBUG_VALUE: mbedtls_strerror:buf <- $r5
	@DEBUG_VALUE: mbedtls_strerror:buflen <- $r4
	.loc	1 0 13                          @ ../../../ThirdParty/mbedTLS/library/error.c:0:13
	movw	r0, #12544
	.loc	1 240 13 is_stmt 1              @ ../../../ThirdParty/mbedTLS/library/error.c:240:13
	cmp	r7, r0
	bne	.LBB0_649
	b	.LBB0_726
.Ltmp498:
.LBB0_649:
	@DEBUG_VALUE: mbedtls_strerror:buf <- $r5
	@DEBUG_VALUE: mbedtls_strerror:buflen <- $r4
	.loc	1 0 13 is_stmt 0                @ ../../../ThirdParty/mbedTLS/library/error.c:0:13
	movw	r0, #12672
	.loc	1 240 13                        @ ../../../ThirdParty/mbedTLS/library/error.c:240:13
	cmp	r7, r0
	bne	.LBB0_650
	bl	.LBB0_21
.Ltmp499:
.LBB0_650:
	bl	.LBB0_1357
.LBB0_651:
.Ltmp500:
	@DEBUG_VALUE: mbedtls_strerror:buf <- $r5
	@DEBUG_VALUE: mbedtls_strerror:buflen <- $r4
	.loc	1 0 13                          @ ../../../ThirdParty/mbedTLS/library/error.c:0:13
	movw	r0, #19968
	.loc	1 240 13                        @ ../../../ThirdParty/mbedTLS/library/error.c:240:13
	cmp	r7, r0
	bne	.LBB0_652
	bl	.LBB0_916
.Ltmp501:
.LBB0_652:
	@DEBUG_VALUE: mbedtls_strerror:buf <- $r5
	@DEBUG_VALUE: mbedtls_strerror:buflen <- $r4
	.loc	1 0 13                          @ ../../../ThirdParty/mbedTLS/library/error.c:0:13
	movw	r0, #20096
	.loc	1 240 13                        @ ../../../ThirdParty/mbedTLS/library/error.c:240:13
	cmp	r7, r0
	bne	.LBB0_653
	b	.LBB0_836
.Ltmp502:
.LBB0_653:
	bl	.LBB0_1357
.LBB0_654:
.Ltmp503:
	@DEBUG_VALUE: mbedtls_strerror:buf <- $r5
	@DEBUG_VALUE: mbedtls_strerror:buflen <- $r4
	.loc	1 0 13                          @ ../../../ThirdParty/mbedTLS/library/error.c:0:13
	movw	r0, #13568
	.loc	1 240 13                        @ ../../../ThirdParty/mbedTLS/library/error.c:240:13
	cmp	r7, r0
	bne	.LBB0_655
	b	.LBB0_806
.Ltmp504:
.LBB0_655:
	@DEBUG_VALUE: mbedtls_strerror:buf <- $r5
	@DEBUG_VALUE: mbedtls_strerror:buflen <- $r4
	.loc	1 0 13                          @ ../../../ThirdParty/mbedTLS/library/error.c:0:13
	movw	r0, #13696
	.loc	1 240 13                        @ ../../../ThirdParty/mbedTLS/library/error.c:240:13
	cmp	r7, r0
	bne	.LBB0_656
	b	.LBB0_811
.Ltmp505:
.LBB0_656:
	bl	.LBB0_1357
.LBB0_657:
.Ltmp506:
	@DEBUG_VALUE: mbedtls_strerror:buf <- $r5
	@DEBUG_VALUE: mbedtls_strerror:buflen <- $r4
	.loc	1 0 13                          @ ../../../ThirdParty/mbedTLS/library/error.c:0:13
	movw	r0, #21120
	.loc	1 240 13                        @ ../../../ThirdParty/mbedTLS/library/error.c:240:13
	cmp	r7, r0
	bne	.LBB0_658
	bl	.LBB0_1353
.Ltmp507:
.LBB0_658:
	@DEBUG_VALUE: mbedtls_strerror:buf <- $r5
	@DEBUG_VALUE: mbedtls_strerror:buflen <- $r4
	.loc	1 0 13                          @ ../../../ThirdParty/mbedTLS/library/error.c:0:13
	movw	r0, #25088
	.loc	1 240 13                        @ ../../../ThirdParty/mbedTLS/library/error.c:240:13
	cmp	r7, r0
	bne	.LBB0_659
	bl	.LBB0_167
.Ltmp508:
.LBB0_659:
	bl	.LBB0_1357
.LBB0_660:
.Ltmp509:
	@DEBUG_VALUE: mbedtls_strerror:buf <- $r5
	@DEBUG_VALUE: mbedtls_strerror:buflen <- $r4
	.loc	1 0 13                          @ ../../../ThirdParty/mbedTLS/library/error.c:0:13
	movw	r0, #13056
	.loc	1 240 13                        @ ../../../ThirdParty/mbedTLS/library/error.c:240:13
	cmp	r7, r0
	bne	.LBB0_661
	b	.LBB0_762
.Ltmp510:
.LBB0_661:
	@DEBUG_VALUE: mbedtls_strerror:buf <- $r5
	@DEBUG_VALUE: mbedtls_strerror:buflen <- $r4
	.loc	1 0 13                          @ ../../../ThirdParty/mbedTLS/library/error.c:0:13
	movw	r0, #13184
	.loc	1 240 13                        @ ../../../ThirdParty/mbedTLS/library/error.c:240:13
	cmp	r7, r0
	bne	.LBB0_662
	b	.LBB0_783
.Ltmp511:
.LBB0_662:
	bl	.LBB0_1357
.LBB0_663:
.Ltmp512:
	@DEBUG_VALUE: mbedtls_strerror:buf <- $r5
	@DEBUG_VALUE: mbedtls_strerror:buflen <- $r4
	.loc	1 0 13                          @ ../../../ThirdParty/mbedTLS/library/error.c:0:13
	movw	r0, #20608
	.loc	1 240 13                        @ ../../../ThirdParty/mbedTLS/library/error.c:240:13
	cmp	r7, r0
	bne	.LBB0_664
	bl	.LBB0_1231
.Ltmp513:
.LBB0_664:
	@DEBUG_VALUE: mbedtls_strerror:buf <- $r5
	@DEBUG_VALUE: mbedtls_strerror:buflen <- $r4
	.loc	1 0 13                          @ ../../../ThirdParty/mbedTLS/library/error.c:0:13
	movw	r0, #20736
	.loc	1 240 13                        @ ../../../ThirdParty/mbedTLS/library/error.c:240:13
	cmp	r7, r0
	bne	.LBB0_665
	bl	.LBB0_1249
.Ltmp514:
.LBB0_665:
	bl	.LBB0_1357
@ %bb.666:
@ %bb.667:
@ %bb.668:
	.p2align	2
@ %bb.669:
	.loc	1 0 13                          @ ../../../ThirdParty/mbedTLS/library/error.c:0:13
.LCPI0_580:
	.long	20863                           @ 0x517f
@ %bb.670:
	.p2align	2
@ %bb.671:
.LCPI0_582:
	.long	19711                           @ 0x4cff
@ %bb.672:
	.p2align	2
@ %bb.673:
__arm_cp.0_584:
	.long	25471                           @ 0x637f
.Lcpi_end11:
	.size	__arm_cp.0_584, .Lcpi_end11-__arm_cp.0_584
	.p2align	2
@ %bb.674:
.LCPI0_585:
.L.str.2:
	.asciz	"CIPHER - Failed to allocate memory\000"
	.p2align	2
@ %bb.675:
.LCPI0_586:
	.long	13311                           @ 0x33ff
	.p2align	2
@ %bb.676:
__arm_cp.0_587:
	.long	12799                           @ 0x31ff
.Lcpi_end12:
	.size	__arm_cp.0_587, .Lcpi_end12-__arm_cp.0_587
	.p2align	2
@ %bb.677:
__arm_cp.0_588:
	.long	12543                           @ 0x30ff
.Lcpi_end13:
	.size	__arm_cp.0_588, .Lcpi_end13-__arm_cp.0_588
	.p2align	2
@ %bb.678:
.LCPI0_589:
	.long	20223                           @ 0x4eff
	.p2align	2
@ %bb.679:
.LCPI0_590:
	.long	19967                           @ 0x4dff
	.p2align	2
@ %bb.680:
.LCPI0_591:
	.long	19199                           @ 0x4aff
	.p2align	2
@ %bb.681:
.LCPI0_592:
	.long	13567                           @ 0x34ff
	.p2align	2
@ %bb.682:
__arm_cp.0_593:
	.long	25215                           @ 0x627f
.Lcpi_end14:
	.size	__arm_cp.0_593, .Lcpi_end14-__arm_cp.0_593
	.p2align	2
@ %bb.683:
__arm_cp.0_594:
	.long	21119                           @ 0x527f
.Lcpi_end15:
	.size	__arm_cp.0_594, .Lcpi_end15-__arm_cp.0_594
	.p2align	2
@ %bb.684:
__arm_cp.0_595:
	.long	13055                           @ 0x32ff
.Lcpi_end16:
	.size	__arm_cp.0_595, .Lcpi_end16-__arm_cp.0_595
	.p2align	2
@ %bb.685:
.LCPI0_596:
	.long	20607                           @ 0x507f
	.p2align	2
@ %bb.686:
.LCPI0_597:
	.long	19455                           @ 0x4bff
	.p2align	2
@ %bb.687:
__arm_cp.0_598:
	.long	.L.str.4
.Lcpi_end17:
	.size	__arm_cp.0_598, .Lcpi_end17-__arm_cp.0_598
	.p2align	2
@ %bb.688:
.LCPI0_599:
	.long	13695                           @ 0x357f
	.p2align	2
@ %bb.689:
__arm_cp.0_600:
	.long	25343                           @ 0x62ff
.Lcpi_end18:
	.size	__arm_cp.0_600, .Lcpi_end18-__arm_cp.0_600
	.p2align	2
@ %bb.690:
.LCPI0_601:
	.long	12671                           @ 0x317f
	.p2align	1
.LBB0_691:
.Ltmp515:
	@DEBUG_VALUE: mbedtls_strerror:buf <- $r5
	@DEBUG_VALUE: mbedtls_strerror:buflen <- $r4
	movw	r0, #19456
	.loc	1 240 13                        @ ../../../ThirdParty/mbedTLS/library/error.c:240:13
	cmp	r7, r0
	bne	.LBB0_692
	bl	.LBB0_1172
.Ltmp516:
.LBB0_692:
	@DEBUG_VALUE: mbedtls_strerror:buf <- $r5
	@DEBUG_VALUE: mbedtls_strerror:buflen <- $r4
	.loc	1 0 13                          @ ../../../ThirdParty/mbedTLS/library/error.c:0:13
	movw	r0, #19584
	.loc	1 240 13                        @ ../../../ThirdParty/mbedTLS/library/error.c:240:13
	cmp	r7, r0
	bne	.LBB0_693
	bl	.LBB0_1082
.Ltmp517:
.LBB0_693:
	bl	.LBB0_1357
.LBB0_694:
.Ltmp518:
	@DEBUG_VALUE: mbedtls_strerror:buf <- $r5
	@DEBUG_VALUE: mbedtls_strerror:buflen <- $r4
	.loc	1 0 13                          @ ../../../ThirdParty/mbedTLS/library/error.c:0:13
	movw	r0, #25472
	.loc	1 240 13                        @ ../../../ThirdParty/mbedTLS/library/error.c:240:13
	cmp	r7, r0
	beq	.LBB0_721
.Ltmp519:
@ %bb.695:
	@DEBUG_VALUE: mbedtls_strerror:buf <- $r5
	@DEBUG_VALUE: mbedtls_strerror:buflen <- $r4
	.loc	1 0 13                          @ ../../../ThirdParty/mbedTLS/library/error.c:0:13
	movw	r0, #25600
	.loc	1 240 13                        @ ../../../ThirdParty/mbedTLS/library/error.c:240:13
	cmp	r7, r0
	bne	.LBB0_696
	bl	.LBB0_242
.Ltmp520:
.LBB0_696:
	bl	.LBB0_1357
.LBB0_697:
.Ltmp521:
	@DEBUG_VALUE: mbedtls_strerror:buf <- $r5
	@DEBUG_VALUE: mbedtls_strerror:buflen <- $r4
	.loc	1 0 13                          @ ../../../ThirdParty/mbedTLS/library/error.c:0:13
	movw	r0, #4992
	.loc	1 236 13 is_stmt 1              @ ../../../ThirdParty/mbedTLS/library/error.c:236:13
	cmp	r7, r0
	bne	.LBB0_698
	bl	.LBB0_1637
.Ltmp522:
.LBB0_698:
	@DEBUG_VALUE: mbedtls_strerror:buf <- $r5
	@DEBUG_VALUE: mbedtls_strerror:buflen <- $r4
	.loc	1 0 13 is_stmt 0                @ ../../../ThirdParty/mbedTLS/library/error.c:0:13
	movw	r0, #5120
	.loc	1 236 13                        @ ../../../ThirdParty/mbedTLS/library/error.c:236:13
	cmp	r7, r0
	bne	.LBB0_699
	bl	.LBB0_1813
.Ltmp523:
.LBB0_699:
	bl	.LBB0_2889
.LBB0_700:
.Ltmp524:
	@DEBUG_VALUE: mbedtls_strerror:buf <- $r5
	@DEBUG_VALUE: mbedtls_strerror:buflen <- $r4
	.loc	1 0 13                          @ ../../../ThirdParty/mbedTLS/library/error.c:0:13
	movw	r0, #15872
	.loc	1 236 13                        @ ../../../ThirdParty/mbedTLS/library/error.c:236:13
	cmp	r7, r0
	bne	.LBB0_701
	bl	.LBB0_1934
.Ltmp525:
.LBB0_701:
	@DEBUG_VALUE: mbedtls_strerror:buf <- $r5
	@DEBUG_VALUE: mbedtls_strerror:buflen <- $r4
	.loc	1 0 13                          @ ../../../ThirdParty/mbedTLS/library/error.c:0:13
	movw	r0, #16000
	.loc	1 236 13                        @ ../../../ThirdParty/mbedTLS/library/error.c:236:13
	cmp	r7, r0
	bne	.LBB0_702
	bl	.LBB0_1923
.Ltmp526:
.LBB0_702:
	bl	.LBB0_2889
.LBB0_703:
.Ltmp527:
	@DEBUG_VALUE: mbedtls_strerror:buf <- $r5
	@DEBUG_VALUE: mbedtls_strerror:buflen <- $r4
	.loc	1 0 13                          @ ../../../ThirdParty/mbedTLS/library/error.c:0:13
	movw	r0, #13184
	.loc	1 236 13                        @ ../../../ThirdParty/mbedTLS/library/error.c:236:13
	cmp	r7, r0
	bne	.LBB0_704
	b	.LBB0_783
.Ltmp528:
.LBB0_704:
	@DEBUG_VALUE: mbedtls_strerror:buf <- $r5
	@DEBUG_VALUE: mbedtls_strerror:buflen <- $r4
	.loc	1 0 13                          @ ../../../ThirdParty/mbedTLS/library/error.c:0:13
	movw	r0, #13312
	.loc	1 236 13                        @ ../../../ThirdParty/mbedTLS/library/error.c:236:13
	cmp	r7, r0
	bne	.LBB0_705
	b	.LBB0_787
.Ltmp529:
.LBB0_705:
	bl	.LBB0_2889
.LBB0_706:
.Ltmp530:
	@DEBUG_VALUE: mbedtls_strerror:buf <- $r5
	@DEBUG_VALUE: mbedtls_strerror:buflen <- $r4
	.loc	1 0 13                          @ ../../../ThirdParty/mbedTLS/library/error.c:0:13
	movw	r0, #20864
	.loc	1 236 13                        @ ../../../ThirdParty/mbedTLS/library/error.c:236:13
	cmp	r7, r0
	bne	.LBB0_707
	bl	.LBB0_1289
.Ltmp531:
.LBB0_707:
	@DEBUG_VALUE: mbedtls_strerror:buf <- $r5
	@DEBUG_VALUE: mbedtls_strerror:buflen <- $r4
	.loc	1 0 13                          @ ../../../ThirdParty/mbedTLS/library/error.c:0:13
	movw	r0, #20992
	.loc	1 236 13                        @ ../../../ThirdParty/mbedTLS/library/error.c:236:13
	cmp	r7, r0
	bne	.LBB0_708
	bl	.LBB0_1342
.Ltmp532:
.LBB0_708:
	bl	.LBB0_2889
.LBB0_709:
.Ltmp533:
	@DEBUG_VALUE: mbedtls_strerror:buf <- $r5
	@DEBUG_VALUE: mbedtls_strerror:buflen <- $r4
	.loc	1 0 13                          @ ../../../ThirdParty/mbedTLS/library/error.c:0:13
	movw	r0, #12032
	.loc	1 236 13                        @ ../../../ThirdParty/mbedTLS/library/error.c:236:13
	cmp	r7, r0
	bne	.LBB0_710
	bl	.LBB0_3047
.Ltmp534:
.LBB0_710:
	@DEBUG_VALUE: mbedtls_strerror:buf <- $r5
	@DEBUG_VALUE: mbedtls_strerror:buflen <- $r4
	.loc	1 0 13                          @ ../../../ThirdParty/mbedTLS/library/error.c:0:13
	movw	r0, #12160
	.loc	1 236 13                        @ ../../../ThirdParty/mbedTLS/library/error.c:236:13
	cmp	r7, r0
	bne	.LBB0_711
	bl	.LBB0_2870
.Ltmp535:
.LBB0_711:
	bl	.LBB0_2889
.LBB0_712:
.Ltmp536:
	@DEBUG_VALUE: mbedtls_strerror:buf <- $r5
	@DEBUG_VALUE: mbedtls_strerror:buflen <- $r4
	.loc	1 0 13                          @ ../../../ThirdParty/mbedTLS/library/error.c:0:13
	movw	r0, #19712
	.loc	1 236 13                        @ ../../../ThirdParty/mbedTLS/library/error.c:236:13
	cmp	r7, r0
	bne	.LBB0_713
	bl	.LBB0_999
.Ltmp537:
.LBB0_713:
	@DEBUG_VALUE: mbedtls_strerror:buf <- $r5
	@DEBUG_VALUE: mbedtls_strerror:buflen <- $r4
	.loc	1 0 13                          @ ../../../ThirdParty/mbedTLS/library/error.c:0:13
	movw	r0, #19840
	.loc	1 236 13                        @ ../../../ThirdParty/mbedTLS/library/error.c:236:13
	cmp	r7, r0
	bne	.LBB0_714
	b	.LBB0_956
.Ltmp538:
.LBB0_714:
	bl	.LBB0_2889
.LBB0_715:
.Ltmp539:
	@DEBUG_VALUE: mbedtls_strerror:buf <- $r5
	@DEBUG_VALUE: mbedtls_strerror:buflen <- $r4
	.loc	1 0 13                          @ ../../../ThirdParty/mbedTLS/library/error.c:0:13
	movw	r0, #14848
	.loc	1 236 13                        @ ../../../ThirdParty/mbedTLS/library/error.c:236:13
	cmp	r7, r0
	bne	.LBB0_716
	bl	.LBB0_1953
.Ltmp540:
.LBB0_716:
	@DEBUG_VALUE: mbedtls_strerror:buf <- $r5
	@DEBUG_VALUE: mbedtls_strerror:buflen <- $r4
	.loc	1 0 13                          @ ../../../ThirdParty/mbedTLS/library/error.c:0:13
	movw	r0, #14976
	.loc	1 236 13                        @ ../../../ThirdParty/mbedTLS/library/error.c:236:13
	cmp	r7, r0
	bne	.LBB0_717
	bl	.LBB0_1929
.Ltmp541:
.LBB0_717:
	bl	.LBB0_2889
.LBB0_718:
.Ltmp542:
	@DEBUG_VALUE: mbedtls_strerror:buf <- $r5
	@DEBUG_VALUE: mbedtls_strerror:buflen <- $r4
	.loc	1 0 13                          @ ../../../ThirdParty/mbedTLS/library/error.c:0:13
	movw	r0, #25472
	.loc	1 236 13                        @ ../../../ThirdParty/mbedTLS/library/error.c:236:13
	cmp	r7, r0
	beq	.LBB0_721
.Ltmp543:
@ %bb.719:
	@DEBUG_VALUE: mbedtls_strerror:buf <- $r5
	@DEBUG_VALUE: mbedtls_strerror:buflen <- $r4
	.loc	1 0 13                          @ ../../../ThirdParty/mbedTLS/library/error.c:0:13
	movw	r0, #25600
	.loc	1 236 13                        @ ../../../ThirdParty/mbedTLS/library/error.c:236:13
	cmp	r7, r0
	bne	.LBB0_720
	bl	.LBB0_242
.Ltmp544:
.LBB0_720:
	bl	.LBB0_2889
.LBB0_721:
.Ltmp545:
	@DEBUG_VALUE: mbedtls_strerror:buf <- $r5
	@DEBUG_VALUE: mbedtls_strerror:buflen <- $r4
	.loc	1 247 13 is_stmt 1              @ ../../../ThirdParty/mbedTLS/library/error.c:247:13
	ldr	r2, __arm_cp.0_1442
	mov	r0, r5
	mov	r1, r4
	bl	__2snprintf
	ldr	r0, .LCPI0_1443
.Ltmp546:
	.loc	1 248 13                        @ ../../../ThirdParty/mbedTLS/library/error.c:248:13
	cmp	r7, r0
	bgt	.LBB0_734
.Ltmp547:
@ %bb.722:
	@DEBUG_VALUE: mbedtls_strerror:buf <- $r5
	@DEBUG_VALUE: mbedtls_strerror:buflen <- $r4
	.loc	1 0 13 is_stmt 0                @ ../../../ThirdParty/mbedTLS/library/error.c:0:13
	ldr	r0, __arm_cp.0_1444
	.loc	1 248 13                        @ ../../../ThirdParty/mbedTLS/library/error.c:248:13
	cmp	r7, r0
	bgt	.LBB0_741
.Ltmp548:
@ %bb.723:
	@DEBUG_VALUE: mbedtls_strerror:buf <- $r5
	@DEBUG_VALUE: mbedtls_strerror:buflen <- $r4
	.loc	1 0 13                          @ ../../../ThirdParty/mbedTLS/library/error.c:0:13
	ldr	r0, __arm_cp.0_1445
	.loc	1 248 13                        @ ../../../ThirdParty/mbedTLS/library/error.c:248:13
	cmp	r7, r0
	bgt	.LBB0_748
.Ltmp549:
@ %bb.724:
	@DEBUG_VALUE: mbedtls_strerror:buf <- $r5
	@DEBUG_VALUE: mbedtls_strerror:buflen <- $r4
	.loc	1 0 13                          @ ../../../ThirdParty/mbedTLS/library/error.c:0:13
	movw	r0, #12416
	.loc	1 248 13                        @ ../../../ThirdParty/mbedTLS/library/error.c:248:13
	cmp	r7, r0
	bne	.LBB0_725
	bl	.LBB0_188
.Ltmp550:
.LBB0_725:
	@DEBUG_VALUE: mbedtls_strerror:buf <- $r5
	@DEBUG_VALUE: mbedtls_strerror:buflen <- $r4
	.loc	1 0 13                          @ ../../../ThirdParty/mbedTLS/library/error.c:0:13
	movw	r0, #12544
	.loc	1 248 13                        @ ../../../ThirdParty/mbedTLS/library/error.c:248:13
	cmp	r7, r0
	beq	.LBB0_726
	b	.LBB0_917
.Ltmp551:
.LBB0_726:
	@DEBUG_VALUE: mbedtls_strerror:buf <- $r5
	@DEBUG_VALUE: mbedtls_strerror:buflen <- $r4
	.loc	1 256 13 is_stmt 1              @ ../../../ThirdParty/mbedTLS/library/error.c:256:13
	ldr	r2, __arm_cp.0_1446
	mov	r0, r5
	mov	r1, r4
	bl	__2snprintf
	ldr	r0, __arm_cp.0_1447
.Ltmp552:
	.loc	1 257 13                        @ ../../../ThirdParty/mbedTLS/library/error.c:257:13
	cmp	r7, r0
	ble	.LBB0_729
.Ltmp553:
.LBB0_727:
	@DEBUG_VALUE: mbedtls_strerror:buf <- $r5
	@DEBUG_VALUE: mbedtls_strerror:buflen <- $r4
	.loc	1 0 13 is_stmt 0                @ ../../../ThirdParty/mbedTLS/library/error.c:0:13
	ldr	r0, .LCPI0_1448
	cmp	r7, r0
	bgt	.LBB0_752
.Ltmp554:
@ %bb.728:
	@DEBUG_VALUE: mbedtls_strerror:buf <- $r5
	@DEBUG_VALUE: mbedtls_strerror:buflen <- $r4
	movw	r0, #13312
	cmp	r7, r0
	bne	.LBB0_756
	b	.LBB0_787
.Ltmp555:
.LBB0_729:
	@DEBUG_VALUE: mbedtls_strerror:buf <- $r5
	@DEBUG_VALUE: mbedtls_strerror:buflen <- $r4
	ldr	r0, __arm_cp.0_1444
	.loc	1 257 13                        @ ../../../ThirdParty/mbedTLS/library/error.c:257:13
	cmp	r7, r0
	ble	.LBB0_739
.Ltmp556:
.LBB0_730:
	@DEBUG_VALUE: mbedtls_strerror:buf <- $r5
	@DEBUG_VALUE: mbedtls_strerror:buflen <- $r4
	.loc	1 0 13                          @ ../../../ThirdParty/mbedTLS/library/error.c:0:13
	movw	r0, #12928
	cmp	r7, r0
	bne	.LBB0_731
	bl	.LBB0_104
.Ltmp557:
.LBB0_731:
	@DEBUG_VALUE: mbedtls_strerror:buf <- $r5
	@DEBUG_VALUE: mbedtls_strerror:buflen <- $r4
	movw	r0, #13056
	cmp	r7, r0
	beq	.LBB0_762
.Ltmp558:
@ %bb.732:
	@DEBUG_VALUE: mbedtls_strerror:buf <- $r5
	@DEBUG_VALUE: mbedtls_strerror:buflen <- $r4
	movw	r0, #13184
	cmp	r7, r0
	bne	.LBB0_733
	b	.LBB0_783
.Ltmp559:
.LBB0_733:
	b	.LBB0_821
.LBB0_734:
.Ltmp560:
	@DEBUG_VALUE: mbedtls_strerror:buf <- $r5
	@DEBUG_VALUE: mbedtls_strerror:buflen <- $r4
	.loc	1 248 13 is_stmt 1              @ ../../../ThirdParty/mbedTLS/library/error.c:248:13
	cmp	r7, r6
	bgt	.LBB0_744
.Ltmp561:
@ %bb.735:
	@DEBUG_VALUE: mbedtls_strerror:buf <- $r5
	@DEBUG_VALUE: mbedtls_strerror:buflen <- $r4
	.loc	1 0 13 is_stmt 0                @ ../../../ThirdParty/mbedTLS/library/error.c:0:13
	ldr	r0, .LCPI0_1448
	.loc	1 248 13                        @ ../../../ThirdParty/mbedTLS/library/error.c:248:13
	cmp	r7, r0
	ble	.LBB0_736
	b	.LBB0_778
.Ltmp562:
.LBB0_736:
	@DEBUG_VALUE: mbedtls_strerror:buf <- $r5
	@DEBUG_VALUE: mbedtls_strerror:buflen <- $r4
	.loc	1 0 13                          @ ../../../ThirdParty/mbedTLS/library/error.c:0:13
	movw	r0, #13440
	.loc	1 248 13                        @ ../../../ThirdParty/mbedTLS/library/error.c:248:13
	cmp	r7, r0
	bne	.LBB0_737
	b	.LBB0_797
.Ltmp563:
.LBB0_737:
	@DEBUG_VALUE: mbedtls_strerror:buf <- $r5
	@DEBUG_VALUE: mbedtls_strerror:buflen <- $r4
	.loc	1 0 13                          @ ../../../ThirdParty/mbedTLS/library/error.c:0:13
	movw	r0, #13568
	.loc	1 248 13                        @ ../../../ThirdParty/mbedTLS/library/error.c:248:13
	cmp	r7, r0
	bne	.LBB0_738
	b	.LBB0_806
.Ltmp564:
.LBB0_738:
	b	.LBB0_917
.LBB0_739:
.Ltmp565:
	@DEBUG_VALUE: mbedtls_strerror:buf <- $r5
	@DEBUG_VALUE: mbedtls_strerror:buflen <- $r4
	.loc	1 0 13                          @ ../../../ThirdParty/mbedTLS/library/error.c:0:13
	movw	r0, #12672
	cmp	r7, r0
	bne	.LBB0_740
	bl	.LBB0_21
.Ltmp566:
.LBB0_740:
	@DEBUG_VALUE: mbedtls_strerror:buf <- $r5
	@DEBUG_VALUE: mbedtls_strerror:buflen <- $r4
	movw	r0, #12800
	cmp	r7, r0
	beq	.LBB0_750
	b	.LBB0_821
.Ltmp567:
.LBB0_741:
	@DEBUG_VALUE: mbedtls_strerror:buf <- $r5
	@DEBUG_VALUE: mbedtls_strerror:buflen <- $r4
	ldr	r0, .LCPI0_1747
	.loc	1 248 13                        @ ../../../ThirdParty/mbedTLS/library/error.c:248:13
	cmp	r7, r0
	ble	.LBB0_742
	b	.LBB0_781
.Ltmp568:
.LBB0_742:
	@DEBUG_VALUE: mbedtls_strerror:buf <- $r5
	@DEBUG_VALUE: mbedtls_strerror:buflen <- $r4
	.loc	1 0 13                          @ ../../../ThirdParty/mbedTLS/library/error.c:0:13
	movw	r0, #12928
	.loc	1 248 13                        @ ../../../ThirdParty/mbedTLS/library/error.c:248:13
	cmp	r7, r0
	bne	.LBB0_743
	bl	.LBB0_104
.Ltmp569:
.LBB0_743:
	@DEBUG_VALUE: mbedtls_strerror:buf <- $r5
	@DEBUG_VALUE: mbedtls_strerror:buflen <- $r4
	.loc	1 0 13                          @ ../../../ThirdParty/mbedTLS/library/error.c:0:13
	movw	r0, #13056
	.loc	1 248 13                        @ ../../../ThirdParty/mbedTLS/library/error.c:248:13
	cmp	r7, r0
	beq	.LBB0_762
	b	.LBB0_917
.Ltmp570:
.LBB0_744:
	@DEBUG_VALUE: mbedtls_strerror:buf <- $r5
	@DEBUG_VALUE: mbedtls_strerror:buflen <- $r4
	.loc	1 0 13                          @ ../../../ThirdParty/mbedTLS/library/error.c:0:13
	ldr	r0, __arm_cp.0_610
	.loc	1 248 13                        @ ../../../ThirdParty/mbedTLS/library/error.c:248:13
	cmp	r7, r0
	ble	.LBB0_745
	bl	.LBB0_1487
.Ltmp571:
.LBB0_745:
	@DEBUG_VALUE: mbedtls_strerror:buf <- $r5
	@DEBUG_VALUE: mbedtls_strerror:buflen <- $r4
	.loc	1 0 13                          @ ../../../ThirdParty/mbedTLS/library/error.c:0:13
	movw	r0, #20096
	.loc	1 248 13                        @ ../../../ThirdParty/mbedTLS/library/error.c:248:13
	cmp	r7, r0
	bne	.LBB0_746
	b	.LBB0_836
.Ltmp572:
.LBB0_746:
	@DEBUG_VALUE: mbedtls_strerror:buf <- $r5
	@DEBUG_VALUE: mbedtls_strerror:buflen <- $r4
	.loc	1 0 13                          @ ../../../ThirdParty/mbedTLS/library/error.c:0:13
	movw	r0, #20224
	.loc	1 248 13                        @ ../../../ThirdParty/mbedTLS/library/error.c:248:13
	cmp	r7, r0
	bne	.LBB0_747
	b	.LBB0_820
.Ltmp573:
.LBB0_747:
	b	.LBB0_917
.LBB0_748:
.Ltmp574:
	@DEBUG_VALUE: mbedtls_strerror:buf <- $r5
	@DEBUG_VALUE: mbedtls_strerror:buflen <- $r4
	.loc	1 0 13                          @ ../../../ThirdParty/mbedTLS/library/error.c:0:13
	movw	r0, #12672
	.loc	1 248 13                        @ ../../../ThirdParty/mbedTLS/library/error.c:248:13
	cmp	r7, r0
	bne	.LBB0_749
	bl	.LBB0_21
.Ltmp575:
.LBB0_749:
	@DEBUG_VALUE: mbedtls_strerror:buf <- $r5
	@DEBUG_VALUE: mbedtls_strerror:buflen <- $r4
	.loc	1 0 13                          @ ../../../ThirdParty/mbedTLS/library/error.c:0:13
	movw	r0, #12800
	.loc	1 248 13                        @ ../../../ThirdParty/mbedTLS/library/error.c:248:13
	cmp	r7, r0
	beq	.LBB0_750
	b	.LBB0_917
.Ltmp576:
.LBB0_750:
	@DEBUG_VALUE: mbedtls_strerror:buf <- $r5
	@DEBUG_VALUE: mbedtls_strerror:buflen <- $r4
	.loc	1 260 13 is_stmt 1              @ ../../../ThirdParty/mbedTLS/library/error.c:260:13
	ldr	r2, __arm_cp.0_611
	mov	r0, r5
	mov	r1, r4
	bl	__2snprintf
	ldr	r0, __arm_cp.0_603
.Ltmp577:
	.loc	1 261 13                        @ ../../../ThirdParty/mbedTLS/library/error.c:261:13
	cmp	r7, r0
	ble	.LBB0_759
.Ltmp578:
.LBB0_751:
	@DEBUG_VALUE: mbedtls_strerror:buf <- $r5
	@DEBUG_VALUE: mbedtls_strerror:buflen <- $r4
	.loc	1 0 13 is_stmt 0                @ ../../../ThirdParty/mbedTLS/library/error.c:0:13
	ldr	r0, __arm_cp.0_608
	cmp	r7, r0
	ble	.LBB0_756
.Ltmp579:
.LBB0_752:
	@DEBUG_VALUE: mbedtls_strerror:buf <- $r5
	@DEBUG_VALUE: mbedtls_strerror:buflen <- $r4
	movw	r0, #13696
	cmp	r7, r0
	bne	.LBB0_753
	b	.LBB0_811
.Ltmp580:
.LBB0_753:
	@DEBUG_VALUE: mbedtls_strerror:buf <- $r5
	@DEBUG_VALUE: mbedtls_strerror:buflen <- $r4
	movw	r0, #20224
	cmp	r7, r0
	bne	.LBB0_754
	b	.LBB0_820
.Ltmp581:
.LBB0_754:
	@DEBUG_VALUE: mbedtls_strerror:buf <- $r5
	@DEBUG_VALUE: mbedtls_strerror:buflen <- $r4
	movw	r0, #20352
	cmp	r7, r0
	bne	.LBB0_755
	b	.LBB0_817
.Ltmp582:
.LBB0_755:
	b	.LBB0_821
.LBB0_756:
.Ltmp583:
	@DEBUG_VALUE: mbedtls_strerror:buf <- $r5
	@DEBUG_VALUE: mbedtls_strerror:buflen <- $r4
	movw	r0, #13440
	cmp	r7, r0
	bne	.LBB0_757
	b	.LBB0_797
.Ltmp584:
.LBB0_757:
	@DEBUG_VALUE: mbedtls_strerror:buf <- $r5
	@DEBUG_VALUE: mbedtls_strerror:buflen <- $r4
	movw	r0, #13568
	cmp	r7, r0
	bne	.LBB0_758
	b	.LBB0_806
.Ltmp585:
.LBB0_758:
	b	.LBB0_821
.LBB0_759:
.Ltmp586:
	@DEBUG_VALUE: mbedtls_strerror:buf <- $r5
	@DEBUG_VALUE: mbedtls_strerror:buflen <- $r4
	ldr	r0, __arm_cp.0_609
	.loc	1 261 13                        @ ../../../ThirdParty/mbedTLS/library/error.c:261:13
	cmp	r7, r0
	bgt	.LBB0_776
.Ltmp587:
@ %bb.760:
	@DEBUG_VALUE: mbedtls_strerror:buf <- $r5
	@DEBUG_VALUE: mbedtls_strerror:buflen <- $r4
	.loc	1 0 13                          @ ../../../ThirdParty/mbedTLS/library/error.c:0:13
	movw	r0, #12928
	.loc	1 261 13                        @ ../../../ThirdParty/mbedTLS/library/error.c:261:13
	cmp	r7, r0
	bne	.LBB0_761
	bl	.LBB0_104
.Ltmp588:
.LBB0_761:
	@DEBUG_VALUE: mbedtls_strerror:buf <- $r5
	@DEBUG_VALUE: mbedtls_strerror:buflen <- $r4
	.loc	1 0 13                          @ ../../../ThirdParty/mbedTLS/library/error.c:0:13
	movw	r0, #13056
	.loc	1 261 13                        @ ../../../ThirdParty/mbedTLS/library/error.c:261:13
	cmp	r7, r0
	beq	.LBB0_762
	b	.LBB0_821
.Ltmp589:
.LBB0_762:
	@DEBUG_VALUE: mbedtls_strerror:buf <- $r5
	@DEBUG_VALUE: mbedtls_strerror:buflen <- $r4
	.loc	1 264 13 is_stmt 1              @ ../../../ThirdParty/mbedTLS/library/error.c:264:13
	ldr	r2, __arm_cp.0_612
	mov	r0, r5
	mov	r1, r4
	bl	__2snprintf
	ldr	r0, __arm_cp.0_608
.Ltmp590:
	.loc	1 265 13                        @ ../../../ThirdParty/mbedTLS/library/error.c:265:13
	cmp	r7, r0
	bgt	.LBB0_766
.Ltmp591:
@ %bb.763:
	@DEBUG_VALUE: mbedtls_strerror:buf <- $r5
	@DEBUG_VALUE: mbedtls_strerror:buflen <- $r4
	.loc	1 0 13 is_stmt 0                @ ../../../ThirdParty/mbedTLS/library/error.c:0:13
	ldr	r0, __arm_cp.0_603
	.loc	1 265 13                        @ ../../../ThirdParty/mbedTLS/library/error.c:265:13
	cmp	r7, r0
	bgt	.LBB0_773
.Ltmp592:
@ %bb.764:
	@DEBUG_VALUE: mbedtls_strerror:buf <- $r5
	@DEBUG_VALUE: mbedtls_strerror:buflen <- $r4
	.loc	1 0 13                          @ ../../../ThirdParty/mbedTLS/library/error.c:0:13
	movw	r0, #13184
	.loc	1 265 13                        @ ../../../ThirdParty/mbedTLS/library/error.c:265:13
	cmp	r7, r0
	beq	.LBB0_783
.Ltmp593:
@ %bb.765:
	@DEBUG_VALUE: mbedtls_strerror:buf <- $r5
	@DEBUG_VALUE: mbedtls_strerror:buflen <- $r4
	.loc	1 0 13                          @ ../../../ThirdParty/mbedTLS/library/error.c:0:13
	movw	r0, #13312
	.loc	1 265 13                        @ ../../../ThirdParty/mbedTLS/library/error.c:265:13
	cmp	r7, r0
	beq	.LBB0_787
	b	.LBB0_837
.Ltmp594:
.LBB0_766:
	@DEBUG_VALUE: mbedtls_strerror:buf <- $r5
	@DEBUG_VALUE: mbedtls_strerror:buflen <- $r4
	.loc	1 0 13                          @ ../../../ThirdParty/mbedTLS/library/error.c:0:13
	ldr	r0, __arm_cp.0_613
	cmp	r7, r0
	bgt	.LBB0_770
.Ltmp595:
@ %bb.767:
	@DEBUG_VALUE: mbedtls_strerror:buf <- $r5
	@DEBUG_VALUE: mbedtls_strerror:buflen <- $r4
	movw	r0, #13696
	cmp	r7, r0
	bne	.LBB0_768
	b	.LBB0_811
.Ltmp596:
.LBB0_768:
	@DEBUG_VALUE: mbedtls_strerror:buf <- $r5
	@DEBUG_VALUE: mbedtls_strerror:buflen <- $r4
	movw	r0, #20096
	cmp	r7, r0
	bne	.LBB0_769
	b	.LBB0_836
.Ltmp597:
.LBB0_769:
	b	.LBB0_837
.LBB0_770:
.Ltmp598:
	@DEBUG_VALUE: mbedtls_strerror:buf <- $r5
	@DEBUG_VALUE: mbedtls_strerror:buflen <- $r4
	movw	r0, #20224
	cmp	r7, r0
	bne	.LBB0_771
	b	.LBB0_820
.Ltmp599:
.LBB0_771:
	@DEBUG_VALUE: mbedtls_strerror:buf <- $r5
	@DEBUG_VALUE: mbedtls_strerror:buflen <- $r4
	movw	r0, #20352
	cmp	r7, r0
	bne	.LBB0_772
	b	.LBB0_817
.Ltmp600:
.LBB0_772:
	b	.LBB0_837
.LBB0_773:
.Ltmp601:
	@DEBUG_VALUE: mbedtls_strerror:buf <- $r5
	@DEBUG_VALUE: mbedtls_strerror:buflen <- $r4
	movw	r0, #13440
	cmp	r7, r0
	beq	.LBB0_797
.Ltmp602:
@ %bb.774:
	@DEBUG_VALUE: mbedtls_strerror:buf <- $r5
	@DEBUG_VALUE: mbedtls_strerror:buflen <- $r4
	movw	r0, #13568
	cmp	r7, r0
	bne	.LBB0_775
	b	.LBB0_806
.Ltmp603:
.LBB0_775:
	b	.LBB0_837
.LBB0_776:
.Ltmp604:
	@DEBUG_VALUE: mbedtls_strerror:buf <- $r5
	@DEBUG_VALUE: mbedtls_strerror:buflen <- $r4
	movw	r0, #13184
	cmp	r7, r0
	beq	.LBB0_783
.Ltmp605:
@ %bb.777:
	@DEBUG_VALUE: mbedtls_strerror:buf <- $r5
	@DEBUG_VALUE: mbedtls_strerror:buflen <- $r4
	movw	r0, #13312
	cmp	r7, r0
	beq	.LBB0_787
	b	.LBB0_821
.Ltmp606:
.LBB0_778:
	@DEBUG_VALUE: mbedtls_strerror:buf <- $r5
	@DEBUG_VALUE: mbedtls_strerror:buflen <- $r4
	movw	r0, #13696
	.loc	1 248 13 is_stmt 1              @ ../../../ThirdParty/mbedTLS/library/error.c:248:13
	cmp	r7, r0
	bne	.LBB0_779
	b	.LBB0_811
.Ltmp607:
.LBB0_779:
	@DEBUG_VALUE: mbedtls_strerror:buf <- $r5
	@DEBUG_VALUE: mbedtls_strerror:buflen <- $r4
	.loc	1 0 13 is_stmt 0                @ ../../../ThirdParty/mbedTLS/library/error.c:0:13
	movw	r0, #19968
	.loc	1 248 13                        @ ../../../ThirdParty/mbedTLS/library/error.c:248:13
	cmp	r7, r0
	bne	.LBB0_780
	b	.LBB0_916
.Ltmp608:
.LBB0_780:
	b	.LBB0_917
.LBB0_781:
.Ltmp609:
	@DEBUG_VALUE: mbedtls_strerror:buf <- $r5
	@DEBUG_VALUE: mbedtls_strerror:buflen <- $r4
	.loc	1 0 13                          @ ../../../ThirdParty/mbedTLS/library/error.c:0:13
	movw	r0, #13184
	.loc	1 248 13                        @ ../../../ThirdParty/mbedTLS/library/error.c:248:13
	cmp	r7, r0
	beq	.LBB0_783
.Ltmp610:
@ %bb.782:
	@DEBUG_VALUE: mbedtls_strerror:buf <- $r5
	@DEBUG_VALUE: mbedtls_strerror:buflen <- $r4
	.loc	1 0 13                          @ ../../../ThirdParty/mbedTLS/library/error.c:0:13
	movw	r0, #13312
	.loc	1 248 13                        @ ../../../ThirdParty/mbedTLS/library/error.c:248:13
	cmp	r7, r0
	beq	.LBB0_787
	b	.LBB0_917
.Ltmp611:
.LBB0_783:
	@DEBUG_VALUE: mbedtls_strerror:buf <- $r5
	@DEBUG_VALUE: mbedtls_strerror:buflen <- $r4
	.loc	1 266 13 is_stmt 1              @ ../../../ThirdParty/mbedTLS/library/error.c:266:13
	ldr	r2, __arm_cp.0_614
	mov	r0, r5
	mov	r1, r4
	bl	__2snprintf
	ldr	r0, __arm_cp.0_615
.Ltmp612:
	.loc	1 267 13                        @ ../../../ThirdParty/mbedTLS/library/error.c:267:13
	cmp	r7, r0
	bgt	.LBB0_788
.Ltmp613:
@ %bb.784:
	@DEBUG_VALUE: mbedtls_strerror:buf <- $r5
	@DEBUG_VALUE: mbedtls_strerror:buflen <- $r4
	.loc	1 0 13 is_stmt 0                @ ../../../ThirdParty/mbedTLS/library/error.c:0:13
	ldr	r0, __arm_cp.0_616
	.loc	1 267 13                        @ ../../../ThirdParty/mbedTLS/library/error.c:267:13
	cmp	r7, r0
	bgt	.LBB0_795
.Ltmp614:
@ %bb.785:
	@DEBUG_VALUE: mbedtls_strerror:buf <- $r5
	@DEBUG_VALUE: mbedtls_strerror:buflen <- $r4
	.loc	1 0 13                          @ ../../../ThirdParty/mbedTLS/library/error.c:0:13
	movw	r0, #13312
	.loc	1 267 13                        @ ../../../ThirdParty/mbedTLS/library/error.c:267:13
	cmp	r7, r0
	beq	.LBB0_787
.Ltmp615:
@ %bb.786:
	@DEBUG_VALUE: mbedtls_strerror:buf <- $r5
	@DEBUG_VALUE: mbedtls_strerror:buflen <- $r4
	.loc	1 0 13                          @ ../../../ThirdParty/mbedTLS/library/error.c:0:13
	movw	r0, #13440
	.loc	1 267 13                        @ ../../../ThirdParty/mbedTLS/library/error.c:267:13
	cmp	r7, r0
	beq	.LBB0_797
	b	.LBB0_917
.Ltmp616:
.LBB0_787:
	@DEBUG_VALUE: mbedtls_strerror:buf <- $r5
	@DEBUG_VALUE: mbedtls_strerror:buflen <- $r4
	.loc	1 268 13 is_stmt 1              @ ../../../ThirdParty/mbedTLS/library/error.c:268:13
	ldr	r2, __arm_cp.0_617
	mov	r0, r5
	mov	r1, r4
	bl	__2snprintf
	ldr	r0, __arm_cp.0_615
.Ltmp617:
	.loc	1 269 13                        @ ../../../ThirdParty/mbedTLS/library/error.c:269:13
	cmp	r7, r0
	ble	.LBB0_794
.Ltmp618:
.LBB0_788:
	@DEBUG_VALUE: mbedtls_strerror:buf <- $r5
	@DEBUG_VALUE: mbedtls_strerror:buflen <- $r4
	.loc	1 0 13 is_stmt 0                @ ../../../ThirdParty/mbedTLS/library/error.c:0:13
	ldr	r0, __arm_cp.0_613
	cmp	r7, r0
	bgt	.LBB0_792
.Ltmp619:
@ %bb.789:
	@DEBUG_VALUE: mbedtls_strerror:buf <- $r5
	@DEBUG_VALUE: mbedtls_strerror:buflen <- $r4
	movw	r0, #19968
	cmp	r7, r0
	bne	.LBB0_790
	b	.LBB0_916
.Ltmp620:
.LBB0_790:
	@DEBUG_VALUE: mbedtls_strerror:buf <- $r5
	@DEBUG_VALUE: mbedtls_strerror:buflen <- $r4
	movw	r0, #20096
	cmp	r7, r0
	bne	.LBB0_791
	b	.LBB0_836
.Ltmp621:
.LBB0_791:
	b	.LBB0_917
.LBB0_792:
.Ltmp622:
	@DEBUG_VALUE: mbedtls_strerror:buf <- $r5
	@DEBUG_VALUE: mbedtls_strerror:buflen <- $r4
	movw	r0, #20224
	cmp	r7, r0
	bne	.LBB0_793
	b	.LBB0_820
.Ltmp623:
.LBB0_793:
	@DEBUG_VALUE: mbedtls_strerror:buf <- $r5
	@DEBUG_VALUE: mbedtls_strerror:buflen <- $r4
	movw	r0, #20352
	cmp	r7, r0
	beq	.LBB0_817
	b	.LBB0_917
.Ltmp624:
.LBB0_794:
	@DEBUG_VALUE: mbedtls_strerror:buf <- $r5
	@DEBUG_VALUE: mbedtls_strerror:buflen <- $r4
	movw	r0, #13440
	.loc	1 269 13                        @ ../../../ThirdParty/mbedTLS/library/error.c:269:13
	cmp	r7, r0
	beq	.LBB0_797
.Ltmp625:
.LBB0_795:
	@DEBUG_VALUE: mbedtls_strerror:buf <- $r5
	@DEBUG_VALUE: mbedtls_strerror:buflen <- $r4
	.loc	1 0 13                          @ ../../../ThirdParty/mbedTLS/library/error.c:0:13
	movw	r0, #13568
	cmp	r7, r0
	beq	.LBB0_806
.Ltmp626:
@ %bb.796:
	@DEBUG_VALUE: mbedtls_strerror:buf <- $r5
	@DEBUG_VALUE: mbedtls_strerror:buflen <- $r4
	movw	r0, #13696
	cmp	r7, r0
	beq	.LBB0_811
	b	.LBB0_917
.Ltmp627:
.LBB0_797:
	@DEBUG_VALUE: mbedtls_strerror:buf <- $r5
	@DEBUG_VALUE: mbedtls_strerror:buflen <- $r4
	.loc	1 270 13 is_stmt 1              @ ../../../ThirdParty/mbedTLS/library/error.c:270:13
	ldr	r2, __arm_cp.0_618
	mov	r0, r5
	mov	r1, r4
	bl	__2snprintf
	ldr	r0, __arm_cp.0_615
.Ltmp628:
	.loc	1 271 13                        @ ../../../ThirdParty/mbedTLS/library/error.c:271:13
	cmp	r7, r0
	ble	.LBB0_802
.Ltmp629:
@ %bb.798:
	@DEBUG_VALUE: mbedtls_strerror:buf <- $r5
	@DEBUG_VALUE: mbedtls_strerror:buflen <- $r4
	.loc	1 0 13 is_stmt 0                @ ../../../ThirdParty/mbedTLS/library/error.c:0:13
	ldr	r0, __arm_cp.0_613
	.loc	1 271 13                        @ ../../../ThirdParty/mbedTLS/library/error.c:271:13
	cmp	r7, r0
	bgt	.LBB0_815
.Ltmp630:
@ %bb.799:
	@DEBUG_VALUE: mbedtls_strerror:buf <- $r5
	@DEBUG_VALUE: mbedtls_strerror:buflen <- $r4
	.loc	1 0 13                          @ ../../../ThirdParty/mbedTLS/library/error.c:0:13
	movw	r0, #19968
	.loc	1 271 13                        @ ../../../ThirdParty/mbedTLS/library/error.c:271:13
	cmp	r7, r0
	bne	.LBB0_800
	b	.LBB0_916
.Ltmp631:
.LBB0_800:
	@DEBUG_VALUE: mbedtls_strerror:buf <- $r5
	@DEBUG_VALUE: mbedtls_strerror:buflen <- $r4
	.loc	1 0 13                          @ ../../../ThirdParty/mbedTLS/library/error.c:0:13
	movw	r0, #20096
	.loc	1 271 13                        @ ../../../ThirdParty/mbedTLS/library/error.c:271:13
	cmp	r7, r0
	bne	.LBB0_801
	b	.LBB0_836
.Ltmp632:
.LBB0_801:
	b	.LBB0_957
.LBB0_802:
.Ltmp633:
	@DEBUG_VALUE: mbedtls_strerror:buf <- $r5
	@DEBUG_VALUE: mbedtls_strerror:buflen <- $r4
	.loc	1 0 13                          @ ../../../ThirdParty/mbedTLS/library/error.c:0:13
	movw	r0, #13568
	.loc	1 271 13                        @ ../../../ThirdParty/mbedTLS/library/error.c:271:13
	cmp	r7, r0
	beq	.LBB0_806
.Ltmp634:
@ %bb.803:
	@DEBUG_VALUE: mbedtls_strerror:buf <- $r5
	@DEBUG_VALUE: mbedtls_strerror:buflen <- $r4
	.loc	1 0 13                          @ ../../../ThirdParty/mbedTLS/library/error.c:0:13
	movw	r0, #13696
	.loc	1 271 13                        @ ../../../ThirdParty/mbedTLS/library/error.c:271:13
	cmp	r7, r0
	beq	.LBB0_811
.Ltmp635:
@ %bb.804:
	@DEBUG_VALUE: mbedtls_strerror:buf <- $r5
	@DEBUG_VALUE: mbedtls_strerror:buflen <- $r4
	.loc	1 0 13                          @ ../../../ThirdParty/mbedTLS/library/error.c:0:13
	movw	r0, #19840
	.loc	1 271 13                        @ ../../../ThirdParty/mbedTLS/library/error.c:271:13
	cmp	r7, r0
	bne	.LBB0_805
	b	.LBB0_956
.Ltmp636:
.LBB0_805:
	b	.LBB0_957
.LBB0_806:
.Ltmp637:
	@DEBUG_VALUE: mbedtls_strerror:buf <- $r5
	@DEBUG_VALUE: mbedtls_strerror:buflen <- $r4
	.loc	1 272 13 is_stmt 1              @ ../../../ThirdParty/mbedTLS/library/error.c:272:13
	ldr	r2, __arm_cp.0_619
	mov	r0, r5
	mov	r1, r4
	bl	__2snprintf
	ldr	r0, __arm_cp.0_620
.Ltmp638:
	.loc	1 273 13                        @ ../../../ThirdParty/mbedTLS/library/error.c:273:13
	cmp	r7, r0
	bgt	.LBB0_814
.Ltmp639:
@ %bb.807:
	@DEBUG_VALUE: mbedtls_strerror:buf <- $r5
	@DEBUG_VALUE: mbedtls_strerror:buflen <- $r4
	.loc	1 0 13 is_stmt 0                @ ../../../ThirdParty/mbedTLS/library/error.c:0:13
	movw	r0, #13696
	.loc	1 273 13                        @ ../../../ThirdParty/mbedTLS/library/error.c:273:13
	cmp	r7, r0
	beq	.LBB0_811
.Ltmp640:
.LBB0_808:
	@DEBUG_VALUE: mbedtls_strerror:buf <- $r5
	@DEBUG_VALUE: mbedtls_strerror:buflen <- $r4
	.loc	1 0 13                          @ ../../../ThirdParty/mbedTLS/library/error.c:0:13
	movw	r0, #19840
	cmp	r7, r0
	bne	.LBB0_809
	b	.LBB0_956
.Ltmp641:
.LBB0_809:
	@DEBUG_VALUE: mbedtls_strerror:buf <- $r5
	@DEBUG_VALUE: mbedtls_strerror:buflen <- $r4
	movw	r0, #19968
	cmp	r7, r0
	bne	.LBB0_810
	b	.LBB0_916
.Ltmp642:
.LBB0_810:
	b	.LBB0_957
.LBB0_811:
.Ltmp643:
	@DEBUG_VALUE: mbedtls_strerror:buf <- $r5
	@DEBUG_VALUE: mbedtls_strerror:buflen <- $r4
	.loc	1 274 13 is_stmt 1              @ ../../../ThirdParty/mbedTLS/library/error.c:274:13
	ldr	r2, __arm_cp.0_621
	mov	r0, r5
	mov	r1, r4
	bl	__2snprintf
.Ltmp644:
	.loc	1 278 13                        @ ../../../ThirdParty/mbedTLS/library/error.c:278:13
	movw	r0, #19712
	subs	r0, r7, r0
	lsrs	r0, r0, #7
	cmp	r0, #5
	bls	.LBB0_812
	b	.LBB0_1000
.Ltmp645:
.LBB0_812:
	@DEBUG_VALUE: mbedtls_strerror:buf <- $r5
	@DEBUG_VALUE: mbedtls_strerror:buflen <- $r4
	.loc	1 0 13 is_stmt 0                @ ../../../ThirdParty/mbedTLS/library/error.c:0:13
	lsls	r1, r0, #2
	adr	r2, .LJTI0_0
	adds	r1, r2, r1
	mov	pc, r1
.Ltmp646:
@ %bb.813:
	.p2align	2
.LJTI0_0:
	b.w	.LBB0_999
	b.w	.LBB0_956
	b.w	.LBB0_916
	b.w	.LBB0_836
	b.w	.LBB0_820
	b.w	.LBB0_817
.LBB0_814:
.Ltmp647:
	@DEBUG_VALUE: mbedtls_strerror:buf <- $r5
	@DEBUG_VALUE: mbedtls_strerror:buflen <- $r4
	movw	r0, #20096
	.loc	1 273 13 is_stmt 1              @ ../../../ThirdParty/mbedTLS/library/error.c:273:13
	cmp	r7, r0
	beq	.LBB0_836
.Ltmp648:
.LBB0_815:
	@DEBUG_VALUE: mbedtls_strerror:buf <- $r5
	@DEBUG_VALUE: mbedtls_strerror:buflen <- $r4
	.loc	1 0 13 is_stmt 0                @ ../../../ThirdParty/mbedTLS/library/error.c:0:13
	movw	r0, #20224
	cmp	r7, r0
	beq	.LBB0_820
.Ltmp649:
@ %bb.816:
	@DEBUG_VALUE: mbedtls_strerror:buf <- $r5
	@DEBUG_VALUE: mbedtls_strerror:buflen <- $r4
	movw	r0, #20352
	cmp	r7, r0
	beq	.LBB0_817
	b	.LBB0_957
.Ltmp650:
.LBB0_817:
	@DEBUG_VALUE: mbedtls_strerror:buf <- $r5
	@DEBUG_VALUE: mbedtls_strerror:buflen <- $r4
	.loc	1 279 13 is_stmt 1              @ ../../../ThirdParty/mbedTLS/library/error.c:279:13
	ldr	r2, __arm_cp.0_622
	mov	r0, r5
	mov	r1, r4
	bl	__2snprintf
.Ltmp651:
	.loc	1 280 13                        @ ../../../ThirdParty/mbedTLS/library/error.c:280:13
	movw	r0, #19712
	subs	r0, r7, r0
	adds	r0, #128
	lsrs	r0, r0, #7
	cmp	r0, #5
	bls	.LBB0_818
	b	.LBB0_1083
.Ltmp652:
.LBB0_818:
	@DEBUG_VALUE: mbedtls_strerror:buf <- $r5
	@DEBUG_VALUE: mbedtls_strerror:buflen <- $r4
	.loc	1 0 13 is_stmt 0                @ ../../../ThirdParty/mbedTLS/library/error.c:0:13
	lsls	r1, r0, #2
	adr	r2, .LJTI0_1
	adds	r1, r2, r1
	mov	pc, r1
.Ltmp653:
@ %bb.819:
	.p2align	2
.LJTI0_1:
	b.w	.LBB0_1082
	b.w	.LBB0_999
	b.w	.LBB0_956
	b.w	.LBB0_916
	b.w	.LBB0_836
	b.w	.LBB0_820
.LBB0_820:
.Ltmp654:
	@DEBUG_VALUE: mbedtls_strerror:buf <- $r5
	@DEBUG_VALUE: mbedtls_strerror:buflen <- $r4
	.loc	1 281 13 is_stmt 1              @ ../../../ThirdParty/mbedTLS/library/error.c:281:13
	ldr	r2, __arm_cp.0_623
	mov	r0, r5
	mov	r1, r4
	bl	__2snprintf
.Ltmp655:
.LBB0_821:
	@DEBUG_VALUE: mbedtls_strerror:buf <- $r5
	@DEBUG_VALUE: mbedtls_strerror:buflen <- $r4
	.loc	1 0 13 is_stmt 0                @ ../../../ThirdParty/mbedTLS/library/error.c:0:13
	ldr	r0, .LCPI0_624
	.loc	1 282 13 is_stmt 1              @ ../../../ThirdParty/mbedTLS/library/error.c:282:13
	cmp	r7, r0
	ble	.LBB0_844
.Ltmp656:
@ %bb.822:
	@DEBUG_VALUE: mbedtls_strerror:buf <- $r5
	@DEBUG_VALUE: mbedtls_strerror:buflen <- $r4
	.loc	1 0 13 is_stmt 0                @ ../../../ThirdParty/mbedTLS/library/error.c:0:13
	ldr	r0, __arm_cp.0_620
	.loc	1 282 13                        @ ../../../ThirdParty/mbedTLS/library/error.c:282:13
	cmp	r7, r0
	bgt	.LBB0_823
	b	.LBB0_889
.Ltmp657:
.LBB0_823:
	@DEBUG_VALUE: mbedtls_strerror:buf <- $r5
	@DEBUG_VALUE: mbedtls_strerror:buflen <- $r4
	.loc	1 0 13                          @ ../../../ThirdParty/mbedTLS/library/error.c:0:13
	ldr	r0, .LCPI0_625
	.loc	1 282 13                        @ ../../../ThirdParty/mbedTLS/library/error.c:282:13
	cmp	r7, r0
	ble	.LBB0_824
	b	.LBB0_908
.Ltmp658:
.LBB0_824:
	@DEBUG_VALUE: mbedtls_strerror:buf <- $r5
	@DEBUG_VALUE: mbedtls_strerror:buflen <- $r4
	.loc	1 0 13                          @ ../../../ThirdParty/mbedTLS/library/error.c:0:13
	movw	r0, #20096
	.loc	1 282 13                        @ ../../../ThirdParty/mbedTLS/library/error.c:282:13
	cmp	r7, r0
	beq	.LBB0_836
.Ltmp659:
@ %bb.825:
	@DEBUG_VALUE: mbedtls_strerror:buf <- $r5
	@DEBUG_VALUE: mbedtls_strerror:buflen <- $r4
	.loc	1 0 13                          @ ../../../ThirdParty/mbedTLS/library/error.c:0:13
	movw	r0, #20608
	.loc	1 282 13                        @ ../../../ThirdParty/mbedTLS/library/error.c:282:13
	cmp	r7, r0
	bne	.LBB0_826
	bl	.LBB0_1231
.Ltmp660:
.LBB0_826:
	@DEBUG_VALUE: mbedtls_strerror:buf <- $r5
	@DEBUG_VALUE: mbedtls_strerror:buflen <- $r4
	.loc	1 0 13                          @ ../../../ThirdParty/mbedTLS/library/error.c:0:13
	movw	r0, #20736
	.loc	1 282 13                        @ ../../../ThirdParty/mbedTLS/library/error.c:282:13
	cmp	r7, r0
	bne	.LBB0_827
	bl	.LBB0_1249
.Ltmp661:
.LBB0_827:
	bl	.LBB0_1814
	.p2align	2
@ %bb.828:
	.loc	1 0 13                          @ ../../../ThirdParty/mbedTLS/library/error.c:0:13
__arm_cp.0_1442:
	.long	.L.str.6
.Lcpi_end19:
	.size	__arm_cp.0_1442, .Lcpi_end19-__arm_cp.0_1442
	.p2align	2
@ %bb.829:
.LCPI0_1443:
	.long	13439                           @ 0x347f
	.p2align	2
@ %bb.830:
__arm_cp.0_1444:
	.long	12927                           @ 0x327f
.Lcpi_end20:
	.size	__arm_cp.0_1444, .Lcpi_end20-__arm_cp.0_1444
	.p2align	2
@ %bb.831:
__arm_cp.0_1445:
	.long	12671                           @ 0x317f
.Lcpi_end21:
	.size	__arm_cp.0_1445, .Lcpi_end21-__arm_cp.0_1445
	.p2align	2
@ %bb.832:
__arm_cp.0_1446:
	.long	.L.str.9
.Lcpi_end22:
	.size	__arm_cp.0_1446, .Lcpi_end22-__arm_cp.0_1446
	.p2align	2
@ %bb.833:
__arm_cp.0_1447:
	.long	13311                           @ 0x33ff
.Lcpi_end23:
	.size	__arm_cp.0_1447, .Lcpi_end23-__arm_cp.0_1447
	.p2align	2
@ %bb.834:
.LCPI0_1448:
	.long	13695                           @ 0x357f
	.p2align	2
@ %bb.835:
.LCPI0_1747:
	.long	13183                           @ 0x337f
	.p2align	1
.LBB0_836:
.Ltmp662:
	@DEBUG_VALUE: mbedtls_strerror:buf <- $r5
	@DEBUG_VALUE: mbedtls_strerror:buflen <- $r4
	.loc	1 283 13 is_stmt 1              @ ../../../ThirdParty/mbedTLS/library/error.c:283:13
	ldr	r2, __arm_cp.0_626
	mov	r0, r5
	mov	r1, r4
	bl	__2snprintf
.Ltmp663:
.LBB0_837:
	@DEBUG_VALUE: mbedtls_strerror:buf <- $r5
	@DEBUG_VALUE: mbedtls_strerror:buflen <- $r4
	.loc	1 0 13 is_stmt 0                @ ../../../ThirdParty/mbedTLS/library/error.c:0:13
	ldr	r0, .LCPI0_627
	.loc	1 284 13 is_stmt 1              @ ../../../ThirdParty/mbedTLS/library/error.c:284:13
	cmp	r7, r0
	ble	.LBB0_850
.Ltmp664:
@ %bb.838:
	@DEBUG_VALUE: mbedtls_strerror:buf <- $r5
	@DEBUG_VALUE: mbedtls_strerror:buflen <- $r4
	.loc	1 0 13 is_stmt 0                @ ../../../ThirdParty/mbedTLS/library/error.c:0:13
	ldr	r0, __arm_cp.0_628
	.loc	1 284 13                        @ ../../../ThirdParty/mbedTLS/library/error.c:284:13
	cmp	r7, r0
	bgt	.LBB0_839
	b	.LBB0_898
.Ltmp665:
.LBB0_839:
	@DEBUG_VALUE: mbedtls_strerror:buf <- $r5
	@DEBUG_VALUE: mbedtls_strerror:buflen <- $r4
	.loc	1 0 13                          @ ../../../ThirdParty/mbedTLS/library/error.c:0:13
	ldr	r0, .LCPI0_629
	.loc	1 284 13                        @ ../../../ThirdParty/mbedTLS/library/error.c:284:13
	cmp	r7, r0
	bgt	.LBB0_840
	b	.LBB0_912
.Ltmp666:
.LBB0_840:
	@DEBUG_VALUE: mbedtls_strerror:buf <- $r5
	@DEBUG_VALUE: mbedtls_strerror:buflen <- $r4
	.loc	1 0 13                          @ ../../../ThirdParty/mbedTLS/library/error.c:0:13
	ldr	r0, .LCPI0_630
	.loc	1 284 13                        @ ../../../ThirdParty/mbedTLS/library/error.c:284:13
	cmp	r7, r0
	ble	.LBB0_841
	bl	.LBB0_1143
.Ltmp667:
.LBB0_841:
	@DEBUG_VALUE: mbedtls_strerror:buf <- $r5
	@DEBUG_VALUE: mbedtls_strerror:buflen <- $r4
	.loc	1 0 13                          @ ../../../ThirdParty/mbedTLS/library/error.c:0:13
	movw	r0, #20736
	.loc	1 284 13                        @ ../../../ThirdParty/mbedTLS/library/error.c:284:13
	cmp	r7, r0
	bne	.LBB0_842
	bl	.LBB0_1249
.Ltmp668:
.LBB0_842:
	@DEBUG_VALUE: mbedtls_strerror:buf <- $r5
	@DEBUG_VALUE: mbedtls_strerror:buflen <- $r4
	.loc	1 0 13                          @ ../../../ThirdParty/mbedTLS/library/error.c:0:13
	movw	r0, #20864
	.loc	1 284 13                        @ ../../../ThirdParty/mbedTLS/library/error.c:284:13
	cmp	r7, r0
	bne	.LBB0_843
	bl	.LBB0_1289
.Ltmp669:
.LBB0_843:
	bl	.LBB0_1935
.LBB0_844:
.Ltmp670:
	@DEBUG_VALUE: mbedtls_strerror:buf <- $r5
	@DEBUG_VALUE: mbedtls_strerror:buflen <- $r4
	.loc	1 0 13                          @ ../../../ThirdParty/mbedTLS/library/error.c:0:13
	ldr	r0, .LCPI0_631
	.loc	1 282 13 is_stmt 1              @ ../../../ThirdParty/mbedTLS/library/error.c:282:13
	cmp	r7, r0
	ble	.LBB0_845
	b	.LBB0_893
.Ltmp671:
.LBB0_845:
	@DEBUG_VALUE: mbedtls_strerror:buf <- $r5
	@DEBUG_VALUE: mbedtls_strerror:buflen <- $r4
	.loc	1 0 13 is_stmt 0                @ ../../../ThirdParty/mbedTLS/library/error.c:0:13
	ldr	r0, .LCPI0_632
	.loc	1 282 13                        @ ../../../ThirdParty/mbedTLS/library/error.c:282:13
	cmp	r7, r0
	bgt	.LBB0_846
	b	.LBB0_1050
.Ltmp672:
.LBB0_846:
	@DEBUG_VALUE: mbedtls_strerror:buf <- $r5
	@DEBUG_VALUE: mbedtls_strerror:buflen <- $r4
	.loc	1 0 13                          @ ../../../ThirdParty/mbedTLS/library/error.c:0:13
	movw	r0, #4480
	.loc	1 282 13                        @ ../../../ThirdParty/mbedTLS/library/error.c:282:13
	cmp	r7, r0
	bne	.LBB0_847
	bl	.LBB0_1495
.Ltmp673:
.LBB0_847:
	@DEBUG_VALUE: mbedtls_strerror:buf <- $r5
	@DEBUG_VALUE: mbedtls_strerror:buflen <- $r4
	.loc	1 0 13                          @ ../../../ThirdParty/mbedTLS/library/error.c:0:13
	movw	r0, #4608
	.loc	1 282 13                        @ ../../../ThirdParty/mbedTLS/library/error.c:282:13
	cmp	r7, r0
	bne	.LBB0_848
	bl	.LBB0_1502
.Ltmp674:
.LBB0_848:
	@DEBUG_VALUE: mbedtls_strerror:buf <- $r5
	@DEBUG_VALUE: mbedtls_strerror:buflen <- $r4
	.loc	1 0 13                          @ ../../../ThirdParty/mbedTLS/library/error.c:0:13
	movw	r0, #4736
	.loc	1 282 13                        @ ../../../ThirdParty/mbedTLS/library/error.c:282:13
	cmp	r7, r0
	bne	.LBB0_849
	bl	.LBB0_1507
.Ltmp675:
.LBB0_849:
	bl	.LBB0_1814
.LBB0_850:
.Ltmp676:
	@DEBUG_VALUE: mbedtls_strerror:buf <- $r5
	@DEBUG_VALUE: mbedtls_strerror:buflen <- $r4
	.loc	1 0 13                          @ ../../../ThirdParty/mbedTLS/library/error.c:0:13
	ldr	r0, .LCPI0_633
	.loc	1 284 13 is_stmt 1              @ ../../../ThirdParty/mbedTLS/library/error.c:284:13
	cmp	r7, r0
	ble	.LBB0_851
	b	.LBB0_903
.Ltmp677:
.LBB0_851:
	@DEBUG_VALUE: mbedtls_strerror:buf <- $r5
	@DEBUG_VALUE: mbedtls_strerror:buflen <- $r4
	.loc	1 0 13 is_stmt 0                @ ../../../ThirdParty/mbedTLS/library/error.c:0:13
	ldr	r0, .LCPI0_634
	.loc	1 284 13                        @ ../../../ThirdParty/mbedTLS/library/error.c:284:13
	cmp	r7, r0
	ble	.LBB0_852
	b	.LBB0_940
.Ltmp678:
.LBB0_852:
	@DEBUG_VALUE: mbedtls_strerror:buf <- $r5
	@DEBUG_VALUE: mbedtls_strerror:buflen <- $r4
	.loc	1 0 13                          @ ../../../ThirdParty/mbedTLS/library/error.c:0:13
	movw	r0, #4224
	.loc	1 284 13                        @ ../../../ThirdParty/mbedTLS/library/error.c:284:13
	cmp	r7, r0
	bne	.LBB0_853
	bl	.LBB0_1356
.Ltmp679:
.LBB0_853:
	@DEBUG_VALUE: mbedtls_strerror:buf <- $r5
	@DEBUG_VALUE: mbedtls_strerror:buflen <- $r4
	.loc	1 0 13                          @ ../../../ThirdParty/mbedTLS/library/error.c:0:13
	movw	r0, #4352
	.loc	1 284 13                        @ ../../../ThirdParty/mbedTLS/library/error.c:284:13
	cmp	r7, r0
	bne	.LBB0_854
	bl	.LBB0_1492
.Ltmp680:
.LBB0_854:
	@DEBUG_VALUE: mbedtls_strerror:buf <- $r5
	@DEBUG_VALUE: mbedtls_strerror:buflen <- $r4
	.loc	1 0 13                          @ ../../../ThirdParty/mbedTLS/library/error.c:0:13
	movw	r0, #4480
	.loc	1 284 13                        @ ../../../ThirdParty/mbedTLS/library/error.c:284:13
	cmp	r7, r0
	bne	.LBB0_855
	bl	.LBB0_1495
.Ltmp681:
.LBB0_855:
	bl	.LBB0_1935
@ %bb.856:
	.p2align	2
@ %bb.857:
	.loc	1 0 13                          @ ../../../ThirdParty/mbedTLS/library/error.c:0:13
__arm_cp.0_603:
	.long	13439                           @ 0x347f
.Lcpi_end24:
	.size	__arm_cp.0_603, .Lcpi_end24-__arm_cp.0_603
@ %bb.858:
@ %bb.859:
@ %bb.860:
@ %bb.861:
	.p2align	2
@ %bb.862:
__arm_cp.0_608:
	.long	13695                           @ 0x357f
.Lcpi_end25:
	.size	__arm_cp.0_608, .Lcpi_end25-__arm_cp.0_608
	.p2align	2
@ %bb.863:
__arm_cp.0_609:
	.long	13183                           @ 0x337f
.Lcpi_end26:
	.size	__arm_cp.0_609, .Lcpi_end26-__arm_cp.0_609
	.p2align	2
@ %bb.864:
__arm_cp.0_610:
	.long	20351                           @ 0x4f7f
.Lcpi_end27:
	.size	__arm_cp.0_610, .Lcpi_end27-__arm_cp.0_610
	.p2align	2
@ %bb.865:
__arm_cp.0_611:
	.long	.L.str.11
.Lcpi_end28:
	.size	__arm_cp.0_611, .Lcpi_end28-__arm_cp.0_611
	.p2align	2
@ %bb.866:
__arm_cp.0_612:
	.long	.L.str.13
.Lcpi_end29:
	.size	__arm_cp.0_612, .Lcpi_end29-__arm_cp.0_612
	.p2align	2
@ %bb.867:
__arm_cp.0_613:
	.long	20223                           @ 0x4eff
.Lcpi_end30:
	.size	__arm_cp.0_613, .Lcpi_end30-__arm_cp.0_613
	.p2align	2
@ %bb.868:
__arm_cp.0_614:
	.long	.L.str.14
.Lcpi_end31:
	.size	__arm_cp.0_614, .Lcpi_end31-__arm_cp.0_614
	.p2align	2
@ %bb.869:
__arm_cp.0_615:
	.long	19967                           @ 0x4dff
.Lcpi_end32:
	.size	__arm_cp.0_615, .Lcpi_end32-__arm_cp.0_615
	.p2align	2
@ %bb.870:
__arm_cp.0_616:
	.long	13567                           @ 0x34ff
.Lcpi_end33:
	.size	__arm_cp.0_616, .Lcpi_end33-__arm_cp.0_616
	.p2align	2
@ %bb.871:
__arm_cp.0_617:
	.long	.L.str.15
.Lcpi_end34:
	.size	__arm_cp.0_617, .Lcpi_end34-__arm_cp.0_617
	.p2align	2
@ %bb.872:
__arm_cp.0_618:
	.long	.L.str.16
.Lcpi_end35:
	.size	__arm_cp.0_618, .Lcpi_end35-__arm_cp.0_618
	.p2align	2
@ %bb.873:
__arm_cp.0_619:
	.long	.L.str.17
.Lcpi_end36:
	.size	__arm_cp.0_619, .Lcpi_end36-__arm_cp.0_619
	.p2align	2
@ %bb.874:
__arm_cp.0_620:
	.long	20095                           @ 0x4e7f
.Lcpi_end37:
	.size	__arm_cp.0_620, .Lcpi_end37-__arm_cp.0_620
	.p2align	2
@ %bb.875:
__arm_cp.0_621:
	.long	.L.str.18
.Lcpi_end38:
	.size	__arm_cp.0_621, .Lcpi_end38-__arm_cp.0_621
	.p2align	2
@ %bb.876:
__arm_cp.0_622:
	.long	.L.str.19
.Lcpi_end39:
	.size	__arm_cp.0_622, .Lcpi_end39-__arm_cp.0_622
	.p2align	2
@ %bb.877:
__arm_cp.0_623:
	.long	.L.str.20
.Lcpi_end40:
	.size	__arm_cp.0_623, .Lcpi_end40-__arm_cp.0_623
	.p2align	2
@ %bb.878:
.LCPI0_624:
	.long	19455                           @ 0x4bff
	.p2align	2
@ %bb.879:
.LCPI0_625:
	.long	20863                           @ 0x517f
	.p2align	2
@ %bb.880:
__arm_cp.0_626:
	.long	.L.str.21
.Lcpi_end41:
	.size	__arm_cp.0_626, .Lcpi_end41-__arm_cp.0_626
	.p2align	2
@ %bb.881:
.LCPI0_627:
	.long	16255                           @ 0x3f7f
	.p2align	2
@ %bb.882:
__arm_cp.0_628:
	.long	19839                           @ 0x4d7f
.Lcpi_end42:
	.size	__arm_cp.0_628, .Lcpi_end42-__arm_cp.0_628
	.p2align	2
@ %bb.883:
.LCPI0_629:
	.long	20735                           @ 0x50ff
	.p2align	2
@ %bb.884:
.LCPI0_630:
	.long	20991                           @ 0x51ff
	.p2align	2
@ %bb.885:
.LCPI0_631:
	.long	4863                            @ 0x12ff
	.p2align	2
@ %bb.886:
.LCPI0_632:
	.long	4479                            @ 0x117f
	.p2align	2
@ %bb.887:
.LCPI0_633:
	.long	4991                            @ 0x137f
	.p2align	2
@ %bb.888:
.LCPI0_634:
	.long	4607                            @ 0x11ff
	.p2align	1
.LBB0_889:
.Ltmp682:
	@DEBUG_VALUE: mbedtls_strerror:buf <- $r5
	@DEBUG_VALUE: mbedtls_strerror:buflen <- $r4
	ldr	r0, __arm_cp.0_1748
	.loc	1 282 13 is_stmt 1              @ ../../../ThirdParty/mbedTLS/library/error.c:282:13
	cmp	r7, r0
	bgt	.LBB0_890
	b	.LBB0_1080
.Ltmp683:
.LBB0_890:
	@DEBUG_VALUE: mbedtls_strerror:buf <- $r5
	@DEBUG_VALUE: mbedtls_strerror:buflen <- $r4
	.loc	1 0 13 is_stmt 0                @ ../../../ThirdParty/mbedTLS/library/error.c:0:13
	movw	r0, #19712
	.loc	1 282 13                        @ ../../../ThirdParty/mbedTLS/library/error.c:282:13
	cmp	r7, r0
	bne	.LBB0_891
	b	.LBB0_999
.Ltmp684:
.LBB0_891:
	@DEBUG_VALUE: mbedtls_strerror:buf <- $r5
	@DEBUG_VALUE: mbedtls_strerror:buflen <- $r4
	.loc	1 0 13                          @ ../../../ThirdParty/mbedTLS/library/error.c:0:13
	movw	r0, #19840
	.loc	1 282 13                        @ ../../../ThirdParty/mbedTLS/library/error.c:282:13
	cmp	r7, r0
	bne	.LBB0_892
	b	.LBB0_956
.Ltmp685:
.LBB0_892:
	@DEBUG_VALUE: mbedtls_strerror:buf <- $r5
	@DEBUG_VALUE: mbedtls_strerror:buflen <- $r4
	.loc	1 0 13                          @ ../../../ThirdParty/mbedTLS/library/error.c:0:13
	movw	r0, #19968
	.loc	1 282 13                        @ ../../../ThirdParty/mbedTLS/library/error.c:282:13
	cmp	r7, r0
	beq	.LBB0_916
	bl	.LBB0_1814
.Ltmp686:
.LBB0_893:
	@DEBUG_VALUE: mbedtls_strerror:buf <- $r5
	@DEBUG_VALUE: mbedtls_strerror:buflen <- $r4
	.loc	1 0 13                          @ ../../../ThirdParty/mbedTLS/library/error.c:0:13
	ldr	r0, .LCPI0_1749
	.loc	1 282 13                        @ ../../../ThirdParty/mbedTLS/library/error.c:282:13
	cmp	r7, r0
	bgt	.LBB0_894
	b	.LBB0_1106
.Ltmp687:
.LBB0_894:
	@DEBUG_VALUE: mbedtls_strerror:buf <- $r5
	@DEBUG_VALUE: mbedtls_strerror:buflen <- $r4
	.loc	1 0 13                          @ ../../../ThirdParty/mbedTLS/library/error.c:0:13
	movw	r0, #5120
	.loc	1 282 13                        @ ../../../ThirdParty/mbedTLS/library/error.c:282:13
	cmp	r7, r0
	bne	.LBB0_895
	bl	.LBB0_1813
.Ltmp688:
.LBB0_895:
	@DEBUG_VALUE: mbedtls_strerror:buf <- $r5
	@DEBUG_VALUE: mbedtls_strerror:buflen <- $r4
	.loc	1 0 13                          @ ../../../ThirdParty/mbedTLS/library/error.c:0:13
	movw	r0, #19200
	.loc	1 282 13                        @ ../../../ThirdParty/mbedTLS/library/error.c:282:13
	cmp	r7, r0
	bne	.LBB0_896
	bl	.LBB0_1202
.Ltmp689:
.LBB0_896:
	@DEBUG_VALUE: mbedtls_strerror:buf <- $r5
	@DEBUG_VALUE: mbedtls_strerror:buflen <- $r4
	.loc	1 0 13                          @ ../../../ThirdParty/mbedTLS/library/error.c:0:13
	movw	r0, #19328
	.loc	1 282 13                        @ ../../../ThirdParty/mbedTLS/library/error.c:282:13
	cmp	r7, r0
	bne	.LBB0_897
	bl	.LBB0_1177
.Ltmp690:
.LBB0_897:
	bl	.LBB0_1814
.LBB0_898:
.Ltmp691:
	@DEBUG_VALUE: mbedtls_strerror:buf <- $r5
	@DEBUG_VALUE: mbedtls_strerror:buflen <- $r4
	.loc	1 0 13                          @ ../../../ThirdParty/mbedTLS/library/error.c:0:13
	ldr	r0, .LCPI0_1750
	.loc	1 284 13 is_stmt 1              @ ../../../ThirdParty/mbedTLS/library/error.c:284:13
	cmp	r7, r0
	ble	.LBB0_899
	b	.LBB0_944
.Ltmp692:
.LBB0_899:
	@DEBUG_VALUE: mbedtls_strerror:buf <- $r5
	@DEBUG_VALUE: mbedtls_strerror:buflen <- $r4
	.loc	1 0 13 is_stmt 0                @ ../../../ThirdParty/mbedTLS/library/error.c:0:13
	movw	r0, #16256
	.loc	1 284 13                        @ ../../../ThirdParty/mbedTLS/library/error.c:284:13
	cmp	r7, r0
	bne	.LBB0_900
	bl	.LBB0_1908
.Ltmp693:
.LBB0_900:
	@DEBUG_VALUE: mbedtls_strerror:buf <- $r5
	@DEBUG_VALUE: mbedtls_strerror:buflen <- $r4
	.loc	1 0 13                          @ ../../../ThirdParty/mbedTLS/library/error.c:0:13
	movw	r0, #19200
	.loc	1 284 13                        @ ../../../ThirdParty/mbedTLS/library/error.c:284:13
	cmp	r7, r0
	bne	.LBB0_901
	bl	.LBB0_1202
.Ltmp694:
.LBB0_901:
	@DEBUG_VALUE: mbedtls_strerror:buf <- $r5
	@DEBUG_VALUE: mbedtls_strerror:buflen <- $r4
	.loc	1 0 13                          @ ../../../ThirdParty/mbedTLS/library/error.c:0:13
	movw	r0, #19328
	.loc	1 284 13                        @ ../../../ThirdParty/mbedTLS/library/error.c:284:13
	cmp	r7, r0
	bne	.LBB0_902
	bl	.LBB0_1177
.Ltmp695:
.LBB0_902:
	bl	.LBB0_1935
.LBB0_903:
.Ltmp696:
	@DEBUG_VALUE: mbedtls_strerror:buf <- $r5
	@DEBUG_VALUE: mbedtls_strerror:buflen <- $r4
	.loc	1 0 13                          @ ../../../ThirdParty/mbedTLS/library/error.c:0:13
	ldr	r0, .LCPI0_1452
	.loc	1 284 13                        @ ../../../ThirdParty/mbedTLS/library/error.c:284:13
	cmp	r7, r0
	ble	.LBB0_904
	b	.LBB0_948
.Ltmp697:
.LBB0_904:
	@DEBUG_VALUE: mbedtls_strerror:buf <- $r5
	@DEBUG_VALUE: mbedtls_strerror:buflen <- $r4
	.loc	1 0 13                          @ ../../../ThirdParty/mbedTLS/library/error.c:0:13
	movw	r0, #4992
	.loc	1 284 13                        @ ../../../ThirdParty/mbedTLS/library/error.c:284:13
	cmp	r7, r0
	bne	.LBB0_905
	bl	.LBB0_1637
.Ltmp698:
.LBB0_905:
	@DEBUG_VALUE: mbedtls_strerror:buf <- $r5
	@DEBUG_VALUE: mbedtls_strerror:buflen <- $r4
	.loc	1 0 13                          @ ../../../ThirdParty/mbedTLS/library/error.c:0:13
	movw	r0, #5120
	.loc	1 284 13                        @ ../../../ThirdParty/mbedTLS/library/error.c:284:13
	cmp	r7, r0
	bne	.LBB0_906
	bl	.LBB0_1813
.Ltmp699:
.LBB0_906:
	@DEBUG_VALUE: mbedtls_strerror:buf <- $r5
	@DEBUG_VALUE: mbedtls_strerror:buflen <- $r4
	.loc	1 0 13                          @ ../../../ThirdParty/mbedTLS/library/error.c:0:13
	movw	r0, #5248
	.loc	1 284 13                        @ ../../../ThirdParty/mbedTLS/library/error.c:284:13
	cmp	r7, r0
	bne	.LBB0_907
	bl	.LBB0_1821
.Ltmp700:
.LBB0_907:
	bl	.LBB0_1935
.LBB0_908:
.Ltmp701:
	@DEBUG_VALUE: mbedtls_strerror:buf <- $r5
	@DEBUG_VALUE: mbedtls_strerror:buflen <- $r4
	.loc	1 0 13                          @ ../../../ThirdParty/mbedTLS/library/error.c:0:13
	movw	r0, #20864
	.loc	1 282 13 is_stmt 1              @ ../../../ThirdParty/mbedTLS/library/error.c:282:13
	cmp	r7, r0
	bne	.LBB0_909
	bl	.LBB0_1289
.Ltmp702:
.LBB0_909:
	@DEBUG_VALUE: mbedtls_strerror:buf <- $r5
	@DEBUG_VALUE: mbedtls_strerror:buflen <- $r4
	.loc	1 0 13 is_stmt 0                @ ../../../ThirdParty/mbedTLS/library/error.c:0:13
	movw	r0, #20992
	.loc	1 282 13                        @ ../../../ThirdParty/mbedTLS/library/error.c:282:13
	cmp	r7, r0
	bne	.LBB0_910
	bl	.LBB0_1342
.Ltmp703:
.LBB0_910:
	@DEBUG_VALUE: mbedtls_strerror:buf <- $r5
	@DEBUG_VALUE: mbedtls_strerror:buflen <- $r4
	.loc	1 0 13                          @ ../../../ThirdParty/mbedTLS/library/error.c:0:13
	movw	r0, #21120
	.loc	1 282 13                        @ ../../../ThirdParty/mbedTLS/library/error.c:282:13
	cmp	r7, r0
	bne	.LBB0_911
	bl	.LBB0_1353
.Ltmp704:
.LBB0_911:
	bl	.LBB0_1814
.LBB0_912:
.Ltmp705:
	@DEBUG_VALUE: mbedtls_strerror:buf <- $r5
	@DEBUG_VALUE: mbedtls_strerror:buflen <- $r4
	.loc	1 0 13                          @ ../../../ThirdParty/mbedTLS/library/error.c:0:13
	movw	r0, #19840
	.loc	1 284 13 is_stmt 1              @ ../../../ThirdParty/mbedTLS/library/error.c:284:13
	cmp	r7, r0
	bne	.LBB0_913
	b	.LBB0_956
.Ltmp706:
.LBB0_913:
	@DEBUG_VALUE: mbedtls_strerror:buf <- $r5
	@DEBUG_VALUE: mbedtls_strerror:buflen <- $r4
	.loc	1 0 13 is_stmt 0                @ ../../../ThirdParty/mbedTLS/library/error.c:0:13
	movw	r0, #19968
	.loc	1 284 13                        @ ../../../ThirdParty/mbedTLS/library/error.c:284:13
	cmp	r7, r0
	beq	.LBB0_916
.Ltmp707:
@ %bb.914:
	@DEBUG_VALUE: mbedtls_strerror:buf <- $r5
	@DEBUG_VALUE: mbedtls_strerror:buflen <- $r4
	.loc	1 0 13                          @ ../../../ThirdParty/mbedTLS/library/error.c:0:13
	movw	r0, #20608
	.loc	1 284 13                        @ ../../../ThirdParty/mbedTLS/library/error.c:284:13
	cmp	r7, r0
	bne	.LBB0_915
	bl	.LBB0_1231
.Ltmp708:
.LBB0_915:
	bl	.LBB0_1935
.LBB0_916:
.Ltmp709:
	@DEBUG_VALUE: mbedtls_strerror:buf <- $r5
	@DEBUG_VALUE: mbedtls_strerror:buflen <- $r4
	.loc	1 285 13 is_stmt 1              @ ../../../ThirdParty/mbedTLS/library/error.c:285:13
	ldr	r2, __arm_cp.0_1453
	mov	r0, r5
	mov	r1, r4
	bl	__2snprintf
.Ltmp710:
.LBB0_917:
	@DEBUG_VALUE: mbedtls_strerror:buf <- $r5
	@DEBUG_VALUE: mbedtls_strerror:buflen <- $r4
	.loc	1 0 13 is_stmt 0                @ ../../../ThirdParty/mbedTLS/library/error.c:0:13
	ldr	r0, .LCPI0_1454
	.loc	1 286 13 is_stmt 1              @ ../../../ThirdParty/mbedTLS/library/error.c:286:13
	cmp	r7, r0
	ble	.LBB0_924
.Ltmp711:
@ %bb.918:
	@DEBUG_VALUE: mbedtls_strerror:buf <- $r5
	@DEBUG_VALUE: mbedtls_strerror:buflen <- $r4
	.loc	1 0 13 is_stmt 0                @ ../../../ThirdParty/mbedTLS/library/error.c:0:13
	ldr	r0, __arm_cp.0_1748
	.loc	1 286 13                        @ ../../../ThirdParty/mbedTLS/library/error.c:286:13
	cmp	r7, r0
	ble	.LBB0_930
.Ltmp712:
@ %bb.919:
	@DEBUG_VALUE: mbedtls_strerror:buf <- $r5
	@DEBUG_VALUE: mbedtls_strerror:buflen <- $r4
	.loc	1 0 13                          @ ../../../ThirdParty/mbedTLS/library/error.c:0:13
	ldr	r0, .LCPI0_1751
	.loc	1 286 13                        @ ../../../ThirdParty/mbedTLS/library/error.c:286:13
	cmp	r7, r0
	bgt	.LBB0_920
	b	.LBB0_952
.Ltmp713:
.LBB0_920:
	@DEBUG_VALUE: mbedtls_strerror:buf <- $r5
	@DEBUG_VALUE: mbedtls_strerror:buflen <- $r4
	.loc	1 0 13                          @ ../../../ThirdParty/mbedTLS/library/error.c:0:13
	ldr	r0, .LCPI0_1752
	.loc	1 286 13                        @ ../../../ThirdParty/mbedTLS/library/error.c:286:13
	cmp	r7, r0
	ble	.LBB0_921
	b	.LBB0_1146
.Ltmp714:
.LBB0_921:
	@DEBUG_VALUE: mbedtls_strerror:buf <- $r5
	@DEBUG_VALUE: mbedtls_strerror:buflen <- $r4
	.loc	1 0 13                          @ ../../../ThirdParty/mbedTLS/library/error.c:0:13
	movw	r0, #20736
	.loc	1 286 13                        @ ../../../ThirdParty/mbedTLS/library/error.c:286:13
	cmp	r7, r0
	bne	.LBB0_922
	bl	.LBB0_1249
.Ltmp715:
.LBB0_922:
	@DEBUG_VALUE: mbedtls_strerror:buf <- $r5
	@DEBUG_VALUE: mbedtls_strerror:buflen <- $r4
	.loc	1 0 13                          @ ../../../ThirdParty/mbedTLS/library/error.c:0:13
	movw	r0, #20864
	.loc	1 286 13                        @ ../../../ThirdParty/mbedTLS/library/error.c:286:13
	cmp	r7, r0
	bne	.LBB0_923
	bl	.LBB0_1289
.Ltmp716:
.LBB0_923:
	bl	.LBB0_2149
.LBB0_924:
.Ltmp717:
	@DEBUG_VALUE: mbedtls_strerror:buf <- $r5
	@DEBUG_VALUE: mbedtls_strerror:buflen <- $r4
	.loc	1 0 13                          @ ../../../ThirdParty/mbedTLS/library/error.c:0:13
	ldr	r0, .LCPI0_1753
	.loc	1 286 13                        @ ../../../ThirdParty/mbedTLS/library/error.c:286:13
	cmp	r7, r0
	bgt	.LBB0_935
.Ltmp718:
@ %bb.925:
	@DEBUG_VALUE: mbedtls_strerror:buf <- $r5
	@DEBUG_VALUE: mbedtls_strerror:buflen <- $r4
	.loc	1 0 13                          @ ../../../ThirdParty/mbedTLS/library/error.c:0:13
	ldr	r0, .LCPI0_1754
	.loc	1 286 13                        @ ../../../ThirdParty/mbedTLS/library/error.c:286:13
	cmp	r7, r0
	ble	.LBB0_926
	b	.LBB0_980
.Ltmp719:
.LBB0_926:
	@DEBUG_VALUE: mbedtls_strerror:buf <- $r5
	@DEBUG_VALUE: mbedtls_strerror:buflen <- $r4
	.loc	1 0 13                          @ ../../../ThirdParty/mbedTLS/library/error.c:0:13
	movw	r0, #4224
	.loc	1 286 13                        @ ../../../ThirdParty/mbedTLS/library/error.c:286:13
	cmp	r7, r0
	bne	.LBB0_927
	bl	.LBB0_1356
.Ltmp720:
.LBB0_927:
	@DEBUG_VALUE: mbedtls_strerror:buf <- $r5
	@DEBUG_VALUE: mbedtls_strerror:buflen <- $r4
	.loc	1 0 13                          @ ../../../ThirdParty/mbedTLS/library/error.c:0:13
	movw	r0, #4352
	.loc	1 286 13                        @ ../../../ThirdParty/mbedTLS/library/error.c:286:13
	cmp	r7, r0
	bne	.LBB0_928
	bl	.LBB0_1492
.Ltmp721:
.LBB0_928:
	@DEBUG_VALUE: mbedtls_strerror:buf <- $r5
	@DEBUG_VALUE: mbedtls_strerror:buflen <- $r4
	.loc	1 0 13                          @ ../../../ThirdParty/mbedTLS/library/error.c:0:13
	movw	r0, #4480
	.loc	1 286 13                        @ ../../../ThirdParty/mbedTLS/library/error.c:286:13
	cmp	r7, r0
	bne	.LBB0_929
	bl	.LBB0_1495
.Ltmp722:
.LBB0_929:
	bl	.LBB0_2149
.LBB0_930:
.Ltmp723:
	@DEBUG_VALUE: mbedtls_strerror:buf <- $r5
	@DEBUG_VALUE: mbedtls_strerror:buflen <- $r4
	.loc	1 0 13                          @ ../../../ThirdParty/mbedTLS/library/error.c:0:13
	ldr	r0, __arm_cp.0_1755
	.loc	1 286 13                        @ ../../../ThirdParty/mbedTLS/library/error.c:286:13
	cmp	r7, r0
	ble	.LBB0_931
	b	.LBB0_984
.Ltmp724:
.LBB0_931:
	@DEBUG_VALUE: mbedtls_strerror:buf <- $r5
	@DEBUG_VALUE: mbedtls_strerror:buflen <- $r4
	.loc	1 0 13                          @ ../../../ThirdParty/mbedTLS/library/error.c:0:13
	movw	r0, #16128
	.loc	1 286 13                        @ ../../../ThirdParty/mbedTLS/library/error.c:286:13
	cmp	r7, r0
	bne	.LBB0_932
	bl	.LBB0_1912
.Ltmp725:
.LBB0_932:
	@DEBUG_VALUE: mbedtls_strerror:buf <- $r5
	@DEBUG_VALUE: mbedtls_strerror:buflen <- $r4
	.loc	1 0 13                          @ ../../../ThirdParty/mbedTLS/library/error.c:0:13
	movw	r0, #16256
	.loc	1 286 13                        @ ../../../ThirdParty/mbedTLS/library/error.c:286:13
	cmp	r7, r0
	bne	.LBB0_933
	bl	.LBB0_1908
.Ltmp726:
.LBB0_933:
	@DEBUG_VALUE: mbedtls_strerror:buf <- $r5
	@DEBUG_VALUE: mbedtls_strerror:buflen <- $r4
	.loc	1 0 13                          @ ../../../ThirdParty/mbedTLS/library/error.c:0:13
	movw	r0, #19200
	.loc	1 286 13                        @ ../../../ThirdParty/mbedTLS/library/error.c:286:13
	cmp	r7, r0
	bne	.LBB0_934
	bl	.LBB0_1202
.Ltmp727:
.LBB0_934:
	bl	.LBB0_2149
.LBB0_935:
.Ltmp728:
	@DEBUG_VALUE: mbedtls_strerror:buf <- $r5
	@DEBUG_VALUE: mbedtls_strerror:buflen <- $r4
	.loc	1 0 13                          @ ../../../ThirdParty/mbedTLS/library/error.c:0:13
	ldr	r0, .LCPI0_646
	.loc	1 286 13                        @ ../../../ThirdParty/mbedTLS/library/error.c:286:13
	cmp	r7, r0
	ble	.LBB0_936
	b	.LBB0_988
.Ltmp729:
.LBB0_936:
	@DEBUG_VALUE: mbedtls_strerror:buf <- $r5
	@DEBUG_VALUE: mbedtls_strerror:buflen <- $r4
	.loc	1 0 13                          @ ../../../ThirdParty/mbedTLS/library/error.c:0:13
	movw	r0, #4992
	.loc	1 286 13                        @ ../../../ThirdParty/mbedTLS/library/error.c:286:13
	cmp	r7, r0
	bne	.LBB0_937
	bl	.LBB0_1637
.Ltmp730:
.LBB0_937:
	@DEBUG_VALUE: mbedtls_strerror:buf <- $r5
	@DEBUG_VALUE: mbedtls_strerror:buflen <- $r4
	.loc	1 0 13                          @ ../../../ThirdParty/mbedTLS/library/error.c:0:13
	movw	r0, #5120
	.loc	1 286 13                        @ ../../../ThirdParty/mbedTLS/library/error.c:286:13
	cmp	r7, r0
	bne	.LBB0_938
	bl	.LBB0_1813
.Ltmp731:
.LBB0_938:
	@DEBUG_VALUE: mbedtls_strerror:buf <- $r5
	@DEBUG_VALUE: mbedtls_strerror:buflen <- $r4
	.loc	1 0 13                          @ ../../../ThirdParty/mbedTLS/library/error.c:0:13
	movw	r0, #5248
	.loc	1 286 13                        @ ../../../ThirdParty/mbedTLS/library/error.c:286:13
	cmp	r7, r0
	bne	.LBB0_939
	bl	.LBB0_1821
.Ltmp732:
.LBB0_939:
	bl	.LBB0_2149
.LBB0_940:
.Ltmp733:
	@DEBUG_VALUE: mbedtls_strerror:buf <- $r5
	@DEBUG_VALUE: mbedtls_strerror:buflen <- $r4
	.loc	1 0 13                          @ ../../../ThirdParty/mbedTLS/library/error.c:0:13
	movw	r0, #4608
	.loc	1 284 13 is_stmt 1              @ ../../../ThirdParty/mbedTLS/library/error.c:284:13
	cmp	r7, r0
	bne	.LBB0_941
	bl	.LBB0_1502
.Ltmp734:
.LBB0_941:
	@DEBUG_VALUE: mbedtls_strerror:buf <- $r5
	@DEBUG_VALUE: mbedtls_strerror:buflen <- $r4
	.loc	1 0 13 is_stmt 0                @ ../../../ThirdParty/mbedTLS/library/error.c:0:13
	movw	r0, #4736
	.loc	1 284 13                        @ ../../../ThirdParty/mbedTLS/library/error.c:284:13
	cmp	r7, r0
	bne	.LBB0_942
	bl	.LBB0_1507
.Ltmp735:
.LBB0_942:
	@DEBUG_VALUE: mbedtls_strerror:buf <- $r5
	@DEBUG_VALUE: mbedtls_strerror:buflen <- $r4
	.loc	1 0 13                          @ ../../../ThirdParty/mbedTLS/library/error.c:0:13
	movw	r0, #4864
	.loc	1 284 13                        @ ../../../ThirdParty/mbedTLS/library/error.c:284:13
	cmp	r7, r0
	bne	.LBB0_943
	bl	.LBB0_1629
.Ltmp736:
.LBB0_943:
	bl	.LBB0_1935
.LBB0_944:
.Ltmp737:
	@DEBUG_VALUE: mbedtls_strerror:buf <- $r5
	@DEBUG_VALUE: mbedtls_strerror:buflen <- $r4
	.loc	1 0 13                          @ ../../../ThirdParty/mbedTLS/library/error.c:0:13
	movw	r0, #19456
	.loc	1 284 13                        @ ../../../ThirdParty/mbedTLS/library/error.c:284:13
	cmp	r7, r0
	bne	.LBB0_945
	b	.LBB0_1172
.Ltmp738:
.LBB0_945:
	@DEBUG_VALUE: mbedtls_strerror:buf <- $r5
	@DEBUG_VALUE: mbedtls_strerror:buflen <- $r4
	.loc	1 0 13                          @ ../../../ThirdParty/mbedTLS/library/error.c:0:13
	movw	r0, #19584
	.loc	1 284 13                        @ ../../../ThirdParty/mbedTLS/library/error.c:284:13
	cmp	r7, r0
	bne	.LBB0_946
	b	.LBB0_1082
.Ltmp739:
.LBB0_946:
	@DEBUG_VALUE: mbedtls_strerror:buf <- $r5
	@DEBUG_VALUE: mbedtls_strerror:buflen <- $r4
	.loc	1 0 13                          @ ../../../ThirdParty/mbedTLS/library/error.c:0:13
	movw	r0, #19712
	.loc	1 284 13                        @ ../../../ThirdParty/mbedTLS/library/error.c:284:13
	cmp	r7, r0
	bne	.LBB0_947
	b	.LBB0_999
.Ltmp740:
.LBB0_947:
	bl	.LBB0_1935
.LBB0_948:
.Ltmp741:
	@DEBUG_VALUE: mbedtls_strerror:buf <- $r5
	@DEBUG_VALUE: mbedtls_strerror:buflen <- $r4
	.loc	1 0 13                          @ ../../../ThirdParty/mbedTLS/library/error.c:0:13
	movw	r0, #15872
	.loc	1 284 13                        @ ../../../ThirdParty/mbedTLS/library/error.c:284:13
	cmp	r7, r0
	bne	.LBB0_949
	bl	.LBB0_1934
.Ltmp742:
.LBB0_949:
	@DEBUG_VALUE: mbedtls_strerror:buf <- $r5
	@DEBUG_VALUE: mbedtls_strerror:buflen <- $r4
	.loc	1 0 13                          @ ../../../ThirdParty/mbedTLS/library/error.c:0:13
	movw	r0, #16000
	.loc	1 284 13                        @ ../../../ThirdParty/mbedTLS/library/error.c:284:13
	cmp	r7, r0
	bne	.LBB0_950
	bl	.LBB0_1923
.Ltmp743:
.LBB0_950:
	@DEBUG_VALUE: mbedtls_strerror:buf <- $r5
	@DEBUG_VALUE: mbedtls_strerror:buflen <- $r4
	.loc	1 0 13                          @ ../../../ThirdParty/mbedTLS/library/error.c:0:13
	movw	r0, #16128
	.loc	1 284 13                        @ ../../../ThirdParty/mbedTLS/library/error.c:284:13
	cmp	r7, r0
	bne	.LBB0_951
	bl	.LBB0_1912
.Ltmp744:
.LBB0_951:
	bl	.LBB0_1935
.LBB0_952:
.Ltmp745:
	@DEBUG_VALUE: mbedtls_strerror:buf <- $r5
	@DEBUG_VALUE: mbedtls_strerror:buflen <- $r4
	.loc	1 0 13                          @ ../../../ThirdParty/mbedTLS/library/error.c:0:13
	movw	r0, #19712
	.loc	1 286 13 is_stmt 1              @ ../../../ThirdParty/mbedTLS/library/error.c:286:13
	cmp	r7, r0
	bne	.LBB0_953
	b	.LBB0_999
.Ltmp746:
.LBB0_953:
	@DEBUG_VALUE: mbedtls_strerror:buf <- $r5
	@DEBUG_VALUE: mbedtls_strerror:buflen <- $r4
	.loc	1 0 13 is_stmt 0                @ ../../../ThirdParty/mbedTLS/library/error.c:0:13
	movw	r0, #19840
	.loc	1 286 13                        @ ../../../ThirdParty/mbedTLS/library/error.c:286:13
	cmp	r7, r0
	beq	.LBB0_956
.Ltmp747:
@ %bb.954:
	@DEBUG_VALUE: mbedtls_strerror:buf <- $r5
	@DEBUG_VALUE: mbedtls_strerror:buflen <- $r4
	.loc	1 0 13                          @ ../../../ThirdParty/mbedTLS/library/error.c:0:13
	movw	r0, #20608
	.loc	1 286 13                        @ ../../../ThirdParty/mbedTLS/library/error.c:286:13
	cmp	r7, r0
	bne	.LBB0_955
	bl	.LBB0_1231
.Ltmp748:
.LBB0_955:
	bl	.LBB0_2149
.LBB0_956:
.Ltmp749:
	@DEBUG_VALUE: mbedtls_strerror:buf <- $r5
	@DEBUG_VALUE: mbedtls_strerror:buflen <- $r4
	.loc	1 287 13 is_stmt 1              @ ../../../ThirdParty/mbedTLS/library/error.c:287:13
	ldr	r2, __arm_cp.0_647
	mov	r0, r5
	mov	r1, r4
	bl	__2snprintf
.Ltmp750:
.LBB0_957:
	@DEBUG_VALUE: mbedtls_strerror:buf <- $r5
	@DEBUG_VALUE: mbedtls_strerror:buflen <- $r4
	.loc	1 0 13 is_stmt 0                @ ../../../ThirdParty/mbedTLS/library/error.c:0:13
	ldr	r0, .LCPI0_648
	.loc	1 288 13 is_stmt 1              @ ../../../ThirdParty/mbedTLS/library/error.c:288:13
	cmp	r7, r0
	ble	.LBB0_964
.Ltmp751:
@ %bb.958:
	@DEBUG_VALUE: mbedtls_strerror:buf <- $r5
	@DEBUG_VALUE: mbedtls_strerror:buflen <- $r4
	.loc	1 0 13 is_stmt 0                @ ../../../ThirdParty/mbedTLS/library/error.c:0:13
	ldr	r0, __arm_cp.0_649
	.loc	1 288 13                        @ ../../../ThirdParty/mbedTLS/library/error.c:288:13
	cmp	r7, r0
	ble	.LBB0_970
.Ltmp752:
@ %bb.959:
	@DEBUG_VALUE: mbedtls_strerror:buf <- $r5
	@DEBUG_VALUE: mbedtls_strerror:buflen <- $r4
	.loc	1 0 13                          @ ../../../ThirdParty/mbedTLS/library/error.c:0:13
	ldr	r0, .LCPI0_641
	.loc	1 288 13                        @ ../../../ThirdParty/mbedTLS/library/error.c:288:13
	cmp	r7, r0
	bgt	.LBB0_960
	b	.LBB0_992
.Ltmp753:
.LBB0_960:
	@DEBUG_VALUE: mbedtls_strerror:buf <- $r5
	@DEBUG_VALUE: mbedtls_strerror:buflen <- $r4
	.loc	1 0 13                          @ ../../../ThirdParty/mbedTLS/library/error.c:0:13
	ldr	r0, .LCPI0_642
	.loc	1 288 13                        @ ../../../ThirdParty/mbedTLS/library/error.c:288:13
	cmp	r7, r0
	ble	.LBB0_961
	b	.LBB0_1149
.Ltmp754:
.LBB0_961:
	@DEBUG_VALUE: mbedtls_strerror:buf <- $r5
	@DEBUG_VALUE: mbedtls_strerror:buflen <- $r4
	.loc	1 0 13                          @ ../../../ThirdParty/mbedTLS/library/error.c:0:13
	movw	r0, #20736
	.loc	1 288 13                        @ ../../../ThirdParty/mbedTLS/library/error.c:288:13
	cmp	r7, r0
	bne	.LBB0_962
	bl	.LBB0_1249
.Ltmp755:
.LBB0_962:
	@DEBUG_VALUE: mbedtls_strerror:buf <- $r5
	@DEBUG_VALUE: mbedtls_strerror:buflen <- $r4
	.loc	1 0 13                          @ ../../../ThirdParty/mbedTLS/library/error.c:0:13
	movw	r0, #20864
	.loc	1 288 13                        @ ../../../ThirdParty/mbedTLS/library/error.c:288:13
	cmp	r7, r0
	bne	.LBB0_963
	bl	.LBB0_1289
.Ltmp756:
.LBB0_963:
	bl	.LBB0_2157
.LBB0_964:
.Ltmp757:
	@DEBUG_VALUE: mbedtls_strerror:buf <- $r5
	@DEBUG_VALUE: mbedtls_strerror:buflen <- $r4
	.loc	1 0 13                          @ ../../../ThirdParty/mbedTLS/library/error.c:0:13
	ldr	r0, .LCPI0_643
	.loc	1 288 13                        @ ../../../ThirdParty/mbedTLS/library/error.c:288:13
	cmp	r7, r0
	bgt	.LBB0_975
.Ltmp758:
@ %bb.965:
	@DEBUG_VALUE: mbedtls_strerror:buf <- $r5
	@DEBUG_VALUE: mbedtls_strerror:buflen <- $r4
	.loc	1 0 13                          @ ../../../ThirdParty/mbedTLS/library/error.c:0:13
	ldr	r0, .LCPI0_644
	.loc	1 288 13                        @ ../../../ThirdParty/mbedTLS/library/error.c:288:13
	cmp	r7, r0
	ble	.LBB0_966
	b	.LBB0_1038
.Ltmp759:
.LBB0_966:
	@DEBUG_VALUE: mbedtls_strerror:buf <- $r5
	@DEBUG_VALUE: mbedtls_strerror:buflen <- $r4
	.loc	1 0 13                          @ ../../../ThirdParty/mbedTLS/library/error.c:0:13
	movw	r0, #4224
	.loc	1 288 13                        @ ../../../ThirdParty/mbedTLS/library/error.c:288:13
	cmp	r7, r0
	bne	.LBB0_967
	bl	.LBB0_1356
.Ltmp760:
.LBB0_967:
	@DEBUG_VALUE: mbedtls_strerror:buf <- $r5
	@DEBUG_VALUE: mbedtls_strerror:buflen <- $r4
	.loc	1 0 13                          @ ../../../ThirdParty/mbedTLS/library/error.c:0:13
	movw	r0, #4352
	.loc	1 288 13                        @ ../../../ThirdParty/mbedTLS/library/error.c:288:13
	cmp	r7, r0
	bne	.LBB0_968
	bl	.LBB0_1492
.Ltmp761:
.LBB0_968:
	@DEBUG_VALUE: mbedtls_strerror:buf <- $r5
	@DEBUG_VALUE: mbedtls_strerror:buflen <- $r4
	.loc	1 0 13                          @ ../../../ThirdParty/mbedTLS/library/error.c:0:13
	movw	r0, #4480
	.loc	1 288 13                        @ ../../../ThirdParty/mbedTLS/library/error.c:288:13
	cmp	r7, r0
	bne	.LBB0_969
	bl	.LBB0_1495
.Ltmp762:
.LBB0_969:
	bl	.LBB0_2157
.LBB0_970:
.Ltmp763:
	@DEBUG_VALUE: mbedtls_strerror:buf <- $r5
	@DEBUG_VALUE: mbedtls_strerror:buflen <- $r4
	.loc	1 0 13                          @ ../../../ThirdParty/mbedTLS/library/error.c:0:13
	ldr	r0, .LCPI0_650
	.loc	1 288 13                        @ ../../../ThirdParty/mbedTLS/library/error.c:288:13
	cmp	r7, r0
	ble	.LBB0_971
	b	.LBB0_1042
.Ltmp764:
.LBB0_971:
	@DEBUG_VALUE: mbedtls_strerror:buf <- $r5
	@DEBUG_VALUE: mbedtls_strerror:buflen <- $r4
	.loc	1 0 13                          @ ../../../ThirdParty/mbedTLS/library/error.c:0:13
	movw	r0, #16000
	.loc	1 288 13                        @ ../../../ThirdParty/mbedTLS/library/error.c:288:13
	cmp	r7, r0
	bne	.LBB0_972
	bl	.LBB0_1923
.Ltmp765:
.LBB0_972:
	@DEBUG_VALUE: mbedtls_strerror:buf <- $r5
	@DEBUG_VALUE: mbedtls_strerror:buflen <- $r4
	.loc	1 0 13                          @ ../../../ThirdParty/mbedTLS/library/error.c:0:13
	movw	r0, #16128
	.loc	1 288 13                        @ ../../../ThirdParty/mbedTLS/library/error.c:288:13
	cmp	r7, r0
	bne	.LBB0_973
	bl	.LBB0_1912
.Ltmp766:
.LBB0_973:
	@DEBUG_VALUE: mbedtls_strerror:buf <- $r5
	@DEBUG_VALUE: mbedtls_strerror:buflen <- $r4
	.loc	1 0 13                          @ ../../../ThirdParty/mbedTLS/library/error.c:0:13
	movw	r0, #16256
	.loc	1 288 13                        @ ../../../ThirdParty/mbedTLS/library/error.c:288:13
	cmp	r7, r0
	bne	.LBB0_974
	bl	.LBB0_1908
.Ltmp767:
.LBB0_974:
	bl	.LBB0_2157
.LBB0_975:
.Ltmp768:
	@DEBUG_VALUE: mbedtls_strerror:buf <- $r5
	@DEBUG_VALUE: mbedtls_strerror:buflen <- $r4
	.loc	1 0 13                          @ ../../../ThirdParty/mbedTLS/library/error.c:0:13
	ldr	r0, .LCPI0_651
	.loc	1 288 13                        @ ../../../ThirdParty/mbedTLS/library/error.c:288:13
	cmp	r7, r0
	ble	.LBB0_976
	b	.LBB0_1046
.Ltmp769:
.LBB0_976:
	@DEBUG_VALUE: mbedtls_strerror:buf <- $r5
	@DEBUG_VALUE: mbedtls_strerror:buflen <- $r4
	.loc	1 0 13                          @ ../../../ThirdParty/mbedTLS/library/error.c:0:13
	movw	r0, #4992
	.loc	1 288 13                        @ ../../../ThirdParty/mbedTLS/library/error.c:288:13
	cmp	r7, r0
	bne	.LBB0_977
	bl	.LBB0_1637
.Ltmp770:
.LBB0_977:
	@DEBUG_VALUE: mbedtls_strerror:buf <- $r5
	@DEBUG_VALUE: mbedtls_strerror:buflen <- $r4
	.loc	1 0 13                          @ ../../../ThirdParty/mbedTLS/library/error.c:0:13
	movw	r0, #5120
	.loc	1 288 13                        @ ../../../ThirdParty/mbedTLS/library/error.c:288:13
	cmp	r7, r0
	bne	.LBB0_978
	bl	.LBB0_1813
.Ltmp771:
.LBB0_978:
	@DEBUG_VALUE: mbedtls_strerror:buf <- $r5
	@DEBUG_VALUE: mbedtls_strerror:buflen <- $r4
	.loc	1 0 13                          @ ../../../ThirdParty/mbedTLS/library/error.c:0:13
	movw	r0, #5248
	.loc	1 288 13                        @ ../../../ThirdParty/mbedTLS/library/error.c:288:13
	cmp	r7, r0
	bne	.LBB0_979
	bl	.LBB0_1821
.Ltmp772:
.LBB0_979:
	bl	.LBB0_2157
.LBB0_980:
.Ltmp773:
	@DEBUG_VALUE: mbedtls_strerror:buf <- $r5
	@DEBUG_VALUE: mbedtls_strerror:buflen <- $r4
	.loc	1 0 13                          @ ../../../ThirdParty/mbedTLS/library/error.c:0:13
	movw	r0, #4608
	.loc	1 286 13 is_stmt 1              @ ../../../ThirdParty/mbedTLS/library/error.c:286:13
	cmp	r7, r0
	bne	.LBB0_981
	bl	.LBB0_1502
.Ltmp774:
.LBB0_981:
	@DEBUG_VALUE: mbedtls_strerror:buf <- $r5
	@DEBUG_VALUE: mbedtls_strerror:buflen <- $r4
	.loc	1 0 13 is_stmt 0                @ ../../../ThirdParty/mbedTLS/library/error.c:0:13
	movw	r0, #4736
	.loc	1 286 13                        @ ../../../ThirdParty/mbedTLS/library/error.c:286:13
	cmp	r7, r0
	bne	.LBB0_982
	bl	.LBB0_1507
.Ltmp775:
.LBB0_982:
	@DEBUG_VALUE: mbedtls_strerror:buf <- $r5
	@DEBUG_VALUE: mbedtls_strerror:buflen <- $r4
	.loc	1 0 13                          @ ../../../ThirdParty/mbedTLS/library/error.c:0:13
	movw	r0, #4864
	.loc	1 286 13                        @ ../../../ThirdParty/mbedTLS/library/error.c:286:13
	cmp	r7, r0
	bne	.LBB0_983
	bl	.LBB0_1629
.Ltmp776:
.LBB0_983:
	bl	.LBB0_2149
.LBB0_984:
.Ltmp777:
	@DEBUG_VALUE: mbedtls_strerror:buf <- $r5
	@DEBUG_VALUE: mbedtls_strerror:buflen <- $r4
	.loc	1 0 13                          @ ../../../ThirdParty/mbedTLS/library/error.c:0:13
	movw	r0, #19328
	.loc	1 286 13                        @ ../../../ThirdParty/mbedTLS/library/error.c:286:13
	cmp	r7, r0
	bne	.LBB0_985
	b	.LBB0_1177
.Ltmp778:
.LBB0_985:
	@DEBUG_VALUE: mbedtls_strerror:buf <- $r5
	@DEBUG_VALUE: mbedtls_strerror:buflen <- $r4
	.loc	1 0 13                          @ ../../../ThirdParty/mbedTLS/library/error.c:0:13
	movw	r0, #19456
	.loc	1 286 13                        @ ../../../ThirdParty/mbedTLS/library/error.c:286:13
	cmp	r7, r0
	bne	.LBB0_986
	b	.LBB0_1172
.Ltmp779:
.LBB0_986:
	@DEBUG_VALUE: mbedtls_strerror:buf <- $r5
	@DEBUG_VALUE: mbedtls_strerror:buflen <- $r4
	.loc	1 0 13                          @ ../../../ThirdParty/mbedTLS/library/error.c:0:13
	movw	r0, #19584
	.loc	1 286 13                        @ ../../../ThirdParty/mbedTLS/library/error.c:286:13
	cmp	r7, r0
	bne	.LBB0_987
	b	.LBB0_1082
.Ltmp780:
.LBB0_987:
	bl	.LBB0_2149
.LBB0_988:
.Ltmp781:
	@DEBUG_VALUE: mbedtls_strerror:buf <- $r5
	@DEBUG_VALUE: mbedtls_strerror:buflen <- $r4
	.loc	1 0 13                          @ ../../../ThirdParty/mbedTLS/library/error.c:0:13
	movw	r0, #15744
	.loc	1 286 13                        @ ../../../ThirdParty/mbedTLS/library/error.c:286:13
	cmp	r7, r0
	bne	.LBB0_989
	bl	.LBB0_2148
.Ltmp782:
.LBB0_989:
	@DEBUG_VALUE: mbedtls_strerror:buf <- $r5
	@DEBUG_VALUE: mbedtls_strerror:buflen <- $r4
	.loc	1 0 13                          @ ../../../ThirdParty/mbedTLS/library/error.c:0:13
	movw	r0, #15872
	.loc	1 286 13                        @ ../../../ThirdParty/mbedTLS/library/error.c:286:13
	cmp	r7, r0
	bne	.LBB0_990
	bl	.LBB0_1934
.Ltmp783:
.LBB0_990:
	@DEBUG_VALUE: mbedtls_strerror:buf <- $r5
	@DEBUG_VALUE: mbedtls_strerror:buflen <- $r4
	.loc	1 0 13                          @ ../../../ThirdParty/mbedTLS/library/error.c:0:13
	movw	r0, #16000
	.loc	1 286 13                        @ ../../../ThirdParty/mbedTLS/library/error.c:286:13
	cmp	r7, r0
	bne	.LBB0_991
	bl	.LBB0_1923
.Ltmp784:
.LBB0_991:
	bl	.LBB0_2149
.LBB0_992:
.Ltmp785:
	@DEBUG_VALUE: mbedtls_strerror:buf <- $r5
	@DEBUG_VALUE: mbedtls_strerror:buflen <- $r4
	.loc	1 0 13                          @ ../../../ThirdParty/mbedTLS/library/error.c:0:13
	movw	r0, #19584
	.loc	1 288 13 is_stmt 1              @ ../../../ThirdParty/mbedTLS/library/error.c:288:13
	cmp	r7, r0
	bne	.LBB0_993
	b	.LBB0_1082
.Ltmp786:
.LBB0_993:
	@DEBUG_VALUE: mbedtls_strerror:buf <- $r5
	@DEBUG_VALUE: mbedtls_strerror:buflen <- $r4
	.loc	1 0 13 is_stmt 0                @ ../../../ThirdParty/mbedTLS/library/error.c:0:13
	movw	r0, #19712
	.loc	1 288 13                        @ ../../../ThirdParty/mbedTLS/library/error.c:288:13
	cmp	r7, r0
	beq	.LBB0_999
.Ltmp787:
@ %bb.994:
	@DEBUG_VALUE: mbedtls_strerror:buf <- $r5
	@DEBUG_VALUE: mbedtls_strerror:buflen <- $r4
	.loc	1 0 13                          @ ../../../ThirdParty/mbedTLS/library/error.c:0:13
	movw	r0, #20608
	.loc	1 288 13                        @ ../../../ThirdParty/mbedTLS/library/error.c:288:13
	cmp	r7, r0
	bne	.LBB0_995
	b	.LBB0_1231
.Ltmp788:
.LBB0_995:
	bl	.LBB0_2157
	.p2align	2
@ %bb.996:
	.loc	1 0 13                          @ ../../../ThirdParty/mbedTLS/library/error.c:0:13
__arm_cp.0_1748:
	.long	19711                           @ 0x4cff
.Lcpi_end43:
	.size	__arm_cp.0_1748, .Lcpi_end43-__arm_cp.0_1748
	.p2align	2
@ %bb.997:
.LCPI0_1749:
	.long	5119                            @ 0x13ff
	.p2align	2
@ %bb.998:
.LCPI0_1750:
	.long	19455                           @ 0x4bff
	.p2align	1
.LBB0_999:
.Ltmp789:
	@DEBUG_VALUE: mbedtls_strerror:buf <- $r5
	@DEBUG_VALUE: mbedtls_strerror:buflen <- $r4
	.loc	1 289 13 is_stmt 1              @ ../../../ThirdParty/mbedTLS/library/error.c:289:13
	ldr	r2, __arm_cp.0_652
	mov	r0, r5
	mov	r1, r4
	bl	__2snprintf
.Ltmp790:
.LBB0_1000:
	@DEBUG_VALUE: mbedtls_strerror:buf <- $r5
	@DEBUG_VALUE: mbedtls_strerror:buflen <- $r4
	.loc	1 0 13 is_stmt 0                @ ../../../ThirdParty/mbedTLS/library/error.c:0:13
	ldr	r0, .LCPI0_653
	.loc	1 290 13 is_stmt 1              @ ../../../ThirdParty/mbedTLS/library/error.c:290:13
	cmp	r7, r0
	bgt	.LBB0_1008
.Ltmp791:
@ %bb.1001:
	@DEBUG_VALUE: mbedtls_strerror:buf <- $r5
	@DEBUG_VALUE: mbedtls_strerror:buflen <- $r4
	.loc	1 0 13 is_stmt 0                @ ../../../ThirdParty/mbedTLS/library/error.c:0:13
	ldr	r0, .LCPI0_654
	.loc	1 290 13                        @ ../../../ThirdParty/mbedTLS/library/error.c:290:13
	cmp	r7, r0
	ble	.LBB0_1026
.Ltmp792:
@ %bb.1002:
	@DEBUG_VALUE: mbedtls_strerror:buf <- $r5
	@DEBUG_VALUE: mbedtls_strerror:buflen <- $r4
	.loc	1 0 13                          @ ../../../ThirdParty/mbedTLS/library/error.c:0:13
	ldr	r0, .LCPI0_655
	.loc	1 290 13                        @ ../../../ThirdParty/mbedTLS/library/error.c:290:13
	cmp	r7, r0
	bgt	.LBB0_1003
	b	.LBB0_1109
.Ltmp793:
.LBB0_1003:
	@DEBUG_VALUE: mbedtls_strerror:buf <- $r5
	@DEBUG_VALUE: mbedtls_strerror:buflen <- $r4
	.loc	1 0 13                          @ ../../../ThirdParty/mbedTLS/library/error.c:0:13
	ldr	r0, .LCPI0_656
	.loc	1 290 13                        @ ../../../ThirdParty/mbedTLS/library/error.c:290:13
	cmp	r7, r0
	ble	.LBB0_1004
	b	.LBB0_1152
.Ltmp794:
.LBB0_1004:
	@DEBUG_VALUE: mbedtls_strerror:buf <- $r5
	@DEBUG_VALUE: mbedtls_strerror:buflen <- $r4
	.loc	1 0 13                          @ ../../../ThirdParty/mbedTLS/library/error.c:0:13
	movw	r0, #12032
	.loc	1 290 13                        @ ../../../ThirdParty/mbedTLS/library/error.c:290:13
	cmp	r7, r0
	bne	.LBB0_1005
	bl	.LBB0_3047
.Ltmp795:
.LBB0_1005:
	@DEBUG_VALUE: mbedtls_strerror:buf <- $r5
	@DEBUG_VALUE: mbedtls_strerror:buflen <- $r4
	.loc	1 0 13                          @ ../../../ThirdParty/mbedTLS/library/error.c:0:13
	movw	r0, #12160
	.loc	1 290 13                        @ ../../../ThirdParty/mbedTLS/library/error.c:290:13
	cmp	r7, r0
	bne	.LBB0_1006
	bl	.LBB0_2870
.Ltmp796:
.LBB0_1006:
	@DEBUG_VALUE: mbedtls_strerror:buf <- $r5
	@DEBUG_VALUE: mbedtls_strerror:buflen <- $r4
	.loc	1 0 13                          @ ../../../ThirdParty/mbedTLS/library/error.c:0:13
	movw	r0, #14464
	.loc	1 290 13                        @ ../../../ThirdParty/mbedTLS/library/error.c:290:13
	cmp	r7, r0
	bne	.LBB0_1007
	bl	.LBB0_2456
.Ltmp797:
.LBB0_1007:
	bl	.LBB0_3163
.LBB0_1008:
.Ltmp798:
	@DEBUG_VALUE: mbedtls_strerror:buf <- $r5
	@DEBUG_VALUE: mbedtls_strerror:buflen <- $r4
	.loc	1 0 13                          @ ../../../ThirdParty/mbedTLS/library/error.c:0:13
	ldr	r0, .LCPI0_657
	.loc	1 290 13                        @ ../../../ThirdParty/mbedTLS/library/error.c:290:13
	cmp	r7, r0
	ldr	r1, .LCPI0_658
	ble	.LBB0_1032
.Ltmp799:
@ %bb.1009:
	@DEBUG_VALUE: mbedtls_strerror:buf <- $r5
	@DEBUG_VALUE: mbedtls_strerror:buflen <- $r4
	.loc	1 0 13                          @ ../../../ThirdParty/mbedTLS/library/error.c:0:13
	ldr	r0, __arm_cp.0_649
	.loc	1 290 13                        @ ../../../ThirdParty/mbedTLS/library/error.c:290:13
	cmp	r7, r0
	bgt	.LBB0_1010
	b	.LBB0_1112
.Ltmp800:
.LBB0_1010:
	@DEBUG_VALUE: mbedtls_strerror:buf <- $r5
	@DEBUG_VALUE: mbedtls_strerror:buflen <- $r4
	.loc	1 0 13                          @ ../../../ThirdParty/mbedTLS/library/error.c:0:13
	ldr	r0, .LCPI0_659
	.loc	1 290 13                        @ ../../../ThirdParty/mbedTLS/library/error.c:290:13
	cmp	r7, r0
	ble	.LBB0_1011
	b	.LBB0_1156
.Ltmp801:
.LBB0_1011:
	@DEBUG_VALUE: mbedtls_strerror:buf <- $r5
	@DEBUG_VALUE: mbedtls_strerror:buflen <- $r4
	.loc	1 0 13                          @ ../../../ThirdParty/mbedTLS/library/error.c:0:13
	movw	r0, #19584
	.loc	1 290 13                        @ ../../../ThirdParty/mbedTLS/library/error.c:290:13
	cmp	r7, r0
	bne	.LBB0_1012
	b	.LBB0_1082
.Ltmp802:
.LBB0_1012:
	@DEBUG_VALUE: mbedtls_strerror:buf <- $r5
	@DEBUG_VALUE: mbedtls_strerror:buflen <- $r4
	.loc	1 0 13                          @ ../../../ThirdParty/mbedTLS/library/error.c:0:13
	movw	r0, #20608
	.loc	1 290 13                        @ ../../../ThirdParty/mbedTLS/library/error.c:290:13
	cmp	r7, r0
	bne	.LBB0_1013
	b	.LBB0_1231
.Ltmp803:
.LBB0_1013:
	@DEBUG_VALUE: mbedtls_strerror:buf <- $r5
	@DEBUG_VALUE: mbedtls_strerror:buflen <- $r4
	.loc	1 0 13                          @ ../../../ThirdParty/mbedTLS/library/error.c:0:13
	movw	r0, #20736
	.loc	1 290 13                        @ ../../../ThirdParty/mbedTLS/library/error.c:290:13
	cmp	r7, r0
	bne	.LBB0_1014
	b	.LBB0_1249
.Ltmp804:
.LBB0_1014:
	bl	.LBB0_3163
@ %bb.1015:
@ %bb.1016:
@ %bb.1017:
	.p2align	2
@ %bb.1018:
	.loc	1 0 13                          @ ../../../ThirdParty/mbedTLS/library/error.c:0:13
.LCPI0_1452:
	.long	15871                           @ 0x3dff
	.p2align	2
@ %bb.1019:
__arm_cp.0_1453:
	.long	.L.str.22
.Lcpi_end44:
	.size	__arm_cp.0_1453, .Lcpi_end44-__arm_cp.0_1453
	.p2align	2
@ %bb.1020:
.LCPI0_1454:
	.long	16127                           @ 0x3eff
	.p2align	2
@ %bb.1021:
.LCPI0_1751:
	.long	20735                           @ 0x50ff
	.p2align	2
@ %bb.1022:
.LCPI0_1752:
	.long	20991                           @ 0x51ff
	.p2align	2
@ %bb.1023:
.LCPI0_1753:
	.long	4991                            @ 0x137f
	.p2align	2
@ %bb.1024:
.LCPI0_1754:
	.long	4607                            @ 0x11ff
	.p2align	2
@ %bb.1025:
__arm_cp.0_1755:
	.long	19327                           @ 0x4b7f
.Lcpi_end45:
	.size	__arm_cp.0_1755, .Lcpi_end45-__arm_cp.0_1755
	.p2align	1
.LBB0_1026:
.Ltmp805:
	@DEBUG_VALUE: mbedtls_strerror:buf <- $r5
	@DEBUG_VALUE: mbedtls_strerror:buflen <- $r4
	ldr	r0, .LCPI0_660
	.loc	1 290 13                        @ ../../../ThirdParty/mbedTLS/library/error.c:290:13
	cmp	r7, r0
	ble	.LBB0_1027
	b	.LBB0_1117
.Ltmp806:
.LBB0_1027:
	@DEBUG_VALUE: mbedtls_strerror:buf <- $r5
	@DEBUG_VALUE: mbedtls_strerror:buflen <- $r4
	.loc	1 0 13                          @ ../../../ThirdParty/mbedTLS/library/error.c:0:13
	ldr	r0, .LCPI0_661
	.loc	1 290 13                        @ ../../../ThirdParty/mbedTLS/library/error.c:290:13
	cmp	r7, r0
	bgt	.LBB0_1028
	bl	.LBB0_1442
.Ltmp807:
.LBB0_1028:
	@DEBUG_VALUE: mbedtls_strerror:buf <- $r5
	@DEBUG_VALUE: mbedtls_strerror:buflen <- $r4
	.loc	1 0 13                          @ ../../../ThirdParty/mbedTLS/library/error.c:0:13
	movw	r0, #4480
	.loc	1 290 13                        @ ../../../ThirdParty/mbedTLS/library/error.c:290:13
	cmp	r7, r0
	bne	.LBB0_1029
	bl	.LBB0_1495
.Ltmp808:
.LBB0_1029:
	@DEBUG_VALUE: mbedtls_strerror:buf <- $r5
	@DEBUG_VALUE: mbedtls_strerror:buflen <- $r4
	.loc	1 0 13                          @ ../../../ThirdParty/mbedTLS/library/error.c:0:13
	movw	r0, #4608
	.loc	1 290 13                        @ ../../../ThirdParty/mbedTLS/library/error.c:290:13
	cmp	r7, r0
	bne	.LBB0_1030
	bl	.LBB0_1502
.Ltmp809:
.LBB0_1030:
	@DEBUG_VALUE: mbedtls_strerror:buf <- $r5
	@DEBUG_VALUE: mbedtls_strerror:buflen <- $r4
	.loc	1 0 13                          @ ../../../ThirdParty/mbedTLS/library/error.c:0:13
	movw	r0, #4736
	.loc	1 290 13                        @ ../../../ThirdParty/mbedTLS/library/error.c:290:13
	cmp	r7, r0
	bne	.LBB0_1031
	bl	.LBB0_1507
.Ltmp810:
.LBB0_1031:
	bl	.LBB0_3163
.LBB0_1032:
.Ltmp811:
	@DEBUG_VALUE: mbedtls_strerror:buf <- $r5
	@DEBUG_VALUE: mbedtls_strerror:buflen <- $r4
	.loc	1 0 13                          @ ../../../ThirdParty/mbedTLS/library/error.c:0:13
	ldr	r0, .LCPI0_651
	.loc	1 290 13                        @ ../../../ThirdParty/mbedTLS/library/error.c:290:13
	cmp	r7, r0
	ble	.LBB0_1033
	b	.LBB0_1122
.Ltmp812:
.LBB0_1033:
	@DEBUG_VALUE: mbedtls_strerror:buf <- $r5
	@DEBUG_VALUE: mbedtls_strerror:buflen <- $r4
	cmp	r7, r1
	bgt	.LBB0_1034
	bl	.LBB0_1445
.Ltmp813:
.LBB0_1034:
	@DEBUG_VALUE: mbedtls_strerror:buf <- $r5
	@DEBUG_VALUE: mbedtls_strerror:buflen <- $r4
	.loc	1 0 13                          @ ../../../ThirdParty/mbedTLS/library/error.c:0:13
	movw	r0, #15232
	.loc	1 290 13                        @ ../../../ThirdParty/mbedTLS/library/error.c:290:13
	cmp	r7, r0
	bne	.LBB0_1035
	bl	.LBB0_2301
.Ltmp814:
.LBB0_1035:
	@DEBUG_VALUE: mbedtls_strerror:buf <- $r5
	@DEBUG_VALUE: mbedtls_strerror:buflen <- $r4
	.loc	1 0 13                          @ ../../../ThirdParty/mbedTLS/library/error.c:0:13
	movw	r0, #15360
	.loc	1 290 13                        @ ../../../ThirdParty/mbedTLS/library/error.c:290:13
	cmp	r7, r0
	bne	.LBB0_1036
	bl	.LBB0_1926
.Ltmp815:
.LBB0_1036:
	@DEBUG_VALUE: mbedtls_strerror:buf <- $r5
	@DEBUG_VALUE: mbedtls_strerror:buflen <- $r4
	.loc	1 0 13                          @ ../../../ThirdParty/mbedTLS/library/error.c:0:13
	movw	r0, #15488
	.loc	1 290 13                        @ ../../../ThirdParty/mbedTLS/library/error.c:290:13
	cmp	r7, r0
	bne	.LBB0_1037
	bl	.LBB0_2165
.Ltmp816:
.LBB0_1037:
	bl	.LBB0_3163
.LBB0_1038:
.Ltmp817:
	@DEBUG_VALUE: mbedtls_strerror:buf <- $r5
	@DEBUG_VALUE: mbedtls_strerror:buflen <- $r4
	.loc	1 0 13                          @ ../../../ThirdParty/mbedTLS/library/error.c:0:13
	movw	r0, #4608
	.loc	1 288 13 is_stmt 1              @ ../../../ThirdParty/mbedTLS/library/error.c:288:13
	cmp	r7, r0
	bne	.LBB0_1039
	bl	.LBB0_1502
.Ltmp818:
.LBB0_1039:
	@DEBUG_VALUE: mbedtls_strerror:buf <- $r5
	@DEBUG_VALUE: mbedtls_strerror:buflen <- $r4
	.loc	1 0 13 is_stmt 0                @ ../../../ThirdParty/mbedTLS/library/error.c:0:13
	movw	r0, #4736
	.loc	1 288 13                        @ ../../../ThirdParty/mbedTLS/library/error.c:288:13
	cmp	r7, r0
	bne	.LBB0_1040
	bl	.LBB0_1507
.Ltmp819:
.LBB0_1040:
	@DEBUG_VALUE: mbedtls_strerror:buf <- $r5
	@DEBUG_VALUE: mbedtls_strerror:buflen <- $r4
	.loc	1 0 13                          @ ../../../ThirdParty/mbedTLS/library/error.c:0:13
	movw	r0, #4864
	.loc	1 288 13                        @ ../../../ThirdParty/mbedTLS/library/error.c:288:13
	cmp	r7, r0
	bne	.LBB0_1041
	bl	.LBB0_1629
.Ltmp820:
.LBB0_1041:
	bl	.LBB0_2157
.LBB0_1042:
.Ltmp821:
	@DEBUG_VALUE: mbedtls_strerror:buf <- $r5
	@DEBUG_VALUE: mbedtls_strerror:buflen <- $r4
	.loc	1 0 13                          @ ../../../ThirdParty/mbedTLS/library/error.c:0:13
	movw	r0, #19200
	.loc	1 288 13                        @ ../../../ThirdParty/mbedTLS/library/error.c:288:13
	cmp	r7, r0
	bne	.LBB0_1043
	b	.LBB0_1202
.Ltmp822:
.LBB0_1043:
	@DEBUG_VALUE: mbedtls_strerror:buf <- $r5
	@DEBUG_VALUE: mbedtls_strerror:buflen <- $r4
	.loc	1 0 13                          @ ../../../ThirdParty/mbedTLS/library/error.c:0:13
	movw	r0, #19328
	.loc	1 288 13                        @ ../../../ThirdParty/mbedTLS/library/error.c:288:13
	cmp	r7, r0
	bne	.LBB0_1044
	b	.LBB0_1177
.Ltmp823:
.LBB0_1044:
	@DEBUG_VALUE: mbedtls_strerror:buf <- $r5
	@DEBUG_VALUE: mbedtls_strerror:buflen <- $r4
	.loc	1 0 13                          @ ../../../ThirdParty/mbedTLS/library/error.c:0:13
	movw	r0, #19456
	.loc	1 288 13                        @ ../../../ThirdParty/mbedTLS/library/error.c:288:13
	cmp	r7, r0
	bne	.LBB0_1045
	b	.LBB0_1172
.Ltmp824:
.LBB0_1045:
	bl	.LBB0_2157
.LBB0_1046:
.Ltmp825:
	@DEBUG_VALUE: mbedtls_strerror:buf <- $r5
	@DEBUG_VALUE: mbedtls_strerror:buflen <- $r4
	.loc	1 0 13                          @ ../../../ThirdParty/mbedTLS/library/error.c:0:13
	movw	r0, #15616
	.loc	1 288 13                        @ ../../../ThirdParty/mbedTLS/library/error.c:288:13
	cmp	r7, r0
	bne	.LBB0_1047
	bl	.LBB0_2156
.Ltmp826:
.LBB0_1047:
	@DEBUG_VALUE: mbedtls_strerror:buf <- $r5
	@DEBUG_VALUE: mbedtls_strerror:buflen <- $r4
	.loc	1 0 13                          @ ../../../ThirdParty/mbedTLS/library/error.c:0:13
	movw	r0, #15744
	.loc	1 288 13                        @ ../../../ThirdParty/mbedTLS/library/error.c:288:13
	cmp	r7, r0
	bne	.LBB0_1048
	bl	.LBB0_2148
.Ltmp827:
.LBB0_1048:
	@DEBUG_VALUE: mbedtls_strerror:buf <- $r5
	@DEBUG_VALUE: mbedtls_strerror:buflen <- $r4
	.loc	1 0 13                          @ ../../../ThirdParty/mbedTLS/library/error.c:0:13
	movw	r0, #15872
	.loc	1 288 13                        @ ../../../ThirdParty/mbedTLS/library/error.c:288:13
	cmp	r7, r0
	bne	.LBB0_1049
	bl	.LBB0_1934
.Ltmp828:
.LBB0_1049:
	bl	.LBB0_2157
.LBB0_1050:
.Ltmp829:
	@DEBUG_VALUE: mbedtls_strerror:buf <- $r5
	@DEBUG_VALUE: mbedtls_strerror:buflen <- $r4
	.loc	1 0 13                          @ ../../../ThirdParty/mbedTLS/library/error.c:0:13
	movw	r0, #4224
	.loc	1 282 13 is_stmt 1              @ ../../../ThirdParty/mbedTLS/library/error.c:282:13
	cmp	r7, r0
	bne	.LBB0_1051
	bl	.LBB0_1356
.Ltmp830:
.LBB0_1051:
	@DEBUG_VALUE: mbedtls_strerror:buf <- $r5
	@DEBUG_VALUE: mbedtls_strerror:buflen <- $r4
	.loc	1 0 13 is_stmt 0                @ ../../../ThirdParty/mbedTLS/library/error.c:0:13
	movw	r0, #4352
	.loc	1 282 13                        @ ../../../ThirdParty/mbedTLS/library/error.c:282:13
	cmp	r7, r0
	bne	.LBB0_1052
	bl	.LBB0_1492
.Ltmp831:
.LBB0_1052:
	bl	.LBB0_1814
@ %bb.1053:
@ %bb.1054:
@ %bb.1055:
@ %bb.1056:
@ %bb.1057:
@ %bb.1058:
	.p2align	2
@ %bb.1059:
	.loc	1 0 13                          @ ../../../ThirdParty/mbedTLS/library/error.c:0:13
.LCPI0_641:
	.long	20735                           @ 0x50ff
	.p2align	2
@ %bb.1060:
.LCPI0_642:
	.long	20991                           @ 0x51ff
	.p2align	2
@ %bb.1061:
.LCPI0_643:
	.long	4991                            @ 0x137f
	.p2align	2
@ %bb.1062:
.LCPI0_644:
	.long	4607                            @ 0x11ff
@ %bb.1063:
	.p2align	2
@ %bb.1064:
.LCPI0_646:
	.long	15743                           @ 0x3d7f
	.p2align	2
@ %bb.1065:
__arm_cp.0_647:
	.long	.L.str.23
.Lcpi_end46:
	.size	__arm_cp.0_647, .Lcpi_end46-__arm_cp.0_647
	.p2align	2
@ %bb.1066:
.LCPI0_648:
	.long	15999                           @ 0x3e7f
	.p2align	2
@ %bb.1067:
__arm_cp.0_649:
	.long	19583                           @ 0x4c7f
.Lcpi_end47:
	.size	__arm_cp.0_649, .Lcpi_end47-__arm_cp.0_649
	.p2align	2
@ %bb.1068:
.LCPI0_650:
	.long	19199                           @ 0x4aff
	.p2align	2
@ %bb.1069:
.LCPI0_651:
	.long	15615                           @ 0x3cff
	.p2align	2
@ %bb.1070:
__arm_cp.0_652:
	.long	.L.str.24
.Lcpi_end48:
	.size	__arm_cp.0_652, .Lcpi_end48-__arm_cp.0_652
	.p2align	2
@ %bb.1071:
.LCPI0_653:
	.long	14975                           @ 0x3a7f
	.p2align	2
@ %bb.1072:
.LCPI0_654:
	.long	7807                            @ 0x1e7f
	.p2align	2
@ %bb.1073:
.LCPI0_655:
	.long	12031                           @ 0x2eff
	.p2align	2
@ %bb.1074:
.LCPI0_656:
	.long	14591                           @ 0x38ff
	.p2align	2
@ %bb.1075:
.LCPI0_657:
	.long	16255                           @ 0x3f7f
	.p2align	2
@ %bb.1076:
.LCPI0_658:
	.long	15231                           @ 0x3b7f
	.p2align	2
@ %bb.1077:
.LCPI0_659:
	.long	20863                           @ 0x517f
	.p2align	2
@ %bb.1078:
.LCPI0_660:
	.long	4863                            @ 0x12ff
	.p2align	2
@ %bb.1079:
.LCPI0_661:
	.long	4479                            @ 0x117f
	.p2align	1
.LBB0_1080:
.Ltmp832:
	@DEBUG_VALUE: mbedtls_strerror:buf <- $r5
	@DEBUG_VALUE: mbedtls_strerror:buflen <- $r4
	movw	r0, #19456
	.loc	1 282 13                        @ ../../../ThirdParty/mbedTLS/library/error.c:282:13
	cmp	r7, r0
	bne	.LBB0_1081
	b	.LBB0_1172
.Ltmp833:
.LBB0_1081:
	@DEBUG_VALUE: mbedtls_strerror:buf <- $r5
	@DEBUG_VALUE: mbedtls_strerror:buflen <- $r4
	.loc	1 0 13                          @ ../../../ThirdParty/mbedTLS/library/error.c:0:13
	movw	r0, #19584
	.loc	1 282 13                        @ ../../../ThirdParty/mbedTLS/library/error.c:282:13
	cmp	r7, r0
	beq	.LBB0_1082
	bl	.LBB0_1814
.Ltmp834:
.LBB0_1082:
	@DEBUG_VALUE: mbedtls_strerror:buf <- $r5
	@DEBUG_VALUE: mbedtls_strerror:buflen <- $r4
	.loc	1 291 13 is_stmt 1              @ ../../../ThirdParty/mbedTLS/library/error.c:291:13
	ldr	r2, __arm_cp.0_1756
	mov	r0, r5
	mov	r1, r4
	bl	__2snprintf
.Ltmp835:
.LBB0_1083:
	@DEBUG_VALUE: mbedtls_strerror:buf <- $r5
	@DEBUG_VALUE: mbedtls_strerror:buflen <- $r4
	.loc	1 0 13 is_stmt 0                @ ../../../ThirdParty/mbedTLS/library/error.c:0:13
	ldr	r0, .LCPI0_1757
	.loc	1 292 13 is_stmt 1              @ ../../../ThirdParty/mbedTLS/library/error.c:292:13
	cmp	r7, r0
	bgt	.LBB0_1090
.Ltmp836:
@ %bb.1084:
	@DEBUG_VALUE: mbedtls_strerror:buf <- $r5
	@DEBUG_VALUE: mbedtls_strerror:buflen <- $r4
	.loc	1 0 13 is_stmt 0                @ ../../../ThirdParty/mbedTLS/library/error.c:0:13
	ldr	r0, .LCPI0_1758
	.loc	1 292 13                        @ ../../../ThirdParty/mbedTLS/library/error.c:292:13
	cmp	r7, r0
	bgt	.LBB0_1096
.Ltmp837:
@ %bb.1085:
	@DEBUG_VALUE: mbedtls_strerror:buf <- $r5
	@DEBUG_VALUE: mbedtls_strerror:buflen <- $r4
	.loc	1 0 13                          @ ../../../ThirdParty/mbedTLS/library/error.c:0:13
	ldr	r0, .LCPI0_1759
	.loc	1 292 13                        @ ../../../ThirdParty/mbedTLS/library/error.c:292:13
	cmp	r7, r0
	ble	.LBB0_1086
	b	.LBB0_1127
.Ltmp838:
.LBB0_1086:
	@DEBUG_VALUE: mbedtls_strerror:buf <- $r5
	@DEBUG_VALUE: mbedtls_strerror:buflen <- $r4
	.loc	1 0 13                          @ ../../../ThirdParty/mbedTLS/library/error.c:0:13
	ldr	r0, .LCPI0_1760
	.loc	1 292 13                        @ ../../../ThirdParty/mbedTLS/library/error.c:292:13
	cmp	r7, r0
	ble	.LBB0_1087
	b	.LBB0_1160
.Ltmp839:
.LBB0_1087:
	@DEBUG_VALUE: mbedtls_strerror:buf <- $r5
	@DEBUG_VALUE: mbedtls_strerror:buflen <- $r4
	.loc	1 0 13                          @ ../../../ThirdParty/mbedTLS/library/error.c:0:13
	movw	r0, #4224
	.loc	1 292 13                        @ ../../../ThirdParty/mbedTLS/library/error.c:292:13
	cmp	r7, r0
	bne	.LBB0_1088
	bl	.LBB0_1356
.Ltmp840:
.LBB0_1088:
	@DEBUG_VALUE: mbedtls_strerror:buf <- $r5
	@DEBUG_VALUE: mbedtls_strerror:buflen <- $r4
	.loc	1 0 13                          @ ../../../ThirdParty/mbedTLS/library/error.c:0:13
	movw	r0, #4352
	.loc	1 292 13                        @ ../../../ThirdParty/mbedTLS/library/error.c:292:13
	cmp	r7, r0
	bne	.LBB0_1089
	bl	.LBB0_1492
.Ltmp841:
.LBB0_1089:
	bl	.LBB0_2457
.LBB0_1090:
.Ltmp842:
	@DEBUG_VALUE: mbedtls_strerror:buf <- $r5
	@DEBUG_VALUE: mbedtls_strerror:buflen <- $r4
	.loc	1 0 13                          @ ../../../ThirdParty/mbedTLS/library/error.c:0:13
	ldr	r0, .LCPI0_1761
	.loc	1 292 13                        @ ../../../ThirdParty/mbedTLS/library/error.c:292:13
	cmp	r7, r0
	bgt	.LBB0_1101
.Ltmp843:
@ %bb.1091:
	@DEBUG_VALUE: mbedtls_strerror:buf <- $r5
	@DEBUG_VALUE: mbedtls_strerror:buflen <- $r4
	.loc	1 0 13                          @ ../../../ThirdParty/mbedTLS/library/error.c:0:13
	ldr	r0, .LCPI0_1762
	.loc	1 292 13                        @ ../../../ThirdParty/mbedTLS/library/error.c:292:13
	cmp	r7, r0
	ble	.LBB0_1092
	b	.LBB0_1131
.Ltmp844:
.LBB0_1092:
	@DEBUG_VALUE: mbedtls_strerror:buf <- $r5
	@DEBUG_VALUE: mbedtls_strerror:buflen <- $r4
	.loc	1 0 13                          @ ../../../ThirdParty/mbedTLS/library/error.c:0:13
	ldr	r0, .LCPI0_1763
	.loc	1 292 13                        @ ../../../ThirdParty/mbedTLS/library/error.c:292:13
	cmp	r7, r0
	ble	.LBB0_1093
	b	.LBB0_1163
.Ltmp845:
.LBB0_1093:
	@DEBUG_VALUE: mbedtls_strerror:buf <- $r5
	@DEBUG_VALUE: mbedtls_strerror:buflen <- $r4
	.loc	1 0 13                          @ ../../../ThirdParty/mbedTLS/library/error.c:0:13
	movw	r0, #15360
	.loc	1 292 13                        @ ../../../ThirdParty/mbedTLS/library/error.c:292:13
	cmp	r7, r0
	bne	.LBB0_1094
	bl	.LBB0_1926
.Ltmp846:
.LBB0_1094:
	@DEBUG_VALUE: mbedtls_strerror:buf <- $r5
	@DEBUG_VALUE: mbedtls_strerror:buflen <- $r4
	.loc	1 0 13                          @ ../../../ThirdParty/mbedTLS/library/error.c:0:13
	movw	r0, #15488
	.loc	1 292 13                        @ ../../../ThirdParty/mbedTLS/library/error.c:292:13
	cmp	r7, r0
	bne	.LBB0_1095
	bl	.LBB0_2165
.Ltmp847:
.LBB0_1095:
	bl	.LBB0_2457
.LBB0_1096:
.Ltmp848:
	@DEBUG_VALUE: mbedtls_strerror:buf <- $r5
	@DEBUG_VALUE: mbedtls_strerror:buflen <- $r4
	.loc	1 0 13                          @ ../../../ThirdParty/mbedTLS/library/error.c:0:13
	ldr	r0, .LCPI0_1764
	.loc	1 292 13                        @ ../../../ThirdParty/mbedTLS/library/error.c:292:13
	cmp	r7, r0
	ble	.LBB0_1097
	b	.LBB0_1135
.Ltmp849:
.LBB0_1097:
	@DEBUG_VALUE: mbedtls_strerror:buf <- $r5
	@DEBUG_VALUE: mbedtls_strerror:buflen <- $r4
	.loc	1 0 13                          @ ../../../ThirdParty/mbedTLS/library/error.c:0:13
	ldr	r0, .LCPI0_1765
	.loc	1 292 13                        @ ../../../ThirdParty/mbedTLS/library/error.c:292:13
	cmp	r7, r0
	ble	.LBB0_1098
	b	.LBB0_1166
.Ltmp850:
.LBB0_1098:
	@DEBUG_VALUE: mbedtls_strerror:buf <- $r5
	@DEBUG_VALUE: mbedtls_strerror:buflen <- $r4
	.loc	1 0 13                          @ ../../../ThirdParty/mbedTLS/library/error.c:0:13
	movw	r0, #5248
	.loc	1 292 13                        @ ../../../ThirdParty/mbedTLS/library/error.c:292:13
	cmp	r7, r0
	bne	.LBB0_1099
	bl	.LBB0_1821
.Ltmp851:
.LBB0_1099:
	@DEBUG_VALUE: mbedtls_strerror:buf <- $r5
	@DEBUG_VALUE: mbedtls_strerror:buflen <- $r4
	.loc	1 0 13                          @ ../../../ThirdParty/mbedTLS/library/error.c:0:13
	movw	r0, #14464
	.loc	1 292 13                        @ ../../../ThirdParty/mbedTLS/library/error.c:292:13
	cmp	r7, r0
	bne	.LBB0_1100
	bl	.LBB0_2456
.Ltmp852:
.LBB0_1100:
	bl	.LBB0_2457
.LBB0_1101:
.Ltmp853:
	@DEBUG_VALUE: mbedtls_strerror:buf <- $r5
	@DEBUG_VALUE: mbedtls_strerror:buflen <- $r4
