	.text
	.syntax unified
	.eabi_attribute	67, "2.09"	@ Tag_conformance
	.cpu	cortex-m23
	.eabi_attribute	6, 16	@ Tag_CPU_arch
	.eabi_attribute	7, 77	@ Tag_CPU_arch_profile
	.eabi_attribute	8, 0	@ Tag_ARM_ISA_use
	.eabi_attribute	9, 3	@ Tag_THUMB_ISA_use
	.eabi_attribute	34, 0	@ Tag_CPU_unaligned_access
	.eabi_attribute	17, 1	@ Tag_ABI_PCS_GOT_use
	.eabi_attribute	20, 2	@ Tag_ABI_FP_denormal
	.eabi_attribute	21, 0	@ Tag_ABI_FP_exceptions
	.eabi_attribute	23, 1	@ Tag_ABI_FP_number_model
	.eabi_attribute	24, 1	@ Tag_ABI_align_needed
	.eabi_attribute	25, 1	@ Tag_ABI_align_preserved
	.eabi_attribute	38, 1	@ Tag_ABI_FP_16bit_format
	.eabi_attribute	18, 2	@ Tag_ABI_PCS_wchar_t
	.eabi_attribute	26, 1	@ Tag_ABI_enum_size
	.eabi_attribute	14, 0	@ Tag_ABI_PCS_R9_use
	.file	"ESP8266_Serial.c"
	.file	1 "C:\\" "Keil_v5\\ARM\\ARMCLANG\\Bin\\..\\include\\stdint.h"
	.file	2 "C:/Users/shw26/AppData/Local/Arm/Packs/ARM/CMSIS-Driver/2.6.1/WiFi/ESP8266" "ESP8266_Serial.c"
	.file	3 "C:/Users/shw26/AppData/Local/Arm/Packs/ARM/CMSIS/5.7.0/CMSIS/Driver/Include" "Driver_Common.h"
	.file	4 "C:/Users/shw26/AppData/Local/Arm/Packs/ARM/CMSIS/5.7.0/CMSIS/Driver/Include" "Driver_USART.h"
	.section	.text.Serial_Initialize,"ax",%progbits
	.hidden	Serial_Initialize               @ -- Begin function Serial_Initialize
	.globl	Serial_Initialize
	.p2align	2
	.type	Serial_Initialize,%function
	.code	16                              @ @Serial_Initialize
	.thumb_func
Serial_Initialize:
.Lfunc_begin0:
	.loc	2 76 0                          @ C:/Users/shw26/AppData/Local/Arm/Packs/ARM/CMSIS-Driver/2.6.1/WiFi/ESP8266/ESP8266_Serial.c:76:0
	.fnstart
	.cfi_sections .debug_frame
	.cfi_startproc
@ %bb.0:
	.save	{r4, r5, r6, r7, lr}
	push	{r4, r5, r6, r7, lr}
	.cfi_def_cfa_offset 20
	.cfi_offset lr, -4
	.cfi_offset r7, -8
	.cfi_offset r6, -12
	.cfi_offset r5, -16
	.cfi_offset r4, -20
	.pad	#4
	sub	sp, #4
	.cfi_def_cfa_offset 24
.Ltmp0:
	.loc	2 83 11 prologue_end            @ C:/Users/shw26/AppData/Local/Arm/Packs/ARM/CMSIS-Driver/2.6.1/WiFi/ESP8266/ESP8266_Serial.c:83:11
	ldr	r0, __arm_cp.0_0
	movs	r1, #0
	str	r1, [r0]
	.loc	2 82 11                         @ C:/Users/shw26/AppData/Local/Arm/Packs/ARM/CMSIS-Driver/2.6.1/WiFi/ESP8266/ESP8266_Serial.c:82:11
	ldr	r0, __arm_cp.0_1
	str	r1, [r0]
	.loc	2 85 11                         @ C:/Users/shw26/AppData/Local/Arm/Packs/ARM/CMSIS-Driver/2.6.1/WiFi/ESP8266/ESP8266_Serial.c:85:11
	ldr	r0, __arm_cp.0_2
	strb	r1, [r0]
	.loc	2 88 12                         @ C:/Users/shw26/AppData/Local/Arm/Packs/ARM/CMSIS-Driver/2.6.1/WiFi/ESP8266/ESP8266_Serial.c:88:12
	ldr	r7, __arm_cp.0_3
	movs	r5, #1
	str	r5, [r7]
	movs	r0, #225
	lsls	r0, r0, #9
	.loc	2 93 16                         @ C:/Users/shw26/AppData/Local/Arm/Packs/ARM/CMSIS-Driver/2.6.1/WiFi/ESP8266/ESP8266_Serial.c:93:16
	ldr	r1, __arm_cp.0_4
	str	r0, [r1]
	.loc	2 96 20                         @ C:/Users/shw26/AppData/Local/Arm/Packs/ARM/CMSIS-Driver/2.6.1/WiFi/ESP8266/ESP8266_Serial.c:96:20
	ldr	r6, __arm_cp.0_5
	ldr	r0, [r6, #4]
	.loc	2 96 11 is_stmt 0               @ C:/Users/shw26/AppData/Local/Arm/Packs/ARM/CMSIS-Driver/2.6.1/WiFi/ESP8266/ESP8266_Serial.c:96:11
	blx	r0
	mov	r4, r0
.Ltmp1:
	@DEBUG_VALUE: Serial_Initialize:capab <- [DW_OP_constu 16, DW_OP_shr, DW_OP_LLVM_convert 32 7, DW_OP_LLVM_convert 16 7, DW_OP_stack_value, DW_OP_LLVM_fragment 16 16] $r4
	@DEBUG_VALUE: Serial_Initialize:capab <- [DW_OP_constu 10, DW_OP_shr, DW_OP_LLVM_convert 32 7, DW_OP_LLVM_convert 8 7, DW_OP_stack_value, DW_OP_LLVM_fragment 8 8] $r4
	@DEBUG_VALUE: Serial_Initialize:capab <- [DW_OP_LLVM_convert 32 7, DW_OP_LLVM_convert 8 7, DW_OP_stack_value, DW_OP_LLVM_fragment 0 8] $r4
	.loc	2 0 11                          @ C:/Users/shw26/AppData/Local/Arm/Packs/ARM/CMSIS-Driver/2.6.1/WiFi/ESP8266/ESP8266_Serial.c:0:11
	movw	r0, #384
.Ltmp2:
	.loc	2 98 38 is_stmt 1               @ C:/Users/shw26/AppData/Local/Arm/Packs/ARM/CMSIS-Driver/2.6.1/WiFi/ESP8266/ESP8266_Serial.c:98:38
	mov	r1, r4
	ands	r1, r0
	cmp	r1, r0
	bne	.LBB0_2
.Ltmp3:
@ %bb.1:
	@DEBUG_VALUE: Serial_Initialize:capab <- [DW_OP_LLVM_convert 32 7, DW_OP_LLVM_convert 8 7, DW_OP_stack_value, DW_OP_LLVM_fragment 0 8] $r4
	@DEBUG_VALUE: Serial_Initialize:capab <- [DW_OP_constu 10, DW_OP_shr, DW_OP_LLVM_convert 32 7, DW_OP_LLVM_convert 8 7, DW_OP_stack_value, DW_OP_LLVM_fragment 8 8] $r4
	@DEBUG_VALUE: Serial_Initialize:capab <- [DW_OP_constu 16, DW_OP_shr, DW_OP_LLVM_convert 32 7, DW_OP_LLVM_convert 16 7, DW_OP_stack_value, DW_OP_LLVM_fragment 16 16] $r4
	.loc	2 0 38 is_stmt 0                @ C:/Users/shw26/AppData/Local/Arm/Packs/ARM/CMSIS-Driver/2.6.1/WiFi/ESP8266/ESP8266_Serial.c:0:38
	movs	r0, #3
	lsls	r1, r0, #16
	b	.LBB0_5
.Ltmp4:
.LBB0_2:
	@DEBUG_VALUE: Serial_Initialize:capab <- [DW_OP_LLVM_convert 32 7, DW_OP_LLVM_convert 8 7, DW_OP_stack_value, DW_OP_LLVM_fragment 0 8] $r4
	@DEBUG_VALUE: Serial_Initialize:capab <- [DW_OP_constu 10, DW_OP_shr, DW_OP_LLVM_convert 32 7, DW_OP_LLVM_convert 8 7, DW_OP_stack_value, DW_OP_LLVM_fragment 8 8] $r4
	@DEBUG_VALUE: Serial_Initialize:capab <- [DW_OP_constu 16, DW_OP_shr, DW_OP_LLVM_convert 32 7, DW_OP_LLVM_convert 16 7, DW_OP_stack_value, DW_OP_LLVM_fragment 16 16] $r4
	.loc	2 98 31                         @ C:/Users/shw26/AppData/Local/Arm/Packs/ARM/CMSIS-Driver/2.6.1/WiFi/ESP8266/ESP8266_Serial.c:98:31
	movw	r1, #384
	subs	r1, #128
	.loc	2 102 12 is_stmt 1              @ C:/Users/shw26/AppData/Local/Arm/Packs/ARM/CMSIS-Driver/2.6.1/WiFi/ESP8266/ESP8266_Serial.c:102:12
	tst	r4, r1
	beq	.LBB0_4
.Ltmp5:
@ %bb.3:
	@DEBUG_VALUE: Serial_Initialize:capab <- [DW_OP_LLVM_convert 32 7, DW_OP_LLVM_convert 8 7, DW_OP_stack_value, DW_OP_LLVM_fragment 0 8] $r4
	@DEBUG_VALUE: Serial_Initialize:capab <- [DW_OP_constu 10, DW_OP_shr, DW_OP_LLVM_convert 32 7, DW_OP_LLVM_convert 8 7, DW_OP_stack_value, DW_OP_LLVM_fragment 8 8] $r4
	@DEBUG_VALUE: Serial_Initialize:capab <- [DW_OP_constu 16, DW_OP_shr, DW_OP_LLVM_convert 32 7, DW_OP_LLVM_convert 16 7, DW_OP_stack_value, DW_OP_LLVM_fragment 16 16] $r4
	.loc	2 0 12 is_stmt 0                @ C:/Users/shw26/AppData/Local/Arm/Packs/ARM/CMSIS-Driver/2.6.1/WiFi/ESP8266/ESP8266_Serial.c:0:12
	lsls	r1, r5, #17
	.loc	2 102 12                        @ C:/Users/shw26/AppData/Local/Arm/Packs/ARM/CMSIS-Driver/2.6.1/WiFi/ESP8266/ESP8266_Serial.c:102:12
	tst	r4, r0
	bne	.LBB0_5
	b	.LBB0_6
.Ltmp6:
.LBB0_4:
	@DEBUG_VALUE: Serial_Initialize:capab <- [DW_OP_LLVM_convert 32 7, DW_OP_LLVM_convert 8 7, DW_OP_stack_value, DW_OP_LLVM_fragment 0 8] $r4
	@DEBUG_VALUE: Serial_Initialize:capab <- [DW_OP_constu 10, DW_OP_shr, DW_OP_LLVM_convert 32 7, DW_OP_LLVM_convert 8 7, DW_OP_stack_value, DW_OP_LLVM_fragment 8 8] $r4
	@DEBUG_VALUE: Serial_Initialize:capab <- [DW_OP_constu 16, DW_OP_shr, DW_OP_LLVM_convert 32 7, DW_OP_LLVM_convert 16 7, DW_OP_stack_value, DW_OP_LLVM_fragment 16 16] $r4
	.loc	2 0 12                          @ C:/Users/shw26/AppData/Local/Arm/Packs/ARM/CMSIS-Driver/2.6.1/WiFi/ESP8266/ESP8266_Serial.c:0:12
	lsls	r1, r5, #16
	.loc	2 102 12                        @ C:/Users/shw26/AppData/Local/Arm/Packs/ARM/CMSIS-Driver/2.6.1/WiFi/ESP8266/ESP8266_Serial.c:102:12
	tst	r4, r0
	beq	.LBB0_6
.Ltmp7:
.LBB0_5:
	@DEBUG_VALUE: Serial_Initialize:capab <- [DW_OP_LLVM_convert 32 7, DW_OP_LLVM_convert 8 7, DW_OP_stack_value, DW_OP_LLVM_fragment 0 8] $r4
	@DEBUG_VALUE: Serial_Initialize:capab <- [DW_OP_constu 10, DW_OP_shr, DW_OP_LLVM_convert 32 7, DW_OP_LLVM_convert 8 7, DW_OP_stack_value, DW_OP_LLVM_fragment 8 8] $r4
	@DEBUG_VALUE: Serial_Initialize:capab <- [DW_OP_constu 16, DW_OP_shr, DW_OP_LLVM_convert 32 7, DW_OP_LLVM_convert 16 7, DW_OP_stack_value, DW_OP_LLVM_fragment 16 16] $r4
	.loc	2 0 0                           @ C:/Users/shw26/AppData/Local/Arm/Packs/ARM/CMSIS-Driver/2.6.1/WiFi/ESP8266/ESP8266_Serial.c:0:0
	ldr	r0, [r7]
	orrs	r0, r1
	str	r0, [r7]
.Ltmp8:
.LBB0_6:
	@DEBUG_VALUE: Serial_Initialize:capab <- [DW_OP_LLVM_convert 32 7, DW_OP_LLVM_convert 8 7, DW_OP_stack_value, DW_OP_LLVM_fragment 0 8] $r4
	@DEBUG_VALUE: Serial_Initialize:capab <- [DW_OP_constu 10, DW_OP_shr, DW_OP_LLVM_convert 32 7, DW_OP_LLVM_convert 8 7, DW_OP_stack_value, DW_OP_LLVM_fragment 8 8] $r4
	@DEBUG_VALUE: Serial_Initialize:capab <- [DW_OP_constu 16, DW_OP_shr, DW_OP_LLVM_convert 32 7, DW_OP_LLVM_convert 16 7, DW_OP_stack_value, DW_OP_LLVM_fragment 16 16] $r4
	.loc	2 116 16 is_stmt 1              @ C:/Users/shw26/AppData/Local/Arm/Packs/ARM/CMSIS-Driver/2.6.1/WiFi/ESP8266/ESP8266_Serial.c:116:16
	ldr	r1, [r6, #8]
	.loc	2 116 7 is_stmt 0               @ C:/Users/shw26/AppData/Local/Arm/Packs/ARM/CMSIS-Driver/2.6.1/WiFi/ESP8266/ESP8266_Serial.c:116:7
	ldr	r0, __arm_cp.0_6
	blx	r1
	movs	r1, #5
	mvns	r5, r1
.Ltmp9:
	.loc	2 116 7                         @ C:/Users/shw26/AppData/Local/Arm/Packs/ARM/CMSIS-Driver/2.6.1/WiFi/ESP8266/ESP8266_Serial.c:116:7
	cbz	r0, .LBB0_8
.Ltmp10:
@ %bb.7:
	@DEBUG_VALUE: Serial_Initialize:capab <- [DW_OP_LLVM_convert 32 7, DW_OP_LLVM_convert 8 7, DW_OP_stack_value, DW_OP_LLVM_fragment 0 8] $r4
	@DEBUG_VALUE: Serial_Initialize:capab <- [DW_OP_constu 10, DW_OP_shr, DW_OP_LLVM_convert 32 7, DW_OP_LLVM_convert 8 7, DW_OP_stack_value, DW_OP_LLVM_fragment 8 8] $r4
	@DEBUG_VALUE: Serial_Initialize:capab <- [DW_OP_constu 16, DW_OP_shr, DW_OP_LLVM_convert 32 7, DW_OP_LLVM_convert 16 7, DW_OP_stack_value, DW_OP_LLVM_fragment 16 16] $r4
	.loc	2 0 7                           @ C:/Users/shw26/AppData/Local/Arm/Packs/ARM/CMSIS-Driver/2.6.1/WiFi/ESP8266/ESP8266_Serial.c:0:7
	adds	r5, r5, #5
	b	.LBB0_17
.Ltmp11:
.LBB0_8:
	@DEBUG_VALUE: Serial_Initialize:capab <- [DW_OP_LLVM_convert 32 7, DW_OP_LLVM_convert 8 7, DW_OP_stack_value, DW_OP_LLVM_fragment 0 8] $r4
	@DEBUG_VALUE: Serial_Initialize:capab <- [DW_OP_constu 10, DW_OP_shr, DW_OP_LLVM_convert 32 7, DW_OP_LLVM_convert 8 7, DW_OP_stack_value, DW_OP_LLVM_fragment 8 8] $r4
	@DEBUG_VALUE: Serial_Initialize:capab <- [DW_OP_constu 16, DW_OP_shr, DW_OP_LLVM_convert 32 7, DW_OP_LLVM_convert 16 7, DW_OP_stack_value, DW_OP_LLVM_fragment 16 16] $r4
	.loc	2 120 21 is_stmt 1              @ C:/Users/shw26/AppData/Local/Arm/Packs/ARM/CMSIS-Driver/2.6.1/WiFi/ESP8266/ESP8266_Serial.c:120:21
	ldr	r1, [r6, #16]
	movs	r0, #2
	.loc	2 120 12 is_stmt 0              @ C:/Users/shw26/AppData/Local/Arm/Packs/ARM/CMSIS-Driver/2.6.1/WiFi/ESP8266/ESP8266_Serial.c:120:12
	blx	r1
.Ltmp12:
	.loc	2 120 12                        @ C:/Users/shw26/AppData/Local/Arm/Packs/ARM/CMSIS-Driver/2.6.1/WiFi/ESP8266/ESP8266_Serial.c:120:12
	cbz	r0, .LBB0_10
.Ltmp13:
@ %bb.9:
	@DEBUG_VALUE: Serial_Initialize:capab <- [DW_OP_LLVM_convert 32 7, DW_OP_LLVM_convert 8 7, DW_OP_stack_value, DW_OP_LLVM_fragment 0 8] $r4
	@DEBUG_VALUE: Serial_Initialize:capab <- [DW_OP_constu 10, DW_OP_shr, DW_OP_LLVM_convert 32 7, DW_OP_LLVM_convert 8 7, DW_OP_stack_value, DW_OP_LLVM_fragment 8 8] $r4
	@DEBUG_VALUE: Serial_Initialize:capab <- [DW_OP_constu 16, DW_OP_shr, DW_OP_LLVM_convert 32 7, DW_OP_LLVM_convert 16 7, DW_OP_stack_value, DW_OP_LLVM_fragment 16 16] $r4
	.loc	2 0 12                          @ C:/Users/shw26/AppData/Local/Arm/Packs/ARM/CMSIS-Driver/2.6.1/WiFi/ESP8266/ESP8266_Serial.c:0:12
	adds	r5, r5, #4
	b	.LBB0_17
.Ltmp14:
.LBB0_10:
	@DEBUG_VALUE: Serial_Initialize:capab <- [DW_OP_LLVM_convert 32 7, DW_OP_LLVM_convert 8 7, DW_OP_stack_value, DW_OP_LLVM_fragment 0 8] $r4
	@DEBUG_VALUE: Serial_Initialize:capab <- [DW_OP_constu 10, DW_OP_shr, DW_OP_LLVM_convert 32 7, DW_OP_LLVM_convert 8 7, DW_OP_stack_value, DW_OP_LLVM_fragment 8 8] $r4
	@DEBUG_VALUE: Serial_Initialize:capab <- [DW_OP_constu 16, DW_OP_shr, DW_OP_LLVM_convert 32 7, DW_OP_LLVM_convert 16 7, DW_OP_stack_value, DW_OP_LLVM_fragment 16 16] $r4
	.loc	2 124 44 is_stmt 1              @ C:/Users/shw26/AppData/Local/Arm/Packs/ARM/CMSIS-Driver/2.6.1/WiFi/ESP8266/ESP8266_Serial.c:124:44
	ldr	r0, __arm_cp.0_4
	ldr	r1, [r0]
	.loc	2 124 34 is_stmt 0              @ C:/Users/shw26/AppData/Local/Arm/Packs/ARM/CMSIS-Driver/2.6.1/WiFi/ESP8266/ESP8266_Serial.c:124:34
	ldr	r0, [r7]
	.loc	2 124 21                        @ C:/Users/shw26/AppData/Local/Arm/Packs/ARM/CMSIS-Driver/2.6.1/WiFi/ESP8266/ESP8266_Serial.c:124:21
	ldr	r7, [r6, #40]
	.loc	2 124 12                        @ C:/Users/shw26/AppData/Local/Arm/Packs/ARM/CMSIS-Driver/2.6.1/WiFi/ESP8266/ESP8266_Serial.c:124:12
	blx	r7
.Ltmp15:
	.loc	2 124 12                        @ C:/Users/shw26/AppData/Local/Arm/Packs/ARM/CMSIS-Driver/2.6.1/WiFi/ESP8266/ESP8266_Serial.c:124:12
	cbz	r0, .LBB0_12
.Ltmp16:
@ %bb.11:
	@DEBUG_VALUE: Serial_Initialize:capab <- [DW_OP_LLVM_convert 32 7, DW_OP_LLVM_convert 8 7, DW_OP_stack_value, DW_OP_LLVM_fragment 0 8] $r4
	@DEBUG_VALUE: Serial_Initialize:capab <- [DW_OP_constu 10, DW_OP_shr, DW_OP_LLVM_convert 32 7, DW_OP_LLVM_convert 8 7, DW_OP_stack_value, DW_OP_LLVM_fragment 8 8] $r4
	@DEBUG_VALUE: Serial_Initialize:capab <- [DW_OP_constu 16, DW_OP_shr, DW_OP_LLVM_convert 32 7, DW_OP_LLVM_convert 16 7, DW_OP_stack_value, DW_OP_LLVM_fragment 16 16] $r4
	.loc	2 0 12                          @ C:/Users/shw26/AppData/Local/Arm/Packs/ARM/CMSIS-Driver/2.6.1/WiFi/ESP8266/ESP8266_Serial.c:0:12
	adds	r5, r5, #3
	b	.LBB0_17
.Ltmp17:
.LBB0_12:
	@DEBUG_VALUE: Serial_Initialize:capab <- [DW_OP_LLVM_convert 32 7, DW_OP_LLVM_convert 8 7, DW_OP_stack_value, DW_OP_LLVM_fragment 0 8] $r4
	@DEBUG_VALUE: Serial_Initialize:capab <- [DW_OP_constu 10, DW_OP_shr, DW_OP_LLVM_convert 32 7, DW_OP_LLVM_convert 8 7, DW_OP_stack_value, DW_OP_LLVM_fragment 8 8] $r4
	@DEBUG_VALUE: Serial_Initialize:capab <- [DW_OP_constu 16, DW_OP_shr, DW_OP_LLVM_convert 32 7, DW_OP_LLVM_convert 16 7, DW_OP_stack_value, DW_OP_LLVM_fragment 16 16] $r4
	movs	r0, #21
	movs	r1, #1
.Ltmp18:
	.loc	2 128 12 is_stmt 1              @ C:/Users/shw26/AppData/Local/Arm/Packs/ARM/CMSIS-Driver/2.6.1/WiFi/ESP8266/ESP8266_Serial.c:128:12
	blx	r7
.Ltmp19:
	.loc	2 128 12 is_stmt 0              @ C:/Users/shw26/AppData/Local/Arm/Packs/ARM/CMSIS-Driver/2.6.1/WiFi/ESP8266/ESP8266_Serial.c:128:12
	cbz	r0, .LBB0_14
.Ltmp20:
@ %bb.13:
	@DEBUG_VALUE: Serial_Initialize:capab <- [DW_OP_LLVM_convert 32 7, DW_OP_LLVM_convert 8 7, DW_OP_stack_value, DW_OP_LLVM_fragment 0 8] $r4
	@DEBUG_VALUE: Serial_Initialize:capab <- [DW_OP_constu 10, DW_OP_shr, DW_OP_LLVM_convert 32 7, DW_OP_LLVM_convert 8 7, DW_OP_stack_value, DW_OP_LLVM_fragment 8 8] $r4
	@DEBUG_VALUE: Serial_Initialize:capab <- [DW_OP_constu 16, DW_OP_shr, DW_OP_LLVM_convert 32 7, DW_OP_LLVM_convert 16 7, DW_OP_stack_value, DW_OP_LLVM_fragment 16 16] $r4
	.loc	2 0 12                          @ C:/Users/shw26/AppData/Local/Arm/Packs/ARM/CMSIS-Driver/2.6.1/WiFi/ESP8266/ESP8266_Serial.c:0:12
	adds	r5, r5, #2
	b	.LBB0_17
.Ltmp21:
.LBB0_14:
	@DEBUG_VALUE: Serial_Initialize:capab <- [DW_OP_LLVM_convert 32 7, DW_OP_LLVM_convert 8 7, DW_OP_stack_value, DW_OP_LLVM_fragment 0 8] $r4
	@DEBUG_VALUE: Serial_Initialize:capab <- [DW_OP_constu 10, DW_OP_shr, DW_OP_LLVM_convert 32 7, DW_OP_LLVM_convert 8 7, DW_OP_stack_value, DW_OP_LLVM_fragment 8 8] $r4
	@DEBUG_VALUE: Serial_Initialize:capab <- [DW_OP_constu 16, DW_OP_shr, DW_OP_LLVM_convert 32 7, DW_OP_LLVM_convert 16 7, DW_OP_stack_value, DW_OP_LLVM_fragment 16 16] $r4
	movs	r0, #22
	movs	r1, #1
.Ltmp22:
	.loc	2 132 12 is_stmt 1              @ C:/Users/shw26/AppData/Local/Arm/Packs/ARM/CMSIS-Driver/2.6.1/WiFi/ESP8266/ESP8266_Serial.c:132:12
	blx	r7
.Ltmp23:
	.loc	2 132 12 is_stmt 0              @ C:/Users/shw26/AppData/Local/Arm/Packs/ARM/CMSIS-Driver/2.6.1/WiFi/ESP8266/ESP8266_Serial.c:132:12
	cbz	r0, .LBB0_16
.Ltmp24:
@ %bb.15:
	@DEBUG_VALUE: Serial_Initialize:capab <- [DW_OP_LLVM_convert 32 7, DW_OP_LLVM_convert 8 7, DW_OP_stack_value, DW_OP_LLVM_fragment 0 8] $r4
	@DEBUG_VALUE: Serial_Initialize:capab <- [DW_OP_constu 10, DW_OP_shr, DW_OP_LLVM_convert 32 7, DW_OP_LLVM_convert 8 7, DW_OP_stack_value, DW_OP_LLVM_fragment 8 8] $r4
	@DEBUG_VALUE: Serial_Initialize:capab <- [DW_OP_constu 16, DW_OP_shr, DW_OP_LLVM_convert 32 7, DW_OP_LLVM_convert 16 7, DW_OP_stack_value, DW_OP_LLVM_fragment 16 16] $r4
	.loc	2 0 12                          @ C:/Users/shw26/AppData/Local/Arm/Packs/ARM/CMSIS-Driver/2.6.1/WiFi/ESP8266/ESP8266_Serial.c:0:12
	adds	r5, r5, #1
	b	.LBB0_17
.Ltmp25:
.LBB0_16:
	@DEBUG_VALUE: Serial_Initialize:capab <- [DW_OP_LLVM_convert 32 7, DW_OP_LLVM_convert 8 7, DW_OP_stack_value, DW_OP_LLVM_fragment 0 8] $r4
	@DEBUG_VALUE: Serial_Initialize:capab <- [DW_OP_constu 10, DW_OP_shr, DW_OP_LLVM_convert 32 7, DW_OP_LLVM_convert 8 7, DW_OP_stack_value, DW_OP_LLVM_fragment 8 8] $r4
	@DEBUG_VALUE: Serial_Initialize:capab <- [DW_OP_constu 16, DW_OP_shr, DW_OP_LLVM_convert 32 7, DW_OP_LLVM_convert 16 7, DW_OP_stack_value, DW_OP_LLVM_fragment 16 16] $r4
	.loc	2 136 21 is_stmt 1              @ C:/Users/shw26/AppData/Local/Arm/Packs/ARM/CMSIS-Driver/2.6.1/WiFi/ESP8266/ESP8266_Serial.c:136:21
	ldr	r2, [r6, #24]
	.loc	2 136 12 is_stmt 0              @ C:/Users/shw26/AppData/Local/Arm/Packs/ARM/CMSIS-Driver/2.6.1/WiFi/ESP8266/ESP8266_Serial.c:136:12
	ldr	r0, __arm_cp.0_7
	movw	r1, #512
	blx	r2
.Ltmp26:
	.loc	2 136 12                        @ C:/Users/shw26/AppData/Local/Arm/Packs/ARM/CMSIS-Driver/2.6.1/WiFi/ESP8266/ESP8266_Serial.c:136:12
	cbz	r0, .LBB0_18
.Ltmp27:
.LBB0_17:
	@DEBUG_VALUE: Serial_Initialize:capab <- [DW_OP_LLVM_convert 32 7, DW_OP_LLVM_convert 8 7, DW_OP_stack_value, DW_OP_LLVM_fragment 0 8] $r4
	@DEBUG_VALUE: Serial_Initialize:capab <- [DW_OP_constu 10, DW_OP_shr, DW_OP_LLVM_convert 32 7, DW_OP_LLVM_convert 8 7, DW_OP_stack_value, DW_OP_LLVM_fragment 8 8] $r4
	@DEBUG_VALUE: Serial_Initialize:capab <- [DW_OP_constu 16, DW_OP_shr, DW_OP_LLVM_convert 32 7, DW_OP_LLVM_convert 16 7, DW_OP_stack_value, DW_OP_LLVM_fragment 16 16] $r4
	@DEBUG_VALUE: Serial_Initialize:stat <- $r5
	.loc	2 152 3 is_stmt 1               @ C:/Users/shw26/AppData/Local/Arm/Packs/ARM/CMSIS-Driver/2.6.1/WiFi/ESP8266/ESP8266_Serial.c:152:3
	mov	r0, r5
	add	sp, #4
	pop	{r4, r5, r6, r7, pc}
.Ltmp28:
.LBB0_18:
	@DEBUG_VALUE: Serial_Initialize:capab <- [DW_OP_LLVM_convert 32 7, DW_OP_LLVM_convert 8 7, DW_OP_stack_value, DW_OP_LLVM_fragment 0 8] $r4
	@DEBUG_VALUE: Serial_Initialize:capab <- [DW_OP_constu 10, DW_OP_shr, DW_OP_LLVM_convert 32 7, DW_OP_LLVM_convert 8 7, DW_OP_stack_value, DW_OP_LLVM_fragment 8 8] $r4
	@DEBUG_VALUE: Serial_Initialize:capab <- [DW_OP_constu 16, DW_OP_shr, DW_OP_LLVM_convert 32 7, DW_OP_LLVM_convert 16 7, DW_OP_stack_value, DW_OP_LLVM_fragment 16 16] $r4
	.loc	2 142 9                         @ C:/Users/shw26/AppData/Local/Arm/Packs/ARM/CMSIS-Driver/2.6.1/WiFi/ESP8266/ESP8266_Serial.c:142:9
	lsls	r0, r4, #21
	lsrs	r0, r0, #31
	add	sp, #4
	pop	{r4, r5, r6, r7, pc}
.Ltmp29:
	.p2align	2
@ %bb.19:
	.loc	2 0 9 is_stmt 0                 @ C:/Users/shw26/AppData/Local/Arm/Packs/ARM/CMSIS-Driver/2.6.1/WiFi/ESP8266/ESP8266_Serial.c:0:9
__arm_cp.0_0:
	.long	Com.4
.Lcpi_end0:
	.size	__arm_cp.0_0, .Lcpi_end0-__arm_cp.0_0
__arm_cp.0_1:
	.long	Com.3
.Lcpi_end1:
	.size	__arm_cp.0_1, .Lcpi_end1-__arm_cp.0_1
__arm_cp.0_2:
	.long	Com.6
.Lcpi_end2:
	.size	__arm_cp.0_2, .Lcpi_end2-__arm_cp.0_2
__arm_cp.0_3:
	.long	Com.1
.Lcpi_end3:
	.size	__arm_cp.0_3, .Lcpi_end3-__arm_cp.0_3
__arm_cp.0_4:
	.long	Com.2
.Lcpi_end4:
	.size	__arm_cp.0_4, .Lcpi_end4-__arm_cp.0_4
__arm_cp.0_5:
	.long	Driver_USART0
.Lcpi_end5:
	.size	__arm_cp.0_5, .Lcpi_end5-__arm_cp.0_5
__arm_cp.0_6:
	.long	UART_Callback
.Lcpi_end6:
	.size	__arm_cp.0_6, .Lcpi_end6-__arm_cp.0_6
__arm_cp.0_7:
	.long	RxBuf
.Lcpi_end7:
	.size	__arm_cp.0_7, .Lcpi_end7-__arm_cp.0_7
.Lfunc_end0:
	.size	Serial_Initialize, .Lfunc_end0-Serial_Initialize
	.cfi_endproc
	.cantunwind
	.fnend
                                        @ -- End function
	.section	.text.UART_Callback,"ax",%progbits
	.p2align	2                               @ -- Begin function UART_Callback
	.type	UART_Callback,%function
	.code	16                              @ @UART_Callback
	.thumb_func
UART_Callback:
.Lfunc_begin1:
	.loc	2 388 0 is_stmt 1               @ C:/Users/shw26/AppData/Local/Arm/Packs/ARM/CMSIS-Driver/2.6.1/WiFi/ESP8266/ESP8266_Serial.c:388:0
	.fnstart
	.cfi_startproc
@ %bb.0:
	@DEBUG_VALUE: UART_Callback:event <- $r0
	.save	{r4, r5, r7, lr}
	push	{r4, r5, r7, lr}
	.cfi_def_cfa_offset 16
	.cfi_offset lr, -4
	.cfi_offset r7, -8
	.cfi_offset r5, -12
	.cfi_offset r4, -16
	mov	r4, r0
	movs	r0, #66
.Ltmp30:
	@DEBUG_VALUE: UART_Callback:event <- [DW_OP_LLVM_entry_value 1] $r0
	@DEBUG_VALUE: UART_Callback:flags <- 0
	@DEBUG_VALUE: UART_Callback:event <- $r4
	.loc	2 394 7 prologue_end            @ C:/Users/shw26/AppData/Local/Arm/Packs/ARM/CMSIS-Driver/2.6.1/WiFi/ESP8266/ESP8266_Serial.c:394:7
	tst	r4, r0
	beq	.LBB1_7
.Ltmp31:
@ %bb.1:
	@DEBUG_VALUE: UART_Callback:event <- $r4
	@DEBUG_VALUE: UART_Callback:flags <- 0
	@DEBUG_VALUE: UART_Callback:flags <- 1
	.loc	2 397 9                         @ C:/Users/shw26/AppData/Local/Arm/Packs/ARM/CMSIS-Driver/2.6.1/WiFi/ESP8266/ESP8266_Serial.c:397:9
	lsls	r0, r4, #30
	bpl	.LBB1_4
.Ltmp32:
@ %bb.2:
	@DEBUG_VALUE: UART_Callback:event <- $r4
	@DEBUG_VALUE: UART_Callback:flags <- 1
	.loc	2 400 23                        @ C:/Users/shw26/AppData/Local/Arm/Packs/ARM/CMSIS-Driver/2.6.1/WiFi/ESP8266/ESP8266_Serial.c:400:23
	ldr	r0, __arm_cp.1_0
	ldr	r2, [r0, #24]
	.loc	2 400 14 is_stmt 0              @ C:/Users/shw26/AppData/Local/Arm/Packs/ARM/CMSIS-Driver/2.6.1/WiFi/ESP8266/ESP8266_Serial.c:400:14
	ldr	r0, __arm_cp.1_1
	movw	r5, #512
	movw	r1, #512
	blx	r2
.Ltmp33:
	@DEBUG_VALUE: UART_Callback:stat <- $r0
	.loc	2 407 15 is_stmt 1              @ C:/Users/shw26/AppData/Local/Arm/Packs/ARM/CMSIS-Driver/2.6.1/WiFi/ESP8266/ESP8266_Serial.c:407:15
	ldr	r1, __arm_cp.1_2
	ldr	r2, [r1]
	adds	r2, r2, r5
	str	r2, [r1]
	.loc	2 402 11                        @ C:/Users/shw26/AppData/Local/Arm/Packs/ARM/CMSIS-Driver/2.6.1/WiFi/ESP8266/ESP8266_Serial.c:402:11
	cbz	r0, .LBB1_4
.Ltmp34:
@ %bb.3:
	@DEBUG_VALUE: UART_Callback:event <- $r4
	@DEBUG_VALUE: UART_Callback:stat <- $r0
	@DEBUG_VALUE: UART_Callback:flags <- 1
	.loc	2 0 11 is_stmt 0                @ C:/Users/shw26/AppData/Local/Arm/Packs/ARM/CMSIS-Driver/2.6.1/WiFi/ESP8266/ESP8266_Serial.c:0:11
	movs	r0, #5
.Ltmp35:
	@DEBUG_VALUE: UART_Callback:flags <- $r0
	@DEBUG_VALUE: UART_Callback:flags <- $r0
	.loc	2 411 7 is_stmt 1               @ C:/Users/shw26/AppData/Local/Arm/Packs/ARM/CMSIS-Driver/2.6.1/WiFi/ESP8266/ESP8266_Serial.c:411:7
	lsls	r1, r4, #31
	beq	.LBB1_6
	b	.LBB1_5
.Ltmp36:
.LBB1_4:
	@DEBUG_VALUE: UART_Callback:event <- $r4
	@DEBUG_VALUE: UART_Callback:flags <- 1
	.loc	2 0 7 is_stmt 0                 @ C:/Users/shw26/AppData/Local/Arm/Packs/ARM/CMSIS-Driver/2.6.1/WiFi/ESP8266/ESP8266_Serial.c:0:7
	movs	r0, #1
.Ltmp37:
	@DEBUG_VALUE: UART_Callback:flags <- $r0
	@DEBUG_VALUE: UART_Callback:flags <- $r0
	.loc	2 411 7                         @ C:/Users/shw26/AppData/Local/Arm/Packs/ARM/CMSIS-Driver/2.6.1/WiFi/ESP8266/ESP8266_Serial.c:411:7
	lsls	r1, r4, #31
	beq	.LBB1_6
.Ltmp38:
.LBB1_5:
	@DEBUG_VALUE: UART_Callback:event <- $r4
	@DEBUG_VALUE: UART_Callback:flags <- $r0
	.loc	2 415 13 is_stmt 1              @ C:/Users/shw26/AppData/Local/Arm/Packs/ARM/CMSIS-Driver/2.6.1/WiFi/ESP8266/ESP8266_Serial.c:415:13
	ldr	r1, __arm_cp.1_3
	movs	r2, #0
	strb	r2, [r1]
	movs	r1, #2
	.loc	2 412 11                        @ C:/Users/shw26/AppData/Local/Arm/Packs/ARM/CMSIS-Driver/2.6.1/WiFi/ESP8266/ESP8266_Serial.c:412:11
	orrs	r0, r1
.Ltmp39:
	@DEBUG_VALUE: UART_Callback:flags <- $r0
.LBB1_6:
	@DEBUG_VALUE: UART_Callback:event <- $r4
	@DEBUG_VALUE: UART_Callback:flags <- $r0
	@DEBUG_VALUE: UART_Callback:flags <- $r0
	.loc	2 419 3                         @ C:/Users/shw26/AppData/Local/Arm/Packs/ARM/CMSIS-Driver/2.6.1/WiFi/ESP8266/ESP8266_Serial.c:419:3
	bl	Serial_Cb
.Ltmp40:
	.loc	2 420 1                         @ C:/Users/shw26/AppData/Local/Arm/Packs/ARM/CMSIS-Driver/2.6.1/WiFi/ESP8266/ESP8266_Serial.c:420:1
	pop	{r4, r5, r7, pc}
.Ltmp41:
.LBB1_7:
	@DEBUG_VALUE: UART_Callback:event <- $r4
	@DEBUG_VALUE: UART_Callback:flags <- 0
	.loc	2 0 1 is_stmt 0                 @ C:/Users/shw26/AppData/Local/Arm/Packs/ARM/CMSIS-Driver/2.6.1/WiFi/ESP8266/ESP8266_Serial.c:0:1
	movs	r0, #0
.Ltmp42:
	@DEBUG_VALUE: UART_Callback:flags <- $r0
	.loc	2 411 7 is_stmt 1               @ C:/Users/shw26/AppData/Local/Arm/Packs/ARM/CMSIS-Driver/2.6.1/WiFi/ESP8266/ESP8266_Serial.c:411:7
	lsls	r1, r4, #31
	beq	.LBB1_6
	b	.LBB1_5
.Ltmp43:
	.p2align	2
@ %bb.8:
	.loc	2 0 7 is_stmt 0                 @ C:/Users/shw26/AppData/Local/Arm/Packs/ARM/CMSIS-Driver/2.6.1/WiFi/ESP8266/ESP8266_Serial.c:0:7
__arm_cp.1_0:
	.long	Driver_USART0
.Lcpi_end8:
	.size	__arm_cp.1_0, .Lcpi_end8-__arm_cp.1_0
__arm_cp.1_1:
	.long	RxBuf
.Lcpi_end9:
	.size	__arm_cp.1_1, .Lcpi_end9-__arm_cp.1_1
__arm_cp.1_2:
	.long	Com.3
.Lcpi_end10:
	.size	__arm_cp.1_2, .Lcpi_end10-__arm_cp.1_2
__arm_cp.1_3:
	.long	Com.6
.Lcpi_end11:
	.size	__arm_cp.1_3, .Lcpi_end11-__arm_cp.1_3
.Lfunc_end1:
	.size	UART_Callback, .Lfunc_end1-UART_Callback
	.cfi_endproc
	.cantunwind
	.fnend
                                        @ -- End function
	.section	.text.Serial_Uninitialize,"ax",%progbits
	.hidden	Serial_Uninitialize             @ -- Begin function Serial_Uninitialize
	.globl	Serial_Uninitialize
	.p2align	2
	.type	Serial_Uninitialize,%function
	.code	16                              @ @Serial_Uninitialize
	.thumb_func
Serial_Uninitialize:
.Lfunc_begin2:
	.loc	2 161 0 is_stmt 1               @ C:/Users/shw26/AppData/Local/Arm/Packs/ARM/CMSIS-Driver/2.6.1/WiFi/ESP8266/ESP8266_Serial.c:161:0
	.fnstart
	.cfi_startproc
@ %bb.0:
	.save	{r4, r5, r7, lr}
	push	{r4, r5, r7, lr}
	.cfi_def_cfa_offset 16
	.cfi_offset lr, -4
	.cfi_offset r7, -8
	.cfi_offset r5, -12
	.cfi_offset r4, -16
.Ltmp44:
	.loc	2 163 12 prologue_end           @ C:/Users/shw26/AppData/Local/Arm/Packs/ARM/CMSIS-Driver/2.6.1/WiFi/ESP8266/ESP8266_Serial.c:163:12
	ldr	r5, __arm_cp.2_0
	ldr	r1, [r5, #16]
	movs	r4, #0
	.loc	2 163 3 is_stmt 0               @ C:/Users/shw26/AppData/Local/Arm/Packs/ARM/CMSIS-Driver/2.6.1/WiFi/ESP8266/ESP8266_Serial.c:163:3
	mov	r0, r4
	blx	r1
	.loc	2 164 12 is_stmt 1              @ C:/Users/shw26/AppData/Local/Arm/Packs/ARM/CMSIS-Driver/2.6.1/WiFi/ESP8266/ESP8266_Serial.c:164:12
	ldr	r0, [r5, #12]
	.loc	2 164 3 is_stmt 0               @ C:/Users/shw26/AppData/Local/Arm/Packs/ARM/CMSIS-Driver/2.6.1/WiFi/ESP8266/ESP8266_Serial.c:164:3
	blx	r0
	.loc	2 166 3 is_stmt 1               @ C:/Users/shw26/AppData/Local/Arm/Packs/ARM/CMSIS-Driver/2.6.1/WiFi/ESP8266/ESP8266_Serial.c:166:3
	ldr	r0, __arm_cp.2_1
	movw	r1, #512
	bl	__aeabi_memclr4
	.loc	2 167 3                         @ C:/Users/shw26/AppData/Local/Arm/Packs/ARM/CMSIS-Driver/2.6.1/WiFi/ESP8266/ESP8266_Serial.c:167:3
	ldr	r0, __arm_cp.2_2
	movw	r1, #512
	bl	__aeabi_memclr4
	.loc	2 169 3                         @ C:/Users/shw26/AppData/Local/Arm/Packs/ARM/CMSIS-Driver/2.6.1/WiFi/ESP8266/ESP8266_Serial.c:169:3
	mov	r0, r4
	pop	{r4, r5, r7, pc}
.Ltmp45:
	.p2align	2
@ %bb.1:
	.loc	2 0 3 is_stmt 0                 @ C:/Users/shw26/AppData/Local/Arm/Packs/ARM/CMSIS-Driver/2.6.1/WiFi/ESP8266/ESP8266_Serial.c:0:3
__arm_cp.2_0:
	.long	Driver_USART0
.Lcpi_end12:
	.size	__arm_cp.2_0, .Lcpi_end12-__arm_cp.2_0
__arm_cp.2_1:
	.long	RxBuf
.Lcpi_end13:
	.size	__arm_cp.2_1, .Lcpi_end13-__arm_cp.2_1
__arm_cp.2_2:
	.long	TxBuf
.Lcpi_end14:
	.size	__arm_cp.2_2, .Lcpi_end14-__arm_cp.2_2
.Lfunc_end2:
	.size	Serial_Uninitialize, .Lfunc_end2-Serial_Uninitialize
	.cfi_endproc
	.cantunwind
	.fnend
                                        @ -- End function
	.section	.text.Serial_GetMode,"ax",%progbits
	.hidden	Serial_GetMode                  @ -- Begin function Serial_GetMode
	.globl	Serial_GetMode
	.p2align	2
	.type	Serial_GetMode,%function
	.code	16                              @ @Serial_GetMode
	.thumb_func
Serial_GetMode:
.Lfunc_begin3:
	.loc	2 172 0 is_stmt 1               @ C:/Users/shw26/AppData/Local/Arm/Packs/ARM/CMSIS-Driver/2.6.1/WiFi/ESP8266/ESP8266_Serial.c:172:0
	.fnstart
	.cfi_startproc
@ %bb.0:
	@DEBUG_VALUE: Serial_GetMode:mode <- $r0
	@DEBUG_VALUE: Serial_GetMode:mode <- $r0
	.save	{r4, r5, r6, lr}
	push	{r4, r5, r6, lr}
	.cfi_def_cfa_offset 16
	.cfi_offset lr, -4
	.cfi_offset r6, -8
	.cfi_offset r5, -12
	.cfi_offset r4, -16
.Ltmp46:
	@DEBUG_VALUE: Serial_GetMode:err <- 1
	.loc	2 178 7 prologue_end            @ C:/Users/shw26/AppData/Local/Arm/Packs/ARM/CMSIS-Driver/2.6.1/WiFi/ESP8266/ESP8266_Serial.c:178:7
	cbz	r0, .LBB3_5
.Ltmp47:
@ %bb.1:
	@DEBUG_VALUE: Serial_GetMode:mode <- $r0
	@DEBUG_VALUE: Serial_GetMode:err <- 1
	@DEBUG_VALUE: Serial_GetMode:err <- 0
	.loc	2 0 7 is_stmt 0                 @ C:/Users/shw26/AppData/Local/Arm/Packs/ARM/CMSIS-Driver/2.6.1/WiFi/ESP8266/ESP8266_Serial.c:0:7
	movs	r2, #0
.Ltmp48:
	.loc	2 184 20 is_stmt 1              @ C:/Users/shw26/AppData/Local/Arm/Packs/ARM/CMSIS-Driver/2.6.1/WiFi/ESP8266/ESP8266_Serial.c:184:20
	str	r2, [r0, #4]
	.loc	2 182 26                        @ C:/Users/shw26/AppData/Local/Arm/Packs/ARM/CMSIS-Driver/2.6.1/WiFi/ESP8266/ESP8266_Serial.c:182:26
	ldr	r1, __arm_cp.3_0
	ldr	r1, [r1]
	.loc	2 182 20 is_stmt 0              @ C:/Users/shw26/AppData/Local/Arm/Packs/ARM/CMSIS-Driver/2.6.1/WiFi/ESP8266/ESP8266_Serial.c:182:20
	str	r1, [r0]
	.loc	2 189 15 is_stmt 1              @ C:/Users/shw26/AppData/Local/Arm/Packs/ARM/CMSIS-Driver/2.6.1/WiFi/ESP8266/ESP8266_Serial.c:189:15
	ldr	r1, __arm_cp.3_1
	ldr	r1, [r1]
.Ltmp49:
	@DEBUG_VALUE: Serial_GetMode:msk <- [DW_OP_constu 1792, DW_OP_and, DW_OP_stack_value] $r1
	.loc	2 191 14                        @ C:/Users/shw26/AppData/Local/Arm/Packs/ARM/CMSIS-Driver/2.6.1/WiFi/ESP8266/ESP8266_Serial.c:191:14
	lsls	r3, r1, #21
	lsrs	r4, r3, #29
	cmp	r4, #7
	bhi	.LBB3_9
.Ltmp50:
@ %bb.2:
	@DEBUG_VALUE: Serial_GetMode:msk <- [DW_OP_constu 1792, DW_OP_and, DW_OP_stack_value] $r1
	@DEBUG_VALUE: Serial_GetMode:mode <- $r0
	@DEBUG_VALUE: Serial_GetMode:err <- 0
	.loc	2 0 14 is_stmt 0                @ C:/Users/shw26/AppData/Local/Arm/Packs/ARM/CMSIS-Driver/2.6.1/WiFi/ESP8266/ESP8266_Serial.c:0:14
	movs	r3, #8
	lsls	r5, r4, #2
	adr	r6, .LJTI3_0
	adds	r5, r6, r5
	mov	pc, r5
.Ltmp51:
@ %bb.3:
	.p2align	2
.LJTI3_0:
	b.w	.LBB3_8
	b.w	.LBB3_9
	b.w	.LBB3_9
	b.w	.LBB3_9
	b.w	.LBB3_9
	b.w	.LBB3_4
	b.w	.LBB3_6
	b.w	.LBB3_7
.LBB3_4:
.Ltmp52:
	@DEBUG_VALUE: Serial_GetMode:msk <- [DW_OP_constu 1792, DW_OP_and, DW_OP_stack_value] $r1
	@DEBUG_VALUE: Serial_GetMode:mode <- $r0
	@DEBUG_VALUE: Serial_GetMode:err <- 0
	movs	r3, #5
	b	.LBB3_8
.Ltmp53:
.LBB3_5:
	@DEBUG_VALUE: Serial_GetMode:mode <- $r0
	@DEBUG_VALUE: Serial_GetMode:err <- 1
	movs	r0, #1
.Ltmp54:
	@DEBUG_VALUE: Serial_GetMode:mode <- [DW_OP_LLVM_entry_value 1] $r0
	@DEBUG_VALUE: Serial_GetMode:err <- $r0
	.loc	2 215 3 is_stmt 1               @ C:/Users/shw26/AppData/Local/Arm/Packs/ARM/CMSIS-Driver/2.6.1/WiFi/ESP8266/ESP8266_Serial.c:215:3
	pop	{r4, r5, r6, pc}
.Ltmp55:
.LBB3_6:
	@DEBUG_VALUE: Serial_GetMode:msk <- [DW_OP_constu 1792, DW_OP_and, DW_OP_stack_value] $r1
	@DEBUG_VALUE: Serial_GetMode:mode <- $r0
	@DEBUG_VALUE: Serial_GetMode:err <- 0
	.loc	2 0 3 is_stmt 0                 @ C:/Users/shw26/AppData/Local/Arm/Packs/ARM/CMSIS-Driver/2.6.1/WiFi/ESP8266/ESP8266_Serial.c:0:3
	movs	r3, #6
	b	.LBB3_8
.Ltmp56:
.LBB3_7:
	@DEBUG_VALUE: Serial_GetMode:msk <- [DW_OP_constu 1792, DW_OP_and, DW_OP_stack_value] $r1
	@DEBUG_VALUE: Serial_GetMode:mode <- $r0
	@DEBUG_VALUE: Serial_GetMode:err <- 0
	movs	r3, #7
.Ltmp57:
.LBB3_8:
	@DEBUG_VALUE: Serial_GetMode:msk <- [DW_OP_constu 1792, DW_OP_and, DW_OP_stack_value] $r1
	@DEBUG_VALUE: Serial_GetMode:mode <- $r0
	@DEBUG_VALUE: Serial_GetMode:err <- 0
	strb	r3, [r0, #4]
.Ltmp58:
.LBB3_9:
	@DEBUG_VALUE: Serial_GetMode:msk <- [DW_OP_constu 1792, DW_OP_and, DW_OP_stack_value] $r1
	@DEBUG_VALUE: Serial_GetMode:mode <- $r0
	@DEBUG_VALUE: Serial_GetMode:err <- 0
	@DEBUG_VALUE: Serial_GetMode:msk <- [DW_OP_constu 49152, DW_OP_and, DW_OP_stack_value] $r1
	movw	r3, #49152
	.loc	2 198 14 is_stmt 1              @ C:/Users/shw26/AppData/Local/Arm/Packs/ARM/CMSIS-Driver/2.6.1/WiFi/ESP8266/ESP8266_Serial.c:198:14
	ands	r3, r1
	beq	.LBB3_12
.Ltmp59:
@ %bb.10:
	@DEBUG_VALUE: Serial_GetMode:msk <- [DW_OP_constu 49152, DW_OP_and, DW_OP_stack_value] $r1
	@DEBUG_VALUE: Serial_GetMode:mode <- $r0
	@DEBUG_VALUE: Serial_GetMode:err <- 0
	.loc	2 0 14 is_stmt 0                @ C:/Users/shw26/AppData/Local/Arm/Packs/ARM/CMSIS-Driver/2.6.1/WiFi/ESP8266/ESP8266_Serial.c:0:14
	movw	r4, #16384
	.loc	2 198 14                        @ C:/Users/shw26/AppData/Local/Arm/Packs/ARM/CMSIS-Driver/2.6.1/WiFi/ESP8266/ESP8266_Serial.c:198:14
	cmp	r3, r4
	bne	.LBB3_14
.Ltmp60:
@ %bb.11:
	@DEBUG_VALUE: Serial_GetMode:msk <- [DW_OP_constu 49152, DW_OP_and, DW_OP_stack_value] $r1
	@DEBUG_VALUE: Serial_GetMode:mode <- $r0
	@DEBUG_VALUE: Serial_GetMode:err <- 0
	.loc	2 0 14                          @ C:/Users/shw26/AppData/Local/Arm/Packs/ARM/CMSIS-Driver/2.6.1/WiFi/ESP8266/ESP8266_Serial.c:0:14
	movs	r3, #2
	b	.LBB3_13
.Ltmp61:
.LBB3_12:
	@DEBUG_VALUE: Serial_GetMode:msk <- [DW_OP_constu 49152, DW_OP_and, DW_OP_stack_value] $r1
	@DEBUG_VALUE: Serial_GetMode:mode <- $r0
	@DEBUG_VALUE: Serial_GetMode:err <- 0
	movs	r3, #1
.Ltmp62:
.LBB3_13:
	@DEBUG_VALUE: Serial_GetMode:msk <- [DW_OP_constu 49152, DW_OP_and, DW_OP_stack_value] $r1
	@DEBUG_VALUE: Serial_GetMode:mode <- $r0
	@DEBUG_VALUE: Serial_GetMode:err <- 0
	strb	r3, [r0, #5]
.Ltmp63:
.LBB3_14:
	@DEBUG_VALUE: Serial_GetMode:msk <- [DW_OP_constu 49152, DW_OP_and, DW_OP_stack_value] $r1
	@DEBUG_VALUE: Serial_GetMode:mode <- $r0
	@DEBUG_VALUE: Serial_GetMode:err <- 0
	movw	r3, #12288
	.loc	2 201 20 is_stmt 1              @ C:/Users/shw26/AppData/Local/Arm/Packs/ARM/CMSIS-Driver/2.6.1/WiFi/ESP8266/ESP8266_Serial.c:201:20
	ands	r3, r1
.Ltmp64:
	@DEBUG_VALUE: Serial_GetMode:msk <- $r3
	.loc	2 203 14                        @ C:/Users/shw26/AppData/Local/Arm/Packs/ARM/CMSIS-Driver/2.6.1/WiFi/ESP8266/ESP8266_Serial.c:203:14
	beq	.LBB3_19
.Ltmp65:
@ %bb.15:
	@DEBUG_VALUE: Serial_GetMode:msk <- $r3
	@DEBUG_VALUE: Serial_GetMode:mode <- $r0
	@DEBUG_VALUE: Serial_GetMode:err <- 0
	.loc	2 0 14 is_stmt 0                @ C:/Users/shw26/AppData/Local/Arm/Packs/ARM/CMSIS-Driver/2.6.1/WiFi/ESP8266/ESP8266_Serial.c:0:14
	movw	r2, #4096
	.loc	2 203 14                        @ C:/Users/shw26/AppData/Local/Arm/Packs/ARM/CMSIS-Driver/2.6.1/WiFi/ESP8266/ESP8266_Serial.c:203:14
	cmp	r3, r2
	beq	.LBB3_18
.Ltmp66:
@ %bb.16:
	@DEBUG_VALUE: Serial_GetMode:msk <- $r3
	@DEBUG_VALUE: Serial_GetMode:mode <- $r0
	@DEBUG_VALUE: Serial_GetMode:err <- 0
	.loc	2 0 14                          @ C:/Users/shw26/AppData/Local/Arm/Packs/ARM/CMSIS-Driver/2.6.1/WiFi/ESP8266/ESP8266_Serial.c:0:14
	movw	r2, #8192
	.loc	2 203 14                        @ C:/Users/shw26/AppData/Local/Arm/Packs/ARM/CMSIS-Driver/2.6.1/WiFi/ESP8266/ESP8266_Serial.c:203:14
	cmp	r3, r2
	bne	.LBB3_20
.Ltmp67:
@ %bb.17:
	@DEBUG_VALUE: Serial_GetMode:msk <- $r3
	@DEBUG_VALUE: Serial_GetMode:mode <- $r0
	@DEBUG_VALUE: Serial_GetMode:err <- 0
	.loc	2 0 14                          @ C:/Users/shw26/AppData/Local/Arm/Packs/ARM/CMSIS-Driver/2.6.1/WiFi/ESP8266/ESP8266_Serial.c:0:14
	movs	r2, #1
	b	.LBB3_19
.Ltmp68:
.LBB3_18:
	@DEBUG_VALUE: Serial_GetMode:msk <- $r3
	@DEBUG_VALUE: Serial_GetMode:mode <- $r0
	@DEBUG_VALUE: Serial_GetMode:err <- 0
	movs	r2, #2
.Ltmp69:
.LBB3_19:
	@DEBUG_VALUE: Serial_GetMode:msk <- $r3
	@DEBUG_VALUE: Serial_GetMode:mode <- $r0
	@DEBUG_VALUE: Serial_GetMode:err <- 0
	strb	r2, [r0, #6]
.Ltmp70:
.LBB3_20:
	@DEBUG_VALUE: Serial_GetMode:msk <- $r3
	@DEBUG_VALUE: Serial_GetMode:mode <- $r0
	@DEBUG_VALUE: Serial_GetMode:err <- 0
	@DEBUG_VALUE: Serial_GetMode:msk <- [DW_OP_constu 196608, DW_OP_and, DW_OP_stack_value] $r1
	.loc	2 209 14 is_stmt 1              @ C:/Users/shw26/AppData/Local/Arm/Packs/ARM/CMSIS-Driver/2.6.1/WiFi/ESP8266/ESP8266_Serial.c:209:14
	lsls	r1, r1, #14
.Ltmp71:
	lsrs	r1, r1, #30
.Ltmp72:
	.loc	2 0 0 is_stmt 0                 @ C:/Users/shw26/AppData/Local/Arm/Packs/ARM/CMSIS-Driver/2.6.1/WiFi/ESP8266/ESP8266_Serial.c:0:0
	strb	r1, [r0, #7]
	movs	r0, #0
.Ltmp73:
	@DEBUG_VALUE: Serial_GetMode:mode <- [DW_OP_LLVM_entry_value 1] $r0
	@DEBUG_VALUE: Serial_GetMode:err <- $r0
	.loc	2 215 3 is_stmt 1               @ C:/Users/shw26/AppData/Local/Arm/Packs/ARM/CMSIS-Driver/2.6.1/WiFi/ESP8266/ESP8266_Serial.c:215:3
	pop	{r4, r5, r6, pc}
.Ltmp74:
	.p2align	2
@ %bb.21:
	.loc	2 0 3 is_stmt 0                 @ C:/Users/shw26/AppData/Local/Arm/Packs/ARM/CMSIS-Driver/2.6.1/WiFi/ESP8266/ESP8266_Serial.c:0:3
__arm_cp.3_0:
	.long	Com.2
.Lcpi_end15:
	.size	__arm_cp.3_0, .Lcpi_end15-__arm_cp.3_0
__arm_cp.3_1:
	.long	Com.1
.Lcpi_end16:
	.size	__arm_cp.3_1, .Lcpi_end16-__arm_cp.3_1
.Lfunc_end3:
	.size	Serial_GetMode, .Lfunc_end3-Serial_GetMode
	.cfi_endproc
	.cantunwind
	.fnend
                                        @ -- End function
	.section	.text.Serial_SetMode,"ax",%progbits
	.hidden	Serial_SetMode                  @ -- Begin function Serial_SetMode
	.globl	Serial_SetMode
	.p2align	2
	.type	Serial_SetMode,%function
	.code	16                              @ @Serial_SetMode
	.thumb_func
Serial_SetMode:
.Lfunc_begin4:
	.loc	2 218 0 is_stmt 1               @ C:/Users/shw26/AppData/Local/Arm/Packs/ARM/CMSIS-Driver/2.6.1/WiFi/ESP8266/ESP8266_Serial.c:218:0
	.fnstart
	.cfi_startproc
@ %bb.0:
	@DEBUG_VALUE: Serial_SetMode:mode <- $r0
	@DEBUG_VALUE: Serial_SetMode:mode <- $r0
	.save	{r4, r5, r6, r7, lr}
	push	{r4, r5, r6, r7, lr}
	.cfi_def_cfa_offset 20
	.cfi_offset lr, -4
	.cfi_offset r7, -8
	.cfi_offset r6, -12
	.cfi_offset r5, -16
	.cfi_offset r4, -20
	.pad	#4
	sub	sp, #4
	.cfi_def_cfa_offset 24
.Ltmp75:
	@DEBUG_VALUE: Serial_SetMode:err <- 1
	.loc	2 224 7 prologue_end            @ C:/Users/shw26/AppData/Local/Arm/Packs/ARM/CMSIS-Driver/2.6.1/WiFi/ESP8266/ESP8266_Serial.c:224:7
	cbz	r0, .LBB4_3
.Ltmp76:
@ %bb.1:
	@DEBUG_VALUE: Serial_SetMode:mode <- $r0
	@DEBUG_VALUE: Serial_SetMode:err <- 1
	@DEBUG_VALUE: Serial_SetMode:arg <- 1
	.loc	2 228 20                        @ C:/Users/shw26/AppData/Local/Arm/Packs/ARM/CMSIS-Driver/2.6.1/WiFi/ESP8266/ESP8266_Serial.c:228:20
	ldrb	r1, [r0, #4]
.Ltmp77:
	.loc	2 228 14 is_stmt 0              @ C:/Users/shw26/AppData/Local/Arm/Packs/ARM/CMSIS-Driver/2.6.1/WiFi/ESP8266/ESP8266_Serial.c:228:14
	subs	r1, r1, #5
	uxtb	r1, r1
	cmp	r1, #3
	blo	.LBB4_4
.Ltmp78:
@ %bb.2:
	@DEBUG_VALUE: Serial_SetMode:mode <- $r0
	@DEBUG_VALUE: Serial_SetMode:arg <- 1
	@DEBUG_VALUE: Serial_SetMode:err <- 1
	.loc	2 0 14                          @ C:/Users/shw26/AppData/Local/Arm/Packs/ARM/CMSIS-Driver/2.6.1/WiFi/ESP8266/ESP8266_Serial.c:0:14
	movs	r4, #1
	b	.LBB4_5
.Ltmp79:
.LBB4_3:
	@DEBUG_VALUE: Serial_SetMode:mode <- $r0
	@DEBUG_VALUE: Serial_SetMode:err <- 1
	@DEBUG_VALUE: Serial_SetMode:err <- 1
	movs	r0, #1
.Ltmp80:
	@DEBUG_VALUE: Serial_SetMode:mode <- [DW_OP_LLVM_entry_value 1] $r0
	.loc	2 278 3 is_stmt 1               @ C:/Users/shw26/AppData/Local/Arm/Packs/ARM/CMSIS-Driver/2.6.1/WiFi/ESP8266/ESP8266_Serial.c:278:3
	add	sp, #4
	pop	{r4, r5, r6, r7, pc}
.Ltmp81:
.LBB4_4:
	@DEBUG_VALUE: Serial_SetMode:mode <- $r0
	@DEBUG_VALUE: Serial_SetMode:arg <- 1
	@DEBUG_VALUE: Serial_SetMode:err <- 1
	.loc	2 0 3 is_stmt 0                 @ C:/Users/shw26/AppData/Local/Arm/Packs/ARM/CMSIS-Driver/2.6.1/WiFi/ESP8266/ESP8266_Serial.c:0:3
	lsls	r1, r1, #8
	ldr	r2, __arm_cp.4_0
	adds	r4, r1, r2
.Ltmp82:
.LBB4_5:
	@DEBUG_VALUE: Serial_SetMode:mode <- $r0
	@DEBUG_VALUE: Serial_SetMode:arg <- 1
	@DEBUG_VALUE: Serial_SetMode:err <- 1
	@DEBUG_VALUE: Serial_SetMode:arg <- $r4
	.loc	2 233 20 is_stmt 1              @ C:/Users/shw26/AppData/Local/Arm/Packs/ARM/CMSIS-Driver/2.6.1/WiFi/ESP8266/ESP8266_Serial.c:233:20
	ldrb	r1, [r0, #5]
.Ltmp83:
	.loc	2 233 14 is_stmt 0              @ C:/Users/shw26/AppData/Local/Arm/Packs/ARM/CMSIS-Driver/2.6.1/WiFi/ESP8266/ESP8266_Serial.c:233:14
	cmp	r1, #2
	bne	.LBB4_7
.Ltmp84:
@ %bb.6:
	@DEBUG_VALUE: Serial_SetMode:arg <- $r4
	@DEBUG_VALUE: Serial_SetMode:mode <- $r0
	@DEBUG_VALUE: Serial_SetMode:err <- 1
	.loc	2 0 14                          @ C:/Users/shw26/AppData/Local/Arm/Packs/ARM/CMSIS-Driver/2.6.1/WiFi/ESP8266/ESP8266_Serial.c:0:14
	movw	r1, #16384
	orrs	r4, r1
.Ltmp85:
.LBB4_7:
	@DEBUG_VALUE: Serial_SetMode:mode <- $r0
	@DEBUG_VALUE: Serial_SetMode:err <- 1
	@DEBUG_VALUE: Serial_SetMode:arg <- $r4
	.loc	2 236 20 is_stmt 1              @ C:/Users/shw26/AppData/Local/Arm/Packs/ARM/CMSIS-Driver/2.6.1/WiFi/ESP8266/ESP8266_Serial.c:236:20
	ldrb	r1, [r0, #6]
.Ltmp86:
	.loc	2 225 17                        @ C:/Users/shw26/AppData/Local/Arm/Packs/ARM/CMSIS-Driver/2.6.1/WiFi/ESP8266/ESP8266_Serial.c:225:17
	ldr	r2, [r0]
.Ltmp87:
	@DEBUG_VALUE: Serial_SetMode:br <- $r2
	.loc	2 236 14                        @ C:/Users/shw26/AppData/Local/Arm/Packs/ARM/CMSIS-Driver/2.6.1/WiFi/ESP8266/ESP8266_Serial.c:236:14
	str	r2, [sp]                        @ 4-byte Spill
.Ltmp88:
	@DEBUG_VALUE: Serial_SetMode:br <- [$sp+0]
	@DEBUG_VALUE: Serial_SetMode:br <- [$sp+0]
	cmp	r1, #2
	beq	.LBB4_10
.Ltmp89:
@ %bb.8:
	@DEBUG_VALUE: Serial_SetMode:arg <- $r4
	@DEBUG_VALUE: Serial_SetMode:mode <- $r0
	@DEBUG_VALUE: Serial_SetMode:br <- [$sp+0]
	@DEBUG_VALUE: Serial_SetMode:err <- 1
	cmp	r1, #1
	bne	.LBB4_12
.Ltmp90:
@ %bb.9:
	@DEBUG_VALUE: Serial_SetMode:arg <- $r4
	@DEBUG_VALUE: Serial_SetMode:mode <- $r0
	@DEBUG_VALUE: Serial_SetMode:br <- [$sp+0]
	@DEBUG_VALUE: Serial_SetMode:err <- 1
	.loc	2 0 14 is_stmt 0                @ C:/Users/shw26/AppData/Local/Arm/Packs/ARM/CMSIS-Driver/2.6.1/WiFi/ESP8266/ESP8266_Serial.c:0:14
	movw	r1, #8192
	b	.LBB4_11
.Ltmp91:
.LBB4_10:
	@DEBUG_VALUE: Serial_SetMode:arg <- $r4
	@DEBUG_VALUE: Serial_SetMode:mode <- $r0
	@DEBUG_VALUE: Serial_SetMode:br <- [$sp+0]
	@DEBUG_VALUE: Serial_SetMode:err <- 1
	movw	r1, #4096
.Ltmp92:
.LBB4_11:
	@DEBUG_VALUE: Serial_SetMode:arg <- $r4
	@DEBUG_VALUE: Serial_SetMode:mode <- $r0
	@DEBUG_VALUE: Serial_SetMode:br <- [$sp+0]
	@DEBUG_VALUE: Serial_SetMode:err <- 1
	orrs	r4, r1
.Ltmp93:
	@DEBUG_VALUE: Serial_SetMode:arg <- $r4
.LBB4_12:
	@DEBUG_VALUE: Serial_SetMode:arg <- $r4
	@DEBUG_VALUE: Serial_SetMode:mode <- $r0
	@DEBUG_VALUE: Serial_SetMode:br <- [$sp+0]
	@DEBUG_VALUE: Serial_SetMode:err <- 1
	@DEBUG_VALUE: Serial_SetMode:arg <- $r4
	.loc	2 240 20 is_stmt 1              @ C:/Users/shw26/AppData/Local/Arm/Packs/ARM/CMSIS-Driver/2.6.1/WiFi/ESP8266/ESP8266_Serial.c:240:20
	ldrb	r0, [r0, #7]
.Ltmp94:
	@DEBUG_VALUE: Serial_SetMode:mode <- [DW_OP_LLVM_entry_value 1] $r0
	.loc	2 240 14 is_stmt 0              @ C:/Users/shw26/AppData/Local/Arm/Packs/ARM/CMSIS-Driver/2.6.1/WiFi/ESP8266/ESP8266_Serial.c:240:14
	cmp	r0, #3
	beq	.LBB4_16
.Ltmp95:
@ %bb.13:
	@DEBUG_VALUE: Serial_SetMode:arg <- $r4
	@DEBUG_VALUE: Serial_SetMode:br <- [$sp+0]
	@DEBUG_VALUE: Serial_SetMode:mode <- [DW_OP_LLVM_entry_value 1] $r0
	@DEBUG_VALUE: Serial_SetMode:err <- 1
	cmp	r0, #2
	beq	.LBB4_18
.Ltmp96:
@ %bb.14:
	@DEBUG_VALUE: Serial_SetMode:arg <- $r4
	@DEBUG_VALUE: Serial_SetMode:br <- [$sp+0]
	@DEBUG_VALUE: Serial_SetMode:mode <- [DW_OP_LLVM_entry_value 1] $r0
	@DEBUG_VALUE: Serial_SetMode:err <- 1
	cmp	r0, #1
	bne	.LBB4_19
.Ltmp97:
@ %bb.15:
	@DEBUG_VALUE: Serial_SetMode:arg <- $r4
	@DEBUG_VALUE: Serial_SetMode:br <- [$sp+0]
	@DEBUG_VALUE: Serial_SetMode:mode <- [DW_OP_LLVM_entry_value 1] $r0
	@DEBUG_VALUE: Serial_SetMode:err <- 1
	.loc	2 0 14                          @ C:/Users/shw26/AppData/Local/Arm/Packs/ARM/CMSIS-Driver/2.6.1/WiFi/ESP8266/ESP8266_Serial.c:0:14
	movs	r0, #1
	b	.LBB4_17
.Ltmp98:
.LBB4_16:
	@DEBUG_VALUE: Serial_SetMode:arg <- $r4
	@DEBUG_VALUE: Serial_SetMode:br <- [$sp+0]
	@DEBUG_VALUE: Serial_SetMode:mode <- [DW_OP_LLVM_entry_value 1] $r0
	@DEBUG_VALUE: Serial_SetMode:err <- 1
	movs	r0, #3
.Ltmp99:
.LBB4_17:
	@DEBUG_VALUE: Serial_SetMode:arg <- $r4
	@DEBUG_VALUE: Serial_SetMode:br <- [$sp+0]
	@DEBUG_VALUE: Serial_SetMode:mode <- [DW_OP_LLVM_entry_value 1] $r0
	@DEBUG_VALUE: Serial_SetMode:err <- 1
	lsls	r0, r0, #16
.Ltmp100:
	orrs	r4, r0
.Ltmp101:
	@DEBUG_VALUE: Serial_SetMode:arg <- $r4
	b	.LBB4_19
.Ltmp102:
.LBB4_18:
	@DEBUG_VALUE: Serial_SetMode:arg <- $r4
	@DEBUG_VALUE: Serial_SetMode:br <- [$sp+0]
	@DEBUG_VALUE: Serial_SetMode:mode <- [DW_OP_LLVM_entry_value 1] $r0
	@DEBUG_VALUE: Serial_SetMode:err <- 1
	movs	r0, #1
	lsls	r0, r0, #17
.Ltmp103:
	.loc	2 242 46 is_stmt 1              @ C:/Users/shw26/AppData/Local/Arm/Packs/ARM/CMSIS-Driver/2.6.1/WiFi/ESP8266/ESP8266_Serial.c:242:46
	adds	r4, r4, r0
.Ltmp104:
	@DEBUG_VALUE: Serial_SetMode:arg <- $r4
.LBB4_19:
	@DEBUG_VALUE: Serial_SetMode:arg <- $r4
	@DEBUG_VALUE: Serial_SetMode:br <- [$sp+0]
	@DEBUG_VALUE: Serial_SetMode:mode <- [DW_OP_LLVM_entry_value 1] $r0
	@DEBUG_VALUE: Serial_SetMode:err <- 1
	@DEBUG_VALUE: Serial_SetMode:arg <- $r4
	.loc	2 246 23                        @ C:/Users/shw26/AppData/Local/Arm/Packs/ARM/CMSIS-Driver/2.6.1/WiFi/ESP8266/ESP8266_Serial.c:246:23
	ldr	r7, __arm_cp.4_1
	ldr	r5, [r7, #40]
	movs	r0, #25
	movs	r6, #0
	.loc	2 246 14 is_stmt 0              @ C:/Users/shw26/AppData/Local/Arm/Packs/ARM/CMSIS-Driver/2.6.1/WiFi/ESP8266/ESP8266_Serial.c:246:14
	mov	r1, r6
	blx	r5
.Ltmp105:
	@DEBUG_VALUE: Serial_SetMode:status <- $r0
	.loc	2 248 13 is_stmt 1              @ C:/Users/shw26/AppData/Local/Arm/Packs/ARM/CMSIS-Driver/2.6.1/WiFi/ESP8266/ESP8266_Serial.c:248:13
	ldr	r1, __arm_cp.4_2
	str	r6, [r1]
	.loc	2 249 13                        @ C:/Users/shw26/AppData/Local/Arm/Packs/ARM/CMSIS-Driver/2.6.1/WiFi/ESP8266/ESP8266_Serial.c:249:13
	ldr	r1, __arm_cp.4_3
	str	r6, [r1]
	.loc	2 251 13                        @ C:/Users/shw26/AppData/Local/Arm/Packs/ARM/CMSIS-Driver/2.6.1/WiFi/ESP8266/ESP8266_Serial.c:251:13
	ldr	r1, __arm_cp.4_4
	strb	r6, [r1]
	.loc	2 253 9                         @ C:/Users/shw26/AppData/Local/Arm/Packs/ARM/CMSIS-Driver/2.6.1/WiFi/ESP8266/ESP8266_Serial.c:253:9
	cbnz	r0, .LBB4_22
.Ltmp106:
@ %bb.20:
	@DEBUG_VALUE: Serial_SetMode:arg <- $r4
	@DEBUG_VALUE: Serial_SetMode:status <- $r0
	@DEBUG_VALUE: Serial_SetMode:br <- [$sp+0]
	@DEBUG_VALUE: Serial_SetMode:mode <- [DW_OP_LLVM_entry_value 1] $r0
	@DEBUG_VALUE: Serial_SetMode:err <- 1
	.loc	2 255 16                        @ C:/Users/shw26/AppData/Local/Arm/Packs/ARM/CMSIS-Driver/2.6.1/WiFi/ESP8266/ESP8266_Serial.c:255:16
	mov	r0, r4
.Ltmp107:
	ldr	r1, [sp]                        @ 4-byte Reload
	blx	r5
.Ltmp108:
	@DEBUG_VALUE: Serial_SetMode:status <- $r0
	.loc	2 257 11                        @ C:/Users/shw26/AppData/Local/Arm/Packs/ARM/CMSIS-Driver/2.6.1/WiFi/ESP8266/ESP8266_Serial.c:257:11
	cbnz	r0, .LBB4_22
.Ltmp109:
@ %bb.21:
	@DEBUG_VALUE: Serial_SetMode:arg <- $r4
	@DEBUG_VALUE: Serial_SetMode:status <- $r0
	@DEBUG_VALUE: Serial_SetMode:br <- [$sp+0]
	@DEBUG_VALUE: Serial_SetMode:mode <- [DW_OP_LLVM_entry_value 1] $r0
	@DEBUG_VALUE: Serial_SetMode:err <- 1
	.loc	2 260 22                        @ C:/Users/shw26/AppData/Local/Arm/Packs/ARM/CMSIS-Driver/2.6.1/WiFi/ESP8266/ESP8266_Serial.c:260:22
	ldr	r0, __arm_cp.4_5
.Ltmp110:
	ldr	r1, [sp]                        @ 4-byte Reload
	str	r1, [r0]
	.loc	2 259 22                        @ C:/Users/shw26/AppData/Local/Arm/Packs/ARM/CMSIS-Driver/2.6.1/WiFi/ESP8266/ESP8266_Serial.c:259:22
	ldr	r0, __arm_cp.4_6
	str	r4, [r0]
	movs	r0, #21
	movs	r4, #1
.Ltmp111:
	.loc	2 263 9                         @ C:/Users/shw26/AppData/Local/Arm/Packs/ARM/CMSIS-Driver/2.6.1/WiFi/ESP8266/ESP8266_Serial.c:263:9
	mov	r1, r4
	blx	r5
	movs	r0, #22
	.loc	2 266 9                         @ C:/Users/shw26/AppData/Local/Arm/Packs/ARM/CMSIS-Driver/2.6.1/WiFi/ESP8266/ESP8266_Serial.c:266:9
	mov	r1, r4
	blx	r5
	.loc	2 269 27                        @ C:/Users/shw26/AppData/Local/Arm/Packs/ARM/CMSIS-Driver/2.6.1/WiFi/ESP8266/ESP8266_Serial.c:269:27
	ldr	r2, [r7, #24]
	.loc	2 269 18 is_stmt 0              @ C:/Users/shw26/AppData/Local/Arm/Packs/ARM/CMSIS-Driver/2.6.1/WiFi/ESP8266/ESP8266_Serial.c:269:18
	ldr	r0, __arm_cp.4_7
	movw	r1, #512
	blx	r2
.Ltmp112:
	@DEBUG_VALUE: Serial_SetMode:status <- $r0
.LBB4_22:
	@DEBUG_VALUE: Serial_SetMode:status <- $r0
	@DEBUG_VALUE: Serial_SetMode:br <- [$sp+0]
	@DEBUG_VALUE: Serial_SetMode:mode <- [DW_OP_LLVM_entry_value 1] $r0
	@DEBUG_VALUE: Serial_SetMode:err <- 1
	@DEBUG_VALUE: Serial_SetMode:status <- $r0
	.loc	2 273 16 is_stmt 1              @ C:/Users/shw26/AppData/Local/Arm/Packs/ARM/CMSIS-Driver/2.6.1/WiFi/ESP8266/ESP8266_Serial.c:273:16
	subs	r1, r0, #1
	sbcs	r0, r1
.Ltmp113:
	.loc	2 273 9 is_stmt 0               @ C:/Users/shw26/AppData/Local/Arm/Packs/ARM/CMSIS-Driver/2.6.1/WiFi/ESP8266/ESP8266_Serial.c:273:9
	add	sp, #4
.Ltmp114:
	pop	{r4, r5, r6, r7, pc}
.Ltmp115:
	.p2align	2
@ %bb.23:
	.loc	2 0 9                           @ C:/Users/shw26/AppData/Local/Arm/Packs/ARM/CMSIS-Driver/2.6.1/WiFi/ESP8266/ESP8266_Serial.c:0:9
__arm_cp.4_0:
	.long	1281                            @ 0x501
.Lcpi_end17:
	.size	__arm_cp.4_0, .Lcpi_end17-__arm_cp.4_0
__arm_cp.4_1:
	.long	Driver_USART0
.Lcpi_end18:
	.size	__arm_cp.4_1, .Lcpi_end18-__arm_cp.4_1
__arm_cp.4_2:
	.long	Com.3
.Lcpi_end19:
	.size	__arm_cp.4_2, .Lcpi_end19-__arm_cp.4_2
__arm_cp.4_3:
	.long	Com.4
.Lcpi_end20:
	.size	__arm_cp.4_3, .Lcpi_end20-__arm_cp.4_3
__arm_cp.4_4:
	.long	Com.6
.Lcpi_end21:
	.size	__arm_cp.4_4, .Lcpi_end21-__arm_cp.4_4
__arm_cp.4_5:
	.long	Com.2
.Lcpi_end22:
	.size	__arm_cp.4_5, .Lcpi_end22-__arm_cp.4_5
__arm_cp.4_6:
	.long	Com.1
.Lcpi_end23:
	.size	__arm_cp.4_6, .Lcpi_end23-__arm_cp.4_6
__arm_cp.4_7:
	.long	RxBuf
.Lcpi_end24:
	.size	__arm_cp.4_7, .Lcpi_end24-__arm_cp.4_7
.Lfunc_end4:
	.size	Serial_SetMode, .Lfunc_end4-Serial_SetMode
	.cfi_endproc
	.cantunwind
	.fnend
                                        @ -- End function
	.section	.text.Serial_GetTxFree,"ax",%progbits
	.hidden	Serial_GetTxFree                @ -- Begin function Serial_GetTxFree
	.globl	Serial_GetTxFree
	.p2align	2
	.type	Serial_GetTxFree,%function
	.code	16                              @ @Serial_GetTxFree
	.thumb_func
Serial_GetTxFree:
.Lfunc_begin5:
	.loc	2 286 0 is_stmt 1               @ C:/Users/shw26/AppData/Local/Arm/Packs/ARM/CMSIS-Driver/2.6.1/WiFi/ESP8266/ESP8266_Serial.c:286:0
	.fnstart
	.cfi_startproc
@ %bb.0:
	.loc	2 289 11 prologue_end           @ C:/Users/shw26/AppData/Local/Arm/Packs/ARM/CMSIS-Driver/2.6.1/WiFi/ESP8266/ESP8266_Serial.c:289:11
	ldr	r0, __arm_cp.5_0
	ldrb	r0, [r0]
.Ltmp116:
	.loc	2 289 7 is_stmt 0               @ C:/Users/shw26/AppData/Local/Arm/Packs/ARM/CMSIS-Driver/2.6.1/WiFi/ESP8266/ESP8266_Serial.c:289:7
	cbnz	r0, .LBB5_2
@ %bb.1:
	.loc	2 0 7                           @ C:/Users/shw26/AppData/Local/Arm/Packs/ARM/CMSIS-Driver/2.6.1/WiFi/ESP8266/ESP8266_Serial.c:0:7
	movw	r0, #512
.Ltmp117:
	@DEBUG_VALUE: Serial_GetTxFree:n <- $r0
	.loc	2 295 3 is_stmt 1               @ C:/Users/shw26/AppData/Local/Arm/Packs/ARM/CMSIS-Driver/2.6.1/WiFi/ESP8266/ESP8266_Serial.c:295:3
	bx	lr
.Ltmp118:
.LBB5_2:
	.loc	2 0 3 is_stmt 0                 @ C:/Users/shw26/AppData/Local/Arm/Packs/ARM/CMSIS-Driver/2.6.1/WiFi/ESP8266/ESP8266_Serial.c:0:3
	movs	r0, #0
.Ltmp119:
	@DEBUG_VALUE: Serial_GetTxFree:n <- $r0
	.loc	2 295 3                         @ C:/Users/shw26/AppData/Local/Arm/Packs/ARM/CMSIS-Driver/2.6.1/WiFi/ESP8266/ESP8266_Serial.c:295:3
	bx	lr
.Ltmp120:
	.p2align	2
@ %bb.3:
	.loc	2 0 3                           @ C:/Users/shw26/AppData/Local/Arm/Packs/ARM/CMSIS-Driver/2.6.1/WiFi/ESP8266/ESP8266_Serial.c:0:3
__arm_cp.5_0:
	.long	Com.6
.Lcpi_end25:
	.size	__arm_cp.5_0, .Lcpi_end25-__arm_cp.5_0
.Lfunc_end5:
	.size	Serial_GetTxFree, .Lfunc_end5-Serial_GetTxFree
	.cfi_endproc
	.cantunwind
	.fnend
                                        @ -- End function
	.section	.text.Serial_SendBuf,"ax",%progbits
	.hidden	Serial_SendBuf                  @ -- Begin function Serial_SendBuf
	.globl	Serial_SendBuf
	.p2align	2
	.type	Serial_SendBuf,%function
	.code	16                              @ @Serial_SendBuf
	.thumb_func
Serial_SendBuf:
.Lfunc_begin6:
	.loc	2 306 0 is_stmt 1               @ C:/Users/shw26/AppData/Local/Arm/Packs/ARM/CMSIS-Driver/2.6.1/WiFi/ESP8266/ESP8266_Serial.c:306:0
	.fnstart
	.cfi_startproc
@ %bb.0:
	@DEBUG_VALUE: Serial_SendBuf:buf <- $r0
	@DEBUG_VALUE: Serial_SendBuf:len <- $r1
	.save	{r4, r5, r6, lr}
	push	{r4, r5, r6, lr}
	.cfi_def_cfa_offset 16
	.cfi_offset lr, -4
	.cfi_offset r6, -8
	.cfi_offset r5, -12
	.cfi_offset r4, -16
	mov	r4, r1
	mov	r1, r0
.Ltmp121:
	@DEBUG_VALUE: Serial_SendBuf:len <- [DW_OP_LLVM_entry_value 1] $r1
	@DEBUG_VALUE: Serial_SendBuf:cnt <- $r4
	@DEBUG_VALUE: Serial_SendBuf:len <- $r4
	@DEBUG_VALUE: Serial_SendBuf:buf <- $r1
	.loc	2 313 7 prologue_end            @ C:/Users/shw26/AppData/Local/Arm/Packs/ARM/CMSIS-Driver/2.6.1/WiFi/ESP8266/ESP8266_Serial.c:313:7
	lsrs	r0, r4, #9
	beq	.LBB6_2
.Ltmp122:
@ %bb.1:
	@DEBUG_VALUE: Serial_SendBuf:len <- $r4
	@DEBUG_VALUE: Serial_SendBuf:cnt <- $r4
	@DEBUG_VALUE: Serial_SendBuf:buf <- $r1
	.loc	2 0 7 is_stmt 0                 @ C:/Users/shw26/AppData/Local/Arm/Packs/ARM/CMSIS-Driver/2.6.1/WiFi/ESP8266/ESP8266_Serial.c:0:7
	movw	r4, #512
.Ltmp123:
.LBB6_2:
	@DEBUG_VALUE: Serial_SendBuf:buf <- $r1
	@DEBUG_VALUE: Serial_SendBuf:cnt <- $r4
	.loc	2 317 3 is_stmt 1               @ C:/Users/shw26/AppData/Local/Arm/Packs/ARM/CMSIS-Driver/2.6.1/WiFi/ESP8266/ESP8266_Serial.c:317:3
	ldr	r5, __arm_cp.6_0
	mov	r0, r5
	@DEBUG_VALUE: Serial_SendBuf:buf <- $r1
	mov	r2, r4
	bl	__aeabi_memcpy
.Ltmp124:
	.loc	2 319 11                        @ C:/Users/shw26/AppData/Local/Arm/Packs/ARM/CMSIS-Driver/2.6.1/WiFi/ESP8266/ESP8266_Serial.c:319:11
	ldr	r6, __arm_cp.6_1
	movs	r0, #1
	strb	r0, [r6]
	.loc	2 321 19                        @ C:/Users/shw26/AppData/Local/Arm/Packs/ARM/CMSIS-Driver/2.6.1/WiFi/ESP8266/ESP8266_Serial.c:321:19
	ldr	r0, __arm_cp.6_2
	ldr	r2, [r0, #20]
	.loc	2 321 10 is_stmt 0              @ C:/Users/shw26/AppData/Local/Arm/Packs/ARM/CMSIS-Driver/2.6.1/WiFi/ESP8266/ESP8266_Serial.c:321:10
	mov	r0, r5
	mov	r1, r4
	blx	r2
.Ltmp125:
	@DEBUG_VALUE: Serial_SendBuf:stat <- $r0
	.loc	2 323 7 is_stmt 1               @ C:/Users/shw26/AppData/Local/Arm/Packs/ARM/CMSIS-Driver/2.6.1/WiFi/ESP8266/ESP8266_Serial.c:323:7
	cbz	r0, .LBB6_4
.Ltmp126:
@ %bb.3:
	@DEBUG_VALUE: Serial_SendBuf:cnt <- $r4
	@DEBUG_VALUE: Serial_SendBuf:stat <- $r0
	.loc	2 0 7 is_stmt 0                 @ C:/Users/shw26/AppData/Local/Arm/Packs/ARM/CMSIS-Driver/2.6.1/WiFi/ESP8266/ESP8266_Serial.c:0:7
	movs	r0, #0
.Ltmp127:
	.loc	2 327 13 is_stmt 1              @ C:/Users/shw26/AppData/Local/Arm/Packs/ARM/CMSIS-Driver/2.6.1/WiFi/ESP8266/ESP8266_Serial.c:327:13
	strb	r0, [r6]
	mvns	r4, r0
.Ltmp128:
	@DEBUG_VALUE: Serial_SendBuf:n <- -1
.LBB6_4:
	@DEBUG_VALUE: Serial_SendBuf:n <- $r4
	.loc	2 331 3                         @ C:/Users/shw26/AppData/Local/Arm/Packs/ARM/CMSIS-Driver/2.6.1/WiFi/ESP8266/ESP8266_Serial.c:331:3
	mov	r0, r4
	pop	{r4, r5, r6, pc}
.Ltmp129:
	.p2align	2
@ %bb.5:
	.loc	2 0 3 is_stmt 0                 @ C:/Users/shw26/AppData/Local/Arm/Packs/ARM/CMSIS-Driver/2.6.1/WiFi/ESP8266/ESP8266_Serial.c:0:3
__arm_cp.6_0:
	.long	TxBuf
.Lcpi_end26:
	.size	__arm_cp.6_0, .Lcpi_end26-__arm_cp.6_0
__arm_cp.6_1:
	.long	Com.6
.Lcpi_end27:
	.size	__arm_cp.6_1, .Lcpi_end27-__arm_cp.6_1
__arm_cp.6_2:
	.long	Driver_USART0
.Lcpi_end28:
	.size	__arm_cp.6_2, .Lcpi_end28-__arm_cp.6_2
.Lfunc_end6:
	.size	Serial_SendBuf, .Lfunc_end6-Serial_SendBuf
	.cfi_endproc
	.cantunwind
	.fnend
                                        @ -- End function
	.section	.text.Serial_ReadBuf,"ax",%progbits
	.hidden	Serial_ReadBuf                  @ -- Begin function Serial_ReadBuf
	.globl	Serial_ReadBuf
	.p2align	2
	.type	Serial_ReadBuf,%function
	.code	16                              @ @Serial_ReadBuf
	.thumb_func
Serial_ReadBuf:
.Lfunc_begin7:
	.loc	2 340 0 is_stmt 1               @ C:/Users/shw26/AppData/Local/Arm/Packs/ARM/CMSIS-Driver/2.6.1/WiFi/ESP8266/ESP8266_Serial.c:340:0
	.fnstart
	.cfi_startproc
@ %bb.0:
	@DEBUG_VALUE: Serial_ReadBuf:buf <- $r0
	@DEBUG_VALUE: Serial_ReadBuf:len <- $r1
	.save	{r4, r5, r6, r7, lr}
	push	{r4, r5, r6, r7, lr}
	.cfi_def_cfa_offset 20
	.cfi_offset lr, -4
	.cfi_offset r7, -8
	.cfi_offset r6, -12
	.cfi_offset r5, -16
	.cfi_offset r4, -20
	.pad	#4
	sub	sp, #4
	.cfi_def_cfa_offset 24
	mov	r4, r1
	mov	r5, r0
.Ltmp130:
	@DEBUG_VALUE: Serial_ReadBuf:len <- $r4
	@DEBUG_VALUE: Serial_ReadBuf:buf <- $r5
	.loc	2 344 12 prologue_end           @ C:/Users/shw26/AppData/Local/Arm/Packs/ARM/CMSIS-Driver/2.6.1/WiFi/ESP8266/ESP8266_Serial.c:344:12
	ldr	r0, __arm_cp.7_0
	ldr	r6, [r0]
	.loc	2 344 27 is_stmt 0              @ C:/Users/shw26/AppData/Local/Arm/Packs/ARM/CMSIS-Driver/2.6.1/WiFi/ESP8266/ESP8266_Serial.c:344:27
	ldr	r0, __arm_cp.7_1
	ldr	r0, [r0, #36]
	.loc	2 344 18                        @ C:/Users/shw26/AppData/Local/Arm/Packs/ARM/CMSIS-Driver/2.6.1/WiFi/ESP8266/ESP8266_Serial.c:344:18
	blx	r0
	.loc	2 344 16                        @ C:/Users/shw26/AppData/Local/Arm/Packs/ARM/CMSIS-Driver/2.6.1/WiFi/ESP8266/ESP8266_Serial.c:344:16
	adds	r1, r0, r6
.Ltmp131:
	@DEBUG_VALUE: Serial_ReadBuf:n <- $r1
	.loc	2 345 12 is_stmt 1              @ C:/Users/shw26/AppData/Local/Arm/Packs/ARM/CMSIS-Driver/2.6.1/WiFi/ESP8266/ESP8266_Serial.c:345:12
	ldr	r0, __arm_cp.7_2
	ldr	r2, [r0]
	.loc	2 345 5 is_stmt 0               @ C:/Users/shw26/AppData/Local/Arm/Packs/ARM/CMSIS-Driver/2.6.1/WiFi/ESP8266/ESP8266_Serial.c:345:5
	subs	r1, r1, r2
.Ltmp132:
	@DEBUG_VALUE: Serial_ReadBuf:n <- $r1
	.loc	2 347 7 is_stmt 1               @ C:/Users/shw26/AppData/Local/Arm/Packs/ARM/CMSIS-Driver/2.6.1/WiFi/ESP8266/ESP8266_Serial.c:347:7
	cmp	r1, r4
	bhi	.LBB7_2
.Ltmp133:
@ %bb.1:
	@DEBUG_VALUE: Serial_ReadBuf:buf <- $r5
	@DEBUG_VALUE: Serial_ReadBuf:len <- $r4
	@DEBUG_VALUE: Serial_ReadBuf:n <- $r1
	mov	r4, r1
.Ltmp134:
	@DEBUG_VALUE: Serial_ReadBuf:n <- $r4
.LBB7_2:
	@DEBUG_VALUE: Serial_ReadBuf:buf <- $r5
	@DEBUG_VALUE: Serial_ReadBuf:n <- $r4
	@DEBUG_VALUE: Serial_ReadBuf:i <- 0
	.loc	2 351 3                         @ C:/Users/shw26/AppData/Local/Arm/Packs/ARM/CMSIS-Driver/2.6.1/WiFi/ESP8266/ESP8266_Serial.c:351:3
	cbz	r4, .LBB7_6
.Ltmp135:
@ %bb.3:
	@DEBUG_VALUE: Serial_ReadBuf:buf <- $r5
	@DEBUG_VALUE: Serial_ReadBuf:n <- $r4
	@DEBUG_VALUE: Serial_ReadBuf:i <- 0
	.loc	2 0 3 is_stmt 0                 @ C:/Users/shw26/AppData/Local/Arm/Packs/ARM/CMSIS-Driver/2.6.1/WiFi/ESP8266/ESP8266_Serial.c:0:3
	ldr	r6, [r0]
	ldr	r1, __arm_cp.7_3
	ldr	r2, __arm_cp.7_4
	mov	r3, r4
.Ltmp136:
.LBB7_4:                                @ =>This Inner Loop Header: Depth=1
	@DEBUG_VALUE: Serial_ReadBuf:n <- $r4
	.loc	2 352 17 is_stmt 1              @ C:/Users/shw26/AppData/Local/Arm/Packs/ARM/CMSIS-Driver/2.6.1/WiFi/ESP8266/ESP8266_Serial.c:352:17
	adds	r7, r6, #1
.Ltmp137:
	@DEBUG_VALUE: Serial_ReadBuf:k <- $r6
	@DEBUG_VALUE: Serial_ReadBuf:i <- undef
	.loc	2 353 7                         @ C:/Users/shw26/AppData/Local/Arm/Packs/ARM/CMSIS-Driver/2.6.1/WiFi/ESP8266/ESP8266_Serial.c:353:7
	ands	r6, r1
.Ltmp138:
	@DEBUG_VALUE: Serial_ReadBuf:k <- $r6
	.loc	2 355 14                        @ C:/Users/shw26/AppData/Local/Arm/Packs/ARM/CMSIS-Driver/2.6.1/WiFi/ESP8266/ESP8266_Serial.c:355:14
	ldrb	r6, [r2, r6]
.Ltmp139:
	.loc	2 355 12 is_stmt 0              @ C:/Users/shw26/AppData/Local/Arm/Packs/ARM/CMSIS-Driver/2.6.1/WiFi/ESP8266/ESP8266_Serial.c:355:12
	strb	r6, [r5]
.Ltmp140:
	.loc	2 351 18 is_stmt 1              @ C:/Users/shw26/AppData/Local/Arm/Packs/ARM/CMSIS-Driver/2.6.1/WiFi/ESP8266/ESP8266_Serial.c:351:18
	adds	r5, r5, #1
.Ltmp141:
	@DEBUG_VALUE: Serial_ReadBuf:i <- [DW_OP_plus_uconst 1, DW_OP_stack_value] undef
	subs	r3, r3, #1
.Ltmp142:
	.loc	2 351 3 is_stmt 0               @ C:/Users/shw26/AppData/Local/Arm/Packs/ARM/CMSIS-Driver/2.6.1/WiFi/ESP8266/ESP8266_Serial.c:351:3
	cmp	r3, #0
.Ltmp143:
	.loc	2 0 0                           @ C:/Users/shw26/AppData/Local/Arm/Packs/ARM/CMSIS-Driver/2.6.1/WiFi/ESP8266/ESP8266_Serial.c:0:0
	mov	r6, r7
.Ltmp144:
	.loc	2 351 3                         @ C:/Users/shw26/AppData/Local/Arm/Packs/ARM/CMSIS-Driver/2.6.1/WiFi/ESP8266/ESP8266_Serial.c:351:3
	bne	.LBB7_4
.Ltmp145:
@ %bb.5:
	@DEBUG_VALUE: Serial_ReadBuf:n <- $r4
	.loc	2 352 17 is_stmt 1              @ C:/Users/shw26/AppData/Local/Arm/Packs/ARM/CMSIS-Driver/2.6.1/WiFi/ESP8266/ESP8266_Serial.c:352:17
	str	r7, [r0]
.Ltmp146:
.LBB7_6:
	@DEBUG_VALUE: Serial_ReadBuf:n <- $r4
	.loc	2 358 3                         @ C:/Users/shw26/AppData/Local/Arm/Packs/ARM/CMSIS-Driver/2.6.1/WiFi/ESP8266/ESP8266_Serial.c:358:3
	mov	r0, r4
	add	sp, #4
	pop	{r4, r5, r6, r7, pc}
.Ltmp147:
	.p2align	2
@ %bb.7:
	.loc	2 0 3 is_stmt 0                 @ C:/Users/shw26/AppData/Local/Arm/Packs/ARM/CMSIS-Driver/2.6.1/WiFi/ESP8266/ESP8266_Serial.c:0:3
__arm_cp.7_0:
	.long	Com.3
.Lcpi_end29:
	.size	__arm_cp.7_0, .Lcpi_end29-__arm_cp.7_0
__arm_cp.7_1:
	.long	Driver_USART0
.Lcpi_end30:
	.size	__arm_cp.7_1, .Lcpi_end30-__arm_cp.7_1
__arm_cp.7_2:
	.long	Com.4
.Lcpi_end31:
	.size	__arm_cp.7_2, .Lcpi_end31-__arm_cp.7_2
__arm_cp.7_3:
	.long	511                             @ 0x1ff
.Lcpi_end32:
	.size	__arm_cp.7_3, .Lcpi_end32-__arm_cp.7_3
__arm_cp.7_4:
	.long	RxBuf
.Lcpi_end33:
	.size	__arm_cp.7_4, .Lcpi_end33-__arm_cp.7_4
.Lfunc_end7:
	.size	Serial_ReadBuf, .Lfunc_end7-Serial_ReadBuf
	.cfi_endproc
	.cantunwind
	.fnend
                                        @ -- End function
	.section	.text.Serial_GetRxCount,"ax",%progbits
	.hidden	Serial_GetRxCount               @ -- Begin function Serial_GetRxCount
	.globl	Serial_GetRxCount
	.p2align	2
	.type	Serial_GetRxCount,%function
	.code	16                              @ @Serial_GetRxCount
	.thumb_func
Serial_GetRxCount:
.Lfunc_begin8:
	.loc	2 365 0 is_stmt 1               @ C:/Users/shw26/AppData/Local/Arm/Packs/ARM/CMSIS-Driver/2.6.1/WiFi/ESP8266/ESP8266_Serial.c:365:0
	.fnstart
	.cfi_startproc
@ %bb.0:
	.save	{r7, lr}
	push	{r7, lr}
	.cfi_def_cfa_offset 8
	.cfi_offset lr, -4
	.cfi_offset r7, -8
.Ltmp148:
	.loc	2 369 17 prologue_end           @ C:/Users/shw26/AppData/Local/Arm/Packs/ARM/CMSIS-Driver/2.6.1/WiFi/ESP8266/ESP8266_Serial.c:369:17
	ldr	r0, __arm_cp.8_0
	ldr	r0, [r0, #36]
	.loc	2 369 8 is_stmt 0               @ C:/Users/shw26/AppData/Local/Arm/Packs/ARM/CMSIS-Driver/2.6.1/WiFi/ESP8266/ESP8266_Serial.c:369:8
	blx	r0
.Ltmp149:
	@DEBUG_VALUE: Serial_GetRxCount:u <- $r0
	.loc	2 370 12 is_stmt 1              @ C:/Users/shw26/AppData/Local/Arm/Packs/ARM/CMSIS-Driver/2.6.1/WiFi/ESP8266/ESP8266_Serial.c:370:12
	ldr	r1, __arm_cp.8_1
	ldr	r1, [r1]
	.loc	2 370 16 is_stmt 0              @ C:/Users/shw26/AppData/Local/Arm/Packs/ARM/CMSIS-Driver/2.6.1/WiFi/ESP8266/ESP8266_Serial.c:370:16
	adds	r0, r1, r0
.Ltmp150:
	@DEBUG_VALUE: Serial_GetRxCount:n <- $r0
	.loc	2 371 12 is_stmt 1              @ C:/Users/shw26/AppData/Local/Arm/Packs/ARM/CMSIS-Driver/2.6.1/WiFi/ESP8266/ESP8266_Serial.c:371:12
	ldr	r1, __arm_cp.8_2
	ldr	r1, [r1]
	.loc	2 371 5 is_stmt 0               @ C:/Users/shw26/AppData/Local/Arm/Packs/ARM/CMSIS-Driver/2.6.1/WiFi/ESP8266/ESP8266_Serial.c:371:5
	subs	r0, r0, r1
.Ltmp151:
	@DEBUG_VALUE: Serial_GetRxCount:n <- $r0
	.loc	2 373 3 is_stmt 1               @ C:/Users/shw26/AppData/Local/Arm/Packs/ARM/CMSIS-Driver/2.6.1/WiFi/ESP8266/ESP8266_Serial.c:373:3
	pop	{r7, pc}
.Ltmp152:
	.p2align	2
@ %bb.1:
	.loc	2 0 3 is_stmt 0                 @ C:/Users/shw26/AppData/Local/Arm/Packs/ARM/CMSIS-Driver/2.6.1/WiFi/ESP8266/ESP8266_Serial.c:0:3
__arm_cp.8_0:
	.long	Driver_USART0
.Lcpi_end34:
	.size	__arm_cp.8_0, .Lcpi_end34-__arm_cp.8_0
__arm_cp.8_1:
	.long	Com.3
.Lcpi_end35:
	.size	__arm_cp.8_1, .Lcpi_end35-__arm_cp.8_1
__arm_cp.8_2:
	.long	Com.4
.Lcpi_end36:
	.size	__arm_cp.8_2, .Lcpi_end36-__arm_cp.8_2
.Lfunc_end8:
	.size	Serial_GetRxCount, .Lfunc_end8-Serial_GetRxCount
	.cfi_endproc
	.cantunwind
	.fnend
                                        @ -- End function
	.section	.text.Serial_GetTxCount,"ax",%progbits
	.hidden	Serial_GetTxCount               @ -- Begin function Serial_GetTxCount
	.globl	Serial_GetTxCount
	.p2align	2
	.type	Serial_GetTxCount,%function
	.code	16                              @ @Serial_GetTxCount
	.thumb_func
Serial_GetTxCount:
.Lfunc_begin9:
	.loc	2 376 0 is_stmt 1               @ C:/Users/shw26/AppData/Local/Arm/Packs/ARM/CMSIS-Driver/2.6.1/WiFi/ESP8266/ESP8266_Serial.c:376:0
	.fnstart
	.cfi_startproc
@ %bb.0:
	.save	{r7, lr}
	push	{r7, lr}
	.cfi_def_cfa_offset 8
	.cfi_offset lr, -4
	.cfi_offset r7, -8
.Ltmp153:
	.loc	2 379 16 prologue_end           @ C:/Users/shw26/AppData/Local/Arm/Packs/ARM/CMSIS-Driver/2.6.1/WiFi/ESP8266/ESP8266_Serial.c:379:16
	ldr	r0, __arm_cp.9_0
	ldr	r0, [r0, #32]
	.loc	2 379 7 is_stmt 0               @ C:/Users/shw26/AppData/Local/Arm/Packs/ARM/CMSIS-Driver/2.6.1/WiFi/ESP8266/ESP8266_Serial.c:379:7
	blx	r0
.Ltmp154:
	@DEBUG_VALUE: Serial_GetTxCount:n <- $r0
	.loc	2 381 3 is_stmt 1               @ C:/Users/shw26/AppData/Local/Arm/Packs/ARM/CMSIS-Driver/2.6.1/WiFi/ESP8266/ESP8266_Serial.c:381:3
	pop	{r7, pc}
.Ltmp155:
	.p2align	2
@ %bb.1:
	.loc	2 0 3 is_stmt 0                 @ C:/Users/shw26/AppData/Local/Arm/Packs/ARM/CMSIS-Driver/2.6.1/WiFi/ESP8266/ESP8266_Serial.c:0:3
__arm_cp.9_0:
	.long	Driver_USART0
.Lcpi_end37:
	.size	__arm_cp.9_0, .Lcpi_end37-__arm_cp.9_0
.Lfunc_end9:
	.size	Serial_GetTxCount, .Lfunc_end9-Serial_GetTxCount
	.cfi_endproc
	.cantunwind
	.fnend
                                        @ -- End function
	.section	.text.Serial_Cb,"ax",%progbits
	.hidden	Serial_Cb                       @ -- Begin function Serial_Cb
	.weak	Serial_Cb
	.p2align	1
	.type	Serial_Cb,%function
	.code	16                              @ @Serial_Cb
	.thumb_func
Serial_Cb:
.Lfunc_begin10:
	.loc	2 425 0 is_stmt 1               @ C:/Users/shw26/AppData/Local/Arm/Packs/ARM/CMSIS-Driver/2.6.1/WiFi/ESP8266/ESP8266_Serial.c:425:0
	.fnstart
	.cfi_startproc
@ %bb.0:
	@DEBUG_VALUE: Serial_Cb:event <- $r0
	.loc	2 427 1 prologue_end            @ C:/Users/shw26/AppData/Local/Arm/Packs/ARM/CMSIS-Driver/2.6.1/WiFi/ESP8266/ESP8266_Serial.c:427:1
	bx	lr
.Ltmp156:
.Lfunc_end10:
	.size	Serial_Cb, .Lfunc_end10-Serial_Cb
	.cfi_endproc
	.cantunwind
	.fnend
                                        @ -- End function
	.type	RxBuf,%object                   @ @RxBuf
	.section	.bss.RxBuf,"aw",%nobits
	.p2align	2
RxBuf:
	.zero	512
	.size	RxBuf, 512

	.type	TxBuf,%object                   @ @TxBuf
	.section	.bss.TxBuf,"aw",%nobits
	.p2align	2
TxBuf:
	.zero	512
	.size	TxBuf, 512

	.type	Com.1,%object                   @ @Com.1
	.section	.bss.Com.1,"aw",%nobits
	.p2align	2
Com.1:
	.long	0                               @ 0x0
	.size	Com.1, 4

	.type	Com.2,%object                   @ @Com.2
	.section	.bss.Com.2,"aw",%nobits
	.p2align	2
Com.2:
	.long	0                               @ 0x0
	.size	Com.2, 4

	.type	Com.3,%object                   @ @Com.3
	.section	.bss.Com.3,"aw",%nobits
	.p2align	2
Com.3:
	.long	0                               @ 0x0
	.size	Com.3, 4

	.type	Com.4,%object                   @ @Com.4
	.section	.bss.Com.4,"aw",%nobits
	.p2align	2
Com.4:
	.long	0                               @ 0x0
	.size	Com.4, 4

	.type	Com.6,%object                   @ @Com.6
	.section	.bss.Com.6,"aw",%nobits
	.p2align	2
Com.6:
	.byte	0                               @ 0x0
	.size	Com.6, 1

	.file	5 "C:/Users/shw26/AppData/Local/Arm/Packs/ARM/CMSIS-Driver/2.6.1/WiFi/ESP8266" "ESP8266_Serial.h"
	.section	".note.GNU-stack","",%progbits
	.eabi_attribute	30, 1	@ Tag_ABI_optimization_goals
	.ARM_attribute	16, 1	@ Tag_AV_eba