	.text
	.syntax unified
	.eabi_attribute	67, "2.09"	@ Tag_conformance
	.cpu	cortex-m23
	.eabi_attribute	6, 16	@ Tag_CPU_arch
	.eabi_attribute	7, 77	@ Tag_CPU_arch_profile
	.eabi_attribute	8, 0	@ Tag_ARM_ISA_use
	.eabi_attribute	9, 3	@ Tag_THUMB_ISA_use
	.eabi_attribute	34, 0	@ Tag_CPU_unaligned_access
	.eabi_attribute	17, 1	@ Tag_ABI_PCS_GOT_use
	.eabi_attribute	20, 2	@ Tag_ABI_FP_denormal
	.eabi_attribute	21, 0	@ Tag_ABI_FP_exceptions
	.eabi_attribute	23, 1	@ Tag_ABI_FP_number_model
	.eabi_attribute	24, 1	@ Tag_ABI_align_needed
	.eabi_attribute	25, 1	@ Tag_ABI_align_preserved
	.eabi_attribute	38, 1	@ Tag_ABI_FP_16bit_format
	.eabi_attribute	18, 2	@ Tag_ABI_PCS_wchar_t
	.eabi_attribute	26, 1	@ Tag_ABI_enum_size
	.eabi_attribute	14, 0	@ Tag_ABI_PCS_R9_use
	.file	"ESP8266.c"
	.file	1 "C:/Users/shw26/AppData/Local/Arm/Packs/ARM/CMSIS-Driver/2.6.1/WiFi/ESP8266/BufList" "LinkList.h"
	.file	2 "C:/Users/shw26/AppData/Local/Arm/Packs/ARM/CMSIS-Driver/2.6.1/WiFi/ESP8266/BufList" "BufList.h"
	.file	3 "C:\\" "Keil_v5\\ARM\\ARMCLANG\\Bin\\..\\include\\stdint.h"
	.file	4 "C:/Users/shw26/AppData/Local/Arm/Packs/ARM/CMSIS-Driver/2.6.1/WiFi/ESP8266" "ESP8266.h"
	.file	5 "C:/Users/shw26/AppData/Local/Arm/Packs/ARM/CMSIS-Driver/2.6.1/WiFi/ESP8266" "ESP8266.c"
	.file	6 "C:/Users/shw26/AppData/Local/Arm/Packs/ARM/CMSIS-Driver/2.6.1/WiFi/ESP8266" "ESP8266_Serial.h"
	.section	.text.Serial_Cb,"ax",%progbits
	.hidden	Serial_Cb                       @ -- Begin function Serial_Cb
	.globl	Serial_Cb
	.p2align	1
	.type	Serial_Cb,%function
	.code	16                              @ @Serial_Cb
	.thumb_func
Serial_Cb:
.Lfunc_begin0:
	.loc	5 220 0                         @ C:/Users/shw26/AppData/Local/Arm/Packs/ARM/CMSIS-Driver/2.6.1/WiFi/ESP8266/ESP8266.c:220:0
	.fnstart
	.cfi_sections .debug_frame
	.cfi_startproc
@ %bb.0:
	@DEBUG_VALUE: Serial_Cb:cb_event <- $r0
	.save	{r4, lr}
	push	{r4, lr}
	.cfi_def_cfa_offset 8
	.cfi_offset lr, -4
	.cfi_offset r4, -8
	mov	r4, r0
.Ltmp0:
	@DEBUG_VALUE: Serial_Cb:cb_event <- $r4
	.loc	5 222 7 prologue_end            @ C:/Users/shw26/AppData/Local/Arm/Packs/ARM/CMSIS-Driver/2.6.1/WiFi/ESP8266/ESP8266.c:222:7
	lsls	r0, r0, #30
	bmi	.LBB0_3
.Ltmp1:
@ %bb.1:
	@DEBUG_VALUE: Serial_Cb:cb_event <- $r4
	.loc	5 227 7                         @ C:/Users/shw26/AppData/Local/Arm/Packs/ARM/CMSIS-Driver/2.6.1/WiFi/ESP8266/ESP8266.c:227:7
	lsls	r0, r4, #31
	bne	.LBB0_4
.Ltmp2:
.LBB0_2:
	@DEBUG_VALUE: Serial_Cb:cb_event <- $r4
	.loc	5 231 1                         @ C:/Users/shw26/AppData/Local/Arm/Packs/ARM/CMSIS-Driver/2.6.1/WiFi/ESP8266/ESP8266.c:231:1
	pop	{r4, pc}
.Ltmp3:
.LBB0_3:
	@DEBUG_VALUE: Serial_Cb:cb_event <- $r4
	.loc	5 0 1 is_stmt 0                 @ C:/Users/shw26/AppData/Local/Arm/Packs/ARM/CMSIS-Driver/2.6.1/WiFi/ESP8266/ESP8266.c:0:1
	movs	r0, #12
	movs	r1, #0
.Ltmp4:
	.loc	5 224 5 is_stmt 1               @ C:/Users/shw26/AppData/Local/Arm/Packs/ARM/CMSIS-Driver/2.6.1/WiFi/ESP8266/ESP8266.c:224:5
	bl	AT_Notify
.Ltmp5:
	.loc	5 227 7                         @ C:/Users/shw26/AppData/Local/Arm/Packs/ARM/CMSIS-Driver/2.6.1/WiFi/ESP8266/ESP8266.c:227:7
	lsls	r0, r4, #31
	beq	.LBB0_2
.Ltmp6:
.LBB0_4:
	@DEBUG_VALUE: Serial_Cb:cb_event <- $r4
	.loc	5 0 7 is_stmt 0                 @ C:/Users/shw26/AppData/Local/Arm/Packs/ARM/CMSIS-Driver/2.6.1/WiFi/ESP8266/ESP8266.c:0:7
	movs	r0, #0
.Ltmp7:
	.loc	5 229 5 is_stmt 1               @ C:/Users/shw26/AppData/Local/Arm/Packs/ARM/CMSIS-Driver/2.6.1/WiFi/ESP8266/ESP8266.c:229:5
	mov	r1, r0
	bl	AT_Notify
.Ltmp8:
	.loc	5 231 1                         @ C:/Users/shw26/AppData/Local/Arm/Packs/ARM/CMSIS-Driver/2.6.1/WiFi/ESP8266/ESP8266.c:231:1
	pop	{r4, pc}
.Ltmp9:
.Lfunc_end0:
	.size	Serial_Cb, .Lfunc_end0-Serial_Cb
	.cfi_endproc
	.cantunwind
	.fnend
                                        @ -- End function
	.section	.text.AT_Parser_Initialize,"ax",%progbits
	.hidden	AT_Parser_Initialize            @ -- Begin function AT_Parser_Initialize
	.globl	AT_Parser_Initialize
	.p2align	2
	.type	AT_Parser_Initialize,%function
	.code	16                              @ @AT_Parser_Initialize
	.thumb_func
AT_Parser_Initialize:
.Lfunc_begin1:
	.loc	5 242 0                         @ C:/Users/shw26/AppData/Local/Arm/Packs/ARM/CMSIS-Driver/2.6.1/WiFi/ESP8266/ESP8266.c:242:0
	.fnstart
	.cfi_startproc
@ %bb.0:
	.save	{r4, r5, r6, r7, lr}
	push	{r4, r5, r6, r7, lr}
	.cfi_def_cfa_offset 20
	.cfi_offset lr, -4
	.cfi_offset r7, -8
	.cfi_offset r6, -12
	.cfi_offset r5, -16
	.cfi_offset r4, -20
	.pad	#28
	sub	sp, #28
	.cfi_def_cfa_offset 48
.Ltmp10:
	@DEBUG_VALUE: AT_Parser_Initialize:stat <- -1
	.loc	5 249 13 prologue_end           @ C:/Users/shw26/AppData/Local/Arm/Packs/ARM/CMSIS-Driver/2.6.1/WiFi/ESP8266/ESP8266.c:249:13
	ldr	r0, __arm_cp.1_0
	add	r2, sp, #4
	mov	r1, r2
	ldm	r0!, {r3, r4, r5}
	stm	r1!, {r3, r4, r5}
	ldm	r0!, {r3, r4, r5}
	stm	r1!, {r3, r4, r5}
	movs	r0, #8
	.loc	5 250 11                        @ C:/Users/shw26/AppData/Local/Arm/Packs/ARM/CMSIS-Driver/2.6.1/WiFi/ESP8266/ESP8266.c:250:11
	movw	r1, #256
	bl	osMemoryPoolNew
	mov	r4, r0
.Ltmp11:
	@DEBUG_VALUE: AT_Parser_Initialize:mp_id <- $r4
	.loc	5 0 11 is_stmt 0                @ C:/Users/shw26/AppData/Local/Arm/Packs/ARM/CMSIS-Driver/2.6.1/WiFi/ESP8266/ESP8266.c:0:11
	movs	r0, #0
	mvns	r7, r0
	movs	r6, #1
	.loc	5 252 7 is_stmt 1               @ C:/Users/shw26/AppData/Local/Arm/Packs/ARM/CMSIS-Driver/2.6.1/WiFi/ESP8266/ESP8266.c:252:7
	cbz	r4, .LBB1_6
.Ltmp12:
@ %bb.1:
	@DEBUG_VALUE: AT_Parser_Initialize:mp_id <- $r4
	@DEBUG_VALUE: AT_Parser_Initialize:stat <- -1
	.loc	5 0 7 is_stmt 0                 @ C:/Users/shw26/AppData/Local/Arm/Packs/ARM/CMSIS-Driver/2.6.1/WiFi/ESP8266/ESP8266.c:0:7
	movs	r0, #0
.Ltmp13:
	.loc	5 254 10 is_stmt 1              @ C:/Users/shw26/AppData/Local/Arm/Packs/ARM/CMSIS-Driver/2.6.1/WiFi/ESP8266/ESP8266.c:254:10
	str	r0, [sp]                        @ 4-byte Spill
	bl	Serial_Initialize
	mov	r5, r0
.Ltmp14:
	@DEBUG_VALUE: AT_Parser_Initialize:ex <- $r5
	.loc	5 256 9                         @ C:/Users/shw26/AppData/Local/Arm/Packs/ARM/CMSIS-Driver/2.6.1/WiFi/ESP8266/ESP8266.c:256:9
	cbz	r0, .LBB1_4
.Ltmp15:
@ %bb.2:
	@DEBUG_VALUE: AT_Parser_Initialize:ex <- $r5
	@DEBUG_VALUE: AT_Parser_Initialize:mp_id <- $r4
	@DEBUG_VALUE: AT_Parser_Initialize:stat <- -1
	cmp	r5, #1
	bne	.LBB1_5
.Ltmp16:
@ %bb.3:
	@DEBUG_VALUE: AT_Parser_Initialize:ex <- $r5
	@DEBUG_VALUE: AT_Parser_Initialize:mp_id <- $r4
	@DEBUG_VALUE: AT_Parser_Initialize:stat <- -1
	@DEBUG_VALUE: AT_Parser_Initialize:stat <- 1
	.loc	5 0 9 is_stmt 0                 @ C:/Users/shw26/AppData/Local/Arm/Packs/ARM/CMSIS-Driver/2.6.1/WiFi/ESP8266/ESP8266.c:0:9
	movs	r5, #1
.Ltmp17:
.LBB1_4:
	@DEBUG_VALUE: AT_Parser_Initialize:mp_id <- $r4
	mov	r0, r6
	ldr	r6, [sp]                        @ 4-byte Reload
.Ltmp18:
	@DEBUG_VALUE: AT_Parser_Initialize:stat <- $r5
	.loc	5 268 7 is_stmt 1               @ C:/Users/shw26/AppData/Local/Arm/Packs/ARM/CMSIS-Driver/2.6.1/WiFi/ESP8266/ESP8266.c:268:7
	cbnz	r0, .LBB1_7
	b	.LBB1_8
.Ltmp19:
.LBB1_5:
	@DEBUG_VALUE: AT_Parser_Initialize:ex <- $r5
	@DEBUG_VALUE: AT_Parser_Initialize:mp_id <- $r4
	@DEBUG_VALUE: AT_Parser_Initialize:stat <- -1
	.loc	5 0 7 is_stmt 0                 @ C:/Users/shw26/AppData/Local/Arm/Packs/ARM/CMSIS-Driver/2.6.1/WiFi/ESP8266/ESP8266.c:0:7
	movs	r0, #0
.Ltmp20:
.LBB1_6:
	@DEBUG_VALUE: AT_Parser_Initialize:mp_id <- $r4
	@DEBUG_VALUE: AT_Parser_Initialize:stat <- -1
	mov	r5, r7
.Ltmp21:
	@DEBUG_VALUE: AT_Parser_Initialize:stat <- $r5
	.loc	5 268 7                         @ C:/Users/shw26/AppData/Local/Arm/Packs/ARM/CMSIS-Driver/2.6.1/WiFi/ESP8266/ESP8266.c:268:7
	cbz	r0, .LBB1_8
.Ltmp22:
.LBB1_7:
	@DEBUG_VALUE: AT_Parser_Initialize:stat <- $r5
	@DEBUG_VALUE: AT_Parser_Initialize:mp_id <- $r4
	.loc	5 0 7                           @ C:/Users/shw26/AppData/Local/Arm/Packs/ARM/CMSIS-Driver/2.6.1/WiFi/ESP8266/ESP8266.c:0:7
	movs	r7, #0
	str	r6, [sp]                        @ 4-byte Spill
.Ltmp23:
	.loc	5 270 5 is_stmt 1               @ C:/Users/shw26/AppData/Local/Arm/Packs/ARM/CMSIS-Driver/2.6.1/WiFi/ESP8266/ESP8266.c:270:5
	ldr	r6, __arm_cp.1_1
	mov	r0, r4
	mov	r1, r7
	mov	r2, r6
	bl	BufInit
	.loc	5 271 5                         @ C:/Users/shw26/AppData/Local/Arm/Packs/ARM/CMSIS-Driver/2.6.1/WiFi/ESP8266/ESP8266.c:271:5
	mov	r2, r6
	adds	r2, #20
	mov	r0, r4
	mov	r1, r7
	bl	BufInit
	movs	r0, #46
	.loc	5 279 20                        @ C:/Users/shw26/AppData/Local/Arm/Packs/ARM/CMSIS-Driver/2.6.1/WiFi/ESP8266/ESP8266.c:279:20
	strb	r7, [r6, r0]
	movs	r0, #45
	movs	r1, #255
	.loc	5 278 20                        @ C:/Users/shw26/AppData/Local/Arm/Packs/ARM/CMSIS-Driver/2.6.1/WiFi/ESP8266/ESP8266.c:278:20
	strb	r1, [r6, r0]
	movw	r0, #65280
	.loc	5 274 20                        @ C:/Users/shw26/AppData/Local/Arm/Packs/ARM/CMSIS-Driver/2.6.1/WiFi/ESP8266/ESP8266.c:274:20
	str	r0, [r6, #40]
	ldr	r6, [sp]                        @ 4-byte Reload
.Ltmp24:
.LBB1_8:
	@DEBUG_VALUE: AT_Parser_Initialize:stat <- $r5
	@DEBUG_VALUE: AT_Parser_Initialize:mp_id <- $r4
	.loc	5 282 7                         @ C:/Users/shw26/AppData/Local/Arm/Packs/ARM/CMSIS-Driver/2.6.1/WiFi/ESP8266/ESP8266.c:282:7
	cbz	r6, .LBB1_11
.Ltmp25:
@ %bb.9:
	@DEBUG_VALUE: AT_Parser_Initialize:stat <- $r5
	@DEBUG_VALUE: AT_Parser_Initialize:mp_id <- $r4
	.loc	5 284 5                         @ C:/Users/shw26/AppData/Local/Arm/Packs/ARM/CMSIS-Driver/2.6.1/WiFi/ESP8266/ESP8266.c:284:5
	bl	Serial_Uninitialize
	.loc	5 286 9                         @ C:/Users/shw26/AppData/Local/Arm/Packs/ARM/CMSIS-Driver/2.6.1/WiFi/ESP8266/ESP8266.c:286:9
	cbz	r4, .LBB1_11
.Ltmp26:
@ %bb.10:
	@DEBUG_VALUE: AT_Parser_Initialize:stat <- $r5
	@DEBUG_VALUE: AT_Parser_Initialize:mp_id <- $r4
	.loc	5 287 7                         @ C:/Users/shw26/AppData/Local/Arm/Packs/ARM/CMSIS-Driver/2.6.1/WiFi/ESP8266/ESP8266.c:287:7
	mov	r0, r4
	bl	osMemoryPoolDelete
.Ltmp27:
.LBB1_11:
	@DEBUG_VALUE: AT_Parser_Initialize:stat <- $r5
	@DEBUG_VALUE: AT_Parser_Initialize:mp_id <- $r4
	.loc	5 291 3                         @ C:/Users/shw26/AppData/Local/Arm/Packs/ARM/CMSIS-Driver/2.6.1/WiFi/ESP8266/ESP8266.c:291:3
	mov	r0, r5
	add	sp, #28
	pop	{r4, r5, r6, r7, pc}
.Ltmp28:
	.p2align	2
@ %bb.12:
	.loc	5 0 3 is_stmt 0                 @ C:/Users/shw26/AppData/Local/Arm/Packs/ARM/CMSIS-Driver/2.6.1/WiFi/ESP8266/ESP8266.c:0:3
__arm_cp.1_0:
	.long	AT_Parser_MemPool_Attr
.Lcpi_end0:
	.size	__arm_cp.1_0, .Lcpi_end0-__arm_cp.1_0
__arm_cp.1_1:
	.long	AT_Cb
.Lcpi_end1:
	.size	__arm_cp.1_1, .Lcpi_end1-__arm_cp.1_1
.Lfunc_end1:
	.size	AT_Parser_Initialize, .Lfunc_end1-AT_Parser_Initialize
	.cfi_endproc
	.cantunwind
	.fnend
                                        @ -- End function
	.section	.text.AT_Parser_Uninitialize,"ax",%progbits
	.hidden	AT_Parser_Uninitialize          @ -- Begin function AT_Parser_Uninitialize
	.globl	AT_Parser_Uninitialize
	.p2align	2
	.type	AT_Parser_Uninitialize,%function
	.code	16                              @ @AT_Parser_Uninitialize
	.thumb_func
AT_Parser_Uninitialize:
.Lfunc_begin2:
	.loc	5 297 0 is_stmt 1               @ C:/Users/shw26/AppData/Local/Arm/Packs/ARM/CMSIS-Driver/2.6.1/WiFi/ESP8266/ESP8266.c:297:0
	.fnstart
	.cfi_startproc
@ %bb.0:
	.save	{r4, lr}
	push	{r4, lr}
	.cfi_def_cfa_offset 8
	.cfi_offset lr, -4
	.cfi_offset r4, -8
.Ltmp29:
	.loc	5 299 3 prologue_end            @ C:/Users/shw26/AppData/Local/Arm/Packs/ARM/CMSIS-Driver/2.6.1/WiFi/ESP8266/ESP8266.c:299:3
	bl	Serial_Uninitialize
	.loc	5 301 3                         @ C:/Users/shw26/AppData/Local/Arm/Packs/ARM/CMSIS-Driver/2.6.1/WiFi/ESP8266/ESP8266.c:301:3
	ldr	r4, __arm_cp.2_0
	mov	r0, r4
	bl	BufUninit
	.loc	5 303 29                        @ C:/Users/shw26/AppData/Local/Arm/Packs/ARM/CMSIS-Driver/2.6.1/WiFi/ESP8266/ESP8266.c:303:29
	ldr	r0, [r4, #12]
	.loc	5 303 3 is_stmt 0               @ C:/Users/shw26/AppData/Local/Arm/Packs/ARM/CMSIS-Driver/2.6.1/WiFi/ESP8266/ESP8266.c:303:3
	bl	osMemoryPoolDelete
	movs	r0, #0
	.loc	5 306 19 is_stmt 1              @ C:/Users/shw26/AppData/Local/Arm/Packs/ARM/CMSIS-Driver/2.6.1/WiFi/ESP8266/ESP8266.c:306:19
	str	r0, [r4, #32]
	.loc	5 305 19                        @ C:/Users/shw26/AppData/Local/Arm/Packs/ARM/CMSIS-Driver/2.6.1/WiFi/ESP8266/ESP8266.c:305:19
	str	r0, [r4, #12]
	.loc	5 308 3                         @ C:/Users/shw26/AppData/Local/Arm/Packs/ARM/CMSIS-Driver/2.6.1/WiFi/ESP8266/ESP8266.c:308:3
	pop	{r4, pc}
.Ltmp30:
	.p2align	2
@ %bb.1:
	.loc	5 0 3 is_stmt 0                 @ C:/Users/shw26/AppData/Local/Arm/Packs/ARM/CMSIS-Driver/2.6.1/WiFi/ESP8266/ESP8266.c:0:3
__arm_cp.2_0:
	.long	AT_Cb
.Lcpi_end2:
	.size	__arm_cp.2_0, .Lcpi_end2-__arm_cp.2_0
.Lfunc_end2:
	.size	AT_Parser_Uninitialize, .Lfunc_end2-AT_Parser_Uninitialize
	.cfi_endproc
	.cantunwind
	.fnend
                                        @ -- End function
	.section	.text.AT_Parser_GetSerialCfg,"ax",%progbits
	.hidden	AT_Parser_GetSerialCfg          @ -- Begin function AT_Parser_GetSerialCfg
	.globl	AT_Parser_GetSerialCfg
	.p2align	1
	.type	AT_Parser_GetSerialCfg,%function
	.code	16                              @ @AT_Parser_GetSerialCfg
	.thumb_func
AT_Parser_GetSerialCfg:
.Lfunc_begin3:
	.loc	5 314 0 is_stmt 1               @ C:/Users/shw26/AppData/Local/Arm/Packs/ARM/CMSIS-Driver/2.6.1/WiFi/ESP8266/ESP8266.c:314:0
	.fnstart
	.cfi_startproc
@ %bb.0:
	@DEBUG_VALUE: AT_Parser_GetSerialCfg:info <- $r0
	@DEBUG_VALUE: AT_Parser_GetSerialCfg:info <- $r0
	@DEBUG_VALUE: AT_Parser_GetSerialCfg:info <- $r0
	.save	{r7, lr}
	push	{r7, lr}
	.cfi_def_cfa_offset 8
	.cfi_offset lr, -4
	.cfi_offset r7, -8
.Ltmp31:
	.loc	5 315 11 prologue_end           @ C:/Users/shw26/AppData/Local/Arm/Packs/ARM/CMSIS-Driver/2.6.1/WiFi/ESP8266/ESP8266.c:315:11
	bl	Serial_GetMode
.Ltmp32:
	@DEBUG_VALUE: AT_Parser_GetSerialCfg:info <- [DW_OP_LLVM_entry_value 1] $r0
	.loc	5 315 3 is_stmt 0               @ C:/Users/shw26/AppData/Local/Arm/Packs/ARM/CMSIS-Driver/2.6.1/WiFi/ESP8266/ESP8266.c:315:3
	pop	{r7, pc}
.Ltmp33:
.Lfunc_end3:
	.size	AT_Parser_GetSerialCfg, .Lfunc_end3-AT_Parser_GetSerialCfg
	.cfi_endproc
	.cantunwind
	.fnend
                                        @ -- End function
	.section	.text.AT_Parser_SetSerialCfg,"ax",%progbits
	.hidden	AT_Parser_SetSerialCfg          @ -- Begin function AT_Parser_SetSerialCfg
	.globl	AT_Parser_SetSerialCfg
	.p2align	1
	.type	AT_Parser_SetSerialCfg,%function
	.code	16                              @ @AT_Parser_SetSerialCfg
	.thumb_func
AT_Parser_SetSerialCfg:
.Lfunc_begin4:
	.loc	5 321 0 is_stmt 1               @ C:/Users/shw26/AppData/Local/Arm/Packs/ARM/CMSIS-Driver/2.6.1/WiFi/ESP8266/ESP8266.c:321:0
	.fnstart
	.cfi_startproc
@ %bb.0:
	@DEBUG_VALUE: AT_Parser_SetSerialCfg:info <- $r0
	@DEBUG_VALUE: AT_Parser_SetSerialCfg:info <- $r0
	@DEBUG_VALUE: AT_Parser_SetSerialCfg:info <- $r0
	.save	{r7, lr}
	push	{r7, lr}
	.cfi_def_cfa_offset 8
	.cfi_offset lr, -4
	.cfi_offset r7, -8
.Ltmp34:
	.loc	5 322 11 prologue_end           @ C:/Users/shw26/AppData/Local/Arm/Packs/ARM/CMSIS-Driver/2.6.1/WiFi/ESP8266/ESP8266.c:322:11
	bl	Serial_SetMode
.Ltmp35:
	@DEBUG_VALUE: AT_Parser_SetSerialCfg:info <- [DW_OP_LLVM_entry_value 1] $r0
	.loc	5 322 3 is_stmt 0               @ C:/Users/shw26/AppData/Local/Arm/Packs/ARM/CMSIS-Driver/2.6.1/WiFi/ESP8266/ESP8266.c:322:3
	pop	{r7, pc}
.Ltmp36:
.Lfunc_end4:
	.size	AT_Parser_SetSerialCfg, .Lfunc_end4-AT_Parser_SetSerialCfg
	.cfi_endproc
	.cantunwind
	.fnend
                                        @ -- End function
	.section	.text.AT_Parser_Reset,"ax",%progbits
	.hidden	AT_Parser_Reset                 @ -- Begin function AT_Parser_Reset
	.globl	AT_Parser_Reset
	.p2align	2
	.type	AT_Parser_Reset,%function
	.code	16                              @ @AT_Parser_Reset
	.thumb_func
AT_Parser_Reset:
.Lfunc_begin5:
	.loc	5 328 0 is_stmt 1               @ C:/Users/shw26/AppData/Local/Arm/Packs/ARM/CMSIS-Driver/2.6.1/WiFi/ESP8266/ESP8266.c:328:0
	.fnstart
	.cfi_startproc
@ %bb.0:
	.save	{r4, r5, r7, lr}
	push	{r4, r5, r7, lr}
	.cfi_def_cfa_offset 16
	.cfi_offset lr, -4
	.cfi_offset r7, -8
	.cfi_offset r5, -12
	.cfi_offset r4, -16
	movs	r4, #0
.Ltmp37:
	.loc	5 331 3 prologue_end            @ C:/Users/shw26/AppData/Local/Arm/Packs/ARM/CMSIS-Driver/2.6.1/WiFi/ESP8266/ESP8266.c:331:3
	ldr	r5, __arm_cp.5_0
	mov	r0, r4
	mov	r1, r5
	bl	BufFlush
	movs	r0, #46
	.loc	5 339 18                        @ C:/Users/shw26/AppData/Local/Arm/Packs/ARM/CMSIS-Driver/2.6.1/WiFi/ESP8266/ESP8266.c:339:18
	strb	r4, [r5, r0]
	movs	r0, #45
	movs	r1, #255
	.loc	5 338 18                        @ C:/Users/shw26/AppData/Local/Arm/Packs/ARM/CMSIS-Driver/2.6.1/WiFi/ESP8266/ESP8266.c:338:18
	strb	r1, [r5, r0]
	movw	r0, #65280
	.loc	5 334 18                        @ C:/Users/shw26/AppData/Local/Arm/Packs/ARM/CMSIS-Driver/2.6.1/WiFi/ESP8266/ESP8266.c:334:18
	str	r0, [r5, #40]
	.loc	5 340 1                         @ C:/Users/shw26/AppData/Local/Arm/Packs/ARM/CMSIS-Driver/2.6.1/WiFi/ESP8266/ESP8266.c:340:1
	pop	{r4, r5, r7, pc}
.Ltmp38:
	.p2align	2
@ %bb.1:
	.loc	5 0 1 is_stmt 0                 @ C:/Users/shw26/AppData/Local/Arm/Packs/ARM/CMSIS-Driver/2.6.1/WiFi/ESP8266/ESP8266.c:0:1
__arm_cp.5_0:
	.long	AT_Cb
.Lcpi_end3:
	.size	__arm_cp.5_0, .Lcpi_end3-__arm_cp.5_0
.Lfunc_end5:
	.size	AT_Parser_Reset, .Lfunc_end5-AT_Parser_Reset
	.cfi_endproc
	.cantunwind
	.fnend
                                        @ -- End function
	.section	.text.AT_Parser_Execute,"ax",%progbits
	.hidden	AT_Parser_Execute               @ -- Begin function AT_Parser_Execute
	.globl	AT_Parser_Execute
	.p2align	2
	.type	AT_Parser_Execute,%function
	.code	16                              @ @AT_Parser_Execute
	.thumb_func
AT_Parser_Execute:
.Lfunc_begin6:
	.loc	5 345 0 is_stmt 1               @ C:/Users/shw26/AppData/Local/Arm/Packs/ARM/CMSIS-Driver/2.6.1/WiFi/ESP8266/ESP8266.c:345:0
	.fnstart
	.cfi_startproc
@ %bb.0:
	.save	{r4, r5, r6, r7, lr}
	push	{r4, r5, r6, r7, lr}
	.cfi_def_cfa_offset 20
	.cfi_offset lr, -4
	.cfi_offset r7, -8
	.cfi_offset r6, -12
	.cfi_offset r5, -16
	.cfi_offset r4, -20
	.pad	#36
	sub	sp, #36
	.cfi_def_cfa_offset 56
	add	r0, sp, #32
	ldr	r1, __arm_cp.6_0
.Ltmp39:
	@DEBUG_VALUE: AT_Parser_Execute:crlf <- 2573
	.loc	5 346 11 prologue_end           @ C:/Users/shw26/AppData/Local/Arm/Packs/ARM/CMSIS-Driver/2.6.1/WiFi/ESP8266/ESP8266.c:346:11
	strh	r1, [r0]
.Ltmp40:
	@DEBUG_VALUE: AT_Parser_Execute:sleep <- 0
	.loc	5 0 11 is_stmt 0                @ C:/Users/shw26/AppData/Local/Arm/Packs/ARM/CMSIS-Driver/2.6.1/WiFi/ESP8266/ESP8266.c:0:11
	ldr	r4, __arm_cp.6_1
	movs	r0, #13
	str	r0, [sp, #24]                   @ 4-byte Spill
	movs	r6, #40
	movs	r5, #0
	movs	r0, #1
	str	r0, [sp, #12]                   @ 4-byte Spill
	movs	r0, #2
	str	r0, [sp, #20]                   @ 4-byte Spill
	movs	r0, #45
	str	r0, [sp, #8]                    @ 4-byte Spill
	mov	r0, r4
	adds	r0, #20
	str	r0, [sp, #16]                   @ 4-byte Spill
	movs	r0, #6
	str	r0, [sp, #4]                    @ 4-byte Spill
	b	.LBB6_6
.Ltmp41:
.LBB6_1:                                @   in Loop: Header=BB6_6 Depth=1
	movs	r0, #4
.LBB6_2:                                @   in Loop: Header=BB6_6 Depth=1
	movs	r1, #0
.Ltmp42:
	bl	AT_Notify
	b	.LBB6_11
.Ltmp43:
.LBB6_3:                                @   in Loop: Header=BB6_6 Depth=1
	strb	r0, [r4, r6]
.Ltmp44:
.LBB6_4:                                @   in Loop: Header=BB6_6 Depth=1
	mov	r7, r5
.LBB6_5:                                @   in Loop: Header=BB6_6 Depth=1
.Ltmp45:
	@DEBUG_VALUE: AT_Parser_Execute:sleep <- $r7
	.loc	5 353 3 is_stmt 1               @ C:/Users/shw26/AppData/Local/Arm/Packs/ARM/CMSIS-Driver/2.6.1/WiFi/ESP8266/ESP8266.c:353:3
	cmp	r7, #0
	beq	.LBB6_6
	b	.LBB6_52
.Ltmp46:
.LBB6_6:                                @ =>This Inner Loop Header: Depth=1
	.loc	5 356 9                         @ C:/Users/shw26/AppData/Local/Arm/Packs/ARM/CMSIS-Driver/2.6.1/WiFi/ESP8266/ESP8266.c:356:9
	bl	ReceiveData
.Ltmp47:
	@DEBUG_VALUE: AT_Parser_Execute:n <- $r0
	.loc	5 358 9                         @ C:/Users/shw26/AppData/Local/Arm/Packs/ARM/CMSIS-Driver/2.6.1/WiFi/ESP8266/ESP8266.c:358:9
	cmp	r0, #1
	bne	.LBB6_8
.Ltmp48:
@ %bb.7:                                @   in Loop: Header=BB6_6 Depth=1
	@DEBUG_VALUE: AT_Parser_Execute:n <- $r0
	.loc	5 360 52                        @ C:/Users/shw26/AppData/Local/Arm/Packs/ARM/CMSIS-Driver/2.6.1/WiFi/ESP8266/ESP8266.c:360:52
	ldr	r1, [r4, #12]
	.loc	5 360 7 is_stmt 0               @ C:/Users/shw26/AppData/Local/Arm/Packs/ARM/CMSIS-Driver/2.6.1/WiFi/ESP8266/ESP8266.c:360:7
	ldr	r0, [sp, #24]                   @ 4-byte Reload
.Ltmp49:
	bl	AT_Notify
.Ltmp50:
.LBB6_8:                                @   in Loop: Header=BB6_6 Depth=1
	.loc	5 363 18 is_stmt 1              @ C:/Users/shw26/AppData/Local/Arm/Packs/ARM/CMSIS-Driver/2.6.1/WiFi/ESP8266/ESP8266.c:363:18
	ldrb	r0, [r4, r6]
	.loc	5 363 5 is_stmt 0               @ C:/Users/shw26/AppData/Local/Arm/Packs/ARM/CMSIS-Driver/2.6.1/WiFi/ESP8266/ESP8266.c:363:5
	cmp	r0, #9
.Ltmp51:
	.loc	5 0 0                           @ C:/Users/shw26/AppData/Local/Arm/Packs/ARM/CMSIS-Driver/2.6.1/WiFi/ESP8266/ESP8266.c:0:0
	mov	r7, r5
.Ltmp52:
	.loc	5 363 5                         @ C:/Users/shw26/AppData/Local/Arm/Packs/ARM/CMSIS-Driver/2.6.1/WiFi/ESP8266/ESP8266.c:363:5
	bhi	.LBB6_5
@ %bb.9:                                @   in Loop: Header=BB6_6 Depth=1
	.loc	5 0 5                           @ C:/Users/shw26/AppData/Local/Arm/Packs/ARM/CMSIS-Driver/2.6.1/WiFi/ESP8266/ESP8266.c:0:5
	lsls	r1, r0, #2
	adr	r2, .LJTI6_0
	adds	r1, r2, r1
	mov	pc, r1
@ %bb.10:
	.p2align	2
.LJTI6_0:
	b.w	.LBB6_12
	b.w	.LBB6_13
	b.w	.LBB6_14
	b.w	.LBB6_17
	b.w	.LBB6_22
	b.w	.LBB6_24
	b.w	.LBB6_30
	b.w	.LBB6_32
	b.w	.LBB6_33
	b.w	.LBB6_11
.LBB6_11:                               @   in Loop: Header=BB6_6 Depth=1
.Ltmp53:
	ldr	r0, [sp, #20]                   @ 4-byte Reload
	b	.LBB6_3
.LBB6_12:                               @   in Loop: Header=BB6_6 Depth=1
	.loc	5 365 22 is_stmt 1              @ C:/Users/shw26/AppData/Local/Arm/Packs/ARM/CMSIS-Driver/2.6.1/WiFi/ESP8266/ESP8266.c:365:22
	bl	AnalyzeLineData
	b	.LBB6_3
.LBB6_13:                               @   in Loop: Header=BB6_6 Depth=1
.Ltmp54:
	@DEBUG_VALUE: AT_Parser_Execute:sleep <- 1
	.loc	5 373 20                        @ C:/Users/shw26/AppData/Local/Arm/Packs/ARM/CMSIS-Driver/2.6.1/WiFi/ESP8266/ESP8266.c:373:20
	strb	r5, [r4, r6]
.Ltmp55:
	.loc	5 0 0 is_stmt 0                 @ C:/Users/shw26/AppData/Local/Arm/Packs/ARM/CMSIS-Driver/2.6.1/WiFi/ESP8266/ESP8266.c:0:0
	ldr	r7, [sp, #12]                   @ 4-byte Reload
	b	.LBB6_5
.Ltmp56:
.LBB6_14:                               @   in Loop: Header=BB6_6 Depth=1
	@DEBUG_VALUE: AT_Parser_Execute:crlf <- [DW_OP_plus_uconst 32, DW_OP_deref] $sp
	add	r0, sp, #32
.Ltmp57:
	.loc	5 378 13 is_stmt 1              @ C:/Users/shw26/AppData/Local/Arm/Packs/ARM/CMSIS-Driver/2.6.1/WiFi/ESP8266/ESP8266.c:378:13
	ldr	r1, [sp, #20]                   @ 4-byte Reload
	mov	r2, r4
	bl	BufFind
.Ltmp58:
	@DEBUG_VALUE: AT_Parser_Execute:n <- $r0
	.loc	5 380 13                        @ C:/Users/shw26/AppData/Local/Arm/Packs/ARM/CMSIS-Driver/2.6.1/WiFi/ESP8266/ESP8266.c:380:13
	adds	r1, r0, #1
	beq	.LBB6_16
.Ltmp59:
@ %bb.15:                               @   in Loop: Header=BB6_6 Depth=1
	@DEBUG_VALUE: AT_Parser_Execute:n <- $r0
	@DEBUG_VALUE: AT_Parser_Execute:crlf <- [DW_OP_plus_uconst 32, DW_OP_deref] $sp
	.loc	5 382 33                        @ C:/Users/shw26/AppData/Local/Arm/Packs/ARM/CMSIS-Driver/2.6.1/WiFi/ESP8266/ESP8266.c:382:33
	adds	r0, r0, #2
.Ltmp60:
	.loc	5 382 11 is_stmt 0              @ C:/Users/shw26/AppData/Local/Arm/Packs/ARM/CMSIS-Driver/2.6.1/WiFi/ESP8266/ESP8266.c:382:11
	mov	r1, r4
	bl	BufFlush
.Ltmp61:
.LBB6_16:                               @   in Loop: Header=BB6_6 Depth=1
	@DEBUG_VALUE: AT_Parser_Execute:crlf <- [DW_OP_plus_uconst 32, DW_OP_deref] $sp
	.loc	5 386 20 is_stmt 1              @ C:/Users/shw26/AppData/Local/Arm/Packs/ARM/CMSIS-Driver/2.6.1/WiFi/ESP8266/ESP8266.c:386:20
	strb	r5, [r4, r6]
	b	.LBB6_4
.Ltmp62:
.LBB6_17:                               @   in Loop: Header=BB6_6 Depth=1
	.loc	5 416 18                        @ C:/Users/shw26/AppData/Local/Arm/Packs/ARM/CMSIS-Driver/2.6.1/WiFi/ESP8266/ESP8266.c:416:18
	ldr	r0, [sp, #8]                    @ 4-byte Reload
	ldrb	r0, [r4, r0]
.Ltmp63:
	.loc	5 416 13 is_stmt 0              @ C:/Users/shw26/AppData/Local/Arm/Packs/ARM/CMSIS-Driver/2.6.1/WiFi/ESP8266/ESP8266.c:416:13
	cmp	r0, #22
	beq	.LBB6_38
@ %bb.18:                               @   in Loop: Header=BB6_6 Depth=1
	cmp	r0, #0
	beq	.LBB6_19
	b	.LBB6_39
.LBB6_19:                               @   in Loop: Header=BB6_6 Depth=1
	.loc	5 0 13                          @ C:/Users/shw26/AppData/Local/Arm/Packs/ARM/CMSIS-Driver/2.6.1/WiFi/ESP8266/ESP8266.c:0:13
	movs	r0, #46
.Ltmp64:
	.loc	5 418 52 is_stmt 1              @ C:/Users/shw26/AppData/Local/Arm/Packs/ARM/CMSIS-Driver/2.6.1/WiFi/ESP8266/ESP8266.c:418:52
	ldrb	r0, [r4, r0]
	.loc	5 418 60 is_stmt 0              @ C:/Users/shw26/AppData/Local/Arm/Packs/ARM/CMSIS-Driver/2.6.1/WiFi/ESP8266/ESP8266.c:418:60
	adds	r2, r0, #1
	.loc	5 418 11                        @ C:/Users/shw26/AppData/Local/Arm/Packs/ARM/CMSIS-Driver/2.6.1/WiFi/ESP8266/ESP8266.c:418:11
	ldr	r0, [sp, #16]                   @ 4-byte Reload
	mov	r1, r4
	bl	BufCopy
	movs	r7, #0
	.loc	5 421 23 is_stmt 1              @ C:/Users/shw26/AppData/Local/Arm/Packs/ARM/CMSIS-Driver/2.6.1/WiFi/ESP8266/ESP8266.c:421:23
	str	r7, [r4, #52]
	mov	r1, r4
	adds	r1, #52
	movs	r0, #8
	.loc	5 423 11                        @ C:/Users/shw26/AppData/Local/Arm/Packs/ARM/CMSIS-Driver/2.6.1/WiFi/ESP8266/ESP8266.c:423:11
	bl	AT_Notify
.Ltmp65:
	.loc	5 425 20                        @ C:/Users/shw26/AppData/Local/Arm/Packs/ARM/CMSIS-Driver/2.6.1/WiFi/ESP8266/ESP8266.c:425:20
	ldr	r0, [r4, #52]
.Ltmp66:
	.loc	5 425 15 is_stmt 0              @ C:/Users/shw26/AppData/Local/Arm/Packs/ARM/CMSIS-Driver/2.6.1/WiFi/ESP8266/ESP8266.c:425:15
	cbnz	r0, .LBB6_21
@ %bb.20:                               @   in Loop: Header=BB6_6 Depth=1
	.loc	5 0 15                          @ C:/Users/shw26/AppData/Local/Arm/Packs/ARM/CMSIS-Driver/2.6.1/WiFi/ESP8266/ESP8266.c:0:15
	movs	r0, #13
	movs	r1, #0
.Ltmp67:
	.loc	5 427 13 is_stmt 1              @ C:/Users/shw26/AppData/Local/Arm/Packs/ARM/CMSIS-Driver/2.6.1/WiFi/ESP8266/ESP8266.c:427:13
	bl	AT_Notify
.Ltmp68:
.LBB6_21:                               @   in Loop: Header=BB6_6 Depth=1
	.loc	5 431 22                        @ C:/Users/shw26/AppData/Local/Arm/Packs/ARM/CMSIS-Driver/2.6.1/WiFi/ESP8266/ESP8266.c:431:22
	ldr	r0, [sp, #4]                    @ 4-byte Reload
	strb	r0, [r4, r6]
	b	.LBB6_5
.Ltmp69:
.LBB6_22:                               @   in Loop: Header=BB6_6 Depth=1
	.loc	5 0 22 is_stmt 0                @ C:/Users/shw26/AppData/Local/Arm/Packs/ARM/CMSIS-Driver/2.6.1/WiFi/ESP8266/ESP8266.c:0:22
	movs	r0, #46
	.loc	5 474 50 is_stmt 1              @ C:/Users/shw26/AppData/Local/Arm/Packs/ARM/CMSIS-Driver/2.6.1/WiFi/ESP8266/ESP8266.c:474:50
	ldrb	r0, [r4, r0]
	.loc	5 474 58 is_stmt 0              @ C:/Users/shw26/AppData/Local/Arm/Packs/ARM/CMSIS-Driver/2.6.1/WiFi/ESP8266/ESP8266.c:474:58
	adds	r2, r0, #2
	.loc	5 474 9                         @ C:/Users/shw26/AppData/Local/Arm/Packs/ARM/CMSIS-Driver/2.6.1/WiFi/ESP8266/ESP8266.c:474:9
	ldr	r0, [sp, #16]                   @ 4-byte Reload
	mov	r1, r4
	bl	BufCopy
.LBB6_23:                               @   in Loop: Header=BB6_6 Depth=1
	.loc	5 0 9                           @ C:/Users/shw26/AppData/Local/Arm/Packs/ARM/CMSIS-Driver/2.6.1/WiFi/ESP8266/ESP8266.c:0:9
	movs	r7, #0
	strb	r7, [r4, r6]
	b	.LBB6_5
.LBB6_24:                               @   in Loop: Header=BB6_6 Depth=1
	movs	r0, #43
	.loc	5 481 22 is_stmt 1              @ C:/Users/shw26/AppData/Local/Arm/Packs/ARM/CMSIS-Driver/2.6.1/WiFi/ESP8266/ESP8266.c:481:22
	ldrb	r1, [r4, r0]
	movs	r7, #0
	.loc	5 481 9 is_stmt 0               @ C:/Users/shw26/AppData/Local/Arm/Packs/ARM/CMSIS-Driver/2.6.1/WiFi/ESP8266/ESP8266.c:481:9
	cmp	r1, #13
	bhi	.LBB6_29
@ %bb.25:                               @   in Loop: Header=BB6_6 Depth=1
	.loc	5 0 9                           @ C:/Users/shw26/AppData/Local/Arm/Packs/ARM/CMSIS-Driver/2.6.1/WiFi/ESP8266/ESP8266.c:0:9
	movs	r0, #1
	lsls	r2, r1, #2
	adr	r3, .LJTI6_1
	adds	r2, r3, r2
	mov	pc, r2
@ %bb.26:
	.p2align	2
.LJTI6_1:
	b.w	.LBB6_27
	b.w	.LBB6_27
	b.w	.LBB6_29
	b.w	.LBB6_27
	b.w	.LBB6_27
	b.w	.LBB6_29
	b.w	.LBB6_29
	b.w	.LBB6_27
	b.w	.LBB6_28
	b.w	.LBB6_48
	b.w	.LBB6_49
	b.w	.LBB6_29
	b.w	.LBB6_50
	b.w	.LBB6_51
.LBB6_27:                               @   in Loop: Header=BB6_6 Depth=1
	movs	r0, #42
.Ltmp70:
	.loc	5 488 27 is_stmt 1              @ C:/Users/shw26/AppData/Local/Arm/Packs/ARM/CMSIS-Driver/2.6.1/WiFi/ESP8266/ESP8266.c:488:27
	strb	r1, [r4, r0]
	movs	r7, #1
	movs	r0, #11
.Ltmp71:
	@DEBUG_VALUE: AT_Parser_Execute:sleep <- 1
.LBB6_28:                               @   in Loop: Header=BB6_6 Depth=1
	.loc	5 0 27 is_stmt 0                @ C:/Users/shw26/AppData/Local/Arm/Packs/ARM/CMSIS-Driver/2.6.1/WiFi/ESP8266/ESP8266.c:0:27
	movs	r1, #0
	bl	AT_Notify
.Ltmp72:
.LBB6_29:                               @   in Loop: Header=BB6_6 Depth=1
	movs	r0, #2
	strb	r0, [r4, r6]
	b	.LBB6_5
.LBB6_30:                               @   in Loop: Header=BB6_6 Depth=1
.Ltmp73:
	@DEBUG_VALUE: AT_Parser_Execute:p <- $r4
	.loc	5 392 11 is_stmt 1              @ C:/Users/shw26/AppData/Local/Arm/Packs/ARM/CMSIS-Driver/2.6.1/WiFi/ESP8266/ESP8266.c:392:11
	str	r4, [sp, #28]
.Ltmp74:
	@DEBUG_VALUE: AT_Parser_Execute:p <- [DW_OP_plus_uconst 28, DW_OP_deref] $sp
	.loc	5 0 11 is_stmt 0                @ C:/Users/shw26/AppData/Local/Arm/Packs/ARM/CMSIS-Driver/2.6.1/WiFi/ESP8266/ESP8266.c:0:11
	movs	r0, #9
	add	r1, sp, #28
	.loc	5 395 9 is_stmt 1               @ C:/Users/shw26/AppData/Local/Arm/Packs/ARM/CMSIS-Driver/2.6.1/WiFi/ESP8266/ESP8266.c:395:9
	bl	AT_Notify
.Ltmp75:
	.loc	5 398 13                        @ C:/Users/shw26/AppData/Local/Arm/Packs/ARM/CMSIS-Driver/2.6.1/WiFi/ESP8266/ESP8266.c:398:13
	ldr	r0, [sp, #28]
.Ltmp76:
	@DEBUG_VALUE: AT_Parser_Execute:p <- $r0
	.loc	5 398 13 is_stmt 0              @ C:/Users/shw26/AppData/Local/Arm/Packs/ARM/CMSIS-Driver/2.6.1/WiFi/ESP8266/ESP8266.c:398:13
	cbz	r0, .LBB6_36
.Ltmp77:
@ %bb.31:                               @   in Loop: Header=BB6_6 Depth=1
	@DEBUG_VALUE: AT_Parser_Execute:p <- $r0
	.loc	5 406 25 is_stmt 1              @ C:/Users/shw26/AppData/Local/Arm/Packs/ARM/CMSIS-Driver/2.6.1/WiFi/ESP8266/ESP8266.c:406:25
	ldr	r1, [r4, #52]
.Ltmp78:
	@DEBUG_VALUE: AT_Parser_Execute:p <- $r0
	.loc	5 410 23                        @ C:/Users/shw26/AppData/Local/Arm/Packs/ARM/CMSIS-Driver/2.6.1/WiFi/ESP8266/ESP8266.c:410:23
	str	r0, [r4, #52]
.Ltmp79:
	.loc	5 406 17                        @ C:/Users/shw26/AppData/Local/Arm/Packs/ARM/CMSIS-Driver/2.6.1/WiFi/ESP8266/ESP8266.c:406:17
	subs	r0, r0, r1
.Ltmp80:
	rsbs	r7, r0, #0
	adcs	r7, r0
.Ltmp81:
	@DEBUG_VALUE: AT_Parser_Execute:sleep <- $r7
	.loc	5 0 17 is_stmt 0                @ C:/Users/shw26/AppData/Local/Arm/Packs/ARM/CMSIS-Driver/2.6.1/WiFi/ESP8266/ESP8266.c:0:17
	b	.LBB6_5
.Ltmp82:
.LBB6_32:                               @   in Loop: Header=BB6_6 Depth=1
	movs	r0, #10
	movs	r1, #0
	.loc	5 541 9 is_stmt 1               @ C:/Users/shw26/AppData/Local/Arm/Packs/ARM/CMSIS-Driver/2.6.1/WiFi/ESP8266/ESP8266.c:541:9
	bl	AT_Notify
.Ltmp83:
	@DEBUG_VALUE: AT_Parser_Execute:sleep <- 1
	.loc	5 546 20                        @ C:/Users/shw26/AppData/Local/Arm/Packs/ARM/CMSIS-Driver/2.6.1/WiFi/ESP8266/ESP8266.c:546:20
	ldr	r0, [sp, #20]                   @ 4-byte Reload
	b	.LBB6_37
.Ltmp84:
.LBB6_33:                               @   in Loop: Header=BB6_6 Depth=1
	.loc	5 0 20 is_stmt 0                @ C:/Users/shw26/AppData/Local/Arm/Packs/ARM/CMSIS-Driver/2.6.1/WiFi/ESP8266/ESP8266.c:0:20
	movs	r0, #44
.Ltmp85:
	.loc	5 551 18 is_stmt 1              @ C:/Users/shw26/AppData/Local/Arm/Packs/ARM/CMSIS-Driver/2.6.1/WiFi/ESP8266/ESP8266.c:551:18
	ldrb	r0, [r4, r0]
.Ltmp86:
	.loc	5 551 13 is_stmt 0              @ C:/Users/shw26/AppData/Local/Arm/Packs/ARM/CMSIS-Driver/2.6.1/WiFi/ESP8266/ESP8266.c:551:13
	cmp	r0, #0
	bne	.LBB6_34
	b	.LBB6_1
.LBB6_34:                               @   in Loop: Header=BB6_6 Depth=1
	cmp	r0, #1
	beq	.LBB6_35
	b	.LBB6_11
.LBB6_35:                               @   in Loop: Header=BB6_6 Depth=1
	.loc	5 0 13                          @ C:/Users/shw26/AppData/Local/Arm/Packs/ARM/CMSIS-Driver/2.6.1/WiFi/ESP8266/ESP8266.c:0:13
	movs	r0, #5
	b	.LBB6_2
.LBB6_36:                               @   in Loop: Header=BB6_6 Depth=1
.Ltmp87:
	@DEBUG_VALUE: AT_Parser_Execute:p <- $r0
	@DEBUG_VALUE: AT_Parser_Execute:sleep <- 1
	movs	r0, #0
.Ltmp88:
.LBB6_37:                               @   in Loop: Header=BB6_6 Depth=1
	@DEBUG_VALUE: AT_Parser_Execute:sleep <- 1
	strb	r0, [r4, r6]
.Ltmp89:
	ldr	r7, [sp, #12]                   @ 4-byte Reload
	b	.LBB6_5
.Ltmp90:
.LBB6_38:                               @   in Loop: Header=BB6_6 Depth=1
	.loc	5 437 13 is_stmt 1              @ C:/Users/shw26/AppData/Local/Arm/Packs/ARM/CMSIS-Driver/2.6.1/WiFi/ESP8266/ESP8266.c:437:13
	adr	r0, .LCPI6_2
	ldr	r1, [sp, #4]                    @ 4-byte Reload
	ldr	r2, [sp, #16]                   @ 4-byte Reload
	bl	BufWrite
	.loc	5 439 13                        @ C:/Users/shw26/AppData/Local/Arm/Packs/ARM/CMSIS-Driver/2.6.1/WiFi/ESP8266/ESP8266.c:439:13
	mov	r0, r4
	bl	BufFlushByte
	movs	r0, #46
	.loc	5 441 27                        @ C:/Users/shw26/AppData/Local/Arm/Packs/ARM/CMSIS-Driver/2.6.1/WiFi/ESP8266/ESP8266.c:441:27
	ldrb	r1, [r4, r0]
	subs	r1, r1, #1
	strb	r1, [r4, r0]
.Ltmp91:
.LBB6_39:                               @   in Loop: Header=BB6_6 Depth=1
	.loc	5 0 27 is_stmt 0                @ C:/Users/shw26/AppData/Local/Arm/Packs/ARM/CMSIS-Driver/2.6.1/WiFi/ESP8266/ESP8266.c:0:27
	movs	r0, #46
	.loc	5 445 52 is_stmt 1              @ C:/Users/shw26/AppData/Local/Arm/Packs/ARM/CMSIS-Driver/2.6.1/WiFi/ESP8266/ESP8266.c:445:52
	ldrb	r0, [r4, r0]
	.loc	5 445 60 is_stmt 0              @ C:/Users/shw26/AppData/Local/Arm/Packs/ARM/CMSIS-Driver/2.6.1/WiFi/ESP8266/ESP8266.c:445:60
	adds	r2, r0, #2
	.loc	5 445 11                        @ C:/Users/shw26/AppData/Local/Arm/Packs/ARM/CMSIS-Driver/2.6.1/WiFi/ESP8266/ESP8266.c:445:11
	ldr	r0, [sp, #16]                   @ 4-byte Reload
	mov	r1, r4
	bl	BufCopy
	movs	r7, #0
	.loc	5 447 22 is_stmt 1              @ C:/Users/shw26/AppData/Local/Arm/Packs/ARM/CMSIS-Driver/2.6.1/WiFi/ESP8266/ESP8266.c:447:22
	strb	r7, [r4, r6]
.Ltmp92:
	.loc	5 449 20                        @ C:/Users/shw26/AppData/Local/Arm/Packs/ARM/CMSIS-Driver/2.6.1/WiFi/ESP8266/ESP8266.c:449:20
	ldr	r0, [sp, #8]                    @ 4-byte Reload
	ldrb	r0, [r4, r0]
.Ltmp93:
	.loc	5 449 15 is_stmt 0              @ C:/Users/shw26/AppData/Local/Arm/Packs/ARM/CMSIS-Driver/2.6.1/WiFi/ESP8266/ESP8266.c:449:15
	cmp	r0, #30
	bgt	.LBB6_43
@ %bb.40:                               @   in Loop: Header=BB6_6 Depth=1
	cmp	r0, #29
	beq	.LBB6_45
@ %bb.41:                               @   in Loop: Header=BB6_6 Depth=1
	cmp	r0, #30
	bne	.LBB6_23
@ %bb.42:                               @   in Loop: Header=BB6_6 Depth=1
	.loc	5 0 15                          @ C:/Users/shw26/AppData/Local/Arm/Packs/ARM/CMSIS-Driver/2.6.1/WiFi/ESP8266/ESP8266.c:0:15
	movs	r0, #6
	b	.LBB6_47
.LBB6_43:                               @   in Loop: Header=BB6_6 Depth=1
	.loc	5 449 15                        @ C:/Users/shw26/AppData/Local/Arm/Packs/ARM/CMSIS-Driver/2.6.1/WiFi/ESP8266/ESP8266.c:449:15
	cmp	r0, #31
	beq	.LBB6_46
@ %bb.44:                               @   in Loop: Header=BB6_6 Depth=1
	cmp	r0, #255
	beq	.LBB6_29
	b	.LBB6_23
.LBB6_45:                               @   in Loop: Header=BB6_6 Depth=1
	.loc	5 0 15                          @ C:/Users/shw26/AppData/Local/Arm/Packs/ARM/CMSIS-Driver/2.6.1/WiFi/ESP8266/ESP8266.c:0:15
	movs	r0, #4
	b	.LBB6_47
.LBB6_46:                               @   in Loop: Header=BB6_6 Depth=1
	movs	r0, #7
.LBB6_47:                               @   in Loop: Header=BB6_6 Depth=1
	movs	r7, #0
.Ltmp94:
	mov	r1, r7
	bl	AT_Notify
	b	.LBB6_5
.Ltmp95:
.LBB6_48:                               @   in Loop: Header=BB6_6 Depth=1
	ldr	r0, [sp, #20]                   @ 4-byte Reload
	b	.LBB6_28
.LBB6_49:                               @   in Loop: Header=BB6_6 Depth=1
	movs	r0, #3
	b	.LBB6_28
.LBB6_50:                               @   in Loop: Header=BB6_6 Depth=1
	movs	r0, #42
.Ltmp96:
	.loc	5 514 27 is_stmt 1              @ C:/Users/shw26/AppData/Local/Arm/Packs/ARM/CMSIS-Driver/2.6.1/WiFi/ESP8266/ESP8266.c:514:27
	strb	r1, [r4, r0]
	movs	r7, #1
	movs	r0, #15
.Ltmp97:
	@DEBUG_VALUE: AT_Parser_Execute:sleep <- 1
	.loc	5 0 27 is_stmt 0                @ C:/Users/shw26/AppData/Local/Arm/Packs/ARM/CMSIS-Driver/2.6.1/WiFi/ESP8266/ESP8266.c:0:27
	b	.LBB6_28
.Ltmp98:
.LBB6_51:                               @   in Loop: Header=BB6_6 Depth=1
	movs	r0, #43
	.loc	5 523 13 is_stmt 1              @ C:/Users/shw26/AppData/Local/Arm/Packs/ARM/CMSIS-Driver/2.6.1/WiFi/ESP8266/ESP8266.c:523:13
	ldr	r1, [sp, #16]                   @ 4-byte Reload
	bl	BufWriteByte
	movs	r0, #46
	.loc	5 524 54                        @ C:/Users/shw26/AppData/Local/Arm/Packs/ARM/CMSIS-Driver/2.6.1/WiFi/ESP8266/ESP8266.c:524:54
	ldrb	r0, [r4, r0]
	.loc	5 524 62 is_stmt 0              @ C:/Users/shw26/AppData/Local/Arm/Packs/ARM/CMSIS-Driver/2.6.1/WiFi/ESP8266/ESP8266.c:524:62
	adds	r2, r0, #2
	.loc	5 524 13                        @ C:/Users/shw26/AppData/Local/Arm/Packs/ARM/CMSIS-Driver/2.6.1/WiFi/ESP8266/ESP8266.c:524:13
	ldr	r0, [sp, #16]                   @ 4-byte Reload
	mov	r1, r4
	bl	BufCopy
	movs	r0, #14
	b	.LBB6_28
.Ltmp99:
.LBB6_52:
	@DEBUG_VALUE: AT_Parser_Execute:sleep <- $r7
	.loc	5 571 1 is_stmt 1               @ C:/Users/shw26/AppData/Local/Arm/Packs/ARM/CMSIS-Driver/2.6.1/WiFi/ESP8266/ESP8266.c:571:1
	add	sp, #36
	pop	{r4, r5, r6, r7, pc}
.Ltmp100:
	.p2align	2
@ %bb.53:
	.loc	5 0 1 is_stmt 0                 @ C:/Users/shw26/AppData/Local/Arm/Packs/ARM/CMSIS-Driver/2.6.1/WiFi/ESP8266/ESP8266.c:0:1
__arm_cp.6_0:
	.long	2573                            @ 0xa0d
.Lcpi_end4:
	.size	__arm_cp.6_0, .Lcpi_end4-__arm_cp.6_0
__arm_cp.6_1:
	.long	AT_Cb
.Lcpi_end5:
	.size	__arm_cp.6_1, .Lcpi_end5-__arm_cp.6_1
.LCPI6_2:
.L.str:
	.asciz	"+PING:\000"
.Lfunc_end6:
	.size	AT_Parser_Execute, .Lfunc_end6-AT_Parser_Execute
	.cfi_endproc
	.cantunwind
	.fnend
                                        @ -- End function
	.section	.text.ReceiveData,"ax",%progbits
	.p2align	2                               @ -- Begin function ReceiveData
	.type	ReceiveData,%function
	.code	16                              @ @ReceiveData
	.thumb_func
ReceiveData:
.Lfunc_begin7:
	.loc	5 577 0 is_stmt 1               @ C:/Users/shw26/AppData/Local/Arm/Packs/ARM/CMSIS-Driver/2.6.1/WiFi/ESP8266/ESP8266.c:577:0
	.fnstart
	.cfi_startproc
@ %bb.0:
	.save	{r4, r5, r6, r7, lr}
	push	{r4, r5, r6, r7, lr}
	.cfi_def_cfa_offset 20
	.cfi_offset lr, -4
	.cfi_offset r7, -8
	.cfi_offset r6, -12
	.cfi_offset r5, -16
	.cfi_offset r4, -20
	.pad	#12
	sub	sp, #12
	.cfi_def_cfa_offset 32
.Ltmp101:
	.loc	5 585 7 prologue_end            @ C:/Users/shw26/AppData/Local/Arm/Packs/ARM/CMSIS-Driver/2.6.1/WiFi/ESP8266/ESP8266.c:585:7
	ldr	r0, __arm_cp.7_0
	ldr	r0, [r0]
.Ltmp102:
	.loc	5 585 7 is_stmt 0               @ C:/Users/shw26/AppData/Local/Arm/Packs/ARM/CMSIS-Driver/2.6.1/WiFi/ESP8266/ESP8266.c:585:7
	cbnz	r0, .LBB7_2
@ %bb.1:
.Ltmp103:
	.loc	5 586 14 is_stmt 1              @ C:/Users/shw26/AppData/Local/Arm/Packs/ARM/CMSIS-Driver/2.6.1/WiFi/ESP8266/ESP8266.c:586:14
	ldr	r0, __arm_cp.7_1
	bl	BufGetSize
	.loc	5 586 12 is_stmt 0              @ C:/Users/shw26/AppData/Local/Arm/Packs/ARM/CMSIS-Driver/2.6.1/WiFi/ESP8266/ESP8266.c:586:12
	ldr	r1, __arm_cp.7_0
	str	r0, [r1]
.Ltmp104:
.LBB7_2:
	@DEBUG_VALUE: ReceiveData:err <- 0
	@DEBUG_VALUE: ReceiveData:num <- 0
	.loc	5 0 12                          @ C:/Users/shw26/AppData/Local/Arm/Packs/ARM/CMSIS-Driver/2.6.1/WiFi/ESP8266/ESP8266.c:0:12
	movs	r5, #0
	.loc	5 591 7 is_stmt 1               @ C:/Users/shw26/AppData/Local/Arm/Packs/ARM/CMSIS-Driver/2.6.1/WiFi/ESP8266/ESP8266.c:591:7
	bl	Serial_GetRxCount
	mov	r4, r0
.Ltmp105:
	@DEBUG_VALUE: ReceiveData:n <- $r4
	.loc	5 0 7 is_stmt 0                 @ C:/Users/shw26/AppData/Local/Arm/Packs/ARM/CMSIS-Driver/2.6.1/WiFi/ESP8266/ESP8266.c:0:7
	movs	r0, #1
	str	r0, [sp, #8]                    @ 4-byte Spill
	movs	r0, #2
	str	r0, [sp, #4]                    @ 4-byte Spill
	mov	r7, r5
	b	.LBB7_5
.Ltmp106:
.LBB7_3:                                @   in Loop: Header=BB7_5 Depth=1
	@DEBUG_VALUE: ReceiveData:num <- $r7
	@DEBUG_VALUE: ReceiveData:buf <- $r6
	@DEBUG_VALUE: ReceiveData:n <- $r4
	@DEBUG_VALUE: ReceiveData:cnt <- $r0
	@DEBUG_VALUE: ReceiveData:err <- 0
	mov	r1, r5
	ldr	r0, [sp, #8]                    @ 4-byte Reload
.Ltmp107:
.LBB7_4:                                @   in Loop: Header=BB7_5 Depth=1
	@DEBUG_VALUE: ReceiveData:num <- $r7
	@DEBUG_VALUE: ReceiveData:buf <- $r6
	@DEBUG_VALUE: ReceiveData:n <- $r4
	@DEBUG_VALUE: ReceiveData:err <- 0
	@DEBUG_VALUE: ReceiveData:err <- $r0
	@DEBUG_VALUE: ReceiveData:num <- $r7
	.loc	5 632 9 is_stmt 1               @ C:/Users/shw26/AppData/Local/Arm/Packs/ARM/CMSIS-Driver/2.6.1/WiFi/ESP8266/ESP8266.c:632:9
	cbz	r1, .LBB7_14
.Ltmp108:
.LBB7_5:                                @ =>This Inner Loop Header: Depth=1
	@DEBUG_VALUE: ReceiveData:n <- $r4
	@DEBUG_VALUE: ReceiveData:err <- 0
	@DEBUG_VALUE: ReceiveData:num <- $r7
	.loc	5 598 3                         @ C:/Users/shw26/AppData/Local/Arm/Packs/ARM/CMSIS-Driver/2.6.1/WiFi/ESP8266/ESP8266.c:598:3
	cmp	r7, r4
	bhs	.LBB7_15
.Ltmp109:
@ %bb.6:                                @   in Loop: Header=BB7_5 Depth=1
	@DEBUG_VALUE: ReceiveData:num <- $r7
	@DEBUG_VALUE: ReceiveData:n <- $r4
	@DEBUG_VALUE: ReceiveData:err <- 0
	.loc	5 600 11                        @ C:/Users/shw26/AppData/Local/Arm/Packs/ARM/CMSIS-Driver/2.6.1/WiFi/ESP8266/ESP8266.c:600:11
	ldr	r0, __arm_cp.7_1
	bl	BufGetTail
	mov	r6, r0
.Ltmp110:
	@DEBUG_VALUE: ReceiveData:buf <- $r6
	.loc	5 602 9                         @ C:/Users/shw26/AppData/Local/Arm/Packs/ARM/CMSIS-Driver/2.6.1/WiFi/ESP8266/ESP8266.c:602:9
	cmp	r0, #0
.Ltmp111:
	.loc	5 0 0 is_stmt 0                 @ C:/Users/shw26/AppData/Local/Arm/Packs/ARM/CMSIS-Driver/2.6.1/WiFi/ESP8266/ESP8266.c:0:0
	mov	r0, r5
.Ltmp112:
	.loc	5 602 9                         @ C:/Users/shw26/AppData/Local/Arm/Packs/ARM/CMSIS-Driver/2.6.1/WiFi/ESP8266/ESP8266.c:602:9
	beq	.LBB7_8
.Ltmp113:
@ %bb.7:                                @   in Loop: Header=BB7_5 Depth=1
	@DEBUG_VALUE: ReceiveData:num <- $r7
	@DEBUG_VALUE: ReceiveData:buf <- $r6
	@DEBUG_VALUE: ReceiveData:n <- $r4
	@DEBUG_VALUE: ReceiveData:err <- 0
	.loc	5 603 27 is_stmt 1              @ C:/Users/shw26/AppData/Local/Arm/Packs/ARM/CMSIS-Driver/2.6.1/WiFi/ESP8266/ESP8266.c:603:27
	ldrh	r0, [r6]
	.loc	5 603 13 is_stmt 0              @ C:/Users/shw26/AppData/Local/Arm/Packs/ARM/CMSIS-Driver/2.6.1/WiFi/ESP8266/ESP8266.c:603:13
	ldr	r1, __arm_cp.7_0
	ldr	r1, [r1]
	.loc	5 603 20                        @ C:/Users/shw26/AppData/Local/Arm/Packs/ARM/CMSIS-Driver/2.6.1/WiFi/ESP8266/ESP8266.c:603:20
	subs	r0, r1, r0
.Ltmp114:
	@DEBUG_VALUE: ReceiveData:cnt <- $r0
.LBB7_8:                                @   in Loop: Header=BB7_5 Depth=1
	@DEBUG_VALUE: ReceiveData:num <- $r7
	@DEBUG_VALUE: ReceiveData:buf <- $r6
	@DEBUG_VALUE: ReceiveData:n <- $r4
	@DEBUG_VALUE: ReceiveData:err <- 0
	@DEBUG_VALUE: ReceiveData:cnt <- $r0
	.loc	5 608 9 is_stmt 1               @ C:/Users/shw26/AppData/Local/Arm/Packs/ARM/CMSIS-Driver/2.6.1/WiFi/ESP8266/ESP8266.c:608:9
	cmp	r0, #0
	beq	.LBB7_3
.Ltmp115:
@ %bb.9:                                @   in Loop: Header=BB7_5 Depth=1
	@DEBUG_VALUE: ReceiveData:num <- $r7
	@DEBUG_VALUE: ReceiveData:buf <- $r6
	@DEBUG_VALUE: ReceiveData:n <- $r4
	@DEBUG_VALUE: ReceiveData:cnt <- $r0
	@DEBUG_VALUE: ReceiveData:err <- 0
	.loc	5 611 11                        @ C:/Users/shw26/AppData/Local/Arm/Packs/ARM/CMSIS-Driver/2.6.1/WiFi/ESP8266/ESP8266.c:611:11
	cmp	r4, r0
	mov	r1, r4
	blo	.LBB7_11
.Ltmp116:
@ %bb.10:                               @   in Loop: Header=BB7_5 Depth=1
	@DEBUG_VALUE: ReceiveData:num <- $r7
	@DEBUG_VALUE: ReceiveData:buf <- $r6
	@DEBUG_VALUE: ReceiveData:n <- $r4
	@DEBUG_VALUE: ReceiveData:cnt <- $r0
	@DEBUG_VALUE: ReceiveData:err <- 0
	mov	r1, r0
.Ltmp117:
.LBB7_11:                               @   in Loop: Header=BB7_5 Depth=1
	@DEBUG_VALUE: ReceiveData:num <- $r7
	@DEBUG_VALUE: ReceiveData:buf <- $r6
	@DEBUG_VALUE: ReceiveData:n <- $r4
	@DEBUG_VALUE: ReceiveData:cnt <- $r0
	@DEBUG_VALUE: ReceiveData:err <- 0
	@DEBUG_VALUE: ReceiveData:cnt <- $r1
	.loc	5 617 55                        @ C:/Users/shw26/AppData/Local/Arm/Packs/ARM/CMSIS-Driver/2.6.1/WiFi/ESP8266/ESP8266.c:617:55
	ldrh	r0, [r6]
	.loc	5 617 40 is_stmt 0              @ C:/Users/shw26/AppData/Local/Arm/Packs/ARM/CMSIS-Driver/2.6.1/WiFi/ESP8266/ESP8266.c:617:40
	adds	r0, r6, r0
	adds	r0, r0, #4
	.loc	5 617 23                        @ C:/Users/shw26/AppData/Local/Arm/Packs/ARM/CMSIS-Driver/2.6.1/WiFi/ESP8266/ESP8266.c:617:23
	bl	Serial_ReadBuf
.Ltmp118:
	@DEBUG_VALUE: ReceiveData:cnt <- $r0
	.loc	5 619 11 is_stmt 1              @ C:/Users/shw26/AppData/Local/Arm/Packs/ARM/CMSIS-Driver/2.6.1/WiFi/ESP8266/ESP8266.c:619:11
	cbz	r0, .LBB7_13
.Ltmp119:
@ %bb.12:                               @   in Loop: Header=BB7_5 Depth=1
	@DEBUG_VALUE: ReceiveData:num <- $r7
	@DEBUG_VALUE: ReceiveData:buf <- $r6
	@DEBUG_VALUE: ReceiveData:n <- $r4
	@DEBUG_VALUE: ReceiveData:cnt <- $r0
	@DEBUG_VALUE: ReceiveData:err <- 0
	.loc	5 620 21                        @ C:/Users/shw26/AppData/Local/Arm/Packs/ARM/CMSIS-Driver/2.6.1/WiFi/ESP8266/ESP8266.c:620:21
	ldrh	r1, [r6]
	adds	r1, r1, r0
	strh	r1, [r6]
	.loc	5 621 21                        @ C:/Users/shw26/AppData/Local/Arm/Packs/ARM/CMSIS-Driver/2.6.1/WiFi/ESP8266/ESP8266.c:621:21
	adds	r7, r0, r7
.Ltmp120:
	@DEBUG_VALUE: ReceiveData:num <- $r7
	.loc	5 0 21 is_stmt 0                @ C:/Users/shw26/AppData/Local/Arm/Packs/ARM/CMSIS-Driver/2.6.1/WiFi/ESP8266/ESP8266.c:0:21
	movs	r0, #0
.Ltmp121:
	movs	r1, #1
	b	.LBB7_4
.Ltmp122:
.LBB7_13:                               @   in Loop: Header=BB7_5 Depth=1
	@DEBUG_VALUE: ReceiveData:num <- $r7
	@DEBUG_VALUE: ReceiveData:buf <- $r6
	@DEBUG_VALUE: ReceiveData:n <- $r4
	@DEBUG_VALUE: ReceiveData:cnt <- $r0
	@DEBUG_VALUE: ReceiveData:err <- 0
	mov	r1, r5
	ldr	r0, [sp, #4]                    @ 4-byte Reload
.Ltmp123:
	b	.LBB7_4
.Ltmp124:
.LBB7_14:
	@DEBUG_VALUE: ReceiveData:num <- $r7
	@DEBUG_VALUE: ReceiveData:buf <- $r6
	@DEBUG_VALUE: ReceiveData:n <- $r4
	@DEBUG_VALUE: ReceiveData:err <- $r0
	@DEBUG_VALUE: ReceiveData:err <- $r0
	.loc	5 637 3 is_stmt 1               @ C:/Users/shw26/AppData/Local/Arm/Packs/ARM/CMSIS-Driver/2.6.1/WiFi/ESP8266/ESP8266.c:637:3
	add	sp, #12
	pop	{r4, r5, r6, r7, pc}
.Ltmp125:
.LBB7_15:
	@DEBUG_VALUE: ReceiveData:num <- $r7
	@DEBUG_VALUE: ReceiveData:n <- $r4
	@DEBUG_VALUE: ReceiveData:err <- 0
	.loc	5 589 7                         @ C:/Users/shw26/AppData/Local/Arm/Packs/ARM/CMSIS-Driver/2.6.1/WiFi/ESP8266/ESP8266.c:589:7
	mov	r0, r5
.Ltmp126:
	@DEBUG_VALUE: ReceiveData:err <- $r0
	.loc	5 637 3                         @ C:/Users/shw26/AppData/Local/Arm/Packs/ARM/CMSIS-Driver/2.6.1/WiFi/ESP8266/ESP8266.c:637:3
	add	sp, #12
	pop	{r4, r5, r6, r7, pc}
.Ltmp127:
	.p2align	2
@ %bb.16:
	.loc	5 0 3 is_stmt 0                 @ C:/Users/shw26/AppData/Local/Arm/Packs/ARM/CMSIS-Driver/2.6.1/WiFi/ESP8266/ESP8266.c:0:3
__arm_cp.7_0:
	.long	ReceiveData.sz_buf
.Lcpi_end6:
	.size	__arm_cp.7_0, .Lcpi_end6-__arm_cp.7_0
__arm_cp.7_1:
	.long	AT_Cb
.Lcpi_end7:
	.size	__arm_cp.7_1, .Lcpi_end7-__arm_cp.7_1
.Lfunc_end7:
	.size	ReceiveData, .Lfunc_end7-ReceiveData
	.cfi_endproc
	.cantunwind
	.fnend
                                        @ -- End function
	.section	.text.AnalyzeLineData,"ax",%progbits
	.p2align	2                               @ -- Begin function AnalyzeLineData
	.type	AnalyzeLineData,%function
	.code	16                              @ @AnalyzeLineData
	.thumb_func
AnalyzeLineData:
.Lfunc_begin8:
	.loc	5 753 0 is_stmt 1               @ C:/Users/shw26/AppData/Local/Arm/Packs/ARM/CMSIS-Driver/2.6.1/WiFi/ESP8266/ESP8266.c:753:0
	.fnstart
	.cfi_startproc
@ %bb.0:
	.save	{r4, r5, r7, lr}
	push	{r4, r5, r7, lr}
	.cfi_def_cfa_offset 16
	.cfi_offset lr, -4
	.cfi_offset r7, -8
	.cfi_offset r5, -12
	.cfi_offset r4, -16
	.pad	#8
	sub	sp, #8
	.cfi_def_cfa_offset 24
	add	r0, sp, #4
	ldr	r1, __arm_cp.8_0
.Ltmp128:
	@DEBUG_VALUE: AnalyzeLineData:crlf <- 2573
	.loc	5 754 12 prologue_end           @ C:/Users/shw26/AppData/Local/Arm/Packs/ARM/CMSIS-Driver/2.6.1/WiFi/ESP8266/ESP8266.c:754:12
	strh	r1, [r0]
	.loc	5 760 11                        @ C:/Users/shw26/AppData/Local/Arm/Packs/ARM/CMSIS-Driver/2.6.1/WiFi/ESP8266/ESP8266.c:760:11
	bl	AnalyzeLine
.Ltmp129:
	@DEBUG_VALUE: AnalyzeLineData:flags <- $r0
	.loc	5 0 11 is_stmt 0                @ C:/Users/shw26/AppData/Local/Arm/Packs/ARM/CMSIS-Driver/2.6.1/WiFi/ESP8266/ESP8266.c:0:11
	movs	r4, #1
.Ltmp130:
	.loc	5 762 32 is_stmt 1              @ C:/Users/shw26/AppData/Local/Arm/Packs/ARM/CMSIS-Driver/2.6.1/WiFi/ESP8266/ESP8266.c:762:32
	lsls	r1, r0, #30
	beq	.LBB8_2
.Ltmp131:
.LBB8_1:
	@DEBUG_VALUE: AnalyzeLineData:rval <- $r4
	.loc	5 876 3                         @ C:/Users/shw26/AppData/Local/Arm/Packs/ARM/CMSIS-Driver/2.6.1/WiFi/ESP8266/ESP8266.c:876:3
	mov	r0, r4
	add	sp, #8
	pop	{r4, r5, r7, pc}
.Ltmp132:
.LBB8_2:
	@DEBUG_VALUE: AnalyzeLineData:flags <- $r0
	@DEBUG_VALUE: AnalyzeLineData:crlf <- 2573
	.loc	5 766 12                        @ C:/Users/shw26/AppData/Local/Arm/Packs/ARM/CMSIS-Driver/2.6.1/WiFi/ESP8266/ESP8266.c:766:12
	lsls	r1, r0, #29
	bmi	.LBB8_7
.Ltmp133:
@ %bb.3:
	@DEBUG_VALUE: AnalyzeLineData:flags <- $r0
	@DEBUG_VALUE: AnalyzeLineData:crlf <- 2573
	.loc	5 818 12                        @ C:/Users/shw26/AppData/Local/Arm/Packs/ARM/CMSIS-Driver/2.6.1/WiFi/ESP8266/ESP8266.c:818:12
	lsls	r1, r0, #27
	bmi	.LBB8_10
.Ltmp134:
@ %bb.4:
	@DEBUG_VALUE: AnalyzeLineData:flags <- $r0
	@DEBUG_VALUE: AnalyzeLineData:crlf <- 2573
	.loc	5 852 12                        @ C:/Users/shw26/AppData/Local/Arm/Packs/ARM/CMSIS-Driver/2.6.1/WiFi/ESP8266/ESP8266.c:852:12
	lsls	r1, r0, #24
	bmi	.LBB8_15
.Ltmp135:
@ %bb.5:
	@DEBUG_VALUE: AnalyzeLineData:flags <- $r0
	@DEBUG_VALUE: AnalyzeLineData:crlf <- 2573
	.loc	5 867 12                        @ C:/Users/shw26/AppData/Local/Arm/Packs/ARM/CMSIS-Driver/2.6.1/WiFi/ESP8266/ESP8266.c:867:12
	lsls	r0, r0, #25
.Ltmp136:
	bpl	.LBB8_23
.Ltmp137:
@ %bb.6:
	@DEBUG_VALUE: AnalyzeLineData:crlf <- 2573
	.loc	5 0 12 is_stmt 0                @ C:/Users/shw26/AppData/Local/Arm/Packs/ARM/CMSIS-Driver/2.6.1/WiFi/ESP8266/ESP8266.c:0:12
	movs	r4, #7
	b	.LBB8_1
.Ltmp138:
.LBB8_7:
	@DEBUG_VALUE: AnalyzeLineData:flags <- $r0
	@DEBUG_VALUE: AnalyzeLineData:crlf <- 2573
	.loc	5 768 9 is_stmt 1               @ C:/Users/shw26/AppData/Local/Arm/Packs/ARM/CMSIS-Driver/2.6.1/WiFi/ESP8266/ESP8266.c:768:9
	lsls	r1, r0, #28
	bmi	.LBB8_12
.Ltmp139:
@ %bb.8:
	@DEBUG_VALUE: AnalyzeLineData:flags <- $r0
	@DEBUG_VALUE: AnalyzeLineData:crlf <- 2573
	.loc	5 795 14                        @ C:/Users/shw26/AppData/Local/Arm/Packs/ARM/CMSIS-Driver/2.6.1/WiFi/ESP8266/ESP8266.c:795:14
	lsls	r0, r0, #23
.Ltmp140:
	bmi	.LBB8_17
.Ltmp141:
@ %bb.9:
	@DEBUG_VALUE: AnalyzeLineData:crlf <- 2573
	.loc	5 0 14 is_stmt 0                @ C:/Users/shw26/AppData/Local/Arm/Packs/ARM/CMSIS-Driver/2.6.1/WiFi/ESP8266/ESP8266.c:0:14
	movs	r4, #2
	b	.LBB8_1
.Ltmp142:
.LBB8_10:
	@DEBUG_VALUE: AnalyzeLineData:flags <- $r0
	@DEBUG_VALUE: AnalyzeLineData:crlf <- 2573
	.loc	5 820 9 is_stmt 1               @ C:/Users/shw26/AppData/Local/Arm/Packs/ARM/CMSIS-Driver/2.6.1/WiFi/ESP8266/ESP8266.c:820:9
	lsls	r0, r0, #26
.Ltmp143:
	bmi	.LBB8_19
.Ltmp144:
@ %bb.11:
	@DEBUG_VALUE: AnalyzeLineData:crlf <- 2573
	.loc	5 0 9 is_stmt 0                 @ C:/Users/shw26/AppData/Local/Arm/Packs/ARM/CMSIS-Driver/2.6.1/WiFi/ESP8266/ESP8266.c:0:9
	movs	r4, #2
	b	.LBB8_1
.Ltmp145:
.LBB8_12:
	@DEBUG_VALUE: AnalyzeLineData:flags <- $r0
	@DEBUG_VALUE: AnalyzeLineData:crlf <- 2573
	.loc	5 770 24 is_stmt 1              @ C:/Users/shw26/AppData/Local/Arm/Packs/ARM/CMSIS-Driver/2.6.1/WiFi/ESP8266/ESP8266.c:770:24
	bl	GetCommandCode
.Ltmp146:
	.loc	5 0 24 is_stmt 0                @ C:/Users/shw26/AppData/Local/Arm/Packs/ARM/CMSIS-Driver/2.6.1/WiFi/ESP8266/ESP8266.c:0:24
	movs	r1, #45
	.loc	5 770 22                        @ C:/Users/shw26/AppData/Local/Arm/Packs/ARM/CMSIS-Driver/2.6.1/WiFi/ESP8266/ESP8266.c:770:22
	ldr	r5, __arm_cp.8_1
	strb	r0, [r5, r1]
	.loc	5 772 11 is_stmt 1              @ C:/Users/shw26/AppData/Local/Arm/Packs/ARM/CMSIS-Driver/2.6.1/WiFi/ESP8266/ESP8266.c:772:11
	cbz	r0, .LBB8_22
.Ltmp147:
@ %bb.13:
	@DEBUG_VALUE: AnalyzeLineData:crlf <- 2573
	@DEBUG_VALUE: AnalyzeLineData:crlf <- [DW_OP_plus_uconst 4, DW_OP_deref] $sp
	.loc	5 0 11 is_stmt 0                @ C:/Users/shw26/AppData/Local/Arm/Packs/ARM/CMSIS-Driver/2.6.1/WiFi/ESP8266/ESP8266.c:0:11
	add	r0, sp, #4
	movs	r1, #2
.Ltmp148:
	.loc	5 781 13 is_stmt 1              @ C:/Users/shw26/AppData/Local/Arm/Packs/ARM/CMSIS-Driver/2.6.1/WiFi/ESP8266/ESP8266.c:781:13
	ldr	r5, __arm_cp.8_1
	mov	r2, r5
	bl	BufFind
.Ltmp149:
	@DEBUG_VALUE: AnalyzeLineData:n <- $r0
	.loc	5 783 13                        @ C:/Users/shw26/AppData/Local/Arm/Packs/ARM/CMSIS-Driver/2.6.1/WiFi/ESP8266/ESP8266.c:783:13
	adds	r1, r0, #1
	beq	.LBB8_1
.Ltmp150:
@ %bb.14:
	@DEBUG_VALUE: AnalyzeLineData:n <- $r0
	@DEBUG_VALUE: AnalyzeLineData:crlf <- [DW_OP_plus_uconst 4, DW_OP_deref] $sp
	.loc	5 0 13 is_stmt 0                @ C:/Users/shw26/AppData/Local/Arm/Packs/ARM/CMSIS-Driver/2.6.1/WiFi/ESP8266/ESP8266.c:0:13
	movs	r1, #46
.Ltmp151:
	.loc	5 789 25 is_stmt 1              @ C:/Users/shw26/AppData/Local/Arm/Packs/ARM/CMSIS-Driver/2.6.1/WiFi/ESP8266/ESP8266.c:789:25
	strb	r0, [r5, r1]
	movs	r4, #3
.Ltmp152:
	@DEBUG_VALUE: AnalyzeLineData:rval <- 3
	.loc	5 0 25 is_stmt 0                @ C:/Users/shw26/AppData/Local/Arm/Packs/ARM/CMSIS-Driver/2.6.1/WiFi/ESP8266/ESP8266.c:0:25
	b	.LBB8_1
.Ltmp153:
.LBB8_15:
	@DEBUG_VALUE: AnalyzeLineData:flags <- $r0
	@DEBUG_VALUE: AnalyzeLineData:crlf <- 2573
	.loc	5 854 9 is_stmt 1               @ C:/Users/shw26/AppData/Local/Arm/Packs/ARM/CMSIS-Driver/2.6.1/WiFi/ESP8266/ESP8266.c:854:9
	lsls	r0, r0, #26
.Ltmp154:
	bmi	.LBB8_24
.Ltmp155:
@ %bb.16:
	@DEBUG_VALUE: AnalyzeLineData:crlf <- 2573
	.loc	5 0 9 is_stmt 0                 @ C:/Users/shw26/AppData/Local/Arm/Packs/ARM/CMSIS-Driver/2.6.1/WiFi/ESP8266/ESP8266.c:0:9
	movs	r4, #2
	b	.LBB8_1
.Ltmp156:
.LBB8_17:
	@DEBUG_VALUE: AnalyzeLineData:crlf <- 2573
	movs	r0, #45
.Ltmp157:
	.loc	5 797 22 is_stmt 1              @ C:/Users/shw26/AppData/Local/Arm/Packs/ARM/CMSIS-Driver/2.6.1/WiFi/ESP8266/ESP8266.c:797:22
	ldr	r5, __arm_cp.8_1
	movs	r1, #22
	strb	r1, [r5, r0]
.Ltmp158:
	@DEBUG_VALUE: AnalyzeLineData:crlf <- [DW_OP_plus_uconst 4, DW_OP_deref] $sp
	.loc	5 0 22 is_stmt 0                @ C:/Users/shw26/AppData/Local/Arm/Packs/ARM/CMSIS-Driver/2.6.1/WiFi/ESP8266/ESP8266.c:0:22
	add	r0, sp, #4
	movs	r1, #2
	.loc	5 800 11 is_stmt 1              @ C:/Users/shw26/AppData/Local/Arm/Packs/ARM/CMSIS-Driver/2.6.1/WiFi/ESP8266/ESP8266.c:800:11
	mov	r2, r5
	bl	BufFind
.Ltmp159:
	@DEBUG_VALUE: AnalyzeLineData:n <- $r0
	.loc	5 802 11                        @ C:/Users/shw26/AppData/Local/Arm/Packs/ARM/CMSIS-Driver/2.6.1/WiFi/ESP8266/ESP8266.c:802:11
	adds	r1, r0, #1
	beq	.LBB8_1
.Ltmp160:
@ %bb.18:
	@DEBUG_VALUE: AnalyzeLineData:n <- $r0
	@DEBUG_VALUE: AnalyzeLineData:crlf <- [DW_OP_plus_uconst 4, DW_OP_deref] $sp
	.loc	5 0 11 is_stmt 0                @ C:/Users/shw26/AppData/Local/Arm/Packs/ARM/CMSIS-Driver/2.6.1/WiFi/ESP8266/ESP8266.c:0:11
	movs	r1, #46
.Ltmp161:
	.loc	5 808 23 is_stmt 1              @ C:/Users/shw26/AppData/Local/Arm/Packs/ARM/CMSIS-Driver/2.6.1/WiFi/ESP8266/ESP8266.c:808:23
	strb	r0, [r5, r1]
	movs	r4, #3
.Ltmp162:
	@DEBUG_VALUE: AnalyzeLineData:rval <- 3
	.loc	5 0 23 is_stmt 0                @ C:/Users/shw26/AppData/Local/Arm/Packs/ARM/CMSIS-Driver/2.6.1/WiFi/ESP8266/ESP8266.c:0:23
	b	.LBB8_1
.Ltmp163:
.LBB8_19:
	@DEBUG_VALUE: AnalyzeLineData:crlf <- 2573
	.loc	5 822 14 is_stmt 1              @ C:/Users/shw26/AppData/Local/Arm/Packs/ARM/CMSIS-Driver/2.6.1/WiFi/ESP8266/ESP8266.c:822:14
	bl	GetGMRResponseCode
.Ltmp164:
	@DEBUG_VALUE: AnalyzeLineData:code <- $r0
	.loc	5 824 11                        @ C:/Users/shw26/AppData/Local/Arm/Packs/ARM/CMSIS-Driver/2.6.1/WiFi/ESP8266/ESP8266.c:824:11
	cmp	r0, #255
	beq	.LBB8_25
.Ltmp165:
@ %bb.20:
	@DEBUG_VALUE: AnalyzeLineData:code <- $r0
	@DEBUG_VALUE: AnalyzeLineData:crlf <- 2573
	.loc	5 0 11 is_stmt 0                @ C:/Users/shw26/AppData/Local/Arm/Packs/ARM/CMSIS-Driver/2.6.1/WiFi/ESP8266/ESP8266.c:0:11
	movs	r4, #4
.Ltmp166:
.LBB8_21:
	@DEBUG_VALUE: AnalyzeLineData:code <- $r0
	@DEBUG_VALUE: AnalyzeLineData:crlf <- 2573
	@DEBUG_VALUE: AnalyzeLineData:rval <- $r4
	@DEBUG_VALUE: AnalyzeLineData:code <- $r0
	movs	r1, #43
	.loc	5 845 21 is_stmt 1              @ C:/Users/shw26/AppData/Local/Arm/Packs/ARM/CMSIS-Driver/2.6.1/WiFi/ESP8266/ESP8266.c:845:21
	ldr	r2, __arm_cp.8_1
	strb	r0, [r2, r1]
	.loc	5 846 5                         @ C:/Users/shw26/AppData/Local/Arm/Packs/ARM/CMSIS-Driver/2.6.1/WiFi/ESP8266/ESP8266.c:846:5
	b	.LBB8_1
.Ltmp167:
.LBB8_22:
	@DEBUG_VALUE: AnalyzeLineData:crlf <- 2573
	.loc	5 0 5 is_stmt 0                 @ C:/Users/shw26/AppData/Local/Arm/Packs/ARM/CMSIS-Driver/2.6.1/WiFi/ESP8266/ESP8266.c:0:5
	movs	r0, #58
.Ltmp168:
	.loc	5 775 34 is_stmt 1              @ C:/Users/shw26/AppData/Local/Arm/Packs/ARM/CMSIS-Driver/2.6.1/WiFi/ESP8266/ESP8266.c:775:34
	mov	r1, r5
	bl	BufFindByte
	movs	r1, #46
	.loc	5 775 23 is_stmt 0              @ C:/Users/shw26/AppData/Local/Arm/Packs/ARM/CMSIS-Driver/2.6.1/WiFi/ESP8266/ESP8266.c:775:23
	strb	r0, [r5, r1]
	movs	r4, #3
.Ltmp169:
	@DEBUG_VALUE: AnalyzeLineData:rval <- 3
	.loc	5 778 7 is_stmt 1               @ C:/Users/shw26/AppData/Local/Arm/Packs/ARM/CMSIS-Driver/2.6.1/WiFi/ESP8266/ESP8266.c:778:7
	b	.LBB8_1
.Ltmp170:
.LBB8_23:
	@DEBUG_VALUE: AnalyzeLineData:crlf <- 2573
	.loc	5 0 7 is_stmt 0                 @ C:/Users/shw26/AppData/Local/Arm/Packs/ARM/CMSIS-Driver/2.6.1/WiFi/ESP8266/ESP8266.c:0:7
	movs	r4, #2
	b	.LBB8_1
.Ltmp171:
.LBB8_24:
	@DEBUG_VALUE: AnalyzeLineData:crlf <- 2573
	.loc	5 856 14 is_stmt 1              @ C:/Users/shw26/AppData/Local/Arm/Packs/ARM/CMSIS-Driver/2.6.1/WiFi/ESP8266/ESP8266.c:856:14
	bl	GetCtrlResponseCode
	movs	r1, #44
.Ltmp172:
	@DEBUG_VALUE: AnalyzeLineData:code <- undef
	.loc	5 858 22                        @ C:/Users/shw26/AppData/Local/Arm/Packs/ARM/CMSIS-Driver/2.6.1/WiFi/ESP8266/ESP8266.c:858:22
	ldr	r2, __arm_cp.8_1
	strb	r0, [r2, r1]
	movs	r4, #8
.Ltmp173:
	@DEBUG_VALUE: AnalyzeLineData:rval <- 8
	.loc	5 861 5                         @ C:/Users/shw26/AppData/Local/Arm/Packs/ARM/CMSIS-Driver/2.6.1/WiFi/ESP8266/ESP8266.c:861:5
	b	.LBB8_1
.Ltmp174:
.LBB8_25:
	@DEBUG_VALUE: AnalyzeLineData:code <- $r0
	@DEBUG_VALUE: AnalyzeLineData:crlf <- 2573
	.loc	5 828 16                        @ C:/Users/shw26/AppData/Local/Arm/Packs/ARM/CMSIS-Driver/2.6.1/WiFi/ESP8266/ESP8266.c:828:16
	bl	GetASCIIResponseCode
.Ltmp175:
	@DEBUG_VALUE: AnalyzeLineData:code <- $r0
	.loc	5 830 13                        @ C:/Users/shw26/AppData/Local/Arm/Packs/ARM/CMSIS-Driver/2.6.1/WiFi/ESP8266/ESP8266.c:830:13
	cmp	r0, #11
	beq	.LBB8_28
.Ltmp176:
@ %bb.26:
	@DEBUG_VALUE: AnalyzeLineData:code <- $r0
	@DEBUG_VALUE: AnalyzeLineData:crlf <- 2573
	cmp	r0, #255
	bne	.LBB8_29
.Ltmp177:
@ %bb.27:
	@DEBUG_VALUE: AnalyzeLineData:code <- $r0
	@DEBUG_VALUE: AnalyzeLineData:crlf <- 2573
	.loc	5 0 13 is_stmt 0                @ C:/Users/shw26/AppData/Local/Arm/Packs/ARM/CMSIS-Driver/2.6.1/WiFi/ESP8266/ESP8266.c:0:13
	movs	r4, #2
.Ltmp178:
	@DEBUG_VALUE: AnalyzeLineData:rval <- 2
	b	.LBB8_21
.Ltmp179:
.LBB8_28:
	@DEBUG_VALUE: AnalyzeLineData:code <- $r0
	@DEBUG_VALUE: AnalyzeLineData:crlf <- 2573
	movs	r4, #9
	b	.LBB8_21
.Ltmp180:
.LBB8_29:
	@DEBUG_VALUE: AnalyzeLineData:code <- $r0
	@DEBUG_VALUE: AnalyzeLineData:crlf <- 2573
	@DEBUG_VALUE: AnalyzeLineData:rval <- 5
	movs	r4, #5
	b	.LBB8_21
.Ltmp181:
	.p2align	2
@ %bb.30:
__arm_cp.8_0:
	.long	2573                            @ 0xa0d
.Lcpi_end8:
	.size	__arm_cp.8_0, .Lcpi_end8-__arm_cp.8_0
__arm_cp.8_1:
	.long	AT_Cb
.Lcpi_end9:
	.size	__arm_cp.8_1, .Lcpi_end9-__arm_cp.8_1
.Lfunc_end8:
	.size	AnalyzeLineData, .Lfunc_end8-AnalyzeLineData
	.cfi_endproc
	.cantunwind
	.fnend
                                        @ -- End function
	.section	.text.AT_Resp_IPD,"ax",%progbits
	.hidden	AT_Resp_IPD                     @ -- Begin function AT_Resp_IPD
	.globl	AT_Resp_IPD
	.p2align	2
	.type	AT_Resp_IPD,%function
	.code	16                              @ @AT_Resp_IPD
	.thumb_func
AT_Resp_IPD:
.Lfunc_begin9:
	.loc	5 1120 0 is_stmt 1              @ C:/Users/shw26/AppData/Local/Arm/Packs/ARM/CMSIS-Driver/2.6.1/WiFi/ESP8266/ESP8266.c:1120:0
	.fnstart
	.cfi_startproc
@ %bb.0:
	@DEBUG_VALUE: AT_Resp_IPD:link_id <- $r0
	@DEBUG_VALUE: AT_Resp_IPD:len <- $r1
	@DEBUG_VALUE: AT_Resp_IPD:remote_ip <- $r2
	@DEBUG_VALUE: AT_Resp_IPD:remote_port <- $r3
	.save	{r4, r5, r6, r7, lr}
	push	{r4, r5, r6, r7, lr}
	.cfi_def_cfa_offset 20
	.cfi_offset lr, -4
	.cfi_offset r7, -8
	.cfi_offset r6, -12
	.cfi_offset r5, -16
	.cfi_offset r4, -20
	.pad	#44
	sub	sp, #44
	.cfi_def_cfa_offset 64
	mov	r4, r3
	mov	r5, r2
	str	r1, [sp, #4]                    @ 4-byte Spill
	str	r0, [sp]                        @ 4-byte Spill
.Ltmp182:
	@DEBUG_VALUE: AT_Resp_IPD:a <- 0
	@DEBUG_VALUE: AT_Resp_IPD:remote_port <- $r4
	@DEBUG_VALUE: AT_Resp_IPD:remote_ip <- $r5
	@DEBUG_VALUE: AT_Resp_IPD:len <- [DW_OP_plus_uconst 4] [$sp+0]
	@DEBUG_VALUE: AT_Resp_IPD:link_id <- [$sp+0]
	add	r0, sp, #8
	movs	r1, #32
.Ltmp183:
	.loc	5 1131 11 prologue_end          @ C:/Users/shw26/AppData/Local/Arm/Packs/ARM/CMSIS-Driver/2.6.1/WiFi/ESP8266/ESP8266.c:1131:11
	bl	GetRespArg
	mov	r6, r0
.Ltmp184:
	@DEBUG_VALUE: AT_Resp_IPD:val <- $r6
	.loc	5 1133 9                        @ C:/Users/shw26/AppData/Local/Arm/Packs/ARM/CMSIS-Driver/2.6.1/WiFi/ESP8266/ESP8266.c:1133:9
	cmp	r0, #0
	bmi	.LBB9_14
.Ltmp185:
@ %bb.1:
	@DEBUG_VALUE: AT_Resp_IPD:val <- $r6
	@DEBUG_VALUE: AT_Resp_IPD:remote_ip <- $r5
	@DEBUG_VALUE: AT_Resp_IPD:remote_port <- $r4
	@DEBUG_VALUE: AT_Resp_IPD:link_id <- [$sp+0]
	@DEBUG_VALUE: AT_Resp_IPD:len <- [DW_OP_plus_uconst 4] [$sp+0]
	@DEBUG_VALUE: AT_Resp_IPD:a <- 0
	.loc	5 0 9 is_stmt 0                 @ C:/Users/shw26/AppData/Local/Arm/Packs/ARM/CMSIS-Driver/2.6.1/WiFi/ESP8266/ESP8266.c:0:9
	movs	r7, #0
.Ltmp186:
.LBB9_2:                                @ =>This Inner Loop Header: Depth=1
	@DEBUG_VALUE: AT_Resp_IPD:val <- $r6
	@DEBUG_VALUE: AT_Resp_IPD:remote_ip <- $r5
	@DEBUG_VALUE: AT_Resp_IPD:remote_port <- $r4
	@DEBUG_VALUE: AT_Resp_IPD:link_id <- [$sp+0]
	@DEBUG_VALUE: AT_Resp_IPD:len <- [DW_OP_plus_uconst 4] [$sp+0]
	@DEBUG_VALUE: AT_Resp_IPD:a <- $r7
	add	r0, sp, #8
	.loc	5 1137 7 is_stmt 1              @ C:/Users/shw26/AppData/Local/Arm/Packs/ARM/CMSIS-Driver/2.6.1/WiFi/ESP8266/ESP8266.c:1137:7
	str	r0, [sp, #40]
	.loc	5 1140 9                        @ C:/Users/shw26/AppData/Local/Arm/Packs/ARM/CMSIS-Driver/2.6.1/WiFi/ESP8266/ESP8266.c:1140:9
	cmp	r7, #3
.Ltmp187:
	@DEBUG_VALUE: AT_Resp_IPD:p <- [DW_OP_plus_uconst 8, DW_OP_stack_value] $sp
	bhi	.LBB9_14
.Ltmp188:
@ %bb.3:                                @   in Loop: Header=BB9_2 Depth=1
	@DEBUG_VALUE: AT_Resp_IPD:a <- $r7
	@DEBUG_VALUE: AT_Resp_IPD:val <- $r6
	@DEBUG_VALUE: AT_Resp_IPD:remote_ip <- $r5
	@DEBUG_VALUE: AT_Resp_IPD:remote_port <- $r4
	@DEBUG_VALUE: AT_Resp_IPD:p <- [DW_OP_plus_uconst 8, DW_OP_stack_value] $sp
	@DEBUG_VALUE: AT_Resp_IPD:link_id <- [$sp+0]
	@DEBUG_VALUE: AT_Resp_IPD:len <- [DW_OP_plus_uconst 4] [$sp+0]
	.loc	5 0 9 is_stmt 0                 @ C:/Users/shw26/AppData/Local/Arm/Packs/ARM/CMSIS-Driver/2.6.1/WiFi/ESP8266/ESP8266.c:0:9
	lsls	r0, r7, #2
	adr	r1, .LJTI9_0
	adds	r0, r1, r0
	mov	pc, r0
.Ltmp189:
@ %bb.4:
	.p2align	2
.LJTI9_0:
	b.w	.LBB9_5
	b.w	.LBB9_8
	b.w	.LBB9_6
	b.w	.LBB9_9
.LBB9_5:                                @   in Loop: Header=BB9_2 Depth=1
.Ltmp190:
	@DEBUG_VALUE: AT_Resp_IPD:a <- $r7
	@DEBUG_VALUE: AT_Resp_IPD:val <- $r6
	@DEBUG_VALUE: AT_Resp_IPD:remote_ip <- $r5
	@DEBUG_VALUE: AT_Resp_IPD:remote_port <- $r4
	@DEBUG_VALUE: AT_Resp_IPD:p <- [DW_OP_plus_uconst 8, DW_OP_stack_value] $sp
	@DEBUG_VALUE: AT_Resp_IPD:link_id <- [$sp+0]
	@DEBUG_VALUE: AT_Resp_IPD:len <- [DW_OP_plus_uconst 4] [$sp+0]
	@DEBUG_VALUE: AT_Resp_IPD:p <- [DW_OP_plus_uconst 40, DW_OP_deref] $sp
	add	r0, sp, #8
	add	r1, sp, #40
	movs	r2, #10
.Ltmp191:
	.loc	5 1142 14 is_stmt 1             @ C:/Users/shw26/AppData/Local/Arm/Packs/ARM/CMSIS-Driver/2.6.1/WiFi/ESP8266/ESP8266.c:1142:14
	bl	strtoul
.Ltmp192:
	@DEBUG_VALUE: AT_Resp_IPD:uval <- $r0
	.loc	5 1144 16                       @ C:/Users/shw26/AppData/Local/Arm/Packs/ARM/CMSIS-Driver/2.6.1/WiFi/ESP8266/ESP8266.c:1144:16
	ldr	r1, [sp]                        @ 4-byte Reload
	str	r0, [r1]
	b	.LBB9_11
.Ltmp193:
.LBB9_6:                                @   in Loop: Header=BB9_2 Depth=1
	@DEBUG_VALUE: AT_Resp_IPD:a <- $r7
	@DEBUG_VALUE: AT_Resp_IPD:val <- $r6
	@DEBUG_VALUE: AT_Resp_IPD:remote_ip <- $r5
	@DEBUG_VALUE: AT_Resp_IPD:remote_port <- $r4
	@DEBUG_VALUE: AT_Resp_IPD:p <- [DW_OP_plus_uconst 8, DW_OP_stack_value] $sp
	@DEBUG_VALUE: AT_Resp_IPD:link_id <- [$sp+0]
	@DEBUG_VALUE: AT_Resp_IPD:len <- [DW_OP_plus_uconst 4] [$sp+0]
	.loc	5 1154 11                       @ C:/Users/shw26/AppData/Local/Arm/Packs/ARM/CMSIS-Driver/2.6.1/WiFi/ESP8266/ESP8266.c:1154:11
	cbz	r5, .LBB9_11
.Ltmp194:
@ %bb.7:                                @   in Loop: Header=BB9_2 Depth=1
	@DEBUG_VALUE: AT_Resp_IPD:a <- $r7
	@DEBUG_VALUE: AT_Resp_IPD:val <- $r6
	@DEBUG_VALUE: AT_Resp_IPD:remote_ip <- $r5
	@DEBUG_VALUE: AT_Resp_IPD:remote_port <- $r4
	@DEBUG_VALUE: AT_Resp_IPD:p <- [DW_OP_plus_uconst 8, DW_OP_stack_value] $sp
	@DEBUG_VALUE: AT_Resp_IPD:link_id <- [$sp+0]
	@DEBUG_VALUE: AT_Resp_IPD:len <- [DW_OP_plus_uconst 4] [$sp+0]
	.loc	5 0 11 is_stmt 0                @ C:/Users/shw26/AppData/Local/Arm/Packs/ARM/CMSIS-Driver/2.6.1/WiFi/ESP8266/ESP8266.c:0:11
	add	r0, sp, #8
.Ltmp195:
	.loc	5 1155 9 is_stmt 1              @ C:/Users/shw26/AppData/Local/Arm/Packs/ARM/CMSIS-Driver/2.6.1/WiFi/ESP8266/ESP8266.c:1155:9
	mov	r1, r5
	bl	AT_Parse_IP
	b	.LBB9_11
.Ltmp196:
.LBB9_8:                                @   in Loop: Header=BB9_2 Depth=1
	@DEBUG_VALUE: AT_Resp_IPD:a <- $r7
	@DEBUG_VALUE: AT_Resp_IPD:val <- $r6
	@DEBUG_VALUE: AT_Resp_IPD:remote_ip <- $r5
	@DEBUG_VALUE: AT_Resp_IPD:remote_port <- $r4
	@DEBUG_VALUE: AT_Resp_IPD:p <- [DW_OP_plus_uconst 8, DW_OP_stack_value] $sp
	@DEBUG_VALUE: AT_Resp_IPD:link_id <- [$sp+0]
	@DEBUG_VALUE: AT_Resp_IPD:len <- [DW_OP_plus_uconst 4] [$sp+0]
	@DEBUG_VALUE: AT_Resp_IPD:p <- [DW_OP_plus_uconst 40, DW_OP_deref] $sp
	.loc	5 0 9 is_stmt 0                 @ C:/Users/shw26/AppData/Local/Arm/Packs/ARM/CMSIS-Driver/2.6.1/WiFi/ESP8266/ESP8266.c:0:9
	add	r0, sp, #8
	add	r1, sp, #40
	movs	r2, #10
.Ltmp197:
	.loc	5 1148 14 is_stmt 1             @ C:/Users/shw26/AppData/Local/Arm/Packs/ARM/CMSIS-Driver/2.6.1/WiFi/ESP8266/ESP8266.c:1148:14
	bl	strtoul
.Ltmp198:
	@DEBUG_VALUE: AT_Resp_IPD:uval <- $r0
	.loc	5 1150 12                       @ C:/Users/shw26/AppData/Local/Arm/Packs/ARM/CMSIS-Driver/2.6.1/WiFi/ESP8266/ESP8266.c:1150:12
	ldr	r1, [sp, #4]                    @ 4-byte Reload
	str	r0, [r1]
	b	.LBB9_11
.Ltmp199:
.LBB9_9:                                @   in Loop: Header=BB9_2 Depth=1
	@DEBUG_VALUE: AT_Resp_IPD:a <- $r7
	@DEBUG_VALUE: AT_Resp_IPD:val <- $r6
	@DEBUG_VALUE: AT_Resp_IPD:remote_ip <- $r5
	@DEBUG_VALUE: AT_Resp_IPD:remote_port <- $r4
	@DEBUG_VALUE: AT_Resp_IPD:p <- [DW_OP_plus_uconst 8, DW_OP_stack_value] $sp
	@DEBUG_VALUE: AT_Resp_IPD:link_id <- [$sp+0]
	@DEBUG_VALUE: AT_Resp_IPD:len <- [DW_OP_plus_uconst 4] [$sp+0]
	@DEBUG_VALUE: AT_Resp_IPD:p <- [DW_OP_plus_uconst 40, DW_OP_deref] $sp
	.loc	5 0 12 is_stmt 0                @ C:/Users/shw26/AppData/Local/Arm/Packs/ARM/CMSIS-Driver/2.6.1/WiFi/ESP8266/ESP8266.c:0:12
	add	r0, sp, #8
	add	r1, sp, #40
	movs	r2, #10
.Ltmp200:
	.loc	5 1160 14 is_stmt 1             @ C:/Users/shw26/AppData/Local/Arm/Packs/ARM/CMSIS-Driver/2.6.1/WiFi/ESP8266/ESP8266.c:1160:14
	bl	strtoul
.Ltmp201:
	@DEBUG_VALUE: AT_Resp_IPD:uval <- $r0
	.loc	5 1162 11                       @ C:/Users/shw26/AppData/Local/Arm/Packs/ARM/CMSIS-Driver/2.6.1/WiFi/ESP8266/ESP8266.c:1162:11
	cbz	r4, .LBB9_11
.Ltmp202:
@ %bb.10:                               @   in Loop: Header=BB9_2 Depth=1
	@DEBUG_VALUE: AT_Resp_IPD:a <- $r7
	@DEBUG_VALUE: AT_Resp_IPD:val <- $r6
	@DEBUG_VALUE: AT_Resp_IPD:remote_ip <- $r5
	@DEBUG_VALUE: AT_Resp_IPD:remote_port <- $r4
	@DEBUG_VALUE: AT_Resp_IPD:uval <- $r0
	@DEBUG_VALUE: AT_Resp_IPD:p <- [DW_OP_plus_uconst 40, DW_OP_deref] $sp
	@DEBUG_VALUE: AT_Resp_IPD:link_id <- [$sp+0]
	@DEBUG_VALUE: AT_Resp_IPD:len <- [DW_OP_plus_uconst 4] [$sp+0]
	.loc	5 1163 22                       @ C:/Users/shw26/AppData/Local/Arm/Packs/ARM/CMSIS-Driver/2.6.1/WiFi/ESP8266/ESP8266.c:1163:22
	strh	r0, [r4]
.Ltmp203:
.LBB9_11:                               @   in Loop: Header=BB9_2 Depth=1
	@DEBUG_VALUE: AT_Resp_IPD:a <- $r7
	@DEBUG_VALUE: AT_Resp_IPD:val <- $r6
	@DEBUG_VALUE: AT_Resp_IPD:remote_ip <- $r5
	@DEBUG_VALUE: AT_Resp_IPD:remote_port <- $r4
	@DEBUG_VALUE: AT_Resp_IPD:link_id <- [$sp+0]
	@DEBUG_VALUE: AT_Resp_IPD:len <- [DW_OP_plus_uconst 4] [$sp+0]
	@DEBUG_VALUE: AT_Resp_IPD:a <- [DW_OP_plus_uconst 1, DW_OP_stack_value] $r7
	.loc	5 1174 9                        @ C:/Users/shw26/AppData/Local/Arm/Packs/ARM/CMSIS-Driver/2.6.1/WiFi/ESP8266/ESP8266.c:1174:9
	cmp	r6, #1
	beq	.LBB9_13
.Ltmp204:
@ %bb.12:                               @   in Loop: Header=BB9_2 Depth=1
	@DEBUG_VALUE: AT_Resp_IPD:a <- [DW_OP_plus_uconst 1, DW_OP_stack_value] $r7
	@DEBUG_VALUE: AT_Resp_IPD:val <- $r6
	@DEBUG_VALUE: AT_Resp_IPD:remote_ip <- $r5
	@DEBUG_VALUE: AT_Resp_IPD:remote_port <- $r4
	@DEBUG_VALUE: AT_Resp_IPD:link_id <- [$sp+0]
	@DEBUG_VALUE: AT_Resp_IPD:len <- [DW_OP_plus_uconst 4] [$sp+0]
	@DEBUG_VALUE: AT_Resp_IPD:a <- [DW_OP_plus_uconst 1, DW_OP_stack_value] $r7
	.loc	5 0 9 is_stmt 0                 @ C:/Users/shw26/AppData/Local/Arm/Packs/ARM/CMSIS-Driver/2.6.1/WiFi/ESP8266/ESP8266.c:0:9
	add	r0, sp, #8
	movs	r1, #32
	.loc	5 1131 11 is_stmt 1             @ C:/Users/shw26/AppData/Local/Arm/Packs/ARM/CMSIS-Driver/2.6.1/WiFi/ESP8266/ESP8266.c:1131:11
	bl	GetRespArg
	mov	r6, r0
.Ltmp205:
	@DEBUG_VALUE: AT_Resp_IPD:val <- $r6
	.loc	5 1172 6                        @ C:/Users/shw26/AppData/Local/Arm/Packs/ARM/CMSIS-Driver/2.6.1/WiFi/ESP8266/ESP8266.c:1172:6
	adds	r7, r7, #1
.Ltmp206:
	@DEBUG_VALUE: AT_Resp_IPD:a <- $r7
	.loc	5 1133 9                        @ C:/Users/shw26/AppData/Local/Arm/Packs/ARM/CMSIS-Driver/2.6.1/WiFi/ESP8266/ESP8266.c:1133:9
	cmp	r0, #0
	bpl	.LBB9_2
	b	.LBB9_14
.Ltmp207:
.LBB9_13:
	@DEBUG_VALUE: AT_Resp_IPD:a <- [DW_OP_plus_uconst 1, DW_OP_stack_value] $r7
	@DEBUG_VALUE: AT_Resp_IPD:val <- $r6
	@DEBUG_VALUE: AT_Resp_IPD:remote_ip <- $r5
	@DEBUG_VALUE: AT_Resp_IPD:remote_port <- $r4
	@DEBUG_VALUE: AT_Resp_IPD:link_id <- [$sp+0]
	@DEBUG_VALUE: AT_Resp_IPD:len <- [DW_OP_plus_uconst 4] [$sp+0]
	.loc	5 0 9 is_stmt 0                 @ C:/Users/shw26/AppData/Local/Arm/Packs/ARM/CMSIS-Driver/2.6.1/WiFi/ESP8266/ESP8266.c:0:9
	movs	r6, #0
.Ltmp208:
.LBB9_14:
	@DEBUG_VALUE: AT_Resp_IPD:remote_ip <- $r5
	@DEBUG_VALUE: AT_Resp_IPD:remote_port <- $r4
	@DEBUG_VALUE: AT_Resp_IPD:link_id <- [$sp+0]
	@DEBUG_VALUE: AT_Resp_IPD:len <- [DW_OP_plus_uconst 4] [$sp+0]
	@DEBUG_VALUE: AT_Resp_IPD:val <- $r6
	.loc	5 1182 3 is_stmt 1              @ C:/Users/shw26/AppData/Local/Arm/Packs/ARM/CMSIS-Driver/2.6.1/WiFi/ESP8266/ESP8266.c:1182:3
	mov	r0, r6
	add	sp, #44
.Ltmp209:
	pop	{r4, r5, r6, r7, pc}
.Ltmp210:
.Lfunc_end9:
	.size	AT_Resp_IPD, .Lfunc_end9-AT_Resp_IPD
	.cfi_endproc
	.cantunwind
	.fnend
                                        @ -- End function
	.section	.text.GetRespArg,"ax",%progbits
	.p2align	2                               @ -- Begin function GetRespArg
	.type	GetRespArg,%function
	.code	16                              @ @GetRespArg
	.thumb_func
GetRespArg:
.Lfunc_begin10:
	.loc	5 1012 0                        @ C:/Users/shw26/AppData/Local/Arm/Packs/ARM/CMSIS-Driver/2.6.1/WiFi/ESP8266/ESP8266.c:1012:0
	.fnstart
	.cfi_startproc
@ %bb.0:
	@DEBUG_VALUE: GetRespArg:buf <- $r0
	@DEBUG_VALUE: GetRespArg:sz <- $r1
	.save	{r4, r5, r6, r7, lr}
	push	{r4, r5, r6, r7, lr}
	.cfi_def_cfa_offset 20
	.cfi_offset lr, -4
	.cfi_offset r7, -8
	.cfi_offset r6, -12
	.cfi_offset r5, -16
	.cfi_offset r4, -20
	.pad	#28
	sub	sp, #28
	.cfi_def_cfa_offset 48
	str	r1, [sp, #24]                   @ 4-byte Spill
	str	r0, [sp, #16]                   @ 4-byte Spill
.Ltmp211:
	@DEBUG_VALUE: GetRespArg:sz <- [DW_OP_plus_uconst 24] [$sp+0]
	@DEBUG_VALUE: GetRespArg:buf <- [DW_OP_plus_uconst 16] [$sp+0]
	.loc	5 1020 7 prologue_end           @ C:/Users/shw26/AppData/Local/Arm/Packs/ARM/CMSIS-Driver/2.6.1/WiFi/ESP8266/ESP8266.c:1020:7
	ldr	r4, __arm_cp.10_0
	adds	r4, #20
	mov	r0, r4
	bl	BufPeekByte
.Ltmp212:
	.loc	5 1020 7 is_stmt 0              @ C:/Users/shw26/AppData/Local/Arm/Packs/ARM/CMSIS-Driver/2.6.1/WiFi/ESP8266/ESP8266.c:1020:7
	cmp	r0, #43
	bne	.LBB10_4
.Ltmp213:
.LBB10_1:                               @ =>This Inner Loop Header: Depth=1
	@DEBUG_VALUE: GetRespArg:buf <- [DW_OP_plus_uconst 16] [$sp+0]
	@DEBUG_VALUE: GetRespArg:sz <- [DW_OP_plus_uconst 24] [$sp+0]
	.loc	5 1023 13 is_stmt 1             @ C:/Users/shw26/AppData/Local/Arm/Packs/ARM/CMSIS-Driver/2.6.1/WiFi/ESP8266/ESP8266.c:1023:13
	mov	r0, r4
	bl	BufReadByte
.Ltmp214:
	@DEBUG_VALUE: GetRespArg:val <- $r0
	.loc	5 1025 11                       @ C:/Users/shw26/AppData/Local/Arm/Packs/ARM/CMSIS-Driver/2.6.1/WiFi/ESP8266/ESP8266.c:1025:11
	adds	r1, r0, #1
	beq	.LBB10_20
.Ltmp215:
@ %bb.2:                                @   in Loop: Header=BB10_1 Depth=1
	@DEBUG_VALUE: GetRespArg:val <- $r0
	@DEBUG_VALUE: GetRespArg:buf <- [DW_OP_plus_uconst 16] [$sp+0]
	@DEBUG_VALUE: GetRespArg:sz <- [DW_OP_plus_uconst 24] [$sp+0]
	cmp	r0, #58
	beq	.LBB10_4
.Ltmp216:
@ %bb.3:                                @   in Loop: Header=BB10_1 Depth=1
	@DEBUG_VALUE: GetRespArg:val <- $r0
	@DEBUG_VALUE: GetRespArg:buf <- [DW_OP_plus_uconst 16] [$sp+0]
	@DEBUG_VALUE: GetRespArg:sz <- [DW_OP_plus_uconst 24] [$sp+0]
	cmp	r0, #44
	bne	.LBB10_1
.Ltmp217:
.LBB10_4:
	@DEBUG_VALUE: GetRespArg:buf <- [DW_OP_plus_uconst 16] [$sp+0]
	@DEBUG_VALUE: GetRespArg:sz <- [DW_OP_plus_uconst 24] [$sp+0]
	.loc	5 0 11 is_stmt 0                @ C:/Users/shw26/AppData/Local/Arm/Packs/ARM/CMSIS-Driver/2.6.1/WiFi/ESP8266/ESP8266.c:0:11
	movs	r7, #0
	movs	r0, #1
	mvns	r0, r0
	str	r0, [sp, #20]                   @ 4-byte Spill
	movs	r0, #254
	str	r0, [sp, #12]                   @ 4-byte Spill
	adr	r6, .LCPI10_1
	movs	r0, #3
	.loc	5 1039 7 is_stmt 1              @ C:/Users/shw26/AppData/Local/Arm/Packs/ARM/CMSIS-Driver/2.6.1/WiFi/ESP8266/ESP8266.c:1039:7
	str	r0, [sp, #4]                    @ 4-byte Spill
	mov	r5, r7
	str	r7, [sp, #8]                    @ 4-byte Spill
.Ltmp218:
.LBB10_5:                               @ =>This Loop Header: Depth=1
                                        @     Child Loop BB10_13 Depth 2
	@DEBUG_VALUE: GetRespArg:buf <- [DW_OP_plus_uconst 16] [$sp+0]
	@DEBUG_VALUE: GetRespArg:sz <- [DW_OP_plus_uconst 24] [$sp+0]
	@DEBUG_VALUE: GetRespArg:str <- $r7
	@DEBUG_VALUE: GetRespArg:i <- $r5
	.loc	5 1042 9                        @ C:/Users/shw26/AppData/Local/Arm/Packs/ARM/CMSIS-Driver/2.6.1/WiFi/ESP8266/ESP8266.c:1042:9
	ldr	r0, [sp, #24]                   @ 4-byte Reload
	cmp	r5, r0
.Ltmp219:
	.loc	5 0 0 is_stmt 0                 @ C:/Users/shw26/AppData/Local/Arm/Packs/ARM/CMSIS-Driver/2.6.1/WiFi/ESP8266/ESP8266.c:0:0
	ldr	r0, [sp, #20]                   @ 4-byte Reload
.Ltmp220:
	.loc	5 1042 9                        @ C:/Users/shw26/AppData/Local/Arm/Packs/ARM/CMSIS-Driver/2.6.1/WiFi/ESP8266/ESP8266.c:1042:9
	beq	.LBB10_7
.Ltmp221:
@ %bb.6:                                @   in Loop: Header=BB10_5 Depth=1
	@DEBUG_VALUE: GetRespArg:str <- $r7
	@DEBUG_VALUE: GetRespArg:i <- $r5
	@DEBUG_VALUE: GetRespArg:buf <- [DW_OP_plus_uconst 16] [$sp+0]
	@DEBUG_VALUE: GetRespArg:sz <- [DW_OP_plus_uconst 24] [$sp+0]
	.loc	5 1048 13 is_stmt 1             @ C:/Users/shw26/AppData/Local/Arm/Packs/ARM/CMSIS-Driver/2.6.1/WiFi/ESP8266/ESP8266.c:1048:13
	mov	r0, r4
	bl	BufReadByte
.Ltmp222:
	@DEBUG_VALUE: GetRespArg:val <- $r0
.LBB10_7:                               @   in Loop: Header=BB10_5 Depth=1
	@DEBUG_VALUE: GetRespArg:str <- $r7
	@DEBUG_VALUE: GetRespArg:i <- $r5
	@DEBUG_VALUE: GetRespArg:buf <- [DW_OP_plus_uconst 16] [$sp+0]
	@DEBUG_VALUE: GetRespArg:sz <- [DW_OP_plus_uconst 24] [$sp+0]
	@DEBUG_VALUE: GetRespArg:val <- $r0
	.loc	5 1051 9                        @ C:/Users/shw26/AppData/Local/Arm/Packs/ARM/CMSIS-Driver/2.6.1/WiFi/ESP8266/ESP8266.c:1051:9
	cmp	r0, #0
	bmi	.LBB10_17
.Ltmp223:
@ %bb.8:                                @   in Loop: Header=BB10_5 Depth=1
	@DEBUG_VALUE: GetRespArg:str <- $r7
	@DEBUG_VALUE: GetRespArg:i <- $r5
	@DEBUG_VALUE: GetRespArg:val <- $r0
	@DEBUG_VALUE: GetRespArg:buf <- [DW_OP_plus_uconst 16] [$sp+0]
	@DEBUG_VALUE: GetRespArg:sz <- [DW_OP_plus_uconst 24] [$sp+0]
	.loc	5 1055 9                        @ C:/Users/shw26/AppData/Local/Arm/Packs/ARM/CMSIS-Driver/2.6.1/WiFi/ESP8266/ESP8266.c:1055:9
	uxtb	r1, r0
.Ltmp224:
	@DEBUG_VALUE: GetRespArg:b <- $r1
	.loc	5 1057 11                       @ C:/Users/shw26/AppData/Local/Arm/Packs/ARM/CMSIS-Driver/2.6.1/WiFi/ESP8266/ESP8266.c:1057:11
	mov	r2, r1
	subs	r2, #34
	rsbs	r3, r2, #0
	adcs	r3, r2
.Ltmp225:
	.loc	5 1057 9 is_stmt 0              @ C:/Users/shw26/AppData/Local/Arm/Packs/ARM/CMSIS-Driver/2.6.1/WiFi/ESP8266/ESP8266.c:1057:9
	eors	r7, r3
.Ltmp226:
	@DEBUG_VALUE: GetRespArg:str <- $r7
	.loc	5 1062 21 is_stmt 1             @ C:/Users/shw26/AppData/Local/Arm/Packs/ARM/CMSIS-Driver/2.6.1/WiFi/ESP8266/ESP8266.c:1062:21
	beq	.LBB10_11
.Ltmp227:
.LBB10_9:                               @   in Loop: Header=BB10_5 Depth=1
	@DEBUG_VALUE: GetRespArg:str <- $r7
	@DEBUG_VALUE: GetRespArg:i <- $r5
	@DEBUG_VALUE: GetRespArg:buf <- [DW_OP_plus_uconst 16] [$sp+0]
	@DEBUG_VALUE: GetRespArg:sz <- [DW_OP_plus_uconst 24] [$sp+0]
	@DEBUG_VALUE: GetRespArg:val <- $r0
	@DEBUG_VALUE: GetRespArg:b <- $r1
	.loc	5 1076 14                       @ C:/Users/shw26/AppData/Local/Arm/Packs/ARM/CMSIS-Driver/2.6.1/WiFi/ESP8266/ESP8266.c:1076:14
	ldr	r2, [sp, #16]                   @ 4-byte Reload
	strb	r1, [r2, r5]
	.loc	5 1078 8                        @ C:/Users/shw26/AppData/Local/Arm/Packs/ARM/CMSIS-Driver/2.6.1/WiFi/ESP8266/ESP8266.c:1078:8
	adds	r5, r5, #1
.Ltmp228:
	@DEBUG_VALUE: GetRespArg:i <- $r5
.LBB10_10:                              @   in Loop: Header=BB10_5 Depth=1
	@DEBUG_VALUE: GetRespArg:str <- $r7
	@DEBUG_VALUE: GetRespArg:i <- $r5
	@DEBUG_VALUE: GetRespArg:b <- $r1
	@DEBUG_VALUE: GetRespArg:val <- $r0
	@DEBUG_VALUE: GetRespArg:buf <- [DW_OP_plus_uconst 16] [$sp+0]
	@DEBUG_VALUE: GetRespArg:sz <- [DW_OP_plus_uconst 24] [$sp+0]
	@DEBUG_VALUE: GetRespArg:val <- $r0
	@DEBUG_VALUE: GetRespArg:i <- $r5
	.loc	5 1080 3                        @ C:/Users/shw26/AppData/Local/Arm/Packs/ARM/CMSIS-Driver/2.6.1/WiFi/ESP8266/ESP8266.c:1080:3
	cmp	r0, #2
	bgt	.LBB10_5
	b	.LBB10_17
.Ltmp229:
.LBB10_11:                              @   in Loop: Header=BB10_5 Depth=1
	@DEBUG_VALUE: GetRespArg:str <- $r7
	@DEBUG_VALUE: GetRespArg:i <- $r5
	@DEBUG_VALUE: GetRespArg:b <- $r1
	@DEBUG_VALUE: GetRespArg:val <- $r0
	@DEBUG_VALUE: GetRespArg:buf <- [DW_OP_plus_uconst 16] [$sp+0]
	@DEBUG_VALUE: GetRespArg:sz <- [DW_OP_plus_uconst 24] [$sp+0]
	.loc	5 1062 36                       @ C:/Users/shw26/AppData/Local/Arm/Packs/ARM/CMSIS-Driver/2.6.1/WiFi/ESP8266/ESP8266.c:1062:36
	mov	r2, r0
	ldr	r3, [sp, #12]                   @ 4-byte Reload
	ands	r2, r3
	cmp	r2, #40
	beq	.LBB10_10
.Ltmp230:
@ %bb.12:                               @   in Loop: Header=BB10_5 Depth=1
	@DEBUG_VALUE: GetRespArg:str <- $r7
	@DEBUG_VALUE: GetRespArg:i <- $r5
	@DEBUG_VALUE: GetRespArg:b <- $r1
	@DEBUG_VALUE: GetRespArg:val <- $r0
	@DEBUG_VALUE: GetRespArg:buf <- [DW_OP_plus_uconst 16] [$sp+0]
	@DEBUG_VALUE: GetRespArg:sz <- [DW_OP_plus_uconst 24] [$sp+0]
	.loc	5 0 36 is_stmt 0                @ C:/Users/shw26/AppData/Local/Arm/Packs/ARM/CMSIS-Driver/2.6.1/WiFi/ESP8266/ESP8266.c:0:36
	ldr	r0, [sp, #8]                    @ 4-byte Reload
.Ltmp231:
.LBB10_13:                              @   Parent Loop BB10_5 Depth=1
                                        @ =>  This Inner Loop Header: Depth=2
	@DEBUG_VALUE: GetRespArg:str <- $r7
	@DEBUG_VALUE: GetRespArg:i <- $r5
	@DEBUG_VALUE: GetRespArg:b <- $r1
	@DEBUG_VALUE: GetRespArg:buf <- [DW_OP_plus_uconst 16] [$sp+0]
	@DEBUG_VALUE: GetRespArg:sz <- [DW_OP_plus_uconst 24] [$sp+0]
	@DEBUG_VALUE: GetRespArg:val <- $r0
	.loc	5 1069 20 is_stmt 1             @ C:/Users/shw26/AppData/Local/Arm/Packs/ARM/CMSIS-Driver/2.6.1/WiFi/ESP8266/ESP8266.c:1069:20
	ldrb	r2, [r6, r0]
.Ltmp232:
	.loc	5 1069 15 is_stmt 0             @ C:/Users/shw26/AppData/Local/Arm/Packs/ARM/CMSIS-Driver/2.6.1/WiFi/ESP8266/ESP8266.c:1069:15
	cmp	r2, r1
	beq	.LBB10_16
.Ltmp233:
@ %bb.14:                               @   in Loop: Header=BB10_13 Depth=2
	@DEBUG_VALUE: GetRespArg:str <- $r7
	@DEBUG_VALUE: GetRespArg:i <- $r5
	@DEBUG_VALUE: GetRespArg:b <- $r1
	@DEBUG_VALUE: GetRespArg:val <- $r0
	@DEBUG_VALUE: GetRespArg:buf <- [DW_OP_plus_uconst 16] [$sp+0]
	@DEBUG_VALUE: GetRespArg:sz <- [DW_OP_plus_uconst 24] [$sp+0]
	.loc	5 1068 37 is_stmt 1             @ C:/Users/shw26/AppData/Local/Arm/Packs/ARM/CMSIS-Driver/2.6.1/WiFi/ESP8266/ESP8266.c:1068:37
	adds	r0, r0, #1
.Ltmp234:
	@DEBUG_VALUE: GetRespArg:val <- $r0
	.loc	5 1068 9 is_stmt 0              @ C:/Users/shw26/AppData/Local/Arm/Packs/ARM/CMSIS-Driver/2.6.1/WiFi/ESP8266/ESP8266.c:1068:9
	cmp	r0, #3
	bne	.LBB10_13
.Ltmp235:
@ %bb.15:                               @   in Loop: Header=BB10_5 Depth=1
	@DEBUG_VALUE: GetRespArg:str <- $r7
	@DEBUG_VALUE: GetRespArg:i <- $r5
	@DEBUG_VALUE: GetRespArg:b <- $r1
	@DEBUG_VALUE: GetRespArg:val <- $r0
	@DEBUG_VALUE: GetRespArg:buf <- [DW_OP_plus_uconst 16] [$sp+0]
	@DEBUG_VALUE: GetRespArg:sz <- [DW_OP_plus_uconst 24] [$sp+0]
	.loc	5 0 0                           @ C:/Users/shw26/AppData/Local/Arm/Packs/ARM/CMSIS-Driver/2.6.1/WiFi/ESP8266/ESP8266.c:0:0
	ldr	r0, [sp, #4]                    @ 4-byte Reload
.Ltmp236:
	b	.LBB10_9
.Ltmp237:
.LBB10_16:                              @   in Loop: Header=BB10_5 Depth=1
	@DEBUG_VALUE: GetRespArg:str <- $r7
	@DEBUG_VALUE: GetRespArg:i <- $r5
	@DEBUG_VALUE: GetRespArg:b <- $r1
	@DEBUG_VALUE: GetRespArg:val <- $r0
	@DEBUG_VALUE: GetRespArg:buf <- [DW_OP_plus_uconst 16] [$sp+0]
	@DEBUG_VALUE: GetRespArg:sz <- [DW_OP_plus_uconst 24] [$sp+0]
	ldr	r1, [sp, #8]                    @ 4-byte Reload
.Ltmp238:
	b	.LBB10_9
.Ltmp239:
.LBB10_17:
	@DEBUG_VALUE: GetRespArg:str <- $r7
	@DEBUG_VALUE: GetRespArg:i <- $r5
	@DEBUG_VALUE: GetRespArg:val <- $r0
	@DEBUG_VALUE: GetRespArg:buf <- [DW_OP_plus_uconst 16] [$sp+0]
	@DEBUG_VALUE: GetRespArg:sz <- [DW_OP_plus_uconst 24] [$sp+0]
	@DEBUG_VALUE: GetRespArg:val <- $r0
	.loc	5 1083 7 is_stmt 1              @ C:/Users/shw26/AppData/Local/Arm/Packs/ARM/CMSIS-Driver/2.6.1/WiFi/ESP8266/ESP8266.c:1083:7
	cmp	r0, #2
	bne	.LBB10_20
.Ltmp240:
@ %bb.18:
	@DEBUG_VALUE: GetRespArg:str <- $r7
	@DEBUG_VALUE: GetRespArg:i <- $r5
	@DEBUG_VALUE: GetRespArg:val <- $r0
	@DEBUG_VALUE: GetRespArg:buf <- [DW_OP_plus_uconst 16] [$sp+0]
	@DEBUG_VALUE: GetRespArg:sz <- [DW_OP_plus_uconst 24] [$sp+0]
	.loc	5 1087 5                        @ C:/Users/shw26/AppData/Local/Arm/Packs/ARM/CMSIS-Driver/2.6.1/WiFi/ESP8266/ESP8266.c:1087:5
	mov	r0, r4
.Ltmp241:
	bl	BufFlushByte
	.loc	5 1090 18                       @ C:/Users/shw26/AppData/Local/Arm/Packs/ARM/CMSIS-Driver/2.6.1/WiFi/ESP8266/ESP8266.c:1090:18
	mov	r0, r4
	bl	BufPeekByte
.Ltmp242:
	@DEBUG_VALUE: GetRespArg:b <- $r0
	.loc	5 1092 9                        @ C:/Users/shw26/AppData/Local/Arm/Packs/ARM/CMSIS-Driver/2.6.1/WiFi/ESP8266/ESP8266.c:1092:9
	uxtb	r0, r0
.Ltmp243:
	.loc	5 1092 9 is_stmt 0              @ C:/Users/shw26/AppData/Local/Arm/Packs/ARM/CMSIS-Driver/2.6.1/WiFi/ESP8266/ESP8266.c:1092:9
	cmp	r0, #43
	beq	.LBB10_21
.Ltmp244:
@ %bb.19:
	@DEBUG_VALUE: GetRespArg:str <- $r7
	@DEBUG_VALUE: GetRespArg:i <- $r5
	@DEBUG_VALUE: GetRespArg:buf <- [DW_OP_plus_uconst 16] [$sp+0]
	@DEBUG_VALUE: GetRespArg:sz <- [DW_OP_plus_uconst 24] [$sp+0]
	.loc	5 0 9                           @ C:/Users/shw26/AppData/Local/Arm/Packs/ARM/CMSIS-Driver/2.6.1/WiFi/ESP8266/ESP8266.c:0:9
	movs	r0, #3
.Ltmp245:
.LBB10_20:
	@DEBUG_VALUE: GetRespArg:buf <- [DW_OP_plus_uconst 16] [$sp+0]
	@DEBUG_VALUE: GetRespArg:sz <- [DW_OP_plus_uconst 24] [$sp+0]
	add	sp, #28
.Ltmp246:
	pop	{r4, r5, r6, r7, pc}
.LBB10_21:
.Ltmp247:
	@DEBUG_VALUE: GetRespArg:str <- $r7
	@DEBUG_VALUE: GetRespArg:i <- $r5
	@DEBUG_VALUE: GetRespArg:buf <- [DW_OP_plus_uconst 16] [$sp+0]
	@DEBUG_VALUE: GetRespArg:sz <- [DW_OP_plus_uconst 24] [$sp+0]
	movs	r0, #2
	add	sp, #28
.Ltmp248:
	pop	{r4, r5, r6, r7, pc}
.Ltmp249:
	.p2align	2
@ %bb.22:
__arm_cp.10_0:
	.long	AT_Cb
.Lcpi_end10:
	.size	__arm_cp.10_0, .Lcpi_end10-__arm_cp.10_0
.LCPI10_1:
.L__const.GetRespArg.d:
	.asciz	",:\r"
.Lfunc_end10:
	.size	GetRespArg, .Lfunc_end10-GetRespArg
	.cfi_endproc
	.cantunwind
	.fnend
                                        @ -- End function
	.section	.text.AT_Parse_IP,"ax",%progbits
	.p2align	1                               @ -- Begin function AT_Parse_IP
	.type	AT_Parse_IP,%function
	.code	16                              @ @AT_Parse_IP
	.thumb_func
AT_Parse_IP:
.Lfunc_begin11:
	.loc	5 3723 0 is_stmt 1              @ C:/Users/shw26/AppData/Local/Arm/Packs/ARM/CMSIS-Driver/2.6.1/WiFi/ESP8266/ESP8266.c:3723:0
	.fnstart
	.cfi_startproc
@ %bb.0:
	@DEBUG_VALUE: AT_Parse_IP:buf <- $r0
	@DEBUG_VALUE: AT_Parse_IP:ip <- $r1
	.save	{r4, r5, r6, lr}
	push	{r4, r5, r6, lr}
	.cfi_def_cfa_offset 16
	.cfi_offset lr, -4
	.cfi_offset r6, -8
	.cfi_offset r5, -12
	.cfi_offset r4, -16
	.pad	#8
	sub	sp, #8
	.cfi_def_cfa_offset 24
	mov	r4, r1
.Ltmp250:
	@DEBUG_VALUE: AT_Parse_IP:p <- $r0
	@DEBUG_VALUE: AT_Parse_IP:ip <- $r4
	@DEBUG_VALUE: AT_Parse_IP:buf <- $r0
	.loc	5 3727 5 prologue_end           @ C:/Users/shw26/AppData/Local/Arm/Packs/ARM/CMSIS-Driver/2.6.1/WiFi/ESP8266/ESP8266.c:3727:5
	str	r0, [sp, #4]
.Ltmp251:
	.loc	5 3729 7                        @ C:/Users/shw26/AppData/Local/Arm/Packs/ARM/CMSIS-Driver/2.6.1/WiFi/ESP8266/ESP8266.c:3729:7
	ldrb	r1, [r0]
.Ltmp252:
	.loc	5 3729 7 is_stmt 0              @ C:/Users/shw26/AppData/Local/Arm/Packs/ARM/CMSIS-Driver/2.6.1/WiFi/ESP8266/ESP8266.c:3729:7
	cmp	r1, #34
	bne	.LBB11_2
.Ltmp253:
@ %bb.1:
	@DEBUG_VALUE: AT_Parse_IP:ip <- $r4
	@DEBUG_VALUE: AT_Parse_IP:p <- $r0
	@DEBUG_VALUE: AT_Parse_IP:buf <- $r0
	.loc	5 3731 6 is_stmt 1              @ C:/Users/shw26/AppData/Local/Arm/Packs/ARM/CMSIS-Driver/2.6.1/WiFi/ESP8266/ESP8266.c:3731:6
	adds	r0, r0, #1
.Ltmp254:
	@DEBUG_VALUE: AT_Parse_IP:buf <- [DW_OP_LLVM_entry_value 1] $r0
	@DEBUG_VALUE: AT_Parse_IP:p <- $r0
	str	r0, [sp, #4]
.Ltmp255:
.LBB11_2:
	@DEBUG_VALUE: AT_Parse_IP:ip <- $r4
	@DEBUG_VALUE: AT_Parse_IP:p <- $r0
	.loc	5 3735 30                       @ C:/Users/shw26/AppData/Local/Arm/Packs/ARM/CMSIS-Driver/2.6.1/WiFi/ESP8266/ESP8266.c:3735:30
	ldr	r0, [sp, #4]
.Ltmp256:
	@DEBUG_VALUE: AT_Parse_IP:p <- [DW_OP_plus_uconst 4, DW_OP_deref] $sp
	.loc	5 0 30 is_stmt 0                @ C:/Users/shw26/AppData/Local/Arm/Packs/ARM/CMSIS-Driver/2.6.1/WiFi/ESP8266/ESP8266.c:0:30
	add	r5, sp, #4
	movs	r6, #10
	.loc	5 3735 20                       @ C:/Users/shw26/AppData/Local/Arm/Packs/ARM/CMSIS-Driver/2.6.1/WiFi/ESP8266/ESP8266.c:3735:20
	mov	r1, r5
	mov	r2, r6
	bl	strtoul
	.loc	5 3735 9                        @ C:/Users/shw26/AppData/Local/Arm/Packs/ARM/CMSIS-Driver/2.6.1/WiFi/ESP8266/ESP8266.c:3735:9
	strb	r0, [r4]
	.loc	5 3736 30 is_stmt 1             @ C:/Users/shw26/AppData/Local/Arm/Packs/ARM/CMSIS-Driver/2.6.1/WiFi/ESP8266/ESP8266.c:3736:30
	ldr	r0, [sp, #4]
	adds	r0, r0, #1
	.loc	5 3736 20 is_stmt 0             @ C:/Users/shw26/AppData/Local/Arm/Packs/ARM/CMSIS-Driver/2.6.1/WiFi/ESP8266/ESP8266.c:3736:20
	mov	r1, r5
	mov	r2, r6
	bl	strtoul
	.loc	5 3736 9                        @ C:/Users/shw26/AppData/Local/Arm/Packs/ARM/CMSIS-Driver/2.6.1/WiFi/ESP8266/ESP8266.c:3736:9
	strb	r0, [r4, #1]
	.loc	5 3737 30 is_stmt 1             @ C:/Users/shw26/AppData/Local/Arm/Packs/ARM/CMSIS-Driver/2.6.1/WiFi/ESP8266/ESP8266.c:3737:30
	ldr	r0, [sp, #4]
	adds	r0, r0, #1
	.loc	5 3737 20 is_stmt 0             @ C:/Users/shw26/AppData/Local/Arm/Packs/ARM/CMSIS-Driver/2.6.1/WiFi/ESP8266/ESP8266.c:3737:20
	mov	r1, r5
	mov	r2, r6
	bl	strtoul
	.loc	5 3737 9                        @ C:/Users/shw26/AppData/Local/Arm/Packs/ARM/CMSIS-Driver/2.6.1/WiFi/ESP8266/ESP8266.c:3737:9
	strb	r0, [r4, #2]
	.loc	5 3738 30 is_stmt 1             @ C:/Users/shw26/AppData/Local/Arm/Packs/ARM/CMSIS-Driver/2.6.1/WiFi/ESP8266/ESP8266.c:3738:30
	ldr	r0, [sp, #4]
	adds	r0, r0, #1
	.loc	5 3738 20 is_stmt 0             @ C:/Users/shw26/AppData/Local/Arm/Packs/ARM/CMSIS-Driver/2.6.1/WiFi/ESP8266/ESP8266.c:3738:20
	mov	r1, r5
	mov	r2, r6
	bl	strtoul
	.loc	5 3738 9                        @ C:/Users/shw26/AppData/Local/Arm/Packs/ARM/CMSIS-Driver/2.6.1/WiFi/ESP8266/ESP8266.c:3738:9
	strb	r0, [r4, #3]
	.loc	5 3739 1 is_stmt 1              @ C:/Users/shw26/AppData/Local/Arm/Packs/ARM/CMSIS-Driver/2.6.1/WiFi/ESP8266/ESP8266.c:3739:1
	add	sp, #8
.Ltmp257:
	pop	{r4, r5, r6, pc}
.Ltmp258:
.Lfunc_end11:
	.size	AT_Parse_IP, .Lfunc_end11-AT_Parse_IP
	.cfi_endproc
	.cantunwind
	.fnend
                                        @ -- End function
	.section	.text.AT_Resp_LinkConn,"ax",%progbits
	.hidden	AT_Resp_LinkConn                @ -- Begin function AT_Resp_LinkConn
	.globl	AT_Resp_LinkConn
	.p2align	2
	.type	AT_Resp_LinkConn,%function
	.code	16                              @ @AT_Resp_LinkConn
	.thumb_func
AT_Resp_LinkConn:
.Lfunc_begin12:
	.loc	5 1192 0                        @ C:/Users/shw26/AppData/Local/Arm/Packs/ARM/CMSIS-Driver/2.6.1/WiFi/ESP8266/ESP8266.c:1192:0
	.fnstart
	.cfi_startproc
@ %bb.0:
	@DEBUG_VALUE: AT_Resp_LinkConn:status <- $r0
	@DEBUG_VALUE: AT_Resp_LinkConn:conn <- $r1
	.save	{r4, r5, r6, r7, lr}
	push	{r4, r5, r6, r7, lr}
	.cfi_def_cfa_offset 20
	.cfi_offset lr, -4
	.cfi_offset r7, -8
	.cfi_offset r6, -12
	.cfi_offset r5, -16
	.cfi_offset r4, -20
	.pad	#52
	sub	sp, #52
	.cfi_def_cfa_offset 72
	mov	r5, r1
	str	r0, [sp, #12]                   @ 4-byte Spill
.Ltmp259:
	@DEBUG_VALUE: AT_Resp_LinkConn:conn <- $r5
	@DEBUG_VALUE: AT_Resp_LinkConn:status <- [DW_OP_plus_uconst 12] [$sp+0]
	.loc	5 0 0 prologue_end              @ C:/Users/shw26/AppData/Local/Arm/Packs/ARM/CMSIS-Driver/2.6.1/WiFi/ESP8266/ESP8266.c:0:0
	adds	r0, r1, #1
.Ltmp260:
	@DEBUG_VALUE: AT_Resp_LinkConn:a <- 0
	str	r0, [sp, #8]                    @ 4-byte Spill
	adds	r0, r1, #6
	str	r0, [sp, #4]                    @ 4-byte Spill
	movs	r6, #0
	movs	r7, #32
	movs	r0, #10
	str	r0, [sp]                        @ 4-byte Spill
	b	.LBB12_2
.Ltmp261:
.LBB12_1:                               @   in Loop: Header=BB12_2 Depth=1
	@DEBUG_VALUE: AT_Resp_LinkConn:a <- $r6
	@DEBUG_VALUE: AT_Resp_LinkConn:conn <- $r5
	@DEBUG_VALUE: AT_Resp_LinkConn:val <- $r4
	@DEBUG_VALUE: AT_Resp_LinkConn:status <- [DW_OP_plus_uconst 12] [$sp+0]
	@DEBUG_VALUE: AT_Resp_LinkConn:a <- [DW_OP_plus_uconst 1, DW_OP_stack_value] $r6
	movs	r0, #1
	.loc	5 1261 21                       @ C:/Users/shw26/AppData/Local/Arm/Packs/ARM/CMSIS-Driver/2.6.1/WiFi/ESP8266/ESP8266.c:1261:21
	mov	r1, r4
	bics	r1, r0
.Ltmp262:
	.loc	5 1258 8                        @ C:/Users/shw26/AppData/Local/Arm/Packs/ARM/CMSIS-Driver/2.6.1/WiFi/ESP8266/ESP8266.c:1258:8
	adds	r6, r6, #1
.Ltmp263:
	@DEBUG_VALUE: AT_Resp_LinkConn:a <- $r6
	.loc	5 1260 3                        @ C:/Users/shw26/AppData/Local/Arm/Packs/ARM/CMSIS-Driver/2.6.1/WiFi/ESP8266/ESP8266.c:1260:3
	cmp	r1, #2
	beq	.LBB12_13
.Ltmp264:
.LBB12_2:                               @ =>This Inner Loop Header: Depth=1
	@DEBUG_VALUE: AT_Resp_LinkConn:conn <- $r5
	@DEBUG_VALUE: AT_Resp_LinkConn:status <- [DW_OP_plus_uconst 12] [$sp+0]
	@DEBUG_VALUE: AT_Resp_LinkConn:a <- $r6
	.loc	5 0 3 is_stmt 0                 @ C:/Users/shw26/AppData/Local/Arm/Packs/ARM/CMSIS-Driver/2.6.1/WiFi/ESP8266/ESP8266.c:0:3
	add	r0, sp, #16
	.loc	5 1203 11 is_stmt 1             @ C:/Users/shw26/AppData/Local/Arm/Packs/ARM/CMSIS-Driver/2.6.1/WiFi/ESP8266/ESP8266.c:1203:11
	mov	r1, r7
	bl	GetRespArg
	mov	r4, r0
.Ltmp265:
	@DEBUG_VALUE: AT_Resp_LinkConn:val <- $r4
	.loc	5 1205 9                        @ C:/Users/shw26/AppData/Local/Arm/Packs/ARM/CMSIS-Driver/2.6.1/WiFi/ESP8266/ESP8266.c:1205:9
	cmp	r0, #0
	bmi	.LBB12_13
.Ltmp266:
@ %bb.3:                                @   in Loop: Header=BB12_2 Depth=1
	@DEBUG_VALUE: AT_Resp_LinkConn:a <- $r6
	@DEBUG_VALUE: AT_Resp_LinkConn:conn <- $r5
	@DEBUG_VALUE: AT_Resp_LinkConn:val <- $r4
	@DEBUG_VALUE: AT_Resp_LinkConn:status <- [DW_OP_plus_uconst 12] [$sp+0]
	.loc	5 0 9 is_stmt 0                 @ C:/Users/shw26/AppData/Local/Arm/Packs/ARM/CMSIS-Driver/2.6.1/WiFi/ESP8266/ESP8266.c:0:9
	add	r0, sp, #16
.Ltmp267:
	.loc	5 1211 9 is_stmt 1              @ C:/Users/shw26/AppData/Local/Arm/Packs/ARM/CMSIS-Driver/2.6.1/WiFi/ESP8266/ESP8266.c:1211:9
	str	r0, [sp, #48]
	.loc	5 1214 11                       @ C:/Users/shw26/AppData/Local/Arm/Packs/ARM/CMSIS-Driver/2.6.1/WiFi/ESP8266/ESP8266.c:1214:11
	cmp	r6, #6
.Ltmp268:
	@DEBUG_VALUE: AT_Resp_LinkConn:p <- [DW_OP_plus_uconst 16, DW_OP_stack_value] $sp
	bhi	.LBB12_13
.Ltmp269:
@ %bb.4:                                @   in Loop: Header=BB12_2 Depth=1
	@DEBUG_VALUE: AT_Resp_LinkConn:a <- $r6
	@DEBUG_VALUE: AT_Resp_LinkConn:conn <- $r5
	@DEBUG_VALUE: AT_Resp_LinkConn:val <- $r4
	@DEBUG_VALUE: AT_Resp_LinkConn:p <- [DW_OP_plus_uconst 16, DW_OP_stack_value] $sp
	@DEBUG_VALUE: AT_Resp_LinkConn:status <- [DW_OP_plus_uconst 12] [$sp+0]
	.loc	5 0 11 is_stmt 0                @ C:/Users/shw26/AppData/Local/Arm/Packs/ARM/CMSIS-Driver/2.6.1/WiFi/ESP8266/ESP8266.c:0:11
	lsls	r0, r6, #2
	adr	r1, .LJTI12_0
	adds	r0, r1, r0
	mov	pc, r0
.Ltmp270:
@ %bb.5:
	.p2align	2
.LJTI12_0:
	b.w	.LBB12_7
	b.w	.LBB12_8
	b.w	.LBB12_9
	b.w	.LBB12_10
	b.w	.LBB12_11
	b.w	.LBB12_12
	b.w	.LBB12_6
.LBB12_6:                               @   in Loop: Header=BB12_2 Depth=1
.Ltmp271:
	@DEBUG_VALUE: AT_Resp_LinkConn:a <- $r6
	@DEBUG_VALUE: AT_Resp_LinkConn:conn <- $r5
	@DEBUG_VALUE: AT_Resp_LinkConn:val <- $r4
	@DEBUG_VALUE: AT_Resp_LinkConn:p <- [DW_OP_plus_uconst 16, DW_OP_stack_value] $sp
	@DEBUG_VALUE: AT_Resp_LinkConn:status <- [DW_OP_plus_uconst 12] [$sp+0]
	@DEBUG_VALUE: AT_Resp_LinkConn:p <- [DW_OP_plus_uconst 48, DW_OP_deref] $sp
	add	r0, sp, #16
	add	r1, sp, #48
	movs	r2, #10
.Ltmp272:
	.loc	5 1248 16 is_stmt 1             @ C:/Users/shw26/AppData/Local/Arm/Packs/ARM/CMSIS-Driver/2.6.1/WiFi/ESP8266/ESP8266.c:1248:16
	bl	strtoul
.Ltmp273:
	@DEBUG_VALUE: AT_Resp_LinkConn:uval <- $r0
	.loc	5 1250 26                       @ C:/Users/shw26/AppData/Local/Arm/Packs/ARM/CMSIS-Driver/2.6.1/WiFi/ESP8266/ESP8266.c:1250:26
	strh	r0, [r5, #12]
	b	.LBB12_1
.Ltmp274:
.LBB12_7:                               @   in Loop: Header=BB12_2 Depth=1
	@DEBUG_VALUE: AT_Resp_LinkConn:a <- $r6
	@DEBUG_VALUE: AT_Resp_LinkConn:conn <- $r5
	@DEBUG_VALUE: AT_Resp_LinkConn:val <- $r4
	@DEBUG_VALUE: AT_Resp_LinkConn:p <- [DW_OP_plus_uconst 16, DW_OP_stack_value] $sp
	@DEBUG_VALUE: AT_Resp_LinkConn:status <- [DW_OP_plus_uconst 12] [$sp+0]
	@DEBUG_VALUE: AT_Resp_LinkConn:p <- [DW_OP_plus_uconst 48, DW_OP_deref] $sp
	.loc	5 0 26 is_stmt 0                @ C:/Users/shw26/AppData/Local/Arm/Packs/ARM/CMSIS-Driver/2.6.1/WiFi/ESP8266/ESP8266.c:0:26
	add	r0, sp, #16
	add	r1, sp, #48
.Ltmp275:
	.loc	5 1216 16 is_stmt 1             @ C:/Users/shw26/AppData/Local/Arm/Packs/ARM/CMSIS-Driver/2.6.1/WiFi/ESP8266/ESP8266.c:1216:16
	ldr	r2, [sp]                        @ 4-byte Reload
	bl	strtoul
.Ltmp276:
	@DEBUG_VALUE: AT_Resp_LinkConn:uval <- $r0
	.loc	5 1218 17                       @ C:/Users/shw26/AppData/Local/Arm/Packs/ARM/CMSIS-Driver/2.6.1/WiFi/ESP8266/ESP8266.c:1218:17
	ldr	r1, [sp, #12]                   @ 4-byte Reload
	str	r0, [r1]
	b	.LBB12_1
.Ltmp277:
.LBB12_8:                               @   in Loop: Header=BB12_2 Depth=1
	@DEBUG_VALUE: AT_Resp_LinkConn:a <- $r6
	@DEBUG_VALUE: AT_Resp_LinkConn:conn <- $r5
	@DEBUG_VALUE: AT_Resp_LinkConn:val <- $r4
	@DEBUG_VALUE: AT_Resp_LinkConn:p <- [DW_OP_plus_uconst 16, DW_OP_stack_value] $sp
	@DEBUG_VALUE: AT_Resp_LinkConn:status <- [DW_OP_plus_uconst 12] [$sp+0]
	@DEBUG_VALUE: AT_Resp_LinkConn:p <- [DW_OP_plus_uconst 48, DW_OP_deref] $sp
	.loc	5 0 17 is_stmt 0                @ C:/Users/shw26/AppData/Local/Arm/Packs/ARM/CMSIS-Driver/2.6.1/WiFi/ESP8266/ESP8266.c:0:17
	add	r0, sp, #16
	add	r1, sp, #48
	movs	r2, #10
.Ltmp278:
	.loc	5 1222 16 is_stmt 1             @ C:/Users/shw26/AppData/Local/Arm/Packs/ARM/CMSIS-Driver/2.6.1/WiFi/ESP8266/ESP8266.c:1222:16
	bl	strtoul
.Ltmp279:
	@DEBUG_VALUE: AT_Resp_LinkConn:uval <- $r0
	.loc	5 1224 23                       @ C:/Users/shw26/AppData/Local/Arm/Packs/ARM/CMSIS-Driver/2.6.1/WiFi/ESP8266/ESP8266.c:1224:23
	strb	r0, [r5]
	b	.LBB12_1
.Ltmp280:
.LBB12_9:                               @   in Loop: Header=BB12_2 Depth=1
	@DEBUG_VALUE: AT_Resp_LinkConn:a <- $r6
	@DEBUG_VALUE: AT_Resp_LinkConn:conn <- $r5
	@DEBUG_VALUE: AT_Resp_LinkConn:val <- $r4
	@DEBUG_VALUE: AT_Resp_LinkConn:p <- [DW_OP_plus_uconst 16, DW_OP_stack_value] $sp
	@DEBUG_VALUE: AT_Resp_LinkConn:status <- [DW_OP_plus_uconst 12] [$sp+0]
	.loc	5 0 23 is_stmt 0                @ C:/Users/shw26/AppData/Local/Arm/Packs/ARM/CMSIS-Driver/2.6.1/WiFi/ESP8266/ESP8266.c:0:23
	add	r1, sp, #16
.Ltmp281:
	.loc	5 1228 9 is_stmt 1              @ C:/Users/shw26/AppData/Local/Arm/Packs/ARM/CMSIS-Driver/2.6.1/WiFi/ESP8266/ESP8266.c:1228:9
	ldr	r0, [sp, #8]                    @ 4-byte Reload
	bl	strcpy
	b	.LBB12_1
.Ltmp282:
.LBB12_10:                              @   in Loop: Header=BB12_2 Depth=1
	@DEBUG_VALUE: AT_Resp_LinkConn:a <- $r6
	@DEBUG_VALUE: AT_Resp_LinkConn:conn <- $r5
	@DEBUG_VALUE: AT_Resp_LinkConn:val <- $r4
	@DEBUG_VALUE: AT_Resp_LinkConn:p <- [DW_OP_plus_uconst 16, DW_OP_stack_value] $sp
	@DEBUG_VALUE: AT_Resp_LinkConn:status <- [DW_OP_plus_uconst 12] [$sp+0]
	@DEBUG_VALUE: AT_Resp_LinkConn:p <- [DW_OP_plus_uconst 48, DW_OP_deref] $sp
	.loc	5 0 9 is_stmt 0                 @ C:/Users/shw26/AppData/Local/Arm/Packs/ARM/CMSIS-Driver/2.6.1/WiFi/ESP8266/ESP8266.c:0:9
	add	r0, sp, #16
	add	r1, sp, #48
	movs	r2, #10
.Ltmp283:
	.loc	5 1232 16 is_stmt 1             @ C:/Users/shw26/AppData/Local/Arm/Packs/ARM/CMSIS-Driver/2.6.1/WiFi/ESP8266/ESP8266.c:1232:16
	bl	strtoul
.Ltmp284:
	@DEBUG_VALUE: AT_Resp_LinkConn:uval <- $r0
	.loc	5 1234 19                       @ C:/Users/shw26/AppData/Local/Arm/Packs/ARM/CMSIS-Driver/2.6.1/WiFi/ESP8266/ESP8266.c:1234:19
	strb	r0, [r5, #5]
	b	.LBB12_1
.Ltmp285:
.LBB12_11:                              @   in Loop: Header=BB12_2 Depth=1
	@DEBUG_VALUE: AT_Resp_LinkConn:a <- $r6
	@DEBUG_VALUE: AT_Resp_LinkConn:conn <- $r5
	@DEBUG_VALUE: AT_Resp_LinkConn:val <- $r4
	@DEBUG_VALUE: AT_Resp_LinkConn:p <- [DW_OP_plus_uconst 16, DW_OP_stack_value] $sp
	@DEBUG_VALUE: AT_Resp_LinkConn:status <- [DW_OP_plus_uconst 12] [$sp+0]
	.loc	5 0 19 is_stmt 0                @ C:/Users/shw26/AppData/Local/Arm/Packs/ARM/CMSIS-Driver/2.6.1/WiFi/ESP8266/ESP8266.c:0:19
	add	r0, sp, #16
.Ltmp286:
	.loc	5 1238 9 is_stmt 1              @ C:/Users/shw26/AppData/Local/Arm/Packs/ARM/CMSIS-Driver/2.6.1/WiFi/ESP8266/ESP8266.c:1238:9
	ldr	r1, [sp, #4]                    @ 4-byte Reload
	bl	AT_Parse_IP
	b	.LBB12_1
.Ltmp287:
.LBB12_12:                              @   in Loop: Header=BB12_2 Depth=1
	@DEBUG_VALUE: AT_Resp_LinkConn:a <- $r6
	@DEBUG_VALUE: AT_Resp_LinkConn:conn <- $r5
	@DEBUG_VALUE: AT_Resp_LinkConn:val <- $r4
	@DEBUG_VALUE: AT_Resp_LinkConn:p <- [DW_OP_plus_uconst 16, DW_OP_stack_value] $sp
	@DEBUG_VALUE: AT_Resp_LinkConn:status <- [DW_OP_plus_uconst 12] [$sp+0]
	@DEBUG_VALUE: AT_Resp_LinkConn:p <- [DW_OP_plus_uconst 48, DW_OP_deref] $sp
	.loc	5 0 9 is_stmt 0                 @ C:/Users/shw26/AppData/Local/Arm/Packs/ARM/CMSIS-Driver/2.6.1/WiFi/ESP8266/ESP8266.c:0:9
	add	r0, sp, #16
	add	r1, sp, #48
	movs	r2, #10
.Ltmp288:
	.loc	5 1242 16 is_stmt 1             @ C:/Users/shw26/AppData/Local/Arm/Packs/ARM/CMSIS-Driver/2.6.1/WiFi/ESP8266/ESP8266.c:1242:16
	bl	strtoul
.Ltmp289:
	@DEBUG_VALUE: AT_Resp_LinkConn:uval <- $r0
	.loc	5 1244 27                       @ C:/Users/shw26/AppData/Local/Arm/Packs/ARM/CMSIS-Driver/2.6.1/WiFi/ESP8266/ESP8266.c:1244:27
	strh	r0, [r5, #10]
	b	.LBB12_1
.Ltmp290:
.LBB12_13:
	@DEBUG_VALUE: AT_Resp_LinkConn:a <- $r6
	@DEBUG_VALUE: AT_Resp_LinkConn:conn <- $r5
	@DEBUG_VALUE: AT_Resp_LinkConn:val <- $r4
	@DEBUG_VALUE: AT_Resp_LinkConn:status <- [DW_OP_plus_uconst 12] [$sp+0]
	.loc	5 1263 7                        @ C:/Users/shw26/AppData/Local/Arm/Packs/ARM/CMSIS-Driver/2.6.1/WiFi/ESP8266/ESP8266.c:1263:7
	cmp	r4, #3
	beq	.LBB12_16
.Ltmp291:
@ %bb.14:
	@DEBUG_VALUE: AT_Resp_LinkConn:a <- $r6
	@DEBUG_VALUE: AT_Resp_LinkConn:conn <- $r5
	@DEBUG_VALUE: AT_Resp_LinkConn:val <- $r4
	@DEBUG_VALUE: AT_Resp_LinkConn:status <- [DW_OP_plus_uconst 12] [$sp+0]
	cmp	r4, #2
	bne	.LBB12_17
.Ltmp292:
@ %bb.15:
	@DEBUG_VALUE: AT_Resp_LinkConn:a <- $r6
	@DEBUG_VALUE: AT_Resp_LinkConn:conn <- $r5
	@DEBUG_VALUE: AT_Resp_LinkConn:val <- $r4
	@DEBUG_VALUE: AT_Resp_LinkConn:status <- [DW_OP_plus_uconst 12] [$sp+0]
	@DEBUG_VALUE: AT_Resp_LinkConn:val <- 1
	.loc	5 0 7 is_stmt 0                 @ C:/Users/shw26/AppData/Local/Arm/Packs/ARM/CMSIS-Driver/2.6.1/WiFi/ESP8266/ESP8266.c:0:7
	movs	r4, #1
	b	.LBB12_17
.Ltmp293:
.LBB12_16:
	@DEBUG_VALUE: AT_Resp_LinkConn:a <- $r6
	@DEBUG_VALUE: AT_Resp_LinkConn:conn <- $r5
	@DEBUG_VALUE: AT_Resp_LinkConn:val <- $r4
	@DEBUG_VALUE: AT_Resp_LinkConn:status <- [DW_OP_plus_uconst 12] [$sp+0]
	movs	r4, #0
.Ltmp294:
.LBB12_17:
	@DEBUG_VALUE: AT_Resp_LinkConn:a <- $r6
	@DEBUG_VALUE: AT_Resp_LinkConn:conn <- $r5
	@DEBUG_VALUE: AT_Resp_LinkConn:status <- [DW_OP_plus_uconst 12] [$sp+0]
	@DEBUG_VALUE: AT_Resp_LinkConn:val <- $r4
	.loc	5 1274 3 is_stmt 1              @ C:/Users/shw26/AppData/Local/Arm/Packs/ARM/CMSIS-Driver/2.6.1/WiFi/ESP8266/ESP8266.c:1274:3
	mov	r0, r4
	add	sp, #52
.Ltmp295:
	pop	{r4, r5, r6, r7, pc}
.Ltmp296:
.Lfunc_end12:
	.size	AT_Resp_LinkConn, .Lfunc_end12-AT_Resp_LinkConn
	.cfi_endproc
	.cantunwind
	.fnend
                                        @ -- End function
	.section	.text.AT_Resp_CtrlConn,"ax",%progbits
	.hidden	AT_Resp_CtrlConn                @ -- Begin function AT_Resp_CtrlConn
	.globl	AT_Resp_CtrlConn
	.p2align	2
	.type	AT_Resp_CtrlConn,%function
	.code	16                              @ @AT_Resp_CtrlConn
	.thumb_func
AT_Resp_CtrlConn:
.Lfunc_begin13:
	.loc	5 1285 0                        @ C:/Users/shw26/AppData/Local/Arm/Packs/ARM/CMSIS-Driver/2.6.1/WiFi/ESP8266/ESP8266.c:1285:0
	.fnstart
	.cfi_startproc
@ %bb.0:
	@DEBUG_VALUE: AT_Resp_CtrlConn:conn_id <- $r0
	.save	{r4, lr}
	push	{r4, lr}
	.cfi_def_cfa_offset 8
	.cfi_offset lr, -4
	.cfi_offset r4, -8
	mov	r4, r0
.Ltmp297:
	@DEBUG_VALUE: AT_Resp_CtrlConn:conn_id <- $r4
	.loc	5 1289 9 prologue_end           @ C:/Users/shw26/AppData/Local/Arm/Packs/ARM/CMSIS-Driver/2.6.1/WiFi/ESP8266/ESP8266.c:1289:9
	ldr	r0, __arm_cp.13_0
	bl	BufReadByte
	mov	r1, r0
.Ltmp298:
	@DEBUG_VALUE: AT_Resp_CtrlConn:val <- $r1
	.loc	5 0 9 is_stmt 0                 @ C:/Users/shw26/AppData/Local/Arm/Packs/ARM/CMSIS-Driver/2.6.1/WiFi/ESP8266/ESP8266.c:0:9
	movs	r0, #0
	.loc	5 1291 7 is_stmt 1              @ C:/Users/shw26/AppData/Local/Arm/Packs/ARM/CMSIS-Driver/2.6.1/WiFi/ESP8266/ESP8266.c:1291:7
	adds	r2, r1, #1
	beq	.LBB13_2
.Ltmp299:
@ %bb.1:
	@DEBUG_VALUE: AT_Resp_CtrlConn:conn_id <- $r4
	@DEBUG_VALUE: AT_Resp_CtrlConn:val <- $r1
	.loc	5 1294 16                       @ C:/Users/shw26/AppData/Local/Arm/Packs/ARM/CMSIS-Driver/2.6.1/WiFi/ESP8266/ESP8266.c:1294:16
	uxtb	r1, r1
.Ltmp300:
	@DEBUG_VALUE: AT_Resp_CtrlConn:b <- undef
	.loc	5 1294 18 is_stmt 0             @ C:/Users/shw26/AppData/Local/Arm/Packs/ARM/CMSIS-Driver/2.6.1/WiFi/ESP8266/ESP8266.c:1294:18
	subs	r1, #48
	.loc	5 1294 14                       @ C:/Users/shw26/AppData/Local/Arm/Packs/ARM/CMSIS-Driver/2.6.1/WiFi/ESP8266/ESP8266.c:1294:14
	str	r1, [r4]
.Ltmp301:
	@DEBUG_VALUE: AT_Resp_CtrlConn:val <- 0
	@DEBUG_VALUE: AT_Resp_CtrlConn:val <- $r0
	.loc	5 1298 3 is_stmt 1              @ C:/Users/shw26/AppData/Local/Arm/Packs/ARM/CMSIS-Driver/2.6.1/WiFi/ESP8266/ESP8266.c:1298:3
	pop	{r4, pc}
.Ltmp302:
.LBB13_2:
	@DEBUG_VALUE: AT_Resp_CtrlConn:conn_id <- $r4
	@DEBUG_VALUE: AT_Resp_CtrlConn:val <- $r1
	.loc	5 0 3 is_stmt 0                 @ C:/Users/shw26/AppData/Local/Arm/Packs/ARM/CMSIS-Driver/2.6.1/WiFi/ESP8266/ESP8266.c:0:3
	mvns	r0, r0
.Ltmp303:
	@DEBUG_VALUE: AT_Resp_CtrlConn:val <- $r0
	.loc	5 1298 3                        @ C:/Users/shw26/AppData/Local/Arm/Packs/ARM/CMSIS-Driver/2.6.1/WiFi/ESP8266/ESP8266.c:1298:3
	pop	{r4, pc}
.Ltmp304:
	.p2align	2
@ %bb.3:
	.loc	5 0 3                           @ C:/Users/shw26/AppData/Local/Arm/Packs/ARM/CMSIS-Driver/2.6.1/WiFi/ESP8266/ESP8266.c:0:3
__arm_cp.13_0:
	.long	AT_Cb
.Lcpi_end11:
	.size	__arm_cp.13_0, .Lcpi_end11-__arm_cp.13_0
.Lfunc_end13:
	.size	AT_Resp_CtrlConn, .Lfunc_end13-AT_Resp_CtrlConn
	.cfi_endproc
	.cantunwind
	.fnend
                                        @ -- End function
	.section	.text.AT_Resp_StaMac,"ax",%progbits
	.hidden	AT_Resp_StaMac                  @ -- Begin function AT_Resp_StaMac
	.globl	AT_Resp_StaMac
	.p2align	1
	.type	AT_Resp_StaMac,%function
	.code	16                              @ @AT_Resp_StaMac
	.thumb_func
AT_Resp_StaMac:
.Lfunc_begin14:
	.loc	5 1307 0 is_stmt 1              @ C:/Users/shw26/AppData/Local/Arm/Packs/ARM/CMSIS-Driver/2.6.1/WiFi/ESP8266/ESP8266.c:1307:0
	.fnstart
	.cfi_startproc
@ %bb.0:
	@DEBUG_VALUE: AT_Resp_StaMac:mac <- $r0
	.save	{r4, lr}
	push	{r4, lr}
	.cfi_def_cfa_offset 8
	.cfi_offset lr, -4
	.cfi_offset r4, -8
	.pad	#32
	sub	sp, #32
	.cfi_def_cfa_offset 40
	mov	r4, r0
.Ltmp305:
	@DEBUG_VALUE: AT_Resp_StaMac:mac <- $r4
	mov	r0, sp
	movs	r1, #32
.Ltmp306:
	.loc	5 1313 9 prologue_end           @ C:/Users/shw26/AppData/Local/Arm/Packs/ARM/CMSIS-Driver/2.6.1/WiFi/ESP8266/ESP8266.c:1313:9
	bl	GetRespArg
.Ltmp307:
	@DEBUG_VALUE: AT_Resp_StaMac:val <- $r0
	.loc	5 1315 7                        @ C:/Users/shw26/AppData/Local/Arm/Packs/ARM/CMSIS-Driver/2.6.1/WiFi/ESP8266/ESP8266.c:1315:7
	cmp	r0, #2
	blt	.LBB14_2
.Ltmp308:
@ %bb.1:
	@DEBUG_VALUE: AT_Resp_StaMac:mac <- $r4
	@DEBUG_VALUE: AT_Resp_StaMac:val <- $r0
	.loc	5 0 7 is_stmt 0                 @ C:/Users/shw26/AppData/Local/Arm/Packs/ARM/CMSIS-Driver/2.6.1/WiFi/ESP8266/ESP8266.c:0:7
	mov	r0, sp
.Ltmp309:
	.loc	5 1319 5 is_stmt 1              @ C:/Users/shw26/AppData/Local/Arm/Packs/ARM/CMSIS-Driver/2.6.1/WiFi/ESP8266/ESP8266.c:1319:5
	mov	r1, r4
	bl	AT_Parse_MAC
	movs	r0, #0
.Ltmp310:
	@DEBUG_VALUE: AT_Resp_StaMac:p <- $sp
	@DEBUG_VALUE: AT_Resp_StaMac:val <- 0
.LBB14_2:
	@DEBUG_VALUE: AT_Resp_StaMac:mac <- $r4
	@DEBUG_VALUE: AT_Resp_StaMac:val <- $r0
	.loc	5 1324 3                        @ C:/Users/shw26/AppData/Local/Arm/Packs/ARM/CMSIS-Driver/2.6.1/WiFi/ESP8266/ESP8266.c:1324:3
	add	sp, #32
	pop	{r4, pc}
.Ltmp311:
.Lfunc_end14:
	.size	AT_Resp_StaMac, .Lfunc_end14-AT_Resp_StaMac
	.cfi_endproc
	.cantunwind
	.fnend
                                        @ -- End function
	.section	.text.AT_Parse_MAC,"ax",%progbits
	.p2align	1                               @ -- Begin function AT_Parse_MAC
	.type	AT_Parse_MAC,%function
	.code	16                              @ @AT_Parse_MAC
	.thumb_func
AT_Parse_MAC:
.Lfunc_begin15:
	.loc	5 3744 0                        @ C:/Users/shw26/AppData/Local/Arm/Packs/ARM/CMSIS-Driver/2.6.1/WiFi/ESP8266/ESP8266.c:3744:0
	.fnstart
	.cfi_startproc
@ %bb.0:
	@DEBUG_VALUE: AT_Parse_MAC:buf <- $r0
	@DEBUG_VALUE: AT_Parse_MAC:mac <- $r1
	.save	{r4, r5, r6, lr}
	push	{r4, r5, r6, lr}
	.cfi_def_cfa_offset 16
	.cfi_offset lr, -4
	.cfi_offset r6, -8
	.cfi_offset r5, -12
	.cfi_offset r4, -16
	.pad	#8
	sub	sp, #8
	.cfi_def_cfa_offset 24
	mov	r4, r1
.Ltmp312:
	@DEBUG_VALUE: AT_Parse_MAC:p <- $r0
	@DEBUG_VALUE: AT_Parse_MAC:mac <- $r4
	@DEBUG_VALUE: AT_Parse_MAC:buf <- $r0
	.loc	5 3748 5 prologue_end           @ C:/Users/shw26/AppData/Local/Arm/Packs/ARM/CMSIS-Driver/2.6.1/WiFi/ESP8266/ESP8266.c:3748:5
	str	r0, [sp, #4]
.Ltmp313:
	.loc	5 3750 7                        @ C:/Users/shw26/AppData/Local/Arm/Packs/ARM/CMSIS-Driver/2.6.1/WiFi/ESP8266/ESP8266.c:3750:7
	ldrb	r1, [r0]
.Ltmp314:
	.loc	5 3750 7 is_stmt 0              @ C:/Users/shw26/AppData/Local/Arm/Packs/ARM/CMSIS-Driver/2.6.1/WiFi/ESP8266/ESP8266.c:3750:7
	cmp	r1, #34
	bne	.LBB15_2
.Ltmp315:
@ %bb.1:
	@DEBUG_VALUE: AT_Parse_MAC:mac <- $r4
	@DEBUG_VALUE: AT_Parse_MAC:p <- $r0
	@DEBUG_VALUE: AT_Parse_MAC:buf <- $r0
	.loc	5 3752 6 is_stmt 1              @ C:/Users/shw26/AppData/Local/Arm/Packs/ARM/CMSIS-Driver/2.6.1/WiFi/ESP8266/ESP8266.c:3752:6
	adds	r0, r0, #1
.Ltmp316:
	@DEBUG_VALUE: AT_Parse_MAC:buf <- [DW_OP_LLVM_entry_value 1] $r0
	@DEBUG_VALUE: AT_Parse_MAC:p <- $r0
	str	r0, [sp, #4]
.Ltmp317:
.LBB15_2:
	@DEBUG_VALUE: AT_Parse_MAC:mac <- $r4
	@DEBUG_VALUE: AT_Parse_MAC:p <- $r0
	.loc	5 3756 31                       @ C:/Users/shw26/AppData/Local/Arm/Packs/ARM/CMSIS-Driver/2.6.1/WiFi/ESP8266/ESP8266.c:3756:31
	ldr	r0, [sp, #4]
.Ltmp318:
	@DEBUG_VALUE: AT_Parse_MAC:p <- [DW_OP_plus_uconst 4, DW_OP_deref] $sp
	.loc	5 0 31 is_stmt 0                @ C:/Users/shw26/AppData/Local/Arm/Packs/ARM/CMSIS-Driver/2.6.1/WiFi/ESP8266/ESP8266.c:0:31
	add	r5, sp, #4
	movs	r6, #16
	.loc	5 3756 21                       @ C:/Users/shw26/AppData/Local/Arm/Packs/ARM/CMSIS-Driver/2.6.1/WiFi/ESP8266/ESP8266.c:3756:21
	mov	r1, r5
	mov	r2, r6
	bl	strtoul
	.loc	5 3756 10                       @ C:/Users/shw26/AppData/Local/Arm/Packs/ARM/CMSIS-Driver/2.6.1/WiFi/ESP8266/ESP8266.c:3756:10
	strb	r0, [r4]
	.loc	5 3757 31 is_stmt 1             @ C:/Users/shw26/AppData/Local/Arm/Packs/ARM/CMSIS-Driver/2.6.1/WiFi/ESP8266/ESP8266.c:3757:31
	ldr	r0, [sp, #4]
	adds	r0, r0, #1
	.loc	5 3757 21 is_stmt 0             @ C:/Users/shw26/AppData/Local/Arm/Packs/ARM/CMSIS-Driver/2.6.1/WiFi/ESP8266/ESP8266.c:3757:21
	mov	r1, r5
	mov	r2, r6
	bl	strtoul
	.loc	5 3757 10                       @ C:/Users/shw26/AppData/Local/Arm/Packs/ARM/CMSIS-Driver/2.6.1/WiFi/ESP8266/ESP8266.c:3757:10
	strb	r0, [r4, #1]
	.loc	5 3758 31 is_stmt 1             @ C:/Users/shw26/AppData/Local/Arm/Packs/ARM/CMSIS-Driver/2.6.1/WiFi/ESP8266/ESP8266.c:3758:31
	ldr	r0, [sp, #4]
	adds	r0, r0, #1
	.loc	5 3758 21 is_stmt 0             @ C:/Users/shw26/AppData/Local/Arm/Packs/ARM/CMSIS-Driver/2.6.1/WiFi/ESP8266/ESP8266.c:3758:21
	mov	r1, r5
	mov	r2, r6
	bl	strtoul
	.loc	5 3758 10                       @ C:/Users/shw26/AppData/Local/Arm/Packs/ARM/CMSIS-Driver/2.6.1/WiFi/ESP8266/ESP8266.c:3758:10
	strb	r0, [r4, #2]
	.loc	5 3759 31 is_stmt 1             @ C:/Users/shw26/AppData/Local/Arm/Packs/ARM/CMSIS-Driver/2.6.1/WiFi/ESP8266/ESP8266.c:3759:31
	ldr	r0, [sp, #4]
	adds	r0, r0, #1
	.loc	5 3759 21 is_stmt 0             @ C:/Users/shw26/AppData/Local/Arm/Packs/ARM/CMSIS-Driver/2.6.1/WiFi/ESP8266/ESP8266.c:3759:21
	mov	r1, r5
	mov	r2, r6
	bl	strtoul
	.loc	5 3759 10                       @ C:/Users/shw26/AppData/Local/Arm/Packs/ARM/CMSIS-Driver/2.6.1/WiFi/ESP8266/ESP8266.c:3759:10
	strb	r0, [r4, #3]
	.loc	5 3760 31 is_stmt 1             @ C:/Users/shw26/AppData/Local/Arm/Packs/ARM/CMSIS-Driver/2.6.1/WiFi/ESP8266/ESP8266.c:3760:31
	ldr	r0, [sp, #4]
	adds	r0, r0, #1
	.loc	5 3760 21 is_stmt 0             @ C:/Users/shw26/AppData/Local/Arm/Packs/ARM/CMSIS-Driver/2.6.1/WiFi/ESP8266/ESP8266.c:3760:21
	mov	r1, r5
	mov	r2, r6
	bl	strtoul
	.loc	5 3760 10                       @ C:/Users/shw26/AppData/Local/Arm/Packs/ARM/CMSIS-Driver/2.6.1/WiFi/ESP8266/ESP8266.c:3760:10
	strb	r0, [r4, #4]
	.loc	5 3761 31 is_stmt 1             @ C:/Users/shw26/AppData/Local/Arm/Packs/ARM/CMSIS-Driver/2.6.1/WiFi/ESP8266/ESP8266.c:3761:31
	ldr	r0, [sp, #4]
	adds	r0, r0, #1
	.loc	5 3761 21 is_stmt 0             @ C:/Users/shw26/AppData/Local/Arm/Packs/ARM/CMSIS-Driver/2.6.1/WiFi/ESP8266/ESP8266.c:3761:21
	mov	r1, r5
	mov	r2, r6
	bl	strtoul
	.loc	5 3761 10                       @ C:/Users/shw26/AppData/Local/Arm/Packs/ARM/CMSIS-Driver/2.6.1/WiFi/ESP8266/ESP8266.c:3761:10
	strb	r0, [r4, #5]
	.loc	5 3762 1 is_stmt 1              @ C:/Users/shw26/AppData/Local/Arm/Packs/ARM/CMSIS-Driver/2.6.1/WiFi/ESP8266/ESP8266.c:3762:1
	add	sp, #8
.Ltmp319:
	pop	{r4, r5, r6, pc}
.Ltmp320:
.Lfunc_end15:
	.size	AT_Parse_MAC, .Lfunc_end15-AT_Parse_MAC
	.cfi_endproc
	.cantunwind
	.fnend
                                        @ -- End function
	.section	.text.AT_Resp_ErrCode,"ax",%progbits
	.hidden	AT_Resp_ErrCode                 @ -- Begin function AT_Resp_ErrCode
	.globl	AT_Resp_ErrCode
	.p2align	1
	.type	AT_Resp_ErrCode,%function
	.code	16                              @ @AT_Resp_ErrCode
	.thumb_func
AT_Resp_ErrCode:
.Lfunc_begin16:
	.loc	5 1335 0                        @ C:/Users/shw26/AppData/Local/Arm/Packs/ARM/CMSIS-Driver/2.6.1/WiFi/ESP8266/ESP8266.c:1335:0
	.fnstart
	.cfi_startproc
@ %bb.0:
	@DEBUG_VALUE: AT_Resp_ErrCode:err_code <- $r0
	.save	{r4, lr}
	push	{r4, lr}
	.cfi_def_cfa_offset 8
	.cfi_offset lr, -4
	.cfi_offset r4, -8
	.pad	#40
	sub	sp, #40
	.cfi_def_cfa_offset 48
	mov	r4, r0
.Ltmp321:
	@DEBUG_VALUE: AT_Resp_ErrCode:err_code <- $r4
	add	r0, sp, #4
	movs	r1, #32
.Ltmp322:
	.loc	5 1342 9 prologue_end           @ C:/Users/shw26/AppData/Local/Arm/Packs/ARM/CMSIS-Driver/2.6.1/WiFi/ESP8266/ESP8266.c:1342:9
	bl	GetRespArg
.Ltmp323:
	@DEBUG_VALUE: AT_Resp_ErrCode:val <- $r0
	.loc	5 1344 7                        @ C:/Users/shw26/AppData/Local/Arm/Packs/ARM/CMSIS-Driver/2.6.1/WiFi/ESP8266/ESP8266.c:1344:7
	cmp	r0, #2
	blt	.LBB16_2
.Ltmp324:
@ %bb.1:
	@DEBUG_VALUE: AT_Resp_ErrCode:err_code <- $r4
	@DEBUG_VALUE: AT_Resp_ErrCode:val <- $r0
	.loc	5 0 7 is_stmt 0                 @ C:/Users/shw26/AppData/Local/Arm/Packs/ARM/CMSIS-Driver/2.6.1/WiFi/ESP8266/ESP8266.c:0:7
	add	r0, sp, #4
.Ltmp325:
	.loc	5 1345 7 is_stmt 1              @ C:/Users/shw26/AppData/Local/Arm/Packs/ARM/CMSIS-Driver/2.6.1/WiFi/ESP8266/ESP8266.c:1345:7
	str	r0, [sp, #36]
.Ltmp326:
	@DEBUG_VALUE: AT_Resp_ErrCode:p <- [DW_OP_plus_uconst 36, DW_OP_deref] $sp
	.loc	5 0 7 is_stmt 0                 @ C:/Users/shw26/AppData/Local/Arm/Packs/ARM/CMSIS-Driver/2.6.1/WiFi/ESP8266/ESP8266.c:0:7
	add	r1, sp, #36
	movs	r2, #16
	.loc	5 1348 12 is_stmt 1             @ C:/Users/shw26/AppData/Local/Arm/Packs/ARM/CMSIS-Driver/2.6.1/WiFi/ESP8266/ESP8266.c:1348:12
	bl	strtoul
.Ltmp327:
	@DEBUG_VALUE: AT_Resp_ErrCode:uval <- $r0
	.loc	5 1350 15                       @ C:/Users/shw26/AppData/Local/Arm/Packs/ARM/CMSIS-Driver/2.6.1/WiFi/ESP8266/ESP8266.c:1350:15
	str	r0, [r4]
	movs	r0, #0
.Ltmp328:
	@DEBUG_VALUE: AT_Resp_ErrCode:val <- 0
.LBB16_2:
	@DEBUG_VALUE: AT_Resp_ErrCode:err_code <- $r4
	@DEBUG_VALUE: AT_Resp_ErrCode:val <- $r0
	.loc	5 1355 3                        @ C:/Users/shw26/AppData/Local/Arm/Packs/ARM/CMSIS-Driver/2.6.1/WiFi/ESP8266/ESP8266.c:1355:3
	add	sp, #40
	pop	{r4, pc}
.Ltmp329:
.Lfunc_end16:
	.size	AT_Resp_ErrCode, .Lfunc_end16-AT_Resp_ErrCode
	.cfi_endproc
	.cantunwind
	.fnend
                                        @ -- End function
	.section	.text.AT_Resp_Generic,"ax",%progbits
	.hidden	AT_Resp_Generic                 @ -- Begin function AT_Resp_Generic
	.globl	AT_Resp_Generic
	.p2align	2
	.type	AT_Resp_Generic,%function
	.code	16                              @ @AT_Resp_Generic
	.thumb_func
AT_Resp_Generic:
.Lfunc_begin17:
	.loc	5 1367 0                        @ C:/Users/shw26/AppData/Local/Arm/Packs/ARM/CMSIS-Driver/2.6.1/WiFi/ESP8266/ESP8266.c:1367:0
	.fnstart
	.cfi_startproc
@ %bb.0:
	movs	r0, #42
.Ltmp330:
	.loc	5 1370 16 prologue_end          @ C:/Users/shw26/AppData/Local/Arm/Packs/ARM/CMSIS-Driver/2.6.1/WiFi/ESP8266/ESP8266.c:1370:16
	ldr	r1, __arm_cp.17_0
	ldrb	r0, [r1, r0]
	.loc	5 1370 3 is_stmt 0              @ C:/Users/shw26/AppData/Local/Arm/Packs/ARM/CMSIS-Driver/2.6.1/WiFi/ESP8266/ESP8266.c:1370:3
	bx	lr
.Ltmp331:
	.p2align	2
@ %bb.1:
	.loc	5 0 3                           @ C:/Users/shw26/AppData/Local/Arm/Packs/ARM/CMSIS-Driver/2.6.1/WiFi/ESP8266/ESP8266.c:0:3
__arm_cp.17_0:
	.long	AT_Cb
.Lcpi_end12:
	.size	__arm_cp.17_0, .Lcpi_end12-__arm_cp.17_0
.Lfunc_end17:
	.size	AT_Resp_Generic, .Lfunc_end17-AT_Resp_Generic
	.cfi_endproc
	.cantunwind
	.fnend
                                        @ -- End function
	.section	.text.AT_Cmd_TestAT,"ax",%progbits
	.hidden	AT_Cmd_TestAT                   @ -- Begin function AT_Cmd_TestAT
	.globl	AT_Cmd_TestAT
	.p2align	2
	.type	AT_Cmd_TestAT,%function
	.code	16                              @ @AT_Cmd_TestAT
	.thumb_func
AT_Cmd_TestAT:
.Lfunc_begin18:
	.loc	5 1381 0 is_stmt 1              @ C:/Users/shw26/AppData/Local/Arm/Packs/ARM/CMSIS-Driver/2.6.1/WiFi/ESP8266/ESP8266.c:1381:0
	.fnstart
	.cfi_startproc
@ %bb.0:
	.save	{r7, lr}
	push	{r7, lr}
	.cfi_def_cfa_offset 8
	.cfi_offset lr, -4
	.cfi_offset r7, -8
	.pad	#8
	sub	sp, #8
	.cfi_def_cfa_offset 16
	mov	r1, sp
	movs	r0, #0
.Ltmp332:
	.loc	5 1386 7 prologue_end           @ C:/Users/shw26/AppData/Local/Arm/Packs/ARM/CMSIS-Driver/2.6.1/WiFi/ESP8266/ESP8266.c:1386:7
	strb	r0, [r1, #2]
	ldr	r0, __arm_cp.18_0
	strh	r0, [r1]
.Ltmp333:
	@DEBUG_VALUE: AT_Cmd_TestAT:n <- 2
	.loc	5 0 7 is_stmt 0                 @ C:/Users/shw26/AppData/Local/Arm/Packs/ARM/CMSIS-Driver/2.6.1/WiFi/ESP8266/ESP8266.c:0:7
	movs	r0, #16
	movs	r2, #2
	.loc	5 1389 11 is_stmt 1             @ C:/Users/shw26/AppData/Local/Arm/Packs/ARM/CMSIS-Driver/2.6.1/WiFi/ESP8266/ESP8266.c:1389:11
	bl	CmdSend
	.loc	5 1389 3 is_stmt 0              @ C:/Users/shw26/AppData/Local/Arm/Packs/ARM/CMSIS-Driver/2.6.1/WiFi/ESP8266/ESP8266.c:1389:3
	add	sp, #8
	pop	{r7, pc}
.Ltmp334:
	.p2align	2
@ %bb.1:
	.loc	5 0 3                           @ C:/Users/shw26/AppData/Local/Arm/Packs/ARM/CMSIS-Driver/2.6.1/WiFi/ESP8266/ESP8266.c:0:3
__arm_cp.18_0:
	.long	21569                           @ 0x5441
.Lcpi_end13:
	.size	__arm_cp.18_0, .Lcpi_end13-__arm_cp.18_0
.Lfunc_end18:
	.size	AT_Cmd_TestAT, .Lfunc_end18-AT_Cmd_TestAT
	.cfi_endproc
	.cantunwind
	.fnend
                                        @ -- End function
	.section	.text.CmdSend,"ax",%progbits
	.p2align	1                               @ -- Begin function CmdSend
	.type	CmdSend,%function
	.code	16                              @ @CmdSend
	.thumb_func
CmdSend:
.Lfunc_begin19:
	.loc	5 3642 0 is_stmt 1              @ C:/Users/shw26/AppData/Local/Arm/Packs/ARM/CMSIS-Driver/2.6.1/WiFi/ESP8266/ESP8266.c:3642:0
	.fnstart
	.cfi_startproc
@ %bb.0:
	@DEBUG_VALUE: CmdSend:cmd <- $r0
	@DEBUG_VALUE: CmdSend:buf <- $r1
	@DEBUG_VALUE: CmdSend:num <- $r2
	.save	{r4, r5, r6, lr}
	push	{r4, r5, r6, lr}
	.cfi_def_cfa_offset 16
	.cfi_offset lr, -4
	.cfi_offset r6, -8
	.cfi_offset r5, -12
	.cfi_offset r4, -16
	mov	r5, r2
	mov	r6, r1
.Ltmp335:
	@DEBUG_VALUE: CmdSend:rval <- -1
	@DEBUG_VALUE: CmdSend:num <- $r5
	@DEBUG_VALUE: CmdSend:buf <- $r6
	@DEBUG_VALUE: CmdSend:cmd <- $r0
	@DEBUG_VALUE: CmdSend:cmd <- $r0
	.loc	5 3649 7 prologue_end           @ C:/Users/shw26/AppData/Local/Arm/Packs/ARM/CMSIS-Driver/2.6.1/WiFi/ESP8266/ESP8266.c:3649:7
	bl	CmdSetWFE
.Ltmp336:
	@DEBUG_VALUE: CmdSend:cmd <- [DW_OP_LLVM_entry_value 1] $r0
	.loc	5 0 7 is_stmt 0                 @ C:/Users/shw26/AppData/Local/Arm/Packs/ARM/CMSIS-Driver/2.6.1/WiFi/ESP8266/ESP8266.c:0:7
	movs	r0, #13
.Ltmp337:
	.loc	5 3651 12 is_stmt 1             @ C:/Users/shw26/AppData/Local/Arm/Packs/ARM/CMSIS-Driver/2.6.1/WiFi/ESP8266/ESP8266.c:3651:12
	strb	r0, [r6, r5]
	.loc	5 3651 22 is_stmt 0             @ C:/Users/shw26/AppData/Local/Arm/Packs/ARM/CMSIS-Driver/2.6.1/WiFi/ESP8266/ESP8266.c:3651:22
	adds	r0, r6, r5
	movs	r4, #0
	.loc	5 3651 12                       @ C:/Users/shw26/AppData/Local/Arm/Packs/ARM/CMSIS-Driver/2.6.1/WiFi/ESP8266/ESP8266.c:3651:12
	strb	r4, [r0, #2]
	movs	r1, #10
	strb	r1, [r0, #1]
.Ltmp338:
	@DEBUG_VALUE: CmdSend:Ctrl_CRLF <- undef
	.loc	5 3651 9                        @ C:/Users/shw26/AppData/Local/Arm/Packs/ARM/CMSIS-Driver/2.6.1/WiFi/ESP8266/ESP8266.c:3651:9
	adds	r5, r5, #2
.Ltmp339:
	@DEBUG_VALUE: CmdSend:num <- $r5
	.loc	5 3654 12 is_stmt 1             @ C:/Users/shw26/AppData/Local/Arm/Packs/ARM/CMSIS-Driver/2.6.1/WiFi/ESP8266/ESP8266.c:3654:12
	mov	r0, r6
	mov	r1, r5
	bl	Serial_SendBuf
.Ltmp340:
	@DEBUG_VALUE: CmdSend:sent <- $r0
	.loc	5 3656 9                        @ C:/Users/shw26/AppData/Local/Arm/Packs/ARM/CMSIS-Driver/2.6.1/WiFi/ESP8266/ESP8266.c:3656:9
	cmp	r0, r5
	beq	.LBB19_2
.Ltmp341:
@ %bb.1:
	@DEBUG_VALUE: CmdSend:buf <- $r6
	@DEBUG_VALUE: CmdSend:num <- $r5
	@DEBUG_VALUE: CmdSend:sent <- $r0
	@DEBUG_VALUE: CmdSend:cmd <- [DW_OP_LLVM_entry_value 1] $r0
	@DEBUG_VALUE: CmdSend:rval <- -1
	.loc	5 0 9 is_stmt 0                 @ C:/Users/shw26/AppData/Local/Arm/Packs/ARM/CMSIS-Driver/2.6.1/WiFi/ESP8266/ESP8266.c:0:9
	mvns	r4, r4
.Ltmp342:
.LBB19_2:
	@DEBUG_VALUE: CmdSend:buf <- $r6
	@DEBUG_VALUE: CmdSend:num <- $r5
	@DEBUG_VALUE: CmdSend:sent <- $r0
	@DEBUG_VALUE: CmdSend:cmd <- [DW_OP_LLVM_entry_value 1] $r0
	@DEBUG_VALUE: CmdSend:rval <- -1
	@DEBUG_VALUE: CmdSend:rval <- $r4
	.loc	5 3661 3 is_stmt 1              @ C:/Users/shw26/AppData/Local/Arm/Packs/ARM/CMSIS-Driver/2.6.1/WiFi/ESP8266/ESP8266.c:3661:3
	mov	r0, r4
.Ltmp343:
	pop	{r4, r5, r6, pc}
.Ltmp344:
.Lfunc_end19:
	.size	CmdSend, .Lfunc_end19-CmdSend
	.cfi_endproc
	.cantunwind
	.fnend
                                        @ -- End function
	.section	.text.AT_Cmd_Reset,"ax",%progbits
	.hidden	AT_Cmd_Reset                    @ -- Begin function AT_Cmd_Reset
	.globl	AT_Cmd_Reset
	.p2align	1
	.type	AT_Cmd_Reset,%function
	.code	16                              @ @AT_Cmd_Reset
	.thumb_func
AT_Cmd_Reset:
.Lfunc_begin20:
	.loc	5 1401 0                        @ C:/Users/shw26/AppData/Local/Arm/Packs/ARM/CMSIS-Driver/2.6.1/WiFi/ESP8266/ESP8266.c:1401:0
	.fnstart
	.cfi_startproc
@ %bb.0:
	.save	{r4, r5, r7, lr}
	push	{r4, r5, r7, lr}
	.cfi_def_cfa_offset 16
	.cfi_offset lr, -4
	.cfi_offset r7, -8
	.cfi_offset r5, -12
	.cfi_offset r4, -16
	.pad	#16
	sub	sp, #16
	.cfi_def_cfa_offset 32
	movs	r4, #27
	movs	r1, #2
	mov	r5, sp
.Ltmp345:
	.loc	5 1406 7 prologue_end           @ C:/Users/shw26/AppData/Local/Arm/Packs/ARM/CMSIS-Driver/2.6.1/WiFi/ESP8266/ESP8266.c:1406:7
	mov	r0, r4
	mov	r2, r5
	bl	CmdOpen
	mov	r2, r0
.Ltmp346:
	@DEBUG_VALUE: AT_Cmd_Reset:n <- $r2
	.loc	5 1409 11                       @ C:/Users/shw26/AppData/Local/Arm/Packs/ARM/CMSIS-Driver/2.6.1/WiFi/ESP8266/ESP8266.c:1409:11
	mov	r0, r4
	mov	r1, r5
	bl	CmdSend
.Ltmp347:
	.loc	5 1409 3 is_stmt 0              @ C:/Users/shw26/AppData/Local/Arm/Packs/ARM/CMSIS-Driver/2.6.1/WiFi/ESP8266/ESP8266.c:1409:3
	add	sp, #16
	pop	{r4, r5, r7, pc}
.Ltmp348:
.Lfunc_end20:
	.size	AT_Cmd_Reset, .Lfunc_end20-AT_Cmd_Reset
	.cfi_endproc
	.cantunwind
	.fnend
                                        @ -- End function
	.section	.text.CmdOpen,"ax",%progbits
	.p2align	2                               @ -- Begin function CmdOpen
	.type	CmdOpen,%function
	.code	16                              @ @CmdOpen
	.thumb_func
CmdOpen:
.Lfunc_begin21:
	.loc	5 3603 0 is_stmt 1              @ C:/Users/shw26/AppData/Local/Arm/Packs/ARM/CMSIS-Driver/2.6.1/WiFi/ESP8266/ESP8266.c:3603:0
	.fnstart
	.cfi_startproc
@ %bb.0:
	@DEBUG_VALUE: CmdOpen:cmd_code <- $r0
	@DEBUG_VALUE: CmdOpen:cmd_mode <- $r1
	@DEBUG_VALUE: CmdOpen:buf <- $r2
	.save	{r4, r5, r6, lr}
	push	{r4, r5, r6, lr}
	.cfi_def_cfa_offset 16
	.cfi_offset lr, -4
	.cfi_offset r6, -8
	.cfi_offset r5, -12
	.cfi_offset r4, -16
	.pad	#8
	sub	sp, #8
	.cfi_def_cfa_offset 24
	mov	r4, r2
	mov	r5, r1
.Ltmp349:
	@DEBUG_VALUE: CmdOpen:cmd <- undef
	@DEBUG_VALUE: CmdOpen:buf <- $r4
	@DEBUG_VALUE: CmdOpen:cmd_mode <- $r5
	@DEBUG_VALUE: CmdOpen:cmd_code <- $r0
	@DEBUG_VALUE: CmdOpen:at <- undef
	@DEBUG_VALUE: CmdOpen:Ctrl_AT <- undef
	.loc	5 3613 7 prologue_end           @ C:/Users/shw26/AppData/Local/Arm/Packs/ARM/CMSIS-Driver/2.6.1/WiFi/ESP8266/ESP8266.c:3613:7
	cbz	r1, .LBB21_3
.Ltmp350:
@ %bb.1:
	@DEBUG_VALUE: CmdOpen:cmd_mode <- $r5
	@DEBUG_VALUE: CmdOpen:buf <- $r4
	@DEBUG_VALUE: CmdOpen:cmd_code <- $r0
	cmp	r5, #1
	bne	.LBB21_4
.Ltmp351:
@ %bb.2:
	@DEBUG_VALUE: CmdOpen:cmd_mode <- $r5
	@DEBUG_VALUE: CmdOpen:buf <- $r4
	@DEBUG_VALUE: CmdOpen:cmd_code <- $r0
	@DEBUG_VALUE: CmdOpen:chm <- 61
	.loc	5 0 7 is_stmt 0                 @ C:/Users/shw26/AppData/Local/Arm/Packs/ARM/CMSIS-Driver/2.6.1/WiFi/ESP8266/ESP8266.c:0:7
	movs	r6, #61
	movs	r5, #0
.Ltmp352:
	.loc	5 3618 3 is_stmt 1              @ C:/Users/shw26/AppData/Local/Arm/Packs/ARM/CMSIS-Driver/2.6.1/WiFi/ESP8266/ESP8266.c:3618:3
	b	.LBB21_5
.Ltmp353:
.LBB21_3:
	@DEBUG_VALUE: CmdOpen:cmd_mode <- $r5
	@DEBUG_VALUE: CmdOpen:buf <- $r4
	@DEBUG_VALUE: CmdOpen:cmd_code <- $r0
	.loc	5 0 3 is_stmt 0                 @ C:/Users/shw26/AppData/Local/Arm/Packs/ARM/CMSIS-Driver/2.6.1/WiFi/ESP8266/ESP8266.c:0:3
	movs	r6, #63
	b	.LBB21_5
.Ltmp354:
.LBB21_4:
	@DEBUG_VALUE: CmdOpen:cmd_mode <- $r5
	@DEBUG_VALUE: CmdOpen:buf <- $r4
	@DEBUG_VALUE: CmdOpen:cmd_code <- $r0
	movs	r6, #0
	mvns	r5, r6
.Ltmp355:
	@DEBUG_VALUE: CmdOpen:chm <- 0
.LBB21_5:
	@DEBUG_VALUE: CmdOpen:buf <- $r4
	@DEBUG_VALUE: CmdOpen:cmd_code <- $r0
	.loc	5 3611 9 is_stmt 1              @ C:/Users/shw26/AppData/Local/Arm/Packs/ARM/CMSIS-Driver/2.6.1/WiFi/ESP8266/ESP8266.c:3611:9
	bl	CmdString
.Ltmp356:
	@DEBUG_VALUE: CmdOpen:cmd_code <- [DW_OP_LLVM_entry_value 1] $r0
	mov	r3, r0
.Ltmp357:
	@DEBUG_VALUE: CmdOpen:chm <- undef
	@DEBUG_VALUE: CmdOpen:cmd <- $r3
	.loc	5 3623 7                        @ C:/Users/shw26/AppData/Local/Arm/Packs/ARM/CMSIS-Driver/2.6.1/WiFi/ESP8266/ESP8266.c:3623:7
	str	r6, [sp]
	adr	r1, .LCPI21_0
	adr	r2, .LCPI21_1
	mov	r0, r4
	bl	__2sprintf
.Ltmp358:
	@DEBUG_VALUE: CmdOpen:n <- $r0
	.loc	5 3625 7                        @ C:/Users/shw26/AppData/Local/Arm/Packs/ARM/CMSIS-Driver/2.6.1/WiFi/ESP8266/ESP8266.c:3625:7
	adds	r0, r0, r5
.Ltmp359:
	@DEBUG_VALUE: CmdOpen:n <- $r0
	.loc	5 3629 3                        @ C:/Users/shw26/AppData/Local/Arm/Packs/ARM/CMSIS-Driver/2.6.1/WiFi/ESP8266/ESP8266.c:3629:3
	add	sp, #8
	pop	{r4, r5, r6, pc}
.Ltmp360:
	.p2align	2
@ %bb.6:
	.loc	5 0 3 is_stmt 0                 @ C:/Users/shw26/AppData/Local/Arm/Packs/ARM/CMSIS-Driver/2.6.1/WiFi/ESP8266/ESP8266.c:0:3
.LCPI21_0:
.L.str.77:
	.asciz	"%s%s%c\000"
.LCPI21_1:
.L.str.76:
	.asciz	"AT+"
.Lfunc_end21:
	.size	CmdOpen, .Lfunc_end21-CmdOpen
	.cfi_endproc
	.cantunwind
	.fnend
                                        @ -- End function
	.section	.text.AT_Cmd_GetVersion,"ax",%progbits
	.hidden	AT_Cmd_GetVersion               @ -- Begin function AT_Cmd_GetVersion
	.globl	AT_Cmd_GetVersion
	.p2align	1
	.type	AT_Cmd_GetVersion,%function
	.code	16                              @ @AT_Cmd_GetVersion
	.thumb_func
AT_Cmd_GetVersion:
.Lfunc_begin22:
	.loc	5 1421 0 is_stmt 1              @ C:/Users/shw26/AppData/Local/Arm/Packs/ARM/CMSIS-Driver/2.6.1/WiFi/ESP8266/ESP8266.c:1421:0
	.fnstart
	.cfi_startproc
@ %bb.0:
	.save	{r4, r5, r7, lr}
	push	{r4, r5, r7, lr}
	.cfi_def_cfa_offset 16
	.cfi_offset lr, -4
	.cfi_offset r7, -8
	.cfi_offset r5, -12
	.cfi_offset r4, -16
	.pad	#16
	sub	sp, #16
	.cfi_def_cfa_offset 32
	movs	r4, #28
	movs	r1, #2
	mov	r5, sp
.Ltmp361:
	.loc	5 1426 7 prologue_end           @ C:/Users/shw26/AppData/Local/Arm/Packs/ARM/CMSIS-Driver/2.6.1/WiFi/ESP8266/ESP8266.c:1426:7
	mov	r0, r4
	mov	r2, r5
	bl	CmdOpen
	mov	r2, r0
.Ltmp362:
	@DEBUG_VALUE: AT_Cmd_GetVersion:n <- $r2
	.loc	5 1429 11                       @ C:/Users/shw26/AppData/Local/Arm/Packs/ARM/CMSIS-Driver/2.6.1/WiFi/ESP8266/ESP8266.c:1429:11
	mov	r0, r4
	mov	r1, r5
	bl	CmdSend
.Ltmp363:
	.loc	5 1429 3 is_stmt 0              @ C:/Users/shw26/AppData/Local/Arm/Packs/ARM/CMSIS-Driver/2.6.1/WiFi/ESP8266/ESP8266.c:1429:3
	add	sp, #16
	pop	{r4, r5, r7, pc}
.Ltmp364:
.Lfunc_end22:
	.size	AT_Cmd_GetVersion, .Lfunc_end22-AT_Cmd_GetVersion
	.cfi_endproc
	.cantunwind
	.fnend
                                        @ -- End function
	.section	.text.AT_Resp_GetVersion,"ax",%progbits
	.hidden	AT_Resp_GetVersion              @ -- Begin function AT_Resp_GetVersion
	.globl	AT_Resp_GetVersion
	.p2align	2
	.type	AT_Resp_GetVersion,%function
	.code	16                              @ @AT_Resp_GetVersion
	.thumb_func
AT_Resp_GetVersion:
.Lfunc_begin23:
	.loc	5 1438 0 is_stmt 1              @ C:/Users/shw26/AppData/Local/Arm/Packs/ARM/CMSIS-Driver/2.6.1/WiFi/ESP8266/ESP8266.c:1438:0
	.fnstart
	.cfi_startproc
@ %bb.0:
	@DEBUG_VALUE: AT_Resp_GetVersion:buf <- $r0
	@DEBUG_VALUE: AT_Resp_GetVersion:len <- $r1
	.save	{r4, r5, r6, r7, lr}
	push	{r4, r5, r6, r7, lr}
	.cfi_def_cfa_offset 20
	.cfi_offset lr, -4
	.cfi_offset r7, -8
	.cfi_offset r6, -12
	.cfi_offset r5, -16
	.cfi_offset r4, -20
	.pad	#12
	sub	sp, #12
	.cfi_def_cfa_offset 32
	mov	r5, r1
	str	r0, [sp, #4]                    @ 4-byte Spill
	add	r0, sp, #8
.Ltmp365:
	@DEBUG_VALUE: AT_Resp_GetVersion:buf <- [DW_OP_LLVM_entry_value 1] $r0
	ldr	r1, __arm_cp.23_0
.Ltmp366:
	@DEBUG_VALUE: AT_Resp_GetVersion:len <- [DW_OP_LLVM_entry_value 1] $r1
	@DEBUG_VALUE: AT_Resp_GetVersion:crlf <- 2573
	@DEBUG_VALUE: AT_Resp_GetVersion:len <- $r5
	@DEBUG_VALUE: AT_Resp_GetVersion:buf <- [DW_OP_plus_uconst 4] [$sp+0]
	.loc	5 1439 11 prologue_end          @ C:/Users/shw26/AppData/Local/Arm/Packs/ARM/CMSIS-Driver/2.6.1/WiFi/ESP8266/ESP8266.c:1439:11
	strh	r1, [r0]
.Ltmp367:
	@DEBUG_VALUE: AT_Resp_GetVersion:val <- 0
	@DEBUG_VALUE: AT_Resp_GetVersion:cnt <- $r5
	.loc	5 0 11 is_stmt 0                @ C:/Users/shw26/AppData/Local/Arm/Packs/ARM/CMSIS-Driver/2.6.1/WiFi/ESP8266/ESP8266.c:0:11
	movs	r4, #0
	.loc	5 1447 3 is_stmt 1              @ C:/Users/shw26/AppData/Local/Arm/Packs/ARM/CMSIS-Driver/2.6.1/WiFi/ESP8266/ESP8266.c:1447:3
	cmp	r5, #1
	blt	.LBB23_6
.Ltmp368:
@ %bb.1:
	@DEBUG_VALUE: AT_Resp_GetVersion:cnt <- $r5
	@DEBUG_VALUE: AT_Resp_GetVersion:len <- $r5
	@DEBUG_VALUE: AT_Resp_GetVersion:buf <- [DW_OP_plus_uconst 4] [$sp+0]
	@DEBUG_VALUE: AT_Resp_GetVersion:val <- 0
	@DEBUG_VALUE: AT_Resp_GetVersion:crlf <- 2573
	.loc	5 0 3 is_stmt 0                 @ C:/Users/shw26/AppData/Local/Arm/Packs/ARM/CMSIS-Driver/2.6.1/WiFi/ESP8266/ESP8266.c:0:3
	ldr	r7, __arm_cp.23_1
	adds	r7, #20
	movs	r6, #2
	b	.LBB23_3
.Ltmp369:
.LBB23_2:                               @   in Loop: Header=BB23_3 Depth=1
	@DEBUG_VALUE: AT_Resp_GetVersion:cnt <- $r5
	@DEBUG_VALUE: AT_Resp_GetVersion:len <- $r5
	@DEBUG_VALUE: AT_Resp_GetVersion:val <- $r4
	@DEBUG_VALUE: AT_Resp_GetVersion:crlf <- [DW_OP_plus_uconst 8, DW_OP_deref] $sp
	@DEBUG_VALUE: AT_Resp_GetVersion:buf <- [DW_OP_plus_uconst 4] [$sp+0]
	@DEBUG_VALUE: AT_Resp_GetVersion:n <- $r1
	.loc	5 1462 21 is_stmt 1             @ C:/Users/shw26/AppData/Local/Arm/Packs/ARM/CMSIS-Driver/2.6.1/WiFi/ESP8266/ESP8266.c:1462:21
	ldr	r0, [sp, #4]                    @ 4-byte Reload
	adds	r0, r0, r4
	.loc	5 1462 12 is_stmt 0             @ C:/Users/shw26/AppData/Local/Arm/Packs/ARM/CMSIS-Driver/2.6.1/WiFi/ESP8266/ESP8266.c:1462:12
	mov	r2, r7
	bl	BufRead
.Ltmp370:
	.loc	5 1462 9                        @ C:/Users/shw26/AppData/Local/Arm/Packs/ARM/CMSIS-Driver/2.6.1/WiFi/ESP8266/ESP8266.c:1462:9
	adds	r4, r0, r4
.Ltmp371:
	@DEBUG_VALUE: AT_Resp_GetVersion:val <- $r4
	.loc	5 1447 3 is_stmt 1              @ C:/Users/shw26/AppData/Local/Arm/Packs/ARM/CMSIS-Driver/2.6.1/WiFi/ESP8266/ESP8266.c:1447:3
	cmp	r4, r5
	bge	.LBB23_6
.Ltmp372:
.LBB23_3:                               @ =>This Inner Loop Header: Depth=1
	@DEBUG_VALUE: AT_Resp_GetVersion:cnt <- $r5
	@DEBUG_VALUE: AT_Resp_GetVersion:len <- $r5
	@DEBUG_VALUE: AT_Resp_GetVersion:buf <- [DW_OP_plus_uconst 4] [$sp+0]
	@DEBUG_VALUE: AT_Resp_GetVersion:crlf <- [DW_OP_plus_uconst 8, DW_OP_deref] $sp
	@DEBUG_VALUE: AT_Resp_GetVersion:val <- $r4
	.loc	5 0 3 is_stmt 0                 @ C:/Users/shw26/AppData/Local/Arm/Packs/ARM/CMSIS-Driver/2.6.1/WiFi/ESP8266/ESP8266.c:0:3
	add	r0, sp, #8
.Ltmp373:
	.loc	5 1449 9 is_stmt 1              @ C:/Users/shw26/AppData/Local/Arm/Packs/ARM/CMSIS-Driver/2.6.1/WiFi/ESP8266/ESP8266.c:1449:9
	mov	r1, r6
	mov	r2, r7
	bl	BufFind
.Ltmp374:
	@DEBUG_VALUE: AT_Resp_GetVersion:n <- $r0
	.loc	5 1451 9                        @ C:/Users/shw26/AppData/Local/Arm/Packs/ARM/CMSIS-Driver/2.6.1/WiFi/ESP8266/ESP8266.c:1451:9
	cmp	r0, #0
	bmi	.LBB23_6
.Ltmp375:
@ %bb.4:                                @   in Loop: Header=BB23_3 Depth=1
	@DEBUG_VALUE: AT_Resp_GetVersion:cnt <- $r5
	@DEBUG_VALUE: AT_Resp_GetVersion:len <- $r5
	@DEBUG_VALUE: AT_Resp_GetVersion:val <- $r4
	@DEBUG_VALUE: AT_Resp_GetVersion:n <- $r0
	@DEBUG_VALUE: AT_Resp_GetVersion:crlf <- [DW_OP_plus_uconst 8, DW_OP_deref] $sp
	@DEBUG_VALUE: AT_Resp_GetVersion:buf <- [DW_OP_plus_uconst 4] [$sp+0]
	.loc	5 1456 7                        @ C:/Users/shw26/AppData/Local/Arm/Packs/ARM/CMSIS-Driver/2.6.1/WiFi/ESP8266/ESP8266.c:1456:7
	adds	r1, r0, #2
.Ltmp376:
	@DEBUG_VALUE: AT_Resp_GetVersion:n <- $r1
	.loc	5 1459 14                       @ C:/Users/shw26/AppData/Local/Arm/Packs/ARM/CMSIS-Driver/2.6.1/WiFi/ESP8266/ESP8266.c:1459:14
	adds	r0, r1, r4
.Ltmp377:
	.loc	5 1459 9 is_stmt 0              @ C:/Users/shw26/AppData/Local/Arm/Packs/ARM/CMSIS-Driver/2.6.1/WiFi/ESP8266/ESP8266.c:1459:9
	cmp	r0, r5
	ble	.LBB23_2
.Ltmp378:
@ %bb.5:                                @   in Loop: Header=BB23_3 Depth=1
	@DEBUG_VALUE: AT_Resp_GetVersion:cnt <- $r5
	@DEBUG_VALUE: AT_Resp_GetVersion:len <- $r5
	@DEBUG_VALUE: AT_Resp_GetVersion:val <- $r4
	@DEBUG_VALUE: AT_Resp_GetVersion:n <- $r1
	@DEBUG_VALUE: AT_Resp_GetVersion:crlf <- [DW_OP_plus_uconst 8, DW_OP_deref] $sp
	@DEBUG_VALUE: AT_Resp_GetVersion:buf <- [DW_OP_plus_uconst 4] [$sp+0]
	.loc	5 0 9                           @ C:/Users/shw26/AppData/Local/Arm/Packs/ARM/CMSIS-Driver/2.6.1/WiFi/ESP8266/ESP8266.c:0:9
	subs	r1, r5, r4
.Ltmp379:
	b	.LBB23_2
.Ltmp380:
.LBB23_6:
	@DEBUG_VALUE: AT_Resp_GetVersion:cnt <- $r5
	@DEBUG_VALUE: AT_Resp_GetVersion:len <- $r5
	@DEBUG_VALUE: AT_Resp_GetVersion:buf <- [DW_OP_plus_uconst 4] [$sp+0]
	@DEBUG_VALUE: AT_Resp_GetVersion:val <- $r4
	ldr	r5, __arm_cp.23_1
.Ltmp381:
	adds	r5, #20
.Ltmp382:
.LBB23_7:                               @ =>This Inner Loop Header: Depth=1
	@DEBUG_VALUE: AT_Resp_GetVersion:val <- $r4
	@DEBUG_VALUE: AT_Resp_GetVersion:buf <- [DW_OP_plus_uconst 4] [$sp+0]
	.loc	5 1467 9 is_stmt 1              @ C:/Users/shw26/AppData/Local/Arm/Packs/ARM/CMSIS-Driver/2.6.1/WiFi/ESP8266/ESP8266.c:1467:9
	mov	r0, r5
	bl	BufReadByte
.Ltmp383:
	@DEBUG_VALUE: AT_Resp_GetVersion:n <- $r0
	.loc	5 1468 3                        @ C:/Users/shw26/AppData/Local/Arm/Packs/ARM/CMSIS-Driver/2.6.1/WiFi/ESP8266/ESP8266.c:1468:3
	adds	r0, r0, #1
.Ltmp384:
	bne	.LBB23_7
.Ltmp385:
@ %bb.8:
	@DEBUG_VALUE: AT_Resp_GetVersion:val <- $r4
	@DEBUG_VALUE: AT_Resp_GetVersion:buf <- [DW_OP_plus_uconst 4] [$sp+0]
	.loc	5 1471 3                        @ C:/Users/shw26/AppData/Local/Arm/Packs/ARM/CMSIS-Driver/2.6.1/WiFi/ESP8266/ESP8266.c:1471:3
	mov	r0, r4
	add	sp, #12
.Ltmp386:
	pop	{r4, r5, r6, r7, pc}
.Ltmp387:
	.p2align	2
@ %bb.9:
	.loc	5 0 3 is_stmt 0                 @ C:/Users/shw26/AppData/Local/Arm/Packs/ARM/CMSIS-Driver/2.6.1/WiFi/ESP8266/ESP8266.c:0:3
__arm_cp.23_0:
	.long	2573                            @ 0xa0d
.Lcpi_end14:
	.size	__arm_cp.23_0, .Lcpi_end14-__arm_cp.23_0
__arm_cp.23_1:
	.long	AT_Cb
.Lcpi_end15:
	.size	__arm_cp.23_1, .Lcpi_end15-__arm_cp.23_1
.Lfunc_end23:
	.size	AT_Resp_GetVersion, .Lfunc_end23-AT_Resp_GetVersion
	.cfi_endproc
	.cantunwind
	.fnend
                                        @ -- End function
	.section	.text.AT_Cmd_Echo,"ax",%progbits
	.hidden	AT_Cmd_Echo                     @ -- Begin function AT_Cmd_Echo
	.globl	AT_Cmd_Echo
	.p2align	2
	.type	AT_Cmd_Echo,%function
	.code	16                              @ @AT_Cmd_Echo
	.thumb_func
AT_Cmd_Echo:
.Lfunc_begin24:
	.loc	5 1484 0 is_stmt 1              @ C:/Users/shw26/AppData/Local/Arm/Packs/ARM/CMSIS-Driver/2.6.1/WiFi/ESP8266/ESP8266.c:1484:0
	.fnstart
	.cfi_startproc
@ %bb.0:
	@DEBUG_VALUE: AT_Cmd_Echo:enable <- $r0
	.save	{r4, lr}
	push	{r4, lr}
	.cfi_def_cfa_offset 8
	.cfi_offset lr, -4
	.cfi_offset r4, -8
	.pad	#8
	sub	sp, #8
	.cfi_def_cfa_offset 16
	mov	r3, r0
.Ltmp388:
	@DEBUG_VALUE: AT_Cmd_Echo:enable <- $r3
	mov	r4, sp
.Ltmp389:
	.loc	5 1489 7 prologue_end           @ C:/Users/shw26/AppData/Local/Arm/Packs/ARM/CMSIS-Driver/2.6.1/WiFi/ESP8266/ESP8266.c:1489:7
	adr	r1, .LCPI24_0
	adr	r2, .LCPI24_1
	mov	r0, r4
	@DEBUG_VALUE: AT_Cmd_Echo:enable <- $r3
	bl	__2sprintf
.Ltmp390:
	mov	r2, r0
.Ltmp391:
	@DEBUG_VALUE: AT_Cmd_Echo:n <- $r2
	.loc	5 0 7 is_stmt 0                 @ C:/Users/shw26/AppData/Local/Arm/Packs/ARM/CMSIS-Driver/2.6.1/WiFi/ESP8266/ESP8266.c:0:7
	movs	r0, #16
	.loc	5 1492 11 is_stmt 1             @ C:/Users/shw26/AppData/Local/Arm/Packs/ARM/CMSIS-Driver/2.6.1/WiFi/ESP8266/ESP8266.c:1492:11
	mov	r1, r4
	bl	CmdSend
.Ltmp392:
	.loc	5 1492 3 is_stmt 0              @ C:/Users/shw26/AppData/Local/Arm/Packs/ARM/CMSIS-Driver/2.6.1/WiFi/ESP8266/ESP8266.c:1492:3
	add	sp, #8
	pop	{r4, pc}
.Ltmp393:
	.p2align	2
@ %bb.1:
	.loc	5 0 3                           @ C:/Users/shw26/AppData/Local/Arm/Packs/ARM/CMSIS-Driver/2.6.1/WiFi/ESP8266/ESP8266.c:0:3
.LCPI24_0:
.L.str.3:
	.asciz	"%s%d\000\000\000"
.LCPI24_1:
.L.str.4:
	.asciz	"ATE"
.Lfunc_end24:
	.size	AT_Cmd_Echo, .Lfunc_end24-AT_Cmd_Echo
	.cfi_endproc
	.cantunwind
	.fnend
                                        @ -- End function
	.section	.text.AT_Cmd_ConfigUART,"ax",%progbits
	.hidden	AT_Cmd_ConfigUART               @ -- Begin function AT_Cmd_ConfigUART
	.globl	AT_Cmd_ConfigUART
	.p2align	2
	.type	AT_Cmd_ConfigUART,%function
	.code	16                              @ @AT_Cmd_ConfigUART
	.thumb_func
AT_Cmd_ConfigUART:
.Lfunc_begin25:
	.loc	5 1509 0 is_stmt 1              @ C:/Users/shw26/AppData/Local/Arm/Packs/ARM/CMSIS-Driver/2.6.1/WiFi/ESP8266/ESP8266.c:1509:0
	.fnstart
	.cfi_startproc
@ %bb.0:
	@DEBUG_VALUE: AT_Cmd_ConfigUART:at_cmode <- $r0
	@DEBUG_VALUE: AT_Cmd_ConfigUART:baudrate <- $r1
	@DEBUG_VALUE: AT_Cmd_ConfigUART:databits <- $r2
	@DEBUG_VALUE: AT_Cmd_ConfigUART:stop_par_flowc <- $r3
	.save	{r4, r5, r6, r7, lr}
	push	{r4, r5, r6, r7, lr}
	.cfi_def_cfa_offset 20
	.cfi_offset lr, -4
	.cfi_offset r7, -8
	.cfi_offset r6, -12
	.cfi_offset r5, -16
	.cfi_offset r4, -20
	.pad	#52
	sub	sp, #52
	.cfi_def_cfa_offset 72
	mov	r7, r3
	str	r2, [sp, #16]                   @ 4-byte Spill
	mov	r6, r1
	mov	r5, r0
.Ltmp394:
	@DEBUG_VALUE: AT_Cmd_ConfigUART:stop_par_flowc <- $r7
	@DEBUG_VALUE: AT_Cmd_ConfigUART:databits <- [DW_OP_plus_uconst 16] [$sp+0]
	@DEBUG_VALUE: AT_Cmd_ConfigUART:baudrate <- $r6
	@DEBUG_VALUE: AT_Cmd_ConfigUART:at_cmode <- $r5
	movs	r0, #16
	movs	r1, #1
	add	r2, sp, #20
.Ltmp395:
	.loc	5 1515 7 prologue_end           @ C:/Users/shw26/AppData/Local/Arm/Packs/ARM/CMSIS-Driver/2.6.1/WiFi/ESP8266/ESP8266.c:1515:7
	bl	CmdOpen
	mov	r4, r0
.Ltmp396:
	@DEBUG_VALUE: AT_Cmd_ConfigUART:n <- $r4
	.loc	5 1517 7                        @ C:/Users/shw26/AppData/Local/Arm/Packs/ARM/CMSIS-Driver/2.6.1/WiFi/ESP8266/ESP8266.c:1517:7
	cmp	r5, #1
	bne	.LBB25_2
.Ltmp397:
@ %bb.1:
	@DEBUG_VALUE: AT_Cmd_ConfigUART:stop_par_flowc <- $r7
	@DEBUG_VALUE: AT_Cmd_ConfigUART:baudrate <- $r6
	@DEBUG_VALUE: AT_Cmd_ConfigUART:at_cmode <- $r5
	@DEBUG_VALUE: AT_Cmd_ConfigUART:n <- $r4
	@DEBUG_VALUE: AT_Cmd_ConfigUART:databits <- [DW_OP_plus_uconst 16] [$sp+0]
	.loc	5 0 7 is_stmt 0                 @ C:/Users/shw26/AppData/Local/Arm/Packs/ARM/CMSIS-Driver/2.6.1/WiFi/ESP8266/ESP8266.c:0:7
	movs	r0, #3
.Ltmp398:
	.loc	5 1520 39 is_stmt 1             @ C:/Users/shw26/AppData/Local/Arm/Packs/ARM/CMSIS-Driver/2.6.1/WiFi/ESP8266/ESP8266.c:1520:39
	ands	r0, r7
.Ltmp399:
	@DEBUG_VALUE: AT_Cmd_ConfigUART:flow_ctrl <- $r0
	.loc	5 1519 39                       @ C:/Users/shw26/AppData/Local/Arm/Packs/ARM/CMSIS-Driver/2.6.1/WiFi/ESP8266/ESP8266.c:1519:39
	lsls	r1, r7, #28
	lsrs	r1, r1, #30
.Ltmp400:
	@DEBUG_VALUE: AT_Cmd_ConfigUART:parity <- $r1
	.loc	5 1518 39                       @ C:/Users/shw26/AppData/Local/Arm/Packs/ARM/CMSIS-Driver/2.6.1/WiFi/ESP8266/ESP8266.c:1518:39
	lsls	r2, r7, #26
	lsrs	r2, r2, #30
.Ltmp401:
	@DEBUG_VALUE: AT_Cmd_ConfigUART:stopbits <- $r2
	.loc	5 1523 10                       @ C:/Users/shw26/AppData/Local/Arm/Packs/ARM/CMSIS-Driver/2.6.1/WiFi/ESP8266/ESP8266.c:1523:10
	str	r2, [sp]
	str	r1, [sp, #4]
	str	r0, [sp, #8]
	add	r0, sp, #20
.Ltmp402:
	.loc	5 1523 20 is_stmt 0             @ C:/Users/shw26/AppData/Local/Arm/Packs/ARM/CMSIS-Driver/2.6.1/WiFi/ESP8266/ESP8266.c:1523:20
	adds	r0, r0, r4
	.loc	5 1523 10                       @ C:/Users/shw26/AppData/Local/Arm/Packs/ARM/CMSIS-Driver/2.6.1/WiFi/ESP8266/ESP8266.c:1523:10
	adr	r1, .LCPI25_0
.Ltmp403:
	mov	r2, r6
.Ltmp404:
	ldr	r3, [sp, #16]                   @ 4-byte Reload
	bl	__2sprintf
	.loc	5 1523 7                        @ C:/Users/shw26/AppData/Local/Arm/Packs/ARM/CMSIS-Driver/2.6.1/WiFi/ESP8266/ESP8266.c:1523:7
	adds	r4, r0, r4
.Ltmp405:
	@DEBUG_VALUE: AT_Cmd_ConfigUART:n <- $r4
.LBB25_2:
	@DEBUG_VALUE: AT_Cmd_ConfigUART:stop_par_flowc <- $r7
	@DEBUG_VALUE: AT_Cmd_ConfigUART:baudrate <- $r6
	@DEBUG_VALUE: AT_Cmd_ConfigUART:at_cmode <- $r5
	@DEBUG_VALUE: AT_Cmd_ConfigUART:n <- $r4
	@DEBUG_VALUE: AT_Cmd_ConfigUART:databits <- [DW_OP_plus_uconst 16] [$sp+0]
	@DEBUG_VALUE: AT_Cmd_ConfigUART:n <- $r4
	.loc	5 0 7                           @ C:/Users/shw26/AppData/Local/Arm/Packs/ARM/CMSIS-Driver/2.6.1/WiFi/ESP8266/ESP8266.c:0:7
	movs	r0, #16
	add	r1, sp, #20
	.loc	5 1527 11 is_stmt 1             @ C:/Users/shw26/AppData/Local/Arm/Packs/ARM/CMSIS-Driver/2.6.1/WiFi/ESP8266/ESP8266.c:1527:11
	mov	r2, r4
	bl	CmdSend
	.loc	5 1527 3 is_stmt 0              @ C:/Users/shw26/AppData/Local/Arm/Packs/ARM/CMSIS-Driver/2.6.1/WiFi/ESP8266/ESP8266.c:1527:3
	add	sp, #52
.Ltmp406:
	pop	{r4, r5, r6, r7, pc}
.Ltmp407:
	.p2align	2
@ %bb.3:
	.loc	5 0 3                           @ C:/Users/shw26/AppData/Local/Arm/Packs/ARM/CMSIS-Driver/2.6.1/WiFi/ESP8266/ESP8266.c:0:3
.LCPI25_0:
.L.str.5:
	.asciz	"%d,%d,%d,%d,%d\000"
.Lfunc_end25:
	.size	AT_Cmd_ConfigUART, .Lfunc_end25-AT_Cmd_ConfigUART
	.cfi_endproc
	.cantunwind
	.fnend
                                        @ -- End function
	.section	.text.AT_Resp_ConfigUART,"ax",%progbits
	.hidden	AT_Resp_ConfigUART              @ -- Begin function AT_Resp_ConfigUART
	.globl	AT_Resp_ConfigUART
	.p2align	2
	.type	AT_Resp_ConfigUART,%function
	.code	16                              @ @AT_Resp_ConfigUART
	.thumb_func
AT_Resp_ConfigUART:
.Lfunc_begin26:
	.loc	5 1540 0 is_stmt 1              @ C:/Users/shw26/AppData/Local/Arm/Packs/ARM/CMSIS-Driver/2.6.1/WiFi/ESP8266/ESP8266.c:1540:0
	.fnstart
	.cfi_startproc
@ %bb.0:
	@DEBUG_VALUE: AT_Resp_ConfigUART:baudrate <- $r0
	@DEBUG_VALUE: AT_Resp_ConfigUART:databits <- $r1
	@DEBUG_VALUE: AT_Resp_ConfigUART:stop_par_flowc <- $r2
	.save	{r4, r5, r6, r7, lr}
	push	{r4, r5, r6, r7, lr}
	.cfi_def_cfa_offset 20
	.cfi_offset lr, -4
	.cfi_offset r7, -8
	.cfi_offset r6, -12
	.cfi_offset r5, -16
	.cfi_offset r4, -20
	.pad	#52
	sub	sp, #52
	.cfi_def_cfa_offset 72
.Ltmp408:
	@DEBUG_VALUE: AT_Resp_ConfigUART:stop_par_flowc <- [DW_OP_plus_uconst 12] [$sp+0]
	@DEBUG_VALUE: AT_Resp_ConfigUART:databits <- [DW_OP_plus_uconst 8] [$sp+0]
	add	r3, sp, #4
	stm	r3!, {r0, r1, r2}               @ 12-byte Folded Spill
.Ltmp409:
	@DEBUG_VALUE: AT_Resp_ConfigUART:baudrate <- [DW_OP_plus_uconst 4] [$sp+0]
	movs	r6, #0
.Ltmp410:
	@DEBUG_VALUE: AT_Resp_ConfigUART:a <- 0
	movs	r5, #32
	movs	r0, #10
	str	r0, [sp]                        @ 4-byte Spill
	movs	r7, #1
	b	.LBB26_2
.Ltmp411:
.LBB26_1:                               @   in Loop: Header=BB26_2 Depth=1
	@DEBUG_VALUE: AT_Resp_ConfigUART:a <- $r6
	@DEBUG_VALUE: AT_Resp_ConfigUART:val <- $r4
	@DEBUG_VALUE: AT_Resp_ConfigUART:p <- [DW_OP_plus_uconst 48, DW_OP_deref] $sp
	@DEBUG_VALUE: AT_Resp_ConfigUART:baudrate <- [DW_OP_plus_uconst 4] [$sp+0]
	@DEBUG_VALUE: AT_Resp_ConfigUART:databits <- [DW_OP_plus_uconst 8] [$sp+0]
	@DEBUG_VALUE: AT_Resp_ConfigUART:stop_par_flowc <- [DW_OP_plus_uconst 12] [$sp+0]
	@DEBUG_VALUE: AT_Resp_ConfigUART:a <- [DW_OP_plus_uconst 1, DW_OP_stack_value] $r6
	.loc	5 1605 21 prologue_end          @ C:/Users/shw26/AppData/Local/Arm/Packs/ARM/CMSIS-Driver/2.6.1/WiFi/ESP8266/ESP8266.c:1605:21
	mov	r0, r4
	bics	r0, r7
.Ltmp412:
	.loc	5 1602 8                        @ C:/Users/shw26/AppData/Local/Arm/Packs/ARM/CMSIS-Driver/2.6.1/WiFi/ESP8266/ESP8266.c:1602:8
	adds	r6, r6, #1
.Ltmp413:
	@DEBUG_VALUE: AT_Resp_ConfigUART:a <- $r6
	.loc	5 1604 3                        @ C:/Users/shw26/AppData/Local/Arm/Packs/ARM/CMSIS-Driver/2.6.1/WiFi/ESP8266/ESP8266.c:1604:3
	cmp	r0, #2
	beq	.LBB26_10
.Ltmp414:
.LBB26_2:                               @ =>This Inner Loop Header: Depth=1
	@DEBUG_VALUE: AT_Resp_ConfigUART:baudrate <- [DW_OP_plus_uconst 4] [$sp+0]
	@DEBUG_VALUE: AT_Resp_ConfigUART:databits <- [DW_OP_plus_uconst 8] [$sp+0]
	@DEBUG_VALUE: AT_Resp_ConfigUART:stop_par_flowc <- [DW_OP_plus_uconst 12] [$sp+0]
	@DEBUG_VALUE: AT_Resp_ConfigUART:a <- $r6
	.loc	5 0 3 is_stmt 0                 @ C:/Users/shw26/AppData/Local/Arm/Packs/ARM/CMSIS-Driver/2.6.1/WiFi/ESP8266/ESP8266.c:0:3
	add	r0, sp, #16
	.loc	5 1552 11 is_stmt 1             @ C:/Users/shw26/AppData/Local/Arm/Packs/ARM/CMSIS-Driver/2.6.1/WiFi/ESP8266/ESP8266.c:1552:11
	mov	r1, r5
	bl	GetRespArg
	mov	r4, r0
.Ltmp415:
	@DEBUG_VALUE: AT_Resp_ConfigUART:val <- $r4
	.loc	5 1554 9                        @ C:/Users/shw26/AppData/Local/Arm/Packs/ARM/CMSIS-Driver/2.6.1/WiFi/ESP8266/ESP8266.c:1554:9
	cmp	r0, #0
	bmi	.LBB26_10
.Ltmp416:
@ %bb.3:                                @   in Loop: Header=BB26_2 Depth=1
	@DEBUG_VALUE: AT_Resp_ConfigUART:a <- $r6
	@DEBUG_VALUE: AT_Resp_ConfigUART:val <- $r4
	@DEBUG_VALUE: AT_Resp_ConfigUART:baudrate <- [DW_OP_plus_uconst 4] [$sp+0]
	@DEBUG_VALUE: AT_Resp_ConfigUART:databits <- [DW_OP_plus_uconst 8] [$sp+0]
	@DEBUG_VALUE: AT_Resp_ConfigUART:stop_par_flowc <- [DW_OP_plus_uconst 12] [$sp+0]
	.loc	5 0 9 is_stmt 0                 @ C:/Users/shw26/AppData/Local/Arm/Packs/ARM/CMSIS-Driver/2.6.1/WiFi/ESP8266/ESP8266.c:0:9
	add	r0, sp, #16
.Ltmp417:
	.loc	5 1560 9 is_stmt 1              @ C:/Users/shw26/AppData/Local/Arm/Packs/ARM/CMSIS-Driver/2.6.1/WiFi/ESP8266/ESP8266.c:1560:9
	str	r0, [sp, #48]
	.loc	5 1563 11                       @ C:/Users/shw26/AppData/Local/Arm/Packs/ARM/CMSIS-Driver/2.6.1/WiFi/ESP8266/ESP8266.c:1563:11
	cmp	r6, #4
.Ltmp418:
	@DEBUG_VALUE: AT_Resp_ConfigUART:p <- [DW_OP_plus_uconst 16, DW_OP_stack_value] $sp
	bhi	.LBB26_10
.Ltmp419:
@ %bb.4:                                @   in Loop: Header=BB26_2 Depth=1
	@DEBUG_VALUE: AT_Resp_ConfigUART:a <- $r6
	@DEBUG_VALUE: AT_Resp_ConfigUART:val <- $r4
	@DEBUG_VALUE: AT_Resp_ConfigUART:p <- [DW_OP_plus_uconst 16, DW_OP_stack_value] $sp
	@DEBUG_VALUE: AT_Resp_ConfigUART:baudrate <- [DW_OP_plus_uconst 4] [$sp+0]
	@DEBUG_VALUE: AT_Resp_ConfigUART:databits <- [DW_OP_plus_uconst 8] [$sp+0]
	@DEBUG_VALUE: AT_Resp_ConfigUART:stop_par_flowc <- [DW_OP_plus_uconst 12] [$sp+0]
	.loc	5 0 11 is_stmt 0                @ C:/Users/shw26/AppData/Local/Arm/Packs/ARM/CMSIS-Driver/2.6.1/WiFi/ESP8266/ESP8266.c:0:11
	lsls	r0, r6, #2
	adr	r1, .LJTI26_0
	adds	r0, r1, r0
	mov	pc, r0
.Ltmp420:
@ %bb.5:
	.p2align	2
.LJTI26_0:
	b.w	.LBB26_7
	b.w	.LBB26_8
	b.w	.LBB26_6
	b.w	.LBB26_6
	b.w	.LBB26_9
.LBB26_6:                               @   in Loop: Header=BB26_2 Depth=1
.Ltmp421:
	@DEBUG_VALUE: AT_Resp_ConfigUART:a <- $r6
	@DEBUG_VALUE: AT_Resp_ConfigUART:val <- $r4
	@DEBUG_VALUE: AT_Resp_ConfigUART:p <- [DW_OP_plus_uconst 16, DW_OP_stack_value] $sp
	@DEBUG_VALUE: AT_Resp_ConfigUART:baudrate <- [DW_OP_plus_uconst 4] [$sp+0]
	@DEBUG_VALUE: AT_Resp_ConfigUART:databits <- [DW_OP_plus_uconst 8] [$sp+0]
	@DEBUG_VALUE: AT_Resp_ConfigUART:stop_par_flowc <- [DW_OP_plus_uconst 12] [$sp+0]
	@DEBUG_VALUE: AT_Resp_ConfigUART:p <- [DW_OP_plus_uconst 48, DW_OP_deref] $sp
	add	r0, sp, #16
	add	r1, sp, #48
	movs	r2, #10
.Ltmp422:
	bl	strtoul
.Ltmp423:
	@DEBUG_VALUE: AT_Resp_ConfigUART:spf <- [DW_OP_constu 3, DW_OP_and, DW_OP_constu 2, DW_OP_shl, DW_OP_stack_value] undef
	@DEBUG_VALUE: AT_Resp_ConfigUART:uval <- undef
	b	.LBB26_1
.Ltmp424:
.LBB26_7:                               @   in Loop: Header=BB26_2 Depth=1
	@DEBUG_VALUE: AT_Resp_ConfigUART:a <- $r6
	@DEBUG_VALUE: AT_Resp_ConfigUART:val <- $r4
	@DEBUG_VALUE: AT_Resp_ConfigUART:p <- [DW_OP_plus_uconst 16, DW_OP_stack_value] $sp
	@DEBUG_VALUE: AT_Resp_ConfigUART:baudrate <- [DW_OP_plus_uconst 4] [$sp+0]
	@DEBUG_VALUE: AT_Resp_ConfigUART:databits <- [DW_OP_plus_uconst 8] [$sp+0]
	@DEBUG_VALUE: AT_Resp_ConfigUART:stop_par_flowc <- [DW_OP_plus_uconst 12] [$sp+0]
	@DEBUG_VALUE: AT_Resp_ConfigUART:p <- [DW_OP_plus_uconst 48, DW_OP_deref] $sp
	add	r0, sp, #16
	add	r1, sp, #48
.Ltmp425:
	.loc	5 1565 16 is_stmt 1             @ C:/Users/shw26/AppData/Local/Arm/Packs/ARM/CMSIS-Driver/2.6.1/WiFi/ESP8266/ESP8266.c:1565:16
	ldr	r2, [sp]                        @ 4-byte Reload
	bl	strtoul
.Ltmp426:
	@DEBUG_VALUE: AT_Resp_ConfigUART:uval <- $r0
	.loc	5 1568 19                       @ C:/Users/shw26/AppData/Local/Arm/Packs/ARM/CMSIS-Driver/2.6.1/WiFi/ESP8266/ESP8266.c:1568:19
	ldr	r1, [sp, #4]                    @ 4-byte Reload
	str	r0, [r1]
	b	.LBB26_1
.Ltmp427:
.LBB26_8:                               @   in Loop: Header=BB26_2 Depth=1
	@DEBUG_VALUE: AT_Resp_ConfigUART:a <- $r6
	@DEBUG_VALUE: AT_Resp_ConfigUART:val <- $r4
	@DEBUG_VALUE: AT_Resp_ConfigUART:p <- [DW_OP_plus_uconst 16, DW_OP_stack_value] $sp
	@DEBUG_VALUE: AT_Resp_ConfigUART:baudrate <- [DW_OP_plus_uconst 4] [$sp+0]
	@DEBUG_VALUE: AT_Resp_ConfigUART:databits <- [DW_OP_plus_uconst 8] [$sp+0]
	@DEBUG_VALUE: AT_Resp_ConfigUART:stop_par_flowc <- [DW_OP_plus_uconst 12] [$sp+0]
	@DEBUG_VALUE: AT_Resp_ConfigUART:p <- [DW_OP_plus_uconst 48, DW_OP_deref] $sp
	.loc	5 0 19 is_stmt 0                @ C:/Users/shw26/AppData/Local/Arm/Packs/ARM/CMSIS-Driver/2.6.1/WiFi/ESP8266/ESP8266.c:0:19
	add	r0, sp, #16
	add	r1, sp, #48
	movs	r2, #10
.Ltmp428:
	.loc	5 1572 16 is_stmt 1             @ C:/Users/shw26/AppData/Local/Arm/Packs/ARM/CMSIS-Driver/2.6.1/WiFi/ESP8266/ESP8266.c:1572:16
	bl	strtoul
.Ltmp429:
	@DEBUG_VALUE: AT_Resp_ConfigUART:uval <- $r0
	.loc	5 1574 19                       @ C:/Users/shw26/AppData/Local/Arm/Packs/ARM/CMSIS-Driver/2.6.1/WiFi/ESP8266/ESP8266.c:1574:19
	ldr	r1, [sp, #8]                    @ 4-byte Reload
	str	r0, [r1]
	b	.LBB26_1
.Ltmp430:
.LBB26_9:                               @   in Loop: Header=BB26_2 Depth=1
	@DEBUG_VALUE: AT_Resp_ConfigUART:a <- $r6
	@DEBUG_VALUE: AT_Resp_ConfigUART:val <- $r4
	@DEBUG_VALUE: AT_Resp_ConfigUART:p <- [DW_OP_plus_uconst 16, DW_OP_stack_value] $sp
	@DEBUG_VALUE: AT_Resp_ConfigUART:baudrate <- [DW_OP_plus_uconst 4] [$sp+0]
	@DEBUG_VALUE: AT_Resp_ConfigUART:databits <- [DW_OP_plus_uconst 8] [$sp+0]
	@DEBUG_VALUE: AT_Resp_ConfigUART:stop_par_flowc <- [DW_OP_plus_uconst 12] [$sp+0]
	@DEBUG_VALUE: AT_Resp_ConfigUART:p <- [DW_OP_plus_uconst 48, DW_OP_deref] $sp
	.loc	5 0 19 is_stmt 0                @ C:/Users/shw26/AppData/Local/Arm/Packs/ARM/CMSIS-Driver/2.6.1/WiFi/ESP8266/ESP8266.c:0:19
	add	r0, sp, #16
	add	r1, sp, #48
	movs	r2, #10
.Ltmp431:
	.loc	5 1590 16 is_stmt 1             @ C:/Users/shw26/AppData/Local/Arm/Packs/ARM/CMSIS-Driver/2.6.1/WiFi/ESP8266/ESP8266.c:1590:16
	bl	strtoul
.Ltmp432:
	@DEBUG_VALUE: AT_Resp_ConfigUART:uval <- $r0
	.loc	5 0 16 is_stmt 0                @ C:/Users/shw26/AppData/Local/Arm/Packs/ARM/CMSIS-Driver/2.6.1/WiFi/ESP8266/ESP8266.c:0:16
	movs	r1, #3
	.loc	5 1592 21 is_stmt 1             @ C:/Users/shw26/AppData/Local/Arm/Packs/ARM/CMSIS-Driver/2.6.1/WiFi/ESP8266/ESP8266.c:1592:21
	ands	r1, r0
.Ltmp433:
	@DEBUG_VALUE: AT_Resp_ConfigUART:spf <- $r1
	.loc	5 1594 25                       @ C:/Users/shw26/AppData/Local/Arm/Packs/ARM/CMSIS-Driver/2.6.1/WiFi/ESP8266/ESP8266.c:1594:25
	ldr	r0, [sp, #12]                   @ 4-byte Reload
.Ltmp434:
	str	r1, [r0]
	b	.LBB26_1
.Ltmp435:
.LBB26_10:
	@DEBUG_VALUE: AT_Resp_ConfigUART:a <- $r6
	@DEBUG_VALUE: AT_Resp_ConfigUART:val <- $r4
	@DEBUG_VALUE: AT_Resp_ConfigUART:baudrate <- [DW_OP_plus_uconst 4] [$sp+0]
	@DEBUG_VALUE: AT_Resp_ConfigUART:databits <- [DW_OP_plus_uconst 8] [$sp+0]
	@DEBUG_VALUE: AT_Resp_ConfigUART:stop_par_flowc <- [DW_OP_plus_uconst 12] [$sp+0]
	.loc	5 1607 7                        @ C:/Users/shw26/AppData/Local/Arm/Packs/ARM/CMSIS-Driver/2.6.1/WiFi/ESP8266/ESP8266.c:1607:7
	cmp	r4, #3
	beq	.LBB26_13
.Ltmp436:
@ %bb.11:
	@DEBUG_VALUE: AT_Resp_ConfigUART:a <- $r6
	@DEBUG_VALUE: AT_Resp_ConfigUART:val <- $r4
	@DEBUG_VALUE: AT_Resp_ConfigUART:baudrate <- [DW_OP_plus_uconst 4] [$sp+0]
	@DEBUG_VALUE: AT_Resp_ConfigUART:databits <- [DW_OP_plus_uconst 8] [$sp+0]
	@DEBUG_VALUE: AT_Resp_ConfigUART:stop_par_flowc <- [DW_OP_plus_uconst 12] [$sp+0]
	cmp	r4, #2
	beq	.LBB26_14
.Ltmp437:
@ %bb.12:
	@DEBUG_VALUE: AT_Resp_ConfigUART:a <- $r6
	@DEBUG_VALUE: AT_Resp_ConfigUART:val <- $r4
	@DEBUG_VALUE: AT_Resp_ConfigUART:baudrate <- [DW_OP_plus_uconst 4] [$sp+0]
	@DEBUG_VALUE: AT_Resp_ConfigUART:databits <- [DW_OP_plus_uconst 8] [$sp+0]
	@DEBUG_VALUE: AT_Resp_ConfigUART:stop_par_flowc <- [DW_OP_plus_uconst 12] [$sp+0]
	.loc	5 0 0 is_stmt 0                 @ C:/Users/shw26/AppData/Local/Arm/Packs/ARM/CMSIS-Driver/2.6.1/WiFi/ESP8266/ESP8266.c:0:0
	mov	r7, r4
.Ltmp438:
	@DEBUG_VALUE: AT_Resp_ConfigUART:val <- $r7
	b	.LBB26_14
.Ltmp439:
.LBB26_13:
	@DEBUG_VALUE: AT_Resp_ConfigUART:a <- $r6
	@DEBUG_VALUE: AT_Resp_ConfigUART:val <- $r4
	@DEBUG_VALUE: AT_Resp_ConfigUART:baudrate <- [DW_OP_plus_uconst 4] [$sp+0]
	@DEBUG_VALUE: AT_Resp_ConfigUART:databits <- [DW_OP_plus_uconst 8] [$sp+0]
	@DEBUG_VALUE: AT_Resp_ConfigUART:stop_par_flowc <- [DW_OP_plus_uconst 12] [$sp+0]
	movs	r7, #0
.Ltmp440:
.LBB26_14:
	@DEBUG_VALUE: AT_Resp_ConfigUART:a <- $r6
	@DEBUG_VALUE: AT_Resp_ConfigUART:baudrate <- [DW_OP_plus_uconst 4] [$sp+0]
	@DEBUG_VALUE: AT_Resp_ConfigUART:databits <- [DW_OP_plus_uconst 8] [$sp+0]
	@DEBUG_VALUE: AT_Resp_ConfigUART:stop_par_flowc <- [DW_OP_plus_uconst 12] [$sp+0]
	@DEBUG_VALUE: AT_Resp_ConfigUART:val <- $r7
	.loc	5 1618 3 is_stmt 1              @ C:/Users/shw26/AppData/Local/Arm/Packs/ARM/CMSIS-Driver/2.6.1/WiFi/ESP8266/ESP8266.c:1618:3
	mov	r0, r7
	add	sp, #52
.Ltmp441:
	pop	{r4, r5, r6, r7, pc}
.Ltmp442:
.Lfunc_end26:
	.size	AT_Resp_ConfigUART, .Lfunc_end26-AT_Resp_ConfigUART
	.cfi_endproc
	.cantunwind
	.fnend
                                        @ -- End function
	.section	.text.AT_Cmd_Sleep,"ax",%progbits
	.hidden	AT_Cmd_Sleep                    @ -- Begin function AT_Cmd_Sleep
	.globl	AT_Cmd_Sleep
	.p2align	2
	.type	AT_Cmd_Sleep,%function
	.code	16                              @ @AT_Cmd_Sleep
	.thumb_func
AT_Cmd_Sleep:
.Lfunc_begin27:
	.loc	5 1631 0                        @ C:/Users/shw26/AppData/Local/Arm/Packs/ARM/CMSIS-Driver/2.6.1/WiFi/ESP8266/ESP8266.c:1631:0
	.fnstart
	.cfi_startproc
@ %bb.0:
	@DEBUG_VALUE: AT_Cmd_Sleep:at_cmode <- $r0
	@DEBUG_VALUE: AT_Cmd_Sleep:sleep_mode <- $r1
	.save	{r4, r5, r6, lr}
	push	{r4, r5, r6, lr}
	.cfi_def_cfa_offset 16
	.cfi_offset lr, -4
	.cfi_offset r6, -8
	.cfi_offset r5, -12
	.cfi_offset r4, -16
	.pad	#32
	sub	sp, #32
	.cfi_def_cfa_offset 48
	mov	r5, r1
	mov	r6, r0
.Ltmp443:
	@DEBUG_VALUE: AT_Cmd_Sleep:sleep_mode <- $r5
	@DEBUG_VALUE: AT_Cmd_Sleep:at_cmode <- $r6
	movs	r0, #32
	movs	r1, #1
	mov	r2, sp
.Ltmp444:
	.loc	5 1636 7 prologue_end           @ C:/Users/shw26/AppData/Local/Arm/Packs/ARM/CMSIS-Driver/2.6.1/WiFi/ESP8266/ESP8266.c:1636:7
	bl	CmdOpen
	mov	r4, r0
.Ltmp445:
	@DEBUG_VALUE: AT_Cmd_Sleep:n <- $r4
	.loc	5 1638 7                        @ C:/Users/shw26/AppData/Local/Arm/Packs/ARM/CMSIS-Driver/2.6.1/WiFi/ESP8266/ESP8266.c:1638:7
	cmp	r6, #1
	bne	.LBB27_2
.Ltmp446:
@ %bb.1:
	@DEBUG_VALUE: AT_Cmd_Sleep:at_cmode <- $r6
	@DEBUG_VALUE: AT_Cmd_Sleep:sleep_mode <- $r5
	@DEBUG_VALUE: AT_Cmd_Sleep:n <- $r4
	.loc	5 0 7 is_stmt 0                 @ C:/Users/shw26/AppData/Local/Arm/Packs/ARM/CMSIS-Driver/2.6.1/WiFi/ESP8266/ESP8266.c:0:7
	mov	r0, sp
.Ltmp447:
	.loc	5 1640 20 is_stmt 1             @ C:/Users/shw26/AppData/Local/Arm/Packs/ARM/CMSIS-Driver/2.6.1/WiFi/ESP8266/ESP8266.c:1640:20
	adds	r0, r0, r4
	.loc	5 1640 10 is_stmt 0             @ C:/Users/shw26/AppData/Local/Arm/Packs/ARM/CMSIS-Driver/2.6.1/WiFi/ESP8266/ESP8266.c:1640:10
	ldr	r1, __arm_cp.27_0
	mov	r2, r5
	bl	__2sprintf
	.loc	5 1640 7                        @ C:/Users/shw26/AppData/Local/Arm/Packs/ARM/CMSIS-Driver/2.6.1/WiFi/ESP8266/ESP8266.c:1640:7
	adds	r4, r0, r4
.Ltmp448:
	@DEBUG_VALUE: AT_Cmd_Sleep:n <- $r4
.LBB27_2:
	@DEBUG_VALUE: AT_Cmd_Sleep:at_cmode <- $r6
	@DEBUG_VALUE: AT_Cmd_Sleep:sleep_mode <- $r5
	@DEBUG_VALUE: AT_Cmd_Sleep:n <- $r4
	@DEBUG_VALUE: AT_Cmd_Sleep:n <- $r4
	.loc	5 0 7                           @ C:/Users/shw26/AppData/Local/Arm/Packs/ARM/CMSIS-Driver/2.6.1/WiFi/ESP8266/ESP8266.c:0:7
	movs	r0, #32
	mov	r1, sp
	.loc	5 1644 11 is_stmt 1             @ C:/Users/shw26/AppData/Local/Arm/Packs/ARM/CMSIS-Driver/2.6.1/WiFi/ESP8266/ESP8266.c:1644:11
	mov	r2, r4
	bl	CmdSend
	.loc	5 1644 3 is_stmt 0              @ C:/Users/shw26/AppData/Local/Arm/Packs/ARM/CMSIS-Driver/2.6.1/WiFi/ESP8266/ESP8266.c:1644:3
	add	sp, #32
	pop	{r4, r5, r6, pc}
.Ltmp449:
	.p2align	2
@ %bb.3:
	.loc	5 0 3                           @ C:/Users/shw26/AppData/Local/Arm/Packs/ARM/CMSIS-Driver/2.6.1/WiFi/ESP8266/ESP8266.c:0:3
__arm_cp.27_0:
	.long	.L.str.6
.Lcpi_end16:
	.size	__arm_cp.27_0, .Lcpi_end16-__arm_cp.27_0
.Lfunc_end27:
	.size	AT_Cmd_Sleep, .Lfunc_end27-AT_Cmd_Sleep
	.cfi_endproc
	.cantunwind
	.fnend
                                        @ -- End function
	.section	.text.AT_Resp_Sleep,"ax",%progbits
	.hidden	AT_Resp_Sleep                   @ -- Begin function AT_Resp_Sleep
	.globl	AT_Resp_Sleep
	.p2align	1
	.type	AT_Resp_Sleep,%function
	.code	16                              @ @AT_Resp_Sleep
	.thumb_func
AT_Resp_Sleep:
.Lfunc_begin28:
	.loc	5 1658 0 is_stmt 1              @ C:/Users/shw26/AppData/Local/Arm/Packs/ARM/CMSIS-Driver/2.6.1/WiFi/ESP8266/ESP8266.c:1658:0
	.fnstart
	.cfi_startproc
@ %bb.0:
	@DEBUG_VALUE: AT_Resp_Sleep:sleep_mode <- $r0
	.save	{r4, r5, r6, r7, lr}
	push	{r4, r5, r6, r7, lr}
	.cfi_def_cfa_offset 20
	.cfi_offset lr, -4
	.cfi_offset r7, -8
	.cfi_offset r6, -12
	.cfi_offset r5, -16
	.cfi_offset r4, -20
	.pad	#36
	sub	sp, #36
	.cfi_def_cfa_offset 56
	mov	r5, r0
.Ltmp450:
	@DEBUG_VALUE: AT_Resp_Sleep:sleep_mode <- $r5
	movs	r6, #32
	movs	r4, #0
	mvns	r7, r4
.Ltmp451:
.LBB28_1:                               @ =>This Inner Loop Header: Depth=1
	@DEBUG_VALUE: AT_Resp_Sleep:sleep_mode <- $r5
	add	r0, sp, #4
.Ltmp452:
	.loc	5 1665 11 prologue_end          @ C:/Users/shw26/AppData/Local/Arm/Packs/ARM/CMSIS-Driver/2.6.1/WiFi/ESP8266/ESP8266.c:1665:11
	mov	r1, r6
	bl	GetRespArg
.Ltmp453:
	@DEBUG_VALUE: AT_Resp_Sleep:val <- $r0
	.loc	5 1667 9                        @ C:/Users/shw26/AppData/Local/Arm/Packs/ARM/CMSIS-Driver/2.6.1/WiFi/ESP8266/ESP8266.c:1667:9
	cmp	r0, #0
	bmi	.LBB28_4
.Ltmp454:
@ %bb.2:                                @   in Loop: Header=BB28_1 Depth=1
	@DEBUG_VALUE: AT_Resp_Sleep:sleep_mode <- $r5
	@DEBUG_VALUE: AT_Resp_Sleep:val <- $r0
	.loc	5 1671 9                        @ C:/Users/shw26/AppData/Local/Arm/Packs/ARM/CMSIS-Driver/2.6.1/WiFi/ESP8266/ESP8266.c:1671:9
	cmp	r0, #1
	beq	.LBB28_1
.Ltmp455:
@ %bb.3:
	@DEBUG_VALUE: AT_Resp_Sleep:sleep_mode <- $r5
	@DEBUG_VALUE: AT_Resp_Sleep:val <- $r0
	.loc	5 0 9 is_stmt 0                 @ C:/Users/shw26/AppData/Local/Arm/Packs/ARM/CMSIS-Driver/2.6.1/WiFi/ESP8266/ESP8266.c:0:9
	add	r0, sp, #4
.Ltmp456:
	.loc	5 1676 21 is_stmt 1             @ C:/Users/shw26/AppData/Local/Arm/Packs/ARM/CMSIS-Driver/2.6.1/WiFi/ESP8266/ESP8266.c:1676:21
	ldrb	r0, [r0]
	.loc	5 1676 26 is_stmt 0             @ C:/Users/shw26/AppData/Local/Arm/Packs/ARM/CMSIS-Driver/2.6.1/WiFi/ESP8266/ESP8266.c:1676:26
	subs	r0, #48
	.loc	5 1676 19                       @ C:/Users/shw26/AppData/Local/Arm/Packs/ARM/CMSIS-Driver/2.6.1/WiFi/ESP8266/ESP8266.c:1676:19
	str	r0, [r5]
.Ltmp457:
	@DEBUG_VALUE: AT_Resp_Sleep:p <- [DW_OP_plus_uconst 4, DW_OP_stack_value] $sp
	.loc	5 0 19                          @ C:/Users/shw26/AppData/Local/Arm/Packs/ARM/CMSIS-Driver/2.6.1/WiFi/ESP8266/ESP8266.c:0:19
	b	.LBB28_5
.Ltmp458:
.LBB28_4:
	@DEBUG_VALUE: AT_Resp_Sleep:sleep_mode <- $r5
	@DEBUG_VALUE: AT_Resp_Sleep:val <- $r0
	mov	r4, r7
.Ltmp459:
.LBB28_5:
	@DEBUG_VALUE: AT_Resp_Sleep:sleep_mode <- $r5
	@DEBUG_VALUE: AT_Resp_Sleep:val <- $r4
	.loc	5 1688 3 is_stmt 1              @ C:/Users/shw26/AppData/Local/Arm/Packs/ARM/CMSIS-Driver/2.6.1/WiFi/ESP8266/ESP8266.c:1688:3
	mov	r0, r4
	add	sp, #36
	pop	{r4, r5, r6, r7, pc}
.Ltmp460:
.Lfunc_end28:
	.size	AT_Resp_Sleep, .Lfunc_end28-AT_Resp_Sleep
	.cfi_endproc
	.cantunwind
	.fnend
                                        @ -- End function
	.section	.text.AT_Cmd_TxPower,"ax",%progbits
	.hidden	AT_Cmd_TxPower                  @ -- Begin function AT_Cmd_TxPower
	.globl	AT_Cmd_TxPower
	.p2align	2
	.type	AT_Cmd_TxPower,%function
	.code	16                              @ @AT_Cmd_TxPower
	.thumb_func
AT_Cmd_TxPower:
.Lfunc_begin29:
	.loc	5 1705 0                        @ C:/Users/shw26/AppData/Local/Arm/Packs/ARM/CMSIS-Driver/2.6.1/WiFi/ESP8266/ESP8266.c:1705:0
	.fnstart
	.cfi_startproc
@ %bb.0:
	@DEBUG_VALUE: AT_Cmd_TxPower:tx_power <- $r0
	.save	{r4, r5, r6, r7, lr}
	push	{r4, r5, r6, r7, lr}
	.cfi_def_cfa_offset 20
	.cfi_offset lr, -4
	.cfi_offset r7, -8
	.cfi_offset r6, -12
	.cfi_offset r5, -16
	.cfi_offset r4, -20
	.pad	#36
	sub	sp, #36
	.cfi_def_cfa_offset 56
	mov	r6, r0
.Ltmp461:
	@DEBUG_VALUE: AT_Cmd_TxPower:tx_power <- $r6
	movs	r4, #8
	movs	r1, #1
	add	r5, sp, #4
.Ltmp462:
	.loc	5 1710 7 prologue_end           @ C:/Users/shw26/AppData/Local/Arm/Packs/ARM/CMSIS-Driver/2.6.1/WiFi/ESP8266/ESP8266.c:1710:7
	mov	r0, r4
	mov	r2, r5
	bl	CmdOpen
	mov	r7, r0
.Ltmp463:
	@DEBUG_VALUE: AT_Cmd_TxPower:n <- $r7
	.loc	5 1713 18                       @ C:/Users/shw26/AppData/Local/Arm/Packs/ARM/CMSIS-Driver/2.6.1/WiFi/ESP8266/ESP8266.c:1713:18
	adds	r0, r5, r0
	.loc	5 1713 8 is_stmt 0              @ C:/Users/shw26/AppData/Local/Arm/Packs/ARM/CMSIS-Driver/2.6.1/WiFi/ESP8266/ESP8266.c:1713:8
	ldr	r1, __arm_cp.29_0
	mov	r2, r6
.Ltmp464:
	@DEBUG_VALUE: AT_Cmd_TxPower:tx_power <- $r2
	bl	__2sprintf
.Ltmp465:
	.loc	5 1713 5                        @ C:/Users/shw26/AppData/Local/Arm/Packs/ARM/CMSIS-Driver/2.6.1/WiFi/ESP8266/ESP8266.c:1713:5
	adds	r2, r0, r7
.Ltmp466:
	@DEBUG_VALUE: AT_Cmd_TxPower:n <- $r2
	.loc	5 1716 11 is_stmt 1             @ C:/Users/shw26/AppData/Local/Arm/Packs/ARM/CMSIS-Driver/2.6.1/WiFi/ESP8266/ESP8266.c:1716:11
	mov	r0, r4
	mov	r1, r5
	bl	CmdSend
.Ltmp467:
	.loc	5 1716 3 is_stmt 0              @ C:/Users/shw26/AppData/Local/Arm/Packs/ARM/CMSIS-Driver/2.6.1/WiFi/ESP8266/ESP8266.c:1716:3
	add	sp, #36
	pop	{r4, r5, r6, r7, pc}
.Ltmp468:
	.p2align	2
@ %bb.1:
	.loc	5 0 3                           @ C:/Users/shw26/AppData/Local/Arm/Packs/ARM/CMSIS-Driver/2.6.1/WiFi/ESP8266/ESP8266.c:0:3
__arm_cp.29_0:
	.long	.L.str.6
.Lcpi_end17:
	.size	__arm_cp.29_0, .Lcpi_end17-__arm_cp.29_0
.Lfunc_end29:
	.size	AT_Cmd_TxPower, .Lfunc_end29-AT_Cmd_TxPower
	.cfi_endproc
	.cantunwind
	.fnend
                                        @ -- End function
	.section	.text.AT_Cmd_SysMessages,"ax",%progbits
	.hidden	AT_Cmd_SysMessages              @ -- Begin function AT_Cmd_SysMessages
	.globl	AT_Cmd_SysMessages
	.p2align	2
	.type	AT_Cmd_SysMessages,%function
	.code	16                              @ @AT_Cmd_SysMessages
	.thumb_func
AT_Cmd_SysMessages:
.Lfunc_begin30:
	.loc	5 1735 0 is_stmt 1              @ C:/Users/shw26/AppData/Local/Arm/Packs/ARM/CMSIS-Driver/2.6.1/WiFi/ESP8266/ESP8266.c:1735:0
	.fnstart
	.cfi_startproc
@ %bb.0:
	@DEBUG_VALUE: AT_Cmd_SysMessages:n <- $r0
	.save	{r4, r5, r6, r7, lr}
	push	{r4, r5, r6, r7, lr}
	.cfi_def_cfa_offset 20
	.cfi_offset lr, -4
	.cfi_offset r7, -8
	.cfi_offset r6, -12
	.cfi_offset r5, -16
	.cfi_offset r4, -20
	.pad	#36
	sub	sp, #36
	.cfi_def_cfa_offset 56
	mov	r6, r0
.Ltmp469:
	@DEBUG_VALUE: AT_Cmd_SysMessages:n <- $r6
	movs	r4, #17
	movs	r1, #1
	add	r5, sp, #4
.Ltmp470:
	.loc	5 1740 7 prologue_end           @ C:/Users/shw26/AppData/Local/Arm/Packs/ARM/CMSIS-Driver/2.6.1/WiFi/ESP8266/ESP8266.c:1740:7
	mov	r0, r4
	mov	r2, r5
	bl	CmdOpen
	mov	r7, r0
.Ltmp471:
	@DEBUG_VALUE: AT_Cmd_SysMessages:k <- $r7
	.loc	5 1743 18                       @ C:/Users/shw26/AppData/Local/Arm/Packs/ARM/CMSIS-Driver/2.6.1/WiFi/ESP8266/ESP8266.c:1743:18
	adds	r0, r5, r0
	.loc	5 1743 8 is_stmt 0              @ C:/Users/shw26/AppData/Local/Arm/Packs/ARM/CMSIS-Driver/2.6.1/WiFi/ESP8266/ESP8266.c:1743:8
	ldr	r1, __arm_cp.30_0
	mov	r2, r6
.Ltmp472:
	@DEBUG_VALUE: AT_Cmd_SysMessages:n <- $r2
	bl	__2sprintf
.Ltmp473:
	.loc	5 1743 5                        @ C:/Users/shw26/AppData/Local/Arm/Packs/ARM/CMSIS-Driver/2.6.1/WiFi/ESP8266/ESP8266.c:1743:5
	adds	r2, r0, r7
.Ltmp474:
	@DEBUG_VALUE: AT_Cmd_SysMessages:k <- $r2
	.loc	5 1746 11 is_stmt 1             @ C:/Users/shw26/AppData/Local/Arm/Packs/ARM/CMSIS-Driver/2.6.1/WiFi/ESP8266/ESP8266.c:1746:11
	mov	r0, r4
	mov	r1, r5
	bl	CmdSend
.Ltmp475:
	.loc	5 1746 3 is_stmt 0              @ C:/Users/shw26/AppData/Local/Arm/Packs/ARM/CMSIS-Driver/2.6.1/WiFi/ESP8266/ESP8266.c:1746:3
	add	sp, #36
	pop	{r4, r5, r6, r7, pc}
.Ltmp476:
	.p2align	2
@ %bb.1:
	.loc	5 0 3                           @ C:/Users/shw26/AppData/Local/Arm/Packs/ARM/CMSIS-Driver/2.6.1/WiFi/ESP8266/ESP8266.c:0:3
__arm_cp.30_0:
	.long	.L.str.6
.Lcpi_end18:
	.size	__arm_cp.30_0, .Lcpi_end18-__arm_cp.30_0
.Lfunc_end30:
	.size	AT_Cmd_SysMessages, .Lfunc_end30-AT_Cmd_SysMessages
	.cfi_endproc
	.cantunwind
	.fnend
                                        @ -- End function
	.section	.text.AT_Cmd_CurrentMode,"ax",%progbits
	.hidden	AT_Cmd_CurrentMode              @ -- Begin function AT_Cmd_CurrentMode
	.globl	AT_Cmd_CurrentMode
	.p2align	2
	.type	AT_Cmd_CurrentMode,%function
	.code	16                              @ @AT_Cmd_CurrentMode
	.thumb_func
AT_Cmd_CurrentMode:
.Lfunc_begin31:
	.loc	5 1761 0 is_stmt 1              @ C:/Users/shw26/AppData/Local/Arm/Packs/ARM/CMSIS-Driver/2.6.1/WiFi/ESP8266/ESP8266.c:1761:0
	.fnstart
	.cfi_startproc
@ %bb.0:
	@DEBUG_VALUE: AT_Cmd_CurrentMode:at_cmode <- $r0
	@DEBUG_VALUE: AT_Cmd_CurrentMode:mode <- $r1
	.save	{r4, r5, r6, lr}
	push	{r4, r5, r6, lr}
	.cfi_def_cfa_offset 16
	.cfi_offset lr, -4
	.cfi_offset r6, -8
	.cfi_offset r5, -12
	.cfi_offset r4, -16
	.pad	#32
	sub	sp, #32
	.cfi_def_cfa_offset 48
	mov	r5, r1
	mov	r6, r0
.Ltmp477:
	@DEBUG_VALUE: AT_Cmd_CurrentMode:mode <- $r5
	@DEBUG_VALUE: AT_Cmd_CurrentMode:at_cmode <- $r6
	movs	r0, #5
	mov	r2, sp
.Ltmp478:
	.loc	5 1766 7 prologue_end           @ C:/Users/shw26/AppData/Local/Arm/Packs/ARM/CMSIS-Driver/2.6.1/WiFi/ESP8266/ESP8266.c:1766:7
	mov	r1, r6
	bl	CmdOpen
	mov	r4, r0
.Ltmp479:
	@DEBUG_VALUE: AT_Cmd_CurrentMode:n <- $r4
	.loc	5 1768 7                        @ C:/Users/shw26/AppData/Local/Arm/Packs/ARM/CMSIS-Driver/2.6.1/WiFi/ESP8266/ESP8266.c:1768:7
	cmp	r6, #1
	bne	.LBB31_2
.Ltmp480:
@ %bb.1:
	@DEBUG_VALUE: AT_Cmd_CurrentMode:at_cmode <- $r6
	@DEBUG_VALUE: AT_Cmd_CurrentMode:mode <- $r5
	@DEBUG_VALUE: AT_Cmd_CurrentMode:n <- $r4
	.loc	5 0 7 is_stmt 0                 @ C:/Users/shw26/AppData/Local/Arm/Packs/ARM/CMSIS-Driver/2.6.1/WiFi/ESP8266/ESP8266.c:0:7
	mov	r0, sp
.Ltmp481:
	.loc	5 1770 20 is_stmt 1             @ C:/Users/shw26/AppData/Local/Arm/Packs/ARM/CMSIS-Driver/2.6.1/WiFi/ESP8266/ESP8266.c:1770:20
	adds	r0, r0, r4
	.loc	5 1770 10 is_stmt 0             @ C:/Users/shw26/AppData/Local/Arm/Packs/ARM/CMSIS-Driver/2.6.1/WiFi/ESP8266/ESP8266.c:1770:10
	ldr	r1, __arm_cp.31_0
	mov	r2, r5
	bl	__2sprintf
	.loc	5 1770 7                        @ C:/Users/shw26/AppData/Local/Arm/Packs/ARM/CMSIS-Driver/2.6.1/WiFi/ESP8266/ESP8266.c:1770:7
	adds	r4, r0, r4
.Ltmp482:
	@DEBUG_VALUE: AT_Cmd_CurrentMode:n <- $r4
.LBB31_2:
	@DEBUG_VALUE: AT_Cmd_CurrentMode:at_cmode <- $r6
	@DEBUG_VALUE: AT_Cmd_CurrentMode:mode <- $r5
	@DEBUG_VALUE: AT_Cmd_CurrentMode:n <- $r4
	@DEBUG_VALUE: AT_Cmd_CurrentMode:n <- $r4
	.loc	5 0 7                           @ C:/Users/shw26/AppData/Local/Arm/Packs/ARM/CMSIS-Driver/2.6.1/WiFi/ESP8266/ESP8266.c:0:7
	movs	r0, #5
	mov	r1, sp
	.loc	5 1774 11 is_stmt 1             @ C:/Users/shw26/AppData/Local/Arm/Packs/ARM/CMSIS-Driver/2.6.1/WiFi/ESP8266/ESP8266.c:1774:11
	mov	r2, r4
	bl	CmdSend
	.loc	5 1774 3 is_stmt 0              @ C:/Users/shw26/AppData/Local/Arm/Packs/ARM/CMSIS-Driver/2.6.1/WiFi/ESP8266/ESP8266.c:1774:3
	add	sp, #32
	pop	{r4, r5, r6, pc}
.Ltmp483:
	.p2align	2
@ %bb.3:
	.loc	5 0 3                           @ C:/Users/shw26/AppData/Local/Arm/Packs/ARM/CMSIS-Driver/2.6.1/WiFi/ESP8266/ESP8266.c:0:3
__arm_cp.31_0:
	.long	.L.str.6
.Lcpi_end19:
	.size	__arm_cp.31_0, .Lcpi_end19-__arm_cp.31_0
.Lfunc_end31:
	.size	AT_Cmd_CurrentMode, .Lfunc_end31-AT_Cmd_CurrentMode
	.cfi_endproc
	.cantunwind
	.fnend
                                        @ -- End function
	.section	.text.AT_Resp_CurrentMode,"ax",%progbits
	.hidden	AT_Resp_CurrentMode             @ -- Begin function AT_Resp_CurrentMode
	.globl	AT_Resp_CurrentMode
	.p2align	1
	.type	AT_Resp_CurrentMode,%function
	.code	16                              @ @AT_Resp_CurrentMode
	.thumb_func
AT_Resp_CurrentMode:
.Lfunc_begin32:
	.loc	5 1786 0 is_stmt 1              @ C:/Users/shw26/AppData/Local/Arm/Packs/ARM/CMSIS-Driver/2.6.1/WiFi/ESP8266/ESP8266.c:1786:0
	.fnstart
	.cfi_startproc
@ %bb.0:
	@DEBUG_VALUE: AT_Resp_CurrentMode:mode <- $r0
	.save	{r4, r5, r6, r7, lr}
	push	{r4, r5, r6, r7, lr}
	.cfi_def_cfa_offset 20
	.cfi_offset lr, -4
	.cfi_offset r7, -8
	.cfi_offset r6, -12
	.cfi_offset r5, -16
	.cfi_offset r4, -20
	.pad	#36
	sub	sp, #36
	.cfi_def_cfa_offset 56
	mov	r5, r0
.Ltmp484:
	@DEBUG_VALUE: AT_Resp_CurrentMode:mode <- $r5
	movs	r6, #32
	movs	r4, #0
	mvns	r7, r4
.Ltmp485:
.LBB32_1:                               @ =>This Inner Loop Header: Depth=1
	@DEBUG_VALUE: AT_Resp_CurrentMode:mode <- $r5
	add	r0, sp, #4
.Ltmp486:
	.loc	5 1793 11 prologue_end          @ C:/Users/shw26/AppData/Local/Arm/Packs/ARM/CMSIS-Driver/2.6.1/WiFi/ESP8266/ESP8266.c:1793:11
	mov	r1, r6
	bl	GetRespArg
.Ltmp487:
	@DEBUG_VALUE: AT_Resp_CurrentMode:val <- $r0
	.loc	5 1795 9                        @ C:/Users/shw26/AppData/Local/Arm/Packs/ARM/CMSIS-Driver/2.6.1/WiFi/ESP8266/ESP8266.c:1795:9
	cmp	r0, #0
	bmi	.LBB32_4
.Ltmp488:
@ %bb.2:                                @   in Loop: Header=BB32_1 Depth=1
	@DEBUG_VALUE: AT_Resp_CurrentMode:mode <- $r5
	@DEBUG_VALUE: AT_Resp_CurrentMode:val <- $r0
	.loc	5 1799 9                        @ C:/Users/shw26/AppData/Local/Arm/Packs/ARM/CMSIS-Driver/2.6.1/WiFi/ESP8266/ESP8266.c:1799:9
	cmp	r0, #1
	beq	.LBB32_1
.Ltmp489:
@ %bb.3:
	@DEBUG_VALUE: AT_Resp_CurrentMode:mode <- $r5
	@DEBUG_VALUE: AT_Resp_CurrentMode:val <- $r0
	.loc	5 0 9 is_stmt 0                 @ C:/Users/shw26/AppData/Local/Arm/Packs/ARM/CMSIS-Driver/2.6.1/WiFi/ESP8266/ESP8266.c:0:9
	add	r0, sp, #4
.Ltmp490:
	.loc	5 1804 15 is_stmt 1             @ C:/Users/shw26/AppData/Local/Arm/Packs/ARM/CMSIS-Driver/2.6.1/WiFi/ESP8266/ESP8266.c:1804:15
	ldrb	r0, [r0]
	.loc	5 1804 20 is_stmt 0             @ C:/Users/shw26/AppData/Local/Arm/Packs/ARM/CMSIS-Driver/2.6.1/WiFi/ESP8266/ESP8266.c:1804:20
	subs	r0, #48
	.loc	5 1804 13                       @ C:/Users/shw26/AppData/Local/Arm/Packs/ARM/CMSIS-Driver/2.6.1/WiFi/ESP8266/ESP8266.c:1804:13
	str	r0, [r5]
.Ltmp491:
	@DEBUG_VALUE: AT_Resp_CurrentMode:p <- [DW_OP_plus_uconst 4, DW_OP_stack_value] $sp
	.loc	5 0 13                          @ C:/Users/shw26/AppData/Local/Arm/Packs/ARM/CMSIS-Driver/2.6.1/WiFi/ESP8266/ESP8266.c:0:13
	b	.LBB32_5
.Ltmp492:
.LBB32_4:
	@DEBUG_VALUE: AT_Resp_CurrentMode:mode <- $r5
	@DEBUG_VALUE: AT_Resp_CurrentMode:val <- $r0
	mov	r4, r7
.Ltmp493:
.LBB32_5:
	@DEBUG_VALUE: AT_Resp_CurrentMode:mode <- $r5
	@DEBUG_VALUE: AT_Resp_CurrentMode:val <- $r4
	.loc	5 1816 3 is_stmt 1              @ C:/Users/shw26/AppData/Local/Arm/Packs/ARM/CMSIS-Driver/2.6.1/WiFi/ESP8266/ESP8266.c:1816:3
	mov	r0, r4
	add	sp, #36
	pop	{r4, r5, r6, r7, pc}
.Ltmp494:
.Lfunc_end32:
	.size	AT_Resp_CurrentMode, .Lfunc_end32-AT_Resp_CurrentMode
	.cfi_endproc
	.cantunwind
	.fnend
                                        @ -- End function
	.section	.text.AT_Cmd_ConnectAP,"ax",%progbits
	.hidden	AT_Cmd_ConnectAP                @ -- Begin function AT_Cmd_ConnectAP
	.globl	AT_Cmd_ConnectAP
	.p2align	2
	.type	AT_Cmd_ConnectAP,%function
	.code	16                              @ @AT_Cmd_ConnectAP
	.thumb_func
AT_Cmd_ConnectAP:
.Lfunc_begin33:
	.loc	5 1839 0                        @ C:/Users/shw26/AppData/Local/Arm/Packs/ARM/CMSIS-Driver/2.6.1/WiFi/ESP8266/ESP8266.c:1839:0
	.fnstart
	.cfi_startproc
@ %bb.0:
	@DEBUG_VALUE: AT_Cmd_ConnectAP:at_cmode <- $r0
	@DEBUG_VALUE: AT_Cmd_ConnectAP:ssid <- $r1
	@DEBUG_VALUE: AT_Cmd_ConnectAP:pwd <- $r2
	@DEBUG_VALUE: AT_Cmd_ConnectAP:bssid <- $r3
	.save	{r4, r5, r6, r7, lr}
	push	{r4, r5, r6, r7, lr}
	.cfi_def_cfa_offset 20
	.cfi_offset lr, -4
	.cfi_offset r7, -8
	.cfi_offset r6, -12
	.cfi_offset r5, -16
	.cfi_offset r4, -20
	.pad	#68
	sub	sp, #68
	.cfi_def_cfa_offset 88
	str	r3, [sp]                        @ 4-byte Spill
	mov	r6, r2
	mov	r7, r1
	mov	r5, r0
.Ltmp495:
	@DEBUG_VALUE: AT_Cmd_ConnectAP:bssid <- [$sp+0]
	@DEBUG_VALUE: AT_Cmd_ConnectAP:pwd <- $r6
	@DEBUG_VALUE: AT_Cmd_ConnectAP:ssid <- $r7
	@DEBUG_VALUE: AT_Cmd_ConnectAP:at_cmode <- $r5
	movs	r0, #2
	add	r2, sp, #4
.Ltmp496:
	.loc	5 1844 7 prologue_end           @ C:/Users/shw26/AppData/Local/Arm/Packs/ARM/CMSIS-Driver/2.6.1/WiFi/ESP8266/ESP8266.c:1844:7
	mov	r1, r5
	bl	CmdOpen
	mov	r4, r0
.Ltmp497:
	@DEBUG_VALUE: AT_Cmd_ConnectAP:n <- $r4
	.loc	5 1846 7                        @ C:/Users/shw26/AppData/Local/Arm/Packs/ARM/CMSIS-Driver/2.6.1/WiFi/ESP8266/ESP8266.c:1846:7
	cmp	r5, #1
	bne	.LBB33_3
.Ltmp498:
@ %bb.1:
	@DEBUG_VALUE: AT_Cmd_ConnectAP:ssid <- $r7
	@DEBUG_VALUE: AT_Cmd_ConnectAP:pwd <- $r6
	@DEBUG_VALUE: AT_Cmd_ConnectAP:at_cmode <- $r5
	@DEBUG_VALUE: AT_Cmd_ConnectAP:n <- $r4
	@DEBUG_VALUE: AT_Cmd_ConnectAP:bssid <- [$sp+0]
	.loc	5 0 7 is_stmt 0                 @ C:/Users/shw26/AppData/Local/Arm/Packs/ARM/CMSIS-Driver/2.6.1/WiFi/ESP8266/ESP8266.c:0:7
	add	r0, sp, #4
.Ltmp499:
	.loc	5 1848 20 is_stmt 1             @ C:/Users/shw26/AppData/Local/Arm/Packs/ARM/CMSIS-Driver/2.6.1/WiFi/ESP8266/ESP8266.c:1848:20
	adds	r0, r0, r4
	.loc	5 1848 10 is_stmt 0             @ C:/Users/shw26/AppData/Local/Arm/Packs/ARM/CMSIS-Driver/2.6.1/WiFi/ESP8266/ESP8266.c:1848:10
	adr	r1, .LCPI33_0
	mov	r2, r7
	mov	r3, r6
	bl	__2sprintf
	.loc	5 1848 7                        @ C:/Users/shw26/AppData/Local/Arm/Packs/ARM/CMSIS-Driver/2.6.1/WiFi/ESP8266/ESP8266.c:1848:7
	adds	r4, r0, r4
.Ltmp500:
	@DEBUG_VALUE: AT_Cmd_ConnectAP:n <- $r4
	.loc	5 0 7                           @ C:/Users/shw26/AppData/Local/Arm/Packs/ARM/CMSIS-Driver/2.6.1/WiFi/ESP8266/ESP8266.c:0:7
	ldr	r2, [sp]                        @ 4-byte Reload
	.loc	5 1850 9 is_stmt 1              @ C:/Users/shw26/AppData/Local/Arm/Packs/ARM/CMSIS-Driver/2.6.1/WiFi/ESP8266/ESP8266.c:1850:9
	cbz	r2, .LBB33_3
.Ltmp501:
@ %bb.2:
	@DEBUG_VALUE: AT_Cmd_ConnectAP:ssid <- $r7
	@DEBUG_VALUE: AT_Cmd_ConnectAP:pwd <- $r6
	@DEBUG_VALUE: AT_Cmd_ConnectAP:at_cmode <- $r5
	@DEBUG_VALUE: AT_Cmd_ConnectAP:n <- $r4
	@DEBUG_VALUE: AT_Cmd_ConnectAP:bssid <- [$sp+0]
	.loc	5 0 9 is_stmt 0                 @ C:/Users/shw26/AppData/Local/Arm/Packs/ARM/CMSIS-Driver/2.6.1/WiFi/ESP8266/ESP8266.c:0:9
	add	r0, sp, #4
.Ltmp502:
	.loc	5 1851 22 is_stmt 1             @ C:/Users/shw26/AppData/Local/Arm/Packs/ARM/CMSIS-Driver/2.6.1/WiFi/ESP8266/ESP8266.c:1851:22
	adds	r0, r0, r4
	.loc	5 1851 12 is_stmt 0             @ C:/Users/shw26/AppData/Local/Arm/Packs/ARM/CMSIS-Driver/2.6.1/WiFi/ESP8266/ESP8266.c:1851:12
	adr	r1, .LCPI33_1
	bl	__2sprintf
	.loc	5 1851 9                        @ C:/Users/shw26/AppData/Local/Arm/Packs/ARM/CMSIS-Driver/2.6.1/WiFi/ESP8266/ESP8266.c:1851:9
	adds	r4, r0, r4
.Ltmp503:
	@DEBUG_VALUE: AT_Cmd_ConnectAP:n <- $r4
.LBB33_3:
	@DEBUG_VALUE: AT_Cmd_ConnectAP:ssid <- $r7
	@DEBUG_VALUE: AT_Cmd_ConnectAP:pwd <- $r6
	@DEBUG_VALUE: AT_Cmd_ConnectAP:at_cmode <- $r5
	@DEBUG_VALUE: AT_Cmd_ConnectAP:n <- $r4
	@DEBUG_VALUE: AT_Cmd_ConnectAP:bssid <- [$sp+0]
	@DEBUG_VALUE: AT_Cmd_ConnectAP:n <- $r4
	.loc	5 0 9                           @ C:/Users/shw26/AppData/Local/Arm/Packs/ARM/CMSIS-Driver/2.6.1/WiFi/ESP8266/ESP8266.c:0:9
	movs	r0, #2
	add	r1, sp, #4
	.loc	5 1856 11 is_stmt 1             @ C:/Users/shw26/AppData/Local/Arm/Packs/ARM/CMSIS-Driver/2.6.1/WiFi/ESP8266/ESP8266.c:1856:11
	mov	r2, r4
	bl	CmdSend
	.loc	5 1856 3 is_stmt 0              @ C:/Users/shw26/AppData/Local/Arm/Packs/ARM/CMSIS-Driver/2.6.1/WiFi/ESP8266/ESP8266.c:1856:3
	add	sp, #68
.Ltmp504:
	pop	{r4, r5, r6, r7, pc}
.Ltmp505:
	.p2align	2
@ %bb.4:
	.loc	5 0 3                           @ C:/Users/shw26/AppData/Local/Arm/Packs/ARM/CMSIS-Driver/2.6.1/WiFi/ESP8266/ESP8266.c:0:3
.LCPI33_0:
.L.str.7:
	.asciz	"\"%s\",\"%s\"\000\000"
.LCPI33_1:
.L.str.8:
	.asciz	",\"%s\"\000\000"
.Lfunc_end33:
	.size	AT_Cmd_ConnectAP, .Lfunc_end33-AT_Cmd_ConnectAP
	.cfi_endproc
	.cantunwind
	.fnend
                                        @ -- End function
	.section	.text.AT_Resp_ConnectAP,"ax",%progbits
	.hidden	AT_Resp_ConnectAP               @ -- Begin function AT_Resp_ConnectAP
	.globl	AT_Resp_ConnectAP
	.p2align	2
	.type	AT_Resp_ConnectAP,%function
	.code	16                              @ @AT_Resp_ConnectAP
	.thumb_func
AT_Resp_ConnectAP:
.Lfunc_begin34:
	.loc	5 1877 0 is_stmt 1              @ C:/Users/shw26/AppData/Local/Arm/Packs/ARM/CMSIS-Driver/2.6.1/WiFi/ESP8266/ESP8266.c:1877:0
	.fnstart
	.cfi_startproc
@ %bb.0:
	@DEBUG_VALUE: AT_Resp_ConnectAP:ap <- $r0
	.save	{r4, r5, r6, r7, lr}
	push	{r4, r5, r6, r7, lr}
	.cfi_def_cfa_offset 20
	.cfi_offset lr, -4
	.cfi_offset r7, -8
	.cfi_offset r6, -12
	.cfi_offset r5, -16
	.cfi_offset r4, -20
	.pad	#60
	sub	sp, #60
	.cfi_def_cfa_offset 80
	mov	r5, r0
.Ltmp506:
	@DEBUG_VALUE: AT_Resp_ConnectAP:a <- 0
	@DEBUG_VALUE: AT_Resp_ConnectAP:ap <- $r5
	.loc	5 0 0 prologue_end              @ C:/Users/shw26/AppData/Local/Arm/Packs/ARM/CMSIS-Driver/2.6.1/WiFi/ESP8266/ESP8266.c:0:0
	adds	r0, #33
	str	r0, [sp, #8]                    @ 4-byte Spill
	mov	r0, r5
	adds	r0, #39
	str	r0, [sp, #12]                   @ 4-byte Spill
	movs	r6, #0
	movs	r7, #33
	movs	r0, #1
	str	r0, [sp, #16]                   @ 4-byte Spill
	movs	r0, #10
	str	r0, [sp, #4]                    @ 4-byte Spill
	b	.LBB34_2
.Ltmp507:
.LBB34_1:                               @   in Loop: Header=BB34_2 Depth=1
	@DEBUG_VALUE: AT_Resp_ConnectAP:a <- $r6
	@DEBUG_VALUE: AT_Resp_ConnectAP:ap <- $r5
	@DEBUG_VALUE: AT_Resp_ConnectAP:val <- $r4
	@DEBUG_VALUE: AT_Resp_ConnectAP:a <- [DW_OP_plus_uconst 1, DW_OP_stack_value] $r6
	.loc	5 1932 21                       @ C:/Users/shw26/AppData/Local/Arm/Packs/ARM/CMSIS-Driver/2.6.1/WiFi/ESP8266/ESP8266.c:1932:21
	mov	r0, r4
	ldr	r1, [sp, #16]                   @ 4-byte Reload
	bics	r0, r1
.Ltmp508:
	.loc	5 1929 8                        @ C:/Users/shw26/AppData/Local/Arm/Packs/ARM/CMSIS-Driver/2.6.1/WiFi/ESP8266/ESP8266.c:1929:8
	adds	r6, r6, #1
.Ltmp509:
	@DEBUG_VALUE: AT_Resp_ConnectAP:a <- $r6
	.loc	5 1931 3                        @ C:/Users/shw26/AppData/Local/Arm/Packs/ARM/CMSIS-Driver/2.6.1/WiFi/ESP8266/ESP8266.c:1931:3
	cmp	r0, #2
	beq	.LBB34_11
.Ltmp510:
.LBB34_2:                               @ =>This Inner Loop Header: Depth=1
	@DEBUG_VALUE: AT_Resp_ConnectAP:ap <- $r5
	@DEBUG_VALUE: AT_Resp_ConnectAP:a <- $r6
	.loc	5 0 3 is_stmt 0                 @ C:/Users/shw26/AppData/Local/Arm/Packs/ARM/CMSIS-Driver/2.6.1/WiFi/ESP8266/ESP8266.c:0:3
	add	r0, sp, #20
	.loc	5 1888 11 is_stmt 1             @ C:/Users/shw26/AppData/Local/Arm/Packs/ARM/CMSIS-Driver/2.6.1/WiFi/ESP8266/ESP8266.c:1888:11
	mov	r1, r7
	bl	GetRespArg
	mov	r4, r0
.Ltmp511:
	@DEBUG_VALUE: AT_Resp_ConnectAP:val <- $r4
	.loc	5 1890 9                        @ C:/Users/shw26/AppData/Local/Arm/Packs/ARM/CMSIS-Driver/2.6.1/WiFi/ESP8266/ESP8266.c:1890:9
	cmp	r0, #0
	bmi	.LBB34_11
.Ltmp512:
@ %bb.3:                                @   in Loop: Header=BB34_2 Depth=1
	@DEBUG_VALUE: AT_Resp_ConnectAP:a <- $r6
	@DEBUG_VALUE: AT_Resp_ConnectAP:ap <- $r5
	@DEBUG_VALUE: AT_Resp_ConnectAP:val <- $r4
	.loc	5 1894 9                        @ C:/Users/shw26/AppData/Local/Arm/Packs/ARM/CMSIS-Driver/2.6.1/WiFi/ESP8266/ESP8266.c:1894:9
	cbz	r5, .LBB34_14
.Ltmp513:
@ %bb.4:                                @   in Loop: Header=BB34_2 Depth=1
	@DEBUG_VALUE: AT_Resp_ConnectAP:a <- $r6
	@DEBUG_VALUE: AT_Resp_ConnectAP:ap <- $r5
	@DEBUG_VALUE: AT_Resp_ConnectAP:val <- $r4
	.loc	5 0 9 is_stmt 0                 @ C:/Users/shw26/AppData/Local/Arm/Packs/ARM/CMSIS-Driver/2.6.1/WiFi/ESP8266/ESP8266.c:0:9
	add	r0, sp, #20
.Ltmp514:
	.loc	5 1901 9 is_stmt 1              @ C:/Users/shw26/AppData/Local/Arm/Packs/ARM/CMSIS-Driver/2.6.1/WiFi/ESP8266/ESP8266.c:1901:9
	str	r0, [sp, #56]
	.loc	5 1904 11                       @ C:/Users/shw26/AppData/Local/Arm/Packs/ARM/CMSIS-Driver/2.6.1/WiFi/ESP8266/ESP8266.c:1904:11
	cmp	r6, #3
.Ltmp515:
	@DEBUG_VALUE: AT_Resp_ConnectAP:p <- [DW_OP_plus_uconst 20, DW_OP_stack_value] $sp
	bhi	.LBB34_1
.Ltmp516:
@ %bb.5:                                @   in Loop: Header=BB34_2 Depth=1
	@DEBUG_VALUE: AT_Resp_ConnectAP:a <- $r6
	@DEBUG_VALUE: AT_Resp_ConnectAP:ap <- $r5
	@DEBUG_VALUE: AT_Resp_ConnectAP:val <- $r4
	@DEBUG_VALUE: AT_Resp_ConnectAP:p <- [DW_OP_plus_uconst 20, DW_OP_stack_value] $sp
	.loc	5 0 11 is_stmt 0                @ C:/Users/shw26/AppData/Local/Arm/Packs/ARM/CMSIS-Driver/2.6.1/WiFi/ESP8266/ESP8266.c:0:11
	lsls	r0, r6, #2
	adr	r1, .LJTI34_0
	adds	r0, r1, r0
	mov	pc, r0
.Ltmp517:
@ %bb.6:
	.p2align	2
.LJTI34_0:
	b.w	.LBB34_8
	b.w	.LBB34_9
	b.w	.LBB34_10
	b.w	.LBB34_7
.LBB34_7:                               @   in Loop: Header=BB34_2 Depth=1
.Ltmp518:
	@DEBUG_VALUE: AT_Resp_ConnectAP:a <- $r6
	@DEBUG_VALUE: AT_Resp_ConnectAP:ap <- $r5
	@DEBUG_VALUE: AT_Resp_ConnectAP:val <- $r4
	@DEBUG_VALUE: AT_Resp_ConnectAP:p <- [DW_OP_plus_uconst 20, DW_OP_stack_value] $sp
	@DEBUG_VALUE: AT_Resp_ConnectAP:p <- [DW_OP_plus_uconst 56, DW_OP_deref] $sp
	add	r0, sp, #20
	add	r1, sp, #56
	movs	r2, #10
.Ltmp519:
	.loc	5 1920 16 is_stmt 1             @ C:/Users/shw26/AppData/Local/Arm/Packs/ARM/CMSIS-Driver/2.6.1/WiFi/ESP8266/ESP8266.c:1920:16
	bl	strtoul
.Ltmp520:
	@DEBUG_VALUE: AT_Resp_ConnectAP:uval <- $r0
	.loc	5 1922 18                       @ C:/Users/shw26/AppData/Local/Arm/Packs/ARM/CMSIS-Driver/2.6.1/WiFi/ESP8266/ESP8266.c:1922:18
	ldr	r1, [sp, #12]                   @ 4-byte Reload
	strb	r0, [r1, #1]
	b	.LBB34_1
.Ltmp521:
.LBB34_8:                               @   in Loop: Header=BB34_2 Depth=1
	@DEBUG_VALUE: AT_Resp_ConnectAP:a <- $r6
	@DEBUG_VALUE: AT_Resp_ConnectAP:ap <- $r5
	@DEBUG_VALUE: AT_Resp_ConnectAP:val <- $r4
	@DEBUG_VALUE: AT_Resp_ConnectAP:p <- [DW_OP_plus_uconst 20, DW_OP_stack_value] $sp
	.loc	5 0 18 is_stmt 0                @ C:/Users/shw26/AppData/Local/Arm/Packs/ARM/CMSIS-Driver/2.6.1/WiFi/ESP8266/ESP8266.c:0:18
	add	r1, sp, #20
.Ltmp522:
	.loc	5 1906 9 is_stmt 1              @ C:/Users/shw26/AppData/Local/Arm/Packs/ARM/CMSIS-Driver/2.6.1/WiFi/ESP8266/ESP8266.c:1906:9
	mov	r0, r5
	bl	strcpy
	b	.LBB34_1
.Ltmp523:
.LBB34_9:                               @   in Loop: Header=BB34_2 Depth=1
	@DEBUG_VALUE: AT_Resp_ConnectAP:a <- $r6
	@DEBUG_VALUE: AT_Resp_ConnectAP:ap <- $r5
	@DEBUG_VALUE: AT_Resp_ConnectAP:val <- $r4
	@DEBUG_VALUE: AT_Resp_ConnectAP:p <- [DW_OP_plus_uconst 20, DW_OP_stack_value] $sp
	.loc	5 0 9 is_stmt 0                 @ C:/Users/shw26/AppData/Local/Arm/Packs/ARM/CMSIS-Driver/2.6.1/WiFi/ESP8266/ESP8266.c:0:9
	add	r0, sp, #20
.Ltmp524:
	.loc	5 1910 9 is_stmt 1              @ C:/Users/shw26/AppData/Local/Arm/Packs/ARM/CMSIS-Driver/2.6.1/WiFi/ESP8266/ESP8266.c:1910:9
	ldr	r1, [sp, #8]                    @ 4-byte Reload
	bl	AT_Parse_MAC
	b	.LBB34_1
.Ltmp525:
.LBB34_10:                              @   in Loop: Header=BB34_2 Depth=1
	@DEBUG_VALUE: AT_Resp_ConnectAP:a <- $r6
	@DEBUG_VALUE: AT_Resp_ConnectAP:ap <- $r5
	@DEBUG_VALUE: AT_Resp_ConnectAP:val <- $r4
	@DEBUG_VALUE: AT_Resp_ConnectAP:p <- [DW_OP_plus_uconst 20, DW_OP_stack_value] $sp
	@DEBUG_VALUE: AT_Resp_ConnectAP:p <- [DW_OP_plus_uconst 56, DW_OP_deref] $sp
	.loc	5 0 9 is_stmt 0                 @ C:/Users/shw26/AppData/Local/Arm/Packs/ARM/CMSIS-Driver/2.6.1/WiFi/ESP8266/ESP8266.c:0:9
	add	r0, sp, #20
	add	r1, sp, #56
.Ltmp526:
	.loc	5 1914 16 is_stmt 1             @ C:/Users/shw26/AppData/Local/Arm/Packs/ARM/CMSIS-Driver/2.6.1/WiFi/ESP8266/ESP8266.c:1914:16
	ldr	r2, [sp, #4]                    @ 4-byte Reload
	bl	strtoul
.Ltmp527:
	@DEBUG_VALUE: AT_Resp_ConnectAP:uval <- $r0
	.loc	5 1916 16                       @ C:/Users/shw26/AppData/Local/Arm/Packs/ARM/CMSIS-Driver/2.6.1/WiFi/ESP8266/ESP8266.c:1916:16
	ldr	r1, [sp, #12]                   @ 4-byte Reload
	strb	r0, [r1]
	b	.LBB34_1
.Ltmp528:
.LBB34_11:
	@DEBUG_VALUE: AT_Resp_ConnectAP:a <- $r6
	@DEBUG_VALUE: AT_Resp_ConnectAP:ap <- $r5
	@DEBUG_VALUE: AT_Resp_ConnectAP:val <- $r4
	.loc	5 1934 7                        @ C:/Users/shw26/AppData/Local/Arm/Packs/ARM/CMSIS-Driver/2.6.1/WiFi/ESP8266/ESP8266.c:1934:7
	cmp	r4, #3
	beq	.LBB34_15
.Ltmp529:
@ %bb.12:
	@DEBUG_VALUE: AT_Resp_ConnectAP:a <- $r6
	@DEBUG_VALUE: AT_Resp_ConnectAP:ap <- $r5
	@DEBUG_VALUE: AT_Resp_ConnectAP:val <- $r4
	cmp	r4, #2
	bne	.LBB34_16
.Ltmp530:
@ %bb.13:
	@DEBUG_VALUE: AT_Resp_ConnectAP:a <- $r6
	@DEBUG_VALUE: AT_Resp_ConnectAP:ap <- $r5
	@DEBUG_VALUE: AT_Resp_ConnectAP:val <- $r4
	@DEBUG_VALUE: AT_Resp_ConnectAP:val <- 1
	.loc	5 0 7 is_stmt 0                 @ C:/Users/shw26/AppData/Local/Arm/Packs/ARM/CMSIS-Driver/2.6.1/WiFi/ESP8266/ESP8266.c:0:7
	ldr	r0, [sp, #16]                   @ 4-byte Reload
	.loc	5 1946 1 is_stmt 1              @ C:/Users/shw26/AppData/Local/Arm/Packs/ARM/CMSIS-Driver/2.6.1/WiFi/ESP8266/ESP8266.c:1946:1
	add	sp, #60
	pop	{r4, r5, r6, r7, pc}
.Ltmp531:
.LBB34_14:
	@DEBUG_VALUE: AT_Resp_ConnectAP:a <- $r6
	@DEBUG_VALUE: AT_Resp_ConnectAP:ap <- $r5
	@DEBUG_VALUE: AT_Resp_ConnectAP:val <- $r4
	.loc	5 0 1 is_stmt 0                 @ C:/Users/shw26/AppData/Local/Arm/Packs/ARM/CMSIS-Driver/2.6.1/WiFi/ESP8266/ESP8266.c:0:1
	add	r0, sp, #20
.Ltmp532:
	.loc	5 1896 15 is_stmt 1             @ C:/Users/shw26/AppData/Local/Arm/Packs/ARM/CMSIS-Driver/2.6.1/WiFi/ESP8266/ESP8266.c:1896:15
	ldrb	r0, [r0]
	.loc	5 1896 22 is_stmt 0             @ C:/Users/shw26/AppData/Local/Arm/Packs/ARM/CMSIS-Driver/2.6.1/WiFi/ESP8266/ESP8266.c:1896:22
	subs	r0, #48
.Ltmp533:
	.loc	5 1946 1 is_stmt 1              @ C:/Users/shw26/AppData/Local/Arm/Packs/ARM/CMSIS-Driver/2.6.1/WiFi/ESP8266/ESP8266.c:1946:1
	add	sp, #60
	pop	{r4, r5, r6, r7, pc}
.Ltmp534:
.LBB34_15:
	@DEBUG_VALUE: AT_Resp_ConnectAP:a <- $r6
	@DEBUG_VALUE: AT_Resp_ConnectAP:ap <- $r5
	@DEBUG_VALUE: AT_Resp_ConnectAP:val <- $r4
	.loc	5 0 1 is_stmt 0                 @ C:/Users/shw26/AppData/Local/Arm/Packs/ARM/CMSIS-Driver/2.6.1/WiFi/ESP8266/ESP8266.c:0:1
	movs	r0, #0
	.loc	5 1946 1                        @ C:/Users/shw26/AppData/Local/Arm/Packs/ARM/CMSIS-Driver/2.6.1/WiFi/ESP8266/ESP8266.c:1946:1
	add	sp, #60
	pop	{r4, r5, r6, r7, pc}
.Ltmp535:
.LBB34_16:
	@DEBUG_VALUE: AT_Resp_ConnectAP:a <- $r6
	@DEBUG_VALUE: AT_Resp_ConnectAP:ap <- $r5
	@DEBUG_VALUE: AT_Resp_ConnectAP:val <- $r4
	.loc	5 0 0                           @ C:/Users/shw26/AppData/Local/Arm/Packs/ARM/CMSIS-Driver/2.6.1/WiFi/ESP8266/ESP8266.c:0:0
	mov	r0, r4
	.loc	5 1946 1                        @ C:/Users/shw26/AppData/Local/Arm/Packs/ARM/CMSIS-Driver/2.6.1/WiFi/ESP8266/ESP8266.c:1946:1
	add	sp, #60
	pop	{r4, r5, r6, r7, pc}
.Ltmp536:
.Lfunc_end34:
	.size	AT_Resp_ConnectAP, .Lfunc_end34-AT_Resp_ConnectAP
	.cfi_endproc
	.cantunwind
	.fnend
                                        @ -- End function
	.section	.text.AT_Cmd_DisconnectAP,"ax",%progbits
	.hidden	AT_Cmd_DisconnectAP             @ -- Begin function AT_Cmd_DisconnectAP
	.globl	AT_Cmd_DisconnectAP
	.p2align	1
	.type	AT_Cmd_DisconnectAP,%function
	.code	16                              @ @AT_Cmd_DisconnectAP
	.thumb_func
AT_Cmd_DisconnectAP:
.Lfunc_begin35:
	.loc	5 1954 0 is_stmt 1              @ C:/Users/shw26/AppData/Local/Arm/Packs/ARM/CMSIS-Driver/2.6.1/WiFi/ESP8266/ESP8266.c:1954:0
	.fnstart
	.cfi_startproc
@ %bb.0:
	.save	{r4, r5, r7, lr}
	push	{r4, r5, r7, lr}
	.cfi_def_cfa_offset 16
	.cfi_offset lr, -4
	.cfi_offset r7, -8
	.cfi_offset r5, -12
	.cfi_offset r4, -16
	.pad	#32
	sub	sp, #32
	.cfi_def_cfa_offset 48
	movs	r4, #3
	movs	r1, #2
	mov	r5, sp
.Ltmp537:
	.loc	5 1959 7 prologue_end           @ C:/Users/shw26/AppData/Local/Arm/Packs/ARM/CMSIS-Driver/2.6.1/WiFi/ESP8266/ESP8266.c:1959:7
	mov	r0, r4
	mov	r2, r5
	bl	CmdOpen
	mov	r2, r0
.Ltmp538:
	@DEBUG_VALUE: AT_Cmd_DisconnectAP:n <- $r2
	.loc	5 1962 11                       @ C:/Users/shw26/AppData/Local/Arm/Packs/ARM/CMSIS-Driver/2.6.1/WiFi/ESP8266/ESP8266.c:1962:11
	mov	r0, r4
	mov	r1, r5
	bl	CmdSend
.Ltmp539:
	.loc	5 1962 3 is_stmt 0              @ C:/Users/shw26/AppData/Local/Arm/Packs/ARM/CMSIS-Driver/2.6.1/WiFi/ESP8266/ESP8266.c:1962:3
	add	sp, #32
	pop	{r4, r5, r7, pc}
.Ltmp540:
.Lfunc_end35:
	.size	AT_Cmd_DisconnectAP, .Lfunc_end35-AT_Cmd_DisconnectAP
	.cfi_endproc
	.cantunwind
	.fnend
                                        @ -- End function
	.section	.text.AT_Cmd_ConfigureAP,"ax",%progbits
	.hidden	AT_Cmd_ConfigureAP              @ -- Begin function AT_Cmd_ConfigureAP
	.globl	AT_Cmd_ConfigureAP
	.p2align	2
	.type	AT_Cmd_ConfigureAP,%function
	.code	16                              @ @AT_Cmd_ConfigureAP
	.thumb_func
AT_Cmd_ConfigureAP:
.Lfunc_begin36:
	.loc	5 1971 0 is_stmt 1              @ C:/Users/shw26/AppData/Local/Arm/Packs/ARM/CMSIS-Driver/2.6.1/WiFi/ESP8266/ESP8266.c:1971:0
	.fnstart
	.cfi_startproc
@ %bb.0:
	@DEBUG_VALUE: AT_Cmd_ConfigureAP:at_cmode <- $r0
	@DEBUG_VALUE: AT_Cmd_ConfigureAP:cfg <- $r1
	.save	{r4, r5, r6, lr}
	push	{r4, r5, r6, lr}
	.cfi_def_cfa_offset 16
	.cfi_offset lr, -4
	.cfi_offset r6, -8
	.cfi_offset r5, -12
	.cfi_offset r4, -16
	.pad	#72
	sub	sp, #72
	.cfi_def_cfa_offset 88
	mov	r4, r1
	mov	r6, r0
.Ltmp541:
	@DEBUG_VALUE: AT_Cmd_ConfigureAP:cfg <- $r4
	@DEBUG_VALUE: AT_Cmd_ConfigureAP:at_cmode <- $r6
	movs	r0, #4
	add	r2, sp, #8
.Ltmp542:
	.loc	5 1976 7 prologue_end           @ C:/Users/shw26/AppData/Local/Arm/Packs/ARM/CMSIS-Driver/2.6.1/WiFi/ESP8266/ESP8266.c:1976:7
	mov	r1, r6
	bl	CmdOpen
	mov	r5, r0
.Ltmp543:
	@DEBUG_VALUE: AT_Cmd_ConfigureAP:n <- $r5
	.loc	5 1978 7                        @ C:/Users/shw26/AppData/Local/Arm/Packs/ARM/CMSIS-Driver/2.6.1/WiFi/ESP8266/ESP8266.c:1978:7
	cmp	r6, #1
	bne	.LBB36_2
.Ltmp544:
@ %bb.1:
	@DEBUG_VALUE: AT_Cmd_ConfigureAP:at_cmode <- $r6
	@DEBUG_VALUE: AT_Cmd_ConfigureAP:n <- $r5
	@DEBUG_VALUE: AT_Cmd_ConfigureAP:cfg <- $r4
	.loc	5 1980 56                       @ C:/Users/shw26/AppData/Local/Arm/Packs/ARM/CMSIS-Driver/2.6.1/WiFi/ESP8266/ESP8266.c:1980:56
	ldm	r4!, {r2, r3}
.Ltmp545:
	.loc	5 1980 77 is_stmt 0             @ C:/Users/shw26/AppData/Local/Arm/Packs/ARM/CMSIS-Driver/2.6.1/WiFi/ESP8266/ESP8266.c:1980:77
	ldrb	r0, [r4]
	.loc	5 1980 86                       @ C:/Users/shw26/AppData/Local/Arm/Packs/ARM/CMSIS-Driver/2.6.1/WiFi/ESP8266/ESP8266.c:1980:86
	ldrb	r1, [r4, #1]
	.loc	5 1980 10                       @ C:/Users/shw26/AppData/Local/Arm/Packs/ARM/CMSIS-Driver/2.6.1/WiFi/ESP8266/ESP8266.c:1980:10
	str	r0, [sp]
	str	r1, [sp, #4]
	add	r6, sp, #8
.Ltmp546:
	.loc	5 1980 20                       @ C:/Users/shw26/AppData/Local/Arm/Packs/ARM/CMSIS-Driver/2.6.1/WiFi/ESP8266/ESP8266.c:1980:20
	adds	r0, r6, r5
	.loc	5 1980 10                       @ C:/Users/shw26/AppData/Local/Arm/Packs/ARM/CMSIS-Driver/2.6.1/WiFi/ESP8266/ESP8266.c:1980:10
	adr	r1, .LCPI36_0
	.loc	5 1980 56                       @ C:/Users/shw26/AppData/Local/Arm/Packs/ARM/CMSIS-Driver/2.6.1/WiFi/ESP8266/ESP8266.c:1980:56
	subs	r4, #8
	.loc	5 1980 10                       @ C:/Users/shw26/AppData/Local/Arm/Packs/ARM/CMSIS-Driver/2.6.1/WiFi/ESP8266/ESP8266.c:1980:10
	bl	__2sprintf
	.loc	5 1980 7                        @ C:/Users/shw26/AppData/Local/Arm/Packs/ARM/CMSIS-Driver/2.6.1/WiFi/ESP8266/ESP8266.c:1980:7
	adds	r5, r0, r5
.Ltmp547:
	@DEBUG_VALUE: AT_Cmd_ConfigureAP:n <- $r5
	.loc	5 1983 20 is_stmt 1             @ C:/Users/shw26/AppData/Local/Arm/Packs/ARM/CMSIS-Driver/2.6.1/WiFi/ESP8266/ESP8266.c:1983:20
	adds	r0, r6, r5
	.loc	5 1983 43 is_stmt 0             @ C:/Users/shw26/AppData/Local/Arm/Packs/ARM/CMSIS-Driver/2.6.1/WiFi/ESP8266/ESP8266.c:1983:43
	ldrb	r2, [r4, #10]
	.loc	5 1983 58                       @ C:/Users/shw26/AppData/Local/Arm/Packs/ARM/CMSIS-Driver/2.6.1/WiFi/ESP8266/ESP8266.c:1983:58
	ldrb	r3, [r4, #11]
	.loc	5 1983 10                       @ C:/Users/shw26/AppData/Local/Arm/Packs/ARM/CMSIS-Driver/2.6.1/WiFi/ESP8266/ESP8266.c:1983:10
	ldr	r1, __arm_cp.36_1
	bl	__2sprintf
	.loc	5 1983 7                        @ C:/Users/shw26/AppData/Local/Arm/Packs/ARM/CMSIS-Driver/2.6.1/WiFi/ESP8266/ESP8266.c:1983:7
	adds	r5, r0, r5
.Ltmp548:
	@DEBUG_VALUE: AT_Cmd_ConfigureAP:n <- $r5
.LBB36_2:
	@DEBUG_VALUE: AT_Cmd_ConfigureAP:n <- $r5
	@DEBUG_VALUE: AT_Cmd_ConfigureAP:n <- $r5
	.loc	5 0 7                           @ C:/Users/shw26/AppData/Local/Arm/Packs/ARM/CMSIS-Driver/2.6.1/WiFi/ESP8266/ESP8266.c:0:7
	movs	r0, #4
	add	r1, sp, #8
	.loc	5 1987 11 is_stmt 1             @ C:/Users/shw26/AppData/Local/Arm/Packs/ARM/CMSIS-Driver/2.6.1/WiFi/ESP8266/ESP8266.c:1987:11
	mov	r2, r5
	bl	CmdSend
	.loc	5 1987 3 is_stmt 0              @ C:/Users/shw26/AppData/Local/Arm/Packs/ARM/CMSIS-Driver/2.6.1/WiFi/ESP8266/ESP8266.c:1987:3
	add	sp, #72
	pop	{r4, r5, r6, pc}
.Ltmp549:
	.p2align	2
@ %bb.3:
	.loc	5 0 3                           @ C:/Users/shw26/AppData/Local/Arm/Packs/ARM/CMSIS-Driver/2.6.1/WiFi/ESP8266/ESP8266.c:0:3
.LCPI36_0:
.L.str.9:
	.asciz	"\"%s\",\"%s\",%d,%d"
__arm_cp.36_1:
	.long	.L.str.10
.Lcpi_end20:
	.size	__arm_cp.36_1, .Lcpi_end20-__arm_cp.36_1
.Lfunc_end36:
	.size	AT_Cmd_ConfigureAP, .Lfunc_end36-AT_Cmd_ConfigureAP
	.cfi_endproc
	.cantunwind
	.fnend
                                        @ -- End function
	.section	.text.AT_Resp_ConfigureAP,"ax",%progbits
	.hidden	AT_Resp_ConfigureAP             @ -- Begin function AT_Resp_ConfigureAP
	.globl	AT_Resp_ConfigureAP
	.p2align	2
	.type	AT_Resp_ConfigureAP,%function
	.code	16                              @ @AT_Resp_ConfigureAP
	.thumb_func
AT_Resp_ConfigureAP:
.Lfunc_begin37:
	.loc	5 1998 0 is_stmt 1              @ C:/Users/shw26/AppData/Local/Arm/Packs/ARM/CMSIS-Driver/2.6.1/WiFi/ESP8266/ESP8266.c:1998:0
	.fnstart
	.cfi_startproc
@ %bb.0:
	@DEBUG_VALUE: AT_Resp_ConfigureAP:cfg <- $r0
	.save	{r4, r5, r6, r7, lr}
	push	{r4, r5, r6, r7, lr}
	.cfi_def_cfa_offset 20
	.cfi_offset lr, -4
	.cfi_offset r7, -8
	.cfi_offset r6, -12
	.cfi_offset r5, -16
	.cfi_offset r4, -20
	.pad	#52
	sub	sp, #52
	.cfi_def_cfa_offset 72
	str	r0, [sp, #8]                    @ 4-byte Spill
.Ltmp550:
	@DEBUG_VALUE: AT_Resp_ConfigureAP:cfg <- [DW_OP_plus_uconst 8] [$sp+0]
	movs	r5, #0
.Ltmp551:
	@DEBUG_VALUE: AT_Resp_ConfigureAP:a <- 0
	movs	r6, #33
	movs	r7, #1
	movs	r0, #10
	str	r0, [sp, #4]                    @ 4-byte Spill
	b	.LBB37_2
.Ltmp552:
.LBB37_1:                               @   in Loop: Header=BB37_2 Depth=1
	@DEBUG_VALUE: AT_Resp_ConfigureAP:a <- $r5
	@DEBUG_VALUE: AT_Resp_ConfigureAP:val <- $r4
	@DEBUG_VALUE: AT_Resp_ConfigureAP:cfg <- [DW_OP_plus_uconst 8] [$sp+0]
	@DEBUG_VALUE: AT_Resp_ConfigureAP:a <- [DW_OP_plus_uconst 1, DW_OP_stack_value] $r5
	.loc	5 2056 21 prologue_end          @ C:/Users/shw26/AppData/Local/Arm/Packs/ARM/CMSIS-Driver/2.6.1/WiFi/ESP8266/ESP8266.c:2056:21
	mov	r0, r4
	bics	r0, r7
.Ltmp553:
	.loc	5 2053 8                        @ C:/Users/shw26/AppData/Local/Arm/Packs/ARM/CMSIS-Driver/2.6.1/WiFi/ESP8266/ESP8266.c:2053:8
	adds	r5, r5, #1
.Ltmp554:
	@DEBUG_VALUE: AT_Resp_ConfigureAP:a <- $r5
	.loc	5 2055 3                        @ C:/Users/shw26/AppData/Local/Arm/Packs/ARM/CMSIS-Driver/2.6.1/WiFi/ESP8266/ESP8266.c:2055:3
	cmp	r0, #2
	beq	.LBB37_13
.Ltmp555:
.LBB37_2:                               @ =>This Inner Loop Header: Depth=1
	@DEBUG_VALUE: AT_Resp_ConfigureAP:cfg <- [DW_OP_plus_uconst 8] [$sp+0]
	@DEBUG_VALUE: AT_Resp_ConfigureAP:a <- $r5
	.loc	5 0 3 is_stmt 0                 @ C:/Users/shw26/AppData/Local/Arm/Packs/ARM/CMSIS-Driver/2.6.1/WiFi/ESP8266/ESP8266.c:0:3
	add	r0, sp, #12
	.loc	5 2009 11 is_stmt 1             @ C:/Users/shw26/AppData/Local/Arm/Packs/ARM/CMSIS-Driver/2.6.1/WiFi/ESP8266/ESP8266.c:2009:11
	mov	r1, r6
	bl	GetRespArg
	mov	r4, r0
.Ltmp556:
	@DEBUG_VALUE: AT_Resp_ConfigureAP:val <- $r4
	.loc	5 2011 9                        @ C:/Users/shw26/AppData/Local/Arm/Packs/ARM/CMSIS-Driver/2.6.1/WiFi/ESP8266/ESP8266.c:2011:9
	cmp	r0, #0
	bmi	.LBB37_13
.Ltmp557:
@ %bb.3:                                @   in Loop: Header=BB37_2 Depth=1
	@DEBUG_VALUE: AT_Resp_ConfigureAP:a <- $r5
	@DEBUG_VALUE: AT_Resp_ConfigureAP:val <- $r4
	@DEBUG_VALUE: AT_Resp_ConfigureAP:cfg <- [DW_OP_plus_uconst 8] [$sp+0]
	.loc	5 0 9 is_stmt 0                 @ C:/Users/shw26/AppData/Local/Arm/Packs/ARM/CMSIS-Driver/2.6.1/WiFi/ESP8266/ESP8266.c:0:9
	add	r0, sp, #12
.Ltmp558:
	.loc	5 2017 9 is_stmt 1              @ C:/Users/shw26/AppData/Local/Arm/Packs/ARM/CMSIS-Driver/2.6.1/WiFi/ESP8266/ESP8266.c:2017:9
	str	r0, [sp, #48]
	.loc	5 2020 11                       @ C:/Users/shw26/AppData/Local/Arm/Packs/ARM/CMSIS-Driver/2.6.1/WiFi/ESP8266/ESP8266.c:2020:11
	cmp	r5, #5
.Ltmp559:
	@DEBUG_VALUE: AT_Resp_ConfigureAP:p <- [DW_OP_plus_uconst 12, DW_OP_stack_value] $sp
	bhi	.LBB37_13
.Ltmp560:
@ %bb.4:                                @   in Loop: Header=BB37_2 Depth=1
	@DEBUG_VALUE: AT_Resp_ConfigureAP:a <- $r5
	@DEBUG_VALUE: AT_Resp_ConfigureAP:val <- $r4
	@DEBUG_VALUE: AT_Resp_ConfigureAP:p <- [DW_OP_plus_uconst 12, DW_OP_stack_value] $sp
	@DEBUG_VALUE: AT_Resp_ConfigureAP:cfg <- [DW_OP_plus_uconst 8] [$sp+0]
	.loc	5 0 11 is_stmt 0                @ C:/Users/shw26/AppData/Local/Arm/Packs/ARM/CMSIS-Driver/2.6.1/WiFi/ESP8266/ESP8266.c:0:11
	lsls	r0, r5, #2
	adr	r1, .LJTI37_0
	adds	r0, r1, r0
	mov	pc, r0
.Ltmp561:
@ %bb.5:
	.p2align	2
.LJTI37_0:
	b.w	.LBB37_7
	b.w	.LBB37_8
	b.w	.LBB37_10
	b.w	.LBB37_11
	b.w	.LBB37_12
	b.w	.LBB37_6
.LBB37_6:                               @   in Loop: Header=BB37_2 Depth=1
.Ltmp562:
	@DEBUG_VALUE: AT_Resp_ConfigureAP:a <- $r5
	@DEBUG_VALUE: AT_Resp_ConfigureAP:val <- $r4
	@DEBUG_VALUE: AT_Resp_ConfigureAP:p <- [DW_OP_plus_uconst 12, DW_OP_stack_value] $sp
	@DEBUG_VALUE: AT_Resp_ConfigureAP:cfg <- [DW_OP_plus_uconst 8] [$sp+0]
	.loc	5 2045 26 is_stmt 1             @ C:/Users/shw26/AppData/Local/Arm/Packs/ARM/CMSIS-Driver/2.6.1/WiFi/ESP8266/ESP8266.c:2045:26
	ldr	r0, [sp, #12]
	.loc	5 2045 31 is_stmt 0             @ C:/Users/shw26/AppData/Local/Arm/Packs/ARM/CMSIS-Driver/2.6.1/WiFi/ESP8266/ESP8266.c:2045:31
	subs	r0, #48
	.loc	5 2045 24                       @ C:/Users/shw26/AppData/Local/Arm/Packs/ARM/CMSIS-Driver/2.6.1/WiFi/ESP8266/ESP8266.c:2045:24
	ldr	r1, [sp, #8]                    @ 4-byte Reload
	strb	r0, [r1, #11]
	b	.LBB37_1
.Ltmp563:
.LBB37_7:                               @   in Loop: Header=BB37_2 Depth=1
	@DEBUG_VALUE: AT_Resp_ConfigureAP:a <- $r5
	@DEBUG_VALUE: AT_Resp_ConfigureAP:val <- $r4
	@DEBUG_VALUE: AT_Resp_ConfigureAP:p <- [DW_OP_plus_uconst 12, DW_OP_stack_value] $sp
	@DEBUG_VALUE: AT_Resp_ConfigureAP:cfg <- [DW_OP_plus_uconst 8] [$sp+0]
	.loc	5 2022 22 is_stmt 1             @ C:/Users/shw26/AppData/Local/Arm/Packs/ARM/CMSIS-Driver/2.6.1/WiFi/ESP8266/ESP8266.c:2022:22
	ldr	r0, [sp, #8]                    @ 4-byte Reload
	ldr	r0, [r0]
	b	.LBB37_9
.Ltmp564:
.LBB37_8:                               @   in Loop: Header=BB37_2 Depth=1
	@DEBUG_VALUE: AT_Resp_ConfigureAP:a <- $r5
	@DEBUG_VALUE: AT_Resp_ConfigureAP:val <- $r4
	@DEBUG_VALUE: AT_Resp_ConfigureAP:p <- [DW_OP_plus_uconst 12, DW_OP_stack_value] $sp
	@DEBUG_VALUE: AT_Resp_ConfigureAP:cfg <- [DW_OP_plus_uconst 8] [$sp+0]
	.loc	5 2026 22                       @ C:/Users/shw26/AppData/Local/Arm/Packs/ARM/CMSIS-Driver/2.6.1/WiFi/ESP8266/ESP8266.c:2026:22
	ldr	r0, [sp, #8]                    @ 4-byte Reload
	ldr	r0, [r0, #4]
.Ltmp565:
.LBB37_9:                               @   in Loop: Header=BB37_2 Depth=1
	@DEBUG_VALUE: AT_Resp_ConfigureAP:a <- $r5
	@DEBUG_VALUE: AT_Resp_ConfigureAP:val <- $r4
	@DEBUG_VALUE: AT_Resp_ConfigureAP:p <- [DW_OP_plus_uconst 12, DW_OP_stack_value] $sp
	@DEBUG_VALUE: AT_Resp_ConfigureAP:cfg <- [DW_OP_plus_uconst 8] [$sp+0]
	.loc	5 0 22 is_stmt 0                @ C:/Users/shw26/AppData/Local/Arm/Packs/ARM/CMSIS-Driver/2.6.1/WiFi/ESP8266/ESP8266.c:0:22
	add	r1, sp, #12
	bl	strcpy
	b	.LBB37_1
.Ltmp566:
.LBB37_10:                              @   in Loop: Header=BB37_2 Depth=1
	@DEBUG_VALUE: AT_Resp_ConfigureAP:a <- $r5
	@DEBUG_VALUE: AT_Resp_ConfigureAP:val <- $r4
	@DEBUG_VALUE: AT_Resp_ConfigureAP:p <- [DW_OP_plus_uconst 12, DW_OP_stack_value] $sp
	@DEBUG_VALUE: AT_Resp_ConfigureAP:cfg <- [DW_OP_plus_uconst 8] [$sp+0]
	@DEBUG_VALUE: AT_Resp_ConfigureAP:p <- [DW_OP_plus_uconst 48, DW_OP_deref] $sp
	add	r0, sp, #12
	add	r1, sp, #48
.Ltmp567:
	.loc	5 2030 16 is_stmt 1             @ C:/Users/shw26/AppData/Local/Arm/Packs/ARM/CMSIS-Driver/2.6.1/WiFi/ESP8266/ESP8266.c:2030:16
	ldr	r2, [sp, #4]                    @ 4-byte Reload
	bl	strtoul
.Ltmp568:
	@DEBUG_VALUE: AT_Resp_ConfigureAP:uval <- $r0
	.loc	5 2032 17                       @ C:/Users/shw26/AppData/Local/Arm/Packs/ARM/CMSIS-Driver/2.6.1/WiFi/ESP8266/ESP8266.c:2032:17
	ldr	r1, [sp, #8]                    @ 4-byte Reload
	strb	r0, [r1, #8]
	b	.LBB37_1
.Ltmp569:
.LBB37_11:                              @   in Loop: Header=BB37_2 Depth=1
	@DEBUG_VALUE: AT_Resp_ConfigureAP:a <- $r5
	@DEBUG_VALUE: AT_Resp_ConfigureAP:val <- $r4
	@DEBUG_VALUE: AT_Resp_ConfigureAP:p <- [DW_OP_plus_uconst 12, DW_OP_stack_value] $sp
	@DEBUG_VALUE: AT_Resp_ConfigureAP:cfg <- [DW_OP_plus_uconst 8] [$sp+0]
	.loc	5 2036 20                       @ C:/Users/shw26/AppData/Local/Arm/Packs/ARM/CMSIS-Driver/2.6.1/WiFi/ESP8266/ESP8266.c:2036:20
	ldr	r0, [sp, #12]
	.loc	5 2036 25 is_stmt 0             @ C:/Users/shw26/AppData/Local/Arm/Packs/ARM/CMSIS-Driver/2.6.1/WiFi/ESP8266/ESP8266.c:2036:25
	subs	r0, #48
	.loc	5 2036 18                       @ C:/Users/shw26/AppData/Local/Arm/Packs/ARM/CMSIS-Driver/2.6.1/WiFi/ESP8266/ESP8266.c:2036:18
	ldr	r1, [sp, #8]                    @ 4-byte Reload
	strb	r0, [r1, #9]
	b	.LBB37_1
.Ltmp570:
.LBB37_12:                              @   in Loop: Header=BB37_2 Depth=1
	@DEBUG_VALUE: AT_Resp_ConfigureAP:a <- $r5
	@DEBUG_VALUE: AT_Resp_ConfigureAP:val <- $r4
	@DEBUG_VALUE: AT_Resp_ConfigureAP:p <- [DW_OP_plus_uconst 12, DW_OP_stack_value] $sp
	@DEBUG_VALUE: AT_Resp_ConfigureAP:cfg <- [DW_OP_plus_uconst 8] [$sp+0]
	.loc	5 2040 25 is_stmt 1             @ C:/Users/shw26/AppData/Local/Arm/Packs/ARM/CMSIS-Driver/2.6.1/WiFi/ESP8266/ESP8266.c:2040:25
	ldr	r0, [sp, #12]
	.loc	5 2040 30 is_stmt 0             @ C:/Users/shw26/AppData/Local/Arm/Packs/ARM/CMSIS-Driver/2.6.1/WiFi/ESP8266/ESP8266.c:2040:30
	subs	r0, #48
	.loc	5 2040 23                       @ C:/Users/shw26/AppData/Local/Arm/Packs/ARM/CMSIS-Driver/2.6.1/WiFi/ESP8266/ESP8266.c:2040:23
	ldr	r1, [sp, #8]                    @ 4-byte Reload
	strb	r0, [r1, #10]
	b	.LBB37_1
.Ltmp571:
.LBB37_13:
	@DEBUG_VALUE: AT_Resp_ConfigureAP:a <- $r5
	@DEBUG_VALUE: AT_Resp_ConfigureAP:val <- $r4
	@DEBUG_VALUE: AT_Resp_ConfigureAP:cfg <- [DW_OP_plus_uconst 8] [$sp+0]
	.loc	5 2058 7 is_stmt 1              @ C:/Users/shw26/AppData/Local/Arm/Packs/ARM/CMSIS-Driver/2.6.1/WiFi/ESP8266/ESP8266.c:2058:7
	cmp	r4, #3
	beq	.LBB37_16
.Ltmp572:
@ %bb.14:
	@DEBUG_VALUE: AT_Resp_ConfigureAP:a <- $r5
	@DEBUG_VALUE: AT_Resp_ConfigureAP:val <- $r4
	@DEBUG_VALUE: AT_Resp_ConfigureAP:cfg <- [DW_OP_plus_uconst 8] [$sp+0]
	cmp	r4, #2
	beq	.LBB37_17
.Ltmp573:
@ %bb.15:
	@DEBUG_VALUE: AT_Resp_ConfigureAP:a <- $r5
	@DEBUG_VALUE: AT_Resp_ConfigureAP:val <- $r4
	@DEBUG_VALUE: AT_Resp_ConfigureAP:cfg <- [DW_OP_plus_uconst 8] [$sp+0]
	.loc	5 0 0 is_stmt 0                 @ C:/Users/shw26/AppData/Local/Arm/Packs/ARM/CMSIS-Driver/2.6.1/WiFi/ESP8266/ESP8266.c:0:0
	mov	r7, r4
.Ltmp574:
	@DEBUG_VALUE: AT_Resp_ConfigureAP:val <- $r7
	b	.LBB37_17
.Ltmp575:
.LBB37_16:
	@DEBUG_VALUE: AT_Resp_ConfigureAP:a <- $r5
	@DEBUG_VALUE: AT_Resp_ConfigureAP:val <- $r4
	@DEBUG_VALUE: AT_Resp_ConfigureAP:cfg <- [DW_OP_plus_uconst 8] [$sp+0]
	movs	r7, #0
.Ltmp576:
.LBB37_17:
	@DEBUG_VALUE: AT_Resp_ConfigureAP:a <- $r5
	@DEBUG_VALUE: AT_Resp_ConfigureAP:cfg <- [DW_OP_plus_uconst 8] [$sp+0]
	@DEBUG_VALUE: AT_Resp_ConfigureAP:val <- $r7
	.loc	5 2069 3 is_stmt 1              @ C:/Users/shw26/AppData/Local/Arm/Packs/ARM/CMSIS-Driver/2.6.1/WiFi/ESP8266/ESP8266.c:2069:3
	mov	r0, r7
	add	sp, #52
.Ltmp577:
	pop	{r4, r5, r6, r7, pc}
.Ltmp578:
.Lfunc_end37:
	.size	AT_Resp_ConfigureAP, .Lfunc_end37-AT_Resp_ConfigureAP
	.cfi_endproc
	.cantunwind
	.fnend
                                        @ -- End function
	.section	.text.AT_Cmd_ListAP,"ax",%progbits
	.hidden	AT_Cmd_ListAP                   @ -- Begin function AT_Cmd_ListAP
	.globl	AT_Cmd_ListAP
	.p2align	1
	.type	AT_Cmd_ListAP,%function
	.code	16                              @ @AT_Cmd_ListAP
	.thumb_func
AT_Cmd_ListAP:
.Lfunc_begin38:
	.loc	5 2076 0                        @ C:/Users/shw26/AppData/Local/Arm/Packs/ARM/CMSIS-Driver/2.6.1/WiFi/ESP8266/ESP8266.c:2076:0
	.fnstart
	.cfi_startproc
@ %bb.0:
	.save	{r4, r5, r7, lr}
	push	{r4, r5, r7, lr}
	.cfi_def_cfa_offset 16
	.cfi_offset lr, -4
	.cfi_offset r7, -8
	.cfi_offset r5, -12
	.cfi_offset r4, -16
	.pad	#64
	sub	sp, #64
	.cfi_def_cfa_offset 80
	movs	r4, #1
	movs	r1, #2
	mov	r5, sp
.Ltmp579:
	.loc	5 2081 7 prologue_end           @ C:/Users/shw26/AppData/Local/Arm/Packs/ARM/CMSIS-Driver/2.6.1/WiFi/ESP8266/ESP8266.c:2081:7
	mov	r0, r4
	mov	r2, r5
	bl	CmdOpen
	mov	r2, r0
.Ltmp580:
	@DEBUG_VALUE: AT_Cmd_ListAP:n <- $r2
	.loc	5 2084 11                       @ C:/Users/shw26/AppData/Local/Arm/Packs/ARM/CMSIS-Driver/2.6.1/WiFi/ESP8266/ESP8266.c:2084:11
	mov	r0, r4
	mov	r1, r5
	bl	CmdSend
.Ltmp581:
	.loc	5 2084 3 is_stmt 0              @ C:/Users/shw26/AppData/Local/Arm/Packs/ARM/CMSIS-Driver/2.6.1/WiFi/ESP8266/ESP8266.c:2084:3
	add	sp, #64
	pop	{r4, r5, r7, pc}
.Ltmp582:
.Lfunc_end38:
	.size	AT_Cmd_ListAP, .Lfunc_end38-AT_Cmd_ListAP
	.cfi_endproc
	.cantunwind
	.fnend
                                        @ -- End function
	.section	.text.AT_Resp_ListAP,"ax",%progbits
	.hidden	AT_Resp_ListAP                  @ -- Begin function AT_Resp_ListAP
	.globl	AT_Resp_ListAP
	.p2align	2
	.type	AT_Resp_ListAP,%function
	.code	16                              @ @AT_Resp_ListAP
	.thumb_func
AT_Resp_ListAP:
.Lfunc_begin39:
	.loc	5 2099 0 is_stmt 1              @ C:/Users/shw26/AppData/Local/Arm/Packs/ARM/CMSIS-Driver/2.6.1/WiFi/ESP8266/ESP8266.c:2099:0
	.fnstart
	.cfi_startproc
@ %bb.0:
	@DEBUG_VALUE: AT_Resp_ListAP:ap <- $r0
	@DEBUG_VALUE: AT_Resp_ListAP:ap <- $r0
	.save	{r4, r5, r6, r7, lr}
	push	{r4, r5, r6, r7, lr}
	.cfi_def_cfa_offset 20
	.cfi_offset lr, -4
	.cfi_offset r7, -8
	.cfi_offset r6, -12
	.cfi_offset r5, -16
	.cfi_offset r4, -20
	.pad	#60
	sub	sp, #60
	.cfi_def_cfa_offset 80
.Ltmp583:
	.loc	5 0 0 prologue_end              @ C:/Users/shw26/AppData/Local/Arm/Packs/ARM/CMSIS-Driver/2.6.1/WiFi/ESP8266/ESP8266.c:0:0
	adds	r1, r0, #1
.Ltmp584:
	@DEBUG_VALUE: AT_Resp_ListAP:a <- 0
	str	r1, [sp, #8]                    @ 4-byte Spill
	mov	r1, r0
	adds	r1, #35
	str	r1, [sp, #4]                    @ 4-byte Spill
	str	r0, [sp, #16]                   @ 4-byte Spill
.Ltmp585:
	@DEBUG_VALUE: AT_Resp_ListAP:ap <- [DW_OP_plus_uconst 16] [$sp+0]
	adds	r0, #34
	str	r0, [sp, #12]                   @ 4-byte Spill
	movs	r5, #0
	movs	r6, #33
	movs	r7, #1
	b	.LBB39_3
.Ltmp586:
.LBB39_1:                               @   in Loop: Header=BB39_3 Depth=1
	@DEBUG_VALUE: AT_Resp_ListAP:a <- $r5
	@DEBUG_VALUE: AT_Resp_ListAP:val <- $r4
	@DEBUG_VALUE: AT_Resp_ListAP:ap <- [DW_OP_plus_uconst 16] [$sp+0]
	.loc	5 2156 8                        @ C:/Users/shw26/AppData/Local/Arm/Packs/ARM/CMSIS-Driver/2.6.1/WiFi/ESP8266/ESP8266.c:2156:8
	adds	r5, r5, #1
.Ltmp587:
	@DEBUG_VALUE: AT_Resp_ListAP:a <- $r5
.LBB39_2:                               @   in Loop: Header=BB39_3 Depth=1
	@DEBUG_VALUE: AT_Resp_ListAP:a <- $r5
	@DEBUG_VALUE: AT_Resp_ListAP:val <- $r4
	@DEBUG_VALUE: AT_Resp_ListAP:ap <- [DW_OP_plus_uconst 16] [$sp+0]
	@DEBUG_VALUE: AT_Resp_ListAP:a <- $r5
	.loc	5 2159 21                       @ C:/Users/shw26/AppData/Local/Arm/Packs/ARM/CMSIS-Driver/2.6.1/WiFi/ESP8266/ESP8266.c:2159:21
	mov	r0, r4
	bics	r0, r7
.Ltmp588:
	.loc	5 2158 3                        @ C:/Users/shw26/AppData/Local/Arm/Packs/ARM/CMSIS-Driver/2.6.1/WiFi/ESP8266/ESP8266.c:2158:3
	cmp	r0, #2
	beq	.LBB39_14
.Ltmp589:
.LBB39_3:                               @ =>This Inner Loop Header: Depth=1
	@DEBUG_VALUE: AT_Resp_ListAP:ap <- [DW_OP_plus_uconst 16] [$sp+0]
	@DEBUG_VALUE: AT_Resp_ListAP:a <- $r5
	.loc	5 0 3 is_stmt 0                 @ C:/Users/shw26/AppData/Local/Arm/Packs/ARM/CMSIS-Driver/2.6.1/WiFi/ESP8266/ESP8266.c:0:3
	add	r0, sp, #20
	.loc	5 2110 11 is_stmt 1             @ C:/Users/shw26/AppData/Local/Arm/Packs/ARM/CMSIS-Driver/2.6.1/WiFi/ESP8266/ESP8266.c:2110:11
	mov	r1, r6
	bl	GetRespArg
	mov	r4, r0
.Ltmp590:
	@DEBUG_VALUE: AT_Resp_ListAP:val <- $r4
	.loc	5 2112 9                        @ C:/Users/shw26/AppData/Local/Arm/Packs/ARM/CMSIS-Driver/2.6.1/WiFi/ESP8266/ESP8266.c:2112:9
	cmp	r0, #0
	bmi	.LBB39_14
.Ltmp591:
@ %bb.4:                                @   in Loop: Header=BB39_3 Depth=1
	@DEBUG_VALUE: AT_Resp_ListAP:a <- $r5
	@DEBUG_VALUE: AT_Resp_ListAP:val <- $r4
	@DEBUG_VALUE: AT_Resp_ListAP:ap <- [DW_OP_plus_uconst 16] [$sp+0]
	.loc	5 2117 9                        @ C:/Users/shw26/AppData/Local/Arm/Packs/ARM/CMSIS-Driver/2.6.1/WiFi/ESP8266/ESP8266.c:2117:9
	cmp	r4, #1
	beq	.LBB39_2
.Ltmp592:
@ %bb.5:                                @   in Loop: Header=BB39_3 Depth=1
	@DEBUG_VALUE: AT_Resp_ListAP:a <- $r5
	@DEBUG_VALUE: AT_Resp_ListAP:val <- $r4
	@DEBUG_VALUE: AT_Resp_ListAP:ap <- [DW_OP_plus_uconst 16] [$sp+0]
	.loc	5 0 9 is_stmt 0                 @ C:/Users/shw26/AppData/Local/Arm/Packs/ARM/CMSIS-Driver/2.6.1/WiFi/ESP8266/ESP8266.c:0:9
	add	r0, sp, #20
.Ltmp593:
	.loc	5 2118 9 is_stmt 1              @ C:/Users/shw26/AppData/Local/Arm/Packs/ARM/CMSIS-Driver/2.6.1/WiFi/ESP8266/ESP8266.c:2118:9
	str	r0, [sp, #56]
	.loc	5 2121 11                       @ C:/Users/shw26/AppData/Local/Arm/Packs/ARM/CMSIS-Driver/2.6.1/WiFi/ESP8266/ESP8266.c:2121:11
	cmp	r5, #5
.Ltmp594:
	@DEBUG_VALUE: AT_Resp_ListAP:p <- [DW_OP_plus_uconst 20, DW_OP_stack_value] $sp
	bhi	.LBB39_1
.Ltmp595:
@ %bb.6:                                @   in Loop: Header=BB39_3 Depth=1
	@DEBUG_VALUE: AT_Resp_ListAP:a <- $r5
	@DEBUG_VALUE: AT_Resp_ListAP:val <- $r4
	@DEBUG_VALUE: AT_Resp_ListAP:p <- [DW_OP_plus_uconst 20, DW_OP_stack_value] $sp
	@DEBUG_VALUE: AT_Resp_ListAP:ap <- [DW_OP_plus_uconst 16] [$sp+0]
	.loc	5 0 11 is_stmt 0                @ C:/Users/shw26/AppData/Local/Arm/Packs/ARM/CMSIS-Driver/2.6.1/WiFi/ESP8266/ESP8266.c:0:11
	lsls	r0, r5, #2
	adr	r1, .LJTI39_0
	adds	r0, r1, r0
	mov	pc, r0
.Ltmp596:
@ %bb.7:
	.p2align	2
.LJTI39_0:
	b.w	.LBB39_9
	b.w	.LBB39_10
	b.w	.LBB39_11
	b.w	.LBB39_12
	b.w	.LBB39_13
	b.w	.LBB39_8
.LBB39_8:                               @   in Loop: Header=BB39_3 Depth=1
.Ltmp597:
	@DEBUG_VALUE: AT_Resp_ListAP:a <- $r5
	@DEBUG_VALUE: AT_Resp_ListAP:val <- $r4
	@DEBUG_VALUE: AT_Resp_ListAP:p <- [DW_OP_plus_uconst 20, DW_OP_stack_value] $sp
	@DEBUG_VALUE: AT_Resp_ListAP:ap <- [DW_OP_plus_uconst 16] [$sp+0]
	@DEBUG_VALUE: AT_Resp_ListAP:p <- [DW_OP_plus_uconst 56, DW_OP_deref] $sp
	add	r0, sp, #20
	add	r1, sp, #56
	movs	r2, #10
.Ltmp598:
	.loc	5 2147 16 is_stmt 1             @ C:/Users/shw26/AppData/Local/Arm/Packs/ARM/CMSIS-Driver/2.6.1/WiFi/ESP8266/ESP8266.c:2147:16
	bl	strtoul
.Ltmp599:
	@DEBUG_VALUE: AT_Resp_ListAP:uval <- $r0
	.loc	5 2149 23                       @ C:/Users/shw26/AppData/Local/Arm/Packs/ARM/CMSIS-Driver/2.6.1/WiFi/ESP8266/ESP8266.c:2149:23
	ldr	r1, [sp, #16]                   @ 4-byte Reload
	strh	r0, [r1, #42]
	b	.LBB39_1
.Ltmp600:
.LBB39_9:                               @   in Loop: Header=BB39_3 Depth=1
	@DEBUG_VALUE: AT_Resp_ListAP:a <- $r5
	@DEBUG_VALUE: AT_Resp_ListAP:val <- $r4
	@DEBUG_VALUE: AT_Resp_ListAP:p <- [DW_OP_plus_uconst 20, DW_OP_stack_value] $sp
	@DEBUG_VALUE: AT_Resp_ListAP:ap <- [DW_OP_plus_uconst 16] [$sp+0]
	.loc	5 2123 19                       @ C:/Users/shw26/AppData/Local/Arm/Packs/ARM/CMSIS-Driver/2.6.1/WiFi/ESP8266/ESP8266.c:2123:19
	ldr	r0, [sp, #20]
	.loc	5 2123 24 is_stmt 0             @ C:/Users/shw26/AppData/Local/Arm/Packs/ARM/CMSIS-Driver/2.6.1/WiFi/ESP8266/ESP8266.c:2123:24
	subs	r0, #48
	.loc	5 2123 17                       @ C:/Users/shw26/AppData/Local/Arm/Packs/ARM/CMSIS-Driver/2.6.1/WiFi/ESP8266/ESP8266.c:2123:17
	ldr	r1, [sp, #16]                   @ 4-byte Reload
	strb	r0, [r1]
	b	.LBB39_1
.Ltmp601:
.LBB39_10:                              @   in Loop: Header=BB39_3 Depth=1
	@DEBUG_VALUE: AT_Resp_ListAP:a <- $r5
	@DEBUG_VALUE: AT_Resp_ListAP:val <- $r4
	@DEBUG_VALUE: AT_Resp_ListAP:p <- [DW_OP_plus_uconst 20, DW_OP_stack_value] $sp
	@DEBUG_VALUE: AT_Resp_ListAP:ap <- [DW_OP_plus_uconst 16] [$sp+0]
	.loc	5 0 17                          @ C:/Users/shw26/AppData/Local/Arm/Packs/ARM/CMSIS-Driver/2.6.1/WiFi/ESP8266/ESP8266.c:0:17
	add	r1, sp, #20
.Ltmp602:
	.loc	5 2127 9 is_stmt 1              @ C:/Users/shw26/AppData/Local/Arm/Packs/ARM/CMSIS-Driver/2.6.1/WiFi/ESP8266/ESP8266.c:2127:9
	ldr	r0, [sp, #8]                    @ 4-byte Reload
	bl	strcpy
	b	.LBB39_1
.Ltmp603:
.LBB39_11:                              @   in Loop: Header=BB39_3 Depth=1
	@DEBUG_VALUE: AT_Resp_ListAP:a <- $r5
	@DEBUG_VALUE: AT_Resp_ListAP:val <- $r4
	@DEBUG_VALUE: AT_Resp_ListAP:p <- [DW_OP_plus_uconst 20, DW_OP_stack_value] $sp
	@DEBUG_VALUE: AT_Resp_ListAP:ap <- [DW_OP_plus_uconst 16] [$sp+0]
	@DEBUG_VALUE: AT_Resp_ListAP:p <- [DW_OP_plus_uconst 56, DW_OP_deref] $sp
	.loc	5 0 9 is_stmt 0                 @ C:/Users/shw26/AppData/Local/Arm/Packs/ARM/CMSIS-Driver/2.6.1/WiFi/ESP8266/ESP8266.c:0:9
	add	r0, sp, #20
	add	r1, sp, #56
	movs	r2, #10
.Ltmp604:
	.loc	5 2131 16 is_stmt 1             @ C:/Users/shw26/AppData/Local/Arm/Packs/ARM/CMSIS-Driver/2.6.1/WiFi/ESP8266/ESP8266.c:2131:16
	bl	strtoul
.Ltmp605:
	@DEBUG_VALUE: AT_Resp_ListAP:uval <- $r0
	.loc	5 2133 18                       @ C:/Users/shw26/AppData/Local/Arm/Packs/ARM/CMSIS-Driver/2.6.1/WiFi/ESP8266/ESP8266.c:2133:18
	ldr	r1, [sp, #12]                   @ 4-byte Reload
	strb	r0, [r1]
	b	.LBB39_1
.Ltmp606:
.LBB39_12:                              @   in Loop: Header=BB39_3 Depth=1
	@DEBUG_VALUE: AT_Resp_ListAP:a <- $r5
	@DEBUG_VALUE: AT_Resp_ListAP:val <- $r4
	@DEBUG_VALUE: AT_Resp_ListAP:p <- [DW_OP_plus_uconst 20, DW_OP_stack_value] $sp
	@DEBUG_VALUE: AT_Resp_ListAP:ap <- [DW_OP_plus_uconst 16] [$sp+0]
	.loc	5 0 18 is_stmt 0                @ C:/Users/shw26/AppData/Local/Arm/Packs/ARM/CMSIS-Driver/2.6.1/WiFi/ESP8266/ESP8266.c:0:18
	add	r0, sp, #20
.Ltmp607:
	.loc	5 2137 9 is_stmt 1              @ C:/Users/shw26/AppData/Local/Arm/Packs/ARM/CMSIS-Driver/2.6.1/WiFi/ESP8266/ESP8266.c:2137:9
	ldr	r1, [sp, #4]                    @ 4-byte Reload
	bl	AT_Parse_MAC
	b	.LBB39_1
.Ltmp608:
.LBB39_13:                              @   in Loop: Header=BB39_3 Depth=1
	@DEBUG_VALUE: AT_Resp_ListAP:a <- $r5
	@DEBUG_VALUE: AT_Resp_ListAP:val <- $r4
	@DEBUG_VALUE: AT_Resp_ListAP:p <- [DW_OP_plus_uconst 20, DW_OP_stack_value] $sp
	@DEBUG_VALUE: AT_Resp_ListAP:ap <- [DW_OP_plus_uconst 16] [$sp+0]
	@DEBUG_VALUE: AT_Resp_ListAP:p <- [DW_OP_plus_uconst 56, DW_OP_deref] $sp
	.loc	5 0 9 is_stmt 0                 @ C:/Users/shw26/AppData/Local/Arm/Packs/ARM/CMSIS-Driver/2.6.1/WiFi/ESP8266/ESP8266.c:0:9
	add	r0, sp, #20
	add	r1, sp, #56
	movs	r2, #10
.Ltmp609:
	.loc	5 2141 16 is_stmt 1             @ C:/Users/shw26/AppData/Local/Arm/Packs/ARM/CMSIS-Driver/2.6.1/WiFi/ESP8266/ESP8266.c:2141:16
	bl	strtoul
.Ltmp610:
	@DEBUG_VALUE: AT_Resp_ListAP:uval <- $r0
	.loc	5 2143 16                       @ C:/Users/shw26/AppData/Local/Arm/Packs/ARM/CMSIS-Driver/2.6.1/WiFi/ESP8266/ESP8266.c:2143:16
	ldr	r1, [sp, #12]                   @ 4-byte Reload
	strb	r0, [r1, #7]
	b	.LBB39_1
.Ltmp611:
.LBB39_14:
	@DEBUG_VALUE: AT_Resp_ListAP:a <- $r5
	@DEBUG_VALUE: AT_Resp_ListAP:val <- $r4
	@DEBUG_VALUE: AT_Resp_ListAP:ap <- [DW_OP_plus_uconst 16] [$sp+0]
	.loc	5 2161 7                        @ C:/Users/shw26/AppData/Local/Arm/Packs/ARM/CMSIS-Driver/2.6.1/WiFi/ESP8266/ESP8266.c:2161:7
	cmp	r4, #3
	beq	.LBB39_17
.Ltmp612:
@ %bb.15:
	@DEBUG_VALUE: AT_Resp_ListAP:a <- $r5
	@DEBUG_VALUE: AT_Resp_ListAP:val <- $r4
	@DEBUG_VALUE: AT_Resp_ListAP:ap <- [DW_OP_plus_uconst 16] [$sp+0]
	cmp	r4, #2
	beq	.LBB39_18
.Ltmp613:
@ %bb.16:
	@DEBUG_VALUE: AT_Resp_ListAP:a <- $r5
	@DEBUG_VALUE: AT_Resp_ListAP:val <- $r4
	@DEBUG_VALUE: AT_Resp_ListAP:ap <- [DW_OP_plus_uconst 16] [$sp+0]
	.loc	5 0 0 is_stmt 0                 @ C:/Users/shw26/AppData/Local/Arm/Packs/ARM/CMSIS-Driver/2.6.1/WiFi/ESP8266/ESP8266.c:0:0
	mov	r7, r4
.Ltmp614:
	@DEBUG_VALUE: AT_Resp_ListAP:val <- $r7
	b	.LBB39_18
.Ltmp615:
.LBB39_17:
	@DEBUG_VALUE: AT_Resp_ListAP:a <- $r5
	@DEBUG_VALUE: AT_Resp_ListAP:val <- $r4
	@DEBUG_VALUE: AT_Resp_ListAP:ap <- [DW_OP_plus_uconst 16] [$sp+0]
	movs	r7, #0
.Ltmp616:
.LBB39_18:
	@DEBUG_VALUE: AT_Resp_ListAP:a <- $r5
	@DEBUG_VALUE: AT_Resp_ListAP:ap <- [DW_OP_plus_uconst 16] [$sp+0]
	@DEBUG_VALUE: AT_Resp_ListAP:val <- $r7
	.loc	5 2172 3 is_stmt 1              @ C:/Users/shw26/AppData/Local/Arm/Packs/ARM/CMSIS-Driver/2.6.1/WiFi/ESP8266/ESP8266.c:2172:3
	mov	r0, r7
	add	sp, #60
.Ltmp617:
	pop	{r4, r5, r6, r7, pc}
.Ltmp618:
.Lfunc_end39:
	.size	AT_Resp_ListAP, .Lfunc_end39-AT_Resp_ListAP
	.cfi_endproc
	.cantunwind
	.fnend
                                        @ -- End function
	.section	.text.AT_Cmd_StationMAC,"ax",%progbits
	.hidden	AT_Cmd_StationMAC               @ -- Begin function AT_Cmd_StationMAC
	.globl	AT_Cmd_StationMAC
	.p2align	2
	.type	AT_Cmd_StationMAC,%function
	.code	16                              @ @AT_Cmd_StationMAC
	.thumb_func
AT_Cmd_StationMAC:
.Lfunc_begin40:
	.loc	5 2186 0                        @ C:/Users/shw26/AppData/Local/Arm/Packs/ARM/CMSIS-Driver/2.6.1/WiFi/ESP8266/ESP8266.c:2186:0
	.fnstart
	.cfi_startproc
@ %bb.0:
	@DEBUG_VALUE: AT_Cmd_StationMAC:at_cmode <- $r0
	@DEBUG_VALUE: AT_Cmd_StationMAC:mac <- $r1
	.save	{r4, r5, r6, lr}
	push	{r4, r5, r6, lr}
	.cfi_def_cfa_offset 16
	.cfi_offset lr, -4
	.cfi_offset r6, -8
	.cfi_offset r5, -12
	.cfi_offset r4, -16
	.pad	#80
	sub	sp, #80
	.cfi_def_cfa_offset 96
	mov	r5, r1
	mov	r6, r0
.Ltmp619:
	@DEBUG_VALUE: AT_Cmd_StationMAC:mac <- $r5
	@DEBUG_VALUE: AT_Cmd_StationMAC:at_cmode <- $r6
	movs	r0, #6
	add	r2, sp, #16
.Ltmp620:
	.loc	5 2191 7 prologue_end           @ C:/Users/shw26/AppData/Local/Arm/Packs/ARM/CMSIS-Driver/2.6.1/WiFi/ESP8266/ESP8266.c:2191:7
	mov	r1, r6
	bl	CmdOpen
	mov	r4, r0
.Ltmp621:
	@DEBUG_VALUE: AT_Cmd_StationMAC:n <- $r4
	.loc	5 2193 7                        @ C:/Users/shw26/AppData/Local/Arm/Packs/ARM/CMSIS-Driver/2.6.1/WiFi/ESP8266/ESP8266.c:2193:7
	cmp	r6, #1
	bne	.LBB40_2
.Ltmp622:
@ %bb.1:
	@DEBUG_VALUE: AT_Cmd_StationMAC:at_cmode <- $r6
	@DEBUG_VALUE: AT_Cmd_StationMAC:mac <- $r5
	@DEBUG_VALUE: AT_Cmd_StationMAC:n <- $r4
	.loc	5 2196 37                       @ C:/Users/shw26/AppData/Local/Arm/Packs/ARM/CMSIS-Driver/2.6.1/WiFi/ESP8266/ESP8266.c:2196:37
	ldrb	r3, [r5, #1]
	.loc	5 2196 29 is_stmt 0             @ C:/Users/shw26/AppData/Local/Arm/Packs/ARM/CMSIS-Driver/2.6.1/WiFi/ESP8266/ESP8266.c:2196:29
	ldrb	r2, [r5]
	.loc	5 2196 45                       @ C:/Users/shw26/AppData/Local/Arm/Packs/ARM/CMSIS-Driver/2.6.1/WiFi/ESP8266/ESP8266.c:2196:45
	ldrb	r0, [r5, #2]
	.loc	5 2196 53                       @ C:/Users/shw26/AppData/Local/Arm/Packs/ARM/CMSIS-Driver/2.6.1/WiFi/ESP8266/ESP8266.c:2196:53
	ldrb	r1, [r5, #3]
	.loc	5 2196 61                       @ C:/Users/shw26/AppData/Local/Arm/Packs/ARM/CMSIS-Driver/2.6.1/WiFi/ESP8266/ESP8266.c:2196:61
	ldrb	r6, [r5, #4]
.Ltmp623:
	.loc	5 2196 69                       @ C:/Users/shw26/AppData/Local/Arm/Packs/ARM/CMSIS-Driver/2.6.1/WiFi/ESP8266/ESP8266.c:2196:69
	ldrb	r5, [r5, #5]
.Ltmp624:
	.loc	5 2195 10 is_stmt 1             @ C:/Users/shw26/AppData/Local/Arm/Packs/ARM/CMSIS-Driver/2.6.1/WiFi/ESP8266/ESP8266.c:2195:10
	str	r0, [sp]
	str	r1, [sp, #4]
	str	r6, [sp, #8]
	str	r5, [sp, #12]
	add	r0, sp, #16
	.loc	5 2195 20 is_stmt 0             @ C:/Users/shw26/AppData/Local/Arm/Packs/ARM/CMSIS-Driver/2.6.1/WiFi/ESP8266/ESP8266.c:2195:20
	adds	r0, r0, r4
	.loc	5 2195 10                       @ C:/Users/shw26/AppData/Local/Arm/Packs/ARM/CMSIS-Driver/2.6.1/WiFi/ESP8266/ESP8266.c:2195:10
	ldr	r1, __arm_cp.40_0
	bl	__2sprintf
	.loc	5 2195 7                        @ C:/Users/shw26/AppData/Local/Arm/Packs/ARM/CMSIS-Driver/2.6.1/WiFi/ESP8266/ESP8266.c:2195:7
	adds	r4, r0, r4
.Ltmp625:
	@DEBUG_VALUE: AT_Cmd_StationMAC:n <- $r4
.LBB40_2:
	@DEBUG_VALUE: AT_Cmd_StationMAC:n <- $r4
	@DEBUG_VALUE: AT_Cmd_StationMAC:n <- $r4
	.loc	5 0 7                           @ C:/Users/shw26/AppData/Local/Arm/Packs/ARM/CMSIS-Driver/2.6.1/WiFi/ESP8266/ESP8266.c:0:7
	movs	r0, #6
	add	r1, sp, #16
	.loc	5 2200 11 is_stmt 1             @ C:/Users/shw26/AppData/Local/Arm/Packs/ARM/CMSIS-Driver/2.6.1/WiFi/ESP8266/ESP8266.c:2200:11
	mov	r2, r4
	bl	CmdSend
	.loc	5 2200 3 is_stmt 0              @ C:/Users/shw26/AppData/Local/Arm/Packs/ARM/CMSIS-Driver/2.6.1/WiFi/ESP8266/ESP8266.c:2200:3
	add	sp, #80
	pop	{r4, r5, r6, pc}
.Ltmp626:
	.p2align	2
@ %bb.3:
	.loc	5 0 3                           @ C:/Users/shw26/AppData/Local/Arm/Packs/ARM/CMSIS-Driver/2.6.1/WiFi/ESP8266/ESP8266.c:0:3
__arm_cp.40_0:
	.long	.L.str.11
.Lcpi_end21:
	.size	__arm_cp.40_0, .Lcpi_end21-__arm_cp.40_0
.Lfunc_end40:
	.size	AT_Cmd_StationMAC, .Lfunc_end40-AT_Cmd_StationMAC
	.cfi_endproc
	.cantunwind
	.fnend
                                        @ -- End function
	.section	.text.AT_Resp_StationMAC,"ax",%progbits
	.hidden	AT_Resp_StationMAC              @ -- Begin function AT_Resp_StationMAC
	.globl	AT_Resp_StationMAC
	.p2align	1
	.type	AT_Resp_StationMAC,%function
	.code	16                              @ @AT_Resp_StationMAC
	.thumb_func
AT_Resp_StationMAC:
.Lfunc_begin41:
	.loc	5 2213 0 is_stmt 1              @ C:/Users/shw26/AppData/Local/Arm/Packs/ARM/CMSIS-Driver/2.6.1/WiFi/ESP8266/ESP8266.c:2213:0
	.fnstart
	.cfi_startproc
@ %bb.0:
	@DEBUG_VALUE: AT_Resp_StationMAC:mac <- $r0
	.save	{r4, r5, r6, r7, lr}
	push	{r4, r5, r6, r7, lr}
	.cfi_def_cfa_offset 20
	.cfi_offset lr, -4
	.cfi_offset r7, -8
	.cfi_offset r6, -12
	.cfi_offset r5, -16
	.cfi_offset r4, -20
	.pad	#36
	sub	sp, #36
	.cfi_def_cfa_offset 56
	mov	r4, r0
.Ltmp627:
	@DEBUG_VALUE: AT_Resp_StationMAC:mac <- $r4
	add	r0, sp, #4
	movs	r1, #32
.Ltmp628:
	.loc	5 2220 11 prologue_end          @ C:/Users/shw26/AppData/Local/Arm/Packs/ARM/CMSIS-Driver/2.6.1/WiFi/ESP8266/ESP8266.c:2220:11
	bl	GetRespArg
	mov	r7, r0
.Ltmp629:
	@DEBUG_VALUE: AT_Resp_StationMAC:val <- $r7
	.loc	5 0 11 is_stmt 0                @ C:/Users/shw26/AppData/Local/Arm/Packs/ARM/CMSIS-Driver/2.6.1/WiFi/ESP8266/ESP8266.c:0:11
	movs	r5, #0
	mvns	r0, r5
	.loc	5 2222 9 is_stmt 1              @ C:/Users/shw26/AppData/Local/Arm/Packs/ARM/CMSIS-Driver/2.6.1/WiFi/ESP8266/ESP8266.c:2222:9
	cmp	r7, #0
	bmi	.LBB41_7
.Ltmp630:
@ %bb.1:
	@DEBUG_VALUE: AT_Resp_StationMAC:val <- $r7
	@DEBUG_VALUE: AT_Resp_StationMAC:mac <- $r4
	.loc	5 0 9 is_stmt 0                 @ C:/Users/shw26/AppData/Local/Arm/Packs/ARM/CMSIS-Driver/2.6.1/WiFi/ESP8266/ESP8266.c:0:9
	str	r0, [sp]                        @ 4-byte Spill
	movs	r6, #32
	b	.LBB41_3
.Ltmp631:
.LBB41_2:                               @   in Loop: Header=BB41_3 Depth=1
	@DEBUG_VALUE: AT_Resp_StationMAC:val <- $r7
	@DEBUG_VALUE: AT_Resp_StationMAC:mac <- $r4
	add	r0, sp, #4
	.loc	5 2220 11 is_stmt 1             @ C:/Users/shw26/AppData/Local/Arm/Packs/ARM/CMSIS-Driver/2.6.1/WiFi/ESP8266/ESP8266.c:2220:11
	mov	r1, r6
	bl	GetRespArg
	mov	r7, r0
.Ltmp632:
	@DEBUG_VALUE: AT_Resp_StationMAC:val <- $r7
	.loc	5 2222 9                        @ C:/Users/shw26/AppData/Local/Arm/Packs/ARM/CMSIS-Driver/2.6.1/WiFi/ESP8266/ESP8266.c:2222:9
	cmp	r0, #0
	bmi	.LBB41_6
.Ltmp633:
.LBB41_3:                               @ =>This Inner Loop Header: Depth=1
	@DEBUG_VALUE: AT_Resp_StationMAC:val <- $r7
	@DEBUG_VALUE: AT_Resp_StationMAC:mac <- $r4
	.loc	5 2226 9                        @ C:/Users/shw26/AppData/Local/Arm/Packs/ARM/CMSIS-Driver/2.6.1/WiFi/ESP8266/ESP8266.c:2226:9
	cmp	r7, #1
	beq	.LBB41_2
.Ltmp634:
@ %bb.4:                                @   in Loop: Header=BB41_3 Depth=1
	@DEBUG_VALUE: AT_Resp_StationMAC:val <- $r7
	@DEBUG_VALUE: AT_Resp_StationMAC:mac <- $r4
	.loc	5 0 9 is_stmt 0                 @ C:/Users/shw26/AppData/Local/Arm/Packs/ARM/CMSIS-Driver/2.6.1/WiFi/ESP8266/ESP8266.c:0:9
	add	r0, sp, #4
.Ltmp635:
	.loc	5 2231 7 is_stmt 1              @ C:/Users/shw26/AppData/Local/Arm/Packs/ARM/CMSIS-Driver/2.6.1/WiFi/ESP8266/ESP8266.c:2231:7
	mov	r1, r4
	bl	AT_Parse_MAC
.Ltmp636:
	.loc	5 2233 3                        @ C:/Users/shw26/AppData/Local/Arm/Packs/ARM/CMSIS-Driver/2.6.1/WiFi/ESP8266/ESP8266.c:2233:3
	cmp	r7, #3
.Ltmp637:
	@DEBUG_VALUE: AT_Resp_StationMAC:p <- [DW_OP_plus_uconst 4, DW_OP_stack_value] $sp
	bne	.LBB41_2
.Ltmp638:
@ %bb.5:
	@DEBUG_VALUE: AT_Resp_StationMAC:val <- $r7
	@DEBUG_VALUE: AT_Resp_StationMAC:mac <- $r4
	@DEBUG_VALUE: AT_Resp_StationMAC:p <- [DW_OP_plus_uconst 4, DW_OP_stack_value] $sp
	.loc	5 0 0 is_stmt 0                 @ C:/Users/shw26/AppData/Local/Arm/Packs/ARM/CMSIS-Driver/2.6.1/WiFi/ESP8266/ESP8266.c:0:0
	mov	r0, r5
.Ltmp639:
	@DEBUG_VALUE: AT_Resp_StationMAC:val <- $r0
	.loc	5 2242 3 is_stmt 1              @ C:/Users/shw26/AppData/Local/Arm/Packs/ARM/CMSIS-Driver/2.6.1/WiFi/ESP8266/ESP8266.c:2242:3
	add	sp, #36
.Ltmp640:
	pop	{r4, r5, r6, r7, pc}
.Ltmp641:
.LBB41_6:
	@DEBUG_VALUE: AT_Resp_StationMAC:val <- $r7
	@DEBUG_VALUE: AT_Resp_StationMAC:mac <- $r4
	.loc	5 0 3 is_stmt 0                 @ C:/Users/shw26/AppData/Local/Arm/Packs/ARM/CMSIS-Driver/2.6.1/WiFi/ESP8266/ESP8266.c:0:3
	ldr	r0, [sp]                        @ 4-byte Reload
.Ltmp642:
.LBB41_7:
	@DEBUG_VALUE: AT_Resp_StationMAC:val <- $r7
	@DEBUG_VALUE: AT_Resp_StationMAC:mac <- $r4
	@DEBUG_VALUE: AT_Resp_StationMAC:val <- $r0
	.loc	5 2242 3                        @ C:/Users/shw26/AppData/Local/Arm/Packs/ARM/CMSIS-Driver/2.6.1/WiFi/ESP8266/ESP8266.c:2242:3
	add	sp, #36
	pop	{r4, r5, r6, r7, pc}
.Ltmp643:
.Lfunc_end41:
	.size	AT_Resp_StationMAC, .Lfunc_end41-AT_Resp_StationMAC
	.cfi_endproc
	.cantunwind
	.fnend
                                        @ -- End function
	.section	.text.AT_Cmd_AccessPointMAC,"ax",%progbits
	.hidden	AT_Cmd_AccessPointMAC           @ -- Begin function AT_Cmd_AccessPointMAC
	.globl	AT_Cmd_AccessPointMAC
	.p2align	2
	.type	AT_Cmd_AccessPointMAC,%function
	.code	16                              @ @AT_Cmd_AccessPointMAC
	.thumb_func
AT_Cmd_AccessPointMAC:
.Lfunc_begin42:
	.loc	5 2255 0 is_stmt 1              @ C:/Users/shw26/AppData/Local/Arm/Packs/ARM/CMSIS-Driver/2.6.1/WiFi/ESP8266/ESP8266.c:2255:0
	.fnstart
	.cfi_startproc
@ %bb.0:
	@DEBUG_VALUE: AT_Cmd_AccessPointMAC:at_cmode <- $r0
	@DEBUG_VALUE: AT_Cmd_AccessPointMAC:mac <- $r1
	.save	{r4, r5, r6, lr}
	push	{r4, r5, r6, lr}
	.cfi_def_cfa_offset 16
	.cfi_offset lr, -4
	.cfi_offset r6, -8
	.cfi_offset r5, -12
	.cfi_offset r4, -16
	.pad	#80
	sub	sp, #80
	.cfi_def_cfa_offset 96
	mov	r5, r1
	mov	r6, r0
.Ltmp644:
	@DEBUG_VALUE: AT_Cmd_AccessPointMAC:mac <- $r5
	@DEBUG_VALUE: AT_Cmd_AccessPointMAC:at_cmode <- $r6
	movs	r0, #7
	add	r2, sp, #16
.Ltmp645:
	.loc	5 2260 7 prologue_end           @ C:/Users/shw26/AppData/Local/Arm/Packs/ARM/CMSIS-Driver/2.6.1/WiFi/ESP8266/ESP8266.c:2260:7
	mov	r1, r6
	bl	CmdOpen
	mov	r4, r0
.Ltmp646:
	@DEBUG_VALUE: AT_Cmd_AccessPointMAC:n <- $r4
	.loc	5 2262 7                        @ C:/Users/shw26/AppData/Local/Arm/Packs/ARM/CMSIS-Driver/2.6.1/WiFi/ESP8266/ESP8266.c:2262:7
	cmp	r6, #1
	bne	.LBB42_2
.Ltmp647:
@ %bb.1:
	@DEBUG_VALUE: AT_Cmd_AccessPointMAC:at_cmode <- $r6
	@DEBUG_VALUE: AT_Cmd_AccessPointMAC:mac <- $r5
	@DEBUG_VALUE: AT_Cmd_AccessPointMAC:n <- $r4
	.loc	5 2265 37                       @ C:/Users/shw26/AppData/Local/Arm/Packs/ARM/CMSIS-Driver/2.6.1/WiFi/ESP8266/ESP8266.c:2265:37
	ldrb	r3, [r5, #1]
	.loc	5 2265 29 is_stmt 0             @ C:/Users/shw26/AppData/Local/Arm/Packs/ARM/CMSIS-Driver/2.6.1/WiFi/ESP8266/ESP8266.c:2265:29
	ldrb	r2, [r5]
	.loc	5 2265 45                       @ C:/Users/shw26/AppData/Local/Arm/Packs/ARM/CMSIS-Driver/2.6.1/WiFi/ESP8266/ESP8266.c:2265:45
	ldrb	r0, [r5, #2]
	.loc	5 2265 53                       @ C:/Users/shw26/AppData/Local/Arm/Packs/ARM/CMSIS-Driver/2.6.1/WiFi/ESP8266/ESP8266.c:2265:53
	ldrb	r1, [r5, #3]
	.loc	5 2265 61                       @ C:/Users/shw26/AppData/Local/Arm/Packs/ARM/CMSIS-Driver/2.6.1/WiFi/ESP8266/ESP8266.c:2265:61
	ldrb	r6, [r5, #4]
.Ltmp648:
	.loc	5 2265 69                       @ C:/Users/shw26/AppData/Local/Arm/Packs/ARM/CMSIS-Driver/2.6.1/WiFi/ESP8266/ESP8266.c:2265:69
	ldrb	r5, [r5, #5]
.Ltmp649:
	.loc	5 2264 10 is_stmt 1             @ C:/Users/shw26/AppData/Local/Arm/Packs/ARM/CMSIS-Driver/2.6.1/WiFi/ESP8266/ESP8266.c:2264:10
	str	r0, [sp]
	str	r1, [sp, #4]
	str	r6, [sp, #8]
	str	r5, [sp, #12]
	add	r0, sp, #16
	.loc	5 2264 20 is_stmt 0             @ C:/Users/shw26/AppData/Local/Arm/Packs/ARM/CMSIS-Driver/2.6.1/WiFi/ESP8266/ESP8266.c:2264:20
	adds	r0, r0, r4
	.loc	5 2264 10                       @ C:/Users/shw26/AppData/Local/Arm/Packs/ARM/CMSIS-Driver/2.6.1/WiFi/ESP8266/ESP8266.c:2264:10
	ldr	r1, __arm_cp.42_0
	bl	__2sprintf
	.loc	5 2264 7                        @ C:/Users/shw26/AppData/Local/Arm/Packs/ARM/CMSIS-Driver/2.6.1/WiFi/ESP8266/ESP8266.c:2264:7
	adds	r4, r0, r4
.Ltmp650:
	@DEBUG_VALUE: AT_Cmd_AccessPointMAC:n <- $r4
.LBB42_2:
	@DEBUG_VALUE: AT_Cmd_AccessPointMAC:n <- $r4
	@DEBUG_VALUE: AT_Cmd_AccessPointMAC:n <- $r4
	.loc	5 0 7                           @ C:/Users/shw26/AppData/Local/Arm/Packs/ARM/CMSIS-Driver/2.6.1/WiFi/ESP8266/ESP8266.c:0:7
	movs	r0, #7
	add	r1, sp, #16
	.loc	5 2269 11 is_stmt 1             @ C:/Users/shw26/AppData/Local/Arm/Packs/ARM/CMSIS-Driver/2.6.1/WiFi/ESP8266/ESP8266.c:2269:11
	mov	r2, r4
	bl	CmdSend
	.loc	5 2269 3 is_stmt 0              @ C:/Users/shw26/AppData/Local/Arm/Packs/ARM/CMSIS-Driver/2.6.1/WiFi/ESP8266/ESP8266.c:2269:3
	add	sp, #80
	pop	{r4, r5, r6, pc}
.Ltmp651:
	.p2align	2
@ %bb.3:
	.loc	5 0 3                           @ C:/Users/shw26/AppData/Local/Arm/Packs/ARM/CMSIS-Driver/2.6.1/WiFi/ESP8266/ESP8266.c:0:3
__arm_cp.42_0:
	.long	.L.str.11
.Lcpi_end22:
	.size	__arm_cp.42_0, .Lcpi_end22-__arm_cp.42_0
.Lfunc_end42:
	.size	AT_Cmd_AccessPointMAC, .Lfunc_end42-AT_Cmd_AccessPointMAC
	.cfi_endproc
	.cantunwind
	.fnend
                                        @ -- End function
	.section	.text.AT_Resp_AccessPointMAC,"ax",%progbits
	.hidden	AT_Resp_AccessPointMAC          @ -- Begin function AT_Resp_AccessPointMAC
	.globl	AT_Resp_AccessPointMAC
	.p2align	1
	.type	AT_Resp_AccessPointMAC,%function
	.code	16                              @ @AT_Resp_AccessPointMAC
	.thumb_func
AT_Resp_AccessPointMAC:
.Lfunc_begin43:
	.loc	5 2278 0 is_stmt 1              @ C:/Users/shw26/AppData/Local/Arm/Packs/ARM/CMSIS-Driver/2.6.1/WiFi/ESP8266/ESP8266.c:2278:0
	.fnstart
	.cfi_startproc
@ %bb.0:
	@DEBUG_VALUE: AT_Resp_AccessPointMAC:mac <- $r0
	.save	{r4, r5, r6, r7, lr}
	push	{r4, r5, r6, r7, lr}
	.cfi_def_cfa_offset 20
	.cfi_offset lr, -4
	.cfi_offset r7, -8
	.cfi_offset r6, -12
	.cfi_offset r5, -16
	.cfi_offset r4, -20
	.pad	#36
	sub	sp, #36
	.cfi_def_cfa_offset 56
	mov	r4, r0
.Ltmp652:
	@DEBUG_VALUE: AT_Resp_AccessPointMAC:mac <- $r4
	add	r0, sp, #4
	movs	r1, #32
.Ltmp653:
	.loc	5 2285 11 prologue_end          @ C:/Users/shw26/AppData/Local/Arm/Packs/ARM/CMSIS-Driver/2.6.1/WiFi/ESP8266/ESP8266.c:2285:11
	bl	GetRespArg
	mov	r7, r0
.Ltmp654:
	@DEBUG_VALUE: AT_Resp_AccessPointMAC:val <- $r7
	.loc	5 0 11 is_stmt 0                @ C:/Users/shw26/AppData/Local/Arm/Packs/ARM/CMSIS-Driver/2.6.1/WiFi/ESP8266/ESP8266.c:0:11
	movs	r5, #0
	mvns	r0, r5
	.loc	5 2287 9 is_stmt 1              @ C:/Users/shw26/AppData/Local/Arm/Packs/ARM/CMSIS-Driver/2.6.1/WiFi/ESP8266/ESP8266.c:2287:9
	cmp	r7, #0
	bmi	.LBB43_7
.Ltmp655:
@ %bb.1:
	@DEBUG_VALUE: AT_Resp_AccessPointMAC:val <- $r7
	@DEBUG_VALUE: AT_Resp_AccessPointMAC:mac <- $r4
	.loc	5 0 9 is_stmt 0                 @ C:/Users/shw26/AppData/Local/Arm/Packs/ARM/CMSIS-Driver/2.6.1/WiFi/ESP8266/ESP8266.c:0:9
	str	r0, [sp]                        @ 4-byte Spill
	movs	r6, #32
	b	.LBB43_3
.Ltmp656:
.LBB43_2:                               @   in Loop: Header=BB43_3 Depth=1
	@DEBUG_VALUE: AT_Resp_AccessPointMAC:val <- $r7
	@DEBUG_VALUE: AT_Resp_AccessPointMAC:mac <- $r4
	add	r0, sp, #4
	.loc	5 2285 11 is_stmt 1             @ C:/Users/shw26/AppData/Local/Arm/Packs/ARM/CMSIS-Driver/2.6.1/WiFi/ESP8266/ESP8266.c:2285:11
	mov	r1, r6
	bl	GetRespArg
	mov	r7, r0
.Ltmp657:
	@DEBUG_VALUE: AT_Resp_AccessPointMAC:val <- $r7
	.loc	5 2287 9                        @ C:/Users/shw26/AppData/Local/Arm/Packs/ARM/CMSIS-Driver/2.6.1/WiFi/ESP8266/ESP8266.c:2287:9
	cmp	r0, #0
	bmi	.LBB43_6
.Ltmp658:
.LBB43_3:                               @ =>This Inner Loop Header: Depth=1
	@DEBUG_VALUE: AT_Resp_AccessPointMAC:val <- $r7
	@DEBUG_VALUE: AT_Resp_AccessPointMAC:mac <- $r4
	.loc	5 2291 9                        @ C:/Users/shw26/AppData/Local/Arm/Packs/ARM/CMSIS-Driver/2.6.1/WiFi/ESP8266/ESP8266.c:2291:9
	cmp	r7, #1
	beq	.LBB43_2
.Ltmp659:
@ %bb.4:                                @   in Loop: Header=BB43_3 Depth=1
	@DEBUG_VALUE: AT_Resp_AccessPointMAC:val <- $r7
	@DEBUG_VALUE: AT_Resp_AccessPointMAC:mac <- $r4
	.loc	5 0 9 is_stmt 0                 @ C:/Users/shw26/AppData/Local/Arm/Packs/ARM/CMSIS-Driver/2.6.1/WiFi/ESP8266/ESP8266.c:0:9
	add	r0, sp, #4
.Ltmp660:
	.loc	5 2296 7 is_stmt 1              @ C:/Users/shw26/AppData/Local/Arm/Packs/ARM/CMSIS-Driver/2.6.1/WiFi/ESP8266/ESP8266.c:2296:7
	mov	r1, r4
	bl	AT_Parse_MAC
.Ltmp661:
	.loc	5 2298 3                        @ C:/Users/shw26/AppData/Local/Arm/Packs/ARM/CMSIS-Driver/2.6.1/WiFi/ESP8266/ESP8266.c:2298:3
	cmp	r7, #3
.Ltmp662:
	@DEBUG_VALUE: AT_Resp_AccessPointMAC:p <- [DW_OP_plus_uconst 4, DW_OP_stack_value] $sp
	bne	.LBB43_2
.Ltmp663:
@ %bb.5:
	@DEBUG_VALUE: AT_Resp_AccessPointMAC:val <- $r7
	@DEBUG_VALUE: AT_Resp_AccessPointMAC:mac <- $r4
	@DEBUG_VALUE: AT_Resp_AccessPointMAC:p <- [DW_OP_plus_uconst 4, DW_OP_stack_value] $sp
	.loc	5 0 0 is_stmt 0                 @ C:/Users/shw26/AppData/Local/Arm/Packs/ARM/CMSIS-Driver/2.6.1/WiFi/ESP8266/ESP8266.c:0:0
	mov	r0, r5
.Ltmp664:
	@DEBUG_VALUE: AT_Resp_AccessPointMAC:val <- $r0
	.loc	5 2307 3 is_stmt 1              @ C:/Users/shw26/AppData/Local/Arm/Packs/ARM/CMSIS-Driver/2.6.1/WiFi/ESP8266/ESP8266.c:2307:3
	add	sp, #36
.Ltmp665:
	pop	{r4, r5, r6, r7, pc}
.Ltmp666:
.LBB43_6:
	@DEBUG_VALUE: AT_Resp_AccessPointMAC:val <- $r7
	@DEBUG_VALUE: AT_Resp_AccessPointMAC:mac <- $r4
	.loc	5 0 3 is_stmt 0                 @ C:/Users/shw26/AppData/Local/Arm/Packs/ARM/CMSIS-Driver/2.6.1/WiFi/ESP8266/ESP8266.c:0:3
	ldr	r0, [sp]                        @ 4-byte Reload
.Ltmp667:
.LBB43_7:
	@DEBUG_VALUE: AT_Resp_AccessPointMAC:val <- $r7
	@DEBUG_VALUE: AT_Resp_AccessPointMAC:mac <- $r4
	@DEBUG_VALUE: AT_Resp_AccessPointMAC:val <- $r0
	.loc	5 2307 3                        @ C:/Users/shw26/AppData/Local/Arm/Packs/ARM/CMSIS-Driver/2.6.1/WiFi/ESP8266/ESP8266.c:2307:3
	add	sp, #36
	pop	{r4, r5, r6, r7, pc}
.Ltmp668:
.Lfunc_end43:
	.size	AT_Resp_AccessPointMAC, .Lfunc_end43-AT_Resp_AccessPointMAC
	.cfi_endproc
	.cantunwind
	.fnend
                                        @ -- End function
	.section	.text.AT_Cmd_StationIP,"ax",%progbits
	.hidden	AT_Cmd_StationIP                @ -- Begin function AT_Cmd_StationIP
	.globl	AT_Cmd_StationIP
	.p2align	2
	.type	AT_Cmd_StationIP,%function
	.code	16                              @ @AT_Cmd_StationIP
	.thumb_func
AT_Cmd_StationIP:
.Lfunc_begin44:
	.loc	5 2321 0 is_stmt 1              @ C:/Users/shw26/AppData/Local/Arm/Packs/ARM/CMSIS-Driver/2.6.1/WiFi/ESP8266/ESP8266.c:2321:0
	.fnstart
	.cfi_startproc
@ %bb.0:
	@DEBUG_VALUE: AT_Cmd_StationIP:at_cmode <- $r0
	@DEBUG_VALUE: AT_Cmd_StationIP:ip <- $r1
	@DEBUG_VALUE: AT_Cmd_StationIP:gw <- $r2
	@DEBUG_VALUE: AT_Cmd_StationIP:mask <- $r3
	.save	{r4, r5, r6, r7, lr}
	push	{r4, r5, r6, r7, lr}
	.cfi_def_cfa_offset 20
	.cfi_offset lr, -4
	.cfi_offset r7, -8
	.cfi_offset r6, -12
	.cfi_offset r5, -16
	.cfi_offset r4, -20
	.pad	#84
	sub	sp, #84
	.cfi_def_cfa_offset 104
	str	r3, [sp, #8]                    @ 4-byte Spill
	mov	r6, r2
	mov	r7, r1
	mov	r5, r0
.Ltmp669:
	@DEBUG_VALUE: AT_Cmd_StationIP:mask <- [DW_OP_plus_uconst 8] [$sp+0]
	@DEBUG_VALUE: AT_Cmd_StationIP:gw <- $r6
	@DEBUG_VALUE: AT_Cmd_StationIP:ip <- $r7
	@DEBUG_VALUE: AT_Cmd_StationIP:at_cmode <- $r5
	movs	r0, #9
	add	r2, sp, #12
.Ltmp670:
	.loc	5 2326 7 prologue_end           @ C:/Users/shw26/AppData/Local/Arm/Packs/ARM/CMSIS-Driver/2.6.1/WiFi/ESP8266/ESP8266.c:2326:7
	mov	r1, r5
	bl	CmdOpen
	mov	r4, r0
.Ltmp671:
	@DEBUG_VALUE: AT_Cmd_StationIP:n <- $r4
	.loc	5 2328 7                        @ C:/Users/shw26/AppData/Local/Arm/Packs/ARM/CMSIS-Driver/2.6.1/WiFi/ESP8266/ESP8266.c:2328:7
	cmp	r5, #1
	bne	.LBB44_4
.Ltmp672:
@ %bb.1:
	@DEBUG_VALUE: AT_Cmd_StationIP:ip <- $r7
	@DEBUG_VALUE: AT_Cmd_StationIP:gw <- $r6
	@DEBUG_VALUE: AT_Cmd_StationIP:at_cmode <- $r5
	@DEBUG_VALUE: AT_Cmd_StationIP:n <- $r4
	@DEBUG_VALUE: AT_Cmd_StationIP:mask <- [DW_OP_plus_uconst 8] [$sp+0]
	.loc	5 2330 54                       @ C:/Users/shw26/AppData/Local/Arm/Packs/ARM/CMSIS-Driver/2.6.1/WiFi/ESP8266/ESP8266.c:2330:54
	ldrb	r3, [r7, #1]
	.loc	5 2330 47 is_stmt 0             @ C:/Users/shw26/AppData/Local/Arm/Packs/ARM/CMSIS-Driver/2.6.1/WiFi/ESP8266/ESP8266.c:2330:47
	ldrb	r2, [r7]
	.loc	5 2330 61                       @ C:/Users/shw26/AppData/Local/Arm/Packs/ARM/CMSIS-Driver/2.6.1/WiFi/ESP8266/ESP8266.c:2330:61
	ldrb	r0, [r7, #2]
	.loc	5 2330 68                       @ C:/Users/shw26/AppData/Local/Arm/Packs/ARM/CMSIS-Driver/2.6.1/WiFi/ESP8266/ESP8266.c:2330:68
	ldrb	r1, [r7, #3]
	.loc	5 2330 10                       @ C:/Users/shw26/AppData/Local/Arm/Packs/ARM/CMSIS-Driver/2.6.1/WiFi/ESP8266/ESP8266.c:2330:10
	str	r0, [sp]
	str	r1, [sp, #4]
	add	r0, sp, #12
	.loc	5 2330 20                       @ C:/Users/shw26/AppData/Local/Arm/Packs/ARM/CMSIS-Driver/2.6.1/WiFi/ESP8266/ESP8266.c:2330:20
	adds	r0, r0, r4
	.loc	5 2330 10                       @ C:/Users/shw26/AppData/Local/Arm/Packs/ARM/CMSIS-Driver/2.6.1/WiFi/ESP8266/ESP8266.c:2330:10
	ldr	r1, __arm_cp.44_0
	bl	__2sprintf
	.loc	5 2330 7                        @ C:/Users/shw26/AppData/Local/Arm/Packs/ARM/CMSIS-Driver/2.6.1/WiFi/ESP8266/ESP8266.c:2330:7
	adds	r4, r0, r4
.Ltmp673:
	@DEBUG_VALUE: AT_Cmd_StationIP:n <- $r4
	.loc	5 2332 9 is_stmt 1              @ C:/Users/shw26/AppData/Local/Arm/Packs/ARM/CMSIS-Driver/2.6.1/WiFi/ESP8266/ESP8266.c:2332:9
	cbz	r6, .LBB44_4
.Ltmp674:
@ %bb.2:
	@DEBUG_VALUE: AT_Cmd_StationIP:ip <- $r7
	@DEBUG_VALUE: AT_Cmd_StationIP:gw <- $r6
	@DEBUG_VALUE: AT_Cmd_StationIP:at_cmode <- $r5
	@DEBUG_VALUE: AT_Cmd_StationIP:n <- $r4
	@DEBUG_VALUE: AT_Cmd_StationIP:mask <- [DW_OP_plus_uconst 8] [$sp+0]
	.loc	5 2334 57                       @ C:/Users/shw26/AppData/Local/Arm/Packs/ARM/CMSIS-Driver/2.6.1/WiFi/ESP8266/ESP8266.c:2334:57
	ldrb	r3, [r6, #1]
	.loc	5 2334 50 is_stmt 0             @ C:/Users/shw26/AppData/Local/Arm/Packs/ARM/CMSIS-Driver/2.6.1/WiFi/ESP8266/ESP8266.c:2334:50
	ldrb	r2, [r6]
	.loc	5 2334 64                       @ C:/Users/shw26/AppData/Local/Arm/Packs/ARM/CMSIS-Driver/2.6.1/WiFi/ESP8266/ESP8266.c:2334:64
	ldrb	r0, [r6, #2]
	.loc	5 2334 71                       @ C:/Users/shw26/AppData/Local/Arm/Packs/ARM/CMSIS-Driver/2.6.1/WiFi/ESP8266/ESP8266.c:2334:71
	ldrb	r1, [r6, #3]
	.loc	5 2334 12                       @ C:/Users/shw26/AppData/Local/Arm/Packs/ARM/CMSIS-Driver/2.6.1/WiFi/ESP8266/ESP8266.c:2334:12
	str	r0, [sp]
	str	r1, [sp, #4]
	add	r0, sp, #12
	.loc	5 2334 22                       @ C:/Users/shw26/AppData/Local/Arm/Packs/ARM/CMSIS-Driver/2.6.1/WiFi/ESP8266/ESP8266.c:2334:22
	adds	r0, r0, r4
	.loc	5 2334 12                       @ C:/Users/shw26/AppData/Local/Arm/Packs/ARM/CMSIS-Driver/2.6.1/WiFi/ESP8266/ESP8266.c:2334:12
	ldr	r1, __arm_cp.44_1
	bl	__2sprintf
	.loc	5 2334 9                        @ C:/Users/shw26/AppData/Local/Arm/Packs/ARM/CMSIS-Driver/2.6.1/WiFi/ESP8266/ESP8266.c:2334:9
	adds	r4, r0, r4
.Ltmp675:
	@DEBUG_VALUE: AT_Cmd_StationIP:n <- $r4
	.loc	5 0 9                           @ C:/Users/shw26/AppData/Local/Arm/Packs/ARM/CMSIS-Driver/2.6.1/WiFi/ESP8266/ESP8266.c:0:9
	ldr	r1, [sp, #8]                    @ 4-byte Reload
	.loc	5 2336 11 is_stmt 1             @ C:/Users/shw26/AppData/Local/Arm/Packs/ARM/CMSIS-Driver/2.6.1/WiFi/ESP8266/ESP8266.c:2336:11
	cbz	r1, .LBB44_4
.Ltmp676:
@ %bb.3:
	@DEBUG_VALUE: AT_Cmd_StationIP:ip <- $r7
	@DEBUG_VALUE: AT_Cmd_StationIP:gw <- $r6
	@DEBUG_VALUE: AT_Cmd_StationIP:at_cmode <- $r5
	@DEBUG_VALUE: AT_Cmd_StationIP:n <- $r4
	@DEBUG_VALUE: AT_Cmd_StationIP:mask <- [DW_OP_plus_uconst 8] [$sp+0]
	.loc	5 2338 61                       @ C:/Users/shw26/AppData/Local/Arm/Packs/ARM/CMSIS-Driver/2.6.1/WiFi/ESP8266/ESP8266.c:2338:61
	ldrb	r3, [r1, #1]
	.loc	5 2338 52 is_stmt 0             @ C:/Users/shw26/AppData/Local/Arm/Packs/ARM/CMSIS-Driver/2.6.1/WiFi/ESP8266/ESP8266.c:2338:52
	ldrb	r2, [r1]
	.loc	5 2338 70                       @ C:/Users/shw26/AppData/Local/Arm/Packs/ARM/CMSIS-Driver/2.6.1/WiFi/ESP8266/ESP8266.c:2338:70
	ldrb	r0, [r1, #2]
	.loc	5 2338 79                       @ C:/Users/shw26/AppData/Local/Arm/Packs/ARM/CMSIS-Driver/2.6.1/WiFi/ESP8266/ESP8266.c:2338:79
	ldrb	r1, [r1, #3]
	.loc	5 2338 14                       @ C:/Users/shw26/AppData/Local/Arm/Packs/ARM/CMSIS-Driver/2.6.1/WiFi/ESP8266/ESP8266.c:2338:14
	str	r0, [sp]
	str	r1, [sp, #4]
	add	r0, sp, #12
	.loc	5 2338 24                       @ C:/Users/shw26/AppData/Local/Arm/Packs/ARM/CMSIS-Driver/2.6.1/WiFi/ESP8266/ESP8266.c:2338:24
	adds	r0, r0, r4
	.loc	5 2338 14                       @ C:/Users/shw26/AppData/Local/Arm/Packs/ARM/CMSIS-Driver/2.6.1/WiFi/ESP8266/ESP8266.c:2338:14
	ldr	r1, __arm_cp.44_1
	bl	__2sprintf
	.loc	5 2338 11                       @ C:/Users/shw26/AppData/Local/Arm/Packs/ARM/CMSIS-Driver/2.6.1/WiFi/ESP8266/ESP8266.c:2338:11
	adds	r4, r0, r4
.Ltmp677:
	@DEBUG_VALUE: AT_Cmd_StationIP:n <- $r4
.LBB44_4:
	@DEBUG_VALUE: AT_Cmd_StationIP:ip <- $r7
	@DEBUG_VALUE: AT_Cmd_StationIP:gw <- $r6
	@DEBUG_VALUE: AT_Cmd_StationIP:at_cmode <- $r5
	@DEBUG_VALUE: AT_Cmd_StationIP:n <- $r4
	@DEBUG_VALUE: AT_Cmd_StationIP:mask <- [DW_OP_plus_uconst 8] [$sp+0]
	@DEBUG_VALUE: AT_Cmd_StationIP:n <- $r4
	.loc	5 0 11                          @ C:/Users/shw26/AppData/Local/Arm/Packs/ARM/CMSIS-Driver/2.6.1/WiFi/ESP8266/ESP8266.c:0:11
	movs	r0, #9
	add	r1, sp, #12
	.loc	5 2344 11 is_stmt 1             @ C:/Users/shw26/AppData/Local/Arm/Packs/ARM/CMSIS-Driver/2.6.1/WiFi/ESP8266/ESP8266.c:2344:11
	mov	r2, r4
	bl	CmdSend
	.loc	5 2344 3 is_stmt 0              @ C:/Users/shw26/AppData/Local/Arm/Packs/ARM/CMSIS-Driver/2.6.1/WiFi/ESP8266/ESP8266.c:2344:3
	add	sp, #84
.Ltmp678:
	pop	{r4, r5, r6, r7, pc}
.Ltmp679:
	.p2align	2
@ %bb.5:
	.loc	5 0 3                           @ C:/Users/shw26/AppData/Local/Arm/Packs/ARM/CMSIS-Driver/2.6.1/WiFi/ESP8266/ESP8266.c:0:3
__arm_cp.44_0:
	.long	.L.str.12
.Lcpi_end23:
	.size	__arm_cp.44_0, .Lcpi_end23-__arm_cp.44_0
__arm_cp.44_1:
	.long	.L.str.13
.Lcpi_end24:
	.size	__arm_cp.44_1, .Lcpi_end24-__arm_cp.44_1
.Lfunc_end44:
	.size	AT_Cmd_StationIP, .Lfunc_end44-AT_Cmd_StationIP
	.cfi_endproc
	.cantunwind
	.fnend
                                        @ -- End function
	.section	.text.AT_Resp_StationIP,"ax",%progbits
	.hidden	AT_Resp_StationIP               @ -- Begin function AT_Resp_StationIP
	.globl	AT_Resp_StationIP
	.p2align	1
	.type	AT_Resp_StationIP,%function
	.code	16                              @ @AT_Resp_StationIP
	.thumb_func
AT_Resp_StationIP:
.Lfunc_begin45:
	.loc	5 2362 0 is_stmt 1              @ C:/Users/shw26/AppData/Local/Arm/Packs/ARM/CMSIS-Driver/2.6.1/WiFi/ESP8266/ESP8266.c:2362:0
	.fnstart
	.cfi_startproc
@ %bb.0:
	@DEBUG_VALUE: AT_Resp_StationIP:addr <- $r0
	.save	{r4, r5, r6, r7, lr}
	push	{r4, r5, r6, r7, lr}
	.cfi_def_cfa_offset 20
	.cfi_offset lr, -4
	.cfi_offset r7, -8
	.cfi_offset r6, -12
	.cfi_offset r5, -16
	.cfi_offset r4, -20
	.pad	#36
	sub	sp, #36
	.cfi_def_cfa_offset 56
	mov	r5, r0
.Ltmp680:
	@DEBUG_VALUE: AT_Resp_StationIP:addr <- $r5
	movs	r7, #32
	movs	r4, #1
	b	.LBB45_2
.Ltmp681:
.LBB45_1:                               @   in Loop: Header=BB45_2 Depth=1
	@DEBUG_VALUE: AT_Resp_StationIP:val <- $r6
	@DEBUG_VALUE: AT_Resp_StationIP:addr <- $r5
	.loc	5 2384 21 prologue_end          @ C:/Users/shw26/AppData/Local/Arm/Packs/ARM/CMSIS-Driver/2.6.1/WiFi/ESP8266/ESP8266.c:2384:21
	mov	r0, r6
	bics	r0, r4
.Ltmp682:
	.loc	5 2383 3                        @ C:/Users/shw26/AppData/Local/Arm/Packs/ARM/CMSIS-Driver/2.6.1/WiFi/ESP8266/ESP8266.c:2383:3
	cmp	r0, #2
	beq	.LBB45_5
.Ltmp683:
.LBB45_2:                               @ =>This Inner Loop Header: Depth=1
	@DEBUG_VALUE: AT_Resp_StationIP:addr <- $r5
	.loc	5 0 3 is_stmt 0                 @ C:/Users/shw26/AppData/Local/Arm/Packs/ARM/CMSIS-Driver/2.6.1/WiFi/ESP8266/ESP8266.c:0:3
	add	r0, sp, #4
	.loc	5 2369 11 is_stmt 1             @ C:/Users/shw26/AppData/Local/Arm/Packs/ARM/CMSIS-Driver/2.6.1/WiFi/ESP8266/ESP8266.c:2369:11
	mov	r1, r7
	bl	GetRespArg
	mov	r6, r0
.Ltmp684:
	@DEBUG_VALUE: AT_Resp_StationIP:val <- $r6
	.loc	5 2371 9                        @ C:/Users/shw26/AppData/Local/Arm/Packs/ARM/CMSIS-Driver/2.6.1/WiFi/ESP8266/ESP8266.c:2371:9
	cmp	r0, #0
	bmi	.LBB45_5
.Ltmp685:
@ %bb.3:                                @   in Loop: Header=BB45_2 Depth=1
	@DEBUG_VALUE: AT_Resp_StationIP:val <- $r6
	@DEBUG_VALUE: AT_Resp_StationIP:addr <- $r5
	.loc	5 2376 9                        @ C:/Users/shw26/AppData/Local/Arm/Packs/ARM/CMSIS-Driver/2.6.1/WiFi/ESP8266/ESP8266.c:2376:9
	cmp	r6, #1
	beq	.LBB45_1
.Ltmp686:
@ %bb.4:                                @   in Loop: Header=BB45_2 Depth=1
	@DEBUG_VALUE: AT_Resp_StationIP:val <- $r6
	@DEBUG_VALUE: AT_Resp_StationIP:addr <- $r5
	.loc	5 0 9 is_stmt 0                 @ C:/Users/shw26/AppData/Local/Arm/Packs/ARM/CMSIS-Driver/2.6.1/WiFi/ESP8266/ESP8266.c:0:9
	add	r0, sp, #4
.Ltmp687:
	.loc	5 2381 7 is_stmt 1              @ C:/Users/shw26/AppData/Local/Arm/Packs/ARM/CMSIS-Driver/2.6.1/WiFi/ESP8266/ESP8266.c:2381:7
	mov	r1, r5
	bl	AT_Parse_IP
.Ltmp688:
	@DEBUG_VALUE: AT_Resp_StationIP:p <- [DW_OP_plus_uconst 4, DW_OP_stack_value] $sp
	.loc	5 0 7 is_stmt 0                 @ C:/Users/shw26/AppData/Local/Arm/Packs/ARM/CMSIS-Driver/2.6.1/WiFi/ESP8266/ESP8266.c:0:7
	b	.LBB45_1
.Ltmp689:
.LBB45_5:
	@DEBUG_VALUE: AT_Resp_StationIP:val <- $r6
	@DEBUG_VALUE: AT_Resp_StationIP:addr <- $r5
	.loc	5 2386 7 is_stmt 1              @ C:/Users/shw26/AppData/Local/Arm/Packs/ARM/CMSIS-Driver/2.6.1/WiFi/ESP8266/ESP8266.c:2386:7
	cmp	r6, #3
	beq	.LBB45_8
.Ltmp690:
@ %bb.6:
	@DEBUG_VALUE: AT_Resp_StationIP:val <- $r6
	@DEBUG_VALUE: AT_Resp_StationIP:addr <- $r5
	cmp	r6, #2
	beq	.LBB45_9
.Ltmp691:
@ %bb.7:
	@DEBUG_VALUE: AT_Resp_StationIP:val <- $r6
	@DEBUG_VALUE: AT_Resp_StationIP:addr <- $r5
	.loc	5 0 0 is_stmt 0                 @ C:/Users/shw26/AppData/Local/Arm/Packs/ARM/CMSIS-Driver/2.6.1/WiFi/ESP8266/ESP8266.c:0:0
	mov	r4, r6
.Ltmp692:
	@DEBUG_VALUE: AT_Resp_StationIP:val <- $r4
	b	.LBB45_9
.Ltmp693:
.LBB45_8:
	@DEBUG_VALUE: AT_Resp_StationIP:val <- $r6
	@DEBUG_VALUE: AT_Resp_StationIP:addr <- $r5
	movs	r4, #0
.Ltmp694:
.LBB45_9:
	@DEBUG_VALUE: AT_Resp_StationIP:addr <- $r5
	@DEBUG_VALUE: AT_Resp_StationIP:val <- $r4
	.loc	5 2397 3 is_stmt 1              @ C:/Users/shw26/AppData/Local/Arm/Packs/ARM/CMSIS-Driver/2.6.1/WiFi/ESP8266/ESP8266.c:2397:3
	mov	r0, r4
	add	sp, #36
	pop	{r4, r5, r6, r7, pc}
.Ltmp695:
.Lfunc_end45:
	.size	AT_Resp_StationIP, .Lfunc_end45-AT_Resp_StationIP
	.cfi_endproc
	.cantunwind
	.fnend
                                        @ -- End function
	.section	.text.AT_Cmd_AccessPointIP,"ax",%progbits
	.hidden	AT_Cmd_AccessPointIP            @ -- Begin function AT_Cmd_AccessPointIP
	.globl	AT_Cmd_AccessPointIP
	.p2align	2
	.type	AT_Cmd_AccessPointIP,%function
	.code	16                              @ @AT_Cmd_AccessPointIP
	.thumb_func
AT_Cmd_AccessPointIP:
.Lfunc_begin46:
	.loc	5 2409 0                        @ C:/Users/shw26/AppData/Local/Arm/Packs/ARM/CMSIS-Driver/2.6.1/WiFi/ESP8266/ESP8266.c:2409:0
	.fnstart
	.cfi_startproc
@ %bb.0:
	@DEBUG_VALUE: AT_Cmd_AccessPointIP:at_cmode <- $r0
	@DEBUG_VALUE: AT_Cmd_AccessPointIP:ip <- $r1
	@DEBUG_VALUE: AT_Cmd_AccessPointIP:gw <- $r2
	@DEBUG_VALUE: AT_Cmd_AccessPointIP:mask <- $r3
	.save	{r4, r5, r6, r7, lr}
	push	{r4, r5, r6, r7, lr}
	.cfi_def_cfa_offset 20
	.cfi_offset lr, -4
	.cfi_offset r7, -8
	.cfi_offset r6, -12
	.cfi_offset r5, -16
	.cfi_offset r4, -20
