	.text
	.syntax unified
	.eabi_attribute	67, "2.09"	@ Tag_conformance
	.cpu	cortex-m23
	.eabi_attribute	6, 16	@ Tag_CPU_arch
	.eabi_attribute	7, 77	@ Tag_CPU_arch_profile
	.eabi_attribute	8, 0	@ Tag_ARM_ISA_use
	.eabi_attribute	9, 3	@ Tag_THUMB_ISA_use
	.eabi_attribute	34, 0	@ Tag_CPU_unaligned_access
	.eabi_attribute	17, 1	@ Tag_ABI_PCS_GOT_use
	.eabi_attribute	20, 2	@ Tag_ABI_FP_denormal
	.eabi_attribute	21, 0	@ Tag_ABI_FP_exceptions
	.eabi_attribute	23, 1	@ Tag_ABI_FP_number_model
	.eabi_attribute	24, 1	@ Tag_ABI_align_needed
	.eabi_attribute	25, 1	@ Tag_ABI_align_preserved
	.eabi_attribute	38, 1	@ Tag_ABI_FP_16bit_format
	.eabi_attribute	18, 2	@ Tag_ABI_PCS_wchar_t
	.eabi_attribute	26, 1	@ Tag_ABI_enum_size
	.eabi_attribute	14, 0	@ Tag_ABI_PCS_R9_use
	.file	"fmc.c"
	.file	1 "C:\\" "Keil_v5\\ARM\\ARMCLANG\\Bin\\..\\include\\stdint.h"
	.file	2 "C:\\Users\\shw26\\OneDrive\\Desktop\\2021\\2021-1\\\354\272\241\354\212\244\355\206\244\353\224\224\354\236\220\354\235\2702\\Nuvoton\\M2351_BSP_v3.00.004\\M2351Series_BSP_CMSIS_V3.00.004\\MyProject\\PulseMonitoring\\Secure" "../../../Library/Device/Nuvoton/M2351/Include/fmc_reg.h"
	.section	.text.FMC_CheckAllOne,"ax",%progbits
	.hidden	FMC_CheckAllOne                 @ -- Begin function FMC_CheckAllOne
	.globl	FMC_CheckAllOne
	.p2align	2
	.type	FMC_CheckAllOne,%function
	.code	16                              @ @FMC_CheckAllOne
	.thumb_func
FMC_CheckAllOne:
.Lfunc_begin0:
	.file	3 "C:\\Users\\shw26\\OneDrive\\Desktop\\2021\\2021-1\\\354\272\241\354\212\244\355\206\244\353\224\224\354\236\220\354\235\2702\\Nuvoton\\M2351_BSP_v3.00.004\\M2351Series_BSP_CMSIS_V3.00.004\\MyProject\\PulseMonitoring\\Secure" "../../../Library/StdDriver/src/fmc.c"
	.loc	3 39 0                          @ ../../../Library/StdDriver/src/fmc.c:39:0
	.fnstart
	.cfi_sections .debug_frame
	.cfi_startproc
@ %bb.0:
	@DEBUG_VALUE: FMC_CheckAllOne:u32addr <- $r0
	@DEBUG_VALUE: FMC_CheckAllOne:u32count <- $r1
	.save	{r4, r5, r7, lr}
	push	{r4, r5, r7, lr}
	.cfi_def_cfa_offset 16
	.cfi_offset lr, -4
	.cfi_offset r7, -8
	.cfi_offset r5, -12
	.cfi_offset r4, -16
	ldr	r2, __arm_cp.0_0
	movs	r3, #128
.Ltmp0:
	@DEBUG_VALUE: FMC_CheckAllOne:ret <- -1
	@DEBUG_VALUE: FMC_CheckAllOne:u32count <- $r1
	@DEBUG_VALUE: FMC_CheckAllOne:u32addr <- $r0
	.loc	3 42 17 prologue_end            @ ../../../Library/StdDriver/src/fmc.c:42:17
	str	r3, [r2, #56]
	movs	r3, #40
	.loc	3 44 19                         @ ../../../Library/StdDriver/src/fmc.c:44:19
	str	r3, [r2, #4]
	.loc	3 45 19                         @ ../../../Library/StdDriver/src/fmc.c:45:19
	subs	r3, r2, #4
	str	r0, [r3]
	.loc	3 46 19                         @ ../../../Library/StdDriver/src/fmc.c:46:19
	str	r1, [r2]
	movs	r1, #1
.Ltmp1:
	@DEBUG_VALUE: FMC_CheckAllOne:u32count <- [DW_OP_LLVM_entry_value 1] $r1
	.loc	3 47 19                         @ ../../../Library/StdDriver/src/fmc.c:47:19
	str	r1, [r2, #8]
.Ltmp2:
.LBB0_1:                                @ =>This Inner Loop Header: Depth=1
	@DEBUG_VALUE: FMC_CheckAllOne:u32addr <- $r0
	@DEBUG_VALUE: FMC_CheckAllOne:u32count <- [DW_OP_LLVM_entry_value 1] $r1
	@DEBUG_VALUE: FMC_CheckAllOne:ret <- -1
	.loc	3 49 16                         @ ../../../Library/StdDriver/src/fmc.c:49:16
	ldr	r4, [r2, #56]
	.loc	3 49 5 is_stmt 0                @ ../../../Library/StdDriver/src/fmc.c:49:5
	lsls	r4, r4, #31
	bne	.LBB0_1
.Ltmp3:
@ %bb.2:
	@DEBUG_VALUE: FMC_CheckAllOne:u32addr <- $r0
	@DEBUG_VALUE: FMC_CheckAllOne:u32count <- [DW_OP_LLVM_entry_value 1] $r1
	@DEBUG_VALUE: FMC_CheckAllOne:ret <- -1
	.loc	3 0 5                           @ ../../../Library/StdDriver/src/fmc.c:0:5
	movs	r4, #8
.Ltmp4:
.LBB0_3:                                @ =>This Loop Header: Depth=1
                                        @     Child Loop BB0_4 Depth 2
	@DEBUG_VALUE: FMC_CheckAllOne:u32addr <- $r0
	@DEBUG_VALUE: FMC_CheckAllOne:u32count <- [DW_OP_LLVM_entry_value 1] $r1
	@DEBUG_VALUE: FMC_CheckAllOne:ret <- -1
	.loc	3 53 21 is_stmt 1               @ ../../../Library/StdDriver/src/fmc.c:53:21
	str	r4, [r2, #4]
	.loc	3 54 25                         @ ../../../Library/StdDriver/src/fmc.c:54:25
	str	r0, [r3]
	.loc	3 55 21                         @ ../../../Library/StdDriver/src/fmc.c:55:21
	str	r1, [r2, #8]
.Ltmp5:
.LBB0_4:                                @   Parent Loop BB0_3 Depth=1
                                        @ =>  This Inner Loop Header: Depth=2
	@DEBUG_VALUE: FMC_CheckAllOne:u32addr <- $r0
	@DEBUG_VALUE: FMC_CheckAllOne:u32count <- [DW_OP_LLVM_entry_value 1] $r1
	@DEBUG_VALUE: FMC_CheckAllOne:ret <- -1
	.loc	3 56 20                         @ ../../../Library/StdDriver/src/fmc.c:56:20
	ldr	r5, [r2, #56]
	.loc	3 56 9 is_stmt 0                @ ../../../Library/StdDriver/src/fmc.c:56:9
	lsls	r5, r5, #31
	bne	.LBB0_4
.Ltmp6:
@ %bb.5:                                @   in Loop: Header=BB0_3 Depth=1
	@DEBUG_VALUE: FMC_CheckAllOne:u32addr <- $r0
	@DEBUG_VALUE: FMC_CheckAllOne:u32count <- [DW_OP_LLVM_entry_value 1] $r1
	@DEBUG_VALUE: FMC_CheckAllOne:ret <- -1
	.loc	3 58 16 is_stmt 1               @ ../../../Library/StdDriver/src/fmc.c:58:16
	ldr	r5, [r2]
.Ltmp7:
	.loc	3 57 5                          @ ../../../Library/StdDriver/src/fmc.c:57:5
	cmp	r5, #0
	beq	.LBB0_3
.Ltmp8:
@ %bb.6:
	@DEBUG_VALUE: FMC_CheckAllOne:u32addr <- $r0
	@DEBUG_VALUE: FMC_CheckAllOne:u32count <- [DW_OP_LLVM_entry_value 1] $r1
	@DEBUG_VALUE: FMC_CheckAllOne:ret <- -1
	.loc	3 60 13                         @ ../../../Library/StdDriver/src/fmc.c:60:13
	ldr	r0, [r2]
.Ltmp9:
	@DEBUG_VALUE: FMC_CheckAllOne:u32addr <- [DW_OP_LLVM_entry_value 1] $r0
	.loc	3 0 13 is_stmt 0                @ ../../../Library/StdDriver/src/fmc.c:0:13
	ldr	r1, __arm_cp.0_1
.Ltmp10:
	.loc	3 60 8                          @ ../../../Library/StdDriver/src/fmc.c:60:8
	cmp	r0, r1
	bne	.LBB0_8
.Ltmp11:
@ %bb.7:
	@DEBUG_VALUE: FMC_CheckAllOne:u32addr <- [DW_OP_LLVM_entry_value 1] $r0
	@DEBUG_VALUE: FMC_CheckAllOne:u32count <- [DW_OP_LLVM_entry_value 1] $r1
	@DEBUG_VALUE: FMC_CheckAllOne:ret <- -1
	.loc	3 62 20 is_stmt 1               @ ../../../Library/StdDriver/src/fmc.c:62:20
	ldr	r0, [r2]
.Ltmp12:
	@DEBUG_VALUE: FMC_CheckAllOne:ret <- $r0
	.loc	3 0 20 is_stmt 0                @ ../../../Library/StdDriver/src/fmc.c:0:20
	b	.LBB0_9
.Ltmp13:
.LBB0_8:
	@DEBUG_VALUE: FMC_CheckAllOne:u32addr <- [DW_OP_LLVM_entry_value 1] $r0
	@DEBUG_VALUE: FMC_CheckAllOne:u32count <- [DW_OP_LLVM_entry_value 1] $r1
	@DEBUG_VALUE: FMC_CheckAllOne:ret <- -1
	movs	r0, #0
	mvns	r0, r0
.Ltmp14:
.LBB0_9:
	@DEBUG_VALUE: FMC_CheckAllOne:u32addr <- [DW_OP_LLVM_entry_value 1] $r0
	@DEBUG_VALUE: FMC_CheckAllOne:u32count <- [DW_OP_LLVM_entry_value 1] $r1
	@DEBUG_VALUE: FMC_CheckAllOne:ret <- $r0
	.loc	3 65 13 is_stmt 1               @ ../../../Library/StdDriver/src/fmc.c:65:13
	ldr	r1, [r2]
	ldr	r3, __arm_cp.0_2
.Ltmp15:
	.loc	3 65 8 is_stmt 0                @ ../../../Library/StdDriver/src/fmc.c:65:8
	cmp	r1, r3
	bne	.LBB0_11
.Ltmp16:
@ %bb.10:
	@DEBUG_VALUE: FMC_CheckAllOne:ret <- $r0
	@DEBUG_VALUE: FMC_CheckAllOne:u32addr <- [DW_OP_LLVM_entry_value 1] $r0
	@DEBUG_VALUE: FMC_CheckAllOne:u32count <- [DW_OP_LLVM_entry_value 1] $r1
	.loc	3 67 20 is_stmt 1               @ ../../../Library/StdDriver/src/fmc.c:67:20
	ldr	r0, [r2]
.Ltmp17:
	@DEBUG_VALUE: FMC_CheckAllOne:ret <- $r0
.LBB0_11:
	@DEBUG_VALUE: FMC_CheckAllOne:ret <- $r0
	@DEBUG_VALUE: FMC_CheckAllOne:u32addr <- [DW_OP_LLVM_entry_value 1] $r0
	@DEBUG_VALUE: FMC_CheckAllOne:u32count <- [DW_OP_LLVM_entry_value 1] $r1
	@DEBUG_VALUE: FMC_CheckAllOne:ret <- $r0
	.loc	3 70 5                          @ ../../../Library/StdDriver/src/fmc.c:70:5
	pop	{r4, r5, r7, pc}
.Ltmp18:
	.p2align	2
@ %bb.12:
	.loc	3 0 5 is_stmt 0                 @ ../../../Library/StdDriver/src/fmc.c:0:5
__arm_cp.0_0:
	.long	1073790984                      @ 0x4000c008
.Lcpi_end0:
	.size	__arm_cp.0_0, .Lcpi_end0-__arm_cp.0_0
__arm_cp.0_1:
	.long	2703228927                      @ 0xa11fffff
.Lcpi_end1:
	.size	__arm_cp.0_1, .Lcpi_end1-__arm_cp.0_1
__arm_cp.0_2:
	.long	2702180352                      @ 0xa1100000
.Lcpi_end2:
	.size	__arm_cp.0_2, .Lcpi_end2-__arm_cp.0_2
.Lfunc_end0:
	.size	FMC_CheckAllOne, .Lfunc_end0-FMC_CheckAllOne
	.cfi_endproc
	.cantunwind
	.fnend
                                        @ -- End function
	.section	.text.FMC_Close,"ax",%progbits
	.hidden	FMC_Close                       @ -- Begin function FMC_Close
	.globl	FMC_Close
	.p2align	2
	.type	FMC_Close,%function
	.code	16                              @ @FMC_Close
	.thumb_func
FMC_Close:
.Lfunc_begin1:
	.loc	3 84 0 is_stmt 1                @ ../../../Library/StdDriver/src/fmc.c:84:0
	.fnstart
	.cfi_startproc
@ %bb.0:
	ldr	r0, __arm_cp.1_0
.Ltmp19:
	.loc	3 85 17 prologue_end            @ ../../../Library/StdDriver/src/fmc.c:85:17
	ldr	r1, [r0]
	movs	r2, #1
	bics	r1, r2
	str	r1, [r0]
	.loc	3 86 1                          @ ../../../Library/StdDriver/src/fmc.c:86:1
	bx	lr
.Ltmp20:
	.p2align	2
@ %bb.1:
	.loc	3 0 1 is_stmt 0                 @ ../../../Library/StdDriver/src/fmc.c:0:1
__arm_cp.1_0:
	.long	1073790976                      @ 0x4000c000
.Lcpi_end3:
	.size	__arm_cp.1_0, .Lcpi_end3-__arm_cp.1_0
.Lfunc_end1:
	.size	FMC_Close, .Lfunc_end1-FMC_Close
	.cfi_endproc
	.cantunwind
	.fnend
                                        @ -- End function
	.section	.text.FMC_ConfigXOM,"ax",%progbits
	.hidden	FMC_ConfigXOM                   @ -- Begin function FMC_ConfigXOM
	.globl	FMC_ConfigXOM
	.p2align	2
	.type	FMC_ConfigXOM,%function
	.code	16                              @ @FMC_ConfigXOM
	.thumb_func
FMC_ConfigXOM:
.Lfunc_begin2:
	.loc	3 102 0 is_stmt 1               @ ../../../Library/StdDriver/src/fmc.c:102:0
	.fnstart
	.cfi_startproc
@ %bb.0:
	@DEBUG_VALUE: FMC_ConfigXOM:u32XomNum <- $r0
	@DEBUG_VALUE: FMC_ConfigXOM:u32XomBase <- $r1
	@DEBUG_VALUE: FMC_ConfigXOM:u8XomPage <- $r2
	.save	{r4, r5, r6, r7, lr}
	push	{r4, r5, r6, r7, lr}
	.cfi_def_cfa_offset 20
	.cfi_offset lr, -4
	.cfi_offset r7, -8
	.cfi_offset r6, -12
	.cfi_offset r5, -16
	.cfi_offset r4, -20
	.pad	#4
	sub	sp, #4
	.cfi_def_cfa_offset 24
	mov	r5, r2
	mov	r6, r1
	mov	r4, r0
	movs	r0, #0
.Ltmp21:
	@DEBUG_VALUE: FMC_ConfigXOM:u32XomNum <- [DW_OP_LLVM_entry_value 1] $r0
	mvns	r7, r0
.Ltmp22:
	@DEBUG_VALUE: FMC_ConfigXOM:ret <- 0
	@DEBUG_VALUE: FMC_ConfigXOM:u8XomPage <- $r5
	@DEBUG_VALUE: FMC_ConfigXOM:u32XomBase <- $r6
	@DEBUG_VALUE: FMC_ConfigXOM:u32XomNum <- $r4
	.loc	3 105 8 prologue_end            @ ../../../Library/StdDriver/src/fmc.c:105:8
	cmp	r4, #3
	bls	.LBB2_2
.Ltmp23:
@ %bb.1:
	@DEBUG_VALUE: FMC_ConfigXOM:u32XomBase <- $r6
	@DEBUG_VALUE: FMC_ConfigXOM:u8XomPage <- $r5
	@DEBUG_VALUE: FMC_ConfigXOM:u32XomNum <- $r4
	@DEBUG_VALUE: FMC_ConfigXOM:ret <- 0
	.loc	3 0 8 is_stmt 0                 @ ../../../Library/StdDriver/src/fmc.c:0:8
	subs	r0, r7, #1
.Ltmp24:
.LBB2_2:
	@DEBUG_VALUE: FMC_ConfigXOM:u32XomBase <- $r6
	@DEBUG_VALUE: FMC_ConfigXOM:u8XomPage <- $r5
	@DEBUG_VALUE: FMC_ConfigXOM:u32XomNum <- $r4
	@DEBUG_VALUE: FMC_ConfigXOM:ret <- 0
	@DEBUG_VALUE: FMC_ConfigXOM:u8XomPage <- $r5
	@DEBUG_VALUE: FMC_ConfigXOM:ret <- $r0
	.loc	3 110 8 is_stmt 1               @ ../../../Library/StdDriver/src/fmc.c:110:8
	cmp	r4, #3
	bhi	.LBB2_4
.Ltmp25:
@ %bb.3:
	@DEBUG_VALUE: FMC_ConfigXOM:u32XomBase <- $r6
	@DEBUG_VALUE: FMC_ConfigXOM:u8XomPage <- $r5
	@DEBUG_VALUE: FMC_ConfigXOM:u32XomNum <- $r4
	@DEBUG_VALUE: FMC_ConfigXOM:ret <- $r0
	.loc	3 112 15                        @ ../../../Library/StdDriver/src/fmc.c:112:15
	mov	r0, r4
.Ltmp26:
	bl	FMC_GetXOMState
.Ltmp27:
	@DEBUG_VALUE: FMC_ConfigXOM:ret <- $r0
.LBB2_4:
	@DEBUG_VALUE: FMC_ConfigXOM:u32XomBase <- $r6
	@DEBUG_VALUE: FMC_ConfigXOM:u8XomPage <- $r5
	@DEBUG_VALUE: FMC_ConfigXOM:u32XomNum <- $r4
	@DEBUG_VALUE: FMC_ConfigXOM:ret <- $r0
	@DEBUG_VALUE: FMC_ConfigXOM:u8XomPage <- $r5
	@DEBUG_VALUE: FMC_ConfigXOM:ret <- $r0
	.loc	3 0 15 is_stmt 0                @ ../../../Library/StdDriver/src/fmc.c:0:15
	movs	r2, #1
	lsls	r3, r2, #21
	ldr	r1, __arm_cp.2_0
	.loc	3 115 8 is_stmt 1               @ ../../../Library/StdDriver/src/fmc.c:115:8
	cbz	r0, .LBB2_8
.Ltmp28:
@ %bb.5:
	@DEBUG_VALUE: FMC_ConfigXOM:u32XomBase <- $r6
	@DEBUG_VALUE: FMC_ConfigXOM:u8XomPage <- $r5
	@DEBUG_VALUE: FMC_ConfigXOM:u32XomNum <- $r4
	@DEBUG_VALUE: FMC_ConfigXOM:ret <- $r0
	@DEBUG_VALUE: FMC_ConfigXOM:u8XomPage <- $r5
	@DEBUG_VALUE: FMC_ConfigXOM:ret <- $r0
	.loc	3 130 8                         @ ../../../Library/StdDriver/src/fmc.c:130:8
	cbz	r0, .LBB2_14
.Ltmp29:
.LBB2_6:
	@DEBUG_VALUE: FMC_ConfigXOM:u8XomPage <- $r5
	@DEBUG_VALUE: FMC_ConfigXOM:u32XomNum <- $r4
	@DEBUG_VALUE: FMC_ConfigXOM:ret <- $r0
	@DEBUG_VALUE: FMC_ConfigXOM:ret <- $r0
	.loc	3 145 8                         @ ../../../Library/StdDriver/src/fmc.c:145:8
	cmp	r0, #0
	beq	.LBB2_19
.Ltmp30:
.LBB2_7:
	@DEBUG_VALUE: FMC_ConfigXOM:u32XomNum <- $r4
	@DEBUG_VALUE: FMC_ConfigXOM:ret <- $r0
	.loc	3 160 5                         @ ../../../Library/StdDriver/src/fmc.c:160:5
	add	sp, #4
	pop	{r4, r5, r6, r7, pc}
.Ltmp31:
.LBB2_8:
	@DEBUG_VALUE: FMC_ConfigXOM:u32XomBase <- $r6
	@DEBUG_VALUE: FMC_ConfigXOM:u8XomPage <- $r5
	@DEBUG_VALUE: FMC_ConfigXOM:u32XomNum <- $r4
	@DEBUG_VALUE: FMC_ConfigXOM:ret <- $r0
	.loc	3 0 5 is_stmt 0                 @ ../../../Library/StdDriver/src/fmc.c:0:5
	str	r5, [sp]                        @ 4-byte Spill
.Ltmp32:
	@DEBUG_VALUE: FMC_ConfigXOM:u8XomPage <- [$sp+0]
	mov	r5, r7
.Ltmp33:
	.loc	3 117 21 is_stmt 1              @ ../../../Library/StdDriver/src/fmc.c:117:21
	mov	r0, r1
.Ltmp34:
	subs	r0, #52
	movs	r7, #33
	str	r7, [r0]
	.loc	3 118 50                        @ ../../../Library/StdDriver/src/fmc.c:118:50
	lsls	r0, r4, #4
	.loc	3 118 37 is_stmt 0              @ ../../../Library/StdDriver/src/fmc.c:118:37
	adds	r0, r0, r3
	.loc	3 118 22                        @ ../../../Library/StdDriver/src/fmc.c:118:22
	mov	r7, r1
	subs	r7, #60
	str	r0, [r7]
	.loc	3 119 21 is_stmt 1              @ ../../../Library/StdDriver/src/fmc.c:119:21
	mov	r0, r1
	subs	r0, #56
	str	r6, [r0]
	.loc	3 120 21                        @ ../../../Library/StdDriver/src/fmc.c:120:21
	mov	r0, r1
	subs	r0, #48
	str	r2, [r0]
.Ltmp35:
.LBB2_9:                                @ =>This Inner Loop Header: Depth=1
	@DEBUG_VALUE: FMC_ConfigXOM:u8XomPage <- [$sp+0]
	@DEBUG_VALUE: FMC_ConfigXOM:u32XomNum <- $r4
	.loc	3 121 20                        @ ../../../Library/StdDriver/src/fmc.c:121:20
	ldr	r6, [r0]
	.loc	3 121 9 is_stmt 0               @ ../../../Library/StdDriver/src/fmc.c:121:9
	lsls	r6, r6, #31
	bne	.LBB2_9
.Ltmp36:
@ %bb.10:
	@DEBUG_VALUE: FMC_ConfigXOM:u8XomPage <- [$sp+0]
	@DEBUG_VALUE: FMC_ConfigXOM:u32XomNum <- $r4
	.loc	3 123 17 is_stmt 1              @ ../../../Library/StdDriver/src/fmc.c:123:17
	ldr	r0, [r1]
.Ltmp37:
	.loc	3 123 12 is_stmt 0              @ ../../../Library/StdDriver/src/fmc.c:123:12
	lsls	r0, r0, #25
	mov	r7, r5
	bmi	.LBB2_12
.Ltmp38:
@ %bb.11:
	@DEBUG_VALUE: FMC_ConfigXOM:u8XomPage <- [$sp+0]
	@DEBUG_VALUE: FMC_ConfigXOM:u32XomNum <- $r4
	.loc	3 0 12                          @ ../../../Library/StdDriver/src/fmc.c:0:12
	movs	r0, #0
	b	.LBB2_13
.Ltmp39:
.LBB2_12:
	@DEBUG_VALUE: FMC_ConfigXOM:u8XomPage <- [$sp+0]
	@DEBUG_VALUE: FMC_ConfigXOM:u32XomNum <- $r4
	.loc	3 125 25 is_stmt 1              @ ../../../Library/StdDriver/src/fmc.c:125:25
	ldr	r0, [r1]
	movs	r6, #64
	orrs	r6, r0
	str	r6, [r1]
.Ltmp40:
	@DEBUG_VALUE: FMC_ConfigXOM:ret <- -1
	.loc	3 0 0 is_stmt 0                 @ ../../../Library/StdDriver/src/fmc.c:0:0
	mov	r0, r7
.Ltmp41:
.LBB2_13:
	@DEBUG_VALUE: FMC_ConfigXOM:u8XomPage <- [$sp+0]
	@DEBUG_VALUE: FMC_ConfigXOM:u32XomNum <- $r4
	ldr	r5, [sp]                        @ 4-byte Reload
.Ltmp42:
	@DEBUG_VALUE: FMC_ConfigXOM:u8XomPage <- $r5
	@DEBUG_VALUE: FMC_ConfigXOM:u8XomPage <- $r5
	@DEBUG_VALUE: FMC_ConfigXOM:ret <- $r0
	.loc	3 130 8 is_stmt 1               @ ../../../Library/StdDriver/src/fmc.c:130:8
	cmp	r0, #0
	bne	.LBB2_6
.Ltmp43:
.LBB2_14:
	@DEBUG_VALUE: FMC_ConfigXOM:u8XomPage <- $r5
	@DEBUG_VALUE: FMC_ConfigXOM:u32XomNum <- $r4
	@DEBUG_VALUE: FMC_ConfigXOM:ret <- $r0
	@DEBUG_VALUE: FMC_ConfigXOM:u8XomPage <- $r5
	.loc	3 132 21                        @ ../../../Library/StdDriver/src/fmc.c:132:21
	mov	r0, r1
.Ltmp44:
	subs	r0, #52
	movs	r6, #33
	str	r6, [r0]
	.loc	3 133 50                        @ ../../../Library/StdDriver/src/fmc.c:133:50
	lsls	r0, r4, #4
	.loc	3 133 58 is_stmt 0              @ ../../../Library/StdDriver/src/fmc.c:133:58
	adds	r0, r0, #4
	.loc	3 133 37                        @ ../../../Library/StdDriver/src/fmc.c:133:37
	adds	r0, r0, r3
	.loc	3 133 22                        @ ../../../Library/StdDriver/src/fmc.c:133:22
	mov	r6, r1
	subs	r6, #60
	str	r0, [r6]
	.loc	3 134 21 is_stmt 1              @ ../../../Library/StdDriver/src/fmc.c:134:21
	mov	r0, r1
	subs	r0, #56
	str	r5, [r0]
	.loc	3 135 21                        @ ../../../Library/StdDriver/src/fmc.c:135:21
	mov	r0, r1
	subs	r0, #48
	str	r2, [r0]
.Ltmp45:
.LBB2_15:                               @ =>This Inner Loop Header: Depth=1
	@DEBUG_VALUE: FMC_ConfigXOM:u32XomNum <- $r4
	.loc	3 136 20                        @ ../../../Library/StdDriver/src/fmc.c:136:20
	ldr	r5, [r0]
	.loc	3 136 9 is_stmt 0               @ ../../../Library/StdDriver/src/fmc.c:136:9
	lsls	r5, r5, #31
	bne	.LBB2_15
.Ltmp46:
@ %bb.16:
	@DEBUG_VALUE: FMC_ConfigXOM:u32XomNum <- $r4
	.loc	3 138 17 is_stmt 1              @ ../../../Library/StdDriver/src/fmc.c:138:17
	ldr	r0, [r1]
.Ltmp47:
	.loc	3 138 12 is_stmt 0              @ ../../../Library/StdDriver/src/fmc.c:138:12
	lsls	r0, r0, #25
	bmi	.LBB2_18
.Ltmp48:
@ %bb.17:
	@DEBUG_VALUE: FMC_ConfigXOM:u32XomNum <- $r4
	.loc	3 0 12                          @ ../../../Library/StdDriver/src/fmc.c:0:12
	movs	r0, #0
.Ltmp49:
	@DEBUG_VALUE: FMC_ConfigXOM:ret <- $r0
	.loc	3 145 8 is_stmt 1               @ ../../../Library/StdDriver/src/fmc.c:145:8
	cmp	r0, #0
	bne	.LBB2_7
	b	.LBB2_19
.Ltmp50:
.LBB2_18:
	@DEBUG_VALUE: FMC_ConfigXOM:u32XomNum <- $r4
	.loc	3 140 25                        @ ../../../Library/StdDriver/src/fmc.c:140:25
	ldr	r0, [r1]
	movs	r5, #64
	orrs	r5, r0
	str	r5, [r1]
.Ltmp51:
	@DEBUG_VALUE: FMC_ConfigXOM:ret <- -1
	.loc	3 0 0 is_stmt 0                 @ ../../../Library/StdDriver/src/fmc.c:0:0
	mov	r0, r7
.Ltmp52:
	@DEBUG_VALUE: FMC_ConfigXOM:ret <- $r0
	.loc	3 145 8 is_stmt 1               @ ../../../Library/StdDriver/src/fmc.c:145:8
	cmp	r0, #0
	bne	.LBB2_7
.Ltmp53:
.LBB2_19:
	@DEBUG_VALUE: FMC_ConfigXOM:u32XomNum <- $r4
	@DEBUG_VALUE: FMC_ConfigXOM:ret <- $r0
	.loc	3 147 21                        @ ../../../Library/StdDriver/src/fmc.c:147:21
	mov	r0, r1
.Ltmp54:
	subs	r0, #52
	movs	r5, #33
	str	r5, [r0]
	.loc	3 148 50                        @ ../../../Library/StdDriver/src/fmc.c:148:50
	lsls	r0, r4, #4
	.loc	3 148 58 is_stmt 0              @ ../../../Library/StdDriver/src/fmc.c:148:58
	adds	r0, #8
	.loc	3 148 37                        @ ../../../Library/StdDriver/src/fmc.c:148:37
	adds	r0, r0, r3
	.loc	3 148 22                        @ ../../../Library/StdDriver/src/fmc.c:148:22
	mov	r3, r1
	subs	r3, #60
	str	r0, [r3]
	.loc	3 149 21 is_stmt 1              @ ../../../Library/StdDriver/src/fmc.c:149:21
	mov	r3, r1
	subs	r3, #56
	movs	r0, #0
	str	r0, [r3]
	.loc	3 150 21                        @ ../../../Library/StdDriver/src/fmc.c:150:21
	mov	r3, r1
	subs	r3, #48
	str	r2, [r3]
.Ltmp55:
.LBB2_20:                               @ =>This Inner Loop Header: Depth=1
	@DEBUG_VALUE: FMC_ConfigXOM:u32XomNum <- $r4
	.loc	3 151 20                        @ ../../../Library/StdDriver/src/fmc.c:151:20
	ldr	r2, [r3]
	.loc	3 151 9 is_stmt 0               @ ../../../Library/StdDriver/src/fmc.c:151:9
	lsls	r2, r2, #31
	bne	.LBB2_20
.Ltmp56:
@ %bb.21:
	@DEBUG_VALUE: FMC_ConfigXOM:u32XomNum <- $r4
	.loc	3 153 17 is_stmt 1              @ ../../../Library/StdDriver/src/fmc.c:153:17
	ldr	r2, [r1]
.Ltmp57:
	.loc	3 153 12 is_stmt 0              @ ../../../Library/StdDriver/src/fmc.c:153:12
	lsls	r2, r2, #25
	bpl	.LBB2_7
.Ltmp58:
@ %bb.22:
	@DEBUG_VALUE: FMC_ConfigXOM:u32XomNum <- $r4
	.loc	3 155 25 is_stmt 1              @ ../../../Library/StdDriver/src/fmc.c:155:25
	ldr	r0, [r1]
	movs	r2, #64
	orrs	r2, r0
	str	r2, [r1]
.Ltmp59:
	@DEBUG_VALUE: FMC_ConfigXOM:ret <- -1
	.loc	3 0 0 is_stmt 0                 @ ../../../Library/StdDriver/src/fmc.c:0:0
	mov	r0, r7
.Ltmp60:
	@DEBUG_VALUE: FMC_ConfigXOM:ret <- $r0
	.loc	3 160 5 is_stmt 1               @ ../../../Library/StdDriver/src/fmc.c:160:5
	add	sp, #4
	pop	{r4, r5, r6, r7, pc}
.Ltmp61:
	.p2align	2
@ %bb.23:
	.loc	3 0 5 is_stmt 0                 @ ../../../Library/StdDriver/src/fmc.c:0:5
__arm_cp.2_0:
	.long	1073791040                      @ 0x4000c040
.Lcpi_end4:
	.size	__arm_cp.2_0, .Lcpi_end4-__arm_cp.2_0
.Lfunc_end2:
	.size	FMC_ConfigXOM, .Lfunc_end2-FMC_ConfigXOM
	.cfi_endproc
	.cantunwind
	.fnend
                                        @ -- End function
	.section	.text.FMC_GetXOMState,"ax",%progbits
	.hidden	FMC_GetXOMState                 @ -- Begin function FMC_GetXOMState
	.globl	FMC_GetXOMState
	.p2align	2
	.type	FMC_GetXOMState,%function
	.code	16                              @ @FMC_GetXOMState
	.thumb_func
FMC_GetXOMState:
.Lfunc_begin3:
	.loc	3 446 0 is_stmt 1               @ ../../../Library/StdDriver/src/fmc.c:446:0
	.fnstart
	.cfi_startproc
@ %bb.0:
	@DEBUG_VALUE: FMC_GetXOMState:u32XomNum <- $r0
	movs	r2, #1
.Ltmp62:
	@DEBUG_VALUE: FMC_GetXOMState:ret <- 0
	@DEBUG_VALUE: FMC_GetXOMState:u32XomNum <- $r0
	.loc	3 450 8 prologue_end            @ ../../../Library/StdDriver/src/fmc.c:450:8
	cmp	r0, #3
	bhi	.LBB3_2
.Ltmp63:
@ %bb.1:
	@DEBUG_VALUE: FMC_GetXOMState:u32XomNum <- $r0
	@DEBUG_VALUE: FMC_GetXOMState:ret <- 0
	.loc	3 0 8 is_stmt 0                 @ ../../../Library/StdDriver/src/fmc.c:0:8
	movs	r1, #0
.Ltmp64:
	@DEBUG_VALUE: FMC_GetXOMState:ret <- $r1
	.loc	3 455 8 is_stmt 1               @ ../../../Library/StdDriver/src/fmc.c:455:8
	cmp	r0, #3
	bhi	.LBB3_4
	b	.LBB3_3
.Ltmp65:
.LBB3_2:
	@DEBUG_VALUE: FMC_GetXOMState:u32XomNum <- $r0
	@DEBUG_VALUE: FMC_GetXOMState:ret <- 0
	.loc	3 0 8 is_stmt 0                 @ ../../../Library/StdDriver/src/fmc.c:0:8
	mvns	r1, r2
.Ltmp66:
	@DEBUG_VALUE: FMC_GetXOMState:ret <- $r1
	.loc	3 455 8                         @ ../../../Library/StdDriver/src/fmc.c:455:8
	cmp	r0, #3
	bhi	.LBB3_4
.Ltmp67:
.LBB3_3:
	@DEBUG_VALUE: FMC_GetXOMState:ret <- $r1
	@DEBUG_VALUE: FMC_GetXOMState:u32XomNum <- $r0
	.loc	3 457 50 is_stmt 1              @ ../../../Library/StdDriver/src/fmc.c:457:50
	lsls	r2, r0
	ldr	r1, __arm_cp.3_0
.Ltmp68:
	.loc	3 457 26 is_stmt 0              @ ../../../Library/StdDriver/src/fmc.c:457:26
	ldr	r3, [r1]
	.loc	3 457 34                        @ ../../../Library/StdDriver/src/fmc.c:457:34
	ands	r3, r2
	movs	r1, #15
	.loc	3 457 43                        @ ../../../Library/StdDriver/src/fmc.c:457:43
	ands	r1, r3
	.loc	3 457 65                        @ ../../../Library/StdDriver/src/fmc.c:457:65
	lsrs	r1, r0
.Ltmp69:
	@DEBUG_VALUE: FMC_GetXOMState:u32act <- $r1
	@DEBUG_VALUE: FMC_GetXOMState:ret <- $r1
.LBB3_4:
	@DEBUG_VALUE: FMC_GetXOMState:ret <- $r1
	@DEBUG_VALUE: FMC_GetXOMState:u32XomNum <- $r0
	@DEBUG_VALUE: FMC_GetXOMState:ret <- $r1
	.loc	3 460 5 is_stmt 1               @ ../../../Library/StdDriver/src/fmc.c:460:5
	mov	r0, r1
.Ltmp70:
	@DEBUG_VALUE: FMC_GetXOMState:u32XomNum <- [DW_OP_LLVM_entry_value 1] $r0
	bx	lr
.Ltmp71:
	.p2align	2
@ %bb.5:
	.loc	3 0 5 is_stmt 0                 @ ../../../Library/StdDriver/src/fmc.c:0:5
__arm_cp.3_0:
	.long	1073791200                      @ 0x4000c0e0
.Lcpi_end5:
	.size	__arm_cp.3_0, .Lcpi_end5-__arm_cp.3_0
.Lfunc_end3:
	.size	FMC_GetXOMState, .Lfunc_end3-FMC_GetXOMState
	.cfi_endproc
	.cantunwind
	.fnend
                                        @ -- End function
	.section	.text.FMC_Erase,"ax",%progbits
	.hidden	FMC_Erase                       @ -- Begin function FMC_Erase
	.globl	FMC_Erase
	.p2align	2
	.type	FMC_Erase,%function
	.code	16                              @ @FMC_Erase
	.thumb_func
FMC_Erase:
.Lfunc_begin4:
	.loc	3 176 0 is_stmt 1               @ ../../../Library/StdDriver/src/fmc.c:176:0
	.fnstart
	.cfi_startproc
@ %bb.0:
	@DEBUG_VALUE: FMC_Erase:u32PageAddr <- $r0
	ldr	r1, __arm_cp.4_0
	movs	r2, #34
.Ltmp72:
	@DEBUG_VALUE: FMC_Erase:ret <- 0
	@DEBUG_VALUE: FMC_Erase:u32PageAddr <- $r0
	.loc	3 181 21 prologue_end           @ ../../../Library/StdDriver/src/fmc.c:181:21
	str	r2, [r1, #12]
	.loc	3 182 22                        @ ../../../Library/StdDriver/src/fmc.c:182:22
	str	r0, [r1, #4]
	movs	r0, #1
.Ltmp73:
	@DEBUG_VALUE: FMC_Erase:u32PageAddr <- [DW_OP_LLVM_entry_value 1] $r0
	.loc	3 183 21                        @ ../../../Library/StdDriver/src/fmc.c:183:21
	str	r0, [r1, #16]
.Ltmp74:
.LBB4_1:                                @ =>This Inner Loop Header: Depth=1
	@DEBUG_VALUE: FMC_Erase:u32PageAddr <- [DW_OP_LLVM_entry_value 1] $r0
	@DEBUG_VALUE: FMC_Erase:ret <- 0
	.loc	3 185 20                        @ ../../../Library/StdDriver/src/fmc.c:185:20
	ldr	r0, [r1, #16]
	.loc	3 185 9 is_stmt 0               @ ../../../Library/StdDriver/src/fmc.c:185:9
	lsls	r0, r0, #31
	bne	.LBB4_1
.Ltmp75:
@ %bb.2:
	@DEBUG_VALUE: FMC_Erase:u32PageAddr <- [DW_OP_LLVM_entry_value 1] $r0
	@DEBUG_VALUE: FMC_Erase:ret <- 0
	.loc	3 187 17 is_stmt 1              @ ../../../Library/StdDriver/src/fmc.c:187:17
	ldr	r0, [r1]
.Ltmp76:
	.loc	3 187 12 is_stmt 0              @ ../../../Library/StdDriver/src/fmc.c:187:12
	lsls	r0, r0, #25
	bmi	.LBB4_4
.Ltmp77:
@ %bb.3:
	@DEBUG_VALUE: FMC_Erase:u32PageAddr <- [DW_OP_LLVM_entry_value 1] $r0
	@DEBUG_VALUE: FMC_Erase:ret <- 0
	.loc	3 0 12                          @ ../../../Library/StdDriver/src/fmc.c:0:12
	movs	r0, #0
.Ltmp78:
	@DEBUG_VALUE: FMC_Erase:ret <- $r0
	.loc	3 193 5 is_stmt 1               @ ../../../Library/StdDriver/src/fmc.c:193:5
	bx	lr
.Ltmp79:
.LBB4_4:
	@DEBUG_VALUE: FMC_Erase:u32PageAddr <- [DW_OP_LLVM_entry_value 1] $r0
	@DEBUG_VALUE: FMC_Erase:ret <- 0
	.loc	3 189 25                        @ ../../../Library/StdDriver/src/fmc.c:189:25
	ldr	r0, [r1]
	movs	r2, #64
	orrs	r2, r0
	str	r2, [r1]
	movs	r0, #0
	mvns	r0, r0
.Ltmp80:
	@DEBUG_VALUE: FMC_Erase:ret <- -1
	@DEBUG_VALUE: FMC_Erase:ret <- $r0
	.loc	3 193 5                         @ ../../../Library/StdDriver/src/fmc.c:193:5
	bx	lr
.Ltmp81:
	.p2align	2
@ %bb.5:
	.loc	3 0 5 is_stmt 0                 @ ../../../Library/StdDriver/src/fmc.c:0:5
__arm_cp.4_0:
	.long	1073790976                      @ 0x4000c000
.Lcpi_end6:
	.size	__arm_cp.4_0, .Lcpi_end6-__arm_cp.4_0
.Lfunc_end4:
	.size	FMC_Erase, .Lfunc_end4-FMC_Erase
	.cfi_endproc
	.cantunwind
	.fnend
                                        @ -- End function
	.section	.text.FMC_Erase_Bank,"ax",%progbits
	.hidden	FMC_Erase_Bank                  @ -- Begin function FMC_Erase_Bank
	.globl	FMC_Erase_Bank
	.p2align	2
	.type	FMC_Erase_Bank,%function
	.code	16                              @ @FMC_Erase_Bank
	.thumb_func
FMC_Erase_Bank:
.Lfunc_begin5:
	.loc	3 208 0 is_stmt 1               @ ../../../Library/StdDriver/src/fmc.c:208:0
	.fnstart
	.cfi_startproc
@ %bb.0:
	@DEBUG_VALUE: FMC_Erase_Bank:u32BankAddr <- $r0
	ldr	r1, __arm_cp.5_0
	movs	r2, #35
.Ltmp82:
	@DEBUG_VALUE: FMC_Erase_Bank:ret <- 0
	@DEBUG_VALUE: FMC_Erase_Bank:u32BankAddr <- $r0
	.loc	3 211 17 prologue_end           @ ../../../Library/StdDriver/src/fmc.c:211:17
	str	r2, [r1, #12]
	.loc	3 212 18                        @ ../../../Library/StdDriver/src/fmc.c:212:18
	str	r0, [r1, #4]
	movs	r0, #1
.Ltmp83:
	@DEBUG_VALUE: FMC_Erase_Bank:u32BankAddr <- [DW_OP_LLVM_entry_value 1] $r0
	.loc	3 213 17                        @ ../../../Library/StdDriver/src/fmc.c:213:17
	str	r0, [r1, #16]
.Ltmp84:
.LBB5_1:                                @ =>This Inner Loop Header: Depth=1
	@DEBUG_VALUE: FMC_Erase_Bank:u32BankAddr <- [DW_OP_LLVM_entry_value 1] $r0
	@DEBUG_VALUE: FMC_Erase_Bank:ret <- 0
	.loc	3 215 16                        @ ../../../Library/StdDriver/src/fmc.c:215:16
	ldr	r0, [r1, #16]
	.loc	3 215 5 is_stmt 0               @ ../../../Library/StdDriver/src/fmc.c:215:5
	lsls	r0, r0, #31
	bne	.LBB5_1
.Ltmp85:
@ %bb.2:
	@DEBUG_VALUE: FMC_Erase_Bank:u32BankAddr <- [DW_OP_LLVM_entry_value 1] $r0
	@DEBUG_VALUE: FMC_Erase_Bank:ret <- 0
	.loc	3 217 13 is_stmt 1              @ ../../../Library/StdDriver/src/fmc.c:217:13
	ldr	r0, [r1]
.Ltmp86:
	.loc	3 217 8 is_stmt 0               @ ../../../Library/StdDriver/src/fmc.c:217:8
	lsls	r0, r0, #25
	bmi	.LBB5_4
.Ltmp87:
@ %bb.3:
	@DEBUG_VALUE: FMC_Erase_Bank:u32BankAddr <- [DW_OP_LLVM_entry_value 1] $r0
	@DEBUG_VALUE: FMC_Erase_Bank:ret <- 0
	.loc	3 0 8                           @ ../../../Library/StdDriver/src/fmc.c:0:8
	movs	r0, #0
.Ltmp88:
	@DEBUG_VALUE: FMC_Erase_Bank:ret <- $r0
	.loc	3 222 5 is_stmt 1               @ ../../../Library/StdDriver/src/fmc.c:222:5
	bx	lr
.Ltmp89:
.LBB5_4:
	@DEBUG_VALUE: FMC_Erase_Bank:u32BankAddr <- [DW_OP_LLVM_entry_value 1] $r0
	@DEBUG_VALUE: FMC_Erase_Bank:ret <- 0
	.loc	3 219 21                        @ ../../../Library/StdDriver/src/fmc.c:219:21
	ldr	r0, [r1]
	movs	r2, #64
	orrs	r2, r0
	str	r2, [r1]
	movs	r0, #0
	mvns	r0, r0
.Ltmp90:
	@DEBUG_VALUE: FMC_Erase_Bank:ret <- -1
	@DEBUG_VALUE: FMC_Erase_Bank:ret <- $r0
	.loc	3 222 5                         @ ../../../Library/StdDriver/src/fmc.c:222:5
	bx	lr
.Ltmp91:
	.p2align	2
@ %bb.5:
	.loc	3 0 5 is_stmt 0                 @ ../../../Library/StdDriver/src/fmc.c:0:5
__arm_cp.5_0:
	.long	1073790976                      @ 0x4000c000
.Lcpi_end7:
	.size	__arm_cp.5_0, .Lcpi_end7-__arm_cp.5_0
.Lfunc_end5:
	.size	FMC_Erase_Bank, .Lfunc_end5-FMC_Erase_Bank
	.cfi_endproc
	.cantunwind
	.fnend
                                        @ -- End function
	.section	.text.FMC_Erase_Block,"ax",%progbits
	.hidden	FMC_Erase_Block                 @ -- Begin function FMC_Erase_Block
	.globl	FMC_Erase_Block
	.p2align	2
	.type	FMC_Erase_Block,%function
	.code	16                              @ @FMC_Erase_Block
	.thumb_func
FMC_Erase_Block:
.Lfunc_begin6:
	.loc	3 238 0 is_stmt 1               @ ../../../Library/StdDriver/src/fmc.c:238:0
	.fnstart
	.cfi_startproc
@ %bb.0:
	@DEBUG_VALUE: FMC_Erase_Block:u32BlockAddr <- $r0
	ldr	r1, __arm_cp.6_0
	movs	r2, #37
.Ltmp92:
	@DEBUG_VALUE: FMC_Erase_Block:ret <- 0
	@DEBUG_VALUE: FMC_Erase_Block:u32BlockAddr <- $r0
	.loc	3 241 17 prologue_end           @ ../../../Library/StdDriver/src/fmc.c:241:17
	str	r2, [r1, #12]
	.loc	3 242 18                        @ ../../../Library/StdDriver/src/fmc.c:242:18
	str	r0, [r1, #4]
	movs	r0, #1
.Ltmp93:
	@DEBUG_VALUE: FMC_Erase_Block:u32BlockAddr <- [DW_OP_LLVM_entry_value 1] $r0
	.loc	3 243 17                        @ ../../../Library/StdDriver/src/fmc.c:243:17
	str	r0, [r1, #16]
.Ltmp94:
.LBB6_1:                                @ =>This Inner Loop Header: Depth=1
	@DEBUG_VALUE: FMC_Erase_Block:u32BlockAddr <- [DW_OP_LLVM_entry_value 1] $r0
	@DEBUG_VALUE: FMC_Erase_Block:ret <- 0
	.loc	3 245 16                        @ ../../../Library/StdDriver/src/fmc.c:245:16
	ldr	r0, [r1, #16]
	.loc	3 245 5 is_stmt 0               @ ../../../Library/StdDriver/src/fmc.c:245:5
	lsls	r0, r0, #31
	bne	.LBB6_1
.Ltmp95:
@ %bb.2:
	@DEBUG_VALUE: FMC_Erase_Block:u32BlockAddr <- [DW_OP_LLVM_entry_value 1] $r0
	@DEBUG_VALUE: FMC_Erase_Block:ret <- 0
	.loc	3 247 13 is_stmt 1              @ ../../../Library/StdDriver/src/fmc.c:247:13
	ldr	r0, [r1]
.Ltmp96:
	.loc	3 247 8 is_stmt 0               @ ../../../Library/StdDriver/src/fmc.c:247:8
	lsls	r0, r0, #25
	bmi	.LBB6_4
.Ltmp97:
@ %bb.3:
	@DEBUG_VALUE: FMC_Erase_Block:u32BlockAddr <- [DW_OP_LLVM_entry_value 1] $r0
	@DEBUG_VALUE: FMC_Erase_Block:ret <- 0
	.loc	3 0 8                           @ ../../../Library/StdDriver/src/fmc.c:0:8
	movs	r0, #0
.Ltmp98:
	@DEBUG_VALUE: FMC_Erase_Block:ret <- $r0
	.loc	3 252 5 is_stmt 1               @ ../../../Library/StdDriver/src/fmc.c:252:5
	bx	lr
.Ltmp99:
.LBB6_4:
	@DEBUG_VALUE: FMC_Erase_Block:u32BlockAddr <- [DW_OP_LLVM_entry_value 1] $r0
	@DEBUG_VALUE: FMC_Erase_Block:ret <- 0
	.loc	3 249 21                        @ ../../../Library/StdDriver/src/fmc.c:249:21
	ldr	r0, [r1]
	movs	r2, #64
	orrs	r2, r0
	str	r2, [r1]
	movs	r0, #0
	mvns	r0, r0
.Ltmp100:
	@DEBUG_VALUE: FMC_Erase_Block:ret <- -1
	@DEBUG_VALUE: FMC_Erase_Block:ret <- $r0
	.loc	3 252 5                         @ ../../../Library/StdDriver/src/fmc.c:252:5
	bx	lr
.Ltmp101:
	.p2align	2
@ %bb.5:
	.loc	3 0 5 is_stmt 0                 @ ../../../Library/StdDriver/src/fmc.c:0:5
__arm_cp.6_0:
	.long	1073790976                      @ 0x4000c000
.Lcpi_end8:
	.size	__arm_cp.6_0, .Lcpi_end8-__arm_cp.6_0
.Lfunc_end6:
	.size	FMC_Erase_Block, .Lfunc_end6-FMC_Erase_Block
	.cfi_endproc
	.cantunwind
	.fnend
                                        @ -- End function
	.section	.text.FMC_EraseXOM,"ax",%progbits
	.hidden	FMC_EraseXOM                    @ -- Begin function FMC_EraseXOM
	.globl	FMC_EraseXOM
	.p2align	2
	.type	FMC_EraseXOM,%function
	.code	16                              @ @FMC_EraseXOM
	.thumb_func
FMC_EraseXOM:
.Lfunc_begin7:
	.loc	3 268 0 is_stmt 1               @ ../../../Library/StdDriver/src/fmc.c:268:0
	.fnstart
	.cfi_startproc
@ %bb.0:
	@DEBUG_VALUE: FMC_EraseXOM:u32XomNum <- $r0
	.save	{r4, r5, r7, lr}
	push	{r4, r5, r7, lr}
	.cfi_def_cfa_offset 16
	.cfi_offset lr, -4
	.cfi_offset r7, -8
	.cfi_offset r5, -12
	.cfi_offset r4, -16
	mov	r4, r0
	movs	r0, #0
.Ltmp102:
	@DEBUG_VALUE: FMC_EraseXOM:u32XomNum <- [DW_OP_LLVM_entry_value 1] $r0
	mvns	r5, r0
.Ltmp103:
	@DEBUG_VALUE: FMC_EraseXOM:err <- 0
	@DEBUG_VALUE: FMC_EraseXOM:u32XomNum <- $r4
	.loc	3 272 8 prologue_end            @ ../../../Library/StdDriver/src/fmc.c:272:8
	cmp	r4, #3
	bls	.LBB7_2
.Ltmp104:
@ %bb.1:
	@DEBUG_VALUE: FMC_EraseXOM:u32XomNum <- $r4
	@DEBUG_VALUE: FMC_EraseXOM:err <- 0
	.loc	3 0 8 is_stmt 0                 @ ../../../Library/StdDriver/src/fmc.c:0:8
	subs	r0, r5, #1
.Ltmp105:
.LBB7_2:
	@DEBUG_VALUE: FMC_EraseXOM:u32XomNum <- $r4
	@DEBUG_VALUE: FMC_EraseXOM:err <- 0
	@DEBUG_VALUE: FMC_EraseXOM:err <- $r0
	.loc	3 277 8 is_stmt 1               @ ../../../Library/StdDriver/src/fmc.c:277:8
	cmp	r4, #3
	bhi	.LBB7_19
.Ltmp106:
@ %bb.3:
	@DEBUG_VALUE: FMC_EraseXOM:u32XomNum <- $r4
	@DEBUG_VALUE: FMC_EraseXOM:err <- $r0
	.loc	3 279 21                        @ ../../../Library/StdDriver/src/fmc.c:279:21
	mov	r0, r4
.Ltmp107:
	bl	FMC_GetXOMState
.Ltmp108:
	@DEBUG_VALUE: FMC_EraseXOM:i32Active <- $r0
	.loc	3 281 12                        @ ../../../Library/StdDriver/src/fmc.c:281:12
	cbz	r0, .LBB7_8
.Ltmp109:
@ %bb.4:
	@DEBUG_VALUE: FMC_EraseXOM:u32XomNum <- $r4
	@DEBUG_VALUE: FMC_EraseXOM:i32Active <- $r0
	.loc	3 283 13                        @ ../../../Library/StdDriver/src/fmc.c:283:13
	cmp	r4, #3
	bhi	.LBB7_9
.Ltmp110:
@ %bb.5:
	@DEBUG_VALUE: FMC_EraseXOM:u32XomNum <- $r4
	@DEBUG_VALUE: FMC_EraseXOM:i32Active <- $r0
	.loc	3 0 13 is_stmt 0                @ ../../../Library/StdDriver/src/fmc.c:0:13
	lsls	r0, r4, #2
.Ltmp111:
	adr	r1, .LJTI7_0
	adds	r0, r1, r0
	mov	pc, r0
.Ltmp112:
@ %bb.6:
	.p2align	2
.LJTI7_0:
	b.w	.LBB7_7
	b.w	.LBB7_10
	b.w	.LBB7_11
	b.w	.LBB7_12
.LBB7_7:
.Ltmp113:
	@DEBUG_VALUE: FMC_EraseXOM:u32XomNum <- $r4
	ldr	r0, __arm_cp.7_0
.Ltmp114:
	.loc	3 286 37 is_stmt 1              @ ../../../Library/StdDriver/src/fmc.c:286:37
	ldr	r0, [r0]
	b	.LBB7_13
.Ltmp115:
.LBB7_8:
	@DEBUG_VALUE: FMC_EraseXOM:u32XomNum <- $r4
	@DEBUG_VALUE: FMC_EraseXOM:i32Active <- $r0
	.loc	3 0 0 is_stmt 0                 @ ../../../Library/StdDriver/src/fmc.c:0:0
	mov	r0, r5
.Ltmp116:
	@DEBUG_VALUE: FMC_EraseXOM:err <- $r0
	.loc	3 321 5 is_stmt 1               @ ../../../Library/StdDriver/src/fmc.c:321:5
	pop	{r4, r5, r7, pc}
.Ltmp117:
.LBB7_9:
	@DEBUG_VALUE: FMC_EraseXOM:u32XomNum <- $r4
	@DEBUG_VALUE: FMC_EraseXOM:i32Active <- $r0
                                        @ implicit-def: $r1
	.loc	3 0 5 is_stmt 0                 @ ../../../Library/StdDriver/src/fmc.c:0:5
	b	.LBB7_14
.Ltmp118:
.LBB7_10:
	@DEBUG_VALUE: FMC_EraseXOM:u32XomNum <- $r4
	ldr	r0, __arm_cp.7_0
.Ltmp119:
	.loc	3 289 37 is_stmt 1              @ ../../../Library/StdDriver/src/fmc.c:289:37
	ldr	r0, [r0, #4]
	b	.LBB7_13
.Ltmp120:
.LBB7_11:
	@DEBUG_VALUE: FMC_EraseXOM:u32XomNum <- $r4
	.loc	3 0 37 is_stmt 0                @ ../../../Library/StdDriver/src/fmc.c:0:37
	ldr	r0, __arm_cp.7_0
	.loc	3 292 37 is_stmt 1              @ ../../../Library/StdDriver/src/fmc.c:292:37
	ldr	r0, [r0, #8]
	b	.LBB7_13
.Ltmp121:
.LBB7_12:
	@DEBUG_VALUE: FMC_EraseXOM:u32XomNum <- $r4
	.loc	3 0 37 is_stmt 0                @ ../../../Library/StdDriver/src/fmc.c:0:37
	ldr	r0, __arm_cp.7_0
	.loc	3 295 37 is_stmt 1              @ ../../../Library/StdDriver/src/fmc.c:295:37
	ldr	r0, [r0, #12]
.Ltmp122:
.LBB7_13:
	@DEBUG_VALUE: FMC_EraseXOM:u32XomNum <- $r4
	.loc	3 0 0 is_stmt 0                 @ ../../../Library/StdDriver/src/fmc.c:0:0
	lsrs	r1, r0, #8
.Ltmp123:
	@DEBUG_VALUE: FMC_EraseXOM:u32Addr <- $r1
.LBB7_14:
	@DEBUG_VALUE: FMC_EraseXOM:u32XomNum <- $r4
	@DEBUG_VALUE: FMC_EraseXOM:u32Addr <- $r1
	ldr	r0, __arm_cp.7_1
	movs	r2, #34
	.loc	3 300 25 is_stmt 1              @ ../../../Library/StdDriver/src/fmc.c:300:25
	str	r2, [r0, #12]
	.loc	3 301 26                        @ ../../../Library/StdDriver/src/fmc.c:301:26
	str	r1, [r0, #4]
	ldr	r1, __arm_cp.7_2
.Ltmp124:
	.loc	3 302 25                        @ ../../../Library/StdDriver/src/fmc.c:302:25
	str	r1, [r0, #8]
	movs	r1, #1
	.loc	3 303 25                        @ ../../../Library/StdDriver/src/fmc.c:303:25
	str	r1, [r0, #16]
.Ltmp125:
.LBB7_15:                               @ =>This Inner Loop Header: Depth=1
	@DEBUG_VALUE: FMC_EraseXOM:u32XomNum <- $r4
	.loc	3 307 24                        @ ../../../Library/StdDriver/src/fmc.c:307:24
	ldr	r1, [r0, #16]
	.loc	3 307 13 is_stmt 0              @ ../../../Library/StdDriver/src/fmc.c:307:13
	cmp	r1, #0
	bne	.LBB7_15
.Ltmp126:
@ %bb.16:
	@DEBUG_VALUE: FMC_EraseXOM:u32XomNum <- $r4
	.loc	3 310 21 is_stmt 1              @ ../../../Library/StdDriver/src/fmc.c:310:21
	ldr	r1, [r0]
.Ltmp127:
	.loc	3 310 16 is_stmt 0              @ ../../../Library/StdDriver/src/fmc.c:310:16
	lsls	r1, r1, #25
	bmi	.LBB7_18
.Ltmp128:
@ %bb.17:
	@DEBUG_VALUE: FMC_EraseXOM:u32XomNum <- $r4
	.loc	3 0 16                          @ ../../../Library/StdDriver/src/fmc.c:0:16
	movs	r0, #0
.Ltmp129:
	@DEBUG_VALUE: FMC_EraseXOM:err <- $r0
	.loc	3 321 5 is_stmt 1               @ ../../../Library/StdDriver/src/fmc.c:321:5
	pop	{r4, r5, r7, pc}
.Ltmp130:
.LBB7_18:
	@DEBUG_VALUE: FMC_EraseXOM:u32XomNum <- $r4
	.loc	3 312 29                        @ ../../../Library/StdDriver/src/fmc.c:312:29
	ldr	r1, [r0]
	movs	r2, #64
	orrs	r2, r1
	str	r2, [r0]
.Ltmp131:
	@DEBUG_VALUE: FMC_EraseXOM:err <- -1
	.loc	3 0 0 is_stmt 0                 @ ../../../Library/StdDriver/src/fmc.c:0:0
	mov	r0, r5
.Ltmp132:
.LBB7_19:
	@DEBUG_VALUE: FMC_EraseXOM:u32XomNum <- $r4
	@DEBUG_VALUE: FMC_EraseXOM:err <- $r0
	.loc	3 321 5 is_stmt 1               @ ../../../Library/StdDriver/src/fmc.c:321:5
	pop	{r4, r5, r7, pc}
.Ltmp133:
	.p2align	2
@ %bb.20:
	.loc	3 0 5 is_stmt 0                 @ ../../../Library/StdDriver/src/fmc.c:0:5
__arm_cp.7_0:
	.long	1073791184                      @ 0x4000c0d0
.Lcpi_end9:
	.size	__arm_cp.7_0, .Lcpi_end9-__arm_cp.7_0
__arm_cp.7_1:
	.long	1073790976                      @ 0x4000c000
.Lcpi_end10:
	.size	__arm_cp.7_1, .Lcpi_end10-__arm_cp.7_1
__arm_cp.7_2:
	.long	5614083                         @ 0x55aa03
.Lcpi_end11:
	.size	__arm_cp.7_2, .Lcpi_end11-__arm_cp.7_2
.Lfunc_end7:
	.size	FMC_EraseXOM, .Lfunc_end7-FMC_EraseXOM
	.cfi_endproc
	.cantunwind
	.fnend
                                        @ -- End function
	.section	.text.FMC_GetBootSource,"ax",%progbits
	.hidden	FMC_GetBootSource               @ -- Begin function FMC_GetBootSource
	.globl	FMC_GetBootSource
	.p2align	2
	.type	FMC_GetBootSource,%function
	.code	16                              @ @FMC_GetBootSource
	.thumb_func
FMC_GetBootSource:
.Lfunc_begin8:
	.loc	3 337 0 is_stmt 1               @ ../../../Library/StdDriver/src/fmc.c:337:0
	.fnstart
	.cfi_startproc
@ %bb.0:
	ldr	r0, __arm_cp.8_0
.Ltmp134:
	@DEBUG_VALUE: FMC_GetBootSource:ret <- 0
	.loc	3 340 13 prologue_end           @ ../../../Library/StdDriver/src/fmc.c:340:13
	ldr	r0, [r0]
.Ltmp135:
	.loc	3 340 8 is_stmt 0               @ ../../../Library/StdDriver/src/fmc.c:340:8
	lsls	r0, r0, #30
	lsrs	r0, r0, #31
.Ltmp136:
	@DEBUG_VALUE: FMC_GetBootSource:ret <- $r0
	.loc	3 345 5 is_stmt 1               @ ../../../Library/StdDriver/src/fmc.c:345:5
	bx	lr
.Ltmp137:
	.p2align	2
@ %bb.1:
	.loc	3 0 5 is_stmt 0                 @ ../../../Library/StdDriver/src/fmc.c:0:5
__arm_cp.8_0:
	.long	1073790976                      @ 0x4000c000
.Lcpi_end12:
	.size	__arm_cp.8_0, .Lcpi_end12-__arm_cp.8_0
.Lfunc_end8:
	.size	FMC_GetBootSource, .Lfunc_end8-FMC_GetBootSource
	.cfi_endproc
	.cantunwind
	.fnend
                                        @ -- End function
	.section	.text.FMC_GetChkSum,"ax",%progbits
	.hidden	FMC_GetChkSum                   @ -- Begin function FMC_GetChkSum
	.globl	FMC_GetChkSum
	.p2align	2
	.type	FMC_GetChkSum,%function
	.code	16                              @ @FMC_GetChkSum
	.thumb_func
FMC_GetChkSum:
.Lfunc_begin9:
	.loc	3 361 0 is_stmt 1               @ ../../../Library/StdDriver/src/fmc.c:361:0
	.fnstart
	.cfi_startproc
@ %bb.0:
	@DEBUG_VALUE: FMC_GetChkSum:u32addr <- $r0
	@DEBUG_VALUE: FMC_GetChkSum:u32addr <- $r0
	@DEBUG_VALUE: FMC_GetChkSum:u32count <- $r1
	@DEBUG_VALUE: FMC_GetChkSum:u32count <- $r1
	.loc	3 364 27 prologue_end           @ ../../../Library/StdDriver/src/fmc.c:364:27
	mov	r2, r1
	orrs	r2, r0
	lsls	r2, r2, #21
	beq	.LBB9_2
.Ltmp138:
@ %bb.1:
	@DEBUG_VALUE: FMC_GetChkSum:u32count <- $r1
	@DEBUG_VALUE: FMC_GetChkSum:u32addr <- $r0
	.loc	3 0 27 is_stmt 0                @ ../../../Library/StdDriver/src/fmc.c:0:27
	movs	r0, #0
.Ltmp139:
	@DEBUG_VALUE: FMC_GetChkSum:u32addr <- [DW_OP_LLVM_entry_value 1] $r0
	mvns	r0, r0
.Ltmp140:
	@DEBUG_VALUE: FMC_GetChkSum:ret <- $r0
	.loc	3 386 5 is_stmt 1               @ ../../../Library/StdDriver/src/fmc.c:386:5
	bx	lr
.Ltmp141:
.LBB9_2:
	@DEBUG_VALUE: FMC_GetChkSum:u32count <- $r1
	@DEBUG_VALUE: FMC_GetChkSum:u32addr <- $r0
	.loc	3 0 5 is_stmt 0                 @ ../../../Library/StdDriver/src/fmc.c:0:5
	ldr	r2, __arm_cp.9_0
	movs	r3, #45
.Ltmp142:
	.loc	3 370 22 is_stmt 1              @ ../../../Library/StdDriver/src/fmc.c:370:22
	str	r3, [r2, #8]
	.loc	3 371 22                        @ ../../../Library/StdDriver/src/fmc.c:371:22
	str	r0, [r2]
	.loc	3 372 22                        @ ../../../Library/StdDriver/src/fmc.c:372:22
	str	r1, [r2, #4]
	movs	r1, #1
.Ltmp143:
	@DEBUG_VALUE: FMC_GetChkSum:u32count <- [DW_OP_LLVM_entry_value 1] $r1
	.loc	3 373 22                        @ ../../../Library/StdDriver/src/fmc.c:373:22
	str	r1, [r2, #12]
.Ltmp144:
.LBB9_3:                                @ =>This Inner Loop Header: Depth=1
	@DEBUG_VALUE: FMC_GetChkSum:u32addr <- $r0
	@DEBUG_VALUE: FMC_GetChkSum:u32count <- [DW_OP_LLVM_entry_value 1] $r1
	.loc	3 375 20                        @ ../../../Library/StdDriver/src/fmc.c:375:20
	ldr	r3, [r2, #60]
	.loc	3 375 9 is_stmt 0               @ ../../../Library/StdDriver/src/fmc.c:375:9
	lsls	r3, r3, #31
	bne	.LBB9_3
.Ltmp145:
@ %bb.4:
	@DEBUG_VALUE: FMC_GetChkSum:u32addr <- $r0
	@DEBUG_VALUE: FMC_GetChkSum:u32count <- [DW_OP_LLVM_entry_value 1] $r1
	.loc	3 0 9                           @ ../../../Library/StdDriver/src/fmc.c:0:9
	movs	r3, #13
	.loc	3 377 21 is_stmt 1              @ ../../../Library/StdDriver/src/fmc.c:377:21
	str	r3, [r2, #8]
	.loc	3 378 25                        @ ../../../Library/StdDriver/src/fmc.c:378:25
	str	r0, [r2]
	.loc	3 379 21                        @ ../../../Library/StdDriver/src/fmc.c:379:21
	str	r1, [r2, #12]
.Ltmp146:
.LBB9_5:                                @ =>This Inner Loop Header: Depth=1
	@DEBUG_VALUE: FMC_GetChkSum:u32count <- [DW_OP_LLVM_entry_value 1] $r1
	.loc	3 381 20                        @ ../../../Library/StdDriver/src/fmc.c:381:20
	ldr	r0, [r2, #60]
.Ltmp147:
	@DEBUG_VALUE: FMC_GetChkSum:u32addr <- [DW_OP_LLVM_entry_value 1] $r0
	.loc	3 381 9 is_stmt 0               @ ../../../Library/StdDriver/src/fmc.c:381:9
	lsls	r0, r0, #31
	bne	.LBB9_5
.Ltmp148:
@ %bb.6:
	@DEBUG_VALUE: FMC_GetChkSum:u32count <- [DW_OP_LLVM_entry_value 1] $r1
	.loc	3 383 20 is_stmt 1              @ ../../../Library/StdDriver/src/fmc.c:383:20
	ldr	r0, [r2, #4]
.Ltmp149:
	@DEBUG_VALUE: FMC_GetChkSum:ret <- $r0
	@DEBUG_VALUE: FMC_GetChkSum:ret <- $r0
	.loc	3 386 5                         @ ../../../Library/StdDriver/src/fmc.c:386:5
	bx	lr
.Ltmp150:
	.p2align	2
@ %bb.7:
	.loc	3 0 5 is_stmt 0                 @ ../../../Library/StdDriver/src/fmc.c:0:5
__arm_cp.9_0:
	.long	1073790980                      @ 0x4000c004
.Lcpi_end13:
	.size	__arm_cp.9_0, .Lcpi_end13-__arm_cp.9_0
.Lfunc_end9:
	.size	FMC_GetChkSum, .Lfunc_end9-FMC_GetChkSum
	.cfi_endproc
	.cantunwind
	.fnend
                                        @ -- End function
	.section	.text.FMC_Is_OTP_Locked,"ax",%progbits
	.hidden	FMC_Is_OTP_Locked               @ -- Begin function FMC_Is_OTP_Locked
	.globl	FMC_Is_OTP_Locked
	.p2align	2
	.type	FMC_Is_OTP_Locked,%function
	.code	16                              @ @FMC_Is_OTP_Locked
	.thumb_func
FMC_Is_OTP_Locked:
.Lfunc_begin10:
	.loc	3 402 0 is_stmt 1               @ ../../../Library/StdDriver/src/fmc.c:402:0
	.fnstart
	.cfi_startproc
@ %bb.0:
	@DEBUG_VALUE: FMC_Is_OTP_Locked:u32OtpNum <- $r0
	.save	{r4, r5, r7, lr}
	push	{r4, r5, r7, lr}
	.cfi_def_cfa_offset 16
	.cfi_offset lr, -4
	.cfi_offset r7, -8
	.cfi_offset r5, -12
	.cfi_offset r4, -16
	movs	r3, #1
	mvns	r2, r3
.Ltmp151:
	@DEBUG_VALUE: FMC_Is_OTP_Locked:ret <- 0
	@DEBUG_VALUE: FMC_Is_OTP_Locked:u32OtpNum <- $r0
	.loc	3 405 8 prologue_end            @ ../../../Library/StdDriver/src/fmc.c:405:8
	cmp	r0, #255
	mov	r1, r2
	bhi	.LBB10_2
.Ltmp152:
@ %bb.1:
	@DEBUG_VALUE: FMC_Is_OTP_Locked:u32OtpNum <- $r0
	@DEBUG_VALUE: FMC_Is_OTP_Locked:ret <- 0
	.loc	3 0 8 is_stmt 0                 @ ../../../Library/StdDriver/src/fmc.c:0:8
	movs	r1, #0
.Ltmp153:
.LBB10_2:
	@DEBUG_VALUE: FMC_Is_OTP_Locked:u32OtpNum <- $r0
	@DEBUG_VALUE: FMC_Is_OTP_Locked:ret <- 0
	@DEBUG_VALUE: FMC_Is_OTP_Locked:ret <- $r1
	.loc	3 410 8 is_stmt 1               @ ../../../Library/StdDriver/src/fmc.c:410:8
	cmp	r0, #255
	bhi	.LBB10_8
.Ltmp154:
@ %bb.3:
	@DEBUG_VALUE: FMC_Is_OTP_Locked:ret <- $r1
	@DEBUG_VALUE: FMC_Is_OTP_Locked:u32OtpNum <- $r0
	.loc	3 0 8 is_stmt 0                 @ ../../../Library/StdDriver/src/fmc.c:0:8
	ldr	r1, __arm_cp.10_0
.Ltmp155:
	.loc	3 412 21 is_stmt 1              @ ../../../Library/StdDriver/src/fmc.c:412:21
	mov	r5, r1
	subs	r5, #52
	movs	r4, #0
	str	r4, [r5]
	.loc	3 413 59                        @ ../../../Library/StdDriver/src/fmc.c:413:59
	lsls	r0, r0, #2
.Ltmp156:
	@DEBUG_VALUE: FMC_Is_OTP_Locked:u32OtpNum <- [DW_OP_LLVM_entry_value 1] $r0
	.loc	3 0 59 is_stmt 0                @ ../../../Library/StdDriver/src/fmc.c:0:59
	ldr	r5, __arm_cp.10_1
	.loc	3 413 47                        @ ../../../Library/StdDriver/src/fmc.c:413:47
	adds	r0, r0, r5
	.loc	3 413 22                        @ ../../../Library/StdDriver/src/fmc.c:413:22
	mov	r5, r1
	subs	r5, #60
	str	r0, [r5]
	.loc	3 414 21 is_stmt 1              @ ../../../Library/StdDriver/src/fmc.c:414:21
	mov	r0, r1
	subs	r0, #48
	str	r3, [r0]
.Ltmp157:
.LBB10_4:                               @ =>This Inner Loop Header: Depth=1
	@DEBUG_VALUE: FMC_Is_OTP_Locked:u32OtpNum <- [DW_OP_LLVM_entry_value 1] $r0
	.loc	3 416 20                        @ ../../../Library/StdDriver/src/fmc.c:416:20
	ldr	r3, [r0]
	.loc	3 416 9 is_stmt 0               @ ../../../Library/StdDriver/src/fmc.c:416:9
	lsls	r3, r3, #31
	bne	.LBB10_4
.Ltmp158:
@ %bb.5:
	@DEBUG_VALUE: FMC_Is_OTP_Locked:u32OtpNum <- [DW_OP_LLVM_entry_value 1] $r0
	.loc	3 418 17 is_stmt 1              @ ../../../Library/StdDriver/src/fmc.c:418:17
	ldr	r0, [r1]
.Ltmp159:
	.loc	3 418 12 is_stmt 0              @ ../../../Library/StdDriver/src/fmc.c:418:12
	lsls	r0, r0, #25
	bmi	.LBB10_7
.Ltmp160:
@ %bb.6:
	@DEBUG_VALUE: FMC_Is_OTP_Locked:u32OtpNum <- [DW_OP_LLVM_entry_value 1] $r0
	.loc	3 0 12                          @ ../../../Library/StdDriver/src/fmc.c:0:12
	mvns	r0, r4
.Ltmp161:
	.loc	3 425 21 is_stmt 1              @ ../../../Library/StdDriver/src/fmc.c:425:21
	subs	r1, #56
	ldr	r1, [r1]
	.loc	3 425 28 is_stmt 0              @ ../../../Library/StdDriver/src/fmc.c:425:28
	subs	r0, r1, r0
	subs	r1, r0, #1
	sbcs	r0, r1
.Ltmp162:
	.loc	3 425 16                        @ ../../../Library/StdDriver/src/fmc.c:425:16
	pop	{r4, r5, r7, pc}
.Ltmp163:
.LBB10_7:
	@DEBUG_VALUE: FMC_Is_OTP_Locked:u32OtpNum <- [DW_OP_LLVM_entry_value 1] $r0
	.loc	3 420 25 is_stmt 1              @ ../../../Library/StdDriver/src/fmc.c:420:25
	ldr	r0, [r1]
	movs	r3, #64
	orrs	r3, r0
	str	r3, [r1]
.Ltmp164:
	@DEBUG_VALUE: FMC_Is_OTP_Locked:ret <- -1
	.loc	3 0 0 is_stmt 0                 @ ../../../Library/StdDriver/src/fmc.c:0:0
	adds	r1, r2, #1
.Ltmp165:
.LBB10_8:
	@DEBUG_VALUE: FMC_Is_OTP_Locked:ret <- $r1
	.loc	3 431 5 is_stmt 1               @ ../../../Library/StdDriver/src/fmc.c:431:5
	mov	r0, r1
	pop	{r4, r5, r7, pc}
.Ltmp166:
	.p2align	2
@ %bb.9:
	.loc	3 0 5 is_stmt 0                 @ ../../../Library/StdDriver/src/fmc.c:0:5
__arm_cp.10_0:
	.long	1073791040                      @ 0x4000c040
.Lcpi_end14:
	.size	__arm_cp.10_0, .Lcpi_end14-__arm_cp.10_0
__arm_cp.10_1:
	.long	3213312                         @ 0x310800
.Lcpi_end15:
	.size	__arm_cp.10_1, .Lcpi_end15-__arm_cp.10_1
.Lfunc_end10:
	.size	FMC_Is_OTP_Locked, .Lfunc_end10-FMC_Is_OTP_Locked
	.cfi_endproc
	.cantunwind
	.fnend
                                        @ -- End function
	.section	.text.FMC_Lock_OTP,"ax",%progbits
	.hidden	FMC_Lock_OTP                    @ -- Begin function FMC_Lock_OTP
	.globl	FMC_Lock_OTP
	.p2align	2
	.type	FMC_Lock_OTP,%function
	.code	16                              @ @FMC_Lock_OTP
	.thumb_func
FMC_Lock_OTP:
.Lfunc_begin11:
	.loc	3 475 0 is_stmt 1               @ ../../../Library/StdDriver/src/fmc.c:475:0
	.fnstart
	.cfi_startproc
@ %bb.0:
	@DEBUG_VALUE: FMC_Lock_OTP:u32OtpNum <- $r0
	.save	{r4, r5, r7, lr}
	push	{r4, r5, r7, lr}
	.cfi_def_cfa_offset 16
	.cfi_offset lr, -4
	.cfi_offset r7, -8
	.cfi_offset r5, -12
	.cfi_offset r4, -16
	mov	r1, r0
	movs	r4, #1
	mvns	r2, r4
.Ltmp167:
	@DEBUG_VALUE: FMC_Lock_OTP:ret <- 0
	@DEBUG_VALUE: FMC_Lock_OTP:u32OtpNum <- $r1
	.loc	3 478 8 prologue_end            @ ../../../Library/StdDriver/src/fmc.c:478:8
	cmp	r0, #255
	mov	r0, r2
	bhi	.LBB11_2
.Ltmp168:
@ %bb.1:
	@DEBUG_VALUE: FMC_Lock_OTP:u32OtpNum <- $r1
	@DEBUG_VALUE: FMC_Lock_OTP:ret <- 0
	.loc	3 0 8 is_stmt 0                 @ ../../../Library/StdDriver/src/fmc.c:0:8
	movs	r0, #0
.Ltmp169:
.LBB11_2:
	@DEBUG_VALUE: FMC_Lock_OTP:u32OtpNum <- $r1
	@DEBUG_VALUE: FMC_Lock_OTP:ret <- 0
	@DEBUG_VALUE: FMC_Lock_OTP:ret <- $r0
	.loc	3 483 8 is_stmt 1               @ ../../../Library/StdDriver/src/fmc.c:483:8
	cmp	r1, #255
	bhi	.LBB11_7
.Ltmp170:
@ %bb.3:
	@DEBUG_VALUE: FMC_Lock_OTP:u32OtpNum <- $r1
	@DEBUG_VALUE: FMC_Lock_OTP:ret <- $r0
	.loc	3 0 8 is_stmt 0                 @ ../../../Library/StdDriver/src/fmc.c:0:8
	ldr	r3, __arm_cp.11_0
.Ltmp171:
	.loc	3 485 21 is_stmt 1              @ ../../../Library/StdDriver/src/fmc.c:485:21
	mov	r0, r3
.Ltmp172:
	subs	r0, #52
	movs	r5, #33
	str	r5, [r0]
	.loc	3 486 59                        @ ../../../Library/StdDriver/src/fmc.c:486:59
	lsls	r0, r1, #2
	ldr	r1, __arm_cp.11_1
.Ltmp173:
	.loc	3 486 47 is_stmt 0              @ ../../../Library/StdDriver/src/fmc.c:486:47
	adds	r0, r0, r1
	.loc	3 486 22                        @ ../../../Library/StdDriver/src/fmc.c:486:22
	mov	r1, r3
	subs	r1, #60
	str	r0, [r1]
	.loc	3 487 21 is_stmt 1              @ ../../../Library/StdDriver/src/fmc.c:487:21
	mov	r1, r3
	subs	r1, #56
	movs	r0, #0
	str	r0, [r1]
	.loc	3 488 21                        @ ../../../Library/StdDriver/src/fmc.c:488:21
	mov	r1, r3
	subs	r1, #48
	str	r4, [r1]
.LBB11_4:                               @ =>This Inner Loop Header: Depth=1
	.loc	3 490 20                        @ ../../../Library/StdDriver/src/fmc.c:490:20
	ldr	r4, [r1]
	.loc	3 490 9 is_stmt 0               @ ../../../Library/StdDriver/src/fmc.c:490:9
	lsls	r4, r4, #31
	bne	.LBB11_4
@ %bb.5:
.Ltmp174:
	.loc	3 492 17 is_stmt 1              @ ../../../Library/StdDriver/src/fmc.c:492:17
	ldr	r1, [r3]
.Ltmp175:
	.loc	3 492 12 is_stmt 0              @ ../../../Library/StdDriver/src/fmc.c:492:12
	lsls	r1, r1, #25
	bpl	.LBB11_7
@ %bb.6:
.Ltmp176:
	.loc	3 494 25 is_stmt 1              @ ../../../Library/StdDriver/src/fmc.c:494:25
	ldr	r0, [r3]
	movs	r1, #64
	orrs	r1, r0
	str	r1, [r3]
.Ltmp177:
	@DEBUG_VALUE: FMC_Lock_OTP:ret <- -1
	.loc	3 0 0 is_stmt 0                 @ ../../../Library/StdDriver/src/fmc.c:0:0
	adds	r0, r2, #1
.Ltmp178:
.LBB11_7:
	@DEBUG_VALUE: FMC_Lock_OTP:ret <- $r0
	.loc	3 498 5 is_stmt 1               @ ../../../Library/StdDriver/src/fmc.c:498:5
	pop	{r4, r5, r7, pc}
.Ltmp179:
	.p2align	2
@ %bb.8:
	.loc	3 0 5 is_stmt 0                 @ ../../../Library/StdDriver/src/fmc.c:0:5
__arm_cp.11_0:
	.long	1073791040                      @ 0x4000c040
.Lcpi_end16:
	.size	__arm_cp.11_0, .Lcpi_end16-__arm_cp.11_0
__arm_cp.11_1:
	.long	3213312                         @ 0x310800
.Lcpi_end17:
	.size	__arm_cp.11_1, .Lcpi_end17-__arm_cp.11_1
.Lfunc_end11:
	.size	FMC_Lock_OTP, .Lfunc_end11-FMC_Lock_OTP
	.cfi_endproc
	.cantunwind
	.fnend
                                        @ -- End function
	.section	.text.FMC_Open,"ax",%progbits
	.hidden	FMC_Open                        @ -- Begin function FMC_Open
	.globl	FMC_Open
	.p2align	2
	.type	FMC_Open,%function
	.code	16                              @ @FMC_Open
	.thumb_func
FMC_Open:
.Lfunc_begin12:
	.loc	3 515 0 is_stmt 1               @ ../../../Library/StdDriver/src/fmc.c:515:0
	.fnstart
	.cfi_startproc
@ %bb.0:
	ldr	r0, __arm_cp.12_0
.Ltmp180:
	.loc	3 516 17 prologue_end           @ ../../../Library/StdDriver/src/fmc.c:516:17
	ldr	r1, [r0]
	movs	r2, #1
	orrs	r2, r1
	str	r2, [r0]
	.loc	3 517 1                         @ ../../../Library/StdDriver/src/fmc.c:517:1
	bx	lr
.Ltmp181:
	.p2align	2
@ %bb.1:
	.loc	3 0 1 is_stmt 0                 @ ../../../Library/StdDriver/src/fmc.c:0:1
__arm_cp.12_0:
	.long	1073790976                      @ 0x4000c000
.Lcpi_end18:
	.size	__arm_cp.12_0, .Lcpi_end18-__arm_cp.12_0
.Lfunc_end12:
	.size	FMC_Open, .Lfunc_end12-FMC_Open
	.cfi_endproc
	.cantunwind
	.fnend
                                        @ -- End function
	.section	.text.FMC_Read,"ax",%progbits
	.hidden	FMC_Read                        @ -- Begin function FMC_Read
	.globl	FMC_Read
	.p2align	2
	.type	FMC_Read,%function
	.code	16                              @ @FMC_Read
	.thumb_func
FMC_Read:
.Lfunc_begin13:
	.loc	3 531 0 is_stmt 1               @ ../../../Library/StdDriver/src/fmc.c:531:0
	.fnstart
	.cfi_startproc
@ %bb.0:
	@DEBUG_VALUE: FMC_Read:u32Addr <- $r0
	ldr	r1, __arm_cp.13_0
	@DEBUG_VALUE: FMC_Read:u32Addr <- $r0
.Ltmp182:
	.loc	3 532 17 prologue_end           @ ../../../Library/StdDriver/src/fmc.c:532:17
	subs	r2, r1, #4
	movs	r3, #0
	str	r3, [r2]
	.loc	3 533 18                        @ ../../../Library/StdDriver/src/fmc.c:533:18
	mov	r2, r1
	subs	r2, #12
	str	r0, [r2]
	movs	r0, #1
.Ltmp183:
	@DEBUG_VALUE: FMC_Read:u32Addr <- [DW_OP_LLVM_entry_value 1] $r0
	.loc	3 534 17                        @ ../../../Library/StdDriver/src/fmc.c:534:17
	str	r0, [r1]
.Ltmp184:
.LBB13_1:                               @ =>This Inner Loop Header: Depth=1
	@DEBUG_VALUE: FMC_Read:u32Addr <- [DW_OP_LLVM_entry_value 1] $r0
	.loc	3 535 16                        @ ../../../Library/StdDriver/src/fmc.c:535:16
	ldr	r0, [r1]
	.loc	3 535 5 is_stmt 0               @ ../../../Library/StdDriver/src/fmc.c:535:5
	lsls	r0, r0, #31
	bne	.LBB13_1
.Ltmp185:
@ %bb.2:
	@DEBUG_VALUE: FMC_Read:u32Addr <- [DW_OP_LLVM_entry_value 1] $r0
	.loc	3 537 17 is_stmt 1              @ ../../../Library/StdDriver/src/fmc.c:537:17
	subs	r1, #8
	ldr	r0, [r1]
	.loc	3 537 5 is_stmt 0               @ ../../../Library/StdDriver/src/fmc.c:537:5
	bx	lr
.Ltmp186:
	.p2align	2
@ %bb.3:
	.loc	3 0 5                           @ ../../../Library/StdDriver/src/fmc.c:0:5
__arm_cp.13_0:
	.long	1073790992                      @ 0x4000c010
.Lcpi_end19:
	.size	__arm_cp.13_0, .Lcpi_end19-__arm_cp.13_0
.Lfunc_end13:
	.size	FMC_Read, .Lfunc_end13-FMC_Read
	.cfi_endproc
	.cantunwind
	.fnend
                                        @ -- End function
	.section	.text.FMC_Read_64,"ax",%progbits
	.hidden	FMC_Read_64                     @ -- Begin function FMC_Read_64
	.globl	FMC_Read_64
	.p2align	2
	.type	FMC_Read_64,%function
	.code	16                              @ @FMC_Read_64
	.thumb_func
FMC_Read_64:
.Lfunc_begin14:
	.loc	3 555 0 is_stmt 1               @ ../../../Library/StdDriver/src/fmc.c:555:0
	.fnstart
	.cfi_startproc
@ %bb.0:
	@DEBUG_VALUE: FMC_Read_64:u32addr <- $r0
	@DEBUG_VALUE: FMC_Read_64:u32data0 <- $r1
	@DEBUG_VALUE: FMC_Read_64:u32data1 <- $r2
	.save	{r4, r5, r6, lr}
	push	{r4, r5, r6, lr}
	.cfi_def_cfa_offset 16
	.cfi_offset lr, -4
	.cfi_offset r6, -8
	.cfi_offset r5, -12
	.cfi_offset r4, -16
	ldr	r3, __arm_cp.14_0
.Ltmp187:
	@DEBUG_VALUE: FMC_Read_64:ret <- 0
	@DEBUG_VALUE: FMC_Read_64:u32data1 <- $r2
	@DEBUG_VALUE: FMC_Read_64:u32data0 <- $r1
	@DEBUG_VALUE: FMC_Read_64:u32addr <- $r0
	.loc	3 558 17 prologue_end           @ ../../../Library/StdDriver/src/fmc.c:558:17
	mov	r5, r3
	subs	r5, #52
	movs	r4, #64
	str	r4, [r5]
	.loc	3 559 21                        @ ../../../Library/StdDriver/src/fmc.c:559:21
	mov	r5, r3
	subs	r5, #60
	str	r0, [r5]
	.loc	3 560 17                        @ ../../../Library/StdDriver/src/fmc.c:560:17
	mov	r5, r3
	subs	r5, #56
	movs	r0, #0
.Ltmp188:
	@DEBUG_VALUE: FMC_Read_64:u32addr <- [DW_OP_LLVM_entry_value 1] $r0
	str	r0, [r5]
	.loc	3 561 17                        @ ../../../Library/StdDriver/src/fmc.c:561:17
	mov	r5, r3
	subs	r5, #48
	movs	r6, #1
	str	r6, [r5]
.Ltmp189:
.LBB14_1:                               @ =>This Inner Loop Header: Depth=1
	@DEBUG_VALUE: FMC_Read_64:u32data1 <- $r2
	@DEBUG_VALUE: FMC_Read_64:u32data0 <- $r1
	@DEBUG_VALUE: FMC_Read_64:u32addr <- [DW_OP_LLVM_entry_value 1] $r0
	@DEBUG_VALUE: FMC_Read_64:ret <- 0
	.loc	3 563 16                        @ ../../../Library/StdDriver/src/fmc.c:563:16
	ldr	r5, [r3]
	.loc	3 563 5 is_stmt 0               @ ../../../Library/StdDriver/src/fmc.c:563:5
	lsls	r5, r5, #31
	bne	.LBB14_1
.Ltmp190:
@ %bb.2:
	@DEBUG_VALUE: FMC_Read_64:u32data1 <- $r2
	@DEBUG_VALUE: FMC_Read_64:u32data0 <- $r1
	@DEBUG_VALUE: FMC_Read_64:u32addr <- [DW_OP_LLVM_entry_value 1] $r0
	@DEBUG_VALUE: FMC_Read_64:ret <- 0
	.loc	3 565 13 is_stmt 1              @ ../../../Library/StdDriver/src/fmc.c:565:13
	ldr	r5, [r3]
.Ltmp191:
	.loc	3 565 8 is_stmt 0               @ ../../../Library/StdDriver/src/fmc.c:565:8
	lsls	r5, r5, #25
	bmi	.LBB14_4
.Ltmp192:
@ %bb.3:
	@DEBUG_VALUE: FMC_Read_64:u32data1 <- $r2
	@DEBUG_VALUE: FMC_Read_64:u32data0 <- $r1
	@DEBUG_VALUE: FMC_Read_64:u32addr <- [DW_OP_LLVM_entry_value 1] $r0
	@DEBUG_VALUE: FMC_Read_64:ret <- 0
	.loc	3 572 26 is_stmt 1              @ ../../../Library/StdDriver/src/fmc.c:572:26
	ldr	r3, [r3, #64]
	.loc	3 572 19 is_stmt 0              @ ../../../Library/StdDriver/src/fmc.c:572:19
	str	r3, [r1]
	ldr	r1, __arm_cp.14_1
.Ltmp193:
	@DEBUG_VALUE: FMC_Read_64:u32data0 <- [DW_OP_LLVM_entry_value 1] $r1
	.loc	3 573 26 is_stmt 1              @ ../../../Library/StdDriver/src/fmc.c:573:26
	ldr	r1, [r1]
	.loc	3 573 19 is_stmt 0              @ ../../../Library/StdDriver/src/fmc.c:573:19
	str	r1, [r2]
.Ltmp194:
	@DEBUG_VALUE: FMC_Read_64:ret <- $r0
	.loc	3 575 5 is_stmt 1               @ ../../../Library/StdDriver/src/fmc.c:575:5
	pop	{r4, r5, r6, pc}
.Ltmp195:
.LBB14_4:
	@DEBUG_VALUE: FMC_Read_64:u32data1 <- $r2
	@DEBUG_VALUE: FMC_Read_64:u32data0 <- $r1
	@DEBUG_VALUE: FMC_Read_64:u32addr <- [DW_OP_LLVM_entry_value 1] $r0
	@DEBUG_VALUE: FMC_Read_64:ret <- 0
	.loc	3 567 21                        @ ../../../Library/StdDriver/src/fmc.c:567:21
	ldr	r1, [r3]
.Ltmp196:
	@DEBUG_VALUE: FMC_Read_64:u32data0 <- [DW_OP_LLVM_entry_value 1] $r1
	orrs	r1, r4
	str	r1, [r3]
	mvns	r0, r0
.Ltmp197:
	@DEBUG_VALUE: FMC_Read_64:ret <- -1
	@DEBUG_VALUE: FMC_Read_64:ret <- $r0
	.loc	3 575 5                         @ ../../../Library/StdDriver/src/fmc.c:575:5
	pop	{r4, r5, r6, pc}
.Ltmp198:
	.p2align	2
@ %bb.5:
	.loc	3 0 5 is_stmt 0                 @ ../../../Library/StdDriver/src/fmc.c:0:5
__arm_cp.14_0:
	.long	1073791040                      @ 0x4000c040
.Lcpi_end20:
	.size	__arm_cp.14_0, .Lcpi_end20-__arm_cp.14_0
__arm_cp.14_1:
	.long	1073791108                      @ 0x4000c084
.Lcpi_end21:
	.size	__arm_cp.14_1, .Lcpi_end21-__arm_cp.14_1
.Lfunc_end14:
	.size	FMC_Read_64, .Lfunc_end14-FMC_Read_64
	.cfi_endproc
	.cantunwind
	.fnend
                                        @ -- End function
	.section	.text.FMC_Read_OTP,"ax",%progbits
	.hidden	FMC_Read_OTP                    @ -- Begin function FMC_Read_OTP
	.globl	FMC_Read_OTP
	.p2align	2
	.type	FMC_Read_OTP,%function
	.code	16                              @ @FMC_Read_OTP
	.thumb_func
FMC_Read_OTP:
.Lfunc_begin15:
	.loc	3 592 0 is_stmt 1               @ ../../../Library/StdDriver/src/fmc.c:592:0
	.fnstart
	.cfi_startproc
@ %bb.0:
	@DEBUG_VALUE: FMC_Read_OTP:u32OtpNum <- $r0
	@DEBUG_VALUE: FMC_Read_OTP:u32LowWord <- $r1
	@DEBUG_VALUE: FMC_Read_OTP:u32HighWord <- $r2
	.save	{r4, r5, r6, r7, lr}
	push	{r4, r5, r6, r7, lr}
	.cfi_def_cfa_offset 20
	.cfi_offset lr, -4
	.cfi_offset r7, -8
	.cfi_offset r6, -12
	.cfi_offset r5, -16
	.cfi_offset r4, -20
	mov	r3, r0
	movs	r6, #1
	mvns	r4, r6
.Ltmp199:
	@DEBUG_VALUE: FMC_Read_OTP:ret <- 0
	@DEBUG_VALUE: FMC_Read_OTP:u32HighWord <- $r2
	@DEBUG_VALUE: FMC_Read_OTP:u32LowWord <- $r1
	@DEBUG_VALUE: FMC_Read_OTP:u32OtpNum <- $r3
	.loc	3 595 8 prologue_end            @ ../../../Library/StdDriver/src/fmc.c:595:8
	cmp	r0, #255
	mov	r0, r4
	bhi	.LBB15_2
.Ltmp200:
@ %bb.1:
	@DEBUG_VALUE: FMC_Read_OTP:u32OtpNum <- $r3
	@DEBUG_VALUE: FMC_Read_OTP:u32HighWord <- $r2
	@DEBUG_VALUE: FMC_Read_OTP:u32LowWord <- $r1
	@DEBUG_VALUE: FMC_Read_OTP:ret <- 0
	.loc	3 0 8 is_stmt 0                 @ ../../../Library/StdDriver/src/fmc.c:0:8
	movs	r0, #0
.Ltmp201:
.LBB15_2:
	@DEBUG_VALUE: FMC_Read_OTP:u32OtpNum <- $r3
	@DEBUG_VALUE: FMC_Read_OTP:u32HighWord <- $r2
	@DEBUG_VALUE: FMC_Read_OTP:u32LowWord <- $r1
	@DEBUG_VALUE: FMC_Read_OTP:ret <- 0
	@DEBUG_VALUE: FMC_Read_OTP:ret <- $r0
	.loc	3 600 8 is_stmt 1               @ ../../../Library/StdDriver/src/fmc.c:600:8
	cmp	r3, #255
	bhi	.LBB15_7
.Ltmp202:
@ %bb.3:
	@DEBUG_VALUE: FMC_Read_OTP:u32OtpNum <- $r3
	@DEBUG_VALUE: FMC_Read_OTP:u32HighWord <- $r2
	@DEBUG_VALUE: FMC_Read_OTP:u32LowWord <- $r1
	@DEBUG_VALUE: FMC_Read_OTP:ret <- $r0
	.loc	3 0 8 is_stmt 0                 @ ../../../Library/StdDriver/src/fmc.c:0:8
	ldr	r5, __arm_cp.15_0
.Ltmp203:
	.loc	3 602 21 is_stmt 1              @ ../../../Library/StdDriver/src/fmc.c:602:21
	mov	r0, r5
.Ltmp204:
	subs	r0, #52
	movs	r7, #64
	str	r7, [r0]
	movs	r0, #49
	lsls	r0, r0, #16
	.loc	3 603 52                        @ ../../../Library/StdDriver/src/fmc.c:603:52
	lsls	r3, r3, #3
.Ltmp205:
	.loc	3 603 40 is_stmt 0              @ ../../../Library/StdDriver/src/fmc.c:603:40
	adds	r0, r3, r0
	.loc	3 603 25                        @ ../../../Library/StdDriver/src/fmc.c:603:25
	mov	r3, r5
	subs	r3, #60
	str	r0, [r3]
	.loc	3 604 21 is_stmt 1              @ ../../../Library/StdDriver/src/fmc.c:604:21
	mov	r3, r5
	subs	r3, #56
	movs	r0, #0
	str	r0, [r3]
	.loc	3 605 21                        @ ../../../Library/StdDriver/src/fmc.c:605:21
	mov	r3, r5
	subs	r3, #48
	str	r6, [r3]
.Ltmp206:
.LBB15_4:                               @ =>This Inner Loop Header: Depth=1
	@DEBUG_VALUE: FMC_Read_OTP:u32HighWord <- $r2
	@DEBUG_VALUE: FMC_Read_OTP:u32LowWord <- $r1
	.loc	3 607 20                        @ ../../../Library/StdDriver/src/fmc.c:607:20
	ldr	r3, [r5]
	.loc	3 607 9 is_stmt 0               @ ../../../Library/StdDriver/src/fmc.c:607:9
	lsls	r3, r3, #31
	bne	.LBB15_4
.Ltmp207:
@ %bb.5:
	@DEBUG_VALUE: FMC_Read_OTP:u32HighWord <- $r2
	@DEBUG_VALUE: FMC_Read_OTP:u32LowWord <- $r1
	.loc	3 609 17 is_stmt 1              @ ../../../Library/StdDriver/src/fmc.c:609:17
	ldr	r3, [r5]
.Ltmp208:
	.loc	3 609 12 is_stmt 0              @ ../../../Library/StdDriver/src/fmc.c:609:12
	lsls	r3, r3, #25
	bmi	.LBB15_8
.Ltmp209:
@ %bb.6:
	@DEBUG_VALUE: FMC_Read_OTP:u32HighWord <- $r2
	@DEBUG_VALUE: FMC_Read_OTP:u32LowWord <- $r1
	.loc	3 616 32 is_stmt 1              @ ../../../Library/StdDriver/src/fmc.c:616:32
	ldr	r3, [r5, #64]
	.loc	3 616 25 is_stmt 0              @ ../../../Library/StdDriver/src/fmc.c:616:25
	str	r3, [r1]
	ldr	r1, __arm_cp.15_1
.Ltmp210:
	@DEBUG_VALUE: FMC_Read_OTP:u32LowWord <- [DW_OP_LLVM_entry_value 1] $r1
	.loc	3 617 33 is_stmt 1              @ ../../../Library/StdDriver/src/fmc.c:617:33
	ldr	r1, [r1]
	.loc	3 617 26 is_stmt 0              @ ../../../Library/StdDriver/src/fmc.c:617:26
	str	r1, [r2]
.Ltmp211:
.LBB15_7:
	@DEBUG_VALUE: FMC_Read_OTP:u32HighWord <- $r2
	@DEBUG_VALUE: FMC_Read_OTP:ret <- $r0
	.loc	3 620 5 is_stmt 1               @ ../../../Library/StdDriver/src/fmc.c:620:5
	pop	{r4, r5, r6, r7, pc}
.Ltmp212:
.LBB15_8:
	@DEBUG_VALUE: FMC_Read_OTP:u32HighWord <- $r2
	@DEBUG_VALUE: FMC_Read_OTP:u32LowWord <- $r1
	.loc	3 611 25                        @ ../../../Library/StdDriver/src/fmc.c:611:25
	ldr	r0, [r5]
	orrs	r0, r7
	str	r0, [r5]
.Ltmp213:
	@DEBUG_VALUE: FMC_Read_OTP:ret <- -1
	.loc	3 0 0 is_stmt 0                 @ ../../../Library/StdDriver/src/fmc.c:0:0
	adds	r0, r4, #1
.Ltmp214:
	@DEBUG_VALUE: FMC_Read_OTP:ret <- $r0
	.loc	3 620 5 is_stmt 1               @ ../../../Library/StdDriver/src/fmc.c:620:5
	pop	{r4, r5, r6, r7, pc}
.Ltmp215:
	.p2align	2
@ %bb.9:
	.loc	3 0 5 is_stmt 0                 @ ../../../Library/StdDriver/src/fmc.c:0:5
__arm_cp.15_0:
	.long	1073791040                      @ 0x4000c040
.Lcpi_end22:
	.size	__arm_cp.15_0, .Lcpi_end22-__arm_cp.15_0
__arm_cp.15_1:
	.long	1073791108                      @ 0x4000c084
.Lcpi_end23:
	.size	__arm_cp.15_1, .Lcpi_end23-__arm_cp.15_1
.Lfunc_end15:
	.size	FMC_Read_OTP, .Lfunc_end15-FMC_Read_OTP
	.cfi_endproc
	.cantunwind
	.fnend
                                        @ -- End function
	.section	.text.FMC_ReadConfig,"ax",%progbits
	.hidden	FMC_ReadConfig                  @ -- Begin function FMC_ReadConfig
	.globl	FMC_ReadConfig
	.p2align	1
	.type	FMC_ReadConfig,%function
	.code	16                              @ @FMC_ReadConfig
	.thumb_func
FMC_ReadConfig:
.Lfunc_begin16:
	.loc	3 638 0 is_stmt 1               @ ../../../Library/StdDriver/src/fmc.c:638:0
	.fnstart
	.cfi_startproc
@ %bb.0:
	@DEBUG_VALUE: FMC_ReadConfig:u32Config <- $r0
	@DEBUG_VALUE: FMC_ReadConfig:u32Count <- $r1
	@DEBUG_VALUE: FMC_ReadConfig:u32Count <- $r1
	@DEBUG_VALUE: FMC_ReadConfig:u32Config <- $r0
	.save	{r4, r5, r6, lr}
	push	{r4, r5, r6, lr}
	.cfi_def_cfa_offset 16
	.cfi_offset lr, -4
	.cfi_offset r6, -8
	.cfi_offset r5, -12
	.cfi_offset r4, -16
.Ltmp216:
	@DEBUG_VALUE: FMC_ReadConfig:i <- 0
	.loc	3 641 5 prologue_end            @ ../../../Library/StdDriver/src/fmc.c:641:5
	cbz	r1, .LBB16_3
.Ltmp217:
@ %bb.1:
	@DEBUG_VALUE: FMC_ReadConfig:u32Count <- $r1
	@DEBUG_VALUE: FMC_ReadConfig:u32Config <- $r0
	@DEBUG_VALUE: FMC_ReadConfig:i <- 0
	.loc	3 0 5 is_stmt 0                 @ ../../../Library/StdDriver/src/fmc.c:0:5
	mov	r4, r1
.Ltmp218:
	@DEBUG_VALUE: FMC_ReadConfig:u32Count <- $r4
	mov	r5, r0
.Ltmp219:
	@DEBUG_VALUE: FMC_ReadConfig:u32Config <- $r5
	movs	r0, #3
	lsls	r6, r0, #20
.Ltmp220:
.LBB16_2:                               @ =>This Inner Loop Header: Depth=1
	@DEBUG_VALUE: FMC_ReadConfig:i <- undef
	.loc	3 643 24 is_stmt 1              @ ../../../Library/StdDriver/src/fmc.c:643:24
	mov	r0, r6
	bl	FMC_Read
	.loc	3 643 22 is_stmt 0              @ ../../../Library/StdDriver/src/fmc.c:643:22
	stm	r5!, {r0}
.Ltmp221:
	@DEBUG_VALUE: FMC_ReadConfig:u32Config <- [DW_OP_LLVM_entry_value 1] $r0
	.loc	3 641 19 is_stmt 1              @ ../../../Library/StdDriver/src/fmc.c:641:19
	subs	r4, r4, #1
.Ltmp222:
	@DEBUG_VALUE: FMC_ReadConfig:u32Count <- [DW_OP_LLVM_entry_value 1] $r1
	@DEBUG_VALUE: FMC_ReadConfig:i <- [DW_OP_plus_uconst 1, DW_OP_stack_value] undef
	adds	r6, r6, #4
.Ltmp223:
	.loc	3 641 5 is_stmt 0               @ ../../../Library/StdDriver/src/fmc.c:641:5
	cmp	r4, #0
	bne	.LBB16_2
.Ltmp224:
.LBB16_3:
	.loc	3 0 5                           @ ../../../Library/StdDriver/src/fmc.c:0:5
	movs	r0, #0
	.loc	3 645 5 is_stmt 1               @ ../../../Library/StdDriver/src/fmc.c:645:5
	pop	{r4, r5, r6, pc}
.Ltmp225:
.Lfunc_end16:
	.size	FMC_ReadConfig, .Lfunc_end16-FMC_ReadConfig
	.cfi_endproc
	.cantunwind
	.fnend
                                        @ -- End function
	.section	.text.FMC_SetBootSource,"ax",%progbits
	.hidden	FMC_SetBootSource               @ -- Begin function FMC_SetBootSource
	.globl	FMC_SetBootSource
	.p2align	2
	.type	FMC_SetBootSource,%function
	.code	16                              @ @FMC_SetBootSource
	.thumb_func
FMC_SetBootSource:
.Lfunc_begin17:
	.loc	3 663 0                         @ ../../../Library/StdDriver/src/fmc.c:663:0
	.fnstart
	.cfi_startproc
@ %bb.0:
	@DEBUG_VALUE: FMC_SetBootSource:i32BootSrc <- $r0
	@DEBUG_VALUE: FMC_SetBootSource:i32BootSrc <- $r0
	subs	r1, r0, #1
	sbcs	r0, r1
.Ltmp226:
	@DEBUG_VALUE: FMC_SetBootSource:i32BootSrc <- [DW_OP_LLVM_entry_value 1] $r0
	.loc	3 664 8 prologue_end            @ ../../../Library/StdDriver/src/fmc.c:664:8
	lsls	r0, r0, #1
	ldr	r1, __arm_cp.17_0
.Ltmp227:
	.loc	3 0 0 is_stmt 0                 @ ../../../Library/StdDriver/src/fmc.c:0:0
	ldr	r2, [r1]
	movs	r3, #2
.Ltmp228:
	.loc	3 664 8                         @ ../../../Library/StdDriver/src/fmc.c:664:8
	bics	r2, r3
	adds	r0, r2, r0
.Ltmp229:
	.loc	3 0 0                           @ ../../../Library/StdDriver/src/fmc.c:0:0
	str	r0, [r1]
.Ltmp230:
	.loc	3 672 1 is_stmt 1               @ ../../../Library/StdDriver/src/fmc.c:672:1
	bx	lr
.Ltmp231:
	.p2align	2
@ %bb.1:
	.loc	3 0 1 is_stmt 0                 @ ../../../Library/StdDriver/src/fmc.c:0:1
__arm_cp.17_0:
	.long	1073790976                      @ 0x4000c000
.Lcpi_end24:
	.size	__arm_cp.17_0, .Lcpi_end24-__arm_cp.17_0
.Lfunc_end17:
	.size	FMC_SetBootSource, .Lfunc_end17-FMC_SetBootSource
	.cfi_endproc
	.cantunwind
	.fnend
                                        @ -- End function
	.section	.text.FMC_CompareSPKey,"ax",%progbits
	.hidden	FMC_CompareSPKey                @ -- Begin function FMC_CompareSPKey
	.globl	FMC_CompareSPKey
	.p2align	2
	.type	FMC_CompareSPKey,%function
	.code	16                              @ @FMC_CompareSPKey
	.thumb_func
FMC_CompareSPKey:
.Lfunc_begin18:
	.loc	3 687 0 is_stmt 1               @ ../../../Library/StdDriver/src/fmc.c:687:0
	.fnstart
	.cfi_startproc
@ %bb.0:
	@DEBUG_VALUE: FMC_CompareSPKey:key <- $r0
	.save	{r4, lr}
	push	{r4, lr}
	.cfi_def_cfa_offset 8
	.cfi_offset lr, -4
	.cfi_offset r4, -8
	movs	r1, #1
	mvns	r2, r1
	ldr	r3, __arm_cp.18_0
.Ltmp232:
	@DEBUG_VALUE: FMC_CompareSPKey:ret <- 0
	@DEBUG_VALUE: FMC_CompareSPKey:key <- $r0
	.loc	3 691 13 prologue_end           @ ../../../Library/StdDriver/src/fmc.c:691:13
	ldr	r1, [r3]
.Ltmp233:
	.loc	3 697 15                        @ ../../../Library/StdDriver/src/fmc.c:697:15
	ldr	r4, [r3]
.Ltmp234:
	.loc	3 697 8 is_stmt 0               @ ../../../Library/StdDriver/src/fmc.c:697:8
	lsls	r4, r4, #30
.Ltmp235:
	@DEBUG_VALUE: FMC_CompareSPKey:ret <- undef
	bpl	.LBB18_3
.Ltmp236:
@ %bb.1:
	@DEBUG_VALUE: FMC_CompareSPKey:key <- $r0
	.loc	3 0 8                           @ ../../../Library/StdDriver/src/fmc.c:0:8
	lsls	r1, r1, #28
	asrs	r1, r1, #31
.Ltmp237:
	@DEBUG_VALUE: FMC_CompareSPKey:ret <- $r1
	@DEBUG_VALUE: FMC_CompareSPKey:ret <- $r1
	.loc	3 703 8 is_stmt 1               @ ../../../Library/StdDriver/src/fmc.c:703:8
	cbz	r1, .LBB18_4
.Ltmp238:
.LBB18_2:
	@DEBUG_VALUE: FMC_CompareSPKey:ret <- $r1
	@DEBUG_VALUE: FMC_CompareSPKey:key <- $r0
	@DEBUG_VALUE: FMC_CompareSPKey:ret <- $r1
	.loc	3 725 5                         @ ../../../Library/StdDriver/src/fmc.c:725:5
	mov	r0, r1
.Ltmp239:
	@DEBUG_VALUE: FMC_CompareSPKey:key <- [DW_OP_LLVM_entry_value 1] $r0
	pop	{r4, pc}
.Ltmp240:
.LBB18_3:
	@DEBUG_VALUE: FMC_CompareSPKey:key <- $r0
	.loc	3 0 5 is_stmt 0                 @ ../../../Library/StdDriver/src/fmc.c:0:5
	subs	r1, r2, #1
.Ltmp241:
	@DEBUG_VALUE: FMC_CompareSPKey:ret <- $r1
	.loc	3 703 8 is_stmt 1               @ ../../../Library/StdDriver/src/fmc.c:703:8
	cmp	r1, #0
	bne	.LBB18_2
.Ltmp242:
.LBB18_4:
	@DEBUG_VALUE: FMC_CompareSPKey:ret <- $r1
	@DEBUG_VALUE: FMC_CompareSPKey:key <- $r0
	.loc	3 705 23                        @ ../../../Library/StdDriver/src/fmc.c:705:23
	ldr	r1, [r0]
.Ltmp243:
	.loc	3 705 21 is_stmt 0              @ ../../../Library/StdDriver/src/fmc.c:705:21
	mov	r4, r3
	subs	r4, #16
	str	r1, [r4]
	.loc	3 706 21 is_stmt 1              @ ../../../Library/StdDriver/src/fmc.c:706:21
	mov	r1, r3
	subs	r1, #12
	.loc	3 706 23 is_stmt 0              @ ../../../Library/StdDriver/src/fmc.c:706:23
	ldr	r4, [r0, #4]
	.loc	3 706 21                        @ ../../../Library/StdDriver/src/fmc.c:706:21
	str	r4, [r1]
	.loc	3 707 21 is_stmt 1              @ ../../../Library/StdDriver/src/fmc.c:707:21
	mov	r1, r3
	subs	r1, #8
	.loc	3 707 23 is_stmt 0              @ ../../../Library/StdDriver/src/fmc.c:707:23
	ldr	r0, [r0, #8]
.Ltmp244:
	@DEBUG_VALUE: FMC_CompareSPKey:key <- [DW_OP_LLVM_entry_value 1] $r0
	.loc	3 707 21                        @ ../../../Library/StdDriver/src/fmc.c:707:21
	str	r0, [r1]
	.loc	3 708 23 is_stmt 1              @ ../../../Library/StdDriver/src/fmc.c:708:23
	subs	r0, r3, #4
	movs	r1, #3
	str	r1, [r0]
.Ltmp245:
.LBB18_5:                               @ =>This Inner Loop Header: Depth=1
	@DEBUG_VALUE: FMC_CompareSPKey:key <- [DW_OP_LLVM_entry_value 1] $r0
	.loc	3 710 20                        @ ../../../Library/StdDriver/src/fmc.c:710:20
	ldr	r0, [r3]
	.loc	3 710 9 is_stmt 0               @ ../../../Library/StdDriver/src/fmc.c:710:9
	lsls	r0, r0, #31
	bne	.LBB18_5
.Ltmp246:
@ %bb.6:
	@DEBUG_VALUE: FMC_CompareSPKey:key <- [DW_OP_LLVM_entry_value 1] $r0
	.loc	3 712 26 is_stmt 1              @ ../../../Library/StdDriver/src/fmc.c:712:26
	ldr	r0, [r3]
.Ltmp247:
	@DEBUG_VALUE: FMC_CompareSPKey:u32KeySts <- $r0
	.loc	3 714 12                        @ ../../../Library/StdDriver/src/fmc.c:714:12
	lsls	r1, r0, #29
	bmi	.LBB18_8
.Ltmp248:
@ %bb.7:
	@DEBUG_VALUE: FMC_CompareSPKey:u32KeySts <- $r0
	@DEBUG_VALUE: FMC_CompareSPKey:key <- [DW_OP_LLVM_entry_value 1] $r0
	.loc	3 0 0 is_stmt 0                 @ ../../../Library/StdDriver/src/fmc.c:0:0
	mov	r1, r2
.Ltmp249:
	@DEBUG_VALUE: FMC_CompareSPKey:ret <- $r1
	.loc	3 725 5 is_stmt 1               @ ../../../Library/StdDriver/src/fmc.c:725:5
	mov	r0, r1
.Ltmp250:
	pop	{r4, pc}
.Ltmp251:
.LBB18_8:
	@DEBUG_VALUE: FMC_CompareSPKey:u32KeySts <- $r0
	@DEBUG_VALUE: FMC_CompareSPKey:key <- [DW_OP_LLVM_entry_value 1] $r0
	.loc	3 719 27                        @ ../../../Library/StdDriver/src/fmc.c:719:27
	lsls	r0, r0, #30
.Ltmp252:
	asrs	r0, r0, #31
.Ltmp253:
	.loc	3 719 17 is_stmt 0              @ ../../../Library/StdDriver/src/fmc.c:719:17
	ands	r0, r2
	pop	{r4, pc}
.Ltmp254:
	.p2align	2
@ %bb.9:
	.loc	3 0 17                          @ ../../../Library/StdDriver/src/fmc.c:0:17
__arm_cp.18_0:
	.long	1073791072                      @ 0x4000c060
.Lcpi_end25:
	.size	__arm_cp.18_0, .Lcpi_end25-__arm_cp.18_0
.Lfunc_end18:
	.size	FMC_CompareSPKey, .Lfunc_end18-FMC_CompareSPKey
	.cfi_endproc
	.cantunwind
	.fnend
                                        @ -- End function
	.section	.text.FMC_SetSPKey,"ax",%progbits
	.hidden	FMC_SetSPKey                    @ -- Begin function FMC_SetSPKey
	.globl	FMC_SetSPKey
	.p2align	2
	.type	FMC_SetSPKey,%function
	.code	16                              @ @FMC_SetSPKey
	.thumb_func
FMC_SetSPKey:
.Lfunc_begin19:
	.loc	3 751 0 is_stmt 1               @ ../../../Library/StdDriver/src/fmc.c:751:0
	.fnstart
	.cfi_startproc
@ %bb.0:
	@DEBUG_VALUE: FMC_SetSPKey:au32Key <- $r0
	@DEBUG_VALUE: FMC_SetSPKey:u32Kpmax <- $r1
	@DEBUG_VALUE: FMC_SetSPKey:u32Kemax <- $r2
	@DEBUG_VALUE: FMC_SetSPKey:i32LockCONFIG <- $r3
	.save	{r4, r5, r6, r7, lr}
	push	{r4, r5, r6, r7, lr}
	.cfi_def_cfa_offset 20
	.cfi_offset lr, -4
	.cfi_offset r7, -8
	.cfi_offset r6, -12
	.cfi_offset r5, -16
	.cfi_offset r4, -20
	.pad	#28
	sub	sp, #28
	.cfi_def_cfa_offset 48
	str	r2, [sp, #16]                   @ 4-byte Spill
	str	r1, [sp, #20]                   @ 4-byte Spill
	ldr	r7, __arm_cp.19_0
.Ltmp255:
	@DEBUG_VALUE: FMC_SetSPKey:ret <- 0
	@DEBUG_VALUE: FMC_SetSPKey:lock_ctrl <- 0
	@DEBUG_VALUE: FMC_SetSPKey:i32LockSPROM <- [DW_OP_plus_uconst 48] [$sp+0]
	@DEBUG_VALUE: FMC_SetSPKey:i32LockCONFIG <- $r3
	@DEBUG_VALUE: FMC_SetSPKey:u32Kemax <- [DW_OP_plus_uconst 16] [$sp+0]
	@DEBUG_VALUE: FMC_SetSPKey:u32Kpmax <- [DW_OP_plus_uconst 20] [$sp+0]
	@DEBUG_VALUE: FMC_SetSPKey:au32Key <- $r0
	.loc	3 756 13 prologue_end           @ ../../../Library/StdDriver/src/fmc.c:756:13
	ldr	r2, [r7]
	movs	r5, #0
	movw	r1, #512
.Ltmp256:
	.loc	3 756 8 is_stmt 0               @ ../../../Library/StdDriver/src/fmc.c:756:8
	cmp	r2, r1
	str	r3, [sp, #24]                   @ 4-byte Spill
.Ltmp257:
	@DEBUG_VALUE: FMC_SetSPKey:i32LockCONFIG <- [DW_OP_plus_uconst 24] [$sp+0]
	str	r0, [sp, #8]                    @ 4-byte Spill
.Ltmp258:
	@DEBUG_VALUE: FMC_SetSPKey:au32Key <- [DW_OP_plus_uconst 8] [$sp+0]
	beq	.LBB19_2
.Ltmp259:
@ %bb.1:
	@DEBUG_VALUE: FMC_SetSPKey:au32Key <- [DW_OP_plus_uconst 8] [$sp+0]
	@DEBUG_VALUE: FMC_SetSPKey:i32LockCONFIG <- [DW_OP_plus_uconst 24] [$sp+0]
	@DEBUG_VALUE: FMC_SetSPKey:u32Kpmax <- [DW_OP_plus_uconst 20] [$sp+0]
	@DEBUG_VALUE: FMC_SetSPKey:u32Kemax <- [DW_OP_plus_uconst 16] [$sp+0]
	@DEBUG_VALUE: FMC_SetSPKey:i32LockSPROM <- [DW_OP_plus_uconst 48] [$sp+0]
	@DEBUG_VALUE: FMC_SetSPKey:lock_ctrl <- 0
	@DEBUG_VALUE: FMC_SetSPKey:ret <- 0
	.loc	3 0 8                           @ ../../../Library/StdDriver/src/fmc.c:0:8
	mvns	r5, r5
.Ltmp260:
.LBB19_2:
	@DEBUG_VALUE: FMC_SetSPKey:au32Key <- [DW_OP_plus_uconst 8] [$sp+0]
	@DEBUG_VALUE: FMC_SetSPKey:i32LockCONFIG <- [DW_OP_plus_uconst 24] [$sp+0]
	@DEBUG_VALUE: FMC_SetSPKey:u32Kpmax <- [DW_OP_plus_uconst 20] [$sp+0]
	@DEBUG_VALUE: FMC_SetSPKey:u32Kemax <- [DW_OP_plus_uconst 16] [$sp+0]
	@DEBUG_VALUE: FMC_SetSPKey:i32LockSPROM <- [DW_OP_plus_uconst 48] [$sp+0]
	@DEBUG_VALUE: FMC_SetSPKey:lock_ctrl <- 0
	@DEBUG_VALUE: FMC_SetSPKey:ret <- 0
	@DEBUG_VALUE: FMC_SetSPKey:ret <- $r5
	ldr	r4, __arm_cp.19_1
.Ltmp261:
	.loc	3 761 8 is_stmt 1               @ ../../../Library/StdDriver/src/fmc.c:761:8
	mov	r0, r4
	bl	FMC_Erase
	movs	r1, #7
	mvns	r6, r1
.Ltmp262:
	.loc	3 761 8 is_stmt 0               @ ../../../Library/StdDriver/src/fmc.c:761:8
	cbz	r0, .LBB19_4
.Ltmp263:
@ %bb.3:
	@DEBUG_VALUE: FMC_SetSPKey:au32Key <- [DW_OP_plus_uconst 8] [$sp+0]
	@DEBUG_VALUE: FMC_SetSPKey:i32LockCONFIG <- [DW_OP_plus_uconst 24] [$sp+0]
	@DEBUG_VALUE: FMC_SetSPKey:ret <- $r5
	@DEBUG_VALUE: FMC_SetSPKey:u32Kpmax <- [DW_OP_plus_uconst 20] [$sp+0]
	@DEBUG_VALUE: FMC_SetSPKey:u32Kemax <- [DW_OP_plus_uconst 16] [$sp+0]
	@DEBUG_VALUE: FMC_SetSPKey:i32LockSPROM <- [DW_OP_plus_uconst 48] [$sp+0]
	@DEBUG_VALUE: FMC_SetSPKey:lock_ctrl <- 0
	.loc	3 0 8                           @ ../../../Library/StdDriver/src/fmc.c:0:8
	adds	r5, r6, #6
.Ltmp264:
.LBB19_4:
	@DEBUG_VALUE: FMC_SetSPKey:au32Key <- [DW_OP_plus_uconst 8] [$sp+0]
	@DEBUG_VALUE: FMC_SetSPKey:i32LockCONFIG <- [DW_OP_plus_uconst 24] [$sp+0]
	@DEBUG_VALUE: FMC_SetSPKey:u32Kpmax <- [DW_OP_plus_uconst 20] [$sp+0]
	@DEBUG_VALUE: FMC_SetSPKey:u32Kemax <- [DW_OP_plus_uconst 16] [$sp+0]
	@DEBUG_VALUE: FMC_SetSPKey:i32LockSPROM <- [DW_OP_plus_uconst 48] [$sp+0]
	@DEBUG_VALUE: FMC_SetSPKey:lock_ctrl <- 0
	@DEBUG_VALUE: FMC_SetSPKey:ret <- $r5
	ldr	r0, __arm_cp.19_2
.Ltmp265:
	.loc	3 766 8 is_stmt 1               @ ../../../Library/StdDriver/src/fmc.c:766:8
	bl	FMC_Erase
.Ltmp266:
	.loc	3 766 8 is_stmt 0               @ ../../../Library/StdDriver/src/fmc.c:766:8
	cbz	r0, .LBB19_6
.Ltmp267:
@ %bb.5:
	@DEBUG_VALUE: FMC_SetSPKey:au32Key <- [DW_OP_plus_uconst 8] [$sp+0]
	@DEBUG_VALUE: FMC_SetSPKey:i32LockCONFIG <- [DW_OP_plus_uconst 24] [$sp+0]
	@DEBUG_VALUE: FMC_SetSPKey:ret <- $r5
	@DEBUG_VALUE: FMC_SetSPKey:u32Kpmax <- [DW_OP_plus_uconst 20] [$sp+0]
	@DEBUG_VALUE: FMC_SetSPKey:u32Kemax <- [DW_OP_plus_uconst 16] [$sp+0]
	@DEBUG_VALUE: FMC_SetSPKey:i32LockSPROM <- [DW_OP_plus_uconst 48] [$sp+0]
	@DEBUG_VALUE: FMC_SetSPKey:lock_ctrl <- 0
	.loc	3 0 8                           @ ../../../Library/StdDriver/src/fmc.c:0:8
	adds	r5, r6, #5
.Ltmp268:
.LBB19_6:
	@DEBUG_VALUE: FMC_SetSPKey:au32Key <- [DW_OP_plus_uconst 8] [$sp+0]
	@DEBUG_VALUE: FMC_SetSPKey:i32LockCONFIG <- [DW_OP_plus_uconst 24] [$sp+0]
	@DEBUG_VALUE: FMC_SetSPKey:u32Kpmax <- [DW_OP_plus_uconst 20] [$sp+0]
	@DEBUG_VALUE: FMC_SetSPKey:u32Kemax <- [DW_OP_plus_uconst 16] [$sp+0]
	@DEBUG_VALUE: FMC_SetSPKey:i32LockSPROM <- [DW_OP_plus_uconst 48] [$sp+0]
	@DEBUG_VALUE: FMC_SetSPKey:lock_ctrl <- 0
	@DEBUG_VALUE: FMC_SetSPKey:ret <- $r5
	str	r6, [sp, #12]                   @ 4-byte Spill
	ldr	r0, [sp, #24]                   @ 4-byte Reload
.Ltmp269:
	@DEBUG_VALUE: FMC_SetSPKey:i32LockCONFIG <- $r0
	.loc	3 771 9 is_stmt 1               @ ../../../Library/StdDriver/src/fmc.c:771:9
	rsbs	r6, r0, #0
	adcs	r6, r0
.Ltmp270:
	@DEBUG_VALUE: FMC_SetSPKey:lock_ctrl <- undef
	.loc	3 781 8                         @ ../../../Library/StdDriver/src/fmc.c:781:8
	cmp	r5, #0
	bne	.LBB19_20
.Ltmp271:
@ %bb.7:
	@DEBUG_VALUE: FMC_SetSPKey:au32Key <- [DW_OP_plus_uconst 8] [$sp+0]
	@DEBUG_VALUE: FMC_SetSPKey:ret <- $r5
	@DEBUG_VALUE: FMC_SetSPKey:i32LockCONFIG <- $r0
	@DEBUG_VALUE: FMC_SetSPKey:u32Kpmax <- [DW_OP_plus_uconst 20] [$sp+0]
	@DEBUG_VALUE: FMC_SetSPKey:u32Kemax <- [DW_OP_plus_uconst 16] [$sp+0]
	@DEBUG_VALUE: FMC_SetSPKey:i32LockSPROM <- [DW_OP_plus_uconst 48] [$sp+0]
	.loc	3 0 8 is_stmt 0                 @ ../../../Library/StdDriver/src/fmc.c:0:8
	ldr	r0, [sp, #48]
.Ltmp272:
	@DEBUG_VALUE: FMC_SetSPKey:i32LockCONFIG <- [DW_OP_LLVM_entry_value 1] $r3
	str	r0, [sp, #4]                    @ 4-byte Spill
	ldr	r5, [sp, #8]                    @ 4-byte Reload
.Ltmp273:
	@DEBUG_VALUE: FMC_SetSPKey:au32Key <- $r5
	.loc	3 783 35 is_stmt 1              @ ../../../Library/StdDriver/src/fmc.c:783:35
	ldr	r1, [r5]
	.loc	3 783 9 is_stmt 0               @ ../../../Library/StdDriver/src/fmc.c:783:9
	mov	r0, r4
	bl	FMC_Write
	.loc	3 784 43 is_stmt 1              @ ../../../Library/StdDriver/src/fmc.c:784:43
	ldr	r1, [r5, #4]
	.loc	3 784 9 is_stmt 0               @ ../../../Library/StdDriver/src/fmc.c:784:9
	adds	r0, r4, #4
	bl	FMC_Write
	.loc	3 785 43 is_stmt 1              @ ../../../Library/StdDriver/src/fmc.c:785:43
	ldr	r1, [r5, #8]
	.loc	3 785 9 is_stmt 0               @ ../../../Library/StdDriver/src/fmc.c:785:9
	mov	r0, r4
	adds	r0, #8
	bl	FMC_Write
	.loc	3 786 9 is_stmt 1               @ ../../../Library/StdDriver/src/fmc.c:786:9
	mov	r0, r4
	adds	r0, #12
	ldr	r1, [sp, #20]                   @ 4-byte Reload
	bl	FMC_Write
	.loc	3 787 9                         @ ../../../Library/StdDriver/src/fmc.c:787:9
	mov	r0, r4
	adds	r0, #16
	ldr	r1, [sp, #16]                   @ 4-byte Reload
	bl	FMC_Write
.Ltmp274:
	.loc	3 776 8                         @ ../../../Library/StdDriver/src/fmc.c:776:8
	ldr	r0, [sp, #4]                    @ 4-byte Reload
	cbnz	r0, .LBB19_9
.Ltmp275:
@ %bb.8:
	@DEBUG_VALUE: FMC_SetSPKey:au32Key <- $r5
	@DEBUG_VALUE: FMC_SetSPKey:u32Kpmax <- [DW_OP_plus_uconst 20] [$sp+0]
	@DEBUG_VALUE: FMC_SetSPKey:u32Kemax <- [DW_OP_plus_uconst 16] [$sp+0]
	@DEBUG_VALUE: FMC_SetSPKey:i32LockSPROM <- [DW_OP_plus_uconst 48] [$sp+0]
	@DEBUG_VALUE: FMC_SetSPKey:i32LockCONFIG <- [DW_OP_LLVM_entry_value 1] $r3
	.loc	3 0 8 is_stmt 0                 @ ../../../Library/StdDriver/src/fmc.c:0:8
	adds	r6, r6, #2
.Ltmp276:
.LBB19_9:
	@DEBUG_VALUE: FMC_SetSPKey:au32Key <- $r5
	@DEBUG_VALUE: FMC_SetSPKey:u32Kpmax <- [DW_OP_plus_uconst 20] [$sp+0]
	@DEBUG_VALUE: FMC_SetSPKey:u32Kemax <- [DW_OP_plus_uconst 16] [$sp+0]
	@DEBUG_VALUE: FMC_SetSPKey:i32LockSPROM <- [DW_OP_plus_uconst 48] [$sp+0]
	@DEBUG_VALUE: FMC_SetSPKey:i32LockCONFIG <- [DW_OP_LLVM_entry_value 1] $r3
	@DEBUG_VALUE: FMC_SetSPKey:lock_ctrl <- $r6
	.loc	3 788 9 is_stmt 1               @ ../../../Library/StdDriver/src/fmc.c:788:9
	adds	r4, #20
	mov	r0, r4
	mov	r1, r6
	bl	FMC_Write
.Ltmp277:
.LBB19_10:                              @ =>This Inner Loop Header: Depth=1
	@DEBUG_VALUE: FMC_SetSPKey:lock_ctrl <- $r6
	@DEBUG_VALUE: FMC_SetSPKey:au32Key <- $r5
	@DEBUG_VALUE: FMC_SetSPKey:u32Kpmax <- [DW_OP_plus_uconst 20] [$sp+0]
	@DEBUG_VALUE: FMC_SetSPKey:u32Kemax <- [DW_OP_plus_uconst 16] [$sp+0]
	@DEBUG_VALUE: FMC_SetSPKey:i32LockSPROM <- [DW_OP_plus_uconst 48] [$sp+0]
	@DEBUG_VALUE: FMC_SetSPKey:i32LockCONFIG <- [DW_OP_LLVM_entry_value 1] $r3
	.loc	3 790 20                        @ ../../../Library/StdDriver/src/fmc.c:790:20
	ldr	r0, [r7]
	.loc	3 790 9 is_stmt 0               @ ../../../Library/StdDriver/src/fmc.c:790:9
	lsls	r0, r0, #31
	bne	.LBB19_10
.Ltmp278:
@ %bb.11:
	@DEBUG_VALUE: FMC_SetSPKey:lock_ctrl <- $r6
	@DEBUG_VALUE: FMC_SetSPKey:au32Key <- $r5
	@DEBUG_VALUE: FMC_SetSPKey:u32Kpmax <- [DW_OP_plus_uconst 20] [$sp+0]
	@DEBUG_VALUE: FMC_SetSPKey:u32Kemax <- [DW_OP_plus_uconst 16] [$sp+0]
	@DEBUG_VALUE: FMC_SetSPKey:i32LockSPROM <- [DW_OP_plus_uconst 48] [$sp+0]
	@DEBUG_VALUE: FMC_SetSPKey:i32LockCONFIG <- [DW_OP_LLVM_entry_value 1] $r3
	.loc	3 792 26 is_stmt 1              @ ../../../Library/StdDriver/src/fmc.c:792:26
	ldr	r3, [r7]
.Ltmp279:
	@DEBUG_VALUE: FMC_SetSPKey:u32KeySts <- $r3
	.loc	3 794 12                        @ ../../../Library/StdDriver/src/fmc.c:794:12
	lsls	r1, r3, #30
	ldr	r0, [sp, #12]                   @ 4-byte Reload
	bmi	.LBB19_13
.Ltmp280:
@ %bb.12:
	@DEBUG_VALUE: FMC_SetSPKey:lock_ctrl <- $r6
	@DEBUG_VALUE: FMC_SetSPKey:au32Key <- $r5
	@DEBUG_VALUE: FMC_SetSPKey:u32KeySts <- $r3
	@DEBUG_VALUE: FMC_SetSPKey:u32Kpmax <- [DW_OP_plus_uconst 20] [$sp+0]
	@DEBUG_VALUE: FMC_SetSPKey:u32Kemax <- [DW_OP_plus_uconst 16] [$sp+0]
	@DEBUG_VALUE: FMC_SetSPKey:i32LockSPROM <- [DW_OP_plus_uconst 48] [$sp+0]
	@DEBUG_VALUE: FMC_SetSPKey:i32LockCONFIG <- [DW_OP_LLVM_entry_value 1] $r3
	.loc	3 0 12 is_stmt 0                @ ../../../Library/StdDriver/src/fmc.c:0:12
	adds	r5, r0, #4
.Ltmp281:
	@DEBUG_VALUE: FMC_SetSPKey:au32Key <- [DW_OP_LLVM_entry_value 1] $r0
	b	.LBB19_20
.Ltmp282:
.LBB19_13:
	@DEBUG_VALUE: FMC_SetSPKey:lock_ctrl <- $r6
	@DEBUG_VALUE: FMC_SetSPKey:au32Key <- $r5
	@DEBUG_VALUE: FMC_SetSPKey:u32KeySts <- $r3
	@DEBUG_VALUE: FMC_SetSPKey:u32Kpmax <- [DW_OP_plus_uconst 20] [$sp+0]
	@DEBUG_VALUE: FMC_SetSPKey:u32Kemax <- [DW_OP_plus_uconst 16] [$sp+0]
	@DEBUG_VALUE: FMC_SetSPKey:i32LockSPROM <- [DW_OP_plus_uconst 48] [$sp+0]
	@DEBUG_VALUE: FMC_SetSPKey:i32LockCONFIG <- [DW_OP_LLVM_entry_value 1] $r3
	ldr	r2, [sp, #24]                   @ 4-byte Reload
.Ltmp283:
	.loc	3 771 9 is_stmt 1               @ ../../../Library/StdDriver/src/fmc.c:771:9
	rsbs	r1, r2, #0
	adcs	r1, r2
	movs	r2, #32
	ands	r3, r2
.Ltmp284:
	.loc	3 0 9 is_stmt 0                 @ ../../../Library/StdDriver/src/fmc.c:0:9
	lsrs	r2, r3, #5
.Ltmp285:
	.loc	3 799 32 is_stmt 1              @ ../../../Library/StdDriver/src/fmc.c:799:32
	cmp	r1, r2
	beq	.LBB19_18
.Ltmp286:
@ %bb.14:
	@DEBUG_VALUE: FMC_SetSPKey:lock_ctrl <- $r6
	@DEBUG_VALUE: FMC_SetSPKey:au32Key <- $r5
	@DEBUG_VALUE: FMC_SetSPKey:u32Kpmax <- [DW_OP_plus_uconst 20] [$sp+0]
	@DEBUG_VALUE: FMC_SetSPKey:u32Kemax <- [DW_OP_plus_uconst 16] [$sp+0]
	@DEBUG_VALUE: FMC_SetSPKey:i32LockSPROM <- [DW_OP_plus_uconst 48] [$sp+0]
	@DEBUG_VALUE: FMC_SetSPKey:i32LockCONFIG <- [DW_OP_LLVM_entry_value 1] $r3
	.loc	3 805 24                        @ ../../../Library/StdDriver/src/fmc.c:805:24
	ldr	r1, [r7, #8]
	.loc	3 805 53 is_stmt 0              @ ../../../Library/StdDriver/src/fmc.c:805:53
	lsls	r1, r1, #20
	lsrs	r2, r1, #28
.Ltmp287:
	.loc	3 805 17                        @ ../../../Library/StdDriver/src/fmc.c:805:17
	ldr	r1, [sp, #20]                   @ 4-byte Reload
	cmp	r2, r1
	bne	.LBB19_19
.Ltmp288:
@ %bb.15:
	@DEBUG_VALUE: FMC_SetSPKey:lock_ctrl <- $r6
	@DEBUG_VALUE: FMC_SetSPKey:au32Key <- $r5
	@DEBUG_VALUE: FMC_SetSPKey:u32Kpmax <- [DW_OP_plus_uconst 20] [$sp+0]
	@DEBUG_VALUE: FMC_SetSPKey:u32Kemax <- [DW_OP_plus_uconst 16] [$sp+0]
	@DEBUG_VALUE: FMC_SetSPKey:i32LockSPROM <- [DW_OP_plus_uconst 48] [$sp+0]
	@DEBUG_VALUE: FMC_SetSPKey:i32LockCONFIG <- [DW_OP_LLVM_entry_value 1] $r3
	.loc	3 810 24 is_stmt 1              @ ../../../Library/StdDriver/src/fmc.c:810:24
	ldr	r1, [r7, #4]
	.loc	3 810 61 is_stmt 0              @ ../../../Library/StdDriver/src/fmc.c:810:61
	lsls	r1, r1, #18
	lsrs	r2, r1, #26
.Ltmp289:
	.loc	3 810 17                        @ ../../../Library/StdDriver/src/fmc.c:810:17
	ldr	r1, [sp, #16]                   @ 4-byte Reload
	cmp	r2, r1
	bne	.LBB19_17
.Ltmp290:
@ %bb.16:
	@DEBUG_VALUE: FMC_SetSPKey:lock_ctrl <- $r6
	@DEBUG_VALUE: FMC_SetSPKey:au32Key <- $r5
	@DEBUG_VALUE: FMC_SetSPKey:u32Kpmax <- [DW_OP_plus_uconst 20] [$sp+0]
	@DEBUG_VALUE: FMC_SetSPKey:u32Kemax <- [DW_OP_plus_uconst 16] [$sp+0]
	@DEBUG_VALUE: FMC_SetSPKey:i32LockSPROM <- [DW_OP_plus_uconst 48] [$sp+0]
	@DEBUG_VALUE: FMC_SetSPKey:i32LockCONFIG <- [DW_OP_LLVM_entry_value 1] $r3
	.loc	3 0 17                          @ ../../../Library/StdDriver/src/fmc.c:0:17
	movs	r0, #0
.Ltmp291:
.LBB19_17:
	@DEBUG_VALUE: FMC_SetSPKey:lock_ctrl <- $r6
	@DEBUG_VALUE: FMC_SetSPKey:au32Key <- $r5
	@DEBUG_VALUE: FMC_SetSPKey:u32Kpmax <- [DW_OP_plus_uconst 20] [$sp+0]
	@DEBUG_VALUE: FMC_SetSPKey:u32Kemax <- [DW_OP_plus_uconst 16] [$sp+0]
	@DEBUG_VALUE: FMC_SetSPKey:i32LockSPROM <- [DW_OP_plus_uconst 48] [$sp+0]
	@DEBUG_VALUE: FMC_SetSPKey:i32LockCONFIG <- [DW_OP_LLVM_entry_value 1] $r3
	.loc	3 810 17                        @ ../../../Library/StdDriver/src/fmc.c:810:17
	add	sp, #28
.Ltmp292:
	pop	{r4, r5, r6, r7, pc}
.Ltmp293:
.LBB19_18:
	@DEBUG_VALUE: FMC_SetSPKey:lock_ctrl <- $r6
	@DEBUG_VALUE: FMC_SetSPKey:au32Key <- $r5
	@DEBUG_VALUE: FMC_SetSPKey:u32Kpmax <- [DW_OP_plus_uconst 20] [$sp+0]
	@DEBUG_VALUE: FMC_SetSPKey:u32Kemax <- [DW_OP_plus_uconst 16] [$sp+0]
	@DEBUG_VALUE: FMC_SetSPKey:i32LockSPROM <- [DW_OP_plus_uconst 48] [$sp+0]
	@DEBUG_VALUE: FMC_SetSPKey:i32LockCONFIG <- [DW_OP_LLVM_entry_value 1] $r3
	.loc	3 0 17                          @ ../../../Library/StdDriver/src/fmc.c:0:17
	adds	r5, r0, #3
.Ltmp294:
	@DEBUG_VALUE: FMC_SetSPKey:au32Key <- [DW_OP_LLVM_entry_value 1] $r0
	b	.LBB19_20
.Ltmp295:
.LBB19_19:
	@DEBUG_VALUE: FMC_SetSPKey:lock_ctrl <- $r6
	@DEBUG_VALUE: FMC_SetSPKey:au32Key <- $r5
	@DEBUG_VALUE: FMC_SetSPKey:u32Kpmax <- [DW_OP_plus_uconst 20] [$sp+0]
	@DEBUG_VALUE: FMC_SetSPKey:u32Kemax <- [DW_OP_plus_uconst 16] [$sp+0]
	@DEBUG_VALUE: FMC_SetSPKey:i32LockSPROM <- [DW_OP_plus_uconst 48] [$sp+0]
	@DEBUG_VALUE: FMC_SetSPKey:i32LockCONFIG <- [DW_OP_LLVM_entry_value 1] $r3
	adds	r5, r0, #1
.Ltmp296:
	@DEBUG_VALUE: FMC_SetSPKey:au32Key <- [DW_OP_LLVM_entry_value 1] $r0
.LBB19_20:
	@DEBUG_VALUE: FMC_SetSPKey:u32Kpmax <- [DW_OP_plus_uconst 20] [$sp+0]
	@DEBUG_VALUE: FMC_SetSPKey:u32Kemax <- [DW_OP_plus_uconst 16] [$sp+0]
	@DEBUG_VALUE: FMC_SetSPKey:i32LockSPROM <- [DW_OP_plus_uconst 48] [$sp+0]
	@DEBUG_VALUE: FMC_SetSPKey:ret <- $r5
	.loc	3 816 5 is_stmt 1               @ ../../../Library/StdDriver/src/fmc.c:816:5
	mov	r0, r5
	add	sp, #28
.Ltmp297:
	pop	{r4, r5, r6, r7, pc}
.Ltmp298:
	.p2align	2
@ %bb.21:
	.loc	3 0 5 is_stmt 0                 @ ../../../Library/StdDriver/src/fmc.c:0:5
__arm_cp.19_0:
	.long	1073791072                      @ 0x4000c060
.Lcpi_end26:
	.size	__arm_cp.19_0, .Lcpi_end26-__arm_cp.19_0
__arm_cp.19_1:
	.long	3215360                         @ 0x311000
.Lcpi_end27:
	.size	__arm_cp.19_1, .Lcpi_end27-__arm_cp.19_1
__arm_cp.19_2:
	.long	3215872                         @ 0x311200
.Lcpi_end28:
	.size	__arm_cp.19_2, .Lcpi_end28-__arm_cp.19_2
.Lfunc_end19:
	.size	FMC_SetSPKey, .Lfunc_end19-FMC_SetSPKey
	.cfi_endproc
	.cantunwind
	.fnend
                                        @ -- End function
	.section	.text.FMC_Write,"ax",%progbits
	.hidden	FMC_Write                       @ -- Begin function FMC_Write
	.globl	FMC_Write
	.p2align	2
	.type	FMC_Write,%function
	.code	16                              @ @FMC_Write
	.thumb_func
FMC_Write:
.Lfunc_begin20:
	.loc	3 831 0 is_stmt 1               @ ../../../Library/StdDriver/src/fmc.c:831:0
	.fnstart
	.cfi_startproc
@ %bb.0:
	@DEBUG_VALUE: FMC_Write:u32Addr <- $r0
	@DEBUG_VALUE: FMC_Write:u32Data <- $r1
	.save	{r4, lr}
	push	{r4, lr}
	.cfi_def_cfa_offset 8
	.cfi_offset lr, -4
	.cfi_offset r4, -8
	ldr	r2, __arm_cp.20_0
	@DEBUG_VALUE: FMC_Write:u32Data <- $r1
	@DEBUG_VALUE: FMC_Write:u32Addr <- $r0
.Ltmp299:
	.loc	3 832 17 prologue_end           @ ../../../Library/StdDriver/src/fmc.c:832:17
	subs	r3, r2, #4
	movs	r4, #33
	str	r4, [r3]
	.loc	3 833 18                        @ ../../../Library/StdDriver/src/fmc.c:833:18
	mov	r3, r2
	subs	r3, #12
	str	r0, [r3]
	.loc	3 834 17                        @ ../../../Library/StdDriver/src/fmc.c:834:17
	mov	r0, r2
.Ltmp300:
	@DEBUG_VALUE: FMC_Write:u32Addr <- [DW_OP_LLVM_entry_value 1] $r0
	subs	r0, #8
	str	r1, [r0]
	movs	r0, #1
	.loc	3 835 17                        @ ../../../Library/StdDriver/src/fmc.c:835:17
	str	r0, [r2]
.Ltmp301:
.LBB20_1:                               @ =>This Inner Loop Header: Depth=1
	@DEBUG_VALUE: FMC_Write:u32Data <- $r1
	@DEBUG_VALUE: FMC_Write:u32Addr <- [DW_OP_LLVM_entry_value 1] $r0
	.loc	3 836 16                        @ ../../../Library/StdDriver/src/fmc.c:836:16
	ldr	r0, [r2]
	.loc	3 836 5 is_stmt 0               @ ../../../Library/StdDriver/src/fmc.c:836:5
	lsls	r0, r0, #31
	bne	.LBB20_1
.Ltmp302:
@ %bb.2:
	@DEBUG_VALUE: FMC_Write:u32Data <- $r1
	@DEBUG_VALUE: FMC_Write:u32Addr <- [DW_OP_LLVM_entry_value 1] $r0
	.loc	3 837 1 is_stmt 1               @ ../../../Library/StdDriver/src/fmc.c:837:1
	pop	{r4, pc}
.Ltmp303:
	.p2align	2
@ %bb.3:
	.loc	3 0 1 is_stmt 0                 @ ../../../Library/StdDriver/src/fmc.c:0:1
__arm_cp.20_0:
	.long	1073790992                      @ 0x4000c010
.Lcpi_end29:
	.size	__arm_cp.20_0, .Lcpi_end29-__arm_cp.20_0
.Lfunc_end20:
	.size	FMC_Write, .Lfunc_end20-FMC_Write
	.cfi_endproc
	.cantunwind
	.fnend
                                        @ -- End function
	.section	.text.FMC_Write8Bytes,"ax",%progbits
	.hidden	FMC_Write8Bytes                 @ -- Begin function FMC_Write8Bytes
	.globl	FMC_Write8Bytes
	.p2align	2
	.type	FMC_Write8Bytes,%function
	.code	16                              @ @FMC_Write8Bytes
	.thumb_func
FMC_Write8Bytes:
.Lfunc_begin21:
	.loc	3 853 0 is_stmt 1               @ ../../../Library/StdDriver/src/fmc.c:853:0
	.fnstart
	.cfi_startproc
@ %bb.0:
	@DEBUG_VALUE: FMC_Write8Bytes:u32addr <- $r0
	@DEBUG_VALUE: FMC_Write8Bytes:u32data0 <- $r1
	@DEBUG_VALUE: FMC_Write8Bytes:u32data1 <- $r2
	.save	{r4, r5, r7, lr}
	push	{r4, r5, r7, lr}
	.cfi_def_cfa_offset 16
	.cfi_offset lr, -4
	.cfi_offset r7, -8
	.cfi_offset r5, -12
	.cfi_offset r4, -16
	ldr	r3, __arm_cp.21_0
.Ltmp304:
	@DEBUG_VALUE: FMC_Write8Bytes:ret <- 0
	@DEBUG_VALUE: FMC_Write8Bytes:u32data1 <- $r2
	@DEBUG_VALUE: FMC_Write8Bytes:u32data0 <- $r1
	@DEBUG_VALUE: FMC_Write8Bytes:u32addr <- $r0
	.loc	3 856 18 prologue_end           @ ../../../Library/StdDriver/src/fmc.c:856:18
	mov	r4, r3
	subs	r4, #52
	movs	r5, #97
	str	r5, [r4]
	.loc	3 857 18                        @ ../../../Library/StdDriver/src/fmc.c:857:18
	mov	r4, r3
	subs	r4, #60
	str	r0, [r4]
	.loc	3 858 18                        @ ../../../Library/StdDriver/src/fmc.c:858:18
	str	r1, [r3, #64]
	ldr	r0, __arm_cp.21_1
.Ltmp305:
	@DEBUG_VALUE: FMC_Write8Bytes:u32addr <- [DW_OP_LLVM_entry_value 1] $r0
	.loc	3 859 18                        @ ../../../Library/StdDriver/src/fmc.c:859:18
	str	r2, [r0]
	.loc	3 860 18                        @ ../../../Library/StdDriver/src/fmc.c:860:18
	mov	r0, r3
	subs	r0, #48
	movs	r1, #1
.Ltmp306:
	@DEBUG_VALUE: FMC_Write8Bytes:u32data0 <- [DW_OP_LLVM_entry_value 1] $r1
	str	r1, [r0]
.Ltmp307:
.LBB21_1:                               @ =>This Inner Loop Header: Depth=1
	@DEBUG_VALUE: FMC_Write8Bytes:u32data1 <- $r2
	@DEBUG_VALUE: FMC_Write8Bytes:u32data0 <- [DW_OP_LLVM_entry_value 1] $r1
	@DEBUG_VALUE: FMC_Write8Bytes:u32addr <- [DW_OP_LLVM_entry_value 1] $r0
	@DEBUG_VALUE: FMC_Write8Bytes:ret <- 0
	.loc	3 862 16                        @ ../../../Library/StdDriver/src/fmc.c:862:16
	ldr	r0, [r3]
	.loc	3 862 5 is_stmt 0               @ ../../../Library/StdDriver/src/fmc.c:862:5
	lsls	r0, r0, #31
	bne	.LBB21_1
.Ltmp308:
@ %bb.2:
	@DEBUG_VALUE: FMC_Write8Bytes:u32data1 <- $r2
	@DEBUG_VALUE: FMC_Write8Bytes:u32data0 <- [DW_OP_LLVM_entry_value 1] $r1
	@DEBUG_VALUE: FMC_Write8Bytes:u32addr <- [DW_OP_LLVM_entry_value 1] $r0
	@DEBUG_VALUE: FMC_Write8Bytes:ret <- 0
	.loc	3 864 13 is_stmt 1              @ ../../../Library/StdDriver/src/fmc.c:864:13
	ldr	r0, [r3]
.Ltmp309:
	.loc	3 864 8 is_stmt 0               @ ../../../Library/StdDriver/src/fmc.c:864:8
	lsls	r0, r0, #25
	bmi	.LBB21_4
.Ltmp310:
@ %bb.3:
	@DEBUG_VALUE: FMC_Write8Bytes:u32data1 <- $r2
	@DEBUG_VALUE: FMC_Write8Bytes:u32data0 <- [DW_OP_LLVM_entry_value 1] $r1
	@DEBUG_VALUE: FMC_Write8Bytes:u32addr <- [DW_OP_LLVM_entry_value 1] $r0
	@DEBUG_VALUE: FMC_Write8Bytes:ret <- 0
	.loc	3 0 8                           @ ../../../Library/StdDriver/src/fmc.c:0:8
	movs	r0, #0
.Ltmp311:
	@DEBUG_VALUE: FMC_Write8Bytes:ret <- $r0
	.loc	3 869 5 is_stmt 1               @ ../../../Library/StdDriver/src/fmc.c:869:5
	pop	{r4, r5, r7, pc}
.Ltmp312:
.LBB21_4:
	@DEBUG_VALUE: FMC_Write8Bytes:u32data1 <- $r2
	@DEBUG_VALUE: FMC_Write8Bytes:u32data0 <- [DW_OP_LLVM_entry_value 1] $r1
	@DEBUG_VALUE: FMC_Write8Bytes:u32addr <- [DW_OP_LLVM_entry_value 1] $r0
	@DEBUG_VALUE: FMC_Write8Bytes:ret <- 0
	.loc	3 866 21                        @ ../../../Library/StdDriver/src/fmc.c:866:21
	ldr	r0, [r3]
	movs	r1, #64
	orrs	r1, r0
	str	r1, [r3]
	movs	r0, #0
	mvns	r0, r0
.Ltmp313:
	@DEBUG_VALUE: FMC_Write8Bytes:ret <- -1
	@DEBUG_VALUE: FMC_Write8Bytes:ret <- $r0
	.loc	3 869 5                         @ ../../../Library/StdDriver/src/fmc.c:869:5
	pop	{r4, r5, r7, pc}
.Ltmp314:
	.p2align	2
@ %bb.5:
	.loc	3 0 5 is_stmt 0                 @ ../../../Library/StdDriver/src/fmc.c:0:5
__arm_cp.21_0:
	.long	1073791040                      @ 0x4000c040
.Lcpi_end30:
	.size	__arm_cp.21_0, .Lcpi_end30-__arm_cp.21_0
__arm_cp.21_1:
	.long	1073791108                      @ 0x4000c084
.Lcpi_end31:
	.size	__arm_cp.21_1, .Lcpi_end31-__arm_cp.21_1
.Lfunc_end21:
	.size	FMC_Write8Bytes, .Lfunc_end21-FMC_Write8Bytes
	.cfi_endproc
	.cantunwind
	.fnend
                                        @ -- End function
	.section	.text.FMC_WriteConfig,"ax",%progbits
	.hidden	FMC_WriteConfig                 @ -- Begin function FMC_WriteConfig
	.globl	FMC_WriteConfig
	.p2align	2
	.type	FMC_WriteConfig,%function
	.code	16                              @ @FMC_WriteConfig
	.thumb_func
FMC_WriteConfig:
.Lfunc_begin22:
	.loc	3 887 0 is_stmt 1               @ ../../../Library/StdDriver/src/fmc.c:887:0
	.fnstart
	.cfi_startproc
@ %bb.0:
	@DEBUG_VALUE: FMC_WriteConfig:au32Config <- $r0
	@DEBUG_VALUE: FMC_WriteConfig:u32Count <- $r1
	.save	{r4, r5, r6, r7, lr}
	push	{r4, r5, r6, r7, lr}
	.cfi_def_cfa_offset 20
	.cfi_offset lr, -4
	.cfi_offset r7, -8
	.cfi_offset r6, -12
	.cfi_offset r5, -16
	.cfi_offset r4, -20
	.pad	#12
	sub	sp, #12
	.cfi_def_cfa_offset 32
	mov	r4, r1
	mov	r5, r0
	ldr	r1, __arm_cp.22_0
.Ltmp315:
	@DEBUG_VALUE: FMC_WriteConfig:u32Count <- [DW_OP_LLVM_entry_value 1] $r1
	@DEBUG_VALUE: FMC_WriteConfig:ret <- 0
	@DEBUG_VALUE: FMC_WriteConfig:u32Count <- $r4
	@DEBUG_VALUE: FMC_WriteConfig:au32Config <- $r5
	.loc	3 891 5 prologue_end            @ ../../../Library/StdDriver/src/fmc.c:891:5
	ldr	r0, [r1]
	movs	r2, #16
	str	r2, [sp, #4]                    @ 4-byte Spill
	orrs	r0, r2
	str	r0, [r1]
.Ltmp316:
	@DEBUG_VALUE: FMC_WriteConfig:i <- 0
	.loc	3 892 5                         @ ../../../Library/StdDriver/src/fmc.c:892:5
	cbz	r4, .LBB22_5
.Ltmp317:
@ %bb.1:
	@DEBUG_VALUE: FMC_WriteConfig:au32Config <- $r5
	@DEBUG_VALUE: FMC_WriteConfig:u32Count <- $r4
	@DEBUG_VALUE: FMC_WriteConfig:i <- 0
	@DEBUG_VALUE: FMC_WriteConfig:ret <- 0
	.loc	3 0 5 is_stmt 0                 @ ../../../Library/StdDriver/src/fmc.c:0:5
	movs	r0, #3
	lsls	r7, r0, #20
	movs	r6, #0
	mvns	r0, r6
	str	r0, [sp, #8]                    @ 4-byte Spill
	b	.LBB22_3
.Ltmp318:
.LBB22_2:                               @   in Loop: Header=BB22_3 Depth=1
	@DEBUG_VALUE: FMC_WriteConfig:ret <- $r6
	.loc	3 892 19                        @ ../../../Library/StdDriver/src/fmc.c:892:19
	adds	r7, r7, #4
.Ltmp319:
	@DEBUG_VALUE: FMC_WriteConfig:i <- [DW_OP_plus_uconst 1, DW_OP_stack_value] undef
	subs	r4, r4, #1
.Ltmp320:
	.loc	3 892 5                         @ ../../../Library/StdDriver/src/fmc.c:892:5
	beq	.LBB22_6
.Ltmp321:
.LBB22_3:                               @ =>This Inner Loop Header: Depth=1
	@DEBUG_VALUE: FMC_WriteConfig:ret <- $r6
	@DEBUG_VALUE: FMC_WriteConfig:i <- undef
	.loc	3 894 45 is_stmt 1              @ ../../../Library/StdDriver/src/fmc.c:894:45
	ldr	r1, [r5]
	.loc	3 894 9 is_stmt 0               @ ../../../Library/StdDriver/src/fmc.c:894:9
	mov	r0, r7
	bl	FMC_Write
.Ltmp322:
	.loc	3 895 12 is_stmt 1              @ ../../../Library/StdDriver/src/fmc.c:895:12
	mov	r0, r7
	bl	FMC_Read
	.loc	3 895 50 is_stmt 0              @ ../../../Library/StdDriver/src/fmc.c:895:50
	ldm	r5!, {r1}
.Ltmp323:
	.loc	3 895 12                        @ ../../../Library/StdDriver/src/fmc.c:895:12
	cmp	r0, r1
	beq	.LBB22_2
.Ltmp324:
@ %bb.4:                                @   in Loop: Header=BB22_3 Depth=1
	@DEBUG_VALUE: FMC_WriteConfig:ret <- $r6
	ldr	r6, [sp, #8]                    @ 4-byte Reload
.Ltmp325:
	.loc	3 0 12                          @ ../../../Library/StdDriver/src/fmc.c:0:12
	b	.LBB22_2
.Ltmp326:
.LBB22_5:
	@DEBUG_VALUE: FMC_WriteConfig:au32Config <- $r5
	@DEBUG_VALUE: FMC_WriteConfig:u32Count <- $r4
	@DEBUG_VALUE: FMC_WriteConfig:i <- 0
	@DEBUG_VALUE: FMC_WriteConfig:ret <- 0
	movs	r6, #0
.Ltmp327:
.LBB22_6:
	@DEBUG_VALUE: FMC_WriteConfig:ret <- $r6
	ldr	r1, __arm_cp.22_0
	.loc	3 900 5 is_stmt 1               @ ../../../Library/StdDriver/src/fmc.c:900:5
	ldr	r0, [r1]
	ldr	r2, [sp, #4]                    @ 4-byte Reload
	bics	r0, r2
	str	r0, [r1]
	.loc	3 901 5                         @ ../../../Library/StdDriver/src/fmc.c:901:5
	mov	r0, r6
	add	sp, #12
	pop	{r4, r5, r6, r7, pc}
.Ltmp328:
	.p2align	2
@ %bb.7:
	.loc	3 0 5 is_stmt 0                 @ ../../../Library/StdDriver/src/fmc.c:0:5
__arm_cp.22_0:
	.long	1073790976                      @ 0x4000c000
.Lcpi_end32:
	.size	__arm_cp.22_0, .Lcpi_end32-__arm_cp.22_0
.Lfunc_end22:
	.size	FMC_WriteConfig, .Lfunc_end22-FMC_WriteConfig
	.cfi_endproc
	.cantunwind
	.fnend
                                        @ -- End function
	.section	.text.FMC_WriteMultiple,"ax",%progbits
	.hidden	FMC_WriteMultiple               @ -- Begin function FMC_WriteMultiple
	.globl	FMC_WriteMultiple
	.p2align	2
	.type	FMC_WriteMultiple,%function
	.code	16                              @ @FMC_WriteMultiple
	.thumb_func
FMC_WriteMultiple:
.Lfunc_begin23:
	.loc	3 919 0 is_stmt 1               @ ../../../Library/StdDriver/src/fmc.c:919:0
	.fnstart
	.cfi_startproc
@ %bb.0:
	@DEBUG_VALUE: FMC_WriteMultiple:u32Addr <- $r0
	@DEBUG_VALUE: FMC_WriteMultiple:pu32Buf <- $r1
	@DEBUG_VALUE: FMC_WriteMultiple:u32Len <- $r2
	.save	{r4, r5, r6, r7, lr}
	push	{r4, r5, r6, r7, lr}
	.cfi_def_cfa_offset 20
	.cfi_offset lr, -4
	.cfi_offset r7, -8
	.cfi_offset r6, -12
	.cfi_offset r5, -16
	.cfi_offset r4, -20
	.pad	#44
	sub	sp, #44
	.cfi_def_cfa_offset 64
	movs	r4, #0
	mvns	r2, r4
.Ltmp329:
	@DEBUG_VALUE: FMC_WriteMultiple:u32Len <- [DW_OP_LLVM_entry_value 1] $r2
	ldr	r3, __arm_cp.23_0
.Ltmp330:
	@DEBUG_VALUE: FMC_WriteMultiple:retval <- 0
	@DEBUG_VALUE: FMC_WriteMultiple:pu32Buf <- $r1
	@DEBUG_VALUE: FMC_WriteMultiple:u32Addr <- $r0
	.loc	3 924 35 prologue_end           @ ../../../Library/StdDriver/src/fmc.c:924:35
	tst	r0, r3
	beq	.LBB23_2
.Ltmp331:
@ %bb.1:
	@DEBUG_VALUE: FMC_WriteMultiple:pu32Buf <- $r1
	@DEBUG_VALUE: FMC_WriteMultiple:u32Addr <- $r0
	@DEBUG_VALUE: FMC_WriteMultiple:retval <- 0
	@DEBUG_VALUE: FMC_WriteMultiple:u32Len <- [DW_OP_LLVM_entry_value 1] $r2
	.loc	3 0 0 is_stmt 0                 @ ../../../Library/StdDriver/src/fmc.c:0:0
	str	r2, [sp, #24]                   @ 4-byte Spill
	b	.LBB23_29
.Ltmp332:
.LBB23_2:
	@DEBUG_VALUE: FMC_WriteMultiple:pu32Buf <- $r1
	@DEBUG_VALUE: FMC_WriteMultiple:u32Addr <- $r0
	@DEBUG_VALUE: FMC_WriteMultiple:retval <- 0
	@DEBUG_VALUE: FMC_WriteMultiple:u32Len <- [DW_OP_LLVM_entry_value 1] $r2
	@DEBUG_VALUE: FMC_WriteMultiple:idx <- 0
	str	r1, [sp, #16]                   @ 4-byte Spill
.Ltmp333:
	@DEBUG_VALUE: FMC_WriteMultiple:pu32Buf <- [DW_OP_plus_uconst 16] [$sp+0]
	ldr	r5, __arm_cp.23_1
	movs	r1, #39
	.loc	3 930 17 is_stmt 1              @ ../../../Library/StdDriver/src/fmc.c:930:17
	str	r1, [r5, #8]
	.loc	3 931 18                        @ ../../../Library/StdDriver/src/fmc.c:931:18
	str	r0, [r5]
	movs	r1, #16
	str	r1, [sp, #24]                   @ 4-byte Spill
	movs	r1, #1
	str	r1, [sp, #28]                   @ 4-byte Spill
	ldr	r7, __arm_cp.23_2
.Ltmp334:
	@DEBUG_VALUE: FMC_WriteMultiple:retval <- 16
	.loc	3 0 18 is_stmt 0                @ ../../../Library/StdDriver/src/fmc.c:0:18
	mov	r1, r7
	subs	r1, #60
	str	r1, [sp, #12]                   @ 4-byte Spill
	mov	r1, r7
	subs	r1, #56
	str	r1, [sp, #8]                    @ 4-byte Spill
	str	r4, [sp]                        @ 4-byte Spill
.Ltmp335:
.LBB23_3:                               @ =>This Loop Header: Depth=1
                                        @     Child Loop BB23_8 Depth 2
                                        @       Child Loop BB23_9 Depth 3
                                        @       Child Loop BB23_16 Depth 3
                                        @     Child Loop BB23_27 Depth 2
	@DEBUG_VALUE: FMC_WriteMultiple:u32Addr <- $r0
	@DEBUG_VALUE: FMC_WriteMultiple:u32Len <- [DW_OP_LLVM_entry_value 1] $r2
	@DEBUG_VALUE: FMC_WriteMultiple:retval <- [DW_OP_plus_uconst 24] [$sp+0]
	@DEBUG_VALUE: FMC_WriteMultiple:idx <- $r4
	@DEBUG_VALUE: FMC_WriteMultiple:err <- 0
	@DEBUG_VALUE: FMC_WriteMultiple:u32OnProg <- 1
	.loc	3 937 23 is_stmt 1              @ ../../../Library/StdDriver/src/fmc.c:937:23
	lsls	r1, r4, #2
	ldr	r6, [sp, #16]                   @ 4-byte Reload
.Ltmp336:
	@DEBUG_VALUE: FMC_WriteMultiple:pu32Buf <- $r6
	ldr	r3, [r6, r1]
	.loc	3 937 21 is_stmt 0              @ ../../../Library/StdDriver/src/fmc.c:937:21
	str	r3, [r5, #124]
	.loc	3 937 23                        @ ../../../Library/StdDriver/src/fmc.c:937:23
	adds	r1, r6, r1
	.loc	3 938 23 is_stmt 1              @ ../../../Library/StdDriver/src/fmc.c:938:23
	ldr	r3, [r1, #4]
	.loc	3 938 21 is_stmt 0              @ ../../../Library/StdDriver/src/fmc.c:938:21
	ldr	r6, [sp, #12]                   @ 4-byte Reload
.Ltmp337:
	@DEBUG_VALUE: FMC_WriteMultiple:pu32Buf <- [DW_OP_LLVM_entry_value 1] $r1
	str	r3, [r6]
	.loc	3 939 23 is_stmt 1              @ ../../../Library/StdDriver/src/fmc.c:939:23
	ldr	r3, [r1, #8]
	.loc	3 939 21 is_stmt 0              @ ../../../Library/StdDriver/src/fmc.c:939:21
	ldr	r6, [sp, #8]                    @ 4-byte Reload
	str	r3, [r6]
	.loc	3 940 23 is_stmt 1              @ ../../../Library/StdDriver/src/fmc.c:940:23
	ldr	r1, [r1, #12]
	.loc	3 940 21 is_stmt 0              @ ../../../Library/StdDriver/src/fmc.c:940:21
	mov	r3, r7
	subs	r3, #52
	str	r3, [sp, #4]                    @ 4-byte Spill
	str	r1, [r3]
	movs	r1, #1
	.loc	3 941 21 is_stmt 1              @ ../../../Library/StdDriver/src/fmc.c:941:21
	str	r1, [r5, #12]
	.loc	3 942 13                        @ ../../../Library/StdDriver/src/fmc.c:942:13
	adds	r4, r4, #4
.Ltmp338:
	@DEBUG_VALUE: FMC_WriteMultiple:i <- $r4
	@DEBUG_VALUE: FMC_WriteMultiple:idx <- $r4
	.loc	3 944 24                        @ ../../../Library/StdDriver/src/fmc.c:944:24
	cmp	r4, #128
	blo	.LBB23_5
.Ltmp339:
@ %bb.4:                                @   in Loop: Header=BB23_3 Depth=1
	@DEBUG_VALUE: FMC_WriteMultiple:i <- $r4
	@DEBUG_VALUE: FMC_WriteMultiple:idx <- $r4
	@DEBUG_VALUE: FMC_WriteMultiple:u32Addr <- $r0
	@DEBUG_VALUE: FMC_WriteMultiple:retval <- [DW_OP_plus_uconst 24] [$sp+0]
	@DEBUG_VALUE: FMC_WriteMultiple:u32OnProg <- 1
	@DEBUG_VALUE: FMC_WriteMultiple:err <- 0
	@DEBUG_VALUE: FMC_WriteMultiple:u32Len <- [DW_OP_LLVM_entry_value 1] $r2
	ldr	r1, [sp]                        @ 4-byte Reload
.Ltmp340:
.LBB23_5:                               @   in Loop: Header=BB23_3 Depth=1
	@DEBUG_VALUE: FMC_WriteMultiple:i <- $r4
	@DEBUG_VALUE: FMC_WriteMultiple:idx <- $r4
	@DEBUG_VALUE: FMC_WriteMultiple:u32Addr <- $r0
	@DEBUG_VALUE: FMC_WriteMultiple:retval <- [DW_OP_plus_uconst 24] [$sp+0]
	@DEBUG_VALUE: FMC_WriteMultiple:u32OnProg <- 1
	@DEBUG_VALUE: FMC_WriteMultiple:err <- 0
	@DEBUG_VALUE: FMC_WriteMultiple:u32Len <- [DW_OP_LLVM_entry_value 1] $r2
	.loc	3 944 9 is_stmt 0               @ ../../../Library/StdDriver/src/fmc.c:944:9
	cmp	r4, #127
	mov	r3, r4
	bls	.LBB23_8
.Ltmp341:
.LBB23_6:                               @   in Loop: Header=BB23_3 Depth=1
	@DEBUG_VALUE: FMC_WriteMultiple:idx <- $r4
	@DEBUG_VALUE: FMC_WriteMultiple:u32Addr <- $r0
	@DEBUG_VALUE: FMC_WriteMultiple:retval <- [DW_OP_plus_uconst 24] [$sp+0]
	@DEBUG_VALUE: FMC_WriteMultiple:u32OnProg <- 1
	@DEBUG_VALUE: FMC_WriteMultiple:err <- 0
	@DEBUG_VALUE: FMC_WriteMultiple:u32Len <- [DW_OP_LLVM_entry_value 1] $r2
	@DEBUG_VALUE: FMC_WriteMultiple:retval <- [DW_OP_plus_uconst 24] [$sp+0]
	@DEBUG_VALUE: FMC_WriteMultiple:idx <- $r4
	@DEBUG_VALUE: FMC_WriteMultiple:err <- undef
	.loc	3 995 12 is_stmt 1              @ ../../../Library/StdDriver/src/fmc.c:995:12
	lsls	r1, r1, #31
	bne	.LBB23_3
	b	.LBB23_27
.Ltmp342:
.LBB23_7:                               @   in Loop: Header=BB23_8 Depth=2
	@DEBUG_VALUE: FMC_WriteMultiple:idx <- $r4
	@DEBUG_VALUE: FMC_WriteMultiple:i <- $r3
	@DEBUG_VALUE: FMC_WriteMultiple:u32Addr <- $r0
	@DEBUG_VALUE: FMC_WriteMultiple:retval <- [DW_OP_plus_uconst 24] [$sp+0]
	@DEBUG_VALUE: FMC_WriteMultiple:u32OnProg <- 1
	@DEBUG_VALUE: FMC_WriteMultiple:err <- 0
	@DEBUG_VALUE: FMC_WriteMultiple:u32Len <- [DW_OP_LLVM_entry_value 1] $r2
	.loc	3 944 9                         @ ../../../Library/StdDriver/src/fmc.c:944:9
	cmp	r3, #127
	bhi	.LBB23_6
.Ltmp343:
.LBB23_8:                               @   Parent Loop BB23_3 Depth=1
                                        @ =>  This Loop Header: Depth=2
                                        @       Child Loop BB23_9 Depth 3
                                        @       Child Loop BB23_16 Depth 3
	@DEBUG_VALUE: FMC_WriteMultiple:idx <- $r4
	@DEBUG_VALUE: FMC_WriteMultiple:u32Addr <- $r0
	@DEBUG_VALUE: FMC_WriteMultiple:retval <- [DW_OP_plus_uconst 24] [$sp+0]
	@DEBUG_VALUE: FMC_WriteMultiple:u32OnProg <- 1
	@DEBUG_VALUE: FMC_WriteMultiple:err <- 0
	@DEBUG_VALUE: FMC_WriteMultiple:u32Len <- [DW_OP_LLVM_entry_value 1] $r2
	.loc	3 0 9 is_stmt 0                 @ ../../../Library/StdDriver/src/fmc.c:0:9
	str	r3, [sp, #40]                   @ 4-byte Spill
	str	r1, [sp, #32]                   @ 4-byte Spill
.Ltmp344:
	@DEBUG_VALUE: FMC_WriteMultiple:i <- [DW_OP_plus_uconst 40] [$sp+0]
	@DEBUG_VALUE: FMC_WriteMultiple:idx <- $r4
	@DEBUG_VALUE: FMC_WriteMultiple:retval <- [DW_OP_plus_uconst 24] [$sp+0]
	movs	r1, #1
	str	r1, [sp, #36]                   @ 4-byte Spill
.Ltmp345:
	@DEBUG_VALUE: __set_PRIMASK:priMask <- 1
	.file	4 "C:\\Users\\shw26\\OneDrive\\Desktop\\2021\\2021-1\\\354\272\241\354\212\244\355\206\244\353\224\224\354\236\220\354\235\2702\\Nuvoton\\M2351_BSP_v3.00.004\\M2351Series_BSP_CMSIS_V3.00.004\\MyProject\\PulseMonitoring\\Secure" "../../../Library/CMSIS/Include/cmsis_armclang.h"
	.loc	4 400 3 is_stmt 1               @ ../../../Library/CMSIS/Include/cmsis_armclang.h:400:3
	@APP
	msr	primask, r1
	@NO_APP
	movs	r1, #0
.Ltmp346:
.LBB23_9:                               @   Parent Loop BB23_3 Depth=1
                                        @     Parent Loop BB23_8 Depth=2
                                        @ =>    This Inner Loop Header: Depth=3
	@DEBUG_VALUE: FMC_WriteMultiple:idx <- $r4
	@DEBUG_VALUE: FMC_WriteMultiple:u32Addr <- $r0
	@DEBUG_VALUE: FMC_WriteMultiple:i <- [DW_OP_plus_uconst 40] [$sp+0]
	@DEBUG_VALUE: FMC_WriteMultiple:retval <- [DW_OP_plus_uconst 24] [$sp+0]
	@DEBUG_VALUE: FMC_WriteMultiple:u32OnProg <- 1
	@DEBUG_VALUE: FMC_WriteMultiple:u32Len <- [DW_OP_LLVM_entry_value 1] $r2
	@DEBUG_VALUE: FMC_WriteMultiple:idx <- $r4
	@DEBUG_VALUE: FMC_WriteMultiple:err <- $r1
	.loc	3 949 26                        @ ../../../Library/StdDriver/src/fmc.c:949:26
	ldr	r3, [r7]
.Ltmp347:
	.loc	3 949 20 is_stmt 0              @ ../../../Library/StdDriver/src/fmc.c:949:20
	lsls	r3, r3, #31
	bne	.LBB23_11
.Ltmp348:
@ %bb.10:                               @   in Loop: Header=BB23_9 Depth=3
	@DEBUG_VALUE: FMC_WriteMultiple:idx <- $r4
	@DEBUG_VALUE: FMC_WriteMultiple:err <- $r1
	@DEBUG_VALUE: FMC_WriteMultiple:u32Addr <- $r0
	@DEBUG_VALUE: FMC_WriteMultiple:i <- [DW_OP_plus_uconst 40] [$sp+0]
	@DEBUG_VALUE: FMC_WriteMultiple:retval <- [DW_OP_plus_uconst 24] [$sp+0]
	@DEBUG_VALUE: FMC_WriteMultiple:u32OnProg <- 1
	@DEBUG_VALUE: FMC_WriteMultiple:u32Len <- [DW_OP_LLVM_entry_value 1] $r2
	.loc	3 0 20                          @ ../../../Library/StdDriver/src/fmc.c:0:20
	movs	r1, #0
.Ltmp349:
	@DEBUG_VALUE: __set_PRIMASK:priMask <- 0
	.loc	4 400 3 is_stmt 1               @ ../../../Library/CMSIS/Include/cmsis_armclang.h:400:3
	@APP
	msr	primask, r1
	@NO_APP
.Ltmp350:
	.loc	3 953 41                        @ ../../../Library/StdDriver/src/fmc.c:953:41
	ldr	r1, [r7, #4]
	movs	r3, #15
	.loc	3 953 48 is_stmt 0              @ ../../../Library/StdDriver/src/fmc.c:953:48
	bics	r1, r3
	.loc	3 953 34                        @ ../../../Library/StdDriver/src/fmc.c:953:34
	str	r1, [r5]
	.loc	3 954 33 is_stmt 1              @ ../../../Library/StdDriver/src/fmc.c:954:33
	ldr	r1, [r5]
	.loc	3 954 41 is_stmt 0              @ ../../../Library/StdDriver/src/fmc.c:954:41
	subs	r1, r1, r0
	.loc	3 954 52                        @ ../../../Library/StdDriver/src/fmc.c:954:52
	lsrs	r4, r1, #2
.Ltmp351:
	@DEBUG_VALUE: FMC_WriteMultiple:err <- -1
	@DEBUG_VALUE: FMC_WriteMultiple:idx <- $r4
	.loc	3 0 0                           @ ../../../Library/StdDriver/src/fmc.c:0:0
	mov	r1, r2
.Ltmp352:
.LBB23_11:                              @   in Loop: Header=BB23_9 Depth=3
	@DEBUG_VALUE: FMC_WriteMultiple:idx <- $r4
	@DEBUG_VALUE: FMC_WriteMultiple:u32Addr <- $r0
	@DEBUG_VALUE: FMC_WriteMultiple:i <- [DW_OP_plus_uconst 40] [$sp+0]
	@DEBUG_VALUE: FMC_WriteMultiple:retval <- [DW_OP_plus_uconst 24] [$sp+0]
	@DEBUG_VALUE: FMC_WriteMultiple:u32OnProg <- 1
	@DEBUG_VALUE: FMC_WriteMultiple:u32Len <- [DW_OP_LLVM_entry_value 1] $r2
	@DEBUG_VALUE: FMC_WriteMultiple:idx <- $r4
	@DEBUG_VALUE: FMC_WriteMultiple:err <- $r1
	.loc	3 958 25 is_stmt 1              @ ../../../Library/StdDriver/src/fmc.c:958:25
	ldr	r3, [r7]
.Ltmp353:
	.loc	3 957 13                        @ ../../../Library/StdDriver/src/fmc.c:957:13
	cbnz	r1, .LBB23_13
.Ltmp354:
@ %bb.12:                               @   in Loop: Header=BB23_9 Depth=3
	@DEBUG_VALUE: FMC_WriteMultiple:idx <- $r4
	@DEBUG_VALUE: FMC_WriteMultiple:err <- $r1
	@DEBUG_VALUE: FMC_WriteMultiple:u32Addr <- $r0
	@DEBUG_VALUE: FMC_WriteMultiple:i <- [DW_OP_plus_uconst 40] [$sp+0]
	@DEBUG_VALUE: FMC_WriteMultiple:retval <- [DW_OP_plus_uconst 24] [$sp+0]
	@DEBUG_VALUE: FMC_WriteMultiple:u32OnProg <- 1
	@DEBUG_VALUE: FMC_WriteMultiple:u32Len <- [DW_OP_LLVM_entry_value 1] $r2
	.loc	3 0 13 is_stmt 0                @ ../../../Library/StdDriver/src/fmc.c:0:13
	movs	r6, #48
	ands	r3, r6
.Ltmp355:
	.loc	3 957 13                        @ ../../../Library/StdDriver/src/fmc.c:957:13
	bne	.LBB23_9
.Ltmp356:
.LBB23_13:                              @   in Loop: Header=BB23_8 Depth=2
	@DEBUG_VALUE: FMC_WriteMultiple:idx <- $r4
	@DEBUG_VALUE: FMC_WriteMultiple:err <- $r1
	@DEBUG_VALUE: FMC_WriteMultiple:u32Addr <- $r0
	@DEBUG_VALUE: FMC_WriteMultiple:i <- [DW_OP_plus_uconst 40] [$sp+0]
	@DEBUG_VALUE: FMC_WriteMultiple:retval <- [DW_OP_plus_uconst 24] [$sp+0]
	@DEBUG_VALUE: FMC_WriteMultiple:u32OnProg <- 1
	@DEBUG_VALUE: FMC_WriteMultiple:u32Len <- [DW_OP_LLVM_entry_value 1] $r2
	@DEBUG_VALUE: FMC_WriteMultiple:idx <- $r4
	.loc	3 960 16 is_stmt 1              @ ../../../Library/StdDriver/src/fmc.c:960:16
	cbz	r1, .LBB23_15
.Ltmp357:
@ %bb.14:                               @   in Loop: Header=BB23_8 Depth=2
	@DEBUG_VALUE: FMC_WriteMultiple:idx <- $r4
	@DEBUG_VALUE: FMC_WriteMultiple:err <- $r1
	@DEBUG_VALUE: FMC_WriteMultiple:u32Addr <- $r0
	@DEBUG_VALUE: FMC_WriteMultiple:i <- [DW_OP_plus_uconst 40] [$sp+0]
	@DEBUG_VALUE: FMC_WriteMultiple:retval <- [DW_OP_plus_uconst 24] [$sp+0]
	@DEBUG_VALUE: FMC_WriteMultiple:u32OnProg <- 1
	@DEBUG_VALUE: FMC_WriteMultiple:u32Len <- [DW_OP_LLVM_entry_value 1] $r2
	.loc	3 0 0 is_stmt 0                 @ ../../../Library/StdDriver/src/fmc.c:0:0
	ldr	r1, [sp, #28]                   @ 4-byte Reload
.Ltmp358:
	b	.LBB23_23
.Ltmp359:
.LBB23_15:                              @   in Loop: Header=BB23_8 Depth=2
	@DEBUG_VALUE: FMC_WriteMultiple:idx <- $r4
	@DEBUG_VALUE: FMC_WriteMultiple:err <- $r1
	@DEBUG_VALUE: FMC_WriteMultiple:u32Addr <- $r0
	@DEBUG_VALUE: FMC_WriteMultiple:i <- [DW_OP_plus_uconst 40] [$sp+0]
	@DEBUG_VALUE: FMC_WriteMultiple:retval <- [DW_OP_plus_uconst 24] [$sp+0]
	@DEBUG_VALUE: FMC_WriteMultiple:u32OnProg <- 1
	@DEBUG_VALUE: FMC_WriteMultiple:u32Len <- [DW_OP_LLVM_entry_value 1] $r2
	.loc	3 965 31 is_stmt 1              @ ../../../Library/StdDriver/src/fmc.c:965:31
	ldr	r1, [sp, #40]                   @ 4-byte Reload
.Ltmp360:
	lsls	r1, r1, #2
	ldr	r6, [sp, #16]                   @ 4-byte Reload
	ldr	r3, [r6, r1]
	.loc	3 965 29 is_stmt 0              @ ../../../Library/StdDriver/src/fmc.c:965:29
	str	r3, [r5, #124]
	.loc	3 965 31                        @ ../../../Library/StdDriver/src/fmc.c:965:31
	adds	r1, r6, r1
	str	r1, [sp, #20]                   @ 4-byte Spill
	.loc	3 966 31 is_stmt 1              @ ../../../Library/StdDriver/src/fmc.c:966:31
	ldr	r1, [r1, #4]
	.loc	3 966 29 is_stmt 0              @ ../../../Library/StdDriver/src/fmc.c:966:29
	ldr	r3, [sp, #12]                   @ 4-byte Reload
	str	r1, [r3]
	movs	r3, #0
.Ltmp361:
.LBB23_16:                              @   Parent Loop BB23_3 Depth=1
                                        @     Parent Loop BB23_8 Depth=2
                                        @ =>    This Inner Loop Header: Depth=3
	@DEBUG_VALUE: FMC_WriteMultiple:idx <- $r4
	@DEBUG_VALUE: FMC_WriteMultiple:u32Addr <- $r0
	@DEBUG_VALUE: FMC_WriteMultiple:i <- [DW_OP_plus_uconst 40] [$sp+0]
	@DEBUG_VALUE: FMC_WriteMultiple:retval <- [DW_OP_plus_uconst 24] [$sp+0]
	@DEBUG_VALUE: FMC_WriteMultiple:u32OnProg <- 1
	@DEBUG_VALUE: FMC_WriteMultiple:u32Len <- [DW_OP_LLVM_entry_value 1] $r2
	@DEBUG_VALUE: FMC_WriteMultiple:idx <- $r4
	@DEBUG_VALUE: FMC_WriteMultiple:err <- $r3
	.loc	3 969 30 is_stmt 1              @ ../../../Library/StdDriver/src/fmc.c:969:30
	ldr	r1, [r7]
.Ltmp362:
	.loc	3 969 24 is_stmt 0              @ ../../../Library/StdDriver/src/fmc.c:969:24
	lsls	r1, r1, #31
	bne	.LBB23_18
.Ltmp363:
@ %bb.17:                               @   in Loop: Header=BB23_16 Depth=3
	@DEBUG_VALUE: FMC_WriteMultiple:idx <- $r4
	@DEBUG_VALUE: FMC_WriteMultiple:err <- $r3
	@DEBUG_VALUE: FMC_WriteMultiple:u32Addr <- $r0
	@DEBUG_VALUE: FMC_WriteMultiple:i <- [DW_OP_plus_uconst 40] [$sp+0]
	@DEBUG_VALUE: FMC_WriteMultiple:retval <- [DW_OP_plus_uconst 24] [$sp+0]
	@DEBUG_VALUE: FMC_WriteMultiple:u32OnProg <- 1
	@DEBUG_VALUE: FMC_WriteMultiple:u32Len <- [DW_OP_LLVM_entry_value 1] $r2
	.loc	3 0 24                          @ ../../../Library/StdDriver/src/fmc.c:0:24
	movs	r1, #0
.Ltmp364:
	@DEBUG_VALUE: __set_PRIMASK:priMask <- 0
	.loc	4 400 3 is_stmt 1               @ ../../../Library/CMSIS/Include/cmsis_armclang.h:400:3
	@APP
	msr	primask, r1
	@NO_APP
.Ltmp365:
	.loc	3 972 45                        @ ../../../Library/StdDriver/src/fmc.c:972:45
	ldr	r1, [r7, #4]
	movs	r3, #15
.Ltmp366:
	.loc	3 972 52 is_stmt 0              @ ../../../Library/StdDriver/src/fmc.c:972:52
	bics	r1, r3
	.loc	3 972 38                        @ ../../../Library/StdDriver/src/fmc.c:972:38
	str	r1, [r5]
	.loc	3 973 37 is_stmt 1              @ ../../../Library/StdDriver/src/fmc.c:973:37
	ldr	r1, [r5]
	.loc	3 973 45 is_stmt 0              @ ../../../Library/StdDriver/src/fmc.c:973:45
	subs	r1, r1, r0
	.loc	3 973 56                        @ ../../../Library/StdDriver/src/fmc.c:973:56
	lsrs	r4, r1, #2
.Ltmp367:
	@DEBUG_VALUE: FMC_WriteMultiple:err <- -1
	@DEBUG_VALUE: FMC_WriteMultiple:idx <- $r4
	.loc	3 0 0                           @ ../../../Library/StdDriver/src/fmc.c:0:0
	mov	r3, r2
.Ltmp368:
.LBB23_18:                              @   in Loop: Header=BB23_16 Depth=3
	@DEBUG_VALUE: FMC_WriteMultiple:idx <- $r4
	@DEBUG_VALUE: FMC_WriteMultiple:u32Addr <- $r0
	@DEBUG_VALUE: FMC_WriteMultiple:i <- [DW_OP_plus_uconst 40] [$sp+0]
	@DEBUG_VALUE: FMC_WriteMultiple:retval <- [DW_OP_plus_uconst 24] [$sp+0]
	@DEBUG_VALUE: FMC_WriteMultiple:u32OnProg <- 1
	@DEBUG_VALUE: FMC_WriteMultiple:u32Len <- [DW_OP_LLVM_entry_value 1] $r2
	@DEBUG_VALUE: FMC_WriteMultiple:idx <- $r4
	@DEBUG_VALUE: FMC_WriteMultiple:err <- $r3
	.loc	3 977 29 is_stmt 1              @ ../../../Library/StdDriver/src/fmc.c:977:29
	ldr	r1, [r7]
.Ltmp369:
	.loc	3 976 17                        @ ../../../Library/StdDriver/src/fmc.c:976:17
	cbnz	r3, .LBB23_20
.Ltmp370:
@ %bb.19:                               @   in Loop: Header=BB23_16 Depth=3
	@DEBUG_VALUE: FMC_WriteMultiple:idx <- $r4
	@DEBUG_VALUE: FMC_WriteMultiple:err <- $r3
	@DEBUG_VALUE: FMC_WriteMultiple:u32Addr <- $r0
	@DEBUG_VALUE: FMC_WriteMultiple:i <- [DW_OP_plus_uconst 40] [$sp+0]
	@DEBUG_VALUE: FMC_WriteMultiple:retval <- [DW_OP_plus_uconst 24] [$sp+0]
	@DEBUG_VALUE: FMC_WriteMultiple:u32OnProg <- 1
	@DEBUG_VALUE: FMC_WriteMultiple:u32Len <- [DW_OP_LLVM_entry_value 1] $r2
	.loc	3 0 17 is_stmt 0                @ ../../../Library/StdDriver/src/fmc.c:0:17
	movs	r6, #192
	ands	r1, r6
.Ltmp371:
	.loc	3 976 17                        @ ../../../Library/StdDriver/src/fmc.c:976:17
	bne	.LBB23_16
.Ltmp372:
.LBB23_20:                              @   in Loop: Header=BB23_8 Depth=2
	@DEBUG_VALUE: FMC_WriteMultiple:idx <- $r4
	@DEBUG_VALUE: FMC_WriteMultiple:err <- $r3
	@DEBUG_VALUE: FMC_WriteMultiple:u32Addr <- $r0
	@DEBUG_VALUE: FMC_WriteMultiple:i <- [DW_OP_plus_uconst 40] [$sp+0]
	@DEBUG_VALUE: FMC_WriteMultiple:retval <- [DW_OP_plus_uconst 24] [$sp+0]
	@DEBUG_VALUE: FMC_WriteMultiple:u32OnProg <- 1
	@DEBUG_VALUE: FMC_WriteMultiple:u32Len <- [DW_OP_LLVM_entry_value 1] $r2
	@DEBUG_VALUE: FMC_WriteMultiple:retval <- undef
	@DEBUG_VALUE: FMC_WriteMultiple:idx <- $r4
	.loc	3 979 20 is_stmt 1              @ ../../../Library/StdDriver/src/fmc.c:979:20
	cbz	r3, .LBB23_22
.Ltmp373:
@ %bb.21:                               @   in Loop: Header=BB23_8 Depth=2
	@DEBUG_VALUE: FMC_WriteMultiple:idx <- $r4
	@DEBUG_VALUE: FMC_WriteMultiple:err <- $r3
	@DEBUG_VALUE: FMC_WriteMultiple:u32Addr <- $r0
	@DEBUG_VALUE: FMC_WriteMultiple:i <- [DW_OP_plus_uconst 40] [$sp+0]
	@DEBUG_VALUE: FMC_WriteMultiple:u32OnProg <- 1
	@DEBUG_VALUE: FMC_WriteMultiple:u32Len <- [DW_OP_LLVM_entry_value 1] $r2
	.loc	3 0 20 is_stmt 0                @ ../../../Library/StdDriver/src/fmc.c:0:20
	ldr	r1, [sp, #24]                   @ 4-byte Reload
	adds	r1, #8
.Ltmp374:
	@DEBUG_VALUE: FMC_WriteMultiple:retval <- $r1
	str	r1, [sp, #24]                   @ 4-byte Spill
.Ltmp375:
	@DEBUG_VALUE: FMC_WriteMultiple:retval <- [DW_OP_plus_uconst 24] [$sp+0]
	@DEBUG_VALUE: FMC_WriteMultiple:retval <- [DW_OP_plus_uconst 24] [$sp+0]
	@DEBUG_VALUE: FMC_WriteMultiple:retval <- [DW_OP_plus_uconst 24] [$sp+0]
	ldr	r1, [sp, #28]                   @ 4-byte Reload
	b	.LBB23_23
.Ltmp376:
.LBB23_22:                              @   in Loop: Header=BB23_8 Depth=2
	@DEBUG_VALUE: FMC_WriteMultiple:idx <- $r4
	@DEBUG_VALUE: FMC_WriteMultiple:err <- $r3
	@DEBUG_VALUE: FMC_WriteMultiple:u32Addr <- $r0
	@DEBUG_VALUE: FMC_WriteMultiple:i <- [DW_OP_plus_uconst 40] [$sp+0]
	@DEBUG_VALUE: FMC_WriteMultiple:u32OnProg <- 1
	@DEBUG_VALUE: FMC_WriteMultiple:u32Len <- [DW_OP_LLVM_entry_value 1] $r2
	ldr	r6, [sp, #20]                   @ 4-byte Reload
.Ltmp377:
	.loc	3 984 35 is_stmt 1              @ ../../../Library/StdDriver/src/fmc.c:984:35
	ldr	r1, [r6, #8]
	.loc	3 984 33 is_stmt 0              @ ../../../Library/StdDriver/src/fmc.c:984:33
	ldr	r3, [sp, #8]                    @ 4-byte Reload
.Ltmp378:
	str	r1, [r3]
	.loc	3 985 35 is_stmt 1              @ ../../../Library/StdDriver/src/fmc.c:985:35
	ldr	r1, [r6, #12]
	.loc	3 985 33 is_stmt 0              @ ../../../Library/StdDriver/src/fmc.c:985:33
	ldr	r3, [sp, #4]                    @ 4-byte Reload
	str	r1, [r3]
	movs	r1, #0
.Ltmp379:
	@DEBUG_VALUE: __set_PRIMASK:priMask <- 0
	.loc	4 400 3 is_stmt 1               @ ../../../Library/CMSIS/Include/cmsis_armclang.h:400:3
	@APP
	msr	primask, r1
	@NO_APP
.Ltmp380:
	.loc	3 981 28                        @ ../../../Library/StdDriver/src/fmc.c:981:28
	ldr	r3, [sp, #24]                   @ 4-byte Reload
	adds	r3, #16
.Ltmp381:
	@DEBUG_VALUE: FMC_WriteMultiple:retval <- $r3
	.loc	3 0 28 is_stmt 0                @ ../../../Library/StdDriver/src/fmc.c:0:28
	str	r3, [sp, #24]                   @ 4-byte Spill
.Ltmp382:
	@DEBUG_VALUE: FMC_WriteMultiple:retval <- [DW_OP_plus_uconst 24] [$sp+0]
	@DEBUG_VALUE: FMC_WriteMultiple:retval <- [DW_OP_plus_uconst 24] [$sp+0]
	@DEBUG_VALUE: FMC_WriteMultiple:retval <- [DW_OP_plus_uconst 24] [$sp+0]
.LBB23_23:                              @   in Loop: Header=BB23_8 Depth=2
	@DEBUG_VALUE: FMC_WriteMultiple:idx <- $r4
	@DEBUG_VALUE: FMC_WriteMultiple:u32Addr <- $r0
	@DEBUG_VALUE: FMC_WriteMultiple:i <- [DW_OP_plus_uconst 40] [$sp+0]
	@DEBUG_VALUE: FMC_WriteMultiple:retval <- [DW_OP_plus_uconst 24] [$sp+0]
	@DEBUG_VALUE: FMC_WriteMultiple:u32OnProg <- 1
	@DEBUG_VALUE: FMC_WriteMultiple:u32Len <- [DW_OP_LLVM_entry_value 1] $r2
	ldr	r3, [sp, #40]                   @ 4-byte Reload
	@DEBUG_VALUE: FMC_WriteMultiple:retval <- [DW_OP_plus_uconst 24] [$sp+0]
	@DEBUG_VALUE: FMC_WriteMultiple:idx <- $r4
.Ltmp383:
	@DEBUG_VALUE: FMC_WriteMultiple:err <- undef
	@DEBUG_VALUE: FMC_WriteMultiple:i <- undef
	.loc	3 990 16 is_stmt 1              @ ../../../Library/StdDriver/src/fmc.c:990:16
	cbnz	r1, .LBB23_26
.Ltmp384:
@ %bb.24:                               @   in Loop: Header=BB23_8 Depth=2
	@DEBUG_VALUE: FMC_WriteMultiple:idx <- $r4
	@DEBUG_VALUE: FMC_WriteMultiple:u32Addr <- $r0
	@DEBUG_VALUE: FMC_WriteMultiple:retval <- [DW_OP_plus_uconst 24] [$sp+0]
	@DEBUG_VALUE: FMC_WriteMultiple:u32OnProg <- 1
	@DEBUG_VALUE: FMC_WriteMultiple:u32Len <- [DW_OP_LLVM_entry_value 1] $r2
	.loc	3 0 0 is_stmt 0                 @ ../../../Library/StdDriver/src/fmc.c:0:0
	adds	r3, r3, #4
.Ltmp385:
	@DEBUG_VALUE: FMC_WriteMultiple:i <- $r3
	@DEBUG_VALUE: FMC_WriteMultiple:err <- 0
	@DEBUG_VALUE: FMC_WriteMultiple:idx <- $r4
	@DEBUG_VALUE: FMC_WriteMultiple:retval <- [DW_OP_plus_uconst 24] [$sp+0]
	.loc	3 944 24 is_stmt 1              @ ../../../Library/StdDriver/src/fmc.c:944:24
	cmp	r3, #128
	ldr	r1, [sp, #36]                   @ 4-byte Reload
	blo	.LBB23_7
.Ltmp386:
@ %bb.25:                               @   in Loop: Header=BB23_8 Depth=2
	@DEBUG_VALUE: FMC_WriteMultiple:idx <- $r4
	@DEBUG_VALUE: FMC_WriteMultiple:i <- $r3
	@DEBUG_VALUE: FMC_WriteMultiple:u32Addr <- $r0
	@DEBUG_VALUE: FMC_WriteMultiple:retval <- [DW_OP_plus_uconst 24] [$sp+0]
	@DEBUG_VALUE: FMC_WriteMultiple:u32OnProg <- 1
	@DEBUG_VALUE: FMC_WriteMultiple:err <- 0
	@DEBUG_VALUE: FMC_WriteMultiple:u32Len <- [DW_OP_LLVM_entry_value 1] $r2
	.loc	3 0 24 is_stmt 0                @ ../../../Library/StdDriver/src/fmc.c:0:24
	movs	r1, #0
	b	.LBB23_7
.Ltmp387:
.LBB23_26:                              @   in Loop: Header=BB23_3 Depth=1
	@DEBUG_VALUE: FMC_WriteMultiple:idx <- $r4
	@DEBUG_VALUE: FMC_WriteMultiple:u32Addr <- $r0
	@DEBUG_VALUE: FMC_WriteMultiple:retval <- [DW_OP_plus_uconst 24] [$sp+0]
	@DEBUG_VALUE: FMC_WriteMultiple:u32OnProg <- 1
	@DEBUG_VALUE: FMC_WriteMultiple:u32Len <- [DW_OP_LLVM_entry_value 1] $r2
	.loc	3 944 24                        @ ../../../Library/StdDriver/src/fmc.c:944:24
	ldr	r1, [sp, #32]                   @ 4-byte Reload
.Ltmp388:
	@DEBUG_VALUE: FMC_WriteMultiple:retval <- [DW_OP_plus_uconst 24] [$sp+0]
	@DEBUG_VALUE: FMC_WriteMultiple:idx <- $r4
	@DEBUG_VALUE: FMC_WriteMultiple:err <- undef
	.loc	3 995 12 is_stmt 1              @ ../../../Library/StdDriver/src/fmc.c:995:12
	lsls	r1, r1, #31
	beq	.LBB23_27
	b	.LBB23_3
.Ltmp389:
.LBB23_27:                              @   Parent Loop BB23_3 Depth=1
                                        @ =>  This Inner Loop Header: Depth=2
	@DEBUG_VALUE: FMC_WriteMultiple:idx <- $r4
	@DEBUG_VALUE: FMC_WriteMultiple:u32Addr <- $r0
	@DEBUG_VALUE: FMC_WriteMultiple:retval <- [DW_OP_plus_uconst 24] [$sp+0]
	@DEBUG_VALUE: FMC_WriteMultiple:u32OnProg <- 1
	@DEBUG_VALUE: FMC_WriteMultiple:u32Len <- [DW_OP_LLVM_entry_value 1] $r2
	.loc	3 998 24                        @ ../../../Library/StdDriver/src/fmc.c:998:24
	ldr	r3, [r5, #60]
	.loc	3 998 13 is_stmt 0              @ ../../../Library/StdDriver/src/fmc.c:998:13
	lsls	r3, r3, #31
	bne	.LBB23_27
.Ltmp390:
@ %bb.28:                               @   in Loop: Header=BB23_3 Depth=1
	@DEBUG_VALUE: FMC_WriteMultiple:idx <- $r4
	@DEBUG_VALUE: FMC_WriteMultiple:u32Addr <- $r0
	@DEBUG_VALUE: FMC_WriteMultiple:retval <- [DW_OP_plus_uconst 24] [$sp+0]
	@DEBUG_VALUE: FMC_WriteMultiple:u32OnProg <- 1
	@DEBUG_VALUE: FMC_WriteMultiple:u32Len <- [DW_OP_LLVM_entry_value 1] $r2
	@DEBUG_VALUE: FMC_WriteMultiple:u32OnProg <- undef
	.loc	3 1000 5 is_stmt 1              @ ../../../Library/StdDriver/src/fmc.c:1000:5
	cmp	r1, #0
	beq	.LBB23_29
	b	.LBB23_3
.Ltmp391:
.LBB23_29:
	@DEBUG_VALUE: FMC_WriteMultiple:u32Addr <- $r0
	@DEBUG_VALUE: FMC_WriteMultiple:u32Len <- [DW_OP_LLVM_entry_value 1] $r2
	.loc	3 1004 1                        @ ../../../Library/StdDriver/src/fmc.c:1004:1
	ldr	r0, [sp, #24]                   @ 4-byte Reload
.Ltmp392:
	@DEBUG_VALUE: FMC_WriteMultiple:u32Addr <- [DW_OP_LLVM_entry_value 1] $r0
	add	sp, #44
	pop	{r4, r5, r6, r7, pc}
.Ltmp393:
	.p2align	2
@ %bb.30:
	.loc	3 0 1 is_stmt 0                 @ ../../../Library/StdDriver/src/fmc.c:0:1
__arm_cp.23_0:
	.long	4294443015                      @ 0xfff80007
.Lcpi_end33:
	.size	__arm_cp.23_0, .Lcpi_end33-__arm_cp.23_0
__arm_cp.23_1:
	.long	1073790980                      @ 0x4000c004
.Lcpi_end34:
	.size	__arm_cp.23_1, .Lcpi_end34-__arm_cp.23_1
__arm_cp.23_2:
	.long	1073791168                      @ 0x4000c0c0
.Lcpi_end35:
	.size	__arm_cp.23_2, .Lcpi_end35-__arm_cp.23_2
.Lfunc_end23:
	.size	FMC_WriteMultiple, .Lfunc_end23-FMC_WriteMultiple
	.cfi_endproc
	.cantunwind
	.fnend
                                        @ -- End function
	.section	.text.FMC_Write_OTP,"ax",%progbits
	.hidden	FMC_Write_OTP                   @ -- Begin function FMC_Write_OTP
	.globl	FMC_Write_OTP
	.p2align	2
	.type	FMC_Write_OTP,%function
	.code	16                              @ @FMC_Write_OTP
	.thumb_func
FMC_Write_OTP:
.Lfunc_begin24:
	.loc	3 1020 0 is_stmt 1              @ ../../../Library/StdDriver/src/fmc.c:1020:0
	.fnstart
	.cfi_startproc
@ %bb.0:
	@DEBUG_VALUE: FMC_Write_OTP:u32OtpNum <- $r0
	@DEBUG_VALUE: FMC_Write_OTP:u32LowWord <- $r1
	@DEBUG_VALUE: FMC_Write_OTP:u32HighWord <- $r2
	.save	{r4, r5, r6, lr}
	push	{r4, r5, r6, lr}
	.cfi_def_cfa_offset 16
	.cfi_offset lr, -4
	.cfi_offset r6, -8
	.cfi_offset r5, -12
	.cfi_offset r4, -16
	movs	r3, #0
	mvns	r4, r3
.Ltmp394:
	@DEBUG_VALUE: FMC_Write_OTP:ret <- 0
	@DEBUG_VALUE: FMC_Write_OTP:u32HighWord <- $r2
	@DEBUG_VALUE: FMC_Write_OTP:u32LowWord <- $r1
	@DEBUG_VALUE: FMC_Write_OTP:u32OtpNum <- $r0
	.loc	3 1023 8 prologue_end           @ ../../../Library/StdDriver/src/fmc.c:1023:8
	cmp	r0, #255
	bhi	.LBB24_4
.Ltmp395:
@ %bb.1:
	@DEBUG_VALUE: FMC_Write_OTP:u32HighWord <- $r2
	@DEBUG_VALUE: FMC_Write_OTP:u32LowWord <- $r1
	@DEBUG_VALUE: FMC_Write_OTP:u32OtpNum <- $r0
	@DEBUG_VALUE: FMC_Write_OTP:ret <- 0
	@DEBUG_VALUE: FMC_Write_OTP:ret <- $r3
	.loc	3 1028 8                        @ ../../../Library/StdDriver/src/fmc.c:1028:8
	cmp	r0, #255
	bls	.LBB24_5
.Ltmp396:
.LBB24_2:
	@DEBUG_VALUE: FMC_Write_OTP:ret <- $r3
	@DEBUG_VALUE: FMC_Write_OTP:u32HighWord <- $r2
	@DEBUG_VALUE: FMC_Write_OTP:u32LowWord <- $r1
	@DEBUG_VALUE: FMC_Write_OTP:u32OtpNum <- $r0
	@DEBUG_VALUE: FMC_Write_OTP:ret <- $r3
	.loc	3 1044 8                        @ ../../../Library/StdDriver/src/fmc.c:1044:8
	cbz	r3, .LBB24_10
.Ltmp397:
.LBB24_3:
	@DEBUG_VALUE: FMC_Write_OTP:ret <- $r3
	@DEBUG_VALUE: FMC_Write_OTP:u32HighWord <- $r2
	@DEBUG_VALUE: FMC_Write_OTP:u32OtpNum <- $r0
	@DEBUG_VALUE: FMC_Write_OTP:ret <- $r3
	.loc	3 1060 5                        @ ../../../Library/StdDriver/src/fmc.c:1060:5
	mov	r0, r3
.Ltmp398:
	@DEBUG_VALUE: FMC_Write_OTP:u32OtpNum <- [DW_OP_LLVM_entry_value 1] $r0
	pop	{r4, r5, r6, pc}
.Ltmp399:
.LBB24_4:
	@DEBUG_VALUE: FMC_Write_OTP:u32HighWord <- $r2
	@DEBUG_VALUE: FMC_Write_OTP:u32LowWord <- $r1
	@DEBUG_VALUE: FMC_Write_OTP:u32OtpNum <- $r0
	@DEBUG_VALUE: FMC_Write_OTP:ret <- 0
	.loc	3 0 5 is_stmt 0                 @ ../../../Library/StdDriver/src/fmc.c:0:5
	subs	r3, r4, #1
.Ltmp400:
	@DEBUG_VALUE: FMC_Write_OTP:ret <- $r3
	.loc	3 1028 8 is_stmt 1              @ ../../../Library/StdDriver/src/fmc.c:1028:8
	cmp	r0, #255
	bhi	.LBB24_2
.Ltmp401:
.LBB24_5:
	@DEBUG_VALUE: FMC_Write_OTP:ret <- $r3
	@DEBUG_VALUE: FMC_Write_OTP:u32HighWord <- $r2
	@DEBUG_VALUE: FMC_Write_OTP:u32LowWord <- $r1
	@DEBUG_VALUE: FMC_Write_OTP:u32OtpNum <- $r0
	.loc	3 0 8 is_stmt 0                 @ ../../../Library/StdDriver/src/fmc.c:0:8
	ldr	r3, __arm_cp.24_0
.Ltmp402:
	.loc	3 1030 21 is_stmt 1             @ ../../../Library/StdDriver/src/fmc.c:1030:21
	mov	r5, r3
	subs	r5, #52
	movs	r6, #33
	str	r6, [r5]
	movs	r5, #49
	lsls	r5, r5, #16
	.loc	3 1031 49                       @ ../../../Library/StdDriver/src/fmc.c:1031:49
	lsls	r6, r0, #3
	.loc	3 1031 37 is_stmt 0             @ ../../../Library/StdDriver/src/fmc.c:1031:37
	adds	r5, r6, r5
	.loc	3 1031 22                       @ ../../../Library/StdDriver/src/fmc.c:1031:22
	mov	r6, r3
	subs	r6, #60
	str	r5, [r6]
	.loc	3 1032 21 is_stmt 1             @ ../../../Library/StdDriver/src/fmc.c:1032:21
	mov	r5, r3
	subs	r5, #56
	str	r1, [r5]
	.loc	3 1033 21                       @ ../../../Library/StdDriver/src/fmc.c:1033:21
	mov	r1, r3
.Ltmp403:
	@DEBUG_VALUE: FMC_Write_OTP:u32LowWord <- [DW_OP_LLVM_entry_value 1] $r1
	subs	r1, #48
	movs	r5, #1
	str	r5, [r1]
.Ltmp404:
.LBB24_6:                               @ =>This Inner Loop Header: Depth=1
	@DEBUG_VALUE: FMC_Write_OTP:u32HighWord <- $r2
	@DEBUG_VALUE: FMC_Write_OTP:u32OtpNum <- $r0
	@DEBUG_VALUE: FMC_Write_OTP:u32LowWord <- [DW_OP_LLVM_entry_value 1] $r1
	.loc	3 1035 20                       @ ../../../Library/StdDriver/src/fmc.c:1035:20
	ldr	r5, [r1]
	.loc	3 1035 9 is_stmt 0              @ ../../../Library/StdDriver/src/fmc.c:1035:9
	lsls	r5, r5, #31
	bne	.LBB24_6
.Ltmp405:
@ %bb.7:
	@DEBUG_VALUE: FMC_Write_OTP:u32HighWord <- $r2
	@DEBUG_VALUE: FMC_Write_OTP:u32OtpNum <- $r0
	@DEBUG_VALUE: FMC_Write_OTP:u32LowWord <- [DW_OP_LLVM_entry_value 1] $r1
	.loc	3 1037 17 is_stmt 1             @ ../../../Library/StdDriver/src/fmc.c:1037:17
	ldr	r1, [r3]
.Ltmp406:
	.loc	3 1037 12 is_stmt 0             @ ../../../Library/StdDriver/src/fmc.c:1037:12
	lsls	r1, r1, #25
	bmi	.LBB24_9
.Ltmp407:
@ %bb.8:
	@DEBUG_VALUE: FMC_Write_OTP:u32HighWord <- $r2
	@DEBUG_VALUE: FMC_Write_OTP:u32OtpNum <- $r0
	@DEBUG_VALUE: FMC_Write_OTP:u32LowWord <- [DW_OP_LLVM_entry_value 1] $r1
	.loc	3 0 12                          @ ../../../Library/StdDriver/src/fmc.c:0:12
	movs	r3, #0
.Ltmp408:
	@DEBUG_VALUE: FMC_Write_OTP:ret <- $r3
	.loc	3 1044 8 is_stmt 1              @ ../../../Library/StdDriver/src/fmc.c:1044:8
	cmp	r3, #0
	bne	.LBB24_3
	b	.LBB24_10
.Ltmp409:
.LBB24_9:
	@DEBUG_VALUE: FMC_Write_OTP:u32HighWord <- $r2
	@DEBUG_VALUE: FMC_Write_OTP:u32OtpNum <- $r0
	@DEBUG_VALUE: FMC_Write_OTP:u32LowWord <- [DW_OP_LLVM_entry_value 1] $r1
	.loc	3 1039 25                       @ ../../../Library/StdDriver/src/fmc.c:1039:25
	ldr	r1, [r3]
	movs	r5, #64
	orrs	r5, r1
	str	r5, [r3]
.Ltmp410:
	@DEBUG_VALUE: FMC_Write_OTP:ret <- -1
	.loc	3 0 0 is_stmt 0                 @ ../../../Library/StdDriver/src/fmc.c:0:0
	mov	r3, r4
.Ltmp411:
	@DEBUG_VALUE: FMC_Write_OTP:ret <- $r3
	.loc	3 1044 8 is_stmt 1              @ ../../../Library/StdDriver/src/fmc.c:1044:8
	cmp	r3, #0
	bne	.LBB24_3
.Ltmp412:
.LBB24_10:
	@DEBUG_VALUE: FMC_Write_OTP:ret <- $r3
	@DEBUG_VALUE: FMC_Write_OTP:u32HighWord <- $r2
	@DEBUG_VALUE: FMC_Write_OTP:u32OtpNum <- $r0
	.loc	3 0 8 is_stmt 0                 @ ../../../Library/StdDriver/src/fmc.c:0:8
	ldr	r1, __arm_cp.24_0
.Ltmp413:
	.loc	3 1046 21 is_stmt 1             @ ../../../Library/StdDriver/src/fmc.c:1046:21
	mov	r3, r1
.Ltmp414:
	subs	r3, #52
	movs	r5, #33
	str	r5, [r3]
	movs	r3, #49
	lsls	r3, r3, #16
	.loc	3 1047 49                       @ ../../../Library/StdDriver/src/fmc.c:1047:49
	lsls	r0, r0, #3
.Ltmp415:
	@DEBUG_VALUE: FMC_Write_OTP:u32OtpNum <- [DW_OP_LLVM_entry_value 1] $r0
	.loc	3 1047 55 is_stmt 0             @ ../../../Library/StdDriver/src/fmc.c:1047:55
	adds	r0, r0, r3
	adds	r0, r0, #4
	.loc	3 1047 22                       @ ../../../Library/StdDriver/src/fmc.c:1047:22
	mov	r3, r1
	subs	r3, #60
	str	r0, [r3]
	.loc	3 1048 21 is_stmt 1             @ ../../../Library/StdDriver/src/fmc.c:1048:21
	mov	r0, r1
	subs	r0, #56
	str	r2, [r0]
	.loc	3 1049 21                       @ ../../../Library/StdDriver/src/fmc.c:1049:21
	mov	r0, r1
	subs	r0, #48
	movs	r2, #1
.Ltmp416:
	@DEBUG_VALUE: FMC_Write_OTP:u32HighWord <- [DW_OP_LLVM_entry_value 1] $r2
	str	r2, [r0]
.Ltmp417:
.LBB24_11:                              @ =>This Inner Loop Header: Depth=1
	@DEBUG_VALUE: FMC_Write_OTP:u32HighWord <- [DW_OP_LLVM_entry_value 1] $r2
	@DEBUG_VALUE: FMC_Write_OTP:u32OtpNum <- [DW_OP_LLVM_entry_value 1] $r0
	.loc	3 1051 20                       @ ../../../Library/StdDriver/src/fmc.c:1051:20
	ldr	r2, [r0]
	.loc	3 1051 9 is_stmt 0              @ ../../../Library/StdDriver/src/fmc.c:1051:9
	lsls	r2, r2, #31
	bne	.LBB24_11
.Ltmp418:
@ %bb.12:
	@DEBUG_VALUE: FMC_Write_OTP:u32HighWord <- [DW_OP_LLVM_entry_value 1] $r2
	@DEBUG_VALUE: FMC_Write_OTP:u32OtpNum <- [DW_OP_LLVM_entry_value 1] $r0
	.loc	3 1053 17 is_stmt 1             @ ../../../Library/StdDriver/src/fmc.c:1053:17
	ldr	r0, [r1]
.Ltmp419:
	.loc	3 1053 12 is_stmt 0             @ ../../../Library/StdDriver/src/fmc.c:1053:12
	lsls	r0, r0, #25
	bmi	.LBB24_14
.Ltmp420:
@ %bb.13:
	@DEBUG_VALUE: FMC_Write_OTP:u32HighWord <- [DW_OP_LLVM_entry_value 1] $r2
	@DEBUG_VALUE: FMC_Write_OTP:u32OtpNum <- [DW_OP_LLVM_entry_value 1] $r0
	.loc	3 0 12                          @ ../../../Library/StdDriver/src/fmc.c:0:12
	movs	r3, #0
.Ltmp421:
	@DEBUG_VALUE: FMC_Write_OTP:ret <- $r3
	.loc	3 1060 5 is_stmt 1              @ ../../../Library/StdDriver/src/fmc.c:1060:5
	mov	r0, r3
	pop	{r4, r5, r6, pc}
.Ltmp422:
.LBB24_14:
	@DEBUG_VALUE: FMC_Write_OTP:u32HighWord <- [DW_OP_LLVM_entry_value 1] $r2
	@DEBUG_VALUE: FMC_Write_OTP:u32OtpNum <- [DW_OP_LLVM_entry_value 1] $r0
	.loc	3 1055 25                       @ ../../../Library/StdDriver/src/fmc.c:1055:25
	ldr	r0, [r1]
	movs	r2, #64
	orrs	r2, r0
	str	r2, [r1]
.Ltmp423:
	@DEBUG_VALUE: FMC_Write_OTP:ret <- -1
	.loc	3 0 0 is_stmt 0                 @ ../../../Library/StdDriver/src/fmc.c:0:0
	mov	r3, r4
.Ltmp424:
	@DEBUG_VALUE: FMC_Write_OTP:ret <- $r3
	.loc	3 1060 5 is_stmt 1              @ ../../../Library/StdDriver/src/fmc.c:1060:5
	mov	r0, r3
	pop	{r4, r5, r6, pc}
.Ltmp425:
	.p2align	2
@ %bb.15:
	.loc	3 0 5 is_stmt 0                 @ ../../../Library/StdDriver/src/fmc.c:0:5
__arm_cp.24_0:
	.long	1073791040                      @ 0x4000c040
.Lcpi_end36:
	.size	__arm_cp.24_0, .Lcpi_end36-__arm_cp.24_0
.Lfunc_end24:
	.size	FMC_Write_OTP, .Lfunc_end24-FMC_Write_OTP
	.cfi_endproc
	.cantunwind
	.fnend
                                        @ -- End function
	.section	".note.GNU-stack","",%progbits
	.eabi_attribute	30, 1	@ Tag_ABI_optimization_goals
	.ARM_attribute	16, 1	@ Tag_AV_eba