	.text
	.syntax unified
	.eabi_attribute	67, "2.09"	@ Tag_conformance
	.cpu	cortex-m23
	.eabi_attribute	6, 16	@ Tag_CPU_arch
	.eabi_attribute	7, 77	@ Tag_CPU_arch_profile
	.eabi_attribute	8, 0	@ Tag_ARM_ISA_use
	.eabi_attribute	9, 3	@ Tag_THUMB_ISA_use
	.eabi_attribute	34, 0	@ Tag_CPU_unaligned_access
	.eabi_attribute	17, 1	@ Tag_ABI_PCS_GOT_use
	.eabi_attribute	20, 2	@ Tag_ABI_FP_denormal
	.eabi_attribute	21, 0	@ Tag_ABI_FP_exceptions
	.eabi_attribute	23, 1	@ Tag_ABI_FP_number_model
	.eabi_attribute	24, 1	@ Tag_ABI_align_needed
	.eabi_attribute	25, 1	@ Tag_ABI_align_preserved
	.eabi_attribute	38, 1	@ Tag_ABI_FP_16bit_format
	.eabi_attribute	18, 2	@ Tag_ABI_PCS_wchar_t
	.eabi_attribute	26, 1	@ Tag_ABI_enum_size
	.eabi_attribute	14, 0	@ Tag_ABI_PCS_R9_use
	.file	"gcm.c"
	.file	1 "C:\\" "Keil_v5\\ARM\\ARMCLANG\\Bin\\..\\include\\stdint.h"
	.file	2 "C:\\Users\\shw26\\OneDrive\\Desktop\\2021\\2021-1\\\354\272\241\354\212\244\355\206\244\353\224\224\354\236\220\354\235\2702\\Nuvoton\\M2351_BSP_v3.00.004\\M2351Series_BSP_CMSIS_V3.00.004\\MyProject\\PulseMonitoring\\Secure" "../../../ThirdParty/mbedTLS/library/gcm.c"
	.file	3 "C:\\" "Keil_v5\\ARM\\ARMCLANG\\Bin\\..\\include\\stddef.h"
	.file	4 "C:\\Users\\shw26\\OneDrive\\Desktop\\2021\\2021-1\\\354\272\241\354\212\244\355\206\244\353\224\224\354\236\220\354\235\2702\\Nuvoton\\M2351_BSP_v3.00.004\\M2351Series_BSP_CMSIS_V3.00.004\\MyProject\\PulseMonitoring\\Secure" "../../../ThirdParty/mbedTLS/include/mbedtls/cipher.h"
	.section	.text.mbedtls_gcm_init,"ax",%progbits
	.hidden	mbedtls_gcm_init                @ -- Begin function mbedtls_gcm_init
	.globl	mbedtls_gcm_init
	.p2align	1
	.type	mbedtls_gcm_init,%function
	.code	16                              @ @mbedtls_gcm_init
	.thumb_func
mbedtls_gcm_init:
.Lfunc_begin0:
	.loc	2 93 0                          @ ../../../ThirdParty/mbedTLS/library/gcm.c:93:0
	.fnstart
	.cfi_sections .debug_frame
	.cfi_startproc
@ %bb.0:
	@DEBUG_VALUE: mbedtls_gcm_init:ctx <- $r0
	@DEBUG_VALUE: mbedtls_gcm_init:ctx <- $r0
	@DEBUG_VALUE: mbedtls_gcm_init:ctx <- $r0
	.save	{r7, lr}
	push	{r7, lr}
	.cfi_def_cfa_offset 8
	.cfi_offset lr, -4
	.cfi_offset r7, -8
.Ltmp0:
	.loc	2 95 5 prologue_end             @ ../../../ThirdParty/mbedTLS/library/gcm.c:95:5
	movw	r1, #392
	bl	__aeabi_memclr8
.Ltmp1:
	@DEBUG_VALUE: mbedtls_gcm_init:ctx <- [DW_OP_LLVM_entry_value 1] $r0
	.loc	2 96 1                          @ ../../../ThirdParty/mbedTLS/library/gcm.c:96:1
	pop	{r7, pc}
.Ltmp2:
.Lfunc_end0:
	.size	mbedtls_gcm_init, .Lfunc_end0-mbedtls_gcm_init
	.cfi_endproc
	.cantunwind
	.fnend
                                        @ -- End function
	.section	.text.mbedtls_gcm_setkey,"ax",%progbits
	.hidden	mbedtls_gcm_setkey              @ -- Begin function mbedtls_gcm_setkey
	.globl	mbedtls_gcm_setkey
	.p2align	1
	.type	mbedtls_gcm_setkey,%function
	.code	16                              @ @mbedtls_gcm_setkey
	.thumb_func
mbedtls_gcm_setkey:
.Lfunc_begin1:
	.loc	2 170 0                         @ ../../../ThirdParty/mbedTLS/library/gcm.c:170:0
	.fnstart
	.cfi_startproc
@ %bb.0:
	@DEBUG_VALUE: mbedtls_gcm_setkey:ctx <- $r0
	@DEBUG_VALUE: mbedtls_gcm_setkey:cipher <- $r1
	@DEBUG_VALUE: mbedtls_gcm_setkey:key <- $r2
	@DEBUG_VALUE: mbedtls_gcm_setkey:keybits <- $r3
	.save	{r4, r5, r6, r7, lr}
	push	{r4, r5, r6, r7, lr}
	.cfi_def_cfa_offset 20
	.cfi_offset lr, -4
	.cfi_offset r7, -8
	.cfi_offset r6, -12
	.cfi_offset r5, -16
	.cfi_offset r4, -20
	.pad	#4
	sub	sp, #4
	.cfi_def_cfa_offset 24
	mov	r5, r3
	mov	r6, r2
	mov	r4, r0
.Ltmp3:
	@DEBUG_VALUE: mbedtls_gcm_setkey:keybits <- $r5
	@DEBUG_VALUE: mbedtls_gcm_setkey:key <- $r6
	@DEBUG_VALUE: mbedtls_gcm_setkey:cipher <- $r1
	@DEBUG_VALUE: mbedtls_gcm_setkey:ctx <- $r4
	movs	r2, #1
.Ltmp4:
	.loc	2 178 19 prologue_end           @ ../../../ThirdParty/mbedTLS/library/gcm.c:178:19
	mov	r0, r1
.Ltmp5:
	@DEBUG_VALUE: mbedtls_gcm_setkey:cipher <- $r0
	mov	r1, r3
	bl	mbedtls_cipher_info_from_values
.Ltmp6:
	mov	r7, r0
.Ltmp7:
	@DEBUG_VALUE: mbedtls_gcm_setkey:cipher_info <- $r7
	.loc	2 0 19 is_stmt 0                @ ../../../ThirdParty/mbedTLS/library/gcm.c:0:19
	movs	r0, #19
	mvns	r0, r0
	.loc	2 179 9 is_stmt 1               @ ../../../ThirdParty/mbedTLS/library/gcm.c:179:9
	cbz	r7, .LBB1_3
.Ltmp8:
@ %bb.1:
	@DEBUG_VALUE: mbedtls_gcm_setkey:cipher_info <- $r7
	@DEBUG_VALUE: mbedtls_gcm_setkey:key <- $r6
	@DEBUG_VALUE: mbedtls_gcm_setkey:keybits <- $r5
	@DEBUG_VALUE: mbedtls_gcm_setkey:ctx <- $r4
	.loc	2 182 22                        @ ../../../ThirdParty/mbedTLS/library/gcm.c:182:22
	ldr	r1, [r7, #20]
.Ltmp9:
	.loc	2 182 9 is_stmt 0               @ ../../../ThirdParty/mbedTLS/library/gcm.c:182:9
	cmp	r1, #16
	bne	.LBB1_3
.Ltmp10:
@ %bb.2:
	@DEBUG_VALUE: mbedtls_gcm_setkey:cipher_info <- $r7
	@DEBUG_VALUE: mbedtls_gcm_setkey:key <- $r6
	@DEBUG_VALUE: mbedtls_gcm_setkey:keybits <- $r5
	@DEBUG_VALUE: mbedtls_gcm_setkey:ctx <- $r4
	.loc	2 185 5 is_stmt 1               @ ../../../ThirdParty/mbedTLS/library/gcm.c:185:5
	mov	r0, r4
	bl	mbedtls_cipher_free
.Ltmp11:
	.loc	2 187 17                        @ ../../../ThirdParty/mbedTLS/library/gcm.c:187:17
	mov	r0, r4
	mov	r1, r7
	bl	mbedtls_cipher_setup
.Ltmp12:
	@DEBUG_VALUE: mbedtls_gcm_setkey:ret <- $r0
	.loc	2 187 9 is_stmt 0               @ ../../../ThirdParty/mbedTLS/library/gcm.c:187:9
	cbz	r0, .LBB1_4
.Ltmp13:
.LBB1_3:
	@DEBUG_VALUE: mbedtls_gcm_setkey:cipher_info <- $r7
	@DEBUG_VALUE: mbedtls_gcm_setkey:key <- $r6
	@DEBUG_VALUE: mbedtls_gcm_setkey:keybits <- $r5
	@DEBUG_VALUE: mbedtls_gcm_setkey:ctx <- $r4
	.loc	2 0 0                           @ ../../../ThirdParty/mbedTLS/library/gcm.c:0:0
	add	sp, #4
	pop	{r4, r5, r6, r7, pc}
.Ltmp14:
.LBB1_4:
	@DEBUG_VALUE: mbedtls_gcm_setkey:cipher_info <- $r7
	@DEBUG_VALUE: mbedtls_gcm_setkey:key <- $r6
	@DEBUG_VALUE: mbedtls_gcm_setkey:keybits <- $r5
	@DEBUG_VALUE: mbedtls_gcm_setkey:ctx <- $r4
	@DEBUG_VALUE: mbedtls_gcm_setkey:ret <- $r0
	movs	r3, #1
.Ltmp15:
	.loc	2 190 17 is_stmt 1              @ ../../../ThirdParty/mbedTLS/library/gcm.c:190:17
	mov	r0, r4
.Ltmp16:
	mov	r1, r6
	mov	r2, r5
	bl	mbedtls_cipher_setkey
.Ltmp17:
	@DEBUG_VALUE: mbedtls_gcm_setkey:ret <- $r0
	.loc	2 190 9 is_stmt 0               @ ../../../ThirdParty/mbedTLS/library/gcm.c:190:9
	cmp	r0, #0
	bne	.LBB1_3
.Ltmp18:
@ %bb.5:
	@DEBUG_VALUE: mbedtls_gcm_setkey:cipher_info <- $r7
	@DEBUG_VALUE: mbedtls_gcm_setkey:key <- $r6
	@DEBUG_VALUE: mbedtls_gcm_setkey:keybits <- $r5
	@DEBUG_VALUE: mbedtls_gcm_setkey:ctx <- $r4
	@DEBUG_VALUE: mbedtls_gcm_setkey:ret <- $r0
	.loc	2 196 17 is_stmt 1              @ ../../../ThirdParty/mbedTLS/library/gcm.c:196:17
	mov	r0, r4
.Ltmp19:
	bl	gcm_gen_table
.Ltmp20:
	@DEBUG_VALUE: mbedtls_gcm_setkey:ret <- $r0
	.loc	2 0 0 is_stmt 0                 @ ../../../ThirdParty/mbedTLS/library/gcm.c:0:0
	add	sp, #4
	pop	{r4, r5, r6, r7, pc}
.Ltmp21:
.Lfunc_end1:
	.size	mbedtls_gcm_setkey, .Lfunc_end1-mbedtls_gcm_setkey
	.cfi_endproc
	.cantunwind
	.fnend
                                        @ -- End function
	.section	.text.gcm_gen_table,"ax",%progbits
	.p2align	1                               @ -- Begin function gcm_gen_table
	.type	gcm_gen_table,%function
	.code	16                              @ @gcm_gen_table
	.thumb_func
gcm_gen_table:
.Lfunc_begin2:
	.loc	2 107 0 is_stmt 1               @ ../../../ThirdParty/mbedTLS/library/gcm.c:107:0
	.fnstart
	.cfi_startproc
@ %bb.0:
	@DEBUG_VALUE: gcm_gen_table:ctx <- $r0
	.save	{r4, r5, r6, r7, lr}
	push	{r4, r5, r6, r7, lr}
	.cfi_def_cfa_offset 20
	.cfi_offset lr, -4
	.cfi_offset r7, -8
	.cfi_offset r6, -12
	.cfi_offset r5, -16
	.cfi_offset r4, -20
	.pad	#52
	sub	sp, #52
	.cfi_def_cfa_offset 72
	movs	r4, #0
	@DEBUG_VALUE: gcm_gen_table:ctx <- $r0
.Ltmp22:
	.loc	2 114 5 prologue_end            @ ../../../ThirdParty/mbedTLS/library/gcm.c:114:5
	str	r4, [sp, #36]
	str	r4, [sp, #40]
	str	r4, [sp, #44]
	str	r4, [sp, #48]
.Ltmp23:
	@DEBUG_VALUE: gcm_gen_table:olen <- 0
	.loc	2 112 12                        @ ../../../ThirdParty/mbedTLS/library/gcm.c:112:12
	str	r4, [sp, #32]
.Ltmp24:
	@DEBUG_VALUE: gcm_gen_table:olen <- [DW_OP_plus_uconst 32, DW_OP_deref] $sp
	.loc	2 0 12 is_stmt 0                @ ../../../ThirdParty/mbedTLS/library/gcm.c:0:12
	add	r1, sp, #32
.Ltmp25:
	.loc	2 115 17 is_stmt 1              @ ../../../ThirdParty/mbedTLS/library/gcm.c:115:17
	str	r1, [sp]
	movs	r2, #16
	add	r1, sp, #36
	str	r0, [sp, #12]                   @ 4-byte Spill
.Ltmp26:
	@DEBUG_VALUE: gcm_gen_table:ctx <- [DW_OP_plus_uconst 12] [$sp+0]
	mov	r3, r1
	bl	mbedtls_cipher_update
.Ltmp27:
	@DEBUG_VALUE: gcm_gen_table:ret <- $r0
	.loc	2 115 9 is_stmt 0               @ ../../../ThirdParty/mbedTLS/library/gcm.c:115:9
	cbz	r0, .LBB2_2
.Ltmp28:
@ %bb.1:
	@DEBUG_VALUE: gcm_gen_table:ret <- $r0
	@DEBUG_VALUE: gcm_gen_table:ctx <- [DW_OP_plus_uconst 12] [$sp+0]
	@DEBUG_VALUE: gcm_gen_table:olen <- [DW_OP_plus_uconst 32, DW_OP_deref] $sp
	.loc	2 164 1 is_stmt 1               @ ../../../ThirdParty/mbedTLS/library/gcm.c:164:1
	add	sp, #52
.Ltmp29:
	pop	{r4, r5, r6, r7, pc}
.Ltmp30:
.LBB2_2:
	@DEBUG_VALUE: gcm_gen_table:ret <- $r0
	@DEBUG_VALUE: gcm_gen_table:ctx <- [DW_OP_plus_uconst 12] [$sp+0]
	@DEBUG_VALUE: gcm_gen_table:olen <- [DW_OP_plus_uconst 32, DW_OP_deref] $sp
	.loc	2 0 1 is_stmt 0                 @ ../../../ThirdParty/mbedTLS/library/gcm.c:0:1
	movw	r0, #256
.Ltmp31:
	ldr	r1, [sp, #12]                   @ 4-byte Reload
	adds	r0, r1, r0
	mov	r2, r1
	adds	r2, #128
.Ltmp32:
	@DEBUG_VALUE: gcm_gen_table:lo <- [DW_OP_LLVM_fragment 32 32] $r4
	.loc	2 138 16 is_stmt 1              @ ../../../ThirdParty/mbedTLS/library/gcm.c:138:16
	str	r4, [r2, #64]
	str	r4, [r2, #68]
	.loc	2 139 16                        @ ../../../ThirdParty/mbedTLS/library/gcm.c:139:16
	str	r4, [r1, #64]
	str	r4, [sp, #4]                    @ 4-byte Spill
.Ltmp33:
	@DEBUG_VALUE: gcm_gen_table:lo <- [DW_OP_plus_uconst 4, DW_OP_LLVM_fragment 32 32] [$sp+0]
	str	r4, [r1, #68]
.Ltmp34:
	.loc	2 123 5                         @ ../../../ThirdParty/mbedTLS/library/gcm.c:123:5
	ldr	r1, [sp, #44]
	rev	r3, r1
.Ltmp35:
	@DEBUG_VALUE: gcm_gen_table:hi <- [DW_OP_LLVM_fragment 32 32] undef
	@DEBUG_VALUE: gcm_gen_table:vl <- [DW_OP_LLVM_fragment 32 32] $r3
	@DEBUG_VALUE: gcm_gen_table:hi <- [DW_OP_LLVM_fragment 0 32] $r3
	.loc	2 124 5                         @ ../../../ThirdParty/mbedTLS/library/gcm.c:124:5
	ldr	r1, [sp, #48]
	rev	r1, r1
.Ltmp36:
	@DEBUG_VALUE: gcm_gen_table:vl <- [DW_OP_LLVM_fragment 0 32] $r1
	@DEBUG_VALUE: gcm_gen_table:lo <- [DW_OP_LLVM_fragment 0 32] $r1
	.loc	2 128 16                        @ ../../../ThirdParty/mbedTLS/library/gcm.c:128:16
	stm	r2!, {r1, r3}
.Ltmp37:
	.loc	2 119 5                         @ ../../../ThirdParty/mbedTLS/library/gcm.c:119:5
	ldr	r2, [sp, #36]
	rev	r2, r2
.Ltmp38:
	@DEBUG_VALUE: gcm_gen_table:vh <- [DW_OP_LLVM_fragment 32 32] $r2
	@DEBUG_VALUE: gcm_gen_table:hi <- [DW_OP_LLVM_fragment 32 32] undef
	@DEBUG_VALUE: gcm_gen_table:hi <- [DW_OP_LLVM_fragment 0 32] $r2
	.loc	2 120 5                         @ ../../../ThirdParty/mbedTLS/library/gcm.c:120:5
	ldr	r4, [sp, #40]
	rev	r5, r4
.Ltmp39:
	@DEBUG_VALUE: gcm_gen_table:vh <- [DW_OP_LLVM_fragment 0 32] $r5
	@DEBUG_VALUE: gcm_gen_table:lo <- [DW_OP_LLVM_fragment 0 32] $r5
	.loc	2 129 16                        @ ../../../ThirdParty/mbedTLS/library/gcm.c:129:16
	str	r5, [r0]
	str	r2, [r0, #4]
	movs	r6, #4
.Ltmp40:
	@DEBUG_VALUE: gcm_gen_table:i <- 4
.LBB2_3:                                @ =>This Inner Loop Header: Depth=1
	@DEBUG_VALUE: gcm_gen_table:vh <- [DW_OP_LLVM_fragment 0 32] $r5
	@DEBUG_VALUE: gcm_gen_table:vl <- [DW_OP_LLVM_fragment 32 32] $r3
	@DEBUG_VALUE: gcm_gen_table:vh <- [DW_OP_LLVM_fragment 32 32] $r2
	@DEBUG_VALUE: gcm_gen_table:vl <- [DW_OP_LLVM_fragment 0 32] $r1
	@DEBUG_VALUE: gcm_gen_table:lo <- [DW_OP_plus_uconst 4, DW_OP_LLVM_fragment 32 32] [$sp+0]
	@DEBUG_VALUE: gcm_gen_table:ctx <- [DW_OP_plus_uconst 12] [$sp+0]
	@DEBUG_VALUE: gcm_gen_table:olen <- [DW_OP_plus_uconst 32, DW_OP_deref] $sp
	@DEBUG_VALUE: gcm_gen_table:vl <- [DW_OP_LLVM_fragment 32 32] $r3
	@DEBUG_VALUE: gcm_gen_table:vl <- [DW_OP_LLVM_fragment 0 32] $r1
	@DEBUG_VALUE: gcm_gen_table:vh <- [DW_OP_LLVM_fragment 32 32] $r2
	@DEBUG_VALUE: gcm_gen_table:vh <- [DW_OP_LLVM_fragment 0 32] $r5
	@DEBUG_VALUE: gcm_gen_table:i <- $r6
	.loc	2 147 9                         @ ../../../ThirdParty/mbedTLS/library/gcm.c:147:9
	lsls	r0, r6, #3
	ldr	r4, [sp, #12]                   @ 4-byte Reload
	adds	r4, r4, r0
	.loc	2 145 20                        @ ../../../ThirdParty/mbedTLS/library/gcm.c:145:20
	lsrs	r0, r5, #1
	lsls	r7, r2, #31
	adds	r7, r0, r7
.Ltmp41:
	@DEBUG_VALUE: gcm_gen_table:vh <- [DW_OP_LLVM_fragment 0 32] $r7
	.loc	2 0 20 is_stmt 0                @ ../../../ThirdParty/mbedTLS/library/gcm.c:0:20
	str	r7, [sp, #28]                   @ 4-byte Spill
	movs	r0, #192
	str	r0, [sp, #8]                    @ 4-byte Spill
	.loc	2 148 20 is_stmt 1              @ ../../../ThirdParty/mbedTLS/library/gcm.c:148:20
	str	r7, [r4, r0]
.Ltmp42:
	@DEBUG_VALUE: gcm_gen_table:vh <- [DW_OP_plus_uconst 28, DW_OP_LLVM_fragment 0 32] [$sp+0]
	.loc	2 0 20 is_stmt 0                @ ../../../ThirdParty/mbedTLS/library/gcm.c:0:20
	movs	r7, #1
	.loc	2 143 22 is_stmt 1              @ ../../../ThirdParty/mbedTLS/library/gcm.c:143:22
	ands	r7, r1
	movs	r0, #225
	lsls	r0, r0, #24
	muls	r0, r7, r0
.Ltmp43:
	@DEBUG_VALUE: T <- $r0
	.loc	2 145 20                        @ ../../../ThirdParty/mbedTLS/library/gcm.c:145:20
	lsrs	r2, r2, #1
.Ltmp44:
	.loc	2 145 27 is_stmt 0              @ ../../../ThirdParty/mbedTLS/library/gcm.c:145:27
	eors	r2, r0
.Ltmp45:
	@DEBUG_VALUE: gcm_gen_table:vh <- [DW_OP_LLVM_fragment 32 32] $r2
	.loc	2 148 9 is_stmt 1               @ ../../../ThirdParty/mbedTLS/library/gcm.c:148:9
	mov	r0, r4
.Ltmp46:
	adds	r0, #192
	.loc	2 148 20 is_stmt 0              @ ../../../ThirdParty/mbedTLS/library/gcm.c:148:20
	str	r2, [r0, #4]
	.loc	2 144 20 is_stmt 1              @ ../../../ThirdParty/mbedTLS/library/gcm.c:144:20
	lsls	r0, r5, #31
	.loc	2 144 35 is_stmt 0              @ ../../../ThirdParty/mbedTLS/library/gcm.c:144:35
	lsrs	r5, r3, #1
	.loc	2 144 28                        @ ../../../ThirdParty/mbedTLS/library/gcm.c:144:28
	adds	r0, r0, r5
.Ltmp47:
	@DEBUG_VALUE: gcm_gen_table:vl <- [DW_OP_LLVM_fragment 32 32] $r0
	.loc	2 144 35                        @ ../../../ThirdParty/mbedTLS/library/gcm.c:144:35
	lsrs	r1, r1, #1
.Ltmp48:
	lsls	r3, r3, #31
	adds	r1, r1, r3
.Ltmp49:
	@DEBUG_VALUE: gcm_gen_table:vl <- [DW_OP_LLVM_fragment 0 32] $r1
	.loc	2 147 20 is_stmt 1              @ ../../../ThirdParty/mbedTLS/library/gcm.c:147:20
	str	r1, [r4, #64]
	str	r0, [r4, #68]
.Ltmp50:
	.loc	2 141 26                        @ ../../../ThirdParty/mbedTLS/library/gcm.c:141:26
	asrs	r3, r6, #1
.Ltmp51:
	@DEBUG_VALUE: gcm_gen_table:i <- $r3
	.loc	2 141 5 is_stmt 0               @ ../../../ThirdParty/mbedTLS/library/gcm.c:141:5
	cmp	r6, #1
	mov	r6, r3
.Ltmp52:
	@DEBUG_VALUE: gcm_gen_table:i <- $r6
	@DEBUG_VALUE: gcm_gen_table:i <- $r6
	@DEBUG_VALUE: gcm_gen_table:i <- $r6
	.loc	2 0 5                           @ ../../../ThirdParty/mbedTLS/library/gcm.c:0:5
	ldr	r5, [sp, #28]                   @ 4-byte Reload
.Ltmp53:
	@DEBUG_VALUE: gcm_gen_table:vh <- [DW_OP_LLVM_fragment 0 32] $r5
	mov	r3, r0
.Ltmp54:
	@DEBUG_VALUE: gcm_gen_table:vl <- [DW_OP_LLVM_fragment 32 32] $r3
	.loc	2 141 5                         @ ../../../ThirdParty/mbedTLS/library/gcm.c:141:5
	bgt	.LBB2_3
.Ltmp55:
@ %bb.4:
	@DEBUG_VALUE: gcm_gen_table:i <- $r6
	@DEBUG_VALUE: gcm_gen_table:vh <- [DW_OP_LLVM_fragment 0 32] $r5
	@DEBUG_VALUE: gcm_gen_table:vl <- [DW_OP_LLVM_fragment 32 32] $r3
	@DEBUG_VALUE: gcm_gen_table:vh <- [DW_OP_LLVM_fragment 32 32] $r2
	@DEBUG_VALUE: gcm_gen_table:vl <- [DW_OP_LLVM_fragment 0 32] $r1
	@DEBUG_VALUE: gcm_gen_table:lo <- [DW_OP_plus_uconst 4, DW_OP_LLVM_fragment 32 32] [$sp+0]
	@DEBUG_VALUE: gcm_gen_table:ctx <- [DW_OP_plus_uconst 12] [$sp+0]
	@DEBUG_VALUE: gcm_gen_table:olen <- [DW_OP_plus_uconst 32, DW_OP_deref] $sp
	.loc	2 0 5                           @ ../../../ThirdParty/mbedTLS/library/gcm.c:0:5
	movs	r0, #2
	b	.LBB2_6
.Ltmp56:
.LBB2_5:                                @   in Loop: Header=BB2_6 Depth=1
	@DEBUG_VALUE: gcm_gen_table:i <- [DW_OP_plus_uconst 16] [$sp+0]
	@DEBUG_VALUE: gcm_gen_table:lo <- [DW_OP_plus_uconst 4, DW_OP_LLVM_fragment 32 32] [$sp+0]
	@DEBUG_VALUE: gcm_gen_table:ctx <- [DW_OP_plus_uconst 12] [$sp+0]
	@DEBUG_VALUE: gcm_gen_table:olen <- [DW_OP_plus_uconst 32, DW_OP_deref] $sp
	ldr	r0, [sp, #16]                   @ 4-byte Reload
.Ltmp57:
	.loc	2 151 27 is_stmt 1              @ ../../../ThirdParty/mbedTLS/library/gcm.c:151:27
	lsls	r0, r0, #1
.Ltmp58:
	@DEBUG_VALUE: gcm_gen_table:i <- $r0
	.loc	2 151 5 is_stmt 0               @ ../../../ThirdParty/mbedTLS/library/gcm.c:151:5
	cmp	r0, #9
	bhs	.LBB2_11
.Ltmp59:
.LBB2_6:                                @ =>This Loop Header: Depth=1
                                        @     Child Loop BB2_10 Depth 2
	@DEBUG_VALUE: gcm_gen_table:lo <- [DW_OP_plus_uconst 4, DW_OP_LLVM_fragment 32 32] [$sp+0]
	@DEBUG_VALUE: gcm_gen_table:ctx <- [DW_OP_plus_uconst 12] [$sp+0]
	@DEBUG_VALUE: gcm_gen_table:olen <- [DW_OP_plus_uconst 32, DW_OP_deref] $sp
	@DEBUG_VALUE: gcm_gen_table:vl <- [DW_OP_LLVM_fragment 32 32] undef
	@DEBUG_VALUE: gcm_gen_table:vl <- [DW_OP_LLVM_fragment 0 32] undef
	@DEBUG_VALUE: gcm_gen_table:vh <- [DW_OP_LLVM_fragment 32 32] undef
	@DEBUG_VALUE: gcm_gen_table:vh <- [DW_OP_LLVM_fragment 0 32] undef
	@DEBUG_VALUE: gcm_gen_table:i <- $r0
	@DEBUG_VALUE: HiL <- [DW_OP_plus_uconst 64, DW_OP_stack_value] undef
	@DEBUG_VALUE: HiH <- undef
	@DEBUG_VALUE: gcm_gen_table:j <- 1
	.loc	2 0 5                           @ ../../../ThirdParty/mbedTLS/library/gcm.c:0:5
	str	r0, [sp, #16]                   @ 4-byte Spill
.Ltmp60:
	@DEBUG_VALUE: gcm_gen_table:i <- [DW_OP_plus_uconst 16] [$sp+0]
	.loc	2 156 9 is_stmt 1               @ ../../../ThirdParty/mbedTLS/library/gcm.c:156:9
	cmp	r0, #0
	beq	.LBB2_5
.Ltmp61:
@ %bb.7:                                @   in Loop: Header=BB2_6 Depth=1
	@DEBUG_VALUE: gcm_gen_table:i <- [DW_OP_plus_uconst 16] [$sp+0]
	@DEBUG_VALUE: gcm_gen_table:lo <- [DW_OP_plus_uconst 4, DW_OP_LLVM_fragment 32 32] [$sp+0]
	@DEBUG_VALUE: gcm_gen_table:ctx <- [DW_OP_plus_uconst 12] [$sp+0]
	@DEBUG_VALUE: gcm_gen_table:olen <- [DW_OP_plus_uconst 32, DW_OP_deref] $sp
	@DEBUG_VALUE: gcm_gen_table:j <- 1
	.loc	2 0 9 is_stmt 0                 @ ../../../ThirdParty/mbedTLS/library/gcm.c:0:9
	ldr	r3, [sp, #16]                   @ 4-byte Reload
	lsls	r0, r3, #3
	ldr	r1, [sp, #12]                   @ 4-byte Reload
	str	r0, [sp, #28]                   @ 4-byte Spill
	adds	r0, r1, r0
	ldr	r2, [sp, #8]                    @ 4-byte Reload
	ldr	r7, [r0, r2]
.Ltmp62:
	@DEBUG_VALUE: gcm_gen_table:vh <- [DW_OP_LLVM_fragment 0 32] $r7
	@DEBUG_VALUE: gcm_gen_table:vl <- [DW_OP_LLVM_fragment 0 32] undef
	@DEBUG_VALUE: gcm_gen_table:vl <- [DW_OP_LLVM_fragment 32 32] undef
	ldr	r5, [r0, #64]
	ldr	r2, [r0, #68]
	adds	r0, #192
.Ltmp63:
	@DEBUG_VALUE: HiH <- $r0
	ldr	r6, [r0, #4]
.Ltmp64:
	@DEBUG_VALUE: gcm_gen_table:vh <- [DW_OP_LLVM_fragment 32 32] $r6
	.loc	2 156 9                         @ ../../../ThirdParty/mbedTLS/library/gcm.c:156:9
	cmp	r3, #2
	mov	r0, r3
.Ltmp65:
	bhi	.LBB2_9
.Ltmp66:
@ %bb.8:                                @   in Loop: Header=BB2_6 Depth=1
	@DEBUG_VALUE: gcm_gen_table:vh <- [DW_OP_LLVM_fragment 0 32] $r7
	@DEBUG_VALUE: gcm_gen_table:vh <- [DW_OP_LLVM_fragment 32 32] $r6
	@DEBUG_VALUE: gcm_gen_table:i <- [DW_OP_plus_uconst 16] [$sp+0]
	@DEBUG_VALUE: gcm_gen_table:lo <- [DW_OP_plus_uconst 4, DW_OP_LLVM_fragment 32 32] [$sp+0]
	@DEBUG_VALUE: gcm_gen_table:ctx <- [DW_OP_plus_uconst 12] [$sp+0]
	@DEBUG_VALUE: gcm_gen_table:olen <- [DW_OP_plus_uconst 32, DW_OP_deref] $sp
	@DEBUG_VALUE: gcm_gen_table:j <- 1
	.loc	2 0 9                           @ ../../../ThirdParty/mbedTLS/library/gcm.c:0:9
	movs	r0, #2
.Ltmp67:
.LBB2_9:                                @   in Loop: Header=BB2_6 Depth=1
	@DEBUG_VALUE: gcm_gen_table:vh <- [DW_OP_LLVM_fragment 0 32] $r7
	@DEBUG_VALUE: gcm_gen_table:vh <- [DW_OP_LLVM_fragment 32 32] $r6
	@DEBUG_VALUE: gcm_gen_table:i <- [DW_OP_plus_uconst 16] [$sp+0]
	@DEBUG_VALUE: gcm_gen_table:lo <- [DW_OP_plus_uconst 4, DW_OP_LLVM_fragment 32 32] [$sp+0]
	@DEBUG_VALUE: gcm_gen_table:ctx <- [DW_OP_plus_uconst 12] [$sp+0]
	@DEBUG_VALUE: gcm_gen_table:olen <- [DW_OP_plus_uconst 32, DW_OP_deref] $sp
	@DEBUG_VALUE: gcm_gen_table:j <- 1
	.loc	2 156 9                         @ ../../../ThirdParty/mbedTLS/library/gcm.c:156:9
	subs	r4, r0, #1
	mov	r0, r1
	str	r7, [sp, #24]                   @ 4-byte Spill
.Ltmp68:
	@DEBUG_VALUE: gcm_gen_table:vh <- [DW_OP_plus_uconst 24, DW_OP_LLVM_fragment 0 32] [$sp+0]
	.loc	2 0 9                           @ ../../../ThirdParty/mbedTLS/library/gcm.c:0:9
	str	r5, [sp, #20]                   @ 4-byte Spill
	mov	r5, r2
.Ltmp69:
.LBB2_10:                               @   Parent Loop BB2_6 Depth=1
                                        @ =>  This Inner Loop Header: Depth=2
	@DEBUG_VALUE: gcm_gen_table:vh <- [DW_OP_LLVM_fragment 32 32] $r6
	@DEBUG_VALUE: gcm_gen_table:i <- [DW_OP_plus_uconst 16] [$sp+0]
	@DEBUG_VALUE: gcm_gen_table:lo <- [DW_OP_plus_uconst 4, DW_OP_LLVM_fragment 32 32] [$sp+0]
	@DEBUG_VALUE: gcm_gen_table:ctx <- [DW_OP_plus_uconst 12] [$sp+0]
	@DEBUG_VALUE: gcm_gen_table:olen <- [DW_OP_plus_uconst 32, DW_OP_deref] $sp
	@DEBUG_VALUE: gcm_gen_table:j <- undef
	.loc	2 158 20 is_stmt 1              @ ../../../ThirdParty/mbedTLS/library/gcm.c:158:20
	ldr	r1, [sp, #28]                   @ 4-byte Reload
	adds	r1, r0, r1
	movs	r3, #200
	.loc	2 158 27 is_stmt 0              @ ../../../ThirdParty/mbedTLS/library/gcm.c:158:27
	ldr	r2, [r0, r3]
	.loc	2 158 25                        @ ../../../ThirdParty/mbedTLS/library/gcm.c:158:25
	ldr	r7, [sp, #24]                   @ 4-byte Reload
.Ltmp70:
	@DEBUG_VALUE: gcm_gen_table:vh <- [DW_OP_LLVM_fragment 0 32] $r7
	eors	r2, r7
	.loc	2 158 20                        @ ../../../ThirdParty/mbedTLS/library/gcm.c:158:20
	str	r2, [r1, r3]
	.loc	2 158 27                        @ ../../../ThirdParty/mbedTLS/library/gcm.c:158:27
	mov	r2, r0
	adds	r2, #200
	ldr	r2, [r2, #4]
	.loc	2 158 25                        @ ../../../ThirdParty/mbedTLS/library/gcm.c:158:25
	eors	r2, r6
	.loc	2 158 20                        @ ../../../ThirdParty/mbedTLS/library/gcm.c:158:20
	mov	r3, r1
	adds	r3, #200
	str	r2, [r3, #4]
	.loc	2 159 27 is_stmt 1              @ ../../../ThirdParty/mbedTLS/library/gcm.c:159:27
	ldr	r2, [r0, #72]
	.loc	2 159 25 is_stmt 0              @ ../../../ThirdParty/mbedTLS/library/gcm.c:159:25
	ldr	r3, [sp, #20]                   @ 4-byte Reload
	eors	r2, r3
	.loc	2 159 20                        @ ../../../ThirdParty/mbedTLS/library/gcm.c:159:20
	str	r2, [r1, #72]
	.loc	2 159 27                        @ ../../../ThirdParty/mbedTLS/library/gcm.c:159:27
	ldr	r2, [r0, #76]
	.loc	2 159 25                        @ ../../../ThirdParty/mbedTLS/library/gcm.c:159:25
	eors	r2, r5
	.loc	2 159 20                        @ ../../../ThirdParty/mbedTLS/library/gcm.c:159:20
	str	r2, [r1, #76]
.Ltmp71:
	.loc	2 156 23 is_stmt 1              @ ../../../ThirdParty/mbedTLS/library/gcm.c:156:23
	adds	r0, #8
.Ltmp72:
	@DEBUG_VALUE: gcm_gen_table:j <- [DW_OP_plus_uconst 1, DW_OP_stack_value] undef
	subs	r4, r4, #1
.Ltmp73:
	.loc	2 156 9 is_stmt 0               @ ../../../ThirdParty/mbedTLS/library/gcm.c:156:9
	bne	.LBB2_10
	b	.LBB2_5
.Ltmp74:
.LBB2_11:
	@DEBUG_VALUE: gcm_gen_table:i <- $r0
	@DEBUG_VALUE: gcm_gen_table:lo <- [DW_OP_plus_uconst 4, DW_OP_LLVM_fragment 32 32] [$sp+0]
	@DEBUG_VALUE: gcm_gen_table:ctx <- [DW_OP_plus_uconst 12] [$sp+0]
	@DEBUG_VALUE: gcm_gen_table:olen <- [DW_OP_plus_uconst 32, DW_OP_deref] $sp
	.loc	2 0 0                           @ ../../../ThirdParty/mbedTLS/library/gcm.c:0:0
	ldr	r0, [sp, #4]                    @ 4-byte Reload
.Ltmp75:
	.loc	2 164 1 is_stmt 1               @ ../../../ThirdParty/mbedTLS/library/gcm.c:164:1
	add	sp, #52
.Ltmp76:
	pop	{r4, r5, r6, r7, pc}
.Ltmp77:
.Lfunc_end2:
	.size	gcm_gen_table, .Lfunc_end2-gcm_gen_table
	.cfi_endproc
	.cantunwind
	.fnend
                                        @ -- End function
	.section	.text.mbedtls_gcm_starts,"ax",%progbits
	.hidden	mbedtls_gcm_starts              @ -- Begin function mbedtls_gcm_starts
	.globl	mbedtls_gcm_starts
	.p2align	1
	.type	mbedtls_gcm_starts,%function
	.code	16                              @ @mbedtls_gcm_starts
	.thumb_func
mbedtls_gcm_starts:
.Lfunc_begin3:
	.loc	2 281 0                         @ ../../../ThirdParty/mbedTLS/library/gcm.c:281:0
	.fnstart
	.cfi_startproc
@ %bb.0:
	@DEBUG_VALUE: mbedtls_gcm_starts:ctx <- $r0
	@DEBUG_VALUE: mbedtls_gcm_starts:mode <- $r1
	@DEBUG_VALUE: mbedtls_gcm_starts:iv <- $r2
	@DEBUG_VALUE: mbedtls_gcm_starts:iv_len <- $r3
	.save	{r4, r5, r6, r7, lr}
	push	{r4, r5, r6, r7, lr}
	.cfi_def_cfa_offset 20
	.cfi_offset lr, -4
	.cfi_offset r7, -8
	.cfi_offset r6, -12
	.cfi_offset r5, -16
	.cfi_offset r4, -20
	.pad	#44
	sub	sp, #44
	.cfi_def_cfa_offset 64
	mov	r4, r3
	mov	r6, r0
	movs	r3, #0
.Ltmp78:
	@DEBUG_VALUE: mbedtls_gcm_starts:iv_len <- [DW_OP_LLVM_entry_value 1] $r3
	@DEBUG_VALUE: mbedtls_gcm_starts:olen <- 0
	@DEBUG_VALUE: mbedtls_gcm_starts:add_len <- [DW_OP_plus_uconst 68] [$sp+0]
	@DEBUG_VALUE: mbedtls_gcm_starts:add <- [DW_OP_plus_uconst 64] [$sp+0]
	@DEBUG_VALUE: mbedtls_gcm_starts:iv_len <- $r4
	@DEBUG_VALUE: mbedtls_gcm_starts:iv <- $r2
	@DEBUG_VALUE: mbedtls_gcm_starts:mode <- $r1
	@DEBUG_VALUE: mbedtls_gcm_starts:ctx <- $r6
	.loc	2 286 21 prologue_end           @ ../../../ThirdParty/mbedTLS/library/gcm.c:286:21
	str	r3, [sp, #24]
	movs	r0, #19
	mvns	r0, r0
.Ltmp79:
	.loc	2 294 21                        @ ../../../ThirdParty/mbedTLS/library/gcm.c:294:21
	cmp	r4, #0
	beq	.LBB3_13
.Ltmp80:
@ %bb.1:
	@DEBUG_VALUE: mbedtls_gcm_starts:ctx <- $r6
	@DEBUG_VALUE: mbedtls_gcm_starts:iv_len <- $r4
	@DEBUG_VALUE: mbedtls_gcm_starts:iv <- $r2
	@DEBUG_VALUE: mbedtls_gcm_starts:mode <- $r1
	@DEBUG_VALUE: mbedtls_gcm_starts:add <- [DW_OP_plus_uconst 64] [$sp+0]
	@DEBUG_VALUE: mbedtls_gcm_starts:add_len <- [DW_OP_plus_uconst 68] [$sp+0]
	@DEBUG_VALUE: mbedtls_gcm_starts:olen <- 0
	.loc	2 0 21 is_stmt 0                @ ../../../ThirdParty/mbedTLS/library/gcm.c:0:21
	mov	r7, r2
.Ltmp81:
	@DEBUG_VALUE: mbedtls_gcm_starts:iv <- $r7
	str	r0, [sp, #12]                   @ 4-byte Spill
	movw	r0, #384
	adds	r0, r6, r0
	movw	r2, #352
	.loc	2 302 5 is_stmt 1               @ ../../../ThirdParty/mbedTLS/library/gcm.c:302:5
	str	r3, [r6, r2]
	str	r3, [sp, #20]                   @ 4-byte Spill
	movw	r3, #320
	.loc	2 306 18                        @ ../../../ThirdParty/mbedTLS/library/gcm.c:306:18
	ldr	r5, [sp, #20]                   @ 4-byte Reload
	str	r5, [r6, r3]
	.loc	2 304 15                        @ ../../../ThirdParty/mbedTLS/library/gcm.c:304:15
	str	r1, [r0]
	.loc	2 301 5                         @ ../../../ThirdParty/mbedTLS/library/gcm.c:301:5
	adds	r5, r6, r2
	.loc	2 302 5                         @ ../../../ThirdParty/mbedTLS/library/gcm.c:302:5
	ldr	r0, [sp, #20]                   @ 4-byte Reload
	str	r0, [r5, #4]
	ldr	r0, [sp, #20]                   @ 4-byte Reload
	str	r0, [r5, #8]
	ldr	r0, [sp, #20]                   @ 4-byte Reload
	str	r0, [r5, #12]
	ldr	r0, [sp, #20]                   @ 4-byte Reload
	str	r0, [r5, #16]
	ldr	r0, [sp, #20]                   @ 4-byte Reload
	str	r0, [r5, #20]
	ldr	r0, [sp, #20]                   @ 4-byte Reload
	str	r0, [r5, #24]
	ldr	r0, [sp, #20]                   @ 4-byte Reload
	str	r0, [r5, #28]
	.loc	2 305 10                        @ ../../../ThirdParty/mbedTLS/library/gcm.c:305:10
	adds	r0, r6, r3
	ldr	r2, [sp, #20]                   @ 4-byte Reload
	.loc	2 306 18                        @ ../../../ThirdParty/mbedTLS/library/gcm.c:306:18
	str	r2, [r0, #4]
	str	r2, [r0, #8]
	str	r2, [r0, #12]
	.loc	2 308 9                         @ ../../../ThirdParty/mbedTLS/library/gcm.c:308:9
	cmp	r4, #12
	bne	.LBB3_3
.Ltmp82:
@ %bb.2:
	@DEBUG_VALUE: mbedtls_gcm_starts:iv <- $r7
	@DEBUG_VALUE: mbedtls_gcm_starts:ctx <- $r6
	@DEBUG_VALUE: mbedtls_gcm_starts:iv_len <- $r4
	@DEBUG_VALUE: mbedtls_gcm_starts:mode <- $r1
	@DEBUG_VALUE: mbedtls_gcm_starts:add <- [DW_OP_plus_uconst 64] [$sp+0]
	@DEBUG_VALUE: mbedtls_gcm_starts:add_len <- [DW_OP_plus_uconst 68] [$sp+0]
	@DEBUG_VALUE: mbedtls_gcm_starts:olen <- 0
	.loc	2 0 9 is_stmt 0                 @ ../../../ThirdParty/mbedTLS/library/gcm.c:0:9
	movw	r0, #367
	adds	r4, r6, r0
.Ltmp83:
	movs	r2, #12
.Ltmp84:
	.loc	2 310 9 is_stmt 1               @ ../../../ThirdParty/mbedTLS/library/gcm.c:310:9
	mov	r0, r5
	mov	r1, r7
.Ltmp85:
	@DEBUG_VALUE: mbedtls_gcm_starts:mode <- [DW_OP_LLVM_entry_value 1] $r1
	bl	__aeabi_memcpy
	movs	r0, #1
	.loc	2 311 20                        @ ../../../ThirdParty/mbedTLS/library/gcm.c:311:20
	strb	r0, [r4]
	b	.LBB3_12
.Ltmp86:
.LBB3_3:
	@DEBUG_VALUE: mbedtls_gcm_starts:iv <- $r7
	@DEBUG_VALUE: mbedtls_gcm_starts:ctx <- $r6
	@DEBUG_VALUE: mbedtls_gcm_starts:iv_len <- $r4
	@DEBUG_VALUE: mbedtls_gcm_starts:mode <- $r1
	@DEBUG_VALUE: mbedtls_gcm_starts:add <- [DW_OP_plus_uconst 64] [$sp+0]
	@DEBUG_VALUE: mbedtls_gcm_starts:add_len <- [DW_OP_plus_uconst 68] [$sp+0]
	@DEBUG_VALUE: mbedtls_gcm_starts:olen <- 0
	.loc	2 0 20 is_stmt 0                @ ../../../ThirdParty/mbedTLS/library/gcm.c:0:20
	str	r6, [sp, #16]                   @ 4-byte Spill
.Ltmp87:
	@DEBUG_VALUE: mbedtls_gcm_starts:ctx <- [DW_OP_plus_uconst 16] [$sp+0]
	.loc	2 315 9 is_stmt 1               @ ../../../ThirdParty/mbedTLS/library/gcm.c:315:9
	str	r2, [sp, #40]
.Ltmp88:
	.loc	2 316 9                         @ ../../../ThirdParty/mbedTLS/library/gcm.c:316:9
	lsls	r0, r4, #3
	add	r1, sp, #28
.Ltmp89:
	@DEBUG_VALUE: mbedtls_gcm_starts:mode <- [DW_OP_LLVM_entry_value 1] $r1
	strb	r0, [r1, #15]
	lsrs	r0, r4, #5
	strb	r0, [r1, #14]
	lsrs	r0, r4, #13
	strb	r0, [r1, #13]
	lsrs	r0, r4, #21
	strb	r0, [r1, #12]
.Ltmp90:
	.loc	2 315 9                         @ ../../../ThirdParty/mbedTLS/library/gcm.c:315:9
	str	r2, [sp, #36]
	str	r2, [sp, #32]
	str	r2, [sp, #28]
.Ltmp91:
	@DEBUG_VALUE: mbedtls_gcm_starts:p <- $r7
	@DEBUG_VALUE: mbedtls_gcm_starts:iv_len <- undef
.LBB3_4:                                @ =>This Loop Header: Depth=1
                                        @     Child Loop BB3_7 Depth 2
	@DEBUG_VALUE: mbedtls_gcm_starts:p <- $r7
	@DEBUG_VALUE: mbedtls_gcm_starts:add <- [DW_OP_plus_uconst 64] [$sp+0]
	@DEBUG_VALUE: mbedtls_gcm_starts:add_len <- [DW_OP_plus_uconst 68] [$sp+0]
	@DEBUG_VALUE: mbedtls_gcm_starts:mode <- [DW_OP_LLVM_entry_value 1] $r1
	@DEBUG_VALUE: mbedtls_gcm_starts:olen <- 0
	@DEBUG_VALUE: mbedtls_gcm_starts:iv_len <- $r4
	@DEBUG_VALUE: mbedtls_gcm_starts:p <- $r7
	.loc	2 321 23                        @ ../../../ThirdParty/mbedTLS/library/gcm.c:321:23
	cmp	r4, #16
	mov	r6, r4
	blo	.LBB3_6
.Ltmp92:
@ %bb.5:                                @   in Loop: Header=BB3_4 Depth=1
	@DEBUG_VALUE: mbedtls_gcm_starts:p <- $r7
	@DEBUG_VALUE: mbedtls_gcm_starts:iv_len <- $r4
	@DEBUG_VALUE: mbedtls_gcm_starts:add <- [DW_OP_plus_uconst 64] [$sp+0]
	@DEBUG_VALUE: mbedtls_gcm_starts:add_len <- [DW_OP_plus_uconst 68] [$sp+0]
	@DEBUG_VALUE: mbedtls_gcm_starts:mode <- [DW_OP_LLVM_entry_value 1] $r1
	@DEBUG_VALUE: mbedtls_gcm_starts:olen <- 0
	.loc	2 0 23 is_stmt 0                @ ../../../ThirdParty/mbedTLS/library/gcm.c:0:23
	movs	r6, #16
.Ltmp93:
.LBB3_6:                                @   in Loop: Header=BB3_4 Depth=1
	@DEBUG_VALUE: mbedtls_gcm_starts:p <- $r7
	@DEBUG_VALUE: mbedtls_gcm_starts:iv_len <- $r4
	@DEBUG_VALUE: mbedtls_gcm_starts:add <- [DW_OP_plus_uconst 64] [$sp+0]
	@DEBUG_VALUE: mbedtls_gcm_starts:add_len <- [DW_OP_plus_uconst 68] [$sp+0]
	@DEBUG_VALUE: mbedtls_gcm_starts:mode <- [DW_OP_LLVM_entry_value 1] $r1
	@DEBUG_VALUE: mbedtls_gcm_starts:olen <- 0
	@DEBUG_VALUE: mbedtls_gcm_starts:use_len <- $r6
	@DEBUG_VALUE: mbedtls_gcm_starts:i <- 0
	mov	r0, r2
.Ltmp94:
.LBB3_7:                                @   Parent Loop BB3_4 Depth=1
                                        @ =>  This Inner Loop Header: Depth=2
	@DEBUG_VALUE: mbedtls_gcm_starts:p <- $r7
	@DEBUG_VALUE: mbedtls_gcm_starts:use_len <- $r6
	@DEBUG_VALUE: mbedtls_gcm_starts:iv_len <- $r4
	@DEBUG_VALUE: mbedtls_gcm_starts:add <- [DW_OP_plus_uconst 64] [$sp+0]
	@DEBUG_VALUE: mbedtls_gcm_starts:add_len <- [DW_OP_plus_uconst 68] [$sp+0]
	@DEBUG_VALUE: mbedtls_gcm_starts:mode <- [DW_OP_LLVM_entry_value 1] $r1
	@DEBUG_VALUE: mbedtls_gcm_starts:olen <- 0
	@DEBUG_VALUE: mbedtls_gcm_starts:i <- $r0
	.loc	2 324 30 is_stmt 1              @ ../../../ThirdParty/mbedTLS/library/gcm.c:324:30
	ldrb	r1, [r7, r0]
	.loc	2 324 27 is_stmt 0              @ ../../../ThirdParty/mbedTLS/library/gcm.c:324:27
	ldrb	r2, [r5, r0]
	eors	r2, r1
	strb	r2, [r5, r0]
	.loc	2 323 39 is_stmt 1              @ ../../../ThirdParty/mbedTLS/library/gcm.c:323:39
	adds	r0, r0, #1
.Ltmp95:
	@DEBUG_VALUE: mbedtls_gcm_starts:i <- $r0
	.loc	2 323 13 is_stmt 0              @ ../../../ThirdParty/mbedTLS/library/gcm.c:323:13
	cmp	r0, r6
	blo	.LBB3_7
.Ltmp96:
@ %bb.8:                                @   in Loop: Header=BB3_4 Depth=1
	@DEBUG_VALUE: mbedtls_gcm_starts:p <- $r7
	@DEBUG_VALUE: mbedtls_gcm_starts:use_len <- $r6
	@DEBUG_VALUE: mbedtls_gcm_starts:iv_len <- $r4
	@DEBUG_VALUE: mbedtls_gcm_starts:i <- $r0
	@DEBUG_VALUE: mbedtls_gcm_starts:add <- [DW_OP_plus_uconst 64] [$sp+0]
	@DEBUG_VALUE: mbedtls_gcm_starts:add_len <- [DW_OP_plus_uconst 68] [$sp+0]
	@DEBUG_VALUE: mbedtls_gcm_starts:mode <- [DW_OP_LLVM_entry_value 1] $r1
	@DEBUG_VALUE: mbedtls_gcm_starts:olen <- 0
	.loc	2 326 13 is_stmt 1              @ ../../../ThirdParty/mbedTLS/library/gcm.c:326:13
	ldr	r0, [sp, #16]                   @ 4-byte Reload
.Ltmp97:
	@DEBUG_VALUE: mbedtls_gcm_starts:ctx <- $r0
	mov	r1, r5
	mov	r2, r5
	bl	gcm_mult
.Ltmp98:
	.loc	2 329 15                        @ ../../../ThirdParty/mbedTLS/library/gcm.c:329:15
	adds	r7, r7, r6
.Ltmp99:
	@DEBUG_VALUE: mbedtls_gcm_starts:iv <- [DW_OP_LLVM_entry_value 1] $r2
	@DEBUG_VALUE: mbedtls_gcm_starts:p <- $r7
	.loc	2 328 20                        @ ../../../ThirdParty/mbedTLS/library/gcm.c:328:20
	subs	r4, r4, r6
.Ltmp100:
	@DEBUG_VALUE: mbedtls_gcm_starts:iv_len <- $r4
	.loc	2 0 20 is_stmt 0                @ ../../../ThirdParty/mbedTLS/library/gcm.c:0:20
	ldr	r2, [sp, #20]                   @ 4-byte Reload
.Ltmp101:
	.loc	2 319 9 is_stmt 1               @ ../../../ThirdParty/mbedTLS/library/gcm.c:319:9
	bne	.LBB3_4
.Ltmp102:
@ %bb.9:
	@DEBUG_VALUE: mbedtls_gcm_starts:p <- $r7
	@DEBUG_VALUE: mbedtls_gcm_starts:use_len <- $r6
	@DEBUG_VALUE: mbedtls_gcm_starts:iv_len <- $r4
	@DEBUG_VALUE: mbedtls_gcm_starts:add <- [DW_OP_plus_uconst 64] [$sp+0]
	@DEBUG_VALUE: mbedtls_gcm_starts:add_len <- [DW_OP_plus_uconst 68] [$sp+0]
	@DEBUG_VALUE: mbedtls_gcm_starts:mode <- [DW_OP_LLVM_entry_value 1] $r1
	@DEBUG_VALUE: mbedtls_gcm_starts:olen <- 0
	.loc	2 0 9 is_stmt 0                 @ ../../../ThirdParty/mbedTLS/library/gcm.c:0:9
	movw	r0, #352
	ldr	r6, [sp, #16]                   @ 4-byte Reload
.Ltmp103:
	.loc	2 332 9 is_stmt 1               @ ../../../ThirdParty/mbedTLS/library/gcm.c:332:9
	adds	r0, r6, r0
	ldr	r1, [sp, #12]                   @ 4-byte Reload
	adds	r1, r1, #4
.Ltmp104:
.LBB3_10:                               @ =>This Inner Loop Header: Depth=1
	@DEBUG_VALUE: mbedtls_gcm_starts:p <- $r7
	@DEBUG_VALUE: mbedtls_gcm_starts:add <- [DW_OP_plus_uconst 64] [$sp+0]
	@DEBUG_VALUE: mbedtls_gcm_starts:add_len <- [DW_OP_plus_uconst 68] [$sp+0]
	@DEBUG_VALUE: mbedtls_gcm_starts:mode <- [DW_OP_LLVM_entry_value 1] $r1
	@DEBUG_VALUE: mbedtls_gcm_starts:olen <- 0
	@DEBUG_VALUE: mbedtls_gcm_starts:i <- undef
	.loc	2 0 9 is_stmt 0                 @ ../../../ThirdParty/mbedTLS/library/gcm.c:0:9
	add	r2, sp, #28
.Ltmp105:
	.loc	2 333 26 is_stmt 1              @ ../../../ThirdParty/mbedTLS/library/gcm.c:333:26
	adds	r2, r2, r1
	ldrb	r2, [r2, #16]
	.loc	2 333 23 is_stmt 0              @ ../../../ThirdParty/mbedTLS/library/gcm.c:333:23
	adds	r3, r0, r1
	ldrb	r4, [r3, #16]
	eors	r4, r2
	strb	r4, [r3, #16]
.Ltmp106:
	@DEBUG_VALUE: mbedtls_gcm_starts:i <- [DW_OP_plus_uconst 1, DW_OP_stack_value] undef
	.loc	2 332 23 is_stmt 1              @ ../../../ThirdParty/mbedTLS/library/gcm.c:332:23
	adds	r1, r1, #1
.Ltmp107:
	.loc	2 332 9 is_stmt 0               @ ../../../ThirdParty/mbedTLS/library/gcm.c:332:9
	blo	.LBB3_10
.Ltmp108:
@ %bb.11:
	@DEBUG_VALUE: mbedtls_gcm_starts:p <- $r7
	@DEBUG_VALUE: mbedtls_gcm_starts:add <- [DW_OP_plus_uconst 64] [$sp+0]
	@DEBUG_VALUE: mbedtls_gcm_starts:add_len <- [DW_OP_plus_uconst 68] [$sp+0]
	@DEBUG_VALUE: mbedtls_gcm_starts:mode <- [DW_OP_LLVM_entry_value 1] $r1
	@DEBUG_VALUE: mbedtls_gcm_starts:olen <- 0
	.loc	2 335 9 is_stmt 1               @ ../../../ThirdParty/mbedTLS/library/gcm.c:335:9
	mov	r0, r6
	mov	r1, r5
	mov	r2, r5
	bl	gcm_mult
.Ltmp109:
.LBB3_12:
	@DEBUG_VALUE: mbedtls_gcm_starts:add <- [DW_OP_plus_uconst 64] [$sp+0]
	@DEBUG_VALUE: mbedtls_gcm_starts:add_len <- [DW_OP_plus_uconst 68] [$sp+0]
	@DEBUG_VALUE: mbedtls_gcm_starts:mode <- [DW_OP_LLVM_entry_value 1] $r1
	@DEBUG_VALUE: mbedtls_gcm_starts:olen <- 0
	@DEBUG_VALUE: mbedtls_gcm_starts:olen <- [DW_OP_plus_uconst 24, DW_OP_deref] $sp
	.loc	2 0 9 is_stmt 0                 @ ../../../ThirdParty/mbedTLS/library/gcm.c:0:9
	add	r0, sp, #24
.Ltmp110:
	.loc	2 338 17 is_stmt 1              @ ../../../ThirdParty/mbedTLS/library/gcm.c:338:17
	str	r0, [sp]
	movw	r0, #336
	.loc	2 338 70 is_stmt 0              @ ../../../ThirdParty/mbedTLS/library/gcm.c:338:70
	adds	r3, r6, r0
	movs	r2, #16
	.loc	2 338 17                        @ ../../../ThirdParty/mbedTLS/library/gcm.c:338:17
	mov	r0, r6
	mov	r1, r5
	str	r2, [sp, #8]                    @ 4-byte Spill
	bl	mbedtls_cipher_update
.Ltmp111:
	@DEBUG_VALUE: mbedtls_gcm_starts:ret <- $r0
	.loc	2 338 9                         @ ../../../ThirdParty/mbedTLS/library/gcm.c:338:9
	cbz	r0, .LBB3_14
.Ltmp112:
.LBB3_13:
	@DEBUG_VALUE: mbedtls_gcm_starts:add <- [DW_OP_plus_uconst 64] [$sp+0]
	.loc	2 360 1 is_stmt 1               @ ../../../ThirdParty/mbedTLS/library/gcm.c:360:1
	add	sp, #44
.Ltmp113:
	pop	{r4, r5, r6, r7, pc}
.LBB3_14:
.Ltmp114:
	@DEBUG_VALUE: mbedtls_gcm_starts:ret <- $r0
	@DEBUG_VALUE: mbedtls_gcm_starts:olen <- [DW_OP_plus_uconst 24, DW_OP_deref] $sp
	@DEBUG_VALUE: mbedtls_gcm_starts:add <- [DW_OP_plus_uconst 64] [$sp+0]
	@DEBUG_VALUE: mbedtls_gcm_starts:add_len <- [DW_OP_plus_uconst 68] [$sp+0]
	@DEBUG_VALUE: mbedtls_gcm_starts:mode <- [DW_OP_LLVM_entry_value 1] $r1
	.loc	2 0 1 is_stmt 0                 @ ../../../ThirdParty/mbedTLS/library/gcm.c:0:1
	movw	r0, #328
.Ltmp115:
	ldr	r5, [sp, #68]
	adds	r1, r6, r0
	movs	r0, #0
.Ltmp116:
	@DEBUG_VALUE: mbedtls_gcm_starts:p <- undef
	@DEBUG_VALUE: mbedtls_gcm_starts:add_len <- $r5
	.loc	2 344 18 is_stmt 1              @ ../../../ThirdParty/mbedTLS/library/gcm.c:344:18
	str	r5, [r1]
	str	r0, [r1, #4]
	.loc	2 346 5                         @ ../../../ThirdParty/mbedTLS/library/gcm.c:346:5
	cmp	r5, #0
	beq	.LBB3_13
.Ltmp117:
@ %bb.15:
	@DEBUG_VALUE: mbedtls_gcm_starts:add_len <- $r5
	@DEBUG_VALUE: mbedtls_gcm_starts:olen <- [DW_OP_plus_uconst 24, DW_OP_deref] $sp
	@DEBUG_VALUE: mbedtls_gcm_starts:add <- [DW_OP_plus_uconst 64] [$sp+0]
	@DEBUG_VALUE: mbedtls_gcm_starts:mode <- [DW_OP_LLVM_entry_value 1] $r1
	.loc	2 0 5 is_stmt 0                 @ ../../../ThirdParty/mbedTLS/library/gcm.c:0:5
	movw	r0, #368
	ldr	r7, [sp, #64]
.Ltmp118:
	@DEBUG_VALUE: mbedtls_gcm_starts:p <- $r7
	adds	r0, r6, r0
	str	r0, [sp, #20]                   @ 4-byte Spill
	movw	r0, #368
	str	r6, [sp, #16]                   @ 4-byte Spill
	.loc	2 346 5                         @ ../../../ThirdParty/mbedTLS/library/gcm.c:346:5
	adds	r6, r6, r0
	movs	r0, #0
	str	r0, [sp, #12]                   @ 4-byte Spill
.Ltmp119:
.LBB3_16:                               @ =>This Loop Header: Depth=1
                                        @     Child Loop BB3_19 Depth 2
	@DEBUG_VALUE: mbedtls_gcm_starts:p <- $r7
	@DEBUG_VALUE: mbedtls_gcm_starts:add_len <- $r5
	@DEBUG_VALUE: mbedtls_gcm_starts:olen <- [DW_OP_plus_uconst 24, DW_OP_deref] $sp
	@DEBUG_VALUE: mbedtls_gcm_starts:add <- [DW_OP_plus_uconst 64] [$sp+0]
	@DEBUG_VALUE: mbedtls_gcm_starts:mode <- [DW_OP_LLVM_entry_value 1] $r1
	@DEBUG_VALUE: mbedtls_gcm_starts:add_len <- $r5
	@DEBUG_VALUE: mbedtls_gcm_starts:p <- $r7
	.loc	2 348 19 is_stmt 1              @ ../../../ThirdParty/mbedTLS/library/gcm.c:348:19
	cmp	r5, #16
	mov	r4, r5
	blo	.LBB3_18
.Ltmp120:
@ %bb.17:                               @   in Loop: Header=BB3_16 Depth=1
	@DEBUG_VALUE: mbedtls_gcm_starts:p <- $r7
	@DEBUG_VALUE: mbedtls_gcm_starts:add_len <- $r5
	@DEBUG_VALUE: mbedtls_gcm_starts:olen <- [DW_OP_plus_uconst 24, DW_OP_deref] $sp
	@DEBUG_VALUE: mbedtls_gcm_starts:add <- [DW_OP_plus_uconst 64] [$sp+0]
	@DEBUG_VALUE: mbedtls_gcm_starts:mode <- [DW_OP_LLVM_entry_value 1] $r1
	ldr	r4, [sp, #8]                    @ 4-byte Reload
.Ltmp121:
.LBB3_18:                               @   in Loop: Header=BB3_16 Depth=1
	@DEBUG_VALUE: mbedtls_gcm_starts:p <- $r7
	@DEBUG_VALUE: mbedtls_gcm_starts:add_len <- $r5
	@DEBUG_VALUE: mbedtls_gcm_starts:olen <- [DW_OP_plus_uconst 24, DW_OP_deref] $sp
	@DEBUG_VALUE: mbedtls_gcm_starts:add <- [DW_OP_plus_uconst 64] [$sp+0]
	@DEBUG_VALUE: mbedtls_gcm_starts:mode <- [DW_OP_LLVM_entry_value 1] $r1
	@DEBUG_VALUE: mbedtls_gcm_starts:use_len <- $r4
	@DEBUG_VALUE: mbedtls_gcm_starts:i <- 0
	.loc	2 0 19 is_stmt 0                @ ../../../ThirdParty/mbedTLS/library/gcm.c:0:19
	ldr	r0, [sp, #12]                   @ 4-byte Reload
.Ltmp122:
.LBB3_19:                               @   Parent Loop BB3_16 Depth=1
                                        @ =>  This Inner Loop Header: Depth=2
	@DEBUG_VALUE: mbedtls_gcm_starts:p <- $r7
	@DEBUG_VALUE: mbedtls_gcm_starts:add_len <- $r5
	@DEBUG_VALUE: mbedtls_gcm_starts:use_len <- $r4
	@DEBUG_VALUE: mbedtls_gcm_starts:olen <- [DW_OP_plus_uconst 24, DW_OP_deref] $sp
	@DEBUG_VALUE: mbedtls_gcm_starts:add <- [DW_OP_plus_uconst 64] [$sp+0]
	@DEBUG_VALUE: mbedtls_gcm_starts:mode <- [DW_OP_LLVM_entry_value 1] $r1
	@DEBUG_VALUE: mbedtls_gcm_starts:i <- $r0
	.loc	2 351 28 is_stmt 1              @ ../../../ThirdParty/mbedTLS/library/gcm.c:351:28
	ldrb	r1, [r7, r0]
	.loc	2 351 25 is_stmt 0              @ ../../../ThirdParty/mbedTLS/library/gcm.c:351:25
	ldrb	r2, [r6, r0]
	eors	r2, r1
	strb	r2, [r6, r0]
	.loc	2 350 35 is_stmt 1              @ ../../../ThirdParty/mbedTLS/library/gcm.c:350:35
	adds	r0, r0, #1
.Ltmp123:
	@DEBUG_VALUE: mbedtls_gcm_starts:i <- $r0
	.loc	2 350 9 is_stmt 0               @ ../../../ThirdParty/mbedTLS/library/gcm.c:350:9
	cmp	r0, r4
	blo	.LBB3_19
.Ltmp124:
@ %bb.20:                               @   in Loop: Header=BB3_16 Depth=1
	@DEBUG_VALUE: mbedtls_gcm_starts:p <- $r7
	@DEBUG_VALUE: mbedtls_gcm_starts:add_len <- $r5
	@DEBUG_VALUE: mbedtls_gcm_starts:use_len <- $r4
	@DEBUG_VALUE: mbedtls_gcm_starts:i <- $r0
	@DEBUG_VALUE: mbedtls_gcm_starts:olen <- [DW_OP_plus_uconst 24, DW_OP_deref] $sp
	@DEBUG_VALUE: mbedtls_gcm_starts:add <- [DW_OP_plus_uconst 64] [$sp+0]
	@DEBUG_VALUE: mbedtls_gcm_starts:mode <- [DW_OP_LLVM_entry_value 1] $r1
	.loc	2 353 9 is_stmt 1               @ ../../../ThirdParty/mbedTLS/library/gcm.c:353:9
	ldr	r0, [sp, #16]                   @ 4-byte Reload
.Ltmp125:
	.loc	2 0 9 is_stmt 0                 @ ../../../ThirdParty/mbedTLS/library/gcm.c:0:9
	ldr	r1, [sp, #20]                   @ 4-byte Reload
	.loc	2 353 9                         @ ../../../ThirdParty/mbedTLS/library/gcm.c:353:9
	mov	r2, r1
	bl	gcm_mult
	.loc	2 356 11 is_stmt 1              @ ../../../ThirdParty/mbedTLS/library/gcm.c:356:11
	adds	r7, r7, r4
.Ltmp126:
	@DEBUG_VALUE: mbedtls_gcm_starts:p <- $r7
	.loc	2 355 17                        @ ../../../ThirdParty/mbedTLS/library/gcm.c:355:17
	subs	r5, r5, r4
.Ltmp127:
	@DEBUG_VALUE: mbedtls_gcm_starts:add_len <- $r5
	.loc	2 346 5                         @ ../../../ThirdParty/mbedTLS/library/gcm.c:346:5
	bne	.LBB3_16
.Ltmp128:
@ %bb.21:
	@DEBUG_VALUE: mbedtls_gcm_starts:p <- $r7
	@DEBUG_VALUE: mbedtls_gcm_starts:add_len <- $r5
	@DEBUG_VALUE: mbedtls_gcm_starts:use_len <- $r4
	@DEBUG_VALUE: mbedtls_gcm_starts:olen <- [DW_OP_plus_uconst 24, DW_OP_deref] $sp
	@DEBUG_VALUE: mbedtls_gcm_starts:add <- [DW_OP_plus_uconst 64] [$sp+0]
	@DEBUG_VALUE: mbedtls_gcm_starts:mode <- [DW_OP_LLVM_entry_value 1] $r1
	.loc	2 0 5 is_stmt 0                 @ ../../../ThirdParty/mbedTLS/library/gcm.c:0:5
	movs	r0, #0
	.loc	2 360 1 is_stmt 1               @ ../../../ThirdParty/mbedTLS/library/gcm.c:360:1
	add	sp, #44
.Ltmp129:
	pop	{r4, r5, r6, r7, pc}
.Ltmp130:
.Lfunc_end3:
	.size	mbedtls_gcm_starts, .Lfunc_end3-mbedtls_gcm_starts
	.cfi_endproc
	.cantunwind
	.fnend
                                        @ -- End function
	.section	.text.gcm_mult,"ax",%progbits
	.p2align	2                               @ -- Begin function gcm_mult
	.type	gcm_mult,%function
	.code	16                              @ @gcm_mult
	.thumb_func
gcm_mult:
.Lfunc_begin4:
	.loc	2 221 0                         @ ../../../ThirdParty/mbedTLS/library/gcm.c:221:0
	.fnstart
	.cfi_startproc
@ %bb.0:
	@DEBUG_VALUE: gcm_mult:ctx <- $r0
	@DEBUG_VALUE: gcm_mult:x <- $r1
	@DEBUG_VALUE: gcm_mult:output <- $r2
	.save	{r4, r5, r6, r7, lr}
	push	{r4, r5, r6, r7, lr}
	.cfi_def_cfa_offset 20
	.cfi_offset lr, -4
	.cfi_offset r7, -8
	.cfi_offset r6, -12
	.cfi_offset r5, -16
	.cfi_offset r4, -20
	.pad	#28
	sub	sp, #28
	.cfi_def_cfa_offset 48
	str	r2, [sp]                        @ 4-byte Spill
	str	r1, [sp, #8]                    @ 4-byte Spill
.Ltmp131:
	@DEBUG_VALUE: gcm_mult:i <- 0
	@DEBUG_VALUE: gcm_mult:output <- [$sp+0]
	@DEBUG_VALUE: gcm_mult:x <- [DW_OP_plus_uconst 8] [$sp+0]
	@DEBUG_VALUE: gcm_mult:ctx <- $r0
	.loc	2 240 10 prologue_end           @ ../../../ThirdParty/mbedTLS/library/gcm.c:240:10
	ldrb	r1, [r1, #15]
.Ltmp132:
	@DEBUG_VALUE: gcm_mult:lo <- undef
	.loc	2 242 10                        @ ../../../ThirdParty/mbedTLS/library/gcm.c:242:10
	lsls	r1, r1, #28
	lsrs	r1, r1, #25
	str	r0, [sp, #4]                    @ 4-byte Spill
.Ltmp133:
	@DEBUG_VALUE: gcm_mult:ctx <- [DW_OP_plus_uconst 4] [$sp+0]
	adds	r0, r0, r1
	movs	r1, #192
	str	r1, [sp, #12]                   @ 4-byte Spill
	ldr	r4, [r0, r1]
.Ltmp134:
	@DEBUG_VALUE: gcm_mult:zl <- [DW_OP_LLVM_fragment 0 32] undef
	@DEBUG_VALUE: gcm_mult:zl <- [DW_OP_LLVM_fragment 32 32] undef
	@DEBUG_VALUE: gcm_mult:zh <- [DW_OP_LLVM_fragment 0 32] $r4
	.loc	2 243 10                        @ ../../../ThirdParty/mbedTLS/library/gcm.c:243:10
	ldr	r2, [r0, #64]
	ldr	r7, [r0, #68]
	.loc	2 242 10                        @ ../../../ThirdParty/mbedTLS/library/gcm.c:242:10
	adds	r0, #192
	ldr	r3, [r0, #4]
.Ltmp135:
	@DEBUG_VALUE: gcm_mult:zh <- [DW_OP_LLVM_fragment 32 32] $r3
	.loc	2 0 10 is_stmt 0                @ ../../../ThirdParty/mbedTLS/library/gcm.c:0:10
	movs	r5, #15
.Ltmp136:
	@DEBUG_VALUE: gcm_mult:i <- 15
	b	.LBB4_3
.Ltmp137:
.LBB4_1:                                @   in Loop: Header=BB4_3 Depth=1
	@DEBUG_VALUE: gcm_mult:i <- [DW_OP_plus_uconst 20] [$sp+0]
	@DEBUG_VALUE: gcm_mult:hi <- [DW_OP_plus_uconst 24] [$sp+0]
	@DEBUG_VALUE: gcm_mult:zl <- [DW_OP_LLVM_fragment 32 32] $r7
	@DEBUG_VALUE: gcm_mult:zh <- [DW_OP_LLVM_fragment 0 32] $r4
	@DEBUG_VALUE: gcm_mult:zh <- [DW_OP_LLVM_fragment 32 32] $r3
	@DEBUG_VALUE: gcm_mult:zl <- [DW_OP_LLVM_fragment 0 32] $r2
	@DEBUG_VALUE: gcm_mult:lo <- [DW_OP_LLVM_convert 8 7, DW_OP_LLVM_convert 32 7, DW_OP_constu 15, DW_OP_and, DW_OP_LLVM_convert 32 7, DW_OP_LLVM_convert 8 7, DW_OP_stack_value] $r0
	@DEBUG_VALUE: gcm_mult:ctx <- [DW_OP_plus_uconst 4] [$sp+0]
	@DEBUG_VALUE: gcm_mult:x <- [DW_OP_plus_uconst 8] [$sp+0]
	@DEBUG_VALUE: gcm_mult:output <- [$sp+0]
	@DEBUG_VALUE: gcm_mult:lo <- undef
	@DEBUG_VALUE: gcm_mult:rem <- [DW_OP_LLVM_convert 64 7, DW_OP_LLVM_convert 8 7, DW_OP_constu 15, DW_OP_and, DW_OP_stack_value, DW_OP_LLVM_fragment 0 8] $r2
	.loc	2 253 23 is_stmt 1              @ ../../../ThirdParty/mbedTLS/library/gcm.c:253:23
	lsls	r1, r4, #28
	.loc	2 253 38 is_stmt 0              @ ../../../ThirdParty/mbedTLS/library/gcm.c:253:38
	lsrs	r5, r7, #4
	.loc	2 253 31                        @ ../../../ThirdParty/mbedTLS/library/gcm.c:253:31
	adds	r1, r5, r1
.Ltmp138:
	@DEBUG_VALUE: gcm_mult:zl <- [DW_OP_LLVM_fragment 32 32] $r1
	.loc	2 256 19 is_stmt 1              @ ../../../ThirdParty/mbedTLS/library/gcm.c:256:19
	lsls	r0, r0, #28
	lsrs	r0, r0, #25
	ldr	r6, [sp, #4]                    @ 4-byte Reload
	adds	r5, r6, r0
	.loc	2 257 19                        @ ../../../ThirdParty/mbedTLS/library/gcm.c:257:19
	ldr	r0, [r5, #64]
	str	r0, [sp, #16]                   @ 4-byte Spill
	ldr	r0, [r5, #68]
	.loc	2 257 16 is_stmt 0              @ ../../../ThirdParty/mbedTLS/library/gcm.c:257:16
	eors	r0, r1
.Ltmp139:
	@DEBUG_VALUE: gcm_mult:zl <- [DW_OP_LLVM_fragment 32 32] $r0
	.loc	2 253 38 is_stmt 1              @ ../../../ThirdParty/mbedTLS/library/gcm.c:253:38
	lsrs	r1, r2, #4
	lsls	r7, r7, #28
	adds	r1, r1, r7
.Ltmp140:
	@DEBUG_VALUE: gcm_mult:zl <- [DW_OP_LLVM_fragment 0 32] $r1
	.loc	2 257 16                        @ ../../../ThirdParty/mbedTLS/library/gcm.c:257:16
	ldr	r7, [sp, #16]                   @ 4-byte Reload
	eors	r1, r7
.Ltmp141:
	@DEBUG_VALUE: gcm_mult:zl <- [DW_OP_LLVM_fragment 0 32] $r1
	.loc	2 0 16 is_stmt 0                @ ../../../ThirdParty/mbedTLS/library/gcm.c:0:16
	str	r1, [sp, #16]                   @ 4-byte Spill
.Ltmp142:
	@DEBUG_VALUE: gcm_mult:zl <- [DW_OP_plus_uconst 16, DW_OP_LLVM_fragment 0 32] [$sp+0]
	@DEBUG_VALUE: gcm_mult:zl <- [DW_OP_plus_uconst 16, DW_OP_LLVM_fragment 0 32] [$sp+0]
	.loc	2 254 23 is_stmt 1              @ ../../../ThirdParty/mbedTLS/library/gcm.c:254:23
	lsrs	r4, r4, #4
.Ltmp143:
	lsls	r7, r3, #28
	adds	r7, r4, r7
.Ltmp144:
	@DEBUG_VALUE: gcm_mult:zh <- [DW_OP_LLVM_fragment 0 32] $r7
	.loc	2 256 19                        @ ../../../ThirdParty/mbedTLS/library/gcm.c:256:19
	ldr	r1, [sp, #12]                   @ 4-byte Reload
	ldr	r4, [r5, r1]
	.loc	2 256 16 is_stmt 0              @ ../../../ThirdParty/mbedTLS/library/gcm.c:256:16
	eors	r4, r7
.Ltmp145:
	@DEBUG_VALUE: gcm_mult:zh <- [DW_OP_LLVM_fragment 0 32] $r4
	.loc	2 255 30 is_stmt 1              @ ../../../ThirdParty/mbedTLS/library/gcm.c:255:30
	lsls	r2, r2, #28
.Ltmp146:
	lsrs	r2, r2, #25
	ldr	r1, __arm_cp.4_0
	ldr	r2, [r1, r2]
	.loc	2 255 41 is_stmt 0              @ ../../../ThirdParty/mbedTLS/library/gcm.c:255:41
	lsls	r2, r2, #16
	.loc	2 254 23 is_stmt 1              @ ../../../ThirdParty/mbedTLS/library/gcm.c:254:23
	lsrs	r7, r3, #4
.Ltmp147:
	@DEBUG_VALUE: gcm_mult:zh <- [DW_OP_LLVM_fragment 32 32] $r7
	.loc	2 255 16                        @ ../../../ThirdParty/mbedTLS/library/gcm.c:255:16
	eors	r7, r2
.Ltmp148:
	@DEBUG_VALUE: gcm_mult:zh <- [DW_OP_LLVM_fragment 32 32] $r7
	.loc	2 256 19                        @ ../../../ThirdParty/mbedTLS/library/gcm.c:256:19
	adds	r5, #192
	ldr	r3, [r5, #4]
	.loc	2 256 16 is_stmt 0              @ ../../../ThirdParty/mbedTLS/library/gcm.c:256:16
	eors	r3, r7
.Ltmp149:
	@DEBUG_VALUE: gcm_mult:zh <- [DW_OP_LLVM_fragment 32 32] $r3
	.loc	2 0 16                          @ ../../../ThirdParty/mbedTLS/library/gcm.c:0:16
	mov	r1, r6
.Ltmp150:
.LBB4_2:                                @   in Loop: Header=BB4_3 Depth=1
	@DEBUG_VALUE: gcm_mult:i <- [DW_OP_plus_uconst 20] [$sp+0]
	@DEBUG_VALUE: gcm_mult:hi <- [DW_OP_plus_uconst 24] [$sp+0]
	@DEBUG_VALUE: gcm_mult:zh <- [DW_OP_LLVM_fragment 0 32] $r4
	@DEBUG_VALUE: gcm_mult:zh <- [DW_OP_LLVM_fragment 32 32] $r3
	@DEBUG_VALUE: gcm_mult:ctx <- [DW_OP_plus_uconst 4] [$sp+0]
	@DEBUG_VALUE: gcm_mult:x <- [DW_OP_plus_uconst 8] [$sp+0]
	@DEBUG_VALUE: gcm_mult:output <- [$sp+0]
	@DEBUG_VALUE: gcm_mult:zh <- [DW_OP_LLVM_fragment 0 32] $r4
	@DEBUG_VALUE: gcm_mult:zl <- [DW_OP_LLVM_fragment 32 32] $r0
	@DEBUG_VALUE: gcm_mult:zl <- [DW_OP_plus_uconst 16, DW_OP_LLVM_fragment 0 32] [$sp+0]
	@DEBUG_VALUE: gcm_mult:zh <- [DW_OP_LLVM_fragment 32 32] $r3
	@DEBUG_VALUE: gcm_mult:rem <- [DW_OP_plus_uconst 16, DW_OP_deref_size 4, DW_OP_LLVM_convert 64 7, DW_OP_LLVM_convert 8 7, DW_OP_constu 15, DW_OP_and, DW_OP_stack_value, DW_OP_LLVM_fragment 0 8] $sp
	.loc	2 262 19 is_stmt 1              @ ../../../ThirdParty/mbedTLS/library/gcm.c:262:19
	lsls	r2, r4, #28
	.loc	2 262 34 is_stmt 0              @ ../../../ThirdParty/mbedTLS/library/gcm.c:262:34
	lsrs	r5, r0, #4
	.loc	2 262 27                        @ ../../../ThirdParty/mbedTLS/library/gcm.c:262:27
	adds	r2, r5, r2
.Ltmp151:
	@DEBUG_VALUE: gcm_mult:zl <- [DW_OP_LLVM_fragment 32 32] $r2
	.loc	2 265 15 is_stmt 1              @ ../../../ThirdParty/mbedTLS/library/gcm.c:265:15
	ldr	r5, [sp, #24]                   @ 4-byte Reload
.Ltmp152:
	@DEBUG_VALUE: gcm_mult:hi <- $r5
	lsls	r5, r5, #3
.Ltmp153:
	adds	r5, r1, r5
	.loc	2 266 15                        @ ../../../ThirdParty/mbedTLS/library/gcm.c:266:15
	ldr	r1, [r5, #64]
	ldr	r7, [r5, #68]
	.loc	2 266 12 is_stmt 0              @ ../../../ThirdParty/mbedTLS/library/gcm.c:266:12
	eors	r7, r2
.Ltmp154:
	@DEBUG_VALUE: gcm_mult:zl <- [DW_OP_LLVM_fragment 32 32] $r7
	.loc	2 0 12                          @ ../../../ThirdParty/mbedTLS/library/gcm.c:0:12
	ldr	r6, [sp, #16]                   @ 4-byte Reload
.Ltmp155:
	@DEBUG_VALUE: gcm_mult:rem <- [DW_OP_LLVM_convert 64 7, DW_OP_LLVM_convert 8 7, DW_OP_constu 15, DW_OP_and, DW_OP_stack_value, DW_OP_LLVM_fragment 0 8] $r6
	@DEBUG_VALUE: gcm_mult:zl <- [DW_OP_LLVM_fragment 0 32] $r6
	.loc	2 262 34 is_stmt 1              @ ../../../ThirdParty/mbedTLS/library/gcm.c:262:34
	lsrs	r2, r6, #4
	lsls	r0, r0, #28
	adds	r2, r2, r0
.Ltmp156:
	@DEBUG_VALUE: gcm_mult:zl <- [DW_OP_LLVM_fragment 0 32] $r2
	.loc	2 266 12                        @ ../../../ThirdParty/mbedTLS/library/gcm.c:266:12
	eors	r2, r1
.Ltmp157:
	@DEBUG_VALUE: gcm_mult:zl <- [DW_OP_LLVM_fragment 0 32] $r2
	.loc	2 265 15                        @ ../../../ThirdParty/mbedTLS/library/gcm.c:265:15
	ldr	r0, [sp, #12]                   @ 4-byte Reload
	ldr	r0, [r5, r0]
	.loc	2 263 19                        @ ../../../ThirdParty/mbedTLS/library/gcm.c:263:19
	lsrs	r1, r4, #4
	lsls	r4, r3, #28
.Ltmp158:
	adds	r4, r1, r4
.Ltmp159:
	@DEBUG_VALUE: gcm_mult:zh <- [DW_OP_LLVM_fragment 0 32] $r4
	.loc	2 265 12                        @ ../../../ThirdParty/mbedTLS/library/gcm.c:265:12
	eors	r4, r0
.Ltmp160:
	@DEBUG_VALUE: gcm_mult:zh <- [DW_OP_LLVM_fragment 0 32] $r4
	.loc	2 264 26                        @ ../../../ThirdParty/mbedTLS/library/gcm.c:264:26
	lsls	r0, r6, #28
	lsrs	r0, r0, #25
	ldr	r1, __arm_cp.4_0
	ldr	r0, [r1, r0]
	.loc	2 264 37 is_stmt 0              @ ../../../ThirdParty/mbedTLS/library/gcm.c:264:37
	lsls	r0, r0, #16
	.loc	2 263 19 is_stmt 1              @ ../../../ThirdParty/mbedTLS/library/gcm.c:263:19
	lsrs	r1, r3, #4
.Ltmp161:
	@DEBUG_VALUE: gcm_mult:zh <- [DW_OP_LLVM_fragment 32 32] $r1
	.loc	2 264 12                        @ ../../../ThirdParty/mbedTLS/library/gcm.c:264:12
	eors	r1, r0
.Ltmp162:
	@DEBUG_VALUE: gcm_mult:zh <- [DW_OP_LLVM_fragment 32 32] $r1
	.loc	2 265 15                        @ ../../../ThirdParty/mbedTLS/library/gcm.c:265:15
	adds	r5, #192
	ldr	r3, [r5, #4]
	.loc	2 265 12 is_stmt 0              @ ../../../ThirdParty/mbedTLS/library/gcm.c:265:12
	eors	r3, r1
.Ltmp163:
	@DEBUG_VALUE: gcm_mult:zh <- [DW_OP_LLVM_fragment 32 32] $r3
	.loc	2 0 12                          @ ../../../ThirdParty/mbedTLS/library/gcm.c:0:12
	ldr	r5, [sp, #20]                   @ 4-byte Reload
.Ltmp164:
	@DEBUG_VALUE: gcm_mult:i <- $r5
	.loc	2 245 27 is_stmt 1              @ ../../../ThirdParty/mbedTLS/library/gcm.c:245:27
	subs	r5, r5, #1
.Ltmp165:
	@DEBUG_VALUE: gcm_mult:i <- $r5
	.loc	2 245 20 is_stmt 0              @ ../../../ThirdParty/mbedTLS/library/gcm.c:245:20
	adds	r0, r5, #1
.Ltmp166:
	.loc	2 245 5                         @ ../../../ThirdParty/mbedTLS/library/gcm.c:245:5
	bhs	.LBB4_5
.Ltmp167:
.LBB4_3:                                @ =>This Inner Loop Header: Depth=1
	@DEBUG_VALUE: gcm_mult:zh <- [DW_OP_LLVM_fragment 0 32] $r4
	@DEBUG_VALUE: gcm_mult:zh <- [DW_OP_LLVM_fragment 32 32] $r3
	@DEBUG_VALUE: gcm_mult:ctx <- [DW_OP_plus_uconst 4] [$sp+0]
	@DEBUG_VALUE: gcm_mult:x <- [DW_OP_plus_uconst 8] [$sp+0]
	@DEBUG_VALUE: gcm_mult:output <- [$sp+0]
	@DEBUG_VALUE: gcm_mult:i <- $r5
	@DEBUG_VALUE: gcm_mult:zh <- [DW_OP_LLVM_fragment 0 32] $r4
	@DEBUG_VALUE: gcm_mult:zl <- [DW_OP_LLVM_fragment 32 32] $r7
	@DEBUG_VALUE: gcm_mult:zl <- [DW_OP_LLVM_fragment 0 32] $r2
	@DEBUG_VALUE: gcm_mult:zh <- [DW_OP_LLVM_fragment 32 32] $r3
	.loc	2 247 14 is_stmt 1              @ ../../../ThirdParty/mbedTLS/library/gcm.c:247:14
	ldr	r0, [sp, #8]                    @ 4-byte Reload
	ldrb	r0, [r0, r5]
.Ltmp168:
	@DEBUG_VALUE: gcm_mult:lo <- [DW_OP_LLVM_convert 8 7, DW_OP_LLVM_convert 32 7, DW_OP_constu 15, DW_OP_and, DW_OP_LLVM_convert 32 7, DW_OP_LLVM_convert 8 7, DW_OP_stack_value] $r0
	.loc	2 248 19                        @ ../../../ThirdParty/mbedTLS/library/gcm.c:248:19
	lsrs	r1, r0, #4
.Ltmp169:
	@DEBUG_VALUE: gcm_mult:hi <- $r1
	.loc	2 250 13                        @ ../../../ThirdParty/mbedTLS/library/gcm.c:250:13
	cmp	r5, #15
	str	r1, [sp, #24]                   @ 4-byte Spill
.Ltmp170:
	@DEBUG_VALUE: gcm_mult:hi <- [DW_OP_plus_uconst 24] [$sp+0]
	@DEBUG_VALUE: gcm_mult:hi <- [DW_OP_plus_uconst 24] [$sp+0]
	str	r5, [sp, #20]                   @ 4-byte Spill
.Ltmp171:
	@DEBUG_VALUE: gcm_mult:i <- [DW_OP_plus_uconst 20] [$sp+0]
	@DEBUG_VALUE: gcm_mult:i <- [DW_OP_plus_uconst 20] [$sp+0]
	bne	.LBB4_1
.Ltmp172:
@ %bb.4:                                @   in Loop: Header=BB4_3 Depth=1
	@DEBUG_VALUE: gcm_mult:i <- [DW_OP_plus_uconst 20] [$sp+0]
	@DEBUG_VALUE: gcm_mult:hi <- [DW_OP_plus_uconst 24] [$sp+0]
	@DEBUG_VALUE: gcm_mult:zl <- [DW_OP_LLVM_fragment 32 32] $r7
	@DEBUG_VALUE: gcm_mult:zh <- [DW_OP_LLVM_fragment 0 32] $r4
	@DEBUG_VALUE: gcm_mult:zh <- [DW_OP_LLVM_fragment 32 32] $r3
	@DEBUG_VALUE: gcm_mult:zl <- [DW_OP_LLVM_fragment 0 32] $r2
	@DEBUG_VALUE: gcm_mult:lo <- [DW_OP_LLVM_convert 8 7, DW_OP_LLVM_convert 32 7, DW_OP_constu 15, DW_OP_and, DW_OP_LLVM_convert 32 7, DW_OP_LLVM_convert 8 7, DW_OP_stack_value] $r0
	@DEBUG_VALUE: gcm_mult:ctx <- [DW_OP_plus_uconst 4] [$sp+0]
	@DEBUG_VALUE: gcm_mult:x <- [DW_OP_plus_uconst 8] [$sp+0]
	@DEBUG_VALUE: gcm_mult:output <- [$sp+0]
	.loc	2 0 0 is_stmt 0                 @ ../../../ThirdParty/mbedTLS/library/gcm.c:0:0
	str	r2, [sp, #16]                   @ 4-byte Spill
.Ltmp173:
	@DEBUG_VALUE: gcm_mult:zl <- [DW_OP_plus_uconst 16, DW_OP_LLVM_fragment 0 32] [$sp+0]
	mov	r0, r7
.Ltmp174:
	ldr	r1, [sp, #4]                    @ 4-byte Reload
	b	.LBB4_2
.Ltmp175:
.LBB4_5:
	@DEBUG_VALUE: gcm_mult:zl <- [DW_OP_LLVM_fragment 32 32] $r7
	@DEBUG_VALUE: gcm_mult:rem <- [DW_OP_LLVM_convert 64 7, DW_OP_LLVM_convert 8 7, DW_OP_constu 15, DW_OP_and, DW_OP_stack_value, DW_OP_LLVM_fragment 0 8] $r6
	@DEBUG_VALUE: gcm_mult:i <- $r5
	@DEBUG_VALUE: gcm_mult:zh <- [DW_OP_LLVM_fragment 0 32] $r4
	@DEBUG_VALUE: gcm_mult:zh <- [DW_OP_LLVM_fragment 32 32] $r3
	@DEBUG_VALUE: gcm_mult:zl <- [DW_OP_LLVM_fragment 0 32] $r2
	@DEBUG_VALUE: gcm_mult:ctx <- [DW_OP_plus_uconst 4] [$sp+0]
	@DEBUG_VALUE: gcm_mult:x <- [DW_OP_plus_uconst 8] [$sp+0]
	@DEBUG_VALUE: gcm_mult:output <- [$sp+0]
	@DEBUG_VALUE: gcm_mult:zh <- [DW_OP_LLVM_fragment 0 32] $r4
	@DEBUG_VALUE: gcm_mult:zl <- [DW_OP_LLVM_fragment 32 32] $r7
	@DEBUG_VALUE: gcm_mult:zl <- [DW_OP_LLVM_fragment 0 32] $r2
	@DEBUG_VALUE: gcm_mult:zh <- [DW_OP_LLVM_fragment 32 32] $r3
	ldr	r1, [sp]                        @ 4-byte Reload
.Ltmp176:
	.loc	2 272 5 is_stmt 1               @ ../../../ThirdParty/mbedTLS/library/gcm.c:272:5
	strb	r2, [r1, #15]
.Ltmp177:
	.loc	2 270 5                         @ ../../../ThirdParty/mbedTLS/library/gcm.c:270:5
	strb	r4, [r1, #7]
.Ltmp178:
	.loc	2 272 5                         @ ../../../ThirdParty/mbedTLS/library/gcm.c:272:5
	lsrs	r0, r2, #8
	strb	r0, [r1, #14]
	lsrs	r0, r2, #16
	strb	r0, [r1, #13]
	lsrs	r0, r2, #24
	strb	r0, [r1, #12]
.Ltmp179:
	.loc	2 271 5                         @ ../../../ThirdParty/mbedTLS/library/gcm.c:271:5
	strb	r7, [r1, #11]
.Ltmp180:
	.loc	2 270 5                         @ ../../../ThirdParty/mbedTLS/library/gcm.c:270:5
	lsrs	r0, r4, #8
	strb	r0, [r1, #6]
	lsrs	r0, r4, #16
	strb	r0, [r1, #5]
	lsrs	r0, r4, #24
	strb	r0, [r1, #4]
.Ltmp181:
	.loc	2 269 5                         @ ../../../ThirdParty/mbedTLS/library/gcm.c:269:5
	strb	r3, [r1, #3]
.Ltmp182:
	.loc	2 271 5                         @ ../../../ThirdParty/mbedTLS/library/gcm.c:271:5
	lsrs	r0, r7, #8
	strb	r0, [r1, #10]
	lsrs	r0, r7, #16
	strb	r0, [r1, #9]
	lsrs	r0, r7, #24
	strb	r0, [r1, #8]
.Ltmp183:
	.loc	2 269 5                         @ ../../../ThirdParty/mbedTLS/library/gcm.c:269:5
	lsrs	r0, r3, #8
	strb	r0, [r1, #2]
	lsrs	r0, r3, #16
	strb	r0, [r1, #1]
	lsrs	r0, r3, #24
	strb	r0, [r1]
.Ltmp184:
	.loc	2 273 1                         @ ../../../ThirdParty/mbedTLS/library/gcm.c:273:1
	add	sp, #28
.Ltmp185:
	pop	{r4, r5, r6, r7, pc}
.Ltmp186:
	.p2align	2
@ %bb.6:
	.loc	2 0 1 is_stmt 0                 @ ../../../ThirdParty/mbedTLS/library/gcm.c:0:1
__arm_cp.4_0:
	.long	last4
.Lcpi_end0:
	.size	__arm_cp.4_0, .Lcpi_end0-__arm_cp.4_0
.Lfunc_end4:
	.size	gcm_mult, .Lfunc_end4-gcm_mult
	.cfi_endproc
	.cantunwind
	.fnend
                                        @ -- End function
	.section	.text.mbedtls_gcm_update,"ax",%progbits
	.hidden	mbedtls_gcm_update              @ -- Begin function mbedtls_gcm_update
	.globl	mbedtls_gcm_update
	.p2align	1
	.type	mbedtls_gcm_update,%function
	.code	16                              @ @mbedtls_gcm_update
	.thumb_func
mbedtls_gcm_update:
.Lfunc_begin5:
	.loc	2 366 0 is_stmt 1               @ ../../../ThirdParty/mbedTLS/library/gcm.c:366:0
	.fnstart
	.cfi_startproc
@ %bb.0:
	@DEBUG_VALUE: mbedtls_gcm_update:ctx <- $r0
	@DEBUG_VALUE: mbedtls_gcm_update:length <- $r1
	@DEBUG_VALUE: mbedtls_gcm_update:input <- $r2
	@DEBUG_VALUE: mbedtls_gcm_update:output <- $r3
	.save	{r4, r5, r6, r7, lr}
	push	{r4, r5, r6, r7, lr}
	.cfi_def_cfa_offset 20
	.cfi_offset lr, -4
	.cfi_offset r7, -8
	.cfi_offset r6, -12
	.cfi_offset r5, -16
	.cfi_offset r4, -20
	.pad	#44
	sub	sp, #44
	.cfi_def_cfa_offset 64
	mov	r5, r2
	str	r0, [sp, #16]                   @ 4-byte Spill
	movs	r7, #0
.Ltmp187:
	@DEBUG_VALUE: mbedtls_gcm_update:olen <- 0
	@DEBUG_VALUE: mbedtls_gcm_update:out_p <- $r3
	@DEBUG_VALUE: mbedtls_gcm_update:output <- $r3
	@DEBUG_VALUE: mbedtls_gcm_update:input <- $r5
	@DEBUG_VALUE: mbedtls_gcm_update:length <- $r1
	@DEBUG_VALUE: mbedtls_gcm_update:ctx <- [DW_OP_plus_uconst 16] [$sp+0]
	.loc	2 372 21 prologue_end           @ ../../../ThirdParty/mbedTLS/library/gcm.c:372:21
	str	r7, [sp, #24]
	movs	r0, #19
	mvns	r0, r0
.Ltmp188:
	.loc	2 378 24                        @ ../../../ThirdParty/mbedTLS/library/gcm.c:378:24
	cmp	r3, r2
	bls	.LBB5_2
.Ltmp189:
@ %bb.1:
	@DEBUG_VALUE: mbedtls_gcm_update:input <- $r5
	@DEBUG_VALUE: mbedtls_gcm_update:out_p <- $r3
	@DEBUG_VALUE: mbedtls_gcm_update:output <- $r3
	@DEBUG_VALUE: mbedtls_gcm_update:length <- $r1
	@DEBUG_VALUE: mbedtls_gcm_update:ctx <- [DW_OP_plus_uconst 16] [$sp+0]
	@DEBUG_VALUE: mbedtls_gcm_update:olen <- 0
	.loc	2 378 45 is_stmt 0              @ ../../../ThirdParty/mbedTLS/library/gcm.c:378:45
	subs	r2, r3, r5
.Ltmp190:
	.loc	2 378 9                         @ ../../../ThirdParty/mbedTLS/library/gcm.c:378:9
	cmp	r2, r1
	blo	.LBB5_20
.Ltmp191:
.LBB5_2:
	@DEBUG_VALUE: mbedtls_gcm_update:input <- $r5
	@DEBUG_VALUE: mbedtls_gcm_update:out_p <- $r3
	@DEBUG_VALUE: mbedtls_gcm_update:output <- $r3
	@DEBUG_VALUE: mbedtls_gcm_update:length <- $r1
	@DEBUG_VALUE: mbedtls_gcm_update:ctx <- [DW_OP_plus_uconst 16] [$sp+0]
	@DEBUG_VALUE: mbedtls_gcm_update:olen <- 0
	.loc	2 0 9                           @ ../../../ThirdParty/mbedTLS/library/gcm.c:0:9
	str	r3, [sp, #20]                   @ 4-byte Spill
.Ltmp192:
	@DEBUG_VALUE: mbedtls_gcm_update:output <- [DW_OP_plus_uconst 20] [$sp+0]
	movw	r2, #320
	ldr	r3, [sp, #16]                   @ 4-byte Reload
.Ltmp193:
	adds	r6, r3, r2
.Ltmp194:
	.loc	2 383 14 is_stmt 1              @ ../../../ThirdParty/mbedTLS/library/gcm.c:383:14
	ldr	r3, [r6]
	ldr	r2, [r6, #4]
	str	r1, [sp, #12]                   @ 4-byte Spill
.Ltmp195:
	@DEBUG_VALUE: mbedtls_gcm_update:length <- [DW_OP_plus_uconst 12] [$sp+0]
	.loc	2 383 18 is_stmt 0              @ ../../../ThirdParty/mbedTLS/library/gcm.c:383:18
	adds	r3, r3, r1
	adcs	r2, r7
	mov	r4, r7
	adcs	r4, r7
	.loc	2 383 38                        @ ../../../ThirdParty/mbedTLS/library/gcm.c:383:38
	bne	.LBB5_20
.Ltmp196:
@ %bb.3:
	@DEBUG_VALUE: mbedtls_gcm_update:length <- [DW_OP_plus_uconst 12] [$sp+0]
	@DEBUG_VALUE: mbedtls_gcm_update:output <- [DW_OP_plus_uconst 20] [$sp+0]
	@DEBUG_VALUE: mbedtls_gcm_update:input <- $r5
	@DEBUG_VALUE: mbedtls_gcm_update:ctx <- [DW_OP_plus_uconst 16] [$sp+0]
	@DEBUG_VALUE: mbedtls_gcm_update:olen <- 0
	.loc	2 0 38                          @ ../../../ThirdParty/mbedTLS/library/gcm.c:0:38
	movs	r4, #31
	mvns	r4, r4
	movs	r1, #15
	.loc	2 383 38                        @ ../../../ThirdParty/mbedTLS/library/gcm.c:383:38
	subs	r4, r4, r3
	sbcs	r1, r2
	ldr	r4, [sp, #12]                   @ 4-byte Reload
.Ltmp197:
	@DEBUG_VALUE: mbedtls_gcm_update:length <- $r4
	blo	.LBB5_20
.Ltmp198:
@ %bb.4:
	@DEBUG_VALUE: mbedtls_gcm_update:output <- [DW_OP_plus_uconst 20] [$sp+0]
	@DEBUG_VALUE: mbedtls_gcm_update:input <- $r5
	@DEBUG_VALUE: mbedtls_gcm_update:length <- $r4
	@DEBUG_VALUE: mbedtls_gcm_update:ctx <- [DW_OP_plus_uconst 16] [$sp+0]
	@DEBUG_VALUE: mbedtls_gcm_update:olen <- 0
	@DEBUG_VALUE: mbedtls_gcm_update:length <- $r4
	@DEBUG_VALUE: mbedtls_gcm_update:out_p <- [DW_OP_plus_uconst 20] [$sp+0]
	@DEBUG_VALUE: mbedtls_gcm_update:p <- $r5
	.loc	2 389 14 is_stmt 1              @ ../../../ThirdParty/mbedTLS/library/gcm.c:389:14
	str	r3, [r6]
	str	r2, [r6, #4]
	.loc	2 392 5                         @ ../../../ThirdParty/mbedTLS/library/gcm.c:392:5
	cmp	r4, #0
	.loc	2 0 0 is_stmt 0                 @ ../../../ThirdParty/mbedTLS/library/gcm.c:0:0
	mov	r0, r7
	.loc	2 392 5                         @ ../../../ThirdParty/mbedTLS/library/gcm.c:392:5
	beq	.LBB5_20
.Ltmp199:
@ %bb.5:
	@DEBUG_VALUE: mbedtls_gcm_update:output <- [DW_OP_plus_uconst 20] [$sp+0]
	@DEBUG_VALUE: mbedtls_gcm_update:p <- $r5
	@DEBUG_VALUE: mbedtls_gcm_update:input <- $r5
	@DEBUG_VALUE: mbedtls_gcm_update:length <- $r4
	@DEBUG_VALUE: mbedtls_gcm_update:out_p <- [DW_OP_plus_uconst 20] [$sp+0]
	@DEBUG_VALUE: mbedtls_gcm_update:ctx <- [DW_OP_plus_uconst 16] [$sp+0]
	@DEBUG_VALUE: mbedtls_gcm_update:olen <- 0
	.loc	2 0 5                           @ ../../../ThirdParty/mbedTLS/library/gcm.c:0:5
	movw	r0, #368
	ldr	r1, [sp, #16]                   @ 4-byte Reload
.Ltmp200:
	adds	r7, r1, r0
	movw	r0, #367
.Ltmp201:
	.loc	2 392 5                         @ ../../../ThirdParty/mbedTLS/library/gcm.c:392:5
	adds	r3, r1, r0
	movw	r0, #352
.Ltmp202:
	.loc	2 0 0                           @ ../../../ThirdParty/mbedTLS/library/gcm.c:0:0
	adds	r0, r1, r0
	str	r0, [sp, #8]                    @ 4-byte Spill
	ldr	r0, [sp, #20]                   @ 4-byte Reload
.Ltmp203:
	@DEBUG_VALUE: mbedtls_gcm_update:output <- $r0
	str	r3, [sp, #4]                    @ 4-byte Spill
	b	.LBB5_7
.Ltmp204:
.LBB5_6:                                @   in Loop: Header=BB5_7 Depth=1
	@DEBUG_VALUE: mbedtls_gcm_update:p <- $r5
	@DEBUG_VALUE: mbedtls_gcm_update:use_len <- $r4
	@DEBUG_VALUE: mbedtls_gcm_update:i <- $r0
	@DEBUG_VALUE: mbedtls_gcm_update:olen <- [DW_OP_plus_uconst 24, DW_OP_deref] $sp
	@DEBUG_VALUE: mbedtls_gcm_update:length <- [DW_OP_plus_uconst 12] [$sp+0]
	@DEBUG_VALUE: mbedtls_gcm_update:ctx <- [DW_OP_plus_uconst 16] [$sp+0]
	.loc	2 415 9 is_stmt 1               @ ../../../ThirdParty/mbedTLS/library/gcm.c:415:9
	ldr	r0, [sp, #16]                   @ 4-byte Reload
.Ltmp205:
	mov	r1, r7
	mov	r2, r7
	bl	gcm_mult
.Ltmp206:
	@DEBUG_VALUE: mbedtls_gcm_update:output <- [DW_OP_LLVM_entry_value 1] $r3
	.loc	2 0 9 is_stmt 0                 @ ../../../ThirdParty/mbedTLS/library/gcm.c:0:9
	ldr	r0, [sp, #20]                   @ 4-byte Reload
	.loc	2 419 15 is_stmt 1              @ ../../../ThirdParty/mbedTLS/library/gcm.c:419:15
	adds	r0, r0, r4
.Ltmp207:
	@DEBUG_VALUE: mbedtls_gcm_update:out_p <- $r0
	.loc	2 418 11                        @ ../../../ThirdParty/mbedTLS/library/gcm.c:418:11
	adds	r5, r5, r4
.Ltmp208:
	@DEBUG_VALUE: mbedtls_gcm_update:p <- $r5
	.loc	2 0 11 is_stmt 0                @ ../../../ThirdParty/mbedTLS/library/gcm.c:0:11
	ldr	r1, [sp, #12]                   @ 4-byte Reload
	.loc	2 417 16 is_stmt 1              @ ../../../ThirdParty/mbedTLS/library/gcm.c:417:16
	subs	r1, r1, r4
.Ltmp209:
	@DEBUG_VALUE: mbedtls_gcm_update:length <- $r1
	.loc	2 0 16 is_stmt 0                @ ../../../ThirdParty/mbedTLS/library/gcm.c:0:16
	mov	r4, r1
.Ltmp210:
	@DEBUG_VALUE: mbedtls_gcm_update:length <- $r4
	@DEBUG_VALUE: mbedtls_gcm_update:length <- $r4
	@DEBUG_VALUE: mbedtls_gcm_update:length <- $r4
	ldr	r3, [sp, #4]                    @ 4-byte Reload
.Ltmp211:
	.loc	2 392 5 is_stmt 1               @ ../../../ThirdParty/mbedTLS/library/gcm.c:392:5
	beq	.LBB5_19
.Ltmp212:
.LBB5_7:                                @ =>This Loop Header: Depth=1
                                        @     Child Loop BB5_10 Depth 2
                                        @     Child Loop BB5_15 Depth 2
	@DEBUG_VALUE: mbedtls_gcm_update:p <- $r5
	@DEBUG_VALUE: mbedtls_gcm_update:length <- $r4
	@DEBUG_VALUE: mbedtls_gcm_update:ctx <- [DW_OP_plus_uconst 16] [$sp+0]
	@DEBUG_VALUE: mbedtls_gcm_update:length <- $r4
	@DEBUG_VALUE: mbedtls_gcm_update:out_p <- $r0
	@DEBUG_VALUE: mbedtls_gcm_update:p <- $r5
	.loc	2 394 19                        @ ../../../ThirdParty/mbedTLS/library/gcm.c:394:19
	cmp	r4, #16
	str	r4, [sp, #12]                   @ 4-byte Spill
.Ltmp213:
	@DEBUG_VALUE: mbedtls_gcm_update:length <- [DW_OP_plus_uconst 12] [$sp+0]
	@DEBUG_VALUE: mbedtls_gcm_update:length <- $r4
	@DEBUG_VALUE: mbedtls_gcm_update:length <- [DW_OP_plus_uconst 12] [$sp+0]
	blo	.LBB5_9
.Ltmp214:
@ %bb.8:                                @   in Loop: Header=BB5_7 Depth=1
	@DEBUG_VALUE: mbedtls_gcm_update:p <- $r5
	@DEBUG_VALUE: mbedtls_gcm_update:out_p <- $r0
	@DEBUG_VALUE: mbedtls_gcm_update:length <- [DW_OP_plus_uconst 12] [$sp+0]
	@DEBUG_VALUE: mbedtls_gcm_update:ctx <- [DW_OP_plus_uconst 16] [$sp+0]
	.loc	2 0 19 is_stmt 0                @ ../../../ThirdParty/mbedTLS/library/gcm.c:0:19
	movs	r4, #16
.Ltmp215:
.LBB5_9:                                @   in Loop: Header=BB5_7 Depth=1
	@DEBUG_VALUE: mbedtls_gcm_update:p <- $r5
	@DEBUG_VALUE: mbedtls_gcm_update:out_p <- $r0
	@DEBUG_VALUE: mbedtls_gcm_update:length <- [DW_OP_plus_uconst 12] [$sp+0]
	@DEBUG_VALUE: mbedtls_gcm_update:ctx <- [DW_OP_plus_uconst 16] [$sp+0]
	@DEBUG_VALUE: mbedtls_gcm_update:use_len <- $r4
	str	r0, [sp, #20]                   @ 4-byte Spill
.Ltmp216:
	@DEBUG_VALUE: mbedtls_gcm_update:out_p <- [DW_OP_plus_uconst 20] [$sp+0]
	@DEBUG_VALUE: mbedtls_gcm_update:output <- [DW_OP_plus_uconst 20] [$sp+0]
	movs	r0, #0
.Ltmp217:
	@DEBUG_VALUE: mbedtls_gcm_update:i <- 16
.LBB5_10:                               @   Parent Loop BB5_7 Depth=1
                                        @ =>  This Inner Loop Header: Depth=2
	@DEBUG_VALUE: mbedtls_gcm_update:p <- $r5
	@DEBUG_VALUE: mbedtls_gcm_update:use_len <- $r4
	@DEBUG_VALUE: mbedtls_gcm_update:length <- [DW_OP_plus_uconst 12] [$sp+0]
	@DEBUG_VALUE: mbedtls_gcm_update:ctx <- [DW_OP_plus_uconst 16] [$sp+0]
	@DEBUG_VALUE: mbedtls_gcm_update:i <- undef
	.loc	2 396 24 is_stmt 1              @ ../../../ThirdParty/mbedTLS/library/gcm.c:396:24
	mov	r1, r0
	adds	r1, #16
.Ltmp218:
	.loc	2 396 9 is_stmt 0               @ ../../../ThirdParty/mbedTLS/library/gcm.c:396:9
	cmp	r1, #13
	blo	.LBB5_12
.Ltmp219:
@ %bb.11:                               @   in Loop: Header=BB5_10 Depth=2
	@DEBUG_VALUE: mbedtls_gcm_update:p <- $r5
	@DEBUG_VALUE: mbedtls_gcm_update:use_len <- $r4
	@DEBUG_VALUE: mbedtls_gcm_update:length <- [DW_OP_plus_uconst 12] [$sp+0]
	@DEBUG_VALUE: mbedtls_gcm_update:ctx <- [DW_OP_plus_uconst 16] [$sp+0]
	.loc	2 397 17 is_stmt 1              @ ../../../ThirdParty/mbedTLS/library/gcm.c:397:17
	ldrb	r1, [r3, r0]
	adds	r1, r1, #1
	strb	r1, [r3, r0]
	uxtb	r2, r1
.Ltmp220:
	.loc	2 397 17 is_stmt 0              @ ../../../ThirdParty/mbedTLS/library/gcm.c:397:17
	subs	r0, r0, #1
	cmp	r2, r1
	bne	.LBB5_10
.Ltmp221:
.LBB5_12:                               @   in Loop: Header=BB5_7 Depth=1
	@DEBUG_VALUE: mbedtls_gcm_update:p <- $r5
	@DEBUG_VALUE: mbedtls_gcm_update:use_len <- $r4
	@DEBUG_VALUE: mbedtls_gcm_update:length <- [DW_OP_plus_uconst 12] [$sp+0]
	@DEBUG_VALUE: mbedtls_gcm_update:ctx <- [DW_OP_plus_uconst 16] [$sp+0]
	@DEBUG_VALUE: mbedtls_gcm_update:olen <- [DW_OP_plus_uconst 24, DW_OP_deref] $sp
	.loc	2 0 17                          @ ../../../ThirdParty/mbedTLS/library/gcm.c:0:17
	add	r0, sp, #24
.Ltmp222:
	.loc	2 400 21 is_stmt 1              @ ../../../ThirdParty/mbedTLS/library/gcm.c:400:21
	str	r0, [sp]
	movs	r2, #16
	add	r3, sp, #28
	ldr	r0, [sp, #16]                   @ 4-byte Reload
	ldr	r1, [sp, #8]                    @ 4-byte Reload
	bl	mbedtls_cipher_update
.Ltmp223:
	@DEBUG_VALUE: mbedtls_gcm_update:ret <- $r0
	.loc	2 400 13 is_stmt 0              @ ../../../ThirdParty/mbedTLS/library/gcm.c:400:13
	cbnz	r0, .LBB5_20
.Ltmp224:
@ %bb.13:                               @   in Loop: Header=BB5_7 Depth=1
	@DEBUG_VALUE: mbedtls_gcm_update:p <- $r5
	@DEBUG_VALUE: mbedtls_gcm_update:use_len <- $r4
	@DEBUG_VALUE: mbedtls_gcm_update:ret <- $r0
	@DEBUG_VALUE: mbedtls_gcm_update:olen <- [DW_OP_plus_uconst 24, DW_OP_deref] $sp
	@DEBUG_VALUE: mbedtls_gcm_update:length <- [DW_OP_plus_uconst 12] [$sp+0]
	@DEBUG_VALUE: mbedtls_gcm_update:ctx <- [DW_OP_plus_uconst 16] [$sp+0]
	.loc	2 0 13                          @ ../../../ThirdParty/mbedTLS/library/gcm.c:0:13
	movs	r0, #0
.Ltmp225:
	ldr	r3, [sp, #20]                   @ 4-byte Reload
.Ltmp226:
	@DEBUG_VALUE: mbedtls_gcm_update:output <- $r3
	b	.LBB5_15
.Ltmp227:
.LBB5_14:                               @   in Loop: Header=BB5_15 Depth=2
	@DEBUG_VALUE: mbedtls_gcm_update:p <- $r5
	@DEBUG_VALUE: mbedtls_gcm_update:use_len <- $r4
	@DEBUG_VALUE: mbedtls_gcm_update:i <- $r0
	@DEBUG_VALUE: mbedtls_gcm_update:olen <- [DW_OP_plus_uconst 24, DW_OP_deref] $sp
	@DEBUG_VALUE: mbedtls_gcm_update:length <- [DW_OP_plus_uconst 12] [$sp+0]
	@DEBUG_VALUE: mbedtls_gcm_update:ctx <- [DW_OP_plus_uconst 16] [$sp+0]
	.loc	2 406 35 is_stmt 1              @ ../../../ThirdParty/mbedTLS/library/gcm.c:406:35
	adds	r0, r0, #1
.Ltmp228:
	@DEBUG_VALUE: mbedtls_gcm_update:i <- $r0
	.loc	2 406 9 is_stmt 0               @ ../../../ThirdParty/mbedTLS/library/gcm.c:406:9
	cmp	r0, r4
	bhs	.LBB5_6
.Ltmp229:
.LBB5_15:                               @   Parent Loop BB5_7 Depth=1
                                        @ =>  This Inner Loop Header: Depth=2
	@DEBUG_VALUE: mbedtls_gcm_update:p <- $r5
	@DEBUG_VALUE: mbedtls_gcm_update:use_len <- $r4
	@DEBUG_VALUE: mbedtls_gcm_update:olen <- [DW_OP_plus_uconst 24, DW_OP_deref] $sp
	@DEBUG_VALUE: mbedtls_gcm_update:length <- [DW_OP_plus_uconst 12] [$sp+0]
	@DEBUG_VALUE: mbedtls_gcm_update:ctx <- [DW_OP_plus_uconst 16] [$sp+0]
	@DEBUG_VALUE: mbedtls_gcm_update:i <- $r0
	.loc	2 408 22 is_stmt 1              @ ../../../ThirdParty/mbedTLS/library/gcm.c:408:22
	ldr	r1, [r6, #64]
.Ltmp230:
	.loc	2 408 17 is_stmt 0              @ ../../../ThirdParty/mbedTLS/library/gcm.c:408:17
	cbnz	r1, .LBB5_17
.Ltmp231:
@ %bb.16:                               @   in Loop: Header=BB5_15 Depth=2
	@DEBUG_VALUE: mbedtls_gcm_update:p <- $r5
	@DEBUG_VALUE: mbedtls_gcm_update:use_len <- $r4
	@DEBUG_VALUE: mbedtls_gcm_update:i <- $r0
	@DEBUG_VALUE: mbedtls_gcm_update:olen <- [DW_OP_plus_uconst 24, DW_OP_deref] $sp
	@DEBUG_VALUE: mbedtls_gcm_update:length <- [DW_OP_plus_uconst 12] [$sp+0]
	@DEBUG_VALUE: mbedtls_gcm_update:ctx <- [DW_OP_plus_uconst 16] [$sp+0]
	.loc	2 409 32 is_stmt 1              @ ../../../ThirdParty/mbedTLS/library/gcm.c:409:32
	ldrb	r1, [r5, r0]
	.loc	2 409 29 is_stmt 0              @ ../../../ThirdParty/mbedTLS/library/gcm.c:409:29
	ldrb	r2, [r7, r0]
	eors	r2, r1
	strb	r2, [r7, r0]
.Ltmp232:
.LBB5_17:                               @   in Loop: Header=BB5_15 Depth=2
	@DEBUG_VALUE: mbedtls_gcm_update:p <- $r5
	@DEBUG_VALUE: mbedtls_gcm_update:use_len <- $r4
	@DEBUG_VALUE: mbedtls_gcm_update:i <- $r0
	@DEBUG_VALUE: mbedtls_gcm_update:olen <- [DW_OP_plus_uconst 24, DW_OP_deref] $sp
	@DEBUG_VALUE: mbedtls_gcm_update:length <- [DW_OP_plus_uconst 12] [$sp+0]
	@DEBUG_VALUE: mbedtls_gcm_update:ctx <- [DW_OP_plus_uconst 16] [$sp+0]
	.loc	2 0 29                          @ ../../../ThirdParty/mbedTLS/library/gcm.c:0:29
	add	r1, sp, #28
	.loc	2 410 24 is_stmt 1              @ ../../../ThirdParty/mbedTLS/library/gcm.c:410:24
	ldrb	r2, [r1, r0]
	.loc	2 410 34 is_stmt 0              @ ../../../ThirdParty/mbedTLS/library/gcm.c:410:34
	ldrb	r1, [r5, r0]
	.loc	2 410 32                        @ ../../../ThirdParty/mbedTLS/library/gcm.c:410:32
	eors	r1, r2
	.loc	2 410 22                        @ ../../../ThirdParty/mbedTLS/library/gcm.c:410:22
	strb	r1, [r3, r0]
.Ltmp233:
	.loc	2 411 22 is_stmt 1              @ ../../../ThirdParty/mbedTLS/library/gcm.c:411:22
	ldr	r2, [r6, #64]
.Ltmp234:
	.loc	2 411 17 is_stmt 0              @ ../../../ThirdParty/mbedTLS/library/gcm.c:411:17
	cmp	r2, #1
	bne	.LBB5_14
.Ltmp235:
@ %bb.18:                               @   in Loop: Header=BB5_15 Depth=2
	@DEBUG_VALUE: mbedtls_gcm_update:p <- $r5
	@DEBUG_VALUE: mbedtls_gcm_update:use_len <- $r4
	@DEBUG_VALUE: mbedtls_gcm_update:i <- $r0
	@DEBUG_VALUE: mbedtls_gcm_update:olen <- [DW_OP_plus_uconst 24, DW_OP_deref] $sp
	@DEBUG_VALUE: mbedtls_gcm_update:length <- [DW_OP_plus_uconst 12] [$sp+0]
	@DEBUG_VALUE: mbedtls_gcm_update:ctx <- [DW_OP_plus_uconst 16] [$sp+0]
	.loc	2 412 29 is_stmt 1              @ ../../../ThirdParty/mbedTLS/library/gcm.c:412:29
	ldrb	r2, [r7, r0]
	eors	r2, r1
	strb	r2, [r7, r0]
	b	.LBB5_14
.Ltmp236:
.LBB5_19:
	@DEBUG_VALUE: mbedtls_gcm_update:p <- $r5
	@DEBUG_VALUE: mbedtls_gcm_update:length <- $r4
	@DEBUG_VALUE: mbedtls_gcm_update:out_p <- $r0
	@DEBUG_VALUE: mbedtls_gcm_update:olen <- [DW_OP_plus_uconst 24, DW_OP_deref] $sp
	@DEBUG_VALUE: mbedtls_gcm_update:ctx <- [DW_OP_plus_uconst 16] [$sp+0]
	.loc	2 0 29 is_stmt 0                @ ../../../ThirdParty/mbedTLS/library/gcm.c:0:29
	movs	r0, #0
.Ltmp237:
.LBB5_20:
	@DEBUG_VALUE: mbedtls_gcm_update:ctx <- [DW_OP_plus_uconst 16] [$sp+0]
	.loc	2 423 1 is_stmt 1               @ ../../../ThirdParty/mbedTLS/library/gcm.c:423:1
	add	sp, #44
.Ltmp238:
	pop	{r4, r5, r6, r7, pc}
.Ltmp239:
.Lfunc_end5:
	.size	mbedtls_gcm_update, .Lfunc_end5-mbedtls_gcm_update
	.cfi_endproc
	.cantunwind
	.fnend
                                        @ -- End function
	.section	.text.mbedtls_gcm_finish,"ax",%progbits
	.hidden	mbedtls_gcm_finish              @ -- Begin function mbedtls_gcm_finish
	.globl	mbedtls_gcm_finish
	.p2align	1
	.type	mbedtls_gcm_finish,%function
	.code	16                              @ @mbedtls_gcm_finish
	.thumb_func
mbedtls_gcm_finish:
.Lfunc_begin6:
	.loc	2 428 0                         @ ../../../ThirdParty/mbedTLS/library/gcm.c:428:0
	.fnstart
	.cfi_startproc
@ %bb.0:
	@DEBUG_VALUE: mbedtls_gcm_finish:ctx <- $r0
	@DEBUG_VALUE: mbedtls_gcm_finish:tag <- $r1
	@DEBUG_VALUE: mbedtls_gcm_finish:tag_len <- $r2
	.save	{r4, r5, r6, r7, lr}
	push	{r4, r5, r6, r7, lr}
	.cfi_def_cfa_offset 20
	.cfi_offset lr, -4
	.cfi_offset r7, -8
	.cfi_offset r6, -12
	.cfi_offset r5, -16
	.cfi_offset r4, -20
	.pad	#52
	sub	sp, #52
	.cfi_def_cfa_offset 72
	mov	r5, r1
	mov	r3, r0
.Ltmp240:
	@DEBUG_VALUE: mbedtls_gcm_finish:orig_add_len <- [DW_OP_LLVM_fragment 0 32] undef
	@DEBUG_VALUE: mbedtls_gcm_finish:orig_len <- [DW_OP_LLVM_fragment 0 32] undef
	@DEBUG_VALUE: mbedtls_gcm_finish:orig_len <- [DW_OP_LLVM_fragment 32 32] undef
	@DEBUG_VALUE: mbedtls_gcm_finish:orig_add_len <- [DW_OP_LLVM_fragment 32 32] undef
	movs	r0, #19
.Ltmp241:
	@DEBUG_VALUE: mbedtls_gcm_finish:ctx <- [DW_OP_LLVM_entry_value 1] $r0
	mvns	r0, r0
	@DEBUG_VALUE: mbedtls_gcm_finish:tag_len <- $r2
.Ltmp242:
	@DEBUG_VALUE: mbedtls_gcm_finish:tag <- $r5
	@DEBUG_VALUE: mbedtls_gcm_finish:ctx <- $r3
	.loc	2 440 22 prologue_end           @ ../../../ThirdParty/mbedTLS/library/gcm.c:440:22
	subs	r1, r2, #4
	cmp	r1, #12
	bhi	.LBB6_7
.Ltmp243:
@ %bb.1:
	@DEBUG_VALUE: mbedtls_gcm_finish:tag <- $r5
	@DEBUG_VALUE: mbedtls_gcm_finish:ctx <- $r3
	@DEBUG_VALUE: mbedtls_gcm_finish:tag_len <- $r2
	.loc	2 0 22 is_stmt 0                @ ../../../ThirdParty/mbedTLS/library/gcm.c:0:22
	mov	r4, r2
.Ltmp244:
	@DEBUG_VALUE: mbedtls_gcm_finish:tag_len <- $r4
	str	r0, [sp, #20]                   @ 4-byte Spill
	movw	r6, #320
	adds	r1, r3, r6
	ldr	r7, [r1, #4]
	ldr	r0, [r1, #8]
	ldr	r2, [r1, #12]
	lsrs	r1, r0, #29
	str	r2, [sp, #16]                   @ 4-byte Spill
	lsls	r2, r2, #3
	adds	r1, r2, r1
.Ltmp245:
	@DEBUG_VALUE: mbedtls_gcm_finish:orig_add_len <- [DW_OP_LLVM_fragment 32 32] $r1
	str	r1, [sp, #32]                   @ 4-byte Spill
.Ltmp246:
	@DEBUG_VALUE: mbedtls_gcm_finish:orig_add_len <- [DW_OP_plus_uconst 32, DW_OP_LLVM_fragment 32 32] [$sp+0]
	@DEBUG_VALUE: mbedtls_gcm_finish:orig_add_len <- [DW_OP_plus_uconst 32, DW_OP_LLVM_fragment 32 32] [$sp+0]
	ldr	r6, [r3, r6]
	lsrs	r2, r6, #29
	str	r7, [sp, #12]                   @ 4-byte Spill
	lsls	r1, r7, #3
	adds	r1, r1, r2
.Ltmp247:
	@DEBUG_VALUE: mbedtls_gcm_finish:orig_len <- [DW_OP_LLVM_fragment 32 32] $r1
	str	r1, [sp, #28]                   @ 4-byte Spill
.Ltmp248:
	@DEBUG_VALUE: mbedtls_gcm_finish:orig_len <- [DW_OP_plus_uconst 28, DW_OP_LLVM_fragment 32 32] [$sp+0]
	@DEBUG_VALUE: mbedtls_gcm_finish:orig_len <- [DW_OP_plus_uconst 28, DW_OP_LLVM_fragment 32 32] [$sp+0]
	lsls	r1, r6, #3
.Ltmp249:
	@DEBUG_VALUE: mbedtls_gcm_finish:orig_len <- [DW_OP_LLVM_fragment 0 32] $r1
	str	r1, [sp, #24]                   @ 4-byte Spill
.Ltmp250:
	@DEBUG_VALUE: mbedtls_gcm_finish:orig_len <- [DW_OP_plus_uconst 24, DW_OP_LLVM_fragment 0 32] [$sp+0]
	@DEBUG_VALUE: mbedtls_gcm_finish:orig_len <- [DW_OP_plus_uconst 24, DW_OP_LLVM_fragment 0 32] [$sp+0]
	str	r0, [sp, #4]                    @ 4-byte Spill
	lsls	r7, r0, #3
.Ltmp251:
	@DEBUG_VALUE: mbedtls_gcm_finish:orig_add_len <- [DW_OP_LLVM_fragment 0 32] $r7
	movw	r0, #336
	.loc	2 443 5 is_stmt 1               @ ../../../ThirdParty/mbedTLS/library/gcm.c:443:5
	adds	r1, r3, r0
	mov	r0, r5
	mov	r2, r4
	str	r3, [sp, #8]                    @ 4-byte Spill
.Ltmp252:
	@DEBUG_VALUE: mbedtls_gcm_finish:ctx <- [DW_OP_plus_uconst 8] [$sp+0]
	bl	__aeabi_memcpy
.Ltmp253:
	@DEBUG_VALUE: mbedtls_gcm_finish:orig_add_len <- [DW_OP_LLVM_fragment 32 32] undef
	.loc	2 0 5 is_stmt 0                 @ ../../../ThirdParty/mbedTLS/library/gcm.c:0:5
	str	r7, [sp]                        @ 4-byte Spill
.Ltmp254:
	@DEBUG_VALUE: mbedtls_gcm_finish:orig_add_len <- [DW_OP_LLVM_fragment 0 32] [$sp+0]
	.loc	2 445 18 is_stmt 1              @ ../../../ThirdParty/mbedTLS/library/gcm.c:445:18
	mov	r0, r7
	ldr	r7, [sp, #28]                   @ 4-byte Reload
.Ltmp255:
	@DEBUG_VALUE: mbedtls_gcm_finish:orig_len <- [DW_OP_LLVM_fragment 32 32] $r7
	.loc	2 0 18 is_stmt 0                @ ../../../ThirdParty/mbedTLS/library/gcm.c:0:18
	ldr	r1, [sp, #24]                   @ 4-byte Reload
.Ltmp256:
	@DEBUG_VALUE: mbedtls_gcm_finish:orig_len <- [DW_OP_LLVM_fragment 0 32] $r1
	mov	r3, r1
.Ltmp257:
	@DEBUG_VALUE: mbedtls_gcm_finish:orig_len <- [DW_OP_LLVM_fragment 0 32] $r3
	.loc	2 445 18                        @ ../../../ThirdParty/mbedTLS/library/gcm.c:445:18
	orrs	r0, r1
.Ltmp258:
	@DEBUG_VALUE: mbedtls_gcm_finish:orig_add_len <- [DW_OP_plus_uconst 32, DW_OP_LLVM_fragment 32 32] [$sp+0]
	ldr	r1, [sp, #32]                   @ 4-byte Reload
	orrs	r1, r7
	orrs	r1, r0
	beq	.LBB6_8
.Ltmp259:
@ %bb.2:
	@DEBUG_VALUE: mbedtls_gcm_finish:ctx <- [DW_OP_plus_uconst 8] [$sp+0]
	@DEBUG_VALUE: mbedtls_gcm_finish:orig_len <- [DW_OP_LLVM_fragment 32 32] $r7
	@DEBUG_VALUE: mbedtls_gcm_finish:tag <- $r5
	@DEBUG_VALUE: mbedtls_gcm_finish:tag_len <- $r4
	@DEBUG_VALUE: mbedtls_gcm_finish:orig_len <- [DW_OP_LLVM_fragment 0 32] $r3
	@DEBUG_VALUE: mbedtls_gcm_finish:orig_add_len <- [DW_OP_LLVM_fragment 0 32] [$sp+0]
	@DEBUG_VALUE: mbedtls_gcm_finish:orig_add_len <- [DW_OP_plus_uconst 32, DW_OP_LLVM_fragment 32 32] [$sp+0]
	.loc	2 0 18                          @ ../../../ThirdParty/mbedTLS/library/gcm.c:0:18
	movs	r2, #0
.Ltmp260:
	.loc	2 447 9 is_stmt 1               @ ../../../ThirdParty/mbedTLS/library/gcm.c:447:9
	str	r2, [sp, #48]
	add	r0, sp, #36
.Ltmp261:
	.loc	2 452 9                         @ ../../../ThirdParty/mbedTLS/library/gcm.c:452:9
	strb	r3, [r0, #15]
	lsrs	r1, r6, #5
	strb	r1, [r0, #14]
	lsrs	r1, r6, #13
	strb	r1, [r0, #13]
	lsrs	r1, r6, #21
	strb	r1, [r0, #12]
.Ltmp262:
	.loc	2 447 9                         @ ../../../ThirdParty/mbedTLS/library/gcm.c:447:9
	str	r2, [sp, #40]
.Ltmp263:
	.loc	2 450 9                         @ ../../../ThirdParty/mbedTLS/library/gcm.c:450:9
	ldr	r1, [sp]                        @ 4-byte Reload
	strb	r1, [r0, #7]
	ldr	r6, [sp, #4]                    @ 4-byte Reload
	lsrs	r1, r6, #5
	strb	r1, [r0, #6]
	lsrs	r1, r6, #13
	strb	r1, [r0, #5]
	lsrs	r1, r6, #21
	strb	r1, [r0, #4]
.Ltmp264:
	.loc	2 447 9                         @ ../../../ThirdParty/mbedTLS/library/gcm.c:447:9
	str	r2, [sp, #44]
	ldr	r6, [sp, #12]                   @ 4-byte Reload
.Ltmp265:
	.loc	2 451 9                         @ ../../../ThirdParty/mbedTLS/library/gcm.c:451:9
	lsrs	r1, r6, #5
	strb	r1, [r0, #10]
	lsrs	r1, r6, #13
	strb	r1, [r0, #9]
	lsrs	r1, r6, #21
	strb	r1, [r0, #8]
	str	r2, [sp, #24]                   @ 4-byte Spill
.Ltmp266:
	.loc	2 447 9                         @ ../../../ThirdParty/mbedTLS/library/gcm.c:447:9
	str	r2, [sp, #36]
	ldr	r2, [sp, #16]                   @ 4-byte Reload
.Ltmp267:
	.loc	2 449 9                         @ ../../../ThirdParty/mbedTLS/library/gcm.c:449:9
	lsrs	r1, r2, #5
	strb	r1, [r0, #2]
	lsrs	r1, r2, #13
	strb	r1, [r0, #1]
	lsrs	r1, r2, #21
	strb	r1, [r0]
.Ltmp268:
	.loc	2 451 9                         @ ../../../ThirdParty/mbedTLS/library/gcm.c:451:9
	strb	r7, [r0, #11]
.Ltmp269:
	.loc	2 449 9                         @ ../../../ThirdParty/mbedTLS/library/gcm.c:449:9
	ldr	r1, [sp, #32]                   @ 4-byte Reload
	strb	r1, [r0, #3]
	movw	r0, #368
.Ltmp270:
	@DEBUG_VALUE: mbedtls_gcm_finish:i <- 0
	.loc	2 0 9 is_stmt 0                 @ ../../../ThirdParty/mbedTLS/library/gcm.c:0:9
	ldr	r1, [sp, #8]                    @ 4-byte Reload
.Ltmp271:
	@DEBUG_VALUE: mbedtls_gcm_finish:ctx <- $r1
	mov	r7, r1
.Ltmp272:
	.loc	2 454 9 is_stmt 1               @ ../../../ThirdParty/mbedTLS/library/gcm.c:454:9
	adds	r0, r1, r0
	ldr	r1, [sp, #20]                   @ 4-byte Reload
.Ltmp273:
	.loc	2 0 9 is_stmt 0                 @ ../../../ThirdParty/mbedTLS/library/gcm.c:0:9
	adds	r1, r1, #4
.Ltmp274:
.LBB6_3:                                @ =>This Inner Loop Header: Depth=1
	@DEBUG_VALUE: mbedtls_gcm_finish:tag <- $r5
	@DEBUG_VALUE: mbedtls_gcm_finish:tag_len <- $r4
	@DEBUG_VALUE: mbedtls_gcm_finish:orig_add_len <- [DW_OP_LLVM_fragment 0 32] [$sp+0]
	@DEBUG_VALUE: mbedtls_gcm_finish:orig_add_len <- [DW_OP_plus_uconst 32, DW_OP_LLVM_fragment 32 32] [$sp+0]
	@DEBUG_VALUE: mbedtls_gcm_finish:i <- undef
	add	r2, sp, #36
.Ltmp275:
	.loc	2 455 28 is_stmt 1              @ ../../../ThirdParty/mbedTLS/library/gcm.c:455:28
	adds	r2, r2, r1
	ldrb	r2, [r2, #16]
	.loc	2 455 25 is_stmt 0              @ ../../../ThirdParty/mbedTLS/library/gcm.c:455:25
	adds	r3, r0, r1
	ldrb	r6, [r3, #16]
	eors	r6, r2
	strb	r6, [r3, #16]
.Ltmp276:
	@DEBUG_VALUE: mbedtls_gcm_finish:i <- [DW_OP_plus_uconst 1, DW_OP_stack_value] undef
	.loc	2 454 23 is_stmt 1              @ ../../../ThirdParty/mbedTLS/library/gcm.c:454:23
	adds	r1, r1, #1
.Ltmp277:
	.loc	2 454 9 is_stmt 0               @ ../../../ThirdParty/mbedTLS/library/gcm.c:454:9
	blo	.LBB6_3
.Ltmp278:
@ %bb.4:
	@DEBUG_VALUE: mbedtls_gcm_finish:tag <- $r5
	@DEBUG_VALUE: mbedtls_gcm_finish:tag_len <- $r4
	@DEBUG_VALUE: mbedtls_gcm_finish:orig_add_len <- [DW_OP_LLVM_fragment 0 32] [$sp+0]
	@DEBUG_VALUE: mbedtls_gcm_finish:orig_add_len <- [DW_OP_plus_uconst 32, DW_OP_LLVM_fragment 32 32] [$sp+0]
	.loc	2 0 9                           @ ../../../ThirdParty/mbedTLS/library/gcm.c:0:9
	movw	r1, #368
	mov	r0, r7
	.loc	2 457 24 is_stmt 1              @ ../../../ThirdParty/mbedTLS/library/gcm.c:457:24
	adds	r7, r7, r1
	.loc	2 457 9 is_stmt 0               @ ../../../ThirdParty/mbedTLS/library/gcm.c:457:9
	mov	r1, r7
	mov	r2, r7
	bl	gcm_mult
.Ltmp279:
	@DEBUG_VALUE: mbedtls_gcm_finish:i <- 0
	.loc	2 459 9 is_stmt 1               @ ../../../ThirdParty/mbedTLS/library/gcm.c:459:9
	cbz	r4, .LBB6_9
.Ltmp280:
.LBB6_5:                                @ =>This Inner Loop Header: Depth=1
	@DEBUG_VALUE: mbedtls_gcm_finish:orig_add_len <- [DW_OP_LLVM_fragment 0 32] [$sp+0]
	@DEBUG_VALUE: mbedtls_gcm_finish:orig_add_len <- [DW_OP_plus_uconst 32, DW_OP_LLVM_fragment 32 32] [$sp+0]
	@DEBUG_VALUE: mbedtls_gcm_finish:i <- undef
	.loc	2 460 23                        @ ../../../ThirdParty/mbedTLS/library/gcm.c:460:23
	ldrb	r0, [r7]
	.loc	2 460 20 is_stmt 0              @ ../../../ThirdParty/mbedTLS/library/gcm.c:460:20
	ldrb	r1, [r5]
	eors	r1, r0
	strb	r1, [r5]
	.loc	2 459 23 is_stmt 1              @ ../../../ThirdParty/mbedTLS/library/gcm.c:459:23
	adds	r7, r7, #1
	adds	r5, r5, #1
.Ltmp281:
	@DEBUG_VALUE: mbedtls_gcm_finish:i <- [DW_OP_plus_uconst 1, DW_OP_stack_value] undef
	subs	r4, r4, #1
.Ltmp282:
	@DEBUG_VALUE: mbedtls_gcm_finish:tag_len <- [DW_OP_LLVM_entry_value 1] $r2
	.loc	2 459 9 is_stmt 0               @ ../../../ThirdParty/mbedTLS/library/gcm.c:459:9
	bne	.LBB6_5
.Ltmp283:
@ %bb.6:
	@DEBUG_VALUE: mbedtls_gcm_finish:orig_add_len <- [DW_OP_LLVM_fragment 0 32] [$sp+0]
	@DEBUG_VALUE: mbedtls_gcm_finish:orig_add_len <- [DW_OP_plus_uconst 32, DW_OP_LLVM_fragment 32 32] [$sp+0]
	.loc	2 0 0                           @ ../../../ThirdParty/mbedTLS/library/gcm.c:0:0
	ldr	r0, [sp, #24]                   @ 4-byte Reload
.Ltmp284:
.LBB6_7:
	.loc	2 464 1 is_stmt 1               @ ../../../ThirdParty/mbedTLS/library/gcm.c:464:1
	add	sp, #52
	pop	{r4, r5, r6, r7, pc}
.LBB6_8:
.Ltmp285:
	@DEBUG_VALUE: mbedtls_gcm_finish:ctx <- [DW_OP_plus_uconst 8] [$sp+0]
	@DEBUG_VALUE: mbedtls_gcm_finish:orig_len <- [DW_OP_LLVM_fragment 32 32] $r7
	@DEBUG_VALUE: mbedtls_gcm_finish:tag <- $r5
	@DEBUG_VALUE: mbedtls_gcm_finish:tag_len <- $r4
	@DEBUG_VALUE: mbedtls_gcm_finish:orig_len <- [DW_OP_LLVM_fragment 0 32] $r3
	@DEBUG_VALUE: mbedtls_gcm_finish:orig_add_len <- [DW_OP_LLVM_fragment 0 32] [$sp+0]
	@DEBUG_VALUE: mbedtls_gcm_finish:orig_add_len <- [DW_OP_plus_uconst 32, DW_OP_LLVM_fragment 32 32] [$sp+0]
	.loc	2 0 1 is_stmt 0                 @ ../../../ThirdParty/mbedTLS/library/gcm.c:0:1
	movs	r0, #0
	.loc	2 464 1                         @ ../../../ThirdParty/mbedTLS/library/gcm.c:464:1
	add	sp, #52
.Ltmp286:
	pop	{r4, r5, r6, r7, pc}
.Ltmp287:
.LBB6_9:
	@DEBUG_VALUE: mbedtls_gcm_finish:tag <- $r5
	@DEBUG_VALUE: mbedtls_gcm_finish:tag_len <- $r4
	@DEBUG_VALUE: mbedtls_gcm_finish:orig_add_len <- [DW_OP_LLVM_fragment 0 32] [$sp+0]
	@DEBUG_VALUE: mbedtls_gcm_finish:orig_add_len <- [DW_OP_plus_uconst 32, DW_OP_LLVM_fragment 32 32] [$sp+0]
	@DEBUG_VALUE: mbedtls_gcm_finish:i <- 0
	.loc	2 0 0                           @ ../../../ThirdParty/mbedTLS/library/gcm.c:0:0
	ldr	r0, [sp, #24]                   @ 4-byte Reload
	.loc	2 464 1                         @ ../../../ThirdParty/mbedTLS/library/gcm.c:464:1
	add	sp, #52
.Ltmp288:
	pop	{r4, r5, r6, r7, pc}
.Ltmp289:
.Lfunc_end6:
	.size	mbedtls_gcm_finish, .Lfunc_end6-mbedtls_gcm_finish
	.cfi_endproc
	.cantunwind
	.fnend
                                        @ -- End function
	.section	.text.mbedtls_gcm_crypt_and_tag,"ax",%progbits
	.hidden	mbedtls_gcm_crypt_and_tag       @ -- Begin function mbedtls_gcm_crypt_and_tag
	.globl	mbedtls_gcm_crypt_and_tag
	.p2align	1
	.type	mbedtls_gcm_crypt_and_tag,%function
	.code	16                              @ @mbedtls_gcm_crypt_and_tag
	.thumb_func
mbedtls_gcm_crypt_and_tag:
.Lfunc_begin7:
	.loc	2 477 0 is_stmt 1               @ ../../../ThirdParty/mbedTLS/library/gcm.c:477:0
	.fnstart
	.cfi_startproc
@ %bb.0:
	@DEBUG_VALUE: mbedtls_gcm_crypt_and_tag:ctx <- $r0
	@DEBUG_VALUE: mbedtls_gcm_crypt_and_tag:mode <- $r1
	@DEBUG_VALUE: mbedtls_gcm_crypt_and_tag:length <- $r2
	@DEBUG_VALUE: mbedtls_gcm_crypt_and_tag:iv <- $r3
	.save	{r4, r5, r6, lr}
	push	{r4, r5, r6, lr}
	.cfi_def_cfa_offset 16
	.cfi_offset lr, -4
	.cfi_offset r6, -8
	.cfi_offset r5, -12
	.cfi_offset r4, -16
	.pad	#8
	sub	sp, #8
	.cfi_def_cfa_offset 24
	mov	r6, r3
	mov	r5, r2
	mov	r4, r0
.Ltmp290:
	@DEBUG_VALUE: mbedtls_gcm_crypt_and_tag:tag <- [DW_OP_plus_uconst 48] [$sp+0]
	@DEBUG_VALUE: mbedtls_gcm_crypt_and_tag:tag_len <- [DW_OP_plus_uconst 44] [$sp+0]
	@DEBUG_VALUE: mbedtls_gcm_crypt_and_tag:output <- [DW_OP_plus_uconst 40] [$sp+0]
	@DEBUG_VALUE: mbedtls_gcm_crypt_and_tag:input <- [DW_OP_plus_uconst 36] [$sp+0]
	@DEBUG_VALUE: mbedtls_gcm_crypt_and_tag:add_len <- [DW_OP_plus_uconst 32] [$sp+0]
	@DEBUG_VALUE: mbedtls_gcm_crypt_and_tag:add <- [DW_OP_plus_uconst 28] [$sp+0]
	@DEBUG_VALUE: mbedtls_gcm_crypt_and_tag:iv_len <- [DW_OP_plus_uconst 24] [$sp+0]
	@DEBUG_VALUE: mbedtls_gcm_crypt_and_tag:iv <- $r6
	@DEBUG_VALUE: mbedtls_gcm_crypt_and_tag:length <- $r5
	@DEBUG_VALUE: mbedtls_gcm_crypt_and_tag:mode <- $r1
	@DEBUG_VALUE: mbedtls_gcm_crypt_and_tag:ctx <- $r4
	ldr	r0, [sp, #32]
.Ltmp291:
	.loc	2 487 17 prologue_end           @ ../../../ThirdParty/mbedTLS/library/gcm.c:487:17
	str	r0, [sp, #4]
	ldr	r0, [sp, #28]
	str	r0, [sp]
	ldr	r3, [sp, #24]
	mov	r0, r4
	@DEBUG_VALUE: mbedtls_gcm_crypt_and_tag:mode <- $r1
	mov	r2, r6
.Ltmp292:
	@DEBUG_VALUE: mbedtls_gcm_crypt_and_tag:iv <- $r2
	bl	mbedtls_gcm_starts
.Ltmp293:
	@DEBUG_VALUE: mbedtls_gcm_crypt_and_tag:mode <- [DW_OP_LLVM_entry_value 1] $r1
	@DEBUG_VALUE: mbedtls_gcm_crypt_and_tag:ret <- $r0
	.loc	2 487 9 is_stmt 0               @ ../../../ThirdParty/mbedTLS/library/gcm.c:487:9
	cbz	r0, .LBB7_2
.Ltmp294:
.LBB7_1:
	@DEBUG_VALUE: mbedtls_gcm_crypt_and_tag:length <- $r5
	@DEBUG_VALUE: mbedtls_gcm_crypt_and_tag:ctx <- $r4
	@DEBUG_VALUE: mbedtls_gcm_crypt_and_tag:ret <- $r0
	@DEBUG_VALUE: mbedtls_gcm_crypt_and_tag:iv_len <- [DW_OP_plus_uconst 24] [$sp+0]
	@DEBUG_VALUE: mbedtls_gcm_crypt_and_tag:add <- [DW_OP_plus_uconst 28] [$sp+0]
	@DEBUG_VALUE: mbedtls_gcm_crypt_and_tag:add_len <- [DW_OP_plus_uconst 32] [$sp+0]
	@DEBUG_VALUE: mbedtls_gcm_crypt_and_tag:input <- [DW_OP_plus_uconst 36] [$sp+0]
	@DEBUG_VALUE: mbedtls_gcm_crypt_and_tag:output <- [DW_OP_plus_uconst 40] [$sp+0]
	@DEBUG_VALUE: mbedtls_gcm_crypt_and_tag:tag_len <- [DW_OP_plus_uconst 44] [$sp+0]
	@DEBUG_VALUE: mbedtls_gcm_crypt_and_tag:tag <- [DW_OP_plus_uconst 48] [$sp+0]
	@DEBUG_VALUE: mbedtls_gcm_crypt_and_tag:mode <- [DW_OP_LLVM_entry_value 1] $r1
	.loc	2 0 0                           @ ../../../ThirdParty/mbedTLS/library/gcm.c:0:0
	add	sp, #8
.Ltmp295:
	pop	{r4, r5, r6, pc}
.Ltmp296:
.LBB7_2:
	@DEBUG_VALUE: mbedtls_gcm_crypt_and_tag:length <- $r5
	@DEBUG_VALUE: mbedtls_gcm_crypt_and_tag:ctx <- $r4
	@DEBUG_VALUE: mbedtls_gcm_crypt_and_tag:ret <- $r0
	@DEBUG_VALUE: mbedtls_gcm_crypt_and_tag:iv_len <- [DW_OP_plus_uconst 24] [$sp+0]
	@DEBUG_VALUE: mbedtls_gcm_crypt_and_tag:add <- [DW_OP_plus_uconst 28] [$sp+0]
	@DEBUG_VALUE: mbedtls_gcm_crypt_and_tag:add_len <- [DW_OP_plus_uconst 32] [$sp+0]
	@DEBUG_VALUE: mbedtls_gcm_crypt_and_tag:input <- [DW_OP_plus_uconst 36] [$sp+0]
	@DEBUG_VALUE: mbedtls_gcm_crypt_and_tag:output <- [DW_OP_plus_uconst 40] [$sp+0]
	@DEBUG_VALUE: mbedtls_gcm_crypt_and_tag:tag_len <- [DW_OP_plus_uconst 44] [$sp+0]
	@DEBUG_VALUE: mbedtls_gcm_crypt_and_tag:tag <- [DW_OP_plus_uconst 48] [$sp+0]
	@DEBUG_VALUE: mbedtls_gcm_crypt_and_tag:mode <- [DW_OP_LLVM_entry_value 1] $r1
	ldr	r3, [sp, #40]
	ldr	r2, [sp, #36]
.Ltmp297:
	.loc	2 490 17 is_stmt 1              @ ../../../ThirdParty/mbedTLS/library/gcm.c:490:17
	mov	r0, r4
.Ltmp298:
	mov	r1, r5
	bl	mbedtls_gcm_update
.Ltmp299:
	@DEBUG_VALUE: mbedtls_gcm_crypt_and_tag:ret <- $r0
	.loc	2 490 9 is_stmt 0               @ ../../../ThirdParty/mbedTLS/library/gcm.c:490:9
	cmp	r0, #0
	bne	.LBB7_1
.Ltmp300:
@ %bb.3:
	@DEBUG_VALUE: mbedtls_gcm_crypt_and_tag:length <- $r5
	@DEBUG_VALUE: mbedtls_gcm_crypt_and_tag:ctx <- $r4
	@DEBUG_VALUE: mbedtls_gcm_crypt_and_tag:ret <- $r0
	@DEBUG_VALUE: mbedtls_gcm_crypt_and_tag:iv_len <- [DW_OP_plus_uconst 24] [$sp+0]
	@DEBUG_VALUE: mbedtls_gcm_crypt_and_tag:add <- [DW_OP_plus_uconst 28] [$sp+0]
	@DEBUG_VALUE: mbedtls_gcm_crypt_and_tag:add_len <- [DW_OP_plus_uconst 32] [$sp+0]
	@DEBUG_VALUE: mbedtls_gcm_crypt_and_tag:input <- [DW_OP_plus_uconst 36] [$sp+0]
	@DEBUG_VALUE: mbedtls_gcm_crypt_and_tag:output <- [DW_OP_plus_uconst 40] [$sp+0]
	@DEBUG_VALUE: mbedtls_gcm_crypt_and_tag:tag_len <- [DW_OP_plus_uconst 44] [$sp+0]
	@DEBUG_VALUE: mbedtls_gcm_crypt_and_tag:tag <- [DW_OP_plus_uconst 48] [$sp+0]
	@DEBUG_VALUE: mbedtls_gcm_crypt_and_tag:mode <- [DW_OP_LLVM_entry_value 1] $r1
	.loc	2 0 9                           @ ../../../ThirdParty/mbedTLS/library/gcm.c:0:9
	ldr	r1, [sp, #48]
	ldr	r2, [sp, #44]
.Ltmp301:
	.loc	2 493 17 is_stmt 1              @ ../../../ThirdParty/mbedTLS/library/gcm.c:493:17
	mov	r0, r4
.Ltmp302:
	bl	mbedtls_gcm_finish
.Ltmp303:
	@DEBUG_VALUE: mbedtls_gcm_crypt_and_tag:ret <- $r0
	.loc	2 0 0 is_stmt 0                 @ ../../../ThirdParty/mbedTLS/library/gcm.c:0:0
	add	sp, #8
.Ltmp304:
	pop	{r4, r5, r6, pc}
.Ltmp305:
.Lfunc_end7:
	.size	mbedtls_gcm_crypt_and_tag, .Lfunc_end7-mbedtls_gcm_crypt_and_tag
	.cfi_endproc
	.cantunwind
	.fnend
                                        @ -- End function
	.section	.text.mbedtls_gcm_auth_decrypt,"ax",%progbits
	.hidden	mbedtls_gcm_auth_decrypt        @ -- Begin function mbedtls_gcm_auth_decrypt
	.globl	mbedtls_gcm_auth_decrypt
	.p2align	1
	.type	mbedtls_gcm_auth_decrypt,%function
	.code	16                              @ @mbedtls_gcm_auth_decrypt
	.thumb_func
mbedtls_gcm_auth_decrypt:
.Lfunc_begin8:
	.loc	2 509 0 is_stmt 1               @ ../../../ThirdParty/mbedTLS/library/gcm.c:509:0
	.fnstart
	.cfi_startproc
@ %bb.0:
	@DEBUG_VALUE: mbedtls_gcm_auth_decrypt:ctx <- $r0
	@DEBUG_VALUE: mbedtls_gcm_auth_decrypt:length <- $r1
	@DEBUG_VALUE: mbedtls_gcm_auth_decrypt:iv <- $r2
	@DEBUG_VALUE: mbedtls_gcm_auth_decrypt:iv_len <- $r3
	.save	{r4, r5, r6, r7, lr}
	push	{r4, r5, r6, r7, lr}
	.cfi_def_cfa_offset 20
	.cfi_offset lr, -4
	.cfi_offset r7, -8
	.cfi_offset r6, -12
	.cfi_offset r5, -16
	.cfi_offset r4, -20
	.pad	#52
	sub	sp, #52
	.cfi_def_cfa_offset 72
	mov	r6, r2
	mov	r2, r1
.Ltmp306:
	@DEBUG_VALUE: mbedtls_gcm_auth_decrypt:iv <- [DW_OP_LLVM_entry_value 1] $r2
	@DEBUG_VALUE: mbedtls_gcm_auth_decrypt:output <- [DW_OP_plus_uconst 92] [$sp+0]
	@DEBUG_VALUE: mbedtls_gcm_auth_decrypt:input <- [DW_OP_plus_uconst 88] [$sp+0]
	@DEBUG_VALUE: mbedtls_gcm_auth_decrypt:tag_len <- [DW_OP_plus_uconst 84] [$sp+0]
	@DEBUG_VALUE: mbedtls_gcm_auth_decrypt:tag <- [DW_OP_plus_uconst 80] [$sp+0]
	@DEBUG_VALUE: mbedtls_gcm_auth_decrypt:add_len <- [DW_OP_plus_uconst 76] [$sp+0]
	@DEBUG_VALUE: mbedtls_gcm_auth_decrypt:add <- [DW_OP_plus_uconst 72] [$sp+0]
	@DEBUG_VALUE: mbedtls_gcm_auth_decrypt:iv_len <- $r3
	@DEBUG_VALUE: mbedtls_gcm_auth_decrypt:iv <- $r6
	@DEBUG_VALUE: mbedtls_gcm_auth_decrypt:length <- $r2
	@DEBUG_VALUE: mbedtls_gcm_auth_decrypt:ctx <- $r0
	add	r1, sp, #36
.Ltmp307:
	.loc	2 522 17 prologue_end           @ ../../../ThirdParty/mbedTLS/library/gcm.c:522:17
	str	r1, [sp, #24]
	ldr	r4, [sp, #84]
	str	r4, [sp, #20]
	ldr	r5, [sp, #92]
	str	r5, [sp, #16]
	ldr	r1, [sp, #88]
	str	r1, [sp, #12]
	ldr	r1, [sp, #76]
	str	r1, [sp, #8]
	ldr	r1, [sp, #72]
	str	r1, [sp, #4]
	str	r3, [sp]
	movs	r7, #0
	@DEBUG_VALUE: mbedtls_gcm_auth_decrypt:ctx <- $r0
	mov	r1, r7
	str	r2, [sp, #32]                   @ 4-byte Spill
.Ltmp308:
	@DEBUG_VALUE: mbedtls_gcm_auth_decrypt:length <- [DW_OP_plus_uconst 32] [$sp+0]
	mov	r3, r6
.Ltmp309:
	@DEBUG_VALUE: mbedtls_gcm_auth_decrypt:iv_len <- [DW_OP_LLVM_entry_value 1] $r3
	@DEBUG_VALUE: mbedtls_gcm_auth_decrypt:iv <- $r3
	bl	mbedtls_gcm_crypt_and_tag
.Ltmp310:
	@DEBUG_VALUE: mbedtls_gcm_auth_decrypt:ctx <- [DW_OP_LLVM_entry_value 1] $r0
	@DEBUG_VALUE: mbedtls_gcm_auth_decrypt:ret <- $r0
	.loc	2 522 9 is_stmt 0               @ ../../../ThirdParty/mbedTLS/library/gcm.c:522:9
	cbz	r0, .LBB8_2
.Ltmp311:
.LBB8_1:
	@DEBUG_VALUE: mbedtls_gcm_auth_decrypt:length <- [DW_OP_plus_uconst 32] [$sp+0]
	@DEBUG_VALUE: mbedtls_gcm_auth_decrypt:add <- [DW_OP_plus_uconst 72] [$sp+0]
	@DEBUG_VALUE: mbedtls_gcm_auth_decrypt:add_len <- [DW_OP_plus_uconst 76] [$sp+0]
	@DEBUG_VALUE: mbedtls_gcm_auth_decrypt:tag <- [DW_OP_plus_uconst 80] [$sp+0]
	@DEBUG_VALUE: mbedtls_gcm_auth_decrypt:tag_len <- [DW_OP_plus_uconst 84] [$sp+0]
	@DEBUG_VALUE: mbedtls_gcm_auth_decrypt:input <- [DW_OP_plus_uconst 88] [$sp+0]
	@DEBUG_VALUE: mbedtls_gcm_auth_decrypt:output <- [DW_OP_plus_uconst 92] [$sp+0]
	@DEBUG_VALUE: mbedtls_gcm_auth_decrypt:ctx <- [DW_OP_LLVM_entry_value 1] $r0
	@DEBUG_VALUE: mbedtls_gcm_auth_decrypt:iv_len <- [DW_OP_LLVM_entry_value 1] $r3
	.loc	2 540 1 is_stmt 1               @ ../../../ThirdParty/mbedTLS/library/gcm.c:540:1
	add	sp, #52
.Ltmp312:
	pop	{r4, r5, r6, r7, pc}
.Ltmp313:
.LBB8_2:
	@DEBUG_VALUE: mbedtls_gcm_auth_decrypt:ret <- $r0
	@DEBUG_VALUE: mbedtls_gcm_auth_decrypt:length <- [DW_OP_plus_uconst 32] [$sp+0]
	@DEBUG_VALUE: mbedtls_gcm_auth_decrypt:add <- [DW_OP_plus_uconst 72] [$sp+0]
	@DEBUG_VALUE: mbedtls_gcm_auth_decrypt:add_len <- [DW_OP_plus_uconst 76] [$sp+0]
	@DEBUG_VALUE: mbedtls_gcm_auth_decrypt:tag <- [DW_OP_plus_uconst 80] [$sp+0]
	@DEBUG_VALUE: mbedtls_gcm_auth_decrypt:tag_len <- [DW_OP_plus_uconst 84] [$sp+0]
	@DEBUG_VALUE: mbedtls_gcm_auth_decrypt:input <- [DW_OP_plus_uconst 88] [$sp+0]
	@DEBUG_VALUE: mbedtls_gcm_auth_decrypt:output <- [DW_OP_plus_uconst 92] [$sp+0]
	@DEBUG_VALUE: mbedtls_gcm_auth_decrypt:ctx <- [DW_OP_LLVM_entry_value 1] $r0
	@DEBUG_VALUE: mbedtls_gcm_auth_decrypt:iv_len <- [DW_OP_LLVM_entry_value 1] $r3
	@DEBUG_VALUE: mbedtls_gcm_auth_decrypt:diff <- 0
	@DEBUG_VALUE: mbedtls_gcm_auth_decrypt:i <- 0
	.loc	2 530 5                         @ ../../../ThirdParty/mbedTLS/library/gcm.c:530:5
	cmp	r4, #0
.Ltmp314:
	.loc	2 0 0 is_stmt 0                 @ ../../../ThirdParty/mbedTLS/library/gcm.c:0:0
	mov	r0, r7
.Ltmp315:
	.loc	2 530 5                         @ ../../../ThirdParty/mbedTLS/library/gcm.c:530:5
	beq	.LBB8_1
.Ltmp316:
@ %bb.3:
	@DEBUG_VALUE: mbedtls_gcm_auth_decrypt:length <- [DW_OP_plus_uconst 32] [$sp+0]
	@DEBUG_VALUE: mbedtls_gcm_auth_decrypt:add <- [DW_OP_plus_uconst 72] [$sp+0]
	@DEBUG_VALUE: mbedtls_gcm_auth_decrypt:add_len <- [DW_OP_plus_uconst 76] [$sp+0]
	@DEBUG_VALUE: mbedtls_gcm_auth_decrypt:tag <- [DW_OP_plus_uconst 80] [$sp+0]
	@DEBUG_VALUE: mbedtls_gcm_auth_decrypt:tag_len <- [DW_OP_plus_uconst 84] [$sp+0]
	@DEBUG_VALUE: mbedtls_gcm_auth_decrypt:input <- [DW_OP_plus_uconst 88] [$sp+0]
	@DEBUG_VALUE: mbedtls_gcm_auth_decrypt:output <- [DW_OP_plus_uconst 92] [$sp+0]
	@DEBUG_VALUE: mbedtls_gcm_auth_decrypt:i <- 0
	@DEBUG_VALUE: mbedtls_gcm_auth_decrypt:diff <- 0
	@DEBUG_VALUE: mbedtls_gcm_auth_decrypt:ctx <- [DW_OP_LLVM_entry_value 1] $r0
	@DEBUG_VALUE: mbedtls_gcm_auth_decrypt:iv_len <- [DW_OP_LLVM_entry_value 1] $r3
	.loc	2 0 5                           @ ../../../ThirdParty/mbedTLS/library/gcm.c:0:5
	ldr	r1, [sp, #80]
	movs	r0, #0
	add	r2, sp, #36
.Ltmp317:
.LBB8_4:                                @ =>This Inner Loop Header: Depth=1
	@DEBUG_VALUE: mbedtls_gcm_auth_decrypt:length <- [DW_OP_plus_uconst 32] [$sp+0]
	@DEBUG_VALUE: mbedtls_gcm_auth_decrypt:add <- [DW_OP_plus_uconst 72] [$sp+0]
	@DEBUG_VALUE: mbedtls_gcm_auth_decrypt:add_len <- [DW_OP_plus_uconst 76] [$sp+0]
	@DEBUG_VALUE: mbedtls_gcm_auth_decrypt:tag <- [DW_OP_plus_uconst 80] [$sp+0]
	@DEBUG_VALUE: mbedtls_gcm_auth_decrypt:tag_len <- [DW_OP_plus_uconst 84] [$sp+0]
	@DEBUG_VALUE: mbedtls_gcm_auth_decrypt:input <- [DW_OP_plus_uconst 88] [$sp+0]
	@DEBUG_VALUE: mbedtls_gcm_auth_decrypt:output <- [DW_OP_plus_uconst 92] [$sp+0]
	@DEBUG_VALUE: mbedtls_gcm_auth_decrypt:ctx <- [DW_OP_LLVM_entry_value 1] $r0
	@DEBUG_VALUE: mbedtls_gcm_auth_decrypt:iv_len <- [DW_OP_LLVM_entry_value 1] $r3
	@DEBUG_VALUE: mbedtls_gcm_auth_decrypt:diff <- $r0
	@DEBUG_VALUE: mbedtls_gcm_auth_decrypt:i <- undef
	.loc	2 531 17 is_stmt 1              @ ../../../ThirdParty/mbedTLS/library/gcm.c:531:17
	ldrb	r3, [r1]
	.loc	2 531 26 is_stmt 0              @ ../../../ThirdParty/mbedTLS/library/gcm.c:531:26
	ldrb	r6, [r2]
	.loc	2 531 24                        @ ../../../ThirdParty/mbedTLS/library/gcm.c:531:24
	eors	r6, r3
	.loc	2 531 14                        @ ../../../ThirdParty/mbedTLS/library/gcm.c:531:14
	orrs	r0, r6
.Ltmp318:
	@DEBUG_VALUE: mbedtls_gcm_auth_decrypt:diff <- $r0
	.loc	2 530 29 is_stmt 1              @ ../../../ThirdParty/mbedTLS/library/gcm.c:530:29
	adds	r1, r1, #1
	adds	r2, r2, #1
.Ltmp319:
	@DEBUG_VALUE: mbedtls_gcm_auth_decrypt:i <- [DW_OP_plus_uconst 1, DW_OP_stack_value] undef
	subs	r4, r4, #1
.Ltmp320:
	.loc	2 530 5 is_stmt 0               @ ../../../ThirdParty/mbedTLS/library/gcm.c:530:5
	bne	.LBB8_4
.Ltmp321:
@ %bb.5:
	@DEBUG_VALUE: mbedtls_gcm_auth_decrypt:diff <- $r0
	@DEBUG_VALUE: mbedtls_gcm_auth_decrypt:length <- [DW_OP_plus_uconst 32] [$sp+0]
	@DEBUG_VALUE: mbedtls_gcm_auth_decrypt:add <- [DW_OP_plus_uconst 72] [$sp+0]
	@DEBUG_VALUE: mbedtls_gcm_auth_decrypt:add_len <- [DW_OP_plus_uconst 76] [$sp+0]
	@DEBUG_VALUE: mbedtls_gcm_auth_decrypt:tag <- [DW_OP_plus_uconst 80] [$sp+0]
	@DEBUG_VALUE: mbedtls_gcm_auth_decrypt:tag_len <- [DW_OP_plus_uconst 84] [$sp+0]
	@DEBUG_VALUE: mbedtls_gcm_auth_decrypt:input <- [DW_OP_plus_uconst 88] [$sp+0]
	@DEBUG_VALUE: mbedtls_gcm_auth_decrypt:output <- [DW_OP_plus_uconst 92] [$sp+0]
	@DEBUG_VALUE: mbedtls_gcm_auth_decrypt:ctx <- [DW_OP_LLVM_entry_value 1] $r0
	@DEBUG_VALUE: mbedtls_gcm_auth_decrypt:iv_len <- [DW_OP_LLVM_entry_value 1] $r3
	@DEBUG_VALUE: mbedtls_gcm_auth_decrypt:diff <- undef
	.loc	2 533 9 is_stmt 1               @ ../../../ThirdParty/mbedTLS/library/gcm.c:533:9
	cbz	r0, .LBB8_7
.Ltmp322:
@ %bb.6:
	@DEBUG_VALUE: mbedtls_gcm_auth_decrypt:length <- [DW_OP_plus_uconst 32] [$sp+0]
	@DEBUG_VALUE: mbedtls_gcm_auth_decrypt:add <- [DW_OP_plus_uconst 72] [$sp+0]
	@DEBUG_VALUE: mbedtls_gcm_auth_decrypt:add_len <- [DW_OP_plus_uconst 76] [$sp+0]
	@DEBUG_VALUE: mbedtls_gcm_auth_decrypt:tag <- [DW_OP_plus_uconst 80] [$sp+0]
	@DEBUG_VALUE: mbedtls_gcm_auth_decrypt:tag_len <- [DW_OP_plus_uconst 84] [$sp+0]
	@DEBUG_VALUE: mbedtls_gcm_auth_decrypt:input <- [DW_OP_plus_uconst 88] [$sp+0]
	@DEBUG_VALUE: mbedtls_gcm_auth_decrypt:output <- [DW_OP_plus_uconst 92] [$sp+0]
	@DEBUG_VALUE: mbedtls_gcm_auth_decrypt:ctx <- [DW_OP_LLVM_entry_value 1] $r0
	@DEBUG_VALUE: mbedtls_gcm_auth_decrypt:iv_len <- [DW_OP_LLVM_entry_value 1] $r3
	.loc	2 535 9                         @ ../../../ThirdParty/mbedTLS/library/gcm.c:535:9
	mov	r0, r5
	ldr	r1, [sp, #32]                   @ 4-byte Reload
	bl	mbedtls_platform_zeroize
	movs	r0, #17
	mvns	r0, r0
.Ltmp323:
	.loc	2 540 1                         @ ../../../ThirdParty/mbedTLS/library/gcm.c:540:1
	add	sp, #52
.Ltmp324:
	pop	{r4, r5, r6, r7, pc}
.Ltmp325:
.LBB8_7:
	@DEBUG_VALUE: mbedtls_gcm_auth_decrypt:length <- [DW_OP_plus_uconst 32] [$sp+0]
	@DEBUG_VALUE: mbedtls_gcm_auth_decrypt:add <- [DW_OP_plus_uconst 72] [$sp+0]
	@DEBUG_VALUE: mbedtls_gcm_auth_decrypt:add_len <- [DW_OP_plus_uconst 76] [$sp+0]
	@DEBUG_VALUE: mbedtls_gcm_auth_decrypt:tag <- [DW_OP_plus_uconst 80] [$sp+0]
	@DEBUG_VALUE: mbedtls_gcm_auth_decrypt:tag_len <- [DW_OP_plus_uconst 84] [$sp+0]
	@DEBUG_VALUE: mbedtls_gcm_auth_decrypt:input <- [DW_OP_plus_uconst 88] [$sp+0]
	@DEBUG_VALUE: mbedtls_gcm_auth_decrypt:output <- [DW_OP_plus_uconst 92] [$sp+0]
	@DEBUG_VALUE: mbedtls_gcm_auth_decrypt:ctx <- [DW_OP_LLVM_entry_value 1] $r0
	@DEBUG_VALUE: mbedtls_gcm_auth_decrypt:iv_len <- [DW_OP_LLVM_entry_value 1] $r3
	.loc	2 0 1 is_stmt 0                 @ ../../../ThirdParty/mbedTLS/library/gcm.c:0:1
	movs	r0, #0
	.loc	2 540 1                         @ ../../../ThirdParty/mbedTLS/library/gcm.c:540:1
	add	sp, #52
.Ltmp326:
	pop	{r4, r5, r6, r7, pc}
.Ltmp327:
.Lfunc_end8:
	.size	mbedtls_gcm_auth_decrypt, .Lfunc_end8-mbedtls_gcm_auth_decrypt
	.cfi_endproc
	.cantunwind
	.fnend
                                        @ -- End function
	.section	.text.mbedtls_gcm_free,"ax",%progbits
	.hidden	mbedtls_gcm_free                @ -- Begin function mbedtls_gcm_free
	.globl	mbedtls_gcm_free
	.p2align	1
	.type	mbedtls_gcm_free,%function
	.code	16                              @ @mbedtls_gcm_free
	.thumb_func
mbedtls_gcm_free:
.Lfunc_begin9:
	.loc	2 543 0 is_stmt 1               @ ../../../ThirdParty/mbedTLS/library/gcm.c:543:0
	.fnstart
	.cfi_startproc
@ %bb.0:
	@DEBUG_VALUE: mbedtls_gcm_free:ctx <- $r0
	@DEBUG_VALUE: mbedtls_gcm_free:ctx <- $r0
	.save	{r4, lr}
	push	{r4, lr}
	.cfi_def_cfa_offset 8
	.cfi_offset lr, -4
	.cfi_offset r4, -8
.Ltmp328:
	.loc	2 544 9 prologue_end            @ ../../../ThirdParty/mbedTLS/library/gcm.c:544:9
	cbz	r0, .LBB9_2
.Ltmp329:
@ %bb.1:
	@DEBUG_VALUE: mbedtls_gcm_free:ctx <- $r0
	.loc	2 0 9 is_stmt 0                 @ ../../../ThirdParty/mbedTLS/library/gcm.c:0:9
	mov	r4, r0
.Ltmp330:
	@DEBUG_VALUE: mbedtls_gcm_free:ctx <- $r4
	.loc	2 546 5 is_stmt 1               @ ../../../ThirdParty/mbedTLS/library/gcm.c:546:5
	bl	mbedtls_cipher_free
	.loc	2 547 5                         @ ../../../ThirdParty/mbedTLS/library/gcm.c:547:5
	mov	r0, r4
	movw	r1, #392
	bl	mbedtls_platform_zeroize
.Ltmp331:
.LBB9_2:
	.loc	2 548 1                         @ ../../../ThirdParty/mbedTLS/library/gcm.c:548:1
	pop	{r4, pc}
.Ltmp332:
.Lfunc_end9:
	.size	mbedtls_gcm_free, .Lfunc_end9-mbedtls_gcm_free
	.cfi_endproc
	.cantunwind
	.fnend
                                        @ -- End function
	.section	.text.mbedtls_gcm_self_test,"ax",%progbits
	.hidden	mbedtls_gcm_self_test           @ -- Begin function mbedtls_gcm_self_test
	.globl	mbedtls_gcm_self_test
	.p2align	2
	.type	mbedtls_gcm_self_test,%function
	.code	16                              @ @mbedtls_gcm_self_test
	.thumb_func
mbedtls_gcm_self_test:
.Lfunc_begin10:
	.loc	2 822 0                         @ ../../../ThirdParty/mbedTLS/library/gcm.c:822:0
	.fnstart
	.cfi_startproc
@ %bb.0:
	@DEBUG_VALUE: mbedtls_gcm_self_test:verbose <- $r0
	.save	{r4, r5, r6, r7, lr}
	push	{r4, r5, r6, r7, lr}
	.cfi_def_cfa_offset 20
	.cfi_offset lr, -4
	.cfi_offset r7, -8
	.cfi_offset r6, -12
	.cfi_offset r5, -16
	.cfi_offset r4, -20
	.pad	#508
	sub	sp, #508
	.pad	#80
	sub	sp, #80
	.cfi_def_cfa_offset 608
	str	r0, [sp, #96]                   @ 4-byte Spill
	add	r0, sp, #128
.Ltmp333:
	@DEBUG_VALUE: mbedtls_gcm_self_test:verbose <- [DW_OP_LLVM_entry_value 1] $r0
	@DEBUG_VALUE: mbedtls_gcm_self_test:ret <- undef
	@DEBUG_VALUE: mbedtls_gcm_self_test:j <- 0
	@DEBUG_VALUE: mbedtls_gcm_self_test:cipher <- 2
	@DEBUG_VALUE: mbedtls_gcm_self_test:verbose <- [DW_OP_plus_uconst 96] [$sp+0]
	.loc	2 0 0 prologue_end              @ ../../../ThirdParty/mbedTLS/library/gcm.c:0:0
	adds	r0, #32
	str	r0, [sp, #32]                   @ 4-byte Spill
	movs	r0, #0
	ldr	r1, __arm_cp.10_0
	ldr	r2, __arm_cp.10_1
	movs	r3, #1
	str	r3, [sp, #28]                   @ 4-byte Spill
	str	r0, [sp, #36]                   @ 4-byte Spill
.Ltmp334:
.LBB10_1:                               @ =>This Loop Header: Depth=1
                                        @     Child Loop BB10_2 Depth 2
	@DEBUG_VALUE: mbedtls_gcm_self_test:verbose <- [DW_OP_plus_uconst 96] [$sp+0]
	@DEBUG_VALUE: mbedtls_gcm_self_test:cipher <- 2
	@DEBUG_VALUE: mbedtls_gcm_self_test:j <- $r0
	str	r0, [sp, #40]                   @ 4-byte Spill
.Ltmp335:
	@DEBUG_VALUE: mbedtls_gcm_self_test:j <- [DW_OP_plus_uconst 40] [$sp+0]
	.loc	2 831 32                        @ ../../../ThirdParty/mbedTLS/library/gcm.c:831:32
	lsls	r4, r0, #6
	.loc	2 831 27 is_stmt 0              @ ../../../ThirdParty/mbedTLS/library/gcm.c:831:27
	adds	r4, #128
.Ltmp336:
	@DEBUG_VALUE: mbedtls_gcm_self_test:i <- 0
	@DEBUG_VALUE: key_len <- $r4
	.loc	2 0 27                          @ ../../../ThirdParty/mbedTLS/library/gcm.c:0:27
	str	r2, [sp, #44]                   @ 4-byte Spill
	str	r2, [sp, #104]                  @ 4-byte Spill
	str	r1, [sp, #48]                   @ 4-byte Spill
	mov	r5, r1
	ldr	r0, [sp, #36]                   @ 4-byte Reload
	str	r0, [sp, #92]                   @ 4-byte Spill
	str	r0, [sp, #108]                  @ 4-byte Spill
	str	r4, [sp, #88]                   @ 4-byte Spill
.Ltmp337:
.LBB10_2:                               @   Parent Loop BB10_1 Depth=1
                                        @ =>  This Inner Loop Header: Depth=2
	@DEBUG_VALUE: mbedtls_gcm_self_test:j <- [DW_OP_plus_uconst 40] [$sp+0]
	@DEBUG_VALUE: mbedtls_gcm_self_test:verbose <- [DW_OP_plus_uconst 96] [$sp+0]
	@DEBUG_VALUE: mbedtls_gcm_self_test:cipher <- 2
	@DEBUG_VALUE: mbedtls_gcm_self_test:i <- [DW_OP_plus_uconst 108] [$sp+0]
	add	r0, sp, #192
.Ltmp338:
	.loc	2 835 13 is_stmt 1              @ ../../../ThirdParty/mbedTLS/library/gcm.c:835:13
	bl	mbedtls_gcm_init
	.loc	2 837 17                        @ ../../../ThirdParty/mbedTLS/library/gcm.c:837:17
	ldr	r0, [sp, #96]                   @ 4-byte Reload
	cbz	r0, .LBB10_4
.Ltmp339:
@ %bb.3:                                @   in Loop: Header=BB10_2 Depth=2
	@DEBUG_VALUE: mbedtls_gcm_self_test:i <- [DW_OP_plus_uconst 108] [$sp+0]
	@DEBUG_VALUE: mbedtls_gcm_self_test:j <- [DW_OP_plus_uconst 40] [$sp+0]
	@DEBUG_VALUE: mbedtls_gcm_self_test:verbose <- [DW_OP_plus_uconst 96] [$sp+0]
	@DEBUG_VALUE: mbedtls_gcm_self_test:cipher <- 2
	.loc	2 838 17                        @ ../../../ThirdParty/mbedTLS/library/gcm.c:838:17
	ldr	r0, __arm_cp.10_2
	mov	r1, r4
	ldr	r2, [sp, #108]                  @ 4-byte Reload
	ldr	r3, __arm_cp.10_3
	bl	__2printf
.Ltmp340:
.LBB10_4:                               @   in Loop: Header=BB10_2 Depth=2
	@DEBUG_VALUE: mbedtls_gcm_self_test:i <- [DW_OP_plus_uconst 108] [$sp+0]
	@DEBUG_VALUE: mbedtls_gcm_self_test:j <- [DW_OP_plus_uconst 40] [$sp+0]
	@DEBUG_VALUE: mbedtls_gcm_self_test:verbose <- [DW_OP_plus_uconst 96] [$sp+0]
	@DEBUG_VALUE: mbedtls_gcm_self_test:cipher <- 2
	.loc	2 841 57                        @ ../../../ThirdParty/mbedTLS/library/gcm.c:841:57
	ldr	r0, __arm_cp.10_4
	ldr	r1, [sp, #92]                   @ 4-byte Reload
	ldr	r0, [r0, r1]
	.loc	2 841 53 is_stmt 0              @ ../../../ThirdParty/mbedTLS/library/gcm.c:841:53
	lsls	r0, r0, #5
	ldr	r1, __arm_cp.10_5
	adds	r7, r1, r0
	add	r0, sp, #192
	movs	r1, #2
	.loc	2 841 19                        @ ../../../ThirdParty/mbedTLS/library/gcm.c:841:19
	mov	r2, r7
	mov	r3, r4
	bl	mbedtls_gcm_setkey
	mov	r6, r0
.Ltmp341:
	@DEBUG_VALUE: mbedtls_gcm_self_test:ret <- $r6
	.loc	2 848 65 is_stmt 1              @ ../../../ThirdParty/mbedTLS/library/gcm.c:848:65
	cmp	r4, #192
	bne	.LBB10_6
.Ltmp342:
@ %bb.5:                                @   in Loop: Header=BB10_2 Depth=2
	@DEBUG_VALUE: mbedtls_gcm_self_test:ret <- $r6
	@DEBUG_VALUE: mbedtls_gcm_self_test:i <- [DW_OP_plus_uconst 108] [$sp+0]
	@DEBUG_VALUE: mbedtls_gcm_self_test:j <- [DW_OP_plus_uconst 40] [$sp+0]
	@DEBUG_VALUE: mbedtls_gcm_self_test:verbose <- [DW_OP_plus_uconst 96] [$sp+0]
	@DEBUG_VALUE: mbedtls_gcm_self_test:cipher <- 2
	mov	r0, r6
	adds	r0, #114
	bne	.LBB10_6
	b	.LBB10_55
.Ltmp343:
.LBB10_6:                               @   in Loop: Header=BB10_2 Depth=2
	@DEBUG_VALUE: mbedtls_gcm_self_test:ret <- $r6
	@DEBUG_VALUE: mbedtls_gcm_self_test:i <- [DW_OP_plus_uconst 108] [$sp+0]
	@DEBUG_VALUE: mbedtls_gcm_self_test:j <- [DW_OP_plus_uconst 40] [$sp+0]
	@DEBUG_VALUE: mbedtls_gcm_self_test:verbose <- [DW_OP_plus_uconst 96] [$sp+0]
	@DEBUG_VALUE: mbedtls_gcm_self_test:cipher <- 2
	.loc	2 0 65 is_stmt 0                @ ../../../ThirdParty/mbedTLS/library/gcm.c:0:65
	movs	r0, #8
	.loc	2 853 22 is_stmt 1              @ ../../../ThirdParty/mbedTLS/library/gcm.c:853:22
	cmp	r6, #0
	beq	.LBB10_7
	b	.LBB10_58
.Ltmp344:
.LBB10_7:                               @   in Loop: Header=BB10_2 Depth=2
	@DEBUG_VALUE: mbedtls_gcm_self_test:ret <- $r6
	@DEBUG_VALUE: mbedtls_gcm_self_test:i <- [DW_OP_plus_uconst 108] [$sp+0]
	@DEBUG_VALUE: mbedtls_gcm_self_test:j <- [DW_OP_plus_uconst 40] [$sp+0]
	@DEBUG_VALUE: mbedtls_gcm_self_test:verbose <- [DW_OP_plus_uconst 96] [$sp+0]
	@DEBUG_VALUE: mbedtls_gcm_self_test:cipher <- 2
	.loc	2 0 22 is_stmt 0                @ ../../../ThirdParty/mbedTLS/library/gcm.c:0:22
	str	r0, [sp, #56]                   @ 4-byte Spill
	str	r5, [sp, #100]                  @ 4-byte Spill
	add	r0, sp, #112
	.loc	2 858 19 is_stmt 1              @ ../../../ThirdParty/mbedTLS/library/gcm.c:858:19
	str	r0, [sp, #24]
	movs	r0, #16
	str	r0, [sp, #20]
	add	r0, sp, #128
	str	r0, [sp, #16]
	.loc	2 861 72                        @ ../../../ThirdParty/mbedTLS/library/gcm.c:861:72
	ldr	r0, __arm_cp.10_6
	ldr	r2, [sp, #92]                   @ 4-byte Reload
	ldr	r0, [r0, r2]
	str	r0, [sp, #76]                   @ 4-byte Spill
	.loc	2 858 19                        @ ../../../ThirdParty/mbedTLS/library/gcm.c:858:19
	str	r0, [sp, #8]
	.loc	2 860 63                        @ ../../../ThirdParty/mbedTLS/library/gcm.c:860:63
	ldr	r0, __arm_cp.10_7
	ldr	r0, [r0, r2]
	str	r0, [sp, #80]                   @ 4-byte Spill
	.loc	2 858 19                        @ ../../../ThirdParty/mbedTLS/library/gcm.c:858:19
	str	r0, [sp]
	.loc	2 862 49                        @ ../../../ThirdParty/mbedTLS/library/gcm.c:862:49
	ldr	r0, __arm_cp.10_8
	ldr	r0, [r0, r2]
	.loc	2 862 46 is_stmt 0              @ ../../../ThirdParty/mbedTLS/library/gcm.c:862:46
	lsls	r0, r0, #6
	ldr	r1, __arm_cp.10_9
	adds	r0, r1, r0
	str	r0, [sp, #64]                   @ 4-byte Spill
	.loc	2 858 19 is_stmt 1              @ ../../../ThirdParty/mbedTLS/library/gcm.c:858:19
	str	r0, [sp, #12]
	.loc	2 861 57                        @ ../../../ThirdParty/mbedTLS/library/gcm.c:861:57
	ldr	r0, __arm_cp.10_10
	ldr	r0, [r0, r2]
	.loc	2 861 46 is_stmt 0              @ ../../../ThirdParty/mbedTLS/library/gcm.c:861:46
	lsls	r0, r0, #6
	ldr	r1, __arm_cp.10_11
	adds	r0, r1, r0
	str	r0, [sp, #68]                   @ 4-byte Spill
	.loc	2 858 19 is_stmt 1              @ ../../../ThirdParty/mbedTLS/library/gcm.c:858:19
	str	r0, [sp, #4]
	.loc	2 859 46                        @ ../../../ThirdParty/mbedTLS/library/gcm.c:859:46
	ldr	r0, __arm_cp.10_12
	ldr	r4, [r0, r2]
	.loc	2 860 49                        @ ../../../ThirdParty/mbedTLS/library/gcm.c:860:49
	ldr	r0, __arm_cp.10_13
	ldr	r0, [r0, r2]
	.loc	2 860 46 is_stmt 0              @ ../../../ThirdParty/mbedTLS/library/gcm.c:860:46
	lsls	r0, r0, #6
	ldr	r1, __arm_cp.10_14
	adds	r3, r1, r0
	add	r0, sp, #192
	movs	r5, #1
	.loc	2 858 19 is_stmt 1              @ ../../../ThirdParty/mbedTLS/library/gcm.c:858:19
	mov	r1, r5
	mov	r2, r4
	str	r3, [sp, #72]                   @ 4-byte Spill
	bl	mbedtls_gcm_crypt_and_tag
.Ltmp345:
	@DEBUG_VALUE: mbedtls_gcm_self_test:ret <- $r0
	.loc	2 863 17                        @ ../../../ThirdParty/mbedTLS/library/gcm.c:863:17
	cmp	r0, #0
	beq	.LBB10_8
	b	.LBB10_51
.Ltmp346:
.LBB10_8:                               @   in Loop: Header=BB10_2 Depth=2
	@DEBUG_VALUE: mbedtls_gcm_self_test:ret <- $r0
	@DEBUG_VALUE: mbedtls_gcm_self_test:i <- [DW_OP_plus_uconst 108] [$sp+0]
	@DEBUG_VALUE: mbedtls_gcm_self_test:j <- [DW_OP_plus_uconst 40] [$sp+0]
	@DEBUG_VALUE: mbedtls_gcm_self_test:verbose <- [DW_OP_plus_uconst 96] [$sp+0]
	@DEBUG_VALUE: mbedtls_gcm_self_test:cipher <- 2
	.loc	2 0 17 is_stmt 0                @ ../../../ThirdParty/mbedTLS/library/gcm.c:0:17
	add	r0, sp, #128
.Ltmp347:
	.loc	2 866 18 is_stmt 1              @ ../../../ThirdParty/mbedTLS/library/gcm.c:866:18
	ldr	r1, [sp, #100]                  @ 4-byte Reload
	mov	r2, r4
	bl	memcmp
	.loc	2 866 63 is_stmt 0              @ ../../../ThirdParty/mbedTLS/library/gcm.c:866:63
	cmp	r0, #0
	beq	.LBB10_9
	b	.LBB10_52
.Ltmp348:
.LBB10_9:                               @   in Loop: Header=BB10_2 Depth=2
	@DEBUG_VALUE: mbedtls_gcm_self_test:i <- [DW_OP_plus_uconst 108] [$sp+0]
	@DEBUG_VALUE: mbedtls_gcm_self_test:j <- [DW_OP_plus_uconst 40] [$sp+0]
	@DEBUG_VALUE: mbedtls_gcm_self_test:verbose <- [DW_OP_plus_uconst 96] [$sp+0]
	@DEBUG_VALUE: mbedtls_gcm_self_test:cipher <- 2
	.loc	2 0 63                          @ ../../../ThirdParty/mbedTLS/library/gcm.c:0:63
	str	r4, [sp, #84]                   @ 4-byte Spill
	add	r0, sp, #112
	movs	r4, #16
	.loc	2 867 21 is_stmt 1              @ ../../../ThirdParty/mbedTLS/library/gcm.c:867:21
	ldr	r1, [sp, #104]                  @ 4-byte Reload
	mov	r2, r4
	bl	memcmp
.Ltmp349:
	.loc	2 866 18                        @ ../../../ThirdParty/mbedTLS/library/gcm.c:866:18
	cmp	r0, #0
	beq	.LBB10_10
	b	.LBB10_52
.Ltmp350:
.LBB10_10:                              @   in Loop: Header=BB10_2 Depth=2
	@DEBUG_VALUE: mbedtls_gcm_self_test:i <- [DW_OP_plus_uconst 108] [$sp+0]
	@DEBUG_VALUE: mbedtls_gcm_self_test:j <- [DW_OP_plus_uconst 40] [$sp+0]
	@DEBUG_VALUE: mbedtls_gcm_self_test:verbose <- [DW_OP_plus_uconst 96] [$sp+0]
	@DEBUG_VALUE: mbedtls_gcm_self_test:cipher <- 2
	.loc	2 0 18 is_stmt 0                @ ../../../ThirdParty/mbedTLS/library/gcm.c:0:18
	add	r0, sp, #192
	.loc	2 873 13 is_stmt 1              @ ../../../ThirdParty/mbedTLS/library/gcm.c:873:13
	bl	mbedtls_gcm_free
	.loc	2 875 17                        @ ../../../ThirdParty/mbedTLS/library/gcm.c:875:17
	ldr	r0, [sp, #96]                   @ 4-byte Reload
	cbz	r0, .LBB10_12
.Ltmp351:
@ %bb.11:                               @   in Loop: Header=BB10_2 Depth=2
	@DEBUG_VALUE: mbedtls_gcm_self_test:i <- [DW_OP_plus_uconst 108] [$sp+0]
	@DEBUG_VALUE: mbedtls_gcm_self_test:j <- [DW_OP_plus_uconst 40] [$sp+0]
	@DEBUG_VALUE: mbedtls_gcm_self_test:verbose <- [DW_OP_plus_uconst 96] [$sp+0]
	@DEBUG_VALUE: mbedtls_gcm_self_test:cipher <- 2
	.loc	2 876 17                        @ ../../../ThirdParty/mbedTLS/library/gcm.c:876:17
	adr	r0, .LCPI10_15
	bl	puts
	add	r0, sp, #192
.Ltmp352:
	.loc	2 878 13                        @ ../../../ThirdParty/mbedTLS/library/gcm.c:878:13
	bl	mbedtls_gcm_init
.Ltmp353:
	.loc	2 881 17                        @ ../../../ThirdParty/mbedTLS/library/gcm.c:881:17
	ldr	r0, __arm_cp.10_2
	ldr	r6, [sp, #88]                   @ 4-byte Reload
	mov	r1, r6
	ldr	r2, [sp, #108]                  @ 4-byte Reload
	ldr	r3, __arm_cp.10_16
	bl	__2printf
	b	.LBB10_13
.Ltmp354:
.LBB10_12:                              @   in Loop: Header=BB10_2 Depth=2
	@DEBUG_VALUE: mbedtls_gcm_self_test:i <- [DW_OP_plus_uconst 108] [$sp+0]
	@DEBUG_VALUE: mbedtls_gcm_self_test:j <- [DW_OP_plus_uconst 40] [$sp+0]
	@DEBUG_VALUE: mbedtls_gcm_self_test:verbose <- [DW_OP_plus_uconst 96] [$sp+0]
	@DEBUG_VALUE: mbedtls_gcm_self_test:cipher <- 2
	.loc	2 0 17 is_stmt 0                @ ../../../ThirdParty/mbedTLS/library/gcm.c:0:17
	add	r0, sp, #192
	.loc	2 878 13 is_stmt 1              @ ../../../ThirdParty/mbedTLS/library/gcm.c:878:13
	bl	mbedtls_gcm_init
	ldr	r6, [sp, #88]                   @ 4-byte Reload
.Ltmp355:
.LBB10_13:                              @   in Loop: Header=BB10_2 Depth=2
	@DEBUG_VALUE: mbedtls_gcm_self_test:i <- [DW_OP_plus_uconst 108] [$sp+0]
	@DEBUG_VALUE: mbedtls_gcm_self_test:j <- [DW_OP_plus_uconst 40] [$sp+0]
	@DEBUG_VALUE: mbedtls_gcm_self_test:verbose <- [DW_OP_plus_uconst 96] [$sp+0]
	@DEBUG_VALUE: mbedtls_gcm_self_test:cipher <- 2
	.loc	2 0 13 is_stmt 0                @ ../../../ThirdParty/mbedTLS/library/gcm.c:0:13
	add	r0, sp, #192
	movs	r1, #2
	.loc	2 884 19 is_stmt 1              @ ../../../ThirdParty/mbedTLS/library/gcm.c:884:19
	mov	r2, r7
	mov	r3, r6
	bl	mbedtls_gcm_setkey
.Ltmp356:
	@DEBUG_VALUE: mbedtls_gcm_self_test:ret <- $r0
	.loc	2 886 17                        @ ../../../ThirdParty/mbedTLS/library/gcm.c:886:17
	cmp	r0, #0
	beq	.LBB10_14
	b	.LBB10_51
.Ltmp357:
.LBB10_14:                              @   in Loop: Header=BB10_2 Depth=2
	@DEBUG_VALUE: mbedtls_gcm_self_test:ret <- $r0
	@DEBUG_VALUE: mbedtls_gcm_self_test:i <- [DW_OP_plus_uconst 108] [$sp+0]
	@DEBUG_VALUE: mbedtls_gcm_self_test:j <- [DW_OP_plus_uconst 40] [$sp+0]
	@DEBUG_VALUE: mbedtls_gcm_self_test:verbose <- [DW_OP_plus_uconst 96] [$sp+0]
	@DEBUG_VALUE: mbedtls_gcm_self_test:cipher <- 2
	.loc	2 0 17 is_stmt 0                @ ../../../ThirdParty/mbedTLS/library/gcm.c:0:17
	str	r7, [sp, #60]                   @ 4-byte Spill
	add	r0, sp, #112
.Ltmp358:
	.loc	2 889 19 is_stmt 1              @ ../../../ThirdParty/mbedTLS/library/gcm.c:889:19
	str	r0, [sp, #24]
	str	r4, [sp, #20]
	add	r0, sp, #128
	str	r0, [sp, #16]
	ldr	r0, [sp, #100]                  @ 4-byte Reload
	str	r0, [sp, #12]
	ldr	r0, [sp, #76]                   @ 4-byte Reload
	str	r0, [sp, #8]
	ldr	r0, [sp, #68]                   @ 4-byte Reload
	str	r0, [sp, #4]
	ldr	r0, [sp, #80]                   @ 4-byte Reload
	str	r0, [sp]
	add	r0, sp, #192
	movs	r4, #0
	mov	r1, r4
	ldr	r7, [sp, #84]                   @ 4-byte Reload
	mov	r2, r7
	ldr	r3, [sp, #72]                   @ 4-byte Reload
	bl	mbedtls_gcm_crypt_and_tag
.Ltmp359:
	@DEBUG_VALUE: mbedtls_gcm_self_test:ret <- $r0
	.loc	2 895 17                        @ ../../../ThirdParty/mbedTLS/library/gcm.c:895:17
	cmp	r0, #0
	beq	.LBB10_15
	b	.LBB10_51
.Ltmp360:
.LBB10_15:                              @   in Loop: Header=BB10_2 Depth=2
	@DEBUG_VALUE: mbedtls_gcm_self_test:ret <- $r0
	@DEBUG_VALUE: mbedtls_gcm_self_test:i <- [DW_OP_plus_uconst 108] [$sp+0]
	@DEBUG_VALUE: mbedtls_gcm_self_test:j <- [DW_OP_plus_uconst 40] [$sp+0]
	@DEBUG_VALUE: mbedtls_gcm_self_test:verbose <- [DW_OP_plus_uconst 96] [$sp+0]
	@DEBUG_VALUE: mbedtls_gcm_self_test:cipher <- 2
	.loc	2 0 17 is_stmt 0                @ ../../../ThirdParty/mbedTLS/library/gcm.c:0:17
	add	r0, sp, #128
.Ltmp361:
	.loc	2 898 17 is_stmt 1              @ ../../../ThirdParty/mbedTLS/library/gcm.c:898:17
	ldr	r1, [sp, #64]                   @ 4-byte Reload
	mov	r2, r7
	bl	memcmp
	.loc	2 898 64 is_stmt 0              @ ../../../ThirdParty/mbedTLS/library/gcm.c:898:64
	cmp	r0, #0
	beq	.LBB10_16
	b	.LBB10_52
.Ltmp362:
.LBB10_16:                              @   in Loop: Header=BB10_2 Depth=2
	@DEBUG_VALUE: mbedtls_gcm_self_test:i <- [DW_OP_plus_uconst 108] [$sp+0]
	@DEBUG_VALUE: mbedtls_gcm_self_test:j <- [DW_OP_plus_uconst 40] [$sp+0]
	@DEBUG_VALUE: mbedtls_gcm_self_test:verbose <- [DW_OP_plus_uconst 96] [$sp+0]
	@DEBUG_VALUE: mbedtls_gcm_self_test:cipher <- 2
	.loc	2 0 64                          @ ../../../ThirdParty/mbedTLS/library/gcm.c:0:64
	add	r0, sp, #112
	movs	r2, #16
	.loc	2 899 21 is_stmt 1              @ ../../../ThirdParty/mbedTLS/library/gcm.c:899:21
	ldr	r1, [sp, #104]                  @ 4-byte Reload
	bl	memcmp
.Ltmp363:
	.loc	2 898 17                        @ ../../../ThirdParty/mbedTLS/library/gcm.c:898:17
	cmp	r0, #0
	beq	.LBB10_17
	b	.LBB10_52
.Ltmp364:
.LBB10_17:                              @   in Loop: Header=BB10_2 Depth=2
	@DEBUG_VALUE: mbedtls_gcm_self_test:i <- [DW_OP_plus_uconst 108] [$sp+0]
	@DEBUG_VALUE: mbedtls_gcm_self_test:j <- [DW_OP_plus_uconst 40] [$sp+0]
	@DEBUG_VALUE: mbedtls_gcm_self_test:verbose <- [DW_OP_plus_uconst 96] [$sp+0]
	@DEBUG_VALUE: mbedtls_gcm_self_test:cipher <- 2
	.loc	2 0 17 is_stmt 0                @ ../../../ThirdParty/mbedTLS/library/gcm.c:0:17
	add	r0, sp, #192
	.loc	2 905 13 is_stmt 1              @ ../../../ThirdParty/mbedTLS/library/gcm.c:905:13
	bl	mbedtls_gcm_free
	.loc	2 907 17                        @ ../../../ThirdParty/mbedTLS/library/gcm.c:907:17
	ldr	r0, [sp, #96]                   @ 4-byte Reload
	cbz	r0, .LBB10_19
.Ltmp365:
@ %bb.18:                               @   in Loop: Header=BB10_2 Depth=2
	@DEBUG_VALUE: mbedtls_gcm_self_test:i <- [DW_OP_plus_uconst 108] [$sp+0]
	@DEBUG_VALUE: mbedtls_gcm_self_test:j <- [DW_OP_plus_uconst 40] [$sp+0]
	@DEBUG_VALUE: mbedtls_gcm_self_test:verbose <- [DW_OP_plus_uconst 96] [$sp+0]
	@DEBUG_VALUE: mbedtls_gcm_self_test:cipher <- 2
	.loc	2 908 17                        @ ../../../ThirdParty/mbedTLS/library/gcm.c:908:17
	adr	r0, .LCPI10_15
	bl	puts
	add	r0, sp, #192
.Ltmp366:
	.loc	2 910 13                        @ ../../../ThirdParty/mbedTLS/library/gcm.c:910:13
	bl	mbedtls_gcm_init
.Ltmp367:
	.loc	2 913 17                        @ ../../../ThirdParty/mbedTLS/library/gcm.c:913:17
	ldr	r0, __arm_cp.10_17
	ldr	r5, [sp, #88]                   @ 4-byte Reload
	mov	r1, r5
	ldr	r2, [sp, #108]                  @ 4-byte Reload
	ldr	r3, __arm_cp.10_3
	bl	__2printf
	b	.LBB10_20
.Ltmp368:
.LBB10_19:                              @   in Loop: Header=BB10_2 Depth=2
	@DEBUG_VALUE: mbedtls_gcm_self_test:i <- [DW_OP_plus_uconst 108] [$sp+0]
	@DEBUG_VALUE: mbedtls_gcm_self_test:j <- [DW_OP_plus_uconst 40] [$sp+0]
	@DEBUG_VALUE: mbedtls_gcm_self_test:verbose <- [DW_OP_plus_uconst 96] [$sp+0]
	@DEBUG_VALUE: mbedtls_gcm_self_test:cipher <- 2
	.loc	2 0 17 is_stmt 0                @ ../../../ThirdParty/mbedTLS/library/gcm.c:0:17
	add	r0, sp, #192
	.loc	2 910 13 is_stmt 1              @ ../../../ThirdParty/mbedTLS/library/gcm.c:910:13
	bl	mbedtls_gcm_init
	ldr	r5, [sp, #88]                   @ 4-byte Reload
.Ltmp369:
.LBB10_20:                              @   in Loop: Header=BB10_2 Depth=2
	@DEBUG_VALUE: mbedtls_gcm_self_test:i <- [DW_OP_plus_uconst 108] [$sp+0]
	@DEBUG_VALUE: mbedtls_gcm_self_test:j <- [DW_OP_plus_uconst 40] [$sp+0]
	@DEBUG_VALUE: mbedtls_gcm_self_test:verbose <- [DW_OP_plus_uconst 96] [$sp+0]
	@DEBUG_VALUE: mbedtls_gcm_self_test:cipher <- 2
	.loc	2 0 13 is_stmt 0                @ ../../../ThirdParty/mbedTLS/library/gcm.c:0:13
	ldr	r7, [sp, #60]                   @ 4-byte Reload
	add	r0, sp, #192
	movs	r1, #2
	.loc	2 916 19 is_stmt 1              @ ../../../ThirdParty/mbedTLS/library/gcm.c:916:19
	mov	r2, r7
	mov	r3, r5
	bl	mbedtls_gcm_setkey
.Ltmp370:
	@DEBUG_VALUE: mbedtls_gcm_self_test:ret <- $r0
	.loc	2 918 17                        @ ../../../ThirdParty/mbedTLS/library/gcm.c:918:17
	cmp	r0, #0
	beq	.LBB10_21
	b	.LBB10_51
.Ltmp371:
.LBB10_21:                              @   in Loop: Header=BB10_2 Depth=2
	@DEBUG_VALUE: mbedtls_gcm_self_test:ret <- $r0
	@DEBUG_VALUE: mbedtls_gcm_self_test:i <- [DW_OP_plus_uconst 108] [$sp+0]
	@DEBUG_VALUE: mbedtls_gcm_self_test:j <- [DW_OP_plus_uconst 40] [$sp+0]
	@DEBUG_VALUE: mbedtls_gcm_self_test:verbose <- [DW_OP_plus_uconst 96] [$sp+0]
	@DEBUG_VALUE: mbedtls_gcm_self_test:cipher <- 2
	.loc	2 921 19                        @ ../../../ThirdParty/mbedTLS/library/gcm.c:921:19
	ldr	r0, [sp, #68]                   @ 4-byte Reload
.Ltmp372:
	str	r0, [sp]
	ldr	r0, [sp, #76]                   @ 4-byte Reload
	str	r0, [sp, #4]
	add	r0, sp, #192
	movs	r5, #1
	mov	r1, r5
	ldr	r2, [sp, #72]                   @ 4-byte Reload
	ldr	r3, [sp, #80]                   @ 4-byte Reload
	bl	mbedtls_gcm_starts
.Ltmp373:
	@DEBUG_VALUE: mbedtls_gcm_self_test:ret <- $r0
	.loc	2 924 17                        @ ../../../ThirdParty/mbedTLS/library/gcm.c:924:17
	cmp	r0, #0
	beq	.LBB10_22
	b	.LBB10_51
.Ltmp374:
.LBB10_22:                              @   in Loop: Header=BB10_2 Depth=2
	@DEBUG_VALUE: mbedtls_gcm_self_test:ret <- $r0
	@DEBUG_VALUE: mbedtls_gcm_self_test:i <- [DW_OP_plus_uconst 108] [$sp+0]
	@DEBUG_VALUE: mbedtls_gcm_self_test:j <- [DW_OP_plus_uconst 40] [$sp+0]
	@DEBUG_VALUE: mbedtls_gcm_self_test:verbose <- [DW_OP_plus_uconst 96] [$sp+0]
	@DEBUG_VALUE: mbedtls_gcm_self_test:cipher <- 2
	.loc	2 0 17 is_stmt 0                @ ../../../ThirdParty/mbedTLS/library/gcm.c:0:17
	str	r5, [sp, #52]                   @ 4-byte Spill
	.loc	2 927 17 is_stmt 1              @ ../../../ThirdParty/mbedTLS/library/gcm.c:927:17
	ldr	r0, [sp, #108]                  @ 4-byte Reload
.Ltmp375:
	cmp	r0, #2
	bhs	.LBB10_24
.Ltmp376:
@ %bb.23:                               @   in Loop: Header=BB10_2 Depth=2
	@DEBUG_VALUE: mbedtls_gcm_self_test:i <- [DW_OP_plus_uconst 108] [$sp+0]
	@DEBUG_VALUE: mbedtls_gcm_self_test:j <- [DW_OP_plus_uconst 40] [$sp+0]
	@DEBUG_VALUE: mbedtls_gcm_self_test:verbose <- [DW_OP_plus_uconst 96] [$sp+0]
	@DEBUG_VALUE: mbedtls_gcm_self_test:cipher <- 2
	.loc	2 0 17 is_stmt 0                @ ../../../ThirdParty/mbedTLS/library/gcm.c:0:17
	add	r0, sp, #192
	add	r3, sp, #128
	ldr	r4, [sp, #84]                   @ 4-byte Reload
.Ltmp377:
	.loc	2 941 23 is_stmt 1              @ ../../../ThirdParty/mbedTLS/library/gcm.c:941:23
	mov	r1, r4
	ldr	r2, [sp, #64]                   @ 4-byte Reload
	bl	mbedtls_gcm_update
.Ltmp378:
	@DEBUG_VALUE: mbedtls_gcm_self_test:ret <- $r0
	.loc	2 942 21                        @ ../../../ThirdParty/mbedTLS/library/gcm.c:942:21
	cbz	r0, .LBB10_29
	b	.LBB10_51
.Ltmp379:
.LBB10_24:                              @   in Loop: Header=BB10_2 Depth=2
	@DEBUG_VALUE: mbedtls_gcm_self_test:i <- [DW_OP_plus_uconst 108] [$sp+0]
	@DEBUG_VALUE: mbedtls_gcm_self_test:j <- [DW_OP_plus_uconst 40] [$sp+0]
	@DEBUG_VALUE: mbedtls_gcm_self_test:verbose <- [DW_OP_plus_uconst 96] [$sp+0]
	@DEBUG_VALUE: mbedtls_gcm_self_test:cipher <- 2
	@DEBUG_VALUE: rest_len <- [DW_OP_plus_uconst 84, DW_OP_deref_size 4, DW_OP_constu 32, DW_OP_minus, DW_OP_stack_value] $sp
	.loc	2 0 21 is_stmt 0                @ ../../../ThirdParty/mbedTLS/library/gcm.c:0:21
	add	r0, sp, #192
	movs	r1, #32
	add	r3, sp, #128
	ldr	r7, [sp, #64]                   @ 4-byte Reload
.Ltmp380:
	.loc	2 930 23 is_stmt 1              @ ../../../ThirdParty/mbedTLS/library/gcm.c:930:23
	mov	r2, r7
	bl	mbedtls_gcm_update
.Ltmp381:
	@DEBUG_VALUE: mbedtls_gcm_self_test:ret <- $r0
	.loc	2 0 23 is_stmt 0                @ ../../../ThirdParty/mbedTLS/library/gcm.c:0:23
	movs	r5, #8
	.loc	2 931 21 is_stmt 1              @ ../../../ThirdParty/mbedTLS/library/gcm.c:931:21
	cbz	r0, .LBB10_26
.Ltmp382:
@ %bb.25:                               @   in Loop: Header=BB10_2 Depth=2
	@DEBUG_VALUE: mbedtls_gcm_self_test:ret <- $r0
	@DEBUG_VALUE: rest_len <- [DW_OP_plus_uconst 84, DW_OP_deref_size 4, DW_OP_constu 32, DW_OP_minus, DW_OP_stack_value] $sp
	@DEBUG_VALUE: mbedtls_gcm_self_test:i <- [DW_OP_plus_uconst 108] [$sp+0]
	@DEBUG_VALUE: mbedtls_gcm_self_test:j <- [DW_OP_plus_uconst 40] [$sp+0]
	@DEBUG_VALUE: mbedtls_gcm_self_test:verbose <- [DW_OP_plus_uconst 96] [$sp+0]
	@DEBUG_VALUE: mbedtls_gcm_self_test:cipher <- 2
	.loc	2 0 21 is_stmt 0                @ ../../../ThirdParty/mbedTLS/library/gcm.c:0:21
	mov	r6, r0
.Ltmp383:
	@DEBUG_VALUE: mbedtls_gcm_self_test:ret <- $r6
	ldr	r7, [sp, #60]                   @ 4-byte Reload
	b	.LBB10_28
.Ltmp384:
.LBB10_26:                              @   in Loop: Header=BB10_2 Depth=2
	@DEBUG_VALUE: mbedtls_gcm_self_test:ret <- $r0
	@DEBUG_VALUE: rest_len <- [DW_OP_plus_uconst 84, DW_OP_deref_size 4, DW_OP_constu 32, DW_OP_minus, DW_OP_stack_value] $sp
	@DEBUG_VALUE: mbedtls_gcm_self_test:i <- [DW_OP_plus_uconst 108] [$sp+0]
	@DEBUG_VALUE: mbedtls_gcm_self_test:j <- [DW_OP_plus_uconst 40] [$sp+0]
	@DEBUG_VALUE: mbedtls_gcm_self_test:verbose <- [DW_OP_plus_uconst 96] [$sp+0]
	@DEBUG_VALUE: mbedtls_gcm_self_test:cipher <- 2
	.loc	2 934 75 is_stmt 1              @ ../../../ThirdParty/mbedTLS/library/gcm.c:934:75
	adds	r7, #32
	.loc	2 929 45                        @ ../../../ThirdParty/mbedTLS/library/gcm.c:929:45
	ldr	r1, [sp, #84]                   @ 4-byte Reload
	subs	r1, #32
.Ltmp385:
	@DEBUG_VALUE: rest_len <- $r1
	.loc	2 0 45 is_stmt 0                @ ../../../ThirdParty/mbedTLS/library/gcm.c:0:45
	add	r0, sp, #192
.Ltmp386:
	.loc	2 934 23 is_stmt 1              @ ../../../ThirdParty/mbedTLS/library/gcm.c:934:23
	mov	r2, r7
	ldr	r3, [sp, #32]                   @ 4-byte Reload
	bl	mbedtls_gcm_update
.Ltmp387:
	mov	r6, r0
.Ltmp388:
	@DEBUG_VALUE: mbedtls_gcm_self_test:ret <- $r6
	.loc	2 0 23 is_stmt 0                @ ../../../ThirdParty/mbedTLS/library/gcm.c:0:23
	ldr	r7, [sp, #60]                   @ 4-byte Reload
	.loc	2 936 21 is_stmt 1              @ ../../../ThirdParty/mbedTLS/library/gcm.c:936:21
	cbnz	r0, .LBB10_28
.Ltmp389:
@ %bb.27:                               @   in Loop: Header=BB10_2 Depth=2
	@DEBUG_VALUE: mbedtls_gcm_self_test:ret <- $r6
	@DEBUG_VALUE: mbedtls_gcm_self_test:i <- [DW_OP_plus_uconst 108] [$sp+0]
	@DEBUG_VALUE: mbedtls_gcm_self_test:j <- [DW_OP_plus_uconst 40] [$sp+0]
	@DEBUG_VALUE: mbedtls_gcm_self_test:verbose <- [DW_OP_plus_uconst 96] [$sp+0]
	@DEBUG_VALUE: mbedtls_gcm_self_test:cipher <- 2
	.loc	2 0 21 is_stmt 0                @ ../../../ThirdParty/mbedTLS/library/gcm.c:0:21
	movs	r6, #0
.Ltmp390:
	ldr	r4, [sp, #28]                   @ 4-byte Reload
	mov	r5, r6
.Ltmp391:
.LBB10_28:                              @   in Loop: Header=BB10_2 Depth=2
	@DEBUG_VALUE: mbedtls_gcm_self_test:i <- [DW_OP_plus_uconst 108] [$sp+0]
	@DEBUG_VALUE: mbedtls_gcm_self_test:j <- [DW_OP_plus_uconst 40] [$sp+0]
	@DEBUG_VALUE: mbedtls_gcm_self_test:verbose <- [DW_OP_plus_uconst 96] [$sp+0]
	@DEBUG_VALUE: mbedtls_gcm_self_test:cipher <- 2
	@DEBUG_VALUE: mbedtls_gcm_self_test:ret <- $r6
	cmp	r4, #0
	ldr	r4, [sp, #84]                   @ 4-byte Reload
	bne	.LBB10_29
	b	.LBB10_56
.Ltmp392:
.LBB10_29:                              @   in Loop: Header=BB10_2 Depth=2
	@DEBUG_VALUE: mbedtls_gcm_self_test:i <- [DW_OP_plus_uconst 108] [$sp+0]
	@DEBUG_VALUE: mbedtls_gcm_self_test:j <- [DW_OP_plus_uconst 40] [$sp+0]
	@DEBUG_VALUE: mbedtls_gcm_self_test:verbose <- [DW_OP_plus_uconst 96] [$sp+0]
	@DEBUG_VALUE: mbedtls_gcm_self_test:cipher <- 2
	add	r0, sp, #192
	add	r1, sp, #112
	movs	r2, #16
	.loc	2 946 19 is_stmt 1              @ ../../../ThirdParty/mbedTLS/library/gcm.c:946:19
	bl	mbedtls_gcm_finish
.Ltmp393:
	@DEBUG_VALUE: mbedtls_gcm_self_test:ret <- $r0
	.loc	2 947 17                        @ ../../../ThirdParty/mbedTLS/library/gcm.c:947:17
	cmp	r0, #0
	beq	.LBB10_30
	b	.LBB10_51
.Ltmp394:
.LBB10_30:                              @   in Loop: Header=BB10_2 Depth=2
	@DEBUG_VALUE: mbedtls_gcm_self_test:ret <- $r0
	@DEBUG_VALUE: mbedtls_gcm_self_test:i <- [DW_OP_plus_uconst 108] [$sp+0]
	@DEBUG_VALUE: mbedtls_gcm_self_test:j <- [DW_OP_plus_uconst 40] [$sp+0]
	@DEBUG_VALUE: mbedtls_gcm_self_test:verbose <- [DW_OP_plus_uconst 96] [$sp+0]
	@DEBUG_VALUE: mbedtls_gcm_self_test:cipher <- 2
	.loc	2 0 17 is_stmt 0                @ ../../../ThirdParty/mbedTLS/library/gcm.c:0:17
	add	r0, sp, #128
.Ltmp395:
	ldr	r5, [sp, #100]                  @ 4-byte Reload
.Ltmp396:
	.loc	2 950 17 is_stmt 1              @ ../../../ThirdParty/mbedTLS/library/gcm.c:950:17
	mov	r1, r5
	mov	r2, r4
	bl	memcmp
	.loc	2 950 62 is_stmt 0              @ ../../../ThirdParty/mbedTLS/library/gcm.c:950:62
	cmp	r0, #0
	beq	.LBB10_31
	b	.LBB10_53
.Ltmp397:
.LBB10_31:                              @   in Loop: Header=BB10_2 Depth=2
	@DEBUG_VALUE: mbedtls_gcm_self_test:i <- [DW_OP_plus_uconst 108] [$sp+0]
	@DEBUG_VALUE: mbedtls_gcm_self_test:j <- [DW_OP_plus_uconst 40] [$sp+0]
	@DEBUG_VALUE: mbedtls_gcm_self_test:verbose <- [DW_OP_plus_uconst 96] [$sp+0]
	@DEBUG_VALUE: mbedtls_gcm_self_test:cipher <- 2
	.loc	2 0 62                          @ ../../../ThirdParty/mbedTLS/library/gcm.c:0:62
	add	r0, sp, #112
	movs	r2, #16
	.loc	2 951 21 is_stmt 1              @ ../../../ThirdParty/mbedTLS/library/gcm.c:951:21
	ldr	r1, [sp, #104]                  @ 4-byte Reload
	bl	memcmp
.Ltmp398:
	.loc	2 950 17                        @ ../../../ThirdParty/mbedTLS/library/gcm.c:950:17
	cmp	r0, #0
	beq	.LBB10_32
	b	.LBB10_53
.Ltmp399:
.LBB10_32:                              @   in Loop: Header=BB10_2 Depth=2
	@DEBUG_VALUE: mbedtls_gcm_self_test:i <- [DW_OP_plus_uconst 108] [$sp+0]
	@DEBUG_VALUE: mbedtls_gcm_self_test:j <- [DW_OP_plus_uconst 40] [$sp+0]
	@DEBUG_VALUE: mbedtls_gcm_self_test:verbose <- [DW_OP_plus_uconst 96] [$sp+0]
	@DEBUG_VALUE: mbedtls_gcm_self_test:cipher <- 2
	.loc	2 0 17 is_stmt 0                @ ../../../ThirdParty/mbedTLS/library/gcm.c:0:17
	add	r0, sp, #192
	.loc	2 957 13 is_stmt 1              @ ../../../ThirdParty/mbedTLS/library/gcm.c:957:13
	bl	mbedtls_gcm_free
	.loc	2 959 17                        @ ../../../ThirdParty/mbedTLS/library/gcm.c:959:17
	ldr	r0, [sp, #96]                   @ 4-byte Reload
	cbz	r0, .LBB10_34
.Ltmp400:
@ %bb.33:                               @   in Loop: Header=BB10_2 Depth=2
	@DEBUG_VALUE: mbedtls_gcm_self_test:i <- [DW_OP_plus_uconst 108] [$sp+0]
	@DEBUG_VALUE: mbedtls_gcm_self_test:j <- [DW_OP_plus_uconst 40] [$sp+0]
	@DEBUG_VALUE: mbedtls_gcm_self_test:verbose <- [DW_OP_plus_uconst 96] [$sp+0]
	@DEBUG_VALUE: mbedtls_gcm_self_test:cipher <- 2
	.loc	2 960 17                        @ ../../../ThirdParty/mbedTLS/library/gcm.c:960:17
	adr	r0, .LCPI10_15
	bl	puts
	add	r0, sp, #192
.Ltmp401:
	.loc	2 962 13                        @ ../../../ThirdParty/mbedTLS/library/gcm.c:962:13
	bl	mbedtls_gcm_init
.Ltmp402:
	.loc	2 965 17                        @ ../../../ThirdParty/mbedTLS/library/gcm.c:965:17
	ldr	r0, __arm_cp.10_17
	ldr	r4, [sp, #88]                   @ 4-byte Reload
	mov	r1, r4
	ldr	r2, [sp, #108]                  @ 4-byte Reload
	ldr	r3, __arm_cp.10_16
	bl	__2printf
	b	.LBB10_35
.Ltmp403:
.LBB10_34:                              @   in Loop: Header=BB10_2 Depth=2
	@DEBUG_VALUE: mbedtls_gcm_self_test:i <- [DW_OP_plus_uconst 108] [$sp+0]
	@DEBUG_VALUE: mbedtls_gcm_self_test:j <- [DW_OP_plus_uconst 40] [$sp+0]
	@DEBUG_VALUE: mbedtls_gcm_self_test:verbose <- [DW_OP_plus_uconst 96] [$sp+0]
	@DEBUG_VALUE: mbedtls_gcm_self_test:cipher <- 2
	.loc	2 0 17 is_stmt 0                @ ../../../ThirdParty/mbedTLS/library/gcm.c:0:17
	add	r0, sp, #192
	.loc	2 962 13 is_stmt 1              @ ../../../ThirdParty/mbedTLS/library/gcm.c:962:13
	bl	mbedtls_gcm_init
	ldr	r4, [sp, #88]                   @ 4-byte Reload
.Ltmp404:
.LBB10_35:                              @   in Loop: Header=BB10_2 Depth=2
	@DEBUG_VALUE: mbedtls_gcm_self_test:i <- [DW_OP_plus_uconst 108] [$sp+0]
	@DEBUG_VALUE: mbedtls_gcm_self_test:j <- [DW_OP_plus_uconst 40] [$sp+0]
	@DEBUG_VALUE: mbedtls_gcm_self_test:verbose <- [DW_OP_plus_uconst 96] [$sp+0]
	@DEBUG_VALUE: mbedtls_gcm_self_test:cipher <- 2
	.loc	2 0 13 is_stmt 0                @ ../../../ThirdParty/mbedTLS/library/gcm.c:0:13
	add	r0, sp, #192
	movs	r1, #2
	.loc	2 968 19 is_stmt 1              @ ../../../ThirdParty/mbedTLS/library/gcm.c:968:19
	mov	r2, r7
	mov	r3, r4
	bl	mbedtls_gcm_setkey
.Ltmp405:
	@DEBUG_VALUE: mbedtls_gcm_self_test:ret <- $r0
	.loc	2 970 17                        @ ../../../ThirdParty/mbedTLS/library/gcm.c:970:17
	cmp	r0, #0
	bne	.LBB10_51
.Ltmp406:
@ %bb.36:                               @   in Loop: Header=BB10_2 Depth=2
	@DEBUG_VALUE: mbedtls_gcm_self_test:ret <- $r0
	@DEBUG_VALUE: mbedtls_gcm_self_test:i <- [DW_OP_plus_uconst 108] [$sp+0]
	@DEBUG_VALUE: mbedtls_gcm_self_test:j <- [DW_OP_plus_uconst 40] [$sp+0]
	@DEBUG_VALUE: mbedtls_gcm_self_test:verbose <- [DW_OP_plus_uconst 96] [$sp+0]
	@DEBUG_VALUE: mbedtls_gcm_self_test:cipher <- 2
	.loc	2 973 19                        @ ../../../ThirdParty/mbedTLS/library/gcm.c:973:19
	ldr	r0, [sp, #68]                   @ 4-byte Reload
.Ltmp407:
	str	r0, [sp]
	ldr	r0, [sp, #76]                   @ 4-byte Reload
	str	r0, [sp, #4]
	add	r0, sp, #192
	movs	r4, #0
	mov	r1, r4
	ldr	r2, [sp, #72]                   @ 4-byte Reload
	ldr	r3, [sp, #80]                   @ 4-byte Reload
	bl	mbedtls_gcm_starts
.Ltmp408:
	@DEBUG_VALUE: mbedtls_gcm_self_test:ret <- $r0
	.loc	2 976 17                        @ ../../../ThirdParty/mbedTLS/library/gcm.c:976:17
	cmp	r0, #0
	bne	.LBB10_51
.Ltmp409:
@ %bb.37:                               @   in Loop: Header=BB10_2 Depth=2
	@DEBUG_VALUE: mbedtls_gcm_self_test:ret <- $r0
	@DEBUG_VALUE: mbedtls_gcm_self_test:i <- [DW_OP_plus_uconst 108] [$sp+0]
	@DEBUG_VALUE: mbedtls_gcm_self_test:j <- [DW_OP_plus_uconst 40] [$sp+0]
	@DEBUG_VALUE: mbedtls_gcm_self_test:verbose <- [DW_OP_plus_uconst 96] [$sp+0]
	@DEBUG_VALUE: mbedtls_gcm_self_test:cipher <- 2
	.loc	2 979 17                        @ ../../../ThirdParty/mbedTLS/library/gcm.c:979:17
	ldr	r0, [sp, #108]                  @ 4-byte Reload
.Ltmp410:
	cmp	r0, #2
	bhs	.LBB10_39
.Ltmp411:
@ %bb.38:                               @   in Loop: Header=BB10_2 Depth=2
	@DEBUG_VALUE: mbedtls_gcm_self_test:i <- [DW_OP_plus_uconst 108] [$sp+0]
	@DEBUG_VALUE: mbedtls_gcm_self_test:j <- [DW_OP_plus_uconst 40] [$sp+0]
	@DEBUG_VALUE: mbedtls_gcm_self_test:verbose <- [DW_OP_plus_uconst 96] [$sp+0]
	@DEBUG_VALUE: mbedtls_gcm_self_test:cipher <- 2
	.loc	2 0 17 is_stmt 0                @ ../../../ThirdParty/mbedTLS/library/gcm.c:0:17
	add	r0, sp, #192
	add	r3, sp, #128
	ldr	r4, [sp, #84]                   @ 4-byte Reload
.Ltmp412:
	.loc	2 993 23 is_stmt 1              @ ../../../ThirdParty/mbedTLS/library/gcm.c:993:23
	mov	r1, r4
	mov	r2, r5
	bl	mbedtls_gcm_update
.Ltmp413:
	@DEBUG_VALUE: mbedtls_gcm_self_test:ret <- $r0
	.loc	2 0 23 is_stmt 0                @ ../../../ThirdParty/mbedTLS/library/gcm.c:0:23
	cbz	r0, .LBB10_44
	b	.LBB10_51
.Ltmp414:
.LBB10_39:                              @   in Loop: Header=BB10_2 Depth=2
	@DEBUG_VALUE: mbedtls_gcm_self_test:i <- [DW_OP_plus_uconst 108] [$sp+0]
	@DEBUG_VALUE: mbedtls_gcm_self_test:j <- [DW_OP_plus_uconst 40] [$sp+0]
	@DEBUG_VALUE: mbedtls_gcm_self_test:verbose <- [DW_OP_plus_uconst 96] [$sp+0]
	@DEBUG_VALUE: mbedtls_gcm_self_test:cipher <- 2
	@DEBUG_VALUE: rest_len <- [DW_OP_plus_uconst 84, DW_OP_deref_size 4, DW_OP_constu 32, DW_OP_minus, DW_OP_stack_value] $sp
	add	r0, sp, #192
	movs	r1, #32
	add	r3, sp, #128
.Ltmp415:
	.loc	2 982 23 is_stmt 1              @ ../../../ThirdParty/mbedTLS/library/gcm.c:982:23
	mov	r2, r5
	bl	mbedtls_gcm_update
.Ltmp416:
	@DEBUG_VALUE: mbedtls_gcm_self_test:ret <- $r0
	.loc	2 0 23 is_stmt 0                @ ../../../ThirdParty/mbedTLS/library/gcm.c:0:23
	mov	r2, r5
	movs	r5, #8
	.loc	2 983 21 is_stmt 1              @ ../../../ThirdParty/mbedTLS/library/gcm.c:983:21
	cbz	r0, .LBB10_41
.Ltmp417:
@ %bb.40:                               @   in Loop: Header=BB10_2 Depth=2
	@DEBUG_VALUE: mbedtls_gcm_self_test:ret <- $r0
	@DEBUG_VALUE: rest_len <- [DW_OP_plus_uconst 84, DW_OP_deref_size 4, DW_OP_constu 32, DW_OP_minus, DW_OP_stack_value] $sp
	@DEBUG_VALUE: mbedtls_gcm_self_test:i <- [DW_OP_plus_uconst 108] [$sp+0]
	@DEBUG_VALUE: mbedtls_gcm_self_test:j <- [DW_OP_plus_uconst 40] [$sp+0]
	@DEBUG_VALUE: mbedtls_gcm_self_test:verbose <- [DW_OP_plus_uconst 96] [$sp+0]
	@DEBUG_VALUE: mbedtls_gcm_self_test:cipher <- 2
	.loc	2 0 21 is_stmt 0                @ ../../../ThirdParty/mbedTLS/library/gcm.c:0:21
	mov	r6, r0
.Ltmp418:
	@DEBUG_VALUE: mbedtls_gcm_self_test:ret <- $r6
	b	.LBB10_43
.Ltmp419:
.LBB10_41:                              @   in Loop: Header=BB10_2 Depth=2
	@DEBUG_VALUE: mbedtls_gcm_self_test:ret <- $r0
	@DEBUG_VALUE: rest_len <- [DW_OP_plus_uconst 84, DW_OP_deref_size 4, DW_OP_constu 32, DW_OP_minus, DW_OP_stack_value] $sp
	@DEBUG_VALUE: mbedtls_gcm_self_test:i <- [DW_OP_plus_uconst 108] [$sp+0]
	@DEBUG_VALUE: mbedtls_gcm_self_test:j <- [DW_OP_plus_uconst 40] [$sp+0]
	@DEBUG_VALUE: mbedtls_gcm_self_test:verbose <- [DW_OP_plus_uconst 96] [$sp+0]
	@DEBUG_VALUE: mbedtls_gcm_self_test:cipher <- 2
	.loc	2 981 45 is_stmt 1              @ ../../../ThirdParty/mbedTLS/library/gcm.c:981:45
	ldr	r1, [sp, #84]                   @ 4-byte Reload
	subs	r1, #32
.Ltmp420:
	@DEBUG_VALUE: rest_len <- $r1
	.loc	2 986 23                        @ ../../../ThirdParty/mbedTLS/library/gcm.c:986:23
	adds	r2, #32
	add	r0, sp, #192
.Ltmp421:
	ldr	r3, [sp, #32]                   @ 4-byte Reload
	bl	mbedtls_gcm_update
.Ltmp422:
	mov	r6, r0
.Ltmp423:
	@DEBUG_VALUE: mbedtls_gcm_self_test:ret <- $r6
	.loc	2 988 21                        @ ../../../ThirdParty/mbedTLS/library/gcm.c:988:21
	cbnz	r0, .LBB10_43
.Ltmp424:
@ %bb.42:                               @   in Loop: Header=BB10_2 Depth=2
	@DEBUG_VALUE: mbedtls_gcm_self_test:ret <- $r6
	@DEBUG_VALUE: mbedtls_gcm_self_test:i <- [DW_OP_plus_uconst 108] [$sp+0]
	@DEBUG_VALUE: mbedtls_gcm_self_test:j <- [DW_OP_plus_uconst 40] [$sp+0]
	@DEBUG_VALUE: mbedtls_gcm_self_test:verbose <- [DW_OP_plus_uconst 96] [$sp+0]
	@DEBUG_VALUE: mbedtls_gcm_self_test:cipher <- 2
	.loc	2 0 21 is_stmt 0                @ ../../../ThirdParty/mbedTLS/library/gcm.c:0:21
	movs	r6, #0
.Ltmp425:
	ldr	r4, [sp, #28]                   @ 4-byte Reload
	mov	r5, r6
.Ltmp426:
.LBB10_43:                              @   in Loop: Header=BB10_2 Depth=2
	@DEBUG_VALUE: mbedtls_gcm_self_test:i <- [DW_OP_plus_uconst 108] [$sp+0]
	@DEBUG_VALUE: mbedtls_gcm_self_test:j <- [DW_OP_plus_uconst 40] [$sp+0]
	@DEBUG_VALUE: mbedtls_gcm_self_test:verbose <- [DW_OP_plus_uconst 96] [$sp+0]
	@DEBUG_VALUE: mbedtls_gcm_self_test:cipher <- 2
	@DEBUG_VALUE: mbedtls_gcm_self_test:ret <- $r6
	cmp	r4, #0
	ldr	r4, [sp, #84]                   @ 4-byte Reload
	beq	.LBB10_56
.Ltmp427:
.LBB10_44:                              @   in Loop: Header=BB10_2 Depth=2
	@DEBUG_VALUE: mbedtls_gcm_self_test:i <- [DW_OP_plus_uconst 108] [$sp+0]
	@DEBUG_VALUE: mbedtls_gcm_self_test:j <- [DW_OP_plus_uconst 40] [$sp+0]
	@DEBUG_VALUE: mbedtls_gcm_self_test:verbose <- [DW_OP_plus_uconst 96] [$sp+0]
	@DEBUG_VALUE: mbedtls_gcm_self_test:cipher <- 2
	add	r0, sp, #192
	add	r1, sp, #112
	movs	r2, #16
	.loc	2 999 19 is_stmt 1              @ ../../../ThirdParty/mbedTLS/library/gcm.c:999:19
	bl	mbedtls_gcm_finish
.Ltmp428:
	@DEBUG_VALUE: mbedtls_gcm_self_test:ret <- $r0
	.loc	2 1000 17                       @ ../../../ThirdParty/mbedTLS/library/gcm.c:1000:17
	cbnz	r0, .LBB10_51
.Ltmp429:
@ %bb.45:                               @   in Loop: Header=BB10_2 Depth=2
	@DEBUG_VALUE: mbedtls_gcm_self_test:ret <- $r0
	@DEBUG_VALUE: mbedtls_gcm_self_test:i <- [DW_OP_plus_uconst 108] [$sp+0]
	@DEBUG_VALUE: mbedtls_gcm_self_test:j <- [DW_OP_plus_uconst 40] [$sp+0]
	@DEBUG_VALUE: mbedtls_gcm_self_test:verbose <- [DW_OP_plus_uconst 96] [$sp+0]
	@DEBUG_VALUE: mbedtls_gcm_self_test:cipher <- 2
	.loc	2 0 17 is_stmt 0                @ ../../../ThirdParty/mbedTLS/library/gcm.c:0:17
	add	r0, sp, #128
.Ltmp430:
	.loc	2 1003 17 is_stmt 1             @ ../../../ThirdParty/mbedTLS/library/gcm.c:1003:17
	ldr	r1, [sp, #64]                   @ 4-byte Reload
	mov	r2, r4
	bl	memcmp
	.loc	2 1003 64 is_stmt 0             @ ../../../ThirdParty/mbedTLS/library/gcm.c:1003:64
	cbnz	r0, .LBB10_53
.Ltmp431:
@ %bb.46:                               @   in Loop: Header=BB10_2 Depth=2
	@DEBUG_VALUE: mbedtls_gcm_self_test:i <- [DW_OP_plus_uconst 108] [$sp+0]
	@DEBUG_VALUE: mbedtls_gcm_self_test:j <- [DW_OP_plus_uconst 40] [$sp+0]
	@DEBUG_VALUE: mbedtls_gcm_self_test:verbose <- [DW_OP_plus_uconst 96] [$sp+0]
	@DEBUG_VALUE: mbedtls_gcm_self_test:cipher <- 2
	.loc	2 0 64                          @ ../../../ThirdParty/mbedTLS/library/gcm.c:0:64
	add	r0, sp, #112
	movs	r2, #16
	.loc	2 1004 21 is_stmt 1             @ ../../../ThirdParty/mbedTLS/library/gcm.c:1004:21
	ldr	r1, [sp, #104]                  @ 4-byte Reload
	bl	memcmp
.Ltmp432:
	.loc	2 0 0 is_stmt 0                 @ ../../../ThirdParty/mbedTLS/library/gcm.c:0:0
	ldr	r6, [sp, #52]                   @ 4-byte Reload
	ldr	r5, [sp, #56]                   @ 4-byte Reload
	.loc	2 1003 17 is_stmt 1             @ ../../../ThirdParty/mbedTLS/library/gcm.c:1003:17
	cbnz	r0, .LBB10_56
.Ltmp433:
@ %bb.47:                               @   in Loop: Header=BB10_2 Depth=2
	@DEBUG_VALUE: mbedtls_gcm_self_test:i <- [DW_OP_plus_uconst 108] [$sp+0]
	@DEBUG_VALUE: mbedtls_gcm_self_test:j <- [DW_OP_plus_uconst 40] [$sp+0]
	@DEBUG_VALUE: mbedtls_gcm_self_test:verbose <- [DW_OP_plus_uconst 96] [$sp+0]
	@DEBUG_VALUE: mbedtls_gcm_self_test:cipher <- 2
	.loc	2 0 17 is_stmt 0                @ ../../../ThirdParty/mbedTLS/library/gcm.c:0:17
	add	r0, sp, #192
	.loc	2 1010 13 is_stmt 1             @ ../../../ThirdParty/mbedTLS/library/gcm.c:1010:13
	bl	mbedtls_gcm_free
	.loc	2 1012 17                       @ ../../../ThirdParty/mbedTLS/library/gcm.c:1012:17
	ldr	r0, [sp, #96]                   @ 4-byte Reload
	cbz	r0, .LBB10_49
.Ltmp434:
@ %bb.48:                               @   in Loop: Header=BB10_2 Depth=2
	@DEBUG_VALUE: mbedtls_gcm_self_test:i <- [DW_OP_plus_uconst 108] [$sp+0]
	@DEBUG_VALUE: mbedtls_gcm_self_test:j <- [DW_OP_plus_uconst 40] [$sp+0]
	@DEBUG_VALUE: mbedtls_gcm_self_test:verbose <- [DW_OP_plus_uconst 96] [$sp+0]
	@DEBUG_VALUE: mbedtls_gcm_self_test:cipher <- 2
	.loc	2 1013 17                       @ ../../../ThirdParty/mbedTLS/library/gcm.c:1013:17
	adr	r0, .LCPI10_15
	bl	puts
.Ltmp435:
.LBB10_49:                              @   in Loop: Header=BB10_2 Depth=2
	@DEBUG_VALUE: mbedtls_gcm_self_test:i <- [DW_OP_plus_uconst 108] [$sp+0]
	@DEBUG_VALUE: mbedtls_gcm_self_test:j <- [DW_OP_plus_uconst 40] [$sp+0]
	@DEBUG_VALUE: mbedtls_gcm_self_test:verbose <- [DW_OP_plus_uconst 96] [$sp+0]
	@DEBUG_VALUE: mbedtls_gcm_self_test:cipher <- 2
	.loc	2 833 23                        @ ../../../ThirdParty/mbedTLS/library/gcm.c:833:23
	ldr	r0, [sp, #104]                  @ 4-byte Reload
	adds	r0, #16
	str	r0, [sp, #104]                  @ 4-byte Spill
	ldr	r5, [sp, #100]                  @ 4-byte Reload
	adds	r5, #64
.Ltmp436:
	@DEBUG_VALUE: mbedtls_gcm_self_test:ret <- 0
	.loc	2 0 23 is_stmt 0                @ ../../../ThirdParty/mbedTLS/library/gcm.c:0:23
	ldr	r1, [sp, #92]                   @ 4-byte Reload
	.loc	2 833 23                        @ ../../../ThirdParty/mbedTLS/library/gcm.c:833:23
	adds	r1, r1, #4
	.loc	2 833 37                        @ ../../../ThirdParty/mbedTLS/library/gcm.c:833:37
	ldr	r0, [sp, #108]                  @ 4-byte Reload
	adds	r0, r0, #1
.Ltmp437:
	@DEBUG_VALUE: mbedtls_gcm_self_test:i <- $r0
	.loc	2 833 9                         @ ../../../ThirdParty/mbedTLS/library/gcm.c:833:9
	str	r0, [sp, #108]                  @ 4-byte Spill
.Ltmp438:
	@DEBUG_VALUE: mbedtls_gcm_self_test:i <- [DW_OP_plus_uconst 108] [$sp+0]
	@DEBUG_VALUE: mbedtls_gcm_self_test:i <- [DW_OP_plus_uconst 108] [$sp+0]
	.loc	2 0 9                           @ ../../../ThirdParty/mbedTLS/library/gcm.c:0:9
	str	r1, [sp, #92]                   @ 4-byte Spill
	.loc	2 833 9                         @ ../../../ThirdParty/mbedTLS/library/gcm.c:833:9
	cmp	r1, #24
	ldr	r4, [sp, #88]                   @ 4-byte Reload
	beq	.LBB10_50
	b	.LBB10_2
.Ltmp439:
.LBB10_50:                              @   in Loop: Header=BB10_1 Depth=1
	@DEBUG_VALUE: mbedtls_gcm_self_test:i <- [DW_OP_plus_uconst 108] [$sp+0]
	@DEBUG_VALUE: mbedtls_gcm_self_test:j <- [DW_OP_plus_uconst 40] [$sp+0]
	@DEBUG_VALUE: mbedtls_gcm_self_test:verbose <- [DW_OP_plus_uconst 96] [$sp+0]
	@DEBUG_VALUE: mbedtls_gcm_self_test:ret <- 0
	@DEBUG_VALUE: mbedtls_gcm_self_test:cipher <- 2
	.loc	2 0 9                           @ ../../../ThirdParty/mbedTLS/library/gcm.c:0:9
	movs	r6, #0
	mov	r5, r6
.Ltmp440:
	@DEBUG_VALUE: mbedtls_gcm_self_test:ret <- $r6
	cbz	r5, .LBB10_57
	b	.LBB10_59
.Ltmp441:
.LBB10_51:                              @   in Loop: Header=BB10_1 Depth=1
	@DEBUG_VALUE: mbedtls_gcm_self_test:ret <- $r0
	@DEBUG_VALUE: mbedtls_gcm_self_test:i <- [DW_OP_plus_uconst 108] [$sp+0]
	@DEBUG_VALUE: mbedtls_gcm_self_test:j <- [DW_OP_plus_uconst 40] [$sp+0]
	@DEBUG_VALUE: mbedtls_gcm_self_test:verbose <- [DW_OP_plus_uconst 96] [$sp+0]
	@DEBUG_VALUE: mbedtls_gcm_self_test:cipher <- 2
	mov	r6, r0
.Ltmp442:
	@DEBUG_VALUE: mbedtls_gcm_self_test:ret <- $r6
	b	.LBB10_54
.Ltmp443:
.LBB10_52:                              @   in Loop: Header=BB10_1 Depth=1
	@DEBUG_VALUE: mbedtls_gcm_self_test:i <- [DW_OP_plus_uconst 108] [$sp+0]
	@DEBUG_VALUE: mbedtls_gcm_self_test:j <- [DW_OP_plus_uconst 40] [$sp+0]
	@DEBUG_VALUE: mbedtls_gcm_self_test:verbose <- [DW_OP_plus_uconst 96] [$sp+0]
	@DEBUG_VALUE: mbedtls_gcm_self_test:cipher <- 2
	mov	r6, r5
	b	.LBB10_54
.Ltmp444:
.LBB10_53:                              @   in Loop: Header=BB10_1 Depth=1
	@DEBUG_VALUE: mbedtls_gcm_self_test:i <- [DW_OP_plus_uconst 108] [$sp+0]
	@DEBUG_VALUE: mbedtls_gcm_self_test:j <- [DW_OP_plus_uconst 40] [$sp+0]
	@DEBUG_VALUE: mbedtls_gcm_self_test:verbose <- [DW_OP_plus_uconst 96] [$sp+0]
	@DEBUG_VALUE: mbedtls_gcm_self_test:cipher <- 2
	ldr	r6, [sp, #52]                   @ 4-byte Reload
.Ltmp445:
.LBB10_54:                              @   in Loop: Header=BB10_1 Depth=1
	@DEBUG_VALUE: mbedtls_gcm_self_test:i <- [DW_OP_plus_uconst 108] [$sp+0]
	@DEBUG_VALUE: mbedtls_gcm_self_test:j <- [DW_OP_plus_uconst 40] [$sp+0]
	@DEBUG_VALUE: mbedtls_gcm_self_test:verbose <- [DW_OP_plus_uconst 96] [$sp+0]
	@DEBUG_VALUE: mbedtls_gcm_self_test:cipher <- 2
	ldr	r5, [sp, #56]                   @ 4-byte Reload
.Ltmp446:
	@DEBUG_VALUE: mbedtls_gcm_self_test:ret <- $r6
	cbz	r5, .LBB10_57
	b	.LBB10_59
.Ltmp447:
.LBB10_55:                              @   in Loop: Header=BB10_1 Depth=1
	@DEBUG_VALUE: mbedtls_gcm_self_test:ret <- $r6
	@DEBUG_VALUE: mbedtls_gcm_self_test:i <- [DW_OP_plus_uconst 108] [$sp+0]
	@DEBUG_VALUE: mbedtls_gcm_self_test:j <- [DW_OP_plus_uconst 40] [$sp+0]
	@DEBUG_VALUE: mbedtls_gcm_self_test:verbose <- [DW_OP_plus_uconst 96] [$sp+0]
	@DEBUG_VALUE: mbedtls_gcm_self_test:cipher <- 2
	.loc	2 850 17 is_stmt 1              @ ../../../ThirdParty/mbedTLS/library/gcm.c:850:17
	adr	r0, .LCPI10_18
	bl	puts
	movs	r0, #113
	mvns	r6, r0
.Ltmp448:
	.loc	2 0 17 is_stmt 0                @ ../../../ThirdParty/mbedTLS/library/gcm.c:0:17
	movs	r5, #0
.Ltmp449:
.LBB10_56:                              @   in Loop: Header=BB10_1 Depth=1
	@DEBUG_VALUE: mbedtls_gcm_self_test:i <- [DW_OP_plus_uconst 108] [$sp+0]
	@DEBUG_VALUE: mbedtls_gcm_self_test:j <- [DW_OP_plus_uconst 40] [$sp+0]
	@DEBUG_VALUE: mbedtls_gcm_self_test:verbose <- [DW_OP_plus_uconst 96] [$sp+0]
	@DEBUG_VALUE: mbedtls_gcm_self_test:cipher <- 2
	@DEBUG_VALUE: mbedtls_gcm_self_test:ret <- $r6
	cbnz	r5, .LBB10_59
.Ltmp450:
.LBB10_57:                              @   in Loop: Header=BB10_1 Depth=1
	@DEBUG_VALUE: mbedtls_gcm_self_test:ret <- $r6
	@DEBUG_VALUE: mbedtls_gcm_self_test:i <- [DW_OP_plus_uconst 108] [$sp+0]
	@DEBUG_VALUE: mbedtls_gcm_self_test:j <- [DW_OP_plus_uconst 40] [$sp+0]
	@DEBUG_VALUE: mbedtls_gcm_self_test:verbose <- [DW_OP_plus_uconst 96] [$sp+0]
	@DEBUG_VALUE: mbedtls_gcm_self_test:cipher <- 2
	@DEBUG_VALUE: mbedtls_gcm_self_test:ret <- undef
	ldr	r1, [sp, #48]                   @ 4-byte Reload
	.loc	2 829 5 is_stmt 1               @ ../../../ThirdParty/mbedTLS/library/gcm.c:829:5
	movw	r0, #384
	adds	r1, r1, r0
	ldr	r2, [sp, #44]                   @ 4-byte Reload
	adds	r2, #96
	ldr	r0, [sp, #40]                   @ 4-byte Reload
.Ltmp451:
	.loc	2 829 25 is_stmt 0              @ ../../../ThirdParty/mbedTLS/library/gcm.c:829:25
	adds	r0, r0, #1
.Ltmp452:
	@DEBUG_VALUE: mbedtls_gcm_self_test:j <- $r0
	.loc	2 829 5                         @ ../../../ThirdParty/mbedTLS/library/gcm.c:829:5
	cmp	r0, #3
	beq	.LBB10_61
	b	.LBB10_1
.Ltmp453:
.LBB10_58:                              @   in Loop: Header=BB10_1 Depth=1
	@DEBUG_VALUE: mbedtls_gcm_self_test:ret <- $r6
	@DEBUG_VALUE: mbedtls_gcm_self_test:i <- [DW_OP_plus_uconst 108] [$sp+0]
	@DEBUG_VALUE: mbedtls_gcm_self_test:j <- [DW_OP_plus_uconst 40] [$sp+0]
	@DEBUG_VALUE: mbedtls_gcm_self_test:verbose <- [DW_OP_plus_uconst 96] [$sp+0]
	@DEBUG_VALUE: mbedtls_gcm_self_test:cipher <- 2
	.loc	2 0 5                           @ ../../../ThirdParty/mbedTLS/library/gcm.c:0:5
	mov	r5, r0
	@DEBUG_VALUE: mbedtls_gcm_self_test:ret <- $r6
	cmp	r5, #0
	beq	.LBB10_57
.Ltmp454:
.LBB10_59:
	@DEBUG_VALUE: mbedtls_gcm_self_test:ret <- $r6
	@DEBUG_VALUE: mbedtls_gcm_self_test:i <- [DW_OP_plus_uconst 108] [$sp+0]
	@DEBUG_VALUE: mbedtls_gcm_self_test:j <- [DW_OP_plus_uconst 40] [$sp+0]
	@DEBUG_VALUE: mbedtls_gcm_self_test:verbose <- [DW_OP_plus_uconst 96] [$sp+0]
	@DEBUG_VALUE: mbedtls_gcm_self_test:cipher <- 2
	cmp	r5, #8
	beq	.LBB10_63
.Ltmp455:
@ %bb.60:
	@DEBUG_VALUE: mbedtls_gcm_self_test:ret <- $r6
	@DEBUG_VALUE: mbedtls_gcm_self_test:i <- [DW_OP_plus_uconst 108] [$sp+0]
	@DEBUG_VALUE: mbedtls_gcm_self_test:j <- [DW_OP_plus_uconst 40] [$sp+0]
	@DEBUG_VALUE: mbedtls_gcm_self_test:verbose <- [DW_OP_plus_uconst 96] [$sp+0]
	@DEBUG_VALUE: mbedtls_gcm_self_test:cipher <- 2
                                        @ implicit-def: $r6
	b	.LBB10_67
.Ltmp456:
.LBB10_61:
	@DEBUG_VALUE: mbedtls_gcm_self_test:j <- $r0
	@DEBUG_VALUE: mbedtls_gcm_self_test:i <- [DW_OP_plus_uconst 108] [$sp+0]
	@DEBUG_VALUE: mbedtls_gcm_self_test:verbose <- [DW_OP_plus_uconst 96] [$sp+0]
	@DEBUG_VALUE: mbedtls_gcm_self_test:cipher <- 2
	movs	r6, #0
	.loc	2 1017 9 is_stmt 1              @ ../../../ThirdParty/mbedTLS/library/gcm.c:1017:9
	ldr	r0, [sp, #96]                   @ 4-byte Reload
.Ltmp457:
	.loc	2 0 9 is_stmt 0                 @ ../../../ThirdParty/mbedTLS/library/gcm.c:0:9
	cbz	r0, .LBB10_63
.Ltmp458:
@ %bb.62:
	@DEBUG_VALUE: mbedtls_gcm_self_test:i <- [DW_OP_plus_uconst 108] [$sp+0]
	@DEBUG_VALUE: mbedtls_gcm_self_test:verbose <- [DW_OP_plus_uconst 96] [$sp+0]
	@DEBUG_VALUE: mbedtls_gcm_self_test:cipher <- 2
	movs	r0, #10
.Ltmp459:
	.loc	2 1018 9 is_stmt 1              @ ../../../ThirdParty/mbedTLS/library/gcm.c:1018:9
	bl	putchar
.Ltmp460:
.LBB10_63:
	@DEBUG_VALUE: mbedtls_gcm_self_test:i <- [DW_OP_plus_uconst 108] [$sp+0]
	@DEBUG_VALUE: mbedtls_gcm_self_test:verbose <- [DW_OP_plus_uconst 96] [$sp+0]
	@DEBUG_VALUE: mbedtls_gcm_self_test:cipher <- 2
	@DEBUG_VALUE: mbedtls_gcm_self_test:ret <- $r6
	@DEBUG_LABEL: mbedtls_gcm_self_test:exit
	.loc	2 0 9 is_stmt 0                 @ ../../../ThirdParty/mbedTLS/library/gcm.c:0:9
	cbz	r6, .LBB10_67
.Ltmp461:
@ %bb.64:
	@DEBUG_VALUE: mbedtls_gcm_self_test:ret <- $r6
	@DEBUG_VALUE: mbedtls_gcm_self_test:i <- [DW_OP_plus_uconst 108] [$sp+0]
	@DEBUG_VALUE: mbedtls_gcm_self_test:verbose <- [DW_OP_plus_uconst 96] [$sp+0]
	@DEBUG_VALUE: mbedtls_gcm_self_test:cipher <- 2
	.loc	2 1025 13 is_stmt 1             @ ../../../ThirdParty/mbedTLS/library/gcm.c:1025:13
	ldr	r0, [sp, #96]                   @ 4-byte Reload
	cbz	r0, .LBB10_66
.Ltmp462:
@ %bb.65:
	@DEBUG_VALUE: mbedtls_gcm_self_test:ret <- $r6
	@DEBUG_VALUE: mbedtls_gcm_self_test:i <- [DW_OP_plus_uconst 108] [$sp+0]
	@DEBUG_VALUE: mbedtls_gcm_self_test:verbose <- [DW_OP_plus_uconst 96] [$sp+0]
	@DEBUG_VALUE: mbedtls_gcm_self_test:cipher <- 2
	.loc	2 1026 13                       @ ../../../ThirdParty/mbedTLS/library/gcm.c:1026:13
	adr	r0, .LCPI10_19
	bl	puts
.Ltmp463:
.LBB10_66:
	@DEBUG_VALUE: mbedtls_gcm_self_test:ret <- $r6
	@DEBUG_VALUE: mbedtls_gcm_self_test:i <- [DW_OP_plus_uconst 108] [$sp+0]
	@DEBUG_VALUE: mbedtls_gcm_self_test:verbose <- [DW_OP_plus_uconst 96] [$sp+0]
	@DEBUG_VALUE: mbedtls_gcm_self_test:cipher <- 2
	.loc	2 0 13 is_stmt 0                @ ../../../ThirdParty/mbedTLS/library/gcm.c:0:13
	add	r0, sp, #192
	.loc	2 1027 9 is_stmt 1              @ ../../../ThirdParty/mbedTLS/library/gcm.c:1027:9
	bl	mbedtls_gcm_free
.Ltmp464:
.LBB10_67:
	@DEBUG_VALUE: mbedtls_gcm_self_test:ret <- $r6
	@DEBUG_VALUE: mbedtls_gcm_self_test:i <- [DW_OP_plus_uconst 108] [$sp+0]
	@DEBUG_VALUE: mbedtls_gcm_self_test:verbose <- [DW_OP_plus_uconst 96] [$sp+0]
	@DEBUG_VALUE: mbedtls_gcm_self_test:cipher <- 2
	.loc	2 1031 1                        @ ../../../ThirdParty/mbedTLS/library/gcm.c:1031:1
	mov	r0, r6
	add	sp, #508
.Ltmp465:
	add	sp, #80
	pop	{r4, r5, r6, r7, pc}
.Ltmp466:
	.p2align	2
@ %bb.68:
	.loc	2 0 1 is_stmt 0                 @ ../../../ThirdParty/mbedTLS/library/gcm.c:0:1
__arm_cp.10_0:
	.long	ct
.Lcpi_end1:
	.size	__arm_cp.10_0, .Lcpi_end1-__arm_cp.10_0
__arm_cp.10_1:
	.long	tag
.Lcpi_end2:
	.size	__arm_cp.10_1, .Lcpi_end2-__arm_cp.10_1
__arm_cp.10_2:
	.long	.L.str
.Lcpi_end3:
	.size	__arm_cp.10_2, .Lcpi_end3-__arm_cp.10_2
__arm_cp.10_3:
	.long	.L.str.1
.Lcpi_end4:
	.size	__arm_cp.10_3, .Lcpi_end4-__arm_cp.10_3
__arm_cp.10_4:
	.long	key_index
.Lcpi_end5:
	.size	__arm_cp.10_4, .Lcpi_end5-__arm_cp.10_4
__arm_cp.10_5:
	.long	key
.Lcpi_end6:
	.size	__arm_cp.10_5, .Lcpi_end6-__arm_cp.10_5
__arm_cp.10_6:
	.long	add_len
.Lcpi_end7:
	.size	__arm_cp.10_6, .Lcpi_end7-__arm_cp.10_6
__arm_cp.10_7:
	.long	iv_len
.Lcpi_end8:
	.size	__arm_cp.10_7, .Lcpi_end8-__arm_cp.10_7
__arm_cp.10_8:
	.long	pt_index
.Lcpi_end9:
	.size	__arm_cp.10_8, .Lcpi_end9-__arm_cp.10_8
__arm_cp.10_9:
	.long	pt
.Lcpi_end10:
	.size	__arm_cp.10_9, .Lcpi_end10-__arm_cp.10_9
__arm_cp.10_10:
	.long	add_index
.Lcpi_end11:
	.size	__arm_cp.10_10, .Lcpi_end11-__arm_cp.10_10
__arm_cp.10_11:
	.long	additional
.Lcpi_end12:
	.size	__arm_cp.10_11, .Lcpi_end12-__arm_cp.10_11
__arm_cp.10_12:
	.long	pt_len
.Lcpi_end13:
	.size	__arm_cp.10_12, .Lcpi_end13-__arm_cp.10_12
__arm_cp.10_13:
	.long	iv_index
.Lcpi_end14:
	.size	__arm_cp.10_13, .Lcpi_end14-__arm_cp.10_13
__arm_cp.10_14:
	.long	iv
.Lcpi_end15:
	.size	__arm_cp.10_14, .Lcpi_end15-__arm_cp.10_14
.LCPI10_15:
.Lstr.13:
.Lstr.11:
.Lstr.14:
.Lstr.12:
	.asciz	"passed\000"
__arm_cp.10_16:
	.long	.L.str.4
.Lcpi_end16:
	.size	__arm_cp.10_16, .Lcpi_end16-__arm_cp.10_16
__arm_cp.10_17:
	.long	.L.str.5
.Lcpi_end17:
	.size	__arm_cp.10_17, .Lcpi_end17-__arm_cp.10_17
.LCPI10_18:
.Lstr.15:
	.asciz	"skipped"
.LCPI10_19:
.Lstr:
	.asciz	"failed\000"
.Lfunc_end10:
	.size	mbedtls_gcm_self_test, .Lfunc_end10-mbedtls_gcm_self_test
	.cfi_endproc
	.cantunwind
	.fnend
                                        @ -- End function
	.type	.L.str,%object                  @ @.str
	.section	.rodata.str1.1,"aMS",%progbits,1
.L.str:
	.asciz	"  AES-GCM-%3d #%d (%s): "
	.size	.L.str, 25

	.type	.L.str.1,%object                @ @.str.1
.L.str.1:
	.asciz	"enc"
	.size	.L.str.1, 4

	.type	key,%object                     @ @key
	.section	.rodata.key,"a",%progbits
key:
	.zero	32
	.ascii	"\376\377\351\222\206es\034mj\217\224g0\203\b\376\377\351\222\206es\034mj\217\224g0\203\b"
	.zero	32
	.zero	32
	.zero	32
	.zero	32
	.size	key, 192

	.type	key_index,%object               @ @key_index
	.section	.rodata.key_index,"a",%progbits
	.p2align	2
key_index:
	.long	0                               @ 0x0
	.long	0                               @ 0x0
	.long	1                               @ 0x1
	.long	1                               @ 0x1
	.long	1                               @ 0x1
	.long	1                               @ 0x1
	.size	key_index, 24

	.type	pt_len,%object                  @ @pt_len
	.section	.rodata.pt_len,"a",%progbits
	.p2align	2
pt_len:
	.long	0                               @ 0x0
	.long	16                              @ 0x10
	.long	64                              @ 0x40
	.long	60                              @ 0x3c
	.long	60                              @ 0x3c
	.long	60                              @ 0x3c
	.size	pt_len, 24

	.type	iv_index,%object                @ @iv_index
	.section	.rodata.iv_index,"a",%progbits
	.p2align	2
iv_index:
	.long	0                               @ 0x0
	.long	0                               @ 0x0
	.long	1                               @ 0x1
	.long	1                               @ 0x1
	.long	1                               @ 0x1
	.long	2                               @ 0x2
	.size	iv_index, 24

	.type	iv_len,%object                  @ @iv_len
	.section	.rodata.iv_len,"a",%progbits
	.p2align	2
iv_len:
	.long	12                              @ 0xc
	.long	12                              @ 0xc
	.long	12                              @ 0xc
	.long	12                              @ 0xc
	.long	8                               @ 0x8
	.long	60                              @ 0x3c
	.size	iv_len, 24

	.type	add_index,%object               @ @add_index
	.section	.rodata.add_index,"a",%progbits
	.p2align	2
add_index:
	.long	0                               @ 0x0
	.long	0                               @ 0x0
	.long	0                               @ 0x0
	.long	1                               @ 0x1
	.long	1                               @ 0x1
	.long	1                               @ 0x1
	.size	add_index, 24

	.type	add_len,%object                 @ @add_len
	.section	.rodata.add_len,"a",%progbits
	.p2align	2
add_len:
	.long	0                               @ 0x0
	.long	0                               @ 0x0
	.long	0                               @ 0x0
	.long	20                              @ 0x14
	.long	20                              @ 0x14
	.long	20                              @ 0x14
	.size	add_len, 24

	.type	pt,%object                      @ @pt
	.section	.rodata.pt,"a",%progbits
pt:
	.zero	64
	.ascii	"\33112%\370\204\006\345\245Y\t\305\257\365&\232\206\247\251S\0254\367\332.L0=\2121\212r\034<\f\225\225h\tS/\317\016$I\246\265%\261j\355\365\252\r\346W\272c{9\032\257\322U"
	.zero	64
	.zero	64
	.zero	64
	.zero	64
	.size	pt, 384

	.type	pt_index,%object                @ @pt_index
	.section	.rodata.pt_index,"a",%progbits
	.p2align	2
pt_index:
	.long	0                               @ 0x0
	.long	0                               @ 0x0
	.long	1                               @ 0x1
	.long	1                               @ 0x1
	.long	1                               @ 0x1
	.long	1                               @ 0x1
	.size	pt_index, 24

	.type	tag,%object                     @ @tag
	.section	.rodata.tag,"a",%progbits
tag:
	.ascii	"X\342\374\316\372~0a6\177\035W\244\347EZ"
	.ascii	"\253nG\324,\354\023\275\365:g\262\022W\275\337"
	.ascii	"M\\*\363'\315d\246,\363Z\275+\246\372\264"
	.ascii	"[\311O\2742!\245\333\224\372\351Z\347\022\032G"
	.ascii	"6\022\322\347\236;\007\205V\033\341J\254\242\374\313"
	.ascii	"a\234\305\256\377\376\013\372F*\364<\026\231\320P"
	.ascii	"\3153\262\212\307s\367K\240\016\321\363\022W$5"
	.ascii	"/\365\215\200\0039'\253\216\364\324Xu\024\360\373"
	.ascii	"\231$\247\310Xs6\277\261\030\002M\270gJ\024"
	.ascii	"%\031I\216\200\361G\2177\272U\275m'a\214"
	.ascii	"e\334\305\177\317b:$\tO\314\244\r53\370"
	.ascii	"\334\365f\377)\034%\273\270V\217\303\323v\246\331"
	.ascii	"S\017\212\373\307E6\271\251c\264\361\304\313s\213"
	.ascii	"\320\321\310\247\231\231k\360&[\230\265\324\212\271\031"
	.ascii	"\260\224\332\305\3314q\275\354\032P\"p\343\314l"
	.ascii	"v\374n\316\017N\027h\315\337\210S\273-U\033"
	.ascii	":3}\277F\247\222\304^EI\023\376.\250\362"
	.ascii	"\244J\202f\356\034\216\260\310\265\324\317Z\351\361\232"
	.size	tag, 288

	.type	.L.str.4,%object                @ @.str.4
	.section	.rodata.str1.1,"aMS",%progbits,1
.L.str.4:
	.asciz	"dec"
	.size	.L.str.4, 4

	.type	.L.str.5,%object                @ @.str.5
.L.str.5:
	.asciz	"  AES-GCM-%3d #%d split (%s): "
	.size	.L.str.5, 31

	.type	last4,%object                   @ @last4
	.section	.rodata.last4,"a",%progbits
	.p2align	3
last4:
	.long	0                               @ 0x0
	.long	0
	.long	7200                            @ 0x1c20
	.long	0
	.long	14400                           @ 0x3840
	.long	0
	.long	9312                            @ 0x2460
	.long	0
	.long	28800                           @ 0x7080
	.long	0
	.long	27808                           @ 0x6ca0
	.long	0
	.long	18624                           @ 0x48c0
	.long	0
	.long	21728                           @ 0x54e0
	.long	0
	.long	57600                           @ 0xe100
	.long	0
	.long	64800                           @ 0xfd20
	.long	0
	.long	55616                           @ 0xd940
	.long	0
	.long	50528                           @ 0xc560
	.long	0
	.long	37248                           @ 0x9180
	.long	0
	.long	36256                           @ 0x8da0
	.long	0
	.long	43456                           @ 0xa9c0
	.long	0
	.long	46560                           @ 0xb5e0
	.long	0
	.size	last4, 128

	.type	iv,%object                      @ @iv
	.section	.rodata.iv,"a",%progbits
iv:
	.zero	64
	.ascii	"\312\376\272\276\372\316\333\255\336\312\370\210"
	.zero	52
	.asciz	"\223\023\"]\370\204\006\345U\220\234Z\377Ri\252jz\2258SO}\241\344\303\003\322\243\030\247(\303\300\311QV\200\2259\374\360\342B\232kRT\026\256\333\365\240\336jW\2467\263\233\000\000\000"
	.zero	64
	.zero	64
	.zero	64
	.size	iv, 384

	.type	additional,%object              @ @additional
	.section	.rodata.additional,"a",%progbits
additional:
	.zero	64
	.ascii	"\376\355\372\316\336\255\276\357\376\355\372\316\336\255\276\357\253\255\332\322"
	.zero	44
	.zero	64
	.zero	64
	.zero	64
	.zero	64
	.size	additional, 384

	.type	ct,%object                      @ @ct
	.section	.rodata.ct,"a",%progbits
ct:
	.zero	64
	.ascii	"\003\210\332\316`\266\243\222\363(\302\271q\262\376x"
	.zero	48
	.ascii	"B\203\036\302!wt$Kr!\267\204\320\324\234\343\252!/,\002\244\3405\301~#)\254\241.!\325\024\262Tf\223\034}\217jZ\254\204\252\005\033\243\0139j\n\254\227=X\340\221G?Y\205"
	.asciz	"B\203\036\302!wt$Kr!\267\204\320\324\234\343\252!/,\002\244\3405\301~#)\254\241.!\325\024\262Tf\223\034}\217jZ\254\204\252\005\033\243\0139j\n\254\227=X\340\221\000\000\000"
	.asciz	"a5;L(\006\223Jw\177\365\037\242*GUi\233*qO\315\306\3707f\345\371{lt#s\200i\000\344\237$\262+\tuD\324\211kBI\211\265\341\353\254\017\007\302?E\230\000\000\000"
	.asciz	"\214\342I\230bV\025\266\003\2403\254\241?\270\224\276\221\022\245\303\242\021\250\272&*<\312~,\247\001\344\251\244\373\244<\220\314\334\262\201\324\214|o\326(u\322\254\244\027\003L4\256\345\000\000\000"
	.zero	64
	.ascii	"\230\347$|\007\360\376A\034&~C\204\260\366"
	.zero	49
	.ascii	"9\200\312\013<\000\350A\353\006\372\304\207*'W\205\236\034\352\246\357\331\204b\205\223\264\f\241\341\234}w=\000\301D\305%\254a\235\030\310J?G\030\342D\213/\343$\331\314\332'\020\254\255\342V"
	.asciz	"9\200\312\013<\000\350A\353\006\372\304\207*'W\205\236\034\352\246\357\331\204b\205\223\264\f\241\341\234}w=\000\301D\305%\254a\235\030\310J?G\030\342D\213/\343$\331\314\332'\020\000\000\000"
	.asciz	"\017\020\365\231\256\024\241T\355$\263n%2M\270\305fc.\362\273\263O\203G(\017\304PpW\375\334)\337\232G\037u\306eA\324\324\332\321\311\351:\031\245\216\213G?\240\360b\367\000\000\000"
	.asciz	"\322~\210h\034\343$<H0\026Z\217\334\371\377\035\351\241\330\346\264G\357n\367\267\230(fnE\201\347\220\022\2574\335\331\342\3607X\233)-\263\346|\003gE\372\"\347\351\2677;\000\000\000"
	.zero	64
	.ascii	"\316\247@=M`kn\007N\305\323\272\363\235\030"
	.zero	48
	.ascii	"R-\301\360\231V}\007\364\1777\243*\204B}d:\214\334\277\345\300\311u\230\242\275%U\321\252\214\260\216HY\r\273=\247\260\213\020V\202\2108\305\366\036c\223\272z\n\274\311\366b\211\200\025\255"
	.asciz	"R-\301\360\231V}\007\364\1777\243*\204B}d:\214\334\277\345\300\311u\230\242\275%U\321\252\214\260\216HY\r\273=\247\260\213\020V\202\2108\305\366\036c\223\272z\n\274\311\366b\000\000\000"
	.asciz	"\303v-\361\312x}2\256G\301;\361\230D\313\257\032\341M\013\227j\372\305/\367\327\233\272\235\340\376\265\202\32394\244\360\225L\3026;\307?xb\254C\016d\253\344\231\364|\233\037\000\000\000"
	.asciz	"Z\215\357/\f\236S\361\367]xSe\236* \356\262\262*\257\336d\031\240X\253Ootk\364\017\300\303\267\200\362DE-\243\353\361\305\330,\336\242A\211\227 \016\370.D\256~?\000\000\000"
	.size	ct, 1152

	.globl	_printf_percent
	.globl	_printf_widthprec
	.globl	_printf_pre_padding
	.globl	_printf_s
	.globl	_printf_d
	.globl	_printf_int_dec
	.globl	_printf_str
	.hidden	_printf_percent
	.hidden	_printf_widthprec
	.hidden	_printf_pre_padding
	.hidden	_printf_s
	.hidden	_printf_d
	.hidden	_printf_int_dec
	.hidden	_printf_str
	.file	5 "C:\\Users\\shw26\\OneDrive\\Desktop\\2021\\2021-1\\\354\272\241\354\212\244\355\206\244\353\224\224\354\236\220\354\235\2702\\Nuvoton\\M2351_BSP_v3.00.004\\M2351Series_BSP_CMSIS_V3.00.004\\MyProject\\PulseMonitoring\\Secure" "../../../ThirdParty/mbedTLS/include/mbedtls\\gcm.h"
	.section	".note.GNU-stack","",%progbits
	.eabi_attribute	30, 1	@ Tag_ABI_optimization_goals
	.ARM_attribute	16, 1	@ Tag_AV_eba