	.text
	.syntax unified
	.eabi_attribute	67, "2.09"	@ Tag_conformance
	.cpu	cortex-m23
	.eabi_attribute	6, 16	@ Tag_CPU_arch
	.eabi_attribute	7, 77	@ Tag_CPU_arch_profile
	.eabi_attribute	8, 0	@ Tag_ARM_ISA_use
	.eabi_attribute	9, 3	@ Tag_THUMB_ISA_use
	.eabi_attribute	34, 0	@ Tag_CPU_unaligned_access
	.eabi_attribute	17, 1	@ Tag_ABI_PCS_GOT_use
	.eabi_attribute	20, 2	@ Tag_ABI_FP_denormal
	.eabi_attribute	21, 0	@ Tag_ABI_FP_exceptions
	.eabi_attribute	23, 1	@ Tag_ABI_FP_number_model
	.eabi_attribute	24, 1	@ Tag_ABI_align_needed
	.eabi_attribute	25, 1	@ Tag_ABI_align_preserved
	.eabi_attribute	38, 1	@ Tag_ABI_FP_16bit_format
	.eabi_attribute	18, 2	@ Tag_ABI_PCS_wchar_t
	.eabi_attribute	26, 1	@ Tag_ABI_enum_size
	.eabi_attribute	14, 0	@ Tag_ABI_PCS_R9_use
	.file	"gpio.c"
	.section	.text.GPIO_SetMode,"ax",%progbits
	.hidden	GPIO_SetMode                    @ -- Begin function GPIO_SetMode
	.globl	GPIO_SetMode
	.p2align	1
	.type	GPIO_SetMode,%function
	.code	16                              @ @GPIO_SetMode
	.thumb_func
GPIO_SetMode:
.Lfunc_begin0:
	.file	1 "C:\\Users\\shw26\\OneDrive\\Desktop\\2021\\2021-1\\\354\272\241\354\212\244\355\206\244\353\224\224\354\236\220\354\235\2702\\Nuvoton\\M2351_BSP_v3.00.004\\M2351Series_BSP_CMSIS_V3.00.004\\MyProject\\PulseMonitoring\\Secure" "../../../Library/StdDriver/src/gpio.c"
	.loc	1 46 0                          @ ../../../Library/StdDriver/src/gpio.c:46:0
	.fnstart
	.cfi_sections .debug_frame
	.cfi_startproc
@ %bb.0:
	@DEBUG_VALUE: GPIO_SetMode:port <- $r0
	@DEBUG_VALUE: GPIO_SetMode:u32PinMask <- $r1
	@DEBUG_VALUE: GPIO_SetMode:u32Mode <- $r2
	.save	{r4, r5, r6, r7, lr}
	push	{r4, r5, r6, r7, lr}
	.cfi_def_cfa_offset 20
	.cfi_offset lr, -4
	.cfi_offset r7, -8
	.cfi_offset r6, -12
	.cfi_offset r5, -16
	.cfi_offset r4, -20
	.pad	#4
	sub	sp, #4
	.cfi_def_cfa_offset 24
	str	r2, [sp]                        @ 4-byte Spill
.Ltmp0:
	@DEBUG_VALUE: GPIO_SetMode:u32Mode <- [$sp+0]
	@DEBUG_VALUE: GPIO_SetMode:u32PinMask <- $r1
	@DEBUG_VALUE: GPIO_SetMode:port <- $r0
	movs	r3, #0
.Ltmp1:
	@DEBUG_VALUE: GPIO_SetMode:u32Idx <- 0
	movs	r2, #3
	mov	r5, r3
	b	.LBB0_2
.Ltmp2:
.LBB0_1:                                @   in Loop: Header=BB0_2 Depth=1
	@DEBUG_VALUE: GPIO_SetMode:u32Idx <- $r5
	@DEBUG_VALUE: GPIO_SetMode:u32PinMask <- $r1
	@DEBUG_VALUE: GPIO_SetMode:port <- $r0
	@DEBUG_VALUE: GPIO_SetMode:u32Mode <- [$sp+0]
	.loc	1 49 30 prologue_end            @ ../../../Library/StdDriver/src/gpio.c:49:30
	adds	r3, r3, #2
	.loc	1 49 52 is_stmt 0               @ ../../../Library/StdDriver/src/gpio.c:49:52
	adds	r5, r5, #1
.Ltmp3:
	@DEBUG_VALUE: GPIO_SetMode:u32Idx <- $r5
	.loc	1 49 5                          @ ../../../Library/StdDriver/src/gpio.c:49:5
	cmp	r5, #16
	beq	.LBB0_4
.Ltmp4:
.LBB0_2:                                @ =>This Inner Loop Header: Depth=1
	@DEBUG_VALUE: GPIO_SetMode:u32PinMask <- $r1
	@DEBUG_VALUE: GPIO_SetMode:port <- $r0
	@DEBUG_VALUE: GPIO_SetMode:u32Mode <- [$sp+0]
	@DEBUG_VALUE: GPIO_SetMode:u32Idx <- $r5
	.loc	1 51 12 is_stmt 1               @ ../../../Library/StdDriver/src/gpio.c:51:12
	mov	r6, r1
	lsrs	r6, r5
	lsls	r6, r6, #31
	beq	.LBB0_1
.Ltmp5:
@ %bb.3:                                @   in Loop: Header=BB0_2 Depth=1
	@DEBUG_VALUE: GPIO_SetMode:u32Idx <- $r5
	@DEBUG_VALUE: GPIO_SetMode:u32PinMask <- $r1
	@DEBUG_VALUE: GPIO_SetMode:port <- $r0
	@DEBUG_VALUE: GPIO_SetMode:u32Mode <- [$sp+0]
	.loc	1 53 78                         @ ../../../Library/StdDriver/src/gpio.c:53:78
	ldr	r6, [sp]                        @ 4-byte Reload
	lsls	r6, r3
	.loc	1 53 48 is_stmt 0               @ ../../../Library/StdDriver/src/gpio.c:53:48
	mov	r7, r2
	lsls	r7, r3
	.loc	1 53 33                         @ ../../../Library/StdDriver/src/gpio.c:53:33
	ldr	r4, [r0]
	.loc	1 53 38                         @ ../../../Library/StdDriver/src/gpio.c:53:38
	bics	r4, r7
	.loc	1 53 67                         @ ../../../Library/StdDriver/src/gpio.c:53:67
	orrs	r4, r6
	.loc	1 53 24                         @ ../../../Library/StdDriver/src/gpio.c:53:24
	str	r4, [r0]
	b	.LBB0_1
.Ltmp6:
.LBB0_4:
	@DEBUG_VALUE: GPIO_SetMode:u32Idx <- $r5
	@DEBUG_VALUE: GPIO_SetMode:u32PinMask <- $r1
	@DEBUG_VALUE: GPIO_SetMode:port <- $r0
	@DEBUG_VALUE: GPIO_SetMode:u32Mode <- [$sp+0]
	.loc	1 56 1 is_stmt 1                @ ../../../Library/StdDriver/src/gpio.c:56:1
	add	sp, #4
.Ltmp7:
	pop	{r4, r5, r6, r7, pc}
.Ltmp8:
.Lfunc_end0:
	.size	GPIO_SetMode, .Lfunc_end0-GPIO_SetMode
	.cfi_endproc
	.cantunwind
	.fnend
                                        @ -- End function
	.section	.text.GPIO_EnableInt,"ax",%progbits
	.hidden	GPIO_EnableInt                  @ -- Begin function GPIO_EnableInt
	.globl	GPIO_EnableInt
	.p2align	2
	.type	GPIO_EnableInt,%function
	.code	16                              @ @GPIO_EnableInt
	.thumb_func
GPIO_EnableInt:
.Lfunc_begin1:
	.loc	1 81 0                          @ ../../../Library/StdDriver/src/gpio.c:81:0
	.fnstart
	.cfi_startproc
@ %bb.0:
	@DEBUG_VALUE: GPIO_EnableInt:port <- $r0
	@DEBUG_VALUE: GPIO_EnableInt:port <- $r0
	@DEBUG_VALUE: GPIO_EnableInt:u32Pin <- $r1
	@DEBUG_VALUE: GPIO_EnableInt:u32Pin <- $r1
	@DEBUG_VALUE: GPIO_EnableInt:u32IntAttribs <- $r2
	@DEBUG_VALUE: GPIO_EnableInt:u32IntAttribs <- $r2
	.save	{r4, r5, r7, lr}
	push	{r4, r5, r7, lr}
	.cfi_def_cfa_offset 16
	.cfi_offset lr, -4
	.cfi_offset r7, -8
	.cfi_offset r5, -12
	.cfi_offset r4, -16
.Ltmp9:
	.loc	1 83 75 prologue_end            @ ../../../Library/StdDriver/src/gpio.c:83:75
	lsrs	r3, r2, #24
	.loc	1 83 92 is_stmt 0               @ ../../../Library/StdDriver/src/gpio.c:83:92
	lsls	r3, r1
	movs	r4, #1
	.loc	1 83 44                         @ ../../../Library/StdDriver/src/gpio.c:83:44
	lsls	r4, r1
	.loc	1 83 28                         @ ../../../Library/StdDriver/src/gpio.c:83:28
	ldr	r5, [r0, #24]
	.loc	1 83 36                         @ ../../../Library/StdDriver/src/gpio.c:83:36
	bics	r5, r4
	.loc	1 83 56                         @ ../../../Library/StdDriver/src/gpio.c:83:56
	orrs	r5, r3
	.loc	1 83 19                         @ ../../../Library/StdDriver/src/gpio.c:83:19
	str	r5, [r0, #24]
	movs	r3, #255
	lsls	r3, r3, #24
	.loc	1 86 79 is_stmt 1               @ ../../../Library/StdDriver/src/gpio.c:86:79
	bics	r2, r3
.Ltmp10:
	@DEBUG_VALUE: GPIO_EnableInt:u32IntAttribs <- [DW_OP_LLVM_entry_value 1] $r2
	.loc	1 86 93 is_stmt 0               @ ../../../Library/StdDriver/src/gpio.c:86:93
	lsls	r2, r1
	ldr	r3, __arm_cp.1_0
	.loc	1 86 49                         @ ../../../Library/StdDriver/src/gpio.c:86:49
	lsls	r3, r1
	.loc	1 86 26                         @ ../../../Library/StdDriver/src/gpio.c:86:26
	ldr	r1, [r0, #28]
.Ltmp11:
	@DEBUG_VALUE: GPIO_EnableInt:u32Pin <- [DW_OP_LLVM_entry_value 1] $r1
	.loc	1 86 32                         @ ../../../Library/StdDriver/src/gpio.c:86:32
	bics	r1, r3
	.loc	1 86 61                         @ ../../../Library/StdDriver/src/gpio.c:86:61
	orrs	r1, r2
	.loc	1 86 17                         @ ../../../Library/StdDriver/src/gpio.c:86:17
	str	r1, [r0, #28]
	.loc	1 87 1 is_stmt 1                @ ../../../Library/StdDriver/src/gpio.c:87:1
	pop	{r4, r5, r7, pc}
.Ltmp12:
	.p2align	2
@ %bb.1:
	.loc	1 0 1 is_stmt 0                 @ ../../../Library/StdDriver/src/gpio.c:0:1
__arm_cp.1_0:
	.long	65537                           @ 0x10001
.Lcpi_end0:
	.size	__arm_cp.1_0, .Lcpi_end0-__arm_cp.1_0
.Lfunc_end1:
	.size	GPIO_EnableInt, .Lfunc_end1-GPIO_EnableInt
	.cfi_endproc
	.cantunwind
	.fnend
                                        @ -- End function
	.section	.text.GPIO_DisableInt,"ax",%progbits
	.hidden	GPIO_DisableInt                 @ -- Begin function GPIO_DisableInt
	.globl	GPIO_DisableInt
	.p2align	2
	.type	GPIO_DisableInt,%function
	.code	16                              @ @GPIO_DisableInt
	.thumb_func
GPIO_DisableInt:
.Lfunc_begin2:
	.loc	1 108 0 is_stmt 1               @ ../../../Library/StdDriver/src/gpio.c:108:0
	.fnstart
	.cfi_startproc
@ %bb.0:
	@DEBUG_VALUE: GPIO_DisableInt:port <- $r0
	@DEBUG_VALUE: GPIO_DisableInt:u32Pin <- $r1
	movs	r2, #1
	@DEBUG_VALUE: GPIO_DisableInt:u32Pin <- $r1
	@DEBUG_VALUE: GPIO_DisableInt:port <- $r0
.Ltmp13:
	.loc	1 110 28 prologue_end           @ ../../../Library/StdDriver/src/gpio.c:110:28
	lsls	r2, r1
	.loc	1 110 19 is_stmt 0              @ ../../../Library/StdDriver/src/gpio.c:110:19
	ldr	r3, [r0, #24]
	bics	r3, r2
	str	r3, [r0, #24]
	ldr	r2, __arm_cp.2_0
	.loc	1 113 37 is_stmt 1              @ ../../../Library/StdDriver/src/gpio.c:113:37
	lsls	r2, r1
	.loc	1 113 17 is_stmt 0              @ ../../../Library/StdDriver/src/gpio.c:113:17
	ldr	r1, [r0, #28]
.Ltmp14:
	@DEBUG_VALUE: GPIO_DisableInt:u32Pin <- [DW_OP_LLVM_entry_value 1] $r1
	bics	r1, r2
	str	r1, [r0, #28]
	.loc	1 114 1 is_stmt 1               @ ../../../Library/StdDriver/src/gpio.c:114:1
	bx	lr
.Ltmp15:
	.p2align	2
@ %bb.1:
	.loc	1 0 1 is_stmt 0                 @ ../../../Library/StdDriver/src/gpio.c:0:1
__arm_cp.2_0:
	.long	65537                           @ 0x10001
.Lcpi_end1:
	.size	__arm_cp.2_0, .Lcpi_end1-__arm_cp.2_0
.Lfunc_end2:
	.size	GPIO_DisableInt, .Lfunc_end2-GPIO_DisableInt
	.cfi_endproc
	.cantunwind
	.fnend
                                        @ -- End function
	.section	.text.GPIO_SetSlewCtl,"ax",%progbits
	.hidden	GPIO_SetSlewCtl                 @ -- Begin function GPIO_SetSlewCtl
	.globl	GPIO_SetSlewCtl
	.p2align	1
	.type	GPIO_SetSlewCtl,%function
	.code	16                              @ @GPIO_SetSlewCtl
	.thumb_func
GPIO_SetSlewCtl:
.Lfunc_begin3:
	.loc	1 138 0 is_stmt 1               @ ../../../Library/StdDriver/src/gpio.c:138:0
	.fnstart
	.cfi_startproc
@ %bb.0:
	@DEBUG_VALUE: GPIO_SetSlewCtl:port <- $r0
	@DEBUG_VALUE: GPIO_SetSlewCtl:u32PinMask <- $r1
	@DEBUG_VALUE: GPIO_SetSlewCtl:u32Mode <- $r2
	.save	{r4, r5, r6, r7, lr}
	push	{r4, r5, r6, r7, lr}
	.cfi_def_cfa_offset 20
	.cfi_offset lr, -4
	.cfi_offset r7, -8
	.cfi_offset r6, -12
	.cfi_offset r5, -16
	.cfi_offset r4, -20
	.pad	#4
	sub	sp, #4
	.cfi_def_cfa_offset 24
	str	r2, [sp]                        @ 4-byte Spill
.Ltmp16:
	@DEBUG_VALUE: GPIO_SetSlewCtl:u32Mode <- [$sp+0]
	@DEBUG_VALUE: GPIO_SetSlewCtl:u32PinMask <- $r1
	@DEBUG_VALUE: GPIO_SetSlewCtl:port <- $r0
	movs	r3, #0
.Ltmp17:
	@DEBUG_VALUE: GPIO_SetSlewCtl:u32Idx <- 0
	movs	r2, #3
	mov	r5, r3
	b	.LBB3_2
.Ltmp18:
.LBB3_1:                                @   in Loop: Header=BB3_2 Depth=1
	@DEBUG_VALUE: GPIO_SetSlewCtl:u32Idx <- $r5
	@DEBUG_VALUE: GPIO_SetSlewCtl:u32PinMask <- $r1
	@DEBUG_VALUE: GPIO_SetSlewCtl:port <- $r0
	@DEBUG_VALUE: GPIO_SetSlewCtl:u32Mode <- [$sp+0]
	.loc	1 141 30 prologue_end           @ ../../../Library/StdDriver/src/gpio.c:141:30
	adds	r3, r3, #2
	.loc	1 141 52 is_stmt 0              @ ../../../Library/StdDriver/src/gpio.c:141:52
	adds	r5, r5, #1
.Ltmp19:
	@DEBUG_VALUE: GPIO_SetSlewCtl:u32Idx <- $r5
	.loc	1 141 5                         @ ../../../Library/StdDriver/src/gpio.c:141:5
	cmp	r5, #16
	beq	.LBB3_4
.Ltmp20:
.LBB3_2:                                @ =>This Inner Loop Header: Depth=1
	@DEBUG_VALUE: GPIO_SetSlewCtl:u32PinMask <- $r1
	@DEBUG_VALUE: GPIO_SetSlewCtl:port <- $r0
	@DEBUG_VALUE: GPIO_SetSlewCtl:u32Mode <- [$sp+0]
	@DEBUG_VALUE: GPIO_SetSlewCtl:u32Idx <- $r5
	.loc	1 143 12 is_stmt 1              @ ../../../Library/StdDriver/src/gpio.c:143:12
	mov	r6, r1
	lsrs	r6, r5
	lsls	r6, r6, #31
	beq	.LBB3_1
.Ltmp21:
@ %bb.3:                                @   in Loop: Header=BB3_2 Depth=1
	@DEBUG_VALUE: GPIO_SetSlewCtl:u32Idx <- $r5
	@DEBUG_VALUE: GPIO_SetSlewCtl:u32PinMask <- $r1
	@DEBUG_VALUE: GPIO_SetSlewCtl:port <- $r0
	@DEBUG_VALUE: GPIO_SetSlewCtl:u32Mode <- [$sp+0]
	.loc	1 145 84                        @ ../../../Library/StdDriver/src/gpio.c:145:84
	ldr	r6, [sp]                        @ 4-byte Reload
	lsls	r6, r3
	.loc	1 145 54 is_stmt 0              @ ../../../Library/StdDriver/src/gpio.c:145:54
	mov	r7, r2
	lsls	r7, r3
	.loc	1 145 36                        @ ../../../Library/StdDriver/src/gpio.c:145:36
	ldr	r4, [r0, #40]
	.loc	1 145 44                        @ ../../../Library/StdDriver/src/gpio.c:145:44
	bics	r4, r7
	.loc	1 145 73                        @ ../../../Library/StdDriver/src/gpio.c:145:73
	orrs	r4, r6
	.loc	1 145 27                        @ ../../../Library/StdDriver/src/gpio.c:145:27
	str	r4, [r0, #40]
	b	.LBB3_1
.Ltmp22:
.LBB3_4:
	@DEBUG_VALUE: GPIO_SetSlewCtl:u32Idx <- $r5
	@DEBUG_VALUE: GPIO_SetSlewCtl:u32PinMask <- $r1
	@DEBUG_VALUE: GPIO_SetSlewCtl:port <- $r0
	@DEBUG_VALUE: GPIO_SetSlewCtl:u32Mode <- [$sp+0]
	.loc	1 148 1 is_stmt 1               @ ../../../Library/StdDriver/src/gpio.c:148:1
	add	sp, #4
.Ltmp23:
	pop	{r4, r5, r6, r7, pc}
.Ltmp24:
.Lfunc_end3:
	.size	GPIO_SetSlewCtl, .Lfunc_end3-GPIO_SetSlewCtl
	.cfi_endproc
	.cantunwind
	.fnend
                                        @ -- End function
	.section	.text.GPIO_SetPullCtl,"ax",%progbits
	.hidden	GPIO_SetPullCtl                 @ -- Begin function GPIO_SetPullCtl
	.globl	GPIO_SetPullCtl
	.p2align	1
	.type	GPIO_SetPullCtl,%function
	.code	16                              @ @GPIO_SetPullCtl
	.thumb_func
GPIO_SetPullCtl:
.Lfunc_begin4:
	.loc	1 172 0                         @ ../../../Library/StdDriver/src/gpio.c:172:0
	.fnstart
	.cfi_startproc
@ %bb.0:
	@DEBUG_VALUE: GPIO_SetPullCtl:port <- $r0
	@DEBUG_VALUE: GPIO_SetPullCtl:u32PinMask <- $r1
	@DEBUG_VALUE: GPIO_SetPullCtl:u32Mode <- $r2
	.save	{r4, r5, r6, r7, lr}
	push	{r4, r5, r6, r7, lr}
	.cfi_def_cfa_offset 20
	.cfi_offset lr, -4
	.cfi_offset r7, -8
	.cfi_offset r6, -12
	.cfi_offset r5, -16
	.cfi_offset r4, -20
	.pad	#4
	sub	sp, #4
	.cfi_def_cfa_offset 24
	str	r2, [sp]                        @ 4-byte Spill
.Ltmp25:
	@DEBUG_VALUE: GPIO_SetPullCtl:u32Mode <- [$sp+0]
	@DEBUG_VALUE: GPIO_SetPullCtl:u32PinMask <- $r1
	@DEBUG_VALUE: GPIO_SetPullCtl:port <- $r0
	movs	r3, #0
.Ltmp26:
	@DEBUG_VALUE: GPIO_SetPullCtl:u32Idx <- 0
	movs	r2, #3
	mov	r5, r3
	b	.LBB4_2
.Ltmp27:
.LBB4_1:                                @   in Loop: Header=BB4_2 Depth=1
	@DEBUG_VALUE: GPIO_SetPullCtl:u32Idx <- $r5
	@DEBUG_VALUE: GPIO_SetPullCtl:u32PinMask <- $r1
	@DEBUG_VALUE: GPIO_SetPullCtl:port <- $r0
	@DEBUG_VALUE: GPIO_SetPullCtl:u32Mode <- [$sp+0]
	.loc	1 175 30 prologue_end           @ ../../../Library/StdDriver/src/gpio.c:175:30
	adds	r3, r3, #2
	.loc	1 175 52 is_stmt 0              @ ../../../Library/StdDriver/src/gpio.c:175:52
	adds	r5, r5, #1
.Ltmp28:
	@DEBUG_VALUE: GPIO_SetPullCtl:u32Idx <- $r5
	.loc	1 175 5                         @ ../../../Library/StdDriver/src/gpio.c:175:5
	cmp	r5, #16
	beq	.LBB4_4
.Ltmp29:
.LBB4_2:                                @ =>This Inner Loop Header: Depth=1
	@DEBUG_VALUE: GPIO_SetPullCtl:u32PinMask <- $r1
	@DEBUG_VALUE: GPIO_SetPullCtl:port <- $r0
	@DEBUG_VALUE: GPIO_SetPullCtl:u32Mode <- [$sp+0]
	@DEBUG_VALUE: GPIO_SetPullCtl:u32Idx <- $r5
	.loc	1 177 12 is_stmt 1              @ ../../../Library/StdDriver/src/gpio.c:177:12
	mov	r6, r1
	lsrs	r6, r5
	lsls	r6, r6, #31
	beq	.LBB4_1
.Ltmp30:
@ %bb.3:                                @   in Loop: Header=BB4_2 Depth=1
	@DEBUG_VALUE: GPIO_SetPullCtl:u32Idx <- $r5
	@DEBUG_VALUE: GPIO_SetPullCtl:u32PinMask <- $r1
	@DEBUG_VALUE: GPIO_SetPullCtl:port <- $r0
	@DEBUG_VALUE: GPIO_SetPullCtl:u32Mode <- [$sp+0]
	.loc	1 179 80                        @ ../../../Library/StdDriver/src/gpio.c:179:80
	ldr	r6, [sp]                        @ 4-byte Reload
	lsls	r6, r3
	.loc	1 179 50 is_stmt 0              @ ../../../Library/StdDriver/src/gpio.c:179:50
	mov	r7, r2
	lsls	r7, r3
	.loc	1 179 34                        @ ../../../Library/StdDriver/src/gpio.c:179:34
	ldr	r4, [r0, #48]
	.loc	1 179 40                        @ ../../../Library/StdDriver/src/gpio.c:179:40
	bics	r4, r7
	.loc	1 179 69                        @ ../../../Library/StdDriver/src/gpio.c:179:69
	orrs	r4, r6
	.loc	1 179 25                        @ ../../../Library/StdDriver/src/gpio.c:179:25
	str	r4, [r0, #48]
	b	.LBB4_1
.Ltmp31:
.LBB4_4:
	@DEBUG_VALUE: GPIO_SetPullCtl:u32Idx <- $r5
	@DEBUG_VALUE: GPIO_SetPullCtl:u32PinMask <- $r1
	@DEBUG_VALUE: GPIO_SetPullCtl:port <- $r0
	@DEBUG_VALUE: GPIO_SetPullCtl:u32Mode <- [$sp+0]
	.loc	1 182 1 is_stmt 1               @ ../../../Library/StdDriver/src/gpio.c:182:1
	add	sp, #4
.Ltmp32:
	pop	{r4, r5, r6, r7, pc}
.Ltmp33:
.Lfunc_end4:
	.size	GPIO_SetPullCtl, .Lfunc_end4-GPIO_SetPullCtl
	.cfi_endproc
	.cantunwind
	.fnend
                                        @ -- End function
	.file	2 "C:\\" "Keil_v5\\ARM\\ARMCLANG\\Bin\\..\\include\\stdint.h"
	.file	3 "C:\\Users\\shw26\\OneDrive\\Desktop\\2021\\2021-1\\\354\272\241\354\212\244\355\206\244\353\224\224\354\236\220\354\235\2702\\Nuvoton\\M2351_BSP_v3.00.004\\M2351Series_BSP_CMSIS_V3.00.004\\MyProject\\PulseMonitoring\\Secure" "../../../Library/Device/Nuvoton/M2351/Include/gpio_reg.h"
	.section	".note.GNU-stack","",%progbits
	.eabi_attribute	30, 1	@ Tag_ABI_optimization_goals
	.ARM_attribute	16, 1	@ Tag_AV_eba