	.text
	.syntax unified
	.eabi_attribute	67, "2.09"	@ Tag_conformance
	.cpu	cortex-m23
	.eabi_attribute	6, 16	@ Tag_CPU_arch
	.eabi_attribute	7, 77	@ Tag_CPU_arch_profile
	.eabi_attribute	8, 0	@ Tag_ARM_ISA_use
	.eabi_attribute	9, 3	@ Tag_THUMB_ISA_use
	.eabi_attribute	34, 0	@ Tag_CPU_unaligned_access
	.eabi_attribute	17, 1	@ Tag_ABI_PCS_GOT_use
	.eabi_attribute	20, 2	@ Tag_ABI_FP_denormal
	.eabi_attribute	21, 0	@ Tag_ABI_FP_exceptions
	.eabi_attribute	23, 1	@ Tag_ABI_FP_number_model
	.eabi_attribute	24, 1	@ Tag_ABI_align_needed
	.eabi_attribute	25, 1	@ Tag_ABI_align_preserved
	.eabi_attribute	38, 1	@ Tag_ABI_FP_16bit_format
	.eabi_attribute	18, 2	@ Tag_ABI_PCS_wchar_t
	.eabi_attribute	26, 1	@ Tag_ABI_enum_size
	.eabi_attribute	14, 0	@ Tag_ABI_PCS_R9_use
	.file	"hmac_drbg.c"
	.file	1 "C:\\" "Keil_v5\\ARM\\ARMCLANG\\Bin\\..\\include\\stddef.h"
	.file	2 "C:\\Users\\shw26\\OneDrive\\Desktop\\2021\\2021-1\\\354\272\241\354\212\244\355\206\244\353\224\224\354\236\220\354\235\2702\\Nuvoton\\M2351_BSP_v3.00.004\\M2351Series_BSP_CMSIS_V3.00.004\\MyProject\\PulseMonitoring\\Secure" "../../../ThirdParty/mbedTLS/library/hmac_drbg.c"
	.file	3 "C:\\Users\\shw26\\OneDrive\\Desktop\\2021\\2021-1\\\354\272\241\354\212\244\355\206\244\353\224\224\354\236\220\354\235\2702\\Nuvoton\\M2351_BSP_v3.00.004\\M2351Series_BSP_CMSIS_V3.00.004\\MyProject\\PulseMonitoring\\Secure" "../../../ThirdParty/mbedTLS/include/mbedtls/md.h"
	.file	4 "C:\\Users\\shw26\\OneDrive\\Desktop\\2021\\2021-1\\\354\272\241\354\212\244\355\206\244\353\224\224\354\236\220\354\235\2702\\Nuvoton\\M2351_BSP_v3.00.004\\M2351Series_BSP_CMSIS_V3.00.004\\MyProject\\PulseMonitoring\\Secure" "../../../ThirdParty/mbedTLS/include/mbedtls\\hmac_drbg.h"
	.section	.text.mbedtls_hmac_drbg_init,"ax",%progbits
	.hidden	mbedtls_hmac_drbg_init          @ -- Begin function mbedtls_hmac_drbg_init
	.globl	mbedtls_hmac_drbg_init
	.p2align	1
	.type	mbedtls_hmac_drbg_init,%function
	.code	16                              @ @mbedtls_hmac_drbg_init
	.thumb_func
mbedtls_hmac_drbg_init:
.Lfunc_begin0:
	.loc	2 58 0                          @ ../../../ThirdParty/mbedTLS/library/hmac_drbg.c:58:0
	.fnstart
	.cfi_sections .debug_frame
	.cfi_startproc
@ %bb.0:
	@DEBUG_VALUE: mbedtls_hmac_drbg_init:ctx <- $r0
	@DEBUG_VALUE: mbedtls_hmac_drbg_init:ctx <- $r0
	.save	{r7, lr}
	push	{r7, lr}
	.cfi_def_cfa_offset 8
	.cfi_offset lr, -4
	.cfi_offset r7, -8
	movs	r1, #100
	@DEBUG_VALUE: mbedtls_hmac_drbg_init:ctx <- $r0
.Ltmp0:
	.loc	2 59 5 prologue_end             @ ../../../ThirdParty/mbedTLS/library/hmac_drbg.c:59:5
	bl	__aeabi_memclr4
.Ltmp1:
	@DEBUG_VALUE: mbedtls_hmac_drbg_init:ctx <- [DW_OP_LLVM_entry_value 1] $r0
	.loc	2 64 1                          @ ../../../ThirdParty/mbedTLS/library/hmac_drbg.c:64:1
	pop	{r7, pc}
.Ltmp2:
.Lfunc_end0:
	.size	mbedtls_hmac_drbg_init, .Lfunc_end0-mbedtls_hmac_drbg_init
	.cfi_endproc
	.cantunwind
	.fnend
                                        @ -- End function
	.section	.text.mbedtls_hmac_drbg_update_ret,"ax",%progbits
	.hidden	mbedtls_hmac_drbg_update_ret    @ -- Begin function mbedtls_hmac_drbg_update_ret
	.globl	mbedtls_hmac_drbg_update_ret
	.p2align	1
	.type	mbedtls_hmac_drbg_update_ret,%function
	.code	16                              @ @mbedtls_hmac_drbg_update_ret
	.thumb_func
mbedtls_hmac_drbg_update_ret:
.Lfunc_begin1:
	.loc	2 72 0                          @ ../../../ThirdParty/mbedTLS/library/hmac_drbg.c:72:0
	.fnstart
	.cfi_startproc
@ %bb.0:
	@DEBUG_VALUE: mbedtls_hmac_drbg_update_ret:ctx <- $r0
	@DEBUG_VALUE: mbedtls_hmac_drbg_update_ret:additional <- $r1
	@DEBUG_VALUE: mbedtls_hmac_drbg_update_ret:add_len <- $r2
	.save	{r4, r5, r6, r7, lr}
	push	{r4, r5, r6, r7, lr}
	.cfi_def_cfa_offset 20
	.cfi_offset lr, -4
	.cfi_offset r7, -8
	.cfi_offset r6, -12
	.cfi_offset r5, -16
	.cfi_offset r4, -20
	.pad	#92
	sub	sp, #92
	.cfi_def_cfa_offset 112
	mov	r4, r2
	mov	r5, r1
	mov	r6, r0
.Ltmp3:
	@DEBUG_VALUE: mbedtls_hmac_drbg_update_ret:add_len <- $r4
	@DEBUG_VALUE: mbedtls_hmac_drbg_update_ret:additional <- $r5
	@DEBUG_VALUE: mbedtls_hmac_drbg_update_ret:ctx <- $r6
	.loc	2 73 54 prologue_end            @ ../../../ThirdParty/mbedTLS/library/hmac_drbg.c:73:54
	ldr	r0, [r0]
	.loc	2 73 21 is_stmt 0               @ ../../../ThirdParty/mbedTLS/library/hmac_drbg.c:73:21
	bl	mbedtls_md_get_size
	mov	r7, r0
.Ltmp4:
	@DEBUG_VALUE: mbedtls_hmac_drbg_update_ret:rounds <- undef
	@DEBUG_VALUE: mbedtls_hmac_drbg_update_ret:md_len <- $r7
	.loc	2 0 21                          @ ../../../ThirdParty/mbedTLS/library/hmac_drbg.c:0:21
	add	r0, sp, #88
	movs	r2, #0
.Ltmp5:
	strb	r2, [r0]
.Ltmp6:
	.loc	2 74 49 is_stmt 1               @ ../../../ThirdParty/mbedTLS/library/hmac_drbg.c:74:49
	subs	r0, r4, #1
	str	r4, [sp, #8]                    @ 4-byte Spill
.Ltmp7:
	@DEBUG_VALUE: mbedtls_hmac_drbg_update_ret:add_len <- [DW_OP_plus_uconst 8] [$sp+0]
	sbcs	r4, r0
	.loc	2 74 41 is_stmt 0               @ ../../../ThirdParty/mbedTLS/library/hmac_drbg.c:74:41
	subs	r0, r5, #1
	str	r5, [sp, #4]                    @ 4-byte Spill
.Ltmp8:
	@DEBUG_VALUE: mbedtls_hmac_drbg_update_ret:additional <- [DW_OP_plus_uconst 4] [$sp+0]
	sbcs	r5, r0
	.loc	2 74 49                         @ ../../../ThirdParty/mbedTLS/library/hmac_drbg.c:74:49
	ands	r5, r4
.Ltmp9:
	@DEBUG_VALUE: mbedtls_hmac_drbg_update_ret:ret <- 0
	.loc	2 0 49                          @ ../../../ThirdParty/mbedTLS/library/hmac_drbg.c:0:49
	str	r5, [sp, #16]                   @ 4-byte Spill
.Ltmp10:
	.loc	2 79 31 is_stmt 1               @ ../../../ThirdParty/mbedTLS/library/hmac_drbg.c:79:31
	str	r2, [sp]                        @ 4-byte Spill
	bne	.LBB1_2
.Ltmp11:
@ %bb.1:
	@DEBUG_VALUE: mbedtls_hmac_drbg_update_ret:md_len <- $r7
	@DEBUG_VALUE: mbedtls_hmac_drbg_update_ret:ctx <- $r6
	@DEBUG_VALUE: mbedtls_hmac_drbg_update_ret:additional <- [DW_OP_plus_uconst 4] [$sp+0]
	@DEBUG_VALUE: mbedtls_hmac_drbg_update_ret:add_len <- [DW_OP_plus_uconst 8] [$sp+0]
	@DEBUG_VALUE: mbedtls_hmac_drbg_update_ret:ret <- 0
	.loc	2 0 31 is_stmt 0                @ ../../../ThirdParty/mbedTLS/library/hmac_drbg.c:0:31
	movs	r0, #1
	b	.LBB1_3
.Ltmp12:
.LBB1_2:
	@DEBUG_VALUE: mbedtls_hmac_drbg_update_ret:md_len <- $r7
	@DEBUG_VALUE: mbedtls_hmac_drbg_update_ret:ctx <- $r6
	@DEBUG_VALUE: mbedtls_hmac_drbg_update_ret:additional <- [DW_OP_plus_uconst 4] [$sp+0]
	@DEBUG_VALUE: mbedtls_hmac_drbg_update_ret:add_len <- [DW_OP_plus_uconst 8] [$sp+0]
	@DEBUG_VALUE: mbedtls_hmac_drbg_update_ret:ret <- 0
	movs	r0, #2
.Ltmp13:
.LBB1_3:
	@DEBUG_VALUE: mbedtls_hmac_drbg_update_ret:md_len <- $r7
	@DEBUG_VALUE: mbedtls_hmac_drbg_update_ret:ctx <- $r6
	@DEBUG_VALUE: mbedtls_hmac_drbg_update_ret:additional <- [DW_OP_plus_uconst 4] [$sp+0]
	@DEBUG_VALUE: mbedtls_hmac_drbg_update_ret:add_len <- [DW_OP_plus_uconst 8] [$sp+0]
	@DEBUG_VALUE: mbedtls_hmac_drbg_update_ret:ret <- 0
	str	r0, [sp, #12]                   @ 4-byte Spill
.Ltmp14:
	.loc	2 85 45 is_stmt 1               @ ../../../ThirdParty/mbedTLS/library/hmac_drbg.c:85:45
	mov	r4, r6
	adds	r4, #12
	movs	r0, #1
	str	r0, [sp, #20]                   @ 4-byte Spill
.Ltmp15:
.LBB1_4:                                @ =>This Inner Loop Header: Depth=1
	@DEBUG_VALUE: mbedtls_hmac_drbg_update_ret:md_len <- $r7
	@DEBUG_VALUE: mbedtls_hmac_drbg_update_ret:ctx <- $r6
	@DEBUG_VALUE: mbedtls_hmac_drbg_update_ret:additional <- [DW_OP_plus_uconst 4] [$sp+0]
	@DEBUG_VALUE: mbedtls_hmac_drbg_update_ret:add_len <- [DW_OP_plus_uconst 8] [$sp+0]
	@DEBUG_VALUE: mbedtls_hmac_drbg_update_ret:ret <- 0
	.loc	2 82 21                         @ ../../../ThirdParty/mbedTLS/library/hmac_drbg.c:82:21
	mov	r0, r6
	bl	mbedtls_md_hmac_reset
.Ltmp16:
	@DEBUG_VALUE: mbedtls_hmac_drbg_update_ret:ret <- $r0
	.loc	2 82 13 is_stmt 0               @ ../../../ThirdParty/mbedTLS/library/hmac_drbg.c:82:13
	cbnz	r0, .LBB1_15
.Ltmp17:
@ %bb.5:                                @   in Loop: Header=BB1_4 Depth=1
	@DEBUG_VALUE: mbedtls_hmac_drbg_update_ret:md_len <- $r7
	@DEBUG_VALUE: mbedtls_hmac_drbg_update_ret:ctx <- $r6
	@DEBUG_VALUE: mbedtls_hmac_drbg_update_ret:ret <- $r0
	@DEBUG_VALUE: mbedtls_hmac_drbg_update_ret:additional <- [DW_OP_plus_uconst 4] [$sp+0]
	@DEBUG_VALUE: mbedtls_hmac_drbg_update_ret:add_len <- [DW_OP_plus_uconst 8] [$sp+0]
	.loc	2 84 21 is_stmt 1               @ ../../../ThirdParty/mbedTLS/library/hmac_drbg.c:84:21
	mov	r0, r6
.Ltmp18:
	mov	r1, r4
	mov	r2, r7
	bl	mbedtls_md_hmac_update
.Ltmp19:
	@DEBUG_VALUE: mbedtls_hmac_drbg_update_ret:ret <- $r0
	.loc	2 84 13 is_stmt 0               @ ../../../ThirdParty/mbedTLS/library/hmac_drbg.c:84:13
	cbnz	r0, .LBB1_16
.Ltmp20:
@ %bb.6:                                @   in Loop: Header=BB1_4 Depth=1
	@DEBUG_VALUE: mbedtls_hmac_drbg_update_ret:md_len <- $r7
	@DEBUG_VALUE: mbedtls_hmac_drbg_update_ret:ctx <- $r6
	@DEBUG_VALUE: mbedtls_hmac_drbg_update_ret:ret <- $r0
	@DEBUG_VALUE: mbedtls_hmac_drbg_update_ret:additional <- [DW_OP_plus_uconst 4] [$sp+0]
	@DEBUG_VALUE: mbedtls_hmac_drbg_update_ret:add_len <- [DW_OP_plus_uconst 8] [$sp+0]
	.loc	2 0 13                          @ ../../../ThirdParty/mbedTLS/library/hmac_drbg.c:0:13
	add	r1, sp, #88
.Ltmp21:
	.loc	2 87 21 is_stmt 1               @ ../../../ThirdParty/mbedTLS/library/hmac_drbg.c:87:21
	mov	r0, r6
.Ltmp22:
	ldr	r2, [sp, #20]                   @ 4-byte Reload
	bl	mbedtls_md_hmac_update
.Ltmp23:
	@DEBUG_VALUE: mbedtls_hmac_drbg_update_ret:ret <- $r0
	.loc	2 87 13 is_stmt 0               @ ../../../ThirdParty/mbedTLS/library/hmac_drbg.c:87:13
	cbnz	r0, .LBB1_17
.Ltmp24:
@ %bb.7:                                @   in Loop: Header=BB1_4 Depth=1
	@DEBUG_VALUE: mbedtls_hmac_drbg_update_ret:md_len <- $r7
	@DEBUG_VALUE: mbedtls_hmac_drbg_update_ret:ctx <- $r6
	@DEBUG_VALUE: mbedtls_hmac_drbg_update_ret:ret <- $r0
	@DEBUG_VALUE: mbedtls_hmac_drbg_update_ret:additional <- [DW_OP_plus_uconst 4] [$sp+0]
	@DEBUG_VALUE: mbedtls_hmac_drbg_update_ret:add_len <- [DW_OP_plus_uconst 8] [$sp+0]
	.loc	2 90 13 is_stmt 1               @ ../../../ThirdParty/mbedTLS/library/hmac_drbg.c:90:13
	ldr	r0, [sp, #16]                   @ 4-byte Reload
.Ltmp25:
	cbz	r0, .LBB1_9
.Ltmp26:
@ %bb.8:                                @   in Loop: Header=BB1_4 Depth=1
	@DEBUG_VALUE: mbedtls_hmac_drbg_update_ret:md_len <- $r7
	@DEBUG_VALUE: mbedtls_hmac_drbg_update_ret:ctx <- $r6
	@DEBUG_VALUE: mbedtls_hmac_drbg_update_ret:additional <- [DW_OP_plus_uconst 4] [$sp+0]
	@DEBUG_VALUE: mbedtls_hmac_drbg_update_ret:add_len <- [DW_OP_plus_uconst 8] [$sp+0]
	.loc	2 92 25                         @ ../../../ThirdParty/mbedTLS/library/hmac_drbg.c:92:25
	mov	r0, r6
	ldr	r1, [sp, #4]                    @ 4-byte Reload
	ldr	r2, [sp, #8]                    @ 4-byte Reload
	bl	mbedtls_md_hmac_update
.Ltmp27:
	@DEBUG_VALUE: mbedtls_hmac_drbg_update_ret:ret <- $r0
	.loc	2 92 17 is_stmt 0               @ ../../../ThirdParty/mbedTLS/library/hmac_drbg.c:92:17
	cbnz	r0, .LBB1_22
.Ltmp28:
.LBB1_9:                                @   in Loop: Header=BB1_4 Depth=1
	@DEBUG_VALUE: mbedtls_hmac_drbg_update_ret:md_len <- $r7
	@DEBUG_VALUE: mbedtls_hmac_drbg_update_ret:ctx <- $r6
	@DEBUG_VALUE: mbedtls_hmac_drbg_update_ret:additional <- [DW_OP_plus_uconst 4] [$sp+0]
	@DEBUG_VALUE: mbedtls_hmac_drbg_update_ret:add_len <- [DW_OP_plus_uconst 8] [$sp+0]
	.loc	2 0 17                          @ ../../../ThirdParty/mbedTLS/library/hmac_drbg.c:0:17
	add	r1, sp, #24
.Ltmp29:
	.loc	2 96 21 is_stmt 1               @ ../../../ThirdParty/mbedTLS/library/hmac_drbg.c:96:21
	mov	r0, r6
	bl	mbedtls_md_hmac_finish
.Ltmp30:
	@DEBUG_VALUE: mbedtls_hmac_drbg_update_ret:ret <- $r0
	.loc	2 96 13 is_stmt 0               @ ../../../ThirdParty/mbedTLS/library/hmac_drbg.c:96:13
	cbnz	r0, .LBB1_18
.Ltmp31:
@ %bb.10:                               @   in Loop: Header=BB1_4 Depth=1
	@DEBUG_VALUE: mbedtls_hmac_drbg_update_ret:md_len <- $r7
	@DEBUG_VALUE: mbedtls_hmac_drbg_update_ret:ctx <- $r6
	@DEBUG_VALUE: mbedtls_hmac_drbg_update_ret:ret <- $r0
	@DEBUG_VALUE: mbedtls_hmac_drbg_update_ret:additional <- [DW_OP_plus_uconst 4] [$sp+0]
	@DEBUG_VALUE: mbedtls_hmac_drbg_update_ret:add_len <- [DW_OP_plus_uconst 8] [$sp+0]
	.loc	2 0 13                          @ ../../../ThirdParty/mbedTLS/library/hmac_drbg.c:0:13
	add	r1, sp, #24
.Ltmp32:
	.loc	2 100 21 is_stmt 1              @ ../../../ThirdParty/mbedTLS/library/hmac_drbg.c:100:21
	mov	r0, r6
.Ltmp33:
	mov	r2, r7
	bl	mbedtls_md_hmac_starts
.Ltmp34:
	@DEBUG_VALUE: mbedtls_hmac_drbg_update_ret:ret <- $r0
	.loc	2 100 13 is_stmt 0              @ ../../../ThirdParty/mbedTLS/library/hmac_drbg.c:100:13
	cbnz	r0, .LBB1_19
.Ltmp35:
@ %bb.11:                               @   in Loop: Header=BB1_4 Depth=1
	@DEBUG_VALUE: mbedtls_hmac_drbg_update_ret:md_len <- $r7
	@DEBUG_VALUE: mbedtls_hmac_drbg_update_ret:ctx <- $r6
	@DEBUG_VALUE: mbedtls_hmac_drbg_update_ret:ret <- $r0
	@DEBUG_VALUE: mbedtls_hmac_drbg_update_ret:additional <- [DW_OP_plus_uconst 4] [$sp+0]
	@DEBUG_VALUE: mbedtls_hmac_drbg_update_ret:add_len <- [DW_OP_plus_uconst 8] [$sp+0]
	.loc	2 102 21 is_stmt 1              @ ../../../ThirdParty/mbedTLS/library/hmac_drbg.c:102:21
	mov	r0, r6
.Ltmp36:
	mov	r1, r4
	mov	r2, r7
	bl	mbedtls_md_hmac_update
.Ltmp37:
	@DEBUG_VALUE: mbedtls_hmac_drbg_update_ret:ret <- $r0
	.loc	2 102 13 is_stmt 0              @ ../../../ThirdParty/mbedTLS/library/hmac_drbg.c:102:13
	cbnz	r0, .LBB1_20
.Ltmp38:
@ %bb.12:                               @   in Loop: Header=BB1_4 Depth=1
	@DEBUG_VALUE: mbedtls_hmac_drbg_update_ret:md_len <- $r7
	@DEBUG_VALUE: mbedtls_hmac_drbg_update_ret:ctx <- $r6
	@DEBUG_VALUE: mbedtls_hmac_drbg_update_ret:ret <- $r0
	@DEBUG_VALUE: mbedtls_hmac_drbg_update_ret:additional <- [DW_OP_plus_uconst 4] [$sp+0]
	@DEBUG_VALUE: mbedtls_hmac_drbg_update_ret:add_len <- [DW_OP_plus_uconst 8] [$sp+0]
	.loc	2 105 21 is_stmt 1              @ ../../../ThirdParty/mbedTLS/library/hmac_drbg.c:105:21
	mov	r0, r6
.Ltmp39:
	mov	r1, r4
	bl	mbedtls_md_hmac_finish
.Ltmp40:
	@DEBUG_VALUE: mbedtls_hmac_drbg_update_ret:ret <- $r0
	.loc	2 105 13 is_stmt 0              @ ../../../ThirdParty/mbedTLS/library/hmac_drbg.c:105:13
	cbnz	r0, .LBB1_21
.Ltmp41:
@ %bb.13:                               @   in Loop: Header=BB1_4 Depth=1
	@DEBUG_VALUE: mbedtls_hmac_drbg_update_ret:md_len <- $r7
	@DEBUG_VALUE: mbedtls_hmac_drbg_update_ret:ctx <- $r6
	@DEBUG_VALUE: mbedtls_hmac_drbg_update_ret:ret <- $r0
	@DEBUG_VALUE: mbedtls_hmac_drbg_update_ret:additional <- [DW_OP_plus_uconst 4] [$sp+0]
	@DEBUG_VALUE: mbedtls_hmac_drbg_update_ret:add_len <- [DW_OP_plus_uconst 8] [$sp+0]
	.loc	2 79 45 is_stmt 1               @ ../../../ThirdParty/mbedTLS/library/hmac_drbg.c:79:45
	ldr	r0, [sp, #88]
.Ltmp42:
	adds	r0, r0, #1
	add	r1, sp, #88
.Ltmp43:
	.loc	2 0 0 is_stmt 0                 @ ../../../ThirdParty/mbedTLS/library/hmac_drbg.c:0:0
	strb	r0, [r1]
.Ltmp44:
	@DEBUG_VALUE: mbedtls_hmac_drbg_update_ret:ret <- 0
	.loc	2 79 22                         @ ../../../ThirdParty/mbedTLS/library/hmac_drbg.c:79:22
	uxtb	r0, r0
.Ltmp45:
	.loc	2 79 5                          @ ../../../ThirdParty/mbedTLS/library/hmac_drbg.c:79:5
	ldr	r1, [sp, #12]                   @ 4-byte Reload
	cmp	r1, r0
	bhi	.LBB1_4
.Ltmp46:
@ %bb.14:
	@DEBUG_VALUE: mbedtls_hmac_drbg_update_ret:md_len <- $r7
	@DEBUG_VALUE: mbedtls_hmac_drbg_update_ret:ctx <- $r6
	@DEBUG_VALUE: mbedtls_hmac_drbg_update_ret:additional <- [DW_OP_plus_uconst 4] [$sp+0]
	@DEBUG_VALUE: mbedtls_hmac_drbg_update_ret:add_len <- [DW_OP_plus_uconst 8] [$sp+0]
	@DEBUG_VALUE: mbedtls_hmac_drbg_update_ret:ret <- 0
	.loc	2 0 5                           @ ../../../ThirdParty/mbedTLS/library/hmac_drbg.c:0:5
	ldr	r5, [sp]                        @ 4-byte Reload
	b	.LBB1_23
.Ltmp47:
.LBB1_15:
	@DEBUG_VALUE: mbedtls_hmac_drbg_update_ret:md_len <- $r7
	@DEBUG_VALUE: mbedtls_hmac_drbg_update_ret:ctx <- $r6
	@DEBUG_VALUE: mbedtls_hmac_drbg_update_ret:ret <- $r0
	@DEBUG_VALUE: mbedtls_hmac_drbg_update_ret:additional <- [DW_OP_plus_uconst 4] [$sp+0]
	@DEBUG_VALUE: mbedtls_hmac_drbg_update_ret:add_len <- [DW_OP_plus_uconst 8] [$sp+0]
	mov	r5, r0
.Ltmp48:
	@DEBUG_VALUE: mbedtls_hmac_drbg_update_ret:ret <- $r5
	b	.LBB1_23
.Ltmp49:
.LBB1_16:
	@DEBUG_VALUE: mbedtls_hmac_drbg_update_ret:md_len <- $r7
	@DEBUG_VALUE: mbedtls_hmac_drbg_update_ret:ctx <- $r6
	@DEBUG_VALUE: mbedtls_hmac_drbg_update_ret:ret <- $r0
	@DEBUG_VALUE: mbedtls_hmac_drbg_update_ret:additional <- [DW_OP_plus_uconst 4] [$sp+0]
	@DEBUG_VALUE: mbedtls_hmac_drbg_update_ret:add_len <- [DW_OP_plus_uconst 8] [$sp+0]
	mov	r5, r0
.Ltmp50:
	@DEBUG_VALUE: mbedtls_hmac_drbg_update_ret:ret <- $r5
	b	.LBB1_23
.Ltmp51:
.LBB1_17:
	@DEBUG_VALUE: mbedtls_hmac_drbg_update_ret:md_len <- $r7
	@DEBUG_VALUE: mbedtls_hmac_drbg_update_ret:ctx <- $r6
	@DEBUG_VALUE: mbedtls_hmac_drbg_update_ret:ret <- $r0
	@DEBUG_VALUE: mbedtls_hmac_drbg_update_ret:additional <- [DW_OP_plus_uconst 4] [$sp+0]
	@DEBUG_VALUE: mbedtls_hmac_drbg_update_ret:add_len <- [DW_OP_plus_uconst 8] [$sp+0]
	mov	r5, r0
.Ltmp52:
	@DEBUG_VALUE: mbedtls_hmac_drbg_update_ret:ret <- $r5
	b	.LBB1_23
.Ltmp53:
.LBB1_18:
	@DEBUG_VALUE: mbedtls_hmac_drbg_update_ret:md_len <- $r7
	@DEBUG_VALUE: mbedtls_hmac_drbg_update_ret:ctx <- $r6
	@DEBUG_VALUE: mbedtls_hmac_drbg_update_ret:ret <- $r0
	@DEBUG_VALUE: mbedtls_hmac_drbg_update_ret:additional <- [DW_OP_plus_uconst 4] [$sp+0]
	@DEBUG_VALUE: mbedtls_hmac_drbg_update_ret:add_len <- [DW_OP_plus_uconst 8] [$sp+0]
	mov	r5, r0
.Ltmp54:
	@DEBUG_VALUE: mbedtls_hmac_drbg_update_ret:ret <- $r5
	b	.LBB1_23
.Ltmp55:
.LBB1_19:
	@DEBUG_VALUE: mbedtls_hmac_drbg_update_ret:md_len <- $r7
	@DEBUG_VALUE: mbedtls_hmac_drbg_update_ret:ctx <- $r6
	@DEBUG_VALUE: mbedtls_hmac_drbg_update_ret:ret <- $r0
	@DEBUG_VALUE: mbedtls_hmac_drbg_update_ret:additional <- [DW_OP_plus_uconst 4] [$sp+0]
	@DEBUG_VALUE: mbedtls_hmac_drbg_update_ret:add_len <- [DW_OP_plus_uconst 8] [$sp+0]
	mov	r5, r0
.Ltmp56:
	@DEBUG_VALUE: mbedtls_hmac_drbg_update_ret:ret <- $r5
	b	.LBB1_23
.Ltmp57:
.LBB1_20:
	@DEBUG_VALUE: mbedtls_hmac_drbg_update_ret:md_len <- $r7
	@DEBUG_VALUE: mbedtls_hmac_drbg_update_ret:ctx <- $r6
	@DEBUG_VALUE: mbedtls_hmac_drbg_update_ret:ret <- $r0
	@DEBUG_VALUE: mbedtls_hmac_drbg_update_ret:additional <- [DW_OP_plus_uconst 4] [$sp+0]
	@DEBUG_VALUE: mbedtls_hmac_drbg_update_ret:add_len <- [DW_OP_plus_uconst 8] [$sp+0]
	mov	r5, r0
.Ltmp58:
	@DEBUG_VALUE: mbedtls_hmac_drbg_update_ret:ret <- $r5
	b	.LBB1_23
.Ltmp59:
.LBB1_21:
	@DEBUG_VALUE: mbedtls_hmac_drbg_update_ret:md_len <- $r7
	@DEBUG_VALUE: mbedtls_hmac_drbg_update_ret:ctx <- $r6
	@DEBUG_VALUE: mbedtls_hmac_drbg_update_ret:ret <- $r0
	@DEBUG_VALUE: mbedtls_hmac_drbg_update_ret:additional <- [DW_OP_plus_uconst 4] [$sp+0]
	@DEBUG_VALUE: mbedtls_hmac_drbg_update_ret:add_len <- [DW_OP_plus_uconst 8] [$sp+0]
	mov	r5, r0
.Ltmp60:
	@DEBUG_VALUE: mbedtls_hmac_drbg_update_ret:ret <- $r5
	b	.LBB1_23
.Ltmp61:
.LBB1_22:
	@DEBUG_VALUE: mbedtls_hmac_drbg_update_ret:md_len <- $r7
	@DEBUG_VALUE: mbedtls_hmac_drbg_update_ret:ctx <- $r6
	@DEBUG_VALUE: mbedtls_hmac_drbg_update_ret:ret <- $r0
	@DEBUG_VALUE: mbedtls_hmac_drbg_update_ret:additional <- [DW_OP_plus_uconst 4] [$sp+0]
	@DEBUG_VALUE: mbedtls_hmac_drbg_update_ret:add_len <- [DW_OP_plus_uconst 8] [$sp+0]
	mov	r5, r0
.Ltmp62:
	@DEBUG_VALUE: mbedtls_hmac_drbg_update_ret:ret <- $r5
.LBB1_23:
	@DEBUG_VALUE: mbedtls_hmac_drbg_update_ret:md_len <- $r7
	@DEBUG_VALUE: mbedtls_hmac_drbg_update_ret:ctx <- $r6
	@DEBUG_VALUE: mbedtls_hmac_drbg_update_ret:additional <- [DW_OP_plus_uconst 4] [$sp+0]
	@DEBUG_VALUE: mbedtls_hmac_drbg_update_ret:add_len <- [DW_OP_plus_uconst 8] [$sp+0]
	@DEBUG_VALUE: mbedtls_hmac_drbg_update_ret:ret <- $r5
	@DEBUG_LABEL: mbedtls_hmac_drbg_update_ret:exit
	add	r0, sp, #24
	movs	r1, #64
	.loc	2 110 5 is_stmt 1               @ ../../../ThirdParty/mbedTLS/library/hmac_drbg.c:110:5
	bl	mbedtls_platform_zeroize
	.loc	2 111 5                         @ ../../../ThirdParty/mbedTLS/library/hmac_drbg.c:111:5
	mov	r0, r5
	add	sp, #92
.Ltmp63:
	pop	{r4, r5, r6, r7, pc}
.Ltmp64:
.Lfunc_end1:
	.size	mbedtls_hmac_drbg_update_ret, .Lfunc_end1-mbedtls_hmac_drbg_update_ret
	.cfi_endproc
	.cantunwind
	.fnend
                                        @ -- End function
	.section	.text.mbedtls_hmac_drbg_update,"ax",%progbits
	.hidden	mbedtls_hmac_drbg_update        @ -- Begin function mbedtls_hmac_drbg_update
	.globl	mbedtls_hmac_drbg_update
	.p2align	1
	.type	mbedtls_hmac_drbg_update,%function
	.code	16                              @ @mbedtls_hmac_drbg_update
	.thumb_func
mbedtls_hmac_drbg_update:
.Lfunc_begin2:
	.loc	2 118 0                         @ ../../../ThirdParty/mbedTLS/library/hmac_drbg.c:118:0
	.fnstart
	.cfi_startproc
@ %bb.0:
	@DEBUG_VALUE: mbedtls_hmac_drbg_update:ctx <- $r0
	@DEBUG_VALUE: mbedtls_hmac_drbg_update:ctx <- $r0
	@DEBUG_VALUE: mbedtls_hmac_drbg_update:additional <- $r1
	@DEBUG_VALUE: mbedtls_hmac_drbg_update:additional <- $r1
	@DEBUG_VALUE: mbedtls_hmac_drbg_update:add_len <- $r2
	@DEBUG_VALUE: mbedtls_hmac_drbg_update:add_len <- $r2
	@DEBUG_VALUE: mbedtls_hmac_drbg_update:add_len <- $r2
	@DEBUG_VALUE: mbedtls_hmac_drbg_update:additional <- $r1
	@DEBUG_VALUE: mbedtls_hmac_drbg_update:ctx <- $r0
	.save	{r7, lr}
	push	{r7, lr}
	.cfi_def_cfa_offset 8
	.cfi_offset lr, -4
	.cfi_offset r7, -8
.Ltmp65:
	.loc	2 119 12 prologue_end           @ ../../../ThirdParty/mbedTLS/library/hmac_drbg.c:119:12
	bl	mbedtls_hmac_drbg_update_ret
.Ltmp66:
	@DEBUG_VALUE: mbedtls_hmac_drbg_update:add_len <- [DW_OP_LLVM_entry_value 1] $r2
	@DEBUG_VALUE: mbedtls_hmac_drbg_update:additional <- [DW_OP_LLVM_entry_value 1] $r1
	@DEBUG_VALUE: mbedtls_hmac_drbg_update:ctx <- [DW_OP_LLVM_entry_value 1] $r0
	.loc	2 120 1                         @ ../../../ThirdParty/mbedTLS/library/hmac_drbg.c:120:1
	pop	{r7, pc}
.Ltmp67:
.Lfunc_end2:
	.size	mbedtls_hmac_drbg_update, .Lfunc_end2-mbedtls_hmac_drbg_update
	.cfi_endproc
	.cantunwind
	.fnend
                                        @ -- End function
	.section	.text.mbedtls_hmac_drbg_seed_buf,"ax",%progbits
	.hidden	mbedtls_hmac_drbg_seed_buf      @ -- Begin function mbedtls_hmac_drbg_seed_buf
	.globl	mbedtls_hmac_drbg_seed_buf
	.p2align	1
	.type	mbedtls_hmac_drbg_seed_buf,%function
	.code	16                              @ @mbedtls_hmac_drbg_seed_buf
	.thumb_func
mbedtls_hmac_drbg_seed_buf:
.Lfunc_begin3:
	.loc	2 129 0                         @ ../../../ThirdParty/mbedTLS/library/hmac_drbg.c:129:0
	.fnstart
	.cfi_startproc
@ %bb.0:
	@DEBUG_VALUE: mbedtls_hmac_drbg_seed_buf:ctx <- $r0
	@DEBUG_VALUE: mbedtls_hmac_drbg_seed_buf:md_info <- $r1
	@DEBUG_VALUE: mbedtls_hmac_drbg_seed_buf:data <- $r2
	@DEBUG_VALUE: mbedtls_hmac_drbg_seed_buf:data_len <- $r3
	.save	{r4, r5, r6, r7, lr}
	push	{r4, r5, r6, r7, lr}
	.cfi_def_cfa_offset 20
	.cfi_offset lr, -4
	.cfi_offset r7, -8
	.cfi_offset r6, -12
	.cfi_offset r5, -16
	.cfi_offset r4, -20
	.pad	#4
	sub	sp, #4
	.cfi_def_cfa_offset 24
	str	r3, [sp]                        @ 4-byte Spill
	mov	r5, r2
	mov	r7, r1
	mov	r6, r0
.Ltmp68:
	@DEBUG_VALUE: mbedtls_hmac_drbg_seed_buf:data_len <- [$sp+0]
	@DEBUG_VALUE: mbedtls_hmac_drbg_seed_buf:data <- $r5
	@DEBUG_VALUE: mbedtls_hmac_drbg_seed_buf:md_info <- $r7
	@DEBUG_VALUE: mbedtls_hmac_drbg_seed_buf:ctx <- $r6
	movs	r2, #1
.Ltmp69:
	.loc	2 132 17 prologue_end           @ ../../../ThirdParty/mbedTLS/library/hmac_drbg.c:132:17
	bl	mbedtls_md_setup
.Ltmp70:
	@DEBUG_VALUE: mbedtls_hmac_drbg_seed_buf:ret <- $r0
	.loc	2 132 9 is_stmt 0               @ ../../../ThirdParty/mbedTLS/library/hmac_drbg.c:132:9
	cbz	r0, .LBB3_2
.Ltmp71:
.LBB3_1:
	@DEBUG_VALUE: mbedtls_hmac_drbg_seed_buf:md_info <- $r7
	@DEBUG_VALUE: mbedtls_hmac_drbg_seed_buf:ctx <- $r6
	@DEBUG_VALUE: mbedtls_hmac_drbg_seed_buf:data <- $r5
	@DEBUG_VALUE: mbedtls_hmac_drbg_seed_buf:ret <- $r0
	@DEBUG_VALUE: mbedtls_hmac_drbg_seed_buf:data_len <- [$sp+0]
	.loc	2 0 0                           @ ../../../ThirdParty/mbedTLS/library/hmac_drbg.c:0:0
	add	sp, #4
.Ltmp72:
	pop	{r4, r5, r6, r7, pc}
.Ltmp73:
.LBB3_2:
	@DEBUG_VALUE: mbedtls_hmac_drbg_seed_buf:md_info <- $r7
	@DEBUG_VALUE: mbedtls_hmac_drbg_seed_buf:ctx <- $r6
	@DEBUG_VALUE: mbedtls_hmac_drbg_seed_buf:data <- $r5
	@DEBUG_VALUE: mbedtls_hmac_drbg_seed_buf:ret <- $r0
	@DEBUG_VALUE: mbedtls_hmac_drbg_seed_buf:data_len <- [$sp+0]
	.loc	2 141 41 is_stmt 1              @ ../../../ThirdParty/mbedTLS/library/hmac_drbg.c:141:41
	mov	r0, r7
.Ltmp74:
	bl	mbedtls_md_get_size
	mov	r2, r0
	.loc	2 140 55                        @ ../../../ThirdParty/mbedTLS/library/hmac_drbg.c:140:55
	mov	r4, r6
	adds	r4, #12
	.loc	2 140 17 is_stmt 0              @ ../../../ThirdParty/mbedTLS/library/hmac_drbg.c:140:17
	mov	r0, r6
	mov	r1, r4
	bl	mbedtls_md_hmac_starts
.Ltmp75:
	@DEBUG_VALUE: mbedtls_hmac_drbg_seed_buf:ret <- $r0
	.loc	2 140 9                         @ ../../../ThirdParty/mbedTLS/library/hmac_drbg.c:140:9
	cmp	r0, #0
	bne	.LBB3_1
.Ltmp76:
@ %bb.3:
	@DEBUG_VALUE: mbedtls_hmac_drbg_seed_buf:md_info <- $r7
	@DEBUG_VALUE: mbedtls_hmac_drbg_seed_buf:ctx <- $r6
	@DEBUG_VALUE: mbedtls_hmac_drbg_seed_buf:data <- $r5
	@DEBUG_VALUE: mbedtls_hmac_drbg_seed_buf:ret <- $r0
	@DEBUG_VALUE: mbedtls_hmac_drbg_seed_buf:data_len <- [$sp+0]
	.loc	2 143 27 is_stmt 1              @ ../../../ThirdParty/mbedTLS/library/hmac_drbg.c:143:27
	mov	r0, r7
.Ltmp77:
	bl	mbedtls_md_get_size
	mov	r1, r0
	movs	r2, #1
	.loc	2 143 5 is_stmt 0               @ ../../../ThirdParty/mbedTLS/library/hmac_drbg.c:143:5
	mov	r0, r4
	bl	__aeabi_memset4
.Ltmp78:
	.loc	2 145 17 is_stmt 1              @ ../../../ThirdParty/mbedTLS/library/hmac_drbg.c:145:17
	mov	r0, r6
	mov	r1, r5
	ldr	r2, [sp]                        @ 4-byte Reload
	bl	mbedtls_hmac_drbg_update_ret
.Ltmp79:
	@DEBUG_VALUE: mbedtls_hmac_drbg_seed_buf:ret <- $r0
	.loc	2 0 0 is_stmt 0                 @ ../../../ThirdParty/mbedTLS/library/hmac_drbg.c:0:0
	add	sp, #4
.Ltmp80:
	pop	{r4, r5, r6, r7, pc}
.Ltmp81:
.Lfunc_end3:
	.size	mbedtls_hmac_drbg_seed_buf, .Lfunc_end3-mbedtls_hmac_drbg_seed_buf
	.cfi_endproc
	.cantunwind
	.fnend
                                        @ -- End function
	.section	.text.mbedtls_hmac_drbg_reseed,"ax",%progbits
	.hidden	mbedtls_hmac_drbg_reseed        @ -- Begin function mbedtls_hmac_drbg_reseed
	.globl	mbedtls_hmac_drbg_reseed
	.p2align	1
	.type	mbedtls_hmac_drbg_reseed,%function
	.code	16                              @ @mbedtls_hmac_drbg_reseed
	.thumb_func
mbedtls_hmac_drbg_reseed:
.Lfunc_begin4:
	.loc	2 156 0 is_stmt 1               @ ../../../ThirdParty/mbedTLS/library/hmac_drbg.c:156:0
	.fnstart
	.cfi_startproc
@ %bb.0:
	@DEBUG_VALUE: mbedtls_hmac_drbg_reseed:ctx <- $r0
	@DEBUG_VALUE: mbedtls_hmac_drbg_reseed:additional <- $r1
	@DEBUG_VALUE: mbedtls_hmac_drbg_reseed:len <- $r2
	.save	{r4, r5, r6, r7, lr}
	push	{r4, r5, r6, r7, lr}
	.cfi_def_cfa_offset 20
	.cfi_offset lr, -4
	.cfi_offset r7, -8
	.cfi_offset r6, -12
	.cfi_offset r5, -16
	.cfi_offset r4, -20
	.pad	#396
	sub	sp, #396
	.cfi_def_cfa_offset 416
	mov	r4, r0
	movs	r0, #4
.Ltmp82:
	@DEBUG_VALUE: mbedtls_hmac_drbg_reseed:ctx <- [DW_OP_LLVM_entry_value 1] $r0
	mvns	r5, r0
	movw	r0, #256
	@DEBUG_VALUE: mbedtls_hmac_drbg_reseed:len <- $r2
	@DEBUG_VALUE: mbedtls_hmac_drbg_reseed:additional <- $r1
.Ltmp83:
	@DEBUG_VALUE: mbedtls_hmac_drbg_reseed:ctx <- $r4
	.loc	2 162 43 prologue_end           @ ../../../ThirdParty/mbedTLS/library/hmac_drbg.c:162:43
	cmp	r2, r0
	bhi	.LBB4_10
.Ltmp84:
@ %bb.1:
	@DEBUG_VALUE: mbedtls_hmac_drbg_reseed:ctx <- $r4
	@DEBUG_VALUE: mbedtls_hmac_drbg_reseed:len <- $r2
	@DEBUG_VALUE: mbedtls_hmac_drbg_reseed:additional <- $r1
	.loc	2 0 43 is_stmt 0                @ ../../../ThirdParty/mbedTLS/library/hmac_drbg.c:0:43
	mov	r6, r2
.Ltmp85:
	@DEBUG_VALUE: mbedtls_hmac_drbg_reseed:len <- $r6
	.loc	2 163 18 is_stmt 1              @ ../../../ThirdParty/mbedTLS/library/hmac_drbg.c:163:18
	ldr	r7, [r4, #80]
	.loc	2 163 30 is_stmt 0              @ ../../../ThirdParty/mbedTLS/library/hmac_drbg.c:163:30
	adds	r2, r7, r2
	.loc	2 163 36                        @ ../../../ThirdParty/mbedTLS/library/hmac_drbg.c:163:36
	adds	r0, #128
.Ltmp86:
	.loc	2 162 9 is_stmt 1               @ ../../../ThirdParty/mbedTLS/library/hmac_drbg.c:162:9
	cmp	r2, r0
	bhi	.LBB4_10
.Ltmp87:
@ %bb.2:
	@DEBUG_VALUE: mbedtls_hmac_drbg_reseed:len <- $r6
	@DEBUG_VALUE: mbedtls_hmac_drbg_reseed:ctx <- $r4
	@DEBUG_VALUE: mbedtls_hmac_drbg_reseed:additional <- $r1
	.loc	2 0 9 is_stmt 0                 @ ../../../ThirdParty/mbedTLS/library/hmac_drbg.c:0:9
	str	r1, [sp, #4]                    @ 4-byte Spill
.Ltmp88:
	@DEBUG_VALUE: mbedtls_hmac_drbg_reseed:additional <- [DW_OP_plus_uconst 4] [$sp+0]
	add	r0, sp, #12
	.loc	2 168 5 is_stmt 1               @ ../../../ThirdParty/mbedTLS/library/hmac_drbg.c:168:5
	str	r0, [sp, #8]                    @ 4-byte Spill
	movw	r1, #384
	bl	__aeabi_memclr4
.Ltmp89:
	.loc	2 171 22                        @ ../../../ThirdParty/mbedTLS/library/hmac_drbg.c:171:22
	ldr	r3, [r4, #92]
	.loc	2 171 38 is_stmt 0              @ ../../../ThirdParty/mbedTLS/library/hmac_drbg.c:171:38
	ldr	r0, [r4, #96]
	.loc	2 171 17                        @ ../../../ThirdParty/mbedTLS/library/hmac_drbg.c:171:17
	ldr	r1, [sp, #8]                    @ 4-byte Reload
	mov	r2, r7
	blx	r3
.Ltmp90:
	@DEBUG_VALUE: mbedtls_hmac_drbg_reseed:ret <- $r0
	.loc	2 171 9                         @ ../../../ThirdParty/mbedTLS/library/hmac_drbg.c:171:9
	cbz	r0, .LBB4_4
.Ltmp91:
@ %bb.3:
	@DEBUG_VALUE: mbedtls_hmac_drbg_reseed:additional <- [DW_OP_plus_uconst 4] [$sp+0]
	@DEBUG_VALUE: mbedtls_hmac_drbg_reseed:len <- $r6
	@DEBUG_VALUE: mbedtls_hmac_drbg_reseed:ctx <- $r4
	@DEBUG_VALUE: mbedtls_hmac_drbg_reseed:ret <- $r0
	.loc	2 0 9                           @ ../../../ThirdParty/mbedTLS/library/hmac_drbg.c:0:9
	subs	r5, r5, #4
	b	.LBB4_10
.Ltmp92:
.LBB4_4:
	@DEBUG_VALUE: mbedtls_hmac_drbg_reseed:additional <- [DW_OP_plus_uconst 4] [$sp+0]
	@DEBUG_VALUE: mbedtls_hmac_drbg_reseed:len <- $r6
	@DEBUG_VALUE: mbedtls_hmac_drbg_reseed:ctx <- $r4
	@DEBUG_VALUE: mbedtls_hmac_drbg_reseed:ret <- $r0
	.loc	2 175 20 is_stmt 1              @ ../../../ThirdParty/mbedTLS/library/hmac_drbg.c:175:20
	ldr	r7, [r4, #80]
.Ltmp93:
	@DEBUG_VALUE: mbedtls_hmac_drbg_reseed:seedlen <- $r7
	.loc	2 0 20 is_stmt 0                @ ../../../ThirdParty/mbedTLS/library/hmac_drbg.c:0:20
	ldr	r1, [sp, #4]                    @ 4-byte Reload
.Ltmp94:
	@DEBUG_VALUE: mbedtls_hmac_drbg_reseed:additional <- $r1
	.loc	2 178 28 is_stmt 1              @ ../../../ThirdParty/mbedTLS/library/hmac_drbg.c:178:28
	cbz	r1, .LBB4_7
.Ltmp95:
@ %bb.5:
	@DEBUG_VALUE: mbedtls_hmac_drbg_reseed:seedlen <- $r7
	@DEBUG_VALUE: mbedtls_hmac_drbg_reseed:len <- $r6
	@DEBUG_VALUE: mbedtls_hmac_drbg_reseed:ctx <- $r4
	@DEBUG_VALUE: mbedtls_hmac_drbg_reseed:additional <- $r1
	@DEBUG_VALUE: mbedtls_hmac_drbg_reseed:ret <- $r0
	cbz	r6, .LBB4_7
.Ltmp96:
@ %bb.6:
	@DEBUG_VALUE: mbedtls_hmac_drbg_reseed:seedlen <- $r7
	@DEBUG_VALUE: mbedtls_hmac_drbg_reseed:len <- $r6
	@DEBUG_VALUE: mbedtls_hmac_drbg_reseed:ctx <- $r4
	@DEBUG_VALUE: mbedtls_hmac_drbg_reseed:additional <- $r1
	@DEBUG_VALUE: mbedtls_hmac_drbg_reseed:ret <- $r0
	.loc	2 0 28 is_stmt 0                @ ../../../ThirdParty/mbedTLS/library/hmac_drbg.c:0:28
	add	r0, sp, #12
.Ltmp97:
	.loc	2 180 22 is_stmt 1              @ ../../../ThirdParty/mbedTLS/library/hmac_drbg.c:180:22
	adds	r0, r0, r7
	.loc	2 180 9 is_stmt 0               @ ../../../ThirdParty/mbedTLS/library/hmac_drbg.c:180:9
	mov	r2, r6
	bl	__aeabi_memcpy
.Ltmp98:
	@DEBUG_VALUE: mbedtls_hmac_drbg_reseed:additional <- [DW_OP_LLVM_entry_value 1] $r1
	.loc	2 181 17 is_stmt 1              @ ../../../ThirdParty/mbedTLS/library/hmac_drbg.c:181:17
	adds	r7, r7, r6
.Ltmp99:
	@DEBUG_VALUE: mbedtls_hmac_drbg_reseed:seedlen <- $r7
.LBB4_7:
	@DEBUG_VALUE: mbedtls_hmac_drbg_reseed:seedlen <- $r7
	@DEBUG_VALUE: mbedtls_hmac_drbg_reseed:len <- $r6
	@DEBUG_VALUE: mbedtls_hmac_drbg_reseed:ctx <- $r4
	@DEBUG_VALUE: mbedtls_hmac_drbg_reseed:seedlen <- $r7
	.loc	2 0 17 is_stmt 0                @ ../../../ThirdParty/mbedTLS/library/hmac_drbg.c:0:17
	add	r1, sp, #12
.Ltmp100:
	.loc	2 185 17 is_stmt 1              @ ../../../ThirdParty/mbedTLS/library/hmac_drbg.c:185:17
	mov	r0, r4
	mov	r2, r7
	bl	mbedtls_hmac_drbg_update_ret
	mov	r5, r0
.Ltmp101:
	@DEBUG_VALUE: mbedtls_hmac_drbg_reseed:ret <- $r5
	.loc	2 185 9 is_stmt 0               @ ../../../ThirdParty/mbedTLS/library/hmac_drbg.c:185:9
	cbnz	r0, .LBB4_9
.Ltmp102:
@ %bb.8:
	@DEBUG_VALUE: mbedtls_hmac_drbg_reseed:seedlen <- $r7
	@DEBUG_VALUE: mbedtls_hmac_drbg_reseed:len <- $r6
	@DEBUG_VALUE: mbedtls_hmac_drbg_reseed:ret <- $r5
	@DEBUG_VALUE: mbedtls_hmac_drbg_reseed:ctx <- $r4
	.loc	2 0 9                           @ ../../../ThirdParty/mbedTLS/library/hmac_drbg.c:0:9
	movs	r0, #1
	.loc	2 189 25 is_stmt 1              @ ../../../ThirdParty/mbedTLS/library/hmac_drbg.c:189:25
	str	r0, [r4, #76]
.Ltmp103:
.LBB4_9:
	@DEBUG_VALUE: mbedtls_hmac_drbg_reseed:seedlen <- $r7
	@DEBUG_VALUE: mbedtls_hmac_drbg_reseed:len <- $r6
	@DEBUG_VALUE: mbedtls_hmac_drbg_reseed:ret <- $r5
	@DEBUG_VALUE: mbedtls_hmac_drbg_reseed:ctx <- $r4
	@DEBUG_LABEL: mbedtls_hmac_drbg_reseed:exit
	.loc	2 0 25 is_stmt 0                @ ../../../ThirdParty/mbedTLS/library/hmac_drbg.c:0:25
	add	r0, sp, #12
	.loc	2 193 5 is_stmt 1               @ ../../../ThirdParty/mbedTLS/library/hmac_drbg.c:193:5
	mov	r1, r7
	bl	mbedtls_platform_zeroize
.Ltmp104:
.LBB4_10:
	@DEBUG_VALUE: mbedtls_hmac_drbg_reseed:ctx <- $r4
	.loc	2 195 1                         @ ../../../ThirdParty/mbedTLS/library/hmac_drbg.c:195:1
	mov	r0, r5
	add	sp, #396
	pop	{r4, r5, r6, r7, pc}
.Ltmp105:
.Lfunc_end4:
	.size	mbedtls_hmac_drbg_reseed, .Lfunc_end4-mbedtls_hmac_drbg_reseed
	.cfi_endproc
	.cantunwind
	.fnend
                                        @ -- End function
	.section	.text.mbedtls_hmac_drbg_seed,"ax",%progbits
	.hidden	mbedtls_hmac_drbg_seed          @ -- Begin function mbedtls_hmac_drbg_seed
	.globl	mbedtls_hmac_drbg_seed
	.p2align	2
	.type	mbedtls_hmac_drbg_seed,%function
	.code	16                              @ @mbedtls_hmac_drbg_seed
	.thumb_func
mbedtls_hmac_drbg_seed:
.Lfunc_begin5:
	.loc	2 206 0                         @ ../../../ThirdParty/mbedTLS/library/hmac_drbg.c:206:0
	.fnstart
	.cfi_startproc
@ %bb.0:
	@DEBUG_VALUE: mbedtls_hmac_drbg_seed:ctx <- $r0
	@DEBUG_VALUE: mbedtls_hmac_drbg_seed:md_info <- $r1
	@DEBUG_VALUE: mbedtls_hmac_drbg_seed:f_entropy <- $r2
	@DEBUG_VALUE: mbedtls_hmac_drbg_seed:p_entropy <- $r3
	.save	{r4, r5, r6, r7, lr}
	push	{r4, r5, r6, r7, lr}
	.cfi_def_cfa_offset 20
	.cfi_offset lr, -4
	.cfi_offset r7, -8
	.cfi_offset r6, -12
	.cfi_offset r5, -16
	.cfi_offset r4, -20
	.pad	#4
	sub	sp, #4
	.cfi_def_cfa_offset 24
	str	r3, [sp]                        @ 4-byte Spill
	mov	r6, r2
	mov	r4, r1
	mov	r5, r0
.Ltmp106:
	@DEBUG_VALUE: mbedtls_hmac_drbg_seed:len <- [DW_OP_plus_uconst 28] [$sp+0]
	@DEBUG_VALUE: mbedtls_hmac_drbg_seed:custom <- [DW_OP_plus_uconst 24] [$sp+0]
	@DEBUG_VALUE: mbedtls_hmac_drbg_seed:p_entropy <- [$sp+0]
	@DEBUG_VALUE: mbedtls_hmac_drbg_seed:f_entropy <- $r6
	@DEBUG_VALUE: mbedtls_hmac_drbg_seed:md_info <- $r4
	@DEBUG_VALUE: mbedtls_hmac_drbg_seed:ctx <- $r5
	movs	r2, #1
.Ltmp107:
	.loc	2 210 17 prologue_end           @ ../../../ThirdParty/mbedTLS/library/hmac_drbg.c:210:17
	bl	mbedtls_md_setup
.Ltmp108:
	@DEBUG_VALUE: mbedtls_hmac_drbg_seed:ret <- $r0
	.loc	2 210 9 is_stmt 0               @ ../../../ThirdParty/mbedTLS/library/hmac_drbg.c:210:9
	cbz	r0, .LBB5_2
.Ltmp109:
.LBB5_1:
	@DEBUG_VALUE: mbedtls_hmac_drbg_seed:f_entropy <- $r6
	@DEBUG_VALUE: mbedtls_hmac_drbg_seed:ctx <- $r5
	@DEBUG_VALUE: mbedtls_hmac_drbg_seed:ret <- $r0
	@DEBUG_VALUE: mbedtls_hmac_drbg_seed:p_entropy <- [$sp+0]
	@DEBUG_VALUE: mbedtls_hmac_drbg_seed:custom <- [DW_OP_plus_uconst 24] [$sp+0]
	@DEBUG_VALUE: mbedtls_hmac_drbg_seed:len <- [DW_OP_plus_uconst 28] [$sp+0]
	.loc	2 252 1 is_stmt 1               @ ../../../ThirdParty/mbedTLS/library/hmac_drbg.c:252:1
	add	sp, #4
.Ltmp110:
	pop	{r4, r5, r6, r7, pc}
.Ltmp111:
.LBB5_2:
	@DEBUG_VALUE: mbedtls_hmac_drbg_seed:f_entropy <- $r6
	@DEBUG_VALUE: mbedtls_hmac_drbg_seed:ctx <- $r5
	@DEBUG_VALUE: mbedtls_hmac_drbg_seed:md_info <- $r4
	@DEBUG_VALUE: mbedtls_hmac_drbg_seed:ret <- $r0
	@DEBUG_VALUE: mbedtls_hmac_drbg_seed:p_entropy <- [$sp+0]
	@DEBUG_VALUE: mbedtls_hmac_drbg_seed:custom <- [DW_OP_plus_uconst 24] [$sp+0]
	@DEBUG_VALUE: mbedtls_hmac_drbg_seed:len <- [DW_OP_plus_uconst 28] [$sp+0]
	.loc	2 213 15                        @ ../../../ThirdParty/mbedTLS/library/hmac_drbg.c:213:15
	mov	r0, r4
.Ltmp112:
	bl	mbedtls_md_get_size
	mov	r7, r0
.Ltmp113:
	@DEBUG_VALUE: mbedtls_hmac_drbg_seed:md_size <- $r7
	.loc	2 220 55                        @ ../../../ThirdParty/mbedTLS/library/hmac_drbg.c:220:55
	mov	r4, r5
.Ltmp114:
	adds	r4, #12
	.loc	2 220 17 is_stmt 0              @ ../../../ThirdParty/mbedTLS/library/hmac_drbg.c:220:17
	mov	r0, r5
	mov	r1, r4
	mov	r2, r7
	bl	mbedtls_md_hmac_starts
.Ltmp115:
	@DEBUG_VALUE: mbedtls_hmac_drbg_seed:ret <- $r0
	.loc	2 220 9                         @ ../../../ThirdParty/mbedTLS/library/hmac_drbg.c:220:9
	cmp	r0, #0
	bne	.LBB5_1
.Ltmp116:
@ %bb.3:
	@DEBUG_VALUE: mbedtls_hmac_drbg_seed:md_size <- $r7
	@DEBUG_VALUE: mbedtls_hmac_drbg_seed:f_entropy <- $r6
	@DEBUG_VALUE: mbedtls_hmac_drbg_seed:ctx <- $r5
	@DEBUG_VALUE: mbedtls_hmac_drbg_seed:ret <- $r0
	@DEBUG_VALUE: mbedtls_hmac_drbg_seed:p_entropy <- [$sp+0]
	@DEBUG_VALUE: mbedtls_hmac_drbg_seed:custom <- [DW_OP_plus_uconst 24] [$sp+0]
	@DEBUG_VALUE: mbedtls_hmac_drbg_seed:len <- [DW_OP_plus_uconst 28] [$sp+0]
	.loc	2 0 9                           @ ../../../ThirdParty/mbedTLS/library/hmac_drbg.c:0:9
	movs	r2, #1
	.loc	2 222 5 is_stmt 1               @ ../../../ThirdParty/mbedTLS/library/hmac_drbg.c:222:5
	mov	r0, r4
.Ltmp117:
	mov	r1, r7
	bl	__aeabi_memset4
	ldr	r0, __arm_cp.5_0
	.loc	2 227 26                        @ ../../../ThirdParty/mbedTLS/library/hmac_drbg.c:227:26
	str	r0, [r5, #88]
	.loc	2 224 20                        @ ../../../ThirdParty/mbedTLS/library/hmac_drbg.c:224:20
	str	r6, [r5, #92]
	.loc	2 225 20                        @ ../../../ThirdParty/mbedTLS/library/hmac_drbg.c:225:20
	ldr	r0, [sp]                        @ 4-byte Reload
	str	r0, [r5, #96]
	.loc	2 236 19                        @ ../../../ThirdParty/mbedTLS/library/hmac_drbg.c:236:19
	cmp	r7, #29
	blo	.LBB5_5
.Ltmp118:
@ %bb.4:
	@DEBUG_VALUE: mbedtls_hmac_drbg_seed:md_size <- $r7
	@DEBUG_VALUE: mbedtls_hmac_drbg_seed:f_entropy <- $r6
	@DEBUG_VALUE: mbedtls_hmac_drbg_seed:ctx <- $r5
	@DEBUG_VALUE: mbedtls_hmac_drbg_seed:p_entropy <- [$sp+0]
	@DEBUG_VALUE: mbedtls_hmac_drbg_seed:custom <- [DW_OP_plus_uconst 24] [$sp+0]
	@DEBUG_VALUE: mbedtls_hmac_drbg_seed:len <- [DW_OP_plus_uconst 28] [$sp+0]
	.loc	2 0 19 is_stmt 0                @ ../../../ThirdParty/mbedTLS/library/hmac_drbg.c:0:19
	movs	r4, #32
	b	.LBB5_6
.Ltmp119:
.LBB5_5:
	@DEBUG_VALUE: mbedtls_hmac_drbg_seed:md_size <- $r7
	@DEBUG_VALUE: mbedtls_hmac_drbg_seed:f_entropy <- $r6
	@DEBUG_VALUE: mbedtls_hmac_drbg_seed:ctx <- $r5
	@DEBUG_VALUE: mbedtls_hmac_drbg_seed:p_entropy <- [$sp+0]
	@DEBUG_VALUE: mbedtls_hmac_drbg_seed:custom <- [DW_OP_plus_uconst 24] [$sp+0]
	@DEBUG_VALUE: mbedtls_hmac_drbg_seed:len <- [DW_OP_plus_uconst 28] [$sp+0]
	movs	r4, #24
.Ltmp120:
.LBB5_6:
	@DEBUG_VALUE: mbedtls_hmac_drbg_seed:md_size <- $r7
	@DEBUG_VALUE: mbedtls_hmac_drbg_seed:f_entropy <- $r6
	@DEBUG_VALUE: mbedtls_hmac_drbg_seed:ctx <- $r5
	@DEBUG_VALUE: mbedtls_hmac_drbg_seed:p_entropy <- [$sp+0]
	@DEBUG_VALUE: mbedtls_hmac_drbg_seed:custom <- [DW_OP_plus_uconst 24] [$sp+0]
	@DEBUG_VALUE: mbedtls_hmac_drbg_seed:len <- [DW_OP_plus_uconst 28] [$sp+0]
	ldr	r2, [sp, #28]
	ldr	r1, [sp, #24]
	.loc	2 236 19                        @ ../../../ThirdParty/mbedTLS/library/hmac_drbg.c:236:19
	cmp	r7, #21
	bhs	.LBB5_8
.Ltmp121:
@ %bb.7:
	@DEBUG_VALUE: mbedtls_hmac_drbg_seed:md_size <- $r7
	@DEBUG_VALUE: mbedtls_hmac_drbg_seed:f_entropy <- $r6
	@DEBUG_VALUE: mbedtls_hmac_drbg_seed:ctx <- $r5
	@DEBUG_VALUE: mbedtls_hmac_drbg_seed:p_entropy <- [$sp+0]
	@DEBUG_VALUE: mbedtls_hmac_drbg_seed:custom <- [DW_OP_plus_uconst 24] [$sp+0]
	@DEBUG_VALUE: mbedtls_hmac_drbg_seed:len <- [DW_OP_plus_uconst 28] [$sp+0]
	.loc	2 0 19                          @ ../../../ThirdParty/mbedTLS/library/hmac_drbg.c:0:19
	movs	r4, #16
.Ltmp122:
.LBB5_8:
	@DEBUG_VALUE: mbedtls_hmac_drbg_seed:md_size <- $r7
	@DEBUG_VALUE: mbedtls_hmac_drbg_seed:f_entropy <- $r6
	@DEBUG_VALUE: mbedtls_hmac_drbg_seed:ctx <- $r5
	@DEBUG_VALUE: mbedtls_hmac_drbg_seed:p_entropy <- [$sp+0]
	@DEBUG_VALUE: mbedtls_hmac_drbg_seed:custom <- [DW_OP_plus_uconst 24] [$sp+0]
	@DEBUG_VALUE: mbedtls_hmac_drbg_seed:len <- [DW_OP_plus_uconst 28] [$sp+0]
	@DEBUG_VALUE: mbedtls_hmac_drbg_seed:entropy_len <- $r4
	movs	r0, #3
	.loc	2 244 36 is_stmt 1              @ ../../../ThirdParty/mbedTLS/library/hmac_drbg.c:244:36
	muls	r0, r4, r0
	.loc	2 244 40 is_stmt 0              @ ../../../ThirdParty/mbedTLS/library/hmac_drbg.c:244:40
	lsrs	r0, r0, #1
	.loc	2 244 22                        @ ../../../ThirdParty/mbedTLS/library/hmac_drbg.c:244:22
	str	r0, [r5, #80]
.Ltmp123:
	.loc	2 246 17 is_stmt 1              @ ../../../ThirdParty/mbedTLS/library/hmac_drbg.c:246:17
	mov	r0, r5
	bl	mbedtls_hmac_drbg_reseed
.Ltmp124:
	@DEBUG_VALUE: mbedtls_hmac_drbg_seed:ret <- $r0
	.loc	2 246 9 is_stmt 0               @ ../../../ThirdParty/mbedTLS/library/hmac_drbg.c:246:9
	cmp	r0, #0
	bne	.LBB5_1
.Ltmp125:
@ %bb.9:
	@DEBUG_VALUE: mbedtls_hmac_drbg_seed:md_size <- $r7
	@DEBUG_VALUE: mbedtls_hmac_drbg_seed:f_entropy <- $r6
	@DEBUG_VALUE: mbedtls_hmac_drbg_seed:ctx <- $r5
	@DEBUG_VALUE: mbedtls_hmac_drbg_seed:entropy_len <- $r4
	@DEBUG_VALUE: mbedtls_hmac_drbg_seed:ret <- $r0
	@DEBUG_VALUE: mbedtls_hmac_drbg_seed:p_entropy <- [$sp+0]
	@DEBUG_VALUE: mbedtls_hmac_drbg_seed:custom <- [DW_OP_plus_uconst 24] [$sp+0]
	@DEBUG_VALUE: mbedtls_hmac_drbg_seed:len <- [DW_OP_plus_uconst 28] [$sp+0]
	.loc	2 249 22 is_stmt 1              @ ../../../ThirdParty/mbedTLS/library/hmac_drbg.c:249:22
	str	r4, [r5, #80]
	movs	r0, #0
.Ltmp126:
	.loc	2 252 1                         @ ../../../ThirdParty/mbedTLS/library/hmac_drbg.c:252:1
	add	sp, #4
.Ltmp127:
	pop	{r4, r5, r6, r7, pc}
.Ltmp128:
	.p2align	2
@ %bb.10:
	.loc	2 0 1 is_stmt 0                 @ ../../../ThirdParty/mbedTLS/library/hmac_drbg.c:0:1
__arm_cp.5_0:
	.long	10000                           @ 0x2710
.Lcpi_end0:
	.size	__arm_cp.5_0, .Lcpi_end0-__arm_cp.5_0
.Lfunc_end5:
	.size	mbedtls_hmac_drbg_seed, .Lfunc_end5-mbedtls_hmac_drbg_seed
	.cfi_endproc
	.cantunwind
	.fnend
                                        @ -- End function
	.section	.text.mbedtls_hmac_drbg_set_prediction_resistance,"ax",%progbits
	.hidden	mbedtls_hmac_drbg_set_prediction_resistance @ -- Begin function mbedtls_hmac_drbg_set_prediction_resistance
	.globl	mbedtls_hmac_drbg_set_prediction_resistance
	.p2align	1
	.type	mbedtls_hmac_drbg_set_prediction_resistance,%function
	.code	16                              @ @mbedtls_hmac_drbg_set_prediction_resistance
	.thumb_func
mbedtls_hmac_drbg_set_prediction_resistance:
.Lfunc_begin6:
	.loc	2 259 0 is_stmt 1               @ ../../../ThirdParty/mbedTLS/library/hmac_drbg.c:259:0
	.fnstart
	.cfi_startproc
@ %bb.0:
	@DEBUG_VALUE: mbedtls_hmac_drbg_set_prediction_resistance:ctx <- $r0
	@DEBUG_VALUE: mbedtls_hmac_drbg_set_prediction_resistance:ctx <- $r0
	@DEBUG_VALUE: mbedtls_hmac_drbg_set_prediction_resistance:resistance <- $r1
	@DEBUG_VALUE: mbedtls_hmac_drbg_set_prediction_resistance:resistance <- $r1
	.loc	2 260 32 prologue_end           @ ../../../ThirdParty/mbedTLS/library/hmac_drbg.c:260:32
	str	r1, [r0, #84]
	.loc	2 261 1                         @ ../../../ThirdParty/mbedTLS/library/hmac_drbg.c:261:1
	bx	lr
.Ltmp129:
.Lfunc_end6:
	.size	mbedtls_hmac_drbg_set_prediction_resistance, .Lfunc_end6-mbedtls_hmac_drbg_set_prediction_resistance
	.cfi_endproc
	.cantunwind
	.fnend
                                        @ -- End function
	.section	.text.mbedtls_hmac_drbg_set_entropy_len,"ax",%progbits
	.hidden	mbedtls_hmac_drbg_set_entropy_len @ -- Begin function mbedtls_hmac_drbg_set_entropy_len
	.globl	mbedtls_hmac_drbg_set_entropy_len
	.p2align	1
	.type	mbedtls_hmac_drbg_set_entropy_len,%function
	.code	16                              @ @mbedtls_hmac_drbg_set_entropy_len
	.thumb_func
mbedtls_hmac_drbg_set_entropy_len:
.Lfunc_begin7:
	.loc	2 267 0                         @ ../../../ThirdParty/mbedTLS/library/hmac_drbg.c:267:0
	.fnstart
	.cfi_startproc
@ %bb.0:
	@DEBUG_VALUE: mbedtls_hmac_drbg_set_entropy_len:ctx <- $r0
	@DEBUG_VALUE: mbedtls_hmac_drbg_set_entropy_len:ctx <- $r0
	@DEBUG_VALUE: mbedtls_hmac_drbg_set_entropy_len:len <- $r1
	@DEBUG_VALUE: mbedtls_hmac_drbg_set_entropy_len:len <- $r1
	.loc	2 268 22 prologue_end           @ ../../../ThirdParty/mbedTLS/library/hmac_drbg.c:268:22
	str	r1, [r0, #80]
	.loc	2 269 1                         @ ../../../ThirdParty/mbedTLS/library/hmac_drbg.c:269:1
	bx	lr
.Ltmp130:
.Lfunc_end7:
	.size	mbedtls_hmac_drbg_set_entropy_len, .Lfunc_end7-mbedtls_hmac_drbg_set_entropy_len
	.cfi_endproc
	.cantunwind
	.fnend
                                        @ -- End function
	.section	.text.mbedtls_hmac_drbg_set_reseed_interval,"ax",%progbits
	.hidden	mbedtls_hmac_drbg_set_reseed_interval @ -- Begin function mbedtls_hmac_drbg_set_reseed_interval
	.globl	mbedtls_hmac_drbg_set_reseed_interval
	.p2align	1
	.type	mbedtls_hmac_drbg_set_reseed_interval,%function
	.code	16                              @ @mbedtls_hmac_drbg_set_reseed_interval
	.thumb_func
mbedtls_hmac_drbg_set_reseed_interval:
.Lfunc_begin8:
	.loc	2 275 0                         @ ../../../ThirdParty/mbedTLS/library/hmac_drbg.c:275:0
	.fnstart
	.cfi_startproc
@ %bb.0:
	@DEBUG_VALUE: mbedtls_hmac_drbg_set_reseed_interval:ctx <- $r0
	@DEBUG_VALUE: mbedtls_hmac_drbg_set_reseed_interval:ctx <- $r0
	@DEBUG_VALUE: mbedtls_hmac_drbg_set_reseed_interval:interval <- $r1
	@DEBUG_VALUE: mbedtls_hmac_drbg_set_reseed_interval:interval <- $r1
	.loc	2 276 26 prologue_end           @ ../../../ThirdParty/mbedTLS/library/hmac_drbg.c:276:26
	str	r1, [r0, #88]
	.loc	2 277 1                         @ ../../../ThirdParty/mbedTLS/library/hmac_drbg.c:277:1
	bx	lr
.Ltmp131:
.Lfunc_end8:
	.size	mbedtls_hmac_drbg_set_reseed_interval, .Lfunc_end8-mbedtls_hmac_drbg_set_reseed_interval
	.cfi_endproc
	.cantunwind
	.fnend
                                        @ -- End function
	.section	.text.mbedtls_hmac_drbg_random_with_add,"ax",%progbits
	.hidden	mbedtls_hmac_drbg_random_with_add @ -- Begin function mbedtls_hmac_drbg_random_with_add
	.globl	mbedtls_hmac_drbg_random_with_add
	.p2align	1
	.type	mbedtls_hmac_drbg_random_with_add,%function
	.code	16                              @ @mbedtls_hmac_drbg_random_with_add
	.thumb_func
mbedtls_hmac_drbg_random_with_add:
.Lfunc_begin9:
	.loc	2 286 0                         @ ../../../ThirdParty/mbedTLS/library/hmac_drbg.c:286:0
	.fnstart
	.cfi_startproc
@ %bb.0:
	@DEBUG_VALUE: mbedtls_hmac_drbg_random_with_add:p_rng <- $r0
	@DEBUG_VALUE: mbedtls_hmac_drbg_random_with_add:output <- $r1
	@DEBUG_VALUE: mbedtls_hmac_drbg_random_with_add:out_len <- $r2
	@DEBUG_VALUE: mbedtls_hmac_drbg_random_with_add:additional <- $r3
	.save	{r4, r5, r6, r7, lr}
	push	{r4, r5, r6, r7, lr}
	.cfi_def_cfa_offset 20
	.cfi_offset lr, -4
	.cfi_offset r7, -8
	.cfi_offset r6, -12
	.cfi_offset r5, -16
	.cfi_offset r4, -20
	.pad	#28
	sub	sp, #28
	.cfi_def_cfa_offset 48
	mov	r7, r3
	mov	r6, r2
	mov	r4, r1
	mov	r5, r0
.Ltmp132:
	@DEBUG_VALUE: mbedtls_hmac_drbg_random_with_add:ctx <- $r5
	@DEBUG_VALUE: mbedtls_hmac_drbg_random_with_add:add_len <- [DW_OP_plus_uconst 48] [$sp+0]
	@DEBUG_VALUE: mbedtls_hmac_drbg_random_with_add:additional <- $r7
	@DEBUG_VALUE: mbedtls_hmac_drbg_random_with_add:out_len <- $r6
	@DEBUG_VALUE: mbedtls_hmac_drbg_random_with_add:output <- $r4
	@DEBUG_VALUE: mbedtls_hmac_drbg_random_with_add:p_rng <- $r5
	.loc	2 289 54 prologue_end           @ ../../../ThirdParty/mbedTLS/library/hmac_drbg.c:289:54
	ldr	r0, [r0]
	.loc	2 289 21 is_stmt 0              @ ../../../ThirdParty/mbedTLS/library/hmac_drbg.c:289:21
	bl	mbedtls_md_get_size
	mov	r3, r0
.Ltmp133:
	@DEBUG_VALUE: mbedtls_hmac_drbg_random_with_add:md_len <- $r3
	.loc	2 0 21                          @ ../../../ThirdParty/mbedTLS/library/hmac_drbg.c:0:21
	movs	r0, #4
	mvns	r0, r0
.Ltmp134:
	@DEBUG_VALUE: mbedtls_hmac_drbg_random_with_add:out <- undef
	movw	r1, #1024
.Ltmp135:
	@DEBUG_VALUE: mbedtls_hmac_drbg_random_with_add:left <- $r6
	.loc	2 294 9 is_stmt 1               @ ../../../ThirdParty/mbedTLS/library/hmac_drbg.c:294:9
	cmp	r6, r1
	bls	.LBB9_2
.Ltmp136:
@ %bb.1:
	@DEBUG_VALUE: mbedtls_hmac_drbg_random_with_add:additional <- $r7
	@DEBUG_VALUE: mbedtls_hmac_drbg_random_with_add:left <- $r6
	@DEBUG_VALUE: mbedtls_hmac_drbg_random_with_add:out_len <- $r6
	@DEBUG_VALUE: mbedtls_hmac_drbg_random_with_add:p_rng <- $r5
	@DEBUG_VALUE: mbedtls_hmac_drbg_random_with_add:ctx <- $r5
	@DEBUG_VALUE: mbedtls_hmac_drbg_random_with_add:output <- $r4
	@DEBUG_VALUE: mbedtls_hmac_drbg_random_with_add:md_len <- $r3
	@DEBUG_VALUE: mbedtls_hmac_drbg_random_with_add:add_len <- [DW_OP_plus_uconst 48] [$sp+0]
	.loc	2 0 9 is_stmt 0                 @ ../../../ThirdParty/mbedTLS/library/hmac_drbg.c:0:9
	adds	r0, r0, #2
	.loc	2 349 1 is_stmt 1               @ ../../../ThirdParty/mbedTLS/library/hmac_drbg.c:349:1
	add	sp, #28
.Ltmp137:
	pop	{r4, r5, r6, r7, pc}
.Ltmp138:
.LBB9_2:
	@DEBUG_VALUE: mbedtls_hmac_drbg_random_with_add:additional <- $r7
	@DEBUG_VALUE: mbedtls_hmac_drbg_random_with_add:left <- $r6
	@DEBUG_VALUE: mbedtls_hmac_drbg_random_with_add:out_len <- $r6
	@DEBUG_VALUE: mbedtls_hmac_drbg_random_with_add:p_rng <- $r5
	@DEBUG_VALUE: mbedtls_hmac_drbg_random_with_add:ctx <- $r5
	@DEBUG_VALUE: mbedtls_hmac_drbg_random_with_add:output <- $r4
	@DEBUG_VALUE: mbedtls_hmac_drbg_random_with_add:md_len <- $r3
	@DEBUG_VALUE: mbedtls_hmac_drbg_random_with_add:add_len <- [DW_OP_plus_uconst 48] [$sp+0]
	.loc	2 0 1 is_stmt 0                 @ ../../../ThirdParty/mbedTLS/library/hmac_drbg.c:0:1
	str	r6, [sp, #24]                   @ 4-byte Spill
.Ltmp139:
	@DEBUG_VALUE: mbedtls_hmac_drbg_random_with_add:out_len <- [DW_OP_plus_uconst 24] [$sp+0]
	str	r7, [sp, #12]                   @ 4-byte Spill
.Ltmp140:
	@DEBUG_VALUE: mbedtls_hmac_drbg_random_with_add:additional <- [DW_OP_plus_uconst 12] [$sp+0]
	ldr	r2, [sp, #48]
	movw	r1, #256
	str	r2, [sp, #8]                    @ 4-byte Spill
	.loc	2 298 9 is_stmt 1               @ ../../../ThirdParty/mbedTLS/library/hmac_drbg.c:298:9
	cmp	r2, r1
	bhi	.LBB9_7
.Ltmp141:
@ %bb.3:
	@DEBUG_VALUE: mbedtls_hmac_drbg_random_with_add:additional <- [DW_OP_plus_uconst 12] [$sp+0]
	@DEBUG_VALUE: mbedtls_hmac_drbg_random_with_add:out_len <- [DW_OP_plus_uconst 24] [$sp+0]
	@DEBUG_VALUE: mbedtls_hmac_drbg_random_with_add:left <- $r6
	@DEBUG_VALUE: mbedtls_hmac_drbg_random_with_add:p_rng <- $r5
	@DEBUG_VALUE: mbedtls_hmac_drbg_random_with_add:ctx <- $r5
	@DEBUG_VALUE: mbedtls_hmac_drbg_random_with_add:output <- $r4
	@DEBUG_VALUE: mbedtls_hmac_drbg_random_with_add:md_len <- $r3
	@DEBUG_VALUE: mbedtls_hmac_drbg_random_with_add:add_len <- [DW_OP_plus_uconst 48] [$sp+0]
	.loc	2 0 9 is_stmt 0                 @ ../../../ThirdParty/mbedTLS/library/hmac_drbg.c:0:9
	mov	r2, r5
.Ltmp142:
	.loc	2 302 14 is_stmt 1              @ ../../../ThirdParty/mbedTLS/library/hmac_drbg.c:302:14
	ldr	r0, [r5, #92]
	str	r5, [sp, #4]                    @ 4-byte Spill
	.loc	2 302 32 is_stmt 0              @ ../../../ThirdParty/mbedTLS/library/hmac_drbg.c:302:32
	cbz	r0, .LBB9_9
.Ltmp143:
@ %bb.4:
	@DEBUG_VALUE: mbedtls_hmac_drbg_random_with_add:additional <- [DW_OP_plus_uconst 12] [$sp+0]
	@DEBUG_VALUE: mbedtls_hmac_drbg_random_with_add:out_len <- [DW_OP_plus_uconst 24] [$sp+0]
	@DEBUG_VALUE: mbedtls_hmac_drbg_random_with_add:left <- $r6
	@DEBUG_VALUE: mbedtls_hmac_drbg_random_with_add:p_rng <- $r5
	@DEBUG_VALUE: mbedtls_hmac_drbg_random_with_add:ctx <- $r5
	@DEBUG_VALUE: mbedtls_hmac_drbg_random_with_add:output <- $r4
	@DEBUG_VALUE: mbedtls_hmac_drbg_random_with_add:md_len <- $r3
	@DEBUG_VALUE: mbedtls_hmac_drbg_random_with_add:add_len <- [DW_OP_plus_uconst 48] [$sp+0]
	.loc	2 303 20 is_stmt 1              @ ../../../ThirdParty/mbedTLS/library/hmac_drbg.c:303:20
	ldr	r0, [r2, #84]
	.loc	2 303 69 is_stmt 0              @ ../../../ThirdParty/mbedTLS/library/hmac_drbg.c:303:69
	cmp	r0, #1
	beq	.LBB9_6
.Ltmp144:
@ %bb.5:
	@DEBUG_VALUE: mbedtls_hmac_drbg_random_with_add:additional <- [DW_OP_plus_uconst 12] [$sp+0]
	@DEBUG_VALUE: mbedtls_hmac_drbg_random_with_add:out_len <- [DW_OP_plus_uconst 24] [$sp+0]
	@DEBUG_VALUE: mbedtls_hmac_drbg_random_with_add:left <- $r6
	@DEBUG_VALUE: mbedtls_hmac_drbg_random_with_add:p_rng <- $r5
	@DEBUG_VALUE: mbedtls_hmac_drbg_random_with_add:ctx <- $r5
	@DEBUG_VALUE: mbedtls_hmac_drbg_random_with_add:output <- $r4
	@DEBUG_VALUE: mbedtls_hmac_drbg_random_with_add:md_len <- $r3
	@DEBUG_VALUE: mbedtls_hmac_drbg_random_with_add:add_len <- [DW_OP_plus_uconst 48] [$sp+0]
	.loc	2 304 42 is_stmt 1              @ ../../../ThirdParty/mbedTLS/library/hmac_drbg.c:304:42
	ldr	r0, [r2, #88]
	.loc	2 304 20 is_stmt 0              @ ../../../ThirdParty/mbedTLS/library/hmac_drbg.c:304:20
	ldr	r1, [r2, #76]
.Ltmp145:
	.loc	2 302 9 is_stmt 1               @ ../../../ThirdParty/mbedTLS/library/hmac_drbg.c:302:9
	cmp	r1, r0
	ble	.LBB9_9
.Ltmp146:
.LBB9_6:
	@DEBUG_VALUE: mbedtls_hmac_drbg_random_with_add:additional <- [DW_OP_plus_uconst 12] [$sp+0]
	@DEBUG_VALUE: mbedtls_hmac_drbg_random_with_add:out_len <- [DW_OP_plus_uconst 24] [$sp+0]
	@DEBUG_VALUE: mbedtls_hmac_drbg_random_with_add:left <- $r6
	@DEBUG_VALUE: mbedtls_hmac_drbg_random_with_add:p_rng <- $r5
	@DEBUG_VALUE: mbedtls_hmac_drbg_random_with_add:ctx <- $r5
	@DEBUG_VALUE: mbedtls_hmac_drbg_random_with_add:output <- $r4
	@DEBUG_VALUE: mbedtls_hmac_drbg_random_with_add:md_len <- $r3
	@DEBUG_VALUE: mbedtls_hmac_drbg_random_with_add:add_len <- [DW_OP_plus_uconst 48] [$sp+0]
	.loc	2 306 21                        @ ../../../ThirdParty/mbedTLS/library/hmac_drbg.c:306:21
	mov	r0, r2
	ldr	r1, [sp, #12]                   @ 4-byte Reload
.Ltmp147:
	@DEBUG_VALUE: mbedtls_hmac_drbg_random_with_add:additional <- $r1
	ldr	r2, [sp, #8]                    @ 4-byte Reload
	mov	r5, r3
.Ltmp148:
	@DEBUG_VALUE: mbedtls_hmac_drbg_random_with_add:md_len <- $r5
	bl	mbedtls_hmac_drbg_reseed
.Ltmp149:
	.loc	2 0 21 is_stmt 0                @ ../../../ThirdParty/mbedTLS/library/hmac_drbg.c:0:21
	ldr	r2, [sp, #4]                    @ 4-byte Reload
.Ltmp150:
	@DEBUG_VALUE: mbedtls_hmac_drbg_random_with_add:ret <- $r0
	.loc	2 306 13                        @ ../../../ThirdParty/mbedTLS/library/hmac_drbg.c:306:13
	cbz	r0, .LBB9_8
.Ltmp151:
.LBB9_7:
	.loc	2 349 1 is_stmt 1               @ ../../../ThirdParty/mbedTLS/library/hmac_drbg.c:349:1
	add	sp, #28
	pop	{r4, r5, r6, r7, pc}
.LBB9_8:
.Ltmp152:
	@DEBUG_VALUE: mbedtls_hmac_drbg_random_with_add:out_len <- [DW_OP_plus_uconst 24] [$sp+0]
	@DEBUG_VALUE: mbedtls_hmac_drbg_random_with_add:left <- $r6
	@DEBUG_VALUE: mbedtls_hmac_drbg_random_with_add:md_len <- $r5
	@DEBUG_VALUE: mbedtls_hmac_drbg_random_with_add:output <- $r4
	@DEBUG_VALUE: mbedtls_hmac_drbg_random_with_add:ret <- $r0
	@DEBUG_VALUE: mbedtls_hmac_drbg_random_with_add:add_len <- [DW_OP_plus_uconst 48] [$sp+0]
	.loc	2 0 1 is_stmt 0                 @ ../../../ThirdParty/mbedTLS/library/hmac_drbg.c:0:1
	mov	r3, r5
	movs	r0, #0
.Ltmp153:
	str	r0, [sp, #8]                    @ 4-byte Spill
.Ltmp154:
.LBB9_9:
	@DEBUG_VALUE: mbedtls_hmac_drbg_random_with_add:out_len <- [DW_OP_plus_uconst 24] [$sp+0]
	@DEBUG_VALUE: mbedtls_hmac_drbg_random_with_add:left <- $r6
	@DEBUG_VALUE: mbedtls_hmac_drbg_random_with_add:output <- $r4
	@DEBUG_VALUE: mbedtls_hmac_drbg_random_with_add:add_len <- [DW_OP_plus_uconst 48] [$sp+0]
	ldr	r0, [sp, #12]                   @ 4-byte Reload
.Ltmp155:
	@DEBUG_VALUE: mbedtls_hmac_drbg_random_with_add:add_len <- [DW_OP_plus_uconst 8] [$sp+0]
	.loc	2 313 28 is_stmt 1              @ ../../../ThirdParty/mbedTLS/library/hmac_drbg.c:313:28
	cbz	r0, .LBB9_12
.Ltmp156:
@ %bb.10:
	@DEBUG_VALUE: mbedtls_hmac_drbg_random_with_add:out_len <- [DW_OP_plus_uconst 24] [$sp+0]
	@DEBUG_VALUE: mbedtls_hmac_drbg_random_with_add:left <- $r6
	@DEBUG_VALUE: mbedtls_hmac_drbg_random_with_add:output <- $r4
	@DEBUG_VALUE: mbedtls_hmac_drbg_random_with_add:add_len <- [DW_OP_plus_uconst 8] [$sp+0]
	ldr	r0, [sp, #8]                    @ 4-byte Reload
	cbz	r0, .LBB9_12
.Ltmp157:
@ %bb.11:
	@DEBUG_VALUE: mbedtls_hmac_drbg_random_with_add:out_len <- [DW_OP_plus_uconst 24] [$sp+0]
	@DEBUG_VALUE: mbedtls_hmac_drbg_random_with_add:left <- $r6
	@DEBUG_VALUE: mbedtls_hmac_drbg_random_with_add:output <- $r4
	@DEBUG_VALUE: mbedtls_hmac_drbg_random_with_add:add_len <- [DW_OP_plus_uconst 8] [$sp+0]
	.loc	2 315 21                        @ ../../../ThirdParty/mbedTLS/library/hmac_drbg.c:315:21
	mov	r0, r2
	ldr	r1, [sp, #12]                   @ 4-byte Reload
	ldr	r2, [sp, #8]                    @ 4-byte Reload
	mov	r5, r3
	bl	mbedtls_hmac_drbg_update_ret
	mov	r3, r5
	ldr	r2, [sp, #4]                    @ 4-byte Reload
.Ltmp158:
	@DEBUG_VALUE: mbedtls_hmac_drbg_random_with_add:ret <- $r0
	.loc	2 315 13 is_stmt 0              @ ../../../ThirdParty/mbedTLS/library/hmac_drbg.c:315:13
	cmp	r0, #0
	bne	.LBB9_7
.Ltmp159:
.LBB9_12:
	@DEBUG_VALUE: mbedtls_hmac_drbg_random_with_add:out_len <- [DW_OP_plus_uconst 24] [$sp+0]
	@DEBUG_VALUE: mbedtls_hmac_drbg_random_with_add:left <- $r6
	@DEBUG_VALUE: mbedtls_hmac_drbg_random_with_add:output <- $r4
	@DEBUG_VALUE: mbedtls_hmac_drbg_random_with_add:add_len <- [DW_OP_plus_uconst 8] [$sp+0]
	.loc	2 0 0                           @ ../../../ThirdParty/mbedTLS/library/hmac_drbg.c:0:0
	mov	r5, r2
	adds	r5, #12
	movs	r0, #0
	str	r0, [sp, #16]                   @ 4-byte Spill
	b	.LBB9_16
.Ltmp160:
.LBB9_13:                               @   in Loop: Header=BB9_16 Depth=1
	@DEBUG_VALUE: mbedtls_hmac_drbg_random_with_add:out <- $r4
	@DEBUG_VALUE: mbedtls_hmac_drbg_random_with_add:left <- [DW_OP_plus_uconst 24] [$sp+0]
	@DEBUG_VALUE: mbedtls_hmac_drbg_random_with_add:add_len <- [DW_OP_plus_uconst 8] [$sp+0]
	@DEBUG_VALUE: use_len <- $r3
	str	r3, [sp, #20]                   @ 4-byte Spill
.Ltmp161:
	@DEBUG_VALUE: use_len <- [DW_OP_plus_uconst 20] [$sp+0]
	@DEBUG_VALUE: use_len <- [DW_OP_plus_uconst 20] [$sp+0]
	@DEBUG_VALUE: use_len <- [DW_OP_plus_uconst 20] [$sp+0]
	.loc	2 325 21 is_stmt 1              @ ../../../ThirdParty/mbedTLS/library/hmac_drbg.c:325:21
	mov	r0, r2
	mov	r5, r2
	bl	mbedtls_md_hmac_reset
.Ltmp162:
	@DEBUG_VALUE: mbedtls_hmac_drbg_random_with_add:ret <- $r0
	.loc	2 325 13 is_stmt 0              @ ../../../ThirdParty/mbedTLS/library/hmac_drbg.c:325:13
	cbz	r0, .LBB9_19
.Ltmp163:
.LBB9_14:                               @   in Loop: Header=BB9_16 Depth=1
	@DEBUG_VALUE: mbedtls_hmac_drbg_random_with_add:out <- $r4
	@DEBUG_VALUE: mbedtls_hmac_drbg_random_with_add:ret <- $r0
	@DEBUG_VALUE: use_len <- [DW_OP_plus_uconst 20] [$sp+0]
	@DEBUG_VALUE: mbedtls_hmac_drbg_random_with_add:left <- [DW_OP_plus_uconst 24] [$sp+0]
	@DEBUG_VALUE: mbedtls_hmac_drbg_random_with_add:add_len <- [DW_OP_plus_uconst 8] [$sp+0]
	.loc	2 0 13                          @ ../../../ThirdParty/mbedTLS/library/hmac_drbg.c:0:13
	ldr	r1, [sp, #16]                   @ 4-byte Reload
	mov	r2, r5
	mov	r3, r6
	mov	r5, r7
.Ltmp164:
.LBB9_15:                               @   in Loop: Header=BB9_16 Depth=1
	@DEBUG_VALUE: mbedtls_hmac_drbg_random_with_add:out <- $r4
	@DEBUG_VALUE: use_len <- [DW_OP_plus_uconst 20] [$sp+0]
	@DEBUG_VALUE: mbedtls_hmac_drbg_random_with_add:left <- [DW_OP_plus_uconst 24] [$sp+0]
	@DEBUG_VALUE: mbedtls_hmac_drbg_random_with_add:add_len <- [DW_OP_plus_uconst 8] [$sp+0]
	@DEBUG_VALUE: mbedtls_hmac_drbg_random_with_add:out <- $r4
	@DEBUG_VALUE: mbedtls_hmac_drbg_random_with_add:left <- [DW_OP_plus_uconst 24] [$sp+0]
	@DEBUG_VALUE: mbedtls_hmac_drbg_random_with_add:ret <- $r0
	cmp	r1, #0
	beq	.LBB9_7
.Ltmp165:
.LBB9_16:                               @ =>This Inner Loop Header: Depth=1
	@DEBUG_VALUE: mbedtls_hmac_drbg_random_with_add:add_len <- [DW_OP_plus_uconst 8] [$sp+0]
	@DEBUG_VALUE: mbedtls_hmac_drbg_random_with_add:out <- $r4
	@DEBUG_VALUE: mbedtls_hmac_drbg_random_with_add:left <- [DW_OP_plus_uconst 24] [$sp+0]
	ldr	r0, [sp, #24]                   @ 4-byte Reload
.Ltmp166:
	@DEBUG_VALUE: mbedtls_hmac_drbg_random_with_add:out_len <- $r0
	.loc	2 321 5 is_stmt 1               @ ../../../ThirdParty/mbedTLS/library/hmac_drbg.c:321:5
	cbz	r0, .LBB9_24
.Ltmp167:
@ %bb.17:                               @   in Loop: Header=BB9_16 Depth=1
	@DEBUG_VALUE: mbedtls_hmac_drbg_random_with_add:out <- $r4
	@DEBUG_VALUE: mbedtls_hmac_drbg_random_with_add:left <- [DW_OP_plus_uconst 24] [$sp+0]
	@DEBUG_VALUE: mbedtls_hmac_drbg_random_with_add:add_len <- [DW_OP_plus_uconst 8] [$sp+0]
	.loc	2 0 5 is_stmt 0                 @ ../../../ThirdParty/mbedTLS/library/hmac_drbg.c:0:5
	mov	r7, r5
.Ltmp168:
	.loc	2 323 26 is_stmt 1              @ ../../../ThirdParty/mbedTLS/library/hmac_drbg.c:323:26
	cmp	r0, r3
	mov	r6, r3
	bhi	.LBB9_13
.Ltmp169:
@ %bb.18:                               @   in Loop: Header=BB9_16 Depth=1
	@DEBUG_VALUE: mbedtls_hmac_drbg_random_with_add:out <- $r4
	@DEBUG_VALUE: mbedtls_hmac_drbg_random_with_add:left <- [DW_OP_plus_uconst 24] [$sp+0]
	@DEBUG_VALUE: mbedtls_hmac_drbg_random_with_add:add_len <- [DW_OP_plus_uconst 8] [$sp+0]
	mov	r3, r0
	b	.LBB9_13
.Ltmp170:
.LBB9_19:                               @   in Loop: Header=BB9_16 Depth=1
	@DEBUG_VALUE: mbedtls_hmac_drbg_random_with_add:out <- $r4
	@DEBUG_VALUE: mbedtls_hmac_drbg_random_with_add:ret <- $r0
	@DEBUG_VALUE: use_len <- [DW_OP_plus_uconst 20] [$sp+0]
	@DEBUG_VALUE: mbedtls_hmac_drbg_random_with_add:left <- [DW_OP_plus_uconst 24] [$sp+0]
	@DEBUG_VALUE: mbedtls_hmac_drbg_random_with_add:add_len <- [DW_OP_plus_uconst 8] [$sp+0]
	.loc	2 327 21                        @ ../../../ThirdParty/mbedTLS/library/hmac_drbg.c:327:21
	mov	r0, r5
.Ltmp171:
	mov	r1, r7
	mov	r2, r6
	bl	mbedtls_md_hmac_update
.Ltmp172:
	@DEBUG_VALUE: mbedtls_hmac_drbg_random_with_add:ret <- $r0
	.loc	2 327 13 is_stmt 0              @ ../../../ThirdParty/mbedTLS/library/hmac_drbg.c:327:13
	cmp	r0, #0
	bne	.LBB9_14
.Ltmp173:
@ %bb.20:                               @   in Loop: Header=BB9_16 Depth=1
	@DEBUG_VALUE: mbedtls_hmac_drbg_random_with_add:out <- $r4
	@DEBUG_VALUE: mbedtls_hmac_drbg_random_with_add:ret <- $r0
	@DEBUG_VALUE: use_len <- [DW_OP_plus_uconst 20] [$sp+0]
	@DEBUG_VALUE: mbedtls_hmac_drbg_random_with_add:left <- [DW_OP_plus_uconst 24] [$sp+0]
	@DEBUG_VALUE: mbedtls_hmac_drbg_random_with_add:add_len <- [DW_OP_plus_uconst 8] [$sp+0]
	.loc	2 330 21 is_stmt 1              @ ../../../ThirdParty/mbedTLS/library/hmac_drbg.c:330:21
	mov	r0, r5
.Ltmp174:
	mov	r1, r7
	bl	mbedtls_md_hmac_finish
.Ltmp175:
	@DEBUG_VALUE: mbedtls_hmac_drbg_random_with_add:ret <- $r0
	.loc	2 0 21 is_stmt 0                @ ../../../ThirdParty/mbedTLS/library/hmac_drbg.c:0:21
	mov	r5, r7
.Ltmp176:
	.loc	2 330 13                        @ ../../../ThirdParty/mbedTLS/library/hmac_drbg.c:330:13
	cbz	r0, .LBB9_22
.Ltmp177:
@ %bb.21:                               @   in Loop: Header=BB9_16 Depth=1
	@DEBUG_VALUE: mbedtls_hmac_drbg_random_with_add:out <- $r4
	@DEBUG_VALUE: mbedtls_hmac_drbg_random_with_add:ret <- $r0
	@DEBUG_VALUE: use_len <- [DW_OP_plus_uconst 20] [$sp+0]
	@DEBUG_VALUE: mbedtls_hmac_drbg_random_with_add:left <- [DW_OP_plus_uconst 24] [$sp+0]
	@DEBUG_VALUE: mbedtls_hmac_drbg_random_with_add:add_len <- [DW_OP_plus_uconst 8] [$sp+0]
	.loc	2 0 13                          @ ../../../ThirdParty/mbedTLS/library/hmac_drbg.c:0:13
	ldr	r1, [sp, #16]                   @ 4-byte Reload
	b	.LBB9_23
.Ltmp178:
.LBB9_22:                               @   in Loop: Header=BB9_16 Depth=1
	@DEBUG_VALUE: mbedtls_hmac_drbg_random_with_add:out <- $r4
	@DEBUG_VALUE: mbedtls_hmac_drbg_random_with_add:ret <- $r0
	@DEBUG_VALUE: use_len <- [DW_OP_plus_uconst 20] [$sp+0]
	@DEBUG_VALUE: mbedtls_hmac_drbg_random_with_add:left <- [DW_OP_plus_uconst 24] [$sp+0]
	@DEBUG_VALUE: mbedtls_hmac_drbg_random_with_add:add_len <- [DW_OP_plus_uconst 8] [$sp+0]
	.loc	2 333 9 is_stmt 1               @ ../../../ThirdParty/mbedTLS/library/hmac_drbg.c:333:9
	mov	r0, r4
.Ltmp179:
	mov	r1, r5
	ldr	r7, [sp, #20]                   @ 4-byte Reload
	mov	r2, r7
	bl	__aeabi_memcpy
	.loc	2 335 14                        @ ../../../ThirdParty/mbedTLS/library/hmac_drbg.c:335:14
	ldr	r0, [sp, #24]                   @ 4-byte Reload
	subs	r0, r0, r7
.Ltmp180:
	@DEBUG_VALUE: mbedtls_hmac_drbg_random_with_add:left <- $r0
	.loc	2 334 13                        @ ../../../ThirdParty/mbedTLS/library/hmac_drbg.c:334:13
	str	r0, [sp, #24]                   @ 4-byte Spill
.Ltmp181:
	@DEBUG_VALUE: mbedtls_hmac_drbg_random_with_add:left <- [DW_OP_plus_uconst 24] [$sp+0]
	@DEBUG_VALUE: mbedtls_hmac_drbg_random_with_add:left <- [DW_OP_plus_uconst 24] [$sp+0]
	@DEBUG_VALUE: mbedtls_hmac_drbg_random_with_add:left <- [DW_OP_plus_uconst 24] [$sp+0]
	adds	r4, r4, r7
.Ltmp182:
	@DEBUG_VALUE: mbedtls_hmac_drbg_random_with_add:out <- $r4
	@DEBUG_VALUE: mbedtls_hmac_drbg_random_with_add:out <- $r4
	.loc	2 0 13 is_stmt 0                @ ../../../ThirdParty/mbedTLS/library/hmac_drbg.c:0:13
	movs	r1, #1
	movs	r0, #0
.Ltmp183:
.LBB9_23:                               @   in Loop: Header=BB9_16 Depth=1
	@DEBUG_VALUE: mbedtls_hmac_drbg_random_with_add:out <- $r4
	@DEBUG_VALUE: use_len <- [DW_OP_plus_uconst 20] [$sp+0]
	@DEBUG_VALUE: mbedtls_hmac_drbg_random_with_add:left <- [DW_OP_plus_uconst 24] [$sp+0]
	@DEBUG_VALUE: mbedtls_hmac_drbg_random_with_add:add_len <- [DW_OP_plus_uconst 8] [$sp+0]
	ldr	r2, [sp, #4]                    @ 4-byte Reload
	mov	r3, r6
	b	.LBB9_15
.Ltmp184:
.LBB9_24:
	@DEBUG_VALUE: mbedtls_hmac_drbg_random_with_add:out <- $r4
	@DEBUG_VALUE: mbedtls_hmac_drbg_random_with_add:left <- [DW_OP_plus_uconst 24] [$sp+0]
	@DEBUG_VALUE: mbedtls_hmac_drbg_random_with_add:add_len <- [DW_OP_plus_uconst 8] [$sp+0]
	.loc	2 339 17 is_stmt 1              @ ../../../ThirdParty/mbedTLS/library/hmac_drbg.c:339:17
	mov	r0, r2
	ldr	r1, [sp, #12]                   @ 4-byte Reload
	ldr	r2, [sp, #8]                    @ 4-byte Reload
	bl	mbedtls_hmac_drbg_update_ret
	ldr	r1, [sp, #4]                    @ 4-byte Reload
.Ltmp185:
	@DEBUG_VALUE: mbedtls_hmac_drbg_random_with_add:ret <- $r0
	.loc	2 339 9 is_stmt 0               @ ../../../ThirdParty/mbedTLS/library/hmac_drbg.c:339:9
	cmp	r0, #0
	bne	.LBB9_7
.Ltmp186:
@ %bb.25:
	@DEBUG_VALUE: mbedtls_hmac_drbg_random_with_add:out <- $r4
	@DEBUG_VALUE: mbedtls_hmac_drbg_random_with_add:ret <- $r0
	@DEBUG_VALUE: mbedtls_hmac_drbg_random_with_add:left <- [DW_OP_plus_uconst 24] [$sp+0]
	@DEBUG_VALUE: mbedtls_hmac_drbg_random_with_add:add_len <- [DW_OP_plus_uconst 8] [$sp+0]
	.loc	2 344 24 is_stmt 1              @ ../../../ThirdParty/mbedTLS/library/hmac_drbg.c:344:24
	ldr	r0, [r1, #76]
.Ltmp187:
	adds	r0, r0, #1
	str	r0, [r1, #76]
	movs	r0, #0
	.loc	2 349 1                         @ ../../../ThirdParty/mbedTLS/library/hmac_drbg.c:349:1
	add	sp, #28
.Ltmp188:
	pop	{r4, r5, r6, r7, pc}
.Ltmp189:
.Lfunc_end9:
	.size	mbedtls_hmac_drbg_random_with_add, .Lfunc_end9-mbedtls_hmac_drbg_random_with_add
	.cfi_endproc
	.cantunwind
	.fnend
                                        @ -- End function
	.section	.text.mbedtls_hmac_drbg_random,"ax",%progbits
	.hidden	mbedtls_hmac_drbg_random        @ -- Begin function mbedtls_hmac_drbg_random
	.globl	mbedtls_hmac_drbg_random
	.p2align	1
	.type	mbedtls_hmac_drbg_random,%function
	.code	16                              @ @mbedtls_hmac_drbg_random
	.thumb_func
mbedtls_hmac_drbg_random:
.Lfunc_begin10:
	.loc	2 355 0                         @ ../../../ThirdParty/mbedTLS/library/hmac_drbg.c:355:0
	.fnstart
	.cfi_startproc
@ %bb.0:
	@DEBUG_VALUE: mbedtls_hmac_drbg_random:p_rng <- $r0
	@DEBUG_VALUE: mbedtls_hmac_drbg_random:p_rng <- $r0
	@DEBUG_VALUE: mbedtls_hmac_drbg_random:output <- $r1
	@DEBUG_VALUE: mbedtls_hmac_drbg_random:output <- $r1
	@DEBUG_VALUE: mbedtls_hmac_drbg_random:out_len <- $r2
	@DEBUG_VALUE: mbedtls_hmac_drbg_random:out_len <- $r2
	.save	{r7, lr}
	push	{r7, lr}
	.cfi_def_cfa_offset 8
	.cfi_offset lr, -4
	.cfi_offset r7, -8
	.pad	#8
	sub	sp, #8
	.cfi_def_cfa_offset 16
.Ltmp190:
	@DEBUG_VALUE: mbedtls_hmac_drbg_random:ctx <- $r0
	@DEBUG_VALUE: mbedtls_hmac_drbg_random:ctx <- $r0
	movs	r3, #0
.Ltmp191:
	.loc	2 364 11 prologue_end           @ ../../../ThirdParty/mbedTLS/library/hmac_drbg.c:364:11
	str	r3, [sp]
	@DEBUG_VALUE: mbedtls_hmac_drbg_random:ctx <- $r0
	@DEBUG_VALUE: mbedtls_hmac_drbg_random:out_len <- $r2
	@DEBUG_VALUE: mbedtls_hmac_drbg_random:output <- $r1
	@DEBUG_VALUE: mbedtls_hmac_drbg_random:p_rng <- $r0
	bl	mbedtls_hmac_drbg_random_with_add
.Ltmp192:
	@DEBUG_VALUE: mbedtls_hmac_drbg_random:out_len <- [DW_OP_LLVM_entry_value 1] $r2
	@DEBUG_VALUE: mbedtls_hmac_drbg_random:output <- [DW_OP_LLVM_entry_value 1] $r1
	@DEBUG_VALUE: mbedtls_hmac_drbg_random:p_rng <- [DW_OP_LLVM_entry_value 1] $r0
	@DEBUG_VALUE: mbedtls_hmac_drbg_random:ret <- $r0
	.loc	2 371 5                         @ ../../../ThirdParty/mbedTLS/library/hmac_drbg.c:371:5
	add	sp, #8
	pop	{r7, pc}
.Ltmp193:
.Lfunc_end10:
	.size	mbedtls_hmac_drbg_random, .Lfunc_end10-mbedtls_hmac_drbg_random
	.cfi_endproc
	.cantunwind
	.fnend
                                        @ -- End function
	.section	.text.mbedtls_hmac_drbg_free,"ax",%progbits
	.hidden	mbedtls_hmac_drbg_free          @ -- Begin function mbedtls_hmac_drbg_free
	.globl	mbedtls_hmac_drbg_free
	.p2align	1
	.type	mbedtls_hmac_drbg_free,%function
	.code	16                              @ @mbedtls_hmac_drbg_free
	.thumb_func
mbedtls_hmac_drbg_free:
.Lfunc_begin11:
	.loc	2 378 0                         @ ../../../ThirdParty/mbedTLS/library/hmac_drbg.c:378:0
	.fnstart
	.cfi_startproc
@ %bb.0:
	@DEBUG_VALUE: mbedtls_hmac_drbg_free:ctx <- $r0
	@DEBUG_VALUE: mbedtls_hmac_drbg_free:ctx <- $r0
	.save	{r4, lr}
	push	{r4, lr}
	.cfi_def_cfa_offset 8
	.cfi_offset lr, -4
	.cfi_offset r4, -8
.Ltmp194:
	.loc	2 379 9 prologue_end            @ ../../../ThirdParty/mbedTLS/library/hmac_drbg.c:379:9
	cbz	r0, .LBB11_2
.Ltmp195:
@ %bb.1:
	@DEBUG_VALUE: mbedtls_hmac_drbg_free:ctx <- $r0
	.loc	2 0 9 is_stmt 0                 @ ../../../ThirdParty/mbedTLS/library/hmac_drbg.c:0:9
	mov	r4, r0
.Ltmp196:
	@DEBUG_VALUE: mbedtls_hmac_drbg_free:ctx <- $r4
	.loc	2 385 5 is_stmt 1               @ ../../../ThirdParty/mbedTLS/library/hmac_drbg.c:385:5
	bl	mbedtls_md_free
	movs	r1, #100
	.loc	2 386 5                         @ ../../../ThirdParty/mbedTLS/library/hmac_drbg.c:386:5
	mov	r0, r4
	bl	mbedtls_platform_zeroize
.Ltmp197:
.LBB11_2:
	.loc	2 387 1                         @ ../../../ThirdParty/mbedTLS/library/hmac_drbg.c:387:1
	pop	{r4, pc}
.Ltmp198:
.Lfunc_end11:
	.size	mbedtls_hmac_drbg_free, .Lfunc_end11-mbedtls_hmac_drbg_free
	.cfi_endproc
	.cantunwind
	.fnend
                                        @ -- End function
	.section	.text.mbedtls_hmac_drbg_self_test,"ax",%progbits
	.hidden	mbedtls_hmac_drbg_self_test     @ -- Begin function mbedtls_hmac_drbg_self_test
	.globl	mbedtls_hmac_drbg_self_test
	.p2align	2
	.type	mbedtls_hmac_drbg_self_test,%function
	.code	16                              @ @mbedtls_hmac_drbg_self_test
	.thumb_func
mbedtls_hmac_drbg_self_test:
.Lfunc_begin12:
	.loc	2 525 0                         @ ../../../ThirdParty/mbedTLS/library/hmac_drbg.c:525:0
	.fnstart
	.cfi_startproc
@ %bb.0:
	@DEBUG_VALUE: mbedtls_hmac_drbg_self_test:verbose <- $r0
	.save	{r4, r5, r6, r7, lr}
	push	{r4, r5, r6, r7, lr}
	.cfi_def_cfa_offset 20
	.cfi_offset lr, -4
	.cfi_offset r7, -8
	.cfi_offset r6, -12
	.cfi_offset r5, -16
	.cfi_offset r4, -20
	.pad	#196
	sub	sp, #196
	.cfi_def_cfa_offset 216
	mov	r5, r0
.Ltmp199:
	@DEBUG_VALUE: mbedtls_hmac_drbg_self_test:verbose <- $r5
	movs	r0, #4
.Ltmp200:
	.loc	2 528 40 prologue_end           @ ../../../ThirdParty/mbedTLS/library/hmac_drbg.c:528:40
	bl	mbedtls_md_info_from_type
	mov	r6, r0
.Ltmp201:
	@DEBUG_VALUE: mbedtls_hmac_drbg_self_test:md_info <- $r6
	.loc	2 0 40 is_stmt 0                @ ../../../ThirdParty/mbedTLS/library/hmac_drbg.c:0:40
	add	r0, sp, #96
	.loc	2 530 5 is_stmt 1               @ ../../../ThirdParty/mbedTLS/library/hmac_drbg.c:530:5
	bl	mbedtls_hmac_drbg_init
	.loc	2 535 9                         @ ../../../ThirdParty/mbedTLS/library/hmac_drbg.c:535:9
	cbz	r5, .LBB12_2
.Ltmp202:
@ %bb.1:
	@DEBUG_VALUE: mbedtls_hmac_drbg_self_test:md_info <- $r6
	@DEBUG_VALUE: mbedtls_hmac_drbg_self_test:verbose <- $r5
	.loc	2 536 9                         @ ../../../ThirdParty/mbedTLS/library/hmac_drbg.c:536:9
	adr	r0, .LCPI12_0
	bl	__2printf
.Ltmp203:
.LBB12_2:
	@DEBUG_VALUE: mbedtls_hmac_drbg_self_test:md_info <- $r6
	@DEBUG_VALUE: mbedtls_hmac_drbg_self_test:verbose <- $r5
	.loc	2 538 17                        @ ../../../ThirdParty/mbedTLS/library/hmac_drbg.c:538:17
	ldr	r0, __arm_cp.12_1
	movs	r4, #0
	str	r4, [r0]
.Ltmp204:
	.loc	2 539 5                         @ ../../../ThirdParty/mbedTLS/library/hmac_drbg.c:539:5
	str	r4, [sp]
	str	r4, [sp, #4]
	add	r0, sp, #96
	ldr	r2, __arm_cp.12_2
	ldr	r3, __arm_cp.12_3
	mov	r1, r6
	bl	mbedtls_hmac_drbg_seed
.Ltmp205:
	.loc	2 539 5 is_stmt 0               @ ../../../ThirdParty/mbedTLS/library/hmac_drbg.c:539:5
	cbz	r0, .LBB12_5
.Ltmp206:
@ %bb.3:
	@DEBUG_VALUE: mbedtls_hmac_drbg_self_test:md_info <- $r6
	@DEBUG_VALUE: mbedtls_hmac_drbg_self_test:verbose <- $r5
	.loc	2 0 5                           @ ../../../ThirdParty/mbedTLS/library/hmac_drbg.c:0:5
	movs	r6, #1
.Ltmp207:
	.loc	2 539 5                         @ ../../../ThirdParty/mbedTLS/library/hmac_drbg.c:539:5
	cmp	r5, #0
	bne	.LBB12_4
	b	.LBB12_41
.Ltmp208:
.LBB12_4:
	@DEBUG_VALUE: mbedtls_hmac_drbg_self_test:verbose <- $r5
	.loc	2 539 5                         @ ../../../ThirdParty/mbedTLS/library/hmac_drbg.c:539:5
	adr	r0, .LCPI12_4
	bl	puts
	b	.LBB12_41
.Ltmp209:
.LBB12_5:
	@DEBUG_VALUE: mbedtls_hmac_drbg_self_test:md_info <- $r6
	@DEBUG_VALUE: mbedtls_hmac_drbg_self_test:verbose <- $r5
	.loc	2 0 5                           @ ../../../ThirdParty/mbedTLS/library/hmac_drbg.c:0:5
	add	r7, sp, #96
	movs	r1, #1
	.loc	2 542 5 is_stmt 1               @ ../../../ThirdParty/mbedTLS/library/hmac_drbg.c:542:5
	mov	r0, r7
	str	r1, [sp, #12]                   @ 4-byte Spill
	bl	mbedtls_hmac_drbg_set_prediction_resistance
	add	r1, sp, #16
	movs	r2, #80
.Ltmp210:
	.loc	2 543 5                         @ ../../../ThirdParty/mbedTLS/library/hmac_drbg.c:543:5
	mov	r0, r7
	bl	mbedtls_hmac_drbg_random
.Ltmp211:
	.loc	2 543 5 is_stmt 0               @ ../../../ThirdParty/mbedTLS/library/hmac_drbg.c:543:5
	cbz	r0, .LBB12_8
.Ltmp212:
@ %bb.6:
	@DEBUG_VALUE: mbedtls_hmac_drbg_self_test:md_info <- $r6
	@DEBUG_VALUE: mbedtls_hmac_drbg_self_test:verbose <- $r5
	.loc	2 543 5                         @ ../../../ThirdParty/mbedTLS/library/hmac_drbg.c:543:5
	cbz	r5, .LBB12_11
.Ltmp213:
@ %bb.7:
	@DEBUG_VALUE: mbedtls_hmac_drbg_self_test:md_info <- $r6
	@DEBUG_VALUE: mbedtls_hmac_drbg_self_test:verbose <- $r5
	.loc	2 543 5                         @ ../../../ThirdParty/mbedTLS/library/hmac_drbg.c:543:5
	adr	r0, .LCPI12_4
	bl	puts
	ldr	r6, [sp, #12]                   @ 4-byte Reload
.Ltmp214:
	b	.LBB12_41
.Ltmp215:
.LBB12_8:
	@DEBUG_VALUE: mbedtls_hmac_drbg_self_test:md_info <- $r6
	@DEBUG_VALUE: mbedtls_hmac_drbg_self_test:verbose <- $r5
	.loc	2 0 5                           @ ../../../ThirdParty/mbedTLS/library/hmac_drbg.c:0:5
	add	r0, sp, #96
	add	r1, sp, #16
	movs	r2, #80
.Ltmp216:
	.loc	2 544 5 is_stmt 1               @ ../../../ThirdParty/mbedTLS/library/hmac_drbg.c:544:5
	bl	mbedtls_hmac_drbg_random
.Ltmp217:
	.loc	2 544 5 is_stmt 0               @ ../../../ThirdParty/mbedTLS/library/hmac_drbg.c:544:5
	cbz	r0, .LBB12_12
.Ltmp218:
@ %bb.9:
	@DEBUG_VALUE: mbedtls_hmac_drbg_self_test:md_info <- $r6
	@DEBUG_VALUE: mbedtls_hmac_drbg_self_test:verbose <- $r5
	.loc	2 544 5                         @ ../../../ThirdParty/mbedTLS/library/hmac_drbg.c:544:5
	cbz	r5, .LBB12_15
.Ltmp219:
@ %bb.10:
	@DEBUG_VALUE: mbedtls_hmac_drbg_self_test:md_info <- $r6
	@DEBUG_VALUE: mbedtls_hmac_drbg_self_test:verbose <- $r5
	.loc	2 544 5                         @ ../../../ThirdParty/mbedTLS/library/hmac_drbg.c:544:5
	adr	r0, .LCPI12_4
	bl	puts
	ldr	r6, [sp, #12]                   @ 4-byte Reload
.Ltmp220:
	b	.LBB12_41
.Ltmp221:
.LBB12_11:
	@DEBUG_VALUE: mbedtls_hmac_drbg_self_test:md_info <- $r6
	@DEBUG_VALUE: mbedtls_hmac_drbg_self_test:verbose <- $r5
	.loc	2 0 5                           @ ../../../ThirdParty/mbedTLS/library/hmac_drbg.c:0:5
	ldr	r6, [sp, #12]                   @ 4-byte Reload
.Ltmp222:
	b	.LBB12_41
.Ltmp223:
.LBB12_12:
	@DEBUG_VALUE: mbedtls_hmac_drbg_self_test:md_info <- $r6
	@DEBUG_VALUE: mbedtls_hmac_drbg_self_test:verbose <- $r5
	add	r0, sp, #16
.Ltmp224:
	.loc	2 545 5 is_stmt 1               @ ../../../ThirdParty/mbedTLS/library/hmac_drbg.c:545:5
	ldr	r1, __arm_cp.12_5
	movs	r2, #80
	bl	memcmp
.Ltmp225:
	.loc	2 545 5 is_stmt 0               @ ../../../ThirdParty/mbedTLS/library/hmac_drbg.c:545:5
	cbz	r0, .LBB12_16
.Ltmp226:
@ %bb.13:
	@DEBUG_VALUE: mbedtls_hmac_drbg_self_test:md_info <- $r6
	@DEBUG_VALUE: mbedtls_hmac_drbg_self_test:verbose <- $r5
	.loc	2 545 5                         @ ../../../ThirdParty/mbedTLS/library/hmac_drbg.c:545:5
	cbz	r5, .LBB12_21
.Ltmp227:
@ %bb.14:
	@DEBUG_VALUE: mbedtls_hmac_drbg_self_test:md_info <- $r6
	@DEBUG_VALUE: mbedtls_hmac_drbg_self_test:verbose <- $r5
	.loc	2 545 5                         @ ../../../ThirdParty/mbedTLS/library/hmac_drbg.c:545:5
	adr	r0, .LCPI12_4
	bl	puts
	ldr	r6, [sp, #12]                   @ 4-byte Reload
.Ltmp228:
	b	.LBB12_41
.Ltmp229:
.LBB12_15:
	@DEBUG_VALUE: mbedtls_hmac_drbg_self_test:md_info <- $r6
	@DEBUG_VALUE: mbedtls_hmac_drbg_self_test:verbose <- $r5
	.loc	2 0 5                           @ ../../../ThirdParty/mbedTLS/library/hmac_drbg.c:0:5
	ldr	r6, [sp, #12]                   @ 4-byte Reload
.Ltmp230:
	b	.LBB12_41
.Ltmp231:
.LBB12_16:
	@DEBUG_VALUE: mbedtls_hmac_drbg_self_test:md_info <- $r6
	@DEBUG_VALUE: mbedtls_hmac_drbg_self_test:verbose <- $r5
	add	r7, sp, #96
	.loc	2 546 5 is_stmt 1               @ ../../../ThirdParty/mbedTLS/library/hmac_drbg.c:546:5
	mov	r0, r7
	bl	mbedtls_hmac_drbg_free
	.loc	2 548 5                         @ ../../../ThirdParty/mbedTLS/library/hmac_drbg.c:548:5
	mov	r0, r7
	bl	mbedtls_hmac_drbg_free
	.loc	2 550 9                         @ ../../../ThirdParty/mbedTLS/library/hmac_drbg.c:550:9
	cbz	r5, .LBB12_18
.Ltmp232:
@ %bb.17:
	@DEBUG_VALUE: mbedtls_hmac_drbg_self_test:md_info <- $r6
	@DEBUG_VALUE: mbedtls_hmac_drbg_self_test:verbose <- $r5
	.loc	2 551 9                         @ ../../../ThirdParty/mbedTLS/library/hmac_drbg.c:551:9
	adr	r0, .LCPI12_6
	bl	puts
.Ltmp233:
	.loc	2 557 9                         @ ../../../ThirdParty/mbedTLS/library/hmac_drbg.c:557:9
	adr	r0, .LCPI12_7
	bl	__2printf
.Ltmp234:
.LBB12_18:
	@DEBUG_VALUE: mbedtls_hmac_drbg_self_test:md_info <- $r6
	@DEBUG_VALUE: mbedtls_hmac_drbg_self_test:verbose <- $r5
	.loc	2 0 9 is_stmt 0                 @ ../../../ThirdParty/mbedTLS/library/hmac_drbg.c:0:9
	add	r7, sp, #96
	.loc	2 559 5 is_stmt 1               @ ../../../ThirdParty/mbedTLS/library/hmac_drbg.c:559:5
	mov	r0, r7
	bl	mbedtls_hmac_drbg_init
	.loc	2 561 17                        @ ../../../ThirdParty/mbedTLS/library/hmac_drbg.c:561:17
	ldr	r0, __arm_cp.12_1
	str	r4, [r0]
.Ltmp235:
	.loc	2 562 5                         @ ../../../ThirdParty/mbedTLS/library/hmac_drbg.c:562:5
	str	r4, [sp]
	str	r4, [sp, #4]
	ldr	r2, __arm_cp.12_2
	ldr	r3, __arm_cp.12_8
	mov	r0, r7
	mov	r1, r6
	bl	mbedtls_hmac_drbg_seed
.Ltmp236:
	.loc	2 562 5 is_stmt 0               @ ../../../ThirdParty/mbedTLS/library/hmac_drbg.c:562:5
	cbz	r0, .LBB12_22
.Ltmp237:
@ %bb.19:
	@DEBUG_VALUE: mbedtls_hmac_drbg_self_test:md_info <- $r6
	@DEBUG_VALUE: mbedtls_hmac_drbg_self_test:verbose <- $r5
	.loc	2 562 5                         @ ../../../ThirdParty/mbedTLS/library/hmac_drbg.c:562:5
	cbz	r5, .LBB12_25
.Ltmp238:
@ %bb.20:
	@DEBUG_VALUE: mbedtls_hmac_drbg_self_test:md_info <- $r6
	@DEBUG_VALUE: mbedtls_hmac_drbg_self_test:verbose <- $r5
	.loc	2 562 5                         @ ../../../ThirdParty/mbedTLS/library/hmac_drbg.c:562:5
	adr	r0, .LCPI12_4
	bl	puts
	ldr	r6, [sp, #12]                   @ 4-byte Reload
.Ltmp239:
	b	.LBB12_41
.Ltmp240:
.LBB12_21:
	@DEBUG_VALUE: mbedtls_hmac_drbg_self_test:md_info <- $r6
	@DEBUG_VALUE: mbedtls_hmac_drbg_self_test:verbose <- $r5
	.loc	2 0 5                           @ ../../../ThirdParty/mbedTLS/library/hmac_drbg.c:0:5
	ldr	r6, [sp, #12]                   @ 4-byte Reload
.Ltmp241:
	b	.LBB12_41
.Ltmp242:
.LBB12_22:
	@DEBUG_VALUE: mbedtls_hmac_drbg_self_test:md_info <- $r6
	@DEBUG_VALUE: mbedtls_hmac_drbg_self_test:verbose <- $r5
	add	r0, sp, #96
	movs	r6, #0
.Ltmp243:
	.loc	2 565 5 is_stmt 1               @ ../../../ThirdParty/mbedTLS/library/hmac_drbg.c:565:5
	mov	r1, r6
	mov	r2, r6
	bl	mbedtls_hmac_drbg_reseed
.Ltmp244:
	.loc	2 565 5 is_stmt 0               @ ../../../ThirdParty/mbedTLS/library/hmac_drbg.c:565:5
	cbz	r0, .LBB12_26
.Ltmp245:
@ %bb.23:
	@DEBUG_VALUE: mbedtls_hmac_drbg_self_test:verbose <- $r5
	.loc	2 565 5                         @ ../../../ThirdParty/mbedTLS/library/hmac_drbg.c:565:5
	cbz	r5, .LBB12_29
.Ltmp246:
@ %bb.24:
	@DEBUG_VALUE: mbedtls_hmac_drbg_self_test:verbose <- $r5
	.loc	2 565 5                         @ ../../../ThirdParty/mbedTLS/library/hmac_drbg.c:565:5
	adr	r0, .LCPI12_4
	bl	puts
	ldr	r6, [sp, #12]                   @ 4-byte Reload
	b	.LBB12_41
.Ltmp247:
.LBB12_25:
	@DEBUG_VALUE: mbedtls_hmac_drbg_self_test:md_info <- $r6
	@DEBUG_VALUE: mbedtls_hmac_drbg_self_test:verbose <- $r5
	.loc	2 0 5                           @ ../../../ThirdParty/mbedTLS/library/hmac_drbg.c:0:5
	ldr	r6, [sp, #12]                   @ 4-byte Reload
.Ltmp248:
	b	.LBB12_41
.Ltmp249:
.LBB12_26:
	@DEBUG_VALUE: mbedtls_hmac_drbg_self_test:verbose <- $r5
	add	r0, sp, #96
	add	r1, sp, #16
	movs	r2, #80
.Ltmp250:
	.loc	2 566 5 is_stmt 1               @ ../../../ThirdParty/mbedTLS/library/hmac_drbg.c:566:5
	bl	mbedtls_hmac_drbg_random
.Ltmp251:
	.loc	2 566 5 is_stmt 0               @ ../../../ThirdParty/mbedTLS/library/hmac_drbg.c:566:5
	cbz	r0, .LBB12_30
.Ltmp252:
@ %bb.27:
	@DEBUG_VALUE: mbedtls_hmac_drbg_self_test:verbose <- $r5
	.loc	2 566 5                         @ ../../../ThirdParty/mbedTLS/library/hmac_drbg.c:566:5
	cbz	r5, .LBB12_33
.Ltmp253:
@ %bb.28:
	@DEBUG_VALUE: mbedtls_hmac_drbg_self_test:verbose <- $r5
	.loc	2 566 5                         @ ../../../ThirdParty/mbedTLS/library/hmac_drbg.c:566:5
	adr	r0, .LCPI12_4
	bl	puts
	ldr	r6, [sp, #12]                   @ 4-byte Reload
	b	.LBB12_41
.Ltmp254:
.LBB12_29:
	@DEBUG_VALUE: mbedtls_hmac_drbg_self_test:verbose <- $r5
	.loc	2 0 5                           @ ../../../ThirdParty/mbedTLS/library/hmac_drbg.c:0:5
	ldr	r6, [sp, #12]                   @ 4-byte Reload
	b	.LBB12_41
.Ltmp255:
.LBB12_30:
	@DEBUG_VALUE: mbedtls_hmac_drbg_self_test:verbose <- $r5
	add	r0, sp, #96
	add	r1, sp, #16
	movs	r2, #80
.Ltmp256:
	.loc	2 567 5 is_stmt 1               @ ../../../ThirdParty/mbedTLS/library/hmac_drbg.c:567:5
	bl	mbedtls_hmac_drbg_random
.Ltmp257:
	.loc	2 567 5 is_stmt 0               @ ../../../ThirdParty/mbedTLS/library/hmac_drbg.c:567:5
	cbz	r0, .LBB12_34
.Ltmp258:
@ %bb.31:
	@DEBUG_VALUE: mbedtls_hmac_drbg_self_test:verbose <- $r5
	.loc	2 567 5                         @ ../../../ThirdParty/mbedTLS/library/hmac_drbg.c:567:5
	cbz	r5, .LBB12_37
.Ltmp259:
@ %bb.32:
	@DEBUG_VALUE: mbedtls_hmac_drbg_self_test:verbose <- $r5
	.loc	2 567 5                         @ ../../../ThirdParty/mbedTLS/library/hmac_drbg.c:567:5
	adr	r0, .LCPI12_4
	bl	puts
	ldr	r6, [sp, #12]                   @ 4-byte Reload
	b	.LBB12_41
.Ltmp260:
.LBB12_33:
	@DEBUG_VALUE: mbedtls_hmac_drbg_self_test:verbose <- $r5
	.loc	2 0 5                           @ ../../../ThirdParty/mbedTLS/library/hmac_drbg.c:0:5
	ldr	r6, [sp, #12]                   @ 4-byte Reload
	b	.LBB12_41
.Ltmp261:
.LBB12_34:
	@DEBUG_VALUE: mbedtls_hmac_drbg_self_test:verbose <- $r5
	add	r0, sp, #16
.Ltmp262:
	.loc	2 568 5 is_stmt 1               @ ../../../ThirdParty/mbedTLS/library/hmac_drbg.c:568:5
	ldr	r1, __arm_cp.12_9
	movs	r2, #80
	bl	memcmp
.Ltmp263:
	.loc	2 568 5 is_stmt 0               @ ../../../ThirdParty/mbedTLS/library/hmac_drbg.c:568:5
	cbz	r0, .LBB12_38
.Ltmp264:
@ %bb.35:
	@DEBUG_VALUE: mbedtls_hmac_drbg_self_test:verbose <- $r5
	.loc	2 568 5                         @ ../../../ThirdParty/mbedTLS/library/hmac_drbg.c:568:5
	cbz	r5, .LBB12_40
.Ltmp265:
@ %bb.36:
	@DEBUG_VALUE: mbedtls_hmac_drbg_self_test:verbose <- $r5
	.loc	2 568 5                         @ ../../../ThirdParty/mbedTLS/library/hmac_drbg.c:568:5
	adr	r0, .LCPI12_4
	bl	puts
	ldr	r6, [sp, #12]                   @ 4-byte Reload
	b	.LBB12_41
.Ltmp266:
.LBB12_37:
	@DEBUG_VALUE: mbedtls_hmac_drbg_self_test:verbose <- $r5
	.loc	2 0 5                           @ ../../../ThirdParty/mbedTLS/library/hmac_drbg.c:0:5
	ldr	r6, [sp, #12]                   @ 4-byte Reload
	b	.LBB12_41
.Ltmp267:
.LBB12_38:
	@DEBUG_VALUE: mbedtls_hmac_drbg_self_test:verbose <- $r5
	add	r4, sp, #96
	.loc	2 569 5 is_stmt 1               @ ../../../ThirdParty/mbedTLS/library/hmac_drbg.c:569:5
	mov	r0, r4
	bl	mbedtls_hmac_drbg_free
	.loc	2 571 5                         @ ../../../ThirdParty/mbedTLS/library/hmac_drbg.c:571:5
	mov	r0, r4
	bl	mbedtls_hmac_drbg_free
	.loc	2 573 9                         @ ../../../ThirdParty/mbedTLS/library/hmac_drbg.c:573:9
	cbz	r5, .LBB12_41
.Ltmp268:
@ %bb.39:
	@DEBUG_VALUE: mbedtls_hmac_drbg_self_test:verbose <- $r5
	.loc	2 574 9                         @ ../../../ThirdParty/mbedTLS/library/hmac_drbg.c:574:9
	adr	r0, .LCPI12_6
	bl	puts
	movs	r0, #10
.Ltmp269:
	.loc	2 577 9                         @ ../../../ThirdParty/mbedTLS/library/hmac_drbg.c:577:9
	bl	putchar
	b	.LBB12_41
.Ltmp270:
.LBB12_40:
	@DEBUG_VALUE: mbedtls_hmac_drbg_self_test:verbose <- $r5
	.loc	2 0 9 is_stmt 0                 @ ../../../ThirdParty/mbedTLS/library/hmac_drbg.c:0:9
	ldr	r6, [sp, #12]                   @ 4-byte Reload
.Ltmp271:
.LBB12_41:
	@DEBUG_VALUE: mbedtls_hmac_drbg_self_test:verbose <- $r5
	.loc	2 580 1 is_stmt 1               @ ../../../ThirdParty/mbedTLS/library/hmac_drbg.c:580:1
	mov	r0, r6
	add	sp, #196
	pop	{r4, r5, r6, r7, pc}
.Ltmp272:
	.p2align	2
@ %bb.42:
	.loc	2 0 1 is_stmt 0                 @ ../../../ThirdParty/mbedTLS/library/hmac_drbg.c:0:1
.LCPI12_0:
.L.str:
	.asciz	"  HMAC_DRBG (PR = True) : \000"
__arm_cp.12_1:
	.long	test_offset
.Lcpi_end1:
	.size	__arm_cp.12_1, .Lcpi_end1-__arm_cp.12_1
__arm_cp.12_2:
	.long	hmac_drbg_self_test_entropy
.Lcpi_end2:
	.size	__arm_cp.12_2, .Lcpi_end2-__arm_cp.12_2
__arm_cp.12_3:
	.long	entropy_pr
.Lcpi_end3:
	.size	__arm_cp.12_3, .Lcpi_end3-__arm_cp.12_3
.LCPI12_4:
.Lstr.9:
.Lstr.6:
.Lstr.7:
.Lstr.12:
.Lstr.8:
.Lstr.13:
.Lstr.11:
.Lstr.5:
.Lstr.14:
	.asciz	"failed\000"
__arm_cp.12_5:
	.long	result_pr
.Lcpi_end4:
	.size	__arm_cp.12_5, .Lcpi_end4-__arm_cp.12_5
.LCPI12_6:
.Lstr.10:
.Lstr:
	.asciz	"passed\000"
.LCPI12_7:
.L.str.3:
	.asciz	"  HMAC_DRBG (PR = False) : "
__arm_cp.12_8:
	.long	entropy_nopr
.Lcpi_end5:
	.size	__arm_cp.12_8, .Lcpi_end5-__arm_cp.12_8
__arm_cp.12_9:
	.long	result_nopr
.Lcpi_end6:
	.size	__arm_cp.12_9, .Lcpi_end6-__arm_cp.12_9
.Lfunc_end12:
	.size	mbedtls_hmac_drbg_self_test, .Lfunc_end12-mbedtls_hmac_drbg_self_test
	.cfi_endproc
	.cantunwind
	.fnend
                                        @ -- End function
	.section	.text.hmac_drbg_self_test_entropy,"ax",%progbits
	.p2align	2                               @ -- Begin function hmac_drbg_self_test_entropy
	.type	hmac_drbg_self_test_entropy,%function
	.code	16                              @ @hmac_drbg_self_test_entropy
	.thumb_func
hmac_drbg_self_test_entropy:
.Lfunc_begin13:
	.loc	2 507 0 is_stmt 1               @ ../../../ThirdParty/mbedTLS/library/hmac_drbg.c:507:0
	.fnstart
	.cfi_startproc
@ %bb.0:
	@DEBUG_VALUE: hmac_drbg_self_test_entropy:data <- $r0
	@DEBUG_VALUE: hmac_drbg_self_test_entropy:buf <- $r1
	@DEBUG_VALUE: hmac_drbg_self_test_entropy:len <- $r2
	.save	{r4, r5, r6, lr}
	push	{r4, r5, r6, lr}
	.cfi_def_cfa_offset 16
	.cfi_offset lr, -4
	.cfi_offset r6, -8
	.cfi_offset r5, -12
	.cfi_offset r4, -16
.Ltmp273:
	@DEBUG_VALUE: hmac_drbg_self_test_entropy:p <- $r0
	mov	r4, r2
	mov	r2, r1
.Ltmp274:
	@DEBUG_VALUE: hmac_drbg_self_test_entropy:len <- [DW_OP_LLVM_entry_value 1] $r2
	@DEBUG_VALUE: hmac_drbg_self_test_entropy:p <- $r0
	@DEBUG_VALUE: hmac_drbg_self_test_entropy:len <- $r4
	@DEBUG_VALUE: hmac_drbg_self_test_entropy:buf <- $r2
	@DEBUG_VALUE: hmac_drbg_self_test_entropy:data <- $r0
	.loc	2 509 22 prologue_end           @ ../../../ThirdParty/mbedTLS/library/hmac_drbg.c:509:22
	ldr	r5, __arm_cp.13_0
	ldr	r6, [r5]
	.loc	2 509 20 is_stmt 0              @ ../../../ThirdParty/mbedTLS/library/hmac_drbg.c:509:20
	adds	r1, r0, r6
	.loc	2 509 5                         @ ../../../ThirdParty/mbedTLS/library/hmac_drbg.c:509:5
	mov	r0, r2
.Ltmp275:
	@DEBUG_VALUE: hmac_drbg_self_test_entropy:data <- [DW_OP_LLVM_entry_value 1] $r0
	@DEBUG_VALUE: hmac_drbg_self_test_entropy:buf <- $r0
	mov	r2, r4
	bl	__aeabi_memcpy
.Ltmp276:
	.loc	2 510 17 is_stmt 1              @ ../../../ThirdParty/mbedTLS/library/hmac_drbg.c:510:17
	adds	r0, r6, r4
	str	r0, [r5]
	movs	r0, #0
	.loc	2 511 5                         @ ../../../ThirdParty/mbedTLS/library/hmac_drbg.c:511:5
	pop	{r4, r5, r6, pc}
.Ltmp277:
	.p2align	2
@ %bb.1:
	.loc	2 0 5 is_stmt 0                 @ ../../../ThirdParty/mbedTLS/library/hmac_drbg.c:0:5
__arm_cp.13_0:
	.long	test_offset
.Lcpi_end7:
	.size	__arm_cp.13_0, .Lcpi_end7-__arm_cp.13_0
.Lfunc_end13:
	.size	hmac_drbg_self_test_entropy, .Lfunc_end13-hmac_drbg_self_test_entropy
	.cfi_endproc
	.cantunwind
	.fnend
                                        @ -- End function
	.type	test_offset,%object             @ @test_offset
	.section	.bss.test_offset,"aw",%nobits
	.p2align	2
test_offset:
	.long	0                               @ 0x0
	.size	test_offset, 4

	.type	entropy_pr,%object              @ @entropy_pr
	.section	.rodata.entropy_pr,"a",%progbits
entropy_pr:
	.ascii	"\240\311\253X\361\342\345\244\336>\275O\367>\234[d\357\330\312\002\214\370\021H\245\204\376i\253Z\356B\252MB\027`\231\324^\023\227\334@M\206\243{\365YTuiQ\344"
	.size	entropy_pr, 56

	.type	result_pr,%object               @ @result_pr
	.section	.rodata.result_pr,"a",%progbits
result_pr:
	.ascii	"\232\000\242\320\016\325\233\3761\354\2619\233`\201H\321\226\235%\r<\036\224\020\020\230\022\223%\312\270\374\314-Ts\031p\300\020z\244\211%\031\225^K\306\000\035\177Nj+\370\243\001\253F\005\\\t\246q\210\361\247@\356\363\341\\\002\233D\257\003D"
	.size	result_pr, 80

	.type	entropy_nopr,%object            @ @entropy_nopr
	.section	.rodata.entropy_nopr,"a",%progbits
entropy_nopr:
	.ascii	"y4\233\277|\335\245y\225W\206f!\311\023\203\021Fs:\277\2145\310\307![[\226\304\216\2333\214t\343\351\235\376\337"
	.size	entropy_nopr, 40

	.type	result_nopr,%object             @ @result_nopr
	.section	.rodata.result_nopr,"a",%progbits
result_nopr:
	.ascii	"\306\241j\270\324 po\0174\253\177\354Z\334\251\330\312:\023>\025\234\246\254C\306\370\242\276\"\203JL\n\n\377\261\rq\224\361\301\245\317s\"\354\032\340\226N\324\277\022'F\340\207\375\265\263\351\0334\223\325\273\230\372\355I\350_\023\017\310\244Y\267"
	.size	result_nopr, 80

	.section	".note.GNU-stack","",%progbits
	.eabi_attribute	30, 1	@ Tag_ABI_optimization_goals
	.ARM_attribute	16, 1	@ Tag_AV_eba