	.text
	.syntax unified
	.eabi_attribute	67, "2.09"	@ Tag_conformance
	.cpu	cortex-m23
	.eabi_attribute	6, 16	@ Tag_CPU_arch
	.eabi_attribute	7, 77	@ Tag_CPU_arch_profile
	.eabi_attribute	8, 0	@ Tag_ARM_ISA_use
	.eabi_attribute	9, 3	@ Tag_THUMB_ISA_use
	.eabi_attribute	34, 0	@ Tag_CPU_unaligned_access
	.eabi_attribute	17, 1	@ Tag_ABI_PCS_GOT_use
	.eabi_attribute	20, 2	@ Tag_ABI_FP_denormal
	.eabi_attribute	21, 0	@ Tag_ABI_FP_exceptions
	.eabi_attribute	23, 1	@ Tag_ABI_FP_number_model
	.eabi_attribute	24, 1	@ Tag_ABI_align_needed
	.eabi_attribute	25, 1	@ Tag_ABI_align_preserved
	.eabi_attribute	38, 1	@ Tag_ABI_FP_16bit_format
	.eabi_attribute	18, 2	@ Tag_ABI_PCS_wchar_t
	.eabi_attribute	26, 1	@ Tag_ABI_enum_size
	.eabi_attribute	14, 0	@ Tag_ABI_PCS_R9_use
	.file	"LinkList.c"
	.section	.text.ListInit,"ax",%progbits
	.hidden	ListInit                        @ -- Begin function ListInit
	.globl	ListInit
	.p2align	1
	.type	ListInit,%function
	.code	16                              @ @ListInit
	.thumb_func
ListInit:
.Lfunc_begin0:
	.file	1 "C:/Users/shw26/AppData/Local/Arm/Packs/ARM/CMSIS-Driver/2.6.1/WiFi/ESP8266/BufList" "LinkList.c"
	.loc	1 54 0                          @ C:/Users/shw26/AppData/Local/Arm/Packs/ARM/CMSIS-Driver/2.6.1/WiFi/ESP8266/BufList/LinkList.c:54:0
	.fnstart
	.cfi_sections .debug_frame
	.cfi_startproc
@ %bb.0:
	@DEBUG_VALUE: ListInit:list <- $r0
	movs	r1, #0
	@DEBUG_VALUE: ListInit:list <- $r0
.Ltmp0:
	.loc	1 56 14 prologue_end            @ C:/Users/shw26/AppData/Local/Arm/Packs/ARM/CMSIS-Driver/2.6.1/WiFi/ESP8266/BufList/LinkList.c:56:14
	str	r1, [r0]
	.loc	1 57 14                         @ C:/Users/shw26/AppData/Local/Arm/Packs/ARM/CMSIS-Driver/2.6.1/WiFi/ESP8266/BufList/LinkList.c:57:14
	str	r1, [r0, #4]
	.loc	1 58 1                          @ C:/Users/shw26/AppData/Local/Arm/Packs/ARM/CMSIS-Driver/2.6.1/WiFi/ESP8266/BufList/LinkList.c:58:1
	bx	lr
.Ltmp1:
.Lfunc_end0:
	.size	ListInit, .Lfunc_end0-ListInit
	.cfi_endproc
	.cantunwind
	.fnend
                                        @ -- End function
	.section	.text.ListPut,"ax",%progbits
	.hidden	ListPut                         @ -- Begin function ListPut
	.globl	ListPut
	.p2align	1
	.type	ListPut,%function
	.code	16                              @ @ListPut
	.thumb_func
ListPut:
.Lfunc_begin1:
	.loc	1 68 0                          @ C:/Users/shw26/AppData/Local/Arm/Packs/ARM/CMSIS-Driver/2.6.1/WiFi/ESP8266/BufList/LinkList.c:68:0
	.fnstart
	.cfi_startproc
@ %bb.0:
	@DEBUG_VALUE: ListPut:list <- $r0
	@DEBUG_VALUE: ListPut:list <- $r0
	@DEBUG_VALUE: ListPut:link <- $r1
	@DEBUG_VALUE: ListPut:link <- $r1
	.save	{r4, lr}
	push	{r4, lr}
	.cfi_def_cfa_offset 8
	.cfi_offset lr, -4
	.cfi_offset r4, -8
.Ltmp2:
	.file	2 "C:\\Users\\shw26\\OneDrive\\Desktop\\2021\\2021-1\\\354\272\241\354\212\244\355\206\244\353\224\224\354\236\220\354\235\2702\\Nuvoton\\M2351_BSP_v3.00.004\\M2351Series_BSP_CMSIS_V3.00.004\\MyProject\\PulseMonitoring\\Secure" "../../../Library/CMSIS/Include/cmsis_armclang.h"
	.loc	2 372 3 prologue_end            @ ../../../Library/CMSIS/Include/cmsis_armclang.h:372:3
	@APP
	mrs	r2, primask
	@NO_APP
.Ltmp3:
	@DEBUG_VALUE: ListPut:primask <- $r2
	@DEBUG_VALUE: __get_PRIMASK:result <- $r2
	.loc	1 71 3                          @ C:/Users/shw26/AppData/Local/Arm/Packs/ARM/CMSIS-Driver/2.6.1/WiFi/ESP8266/BufList/LinkList.c:71:3
	@APP
	mrs	r3, primask
	cpsid i

	@NO_APP
	movs	r3, #0
	.loc	1 75 14                         @ C:/Users/shw26/AppData/Local/Arm/Packs/ARM/CMSIS-Driver/2.6.1/WiFi/ESP8266/BufList/LinkList.c:75:14
	str	r3, [r1]
	.loc	1 74 22                         @ C:/Users/shw26/AppData/Local/Arm/Packs/ARM/CMSIS-Driver/2.6.1/WiFi/ESP8266/BufList/LinkList.c:74:22
	ldr	r3, [r0, #4]
	.loc	1 74 14 is_stmt 0               @ C:/Users/shw26/AppData/Local/Arm/Packs/ARM/CMSIS-Driver/2.6.1/WiFi/ESP8266/BufList/LinkList.c:74:14
	str	r3, [r1, #4]
	.loc	1 77 7 is_stmt 1                @ C:/Users/shw26/AppData/Local/Arm/Packs/ARM/CMSIS-Driver/2.6.1/WiFi/ESP8266/BufList/LinkList.c:77:7
	mov	r4, r0
	cbz	r3, .LBB1_2
.Ltmp4:
@ %bb.1:
	@DEBUG_VALUE: ListPut:primask <- $r2
	@DEBUG_VALUE: ListPut:link <- $r1
	@DEBUG_VALUE: ListPut:list <- $r0
	mov	r4, r3
.Ltmp5:
.LBB1_2:
	@DEBUG_VALUE: ListPut:primask <- $r2
	@DEBUG_VALUE: ListPut:link <- $r1
	@DEBUG_VALUE: ListPut:list <- $r0
	.loc	1 0 0 is_stmt 0                 @ C:/Users/shw26/AppData/Local/Arm/Packs/ARM/CMSIS-Driver/2.6.1/WiFi/ESP8266/BufList/LinkList.c:0:0
	str	r1, [r4]
.Ltmp6:
	.loc	1 85 14 is_stmt 1               @ C:/Users/shw26/AppData/Local/Arm/Packs/ARM/CMSIS-Driver/2.6.1/WiFi/ESP8266/BufList/LinkList.c:85:14
	str	r1, [r0, #4]
	.loc	1 88 7                          @ C:/Users/shw26/AppData/Local/Arm/Packs/ARM/CMSIS-Driver/2.6.1/WiFi/ESP8266/BufList/LinkList.c:88:7
	cbz	r2, .LBB1_4
.Ltmp7:
@ %bb.3:
	@DEBUG_VALUE: ListPut:primask <- $r2
	@DEBUG_VALUE: ListPut:link <- $r1
	@DEBUG_VALUE: ListPut:list <- $r0
	.loc	1 91 1                          @ C:/Users/shw26/AppData/Local/Arm/Packs/ARM/CMSIS-Driver/2.6.1/WiFi/ESP8266/BufList/LinkList.c:91:1
	pop	{r4, pc}
.Ltmp8:
.LBB1_4:
	@DEBUG_VALUE: ListPut:primask <- $r2
	@DEBUG_VALUE: ListPut:link <- $r1
	@DEBUG_VALUE: ListPut:list <- $r0
	.loc	1 89 5                          @ C:/Users/shw26/AppData/Local/Arm/Packs/ARM/CMSIS-Driver/2.6.1/WiFi/ESP8266/BufList/LinkList.c:89:5
	@APP
	cpsie i
	@NO_APP
.Ltmp9:
	.loc	1 91 1                          @ C:/Users/shw26/AppData/Local/Arm/Packs/ARM/CMSIS-Driver/2.6.1/WiFi/ESP8266/BufList/LinkList.c:91:1
	pop	{r4, pc}
.Ltmp10:
.Lfunc_end1:
	.size	ListPut, .Lfunc_end1-ListPut
	.cfi_endproc
	.file	3 "C:\\" "Keil_v5\\ARM\\ARMCLANG\\Bin\\..\\include\\stdint.h"
	.cantunwind
	.fnend
                                        @ -- End function
	.section	.text.ListPutHead,"ax",%progbits
	.hidden	ListPutHead                     @ -- Begin function ListPutHead
	.globl	ListPutHead
	.p2align	1
	.type	ListPutHead,%function
	.code	16                              @ @ListPutHead
	.thumb_func
ListPutHead:
.Lfunc_begin2:
	.loc	1 101 0                         @ C:/Users/shw26/AppData/Local/Arm/Packs/ARM/CMSIS-Driver/2.6.1/WiFi/ESP8266/BufList/LinkList.c:101:0
	.fnstart
	.cfi_startproc
@ %bb.0:
	@DEBUG_VALUE: ListPutHead:list <- $r0
	@DEBUG_VALUE: ListPutHead:list <- $r0
	@DEBUG_VALUE: ListPutHead:link <- $r1
	@DEBUG_VALUE: ListPutHead:link <- $r1
	.loc	2 372 3 prologue_end            @ ../../../Library/CMSIS/Include/cmsis_armclang.h:372:3
	@APP
	mrs	r2, primask
	@NO_APP
.Ltmp11:
	@DEBUG_VALUE: ListPutHead:primask <- $r2
	@DEBUG_VALUE: __get_PRIMASK:result <- $r2
	.loc	1 104 3                         @ C:/Users/shw26/AppData/Local/Arm/Packs/ARM/CMSIS-Driver/2.6.1/WiFi/ESP8266/BufList/LinkList.c:104:3
	@APP
	mrs	r3, primask
	cpsid i

	@NO_APP
	movs	r3, #0
	.loc	1 107 14                        @ C:/Users/shw26/AppData/Local/Arm/Packs/ARM/CMSIS-Driver/2.6.1/WiFi/ESP8266/BufList/LinkList.c:107:14
	str	r3, [r1, #4]
	.loc	1 108 22                        @ C:/Users/shw26/AppData/Local/Arm/Packs/ARM/CMSIS-Driver/2.6.1/WiFi/ESP8266/BufList/LinkList.c:108:22
	ldr	r3, [r0]
	.loc	1 108 14 is_stmt 0              @ C:/Users/shw26/AppData/Local/Arm/Packs/ARM/CMSIS-Driver/2.6.1/WiFi/ESP8266/BufList/LinkList.c:108:14
	str	r3, [r1]
	.loc	1 110 7 is_stmt 1               @ C:/Users/shw26/AppData/Local/Arm/Packs/ARM/CMSIS-Driver/2.6.1/WiFi/ESP8266/BufList/LinkList.c:110:7
	cbz	r3, .LBB2_2
.Ltmp12:
@ %bb.1:
	@DEBUG_VALUE: __get_PRIMASK:result <- $r2
	@DEBUG_VALUE: ListPutHead:primask <- $r2
	@DEBUG_VALUE: ListPutHead:link <- $r1
	@DEBUG_VALUE: ListPutHead:list <- $r0
	.loc	1 0 7 is_stmt 0                 @ C:/Users/shw26/AppData/Local/Arm/Packs/ARM/CMSIS-Driver/2.6.1/WiFi/ESP8266/BufList/LinkList.c:0:7
	adds	r3, r3, #4
	b	.LBB2_3
.Ltmp13:
.LBB2_2:
	@DEBUG_VALUE: __get_PRIMASK:result <- $r2
	@DEBUG_VALUE: ListPutHead:primask <- $r2
	@DEBUG_VALUE: ListPutHead:link <- $r1
	@DEBUG_VALUE: ListPutHead:list <- $r0
	adds	r3, r0, #4
.Ltmp14:
.LBB2_3:
	@DEBUG_VALUE: ListPutHead:primask <- $r2
	@DEBUG_VALUE: ListPutHead:link <- $r1
	@DEBUG_VALUE: ListPutHead:list <- $r0
	str	r1, [r3]
.Ltmp15:
	.loc	1 118 14 is_stmt 1              @ C:/Users/shw26/AppData/Local/Arm/Packs/ARM/CMSIS-Driver/2.6.1/WiFi/ESP8266/BufList/LinkList.c:118:14
	str	r1, [r0]
	.loc	1 121 7                         @ C:/Users/shw26/AppData/Local/Arm/Packs/ARM/CMSIS-Driver/2.6.1/WiFi/ESP8266/BufList/LinkList.c:121:7
	cbz	r2, .LBB2_5
.Ltmp16:
@ %bb.4:
	@DEBUG_VALUE: ListPutHead:primask <- $r2
	@DEBUG_VALUE: ListPutHead:link <- $r1
	@DEBUG_VALUE: ListPutHead:list <- $r0
	.loc	1 124 1                         @ C:/Users/shw26/AppData/Local/Arm/Packs/ARM/CMSIS-Driver/2.6.1/WiFi/ESP8266/BufList/LinkList.c:124:1
	bx	lr
.Ltmp17:
.LBB2_5:
	@DEBUG_VALUE: ListPutHead:primask <- $r2
	@DEBUG_VALUE: ListPutHead:link <- $r1
	@DEBUG_VALUE: ListPutHead:list <- $r0
	.loc	1 122 5                         @ C:/Users/shw26/AppData/Local/Arm/Packs/ARM/CMSIS-Driver/2.6.1/WiFi/ESP8266/BufList/LinkList.c:122:5
	@APP
	cpsie i
	@NO_APP
.Ltmp18:
	.loc	1 124 1                         @ C:/Users/shw26/AppData/Local/Arm/Packs/ARM/CMSIS-Driver/2.6.1/WiFi/ESP8266/BufList/LinkList.c:124:1
	bx	lr
.Ltmp19:
.Lfunc_end2:
	.size	ListPutHead, .Lfunc_end2-ListPutHead
	.cfi_endproc
	.cantunwind
	.fnend
                                        @ -- End function
	.section	.text.ListGet,"ax",%progbits
	.hidden	ListGet                         @ -- Begin function ListGet
	.globl	ListGet
	.p2align	1
	.type	ListGet,%function
	.code	16                              @ @ListGet
	.thumb_func
ListGet:
.Lfunc_begin3:
	.loc	1 132 0                         @ C:/Users/shw26/AppData/Local/Arm/Packs/ARM/CMSIS-Driver/2.6.1/WiFi/ESP8266/BufList/LinkList.c:132:0
	.fnstart
	.cfi_startproc
@ %bb.0:
	@DEBUG_VALUE: ListGet:list <- $r0
	mov	r1, r0
.Ltmp20:
	@DEBUG_VALUE: ListGet:list <- $r1
	.loc	2 372 3 prologue_end            @ ../../../Library/CMSIS/Include/cmsis_armclang.h:372:3
	@APP
	mrs	r2, primask
	@NO_APP
.Ltmp21:
	@DEBUG_VALUE: ListGet:primask <- $r2
	@DEBUG_VALUE: __get_PRIMASK:result <- $r2
	.loc	1 136 3                         @ C:/Users/shw26/AppData/Local/Arm/Packs/ARM/CMSIS-Driver/2.6.1/WiFi/ESP8266/BufList/LinkList.c:136:3
	@APP
	mrs	r0, primask
	cpsid i

	@NO_APP
	.loc	1 139 16                        @ C:/Users/shw26/AppData/Local/Arm/Packs/ARM/CMSIS-Driver/2.6.1/WiFi/ESP8266/BufList/LinkList.c:139:16
	ldr	r0, [r1]
.Ltmp22:
	@DEBUG_VALUE: ListGet:link <- $r0
	.loc	1 141 7                         @ C:/Users/shw26/AppData/Local/Arm/Packs/ARM/CMSIS-Driver/2.6.1/WiFi/ESP8266/BufList/LinkList.c:141:7
	cbz	r0, .LBB3_4
.Ltmp23:
@ %bb.1:
	@DEBUG_VALUE: ListGet:primask <- $r2
	@DEBUG_VALUE: ListGet:list <- $r1
	@DEBUG_VALUE: ListGet:link <- $r0
	.loc	1 142 24                        @ C:/Users/shw26/AppData/Local/Arm/Packs/ARM/CMSIS-Driver/2.6.1/WiFi/ESP8266/BufList/LinkList.c:142:24
	ldr	r3, [r0]
	.loc	1 142 16 is_stmt 0              @ C:/Users/shw26/AppData/Local/Arm/Packs/ARM/CMSIS-Driver/2.6.1/WiFi/ESP8266/BufList/LinkList.c:142:16
	stm	r1!, {r3}
.Ltmp24:
	.loc	1 144 9 is_stmt 1               @ C:/Users/shw26/AppData/Local/Arm/Packs/ARM/CMSIS-Driver/2.6.1/WiFi/ESP8266/BufList/LinkList.c:144:9
	cbz	r3, .LBB3_3
.Ltmp25:
@ %bb.2:
	@DEBUG_VALUE: ListGet:primask <- $r2
	@DEBUG_VALUE: ListGet:link <- $r0
	.loc	1 0 9 is_stmt 0                 @ C:/Users/shw26/AppData/Local/Arm/Packs/ARM/CMSIS-Driver/2.6.1/WiFi/ESP8266/BufList/LinkList.c:0:9
	adds	r1, r3, #4
.Ltmp26:
.LBB3_3:
	@DEBUG_VALUE: ListGet:primask <- $r2
	@DEBUG_VALUE: ListGet:link <- $r0
	movs	r3, #0
.Ltmp27:
	str	r3, [r1]
.Ltmp28:
.LBB3_4:
	@DEBUG_VALUE: ListGet:primask <- $r2
	@DEBUG_VALUE: ListGet:link <- $r0
	.loc	1 154 7 is_stmt 1               @ C:/Users/shw26/AppData/Local/Arm/Packs/ARM/CMSIS-Driver/2.6.1/WiFi/ESP8266/BufList/LinkList.c:154:7
	cbz	r2, .LBB3_6
.Ltmp29:
@ %bb.5:
	@DEBUG_VALUE: ListGet:primask <- $r2
	@DEBUG_VALUE: ListGet:link <- $r0
	.loc	1 158 3                         @ C:/Users/shw26/AppData/Local/Arm/Packs/ARM/CMSIS-Driver/2.6.1/WiFi/ESP8266/BufList/LinkList.c:158:3
	bx	lr
.Ltmp30:
.LBB3_6:
	@DEBUG_VALUE: ListGet:primask <- $r2
	@DEBUG_VALUE: ListGet:link <- $r0
	.loc	1 155 5                         @ C:/Users/shw26/AppData/Local/Arm/Packs/ARM/CMSIS-Driver/2.6.1/WiFi/ESP8266/BufList/LinkList.c:155:5
	@APP
	cpsie i
	@NO_APP
.Ltmp31:
	.loc	1 158 3                         @ C:/Users/shw26/AppData/Local/Arm/Packs/ARM/CMSIS-Driver/2.6.1/WiFi/ESP8266/BufList/LinkList.c:158:3
	bx	lr
.Ltmp32:
.Lfunc_end3:
	.size	ListGet, .Lfunc_end3-ListGet
	.cfi_endproc
	.cantunwind
	.fnend
                                        @ -- End function
	.section	.text.ListPeekHead,"ax",%progbits
	.hidden	ListPeekHead                    @ -- Begin function ListPeekHead
	.globl	ListPeekHead
	.p2align	1
	.type	ListPeekHead,%function
	.code	16                              @ @ListPeekHead
	.thumb_func
ListPeekHead:
.Lfunc_begin4:
	.loc	1 176 0                         @ C:/Users/shw26/AppData/Local/Arm/Packs/ARM/CMSIS-Driver/2.6.1/WiFi/ESP8266/BufList/LinkList.c:176:0
	.fnstart
	.cfi_startproc
@ %bb.0:
	@DEBUG_VALUE: ListPeekHead:list <- $r0
	@DEBUG_VALUE: ListPeekHead:list <- $r0
	.loc	1 177 17 prologue_end           @ C:/Users/shw26/AppData/Local/Arm/Packs/ARM/CMSIS-Driver/2.6.1/WiFi/ESP8266/BufList/LinkList.c:177:17
	ldr	r0, [r0]
.Ltmp33:
	@DEBUG_VALUE: ListPeekHead:list <- [DW_OP_LLVM_entry_value 1] $r0
	.loc	1 177 3 is_stmt 0               @ C:/Users/shw26/AppData/Local/Arm/Packs/ARM/CMSIS-Driver/2.6.1/WiFi/ESP8266/BufList/LinkList.c:177:3
	bx	lr
.Ltmp34:
.Lfunc_end4:
	.size	ListPeekHead, .Lfunc_end4-ListPeekHead
	.cfi_endproc
	.cantunwind
	.fnend
                                        @ -- End function
	.section	.text.ListPeekTail,"ax",%progbits
	.hidden	ListPeekTail                    @ -- Begin function ListPeekTail
	.globl	ListPeekTail
	.p2align	1
	.type	ListPeekTail,%function
	.code	16                              @ @ListPeekTail
	.thumb_func
ListPeekTail:
.Lfunc_begin5:
	.loc	1 191 0 is_stmt 1               @ C:/Users/shw26/AppData/Local/Arm/Packs/ARM/CMSIS-Driver/2.6.1/WiFi/ESP8266/BufList/LinkList.c:191:0
	.fnstart
	.cfi_startproc
@ %bb.0:
	@DEBUG_VALUE: ListPeekTail:list <- $r0
	@DEBUG_VALUE: ListPeekTail:list <- $r0
	.loc	1 192 17 prologue_end           @ C:/Users/shw26/AppData/Local/Arm/Packs/ARM/CMSIS-Driver/2.6.1/WiFi/ESP8266/BufList/LinkList.c:192:17
	ldr	r0, [r0, #4]
.Ltmp35:
	@DEBUG_VALUE: ListPeekTail:list <- [DW_OP_LLVM_entry_value 1] $r0
	.loc	1 192 3 is_stmt 0               @ C:/Users/shw26/AppData/Local/Arm/Packs/ARM/CMSIS-Driver/2.6.1/WiFi/ESP8266/BufList/LinkList.c:192:3
	bx	lr
.Ltmp36:
.Lfunc_end5:
	.size	ListPeekTail, .Lfunc_end5-ListPeekTail
	.cfi_endproc
	.cantunwind
	.fnend
                                        @ -- End function
	.section	.text.ListPeekNext,"ax",%progbits
	.hidden	ListPeekNext                    @ -- Begin function ListPeekNext
	.globl	ListPeekNext
	.p2align	1
	.type	ListPeekNext,%function
	.code	16                              @ @ListPeekNext
	.thumb_func
ListPeekNext:
.Lfunc_begin6:
	.loc	1 201 0 is_stmt 1               @ C:/Users/shw26/AppData/Local/Arm/Packs/ARM/CMSIS-Driver/2.6.1/WiFi/ESP8266/BufList/LinkList.c:201:0
	.fnstart
	.cfi_startproc
@ %bb.0:
	@DEBUG_VALUE: ListPeekNext:link <- $r0
	@DEBUG_VALUE: ListPeekNext:link <- $r0
	.loc	1 202 17 prologue_end           @ C:/Users/shw26/AppData/Local/Arm/Packs/ARM/CMSIS-Driver/2.6.1/WiFi/ESP8266/BufList/LinkList.c:202:17
	ldr	r0, [r0]
.Ltmp37:
	@DEBUG_VALUE: ListPeekNext:link <- [DW_OP_LLVM_entry_value 1] $r0
	.loc	1 202 3 is_stmt 0               @ C:/Users/shw26/AppData/Local/Arm/Packs/ARM/CMSIS-Driver/2.6.1/WiFi/ESP8266/BufList/LinkList.c:202:3
	bx	lr
.Ltmp38:
.Lfunc_end6:
	.size	ListPeekNext, .Lfunc_end6-ListPeekNext
	.cfi_endproc
	.cantunwind
	.fnend
                                        @ -- End function
	.section	.text.ListPeekPrev,"ax",%progbits
	.hidden	ListPeekPrev                    @ -- Begin function ListPeekPrev
	.globl	ListPeekPrev
	.p2align	1
	.type	ListPeekPrev,%function
	.code	16                              @ @ListPeekPrev
	.thumb_func
ListPeekPrev:
.Lfunc_begin7:
	.loc	1 211 0 is_stmt 1               @ C:/Users/shw26/AppData/Local/Arm/Packs/ARM/CMSIS-Driver/2.6.1/WiFi/ESP8266/BufList/LinkList.c:211:0
	.fnstart
	.cfi_startproc
@ %bb.0:
	@DEBUG_VALUE: ListPeekPrev:link <- $r0
	@DEBUG_VALUE: ListPeekPrev:link <- $r0
	.loc	1 212 17 prologue_end           @ C:/Users/shw26/AppData/Local/Arm/Packs/ARM/CMSIS-Driver/2.6.1/WiFi/ESP8266/BufList/LinkList.c:212:17
	ldr	r0, [r0, #4]
.Ltmp39:
	@DEBUG_VALUE: ListPeekPrev:link <- [DW_OP_LLVM_entry_value 1] $r0
	.loc	1 212 3 is_stmt 0               @ C:/Users/shw26/AppData/Local/Arm/Packs/ARM/CMSIS-Driver/2.6.1/WiFi/ESP8266/BufList/LinkList.c:212:3
	bx	lr
.Ltmp40:
.Lfunc_end7:
	.size	ListPeekPrev, .Lfunc_end7-ListPeekPrev
	.cfi_endproc
	.cantunwind
	.fnend
                                        @ -- End function
	.section	.text.ListInsert,"ax",%progbits
	.hidden	ListInsert                      @ -- Begin function ListInsert
	.globl	ListInsert
	.p2align	1
	.type	ListInsert,%function
	.code	16                              @ @ListInsert
	.thumb_func
ListInsert:
.Lfunc_begin8:
	.loc	1 222 0 is_stmt 1               @ C:/Users/shw26/AppData/Local/Arm/Packs/ARM/CMSIS-Driver/2.6.1/WiFi/ESP8266/BufList/LinkList.c:222:0
	.fnstart
	.cfi_startproc
@ %bb.0:
	@DEBUG_VALUE: ListInsert:list <- $r0
	@DEBUG_VALUE: ListInsert:list <- $r0
	@DEBUG_VALUE: ListInsert:link <- $r1
	@DEBUG_VALUE: ListInsert:link <- $r1
	@DEBUG_VALUE: ListInsert:lnew <- $r2
	@DEBUG_VALUE: ListInsert:lnew <- $r2
	.save	{r4, lr}
	push	{r4, lr}
	.cfi_def_cfa_offset 8
	.cfi_offset lr, -4
	.cfi_offset r4, -8
.Ltmp41:
	.loc	2 372 3 prologue_end            @ ../../../Library/CMSIS/Include/cmsis_armclang.h:372:3
	@APP
	mrs	r3, primask
	@NO_APP
.Ltmp42:
	@DEBUG_VALUE: ListInsert:primask <- $r3
	@DEBUG_VALUE: __get_PRIMASK:result <- $r3
	.loc	1 225 3                         @ C:/Users/shw26/AppData/Local/Arm/Packs/ARM/CMSIS-Driver/2.6.1/WiFi/ESP8266/BufList/LinkList.c:225:3
	@APP
	mrs	r4, primask
	cpsid i

	@NO_APP
	.loc	1 229 22                        @ C:/Users/shw26/AppData/Local/Arm/Packs/ARM/CMSIS-Driver/2.6.1/WiFi/ESP8266/BufList/LinkList.c:229:22
	ldr	r4, [r1, #4]
	.loc	1 228 14                        @ C:/Users/shw26/AppData/Local/Arm/Packs/ARM/CMSIS-Driver/2.6.1/WiFi/ESP8266/BufList/LinkList.c:228:14
	stm	r2!, {r1, r4}
.Ltmp43:
	@DEBUG_VALUE: ListInsert:lnew <- [DW_OP_LLVM_entry_value 1] $r2
	.loc	1 231 13                        @ C:/Users/shw26/AppData/Local/Arm/Packs/ARM/CMSIS-Driver/2.6.1/WiFi/ESP8266/BufList/LinkList.c:231:13
	ldr	r4, [r1, #4]
.Ltmp44:
	.loc	1 228 14                        @ C:/Users/shw26/AppData/Local/Arm/Packs/ARM/CMSIS-Driver/2.6.1/WiFi/ESP8266/BufList/LinkList.c:228:14
	subs	r2, #8
	.loc	1 231 7                         @ C:/Users/shw26/AppData/Local/Arm/Packs/ARM/CMSIS-Driver/2.6.1/WiFi/ESP8266/BufList/LinkList.c:231:7
	cbz	r4, .LBB8_2
.Ltmp45:
@ %bb.1:
	@DEBUG_VALUE: ListInsert:primask <- $r3
	@DEBUG_VALUE: ListInsert:link <- $r1
	@DEBUG_VALUE: ListInsert:list <- $r0
	@DEBUG_VALUE: ListInsert:lnew <- [DW_OP_LLVM_entry_value 1] $r2
	mov	r0, r4
.Ltmp46:
	@DEBUG_VALUE: ListInsert:list <- [DW_OP_LLVM_entry_value 1] $r0
.LBB8_2:
	@DEBUG_VALUE: ListInsert:primask <- $r3
	@DEBUG_VALUE: ListInsert:link <- $r1
	@DEBUG_VALUE: ListInsert:lnew <- [DW_OP_LLVM_entry_value 1] $r2
	.loc	1 0 0 is_stmt 0                 @ C:/Users/shw26/AppData/Local/Arm/Packs/ARM/CMSIS-Driver/2.6.1/WiFi/ESP8266/BufList/LinkList.c:0:0
	str	r2, [r0]
.Ltmp47:
	.loc	1 239 14 is_stmt 1              @ C:/Users/shw26/AppData/Local/Arm/Packs/ARM/CMSIS-Driver/2.6.1/WiFi/ESP8266/BufList/LinkList.c:239:14
	str	r2, [r1, #4]
	.loc	1 242 7                         @ C:/Users/shw26/AppData/Local/Arm/Packs/ARM/CMSIS-Driver/2.6.1/WiFi/ESP8266/BufList/LinkList.c:242:7
	cbz	r3, .LBB8_4
.Ltmp48:
@ %bb.3:
	@DEBUG_VALUE: ListInsert:primask <- $r3
	@DEBUG_VALUE: ListInsert:link <- $r1
	@DEBUG_VALUE: ListInsert:lnew <- [DW_OP_LLVM_entry_value 1] $r2
	.loc	1 245 1                         @ C:/Users/shw26/AppData/Local/Arm/Packs/ARM/CMSIS-Driver/2.6.1/WiFi/ESP8266/BufList/LinkList.c:245:1
	pop	{r4, pc}
.Ltmp49:
.LBB8_4:
	@DEBUG_VALUE: ListInsert:primask <- $r3
	@DEBUG_VALUE: ListInsert:link <- $r1
	@DEBUG_VALUE: ListInsert:lnew <- [DW_OP_LLVM_entry_value 1] $r2
	.loc	1 243 5                         @ C:/Users/shw26/AppData/Local/Arm/Packs/ARM/CMSIS-Driver/2.6.1/WiFi/ESP8266/BufList/LinkList.c:243:5
	@APP
	cpsie i
	@NO_APP
.Ltmp50:
	.loc	1 245 1                         @ C:/Users/shw26/AppData/Local/Arm/Packs/ARM/CMSIS-Driver/2.6.1/WiFi/ESP8266/BufList/LinkList.c:245:1
	pop	{r4, pc}
.Ltmp51:
.Lfunc_end8:
	.size	ListInsert, .Lfunc_end8-ListInsert
	.cfi_endproc
	.cantunwind
	.fnend
                                        @ -- End function
	.section	.text.ListRemove,"ax",%progbits
	.hidden	ListRemove                      @ -- Begin function ListRemove
	.globl	ListRemove
	.p2align	1
	.type	ListRemove,%function
	.code	16                              @ @ListRemove
	.thumb_func
ListRemove:
.Lfunc_begin9:
	.loc	1 253 0                         @ C:/Users/shw26/AppData/Local/Arm/Packs/ARM/CMSIS-Driver/2.6.1/WiFi/ESP8266/BufList/LinkList.c:253:0
	.fnstart
	.cfi_startproc
@ %bb.0:
	@DEBUG_VALUE: ListRemove:list <- $r0
	@DEBUG_VALUE: ListRemove:list <- $r0
	@DEBUG_VALUE: ListRemove:link <- $r1
	@DEBUG_VALUE: ListRemove:link <- $r1
	.save	{r4, lr}
	push	{r4, lr}
	.cfi_def_cfa_offset 8
	.cfi_offset lr, -4
	.cfi_offset r4, -8
.Ltmp52:
	.loc	2 372 3 prologue_end            @ ../../../Library/CMSIS/Include/cmsis_armclang.h:372:3
	@APP
	mrs	r2, primask
	@NO_APP
.Ltmp53:
	@DEBUG_VALUE: ListRemove:primask <- $r2
	@DEBUG_VALUE: __get_PRIMASK:result <- $r2
	.loc	1 256 3                         @ C:/Users/shw26/AppData/Local/Arm/Packs/ARM/CMSIS-Driver/2.6.1/WiFi/ESP8266/BufList/LinkList.c:256:3
	@APP
	mrs	r3, primask
	cpsid i

	@NO_APP
.Ltmp54:
	.loc	1 259 13                        @ C:/Users/shw26/AppData/Local/Arm/Packs/ARM/CMSIS-Driver/2.6.1/WiFi/ESP8266/BufList/LinkList.c:259:13
	ldr	r3, [r1]
.Ltmp55:
	.loc	1 259 7 is_stmt 0               @ C:/Users/shw26/AppData/Local/Arm/Packs/ARM/CMSIS-Driver/2.6.1/WiFi/ESP8266/BufList/LinkList.c:259:7
	cbz	r3, .LBB9_2
.Ltmp56:
@ %bb.1:
	@DEBUG_VALUE: __get_PRIMASK:result <- $r2
	@DEBUG_VALUE: ListRemove:primask <- $r2
	@DEBUG_VALUE: ListRemove:link <- $r1
	@DEBUG_VALUE: ListRemove:list <- $r0
	.loc	1 0 7                           @ C:/Users/shw26/AppData/Local/Arm/Packs/ARM/CMSIS-Driver/2.6.1/WiFi/ESP8266/BufList/LinkList.c:0:7
	adds	r3, r3, #4
	b	.LBB9_3
.Ltmp57:
.LBB9_2:
	@DEBUG_VALUE: __get_PRIMASK:result <- $r2
	@DEBUG_VALUE: ListRemove:primask <- $r2
	@DEBUG_VALUE: ListRemove:link <- $r1
	@DEBUG_VALUE: ListRemove:list <- $r0
	adds	r3, r0, #4
.Ltmp58:
.LBB9_3:
	@DEBUG_VALUE: ListRemove:primask <- $r2
	@DEBUG_VALUE: ListRemove:link <- $r1
	@DEBUG_VALUE: ListRemove:list <- $r0
	ldr	r4, [r1, #4]
	str	r4, [r3]
.Ltmp59:
	.loc	1 267 13 is_stmt 1              @ C:/Users/shw26/AppData/Local/Arm/Packs/ARM/CMSIS-Driver/2.6.1/WiFi/ESP8266/BufList/LinkList.c:267:13
	ldr	r3, [r1, #4]
.Ltmp60:
	.loc	1 267 7 is_stmt 0               @ C:/Users/shw26/AppData/Local/Arm/Packs/ARM/CMSIS-Driver/2.6.1/WiFi/ESP8266/BufList/LinkList.c:267:7
	cbz	r3, .LBB9_5
.Ltmp61:
@ %bb.4:
	@DEBUG_VALUE: ListRemove:primask <- $r2
	@DEBUG_VALUE: ListRemove:link <- $r1
	@DEBUG_VALUE: ListRemove:list <- $r0
	mov	r0, r3
.Ltmp62:
	@DEBUG_VALUE: ListRemove:list <- [DW_OP_LLVM_entry_value 1] $r0
.LBB9_5:
	@DEBUG_VALUE: ListRemove:primask <- $r2
	@DEBUG_VALUE: ListRemove:link <- $r1
	.loc	1 0 0                           @ C:/Users/shw26/AppData/Local/Arm/Packs/ARM/CMSIS-Driver/2.6.1/WiFi/ESP8266/BufList/LinkList.c:0:0
	ldr	r1, [r1]
.Ltmp63:
	@DEBUG_VALUE: ListRemove:link <- [DW_OP_LLVM_entry_value 1] $r1
	str	r1, [r0]
.Ltmp64:
	.loc	1 276 7 is_stmt 1               @ C:/Users/shw26/AppData/Local/Arm/Packs/ARM/CMSIS-Driver/2.6.1/WiFi/ESP8266/BufList/LinkList.c:276:7
	cbz	r2, .LBB9_7
.Ltmp65:
@ %bb.6:
	@DEBUG_VALUE: ListRemove:primask <- $r2
	@DEBUG_VALUE: ListRemove:link <- [DW_OP_LLVM_entry_value 1] $r1
	.loc	1 279 1                         @ C:/Users/shw26/AppData/Local/Arm/Packs/ARM/CMSIS-Driver/2.6.1/WiFi/ESP8266/BufList/LinkList.c:279:1
	pop	{r4, pc}
.Ltmp66:
.LBB9_7:
	@DEBUG_VALUE: ListRemove:primask <- $r2
	@DEBUG_VALUE: ListRemove:link <- [DW_OP_LLVM_entry_value 1] $r1
	.loc	1 277 5                         @ C:/Users/shw26/AppData/Local/Arm/Packs/ARM/CMSIS-Driver/2.6.1/WiFi/ESP8266/BufList/LinkList.c:277:5
	@APP
	cpsie i
	@NO_APP
.Ltmp67:
	.loc	1 279 1                         @ C:/Users/shw26/AppData/Local/Arm/Packs/ARM/CMSIS-Driver/2.6.1/WiFi/ESP8266/BufList/LinkList.c:279:1
	pop	{r4, pc}
.Ltmp68:
.Lfunc_end9:
	.size	ListRemove, .Lfunc_end9-ListRemove
	.cfi_endproc
	.cantunwind
	.fnend
                                        @ -- End function
	.file	4 "C:/Users/shw26/AppData/Local/Arm/Packs/ARM/CMSIS-Driver/2.6.1/WiFi/ESP8266/BufList" "LinkList.h"
	.section	".note.GNU-stack","",%progbits
	.eabi_attribute	30, 1	@ Tag_ABI_optimization_goals
	.ARM_attribute	16, 1	@ Tag_AV_eba