	.text
	.syntax unified
	.eabi_attribute	67, "2.09"	@ Tag_conformance
	.cpu	cortex-m23
	.eabi_attribute	6, 16	@ Tag_CPU_arch
	.eabi_attribute	7, 77	@ Tag_CPU_arch_profile
	.eabi_attribute	8, 0	@ Tag_ARM_ISA_use
	.eabi_attribute	9, 3	@ Tag_THUMB_ISA_use
	.eabi_attribute	34, 0	@ Tag_CPU_unaligned_access
	.eabi_attribute	17, 1	@ Tag_ABI_PCS_GOT_use
	.eabi_attribute	20, 2	@ Tag_ABI_FP_denormal
	.eabi_attribute	21, 0	@ Tag_ABI_FP_exceptions
	.eabi_attribute	23, 1	@ Tag_ABI_FP_number_model
	.eabi_attribute	24, 1	@ Tag_ABI_align_needed
	.eabi_attribute	25, 1	@ Tag_ABI_align_preserved
	.eabi_attribute	38, 1	@ Tag_ABI_FP_16bit_format
	.eabi_attribute	18, 2	@ Tag_ABI_PCS_wchar_t
	.eabi_attribute	26, 1	@ Tag_ABI_enum_size
	.eabi_attribute	14, 0	@ Tag_ABI_PCS_R9_use
	.file	"M2351_crypto.c"
	.file	1 "C:\\" "Keil_v5\\ARM\\ARMCLANG\\Bin\\..\\include\\stdint.h"
	.file	2 "C:\\Users\\shw26\\OneDrive\\Desktop\\2021\\2021-1\\\354\272\241\354\212\244\355\206\244\353\224\224\354\236\220\354\235\2702\\Nuvoton\\M2351_BSP_v3.00.004\\M2351Series_BSP_CMSIS_V3.00.004\\MyProject\\PulseMonitoring\\Secure" "Crypto/M2351_crypto.c"
	.file	3 "C:\\Users\\shw26\\OneDrive\\Desktop\\2021\\2021-1\\\354\272\241\354\212\244\355\206\244\353\224\224\354\236\220\354\235\2702\\Nuvoton\\M2351_BSP_v3.00.004\\M2351Series_BSP_CMSIS_V3.00.004\\MyProject\\PulseMonitoring\\Secure" "./Crypto\\M2351_crypto.h"
	.file	4 "C:\\Users\\shw26\\OneDrive\\Desktop\\2021\\2021-1\\\354\272\241\354\212\244\355\206\244\353\224\224\354\236\220\354\235\2702\\Nuvoton\\M2351_BSP_v3.00.004\\M2351Series_BSP_CMSIS_V3.00.004\\MyProject\\PulseMonitoring\\Secure" "../../../Library/Device/Nuvoton/M2351/Include\\M2351.h"
	.file	5 "C:\\Users\\shw26\\OneDrive\\Desktop\\2021\\2021-1\\\354\272\241\354\212\244\355\206\244\353\224\224\354\236\220\354\235\2702\\Nuvoton\\M2351_BSP_v3.00.004\\M2351Series_BSP_CMSIS_V3.00.004\\MyProject\\PulseMonitoring\\Secure" "../../../Library/StdDriver/inc\\crypto.h"
	.file	6 "C:\\Users\\shw26\\OneDrive\\Desktop\\2021\\2021-1\\\354\272\241\354\212\244\355\206\244\353\224\224\354\236\220\354\235\2702\\Nuvoton\\M2351_BSP_v3.00.004\\M2351Series_BSP_CMSIS_V3.00.004\\MyProject\\PulseMonitoring\\Secure" "../../../Library/Device/Nuvoton/M2351/Include/crpt_reg.h"
	.file	7 "C:\\Users\\shw26\\OneDrive\\Desktop\\2021\\2021-1\\\354\272\241\354\212\244\355\206\244\353\224\224\354\236\220\354\235\2702\\Nuvoton\\M2351_BSP_v3.00.004\\M2351Series_BSP_CMSIS_V3.00.004\\MyProject\\PulseMonitoring\\Secure" "../../../Library/CMSIS/Include\\core_armv8mbl.h"
	.file	8 "C:\\Users\\shw26\\OneDrive\\Desktop\\2021\\2021-1\\\354\272\241\354\212\244\355\206\244\353\224\224\354\236\220\354\235\2702\\Nuvoton\\M2351_BSP_v3.00.004\\M2351Series_BSP_CMSIS_V3.00.004\\MyProject\\PulseMonitoring\\Secure" "../../../Library/Device/Nuvoton/M2351/Include/fmc_reg.h"
	.file	9 "C:\\Users\\shw26\\OneDrive\\Desktop\\2021\\2021-1\\\354\272\241\354\212\244\355\206\244\353\224\224\354\236\220\354\235\2702\\Nuvoton\\M2351_BSP_v3.00.004\\M2351Series_BSP_CMSIS_V3.00.004\\MyProject\\PulseMonitoring\\Secure" "../../../Library/Device/Nuvoton/M2351/Include/sys_reg.h"
	.file	10 "C:\\Users\\shw26\\OneDrive\\Desktop\\2021\\2021-1\\\354\272\241\354\212\244\355\206\244\353\224\224\354\236\220\354\235\2702\\Nuvoton\\M2351_BSP_v3.00.004\\M2351Series_BSP_CMSIS_V3.00.004\\MyProject\\PulseMonitoring\\Secure" "../../../Library/Device/Nuvoton/M2351/Include/clk_reg.h"
	.section	.text.CRPT_IRQHandler,"ax",%progbits
	.hidden	CRPT_IRQHandler                 @ -- Begin function CRPT_IRQHandler
	.globl	CRPT_IRQHandler
	.p2align	2
	.type	CRPT_IRQHandler,%function
	.code	16                              @ @CRPT_IRQHandler
	.thumb_func
CRPT_IRQHandler:
.Lfunc_begin0:
	.loc	2 81 0                          @ Crypto/M2351_crypto.c:81:0
	.fnstart
	.cfi_sections .debug_frame
	.cfi_startproc
@ %bb.0:
	.save	{r7, lr}
	push	{r7, lr}
	.cfi_def_cfa_offset 8
	.cfi_offset lr, -4
	.cfi_offset r7, -8
	ldr	r0, __arm_cp.0_0
.Ltmp0:
	.loc	2 82 8 prologue_end             @ Crypto/M2351_crypto.c:82:8
	ldr	r1, [r0]
.Ltmp1:
	.loc	2 82 8 is_stmt 0                @ Crypto/M2351_crypto.c:82:8
	lsls	r1, r1, #30
	beq	.LBB0_2
@ %bb.1:
.Ltmp2:
	.loc	2 84 20 is_stmt 1               @ Crypto/M2351_crypto.c:84:20
	ldr	r1, __arm_cp.0_1
	movs	r2, #1
	str	r2, [r1]
	movs	r1, #3
	.loc	2 85 9                          @ Crypto/M2351_crypto.c:85:9
	str	r1, [r0]
.Ltmp3:
.LBB0_2:
	.loc	2 88 3                          @ Crypto/M2351_crypto.c:88:3
	subs	r0, r0, #4
	bl	ECC_DriverISR
	.loc	2 90 1                          @ Crypto/M2351_crypto.c:90:1
	pop	{r7, pc}
.Ltmp4:
	.p2align	2
@ %bb.3:
	.loc	2 0 1 is_stmt 0                 @ Crypto/M2351_crypto.c:0:1
__arm_cp.0_0:
	.long	1073946628                      @ 0x40032004
.Lcpi_end0:
	.size	__arm_cp.0_0, .Lcpi_end0-__arm_cp.0_0
__arm_cp.0_1:
	.long	g_AES_done
.Lcpi_end1:
	.size	__arm_cp.0_1, .Lcpi_end1-__arm_cp.0_1
.Lfunc_end0:
	.size	CRPT_IRQHandler, .Lfunc_end0-CRPT_IRQHandler
	.cfi_endproc
	.cantunwind
	.fnend
                                        @ -- End function
	.section	.text.M2351_Crypto_Init,"ax",%progbits
	.hidden	M2351_Crypto_Init               @ -- Begin function M2351_Crypto_Init
	.globl	M2351_Crypto_Init
	.p2align	2
	.type	M2351_Crypto_Init,%function
	.code	16                              @ @M2351_Crypto_Init
	.thumb_func
M2351_Crypto_Init:
.Lfunc_begin1:
	.loc	2 93 0 is_stmt 1                @ Crypto/M2351_crypto.c:93:0
	.fnstart
	.cfi_startproc
@ %bb.0:
	@DEBUG_VALUE: M2351_Crypto_Init:channel <- $r0
	@DEBUG_VALUE: M2351_Crypto_Init:modeAES <- $r1
	.save	{r4, r5, r7, lr}
	push	{r4, r5, r7, lr}
	.cfi_def_cfa_offset 16
	.cfi_offset lr, -4
	.cfi_offset r7, -8
	.cfi_offset r5, -12
	.cfi_offset r4, -16
	.pad	#8
	sub	sp, #8
	.cfi_def_cfa_offset 24
	mov	r4, r1
	mov	r5, r0
.Ltmp5:
	@DEBUG_VALUE: M2351_Crypto_Init:modeAES <- $r4
	@DEBUG_VALUE: M2351_Crypto_Init:channel <- $r5
	.loc	2 94 25 prologue_end            @ Crypto/M2351_crypto.c:94:25
	cmp	r1, #2
	blo	.LBB1_2
.Ltmp6:
@ %bb.1:
	@DEBUG_VALUE: M2351_Crypto_Init:channel <- $r5
	@DEBUG_VALUE: M2351_Crypto_Init:modeAES <- $r4
	.loc	2 95 4                          @ Crypto/M2351_crypto.c:95:4
	adr	r0, .LCPI1_0
	bl	puts
.Ltmp7:
.LBB1_2:
	@DEBUG_VALUE: M2351_Crypto_Init:channel <- $r5
	@DEBUG_VALUE: M2351_Crypto_Init:modeAES <- $r4
	.loc	2 97 3                          @ Crypto/M2351_crypto.c:97:3
	bl	__NVIC_EnableIRQ
	ldr	r0, __arm_cp.1_1
	.loc	2 98 3                          @ Crypto/M2351_crypto.c:98:3
	ldr	r1, [r0]
	movs	r2, #3
	orrs	r1, r2
	str	r1, [r0]
	movs	r1, #0
	.loc	2 100 3                         @ Crypto/M2351_crypto.c:100:3
	str	r1, [sp]
	str	r2, [sp, #4]
	movs	r3, #1
	mov	r1, r5
	mov	r2, r4
	bl	AES_Open
	.loc	2 101 1                         @ Crypto/M2351_crypto.c:101:1
	add	sp, #8
	pop	{r4, r5, r7, pc}
.Ltmp8:
	.p2align	2
@ %bb.3:
	.loc	2 0 1 is_stmt 0                 @ Crypto/M2351_crypto.c:0:1
.LCPI1_0:
.Lstr:
	.asciz	"Error mode , mode must be ENCRYPT or DECRYPT value\000"
__arm_cp.1_1:
	.long	1073946624                      @ 0x40032000
.Lcpi_end2:
	.size	__arm_cp.1_1, .Lcpi_end2-__arm_cp.1_1
.Lfunc_end1:
	.size	M2351_Crypto_Init, .Lfunc_end1-M2351_Crypto_Init
	.cfi_endproc
	.cantunwind
	.fnend
                                        @ -- End function
	.section	.text.__NVIC_EnableIRQ,"ax",%progbits
	.p2align	2                               @ -- Begin function __NVIC_EnableIRQ
	.type	__NVIC_EnableIRQ,%function
	.code	16                              @ @__NVIC_EnableIRQ
	.thumb_func
__NVIC_EnableIRQ:
.Lfunc_begin2:
	.loc	7 1276 0 is_stmt 1              @ ../../../Library/CMSIS/Include\core_armv8mbl.h:1276:0
	.fnstart
	.cfi_startproc
@ %bb.0:
	ldr	r0, __arm_cp.2_0
	movs	r1, #128
	@DEBUG_VALUE: __NVIC_EnableIRQ:IRQn <- 71
.Ltmp9:
	.loc	7 1279 52 prologue_end          @ ../../../Library/CMSIS/Include\core_armv8mbl.h:1279:52
	str	r1, [r0]
.Ltmp10:
	.loc	7 1281 1                        @ ../../../Library/CMSIS/Include\core_armv8mbl.h:1281:1
	bx	lr
.Ltmp11:
	.p2align	2
@ %bb.1:
	.loc	7 0 1 is_stmt 0                 @ ../../../Library/CMSIS/Include\core_armv8mbl.h:0:1
__arm_cp.2_0:
	.long	3758153992                      @ 0xe000e108
.Lcpi_end3:
	.size	__arm_cp.2_0, .Lcpi_end3-__arm_cp.2_0
.Lfunc_end2:
	.size	__NVIC_EnableIRQ, .Lfunc_end2-__NVIC_EnableIRQ
	.cfi_endproc
	.cantunwind
	.fnend
                                        @ -- End function
	.section	.text.M2351_Crypto_UseMasterKey,"ax",%progbits
	.hidden	M2351_Crypto_UseMasterKey       @ -- Begin function M2351_Crypto_UseMasterKey
	.globl	M2351_Crypto_UseMasterKey
	.p2align	2
	.type	M2351_Crypto_UseMasterKey,%function
	.code	16                              @ @M2351_Crypto_UseMasterKey
	.thumb_func
M2351_Crypto_UseMasterKey:
.Lfunc_begin3:
	.loc	2 104 0 is_stmt 1               @ Crypto/M2351_crypto.c:104:0
	.fnstart
	.cfi_startproc
@ %bb.0:
	.save	{r4, r5, r7, lr}
	push	{r4, r5, r7, lr}
	.cfi_def_cfa_offset 16
	.cfi_offset lr, -4
	.cfi_offset r7, -8
	.cfi_offset r5, -12
	.cfi_offset r4, -16
.Ltmp12:
	@DEBUG_VALUE: M2351_Crypto_UseMasterKey:u32Channel <- 1
	@DEBUG_VALUE: M2351_Crypto_UseMasterKey:key_reg_addr <- 1073946956
	.loc	2 115 5 prologue_end            @ Crypto/M2351_crypto.c:115:5
	bl	FMC_Open
	movs	r4, #0
	.loc	2 117 3                         @ Crypto/M2351_crypto.c:117:3
	mov	r0, r4
	bl	FMC_ReadUID
	ldr	r5, __arm_cp.3_0
	str	r0, [r5]
	movs	r0, #1
	.loc	2 118 3                         @ Crypto/M2351_crypto.c:118:3
	bl	FMC_ReadUID
	str	r0, [r5, #4]
	movs	r0, #2
	.loc	2 119 3                         @ Crypto/M2351_crypto.c:119:3
	bl	FMC_ReadUID
	str	r0, [r5, #8]
	.loc	2 120 3                         @ Crypto/M2351_crypto.c:120:3
	mov	r0, r4
	bl	FMC_ReadUID
	str	r0, [r5, #12]
	.loc	2 125 5                         @ Crypto/M2351_crypto.c:125:5
	bl	FMC_Close
.Ltmp13:
	@DEBUG_VALUE: M2351_Crypto_UseMasterKey:iv_reg_addr <- 1073946988
	.loc	2 136 3                         @ Crypto/M2351_crypto.c:136:3
	str	r4, [r5, #32]
	.loc	2 137 3                         @ Crypto/M2351_crypto.c:137:3
	str	r4, [r5, #36]
	.loc	2 138 3                         @ Crypto/M2351_crypto.c:138:3
	str	r4, [r5, #40]
	.loc	2 139 3                         @ Crypto/M2351_crypto.c:139:3
	str	r4, [r5, #44]
.Ltmp14:
	@DEBUG_VALUE: M2351_Crypto_UseMasterKey:crpt <- undef
	.loc	2 141 1                         @ Crypto/M2351_crypto.c:141:1
	pop	{r4, r5, r7, pc}
.Ltmp15:
	.p2align	2
@ %bb.1:
	.loc	2 0 1 is_stmt 0                 @ Crypto/M2351_crypto.c:0:1
__arm_cp.3_0:
	.long	1073946956                      @ 0x4003214c
.Lcpi_end4:
	.size	__arm_cp.3_0, .Lcpi_end4-__arm_cp.3_0
.Lfunc_end3:
	.size	M2351_Crypto_UseMasterKey, .Lfunc_end3-M2351_Crypto_UseMasterKey
	.cfi_endproc
	.cantunwind
	.fnend
                                        @ -- End function
	.section	.text.FMC_ReadUID,"ax",%progbits
	.p2align	2                               @ -- Begin function FMC_ReadUID
	.type	FMC_ReadUID,%function
	.code	16                              @ @FMC_ReadUID
	.thumb_func
FMC_ReadUID:
.Lfunc_begin4:
	.file	11 "C:\\Users\\shw26\\OneDrive\\Desktop\\2021\\2021-1\\\354\272\241\354\212\244\355\206\244\353\224\224\354\236\220\354\235\2702\\Nuvoton\\M2351_BSP_v3.00.004\\M2351Series_BSP_CMSIS_V3.00.004\\MyProject\\PulseMonitoring\\Secure" "../../../Library/StdDriver/inc\\fmc.h"
	.loc	11 396 0 is_stmt 1              @ ../../../Library/StdDriver/inc\fmc.h:396:0
	.fnstart
	.cfi_startproc
@ %bb.0:
	@DEBUG_VALUE: FMC_ReadUID:u8Index <- $r0
	ldr	r1, __arm_cp.4_0
	movs	r2, #4
	@DEBUG_VALUE: FMC_ReadUID:u8Index <- $r0
.Ltmp16:
	.loc	11 397 17 prologue_end          @ ../../../Library/StdDriver/inc\fmc.h:397:17
	str	r2, [r1, #4]
	.loc	11 398 18                       @ ../../../Library/StdDriver/inc\fmc.h:398:18
	subs	r2, r1, #4
	.loc	11 398 39 is_stmt 0             @ ../../../Library/StdDriver/inc\fmc.h:398:39
	lsls	r0, r0, #2
.Ltmp17:
	@DEBUG_VALUE: FMC_ReadUID:u8Index <- [DW_OP_LLVM_entry_value 1] $r0
	.loc	11 398 18                       @ ../../../Library/StdDriver/inc\fmc.h:398:18
	str	r0, [r2]
	movs	r0, #0
	.loc	11 399 17 is_stmt 1             @ ../../../Library/StdDriver/inc\fmc.h:399:17
	str	r0, [r1]
	movs	r0, #1
	.loc	11 400 17                       @ ../../../Library/StdDriver/inc\fmc.h:400:17
	str	r0, [r1, #8]
.Ltmp18:
.LBB4_1:                                @ =>This Inner Loop Header: Depth=1
	@DEBUG_VALUE: FMC_ReadUID:u8Index <- [DW_OP_LLVM_entry_value 1] $r0
	.loc	11 404 16                       @ ../../../Library/StdDriver/inc\fmc.h:404:16
	ldr	r0, [r1, #8]
	.loc	11 404 5 is_stmt 0              @ ../../../Library/StdDriver/inc\fmc.h:404:5
	cmp	r0, #0
	bne	.LBB4_1
.Ltmp19:
@ %bb.2:
	@DEBUG_VALUE: FMC_ReadUID:u8Index <- [DW_OP_LLVM_entry_value 1] $r0
	.loc	11 406 17 is_stmt 1             @ ../../../Library/StdDriver/inc\fmc.h:406:17
	ldr	r0, [r1]
	.loc	11 406 5 is_stmt 0              @ ../../../Library/StdDriver/inc\fmc.h:406:5
	bx	lr
.Ltmp20:
	.p2align	2
@ %bb.3:
	.loc	11 0 5                          @ ../../../Library/StdDriver/inc\fmc.h:0:5
__arm_cp.4_0:
	.long	1073790984                      @ 0x4000c008
.Lcpi_end5:
	.size	__arm_cp.4_0, .Lcpi_end5-__arm_cp.4_0
.Lfunc_end4:
	.size	FMC_ReadUID, .Lfunc_end4-FMC_ReadUID
	.cfi_endproc
	.cantunwind
	.fnend
                                        @ -- End function
	.section	.text.M2351_Crypto_UseSessionKey,"ax",%progbits
	.hidden	M2351_Crypto_UseSessionKey      @ -- Begin function M2351_Crypto_UseSessionKey
	.globl	M2351_Crypto_UseSessionKey
	.p2align	2
	.type	M2351_Crypto_UseSessionKey,%function
	.code	16                              @ @M2351_Crypto_UseSessionKey
	.thumb_func
M2351_Crypto_UseSessionKey:
.Lfunc_begin5:
	.loc	2 144 0 is_stmt 1               @ Crypto/M2351_crypto.c:144:0
	.fnstart
	.cfi_startproc
@ %bb.0:
	@DEBUG_VALUE: M2351_Crypto_UseSessionKey:channel <- $r0
	.save	{r4, r5, r7, lr}
	push	{r4, r5, r7, lr}
	.cfi_def_cfa_offset 16
	.cfi_offset lr, -4
	.cfi_offset r7, -8
	.cfi_offset r5, -12
	.cfi_offset r4, -16
	.pad	#32
	sub	sp, #32
	.cfi_def_cfa_offset 48
	mov	r4, r0
.Ltmp21:
	@DEBUG_VALUE: M2351_Crypto_UseSessionKey:channel <- $r4
	.loc	2 147 3 prologue_end            @ Crypto/M2351_crypto.c:147:3
	adr	r0, .LCPI5_0
	bl	puts
.Ltmp22:
	@DEBUG_VALUE: z <- 0
	.loc	2 153 14                        @ Crypto/M2351_crypto.c:153:14
	ldr	r0, __arm_cp.5_1
	ldm	r0!, {r1, r2, r3}
	ldr	r0, [r0]
	add	r5, sp, #16
	stm	r5!, {r1, r2, r3}
	str	r0, [sp, #28]
	.loc	2 154 14                        @ Crypto/M2351_crypto.c:154:14
	ldr	r0, __arm_cp.5_2
	ldm	r0!, {r1, r2, r3}
	ldr	r0, [r0]
	add	r5, sp, #0
	stm	r5!, {r1, r2, r3}
	str	r0, [sp, #12]
.Ltmp23:
	@DEBUG_VALUE: z <- undef
	.loc	2 0 14 is_stmt 0                @ Crypto/M2351_crypto.c:0:14
	ldr	r5, __arm_cp.5_3
	add	r2, sp, #16
	movs	r3, #0
.Ltmp24:
	.loc	2 156 2 is_stmt 1               @ Crypto/M2351_crypto.c:156:2
	mov	r0, r5
	mov	r1, r4
	bl	AES_SetKey
	mov	r2, sp
	.loc	2 157 2                         @ Crypto/M2351_crypto.c:157:2
	mov	r0, r5
	mov	r1, r4
	bl	AES_SetInitVect
	.loc	2 159 1                         @ Crypto/M2351_crypto.c:159:1
	add	sp, #32
	pop	{r4, r5, r7, pc}
.Ltmp25:
	.p2align	2
@ %bb.1:
	.loc	2 0 1 is_stmt 0                 @ Crypto/M2351_crypto.c:0:1
.LCPI5_0:
.Lstr.34:
	.asciz	"|     Secure is running ... Use sessionKey    |"
__arm_cp.5_1:
	.long	sessionKey
.Lcpi_end6:
	.size	__arm_cp.5_1, .Lcpi_end6-__arm_cp.5_1
__arm_cp.5_2:
	.long	sessionIV
.Lcpi_end7:
	.size	__arm_cp.5_2, .Lcpi_end7-__arm_cp.5_2
__arm_cp.5_3:
	.long	1073946624                      @ 0x40032000
.Lcpi_end8:
	.size	__arm_cp.5_3, .Lcpi_end8-__arm_cp.5_3
.Lfunc_end5:
	.size	M2351_Crypto_UseSessionKey, .Lfunc_end5-M2351_Crypto_UseSessionKey
	.cfi_endproc
	.cantunwind
	.fnend
                                        @ -- End function
	.section	.text.M2351_Encrypt_Data,"ax",%progbits
	.hidden	M2351_Encrypt_Data              @ -- Begin function M2351_Encrypt_Data
	.globl	M2351_Encrypt_Data
	.p2align	2
	.type	M2351_Encrypt_Data,%function
	.code	16                              @ @M2351_Encrypt_Data
	.thumb_func
M2351_Encrypt_Data:
.Lfunc_begin6:
	.loc	2 163 0 is_stmt 1               @ Crypto/M2351_crypto.c:163:0
	.fnstart
	.cfi_startproc
@ %bb.0:
	@DEBUG_VALUE: M2351_Encrypt_Data:channel <- $r0
	@DEBUG_VALUE: M2351_Encrypt_Data:InputData <- $r1
	@DEBUG_VALUE: M2351_Encrypt_Data:OutputData <- $r2
	@DEBUG_VALUE: M2351_Encrypt_Data:bytes <- $r3
	.save	{r4, r5, r6, lr}
	push	{r4, r5, r6, lr}
	.cfi_def_cfa_offset 16
	.cfi_offset lr, -4
	.cfi_offset r6, -8
	.cfi_offset r5, -12
	.cfi_offset r4, -16
	.pad	#8
	sub	sp, #8
	.cfi_def_cfa_offset 24
	mov	r4, r2
	mov	r2, r1
.Ltmp26:
	@DEBUG_VALUE: M2351_Encrypt_Data:OutputData <- [DW_OP_LLVM_entry_value 1] $r2
	mov	r5, r0
	@DEBUG_VALUE: M2351_Encrypt_Data:bytes <- $r3
.Ltmp27:
	@DEBUG_VALUE: M2351_Encrypt_Data:OutputData <- $r4
	@DEBUG_VALUE: M2351_Encrypt_Data:InputData <- $r2
	@DEBUG_VALUE: M2351_Encrypt_Data:channel <- $r5
	.loc	2 170 2 prologue_end            @ Crypto/M2351_crypto.c:170:2
	str	r3, [sp]
	ldr	r6, __arm_cp.6_0
	mov	r0, r6
	mov	r1, r5
	@DEBUG_VALUE: M2351_Encrypt_Data:InputData <- $r2
	mov	r3, r4
.Ltmp28:
	@DEBUG_VALUE: M2351_Encrypt_Data:bytes <- [DW_OP_LLVM_entry_value 1] $r3
	@DEBUG_VALUE: M2351_Encrypt_Data:OutputData <- $r3
	bl	AES_SetDMATransfer
.Ltmp29:
	.loc	2 180 13                        @ Crypto/M2351_crypto.c:180:13
	ldr	r4, __arm_cp.6_1
	movs	r0, #0
	str	r0, [r4]
	movs	r2, #5
	.loc	2 182 2                         @ Crypto/M2351_crypto.c:182:2
	mov	r0, r6
	mov	r1, r5
	bl	AES_Start
.Ltmp30:
.LBB6_1:                                @ =>This Inner Loop Header: Depth=1
	@DEBUG_VALUE: M2351_Encrypt_Data:channel <- $r5
	@DEBUG_VALUE: M2351_Encrypt_Data:bytes <- [DW_OP_LLVM_entry_value 1] $r3
	.loc	2 185 9                         @ Crypto/M2351_crypto.c:185:9
	ldr	r0, [r4]
	.loc	2 185 2 is_stmt 0               @ Crypto/M2351_crypto.c:185:2
	cmp	r0, #0
	beq	.LBB6_1
.Ltmp31:
@ %bb.2:
	@DEBUG_VALUE: M2351_Encrypt_Data:channel <- $r5
	@DEBUG_VALUE: M2351_Encrypt_Data:bytes <- [DW_OP_LLVM_entry_value 1] $r3
	.loc	2 190 1 is_stmt 1               @ Crypto/M2351_crypto.c:190:1
	add	sp, #8
	pop	{r4, r5, r6, pc}
.Ltmp32:
	.p2align	2
@ %bb.3:
	.loc	2 0 1 is_stmt 0                 @ Crypto/M2351_crypto.c:0:1
__arm_cp.6_0:
	.long	1073946624                      @ 0x40032000
.Lcpi_end9:
	.size	__arm_cp.6_0, .Lcpi_end9-__arm_cp.6_0
__arm_cp.6_1:
	.long	g_AES_done
.Lcpi_end10:
	.size	__arm_cp.6_1, .Lcpi_end10-__arm_cp.6_1
.Lfunc_end6:
	.size	M2351_Encrypt_Data, .Lfunc_end6-M2351_Encrypt_Data
	.cfi_endproc
	.cantunwind
	.fnend
                                        @ -- End function
	.section	.text.M2351_Decrypt_Data,"ax",%progbits
	.hidden	M2351_Decrypt_Data              @ -- Begin function M2351_Decrypt_Data
	.globl	M2351_Decrypt_Data
	.p2align	2
	.type	M2351_Decrypt_Data,%function
	.code	16                              @ @M2351_Decrypt_Data
	.thumb_func
M2351_Decrypt_Data:
.Lfunc_begin7:
	.loc	2 194 0 is_stmt 1               @ Crypto/M2351_crypto.c:194:0
	.fnstart
	.cfi_startproc
@ %bb.0:
	@DEBUG_VALUE: M2351_Decrypt_Data:channel <- $r0
	@DEBUG_VALUE: M2351_Decrypt_Data:InputData <- $r1
	@DEBUG_VALUE: M2351_Decrypt_Data:OutputData <- $r2
	@DEBUG_VALUE: M2351_Decrypt_Data:bytes <- $r3
	.save	{r4, r5, r6, lr}
	push	{r4, r5, r6, lr}
	.cfi_def_cfa_offset 16
	.cfi_offset lr, -4
	.cfi_offset r6, -8
	.cfi_offset r5, -12
	.cfi_offset r4, -16
	.pad	#8
	sub	sp, #8
	.cfi_def_cfa_offset 24
	mov	r4, r2
	mov	r2, r1
.Ltmp33:
	@DEBUG_VALUE: M2351_Decrypt_Data:OutputData <- [DW_OP_LLVM_entry_value 1] $r2
	mov	r5, r0
	@DEBUG_VALUE: M2351_Decrypt_Data:bytes <- $r3
.Ltmp34:
	@DEBUG_VALUE: M2351_Decrypt_Data:OutputData <- $r4
	@DEBUG_VALUE: M2351_Decrypt_Data:InputData <- $r2
	@DEBUG_VALUE: M2351_Decrypt_Data:channel <- $r5
	.loc	2 202 5 prologue_end            @ Crypto/M2351_crypto.c:202:5
	str	r3, [sp]
	ldr	r6, __arm_cp.7_0
	mov	r0, r6
	mov	r1, r5
	@DEBUG_VALUE: M2351_Decrypt_Data:InputData <- $r2
	mov	r3, r4
.Ltmp35:
	@DEBUG_VALUE: M2351_Decrypt_Data:bytes <- [DW_OP_LLVM_entry_value 1] $r3
	@DEBUG_VALUE: M2351_Decrypt_Data:OutputData <- $r3
	bl	AES_SetDMATransfer
.Ltmp36:
	.loc	2 211 16                        @ Crypto/M2351_crypto.c:211:16
	ldr	r4, __arm_cp.7_1
	movs	r0, #0
	str	r0, [r4]
	movs	r2, #5
	.loc	2 213 5                         @ Crypto/M2351_crypto.c:213:5
	mov	r0, r6
	mov	r1, r5
	bl	AES_Start
.Ltmp37:
.LBB7_1:                                @ =>This Inner Loop Header: Depth=1
	@DEBUG_VALUE: M2351_Decrypt_Data:channel <- $r5
	@DEBUG_VALUE: M2351_Decrypt_Data:bytes <- [DW_OP_LLVM_entry_value 1] $r3
	.loc	2 215 12                        @ Crypto/M2351_crypto.c:215:12
	ldr	r0, [r4]
	.loc	2 215 5 is_stmt 0               @ Crypto/M2351_crypto.c:215:5
	cmp	r0, #0
	beq	.LBB7_1
.Ltmp38:
@ %bb.2:
	@DEBUG_VALUE: M2351_Decrypt_Data:channel <- $r5
	@DEBUG_VALUE: M2351_Decrypt_Data:bytes <- [DW_OP_LLVM_entry_value 1] $r3
	.loc	2 219 1 is_stmt 1               @ Crypto/M2351_crypto.c:219:1
	add	sp, #8
	pop	{r4, r5, r6, pc}
.Ltmp39:
	.p2align	2
@ %bb.3:
	.loc	2 0 1 is_stmt 0                 @ Crypto/M2351_crypto.c:0:1
__arm_cp.7_0:
	.long	1073946624                      @ 0x40032000
.Lcpi_end11:
	.size	__arm_cp.7_0, .Lcpi_end11-__arm_cp.7_0
__arm_cp.7_1:
	.long	g_AES_done
.Lcpi_end12:
	.size	__arm_cp.7_1, .Lcpi_end12-__arm_cp.7_1
.Lfunc_end7:
	.size	M2351_Decrypt_Data, .Lfunc_end7-M2351_Decrypt_Data
	.cfi_endproc
	.cantunwind
	.fnend
                                        @ -- End function
	.section	.text.M2351_FMC_Read_Key,"ax",%progbits
	.hidden	M2351_FMC_Read_Key              @ -- Begin function M2351_FMC_Read_Key
	.globl	M2351_FMC_Read_Key
	.p2align	2
	.type	M2351_FMC_Read_Key,%function
	.code	16                              @ @M2351_FMC_Read_Key
	.thumb_func
M2351_FMC_Read_Key:
.Lfunc_begin8:
	.loc	2 225 0 is_stmt 1               @ Crypto/M2351_crypto.c:225:0
	.fnstart
	.cfi_startproc
@ %bb.0:
	@DEBUG_VALUE: M2351_FMC_Read_Key:num <- $r0
	@DEBUG_VALUE: M2351_FMC_Read_Key:len <- $r1
	@DEBUG_VALUE: M2351_FMC_Read_Key:priKey <- $r2
	.save	{r4, r5, r6, r7, lr}
	push	{r4, r5, r6, r7, lr}
	.cfi_def_cfa_offset 20
	.cfi_offset lr, -4
	.cfi_offset r7, -8
	.cfi_offset r6, -12
	.cfi_offset r5, -16
	.cfi_offset r4, -20
	.pad	#36
	sub	sp, #36
	.cfi_def_cfa_offset 56
	mov	r4, r2
	mov	r5, r1
	mov	r7, r0
	movs	r6, #0
.Ltmp40:
	@DEBUG_VALUE: M2351_FMC_Read_Key:priKey <- $r4
	@DEBUG_VALUE: M2351_FMC_Read_Key:len <- $r5
	@DEBUG_VALUE: M2351_FMC_Read_Key:num <- $r7
	.loc	2 228 12 prologue_end           @ Crypto/M2351_crypto.c:228:12
	str	r6, [sp, #24]
	str	r6, [sp, #20]
	str	r6, [sp, #16]
	str	r6, [sp, #12]
	str	r6, [sp, #8]
	str	r6, [sp, #4]
	.loc	2 230 2                         @ Crypto/M2351_crypto.c:230:2
	ldr	r0, __arm_cp.8_0
	bl	puts
	.loc	2 231 3                         @ Crypto/M2351_crypto.c:231:3
	adr	r0, .LCPI8_1
	bl	puts
	.loc	2 232 3                         @ Crypto/M2351_crypto.c:232:3
	adr	r0, .LCPI8_2
	bl	puts
	.loc	2 234 5                         @ Crypto/M2351_crypto.c:234:5
	lsrs	r0, r7, #8
	beq	.LBB8_2
.Ltmp41:
@ %bb.1:
	@DEBUG_VALUE: M2351_FMC_Read_Key:num <- $r7
	@DEBUG_VALUE: M2351_FMC_Read_Key:len <- $r5
	@DEBUG_VALUE: M2351_FMC_Read_Key:priKey <- $r4
	.loc	2 236 7                         @ Crypto/M2351_crypto.c:236:7
	ldr	r0, __arm_cp.8_5
	bl	puts
.Ltmp42:
	.loc	2 263 1                         @ Crypto/M2351_crypto.c:263:1
	add	sp, #36
	pop	{r4, r5, r6, r7, pc}
.Ltmp43:
.LBB8_2:
	@DEBUG_VALUE: M2351_FMC_Read_Key:num <- $r7
	@DEBUG_VALUE: M2351_FMC_Read_Key:len <- $r5
	@DEBUG_VALUE: M2351_FMC_Read_Key:priKey <- $r4
	.loc	2 0 1 is_stmt 0                 @ Crypto/M2351_crypto.c:0:1
	str	r4, [sp]                        @ 4-byte Spill
.Ltmp44:
	@DEBUG_VALUE: M2351_FMC_Read_Key:priKey <- [$sp+0]
	.loc	2 240 3 is_stmt 1               @ Crypto/M2351_crypto.c:240:3
	bl	SYS_UnlockReg
	.loc	2 242 3                         @ Crypto/M2351_crypto.c:242:3
	bl	FMC_Open
.Ltmp45:
	@DEBUG_VALUE: M2351_FMC_Read_Key:num <- 0
	.loc	2 244 2                         @ Crypto/M2351_crypto.c:244:2
	cbz	r5, .LBB8_8
.Ltmp46:
@ %bb.3:
	@DEBUG_VALUE: M2351_FMC_Read_Key:priKey <- [$sp+0]
	@DEBUG_VALUE: M2351_FMC_Read_Key:len <- $r5
	@DEBUG_VALUE: M2351_FMC_Read_Key:num <- 0
	.loc	2 0 2 is_stmt 0                 @ Crypto/M2351_crypto.c:0:2
	add	r7, sp, #4
.Ltmp47:
.LBB8_4:                                @ =>This Inner Loop Header: Depth=1
	@DEBUG_VALUE: M2351_FMC_Read_Key:priKey <- [$sp+0]
	@DEBUG_VALUE: M2351_FMC_Read_Key:len <- $r5
	@DEBUG_VALUE: M2351_FMC_Read_Key:num <- $r6
	@DEBUG_VALUE: M2351_FMC_Read_Key:u32OtpHw <- [DW_OP_plus_uconst 32, DW_OP_deref] $sp
	@DEBUG_VALUE: M2351_FMC_Read_Key:u32OtpLw <- [DW_OP_plus_uconst 28, DW_OP_deref] $sp
	add	r1, sp, #28
	add	r2, sp, #32
.Ltmp48:
	.loc	2 246 6 is_stmt 1               @ Crypto/M2351_crypto.c:246:6
	mov	r0, r6
	bl	FMC_Read_OTP
.Ltmp49:
	.loc	2 246 6 is_stmt 0               @ Crypto/M2351_crypto.c:246:6
	cbnz	r0, .LBB8_9
.Ltmp50:
@ %bb.5:                                @   in Loop: Header=BB8_4 Depth=1
	@DEBUG_VALUE: M2351_FMC_Read_Key:priKey <- [$sp+0]
	@DEBUG_VALUE: M2351_FMC_Read_Key:num <- $r6
	@DEBUG_VALUE: M2351_FMC_Read_Key:len <- $r5
	@DEBUG_VALUE: M2351_FMC_Read_Key:u32OtpLw <- [DW_OP_plus_uconst 28, DW_OP_deref] $sp
	@DEBUG_VALUE: M2351_FMC_Read_Key:u32OtpHw <- [DW_OP_plus_uconst 32, DW_OP_deref] $sp
	.loc	2 251 30 is_stmt 1              @ Crypto/M2351_crypto.c:251:30
	ldr	r0, [sp, #28]
.Ltmp51:
	@DEBUG_VALUE: M2351_FMC_Read_Key:u32OtpLw <- $r0
	.loc	2 251 28 is_stmt 0              @ Crypto/M2351_crypto.c:251:28
	str	r0, [r7]
	.loc	2 252 30 is_stmt 1              @ Crypto/M2351_crypto.c:252:30
	ldr	r0, [sp, #32]
.Ltmp52:
	@DEBUG_VALUE: M2351_FMC_Read_Key:u32OtpHw <- $r0
	.loc	2 252 28 is_stmt 0              @ Crypto/M2351_crypto.c:252:28
	str	r0, [r7, #4]
.Ltmp53:
	.loc	2 244 20 is_stmt 1              @ Crypto/M2351_crypto.c:244:20
	adds	r7, #8
	.loc	2 244 30 is_stmt 0              @ Crypto/M2351_crypto.c:244:30
	adds	r6, r6, #1
.Ltmp54:
	@DEBUG_VALUE: M2351_FMC_Read_Key:num <- $r6
	.loc	2 244 2                         @ Crypto/M2351_crypto.c:244:2
	cmp	r5, r6
	bne	.LBB8_4
.Ltmp55:
@ %bb.6:
	@DEBUG_VALUE: M2351_FMC_Read_Key:priKey <- [$sp+0]
	@DEBUG_VALUE: M2351_FMC_Read_Key:num <- $r6
	@DEBUG_VALUE: M2351_FMC_Read_Key:len <- $r5
	@DEBUG_VALUE: M2351_FMC_Read_Key:u32OtpHw <- $r0
	.loc	2 0 2                           @ Crypto/M2351_crypto.c:0:2
	movs	r6, #0
.Ltmp56:
	add	r4, sp, #4
	adr	r7, .LCPI8_4
.Ltmp57:
.LBB8_7:                                @ =>This Inner Loop Header: Depth=1
	@DEBUG_VALUE: M2351_FMC_Read_Key:priKey <- [$sp+0]
	@DEBUG_VALUE: M2351_FMC_Read_Key:len <- $r5
	@DEBUG_VALUE: M2351_FMC_Read_Key:num <- $r6
	.loc	2 255 48 is_stmt 1              @ Crypto/M2351_crypto.c:255:48
	ldm	r4!, {r2, r3}
	.loc	2 255 3 is_stmt 0               @ Crypto/M2351_crypto.c:255:3
	mov	r0, r7
	mov	r1, r6
	.loc	2 255 48                        @ Crypto/M2351_crypto.c:255:48
	subs	r4, #8
	.loc	2 255 3                         @ Crypto/M2351_crypto.c:255:3
	bl	__2printf
	.loc	2 254 20 is_stmt 1              @ Crypto/M2351_crypto.c:254:20
	adds	r4, #8
	.loc	2 254 30 is_stmt 0              @ Crypto/M2351_crypto.c:254:30
	adds	r6, r6, #1
.Ltmp58:
	@DEBUG_VALUE: M2351_FMC_Read_Key:num <- $r6
	.loc	2 254 2                         @ Crypto/M2351_crypto.c:254:2
	cmp	r5, r6
	bne	.LBB8_7
.Ltmp59:
.LBB8_8:
	@DEBUG_VALUE: M2351_FMC_Read_Key:priKey <- [$sp+0]
	@DEBUG_VALUE: M2351_FMC_Read_Key:len <- $r5
	.loc	2 0 2                           @ Crypto/M2351_crypto.c:0:2
	movs	r0, #48
	add	r1, sp, #4
	.loc	2 257 2 is_stmt 1               @ Crypto/M2351_crypto.c:257:2
	ldr	r2, [sp]                        @ 4-byte Reload
.Ltmp60:
	@DEBUG_VALUE: M2351_FMC_Read_Key:priKey <- $r2
	bl	Reg2Hex
.Ltmp61:
	.loc	2 0 2 is_stmt 0                 @ Crypto/M2351_crypto.c:0:2
	b	.LBB8_10
.Ltmp62:
.LBB8_9:
	@DEBUG_VALUE: M2351_FMC_Read_Key:priKey <- [$sp+0]
	@DEBUG_VALUE: M2351_FMC_Read_Key:num <- $r6
	@DEBUG_VALUE: M2351_FMC_Read_Key:len <- $r5
	@DEBUG_VALUE: M2351_FMC_Read_Key:u32OtpLw <- [DW_OP_plus_uconst 28, DW_OP_deref] $sp
	@DEBUG_VALUE: M2351_FMC_Read_Key:u32OtpHw <- [DW_OP_plus_uconst 32, DW_OP_deref] $sp
	@DEBUG_VALUE: M2351_FMC_Read_Key:num <- $r6
	.loc	2 248 5 is_stmt 1               @ Crypto/M2351_crypto.c:248:5
	ldr	r0, __arm_cp.8_3
	mov	r1, r6
	bl	__2printf
.Ltmp63:
.LBB8_10:
	@DEBUG_VALUE: M2351_FMC_Read_Key:len <- $r5
	@DEBUG_LABEL: M2351_FMC_Read_Key:lexit
	.loc	2 260 3                         @ Crypto/M2351_crypto.c:260:3
	bl	FMC_Close
	.loc	2 261 2                         @ Crypto/M2351_crypto.c:261:2
	bl	SYS_LockReg
	.loc	2 263 1                         @ Crypto/M2351_crypto.c:263:1
	add	sp, #36
	pop	{r4, r5, r6, r7, pc}
.Ltmp64:
	.p2align	2
@ %bb.11:
	.loc	2 0 1 is_stmt 0                 @ Crypto/M2351_crypto.c:0:1
__arm_cp.8_0:
	.long	.Lstr.35
.Lcpi_end13:
	.size	__arm_cp.8_0, .Lcpi_end13-__arm_cp.8_0
.LCPI8_1:
.Lstr.36:
	.asciz	"|          FMC Read OTP Private Key           |"
.LCPI8_2:
.Lstr.37:
	.asciz	"+---------------------------------------------+"
__arm_cp.8_3:
	.long	.L.str.5
.Lcpi_end14:
	.size	__arm_cp.8_3, .Lcpi_end14-__arm_cp.8_3
.LCPI8_4:
.L.str.6:
	.asciz	"Read OTP%d : 0x%08x-0x%08x.\n\000\000\000"
__arm_cp.8_5:
	.long	.Lstr.38
.Lcpi_end15:
	.size	__arm_cp.8_5, .Lcpi_end15-__arm_cp.8_5
.Lfunc_end8:
	.size	M2351_FMC_Read_Key, .Lfunc_end8-M2351_FMC_Read_Key
	.cfi_endproc
	.cantunwind
	.fnend
                                        @ -- End function
	.section	.text.SYS_UnlockReg,"ax",%progbits
	.p2align	2                               @ -- Begin function SYS_UnlockReg
	.type	SYS_UnlockReg,%function
	.code	16                              @ @SYS_UnlockReg
	.thumb_func
SYS_UnlockReg:
.Lfunc_begin9:
	.file	12 "C:\\Users\\shw26\\OneDrive\\Desktop\\2021\\2021-1\\\354\272\241\354\212\244\355\206\244\353\224\224\354\236\220\354\235\2702\\Nuvoton\\M2351_BSP_v3.00.004\\M2351Series_BSP_CMSIS_V3.00.004\\MyProject\\PulseMonitoring\\Secure" "../../../Library/StdDriver/inc\\sys.h"
	.loc	12 3042 0 is_stmt 1             @ ../../../Library/StdDriver/inc\sys.h:3042:0
	.fnstart
	.cfi_startproc
@ %bb.0:
	.save	{r4, lr}
	push	{r4, lr}
	.cfi_def_cfa_offset 8
	.cfi_offset lr, -4
	.cfi_offset r4, -8
	ldr	r0, __arm_cp.9_0
	movs	r1, #89
	movs	r2, #22
	movs	r3, #136
.LBB9_1:                                @ =>This Inner Loop Header: Depth=1
.Ltmp65:
	.loc	12 3045 22 prologue_end         @ ../../../Library/StdDriver/inc\sys.h:3045:22
	str	r1, [r0]
	.loc	12 3046 22                      @ ../../../Library/StdDriver/inc\sys.h:3046:22
	str	r2, [r0]
	.loc	12 3047 22                      @ ../../../Library/StdDriver/inc\sys.h:3047:22
	str	r3, [r0]
.Ltmp66:
	.loc	12 3049 16                      @ ../../../Library/StdDriver/inc\sys.h:3049:16
	ldr	r4, [r0]
.Ltmp67:
	.loc	12 3048 5                       @ ../../../Library/StdDriver/inc\sys.h:3048:5
	cmp	r4, #0
	beq	.LBB9_1
.Ltmp68:
@ %bb.2:
	.loc	12 3050 1                       @ ../../../Library/StdDriver/inc\sys.h:3050:1
	pop	{r4, pc}
.Ltmp69:
	.p2align	2
@ %bb.3:
	.loc	12 0 1 is_stmt 0                @ ../../../Library/StdDriver/inc\sys.h:0:1
__arm_cp.9_0:
	.long	1073742080                      @ 0x40000100
.Lcpi_end16:
	.size	__arm_cp.9_0, .Lcpi_end16-__arm_cp.9_0
.Lfunc_end9:
	.size	SYS_UnlockReg, .Lfunc_end9-SYS_UnlockReg
	.cfi_endproc
	.cantunwind
	.fnend
                                        @ -- End function
	.section	.text.Reg2Hex,"ax",%progbits
	.p2align	1                               @ -- Begin function Reg2Hex
	.type	Reg2Hex,%function
	.code	16                              @ @Reg2Hex
	.thumb_func
Reg2Hex:
.Lfunc_begin10:
	.loc	2 37 0 is_stmt 1                @ Crypto/M2351_crypto.c:37:0
	.fnstart
	.cfi_startproc
@ %bb.0:
	@DEBUG_VALUE: Reg2Hex:count <- $r0
	@DEBUG_VALUE: Reg2Hex:reg <- $r1
	@DEBUG_VALUE: Reg2Hex:output <- $r2
	.save	{r4, r5, r6, r7, lr}
	push	{r4, r5, r6, r7, lr}
	.cfi_def_cfa_offset 20
	.cfi_offset lr, -4
	.cfi_offset r7, -8
	.cfi_offset r6, -12
	.cfi_offset r5, -16
	.cfi_offset r4, -20
	.pad	#28
	sub	sp, #28
	.cfi_def_cfa_offset 48
	str	r1, [sp, #8]                    @ 4-byte Spill
	movs	r1, #0
.Ltmp70:
	@DEBUG_VALUE: Reg2Hex:reg <- [DW_OP_LLVM_entry_value 1] $r1
	str	r2, [sp, #12]                   @ 4-byte Spill
	str	r1, [sp, #16]                   @ 4-byte Spill
.Ltmp71:
	@DEBUG_VALUE: Reg2Hex:output <- [DW_OP_plus_uconst 12] [$sp+0]
	@DEBUG_VALUE: Reg2Hex:reg <- [DW_OP_plus_uconst 8] [$sp+0]
	@DEBUG_VALUE: Reg2Hex:count <- $r0
	.loc	2 41 19 prologue_end            @ Crypto/M2351_crypto.c:41:19
	strb	r1, [r2, r0]
.Ltmp72:
	@DEBUG_VALUE: Reg2Hex:ri <- 0
	@DEBUG_VALUE: Reg2Hex:idx <- [DW_OP_constu 1, DW_OP_minus, DW_OP_stack_value] $r0
	.loc	2 44 5                          @ Crypto/M2351_crypto.c:44:5
	cmp	r0, #1
	blt	.LBB10_9
.Ltmp73:
@ %bb.1:
	@DEBUG_VALUE: Reg2Hex:idx <- [DW_OP_constu 1, DW_OP_minus, DW_OP_stack_value] $r0
	@DEBUG_VALUE: Reg2Hex:count <- $r0
	@DEBUG_VALUE: Reg2Hex:reg <- [DW_OP_plus_uconst 8] [$sp+0]
	@DEBUG_VALUE: Reg2Hex:output <- [DW_OP_plus_uconst 12] [$sp+0]
	@DEBUG_VALUE: Reg2Hex:ri <- 0
	.loc	2 42 17                         @ Crypto/M2351_crypto.c:42:17
	subs	r4, r0, #1
.Ltmp74:
	@DEBUG_VALUE: Reg2Hex:idx <- $r4
	.loc	2 0 17 is_stmt 0                @ Crypto/M2351_crypto.c:0:17
	movs	r0, #7
.Ltmp75:
	@DEBUG_VALUE: Reg2Hex:count <- [DW_OP_LLVM_entry_value 1] $r0
	str	r0, [sp, #4]                    @ 4-byte Spill
	ldr	r0, [sp, #16]                   @ 4-byte Reload
	b	.LBB10_3
.Ltmp76:
.LBB10_2:                               @   in Loop: Header=BB10_3 Depth=1
	@DEBUG_VALUE: Reg2Hex:ri <- $r0
	@DEBUG_VALUE: Reg2Hex:reg <- [DW_OP_plus_uconst 8] [$sp+0]
	@DEBUG_VALUE: Reg2Hex:output <- [DW_OP_plus_uconst 12] [$sp+0]
	@DEBUG_VALUE: Reg2Hex:count <- [DW_OP_LLVM_entry_value 1] $r0
	@DEBUG_VALUE: Reg2Hex:idx <- $r4
	.loc	2 44 29 is_stmt 1               @ Crypto/M2351_crypto.c:44:29
	adds	r0, r0, #1
.Ltmp77:
	@DEBUG_VALUE: Reg2Hex:ri <- $r0
	.loc	2 44 5 is_stmt 0                @ Crypto/M2351_crypto.c:44:5
	cmp	r4, #0
	bmi	.LBB10_9
.Ltmp78:
.LBB10_3:                               @ =>This Loop Header: Depth=1
                                        @     Child Loop BB10_7 Depth 2
	@DEBUG_VALUE: Reg2Hex:idx <- $r4
	@DEBUG_VALUE: Reg2Hex:reg <- [DW_OP_plus_uconst 8] [$sp+0]
	@DEBUG_VALUE: Reg2Hex:output <- [DW_OP_plus_uconst 12] [$sp+0]
	@DEBUG_VALUE: Reg2Hex:count <- [DW_OP_LLVM_entry_value 1] $r0
	@DEBUG_VALUE: Reg2Hex:idx <- $r4
	@DEBUG_VALUE: Reg2Hex:ri <- $r0
	@DEBUG_VALUE: Reg2Hex:i <- 0
	.loc	2 46 9 is_stmt 1                @ Crypto/M2351_crypto.c:46:9
	cmp	r4, #0
	bmi	.LBB10_2
.Ltmp79:
@ %bb.4:                                @   in Loop: Header=BB10_3 Depth=1
	@DEBUG_VALUE: Reg2Hex:idx <- $r4
	@DEBUG_VALUE: Reg2Hex:ri <- $r0
	@DEBUG_VALUE: Reg2Hex:reg <- [DW_OP_plus_uconst 8] [$sp+0]
	@DEBUG_VALUE: Reg2Hex:output <- [DW_OP_plus_uconst 12] [$sp+0]
	@DEBUG_VALUE: Reg2Hex:i <- 0
	@DEBUG_VALUE: Reg2Hex:count <- [DW_OP_LLVM_entry_value 1] $r0
	.loc	2 0 9 is_stmt 0                 @ Crypto/M2351_crypto.c:0:9
	str	r0, [sp, #20]                   @ 4-byte Spill
.Ltmp80:
	@DEBUG_VALUE: Reg2Hex:ri <- [DW_OP_plus_uconst 20] [$sp+0]
	lsls	r0, r0, #2
.Ltmp81:
	.loc	2 46 9                          @ Crypto/M2351_crypto.c:46:9
	cmp	r4, #7
	mov	r1, r4
	blo	.LBB10_6
.Ltmp82:
@ %bb.5:                                @   in Loop: Header=BB10_3 Depth=1
	@DEBUG_VALUE: Reg2Hex:ri <- [DW_OP_plus_uconst 20] [$sp+0]
	@DEBUG_VALUE: Reg2Hex:idx <- $r4
	@DEBUG_VALUE: Reg2Hex:reg <- [DW_OP_plus_uconst 8] [$sp+0]
	@DEBUG_VALUE: Reg2Hex:output <- [DW_OP_plus_uconst 12] [$sp+0]
	@DEBUG_VALUE: Reg2Hex:i <- 0
	@DEBUG_VALUE: Reg2Hex:count <- [DW_OP_LLVM_entry_value 1] $r0
	ldr	r1, [sp, #4]                    @ 4-byte Reload
.Ltmp83:
.LBB10_6:                               @   in Loop: Header=BB10_3 Depth=1
	@DEBUG_VALUE: Reg2Hex:ri <- [DW_OP_plus_uconst 20] [$sp+0]
	@DEBUG_VALUE: Reg2Hex:idx <- $r4
	@DEBUG_VALUE: Reg2Hex:reg <- [DW_OP_plus_uconst 8] [$sp+0]
	@DEBUG_VALUE: Reg2Hex:output <- [DW_OP_plus_uconst 12] [$sp+0]
	@DEBUG_VALUE: Reg2Hex:i <- 0
	@DEBUG_VALUE: Reg2Hex:count <- [DW_OP_LLVM_entry_value 1] $r0
	.loc	2 0 0                           @ Crypto/M2351_crypto.c:0:0
	ldr	r2, [sp, #8]                    @ 4-byte Reload
	adds	r0, r2, r0
	.loc	2 46 9                          @ Crypto/M2351_crypto.c:46:9
	str	r0, [sp, #24]                   @ 4-byte Spill
	adds	r7, r1, #1
	ldr	r5, [sp, #12]                   @ 4-byte Reload
	ldr	r6, [sp, #16]                   @ 4-byte Reload
.Ltmp84:
.LBB10_7:                               @   Parent Loop BB10_3 Depth=1
                                        @ =>  This Inner Loop Header: Depth=2
	@DEBUG_VALUE: Reg2Hex:ri <- [DW_OP_plus_uconst 20] [$sp+0]
	@DEBUG_VALUE: Reg2Hex:reg <- [DW_OP_plus_uconst 8] [$sp+0]
	@DEBUG_VALUE: Reg2Hex:output <- [DW_OP_plus_uconst 12] [$sp+0]
	@DEBUG_VALUE: Reg2Hex:count <- [DW_OP_LLVM_entry_value 1] $r0
	@DEBUG_VALUE: Reg2Hex:idx <- undef
	@DEBUG_VALUE: Reg2Hex:i <- $r6
	.loc	2 48 47 is_stmt 1               @ Crypto/M2351_crypto.c:48:47
	ldr	r0, [sp, #24]                   @ 4-byte Reload
	ldr	r0, [r0]
	.loc	2 48 27 is_stmt 0               @ Crypto/M2351_crypto.c:48:27
	mov	r1, r6
	bl	get_Nth_nibble_char
	.loc	2 48 25                         @ Crypto/M2351_crypto.c:48:25
	strb	r0, [r5, r4]
.Ltmp85:
	.loc	2 46 32 is_stmt 1               @ Crypto/M2351_crypto.c:46:32
	subs	r5, r5, #1
.Ltmp86:
	@DEBUG_VALUE: Reg2Hex:idx <- [DW_OP_constu 1, DW_OP_minus, DW_OP_stack_value] undef
	.loc	2 46 48 is_stmt 0               @ Crypto/M2351_crypto.c:46:48
	adds	r6, r6, #1
.Ltmp87:
	@DEBUG_VALUE: Reg2Hex:i <- $r6
	.loc	2 46 9                          @ Crypto/M2351_crypto.c:46:9
	cmp	r7, r6
	bne	.LBB10_7
.Ltmp88:
@ %bb.8:                                @   in Loop: Header=BB10_3 Depth=1
	@DEBUG_VALUE: Reg2Hex:ri <- [DW_OP_plus_uconst 20] [$sp+0]
	@DEBUG_VALUE: Reg2Hex:i <- $r6
	@DEBUG_VALUE: Reg2Hex:reg <- [DW_OP_plus_uconst 8] [$sp+0]
	@DEBUG_VALUE: Reg2Hex:output <- [DW_OP_plus_uconst 12] [$sp+0]
	@DEBUG_VALUE: Reg2Hex:count <- [DW_OP_LLVM_entry_value 1] $r0
	.loc	2 44 29 is_stmt 1               @ Crypto/M2351_crypto.c:44:29
	subs	r4, r4, r6
	ldr	r0, [sp, #20]                   @ 4-byte Reload
.Ltmp89:
	@DEBUG_VALUE: Reg2Hex:ri <- $r0
	.loc	2 0 29 is_stmt 0                @ Crypto/M2351_crypto.c:0:29
	b	.LBB10_2
.Ltmp90:
.LBB10_9:
	@DEBUG_VALUE: Reg2Hex:reg <- [DW_OP_plus_uconst 8] [$sp+0]
	@DEBUG_VALUE: Reg2Hex:output <- [DW_OP_plus_uconst 12] [$sp+0]
	.loc	2 52 1 is_stmt 1                @ Crypto/M2351_crypto.c:52:1
	add	sp, #28
.Ltmp91:
	pop	{r4, r5, r6, r7, pc}
.Ltmp92:
.Lfunc_end10:
	.size	Reg2Hex, .Lfunc_end10-Reg2Hex
	.cfi_endproc
	.cantunwind
	.fnend
                                        @ -- End function
	.section	.text.SYS_LockReg,"ax",%progbits
	.p2align	2                               @ -- Begin function SYS_LockReg
	.type	SYS_LockReg,%function
	.code	16                              @ @SYS_LockReg
	.thumb_func
SYS_LockReg:
.Lfunc_begin11:
	.loc	12 3060 0                       @ ../../../Library/StdDriver/inc\sys.h:3060:0
	.fnstart
	.cfi_startproc
@ %bb.0:
	ldr	r0, __arm_cp.11_0
	movs	r1, #0
.Ltmp93:
	.loc	12 3061 18 prologue_end         @ ../../../Library/StdDriver/inc\sys.h:3061:18
	str	r1, [r0]
	.loc	12 3062 1                       @ ../../../Library/StdDriver/inc\sys.h:3062:1
	bx	lr
.Ltmp94:
	.p2align	2
@ %bb.1:
	.loc	12 0 1 is_stmt 0                @ ../../../Library/StdDriver/inc\sys.h:0:1
__arm_cp.11_0:
	.long	1073742080                      @ 0x40000100
.Lcpi_end17:
	.size	__arm_cp.11_0, .Lcpi_end17-__arm_cp.11_0
.Lfunc_end11:
	.size	SYS_LockReg, .Lfunc_end11-SYS_LockReg
	.cfi_endproc
	.cantunwind
	.fnend
                                        @ -- End function
	.section	.text.M2351_FMC_Write_Key,"ax",%progbits
	.hidden	M2351_FMC_Write_Key             @ -- Begin function M2351_FMC_Write_Key
	.globl	M2351_FMC_Write_Key
	.p2align	2
	.type	M2351_FMC_Write_Key,%function
	.code	16                              @ @M2351_FMC_Write_Key
	.thumb_func
M2351_FMC_Write_Key:
.Lfunc_begin12:
	.loc	2 266 0 is_stmt 1               @ Crypto/M2351_crypto.c:266:0
	.fnstart
	.cfi_startproc
@ %bb.0:
	.save	{r4, r5, r6, lr}
	push	{r4, r5, r6, lr}
	.cfi_def_cfa_offset 16
	.cfi_offset lr, -4
	.cfi_offset r6, -8
	.cfi_offset r5, -12
	.cfi_offset r4, -16
	.pad	#8
	sub	sp, #8
	.cfi_def_cfa_offset 24
.Ltmp95:
	.loc	2 269 5 prologue_end            @ Crypto/M2351_crypto.c:269:5
	bl	SYS_UnlockReg
	.loc	2 271 5                         @ Crypto/M2351_crypto.c:271:5
	bl	FMC_Open
	movs	r4, #0
	movw	r5, #256
.Ltmp96:
	@DEBUG_VALUE: M2351_FMC_Write_Key:u32i <- 0
.LBB12_1:                               @ =>This Inner Loop Header: Depth=1
	@DEBUG_VALUE: M2351_FMC_Write_Key:u32i <- $r4
	@DEBUG_VALUE: M2351_FMC_Write_Key:u32OtpHw <- [DW_OP_plus_uconst 4, DW_OP_deref] $sp
	@DEBUG_VALUE: M2351_FMC_Write_Key:u32OtpLw <- [DW_OP_deref] $sp
	.loc	2 0 5 is_stmt 0                 @ Crypto/M2351_crypto.c:0:5
	mov	r1, sp
	add	r2, sp, #4
.Ltmp97:
	.loc	2 275 12 is_stmt 1              @ Crypto/M2351_crypto.c:275:12
	mov	r0, r4
	bl	FMC_Read_OTP
.Ltmp98:
	.loc	2 275 12 is_stmt 0              @ Crypto/M2351_crypto.c:275:12
	cbnz	r0, .LBB12_7
.Ltmp99:
@ %bb.2:                                @   in Loop: Header=BB12_1 Depth=1
	@DEBUG_VALUE: M2351_FMC_Write_Key:u32i <- $r4
	@DEBUG_VALUE: M2351_FMC_Write_Key:u32OtpLw <- [DW_OP_deref] $sp
	@DEBUG_VALUE: M2351_FMC_Write_Key:u32OtpHw <- [DW_OP_plus_uconst 4, DW_OP_deref] $sp
	.loc	2 281 13 is_stmt 1              @ Crypto/M2351_crypto.c:281:13
	ldr	r0, [sp]
.Ltmp100:
	@DEBUG_VALUE: M2351_FMC_Write_Key:u32OtpLw <- $r0
	.loc	2 0 13 is_stmt 0                @ Crypto/M2351_crypto.c:0:13
	ldr	r1, [sp, #4]
.Ltmp101:
	@DEBUG_VALUE: M2351_FMC_Write_Key:u32OtpHw <- $r1
	.loc	2 281 37                        @ Crypto/M2351_crypto.c:281:37
	ands	r1, r0
.Ltmp102:
	adds	r0, r1, #1
.Ltmp103:
	beq	.LBB12_8
.Ltmp104:
@ %bb.3:                                @   in Loop: Header=BB12_1 Depth=1
	@DEBUG_VALUE: M2351_FMC_Write_Key:u32i <- $r4
	.loc	2 273 49 is_stmt 1              @ Crypto/M2351_crypto.c:273:49
	adds	r4, r4, #1
.Ltmp105:
	@DEBUG_VALUE: M2351_FMC_Write_Key:u32i <- $r4
	.loc	2 273 5 is_stmt 0               @ Crypto/M2351_crypto.c:273:5
	cmp	r5, r4
	bne	.LBB12_1
.Ltmp106:
@ %bb.4:
	@DEBUG_VALUE: M2351_FMC_Write_Key:u32i <- $r4
	.loc	2 0 5                           @ Crypto/M2351_crypto.c:0:5
	movw	r4, #256
.Ltmp107:
	.loc	2 288 8 is_stmt 1               @ Crypto/M2351_crypto.c:288:8
	cmp	r4, r5
	beq	.LBB12_9
.LBB12_5:
	.loc	2 0 8 is_stmt 0                 @ Crypto/M2351_crypto.c:0:8
	ldr	r6, __arm_cp.12_2
	.loc	2 294 66 is_stmt 1              @ Crypto/M2351_crypto.c:294:66
	orrs	r6, r4
	ldr	r5, __arm_cp.12_3
	.loc	2 294 85 is_stmt 0              @ Crypto/M2351_crypto.c:294:85
	orrs	r5, r4
	.loc	2 294 5                         @ Crypto/M2351_crypto.c:294:5
	adr	r0, .LCPI12_4
	mov	r1, r4
	mov	r2, r6
	mov	r3, r5
	bl	__2printf
.Ltmp108:
	.loc	2 296 8 is_stmt 1               @ Crypto/M2351_crypto.c:296:8
	mov	r0, r4
	mov	r1, r6
	mov	r2, r5
	bl	FMC_Write_OTP
.Ltmp109:
	.loc	2 296 8 is_stmt 0               @ Crypto/M2351_crypto.c:296:8
	cbz	r0, .LBB12_11
@ %bb.6:
.Ltmp110:
	.loc	2 298 9 is_stmt 1               @ Crypto/M2351_crypto.c:298:9
	adr	r0, .LCPI12_5
	mov	r1, r4
	bl	__2printf
	.loc	2 299 9                         @ Crypto/M2351_crypto.c:299:9
	b	.LBB12_10
.Ltmp111:
.LBB12_7:
	@DEBUG_VALUE: M2351_FMC_Write_Key:u32i <- $r4
	@DEBUG_VALUE: M2351_FMC_Write_Key:u32OtpLw <- [DW_OP_deref] $sp
	@DEBUG_VALUE: M2351_FMC_Write_Key:u32OtpHw <- [DW_OP_plus_uconst 4, DW_OP_deref] $sp
	@DEBUG_VALUE: M2351_FMC_Write_Key:u32i <- $r4
	.loc	2 277 13                        @ Crypto/M2351_crypto.c:277:13
	ldr	r0, __arm_cp.12_0
	mov	r1, r4
	bl	__2printf
	.loc	2 278 13                        @ Crypto/M2351_crypto.c:278:13
	b	.LBB12_10
.Ltmp112:
.LBB12_8:
	@DEBUG_VALUE: M2351_FMC_Write_Key:u32i <- $r4
	@DEBUG_VALUE: M2351_FMC_Write_Key:u32i <- $r4
	.loc	2 283 13                        @ Crypto/M2351_crypto.c:283:13
	adr	r0, .LCPI12_1
	mov	r1, r4
	bl	__2printf
.Ltmp113:
	.loc	2 288 8                         @ Crypto/M2351_crypto.c:288:8
	cmp	r4, r5
	bne	.LBB12_5
.Ltmp114:
.LBB12_9:
	.loc	2 290 9                         @ Crypto/M2351_crypto.c:290:9
	ldr	r0, __arm_cp.12_14
	bl	puts
.Ltmp115:
.LBB12_10:
	@DEBUG_LABEL: M2351_FMC_Write_Key:lexit
	.loc	2 341 5                         @ Crypto/M2351_crypto.c:341:5
	bl	FMC_Close
	.loc	2 342 5                         @ Crypto/M2351_crypto.c:342:5
	bl	SYS_LockReg
	.loc	2 344 1                         @ Crypto/M2351_crypto.c:344:1
	add	sp, #8
	pop	{r4, r5, r6, pc}
.LBB12_11:
.Ltmp116:
	@DEBUG_VALUE: M2351_FMC_Write_Key:u32OtpHw <- [DW_OP_plus_uconst 4, DW_OP_deref] $sp
	@DEBUG_VALUE: M2351_FMC_Write_Key:u32OtpLw <- [DW_OP_deref] $sp
	.loc	2 0 1 is_stmt 0                 @ Crypto/M2351_crypto.c:0:1
	mov	r1, sp
	add	r2, sp, #4
.Ltmp117:
	.loc	2 302 8 is_stmt 1               @ Crypto/M2351_crypto.c:302:8
	mov	r0, r4
	bl	FMC_Read_OTP
.Ltmp118:
	.loc	2 302 8 is_stmt 0               @ Crypto/M2351_crypto.c:302:8
	cbz	r0, .LBB12_13
.Ltmp119:
@ %bb.12:
	@DEBUG_VALUE: M2351_FMC_Write_Key:u32OtpLw <- [DW_OP_deref] $sp
	@DEBUG_VALUE: M2351_FMC_Write_Key:u32OtpHw <- [DW_OP_plus_uconst 4, DW_OP_deref] $sp
	.loc	2 304 9 is_stmt 1               @ Crypto/M2351_crypto.c:304:9
	ldr	r0, __arm_cp.12_6
	mov	r1, r4
	bl	__2printf
	.loc	2 305 9                         @ Crypto/M2351_crypto.c:305:9
	b	.LBB12_10
.Ltmp120:
.LBB12_13:
	@DEBUG_VALUE: M2351_FMC_Write_Key:u32OtpLw <- [DW_OP_deref] $sp
	@DEBUG_VALUE: M2351_FMC_Write_Key:u32OtpHw <- [DW_OP_plus_uconst 4, DW_OP_deref] $sp
	.loc	2 308 61                        @ Crypto/M2351_crypto.c:308:61
	ldr	r3, [sp, #4]
.Ltmp121:
	@DEBUG_VALUE: M2351_FMC_Write_Key:u32OtpHw <- $r3
	.loc	2 308 51 is_stmt 0              @ Crypto/M2351_crypto.c:308:51
	ldr	r2, [sp]
.Ltmp122:
	@DEBUG_VALUE: M2351_FMC_Write_Key:u32OtpLw <- $r2
	.loc	2 308 5                         @ Crypto/M2351_crypto.c:308:5
	ldr	r0, __arm_cp.12_7
	mov	r1, r4
	bl	__2printf
.Ltmp123:
	.loc	2 310 9 is_stmt 1               @ Crypto/M2351_crypto.c:310:9
	ldr	r0, [sp]
.Ltmp124:
	@DEBUG_VALUE: M2351_FMC_Write_Key:u32OtpLw <- $r0
	@DEBUG_VALUE: M2351_FMC_Write_Key:u32OtpHw <- undef
	.loc	2 310 42 is_stmt 0              @ Crypto/M2351_crypto.c:310:42
	cmp	r0, r6
	bne	.LBB12_17
.Ltmp125:
@ %bb.14:
	@DEBUG_VALUE: M2351_FMC_Write_Key:u32OtpLw <- $r0
	.loc	2 0 42                          @ Crypto/M2351_crypto.c:0:42
	ldr	r0, [sp, #4]
.Ltmp126:
	@DEBUG_VALUE: M2351_FMC_Write_Key:u32OtpHw <- $r0
	.loc	2 310 42                        @ Crypto/M2351_crypto.c:310:42
	cmp	r0, r5
	bne	.LBB12_17
.Ltmp127:
@ %bb.15:
	@DEBUG_VALUE: M2351_FMC_Write_Key:u32OtpHw <- $r0
	.loc	2 316 5 is_stmt 1               @ Crypto/M2351_crypto.c:316:5
	adr	r0, .LCPI12_9
.Ltmp128:
	mov	r1, r4
	bl	__2printf
.Ltmp129:
	.loc	2 318 8                         @ Crypto/M2351_crypto.c:318:8
	mov	r0, r4
	bl	FMC_Lock_OTP
.Ltmp130:
	.loc	2 318 8 is_stmt 0               @ Crypto/M2351_crypto.c:318:8
	cbz	r0, .LBB12_18
@ %bb.16:
.Ltmp131:
	.loc	2 320 9 is_stmt 1               @ Crypto/M2351_crypto.c:320:9
	ldr	r0, __arm_cp.12_10
	mov	r1, r4
	bl	__2printf
	.loc	2 321 9                         @ Crypto/M2351_crypto.c:321:9
	b	.LBB12_10
.Ltmp132:
.LBB12_17:
	.loc	2 312 9                         @ Crypto/M2351_crypto.c:312:9
	ldr	r0, __arm_cp.12_8
	mov	r1, r4
	bl	__2printf
	.loc	2 313 9                         @ Crypto/M2351_crypto.c:313:9
	b	.LBB12_10
.Ltmp133:
.LBB12_18:
	@DEBUG_VALUE: M2351_FMC_Write_Key:u32OtpHw <- [DW_OP_plus_uconst 4, DW_OP_deref] $sp
	@DEBUG_VALUE: M2351_FMC_Write_Key:u32OtpLw <- [DW_OP_deref] $sp
	.loc	2 0 9 is_stmt 0                 @ Crypto/M2351_crypto.c:0:9
	mov	r1, sp
	add	r2, sp, #4
.Ltmp134:
	.loc	2 324 8 is_stmt 1               @ Crypto/M2351_crypto.c:324:8
	mov	r0, r4
	bl	FMC_Read_OTP
.Ltmp135:
	.loc	2 324 8 is_stmt 0               @ Crypto/M2351_crypto.c:324:8
	cbz	r0, .LBB12_20
.Ltmp136:
@ %bb.19:
	@DEBUG_VALUE: M2351_FMC_Write_Key:u32OtpLw <- [DW_OP_deref] $sp
	@DEBUG_VALUE: M2351_FMC_Write_Key:u32OtpHw <- [DW_OP_plus_uconst 4, DW_OP_deref] $sp
	.loc	2 326 9 is_stmt 1               @ Crypto/M2351_crypto.c:326:9
	ldr	r0, __arm_cp.12_6
	mov	r1, r4
	bl	__2printf
	.loc	2 327 9                         @ Crypto/M2351_crypto.c:327:9
	b	.LBB12_10
.Ltmp137:
.LBB12_20:
	@DEBUG_VALUE: M2351_FMC_Write_Key:u32OtpLw <- [DW_OP_deref] $sp
	@DEBUG_VALUE: M2351_FMC_Write_Key:u32OtpHw <- [DW_OP_plus_uconst 4, DW_OP_deref] $sp
	.loc	2 330 69                        @ Crypto/M2351_crypto.c:330:69
	ldr	r3, [sp, #4]
.Ltmp138:
	@DEBUG_VALUE: M2351_FMC_Write_Key:u32OtpHw <- $r3
	.loc	2 330 59 is_stmt 0              @ Crypto/M2351_crypto.c:330:59
	ldr	r2, [sp]
.Ltmp139:
	@DEBUG_VALUE: M2351_FMC_Write_Key:u32OtpLw <- $r2
	.loc	2 330 5                         @ Crypto/M2351_crypto.c:330:5
	ldr	r0, __arm_cp.12_11
	mov	r1, r4
	bl	__2printf
.Ltmp140:
	.loc	2 332 9 is_stmt 1               @ Crypto/M2351_crypto.c:332:9
	ldr	r0, [sp]
.Ltmp141:
	@DEBUG_VALUE: M2351_FMC_Write_Key:u32OtpLw <- $r0
	@DEBUG_VALUE: M2351_FMC_Write_Key:u32OtpHw <- undef
	.loc	2 332 42 is_stmt 0              @ Crypto/M2351_crypto.c:332:42
	cmp	r0, r6
	bne	.LBB12_23
.Ltmp142:
@ %bb.21:
	@DEBUG_VALUE: M2351_FMC_Write_Key:u32OtpLw <- $r0
	.loc	2 0 42                          @ Crypto/M2351_crypto.c:0:42
	ldr	r0, [sp, #4]
.Ltmp143:
	@DEBUG_VALUE: M2351_FMC_Write_Key:u32OtpHw <- $r0
	.loc	2 332 42                        @ Crypto/M2351_crypto.c:332:42
	cmp	r0, r5
	bne	.LBB12_23
.Ltmp144:
@ %bb.22:
	@DEBUG_VALUE: M2351_FMC_Write_Key:u32OtpHw <- $r0
	.loc	2 338 5 is_stmt 1               @ Crypto/M2351_crypto.c:338:5
	ldr	r0, __arm_cp.12_13
.Ltmp145:
	bl	puts
	b	.LBB12_10
.LBB12_23:
.Ltmp146:
	.loc	2 334 9                         @ Crypto/M2351_crypto.c:334:9
	ldr	r0, __arm_cp.12_12
	mov	r1, r4
	bl	__2printf
	.loc	2 335 9                         @ Crypto/M2351_crypto.c:335:9
	b	.LBB12_10
.Ltmp147:
	.p2align	2
@ %bb.24:
	.loc	2 0 9 is_stmt 0                 @ Crypto/M2351_crypto.c:0:9
__arm_cp.12_0:
	.long	.L.str.5
.Lcpi_end18:
	.size	__arm_cp.12_0, .Lcpi_end18-__arm_cp.12_0
.LCPI12_1:
.L.str.7:
	.asciz	"OTP%d is 0xFFFFFFFF-0xFFFFFFFF. It should be a free entry.\n"
__arm_cp.12_2:
	.long	1515847680                      @ 0x5a5a0000
.Lcpi_end19:
	.size	__arm_cp.12_2, .Lcpi_end19-__arm_cp.12_2
__arm_cp.12_3:
	.long	23130                           @ 0x5a5a
.Lcpi_end20:
	.size	__arm_cp.12_3, .Lcpi_end20-__arm_cp.12_3
.LCPI12_4:
.L.str.9:
	.asciz	"Program OTP%d with 0x%x-0x%x...\n\000\000\000"
.LCPI12_5:
.L.str.10:
	.asciz	"Failed to program OTP%d!\n\000\000"
__arm_cp.12_6:
	.long	.L.str.11
.Lcpi_end21:
	.size	__arm_cp.12_6, .Lcpi_end21-__arm_cp.12_6
__arm_cp.12_7:
	.long	.L.str.12
.Lcpi_end22:
	.size	__arm_cp.12_7, .Lcpi_end22-__arm_cp.12_7
__arm_cp.12_8:
	.long	.L.str.13
.Lcpi_end23:
	.size	__arm_cp.12_8, .Lcpi_end23-__arm_cp.12_8
.LCPI12_9:
.L.str.14:
	.asciz	"Lock OTP%d...\n\000"
__arm_cp.12_10:
	.long	.L.str.15
.Lcpi_end24:
	.size	__arm_cp.12_10, .Lcpi_end24-__arm_cp.12_10
__arm_cp.12_11:
	.long	.L.str.16
.Lcpi_end25:
	.size	__arm_cp.12_11, .Lcpi_end25-__arm_cp.12_11
__arm_cp.12_12:
	.long	.L.str.17
.Lcpi_end26:
	.size	__arm_cp.12_12, .Lcpi_end26-__arm_cp.12_12
__arm_cp.12_13:
	.long	.Lstr.39
.Lcpi_end27:
	.size	__arm_cp.12_13, .Lcpi_end27-__arm_cp.12_13
__arm_cp.12_14:
	.long	.Lstr.40
.Lcpi_end28:
	.size	__arm_cp.12_14, .Lcpi_end28-__arm_cp.12_14
.Lfunc_end12:
	.size	M2351_FMC_Write_Key, .Lfunc_end12-M2351_FMC_Write_Key
	.cfi_endproc
	.cantunwind
	.fnend
                                        @ -- End function
	.section	.text.M2351_ECC_GenerateKey,"ax",%progbits
	.hidden	M2351_ECC_GenerateKey           @ -- Begin function M2351_ECC_GenerateKey
	.globl	M2351_ECC_GenerateKey
	.p2align	2
	.type	M2351_ECC_GenerateKey,%function
	.code	16                              @ @M2351_ECC_GenerateKey
	.thumb_func
M2351_ECC_GenerateKey:
.Lfunc_begin13:
	.loc	2 348 0 is_stmt 1               @ Crypto/M2351_crypto.c:348:0
	.fnstart
	.cfi_startproc
@ %bb.0:
	@DEBUG_VALUE: M2351_ECC_GenerateKey:priKey <- $r0
	@DEBUG_VALUE: M2351_ECC_GenerateKey:gKey1 <- $r1
	@DEBUG_VALUE: M2351_ECC_GenerateKey:gKey2 <- $r2
	.save	{r4, r5, r6, lr}
	push	{r4, r5, r6, lr}
	.cfi_def_cfa_offset 16
	.cfi_offset lr, -4
	.cfi_offset r6, -8
	.cfi_offset r5, -12
	.cfi_offset r4, -16
	.pad	#8
	sub	sp, #8
	.cfi_def_cfa_offset 24
	mov	r6, r2
	mov	r4, r1
	mov	r5, r0
.Ltmp148:
	@DEBUG_VALUE: M2351_ECC_GenerateKey:gKey2 <- $r6
	@DEBUG_VALUE: M2351_ECC_GenerateKey:gKey1 <- $r4
	@DEBUG_VALUE: M2351_ECC_GenerateKey:priKey <- $r5
	.loc	2 357 4 prologue_end            @ Crypto/M2351_crypto.c:357:4
	ldr	r0, __arm_cp.13_0
	bl	puts
	.loc	2 358 5                         @ Crypto/M2351_crypto.c:358:5
	adr	r0, .LCPI13_1
	bl	puts
	.loc	2 359 5                         @ Crypto/M2351_crypto.c:359:5
	adr	r0, .LCPI13_2
	bl	puts
	.loc	2 362 5                         @ Crypto/M2351_crypto.c:362:5
	bl	__NVIC_EnableIRQ
	movs	r0, #3
	lsls	r1, r0, #22
	ldr	r0, __arm_cp.13_3
	.loc	2 363 5                         @ Crypto/M2351_crypto.c:363:5
	ldr	r2, [r0]
	orrs	r2, r1
	str	r2, [r0]
.Ltmp149:
	.loc	2 366 8                         @ Crypto/M2351_crypto.c:366:8
	str	r6, [sp]
	movs	r1, #0
	mov	r2, r5
.Ltmp150:
	@DEBUG_VALUE: M2351_ECC_GenerateKey:priKey <- $r2
	mov	r3, r4
.Ltmp151:
	@DEBUG_VALUE: M2351_ECC_GenerateKey:gKey1 <- $r3
	bl	ECC_GeneratePublicKey
.Ltmp152:
	.loc	2 366 8 is_stmt 0               @ Crypto/M2351_crypto.c:366:8
	cmp	r0, #0
	bmi	.LBB13_2
.Ltmp153:
@ %bb.1:
	@DEBUG_VALUE: M2351_ECC_GenerateKey:gKey2 <- $r6
	.loc	2 394 3 is_stmt 1               @ Crypto/M2351_crypto.c:394:3
	adr	r0, .LCPI13_4
	bl	puts
	.loc	2 396 1                         @ Crypto/M2351_crypto.c:396:1
	add	sp, #8
	pop	{r4, r5, r6, pc}
.Ltmp154:
.LBB13_2:
	@DEBUG_VALUE: M2351_ECC_GenerateKey:gKey2 <- $r6
	.loc	2 368 9                         @ Crypto/M2351_crypto.c:368:9
	ldr	r0, __arm_cp.13_5
	bl	puts
.Ltmp155:
.LBB13_3:                               @ =>This Inner Loop Header: Depth=1
	@DEBUG_VALUE: M2351_ECC_GenerateKey:gKey2 <- $r6
	.loc	2 369 9                         @ Crypto/M2351_crypto.c:369:9
	b	.LBB13_3
.Ltmp156:
	.p2align	2
@ %bb.4:
	.loc	2 0 9 is_stmt 0                 @ Crypto/M2351_crypto.c:0:9
__arm_cp.13_0:
	.long	.Lstr.41
.Lcpi_end29:
	.size	__arm_cp.13_0, .Lcpi_end29-__arm_cp.13_0
.LCPI13_1:
.Lstr.42:
	.asciz	"|     Crypto ECC Public Key Generation        |"
.LCPI13_2:
.Lstr.43:
	.asciz	"+---------------------------------------------+"
__arm_cp.13_3:
	.long	1073946624                      @ 0x40032000
.Lcpi_end30:
	.size	__arm_cp.13_3, .Lcpi_end30-__arm_cp.13_3
.LCPI13_4:
.Lstr.44:
	.asciz	"ECC key generated OK.\000\000"
__arm_cp.13_5:
	.long	.Lstr.45
.Lcpi_end31:
	.size	__arm_cp.13_5, .Lcpi_end31-__arm_cp.13_5
.Lfunc_end13:
	.size	M2351_ECC_GenerateKey, .Lfunc_end13-M2351_ECC_GenerateKey
	.cfi_endproc
	.cantunwind
	.fnend
                                        @ -- End function
	.section	.text.M2351_SHA_Hash,"ax",%progbits
	.hidden	M2351_SHA_Hash                  @ -- Begin function M2351_SHA_Hash
	.globl	M2351_SHA_Hash
	.p2align	2
	.type	M2351_SHA_Hash,%function
	.code	16                              @ @M2351_SHA_Hash
	.thumb_func
M2351_SHA_Hash:
.Lfunc_begin14:
	.loc	2 452 0 is_stmt 1               @ Crypto/M2351_crypto.c:452:0
	.fnstart
	.cfi_startproc
@ %bb.0:
	@DEBUG_VALUE: M2351_SHA_Hash:msg <- $r0
	@DEBUG_VALUE: M2351_SHA_Hash:hash_msg <- $r1
	.save	{r4, r5, r6, r7, lr}
	push	{r4, r5, r6, r7, lr}
	.cfi_def_cfa_offset 20
	.cfi_offset lr, -4
	.cfi_offset r7, -8
	.cfi_offset r6, -12
	.cfi_offset r5, -16
	.cfi_offset r4, -20
	.pad	#20
	sub	sp, #20
	.cfi_def_cfa_offset 40
	mov	r4, r1
	mov	r5, r0
.Ltmp157:
	@DEBUG_VALUE: M2351_SHA_Hash:hash_msg <- $r4
	@DEBUG_VALUE: M2351_SHA_Hash:msg <- $r5
	.loc	2 456 4 prologue_end            @ Crypto/M2351_crypto.c:456:4
	ldr	r0, __arm_cp.14_0
	bl	puts
	.loc	2 457 5                         @ Crypto/M2351_crypto.c:457:5
	adr	r0, .LCPI14_1
	bl	puts
	.loc	2 458 5                         @ Crypto/M2351_crypto.c:458:5
	adr	r0, .LCPI14_2
	bl	puts
	.loc	2 460 5                         @ Crypto/M2351_crypto.c:460:5
	bl	__NVIC_EnableIRQ
	.loc	2 462 5                         @ Crypto/M2351_crypto.c:462:5
	adr	r0, .LCPI14_3
	bl	puts
	movs	r7, #0
.Ltmp158:
	@DEBUG_VALUE: M2351_SHA_Hash:i <- 0
	.loc	2 0 5 is_stmt 0                 @ Crypto/M2351_crypto.c:0:5
	adr	r6, .LCPI14_4
.Ltmp159:
.LBB14_1:                               @ =>This Inner Loop Header: Depth=1
	@DEBUG_VALUE: M2351_SHA_Hash:msg <- $r5
	@DEBUG_VALUE: M2351_SHA_Hash:hash_msg <- $r4
	@DEBUG_VALUE: M2351_SHA_Hash:i <- $r7
	.loc	2 465 24 is_stmt 1              @ Crypto/M2351_crypto.c:465:24
	ldrb	r1, [r5, r7]
	.loc	2 465 9 is_stmt 0               @ Crypto/M2351_crypto.c:465:9
	mov	r0, r6
	bl	__2printf
.Ltmp160:
	.loc	2 463 19 is_stmt 1              @ Crypto/M2351_crypto.c:463:19
	adds	r7, r7, #1
.Ltmp161:
	@DEBUG_VALUE: M2351_SHA_Hash:i <- $r7
	.loc	2 463 5 is_stmt 0               @ Crypto/M2351_crypto.c:463:5
	cmp	r7, #16
	bne	.LBB14_1
.Ltmp162:
@ %bb.2:
	@DEBUG_VALUE: M2351_SHA_Hash:i <- $r7
	@DEBUG_VALUE: M2351_SHA_Hash:msg <- $r5
	@DEBUG_VALUE: M2351_SHA_Hash:hash_msg <- $r4
	.loc	2 0 5                           @ Crypto/M2351_crypto.c:0:5
	movs	r0, #10
	.loc	2 468 5 is_stmt 1               @ Crypto/M2351_crypto.c:468:5
	bl	putchar
	mov	r6, sp
	.loc	2 469 5                         @ Crypto/M2351_crypto.c:469:5
	mov	r0, r5
	mov	r1, r6
	bl	SHAHash
	movs	r0, #40
	.loc	2 494 3                         @ Crypto/M2351_crypto.c:494:3
	mov	r1, r6
	mov	r2, r4
	bl	Reg2Hex
	.loc	2 495 3                         @ Crypto/M2351_crypto.c:495:3
	adr	r0, .LCPI14_5
	mov	r1, r4
	bl	__2printf
	.loc	2 498 1                         @ Crypto/M2351_crypto.c:498:1
	add	sp, #20
	pop	{r4, r5, r6, r7, pc}
.Ltmp163:
	.p2align	2
@ %bb.3:
	.loc	2 0 1 is_stmt 0                 @ Crypto/M2351_crypto.c:0:1
__arm_cp.14_0:
	.long	.Lstr.46
.Lcpi_end32:
	.size	__arm_cp.14_0, .Lcpi_end32-__arm_cp.14_0
.LCPI14_1:
.Lstr.47:
	.asciz	"|           M2351 Crypto SHA-1 Hash           |"
.LCPI14_2:
.Lstr.48:
	.asciz	"+---------------------------------------------+"
.LCPI14_3:
.Lstr.49:
	.asciz	"Input data:"
.LCPI14_4:
.L.str.24:
	.asciz	"%02x\000\000\000"
.LCPI14_5:
.L.str.26:
	.asciz	"\nOutput SHA1 Hash:\n%s\n\000"
.Lfunc_end14:
	.size	M2351_SHA_Hash, .Lfunc_end14-M2351_SHA_Hash
	.cfi_endproc
	.cantunwind
	.fnend
                                        @ -- End function
	.section	.text.SHAHash,"ax",%progbits
	.p2align	2                               @ -- Begin function SHAHash
	.type	SHAHash,%function
	.code	16                              @ @SHAHash
	.thumb_func
SHAHash:
.Lfunc_begin15:
	.loc	2 401 0 is_stmt 1               @ Crypto/M2351_crypto.c:401:0
	.fnstart
	.cfi_startproc
@ %bb.0:
	@DEBUG_VALUE: SHAHash:pu32Addr <- $r0
	@DEBUG_VALUE: SHAHash:digest <- $r1
	.save	{r4, r5, r6, lr}
	push	{r4, r5, r6, lr}
	.cfi_def_cfa_offset 16
	.cfi_offset lr, -4
	.cfi_offset r6, -8
	.cfi_offset r5, -12
	.cfi_offset r4, -16
	ldr	r2, __arm_cp.15_0
	@DEBUG_VALUE: SHAHash:size <- 16
	@DEBUG_VALUE: SHAHash:u32Mode <- 0
	@DEBUG_VALUE: SHAHash:digest <- $r1
	@DEBUG_VALUE: SHAHash:pu32Addr <- $r0
.Ltmp164:
	.loc	2 406 17 prologue_end           @ Crypto/M2351_crypto.c:406:17
	ldr	r3, [r2]
	movw	r4, #4096
	orrs	r4, r3
	str	r4, [r2]
	movs	r3, #1
	lsls	r4, r3, #23
	ldr	r2, __arm_cp.15_1
	.loc	2 409 20                        @ Crypto/M2351_crypto.c:409:20
	str	r4, [r2]
	movs	r4, #16
	.loc	2 410 23                        @ Crypto/M2351_crypto.c:410:23
	str	r4, [r2, #80]
.Ltmp165:
	@DEBUG_VALUE: SHAHash:pu32Addr <- undef
	.loc	2 0 23 is_stmt 0                @ Crypto/M2351_crypto.c:0:23
	movs	r5, #32
.Ltmp166:
.LBB15_1:                               @ =>This Loop Header: Depth=1
                                        @     Child Loop BB15_4 Depth 2
	@DEBUG_VALUE: SHAHash:digest <- $r1
	@DEBUG_VALUE: SHAHash:u32Mode <- 0
	@DEBUG_VALUE: SHAHash:pu32Addr <- $r0
	@DEBUG_VALUE: SHAHash:size <- $r4
	.loc	2 415 12 is_stmt 1              @ Crypto/M2351_crypto.c:415:12
	cmp	r4, #4
	bhi	.LBB15_3
.Ltmp167:
@ %bb.2:                                @   in Loop: Header=BB15_1 Depth=1
	@DEBUG_VALUE: SHAHash:size <- $r4
	@DEBUG_VALUE: SHAHash:digest <- $r1
	@DEBUG_VALUE: SHAHash:pu32Addr <- $r0
	@DEBUG_VALUE: SHAHash:u32Mode <- 0
	.loc	2 417 28                        @ Crypto/M2351_crypto.c:417:28
	ldr	r6, [r2]
	orrs	r6, r5
	str	r6, [r2]
.Ltmp168:
.LBB15_3:                               @   in Loop: Header=BB15_1 Depth=1
	@DEBUG_VALUE: SHAHash:size <- $r4
	@DEBUG_VALUE: SHAHash:digest <- $r1
	@DEBUG_VALUE: SHAHash:pu32Addr <- $r0
	@DEBUG_VALUE: SHAHash:u32Mode <- 0
	.loc	2 421 24                        @ Crypto/M2351_crypto.c:421:24
	ldr	r6, [r2]
	orrs	r6, r3
	str	r6, [r2]
.Ltmp169:
.LBB15_4:                               @   Parent Loop BB15_1 Depth=1
                                        @ =>  This Inner Loop Header: Depth=2
	@DEBUG_VALUE: SHAHash:size <- $r4
	@DEBUG_VALUE: SHAHash:digest <- $r1
	@DEBUG_VALUE: SHAHash:pu32Addr <- $r0
	@DEBUG_VALUE: SHAHash:u32Mode <- 0
	.loc	2 424 22                        @ Crypto/M2351_crypto.c:424:22
	ldr	r6, [r2, #4]
	.loc	2 424 9 is_stmt 0               @ Crypto/M2351_crypto.c:424:9
	lsls	r6, r6, #15
	bpl	.LBB15_4
.Ltmp170:
@ %bb.5:                                @   in Loop: Header=BB15_1 Depth=1
	@DEBUG_VALUE: SHAHash:size <- $r4
	@DEBUG_VALUE: SHAHash:digest <- $r1
	@DEBUG_VALUE: SHAHash:pu32Addr <- $r0
	@DEBUG_VALUE: SHAHash:u32Mode <- 0
	.loc	2 427 28 is_stmt 1              @ Crypto/M2351_crypto.c:427:28
	ldm	r0!, {r6}
.Ltmp171:
	.loc	2 427 26 is_stmt 0              @ Crypto/M2351_crypto.c:427:26
	str	r6, [r2, #84]
.Ltmp172:
	@DEBUG_VALUE: SHAHash:pu32Addr <- $r0
	.loc	2 429 14 is_stmt 1              @ Crypto/M2351_crypto.c:429:14
	subs	r4, r4, #4
.Ltmp173:
	@DEBUG_VALUE: SHAHash:size <- $r4
	.loc	2 413 5                         @ Crypto/M2351_crypto.c:413:5
	bhi	.LBB15_1
.Ltmp174:
.LBB15_6:                               @ =>This Inner Loop Header: Depth=1
	@DEBUG_VALUE: SHAHash:size <- $r4
	@DEBUG_VALUE: SHAHash:digest <- $r1
	@DEBUG_VALUE: SHAHash:u32Mode <- 0
	.loc	2 433 17                        @ Crypto/M2351_crypto.c:433:17
	ldr	r0, [r2, #4]
	.loc	2 433 5 is_stmt 0               @ Crypto/M2351_crypto.c:433:5
	lsls	r0, r0, #31
	bne	.LBB15_6
.Ltmp175:
@ %bb.7:
	@DEBUG_VALUE: SHAHash:size <- $r4
	@DEBUG_VALUE: SHAHash:digest <- $r1
	@DEBUG_VALUE: SHAHash:u32Mode <- 0
	.loc	2 0 5                           @ Crypto/M2351_crypto.c:0:5
	movs	r0, #0
.Ltmp176:
.LBB15_8:                               @ =>This Inner Loop Header: Depth=1
	@DEBUG_VALUE: SHAHash:size <- $r4
	@DEBUG_VALUE: SHAHash:digest <- $r1
	@DEBUG_VALUE: SHAHash:u32Mode <- 0
	@DEBUG_VALUE: SHAHash:i <- undef
	.loc	2 446 21 is_stmt 1              @ Crypto/M2351_crypto.c:446:21
	adds	r3, r2, r0
	ldr	r3, [r3, #8]
	.loc	2 446 19 is_stmt 0              @ Crypto/M2351_crypto.c:446:19
	str	r3, [r1, r0]
.Ltmp177:
	@DEBUG_VALUE: SHAHash:i <- [DW_OP_plus_uconst 1, DW_OP_stack_value] undef
	.loc	2 445 18 is_stmt 1              @ Crypto/M2351_crypto.c:445:18
	adds	r0, r0, #4
.Ltmp178:
	.loc	2 445 5 is_stmt 0               @ Crypto/M2351_crypto.c:445:5
	cmp	r0, #20
	bne	.LBB15_8
.Ltmp179:
@ %bb.9:
	@DEBUG_VALUE: SHAHash:size <- $r4
	@DEBUG_VALUE: SHAHash:digest <- $r1
	@DEBUG_VALUE: SHAHash:u32Mode <- 0
	.loc	2 448 5 is_stmt 1               @ Crypto/M2351_crypto.c:448:5
	pop	{r4, r5, r6, pc}
.Ltmp180:
	.p2align	2
@ %bb.10:
	.loc	2 0 5 is_stmt 0                 @ Crypto/M2351_crypto.c:0:5
__arm_cp.15_0:
	.long	1073742340                      @ 0x40000204
.Lcpi_end33:
	.size	__arm_cp.15_0, .Lcpi_end33-__arm_cp.15_0
__arm_cp.15_1:
	.long	1073947392                      @ 0x40032300
.Lcpi_end34:
	.size	__arm_cp.15_1, .Lcpi_end34-__arm_cp.15_1
.Lfunc_end15:
	.size	SHAHash, .Lfunc_end15-SHAHash
	.cfi_endproc
	.cantunwind
	.fnend
                                        @ -- End function
	.section	.text.M2351_ECDSA_GenerateSignature,"ax",%progbits
	.hidden	M2351_ECDSA_GenerateSignature   @ -- Begin function M2351_ECDSA_GenerateSignature
	.globl	M2351_ECDSA_GenerateSignature
	.p2align	2
	.type	M2351_ECDSA_GenerateSignature,%function
	.code	16                              @ @M2351_ECDSA_GenerateSignature
	.thumb_func
M2351_ECDSA_GenerateSignature:
.Lfunc_begin16:
	.loc	2 501 0 is_stmt 1               @ Crypto/M2351_crypto.c:501:0
	.fnstart
	.cfi_startproc
@ %bb.0:
	@DEBUG_VALUE: M2351_ECDSA_GenerateSignature:msg <- $r0
	@DEBUG_VALUE: M2351_ECDSA_GenerateSignature:priKey <- $r1
	@DEBUG_VALUE: M2351_ECDSA_GenerateSignature:R <- $r2
	@DEBUG_VALUE: M2351_ECDSA_GenerateSignature:S <- $r3
	.save	{r4, r5, r6, r7, lr}
	push	{r4, r5, r6, r7, lr}
	.cfi_def_cfa_offset 20
	.cfi_offset lr, -4
	.cfi_offset r7, -8
	.cfi_offset r6, -12
	.cfi_offset r5, -16
	.cfi_offset r4, -20
	.pad	#124
	sub	sp, #124
	.cfi_def_cfa_offset 144
	str	r3, [sp, #20]                   @ 4-byte Spill
	mov	r5, r2
	str	r1, [sp, #24]                   @ 4-byte Spill
	str	r0, [sp, #16]                   @ 4-byte Spill
.Ltmp181:
	@DEBUG_VALUE: M2351_ECDSA_GenerateSignature:S <- [DW_OP_plus_uconst 20] [$sp+0]
	@DEBUG_VALUE: M2351_ECDSA_GenerateSignature:R <- $r5
	@DEBUG_VALUE: M2351_ECDSA_GenerateSignature:priKey <- [DW_OP_plus_uconst 24] [$sp+0]
	@DEBUG_VALUE: M2351_ECDSA_GenerateSignature:msg <- [DW_OP_plus_uconst 16] [$sp+0]
	add	r7, sp, #80
	movs	r1, #41
.Ltmp182:
	.loc	2 503 8 prologue_end            @ Crypto/M2351_crypto.c:503:8
	mov	r0, r7
	bl	__aeabi_memclr4
	.loc	2 505 8                         @ Crypto/M2351_crypto.c:505:8
	ldr	r0, __arm_cp.16_0
	add	r1, sp, #28
	str	r1, [sp, #12]                   @ 4-byte Spill
	ldm	r0!, {r2, r3, r4, r6}
	stm	r1!, {r2, r3, r4, r6}
	ldm	r0!, {r2, r3, r4, r6}
	stm	r1!, {r2, r3, r4, r6}
	ldm	r0!, {r2, r3, r4, r6}
	stm	r1!, {r2, r3, r4, r6}
	mov	r6, r5
.Ltmp183:
	@DEBUG_VALUE: M2351_ECDSA_GenerateSignature:R <- $r6
	@DEBUG_VALUE: M2351_ECDSA_GenerateSignature:R <- $r6
	ldrb	r0, [r0]
	strb	r0, [r1]
	.loc	2 512 5                         @ Crypto/M2351_crypto.c:512:5
	bl	__NVIC_EnableIRQ
	movs	r0, #3
	lsls	r0, r0, #22
	ldr	r4, __arm_cp.16_1
	.loc	2 513 5                         @ Crypto/M2351_crypto.c:513:5
	ldr	r1, [r4]
	orrs	r1, r0
	str	r1, [r4]
	movs	r0, #10
	.loc	2 515 3                         @ Crypto/M2351_crypto.c:515:3
	bl	putchar
	.loc	2 516 5                         @ Crypto/M2351_crypto.c:516:5
	ldr	r0, __arm_cp.16_2
	bl	puts
	.loc	2 517 5                         @ Crypto/M2351_crypto.c:517:5
	adr	r0, .LCPI16_3
	bl	puts
	.loc	2 518 5                         @ Crypto/M2351_crypto.c:518:5
	adr	r0, .LCPI16_4
	bl	puts
	.loc	2 520 3                         @ Crypto/M2351_crypto.c:520:3
	ldr	r0, [sp, #16]                   @ 4-byte Reload
.Ltmp184:
	@DEBUG_VALUE: M2351_ECDSA_GenerateSignature:msg <- $r0
	mov	r1, r7
	bl	M2351_SHA_Hash
.Ltmp185:
	.loc	2 523 8                         @ Crypto/M2351_crypto.c:523:8
	ldr	r0, [sp, #12]                   @ 4-byte Reload
	str	r0, [sp]
	ldr	r5, [sp, #20]                   @ 4-byte Reload
.Ltmp186:
	@DEBUG_VALUE: M2351_ECDSA_GenerateSignature:S <- $r5
	str	r6, [sp, #4]
	str	r5, [sp, #8]
	movs	r1, #0
	mov	r0, r4
	mov	r2, r7
	ldr	r3, [sp, #24]                   @ 4-byte Reload
.Ltmp187:
	@DEBUG_VALUE: M2351_ECDSA_GenerateSignature:priKey <- $r3
	bl	ECC_GenerateSignature
.Ltmp188:
	.loc	2 523 8 is_stmt 0               @ Crypto/M2351_crypto.c:523:8
	cmp	r0, #0
	bmi	.LBB16_2
.Ltmp189:
@ %bb.1:
	@DEBUG_VALUE: M2351_ECDSA_GenerateSignature:R <- $r6
	@DEBUG_VALUE: M2351_ECDSA_GenerateSignature:S <- $r5
	.loc	2 543 5 is_stmt 1               @ Crypto/M2351_crypto.c:543:5
	ldr	r0, __arm_cp.16_5
	bl	puts
	.loc	2 544 3                         @ Crypto/M2351_crypto.c:544:3
	adr	r0, .LCPI16_6
	mov	r1, r6
	mov	r2, r5
	bl	__2printf
	.loc	2 545 1                         @ Crypto/M2351_crypto.c:545:1
	add	sp, #124
	pop	{r4, r5, r6, r7, pc}
.Ltmp190:
.LBB16_2:
	@DEBUG_VALUE: M2351_ECDSA_GenerateSignature:R <- $r6
	@DEBUG_VALUE: M2351_ECDSA_GenerateSignature:S <- $r5
	.loc	2 525 9                         @ Crypto/M2351_crypto.c:525:9
	ldr	r0, __arm_cp.16_7
	bl	puts
.Ltmp191:
.LBB16_3:                               @ =>This Inner Loop Header: Depth=1
	@DEBUG_VALUE: M2351_ECDSA_GenerateSignature:R <- $r6
	@DEBUG_VALUE: M2351_ECDSA_GenerateSignature:S <- $r5
	.loc	2 526 9                         @ Crypto/M2351_crypto.c:526:9
	b	.LBB16_3
.Ltmp192:
	.p2align	2
@ %bb.4:
	.loc	2 0 9 is_stmt 0                 @ Crypto/M2351_crypto.c:0:9
__arm_cp.16_0:
	.long	.L__const.M2351_ECDSA_GenerateSignature.gK
.Lcpi_end35:
	.size	__arm_cp.16_0, .Lcpi_end35-__arm_cp.16_0
__arm_cp.16_1:
	.long	1073946624                      @ 0x40032000
.Lcpi_end36:
	.size	__arm_cp.16_1, .Lcpi_end36-__arm_cp.16_1
__arm_cp.16_2:
	.long	.Lstr.50
.Lcpi_end37:
	.size	__arm_cp.16_2, .Lcpi_end37-__arm_cp.16_2
.LCPI16_3:
.Lstr.51:
	.asciz	"|     Crypto ECDSA Singnature Generation      |"
.LCPI16_4:
.Lstr.52:
	.asciz	"+---------------------------------------------+"
__arm_cp.16_5:
	.long	.Lstr.53
.Lcpi_end38:
	.size	__arm_cp.16_5, .Lcpi_end38-__arm_cp.16_5
.LCPI16_6:
.L.str.30:
	.asciz	"Signature R : %s\nSignature S : %s\n\000"
__arm_cp.16_7:
	.long	.Lstr.54
.Lcpi_end39:
	.size	__arm_cp.16_7, .Lcpi_end39-__arm_cp.16_7
.Lfunc_end16:
	.size	M2351_ECDSA_GenerateSignature, .Lfunc_end16-M2351_ECDSA_GenerateSignature
	.cfi_endproc
	.cantunwind
	.fnend
                                        @ -- End function
	.section	.text.M2351_ECDSA_VerificationSignature,"ax",%progbits
	.hidden	M2351_ECDSA_VerificationSignature @ -- Begin function M2351_ECDSA_VerificationSignature
	.globl	M2351_ECDSA_VerificationSignature
	.p2align	2
	.type	M2351_ECDSA_VerificationSignature,%function
	.code	16                              @ @M2351_ECDSA_VerificationSignature
	.thumb_func
M2351_ECDSA_VerificationSignature:
.Lfunc_begin17:
	.loc	2 548 0 is_stmt 1               @ Crypto/M2351_crypto.c:548:0
	.fnstart
	.cfi_startproc
@ %bb.0:
	@DEBUG_VALUE: M2351_ECDSA_VerificationSignature:hash_msg <- $r0
	@DEBUG_VALUE: M2351_ECDSA_VerificationSignature:pubKey1 <- $r1
	@DEBUG_VALUE: M2351_ECDSA_VerificationSignature:pubKey2 <- $r2
	@DEBUG_VALUE: M2351_ECDSA_VerificationSignature:R <- $r3
	.save	{r4, r5, r6, r7, lr}
	push	{r4, r5, r6, r7, lr}
	.cfi_def_cfa_offset 20
	.cfi_offset lr, -4
	.cfi_offset r7, -8
	.cfi_offset r6, -12
	.cfi_offset r5, -16
	.cfi_offset r4, -20
	.pad	#20
	sub	sp, #20
	.cfi_def_cfa_offset 40
	mov	r6, r3
	mov	r7, r2
	str	r1, [sp, #16]                   @ 4-byte Spill
	mov	r5, r0
.Ltmp193:
	@DEBUG_VALUE: M2351_ECDSA_VerificationSignature:S <- [DW_OP_plus_uconst 40] [$sp+0]
	@DEBUG_VALUE: M2351_ECDSA_VerificationSignature:R <- $r6
	@DEBUG_VALUE: M2351_ECDSA_VerificationSignature:pubKey2 <- $r7
	@DEBUG_VALUE: M2351_ECDSA_VerificationSignature:pubKey1 <- [DW_OP_plus_uconst 16] [$sp+0]
	@DEBUG_VALUE: M2351_ECDSA_VerificationSignature:hash_msg <- $r5
	.loc	2 556 5 prologue_end            @ Crypto/M2351_crypto.c:556:5
	bl	__NVIC_EnableIRQ
	movs	r0, #3
	lsls	r0, r0, #22
	ldr	r4, __arm_cp.17_0
	.loc	2 557 5                         @ Crypto/M2351_crypto.c:557:5
	ldr	r1, [r4]
	orrs	r1, r0
	str	r1, [r4]
	.loc	2 559 5                         @ Crypto/M2351_crypto.c:559:5
	ldr	r0, __arm_cp.17_1
	bl	puts
	.loc	2 560 5                         @ Crypto/M2351_crypto.c:560:5
	adr	r0, .LCPI17_2
	bl	puts
	.loc	2 561 5                         @ Crypto/M2351_crypto.c:561:5
	adr	r0, .LCPI17_3
	bl	puts
	ldr	r0, [sp, #40]
.Ltmp194:
	.loc	2 564 8                         @ Crypto/M2351_crypto.c:564:8
	str	r7, [sp]
	str	r6, [sp, #4]
	str	r0, [sp, #8]
	movs	r1, #0
	mov	r0, r4
	mov	r2, r5
.Ltmp195:
	@DEBUG_VALUE: M2351_ECDSA_VerificationSignature:hash_msg <- $r2
	ldr	r3, [sp, #16]                   @ 4-byte Reload
.Ltmp196:
	@DEBUG_VALUE: M2351_ECDSA_VerificationSignature:pubKey1 <- $r3
	bl	ECC_VerifySignature
.Ltmp197:
	.loc	2 564 8 is_stmt 0               @ Crypto/M2351_crypto.c:564:8
	cmp	r0, #0
	bmi	.LBB17_2
.Ltmp198:
@ %bb.1:
	@DEBUG_VALUE: M2351_ECDSA_VerificationSignature:pubKey2 <- $r7
	@DEBUG_VALUE: M2351_ECDSA_VerificationSignature:R <- $r6
	@DEBUG_VALUE: M2351_ECDSA_VerificationSignature:S <- [DW_OP_plus_uconst 40] [$sp+0]
	.loc	2 570 5 is_stmt 1               @ Crypto/M2351_crypto.c:570:5
	adr	r0, .LCPI17_4
	bl	puts
	.loc	2 572 1                         @ Crypto/M2351_crypto.c:572:1
	add	sp, #20
.Ltmp199:
	pop	{r4, r5, r6, r7, pc}
.Ltmp200:
.LBB17_2:
	@DEBUG_VALUE: M2351_ECDSA_VerificationSignature:pubKey2 <- $r7
	@DEBUG_VALUE: M2351_ECDSA_VerificationSignature:R <- $r6
	@DEBUG_VALUE: M2351_ECDSA_VerificationSignature:S <- [DW_OP_plus_uconst 40] [$sp+0]
	.loc	2 566 9                         @ Crypto/M2351_crypto.c:566:9
	ldr	r0, __arm_cp.17_5
	bl	puts
.Ltmp201:
.LBB17_3:                               @ =>This Inner Loop Header: Depth=1
	@DEBUG_VALUE: M2351_ECDSA_VerificationSignature:pubKey2 <- $r7
	@DEBUG_VALUE: M2351_ECDSA_VerificationSignature:R <- $r6
	@DEBUG_VALUE: M2351_ECDSA_VerificationSignature:S <- [DW_OP_plus_uconst 40] [$sp+0]
	.loc	2 567 9                         @ Crypto/M2351_crypto.c:567:9
	b	.LBB17_3
.Ltmp202:
	.p2align	2
@ %bb.4:
	.loc	2 0 9 is_stmt 0                 @ Crypto/M2351_crypto.c:0:9
__arm_cp.17_0:
	.long	1073946624                      @ 0x40032000
.Lcpi_end40:
	.size	__arm_cp.17_0, .Lcpi_end40-__arm_cp.17_0
__arm_cp.17_1:
	.long	.Lstr.55
.Lcpi_end41:
	.size	__arm_cp.17_1, .Lcpi_end41-__arm_cp.17_1
.LCPI17_2:
.Lstr.56:
	.asciz	"|     Crypto ECDSA Singnature Verification    |"
.LCPI17_3:
.Lstr.57:
	.asciz	"+---------------------------------------------+"
.LCPI17_4:
.Lstr.58:
	.asciz	"ECC digital signature verification OK.\000"
__arm_cp.17_5:
	.long	.Lstr.59
.Lcpi_end42:
	.size	__arm_cp.17_5, .Lcpi_end42-__arm_cp.17_5
.Lfunc_end17:
	.size	M2351_ECDSA_VerificationSignature, .Lfunc_end17-M2351_ECDSA_VerificationSignature
	.cfi_endproc
	.cantunwind
	.fnend
                                        @ -- End function
	.section	.text.get_Nth_nibble_char,"ax",%progbits
	.p2align	2                               @ -- Begin function get_Nth_nibble_char
	.type	get_Nth_nibble_char,%function
	.code	16                              @ @get_Nth_nibble_char
	.thumb_func
get_Nth_nibble_char:
.Lfunc_begin18:
	.loc	2 31 0 is_stmt 1                @ Crypto/M2351_crypto.c:31:0
	.fnstart
	.cfi_startproc
@ %bb.0:
	@DEBUG_VALUE: get_Nth_nibble_char:val32 <- $r0
	@DEBUG_VALUE: get_Nth_nibble_char:val32 <- $r0
	@DEBUG_VALUE: get_Nth_nibble_char:idx <- $r1
	@DEBUG_VALUE: get_Nth_nibble_char:idx <- $r1
	.loc	2 32 40 prologue_end            @ Crypto/M2351_crypto.c:32:40
	lsls	r1, r1, #2
.Ltmp203:
	@DEBUG_VALUE: get_Nth_nibble_char:idx <- [DW_OP_LLVM_entry_value 1] $r1
	.loc	2 32 32 is_stmt 0               @ Crypto/M2351_crypto.c:32:32
	lsrs	r0, r1
.Ltmp204:
	@DEBUG_VALUE: get_Nth_nibble_char:val32 <- [DW_OP_LLVM_entry_value 1] $r0
	.loc	2 0 32                          @ Crypto/M2351_crypto.c:0:32
	movs	r1, #15
	.loc	2 32 47                         @ Crypto/M2351_crypto.c:32:47
	ands	r1, r0
	.loc	2 32 12                         @ Crypto/M2351_crypto.c:32:12
	adr	r0, .LCPI18_0
	ldrb	r0, [r0, r1]
	.loc	2 32 5                          @ Crypto/M2351_crypto.c:32:5
	bx	lr
.Ltmp205:
	.p2align	2
@ %bb.1:
	.loc	2 0 5                           @ Crypto/M2351_crypto.c:0:5
.LCPI18_0:
hex_char_tbl:
	.asciz	"0123456789abcdef\000\000\000"
.Lfunc_end18:
	.size	get_Nth_nibble_char, .Lfunc_end18-get_Nth_nibble_char
	.cfi_endproc
	.cantunwind
	.fnend
                                        @ -- End function
	.hidden	sessionKey                      @ @sessionKey
	.type	sessionKey,%object
	.section	.data.sessionKey,"aw",%progbits
	.globl	sessionKey
	.p2align	2
sessionKey:
	.zero	32,48
	.size	sessionKey, 32

	.hidden	sessionIV                       @ @sessionIV
	.type	sessionIV,%object
	.section	.data.sessionIV,"aw",%progbits
	.globl	sessionIV
	.p2align	2
sessionIV:
	.zero	16,48
	.size	sessionIV, 16

	.hidden	priKey                          @ @priKey
	.type	priKey,%object
	.section	.bss.priKey,"aw",%nobits
	.globl	priKey
priKey:
	.zero	49
	.size	priKey, 49

	.hidden	pubKey1                         @ @pubKey1
	.type	pubKey1,%object
	.section	.bss.pubKey1,"aw",%nobits
	.globl	pubKey1
pubKey1:
	.zero	49
	.size	pubKey1, 49

	.hidden	pubKey2                         @ @pubKey2
	.type	pubKey2,%object
	.section	.bss.pubKey2,"aw",%nobits
	.globl	pubKey2
pubKey2:
	.zero	49
	.size	pubKey2, 49

	.hidden	R                               @ @R
	.type	R,%object
	.section	.bss.R,"aw",%nobits
	.globl	R
R:
	.zero	49
	.size	R, 49

	.hidden	S                               @ @S
	.type	S,%object
	.section	.bss.S,"aw",%nobits
	.globl	S
S:
	.zero	49
	.size	S, 49

	.type	g_AES_done,%object              @ @g_AES_done
	.section	.bss.g_AES_done,"aw",%nobits
	.p2align	2
g_AES_done:
	.long	0                               @ 0x0
	.size	g_AES_done, 4

	.type	.L.str.5,%object                @ @.str.5
	.section	.rodata.str1.1,"aMS",%progbits,1
.L.str.5:
	.asciz	"Read OTP%d failed!\n"
	.size	.L.str.5, 20

	.type	.L.str.11,%object               @ @.str.11
.L.str.11:
	.asciz	"Read OTP%d failed after programmed!\n"
	.size	.L.str.11, 37

	.type	.L.str.12,%object               @ @.str.12
.L.str.12:
	.asciz	"Read back OTP%d: 0x%x-0x%x.\n"
	.size	.L.str.12, 29

	.type	.L.str.13,%object               @ @.str.13
.L.str.13:
	.asciz	"OTP%d value is not matched with programmed value!\n"
	.size	.L.str.13, 51

	.type	.L.str.15,%object               @ @.str.15
.L.str.15:
	.asciz	"Failed to lock OTP%d!\n"
	.size	.L.str.15, 23

	.type	.L.str.16,%object               @ @.str.16
.L.str.16:
	.asciz	"Read OTP%d after locked: 0x%x-0x%x.\n"
	.size	.L.str.16, 37

	.type	.L.str.17,%object               @ @.str.17
.L.str.17:
	.asciz	"OTP%d value is incorrect after locked!\n"
	.size	.L.str.17, 40

	.type	.L__const.M2351_ECDSA_GenerateSignature.gK,%object @ @__const.M2351_ECDSA_GenerateSignature.gK
	.section	.rodata.str1.4,"aMS",%progbits,1
	.p2align	2
.L__const.M2351_ECDSA_GenerateSignature.gK:
	.asciz	"cb0abc7043a10783684556fb12c4154d57bc31a289685f25"
	.size	.L__const.M2351_ECDSA_GenerateSignature.gK, 49

	.type	.Lstr.35,%object                @ @str.35
	.section	.rodata.str1.1,"aMS",%progbits,1
.Lstr.35:
	.asciz	"+---------------------------------------------+"
	.size	.Lstr.35, 48

	.type	.Lstr.38,%object                @ @str.38
.Lstr.38:
	.asciz	"Invalid OTP number."
	.size	.Lstr.38, 20

	.type	.Lstr.39,%object                @ @str.39
.Lstr.39:
	.asciz	"OTP Write done."
	.size	.Lstr.39, 16

	.type	.Lstr.40,%object                @ @str.40
.Lstr.40:
	.asciz	"All OTP entries are used."
	.size	.Lstr.40, 26

	.type	.Lstr.41,%object                @ @str.41
.Lstr.41:
	.asciz	"+---------------------------------------------+"
	.size	.Lstr.41, 48

	.type	.Lstr.45,%object                @ @str.45
.Lstr.45:
	.asciz	"ECC key generation failed!!"
	.size	.Lstr.45, 28

	.type	.Lstr.46,%object                @ @str.46
.Lstr.46:
	.asciz	"+---------------------------------------------+"
	.size	.Lstr.46, 48

	.type	.Lstr.50,%object                @ @str.50
.Lstr.50:
	.asciz	"+---------------------------------------------+"
	.size	.Lstr.50, 48

	.type	.Lstr.53,%object                @ @str.53
.Lstr.53:
	.asciz	"\nECC digital signature generated OK."
	.size	.Lstr.53, 37

	.type	.Lstr.54,%object                @ @str.54
.Lstr.54:
	.asciz	"ECC signature generation failed!!"
	.size	.Lstr.54, 34

	.type	.Lstr.55,%object                @ @str.55
.Lstr.55:
	.asciz	"+---------------------------------------------+"
	.size	.Lstr.55, 48

	.type	.Lstr.59,%object                @ @str.59
.Lstr.59:
	.asciz	"ECC signature verification failed!!"
	.size	.Lstr.59, 36

	.globl	_printf_percent
	.globl	_printf_flags
	.globl	_printf_widthprec
	.globl	_printf_pre_padding
	.globl	_printf_s
	.globl	_printf_x
	.globl	_printf_d
	.globl	_printf_int_dec
	.globl	_printf_longlong_hex
	.globl	_printf_str
	.hidden	_printf_percent
	.hidden	_printf_flags
	.hidden	_printf_widthprec
	.hidden	_printf_pre_padding
	.hidden	_printf_s
	.hidden	_printf_x
	.hidden	_printf_d
	.hidden	_printf_int_dec
	.hidden	_printf_longlong_hex
	.hidden	_printf_str
	.section	".note.GNU-stack","",%progbits
	.eabi_attribute	30, 1	@ Tag_ABI_optimization_goals
	.ARM_attribute	16, 1	@ Tag_AV_eba