	.text
	.syntax unified
	.eabi_attribute	67, "2.09"	@ Tag_conformance
	.cpu	cortex-m23
	.eabi_attribute	6, 16	@ Tag_CPU_arch
	.eabi_attribute	7, 77	@ Tag_CPU_arch_profile
	.eabi_attribute	8, 0	@ Tag_ARM_ISA_use
	.eabi_attribute	9, 3	@ Tag_THUMB_ISA_use
	.eabi_attribute	34, 0	@ Tag_CPU_unaligned_access
	.eabi_attribute	17, 1	@ Tag_ABI_PCS_GOT_use
	.eabi_attribute	20, 2	@ Tag_ABI_FP_denormal
	.eabi_attribute	21, 0	@ Tag_ABI_FP_exceptions
	.eabi_attribute	23, 1	@ Tag_ABI_FP_number_model
	.eabi_attribute	24, 1	@ Tag_ABI_align_needed
	.eabi_attribute	25, 1	@ Tag_ABI_align_preserved
	.eabi_attribute	38, 1	@ Tag_ABI_FP_16bit_format
	.eabi_attribute	18, 2	@ Tag_ABI_PCS_wchar_t
	.eabi_attribute	26, 1	@ Tag_ABI_enum_size
	.eabi_attribute	14, 0	@ Tag_ABI_PCS_R9_use
	.file	"main.c"
	.file	1 "C:\\" "Keil_v5\\ARM\\ARMCLANG\\Bin\\..\\include\\stdint.h"
	.file	2 "C:\\Users\\shw26\\OneDrive\\Desktop\\2021\\2021-1\\\354\272\241\354\212\244\355\206\244\353\224\224\354\236\220\354\235\2702\\Nuvoton\\M2351_BSP_v3.00.004\\M2351Series_BSP_CMSIS_V3.00.004\\MyProject\\PulseMonitoring\\Secure" "main.c"
	.file	3 "C:\\Users\\shw26\\OneDrive\\Desktop\\2021\\2021-1\\\354\272\241\354\212\244\355\206\244\353\224\224\354\236\220\354\235\2702\\Nuvoton\\M2351_BSP_v3.00.004\\M2351Series_BSP_CMSIS_V3.00.004\\MyProject\\PulseMonitoring\\Secure" "../../../Library/Device/Nuvoton/M2351/Include\\M2351.h"
	.file	4 "C:\\Users\\shw26\\OneDrive\\Desktop\\2021\\2021-1\\\354\272\241\354\212\244\355\206\244\353\224\224\354\236\220\354\235\2702\\Nuvoton\\M2351_BSP_v3.00.004\\M2351Series_BSP_CMSIS_V3.00.004\\MyProject\\PulseMonitoring\\Secure" "../../../Library/Device/Nuvoton/M2351/Include/sys_reg.h"
	.file	5 "C:\\Users\\shw26\\OneDrive\\Desktop\\2021\\2021-1\\\354\272\241\354\212\244\355\206\244\353\224\224\354\236\220\354\235\2702\\Nuvoton\\M2351_BSP_v3.00.004\\M2351Series_BSP_CMSIS_V3.00.004\\MyProject\\PulseMonitoring\\Secure" "../../../Library/Device/Nuvoton/M2351/Include/clk_reg.h"
	.file	6 "C:\\Users\\shw26\\OneDrive\\Desktop\\2021\\2021-1\\\354\272\241\354\212\244\355\206\244\353\224\224\354\236\220\354\235\2702\\Nuvoton\\M2351_BSP_v3.00.004\\M2351Series_BSP_CMSIS_V3.00.004\\MyProject\\PulseMonitoring\\Secure" "../../../Library/Device/Nuvoton/M2351/Include/uart_reg.h"
	.file	7 "C:\\Users\\shw26\\OneDrive\\Desktop\\2021\\2021-1\\\354\272\241\354\212\244\355\206\244\353\224\224\354\236\220\354\235\2702\\Nuvoton\\M2351_BSP_v3.00.004\\M2351Series_BSP_CMSIS_V3.00.004\\MyProject\\PulseMonitoring\\Secure" "../../../Library/Device/Nuvoton/M2351/Include/i2c_reg.h"
	.file	8 "C:\\Users\\shw26\\OneDrive\\Desktop\\2021\\2021-1\\\354\272\241\354\212\244\355\206\244\353\224\224\354\236\220\354\235\2702\\Nuvoton\\M2351_BSP_v3.00.004\\M2351Series_BSP_CMSIS_V3.00.004\\MyProject\\PulseMonitoring\\Secure" "../../../Library/Device/Nuvoton/M2351/Include/spi_reg.h"
	.file	9 "C:\\Users\\shw26\\OneDrive\\Desktop\\2021\\2021-1\\\354\272\241\354\212\244\355\206\244\353\224\224\354\236\220\354\235\2702\\Nuvoton\\M2351_BSP_v3.00.004\\M2351Series_BSP_CMSIS_V3.00.004\\MyProject\\PulseMonitoring\\Secure" "../../../Library/CMSIS/Include\\core_armv8mbl.h"
	.section	.text.SysTick_Handler,"ax",%progbits
	.hidden	SysTick_Handler                 @ -- Begin function SysTick_Handler
	.globl	SysTick_Handler
	.p2align	2
	.type	SysTick_Handler,%function
	.code	16                              @ @SysTick_Handler
	.thumb_func
SysTick_Handler:
.Lfunc_begin0:
	.loc	2 36 0                          @ main.c:36:0
	.fnstart
	.cfi_sections .debug_frame
	.cfi_startproc
@ %bb.0:
	.loc	2 39 17 prologue_end            @ main.c:39:17
	ldr	r0, __arm_cp.0_0
	ldr	r1, [r0]
	adds	r1, r1, #1
	str	r1, [r0]
	.loc	2 41 20                         @ main.c:41:20
	ldr	r0, __arm_cp.0_1
	ldr	r2, [r0]
	adds	r1, r2, #1
	str	r1, [r0]
	movw	r3, #299
	.loc	2 41 5 is_stmt 0                @ main.c:41:5
	cmp	r2, r3
	ble	.LBB0_4
@ %bb.1:
	.loc	2 0 5                           @ main.c:0:5
	movw	r3, #499
	.loc	2 41 5                          @ main.c:41:5
	cmp	r2, r3
	bgt	.LBB0_7
@ %bb.2:
	.loc	2 0 5                           @ main.c:0:5
	movw	r3, #300
	.loc	2 41 5                          @ main.c:41:5
	cmp	r2, r3
	beq	.LBB0_11
@ %bb.3:
	.loc	2 0 5                           @ main.c:0:5
	movw	r3, #400
	.loc	2 41 5                          @ main.c:41:5
	cmp	r2, r3
	beq	.LBB0_11
	b	.LBB0_9
.LBB0_4:
	cbz	r2, .LBB0_11
@ %bb.5:
	cmp	r2, #100
	beq	.LBB0_11
@ %bb.6:
	cmp	r2, #200
	beq	.LBB0_11
	b	.LBB0_9
.LBB0_7:
	.loc	2 0 5                           @ main.c:0:5
	movw	r3, #500
	.loc	2 41 5                          @ main.c:41:5
	cmp	r2, r3
	beq	.LBB0_11
@ %bb.8:
	.loc	2 0 5                           @ main.c:0:5
	movw	r3, #600
	.loc	2 41 5                          @ main.c:41:5
	cmp	r2, r3
	beq	.LBB0_10
.LBB0_9:
	.loc	2 0 5                           @ main.c:0:5
	ldr	r2, __arm_cp.0_2
.Ltmp0:
	.loc	2 59 16 is_stmt 1               @ main.c:59:16
	cmp	r1, r2
	blo	.LBB0_11
.LBB0_10:
	.loc	2 0 16 is_stmt 0                @ main.c:0:16
	movs	r1, #0
	str	r1, [r0]
.Ltmp1:
	.loc	2 65 1 is_stmt 1                @ main.c:65:1
	bx	lr
.LBB0_11:
	bx	lr
.Ltmp2:
	.p2align	2
@ %bb.12:
	.loc	2 0 1 is_stmt 0                 @ main.c:0:1
__arm_cp.0_0:
	.long	millis_counter
.Lcpi_end0:
	.size	__arm_cp.0_0, .Lcpi_end0-__arm_cp.0_0
__arm_cp.0_1:
	.long	SysTick_Handler.u32Ticks
.Lcpi_end1:
	.size	__arm_cp.0_1, .Lcpi_end1-__arm_cp.0_1
__arm_cp.0_2:
	.long	601                             @ 0x259
.Lcpi_end2:
	.size	__arm_cp.0_2, .Lcpi_end2-__arm_cp.0_2
.Lfunc_end0:
	.size	SysTick_Handler, .Lfunc_end0-SysTick_Handler
	.cfi_endproc
	.cantunwind
	.fnend
                                        @ -- End function
	.section	.text.SYS_Init,"ax",%progbits
	.hidden	SYS_Init                        @ -- Begin function SYS_Init
	.globl	SYS_Init
	.p2align	2
	.type	SYS_Init,%function
	.code	16                              @ @SYS_Init
	.thumb_func
SYS_Init:
.Lfunc_begin1:
	.loc	2 71 0 is_stmt 1                @ main.c:71:0
	.fnstart
	.cfi_startproc
@ %bb.0:
	.save	{r4, r5, r6, r7, lr}
	push	{r4, r5, r6, r7, lr}
	.cfi_def_cfa_offset 20
	.cfi_offset lr, -4
	.cfi_offset r7, -8
	.cfi_offset r6, -12
	.cfi_offset r5, -16
	.cfi_offset r4, -20
	.pad	#4
	sub	sp, #4
	.cfi_def_cfa_offset 24
	ldr	r7, __arm_cp.1_0
.Ltmp3:
	.loc	2 73 27 prologue_end            @ main.c:73:27
	ldr	r0, [r7, #40]
	movw	r1, #3840
	.loc	2 73 36 is_stmt 0               @ main.c:73:36
	bics	r0, r1
	movw	r1, #2560
	.loc	2 73 66                         @ main.c:73:66
	adds	r0, r0, r1
	.loc	2 73 19                         @ main.c:73:19
	str	r0, [r7, #40]
	.loc	2 74 27 is_stmt 1               @ main.c:74:27
	ldr	r0, [r7, #40]
	movw	r1, #61440
	.loc	2 74 36 is_stmt 0               @ main.c:74:36
	bics	r0, r1
	movw	r1, #40960
	.loc	2 74 66                         @ main.c:74:66
	adds	r0, r0, r1
	.loc	2 74 19                         @ main.c:74:19
	str	r0, [r7, #40]
	movs	r0, #4
	.loc	2 81 5 is_stmt 1                @ main.c:81:5
	str	r0, [sp]                        @ 4-byte Spill
	bl	CLK_EnableXtalRC
	movs	r0, #16
	.loc	2 84 5                          @ main.c:84:5
	bl	CLK_WaitClockReady
	movs	r0, #7
	movs	r5, #0
	.loc	2 87 5                          @ main.c:87:5
	mov	r1, r5
	bl	CLK_SetHCLK
	movs	r6, #1
	.loc	2 90 5                          @ main.c:90:5
	mov	r0, r6
	bl	CLK_EnableXtalRC
	.loc	2 93 5                          @ main.c:93:5
	mov	r0, r6
	bl	CLK_WaitClockReady
	ldr	r4, __arm_cp.1_1
	ldr	r0, __arm_cp.1_2
	.loc	2 97 17                         @ main.c:97:17
	str	r0, [r4, #64]
	.loc	2 100 5                         @ main.c:100:5
	ldr	r0, [sp]                        @ 4-byte Reload
	bl	CLK_WaitClockReady
	movs	r0, #2
	.loc	2 103 5                         @ main.c:103:5
	mov	r1, r5
	bl	CLK_SetHCLK
	lsls	r0, r6, #18
	.loc	2 110 15                        @ main.c:110:15
	ldr	r1, [r4]
	orrs	r1, r0
	str	r1, [r4]
.LBB1_1:                                @ =>This Inner Loop Header: Depth=1
	.loc	2 111 17                        @ main.c:111:17
	ldr	r0, [r4, #80]
	.loc	2 111 5 is_stmt 0               @ main.c:111:5
	lsls	r0, r0, #25
	bpl	.LBB1_1
@ %bb.2:
	.loc	2 0 5                           @ main.c:0:5
	movs	r0, #5
	.loc	2 112 18 is_stmt 1              @ main.c:112:18
	str	r0, [r4, #16]
	movs	r5, #15
	lsls	r0, r5, #24
	.loc	2 115 18                        @ main.c:115:18
	str	r0, [r4, #20]
	movs	r0, #207
	lsls	r0, r0, #24
	.loc	2 116 18                        @ main.c:116:18
	str	r0, [r4, #28]
	.loc	2 119 18                        @ main.c:119:18
	ldr	r0, [r4, #4]
	movw	r1, #4096
	orrs	r1, r0
	str	r1, [r4, #4]
	.loc	2 122 18                        @ main.c:122:18
	ldr	r0, [r4, #8]
	ldr	r1, __arm_cp.1_3
	orrs	r1, r0
	str	r1, [r4, #8]
	ldr	r4, __arm_cp.1_4
	movs	r1, #128
	movs	r2, #0
	.loc	2 133 5                         @ main.c:133:5
	mov	r0, r4
	bl	CLK_SetModuleClock
	.loc	2 137 5                         @ main.c:137:5
	mov	r0, r7
	subs	r0, #40
	bl	CLK_EnableModuleClock
	.loc	2 143 5                         @ main.c:143:5
	mov	r0, r4
	bl	CLK_EnableModuleClock
	.loc	2 152 21                        @ main.c:152:21
	ldr	r0, __arm_cp.1_5
	ldr	r1, __arm_cp.1_6
	str	r1, [r0]
	.loc	2 151 21                        @ main.c:151:21
	ldr	r0, __arm_cp.1_7
	ldr	r1, __arm_cp.1_8
	str	r1, [r0]
	.loc	2 153 21                        @ main.c:153:21
	ldr	r0, __arm_cp.1_9
	movs	r1, #64
	str	r1, [r0]
	.loc	2 160 27                        @ main.c:160:27
	ldr	r0, [r7, #12]
	ldr	r1, __arm_cp.1_10
	.loc	2 160 36 is_stmt 0              @ main.c:160:36
	ands	r0, r1
	movs	r2, #51
	lsls	r2, r2, #17
	.loc	2 160 101                       @ main.c:160:101
	adds	r0, r0, r2
	.loc	2 160 19                        @ main.c:160:19
	str	r0, [r7, #12]
	.loc	2 164 19 is_stmt 1              @ main.c:164:19
	ldr	r0, [r7]
	ands	r0, r1
	str	r0, [r7]
	movs	r0, #153
	lsls	r0, r0, #16
	.loc	2 165 19                        @ main.c:165:19
	ldr	r1, [r7]
	orrs	r1, r0
	str	r1, [r7]
	.loc	2 186 19                        @ main.c:186:19
	ldr	r0, [r7, #60]
	movs	r1, #255
	bics	r0, r1
	str	r0, [r7, #60]
	.loc	2 187 19                        @ main.c:187:19
	ldr	r0, [r7, #60]
	movs	r1, #102
	orrs	r1, r0
	str	r1, [r7, #60]
	.loc	2 189 17                        @ main.c:189:17
	ldr	r0, [r7, #32]
	bics	r0, r5
	str	r0, [r7, #32]
	.loc	2 190 19                        @ main.c:190:19
	ldr	r0, [r7, #32]
	movs	r1, #6
	orrs	r1, r0
	str	r1, [r7, #32]
	.loc	2 191 1                         @ main.c:191:1
	add	sp, #4
	pop	{r4, r5, r6, r7, pc}
.Ltmp4:
	.p2align	2
@ %bb.3:
	.loc	2 0 1 is_stmt 0                 @ main.c:0:1
__arm_cp.1_0:
	.long	1073741872                      @ 0x40000030
.Lcpi_end3:
	.size	__arm_cp.1_0, .Lcpi_end3-__arm_cp.1_0
__arm_cp.1_1:
	.long	1073742336                      @ 0x40000200
.Lcpi_end4:
	.size	__arm_cp.1_1, .Lcpi_end4-__arm_cp.1_1
__arm_cp.1_2:
	.long	525326                          @ 0x8040e
.Lcpi_end5:
	.size	__arm_cp.1_2, .Lcpi_end5-__arm_cp.1_2
__arm_cp.1_3:
	.long	3080196                         @ 0x2f0004
.Lcpi_end6:
	.size	__arm_cp.1_3, .Lcpi_end6-__arm_cp.1_3
__arm_cp.1_4:
	.long	1717567502                      @ 0x6660000e
.Lcpi_end7:
	.size	__arm_cp.1_4, .Lcpi_end7-__arm_cp.1_4
__arm_cp.1_5:
	.long	SystemCoreClock
.Lcpi_end8:
	.size	__arm_cp.1_5, .Lcpi_end8-__arm_cp.1_5
__arm_cp.1_6:
	.long	64000000                        @ 0x3d09000
.Lcpi_end9:
	.size	__arm_cp.1_6, .Lcpi_end9-__arm_cp.1_6
__arm_cp.1_7:
	.long	PllClock
.Lcpi_end10:
	.size	__arm_cp.1_7, .Lcpi_end10-__arm_cp.1_7
__arm_cp.1_8:
	.long	128000000                       @ 0x7a12000
.Lcpi_end11:
	.size	__arm_cp.1_8, .Lcpi_end11-__arm_cp.1_8
__arm_cp.1_9:
	.long	CyclesPerUs
.Lcpi_end12:
	.size	__arm_cp.1_9, .Lcpi_end12-__arm_cp.1_9
__arm_cp.1_10:
	.long	4278255615                      @ 0xff00ffff
.Lcpi_end13:
	.size	__arm_cp.1_10, .Lcpi_end13-__arm_cp.1_10
.Lfunc_end1:
	.size	SYS_Init, .Lfunc_end1-SYS_Init
	.cfi_endproc
	.cantunwind
	.fnend
                                        @ -- End function
	.section	.text.DEBUG_PORT_Init,"ax",%progbits
	.hidden	DEBUG_PORT_Init                 @ -- Begin function DEBUG_PORT_Init
	.globl	DEBUG_PORT_Init
	.p2align	2
	.type	DEBUG_PORT_Init,%function
	.code	16                              @ @DEBUG_PORT_Init
	.thumb_func
DEBUG_PORT_Init:
.Lfunc_begin2:
	.loc	2 198 0 is_stmt 1               @ main.c:198:0
	.fnstart
	.cfi_startproc
@ %bb.0:
	ldr	r0, __arm_cp.2_0
	movs	r1, #3
.Ltmp5:
	.loc	2 199 22 prologue_end           @ main.c:199:22
	str	r1, [r0]
	ldr	r1, __arm_cp.2_1
	.loc	2 200 22                        @ main.c:200:22
	str	r1, [r0, #24]
	.loc	2 201 1                         @ main.c:201:1
	bx	lr
.Ltmp6:
	.p2align	2
@ %bb.1:
	.loc	2 0 1 is_stmt 0                 @ main.c:0:1
__arm_cp.2_0:
	.long	1342636044                      @ 0x5007000c
.Lcpi_end14:
	.size	__arm_cp.2_0, .Lcpi_end14-__arm_cp.2_0
__arm_cp.2_1:
	.long	805306470                       @ 0x30000066
.Lcpi_end15:
	.size	__arm_cp.2_1, .Lcpi_end15-__arm_cp.2_1
.Lfunc_end2:
	.size	DEBUG_PORT_Init, .Lfunc_end2-DEBUG_PORT_Init
	.cfi_endproc
	.cantunwind
	.fnend
                                        @ -- End function
	.section	.text.WIFI_PORT_Init,"ax",%progbits
	.hidden	WIFI_PORT_Init                  @ -- Begin function WIFI_PORT_Init
	.globl	WIFI_PORT_Init
	.p2align	2
	.type	WIFI_PORT_Init,%function
	.code	16                              @ @WIFI_PORT_Init
	.thumb_func
WIFI_PORT_Init:
.Lfunc_begin3:
	.loc	2 207 0 is_stmt 1               @ main.c:207:0
	.fnstart
	.cfi_startproc
@ %bb.0:
	movs	r0, #1
	lsls	r0, r0, #20
	ldr	r1, __arm_cp.3_0
.Ltmp7:
	.loc	2 208 18 prologue_end           @ main.c:208:18
	ldr	r2, [r1]
	orrs	r2, r0
	str	r2, [r1]
	movs	r0, #3
	lsls	r2, r0, #26
	.loc	2 209 26                        @ main.c:209:26
	ldr	r3, [r1, #20]
	.loc	2 209 65 is_stmt 0              @ main.c:209:65
	orrs	r3, r2
	.loc	2 209 18                        @ main.c:209:18
	str	r3, [r1, #20]
	ldr	r1, __arm_cp.3_1
	.loc	2 211 21 is_stmt 1              @ main.c:211:21
	str	r0, [r1]
	ldr	r0, __arm_cp.3_2
	.loc	2 212 21                        @ main.c:212:21
	str	r0, [r1, #24]
	ldr	r0, __arm_cp.3_3
	.loc	2 216 27                        @ main.c:216:27
	ldr	r1, [r0]
	movs	r2, #85
	.loc	2 216 36 is_stmt 0              @ main.c:216:36
	orrs	r2, r1
	movs	r1, #170
	.loc	2 216 98                        @ main.c:216:98
	bics	r2, r1
	.loc	2 216 19                        @ main.c:216:19
	str	r2, [r0]
	.loc	2 217 1 is_stmt 1               @ main.c:217:1
	bx	lr
.Ltmp8:
	.p2align	2
@ %bb.1:
	.loc	2 0 1 is_stmt 0                 @ main.c:0:1
__arm_cp.3_0:
	.long	1073742344                      @ 0x40000208
.Lcpi_end16:
	.size	__arm_cp.3_0, .Lcpi_end16-__arm_cp.3_0
__arm_cp.3_1:
	.long	1342648332                      @ 0x5007300c
.Lcpi_end17:
	.size	__arm_cp.3_1, .Lcpi_end17-__arm_cp.3_1
__arm_cp.3_2:
	.long	805306470                       @ 0x30000066
.Lcpi_end18:
	.size	__arm_cp.3_2, .Lcpi_end18-__arm_cp.3_2
__arm_cp.3_3:
	.long	1073741896                      @ 0x40000048
.Lcpi_end19:
	.size	__arm_cp.3_3, .Lcpi_end19-__arm_cp.3_3
.Lfunc_end3:
	.size	WIFI_PORT_Init, .Lfunc_end3-WIFI_PORT_Init
	.cfi_endproc
	.cantunwind
	.fnend
                                        @ -- End function
	.section	.text.I2C0_Init,"ax",%progbits
	.hidden	I2C0_Init                       @ -- Begin function I2C0_Init
	.globl	I2C0_Init
	.p2align	2
	.type	I2C0_Init,%function
	.code	16                              @ @I2C0_Init
	.thumb_func
I2C0_Init:
.Lfunc_begin4:
	.loc	2 223 0 is_stmt 1               @ main.c:223:0
	.fnstart
	.cfi_startproc
@ %bb.0:
	.save	{r4, lr}
	push	{r4, lr}
	.cfi_def_cfa_offset 8
	.cfi_offset lr, -4
	.cfi_offset r4, -8
	ldr	r4, __arm_cp.4_0
	ldr	r1, __arm_cp.4_1
.Ltmp9:
	.loc	2 226 5 prologue_end            @ main.c:226:5
	mov	r0, r4
	bl	I2C_Open
	movs	r2, #87
	movs	r1, #0
	.loc	2 232 5                         @ main.c:232:5
	mov	r0, r4
	mov	r3, r1
	bl	I2C_SetSlaveAddr
	.loc	2 234 1                         @ main.c:234:1
	pop	{r4, pc}
.Ltmp10:
	.p2align	2
@ %bb.1:
	.loc	2 0 1 is_stmt 0                 @ main.c:0:1
__arm_cp.4_0:
	.long	1074266112                      @ 0x40080000
.Lcpi_end20:
	.size	__arm_cp.4_0, .Lcpi_end20-__arm_cp.4_0
__arm_cp.4_1:
	.long	400000                          @ 0x61a80
.Lcpi_end21:
	.size	__arm_cp.4_1, .Lcpi_end21-__arm_cp.4_1
.Lfunc_end4:
	.size	I2C0_Init, .Lfunc_end4-I2C0_Init
	.cfi_endproc
	.cantunwind
	.fnend
                                        @ -- End function
	.section	.text.SPI_Init,"ax",%progbits
	.hidden	SPI_Init                        @ -- Begin function SPI_Init
	.globl	SPI_Init
	.p2align	2
	.type	SPI_Init,%function
	.code	16                              @ @SPI_Init
	.thumb_func
SPI_Init:
.Lfunc_begin5:
	.loc	2 241 0 is_stmt 1               @ main.c:241:0
	.fnstart
	.cfi_startproc
@ %bb.0:
	.save	{r4, r5, r7, lr}
	push	{r4, r5, r7, lr}
	.cfi_def_cfa_offset 16
	.cfi_offset lr, -4
	.cfi_offset r7, -8
	.cfi_offset r5, -12
	.cfi_offset r4, -16
	.pad	#8
	sub	sp, #8
	.cfi_def_cfa_offset 24
	ldr	r0, __arm_cp.5_0
.Ltmp11:
	.loc	2 243 5 prologue_end            @ main.c:243:5
	str	r0, [sp]
	ldr	r4, __arm_cp.5_1
	movs	r5, #0
	movs	r2, #4
	movs	r3, #32
	mov	r0, r4
	mov	r1, r5
	bl	SPI_Open
	movs	r1, #1
	.loc	2 246 5                         @ main.c:246:5
	mov	r0, r4
	mov	r2, r5
	bl	SPI_EnableAutoSS
	.loc	2 248 3                         @ main.c:248:3
	ldr	r0, [r4]
	movw	r1, #7936
	bics	r0, r1
	movw	r1, #2048
	adds	r0, r0, r1
	str	r0, [r4]
	.loc	2 249 1                         @ main.c:249:1
	add	sp, #8
	pop	{r4, r5, r7, pc}
.Ltmp12:
	.p2align	2
@ %bb.1:
	.loc	2 0 1 is_stmt 0                 @ main.c:0:1
__arm_cp.5_0:
	.long	2000000                         @ 0x1e8480
.Lcpi_end22:
	.size	__arm_cp.5_0, .Lcpi_end22-__arm_cp.5_0
__arm_cp.5_1:
	.long	1342578688                      @ 0x50062000
.Lcpi_end23:
	.size	__arm_cp.5_1, .Lcpi_end23-__arm_cp.5_1
.Lfunc_end5:
	.size	SPI_Init, .Lfunc_end5-SPI_Init
	.cfi_endproc
	.cantunwind
	.fnend
                                        @ -- End function
	.section	.text.Nonsecure_Init,"ax",%progbits
	.hidden	Nonsecure_Init                  @ -- Begin function Nonsecure_Init
	.globl	Nonsecure_Init
	.p2align	2
	.type	Nonsecure_Init,%function
	.code	16                              @ @Nonsecure_Init
	.thumb_func
Nonsecure_Init:
.Lfunc_begin6:
	.loc	2 253 0 is_stmt 1               @ main.c:253:0
	.fnstart
	.cfi_startproc
@ %bb.0:
	.save	{r4, lr}
	push	{r4, lr}
	.cfi_def_cfa_offset 8
	.cfi_offset lr, -4
	.cfi_offset r4, -8
	ldr	r0, __arm_cp.6_0
	ldr	r1, __arm_cp.6_1
.Ltmp13:
	.loc	2 257 18 prologue_end           @ main.c:257:18
	str	r1, [r0]
	.loc	2 260 43                        @ main.c:260:43
	ldr	r1, [r0]
	.loc	2 260 21 is_stmt 0              @ main.c:260:21
	ldr	r1, [r1]
.Ltmp14:
	@DEBUG_VALUE: __TZ_set_MSP_NS:topOfMainStack <- $r1
	.file	10 "C:\\Users\\shw26\\OneDrive\\Desktop\\2021\\2021-1\\\354\272\241\354\212\244\355\206\244\353\224\224\354\236\220\354\235\2702\\Nuvoton\\M2351_BSP_v3.00.004\\M2351Series_BSP_CMSIS_V3.00.004\\MyProject\\PulseMonitoring\\Secure" "../../../Library/CMSIS/Include/cmsis_armclang.h"
	.loc	10 331 3 is_stmt 1              @ ../../../Library/CMSIS/Include/cmsis_armclang.h:331:3
	@APP
	msr	msp_ns, r1
	@NO_APP
.Ltmp15:
	.loc	2 263 54                        @ main.c:263:54
	ldr	r0, [r0]
	.loc	2 263 31 is_stmt 0              @ main.c:263:31
	ldr	r4, [r0, #4]
.Ltmp16:
	@DEBUG_VALUE: Nonsecure_Init:fp <- [DW_OP_constu 18446744073709551614, DW_OP_and, DW_OP_stack_value] $r4
	.loc	2 270 8 is_stmt 1               @ main.c:270:8
	lsrs	r0, r4, #28
	cmp	r0, #1
	bne	.LBB6_2
.Ltmp17:
@ %bb.1:
	@DEBUG_VALUE: Nonsecure_Init:fp <- [DW_OP_constu 18446744073709551614, DW_OP_and, DW_OP_stack_value] $r4
	.loc	2 272 9                         @ main.c:272:9
	adr	r0, .LCPI6_8
	bl	puts
	movs	r0, #1
.Ltmp18:
	.loc	2 267 10                        @ main.c:267:10
	bics	r4, r0
.Ltmp19:
	@DEBUG_VALUE: Nonsecure_Init:fp <- $r4
	.loc	2 0 10 is_stmt 0                @ main.c:0:10
	movs	r0, #0
.Ltmp20:
	.loc	2 273 9 is_stmt 1               @ main.c:273:9
	push	{r4, r5, r6, r7}
	mov	r7, r11
	mov	r6, r10
	mov	r5, r9
	push	{r5, r6, r7}
	mov	r5, r8
	push	{r5}
	mov	r1, #1
	bics	r4, r1
.Ltmp21:
	mov	r1, r4
	mov	r2, r4
	mov	r3, r4
	mov	r5, r4
	mov	r6, r4
	mov	r7, r4
	mov	r8, r4
	mov	r9, r4
	mov	r10, r4
	mov	r11, r4
	mov	r12, r4
	msr	apsr, r4
	blxns	r4
	pop	{r4, r5, r6, r7}
	mov	r8, r4
	mov	r9, r5
	mov	r10, r6
	mov	r11, r7
	pop	{r4, r5, r6, r7}
.Ltmp22:
	.loc	2 291 1                         @ main.c:291:1
	pop	{r4, pc}
.LBB6_2:
.Ltmp23:
	@DEBUG_VALUE: Nonsecure_Init:fp <- [DW_OP_constu 18446744073709551614, DW_OP_and, DW_OP_stack_value] $r4
	.loc	2 278 9                         @ main.c:278:9
	adr	r0, .LCPI6_2
	bl	puts
	.loc	2 279 9                         @ main.c:279:9
	adr	r0, .LCPI6_3
	bl	puts
	ldr	r0, __arm_cp.6_4
.Ltmp24:
	@DEBUG_VALUE: __TZ_set_MSP_NS:topOfMainStack <- 805339648
	.loc	10 331 3                        @ ../../../Library/CMSIS/Include/cmsis_armclang.h:331:3
	@APP
	msr	msp_ns, r0
	@NO_APP
	ldr	r0, __arm_cp.6_5
	ldr	r1, __arm_cp.6_6
.Ltmp25:
	.loc	2 285 35                        @ main.c:285:35
	str	r1, [r0]
.Ltmp26:
	@DEBUG_VALUE: Nonsecure_Init:fp <- 805339137
	.loc	2 0 35 is_stmt 0                @ main.c:0:35
	movs	r0, #0
	ldr	r1, __arm_cp.6_7
	.loc	2 287 9 is_stmt 1               @ main.c:287:9
	push	{r4, r5, r6, r7}
	mov	r7, r11
	mov	r6, r10
	mov	r5, r9
	mov	r4, r8
	push	{r4, r5, r6, r7}
	mov	r2, #1
	bics	r1, r2
	mov	r2, r1
	mov	r3, r1
	mov	r4, r1
	mov	r5, r1
	mov	r6, r1
	mov	r7, r1
	mov	r8, r1
	mov	r9, r1
	mov	r10, r1
	mov	r11, r1
	mov	r12, r1
	msr	apsr, r1
	blxns	r1
	pop	{r4, r5, r6, r7}
	mov	r8, r4
	mov	r9, r5
	mov	r10, r6
	mov	r11, r7
	pop	{r4, r5, r6, r7}
.Ltmp27:
.LBB6_3:                                @ =>This Inner Loop Header: Depth=1
	@DEBUG_VALUE: Nonsecure_Init:fp <- 805339137
	.loc	2 289 9                         @ main.c:289:9
	b	.LBB6_3
.Ltmp28:
	.p2align	2
@ %bb.4:
	.loc	2 0 9 is_stmt 0                 @ main.c:0:9
__arm_cp.6_0:
	.long	3758288136                      @ 0xe002ed08
.Lcpi_end24:
	.size	__arm_cp.6_0, .Lcpi_end24-__arm_cp.6_0
__arm_cp.6_1:
	.long	268697600                       @ 0x10040000
.Lcpi_end25:
	.size	__arm_cp.6_1, .Lcpi_end25-__arm_cp.6_1
.LCPI6_2:
.Lstr:
	.asciz	"No code in non-secure region!\000\000"
.LCPI6_3:
.Lstr.5:
	.asciz	"CPU will halted at non-secure state"
__arm_cp.6_4:
	.long	805339648                       @ 0x30008200
.Lcpi_end26:
	.size	__arm_cp.6_4, .Lcpi_end26-__arm_cp.6_4
__arm_cp.6_5:
	.long	805339136                       @ 0x30008000
.Lcpi_end27:
	.size	__arm_cp.6_5, .Lcpi_end27-__arm_cp.6_5
__arm_cp.6_6:
	.long	3892242431                      @ 0xe7fee7ff
.Lcpi_end28:
	.size	__arm_cp.6_6, .Lcpi_end28-__arm_cp.6_6
__arm_cp.6_7:
	.long	805339137                       @ 0x30008001
.Lcpi_end29:
	.size	__arm_cp.6_7, .Lcpi_end29-__arm_cp.6_7
.LCPI6_8:
.Lstr.6:
	.asciz	"\nExecute Non-secure code ...\000\000\000"
.Lfunc_end6:
	.size	Nonsecure_Init, .Lfunc_end6-Nonsecure_Init
	.cfi_endproc
	.cantunwind
	.fnend
                                        @ -- End function
	.section	.text.main,"ax",%progbits
	.hidden	main                            @ -- Begin function main
	.globl	main
	.p2align	2
	.type	main,%function
	.code	16                              @ @main
	.thumb_func
main:
.Lfunc_begin7:
	.loc	2 298 0 is_stmt 1               @ main.c:298:0
	.fnstart
	.cfi_startproc
@ %bb.0:
	.loc	2 301 5 prologue_end            @ main.c:301:5
	bl	SYS_UnlockReg
	.loc	2 304 5                         @ main.c:304:5
	bl	SYS_Init
	.loc	2 307 5                         @ main.c:307:5
	bl	SYS_LockReg
	.loc	2 313 20                        @ main.c:313:20
	ldr	r0, __arm_cp.7_0
	ldr	r0, [r0]
	movw	r1, #1000
	.loc	2 313 36 is_stmt 0              @ main.c:313:36
	udiv	r0, r0, r1
	.loc	2 313 5                         @ main.c:313:5
	bl	SysTick_Config
	.loc	2 316 5 is_stmt 1               @ main.c:316:5
	bl	DEBUG_PORT_Init
	.loc	2 317 3                         @ main.c:317:3
	bl	WIFI_PORT_Init
	.loc	2 318 5                         @ main.c:318:5
	bl	I2C0_Init
	.loc	2 319 3                         @ main.c:319:3
	bl	SPI_Init
	.loc	2 321 3                         @ main.c:321:3
	ldr	r0, __arm_cp.7_1
	bl	puts
	.loc	2 322 5                         @ main.c:322:5
	adr	r0, .LCPI7_2
	bl	puts
	.loc	2 323 5                         @ main.c:323:5
	adr	r0, .LCPI7_3
	bl	puts
	.loc	2 326 3                         @ main.c:326:3
	bl	MAX30102_Config
	.loc	2 328 3                         @ main.c:328:3
	bl	Nonsecure_Init
.LBB7_1:                                @ =>This Inner Loop Header: Depth=1
.Ltmp29:
	.loc	2 334 7                         @ main.c:334:7
	wfi
	.loc	2 335 5                         @ main.c:335:5
	b	.LBB7_1
.Ltmp30:
	.p2align	2
@ %bb.2:
	.loc	2 0 5 is_stmt 0                 @ main.c:0:5
__arm_cp.7_0:
	.long	SystemCoreClock
.Lcpi_end30:
	.size	__arm_cp.7_0, .Lcpi_end30-__arm_cp.7_0
__arm_cp.7_1:
	.long	.Lstr.7
.Lcpi_end31:
	.size	__arm_cp.7_1, .Lcpi_end31-__arm_cp.7_1
.LCPI7_2:
.Lstr.8:
	.asciz	"|             Secure is running ...           |"
.LCPI7_3:
.Lstr.9:
	.asciz	"+---------------------------------------------+"
.Lfunc_end7:
	.size	main, .Lfunc_end7-main
	.cfi_endproc
	.cantunwind
	.fnend
                                        @ -- End function
	.section	.text.SYS_UnlockReg,"ax",%progbits
	.p2align	2                               @ -- Begin function SYS_UnlockReg
	.type	SYS_UnlockReg,%function
	.code	16                              @ @SYS_UnlockReg
	.thumb_func
SYS_UnlockReg:
.Lfunc_begin8:
	.file	11 "C:\\Users\\shw26\\OneDrive\\Desktop\\2021\\2021-1\\\354\272\241\354\212\244\355\206\244\353\224\224\354\236\220\354\235\2702\\Nuvoton\\M2351_BSP_v3.00.004\\M2351Series_BSP_CMSIS_V3.00.004\\MyProject\\PulseMonitoring\\Secure" "../../../Library/StdDriver/inc\\sys.h"
	.loc	11 3042 0 is_stmt 1             @ ../../../Library/StdDriver/inc\sys.h:3042:0
	.fnstart
	.cfi_startproc
@ %bb.0:
	.save	{r4, lr}
	push	{r4, lr}
	.cfi_def_cfa_offset 8
	.cfi_offset lr, -4
	.cfi_offset r4, -8
	ldr	r0, __arm_cp.8_0
	movs	r1, #89
	movs	r2, #22
	movs	r3, #136
.LBB8_1:                                @ =>This Inner Loop Header: Depth=1
.Ltmp31:
	.loc	11 3045 22 prologue_end         @ ../../../Library/StdDriver/inc\sys.h:3045:22
	str	r1, [r0]
	.loc	11 3046 22                      @ ../../../Library/StdDriver/inc\sys.h:3046:22
	str	r2, [r0]
	.loc	11 3047 22                      @ ../../../Library/StdDriver/inc\sys.h:3047:22
	str	r3, [r0]
.Ltmp32:
	.loc	11 3049 16                      @ ../../../Library/StdDriver/inc\sys.h:3049:16
	ldr	r4, [r0]
.Ltmp33:
	.loc	11 3048 5                       @ ../../../Library/StdDriver/inc\sys.h:3048:5
	cmp	r4, #0
	beq	.LBB8_1
.Ltmp34:
@ %bb.2:
	.loc	11 3050 1                       @ ../../../Library/StdDriver/inc\sys.h:3050:1
	pop	{r4, pc}
.Ltmp35:
	.p2align	2
@ %bb.3:
	.loc	11 0 1 is_stmt 0                @ ../../../Library/StdDriver/inc\sys.h:0:1
__arm_cp.8_0:
	.long	1073742080                      @ 0x40000100
.Lcpi_end32:
	.size	__arm_cp.8_0, .Lcpi_end32-__arm_cp.8_0
.Lfunc_end8:
	.size	SYS_UnlockReg, .Lfunc_end8-SYS_UnlockReg
	.cfi_endproc
	.cantunwind
	.fnend
                                        @ -- End function
	.section	.text.SYS_LockReg,"ax",%progbits
	.p2align	2                               @ -- Begin function SYS_LockReg
	.type	SYS_LockReg,%function
	.code	16                              @ @SYS_LockReg
	.thumb_func
SYS_LockReg:
.Lfunc_begin9:
	.loc	11 3060 0 is_stmt 1             @ ../../../Library/StdDriver/inc\sys.h:3060:0
	.fnstart
	.cfi_startproc
@ %bb.0:
	ldr	r0, __arm_cp.9_0
	movs	r1, #0
.Ltmp36:
	.loc	11 3061 18 prologue_end         @ ../../../Library/StdDriver/inc\sys.h:3061:18
	str	r1, [r0]
	.loc	11 3062 1                       @ ../../../Library/StdDriver/inc\sys.h:3062:1
	bx	lr
.Ltmp37:
	.p2align	2
@ %bb.1:
	.loc	11 0 1 is_stmt 0                @ ../../../Library/StdDriver/inc\sys.h:0:1
__arm_cp.9_0:
	.long	1073742080                      @ 0x40000100
.Lcpi_end33:
	.size	__arm_cp.9_0, .Lcpi_end33-__arm_cp.9_0
.Lfunc_end9:
	.size	SYS_LockReg, .Lfunc_end9-SYS_LockReg
	.cfi_endproc
	.cantunwind
	.fnend
                                        @ -- End function
	.section	.text.SysTick_Config,"ax",%progbits
	.p2align	2                               @ -- Begin function SysTick_Config
	.type	SysTick_Config,%function
	.code	16                              @ @SysTick_Config
	.thumb_func
SysTick_Config:
.Lfunc_begin10:
	.loc	9 1820 0 is_stmt 1              @ ../../../Library/CMSIS/Include\core_armv8mbl.h:1820:0
	.fnstart
	.cfi_startproc
@ %bb.0:
	@DEBUG_VALUE: SysTick_Config:ticks <- $r0
	@DEBUG_VALUE: SysTick_Config:ticks <- $r0
	.save	{r4, lr}
	push	{r4, lr}
	.cfi_def_cfa_offset 8
	.cfi_offset lr, -4
	.cfi_offset r4, -8
.Ltmp38:
	.loc	9 1821 14 prologue_end          @ ../../../Library/CMSIS/Include\core_armv8mbl.h:1821:14
	subs	r0, r0, #1
.Ltmp39:
	@DEBUG_VALUE: SysTick_Config:ticks <- [DW_OP_LLVM_entry_value 1] $r0
	.loc	9 1821 7 is_stmt 0              @ ../../../Library/CMSIS/Include\core_armv8mbl.h:1821:7
	lsrs	r1, r0, #24
	bne	.LBB10_2
.Ltmp40:
@ %bb.1:
	@DEBUG_VALUE: SysTick_Config:ticks <- [DW_OP_LLVM_entry_value 1] $r0
	.loc	9 0 7                           @ ../../../Library/CMSIS/Include\core_armv8mbl.h:0:7
	ldr	r4, __arm_cp.10_0
	.loc	9 1826 18 is_stmt 1             @ ../../../Library/CMSIS/Include\core_armv8mbl.h:1826:18
	str	r0, [r4, #4]
	.loc	9 1827 3                        @ ../../../Library/CMSIS/Include\core_armv8mbl.h:1827:3
	bl	__NVIC_SetPriority
	movs	r0, #0
	.loc	9 1828 18                       @ ../../../Library/CMSIS/Include\core_armv8mbl.h:1828:18
	str	r0, [r4, #8]
	movs	r0, #7
	.loc	9 1829 18                       @ ../../../Library/CMSIS/Include\core_armv8mbl.h:1829:18
	str	r0, [r4]
.Ltmp41:
.LBB10_2:
	@DEBUG_VALUE: SysTick_Config:ticks <- [DW_OP_LLVM_entry_value 1] $r0
	.loc	9 1833 1                        @ ../../../Library/CMSIS/Include\core_armv8mbl.h:1833:1
	pop	{r4, pc}
.Ltmp42:
	.p2align	2
@ %bb.3:
	.loc	9 0 1 is_stmt 0                 @ ../../../Library/CMSIS/Include\core_armv8mbl.h:0:1
__arm_cp.10_0:
	.long	3758153744                      @ 0xe000e010
.Lcpi_end34:
	.size	__arm_cp.10_0, .Lcpi_end34-__arm_cp.10_0
.Lfunc_end10:
	.size	SysTick_Config, .Lfunc_end10-SysTick_Config
	.cfi_endproc
	.cantunwind
	.fnend
                                        @ -- End function
	.section	.text.__NVIC_SetPriority,"ax",%progbits
	.p2align	2                               @ -- Begin function __NVIC_SetPriority
	.type	__NVIC_SetPriority,%function
	.code	16                              @ @__NVIC_SetPriority
	.thumb_func
__NVIC_SetPriority:
.Lfunc_begin11:
	.loc	9 1471 0 is_stmt 1              @ ../../../Library/CMSIS/Include\core_armv8mbl.h:1471:0
	.fnstart
	.cfi_startproc
@ %bb.0:
	movs	r0, #255
	lsls	r0, r0, #24
	ldr	r1, __arm_cp.11_0
	@DEBUG_VALUE: __NVIC_SetPriority:priority <- 3
	@DEBUG_VALUE: __NVIC_SetPriority:IRQn <- -1
.Ltmp43:
	.loc	9 1479 45 prologue_end          @ ../../../Library/CMSIS/Include\core_armv8mbl.h:1479:45
	ldr	r2, [r1]
	.loc	9 1479 71 is_stmt 0             @ ../../../Library/CMSIS/Include\core_armv8mbl.h:1479:71
	bics	r2, r0
	movs	r0, #3
	lsls	r0, r0, #30
	.loc	9 1479 104                      @ ../../../Library/CMSIS/Include\core_armv8mbl.h:1479:104
	adds	r0, r2, r0
	.loc	9 1479 31                       @ ../../../Library/CMSIS/Include\core_armv8mbl.h:1479:31
	str	r0, [r1]
.Ltmp44:
	.loc	9 1482 1 is_stmt 1              @ ../../../Library/CMSIS/Include\core_armv8mbl.h:1482:1
	bx	lr
.Ltmp45:
	.p2align	2
@ %bb.1:
	.loc	9 0 1 is_stmt 0                 @ ../../../Library/CMSIS/Include\core_armv8mbl.h:0:1
__arm_cp.11_0:
	.long	3758157088                      @ 0xe000ed20
.Lcpi_end35:
	.size	__arm_cp.11_0, .Lcpi_end35-__arm_cp.11_0
.Lfunc_end11:
	.size	__NVIC_SetPriority, .Lfunc_end11-__NVIC_SetPriority
	.cfi_endproc
	.cantunwind
	.fnend
                                        @ -- End function
	.type	SysTick_Handler.u32Ticks,%object @ @SysTick_Handler.u32Ticks
	.section	.bss.SysTick_Handler.u32Ticks,"aw",%nobits
	.p2align	2
SysTick_Handler.u32Ticks:
	.long	0                               @ 0x0
	.size	SysTick_Handler.u32Ticks, 4

	.hidden	millis_counter                  @ @millis_counter
	.type	millis_counter,%object
	.section	.bss.millis_counter,"aw",%nobits
	.globl	millis_counter
	.p2align	2
millis_counter:
	.long	0                               @ 0x0
	.size	millis_counter, 4

	.type	.Lstr.7,%object                 @ @str.7
	.section	.rodata.str1.1,"aMS",%progbits,1
.Lstr.7:
	.asciz	"+---------------------------------------------+"
	.size	.Lstr.7, 48

	.type	__ARM_use_no_argv,%object       @ @__ARM_use_no_argv
	.section	.ARM.use_no_argv,"aw",%progbits
	.globl	__ARM_use_no_argv
	.p2align	2
__ARM_use_no_argv:
	.long	1                               @ 0x1
	.size	__ARM_use_no_argv, 4

	.globl	__ARM_use_no_argv
	.section	".note.GNU-stack","",%progbits
	.eabi_attribute	30, 1	@ Tag_ABI_optimization_goals
	.ARM_attribute	16, 1	@ Tag_AV_eba