	.text
	.syntax unified
	.eabi_attribute	67, "2.09"	@ Tag_conformance
	.cpu	cortex-m23
	.eabi_attribute	6, 16	@ Tag_CPU_arch
	.eabi_attribute	7, 77	@ Tag_CPU_arch_profile
	.eabi_attribute	8, 0	@ Tag_ARM_ISA_use
	.eabi_attribute	9, 3	@ Tag_THUMB_ISA_use
	.eabi_attribute	34, 0	@ Tag_CPU_unaligned_access
	.eabi_attribute	17, 1	@ Tag_ABI_PCS_GOT_use
	.eabi_attribute	20, 2	@ Tag_ABI_FP_denormal
	.eabi_attribute	21, 0	@ Tag_ABI_FP_exceptions
	.eabi_attribute	23, 1	@ Tag_ABI_FP_number_model
	.eabi_attribute	24, 1	@ Tag_ABI_align_needed
	.eabi_attribute	25, 1	@ Tag_ABI_align_preserved
	.eabi_attribute	38, 1	@ Tag_ABI_FP_16bit_format
	.eabi_attribute	18, 2	@ Tag_ABI_PCS_wchar_t
	.eabi_attribute	26, 1	@ Tag_ABI_enum_size
	.eabi_attribute	14, 0	@ Tag_ABI_PCS_R9_use
	.file	"MAX30102.c"
	.file	1 "C:\\" "Keil_v5\\ARM\\ARMCLANG\\Bin\\..\\include\\stdint.h"
	.file	2 "C:\\Users\\shw26\\OneDrive\\Desktop\\2021\\2021-1\\\354\272\241\354\212\244\355\206\244\353\224\224\354\236\220\354\235\2702\\Nuvoton\\M2351_BSP_v3.00.004\\M2351Series_BSP_CMSIS_V3.00.004\\MyProject\\PulseMonitoring\\Secure" "MAX30102/MAX30102.c"
	.file	3 "C:\\Users\\shw26\\OneDrive\\Desktop\\2021\\2021-1\\\354\272\241\354\212\244\355\206\244\353\224\224\354\236\220\354\235\2702\\Nuvoton\\M2351_BSP_v3.00.004\\M2351Series_BSP_CMSIS_V3.00.004\\MyProject\\PulseMonitoring\\Secure" "../../../Library/Device/Nuvoton/M2351/Include/i2c_reg.h"
	.section	.text.MAX30102_Config,"ax",%progbits
	.hidden	MAX30102_Config                 @ -- Begin function MAX30102_Config
	.globl	MAX30102_Config
	.p2align	2
	.type	MAX30102_Config,%function
	.code	16                              @ @MAX30102_Config
	.thumb_func
MAX30102_Config:
.Lfunc_begin0:
	.loc	2 115 0                         @ MAX30102/MAX30102.c:115:0
	.fnstart
	.cfi_sections .debug_frame
	.cfi_startproc
@ %bb.0:
	.save	{r4, r5, r6, lr}
	push	{r4, r5, r6, lr}
	.cfi_def_cfa_offset 16
	.cfi_offset lr, -4
	.cfi_offset r6, -8
	.cfi_offset r5, -12
	.cfi_offset r4, -16
.Ltmp0:
	@DEBUG_VALUE: MAX30102_Config:ret <- 2
	.loc	2 118 5 prologue_end            @ MAX30102/MAX30102.c:118:5
	ldr	r0, __arm_cp.0_0
	bl	puts
	.loc	2 119 5                         @ MAX30102/MAX30102.c:119:5
	ldr	r0, __arm_cp.0_1
	bl	puts
	.loc	2 120 5                         @ MAX30102/MAX30102.c:120:5
	ldr	r0, __arm_cp.0_2
	bl	puts
	ldr	r4, __arm_cp.0_3
	movs	r5, #87
	movs	r2, #8
	movs	r3, #80
	.loc	2 126 9                         @ MAX30102/MAX30102.c:126:9
	mov	r0, r4
	mov	r1, r5
	bl	I2C_WriteByteOneReg
.Ltmp1:
	@DEBUG_VALUE: MAX30102_Config:ret <- undef
	.loc	2 127 3                         @ MAX30102/MAX30102.c:127:3
	ldr	r0, __arm_cp.0_4
	bl	puts
	movs	r2, #9
	movs	r3, #7
	.loc	2 132 9                         @ MAX30102/MAX30102.c:132:9
	mov	r0, r4
	mov	r1, r5
	bl	I2C_WriteByteOneReg
	@DEBUG_VALUE: MAX30102_Config:ret <- undef
	.loc	2 133 3                         @ MAX30102/MAX30102.c:133:3
	ldr	r0, __arm_cp.0_5
	bl	puts
	movs	r6, #10
	movs	r3, #47
	.loc	2 140 9                         @ MAX30102/MAX30102.c:140:9
	mov	r0, r4
	mov	r1, r5
	mov	r2, r6
	bl	I2C_WriteByteOneReg
	@DEBUG_VALUE: MAX30102_Config:ret <- undef
	.loc	2 141 3                         @ MAX30102/MAX30102.c:141:3
	ldr	r0, __arm_cp.0_6
	bl	puts
	movs	r2, #12
	.loc	2 147 9                         @ MAX30102/MAX30102.c:147:9
	mov	r0, r4
	mov	r1, r5
	mov	r3, r6
	bl	I2C_WriteByteOneReg
	@DEBUG_VALUE: MAX30102_Config:ret <- undef
	.loc	2 148 3                         @ MAX30102/MAX30102.c:148:3
	ldr	r0, __arm_cp.0_7
	bl	puts
	movs	r2, #13
	movs	r3, #31
	.loc	2 150 9                         @ MAX30102/MAX30102.c:150:9
	mov	r0, r4
	mov	r1, r5
	bl	I2C_WriteByteOneReg
	@DEBUG_VALUE: MAX30102_Config:ret <- undef
	.loc	2 151 3                         @ MAX30102/MAX30102.c:151:3
	adr	r0, .LCPI0_8
	bl	puts
	movs	r2, #17
	movs	r3, #33
	.loc	2 156 9                         @ MAX30102/MAX30102.c:156:9
	mov	r0, r4
	mov	r1, r5
	bl	I2C_WriteByteOneReg
	mov	r4, r0
.Ltmp2:
	@DEBUG_VALUE: MAX30102_Config:ret <- $r4
	.loc	2 157 3                         @ MAX30102/MAX30102.c:157:3
	adr	r0, .LCPI0_9
	bl	puts
	.loc	2 163 7                         @ MAX30102/MAX30102.c:163:7
	cbz	r4, .LBB0_2
.Ltmp3:
@ %bb.1:
	@DEBUG_VALUE: MAX30102_Config:ret <- $r4
	.loc	2 164 4                         @ MAX30102/MAX30102.c:164:4
	ldr	r0, __arm_cp.0_10
	bl	puts
.Ltmp4:
.LBB0_2:
	@DEBUG_VALUE: MAX30102_Config:ret <- $r4
	.loc	2 166 3                         @ MAX30102/MAX30102.c:166:3
	ldr	r0, __arm_cp.0_11
	bl	puts
	.loc	2 168 1                         @ MAX30102/MAX30102.c:168:1
	pop	{r4, r5, r6, pc}
.Ltmp5:
	.p2align	2
@ %bb.3:
	.loc	2 0 1 is_stmt 0                 @ MAX30102/MAX30102.c:0:1
__arm_cp.0_0:
	.long	.Lstr
.Lcpi_end0:
	.size	__arm_cp.0_0, .Lcpi_end0-__arm_cp.0_0
__arm_cp.0_1:
	.long	.Lstr.13
.Lcpi_end1:
	.size	__arm_cp.0_1, .Lcpi_end1-__arm_cp.0_1
__arm_cp.0_2:
	.long	.Lstr.14
.Lcpi_end2:
	.size	__arm_cp.0_2, .Lcpi_end2-__arm_cp.0_2
__arm_cp.0_3:
	.long	1074266112                      @ 0x40080000
.Lcpi_end3:
	.size	__arm_cp.0_3, .Lcpi_end3-__arm_cp.0_3
__arm_cp.0_4:
	.long	.Lstr.15
.Lcpi_end4:
	.size	__arm_cp.0_4, .Lcpi_end4-__arm_cp.0_4
__arm_cp.0_5:
	.long	.Lstr.16
.Lcpi_end5:
	.size	__arm_cp.0_5, .Lcpi_end5-__arm_cp.0_5
__arm_cp.0_6:
	.long	.Lstr.17
.Lcpi_end6:
	.size	__arm_cp.0_6, .Lcpi_end6-__arm_cp.0_6
__arm_cp.0_7:
	.long	.Lstr.18
.Lcpi_end7:
	.size	__arm_cp.0_7, .Lcpi_end7-__arm_cp.0_7
.LCPI0_8:
.Lstr.19:
	.asciz	"|       [5] MAX30102_LED2_AMP    .....        |"
.LCPI0_9:
.Lstr.20:
	.asciz	"|       [6] MAX31012_MLED_CTRL1  .....        |"
__arm_cp.0_10:
	.long	.Lstr.22
.Lcpi_end8:
	.size	__arm_cp.0_10, .Lcpi_end8-__arm_cp.0_10
__arm_cp.0_11:
	.long	.Lstr.21
.Lcpi_end9:
	.size	__arm_cp.0_11, .Lcpi_end9-__arm_cp.0_11
.Lfunc_end0:
	.size	MAX30102_Config, .Lfunc_end0-MAX30102_Config
	.cfi_endproc
	.cantunwind
	.fnend
                                        @ -- End function
	.section	.text.checkForBeat,"ax",%progbits
	.hidden	checkForBeat                    @ -- Begin function checkForBeat
	.globl	checkForBeat
	.p2align	2
	.type	checkForBeat,%function
	.code	16                              @ @checkForBeat
	.thumb_func
checkForBeat:
.Lfunc_begin1:
	.loc	2 176 0 is_stmt 1               @ MAX30102/MAX30102.c:176:0
	.fnstart
	.cfi_startproc
@ %bb.0:
	@DEBUG_VALUE: checkForBeat:sample <- $r0
	.save	{r4, r5, r6, lr}
	push	{r4, r5, r6, lr}
	.cfi_def_cfa_offset 16
	.cfi_offset lr, -4
	.cfi_offset r6, -8
	.cfi_offset r5, -12
	.cfi_offset r4, -16
	mov	r4, r0
.Ltmp6:
	@DEBUG_VALUE: checkForBeat:beatDetected <- 0
	@DEBUG_VALUE: checkForBeat:sample <- $r4
	.loc	2 180 27 prologue_end           @ MAX30102/MAX30102.c:180:27
	ldr	r5, __arm_cp.1_0
	ldrh	r0, [r5]
	.loc	2 180 25 is_stmt 0              @ MAX30102/MAX30102.c:180:25
	ldr	r6, __arm_cp.1_1
	strh	r0, [r6]
	.loc	2 187 26 is_stmt 1              @ MAX30102/MAX30102.c:187:26
	uxth	r1, r4
	ldr	r0, __arm_cp.1_2
	bl	averageDCEstimator
	.loc	2 187 24 is_stmt 0              @ MAX30102/MAX30102.c:187:24
	ldr	r1, __arm_cp.1_3
	strh	r0, [r1]
	.loc	2 188 43 is_stmt 1              @ MAX30102/MAX30102.c:188:43
	subs	r0, r4, r0
	.loc	2 188 26 is_stmt 0              @ MAX30102/MAX30102.c:188:26
	sxth	r0, r0
	bl	lowPassFIRFilter
	.loc	2 188 24                        @ MAX30102/MAX30102.c:188:24
	strh	r0, [r5]
.Ltmp7:
	.loc	2 192 8 is_stmt 1               @ MAX30102/MAX30102.c:192:8
	ldrh	r1, [r6]
	sxth	r2, r1
	.loc	2 192 35 is_stmt 0              @ MAX30102/MAX30102.c:192:35
	mov	r1, r2
	bics	r1, r0
.Ltmp8:
	.loc	2 192 7                         @ MAX30102/MAX30102.c:192:7
	bmi	.LBB1_2
.Ltmp9:
@ %bb.1:
	@DEBUG_VALUE: checkForBeat:sample <- $r4
	@DEBUG_VALUE: checkForBeat:beatDetected <- 0
	.loc	2 0 7                           @ MAX30102/MAX30102.c:0:7
	movs	r1, #0
	b	.LBB1_4
.Ltmp10:
.LBB1_2:
	@DEBUG_VALUE: checkForBeat:sample <- $r4
	@DEBUG_VALUE: checkForBeat:beatDetected <- 0
	.loc	2 198 18 is_stmt 1              @ MAX30102/MAX30102.c:198:18
	ldr	r3, __arm_cp.1_4
	movs	r1, #1
	strh	r1, [r3]
	.loc	2 199 18                        @ MAX30102/MAX30102.c:199:18
	ldr	r4, __arm_cp.1_5
.Ltmp11:
	.loc	2 0 18 is_stmt 0                @ MAX30102/MAX30102.c:0:18
	movs	r3, #0
	.loc	2 199 18                        @ MAX30102/MAX30102.c:199:18
	strh	r3, [r4]
	.loc	2 195 17 is_stmt 1              @ MAX30102/MAX30102.c:195:17
	ldr	r4, __arm_cp.1_6
.Ltmp12:
	.loc	2 205 10                        @ MAX30102/MAX30102.c:205:10
	ldrh	r5, [r4]
.Ltmp13:
	.loc	2 200 22                        @ MAX30102/MAX30102.c:200:22
	strh	r3, [r4]
.Ltmp14:
	.loc	2 205 10                        @ MAX30102/MAX30102.c:205:10
	sxth	r4, r5
.Ltmp15:
	.loc	2 195 15                        @ MAX30102/MAX30102.c:195:15
	ldr	r5, __arm_cp.1_7
	strh	r4, [r5]
	.loc	2 196 17                        @ MAX30102/MAX30102.c:196:17
	ldr	r5, __arm_cp.1_8
.Ltmp16:
	.loc	2 205 22                        @ MAX30102/MAX30102.c:205:22
	ldrh	r5, [r5]
	sxth	r5, r5
.Ltmp17:
	.loc	2 196 15                        @ MAX30102/MAX30102.c:196:15
	ldr	r6, __arm_cp.1_9
	strh	r5, [r6]
.Ltmp18:
	.loc	2 205 38                        @ MAX30102/MAX30102.c:205:38
	subs	r4, r4, r5
	subs	r4, #21
	ldr	r5, __arm_cp.1_10
	cmp	r4, r5
	blo	.LBB1_4
.Ltmp19:
@ %bb.3:
	@DEBUG_VALUE: checkForBeat:beatDetected <- 0
	mov	r1, r3
.Ltmp20:
.LBB1_4:
	@DEBUG_VALUE: checkForBeat:beatDetected <- 0
	@DEBUG_VALUE: checkForBeat:beatDetected <- $r1
	.loc	2 213 7                         @ MAX30102/MAX30102.c:213:7
	cmp	r0, #0
	bgt	.LBB1_7
.Ltmp21:
@ %bb.5:
	@DEBUG_VALUE: checkForBeat:beatDetected <- $r1
	cmp	r2, #1
	blt	.LBB1_7
.Ltmp22:
@ %bb.6:
	@DEBUG_VALUE: checkForBeat:beatDetected <- $r1
	.loc	2 216 18                        @ MAX30102/MAX30102.c:216:18
	ldr	r3, __arm_cp.1_5
	movs	r4, #1
	strh	r4, [r3]
	.loc	2 215 18                        @ MAX30102/MAX30102.c:215:18
	ldr	r3, __arm_cp.1_4
	movs	r4, #0
	strh	r4, [r3]
	.loc	2 217 22                        @ MAX30102/MAX30102.c:217:22
	ldr	r3, __arm_cp.1_8
	strh	r4, [r3]
.Ltmp23:
.LBB1_7:
	@DEBUG_VALUE: checkForBeat:beatDetected <- $r1
	.loc	2 221 44                        @ MAX30102/MAX30102.c:221:44
	cmp	r0, r2
	bgt	.LBB1_9
.Ltmp24:
@ %bb.8:
	@DEBUG_VALUE: checkForBeat:beatDetected <- $r1
	.loc	2 0 44 is_stmt 0                @ MAX30102/MAX30102.c:0:44
	movs	r3, #0
	b	.LBB1_10
.Ltmp25:
.LBB1_9:
	@DEBUG_VALUE: checkForBeat:beatDetected <- $r1
	movs	r3, #1
.Ltmp26:
.LBB1_10:
	@DEBUG_VALUE: checkForBeat:beatDetected <- $r1
	.loc	2 221 7                         @ MAX30102/MAX30102.c:221:7
	ldr	r4, __arm_cp.1_4
	ldrh	r4, [r4]
.Ltmp27:
	.loc	2 221 7                         @ MAX30102/MAX30102.c:221:7
	tst	r4, r3
	beq	.LBB1_12
.Ltmp28:
@ %bb.11:
	@DEBUG_VALUE: checkForBeat:beatDetected <- $r1
	.loc	2 223 22 is_stmt 1              @ MAX30102/MAX30102.c:223:22
	ldr	r3, __arm_cp.1_6
	strh	r0, [r3]
.Ltmp29:
.LBB1_12:
	@DEBUG_VALUE: checkForBeat:beatDetected <- $r1
	.loc	2 227 44                        @ MAX30102/MAX30102.c:227:44
	cmp	r0, r2
	blt	.LBB1_14
.Ltmp30:
@ %bb.13:
	@DEBUG_VALUE: checkForBeat:beatDetected <- $r1
	.loc	2 0 44 is_stmt 0                @ MAX30102/MAX30102.c:0:44
	movs	r2, #0
	b	.LBB1_15
.Ltmp31:
.LBB1_14:
	@DEBUG_VALUE: checkForBeat:beatDetected <- $r1
	movs	r2, #1
.Ltmp32:
.LBB1_15:
	@DEBUG_VALUE: checkForBeat:beatDetected <- $r1
	.loc	2 227 7                         @ MAX30102/MAX30102.c:227:7
	ldr	r3, __arm_cp.1_5
	ldrh	r3, [r3]
.Ltmp33:
	.loc	2 227 7                         @ MAX30102/MAX30102.c:227:7
	tst	r3, r2
	beq	.LBB1_17
.Ltmp34:
@ %bb.16:
	@DEBUG_VALUE: checkForBeat:beatDetected <- $r1
	.loc	2 229 22 is_stmt 1              @ MAX30102/MAX30102.c:229:22
	ldr	r2, __arm_cp.1_8
	strh	r0, [r2]
.Ltmp35:
.LBB1_17:
	@DEBUG_VALUE: checkForBeat:beatDetected <- $r1
	.loc	2 232 3                         @ MAX30102/MAX30102.c:232:3
	mov	r0, r1
	pop	{r4, r5, r6, pc}
.Ltmp36:
	.p2align	2
@ %bb.18:
	.loc	2 0 3 is_stmt 0                 @ MAX30102/MAX30102.c:0:3
__arm_cp.1_0:
	.long	IR_AC_Signal_Current
.Lcpi_end10:
	.size	__arm_cp.1_0, .Lcpi_end10-__arm_cp.1_0
__arm_cp.1_1:
	.long	IR_AC_Signal_Previous
.Lcpi_end11:
	.size	__arm_cp.1_1, .Lcpi_end11-__arm_cp.1_1
__arm_cp.1_2:
	.long	ir_avg_reg
.Lcpi_end12:
	.size	__arm_cp.1_2, .Lcpi_end12-__arm_cp.1_2
__arm_cp.1_3:
	.long	IR_Average_Estimated
.Lcpi_end13:
	.size	__arm_cp.1_3, .Lcpi_end13-__arm_cp.1_3
__arm_cp.1_4:
	.long	positiveEdge
.Lcpi_end14:
	.size	__arm_cp.1_4, .Lcpi_end14-__arm_cp.1_4
__arm_cp.1_5:
	.long	negativeEdge
.Lcpi_end15:
	.size	__arm_cp.1_5, .Lcpi_end15-__arm_cp.1_5
__arm_cp.1_6:
	.long	IR_AC_Signal_max
.Lcpi_end16:
	.size	__arm_cp.1_6, .Lcpi_end16-__arm_cp.1_6
__arm_cp.1_7:
	.long	IR_AC_Max
.Lcpi_end17:
	.size	__arm_cp.1_7, .Lcpi_end17-__arm_cp.1_7
__arm_cp.1_8:
	.long	IR_AC_Signal_min
.Lcpi_end18:
	.size	__arm_cp.1_8, .Lcpi_end18-__arm_cp.1_8
__arm_cp.1_9:
	.long	IR_AC_Min
.Lcpi_end19:
	.size	__arm_cp.1_9, .Lcpi_end19-__arm_cp.1_9
__arm_cp.1_10:
	.long	979                             @ 0x3d3
.Lcpi_end20:
	.size	__arm_cp.1_10, .Lcpi_end20-__arm_cp.1_10
.Lfunc_end1:
	.size	checkForBeat, .Lfunc_end1-checkForBeat
	.cfi_endproc
	.cantunwind
	.fnend
                                        @ -- End function
	.section	.text.averageDCEstimator,"ax",%progbits
	.hidden	averageDCEstimator              @ -- Begin function averageDCEstimator
	.globl	averageDCEstimator
	.p2align	1
	.type	averageDCEstimator,%function
	.code	16                              @ @averageDCEstimator
	.thumb_func
averageDCEstimator:
.Lfunc_begin2:
	.loc	2 237 0 is_stmt 1               @ MAX30102/MAX30102.c:237:0
	.fnstart
	.cfi_startproc
@ %bb.0:
	@DEBUG_VALUE: averageDCEstimator:p <- $r0
	@DEBUG_VALUE: averageDCEstimator:p <- $r0
	@DEBUG_VALUE: averageDCEstimator:x <- $r1
	@DEBUG_VALUE: averageDCEstimator:x <- $r1
	.loc	2 238 30 prologue_end           @ MAX30102/MAX30102.c:238:30
	ldr	r2, [r0]
	.loc	2 238 21 is_stmt 0              @ MAX30102/MAX30102.c:238:21
	lsls	r1, r1, #15
.Ltmp37:
	@DEBUG_VALUE: averageDCEstimator:x <- [DW_OP_LLVM_entry_value 1] $r1
	.loc	2 238 28                        @ MAX30102/MAX30102.c:238:28
	subs	r1, r1, r2
	.loc	2 238 34                        @ MAX30102/MAX30102.c:238:34
	asrs	r1, r1, #4
	.loc	2 238 6                         @ MAX30102/MAX30102.c:238:6
	adds	r1, r1, r2
	str	r1, [r0]
	.loc	2 239 14 is_stmt 1              @ MAX30102/MAX30102.c:239:14
	lsrs	r0, r1, #15
.Ltmp38:
	@DEBUG_VALUE: averageDCEstimator:p <- [DW_OP_LLVM_entry_value 1] $r0
	.loc	2 239 3 is_stmt 0               @ MAX30102/MAX30102.c:239:3
	sxth	r0, r0
	bx	lr
.Ltmp39:
.Lfunc_end2:
	.size	averageDCEstimator, .Lfunc_end2-averageDCEstimator
	.cfi_endproc
	.cantunwind
	.fnend
                                        @ -- End function
	.section	.text.lowPassFIRFilter,"ax",%progbits
	.hidden	lowPassFIRFilter                @ -- Begin function lowPassFIRFilter
	.globl	lowPassFIRFilter
	.p2align	2
	.type	lowPassFIRFilter,%function
	.code	16                              @ @lowPassFIRFilter
	.thumb_func
lowPassFIRFilter:
.Lfunc_begin3:
	.loc	2 244 0 is_stmt 1               @ MAX30102/MAX30102.c:244:0
	.fnstart
	.cfi_startproc
@ %bb.0:
	@DEBUG_VALUE: lowPassFIRFilter:din <- $r0
	@DEBUG_VALUE: lowPassFIRFilter:din <- $r0
	.save	{r4, r5, r6, r7, lr}
	push	{r4, r5, r6, r7, lr}
	.cfi_def_cfa_offset 20
	.cfi_offset lr, -4
	.cfi_offset r7, -8
	.cfi_offset r6, -12
	.cfi_offset r5, -16
	.cfi_offset r4, -20
	.pad	#4
	sub	sp, #4
	.cfi_def_cfa_offset 24
.Ltmp40:
	.loc	2 245 8 prologue_end            @ MAX30102/MAX30102.c:245:8
	ldr	r1, __arm_cp.3_0
	ldrb	r7, [r1]
	.loc	2 245 3 is_stmt 0               @ MAX30102/MAX30102.c:245:3
	lsls	r1, r7, #1
	ldr	r2, __arm_cp.3_1
	.loc	2 245 16                        @ MAX30102/MAX30102.c:245:16
	strh	r0, [r2, r1]
	.loc	2 247 55 is_stmt 1              @ MAX30102/MAX30102.c:247:55
	mov	r0, r7
.Ltmp41:
	@DEBUG_VALUE: lowPassFIRFilter:din <- [DW_OP_LLVM_entry_value 1] $r0
	adds	r0, #21
	.loc	2 247 36 is_stmt 0              @ MAX30102/MAX30102.c:247:36
	lsls	r0, r0, #27
	lsrs	r0, r0, #26
	ldrsh	r1, [r2, r0]
	.loc	2 247 15                        @ MAX30102/MAX30102.c:247:15
	movw	r0, #4096
	bl	mul16
	mov	r4, r0
.Ltmp42:
	@DEBUG_VALUE: i <- 0
	@DEBUG_VALUE: lowPassFIRFilter:z <- $r4
	.loc	2 0 0                           @ MAX30102/MAX30102.c:0:0
	mov	r6, r7
	adds	r6, #10
	movs	r5, #0
	str	r7, [sp]                        @ 4-byte Spill
.Ltmp43:
.LBB3_1:                                @ =>This Inner Loop Header: Depth=1
	@DEBUG_VALUE: lowPassFIRFilter:z <- $r4
	@DEBUG_VALUE: lowPassFIRFilter:din <- [DW_OP_LLVM_entry_value 1] $r0
	@DEBUG_VALUE: lowPassFIRFilter:z <- $r4
	@DEBUG_VALUE: i <- undef
	.loc	2 251 30 is_stmt 1              @ MAX30102/MAX30102.c:251:30
	lsls	r0, r7, #27
	lsrs	r0, r0, #26
	ldr	r2, __arm_cp.3_1
	ldrh	r0, [r2, r0]
	.loc	2 251 58 is_stmt 0              @ MAX30102/MAX30102.c:251:58
	lsls	r1, r6, #27
	lsrs	r1, r1, #26
	ldrh	r1, [r2, r1]
	.loc	2 251 56                        @ MAX30102/MAX30102.c:251:56
	adds	r0, r1, r0
	.loc	2 251 10                        @ MAX30102/MAX30102.c:251:10
	sxth	r1, r0
	.loc	2 251 16                        @ MAX30102/MAX30102.c:251:16
	ldr	r0, __arm_cp.3_2
	ldrsh	r0, [r0, r5]
	.loc	2 251 10                        @ MAX30102/MAX30102.c:251:10
	bl	mul16
	.loc	2 251 7                         @ MAX30102/MAX30102.c:251:7
	adds	r4, r0, r4
.Ltmp44:
	@DEBUG_VALUE: lowPassFIRFilter:z <- $r4
	.loc	2 249 26 is_stmt 1              @ MAX30102/MAX30102.c:249:26
	adds	r6, r6, #1
	subs	r7, r7, #1
.Ltmp45:
	@DEBUG_VALUE: i <- [DW_OP_plus_uconst 1, DW_OP_stack_value] undef
	adds	r5, r5, #2
.Ltmp46:
	.loc	2 249 3 is_stmt 0               @ MAX30102/MAX30102.c:249:3
	cmp	r5, #22
	bne	.LBB3_1
.Ltmp47:
@ %bb.2:
	@DEBUG_VALUE: lowPassFIRFilter:z <- $r4
	@DEBUG_VALUE: lowPassFIRFilter:din <- [DW_OP_LLVM_entry_value 1] $r0
	@DEBUG_VALUE: lowPassFIRFilter:z <- $r4
	.loc	2 254 9 is_stmt 1               @ MAX30102/MAX30102.c:254:9
	ldr	r0, [sp]                        @ 4-byte Reload
	adds	r0, r0, #1
	movs	r1, #31
	.loc	2 255 10                        @ MAX30102/MAX30102.c:255:10
	ands	r1, r0
	ldr	r0, __arm_cp.3_0
	strb	r1, [r0]
	.loc	2 257 12                        @ MAX30102/MAX30102.c:257:12
	lsrs	r0, r4, #15
	.loc	2 257 3 is_stmt 0               @ MAX30102/MAX30102.c:257:3
	sxth	r0, r0
	add	sp, #4
	pop	{r4, r5, r6, r7, pc}
.Ltmp48:
	.p2align	2
@ %bb.3:
	.loc	2 0 3                           @ MAX30102/MAX30102.c:0:3
__arm_cp.3_0:
	.long	offset
.Lcpi_end21:
	.size	__arm_cp.3_0, .Lcpi_end21-__arm_cp.3_0
__arm_cp.3_1:
	.long	cbuf
.Lcpi_end22:
	.size	__arm_cp.3_1, .Lcpi_end22-__arm_cp.3_1
__arm_cp.3_2:
	.long	FIRCoeffs
.Lcpi_end23:
	.size	__arm_cp.3_2, .Lcpi_end23-__arm_cp.3_2
.Lfunc_end3:
	.size	lowPassFIRFilter, .Lfunc_end3-lowPassFIRFilter
	.cfi_endproc
	.cantunwind
	.fnend
                                        @ -- End function
	.section	.text.mul16,"ax",%progbits
	.hidden	mul16                           @ -- Begin function mul16
	.globl	mul16
	.p2align	1
	.type	mul16,%function
	.code	16                              @ @mul16
	.thumb_func
mul16:
.Lfunc_begin4:
	.loc	2 262 0 is_stmt 1               @ MAX30102/MAX30102.c:262:0
	.fnstart
	.cfi_startproc
@ %bb.0:
	@DEBUG_VALUE: mul16:x <- $r0
	@DEBUG_VALUE: mul16:x <- $r0
	@DEBUG_VALUE: mul16:y <- $r1
	@DEBUG_VALUE: mul16:y <- $r1
	.loc	2 263 18 prologue_end           @ MAX30102/MAX30102.c:263:18
	muls	r0, r1, r0
.Ltmp49:
	@DEBUG_VALUE: mul16:x <- [DW_OP_LLVM_entry_value 1] $r0
	.loc	2 263 3 is_stmt 0               @ MAX30102/MAX30102.c:263:3
	bx	lr
.Ltmp50:
.Lfunc_end4:
	.size	mul16, .Lfunc_end4-mul16
	.cfi_endproc
	.cantunwind
	.fnend
                                        @ -- End function
	.section	.text.MAX30102_GetFIFO,"ax",%progbits
	.hidden	MAX30102_GetFIFO                @ -- Begin function MAX30102_GetFIFO
	.globl	MAX30102_GetFIFO
	.p2align	2
	.type	MAX30102_GetFIFO,%function
	.code	16                              @ @MAX30102_GetFIFO
	.thumb_func
MAX30102_GetFIFO:
.Lfunc_begin5:
	.loc	2 269 0 is_stmt 1               @ MAX30102/MAX30102.c:269:0
	.fnstart
	.cfi_startproc
@ %bb.0:
	.save	{r4, lr}
	push	{r4, lr}
	.cfi_def_cfa_offset 8
	.cfi_offset lr, -4
	.cfi_offset r4, -8
	.pad	#8
	sub	sp, #8
	.cfi_def_cfa_offset 16
	movs	r0, #6
.Ltmp51:
	.loc	2 271 3 prologue_end            @ MAX30102/MAX30102.c:271:3
	str	r0, [sp]
	ldr	r0, __arm_cp.5_0
	movs	r1, #87
	movs	r2, #7
	ldr	r4, __arm_cp.5_1
	mov	r3, r4
	bl	I2C_ReadMultiBytesOneReg
	.loc	2 272 13                        @ MAX30102/MAX30102.c:272:13
	ldrb	r0, [r4]
	.loc	2 272 27 is_stmt 0              @ MAX30102/MAX30102.c:272:27
	lsls	r0, r0, #16
	.loc	2 272 34                        @ MAX30102/MAX30102.c:272:34
	ldrb	r1, [r4, #1]
	.loc	2 272 48                        @ MAX30102/MAX30102.c:272:48
	lsls	r1, r1, #8
	.loc	2 272 32                        @ MAX30102/MAX30102.c:272:32
	adds	r0, r1, r0
	.loc	2 272 53                        @ MAX30102/MAX30102.c:272:53
	ldrb	r1, [r4, #2]
	.loc	2 272 52                        @ MAX30102/MAX30102.c:272:52
	adds	r0, r0, r1
	.loc	2 272 10                        @ MAX30102/MAX30102.c:272:10
	ldr	r1, __arm_cp.5_2
	str	r0, [r1]
	.loc	2 273 15 is_stmt 1              @ MAX30102/MAX30102.c:273:15
	ldrb	r0, [r4, #3]
	.loc	2 273 29 is_stmt 0              @ MAX30102/MAX30102.c:273:29
	lsls	r0, r0, #16
	.loc	2 273 36                        @ MAX30102/MAX30102.c:273:36
	ldrb	r1, [r4, #4]
	.loc	2 273 50                        @ MAX30102/MAX30102.c:273:50
	lsls	r1, r1, #8
	.loc	2 273 34                        @ MAX30102/MAX30102.c:273:34
	adds	r0, r1, r0
	.loc	2 273 55                        @ MAX30102/MAX30102.c:273:55
	ldrb	r1, [r4, #5]
	.loc	2 273 54                        @ MAX30102/MAX30102.c:273:54
	adds	r0, r0, r1
	.loc	2 273 12                        @ MAX30102/MAX30102.c:273:12
	ldr	r1, __arm_cp.5_3
	str	r0, [r1]
	.loc	2 281 1 is_stmt 1               @ MAX30102/MAX30102.c:281:1
	add	sp, #8
	pop	{r4, pc}
.Ltmp52:
	.p2align	2
@ %bb.1:
	.loc	2 0 1 is_stmt 0                 @ MAX30102/MAX30102.c:0:1
__arm_cp.5_0:
	.long	1074266112                      @ 0x40080000
.Lcpi_end24:
	.size	__arm_cp.5_0, .Lcpi_end24-__arm_cp.5_0
__arm_cp.5_1:
	.long	au8RDataBuf
.Lcpi_end25:
	.size	__arm_cp.5_1, .Lcpi_end25-__arm_cp.5_1
__arm_cp.5_2:
	.long	hr_val
.Lcpi_end26:
	.size	__arm_cp.5_2, .Lcpi_end26-__arm_cp.5_2
__arm_cp.5_3:
	.long	spo2_val
.Lcpi_end27:
	.size	__arm_cp.5_3, .Lcpi_end27-__arm_cp.5_3
.Lfunc_end5:
	.size	MAX30102_GetFIFO, .Lfunc_end5-MAX30102_GetFIFO
	.cfi_endproc
	.cantunwind
	.fnend
                                        @ -- End function
	.section	.text.MAX30102_ComputeBPM,"ax",%progbits
	.hidden	MAX30102_ComputeBPM             @ -- Begin function MAX30102_ComputeBPM
	.globl	MAX30102_ComputeBPM
	.p2align	2
	.type	MAX30102_ComputeBPM,%function
	.code	16                              @ @MAX30102_ComputeBPM
	.thumb_func
MAX30102_ComputeBPM:
.Lfunc_begin6:
	.loc	2 285 0 is_stmt 1               @ MAX30102/MAX30102.c:285:0
	.fnstart
	.cfi_startproc
@ %bb.0:
	.save	{r4, r5, r6, r7, lr}
	push	{r4, r5, r6, r7, lr}
	.cfi_def_cfa_offset 20
	.cfi_offset lr, -4
	.cfi_offset r7, -8
	.cfi_offset r6, -12
	.cfi_offset r5, -16
	.cfi_offset r4, -20
	.pad	#4
	sub	sp, #4
	.cfi_def_cfa_offset 24
.Ltmp53:
	.loc	2 290 3 prologue_end            @ MAX30102/MAX30102.c:290:3
	bl	MAX30102_GetFIFO
	.loc	2 291 19                        @ MAX30102/MAX30102.c:291:19
	ldr	r0, __arm_cp.6_0
	ldr	r4, [r0]
.Ltmp54:
	@DEBUG_VALUE: MAX30102_ComputeBPM:irValue <- $r4
	.loc	2 293 7                         @ MAX30102/MAX30102.c:293:7
	mov	r0, r4
	bl	checkForBeat
.Ltmp55:
	.loc	2 293 7 is_stmt 0               @ MAX30102/MAX30102.c:293:7
	cmp	r0, #1
	bne	.LBB6_6
.Ltmp56:
@ %bb.1:
	@DEBUG_VALUE: MAX30102_ComputeBPM:irValue <- $r4
	.loc	2 298 14 is_stmt 1              @ MAX30102/MAX30102.c:298:14
	ldr	r0, __arm_cp.6_1
	ldr	r1, [r0]
	.loc	2 298 31 is_stmt 0              @ MAX30102/MAX30102.c:298:31
	ldr	r2, __arm_cp.6_2
	ldr	r3, [r2]
	.loc	2 299 14 is_stmt 1              @ MAX30102/MAX30102.c:299:14
	ldr	r0, [r0]
	.loc	2 299 12 is_stmt 0              @ MAX30102/MAX30102.c:299:12
	str	r0, [r2]
	.loc	2 298 29 is_stmt 1              @ MAX30102/MAX30102.c:298:29
	subs	r0, r1, r3
	.loc	2 298 43 is_stmt 0              @ MAX30102/MAX30102.c:298:43
	ldr	r1, __arm_cp.6_3
	ldr	r1, [r1]
	.loc	2 298 41                        @ MAX30102/MAX30102.c:298:41
	subs	r0, r0, r1
.Ltmp57:
	@DEBUG_VALUE: MAX30102_ComputeBPM:delta <- $r0
	.loc	2 301 28 is_stmt 1              @ MAX30102/MAX30102.c:301:28
	bl	__aeabi_i2d
.Ltmp58:
	.loc	2 0 28 is_stmt 0                @ MAX30102/MAX30102.c:0:28
	movs	r5, #0
	ldr	r3, __arm_cp.6_4
	.loc	2 301 34                        @ MAX30102/MAX30102.c:301:34
	mov	r2, r5
	bl	__aeabi_ddiv
	mov	r2, r0
	mov	r3, r1
	ldr	r1, __arm_cp.6_5
	.loc	2 301 25                        @ MAX30102/MAX30102.c:301:25
	mov	r0, r5
	bl	__aeabi_ddiv
	.loc	2 301 22                        @ MAX30102/MAX30102.c:301:22
	bl	__aeabi_d2f
	mov	r6, r0
	.loc	2 301 20                        @ MAX30102/MAX30102.c:301:20
	ldr	r0, __arm_cp.6_6
	str	r6, [r0]
	ldr	r1, __arm_cp.6_7
.Ltmp59:
	.loc	2 303 24 is_stmt 1              @ MAX30102/MAX30102.c:303:24
	mov	r0, r6
	bl	__aeabi_fcmpge
	.loc	2 303 30 is_stmt 0              @ MAX30102/MAX30102.c:303:30
	cbnz	r0, .LBB6_6
.Ltmp60:
@ %bb.2:
	@DEBUG_VALUE: MAX30102_ComputeBPM:irValue <- $r4
	.loc	2 0 30                          @ MAX30102/MAX30102.c:0:30
	ldr	r1, __arm_cp.6_8
	.loc	2 303 30                        @ MAX30102/MAX30102.c:303:30
	mov	r0, r6
	bl	__aeabi_fcmple
	cbnz	r0, .LBB6_6
.Ltmp61:
@ %bb.3:
	@DEBUG_VALUE: MAX30102_ComputeBPM:irValue <- $r4
	.loc	2 305 27 is_stmt 1              @ MAX30102/MAX30102.c:305:27
	mov	r0, r6
	bl	__aeabi_f2iz
	.loc	2 305 21 is_stmt 0              @ MAX30102/MAX30102.c:305:21
	ldr	r2, __arm_cp.6_9
	ldr	r3, [r2]
	.loc	2 305 7                         @ MAX30102/MAX30102.c:305:7
	lsls	r6, r3, #2
	ldr	r1, __arm_cp.6_10
	.loc	2 305 25                        @ MAX30102/MAX30102.c:305:25
	str	r0, [r1, r6]
	.loc	2 309 15 is_stmt 1              @ MAX30102/MAX30102.c:309:15
	ldr	r0, __arm_cp.6_11
	str	r5, [r0]
	.loc	2 305 21                        @ MAX30102/MAX30102.c:305:21
	adds	r3, r3, #1
	.loc	2 306 16                        @ MAX30102/MAX30102.c:306:16
	asrs	r6, r3, #31
	lsrs	r6, r6, #30
	adds	r6, r3, r6
	movs	r7, #3
	bics	r6, r7
	subs	r3, r3, r6
	str	r3, [r2]
.Ltmp62:
	@DEBUG_VALUE: MAX30102_ComputeBPM:i <- 0
	.loc	2 0 0 is_stmt 0                 @ MAX30102/MAX30102.c:0:0
	mov	r2, r5
.Ltmp63:
.LBB6_4:                                @ =>This Inner Loop Header: Depth=1
	@DEBUG_VALUE: MAX30102_ComputeBPM:irValue <- $r4
	@DEBUG_VALUE: MAX30102_ComputeBPM:i <- undef
	.loc	2 311 20 is_stmt 1              @ MAX30102/MAX30102.c:311:20
	ldr	r3, [r1, r5]
	.loc	2 311 17 is_stmt 0              @ MAX30102/MAX30102.c:311:17
	adds	r2, r2, r3
.Ltmp64:
	@DEBUG_VALUE: MAX30102_ComputeBPM:i <- [DW_OP_plus_uconst 1, DW_OP_stack_value] undef
	.loc	2 310 22 is_stmt 1              @ MAX30102/MAX30102.c:310:22
	adds	r5, r5, #4
.Ltmp65:
	.loc	2 310 7 is_stmt 0               @ MAX30102/MAX30102.c:310:7
	cmp	r5, #16
	bne	.LBB6_4
.Ltmp66:
@ %bb.5:
	@DEBUG_VALUE: MAX30102_ComputeBPM:irValue <- $r4
	.loc	2 312 15 is_stmt 1              @ MAX30102/MAX30102.c:312:15
	asrs	r1, r2, #31
	lsrs	r1, r1, #30
	adds	r1, r2, r1
	asrs	r1, r1, #2
	str	r1, [r0]
.Ltmp67:
.LBB6_6:
	@DEBUG_VALUE: MAX30102_ComputeBPM:irValue <- $r4
	.loc	2 316 2                         @ MAX30102/MAX30102.c:316:2
	adr	r0, .LCPI6_12
	mov	r1, r4
	bl	__2printf
	.loc	2 317 23                        @ MAX30102/MAX30102.c:317:23
	ldr	r0, __arm_cp.6_6
	ldr	r0, [r0]
	bl	__aeabi_f2d
	mov	r2, r0
	.loc	2 317 2 is_stmt 0               @ MAX30102/MAX30102.c:317:2
	adr	r0, .LCPI6_13
	mov	r3, r1
	bl	__2printf
	.loc	2 318 27 is_stmt 1              @ MAX30102/MAX30102.c:318:27
	ldr	r0, __arm_cp.6_11
	ldr	r1, [r0]
	.loc	2 318 2 is_stmt 0               @ MAX30102/MAX30102.c:318:2
	adr	r0, .LCPI6_14
	bl	__2printf
	ldr	r0, __arm_cp.6_15
	.loc	2 320 7 is_stmt 1               @ MAX30102/MAX30102.c:320:7
	cmp	r4, r0
	bgt	.LBB6_8
.Ltmp68:
@ %bb.7:
	@DEBUG_VALUE: MAX30102_ComputeBPM:irValue <- $r4
	.loc	2 322 5                         @ MAX30102/MAX30102.c:322:5
	adr	r0, .LCPI6_16
	bl	__2printf
	movs	r0, #0
.Ltmp69:
	.loc	2 327 1                         @ MAX30102/MAX30102.c:327:1
	add	sp, #4
	pop	{r4, r5, r6, r7, pc}
.Ltmp70:
.LBB6_8:
	@DEBUG_VALUE: MAX30102_ComputeBPM:irValue <- $r4
	.loc	2 0 1 is_stmt 0                 @ MAX30102/MAX30102.c:0:1
	movs	r0, #1
	.loc	2 327 1                         @ MAX30102/MAX30102.c:327:1
	add	sp, #4
	pop	{r4, r5, r6, r7, pc}
.Ltmp71:
	.p2align	2
@ %bb.9:
	.loc	2 0 1                           @ MAX30102/MAX30102.c:0:1
__arm_cp.6_0:
	.long	spo2_val
.Lcpi_end28:
	.size	__arm_cp.6_0, .Lcpi_end28-__arm_cp.6_0
__arm_cp.6_1:
	.long	millis_counter
.Lcpi_end29:
	.size	__arm_cp.6_1, .Lcpi_end29-__arm_cp.6_1
__arm_cp.6_2:
	.long	lastBeat
.Lcpi_end30:
	.size	__arm_cp.6_2, .Lcpi_end30-__arm_cp.6_2
__arm_cp.6_3:
	.long	OLED_printTime
.Lcpi_end31:
	.size	__arm_cp.6_3, .Lcpi_end31-__arm_cp.6_3
__arm_cp.6_4:
	.long	1083129856                      @ 0x408f4000
.Lcpi_end32:
	.size	__arm_cp.6_4, .Lcpi_end32-__arm_cp.6_4
__arm_cp.6_5:
	.long	1078853632                      @ 0x404e0000
.Lcpi_end33:
	.size	__arm_cp.6_5, .Lcpi_end33-__arm_cp.6_5
__arm_cp.6_6:
	.long	beatsPerMinute
.Lcpi_end34:
	.size	__arm_cp.6_6, .Lcpi_end34-__arm_cp.6_6
__arm_cp.6_7:
	.long	1125515264                      @ 0x43160000
.Lcpi_end35:
	.size	__arm_cp.6_7, .Lcpi_end35-__arm_cp.6_7
__arm_cp.6_8:
	.long	1101004800                      @ 0x41a00000
.Lcpi_end36:
	.size	__arm_cp.6_8, .Lcpi_end36-__arm_cp.6_8
__arm_cp.6_9:
	.long	rateSpot
.Lcpi_end37:
	.size	__arm_cp.6_9, .Lcpi_end37-__arm_cp.6_9
__arm_cp.6_10:
	.long	rates
.Lcpi_end38:
	.size	__arm_cp.6_10, .Lcpi_end38-__arm_cp.6_10
__arm_cp.6_11:
	.long	beatAvg
.Lcpi_end39:
	.size	__arm_cp.6_11, .Lcpi_end39-__arm_cp.6_11
.LCPI6_12:
.L.str.9:
	.asciz	"\nIR = %ld\t\000"
.LCPI6_13:
.L.str.10:
	.asciz	"BPM = %f\t\000\000"
.LCPI6_14:
.L.str.11:
	.asciz	"Avg BPM = %d\t\000\000"
__arm_cp.6_15:
	.long	49999                           @ 0xc34f
.Lcpi_end40:
	.size	__arm_cp.6_15, .Lcpi_end40-__arm_cp.6_15
.LCPI6_16:
.L.str.12:
	.asciz	"[No Finger]"
.Lfunc_end6:
	.size	MAX30102_ComputeBPM, .Lfunc_end6-MAX30102_ComputeBPM
	.cfi_endproc
	.cantunwind
	.fnend
                                        @ -- End function
	.hidden	IR_AC_Max                       @ @IR_AC_Max
	.type	IR_AC_Max,%object
	.section	.data.IR_AC_Max,"aw",%progbits
	.globl	IR_AC_Max
	.p2align	1
IR_AC_Max:
	.short	20                              @ 0x14
	.size	IR_AC_Max, 2

	.hidden	IR_AC_Min                       @ @IR_AC_Min
	.type	IR_AC_Min,%object
	.section	.data.IR_AC_Min,"aw",%progbits
	.globl	IR_AC_Min
	.p2align	1
IR_AC_Min:
	.short	65516                           @ 0xffec
	.size	IR_AC_Min, 2

	.hidden	IR_AC_Signal_Current            @ @IR_AC_Signal_Current
	.type	IR_AC_Signal_Current,%object
	.section	.bss.IR_AC_Signal_Current,"aw",%nobits
	.globl	IR_AC_Signal_Current
	.p2align	1
IR_AC_Signal_Current:
	.short	0                               @ 0x0
	.size	IR_AC_Signal_Current, 2

	.hidden	IR_AC_Signal_min                @ @IR_AC_Signal_min
	.type	IR_AC_Signal_min,%object
	.section	.bss.IR_AC_Signal_min,"aw",%nobits
	.globl	IR_AC_Signal_min
	.p2align	1
IR_AC_Signal_min:
	.short	0                               @ 0x0
	.size	IR_AC_Signal_min, 2

	.hidden	IR_AC_Signal_max                @ @IR_AC_Signal_max
	.type	IR_AC_Signal_max,%object
	.section	.bss.IR_AC_Signal_max,"aw",%nobits
	.globl	IR_AC_Signal_max
	.p2align	1
IR_AC_Signal_max:
	.short	0                               @ 0x0
	.size	IR_AC_Signal_max, 2

	.hidden	positiveEdge                    @ @positiveEdge
	.type	positiveEdge,%object
	.section	.bss.positiveEdge,"aw",%nobits
	.globl	positiveEdge
	.p2align	1
positiveEdge:
	.short	0                               @ 0x0
	.size	positiveEdge, 2

	.hidden	negativeEdge                    @ @negativeEdge
	.type	negativeEdge,%object
	.section	.bss.negativeEdge,"aw",%nobits
	.globl	negativeEdge
	.p2align	1
negativeEdge:
	.short	0                               @ 0x0
	.size	negativeEdge, 2

	.hidden	ir_avg_reg                      @ @ir_avg_reg
	.type	ir_avg_reg,%object
	.section	.bss.ir_avg_reg,"aw",%nobits
	.globl	ir_avg_reg
	.p2align	2
ir_avg_reg:
	.long	0                               @ 0x0
	.size	ir_avg_reg, 4

	.hidden	offset                          @ @offset
	.type	offset,%object
	.section	.bss.offset,"aw",%nobits
	.globl	offset
offset:
	.byte	0                               @ 0x0
	.size	offset, 1

	.hidden	RATE_SIZE                       @ @RATE_SIZE
	.type	RATE_SIZE,%object
	.section	.rodata.RATE_SIZE,"a",%progbits
	.globl	RATE_SIZE
	.p2align	2
RATE_SIZE:
	.long	4                               @ 0x4
	.size	RATE_SIZE, 4

	.hidden	rateSpot                        @ @rateSpot
	.type	rateSpot,%object
	.section	.bss.rateSpot,"aw",%nobits
	.globl	rateSpot
	.p2align	2
rateSpot:
	.long	0                               @ 0x0
	.size	rateSpot, 4

	.hidden	lastBeat                        @ @lastBeat
	.type	lastBeat,%object
	.section	.bss.lastBeat,"aw",%nobits
	.globl	lastBeat
	.p2align	2
lastBeat:
	.long	0                               @ 0x0
	.size	lastBeat, 4

	.hidden	IR_AC_Signal_Previous           @ @IR_AC_Signal_Previous
	.type	IR_AC_Signal_Previous,%object
	.section	.bss.IR_AC_Signal_Previous,"aw",%nobits
	.globl	IR_AC_Signal_Previous
	.p2align	1
IR_AC_Signal_Previous:
	.short	0                               @ 0x0
	.size	IR_AC_Signal_Previous, 2

	.hidden	IR_Average_Estimated            @ @IR_Average_Estimated
	.type	IR_Average_Estimated,%object
	.section	.bss.IR_Average_Estimated,"aw",%nobits
	.globl	IR_Average_Estimated
	.p2align	1
IR_Average_Estimated:
	.short	0                               @ 0x0
	.size	IR_Average_Estimated, 2

	.hidden	cbuf                            @ @cbuf
	.type	cbuf,%object
	.section	.bss.cbuf,"aw",%nobits
	.globl	cbuf
	.p2align	1
cbuf:
	.zero	64
	.size	cbuf, 64

	.type	FIRCoeffs,%object               @ @FIRCoeffs
	.section	.rodata.FIRCoeffs,"a",%progbits
	.p2align	1
FIRCoeffs:
	.short	172                             @ 0xac
	.short	321                             @ 0x141
	.short	579                             @ 0x243
	.short	927                             @ 0x39f
	.short	1360                            @ 0x550
	.short	1858                            @ 0x742
	.short	2390                            @ 0x956
	.short	2916                            @ 0xb64
	.short	3391                            @ 0xd3f
	.short	3768                            @ 0xeb8
	.short	4012                            @ 0xfac
	.short	4096                            @ 0x1000
	.size	FIRCoeffs, 24

	.hidden	au8RDataBuf                     @ @au8RDataBuf
	.type	au8RDataBuf,%object
	.section	.bss.au8RDataBuf,"aw",%nobits
	.globl	au8RDataBuf
au8RDataBuf:
	.zero	6
	.size	au8RDataBuf, 6

	.hidden	hr_val                          @ @hr_val
	.type	hr_val,%object
	.section	.bss.hr_val,"aw",%nobits
	.globl	hr_val
	.p2align	2
hr_val:
	.long	0                               @ 0x0
	.size	hr_val, 4

	.hidden	spo2_val                        @ @spo2_val
	.type	spo2_val,%object
	.section	.bss.spo2_val,"aw",%nobits
	.globl	spo2_val
	.p2align	2
spo2_val:
	.long	0                               @ 0x0
	.size	spo2_val, 4

	.hidden	beatsPerMinute                  @ @beatsPerMinute
	.type	beatsPerMinute,%object
	.section	.bss.beatsPerMinute,"aw",%nobits
	.globl	beatsPerMinute
	.p2align	2
beatsPerMinute:
	.long	0x00000000                      @ float 0
	.size	beatsPerMinute, 4

	.hidden	rates                           @ @rates
	.type	rates,%object
	.section	.bss.rates,"aw",%nobits
	.globl	rates
	.p2align	2
rates:
	.zero	16
	.size	rates, 16

	.hidden	beatAvg                         @ @beatAvg
	.type	beatAvg,%object
	.section	.bss.beatAvg,"aw",%nobits
	.globl	beatAvg
	.p2align	2
beatAvg:
	.long	0                               @ 0x0
	.size	beatAvg, 4

	.type	.Lstr,%object                   @ @str
	.section	.rodata.str1.1,"aMS",%progbits,1
.Lstr:
	.asciz	"+---------------------------------------------+"
	.size	.Lstr, 48

	.type	.Lstr.13,%object                @ @str.13
.Lstr.13:
	.asciz	"|       Configuration MAX30102 in SECURE      |"
	.size	.Lstr.13, 48

	.type	.Lstr.14,%object                @ @str.14
.Lstr.14:
	.asciz	"+---------------------------------------------+"
	.size	.Lstr.14, 48

	.type	.Lstr.15,%object                @ @str.15
.Lstr.15:
	.asciz	"|       [1] MAX30102_FIFO_CONFIG .....        |"
	.size	.Lstr.15, 48

	.type	.Lstr.16,%object                @ @str.16
.Lstr.16:
	.asciz	"|       [2] MAX30102_MODE_CONFIG .....        |"
	.size	.Lstr.16, 48

	.type	.Lstr.17,%object                @ @str.17
.Lstr.17:
	.asciz	"|       [3] MAX30102_SPO2_CONFIG .....        |"
	.size	.Lstr.17, 48

	.type	.Lstr.18,%object                @ @str.18
.Lstr.18:
	.asciz	"|       [4] MAX30102_LED1_AMP    .....        |"
	.size	.Lstr.18, 48

	.type	.Lstr.21,%object                @ @str.21
.Lstr.21:
	.asciz	"+---------------------------------------------+"
	.size	.Lstr.21, 48

	.type	.Lstr.22,%object                @ @str.22
.Lstr.22:
	.asciz	"|       MAX31012 Configuration Error!        |"
	.size	.Lstr.22, 47

	.globl	_printf_percent
	.globl	_printf_sizespec
	.globl	_printf_d
	.globl	_printf_f
	.globl	_printf_int_dec
	.globl	_printf_fp_dec
	.hidden	_printf_percent
	.hidden	_printf_sizespec
	.hidden	_printf_d
	.hidden	_printf_f
	.hidden	_printf_int_dec
	.hidden	_printf_fp_dec
	.section	".note.GNU-stack","",%progbits
	.eabi_attribute	30, 1	@ Tag_ABI_optimization_goals
	.ARM_attribute	16, 1	@ Tag_AV_eba