	.text
	.syntax unified
	.eabi_attribute	67, "2.09"	@ Tag_conformance
	.cpu	cortex-m23
	.eabi_attribute	6, 16	@ Tag_CPU_arch
	.eabi_attribute	7, 77	@ Tag_CPU_arch_profile
	.eabi_attribute	8, 0	@ Tag_ARM_ISA_use
	.eabi_attribute	9, 3	@ Tag_THUMB_ISA_use
	.eabi_attribute	34, 0	@ Tag_CPU_unaligned_access
	.eabi_attribute	17, 1	@ Tag_ABI_PCS_GOT_use
	.eabi_attribute	20, 2	@ Tag_ABI_FP_denormal
	.eabi_attribute	21, 0	@ Tag_ABI_FP_exceptions
	.eabi_attribute	23, 1	@ Tag_ABI_FP_number_model
	.eabi_attribute	24, 1	@ Tag_ABI_align_needed
	.eabi_attribute	25, 1	@ Tag_ABI_align_preserved
	.eabi_attribute	38, 1	@ Tag_ABI_FP_16bit_format
	.eabi_attribute	18, 2	@ Tag_ABI_PCS_wchar_t
	.eabi_attribute	26, 1	@ Tag_ABI_enum_size
	.eabi_attribute	14, 0	@ Tag_ABI_PCS_R9_use
	.file	"md.c"
	.file	1 "C:\\Users\\shw26\\OneDrive\\Desktop\\2021\\2021-1\\\354\272\241\354\212\244\355\206\244\353\224\224\354\236\220\354\235\2702\\Nuvoton\\M2351_BSP_v3.00.004\\M2351Series_BSP_CMSIS_V3.00.004\\MyProject\\PulseMonitoring\\Secure" "../../../ThirdParty/mbedTLS/library/md.c"
	.file	2 "C:\\Users\\shw26\\OneDrive\\Desktop\\2021\\2021-1\\\354\272\241\354\212\244\355\206\244\353\224\224\354\236\220\354\235\2702\\Nuvoton\\M2351_BSP_v3.00.004\\M2351Series_BSP_CMSIS_V3.00.004\\MyProject\\PulseMonitoring\\Secure" "../../../ThirdParty/mbedTLS/include/mbedtls/md.h"
	.file	3 "C:\\" "Keil_v5\\ARM\\ARMCLANG\\Bin\\..\\include\\stddef.h"
	.section	.text.mbedtls_md_list,"ax",%progbits
	.hidden	mbedtls_md_list                 @ -- Begin function mbedtls_md_list
	.globl	mbedtls_md_list
	.p2align	2
	.type	mbedtls_md_list,%function
	.code	16                              @ @mbedtls_md_list
	.thumb_func
mbedtls_md_list:
.Lfunc_begin0:
	.loc	1 91 0                          @ ../../../ThirdParty/mbedTLS/library/md.c:91:0
	.fnstart
	.cfi_sections .debug_frame
	.cfi_startproc
@ %bb.0:
	.loc	1 92 5 prologue_end             @ ../../../ThirdParty/mbedTLS/library/md.c:92:5
	ldr	r0, __arm_cp.0_0
	bx	lr
.Ltmp0:
	.p2align	2
@ %bb.1:
	.loc	1 0 5 is_stmt 0                 @ ../../../ThirdParty/mbedTLS/library/md.c:0:5
__arm_cp.0_0:
	.long	supported_digests
.Lcpi_end0:
	.size	__arm_cp.0_0, .Lcpi_end0-__arm_cp.0_0
.Lfunc_end0:
	.size	mbedtls_md_list, .Lfunc_end0-mbedtls_md_list
	.cfi_endproc
	.cantunwind
	.fnend
                                        @ -- End function
	.section	.text.mbedtls_md_info_from_string,"ax",%progbits
	.hidden	mbedtls_md_info_from_string     @ -- Begin function mbedtls_md_info_from_string
	.globl	mbedtls_md_info_from_string
	.p2align	2
	.type	mbedtls_md_info_from_string,%function
	.code	16                              @ @mbedtls_md_info_from_string
	.thumb_func
mbedtls_md_info_from_string:
.Lfunc_begin1:
	.loc	1 96 0 is_stmt 1                @ ../../../ThirdParty/mbedTLS/library/md.c:96:0
	.fnstart
	.cfi_startproc
@ %bb.0:
	@DEBUG_VALUE: mbedtls_md_info_from_string:md_name <- $r0
	.save	{r4, r5, r7, lr}
	push	{r4, r5, r7, lr}
	.cfi_def_cfa_offset 16
	.cfi_offset lr, -4
	.cfi_offset r7, -8
	.cfi_offset r5, -12
	.cfi_offset r4, -16
	movs	r4, #0
	@DEBUG_VALUE: mbedtls_md_info_from_string:md_name <- $r0
.Ltmp1:
	.loc	1 97 9 prologue_end             @ ../../../ThirdParty/mbedTLS/library/md.c:97:9
	cbz	r0, .LBB1_10
.Ltmp2:
@ %bb.1:
	@DEBUG_VALUE: mbedtls_md_info_from_string:md_name <- $r0
	.loc	1 0 9 is_stmt 0                 @ ../../../ThirdParty/mbedTLS/library/md.c:0:9
	mov	r5, r0
.Ltmp3:
	@DEBUG_VALUE: mbedtls_md_info_from_string:md_name <- $r5
	.loc	1 110 10 is_stmt 1              @ ../../../ThirdParty/mbedTLS/library/md.c:110:10
	adr	r0, .LCPI1_0
	mov	r1, r5
	bl	strcmp
.Ltmp4:
	.loc	1 110 9 is_stmt 0               @ ../../../ThirdParty/mbedTLS/library/md.c:110:9
	cbz	r0, .LBB1_11
.Ltmp5:
@ %bb.2:
	@DEBUG_VALUE: mbedtls_md_info_from_string:md_name <- $r5
	.loc	1 114 10 is_stmt 1              @ ../../../ThirdParty/mbedTLS/library/md.c:114:10
	adr	r0, .LCPI1_1
	mov	r1, r5
	bl	strcmp
.Ltmp6:
	.loc	1 114 9 is_stmt 0               @ ../../../ThirdParty/mbedTLS/library/md.c:114:9
	cbz	r0, .LBB1_13
.Ltmp7:
@ %bb.3:
	@DEBUG_VALUE: mbedtls_md_info_from_string:md_name <- $r5
	.loc	1 118 10 is_stmt 1              @ ../../../ThirdParty/mbedTLS/library/md.c:118:10
	adr	r0, .LCPI1_2
	mov	r1, r5
	bl	strcmp
	.loc	1 118 36 is_stmt 0              @ ../../../ThirdParty/mbedTLS/library/md.c:118:36
	cbz	r0, .LBB1_12
.Ltmp8:
@ %bb.4:
	@DEBUG_VALUE: mbedtls_md_info_from_string:md_name <- $r5
	.loc	1 118 40                        @ ../../../ThirdParty/mbedTLS/library/md.c:118:40
	adr	r0, .LCPI1_3
	mov	r1, r5
	bl	strcmp
.Ltmp9:
	.loc	1 118 9                         @ ../../../ThirdParty/mbedTLS/library/md.c:118:9
	cbz	r0, .LBB1_12
.Ltmp10:
@ %bb.5:
	@DEBUG_VALUE: mbedtls_md_info_from_string:md_name <- $r5
	.loc	1 122 10 is_stmt 1              @ ../../../ThirdParty/mbedTLS/library/md.c:122:10
	adr	r0, .LCPI1_4
	mov	r1, r5
	bl	strcmp
.Ltmp11:
	.loc	1 122 9 is_stmt 0               @ ../../../ThirdParty/mbedTLS/library/md.c:122:9
	cbz	r0, .LBB1_14
.Ltmp12:
@ %bb.6:
	@DEBUG_VALUE: mbedtls_md_info_from_string:md_name <- $r5
	.loc	1 124 10 is_stmt 1              @ ../../../ThirdParty/mbedTLS/library/md.c:124:10
	adr	r0, .LCPI1_5
	mov	r1, r5
	bl	strcmp
.Ltmp13:
	.loc	1 124 9 is_stmt 0               @ ../../../ThirdParty/mbedTLS/library/md.c:124:9
	cbz	r0, .LBB1_15
.Ltmp14:
@ %bb.7:
	@DEBUG_VALUE: mbedtls_md_info_from_string:md_name <- $r5
	.loc	1 128 10 is_stmt 1              @ ../../../ThirdParty/mbedTLS/library/md.c:128:10
	adr	r0, .LCPI1_6
	mov	r1, r5
	bl	strcmp
.Ltmp15:
	.loc	1 128 9 is_stmt 0               @ ../../../ThirdParty/mbedTLS/library/md.c:128:9
	cbz	r0, .LBB1_16
.Ltmp16:
@ %bb.8:
	@DEBUG_VALUE: mbedtls_md_info_from_string:md_name <- $r5
	.loc	1 130 10 is_stmt 1              @ ../../../ThirdParty/mbedTLS/library/md.c:130:10
	adr	r0, .LCPI1_7
	mov	r1, r5
	bl	strcmp
.Ltmp17:
	.loc	1 130 9 is_stmt 0               @ ../../../ThirdParty/mbedTLS/library/md.c:130:9
	cbnz	r0, .LBB1_10
.Ltmp18:
@ %bb.9:
	@DEBUG_VALUE: mbedtls_md_info_from_string:md_name <- $r5
	.loc	1 0 9                           @ ../../../ThirdParty/mbedTLS/library/md.c:0:9
	movs	r0, #8
.Ltmp19:
	.loc	1 131 16 is_stmt 1              @ ../../../ThirdParty/mbedTLS/library/md.c:131:16
	bl	mbedtls_md_info_from_type
	mov	r4, r0
.Ltmp20:
.LBB1_10:
	.loc	1 134 1                         @ ../../../ThirdParty/mbedTLS/library/md.c:134:1
	mov	r0, r4
	pop	{r4, r5, r7, pc}
.LBB1_11:
.Ltmp21:
	@DEBUG_VALUE: mbedtls_md_info_from_string:md_name <- $r5
	.loc	1 0 1 is_stmt 0                 @ ../../../ThirdParty/mbedTLS/library/md.c:0:1
	movs	r0, #3
.Ltmp22:
	.loc	1 111 16 is_stmt 1              @ ../../../ThirdParty/mbedTLS/library/md.c:111:16
	bl	mbedtls_md_info_from_type
.Ltmp23:
	.loc	1 134 1                         @ ../../../ThirdParty/mbedTLS/library/md.c:134:1
	pop	{r4, r5, r7, pc}
.Ltmp24:
.LBB1_12:
	@DEBUG_VALUE: mbedtls_md_info_from_string:md_name <- $r5
	.loc	1 0 1 is_stmt 0                 @ ../../../ThirdParty/mbedTLS/library/md.c:0:1
	movs	r0, #4
.Ltmp25:
	.loc	1 119 16 is_stmt 1              @ ../../../ThirdParty/mbedTLS/library/md.c:119:16
	bl	mbedtls_md_info_from_type
.Ltmp26:
	.loc	1 134 1                         @ ../../../ThirdParty/mbedTLS/library/md.c:134:1
	pop	{r4, r5, r7, pc}
.Ltmp27:
.LBB1_13:
	@DEBUG_VALUE: mbedtls_md_info_from_string:md_name <- $r5
	.loc	1 0 1 is_stmt 0                 @ ../../../ThirdParty/mbedTLS/library/md.c:0:1
	movs	r0, #9
.Ltmp28:
	.loc	1 115 16 is_stmt 1              @ ../../../ThirdParty/mbedTLS/library/md.c:115:16
	bl	mbedtls_md_info_from_type
.Ltmp29:
	.loc	1 134 1                         @ ../../../ThirdParty/mbedTLS/library/md.c:134:1
	pop	{r4, r5, r7, pc}
.Ltmp30:
.LBB1_14:
	@DEBUG_VALUE: mbedtls_md_info_from_string:md_name <- $r5
	.loc	1 0 1 is_stmt 0                 @ ../../../ThirdParty/mbedTLS/library/md.c:0:1
	movs	r0, #5
.Ltmp31:
	.loc	1 123 16 is_stmt 1              @ ../../../ThirdParty/mbedTLS/library/md.c:123:16
	bl	mbedtls_md_info_from_type
.Ltmp32:
	.loc	1 134 1                         @ ../../../ThirdParty/mbedTLS/library/md.c:134:1
	pop	{r4, r5, r7, pc}
.Ltmp33:
.LBB1_15:
	@DEBUG_VALUE: mbedtls_md_info_from_string:md_name <- $r5
	.loc	1 0 1 is_stmt 0                 @ ../../../ThirdParty/mbedTLS/library/md.c:0:1
	movs	r0, #6
.Ltmp34:
	.loc	1 125 16 is_stmt 1              @ ../../../ThirdParty/mbedTLS/library/md.c:125:16
	bl	mbedtls_md_info_from_type
.Ltmp35:
	.loc	1 134 1                         @ ../../../ThirdParty/mbedTLS/library/md.c:134:1
	pop	{r4, r5, r7, pc}
.Ltmp36:
.LBB1_16:
	@DEBUG_VALUE: mbedtls_md_info_from_string:md_name <- $r5
	.loc	1 0 1 is_stmt 0                 @ ../../../ThirdParty/mbedTLS/library/md.c:0:1
	movs	r0, #7
.Ltmp37:
	.loc	1 129 16 is_stmt 1              @ ../../../ThirdParty/mbedTLS/library/md.c:129:16
	bl	mbedtls_md_info_from_type
.Ltmp38:
	.loc	1 134 1                         @ ../../../ThirdParty/mbedTLS/library/md.c:134:1
	pop	{r4, r5, r7, pc}
.Ltmp39:
	.p2align	2
@ %bb.17:
	.loc	1 0 1 is_stmt 0                 @ ../../../ThirdParty/mbedTLS/library/md.c:0:1
.LCPI1_0:
.L.str:
	.asciz	"MD5"
.LCPI1_1:
.L.str.1:
	.asciz	"RIPEMD160\000\000"
.LCPI1_2:
.L.str.2:
	.asciz	"SHA1\000\000\000"
.LCPI1_3:
.L.str.3:
	.asciz	"SHA"
.LCPI1_4:
.L.str.4:
	.asciz	"SHA224\000"
.LCPI1_5:
.L.str.5:
	.asciz	"SHA256\000"
.LCPI1_6:
.L.str.6:
	.asciz	"SHA384\000"
.LCPI1_7:
.L.str.7:
	.asciz	"SHA512\000"
.Lfunc_end1:
	.size	mbedtls_md_info_from_string, .Lfunc_end1-mbedtls_md_info_from_string
	.cfi_endproc
	.cantunwind
	.fnend
                                        @ -- End function
	.section	.text.mbedtls_md_info_from_type,"ax",%progbits
	.hidden	mbedtls_md_info_from_type       @ -- Begin function mbedtls_md_info_from_type
	.globl	mbedtls_md_info_from_type
	.p2align	2
	.type	mbedtls_md_info_from_type,%function
	.code	16                              @ @mbedtls_md_info_from_type
	.thumb_func
mbedtls_md_info_from_type:
.Lfunc_begin2:
	.loc	1 137 0 is_stmt 1               @ ../../../ThirdParty/mbedTLS/library/md.c:137:0
	.fnstart
	.cfi_startproc
@ %bb.0:
	@DEBUG_VALUE: mbedtls_md_info_from_type:md_type <- $r0
	@DEBUG_VALUE: mbedtls_md_info_from_type:md_type <- $r0
	.loc	1 138 5 prologue_end            @ ../../../ThirdParty/mbedTLS/library/md.c:138:5
	subs	r0, r0, #3
.Ltmp40:
	@DEBUG_VALUE: mbedtls_md_info_from_type:md_type <- [DW_OP_LLVM_entry_value 1] $r0
	uxtb	r1, r0
	cmp	r1, #6
	bhi	.LBB2_2
.Ltmp41:
@ %bb.1:
	@DEBUG_VALUE: mbedtls_md_info_from_type:md_type <- [DW_OP_LLVM_entry_value 1] $r0
	sxtb	r0, r0
	lsls	r0, r0, #2
	adr	r1, .LCPI2_0
	ldr	r0, [r1, r0]
	bx	lr
.Ltmp42:
.LBB2_2:
	@DEBUG_VALUE: mbedtls_md_info_from_type:md_type <- [DW_OP_LLVM_entry_value 1] $r0
	.loc	1 0 5 is_stmt 0                 @ ../../../ThirdParty/mbedTLS/library/md.c:0:5
	movs	r0, #0
	.loc	1 175 1 is_stmt 1               @ ../../../ThirdParty/mbedTLS/library/md.c:175:1
	bx	lr
.Ltmp43:
	.p2align	2
@ %bb.3:
	.loc	1 0 1 is_stmt 0                 @ ../../../ThirdParty/mbedTLS/library/md.c:0:1
.LCPI2_0:
.Lswitch.table.mbedtls_md_info_from_type:
	.long	mbedtls_md5_info
	.long	mbedtls_sha1_info
	.long	mbedtls_sha224_info
	.long	mbedtls_sha256_info
	.long	mbedtls_sha384_info
	.long	mbedtls_sha512_info
	.long	mbedtls_ripemd160_info
.Lfunc_end2:
	.size	mbedtls_md_info_from_type, .Lfunc_end2-mbedtls_md_info_from_type
	.cfi_endproc
	.cantunwind
	.fnend
                                        @ -- End function
	.section	.text.mbedtls_md_init,"ax",%progbits
	.hidden	mbedtls_md_init                 @ -- Begin function mbedtls_md_init
	.globl	mbedtls_md_init
	.p2align	1
	.type	mbedtls_md_init,%function
	.code	16                              @ @mbedtls_md_init
	.thumb_func
mbedtls_md_init:
.Lfunc_begin3:
	.loc	1 178 0 is_stmt 1               @ ../../../ThirdParty/mbedTLS/library/md.c:178:0
	.fnstart
	.cfi_startproc
@ %bb.0:
	@DEBUG_VALUE: mbedtls_md_init:ctx <- $r0
	movs	r1, #0
	@DEBUG_VALUE: mbedtls_md_init:ctx <- $r0
.Ltmp44:
	.loc	1 179 5 prologue_end            @ ../../../ThirdParty/mbedTLS/library/md.c:179:5
	str	r1, [r0]
	str	r1, [r0, #4]
	str	r1, [r0, #8]
	.loc	1 180 1                         @ ../../../ThirdParty/mbedTLS/library/md.c:180:1
	bx	lr
.Ltmp45:
.Lfunc_end3:
	.size	mbedtls_md_init, .Lfunc_end3-mbedtls_md_init
	.cfi_endproc
	.cantunwind
	.fnend
                                        @ -- End function
	.section	.text.mbedtls_md_free,"ax",%progbits
	.hidden	mbedtls_md_free                 @ -- Begin function mbedtls_md_free
	.globl	mbedtls_md_free
	.p2align	1
	.type	mbedtls_md_free,%function
	.code	16                              @ @mbedtls_md_free
	.thumb_func
mbedtls_md_free:
.Lfunc_begin4:
	.loc	1 183 0                         @ ../../../ThirdParty/mbedTLS/library/md.c:183:0
	.fnstart
	.cfi_startproc
@ %bb.0:
	@DEBUG_VALUE: mbedtls_md_free:ctx <- $r0
	@DEBUG_VALUE: mbedtls_md_free:ctx <- $r0
	.save	{r4, lr}
	push	{r4, lr}
	.cfi_def_cfa_offset 8
	.cfi_offset lr, -4
	.cfi_offset r4, -8
.Ltmp46:
	.loc	1 184 21 prologue_end           @ ../../../ThirdParty/mbedTLS/library/md.c:184:21
	cbz	r0, .LBB4_7
.Ltmp47:
@ %bb.1:
	@DEBUG_VALUE: mbedtls_md_free:ctx <- $r0
	.loc	1 0 21 is_stmt 0                @ ../../../ThirdParty/mbedTLS/library/md.c:0:21
	mov	r4, r0
.Ltmp48:
	@DEBUG_VALUE: mbedtls_md_free:ctx <- $r4
	.loc	1 184 29                        @ ../../../ThirdParty/mbedTLS/library/md.c:184:29
	ldr	r1, [r0]
.Ltmp49:
	.loc	1 184 9                         @ ../../../ThirdParty/mbedTLS/library/md.c:184:9
	cbz	r1, .LBB4_7
.Ltmp50:
@ %bb.2:
	@DEBUG_VALUE: mbedtls_md_free:ctx <- $r4
	.loc	1 187 14 is_stmt 1              @ ../../../ThirdParty/mbedTLS/library/md.c:187:14
	ldr	r0, [r4, #4]
.Ltmp51:
	.loc	1 187 9 is_stmt 0               @ ../../../ThirdParty/mbedTLS/library/md.c:187:9
	cbz	r0, .LBB4_4
.Ltmp52:
@ %bb.3:
	@DEBUG_VALUE: mbedtls_md_free:ctx <- $r4
	.loc	1 188 23 is_stmt 1              @ ../../../ThirdParty/mbedTLS/library/md.c:188:23
	ldr	r1, [r1, #36]
	.loc	1 188 9 is_stmt 0               @ ../../../ThirdParty/mbedTLS/library/md.c:188:9
	blx	r1
.Ltmp53:
.LBB4_4:
	@DEBUG_VALUE: mbedtls_md_free:ctx <- $r4
	.loc	1 190 14 is_stmt 1              @ ../../../ThirdParty/mbedTLS/library/md.c:190:14
	ldr	r0, [r4, #8]
.Ltmp54:
	.loc	1 190 9 is_stmt 0               @ ../../../ThirdParty/mbedTLS/library/md.c:190:9
	cbz	r0, .LBB4_6
.Ltmp55:
@ %bb.5:
	@DEBUG_VALUE: mbedtls_md_free:ctx <- $r4
	.loc	1 193 44 is_stmt 1              @ ../../../ThirdParty/mbedTLS/library/md.c:193:44
	ldr	r1, [r4]
	.loc	1 193 53 is_stmt 0              @ ../../../ThirdParty/mbedTLS/library/md.c:193:53
	ldr	r1, [r1, #12]
	.loc	1 193 37                        @ ../../../ThirdParty/mbedTLS/library/md.c:193:37
	lsls	r1, r1, #1
	.loc	1 192 9 is_stmt 1               @ ../../../ThirdParty/mbedTLS/library/md.c:192:9
	bl	mbedtls_platform_zeroize
	.loc	1 194 28                        @ ../../../ThirdParty/mbedTLS/library/md.c:194:28
	ldr	r0, [r4, #8]
	.loc	1 194 9 is_stmt 0               @ ../../../ThirdParty/mbedTLS/library/md.c:194:9
	bl	free
.Ltmp56:
.LBB4_6:
	@DEBUG_VALUE: mbedtls_md_free:ctx <- $r4
	.loc	1 0 9                           @ ../../../ThirdParty/mbedTLS/library/md.c:0:9
	movs	r1, #12
	.loc	1 197 5 is_stmt 1               @ ../../../ThirdParty/mbedTLS/library/md.c:197:5
	mov	r0, r4
	bl	mbedtls_platform_zeroize
.Ltmp57:
.LBB4_7:
	.loc	1 198 1                         @ ../../../ThirdParty/mbedTLS/library/md.c:198:1
	pop	{r4, pc}
.Ltmp58:
.Lfunc_end4:
	.size	mbedtls_md_free, .Lfunc_end4-mbedtls_md_free
	.cfi_endproc
	.cantunwind
	.fnend
                                        @ -- End function
	.section	.text.mbedtls_md_clone,"ax",%progbits
	.hidden	mbedtls_md_clone                @ -- Begin function mbedtls_md_clone
	.globl	mbedtls_md_clone
	.p2align	2
	.type	mbedtls_md_clone,%function
	.code	16                              @ @mbedtls_md_clone
	.thumb_func
mbedtls_md_clone:
.Lfunc_begin5:
	.loc	1 202 0                         @ ../../../ThirdParty/mbedTLS/library/md.c:202:0
	.fnstart
	.cfi_startproc
@ %bb.0:
	@DEBUG_VALUE: mbedtls_md_clone:dst <- $r0
	@DEBUG_VALUE: mbedtls_md_clone:src <- $r1
	.save	{r4, lr}
	push	{r4, lr}
	.cfi_def_cfa_offset 8
	.cfi_offset lr, -4
	.cfi_offset r4, -8
	mov	r2, r0
	ldr	r0, __arm_cp.5_0
.Ltmp59:
	@DEBUG_VALUE: mbedtls_md_clone:dst <- [DW_OP_LLVM_entry_value 1] $r0
	@DEBUG_VALUE: mbedtls_md_clone:src <- $r1
	@DEBUG_VALUE: mbedtls_md_clone:dst <- $r2
	.loc	1 203 21 prologue_end           @ ../../../ThirdParty/mbedTLS/library/md.c:203:21
	cbz	r2, .LBB5_6
.Ltmp60:
@ %bb.1:
	@DEBUG_VALUE: mbedtls_md_clone:dst <- $r2
	@DEBUG_VALUE: mbedtls_md_clone:src <- $r1
	.loc	1 203 45 is_stmt 0              @ ../../../ThirdParty/mbedTLS/library/md.c:203:45
	cbz	r1, .LBB5_6
.Ltmp61:
@ %bb.2:
	@DEBUG_VALUE: mbedtls_md_clone:dst <- $r2
	@DEBUG_VALUE: mbedtls_md_clone:src <- $r1
	.loc	1 0 0                           @ ../../../ThirdParty/mbedTLS/library/md.c:0:0
	ldr	r3, [r2]
	.loc	1 203 45                        @ ../../../ThirdParty/mbedTLS/library/md.c:203:45
	cbz	r3, .LBB5_6
.Ltmp62:
@ %bb.3:
	@DEBUG_VALUE: mbedtls_md_clone:dst <- $r2
	@DEBUG_VALUE: mbedtls_md_clone:src <- $r1
	.loc	1 204 33 is_stmt 1              @ ../../../ThirdParty/mbedTLS/library/md.c:204:33
	ldr	r4, [r1]
	.loc	1 204 49 is_stmt 0              @ ../../../ThirdParty/mbedTLS/library/md.c:204:49
	cbz	r4, .LBB5_6
.Ltmp63:
@ %bb.4:
	@DEBUG_VALUE: mbedtls_md_clone:dst <- $r2
	@DEBUG_VALUE: mbedtls_md_clone:src <- $r1
	cmp	r3, r4
	bne	.LBB5_6
.Ltmp64:
@ %bb.5:
	@DEBUG_VALUE: mbedtls_md_clone:dst <- $r2
	@DEBUG_VALUE: mbedtls_md_clone:src <- $r1
	.loc	1 210 49 is_stmt 1              @ ../../../ThirdParty/mbedTLS/library/md.c:210:49
	ldr	r1, [r1, #4]
.Ltmp65:
	@DEBUG_VALUE: mbedtls_md_clone:src <- [DW_OP_LLVM_entry_value 1] $r1
	.loc	1 210 36 is_stmt 0              @ ../../../ThirdParty/mbedTLS/library/md.c:210:36
	ldr	r0, [r2, #4]
	.loc	1 210 19                        @ ../../../ThirdParty/mbedTLS/library/md.c:210:19
	ldr	r2, [r3, #40]
.Ltmp66:
	.loc	1 210 5                         @ ../../../ThirdParty/mbedTLS/library/md.c:210:5
	blx	r2
	movs	r0, #0
.Ltmp67:
.LBB5_6:
	.loc	1 213 1 is_stmt 1               @ ../../../ThirdParty/mbedTLS/library/md.c:213:1
	pop	{r4, pc}
.Ltmp68:
	.p2align	2
@ %bb.7:
	.loc	1 0 1 is_stmt 0                 @ ../../../ThirdParty/mbedTLS/library/md.c:0:1
__arm_cp.5_0:
	.long	4294946560                      @ 0xffffaf00
.Lcpi_end1:
	.size	__arm_cp.5_0, .Lcpi_end1-__arm_cp.5_0
.Lfunc_end5:
	.size	mbedtls_md_clone, .Lfunc_end5-mbedtls_md_clone
	.cfi_endproc
	.cantunwind
	.fnend
                                        @ -- End function
	.section	.text.mbedtls_md_init_ctx,"ax",%progbits
	.hidden	mbedtls_md_init_ctx             @ -- Begin function mbedtls_md_init_ctx
	.globl	mbedtls_md_init_ctx
	.p2align	1
	.type	mbedtls_md_init_ctx,%function
	.code	16                              @ @mbedtls_md_init_ctx
	.thumb_func
mbedtls_md_init_ctx:
.Lfunc_begin6:
	.loc	1 217 0 is_stmt 1               @ ../../../ThirdParty/mbedTLS/library/md.c:217:0
	.fnstart
	.cfi_startproc
@ %bb.0:
	@DEBUG_VALUE: mbedtls_md_init_ctx:ctx <- $r0
	@DEBUG_VALUE: mbedtls_md_init_ctx:ctx <- $r0
	@DEBUG_VALUE: mbedtls_md_init_ctx:md_info <- $r1
	@DEBUG_VALUE: mbedtls_md_init_ctx:md_info <- $r1
	.save	{r7, lr}
	push	{r7, lr}
	.cfi_def_cfa_offset 8
	.cfi_offset lr, -4
	.cfi_offset r7, -8
	movs	r2, #1
	@DEBUG_VALUE: mbedtls_md_init_ctx:md_info <- $r1
	@DEBUG_VALUE: mbedtls_md_init_ctx:ctx <- $r0
.Ltmp69:
	.loc	1 218 12 prologue_end           @ ../../../ThirdParty/mbedTLS/library/md.c:218:12
	bl	mbedtls_md_setup
.Ltmp70:
	@DEBUG_VALUE: mbedtls_md_init_ctx:md_info <- [DW_OP_LLVM_entry_value 1] $r1
	@DEBUG_VALUE: mbedtls_md_init_ctx:ctx <- [DW_OP_LLVM_entry_value 1] $r0
	.loc	1 218 5 is_stmt 0               @ ../../../ThirdParty/mbedTLS/library/md.c:218:5
	pop	{r7, pc}
.Ltmp71:
.Lfunc_end6:
	.size	mbedtls_md_init_ctx, .Lfunc_end6-mbedtls_md_init_ctx
	.cfi_endproc
	.cantunwind
	.fnend
                                        @ -- End function
	.section	.text.mbedtls_md_setup,"ax",%progbits
	.hidden	mbedtls_md_setup                @ -- Begin function mbedtls_md_setup
	.globl	mbedtls_md_setup
	.p2align	2
	.type	mbedtls_md_setup,%function
	.code	16                              @ @mbedtls_md_setup
	.thumb_func
mbedtls_md_setup:
.Lfunc_begin7:
	.loc	1 223 0 is_stmt 1               @ ../../../ThirdParty/mbedTLS/library/md.c:223:0
	.fnstart
	.cfi_startproc
@ %bb.0:
	@DEBUG_VALUE: mbedtls_md_setup:ctx <- $r0
	@DEBUG_VALUE: mbedtls_md_setup:md_info <- $r1
	@DEBUG_VALUE: mbedtls_md_setup:hmac <- $r2
	.save	{r4, r5, r6, r7, lr}
	push	{r4, r5, r6, r7, lr}
	.cfi_def_cfa_offset 20
	.cfi_offset lr, -4
	.cfi_offset r7, -8
	.cfi_offset r6, -12
	.cfi_offset r5, -16
	.cfi_offset r4, -20
	.pad	#4
	sub	sp, #4
	.cfi_def_cfa_offset 24
	mov	r5, r0
	ldr	r0, __arm_cp.7_0
.Ltmp72:
	@DEBUG_VALUE: mbedtls_md_setup:ctx <- [DW_OP_LLVM_entry_value 1] $r0
	@DEBUG_VALUE: mbedtls_md_setup:hmac <- $r2
	@DEBUG_VALUE: mbedtls_md_setup:md_info <- $r1
	@DEBUG_VALUE: mbedtls_md_setup:ctx <- $r5
	.loc	1 0 0 prologue_end              @ ../../../ThirdParty/mbedTLS/library/md.c:0:0
	adds	r0, #128
.Ltmp73:
	.loc	1 224 25                        @ ../../../ThirdParty/mbedTLS/library/md.c:224:25
	cbz	r5, .LBB7_6
.Ltmp74:
@ %bb.1:
	@DEBUG_VALUE: mbedtls_md_setup:ctx <- $r5
	@DEBUG_VALUE: mbedtls_md_setup:hmac <- $r2
	@DEBUG_VALUE: mbedtls_md_setup:md_info <- $r1
	@DEBUG_VALUE: mbedtls_md_setup:hmac <- $r2
	.loc	1 0 25 is_stmt 0                @ ../../../ThirdParty/mbedTLS/library/md.c:0:25
	mov	r4, r1
.Ltmp75:
	@DEBUG_VALUE: mbedtls_md_setup:md_info <- $r4
	.loc	1 224 25                        @ ../../../ThirdParty/mbedTLS/library/md.c:224:25
	cbz	r1, .LBB7_6
.Ltmp76:
@ %bb.2:
	@DEBUG_VALUE: mbedtls_md_setup:ctx <- $r5
	@DEBUG_VALUE: mbedtls_md_setup:md_info <- $r4
	@DEBUG_VALUE: mbedtls_md_setup:hmac <- $r2
	.loc	1 0 25                          @ ../../../ThirdParty/mbedTLS/library/md.c:0:25
	mov	r7, r2
.Ltmp77:
	@DEBUG_VALUE: mbedtls_md_setup:hmac <- $r7
	.loc	1 227 34 is_stmt 1              @ ../../../ThirdParty/mbedTLS/library/md.c:227:34
	ldr	r0, [r4, #32]
	.loc	1 227 25 is_stmt 0              @ ../../../ThirdParty/mbedTLS/library/md.c:227:25
	blx	r0
	.loc	1 227 23                        @ ../../../ThirdParty/mbedTLS/library/md.c:227:23
	str	r0, [r5, #4]
.Ltmp78:
	.loc	1 227 9                         @ ../../../ThirdParty/mbedTLS/library/md.c:227:9
	cbz	r0, .LBB7_8
.Ltmp79:
@ %bb.3:
	@DEBUG_VALUE: mbedtls_md_setup:hmac <- $r7
	@DEBUG_VALUE: mbedtls_md_setup:ctx <- $r5
	@DEBUG_VALUE: mbedtls_md_setup:md_info <- $r4
	.loc	1 230 9 is_stmt 1               @ ../../../ThirdParty/mbedTLS/library/md.c:230:9
	cbz	r7, .LBB7_5
.Ltmp80:
@ %bb.4:
	@DEBUG_VALUE: mbedtls_md_setup:hmac <- $r7
	@DEBUG_VALUE: mbedtls_md_setup:ctx <- $r5
	@DEBUG_VALUE: mbedtls_md_setup:md_info <- $r4
	.loc	1 0 0 is_stmt 0                 @ ../../../ThirdParty/mbedTLS/library/md.c:0:0
	mov	r6, r0
.Ltmp81:
	.loc	1 232 53 is_stmt 1              @ ../../../ThirdParty/mbedTLS/library/md.c:232:53
	ldr	r1, [r4, #12]
	movs	r0, #2
	.loc	1 232 25 is_stmt 0              @ ../../../ThirdParty/mbedTLS/library/md.c:232:25
	bl	calloc
	.loc	1 232 23                        @ ../../../ThirdParty/mbedTLS/library/md.c:232:23
	str	r0, [r5, #8]
	.loc	1 233 13 is_stmt 1              @ ../../../ThirdParty/mbedTLS/library/md.c:233:13
	cbz	r0, .LBB7_7
.Ltmp82:
.LBB7_5:
	@DEBUG_VALUE: mbedtls_md_setup:hmac <- $r7
	@DEBUG_VALUE: mbedtls_md_setup:ctx <- $r5
	@DEBUG_VALUE: mbedtls_md_setup:md_info <- $r4
	.loc	1 240 18                        @ ../../../ThirdParty/mbedTLS/library/md.c:240:18
	str	r4, [r5]
	movs	r0, #0
.Ltmp83:
.LBB7_6:
	@DEBUG_VALUE: mbedtls_md_setup:ctx <- $r5
	.loc	1 243 1                         @ ../../../ThirdParty/mbedTLS/library/md.c:243:1
	add	sp, #4
	pop	{r4, r5, r6, r7, pc}
.Ltmp84:
.LBB7_7:
	@DEBUG_VALUE: mbedtls_md_setup:hmac <- $r7
	@DEBUG_VALUE: mbedtls_md_setup:ctx <- $r5
	@DEBUG_VALUE: mbedtls_md_setup:md_info <- $r4
	.loc	1 235 22                        @ ../../../ThirdParty/mbedTLS/library/md.c:235:22
	ldr	r1, [r4, #36]
	.loc	1 235 13 is_stmt 0              @ ../../../ThirdParty/mbedTLS/library/md.c:235:13
	mov	r0, r6
	blx	r1
.Ltmp85:
.LBB7_8:
	@DEBUG_VALUE: mbedtls_md_setup:hmac <- $r7
	@DEBUG_VALUE: mbedtls_md_setup:ctx <- $r5
	@DEBUG_VALUE: mbedtls_md_setup:md_info <- $r4
	.loc	1 0 0                           @ ../../../ThirdParty/mbedTLS/library/md.c:0:0
	ldr	r0, __arm_cp.7_0
	.loc	1 243 1 is_stmt 1               @ ../../../ThirdParty/mbedTLS/library/md.c:243:1
	add	sp, #4
	pop	{r4, r5, r6, r7, pc}
.Ltmp86:
	.p2align	2
@ %bb.9:
	.loc	1 0 1 is_stmt 0                 @ ../../../ThirdParty/mbedTLS/library/md.c:0:1
__arm_cp.7_0:
	.long	4294946432                      @ 0xffffae80
.Lcpi_end2:
	.size	__arm_cp.7_0, .Lcpi_end2-__arm_cp.7_0
.Lfunc_end7:
	.size	mbedtls_md_setup, .Lfunc_end7-mbedtls_md_setup
	.cfi_endproc
	.cantunwind
	.fnend
                                        @ -- End function
	.section	.text.mbedtls_md_starts,"ax",%progbits
	.hidden	mbedtls_md_starts               @ -- Begin function mbedtls_md_starts
	.globl	mbedtls_md_starts
	.p2align	2
	.type	mbedtls_md_starts,%function
	.code	16                              @ @mbedtls_md_starts
	.thumb_func
mbedtls_md_starts:
.Lfunc_begin8:
	.loc	1 246 0 is_stmt 1               @ ../../../ThirdParty/mbedTLS/library/md.c:246:0
	.fnstart
	.cfi_startproc
@ %bb.0:
	@DEBUG_VALUE: mbedtls_md_starts:ctx <- $r0
	.save	{r7, lr}
	push	{r7, lr}
	.cfi_def_cfa_offset 8
	.cfi_offset lr, -4
	.cfi_offset r7, -8
	mov	r1, r0
	ldr	r0, __arm_cp.8_0
.Ltmp87:
	@DEBUG_VALUE: mbedtls_md_starts:ctx <- [DW_OP_LLVM_entry_value 1] $r0
	@DEBUG_VALUE: mbedtls_md_starts:ctx <- $r1
	.loc	1 247 21 prologue_end           @ ../../../ThirdParty/mbedTLS/library/md.c:247:21
	cbz	r1, .LBB8_3
.Ltmp88:
@ %bb.1:
	@DEBUG_VALUE: mbedtls_md_starts:ctx <- $r1
	.loc	1 247 29 is_stmt 0              @ ../../../ThirdParty/mbedTLS/library/md.c:247:29
	ldr	r2, [r1]
.Ltmp89:
	.loc	1 247 9                         @ ../../../ThirdParty/mbedTLS/library/md.c:247:9
	cbz	r2, .LBB8_3
.Ltmp90:
@ %bb.2:
	@DEBUG_VALUE: mbedtls_md_starts:ctx <- $r1
	.loc	1 250 45 is_stmt 1              @ ../../../ThirdParty/mbedTLS/library/md.c:250:45
	ldr	r0, [r1, #4]
	.loc	1 250 27 is_stmt 0              @ ../../../ThirdParty/mbedTLS/library/md.c:250:27
	ldr	r1, [r2, #16]
.Ltmp91:
	.loc	1 250 13                        @ ../../../ThirdParty/mbedTLS/library/md.c:250:13
	blx	r1
.LBB8_3:
	.loc	1 251 1 is_stmt 1               @ ../../../ThirdParty/mbedTLS/library/md.c:251:1
	pop	{r7, pc}
.Ltmp92:
	.p2align	2
@ %bb.4:
	.loc	1 0 1 is_stmt 0                 @ ../../../ThirdParty/mbedTLS/library/md.c:0:1
__arm_cp.8_0:
	.long	4294946560                      @ 0xffffaf00
.Lcpi_end3:
	.size	__arm_cp.8_0, .Lcpi_end3-__arm_cp.8_0
.Lfunc_end8:
	.size	mbedtls_md_starts, .Lfunc_end8-mbedtls_md_starts
	.cfi_endproc
	.cantunwind
	.fnend
                                        @ -- End function
	.section	.text.mbedtls_md_update,"ax",%progbits
	.hidden	mbedtls_md_update               @ -- Begin function mbedtls_md_update
	.globl	mbedtls_md_update
	.p2align	2
	.type	mbedtls_md_update,%function
	.code	16                              @ @mbedtls_md_update
	.thumb_func
mbedtls_md_update:
.Lfunc_begin9:
	.loc	1 254 0 is_stmt 1               @ ../../../ThirdParty/mbedTLS/library/md.c:254:0
	.fnstart
	.cfi_startproc
@ %bb.0:
	@DEBUG_VALUE: mbedtls_md_update:ctx <- $r0
	@DEBUG_VALUE: mbedtls_md_update:input <- $r1
	@DEBUG_VALUE: mbedtls_md_update:ilen <- $r2
	.save	{r4, lr}
	push	{r4, lr}
	.cfi_def_cfa_offset 8
	.cfi_offset lr, -4
	.cfi_offset r4, -8
	mov	r3, r0
	ldr	r0, __arm_cp.9_0
.Ltmp93:
	@DEBUG_VALUE: mbedtls_md_update:ctx <- [DW_OP_LLVM_entry_value 1] $r0
	@DEBUG_VALUE: mbedtls_md_update:ilen <- $r2
	@DEBUG_VALUE: mbedtls_md_update:input <- $r1
	@DEBUG_VALUE: mbedtls_md_update:ctx <- $r3
	.loc	1 255 21 prologue_end           @ ../../../ThirdParty/mbedTLS/library/md.c:255:21
	cbz	r3, .LBB9_3
.Ltmp94:
@ %bb.1:
	@DEBUG_VALUE: mbedtls_md_update:ctx <- $r3
	@DEBUG_VALUE: mbedtls_md_update:ilen <- $r2
	@DEBUG_VALUE: mbedtls_md_update:input <- $r1
	.loc	1 255 29 is_stmt 0              @ ../../../ThirdParty/mbedTLS/library/md.c:255:29
	ldr	r4, [r3]
.Ltmp95:
	.loc	1 255 9                         @ ../../../ThirdParty/mbedTLS/library/md.c:255:9
	cbz	r4, .LBB9_3
.Ltmp96:
@ %bb.2:
	@DEBUG_VALUE: mbedtls_md_update:ctx <- $r3
	@DEBUG_VALUE: mbedtls_md_update:ilen <- $r2
	@DEBUG_VALUE: mbedtls_md_update:input <- $r1
	.loc	1 258 45 is_stmt 1              @ ../../../ThirdParty/mbedTLS/library/md.c:258:45
	ldr	r0, [r3, #4]
	.loc	1 258 27 is_stmt 0              @ ../../../ThirdParty/mbedTLS/library/md.c:258:27
	ldr	r3, [r4, #20]
.Ltmp97:
	.loc	1 258 13                        @ ../../../ThirdParty/mbedTLS/library/md.c:258:13
	blx	r3
.Ltmp98:
	@DEBUG_VALUE: mbedtls_md_update:ilen <- [DW_OP_LLVM_entry_value 1] $r2
	@DEBUG_VALUE: mbedtls_md_update:input <- [DW_OP_LLVM_entry_value 1] $r1
.LBB9_3:
	.loc	1 259 1 is_stmt 1               @ ../../../ThirdParty/mbedTLS/library/md.c:259:1
	pop	{r4, pc}
.Ltmp99:
	.p2align	2
@ %bb.4:
	.loc	1 0 1 is_stmt 0                 @ ../../../ThirdParty/mbedTLS/library/md.c:0:1
__arm_cp.9_0:
	.long	4294946560                      @ 0xffffaf00
.Lcpi_end4:
	.size	__arm_cp.9_0, .Lcpi_end4-__arm_cp.9_0
.Lfunc_end9:
	.size	mbedtls_md_update, .Lfunc_end9-mbedtls_md_update
	.cfi_endproc
	.cantunwind
	.fnend
                                        @ -- End function
	.section	.text.mbedtls_md_finish,"ax",%progbits
	.hidden	mbedtls_md_finish               @ -- Begin function mbedtls_md_finish
	.globl	mbedtls_md_finish
	.p2align	2
	.type	mbedtls_md_finish,%function
	.code	16                              @ @mbedtls_md_finish
	.thumb_func
mbedtls_md_finish:
.Lfunc_begin10:
	.loc	1 262 0 is_stmt 1               @ ../../../ThirdParty/mbedTLS/library/md.c:262:0
	.fnstart
	.cfi_startproc
@ %bb.0:
	@DEBUG_VALUE: mbedtls_md_finish:ctx <- $r0
	@DEBUG_VALUE: mbedtls_md_finish:output <- $r1
	.save	{r7, lr}
	push	{r7, lr}
	.cfi_def_cfa_offset 8
	.cfi_offset lr, -4
	.cfi_offset r7, -8
	mov	r2, r0
	ldr	r0, __arm_cp.10_0
.Ltmp100:
	@DEBUG_VALUE: mbedtls_md_finish:ctx <- [DW_OP_LLVM_entry_value 1] $r0
	@DEBUG_VALUE: mbedtls_md_finish:output <- $r1
	@DEBUG_VALUE: mbedtls_md_finish:ctx <- $r2
	.loc	1 263 21 prologue_end           @ ../../../ThirdParty/mbedTLS/library/md.c:263:21
	cbz	r2, .LBB10_3
.Ltmp101:
@ %bb.1:
	@DEBUG_VALUE: mbedtls_md_finish:ctx <- $r2
	@DEBUG_VALUE: mbedtls_md_finish:output <- $r1
	.loc	1 263 29 is_stmt 0              @ ../../../ThirdParty/mbedTLS/library/md.c:263:29
	ldr	r3, [r2]
.Ltmp102:
	.loc	1 263 9                         @ ../../../ThirdParty/mbedTLS/library/md.c:263:9
	cbz	r3, .LBB10_3
.Ltmp103:
@ %bb.2:
	@DEBUG_VALUE: mbedtls_md_finish:ctx <- $r2
	@DEBUG_VALUE: mbedtls_md_finish:output <- $r1
	.loc	1 266 45 is_stmt 1              @ ../../../ThirdParty/mbedTLS/library/md.c:266:45
	ldr	r0, [r2, #4]
	.loc	1 266 27 is_stmt 0              @ ../../../ThirdParty/mbedTLS/library/md.c:266:27
	ldr	r2, [r3, #24]
.Ltmp104:
	.loc	1 266 13                        @ ../../../ThirdParty/mbedTLS/library/md.c:266:13
	blx	r2
.Ltmp105:
	@DEBUG_VALUE: mbedtls_md_finish:output <- [DW_OP_LLVM_entry_value 1] $r1
.LBB10_3:
	.loc	1 267 1 is_stmt 1               @ ../../../ThirdParty/mbedTLS/library/md.c:267:1
	pop	{r7, pc}
.Ltmp106:
	.p2align	2
@ %bb.4:
	.loc	1 0 1 is_stmt 0                 @ ../../../ThirdParty/mbedTLS/library/md.c:0:1
__arm_cp.10_0:
	.long	4294946560                      @ 0xffffaf00
.Lcpi_end5:
	.size	__arm_cp.10_0, .Lcpi_end5-__arm_cp.10_0
.Lfunc_end10:
	.size	mbedtls_md_finish, .Lfunc_end10-mbedtls_md_finish
	.cfi_endproc
	.cantunwind
	.fnend
                                        @ -- End function
	.section	.text.mbedtls_md,"ax",%progbits
	.hidden	mbedtls_md                      @ -- Begin function mbedtls_md
	.globl	mbedtls_md
	.p2align	2
	.type	mbedtls_md,%function
	.code	16                              @ @mbedtls_md
	.thumb_func
mbedtls_md:
.Lfunc_begin11:
	.loc	1 271 0 is_stmt 1               @ ../../../ThirdParty/mbedTLS/library/md.c:271:0
	.fnstart
	.cfi_startproc
@ %bb.0:
	@DEBUG_VALUE: mbedtls_md:md_info <- $r0
	@DEBUG_VALUE: mbedtls_md:md_info <- $r0
	@DEBUG_VALUE: mbedtls_md:input <- $r1
	@DEBUG_VALUE: mbedtls_md:input <- $r1
	@DEBUG_VALUE: mbedtls_md:ilen <- $r2
	@DEBUG_VALUE: mbedtls_md:ilen <- $r2
	@DEBUG_VALUE: mbedtls_md:output <- $r3
	@DEBUG_VALUE: mbedtls_md:output <- $r3
	.save	{r4, lr}
	push	{r4, lr}
	.cfi_def_cfa_offset 8
	.cfi_offset lr, -4
	.cfi_offset r4, -8
.Ltmp107:
	.loc	1 272 9 prologue_end            @ ../../../ThirdParty/mbedTLS/library/md.c:272:9
	cbz	r0, .LBB11_2
.Ltmp108:
@ %bb.1:
	@DEBUG_VALUE: mbedtls_md:output <- $r3
	@DEBUG_VALUE: mbedtls_md:ilen <- $r2
	@DEBUG_VALUE: mbedtls_md:input <- $r1
	@DEBUG_VALUE: mbedtls_md:md_info <- $r0
	.loc	1 275 22                        @ ../../../ThirdParty/mbedTLS/library/md.c:275:22
	ldr	r4, [r0, #28]
	.loc	1 275 13 is_stmt 0              @ ../../../ThirdParty/mbedTLS/library/md.c:275:13
	mov	r0, r1
.Ltmp109:
	@DEBUG_VALUE: mbedtls_md:md_info <- [DW_OP_LLVM_entry_value 1] $r0
	mov	r1, r2
.Ltmp110:
	@DEBUG_VALUE: mbedtls_md:input <- [DW_OP_LLVM_entry_value 1] $r1
	mov	r2, r3
.Ltmp111:
	@DEBUG_VALUE: mbedtls_md:ilen <- [DW_OP_LLVM_entry_value 1] $r2
	blx	r4
.Ltmp112:
	@DEBUG_VALUE: mbedtls_md:output <- [DW_OP_LLVM_entry_value 1] $r3
	.loc	1 276 1 is_stmt 1               @ ../../../ThirdParty/mbedTLS/library/md.c:276:1
	pop	{r4, pc}
.Ltmp113:
.LBB11_2:
	@DEBUG_VALUE: mbedtls_md:output <- $r3
	@DEBUG_VALUE: mbedtls_md:ilen <- $r2
	@DEBUG_VALUE: mbedtls_md:input <- $r1
	@DEBUG_VALUE: mbedtls_md:md_info <- $r0
	.loc	1 0 1 is_stmt 0                 @ ../../../ThirdParty/mbedTLS/library/md.c:0:1
	ldr	r0, __arm_cp.11_0
.Ltmp114:
	@DEBUG_VALUE: mbedtls_md:md_info <- [DW_OP_LLVM_entry_value 1] $r0
	.loc	1 276 1                         @ ../../../ThirdParty/mbedTLS/library/md.c:276:1
	pop	{r4, pc}
.Ltmp115:
	.p2align	2
@ %bb.3:
	.loc	1 0 1                           @ ../../../ThirdParty/mbedTLS/library/md.c:0:1
__arm_cp.11_0:
	.long	4294946560                      @ 0xffffaf00
.Lcpi_end6:
	.size	__arm_cp.11_0, .Lcpi_end6-__arm_cp.11_0
.Lfunc_end11:
	.size	mbedtls_md, .Lfunc_end11-mbedtls_md
	.cfi_endproc
	.cantunwind
	.fnend
                                        @ -- End function
	.section	.text.mbedtls_md_hmac_starts,"ax",%progbits
	.hidden	mbedtls_md_hmac_starts          @ -- Begin function mbedtls_md_hmac_starts
	.globl	mbedtls_md_hmac_starts
	.p2align	2
	.type	mbedtls_md_hmac_starts,%function
	.code	16                              @ @mbedtls_md_hmac_starts
	.thumb_func
mbedtls_md_hmac_starts:
.Lfunc_begin12:
	.loc	1 320 0 is_stmt 1               @ ../../../ThirdParty/mbedTLS/library/md.c:320:0
	.fnstart
	.cfi_startproc
@ %bb.0:
	@DEBUG_VALUE: mbedtls_md_hmac_starts:ctx <- $r0
	@DEBUG_VALUE: mbedtls_md_hmac_starts:key <- $r1
	@DEBUG_VALUE: mbedtls_md_hmac_starts:keylen <- $r2
	.save	{r4, r5, r6, r7, lr}
	push	{r4, r5, r6, r7, lr}
	.cfi_def_cfa_offset 20
	.cfi_offset lr, -4
	.cfi_offset r7, -8
	.cfi_offset r6, -12
	.cfi_offset r5, -16
	.cfi_offset r4, -20
	.pad	#68
	sub	sp, #68
	.cfi_def_cfa_offset 88
	ldr	r7, __arm_cp.12_0
	@DEBUG_VALUE: mbedtls_md_hmac_starts:keylen <- $r2
	@DEBUG_VALUE: mbedtls_md_hmac_starts:key <- $r1
	@DEBUG_VALUE: mbedtls_md_hmac_starts:ctx <- $r0
.Ltmp116:
	.loc	1 326 21 prologue_end           @ ../../../ThirdParty/mbedTLS/library/md.c:326:21
	cmp	r0, #0
	beq	.LBB12_14
.Ltmp117:
@ %bb.1:
	@DEBUG_VALUE: mbedtls_md_hmac_starts:keylen <- $r2
	@DEBUG_VALUE: mbedtls_md_hmac_starts:key <- $r1
	@DEBUG_VALUE: mbedtls_md_hmac_starts:ctx <- $r0
	@DEBUG_VALUE: mbedtls_md_hmac_starts:keylen <- $r2
	.loc	1 0 21 is_stmt 0                @ ../../../ThirdParty/mbedTLS/library/md.c:0:21
	mov	r6, r1
.Ltmp118:
	@DEBUG_VALUE: mbedtls_md_hmac_starts:key <- $r6
	mov	r4, r0
.Ltmp119:
	@DEBUG_VALUE: mbedtls_md_hmac_starts:ctx <- $r4
	.loc	1 326 29                        @ ../../../ThirdParty/mbedTLS/library/md.c:326:29
	ldr	r1, [r0]
	.loc	1 326 45                        @ ../../../ThirdParty/mbedTLS/library/md.c:326:45
	cmp	r1, #0
	beq	.LBB12_14
.Ltmp120:
@ %bb.2:
	@DEBUG_VALUE: mbedtls_md_hmac_starts:key <- $r6
	@DEBUG_VALUE: mbedtls_md_hmac_starts:ctx <- $r4
	@DEBUG_VALUE: mbedtls_md_hmac_starts:keylen <- $r2
	@DEBUG_VALUE: mbedtls_md_hmac_starts:keylen <- $r2
	.loc	1 326 53                        @ ../../../ThirdParty/mbedTLS/library/md.c:326:53
	ldr	r0, [r4, #8]
.Ltmp121:
	.loc	1 326 9                         @ ../../../ThirdParty/mbedTLS/library/md.c:326:9
	cmp	r0, #0
	beq	.LBB12_14
.Ltmp122:
@ %bb.3:
	@DEBUG_VALUE: mbedtls_md_hmac_starts:key <- $r6
	@DEBUG_VALUE: mbedtls_md_hmac_starts:ctx <- $r4
	@DEBUG_VALUE: mbedtls_md_hmac_starts:keylen <- $r2
	.loc	1 0 9                           @ ../../../ThirdParty/mbedTLS/library/md.c:0:9
	mov	r5, r2
.Ltmp123:
	@DEBUG_VALUE: mbedtls_md_hmac_starts:keylen <- $r5
	.loc	1 329 41 is_stmt 1              @ ../../../ThirdParty/mbedTLS/library/md.c:329:41
	ldr	r0, [r1, #12]
.Ltmp124:
	.loc	1 329 9 is_stmt 0               @ ../../../ThirdParty/mbedTLS/library/md.c:329:9
	cmp	r0, r2
	bhs	.LBB12_8
.Ltmp125:
@ %bb.4:
	@DEBUG_VALUE: mbedtls_md_hmac_starts:key <- $r6
	@DEBUG_VALUE: mbedtls_md_hmac_starts:keylen <- $r5
	@DEBUG_VALUE: mbedtls_md_hmac_starts:ctx <- $r4
	.loc	1 331 53 is_stmt 1              @ ../../../ThirdParty/mbedTLS/library/md.c:331:53
	ldr	r0, [r4, #4]
	.loc	1 331 35 is_stmt 0              @ ../../../ThirdParty/mbedTLS/library/md.c:331:35
	ldr	r1, [r1, #16]
	.loc	1 331 21                        @ ../../../ThirdParty/mbedTLS/library/md.c:331:21
	blx	r1
	mov	r7, r0
.Ltmp126:
	@DEBUG_VALUE: mbedtls_md_hmac_starts:ret <- $r7
	.loc	1 331 13                        @ ../../../ThirdParty/mbedTLS/library/md.c:331:13
	cbnz	r0, .LBB12_13
.Ltmp127:
@ %bb.5:
	@DEBUG_VALUE: mbedtls_md_hmac_starts:ret <- $r7
	@DEBUG_VALUE: mbedtls_md_hmac_starts:key <- $r6
	@DEBUG_VALUE: mbedtls_md_hmac_starts:keylen <- $r5
	@DEBUG_VALUE: mbedtls_md_hmac_starts:ctx <- $r4
	.loc	1 333 26 is_stmt 1              @ ../../../ThirdParty/mbedTLS/library/md.c:333:26
	ldr	r1, [r4]
	.loc	1 333 53 is_stmt 0              @ ../../../ThirdParty/mbedTLS/library/md.c:333:53
	ldr	r0, [r4, #4]
	.loc	1 333 35                        @ ../../../ThirdParty/mbedTLS/library/md.c:333:35
	ldr	r3, [r1, #20]
	.loc	1 333 21                        @ ../../../ThirdParty/mbedTLS/library/md.c:333:21
	mov	r1, r6
	mov	r2, r5
	blx	r3
	mov	r7, r0
.Ltmp128:
	@DEBUG_VALUE: mbedtls_md_hmac_starts:ret <- $r7
	.loc	1 333 13                        @ ../../../ThirdParty/mbedTLS/library/md.c:333:13
	cbnz	r0, .LBB12_13
.Ltmp129:
@ %bb.6:
	@DEBUG_VALUE: mbedtls_md_hmac_starts:ret <- $r7
	@DEBUG_VALUE: mbedtls_md_hmac_starts:key <- $r6
	@DEBUG_VALUE: mbedtls_md_hmac_starts:keylen <- $r5
	@DEBUG_VALUE: mbedtls_md_hmac_starts:ctx <- $r4
	.loc	1 335 26 is_stmt 1              @ ../../../ThirdParty/mbedTLS/library/md.c:335:26
	ldr	r1, [r4]
	.loc	1 335 53 is_stmt 0              @ ../../../ThirdParty/mbedTLS/library/md.c:335:53
	ldr	r0, [r4, #4]
	.loc	1 335 35                        @ ../../../ThirdParty/mbedTLS/library/md.c:335:35
	ldr	r2, [r1, #24]
	add	r1, sp, #4
	.loc	1 335 21                        @ ../../../ThirdParty/mbedTLS/library/md.c:335:21
	blx	r2
	mov	r7, r0
.Ltmp130:
	@DEBUG_VALUE: mbedtls_md_hmac_starts:ret <- $r7
	.loc	1 335 13                        @ ../../../ThirdParty/mbedTLS/library/md.c:335:13
	cbnz	r0, .LBB12_13
.Ltmp131:
@ %bb.7:
	@DEBUG_VALUE: mbedtls_md_hmac_starts:ret <- $r7
	@DEBUG_VALUE: mbedtls_md_hmac_starts:key <- $r6
	@DEBUG_VALUE: mbedtls_md_hmac_starts:keylen <- $r5
	@DEBUG_VALUE: mbedtls_md_hmac_starts:ctx <- $r4
	.loc	1 338 23 is_stmt 1              @ ../../../ThirdParty/mbedTLS/library/md.c:338:23
	ldr	r0, [r4]
	.loc	1 338 32 is_stmt 0              @ ../../../ThirdParty/mbedTLS/library/md.c:338:32
	ldr	r5, [r0, #8]
.Ltmp132:
	@DEBUG_VALUE: mbedtls_md_hmac_starts:keylen <- [DW_OP_LLVM_entry_value 1] $r2
	@DEBUG_VALUE: mbedtls_md_hmac_starts:keylen <- $r5
	.loc	1 0 32                          @ ../../../ThirdParty/mbedTLS/library/md.c:0:32
	add	r6, sp, #4
.Ltmp133:
	@DEBUG_VALUE: mbedtls_md_hmac_starts:key <- [DW_OP_LLVM_entry_value 1] $r1
	@DEBUG_VALUE: mbedtls_md_hmac_starts:key <- [DW_OP_plus_uconst 4, DW_OP_stack_value] $sp
.LBB12_8:
	@DEBUG_VALUE: mbedtls_md_hmac_starts:keylen <- $r5
	@DEBUG_VALUE: mbedtls_md_hmac_starts:ctx <- $r4
	@DEBUG_VALUE: mbedtls_md_hmac_starts:key <- $r6
	@DEBUG_VALUE: mbedtls_md_hmac_starts:keylen <- $r5
	.loc	1 342 35 is_stmt 1              @ ../../../ThirdParty/mbedTLS/library/md.c:342:35
	ldr	r0, [r4, #8]
.Ltmp134:
	@DEBUG_VALUE: mbedtls_md_hmac_starts:ipad <- $r0
	.loc	1 343 51                        @ ../../../ThirdParty/mbedTLS/library/md.c:343:51
	str	r0, [sp]                        @ 4-byte Spill
	ldr	r1, [r4]
	.loc	1 343 60 is_stmt 0              @ ../../../ThirdParty/mbedTLS/library/md.c:343:60
	ldr	r7, [r1, #12]
	movs	r2, #54
.Ltmp135:
	@DEBUG_VALUE: mbedtls_md_hmac_starts:ipad <- [$sp+0]
	.loc	1 345 5 is_stmt 1               @ ../../../ThirdParty/mbedTLS/library/md.c:345:5
	mov	r1, r7
	bl	__aeabi_memset
	@DEBUG_VALUE: mbedtls_md_hmac_starts:ipad <- [$sp+0]
.Ltmp136:
	@DEBUG_VALUE: mbedtls_md_hmac_starts:ipad <- undef
	.loc	1 343 44                        @ ../../../ThirdParty/mbedTLS/library/md.c:343:44
	ldr	r0, [sp]                        @ 4-byte Reload
	adds	r0, r0, r7
.Ltmp137:
	@DEBUG_VALUE: mbedtls_md_hmac_starts:opad <- $r0
	.loc	1 346 30                        @ ../../../ThirdParty/mbedTLS/library/md.c:346:30
	ldr	r1, [r4]
	.loc	1 346 39 is_stmt 0              @ ../../../ThirdParty/mbedTLS/library/md.c:346:39
	ldr	r1, [r1, #12]
	movs	r2, #92
	.loc	1 346 5                         @ ../../../ThirdParty/mbedTLS/library/md.c:346:5
	bl	__aeabi_memset
.Ltmp138:
	@DEBUG_VALUE: mbedtls_md_hmac_starts:i <- 0
	.loc	1 348 5 is_stmt 1               @ ../../../ThirdParty/mbedTLS/library/md.c:348:5
	cbz	r5, .LBB12_11
.Ltmp139:
@ %bb.9:
	@DEBUG_VALUE: mbedtls_md_hmac_starts:key <- $r6
	@DEBUG_VALUE: mbedtls_md_hmac_starts:keylen <- $r5
	@DEBUG_VALUE: mbedtls_md_hmac_starts:ctx <- $r4
	@DEBUG_VALUE: mbedtls_md_hmac_starts:i <- 0
	.loc	1 0 5 is_stmt 0                 @ ../../../ThirdParty/mbedTLS/library/md.c:0:5
	ldr	r0, [sp]                        @ 4-byte Reload
.Ltmp140:
.LBB12_10:                              @ =>This Inner Loop Header: Depth=1
	@DEBUG_VALUE: mbedtls_md_hmac_starts:ctx <- $r4
	@DEBUG_VALUE: mbedtls_md_hmac_starts:i <- undef
	.loc	1 350 36 is_stmt 1              @ ../../../ThirdParty/mbedTLS/library/md.c:350:36
	ldrb	r1, [r0]
	.loc	1 350 46 is_stmt 0              @ ../../../ThirdParty/mbedTLS/library/md.c:350:46
	ldrb	r2, [r6]
	.loc	1 350 44                        @ ../../../ThirdParty/mbedTLS/library/md.c:350:44
	eors	r2, r1
	.loc	1 350 17                        @ ../../../ThirdParty/mbedTLS/library/md.c:350:17
	strb	r2, [r0]
	.loc	1 351 36 is_stmt 1              @ ../../../ThirdParty/mbedTLS/library/md.c:351:36
	ldrb	r1, [r0, r7]
	.loc	1 351 46 is_stmt 0              @ ../../../ThirdParty/mbedTLS/library/md.c:351:46
	ldrb	r2, [r6]
	.loc	1 351 44                        @ ../../../ThirdParty/mbedTLS/library/md.c:351:44
	eors	r2, r1
	.loc	1 351 17                        @ ../../../ThirdParty/mbedTLS/library/md.c:351:17
	strb	r2, [r0, r7]
.Ltmp141:
	.loc	1 348 19 is_stmt 1              @ ../../../ThirdParty/mbedTLS/library/md.c:348:19
	adds	r6, r6, #1
	adds	r0, r0, #1
.Ltmp142:
	@DEBUG_VALUE: mbedtls_md_hmac_starts:i <- [DW_OP_plus_uconst 1, DW_OP_stack_value] undef
	subs	r5, r5, #1
.Ltmp143:
	.loc	1 348 5 is_stmt 0               @ ../../../ThirdParty/mbedTLS/library/md.c:348:5
	bne	.LBB12_10
.Ltmp144:
.LBB12_11:
	@DEBUG_VALUE: mbedtls_md_hmac_starts:ctx <- $r4
	.loc	1 354 22 is_stmt 1              @ ../../../ThirdParty/mbedTLS/library/md.c:354:22
	ldr	r1, [r4]
	.loc	1 354 49 is_stmt 0              @ ../../../ThirdParty/mbedTLS/library/md.c:354:49
	ldr	r0, [r4, #4]
	.loc	1 354 31                        @ ../../../ThirdParty/mbedTLS/library/md.c:354:31
	ldr	r1, [r1, #16]
	.loc	1 354 17                        @ ../../../ThirdParty/mbedTLS/library/md.c:354:17
	blx	r1
	mov	r7, r0
.Ltmp145:
	@DEBUG_VALUE: mbedtls_md_hmac_starts:ret <- $r7
	.loc	1 354 9                         @ ../../../ThirdParty/mbedTLS/library/md.c:354:9
	cbnz	r0, .LBB12_13
.Ltmp146:
@ %bb.12:
	@DEBUG_VALUE: mbedtls_md_hmac_starts:ret <- $r7
	@DEBUG_VALUE: mbedtls_md_hmac_starts:ctx <- $r4
	.loc	1 356 22 is_stmt 1              @ ../../../ThirdParty/mbedTLS/library/md.c:356:22
	ldr	r1, [r4]
	.loc	1 356 49 is_stmt 0              @ ../../../ThirdParty/mbedTLS/library/md.c:356:49
	ldr	r0, [r4, #4]
	.loc	1 357 58 is_stmt 1              @ ../../../ThirdParty/mbedTLS/library/md.c:357:58
	ldr	r2, [r1, #12]
	.loc	1 356 31                        @ ../../../ThirdParty/mbedTLS/library/md.c:356:31
	ldr	r3, [r1, #20]
	.loc	1 356 17 is_stmt 0              @ ../../../ThirdParty/mbedTLS/library/md.c:356:17
	ldr	r1, [sp]                        @ 4-byte Reload
	blx	r3
	mov	r7, r0
.Ltmp147:
	@DEBUG_VALUE: mbedtls_md_hmac_starts:ret <- $r7
.LBB12_13:
	@DEBUG_VALUE: mbedtls_md_hmac_starts:ret <- $r7
	@DEBUG_VALUE: mbedtls_md_hmac_starts:ctx <- $r4
	@DEBUG_VALUE: mbedtls_md_hmac_starts:ret <- $r7
	@DEBUG_LABEL: mbedtls_md_hmac_starts:cleanup
	.loc	1 0 17                          @ ../../../ThirdParty/mbedTLS/library/md.c:0:17
	add	r0, sp, #4
	movs	r1, #64
	.loc	1 361 5 is_stmt 1               @ ../../../ThirdParty/mbedTLS/library/md.c:361:5
	bl	mbedtls_platform_zeroize
.Ltmp148:
.LBB12_14:
	.loc	1 364 1                         @ ../../../ThirdParty/mbedTLS/library/md.c:364:1
	mov	r0, r7
	add	sp, #68
	pop	{r4, r5, r6, r7, pc}
.Ltmp149:
	.p2align	2
@ %bb.15:
	.loc	1 0 1 is_stmt 0                 @ ../../../ThirdParty/mbedTLS/library/md.c:0:1
__arm_cp.12_0:
	.long	4294946560                      @ 0xffffaf00
.Lcpi_end7:
	.size	__arm_cp.12_0, .Lcpi_end7-__arm_cp.12_0
.Lfunc_end12:
	.size	mbedtls_md_hmac_starts, .Lfunc_end12-mbedtls_md_hmac_starts
	.cfi_endproc
	.cantunwind
	.fnend
                                        @ -- End function
	.section	.text.mbedtls_md_hmac_update,"ax",%progbits
	.hidden	mbedtls_md_hmac_update          @ -- Begin function mbedtls_md_hmac_update
	.globl	mbedtls_md_hmac_update
	.p2align	2
	.type	mbedtls_md_hmac_update,%function
	.code	16                              @ @mbedtls_md_hmac_update
	.thumb_func
mbedtls_md_hmac_update:
.Lfunc_begin13:
	.loc	1 367 0 is_stmt 1               @ ../../../ThirdParty/mbedTLS/library/md.c:367:0
	.fnstart
	.cfi_startproc
@ %bb.0:
	@DEBUG_VALUE: mbedtls_md_hmac_update:ctx <- $r0
	@DEBUG_VALUE: mbedtls_md_hmac_update:input <- $r1
	@DEBUG_VALUE: mbedtls_md_hmac_update:ilen <- $r2
	.save	{r4, r5, r7, lr}
	push	{r4, r5, r7, lr}
	.cfi_def_cfa_offset 16
	.cfi_offset lr, -4
	.cfi_offset r7, -8
	.cfi_offset r5, -12
	.cfi_offset r4, -16
	mov	r3, r0
	ldr	r0, __arm_cp.13_0
.Ltmp150:
	@DEBUG_VALUE: mbedtls_md_hmac_update:ctx <- [DW_OP_LLVM_entry_value 1] $r0
	@DEBUG_VALUE: mbedtls_md_hmac_update:ilen <- $r2
	@DEBUG_VALUE: mbedtls_md_hmac_update:input <- $r1
	@DEBUG_VALUE: mbedtls_md_hmac_update:ctx <- $r3
	.loc	1 368 21 prologue_end           @ ../../../ThirdParty/mbedTLS/library/md.c:368:21
	cbz	r3, .LBB13_4
.Ltmp151:
@ %bb.1:
	@DEBUG_VALUE: mbedtls_md_hmac_update:ctx <- $r3
	@DEBUG_VALUE: mbedtls_md_hmac_update:ilen <- $r2
	@DEBUG_VALUE: mbedtls_md_hmac_update:input <- $r1
	.loc	1 368 29 is_stmt 0              @ ../../../ThirdParty/mbedTLS/library/md.c:368:29
	ldr	r4, [r3]
	.loc	1 368 45                        @ ../../../ThirdParty/mbedTLS/library/md.c:368:45
	cbz	r4, .LBB13_4
.Ltmp152:
@ %bb.2:
	@DEBUG_VALUE: mbedtls_md_hmac_update:ctx <- $r3
	@DEBUG_VALUE: mbedtls_md_hmac_update:ilen <- $r2
	@DEBUG_VALUE: mbedtls_md_hmac_update:input <- $r1
	.loc	1 368 53                        @ ../../../ThirdParty/mbedTLS/library/md.c:368:53
	ldr	r5, [r3, #8]
.Ltmp153:
	.loc	1 368 9                         @ ../../../ThirdParty/mbedTLS/library/md.c:368:9
	cbz	r5, .LBB13_4
.Ltmp154:
@ %bb.3:
	@DEBUG_VALUE: mbedtls_md_hmac_update:ctx <- $r3
	@DEBUG_VALUE: mbedtls_md_hmac_update:ilen <- $r2
	@DEBUG_VALUE: mbedtls_md_hmac_update:input <- $r1
	.loc	1 371 45 is_stmt 1              @ ../../../ThirdParty/mbedTLS/library/md.c:371:45
	ldr	r0, [r3, #4]
	.loc	1 371 27 is_stmt 0              @ ../../../ThirdParty/mbedTLS/library/md.c:371:27
	ldr	r3, [r4, #20]
.Ltmp155:
	.loc	1 371 13                        @ ../../../ThirdParty/mbedTLS/library/md.c:371:13
	blx	r3
.Ltmp156:
	@DEBUG_VALUE: mbedtls_md_hmac_update:ilen <- [DW_OP_LLVM_entry_value 1] $r2
	@DEBUG_VALUE: mbedtls_md_hmac_update:input <- [DW_OP_LLVM_entry_value 1] $r1
.LBB13_4:
	.loc	1 372 1 is_stmt 1               @ ../../../ThirdParty/mbedTLS/library/md.c:372:1
	pop	{r4, r5, r7, pc}
.Ltmp157:
	.p2align	2
@ %bb.5:
	.loc	1 0 1 is_stmt 0                 @ ../../../ThirdParty/mbedTLS/library/md.c:0:1
__arm_cp.13_0:
	.long	4294946560                      @ 0xffffaf00
.Lcpi_end8:
	.size	__arm_cp.13_0, .Lcpi_end8-__arm_cp.13_0
.Lfunc_end13:
	.size	mbedtls_md_hmac_update, .Lfunc_end13-mbedtls_md_hmac_update
	.cfi_endproc
	.cantunwind
	.fnend
                                        @ -- End function
	.section	.text.mbedtls_md_hmac_finish,"ax",%progbits
	.hidden	mbedtls_md_hmac_finish          @ -- Begin function mbedtls_md_hmac_finish
	.globl	mbedtls_md_hmac_finish
	.p2align	2
	.type	mbedtls_md_hmac_finish,%function
	.code	16                              @ @mbedtls_md_hmac_finish
	.thumb_func
mbedtls_md_hmac_finish:
.Lfunc_begin14:
	.loc	1 375 0 is_stmt 1               @ ../../../ThirdParty/mbedTLS/library/md.c:375:0
	.fnstart
	.cfi_startproc
@ %bb.0:
	@DEBUG_VALUE: mbedtls_md_hmac_finish:ctx <- $r0
	@DEBUG_VALUE: mbedtls_md_hmac_finish:output <- $r1
	.save	{r4, r5, r6, r7, lr}
	push	{r4, r5, r6, r7, lr}
	.cfi_def_cfa_offset 20
	.cfi_offset lr, -4
	.cfi_offset r7, -8
	.cfi_offset r6, -12
	.cfi_offset r5, -16
	.cfi_offset r4, -20
	.pad	#68
	sub	sp, #68
	.cfi_def_cfa_offset 88
	mov	r5, r0
	ldr	r0, __arm_cp.14_0
.Ltmp158:
	@DEBUG_VALUE: mbedtls_md_hmac_finish:ctx <- [DW_OP_LLVM_entry_value 1] $r0
	@DEBUG_VALUE: mbedtls_md_hmac_finish:output <- $r1
	@DEBUG_VALUE: mbedtls_md_hmac_finish:ctx <- $r5
	.loc	1 380 21 prologue_end           @ ../../../ThirdParty/mbedTLS/library/md.c:380:21
	cbz	r5, .LBB14_4
.Ltmp159:
@ %bb.1:
	@DEBUG_VALUE: mbedtls_md_hmac_finish:ctx <- $r5
	@DEBUG_VALUE: mbedtls_md_hmac_finish:output <- $r1
	.loc	1 0 21 is_stmt 0                @ ../../../ThirdParty/mbedTLS/library/md.c:0:21
	mov	r4, r1
.Ltmp160:
	@DEBUG_VALUE: mbedtls_md_hmac_finish:output <- $r4
	.loc	1 380 29                        @ ../../../ThirdParty/mbedTLS/library/md.c:380:29
	ldr	r1, [r5]
	.loc	1 380 45                        @ ../../../ThirdParty/mbedTLS/library/md.c:380:45
	cbz	r1, .LBB14_4
.Ltmp161:
@ %bb.2:
	@DEBUG_VALUE: mbedtls_md_hmac_finish:ctx <- $r5
	@DEBUG_VALUE: mbedtls_md_hmac_finish:output <- $r4
	.loc	1 380 53                        @ ../../../ThirdParty/mbedTLS/library/md.c:380:53
	ldr	r6, [r5, #8]
.Ltmp162:
	.loc	1 380 9                         @ ../../../ThirdParty/mbedTLS/library/md.c:380:9
	cbz	r6, .LBB14_4
.Ltmp163:
@ %bb.3:
	@DEBUG_VALUE: mbedtls_md_hmac_finish:ctx <- $r5
	@DEBUG_VALUE: mbedtls_md_hmac_finish:output <- $r4
	.loc	1 383 60 is_stmt 1              @ ../../../ThirdParty/mbedTLS/library/md.c:383:60
	ldr	r7, [r1, #12]
.Ltmp164:
	.loc	1 385 49                        @ ../../../ThirdParty/mbedTLS/library/md.c:385:49
	ldr	r0, [r5, #4]
	.loc	1 385 31 is_stmt 0              @ ../../../ThirdParty/mbedTLS/library/md.c:385:31
	ldr	r2, [r1, #24]
	add	r1, sp, #4
	.loc	1 385 17                        @ ../../../ThirdParty/mbedTLS/library/md.c:385:17
	blx	r2
.Ltmp165:
	@DEBUG_VALUE: mbedtls_md_hmac_finish:opad <- undef
	@DEBUG_VALUE: mbedtls_md_hmac_finish:ret <- $r0
	.loc	1 385 9                         @ ../../../ThirdParty/mbedTLS/library/md.c:385:9
	cbz	r0, .LBB14_5
.Ltmp166:
.LBB14_4:
	@DEBUG_VALUE: mbedtls_md_hmac_finish:ctx <- $r5
	.loc	1 396 1 is_stmt 1               @ ../../../ThirdParty/mbedTLS/library/md.c:396:1
	add	sp, #68
	pop	{r4, r5, r6, r7, pc}
.Ltmp167:
.LBB14_5:
	@DEBUG_VALUE: mbedtls_md_hmac_finish:ctx <- $r5
	@DEBUG_VALUE: mbedtls_md_hmac_finish:output <- $r4
	@DEBUG_VALUE: mbedtls_md_hmac_finish:ret <- $r0
	@DEBUG_VALUE: mbedtls_md_hmac_finish:opad <- undef
	.loc	1 387 22                        @ ../../../ThirdParty/mbedTLS/library/md.c:387:22
	ldr	r1, [r5]
	.loc	1 387 49 is_stmt 0              @ ../../../ThirdParty/mbedTLS/library/md.c:387:49
	ldr	r0, [r5, #4]
.Ltmp168:
	.loc	1 387 31                        @ ../../../ThirdParty/mbedTLS/library/md.c:387:31
	ldr	r1, [r1, #16]
	.loc	1 387 17                        @ ../../../ThirdParty/mbedTLS/library/md.c:387:17
	blx	r1
.Ltmp169:
	@DEBUG_VALUE: mbedtls_md_hmac_finish:ret <- $r0
	.loc	1 387 9                         @ ../../../ThirdParty/mbedTLS/library/md.c:387:9
	cmp	r0, #0
	bne	.LBB14_4
.Ltmp170:
@ %bb.6:
	@DEBUG_VALUE: mbedtls_md_hmac_finish:ctx <- $r5
	@DEBUG_VALUE: mbedtls_md_hmac_finish:output <- $r4
	@DEBUG_VALUE: mbedtls_md_hmac_finish:ret <- $r0
	.loc	1 0 0                           @ ../../../ThirdParty/mbedTLS/library/md.c:0:0
	adds	r1, r6, r7
.Ltmp171:
	@DEBUG_VALUE: mbedtls_md_hmac_finish:opad <- $r1
	.loc	1 389 22 is_stmt 1              @ ../../../ThirdParty/mbedTLS/library/md.c:389:22
	ldr	r3, [r5]
	.loc	1 389 49 is_stmt 0              @ ../../../ThirdParty/mbedTLS/library/md.c:389:49
	ldr	r0, [r5, #4]
.Ltmp172:
	.loc	1 390 58 is_stmt 1              @ ../../../ThirdParty/mbedTLS/library/md.c:390:58
	ldr	r2, [r3, #12]
	.loc	1 389 31                        @ ../../../ThirdParty/mbedTLS/library/md.c:389:31
	ldr	r3, [r3, #20]
	.loc	1 389 17 is_stmt 0              @ ../../../ThirdParty/mbedTLS/library/md.c:389:17
	blx	r3
.Ltmp173:
	@DEBUG_VALUE: mbedtls_md_hmac_finish:ret <- $r0
	.loc	1 389 9                         @ ../../../ThirdParty/mbedTLS/library/md.c:389:9
	cmp	r0, #0
	bne	.LBB14_4
.Ltmp174:
@ %bb.7:
	@DEBUG_VALUE: mbedtls_md_hmac_finish:ctx <- $r5
	@DEBUG_VALUE: mbedtls_md_hmac_finish:output <- $r4
	@DEBUG_VALUE: mbedtls_md_hmac_finish:ret <- $r0
	.loc	1 392 22 is_stmt 1              @ ../../../ThirdParty/mbedTLS/library/md.c:392:22
	ldr	r1, [r5]
	.loc	1 392 49 is_stmt 0              @ ../../../ThirdParty/mbedTLS/library/md.c:392:49
	ldr	r0, [r5, #4]
.Ltmp175:
	.loc	1 393 58 is_stmt 1              @ ../../../ThirdParty/mbedTLS/library/md.c:393:58
	ldr	r2, [r1, #8]
	.loc	1 392 31                        @ ../../../ThirdParty/mbedTLS/library/md.c:392:31
	ldr	r3, [r1, #20]
	add	r1, sp, #4
	.loc	1 392 17 is_stmt 0              @ ../../../ThirdParty/mbedTLS/library/md.c:392:17
	blx	r3
.Ltmp176:
	@DEBUG_VALUE: mbedtls_md_hmac_finish:ret <- $r0
	.loc	1 392 9                         @ ../../../ThirdParty/mbedTLS/library/md.c:392:9
	cmp	r0, #0
	bne	.LBB14_4
.Ltmp177:
@ %bb.8:
	@DEBUG_VALUE: mbedtls_md_hmac_finish:ctx <- $r5
	@DEBUG_VALUE: mbedtls_md_hmac_finish:output <- $r4
	@DEBUG_VALUE: mbedtls_md_hmac_finish:ret <- $r0
	.loc	1 395 18 is_stmt 1              @ ../../../ThirdParty/mbedTLS/library/md.c:395:18
	ldr	r1, [r5]
	.loc	1 395 45 is_stmt 0              @ ../../../ThirdParty/mbedTLS/library/md.c:395:45
	ldr	r0, [r5, #4]
.Ltmp178:
	.loc	1 395 27                        @ ../../../ThirdParty/mbedTLS/library/md.c:395:27
	ldr	r2, [r1, #24]
	.loc	1 395 13                        @ ../../../ThirdParty/mbedTLS/library/md.c:395:13
	mov	r1, r4
	blx	r2
	.loc	1 396 1 is_stmt 1               @ ../../../ThirdParty/mbedTLS/library/md.c:396:1
	add	sp, #68
	pop	{r4, r5, r6, r7, pc}
.Ltmp179:
	.p2align	2
@ %bb.9:
	.loc	1 0 1 is_stmt 0                 @ ../../../ThirdParty/mbedTLS/library/md.c:0:1
__arm_cp.14_0:
	.long	4294946560                      @ 0xffffaf00
.Lcpi_end9:
	.size	__arm_cp.14_0, .Lcpi_end9-__arm_cp.14_0
.Lfunc_end14:
	.size	mbedtls_md_hmac_finish, .Lfunc_end14-mbedtls_md_hmac_finish
	.cfi_endproc
	.cantunwind
	.fnend
                                        @ -- End function
	.section	.text.mbedtls_md_hmac_reset,"ax",%progbits
	.hidden	mbedtls_md_hmac_reset           @ -- Begin function mbedtls_md_hmac_reset
	.globl	mbedtls_md_hmac_reset
	.p2align	2
	.type	mbedtls_md_hmac_reset,%function
	.code	16                              @ @mbedtls_md_hmac_reset
	.thumb_func
mbedtls_md_hmac_reset:
.Lfunc_begin15:
	.loc	1 399 0 is_stmt 1               @ ../../../ThirdParty/mbedTLS/library/md.c:399:0
	.fnstart
	.cfi_startproc
@ %bb.0:
	@DEBUG_VALUE: mbedtls_md_hmac_reset:ctx <- $r0
	.save	{r4, r5, r7, lr}
	push	{r4, r5, r7, lr}
	.cfi_def_cfa_offset 16
	.cfi_offset lr, -4
	.cfi_offset r7, -8
	.cfi_offset r5, -12
	.cfi_offset r4, -16
	mov	r4, r0
	ldr	r0, __arm_cp.15_0
.Ltmp180:
	@DEBUG_VALUE: mbedtls_md_hmac_reset:ctx <- [DW_OP_LLVM_entry_value 1] $r0
	@DEBUG_VALUE: mbedtls_md_hmac_reset:ctx <- $r4
	.loc	1 403 21 prologue_end           @ ../../../ThirdParty/mbedTLS/library/md.c:403:21
	cbz	r4, .LBB15_4
.Ltmp181:
@ %bb.1:
	@DEBUG_VALUE: mbedtls_md_hmac_reset:ctx <- $r4
	.loc	1 403 29 is_stmt 0              @ ../../../ThirdParty/mbedTLS/library/md.c:403:29
	ldr	r1, [r4]
	.loc	1 403 45                        @ ../../../ThirdParty/mbedTLS/library/md.c:403:45
	cbz	r1, .LBB15_4
.Ltmp182:
@ %bb.2:
	@DEBUG_VALUE: mbedtls_md_hmac_reset:ctx <- $r4
	.loc	1 403 53                        @ ../../../ThirdParty/mbedTLS/library/md.c:403:53
	ldr	r5, [r4, #8]
.Ltmp183:
	.loc	1 403 9                         @ ../../../ThirdParty/mbedTLS/library/md.c:403:9
	cbz	r5, .LBB15_4
.Ltmp184:
@ %bb.3:
	@DEBUG_VALUE: mbedtls_md_hmac_reset:ctx <- $r4
	@DEBUG_VALUE: mbedtls_md_hmac_reset:ipad <- $r5
	.loc	1 408 49 is_stmt 1              @ ../../../ThirdParty/mbedTLS/library/md.c:408:49
	ldr	r0, [r4, #4]
	.loc	1 408 31 is_stmt 0              @ ../../../ThirdParty/mbedTLS/library/md.c:408:31
	ldr	r1, [r1, #16]
	.loc	1 408 17                        @ ../../../ThirdParty/mbedTLS/library/md.c:408:17
	blx	r1
.Ltmp185:
	@DEBUG_VALUE: mbedtls_md_hmac_reset:ret <- $r0
	.loc	1 408 9                         @ ../../../ThirdParty/mbedTLS/library/md.c:408:9
	cbz	r0, .LBB15_5
.Ltmp186:
.LBB15_4:
	@DEBUG_VALUE: mbedtls_md_hmac_reset:ctx <- $r4
	.loc	1 412 1 is_stmt 1               @ ../../../ThirdParty/mbedTLS/library/md.c:412:1
	pop	{r4, r5, r7, pc}
.Ltmp187:
.LBB15_5:
	@DEBUG_VALUE: mbedtls_md_hmac_reset:ipad <- $r5
	@DEBUG_VALUE: mbedtls_md_hmac_reset:ctx <- $r4
	@DEBUG_VALUE: mbedtls_md_hmac_reset:ret <- $r0
	.loc	1 410 18                        @ ../../../ThirdParty/mbedTLS/library/md.c:410:18
	ldr	r1, [r4]
	.loc	1 410 45 is_stmt 0              @ ../../../ThirdParty/mbedTLS/library/md.c:410:45
	ldr	r0, [r4, #4]
.Ltmp188:
	.loc	1 411 54 is_stmt 1              @ ../../../ThirdParty/mbedTLS/library/md.c:411:54
	ldr	r2, [r1, #12]
	.loc	1 410 27                        @ ../../../ThirdParty/mbedTLS/library/md.c:410:27
	ldr	r3, [r1, #20]
	.loc	1 410 13 is_stmt 0              @ ../../../ThirdParty/mbedTLS/library/md.c:410:13
	mov	r1, r5
	blx	r3
	.loc	1 412 1 is_stmt 1               @ ../../../ThirdParty/mbedTLS/library/md.c:412:1
	pop	{r4, r5, r7, pc}
.Ltmp189:
	.p2align	2
@ %bb.6:
	.loc	1 0 1 is_stmt 0                 @ ../../../ThirdParty/mbedTLS/library/md.c:0:1
__arm_cp.15_0:
	.long	4294946560                      @ 0xffffaf00
.Lcpi_end10:
	.size	__arm_cp.15_0, .Lcpi_end10-__arm_cp.15_0
.Lfunc_end15:
	.size	mbedtls_md_hmac_reset, .Lfunc_end15-mbedtls_md_hmac_reset
	.cfi_endproc
	.cantunwind
	.fnend
                                        @ -- End function
	.section	.text.mbedtls_md_hmac,"ax",%progbits
	.hidden	mbedtls_md_hmac                 @ -- Begin function mbedtls_md_hmac
	.globl	mbedtls_md_hmac
	.p2align	2
	.type	mbedtls_md_hmac,%function
	.code	16                              @ @mbedtls_md_hmac
	.thumb_func
mbedtls_md_hmac:
.Lfunc_begin16:
	.loc	1 418 0 is_stmt 1               @ ../../../ThirdParty/mbedTLS/library/md.c:418:0
	.fnstart
	.cfi_startproc
@ %bb.0:
	@DEBUG_VALUE: mbedtls_md_hmac:md_info <- $r0
	@DEBUG_VALUE: mbedtls_md_hmac:key <- $r1
	@DEBUG_VALUE: mbedtls_md_hmac:keylen <- $r2
	@DEBUG_VALUE: mbedtls_md_hmac:input <- $r3
	@DEBUG_VALUE: mbedtls_md_hmac:input <- $r3
	@DEBUG_VALUE: mbedtls_md_hmac:keylen <- $r2
	@DEBUG_VALUE: mbedtls_md_hmac:key <- $r1
	@DEBUG_VALUE: mbedtls_md_hmac:md_info <- $r0
	.save	{r4, r5, r6, r7, lr}
	push	{r4, r5, r6, r7, lr}
	.cfi_def_cfa_offset 20
	.cfi_offset lr, -4
	.cfi_offset r7, -8
	.cfi_offset r6, -12
	.cfi_offset r5, -16
	.cfi_offset r4, -20
	.pad	#20
	sub	sp, #20
	.cfi_def_cfa_offset 40
.Ltmp190:
	@DEBUG_VALUE: mbedtls_md_hmac:output <- [DW_OP_plus_uconst 44] [$sp+0]
	@DEBUG_VALUE: mbedtls_md_hmac:ilen <- [DW_OP_plus_uconst 40] [$sp+0]
	.loc	1 422 9 prologue_end            @ ../../../ThirdParty/mbedTLS/library/md.c:422:9
	cbz	r0, .LBB16_6
.Ltmp191:
@ %bb.1:
	@DEBUG_VALUE: mbedtls_md_hmac:input <- $r3
	@DEBUG_VALUE: mbedtls_md_hmac:keylen <- $r2
	@DEBUG_VALUE: mbedtls_md_hmac:key <- $r1
	@DEBUG_VALUE: mbedtls_md_hmac:md_info <- $r0
	@DEBUG_VALUE: mbedtls_md_hmac:ilen <- [DW_OP_plus_uconst 40] [$sp+0]
	@DEBUG_VALUE: mbedtls_md_hmac:output <- [DW_OP_plus_uconst 44] [$sp+0]
	.loc	1 0 9 is_stmt 0                 @ ../../../ThirdParty/mbedTLS/library/md.c:0:9
	mov	r6, r2
.Ltmp192:
	@DEBUG_VALUE: mbedtls_md_hmac:keylen <- $r6
	mov	r7, r1
.Ltmp193:
	@DEBUG_VALUE: mbedtls_md_hmac:key <- $r7
	mov	r5, r0
.Ltmp194:
	@DEBUG_VALUE: mbedtls_md_hmac:md_info <- $r5
	str	r3, [sp, #4]                    @ 4-byte Spill
.Ltmp195:
	@DEBUG_VALUE: mbedtls_md_hmac:input <- [DW_OP_plus_uconst 4] [$sp+0]
	add	r4, sp, #8
	.loc	1 425 5 is_stmt 1               @ ../../../ThirdParty/mbedTLS/library/md.c:425:5
	mov	r0, r4
	bl	mbedtls_md_init
	movs	r2, #1
.Ltmp196:
	.loc	1 427 17                        @ ../../../ThirdParty/mbedTLS/library/md.c:427:17
	mov	r0, r4
	mov	r1, r5
	bl	mbedtls_md_setup
	mov	r5, r0
.Ltmp197:
	@DEBUG_VALUE: mbedtls_md_hmac:md_info <- [DW_OP_LLVM_entry_value 1] $r0
	@DEBUG_VALUE: mbedtls_md_hmac:ret <- $r5
	.loc	1 427 9 is_stmt 0               @ ../../../ThirdParty/mbedTLS/library/md.c:427:9
	cbnz	r0, .LBB16_5
.Ltmp198:
@ %bb.2:
	@DEBUG_VALUE: mbedtls_md_hmac:input <- [DW_OP_plus_uconst 4] [$sp+0]
	@DEBUG_VALUE: mbedtls_md_hmac:key <- $r7
	@DEBUG_VALUE: mbedtls_md_hmac:keylen <- $r6
	@DEBUG_VALUE: mbedtls_md_hmac:ret <- $r5
	@DEBUG_VALUE: mbedtls_md_hmac:ilen <- [DW_OP_plus_uconst 40] [$sp+0]
	@DEBUG_VALUE: mbedtls_md_hmac:output <- [DW_OP_plus_uconst 44] [$sp+0]
	@DEBUG_VALUE: mbedtls_md_hmac:md_info <- [DW_OP_LLVM_entry_value 1] $r0
	.loc	1 0 9                           @ ../../../ThirdParty/mbedTLS/library/md.c:0:9
	add	r0, sp, #8
.Ltmp199:
	.loc	1 430 17 is_stmt 1              @ ../../../ThirdParty/mbedTLS/library/md.c:430:17
	mov	r1, r7
	mov	r2, r6
	bl	mbedtls_md_hmac_starts
	mov	r5, r0
.Ltmp200:
	@DEBUG_VALUE: mbedtls_md_hmac:ret <- $r5
	.loc	1 430 9 is_stmt 0               @ ../../../ThirdParty/mbedTLS/library/md.c:430:9
	cbnz	r0, .LBB16_5
.Ltmp201:
@ %bb.3:
	@DEBUG_VALUE: mbedtls_md_hmac:input <- [DW_OP_plus_uconst 4] [$sp+0]
	@DEBUG_VALUE: mbedtls_md_hmac:key <- $r7
	@DEBUG_VALUE: mbedtls_md_hmac:keylen <- $r6
	@DEBUG_VALUE: mbedtls_md_hmac:ret <- $r5
	@DEBUG_VALUE: mbedtls_md_hmac:ilen <- [DW_OP_plus_uconst 40] [$sp+0]
	@DEBUG_VALUE: mbedtls_md_hmac:output <- [DW_OP_plus_uconst 44] [$sp+0]
	@DEBUG_VALUE: mbedtls_md_hmac:md_info <- [DW_OP_LLVM_entry_value 1] $r0
	.loc	1 0 9                           @ ../../../ThirdParty/mbedTLS/library/md.c:0:9
	ldr	r2, [sp, #40]
	add	r0, sp, #8
.Ltmp202:
	.loc	1 432 17 is_stmt 1              @ ../../../ThirdParty/mbedTLS/library/md.c:432:17
	ldr	r1, [sp, #4]                    @ 4-byte Reload
.Ltmp203:
	@DEBUG_VALUE: mbedtls_md_hmac:input <- $r1
	bl	mbedtls_md_hmac_update
.Ltmp204:
	@DEBUG_VALUE: mbedtls_md_hmac:input <- [DW_OP_LLVM_entry_value 1] $r3
	mov	r5, r0
.Ltmp205:
	@DEBUG_VALUE: mbedtls_md_hmac:ret <- $r5
	.loc	1 432 9 is_stmt 0               @ ../../../ThirdParty/mbedTLS/library/md.c:432:9
	cbnz	r0, .LBB16_5
.Ltmp206:
@ %bb.4:
	@DEBUG_VALUE: mbedtls_md_hmac:key <- $r7
	@DEBUG_VALUE: mbedtls_md_hmac:keylen <- $r6
	@DEBUG_VALUE: mbedtls_md_hmac:ret <- $r5
	@DEBUG_VALUE: mbedtls_md_hmac:ilen <- [DW_OP_plus_uconst 40] [$sp+0]
	@DEBUG_VALUE: mbedtls_md_hmac:output <- [DW_OP_plus_uconst 44] [$sp+0]
	@DEBUG_VALUE: mbedtls_md_hmac:input <- [DW_OP_LLVM_entry_value 1] $r3
	@DEBUG_VALUE: mbedtls_md_hmac:md_info <- [DW_OP_LLVM_entry_value 1] $r0
	.loc	1 0 9                           @ ../../../ThirdParty/mbedTLS/library/md.c:0:9
	ldr	r1, [sp, #44]
	add	r0, sp, #8
.Ltmp207:
	.loc	1 434 17 is_stmt 1              @ ../../../ThirdParty/mbedTLS/library/md.c:434:17
	bl	mbedtls_md_hmac_finish
	mov	r5, r0
.Ltmp208:
	@DEBUG_VALUE: mbedtls_md_hmac:ret <- $r5
.LBB16_5:
	@DEBUG_VALUE: mbedtls_md_hmac:key <- $r7
	@DEBUG_VALUE: mbedtls_md_hmac:keylen <- $r6
	@DEBUG_VALUE: mbedtls_md_hmac:ret <- $r5
	@DEBUG_VALUE: mbedtls_md_hmac:ilen <- [DW_OP_plus_uconst 40] [$sp+0]
	@DEBUG_VALUE: mbedtls_md_hmac:output <- [DW_OP_plus_uconst 44] [$sp+0]
	@DEBUG_VALUE: mbedtls_md_hmac:md_info <- [DW_OP_LLVM_entry_value 1] $r0
	@DEBUG_VALUE: mbedtls_md_hmac:ret <- $r5
	@DEBUG_LABEL: mbedtls_md_hmac:cleanup
	.loc	1 0 17 is_stmt 0                @ ../../../ThirdParty/mbedTLS/library/md.c:0:17
	add	r0, sp, #8
	.loc	1 438 5 is_stmt 1               @ ../../../ThirdParty/mbedTLS/library/md.c:438:5
	bl	mbedtls_md_free
	b	.LBB16_7
.Ltmp209:
.LBB16_6:
	@DEBUG_VALUE: mbedtls_md_hmac:input <- $r3
	@DEBUG_VALUE: mbedtls_md_hmac:keylen <- $r2
	@DEBUG_VALUE: mbedtls_md_hmac:key <- $r1
	@DEBUG_VALUE: mbedtls_md_hmac:md_info <- $r0
	@DEBUG_VALUE: mbedtls_md_hmac:ilen <- [DW_OP_plus_uconst 40] [$sp+0]
	@DEBUG_VALUE: mbedtls_md_hmac:output <- [DW_OP_plus_uconst 44] [$sp+0]
	.loc	1 0 5 is_stmt 0                 @ ../../../ThirdParty/mbedTLS/library/md.c:0:5
	ldr	r5, __arm_cp.16_0
.Ltmp210:
.LBB16_7:
	@DEBUG_VALUE: mbedtls_md_hmac:ilen <- [DW_OP_plus_uconst 40] [$sp+0]
	@DEBUG_VALUE: mbedtls_md_hmac:output <- [DW_OP_plus_uconst 44] [$sp+0]
	.loc	1 441 1 is_stmt 1               @ ../../../ThirdParty/mbedTLS/library/md.c:441:1
	mov	r0, r5
	add	sp, #20
.Ltmp211:
	pop	{r4, r5, r6, r7, pc}
.Ltmp212:
	.p2align	2
@ %bb.8:
	.loc	1 0 1 is_stmt 0                 @ ../../../ThirdParty/mbedTLS/library/md.c:0:1
__arm_cp.16_0:
	.long	4294946560                      @ 0xffffaf00
.Lcpi_end11:
	.size	__arm_cp.16_0, .Lcpi_end11-__arm_cp.16_0
.Lfunc_end16:
	.size	mbedtls_md_hmac, .Lfunc_end16-mbedtls_md_hmac
	.cfi_endproc
	.cantunwind
	.fnend
                                        @ -- End function
	.section	.text.mbedtls_md_process,"ax",%progbits
	.hidden	mbedtls_md_process              @ -- Begin function mbedtls_md_process
	.globl	mbedtls_md_process
	.p2align	2
	.type	mbedtls_md_process,%function
	.code	16                              @ @mbedtls_md_process
	.thumb_func
mbedtls_md_process:
.Lfunc_begin17:
	.loc	1 444 0 is_stmt 1               @ ../../../ThirdParty/mbedTLS/library/md.c:444:0
	.fnstart
	.cfi_startproc
@ %bb.0:
	@DEBUG_VALUE: mbedtls_md_process:ctx <- $r0
	@DEBUG_VALUE: mbedtls_md_process:data <- $r1
	.save	{r7, lr}
	push	{r7, lr}
	.cfi_def_cfa_offset 8
	.cfi_offset lr, -4
	.cfi_offset r7, -8
	mov	r2, r0
	ldr	r0, __arm_cp.17_0
.Ltmp213:
	@DEBUG_VALUE: mbedtls_md_process:ctx <- [DW_OP_LLVM_entry_value 1] $r0
	@DEBUG_VALUE: mbedtls_md_process:data <- $r1
	@DEBUG_VALUE: mbedtls_md_process:ctx <- $r2
	.loc	1 445 21 prologue_end           @ ../../../ThirdParty/mbedTLS/library/md.c:445:21
	cbz	r2, .LBB17_3
.Ltmp214:
@ %bb.1:
	@DEBUG_VALUE: mbedtls_md_process:ctx <- $r2
	@DEBUG_VALUE: mbedtls_md_process:data <- $r1
	.loc	1 445 29 is_stmt 0              @ ../../../ThirdParty/mbedTLS/library/md.c:445:29
	ldr	r3, [r2]
.Ltmp215:
	.loc	1 445 9                         @ ../../../ThirdParty/mbedTLS/library/md.c:445:9
	cbz	r3, .LBB17_3
.Ltmp216:
@ %bb.2:
	@DEBUG_VALUE: mbedtls_md_process:ctx <- $r2
	@DEBUG_VALUE: mbedtls_md_process:data <- $r1
	.loc	1 448 46 is_stmt 1              @ ../../../ThirdParty/mbedTLS/library/md.c:448:46
	ldr	r0, [r2, #4]
	.loc	1 448 27 is_stmt 0              @ ../../../ThirdParty/mbedTLS/library/md.c:448:27
	ldr	r2, [r3, #44]
.Ltmp217:
	.loc	1 448 13                        @ ../../../ThirdParty/mbedTLS/library/md.c:448:13
	blx	r2
.Ltmp218:
	@DEBUG_VALUE: mbedtls_md_process:data <- [DW_OP_LLVM_entry_value 1] $r1
.LBB17_3:
	.loc	1 449 1 is_stmt 1               @ ../../../ThirdParty/mbedTLS/library/md.c:449:1
	pop	{r7, pc}
.Ltmp219:
	.p2align	2
@ %bb.4:
	.loc	1 0 1 is_stmt 0                 @ ../../../ThirdParty/mbedTLS/library/md.c:0:1
__arm_cp.17_0:
	.long	4294946560                      @ 0xffffaf00
.Lcpi_end12:
	.size	__arm_cp.17_0, .Lcpi_end12-__arm_cp.17_0
.Lfunc_end17:
	.size	mbedtls_md_process, .Lfunc_end17-mbedtls_md_process
	.cfi_endproc
	.cantunwind
	.fnend
                                        @ -- End function
	.section	.text.mbedtls_md_get_size,"ax",%progbits
	.hidden	mbedtls_md_get_size             @ -- Begin function mbedtls_md_get_size
	.globl	mbedtls_md_get_size
	.p2align	1
	.type	mbedtls_md_get_size,%function
	.code	16                              @ @mbedtls_md_get_size
	.thumb_func
mbedtls_md_get_size:
.Lfunc_begin18:
	.loc	1 452 0 is_stmt 1               @ ../../../ThirdParty/mbedTLS/library/md.c:452:0
	.fnstart
	.cfi_startproc
@ %bb.0:
	@DEBUG_VALUE: mbedtls_md_get_size:md_info <- $r0
	@DEBUG_VALUE: mbedtls_md_get_size:md_info <- $r0
	.loc	1 453 9 prologue_end            @ ../../../ThirdParty/mbedTLS/library/md.c:453:9
	cbz	r0, .LBB18_2
.Ltmp220:
@ %bb.1:
	@DEBUG_VALUE: mbedtls_md_get_size:md_info <- $r0
	.loc	1 456 21                        @ ../../../ThirdParty/mbedTLS/library/md.c:456:21
	ldr	r0, [r0, #8]
.Ltmp221:
	@DEBUG_VALUE: mbedtls_md_get_size:md_info <- [DW_OP_LLVM_entry_value 1] $r0
	.loc	1 457 1                         @ ../../../ThirdParty/mbedTLS/library/md.c:457:1
	uxtb	r0, r0
	bx	lr
.Ltmp222:
.LBB18_2:
	@DEBUG_VALUE: mbedtls_md_get_size:md_info <- $r0
	.loc	1 0 1 is_stmt 0                 @ ../../../ThirdParty/mbedTLS/library/md.c:0:1
	movs	r0, #0
.Ltmp223:
	@DEBUG_VALUE: mbedtls_md_get_size:md_info <- [DW_OP_LLVM_entry_value 1] $r0
	.loc	1 457 1                         @ ../../../ThirdParty/mbedTLS/library/md.c:457:1
	uxtb	r0, r0
	bx	lr
.Ltmp224:
.Lfunc_end18:
	.size	mbedtls_md_get_size, .Lfunc_end18-mbedtls_md_get_size
	.cfi_endproc
	.cantunwind
	.fnend
                                        @ -- End function
	.section	.text.mbedtls_md_get_type,"ax",%progbits
	.hidden	mbedtls_md_get_type             @ -- Begin function mbedtls_md_get_type
	.globl	mbedtls_md_get_type
	.p2align	1
	.type	mbedtls_md_get_type,%function
	.code	16                              @ @mbedtls_md_get_type
	.thumb_func
mbedtls_md_get_type:
.Lfunc_begin19:
	.loc	1 460 0 is_stmt 1               @ ../../../ThirdParty/mbedTLS/library/md.c:460:0
	.fnstart
	.cfi_startproc
@ %bb.0:
	@DEBUG_VALUE: mbedtls_md_get_type:md_info <- $r0
	@DEBUG_VALUE: mbedtls_md_get_type:md_info <- $r0
	.loc	1 461 9 prologue_end            @ ../../../ThirdParty/mbedTLS/library/md.c:461:9
	cbz	r0, .LBB19_2
.Ltmp225:
@ %bb.1:
	@DEBUG_VALUE: mbedtls_md_get_type:md_info <- $r0
	.loc	1 464 21                        @ ../../../ThirdParty/mbedTLS/library/md.c:464:21
	ldrb	r0, [r0]
.Ltmp226:
	@DEBUG_VALUE: mbedtls_md_get_type:md_info <- [DW_OP_LLVM_entry_value 1] $r0
	.loc	1 465 1                         @ ../../../ThirdParty/mbedTLS/library/md.c:465:1
	bx	lr
.Ltmp227:
.LBB19_2:
	@DEBUG_VALUE: mbedtls_md_get_type:md_info <- $r0
	.loc	1 0 1 is_stmt 0                 @ ../../../ThirdParty/mbedTLS/library/md.c:0:1
	movs	r0, #0
.Ltmp228:
	@DEBUG_VALUE: mbedtls_md_get_type:md_info <- [DW_OP_LLVM_entry_value 1] $r0
	.loc	1 465 1                         @ ../../../ThirdParty/mbedTLS/library/md.c:465:1
	bx	lr
.Ltmp229:
.Lfunc_end19:
	.size	mbedtls_md_get_type, .Lfunc_end19-mbedtls_md_get_type
	.cfi_endproc
	.cantunwind
	.fnend
                                        @ -- End function
	.section	.text.mbedtls_md_get_name,"ax",%progbits
	.hidden	mbedtls_md_get_name             @ -- Begin function mbedtls_md_get_name
	.globl	mbedtls_md_get_name
	.p2align	1
	.type	mbedtls_md_get_name,%function
	.code	16                              @ @mbedtls_md_get_name
	.thumb_func
mbedtls_md_get_name:
.Lfunc_begin20:
	.loc	1 468 0 is_stmt 1               @ ../../../ThirdParty/mbedTLS/library/md.c:468:0
	.fnstart
	.cfi_startproc
@ %bb.0:
	@DEBUG_VALUE: mbedtls_md_get_name:md_info <- $r0
	@DEBUG_VALUE: mbedtls_md_get_name:md_info <- $r0
	.loc	1 469 9 prologue_end            @ ../../../ThirdParty/mbedTLS/library/md.c:469:9
	cbz	r0, .LBB20_2
.Ltmp230:
@ %bb.1:
	@DEBUG_VALUE: mbedtls_md_get_name:md_info <- $r0
	.loc	1 472 21                        @ ../../../ThirdParty/mbedTLS/library/md.c:472:21
	ldr	r0, [r0, #4]
.Ltmp231:
	@DEBUG_VALUE: mbedtls_md_get_name:md_info <- [DW_OP_LLVM_entry_value 1] $r0
	.loc	1 473 1                         @ ../../../ThirdParty/mbedTLS/library/md.c:473:1
	bx	lr
.Ltmp232:
.LBB20_2:
	@DEBUG_VALUE: mbedtls_md_get_name:md_info <- $r0
	.loc	1 0 1 is_stmt 0                 @ ../../../ThirdParty/mbedTLS/library/md.c:0:1
	movs	r0, #0
.Ltmp233:
	@DEBUG_VALUE: mbedtls_md_get_name:md_info <- [DW_OP_LLVM_entry_value 1] $r0
	.loc	1 473 1                         @ ../../../ThirdParty/mbedTLS/library/md.c:473:1
	bx	lr
.Ltmp234:
.Lfunc_end20:
	.size	mbedtls_md_get_name, .Lfunc_end20-mbedtls_md_get_name
	.cfi_endproc
	.cantunwind
	.fnend
                                        @ -- End function
	.type	supported_digests,%object       @ @supported_digests
	.section	.rodata.supported_digests,"a",%progbits
	.p2align	2
supported_digests:
	.long	8                               @ 0x8
	.long	7                               @ 0x7
	.long	6                               @ 0x6
	.long	5                               @ 0x5
	.long	4                               @ 0x4
	.long	9                               @ 0x9
	.long	3                               @ 0x3
	.long	0                               @ 0x0
	.size	supported_digests, 32

	.file	4 "C:\\Users\\shw26\\OneDrive\\Desktop\\2021\\2021-1\\\354\272\241\354\212\244\355\206\244\353\224\224\354\236\220\354\235\2702\\Nuvoton\\M2351_BSP_v3.00.004\\M2351Series_BSP_CMSIS_V3.00.004\\MyProject\\PulseMonitoring\\Secure" "../../../ThirdParty/mbedTLS/include/mbedtls\\md_internal.h"
	.section	".note.GNU-stack","",%progbits
	.eabi_attribute	30, 1	@ Tag_ABI_optimization_goals
	.ARM_attribute	16, 1	@ Tag_AV_eba