	.text
	.syntax unified
	.eabi_attribute	67, "2.09"	@ Tag_conformance
	.cpu	cortex-m23
	.eabi_attribute	6, 16	@ Tag_CPU_arch
	.eabi_attribute	7, 77	@ Tag_CPU_arch_profile
	.eabi_attribute	8, 0	@ Tag_ARM_ISA_use
	.eabi_attribute	9, 3	@ Tag_THUMB_ISA_use
	.eabi_attribute	34, 0	@ Tag_CPU_unaligned_access
	.eabi_attribute	17, 1	@ Tag_ABI_PCS_GOT_use
	.eabi_attribute	20, 2	@ Tag_ABI_FP_denormal
	.eabi_attribute	21, 0	@ Tag_ABI_FP_exceptions
	.eabi_attribute	23, 1	@ Tag_ABI_FP_number_model
	.eabi_attribute	24, 1	@ Tag_ABI_align_needed
	.eabi_attribute	25, 1	@ Tag_ABI_align_preserved
	.eabi_attribute	38, 1	@ Tag_ABI_FP_16bit_format
	.eabi_attribute	18, 2	@ Tag_ABI_PCS_wchar_t
	.eabi_attribute	26, 1	@ Tag_ABI_enum_size
	.eabi_attribute	14, 0	@ Tag_ABI_PCS_R9_use
	.file	"md5.c"
	.file	1 "C:\\Users\\shw26\\OneDrive\\Desktop\\2021\\2021-1\\\354\272\241\354\212\244\355\206\244\353\224\224\354\236\220\354\235\2702\\Nuvoton\\M2351_BSP_v3.00.004\\M2351Series_BSP_CMSIS_V3.00.004\\MyProject\\PulseMonitoring\\Secure" "../../../ThirdParty/mbedTLS/library/md5.c"
	.file	2 "C:\\" "Keil_v5\\ARM\\ARMCLANG\\Bin\\..\\include\\stddef.h"
	.file	3 "C:\\" "Keil_v5\\ARM\\ARMCLANG\\Bin\\..\\include\\stdint.h"
	.section	.text.mbedtls_md5_init,"ax",%progbits
	.hidden	mbedtls_md5_init                @ -- Begin function mbedtls_md5_init
	.globl	mbedtls_md5_init
	.p2align	1
	.type	mbedtls_md5_init,%function
	.code	16                              @ @mbedtls_md5_init
	.thumb_func
mbedtls_md5_init:
.Lfunc_begin0:
	.loc	1 75 0                          @ ../../../ThirdParty/mbedTLS/library/md5.c:75:0
	.fnstart
	.cfi_sections .debug_frame
	.cfi_startproc
@ %bb.0:
	@DEBUG_VALUE: mbedtls_md5_init:ctx <- $r0
	@DEBUG_VALUE: mbedtls_md5_init:ctx <- $r0
	.save	{r7, lr}
	push	{r7, lr}
	.cfi_def_cfa_offset 8
	.cfi_offset lr, -4
	.cfi_offset r7, -8
	movs	r1, #88
	@DEBUG_VALUE: mbedtls_md5_init:ctx <- $r0
.Ltmp0:
	.loc	1 76 5 prologue_end             @ ../../../ThirdParty/mbedTLS/library/md5.c:76:5
	bl	__aeabi_memclr4
.Ltmp1:
	@DEBUG_VALUE: mbedtls_md5_init:ctx <- [DW_OP_LLVM_entry_value 1] $r0
	.loc	1 77 1                          @ ../../../ThirdParty/mbedTLS/library/md5.c:77:1
	pop	{r7, pc}
.Ltmp2:
.Lfunc_end0:
	.size	mbedtls_md5_init, .Lfunc_end0-mbedtls_md5_init
	.cfi_endproc
	.cantunwind
	.fnend
                                        @ -- End function
	.section	.text.mbedtls_md5_free,"ax",%progbits
	.hidden	mbedtls_md5_free                @ -- Begin function mbedtls_md5_free
	.globl	mbedtls_md5_free
	.p2align	1
	.type	mbedtls_md5_free,%function
	.code	16                              @ @mbedtls_md5_free
	.thumb_func
mbedtls_md5_free:
.Lfunc_begin1:
	.loc	1 80 0                          @ ../../../ThirdParty/mbedTLS/library/md5.c:80:0
	.fnstart
	.cfi_startproc
@ %bb.0:
	@DEBUG_VALUE: mbedtls_md5_free:ctx <- $r0
	@DEBUG_VALUE: mbedtls_md5_free:ctx <- $r0
	.save	{r7, lr}
	push	{r7, lr}
	.cfi_def_cfa_offset 8
	.cfi_offset lr, -4
	.cfi_offset r7, -8
.Ltmp3:
	.loc	1 81 9 prologue_end             @ ../../../ThirdParty/mbedTLS/library/md5.c:81:9
	cbz	r0, .LBB1_2
.Ltmp4:
@ %bb.1:
	@DEBUG_VALUE: mbedtls_md5_free:ctx <- $r0
	.loc	1 0 9 is_stmt 0                 @ ../../../ThirdParty/mbedTLS/library/md5.c:0:9
	movs	r1, #88
	.loc	1 84 5 is_stmt 1                @ ../../../ThirdParty/mbedTLS/library/md5.c:84:5
	bl	mbedtls_platform_zeroize
.Ltmp5:
	@DEBUG_VALUE: mbedtls_md5_free:ctx <- [DW_OP_LLVM_entry_value 1] $r0
.LBB1_2:
	.loc	1 85 1                          @ ../../../ThirdParty/mbedTLS/library/md5.c:85:1
	pop	{r7, pc}
.Ltmp6:
.Lfunc_end1:
	.size	mbedtls_md5_free, .Lfunc_end1-mbedtls_md5_free
	.cfi_endproc
	.cantunwind
	.fnend
                                        @ -- End function
	.section	.text.mbedtls_md5_clone,"ax",%progbits
	.hidden	mbedtls_md5_clone               @ -- Begin function mbedtls_md5_clone
	.globl	mbedtls_md5_clone
	.p2align	1
	.type	mbedtls_md5_clone,%function
	.code	16                              @ @mbedtls_md5_clone
	.thumb_func
mbedtls_md5_clone:
.Lfunc_begin2:
	.loc	1 89 0                          @ ../../../ThirdParty/mbedTLS/library/md5.c:89:0
	.fnstart
	.cfi_startproc
@ %bb.0:
	@DEBUG_VALUE: mbedtls_md5_clone:dst <- $r0
	@DEBUG_VALUE: mbedtls_md5_clone:dst <- $r0
	@DEBUG_VALUE: mbedtls_md5_clone:src <- $r1
	@DEBUG_VALUE: mbedtls_md5_clone:src <- $r1
	.save	{r7, lr}
	push	{r7, lr}
	.cfi_def_cfa_offset 8
	.cfi_offset lr, -4
	.cfi_offset r7, -8
	movs	r2, #88
	@DEBUG_VALUE: mbedtls_md5_clone:src <- $r1
	@DEBUG_VALUE: mbedtls_md5_clone:dst <- $r0
.Ltmp7:
	.loc	1 90 12 prologue_end            @ ../../../ThirdParty/mbedTLS/library/md5.c:90:12
	bl	__aeabi_memcpy4
.Ltmp8:
	@DEBUG_VALUE: mbedtls_md5_clone:src <- [DW_OP_LLVM_entry_value 1] $r1
	@DEBUG_VALUE: mbedtls_md5_clone:dst <- [DW_OP_LLVM_entry_value 1] $r0
	.loc	1 91 1                          @ ../../../ThirdParty/mbedTLS/library/md5.c:91:1
	pop	{r7, pc}
.Ltmp9:
.Lfunc_end2:
	.size	mbedtls_md5_clone, .Lfunc_end2-mbedtls_md5_clone
	.cfi_endproc
	.cantunwind
	.fnend
                                        @ -- End function
	.section	.text.mbedtls_md5_starts_ret,"ax",%progbits
	.hidden	mbedtls_md5_starts_ret          @ -- Begin function mbedtls_md5_starts_ret
	.globl	mbedtls_md5_starts_ret
	.p2align	2
	.type	mbedtls_md5_starts_ret,%function
	.code	16                              @ @mbedtls_md5_starts_ret
	.thumb_func
mbedtls_md5_starts_ret:
.Lfunc_begin3:
	.loc	1 97 0                          @ ../../../ThirdParty/mbedTLS/library/md5.c:97:0
	.fnstart
	.cfi_startproc
@ %bb.0:
	@DEBUG_VALUE: mbedtls_md5_starts_ret:ctx <- $r0
	.save	{r4, r5, r7, lr}
	push	{r4, r5, r7, lr}
	.cfi_def_cfa_offset 16
	.cfi_offset lr, -4
	.cfi_offset r7, -8
	.cfi_offset r5, -12
	.cfi_offset r4, -16
	ldr	r2, __arm_cp.3_0
	ldr	r3, __arm_cp.3_1
	ldr	r4, __arm_cp.3_2
	ldr	r5, __arm_cp.3_3
	movs	r1, #0
	@DEBUG_VALUE: mbedtls_md5_starts_ret:ctx <- $r0
.Ltmp10:
	.loc	1 98 19 prologue_end            @ ../../../ThirdParty/mbedTLS/library/md5.c:98:19
	str	r1, [r0]
	.loc	1 99 19                         @ ../../../ThirdParty/mbedTLS/library/md5.c:99:19
	str	r1, [r0, #4]
	.loc	1 101 19                        @ ../../../ThirdParty/mbedTLS/library/md5.c:101:19
	str	r5, [r0, #8]
	.loc	1 102 19                        @ ../../../ThirdParty/mbedTLS/library/md5.c:102:19
	str	r4, [r0, #12]
	.loc	1 103 19                        @ ../../../ThirdParty/mbedTLS/library/md5.c:103:19
	str	r3, [r0, #16]
	.loc	1 104 19                        @ ../../../ThirdParty/mbedTLS/library/md5.c:104:19
	str	r2, [r0, #20]
	.loc	1 106 5                         @ ../../../ThirdParty/mbedTLS/library/md5.c:106:5
	mov	r0, r1
.Ltmp11:
	@DEBUG_VALUE: mbedtls_md5_starts_ret:ctx <- [DW_OP_LLVM_entry_value 1] $r0
	pop	{r4, r5, r7, pc}
.Ltmp12:
	.p2align	2
@ %bb.1:
	.loc	1 0 5 is_stmt 0                 @ ../../../ThirdParty/mbedTLS/library/md5.c:0:5
__arm_cp.3_0:
	.long	271733878                       @ 0x10325476
.Lcpi_end0:
	.size	__arm_cp.3_0, .Lcpi_end0-__arm_cp.3_0
__arm_cp.3_1:
	.long	2562383102                      @ 0x98badcfe
.Lcpi_end1:
	.size	__arm_cp.3_1, .Lcpi_end1-__arm_cp.3_1
__arm_cp.3_2:
	.long	4023233417                      @ 0xefcdab89
.Lcpi_end2:
	.size	__arm_cp.3_2, .Lcpi_end2-__arm_cp.3_2
__arm_cp.3_3:
	.long	1732584193                      @ 0x67452301
.Lcpi_end3:
	.size	__arm_cp.3_3, .Lcpi_end3-__arm_cp.3_3
.Lfunc_end3:
	.size	mbedtls_md5_starts_ret, .Lfunc_end3-mbedtls_md5_starts_ret
	.cfi_endproc
	.cantunwind
	.fnend
                                        @ -- End function
	.section	.text.mbedtls_md5_starts,"ax",%progbits
	.hidden	mbedtls_md5_starts              @ -- Begin function mbedtls_md5_starts
	.globl	mbedtls_md5_starts
	.p2align	1
	.type	mbedtls_md5_starts,%function
	.code	16                              @ @mbedtls_md5_starts
	.thumb_func
mbedtls_md5_starts:
.Lfunc_begin4:
	.loc	1 111 0 is_stmt 1               @ ../../../ThirdParty/mbedTLS/library/md5.c:111:0
	.fnstart
	.cfi_startproc
@ %bb.0:
	@DEBUG_VALUE: mbedtls_md5_starts:ctx <- $r0
	@DEBUG_VALUE: mbedtls_md5_starts:ctx <- $r0
	@DEBUG_VALUE: mbedtls_md5_starts:ctx <- $r0
	.save	{r7, lr}
	push	{r7, lr}
	.cfi_def_cfa_offset 8
	.cfi_offset lr, -4
	.cfi_offset r7, -8
.Ltmp13:
	.loc	1 112 5 prologue_end            @ ../../../ThirdParty/mbedTLS/library/md5.c:112:5
	bl	mbedtls_md5_starts_ret
.Ltmp14:
	@DEBUG_VALUE: mbedtls_md5_starts:ctx <- [DW_OP_LLVM_entry_value 1] $r0
	.loc	1 113 1                         @ ../../../ThirdParty/mbedTLS/library/md5.c:113:1
	pop	{r7, pc}
.Ltmp15:
.Lfunc_end4:
	.size	mbedtls_md5_starts, .Lfunc_end4-mbedtls_md5_starts
	.cfi_endproc
	.cantunwind
	.fnend
                                        @ -- End function
	.section	.text.mbedtls_internal_md5_process,"ax",%progbits
	.hidden	mbedtls_internal_md5_process    @ -- Begin function mbedtls_internal_md5_process
	.globl	mbedtls_internal_md5_process
	.p2align	2
	.type	mbedtls_internal_md5_process,%function
	.code	16                              @ @mbedtls_internal_md5_process
	.thumb_func
mbedtls_internal_md5_process:
.Lfunc_begin5:
	.loc	1 119 0                         @ ../../../ThirdParty/mbedTLS/library/md5.c:119:0
	.fnstart
	.cfi_startproc
@ %bb.0:
	@DEBUG_VALUE: mbedtls_internal_md5_process:ctx <- $r0
	@DEBUG_VALUE: mbedtls_internal_md5_process:data <- $r1
	.save	{r4, r5, r6, r7, lr}
	push	{r4, r5, r6, r7, lr}
	.cfi_def_cfa_offset 20
	.cfi_offset lr, -4
	.cfi_offset r7, -8
	.cfi_offset r6, -12
	.cfi_offset r5, -16
	.cfi_offset r4, -20
	.pad	#100
	sub	sp, #100
	.cfi_def_cfa_offset 120
.Ltmp16:
	@DEBUG_VALUE: mbedtls_internal_md5_process:C <- undef
	@DEBUG_VALUE: mbedtls_internal_md5_process:D <- undef
	.loc	1 146 9 prologue_end            @ ../../../ThirdParty/mbedTLS/library/md5.c:146:9
	str	r0, [sp, #16]                   @ 4-byte Spill
	@DEBUG_VALUE: mbedtls_internal_md5_process:data <- $r1
	@DEBUG_VALUE: mbedtls_internal_md5_process:ctx <- $r0
	ldr	r5, [r0, #8]
	.loc	1 147 9                         @ ../../../ThirdParty/mbedTLS/library/md5.c:147:9
	str	r5, [sp, #12]                   @ 4-byte Spill
	ldr	r4, [r0, #12]
	.loc	1 148 9                         @ ../../../ThirdParty/mbedTLS/library/md5.c:148:9
	ldr	r6, [r0, #16]
	.loc	1 149 9                         @ ../../../ThirdParty/mbedTLS/library/md5.c:149:9
	ldr	r2, [r0, #20]
.Ltmp17:
	@DEBUG_VALUE: mbedtls_internal_md5_process:ctx <- [DW_OP_plus_uconst 16] [$sp+0]
	.loc	1 153 5                         @ ../../../ThirdParty/mbedTLS/library/md5.c:153:5
	mov	r0, r2
	eors	r0, r6
.Ltmp18:
	@DEBUG_VALUE: mbedtls_internal_md5_process:B <- $r4
	ands	r0, r4
	eors	r0, r2
	mov	r7, r2
.Ltmp19:
	.loc	1 122 5                         @ ../../../ThirdParty/mbedTLS/library/md5.c:122:5
	str	r2, [sp, #8]                    @ 4-byte Spill
	ldrb	r2, [r1]
	ldrb	r3, [r1, #1]
	lsls	r3, r3, #8
	adds	r2, r3, r2
	ldrb	r3, [r1, #2]
	lsls	r3, r3, #16
	adds	r2, r2, r3
	ldrb	r3, [r1, #3]
	lsls	r3, r3, #24
	adds	r2, r2, r3
.Ltmp20:
	@DEBUG_VALUE: mbedtls_internal_md5_process:A <- $r5
	@DEBUG_VALUE: mbedtls_internal_md5_process:X <- [DW_OP_LLVM_fragment 0 32] $r2
	.loc	1 153 5                         @ ../../../ThirdParty/mbedTLS/library/md5.c:153:5
	str	r2, [sp, #84]                   @ 4-byte Spill
.Ltmp21:
	@DEBUG_VALUE: mbedtls_internal_md5_process:X <- [DW_OP_plus_uconst 84, DW_OP_LLVM_fragment 0 32] [$sp+0]
	adds	r2, r2, r5
.Ltmp22:
	@DEBUG_VALUE: mbedtls_internal_md5_process:A <- [DW_OP_plus_uconst 12] [$sp+0]
	@DEBUG_VALUE: mbedtls_internal_md5_process:X <- [DW_OP_plus_uconst 84, DW_OP_LLVM_fragment 0 32] [$sp+0]
	@DEBUG_VALUE: mbedtls_internal_md5_process:X <- [DW_OP_LLVM_fragment 0 32] $r2
	adds	r0, r2, r0
	ldr	r2, __arm_cp.5_63
.Ltmp23:
	adds	r0, r0, r2
.Ltmp24:
	@DEBUG_VALUE: mbedtls_internal_md5_process:A <- $r0
	.loc	1 0 5 is_stmt 0                 @ ../../../ThirdParty/mbedTLS/library/md5.c:0:5
	movs	r2, #25
	.loc	1 153 5                         @ ../../../ThirdParty/mbedTLS/library/md5.c:153:5
	str	r2, [sp, #52]                   @ 4-byte Spill
	rors	r0, r2
.Ltmp25:
	@DEBUG_VALUE: mbedtls_internal_md5_process:B <- $r4
	adds	r5, r0, r4
.Ltmp26:
	@DEBUG_VALUE: mbedtls_internal_md5_process:A <- $r5
	.loc	1 154 5 is_stmt 1               @ ../../../ThirdParty/mbedTLS/library/md5.c:154:5
	mov	r0, r6
	eors	r0, r4
	@DEBUG_VALUE: mbedtls_internal_md5_process:B <- $r4
	ands	r0, r5
	eors	r0, r6
.Ltmp27:
	.loc	1 123 5                         @ ../../../ThirdParty/mbedTLS/library/md5.c:123:5
	str	r6, [sp, #4]                    @ 4-byte Spill
	ldrb	r2, [r1, #4]
	ldrb	r3, [r1, #5]
	lsls	r3, r3, #8
	adds	r2, r3, r2
	ldrb	r3, [r1, #6]
	lsls	r3, r3, #16
	adds	r2, r2, r3
	ldrb	r3, [r1, #7]
	lsls	r3, r3, #24
	adds	r2, r2, r3
.Ltmp28:
	@DEBUG_VALUE: mbedtls_internal_md5_process:X <- [DW_OP_LLVM_fragment 32 32] $r2
	.loc	1 154 5                         @ ../../../ThirdParty/mbedTLS/library/md5.c:154:5
	str	r2, [sp, #92]                   @ 4-byte Spill
.Ltmp29:
	@DEBUG_VALUE: mbedtls_internal_md5_process:X <- [DW_OP_plus_uconst 92, DW_OP_LLVM_fragment 32 32] [$sp+0]
	adds	r2, r2, r7
	@DEBUG_VALUE: mbedtls_internal_md5_process:X <- [DW_OP_plus_uconst 92, DW_OP_LLVM_fragment 32 32] [$sp+0]
.Ltmp30:
	@DEBUG_VALUE: mbedtls_internal_md5_process:X <- [DW_OP_LLVM_fragment 32 32] $r2
	adds	r0, r2, r0
	ldr	r2, __arm_cp.5_64
.Ltmp31:
	adds	r0, r0, r2
.Ltmp32:
	@DEBUG_VALUE: mbedtls_internal_md5_process:D <- $r0
	.loc	1 0 5 is_stmt 0                 @ ../../../ThirdParty/mbedTLS/library/md5.c:0:5
	movs	r2, #20
	.loc	1 154 5                         @ ../../../ThirdParty/mbedTLS/library/md5.c:154:5
	str	r2, [sp, #44]                   @ 4-byte Spill
	rors	r0, r2
.Ltmp33:
	adds	r3, r0, r5
.Ltmp34:
	@DEBUG_VALUE: mbedtls_internal_md5_process:D <- $r3
	.loc	1 155 5 is_stmt 1               @ ../../../ThirdParty/mbedTLS/library/md5.c:155:5
	mov	r0, r5
	@DEBUG_VALUE: mbedtls_internal_md5_process:B <- $r4
	eors	r0, r4
	ands	r0, r3
	eors	r0, r4
	mov	r7, r4
.Ltmp35:
	@DEBUG_VALUE: mbedtls_internal_md5_process:B <- $r7
	.loc	1 124 5                         @ ../../../ThirdParty/mbedTLS/library/md5.c:124:5
	str	r4, [sp]                        @ 4-byte Spill
	ldrb	r2, [r1, #8]
	ldrb	r4, [r1, #9]
	lsls	r4, r4, #8
	adds	r2, r4, r2
	ldrb	r4, [r1, #10]
	lsls	r4, r4, #16
	adds	r2, r2, r4
	ldrb	r4, [r1, #11]
	lsls	r4, r4, #24
	adds	r2, r2, r4
.Ltmp36:
	@DEBUG_VALUE: mbedtls_internal_md5_process:X <- [DW_OP_LLVM_fragment 64 32] $r2
	.loc	1 155 5                         @ ../../../ThirdParty/mbedTLS/library/md5.c:155:5
	str	r2, [sp, #96]                   @ 4-byte Spill
.Ltmp37:
	@DEBUG_VALUE: mbedtls_internal_md5_process:X <- [DW_OP_plus_uconst 96, DW_OP_LLVM_fragment 64 32] [$sp+0]
	adds	r2, r2, r6
	@DEBUG_VALUE: mbedtls_internal_md5_process:X <- [DW_OP_plus_uconst 96, DW_OP_LLVM_fragment 64 32] [$sp+0]
.Ltmp38:
	@DEBUG_VALUE: mbedtls_internal_md5_process:X <- [DW_OP_LLVM_fragment 64 32] $r2
	adds	r0, r2, r0
	ldr	r2, __arm_cp.5_65
.Ltmp39:
	adds	r0, r0, r2
.Ltmp40:
	@DEBUG_VALUE: mbedtls_internal_md5_process:C <- $r0
	.loc	1 0 5 is_stmt 0                 @ ../../../ThirdParty/mbedTLS/library/md5.c:0:5
	movs	r2, #15
	.loc	1 155 5                         @ ../../../ThirdParty/mbedTLS/library/md5.c:155:5
	str	r2, [sp, #36]                   @ 4-byte Spill
	rors	r0, r2
.Ltmp41:
	adds	r2, r0, r3
.Ltmp42:
	@DEBUG_VALUE: mbedtls_internal_md5_process:C <- $r2
	.loc	1 156 5 is_stmt 1               @ ../../../ThirdParty/mbedTLS/library/md5.c:156:5
	mov	r0, r3
	eors	r0, r5
	ands	r0, r2
	eors	r0, r5
.Ltmp43:
	.loc	1 125 5                         @ ../../../ThirdParty/mbedTLS/library/md5.c:125:5
	ldrb	r4, [r1, #12]
	ldrb	r6, [r1, #13]
	lsls	r6, r6, #8
	adds	r4, r6, r4
	ldrb	r6, [r1, #14]
	lsls	r6, r6, #16
	adds	r4, r4, r6
	ldrb	r6, [r1, #15]
	lsls	r6, r6, #24
	adds	r4, r4, r6
.Ltmp44:
	@DEBUG_VALUE: mbedtls_internal_md5_process:X <- [DW_OP_LLVM_fragment 96 32] $r4
	.loc	1 156 5                         @ ../../../ThirdParty/mbedTLS/library/md5.c:156:5
	str	r4, [sp, #80]                   @ 4-byte Spill
.Ltmp45:
	@DEBUG_VALUE: mbedtls_internal_md5_process:X <- [DW_OP_plus_uconst 80, DW_OP_LLVM_fragment 96 32] [$sp+0]
	adds	r4, r4, r7
	@DEBUG_VALUE: mbedtls_internal_md5_process:X <- [DW_OP_plus_uconst 80, DW_OP_LLVM_fragment 96 32] [$sp+0]
.Ltmp46:
	@DEBUG_VALUE: mbedtls_internal_md5_process:X <- [DW_OP_LLVM_fragment 96 32] $r4
	@DEBUG_VALUE: mbedtls_internal_md5_process:B <- [$sp+0]
	adds	r0, r4, r0
	ldr	r4, __arm_cp.5_66
.Ltmp47:
	adds	r0, r0, r4
.Ltmp48:
	@DEBUG_VALUE: mbedtls_internal_md5_process:B <- $r0
	.loc	1 0 5 is_stmt 0                 @ ../../../ThirdParty/mbedTLS/library/md5.c:0:5
	movs	r4, #10
	.loc	1 156 5                         @ ../../../ThirdParty/mbedTLS/library/md5.c:156:5
	str	r4, [sp, #32]                   @ 4-byte Spill
	rors	r0, r4
.Ltmp49:
	adds	r0, r0, r2
.Ltmp50:
	@DEBUG_VALUE: mbedtls_internal_md5_process:B <- $r0
	.loc	1 157 5 is_stmt 1               @ ../../../ThirdParty/mbedTLS/library/md5.c:157:5
	mov	r4, r2
	eors	r4, r3
	ands	r4, r0
	eors	r4, r3
.Ltmp51:
	.loc	1 126 5                         @ ../../../ThirdParty/mbedTLS/library/md5.c:126:5
	ldrb	r7, [r1, #16]
	ldrb	r6, [r1, #17]
	lsls	r6, r6, #8
	adds	r6, r6, r7
	ldrb	r7, [r1, #18]
	lsls	r7, r7, #16
	adds	r6, r6, r7
	ldrb	r7, [r1, #19]
	lsls	r7, r7, #24
	adds	r6, r6, r7
.Ltmp52:
	@DEBUG_VALUE: mbedtls_internal_md5_process:X <- [DW_OP_LLVM_fragment 128 32] $r6
	.loc	1 157 5                         @ ../../../ThirdParty/mbedTLS/library/md5.c:157:5
	str	r6, [sp, #88]                   @ 4-byte Spill
.Ltmp53:
	@DEBUG_VALUE: mbedtls_internal_md5_process:X <- [DW_OP_plus_uconst 88, DW_OP_LLVM_fragment 128 32] [$sp+0]
	adds	r5, r6, r5
.Ltmp54:
	@DEBUG_VALUE: mbedtls_internal_md5_process:X <- [DW_OP_plus_uconst 88, DW_OP_LLVM_fragment 128 32] [$sp+0]
	adds	r4, r5, r4
	ldr	r5, __arm_cp.5_67
	adds	r4, r4, r5
.Ltmp55:
	@DEBUG_VALUE: mbedtls_internal_md5_process:A <- $r4
	ldr	r5, [sp, #52]                   @ 4-byte Reload
	rors	r4, r5
.Ltmp56:
	adds	r5, r4, r0
.Ltmp57:
	@DEBUG_VALUE: mbedtls_internal_md5_process:A <- $r5
	.loc	1 158 5                         @ ../../../ThirdParty/mbedTLS/library/md5.c:158:5
	mov	r4, r0
	eors	r4, r2
	ands	r4, r5
	eors	r4, r2
.Ltmp58:
	.loc	1 127 5                         @ ../../../ThirdParty/mbedTLS/library/md5.c:127:5
	ldrb	r6, [r1, #20]
	ldrb	r7, [r1, #21]
	lsls	r7, r7, #8
	adds	r6, r7, r6
	ldrb	r7, [r1, #22]
	lsls	r7, r7, #16
	adds	r6, r6, r7
	ldrb	r7, [r1, #23]
	lsls	r7, r7, #24
	adds	r6, r6, r7
.Ltmp59:
	@DEBUG_VALUE: mbedtls_internal_md5_process:X <- [DW_OP_LLVM_fragment 160 32] $r6
	.loc	1 158 5                         @ ../../../ThirdParty/mbedTLS/library/md5.c:158:5
	str	r6, [sp, #68]                   @ 4-byte Spill
.Ltmp60:
	@DEBUG_VALUE: mbedtls_internal_md5_process:X <- [DW_OP_plus_uconst 68, DW_OP_LLVM_fragment 160 32] [$sp+0]
	adds	r3, r6, r3
.Ltmp61:
	@DEBUG_VALUE: mbedtls_internal_md5_process:X <- [DW_OP_plus_uconst 68, DW_OP_LLVM_fragment 160 32] [$sp+0]
	adds	r3, r3, r4
	ldr	r4, __arm_cp.5_68
	adds	r3, r3, r4
.Ltmp62:
	@DEBUG_VALUE: mbedtls_internal_md5_process:D <- $r3
	ldr	r4, [sp, #44]                   @ 4-byte Reload
	rors	r3, r4
.Ltmp63:
	adds	r7, r3, r5
.Ltmp64:
	@DEBUG_VALUE: mbedtls_internal_md5_process:D <- $r7
	.loc	1 159 5                         @ ../../../ThirdParty/mbedTLS/library/md5.c:159:5
	mov	r3, r5
	eors	r3, r0
	ands	r3, r7
	eors	r3, r0
.Ltmp65:
	.loc	1 128 5                         @ ../../../ThirdParty/mbedTLS/library/md5.c:128:5
	ldrb	r4, [r1, #24]
	ldrb	r6, [r1, #25]
	lsls	r6, r6, #8
	adds	r4, r6, r4
	ldrb	r6, [r1, #26]
	lsls	r6, r6, #16
	adds	r4, r4, r6
	ldrb	r6, [r1, #27]
	lsls	r6, r6, #24
	adds	r4, r4, r6
.Ltmp66:
	@DEBUG_VALUE: mbedtls_internal_md5_process:X <- [DW_OP_LLVM_fragment 192 32] $r4
	.loc	1 159 5                         @ ../../../ThirdParty/mbedTLS/library/md5.c:159:5
	str	r4, [sp, #76]                   @ 4-byte Spill
.Ltmp67:
	@DEBUG_VALUE: mbedtls_internal_md5_process:X <- [DW_OP_plus_uconst 76, DW_OP_LLVM_fragment 192 32] [$sp+0]
	adds	r2, r4, r2
.Ltmp68:
	@DEBUG_VALUE: mbedtls_internal_md5_process:X <- [DW_OP_plus_uconst 76, DW_OP_LLVM_fragment 192 32] [$sp+0]
	adds	r2, r2, r3
	ldr	r3, __arm_cp.5_69
	adds	r2, r2, r3
.Ltmp69:
	@DEBUG_VALUE: mbedtls_internal_md5_process:C <- $r2
	ldr	r3, [sp, #36]                   @ 4-byte Reload
	rors	r2, r3
.Ltmp70:
	adds	r3, r2, r7
.Ltmp71:
	@DEBUG_VALUE: mbedtls_internal_md5_process:C <- $r3
	.loc	1 160 5                         @ ../../../ThirdParty/mbedTLS/library/md5.c:160:5
	mov	r2, r7
	eors	r2, r5
	ands	r2, r3
	eors	r2, r5
.Ltmp72:
	.loc	1 129 5                         @ ../../../ThirdParty/mbedTLS/library/md5.c:129:5
	ldrb	r4, [r1, #28]
	ldrb	r6, [r1, #29]
	lsls	r6, r6, #8
	adds	r4, r6, r4
	ldrb	r6, [r1, #30]
	lsls	r6, r6, #16
	adds	r4, r4, r6
	ldrb	r6, [r1, #31]
	lsls	r6, r6, #24
	adds	r4, r4, r6
.Ltmp73:
	@DEBUG_VALUE: mbedtls_internal_md5_process:X <- [DW_OP_LLVM_fragment 224 32] $r4
	.loc	1 160 5                         @ ../../../ThirdParty/mbedTLS/library/md5.c:160:5
	str	r4, [sp, #60]                   @ 4-byte Spill
.Ltmp74:
	@DEBUG_VALUE: mbedtls_internal_md5_process:X <- [DW_OP_plus_uconst 60, DW_OP_LLVM_fragment 224 32] [$sp+0]
	adds	r0, r4, r0
.Ltmp75:
	@DEBUG_VALUE: mbedtls_internal_md5_process:X <- [DW_OP_plus_uconst 60, DW_OP_LLVM_fragment 224 32] [$sp+0]
	adds	r0, r0, r2
	ldr	r2, __arm_cp.5_70
	adds	r0, r0, r2
.Ltmp76:
	@DEBUG_VALUE: mbedtls_internal_md5_process:B <- $r0
	ldr	r2, [sp, #32]                   @ 4-byte Reload
	rors	r0, r2
.Ltmp77:
	adds	r2, r0, r3
.Ltmp78:
	@DEBUG_VALUE: mbedtls_internal_md5_process:B <- $r2
	.loc	1 161 5                         @ ../../../ThirdParty/mbedTLS/library/md5.c:161:5
	mov	r0, r3
	eors	r0, r7
	ands	r0, r2
	eors	r0, r7
	movs	r4, #32
.Ltmp79:
	.loc	1 130 5                         @ ../../../ThirdParty/mbedTLS/library/md5.c:130:5
	ldrb	r4, [r1, r4]
.Ltmp80:
	.loc	1 0 0 is_stmt 0                 @ ../../../ThirdParty/mbedTLS/library/md5.c:0:0
	adds	r1, #32
.Ltmp81:
	@DEBUG_VALUE: mbedtls_internal_md5_process:data <- [DW_OP_LLVM_entry_value 1] $r1
	.loc	1 130 5                         @ ../../../ThirdParty/mbedTLS/library/md5.c:130:5
	ldrb	r6, [r1, #1]
	lsls	r6, r6, #8
	adds	r4, r6, r4
	ldrb	r6, [r1, #2]
	lsls	r6, r6, #16
	adds	r4, r4, r6
	ldrb	r6, [r1, #3]
	lsls	r6, r6, #24
	adds	r4, r4, r6
.Ltmp82:
	@DEBUG_VALUE: mbedtls_internal_md5_process:X <- [DW_OP_LLVM_fragment 256 32] $r4
	.loc	1 161 5 is_stmt 1               @ ../../../ThirdParty/mbedTLS/library/md5.c:161:5
	str	r4, [sp, #28]                   @ 4-byte Spill
.Ltmp83:
	@DEBUG_VALUE: mbedtls_internal_md5_process:X <- [DW_OP_plus_uconst 28, DW_OP_LLVM_fragment 256 32] [$sp+0]
	adds	r4, r4, r5
	@DEBUG_VALUE: mbedtls_internal_md5_process:X <- [DW_OP_plus_uconst 28, DW_OP_LLVM_fragment 256 32] [$sp+0]
.Ltmp84:
	@DEBUG_VALUE: mbedtls_internal_md5_process:X <- [DW_OP_LLVM_fragment 256 32] $r4
	adds	r0, r4, r0
	ldr	r4, __arm_cp.5_71
.Ltmp85:
	adds	r0, r0, r4
.Ltmp86:
	@DEBUG_VALUE: mbedtls_internal_md5_process:A <- $r0
	ldr	r4, [sp, #52]                   @ 4-byte Reload
	rors	r0, r4
.Ltmp87:
	adds	r0, r0, r2
.Ltmp88:
	@DEBUG_VALUE: mbedtls_internal_md5_process:A <- $r0
	.loc	1 162 5                         @ ../../../ThirdParty/mbedTLS/library/md5.c:162:5
	mov	r4, r2
	eors	r4, r3
	ands	r4, r0
	eors	r4, r3
.Ltmp89:
	.loc	1 131 5                         @ ../../../ThirdParty/mbedTLS/library/md5.c:131:5
	ldrb	r5, [r1, #4]
	ldrb	r6, [r1, #5]
	lsls	r6, r6, #8
	adds	r5, r6, r5
	ldrb	r6, [r1, #6]
	lsls	r6, r6, #16
	adds	r5, r5, r6
	ldrb	r6, [r1, #7]
	lsls	r6, r6, #24
	adds	r5, r5, r6
.Ltmp90:
	@DEBUG_VALUE: mbedtls_internal_md5_process:X <- [DW_OP_LLVM_fragment 288 32] $r5
	.loc	1 162 5                         @ ../../../ThirdParty/mbedTLS/library/md5.c:162:5
	str	r5, [sp, #72]                   @ 4-byte Spill
.Ltmp91:
	@DEBUG_VALUE: mbedtls_internal_md5_process:X <- [DW_OP_plus_uconst 72, DW_OP_LLVM_fragment 288 32] [$sp+0]
	adds	r5, r5, r7
	@DEBUG_VALUE: mbedtls_internal_md5_process:X <- [DW_OP_plus_uconst 72, DW_OP_LLVM_fragment 288 32] [$sp+0]
.Ltmp92:
	@DEBUG_VALUE: mbedtls_internal_md5_process:X <- [DW_OP_LLVM_fragment 288 32] $r5
	adds	r4, r5, r4
	ldr	r5, __arm_cp.5_72
.Ltmp93:
	adds	r4, r4, r5
.Ltmp94:
	@DEBUG_VALUE: mbedtls_internal_md5_process:D <- $r4
	ldr	r5, [sp, #44]                   @ 4-byte Reload
	rors	r4, r5
.Ltmp95:
	adds	r5, r4, r0
.Ltmp96:
	@DEBUG_VALUE: mbedtls_internal_md5_process:D <- $r5
	.loc	1 163 5                         @ ../../../ThirdParty/mbedTLS/library/md5.c:163:5
	mov	r4, r0
	eors	r4, r2
	ands	r4, r5
	eors	r4, r2
.Ltmp97:
	.loc	1 132 5                         @ ../../../ThirdParty/mbedTLS/library/md5.c:132:5
	ldrb	r6, [r1, #8]
	ldrb	r7, [r1, #9]
	lsls	r7, r7, #8
	adds	r6, r7, r6
	ldrb	r7, [r1, #10]
	lsls	r7, r7, #16
	adds	r6, r6, r7
	ldrb	r7, [r1, #11]
	lsls	r7, r7, #24
	adds	r6, r6, r7
.Ltmp98:
	@DEBUG_VALUE: mbedtls_internal_md5_process:X <- [DW_OP_LLVM_fragment 320 32] $r6
	.loc	1 163 5                         @ ../../../ThirdParty/mbedTLS/library/md5.c:163:5
	str	r6, [sp, #56]                   @ 4-byte Spill
.Ltmp99:
	@DEBUG_VALUE: mbedtls_internal_md5_process:X <- [DW_OP_plus_uconst 56, DW_OP_LLVM_fragment 320 32] [$sp+0]
	adds	r3, r6, r3
.Ltmp100:
	@DEBUG_VALUE: mbedtls_internal_md5_process:X <- [DW_OP_plus_uconst 56, DW_OP_LLVM_fragment 320 32] [$sp+0]
	adds	r3, r3, r4
	movw	r4, #42063
	subs	r3, r3, r4
.Ltmp101:
	@DEBUG_VALUE: mbedtls_internal_md5_process:C <- $r3
	ldr	r4, [sp, #36]                   @ 4-byte Reload
	rors	r3, r4
.Ltmp102:
	adds	r3, r3, r5
.Ltmp103:
	@DEBUG_VALUE: mbedtls_internal_md5_process:C <- $r3
	.loc	1 164 5                         @ ../../../ThirdParty/mbedTLS/library/md5.c:164:5
	mov	r4, r5
	eors	r4, r0
	ands	r4, r3
	eors	r4, r0
.Ltmp104:
	.loc	1 133 5                         @ ../../../ThirdParty/mbedTLS/library/md5.c:133:5
	ldrb	r6, [r1, #12]
	ldrb	r7, [r1, #13]
	lsls	r7, r7, #8
	adds	r6, r7, r6
	ldrb	r7, [r1, #14]
	lsls	r7, r7, #16
	adds	r6, r6, r7
	ldrb	r7, [r1, #15]
	lsls	r7, r7, #24
	adds	r6, r6, r7
.Ltmp105:
	@DEBUG_VALUE: mbedtls_internal_md5_process:X <- [DW_OP_LLVM_fragment 352 32] $r6
	.loc	1 164 5                         @ ../../../ThirdParty/mbedTLS/library/md5.c:164:5
	str	r6, [sp, #64]                   @ 4-byte Spill
.Ltmp106:
	@DEBUG_VALUE: mbedtls_internal_md5_process:X <- [DW_OP_plus_uconst 64, DW_OP_LLVM_fragment 352 32] [$sp+0]
	adds	r2, r6, r2
.Ltmp107:
	@DEBUG_VALUE: mbedtls_internal_md5_process:X <- [DW_OP_plus_uconst 64, DW_OP_LLVM_fragment 352 32] [$sp+0]
	adds	r2, r2, r4
	ldr	r4, __arm_cp.5_73
	adds	r2, r2, r4
.Ltmp108:
	@DEBUG_VALUE: mbedtls_internal_md5_process:B <- $r2
	ldr	r4, [sp, #32]                   @ 4-byte Reload
	rors	r2, r4
.Ltmp109:
	adds	r2, r2, r3
.Ltmp110:
	@DEBUG_VALUE: mbedtls_internal_md5_process:B <- $r2
	.loc	1 165 5                         @ ../../../ThirdParty/mbedTLS/library/md5.c:165:5
	mov	r4, r3
	eors	r4, r5
	ands	r4, r2
	eors	r4, r5
.Ltmp111:
	.loc	1 134 5                         @ ../../../ThirdParty/mbedTLS/library/md5.c:134:5
	ldrb	r6, [r1, #16]
	ldrb	r7, [r1, #17]
	lsls	r7, r7, #8
	adds	r6, r7, r6
	ldrb	r7, [r1, #18]
	lsls	r7, r7, #16
	adds	r6, r6, r7
	ldrb	r7, [r1, #19]
	lsls	r7, r7, #24
	adds	r6, r6, r7
.Ltmp112:
	@DEBUG_VALUE: mbedtls_internal_md5_process:X <- [DW_OP_LLVM_fragment 384 32] $r6
	.loc	1 165 5                         @ ../../../ThirdParty/mbedTLS/library/md5.c:165:5
	str	r6, [sp, #48]                   @ 4-byte Spill
.Ltmp113:
	@DEBUG_VALUE: mbedtls_internal_md5_process:X <- [DW_OP_plus_uconst 48, DW_OP_LLVM_fragment 384 32] [$sp+0]
	adds	r0, r6, r0
.Ltmp114:
	@DEBUG_VALUE: mbedtls_internal_md5_process:X <- [DW_OP_plus_uconst 48, DW_OP_LLVM_fragment 384 32] [$sp+0]
	adds	r0, r0, r4
	ldr	r4, __arm_cp.5_74
	adds	r0, r0, r4
.Ltmp115:
	@DEBUG_VALUE: mbedtls_internal_md5_process:A <- $r0
	ldr	r4, [sp, #52]                   @ 4-byte Reload
	rors	r0, r4
.Ltmp116:
	adds	r0, r0, r2
.Ltmp117:
	@DEBUG_VALUE: mbedtls_internal_md5_process:A <- $r0
	.loc	1 166 5                         @ ../../../ThirdParty/mbedTLS/library/md5.c:166:5
	mov	r4, r2
	eors	r4, r3
	ands	r4, r0
	eors	r4, r3
.Ltmp118:
	.loc	1 135 5                         @ ../../../ThirdParty/mbedTLS/library/md5.c:135:5
	ldrb	r6, [r1, #20]
	ldrb	r7, [r1, #21]
	lsls	r7, r7, #8
	adds	r6, r7, r6
	ldrb	r7, [r1, #22]
	lsls	r7, r7, #16
	adds	r6, r6, r7
	ldrb	r7, [r1, #23]
	lsls	r7, r7, #24
	adds	r6, r6, r7
.Ltmp119:
	@DEBUG_VALUE: mbedtls_internal_md5_process:X <- [DW_OP_LLVM_fragment 416 32] $r6
	.loc	1 166 5                         @ ../../../ThirdParty/mbedTLS/library/md5.c:166:5
	str	r6, [sp, #52]                   @ 4-byte Spill
.Ltmp120:
	@DEBUG_VALUE: mbedtls_internal_md5_process:X <- [DW_OP_plus_uconst 52, DW_OP_LLVM_fragment 416 32] [$sp+0]
	adds	r5, r6, r5
.Ltmp121:
	@DEBUG_VALUE: mbedtls_internal_md5_process:X <- [DW_OP_plus_uconst 52, DW_OP_LLVM_fragment 416 32] [$sp+0]
	adds	r4, r5, r4
	ldr	r5, __arm_cp.5_75
	adds	r4, r4, r5
.Ltmp122:
	@DEBUG_VALUE: mbedtls_internal_md5_process:D <- $r4
	ldr	r5, [sp, #44]                   @ 4-byte Reload
	rors	r4, r5
.Ltmp123:
	adds	r5, r4, r0
.Ltmp124:
	@DEBUG_VALUE: mbedtls_internal_md5_process:D <- $r5
	.loc	1 167 5                         @ ../../../ThirdParty/mbedTLS/library/md5.c:167:5
	mov	r4, r0
	eors	r4, r2
	ands	r4, r5
	eors	r4, r2
.Ltmp125:
	.loc	1 136 5                         @ ../../../ThirdParty/mbedTLS/library/md5.c:136:5
	ldrb	r6, [r1, #24]
	ldrb	r7, [r1, #25]
	lsls	r7, r7, #8
	adds	r6, r7, r6
	ldrb	r7, [r1, #26]
	lsls	r7, r7, #16
	adds	r6, r6, r7
	ldrb	r7, [r1, #27]
	lsls	r7, r7, #24
	adds	r6, r6, r7
.Ltmp126:
	@DEBUG_VALUE: mbedtls_internal_md5_process:X <- [DW_OP_LLVM_fragment 448 32] $r6
	.loc	1 167 5                         @ ../../../ThirdParty/mbedTLS/library/md5.c:167:5
	str	r6, [sp, #40]                   @ 4-byte Spill
.Ltmp127:
	@DEBUG_VALUE: mbedtls_internal_md5_process:X <- [DW_OP_plus_uconst 40, DW_OP_LLVM_fragment 448 32] [$sp+0]
	adds	r3, r6, r3
.Ltmp128:
	@DEBUG_VALUE: mbedtls_internal_md5_process:X <- [DW_OP_plus_uconst 40, DW_OP_LLVM_fragment 448 32] [$sp+0]
	adds	r3, r3, r4
	ldr	r4, __arm_cp.5_76
	adds	r3, r3, r4
.Ltmp129:
	@DEBUG_VALUE: mbedtls_internal_md5_process:C <- $r3
	ldr	r4, [sp, #36]                   @ 4-byte Reload
	rors	r3, r4
.Ltmp130:
	adds	r4, r3, r5
.Ltmp131:
	@DEBUG_VALUE: mbedtls_internal_md5_process:C <- $r4
	.loc	1 168 5                         @ ../../../ThirdParty/mbedTLS/library/md5.c:168:5
	mov	r3, r5
	eors	r3, r0
	ands	r3, r4
	eors	r3, r0
.Ltmp132:
	.loc	1 137 5                         @ ../../../ThirdParty/mbedTLS/library/md5.c:137:5
	ldrb	r6, [r1, #28]
	ldrb	r7, [r1, #29]
	lsls	r7, r7, #8
	adds	r6, r7, r6
	ldrb	r7, [r1, #30]
	lsls	r7, r7, #16
	adds	r6, r6, r7
	ldrb	r1, [r1, #31]
	lsls	r1, r1, #24
	adds	r1, r6, r1
.Ltmp133:
	@DEBUG_VALUE: mbedtls_internal_md5_process:X <- [DW_OP_LLVM_fragment 480 32] $r1
	.loc	1 168 5                         @ ../../../ThirdParty/mbedTLS/library/md5.c:168:5
	str	r1, [sp, #44]                   @ 4-byte Spill
.Ltmp134:
	@DEBUG_VALUE: mbedtls_internal_md5_process:X <- [DW_OP_plus_uconst 44, DW_OP_LLVM_fragment 480 32] [$sp+0]
	adds	r1, r1, r2
	@DEBUG_VALUE: mbedtls_internal_md5_process:X <- [DW_OP_plus_uconst 44, DW_OP_LLVM_fragment 480 32] [$sp+0]
.Ltmp135:
	@DEBUG_VALUE: mbedtls_internal_md5_process:X <- [DW_OP_LLVM_fragment 480 32] $r1
	adds	r1, r1, r3
.Ltmp136:
	.loc	1 0 5 is_stmt 0                 @ ../../../ThirdParty/mbedTLS/library/md5.c:0:5
	ldr	r2, __arm_cp.5_77
.Ltmp137:
	.loc	1 168 5                         @ ../../../ThirdParty/mbedTLS/library/md5.c:168:5
	adds	r1, r1, r2
.Ltmp138:
	@DEBUG_VALUE: mbedtls_internal_md5_process:B <- $r1
	ldr	r2, [sp, #32]                   @ 4-byte Reload
	rors	r1, r2
.Ltmp139:
	adds	r6, r1, r4
.Ltmp140:
	@DEBUG_VALUE: mbedtls_internal_md5_process:B <- $r6
	.loc	1 174 5 is_stmt 1               @ ../../../ThirdParty/mbedTLS/library/md5.c:174:5
	mov	r1, r6
	eors	r1, r4
	ands	r1, r5
	eors	r1, r4
	ldr	r2, [sp, #92]                   @ 4-byte Reload
.Ltmp141:
	@DEBUG_VALUE: mbedtls_internal_md5_process:X <- [DW_OP_LLVM_fragment 32 32] $r2
	adds	r0, r2, r0
.Ltmp142:
	@DEBUG_VALUE: mbedtls_internal_md5_process:X <- [DW_OP_plus_uconst 92, DW_OP_LLVM_fragment 32 32] [$sp+0]
	adds	r0, r0, r1
	ldr	r1, __arm_cp.5_78
	adds	r0, r0, r1
.Ltmp143:
	@DEBUG_VALUE: mbedtls_internal_md5_process:A <- $r0
	.loc	1 0 5 is_stmt 0                 @ ../../../ThirdParty/mbedTLS/library/md5.c:0:5
	movs	r1, #27
	.loc	1 174 5                         @ ../../../ThirdParty/mbedTLS/library/md5.c:174:5
	str	r1, [sp, #20]                   @ 4-byte Spill
	rors	r0, r1
.Ltmp144:
	adds	r3, r0, r6
.Ltmp145:
	@DEBUG_VALUE: mbedtls_internal_md5_process:A <- $r3
	.loc	1 175 5 is_stmt 1               @ ../../../ThirdParty/mbedTLS/library/md5.c:175:5
	mov	r0, r3
	eors	r0, r6
	ands	r0, r4
	eors	r0, r6
	ldr	r1, [sp, #76]                   @ 4-byte Reload
.Ltmp146:
	@DEBUG_VALUE: mbedtls_internal_md5_process:X <- [DW_OP_LLVM_fragment 192 32] $r1
	adds	r1, r1, r5
.Ltmp147:
	@DEBUG_VALUE: mbedtls_internal_md5_process:X <- [DW_OP_plus_uconst 76, DW_OP_LLVM_fragment 192 32] [$sp+0]
	adds	r0, r1, r0
	ldr	r1, __arm_cp.5_79
	adds	r0, r0, r1
.Ltmp148:
	@DEBUG_VALUE: mbedtls_internal_md5_process:D <- $r0
	.loc	1 0 5 is_stmt 0                 @ ../../../ThirdParty/mbedTLS/library/md5.c:0:5
	movs	r1, #23
	.loc	1 175 5                         @ ../../../ThirdParty/mbedTLS/library/md5.c:175:5
	str	r1, [sp, #24]                   @ 4-byte Spill
	rors	r0, r1
.Ltmp149:
	adds	r2, r0, r3
.Ltmp150:
	@DEBUG_VALUE: mbedtls_internal_md5_process:D <- $r2
	.loc	1 176 5 is_stmt 1               @ ../../../ThirdParty/mbedTLS/library/md5.c:176:5
	mov	r0, r2
	eors	r0, r3
	ands	r0, r6
	eors	r0, r3
	ldr	r1, [sp, #64]                   @ 4-byte Reload
.Ltmp151:
	@DEBUG_VALUE: mbedtls_internal_md5_process:X <- [DW_OP_LLVM_fragment 352 32] $r1
	adds	r1, r1, r4
.Ltmp152:
	@DEBUG_VALUE: mbedtls_internal_md5_process:X <- [DW_OP_plus_uconst 64, DW_OP_LLVM_fragment 352 32] [$sp+0]
	adds	r0, r1, r0
	ldr	r1, __arm_cp.5_80
	adds	r0, r0, r1
.Ltmp153:
	@DEBUG_VALUE: mbedtls_internal_md5_process:C <- $r0
	.loc	1 0 5 is_stmt 0                 @ ../../../ThirdParty/mbedTLS/library/md5.c:0:5
	movs	r1, #18
	.loc	1 176 5                         @ ../../../ThirdParty/mbedTLS/library/md5.c:176:5
	str	r1, [sp, #36]                   @ 4-byte Spill
	rors	r0, r1
.Ltmp154:
	adds	r1, r0, r2
.Ltmp155:
	@DEBUG_VALUE: mbedtls_internal_md5_process:C <- $r1
	.loc	1 177 5 is_stmt 1               @ ../../../ThirdParty/mbedTLS/library/md5.c:177:5
	mov	r0, r1
	eors	r0, r2
	ands	r0, r3
	eors	r0, r2
	ldr	r4, [sp, #84]                   @ 4-byte Reload
.Ltmp156:
	@DEBUG_VALUE: mbedtls_internal_md5_process:X <- [DW_OP_LLVM_fragment 0 32] $r4
	adds	r6, r4, r6
.Ltmp157:
	@DEBUG_VALUE: mbedtls_internal_md5_process:X <- [DW_OP_plus_uconst 84, DW_OP_LLVM_fragment 0 32] [$sp+0]
	adds	r0, r6, r0
	ldr	r6, __arm_cp.5_81
	adds	r0, r0, r6
.Ltmp158:
	@DEBUG_VALUE: mbedtls_internal_md5_process:B <- $r0
	.loc	1 0 5 is_stmt 0                 @ ../../../ThirdParty/mbedTLS/library/md5.c:0:5
	movs	r4, #12
	.loc	1 177 5                         @ ../../../ThirdParty/mbedTLS/library/md5.c:177:5
	str	r4, [sp, #32]                   @ 4-byte Spill
	rors	r0, r4
.Ltmp159:
	adds	r4, r0, r1
.Ltmp160:
	@DEBUG_VALUE: mbedtls_internal_md5_process:B <- $r4
	.loc	1 178 5 is_stmt 1               @ ../../../ThirdParty/mbedTLS/library/md5.c:178:5
	mov	r0, r4
	eors	r0, r1
	ands	r0, r2
	eors	r0, r1
	ldr	r7, [sp, #68]                   @ 4-byte Reload
.Ltmp161:
	@DEBUG_VALUE: mbedtls_internal_md5_process:X <- [DW_OP_LLVM_fragment 160 32] $r7
	adds	r3, r7, r3
.Ltmp162:
	@DEBUG_VALUE: mbedtls_internal_md5_process:X <- [DW_OP_plus_uconst 68, DW_OP_LLVM_fragment 160 32] [$sp+0]
	adds	r0, r3, r0
	ldr	r3, __arm_cp.5_82
	adds	r0, r0, r3
.Ltmp163:
	@DEBUG_VALUE: mbedtls_internal_md5_process:A <- $r0
	.loc	1 0 5 is_stmt 0                 @ ../../../ThirdParty/mbedTLS/library/md5.c:0:5
	ldr	r5, [sp, #20]                   @ 4-byte Reload
	.loc	1 178 5                         @ ../../../ThirdParty/mbedTLS/library/md5.c:178:5
	rors	r0, r5
.Ltmp164:
	adds	r3, r0, r4
.Ltmp165:
	@DEBUG_VALUE: mbedtls_internal_md5_process:A <- $r3
	.loc	1 179 5 is_stmt 1               @ ../../../ThirdParty/mbedTLS/library/md5.c:179:5
	mov	r0, r3
	eors	r0, r4
	ands	r0, r1
	eors	r0, r4
	ldr	r6, [sp, #56]                   @ 4-byte Reload
.Ltmp166:
	@DEBUG_VALUE: mbedtls_internal_md5_process:X <- [DW_OP_LLVM_fragment 320 32] $r6
	adds	r2, r6, r2
.Ltmp167:
	@DEBUG_VALUE: mbedtls_internal_md5_process:X <- [DW_OP_plus_uconst 56, DW_OP_LLVM_fragment 320 32] [$sp+0]
	adds	r0, r2, r0
	ldr	r2, __arm_cp.5_83
	adds	r0, r0, r2
.Ltmp168:
	@DEBUG_VALUE: mbedtls_internal_md5_process:D <- $r0
	ldr	r2, [sp, #24]                   @ 4-byte Reload
	rors	r0, r2
.Ltmp169:
	adds	r2, r0, r3
.Ltmp170:
	@DEBUG_VALUE: mbedtls_internal_md5_process:D <- $r2
	.loc	1 180 5                         @ ../../../ThirdParty/mbedTLS/library/md5.c:180:5
	mov	r0, r2
	eors	r0, r3
	ands	r0, r4
	eors	r0, r3
	ldr	r6, [sp, #44]                   @ 4-byte Reload
.Ltmp171:
	@DEBUG_VALUE: mbedtls_internal_md5_process:X <- [DW_OP_LLVM_fragment 480 32] $r6
	adds	r1, r6, r1
.Ltmp172:
	@DEBUG_VALUE: mbedtls_internal_md5_process:X <- [DW_OP_plus_uconst 44, DW_OP_LLVM_fragment 480 32] [$sp+0]
	adds	r0, r1, r0
	ldr	r1, __arm_cp.5_84
	adds	r0, r0, r1
.Ltmp173:
	@DEBUG_VALUE: mbedtls_internal_md5_process:C <- $r0
	ldr	r1, [sp, #36]                   @ 4-byte Reload
	rors	r0, r1
.Ltmp174:
	adds	r1, r0, r2
.Ltmp175:
	@DEBUG_VALUE: mbedtls_internal_md5_process:C <- $r1
	.loc	1 181 5                         @ ../../../ThirdParty/mbedTLS/library/md5.c:181:5
	mov	r0, r1
	eors	r0, r2
	ands	r0, r3
	eors	r0, r2
	ldr	r7, [sp, #88]                   @ 4-byte Reload
.Ltmp176:
	@DEBUG_VALUE: mbedtls_internal_md5_process:X <- [DW_OP_LLVM_fragment 128 32] $r7
	adds	r4, r7, r4
.Ltmp177:
	@DEBUG_VALUE: mbedtls_internal_md5_process:X <- [DW_OP_plus_uconst 88, DW_OP_LLVM_fragment 128 32] [$sp+0]
	adds	r0, r4, r0
	ldr	r4, __arm_cp.5_85
	adds	r0, r0, r4
.Ltmp178:
	@DEBUG_VALUE: mbedtls_internal_md5_process:B <- $r0
	ldr	r4, [sp, #32]                   @ 4-byte Reload
	rors	r0, r4
.Ltmp179:
	adds	r0, r0, r1
.Ltmp180:
	@DEBUG_VALUE: mbedtls_internal_md5_process:B <- $r0
	.loc	1 182 5                         @ ../../../ThirdParty/mbedTLS/library/md5.c:182:5
	mov	r4, r0
	eors	r4, r1
	ands	r4, r2
	eors	r4, r1
	ldr	r7, [sp, #72]                   @ 4-byte Reload
.Ltmp181:
	@DEBUG_VALUE: mbedtls_internal_md5_process:X <- [DW_OP_LLVM_fragment 288 32] $r7
	adds	r3, r7, r3
.Ltmp182:
	@DEBUG_VALUE: mbedtls_internal_md5_process:X <- [DW_OP_plus_uconst 72, DW_OP_LLVM_fragment 288 32] [$sp+0]
	adds	r3, r3, r4
	ldr	r4, __arm_cp.5_23
	adds	r3, r3, r4
.Ltmp183:
	@DEBUG_VALUE: mbedtls_internal_md5_process:A <- $r3
	rors	r3, r5
.Ltmp184:
	adds	r3, r3, r0
.Ltmp185:
	@DEBUG_VALUE: mbedtls_internal_md5_process:A <- $r3
	.loc	1 183 5                         @ ../../../ThirdParty/mbedTLS/library/md5.c:183:5
	mov	r4, r3
	eors	r4, r0
	ands	r4, r1
	eors	r4, r0
	ldr	r6, [sp, #40]                   @ 4-byte Reload
.Ltmp186:
	@DEBUG_VALUE: mbedtls_internal_md5_process:X <- [DW_OP_LLVM_fragment 448 32] $r6
	adds	r2, r6, r2
.Ltmp187:
	@DEBUG_VALUE: mbedtls_internal_md5_process:X <- [DW_OP_plus_uconst 40, DW_OP_LLVM_fragment 448 32] [$sp+0]
	adds	r2, r2, r4
	ldr	r4, __arm_cp.5_24
	adds	r2, r2, r4
.Ltmp188:
	@DEBUG_VALUE: mbedtls_internal_md5_process:D <- $r2
	.loc	1 0 5 is_stmt 0                 @ ../../../ThirdParty/mbedTLS/library/md5.c:0:5
	ldr	r5, [sp, #24]                   @ 4-byte Reload
	.loc	1 183 5                         @ ../../../ThirdParty/mbedTLS/library/md5.c:183:5
	rors	r2, r5
.Ltmp189:
	adds	r2, r2, r3
.Ltmp190:
	@DEBUG_VALUE: mbedtls_internal_md5_process:D <- $r2
	.loc	1 184 5 is_stmt 1               @ ../../../ThirdParty/mbedTLS/library/md5.c:184:5
	mov	r4, r2
	eors	r4, r3
	ands	r4, r0
	eors	r4, r3
	ldr	r7, [sp, #80]                   @ 4-byte Reload
.Ltmp191:
	@DEBUG_VALUE: mbedtls_internal_md5_process:X <- [DW_OP_LLVM_fragment 96 32] $r7
	adds	r1, r7, r1
.Ltmp192:
	@DEBUG_VALUE: mbedtls_internal_md5_process:X <- [DW_OP_plus_uconst 80, DW_OP_LLVM_fragment 96 32] [$sp+0]
	adds	r1, r1, r4
	ldr	r4, __arm_cp.5_25
	adds	r1, r1, r4
.Ltmp193:
	@DEBUG_VALUE: mbedtls_internal_md5_process:C <- $r1
	ldr	r4, [sp, #36]                   @ 4-byte Reload
	rors	r1, r4
.Ltmp194:
	adds	r1, r1, r2
.Ltmp195:
	@DEBUG_VALUE: mbedtls_internal_md5_process:C <- $r1
	.loc	1 185 5                         @ ../../../ThirdParty/mbedTLS/library/md5.c:185:5
	mov	r4, r1
	eors	r4, r2
	ands	r4, r3
	eors	r4, r2
	ldr	r6, [sp, #28]                   @ 4-byte Reload
.Ltmp196:
	@DEBUG_VALUE: mbedtls_internal_md5_process:X <- [DW_OP_LLVM_fragment 256 32] $r6
	adds	r0, r6, r0
.Ltmp197:
	adds	r0, r0, r4
	ldr	r4, __arm_cp.5_26
	adds	r0, r0, r4
.Ltmp198:
	@DEBUG_VALUE: mbedtls_internal_md5_process:B <- $r0
	ldr	r4, [sp, #32]                   @ 4-byte Reload
	rors	r0, r4
.Ltmp199:
	adds	r0, r0, r1
.Ltmp200:
	@DEBUG_VALUE: mbedtls_internal_md5_process:B <- $r0
	.loc	1 186 5                         @ ../../../ThirdParty/mbedTLS/library/md5.c:186:5
	mov	r4, r0
	eors	r4, r1
	ands	r4, r2
	eors	r4, r1
	ldr	r7, [sp, #52]                   @ 4-byte Reload
.Ltmp201:
	@DEBUG_VALUE: mbedtls_internal_md5_process:X <- [DW_OP_LLVM_fragment 416 32] $r7
	adds	r3, r7, r3
.Ltmp202:
	@DEBUG_VALUE: mbedtls_internal_md5_process:X <- [DW_OP_plus_uconst 52, DW_OP_LLVM_fragment 416 32] [$sp+0]
	adds	r3, r3, r4
	ldr	r4, __arm_cp.5_27
	adds	r3, r3, r4
.Ltmp203:
	@DEBUG_VALUE: mbedtls_internal_md5_process:A <- $r3
	ldr	r4, [sp, #20]                   @ 4-byte Reload
	rors	r3, r4
.Ltmp204:
	adds	r3, r3, r0
.Ltmp205:
	@DEBUG_VALUE: mbedtls_internal_md5_process:A <- $r3
	.loc	1 187 5                         @ ../../../ThirdParty/mbedTLS/library/md5.c:187:5
	mov	r4, r3
	eors	r4, r0
	b	.LBB5_24
.Ltmp206:
	.p2align	2
@ %bb.1:
	.loc	1 0 5 is_stmt 0                 @ ../../../ThirdParty/mbedTLS/library/md5.c:0:5
__arm_cp.5_63:
	.long	3614090360                      @ 0xd76aa478
.Lcpi_end4:
	.size	__arm_cp.5_63, .Lcpi_end4-__arm_cp.5_63
	.p2align	2
@ %bb.2:
__arm_cp.5_64:
	.long	3905402710                      @ 0xe8c7b756
.Lcpi_end5:
	.size	__arm_cp.5_64, .Lcpi_end5-__arm_cp.5_64
	.p2align	2
@ %bb.3:
__arm_cp.5_65:
	.long	606105819                       @ 0x242070db
.Lcpi_end6:
	.size	__arm_cp.5_65, .Lcpi_end6-__arm_cp.5_65
	.p2align	2
@ %bb.4:
__arm_cp.5_66:
	.long	3250441966                      @ 0xc1bdceee
.Lcpi_end7:
	.size	__arm_cp.5_66, .Lcpi_end7-__arm_cp.5_66
	.p2align	2
@ %bb.5:
__arm_cp.5_67:
	.long	4118548399                      @ 0xf57c0faf
.Lcpi_end8:
	.size	__arm_cp.5_67, .Lcpi_end8-__arm_cp.5_67
	.p2align	2
@ %bb.6:
__arm_cp.5_68:
	.long	1200080426                      @ 0x4787c62a
.Lcpi_end9:
	.size	__arm_cp.5_68, .Lcpi_end9-__arm_cp.5_68
	.p2align	2
@ %bb.7:
__arm_cp.5_69:
	.long	2821735955                      @ 0xa8304613
.Lcpi_end10:
	.size	__arm_cp.5_69, .Lcpi_end10-__arm_cp.5_69
	.p2align	2
@ %bb.8:
__arm_cp.5_70:
	.long	4249261313                      @ 0xfd469501
.Lcpi_end11:
	.size	__arm_cp.5_70, .Lcpi_end11-__arm_cp.5_70
	.p2align	2
@ %bb.9:
__arm_cp.5_71:
	.long	1770035416                      @ 0x698098d8
.Lcpi_end12:
	.size	__arm_cp.5_71, .Lcpi_end12-__arm_cp.5_71
	.p2align	2
@ %bb.10:
__arm_cp.5_72:
	.long	2336552879                      @ 0x8b44f7af
.Lcpi_end13:
	.size	__arm_cp.5_72, .Lcpi_end13-__arm_cp.5_72
	.p2align	2
@ %bb.11:
__arm_cp.5_73:
	.long	2304563134                      @ 0x895cd7be
.Lcpi_end14:
	.size	__arm_cp.5_73, .Lcpi_end14-__arm_cp.5_73
	.p2align	2
@ %bb.12:
__arm_cp.5_74:
	.long	1804603682                      @ 0x6b901122
.Lcpi_end15:
	.size	__arm_cp.5_74, .Lcpi_end15-__arm_cp.5_74
	.p2align	2
@ %bb.13:
__arm_cp.5_75:
	.long	4254626195                      @ 0xfd987193
.Lcpi_end16:
	.size	__arm_cp.5_75, .Lcpi_end16-__arm_cp.5_75
	.p2align	2
@ %bb.14:
__arm_cp.5_76:
	.long	2792965006                      @ 0xa679438e
.Lcpi_end17:
	.size	__arm_cp.5_76, .Lcpi_end17-__arm_cp.5_76
	.p2align	2
@ %bb.15:
__arm_cp.5_77:
	.long	1236535329                      @ 0x49b40821
.Lcpi_end18:
	.size	__arm_cp.5_77, .Lcpi_end18-__arm_cp.5_77
	.p2align	2
@ %bb.16:
__arm_cp.5_78:
	.long	4129170786                      @ 0xf61e2562
.Lcpi_end19:
	.size	__arm_cp.5_78, .Lcpi_end19-__arm_cp.5_78
	.p2align	2
@ %bb.17:
__arm_cp.5_79:
	.long	3225465664                      @ 0xc040b340
.Lcpi_end20:
	.size	__arm_cp.5_79, .Lcpi_end20-__arm_cp.5_79
	.p2align	2
@ %bb.18:
__arm_cp.5_80:
	.long	643717713                       @ 0x265e5a51
.Lcpi_end21:
	.size	__arm_cp.5_80, .Lcpi_end21-__arm_cp.5_80
	.p2align	2
@ %bb.19:
__arm_cp.5_81:
	.long	3921069994                      @ 0xe9b6c7aa
.Lcpi_end22:
	.size	__arm_cp.5_81, .Lcpi_end22-__arm_cp.5_81
	.p2align	2
@ %bb.20:
__arm_cp.5_82:
	.long	3593408605                      @ 0xd62f105d
.Lcpi_end23:
	.size	__arm_cp.5_82, .Lcpi_end23-__arm_cp.5_82
	.p2align	2
@ %bb.21:
__arm_cp.5_83:
	.long	38016083                        @ 0x2441453
.Lcpi_end24:
	.size	__arm_cp.5_83, .Lcpi_end24-__arm_cp.5_83
	.p2align	2
@ %bb.22:
__arm_cp.5_84:
	.long	3634488961                      @ 0xd8a1e681
.Lcpi_end25:
	.size	__arm_cp.5_84, .Lcpi_end25-__arm_cp.5_84
	.p2align	2
@ %bb.23:
__arm_cp.5_85:
	.long	3889429448                      @ 0xe7d3fbc8
.Lcpi_end26:
	.size	__arm_cp.5_85, .Lcpi_end26-__arm_cp.5_85
	.p2align	1
.LBB5_24:
	.loc	1 187 5                         @ ../../../ThirdParty/mbedTLS/library/md5.c:187:5
	ands	r4, r1
	eors	r4, r0
	ldr	r7, [sp, #96]                   @ 4-byte Reload
.Ltmp207:
	@DEBUG_VALUE: mbedtls_internal_md5_process:X <- [DW_OP_LLVM_fragment 64 32] $r7
	adds	r2, r7, r2
.Ltmp208:
	@DEBUG_VALUE: mbedtls_internal_md5_process:X <- [DW_OP_plus_uconst 96, DW_OP_LLVM_fragment 64 32] [$sp+0]
	adds	r2, r2, r4
	ldr	r4, __arm_cp.5_28
	adds	r2, r2, r4
.Ltmp209:
	@DEBUG_VALUE: mbedtls_internal_md5_process:D <- $r2
	rors	r2, r5
.Ltmp210:
	adds	r2, r2, r3
.Ltmp211:
	@DEBUG_VALUE: mbedtls_internal_md5_process:D <- $r2
	.loc	1 188 5 is_stmt 1               @ ../../../ThirdParty/mbedTLS/library/md5.c:188:5
	mov	r4, r2
	eors	r4, r3
	ands	r4, r0
	eors	r4, r3
	ldr	r7, [sp, #60]                   @ 4-byte Reload
.Ltmp212:
	@DEBUG_VALUE: mbedtls_internal_md5_process:X <- [DW_OP_LLVM_fragment 224 32] $r7
	adds	r1, r7, r1
.Ltmp213:
	@DEBUG_VALUE: mbedtls_internal_md5_process:X <- [DW_OP_plus_uconst 60, DW_OP_LLVM_fragment 224 32] [$sp+0]
	adds	r1, r1, r4
	ldr	r4, __arm_cp.5_29
	adds	r1, r1, r4
.Ltmp214:
	@DEBUG_VALUE: mbedtls_internal_md5_process:C <- $r1
	ldr	r4, [sp, #36]                   @ 4-byte Reload
	rors	r1, r4
.Ltmp215:
	adds	r5, r1, r2
.Ltmp216:
	@DEBUG_VALUE: mbedtls_internal_md5_process:C <- $r5
	.loc	1 189 5                         @ ../../../ThirdParty/mbedTLS/library/md5.c:189:5
	mov	r1, r5
	eors	r1, r2
	mov	r4, r1
	ands	r4, r3
	eors	r4, r2
	ldr	r7, [sp, #48]                   @ 4-byte Reload
.Ltmp217:
	@DEBUG_VALUE: mbedtls_internal_md5_process:X <- [DW_OP_LLVM_fragment 384 32] $r7
	adds	r0, r7, r0
.Ltmp218:
	@DEBUG_VALUE: mbedtls_internal_md5_process:X <- [DW_OP_plus_uconst 48, DW_OP_LLVM_fragment 384 32] [$sp+0]
	adds	r0, r0, r4
	ldr	r4, __arm_cp.5_30
	adds	r0, r0, r4
.Ltmp219:
	@DEBUG_VALUE: mbedtls_internal_md5_process:B <- $r0
	ldr	r4, [sp, #32]                   @ 4-byte Reload
	rors	r0, r4
.Ltmp220:
	adds	r7, r0, r5
.Ltmp221:
	@DEBUG_VALUE: mbedtls_internal_md5_process:B <- $r7
	.loc	1 195 5                         @ ../../../ThirdParty/mbedTLS/library/md5.c:195:5
	eors	r1, r7
	ldr	r0, [sp, #68]                   @ 4-byte Reload
.Ltmp222:
	@DEBUG_VALUE: mbedtls_internal_md5_process:X <- [DW_OP_LLVM_fragment 160 32] $r0
	adds	r0, r0, r3
.Ltmp223:
	@DEBUG_VALUE: mbedtls_internal_md5_process:X <- [DW_OP_plus_uconst 68, DW_OP_LLVM_fragment 160 32] [$sp+0]
	adds	r0, r0, r1
	ldr	r1, __arm_cp.5_31
	adds	r0, r0, r1
.Ltmp224:
	@DEBUG_VALUE: mbedtls_internal_md5_process:A <- $r0
	.loc	1 0 5 is_stmt 0                 @ ../../../ThirdParty/mbedTLS/library/md5.c:0:5
	movs	r1, #28
	.loc	1 195 5                         @ ../../../ThirdParty/mbedTLS/library/md5.c:195:5
	str	r1, [sp, #24]                   @ 4-byte Spill
	rors	r0, r1
.Ltmp225:
	adds	r4, r0, r7
.Ltmp226:
	@DEBUG_VALUE: mbedtls_internal_md5_process:A <- $r4
	.loc	1 196 5 is_stmt 1               @ ../../../ThirdParty/mbedTLS/library/md5.c:196:5
	mov	r0, r7
	eors	r0, r5
	eors	r0, r4
	adds	r1, r6, r2
.Ltmp227:
	@DEBUG_VALUE: mbedtls_internal_md5_process:X <- [DW_OP_plus_uconst 28, DW_OP_LLVM_fragment 256 32] [$sp+0]
	adds	r0, r1, r0
	ldr	r1, __arm_cp.5_32
	adds	r0, r0, r1
.Ltmp228:
	@DEBUG_VALUE: mbedtls_internal_md5_process:D <- $r0
	.loc	1 0 5 is_stmt 0                 @ ../../../ThirdParty/mbedTLS/library/md5.c:0:5
	movs	r1, #21
	.loc	1 196 5                         @ ../../../ThirdParty/mbedTLS/library/md5.c:196:5
	str	r1, [sp, #20]                   @ 4-byte Spill
	rors	r0, r1
.Ltmp229:
	adds	r6, r0, r4
.Ltmp230:
	@DEBUG_VALUE: mbedtls_internal_md5_process:D <- $r6
	.loc	1 197 5 is_stmt 1               @ ../../../ThirdParty/mbedTLS/library/md5.c:197:5
	mov	r0, r4
	eors	r0, r7
	eors	r0, r6
	ldr	r1, [sp, #64]                   @ 4-byte Reload
.Ltmp231:
	@DEBUG_VALUE: mbedtls_internal_md5_process:X <- [DW_OP_LLVM_fragment 352 32] $r1
	adds	r2, r1, r5
.Ltmp232:
	@DEBUG_VALUE: mbedtls_internal_md5_process:X <- [DW_OP_plus_uconst 64, DW_OP_LLVM_fragment 352 32] [$sp+0]
	adds	r0, r2, r0
	ldr	r2, __arm_cp.5_33
	adds	r0, r0, r2
.Ltmp233:
	@DEBUG_VALUE: mbedtls_internal_md5_process:C <- $r0
	.loc	1 0 5 is_stmt 0                 @ ../../../ThirdParty/mbedTLS/library/md5.c:0:5
	movs	r1, #16
	.loc	1 197 5                         @ ../../../ThirdParty/mbedTLS/library/md5.c:197:5
	str	r1, [sp, #36]                   @ 4-byte Spill
	rors	r0, r1
.Ltmp234:
	adds	r5, r0, r6
.Ltmp235:
	@DEBUG_VALUE: mbedtls_internal_md5_process:C <- $r5
	.loc	1 198 5 is_stmt 1               @ ../../../ThirdParty/mbedTLS/library/md5.c:198:5
	mov	r0, r6
	eors	r0, r4
	eors	r0, r5
	ldr	r1, [sp, #40]                   @ 4-byte Reload
.Ltmp236:
	@DEBUG_VALUE: mbedtls_internal_md5_process:X <- [DW_OP_LLVM_fragment 448 32] $r1
	adds	r3, r1, r7
.Ltmp237:
	@DEBUG_VALUE: mbedtls_internal_md5_process:X <- [DW_OP_plus_uconst 40, DW_OP_LLVM_fragment 448 32] [$sp+0]
	adds	r0, r3, r0
	ldr	r3, __arm_cp.5_34
	adds	r0, r0, r3
.Ltmp238:
	@DEBUG_VALUE: mbedtls_internal_md5_process:B <- $r0
	.loc	1 0 5 is_stmt 0                 @ ../../../ThirdParty/mbedTLS/library/md5.c:0:5
	movs	r1, #9
	.loc	1 198 5                         @ ../../../ThirdParty/mbedTLS/library/md5.c:198:5
	str	r1, [sp, #32]                   @ 4-byte Spill
	rors	r0, r1
.Ltmp239:
	adds	r7, r0, r5
.Ltmp240:
	@DEBUG_VALUE: mbedtls_internal_md5_process:B <- $r7
	.loc	1 199 5 is_stmt 1               @ ../../../ThirdParty/mbedTLS/library/md5.c:199:5
	mov	r0, r5
	eors	r0, r6
	eors	r0, r7
	ldr	r1, [sp, #92]                   @ 4-byte Reload
.Ltmp241:
	@DEBUG_VALUE: mbedtls_internal_md5_process:X <- [DW_OP_LLVM_fragment 32 32] $r1
	adds	r4, r1, r4
.Ltmp242:
	@DEBUG_VALUE: mbedtls_internal_md5_process:X <- [DW_OP_plus_uconst 92, DW_OP_LLVM_fragment 32 32] [$sp+0]
	adds	r0, r4, r0
	ldr	r4, __arm_cp.5_35
	adds	r0, r0, r4
.Ltmp243:
	@DEBUG_VALUE: mbedtls_internal_md5_process:A <- $r0
	.loc	1 0 5 is_stmt 0                 @ ../../../ThirdParty/mbedTLS/library/md5.c:0:5
	ldr	r2, [sp, #24]                   @ 4-byte Reload
	.loc	1 199 5                         @ ../../../ThirdParty/mbedTLS/library/md5.c:199:5
	rors	r0, r2
.Ltmp244:
	adds	r4, r0, r7
.Ltmp245:
	@DEBUG_VALUE: mbedtls_internal_md5_process:A <- $r4
	.loc	1 200 5 is_stmt 1               @ ../../../ThirdParty/mbedTLS/library/md5.c:200:5
	mov	r0, r7
	eors	r0, r5
	eors	r0, r4
	ldr	r1, [sp, #88]                   @ 4-byte Reload
.Ltmp246:
	@DEBUG_VALUE: mbedtls_internal_md5_process:X <- [DW_OP_LLVM_fragment 128 32] $r1
	adds	r6, r1, r6
.Ltmp247:
	@DEBUG_VALUE: mbedtls_internal_md5_process:X <- [DW_OP_plus_uconst 88, DW_OP_LLVM_fragment 128 32] [$sp+0]
	adds	r0, r6, r0
	ldr	r6, __arm_cp.5_36
	adds	r0, r0, r6
.Ltmp248:
	@DEBUG_VALUE: mbedtls_internal_md5_process:D <- $r0
	.loc	1 0 5 is_stmt 0                 @ ../../../ThirdParty/mbedTLS/library/md5.c:0:5
	ldr	r3, [sp, #20]                   @ 4-byte Reload
	.loc	1 200 5                         @ ../../../ThirdParty/mbedTLS/library/md5.c:200:5
	rors	r0, r3
.Ltmp249:
	adds	r6, r0, r4
.Ltmp250:
	@DEBUG_VALUE: mbedtls_internal_md5_process:D <- $r6
	.loc	1 201 5 is_stmt 1               @ ../../../ThirdParty/mbedTLS/library/md5.c:201:5
	mov	r0, r4
	eors	r0, r7
	eors	r0, r6
	ldr	r1, [sp, #60]                   @ 4-byte Reload
.Ltmp251:
	@DEBUG_VALUE: mbedtls_internal_md5_process:X <- [DW_OP_LLVM_fragment 224 32] $r1
	adds	r5, r1, r5
.Ltmp252:
	@DEBUG_VALUE: mbedtls_internal_md5_process:X <- [DW_OP_plus_uconst 60, DW_OP_LLVM_fragment 224 32] [$sp+0]
	adds	r0, r5, r0
	ldr	r5, __arm_cp.5_37
	adds	r0, r0, r5
.Ltmp253:
	@DEBUG_VALUE: mbedtls_internal_md5_process:C <- $r0
	ldr	r1, [sp, #36]                   @ 4-byte Reload
	rors	r0, r1
.Ltmp254:
	adds	r5, r0, r6
.Ltmp255:
	@DEBUG_VALUE: mbedtls_internal_md5_process:C <- $r5
	.loc	1 202 5                         @ ../../../ThirdParty/mbedTLS/library/md5.c:202:5
	mov	r0, r6
	eors	r0, r4
	eors	r0, r5
	ldr	r1, [sp, #56]                   @ 4-byte Reload
.Ltmp256:
	@DEBUG_VALUE: mbedtls_internal_md5_process:X <- [DW_OP_LLVM_fragment 320 32] $r1
	adds	r7, r1, r7
.Ltmp257:
	@DEBUG_VALUE: mbedtls_internal_md5_process:X <- [DW_OP_plus_uconst 56, DW_OP_LLVM_fragment 320 32] [$sp+0]
	adds	r0, r7, r0
	ldr	r7, __arm_cp.5_38
	adds	r0, r0, r7
.Ltmp258:
	@DEBUG_VALUE: mbedtls_internal_md5_process:B <- $r0
	ldr	r1, [sp, #32]                   @ 4-byte Reload
	rors	r0, r1
.Ltmp259:
	adds	r7, r0, r5
.Ltmp260:
	@DEBUG_VALUE: mbedtls_internal_md5_process:B <- $r7
	.loc	1 203 5                         @ ../../../ThirdParty/mbedTLS/library/md5.c:203:5
	mov	r0, r5
	eors	r0, r6
	eors	r0, r7
	ldr	r1, [sp, #52]                   @ 4-byte Reload
.Ltmp261:
	@DEBUG_VALUE: mbedtls_internal_md5_process:X <- [DW_OP_LLVM_fragment 416 32] $r1
	adds	r4, r1, r4
.Ltmp262:
	@DEBUG_VALUE: mbedtls_internal_md5_process:X <- [DW_OP_plus_uconst 52, DW_OP_LLVM_fragment 416 32] [$sp+0]
	adds	r0, r4, r0
	ldr	r4, __arm_cp.5_39
	adds	r0, r0, r4
.Ltmp263:
	@DEBUG_VALUE: mbedtls_internal_md5_process:A <- $r0
	rors	r0, r2
.Ltmp264:
	adds	r4, r0, r7
.Ltmp265:
	@DEBUG_VALUE: mbedtls_internal_md5_process:A <- $r4
	.loc	1 204 5                         @ ../../../ThirdParty/mbedTLS/library/md5.c:204:5
	mov	r0, r7
	eors	r0, r5
	eors	r0, r4
	ldr	r1, [sp, #84]                   @ 4-byte Reload
.Ltmp266:
	@DEBUG_VALUE: mbedtls_internal_md5_process:X <- [DW_OP_LLVM_fragment 0 32] $r1
	adds	r6, r1, r6
.Ltmp267:
	@DEBUG_VALUE: mbedtls_internal_md5_process:X <- [DW_OP_plus_uconst 84, DW_OP_LLVM_fragment 0 32] [$sp+0]
	adds	r0, r6, r0
	ldr	r6, __arm_cp.5_40
	adds	r0, r0, r6
.Ltmp268:
	@DEBUG_VALUE: mbedtls_internal_md5_process:D <- $r0
	rors	r0, r3
.Ltmp269:
	adds	r6, r0, r4
.Ltmp270:
	@DEBUG_VALUE: mbedtls_internal_md5_process:D <- $r6
	.loc	1 205 5                         @ ../../../ThirdParty/mbedTLS/library/md5.c:205:5
	mov	r0, r4
	eors	r0, r7
	eors	r0, r6
	ldr	r1, [sp, #80]                   @ 4-byte Reload
.Ltmp271:
	@DEBUG_VALUE: mbedtls_internal_md5_process:X <- [DW_OP_LLVM_fragment 96 32] $r1
	adds	r5, r1, r5
.Ltmp272:
	@DEBUG_VALUE: mbedtls_internal_md5_process:X <- [DW_OP_plus_uconst 80, DW_OP_LLVM_fragment 96 32] [$sp+0]
	adds	r0, r5, r0
	ldr	r5, __arm_cp.5_41
	adds	r0, r0, r5
.Ltmp273:
	@DEBUG_VALUE: mbedtls_internal_md5_process:C <- $r0
	.loc	1 0 5 is_stmt 0                 @ ../../../ThirdParty/mbedTLS/library/md5.c:0:5
	ldr	r2, [sp, #36]                   @ 4-byte Reload
	.loc	1 205 5                         @ ../../../ThirdParty/mbedTLS/library/md5.c:205:5
	rors	r0, r2
.Ltmp274:
	adds	r0, r0, r6
.Ltmp275:
	@DEBUG_VALUE: mbedtls_internal_md5_process:C <- $r0
	.loc	1 206 5 is_stmt 1               @ ../../../ThirdParty/mbedTLS/library/md5.c:206:5
	mov	r5, r6
	eors	r5, r4
	eors	r5, r0
	ldr	r1, [sp, #76]                   @ 4-byte Reload
.Ltmp276:
	@DEBUG_VALUE: mbedtls_internal_md5_process:X <- [DW_OP_LLVM_fragment 192 32] $r1
	adds	r7, r1, r7
.Ltmp277:
	@DEBUG_VALUE: mbedtls_internal_md5_process:X <- [DW_OP_plus_uconst 76, DW_OP_LLVM_fragment 192 32] [$sp+0]
	adds	r5, r7, r5
	ldr	r7, __arm_cp.5_42
	adds	r5, r5, r7
.Ltmp278:
	@DEBUG_VALUE: mbedtls_internal_md5_process:B <- $r5
	.loc	1 0 5 is_stmt 0                 @ ../../../ThirdParty/mbedTLS/library/md5.c:0:5
	ldr	r3, [sp, #32]                   @ 4-byte Reload
	.loc	1 206 5                         @ ../../../ThirdParty/mbedTLS/library/md5.c:206:5
	rors	r5, r3
.Ltmp279:
	adds	r7, r5, r0
.Ltmp280:
	@DEBUG_VALUE: mbedtls_internal_md5_process:B <- $r7
	.loc	1 207 5 is_stmt 1               @ ../../../ThirdParty/mbedTLS/library/md5.c:207:5
	mov	r5, r0
	eors	r5, r6
	eors	r5, r7
	ldr	r1, [sp, #72]                   @ 4-byte Reload
.Ltmp281:
	@DEBUG_VALUE: mbedtls_internal_md5_process:X <- [DW_OP_LLVM_fragment 288 32] $r1
	adds	r4, r1, r4
.Ltmp282:
	@DEBUG_VALUE: mbedtls_internal_md5_process:X <- [DW_OP_plus_uconst 72, DW_OP_LLVM_fragment 288 32] [$sp+0]
	adds	r4, r4, r5
	ldr	r5, __arm_cp.5_43
	adds	r4, r4, r5
.Ltmp283:
	@DEBUG_VALUE: mbedtls_internal_md5_process:A <- $r4
	ldr	r1, [sp, #24]                   @ 4-byte Reload
	rors	r4, r1
.Ltmp284:
	adds	r4, r4, r7
.Ltmp285:
	@DEBUG_VALUE: mbedtls_internal_md5_process:A <- $r4
	.loc	1 208 5                         @ ../../../ThirdParty/mbedTLS/library/md5.c:208:5
	mov	r5, r7
	eors	r5, r0
	eors	r5, r4
	ldr	r1, [sp, #48]                   @ 4-byte Reload
.Ltmp286:
	@DEBUG_VALUE: mbedtls_internal_md5_process:X <- [DW_OP_LLVM_fragment 384 32] $r1
	adds	r6, r1, r6
.Ltmp287:
	@DEBUG_VALUE: mbedtls_internal_md5_process:X <- [DW_OP_plus_uconst 48, DW_OP_LLVM_fragment 384 32] [$sp+0]
	adds	r5, r6, r5
	ldr	r6, __arm_cp.5_44
	adds	r5, r5, r6
.Ltmp288:
	@DEBUG_VALUE: mbedtls_internal_md5_process:D <- $r5
	ldr	r1, [sp, #20]                   @ 4-byte Reload
	rors	r5, r1
.Ltmp289:
	adds	r5, r5, r4
.Ltmp290:
	@DEBUG_VALUE: mbedtls_internal_md5_process:D <- $r5
	.loc	1 209 5                         @ ../../../ThirdParty/mbedTLS/library/md5.c:209:5
	mov	r1, r4
	eors	r1, r7
	eors	r1, r5
	ldr	r6, [sp, #44]                   @ 4-byte Reload
.Ltmp291:
	@DEBUG_VALUE: mbedtls_internal_md5_process:X <- [DW_OP_LLVM_fragment 480 32] $r6
	adds	r0, r6, r0
.Ltmp292:
	@DEBUG_VALUE: mbedtls_internal_md5_process:X <- [DW_OP_plus_uconst 44, DW_OP_LLVM_fragment 480 32] [$sp+0]
	adds	r0, r0, r1
	ldr	r1, __arm_cp.5_45
	adds	r0, r0, r1
.Ltmp293:
	@DEBUG_VALUE: mbedtls_internal_md5_process:C <- $r0
	rors	r0, r2
.Ltmp294:
	adds	r1, r0, r5
.Ltmp295:
	@DEBUG_VALUE: mbedtls_internal_md5_process:C <- $r1
	.loc	1 210 5                         @ ../../../ThirdParty/mbedTLS/library/md5.c:210:5
	mov	r0, r5
	eors	r0, r4
	eors	r0, r1
	ldr	r2, [sp, #96]                   @ 4-byte Reload
.Ltmp296:
	@DEBUG_VALUE: mbedtls_internal_md5_process:X <- [DW_OP_LLVM_fragment 64 32] $r2
	adds	r2, r2, r7
.Ltmp297:
	@DEBUG_VALUE: mbedtls_internal_md5_process:X <- [DW_OP_plus_uconst 96, DW_OP_LLVM_fragment 64 32] [$sp+0]
	adds	r0, r2, r0
	ldr	r2, __arm_cp.5_46
	adds	r0, r0, r2
.Ltmp298:
	@DEBUG_VALUE: mbedtls_internal_md5_process:B <- $r0
	rors	r0, r3
.Ltmp299:
	adds	r0, r0, r1
.Ltmp300:
	@DEBUG_VALUE: mbedtls_internal_md5_process:B <- $r0
	.loc	1 216 5                         @ ../../../ThirdParty/mbedTLS/library/md5.c:216:5
	mvns	r2, r5
	orrs	r2, r0
	eors	r2, r1
	ldr	r3, [sp, #84]                   @ 4-byte Reload
.Ltmp301:
	@DEBUG_VALUE: mbedtls_internal_md5_process:X <- [DW_OP_LLVM_fragment 0 32] $r3
	adds	r3, r3, r4
.Ltmp302:
	adds	r2, r3, r2
	ldr	r3, __arm_cp.5_47
	adds	r2, r2, r3
.Ltmp303:
	@DEBUG_VALUE: mbedtls_internal_md5_process:A <- $r2
	.loc	1 0 5 is_stmt 0                 @ ../../../ThirdParty/mbedTLS/library/md5.c:0:5
	movs	r3, #26
	.loc	1 216 5                         @ ../../../ThirdParty/mbedTLS/library/md5.c:216:5
	str	r3, [sp, #36]                   @ 4-byte Spill
	rors	r2, r3
.Ltmp304:
	adds	r4, r2, r0
.Ltmp305:
	@DEBUG_VALUE: mbedtls_internal_md5_process:A <- $r4
	.loc	1 217 5 is_stmt 1               @ ../../../ThirdParty/mbedTLS/library/md5.c:217:5
	mvns	r2, r1
	orrs	r2, r4
	eors	r2, r0
	ldr	r6, [sp, #60]                   @ 4-byte Reload
.Ltmp306:
	@DEBUG_VALUE: mbedtls_internal_md5_process:X <- [DW_OP_LLVM_fragment 224 32] $r6
	adds	r5, r6, r5
.Ltmp307:
	adds	r2, r5, r2
	ldr	r5, __arm_cp.5_48
	adds	r5, r2, r5
.Ltmp308:
	@DEBUG_VALUE: mbedtls_internal_md5_process:D <- $r5
	.loc	1 0 5 is_stmt 0                 @ ../../../ThirdParty/mbedTLS/library/md5.c:0:5
	movs	r2, #22
	.loc	1 217 5                         @ ../../../ThirdParty/mbedTLS/library/md5.c:217:5
	rors	r5, r2
.Ltmp309:
	str	r2, [sp, #60]                   @ 4-byte Spill
	adds	r5, r5, r4
.Ltmp310:
	@DEBUG_VALUE: mbedtls_internal_md5_process:D <- $r5
	.loc	1 218 5 is_stmt 1               @ ../../../ThirdParty/mbedTLS/library/md5.c:218:5
	mvns	r6, r0
.Ltmp311:
	orrs	r6, r5
	eors	r6, r4
	ldr	r7, [sp, #40]                   @ 4-byte Reload
.Ltmp312:
	@DEBUG_VALUE: mbedtls_internal_md5_process:X <- [DW_OP_LLVM_fragment 448 32] $r7
	adds	r1, r7, r1
.Ltmp313:
	adds	r1, r1, r6
	ldr	r6, __arm_cp.5_49
	adds	r1, r1, r6
.Ltmp314:
	@DEBUG_VALUE: mbedtls_internal_md5_process:C <- $r1
	.loc	1 0 5 is_stmt 0                 @ ../../../ThirdParty/mbedTLS/library/md5.c:0:5
	movs	r3, #17
	.loc	1 218 5                         @ ../../../ThirdParty/mbedTLS/library/md5.c:218:5
	str	r3, [sp, #40]                   @ 4-byte Spill
	rors	r1, r3
.Ltmp315:
	adds	r6, r1, r5
.Ltmp316:
	@DEBUG_VALUE: mbedtls_internal_md5_process:C <- $r6
	.loc	1 219 5 is_stmt 1               @ ../../../ThirdParty/mbedTLS/library/md5.c:219:5
	mvns	r1, r4
	orrs	r1, r6
	eors	r1, r5
	ldr	r7, [sp, #68]                   @ 4-byte Reload
.Ltmp317:
	@DEBUG_VALUE: mbedtls_internal_md5_process:X <- [DW_OP_LLVM_fragment 160 32] $r7
	adds	r0, r7, r0
.Ltmp318:
	adds	r0, r0, r1
	ldr	r1, __arm_cp.5_50
	adds	r0, r0, r1
.Ltmp319:
	@DEBUG_VALUE: mbedtls_internal_md5_process:B <- $r0
	.loc	1 0 5 is_stmt 0                 @ ../../../ThirdParty/mbedTLS/library/md5.c:0:5
	movs	r3, #11
	.loc	1 219 5                         @ ../../../ThirdParty/mbedTLS/library/md5.c:219:5
	rors	r0, r3
.Ltmp320:
	str	r3, [sp, #84]                   @ 4-byte Spill
	adds	r7, r0, r6
.Ltmp321:
	@DEBUG_VALUE: mbedtls_internal_md5_process:B <- $r7
	.loc	1 220 5 is_stmt 1               @ ../../../ThirdParty/mbedTLS/library/md5.c:220:5
	mvns	r0, r5
	orrs	r0, r7
	eors	r0, r6
	ldr	r1, [sp, #48]                   @ 4-byte Reload
.Ltmp322:
	@DEBUG_VALUE: mbedtls_internal_md5_process:X <- [DW_OP_LLVM_fragment 384 32] $r1
	adds	r1, r1, r4
.Ltmp323:
	adds	r0, r1, r0
	ldr	r1, __arm_cp.5_51
	adds	r0, r0, r1
.Ltmp324:
	@DEBUG_VALUE: mbedtls_internal_md5_process:A <- $r0
	ldr	r1, [sp, #36]                   @ 4-byte Reload
	rors	r0, r1
.Ltmp325:
	adds	r4, r0, r7
.Ltmp326:
	@DEBUG_VALUE: mbedtls_internal_md5_process:A <- $r4
	.loc	1 221 5                         @ ../../../ThirdParty/mbedTLS/library/md5.c:221:5
	mvns	r0, r6
	orrs	r0, r4
	eors	r0, r7
	ldr	r1, [sp, #80]                   @ 4-byte Reload
.Ltmp327:
	@DEBUG_VALUE: mbedtls_internal_md5_process:X <- [DW_OP_LLVM_fragment 96 32] $r1
	adds	r1, r1, r5
.Ltmp328:
	adds	r0, r1, r0
	ldr	r1, __arm_cp.5_52
	adds	r0, r0, r1
.Ltmp329:
	@DEBUG_VALUE: mbedtls_internal_md5_process:D <- $r0
	rors	r0, r2
.Ltmp330:
	adds	r5, r0, r4
.Ltmp331:
	@DEBUG_VALUE: mbedtls_internal_md5_process:D <- $r5
	.loc	1 222 5                         @ ../../../ThirdParty/mbedTLS/library/md5.c:222:5
	mvns	r0, r7
	orrs	r0, r5
	eors	r0, r4
	ldr	r1, [sp, #56]                   @ 4-byte Reload
.Ltmp332:
	@DEBUG_VALUE: mbedtls_internal_md5_process:X <- [DW_OP_LLVM_fragment 320 32] $r1
	adds	r1, r1, r6
.Ltmp333:
	adds	r0, r1, r0
	ldr	r1, __arm_cp.5_53
	adds	r0, r0, r1
.Ltmp334:
	@DEBUG_VALUE: mbedtls_internal_md5_process:C <- $r0
	.loc	1 0 5 is_stmt 0                 @ ../../../ThirdParty/mbedTLS/library/md5.c:0:5
	ldr	r2, [sp, #40]                   @ 4-byte Reload
	.loc	1 222 5                         @ ../../../ThirdParty/mbedTLS/library/md5.c:222:5
	rors	r0, r2
.Ltmp335:
	adds	r0, r0, r5
.Ltmp336:
	@DEBUG_VALUE: mbedtls_internal_md5_process:C <- $r0
	.loc	1 223 5 is_stmt 1               @ ../../../ThirdParty/mbedTLS/library/md5.c:223:5
	mvns	r1, r4
	orrs	r1, r0
	eors	r1, r5
	ldr	r6, [sp, #92]                   @ 4-byte Reload
.Ltmp337:
	@DEBUG_VALUE: mbedtls_internal_md5_process:X <- [DW_OP_LLVM_fragment 32 32] $r6
	adds	r6, r6, r7
.Ltmp338:
	adds	r1, r6, r1
	ldr	r6, __arm_cp.5_54
	adds	r1, r1, r6
.Ltmp339:
	@DEBUG_VALUE: mbedtls_internal_md5_process:B <- $r1
	rors	r1, r3
.Ltmp340:
	adds	r7, r1, r0
.Ltmp341:
	@DEBUG_VALUE: mbedtls_internal_md5_process:B <- $r7
	.loc	1 224 5                         @ ../../../ThirdParty/mbedTLS/library/md5.c:224:5
	mvns	r1, r5
	orrs	r1, r7
	eors	r1, r0
	ldr	r6, [sp, #28]                   @ 4-byte Reload
.Ltmp342:
	@DEBUG_VALUE: mbedtls_internal_md5_process:X <- [DW_OP_LLVM_fragment 256 32] $r6
	adds	r4, r6, r4
.Ltmp343:
	adds	r1, r4, r1
	ldr	r4, __arm_cp.5_55
	adds	r1, r1, r4
.Ltmp344:
	@DEBUG_VALUE: mbedtls_internal_md5_process:A <- $r1
	.loc	1 0 5 is_stmt 0                 @ ../../../ThirdParty/mbedTLS/library/md5.c:0:5
	ldr	r3, [sp, #36]                   @ 4-byte Reload
	.loc	1 224 5                         @ ../../../ThirdParty/mbedTLS/library/md5.c:224:5
	rors	r1, r3
.Ltmp345:
	adds	r1, r1, r7
.Ltmp346:
	@DEBUG_VALUE: mbedtls_internal_md5_process:A <- $r1
	.loc	1 225 5 is_stmt 1               @ ../../../ThirdParty/mbedTLS/library/md5.c:225:5
	mvns	r4, r0
	orrs	r4, r1
	eors	r4, r7
	ldr	r6, [sp, #44]                   @ 4-byte Reload
.Ltmp347:
	@DEBUG_VALUE: mbedtls_internal_md5_process:X <- [DW_OP_LLVM_fragment 480 32] $r6
	adds	r5, r6, r5
.Ltmp348:
	adds	r4, r5, r4
	ldr	r5, __arm_cp.5_56
	adds	r4, r4, r5
.Ltmp349:
	@DEBUG_VALUE: mbedtls_internal_md5_process:D <- $r4
	ldr	r5, [sp, #60]                   @ 4-byte Reload
	rors	r4, r5
.Ltmp350:
	adds	r6, r4, r1
.Ltmp351:
	@DEBUG_VALUE: mbedtls_internal_md5_process:D <- $r6
	.loc	1 226 5                         @ ../../../ThirdParty/mbedTLS/library/md5.c:226:5
	mvns	r4, r7
	orrs	r4, r6
	eors	r4, r1
	ldr	r5, [sp, #76]                   @ 4-byte Reload
.Ltmp352:
	@DEBUG_VALUE: mbedtls_internal_md5_process:X <- [DW_OP_LLVM_fragment 192 32] $r5
	adds	r0, r5, r0
.Ltmp353:
	adds	r0, r0, r4
	ldr	r4, __arm_cp.5_57
	adds	r0, r0, r4
.Ltmp354:
	@DEBUG_VALUE: mbedtls_internal_md5_process:C <- $r0
	rors	r0, r2
.Ltmp355:
	adds	r5, r0, r6
.Ltmp356:
	@DEBUG_VALUE: mbedtls_internal_md5_process:C <- $r5
	.loc	1 227 5                         @ ../../../ThirdParty/mbedTLS/library/md5.c:227:5
	mvns	r0, r1
	orrs	r0, r5
	eors	r0, r6
	ldr	r4, [sp, #52]                   @ 4-byte Reload
.Ltmp357:
	@DEBUG_VALUE: mbedtls_internal_md5_process:X <- [DW_OP_LLVM_fragment 416 32] $r4
	adds	r4, r4, r7
.Ltmp358:
	adds	r0, r4, r0
	ldr	r4, __arm_cp.5_58
	adds	r0, r0, r4
.Ltmp359:
	@DEBUG_VALUE: mbedtls_internal_md5_process:B <- $r0
	ldr	r2, [sp, #84]                   @ 4-byte Reload
	rors	r0, r2
.Ltmp360:
	adds	r4, r0, r5
.Ltmp361:
	@DEBUG_VALUE: mbedtls_internal_md5_process:B <- $r4
	.loc	1 228 5                         @ ../../../ThirdParty/mbedTLS/library/md5.c:228:5
	mvns	r0, r6
	orrs	r0, r4
	eors	r0, r5
	ldr	r7, [sp, #88]                   @ 4-byte Reload
.Ltmp362:
	@DEBUG_VALUE: mbedtls_internal_md5_process:X <- [DW_OP_LLVM_fragment 128 32] $r7
	adds	r1, r7, r1
.Ltmp363:
	adds	r0, r1, r0
	ldr	r1, __arm_cp.5_59
	adds	r0, r0, r1
.Ltmp364:
	@DEBUG_VALUE: mbedtls_internal_md5_process:A <- $r0
	rors	r0, r3
.Ltmp365:
	adds	r0, r0, r4
.Ltmp366:
	@DEBUG_VALUE: mbedtls_internal_md5_process:A <- $r0
	@DEBUG_VALUE: mbedtls_internal_md5_process:B <- undef
	.loc	1 235 19                        @ ../../../ThirdParty/mbedTLS/library/md5.c:235:19
	ldr	r1, [sp, #12]                   @ 4-byte Reload
	adds	r1, r0, r1
	ldr	r7, [sp, #16]                   @ 4-byte Reload
.Ltmp367:
	@DEBUG_VALUE: mbedtls_internal_md5_process:ctx <- $r7
	str	r1, [r7, #8]
.Ltmp368:
	.loc	1 229 5                         @ ../../../ThirdParty/mbedTLS/library/md5.c:229:5
	mvns	r1, r5
	orrs	r1, r0
	eors	r1, r4
	ldr	r3, [sp, #64]                   @ 4-byte Reload
.Ltmp369:
	@DEBUG_VALUE: mbedtls_internal_md5_process:X <- [DW_OP_LLVM_fragment 352 32] $r3
	adds	r3, r3, r6
.Ltmp370:
	adds	r1, r3, r1
	ldr	r3, __arm_cp.5_60
	adds	r1, r1, r3
.Ltmp371:
	@DEBUG_VALUE: mbedtls_internal_md5_process:D <- $r1
	ldr	r2, [sp, #60]                   @ 4-byte Reload
	rors	r1, r2
.Ltmp372:
	adds	r1, r1, r0
.Ltmp373:
	@DEBUG_VALUE: mbedtls_internal_md5_process:D <- $r1
	.loc	1 238 19                        @ ../../../ThirdParty/mbedTLS/library/md5.c:238:19
	ldr	r2, [sp, #8]                    @ 4-byte Reload
	adds	r2, r1, r2
	str	r2, [r7, #20]
	@DEBUG_VALUE: mbedtls_internal_md5_process:ctx <- $r7
.Ltmp374:
	.loc	1 230 5                         @ ../../../ThirdParty/mbedTLS/library/md5.c:230:5
	mvns	r2, r4
	orrs	r2, r1
	eors	r2, r0
	ldr	r3, [sp, #96]                   @ 4-byte Reload
.Ltmp375:
	@DEBUG_VALUE: mbedtls_internal_md5_process:X <- [DW_OP_LLVM_fragment 64 32] $r3
	adds	r3, r3, r5
.Ltmp376:
	adds	r2, r3, r2
	ldr	r3, __arm_cp.5_61
	adds	r2, r2, r3
.Ltmp377:
	@DEBUG_VALUE: mbedtls_internal_md5_process:C <- $r2
	ldr	r3, [sp, #40]                   @ 4-byte Reload
	rors	r2, r3
.Ltmp378:
	adds	r2, r2, r1
.Ltmp379:
	@DEBUG_VALUE: mbedtls_internal_md5_process:C <- $r2
	.loc	1 237 19                        @ ../../../ThirdParty/mbedTLS/library/md5.c:237:19
	ldr	r3, [sp, #4]                    @ 4-byte Reload
	adds	r3, r2, r3
	str	r3, [r7, #16]
.Ltmp380:
	.loc	1 231 5                         @ ../../../ThirdParty/mbedTLS/library/md5.c:231:5
	ldr	r3, [sp]                        @ 4-byte Reload
	adds	r3, r2, r3
	mvns	r0, r0
.Ltmp381:
	orrs	r0, r2
	eors	r0, r1
	ldr	r1, [sp, #72]                   @ 4-byte Reload
.Ltmp382:
	@DEBUG_VALUE: mbedtls_internal_md5_process:X <- [DW_OP_LLVM_fragment 288 32] $r1
	adds	r1, r1, r4
.Ltmp383:
	adds	r0, r1, r0
	ldr	r1, __arm_cp.5_62
	adds	r0, r0, r1
.Ltmp384:
	@DEBUG_VALUE: mbedtls_internal_md5_process:B <- $r0
	ldr	r1, [sp, #84]                   @ 4-byte Reload
	rors	r0, r1
.Ltmp385:
	.loc	1 236 19                        @ ../../../ThirdParty/mbedTLS/library/md5.c:236:19
	adds	r0, r3, r0
	str	r0, [r7, #12]
	movs	r0, #0
	.loc	1 240 5                         @ ../../../ThirdParty/mbedTLS/library/md5.c:240:5
	add	sp, #100
	pop	{r4, r5, r6, r7, pc}
.Ltmp386:
	.p2align	2
@ %bb.25:
	.loc	1 0 5 is_stmt 0                 @ ../../../ThirdParty/mbedTLS/library/md5.c:0:5
__arm_cp.5_23:
	.long	568446438                       @ 0x21e1cde6
.Lcpi_end27:
	.size	__arm_cp.5_23, .Lcpi_end27-__arm_cp.5_23
__arm_cp.5_24:
	.long	3275163606                      @ 0xc33707d6
.Lcpi_end28:
	.size	__arm_cp.5_24, .Lcpi_end28-__arm_cp.5_24
__arm_cp.5_25:
	.long	4107603335                      @ 0xf4d50d87
.Lcpi_end29:
	.size	__arm_cp.5_25, .Lcpi_end29-__arm_cp.5_25
__arm_cp.5_26:
	.long	1163531501                      @ 0x455a14ed
.Lcpi_end30:
	.size	__arm_cp.5_26, .Lcpi_end30-__arm_cp.5_26
__arm_cp.5_27:
	.long	2850285829                      @ 0xa9e3e905
.Lcpi_end31:
	.size	__arm_cp.5_27, .Lcpi_end31-__arm_cp.5_27
__arm_cp.5_28:
	.long	4243563512                      @ 0xfcefa3f8
.Lcpi_end32:
	.size	__arm_cp.5_28, .Lcpi_end32-__arm_cp.5_28
__arm_cp.5_29:
	.long	1735328473                      @ 0x676f02d9
.Lcpi_end33:
	.size	__arm_cp.5_29, .Lcpi_end33-__arm_cp.5_29
__arm_cp.5_30:
	.long	2368359562                      @ 0x8d2a4c8a
.Lcpi_end34:
	.size	__arm_cp.5_30, .Lcpi_end34-__arm_cp.5_30
__arm_cp.5_31:
	.long	4294588738                      @ 0xfffa3942
.Lcpi_end35:
	.size	__arm_cp.5_31, .Lcpi_end35-__arm_cp.5_31
__arm_cp.5_32:
	.long	2272392833                      @ 0x8771f681
.Lcpi_end36:
	.size	__arm_cp.5_32, .Lcpi_end36-__arm_cp.5_32
__arm_cp.5_33:
	.long	1839030562                      @ 0x6d9d6122
.Lcpi_end37:
	.size	__arm_cp.5_33, .Lcpi_end37-__arm_cp.5_33
__arm_cp.5_34:
	.long	4259657740                      @ 0xfde5380c
.Lcpi_end38:
	.size	__arm_cp.5_34, .Lcpi_end38-__arm_cp.5_34
__arm_cp.5_35:
	.long	2763975236                      @ 0xa4beea44
.Lcpi_end39:
	.size	__arm_cp.5_35, .Lcpi_end39-__arm_cp.5_35
__arm_cp.5_36:
	.long	1272893353                      @ 0x4bdecfa9
.Lcpi_end40:
	.size	__arm_cp.5_36, .Lcpi_end40-__arm_cp.5_36
__arm_cp.5_37:
	.long	4139469664                      @ 0xf6bb4b60
.Lcpi_end41:
	.size	__arm_cp.5_37, .Lcpi_end41-__arm_cp.5_37
__arm_cp.5_38:
	.long	3200236656                      @ 0xbebfbc70
.Lcpi_end42:
	.size	__arm_cp.5_38, .Lcpi_end42-__arm_cp.5_38
__arm_cp.5_39:
	.long	681279174                       @ 0x289b7ec6
.Lcpi_end43:
	.size	__arm_cp.5_39, .Lcpi_end43-__arm_cp.5_39
__arm_cp.5_40:
	.long	3936430074                      @ 0xeaa127fa
.Lcpi_end44:
	.size	__arm_cp.5_40, .Lcpi_end44-__arm_cp.5_40
__arm_cp.5_41:
	.long	3572445317                      @ 0xd4ef3085
.Lcpi_end45:
	.size	__arm_cp.5_41, .Lcpi_end45-__arm_cp.5_41
__arm_cp.5_42:
	.long	76029189                        @ 0x4881d05
.Lcpi_end46:
	.size	__arm_cp.5_42, .Lcpi_end46-__arm_cp.5_42
__arm_cp.5_43:
	.long	3654602809                      @ 0xd9d4d039
.Lcpi_end47:
	.size	__arm_cp.5_43, .Lcpi_end47-__arm_cp.5_43
__arm_cp.5_44:
	.long	3873151461                      @ 0xe6db99e5
.Lcpi_end48:
	.size	__arm_cp.5_44, .Lcpi_end48-__arm_cp.5_44
__arm_cp.5_45:
	.long	530742520                       @ 0x1fa27cf8
.Lcpi_end49:
	.size	__arm_cp.5_45, .Lcpi_end49-__arm_cp.5_45
__arm_cp.5_46:
	.long	3299628645                      @ 0xc4ac5665
.Lcpi_end50:
	.size	__arm_cp.5_46, .Lcpi_end50-__arm_cp.5_46
__arm_cp.5_47:
	.long	4096336452                      @ 0xf4292244
.Lcpi_end51:
	.size	__arm_cp.5_47, .Lcpi_end51-__arm_cp.5_47
__arm_cp.5_48:
	.long	1126891415                      @ 0x432aff97
.Lcpi_end52:
	.size	__arm_cp.5_48, .Lcpi_end52-__arm_cp.5_48
__arm_cp.5_49:
	.long	2878612391                      @ 0xab9423a7
.Lcpi_end53:
	.size	__arm_cp.5_49, .Lcpi_end53-__arm_cp.5_49
__arm_cp.5_50:
	.long	4237533241                      @ 0xfc93a039
.Lcpi_end54:
	.size	__arm_cp.5_50, .Lcpi_end54-__arm_cp.5_50
__arm_cp.5_51:
	.long	1700485571                      @ 0x655b59c3
.Lcpi_end55:
	.size	__arm_cp.5_51, .Lcpi_end55-__arm_cp.5_51
__arm_cp.5_52:
	.long	2399980690                      @ 0x8f0ccc92
.Lcpi_end56:
	.size	__arm_cp.5_52, .Lcpi_end56-__arm_cp.5_52
__arm_cp.5_53:
	.long	4293915773                      @ 0xffeff47d
.Lcpi_end57:
	.size	__arm_cp.5_53, .Lcpi_end57-__arm_cp.5_53
__arm_cp.5_54:
	.long	2240044497                      @ 0x85845dd1
.Lcpi_end58:
	.size	__arm_cp.5_54, .Lcpi_end58-__arm_cp.5_54
__arm_cp.5_55:
	.long	1873313359                      @ 0x6fa87e4f
.Lcpi_end59:
	.size	__arm_cp.5_55, .Lcpi_end59-__arm_cp.5_55
__arm_cp.5_56:
	.long	4264355552                      @ 0xfe2ce6e0
.Lcpi_end60:
	.size	__arm_cp.5_56, .Lcpi_end60-__arm_cp.5_56
__arm_cp.5_57:
	.long	2734768916                      @ 0xa3014314
.Lcpi_end61:
	.size	__arm_cp.5_57, .Lcpi_end61-__arm_cp.5_57
__arm_cp.5_58:
	.long	1309151649                      @ 0x4e0811a1
.Lcpi_end62:
	.size	__arm_cp.5_58, .Lcpi_end62-__arm_cp.5_58
__arm_cp.5_59:
	.long	4149444226                      @ 0xf7537e82
.Lcpi_end63:
	.size	__arm_cp.5_59, .Lcpi_end63-__arm_cp.5_59
__arm_cp.5_60:
	.long	3174756917                      @ 0xbd3af235
.Lcpi_end64:
	.size	__arm_cp.5_60, .Lcpi_end64-__arm_cp.5_60
__arm_cp.5_61:
	.long	718787259                       @ 0x2ad7d2bb
.Lcpi_end65:
	.size	__arm_cp.5_61, .Lcpi_end65-__arm_cp.5_61
__arm_cp.5_62:
	.long	3951481745                      @ 0xeb86d391
.Lcpi_end66:
	.size	__arm_cp.5_62, .Lcpi_end66-__arm_cp.5_62
.Lfunc_end5:
	.size	mbedtls_internal_md5_process, .Lfunc_end5-mbedtls_internal_md5_process
	.cfi_endproc
	.cantunwind
	.fnend
                                        @ -- End function
	.section	.text.mbedtls_md5_process,"ax",%progbits
	.hidden	mbedtls_md5_process             @ -- Begin function mbedtls_md5_process
	.globl	mbedtls_md5_process
	.p2align	1
	.type	mbedtls_md5_process,%function
	.code	16                              @ @mbedtls_md5_process
	.thumb_func
mbedtls_md5_process:
.Lfunc_begin6:
	.loc	1 246 0 is_stmt 1               @ ../../../ThirdParty/mbedTLS/library/md5.c:246:0
	.fnstart
	.cfi_startproc
@ %bb.0:
	@DEBUG_VALUE: mbedtls_md5_process:ctx <- $r0
	@DEBUG_VALUE: mbedtls_md5_process:ctx <- $r0
	@DEBUG_VALUE: mbedtls_md5_process:data <- $r1
	@DEBUG_VALUE: mbedtls_md5_process:data <- $r1
	@DEBUG_VALUE: mbedtls_md5_process:data <- $r1
	@DEBUG_VALUE: mbedtls_md5_process:ctx <- $r0
	.save	{r7, lr}
	push	{r7, lr}
	.cfi_def_cfa_offset 8
	.cfi_offset lr, -4
	.cfi_offset r7, -8
.Ltmp387:
	.loc	1 247 5 prologue_end            @ ../../../ThirdParty/mbedTLS/library/md5.c:247:5
	bl	mbedtls_internal_md5_process
.Ltmp388:
	@DEBUG_VALUE: mbedtls_md5_process:data <- [DW_OP_LLVM_entry_value 1] $r1
	@DEBUG_VALUE: mbedtls_md5_process:ctx <- [DW_OP_LLVM_entry_value 1] $r0
	.loc	1 248 1                         @ ../../../ThirdParty/mbedTLS/library/md5.c:248:1
	pop	{r7, pc}
.Ltmp389:
.Lfunc_end6:
	.size	mbedtls_md5_process, .Lfunc_end6-mbedtls_md5_process
	.cfi_endproc
	.cantunwind
	.fnend
                                        @ -- End function
	.section	.text.mbedtls_md5_update_ret,"ax",%progbits
	.hidden	mbedtls_md5_update_ret          @ -- Begin function mbedtls_md5_update_ret
	.globl	mbedtls_md5_update_ret
	.p2align	1
	.type	mbedtls_md5_update_ret,%function
	.code	16                              @ @mbedtls_md5_update_ret
	.thumb_func
mbedtls_md5_update_ret:
.Lfunc_begin7:
	.loc	1 258 0                         @ ../../../ThirdParty/mbedTLS/library/md5.c:258:0
	.fnstart
	.cfi_startproc
@ %bb.0:
	@DEBUG_VALUE: mbedtls_md5_update_ret:ctx <- $r0
	@DEBUG_VALUE: mbedtls_md5_update_ret:input <- $r1
	@DEBUG_VALUE: mbedtls_md5_update_ret:ilen <- $r2
	@DEBUG_VALUE: mbedtls_md5_update_ret:ilen <- $r2
	@DEBUG_VALUE: mbedtls_md5_update_ret:input <- $r1
	@DEBUG_VALUE: mbedtls_md5_update_ret:ctx <- $r0
	.save	{r4, r5, r6, r7, lr}
	push	{r4, r5, r6, r7, lr}
	.cfi_def_cfa_offset 20
	.cfi_offset lr, -4
	.cfi_offset r7, -8
	.cfi_offset r6, -12
	.cfi_offset r5, -16
	.cfi_offset r4, -20
	.pad	#12
	sub	sp, #12
	.cfi_def_cfa_offset 32
.Ltmp390:
	.loc	1 263 9 prologue_end            @ ../../../ThirdParty/mbedTLS/library/md5.c:263:9
	cbz	r2, .LBB7_10
.Ltmp391:
@ %bb.1:
	@DEBUG_VALUE: mbedtls_md5_update_ret:ilen <- $r2
	@DEBUG_VALUE: mbedtls_md5_update_ret:input <- $r1
	@DEBUG_VALUE: mbedtls_md5_update_ret:ctx <- $r0
	.loc	1 0 9 is_stmt 0                 @ ../../../ThirdParty/mbedTLS/library/md5.c:0:9
	mov	r4, r2
.Ltmp392:
	@DEBUG_VALUE: mbedtls_md5_update_ret:ilen <- $r4
	mov	r5, r1
.Ltmp393:
	@DEBUG_VALUE: mbedtls_md5_update_ret:input <- $r5
	mov	r6, r0
.Ltmp394:
	@DEBUG_VALUE: mbedtls_md5_update_ret:ctx <- $r6
	.loc	1 266 12 is_stmt 1              @ ../../../ThirdParty/mbedTLS/library/md5.c:266:12
	ldr	r1, [r0]
	.loc	1 269 19                        @ ../../../ThirdParty/mbedTLS/library/md5.c:269:19
	adds	r2, r1, r2
	.loc	1 270 19                        @ ../../../ThirdParty/mbedTLS/library/md5.c:270:19
	str	r2, [r0]
	movs	r0, #63
	.loc	1 266 26                        @ ../../../ThirdParty/mbedTLS/library/md5.c:266:26
	ands	r0, r1
.Ltmp395:
	@DEBUG_VALUE: mbedtls_md5_update_ret:fill <- undef
	@DEBUG_VALUE: mbedtls_md5_update_ret:left <- $r0
	.loc	1 269 19                        @ ../../../ThirdParty/mbedTLS/library/md5.c:269:19
	cmp	r2, r1
	.loc	1 272 9                         @ ../../../ThirdParty/mbedTLS/library/md5.c:272:9
	bhs	.LBB7_3
.Ltmp396:
@ %bb.2:
	@DEBUG_VALUE: mbedtls_md5_update_ret:ctx <- $r6
	@DEBUG_VALUE: mbedtls_md5_update_ret:input <- $r5
	@DEBUG_VALUE: mbedtls_md5_update_ret:ilen <- $r4
	@DEBUG_VALUE: mbedtls_md5_update_ret:left <- $r0
	.loc	1 273 22                        @ ../../../ThirdParty/mbedTLS/library/md5.c:273:22
	ldr	r1, [r6, #4]
	adds	r1, r1, #1
	str	r1, [r6, #4]
.Ltmp397:
.LBB7_3:
	@DEBUG_VALUE: mbedtls_md5_update_ret:ctx <- $r6
	@DEBUG_VALUE: mbedtls_md5_update_ret:input <- $r5
	@DEBUG_VALUE: mbedtls_md5_update_ret:ilen <- $r4
	@DEBUG_VALUE: mbedtls_md5_update_ret:left <- $r0
	@DEBUG_VALUE: mbedtls_md5_update_ret:fill <- undef
	.loc	1 0 22 is_stmt 0                @ ../../../ThirdParty/mbedTLS/library/md5.c:0:22
	movs	r7, #0
.Ltmp398:
	.loc	1 275 14 is_stmt 1              @ ../../../ThirdParty/mbedTLS/library/md5.c:275:14
	cbz	r0, .LBB7_6
.Ltmp399:
@ %bb.4:
	@DEBUG_VALUE: mbedtls_md5_update_ret:ctx <- $r6
	@DEBUG_VALUE: mbedtls_md5_update_ret:input <- $r5
	@DEBUG_VALUE: mbedtls_md5_update_ret:ilen <- $r4
	@DEBUG_VALUE: mbedtls_md5_update_ret:left <- $r0
	.loc	1 0 14 is_stmt 0                @ ../../../ThirdParty/mbedTLS/library/md5.c:0:14
	str	r7, [sp, #8]                    @ 4-byte Spill
	movs	r1, #64
	subs	r7, r1, r0
.Ltmp400:
	@DEBUG_VALUE: mbedtls_md5_update_ret:fill <- $r7
	.loc	1 275 9                         @ ../../../ThirdParty/mbedTLS/library/md5.c:275:9
	cmp	r7, r4
	bls	.LBB7_11
.Ltmp401:
@ %bb.5:
	@DEBUG_VALUE: mbedtls_md5_update_ret:fill <- $r7
	@DEBUG_VALUE: mbedtls_md5_update_ret:ctx <- $r6
	@DEBUG_VALUE: mbedtls_md5_update_ret:input <- $r5
	@DEBUG_VALUE: mbedtls_md5_update_ret:ilen <- $r4
	@DEBUG_VALUE: mbedtls_md5_update_ret:left <- $r0
	.loc	1 0 0                           @ ../../../ThirdParty/mbedTLS/library/md5.c:0:0
	mov	r7, r0
.Ltmp402:
	@DEBUG_VALUE: mbedtls_md5_update_ret:left <- $r7
.LBB7_6:
	@DEBUG_VALUE: mbedtls_md5_update_ret:ctx <- $r6
	@DEBUG_VALUE: mbedtls_md5_update_ret:input <- $r5
	@DEBUG_VALUE: mbedtls_md5_update_ret:ilen <- $r4
	@DEBUG_VALUE: mbedtls_md5_update_ret:input <- $r5
	@DEBUG_VALUE: mbedtls_md5_update_ret:ilen <- $r4
	@DEBUG_VALUE: mbedtls_md5_update_ret:left <- $r7
	.loc	1 286 5 is_stmt 1               @ ../../../ThirdParty/mbedTLS/library/md5.c:286:5
	cmp	r4, #64
	blo	.LBB7_8
.Ltmp403:
.LBB7_7:                                @ =>This Inner Loop Header: Depth=1
	@DEBUG_VALUE: mbedtls_md5_update_ret:left <- $r7
	@DEBUG_VALUE: mbedtls_md5_update_ret:ctx <- $r6
	@DEBUG_VALUE: mbedtls_md5_update_ret:input <- $r5
	@DEBUG_VALUE: mbedtls_md5_update_ret:ilen <- $r4
	@DEBUG_VALUE: mbedtls_md5_update_ret:input <- $r5
	@DEBUG_VALUE: mbedtls_md5_update_ret:ilen <- $r4
	.loc	1 288 21                        @ ../../../ThirdParty/mbedTLS/library/md5.c:288:21
	mov	r0, r6
	mov	r1, r5
	bl	mbedtls_internal_md5_process
.Ltmp404:
	.loc	1 292 15                        @ ../../../ThirdParty/mbedTLS/library/md5.c:292:15
	subs	r4, #64
.Ltmp405:
	@DEBUG_VALUE: mbedtls_md5_update_ret:ret <- 0
	@DEBUG_VALUE: mbedtls_md5_update_ret:ilen <- $r4
	.loc	1 291 15                        @ ../../../ThirdParty/mbedTLS/library/md5.c:291:15
	adds	r5, #64
.Ltmp406:
	@DEBUG_VALUE: mbedtls_md5_update_ret:input <- $r5
	.loc	1 286 5                         @ ../../../ThirdParty/mbedTLS/library/md5.c:286:5
	cmp	r4, #63
	bhi	.LBB7_7
.Ltmp407:
.LBB7_8:
	@DEBUG_VALUE: mbedtls_md5_update_ret:left <- $r7
	@DEBUG_VALUE: mbedtls_md5_update_ret:ctx <- $r6
	@DEBUG_VALUE: mbedtls_md5_update_ret:input <- $r5
	@DEBUG_VALUE: mbedtls_md5_update_ret:ilen <- $r4
	@DEBUG_VALUE: mbedtls_md5_update_ret:input <- $r5
	@DEBUG_VALUE: mbedtls_md5_update_ret:ilen <- $r4
	.loc	1 295 9                         @ ../../../ThirdParty/mbedTLS/library/md5.c:295:9
	cbz	r4, .LBB7_10
.Ltmp408:
@ %bb.9:
	@DEBUG_VALUE: mbedtls_md5_update_ret:left <- $r7
	@DEBUG_VALUE: mbedtls_md5_update_ret:ctx <- $r6
	@DEBUG_VALUE: mbedtls_md5_update_ret:input <- $r5
	@DEBUG_VALUE: mbedtls_md5_update_ret:ilen <- $r4
	.loc	1 297 39                        @ ../../../ThirdParty/mbedTLS/library/md5.c:297:39
	adds	r0, r6, r7
	adds	r0, #24
	.loc	1 297 9 is_stmt 0               @ ../../../ThirdParty/mbedTLS/library/md5.c:297:9
	mov	r1, r5
	mov	r2, r4
	bl	__aeabi_memcpy
.Ltmp409:
.LBB7_10:
	.loc	1 0 9                           @ ../../../ThirdParty/mbedTLS/library/md5.c:0:9
	movs	r0, #0
	.loc	1 301 1 is_stmt 1               @ ../../../ThirdParty/mbedTLS/library/md5.c:301:1
	add	sp, #12
	pop	{r4, r5, r6, r7, pc}
.LBB7_11:
.Ltmp410:
	@DEBUG_VALUE: mbedtls_md5_update_ret:fill <- $r7
	@DEBUG_VALUE: mbedtls_md5_update_ret:ctx <- $r6
	@DEBUG_VALUE: mbedtls_md5_update_ret:input <- $r5
	@DEBUG_VALUE: mbedtls_md5_update_ret:ilen <- $r4
	@DEBUG_VALUE: mbedtls_md5_update_ret:left <- $r0
	.loc	1 277 27                        @ ../../../ThirdParty/mbedTLS/library/md5.c:277:27
	mov	r1, r6
	adds	r1, #24
	.loc	1 277 39 is_stmt 0              @ ../../../ThirdParty/mbedTLS/library/md5.c:277:39
	str	r1, [sp, #4]                    @ 4-byte Spill
	adds	r0, r1, r0
.Ltmp411:
	.loc	1 277 9                         @ ../../../ThirdParty/mbedTLS/library/md5.c:277:9
	mov	r1, r5
	mov	r2, r7
	bl	__aeabi_memcpy
.Ltmp412:
	.loc	1 278 21 is_stmt 1              @ ../../../ThirdParty/mbedTLS/library/md5.c:278:21
	mov	r0, r6
	ldr	r1, [sp, #4]                    @ 4-byte Reload
	bl	mbedtls_internal_md5_process
.Ltmp413:
	.loc	1 282 15                        @ ../../../ThirdParty/mbedTLS/library/md5.c:282:15
	subs	r4, r4, r7
.Ltmp414:
	@DEBUG_VALUE: mbedtls_md5_update_ret:ilen <- [DW_OP_LLVM_entry_value 1] $r2
	@DEBUG_VALUE: mbedtls_md5_update_ret:ret <- 0
	@DEBUG_VALUE: mbedtls_md5_update_ret:ilen <- $r4
	.loc	1 281 15                        @ ../../../ThirdParty/mbedTLS/library/md5.c:281:15
	adds	r5, r5, r7
.Ltmp415:
	@DEBUG_VALUE: mbedtls_md5_update_ret:input <- [DW_OP_LLVM_entry_value 1] $r1
	@DEBUG_VALUE: mbedtls_md5_update_ret:left <- 0
	@DEBUG_VALUE: mbedtls_md5_update_ret:input <- $r5
	.loc	1 0 15 is_stmt 0                @ ../../../ThirdParty/mbedTLS/library/md5.c:0:15
	ldr	r7, [sp, #8]                    @ 4-byte Reload
.Ltmp416:
	@DEBUG_VALUE: mbedtls_md5_update_ret:input <- $r5
	@DEBUG_VALUE: mbedtls_md5_update_ret:ilen <- $r4
	@DEBUG_VALUE: mbedtls_md5_update_ret:left <- $r7
	.loc	1 286 5 is_stmt 1               @ ../../../ThirdParty/mbedTLS/library/md5.c:286:5
	cmp	r4, #64
	bhs	.LBB7_7
	b	.LBB7_8
.Ltmp417:
.Lfunc_end7:
	.size	mbedtls_md5_update_ret, .Lfunc_end7-mbedtls_md5_update_ret
	.cfi_endproc
	.cantunwind
	.fnend
                                        @ -- End function
	.section	.text.mbedtls_md5_update,"ax",%progbits
	.hidden	mbedtls_md5_update              @ -- Begin function mbedtls_md5_update
	.globl	mbedtls_md5_update
	.p2align	1
	.type	mbedtls_md5_update,%function
	.code	16                              @ @mbedtls_md5_update
	.thumb_func
mbedtls_md5_update:
.Lfunc_begin8:
	.loc	1 307 0                         @ ../../../ThirdParty/mbedTLS/library/md5.c:307:0
	.fnstart
	.cfi_startproc
@ %bb.0:
	@DEBUG_VALUE: mbedtls_md5_update:ctx <- $r0
	@DEBUG_VALUE: mbedtls_md5_update:ctx <- $r0
	@DEBUG_VALUE: mbedtls_md5_update:input <- $r1
	@DEBUG_VALUE: mbedtls_md5_update:input <- $r1
	@DEBUG_VALUE: mbedtls_md5_update:ilen <- $r2
	@DEBUG_VALUE: mbedtls_md5_update:ilen <- $r2
	@DEBUG_VALUE: mbedtls_md5_update:ilen <- $r2
	@DEBUG_VALUE: mbedtls_md5_update:input <- $r1
	@DEBUG_VALUE: mbedtls_md5_update:ctx <- $r0
	.save	{r7, lr}
	push	{r7, lr}
	.cfi_def_cfa_offset 8
	.cfi_offset lr, -4
	.cfi_offset r7, -8
.Ltmp418:
	.loc	1 308 5 prologue_end            @ ../../../ThirdParty/mbedTLS/library/md5.c:308:5
	bl	mbedtls_md5_update_ret
.Ltmp419:
	@DEBUG_VALUE: mbedtls_md5_update:ilen <- [DW_OP_LLVM_entry_value 1] $r2
	@DEBUG_VALUE: mbedtls_md5_update:input <- [DW_OP_LLVM_entry_value 1] $r1
	@DEBUG_VALUE: mbedtls_md5_update:ctx <- [DW_OP_LLVM_entry_value 1] $r0
	.loc	1 309 1                         @ ../../../ThirdParty/mbedTLS/library/md5.c:309:1
	pop	{r7, pc}
.Ltmp420:
.Lfunc_end8:
	.size	mbedtls_md5_update, .Lfunc_end8-mbedtls_md5_update
	.cfi_endproc
	.cantunwind
	.fnend
                                        @ -- End function
	.section	.text.mbedtls_md5_finish_ret,"ax",%progbits
	.hidden	mbedtls_md5_finish_ret          @ -- Begin function mbedtls_md5_finish_ret
	.globl	mbedtls_md5_finish_ret
	.p2align	1
	.type	mbedtls_md5_finish_ret,%function
	.code	16                              @ @mbedtls_md5_finish_ret
	.thumb_func
mbedtls_md5_finish_ret:
.Lfunc_begin9:
	.loc	1 317 0                         @ ../../../ThirdParty/mbedTLS/library/md5.c:317:0
	.fnstart
	.cfi_startproc
@ %bb.0:
	@DEBUG_VALUE: mbedtls_md5_finish_ret:ctx <- $r0
	@DEBUG_VALUE: mbedtls_md5_finish_ret:output <- $r1
	.save	{r4, r5, r6, r7, lr}
	push	{r4, r5, r6, r7, lr}
	.cfi_def_cfa_offset 20
	.cfi_offset lr, -4
	.cfi_offset r7, -8
	.cfi_offset r6, -12
	.cfi_offset r5, -16
	.cfi_offset r4, -20
	.pad	#4
	sub	sp, #4
	.cfi_def_cfa_offset 24
	mov	r4, r1
	mov	r5, r0
.Ltmp421:
	@DEBUG_VALUE: mbedtls_md5_finish_ret:output <- $r4
	@DEBUG_VALUE: mbedtls_md5_finish_ret:ctx <- $r5
	.loc	1 325 12 prologue_end           @ ../../../ThirdParty/mbedTLS/library/md5.c:325:12
	ldr	r1, [r0]
	movs	r0, #63
	.loc	1 325 26 is_stmt 0              @ ../../../ThirdParty/mbedTLS/library/md5.c:325:26
	ands	r1, r0
.Ltmp422:
	@DEBUG_VALUE: mbedtls_md5_finish_ret:used <- $r1
	.loc	1 327 10 is_stmt 1              @ ../../../ThirdParty/mbedTLS/library/md5.c:327:10
	mov	r6, r5
	adds	r6, #24
	movs	r2, #128
	.loc	1 327 25 is_stmt 0              @ ../../../ThirdParty/mbedTLS/library/md5.c:327:25
	strb	r2, [r6, r1]
	.loc	1 327 21                        @ ../../../ThirdParty/mbedTLS/library/md5.c:327:21
	adds	r2, r1, #1
.Ltmp423:
	@DEBUG_VALUE: mbedtls_md5_finish_ret:used <- $r2
	.loc	1 0 0                           @ ../../../ThirdParty/mbedTLS/library/md5.c:0:0
	mov	r7, r5
	adds	r7, #80
	.loc	1 329 9 is_stmt 1               @ ../../../ThirdParty/mbedTLS/library/md5.c:329:9
	cmp	r1, #55
	bhi	.LBB9_2
.Ltmp424:
@ %bb.1:
	@DEBUG_VALUE: mbedtls_md5_finish_ret:ctx <- $r5
	@DEBUG_VALUE: mbedtls_md5_finish_ret:output <- $r4
	@DEBUG_VALUE: mbedtls_md5_finish_ret:used <- $r2
	.loc	1 0 9 is_stmt 0                 @ ../../../ThirdParty/mbedTLS/library/md5.c:0:9
	movs	r0, #55
.Ltmp425:
	.loc	1 332 43 is_stmt 1              @ ../../../ThirdParty/mbedTLS/library/md5.c:332:43
	subs	r1, r0, r1
	.loc	1 332 29 is_stmt 0              @ ../../../ThirdParty/mbedTLS/library/md5.c:332:29
	adds	r0, r5, r2
	adds	r0, #24
	.loc	1 332 9                         @ ../../../ThirdParty/mbedTLS/library/md5.c:332:9
	bl	__aeabi_memclr
.Ltmp426:
	.loc	1 333 5 is_stmt 1               @ ../../../ThirdParty/mbedTLS/library/md5.c:333:5
	b	.LBB9_3
.Ltmp427:
.LBB9_2:
	@DEBUG_VALUE: mbedtls_md5_finish_ret:ctx <- $r5
	@DEBUG_VALUE: mbedtls_md5_finish_ret:output <- $r4
	@DEBUG_VALUE: mbedtls_md5_finish_ret:used <- $r2
	.loc	1 337 43                        @ ../../../ThirdParty/mbedTLS/library/md5.c:337:43
	eors	r1, r0
	.loc	1 337 29 is_stmt 0              @ ../../../ThirdParty/mbedTLS/library/md5.c:337:29
	adds	r0, r5, r2
	adds	r0, #24
	.loc	1 337 9                         @ ../../../ThirdParty/mbedTLS/library/md5.c:337:9
	bl	__aeabi_memclr
.Ltmp428:
	.loc	1 339 21 is_stmt 1              @ ../../../ThirdParty/mbedTLS/library/md5.c:339:21
	mov	r0, r5
	mov	r1, r6
	bl	mbedtls_internal_md5_process
.Ltmp429:
	@DEBUG_VALUE: mbedtls_md5_finish_ret:ret <- 0
	.loc	1 0 21 is_stmt 0                @ ../../../ThirdParty/mbedTLS/library/md5.c:0:21
	movs	r1, #56
.Ltmp430:
	.loc	1 342 9 is_stmt 1               @ ../../../ThirdParty/mbedTLS/library/md5.c:342:9
	mov	r0, r6
	bl	__aeabi_memclr4
.Ltmp431:
.LBB9_3:
	@DEBUG_VALUE: mbedtls_md5_finish_ret:ctx <- $r5
	@DEBUG_VALUE: mbedtls_md5_finish_ret:output <- $r4
	.loc	1 348 14                        @ ../../../ThirdParty/mbedTLS/library/md5.c:348:14
	ldm	r5!, {r0, r1}
.Ltmp432:
	.loc	1 353 5                         @ ../../../ThirdParty/mbedTLS/library/md5.c:353:5
	lsrs	r2, r1, #21
	strb	r2, [r7, #7]
	lsrs	r2, r1, #13
	strb	r2, [r7, #6]
	lsrs	r2, r1, #5
	strb	r2, [r7, #5]
.Ltmp433:
	.loc	1 352 5                         @ ../../../ThirdParty/mbedTLS/library/md5.c:352:5
	lsrs	r2, r0, #21
	strb	r2, [r7, #3]
	lsrs	r2, r0, #13
	strb	r2, [r7, #2]
	lsrs	r2, r0, #5
	strb	r2, [r7, #1]
.Ltmp434:
	@DEBUG_VALUE: mbedtls_md5_finish_ret:low <- [DW_OP_constu 3, DW_OP_shl, DW_OP_stack_value] $r0
	@DEBUG_VALUE: mbedtls_md5_finish_ret:high <- undef
	lsls	r2, r0, #3
	strb	r2, [r7]
.Ltmp435:
	.loc	1 348 28                        @ ../../../ThirdParty/mbedTLS/library/md5.c:348:28
	lsrs	r0, r0, #29
.Ltmp436:
	.loc	1 349 30                        @ ../../../ThirdParty/mbedTLS/library/md5.c:349:30
	lsls	r1, r1, #3
	.loc	1 349 12 is_stmt 0              @ ../../../ThirdParty/mbedTLS/library/md5.c:349:12
	adds	r0, r1, r0
.Ltmp437:
	.loc	1 353 5 is_stmt 1               @ ../../../ThirdParty/mbedTLS/library/md5.c:353:5
	strb	r0, [r7, #4]
.Ltmp438:
	.loc	1 348 14                        @ ../../../ThirdParty/mbedTLS/library/md5.c:348:14
	subs	r5, #8
.Ltmp439:
	.loc	1 355 17                        @ ../../../ThirdParty/mbedTLS/library/md5.c:355:17
	mov	r0, r5
	mov	r1, r6
	bl	mbedtls_internal_md5_process
.Ltmp440:
	@DEBUG_VALUE: mbedtls_md5_finish_ret:ret <- 0
	.loc	1 361 5                         @ ../../../ThirdParty/mbedTLS/library/md5.c:361:5
	ldr	r0, [r5, #8]
	strb	r0, [r4]
	ldr	r0, [r5, #8]
	lsrs	r0, r0, #8
	strb	r0, [r4, #1]
	ldrh	r0, [r5, #10]
	strb	r0, [r4, #2]
	ldrb	r0, [r5, #11]
	strb	r0, [r4, #3]
.Ltmp441:
	.loc	1 362 5                         @ ../../../ThirdParty/mbedTLS/library/md5.c:362:5
	ldr	r0, [r5, #12]
	strb	r0, [r4, #4]
	ldr	r0, [r5, #12]
	lsrs	r0, r0, #8
	strb	r0, [r4, #5]
	ldrh	r0, [r5, #14]
	strb	r0, [r4, #6]
	ldrb	r0, [r5, #15]
	strb	r0, [r4, #7]
.Ltmp442:
	.loc	1 363 5                         @ ../../../ThirdParty/mbedTLS/library/md5.c:363:5
	ldr	r0, [r5, #16]
	strb	r0, [r4, #8]
	ldr	r0, [r5, #16]
	lsrs	r0, r0, #8
	strb	r0, [r4, #9]
	ldrh	r0, [r5, #18]
	strb	r0, [r4, #10]
	ldrb	r0, [r5, #19]
	strb	r0, [r4, #11]
.Ltmp443:
	.loc	1 364 5                         @ ../../../ThirdParty/mbedTLS/library/md5.c:364:5
	ldr	r0, [r5, #20]
	strb	r0, [r4, #12]
	ldr	r0, [r5, #20]
	lsrs	r0, r0, #8
	strb	r0, [r4, #13]
	ldrh	r0, [r5, #22]
	strb	r0, [r4, #14]
	ldrb	r0, [r5, #23]
	strb	r0, [r4, #15]
	movs	r0, #0
.Ltmp444:
	.loc	1 367 1                         @ ../../../ThirdParty/mbedTLS/library/md5.c:367:1
	add	sp, #4
	pop	{r4, r5, r6, r7, pc}
.Ltmp445:
.Lfunc_end9:
	.size	mbedtls_md5_finish_ret, .Lfunc_end9-mbedtls_md5_finish_ret
	.cfi_endproc
	.cantunwind
	.fnend
                                        @ -- End function
	.section	.text.mbedtls_md5_finish,"ax",%progbits
	.hidden	mbedtls_md5_finish              @ -- Begin function mbedtls_md5_finish
	.globl	mbedtls_md5_finish
	.p2align	1
	.type	mbedtls_md5_finish,%function
	.code	16                              @ @mbedtls_md5_finish
	.thumb_func
mbedtls_md5_finish:
.Lfunc_begin10:
	.loc	1 372 0                         @ ../../../ThirdParty/mbedTLS/library/md5.c:372:0
	.fnstart
	.cfi_startproc
@ %bb.0:
	@DEBUG_VALUE: mbedtls_md5_finish:ctx <- $r0
	@DEBUG_VALUE: mbedtls_md5_finish:ctx <- $r0
	@DEBUG_VALUE: mbedtls_md5_finish:output <- $r1
	@DEBUG_VALUE: mbedtls_md5_finish:output <- $r1
	@DEBUG_VALUE: mbedtls_md5_finish:output <- $r1
	@DEBUG_VALUE: mbedtls_md5_finish:ctx <- $r0
	.save	{r7, lr}
	push	{r7, lr}
	.cfi_def_cfa_offset 8
	.cfi_offset lr, -4
	.cfi_offset r7, -8
.Ltmp446:
	.loc	1 373 5 prologue_end            @ ../../../ThirdParty/mbedTLS/library/md5.c:373:5
	bl	mbedtls_md5_finish_ret
.Ltmp447:
	@DEBUG_VALUE: mbedtls_md5_finish:output <- [DW_OP_LLVM_entry_value 1] $r1
	@DEBUG_VALUE: mbedtls_md5_finish:ctx <- [DW_OP_LLVM_entry_value 1] $r0
	.loc	1 374 1                         @ ../../../ThirdParty/mbedTLS/library/md5.c:374:1
	pop	{r7, pc}
.Ltmp448:
.Lfunc_end10:
	.size	mbedtls_md5_finish, .Lfunc_end10-mbedtls_md5_finish
	.cfi_endproc
	.cantunwind
	.fnend
                                        @ -- End function
	.section	.text.mbedtls_md5_ret,"ax",%progbits
	.hidden	mbedtls_md5_ret                 @ -- Begin function mbedtls_md5_ret
	.globl	mbedtls_md5_ret
	.p2align	1
	.type	mbedtls_md5_ret,%function
	.code	16                              @ @mbedtls_md5_ret
	.thumb_func
mbedtls_md5_ret:
.Lfunc_begin11:
	.loc	1 385 0                         @ ../../../ThirdParty/mbedTLS/library/md5.c:385:0
	.fnstart
	.cfi_startproc
@ %bb.0:
	@DEBUG_VALUE: mbedtls_md5_ret:input <- $r0
	@DEBUG_VALUE: mbedtls_md5_ret:ilen <- $r1
	@DEBUG_VALUE: mbedtls_md5_ret:output <- $r2
	.save	{r4, r5, r6, r7, lr}
	push	{r4, r5, r6, r7, lr}
	.cfi_def_cfa_offset 20
	.cfi_offset lr, -4
	.cfi_offset r7, -8
	.cfi_offset r6, -12
	.cfi_offset r5, -16
	.cfi_offset r4, -20
	.pad	#92
	sub	sp, #92
	.cfi_def_cfa_offset 112
	mov	r4, r2
	mov	r6, r1
	mov	r7, r0
.Ltmp449:
	@DEBUG_VALUE: mbedtls_md5_ret:output <- $r4
	@DEBUG_VALUE: mbedtls_md5_ret:ilen <- $r6
	@DEBUG_VALUE: mbedtls_md5_ret:input <- $r7
	add	r5, sp, #4
.Ltmp450:
	.loc	1 389 5 prologue_end            @ ../../../ThirdParty/mbedTLS/library/md5.c:389:5
	mov	r0, r5
	bl	mbedtls_md5_init
.Ltmp451:
	.loc	1 391 17                        @ ../../../ThirdParty/mbedTLS/library/md5.c:391:17
	mov	r0, r5
	bl	mbedtls_md5_starts_ret
.Ltmp452:
	@DEBUG_VALUE: mbedtls_md5_ret:ret <- 0
	.loc	1 394 17                        @ ../../../ThirdParty/mbedTLS/library/md5.c:394:17
	mov	r0, r5
	mov	r1, r7
.Ltmp453:
	@DEBUG_VALUE: mbedtls_md5_ret:input <- $r1
	mov	r2, r6
.Ltmp454:
	@DEBUG_VALUE: mbedtls_md5_ret:ilen <- $r2
	bl	mbedtls_md5_update_ret
.Ltmp455:
	.loc	1 397 17                        @ ../../../ThirdParty/mbedTLS/library/md5.c:397:17
	mov	r0, r5
	mov	r1, r4
.Ltmp456:
	@DEBUG_VALUE: mbedtls_md5_ret:output <- $r1
	bl	mbedtls_md5_finish_ret
.Ltmp457:
	@DEBUG_LABEL: mbedtls_md5_ret:exit
	.loc	1 401 5                         @ ../../../ThirdParty/mbedTLS/library/md5.c:401:5
	mov	r0, r5
	bl	mbedtls_md5_free
	movs	r0, #0
	.loc	1 403 5                         @ ../../../ThirdParty/mbedTLS/library/md5.c:403:5
	add	sp, #92
	pop	{r4, r5, r6, r7, pc}
.Ltmp458:
.Lfunc_end11:
	.size	mbedtls_md5_ret, .Lfunc_end11-mbedtls_md5_ret
	.cfi_endproc
	.cantunwind
	.fnend
                                        @ -- End function
	.section	.text.mbedtls_md5,"ax",%progbits
	.hidden	mbedtls_md5                     @ -- Begin function mbedtls_md5
	.globl	mbedtls_md5
	.p2align	1
	.type	mbedtls_md5,%function
	.code	16                              @ @mbedtls_md5
	.thumb_func
mbedtls_md5:
.Lfunc_begin12:
	.loc	1 410 0                         @ ../../../ThirdParty/mbedTLS/library/md5.c:410:0
	.fnstart
	.cfi_startproc
@ %bb.0:
	@DEBUG_VALUE: mbedtls_md5:input <- $r0
	@DEBUG_VALUE: mbedtls_md5:input <- $r0
	@DEBUG_VALUE: mbedtls_md5:ilen <- $r1
	@DEBUG_VALUE: mbedtls_md5:ilen <- $r1
	@DEBUG_VALUE: mbedtls_md5:output <- $r2
	@DEBUG_VALUE: mbedtls_md5:output <- $r2
	@DEBUG_VALUE: mbedtls_md5:output <- $r2
	@DEBUG_VALUE: mbedtls_md5:ilen <- $r1
	@DEBUG_VALUE: mbedtls_md5:input <- $r0
	.save	{r7, lr}
	push	{r7, lr}
	.cfi_def_cfa_offset 8
	.cfi_offset lr, -4
	.cfi_offset r7, -8
.Ltmp459:
	.loc	1 411 5 prologue_end            @ ../../../ThirdParty/mbedTLS/library/md5.c:411:5
	bl	mbedtls_md5_ret
.Ltmp460:
	@DEBUG_VALUE: mbedtls_md5:output <- [DW_OP_LLVM_entry_value 1] $r2
	@DEBUG_VALUE: mbedtls_md5:ilen <- [DW_OP_LLVM_entry_value 1] $r1
	@DEBUG_VALUE: mbedtls_md5:input <- [DW_OP_LLVM_entry_value 1] $r0
	.loc	1 412 1                         @ ../../../ThirdParty/mbedTLS/library/md5.c:412:1
	pop	{r7, pc}
.Ltmp461:
.Lfunc_end12:
	.size	mbedtls_md5, .Lfunc_end12-mbedtls_md5
	.cfi_endproc
	.cantunwind
	.fnend
                                        @ -- End function
	.section	.text.mbedtls_md5_self_test,"ax",%progbits
	.hidden	mbedtls_md5_self_test           @ -- Begin function mbedtls_md5_self_test
	.globl	mbedtls_md5_self_test
	.p2align	2
	.type	mbedtls_md5_self_test,%function
	.code	16                              @ @mbedtls_md5_self_test
	.thumb_func
mbedtls_md5_self_test:
.Lfunc_begin13:
	.loc	1 466 0                         @ ../../../ThirdParty/mbedTLS/library/md5.c:466:0
	.fnstart
	.cfi_startproc
@ %bb.0:
	@DEBUG_VALUE: mbedtls_md5_self_test:verbose <- $r0
	.save	{r4, r5, r6, r7, lr}
	push	{r4, r5, r6, r7, lr}
	.cfi_def_cfa_offset 20
	.cfi_offset lr, -4
	.cfi_offset r7, -8
	.cfi_offset r6, -12
	.cfi_offset r5, -16
	.cfi_offset r4, -20
	.pad	#28
	sub	sp, #28
	.cfi_def_cfa_offset 48
	mov	r4, r0
.Ltmp462:
	@DEBUG_VALUE: mbedtls_md5_self_test:ret <- 0
	@DEBUG_VALUE: mbedtls_md5_self_test:verbose <- $r4
	movs	r5, #1
	adr	r0, .LCPI13_0
	str	r0, [sp, #8]                    @ 4-byte Spill
	ldr	r6, __arm_cp.13_1
	ldr	r7, __arm_cp.13_2
.Ltmp463:
	@DEBUG_VALUE: mbedtls_md5_self_test:i <- 0
	movs	r0, #16
	str	r0, [sp]                        @ 4-byte Spill
	str	r4, [sp, #4]                    @ 4-byte Spill
	b	.LBB13_2
.Ltmp464:
.LBB13_1:                               @   in Loop: Header=BB13_2 Depth=1
	@DEBUG_VALUE: mbedtls_md5_self_test:ret <- 0
	@DEBUG_VALUE: mbedtls_md5_self_test:i <- [DW_OP_plus_uconst 1, DW_OP_stack_value] undef
	.loc	1 470 19 prologue_end           @ ../../../ThirdParty/mbedTLS/library/md5.c:470:19
	adds	r7, #16
	adds	r6, #81
	ldr	r0, [sp, #8]                    @ 4-byte Reload
	adds	r0, r0, #4
	str	r0, [sp, #8]                    @ 4-byte Spill
	adds	r5, r5, #1
.Ltmp465:
	.loc	1 470 5 is_stmt 0               @ ../../../ThirdParty/mbedTLS/library/md5.c:470:5
	cmp	r5, #8
	beq	.LBB13_9
.Ltmp466:
.LBB13_2:                               @ =>This Inner Loop Header: Depth=1
	@DEBUG_VALUE: mbedtls_md5_self_test:ret <- 0
	@DEBUG_VALUE: mbedtls_md5_self_test:i <- undef
	.loc	1 472 13 is_stmt 1              @ ../../../ThirdParty/mbedTLS/library/md5.c:472:13
	cbz	r4, .LBB13_4
.Ltmp467:
@ %bb.3:                                @   in Loop: Header=BB13_2 Depth=1
	@DEBUG_VALUE: mbedtls_md5_self_test:ret <- 0
	.loc	1 473 13                        @ ../../../ThirdParty/mbedTLS/library/md5.c:473:13
	adr	r0, .LCPI13_3
	mov	r1, r5
	bl	__2printf
.Ltmp468:
.LBB13_4:                               @   in Loop: Header=BB13_2 Depth=1
	@DEBUG_VALUE: mbedtls_md5_self_test:ret <- 0
	.loc	1 475 49                        @ ../../../ThirdParty/mbedTLS/library/md5.c:475:49
	ldr	r0, [sp, #8]                    @ 4-byte Reload
	ldr	r1, [r0]
	add	r4, sp, #12
	.loc	1 475 15 is_stmt 0              @ ../../../ThirdParty/mbedTLS/library/md5.c:475:15
	mov	r0, r6
	mov	r2, r4
	bl	mbedtls_md5_ret
	@DEBUG_VALUE: mbedtls_md5_self_test:ret <- 0
.Ltmp469:
	.loc	1 479 13 is_stmt 1              @ ../../../ThirdParty/mbedTLS/library/md5.c:479:13
	mov	r0, r4
	mov	r1, r7
	ldr	r2, [sp]                        @ 4-byte Reload
	bl	memcmp
.Ltmp470:
	.loc	1 479 13 is_stmt 0              @ ../../../ThirdParty/mbedTLS/library/md5.c:479:13
	cbnz	r0, .LBB13_7
.Ltmp471:
@ %bb.5:                                @   in Loop: Header=BB13_2 Depth=1
	@DEBUG_VALUE: mbedtls_md5_self_test:ret <- 0
	.loc	1 0 13                          @ ../../../ThirdParty/mbedTLS/library/md5.c:0:13
	ldr	r4, [sp, #4]                    @ 4-byte Reload
	.loc	1 485 13 is_stmt 1              @ ../../../ThirdParty/mbedTLS/library/md5.c:485:13
	cmp	r4, #0
	beq	.LBB13_1
.Ltmp472:
@ %bb.6:                                @   in Loop: Header=BB13_2 Depth=1
	@DEBUG_VALUE: mbedtls_md5_self_test:ret <- 0
	.loc	1 486 13                        @ ../../../ThirdParty/mbedTLS/library/md5.c:486:13
	adr	r0, .LCPI13_5
	bl	puts
	b	.LBB13_1
.Ltmp473:
.LBB13_7:
	@DEBUG_VALUE: mbedtls_md5_self_test:ret <- 0
	@DEBUG_VALUE: mbedtls_md5_self_test:ret <- 1
	@DEBUG_LABEL: mbedtls_md5_self_test:fail
	.loc	1 0 13 is_stmt 0                @ ../../../ThirdParty/mbedTLS/library/md5.c:0:13
	movs	r5, #1
	.loc	1 495 9 is_stmt 1               @ ../../../ThirdParty/mbedTLS/library/md5.c:495:9
	ldr	r0, [sp, #4]                    @ 4-byte Reload
	cbz	r0, .LBB13_11
.Ltmp474:
@ %bb.8:
	@DEBUG_VALUE: mbedtls_md5_self_test:ret <- 1
	.loc	1 496 9                         @ ../../../ThirdParty/mbedTLS/library/md5.c:496:9
	adr	r0, .LCPI13_4
	bl	puts
	b	.LBB13_11
.Ltmp475:
.LBB13_9:
	@DEBUG_VALUE: mbedtls_md5_self_test:ret <- 0
	.loc	1 0 9 is_stmt 0                 @ ../../../ThirdParty/mbedTLS/library/md5.c:0:9
	movs	r5, #0
	.loc	1 489 9 is_stmt 1               @ ../../../ThirdParty/mbedTLS/library/md5.c:489:9
	cbz	r4, .LBB13_11
.Ltmp476:
@ %bb.10:
	@DEBUG_VALUE: mbedtls_md5_self_test:ret <- 0
	.loc	1 0 9 is_stmt 0                 @ ../../../ThirdParty/mbedTLS/library/md5.c:0:9
	movs	r0, #10
.Ltmp477:
	.loc	1 490 9 is_stmt 1               @ ../../../ThirdParty/mbedTLS/library/md5.c:490:9
	bl	putchar
.Ltmp478:
.LBB13_11:
	.loc	1 499 1                         @ ../../../ThirdParty/mbedTLS/library/md5.c:499:1
	mov	r0, r5
	add	sp, #28
	pop	{r4, r5, r6, r7, pc}
.Ltmp479:
	.p2align	2
@ %bb.12:
	.loc	1 0 1 is_stmt 0                 @ ../../../ThirdParty/mbedTLS/library/md5.c:0:1
.LCPI13_0:
md5_test_buflen:
	.long	0                               @ 0x0
	.long	1                               @ 0x1
	.long	3                               @ 0x3
	.long	14                              @ 0xe
	.long	26                              @ 0x1a
	.long	62                              @ 0x3e
	.long	80                              @ 0x50
__arm_cp.13_1:
	.long	md5_test_buf
.Lcpi_end67:
	.size	__arm_cp.13_1, .Lcpi_end67-__arm_cp.13_1
__arm_cp.13_2:
	.long	md5_test_sum
.Lcpi_end68:
	.size	__arm_cp.13_2, .Lcpi_end68-__arm_cp.13_2
.LCPI13_3:
.L.str:
	.asciz	"  MD5 test #%d: \000\000\000"
.LCPI13_4:
.Lstr.4:
	.asciz	"failed\000"
.LCPI13_5:
.Lstr:
	.asciz	"passed\000"
.Lfunc_end13:
	.size	mbedtls_md5_self_test, .Lfunc_end13-mbedtls_md5_self_test
	.cfi_endproc
	.cantunwind
	.fnend
                                        @ -- End function
	.type	md5_test_buf,%object            @ @md5_test_buf
	.section	.rodata.md5_test_buf,"a",%progbits
md5_test_buf:
	.zero	81
	.asciz	"a\000\000\000\000\000\000\000\000\000\000\000\000\000\000\000\000\000\000\000\000\000\000\000\000\000\000\000\000\000\000\000\000\000\000\000\000\000\000\000\000\000\000\000\000\000\000\000\000\000\000\000\000\000\000\000\000\000\000\000\000\000\000\000\000\000\000\000\000\000\000\000\000\000\000\000\000\000\000\000"
	.asciz	"abc\000\000\000\000\000\000\000\000\000\000\000\000\000\000\000\000\000\000\000\000\000\000\000\000\000\000\000\000\000\000\000\000\000\000\000\000\000\000\000\000\000\000\000\000\000\000\000\000\000\000\000\000\000\000\000\000\000\000\000\000\000\000\000\000\000\000\000\000\000\000\000\000\000\000\000\000\000"
	.asciz	"message digest\000\000\000\000\000\000\000\000\000\000\000\000\000\000\000\000\000\000\000\000\000\000\000\000\000\000\000\000\000\000\000\000\000\000\000\000\000\000\000\000\000\000\000\000\000\000\000\000\000\000\000\000\000\000\000\000\000\000\000\000\000\000\000\000\000\000"
	.asciz	"abcdefghijklmnopqrstuvwxyz\000\000\000\000\000\000\000\000\000\000\000\000\000\000\000\000\000\000\000\000\000\000\000\000\000\000\000\000\000\000\000\000\000\000\000\000\000\000\000\000\000\000\000\000\000\000\000\000\000\000\000\000\000\000"
	.asciz	"ABCDEFGHIJKLMNOPQRSTUVWXYZabcdefghijklmnopqrstuvwxyz0123456789\000\000\000\000\000\000\000\000\000\000\000\000\000\000\000\000\000\000"
	.asciz	"12345678901234567890123456789012345678901234567890123456789012345678901234567890"
	.size	md5_test_buf, 567

	.type	md5_test_sum,%object            @ @md5_test_sum
	.section	.rodata.md5_test_sum,"a",%progbits
md5_test_sum:
	.ascii	"\324\035\214\331\217\000\262\004\351\200\t\230\354\370B~"
	.ascii	"\f\301u\271\300\361\266\2501\303\231\342iw&a"
	.ascii	"\220\001P\230<\322O\260\326\226?}(\341\177r"
	.ascii	"\371ki}|\267\223\215RZ/1\252\361a\320"
	.ascii	"\303\374\323\327a\222\344\000}\373Il\312g\341;"
	.ascii	"\321t\253\230\322w\331\365\245a\034,\237A\235\237"
	.ascii	"W\355\364\242+\343\311U\254I\332.!\007\266z"
	.size	md5_test_sum, 112

	.globl	_printf_percent
	.globl	_printf_d
	.globl	_printf_int_dec
	.hidden	_printf_percent
	.hidden	_printf_d
	.hidden	_printf_int_dec
	.file	4 "C:\\Users\\shw26\\OneDrive\\Desktop\\2021\\2021-1\\\354\272\241\354\212\244\355\206\244\353\224\224\354\236\220\354\235\2702\\Nuvoton\\M2351_BSP_v3.00.004\\M2351Series_BSP_CMSIS_V3.00.004\\MyProject\\PulseMonitoring\\Secure" "../../../ThirdParty/mbedTLS/include/mbedtls\\md5.h"
	.section	".note.GNU-stack","",%progbits
	.eabi_attribute	30, 1	@ Tag_ABI_optimization_goals
	.ARM_attribute	16, 1	@ Tag_AV_eba