	.text
	.syntax unified
	.eabi_attribute	67, "2.09"	@ Tag_conformance
	.cpu	cortex-m23
	.eabi_attribute	6, 16	@ Tag_CPU_arch
	.eabi_attribute	7, 77	@ Tag_CPU_arch_profile
	.eabi_attribute	8, 0	@ Tag_ARM_ISA_use
	.eabi_attribute	9, 3	@ Tag_THUMB_ISA_use
	.eabi_attribute	34, 0	@ Tag_CPU_unaligned_access
	.eabi_attribute	17, 1	@ Tag_ABI_PCS_GOT_use
	.eabi_attribute	20, 2	@ Tag_ABI_FP_denormal
	.eabi_attribute	21, 0	@ Tag_ABI_FP_exceptions
	.eabi_attribute	23, 1	@ Tag_ABI_FP_number_model
	.eabi_attribute	24, 1	@ Tag_ABI_align_needed
	.eabi_attribute	25, 1	@ Tag_ABI_align_preserved
	.eabi_attribute	38, 1	@ Tag_ABI_FP_16bit_format
	.eabi_attribute	18, 2	@ Tag_ABI_PCS_wchar_t
	.eabi_attribute	26, 1	@ Tag_ABI_enum_size
	.eabi_attribute	14, 0	@ Tag_ABI_PCS_R9_use
	.file	"md_wrap.c"
	.file	1 "C:\\Users\\shw26\\OneDrive\\Desktop\\2021\\2021-1\\\354\272\241\354\212\244\355\206\244\353\224\224\354\236\220\354\235\2702\\Nuvoton\\M2351_BSP_v3.00.004\\M2351Series_BSP_CMSIS_V3.00.004\\MyProject\\PulseMonitoring\\Secure" "../../../ThirdParty/mbedTLS/include/mbedtls/md.h"
	.file	2 "C:\\Users\\shw26\\OneDrive\\Desktop\\2021\\2021-1\\\354\272\241\354\212\244\355\206\244\353\224\224\354\236\220\354\235\2702\\Nuvoton\\M2351_BSP_v3.00.004\\M2351Series_BSP_CMSIS_V3.00.004\\MyProject\\PulseMonitoring\\Secure" "../../../ThirdParty/mbedTLS/include/mbedtls\\md_internal.h"
	.file	3 "C:\\" "Keil_v5\\ARM\\ARMCLANG\\Bin\\..\\include\\stddef.h"
	.file	4 "C:\\Users\\shw26\\OneDrive\\Desktop\\2021\\2021-1\\\354\272\241\354\212\244\355\206\244\353\224\224\354\236\220\354\235\2702\\Nuvoton\\M2351_BSP_v3.00.004\\M2351Series_BSP_CMSIS_V3.00.004\\MyProject\\PulseMonitoring\\Secure" "../../../ThirdParty/mbedTLS/library/md_wrap.c"
	.file	5 "C:\\" "Keil_v5\\ARM\\ARMCLANG\\Bin\\..\\include\\stdint.h"
	.file	6 "C:\\Users\\shw26\\OneDrive\\Desktop\\2021\\2021-1\\\354\272\241\354\212\244\355\206\244\353\224\224\354\236\220\354\235\2702\\Nuvoton\\M2351_BSP_v3.00.004\\M2351Series_BSP_CMSIS_V3.00.004\\MyProject\\PulseMonitoring\\Secure" "../../../ThirdParty/mbedTLS/include/mbedtls\\md5.h"
	.file	7 "C:\\Users\\shw26\\OneDrive\\Desktop\\2021\\2021-1\\\354\272\241\354\212\244\355\206\244\353\224\224\354\236\220\354\235\2702\\Nuvoton\\M2351_BSP_v3.00.004\\M2351Series_BSP_CMSIS_V3.00.004\\MyProject\\PulseMonitoring\\Secure" "../../../ThirdParty/mbedTLS/include/mbedtls\\ripemd160.h"
	.file	8 "C:\\Users\\shw26\\OneDrive\\Desktop\\2021\\2021-1\\\354\272\241\354\212\244\355\206\244\353\224\224\354\236\220\354\235\2702\\Nuvoton\\M2351_BSP_v3.00.004\\M2351Series_BSP_CMSIS_V3.00.004\\MyProject\\PulseMonitoring\\Secure" "../../../ThirdParty/mbedTLS/include/mbedtls\\sha1.h"
	.file	9 "C:\\Users\\shw26\\OneDrive\\Desktop\\2021\\2021-1\\\354\272\241\354\212\244\355\206\244\353\224\224\354\236\220\354\235\2702\\Nuvoton\\M2351_BSP_v3.00.004\\M2351Series_BSP_CMSIS_V3.00.004\\MyProject\\PulseMonitoring\\Secure" "../../../ThirdParty/mbedTLS/include/mbedtls\\sha256.h"
	.file	10 "C:\\Users\\shw26\\OneDrive\\Desktop\\2021\\2021-1\\\354\272\241\354\212\244\355\206\244\353\224\224\354\236\220\354\235\2702\\Nuvoton\\M2351_BSP_v3.00.004\\M2351Series_BSP_CMSIS_V3.00.004\\MyProject\\PulseMonitoring\\Secure" "../../../ThirdParty/mbedTLS/include/mbedtls\\sha512.h"
	.section	.text.md5_starts_wrap,"ax",%progbits
	.p2align	1                               @ -- Begin function md5_starts_wrap
	.type	md5_starts_wrap,%function
	.code	16                              @ @md5_starts_wrap
	.thumb_func
md5_starts_wrap:
.Lfunc_begin0:
	.loc	4 201 0                         @ ../../../ThirdParty/mbedTLS/library/md_wrap.c:201:0
	.fnstart
	.cfi_sections .debug_frame
	.cfi_startproc
@ %bb.0:
	@DEBUG_VALUE: md5_starts_wrap:ctx <- $r0
	@DEBUG_VALUE: md5_starts_wrap:ctx <- $r0
	@DEBUG_VALUE: md5_starts_wrap:ctx <- $r0
	.save	{r7, lr}
	push	{r7, lr}
	.cfi_def_cfa_offset 8
	.cfi_offset lr, -4
	.cfi_offset r7, -8
.Ltmp0:
	.loc	4 202 13 prologue_end           @ ../../../ThirdParty/mbedTLS/library/md_wrap.c:202:13
	bl	mbedtls_md5_starts_ret
.Ltmp1:
	@DEBUG_VALUE: md5_starts_wrap:ctx <- [DW_OP_LLVM_entry_value 1] $r0
	.loc	4 202 5 is_stmt 0               @ ../../../ThirdParty/mbedTLS/library/md_wrap.c:202:5
	pop	{r7, pc}
.Ltmp2:
.Lfunc_end0:
	.size	md5_starts_wrap, .Lfunc_end0-md5_starts_wrap
	.cfi_endproc
	.cantunwind
	.fnend
                                        @ -- End function
	.section	.text.md5_update_wrap,"ax",%progbits
	.p2align	1                               @ -- Begin function md5_update_wrap
	.type	md5_update_wrap,%function
	.code	16                              @ @md5_update_wrap
	.thumb_func
md5_update_wrap:
.Lfunc_begin1:
	.loc	4 207 0 is_stmt 1               @ ../../../ThirdParty/mbedTLS/library/md_wrap.c:207:0
	.fnstart
	.cfi_startproc
@ %bb.0:
	@DEBUG_VALUE: md5_update_wrap:ctx <- $r0
	@DEBUG_VALUE: md5_update_wrap:ctx <- $r0
	@DEBUG_VALUE: md5_update_wrap:input <- $r1
	@DEBUG_VALUE: md5_update_wrap:input <- $r1
	@DEBUG_VALUE: md5_update_wrap:ilen <- $r2
	@DEBUG_VALUE: md5_update_wrap:ilen <- $r2
	@DEBUG_VALUE: md5_update_wrap:ilen <- $r2
	@DEBUG_VALUE: md5_update_wrap:input <- $r1
	@DEBUG_VALUE: md5_update_wrap:ctx <- $r0
	.save	{r7, lr}
	push	{r7, lr}
	.cfi_def_cfa_offset 8
	.cfi_offset lr, -4
	.cfi_offset r7, -8
.Ltmp3:
	.loc	4 208 13 prologue_end           @ ../../../ThirdParty/mbedTLS/library/md_wrap.c:208:13
	bl	mbedtls_md5_update_ret
.Ltmp4:
	@DEBUG_VALUE: md5_update_wrap:ilen <- [DW_OP_LLVM_entry_value 1] $r2
	@DEBUG_VALUE: md5_update_wrap:input <- [DW_OP_LLVM_entry_value 1] $r1
	@DEBUG_VALUE: md5_update_wrap:ctx <- [DW_OP_LLVM_entry_value 1] $r0
	.loc	4 208 5 is_stmt 0               @ ../../../ThirdParty/mbedTLS/library/md_wrap.c:208:5
	pop	{r7, pc}
.Ltmp5:
.Lfunc_end1:
	.size	md5_update_wrap, .Lfunc_end1-md5_update_wrap
	.cfi_endproc
	.cantunwind
	.fnend
                                        @ -- End function
	.section	.text.md5_finish_wrap,"ax",%progbits
	.p2align	1                               @ -- Begin function md5_finish_wrap
	.type	md5_finish_wrap,%function
	.code	16                              @ @md5_finish_wrap
	.thumb_func
md5_finish_wrap:
.Lfunc_begin2:
	.loc	4 212 0 is_stmt 1               @ ../../../ThirdParty/mbedTLS/library/md_wrap.c:212:0
	.fnstart
	.cfi_startproc
@ %bb.0:
	@DEBUG_VALUE: md5_finish_wrap:ctx <- $r0
	@DEBUG_VALUE: md5_finish_wrap:ctx <- $r0
	@DEBUG_VALUE: md5_finish_wrap:output <- $r1
	@DEBUG_VALUE: md5_finish_wrap:output <- $r1
	@DEBUG_VALUE: md5_finish_wrap:output <- $r1
	@DEBUG_VALUE: md5_finish_wrap:ctx <- $r0
	.save	{r7, lr}
	push	{r7, lr}
	.cfi_def_cfa_offset 8
	.cfi_offset lr, -4
	.cfi_offset r7, -8
.Ltmp6:
	.loc	4 213 13 prologue_end           @ ../../../ThirdParty/mbedTLS/library/md_wrap.c:213:13
	bl	mbedtls_md5_finish_ret
.Ltmp7:
	@DEBUG_VALUE: md5_finish_wrap:output <- [DW_OP_LLVM_entry_value 1] $r1
	@DEBUG_VALUE: md5_finish_wrap:ctx <- [DW_OP_LLVM_entry_value 1] $r0
	.loc	4 213 5 is_stmt 0               @ ../../../ThirdParty/mbedTLS/library/md_wrap.c:213:5
	pop	{r7, pc}
.Ltmp8:
.Lfunc_end2:
	.size	md5_finish_wrap, .Lfunc_end2-md5_finish_wrap
	.cfi_endproc
	.cantunwind
	.fnend
                                        @ -- End function
	.section	.text.md5_ctx_alloc,"ax",%progbits
	.p2align	1                               @ -- Begin function md5_ctx_alloc
	.type	md5_ctx_alloc,%function
	.code	16                              @ @md5_ctx_alloc
	.thumb_func
md5_ctx_alloc:
.Lfunc_begin3:
	.loc	4 217 0 is_stmt 1               @ ../../../ThirdParty/mbedTLS/library/md_wrap.c:217:0
	.fnstart
	.cfi_startproc
@ %bb.0:
	.save	{r4, lr}
	push	{r4, lr}
	.cfi_def_cfa_offset 8
	.cfi_offset lr, -4
	.cfi_offset r4, -8
	movs	r0, #1
	movs	r1, #88
.Ltmp9:
	.loc	4 218 17 prologue_end           @ ../../../ThirdParty/mbedTLS/library/md_wrap.c:218:17
	bl	calloc
	mov	r4, r0
.Ltmp10:
	@DEBUG_VALUE: md5_ctx_alloc:ctx <- $r4
	.loc	4 220 9                         @ ../../../ThirdParty/mbedTLS/library/md_wrap.c:220:9
	cbz	r0, .LBB3_2
.Ltmp11:
@ %bb.1:
	@DEBUG_VALUE: md5_ctx_alloc:ctx <- $r4
	.loc	4 221 9                         @ ../../../ThirdParty/mbedTLS/library/md_wrap.c:221:9
	mov	r0, r4
	bl	mbedtls_md5_init
.Ltmp12:
.LBB3_2:
	@DEBUG_VALUE: md5_ctx_alloc:ctx <- $r4
	.loc	4 223 5                         @ ../../../ThirdParty/mbedTLS/library/md_wrap.c:223:5
	mov	r0, r4
	pop	{r4, pc}
.Ltmp13:
.Lfunc_end3:
	.size	md5_ctx_alloc, .Lfunc_end3-md5_ctx_alloc
	.cfi_endproc
	.cantunwind
	.fnend
                                        @ -- End function
	.section	.text.md5_ctx_free,"ax",%progbits
	.p2align	1                               @ -- Begin function md5_ctx_free
	.type	md5_ctx_free,%function
	.code	16                              @ @md5_ctx_free
	.thumb_func
md5_ctx_free:
.Lfunc_begin4:
	.loc	4 227 0                         @ ../../../ThirdParty/mbedTLS/library/md_wrap.c:227:0
	.fnstart
	.cfi_startproc
@ %bb.0:
	@DEBUG_VALUE: md5_ctx_free:ctx <- $r0
	.save	{r4, lr}
	push	{r4, lr}
	.cfi_def_cfa_offset 8
	.cfi_offset lr, -4
	.cfi_offset r4, -8
	mov	r4, r0
.Ltmp14:
	@DEBUG_VALUE: md5_ctx_free:ctx <- $r4
	.loc	4 228 5 prologue_end            @ ../../../ThirdParty/mbedTLS/library/md_wrap.c:228:5
	bl	mbedtls_md5_free
	.loc	4 229 5                         @ ../../../ThirdParty/mbedTLS/library/md_wrap.c:229:5
	mov	r0, r4
	bl	free
	.loc	4 230 1                         @ ../../../ThirdParty/mbedTLS/library/md_wrap.c:230:1
	pop	{r4, pc}
.Ltmp15:
.Lfunc_end4:
	.size	md5_ctx_free, .Lfunc_end4-md5_ctx_free
	.cfi_endproc
	.cantunwind
	.fnend
                                        @ -- End function
	.section	.text.md5_clone_wrap,"ax",%progbits
	.p2align	1                               @ -- Begin function md5_clone_wrap
	.type	md5_clone_wrap,%function
	.code	16                              @ @md5_clone_wrap
	.thumb_func
md5_clone_wrap:
.Lfunc_begin5:
	.loc	4 233 0                         @ ../../../ThirdParty/mbedTLS/library/md_wrap.c:233:0
	.fnstart
	.cfi_startproc
@ %bb.0:
	@DEBUG_VALUE: md5_clone_wrap:dst <- $r0
	@DEBUG_VALUE: md5_clone_wrap:dst <- $r0
	@DEBUG_VALUE: md5_clone_wrap:src <- $r1
	@DEBUG_VALUE: md5_clone_wrap:src <- $r1
	@DEBUG_VALUE: md5_clone_wrap:src <- $r1
	@DEBUG_VALUE: md5_clone_wrap:dst <- $r0
	.save	{r7, lr}
	push	{r7, lr}
	.cfi_def_cfa_offset 8
	.cfi_offset lr, -4
	.cfi_offset r7, -8
.Ltmp16:
	.loc	4 234 5 prologue_end            @ ../../../ThirdParty/mbedTLS/library/md_wrap.c:234:5
	bl	mbedtls_md5_clone
.Ltmp17:
	@DEBUG_VALUE: md5_clone_wrap:src <- [DW_OP_LLVM_entry_value 1] $r1
	@DEBUG_VALUE: md5_clone_wrap:dst <- [DW_OP_LLVM_entry_value 1] $r0
	.loc	4 236 1                         @ ../../../ThirdParty/mbedTLS/library/md_wrap.c:236:1
	pop	{r7, pc}
.Ltmp18:
.Lfunc_end5:
	.size	md5_clone_wrap, .Lfunc_end5-md5_clone_wrap
	.cfi_endproc
	.cantunwind
	.fnend
                                        @ -- End function
	.section	.text.md5_process_wrap,"ax",%progbits
	.p2align	1                               @ -- Begin function md5_process_wrap
	.type	md5_process_wrap,%function
	.code	16                              @ @md5_process_wrap
	.thumb_func
md5_process_wrap:
.Lfunc_begin6:
	.loc	4 239 0                         @ ../../../ThirdParty/mbedTLS/library/md_wrap.c:239:0
	.fnstart
	.cfi_startproc
@ %bb.0:
	@DEBUG_VALUE: md5_process_wrap:ctx <- $r0
	@DEBUG_VALUE: md5_process_wrap:ctx <- $r0
	@DEBUG_VALUE: md5_process_wrap:data <- $r1
	@DEBUG_VALUE: md5_process_wrap:data <- $r1
	@DEBUG_VALUE: md5_process_wrap:data <- $r1
	@DEBUG_VALUE: md5_process_wrap:ctx <- $r0
	.save	{r7, lr}
	push	{r7, lr}
	.cfi_def_cfa_offset 8
	.cfi_offset lr, -4
	.cfi_offset r7, -8
.Ltmp19:
	.loc	4 240 13 prologue_end           @ ../../../ThirdParty/mbedTLS/library/md_wrap.c:240:13
	bl	mbedtls_internal_md5_process
.Ltmp20:
	@DEBUG_VALUE: md5_process_wrap:data <- [DW_OP_LLVM_entry_value 1] $r1
	@DEBUG_VALUE: md5_process_wrap:ctx <- [DW_OP_LLVM_entry_value 1] $r0
	.loc	4 240 5 is_stmt 0               @ ../../../ThirdParty/mbedTLS/library/md_wrap.c:240:5
	pop	{r7, pc}
.Ltmp21:
.Lfunc_end6:
	.size	md5_process_wrap, .Lfunc_end6-md5_process_wrap
	.cfi_endproc
	.cantunwind
	.fnend
                                        @ -- End function
	.section	.text.ripemd160_starts_wrap,"ax",%progbits
	.p2align	1                               @ -- Begin function ripemd160_starts_wrap
	.type	ripemd160_starts_wrap,%function
	.code	16                              @ @ripemd160_starts_wrap
	.thumb_func
ripemd160_starts_wrap:
.Lfunc_begin7:
	.loc	4 263 0 is_stmt 1               @ ../../../ThirdParty/mbedTLS/library/md_wrap.c:263:0
	.fnstart
	.cfi_startproc
@ %bb.0:
	@DEBUG_VALUE: ripemd160_starts_wrap:ctx <- $r0
	@DEBUG_VALUE: ripemd160_starts_wrap:ctx <- $r0
	@DEBUG_VALUE: ripemd160_starts_wrap:ctx <- $r0
	.save	{r7, lr}
	push	{r7, lr}
	.cfi_def_cfa_offset 8
	.cfi_offset lr, -4
	.cfi_offset r7, -8
.Ltmp22:
	.loc	4 264 13 prologue_end           @ ../../../ThirdParty/mbedTLS/library/md_wrap.c:264:13
	bl	mbedtls_ripemd160_starts_ret
.Ltmp23:
	@DEBUG_VALUE: ripemd160_starts_wrap:ctx <- [DW_OP_LLVM_entry_value 1] $r0
	.loc	4 264 5 is_stmt 0               @ ../../../ThirdParty/mbedTLS/library/md_wrap.c:264:5
	pop	{r7, pc}
.Ltmp24:
.Lfunc_end7:
	.size	ripemd160_starts_wrap, .Lfunc_end7-ripemd160_starts_wrap
	.cfi_endproc
	.cantunwind
	.fnend
                                        @ -- End function
	.section	.text.ripemd160_update_wrap,"ax",%progbits
	.p2align	1                               @ -- Begin function ripemd160_update_wrap
	.type	ripemd160_update_wrap,%function
	.code	16                              @ @ripemd160_update_wrap
	.thumb_func
ripemd160_update_wrap:
.Lfunc_begin8:
	.loc	4 269 0 is_stmt 1               @ ../../../ThirdParty/mbedTLS/library/md_wrap.c:269:0
	.fnstart
	.cfi_startproc
@ %bb.0:
	@DEBUG_VALUE: ripemd160_update_wrap:ctx <- $r0
	@DEBUG_VALUE: ripemd160_update_wrap:ctx <- $r0
	@DEBUG_VALUE: ripemd160_update_wrap:input <- $r1
	@DEBUG_VALUE: ripemd160_update_wrap:input <- $r1
	@DEBUG_VALUE: ripemd160_update_wrap:ilen <- $r2
	@DEBUG_VALUE: ripemd160_update_wrap:ilen <- $r2
	@DEBUG_VALUE: ripemd160_update_wrap:ilen <- $r2
	@DEBUG_VALUE: ripemd160_update_wrap:input <- $r1
	@DEBUG_VALUE: ripemd160_update_wrap:ctx <- $r0
	.save	{r7, lr}
	push	{r7, lr}
	.cfi_def_cfa_offset 8
	.cfi_offset lr, -4
	.cfi_offset r7, -8
.Ltmp25:
	.loc	4 270 13 prologue_end           @ ../../../ThirdParty/mbedTLS/library/md_wrap.c:270:13
	bl	mbedtls_ripemd160_update_ret
.Ltmp26:
	@DEBUG_VALUE: ripemd160_update_wrap:ilen <- [DW_OP_LLVM_entry_value 1] $r2
	@DEBUG_VALUE: ripemd160_update_wrap:input <- [DW_OP_LLVM_entry_value 1] $r1
	@DEBUG_VALUE: ripemd160_update_wrap:ctx <- [DW_OP_LLVM_entry_value 1] $r0
	.loc	4 270 5 is_stmt 0               @ ../../../ThirdParty/mbedTLS/library/md_wrap.c:270:5
	pop	{r7, pc}
.Ltmp27:
.Lfunc_end8:
	.size	ripemd160_update_wrap, .Lfunc_end8-ripemd160_update_wrap
	.cfi_endproc
	.cantunwind
	.fnend
                                        @ -- End function
	.section	.text.ripemd160_finish_wrap,"ax",%progbits
	.p2align	1                               @ -- Begin function ripemd160_finish_wrap
	.type	ripemd160_finish_wrap,%function
	.code	16                              @ @ripemd160_finish_wrap
	.thumb_func
ripemd160_finish_wrap:
.Lfunc_begin9:
	.loc	4 275 0 is_stmt 1               @ ../../../ThirdParty/mbedTLS/library/md_wrap.c:275:0
	.fnstart
	.cfi_startproc
@ %bb.0:
	@DEBUG_VALUE: ripemd160_finish_wrap:ctx <- $r0
	@DEBUG_VALUE: ripemd160_finish_wrap:ctx <- $r0
	@DEBUG_VALUE: ripemd160_finish_wrap:output <- $r1
	@DEBUG_VALUE: ripemd160_finish_wrap:output <- $r1
	@DEBUG_VALUE: ripemd160_finish_wrap:output <- $r1
	@DEBUG_VALUE: ripemd160_finish_wrap:ctx <- $r0
	.save	{r7, lr}
	push	{r7, lr}
	.cfi_def_cfa_offset 8
	.cfi_offset lr, -4
	.cfi_offset r7, -8
.Ltmp28:
	.loc	4 276 13 prologue_end           @ ../../../ThirdParty/mbedTLS/library/md_wrap.c:276:13
	bl	mbedtls_ripemd160_finish_ret
.Ltmp29:
	@DEBUG_VALUE: ripemd160_finish_wrap:output <- [DW_OP_LLVM_entry_value 1] $r1
	@DEBUG_VALUE: ripemd160_finish_wrap:ctx <- [DW_OP_LLVM_entry_value 1] $r0
	.loc	4 276 5 is_stmt 0               @ ../../../ThirdParty/mbedTLS/library/md_wrap.c:276:5
	pop	{r7, pc}
.Ltmp30:
.Lfunc_end9:
	.size	ripemd160_finish_wrap, .Lfunc_end9-ripemd160_finish_wrap
	.cfi_endproc
	.cantunwind
	.fnend
                                        @ -- End function
	.section	.text.ripemd160_ctx_alloc,"ax",%progbits
	.p2align	1                               @ -- Begin function ripemd160_ctx_alloc
	.type	ripemd160_ctx_alloc,%function
	.code	16                              @ @ripemd160_ctx_alloc
	.thumb_func
ripemd160_ctx_alloc:
.Lfunc_begin10:
	.loc	4 281 0 is_stmt 1               @ ../../../ThirdParty/mbedTLS/library/md_wrap.c:281:0
	.fnstart
	.cfi_startproc
@ %bb.0:
	.save	{r4, lr}
	push	{r4, lr}
	.cfi_def_cfa_offset 8
	.cfi_offset lr, -4
	.cfi_offset r4, -8
	movs	r0, #1
	movs	r1, #92
.Ltmp31:
	.loc	4 282 17 prologue_end           @ ../../../ThirdParty/mbedTLS/library/md_wrap.c:282:17
	bl	calloc
	mov	r4, r0
.Ltmp32:
	@DEBUG_VALUE: ripemd160_ctx_alloc:ctx <- $r4
	.loc	4 284 9                         @ ../../../ThirdParty/mbedTLS/library/md_wrap.c:284:9
	cbz	r0, .LBB10_2
.Ltmp33:
@ %bb.1:
	@DEBUG_VALUE: ripemd160_ctx_alloc:ctx <- $r4
	.loc	4 285 9                         @ ../../../ThirdParty/mbedTLS/library/md_wrap.c:285:9
	mov	r0, r4
	bl	mbedtls_ripemd160_init
.Ltmp34:
.LBB10_2:
	@DEBUG_VALUE: ripemd160_ctx_alloc:ctx <- $r4
	.loc	4 287 5                         @ ../../../ThirdParty/mbedTLS/library/md_wrap.c:287:5
	mov	r0, r4
	pop	{r4, pc}
.Ltmp35:
.Lfunc_end10:
	.size	ripemd160_ctx_alloc, .Lfunc_end10-ripemd160_ctx_alloc
	.cfi_endproc
	.cantunwind
	.fnend
                                        @ -- End function
	.section	.text.ripemd160_ctx_free,"ax",%progbits
	.p2align	1                               @ -- Begin function ripemd160_ctx_free
	.type	ripemd160_ctx_free,%function
	.code	16                              @ @ripemd160_ctx_free
	.thumb_func
ripemd160_ctx_free:
.Lfunc_begin11:
	.loc	4 291 0                         @ ../../../ThirdParty/mbedTLS/library/md_wrap.c:291:0
	.fnstart
	.cfi_startproc
@ %bb.0:
	@DEBUG_VALUE: ripemd160_ctx_free:ctx <- $r0
	.save	{r4, lr}
	push	{r4, lr}
	.cfi_def_cfa_offset 8
	.cfi_offset lr, -4
	.cfi_offset r4, -8
	mov	r4, r0
.Ltmp36:
	@DEBUG_VALUE: ripemd160_ctx_free:ctx <- $r4
	.loc	4 292 5 prologue_end            @ ../../../ThirdParty/mbedTLS/library/md_wrap.c:292:5
	bl	mbedtls_ripemd160_free
	.loc	4 293 5                         @ ../../../ThirdParty/mbedTLS/library/md_wrap.c:293:5
	mov	r0, r4
	bl	free
	.loc	4 294 1                         @ ../../../ThirdParty/mbedTLS/library/md_wrap.c:294:1
	pop	{r4, pc}
.Ltmp37:
.Lfunc_end11:
	.size	ripemd160_ctx_free, .Lfunc_end11-ripemd160_ctx_free
	.cfi_endproc
	.cantunwind
	.fnend
                                        @ -- End function
	.section	.text.ripemd160_clone_wrap,"ax",%progbits
	.p2align	1                               @ -- Begin function ripemd160_clone_wrap
	.type	ripemd160_clone_wrap,%function
	.code	16                              @ @ripemd160_clone_wrap
	.thumb_func
ripemd160_clone_wrap:
.Lfunc_begin12:
	.loc	4 297 0                         @ ../../../ThirdParty/mbedTLS/library/md_wrap.c:297:0
	.fnstart
	.cfi_startproc
@ %bb.0:
	@DEBUG_VALUE: ripemd160_clone_wrap:dst <- $r0
	@DEBUG_VALUE: ripemd160_clone_wrap:dst <- $r0
	@DEBUG_VALUE: ripemd160_clone_wrap:src <- $r1
	@DEBUG_VALUE: ripemd160_clone_wrap:src <- $r1
	@DEBUG_VALUE: ripemd160_clone_wrap:src <- $r1
	@DEBUG_VALUE: ripemd160_clone_wrap:dst <- $r0
	.save	{r7, lr}
	push	{r7, lr}
	.cfi_def_cfa_offset 8
	.cfi_offset lr, -4
	.cfi_offset r7, -8
.Ltmp38:
	.loc	4 298 5 prologue_end            @ ../../../ThirdParty/mbedTLS/library/md_wrap.c:298:5
	bl	mbedtls_ripemd160_clone
.Ltmp39:
	@DEBUG_VALUE: ripemd160_clone_wrap:src <- [DW_OP_LLVM_entry_value 1] $r1
	@DEBUG_VALUE: ripemd160_clone_wrap:dst <- [DW_OP_LLVM_entry_value 1] $r0
	.loc	4 300 1                         @ ../../../ThirdParty/mbedTLS/library/md_wrap.c:300:1
	pop	{r7, pc}
.Ltmp40:
.Lfunc_end12:
	.size	ripemd160_clone_wrap, .Lfunc_end12-ripemd160_clone_wrap
	.cfi_endproc
	.cantunwind
	.fnend
                                        @ -- End function
	.section	.text.ripemd160_process_wrap,"ax",%progbits
	.p2align	1                               @ -- Begin function ripemd160_process_wrap
	.type	ripemd160_process_wrap,%function
	.code	16                              @ @ripemd160_process_wrap
	.thumb_func
ripemd160_process_wrap:
.Lfunc_begin13:
	.loc	4 303 0                         @ ../../../ThirdParty/mbedTLS/library/md_wrap.c:303:0
	.fnstart
	.cfi_startproc
@ %bb.0:
	@DEBUG_VALUE: ripemd160_process_wrap:ctx <- $r0
	@DEBUG_VALUE: ripemd160_process_wrap:ctx <- $r0
	@DEBUG_VALUE: ripemd160_process_wrap:data <- $r1
	@DEBUG_VALUE: ripemd160_process_wrap:data <- $r1
	@DEBUG_VALUE: ripemd160_process_wrap:data <- $r1
	@DEBUG_VALUE: ripemd160_process_wrap:ctx <- $r0
	.save	{r7, lr}
	push	{r7, lr}
	.cfi_def_cfa_offset 8
	.cfi_offset lr, -4
	.cfi_offset r7, -8
.Ltmp41:
	.loc	4 304 13 prologue_end           @ ../../../ThirdParty/mbedTLS/library/md_wrap.c:304:13
	bl	mbedtls_internal_ripemd160_process
.Ltmp42:
	@DEBUG_VALUE: ripemd160_process_wrap:data <- [DW_OP_LLVM_entry_value 1] $r1
	@DEBUG_VALUE: ripemd160_process_wrap:ctx <- [DW_OP_LLVM_entry_value 1] $r0
	.loc	4 304 5 is_stmt 0               @ ../../../ThirdParty/mbedTLS/library/md_wrap.c:304:5
	pop	{r7, pc}
.Ltmp43:
.Lfunc_end13:
	.size	ripemd160_process_wrap, .Lfunc_end13-ripemd160_process_wrap
	.cfi_endproc
	.cantunwind
	.fnend
                                        @ -- End function
	.section	.text.sha1_starts_wrap,"ax",%progbits
	.p2align	1                               @ -- Begin function sha1_starts_wrap
	.type	sha1_starts_wrap,%function
	.code	16                              @ @sha1_starts_wrap
	.thumb_func
sha1_starts_wrap:
.Lfunc_begin14:
	.loc	4 328 0 is_stmt 1               @ ../../../ThirdParty/mbedTLS/library/md_wrap.c:328:0
	.fnstart
	.cfi_startproc
@ %bb.0:
	@DEBUG_VALUE: sha1_starts_wrap:ctx <- $r0
	@DEBUG_VALUE: sha1_starts_wrap:ctx <- $r0
	@DEBUG_VALUE: sha1_starts_wrap:ctx <- $r0
	.save	{r7, lr}
	push	{r7, lr}
	.cfi_def_cfa_offset 8
	.cfi_offset lr, -4
	.cfi_offset r7, -8
.Ltmp44:
	.loc	4 329 13 prologue_end           @ ../../../ThirdParty/mbedTLS/library/md_wrap.c:329:13
	bl	mbedtls_sha1_starts_ret
.Ltmp45:
	@DEBUG_VALUE: sha1_starts_wrap:ctx <- [DW_OP_LLVM_entry_value 1] $r0
	.loc	4 329 5 is_stmt 0               @ ../../../ThirdParty/mbedTLS/library/md_wrap.c:329:5
	pop	{r7, pc}
.Ltmp46:
.Lfunc_end14:
	.size	sha1_starts_wrap, .Lfunc_end14-sha1_starts_wrap
	.cfi_endproc
	.cantunwind
	.fnend
                                        @ -- End function
	.section	.text.sha1_update_wrap,"ax",%progbits
	.p2align	1                               @ -- Begin function sha1_update_wrap
	.type	sha1_update_wrap,%function
	.code	16                              @ @sha1_update_wrap
	.thumb_func
sha1_update_wrap:
.Lfunc_begin15:
	.loc	4 334 0 is_stmt 1               @ ../../../ThirdParty/mbedTLS/library/md_wrap.c:334:0
	.fnstart
	.cfi_startproc
@ %bb.0:
	@DEBUG_VALUE: sha1_update_wrap:ctx <- $r0
	@DEBUG_VALUE: sha1_update_wrap:ctx <- $r0
	@DEBUG_VALUE: sha1_update_wrap:input <- $r1
	@DEBUG_VALUE: sha1_update_wrap:input <- $r1
	@DEBUG_VALUE: sha1_update_wrap:ilen <- $r2
	@DEBUG_VALUE: sha1_update_wrap:ilen <- $r2
	@DEBUG_VALUE: sha1_update_wrap:ilen <- $r2
	@DEBUG_VALUE: sha1_update_wrap:input <- $r1
	@DEBUG_VALUE: sha1_update_wrap:ctx <- $r0
	.save	{r7, lr}
	push	{r7, lr}
	.cfi_def_cfa_offset 8
	.cfi_offset lr, -4
	.cfi_offset r7, -8
.Ltmp47:
	.loc	4 335 13 prologue_end           @ ../../../ThirdParty/mbedTLS/library/md_wrap.c:335:13
	bl	mbedtls_sha1_update_ret
.Ltmp48:
	@DEBUG_VALUE: sha1_update_wrap:ilen <- [DW_OP_LLVM_entry_value 1] $r2
	@DEBUG_VALUE: sha1_update_wrap:input <- [DW_OP_LLVM_entry_value 1] $r1
	@DEBUG_VALUE: sha1_update_wrap:ctx <- [DW_OP_LLVM_entry_value 1] $r0
	.loc	4 335 5 is_stmt 0               @ ../../../ThirdParty/mbedTLS/library/md_wrap.c:335:5
	pop	{r7, pc}
.Ltmp49:
.Lfunc_end15:
	.size	sha1_update_wrap, .Lfunc_end15-sha1_update_wrap
	.cfi_endproc
	.cantunwind
	.fnend
                                        @ -- End function
	.section	.text.sha1_finish_wrap,"ax",%progbits
	.p2align	1                               @ -- Begin function sha1_finish_wrap
	.type	sha1_finish_wrap,%function
	.code	16                              @ @sha1_finish_wrap
	.thumb_func
sha1_finish_wrap:
.Lfunc_begin16:
	.loc	4 340 0 is_stmt 1               @ ../../../ThirdParty/mbedTLS/library/md_wrap.c:340:0
	.fnstart
	.cfi_startproc
@ %bb.0:
	@DEBUG_VALUE: sha1_finish_wrap:ctx <- $r0
	@DEBUG_VALUE: sha1_finish_wrap:ctx <- $r0
	@DEBUG_VALUE: sha1_finish_wrap:output <- $r1
	@DEBUG_VALUE: sha1_finish_wrap:output <- $r1
	@DEBUG_VALUE: sha1_finish_wrap:output <- $r1
	@DEBUG_VALUE: sha1_finish_wrap:ctx <- $r0
	.save	{r7, lr}
	push	{r7, lr}
	.cfi_def_cfa_offset 8
	.cfi_offset lr, -4
	.cfi_offset r7, -8
.Ltmp50:
	.loc	4 341 13 prologue_end           @ ../../../ThirdParty/mbedTLS/library/md_wrap.c:341:13
	bl	mbedtls_sha1_finish_ret
.Ltmp51:
	@DEBUG_VALUE: sha1_finish_wrap:output <- [DW_OP_LLVM_entry_value 1] $r1
	@DEBUG_VALUE: sha1_finish_wrap:ctx <- [DW_OP_LLVM_entry_value 1] $r0
	.loc	4 341 5 is_stmt 0               @ ../../../ThirdParty/mbedTLS/library/md_wrap.c:341:5
	pop	{r7, pc}
.Ltmp52:
.Lfunc_end16:
	.size	sha1_finish_wrap, .Lfunc_end16-sha1_finish_wrap
	.cfi_endproc
	.cantunwind
	.fnend
                                        @ -- End function
	.section	.text.sha1_ctx_alloc,"ax",%progbits
	.p2align	1                               @ -- Begin function sha1_ctx_alloc
	.type	sha1_ctx_alloc,%function
	.code	16                              @ @sha1_ctx_alloc
	.thumb_func
sha1_ctx_alloc:
.Lfunc_begin17:
	.loc	4 345 0 is_stmt 1               @ ../../../ThirdParty/mbedTLS/library/md_wrap.c:345:0
	.fnstart
	.cfi_startproc
@ %bb.0:
	.save	{r4, lr}
	push	{r4, lr}
	.cfi_def_cfa_offset 8
	.cfi_offset lr, -4
	.cfi_offset r4, -8
	movs	r0, #1
	movs	r1, #92
.Ltmp53:
	.loc	4 346 17 prologue_end           @ ../../../ThirdParty/mbedTLS/library/md_wrap.c:346:17
	bl	calloc
	mov	r4, r0
.Ltmp54:
	@DEBUG_VALUE: sha1_ctx_alloc:ctx <- $r4
	.loc	4 348 9                         @ ../../../ThirdParty/mbedTLS/library/md_wrap.c:348:9
	cbz	r0, .LBB17_2
.Ltmp55:
@ %bb.1:
	@DEBUG_VALUE: sha1_ctx_alloc:ctx <- $r4
	.loc	4 349 9                         @ ../../../ThirdParty/mbedTLS/library/md_wrap.c:349:9
	mov	r0, r4
	bl	mbedtls_sha1_init
.Ltmp56:
.LBB17_2:
	@DEBUG_VALUE: sha1_ctx_alloc:ctx <- $r4
	.loc	4 351 5                         @ ../../../ThirdParty/mbedTLS/library/md_wrap.c:351:5
	mov	r0, r4
	pop	{r4, pc}
.Ltmp57:
.Lfunc_end17:
	.size	sha1_ctx_alloc, .Lfunc_end17-sha1_ctx_alloc
	.cfi_endproc
	.cantunwind
	.fnend
                                        @ -- End function
	.section	.text.sha1_ctx_free,"ax",%progbits
	.p2align	1                               @ -- Begin function sha1_ctx_free
	.type	sha1_ctx_free,%function
	.code	16                              @ @sha1_ctx_free
	.thumb_func
sha1_ctx_free:
.Lfunc_begin18:
	.loc	4 361 0                         @ ../../../ThirdParty/mbedTLS/library/md_wrap.c:361:0
	.fnstart
	.cfi_startproc
@ %bb.0:
	@DEBUG_VALUE: sha1_ctx_free:ctx <- $r0
	.save	{r4, lr}
	push	{r4, lr}
	.cfi_def_cfa_offset 8
	.cfi_offset lr, -4
	.cfi_offset r4, -8
	mov	r4, r0
.Ltmp58:
	@DEBUG_VALUE: sha1_ctx_free:ctx <- $r4
	.loc	4 362 5 prologue_end            @ ../../../ThirdParty/mbedTLS/library/md_wrap.c:362:5
	bl	mbedtls_sha1_free
	.loc	4 363 5                         @ ../../../ThirdParty/mbedTLS/library/md_wrap.c:363:5
	mov	r0, r4
	bl	free
	.loc	4 364 1                         @ ../../../ThirdParty/mbedTLS/library/md_wrap.c:364:1
	pop	{r4, pc}
.Ltmp59:
.Lfunc_end18:
	.size	sha1_ctx_free, .Lfunc_end18-sha1_ctx_free
	.cfi_endproc
	.cantunwind
	.fnend
                                        @ -- End function
	.section	.text.sha1_clone_wrap,"ax",%progbits
	.p2align	1                               @ -- Begin function sha1_clone_wrap
	.type	sha1_clone_wrap,%function
	.code	16                              @ @sha1_clone_wrap
	.thumb_func
sha1_clone_wrap:
.Lfunc_begin19:
	.loc	4 355 0                         @ ../../../ThirdParty/mbedTLS/library/md_wrap.c:355:0
	.fnstart
	.cfi_startproc
@ %bb.0:
	@DEBUG_VALUE: sha1_clone_wrap:dst <- $r0
	@DEBUG_VALUE: sha1_clone_wrap:dst <- $r0
	@DEBUG_VALUE: sha1_clone_wrap:src <- $r1
	@DEBUG_VALUE: sha1_clone_wrap:src <- $r1
	@DEBUG_VALUE: sha1_clone_wrap:src <- $r1
	@DEBUG_VALUE: sha1_clone_wrap:dst <- $r0
	.save	{r7, lr}
	push	{r7, lr}
	.cfi_def_cfa_offset 8
	.cfi_offset lr, -4
	.cfi_offset r7, -8
.Ltmp60:
	.loc	4 356 5 prologue_end            @ ../../../ThirdParty/mbedTLS/library/md_wrap.c:356:5
	bl	mbedtls_sha1_clone
.Ltmp61:
	@DEBUG_VALUE: sha1_clone_wrap:src <- [DW_OP_LLVM_entry_value 1] $r1
	@DEBUG_VALUE: sha1_clone_wrap:dst <- [DW_OP_LLVM_entry_value 1] $r0
	.loc	4 358 1                         @ ../../../ThirdParty/mbedTLS/library/md_wrap.c:358:1
	pop	{r7, pc}
.Ltmp62:
.Lfunc_end19:
	.size	sha1_clone_wrap, .Lfunc_end19-sha1_clone_wrap
	.cfi_endproc
	.cantunwind
	.fnend
                                        @ -- End function
	.section	.text.sha1_process_wrap,"ax",%progbits
	.p2align	1                               @ -- Begin function sha1_process_wrap
	.type	sha1_process_wrap,%function
	.code	16                              @ @sha1_process_wrap
	.thumb_func
sha1_process_wrap:
.Lfunc_begin20:
	.loc	4 367 0                         @ ../../../ThirdParty/mbedTLS/library/md_wrap.c:367:0
	.fnstart
	.cfi_startproc
@ %bb.0:
	@DEBUG_VALUE: sha1_process_wrap:ctx <- $r0
	@DEBUG_VALUE: sha1_process_wrap:ctx <- $r0
	@DEBUG_VALUE: sha1_process_wrap:data <- $r1
	@DEBUG_VALUE: sha1_process_wrap:data <- $r1
	@DEBUG_VALUE: sha1_process_wrap:data <- $r1
	@DEBUG_VALUE: sha1_process_wrap:ctx <- $r0
	.save	{r7, lr}
	push	{r7, lr}
	.cfi_def_cfa_offset 8
	.cfi_offset lr, -4
	.cfi_offset r7, -8
.Ltmp63:
	.loc	4 368 13 prologue_end           @ ../../../ThirdParty/mbedTLS/library/md_wrap.c:368:13
	bl	mbedtls_internal_sha1_process
.Ltmp64:
	@DEBUG_VALUE: sha1_process_wrap:data <- [DW_OP_LLVM_entry_value 1] $r1
	@DEBUG_VALUE: sha1_process_wrap:ctx <- [DW_OP_LLVM_entry_value 1] $r0
	.loc	4 368 5 is_stmt 0               @ ../../../ThirdParty/mbedTLS/library/md_wrap.c:368:5
	pop	{r7, pc}
.Ltmp65:
.Lfunc_end20:
	.size	sha1_process_wrap, .Lfunc_end20-sha1_process_wrap
	.cfi_endproc
	.cantunwind
	.fnend
                                        @ -- End function
	.section	.text.sha224_starts_wrap,"ax",%progbits
	.p2align	1                               @ -- Begin function sha224_starts_wrap
	.type	sha224_starts_wrap,%function
	.code	16                              @ @sha224_starts_wrap
	.thumb_func
sha224_starts_wrap:
.Lfunc_begin21:
	.loc	4 395 0 is_stmt 1               @ ../../../ThirdParty/mbedTLS/library/md_wrap.c:395:0
	.fnstart
	.cfi_startproc
@ %bb.0:
	@DEBUG_VALUE: sha224_starts_wrap:ctx <- $r0
	@DEBUG_VALUE: sha224_starts_wrap:ctx <- $r0
	.save	{r7, lr}
	push	{r7, lr}
	.cfi_def_cfa_offset 8
	.cfi_offset lr, -4
	.cfi_offset r7, -8
	movs	r1, #1
	@DEBUG_VALUE: sha224_starts_wrap:ctx <- $r0
.Ltmp66:
	.loc	4 396 13 prologue_end           @ ../../../ThirdParty/mbedTLS/library/md_wrap.c:396:13
	bl	mbedtls_sha256_starts_ret
.Ltmp67:
	@DEBUG_VALUE: sha224_starts_wrap:ctx <- [DW_OP_LLVM_entry_value 1] $r0
	.loc	4 396 5 is_stmt 0               @ ../../../ThirdParty/mbedTLS/library/md_wrap.c:396:5
	pop	{r7, pc}
.Ltmp68:
.Lfunc_end21:
	.size	sha224_starts_wrap, .Lfunc_end21-sha224_starts_wrap
	.cfi_endproc
	.cantunwind
	.fnend
                                        @ -- End function
	.section	.text.sha224_update_wrap,"ax",%progbits
	.p2align	1                               @ -- Begin function sha224_update_wrap
	.type	sha224_update_wrap,%function
	.code	16                              @ @sha224_update_wrap
	.thumb_func
sha224_update_wrap:
.Lfunc_begin22:
	.loc	4 401 0 is_stmt 1               @ ../../../ThirdParty/mbedTLS/library/md_wrap.c:401:0
	.fnstart
	.cfi_startproc
@ %bb.0:
	@DEBUG_VALUE: sha224_update_wrap:ctx <- $r0
	@DEBUG_VALUE: sha224_update_wrap:ctx <- $r0
	@DEBUG_VALUE: sha224_update_wrap:input <- $r1
	@DEBUG_VALUE: sha224_update_wrap:input <- $r1
	@DEBUG_VALUE: sha224_update_wrap:ilen <- $r2
	@DEBUG_VALUE: sha224_update_wrap:ilen <- $r2
	@DEBUG_VALUE: sha224_update_wrap:ilen <- $r2
	@DEBUG_VALUE: sha224_update_wrap:input <- $r1
	@DEBUG_VALUE: sha224_update_wrap:ctx <- $r0
	.save	{r7, lr}
	push	{r7, lr}
	.cfi_def_cfa_offset 8
	.cfi_offset lr, -4
	.cfi_offset r7, -8
.Ltmp69:
	.loc	4 402 13 prologue_end           @ ../../../ThirdParty/mbedTLS/library/md_wrap.c:402:13
	bl	mbedtls_sha256_update_ret
.Ltmp70:
	@DEBUG_VALUE: sha224_update_wrap:ilen <- [DW_OP_LLVM_entry_value 1] $r2
	@DEBUG_VALUE: sha224_update_wrap:input <- [DW_OP_LLVM_entry_value 1] $r1
	@DEBUG_VALUE: sha224_update_wrap:ctx <- [DW_OP_LLVM_entry_value 1] $r0
	.loc	4 402 5 is_stmt 0               @ ../../../ThirdParty/mbedTLS/library/md_wrap.c:402:5
	pop	{r7, pc}
.Ltmp71:
.Lfunc_end22:
	.size	sha224_update_wrap, .Lfunc_end22-sha224_update_wrap
	.cfi_endproc
	.cantunwind
	.fnend
                                        @ -- End function
	.section	.text.sha224_finish_wrap,"ax",%progbits
	.p2align	1                               @ -- Begin function sha224_finish_wrap
	.type	sha224_finish_wrap,%function
	.code	16                              @ @sha224_finish_wrap
	.thumb_func
sha224_finish_wrap:
.Lfunc_begin23:
	.loc	4 407 0 is_stmt 1               @ ../../../ThirdParty/mbedTLS/library/md_wrap.c:407:0
	.fnstart
	.cfi_startproc
@ %bb.0:
	@DEBUG_VALUE: sha224_finish_wrap:ctx <- $r0
	@DEBUG_VALUE: sha224_finish_wrap:ctx <- $r0
	@DEBUG_VALUE: sha224_finish_wrap:output <- $r1
	@DEBUG_VALUE: sha224_finish_wrap:output <- $r1
	@DEBUG_VALUE: sha224_finish_wrap:output <- $r1
	@DEBUG_VALUE: sha224_finish_wrap:ctx <- $r0
	.save	{r7, lr}
	push	{r7, lr}
	.cfi_def_cfa_offset 8
	.cfi_offset lr, -4
	.cfi_offset r7, -8
.Ltmp72:
	.loc	4 408 13 prologue_end           @ ../../../ThirdParty/mbedTLS/library/md_wrap.c:408:13
	bl	mbedtls_sha256_finish_ret
.Ltmp73:
	@DEBUG_VALUE: sha224_finish_wrap:output <- [DW_OP_LLVM_entry_value 1] $r1
	@DEBUG_VALUE: sha224_finish_wrap:ctx <- [DW_OP_LLVM_entry_value 1] $r0
	.loc	4 408 5 is_stmt 0               @ ../../../ThirdParty/mbedTLS/library/md_wrap.c:408:5
	pop	{r7, pc}
.Ltmp74:
.Lfunc_end23:
	.size	sha224_finish_wrap, .Lfunc_end23-sha224_finish_wrap
	.cfi_endproc
	.cantunwind
	.fnend
                                        @ -- End function
	.section	.text.sha224_wrap,"ax",%progbits
	.p2align	1                               @ -- Begin function sha224_wrap
	.type	sha224_wrap,%function
	.code	16                              @ @sha224_wrap
	.thumb_func
sha224_wrap:
.Lfunc_begin24:
	.loc	4 414 0 is_stmt 1               @ ../../../ThirdParty/mbedTLS/library/md_wrap.c:414:0
	.fnstart
	.cfi_startproc
@ %bb.0:
	@DEBUG_VALUE: sha224_wrap:input <- $r0
	@DEBUG_VALUE: sha224_wrap:input <- $r0
	@DEBUG_VALUE: sha224_wrap:ilen <- $r1
	@DEBUG_VALUE: sha224_wrap:ilen <- $r1
	@DEBUG_VALUE: sha224_wrap:output <- $r2
	@DEBUG_VALUE: sha224_wrap:output <- $r2
	.save	{r7, lr}
	push	{r7, lr}
	.cfi_def_cfa_offset 8
	.cfi_offset lr, -4
	.cfi_offset r7, -8
	movs	r3, #1
	@DEBUG_VALUE: sha224_wrap:output <- $r2
	@DEBUG_VALUE: sha224_wrap:ilen <- $r1
	@DEBUG_VALUE: sha224_wrap:input <- $r0
.Ltmp75:
	.loc	4 415 13 prologue_end           @ ../../../ThirdParty/mbedTLS/library/md_wrap.c:415:13
	bl	mbedtls_sha256_ret
.Ltmp76:
	@DEBUG_VALUE: sha224_wrap:output <- [DW_OP_LLVM_entry_value 1] $r2
	@DEBUG_VALUE: sha224_wrap:ilen <- [DW_OP_LLVM_entry_value 1] $r1
	@DEBUG_VALUE: sha224_wrap:input <- [DW_OP_LLVM_entry_value 1] $r0
	.loc	4 415 5 is_stmt 0               @ ../../../ThirdParty/mbedTLS/library/md_wrap.c:415:5
	pop	{r7, pc}
.Ltmp77:
.Lfunc_end24:
	.size	sha224_wrap, .Lfunc_end24-sha224_wrap
	.cfi_endproc
	.cantunwind
	.fnend
                                        @ -- End function
	.section	.text.sha224_ctx_alloc,"ax",%progbits
	.p2align	1                               @ -- Begin function sha224_ctx_alloc
	.type	sha224_ctx_alloc,%function
	.code	16                              @ @sha224_ctx_alloc
	.thumb_func
sha224_ctx_alloc:
.Lfunc_begin25:
	.loc	4 419 0 is_stmt 1               @ ../../../ThirdParty/mbedTLS/library/md_wrap.c:419:0
	.fnstart
	.cfi_startproc
@ %bb.0:
	.save	{r4, lr}
	push	{r4, lr}
	.cfi_def_cfa_offset 8
	.cfi_offset lr, -4
	.cfi_offset r4, -8
	movs	r0, #1
	movs	r1, #108
.Ltmp78:
	.loc	4 420 17 prologue_end           @ ../../../ThirdParty/mbedTLS/library/md_wrap.c:420:17
	bl	calloc
	mov	r4, r0
.Ltmp79:
	@DEBUG_VALUE: sha224_ctx_alloc:ctx <- $r4
	.loc	4 422 9                         @ ../../../ThirdParty/mbedTLS/library/md_wrap.c:422:9
	cbz	r0, .LBB25_2
.Ltmp80:
@ %bb.1:
	@DEBUG_VALUE: sha224_ctx_alloc:ctx <- $r4
	.loc	4 423 9                         @ ../../../ThirdParty/mbedTLS/library/md_wrap.c:423:9
	mov	r0, r4
	bl	mbedtls_sha256_init
.Ltmp81:
.LBB25_2:
	@DEBUG_VALUE: sha224_ctx_alloc:ctx <- $r4
	.loc	4 425 5                         @ ../../../ThirdParty/mbedTLS/library/md_wrap.c:425:5
	mov	r0, r4
	pop	{r4, pc}
.Ltmp82:
.Lfunc_end25:
	.size	sha224_ctx_alloc, .Lfunc_end25-sha224_ctx_alloc
	.cfi_endproc
	.cantunwind
	.fnend
                                        @ -- End function
	.section	.text.sha224_ctx_free,"ax",%progbits
	.p2align	1                               @ -- Begin function sha224_ctx_free
	.type	sha224_ctx_free,%function
	.code	16                              @ @sha224_ctx_free
	.thumb_func
sha224_ctx_free:
.Lfunc_begin26:
	.loc	4 429 0                         @ ../../../ThirdParty/mbedTLS/library/md_wrap.c:429:0
	.fnstart
	.cfi_startproc
@ %bb.0:
	@DEBUG_VALUE: sha224_ctx_free:ctx <- $r0
	.save	{r4, lr}
	push	{r4, lr}
	.cfi_def_cfa_offset 8
	.cfi_offset lr, -4
	.cfi_offset r4, -8
	mov	r4, r0
.Ltmp83:
	@DEBUG_VALUE: sha224_ctx_free:ctx <- $r4
	.loc	4 430 5 prologue_end            @ ../../../ThirdParty/mbedTLS/library/md_wrap.c:430:5
	bl	mbedtls_sha256_free
	.loc	4 431 5                         @ ../../../ThirdParty/mbedTLS/library/md_wrap.c:431:5
	mov	r0, r4
	bl	free
	.loc	4 432 1                         @ ../../../ThirdParty/mbedTLS/library/md_wrap.c:432:1
	pop	{r4, pc}
.Ltmp84:
.Lfunc_end26:
	.size	sha224_ctx_free, .Lfunc_end26-sha224_ctx_free
	.cfi_endproc
	.cantunwind
	.fnend
                                        @ -- End function
	.section	.text.sha224_clone_wrap,"ax",%progbits
	.p2align	1                               @ -- Begin function sha224_clone_wrap
	.type	sha224_clone_wrap,%function
	.code	16                              @ @sha224_clone_wrap
	.thumb_func
sha224_clone_wrap:
.Lfunc_begin27:
	.loc	4 435 0                         @ ../../../ThirdParty/mbedTLS/library/md_wrap.c:435:0
	.fnstart
	.cfi_startproc
@ %bb.0:
	@DEBUG_VALUE: sha224_clone_wrap:dst <- $r0
	@DEBUG_VALUE: sha224_clone_wrap:dst <- $r0
	@DEBUG_VALUE: sha224_clone_wrap:src <- $r1
	@DEBUG_VALUE: sha224_clone_wrap:src <- $r1
	@DEBUG_VALUE: sha224_clone_wrap:src <- $r1
	@DEBUG_VALUE: sha224_clone_wrap:dst <- $r0
	.save	{r7, lr}
	push	{r7, lr}
	.cfi_def_cfa_offset 8
	.cfi_offset lr, -4
	.cfi_offset r7, -8
.Ltmp85:
	.loc	4 436 5 prologue_end            @ ../../../ThirdParty/mbedTLS/library/md_wrap.c:436:5
	bl	mbedtls_sha256_clone
.Ltmp86:
	@DEBUG_VALUE: sha224_clone_wrap:src <- [DW_OP_LLVM_entry_value 1] $r1
	@DEBUG_VALUE: sha224_clone_wrap:dst <- [DW_OP_LLVM_entry_value 1] $r0
	.loc	4 438 1                         @ ../../../ThirdParty/mbedTLS/library/md_wrap.c:438:1
	pop	{r7, pc}
.Ltmp87:
.Lfunc_end27:
	.size	sha224_clone_wrap, .Lfunc_end27-sha224_clone_wrap
	.cfi_endproc
	.cantunwind
	.fnend
                                        @ -- End function
	.section	.text.sha224_process_wrap,"ax",%progbits
	.p2align	1                               @ -- Begin function sha224_process_wrap
	.type	sha224_process_wrap,%function
	.code	16                              @ @sha224_process_wrap
	.thumb_func
sha224_process_wrap:
.Lfunc_begin28:
	.loc	4 441 0                         @ ../../../ThirdParty/mbedTLS/library/md_wrap.c:441:0
	.fnstart
	.cfi_startproc
@ %bb.0:
	@DEBUG_VALUE: sha224_process_wrap:ctx <- $r0
	@DEBUG_VALUE: sha224_process_wrap:ctx <- $r0
	@DEBUG_VALUE: sha224_process_wrap:data <- $r1
	@DEBUG_VALUE: sha224_process_wrap:data <- $r1
	@DEBUG_VALUE: sha224_process_wrap:data <- $r1
	@DEBUG_VALUE: sha224_process_wrap:ctx <- $r0
	.save	{r7, lr}
	push	{r7, lr}
	.cfi_def_cfa_offset 8
	.cfi_offset lr, -4
	.cfi_offset r7, -8
.Ltmp88:
	.loc	4 442 13 prologue_end           @ ../../../ThirdParty/mbedTLS/library/md_wrap.c:442:13
	bl	mbedtls_internal_sha256_process
.Ltmp89:
	@DEBUG_VALUE: sha224_process_wrap:data <- [DW_OP_LLVM_entry_value 1] $r1
	@DEBUG_VALUE: sha224_process_wrap:ctx <- [DW_OP_LLVM_entry_value 1] $r0
	.loc	4 442 5 is_stmt 0               @ ../../../ThirdParty/mbedTLS/library/md_wrap.c:442:5
	pop	{r7, pc}
.Ltmp90:
.Lfunc_end28:
	.size	sha224_process_wrap, .Lfunc_end28-sha224_process_wrap
	.cfi_endproc
	.cantunwind
	.fnend
                                        @ -- End function
	.section	.text.sha256_starts_wrap,"ax",%progbits
	.p2align	1                               @ -- Begin function sha256_starts_wrap
	.type	sha256_starts_wrap,%function
	.code	16                              @ @sha256_starts_wrap
	.thumb_func
sha256_starts_wrap:
.Lfunc_begin29:
	.loc	4 462 0 is_stmt 1               @ ../../../ThirdParty/mbedTLS/library/md_wrap.c:462:0
	.fnstart
	.cfi_startproc
@ %bb.0:
	@DEBUG_VALUE: sha256_starts_wrap:ctx <- $r0
	@DEBUG_VALUE: sha256_starts_wrap:ctx <- $r0
	.save	{r7, lr}
	push	{r7, lr}
	.cfi_def_cfa_offset 8
	.cfi_offset lr, -4
	.cfi_offset r7, -8
	movs	r1, #0
	@DEBUG_VALUE: sha256_starts_wrap:ctx <- $r0
.Ltmp91:
	.loc	4 463 13 prologue_end           @ ../../../ThirdParty/mbedTLS/library/md_wrap.c:463:13
	bl	mbedtls_sha256_starts_ret
.Ltmp92:
	@DEBUG_VALUE: sha256_starts_wrap:ctx <- [DW_OP_LLVM_entry_value 1] $r0
	.loc	4 463 5 is_stmt 0               @ ../../../ThirdParty/mbedTLS/library/md_wrap.c:463:5
	pop	{r7, pc}
.Ltmp93:
.Lfunc_end29:
	.size	sha256_starts_wrap, .Lfunc_end29-sha256_starts_wrap
	.cfi_endproc
	.cantunwind
	.fnend
                                        @ -- End function
	.section	.text.sha256_wrap,"ax",%progbits
	.p2align	1                               @ -- Begin function sha256_wrap
	.type	sha256_wrap,%function
	.code	16                              @ @sha256_wrap
	.thumb_func
sha256_wrap:
.Lfunc_begin30:
	.loc	4 468 0 is_stmt 1               @ ../../../ThirdParty/mbedTLS/library/md_wrap.c:468:0
	.fnstart
	.cfi_startproc
@ %bb.0:
	@DEBUG_VALUE: sha256_wrap:input <- $r0
	@DEBUG_VALUE: sha256_wrap:input <- $r0
	@DEBUG_VALUE: sha256_wrap:ilen <- $r1
	@DEBUG_VALUE: sha256_wrap:ilen <- $r1
	@DEBUG_VALUE: sha256_wrap:output <- $r2
	@DEBUG_VALUE: sha256_wrap:output <- $r2
	.save	{r7, lr}
	push	{r7, lr}
	.cfi_def_cfa_offset 8
	.cfi_offset lr, -4
	.cfi_offset r7, -8
	movs	r3, #0
	@DEBUG_VALUE: sha256_wrap:output <- $r2
	@DEBUG_VALUE: sha256_wrap:ilen <- $r1
	@DEBUG_VALUE: sha256_wrap:input <- $r0
.Ltmp94:
	.loc	4 469 13 prologue_end           @ ../../../ThirdParty/mbedTLS/library/md_wrap.c:469:13
	bl	mbedtls_sha256_ret
.Ltmp95:
	@DEBUG_VALUE: sha256_wrap:output <- [DW_OP_LLVM_entry_value 1] $r2
	@DEBUG_VALUE: sha256_wrap:ilen <- [DW_OP_LLVM_entry_value 1] $r1
	@DEBUG_VALUE: sha256_wrap:input <- [DW_OP_LLVM_entry_value 1] $r0
	.loc	4 469 5 is_stmt 0               @ ../../../ThirdParty/mbedTLS/library/md_wrap.c:469:5
	pop	{r7, pc}
.Ltmp96:
.Lfunc_end30:
	.size	sha256_wrap, .Lfunc_end30-sha256_wrap
	.cfi_endproc
	.cantunwind
	.fnend
                                        @ -- End function
	.section	.text.sha384_starts_wrap,"ax",%progbits
	.p2align	1                               @ -- Begin function sha384_starts_wrap
	.type	sha384_starts_wrap,%function
	.code	16                              @ @sha384_starts_wrap
	.thumb_func
sha384_starts_wrap:
.Lfunc_begin31:
	.loc	4 492 0 is_stmt 1               @ ../../../ThirdParty/mbedTLS/library/md_wrap.c:492:0
	.fnstart
	.cfi_startproc
@ %bb.0:
	@DEBUG_VALUE: sha384_starts_wrap:ctx <- $r0
	@DEBUG_VALUE: sha384_starts_wrap:ctx <- $r0
	.save	{r7, lr}
	push	{r7, lr}
	.cfi_def_cfa_offset 8
	.cfi_offset lr, -4
	.cfi_offset r7, -8
	movs	r1, #1
	@DEBUG_VALUE: sha384_starts_wrap:ctx <- $r0
.Ltmp97:
	.loc	4 493 13 prologue_end           @ ../../../ThirdParty/mbedTLS/library/md_wrap.c:493:13
	bl	mbedtls_sha512_starts_ret
.Ltmp98:
	@DEBUG_VALUE: sha384_starts_wrap:ctx <- [DW_OP_LLVM_entry_value 1] $r0
	.loc	4 493 5 is_stmt 0               @ ../../../ThirdParty/mbedTLS/library/md_wrap.c:493:5
	pop	{r7, pc}
.Ltmp99:
.Lfunc_end31:
	.size	sha384_starts_wrap, .Lfunc_end31-sha384_starts_wrap
	.cfi_endproc
	.cantunwind
	.fnend
                                        @ -- End function
	.section	.text.sha384_update_wrap,"ax",%progbits
	.p2align	1                               @ -- Begin function sha384_update_wrap
	.type	sha384_update_wrap,%function
	.code	16                              @ @sha384_update_wrap
	.thumb_func
sha384_update_wrap:
.Lfunc_begin32:
	.loc	4 498 0 is_stmt 1               @ ../../../ThirdParty/mbedTLS/library/md_wrap.c:498:0
	.fnstart
	.cfi_startproc
@ %bb.0:
	@DEBUG_VALUE: sha384_update_wrap:ctx <- $r0
	@DEBUG_VALUE: sha384_update_wrap:ctx <- $r0
	@DEBUG_VALUE: sha384_update_wrap:input <- $r1
	@DEBUG_VALUE: sha384_update_wrap:input <- $r1
	@DEBUG_VALUE: sha384_update_wrap:ilen <- $r2
	@DEBUG_VALUE: sha384_update_wrap:ilen <- $r2
	@DEBUG_VALUE: sha384_update_wrap:ilen <- $r2
	@DEBUG_VALUE: sha384_update_wrap:input <- $r1
	@DEBUG_VALUE: sha384_update_wrap:ctx <- $r0
	.save	{r7, lr}
	push	{r7, lr}
	.cfi_def_cfa_offset 8
	.cfi_offset lr, -4
	.cfi_offset r7, -8
.Ltmp100:
	.loc	4 499 13 prologue_end           @ ../../../ThirdParty/mbedTLS/library/md_wrap.c:499:13
	bl	mbedtls_sha512_update_ret
.Ltmp101:
	@DEBUG_VALUE: sha384_update_wrap:ilen <- [DW_OP_LLVM_entry_value 1] $r2
	@DEBUG_VALUE: sha384_update_wrap:input <- [DW_OP_LLVM_entry_value 1] $r1
	@DEBUG_VALUE: sha384_update_wrap:ctx <- [DW_OP_LLVM_entry_value 1] $r0
	.loc	4 499 5 is_stmt 0               @ ../../../ThirdParty/mbedTLS/library/md_wrap.c:499:5
	pop	{r7, pc}
.Ltmp102:
.Lfunc_end32:
	.size	sha384_update_wrap, .Lfunc_end32-sha384_update_wrap
	.cfi_endproc
	.cantunwind
	.fnend
                                        @ -- End function
	.section	.text.sha384_finish_wrap,"ax",%progbits
	.p2align	1                               @ -- Begin function sha384_finish_wrap
	.type	sha384_finish_wrap,%function
	.code	16                              @ @sha384_finish_wrap
	.thumb_func
sha384_finish_wrap:
.Lfunc_begin33:
	.loc	4 504 0 is_stmt 1               @ ../../../ThirdParty/mbedTLS/library/md_wrap.c:504:0
	.fnstart
	.cfi_startproc
@ %bb.0:
	@DEBUG_VALUE: sha384_finish_wrap:ctx <- $r0
	@DEBUG_VALUE: sha384_finish_wrap:ctx <- $r0
	@DEBUG_VALUE: sha384_finish_wrap:output <- $r1
	@DEBUG_VALUE: sha384_finish_wrap:output <- $r1
	@DEBUG_VALUE: sha384_finish_wrap:output <- $r1
	@DEBUG_VALUE: sha384_finish_wrap:ctx <- $r0
	.save	{r7, lr}
	push	{r7, lr}
	.cfi_def_cfa_offset 8
	.cfi_offset lr, -4
	.cfi_offset r7, -8
.Ltmp103:
	.loc	4 505 13 prologue_end           @ ../../../ThirdParty/mbedTLS/library/md_wrap.c:505:13
	bl	mbedtls_sha512_finish_ret
.Ltmp104:
	@DEBUG_VALUE: sha384_finish_wrap:output <- [DW_OP_LLVM_entry_value 1] $r1
	@DEBUG_VALUE: sha384_finish_wrap:ctx <- [DW_OP_LLVM_entry_value 1] $r0
	.loc	4 505 5 is_stmt 0               @ ../../../ThirdParty/mbedTLS/library/md_wrap.c:505:5
	pop	{r7, pc}
.Ltmp105:
.Lfunc_end33:
	.size	sha384_finish_wrap, .Lfunc_end33-sha384_finish_wrap
	.cfi_endproc
	.cantunwind
	.fnend
                                        @ -- End function
	.section	.text.sha384_wrap,"ax",%progbits
	.p2align	1                               @ -- Begin function sha384_wrap
	.type	sha384_wrap,%function
	.code	16                              @ @sha384_wrap
	.thumb_func
sha384_wrap:
.Lfunc_begin34:
	.loc	4 511 0 is_stmt 1               @ ../../../ThirdParty/mbedTLS/library/md_wrap.c:511:0
	.fnstart
	.cfi_startproc
@ %bb.0:
	@DEBUG_VALUE: sha384_wrap:input <- $r0
	@DEBUG_VALUE: sha384_wrap:input <- $r0
	@DEBUG_VALUE: sha384_wrap:ilen <- $r1
	@DEBUG_VALUE: sha384_wrap:ilen <- $r1
	@DEBUG_VALUE: sha384_wrap:output <- $r2
	@DEBUG_VALUE: sha384_wrap:output <- $r2
	.save	{r7, lr}
	push	{r7, lr}
	.cfi_def_cfa_offset 8
	.cfi_offset lr, -4
	.cfi_offset r7, -8
	movs	r3, #1
	@DEBUG_VALUE: sha384_wrap:output <- $r2
	@DEBUG_VALUE: sha384_wrap:ilen <- $r1
	@DEBUG_VALUE: sha384_wrap:input <- $r0
.Ltmp106:
	.loc	4 512 13 prologue_end           @ ../../../ThirdParty/mbedTLS/library/md_wrap.c:512:13
	bl	mbedtls_sha512_ret
.Ltmp107:
	@DEBUG_VALUE: sha384_wrap:output <- [DW_OP_LLVM_entry_value 1] $r2
	@DEBUG_VALUE: sha384_wrap:ilen <- [DW_OP_LLVM_entry_value 1] $r1
	@DEBUG_VALUE: sha384_wrap:input <- [DW_OP_LLVM_entry_value 1] $r0
	.loc	4 512 5 is_stmt 0               @ ../../../ThirdParty/mbedTLS/library/md_wrap.c:512:5
	pop	{r7, pc}
.Ltmp108:
.Lfunc_end34:
	.size	sha384_wrap, .Lfunc_end34-sha384_wrap
	.cfi_endproc
	.cantunwind
	.fnend
                                        @ -- End function
	.section	.text.sha384_ctx_alloc,"ax",%progbits
	.p2align	1                               @ -- Begin function sha384_ctx_alloc
	.type	sha384_ctx_alloc,%function
	.code	16                              @ @sha384_ctx_alloc
	.thumb_func
sha384_ctx_alloc:
.Lfunc_begin35:
	.loc	4 516 0 is_stmt 1               @ ../../../ThirdParty/mbedTLS/library/md_wrap.c:516:0
	.fnstart
	.cfi_startproc
@ %bb.0:
	.save	{r4, lr}
	push	{r4, lr}
	.cfi_def_cfa_offset 8
	.cfi_offset lr, -4
	.cfi_offset r4, -8
	movs	r0, #1
	movs	r1, #216
.Ltmp109:
	.loc	4 517 17 prologue_end           @ ../../../ThirdParty/mbedTLS/library/md_wrap.c:517:17
	bl	calloc
	mov	r4, r0
.Ltmp110:
	@DEBUG_VALUE: sha384_ctx_alloc:ctx <- $r4
	.loc	4 519 9                         @ ../../../ThirdParty/mbedTLS/library/md_wrap.c:519:9
	cbz	r0, .LBB35_2
.Ltmp111:
@ %bb.1:
	@DEBUG_VALUE: sha384_ctx_alloc:ctx <- $r4
	.loc	4 520 9                         @ ../../../ThirdParty/mbedTLS/library/md_wrap.c:520:9
	mov	r0, r4
	bl	mbedtls_sha512_init
.Ltmp112:
.LBB35_2:
	@DEBUG_VALUE: sha384_ctx_alloc:ctx <- $r4
	.loc	4 522 5                         @ ../../../ThirdParty/mbedTLS/library/md_wrap.c:522:5
	mov	r0, r4
	pop	{r4, pc}
.Ltmp113:
.Lfunc_end35:
	.size	sha384_ctx_alloc, .Lfunc_end35-sha384_ctx_alloc
	.cfi_endproc
	.cantunwind
	.fnend
                                        @ -- End function
	.section	.text.sha384_ctx_free,"ax",%progbits
	.p2align	1                               @ -- Begin function sha384_ctx_free
	.type	sha384_ctx_free,%function
	.code	16                              @ @sha384_ctx_free
	.thumb_func
sha384_ctx_free:
.Lfunc_begin36:
	.loc	4 526 0                         @ ../../../ThirdParty/mbedTLS/library/md_wrap.c:526:0
	.fnstart
	.cfi_startproc
@ %bb.0:
	@DEBUG_VALUE: sha384_ctx_free:ctx <- $r0
	.save	{r4, lr}
	push	{r4, lr}
	.cfi_def_cfa_offset 8
	.cfi_offset lr, -4
	.cfi_offset r4, -8
	mov	r4, r0
.Ltmp114:
	@DEBUG_VALUE: sha384_ctx_free:ctx <- $r4
	.loc	4 527 5 prologue_end            @ ../../../ThirdParty/mbedTLS/library/md_wrap.c:527:5
	bl	mbedtls_sha512_free
	.loc	4 528 5                         @ ../../../ThirdParty/mbedTLS/library/md_wrap.c:528:5
	mov	r0, r4
	bl	free
	.loc	4 529 1                         @ ../../../ThirdParty/mbedTLS/library/md_wrap.c:529:1
	pop	{r4, pc}
.Ltmp115:
.Lfunc_end36:
	.size	sha384_ctx_free, .Lfunc_end36-sha384_ctx_free
	.cfi_endproc
	.cantunwind
	.fnend
                                        @ -- End function
	.section	.text.sha384_clone_wrap,"ax",%progbits
	.p2align	1                               @ -- Begin function sha384_clone_wrap
	.type	sha384_clone_wrap,%function
	.code	16                              @ @sha384_clone_wrap
	.thumb_func
sha384_clone_wrap:
.Lfunc_begin37:
	.loc	4 532 0                         @ ../../../ThirdParty/mbedTLS/library/md_wrap.c:532:0
	.fnstart
	.cfi_startproc
@ %bb.0:
	@DEBUG_VALUE: sha384_clone_wrap:dst <- $r0
	@DEBUG_VALUE: sha384_clone_wrap:dst <- $r0
	@DEBUG_VALUE: sha384_clone_wrap:src <- $r1
	@DEBUG_VALUE: sha384_clone_wrap:src <- $r1
	@DEBUG_VALUE: sha384_clone_wrap:src <- $r1
	@DEBUG_VALUE: sha384_clone_wrap:dst <- $r0
	.save	{r7, lr}
	push	{r7, lr}
	.cfi_def_cfa_offset 8
	.cfi_offset lr, -4
	.cfi_offset r7, -8
.Ltmp116:
	.loc	4 533 5 prologue_end            @ ../../../ThirdParty/mbedTLS/library/md_wrap.c:533:5
	bl	mbedtls_sha512_clone
.Ltmp117:
	@DEBUG_VALUE: sha384_clone_wrap:src <- [DW_OP_LLVM_entry_value 1] $r1
	@DEBUG_VALUE: sha384_clone_wrap:dst <- [DW_OP_LLVM_entry_value 1] $r0
	.loc	4 535 1                         @ ../../../ThirdParty/mbedTLS/library/md_wrap.c:535:1
	pop	{r7, pc}
.Ltmp118:
.Lfunc_end37:
	.size	sha384_clone_wrap, .Lfunc_end37-sha384_clone_wrap
	.cfi_endproc
	.cantunwind
	.fnend
                                        @ -- End function
	.section	.text.sha384_process_wrap,"ax",%progbits
	.p2align	1                               @ -- Begin function sha384_process_wrap
	.type	sha384_process_wrap,%function
	.code	16                              @ @sha384_process_wrap
	.thumb_func
sha384_process_wrap:
.Lfunc_begin38:
	.loc	4 538 0                         @ ../../../ThirdParty/mbedTLS/library/md_wrap.c:538:0
	.fnstart
	.cfi_startproc
@ %bb.0:
	@DEBUG_VALUE: sha384_process_wrap:ctx <- $r0
	@DEBUG_VALUE: sha384_process_wrap:ctx <- $r0
	@DEBUG_VALUE: sha384_process_wrap:data <- $r1
	@DEBUG_VALUE: sha384_process_wrap:data <- $r1
	@DEBUG_VALUE: sha384_process_wrap:data <- $r1
	@DEBUG_VALUE: sha384_process_wrap:ctx <- $r0
	.save	{r7, lr}
	push	{r7, lr}
	.cfi_def_cfa_offset 8
	.cfi_offset lr, -4
	.cfi_offset r7, -8
.Ltmp119:
	.loc	4 539 13 prologue_end           @ ../../../ThirdParty/mbedTLS/library/md_wrap.c:539:13
	bl	mbedtls_internal_sha512_process
.Ltmp120:
	@DEBUG_VALUE: sha384_process_wrap:data <- [DW_OP_LLVM_entry_value 1] $r1
	@DEBUG_VALUE: sha384_process_wrap:ctx <- [DW_OP_LLVM_entry_value 1] $r0
	.loc	4 539 5 is_stmt 0               @ ../../../ThirdParty/mbedTLS/library/md_wrap.c:539:5
	pop	{r7, pc}
.Ltmp121:
.Lfunc_end38:
	.size	sha384_process_wrap, .Lfunc_end38-sha384_process_wrap
	.cfi_endproc
	.cantunwind
	.fnend
                                        @ -- End function
	.section	.text.sha512_starts_wrap,"ax",%progbits
	.p2align	1                               @ -- Begin function sha512_starts_wrap
	.type	sha512_starts_wrap,%function
	.code	16                              @ @sha512_starts_wrap
	.thumb_func
sha512_starts_wrap:
.Lfunc_begin39:
	.loc	4 559 0 is_stmt 1               @ ../../../ThirdParty/mbedTLS/library/md_wrap.c:559:0
	.fnstart
	.cfi_startproc
@ %bb.0:
	@DEBUG_VALUE: sha512_starts_wrap:ctx <- $r0
	@DEBUG_VALUE: sha512_starts_wrap:ctx <- $r0
	.save	{r7, lr}
	push	{r7, lr}
	.cfi_def_cfa_offset 8
	.cfi_offset lr, -4
	.cfi_offset r7, -8
	movs	r1, #0
	@DEBUG_VALUE: sha512_starts_wrap:ctx <- $r0
.Ltmp122:
	.loc	4 560 13 prologue_end           @ ../../../ThirdParty/mbedTLS/library/md_wrap.c:560:13
	bl	mbedtls_sha512_starts_ret
.Ltmp123:
	@DEBUG_VALUE: sha512_starts_wrap:ctx <- [DW_OP_LLVM_entry_value 1] $r0
	.loc	4 560 5 is_stmt 0               @ ../../../ThirdParty/mbedTLS/library/md_wrap.c:560:5
	pop	{r7, pc}
.Ltmp124:
.Lfunc_end39:
	.size	sha512_starts_wrap, .Lfunc_end39-sha512_starts_wrap
	.cfi_endproc
	.cantunwind
	.fnend
                                        @ -- End function
	.section	.text.sha512_wrap,"ax",%progbits
	.p2align	1                               @ -- Begin function sha512_wrap
	.type	sha512_wrap,%function
	.code	16                              @ @sha512_wrap
	.thumb_func
sha512_wrap:
.Lfunc_begin40:
	.loc	4 565 0 is_stmt 1               @ ../../../ThirdParty/mbedTLS/library/md_wrap.c:565:0
	.fnstart
	.cfi_startproc
@ %bb.0:
	@DEBUG_VALUE: sha512_wrap:input <- $r0
	@DEBUG_VALUE: sha512_wrap:input <- $r0
	@DEBUG_VALUE: sha512_wrap:ilen <- $r1
	@DEBUG_VALUE: sha512_wrap:ilen <- $r1
	@DEBUG_VALUE: sha512_wrap:output <- $r2
	@DEBUG_VALUE: sha512_wrap:output <- $r2
	.save	{r7, lr}
	push	{r7, lr}
	.cfi_def_cfa_offset 8
	.cfi_offset lr, -4
	.cfi_offset r7, -8
	movs	r3, #0
	@DEBUG_VALUE: sha512_wrap:output <- $r2
	@DEBUG_VALUE: sha512_wrap:ilen <- $r1
	@DEBUG_VALUE: sha512_wrap:input <- $r0
.Ltmp125:
	.loc	4 566 13 prologue_end           @ ../../../ThirdParty/mbedTLS/library/md_wrap.c:566:13
	bl	mbedtls_sha512_ret
.Ltmp126:
	@DEBUG_VALUE: sha512_wrap:output <- [DW_OP_LLVM_entry_value 1] $r2
	@DEBUG_VALUE: sha512_wrap:ilen <- [DW_OP_LLVM_entry_value 1] $r1
	@DEBUG_VALUE: sha512_wrap:input <- [DW_OP_LLVM_entry_value 1] $r0
	.loc	4 566 5 is_stmt 0               @ ../../../ThirdParty/mbedTLS/library/md_wrap.c:566:5
	pop	{r7, pc}
.Ltmp127:
.Lfunc_end40:
	.size	sha512_wrap, .Lfunc_end40-sha512_wrap
	.cfi_endproc
	.cantunwind
	.fnend
                                        @ -- End function
	.type	.L.str,%object                  @ @.str
	.section	.rodata.str1.1,"aMS",%progbits,1
.L.str:
	.asciz	"MD5"
	.size	.L.str, 4

	.hidden	mbedtls_md5_info                @ @mbedtls_md5_info
	.type	mbedtls_md5_info,%object
	.section	.rodata.mbedtls_md5_info,"a",%progbits
	.globl	mbedtls_md5_info
	.p2align	2
mbedtls_md5_info:
	.byte	3                               @ 0x3
	.zero	3
	.long	.L.str
	.long	16                              @ 0x10
	.long	64                              @ 0x40
	.long	md5_starts_wrap
	.long	md5_update_wrap
	.long	md5_finish_wrap
	.long	mbedtls_md5_ret
	.long	md5_ctx_alloc
	.long	md5_ctx_free
	.long	md5_clone_wrap
	.long	md5_process_wrap
	.size	mbedtls_md5_info, 48

	.type	.L.str.1,%object                @ @.str.1
	.section	.rodata.str1.1,"aMS",%progbits,1
.L.str.1:
	.asciz	"RIPEMD160"
	.size	.L.str.1, 10

	.hidden	mbedtls_ripemd160_info          @ @mbedtls_ripemd160_info
	.type	mbedtls_ripemd160_info,%object
	.section	.rodata.mbedtls_ripemd160_info,"a",%progbits
	.globl	mbedtls_ripemd160_info
	.p2align	2
mbedtls_ripemd160_info:
	.byte	9                               @ 0x9
	.zero	3
	.long	.L.str.1
	.long	20                              @ 0x14
	.long	64                              @ 0x40
	.long	ripemd160_starts_wrap
	.long	ripemd160_update_wrap
	.long	ripemd160_finish_wrap
	.long	mbedtls_ripemd160_ret
	.long	ripemd160_ctx_alloc
	.long	ripemd160_ctx_free
	.long	ripemd160_clone_wrap
	.long	ripemd160_process_wrap
	.size	mbedtls_ripemd160_info, 48

	.type	.L.str.2,%object                @ @.str.2
	.section	.rodata.str1.1,"aMS",%progbits,1
.L.str.2:
	.asciz	"SHA1"
	.size	.L.str.2, 5

	.hidden	mbedtls_sha1_info               @ @mbedtls_sha1_info
	.type	mbedtls_sha1_info,%object
	.section	.rodata.mbedtls_sha1_info,"a",%progbits
	.globl	mbedtls_sha1_info
	.p2align	2
mbedtls_sha1_info:
	.byte	4                               @ 0x4
	.zero	3
	.long	.L.str.2
	.long	20                              @ 0x14
	.long	64                              @ 0x40
	.long	sha1_starts_wrap
	.long	sha1_update_wrap
	.long	sha1_finish_wrap
	.long	mbedtls_sha1_ret
	.long	sha1_ctx_alloc
	.long	sha1_ctx_free
	.long	sha1_clone_wrap
	.long	sha1_process_wrap
	.size	mbedtls_sha1_info, 48

	.type	.L.str.3,%object                @ @.str.3
	.section	.rodata.str1.1,"aMS",%progbits,1
.L.str.3:
	.asciz	"SHA224"
	.size	.L.str.3, 7

	.hidden	mbedtls_sha224_info             @ @mbedtls_sha224_info
	.type	mbedtls_sha224_info,%object
	.section	.rodata.mbedtls_sha224_info,"a",%progbits
	.globl	mbedtls_sha224_info
	.p2align	2
mbedtls_sha224_info:
	.byte	5                               @ 0x5
	.zero	3
	.long	.L.str.3
	.long	28                              @ 0x1c
	.long	64                              @ 0x40
	.long	sha224_starts_wrap
	.long	sha224_update_wrap
	.long	sha224_finish_wrap
	.long	sha224_wrap
	.long	sha224_ctx_alloc
	.long	sha224_ctx_free
	.long	sha224_clone_wrap
	.long	sha224_process_wrap
	.size	mbedtls_sha224_info, 48

	.type	.L.str.4,%object                @ @.str.4
	.section	.rodata.str1.1,"aMS",%progbits,1
.L.str.4:
	.asciz	"SHA256"
	.size	.L.str.4, 7

	.hidden	mbedtls_sha256_info             @ @mbedtls_sha256_info
	.type	mbedtls_sha256_info,%object
	.section	.rodata.mbedtls_sha256_info,"a",%progbits
	.globl	mbedtls_sha256_info
	.p2align	2
mbedtls_sha256_info:
	.byte	6                               @ 0x6
	.zero	3
	.long	.L.str.4
	.long	32                              @ 0x20
	.long	64                              @ 0x40
	.long	sha256_starts_wrap
	.long	sha224_update_wrap
	.long	sha224_finish_wrap
	.long	sha256_wrap
	.long	sha224_ctx_alloc
	.long	sha224_ctx_free
	.long	sha224_clone_wrap
	.long	sha224_process_wrap
	.size	mbedtls_sha256_info, 48

	.type	.L.str.5,%object                @ @.str.5
	.section	.rodata.str1.1,"aMS",%progbits,1
.L.str.5:
	.asciz	"SHA384"
	.size	.L.str.5, 7

	.hidden	mbedtls_sha384_info             @ @mbedtls_sha384_info
	.type	mbedtls_sha384_info,%object
	.section	.rodata.mbedtls_sha384_info,"a",%progbits
	.globl	mbedtls_sha384_info
	.p2align	2
mbedtls_sha384_info:
	.byte	7                               @ 0x7
	.zero	3
	.long	.L.str.5
	.long	48                              @ 0x30
	.long	128                             @ 0x80
	.long	sha384_starts_wrap
	.long	sha384_update_wrap
	.long	sha384_finish_wrap
	.long	sha384_wrap
	.long	sha384_ctx_alloc
	.long	sha384_ctx_free
	.long	sha384_clone_wrap
	.long	sha384_process_wrap
	.size	mbedtls_sha384_info, 48

	.type	.L.str.6,%object                @ @.str.6
	.section	.rodata.str1.1,"aMS",%progbits,1
.L.str.6:
	.asciz	"SHA512"
	.size	.L.str.6, 7

	.hidden	mbedtls_sha512_info             @ @mbedtls_sha512_info
	.type	mbedtls_sha512_info,%object
	.section	.rodata.mbedtls_sha512_info,"a",%progbits
	.globl	mbedtls_sha512_info
	.p2align	2
mbedtls_sha512_info:
	.byte	8                               @ 0x8
	.zero	3
	.long	.L.str.6
	.long	64                              @ 0x40
	.long	128                             @ 0x80
	.long	sha512_starts_wrap
	.long	sha384_update_wrap
	.long	sha384_finish_wrap
	.long	sha512_wrap
	.long	sha384_ctx_alloc
	.long	sha384_ctx_free
	.long	sha384_clone_wrap
	.long	sha384_process_wrap
	.size	mbedtls_sha512_info, 48

	.section	".note.GNU-stack","",%progbits
	.eabi_attribute	30, 1	@ Tag_ABI_optimization_goals
	.ARM_attribute	16, 1	@ Tag_AV_eba