	.text
	.syntax unified
	.eabi_attribute	67, "2.09"	@ Tag_conformance
	.cpu	cortex-m23
	.eabi_attribute	6, 16	@ Tag_CPU_arch
	.eabi_attribute	7, 77	@ Tag_CPU_arch_profile
	.eabi_attribute	8, 0	@ Tag_ARM_ISA_use
	.eabi_attribute	9, 3	@ Tag_THUMB_ISA_use
	.eabi_attribute	34, 0	@ Tag_CPU_unaligned_access
	.eabi_attribute	17, 1	@ Tag_ABI_PCS_GOT_use
	.eabi_attribute	20, 2	@ Tag_ABI_FP_denormal
	.eabi_attribute	21, 0	@ Tag_ABI_FP_exceptions
	.eabi_attribute	23, 1	@ Tag_ABI_FP_number_model
	.eabi_attribute	24, 1	@ Tag_ABI_align_needed
	.eabi_attribute	25, 1	@ Tag_ABI_align_preserved
	.eabi_attribute	38, 1	@ Tag_ABI_FP_16bit_format
	.eabi_attribute	18, 2	@ Tag_ABI_PCS_wchar_t
	.eabi_attribute	26, 1	@ Tag_ABI_enum_size
	.eabi_attribute	14, 0	@ Tag_ABI_PCS_R9_use
	.file	"nsc.c"
	.file	1 "C:\\" "Keil_v5\\ARM\\ARMCLANG\\Bin\\..\\include\\stdint.h"
	.file	2 "C:\\Users\\shw26\\OneDrive\\Desktop\\2021\\2021-1\\\354\272\241\354\212\244\355\206\244\353\224\224\354\236\220\354\235\2702\\Nuvoton\\M2351_BSP_v3.00.004\\M2351Series_BSP_CMSIS_V3.00.004\\MyProject\\PulseMonitoring\\Secure" "../Secure/nsc.h"
	.file	3 "C:\\Users\\shw26\\OneDrive\\Desktop\\2021\\2021-1\\\354\272\241\354\212\244\355\206\244\353\224\224\354\236\220\354\235\2702\\Nuvoton\\M2351_BSP_v3.00.004\\M2351Series_BSP_CMSIS_V3.00.004\\MyProject\\PulseMonitoring\\Secure" "nsc.c"
	.section	.text.Secure_OLED_On_callback,"ax",%progbits
	.hidden	Secure_OLED_On_callback         @ -- Begin function Secure_OLED_On_callback
	.globl	Secure_OLED_On_callback
	.p2align	2
	.type	Secure_OLED_On_callback,%function
	.code	16                              @ @Secure_OLED_On_callback
	.thumb_func
	.globl	__acle_se_Secure_OLED_On_callback
	.type	__acle_se_Secure_OLED_On_callback,%function
__acle_se_Secure_OLED_On_callback:
Secure_OLED_On_callback:
.Lfunc_begin0:
	.loc	3 28 0                          @ nsc.c:28:0
	.fnstart
	.cfi_sections .debug_frame
	.cfi_startproc
@ %bb.0:
	movs	r1, #1
.Ltmp0:
	@DEBUG_VALUE: Secure_OLED_On_callback:callback <- $r0
	.loc	3 29 46 prologue_end            @ nsc.c:29:46
	bics	r0, r1
.Ltmp1:
	@DEBUG_VALUE: Secure_OLED_On_callback:callback <- [DW_OP_LLVM_entry_value 1] $r0
	.loc	3 29 25 is_stmt 0               @ nsc.c:29:25
	ldr	r1, __arm_cp.0_0
	str	r0, [r1]
	movs	r0, #0
	.loc	3 30 5 is_stmt 1                @ nsc.c:30:5
	mov	r1, lr
	mov	r2, lr
	mov	r3, lr
	mov	r12, lr
	msr	apsr, lr
	bxns	lr
.Ltmp2:
	.p2align	2
@ %bb.1:
	.loc	3 0 5 is_stmt 0                 @ nsc.c:0:5
__arm_cp.0_0:
	.long	pfNonSecure_OLED_On
.Lcpi_end0:
	.size	__arm_cp.0_0, .Lcpi_end0-__arm_cp.0_0
.Lfunc_end0:
	.size	Secure_OLED_On_callback, .Lfunc_end0-Secure_OLED_On_callback
	.cfi_endproc
	.cantunwind
	.fnend
                                        @ -- End function
	.section	.text.Secure_OLED_Off_callback,"ax",%progbits
	.hidden	Secure_OLED_Off_callback        @ -- Begin function Secure_OLED_Off_callback
	.globl	Secure_OLED_Off_callback
	.p2align	2
	.type	Secure_OLED_Off_callback,%function
	.code	16                              @ @Secure_OLED_Off_callback
	.thumb_func
	.globl	__acle_se_Secure_OLED_Off_callback
	.type	__acle_se_Secure_OLED_Off_callback,%function
__acle_se_Secure_OLED_Off_callback:
Secure_OLED_Off_callback:
.Lfunc_begin1:
	.loc	3 35 0 is_stmt 1                @ nsc.c:35:0
	.fnstart
	.cfi_startproc
@ %bb.0:
	movs	r1, #1
.Ltmp3:
	@DEBUG_VALUE: Secure_OLED_Off_callback:callback <- $r0
	.loc	3 36 47 prologue_end            @ nsc.c:36:47
	bics	r0, r1
.Ltmp4:
	@DEBUG_VALUE: Secure_OLED_Off_callback:callback <- [DW_OP_LLVM_entry_value 1] $r0
	.loc	3 36 26 is_stmt 0               @ nsc.c:36:26
	ldr	r1, __arm_cp.1_0
	str	r0, [r1]
	movs	r0, #0
	.loc	3 37 5 is_stmt 1                @ nsc.c:37:5
	mov	r1, lr
	mov	r2, lr
	mov	r3, lr
	mov	r12, lr
	msr	apsr, lr
	bxns	lr
.Ltmp5:
	.p2align	2
@ %bb.1:
	.loc	3 0 5 is_stmt 0                 @ nsc.c:0:5
__arm_cp.1_0:
	.long	pfNonSecure_OLED_Off
.Lcpi_end1:
	.size	__arm_cp.1_0, .Lcpi_end1-__arm_cp.1_0
.Lfunc_end1:
	.size	Secure_OLED_Off_callback, .Lfunc_end1-Secure_OLED_Off_callback
	.cfi_endproc
	.cantunwind
	.fnend
                                        @ -- End function
	.section	.text.GetSystemCoreClock,"ax",%progbits
	.hidden	GetSystemCoreClock              @ -- Begin function GetSystemCoreClock
	.globl	GetSystemCoreClock
	.p2align	2
	.type	GetSystemCoreClock,%function
	.code	16                              @ @GetSystemCoreClock
	.thumb_func
	.globl	__acle_se_GetSystemCoreClock
	.type	__acle_se_GetSystemCoreClock,%function
__acle_se_GetSystemCoreClock:
GetSystemCoreClock:
.Lfunc_begin2:
	.loc	3 47 0 is_stmt 1                @ nsc.c:47:0
	.fnstart
	.cfi_startproc
@ %bb.0:
	.loc	3 49 12 prologue_end            @ nsc.c:49:12
	ldr	r0, __arm_cp.2_0
	ldr	r0, [r0]
	.loc	3 49 5 is_stmt 0                @ nsc.c:49:5
	mov	r1, lr
	mov	r2, lr
	mov	r3, lr
	mov	r12, lr
	msr	apsr, lr
	bxns	lr
.Ltmp6:
	.p2align	2
@ %bb.1:
	.loc	3 0 5                           @ nsc.c:0:5
__arm_cp.2_0:
	.long	SystemCoreClock
.Lcpi_end2:
	.size	__arm_cp.2_0, .Lcpi_end2-__arm_cp.2_0
.Lfunc_end2:
	.size	GetSystemCoreClock, .Lfunc_end2-GetSystemCoreClock
	.cfi_endproc
	.cantunwind
	.fnend
                                        @ -- End function
	.section	.text.Get_BPM,"ax",%progbits
	.hidden	Get_BPM                         @ -- Begin function Get_BPM
	.globl	Get_BPM
	.p2align	2
	.type	Get_BPM,%function
	.code	16                              @ @Get_BPM
	.thumb_func
	.globl	__acle_se_Get_BPM
	.type	__acle_se_Get_BPM,%function
__acle_se_Get_BPM:
Get_BPM:
.Lfunc_begin3:
	.loc	3 55 0 is_stmt 1                @ nsc.c:55:0
	.fnstart
	.cfi_startproc
@ %bb.0:
	.save	{r4, r5, r6, r7, lr}
	push	{r4, r5, r6, r7, lr}
	.cfi_def_cfa_offset 20
	.cfi_offset lr, -4
	.cfi_offset r7, -8
	.cfi_offset r6, -12
	.cfi_offset r5, -16
	.cfi_offset r4, -20
	.pad	#4
	sub	sp, #4
	.cfi_def_cfa_offset 24
.Ltmp7:
	.loc	3 59 8 prologue_end             @ nsc.c:59:8
	bl	MAX30102_ComputeBPM
	mov	r4, r0
.Ltmp8:
	@DEBUG_VALUE: Get_BPM:ret <- $r4
	.loc	3 61 7                          @ nsc.c:61:7
	ldr	r0, __arm_cp.3_0
	ldr	r1, [r0]
	adds	r1, r1, #1
	str	r1, [r0]
	.loc	3 63 6                          @ nsc.c:63:6
	cmp	r1, #60
	bne	.LBB3_2
.Ltmp9:
@ %bb.1:
	@DEBUG_VALUE: Get_BPM:ret <- $r4
	.loc	3 0 6 is_stmt 0                 @ nsc.c:0:6
	movs	r1, #0
.Ltmp10:
	.loc	3 65 9 is_stmt 1                @ nsc.c:65:9
	str	r1, [r0]
	.loc	3 66 15                         @ nsc.c:66:15
	ldr	r6, __arm_cp.3_1
	ldr	r0, [r6]
	.loc	3 66 13 is_stmt 0               @ nsc.c:66:13
	ldr	r5, __arm_cp.3_2
	str	r0, [r5]
	.loc	3 68 3 is_stmt 1                @ nsc.c:68:3
	ldr	r7, __arm_cp.3_3
	ldr	r1, [r7]
	ldr	r0, __arm_cp.3_4
	push	{r4, r5, r6, r7}
	mov	r7, r11
	mov	r6, r10
	mov	r5, r9
	mov	r4, r8
.Ltmp11:
	push	{r4, r5, r6, r7}
	mov	r2, #1
	bics	r1, r2
	mov	r2, r1
	mov	r3, r1
	mov	r4, r1
	mov	r5, r1
	mov	r6, r1
	mov	r7, r1
	mov	r8, r1
	mov	r9, r1
	mov	r10, r1
	mov	r11, r1
	mov	r12, r1
	msr	apsr, r1
	blxns	r1
	pop	{r4, r5, r6, r7}
	mov	r8, r4
	mov	r9, r5
	mov	r10, r6
	mov	r11, r7
	pop	{r4, r5, r6, r7}
	.loc	3 69 23                         @ nsc.c:69:23
	ldr	r0, __arm_cp.3_5
	ldr	r0, [r0]
	.loc	3 69 3 is_stmt 0                @ nsc.c:69:3
	ldr	r1, [r7]
	push	{r4, r5, r6, r7}
	mov	r7, r11
	mov	r6, r10
	mov	r5, r9
	mov	r4, r8
	push	{r4, r5, r6, r7}
	mov	r2, #1
	bics	r1, r2
	mov	r2, r1
	mov	r3, r1
	mov	r4, r1
	mov	r5, r1
	mov	r6, r1
	mov	r7, r1
	mov	r8, r1
	mov	r9, r1
	mov	r10, r1
	mov	r11, r1
	mov	r12, r1
	msr	apsr, r1
	blxns	r1
	pop	{r4, r5, r6, r7}
	mov	r8, r4
	mov	r9, r5
	mov	r10, r6
	mov	r11, r7
	pop	{r4, r5, r6, r7}
	.loc	3 70 13 is_stmt 1               @ nsc.c:70:13
	ldr	r0, [r6]
	.loc	3 70 11 is_stmt 0               @ nsc.c:70:11
	ldr	r1, __arm_cp.3_6
	str	r0, [r1]
	.loc	3 72 30 is_stmt 1               @ nsc.c:72:30
	ldr	r1, [r5]
	.loc	3 72 28 is_stmt 0               @ nsc.c:72:28
	subs	r0, r0, r1
	b	.LBB3_3
.Ltmp12:
.LBB3_2:
	@DEBUG_VALUE: Get_BPM:ret <- $r4
	.loc	3 0 28                          @ nsc.c:0:28
	movs	r0, #0
.Ltmp13:
.LBB3_3:
	ldr	r1, __arm_cp.3_7
	str	r0, [r1]
.Ltmp14:
	.loc	3 78 6 is_stmt 1                @ nsc.c:78:6
	cbz	r4, .LBB3_5
@ %bb.4:
	.loc	3 0 6 is_stmt 0                 @ nsc.c:0:6
	ldr	r0, __arm_cp.3_5
	ldr	r4, [r0]
.LBB3_5:
	.loc	3 82 1 is_stmt 1                @ nsc.c:82:1
	mov	r0, r4
	add	sp, #4
	pop	{r4, r5, r6, r7}
	pop	{r1}
	mov	lr, r1
	mov	r1, lr
	mov	r2, lr
	mov	r3, lr
	mov	r12, lr
	msr	apsr, lr
	bxns	lr
.Ltmp15:
	.p2align	2
@ %bb.6:
	.loc	3 0 1 is_stmt 0                 @ nsc.c:0:1
__arm_cp.3_0:
	.long	Get_BPM.ticks
.Lcpi_end3:
	.size	__arm_cp.3_0, .Lcpi_end3-__arm_cp.3_0
__arm_cp.3_1:
	.long	millis_counter
.Lcpi_end4:
	.size	__arm_cp.3_1, .Lcpi_end4-__arm_cp.3_1
__arm_cp.3_2:
	.long	startTime
.Lcpi_end5:
	.size	__arm_cp.3_2, .Lcpi_end5-__arm_cp.3_2
__arm_cp.3_3:
	.long	pfNonSecure_OLED_On
.Lcpi_end6:
	.size	__arm_cp.3_3, .Lcpi_end6-__arm_cp.3_3
__arm_cp.3_4:
	.long	9999                            @ 0x270f
.Lcpi_end7:
	.size	__arm_cp.3_4, .Lcpi_end7-__arm_cp.3_4
__arm_cp.3_5:
	.long	beatAvg
.Lcpi_end8:
	.size	__arm_cp.3_5, .Lcpi_end8-__arm_cp.3_5
__arm_cp.3_6:
	.long	endTime
.Lcpi_end9:
	.size	__arm_cp.3_6, .Lcpi_end9-__arm_cp.3_6
__arm_cp.3_7:
	.long	OLED_printTime
.Lcpi_end10:
	.size	__arm_cp.3_7, .Lcpi_end10-__arm_cp.3_7
.Lfunc_end3:
	.size	Get_BPM, .Lfunc_end3-Get_BPM
	.cfi_endproc
	.cantunwind
	.fnend
                                        @ -- End function
	.section	.text.Get_EncryptedDigitallySignedData,"ax",%progbits
	.hidden	Get_EncryptedDigitallySignedData @ -- Begin function Get_EncryptedDigitallySignedData
	.globl	Get_EncryptedDigitallySignedData
	.p2align	2
	.type	Get_EncryptedDigitallySignedData,%function
	.code	16                              @ @Get_EncryptedDigitallySignedData
	.thumb_func
	.globl	__acle_se_Get_EncryptedDigitallySignedData
	.type	__acle_se_Get_EncryptedDigitallySignedData,%function
__acle_se_Get_EncryptedDigitallySignedData:
Get_EncryptedDigitallySignedData:
.Lfunc_begin4:
	.loc	3 86 0 is_stmt 1                @ nsc.c:86:0
	.fnstart
	.cfi_startproc
@ %bb.0:
	@DEBUG_VALUE: Get_EncryptedDigitallySignedData:dsd <- $r0
	.save	{r4, r5, r6, r7, lr}
	push	{r4, r5, r6, r7, lr}
	.cfi_def_cfa_offset 20
	.cfi_offset lr, -4
	.cfi_offset r7, -8
	.cfi_offset r6, -12
	.cfi_offset r5, -16
	.cfi_offset r4, -20
	.pad	#20
	sub	sp, #20
	.cfi_def_cfa_offset 40
	mov	r4, r0
	ldr	r0, __arm_cp.4_0
.Ltmp16:
	@DEBUG_VALUE: Get_EncryptedDigitallySignedData:dsd <- [DW_OP_LLVM_entry_value 1] $r0
	@DEBUG_VALUE: Get_EncryptedDigitallySignedData:dsd <- $r4
	.loc	3 89 38 prologue_end            @ nsc.c:89:38
	str	r0, [sp, #16]
	str	r0, [sp, #12]
	str	r0, [sp, #8]
	str	r0, [sp, #4]
	.loc	3 95 8                          @ nsc.c:95:8
	bl	MAX30102_ComputeBPM
.Ltmp17:
	@DEBUG_VALUE: Get_EncryptedDigitallySignedData:ret <- undef
	.loc	3 97 7                          @ nsc.c:97:7
	ldr	r0, __arm_cp.4_1
	ldr	r1, [r0]
	adds	r1, r1, #1
	str	r1, [r0]
	.loc	3 99 6                          @ nsc.c:99:6
	cmp	r1, #60
	bhs	.LBB4_1
	b	.LBB4_2
.Ltmp18:
.LBB4_1:
	@DEBUG_VALUE: Get_EncryptedDigitallySignedData:dsd <- $r4
	.loc	3 0 6 is_stmt 0                 @ nsc.c:0:6
	movs	r1, #0
.Ltmp19:
	.loc	3 101 9 is_stmt 1               @ nsc.c:101:9
	str	r1, [r0]
	.loc	3 102 15                        @ nsc.c:102:15
	ldr	r5, __arm_cp.4_3
	ldr	r0, [r5]
	.loc	3 102 13 is_stmt 0              @ nsc.c:102:13
	ldr	r1, __arm_cp.4_4
	str	r0, [r1]
	.loc	3 105 3 is_stmt 1               @ nsc.c:105:3
	ldr	r7, __arm_cp.4_5
	ldr	r1, [r7]
	ldr	r0, __arm_cp.4_6
	push	{r4, r5, r6, r7}
	mov	r7, r11
	mov	r6, r10
	mov	r5, r9
	mov	r4, r8
.Ltmp20:
	push	{r4, r5, r6, r7}
	mov	r2, #1
	bics	r1, r2
	mov	r2, r1
	mov	r3, r1
	mov	r4, r1
	mov	r5, r1
	mov	r6, r1
	mov	r7, r1
	mov	r8, r1
	mov	r9, r1
	mov	r10, r1
	mov	r11, r1
	mov	r12, r1
	msr	apsr, r1
	blxns	r1
	pop	{r4, r5, r6, r7}
	mov	r8, r4
	mov	r9, r5
	mov	r10, r6
	mov	r11, r7
	pop	{r4, r5, r6, r7}
	.loc	3 106 23                        @ nsc.c:106:23
	ldr	r6, __arm_cp.4_7
	ldr	r0, [r6]
	.loc	3 106 3 is_stmt 0               @ nsc.c:106:3
	ldr	r1, [r7]
	push	{r4, r5, r6, r7}
	mov	r7, r11
	mov	r6, r10
	mov	r5, r9
	mov	r4, r8
	push	{r4, r5, r6, r7}
	mov	r2, #1
	bics	r1, r2
	mov	r2, r1
	mov	r3, r1
	mov	r4, r1
	mov	r5, r1
	mov	r6, r1
	mov	r7, r1
	mov	r8, r1
	mov	r9, r1
	mov	r10, r1
	mov	r11, r1
	mov	r12, r1
	msr	apsr, r1
	blxns	r1
	pop	{r4, r5, r6, r7}
	mov	r8, r4
	mov	r9, r5
	mov	r10, r6
	mov	r11, r7
	pop	{r4, r5, r6, r7}
	.loc	3 107 13 is_stmt 1              @ nsc.c:107:13
	ldr	r0, [r5]
	.loc	3 107 11 is_stmt 0              @ nsc.c:107:11
	ldr	r1, __arm_cp.4_8
	str	r0, [r1]
	.loc	3 113 3 is_stmt 1               @ nsc.c:113:3
	ldrb	r1, [r6]
	add	r5, sp, #4
	strb	r1, [r5]
	.loc	3 109 30                        @ nsc.c:109:30
	ldr	r1, __arm_cp.4_4
	ldr	r1, [r1]
	.loc	3 109 28 is_stmt 0              @ nsc.c:109:28
	subs	r0, r0, r1
	.loc	3 109 18                        @ nsc.c:109:18
	ldr	r1, __arm_cp.4_2
	str	r0, [r1]
	.loc	3 117 3 is_stmt 1               @ nsc.c:117:3
	ldr	r1, __arm_cp.4_9
	ldr	r7, __arm_cp.4_10
	ldr	r3, __arm_cp.4_11
	mov	r0, r5
	mov	r2, r7
	bl	M2351_ECDSA_GenerateSignature
	movs	r2, #16
	.loc	3 119 3                         @ nsc.c:119:3
	mov	r0, r5
	mov	r1, r4
	bl	Encrypt_data
	.loc	3 120 47                        @ nsc.c:120:47
	mov	r1, r4
	adds	r1, #17
	.loc	3 120 3 is_stmt 0               @ nsc.c:120:3
	ldr	r0, __arm_cp.4_12
	movs	r6, #24
	mov	r2, r6
	bl	Encrypt_data
	.loc	3 121 47 is_stmt 1              @ nsc.c:121:47
	mov	r1, r4
	adds	r1, #42
	.loc	3 121 3 is_stmt 0               @ nsc.c:121:3
	ldr	r0, __arm_cp.4_13
	mov	r2, r6
	bl	Encrypt_data
	.loc	3 122 41 is_stmt 1              @ nsc.c:122:41
	mov	r1, r4
	adds	r1, #67
	.loc	3 122 3 is_stmt 0               @ nsc.c:122:3
	mov	r0, r7
	mov	r2, r6
	bl	Encrypt_data
	.loc	3 123 41 is_stmt 1              @ nsc.c:123:41
	mov	r1, r4
	adds	r1, #92
	.loc	3 123 3 is_stmt 0               @ nsc.c:123:3
	ldr	r0, __arm_cp.4_11
	mov	r2, r6
	bl	Encrypt_data
	.loc	3 125 3 is_stmt 1               @ nsc.c:125:3
	adr	r0, .LCPI4_14
	bl	puts
	.loc	3 126 3                         @ nsc.c:126:3
	mov	r0, r5
	bl	printBlock
	.loc	3 127 3                         @ nsc.c:127:3
	adr	r0, .LCPI4_15
	bl	puts
	.loc	3 128 3                         @ nsc.c:128:3
	mov	r0, r4
	bl	printBlock
	b	.LBB4_3
.Ltmp21:
.LBB4_2:
	@DEBUG_VALUE: Get_EncryptedDigitallySignedData:dsd <- $r4
	.loc	3 131 18                        @ nsc.c:131:18
	ldr	r0, __arm_cp.4_2
	movs	r1, #0
	str	r1, [r0]
.Ltmp22:
.LBB4_3:
	.loc	3 133 6                         @ nsc.c:133:6
	ldr	r0, __arm_cp.4_7
	ldr	r0, [r0]
	.loc	3 133 14 is_stmt 0              @ nsc.c:133:14
	subs	r1, r0, #1
	sbcs	r0, r1
.Ltmp23:
	.loc	3 137 1 is_stmt 1               @ nsc.c:137:1
	add	sp, #20
	pop	{r4, r5, r6, r7}
	pop	{r1}
	mov	lr, r1
	mov	r1, lr
	mov	r2, lr
	mov	r3, lr
	mov	r12, lr
	msr	apsr, lr
	bxns	lr
.Ltmp24:
	.p2align	2
@ %bb.4:
	.loc	3 0 1 is_stmt 0                 @ nsc.c:0:1
__arm_cp.4_0:
	.long	808464432                       @ 0x30303030
.Lcpi_end11:
	.size	__arm_cp.4_0, .Lcpi_end11-__arm_cp.4_0
__arm_cp.4_1:
	.long	Get_EncryptedDigitallySignedData.ticks
.Lcpi_end12:
	.size	__arm_cp.4_1, .Lcpi_end12-__arm_cp.4_1
__arm_cp.4_2:
	.long	OLED_printTime
.Lcpi_end13:
	.size	__arm_cp.4_2, .Lcpi_end13-__arm_cp.4_2
__arm_cp.4_3:
	.long	millis_counter
.Lcpi_end14:
	.size	__arm_cp.4_3, .Lcpi_end14-__arm_cp.4_3
__arm_cp.4_4:
	.long	startTime
.Lcpi_end15:
	.size	__arm_cp.4_4, .Lcpi_end15-__arm_cp.4_4
__arm_cp.4_5:
	.long	pfNonSecure_OLED_On
.Lcpi_end16:
	.size	__arm_cp.4_5, .Lcpi_end16-__arm_cp.4_5
__arm_cp.4_6:
	.long	9999                            @ 0x270f
.Lcpi_end17:
	.size	__arm_cp.4_6, .Lcpi_end17-__arm_cp.4_6
__arm_cp.4_7:
	.long	beatAvg
.Lcpi_end18:
	.size	__arm_cp.4_7, .Lcpi_end18-__arm_cp.4_7
__arm_cp.4_8:
	.long	endTime
.Lcpi_end19:
	.size	__arm_cp.4_8, .Lcpi_end19-__arm_cp.4_8
__arm_cp.4_9:
	.long	priKey
.Lcpi_end20:
	.size	__arm_cp.4_9, .Lcpi_end20-__arm_cp.4_9
__arm_cp.4_10:
	.long	R
.Lcpi_end21:
	.size	__arm_cp.4_10, .Lcpi_end21-__arm_cp.4_10
__arm_cp.4_11:
	.long	S
.Lcpi_end22:
	.size	__arm_cp.4_11, .Lcpi_end22-__arm_cp.4_11
__arm_cp.4_12:
	.long	pubKey1
.Lcpi_end23:
	.size	__arm_cp.4_12, .Lcpi_end23-__arm_cp.4_12
__arm_cp.4_13:
	.long	pubKey2
.Lcpi_end24:
	.size	__arm_cp.4_13, .Lcpi_end24-__arm_cp.4_13
.LCPI4_14:
.Lstr:
	.asciz	"\nplainBPM\000\000"
.LCPI4_15:
.Lstr.18:
	.asciz	"\nencryptedBPM\000\000"
.Lfunc_end4:
	.size	Get_EncryptedDigitallySignedData, .Lfunc_end4-Get_EncryptedDigitallySignedData
	.cfi_endproc
	.cantunwind
	.fnend
                                        @ -- End function
	.section	.text.Encrypt_data,"ax",%progbits
	.hidden	Encrypt_data                    @ -- Begin function Encrypt_data
	.globl	Encrypt_data
	.p2align	2
	.type	Encrypt_data,%function
	.code	16                              @ @Encrypt_data
	.thumb_func
	.globl	__acle_se_Encrypt_data
	.type	__acle_se_Encrypt_data,%function
__acle_se_Encrypt_data:
Encrypt_data:
.Lfunc_begin5:
	.loc	3 147 0 is_stmt 1               @ nsc.c:147:0
	.fnstart
	.cfi_startproc
@ %bb.0:
	@DEBUG_VALUE: Encrypt_data:plainData <- $r0
	@DEBUG_VALUE: Encrypt_data:encryptedData <- $r1
	@DEBUG_VALUE: Encrypt_data:bytes <- $r2
	.save	{r4, r5, r6, r7, lr}
	push	{r4, r5, r6, r7, lr}
	.cfi_def_cfa_offset 20
	.cfi_offset lr, -4
	.cfi_offset r7, -8
	.cfi_offset r6, -12
	.cfi_offset r5, -16
	.cfi_offset r4, -20
	.pad	#4
	sub	sp, #4
	.cfi_def_cfa_offset 24
	mov	r5, r2
	mov	r4, r1
	mov	r6, r0
.Ltmp25:
	@DEBUG_VALUE: Encrypt_data:bytes <- $r5
	@DEBUG_VALUE: Encrypt_data:encryptedData <- $r4
	@DEBUG_VALUE: Encrypt_data:plainData <- $r6
	.loc	3 149 15 prologue_end           @ nsc.c:149:15
	adr	r0, .LCPI5_0
	bl	puts
	movs	r7, #0
	movs	r1, #1
.Ltmp26:
	.loc	3 151 5                         @ nsc.c:151:5
	mov	r0, r7
	bl	M2351_Crypto_Init
	.loc	3 152 5                         @ nsc.c:152:5
	mov	r0, r7
	bl	M2351_Crypto_UseSessionKey
	.loc	3 153 5                         @ nsc.c:153:5
	mov	r0, r7
	mov	r1, r6
.Ltmp27:
	@DEBUG_VALUE: Encrypt_data:plainData <- $r1
	mov	r2, r4
	mov	r3, r5
.Ltmp28:
	@DEBUG_VALUE: Encrypt_data:bytes <- $r3
	bl	M2351_Encrypt_Data
.Ltmp29:
	.loc	3 159 5                         @ nsc.c:159:5
	mov	r0, r4
	add	sp, #4
	pop	{r4, r5, r6, r7}
.Ltmp30:
	pop	{r1}
	mov	lr, r1
	mov	r1, lr
	mov	r2, lr
	mov	r3, lr
	mov	r12, lr
	msr	apsr, lr
	bxns	lr
.Ltmp31:
	.p2align	2
@ %bb.1:
	.loc	3 0 5 is_stmt 0                 @ nsc.c:0:5
.LCPI5_0:
.Lstr.19:
	.asciz	"\n|     Secure is running ... Encrypt_data      |\000\000\000"
.Lfunc_end5:
	.size	Encrypt_data, .Lfunc_end5-Encrypt_data
	.cfi_endproc
	.cantunwind
	.fnend
                                        @ -- End function
	.section	.text.printBlock,"ax",%progbits
	.hidden	printBlock                      @ -- Begin function printBlock
	.globl	printBlock
	.p2align	2
	.type	printBlock,%function
	.code	16                              @ @printBlock
	.thumb_func
	.globl	__acle_se_printBlock
	.type	__acle_se_printBlock,%function
__acle_se_printBlock:
printBlock:
.Lfunc_begin6:
	.loc	3 223 0 is_stmt 1               @ nsc.c:223:0
	.fnstart
	.cfi_startproc
@ %bb.0:
	@DEBUG_VALUE: printBlock:block <- $r0
	.save	{r4, r5, r6, r7, lr}
	push	{r4, r5, r6, r7, lr}
	.cfi_def_cfa_offset 20
	.cfi_offset lr, -4
	.cfi_offset r7, -8
	.cfi_offset r6, -12
	.cfi_offset r5, -16
	.cfi_offset r4, -20
	.pad	#12
	sub	sp, #12
	.cfi_def_cfa_offset 32
	mov	r4, r0
	movs	r7, #0
	movs	r0, #124
.Ltmp32:
	@DEBUG_VALUE: printBlock:block <- [DW_OP_LLVM_entry_value 1] $r0
	str	r0, [sp, #4]                    @ 4-byte Spill
	adr	r6, .LCPI6_0
	str	r7, [sp, #8]                    @ 4-byte Spill
	@DEBUG_VALUE: i <- 0
.Ltmp33:
	@DEBUG_VALUE: printBlock:block <- $r4
.LBB6_1:                                @ =>This Loop Header: Depth=1
                                        @     Child Loop BB6_2 Depth 2
	@DEBUG_VALUE: printBlock:block <- $r4
	@DEBUG_VALUE: i <- $r7
	.loc	3 228 9 prologue_end            @ nsc.c:228:9
	ldr	r0, [sp, #4]                    @ 4-byte Reload
	bl	putchar
	ldr	r5, [sp, #8]                    @ 4-byte Reload
	@DEBUG_VALUE: j <- 0
.Ltmp34:
.LBB6_2:                                @   Parent Loop BB6_1 Depth=1
                                        @ =>  This Inner Loop Header: Depth=2
	@DEBUG_VALUE: i <- $r7
	@DEBUG_VALUE: printBlock:block <- $r4
	.loc	3 231 35                        @ nsc.c:231:35
	adds	r0, r5, r7
	.loc	3 231 28 is_stmt 0              @ nsc.c:231:28
	ldrb	r1, [r4, r0]
	.loc	3 231 13                        @ nsc.c:231:13
	mov	r0, r6
	bl	__2printf
.Ltmp35:
	.loc	3 229 42 is_stmt 1              @ nsc.c:229:42
	adds	r0, r5, #4
.Ltmp36:
	@DEBUG_VALUE: j <- [DW_OP_LLVM_convert 32 7, DW_OP_LLVM_convert 8 7, DW_OP_stack_value] $r0
	.loc	3 229 29 is_stmt 0              @ nsc.c:229:29
	uxtb	r5, r0
.Ltmp37:
	@DEBUG_VALUE: j <- undef
	.loc	3 229 9                         @ nsc.c:229:9
	cmp	r5, #16
	blo	.LBB6_2
.Ltmp38:
@ %bb.3:                                @   in Loop: Header=BB6_1 Depth=1
	@DEBUG_VALUE: i <- $r7
	@DEBUG_VALUE: printBlock:block <- $r4
	.loc	3 234 9 is_stmt 1               @ nsc.c:234:9
	adr	r0, .LCPI6_1
	bl	puts
.Ltmp39:
	.loc	3 227 33                        @ nsc.c:227:33
	adds	r7, r7, #1
.Ltmp40:
	@DEBUG_VALUE: i <- $r7
	.loc	3 227 5 is_stmt 0               @ nsc.c:227:5
	cmp	r7, #4
	bne	.LBB6_1
.Ltmp41:
@ %bb.4:
	@DEBUG_VALUE: printBlock:block <- $r4
	.loc	3 0 5                           @ nsc.c:0:5
	movs	r0, #10
	.loc	3 236 5 is_stmt 1               @ nsc.c:236:5
	bl	putchar
	movs	r0, #1
	.loc	3 238 3                         @ nsc.c:238:3
	add	sp, #12
	pop	{r4, r5, r6, r7}
.Ltmp42:
	pop	{r1}
	mov	lr, r1
	mov	r1, lr
	mov	r2, lr
	mov	r3, lr
	mov	r12, lr
	msr	apsr, lr
	bxns	lr
.Ltmp43:
	.p2align	2
@ %bb.5:
	.loc	3 0 3 is_stmt 0                 @ nsc.c:0:3
.LCPI6_0:
.L.str.10:
	.asciz	" %02x\000\000"
.LCPI6_1:
.Lstr.20:
	.asciz	" |\000"
.Lfunc_end6:
	.size	printBlock, .Lfunc_end6-printBlock
	.cfi_endproc
	.cantunwind
	.fnend
                                        @ -- End function
	.section	.text.Decrypt_data,"ax",%progbits
	.hidden	Decrypt_data                    @ -- Begin function Decrypt_data
	.globl	Decrypt_data
	.p2align	2
	.type	Decrypt_data,%function
	.code	16                              @ @Decrypt_data
	.thumb_func
	.globl	__acle_se_Decrypt_data
	.type	__acle_se_Decrypt_data,%function
__acle_se_Decrypt_data:
Decrypt_data:
.Lfunc_begin7:
	.loc	3 163 0 is_stmt 1               @ nsc.c:163:0
	.fnstart
	.cfi_startproc
@ %bb.0:
	@DEBUG_VALUE: Decrypt_data:encryptedData <- $r0
	@DEBUG_VALUE: Decrypt_data:resultData <- $r1
	@DEBUG_VALUE: Decrypt_data:bytes <- $r2
	.save	{r4, r5, r6, r7, lr}
	push	{r4, r5, r6, r7, lr}
	.cfi_def_cfa_offset 20
	.cfi_offset lr, -4
	.cfi_offset r7, -8
	.cfi_offset r6, -12
	.cfi_offset r5, -16
	.cfi_offset r4, -20
	.pad	#4
	sub	sp, #4
	.cfi_def_cfa_offset 24
	mov	r5, r2
	mov	r4, r1
	mov	r6, r0
.Ltmp44:
	@DEBUG_VALUE: Decrypt_data:bytes <- $r5
	@DEBUG_VALUE: Decrypt_data:resultData <- $r4
	@DEBUG_VALUE: Decrypt_data:encryptedData <- $r6
	.loc	3 165 15 prologue_end           @ nsc.c:165:15
	adr	r0, .LCPI7_0
	bl	puts
	movs	r7, #0
.Ltmp45:
	.loc	3 167 5                         @ nsc.c:167:5
	mov	r0, r7
	mov	r1, r7
	bl	M2351_Crypto_Init
	.loc	3 168 5                         @ nsc.c:168:5
	mov	r0, r7
	bl	M2351_Crypto_UseSessionKey
	.loc	3 169 5                         @ nsc.c:169:5
	mov	r0, r7
	mov	r1, r6
.Ltmp46:
	@DEBUG_VALUE: Decrypt_data:encryptedData <- $r1
	mov	r2, r4
	mov	r3, r5
.Ltmp47:
	@DEBUG_VALUE: Decrypt_data:bytes <- $r3
	bl	M2351_Decrypt_Data
.Ltmp48:
	.loc	3 176 5                         @ nsc.c:176:5
	mov	r0, r4
	add	sp, #4
	pop	{r4, r5, r6, r7}
.Ltmp49:
	pop	{r1}
	mov	lr, r1
	mov	r1, lr
	mov	r2, lr
	mov	r3, lr
	mov	r12, lr
	msr	apsr, lr
	bxns	lr
.Ltmp50:
	.p2align	2
@ %bb.1:
	.loc	3 0 5 is_stmt 0                 @ nsc.c:0:5
.LCPI7_0:
.Lstr.21:
	.asciz	"\n|     Secure is running ... Decrypt_data      |\000\000\000"
.Lfunc_end7:
	.size	Decrypt_data, .Lfunc_end7-Decrypt_data
	.cfi_endproc
	.cantunwind
	.fnend
                                        @ -- End function
	.section	.text.M2351_LoadKey,"ax",%progbits
	.hidden	M2351_LoadKey                   @ -- Begin function M2351_LoadKey
	.globl	M2351_LoadKey
	.p2align	2
	.type	M2351_LoadKey,%function
	.code	16                              @ @M2351_LoadKey
	.thumb_func
	.globl	__acle_se_M2351_LoadKey
	.type	__acle_se_M2351_LoadKey,%function
__acle_se_M2351_LoadKey:
M2351_LoadKey:
.Lfunc_begin8:
	.loc	3 182 0 is_stmt 1               @ nsc.c:182:0
	.fnstart
	.cfi_startproc
@ %bb.0:
	.save	{r4, r5, r6, lr}
	push	{r4, r5, r6, lr}
	.cfi_def_cfa_offset 16
	.cfi_offset lr, -4
	.cfi_offset r6, -8
	.cfi_offset r5, -12
	.cfi_offset r4, -16
	.pad	#8
	sub	sp, #8
	.cfi_def_cfa_offset 24
.Ltmp51:
	.loc	3 185 6 prologue_end            @ nsc.c:185:6
	ldr	r0, __arm_cp.8_0
	ldrb	r1, [r0]
.Ltmp52:
	.loc	3 185 6 is_stmt 0               @ nsc.c:185:6
	cbnz	r1, .LBB8_2
@ %bb.1:
	.loc	3 0 6                           @ nsc.c:0:6
	movs	r1, #1
	.loc	3 188 9 is_stmt 1               @ nsc.c:188:9
	strb	r1, [r0]
	.loc	3 190 3                         @ nsc.c:190:3
	ldr	r0, __arm_cp.8_1
	bl	puts
	.loc	3 191 3                         @ nsc.c:191:3
	ldr	r0, __arm_cp.8_2
	bl	puts
	.loc	3 192 3                         @ nsc.c:192:3
	adr	r0, .LCPI8_3
	bl	puts
	movs	r0, #0
	movs	r1, #3
	.loc	3 194 2                         @ nsc.c:194:2
	ldr	r5, __arm_cp.8_4
	mov	r2, r5
	bl	M2351_FMC_Read_Key
	.loc	3 195 35                        @ nsc.c:195:35
	mov	r0, r5
	bl	strlen
	.loc	3 195 50 is_stmt 0              @ nsc.c:195:50
	lsls	r1, r0, #2
	.loc	3 195 2                         @ nsc.c:195:2
	adr	r0, .LCPI8_5
	mov	r2, r5
	bl	__2printf
	.loc	3 197 2 is_stmt 1               @ nsc.c:197:2
	ldr	r4, __arm_cp.8_6
	ldr	r6, __arm_cp.8_7
	mov	r0, r5
	mov	r1, r4
	mov	r2, r6
	bl	M2351_ECC_GenerateKey
	.loc	3 198 59                        @ nsc.c:198:59
	mov	r0, r4
	bl	strlen
	mov	r5, r0
	.loc	3 198 89 is_stmt 0              @ nsc.c:198:89
	mov	r0, r6
	bl	strlen
	.loc	3 198 2                         @ nsc.c:198:2
	str	r6, [sp]
	.loc	3 198 75                        @ nsc.c:198:75
	lsls	r1, r5, #2
	.loc	3 198 105                       @ nsc.c:198:105
	lsls	r3, r0, #2
	.loc	3 198 2                         @ nsc.c:198:2
	adr	r0, .LCPI8_8
	mov	r2, r4
	bl	__2printf
.LBB8_2:
	.loc	3 201 1 is_stmt 1               @ nsc.c:201:1
	add	sp, #8
	pop	{r4, r5, r6}
	pop	{r0}
	mov	lr, r0
	mov	r0, lr
	mov	r1, lr
	mov	r2, lr
	mov	r3, lr
	mov	r12, lr
	msr	apsr, lr
	bxns	lr
.Ltmp53:
	.p2align	2
@ %bb.3:
	.loc	3 0 1 is_stmt 0                 @ nsc.c:0:1
__arm_cp.8_0:
	.long	M2351_LoadKey.called
.Lcpi_end25:
	.size	__arm_cp.8_0, .Lcpi_end25-__arm_cp.8_0
__arm_cp.8_1:
	.long	.Lstr.22
.Lcpi_end26:
	.size	__arm_cp.8_1, .Lcpi_end26-__arm_cp.8_1
__arm_cp.8_2:
	.long	.Lstr.23
.Lcpi_end27:
	.size	__arm_cp.8_2, .Lcpi_end27-__arm_cp.8_2
.LCPI8_3:
.Lstr.24:
	.asciz	"+---------------------------------------------+"
__arm_cp.8_4:
	.long	priKey
.Lcpi_end28:
	.size	__arm_cp.8_4, .Lcpi_end28-__arm_cp.8_4
.LCPI8_5:
.L.str.6:
	.asciz	"prikey(%d-bits) : %s\n\000\000"
__arm_cp.8_6:
	.long	pubKey1
.Lcpi_end29:
	.size	__arm_cp.8_6, .Lcpi_end29-__arm_cp.8_6
__arm_cp.8_7:
	.long	pubKey2
.Lcpi_end30:
	.size	__arm_cp.8_7, .Lcpi_end30-__arm_cp.8_7
.LCPI8_8:
.L.str.7:
	.asciz	"pubKey1(%d-bits) : %s\npubKey2(%d-bits) : %s\n\000\000\000"
.Lfunc_end8:
	.size	M2351_LoadKey, .Lfunc_end8-M2351_LoadKey
	.cfi_endproc
	.cantunwind
	.fnend
                                        @ -- End function
	.section	.text.M2351_DeleteKey,"ax",%progbits
	.hidden	M2351_DeleteKey                 @ -- Begin function M2351_DeleteKey
	.globl	M2351_DeleteKey
	.p2align	2
	.type	M2351_DeleteKey,%function
	.code	16                              @ @M2351_DeleteKey
	.thumb_func
	.globl	__acle_se_M2351_DeleteKey
	.type	__acle_se_M2351_DeleteKey,%function
__acle_se_M2351_DeleteKey:
M2351_DeleteKey:
.Lfunc_begin9:
	.loc	3 205 0 is_stmt 1               @ nsc.c:205:0
	.fnstart
	.cfi_startproc
@ %bb.0:
	.save	{r4, lr}
	push	{r4, lr}
	.cfi_def_cfa_offset 8
	.cfi_offset lr, -4
	.cfi_offset r4, -8
.Ltmp54:
	.loc	3 206 2 prologue_end            @ nsc.c:206:2
	ldr	r0, __arm_cp.9_0
	movs	r4, #49
	mov	r1, r4
	bl	__aeabi_memclr
	.loc	3 207 2                         @ nsc.c:207:2
	ldr	r0, __arm_cp.9_1
	mov	r1, r4
	bl	__aeabi_memclr
	.loc	3 208 2                         @ nsc.c:208:2
	ldr	r0, __arm_cp.9_2
	mov	r1, r4
	bl	__aeabi_memclr
	.loc	3 209 2                         @ nsc.c:209:2
	ldr	r0, __arm_cp.9_3
	mov	r1, r4
	bl	__aeabi_memclr
	.loc	3 210 2                         @ nsc.c:210:2
	ldr	r0, __arm_cp.9_4
	mov	r1, r4
	bl	__aeabi_memclr
	.loc	3 213 2                         @ nsc.c:213:2
	adr	r0, .LCPI9_5
	bl	puts
	.loc	3 214 1                         @ nsc.c:214:1
	pop	{r4}
	pop	{r0}
	mov	lr, r0
	mov	r0, lr
	mov	r1, lr
	mov	r2, lr
	mov	r3, lr
	mov	r12, lr
	msr	apsr, lr
	bxns	lr
.Ltmp55:
	.p2align	2
@ %bb.1:
	.loc	3 0 1 is_stmt 0                 @ nsc.c:0:1
__arm_cp.9_0:
	.long	priKey
.Lcpi_end31:
	.size	__arm_cp.9_0, .Lcpi_end31-__arm_cp.9_0
__arm_cp.9_1:
	.long	pubKey1
.Lcpi_end32:
	.size	__arm_cp.9_1, .Lcpi_end32-__arm_cp.9_1
__arm_cp.9_2:
	.long	pubKey2
.Lcpi_end33:
	.size	__arm_cp.9_2, .Lcpi_end33-__arm_cp.9_2
__arm_cp.9_3:
	.long	R
.Lcpi_end34:
	.size	__arm_cp.9_3, .Lcpi_end34-__arm_cp.9_3
__arm_cp.9_4:
	.long	S
.Lcpi_end35:
	.size	__arm_cp.9_4, .Lcpi_end35-__arm_cp.9_4
.LCPI9_5:
.Lstr.25:
	.asciz	"\nDelete Key & Signature OK."
.Lfunc_end9:
	.size	M2351_DeleteKey, .Lfunc_end9-M2351_DeleteKey
	.cfi_endproc
	.cantunwind
	.fnend
                                        @ -- End function
	.section	.text.printSecure,"ax",%progbits
	.hidden	printSecure                     @ -- Begin function printSecure
	.globl	printSecure
	.p2align	1
	.type	printSecure,%function
	.code	16                              @ @printSecure
	.thumb_func
	.globl	__acle_se_printSecure
	.type	__acle_se_printSecure,%function
__acle_se_printSecure:
printSecure:
.Lfunc_begin10:
	.loc	3 242 0 is_stmt 1               @ nsc.c:242:0
	.fnstart
	.cfi_startproc
@ %bb.0:
	@DEBUG_VALUE: printSecure:string <- $r0
	@DEBUG_VALUE: printSecure:ptr <- $r1
	@DEBUG_VALUE: printSecure:val <- $r2
	.save	{r4, r5, r6, lr}
	push	{r4, r5, r6, lr}
	.cfi_def_cfa_offset 16
	.cfi_offset lr, -4
	.cfi_offset r6, -8
	.cfi_offset r5, -12
	.cfi_offset r4, -16
	mov	r6, r2
	mov	r4, r1
	mov	r5, r0
.Ltmp56:
	@DEBUG_VALUE: printSecure:val <- $r6
	@DEBUG_VALUE: printSecure:ptr <- $r4
	@DEBUG_VALUE: printSecure:string <- $r5
	.loc	3 244 19 prologue_end           @ nsc.c:244:19
	cbnz	r1, .LBB10_3
.Ltmp57:
@ %bb.1:
	@DEBUG_VALUE: printSecure:val <- $r6
	@DEBUG_VALUE: printSecure:string <- $r5
	@DEBUG_VALUE: printSecure:ptr <- $r4
	cbnz	r6, .LBB10_3
.Ltmp58:
@ %bb.2:
	@DEBUG_VALUE: printSecure:val <- $r6
	@DEBUG_VALUE: printSecure:string <- $r5
	@DEBUG_VALUE: printSecure:ptr <- $r4
	.loc	3 244 35 is_stmt 0              @ nsc.c:244:35
	mov	r0, r5
	bl	puts
.Ltmp59:
.LBB10_3:
	@DEBUG_VALUE: printSecure:val <- $r6
	@DEBUG_VALUE: printSecure:string <- $r5
	@DEBUG_VALUE: printSecure:ptr <- $r4
	@DEBUG_VALUE: printSecure:val <- $r6
	.loc	3 245 19 is_stmt 1              @ nsc.c:245:19
	cbz	r6, .LBB10_6
.Ltmp60:
@ %bb.4:
	@DEBUG_VALUE: printSecure:val <- $r6
	@DEBUG_VALUE: printSecure:string <- $r5
	@DEBUG_VALUE: printSecure:ptr <- $r4
	@DEBUG_VALUE: printSecure:val <- $r6
	cbnz	r4, .LBB10_6
.Ltmp61:
@ %bb.5:
	@DEBUG_VALUE: printSecure:val <- $r6
	@DEBUG_VALUE: printSecure:string <- $r5
	@DEBUG_VALUE: printSecure:ptr <- $r4
	@DEBUG_VALUE: printSecure:val <- $r6
	.loc	3 245 35 is_stmt 0              @ nsc.c:245:35
	mov	r0, r5
	mov	r1, r6
	bl	__2printf
.Ltmp62:
.LBB10_6:
	@DEBUG_VALUE: printSecure:val <- $r6
	@DEBUG_VALUE: printSecure:string <- $r5
	@DEBUG_VALUE: printSecure:ptr <- $r4
	.loc	3 246 18 is_stmt 1              @ nsc.c:246:18
	cbz	r4, .LBB10_9
.Ltmp63:
@ %bb.7:
	@DEBUG_VALUE: printSecure:val <- $r6
	@DEBUG_VALUE: printSecure:string <- $r5
	@DEBUG_VALUE: printSecure:ptr <- $r4
	cbnz	r6, .LBB10_9
.Ltmp64:
@ %bb.8:
	@DEBUG_VALUE: printSecure:val <- $r6
	@DEBUG_VALUE: printSecure:string <- $r5
	@DEBUG_VALUE: printSecure:ptr <- $r4
	.loc	3 246 34 is_stmt 0              @ nsc.c:246:34
	mov	r0, r5
	mov	r1, r4
	bl	__2printf
.Ltmp65:
.LBB10_9:
	@DEBUG_VALUE: printSecure:val <- $r6
	@DEBUG_VALUE: printSecure:string <- $r5
	@DEBUG_VALUE: printSecure:ptr <- $r4
	.loc	3 0 34                          @ nsc.c:0:34
	movs	r0, #1
	.loc	3 248 2 is_stmt 1               @ nsc.c:248:2
	pop	{r4, r5, r6}
.Ltmp66:
	pop	{r1}
	mov	lr, r1
	mov	r1, lr
	mov	r2, lr
	mov	r3, lr
	mov	r12, lr
	msr	apsr, lr
	bxns	lr
.Ltmp67:
.Lfunc_end10:
	.size	printSecure, .Lfunc_end10-printSecure
	.cfi_endproc
	.cantunwind
	.fnend
                                        @ -- End function
	.section	.text.printDigitallySignedData,"ax",%progbits
	.hidden	printDigitallySignedData        @ -- Begin function printDigitallySignedData
	.globl	printDigitallySignedData
	.p2align	2
	.type	printDigitallySignedData,%function
	.code	16                              @ @printDigitallySignedData
	.thumb_func
	.globl	__acle_se_printDigitallySignedData
	.type	__acle_se_printDigitallySignedData,%function
__acle_se_printDigitallySignedData:
printDigitallySignedData:
.Lfunc_begin11:
	.loc	3 255 0                         @ nsc.c:255:0
	.fnstart
	.cfi_startproc
@ %bb.0:
	@DEBUG_VALUE: printDigitallySignedData:dsd <- $r0
	.save	{r4, r5, r6, lr}
	push	{r4, r5, r6, lr}
	.cfi_def_cfa_offset 16
	.cfi_offset lr, -4
	.cfi_offset r6, -8
	.cfi_offset r5, -12
	.cfi_offset r4, -16
	mov	r4, r0
.Ltmp68:
	@DEBUG_VALUE: printDigitallySignedData:dsd <- $r4
	.loc	3 258 2 prologue_end            @ nsc.c:258:2
	adr	r0, .LCPI11_0
	movs	r1, #128
	bl	__2printf
	movs	r6, #0
.Ltmp69:
	@DEBUG_VALUE: printDigitallySignedData:i <- 0
	.loc	3 0 2 is_stmt 0                 @ nsc.c:0:2
	ldr	r5, __arm_cp.11_1
.Ltmp70:
.LBB11_1:                               @ =>This Inner Loop Header: Depth=1
	@DEBUG_VALUE: printDigitallySignedData:dsd <- $r4
	@DEBUG_VALUE: printDigitallySignedData:i <- $r6
	.loc	3 260 21 is_stmt 1              @ nsc.c:260:21
	ldrb	r1, [r4, r6]
	.loc	3 260 6 is_stmt 0               @ nsc.c:260:6
	mov	r0, r5
	bl	__2printf
	.loc	3 259 19 is_stmt 1              @ nsc.c:259:19
	adds	r6, r6, #1
.Ltmp71:
	@DEBUG_VALUE: printDigitallySignedData:i <- $r6
	.loc	3 259 3 is_stmt 0               @ nsc.c:259:3
	cmp	r6, #16
	bne	.LBB11_1
.Ltmp72:
@ %bb.2:
	@DEBUG_VALUE: printDigitallySignedData:i <- $r6
	@DEBUG_VALUE: printDigitallySignedData:dsd <- $r4
	.loc	3 270 2 is_stmt 1               @ nsc.c:270:2
	adr	r0, .LCPI11_2
	movs	r1, #192
	bl	__2printf
	movs	r6, #67
.Ltmp73:
	@DEBUG_VALUE: printDigitallySignedData:i <- 0
	.loc	3 0 2 is_stmt 0                 @ nsc.c:0:2
	ldr	r5, __arm_cp.11_1
.Ltmp74:
.LBB11_3:                               @ =>This Inner Loop Header: Depth=1
	@DEBUG_VALUE: printDigitallySignedData:dsd <- $r4
	@DEBUG_VALUE: printDigitallySignedData:i <- undef
	.loc	3 272 21 is_stmt 1              @ nsc.c:272:21
	ldrb	r1, [r4, r6]
	.loc	3 272 6 is_stmt 0               @ nsc.c:272:6
	mov	r0, r5
	bl	__2printf
.Ltmp75:
	@DEBUG_VALUE: printDigitallySignedData:i <- [DW_OP_plus_uconst 1, DW_OP_stack_value] undef
	.loc	3 271 12 is_stmt 1              @ nsc.c:271:12
	adds	r6, r6, #1
.Ltmp76:
	.loc	3 271 2 is_stmt 0               @ nsc.c:271:2
	cmp	r6, #91
	bne	.LBB11_3
.Ltmp77:
@ %bb.4:
	@DEBUG_VALUE: printDigitallySignedData:dsd <- $r4
	.loc	3 274 2 is_stmt 1               @ nsc.c:274:2
	adr	r0, .LCPI11_3
	movs	r1, #192
	bl	__2printf
	movs	r6, #92
.Ltmp78:
	@DEBUG_VALUE: printDigitallySignedData:i <- 0
	.loc	3 0 2 is_stmt 0                 @ nsc.c:0:2
	ldr	r5, __arm_cp.11_1
.Ltmp79:
.LBB11_5:                               @ =>This Inner Loop Header: Depth=1
	@DEBUG_VALUE: printDigitallySignedData:dsd <- $r4
	@DEBUG_VALUE: printDigitallySignedData:i <- undef
	.loc	3 276 21 is_stmt 1              @ nsc.c:276:21
	ldrb	r1, [r4, r6]
	.loc	3 276 6 is_stmt 0               @ nsc.c:276:6
	mov	r0, r5
	bl	__2printf
.Ltmp80:
	@DEBUG_VALUE: printDigitallySignedData:i <- [DW_OP_plus_uconst 1, DW_OP_stack_value] undef
	.loc	3 275 12 is_stmt 1              @ nsc.c:275:12
	adds	r6, r6, #1
.Ltmp81:
	.loc	3 275 2 is_stmt 0               @ nsc.c:275:2
	cmp	r6, #116
	bne	.LBB11_5
.Ltmp82:
@ %bb.6:
	@DEBUG_VALUE: printDigitallySignedData:dsd <- $r4
	.loc	3 0 2                           @ nsc.c:0:2
	movs	r0, #10
	.loc	3 278 2 is_stmt 1               @ nsc.c:278:2
	bl	putchar
	movs	r0, #1
	.loc	3 280 2                         @ nsc.c:280:2
	pop	{r4, r5, r6}
.Ltmp83:
	@DEBUG_VALUE: printDigitallySignedData:dsd <- [DW_OP_LLVM_entry_value 1] $r0
	pop	{r1}
	mov	lr, r1
	mov	r1, lr
	mov	r2, lr
	mov	r3, lr
	mov	r12, lr
	msr	apsr, lr
	bxns	lr
.Ltmp84:
	.p2align	2
@ %bb.7:
	.loc	3 0 2 is_stmt 0                 @ nsc.c:0:2
.LCPI11_0:
.L.str.14:
	.asciz	".data(%d-bits):\n\000\000\000"
__arm_cp.11_1:
	.long	.L.str.15
.Lcpi_end36:
	.size	__arm_cp.11_1, .Lcpi_end36-__arm_cp.11_1
.LCPI11_2:
.L.str.16:
	.asciz	"\n.SignatureR(%d-bits):\n"
.LCPI11_3:
.L.str.17:
	.asciz	"\n.SignatureS(%d-bits):\n"
.Lfunc_end11:
	.size	printDigitallySignedData, .Lfunc_end11-printDigitallySignedData
	.cfi_endproc
	.cantunwind
	.fnend
                                        @ -- End function
	.hidden	pfNonSecure_OLED_On             @ @pfNonSecure_OLED_On
	.type	pfNonSecure_OLED_On,%object
	.section	.bss.pfNonSecure_OLED_On,"aw",%nobits
	.globl	pfNonSecure_OLED_On
	.p2align	2
pfNonSecure_OLED_On:
	.long	0
	.size	pfNonSecure_OLED_On, 4

	.hidden	pfNonSecure_OLED_Off            @ @pfNonSecure_OLED_Off
	.type	pfNonSecure_OLED_Off,%object
	.section	.bss.pfNonSecure_OLED_Off,"aw",%nobits
	.globl	pfNonSecure_OLED_Off
	.p2align	2
pfNonSecure_OLED_Off:
	.long	0
	.size	pfNonSecure_OLED_Off, 4

	.type	Get_BPM.ticks,%object           @ @Get_BPM.ticks
	.section	.bss.Get_BPM.ticks,"aw",%nobits
	.p2align	2
Get_BPM.ticks:
	.long	0                               @ 0x0
	.size	Get_BPM.ticks, 4

	.hidden	startTime                       @ @startTime
	.type	startTime,%object
	.section	.bss.startTime,"aw",%nobits
	.globl	startTime
	.p2align	2
startTime:
	.long	0                               @ 0x0
	.size	startTime, 4

	.hidden	endTime                         @ @endTime
	.type	endTime,%object
	.section	.bss.endTime,"aw",%nobits
	.globl	endTime
	.p2align	2
endTime:
	.long	0                               @ 0x0
	.size	endTime, 4

	.hidden	OLED_printTime                  @ @OLED_printTime
	.type	OLED_printTime,%object
	.section	.bss.OLED_printTime,"aw",%nobits
	.globl	OLED_printTime
	.p2align	2
OLED_printTime:
	.long	0                               @ 0x0
	.size	OLED_printTime, 4

	.type	Get_EncryptedDigitallySignedData.ticks,%object @ @Get_EncryptedDigitallySignedData.ticks
	.section	.bss.Get_EncryptedDigitallySignedData.ticks,"aw",%nobits
	.p2align	2
Get_EncryptedDigitallySignedData.ticks:
	.long	0                               @ 0x0
	.size	Get_EncryptedDigitallySignedData.ticks, 4

	.type	M2351_LoadKey.called,%object    @ @M2351_LoadKey.called
	.section	.bss.M2351_LoadKey.called,"aw",%nobits
	.p2align	2
M2351_LoadKey.called:
	.byte	0                               @ 0x0
	.size	M2351_LoadKey.called, 1

	.type	.L.str.15,%object               @ @.str.15
	.section	.rodata.str1.1,"aMS",%progbits,1
.L.str.15:
	.asciz	"%02x"
	.size	.L.str.15, 5

	.hidden	gDSD                            @ @gDSD
	.type	gDSD,%object
	.section	.bss.gDSD,"aw",%nobits
	.globl	gDSD
gDSD:
	.zero	117
	.size	gDSD, 117

	.type	.Lstr.22,%object                @ @str.22
	.section	.rodata.str1.1,"aMS",%progbits,1
.Lstr.22:
	.asciz	"+---------------------------------------------+"
	.size	.Lstr.22, 48

	.type	.Lstr.23,%object                @ @str.23
.Lstr.23:
	.asciz	"|   Load PriKey from OTP & Generate PubKey    |"
	.size	.Lstr.23, 48

	.globl	_printf_percent
	.globl	_printf_flags
	.globl	_printf_widthprec
	.globl	_printf_pre_padding
	.globl	_printf_sizespec
	.globl	_printf_truncate_unsigned
	.globl	_printf_truncate_signed
	.globl	_printf_c
	.globl	_printf_s
	.globl	_printf_n
	.globl	_printf_charcount
	.globl	_printf_x
	.globl	_printf_p
	.globl	_printf_o
	.globl	_printf_i
	.globl	_printf_d
	.globl	_printf_u
	.globl	_printf_lc
	.globl	_printf_charcount
	.globl	_printf_int_dec
	.globl	_printf_longlong_oct
	.globl	_printf_longlong_hex
	.globl	_printf_str
	.globl	_printf_wctomb
	.hidden	_printf_percent
	.hidden	_printf_flags
	.hidden	_printf_widthprec
	.hidden	_printf_pre_padding
	.hidden	_printf_sizespec
	.hidden	_printf_truncate_unsigned
	.hidden	_printf_truncate_signed
	.hidden	_printf_c
	.hidden	_printf_s
	.hidden	_printf_n
	.hidden	_printf_charcount
	.hidden	_printf_x
	.hidden	_printf_p
	.hidden	_printf_o
	.hidden	_printf_i
	.hidden	_printf_d
	.hidden	_printf_u
	.hidden	_printf_lc
	.hidden	_printf_int_dec
	.hidden	_printf_longlong_oct
	.hidden	_printf_longlong_hex
	.hidden	_printf_str
	.hidden	_printf_wctomb
	.section	".note.GNU-stack","",%progbits
	.eabi_attribute	30, 1	@ Tag_ABI_optimization_goals
	.ARM_attribute	16, 1	@ Tag_AV_eba