	.text
	.syntax unified
	.eabi_attribute	67, "2.09"	@ Tag_conformance
	.cpu	cortex-m23
	.eabi_attribute	6, 16	@ Tag_CPU_arch
	.eabi_attribute	7, 77	@ Tag_CPU_arch_profile
	.eabi_attribute	8, 0	@ Tag_ARM_ISA_use
	.eabi_attribute	9, 3	@ Tag_THUMB_ISA_use
	.eabi_attribute	34, 0	@ Tag_CPU_unaligned_access
	.eabi_attribute	17, 1	@ Tag_ABI_PCS_GOT_use
	.eabi_attribute	20, 2	@ Tag_ABI_FP_denormal
	.eabi_attribute	21, 0	@ Tag_ABI_FP_exceptions
	.eabi_attribute	23, 1	@ Tag_ABI_FP_number_model
	.eabi_attribute	24, 1	@ Tag_ABI_align_needed
	.eabi_attribute	25, 1	@ Tag_ABI_align_preserved
	.eabi_attribute	38, 1	@ Tag_ABI_FP_16bit_format
	.eabi_attribute	18, 2	@ Tag_ABI_PCS_wchar_t
	.eabi_attribute	26, 1	@ Tag_ABI_enum_size
	.eabi_attribute	14, 0	@ Tag_ABI_PCS_R9_use
	.file	"oid.c"
	.file	1 "C:\\Users\\shw26\\OneDrive\\Desktop\\2021\\2021-1\\\354\272\241\354\212\244\355\206\244\353\224\224\354\236\220\354\235\2702\\Nuvoton\\M2351_BSP_v3.00.004\\M2351Series_BSP_CMSIS_V3.00.004\\MyProject\\PulseMonitoring\\Secure" "../../../ThirdParty/mbedTLS/include/mbedtls\\oid.h"
	.file	2 "C:\\" "Keil_v5\\ARM\\ARMCLANG\\Bin\\..\\include\\stddef.h"
	.file	3 "C:\\Users\\shw26\\OneDrive\\Desktop\\2021\\2021-1\\\354\272\241\354\212\244\355\206\244\353\224\224\354\236\220\354\235\2702\\Nuvoton\\M2351_BSP_v3.00.004\\M2351Series_BSP_CMSIS_V3.00.004\\MyProject\\PulseMonitoring\\Secure" "../../../ThirdParty/mbedTLS/library/oid.c"
	.file	4 "C:\\Users\\shw26\\OneDrive\\Desktop\\2021\\2021-1\\\354\272\241\354\212\244\355\206\244\353\224\224\354\236\220\354\235\2702\\Nuvoton\\M2351_BSP_v3.00.004\\M2351Series_BSP_CMSIS_V3.00.004\\MyProject\\PulseMonitoring\\Secure" "../../../ThirdParty/mbedTLS/include/mbedtls/md.h"
	.file	5 "C:\\Users\\shw26\\OneDrive\\Desktop\\2021\\2021-1\\\354\272\241\354\212\244\355\206\244\353\224\224\354\236\220\354\235\2702\\Nuvoton\\M2351_BSP_v3.00.004\\M2351Series_BSP_CMSIS_V3.00.004\\MyProject\\PulseMonitoring\\Secure" "../../../ThirdParty/mbedTLS/include/mbedtls/pk.h"
	.file	6 "C:\\Users\\shw26\\OneDrive\\Desktop\\2021\\2021-1\\\354\272\241\354\212\244\355\206\244\353\224\224\354\236\220\354\235\2702\\Nuvoton\\M2351_BSP_v3.00.004\\M2351Series_BSP_CMSIS_V3.00.004\\MyProject\\PulseMonitoring\\Secure" "../../../ThirdParty/mbedTLS/include/mbedtls/ecp.h"
	.file	7 "C:\\Users\\shw26\\OneDrive\\Desktop\\2021\\2021-1\\\354\272\241\354\212\244\355\206\244\353\224\224\354\236\220\354\235\2702\\Nuvoton\\M2351_BSP_v3.00.004\\M2351Series_BSP_CMSIS_V3.00.004\\MyProject\\PulseMonitoring\\Secure" "../../../ThirdParty/mbedTLS/include/mbedtls/cipher.h"
	.section	.text.mbedtls_oid_get_attr_short_name,"ax",%progbits
	.hidden	mbedtls_oid_get_attr_short_name @ -- Begin function mbedtls_oid_get_attr_short_name
	.globl	mbedtls_oid_get_attr_short_name
	.p2align	1
	.type	mbedtls_oid_get_attr_short_name,%function
	.code	16                              @ @mbedtls_oid_get_attr_short_name
	.thumb_func
mbedtls_oid_get_attr_short_name:
.Lfunc_begin0:
	.loc	3 249 0                         @ ../../../ThirdParty/mbedTLS/library/oid.c:249:0
	.fnstart
	.cfi_sections .debug_frame
	.cfi_startproc
@ %bb.0:
	@DEBUG_VALUE: mbedtls_oid_get_attr_short_name:oid <- $r0
	@DEBUG_VALUE: mbedtls_oid_get_attr_short_name:short_name <- $r1
	.save	{r4, lr}
	push	{r4, lr}
	.cfi_def_cfa_offset 8
	.cfi_offset lr, -4
	.cfi_offset r4, -8
	mov	r4, r1
.Ltmp0:
	@DEBUG_VALUE: mbedtls_oid_get_attr_short_name:short_name <- $r4
	@DEBUG_VALUE: mbedtls_oid_get_attr_short_name:oid <- $r0
	@DEBUG_VALUE: mbedtls_oid_get_attr_short_name:oid <- $r0
	.loc	3 249 1 prologue_end            @ ../../../ThirdParty/mbedTLS/library/oid.c:249:1
	bl	oid_x520_attr_from_asn1
.Ltmp1:
	@DEBUG_VALUE: mbedtls_oid_get_attr_short_name:oid <- [DW_OP_LLVM_entry_value 1] $r0
	@DEBUG_VALUE: mbedtls_oid_get_attr_short_name:data <- $r0
	cbz	r0, .LBB0_2
.Ltmp2:
@ %bb.1:
	@DEBUG_VALUE: mbedtls_oid_get_attr_short_name:short_name <- $r4
	@DEBUG_VALUE: mbedtls_oid_get_attr_short_name:data <- $r0
	@DEBUG_VALUE: mbedtls_oid_get_attr_short_name:oid <- [DW_OP_LLVM_entry_value 1] $r0
	ldr	r0, [r0, #16]
.Ltmp3:
	str	r0, [r4]
	movs	r0, #0
	pop	{r4, pc}
.Ltmp4:
.LBB0_2:
	@DEBUG_VALUE: mbedtls_oid_get_attr_short_name:short_name <- $r4
	@DEBUG_VALUE: mbedtls_oid_get_attr_short_name:data <- $r0
	@DEBUG_VALUE: mbedtls_oid_get_attr_short_name:oid <- [DW_OP_LLVM_entry_value 1] $r0
	.loc	3 0 1 is_stmt 0                 @ ../../../ThirdParty/mbedTLS/library/oid.c:0:1
	movs	r0, #45
.Ltmp5:
	mvns	r0, r0
	.loc	3 249 1                         @ ../../../ThirdParty/mbedTLS/library/oid.c:249:1
	pop	{r4, pc}
.Ltmp6:
.Lfunc_end0:
	.size	mbedtls_oid_get_attr_short_name, .Lfunc_end0-mbedtls_oid_get_attr_short_name
	.cfi_endproc
	.cantunwind
	.fnend
                                        @ -- End function
	.section	.text.oid_x520_attr_from_asn1,"ax",%progbits
	.p2align	2                               @ -- Begin function oid_x520_attr_from_asn1
	.type	oid_x520_attr_from_asn1,%function
	.code	16                              @ @oid_x520_attr_from_asn1
	.thumb_func
oid_x520_attr_from_asn1:
.Lfunc_begin1:
	.loc	3 248 0 is_stmt 1               @ ../../../ThirdParty/mbedTLS/library/oid.c:248:0
	.fnstart
	.cfi_startproc
@ %bb.0:
	@DEBUG_VALUE: oid_x520_attr_from_asn1:oid <- $r0
	.save	{r4, r5, r6, r7, lr}
	push	{r4, r5, r6, r7, lr}
	.cfi_def_cfa_offset 20
	.cfi_offset lr, -4
	.cfi_offset r7, -8
	.cfi_offset r6, -12
	.cfi_offset r5, -16
	.cfi_offset r4, -20
	.pad	#4
	sub	sp, #4
	.cfi_def_cfa_offset 24
	movs	r7, #0
	@DEBUG_VALUE: oid_x520_attr_from_asn1:oid <- $r0
.Ltmp7:
	@DEBUG_VALUE: oid_x520_attr_from_asn1:cur <- undef
	.loc	3 248 1 prologue_end            @ ../../../ThirdParty/mbedTLS/library/oid.c:248:1
	cbz	r0, .LBB1_5
.Ltmp8:
@ %bb.1:
	@DEBUG_VALUE: oid_x520_attr_from_asn1:oid <- $r0
	.loc	3 0 1 is_stmt 0                 @ ../../../ThirdParty/mbedTLS/library/oid.c:0:1
	mov	r5, r0
.Ltmp9:
	@DEBUG_VALUE: oid_x520_attr_from_asn1:oid <- $r5
	ldr	r6, [r0, #4]
	ldr	r4, __arm_cp.1_0
.Ltmp10:
	@DEBUG_VALUE: oid_x520_attr_from_asn1:cur <- $r4
	ldr	r0, __arm_cp.1_1
	b	.LBB1_3
.Ltmp11:
.LBB1_2:                                @   in Loop: Header=BB1_3 Depth=1
	@DEBUG_VALUE: oid_x520_attr_from_asn1:oid <- $r5
	@DEBUG_VALUE: oid_x520_attr_from_asn1:p <- $r4
	@DEBUG_VALUE: oid_x520_attr_from_asn1:cur <- $r4
	.loc	3 248 1                         @ ../../../ThirdParty/mbedTLS/library/oid.c:248:1
	ldr	r0, [r4, #20]
.Ltmp12:
	.loc	3 248 1                         @ ../../../ThirdParty/mbedTLS/library/oid.c:248:1
	adds	r4, #20
.Ltmp13:
	@DEBUG_VALUE: oid_x520_attr_from_asn1:p <- $r4
	@DEBUG_VALUE: oid_x520_attr_from_asn1:cur <- $r4
	.loc	3 248 1                         @ ../../../ThirdParty/mbedTLS/library/oid.c:248:1
	cbz	r0, .LBB1_6
.Ltmp14:
.LBB1_3:                                @ =>This Inner Loop Header: Depth=1
	@DEBUG_VALUE: oid_x520_attr_from_asn1:oid <- $r5
	@DEBUG_VALUE: oid_x520_attr_from_asn1:cur <- $r4
	@DEBUG_VALUE: oid_x520_attr_from_asn1:cur <- $r4
	@DEBUG_VALUE: oid_x520_attr_from_asn1:p <- $r4
	.loc	3 248 1                         @ ../../../ThirdParty/mbedTLS/library/oid.c:248:1
	ldr	r1, [r4, #4]
	cmp	r1, r6
	bne	.LBB1_2
.Ltmp15:
@ %bb.4:                                @   in Loop: Header=BB1_3 Depth=1
	@DEBUG_VALUE: oid_x520_attr_from_asn1:oid <- $r5
	@DEBUG_VALUE: oid_x520_attr_from_asn1:p <- $r4
	@DEBUG_VALUE: oid_x520_attr_from_asn1:cur <- $r4
	@DEBUG_VALUE: oid_x520_attr_from_asn1:p <- $r4
	ldr	r1, [r5, #8]
	mov	r2, r6
	bl	memcmp
.Ltmp16:
	.loc	3 248 1                         @ ../../../ThirdParty/mbedTLS/library/oid.c:248:1
	cmp	r0, #0
	bne	.LBB1_2
	b	.LBB1_7
.Ltmp17:
.LBB1_5:
	@DEBUG_VALUE: oid_x520_attr_from_asn1:oid <- $r0
	.loc	3 0 0                           @ ../../../ThirdParty/mbedTLS/library/oid.c:0:0
	mov	r4, r7
	b	.LBB1_7
.Ltmp18:
.LBB1_6:
	@DEBUG_VALUE: oid_x520_attr_from_asn1:oid <- $r5
	@DEBUG_VALUE: oid_x520_attr_from_asn1:p <- $r4
	@DEBUG_VALUE: oid_x520_attr_from_asn1:cur <- $r4
	mov	r4, r7
.Ltmp19:
.LBB1_7:
	.loc	3 248 1                         @ ../../../ThirdParty/mbedTLS/library/oid.c:248:1
	mov	r0, r4
	add	sp, #4
	pop	{r4, r5, r6, r7, pc}
.Ltmp20:
	.p2align	2
@ %bb.8:
	.loc	3 0 1                           @ ../../../ThirdParty/mbedTLS/library/oid.c:0:1
__arm_cp.1_0:
	.long	oid_x520_attr_type
.Lcpi_end0:
	.size	__arm_cp.1_0, .Lcpi_end0-__arm_cp.1_0
__arm_cp.1_1:
	.long	.L.str.2
.Lcpi_end1:
	.size	__arm_cp.1_1, .Lcpi_end1-__arm_cp.1_1
.Lfunc_end1:
	.size	oid_x520_attr_from_asn1, .Lfunc_end1-oid_x520_attr_from_asn1
	.cfi_endproc
	.cantunwind
	.fnend
                                        @ -- End function
	.section	.text.mbedtls_oid_get_x509_ext_type,"ax",%progbits
	.hidden	mbedtls_oid_get_x509_ext_type   @ -- Begin function mbedtls_oid_get_x509_ext_type
	.globl	mbedtls_oid_get_x509_ext_type
	.p2align	1
	.type	mbedtls_oid_get_x509_ext_type,%function
	.code	16                              @ @mbedtls_oid_get_x509_ext_type
	.thumb_func
mbedtls_oid_get_x509_ext_type:
.Lfunc_begin2:
	.loc	3 288 0 is_stmt 1               @ ../../../ThirdParty/mbedTLS/library/oid.c:288:0
	.fnstart
	.cfi_startproc
@ %bb.0:
	@DEBUG_VALUE: mbedtls_oid_get_x509_ext_type:oid <- $r0
	@DEBUG_VALUE: mbedtls_oid_get_x509_ext_type:ext_type <- $r1
	.save	{r4, lr}
	push	{r4, lr}
	.cfi_def_cfa_offset 8
	.cfi_offset lr, -4
	.cfi_offset r4, -8
	mov	r4, r1
.Ltmp21:
	@DEBUG_VALUE: mbedtls_oid_get_x509_ext_type:ext_type <- $r4
	@DEBUG_VALUE: mbedtls_oid_get_x509_ext_type:oid <- $r0
	@DEBUG_VALUE: mbedtls_oid_get_x509_ext_type:oid <- $r0
	.loc	3 288 1 prologue_end            @ ../../../ThirdParty/mbedTLS/library/oid.c:288:1
	bl	oid_x509_ext_from_asn1
.Ltmp22:
	@DEBUG_VALUE: mbedtls_oid_get_x509_ext_type:oid <- [DW_OP_LLVM_entry_value 1] $r0
	@DEBUG_VALUE: mbedtls_oid_get_x509_ext_type:data <- $r0
	cbz	r0, .LBB2_2
.Ltmp23:
@ %bb.1:
	@DEBUG_VALUE: mbedtls_oid_get_x509_ext_type:ext_type <- $r4
	@DEBUG_VALUE: mbedtls_oid_get_x509_ext_type:data <- $r0
	@DEBUG_VALUE: mbedtls_oid_get_x509_ext_type:oid <- [DW_OP_LLVM_entry_value 1] $r0
	ldr	r0, [r0, #16]
.Ltmp24:
	str	r0, [r4]
	movs	r0, #0
	pop	{r4, pc}
.Ltmp25:
.LBB2_2:
	@DEBUG_VALUE: mbedtls_oid_get_x509_ext_type:ext_type <- $r4
	@DEBUG_VALUE: mbedtls_oid_get_x509_ext_type:data <- $r0
	@DEBUG_VALUE: mbedtls_oid_get_x509_ext_type:oid <- [DW_OP_LLVM_entry_value 1] $r0
	.loc	3 0 1 is_stmt 0                 @ ../../../ThirdParty/mbedTLS/library/oid.c:0:1
	movs	r0, #45
.Ltmp26:
	mvns	r0, r0
	.loc	3 288 1                         @ ../../../ThirdParty/mbedTLS/library/oid.c:288:1
	pop	{r4, pc}
.Ltmp27:
.Lfunc_end2:
	.size	mbedtls_oid_get_x509_ext_type, .Lfunc_end2-mbedtls_oid_get_x509_ext_type
	.cfi_endproc
	.cantunwind
	.fnend
                                        @ -- End function
	.section	.text.oid_x509_ext_from_asn1,"ax",%progbits
	.p2align	2                               @ -- Begin function oid_x509_ext_from_asn1
	.type	oid_x509_ext_from_asn1,%function
	.code	16                              @ @oid_x509_ext_from_asn1
	.thumb_func
oid_x509_ext_from_asn1:
.Lfunc_begin3:
	.loc	3 287 0 is_stmt 1               @ ../../../ThirdParty/mbedTLS/library/oid.c:287:0
	.fnstart
	.cfi_startproc
@ %bb.0:
	@DEBUG_VALUE: oid_x509_ext_from_asn1:oid <- $r0
	.save	{r4, r5, r6, r7, lr}
	push	{r4, r5, r6, r7, lr}
	.cfi_def_cfa_offset 20
	.cfi_offset lr, -4
	.cfi_offset r7, -8
	.cfi_offset r6, -12
	.cfi_offset r5, -16
	.cfi_offset r4, -20
	.pad	#4
	sub	sp, #4
	.cfi_def_cfa_offset 24
	movs	r7, #0
	@DEBUG_VALUE: oid_x509_ext_from_asn1:oid <- $r0
.Ltmp28:
	@DEBUG_VALUE: oid_x509_ext_from_asn1:cur <- undef
	.loc	3 287 1 prologue_end            @ ../../../ThirdParty/mbedTLS/library/oid.c:287:1
	cbz	r0, .LBB3_5
.Ltmp29:
@ %bb.1:
	@DEBUG_VALUE: oid_x509_ext_from_asn1:oid <- $r0
	.loc	3 0 1 is_stmt 0                 @ ../../../ThirdParty/mbedTLS/library/oid.c:0:1
	mov	r5, r0
.Ltmp30:
	@DEBUG_VALUE: oid_x509_ext_from_asn1:oid <- $r5
	ldr	r6, [r0, #4]
	ldr	r4, __arm_cp.3_0
.Ltmp31:
	@DEBUG_VALUE: oid_x509_ext_from_asn1:cur <- $r4
	ldr	r0, __arm_cp.3_1
	b	.LBB3_3
.Ltmp32:
.LBB3_2:                                @   in Loop: Header=BB3_3 Depth=1
	@DEBUG_VALUE: oid_x509_ext_from_asn1:oid <- $r5
	@DEBUG_VALUE: oid_x509_ext_from_asn1:p <- $r4
	@DEBUG_VALUE: oid_x509_ext_from_asn1:cur <- $r4
	.loc	3 287 1                         @ ../../../ThirdParty/mbedTLS/library/oid.c:287:1
	ldr	r0, [r4, #20]
.Ltmp33:
	.loc	3 287 1                         @ ../../../ThirdParty/mbedTLS/library/oid.c:287:1
	adds	r4, #20
.Ltmp34:
	@DEBUG_VALUE: oid_x509_ext_from_asn1:p <- $r4
	@DEBUG_VALUE: oid_x509_ext_from_asn1:cur <- $r4
	.loc	3 287 1                         @ ../../../ThirdParty/mbedTLS/library/oid.c:287:1
	cbz	r0, .LBB3_6
.Ltmp35:
.LBB3_3:                                @ =>This Inner Loop Header: Depth=1
	@DEBUG_VALUE: oid_x509_ext_from_asn1:oid <- $r5
	@DEBUG_VALUE: oid_x509_ext_from_asn1:cur <- $r4
	@DEBUG_VALUE: oid_x509_ext_from_asn1:cur <- $r4
	@DEBUG_VALUE: oid_x509_ext_from_asn1:p <- $r4
	.loc	3 287 1                         @ ../../../ThirdParty/mbedTLS/library/oid.c:287:1
	ldr	r1, [r4, #4]
	cmp	r1, r6
	bne	.LBB3_2
.Ltmp36:
@ %bb.4:                                @   in Loop: Header=BB3_3 Depth=1
	@DEBUG_VALUE: oid_x509_ext_from_asn1:oid <- $r5
	@DEBUG_VALUE: oid_x509_ext_from_asn1:p <- $r4
	@DEBUG_VALUE: oid_x509_ext_from_asn1:cur <- $r4
	@DEBUG_VALUE: oid_x509_ext_from_asn1:p <- $r4
	ldr	r1, [r5, #8]
	mov	r2, r6
	bl	memcmp
.Ltmp37:
	.loc	3 287 1                         @ ../../../ThirdParty/mbedTLS/library/oid.c:287:1
	cmp	r0, #0
	bne	.LBB3_2
	b	.LBB3_7
.Ltmp38:
.LBB3_5:
	@DEBUG_VALUE: oid_x509_ext_from_asn1:oid <- $r0
	.loc	3 0 0                           @ ../../../ThirdParty/mbedTLS/library/oid.c:0:0
	mov	r4, r7
	b	.LBB3_7
.Ltmp39:
.LBB3_6:
	@DEBUG_VALUE: oid_x509_ext_from_asn1:oid <- $r5
	@DEBUG_VALUE: oid_x509_ext_from_asn1:p <- $r4
	@DEBUG_VALUE: oid_x509_ext_from_asn1:cur <- $r4
	mov	r4, r7
.Ltmp40:
.LBB3_7:
	.loc	3 287 1                         @ ../../../ThirdParty/mbedTLS/library/oid.c:287:1
	mov	r0, r4
	add	sp, #4
	pop	{r4, r5, r6, r7, pc}
.Ltmp41:
	.p2align	2
@ %bb.8:
	.loc	3 0 1                           @ ../../../ThirdParty/mbedTLS/library/oid.c:0:1
__arm_cp.3_0:
	.long	oid_x509_ext
.Lcpi_end2:
	.size	__arm_cp.3_0, .Lcpi_end2-__arm_cp.3_0
__arm_cp.3_1:
	.long	.L.str.77
.Lcpi_end3:
	.size	__arm_cp.3_1, .Lcpi_end3-__arm_cp.3_1
.Lfunc_end3:
	.size	oid_x509_ext_from_asn1, .Lfunc_end3-oid_x509_ext_from_asn1
	.cfi_endproc
	.cantunwind
	.fnend
                                        @ -- End function
	.section	.text.mbedtls_oid_get_extended_key_usage,"ax",%progbits
	.hidden	mbedtls_oid_get_extended_key_usage @ -- Begin function mbedtls_oid_get_extended_key_usage
	.globl	mbedtls_oid_get_extended_key_usage
	.p2align	1
	.type	mbedtls_oid_get_extended_key_usage,%function
	.code	16                              @ @mbedtls_oid_get_extended_key_usage
	.thumb_func
mbedtls_oid_get_extended_key_usage:
.Lfunc_begin4:
	.loc	3 302 0 is_stmt 1               @ ../../../ThirdParty/mbedTLS/library/oid.c:302:0
	.fnstart
	.cfi_startproc
@ %bb.0:
	@DEBUG_VALUE: mbedtls_oid_get_extended_key_usage:oid <- $r0
	@DEBUG_VALUE: mbedtls_oid_get_extended_key_usage:description <- $r1
	.save	{r4, lr}
	push	{r4, lr}
	.cfi_def_cfa_offset 8
	.cfi_offset lr, -4
	.cfi_offset r4, -8
	mov	r4, r1
.Ltmp42:
	@DEBUG_VALUE: mbedtls_oid_get_extended_key_usage:description <- $r4
	@DEBUG_VALUE: mbedtls_oid_get_extended_key_usage:oid <- $r0
	@DEBUG_VALUE: mbedtls_oid_get_extended_key_usage:oid <- $r0
	.loc	3 302 1 prologue_end            @ ../../../ThirdParty/mbedTLS/library/oid.c:302:1
	bl	oid_ext_key_usage_from_asn1
.Ltmp43:
	@DEBUG_VALUE: mbedtls_oid_get_extended_key_usage:oid <- [DW_OP_LLVM_entry_value 1] $r0
	@DEBUG_VALUE: mbedtls_oid_get_extended_key_usage:data <- $r0
	cbz	r0, .LBB4_2
.Ltmp44:
@ %bb.1:
	@DEBUG_VALUE: mbedtls_oid_get_extended_key_usage:description <- $r4
	@DEBUG_VALUE: mbedtls_oid_get_extended_key_usage:data <- $r0
	@DEBUG_VALUE: mbedtls_oid_get_extended_key_usage:oid <- [DW_OP_LLVM_entry_value 1] $r0
	ldr	r0, [r0, #12]
.Ltmp45:
	str	r0, [r4]
	movs	r0, #0
	pop	{r4, pc}
.Ltmp46:
.LBB4_2:
	@DEBUG_VALUE: mbedtls_oid_get_extended_key_usage:description <- $r4
	@DEBUG_VALUE: mbedtls_oid_get_extended_key_usage:data <- $r0
	@DEBUG_VALUE: mbedtls_oid_get_extended_key_usage:oid <- [DW_OP_LLVM_entry_value 1] $r0
	.loc	3 0 1 is_stmt 0                 @ ../../../ThirdParty/mbedTLS/library/oid.c:0:1
	movs	r0, #45
.Ltmp47:
	mvns	r0, r0
	.loc	3 302 1                         @ ../../../ThirdParty/mbedTLS/library/oid.c:302:1
	pop	{r4, pc}
.Ltmp48:
.Lfunc_end4:
	.size	mbedtls_oid_get_extended_key_usage, .Lfunc_end4-mbedtls_oid_get_extended_key_usage
	.cfi_endproc
	.cantunwind
	.fnend
                                        @ -- End function
	.section	.text.oid_ext_key_usage_from_asn1,"ax",%progbits
	.p2align	2                               @ -- Begin function oid_ext_key_usage_from_asn1
	.type	oid_ext_key_usage_from_asn1,%function
	.code	16                              @ @oid_ext_key_usage_from_asn1
	.thumb_func
oid_ext_key_usage_from_asn1:
.Lfunc_begin5:
	.loc	3 301 0 is_stmt 1               @ ../../../ThirdParty/mbedTLS/library/oid.c:301:0
	.fnstart
	.cfi_startproc
@ %bb.0:
	@DEBUG_VALUE: oid_ext_key_usage_from_asn1:oid <- $r0
	.save	{r4, r5, r6, r7, lr}
	push	{r4, r5, r6, r7, lr}
	.cfi_def_cfa_offset 20
	.cfi_offset lr, -4
	.cfi_offset r7, -8
	.cfi_offset r6, -12
	.cfi_offset r5, -16
	.cfi_offset r4, -20
	.pad	#4
	sub	sp, #4
	.cfi_def_cfa_offset 24
	movs	r4, #0
	@DEBUG_VALUE: oid_ext_key_usage_from_asn1:oid <- $r0
.Ltmp49:
	@DEBUG_VALUE: oid_ext_key_usage_from_asn1:cur <- undef
	@DEBUG_VALUE: oid_ext_key_usage_from_asn1:p <- undef
	.loc	3 301 1 prologue_end            @ ../../../ThirdParty/mbedTLS/library/oid.c:301:1
	cbz	r0, .LBB5_6
.Ltmp50:
@ %bb.1:
	@DEBUG_VALUE: oid_ext_key_usage_from_asn1:oid <- $r0
	.loc	3 0 1 is_stmt 0                 @ ../../../ThirdParty/mbedTLS/library/oid.c:0:1
	mov	r5, r0
.Ltmp51:
	@DEBUG_VALUE: oid_ext_key_usage_from_asn1:oid <- $r5
	ldr	r6, [r0, #4]
	ldr	r7, __arm_cp.5_0
.Ltmp52:
	@DEBUG_VALUE: oid_ext_key_usage_from_asn1:cur <- $r7
	@DEBUG_VALUE: oid_ext_key_usage_from_asn1:p <- $r7
	ldr	r0, __arm_cp.5_1
	b	.LBB5_3
.Ltmp53:
.LBB5_2:                                @   in Loop: Header=BB5_3 Depth=1
	@DEBUG_VALUE: oid_ext_key_usage_from_asn1:p <- $r7
	@DEBUG_VALUE: oid_ext_key_usage_from_asn1:cur <- $r7
	@DEBUG_VALUE: oid_ext_key_usage_from_asn1:oid <- $r5
	.loc	3 301 1                         @ ../../../ThirdParty/mbedTLS/library/oid.c:301:1
	ldr	r0, [r7, #16]
.Ltmp54:
	.loc	3 301 1                         @ ../../../ThirdParty/mbedTLS/library/oid.c:301:1
	adds	r7, #16
.Ltmp55:
	@DEBUG_VALUE: oid_ext_key_usage_from_asn1:cur <- $r7
	@DEBUG_VALUE: oid_ext_key_usage_from_asn1:p <- $r7
	.loc	3 301 1                         @ ../../../ThirdParty/mbedTLS/library/oid.c:301:1
	cbz	r0, .LBB5_6
.Ltmp56:
.LBB5_3:                                @ =>This Inner Loop Header: Depth=1
	@DEBUG_VALUE: oid_ext_key_usage_from_asn1:p <- $r7
	@DEBUG_VALUE: oid_ext_key_usage_from_asn1:cur <- $r7
	@DEBUG_VALUE: oid_ext_key_usage_from_asn1:oid <- $r5
	@DEBUG_VALUE: oid_ext_key_usage_from_asn1:cur <- $r7
	.loc	3 301 1                         @ ../../../ThirdParty/mbedTLS/library/oid.c:301:1
	ldr	r1, [r7, #4]
	cmp	r1, r6
	bne	.LBB5_2
.Ltmp57:
@ %bb.4:                                @   in Loop: Header=BB5_3 Depth=1
	@DEBUG_VALUE: oid_ext_key_usage_from_asn1:p <- $r7
	@DEBUG_VALUE: oid_ext_key_usage_from_asn1:cur <- $r7
	@DEBUG_VALUE: oid_ext_key_usage_from_asn1:oid <- $r5
	ldr	r1, [r5, #8]
	mov	r2, r6
	bl	memcmp
.Ltmp58:
	.loc	3 301 1                         @ ../../../ThirdParty/mbedTLS/library/oid.c:301:1
	cmp	r0, #0
	bne	.LBB5_2
.Ltmp59:
@ %bb.5:
	@DEBUG_VALUE: oid_ext_key_usage_from_asn1:p <- $r7
	@DEBUG_VALUE: oid_ext_key_usage_from_asn1:cur <- $r7
	@DEBUG_VALUE: oid_ext_key_usage_from_asn1:oid <- $r5
	.loc	3 0 0                           @ ../../../ThirdParty/mbedTLS/library/oid.c:0:0
	mov	r4, r7
.Ltmp60:
	@DEBUG_VALUE: oid_ext_key_usage_from_asn1:cur <- $r4
.LBB5_6:
	.loc	3 301 1                         @ ../../../ThirdParty/mbedTLS/library/oid.c:301:1
	mov	r0, r4
	add	sp, #4
	pop	{r4, r5, r6, r7, pc}
.Ltmp61:
	.p2align	2
@ %bb.7:
	.loc	3 0 1                           @ ../../../ThirdParty/mbedTLS/library/oid.c:0:1
__arm_cp.5_0:
	.long	oid_ext_key_usage
.Lcpi_end4:
	.size	__arm_cp.5_0, .Lcpi_end4-__arm_cp.5_0
__arm_cp.5_1:
	.long	.L.str.92
.Lcpi_end5:
	.size	__arm_cp.5_1, .Lcpi_end5-__arm_cp.5_1
.Lfunc_end5:
	.size	oid_ext_key_usage_from_asn1, .Lfunc_end5-oid_ext_key_usage_from_asn1
	.cfi_endproc
	.cantunwind
	.fnend
                                        @ -- End function
	.section	.text.mbedtls_oid_get_sig_alg_desc,"ax",%progbits
	.hidden	mbedtls_oid_get_sig_alg_desc    @ -- Begin function mbedtls_oid_get_sig_alg_desc
	.globl	mbedtls_oid_get_sig_alg_desc
	.p2align	1
	.type	mbedtls_oid_get_sig_alg_desc,%function
	.code	16                              @ @mbedtls_oid_get_sig_alg_desc
	.thumb_func
mbedtls_oid_get_sig_alg_desc:
.Lfunc_begin6:
	.loc	3 410 0 is_stmt 1               @ ../../../ThirdParty/mbedTLS/library/oid.c:410:0
	.fnstart
	.cfi_startproc
@ %bb.0:
	@DEBUG_VALUE: mbedtls_oid_get_sig_alg_desc:oid <- $r0
	@DEBUG_VALUE: mbedtls_oid_get_sig_alg_desc:description <- $r1
	.save	{r4, lr}
	push	{r4, lr}
	.cfi_def_cfa_offset 8
	.cfi_offset lr, -4
	.cfi_offset r4, -8
	mov	r4, r1
.Ltmp62:
	@DEBUG_VALUE: mbedtls_oid_get_sig_alg_desc:description <- $r4
	@DEBUG_VALUE: mbedtls_oid_get_sig_alg_desc:oid <- $r0
	@DEBUG_VALUE: mbedtls_oid_get_sig_alg_desc:oid <- $r0
	.loc	3 410 1 prologue_end            @ ../../../ThirdParty/mbedTLS/library/oid.c:410:1
	bl	oid_sig_alg_from_asn1
.Ltmp63:
	@DEBUG_VALUE: mbedtls_oid_get_sig_alg_desc:oid <- [DW_OP_LLVM_entry_value 1] $r0
	@DEBUG_VALUE: mbedtls_oid_get_sig_alg_desc:data <- $r0
	cbz	r0, .LBB6_2
.Ltmp64:
@ %bb.1:
	@DEBUG_VALUE: mbedtls_oid_get_sig_alg_desc:description <- $r4
	@DEBUG_VALUE: mbedtls_oid_get_sig_alg_desc:data <- $r0
	@DEBUG_VALUE: mbedtls_oid_get_sig_alg_desc:oid <- [DW_OP_LLVM_entry_value 1] $r0
	ldr	r0, [r0, #12]
.Ltmp65:
	str	r0, [r4]
	movs	r0, #0
	pop	{r4, pc}
.Ltmp66:
.LBB6_2:
	@DEBUG_VALUE: mbedtls_oid_get_sig_alg_desc:description <- $r4
	@DEBUG_VALUE: mbedtls_oid_get_sig_alg_desc:data <- $r0
	@DEBUG_VALUE: mbedtls_oid_get_sig_alg_desc:oid <- [DW_OP_LLVM_entry_value 1] $r0
	.loc	3 0 1 is_stmt 0                 @ ../../../ThirdParty/mbedTLS/library/oid.c:0:1
	movs	r0, #45
.Ltmp67:
	mvns	r0, r0
	.loc	3 410 1                         @ ../../../ThirdParty/mbedTLS/library/oid.c:410:1
	pop	{r4, pc}
.Ltmp68:
.Lfunc_end6:
	.size	mbedtls_oid_get_sig_alg_desc, .Lfunc_end6-mbedtls_oid_get_sig_alg_desc
	.cfi_endproc
	.cantunwind
	.fnend
                                        @ -- End function
	.section	.text.oid_sig_alg_from_asn1,"ax",%progbits
	.p2align	2                               @ -- Begin function oid_sig_alg_from_asn1
	.type	oid_sig_alg_from_asn1,%function
	.code	16                              @ @oid_sig_alg_from_asn1
	.thumb_func
oid_sig_alg_from_asn1:
.Lfunc_begin7:
	.loc	3 409 0 is_stmt 1               @ ../../../ThirdParty/mbedTLS/library/oid.c:409:0
	.fnstart
	.cfi_startproc
@ %bb.0:
	@DEBUG_VALUE: oid_sig_alg_from_asn1:oid <- $r0
	.save	{r4, r5, r6, r7, lr}
	push	{r4, r5, r6, r7, lr}
	.cfi_def_cfa_offset 20
	.cfi_offset lr, -4
	.cfi_offset r7, -8
	.cfi_offset r6, -12
	.cfi_offset r5, -16
	.cfi_offset r4, -20
	.pad	#4
	sub	sp, #4
	.cfi_def_cfa_offset 24
	movs	r7, #0
	@DEBUG_VALUE: oid_sig_alg_from_asn1:oid <- $r0
.Ltmp69:
	@DEBUG_VALUE: oid_sig_alg_from_asn1:cur <- undef
	@DEBUG_VALUE: oid_sig_alg_from_asn1:p <- undef
	.loc	3 409 1 prologue_end            @ ../../../ThirdParty/mbedTLS/library/oid.c:409:1
	cbz	r0, .LBB7_5
.Ltmp70:
@ %bb.1:
	@DEBUG_VALUE: oid_sig_alg_from_asn1:oid <- $r0
	.loc	3 0 1 is_stmt 0                 @ ../../../ThirdParty/mbedTLS/library/oid.c:0:1
	mov	r5, r0
.Ltmp71:
	@DEBUG_VALUE: oid_sig_alg_from_asn1:oid <- $r5
	ldr	r6, [r0, #4]
	ldr	r4, __arm_cp.7_0
.Ltmp72:
	@DEBUG_VALUE: oid_sig_alg_from_asn1:cur <- $r4
	ldr	r0, __arm_cp.7_1
.Ltmp73:
	@DEBUG_VALUE: oid_sig_alg_from_asn1:p <- undef
	b	.LBB7_3
.Ltmp74:
.LBB7_2:                                @   in Loop: Header=BB7_3 Depth=1
	@DEBUG_VALUE: oid_sig_alg_from_asn1:oid <- $r5
	@DEBUG_VALUE: oid_sig_alg_from_asn1:p <- $r4
	@DEBUG_VALUE: oid_sig_alg_from_asn1:cur <- $r4
	.loc	3 409 1                         @ ../../../ThirdParty/mbedTLS/library/oid.c:409:1
	ldr	r0, [r4, #20]
.Ltmp75:
	.loc	3 409 1                         @ ../../../ThirdParty/mbedTLS/library/oid.c:409:1
	adds	r4, #20
.Ltmp76:
	@DEBUG_VALUE: oid_sig_alg_from_asn1:cur <- $r4
	@DEBUG_VALUE: oid_sig_alg_from_asn1:p <- $r4
	.loc	3 409 1                         @ ../../../ThirdParty/mbedTLS/library/oid.c:409:1
	cbz	r0, .LBB7_6
.Ltmp77:
.LBB7_3:                                @ =>This Inner Loop Header: Depth=1
	@DEBUG_VALUE: oid_sig_alg_from_asn1:oid <- $r5
	@DEBUG_VALUE: oid_sig_alg_from_asn1:cur <- $r4
	@DEBUG_VALUE: oid_sig_alg_from_asn1:p <- $r4
	@DEBUG_VALUE: oid_sig_alg_from_asn1:cur <- $r4
	.loc	3 409 1                         @ ../../../ThirdParty/mbedTLS/library/oid.c:409:1
	ldr	r1, [r4, #4]
	cmp	r1, r6
	bne	.LBB7_2
.Ltmp78:
@ %bb.4:                                @   in Loop: Header=BB7_3 Depth=1
	@DEBUG_VALUE: oid_sig_alg_from_asn1:oid <- $r5
	@DEBUG_VALUE: oid_sig_alg_from_asn1:p <- $r4
	@DEBUG_VALUE: oid_sig_alg_from_asn1:cur <- $r4
	@DEBUG_VALUE: oid_sig_alg_from_asn1:p <- $r4
	ldr	r1, [r5, #8]
	mov	r2, r6
	bl	memcmp
.Ltmp79:
	.loc	3 409 1                         @ ../../../ThirdParty/mbedTLS/library/oid.c:409:1
	cmp	r0, #0
	bne	.LBB7_2
	b	.LBB7_7
.Ltmp80:
.LBB7_5:
	@DEBUG_VALUE: oid_sig_alg_from_asn1:oid <- $r0
	.loc	3 0 0                           @ ../../../ThirdParty/mbedTLS/library/oid.c:0:0
	mov	r4, r7
	b	.LBB7_7
.Ltmp81:
.LBB7_6:
	@DEBUG_VALUE: oid_sig_alg_from_asn1:oid <- $r5
	@DEBUG_VALUE: oid_sig_alg_from_asn1:p <- $r4
	@DEBUG_VALUE: oid_sig_alg_from_asn1:cur <- $r4
	mov	r4, r7
.Ltmp82:
.LBB7_7:
	.loc	3 409 1                         @ ../../../ThirdParty/mbedTLS/library/oid.c:409:1
	mov	r0, r4
	add	sp, #4
	pop	{r4, r5, r6, r7, pc}
.Ltmp83:
	.p2align	2
@ %bb.8:
	.loc	3 0 1                           @ ../../../ThirdParty/mbedTLS/library/oid.c:0:1
__arm_cp.7_0:
	.long	oid_sig_alg
.Lcpi_end6:
	.size	__arm_cp.7_0, .Lcpi_end6-__arm_cp.7_0
__arm_cp.7_1:
	.long	.L.str.110
.Lcpi_end7:
	.size	__arm_cp.7_1, .Lcpi_end7-__arm_cp.7_1
.Lfunc_end7:
	.size	oid_sig_alg_from_asn1, .Lfunc_end7-oid_sig_alg_from_asn1
	.cfi_endproc
	.cantunwind
	.fnend
                                        @ -- End function
	.section	.text.mbedtls_oid_get_sig_alg,"ax",%progbits
	.hidden	mbedtls_oid_get_sig_alg         @ -- Begin function mbedtls_oid_get_sig_alg
	.globl	mbedtls_oid_get_sig_alg
	.p2align	1
	.type	mbedtls_oid_get_sig_alg,%function
	.code	16                              @ @mbedtls_oid_get_sig_alg
	.thumb_func
mbedtls_oid_get_sig_alg:
.Lfunc_begin8:
	.loc	3 411 0 is_stmt 1               @ ../../../ThirdParty/mbedTLS/library/oid.c:411:0
	.fnstart
	.cfi_startproc
@ %bb.0:
	@DEBUG_VALUE: mbedtls_oid_get_sig_alg:oid <- $r0
	@DEBUG_VALUE: mbedtls_oid_get_sig_alg:md_alg <- $r1
	@DEBUG_VALUE: mbedtls_oid_get_sig_alg:pk_alg <- $r2
	.save	{r4, r5, r7, lr}
	push	{r4, r5, r7, lr}
	.cfi_def_cfa_offset 16
	.cfi_offset lr, -4
	.cfi_offset r7, -8
	.cfi_offset r5, -12
	.cfi_offset r4, -16
	mov	r4, r2
	mov	r5, r1
.Ltmp84:
	@DEBUG_VALUE: mbedtls_oid_get_sig_alg:pk_alg <- $r4
	@DEBUG_VALUE: mbedtls_oid_get_sig_alg:md_alg <- $r5
	@DEBUG_VALUE: mbedtls_oid_get_sig_alg:oid <- $r0
	@DEBUG_VALUE: mbedtls_oid_get_sig_alg:oid <- $r0
	.loc	3 411 1 prologue_end            @ ../../../ThirdParty/mbedTLS/library/oid.c:411:1
	bl	oid_sig_alg_from_asn1
.Ltmp85:
	@DEBUG_VALUE: mbedtls_oid_get_sig_alg:oid <- [DW_OP_LLVM_entry_value 1] $r0
	@DEBUG_VALUE: mbedtls_oid_get_sig_alg:data <- $r0
	cbz	r0, .LBB8_2
.Ltmp86:
@ %bb.1:
	@DEBUG_VALUE: mbedtls_oid_get_sig_alg:md_alg <- $r5
	@DEBUG_VALUE: mbedtls_oid_get_sig_alg:pk_alg <- $r4
	@DEBUG_VALUE: mbedtls_oid_get_sig_alg:data <- $r0
	@DEBUG_VALUE: mbedtls_oid_get_sig_alg:oid <- [DW_OP_LLVM_entry_value 1] $r0
	ldrb	r1, [r0, #16]
	strb	r1, [r5]
	ldrb	r0, [r0, #17]
.Ltmp87:
	strb	r0, [r4]
	movs	r0, #0
	pop	{r4, r5, r7, pc}
.Ltmp88:
.LBB8_2:
	@DEBUG_VALUE: mbedtls_oid_get_sig_alg:md_alg <- $r5
	@DEBUG_VALUE: mbedtls_oid_get_sig_alg:pk_alg <- $r4
	@DEBUG_VALUE: mbedtls_oid_get_sig_alg:data <- $r0
	@DEBUG_VALUE: mbedtls_oid_get_sig_alg:oid <- [DW_OP_LLVM_entry_value 1] $r0
	.loc	3 0 1 is_stmt 0                 @ ../../../ThirdParty/mbedTLS/library/oid.c:0:1
	movs	r0, #45
.Ltmp89:
	mvns	r0, r0
	.loc	3 411 1                         @ ../../../ThirdParty/mbedTLS/library/oid.c:411:1
	pop	{r4, r5, r7, pc}
.Ltmp90:
.Lfunc_end8:
	.size	mbedtls_oid_get_sig_alg, .Lfunc_end8-mbedtls_oid_get_sig_alg
	.cfi_endproc
	.cantunwind
	.fnend
                                        @ -- End function
	.section	.text.mbedtls_oid_get_oid_by_sig_alg,"ax",%progbits
	.hidden	mbedtls_oid_get_oid_by_sig_alg  @ -- Begin function mbedtls_oid_get_oid_by_sig_alg
	.globl	mbedtls_oid_get_oid_by_sig_alg
	.p2align	2
	.type	mbedtls_oid_get_oid_by_sig_alg,%function
	.code	16                              @ @mbedtls_oid_get_oid_by_sig_alg
	.thumb_func
mbedtls_oid_get_oid_by_sig_alg:
.Lfunc_begin9:
	.loc	3 412 0 is_stmt 1               @ ../../../ThirdParty/mbedTLS/library/oid.c:412:0
	.fnstart
	.cfi_startproc
@ %bb.0:
	@DEBUG_VALUE: mbedtls_oid_get_oid_by_sig_alg:pk_alg <- $r0
	@DEBUG_VALUE: mbedtls_oid_get_oid_by_sig_alg:md_alg <- $r1
	@DEBUG_VALUE: mbedtls_oid_get_oid_by_sig_alg:md_alg <- $r1
	@DEBUG_VALUE: mbedtls_oid_get_oid_by_sig_alg:oid <- $r2
	@DEBUG_VALUE: mbedtls_oid_get_oid_by_sig_alg:oid <- $r2
	@DEBUG_VALUE: mbedtls_oid_get_oid_by_sig_alg:olen <- $r3
	@DEBUG_VALUE: mbedtls_oid_get_oid_by_sig_alg:olen <- $r3
	.save	{r4, r5, r6, r7, lr}
	push	{r4, r5, r6, r7, lr}
	.cfi_def_cfa_offset 20
	.cfi_offset lr, -4
	.cfi_offset r7, -8
	.cfi_offset r6, -12
	.cfi_offset r5, -16
	.cfi_offset r4, -20
	mov	r4, r0
.Ltmp91:
	@DEBUG_VALUE: mbedtls_oid_get_oid_by_sig_alg:pk_alg <- $r4
	ldr	r5, __arm_cp.9_0
	adds	r5, #20
	movs	r0, #3
	mvns	r0, r0
	ldr	r6, __arm_cp.9_1
.Ltmp92:
	@DEBUG_VALUE: mbedtls_oid_get_oid_by_sig_alg:cur <- undef
	b	.LBB9_2
.Ltmp93:
.LBB9_1:                                @   in Loop: Header=BB9_2 Depth=1
	@DEBUG_VALUE: mbedtls_oid_get_oid_by_sig_alg:pk_alg <- $r4
	@DEBUG_VALUE: mbedtls_oid_get_oid_by_sig_alg:olen <- $r3
	@DEBUG_VALUE: mbedtls_oid_get_oid_by_sig_alg:oid <- $r2
	@DEBUG_VALUE: mbedtls_oid_get_oid_by_sig_alg:md_alg <- $r1
	.loc	3 412 1 prologue_end            @ ../../../ThirdParty/mbedTLS/library/oid.c:412:1
	ldr	r6, [r5]
.Ltmp94:
	@DEBUG_VALUE: mbedtls_oid_get_oid_by_sig_alg:cur <- [DW_OP_plus_uconst 20, DW_OP_stack_value] undef
	adds	r5, #20
	cbz	r6, .LBB9_5
.Ltmp95:
.LBB9_2:                                @ =>This Inner Loop Header: Depth=1
	@DEBUG_VALUE: mbedtls_oid_get_oid_by_sig_alg:pk_alg <- $r4
	@DEBUG_VALUE: mbedtls_oid_get_oid_by_sig_alg:olen <- $r3
	@DEBUG_VALUE: mbedtls_oid_get_oid_by_sig_alg:oid <- $r2
	@DEBUG_VALUE: mbedtls_oid_get_oid_by_sig_alg:md_alg <- $r1
	@DEBUG_VALUE: mbedtls_oid_get_oid_by_sig_alg:cur <- undef
	.loc	3 412 1 is_stmt 0               @ ../../../ThirdParty/mbedTLS/library/oid.c:412:1
	adds	r7, r0, r5
	ldrb	r7, [r7, #1]
	cmp	r7, r4
	bne	.LBB9_1
.Ltmp96:
@ %bb.3:                                @   in Loop: Header=BB9_2 Depth=1
	@DEBUG_VALUE: mbedtls_oid_get_oid_by_sig_alg:pk_alg <- $r4
	@DEBUG_VALUE: mbedtls_oid_get_oid_by_sig_alg:olen <- $r3
	@DEBUG_VALUE: mbedtls_oid_get_oid_by_sig_alg:oid <- $r2
	@DEBUG_VALUE: mbedtls_oid_get_oid_by_sig_alg:md_alg <- $r1
	ldrb	r7, [r5, r0]
.Ltmp97:
	.loc	3 412 1                         @ ../../../ThirdParty/mbedTLS/library/oid.c:412:1
	cmp	r7, r1
	bne	.LBB9_1
.Ltmp98:
@ %bb.4:
	@DEBUG_VALUE: mbedtls_oid_get_oid_by_sig_alg:pk_alg <- $r4
	@DEBUG_VALUE: mbedtls_oid_get_oid_by_sig_alg:olen <- $r3
	@DEBUG_VALUE: mbedtls_oid_get_oid_by_sig_alg:oid <- $r2
	@DEBUG_VALUE: mbedtls_oid_get_oid_by_sig_alg:md_alg <- $r1
	@DEBUG_VALUE: mbedtls_oid_get_oid_by_sig_alg:cur <- undef
	.loc	3 412 1                         @ ../../../ThirdParty/mbedTLS/library/oid.c:412:1
	str	r6, [r2]
	lsls	r0, r0, #2
	ldr	r0, [r5, r0]
	str	r0, [r3]
	movs	r0, #0
.Ltmp99:
	.loc	3 412 1                         @ ../../../ThirdParty/mbedTLS/library/oid.c:412:1
	pop	{r4, r5, r6, r7, pc}
.Ltmp100:
.LBB9_5:
	@DEBUG_VALUE: mbedtls_oid_get_oid_by_sig_alg:pk_alg <- $r4
	@DEBUG_VALUE: mbedtls_oid_get_oid_by_sig_alg:olen <- $r3
	@DEBUG_VALUE: mbedtls_oid_get_oid_by_sig_alg:oid <- $r2
	@DEBUG_VALUE: mbedtls_oid_get_oid_by_sig_alg:md_alg <- $r1
	.loc	3 0 0                           @ ../../../ThirdParty/mbedTLS/library/oid.c:0:0
	subs	r0, #42
	.loc	3 412 1                         @ ../../../ThirdParty/mbedTLS/library/oid.c:412:1
	pop	{r4, r5, r6, r7, pc}
.Ltmp101:
	.p2align	2
@ %bb.6:
	.loc	3 0 1                           @ ../../../ThirdParty/mbedTLS/library/oid.c:0:1
__arm_cp.9_0:
	.long	oid_sig_alg
.Lcpi_end8:
	.size	__arm_cp.9_0, .Lcpi_end8-__arm_cp.9_0
__arm_cp.9_1:
	.long	.L.str.110
.Lcpi_end9:
	.size	__arm_cp.9_1, .Lcpi_end9-__arm_cp.9_1
.Lfunc_end9:
	.size	mbedtls_oid_get_oid_by_sig_alg, .Lfunc_end9-mbedtls_oid_get_oid_by_sig_alg
	.cfi_endproc
	.cantunwind
	.fnend
                                        @ -- End function
	.section	.text.mbedtls_oid_get_pk_alg,"ax",%progbits
	.hidden	mbedtls_oid_get_pk_alg          @ -- Begin function mbedtls_oid_get_pk_alg
	.globl	mbedtls_oid_get_pk_alg
	.p2align	1
	.type	mbedtls_oid_get_pk_alg,%function
	.code	16                              @ @mbedtls_oid_get_pk_alg
	.thumb_func
mbedtls_oid_get_pk_alg:
.Lfunc_begin10:
	.loc	3 444 0 is_stmt 1               @ ../../../ThirdParty/mbedTLS/library/oid.c:444:0
	.fnstart
	.cfi_startproc
@ %bb.0:
	@DEBUG_VALUE: mbedtls_oid_get_pk_alg:oid <- $r0
	@DEBUG_VALUE: mbedtls_oid_get_pk_alg:pk_alg <- $r1
	.save	{r4, lr}
	push	{r4, lr}
	.cfi_def_cfa_offset 8
	.cfi_offset lr, -4
	.cfi_offset r4, -8
	mov	r4, r1
.Ltmp102:
	@DEBUG_VALUE: mbedtls_oid_get_pk_alg:pk_alg <- $r4
	@DEBUG_VALUE: mbedtls_oid_get_pk_alg:oid <- $r0
	@DEBUG_VALUE: mbedtls_oid_get_pk_alg:oid <- $r0
	.loc	3 444 1 prologue_end            @ ../../../ThirdParty/mbedTLS/library/oid.c:444:1
	bl	oid_pk_alg_from_asn1
.Ltmp103:
	@DEBUG_VALUE: mbedtls_oid_get_pk_alg:oid <- [DW_OP_LLVM_entry_value 1] $r0
	@DEBUG_VALUE: mbedtls_oid_get_pk_alg:data <- $r0
	cbz	r0, .LBB10_2
.Ltmp104:
@ %bb.1:
	@DEBUG_VALUE: mbedtls_oid_get_pk_alg:pk_alg <- $r4
	@DEBUG_VALUE: mbedtls_oid_get_pk_alg:data <- $r0
	@DEBUG_VALUE: mbedtls_oid_get_pk_alg:oid <- [DW_OP_LLVM_entry_value 1] $r0
	ldrb	r0, [r0, #16]
.Ltmp105:
	strb	r0, [r4]
	movs	r0, #0
	pop	{r4, pc}
.Ltmp106:
.LBB10_2:
	@DEBUG_VALUE: mbedtls_oid_get_pk_alg:pk_alg <- $r4
	@DEBUG_VALUE: mbedtls_oid_get_pk_alg:data <- $r0
	@DEBUG_VALUE: mbedtls_oid_get_pk_alg:oid <- [DW_OP_LLVM_entry_value 1] $r0
	.loc	3 0 1 is_stmt 0                 @ ../../../ThirdParty/mbedTLS/library/oid.c:0:1
	movs	r0, #45
.Ltmp107:
	mvns	r0, r0
	.loc	3 444 1                         @ ../../../ThirdParty/mbedTLS/library/oid.c:444:1
	pop	{r4, pc}
.Ltmp108:
.Lfunc_end10:
	.size	mbedtls_oid_get_pk_alg, .Lfunc_end10-mbedtls_oid_get_pk_alg
	.cfi_endproc
	.cantunwind
	.fnend
                                        @ -- End function
	.section	.text.oid_pk_alg_from_asn1,"ax",%progbits
	.p2align	2                               @ -- Begin function oid_pk_alg_from_asn1
	.type	oid_pk_alg_from_asn1,%function
	.code	16                              @ @oid_pk_alg_from_asn1
	.thumb_func
oid_pk_alg_from_asn1:
.Lfunc_begin11:
	.loc	3 443 0 is_stmt 1               @ ../../../ThirdParty/mbedTLS/library/oid.c:443:0
	.fnstart
	.cfi_startproc
@ %bb.0:
	@DEBUG_VALUE: oid_pk_alg_from_asn1:oid <- $r0
	.save	{r4, r5, r6, r7, lr}
	push	{r4, r5, r6, r7, lr}
	.cfi_def_cfa_offset 20
	.cfi_offset lr, -4
	.cfi_offset r7, -8
	.cfi_offset r6, -12
	.cfi_offset r5, -16
	.cfi_offset r4, -20
	.pad	#4
	sub	sp, #4
	.cfi_def_cfa_offset 24
	movs	r7, #0
	@DEBUG_VALUE: oid_pk_alg_from_asn1:oid <- $r0
.Ltmp109:
	@DEBUG_VALUE: oid_pk_alg_from_asn1:cur <- undef
	@DEBUG_VALUE: oid_pk_alg_from_asn1:p <- undef
	.loc	3 443 1 prologue_end            @ ../../../ThirdParty/mbedTLS/library/oid.c:443:1
	cbz	r0, .LBB11_5
.Ltmp110:
@ %bb.1:
	@DEBUG_VALUE: oid_pk_alg_from_asn1:oid <- $r0
	.loc	3 0 1 is_stmt 0                 @ ../../../ThirdParty/mbedTLS/library/oid.c:0:1
	mov	r5, r0
.Ltmp111:
	@DEBUG_VALUE: oid_pk_alg_from_asn1:oid <- $r5
	ldr	r6, [r0, #4]
	ldr	r4, __arm_cp.11_0
.Ltmp112:
	@DEBUG_VALUE: oid_pk_alg_from_asn1:cur <- $r4
	ldr	r0, __arm_cp.11_1
.Ltmp113:
	@DEBUG_VALUE: oid_pk_alg_from_asn1:p <- undef
	b	.LBB11_3
.Ltmp114:
.LBB11_2:                               @   in Loop: Header=BB11_3 Depth=1
	@DEBUG_VALUE: oid_pk_alg_from_asn1:oid <- $r5
	@DEBUG_VALUE: oid_pk_alg_from_asn1:p <- $r4
	@DEBUG_VALUE: oid_pk_alg_from_asn1:cur <- $r4
	.loc	3 443 1                         @ ../../../ThirdParty/mbedTLS/library/oid.c:443:1
	ldr	r0, [r4, #20]
.Ltmp115:
	.loc	3 443 1                         @ ../../../ThirdParty/mbedTLS/library/oid.c:443:1
	adds	r4, #20
.Ltmp116:
	@DEBUG_VALUE: oid_pk_alg_from_asn1:cur <- $r4
	@DEBUG_VALUE: oid_pk_alg_from_asn1:p <- $r4
	.loc	3 443 1                         @ ../../../ThirdParty/mbedTLS/library/oid.c:443:1
	cbz	r0, .LBB11_6
.Ltmp117:
.LBB11_3:                               @ =>This Inner Loop Header: Depth=1
	@DEBUG_VALUE: oid_pk_alg_from_asn1:oid <- $r5
	@DEBUG_VALUE: oid_pk_alg_from_asn1:cur <- $r4
	@DEBUG_VALUE: oid_pk_alg_from_asn1:p <- $r4
	@DEBUG_VALUE: oid_pk_alg_from_asn1:cur <- $r4
	.loc	3 443 1                         @ ../../../ThirdParty/mbedTLS/library/oid.c:443:1
	ldr	r1, [r4, #4]
	cmp	r1, r6
	bne	.LBB11_2
.Ltmp118:
@ %bb.4:                                @   in Loop: Header=BB11_3 Depth=1
	@DEBUG_VALUE: oid_pk_alg_from_asn1:oid <- $r5
	@DEBUG_VALUE: oid_pk_alg_from_asn1:p <- $r4
	@DEBUG_VALUE: oid_pk_alg_from_asn1:cur <- $r4
	@DEBUG_VALUE: oid_pk_alg_from_asn1:p <- $r4
	ldr	r1, [r5, #8]
	mov	r2, r6
	bl	memcmp
.Ltmp119:
	.loc	3 443 1                         @ ../../../ThirdParty/mbedTLS/library/oid.c:443:1
	cmp	r0, #0
	bne	.LBB11_2
	b	.LBB11_7
.Ltmp120:
.LBB11_5:
	@DEBUG_VALUE: oid_pk_alg_from_asn1:oid <- $r0
	.loc	3 0 0                           @ ../../../ThirdParty/mbedTLS/library/oid.c:0:0
	mov	r4, r7
	b	.LBB11_7
.Ltmp121:
.LBB11_6:
	@DEBUG_VALUE: oid_pk_alg_from_asn1:oid <- $r5
	@DEBUG_VALUE: oid_pk_alg_from_asn1:p <- $r4
	@DEBUG_VALUE: oid_pk_alg_from_asn1:cur <- $r4
	mov	r4, r7
.Ltmp122:
.LBB11_7:
	.loc	3 443 1                         @ ../../../ThirdParty/mbedTLS/library/oid.c:443:1
	mov	r0, r4
	add	sp, #4
	pop	{r4, r5, r6, r7, pc}
.Ltmp123:
	.p2align	2
@ %bb.8:
	.loc	3 0 1                           @ ../../../ThirdParty/mbedTLS/library/oid.c:0:1
__arm_cp.11_0:
	.long	oid_pk_alg
.Lcpi_end10:
	.size	__arm_cp.11_0, .Lcpi_end10-__arm_cp.11_0
__arm_cp.11_1:
	.long	.L.str.146
.Lcpi_end11:
	.size	__arm_cp.11_1, .Lcpi_end11-__arm_cp.11_1
.Lfunc_end11:
	.size	oid_pk_alg_from_asn1, .Lfunc_end11-oid_pk_alg_from_asn1
	.cfi_endproc
	.cantunwind
	.fnend
                                        @ -- End function
	.section	.text.mbedtls_oid_get_oid_by_pk_alg,"ax",%progbits
	.hidden	mbedtls_oid_get_oid_by_pk_alg   @ -- Begin function mbedtls_oid_get_oid_by_pk_alg
	.globl	mbedtls_oid_get_oid_by_pk_alg
	.p2align	2
	.type	mbedtls_oid_get_oid_by_pk_alg,%function
	.code	16                              @ @mbedtls_oid_get_oid_by_pk_alg
	.thumb_func
mbedtls_oid_get_oid_by_pk_alg:
.Lfunc_begin12:
	.loc	3 445 0 is_stmt 1               @ ../../../ThirdParty/mbedTLS/library/oid.c:445:0
	.fnstart
	.cfi_startproc
@ %bb.0:
	@DEBUG_VALUE: mbedtls_oid_get_oid_by_pk_alg:pk_alg <- $r0
	@DEBUG_VALUE: mbedtls_oid_get_oid_by_pk_alg:oid <- $r1
	@DEBUG_VALUE: mbedtls_oid_get_oid_by_pk_alg:olen <- $r2
	@DEBUG_VALUE: mbedtls_oid_get_oid_by_pk_alg:olen <- $r2
	@DEBUG_VALUE: mbedtls_oid_get_oid_by_pk_alg:oid <- $r1
	@DEBUG_VALUE: mbedtls_oid_get_oid_by_pk_alg:pk_alg <- $r0
	.save	{r4, r5, r6, lr}
	push	{r4, r5, r6, lr}
	.cfi_def_cfa_offset 16
	.cfi_offset lr, -4
	.cfi_offset r6, -8
	.cfi_offset r5, -12
	.cfi_offset r4, -16
.Ltmp124:
	@DEBUG_VALUE: mbedtls_oid_get_oid_by_pk_alg:cur <- undef
	.loc	3 445 1 prologue_end            @ ../../../ThirdParty/mbedTLS/library/oid.c:445:1
	cmp	r0, #1
	bne	.LBB12_2
.Ltmp125:
@ %bb.1:
	@DEBUG_VALUE: mbedtls_oid_get_oid_by_pk_alg:olen <- $r2
	@DEBUG_VALUE: mbedtls_oid_get_oid_by_pk_alg:oid <- $r1
	@DEBUG_VALUE: mbedtls_oid_get_oid_by_pk_alg:pk_alg <- $r0
	.loc	3 0 1 is_stmt 0                 @ ../../../ThirdParty/mbedTLS/library/oid.c:0:1
	ldr	r4, __arm_cp.12_0
.Ltmp126:
	@DEBUG_VALUE: mbedtls_oid_get_oid_by_pk_alg:cur <- $r4
	ldr	r5, __arm_cp.12_1
	b	.LBB12_5
.Ltmp127:
.LBB12_2:
	@DEBUG_VALUE: mbedtls_oid_get_oid_by_pk_alg:olen <- $r2
	@DEBUG_VALUE: mbedtls_oid_get_oid_by_pk_alg:oid <- $r1
	@DEBUG_VALUE: mbedtls_oid_get_oid_by_pk_alg:pk_alg <- $r0
	mov	r3, r0
.Ltmp128:
	@DEBUG_VALUE: mbedtls_oid_get_oid_by_pk_alg:pk_alg <- $r3
	ldr	r4, __arm_cp.12_0
	movs	r0, #45
	mvns	r0, r0
.Ltmp129:
.LBB12_3:                               @ =>This Inner Loop Header: Depth=1
	@DEBUG_VALUE: mbedtls_oid_get_oid_by_pk_alg:pk_alg <- $r3
	@DEBUG_VALUE: mbedtls_oid_get_oid_by_pk_alg:olen <- $r2
	@DEBUG_VALUE: mbedtls_oid_get_oid_by_pk_alg:oid <- $r1
	@DEBUG_VALUE: mbedtls_oid_get_oid_by_pk_alg:cur <- $r4
	.loc	3 445 1                         @ ../../../ThirdParty/mbedTLS/library/oid.c:445:1
	ldr	r5, [r4, #20]
.Ltmp130:
	@DEBUG_VALUE: mbedtls_oid_get_oid_by_pk_alg:cur <- undef
	cbz	r5, .LBB12_6
.Ltmp131:
@ %bb.4:                                @   in Loop: Header=BB12_3 Depth=1
	@DEBUG_VALUE: mbedtls_oid_get_oid_by_pk_alg:pk_alg <- $r3
	@DEBUG_VALUE: mbedtls_oid_get_oid_by_pk_alg:olen <- $r2
	@DEBUG_VALUE: mbedtls_oid_get_oid_by_pk_alg:oid <- $r1
	.loc	3 0 1                           @ ../../../ThirdParty/mbedTLS/library/oid.c:0:1
	movs	r6, #36
.Ltmp132:
	.loc	3 445 1                         @ ../../../ThirdParty/mbedTLS/library/oid.c:445:1
	ldrb	r6, [r4, r6]
.Ltmp133:
	.loc	3 0 0                           @ ../../../ThirdParty/mbedTLS/library/oid.c:0:0
	adds	r4, #20
.Ltmp134:
	@DEBUG_VALUE: mbedtls_oid_get_oid_by_pk_alg:cur <- $r4
	.loc	3 445 1                         @ ../../../ThirdParty/mbedTLS/library/oid.c:445:1
	cmp	r6, r3
	bne	.LBB12_3
.Ltmp135:
.LBB12_5:
	@DEBUG_VALUE: mbedtls_oid_get_oid_by_pk_alg:cur <- $r4
	@DEBUG_VALUE: mbedtls_oid_get_oid_by_pk_alg:olen <- $r2
	@DEBUG_VALUE: mbedtls_oid_get_oid_by_pk_alg:oid <- $r1
	@DEBUG_VALUE: mbedtls_oid_get_oid_by_pk_alg:cur <- $r4
	.loc	3 445 1                         @ ../../../ThirdParty/mbedTLS/library/oid.c:445:1
	str	r5, [r1]
	ldr	r0, [r4, #4]
	str	r0, [r2]
	movs	r0, #0
.Ltmp136:
.LBB12_6:
	@DEBUG_VALUE: mbedtls_oid_get_oid_by_pk_alg:olen <- $r2
	@DEBUG_VALUE: mbedtls_oid_get_oid_by_pk_alg:oid <- $r1
	.loc	3 445 1                         @ ../../../ThirdParty/mbedTLS/library/oid.c:445:1
	pop	{r4, r5, r6, pc}
.Ltmp137:
	.p2align	2
@ %bb.7:
	.loc	3 0 1                           @ ../../../ThirdParty/mbedTLS/library/oid.c:0:1
__arm_cp.12_0:
	.long	oid_pk_alg
.Lcpi_end12:
	.size	__arm_cp.12_0, .Lcpi_end12-__arm_cp.12_0
__arm_cp.12_1:
	.long	.L.str.146
.Lcpi_end13:
	.size	__arm_cp.12_1, .Lcpi_end13-__arm_cp.12_1
.Lfunc_end12:
	.size	mbedtls_oid_get_oid_by_pk_alg, .Lfunc_end12-mbedtls_oid_get_oid_by_pk_alg
	.cfi_endproc
	.cantunwind
	.fnend
                                        @ -- End function
	.section	.text.mbedtls_oid_get_ec_grp,"ax",%progbits
	.hidden	mbedtls_oid_get_ec_grp          @ -- Begin function mbedtls_oid_get_ec_grp
	.globl	mbedtls_oid_get_ec_grp
	.p2align	1
	.type	mbedtls_oid_get_ec_grp,%function
	.code	16                              @ @mbedtls_oid_get_ec_grp
	.thumb_func
mbedtls_oid_get_ec_grp:
.Lfunc_begin13:
	.loc	3 531 0 is_stmt 1               @ ../../../ThirdParty/mbedTLS/library/oid.c:531:0
	.fnstart
	.cfi_startproc
@ %bb.0:
	@DEBUG_VALUE: mbedtls_oid_get_ec_grp:oid <- $r0
	@DEBUG_VALUE: mbedtls_oid_get_ec_grp:grp_id <- $r1
	.save	{r4, lr}
	push	{r4, lr}
	.cfi_def_cfa_offset 8
	.cfi_offset lr, -4
	.cfi_offset r4, -8
	mov	r4, r1
.Ltmp138:
	@DEBUG_VALUE: mbedtls_oid_get_ec_grp:grp_id <- $r4
	@DEBUG_VALUE: mbedtls_oid_get_ec_grp:oid <- $r0
	@DEBUG_VALUE: mbedtls_oid_get_ec_grp:oid <- $r0
	.loc	3 531 1 prologue_end            @ ../../../ThirdParty/mbedTLS/library/oid.c:531:1
	bl	oid_grp_id_from_asn1
.Ltmp139:
	@DEBUG_VALUE: mbedtls_oid_get_ec_grp:oid <- [DW_OP_LLVM_entry_value 1] $r0
	@DEBUG_VALUE: mbedtls_oid_get_ec_grp:data <- $r0
	cbz	r0, .LBB13_2
.Ltmp140:
@ %bb.1:
	@DEBUG_VALUE: mbedtls_oid_get_ec_grp:grp_id <- $r4
	@DEBUG_VALUE: mbedtls_oid_get_ec_grp:data <- $r0
	@DEBUG_VALUE: mbedtls_oid_get_ec_grp:oid <- [DW_OP_LLVM_entry_value 1] $r0
	ldrb	r0, [r0, #16]
.Ltmp141:
	strb	r0, [r4]
	movs	r0, #0
	pop	{r4, pc}
.Ltmp142:
.LBB13_2:
	@DEBUG_VALUE: mbedtls_oid_get_ec_grp:grp_id <- $r4
	@DEBUG_VALUE: mbedtls_oid_get_ec_grp:data <- $r0
	@DEBUG_VALUE: mbedtls_oid_get_ec_grp:oid <- [DW_OP_LLVM_entry_value 1] $r0
	.loc	3 0 1 is_stmt 0                 @ ../../../ThirdParty/mbedTLS/library/oid.c:0:1
	movs	r0, #45
.Ltmp143:
	mvns	r0, r0
	.loc	3 531 1                         @ ../../../ThirdParty/mbedTLS/library/oid.c:531:1
	pop	{r4, pc}
.Ltmp144:
.Lfunc_end13:
	.size	mbedtls_oid_get_ec_grp, .Lfunc_end13-mbedtls_oid_get_ec_grp
	.cfi_endproc
	.cantunwind
	.fnend
                                        @ -- End function
	.section	.text.oid_grp_id_from_asn1,"ax",%progbits
	.p2align	2                               @ -- Begin function oid_grp_id_from_asn1
	.type	oid_grp_id_from_asn1,%function
	.code	16                              @ @oid_grp_id_from_asn1
	.thumb_func
oid_grp_id_from_asn1:
.Lfunc_begin14:
	.loc	3 530 0 is_stmt 1               @ ../../../ThirdParty/mbedTLS/library/oid.c:530:0
	.fnstart
	.cfi_startproc
@ %bb.0:
	@DEBUG_VALUE: oid_grp_id_from_asn1:oid <- $r0
	.save	{r4, r5, r6, r7, lr}
	push	{r4, r5, r6, r7, lr}
	.cfi_def_cfa_offset 20
	.cfi_offset lr, -4
	.cfi_offset r7, -8
	.cfi_offset r6, -12
	.cfi_offset r5, -16
	.cfi_offset r4, -20
	.pad	#4
	sub	sp, #4
	.cfi_def_cfa_offset 24
	movs	r7, #0
	@DEBUG_VALUE: oid_grp_id_from_asn1:oid <- $r0
.Ltmp145:
	@DEBUG_VALUE: oid_grp_id_from_asn1:cur <- undef
	@DEBUG_VALUE: oid_grp_id_from_asn1:p <- undef
	.loc	3 530 1 prologue_end            @ ../../../ThirdParty/mbedTLS/library/oid.c:530:1
	cbz	r0, .LBB14_5
.Ltmp146:
@ %bb.1:
	@DEBUG_VALUE: oid_grp_id_from_asn1:oid <- $r0
	.loc	3 0 1 is_stmt 0                 @ ../../../ThirdParty/mbedTLS/library/oid.c:0:1
	mov	r5, r0
.Ltmp147:
	@DEBUG_VALUE: oid_grp_id_from_asn1:oid <- $r5
	ldr	r6, [r0, #4]
	ldr	r4, __arm_cp.14_0
.Ltmp148:
	@DEBUG_VALUE: oid_grp_id_from_asn1:cur <- $r4
	ldr	r0, __arm_cp.14_1
.Ltmp149:
	@DEBUG_VALUE: oid_grp_id_from_asn1:p <- undef
	b	.LBB14_3
.Ltmp150:
.LBB14_2:                               @   in Loop: Header=BB14_3 Depth=1
	@DEBUG_VALUE: oid_grp_id_from_asn1:oid <- $r5
	@DEBUG_VALUE: oid_grp_id_from_asn1:p <- $r4
	@DEBUG_VALUE: oid_grp_id_from_asn1:cur <- $r4
	.loc	3 530 1                         @ ../../../ThirdParty/mbedTLS/library/oid.c:530:1
	ldr	r0, [r4, #20]
.Ltmp151:
	.loc	3 530 1                         @ ../../../ThirdParty/mbedTLS/library/oid.c:530:1
	adds	r4, #20
.Ltmp152:
	@DEBUG_VALUE: oid_grp_id_from_asn1:cur <- $r4
	@DEBUG_VALUE: oid_grp_id_from_asn1:p <- $r4
	.loc	3 530 1                         @ ../../../ThirdParty/mbedTLS/library/oid.c:530:1
	cbz	r0, .LBB14_6
.Ltmp153:
.LBB14_3:                               @ =>This Inner Loop Header: Depth=1
	@DEBUG_VALUE: oid_grp_id_from_asn1:oid <- $r5
	@DEBUG_VALUE: oid_grp_id_from_asn1:cur <- $r4
	@DEBUG_VALUE: oid_grp_id_from_asn1:p <- $r4
	@DEBUG_VALUE: oid_grp_id_from_asn1:cur <- $r4
	.loc	3 530 1                         @ ../../../ThirdParty/mbedTLS/library/oid.c:530:1
	ldr	r1, [r4, #4]
	cmp	r1, r6
	bne	.LBB14_2
.Ltmp154:
@ %bb.4:                                @   in Loop: Header=BB14_3 Depth=1
	@DEBUG_VALUE: oid_grp_id_from_asn1:oid <- $r5
	@DEBUG_VALUE: oid_grp_id_from_asn1:p <- $r4
	@DEBUG_VALUE: oid_grp_id_from_asn1:cur <- $r4
	@DEBUG_VALUE: oid_grp_id_from_asn1:p <- $r4
	ldr	r1, [r5, #8]
	mov	r2, r6
	bl	memcmp
.Ltmp155:
	.loc	3 530 1                         @ ../../../ThirdParty/mbedTLS/library/oid.c:530:1
	cmp	r0, #0
	bne	.LBB14_2
	b	.LBB14_7
.Ltmp156:
.LBB14_5:
	@DEBUG_VALUE: oid_grp_id_from_asn1:oid <- $r0
	.loc	3 0 0                           @ ../../../ThirdParty/mbedTLS/library/oid.c:0:0
	mov	r4, r7
	b	.LBB14_7
.Ltmp157:
.LBB14_6:
	@DEBUG_VALUE: oid_grp_id_from_asn1:oid <- $r5
	@DEBUG_VALUE: oid_grp_id_from_asn1:p <- $r4
	@DEBUG_VALUE: oid_grp_id_from_asn1:cur <- $r4
	mov	r4, r7
.Ltmp158:
.LBB14_7:
	.loc	3 530 1                         @ ../../../ThirdParty/mbedTLS/library/oid.c:530:1
	mov	r0, r4
	add	sp, #4
	pop	{r4, r5, r6, r7, pc}
.Ltmp159:
	.p2align	2
@ %bb.8:
	.loc	3 0 1                           @ ../../../ThirdParty/mbedTLS/library/oid.c:0:1
__arm_cp.14_0:
	.long	oid_ecp_grp
.Lcpi_end14:
	.size	__arm_cp.14_0, .Lcpi_end14-__arm_cp.14_0
__arm_cp.14_1:
	.long	.L.str.155
.Lcpi_end15:
	.size	__arm_cp.14_1, .Lcpi_end15-__arm_cp.14_1
.Lfunc_end14:
	.size	oid_grp_id_from_asn1, .Lfunc_end14-oid_grp_id_from_asn1
	.cfi_endproc
	.cantunwind
	.fnend
                                        @ -- End function
	.section	.text.mbedtls_oid_get_oid_by_ec_grp,"ax",%progbits
	.hidden	mbedtls_oid_get_oid_by_ec_grp   @ -- Begin function mbedtls_oid_get_oid_by_ec_grp
	.globl	mbedtls_oid_get_oid_by_ec_grp
	.p2align	2
	.type	mbedtls_oid_get_oid_by_ec_grp,%function
	.code	16                              @ @mbedtls_oid_get_oid_by_ec_grp
	.thumb_func
mbedtls_oid_get_oid_by_ec_grp:
.Lfunc_begin15:
	.loc	3 532 0 is_stmt 1               @ ../../../ThirdParty/mbedTLS/library/oid.c:532:0
	.fnstart
	.cfi_startproc
@ %bb.0:
	@DEBUG_VALUE: mbedtls_oid_get_oid_by_ec_grp:grp_id <- $r0
	@DEBUG_VALUE: mbedtls_oid_get_oid_by_ec_grp:oid <- $r1
	@DEBUG_VALUE: mbedtls_oid_get_oid_by_ec_grp:olen <- $r2
	@DEBUG_VALUE: mbedtls_oid_get_oid_by_ec_grp:olen <- $r2
	@DEBUG_VALUE: mbedtls_oid_get_oid_by_ec_grp:oid <- $r1
	@DEBUG_VALUE: mbedtls_oid_get_oid_by_ec_grp:grp_id <- $r0
	.save	{r4, r5, r6, lr}
	push	{r4, r5, r6, lr}
	.cfi_def_cfa_offset 16
	.cfi_offset lr, -4
	.cfi_offset r6, -8
	.cfi_offset r5, -12
	.cfi_offset r4, -16
.Ltmp160:
	@DEBUG_VALUE: mbedtls_oid_get_oid_by_ec_grp:cur <- undef
	.loc	3 532 1 prologue_end            @ ../../../ThirdParty/mbedTLS/library/oid.c:532:1
	cmp	r0, #1
	bne	.LBB15_2
.Ltmp161:
@ %bb.1:
	@DEBUG_VALUE: mbedtls_oid_get_oid_by_ec_grp:olen <- $r2
	@DEBUG_VALUE: mbedtls_oid_get_oid_by_ec_grp:oid <- $r1
	@DEBUG_VALUE: mbedtls_oid_get_oid_by_ec_grp:grp_id <- $r0
	.loc	3 0 1 is_stmt 0                 @ ../../../ThirdParty/mbedTLS/library/oid.c:0:1
	ldr	r4, __arm_cp.15_0
.Ltmp162:
	@DEBUG_VALUE: mbedtls_oid_get_oid_by_ec_grp:cur <- $r4
	ldr	r5, __arm_cp.15_1
	b	.LBB15_5
.Ltmp163:
.LBB15_2:
	@DEBUG_VALUE: mbedtls_oid_get_oid_by_ec_grp:olen <- $r2
	@DEBUG_VALUE: mbedtls_oid_get_oid_by_ec_grp:oid <- $r1
	@DEBUG_VALUE: mbedtls_oid_get_oid_by_ec_grp:grp_id <- $r0
	mov	r3, r0
.Ltmp164:
	@DEBUG_VALUE: mbedtls_oid_get_oid_by_ec_grp:grp_id <- $r3
	ldr	r4, __arm_cp.15_0
	movs	r0, #45
	mvns	r0, r0
.Ltmp165:
.LBB15_3:                               @ =>This Inner Loop Header: Depth=1
	@DEBUG_VALUE: mbedtls_oid_get_oid_by_ec_grp:grp_id <- $r3
	@DEBUG_VALUE: mbedtls_oid_get_oid_by_ec_grp:olen <- $r2
	@DEBUG_VALUE: mbedtls_oid_get_oid_by_ec_grp:oid <- $r1
	@DEBUG_VALUE: mbedtls_oid_get_oid_by_ec_grp:cur <- $r4
	.loc	3 532 1                         @ ../../../ThirdParty/mbedTLS/library/oid.c:532:1
	ldr	r5, [r4, #20]
.Ltmp166:
	@DEBUG_VALUE: mbedtls_oid_get_oid_by_ec_grp:cur <- undef
	cbz	r5, .LBB15_6
.Ltmp167:
@ %bb.4:                                @   in Loop: Header=BB15_3 Depth=1
	@DEBUG_VALUE: mbedtls_oid_get_oid_by_ec_grp:grp_id <- $r3
	@DEBUG_VALUE: mbedtls_oid_get_oid_by_ec_grp:olen <- $r2
	@DEBUG_VALUE: mbedtls_oid_get_oid_by_ec_grp:oid <- $r1
	.loc	3 0 1                           @ ../../../ThirdParty/mbedTLS/library/oid.c:0:1
	movs	r6, #36
.Ltmp168:
	.loc	3 532 1                         @ ../../../ThirdParty/mbedTLS/library/oid.c:532:1
	ldrb	r6, [r4, r6]
.Ltmp169:
	.loc	3 0 0                           @ ../../../ThirdParty/mbedTLS/library/oid.c:0:0
	adds	r4, #20
.Ltmp170:
	@DEBUG_VALUE: mbedtls_oid_get_oid_by_ec_grp:cur <- $r4
	.loc	3 532 1                         @ ../../../ThirdParty/mbedTLS/library/oid.c:532:1
	cmp	r6, r3
	bne	.LBB15_3
.Ltmp171:
.LBB15_5:
	@DEBUG_VALUE: mbedtls_oid_get_oid_by_ec_grp:cur <- $r4
	@DEBUG_VALUE: mbedtls_oid_get_oid_by_ec_grp:olen <- $r2
	@DEBUG_VALUE: mbedtls_oid_get_oid_by_ec_grp:oid <- $r1
	@DEBUG_VALUE: mbedtls_oid_get_oid_by_ec_grp:cur <- $r4
	.loc	3 532 1                         @ ../../../ThirdParty/mbedTLS/library/oid.c:532:1
	str	r5, [r1]
	ldr	r0, [r4, #4]
	str	r0, [r2]
	movs	r0, #0
.Ltmp172:
.LBB15_6:
	@DEBUG_VALUE: mbedtls_oid_get_oid_by_ec_grp:olen <- $r2
	@DEBUG_VALUE: mbedtls_oid_get_oid_by_ec_grp:oid <- $r1
	.loc	3 532 1                         @ ../../../ThirdParty/mbedTLS/library/oid.c:532:1
	pop	{r4, r5, r6, pc}
.Ltmp173:
	.p2align	2
@ %bb.7:
	.loc	3 0 1                           @ ../../../ThirdParty/mbedTLS/library/oid.c:0:1
__arm_cp.15_0:
	.long	oid_ecp_grp
.Lcpi_end16:
	.size	__arm_cp.15_0, .Lcpi_end16-__arm_cp.15_0
__arm_cp.15_1:
	.long	.L.str.155
.Lcpi_end17:
	.size	__arm_cp.15_1, .Lcpi_end17-__arm_cp.15_1
.Lfunc_end15:
	.size	mbedtls_oid_get_oid_by_ec_grp, .Lfunc_end15-mbedtls_oid_get_oid_by_ec_grp
	.cfi_endproc
	.cantunwind
	.fnend
                                        @ -- End function
	.section	.text.mbedtls_oid_get_cipher_alg,"ax",%progbits
	.hidden	mbedtls_oid_get_cipher_alg      @ -- Begin function mbedtls_oid_get_cipher_alg
	.globl	mbedtls_oid_get_cipher_alg
	.p2align	1
	.type	mbedtls_oid_get_cipher_alg,%function
	.code	16                              @ @mbedtls_oid_get_cipher_alg
	.thumb_func
mbedtls_oid_get_cipher_alg:
.Lfunc_begin16:
	.loc	3 561 0 is_stmt 1               @ ../../../ThirdParty/mbedTLS/library/oid.c:561:0
	.fnstart
	.cfi_startproc
@ %bb.0:
	@DEBUG_VALUE: mbedtls_oid_get_cipher_alg:oid <- $r0
	@DEBUG_VALUE: mbedtls_oid_get_cipher_alg:cipher_alg <- $r1
	.save	{r4, lr}
	push	{r4, lr}
	.cfi_def_cfa_offset 8
	.cfi_offset lr, -4
	.cfi_offset r4, -8
	mov	r4, r1
.Ltmp174:
	@DEBUG_VALUE: mbedtls_oid_get_cipher_alg:cipher_alg <- $r4
	@DEBUG_VALUE: mbedtls_oid_get_cipher_alg:oid <- $r0
	@DEBUG_VALUE: mbedtls_oid_get_cipher_alg:oid <- $r0
	.loc	3 561 1 prologue_end            @ ../../../ThirdParty/mbedTLS/library/oid.c:561:1
	bl	oid_cipher_alg_from_asn1
.Ltmp175:
	@DEBUG_VALUE: mbedtls_oid_get_cipher_alg:oid <- [DW_OP_LLVM_entry_value 1] $r0
	@DEBUG_VALUE: mbedtls_oid_get_cipher_alg:data <- $r0
	cbz	r0, .LBB16_2
.Ltmp176:
@ %bb.1:
	@DEBUG_VALUE: mbedtls_oid_get_cipher_alg:cipher_alg <- $r4
	@DEBUG_VALUE: mbedtls_oid_get_cipher_alg:data <- $r0
	@DEBUG_VALUE: mbedtls_oid_get_cipher_alg:oid <- [DW_OP_LLVM_entry_value 1] $r0
	ldrb	r0, [r0, #16]
.Ltmp177:
	strb	r0, [r4]
	movs	r0, #0
	pop	{r4, pc}
.Ltmp178:
.LBB16_2:
	@DEBUG_VALUE: mbedtls_oid_get_cipher_alg:cipher_alg <- $r4
	@DEBUG_VALUE: mbedtls_oid_get_cipher_alg:data <- $r0
	@DEBUG_VALUE: mbedtls_oid_get_cipher_alg:oid <- [DW_OP_LLVM_entry_value 1] $r0
	.loc	3 0 1 is_stmt 0                 @ ../../../ThirdParty/mbedTLS/library/oid.c:0:1
	movs	r0, #45
.Ltmp179:
	mvns	r0, r0
	.loc	3 561 1                         @ ../../../ThirdParty/mbedTLS/library/oid.c:561:1
	pop	{r4, pc}
.Ltmp180:
.Lfunc_end16:
	.size	mbedtls_oid_get_cipher_alg, .Lfunc_end16-mbedtls_oid_get_cipher_alg
	.cfi_endproc
	.cantunwind
	.fnend
                                        @ -- End function
	.section	.text.oid_cipher_alg_from_asn1,"ax",%progbits
	.p2align	2                               @ -- Begin function oid_cipher_alg_from_asn1
	.type	oid_cipher_alg_from_asn1,%function
	.code	16                              @ @oid_cipher_alg_from_asn1
	.thumb_func
oid_cipher_alg_from_asn1:
.Lfunc_begin17:
	.loc	3 560 0 is_stmt 1               @ ../../../ThirdParty/mbedTLS/library/oid.c:560:0
	.fnstart
	.cfi_startproc
@ %bb.0:
	@DEBUG_VALUE: oid_cipher_alg_from_asn1:oid <- $r0
	.save	{r4, r5, r6, r7, lr}
	push	{r4, r5, r6, r7, lr}
	.cfi_def_cfa_offset 20
	.cfi_offset lr, -4
	.cfi_offset r7, -8
	.cfi_offset r6, -12
	.cfi_offset r5, -16
	.cfi_offset r4, -20
	.pad	#4
	sub	sp, #4
	.cfi_def_cfa_offset 24
	movs	r7, #0
	@DEBUG_VALUE: oid_cipher_alg_from_asn1:oid <- $r0
.Ltmp181:
	@DEBUG_VALUE: oid_cipher_alg_from_asn1:cur <- undef
	.loc	3 560 1 prologue_end            @ ../../../ThirdParty/mbedTLS/library/oid.c:560:1
	cbz	r0, .LBB17_5
.Ltmp182:
@ %bb.1:
	@DEBUG_VALUE: oid_cipher_alg_from_asn1:oid <- $r0
	.loc	3 0 1 is_stmt 0                 @ ../../../ThirdParty/mbedTLS/library/oid.c:0:1
	mov	r5, r0
.Ltmp183:
	@DEBUG_VALUE: oid_cipher_alg_from_asn1:oid <- $r5
	ldr	r6, [r0, #4]
	ldr	r4, __arm_cp.17_0
.Ltmp184:
	@DEBUG_VALUE: oid_cipher_alg_from_asn1:cur <- $r4
	ldr	r0, __arm_cp.17_1
	b	.LBB17_3
.Ltmp185:
.LBB17_2:                               @   in Loop: Header=BB17_3 Depth=1
	@DEBUG_VALUE: oid_cipher_alg_from_asn1:oid <- $r5
	@DEBUG_VALUE: oid_cipher_alg_from_asn1:p <- $r4
	@DEBUG_VALUE: oid_cipher_alg_from_asn1:cur <- $r4
	.loc	3 560 1                         @ ../../../ThirdParty/mbedTLS/library/oid.c:560:1
	ldr	r0, [r4, #20]
.Ltmp186:
	.loc	3 560 1                         @ ../../../ThirdParty/mbedTLS/library/oid.c:560:1
	adds	r4, #20
.Ltmp187:
	@DEBUG_VALUE: oid_cipher_alg_from_asn1:p <- $r4
	@DEBUG_VALUE: oid_cipher_alg_from_asn1:cur <- $r4
	.loc	3 560 1                         @ ../../../ThirdParty/mbedTLS/library/oid.c:560:1
	cbz	r0, .LBB17_6
.Ltmp188:
.LBB17_3:                               @ =>This Inner Loop Header: Depth=1
	@DEBUG_VALUE: oid_cipher_alg_from_asn1:oid <- $r5
	@DEBUG_VALUE: oid_cipher_alg_from_asn1:cur <- $r4
	@DEBUG_VALUE: oid_cipher_alg_from_asn1:cur <- $r4
	@DEBUG_VALUE: oid_cipher_alg_from_asn1:p <- $r4
	.loc	3 560 1                         @ ../../../ThirdParty/mbedTLS/library/oid.c:560:1
	ldr	r1, [r4, #4]
	cmp	r1, r6
	bne	.LBB17_2
.Ltmp189:
@ %bb.4:                                @   in Loop: Header=BB17_3 Depth=1
	@DEBUG_VALUE: oid_cipher_alg_from_asn1:oid <- $r5
	@DEBUG_VALUE: oid_cipher_alg_from_asn1:p <- $r4
	@DEBUG_VALUE: oid_cipher_alg_from_asn1:cur <- $r4
	@DEBUG_VALUE: oid_cipher_alg_from_asn1:p <- $r4
	ldr	r1, [r5, #8]
	mov	r2, r6
	bl	memcmp
.Ltmp190:
	.loc	3 560 1                         @ ../../../ThirdParty/mbedTLS/library/oid.c:560:1
	cmp	r0, #0
	bne	.LBB17_2
	b	.LBB17_7
.Ltmp191:
.LBB17_5:
	@DEBUG_VALUE: oid_cipher_alg_from_asn1:oid <- $r0
	.loc	3 0 0                           @ ../../../ThirdParty/mbedTLS/library/oid.c:0:0
	mov	r4, r7
	b	.LBB17_7
.Ltmp192:
.LBB17_6:
	@DEBUG_VALUE: oid_cipher_alg_from_asn1:oid <- $r5
	@DEBUG_VALUE: oid_cipher_alg_from_asn1:p <- $r4
	@DEBUG_VALUE: oid_cipher_alg_from_asn1:cur <- $r4
	mov	r4, r7
.Ltmp193:
.LBB17_7:
	.loc	3 560 1                         @ ../../../ThirdParty/mbedTLS/library/oid.c:560:1
	mov	r0, r4
	add	sp, #4
	pop	{r4, r5, r6, r7, pc}
.Ltmp194:
	.p2align	2
@ %bb.8:
	.loc	3 0 1                           @ ../../../ThirdParty/mbedTLS/library/oid.c:0:1
__arm_cp.17_0:
	.long	oid_cipher_alg
.Lcpi_end18:
	.size	__arm_cp.17_0, .Lcpi_end18-__arm_cp.17_0
__arm_cp.17_1:
	.long	.L.str.180
.Lcpi_end19:
	.size	__arm_cp.17_1, .Lcpi_end19-__arm_cp.17_1
.Lfunc_end17:
	.size	oid_cipher_alg_from_asn1, .Lfunc_end17-oid_cipher_alg_from_asn1
	.cfi_endproc
	.cantunwind
	.fnend
                                        @ -- End function
	.section	.text.mbedtls_oid_get_md_alg,"ax",%progbits
	.hidden	mbedtls_oid_get_md_alg          @ -- Begin function mbedtls_oid_get_md_alg
	.globl	mbedtls_oid_get_md_alg
	.p2align	1
	.type	mbedtls_oid_get_md_alg,%function
	.code	16                              @ @mbedtls_oid_get_md_alg
	.thumb_func
mbedtls_oid_get_md_alg:
.Lfunc_begin18:
	.loc	3 626 0 is_stmt 1               @ ../../../ThirdParty/mbedTLS/library/oid.c:626:0
	.fnstart
	.cfi_startproc
@ %bb.0:
	@DEBUG_VALUE: mbedtls_oid_get_md_alg:oid <- $r0
	@DEBUG_VALUE: mbedtls_oid_get_md_alg:md_alg <- $r1
	.save	{r4, lr}
	push	{r4, lr}
	.cfi_def_cfa_offset 8
	.cfi_offset lr, -4
	.cfi_offset r4, -8
	mov	r4, r1
.Ltmp195:
	@DEBUG_VALUE: mbedtls_oid_get_md_alg:md_alg <- $r4
	@DEBUG_VALUE: mbedtls_oid_get_md_alg:oid <- $r0
	@DEBUG_VALUE: mbedtls_oid_get_md_alg:oid <- $r0
	.loc	3 626 1 prologue_end            @ ../../../ThirdParty/mbedTLS/library/oid.c:626:1
	bl	oid_md_alg_from_asn1
.Ltmp196:
	@DEBUG_VALUE: mbedtls_oid_get_md_alg:oid <- [DW_OP_LLVM_entry_value 1] $r0
	@DEBUG_VALUE: mbedtls_oid_get_md_alg:data <- $r0
	cbz	r0, .LBB18_2
.Ltmp197:
@ %bb.1:
	@DEBUG_VALUE: mbedtls_oid_get_md_alg:md_alg <- $r4
	@DEBUG_VALUE: mbedtls_oid_get_md_alg:data <- $r0
	@DEBUG_VALUE: mbedtls_oid_get_md_alg:oid <- [DW_OP_LLVM_entry_value 1] $r0
	ldrb	r0, [r0, #16]
.Ltmp198:
	strb	r0, [r4]
	movs	r0, #0
	pop	{r4, pc}
.Ltmp199:
.LBB18_2:
	@DEBUG_VALUE: mbedtls_oid_get_md_alg:md_alg <- $r4
	@DEBUG_VALUE: mbedtls_oid_get_md_alg:data <- $r0
	@DEBUG_VALUE: mbedtls_oid_get_md_alg:oid <- [DW_OP_LLVM_entry_value 1] $r0
	.loc	3 0 1 is_stmt 0                 @ ../../../ThirdParty/mbedTLS/library/oid.c:0:1
	movs	r0, #45
.Ltmp200:
	mvns	r0, r0
	.loc	3 626 1                         @ ../../../ThirdParty/mbedTLS/library/oid.c:626:1
	pop	{r4, pc}
.Ltmp201:
.Lfunc_end18:
	.size	mbedtls_oid_get_md_alg, .Lfunc_end18-mbedtls_oid_get_md_alg
	.cfi_endproc
	.cantunwind
	.fnend
                                        @ -- End function
	.section	.text.oid_md_alg_from_asn1,"ax",%progbits
	.p2align	2                               @ -- Begin function oid_md_alg_from_asn1
	.type	oid_md_alg_from_asn1,%function
	.code	16                              @ @oid_md_alg_from_asn1
	.thumb_func
oid_md_alg_from_asn1:
.Lfunc_begin19:
	.loc	3 625 0 is_stmt 1               @ ../../../ThirdParty/mbedTLS/library/oid.c:625:0
	.fnstart
	.cfi_startproc
@ %bb.0:
	@DEBUG_VALUE: oid_md_alg_from_asn1:oid <- $r0
	.save	{r4, r5, r6, r7, lr}
	push	{r4, r5, r6, r7, lr}
	.cfi_def_cfa_offset 20
	.cfi_offset lr, -4
	.cfi_offset r7, -8
	.cfi_offset r6, -12
	.cfi_offset r5, -16
	.cfi_offset r4, -20
	.pad	#4
	sub	sp, #4
	.cfi_def_cfa_offset 24
	movs	r7, #0
	@DEBUG_VALUE: oid_md_alg_from_asn1:oid <- $r0
.Ltmp202:
	@DEBUG_VALUE: oid_md_alg_from_asn1:cur <- undef
	@DEBUG_VALUE: oid_md_alg_from_asn1:p <- undef
	.loc	3 625 1 prologue_end            @ ../../../ThirdParty/mbedTLS/library/oid.c:625:1
	cbz	r0, .LBB19_5
.Ltmp203:
@ %bb.1:
	@DEBUG_VALUE: oid_md_alg_from_asn1:oid <- $r0
	.loc	3 0 1 is_stmt 0                 @ ../../../ThirdParty/mbedTLS/library/oid.c:0:1
	mov	r5, r0
.Ltmp204:
	@DEBUG_VALUE: oid_md_alg_from_asn1:oid <- $r5
	ldr	r6, [r0, #4]
	ldr	r4, __arm_cp.19_0
.Ltmp205:
	@DEBUG_VALUE: oid_md_alg_from_asn1:cur <- $r4
	ldr	r0, __arm_cp.19_1
.Ltmp206:
	@DEBUG_VALUE: oid_md_alg_from_asn1:p <- undef
	b	.LBB19_3
.Ltmp207:
.LBB19_2:                               @   in Loop: Header=BB19_3 Depth=1
	@DEBUG_VALUE: oid_md_alg_from_asn1:oid <- $r5
	@DEBUG_VALUE: oid_md_alg_from_asn1:p <- $r4
	@DEBUG_VALUE: oid_md_alg_from_asn1:cur <- $r4
	.loc	3 625 1                         @ ../../../ThirdParty/mbedTLS/library/oid.c:625:1
	ldr	r0, [r4, #20]
.Ltmp208:
	.loc	3 625 1                         @ ../../../ThirdParty/mbedTLS/library/oid.c:625:1
	adds	r4, #20
.Ltmp209:
	@DEBUG_VALUE: oid_md_alg_from_asn1:cur <- $r4
	@DEBUG_VALUE: oid_md_alg_from_asn1:p <- $r4
	.loc	3 625 1                         @ ../../../ThirdParty/mbedTLS/library/oid.c:625:1
	cbz	r0, .LBB19_6
.Ltmp210:
.LBB19_3:                               @ =>This Inner Loop Header: Depth=1
	@DEBUG_VALUE: oid_md_alg_from_asn1:oid <- $r5
	@DEBUG_VALUE: oid_md_alg_from_asn1:cur <- $r4
	@DEBUG_VALUE: oid_md_alg_from_asn1:p <- $r4
	@DEBUG_VALUE: oid_md_alg_from_asn1:cur <- $r4
	.loc	3 625 1                         @ ../../../ThirdParty/mbedTLS/library/oid.c:625:1
	ldr	r1, [r4, #4]
	cmp	r1, r6
	bne	.LBB19_2
.Ltmp211:
@ %bb.4:                                @   in Loop: Header=BB19_3 Depth=1
	@DEBUG_VALUE: oid_md_alg_from_asn1:oid <- $r5
	@DEBUG_VALUE: oid_md_alg_from_asn1:p <- $r4
	@DEBUG_VALUE: oid_md_alg_from_asn1:cur <- $r4
	@DEBUG_VALUE: oid_md_alg_from_asn1:p <- $r4
	ldr	r1, [r5, #8]
	mov	r2, r6
	bl	memcmp
.Ltmp212:
	.loc	3 625 1                         @ ../../../ThirdParty/mbedTLS/library/oid.c:625:1
	cmp	r0, #0
	bne	.LBB19_2
	b	.LBB19_7
.Ltmp213:
.LBB19_5:
	@DEBUG_VALUE: oid_md_alg_from_asn1:oid <- $r0
	.loc	3 0 0                           @ ../../../ThirdParty/mbedTLS/library/oid.c:0:0
	mov	r4, r7
	b	.LBB19_7
.Ltmp214:
.LBB19_6:
	@DEBUG_VALUE: oid_md_alg_from_asn1:oid <- $r5
	@DEBUG_VALUE: oid_md_alg_from_asn1:p <- $r4
	@DEBUG_VALUE: oid_md_alg_from_asn1:cur <- $r4
	mov	r4, r7
.Ltmp215:
.LBB19_7:
	.loc	3 625 1                         @ ../../../ThirdParty/mbedTLS/library/oid.c:625:1
	mov	r0, r4
	add	sp, #4
	pop	{r4, r5, r6, r7, pc}
.Ltmp216:
	.p2align	2
@ %bb.8:
	.loc	3 0 1                           @ ../../../ThirdParty/mbedTLS/library/oid.c:0:1
__arm_cp.19_0:
	.long	oid_md_alg
.Lcpi_end20:
	.size	__arm_cp.19_0, .Lcpi_end20-__arm_cp.19_0
__arm_cp.19_1:
	.long	.L.str.186
.Lcpi_end21:
	.size	__arm_cp.19_1, .Lcpi_end21-__arm_cp.19_1
.Lfunc_end19:
	.size	oid_md_alg_from_asn1, .Lfunc_end19-oid_md_alg_from_asn1
	.cfi_endproc
	.cantunwind
	.fnend
                                        @ -- End function
	.section	.text.mbedtls_oid_get_oid_by_md,"ax",%progbits
	.hidden	mbedtls_oid_get_oid_by_md       @ -- Begin function mbedtls_oid_get_oid_by_md
	.globl	mbedtls_oid_get_oid_by_md
	.p2align	2
	.type	mbedtls_oid_get_oid_by_md,%function
	.code	16                              @ @mbedtls_oid_get_oid_by_md
	.thumb_func
mbedtls_oid_get_oid_by_md:
.Lfunc_begin20:
	.loc	3 627 0 is_stmt 1               @ ../../../ThirdParty/mbedTLS/library/oid.c:627:0
	.fnstart
	.cfi_startproc
@ %bb.0:
	@DEBUG_VALUE: mbedtls_oid_get_oid_by_md:md_alg <- $r0
	@DEBUG_VALUE: mbedtls_oid_get_oid_by_md:oid <- $r1
	@DEBUG_VALUE: mbedtls_oid_get_oid_by_md:olen <- $r2
	@DEBUG_VALUE: mbedtls_oid_get_oid_by_md:olen <- $r2
	@DEBUG_VALUE: mbedtls_oid_get_oid_by_md:oid <- $r1
	@DEBUG_VALUE: mbedtls_oid_get_oid_by_md:md_alg <- $r0
	.save	{r4, r5, r6, lr}
	push	{r4, r5, r6, lr}
	.cfi_def_cfa_offset 16
	.cfi_offset lr, -4
	.cfi_offset r6, -8
	.cfi_offset r5, -12
	.cfi_offset r4, -16
.Ltmp217:
	@DEBUG_VALUE: mbedtls_oid_get_oid_by_md:cur <- undef
	.loc	3 627 1 prologue_end            @ ../../../ThirdParty/mbedTLS/library/oid.c:627:1
	cmp	r0, #3
	bne	.LBB20_2
.Ltmp218:
@ %bb.1:
	@DEBUG_VALUE: mbedtls_oid_get_oid_by_md:olen <- $r2
	@DEBUG_VALUE: mbedtls_oid_get_oid_by_md:oid <- $r1
	@DEBUG_VALUE: mbedtls_oid_get_oid_by_md:md_alg <- $r0
	.loc	3 0 1 is_stmt 0                 @ ../../../ThirdParty/mbedTLS/library/oid.c:0:1
	ldr	r4, __arm_cp.20_0
.Ltmp219:
	@DEBUG_VALUE: mbedtls_oid_get_oid_by_md:cur <- $r4
	ldr	r5, __arm_cp.20_1
	b	.LBB20_5
.Ltmp220:
.LBB20_2:
	@DEBUG_VALUE: mbedtls_oid_get_oid_by_md:olen <- $r2
	@DEBUG_VALUE: mbedtls_oid_get_oid_by_md:oid <- $r1
	@DEBUG_VALUE: mbedtls_oid_get_oid_by_md:md_alg <- $r0
	mov	r3, r0
.Ltmp221:
	@DEBUG_VALUE: mbedtls_oid_get_oid_by_md:md_alg <- $r3
	ldr	r4, __arm_cp.20_0
	movs	r0, #45
	mvns	r0, r0
.Ltmp222:
.LBB20_3:                               @ =>This Inner Loop Header: Depth=1
	@DEBUG_VALUE: mbedtls_oid_get_oid_by_md:md_alg <- $r3
	@DEBUG_VALUE: mbedtls_oid_get_oid_by_md:olen <- $r2
	@DEBUG_VALUE: mbedtls_oid_get_oid_by_md:oid <- $r1
	@DEBUG_VALUE: mbedtls_oid_get_oid_by_md:cur <- $r4
	.loc	3 627 1                         @ ../../../ThirdParty/mbedTLS/library/oid.c:627:1
	ldr	r5, [r4, #20]
.Ltmp223:
	@DEBUG_VALUE: mbedtls_oid_get_oid_by_md:cur <- undef
	cbz	r5, .LBB20_6
.Ltmp224:
@ %bb.4:                                @   in Loop: Header=BB20_3 Depth=1
	@DEBUG_VALUE: mbedtls_oid_get_oid_by_md:md_alg <- $r3
	@DEBUG_VALUE: mbedtls_oid_get_oid_by_md:olen <- $r2
	@DEBUG_VALUE: mbedtls_oid_get_oid_by_md:oid <- $r1
	.loc	3 0 1                           @ ../../../ThirdParty/mbedTLS/library/oid.c:0:1
	movs	r6, #36
.Ltmp225:
	.loc	3 627 1                         @ ../../../ThirdParty/mbedTLS/library/oid.c:627:1
	ldrb	r6, [r4, r6]
.Ltmp226:
	.loc	3 0 0                           @ ../../../ThirdParty/mbedTLS/library/oid.c:0:0
	adds	r4, #20
.Ltmp227:
	@DEBUG_VALUE: mbedtls_oid_get_oid_by_md:cur <- $r4
	.loc	3 627 1                         @ ../../../ThirdParty/mbedTLS/library/oid.c:627:1
	cmp	r6, r3
	bne	.LBB20_3
.Ltmp228:
.LBB20_5:
	@DEBUG_VALUE: mbedtls_oid_get_oid_by_md:cur <- $r4
	@DEBUG_VALUE: mbedtls_oid_get_oid_by_md:olen <- $r2
	@DEBUG_VALUE: mbedtls_oid_get_oid_by_md:oid <- $r1
	@DEBUG_VALUE: mbedtls_oid_get_oid_by_md:cur <- $r4
	.loc	3 627 1                         @ ../../../ThirdParty/mbedTLS/library/oid.c:627:1
	str	r5, [r1]
	ldr	r0, [r4, #4]
	str	r0, [r2]
	movs	r0, #0
.Ltmp229:
.LBB20_6:
	@DEBUG_VALUE: mbedtls_oid_get_oid_by_md:olen <- $r2
	@DEBUG_VALUE: mbedtls_oid_get_oid_by_md:oid <- $r1
	.loc	3 627 1                         @ ../../../ThirdParty/mbedTLS/library/oid.c:627:1
	pop	{r4, r5, r6, pc}
.Ltmp230:
	.p2align	2
@ %bb.7:
	.loc	3 0 1                           @ ../../../ThirdParty/mbedTLS/library/oid.c:0:1
__arm_cp.20_0:
	.long	oid_md_alg
.Lcpi_end22:
	.size	__arm_cp.20_0, .Lcpi_end22-__arm_cp.20_0
__arm_cp.20_1:
	.long	.L.str.186
.Lcpi_end23:
	.size	__arm_cp.20_1, .Lcpi_end23-__arm_cp.20_1
.Lfunc_end20:
	.size	mbedtls_oid_get_oid_by_md, .Lfunc_end20-mbedtls_oid_get_oid_by_md
	.cfi_endproc
	.cantunwind
	.fnend
                                        @ -- End function
	.section	.text.mbedtls_oid_get_md_hmac,"ax",%progbits
	.hidden	mbedtls_oid_get_md_hmac         @ -- Begin function mbedtls_oid_get_md_hmac
	.globl	mbedtls_oid_get_md_hmac
	.p2align	1
	.type	mbedtls_oid_get_md_hmac,%function
	.code	16                              @ @mbedtls_oid_get_md_hmac
	.thumb_func
mbedtls_oid_get_md_hmac:
.Lfunc_begin21:
	.loc	3 672 0 is_stmt 1               @ ../../../ThirdParty/mbedTLS/library/oid.c:672:0
	.fnstart
	.cfi_startproc
@ %bb.0:
	@DEBUG_VALUE: mbedtls_oid_get_md_hmac:oid <- $r0
	@DEBUG_VALUE: mbedtls_oid_get_md_hmac:md_hmac <- $r1
	.save	{r4, lr}
	push	{r4, lr}
	.cfi_def_cfa_offset 8
	.cfi_offset lr, -4
	.cfi_offset r4, -8
	mov	r4, r1
.Ltmp231:
	@DEBUG_VALUE: mbedtls_oid_get_md_hmac:md_hmac <- $r4
	@DEBUG_VALUE: mbedtls_oid_get_md_hmac:oid <- $r0
	@DEBUG_VALUE: mbedtls_oid_get_md_hmac:oid <- $r0
	.loc	3 672 1 prologue_end            @ ../../../ThirdParty/mbedTLS/library/oid.c:672:1
	bl	oid_md_hmac_from_asn1
.Ltmp232:
	@DEBUG_VALUE: mbedtls_oid_get_md_hmac:oid <- [DW_OP_LLVM_entry_value 1] $r0
	@DEBUG_VALUE: mbedtls_oid_get_md_hmac:data <- $r0
	cbz	r0, .LBB21_2
.Ltmp233:
@ %bb.1:
	@DEBUG_VALUE: mbedtls_oid_get_md_hmac:md_hmac <- $r4
	@DEBUG_VALUE: mbedtls_oid_get_md_hmac:data <- $r0
	@DEBUG_VALUE: mbedtls_oid_get_md_hmac:oid <- [DW_OP_LLVM_entry_value 1] $r0
	ldrb	r0, [r0, #16]
.Ltmp234:
	strb	r0, [r4]
	movs	r0, #0
	pop	{r4, pc}
.Ltmp235:
.LBB21_2:
	@DEBUG_VALUE: mbedtls_oid_get_md_hmac:md_hmac <- $r4
	@DEBUG_VALUE: mbedtls_oid_get_md_hmac:data <- $r0
	@DEBUG_VALUE: mbedtls_oid_get_md_hmac:oid <- [DW_OP_LLVM_entry_value 1] $r0
	.loc	3 0 1 is_stmt 0                 @ ../../../ThirdParty/mbedTLS/library/oid.c:0:1
	movs	r0, #45
.Ltmp236:
	mvns	r0, r0
	.loc	3 672 1                         @ ../../../ThirdParty/mbedTLS/library/oid.c:672:1
	pop	{r4, pc}
.Ltmp237:
.Lfunc_end21:
	.size	mbedtls_oid_get_md_hmac, .Lfunc_end21-mbedtls_oid_get_md_hmac
	.cfi_endproc
	.cantunwind
	.fnend
                                        @ -- End function
	.section	.text.oid_md_hmac_from_asn1,"ax",%progbits
	.p2align	2                               @ -- Begin function oid_md_hmac_from_asn1
	.type	oid_md_hmac_from_asn1,%function
	.code	16                              @ @oid_md_hmac_from_asn1
	.thumb_func
oid_md_hmac_from_asn1:
.Lfunc_begin22:
	.loc	3 671 0 is_stmt 1               @ ../../../ThirdParty/mbedTLS/library/oid.c:671:0
	.fnstart
	.cfi_startproc
@ %bb.0:
	@DEBUG_VALUE: oid_md_hmac_from_asn1:oid <- $r0
	.save	{r4, r5, r6, r7, lr}
	push	{r4, r5, r6, r7, lr}
	.cfi_def_cfa_offset 20
	.cfi_offset lr, -4
	.cfi_offset r7, -8
	.cfi_offset r6, -12
	.cfi_offset r5, -16
	.cfi_offset r4, -20
	.pad	#4
	sub	sp, #4
	.cfi_def_cfa_offset 24
	movs	r7, #0
	@DEBUG_VALUE: oid_md_hmac_from_asn1:oid <- $r0
.Ltmp238:
	@DEBUG_VALUE: oid_md_hmac_from_asn1:cur <- undef
	.loc	3 671 1 prologue_end            @ ../../../ThirdParty/mbedTLS/library/oid.c:671:1
	cbz	r0, .LBB22_5
.Ltmp239:
@ %bb.1:
	@DEBUG_VALUE: oid_md_hmac_from_asn1:oid <- $r0
	.loc	3 0 1 is_stmt 0                 @ ../../../ThirdParty/mbedTLS/library/oid.c:0:1
	mov	r5, r0
.Ltmp240:
	@DEBUG_VALUE: oid_md_hmac_from_asn1:oid <- $r5
	ldr	r6, [r0, #4]
	ldr	r4, __arm_cp.22_0
.Ltmp241:
	@DEBUG_VALUE: oid_md_hmac_from_asn1:cur <- $r4
	ldr	r0, __arm_cp.22_1
	b	.LBB22_3
.Ltmp242:
.LBB22_2:                               @   in Loop: Header=BB22_3 Depth=1
	@DEBUG_VALUE: oid_md_hmac_from_asn1:oid <- $r5
	@DEBUG_VALUE: oid_md_hmac_from_asn1:p <- $r4
	@DEBUG_VALUE: oid_md_hmac_from_asn1:cur <- $r4
	.loc	3 671 1                         @ ../../../ThirdParty/mbedTLS/library/oid.c:671:1
	ldr	r0, [r4, #20]
.Ltmp243:
	.loc	3 671 1                         @ ../../../ThirdParty/mbedTLS/library/oid.c:671:1
	adds	r4, #20
.Ltmp244:
	@DEBUG_VALUE: oid_md_hmac_from_asn1:p <- $r4
	@DEBUG_VALUE: oid_md_hmac_from_asn1:cur <- $r4
	.loc	3 671 1                         @ ../../../ThirdParty/mbedTLS/library/oid.c:671:1
	cbz	r0, .LBB22_6
.Ltmp245:
.LBB22_3:                               @ =>This Inner Loop Header: Depth=1
	@DEBUG_VALUE: oid_md_hmac_from_asn1:oid <- $r5
	@DEBUG_VALUE: oid_md_hmac_from_asn1:cur <- $r4
	@DEBUG_VALUE: oid_md_hmac_from_asn1:cur <- $r4
	@DEBUG_VALUE: oid_md_hmac_from_asn1:p <- $r4
	.loc	3 671 1                         @ ../../../ThirdParty/mbedTLS/library/oid.c:671:1
	ldr	r1, [r4, #4]
	cmp	r1, r6
	bne	.LBB22_2
.Ltmp246:
@ %bb.4:                                @   in Loop: Header=BB22_3 Depth=1
	@DEBUG_VALUE: oid_md_hmac_from_asn1:oid <- $r5
	@DEBUG_VALUE: oid_md_hmac_from_asn1:p <- $r4
	@DEBUG_VALUE: oid_md_hmac_from_asn1:cur <- $r4
	@DEBUG_VALUE: oid_md_hmac_from_asn1:p <- $r4
	ldr	r1, [r5, #8]
	mov	r2, r6
	bl	memcmp
.Ltmp247:
	.loc	3 671 1                         @ ../../../ThirdParty/mbedTLS/library/oid.c:671:1
	cmp	r0, #0
	bne	.LBB22_2
	b	.LBB22_7
.Ltmp248:
.LBB22_5:
	@DEBUG_VALUE: oid_md_hmac_from_asn1:oid <- $r0
	.loc	3 0 0                           @ ../../../ThirdParty/mbedTLS/library/oid.c:0:0
	mov	r4, r7
	b	.LBB22_7
.Ltmp249:
.LBB22_6:
	@DEBUG_VALUE: oid_md_hmac_from_asn1:oid <- $r5
	@DEBUG_VALUE: oid_md_hmac_from_asn1:p <- $r4
	@DEBUG_VALUE: oid_md_hmac_from_asn1:cur <- $r4
	mov	r4, r7
.Ltmp250:
.LBB22_7:
	.loc	3 671 1                         @ ../../../ThirdParty/mbedTLS/library/oid.c:671:1
	mov	r0, r4
	add	sp, #4
	pop	{r4, r5, r6, r7, pc}
.Ltmp251:
	.p2align	2
@ %bb.8:
	.loc	3 0 1                           @ ../../../ThirdParty/mbedTLS/library/oid.c:0:1
__arm_cp.22_0:
	.long	oid_md_hmac
.Lcpi_end24:
	.size	__arm_cp.22_0, .Lcpi_end24-__arm_cp.22_0
__arm_cp.22_1:
	.long	.L.str.204
.Lcpi_end25:
	.size	__arm_cp.22_1, .Lcpi_end25-__arm_cp.22_1
.Lfunc_end22:
	.size	oid_md_hmac_from_asn1, .Lfunc_end22-oid_md_hmac_from_asn1
	.cfi_endproc
	.cantunwind
	.fnend
                                        @ -- End function
	.section	.text.mbedtls_oid_get_pkcs12_pbe_alg,"ax",%progbits
	.hidden	mbedtls_oid_get_pkcs12_pbe_alg  @ -- Begin function mbedtls_oid_get_pkcs12_pbe_alg
	.globl	mbedtls_oid_get_pkcs12_pbe_alg
	.p2align	1
	.type	mbedtls_oid_get_pkcs12_pbe_alg,%function
	.code	16                              @ @mbedtls_oid_get_pkcs12_pbe_alg
	.thumb_func
mbedtls_oid_get_pkcs12_pbe_alg:
.Lfunc_begin23:
	.loc	3 702 0 is_stmt 1               @ ../../../ThirdParty/mbedTLS/library/oid.c:702:0
	.fnstart
	.cfi_startproc
@ %bb.0:
	@DEBUG_VALUE: mbedtls_oid_get_pkcs12_pbe_alg:oid <- $r0
	@DEBUG_VALUE: mbedtls_oid_get_pkcs12_pbe_alg:md_alg <- $r1
	@DEBUG_VALUE: mbedtls_oid_get_pkcs12_pbe_alg:cipher_alg <- $r2
	.save	{r4, r5, r7, lr}
	push	{r4, r5, r7, lr}
	.cfi_def_cfa_offset 16
	.cfi_offset lr, -4
	.cfi_offset r7, -8
	.cfi_offset r5, -12
	.cfi_offset r4, -16
	mov	r4, r2
	mov	r5, r1
.Ltmp252:
	@DEBUG_VALUE: mbedtls_oid_get_pkcs12_pbe_alg:cipher_alg <- $r4
	@DEBUG_VALUE: mbedtls_oid_get_pkcs12_pbe_alg:md_alg <- $r5
	@DEBUG_VALUE: mbedtls_oid_get_pkcs12_pbe_alg:oid <- $r0
	@DEBUG_VALUE: mbedtls_oid_get_pkcs12_pbe_alg:oid <- $r0
	.loc	3 702 1 prologue_end            @ ../../../ThirdParty/mbedTLS/library/oid.c:702:1
	bl	oid_pkcs12_pbe_alg_from_asn1
.Ltmp253:
	@DEBUG_VALUE: mbedtls_oid_get_pkcs12_pbe_alg:oid <- [DW_OP_LLVM_entry_value 1] $r0
	@DEBUG_VALUE: mbedtls_oid_get_pkcs12_pbe_alg:data <- $r0
	cbz	r0, .LBB23_2
.Ltmp254:
@ %bb.1:
	@DEBUG_VALUE: mbedtls_oid_get_pkcs12_pbe_alg:md_alg <- $r5
	@DEBUG_VALUE: mbedtls_oid_get_pkcs12_pbe_alg:cipher_alg <- $r4
	@DEBUG_VALUE: mbedtls_oid_get_pkcs12_pbe_alg:data <- $r0
	@DEBUG_VALUE: mbedtls_oid_get_pkcs12_pbe_alg:oid <- [DW_OP_LLVM_entry_value 1] $r0
	ldrb	r1, [r0, #16]
	strb	r1, [r5]
	ldrb	r0, [r0, #17]
.Ltmp255:
	strb	r0, [r4]
	movs	r0, #0
	pop	{r4, r5, r7, pc}
.Ltmp256:
.LBB23_2:
	@DEBUG_VALUE: mbedtls_oid_get_pkcs12_pbe_alg:md_alg <- $r5
	@DEBUG_VALUE: mbedtls_oid_get_pkcs12_pbe_alg:cipher_alg <- $r4
	@DEBUG_VALUE: mbedtls_oid_get_pkcs12_pbe_alg:data <- $r0
	@DEBUG_VALUE: mbedtls_oid_get_pkcs12_pbe_alg:oid <- [DW_OP_LLVM_entry_value 1] $r0
	.loc	3 0 1 is_stmt 0                 @ ../../../ThirdParty/mbedTLS/library/oid.c:0:1
	movs	r0, #45
.Ltmp257:
	mvns	r0, r0
	.loc	3 702 1                         @ ../../../ThirdParty/mbedTLS/library/oid.c:702:1
	pop	{r4, r5, r7, pc}
.Ltmp258:
.Lfunc_end23:
	.size	mbedtls_oid_get_pkcs12_pbe_alg, .Lfunc_end23-mbedtls_oid_get_pkcs12_pbe_alg
	.cfi_endproc
	.cantunwind
	.fnend
                                        @ -- End function
	.section	.text.oid_pkcs12_pbe_alg_from_asn1,"ax",%progbits
	.p2align	2                               @ -- Begin function oid_pkcs12_pbe_alg_from_asn1
	.type	oid_pkcs12_pbe_alg_from_asn1,%function
	.code	16                              @ @oid_pkcs12_pbe_alg_from_asn1
	.thumb_func
oid_pkcs12_pbe_alg_from_asn1:
.Lfunc_begin24:
	.loc	3 701 0 is_stmt 1               @ ../../../ThirdParty/mbedTLS/library/oid.c:701:0
	.fnstart
	.cfi_startproc
@ %bb.0:
	@DEBUG_VALUE: oid_pkcs12_pbe_alg_from_asn1:oid <- $r0
	.save	{r4, r5, r6, r7, lr}
	push	{r4, r5, r6, r7, lr}
	.cfi_def_cfa_offset 20
	.cfi_offset lr, -4
	.cfi_offset r7, -8
	.cfi_offset r6, -12
	.cfi_offset r5, -16
	.cfi_offset r4, -20
	.pad	#4
	sub	sp, #4
	.cfi_def_cfa_offset 24
	movs	r7, #0
	@DEBUG_VALUE: oid_pkcs12_pbe_alg_from_asn1:oid <- $r0
.Ltmp259:
	@DEBUG_VALUE: oid_pkcs12_pbe_alg_from_asn1:cur <- undef
	.loc	3 701 1 prologue_end            @ ../../../ThirdParty/mbedTLS/library/oid.c:701:1
	cbz	r0, .LBB24_5
.Ltmp260:
@ %bb.1:
	@DEBUG_VALUE: oid_pkcs12_pbe_alg_from_asn1:oid <- $r0
	.loc	3 0 1 is_stmt 0                 @ ../../../ThirdParty/mbedTLS/library/oid.c:0:1
	mov	r5, r0
.Ltmp261:
	@DEBUG_VALUE: oid_pkcs12_pbe_alg_from_asn1:oid <- $r5
	ldr	r6, [r0, #4]
	ldr	r4, __arm_cp.24_0
.Ltmp262:
	@DEBUG_VALUE: oid_pkcs12_pbe_alg_from_asn1:cur <- $r4
	ldr	r0, __arm_cp.24_1
	b	.LBB24_3
.Ltmp263:
.LBB24_2:                               @   in Loop: Header=BB24_3 Depth=1
	@DEBUG_VALUE: oid_pkcs12_pbe_alg_from_asn1:oid <- $r5
	@DEBUG_VALUE: oid_pkcs12_pbe_alg_from_asn1:p <- $r4
	@DEBUG_VALUE: oid_pkcs12_pbe_alg_from_asn1:cur <- $r4
	.loc	3 701 1                         @ ../../../ThirdParty/mbedTLS/library/oid.c:701:1
	ldr	r0, [r4, #20]
.Ltmp264:
	.loc	3 701 1                         @ ../../../ThirdParty/mbedTLS/library/oid.c:701:1
	adds	r4, #20
.Ltmp265:
	@DEBUG_VALUE: oid_pkcs12_pbe_alg_from_asn1:p <- $r4
	@DEBUG_VALUE: oid_pkcs12_pbe_alg_from_asn1:cur <- $r4
	.loc	3 701 1                         @ ../../../ThirdParty/mbedTLS/library/oid.c:701:1
	cbz	r0, .LBB24_6
.Ltmp266:
.LBB24_3:                               @ =>This Inner Loop Header: Depth=1
	@DEBUG_VALUE: oid_pkcs12_pbe_alg_from_asn1:oid <- $r5
	@DEBUG_VALUE: oid_pkcs12_pbe_alg_from_asn1:cur <- $r4
	@DEBUG_VALUE: oid_pkcs12_pbe_alg_from_asn1:cur <- $r4
	@DEBUG_VALUE: oid_pkcs12_pbe_alg_from_asn1:p <- $r4
	.loc	3 701 1                         @ ../../../ThirdParty/mbedTLS/library/oid.c:701:1
	ldr	r1, [r4, #4]
	cmp	r1, r6
	bne	.LBB24_2
.Ltmp267:
@ %bb.4:                                @   in Loop: Header=BB24_3 Depth=1
	@DEBUG_VALUE: oid_pkcs12_pbe_alg_from_asn1:oid <- $r5
	@DEBUG_VALUE: oid_pkcs12_pbe_alg_from_asn1:p <- $r4
	@DEBUG_VALUE: oid_pkcs12_pbe_alg_from_asn1:cur <- $r4
	@DEBUG_VALUE: oid_pkcs12_pbe_alg_from_asn1:p <- $r4
	ldr	r1, [r5, #8]
	mov	r2, r6
	bl	memcmp
.Ltmp268:
	.loc	3 701 1                         @ ../../../ThirdParty/mbedTLS/library/oid.c:701:1
	cmp	r0, #0
	bne	.LBB24_2
	b	.LBB24_7
.Ltmp269:
.LBB24_5:
	@DEBUG_VALUE: oid_pkcs12_pbe_alg_from_asn1:oid <- $r0
	.loc	3 0 0                           @ ../../../ThirdParty/mbedTLS/library/oid.c:0:0
	mov	r4, r7
	b	.LBB24_7
.Ltmp270:
.LBB24_6:
	@DEBUG_VALUE: oid_pkcs12_pbe_alg_from_asn1:oid <- $r5
	@DEBUG_VALUE: oid_pkcs12_pbe_alg_from_asn1:p <- $r4
	@DEBUG_VALUE: oid_pkcs12_pbe_alg_from_asn1:cur <- $r4
	mov	r4, r7
.Ltmp271:
.LBB24_7:
	.loc	3 701 1                         @ ../../../ThirdParty/mbedTLS/library/oid.c:701:1
	mov	r0, r4
	add	sp, #4
	pop	{r4, r5, r6, r7, pc}
.Ltmp272:
	.p2align	2
@ %bb.8:
	.loc	3 0 1                           @ ../../../ThirdParty/mbedTLS/library/oid.c:0:1
__arm_cp.24_0:
	.long	oid_pkcs12_pbe_alg
.Lcpi_end26:
	.size	__arm_cp.24_0, .Lcpi_end26-__arm_cp.24_0
__arm_cp.24_1:
	.long	.L.str.219
.Lcpi_end27:
	.size	__arm_cp.24_1, .Lcpi_end27-__arm_cp.24_1
.Lfunc_end24:
	.size	oid_pkcs12_pbe_alg_from_asn1, .Lfunc_end24-oid_pkcs12_pbe_alg_from_asn1
	.cfi_endproc
	.cantunwind
	.fnend
                                        @ -- End function
	.section	.text.mbedtls_oid_get_numeric_string,"ax",%progbits
	.hidden	mbedtls_oid_get_numeric_string  @ -- Begin function mbedtls_oid_get_numeric_string
	.globl	mbedtls_oid_get_numeric_string
	.p2align	2
	.type	mbedtls_oid_get_numeric_string,%function
	.code	16                              @ @mbedtls_oid_get_numeric_string
	.thumb_func
mbedtls_oid_get_numeric_string:
.Lfunc_begin25:
	.loc	3 717 0 is_stmt 1               @ ../../../ThirdParty/mbedTLS/library/oid.c:717:0
	.fnstart
	.cfi_startproc
@ %bb.0:
	@DEBUG_VALUE: mbedtls_oid_get_numeric_string:buf <- $r0
	@DEBUG_VALUE: mbedtls_oid_get_numeric_string:size <- $r1
	@DEBUG_VALUE: mbedtls_oid_get_numeric_string:oid <- $r2
	.save	{r4, r5, r6, r7, lr}
	push	{r4, r5, r6, r7, lr}
	.cfi_def_cfa_offset 20
	.cfi_offset lr, -4
	.cfi_offset r7, -8
	.cfi_offset r6, -12
	.cfi_offset r5, -16
	.cfi_offset r4, -20
	.pad	#12
	sub	sp, #12
	.cfi_def_cfa_offset 32
.Ltmp273:
	@DEBUG_VALUE: mbedtls_oid_get_numeric_string:p <- $r0
	@DEBUG_VALUE: mbedtls_oid_get_numeric_string:n <- $r1
	mov	r5, r2
	mov	r7, r1
	mov	r6, r0
.Ltmp274:
	@DEBUG_VALUE: mbedtls_oid_get_numeric_string:n <- $r7
	@DEBUG_VALUE: mbedtls_oid_get_numeric_string:p <- $r6
	@DEBUG_VALUE: mbedtls_oid_get_numeric_string:oid <- $r5
	@DEBUG_VALUE: mbedtls_oid_get_numeric_string:size <- $r7
	@DEBUG_VALUE: mbedtls_oid_get_numeric_string:buf <- $r6
	.loc	3 727 14 prologue_end           @ ../../../ThirdParty/mbedTLS/library/oid.c:727:14
	ldr	r0, [r2, #4]
.Ltmp275:
	.loc	3 727 9 is_stmt 0               @ ../../../ThirdParty/mbedTLS/library/oid.c:727:9
	cbz	r0, .LBB25_4
.Ltmp276:
@ %bb.1:
	@DEBUG_VALUE: mbedtls_oid_get_numeric_string:size <- $r7
	@DEBUG_VALUE: mbedtls_oid_get_numeric_string:n <- $r7
	@DEBUG_VALUE: mbedtls_oid_get_numeric_string:buf <- $r6
	@DEBUG_VALUE: mbedtls_oid_get_numeric_string:p <- $r6
	@DEBUG_VALUE: mbedtls_oid_get_numeric_string:oid <- $r5
	.loc	3 729 53 is_stmt 1              @ ../../../ThirdParty/mbedTLS/library/oid.c:729:53
	ldr	r0, [r5, #8]
	.loc	3 729 48 is_stmt 0              @ ../../../ThirdParty/mbedTLS/library/oid.c:729:48
	ldrb	r0, [r0]
	movs	r1, #40
	.loc	3 729 58                        @ ../../../ThirdParty/mbedTLS/library/oid.c:729:58
	udiv	r3, r0, r1
	muls	r1, r3, r1
	subs	r0, r0, r1
	.loc	3 729 15                        @ ../../../ThirdParty/mbedTLS/library/oid.c:729:15
	str	r0, [sp]
	adr	r2, .LCPI25_0
	mov	r0, r6
	mov	r1, r7
	bl	__2snprintf
	mov	r1, r0
.Ltmp277:
	@DEBUG_VALUE: mbedtls_oid_get_numeric_string:ret <- $r1
	.loc	3 0 15                          @ ../../../ThirdParty/mbedTLS/library/oid.c:0:15
	movs	r0, #10
	mvns	r0, r0
.Ltmp278:
	.loc	3 730 9 is_stmt 1               @ ../../../ThirdParty/mbedTLS/library/oid.c:730:9
	cmp	r1, #0
	bmi	.LBB25_15
.Ltmp279:
@ %bb.2:
	@DEBUG_VALUE: mbedtls_oid_get_numeric_string:size <- $r7
	@DEBUG_VALUE: mbedtls_oid_get_numeric_string:n <- $r7
	@DEBUG_VALUE: mbedtls_oid_get_numeric_string:buf <- $r6
	@DEBUG_VALUE: mbedtls_oid_get_numeric_string:p <- $r6
	@DEBUG_VALUE: mbedtls_oid_get_numeric_string:oid <- $r5
	@DEBUG_VALUE: mbedtls_oid_get_numeric_string:ret <- $r1
	cmp	r1, r7
	bhs	.LBB25_15
.Ltmp280:
@ %bb.3:
	@DEBUG_VALUE: mbedtls_oid_get_numeric_string:size <- $r7
	@DEBUG_VALUE: mbedtls_oid_get_numeric_string:n <- $r7
	@DEBUG_VALUE: mbedtls_oid_get_numeric_string:buf <- $r6
	@DEBUG_VALUE: mbedtls_oid_get_numeric_string:p <- $r6
	@DEBUG_VALUE: mbedtls_oid_get_numeric_string:oid <- $r5
	@DEBUG_VALUE: mbedtls_oid_get_numeric_string:ret <- $r1
	.loc	3 730 9 is_stmt 0               @ ../../../ThirdParty/mbedTLS/library/oid.c:730:9
	adds	r6, r6, r1
.Ltmp281:
	@DEBUG_VALUE: mbedtls_oid_get_numeric_string:p <- $r6
	.loc	3 0 9                           @ ../../../ThirdParty/mbedTLS/library/oid.c:0:9
	str	r7, [sp, #4]                    @ 4-byte Spill
.Ltmp282:
	@DEBUG_VALUE: mbedtls_oid_get_numeric_string:n <- [DW_OP_plus_uconst 4] [$sp+0]
	.loc	3 730 9                         @ ../../../ThirdParty/mbedTLS/library/oid.c:730:9
	subs	r7, r7, r1
.Ltmp283:
	@DEBUG_VALUE: mbedtls_oid_get_numeric_string:n <- $r7
	.loc	3 0 9                           @ ../../../ThirdParty/mbedTLS/library/oid.c:0:9
	b	.LBB25_5
.Ltmp284:
.LBB25_4:
	@DEBUG_VALUE: mbedtls_oid_get_numeric_string:size <- $r7
	@DEBUG_VALUE: mbedtls_oid_get_numeric_string:n <- $r7
	@DEBUG_VALUE: mbedtls_oid_get_numeric_string:buf <- $r6
	@DEBUG_VALUE: mbedtls_oid_get_numeric_string:p <- $r6
	@DEBUG_VALUE: mbedtls_oid_get_numeric_string:oid <- $r5
	str	r7, [sp, #4]                    @ 4-byte Spill
.Ltmp285:
.LBB25_5:
	@DEBUG_VALUE: mbedtls_oid_get_numeric_string:n <- $r7
	@DEBUG_VALUE: mbedtls_oid_get_numeric_string:p <- $r6
	@DEBUG_VALUE: mbedtls_oid_get_numeric_string:oid <- $r5
	@DEBUG_VALUE: mbedtls_oid_get_numeric_string:p <- $r6
	@DEBUG_VALUE: mbedtls_oid_get_numeric_string:n <- $r7
	@DEBUG_VALUE: mbedtls_oid_get_numeric_string:value <- 0
	@DEBUG_VALUE: mbedtls_oid_get_numeric_string:i <- 1
	.loc	3 734 26 is_stmt 1              @ ../../../ThirdParty/mbedTLS/library/oid.c:734:26
	ldr	r0, [r5, #4]
.Ltmp286:
	.loc	3 734 5 is_stmt 0               @ ../../../ThirdParty/mbedTLS/library/oid.c:734:5
	cmp	r0, #2
	blo	.LBB25_13
.Ltmp287:
@ %bb.6:
	@DEBUG_VALUE: mbedtls_oid_get_numeric_string:n <- $r7
	@DEBUG_VALUE: mbedtls_oid_get_numeric_string:p <- $r6
	@DEBUG_VALUE: mbedtls_oid_get_numeric_string:oid <- $r5
	@DEBUG_VALUE: mbedtls_oid_get_numeric_string:i <- 1
	@DEBUG_VALUE: mbedtls_oid_get_numeric_string:value <- 0
	.loc	3 0 5                           @ ../../../ThirdParty/mbedTLS/library/oid.c:0:5
	movs	r4, #1
	movs	r3, #0
	movs	r0, #127
	str	r0, [sp, #8]                    @ 4-byte Spill
	b	.LBB25_8
.Ltmp288:
.LBB25_7:                               @   in Loop: Header=BB25_8 Depth=1
	@DEBUG_VALUE: mbedtls_oid_get_numeric_string:n <- $r7
	@DEBUG_VALUE: mbedtls_oid_get_numeric_string:p <- $r6
	@DEBUG_VALUE: mbedtls_oid_get_numeric_string:oid <- $r5
	@DEBUG_VALUE: mbedtls_oid_get_numeric_string:i <- $r4
	@DEBUG_VALUE: mbedtls_oid_get_numeric_string:p <- $r6
	@DEBUG_VALUE: mbedtls_oid_get_numeric_string:n <- $r7
	@DEBUG_VALUE: mbedtls_oid_get_numeric_string:value <- $r3
	.loc	3 734 32                        @ ../../../ThirdParty/mbedTLS/library/oid.c:734:32
	adds	r4, r4, #1
.Ltmp289:
	@DEBUG_VALUE: mbedtls_oid_get_numeric_string:i <- $r4
	.loc	3 734 26                        @ ../../../ThirdParty/mbedTLS/library/oid.c:734:26
	ldr	r0, [r5, #4]
.Ltmp290:
	.loc	3 734 5                         @ ../../../ThirdParty/mbedTLS/library/oid.c:734:5
	cmp	r4, r0
	bhs	.LBB25_13
.Ltmp291:
.LBB25_8:                               @ =>This Inner Loop Header: Depth=1
	@DEBUG_VALUE: mbedtls_oid_get_numeric_string:n <- $r7
	@DEBUG_VALUE: mbedtls_oid_get_numeric_string:p <- $r6
	@DEBUG_VALUE: mbedtls_oid_get_numeric_string:oid <- $r5
	@DEBUG_VALUE: mbedtls_oid_get_numeric_string:p <- $r6
	@DEBUG_VALUE: mbedtls_oid_get_numeric_string:n <- $r7
	@DEBUG_VALUE: mbedtls_oid_get_numeric_string:value <- $r3
	@DEBUG_VALUE: mbedtls_oid_get_numeric_string:i <- $r4
	.loc	3 737 13 is_stmt 1              @ ../../../ThirdParty/mbedTLS/library/oid.c:737:13
	lsrs	r0, r3, #25
	bne	.LBB25_14
.Ltmp292:
@ %bb.9:                                @   in Loop: Header=BB25_8 Depth=1
	@DEBUG_VALUE: mbedtls_oid_get_numeric_string:n <- $r7
	@DEBUG_VALUE: mbedtls_oid_get_numeric_string:p <- $r6
	@DEBUG_VALUE: mbedtls_oid_get_numeric_string:oid <- $r5
	@DEBUG_VALUE: mbedtls_oid_get_numeric_string:i <- $r4
	@DEBUG_VALUE: mbedtls_oid_get_numeric_string:value <- $r3
	.loc	3 741 23                        @ ../../../ThirdParty/mbedTLS/library/oid.c:741:23
	ldr	r0, [r5, #8]
	.loc	3 741 18 is_stmt 0              @ ../../../ThirdParty/mbedTLS/library/oid.c:741:18
	ldrb	r0, [r0, r4]
	.loc	3 741 28                        @ ../../../ThirdParty/mbedTLS/library/oid.c:741:28
	mov	r1, r0
	ldr	r2, [sp, #8]                    @ 4-byte Reload
	ands	r1, r2
.Ltmp293:
	.loc	3 737 23 is_stmt 1              @ ../../../ThirdParty/mbedTLS/library/oid.c:737:23
	lsls	r2, r3, #7
.Ltmp294:
	@DEBUG_VALUE: mbedtls_oid_get_numeric_string:value <- $r2
	.loc	3 741 15                        @ ../../../ThirdParty/mbedTLS/library/oid.c:741:15
	adds	r3, r1, r2
.Ltmp295:
	@DEBUG_VALUE: mbedtls_oid_get_numeric_string:value <- $r3
	.loc	3 743 13                        @ ../../../ThirdParty/mbedTLS/library/oid.c:743:13
	lsls	r0, r0, #24
	bmi	.LBB25_7
.Ltmp296:
@ %bb.10:                               @   in Loop: Header=BB25_8 Depth=1
	@DEBUG_VALUE: mbedtls_oid_get_numeric_string:n <- $r7
	@DEBUG_VALUE: mbedtls_oid_get_numeric_string:p <- $r6
	@DEBUG_VALUE: mbedtls_oid_get_numeric_string:oid <- $r5
	@DEBUG_VALUE: mbedtls_oid_get_numeric_string:i <- $r4
	@DEBUG_VALUE: mbedtls_oid_get_numeric_string:value <- $r3
	.loc	3 746 19                        @ ../../../ThirdParty/mbedTLS/library/oid.c:746:19
	mov	r0, r6
	mov	r1, r7
	adr	r2, .LCPI25_1
	bl	__2snprintf
.Ltmp297:
	@DEBUG_VALUE: mbedtls_oid_get_numeric_string:ret <- $r0
	.loc	3 747 13                        @ ../../../ThirdParty/mbedTLS/library/oid.c:747:13
	cmp	r0, #0
	bmi	.LBB25_14
.Ltmp298:
@ %bb.11:                               @   in Loop: Header=BB25_8 Depth=1
	@DEBUG_VALUE: mbedtls_oid_get_numeric_string:n <- $r7
	@DEBUG_VALUE: mbedtls_oid_get_numeric_string:p <- $r6
	@DEBUG_VALUE: mbedtls_oid_get_numeric_string:oid <- $r5
	@DEBUG_VALUE: mbedtls_oid_get_numeric_string:i <- $r4
	@DEBUG_VALUE: mbedtls_oid_get_numeric_string:ret <- $r0
	cmp	r7, r0
	bls	.LBB25_14
.Ltmp299:
@ %bb.12:                               @   in Loop: Header=BB25_8 Depth=1
	@DEBUG_VALUE: mbedtls_oid_get_numeric_string:n <- $r7
	@DEBUG_VALUE: mbedtls_oid_get_numeric_string:p <- $r6
	@DEBUG_VALUE: mbedtls_oid_get_numeric_string:oid <- $r5
	@DEBUG_VALUE: mbedtls_oid_get_numeric_string:i <- $r4
	@DEBUG_VALUE: mbedtls_oid_get_numeric_string:ret <- $r0
	.loc	3 747 13 is_stmt 0              @ ../../../ThirdParty/mbedTLS/library/oid.c:747:13
	adds	r6, r6, r0
.Ltmp300:
	@DEBUG_VALUE: mbedtls_oid_get_numeric_string:p <- $r6
	subs	r7, r7, r0
.Ltmp301:
	@DEBUG_VALUE: mbedtls_oid_get_numeric_string:n <- $r7
	.loc	3 0 13                          @ ../../../ThirdParty/mbedTLS/library/oid.c:0:13
	movs	r3, #0
.Ltmp302:
	@DEBUG_VALUE: mbedtls_oid_get_numeric_string:value <- 0
	b	.LBB25_7
.Ltmp303:
.LBB25_13:
	@DEBUG_VALUE: mbedtls_oid_get_numeric_string:n <- $r7
	@DEBUG_VALUE: mbedtls_oid_get_numeric_string:p <- $r6
	@DEBUG_VALUE: mbedtls_oid_get_numeric_string:oid <- $r5
	@DEBUG_VALUE: mbedtls_oid_get_numeric_string:n <- $r7
	.loc	3 752 26 is_stmt 1              @ ../../../ThirdParty/mbedTLS/library/oid.c:752:26
	ldr	r0, [sp, #4]                    @ 4-byte Reload
	subs	r0, r0, r7
	.loc	3 753 1                         @ ../../../ThirdParty/mbedTLS/library/oid.c:753:1
	add	sp, #12
	pop	{r4, r5, r6, r7, pc}
.Ltmp304:
.LBB25_14:
	@DEBUG_VALUE: mbedtls_oid_get_numeric_string:n <- $r7
	@DEBUG_VALUE: mbedtls_oid_get_numeric_string:p <- $r6
	@DEBUG_VALUE: mbedtls_oid_get_numeric_string:oid <- $r5
	@DEBUG_VALUE: mbedtls_oid_get_numeric_string:i <- $r4
	.loc	3 0 1 is_stmt 0                 @ ../../../ThirdParty/mbedTLS/library/oid.c:0:1
	movs	r0, #10
	mvns	r0, r0
.Ltmp305:
.LBB25_15:
	@DEBUG_VALUE: mbedtls_oid_get_numeric_string:n <- $r7
	@DEBUG_VALUE: mbedtls_oid_get_numeric_string:p <- $r6
	@DEBUG_VALUE: mbedtls_oid_get_numeric_string:oid <- $r5
	.loc	3 753 1                         @ ../../../ThirdParty/mbedTLS/library/oid.c:753:1
	add	sp, #12
	pop	{r4, r5, r6, r7, pc}
.Ltmp306:
	.p2align	2
@ %bb.16:
	.loc	3 0 1                           @ ../../../ThirdParty/mbedTLS/library/oid.c:0:1
.LCPI25_0:
.L.str:
	.asciz	"%d.%d\000\000"
.LCPI25_1:
.L.str.1:
	.asciz	".%d"
.Lfunc_end25:
	.size	mbedtls_oid_get_numeric_string, .Lfunc_end25-mbedtls_oid_get_numeric_string
	.cfi_endproc
	.cantunwind
	.fnend
                                        @ -- End function
	.type	oid_sig_alg,%object             @ @oid_sig_alg
	.section	.rodata.oid_sig_alg,"a",%progbits
	.p2align	2
oid_sig_alg:
	.long	.L.str.110
	.long	9                               @ 0x9
	.long	.L.str.111
	.long	.L.str.112
	.byte	3                               @ 0x3
	.byte	1                               @ 0x1
	.zero	2
	.long	.L.str.113
	.long	9                               @ 0x9
	.long	.L.str.114
	.long	.L.str.115
	.byte	4                               @ 0x4
	.byte	1                               @ 0x1
	.zero	2
	.long	.L.str.116
	.long	9                               @ 0x9
	.long	.L.str.117
	.long	.L.str.118
	.byte	5                               @ 0x5
	.byte	1                               @ 0x1
	.zero	2
	.long	.L.str.119
	.long	9                               @ 0x9
	.long	.L.str.120
	.long	.L.str.121
	.byte	6                               @ 0x6
	.byte	1                               @ 0x1
	.zero	2
	.long	.L.str.122
	.long	9                               @ 0x9
	.long	.L.str.123
	.long	.L.str.124
	.byte	7                               @ 0x7
	.byte	1                               @ 0x1
	.zero	2
	.long	.L.str.125
	.long	9                               @ 0x9
	.long	.L.str.126
	.long	.L.str.127
	.byte	8                               @ 0x8
	.byte	1                               @ 0x1
	.zero	2
	.long	.L.str.128
	.long	5                               @ 0x5
	.long	.L.str.114
	.long	.L.str.115
	.byte	4                               @ 0x4
	.byte	1                               @ 0x1
	.zero	2
	.long	.L.str.129
	.long	7                               @ 0x7
	.long	.L.str.130
	.long	.L.str.131
	.byte	4                               @ 0x4
	.byte	4                               @ 0x4
	.zero	2
	.long	.L.str.132
	.long	8                               @ 0x8
	.long	.L.str.133
	.long	.L.str.134
	.byte	5                               @ 0x5
	.byte	4                               @ 0x4
	.zero	2
	.long	.L.str.135
	.long	8                               @ 0x8
	.long	.L.str.136
	.long	.L.str.137
	.byte	6                               @ 0x6
	.byte	4                               @ 0x4
	.zero	2
	.long	.L.str.138
	.long	8                               @ 0x8
	.long	.L.str.139
	.long	.L.str.140
	.byte	7                               @ 0x7
	.byte	4                               @ 0x4
	.zero	2
	.long	.L.str.141
	.long	8                               @ 0x8
	.long	.L.str.142
	.long	.L.str.143
	.byte	8                               @ 0x8
	.byte	4                               @ 0x4
	.zero	2
	.long	.L.str.144
	.long	9                               @ 0x9
	.long	.L.str.145
	.long	.L.str.145
	.byte	0                               @ 0x0
	.byte	6                               @ 0x6
	.zero	2
	.zero	20
	.size	oid_sig_alg, 280

	.type	oid_pk_alg,%object              @ @oid_pk_alg
	.section	.rodata.oid_pk_alg,"a",%progbits
	.p2align	2
oid_pk_alg:
	.long	.L.str.146
	.long	9                               @ 0x9
	.long	.L.str.147
	.long	.L.str.148
	.byte	1                               @ 0x1
	.zero	3
	.long	.L.str.149
	.long	7                               @ 0x7
	.long	.L.str.150
	.long	.L.str.151
	.byte	2                               @ 0x2
	.zero	3
	.long	.L.str.152
	.long	5                               @ 0x5
	.long	.L.str.153
	.long	.L.str.154
	.byte	3                               @ 0x3
	.zero	3
	.zero	20
	.size	oid_pk_alg, 80

	.type	oid_ecp_grp,%object             @ @oid_ecp_grp
	.section	.rodata.oid_ecp_grp,"a",%progbits
	.p2align	2
oid_ecp_grp:
	.long	.L.str.155
	.long	8                               @ 0x8
	.long	.L.str.156
	.long	.L.str.156
	.byte	1                               @ 0x1
	.zero	3
	.long	.L.str.157
	.long	5                               @ 0x5
	.long	.L.str.158
	.long	.L.str.158
	.byte	2                               @ 0x2
	.zero	3
	.long	.L.str.159
	.long	8                               @ 0x8
	.long	.L.str.160
	.long	.L.str.160
	.byte	3                               @ 0x3
	.zero	3
	.long	.L.str.161
	.long	5                               @ 0x5
	.long	.L.str.162
	.long	.L.str.162
	.byte	4                               @ 0x4
	.zero	3
	.long	.L.str.163
	.long	5                               @ 0x5
	.long	.L.str.164
	.long	.L.str.164
	.byte	5                               @ 0x5
	.zero	3
	.long	.L.str.165
	.long	5                               @ 0x5
	.long	.L.str.166
	.long	.L.str.166
	.byte	10                              @ 0xa
	.zero	3
	.long	.L.str.167
	.long	5                               @ 0x5
	.long	.L.str.168
	.long	.L.str.168
	.byte	11                              @ 0xb
	.zero	3
	.long	.L.str.169
	.long	5                               @ 0x5
	.long	.L.str.170
	.long	.L.str.170
	.byte	12                              @ 0xc
	.zero	3
	.long	.L.str.171
	.long	9                               @ 0x9
	.long	.L.str.172
	.long	.L.str.173
	.byte	6                               @ 0x6
	.zero	3
	.long	.L.str.174
	.long	9                               @ 0x9
	.long	.L.str.175
	.long	.L.str.176
	.byte	7                               @ 0x7
	.zero	3
	.long	.L.str.177
	.long	9                               @ 0x9
	.long	.L.str.178
	.long	.L.str.179
	.byte	8                               @ 0x8
	.zero	3
	.zero	20
	.size	oid_ecp_grp, 240

	.type	oid_md_alg,%object              @ @oid_md_alg
	.section	.rodata.oid_md_alg,"a",%progbits
	.p2align	2
oid_md_alg:
	.long	.L.str.186
	.long	8                               @ 0x8
	.long	.L.str.187
	.long	.L.str.188
	.byte	3                               @ 0x3
	.zero	3
	.long	.L.str.189
	.long	5                               @ 0x5
	.long	.L.str.190
	.long	.L.str.191
	.byte	4                               @ 0x4
	.zero	3
	.long	.L.str.192
	.long	9                               @ 0x9
	.long	.L.str.193
	.long	.L.str.194
	.byte	5                               @ 0x5
	.zero	3
	.long	.L.str.195
	.long	9                               @ 0x9
	.long	.L.str.196
	.long	.L.str.197
	.byte	6                               @ 0x6
	.zero	3
	.long	.L.str.198
	.long	9                               @ 0x9
	.long	.L.str.199
	.long	.L.str.200
	.byte	7                               @ 0x7
	.zero	3
	.long	.L.str.201
	.long	9                               @ 0x9
	.long	.L.str.202
	.long	.L.str.203
	.byte	8                               @ 0x8
	.zero	3
	.zero	20
	.size	oid_md_alg, 140

	.type	oid_x520_attr_type,%object      @ @oid_x520_attr_type
	.section	.rodata.oid_x520_attr_type,"a",%progbits
	.p2align	2
oid_x520_attr_type:
	.long	.L.str.2
	.long	3                               @ 0x3
	.long	.L.str.3
	.long	.L.str.4
	.long	.L.str.5
	.long	.L.str.6
	.long	3                               @ 0x3
	.long	.L.str.7
	.long	.L.str.8
	.long	.L.str.9
	.long	.L.str.10
	.long	3                               @ 0x3
	.long	.L.str.11
	.long	.L.str.12
	.long	.L.str.13
	.long	.L.str.14
	.long	3                               @ 0x3
	.long	.L.str.15
	.long	.L.str.16
	.long	.L.str.17
	.long	.L.str.18
	.long	3                               @ 0x3
	.long	.L.str.19
	.long	.L.str.20
	.long	.L.str.21
	.long	.L.str.22
	.long	3                               @ 0x3
	.long	.L.str.23
	.long	.L.str.24
	.long	.L.str.25
	.long	.L.str.26
	.long	9                               @ 0x9
	.long	.L.str.27
	.long	.L.str.28
	.long	.L.str.27
	.long	.L.str.29
	.long	3                               @ 0x3
	.long	.L.str.30
	.long	.L.str.31
	.long	.L.str.32
	.long	.L.str.33
	.long	3                               @ 0x3
	.long	.L.str.34
	.long	.L.str.35
	.long	.L.str.36
	.long	.L.str.37
	.long	3                               @ 0x3
	.long	.L.str.38
	.long	.L.str.39
	.long	.L.str.40
	.long	.L.str.41
	.long	3                               @ 0x3
	.long	.L.str.42
	.long	.L.str.43
	.long	.L.str.44
	.long	.L.str.45
	.long	3                               @ 0x3
	.long	.L.str.46
	.long	.L.str.47
	.long	.L.str.48
	.long	.L.str.49
	.long	3                               @ 0x3
	.long	.L.str.50
	.long	.L.str.51
	.long	.L.str.52
	.long	.L.str.53
	.long	3                               @ 0x3
	.long	.L.str.54
	.long	.L.str.55
	.long	.L.str.56
	.long	.L.str.57
	.long	3                               @ 0x3
	.long	.L.str.58
	.long	.L.str.59
	.long	.L.str.60
	.long	.L.str.61
	.long	3                               @ 0x3
	.long	.L.str.62
	.long	.L.str.63
	.long	.L.str.64
	.long	.L.str.65
	.long	3                               @ 0x3
	.long	.L.str.66
	.long	.L.str.67
	.long	.L.str.68
	.long	.L.str.69
	.long	10                              @ 0xa
	.long	.L.str.70
	.long	.L.str.71
	.long	.L.str.72
	.long	.L.str.73
	.long	3                               @ 0x3
	.long	.L.str.74
	.long	.L.str.75
	.long	.L.str.76
	.zero	20
	.size	oid_x520_attr_type, 400

	.type	.L.str.2,%object                @ @.str.2
	.section	.rodata.str1.1,"aMS",%progbits,1
.L.str.2:
	.asciz	"U\004\003"
	.size	.L.str.2, 4

	.type	.L.str.3,%object                @ @.str.3
.L.str.3:
	.asciz	"id-at-commonName"
	.size	.L.str.3, 17

	.type	.L.str.4,%object                @ @.str.4
.L.str.4:
	.asciz	"Common Name"
	.size	.L.str.4, 12

	.type	.L.str.5,%object                @ @.str.5
.L.str.5:
	.asciz	"CN"
	.size	.L.str.5, 3

	.type	.L.str.6,%object                @ @.str.6
.L.str.6:
	.asciz	"U\004\006"
	.size	.L.str.6, 4

	.type	.L.str.7,%object                @ @.str.7
.L.str.7:
	.asciz	"id-at-countryName"
	.size	.L.str.7, 18

	.type	.L.str.8,%object                @ @.str.8
.L.str.8:
	.asciz	"Country"
	.size	.L.str.8, 8

	.type	.L.str.9,%object                @ @.str.9
.L.str.9:
	.asciz	"C"
	.size	.L.str.9, 2

	.type	.L.str.10,%object               @ @.str.10
.L.str.10:
	.asciz	"U\004\007"
	.size	.L.str.10, 4

	.type	.L.str.11,%object               @ @.str.11
.L.str.11:
	.asciz	"id-at-locality"
	.size	.L.str.11, 15

	.type	.L.str.12,%object               @ @.str.12
.L.str.12:
	.asciz	"Locality"
	.size	.L.str.12, 9

	.type	.L.str.13,%object               @ @.str.13
.L.str.13:
	.asciz	"L"
	.size	.L.str.13, 2

	.type	.L.str.14,%object               @ @.str.14
.L.str.14:
	.asciz	"U\004\b"
	.size	.L.str.14, 4

	.type	.L.str.15,%object               @ @.str.15
.L.str.15:
	.asciz	"id-at-state"
	.size	.L.str.15, 12

	.type	.L.str.16,%object               @ @.str.16
.L.str.16:
	.asciz	"State"
	.size	.L.str.16, 6

	.type	.L.str.17,%object               @ @.str.17
.L.str.17:
	.asciz	"ST"
	.size	.L.str.17, 3

	.type	.L.str.18,%object               @ @.str.18
.L.str.18:
	.asciz	"U\004\n"
	.size	.L.str.18, 4

	.type	.L.str.19,%object               @ @.str.19
.L.str.19:
	.asciz	"id-at-organizationName"
	.size	.L.str.19, 23

	.type	.L.str.20,%object               @ @.str.20
.L.str.20:
	.asciz	"Organization"
	.size	.L.str.20, 13

	.type	.L.str.21,%object               @ @.str.21
.L.str.21:
	.asciz	"O"
	.size	.L.str.21, 2

	.type	.L.str.22,%object               @ @.str.22
.L.str.22:
	.asciz	"U\004\013"
	.size	.L.str.22, 4

	.type	.L.str.23,%object               @ @.str.23
.L.str.23:
	.asciz	"id-at-organizationalUnitName"
	.size	.L.str.23, 29

	.type	.L.str.24,%object               @ @.str.24
.L.str.24:
	.asciz	"Org Unit"
	.size	.L.str.24, 9

	.type	.L.str.25,%object               @ @.str.25
.L.str.25:
	.asciz	"OU"
	.size	.L.str.25, 3

	.type	.L.str.26,%object               @ @.str.26
.L.str.26:
	.asciz	"*\206H\206\367\r\001\t\001"
	.size	.L.str.26, 10

	.type	.L.str.27,%object               @ @.str.27
.L.str.27:
	.asciz	"emailAddress"
	.size	.L.str.27, 13

	.type	.L.str.28,%object               @ @.str.28
.L.str.28:
	.asciz	"E-mail address"
	.size	.L.str.28, 15

	.type	.L.str.29,%object               @ @.str.29
.L.str.29:
	.asciz	"U\004\005"
	.size	.L.str.29, 4

	.type	.L.str.30,%object               @ @.str.30
.L.str.30:
	.asciz	"id-at-serialNumber"
	.size	.L.str.30, 19

	.type	.L.str.31,%object               @ @.str.31
.L.str.31:
	.asciz	"Serial number"
	.size	.L.str.31, 14

	.type	.L.str.32,%object               @ @.str.32
.L.str.32:
	.asciz	"serialNumber"
	.size	.L.str.32, 13

	.type	.L.str.33,%object               @ @.str.33
.L.str.33:
	.asciz	"U\004\020"
	.size	.L.str.33, 4

	.type	.L.str.34,%object               @ @.str.34
.L.str.34:
	.asciz	"id-at-postalAddress"
	.size	.L.str.34, 20

	.type	.L.str.35,%object               @ @.str.35
.L.str.35:
	.asciz	"Postal address"
	.size	.L.str.35, 15

	.type	.L.str.36,%object               @ @.str.36
.L.str.36:
	.asciz	"postalAddress"
	.size	.L.str.36, 14

	.type	.L.str.37,%object               @ @.str.37
.L.str.37:
	.asciz	"U\004\021"
	.size	.L.str.37, 4

	.type	.L.str.38,%object               @ @.str.38
.L.str.38:
	.asciz	"id-at-postalCode"
	.size	.L.str.38, 17

	.type	.L.str.39,%object               @ @.str.39
.L.str.39:
	.asciz	"Postal code"
	.size	.L.str.39, 12

	.type	.L.str.40,%object               @ @.str.40
.L.str.40:
	.asciz	"postalCode"
	.size	.L.str.40, 11

	.type	.L.str.41,%object               @ @.str.41
.L.str.41:
	.asciz	"U\004\004"
	.size	.L.str.41, 4

	.type	.L.str.42,%object               @ @.str.42
.L.str.42:
	.asciz	"id-at-surName"
	.size	.L.str.42, 14

	.type	.L.str.43,%object               @ @.str.43
.L.str.43:
	.asciz	"Surname"
	.size	.L.str.43, 8

	.type	.L.str.44,%object               @ @.str.44
.L.str.44:
	.asciz	"SN"
	.size	.L.str.44, 3

	.type	.L.str.45,%object               @ @.str.45
.L.str.45:
	.asciz	"U\004*"
	.size	.L.str.45, 4

	.type	.L.str.46,%object               @ @.str.46
.L.str.46:
	.asciz	"id-at-givenName"
	.size	.L.str.46, 16

	.type	.L.str.47,%object               @ @.str.47
.L.str.47:
	.asciz	"Given name"
	.size	.L.str.47, 11

	.type	.L.str.48,%object               @ @.str.48
.L.str.48:
	.asciz	"GN"
	.size	.L.str.48, 3

	.type	.L.str.49,%object               @ @.str.49
.L.str.49:
	.asciz	"U\004+"
	.size	.L.str.49, 4

	.type	.L.str.50,%object               @ @.str.50
.L.str.50:
	.asciz	"id-at-initials"
	.size	.L.str.50, 15

	.type	.L.str.51,%object               @ @.str.51
.L.str.51:
	.asciz	"Initials"
	.size	.L.str.51, 9

	.type	.L.str.52,%object               @ @.str.52
.L.str.52:
	.asciz	"initials"
	.size	.L.str.52, 9

	.type	.L.str.53,%object               @ @.str.53
.L.str.53:
	.asciz	"U\004,"
	.size	.L.str.53, 4

	.type	.L.str.54,%object               @ @.str.54
.L.str.54:
	.asciz	"id-at-generationQualifier"
	.size	.L.str.54, 26

	.type	.L.str.55,%object               @ @.str.55
.L.str.55:
	.asciz	"Generation qualifier"
	.size	.L.str.55, 21

	.type	.L.str.56,%object               @ @.str.56
.L.str.56:
	.asciz	"generationQualifier"
	.size	.L.str.56, 20

	.type	.L.str.57,%object               @ @.str.57
.L.str.57:
	.asciz	"U\004\f"
	.size	.L.str.57, 4

	.type	.L.str.58,%object               @ @.str.58
.L.str.58:
	.asciz	"id-at-title"
	.size	.L.str.58, 12

	.type	.L.str.59,%object               @ @.str.59
.L.str.59:
	.asciz	"Title"
	.size	.L.str.59, 6

	.type	.L.str.60,%object               @ @.str.60
.L.str.60:
	.asciz	"title"
	.size	.L.str.60, 6

	.type	.L.str.61,%object               @ @.str.61
.L.str.61:
	.asciz	"U\004."
	.size	.L.str.61, 4

	.type	.L.str.62,%object               @ @.str.62
.L.str.62:
	.asciz	"id-at-dnQualifier"
	.size	.L.str.62, 18

	.type	.L.str.63,%object               @ @.str.63
.L.str.63:
	.asciz	"Distinguished Name qualifier"
	.size	.L.str.63, 29

	.type	.L.str.64,%object               @ @.str.64
.L.str.64:
	.asciz	"dnQualifier"
	.size	.L.str.64, 12

	.type	.L.str.65,%object               @ @.str.65
.L.str.65:
	.asciz	"U\004A"
	.size	.L.str.65, 4

	.type	.L.str.66,%object               @ @.str.66
.L.str.66:
	.asciz	"id-at-pseudonym"
	.size	.L.str.66, 16

	.type	.L.str.67,%object               @ @.str.67
.L.str.67:
	.asciz	"Pseudonym"
	.size	.L.str.67, 10

	.type	.L.str.68,%object               @ @.str.68
.L.str.68:
	.asciz	"pseudonym"
	.size	.L.str.68, 10

	.type	.L.str.69,%object               @ @.str.69
.L.str.69:
	.asciz	"\t\222&\211\223\362,d\001\031"
	.size	.L.str.69, 11

	.type	.L.str.70,%object               @ @.str.70
.L.str.70:
	.asciz	"id-domainComponent"
	.size	.L.str.70, 19

	.type	.L.str.71,%object               @ @.str.71
.L.str.71:
	.asciz	"Domain component"
	.size	.L.str.71, 17

	.type	.L.str.72,%object               @ @.str.72
.L.str.72:
	.asciz	"DC"
	.size	.L.str.72, 3

	.type	.L.str.73,%object               @ @.str.73
.L.str.73:
	.asciz	"U\004-"
	.size	.L.str.73, 4

	.type	.L.str.74,%object               @ @.str.74
.L.str.74:
	.asciz	"id-at-uniqueIdentifier"
	.size	.L.str.74, 23

	.type	.L.str.75,%object               @ @.str.75
.L.str.75:
	.asciz	"Unique Identifier"
	.size	.L.str.75, 18

	.type	.L.str.76,%object               @ @.str.76
.L.str.76:
	.asciz	"uniqueIdentifier"
	.size	.L.str.76, 17

	.type	oid_x509_ext,%object            @ @oid_x509_ext
	.section	.rodata.oid_x509_ext,"a",%progbits
	.p2align	2
oid_x509_ext:
	.long	.L.str.77
	.long	3                               @ 0x3
	.long	.L.str.78
	.long	.L.str.79
	.long	256                             @ 0x100
	.long	.L.str.80
	.long	3                               @ 0x3
	.long	.L.str.81
	.long	.L.str.82
	.long	4                               @ 0x4
	.long	.L.str.83
	.long	3                               @ 0x3
	.long	.L.str.84
	.long	.L.str.85
	.long	2048                            @ 0x800
	.long	.L.str.86
	.long	3                               @ 0x3
	.long	.L.str.87
	.long	.L.str.88
	.long	32                              @ 0x20
	.long	.L.str.89
	.long	9                               @ 0x9
	.long	.L.str.90
	.long	.L.str.91
	.long	65536                           @ 0x10000
	.zero	20
	.size	oid_x509_ext, 120

	.type	.L.str.77,%object               @ @.str.77
	.section	.rodata.str1.1,"aMS",%progbits,1
.L.str.77:
	.asciz	"U\035\023"
	.size	.L.str.77, 4

	.type	.L.str.78,%object               @ @.str.78
.L.str.78:
	.asciz	"id-ce-basicConstraints"
	.size	.L.str.78, 23

	.type	.L.str.79,%object               @ @.str.79
.L.str.79:
	.asciz	"Basic Constraints"
	.size	.L.str.79, 18

	.type	.L.str.80,%object               @ @.str.80
.L.str.80:
	.asciz	"U\035\017"
	.size	.L.str.80, 4

	.type	.L.str.81,%object               @ @.str.81
.L.str.81:
	.asciz	"id-ce-keyUsage"
	.size	.L.str.81, 15

	.type	.L.str.82,%object               @ @.str.82
.L.str.82:
	.asciz	"Key Usage"
	.size	.L.str.82, 10

	.type	.L.str.83,%object               @ @.str.83
.L.str.83:
	.asciz	"U\035%"
	.size	.L.str.83, 4

	.type	.L.str.84,%object               @ @.str.84
.L.str.84:
	.asciz	"id-ce-extKeyUsage"
	.size	.L.str.84, 18

	.type	.L.str.85,%object               @ @.str.85
.L.str.85:
	.asciz	"Extended Key Usage"
	.size	.L.str.85, 19

	.type	.L.str.86,%object               @ @.str.86
.L.str.86:
	.asciz	"U\035\021"
	.size	.L.str.86, 4

	.type	.L.str.87,%object               @ @.str.87
.L.str.87:
	.asciz	"id-ce-subjectAltName"
	.size	.L.str.87, 21

	.type	.L.str.88,%object               @ @.str.88
.L.str.88:
	.asciz	"Subject Alt Name"
	.size	.L.str.88, 17

	.type	.L.str.89,%object               @ @.str.89
.L.str.89:
	.asciz	"`\206H\001\206\370B\001\001"
	.size	.L.str.89, 10

	.type	.L.str.90,%object               @ @.str.90
.L.str.90:
	.asciz	"id-netscape-certtype"
	.size	.L.str.90, 21

	.type	.L.str.91,%object               @ @.str.91
.L.str.91:
	.asciz	"Netscape Certificate Type"
	.size	.L.str.91, 26

	.type	oid_ext_key_usage,%object       @ @oid_ext_key_usage
	.section	.rodata.oid_ext_key_usage,"a",%progbits
	.p2align	2
oid_ext_key_usage:
	.long	.L.str.92
	.long	8                               @ 0x8
	.long	.L.str.93
	.long	.L.str.94
	.long	.L.str.95
	.long	8                               @ 0x8
	.long	.L.str.96
	.long	.L.str.97
	.long	.L.str.98
	.long	8                               @ 0x8
	.long	.L.str.99
	.long	.L.str.100
	.long	.L.str.101
	.long	8                               @ 0x8
	.long	.L.str.102
	.long	.L.str.103
	.long	.L.str.104
	.long	8                               @ 0x8
	.long	.L.str.105
	.long	.L.str.106
	.long	.L.str.107
	.long	8                               @ 0x8
	.long	.L.str.108
	.long	.L.str.109
	.zero	16
	.size	oid_ext_key_usage, 112

	.type	.L.str.92,%object               @ @.str.92
	.section	.rodata.str1.1,"aMS",%progbits,1
.L.str.92:
	.asciz	"+\006\001\005\005\007\003\001"
	.size	.L.str.92, 9

	.type	.L.str.93,%object               @ @.str.93
.L.str.93:
	.asciz	"id-kp-serverAuth"
	.size	.L.str.93, 17

	.type	.L.str.94,%object               @ @.str.94
.L.str.94:
	.asciz	"TLS Web Server Authentication"
	.size	.L.str.94, 30

	.type	.L.str.95,%object               @ @.str.95
.L.str.95:
	.asciz	"+\006\001\005\005\007\003\002"
	.size	.L.str.95, 9

	.type	.L.str.96,%object               @ @.str.96
.L.str.96:
	.asciz	"id-kp-clientAuth"
	.size	.L.str.96, 17

	.type	.L.str.97,%object               @ @.str.97
.L.str.97:
	.asciz	"TLS Web Client Authentication"
	.size	.L.str.97, 30

	.type	.L.str.98,%object               @ @.str.98
.L.str.98:
	.asciz	"+\006\001\005\005\007\003\003"
	.size	.L.str.98, 9

	.type	.L.str.99,%object               @ @.str.99
.L.str.99:
	.asciz	"id-kp-codeSigning"
	.size	.L.str.99, 18

	.type	.L.str.100,%object              @ @.str.100
.L.str.100:
	.asciz	"Code Signing"
	.size	.L.str.100, 13

	.type	.L.str.101,%object              @ @.str.101
.L.str.101:
	.asciz	"+\006\001\005\005\007\003\004"
	.size	.L.str.101, 9

	.type	.L.str.102,%object              @ @.str.102
.L.str.102:
	.asciz	"id-kp-emailProtection"
	.size	.L.str.102, 22

	.type	.L.str.103,%object              @ @.str.103
.L.str.103:
	.asciz	"E-mail Protection"
	.size	.L.str.103, 18

	.type	.L.str.104,%object              @ @.str.104
.L.str.104:
	.asciz	"+\006\001\005\005\007\003\b"
	.size	.L.str.104, 9

	.type	.L.str.105,%object              @ @.str.105
.L.str.105:
	.asciz	"id-kp-timeStamping"
	.size	.L.str.105, 19

	.type	.L.str.106,%object              @ @.str.106
.L.str.106:
	.asciz	"Time Stamping"
	.size	.L.str.106, 14

	.type	.L.str.107,%object              @ @.str.107
.L.str.107:
	.asciz	"+\006\001\005\005\007\003\t"
	.size	.L.str.107, 9

	.type	.L.str.108,%object              @ @.str.108
.L.str.108:
	.asciz	"id-kp-OCSPSigning"
	.size	.L.str.108, 18

	.type	.L.str.109,%object              @ @.str.109
.L.str.109:
	.asciz	"OCSP Signing"
	.size	.L.str.109, 13

	.type	.L.str.110,%object              @ @.str.110
.L.str.110:
	.asciz	"*\206H\206\367\r\001\001\004"
	.size	.L.str.110, 10

	.type	.L.str.111,%object              @ @.str.111
.L.str.111:
	.asciz	"md5WithRSAEncryption"
	.size	.L.str.111, 21

	.type	.L.str.112,%object              @ @.str.112
.L.str.112:
	.asciz	"RSA with MD5"
	.size	.L.str.112, 13

	.type	.L.str.113,%object              @ @.str.113
.L.str.113:
	.asciz	"*\206H\206\367\r\001\001\005"
	.size	.L.str.113, 10

	.type	.L.str.114,%object              @ @.str.114
.L.str.114:
	.asciz	"sha-1WithRSAEncryption"
	.size	.L.str.114, 23

	.type	.L.str.115,%object              @ @.str.115
.L.str.115:
	.asciz	"RSA with SHA1"
	.size	.L.str.115, 14

	.type	.L.str.116,%object              @ @.str.116
.L.str.116:
	.asciz	"*\206H\206\367\r\001\001\016"
	.size	.L.str.116, 10

	.type	.L.str.117,%object              @ @.str.117
.L.str.117:
	.asciz	"sha224WithRSAEncryption"
	.size	.L.str.117, 24

	.type	.L.str.118,%object              @ @.str.118
.L.str.118:
	.asciz	"RSA with SHA-224"
	.size	.L.str.118, 17

	.type	.L.str.119,%object              @ @.str.119
.L.str.119:
	.asciz	"*\206H\206\367\r\001\001\013"
	.size	.L.str.119, 10

	.type	.L.str.120,%object              @ @.str.120
.L.str.120:
	.asciz	"sha256WithRSAEncryption"
	.size	.L.str.120, 24

	.type	.L.str.121,%object              @ @.str.121
.L.str.121:
	.asciz	"RSA with SHA-256"
	.size	.L.str.121, 17

	.type	.L.str.122,%object              @ @.str.122
.L.str.122:
	.asciz	"*\206H\206\367\r\001\001\f"
	.size	.L.str.122, 10

	.type	.L.str.123,%object              @ @.str.123
.L.str.123:
	.asciz	"sha384WithRSAEncryption"
	.size	.L.str.123, 24

	.type	.L.str.124,%object              @ @.str.124
.L.str.124:
	.asciz	"RSA with SHA-384"
	.size	.L.str.124, 17

	.type	.L.str.125,%object              @ @.str.125
.L.str.125:
	.asciz	"*\206H\206\367\r\001\001\r"
	.size	.L.str.125, 10

	.type	.L.str.126,%object              @ @.str.126
.L.str.126:
	.asciz	"sha512WithRSAEncryption"
	.size	.L.str.126, 24

	.type	.L.str.127,%object              @ @.str.127
.L.str.127:
	.asciz	"RSA with SHA-512"
	.size	.L.str.127, 17

	.type	.L.str.128,%object              @ @.str.128
.L.str.128:
	.asciz	"+\016\003\002\035"
	.size	.L.str.128, 6

	.type	.L.str.129,%object              @ @.str.129
.L.str.129:
	.asciz	"*\206H\316=\004\001"
	.size	.L.str.129, 8

	.type	.L.str.130,%object              @ @.str.130
.L.str.130:
	.asciz	"ecdsa-with-SHA1"
	.size	.L.str.130, 16

	.type	.L.str.131,%object              @ @.str.131
.L.str.131:
	.asciz	"ECDSA with SHA1"
	.size	.L.str.131, 16

	.type	.L.str.132,%object              @ @.str.132
.L.str.132:
	.asciz	"*\206H\316=\004\003\001"
	.size	.L.str.132, 9

	.type	.L.str.133,%object              @ @.str.133
.L.str.133:
	.asciz	"ecdsa-with-SHA224"
	.size	.L.str.133, 18

	.type	.L.str.134,%object              @ @.str.134
.L.str.134:
	.asciz	"ECDSA with SHA224"
	.size	.L.str.134, 18

	.type	.L.str.135,%object              @ @.str.135
.L.str.135:
	.asciz	"*\206H\316=\004\003\002"
	.size	.L.str.135, 9

	.type	.L.str.136,%object              @ @.str.136
.L.str.136:
	.asciz	"ecdsa-with-SHA256"
	.size	.L.str.136, 18

	.type	.L.str.137,%object              @ @.str.137
.L.str.137:
	.asciz	"ECDSA with SHA256"
	.size	.L.str.137, 18

	.type	.L.str.138,%object              @ @.str.138
.L.str.138:
	.asciz	"*\206H\316=\004\003\003"
	.size	.L.str.138, 9

	.type	.L.str.139,%object              @ @.str.139
.L.str.139:
	.asciz	"ecdsa-with-SHA384"
	.size	.L.str.139, 18

	.type	.L.str.140,%object              @ @.str.140
.L.str.140:
	.asciz	"ECDSA with SHA384"
	.size	.L.str.140, 18

	.type	.L.str.141,%object              @ @.str.141
.L.str.141:
	.asciz	"*\206H\316=\004\003\004"
	.size	.L.str.141, 9

	.type	.L.str.142,%object              @ @.str.142
.L.str.142:
	.asciz	"ecdsa-with-SHA512"
	.size	.L.str.142, 18

	.type	.L.str.143,%object              @ @.str.143
.L.str.143:
	.asciz	"ECDSA with SHA512"
	.size	.L.str.143, 18

	.type	.L.str.144,%object              @ @.str.144
.L.str.144:
	.asciz	"*\206H\206\367\r\001\001\n"
	.size	.L.str.144, 10

	.type	.L.str.145,%object              @ @.str.145
.L.str.145:
	.asciz	"RSASSA-PSS"
	.size	.L.str.145, 11

	.type	.L.str.146,%object              @ @.str.146
.L.str.146:
	.asciz	"*\206H\206\367\r\001\001\001"
	.size	.L.str.146, 10

	.type	.L.str.147,%object              @ @.str.147
.L.str.147:
	.asciz	"rsaEncryption"
	.size	.L.str.147, 14

	.type	.L.str.148,%object              @ @.str.148
.L.str.148:
	.asciz	"RSA"
	.size	.L.str.148, 4

	.type	.L.str.149,%object              @ @.str.149
.L.str.149:
	.asciz	"*\206H\316=\002\001"
	.size	.L.str.149, 8

	.type	.L.str.150,%object              @ @.str.150
.L.str.150:
	.asciz	"id-ecPublicKey"
	.size	.L.str.150, 15

	.type	.L.str.151,%object              @ @.str.151
.L.str.151:
	.asciz	"Generic EC key"
	.size	.L.str.151, 15

	.type	.L.str.152,%object              @ @.str.152
.L.str.152:
	.asciz	"+\201\004\001\f"
	.size	.L.str.152, 6

	.type	.L.str.153,%object              @ @.str.153
.L.str.153:
	.asciz	"id-ecDH"
	.size	.L.str.153, 8

	.type	.L.str.154,%object              @ @.str.154
.L.str.154:
	.asciz	"EC key for ECDH"
	.size	.L.str.154, 16

	.type	.L.str.155,%object              @ @.str.155
.L.str.155:
	.asciz	"*\206H\316=\003\001\001"
	.size	.L.str.155, 9

	.type	.L.str.156,%object              @ @.str.156
.L.str.156:
	.asciz	"secp192r1"
	.size	.L.str.156, 10

	.type	.L.str.157,%object              @ @.str.157
	.section	.rodata..L.str.157,"a",%progbits
.L.str.157:
	.asciz	"+\201\004\000!"
	.size	.L.str.157, 6

	.type	.L.str.158,%object              @ @.str.158
	.section	.rodata.str1.1,"aMS",%progbits,1
.L.str.158:
	.asciz	"secp224r1"
	.size	.L.str.158, 10

	.type	.L.str.159,%object              @ @.str.159
.L.str.159:
	.asciz	"*\206H\316=\003\001\007"
	.size	.L.str.159, 9

	.type	.L.str.160,%object              @ @.str.160
.L.str.160:
	.asciz	"secp256r1"
	.size	.L.str.160, 10

	.type	.L.str.161,%object              @ @.str.161
	.section	.rodata..L.str.161,"a",%progbits
.L.str.161:
	.asciz	"+\201\004\000\""
	.size	.L.str.161, 6

	.type	.L.str.162,%object              @ @.str.162
	.section	.rodata.str1.1,"aMS",%progbits,1
.L.str.162:
	.asciz	"secp384r1"
	.size	.L.str.162, 10

	.type	.L.str.163,%object              @ @.str.163
	.section	.rodata..L.str.163,"a",%progbits
.L.str.163:
	.asciz	"+\201\004\000#"
	.size	.L.str.163, 6

	.type	.L.str.164,%object              @ @.str.164
	.section	.rodata.str1.1,"aMS",%progbits,1
.L.str.164:
	.asciz	"secp521r1"
	.size	.L.str.164, 10

	.type	.L.str.165,%object              @ @.str.165
	.section	.rodata..L.str.165,"a",%progbits
.L.str.165:
	.asciz	"+\201\004\000\037"
	.size	.L.str.165, 6

	.type	.L.str.166,%object              @ @.str.166
	.section	.rodata.str1.1,"aMS",%progbits,1
.L.str.166:
	.asciz	"secp192k1"
	.size	.L.str.166, 10

	.type	.L.str.167,%object              @ @.str.167
	.section	.rodata..L.str.167,"a",%progbits
.L.str.167:
	.asciz	"+\201\004\000 "
	.size	.L.str.167, 6

	.type	.L.str.168,%object              @ @.str.168
	.section	.rodata.str1.1,"aMS",%progbits,1
.L.str.168:
	.asciz	"secp224k1"
	.size	.L.str.168, 10

	.type	.L.str.169,%object              @ @.str.169
	.section	.rodata..L.str.169,"a",%progbits
.L.str.169:
	.asciz	"+\201\004\000\n"
	.size	.L.str.169, 6

	.type	.L.str.170,%object              @ @.str.170
	.section	.rodata.str1.1,"aMS",%progbits,1
.L.str.170:
	.asciz	"secp256k1"
	.size	.L.str.170, 10

	.type	.L.str.171,%object              @ @.str.171
.L.str.171:
	.asciz	"+$\003\003\002\b\001\001\007"
	.size	.L.str.171, 10

	.type	.L.str.172,%object              @ @.str.172
.L.str.172:
	.asciz	"brainpoolP256r1"
	.size	.L.str.172, 16

	.type	.L.str.173,%object              @ @.str.173
.L.str.173:
	.asciz	"brainpool256r1"
	.size	.L.str.173, 15

	.type	.L.str.174,%object              @ @.str.174
.L.str.174:
	.asciz	"+$\003\003\002\b\001\001\013"
	.size	.L.str.174, 10

	.type	.L.str.175,%object              @ @.str.175
.L.str.175:
	.asciz	"brainpoolP384r1"
	.size	.L.str.175, 16

	.type	.L.str.176,%object              @ @.str.176
.L.str.176:
	.asciz	"brainpool384r1"
	.size	.L.str.176, 15

	.type	.L.str.177,%object              @ @.str.177
.L.str.177:
	.asciz	"+$\003\003\002\b\001\001\r"
	.size	.L.str.177, 10

	.type	.L.str.178,%object              @ @.str.178
.L.str.178:
	.asciz	"brainpoolP512r1"
	.size	.L.str.178, 16

	.type	.L.str.179,%object              @ @.str.179
.L.str.179:
	.asciz	"brainpool512r1"
	.size	.L.str.179, 15

	.type	oid_cipher_alg,%object          @ @oid_cipher_alg
	.section	.rodata.oid_cipher_alg,"a",%progbits
	.p2align	2
oid_cipher_alg:
	.long	.L.str.180
	.long	5                               @ 0x5
	.long	.L.str.181
	.long	.L.str.182
	.byte	33                              @ 0x21
	.zero	3
	.long	.L.str.183
	.long	8                               @ 0x8
	.long	.L.str.184
	.long	.L.str.185
	.byte	37                              @ 0x25
	.zero	3
	.zero	20
	.size	oid_cipher_alg, 60

	.type	.L.str.180,%object              @ @.str.180
	.section	.rodata.str1.1,"aMS",%progbits,1
.L.str.180:
	.asciz	"+\016\003\002\007"
	.size	.L.str.180, 6

	.type	.L.str.181,%object              @ @.str.181
.L.str.181:
	.asciz	"desCBC"
	.size	.L.str.181, 7

	.type	.L.str.182,%object              @ @.str.182
.L.str.182:
	.asciz	"DES-CBC"
	.size	.L.str.182, 8

	.type	.L.str.183,%object              @ @.str.183
.L.str.183:
	.asciz	"*\206H\206\367\r\003\007"
	.size	.L.str.183, 9

	.type	.L.str.184,%object              @ @.str.184
.L.str.184:
	.asciz	"des-ede3-cbc"
	.size	.L.str.184, 13

	.type	.L.str.185,%object              @ @.str.185
.L.str.185:
	.asciz	"DES-EDE3-CBC"
	.size	.L.str.185, 13

	.type	.L.str.186,%object              @ @.str.186
.L.str.186:
	.asciz	"*\206H\206\367\r\002\005"
	.size	.L.str.186, 9

	.type	.L.str.187,%object              @ @.str.187
.L.str.187:
	.asciz	"id-md5"
	.size	.L.str.187, 7

	.type	.L.str.188,%object              @ @.str.188
.L.str.188:
	.asciz	"MD5"
	.size	.L.str.188, 4

	.type	.L.str.189,%object              @ @.str.189
.L.str.189:
	.asciz	"+\016\003\002\032"
	.size	.L.str.189, 6

	.type	.L.str.190,%object              @ @.str.190
.L.str.190:
	.asciz	"id-sha1"
	.size	.L.str.190, 8

	.type	.L.str.191,%object              @ @.str.191
.L.str.191:
	.asciz	"SHA-1"
	.size	.L.str.191, 6

	.type	.L.str.192,%object              @ @.str.192
.L.str.192:
	.asciz	"`\206H\001e\003\004\002\004"
	.size	.L.str.192, 10

	.type	.L.str.193,%object              @ @.str.193
.L.str.193:
	.asciz	"id-sha224"
	.size	.L.str.193, 10

	.type	.L.str.194,%object              @ @.str.194
.L.str.194:
	.asciz	"SHA-224"
	.size	.L.str.194, 8

	.type	.L.str.195,%object              @ @.str.195
.L.str.195:
	.asciz	"`\206H\001e\003\004\002\001"
	.size	.L.str.195, 10

	.type	.L.str.196,%object              @ @.str.196
.L.str.196:
	.asciz	"id-sha256"
	.size	.L.str.196, 10

	.type	.L.str.197,%object              @ @.str.197
.L.str.197:
	.asciz	"SHA-256"
	.size	.L.str.197, 8

	.type	.L.str.198,%object              @ @.str.198
.L.str.198:
	.asciz	"`\206H\001e\003\004\002\002"
	.size	.L.str.198, 10

	.type	.L.str.199,%object              @ @.str.199
.L.str.199:
	.asciz	"id-sha384"
	.size	.L.str.199, 10

	.type	.L.str.200,%object              @ @.str.200
.L.str.200:
	.asciz	"SHA-384"
	.size	.L.str.200, 8

	.type	.L.str.201,%object              @ @.str.201
.L.str.201:
	.asciz	"`\206H\001e\003\004\002\003"
	.size	.L.str.201, 10

	.type	.L.str.202,%object              @ @.str.202
.L.str.202:
	.asciz	"id-sha512"
	.size	.L.str.202, 10

	.type	.L.str.203,%object              @ @.str.203
.L.str.203:
	.asciz	"SHA-512"
	.size	.L.str.203, 8

	.type	oid_md_hmac,%object             @ @oid_md_hmac
	.section	.rodata.oid_md_hmac,"a",%progbits
	.p2align	2
oid_md_hmac:
	.long	.L.str.204
	.long	8                               @ 0x8
	.long	.L.str.205
	.long	.L.str.206
	.byte	4                               @ 0x4
	.zero	3
	.long	.L.str.207
	.long	8                               @ 0x8
	.long	.L.str.208
	.long	.L.str.209
	.byte	5                               @ 0x5
	.zero	3
	.long	.L.str.210
	.long	8                               @ 0x8
	.long	.L.str.211
	.long	.L.str.212
	.byte	6                               @ 0x6
	.zero	3
	.long	.L.str.213
	.long	8                               @ 0x8
	.long	.L.str.214
	.long	.L.str.215
	.byte	7                               @ 0x7
	.zero	3
	.long	.L.str.216
	.long	8                               @ 0x8
	.long	.L.str.217
	.long	.L.str.218
	.byte	8                               @ 0x8
	.zero	3
	.zero	20
	.size	oid_md_hmac, 120

	.type	.L.str.204,%object              @ @.str.204
	.section	.rodata.str1.1,"aMS",%progbits,1
.L.str.204:
	.asciz	"*\206H\206\367\r\002\007"
	.size	.L.str.204, 9

	.type	.L.str.205,%object              @ @.str.205
.L.str.205:
	.asciz	"hmacSHA1"
	.size	.L.str.205, 9

	.type	.L.str.206,%object              @ @.str.206
.L.str.206:
	.asciz	"HMAC-SHA-1"
	.size	.L.str.206, 11

	.type	.L.str.207,%object              @ @.str.207
.L.str.207:
	.asciz	"*\206H\206\367\r\002\b"
	.size	.L.str.207, 9

	.type	.L.str.208,%object              @ @.str.208
.L.str.208:
	.asciz	"hmacSHA224"
	.size	.L.str.208, 11

	.type	.L.str.209,%object              @ @.str.209
.L.str.209:
	.asciz	"HMAC-SHA-224"
	.size	.L.str.209, 13

	.type	.L.str.210,%object              @ @.str.210
.L.str.210:
	.asciz	"*\206H\206\367\r\002\t"
	.size	.L.str.210, 9

	.type	.L.str.211,%object              @ @.str.211
.L.str.211:
	.asciz	"hmacSHA256"
	.size	.L.str.211, 11

	.type	.L.str.212,%object              @ @.str.212
.L.str.212:
	.asciz	"HMAC-SHA-256"
	.size	.L.str.212, 13

	.type	.L.str.213,%object              @ @.str.213
.L.str.213:
	.asciz	"*\206H\206\367\r\002\n"
	.size	.L.str.213, 9

	.type	.L.str.214,%object              @ @.str.214
.L.str.214:
	.asciz	"hmacSHA384"
	.size	.L.str.214, 11

	.type	.L.str.215,%object              @ @.str.215
.L.str.215:
	.asciz	"HMAC-SHA-384"
	.size	.L.str.215, 13

	.type	.L.str.216,%object              @ @.str.216
.L.str.216:
	.asciz	"*\206H\206\367\r\002\013"
	.size	.L.str.216, 9

	.type	.L.str.217,%object              @ @.str.217
.L.str.217:
	.asciz	"hmacSHA512"
	.size	.L.str.217, 11

	.type	.L.str.218,%object              @ @.str.218
.L.str.218:
	.asciz	"HMAC-SHA-512"
	.size	.L.str.218, 13

	.type	oid_pkcs12_pbe_alg,%object      @ @oid_pkcs12_pbe_alg
	.section	.rodata.oid_pkcs12_pbe_alg,"a",%progbits
	.p2align	2
oid_pkcs12_pbe_alg:
	.long	.L.str.219
	.long	10                              @ 0xa
	.long	.L.str.220
	.long	.L.str.221
	.byte	4                               @ 0x4
	.byte	37                              @ 0x25
	.zero	2
	.long	.L.str.222
	.long	10                              @ 0xa
	.long	.L.str.223
	.long	.L.str.224
	.byte	4                               @ 0x4
	.byte	35                              @ 0x23
	.zero	2
	.zero	20
	.size	oid_pkcs12_pbe_alg, 60

	.type	.L.str.219,%object              @ @.str.219
	.section	.rodata.str1.1,"aMS",%progbits,1
.L.str.219:
	.asciz	"*\206H\206\367\r\001\f\001\003"
	.size	.L.str.219, 11

	.type	.L.str.220,%object              @ @.str.220
.L.str.220:
	.asciz	"pbeWithSHAAnd3-KeyTripleDES-CBC"
	.size	.L.str.220, 32

	.type	.L.str.221,%object              @ @.str.221
.L.str.221:
	.asciz	"PBE with SHA1 and 3-Key 3DES"
	.size	.L.str.221, 29

	.type	.L.str.222,%object              @ @.str.222
.L.str.222:
	.asciz	"*\206H\206\367\r\001\f\001\004"
	.size	.L.str.222, 11

	.type	.L.str.223,%object              @ @.str.223
.L.str.223:
	.asciz	"pbeWithSHAAnd2-KeyTripleDES-CBC"
	.size	.L.str.223, 32

	.type	.L.str.224,%object              @ @.str.224
.L.str.224:
	.asciz	"PBE with SHA1 and 2-Key 3DES"
	.size	.L.str.224, 29

	.globl	_printf_percent
	.globl	_printf_return_value
	.globl	_printf_d
	.globl	_printf_int_dec
	.hidden	_printf_percent
	.hidden	_printf_return_value
	.hidden	_printf_d
	.hidden	_printf_int_dec
	.file	8 "C:\\Users\\shw26\\OneDrive\\Desktop\\2021\\2021-1\\\354\272\241\354\212\244\355\206\244\353\224\224\354\236\220\354\235\2702\\Nuvoton\\M2351_BSP_v3.00.004\\M2351Series_BSP_CMSIS_V3.00.004\\MyProject\\PulseMonitoring\\Secure" "../../../ThirdParty/mbedTLS/include/mbedtls/asn1.h"
	.section	".note.GNU-stack","",%progbits
	.eabi_attribute	30, 1	@ Tag_ABI_optimization_goals
	.ARM_attribute	16, 1	@ Tag_AV_eba