	.text
	.syntax unified
	.eabi_attribute	67, "2.09"	@ Tag_conformance
	.cpu	cortex-m23
	.eabi_attribute	6, 16	@ Tag_CPU_arch
	.eabi_attribute	7, 77	@ Tag_CPU_arch_profile
	.eabi_attribute	8, 0	@ Tag_ARM_ISA_use
	.eabi_attribute	9, 3	@ Tag_THUMB_ISA_use
	.eabi_attribute	34, 0	@ Tag_CPU_unaligned_access
	.eabi_attribute	17, 1	@ Tag_ABI_PCS_GOT_use
	.eabi_attribute	20, 2	@ Tag_ABI_FP_denormal
	.eabi_attribute	21, 0	@ Tag_ABI_FP_exceptions
	.eabi_attribute	23, 1	@ Tag_ABI_FP_number_model
	.eabi_attribute	24, 1	@ Tag_ABI_align_needed
	.eabi_attribute	25, 1	@ Tag_ABI_align_preserved
	.eabi_attribute	38, 1	@ Tag_ABI_FP_16bit_format
	.eabi_attribute	18, 2	@ Tag_ABI_PCS_wchar_t
	.eabi_attribute	26, 1	@ Tag_ABI_enum_size
	.eabi_attribute	14, 0	@ Tag_ABI_PCS_R9_use
	.file	"pem.c"
	.file	1 "C:\\Users\\shw26\\OneDrive\\Desktop\\2021\\2021-1\\\354\272\241\354\212\244\355\206\244\353\224\224\354\236\220\354\235\2702\\Nuvoton\\M2351_BSP_v3.00.004\\M2351Series_BSP_CMSIS_V3.00.004\\MyProject\\PulseMonitoring\\Secure" "../../../ThirdParty/mbedTLS/include/mbedtls\\cipher.h"
	.section	.text.mbedtls_pem_init,"ax",%progbits
	.hidden	mbedtls_pem_init                @ -- Begin function mbedtls_pem_init
	.globl	mbedtls_pem_init
	.p2align	1
	.type	mbedtls_pem_init,%function
	.code	16                              @ @mbedtls_pem_init
	.thumb_func
mbedtls_pem_init:
.Lfunc_begin0:
	.file	2 "C:\\Users\\shw26\\OneDrive\\Desktop\\2021\\2021-1\\\354\272\241\354\212\244\355\206\244\353\224\224\354\236\220\354\235\2702\\Nuvoton\\M2351_BSP_v3.00.004\\M2351Series_BSP_CMSIS_V3.00.004\\MyProject\\PulseMonitoring\\Secure" "../../../ThirdParty/mbedTLS/library/pem.c"
	.loc	2 50 0                          @ ../../../ThirdParty/mbedTLS/library/pem.c:50:0
	.fnstart
	.cfi_sections .debug_frame
	.cfi_startproc
@ %bb.0:
	@DEBUG_VALUE: mbedtls_pem_init:ctx <- $r0
	movs	r1, #0
	@DEBUG_VALUE: mbedtls_pem_init:ctx <- $r0
.Ltmp0:
	.loc	2 51 5 prologue_end             @ ../../../ThirdParty/mbedTLS/library/pem.c:51:5
	str	r1, [r0]
	str	r1, [r0, #4]
	str	r1, [r0, #8]
	.loc	2 52 1                          @ ../../../ThirdParty/mbedTLS/library/pem.c:52:1
	bx	lr
.Ltmp1:
.Lfunc_end0:
	.size	mbedtls_pem_init, .Lfunc_end0-mbedtls_pem_init
	.cfi_endproc
	.cantunwind
	.fnend
                                        @ -- End function
	.section	.text.mbedtls_pem_read_buffer,"ax",%progbits
	.hidden	mbedtls_pem_read_buffer         @ -- Begin function mbedtls_pem_read_buffer
	.globl	mbedtls_pem_read_buffer
	.p2align	2
	.type	mbedtls_pem_read_buffer,%function
	.code	16                              @ @mbedtls_pem_read_buffer
	.thumb_func
mbedtls_pem_read_buffer:
.Lfunc_begin1:
	.loc	2 234 0                         @ ../../../ThirdParty/mbedTLS/library/pem.c:234:0
	.fnstart
	.cfi_startproc
@ %bb.0:
	@DEBUG_VALUE: mbedtls_pem_read_buffer:ctx <- $r0
	@DEBUG_VALUE: mbedtls_pem_read_buffer:header <- $r1
	@DEBUG_VALUE: mbedtls_pem_read_buffer:footer <- $r2
	@DEBUG_VALUE: mbedtls_pem_read_buffer:data <- $r3
	@DEBUG_VALUE: mbedtls_pem_read_buffer:data <- $r3
	@DEBUG_VALUE: mbedtls_pem_read_buffer:footer <- $r2
	@DEBUG_VALUE: mbedtls_pem_read_buffer:header <- $r1
	@DEBUG_VALUE: mbedtls_pem_read_buffer:ctx <- $r0
	.save	{r4, r5, r6, r7, lr}
	push	{r4, r5, r6, r7, lr}
	.cfi_def_cfa_offset 20
	.cfi_offset lr, -4
	.cfi_offset r7, -8
	.cfi_offset r6, -12
	.cfi_offset r5, -16
	.cfi_offset r4, -20
	.pad	#44
	sub	sp, #44
	.cfi_def_cfa_offset 64
.Ltmp2:
	@DEBUG_VALUE: mbedtls_pem_read_buffer:enc_alg <- 0
	@DEBUG_VALUE: mbedtls_pem_read_buffer:use_len <- [DW_OP_plus_uconst 72] [$sp+0]
	@DEBUG_VALUE: mbedtls_pem_read_buffer:pwdlen <- [DW_OP_plus_uconst 68] [$sp+0]
	@DEBUG_VALUE: mbedtls_pem_read_buffer:pwd <- [DW_OP_plus_uconst 64] [$sp+0]
	.loc	2 249 9 prologue_end            @ ../../../ThirdParty/mbedTLS/library/pem.c:249:9
	cmp	r0, #0
	beq	.LBB1_19
.Ltmp3:
@ %bb.1:
	@DEBUG_VALUE: mbedtls_pem_read_buffer:data <- $r3
	@DEBUG_VALUE: mbedtls_pem_read_buffer:footer <- $r2
	@DEBUG_VALUE: mbedtls_pem_read_buffer:header <- $r1
	@DEBUG_VALUE: mbedtls_pem_read_buffer:ctx <- $r0
	@DEBUG_VALUE: mbedtls_pem_read_buffer:pwd <- [DW_OP_plus_uconst 64] [$sp+0]
	@DEBUG_VALUE: mbedtls_pem_read_buffer:pwdlen <- [DW_OP_plus_uconst 68] [$sp+0]
	@DEBUG_VALUE: mbedtls_pem_read_buffer:use_len <- [DW_OP_plus_uconst 72] [$sp+0]
	@DEBUG_VALUE: mbedtls_pem_read_buffer:enc_alg <- 0
	.loc	2 0 9 is_stmt 0                 @ ../../../ThirdParty/mbedTLS/library/pem.c:0:9
	mov	r5, r3
.Ltmp4:
	@DEBUG_VALUE: mbedtls_pem_read_buffer:data <- $r5
	mov	r4, r2
.Ltmp5:
	@DEBUG_VALUE: mbedtls_pem_read_buffer:footer <- $r4
	mov	r7, r1
.Ltmp6:
	@DEBUG_VALUE: mbedtls_pem_read_buffer:header <- $r7
	str	r0, [sp, #20]                   @ 4-byte Spill
.Ltmp7:
	@DEBUG_VALUE: mbedtls_pem_read_buffer:ctx <- [DW_OP_plus_uconst 20] [$sp+0]
	.loc	2 252 28 is_stmt 1              @ ../../../ThirdParty/mbedTLS/library/pem.c:252:28
	mov	r0, r3
	bl	strstr
	mov	r6, r0
.Ltmp8:
	@DEBUG_VALUE: mbedtls_pem_read_buffer:s1 <- $r6
	.loc	2 0 28 is_stmt 0                @ ../../../ThirdParty/mbedTLS/library/pem.c:0:28
	ldr	r0, __arm_cp.1_1
	.loc	2 254 9 is_stmt 1               @ ../../../ThirdParty/mbedTLS/library/pem.c:254:9
	cmp	r6, #0
	bne	.LBB1_2
	b	.LBB1_59
.Ltmp9:
.LBB1_2:
	@DEBUG_VALUE: mbedtls_pem_read_buffer:ctx <- [DW_OP_plus_uconst 20] [$sp+0]
	@DEBUG_VALUE: mbedtls_pem_read_buffer:header <- $r7
	@DEBUG_VALUE: mbedtls_pem_read_buffer:s1 <- $r6
	@DEBUG_VALUE: mbedtls_pem_read_buffer:data <- $r5
	@DEBUG_VALUE: mbedtls_pem_read_buffer:footer <- $r4
	@DEBUG_VALUE: mbedtls_pem_read_buffer:pwd <- [DW_OP_plus_uconst 64] [$sp+0]
	@DEBUG_VALUE: mbedtls_pem_read_buffer:pwdlen <- [DW_OP_plus_uconst 68] [$sp+0]
	@DEBUG_VALUE: mbedtls_pem_read_buffer:use_len <- [DW_OP_plus_uconst 72] [$sp+0]
	@DEBUG_VALUE: mbedtls_pem_read_buffer:enc_alg <- 0
	.loc	2 257 28                        @ ../../../ThirdParty/mbedTLS/library/pem.c:257:28
	mov	r0, r5
	mov	r1, r4
	bl	strstr
.Ltmp10:
	@DEBUG_VALUE: mbedtls_pem_read_buffer:s2 <- $r0
	.loc	2 259 20                        @ ../../../ThirdParty/mbedTLS/library/pem.c:259:20
	cmp	r0, r6
	bls	.LBB1_20
.Ltmp11:
@ %bb.3:
	@DEBUG_VALUE: mbedtls_pem_read_buffer:ctx <- [DW_OP_plus_uconst 20] [$sp+0]
	@DEBUG_VALUE: mbedtls_pem_read_buffer:header <- $r7
	@DEBUG_VALUE: mbedtls_pem_read_buffer:s1 <- $r6
	@DEBUG_VALUE: mbedtls_pem_read_buffer:data <- $r5
	@DEBUG_VALUE: mbedtls_pem_read_buffer:footer <- $r4
	@DEBUG_VALUE: mbedtls_pem_read_buffer:s2 <- $r0
	@DEBUG_VALUE: mbedtls_pem_read_buffer:pwd <- [DW_OP_plus_uconst 64] [$sp+0]
	@DEBUG_VALUE: mbedtls_pem_read_buffer:pwdlen <- [DW_OP_plus_uconst 68] [$sp+0]
	@DEBUG_VALUE: mbedtls_pem_read_buffer:use_len <- [DW_OP_plus_uconst 72] [$sp+0]
	@DEBUG_VALUE: mbedtls_pem_read_buffer:enc_alg <- 0
	.loc	2 0 20 is_stmt 0                @ ../../../ThirdParty/mbedTLS/library/pem.c:0:20
	str	r0, [sp, #16]                   @ 4-byte Spill
.Ltmp12:
	@DEBUG_VALUE: mbedtls_pem_read_buffer:s2 <- [DW_OP_plus_uconst 16] [$sp+0]
	.loc	2 262 11 is_stmt 1              @ ../../../ThirdParty/mbedTLS/library/pem.c:262:11
	mov	r0, r7
	bl	strlen
.Ltmp13:
	.loc	2 263 9                         @ ../../../ThirdParty/mbedTLS/library/pem.c:263:9
	ldrb	r1, [r6, r0]
.Ltmp14:
	.loc	2 262 8                         @ ../../../ThirdParty/mbedTLS/library/pem.c:262:8
	adds	r7, r6, r0
.Ltmp15:
	@DEBUG_VALUE: mbedtls_pem_read_buffer:header <- [DW_OP_LLVM_entry_value 1] $r1
	@DEBUG_VALUE: mbedtls_pem_read_buffer:s1 <- $r7
	.loc	2 263 9                         @ ../../../ThirdParty/mbedTLS/library/pem.c:263:9
	cmp	r1, #32
	bne	.LBB1_5
.Ltmp16:
@ %bb.4:
	@DEBUG_VALUE: mbedtls_pem_read_buffer:s2 <- [DW_OP_plus_uconst 16] [$sp+0]
	@DEBUG_VALUE: mbedtls_pem_read_buffer:ctx <- [DW_OP_plus_uconst 20] [$sp+0]
	@DEBUG_VALUE: mbedtls_pem_read_buffer:s1 <- $r7
	@DEBUG_VALUE: mbedtls_pem_read_buffer:data <- $r5
	@DEBUG_VALUE: mbedtls_pem_read_buffer:footer <- $r4
	@DEBUG_VALUE: mbedtls_pem_read_buffer:pwd <- [DW_OP_plus_uconst 64] [$sp+0]
	@DEBUG_VALUE: mbedtls_pem_read_buffer:pwdlen <- [DW_OP_plus_uconst 68] [$sp+0]
	@DEBUG_VALUE: mbedtls_pem_read_buffer:use_len <- [DW_OP_plus_uconst 72] [$sp+0]
	@DEBUG_VALUE: mbedtls_pem_read_buffer:header <- [DW_OP_LLVM_entry_value 1] $r1
	@DEBUG_VALUE: mbedtls_pem_read_buffer:enc_alg <- 0
	.loc	2 0 9 is_stmt 0                 @ ../../../ThirdParty/mbedTLS/library/pem.c:0:9
	adds	r7, r7, #1
.Ltmp17:
.LBB1_5:
	@DEBUG_VALUE: mbedtls_pem_read_buffer:s2 <- [DW_OP_plus_uconst 16] [$sp+0]
	@DEBUG_VALUE: mbedtls_pem_read_buffer:ctx <- [DW_OP_plus_uconst 20] [$sp+0]
	@DEBUG_VALUE: mbedtls_pem_read_buffer:data <- $r5
	@DEBUG_VALUE: mbedtls_pem_read_buffer:footer <- $r4
	@DEBUG_VALUE: mbedtls_pem_read_buffer:pwd <- [DW_OP_plus_uconst 64] [$sp+0]
	@DEBUG_VALUE: mbedtls_pem_read_buffer:pwdlen <- [DW_OP_plus_uconst 68] [$sp+0]
	@DEBUG_VALUE: mbedtls_pem_read_buffer:use_len <- [DW_OP_plus_uconst 72] [$sp+0]
	@DEBUG_VALUE: mbedtls_pem_read_buffer:header <- [DW_OP_LLVM_entry_value 1] $r1
	@DEBUG_VALUE: mbedtls_pem_read_buffer:enc_alg <- 0
	@DEBUG_VALUE: mbedtls_pem_read_buffer:s1 <- $r7
	.loc	2 264 9 is_stmt 1               @ ../../../ThirdParty/mbedTLS/library/pem.c:264:9
	ldrb	r0, [r7]
.Ltmp18:
	.loc	2 264 9 is_stmt 0               @ ../../../ThirdParty/mbedTLS/library/pem.c:264:9
	cmp	r0, #13
	bne	.LBB1_7
.Ltmp19:
@ %bb.6:
	@DEBUG_VALUE: mbedtls_pem_read_buffer:s2 <- [DW_OP_plus_uconst 16] [$sp+0]
	@DEBUG_VALUE: mbedtls_pem_read_buffer:ctx <- [DW_OP_plus_uconst 20] [$sp+0]
	@DEBUG_VALUE: mbedtls_pem_read_buffer:s1 <- $r7
	@DEBUG_VALUE: mbedtls_pem_read_buffer:data <- $r5
	@DEBUG_VALUE: mbedtls_pem_read_buffer:footer <- $r4
	@DEBUG_VALUE: mbedtls_pem_read_buffer:pwd <- [DW_OP_plus_uconst 64] [$sp+0]
	@DEBUG_VALUE: mbedtls_pem_read_buffer:pwdlen <- [DW_OP_plus_uconst 68] [$sp+0]
	@DEBUG_VALUE: mbedtls_pem_read_buffer:use_len <- [DW_OP_plus_uconst 72] [$sp+0]
	@DEBUG_VALUE: mbedtls_pem_read_buffer:header <- [DW_OP_LLVM_entry_value 1] $r1
	@DEBUG_VALUE: mbedtls_pem_read_buffer:enc_alg <- 0
	.loc	2 0 9                           @ ../../../ThirdParty/mbedTLS/library/pem.c:0:9
	adds	r7, r7, #1
.Ltmp20:
.LBB1_7:
	@DEBUG_VALUE: mbedtls_pem_read_buffer:s2 <- [DW_OP_plus_uconst 16] [$sp+0]
	@DEBUG_VALUE: mbedtls_pem_read_buffer:ctx <- [DW_OP_plus_uconst 20] [$sp+0]
	@DEBUG_VALUE: mbedtls_pem_read_buffer:data <- $r5
	@DEBUG_VALUE: mbedtls_pem_read_buffer:footer <- $r4
	@DEBUG_VALUE: mbedtls_pem_read_buffer:pwd <- [DW_OP_plus_uconst 64] [$sp+0]
	@DEBUG_VALUE: mbedtls_pem_read_buffer:pwdlen <- [DW_OP_plus_uconst 68] [$sp+0]
	@DEBUG_VALUE: mbedtls_pem_read_buffer:use_len <- [DW_OP_plus_uconst 72] [$sp+0]
	@DEBUG_VALUE: mbedtls_pem_read_buffer:header <- [DW_OP_LLVM_entry_value 1] $r1
	@DEBUG_VALUE: mbedtls_pem_read_buffer:enc_alg <- 0
	@DEBUG_VALUE: mbedtls_pem_read_buffer:s1 <- $r7
	.loc	2 265 9 is_stmt 1               @ ../../../ThirdParty/mbedTLS/library/pem.c:265:9
	ldrb	r0, [r7]
.Ltmp21:
	.loc	2 265 9 is_stmt 0               @ ../../../ThirdParty/mbedTLS/library/pem.c:265:9
	cmp	r0, #10
	ldr	r0, __arm_cp.1_1
	beq	.LBB1_8
	b	.LBB1_59
.Ltmp22:
.LBB1_8:
	@DEBUG_VALUE: mbedtls_pem_read_buffer:s2 <- [DW_OP_plus_uconst 16] [$sp+0]
	@DEBUG_VALUE: mbedtls_pem_read_buffer:ctx <- [DW_OP_plus_uconst 20] [$sp+0]
	@DEBUG_VALUE: mbedtls_pem_read_buffer:s1 <- $r7
	@DEBUG_VALUE: mbedtls_pem_read_buffer:data <- $r5
	@DEBUG_VALUE: mbedtls_pem_read_buffer:footer <- $r4
	@DEBUG_VALUE: mbedtls_pem_read_buffer:pwd <- [DW_OP_plus_uconst 64] [$sp+0]
	@DEBUG_VALUE: mbedtls_pem_read_buffer:pwdlen <- [DW_OP_plus_uconst 68] [$sp+0]
	@DEBUG_VALUE: mbedtls_pem_read_buffer:use_len <- [DW_OP_plus_uconst 72] [$sp+0]
	@DEBUG_VALUE: mbedtls_pem_read_buffer:header <- [DW_OP_LLVM_entry_value 1] $r1
	@DEBUG_VALUE: mbedtls_pem_read_buffer:enc_alg <- 0
	@DEBUG_VALUE: mbedtls_pem_read_buffer:end <- [DW_OP_plus_uconst 16] [$sp+0]
	.loc	2 269 12 is_stmt 1              @ ../../../ThirdParty/mbedTLS/library/pem.c:269:12
	mov	r0, r4
	bl	strlen
	ldr	r3, [sp, #16]                   @ 4-byte Reload
.Ltmp23:
	@DEBUG_VALUE: mbedtls_pem_read_buffer:s2 <- $r3
	.loc	2 270 9                         @ ../../../ThirdParty/mbedTLS/library/pem.c:270:9
	ldrb	r1, [r3, r0]
.Ltmp24:
	.loc	2 269 9                         @ ../../../ThirdParty/mbedTLS/library/pem.c:269:9
	adds	r0, r3, r0
.Ltmp25:
	@DEBUG_VALUE: mbedtls_pem_read_buffer:end <- $r0
	.loc	2 270 9                         @ ../../../ThirdParty/mbedTLS/library/pem.c:270:9
	cmp	r1, #32
	bne	.LBB1_10
.Ltmp26:
@ %bb.9:
	@DEBUG_VALUE: mbedtls_pem_read_buffer:ctx <- [DW_OP_plus_uconst 20] [$sp+0]
	@DEBUG_VALUE: mbedtls_pem_read_buffer:s1 <- $r7
	@DEBUG_VALUE: mbedtls_pem_read_buffer:data <- $r5
	@DEBUG_VALUE: mbedtls_pem_read_buffer:footer <- $r4
	@DEBUG_VALUE: mbedtls_pem_read_buffer:s2 <- $r3
	@DEBUG_VALUE: mbedtls_pem_read_buffer:end <- $r0
	@DEBUG_VALUE: mbedtls_pem_read_buffer:pwd <- [DW_OP_plus_uconst 64] [$sp+0]
	@DEBUG_VALUE: mbedtls_pem_read_buffer:pwdlen <- [DW_OP_plus_uconst 68] [$sp+0]
	@DEBUG_VALUE: mbedtls_pem_read_buffer:use_len <- [DW_OP_plus_uconst 72] [$sp+0]
	@DEBUG_VALUE: mbedtls_pem_read_buffer:header <- [DW_OP_LLVM_entry_value 1] $r1
	@DEBUG_VALUE: mbedtls_pem_read_buffer:enc_alg <- 0
	.loc	2 0 9 is_stmt 0                 @ ../../../ThirdParty/mbedTLS/library/pem.c:0:9
	adds	r0, r0, #1
.Ltmp27:
.LBB1_10:
	@DEBUG_VALUE: mbedtls_pem_read_buffer:ctx <- [DW_OP_plus_uconst 20] [$sp+0]
	@DEBUG_VALUE: mbedtls_pem_read_buffer:s1 <- $r7
	@DEBUG_VALUE: mbedtls_pem_read_buffer:data <- $r5
	@DEBUG_VALUE: mbedtls_pem_read_buffer:footer <- $r4
	@DEBUG_VALUE: mbedtls_pem_read_buffer:s2 <- $r3
	@DEBUG_VALUE: mbedtls_pem_read_buffer:pwd <- [DW_OP_plus_uconst 64] [$sp+0]
	@DEBUG_VALUE: mbedtls_pem_read_buffer:pwdlen <- [DW_OP_plus_uconst 68] [$sp+0]
	@DEBUG_VALUE: mbedtls_pem_read_buffer:use_len <- [DW_OP_plus_uconst 72] [$sp+0]
	@DEBUG_VALUE: mbedtls_pem_read_buffer:header <- [DW_OP_LLVM_entry_value 1] $r1
	@DEBUG_VALUE: mbedtls_pem_read_buffer:enc_alg <- 0
	@DEBUG_VALUE: mbedtls_pem_read_buffer:end <- $r0
	.loc	2 271 9 is_stmt 1               @ ../../../ThirdParty/mbedTLS/library/pem.c:271:9
	ldrb	r1, [r0]
.Ltmp28:
	.loc	2 271 9 is_stmt 0               @ ../../../ThirdParty/mbedTLS/library/pem.c:271:9
	cmp	r1, #13
	bne	.LBB1_12
.Ltmp29:
@ %bb.11:
	@DEBUG_VALUE: mbedtls_pem_read_buffer:ctx <- [DW_OP_plus_uconst 20] [$sp+0]
	@DEBUG_VALUE: mbedtls_pem_read_buffer:s1 <- $r7
	@DEBUG_VALUE: mbedtls_pem_read_buffer:data <- $r5
	@DEBUG_VALUE: mbedtls_pem_read_buffer:footer <- $r4
	@DEBUG_VALUE: mbedtls_pem_read_buffer:s2 <- $r3
	@DEBUG_VALUE: mbedtls_pem_read_buffer:end <- $r0
	@DEBUG_VALUE: mbedtls_pem_read_buffer:pwd <- [DW_OP_plus_uconst 64] [$sp+0]
	@DEBUG_VALUE: mbedtls_pem_read_buffer:pwdlen <- [DW_OP_plus_uconst 68] [$sp+0]
	@DEBUG_VALUE: mbedtls_pem_read_buffer:use_len <- [DW_OP_plus_uconst 72] [$sp+0]
	@DEBUG_VALUE: mbedtls_pem_read_buffer:header <- [DW_OP_LLVM_entry_value 1] $r1
	@DEBUG_VALUE: mbedtls_pem_read_buffer:enc_alg <- 0
	.loc	2 0 9                           @ ../../../ThirdParty/mbedTLS/library/pem.c:0:9
	adds	r0, r0, #1
.Ltmp30:
.LBB1_12:
	@DEBUG_VALUE: mbedtls_pem_read_buffer:ctx <- [DW_OP_plus_uconst 20] [$sp+0]
	@DEBUG_VALUE: mbedtls_pem_read_buffer:s1 <- $r7
	@DEBUG_VALUE: mbedtls_pem_read_buffer:data <- $r5
	@DEBUG_VALUE: mbedtls_pem_read_buffer:footer <- $r4
	@DEBUG_VALUE: mbedtls_pem_read_buffer:s2 <- $r3
	@DEBUG_VALUE: mbedtls_pem_read_buffer:pwd <- [DW_OP_plus_uconst 64] [$sp+0]
	@DEBUG_VALUE: mbedtls_pem_read_buffer:pwdlen <- [DW_OP_plus_uconst 68] [$sp+0]
	@DEBUG_VALUE: mbedtls_pem_read_buffer:use_len <- [DW_OP_plus_uconst 72] [$sp+0]
	@DEBUG_VALUE: mbedtls_pem_read_buffer:header <- [DW_OP_LLVM_entry_value 1] $r1
	@DEBUG_VALUE: mbedtls_pem_read_buffer:enc_alg <- 0
	ldr	r1, [sp, #72]
.Ltmp31:
	@DEBUG_VALUE: mbedtls_pem_read_buffer:end <- $r0
	.loc	2 272 9 is_stmt 1               @ ../../../ThirdParty/mbedTLS/library/pem.c:272:9
	ldrb	r2, [r0]
.Ltmp32:
	.loc	2 272 9 is_stmt 0               @ ../../../ThirdParty/mbedTLS/library/pem.c:272:9
	cmp	r2, #10
	bne	.LBB1_14
.Ltmp33:
@ %bb.13:
	@DEBUG_VALUE: mbedtls_pem_read_buffer:ctx <- [DW_OP_plus_uconst 20] [$sp+0]
	@DEBUG_VALUE: mbedtls_pem_read_buffer:s1 <- $r7
	@DEBUG_VALUE: mbedtls_pem_read_buffer:data <- $r5
	@DEBUG_VALUE: mbedtls_pem_read_buffer:footer <- $r4
	@DEBUG_VALUE: mbedtls_pem_read_buffer:s2 <- $r3
	@DEBUG_VALUE: mbedtls_pem_read_buffer:end <- $r0
	@DEBUG_VALUE: mbedtls_pem_read_buffer:pwd <- [DW_OP_plus_uconst 64] [$sp+0]
	@DEBUG_VALUE: mbedtls_pem_read_buffer:pwdlen <- [DW_OP_plus_uconst 68] [$sp+0]
	@DEBUG_VALUE: mbedtls_pem_read_buffer:use_len <- [DW_OP_plus_uconst 72] [$sp+0]
	@DEBUG_VALUE: mbedtls_pem_read_buffer:header <- [DW_OP_LLVM_entry_value 1] $r1
	@DEBUG_VALUE: mbedtls_pem_read_buffer:enc_alg <- 0
	.loc	2 0 9                           @ ../../../ThirdParty/mbedTLS/library/pem.c:0:9
	adds	r0, r0, #1
.Ltmp34:
.LBB1_14:
	@DEBUG_VALUE: mbedtls_pem_read_buffer:ctx <- [DW_OP_plus_uconst 20] [$sp+0]
	@DEBUG_VALUE: mbedtls_pem_read_buffer:s1 <- $r7
	@DEBUG_VALUE: mbedtls_pem_read_buffer:data <- $r5
	@DEBUG_VALUE: mbedtls_pem_read_buffer:footer <- $r4
	@DEBUG_VALUE: mbedtls_pem_read_buffer:s2 <- $r3
	@DEBUG_VALUE: mbedtls_pem_read_buffer:pwd <- [DW_OP_plus_uconst 64] [$sp+0]
	@DEBUG_VALUE: mbedtls_pem_read_buffer:pwdlen <- [DW_OP_plus_uconst 68] [$sp+0]
	@DEBUG_VALUE: mbedtls_pem_read_buffer:use_len <- [DW_OP_plus_uconst 72] [$sp+0]
	@DEBUG_VALUE: mbedtls_pem_read_buffer:header <- [DW_OP_LLVM_entry_value 1] $r1
	@DEBUG_VALUE: mbedtls_pem_read_buffer:enc_alg <- 0
	@DEBUG_VALUE: mbedtls_pem_read_buffer:end <- $r0
	.loc	2 273 20 is_stmt 1              @ ../../../ThirdParty/mbedTLS/library/pem.c:273:20
	subs	r0, r0, r5
.Ltmp35:
	.loc	2 273 14 is_stmt 0              @ ../../../ThirdParty/mbedTLS/library/pem.c:273:14
	str	r0, [r1]
.Ltmp36:
	.loc	2 265 25 is_stmt 1              @ ../../../ThirdParty/mbedTLS/library/pem.c:265:25
	adds	r5, r7, #1
.Ltmp37:
	@DEBUG_VALUE: mbedtls_pem_read_buffer:data <- [DW_OP_LLVM_entry_value 1] $r3
	@DEBUG_VALUE: mbedtls_pem_read_buffer:enc <- 0
	@DEBUG_VALUE: mbedtls_pem_read_buffer:s1 <- $r5
	.loc	2 277 12                        @ ../../../ThirdParty/mbedTLS/library/pem.c:277:12
	subs	r0, r3, r5
	movs	r1, #0
	str	r1, [sp, #12]                   @ 4-byte Spill
	movs	r6, #1
	ldr	r4, __arm_cp.1_2
.Ltmp38:
	@DEBUG_VALUE: mbedtls_pem_read_buffer:footer <- [DW_OP_LLVM_entry_value 1] $r2
	.loc	2 277 23 is_stmt 0              @ ../../../ThirdParty/mbedTLS/library/pem.c:277:23
	cmp	r0, #22
	blt	.LBB1_16
.Ltmp39:
@ %bb.15:
	@DEBUG_VALUE: mbedtls_pem_read_buffer:ctx <- [DW_OP_plus_uconst 20] [$sp+0]
	@DEBUG_VALUE: mbedtls_pem_read_buffer:s1 <- $r5
	@DEBUG_VALUE: mbedtls_pem_read_buffer:s2 <- $r3
	@DEBUG_VALUE: mbedtls_pem_read_buffer:pwd <- [DW_OP_plus_uconst 64] [$sp+0]
	@DEBUG_VALUE: mbedtls_pem_read_buffer:pwdlen <- [DW_OP_plus_uconst 68] [$sp+0]
	@DEBUG_VALUE: mbedtls_pem_read_buffer:use_len <- [DW_OP_plus_uconst 72] [$sp+0]
	@DEBUG_VALUE: mbedtls_pem_read_buffer:footer <- [DW_OP_LLVM_entry_value 1] $r2
	@DEBUG_VALUE: mbedtls_pem_read_buffer:enc <- 0
	@DEBUG_VALUE: mbedtls_pem_read_buffer:data <- [DW_OP_LLVM_entry_value 1] $r3
	@DEBUG_VALUE: mbedtls_pem_read_buffer:header <- [DW_OP_LLVM_entry_value 1] $r1
	@DEBUG_VALUE: mbedtls_pem_read_buffer:enc_alg <- 0
	.loc	2 277 26                        @ ../../../ThirdParty/mbedTLS/library/pem.c:277:26
	adr	r1, .LCPI1_3
	movs	r2, #22
	mov	r0, r5
	bl	memcmp
.Ltmp40:
	.loc	2 0 26                          @ ../../../ThirdParty/mbedTLS/library/pem.c:0:26
	ldr	r3, [sp, #16]                   @ 4-byte Reload
.Ltmp41:
	.loc	2 277 9                         @ ../../../ThirdParty/mbedTLS/library/pem.c:277:9
	cbz	r0, .LBB1_24
.Ltmp42:
.LBB1_16:
	@DEBUG_VALUE: mbedtls_pem_read_buffer:ctx <- [DW_OP_plus_uconst 20] [$sp+0]
	@DEBUG_VALUE: mbedtls_pem_read_buffer:s1 <- $r5
	@DEBUG_VALUE: mbedtls_pem_read_buffer:pwd <- [DW_OP_plus_uconst 64] [$sp+0]
	@DEBUG_VALUE: mbedtls_pem_read_buffer:pwdlen <- [DW_OP_plus_uconst 68] [$sp+0]
	@DEBUG_VALUE: mbedtls_pem_read_buffer:use_len <- [DW_OP_plus_uconst 72] [$sp+0]
	@DEBUG_VALUE: mbedtls_pem_read_buffer:footer <- [DW_OP_LLVM_entry_value 1] $r2
	@DEBUG_VALUE: mbedtls_pem_read_buffer:enc <- 0
	@DEBUG_VALUE: mbedtls_pem_read_buffer:data <- [DW_OP_LLVM_entry_value 1] $r3
	@DEBUG_VALUE: mbedtls_pem_read_buffer:header <- [DW_OP_LLVM_entry_value 1] $r1
	@DEBUG_VALUE: mbedtls_pem_read_buffer:enc_alg <- 0
	@DEBUG_VALUE: mbedtls_pem_read_buffer:enc_alg <- [DW_OP_plus_uconst 12] [$sp+0]
	@DEBUG_VALUE: mbedtls_pem_read_buffer:s1 <- $r5
	@DEBUG_VALUE: mbedtls_pem_read_buffer:enc <- undef
	.loc	2 346 9 is_stmt 1               @ ../../../ThirdParty/mbedTLS/library/pem.c:346:9
	cmp	r5, r3
	blo	.LBB1_17
	b	.LBB1_75
.Ltmp43:
.LBB1_17:
	@DEBUG_VALUE: mbedtls_pem_read_buffer:ctx <- [DW_OP_plus_uconst 20] [$sp+0]
	@DEBUG_VALUE: mbedtls_pem_read_buffer:s1 <- $r5
	@DEBUG_VALUE: mbedtls_pem_read_buffer:enc_alg <- [DW_OP_plus_uconst 12] [$sp+0]
	@DEBUG_VALUE: mbedtls_pem_read_buffer:pwd <- [DW_OP_plus_uconst 64] [$sp+0]
	@DEBUG_VALUE: mbedtls_pem_read_buffer:pwdlen <- [DW_OP_plus_uconst 68] [$sp+0]
	@DEBUG_VALUE: mbedtls_pem_read_buffer:use_len <- [DW_OP_plus_uconst 72] [$sp+0]
	@DEBUG_VALUE: mbedtls_pem_read_buffer:footer <- [DW_OP_LLVM_entry_value 1] $r2
	@DEBUG_VALUE: mbedtls_pem_read_buffer:data <- [DW_OP_LLVM_entry_value 1] $r3
	@DEBUG_VALUE: mbedtls_pem_read_buffer:header <- [DW_OP_LLVM_entry_value 1] $r1
	.loc	2 349 56                        @ ../../../ThirdParty/mbedTLS/library/pem.c:349:56
	subs	r7, r3, r5
.Ltmp44:
	@DEBUG_VALUE: mbedtls_pem_read_buffer:len <- [DW_OP_plus_uconst 40, DW_OP_deref] $sp
	.loc	2 349 11 is_stmt 0              @ ../../../ThirdParty/mbedTLS/library/pem.c:349:11
	str	r7, [sp]
	movs	r0, #0
	add	r2, sp, #40
	str	r0, [sp, #16]                   @ 4-byte Spill
	mov	r1, r0
	mov	r3, r5
	bl	mbedtls_base64_decode
.Ltmp45:
	@DEBUG_VALUE: mbedtls_pem_read_buffer:ret <- $r0
	.loc	2 351 9 is_stmt 1               @ ../../../ThirdParty/mbedTLS/library/pem.c:351:9
	adds	r0, #44
.Ltmp46:
	bne	.LBB1_21
.Ltmp47:
@ %bb.18:
	@DEBUG_VALUE: mbedtls_pem_read_buffer:ctx <- [DW_OP_plus_uconst 20] [$sp+0]
	@DEBUG_VALUE: mbedtls_pem_read_buffer:s1 <- $r5
	@DEBUG_VALUE: mbedtls_pem_read_buffer:len <- [DW_OP_plus_uconst 40, DW_OP_deref] $sp
	@DEBUG_VALUE: mbedtls_pem_read_buffer:enc_alg <- [DW_OP_plus_uconst 12] [$sp+0]
	@DEBUG_VALUE: mbedtls_pem_read_buffer:pwd <- [DW_OP_plus_uconst 64] [$sp+0]
	@DEBUG_VALUE: mbedtls_pem_read_buffer:pwdlen <- [DW_OP_plus_uconst 68] [$sp+0]
	@DEBUG_VALUE: mbedtls_pem_read_buffer:use_len <- [DW_OP_plus_uconst 72] [$sp+0]
	@DEBUG_VALUE: mbedtls_pem_read_buffer:footer <- [DW_OP_LLVM_entry_value 1] $r2
	@DEBUG_VALUE: mbedtls_pem_read_buffer:data <- [DW_OP_LLVM_entry_value 1] $r3
	@DEBUG_VALUE: mbedtls_pem_read_buffer:header <- [DW_OP_LLVM_entry_value 1] $r1
	.loc	2 0 9 is_stmt 0                 @ ../../../ThirdParty/mbedTLS/library/pem.c:0:9
	subs	r4, #44
	b	.LBB1_75
.Ltmp48:
.LBB1_19:
	@DEBUG_VALUE: mbedtls_pem_read_buffer:data <- $r3
	@DEBUG_VALUE: mbedtls_pem_read_buffer:footer <- $r2
	@DEBUG_VALUE: mbedtls_pem_read_buffer:header <- $r1
	@DEBUG_VALUE: mbedtls_pem_read_buffer:ctx <- $r0
	@DEBUG_VALUE: mbedtls_pem_read_buffer:pwd <- [DW_OP_plus_uconst 64] [$sp+0]
	@DEBUG_VALUE: mbedtls_pem_read_buffer:pwdlen <- [DW_OP_plus_uconst 68] [$sp+0]
	@DEBUG_VALUE: mbedtls_pem_read_buffer:use_len <- [DW_OP_plus_uconst 72] [$sp+0]
	@DEBUG_VALUE: mbedtls_pem_read_buffer:enc_alg <- 0
	ldr	r0, __arm_cp.1_0
.Ltmp49:
	@DEBUG_VALUE: mbedtls_pem_read_buffer:ctx <- [DW_OP_LLVM_entry_value 1] $r0
	.loc	2 423 1 is_stmt 1               @ ../../../ThirdParty/mbedTLS/library/pem.c:423:1
	add	sp, #44
.Ltmp50:
	pop	{r4, r5, r6, r7, pc}
.Ltmp51:
.LBB1_20:
	@DEBUG_VALUE: mbedtls_pem_read_buffer:ctx <- [DW_OP_plus_uconst 20] [$sp+0]
	@DEBUG_VALUE: mbedtls_pem_read_buffer:header <- $r7
	@DEBUG_VALUE: mbedtls_pem_read_buffer:s1 <- $r6
	@DEBUG_VALUE: mbedtls_pem_read_buffer:data <- $r5
	@DEBUG_VALUE: mbedtls_pem_read_buffer:footer <- $r4
	@DEBUG_VALUE: mbedtls_pem_read_buffer:s2 <- $r0
	@DEBUG_VALUE: mbedtls_pem_read_buffer:pwd <- [DW_OP_plus_uconst 64] [$sp+0]
	@DEBUG_VALUE: mbedtls_pem_read_buffer:pwdlen <- [DW_OP_plus_uconst 68] [$sp+0]
	@DEBUG_VALUE: mbedtls_pem_read_buffer:use_len <- [DW_OP_plus_uconst 72] [$sp+0]
	@DEBUG_VALUE: mbedtls_pem_read_buffer:enc_alg <- 0
	.loc	2 0 1 is_stmt 0                 @ ../../../ThirdParty/mbedTLS/library/pem.c:0:1
	ldr	r0, __arm_cp.1_1
.Ltmp52:
	.loc	2 423 1                         @ ../../../ThirdParty/mbedTLS/library/pem.c:423:1
	add	sp, #44
.Ltmp53:
	pop	{r4, r5, r6, r7, pc}
.Ltmp54:
.LBB1_21:
	@DEBUG_VALUE: mbedtls_pem_read_buffer:ctx <- [DW_OP_plus_uconst 20] [$sp+0]
	@DEBUG_VALUE: mbedtls_pem_read_buffer:s1 <- $r5
	@DEBUG_VALUE: mbedtls_pem_read_buffer:len <- [DW_OP_plus_uconst 40, DW_OP_deref] $sp
	@DEBUG_VALUE: mbedtls_pem_read_buffer:enc_alg <- [DW_OP_plus_uconst 12] [$sp+0]
	@DEBUG_VALUE: mbedtls_pem_read_buffer:pwd <- [DW_OP_plus_uconst 64] [$sp+0]
	@DEBUG_VALUE: mbedtls_pem_read_buffer:pwdlen <- [DW_OP_plus_uconst 68] [$sp+0]
	@DEBUG_VALUE: mbedtls_pem_read_buffer:use_len <- [DW_OP_plus_uconst 72] [$sp+0]
	@DEBUG_VALUE: mbedtls_pem_read_buffer:footer <- [DW_OP_LLVM_entry_value 1] $r2
	@DEBUG_VALUE: mbedtls_pem_read_buffer:data <- [DW_OP_LLVM_entry_value 1] $r3
	@DEBUG_VALUE: mbedtls_pem_read_buffer:header <- [DW_OP_LLVM_entry_value 1] $r1
	.loc	2 354 36 is_stmt 1              @ ../../../ThirdParty/mbedTLS/library/pem.c:354:36
	ldr	r4, [sp, #40]
.Ltmp55:
	@DEBUG_VALUE: mbedtls_pem_read_buffer:len <- $r4
	.loc	2 0 36 is_stmt 0                @ ../../../ThirdParty/mbedTLS/library/pem.c:0:36
	movs	r0, #1
	.loc	2 354 17                        @ ../../../ThirdParty/mbedTLS/library/pem.c:354:17
	mov	r1, r4
	bl	calloc
.Ltmp56:
	@DEBUG_VALUE: mbedtls_pem_read_buffer:buf <- $r0
	.loc	2 354 9                         @ ../../../ThirdParty/mbedTLS/library/pem.c:354:9
	cmp	r0, #0
	beq	.LBB1_38
.Ltmp57:
@ %bb.22:
	@DEBUG_VALUE: mbedtls_pem_read_buffer:ctx <- [DW_OP_plus_uconst 20] [$sp+0]
	@DEBUG_VALUE: mbedtls_pem_read_buffer:s1 <- $r5
	@DEBUG_VALUE: mbedtls_pem_read_buffer:len <- $r4
	@DEBUG_VALUE: mbedtls_pem_read_buffer:buf <- $r0
	@DEBUG_VALUE: mbedtls_pem_read_buffer:enc_alg <- [DW_OP_plus_uconst 12] [$sp+0]
	@DEBUG_VALUE: mbedtls_pem_read_buffer:pwd <- [DW_OP_plus_uconst 64] [$sp+0]
	@DEBUG_VALUE: mbedtls_pem_read_buffer:pwdlen <- [DW_OP_plus_uconst 68] [$sp+0]
	@DEBUG_VALUE: mbedtls_pem_read_buffer:use_len <- [DW_OP_plus_uconst 72] [$sp+0]
	@DEBUG_VALUE: mbedtls_pem_read_buffer:footer <- [DW_OP_LLVM_entry_value 1] $r2
	@DEBUG_VALUE: mbedtls_pem_read_buffer:data <- [DW_OP_LLVM_entry_value 1] $r3
	@DEBUG_VALUE: mbedtls_pem_read_buffer:header <- [DW_OP_LLVM_entry_value 1] $r1
	@DEBUG_VALUE: mbedtls_pem_read_buffer:len <- [DW_OP_plus_uconst 40, DW_OP_deref] $sp
	.loc	2 357 17 is_stmt 1              @ ../../../ThirdParty/mbedTLS/library/pem.c:357:17
	str	r7, [sp]
	add	r2, sp, #40
	mov	r7, r0
	mov	r1, r4
	mov	r3, r5
	bl	mbedtls_base64_decode
.Ltmp58:
	@DEBUG_VALUE: mbedtls_pem_read_buffer:ret <- $r0
	.loc	2 357 9 is_stmt 0               @ ../../../ThirdParty/mbedTLS/library/pem.c:357:9
	cmp	r0, #0
	beq	.LBB1_39
.Ltmp59:
@ %bb.23:
	@DEBUG_VALUE: mbedtls_pem_read_buffer:ctx <- [DW_OP_plus_uconst 20] [$sp+0]
	@DEBUG_VALUE: mbedtls_pem_read_buffer:s1 <- $r5
	@DEBUG_VALUE: mbedtls_pem_read_buffer:ret <- $r0
	@DEBUG_VALUE: mbedtls_pem_read_buffer:len <- [DW_OP_plus_uconst 40, DW_OP_deref] $sp
	@DEBUG_VALUE: mbedtls_pem_read_buffer:enc_alg <- [DW_OP_plus_uconst 12] [$sp+0]
	@DEBUG_VALUE: mbedtls_pem_read_buffer:pwd <- [DW_OP_plus_uconst 64] [$sp+0]
	@DEBUG_VALUE: mbedtls_pem_read_buffer:pwdlen <- [DW_OP_plus_uconst 68] [$sp+0]
	@DEBUG_VALUE: mbedtls_pem_read_buffer:use_len <- [DW_OP_plus_uconst 72] [$sp+0]
	@DEBUG_VALUE: mbedtls_pem_read_buffer:footer <- [DW_OP_LLVM_entry_value 1] $r2
	@DEBUG_VALUE: mbedtls_pem_read_buffer:data <- [DW_OP_LLVM_entry_value 1] $r3
	@DEBUG_VALUE: mbedtls_pem_read_buffer:header <- [DW_OP_LLVM_entry_value 1] $r1
	.loc	2 0 0                           @ ../../../ThirdParty/mbedTLS/library/pem.c:0:0
	mov	r4, r0
.Ltmp60:
	@DEBUG_VALUE: mbedtls_pem_read_buffer:ret <- $r4
	.loc	2 359 40 is_stmt 1              @ ../../../ThirdParty/mbedTLS/library/pem.c:359:40
	ldr	r1, [sp, #40]
.Ltmp61:
	@DEBUG_VALUE: mbedtls_pem_read_buffer:len <- $r1
	.loc	2 359 9 is_stmt 0               @ ../../../ThirdParty/mbedTLS/library/pem.c:359:9
	mov	r0, r7
	bl	mbedtls_platform_zeroize
.Ltmp62:
	.loc	2 360 9 is_stmt 1               @ ../../../ThirdParty/mbedTLS/library/pem.c:360:9
	mov	r0, r7
	bl	free
	.loc	2 361 46                        @ ../../../ThirdParty/mbedTLS/library/pem.c:361:46
	ldr	r0, __arm_cp.1_2
	adds	r0, r4, r0
.Ltmp63:
	.loc	2 423 1                         @ ../../../ThirdParty/mbedTLS/library/pem.c:423:1
	add	sp, #44
.Ltmp64:
	pop	{r4, r5, r6, r7, pc}
.Ltmp65:
.LBB1_24:
	@DEBUG_VALUE: mbedtls_pem_read_buffer:ctx <- [DW_OP_plus_uconst 20] [$sp+0]
	@DEBUG_VALUE: mbedtls_pem_read_buffer:s1 <- $r5
	@DEBUG_VALUE: mbedtls_pem_read_buffer:pwd <- [DW_OP_plus_uconst 64] [$sp+0]
	@DEBUG_VALUE: mbedtls_pem_read_buffer:pwdlen <- [DW_OP_plus_uconst 68] [$sp+0]
	@DEBUG_VALUE: mbedtls_pem_read_buffer:use_len <- [DW_OP_plus_uconst 72] [$sp+0]
	@DEBUG_VALUE: mbedtls_pem_read_buffer:footer <- [DW_OP_LLVM_entry_value 1] $r2
	@DEBUG_VALUE: mbedtls_pem_read_buffer:enc <- 0
	@DEBUG_VALUE: mbedtls_pem_read_buffer:data <- [DW_OP_LLVM_entry_value 1] $r3
	@DEBUG_VALUE: mbedtls_pem_read_buffer:header <- [DW_OP_LLVM_entry_value 1] $r1
	@DEBUG_VALUE: mbedtls_pem_read_buffer:enc_alg <- 0
	@DEBUG_VALUE: mbedtls_pem_read_buffer:enc <- 1
	.loc	2 284 13                        @ ../../../ThirdParty/mbedTLS/library/pem.c:284:13
	ldrb	r1, [r7, #23]
.Ltmp66:
	.loc	2 284 13 is_stmt 0              @ ../../../ThirdParty/mbedTLS/library/pem.c:284:13
	cmp	r1, #13
	beq	.LBB1_26
.Ltmp67:
@ %bb.25:
	@DEBUG_VALUE: mbedtls_pem_read_buffer:ctx <- [DW_OP_plus_uconst 20] [$sp+0]
	@DEBUG_VALUE: mbedtls_pem_read_buffer:s1 <- $r5
	@DEBUG_VALUE: mbedtls_pem_read_buffer:pwd <- [DW_OP_plus_uconst 64] [$sp+0]
	@DEBUG_VALUE: mbedtls_pem_read_buffer:pwdlen <- [DW_OP_plus_uconst 68] [$sp+0]
	@DEBUG_VALUE: mbedtls_pem_read_buffer:use_len <- [DW_OP_plus_uconst 72] [$sp+0]
	@DEBUG_VALUE: mbedtls_pem_read_buffer:enc <- 1
	@DEBUG_VALUE: mbedtls_pem_read_buffer:footer <- [DW_OP_LLVM_entry_value 1] $r2
	@DEBUG_VALUE: mbedtls_pem_read_buffer:data <- [DW_OP_LLVM_entry_value 1] $r3
	@DEBUG_VALUE: mbedtls_pem_read_buffer:header <- [DW_OP_LLVM_entry_value 1] $r1
	@DEBUG_VALUE: mbedtls_pem_read_buffer:enc_alg <- 0
	.loc	2 0 13                          @ ../../../ThirdParty/mbedTLS/library/pem.c:0:13
	movs	r0, #23
	b	.LBB1_27
.Ltmp68:
.LBB1_26:
	@DEBUG_VALUE: mbedtls_pem_read_buffer:ctx <- [DW_OP_plus_uconst 20] [$sp+0]
	@DEBUG_VALUE: mbedtls_pem_read_buffer:s1 <- $r5
	@DEBUG_VALUE: mbedtls_pem_read_buffer:pwd <- [DW_OP_plus_uconst 64] [$sp+0]
	@DEBUG_VALUE: mbedtls_pem_read_buffer:pwdlen <- [DW_OP_plus_uconst 68] [$sp+0]
	@DEBUG_VALUE: mbedtls_pem_read_buffer:use_len <- [DW_OP_plus_uconst 72] [$sp+0]
	@DEBUG_VALUE: mbedtls_pem_read_buffer:enc <- 1
	@DEBUG_VALUE: mbedtls_pem_read_buffer:footer <- [DW_OP_LLVM_entry_value 1] $r2
	@DEBUG_VALUE: mbedtls_pem_read_buffer:data <- [DW_OP_LLVM_entry_value 1] $r3
	@DEBUG_VALUE: mbedtls_pem_read_buffer:header <- [DW_OP_LLVM_entry_value 1] $r1
	@DEBUG_VALUE: mbedtls_pem_read_buffer:enc_alg <- 0
	movs	r0, #24
.Ltmp69:
.LBB1_27:
	@DEBUG_VALUE: mbedtls_pem_read_buffer:ctx <- [DW_OP_plus_uconst 20] [$sp+0]
	@DEBUG_VALUE: mbedtls_pem_read_buffer:s1 <- $r5
	@DEBUG_VALUE: mbedtls_pem_read_buffer:pwd <- [DW_OP_plus_uconst 64] [$sp+0]
	@DEBUG_VALUE: mbedtls_pem_read_buffer:pwdlen <- [DW_OP_plus_uconst 68] [$sp+0]
	@DEBUG_VALUE: mbedtls_pem_read_buffer:use_len <- [DW_OP_plus_uconst 72] [$sp+0]
	@DEBUG_VALUE: mbedtls_pem_read_buffer:enc <- 1
	@DEBUG_VALUE: mbedtls_pem_read_buffer:footer <- [DW_OP_LLVM_entry_value 1] $r2
	@DEBUG_VALUE: mbedtls_pem_read_buffer:data <- [DW_OP_LLVM_entry_value 1] $r3
	@DEBUG_VALUE: mbedtls_pem_read_buffer:header <- [DW_OP_LLVM_entry_value 1] $r1
	@DEBUG_VALUE: mbedtls_pem_read_buffer:enc_alg <- 0
	.loc	2 285 13 is_stmt 1              @ ../../../ThirdParty/mbedTLS/library/pem.c:285:13
	ldrb	r0, [r7, r0]
.Ltmp70:
	@DEBUG_VALUE: mbedtls_pem_read_buffer:s1 <- undef
	.loc	2 284 13                        @ ../../../ThirdParty/mbedTLS/library/pem.c:284:13
	cmp	r1, #13
	beq	.LBB1_29
.Ltmp71:
@ %bb.28:
	@DEBUG_VALUE: mbedtls_pem_read_buffer:ctx <- [DW_OP_plus_uconst 20] [$sp+0]
	@DEBUG_VALUE: mbedtls_pem_read_buffer:pwd <- [DW_OP_plus_uconst 64] [$sp+0]
	@DEBUG_VALUE: mbedtls_pem_read_buffer:pwdlen <- [DW_OP_plus_uconst 68] [$sp+0]
	@DEBUG_VALUE: mbedtls_pem_read_buffer:use_len <- [DW_OP_plus_uconst 72] [$sp+0]
	@DEBUG_VALUE: mbedtls_pem_read_buffer:enc <- 1
	@DEBUG_VALUE: mbedtls_pem_read_buffer:footer <- [DW_OP_LLVM_entry_value 1] $r2
	@DEBUG_VALUE: mbedtls_pem_read_buffer:data <- [DW_OP_LLVM_entry_value 1] $r3
	@DEBUG_VALUE: mbedtls_pem_read_buffer:header <- [DW_OP_LLVM_entry_value 1] $r1
	@DEBUG_VALUE: mbedtls_pem_read_buffer:enc_alg <- 0
	.loc	2 0 13 is_stmt 0                @ ../../../ThirdParty/mbedTLS/library/pem.c:0:13
	adds	r7, #23
.Ltmp72:
	@DEBUG_VALUE: mbedtls_pem_read_buffer:s1 <- $r7
	b	.LBB1_30
.Ltmp73:
.LBB1_29:
	@DEBUG_VALUE: mbedtls_pem_read_buffer:ctx <- [DW_OP_plus_uconst 20] [$sp+0]
	@DEBUG_VALUE: mbedtls_pem_read_buffer:pwd <- [DW_OP_plus_uconst 64] [$sp+0]
	@DEBUG_VALUE: mbedtls_pem_read_buffer:pwdlen <- [DW_OP_plus_uconst 68] [$sp+0]
	@DEBUG_VALUE: mbedtls_pem_read_buffer:use_len <- [DW_OP_plus_uconst 72] [$sp+0]
	@DEBUG_VALUE: mbedtls_pem_read_buffer:enc <- 1
	@DEBUG_VALUE: mbedtls_pem_read_buffer:footer <- [DW_OP_LLVM_entry_value 1] $r2
	@DEBUG_VALUE: mbedtls_pem_read_buffer:data <- [DW_OP_LLVM_entry_value 1] $r3
	@DEBUG_VALUE: mbedtls_pem_read_buffer:header <- [DW_OP_LLVM_entry_value 1] $r1
	@DEBUG_VALUE: mbedtls_pem_read_buffer:enc_alg <- 0
	adds	r7, #24
.Ltmp74:
.LBB1_30:
	@DEBUG_VALUE: mbedtls_pem_read_buffer:ctx <- [DW_OP_plus_uconst 20] [$sp+0]
	@DEBUG_VALUE: mbedtls_pem_read_buffer:pwd <- [DW_OP_plus_uconst 64] [$sp+0]
	@DEBUG_VALUE: mbedtls_pem_read_buffer:pwdlen <- [DW_OP_plus_uconst 68] [$sp+0]
	@DEBUG_VALUE: mbedtls_pem_read_buffer:use_len <- [DW_OP_plus_uconst 72] [$sp+0]
	@DEBUG_VALUE: mbedtls_pem_read_buffer:enc <- 1
	@DEBUG_VALUE: mbedtls_pem_read_buffer:footer <- [DW_OP_LLVM_entry_value 1] $r2
	@DEBUG_VALUE: mbedtls_pem_read_buffer:data <- [DW_OP_LLVM_entry_value 1] $r3
	@DEBUG_VALUE: mbedtls_pem_read_buffer:header <- [DW_OP_LLVM_entry_value 1] $r1
	@DEBUG_VALUE: mbedtls_pem_read_buffer:enc_alg <- 0
	@DEBUG_VALUE: mbedtls_pem_read_buffer:s1 <- $r7
	.loc	2 285 13 is_stmt 1              @ ../../../ThirdParty/mbedTLS/library/pem.c:285:13
	cmp	r0, #10
	beq	.LBB1_31
	b	.LBB1_75
.Ltmp75:
.LBB1_31:
	@DEBUG_VALUE: mbedtls_pem_read_buffer:ctx <- [DW_OP_plus_uconst 20] [$sp+0]
	@DEBUG_VALUE: mbedtls_pem_read_buffer:s1 <- $r7
	@DEBUG_VALUE: mbedtls_pem_read_buffer:pwd <- [DW_OP_plus_uconst 64] [$sp+0]
	@DEBUG_VALUE: mbedtls_pem_read_buffer:pwdlen <- [DW_OP_plus_uconst 68] [$sp+0]
	@DEBUG_VALUE: mbedtls_pem_read_buffer:use_len <- [DW_OP_plus_uconst 72] [$sp+0]
	@DEBUG_VALUE: mbedtls_pem_read_buffer:enc <- 1
	@DEBUG_VALUE: mbedtls_pem_read_buffer:footer <- [DW_OP_LLVM_entry_value 1] $r2
	@DEBUG_VALUE: mbedtls_pem_read_buffer:data <- [DW_OP_LLVM_entry_value 1] $r3
	@DEBUG_VALUE: mbedtls_pem_read_buffer:header <- [DW_OP_LLVM_entry_value 1] $r1
	@DEBUG_VALUE: mbedtls_pem_read_buffer:enc_alg <- 0
	.loc	2 0 0 is_stmt 0                 @ ../../../ThirdParty/mbedTLS/library/pem.c:0:0
	mov	r5, r7
	adds	r5, #35
.Ltmp76:
	.loc	2 285 29                        @ ../../../ThirdParty/mbedTLS/library/pem.c:285:29
	adds	r4, r7, #1
.Ltmp77:
	@DEBUG_VALUE: mbedtls_pem_read_buffer:s1 <- $r4
	.loc	2 290 16 is_stmt 1              @ ../../../ThirdParty/mbedTLS/library/pem.c:290:16
	subs	r6, r3, r4
	.loc	2 290 27 is_stmt 0              @ ../../../ThirdParty/mbedTLS/library/pem.c:290:27
	cmp	r6, #23
	blt	.LBB1_33
.Ltmp78:
@ %bb.32:
	@DEBUG_VALUE: mbedtls_pem_read_buffer:ctx <- [DW_OP_plus_uconst 20] [$sp+0]
	@DEBUG_VALUE: mbedtls_pem_read_buffer:s1 <- $r4
	@DEBUG_VALUE: mbedtls_pem_read_buffer:pwd <- [DW_OP_plus_uconst 64] [$sp+0]
	@DEBUG_VALUE: mbedtls_pem_read_buffer:pwdlen <- [DW_OP_plus_uconst 68] [$sp+0]
	@DEBUG_VALUE: mbedtls_pem_read_buffer:use_len <- [DW_OP_plus_uconst 72] [$sp+0]
	@DEBUG_VALUE: mbedtls_pem_read_buffer:enc <- 1
	@DEBUG_VALUE: mbedtls_pem_read_buffer:footer <- [DW_OP_LLVM_entry_value 1] $r2
	@DEBUG_VALUE: mbedtls_pem_read_buffer:data <- [DW_OP_LLVM_entry_value 1] $r3
	@DEBUG_VALUE: mbedtls_pem_read_buffer:header <- [DW_OP_LLVM_entry_value 1] $r1
	@DEBUG_VALUE: mbedtls_pem_read_buffer:enc_alg <- 0
	.loc	2 290 30                        @ ../../../ThirdParty/mbedTLS/library/pem.c:290:30
	adr	r1, .LCPI1_5
	movs	r2, #23
	mov	r0, r4
	bl	memcmp
	ldr	r3, [sp, #16]                   @ 4-byte Reload
.Ltmp79:
	.loc	2 290 13                        @ ../../../ThirdParty/mbedTLS/library/pem.c:290:13
	cmp	r0, #0
	beq	.LBB1_54
.Ltmp80:
.LBB1_33:
	@DEBUG_VALUE: mbedtls_pem_read_buffer:ctx <- [DW_OP_plus_uconst 20] [$sp+0]
	@DEBUG_VALUE: mbedtls_pem_read_buffer:s1 <- $r4
	@DEBUG_VALUE: mbedtls_pem_read_buffer:pwd <- [DW_OP_plus_uconst 64] [$sp+0]
	@DEBUG_VALUE: mbedtls_pem_read_buffer:pwdlen <- [DW_OP_plus_uconst 68] [$sp+0]
	@DEBUG_VALUE: mbedtls_pem_read_buffer:use_len <- [DW_OP_plus_uconst 72] [$sp+0]
	@DEBUG_VALUE: mbedtls_pem_read_buffer:enc <- 1
	@DEBUG_VALUE: mbedtls_pem_read_buffer:footer <- [DW_OP_LLVM_entry_value 1] $r2
	@DEBUG_VALUE: mbedtls_pem_read_buffer:data <- [DW_OP_LLVM_entry_value 1] $r3
	@DEBUG_VALUE: mbedtls_pem_read_buffer:header <- [DW_OP_LLVM_entry_value 1] $r1
	@DEBUG_VALUE: mbedtls_pem_read_buffer:enc_alg <- 0
	.loc	2 0 13                          @ ../../../ThirdParty/mbedTLS/library/pem.c:0:13
	mov	r0, r4
	movs	r4, #0
.Ltmp81:
	.loc	2 300 32 is_stmt 1              @ ../../../ThirdParty/mbedTLS/library/pem.c:300:32
	cmp	r6, #18
	blt	.LBB1_41
.Ltmp82:
@ %bb.34:
	@DEBUG_VALUE: mbedtls_pem_read_buffer:ctx <- [DW_OP_plus_uconst 20] [$sp+0]
	@DEBUG_VALUE: mbedtls_pem_read_buffer:pwd <- [DW_OP_plus_uconst 64] [$sp+0]
	@DEBUG_VALUE: mbedtls_pem_read_buffer:pwdlen <- [DW_OP_plus_uconst 68] [$sp+0]
	@DEBUG_VALUE: mbedtls_pem_read_buffer:use_len <- [DW_OP_plus_uconst 72] [$sp+0]
	@DEBUG_VALUE: mbedtls_pem_read_buffer:enc <- 1
	@DEBUG_VALUE: mbedtls_pem_read_buffer:footer <- [DW_OP_LLVM_entry_value 1] $r2
	@DEBUG_VALUE: mbedtls_pem_read_buffer:data <- [DW_OP_LLVM_entry_value 1] $r3
	@DEBUG_VALUE: mbedtls_pem_read_buffer:header <- [DW_OP_LLVM_entry_value 1] $r1
	@DEBUG_VALUE: mbedtls_pem_read_buffer:enc_alg <- 0
	.loc	2 300 35 is_stmt 0              @ ../../../ThirdParty/mbedTLS/library/pem.c:300:35
	adr	r1, .LCPI1_6
	movs	r2, #18
	mov	r6, r0
	bl	memcmp
	ldr	r3, [sp, #16]                   @ 4-byte Reload
.Ltmp83:
	.loc	2 300 18                        @ ../../../ThirdParty/mbedTLS/library/pem.c:300:18
	cbnz	r0, .LBB1_42
.Ltmp84:
@ %bb.35:
	@DEBUG_VALUE: mbedtls_pem_read_buffer:ctx <- [DW_OP_plus_uconst 20] [$sp+0]
	@DEBUG_VALUE: mbedtls_pem_read_buffer:pwd <- [DW_OP_plus_uconst 64] [$sp+0]
	@DEBUG_VALUE: mbedtls_pem_read_buffer:pwdlen <- [DW_OP_plus_uconst 68] [$sp+0]
	@DEBUG_VALUE: mbedtls_pem_read_buffer:use_len <- [DW_OP_plus_uconst 72] [$sp+0]
	@DEBUG_VALUE: mbedtls_pem_read_buffer:enc <- 1
	@DEBUG_VALUE: mbedtls_pem_read_buffer:footer <- [DW_OP_LLVM_entry_value 1] $r2
	@DEBUG_VALUE: mbedtls_pem_read_buffer:data <- [DW_OP_LLVM_entry_value 1] $r3
	@DEBUG_VALUE: mbedtls_pem_read_buffer:header <- [DW_OP_LLVM_entry_value 1] $r1
	@DEBUG_VALUE: mbedtls_pem_read_buffer:enc_alg <- 0
	@DEBUG_VALUE: mbedtls_pem_read_buffer:enc_alg <- 33
	.loc	2 304 16 is_stmt 1              @ ../../../ThirdParty/mbedTLS/library/pem.c:304:16
	adds	r7, #19
.Ltmp85:
	@DEBUG_VALUE: mbedtls_pem_read_buffer:s1 <- $r7
	.loc	2 305 20                        @ ../../../ThirdParty/mbedTLS/library/pem.c:305:20
	subs	r0, r3, r7
	.loc	2 305 30 is_stmt 0              @ ../../../ThirdParty/mbedTLS/library/pem.c:305:30
	cmp	r0, #16
	bge	.LBB1_36
	b	.LBB1_84
.Ltmp86:
.LBB1_36:
	@DEBUG_VALUE: mbedtls_pem_read_buffer:ctx <- [DW_OP_plus_uconst 20] [$sp+0]
	@DEBUG_VALUE: mbedtls_pem_read_buffer:s1 <- $r7
	@DEBUG_VALUE: mbedtls_pem_read_buffer:pwd <- [DW_OP_plus_uconst 64] [$sp+0]
	@DEBUG_VALUE: mbedtls_pem_read_buffer:pwdlen <- [DW_OP_plus_uconst 68] [$sp+0]
	@DEBUG_VALUE: mbedtls_pem_read_buffer:use_len <- [DW_OP_plus_uconst 72] [$sp+0]
	@DEBUG_VALUE: mbedtls_pem_read_buffer:enc_alg <- 33
	@DEBUG_VALUE: mbedtls_pem_read_buffer:enc <- 1
	@DEBUG_VALUE: mbedtls_pem_read_buffer:footer <- [DW_OP_LLVM_entry_value 1] $r2
	@DEBUG_VALUE: mbedtls_pem_read_buffer:data <- [DW_OP_LLVM_entry_value 1] $r3
	@DEBUG_VALUE: mbedtls_pem_read_buffer:header <- [DW_OP_LLVM_entry_value 1] $r1
	.loc	2 0 30                          @ ../../../ThirdParty/mbedTLS/library/pem.c:0:30
	add	r1, sp, #24
	movs	r2, #8
	.loc	2 305 33                        @ ../../../ThirdParty/mbedTLS/library/pem.c:305:33
	mov	r0, r7
	bl	pem_get_iv
.Ltmp87:
	.loc	2 305 17                        @ ../../../ThirdParty/mbedTLS/library/pem.c:305:17
	cmp	r0, #0
	beq	.LBB1_37
	b	.LBB1_84
.Ltmp88:
.LBB1_37:
	@DEBUG_VALUE: mbedtls_pem_read_buffer:ctx <- [DW_OP_plus_uconst 20] [$sp+0]
	@DEBUG_VALUE: mbedtls_pem_read_buffer:s1 <- $r7
	@DEBUG_VALUE: mbedtls_pem_read_buffer:pwd <- [DW_OP_plus_uconst 64] [$sp+0]
	@DEBUG_VALUE: mbedtls_pem_read_buffer:pwdlen <- [DW_OP_plus_uconst 68] [$sp+0]
	@DEBUG_VALUE: mbedtls_pem_read_buffer:use_len <- [DW_OP_plus_uconst 72] [$sp+0]
	@DEBUG_VALUE: mbedtls_pem_read_buffer:enc_alg <- 33
	@DEBUG_VALUE: mbedtls_pem_read_buffer:enc <- 1
	@DEBUG_VALUE: mbedtls_pem_read_buffer:footer <- [DW_OP_LLVM_entry_value 1] $r2
	@DEBUG_VALUE: mbedtls_pem_read_buffer:data <- [DW_OP_LLVM_entry_value 1] $r3
	@DEBUG_VALUE: mbedtls_pem_read_buffer:header <- [DW_OP_LLVM_entry_value 1] $r1
	.loc	2 0 17                          @ ../../../ThirdParty/mbedTLS/library/pem.c:0:17
	movs	r4, #33
.Ltmp89:
	@DEBUG_VALUE: mbedtls_pem_read_buffer:s1 <- $r5
	mov	r6, r5
.Ltmp90:
	@DEBUG_VALUE: mbedtls_pem_read_buffer:s1 <- $r6
	@DEBUG_VALUE: mbedtls_pem_read_buffer:s1 <- $r6
	b	.LBB1_57
.Ltmp91:
.LBB1_38:
	@DEBUG_VALUE: mbedtls_pem_read_buffer:ctx <- [DW_OP_plus_uconst 20] [$sp+0]
	@DEBUG_VALUE: mbedtls_pem_read_buffer:s1 <- $r5
	@DEBUG_VALUE: mbedtls_pem_read_buffer:len <- $r4
	@DEBUG_VALUE: mbedtls_pem_read_buffer:buf <- $r0
	@DEBUG_VALUE: mbedtls_pem_read_buffer:enc_alg <- [DW_OP_plus_uconst 12] [$sp+0]
	@DEBUG_VALUE: mbedtls_pem_read_buffer:pwd <- [DW_OP_plus_uconst 64] [$sp+0]
	@DEBUG_VALUE: mbedtls_pem_read_buffer:pwdlen <- [DW_OP_plus_uconst 68] [$sp+0]
	@DEBUG_VALUE: mbedtls_pem_read_buffer:use_len <- [DW_OP_plus_uconst 72] [$sp+0]
	@DEBUG_VALUE: mbedtls_pem_read_buffer:footer <- [DW_OP_LLVM_entry_value 1] $r2
	@DEBUG_VALUE: mbedtls_pem_read_buffer:data <- [DW_OP_LLVM_entry_value 1] $r3
	@DEBUG_VALUE: mbedtls_pem_read_buffer:header <- [DW_OP_LLVM_entry_value 1] $r1
	ldr	r0, __arm_cp.1_2
.Ltmp92:
	b	.LBB1_87
.Ltmp93:
.LBB1_39:
	@DEBUG_VALUE: mbedtls_pem_read_buffer:ctx <- [DW_OP_plus_uconst 20] [$sp+0]
	@DEBUG_VALUE: mbedtls_pem_read_buffer:s1 <- $r5
	@DEBUG_VALUE: mbedtls_pem_read_buffer:ret <- $r0
	@DEBUG_VALUE: mbedtls_pem_read_buffer:len <- [DW_OP_plus_uconst 40, DW_OP_deref] $sp
	@DEBUG_VALUE: mbedtls_pem_read_buffer:enc_alg <- [DW_OP_plus_uconst 12] [$sp+0]
	@DEBUG_VALUE: mbedtls_pem_read_buffer:pwd <- [DW_OP_plus_uconst 64] [$sp+0]
	@DEBUG_VALUE: mbedtls_pem_read_buffer:pwdlen <- [DW_OP_plus_uconst 68] [$sp+0]
	@DEBUG_VALUE: mbedtls_pem_read_buffer:use_len <- [DW_OP_plus_uconst 72] [$sp+0]
	@DEBUG_VALUE: mbedtls_pem_read_buffer:footer <- [DW_OP_LLVM_entry_value 1] $r2
	@DEBUG_VALUE: mbedtls_pem_read_buffer:data <- [DW_OP_LLVM_entry_value 1] $r3
	@DEBUG_VALUE: mbedtls_pem_read_buffer:header <- [DW_OP_LLVM_entry_value 1] $r1
	.loc	2 364 9 is_stmt 1               @ ../../../ThirdParty/mbedTLS/library/pem.c:364:9
	cbz	r6, .LBB1_50
.Ltmp94:
.LBB1_40:
	@DEBUG_VALUE: mbedtls_pem_read_buffer:ctx <- [DW_OP_plus_uconst 20] [$sp+0]
	@DEBUG_VALUE: mbedtls_pem_read_buffer:enc_alg <- [DW_OP_plus_uconst 12] [$sp+0]
	@DEBUG_VALUE: mbedtls_pem_read_buffer:pwd <- [DW_OP_plus_uconst 64] [$sp+0]
	@DEBUG_VALUE: mbedtls_pem_read_buffer:pwdlen <- [DW_OP_plus_uconst 68] [$sp+0]
	@DEBUG_VALUE: mbedtls_pem_read_buffer:use_len <- [DW_OP_plus_uconst 72] [$sp+0]
	@DEBUG_VALUE: mbedtls_pem_read_buffer:footer <- [DW_OP_LLVM_entry_value 1] $r2
	@DEBUG_VALUE: mbedtls_pem_read_buffer:data <- [DW_OP_LLVM_entry_value 1] $r3
	@DEBUG_VALUE: mbedtls_pem_read_buffer:header <- [DW_OP_LLVM_entry_value 1] $r1
	.loc	2 420 19                        @ ../../../ThirdParty/mbedTLS/library/pem.c:420:19
	ldr	r0, [sp, #40]
.Ltmp95:
	@DEBUG_VALUE: mbedtls_pem_read_buffer:len <- $r0
	.loc	2 0 19 is_stmt 0                @ ../../../ThirdParty/mbedTLS/library/pem.c:0:19
	ldr	r1, [sp, #20]                   @ 4-byte Reload
.Ltmp96:
	@DEBUG_VALUE: mbedtls_pem_read_buffer:ctx <- $r1
	.loc	2 419 14 is_stmt 1              @ ../../../ThirdParty/mbedTLS/library/pem.c:419:14
	str	r7, [r1]
	.loc	2 420 17                        @ ../../../ThirdParty/mbedTLS/library/pem.c:420:17
	str	r0, [r1, #4]
	movs	r0, #0
.Ltmp97:
	.loc	2 0 17 is_stmt 0                @ ../../../ThirdParty/mbedTLS/library/pem.c:0:17
	b	.LBB1_59
.Ltmp98:
.LBB1_41:
	@DEBUG_VALUE: mbedtls_pem_read_buffer:ctx <- [DW_OP_plus_uconst 20] [$sp+0]
	@DEBUG_VALUE: mbedtls_pem_read_buffer:pwd <- [DW_OP_plus_uconst 64] [$sp+0]
	@DEBUG_VALUE: mbedtls_pem_read_buffer:pwdlen <- [DW_OP_plus_uconst 68] [$sp+0]
	@DEBUG_VALUE: mbedtls_pem_read_buffer:use_len <- [DW_OP_plus_uconst 72] [$sp+0]
	@DEBUG_VALUE: mbedtls_pem_read_buffer:enc <- 1
	@DEBUG_VALUE: mbedtls_pem_read_buffer:footer <- [DW_OP_LLVM_entry_value 1] $r2
	@DEBUG_VALUE: mbedtls_pem_read_buffer:data <- [DW_OP_LLVM_entry_value 1] $r3
	@DEBUG_VALUE: mbedtls_pem_read_buffer:header <- [DW_OP_LLVM_entry_value 1] $r1
	@DEBUG_VALUE: mbedtls_pem_read_buffer:enc_alg <- 0
	mov	r6, r0
.Ltmp99:
.LBB1_42:
	@DEBUG_VALUE: mbedtls_pem_read_buffer:ctx <- [DW_OP_plus_uconst 20] [$sp+0]
	@DEBUG_VALUE: mbedtls_pem_read_buffer:pwd <- [DW_OP_plus_uconst 64] [$sp+0]
	@DEBUG_VALUE: mbedtls_pem_read_buffer:pwdlen <- [DW_OP_plus_uconst 68] [$sp+0]
	@DEBUG_VALUE: mbedtls_pem_read_buffer:use_len <- [DW_OP_plus_uconst 72] [$sp+0]
	@DEBUG_VALUE: mbedtls_pem_read_buffer:enc <- 1
	@DEBUG_VALUE: mbedtls_pem_read_buffer:footer <- [DW_OP_LLVM_entry_value 1] $r2
	@DEBUG_VALUE: mbedtls_pem_read_buffer:data <- [DW_OP_LLVM_entry_value 1] $r3
	@DEBUG_VALUE: mbedtls_pem_read_buffer:header <- [DW_OP_LLVM_entry_value 1] $r1
	@DEBUG_VALUE: mbedtls_pem_read_buffer:enc_alg <- $r4
	@DEBUG_VALUE: mbedtls_pem_read_buffer:s1 <- $r6
	.loc	2 313 16 is_stmt 1              @ ../../../ThirdParty/mbedTLS/library/pem.c:313:16
	subs	r5, r3, r6
	.loc	2 313 27 is_stmt 0              @ ../../../ThirdParty/mbedTLS/library/pem.c:313:27
	cmp	r5, #14
	blt	.LBB1_45
.Ltmp100:
@ %bb.43:
	@DEBUG_VALUE: mbedtls_pem_read_buffer:ctx <- [DW_OP_plus_uconst 20] [$sp+0]
	@DEBUG_VALUE: mbedtls_pem_read_buffer:s1 <- $r6
	@DEBUG_VALUE: mbedtls_pem_read_buffer:enc_alg <- $r4
	@DEBUG_VALUE: mbedtls_pem_read_buffer:pwd <- [DW_OP_plus_uconst 64] [$sp+0]
	@DEBUG_VALUE: mbedtls_pem_read_buffer:pwdlen <- [DW_OP_plus_uconst 68] [$sp+0]
	@DEBUG_VALUE: mbedtls_pem_read_buffer:use_len <- [DW_OP_plus_uconst 72] [$sp+0]
	@DEBUG_VALUE: mbedtls_pem_read_buffer:enc <- 1
	@DEBUG_VALUE: mbedtls_pem_read_buffer:footer <- [DW_OP_LLVM_entry_value 1] $r2
	@DEBUG_VALUE: mbedtls_pem_read_buffer:data <- [DW_OP_LLVM_entry_value 1] $r3
	@DEBUG_VALUE: mbedtls_pem_read_buffer:header <- [DW_OP_LLVM_entry_value 1] $r1
	.loc	2 313 30                        @ ../../../ThirdParty/mbedTLS/library/pem.c:313:30
	adr	r1, .LCPI1_7
	movs	r2, #14
	mov	r0, r6
	bl	memcmp
.Ltmp101:
	.loc	2 313 13                        @ ../../../ThirdParty/mbedTLS/library/pem.c:313:13
	cbz	r0, .LBB1_58
.Ltmp102:
@ %bb.44:
	@DEBUG_VALUE: mbedtls_pem_read_buffer:ctx <- [DW_OP_plus_uconst 20] [$sp+0]
	@DEBUG_VALUE: mbedtls_pem_read_buffer:s1 <- $r6
	@DEBUG_VALUE: mbedtls_pem_read_buffer:enc_alg <- $r4
	@DEBUG_VALUE: mbedtls_pem_read_buffer:pwd <- [DW_OP_plus_uconst 64] [$sp+0]
	@DEBUG_VALUE: mbedtls_pem_read_buffer:pwdlen <- [DW_OP_plus_uconst 68] [$sp+0]
	@DEBUG_VALUE: mbedtls_pem_read_buffer:use_len <- [DW_OP_plus_uconst 72] [$sp+0]
	@DEBUG_VALUE: mbedtls_pem_read_buffer:enc <- 1
	@DEBUG_VALUE: mbedtls_pem_read_buffer:footer <- [DW_OP_LLVM_entry_value 1] $r2
	@DEBUG_VALUE: mbedtls_pem_read_buffer:data <- [DW_OP_LLVM_entry_value 1] $r3
	@DEBUG_VALUE: mbedtls_pem_read_buffer:header <- [DW_OP_LLVM_entry_value 1] $r1
	.loc	2 0 13                          @ ../../../ThirdParty/mbedTLS/library/pem.c:0:13
	ldr	r3, [sp, #16]                   @ 4-byte Reload
.Ltmp103:
.LBB1_45:
	@DEBUG_VALUE: mbedtls_pem_read_buffer:ctx <- [DW_OP_plus_uconst 20] [$sp+0]
	@DEBUG_VALUE: mbedtls_pem_read_buffer:s1 <- $r6
	@DEBUG_VALUE: mbedtls_pem_read_buffer:enc_alg <- $r4
	@DEBUG_VALUE: mbedtls_pem_read_buffer:pwd <- [DW_OP_plus_uconst 64] [$sp+0]
	@DEBUG_VALUE: mbedtls_pem_read_buffer:pwdlen <- [DW_OP_plus_uconst 68] [$sp+0]
	@DEBUG_VALUE: mbedtls_pem_read_buffer:use_len <- [DW_OP_plus_uconst 72] [$sp+0]
	@DEBUG_VALUE: mbedtls_pem_read_buffer:enc <- 1
	@DEBUG_VALUE: mbedtls_pem_read_buffer:footer <- [DW_OP_LLVM_entry_value 1] $r2
	@DEBUG_VALUE: mbedtls_pem_read_buffer:data <- [DW_OP_LLVM_entry_value 1] $r3
	@DEBUG_VALUE: mbedtls_pem_read_buffer:header <- [DW_OP_LLVM_entry_value 1] $r1
	mov	r5, r4
.Ltmp104:
	@DEBUG_VALUE: mbedtls_pem_read_buffer:enc_alg <- $r5
	@DEBUG_VALUE: mbedtls_pem_read_buffer:enc_alg <- $r5
	@DEBUG_VALUE: mbedtls_pem_read_buffer:s1 <- $r6
	.loc	2 334 13 is_stmt 1              @ ../../../ThirdParty/mbedTLS/library/pem.c:334:13
	cmp	r5, #0
	bne	.LBB1_46
	b	.LBB1_86
.Ltmp105:
.LBB1_46:
	@DEBUG_VALUE: mbedtls_pem_read_buffer:ctx <- [DW_OP_plus_uconst 20] [$sp+0]
	@DEBUG_VALUE: mbedtls_pem_read_buffer:s1 <- $r6
	@DEBUG_VALUE: mbedtls_pem_read_buffer:enc_alg <- $r5
	@DEBUG_VALUE: mbedtls_pem_read_buffer:pwd <- [DW_OP_plus_uconst 64] [$sp+0]
	@DEBUG_VALUE: mbedtls_pem_read_buffer:pwdlen <- [DW_OP_plus_uconst 68] [$sp+0]
	@DEBUG_VALUE: mbedtls_pem_read_buffer:use_len <- [DW_OP_plus_uconst 72] [$sp+0]
	@DEBUG_VALUE: mbedtls_pem_read_buffer:enc <- 1
	@DEBUG_VALUE: mbedtls_pem_read_buffer:footer <- [DW_OP_LLVM_entry_value 1] $r2
	@DEBUG_VALUE: mbedtls_pem_read_buffer:data <- [DW_OP_LLVM_entry_value 1] $r3
	@DEBUG_VALUE: mbedtls_pem_read_buffer:header <- [DW_OP_LLVM_entry_value 1] $r1
	.loc	2 337 13                        @ ../../../ThirdParty/mbedTLS/library/pem.c:337:13
	ldrb	r0, [r6]
.Ltmp106:
	.loc	2 337 13 is_stmt 0              @ ../../../ThirdParty/mbedTLS/library/pem.c:337:13
	cmp	r0, #13
	bne	.LBB1_48
.Ltmp107:
@ %bb.47:
	@DEBUG_VALUE: mbedtls_pem_read_buffer:ctx <- [DW_OP_plus_uconst 20] [$sp+0]
	@DEBUG_VALUE: mbedtls_pem_read_buffer:s1 <- $r6
	@DEBUG_VALUE: mbedtls_pem_read_buffer:enc_alg <- $r5
	@DEBUG_VALUE: mbedtls_pem_read_buffer:pwd <- [DW_OP_plus_uconst 64] [$sp+0]
	@DEBUG_VALUE: mbedtls_pem_read_buffer:pwdlen <- [DW_OP_plus_uconst 68] [$sp+0]
	@DEBUG_VALUE: mbedtls_pem_read_buffer:use_len <- [DW_OP_plus_uconst 72] [$sp+0]
	@DEBUG_VALUE: mbedtls_pem_read_buffer:enc <- 1
	@DEBUG_VALUE: mbedtls_pem_read_buffer:footer <- [DW_OP_LLVM_entry_value 1] $r2
	@DEBUG_VALUE: mbedtls_pem_read_buffer:data <- [DW_OP_LLVM_entry_value 1] $r3
	@DEBUG_VALUE: mbedtls_pem_read_buffer:header <- [DW_OP_LLVM_entry_value 1] $r1
	.loc	2 0 13                          @ ../../../ThirdParty/mbedTLS/library/pem.c:0:13
	adds	r6, r6, #1
.Ltmp108:
.LBB1_48:
	@DEBUG_VALUE: mbedtls_pem_read_buffer:ctx <- [DW_OP_plus_uconst 20] [$sp+0]
	@DEBUG_VALUE: mbedtls_pem_read_buffer:enc_alg <- $r5
	@DEBUG_VALUE: mbedtls_pem_read_buffer:pwd <- [DW_OP_plus_uconst 64] [$sp+0]
	@DEBUG_VALUE: mbedtls_pem_read_buffer:pwdlen <- [DW_OP_plus_uconst 68] [$sp+0]
	@DEBUG_VALUE: mbedtls_pem_read_buffer:use_len <- [DW_OP_plus_uconst 72] [$sp+0]
	@DEBUG_VALUE: mbedtls_pem_read_buffer:enc <- 1
	@DEBUG_VALUE: mbedtls_pem_read_buffer:footer <- [DW_OP_LLVM_entry_value 1] $r2
	@DEBUG_VALUE: mbedtls_pem_read_buffer:data <- [DW_OP_LLVM_entry_value 1] $r3
	@DEBUG_VALUE: mbedtls_pem_read_buffer:header <- [DW_OP_LLVM_entry_value 1] $r1
	ldr	r4, __arm_cp.1_2
.Ltmp109:
	@DEBUG_VALUE: mbedtls_pem_read_buffer:s1 <- $r6
	.loc	2 338 13 is_stmt 1              @ ../../../ThirdParty/mbedTLS/library/pem.c:338:13
	ldrb	r0, [r6]
.Ltmp110:
	.loc	2 338 13 is_stmt 0              @ ../../../ThirdParty/mbedTLS/library/pem.c:338:13
	cmp	r0, #10
	bne	.LBB1_75
.Ltmp111:
@ %bb.49:
	@DEBUG_VALUE: mbedtls_pem_read_buffer:ctx <- [DW_OP_plus_uconst 20] [$sp+0]
	@DEBUG_VALUE: mbedtls_pem_read_buffer:s1 <- $r6
	@DEBUG_VALUE: mbedtls_pem_read_buffer:enc_alg <- $r5
	@DEBUG_VALUE: mbedtls_pem_read_buffer:pwd <- [DW_OP_plus_uconst 64] [$sp+0]
	@DEBUG_VALUE: mbedtls_pem_read_buffer:pwdlen <- [DW_OP_plus_uconst 68] [$sp+0]
	@DEBUG_VALUE: mbedtls_pem_read_buffer:use_len <- [DW_OP_plus_uconst 72] [$sp+0]
	@DEBUG_VALUE: mbedtls_pem_read_buffer:enc <- 1
	@DEBUG_VALUE: mbedtls_pem_read_buffer:footer <- [DW_OP_LLVM_entry_value 1] $r2
	@DEBUG_VALUE: mbedtls_pem_read_buffer:data <- [DW_OP_LLVM_entry_value 1] $r3
	@DEBUG_VALUE: mbedtls_pem_read_buffer:header <- [DW_OP_LLVM_entry_value 1] $r1
	.loc	2 0 13                          @ ../../../ThirdParty/mbedTLS/library/pem.c:0:13
	str	r5, [sp, #12]                   @ 4-byte Spill
.Ltmp112:
	@DEBUG_VALUE: mbedtls_pem_read_buffer:enc_alg <- [DW_OP_plus_uconst 12] [$sp+0]
	.loc	2 338 29                        @ ../../../ThirdParty/mbedTLS/library/pem.c:338:29
	adds	r5, r6, #1
.Ltmp113:
	@DEBUG_VALUE: mbedtls_pem_read_buffer:s1 <- $r5
	.loc	2 0 29                          @ ../../../ThirdParty/mbedTLS/library/pem.c:0:29
	movs	r6, #0
.Ltmp114:
	@DEBUG_VALUE: mbedtls_pem_read_buffer:enc_alg <- [DW_OP_plus_uconst 12] [$sp+0]
	@DEBUG_VALUE: mbedtls_pem_read_buffer:s1 <- $r5
	@DEBUG_VALUE: mbedtls_pem_read_buffer:enc <- undef
	.loc	2 346 9 is_stmt 1               @ ../../../ThirdParty/mbedTLS/library/pem.c:346:9
	cmp	r5, r3
	bhs	.LBB1_75
	b	.LBB1_17
.Ltmp115:
.LBB1_50:
	@DEBUG_VALUE: mbedtls_pem_read_buffer:ctx <- [DW_OP_plus_uconst 20] [$sp+0]
	@DEBUG_VALUE: mbedtls_pem_read_buffer:s1 <- $r5
	@DEBUG_VALUE: mbedtls_pem_read_buffer:ret <- $r0
	@DEBUG_VALUE: mbedtls_pem_read_buffer:len <- [DW_OP_plus_uconst 40, DW_OP_deref] $sp
	@DEBUG_VALUE: mbedtls_pem_read_buffer:enc_alg <- [DW_OP_plus_uconst 12] [$sp+0]
	@DEBUG_VALUE: mbedtls_pem_read_buffer:pwd <- [DW_OP_plus_uconst 64] [$sp+0]
	@DEBUG_VALUE: mbedtls_pem_read_buffer:pwdlen <- [DW_OP_plus_uconst 68] [$sp+0]
	@DEBUG_VALUE: mbedtls_pem_read_buffer:use_len <- [DW_OP_plus_uconst 72] [$sp+0]
	@DEBUG_VALUE: mbedtls_pem_read_buffer:footer <- [DW_OP_LLVM_entry_value 1] $r2
	@DEBUG_VALUE: mbedtls_pem_read_buffer:data <- [DW_OP_LLVM_entry_value 1] $r3
	@DEBUG_VALUE: mbedtls_pem_read_buffer:header <- [DW_OP_LLVM_entry_value 1] $r1
	.loc	2 0 9 is_stmt 0                 @ ../../../ThirdParty/mbedTLS/library/pem.c:0:9
	ldr	r5, [sp, #64]
.Ltmp116:
	.loc	2 368 13 is_stmt 1              @ ../../../ThirdParty/mbedTLS/library/pem.c:368:13
	cbz	r5, .LBB1_60
.Ltmp117:
@ %bb.51:
	@DEBUG_VALUE: mbedtls_pem_read_buffer:ctx <- [DW_OP_plus_uconst 20] [$sp+0]
	@DEBUG_VALUE: mbedtls_pem_read_buffer:ret <- $r0
	@DEBUG_VALUE: mbedtls_pem_read_buffer:len <- [DW_OP_plus_uconst 40, DW_OP_deref] $sp
	@DEBUG_VALUE: mbedtls_pem_read_buffer:enc_alg <- [DW_OP_plus_uconst 12] [$sp+0]
	@DEBUG_VALUE: mbedtls_pem_read_buffer:pwd <- [DW_OP_plus_uconst 64] [$sp+0]
	@DEBUG_VALUE: mbedtls_pem_read_buffer:pwdlen <- [DW_OP_plus_uconst 68] [$sp+0]
	@DEBUG_VALUE: mbedtls_pem_read_buffer:use_len <- [DW_OP_plus_uconst 72] [$sp+0]
	@DEBUG_VALUE: mbedtls_pem_read_buffer:footer <- [DW_OP_LLVM_entry_value 1] $r2
	@DEBUG_VALUE: mbedtls_pem_read_buffer:data <- [DW_OP_LLVM_entry_value 1] $r3
	@DEBUG_VALUE: mbedtls_pem_read_buffer:header <- [DW_OP_LLVM_entry_value 1] $r1
	.loc	2 0 13 is_stmt 0                @ ../../../ThirdParty/mbedTLS/library/pem.c:0:13
	ldr	r4, [sp, #68]
.Ltmp118:
	@DEBUG_VALUE: mbedtls_pem_read_buffer:ret <- 0
	ldr	r6, [sp, #12]                   @ 4-byte Reload
	.loc	2 378 13 is_stmt 1              @ ../../../ThirdParty/mbedTLS/library/pem.c:378:13
	cmp	r6, #33
	beq	.LBB1_65
.Ltmp119:
@ %bb.52:
	@DEBUG_VALUE: mbedtls_pem_read_buffer:ctx <- [DW_OP_plus_uconst 20] [$sp+0]
	@DEBUG_VALUE: mbedtls_pem_read_buffer:len <- [DW_OP_plus_uconst 40, DW_OP_deref] $sp
	@DEBUG_VALUE: mbedtls_pem_read_buffer:enc_alg <- [DW_OP_plus_uconst 12] [$sp+0]
	@DEBUG_VALUE: mbedtls_pem_read_buffer:pwd <- [DW_OP_plus_uconst 64] [$sp+0]
	@DEBUG_VALUE: mbedtls_pem_read_buffer:pwdlen <- [DW_OP_plus_uconst 68] [$sp+0]
	@DEBUG_VALUE: mbedtls_pem_read_buffer:use_len <- [DW_OP_plus_uconst 72] [$sp+0]
	@DEBUG_VALUE: mbedtls_pem_read_buffer:ret <- 0
	@DEBUG_VALUE: mbedtls_pem_read_buffer:footer <- [DW_OP_LLVM_entry_value 1] $r2
	@DEBUG_VALUE: mbedtls_pem_read_buffer:data <- [DW_OP_LLVM_entry_value 1] $r3
	@DEBUG_VALUE: mbedtls_pem_read_buffer:header <- [DW_OP_LLVM_entry_value 1] $r1
	cmp	r6, #37
	ldr	r0, [sp, #16]                   @ 4-byte Reload
	bne	.LBB1_66
.Ltmp120:
@ %bb.53:
	@DEBUG_VALUE: mbedtls_pem_read_buffer:ctx <- [DW_OP_plus_uconst 20] [$sp+0]
	@DEBUG_VALUE: mbedtls_pem_read_buffer:len <- [DW_OP_plus_uconst 40, DW_OP_deref] $sp
	@DEBUG_VALUE: mbedtls_pem_read_buffer:enc_alg <- [DW_OP_plus_uconst 12] [$sp+0]
	@DEBUG_VALUE: mbedtls_pem_read_buffer:pwd <- [DW_OP_plus_uconst 64] [$sp+0]
	@DEBUG_VALUE: mbedtls_pem_read_buffer:pwdlen <- [DW_OP_plus_uconst 68] [$sp+0]
	@DEBUG_VALUE: mbedtls_pem_read_buffer:use_len <- [DW_OP_plus_uconst 72] [$sp+0]
	@DEBUG_VALUE: mbedtls_pem_read_buffer:ret <- 0
	@DEBUG_VALUE: mbedtls_pem_read_buffer:footer <- [DW_OP_LLVM_entry_value 1] $r2
	@DEBUG_VALUE: mbedtls_pem_read_buffer:data <- [DW_OP_LLVM_entry_value 1] $r3
	@DEBUG_VALUE: mbedtls_pem_read_buffer:header <- [DW_OP_LLVM_entry_value 1] $r1
	.loc	2 379 50                        @ ../../../ThirdParty/mbedTLS/library/pem.c:379:50
	ldr	r2, [sp, #40]
.Ltmp121:
	@DEBUG_VALUE: mbedtls_pem_read_buffer:len <- $r2
	.loc	2 379 19 is_stmt 0              @ ../../../ThirdParty/mbedTLS/library/pem.c:379:19
	str	r4, [sp]
	add	r0, sp, #24
	mov	r1, r7
	mov	r3, r5
	bl	pem_des3_decrypt
.Ltmp122:
	@DEBUG_VALUE: mbedtls_pem_read_buffer:ret <- $r0
	.loc	2 0 19                          @ ../../../ThirdParty/mbedTLS/library/pem.c:0:19
	b	.LBB1_66
.Ltmp123:
.LBB1_54:
	@DEBUG_VALUE: mbedtls_pem_read_buffer:ctx <- [DW_OP_plus_uconst 20] [$sp+0]
	@DEBUG_VALUE: mbedtls_pem_read_buffer:s1 <- $r4
	@DEBUG_VALUE: mbedtls_pem_read_buffer:pwd <- [DW_OP_plus_uconst 64] [$sp+0]
	@DEBUG_VALUE: mbedtls_pem_read_buffer:pwdlen <- [DW_OP_plus_uconst 68] [$sp+0]
	@DEBUG_VALUE: mbedtls_pem_read_buffer:use_len <- [DW_OP_plus_uconst 72] [$sp+0]
	@DEBUG_VALUE: mbedtls_pem_read_buffer:enc <- 1
	@DEBUG_VALUE: mbedtls_pem_read_buffer:footer <- [DW_OP_LLVM_entry_value 1] $r2
	@DEBUG_VALUE: mbedtls_pem_read_buffer:data <- [DW_OP_LLVM_entry_value 1] $r3
	@DEBUG_VALUE: mbedtls_pem_read_buffer:header <- [DW_OP_LLVM_entry_value 1] $r1
	@DEBUG_VALUE: mbedtls_pem_read_buffer:enc_alg <- 0
	@DEBUG_VALUE: mbedtls_pem_read_buffer:enc_alg <- 37
	.loc	2 294 16 is_stmt 1              @ ../../../ThirdParty/mbedTLS/library/pem.c:294:16
	adds	r7, #24
.Ltmp124:
	@DEBUG_VALUE: mbedtls_pem_read_buffer:s1 <- $r7
	.loc	2 295 20                        @ ../../../ThirdParty/mbedTLS/library/pem.c:295:20
	subs	r0, r3, r7
	.loc	2 295 30 is_stmt 0              @ ../../../ThirdParty/mbedTLS/library/pem.c:295:30
	cmp	r0, #16
	bge	.LBB1_55
	b	.LBB1_84
.Ltmp125:
.LBB1_55:
	@DEBUG_VALUE: mbedtls_pem_read_buffer:ctx <- [DW_OP_plus_uconst 20] [$sp+0]
	@DEBUG_VALUE: mbedtls_pem_read_buffer:s1 <- $r7
	@DEBUG_VALUE: mbedtls_pem_read_buffer:pwd <- [DW_OP_plus_uconst 64] [$sp+0]
	@DEBUG_VALUE: mbedtls_pem_read_buffer:pwdlen <- [DW_OP_plus_uconst 68] [$sp+0]
	@DEBUG_VALUE: mbedtls_pem_read_buffer:use_len <- [DW_OP_plus_uconst 72] [$sp+0]
	@DEBUG_VALUE: mbedtls_pem_read_buffer:enc_alg <- 37
	@DEBUG_VALUE: mbedtls_pem_read_buffer:enc <- 1
	@DEBUG_VALUE: mbedtls_pem_read_buffer:footer <- [DW_OP_LLVM_entry_value 1] $r2
	@DEBUG_VALUE: mbedtls_pem_read_buffer:data <- [DW_OP_LLVM_entry_value 1] $r3
	@DEBUG_VALUE: mbedtls_pem_read_buffer:header <- [DW_OP_LLVM_entry_value 1] $r1
	.loc	2 0 30                          @ ../../../ThirdParty/mbedTLS/library/pem.c:0:30
	add	r1, sp, #24
	movs	r2, #8
	.loc	2 295 33                        @ ../../../ThirdParty/mbedTLS/library/pem.c:295:33
	mov	r0, r7
	bl	pem_get_iv
.Ltmp126:
	.loc	2 295 17                        @ ../../../ThirdParty/mbedTLS/library/pem.c:295:17
	cmp	r0, #0
	bne	.LBB1_84
.Ltmp127:
@ %bb.56:
	@DEBUG_VALUE: mbedtls_pem_read_buffer:ctx <- [DW_OP_plus_uconst 20] [$sp+0]
	@DEBUG_VALUE: mbedtls_pem_read_buffer:s1 <- $r7
	@DEBUG_VALUE: mbedtls_pem_read_buffer:pwd <- [DW_OP_plus_uconst 64] [$sp+0]
	@DEBUG_VALUE: mbedtls_pem_read_buffer:pwdlen <- [DW_OP_plus_uconst 68] [$sp+0]
	@DEBUG_VALUE: mbedtls_pem_read_buffer:use_len <- [DW_OP_plus_uconst 72] [$sp+0]
	@DEBUG_VALUE: mbedtls_pem_read_buffer:enc_alg <- 37
	@DEBUG_VALUE: mbedtls_pem_read_buffer:enc <- 1
	@DEBUG_VALUE: mbedtls_pem_read_buffer:footer <- [DW_OP_LLVM_entry_value 1] $r2
	@DEBUG_VALUE: mbedtls_pem_read_buffer:data <- [DW_OP_LLVM_entry_value 1] $r3
	@DEBUG_VALUE: mbedtls_pem_read_buffer:header <- [DW_OP_LLVM_entry_value 1] $r1
	.loc	2 298 16 is_stmt 1              @ ../../../ThirdParty/mbedTLS/library/pem.c:298:16
	adds	r6, r5, #5
.Ltmp128:
	@DEBUG_VALUE: mbedtls_pem_read_buffer:s1 <- $r6
	.loc	2 0 16 is_stmt 0                @ ../../../ThirdParty/mbedTLS/library/pem.c:0:16
	movs	r4, #37
.Ltmp129:
.LBB1_57:
	@DEBUG_VALUE: mbedtls_pem_read_buffer:ctx <- [DW_OP_plus_uconst 20] [$sp+0]
	@DEBUG_VALUE: mbedtls_pem_read_buffer:s1 <- $r6
	@DEBUG_VALUE: mbedtls_pem_read_buffer:pwd <- [DW_OP_plus_uconst 64] [$sp+0]
	@DEBUG_VALUE: mbedtls_pem_read_buffer:pwdlen <- [DW_OP_plus_uconst 68] [$sp+0]
	@DEBUG_VALUE: mbedtls_pem_read_buffer:use_len <- [DW_OP_plus_uconst 72] [$sp+0]
	@DEBUG_VALUE: mbedtls_pem_read_buffer:enc <- 1
	@DEBUG_VALUE: mbedtls_pem_read_buffer:footer <- [DW_OP_LLVM_entry_value 1] $r2
	@DEBUG_VALUE: mbedtls_pem_read_buffer:data <- [DW_OP_LLVM_entry_value 1] $r3
	@DEBUG_VALUE: mbedtls_pem_read_buffer:header <- [DW_OP_LLVM_entry_value 1] $r1
	ldr	r3, [sp, #16]                   @ 4-byte Reload
	b	.LBB1_42
.Ltmp130:
.LBB1_58:
	@DEBUG_VALUE: mbedtls_pem_read_buffer:ctx <- [DW_OP_plus_uconst 20] [$sp+0]
	@DEBUG_VALUE: mbedtls_pem_read_buffer:s1 <- $r6
	@DEBUG_VALUE: mbedtls_pem_read_buffer:enc_alg <- $r4
	@DEBUG_VALUE: mbedtls_pem_read_buffer:pwd <- [DW_OP_plus_uconst 64] [$sp+0]
	@DEBUG_VALUE: mbedtls_pem_read_buffer:pwdlen <- [DW_OP_plus_uconst 68] [$sp+0]
	@DEBUG_VALUE: mbedtls_pem_read_buffer:use_len <- [DW_OP_plus_uconst 72] [$sp+0]
	@DEBUG_VALUE: mbedtls_pem_read_buffer:enc <- 1
	@DEBUG_VALUE: mbedtls_pem_read_buffer:footer <- [DW_OP_LLVM_entry_value 1] $r2
	@DEBUG_VALUE: mbedtls_pem_read_buffer:data <- [DW_OP_LLVM_entry_value 1] $r3
	@DEBUG_VALUE: mbedtls_pem_read_buffer:header <- [DW_OP_LLVM_entry_value 1] $r1
	ldr	r0, __arm_cp.1_4
	subs	r0, #128
.Ltmp131:
	.loc	2 315 17 is_stmt 1              @ ../../../ThirdParty/mbedTLS/library/pem.c:315:17
	cmp	r5, #22
	bge	.LBB1_61
.Ltmp132:
.LBB1_59:
	@DEBUG_VALUE: mbedtls_pem_read_buffer:pwd <- [DW_OP_plus_uconst 64] [$sp+0]
	@DEBUG_VALUE: mbedtls_pem_read_buffer:pwdlen <- [DW_OP_plus_uconst 68] [$sp+0]
	@DEBUG_VALUE: mbedtls_pem_read_buffer:use_len <- [DW_OP_plus_uconst 72] [$sp+0]
	.loc	2 423 1                         @ ../../../ThirdParty/mbedTLS/library/pem.c:423:1
	add	sp, #44
.Ltmp133:
	pop	{r4, r5, r6, r7, pc}
.LBB1_60:
.Ltmp134:
	@DEBUG_VALUE: mbedtls_pem_read_buffer:ctx <- [DW_OP_plus_uconst 20] [$sp+0]
	@DEBUG_VALUE: mbedtls_pem_read_buffer:ret <- $r0
	@DEBUG_VALUE: mbedtls_pem_read_buffer:len <- [DW_OP_plus_uconst 40, DW_OP_deref] $sp
	@DEBUG_VALUE: mbedtls_pem_read_buffer:enc_alg <- [DW_OP_plus_uconst 12] [$sp+0]
	@DEBUG_VALUE: mbedtls_pem_read_buffer:pwd <- [DW_OP_plus_uconst 64] [$sp+0]
	@DEBUG_VALUE: mbedtls_pem_read_buffer:pwdlen <- [DW_OP_plus_uconst 68] [$sp+0]
	@DEBUG_VALUE: mbedtls_pem_read_buffer:use_len <- [DW_OP_plus_uconst 72] [$sp+0]
	@DEBUG_VALUE: mbedtls_pem_read_buffer:footer <- [DW_OP_LLVM_entry_value 1] $r2
	@DEBUG_VALUE: mbedtls_pem_read_buffer:data <- [DW_OP_LLVM_entry_value 1] $r3
	@DEBUG_VALUE: mbedtls_pem_read_buffer:header <- [DW_OP_LLVM_entry_value 1] $r1
	.loc	2 370 44                        @ ../../../ThirdParty/mbedTLS/library/pem.c:370:44
	ldr	r1, [sp, #40]
.Ltmp135:
	@DEBUG_VALUE: mbedtls_pem_read_buffer:len <- $r1
	.loc	2 370 13 is_stmt 0              @ ../../../ThirdParty/mbedTLS/library/pem.c:370:13
	mov	r0, r7
.Ltmp136:
	bl	mbedtls_platform_zeroize
.Ltmp137:
	.loc	2 371 13 is_stmt 1              @ ../../../ThirdParty/mbedTLS/library/pem.c:371:13
	mov	r0, r7
	bl	free
	ldr	r0, __arm_cp.1_11
.Ltmp138:
	.loc	2 0 0 is_stmt 0                 @ ../../../ThirdParty/mbedTLS/library/pem.c:0:0
	adds	r0, #128
	.loc	2 423 1 is_stmt 1               @ ../../../ThirdParty/mbedTLS/library/pem.c:423:1
	add	sp, #44
.Ltmp139:
	pop	{r4, r5, r6, r7, pc}
.Ltmp140:
.LBB1_61:
	@DEBUG_VALUE: mbedtls_pem_read_buffer:ctx <- [DW_OP_plus_uconst 20] [$sp+0]
	@DEBUG_VALUE: mbedtls_pem_read_buffer:s1 <- $r6
	@DEBUG_VALUE: mbedtls_pem_read_buffer:enc_alg <- $r4
	@DEBUG_VALUE: mbedtls_pem_read_buffer:pwd <- [DW_OP_plus_uconst 64] [$sp+0]
	@DEBUG_VALUE: mbedtls_pem_read_buffer:pwdlen <- [DW_OP_plus_uconst 68] [$sp+0]
	@DEBUG_VALUE: mbedtls_pem_read_buffer:use_len <- [DW_OP_plus_uconst 72] [$sp+0]
	@DEBUG_VALUE: mbedtls_pem_read_buffer:enc <- 1
	@DEBUG_VALUE: mbedtls_pem_read_buffer:footer <- [DW_OP_LLVM_entry_value 1] $r2
	@DEBUG_VALUE: mbedtls_pem_read_buffer:data <- [DW_OP_LLVM_entry_value 1] $r3
	@DEBUG_VALUE: mbedtls_pem_read_buffer:header <- [DW_OP_LLVM_entry_value 1] $r1
	.loc	2 0 1 is_stmt 0                 @ ../../../ThirdParty/mbedTLS/library/pem.c:0:1
	mov	r4, r0
.Ltmp141:
	.loc	2 317 22 is_stmt 1              @ ../../../ThirdParty/mbedTLS/library/pem.c:317:22
	adr	r1, .LCPI1_8
	movs	r2, #22
	mov	r0, r6
	bl	memcmp
.Ltmp142:
	.loc	2 317 22 is_stmt 0              @ ../../../ThirdParty/mbedTLS/library/pem.c:317:22
	cmp	r0, #0
	beq	.LBB1_80
.Ltmp143:
@ %bb.62:
	@DEBUG_VALUE: mbedtls_pem_read_buffer:ctx <- [DW_OP_plus_uconst 20] [$sp+0]
	@DEBUG_VALUE: mbedtls_pem_read_buffer:s1 <- $r6
	@DEBUG_VALUE: mbedtls_pem_read_buffer:pwd <- [DW_OP_plus_uconst 64] [$sp+0]
	@DEBUG_VALUE: mbedtls_pem_read_buffer:pwdlen <- [DW_OP_plus_uconst 68] [$sp+0]
	@DEBUG_VALUE: mbedtls_pem_read_buffer:use_len <- [DW_OP_plus_uconst 72] [$sp+0]
	@DEBUG_VALUE: mbedtls_pem_read_buffer:enc <- 1
	@DEBUG_VALUE: mbedtls_pem_read_buffer:footer <- [DW_OP_LLVM_entry_value 1] $r2
	@DEBUG_VALUE: mbedtls_pem_read_buffer:data <- [DW_OP_LLVM_entry_value 1] $r3
	@DEBUG_VALUE: mbedtls_pem_read_buffer:header <- [DW_OP_LLVM_entry_value 1] $r1
	.loc	2 319 22 is_stmt 1              @ ../../../ThirdParty/mbedTLS/library/pem.c:319:22
	adr	r1, .LCPI1_9
	movs	r2, #22
	mov	r0, r6
	bl	memcmp
.Ltmp144:
	.loc	2 319 22 is_stmt 0              @ ../../../ThirdParty/mbedTLS/library/pem.c:319:22
	cmp	r0, #0
	beq	.LBB1_81
.Ltmp145:
@ %bb.63:
	@DEBUG_VALUE: mbedtls_pem_read_buffer:ctx <- [DW_OP_plus_uconst 20] [$sp+0]
	@DEBUG_VALUE: mbedtls_pem_read_buffer:s1 <- $r6
	@DEBUG_VALUE: mbedtls_pem_read_buffer:pwd <- [DW_OP_plus_uconst 64] [$sp+0]
	@DEBUG_VALUE: mbedtls_pem_read_buffer:pwdlen <- [DW_OP_plus_uconst 68] [$sp+0]
	@DEBUG_VALUE: mbedtls_pem_read_buffer:use_len <- [DW_OP_plus_uconst 72] [$sp+0]
	@DEBUG_VALUE: mbedtls_pem_read_buffer:enc <- 1
	@DEBUG_VALUE: mbedtls_pem_read_buffer:footer <- [DW_OP_LLVM_entry_value 1] $r2
	@DEBUG_VALUE: mbedtls_pem_read_buffer:data <- [DW_OP_LLVM_entry_value 1] $r3
	@DEBUG_VALUE: mbedtls_pem_read_buffer:header <- [DW_OP_LLVM_entry_value 1] $r1
	.loc	2 321 22 is_stmt 1              @ ../../../ThirdParty/mbedTLS/library/pem.c:321:22
	ldr	r1, __arm_cp.1_10
	movs	r2, #22
	mov	r0, r6
	bl	memcmp
.Ltmp146:
	.loc	2 321 22 is_stmt 0              @ ../../../ThirdParty/mbedTLS/library/pem.c:321:22
	cmp	r0, #0
	mov	r0, r4
	bne	.LBB1_59
.Ltmp147:
@ %bb.64:
	@DEBUG_VALUE: mbedtls_pem_read_buffer:ctx <- [DW_OP_plus_uconst 20] [$sp+0]
	@DEBUG_VALUE: mbedtls_pem_read_buffer:s1 <- $r6
	@DEBUG_VALUE: mbedtls_pem_read_buffer:pwd <- [DW_OP_plus_uconst 64] [$sp+0]
	@DEBUG_VALUE: mbedtls_pem_read_buffer:pwdlen <- [DW_OP_plus_uconst 68] [$sp+0]
	@DEBUG_VALUE: mbedtls_pem_read_buffer:use_len <- [DW_OP_plus_uconst 72] [$sp+0]
	@DEBUG_VALUE: mbedtls_pem_read_buffer:enc <- 1
	@DEBUG_VALUE: mbedtls_pem_read_buffer:footer <- [DW_OP_LLVM_entry_value 1] $r2
	@DEBUG_VALUE: mbedtls_pem_read_buffer:data <- [DW_OP_LLVM_entry_value 1] $r3
	@DEBUG_VALUE: mbedtls_pem_read_buffer:header <- [DW_OP_LLVM_entry_value 1] $r1
	.loc	2 0 22                          @ ../../../ThirdParty/mbedTLS/library/pem.c:0:22
	movs	r5, #7
	b	.LBB1_82
.Ltmp148:
.LBB1_65:
	@DEBUG_VALUE: mbedtls_pem_read_buffer:ctx <- [DW_OP_plus_uconst 20] [$sp+0]
	@DEBUG_VALUE: mbedtls_pem_read_buffer:len <- [DW_OP_plus_uconst 40, DW_OP_deref] $sp
	@DEBUG_VALUE: mbedtls_pem_read_buffer:enc_alg <- [DW_OP_plus_uconst 12] [$sp+0]
	@DEBUG_VALUE: mbedtls_pem_read_buffer:pwd <- [DW_OP_plus_uconst 64] [$sp+0]
	@DEBUG_VALUE: mbedtls_pem_read_buffer:pwdlen <- [DW_OP_plus_uconst 68] [$sp+0]
	@DEBUG_VALUE: mbedtls_pem_read_buffer:use_len <- [DW_OP_plus_uconst 72] [$sp+0]
	@DEBUG_VALUE: mbedtls_pem_read_buffer:ret <- 0
	@DEBUG_VALUE: mbedtls_pem_read_buffer:footer <- [DW_OP_LLVM_entry_value 1] $r2
	@DEBUG_VALUE: mbedtls_pem_read_buffer:data <- [DW_OP_LLVM_entry_value 1] $r3
	@DEBUG_VALUE: mbedtls_pem_read_buffer:header <- [DW_OP_LLVM_entry_value 1] $r1
	.loc	2 381 49 is_stmt 1              @ ../../../ThirdParty/mbedTLS/library/pem.c:381:49
	ldr	r2, [sp, #40]
.Ltmp149:
	@DEBUG_VALUE: mbedtls_pem_read_buffer:len <- $r2
	.loc	2 381 19 is_stmt 0              @ ../../../ThirdParty/mbedTLS/library/pem.c:381:19
	str	r4, [sp]
	add	r0, sp, #24
	mov	r1, r7
	mov	r3, r5
	bl	pem_des_decrypt
.Ltmp150:
	@DEBUG_VALUE: mbedtls_pem_read_buffer:ret <- $r0
.LBB1_66:
	@DEBUG_VALUE: mbedtls_pem_read_buffer:ctx <- [DW_OP_plus_uconst 20] [$sp+0]
	@DEBUG_VALUE: mbedtls_pem_read_buffer:enc_alg <- [DW_OP_plus_uconst 12] [$sp+0]
	@DEBUG_VALUE: mbedtls_pem_read_buffer:pwd <- [DW_OP_plus_uconst 64] [$sp+0]
	@DEBUG_VALUE: mbedtls_pem_read_buffer:pwdlen <- [DW_OP_plus_uconst 68] [$sp+0]
	@DEBUG_VALUE: mbedtls_pem_read_buffer:use_len <- [DW_OP_plus_uconst 72] [$sp+0]
	@DEBUG_VALUE: mbedtls_pem_read_buffer:footer <- [DW_OP_LLVM_entry_value 1] $r2
	@DEBUG_VALUE: mbedtls_pem_read_buffer:data <- [DW_OP_LLVM_entry_value 1] $r3
	@DEBUG_VALUE: mbedtls_pem_read_buffer:header <- [DW_OP_LLVM_entry_value 1] $r1
	@DEBUG_VALUE: mbedtls_pem_read_buffer:ret <- $r0
	.loc	2 385 13 is_stmt 1              @ ../../../ThirdParty/mbedTLS/library/pem.c:385:13
	cmp	r6, #7
	beq	.LBB1_70
.Ltmp151:
@ %bb.67:
	@DEBUG_VALUE: mbedtls_pem_read_buffer:ctx <- [DW_OP_plus_uconst 20] [$sp+0]
	@DEBUG_VALUE: mbedtls_pem_read_buffer:ret <- $r0
	@DEBUG_VALUE: mbedtls_pem_read_buffer:enc_alg <- [DW_OP_plus_uconst 12] [$sp+0]
	@DEBUG_VALUE: mbedtls_pem_read_buffer:pwd <- [DW_OP_plus_uconst 64] [$sp+0]
	@DEBUG_VALUE: mbedtls_pem_read_buffer:pwdlen <- [DW_OP_plus_uconst 68] [$sp+0]
	@DEBUG_VALUE: mbedtls_pem_read_buffer:use_len <- [DW_OP_plus_uconst 72] [$sp+0]
	@DEBUG_VALUE: mbedtls_pem_read_buffer:footer <- [DW_OP_LLVM_entry_value 1] $r2
	@DEBUG_VALUE: mbedtls_pem_read_buffer:data <- [DW_OP_LLVM_entry_value 1] $r3
	@DEBUG_VALUE: mbedtls_pem_read_buffer:header <- [DW_OP_LLVM_entry_value 1] $r1
	cmp	r6, #6
	beq	.LBB1_71
.Ltmp152:
@ %bb.68:
	@DEBUG_VALUE: mbedtls_pem_read_buffer:ctx <- [DW_OP_plus_uconst 20] [$sp+0]
	@DEBUG_VALUE: mbedtls_pem_read_buffer:ret <- $r0
	@DEBUG_VALUE: mbedtls_pem_read_buffer:enc_alg <- [DW_OP_plus_uconst 12] [$sp+0]
	@DEBUG_VALUE: mbedtls_pem_read_buffer:pwd <- [DW_OP_plus_uconst 64] [$sp+0]
	@DEBUG_VALUE: mbedtls_pem_read_buffer:pwdlen <- [DW_OP_plus_uconst 68] [$sp+0]
	@DEBUG_VALUE: mbedtls_pem_read_buffer:use_len <- [DW_OP_plus_uconst 72] [$sp+0]
	@DEBUG_VALUE: mbedtls_pem_read_buffer:footer <- [DW_OP_LLVM_entry_value 1] $r2
	@DEBUG_VALUE: mbedtls_pem_read_buffer:data <- [DW_OP_LLVM_entry_value 1] $r3
	@DEBUG_VALUE: mbedtls_pem_read_buffer:header <- [DW_OP_LLVM_entry_value 1] $r1
	cmp	r6, #5
	bne	.LBB1_73
.Ltmp153:
@ %bb.69:
	@DEBUG_VALUE: mbedtls_pem_read_buffer:ctx <- [DW_OP_plus_uconst 20] [$sp+0]
	@DEBUG_VALUE: mbedtls_pem_read_buffer:ret <- $r0
	@DEBUG_VALUE: mbedtls_pem_read_buffer:enc_alg <- [DW_OP_plus_uconst 12] [$sp+0]
	@DEBUG_VALUE: mbedtls_pem_read_buffer:pwd <- [DW_OP_plus_uconst 64] [$sp+0]
	@DEBUG_VALUE: mbedtls_pem_read_buffer:pwdlen <- [DW_OP_plus_uconst 68] [$sp+0]
	@DEBUG_VALUE: mbedtls_pem_read_buffer:use_len <- [DW_OP_plus_uconst 72] [$sp+0]
	@DEBUG_VALUE: mbedtls_pem_read_buffer:footer <- [DW_OP_LLVM_entry_value 1] $r2
	@DEBUG_VALUE: mbedtls_pem_read_buffer:data <- [DW_OP_LLVM_entry_value 1] $r3
	@DEBUG_VALUE: mbedtls_pem_read_buffer:header <- [DW_OP_LLVM_entry_value 1] $r1
	.loc	2 386 53                        @ ../../../ThirdParty/mbedTLS/library/pem.c:386:53
	ldr	r3, [sp, #40]
.Ltmp154:
	@DEBUG_VALUE: mbedtls_pem_read_buffer:len <- $r3
	.loc	2 386 19 is_stmt 0              @ ../../../ThirdParty/mbedTLS/library/pem.c:386:19
	str	r5, [sp]
	str	r4, [sp, #4]
	add	r0, sp, #24
.Ltmp155:
	.loc	2 0 19                          @ ../../../ThirdParty/mbedTLS/library/pem.c:0:19
	movs	r1, #16
	b	.LBB1_72
.Ltmp156:
.LBB1_70:
	@DEBUG_VALUE: mbedtls_pem_read_buffer:ctx <- [DW_OP_plus_uconst 20] [$sp+0]
	@DEBUG_VALUE: mbedtls_pem_read_buffer:ret <- $r0
	@DEBUG_VALUE: mbedtls_pem_read_buffer:enc_alg <- [DW_OP_plus_uconst 12] [$sp+0]
	@DEBUG_VALUE: mbedtls_pem_read_buffer:pwd <- [DW_OP_plus_uconst 64] [$sp+0]
	@DEBUG_VALUE: mbedtls_pem_read_buffer:pwdlen <- [DW_OP_plus_uconst 68] [$sp+0]
	@DEBUG_VALUE: mbedtls_pem_read_buffer:use_len <- [DW_OP_plus_uconst 72] [$sp+0]
	@DEBUG_VALUE: mbedtls_pem_read_buffer:footer <- [DW_OP_LLVM_entry_value 1] $r2
	@DEBUG_VALUE: mbedtls_pem_read_buffer:data <- [DW_OP_LLVM_entry_value 1] $r3
	@DEBUG_VALUE: mbedtls_pem_read_buffer:header <- [DW_OP_LLVM_entry_value 1] $r1
	.loc	2 390 53 is_stmt 1              @ ../../../ThirdParty/mbedTLS/library/pem.c:390:53
	ldr	r3, [sp, #40]
.Ltmp157:
	@DEBUG_VALUE: mbedtls_pem_read_buffer:len <- $r3
	.loc	2 390 19 is_stmt 0              @ ../../../ThirdParty/mbedTLS/library/pem.c:390:19
	str	r5, [sp]
	str	r4, [sp, #4]
	add	r0, sp, #24
.Ltmp158:
	.loc	2 0 19                          @ ../../../ThirdParty/mbedTLS/library/pem.c:0:19
	movs	r1, #32
	b	.LBB1_72
.Ltmp159:
.LBB1_71:
	@DEBUG_VALUE: mbedtls_pem_read_buffer:ctx <- [DW_OP_plus_uconst 20] [$sp+0]
	@DEBUG_VALUE: mbedtls_pem_read_buffer:ret <- $r0
	@DEBUG_VALUE: mbedtls_pem_read_buffer:enc_alg <- [DW_OP_plus_uconst 12] [$sp+0]
	@DEBUG_VALUE: mbedtls_pem_read_buffer:pwd <- [DW_OP_plus_uconst 64] [$sp+0]
	@DEBUG_VALUE: mbedtls_pem_read_buffer:pwdlen <- [DW_OP_plus_uconst 68] [$sp+0]
	@DEBUG_VALUE: mbedtls_pem_read_buffer:use_len <- [DW_OP_plus_uconst 72] [$sp+0]
	@DEBUG_VALUE: mbedtls_pem_read_buffer:footer <- [DW_OP_LLVM_entry_value 1] $r2
	@DEBUG_VALUE: mbedtls_pem_read_buffer:data <- [DW_OP_LLVM_entry_value 1] $r3
	@DEBUG_VALUE: mbedtls_pem_read_buffer:header <- [DW_OP_LLVM_entry_value 1] $r1
	.loc	2 388 53 is_stmt 1              @ ../../../ThirdParty/mbedTLS/library/pem.c:388:53
	ldr	r3, [sp, #40]
.Ltmp160:
	@DEBUG_VALUE: mbedtls_pem_read_buffer:len <- $r3
	.loc	2 388 19 is_stmt 0              @ ../../../ThirdParty/mbedTLS/library/pem.c:388:19
	str	r5, [sp]
	str	r4, [sp, #4]
	add	r0, sp, #24
.Ltmp161:
	.loc	2 0 19                          @ ../../../ThirdParty/mbedTLS/library/pem.c:0:19
	movs	r1, #24
.Ltmp162:
.LBB1_72:
	@DEBUG_VALUE: mbedtls_pem_read_buffer:ctx <- [DW_OP_plus_uconst 20] [$sp+0]
	@DEBUG_VALUE: mbedtls_pem_read_buffer:len <- $r3
	@DEBUG_VALUE: mbedtls_pem_read_buffer:enc_alg <- [DW_OP_plus_uconst 12] [$sp+0]
	@DEBUG_VALUE: mbedtls_pem_read_buffer:pwd <- [DW_OP_plus_uconst 64] [$sp+0]
	@DEBUG_VALUE: mbedtls_pem_read_buffer:pwdlen <- [DW_OP_plus_uconst 68] [$sp+0]
	@DEBUG_VALUE: mbedtls_pem_read_buffer:use_len <- [DW_OP_plus_uconst 72] [$sp+0]
	@DEBUG_VALUE: mbedtls_pem_read_buffer:footer <- [DW_OP_LLVM_entry_value 1] $r2
	@DEBUG_VALUE: mbedtls_pem_read_buffer:data <- [DW_OP_LLVM_entry_value 1] $r3
	@DEBUG_VALUE: mbedtls_pem_read_buffer:header <- [DW_OP_LLVM_entry_value 1] $r1
	mov	r2, r7
	bl	pem_aes_decrypt
.Ltmp163:
	@DEBUG_VALUE: mbedtls_pem_read_buffer:ret <- $r0
.LBB1_73:
	@DEBUG_VALUE: mbedtls_pem_read_buffer:ctx <- [DW_OP_plus_uconst 20] [$sp+0]
	@DEBUG_VALUE: mbedtls_pem_read_buffer:ret <- $r0
	@DEBUG_VALUE: mbedtls_pem_read_buffer:enc_alg <- [DW_OP_plus_uconst 12] [$sp+0]
	@DEBUG_VALUE: mbedtls_pem_read_buffer:pwd <- [DW_OP_plus_uconst 64] [$sp+0]
	@DEBUG_VALUE: mbedtls_pem_read_buffer:pwdlen <- [DW_OP_plus_uconst 68] [$sp+0]
	@DEBUG_VALUE: mbedtls_pem_read_buffer:use_len <- [DW_OP_plus_uconst 72] [$sp+0]
	@DEBUG_VALUE: mbedtls_pem_read_buffer:footer <- [DW_OP_LLVM_entry_value 1] $r2
	@DEBUG_VALUE: mbedtls_pem_read_buffer:data <- [DW_OP_LLVM_entry_value 1] $r3
	@DEBUG_VALUE: mbedtls_pem_read_buffer:header <- [DW_OP_LLVM_entry_value 1] $r1
	@DEBUG_VALUE: mbedtls_pem_read_buffer:ret <- $r0
	.loc	2 393 13 is_stmt 1              @ ../../../ThirdParty/mbedTLS/library/pem.c:393:13
	cbz	r0, .LBB1_76
.Ltmp164:
@ %bb.74:
	@DEBUG_VALUE: mbedtls_pem_read_buffer:ctx <- [DW_OP_plus_uconst 20] [$sp+0]
	@DEBUG_VALUE: mbedtls_pem_read_buffer:ret <- $r0
	@DEBUG_VALUE: mbedtls_pem_read_buffer:enc_alg <- [DW_OP_plus_uconst 12] [$sp+0]
	@DEBUG_VALUE: mbedtls_pem_read_buffer:pwd <- [DW_OP_plus_uconst 64] [$sp+0]
	@DEBUG_VALUE: mbedtls_pem_read_buffer:pwdlen <- [DW_OP_plus_uconst 68] [$sp+0]
	@DEBUG_VALUE: mbedtls_pem_read_buffer:use_len <- [DW_OP_plus_uconst 72] [$sp+0]
	@DEBUG_VALUE: mbedtls_pem_read_buffer:footer <- [DW_OP_LLVM_entry_value 1] $r2
	@DEBUG_VALUE: mbedtls_pem_read_buffer:data <- [DW_OP_LLVM_entry_value 1] $r3
	@DEBUG_VALUE: mbedtls_pem_read_buffer:header <- [DW_OP_LLVM_entry_value 1] $r1
	.loc	2 0 13 is_stmt 0                @ ../../../ThirdParty/mbedTLS/library/pem.c:0:13
	mov	r4, r0
.Ltmp165:
	@DEBUG_VALUE: mbedtls_pem_read_buffer:ret <- $r4
	.loc	2 395 13 is_stmt 1              @ ../../../ThirdParty/mbedTLS/library/pem.c:395:13
	mov	r0, r7
	bl	free
.Ltmp166:
.LBB1_75:
	@DEBUG_VALUE: mbedtls_pem_read_buffer:ctx <- [DW_OP_plus_uconst 20] [$sp+0]
	@DEBUG_VALUE: mbedtls_pem_read_buffer:pwd <- [DW_OP_plus_uconst 64] [$sp+0]
	@DEBUG_VALUE: mbedtls_pem_read_buffer:pwdlen <- [DW_OP_plus_uconst 68] [$sp+0]
	@DEBUG_VALUE: mbedtls_pem_read_buffer:use_len <- [DW_OP_plus_uconst 72] [$sp+0]
	@DEBUG_VALUE: mbedtls_pem_read_buffer:footer <- [DW_OP_LLVM_entry_value 1] $r2
	@DEBUG_VALUE: mbedtls_pem_read_buffer:data <- [DW_OP_LLVM_entry_value 1] $r3
	@DEBUG_VALUE: mbedtls_pem_read_buffer:header <- [DW_OP_LLVM_entry_value 1] $r1
	.loc	2 0 13 is_stmt 0                @ ../../../ThirdParty/mbedTLS/library/pem.c:0:13
	mov	r0, r4
	.loc	2 423 1 is_stmt 1               @ ../../../ThirdParty/mbedTLS/library/pem.c:423:1
	add	sp, #44
.Ltmp167:
	pop	{r4, r5, r6, r7, pc}
.Ltmp168:
.LBB1_76:
	@DEBUG_VALUE: mbedtls_pem_read_buffer:ctx <- [DW_OP_plus_uconst 20] [$sp+0]
	@DEBUG_VALUE: mbedtls_pem_read_buffer:ret <- $r0
	@DEBUG_VALUE: mbedtls_pem_read_buffer:enc_alg <- [DW_OP_plus_uconst 12] [$sp+0]
	@DEBUG_VALUE: mbedtls_pem_read_buffer:pwd <- [DW_OP_plus_uconst 64] [$sp+0]
	@DEBUG_VALUE: mbedtls_pem_read_buffer:pwdlen <- [DW_OP_plus_uconst 68] [$sp+0]
	@DEBUG_VALUE: mbedtls_pem_read_buffer:use_len <- [DW_OP_plus_uconst 72] [$sp+0]
	@DEBUG_VALUE: mbedtls_pem_read_buffer:footer <- [DW_OP_LLVM_entry_value 1] $r2
	@DEBUG_VALUE: mbedtls_pem_read_buffer:data <- [DW_OP_LLVM_entry_value 1] $r3
	@DEBUG_VALUE: mbedtls_pem_read_buffer:header <- [DW_OP_LLVM_entry_value 1] $r1
	.loc	2 405 13                        @ ../../../ThirdParty/mbedTLS/library/pem.c:405:13
	ldr	r1, [sp, #40]
.Ltmp169:
	@DEBUG_VALUE: mbedtls_pem_read_buffer:len <- $r1
	.loc	2 405 22 is_stmt 0              @ ../../../ThirdParty/mbedTLS/library/pem.c:405:22
	cmp	r1, #3
	blo	.LBB1_79
.Ltmp170:
@ %bb.77:
	@DEBUG_VALUE: mbedtls_pem_read_buffer:ctx <- [DW_OP_plus_uconst 20] [$sp+0]
	@DEBUG_VALUE: mbedtls_pem_read_buffer:len <- $r1
	@DEBUG_VALUE: mbedtls_pem_read_buffer:ret <- $r0
	@DEBUG_VALUE: mbedtls_pem_read_buffer:enc_alg <- [DW_OP_plus_uconst 12] [$sp+0]
	@DEBUG_VALUE: mbedtls_pem_read_buffer:pwd <- [DW_OP_plus_uconst 64] [$sp+0]
	@DEBUG_VALUE: mbedtls_pem_read_buffer:pwdlen <- [DW_OP_plus_uconst 68] [$sp+0]
	@DEBUG_VALUE: mbedtls_pem_read_buffer:use_len <- [DW_OP_plus_uconst 72] [$sp+0]
	@DEBUG_VALUE: mbedtls_pem_read_buffer:footer <- [DW_OP_LLVM_entry_value 1] $r2
	@DEBUG_VALUE: mbedtls_pem_read_buffer:data <- [DW_OP_LLVM_entry_value 1] $r3
	@DEBUG_VALUE: mbedtls_pem_read_buffer:header <- [DW_OP_LLVM_entry_value 1] $r1
	.loc	2 405 25                        @ ../../../ThirdParty/mbedTLS/library/pem.c:405:25
	ldrb	r0, [r7]
.Ltmp171:
	.loc	2 405 40                        @ ../../../ThirdParty/mbedTLS/library/pem.c:405:40
	cmp	r0, #48
	bne	.LBB1_79
.Ltmp172:
@ %bb.78:
	@DEBUG_VALUE: mbedtls_pem_read_buffer:ctx <- [DW_OP_plus_uconst 20] [$sp+0]
	@DEBUG_VALUE: mbedtls_pem_read_buffer:len <- $r1
	@DEBUG_VALUE: mbedtls_pem_read_buffer:enc_alg <- [DW_OP_plus_uconst 12] [$sp+0]
	@DEBUG_VALUE: mbedtls_pem_read_buffer:pwd <- [DW_OP_plus_uconst 64] [$sp+0]
	@DEBUG_VALUE: mbedtls_pem_read_buffer:pwdlen <- [DW_OP_plus_uconst 68] [$sp+0]
	@DEBUG_VALUE: mbedtls_pem_read_buffer:use_len <- [DW_OP_plus_uconst 72] [$sp+0]
	@DEBUG_VALUE: mbedtls_pem_read_buffer:footer <- [DW_OP_LLVM_entry_value 1] $r2
	@DEBUG_VALUE: mbedtls_pem_read_buffer:data <- [DW_OP_LLVM_entry_value 1] $r3
	@DEBUG_VALUE: mbedtls_pem_read_buffer:header <- [DW_OP_LLVM_entry_value 1] $r1
	.loc	2 405 43                        @ ../../../ThirdParty/mbedTLS/library/pem.c:405:43
	ldrb	r0, [r7, #1]
	.loc	2 405 50                        @ ../../../ThirdParty/mbedTLS/library/pem.c:405:50
	lsrs	r0, r0, #2
.Ltmp173:
	.loc	2 405 13                        @ ../../../ThirdParty/mbedTLS/library/pem.c:405:13
	cmp	r0, #33
	bhs	.LBB1_79
	b	.LBB1_40
.Ltmp174:
.LBB1_79:
	@DEBUG_VALUE: mbedtls_pem_read_buffer:ctx <- [DW_OP_plus_uconst 20] [$sp+0]
	@DEBUG_VALUE: mbedtls_pem_read_buffer:len <- $r1
	@DEBUG_VALUE: mbedtls_pem_read_buffer:enc_alg <- [DW_OP_plus_uconst 12] [$sp+0]
	@DEBUG_VALUE: mbedtls_pem_read_buffer:pwd <- [DW_OP_plus_uconst 64] [$sp+0]
	@DEBUG_VALUE: mbedtls_pem_read_buffer:pwdlen <- [DW_OP_plus_uconst 68] [$sp+0]
	@DEBUG_VALUE: mbedtls_pem_read_buffer:use_len <- [DW_OP_plus_uconst 72] [$sp+0]
	@DEBUG_VALUE: mbedtls_pem_read_buffer:footer <- [DW_OP_LLVM_entry_value 1] $r2
	@DEBUG_VALUE: mbedtls_pem_read_buffer:data <- [DW_OP_LLVM_entry_value 1] $r3
	@DEBUG_VALUE: mbedtls_pem_read_buffer:header <- [DW_OP_LLVM_entry_value 1] $r1
	@DEBUG_VALUE: mbedtls_pem_read_buffer:len <- $r1
	.loc	2 407 13 is_stmt 1              @ ../../../ThirdParty/mbedTLS/library/pem.c:407:13
	mov	r0, r7
	bl	mbedtls_platform_zeroize
.Ltmp175:
	.loc	2 408 13                        @ ../../../ThirdParty/mbedTLS/library/pem.c:408:13
	mov	r0, r7
	bl	free
	ldr	r0, __arm_cp.1_11
.Ltmp176:
	.loc	2 423 1                         @ ../../../ThirdParty/mbedTLS/library/pem.c:423:1
	add	sp, #44
.Ltmp177:
	pop	{r4, r5, r6, r7, pc}
.Ltmp178:
.LBB1_80:
	@DEBUG_VALUE: mbedtls_pem_read_buffer:ctx <- [DW_OP_plus_uconst 20] [$sp+0]
	@DEBUG_VALUE: mbedtls_pem_read_buffer:s1 <- $r6
	@DEBUG_VALUE: mbedtls_pem_read_buffer:pwd <- [DW_OP_plus_uconst 64] [$sp+0]
	@DEBUG_VALUE: mbedtls_pem_read_buffer:pwdlen <- [DW_OP_plus_uconst 68] [$sp+0]
	@DEBUG_VALUE: mbedtls_pem_read_buffer:use_len <- [DW_OP_plus_uconst 72] [$sp+0]
	@DEBUG_VALUE: mbedtls_pem_read_buffer:enc <- 1
	@DEBUG_VALUE: mbedtls_pem_read_buffer:footer <- [DW_OP_LLVM_entry_value 1] $r2
	@DEBUG_VALUE: mbedtls_pem_read_buffer:data <- [DW_OP_LLVM_entry_value 1] $r3
	@DEBUG_VALUE: mbedtls_pem_read_buffer:header <- [DW_OP_LLVM_entry_value 1] $r1
	.loc	2 0 1 is_stmt 0                 @ ../../../ThirdParty/mbedTLS/library/pem.c:0:1
	movs	r5, #5
	b	.LBB1_82
.Ltmp179:
.LBB1_81:
	@DEBUG_VALUE: mbedtls_pem_read_buffer:ctx <- [DW_OP_plus_uconst 20] [$sp+0]
	@DEBUG_VALUE: mbedtls_pem_read_buffer:s1 <- $r6
	@DEBUG_VALUE: mbedtls_pem_read_buffer:pwd <- [DW_OP_plus_uconst 64] [$sp+0]
	@DEBUG_VALUE: mbedtls_pem_read_buffer:pwdlen <- [DW_OP_plus_uconst 68] [$sp+0]
	@DEBUG_VALUE: mbedtls_pem_read_buffer:use_len <- [DW_OP_plus_uconst 72] [$sp+0]
	@DEBUG_VALUE: mbedtls_pem_read_buffer:enc <- 1
	@DEBUG_VALUE: mbedtls_pem_read_buffer:footer <- [DW_OP_LLVM_entry_value 1] $r2
	@DEBUG_VALUE: mbedtls_pem_read_buffer:data <- [DW_OP_LLVM_entry_value 1] $r3
	@DEBUG_VALUE: mbedtls_pem_read_buffer:header <- [DW_OP_LLVM_entry_value 1] $r1
	movs	r5, #6
.Ltmp180:
.LBB1_82:
	@DEBUG_VALUE: mbedtls_pem_read_buffer:ctx <- [DW_OP_plus_uconst 20] [$sp+0]
	@DEBUG_VALUE: mbedtls_pem_read_buffer:s1 <- $r6
	@DEBUG_VALUE: mbedtls_pem_read_buffer:pwd <- [DW_OP_plus_uconst 64] [$sp+0]
	@DEBUG_VALUE: mbedtls_pem_read_buffer:pwdlen <- [DW_OP_plus_uconst 68] [$sp+0]
	@DEBUG_VALUE: mbedtls_pem_read_buffer:use_len <- [DW_OP_plus_uconst 72] [$sp+0]
	@DEBUG_VALUE: mbedtls_pem_read_buffer:enc <- 1
	@DEBUG_VALUE: mbedtls_pem_read_buffer:footer <- [DW_OP_LLVM_entry_value 1] $r2
	@DEBUG_VALUE: mbedtls_pem_read_buffer:data <- [DW_OP_LLVM_entry_value 1] $r3
	@DEBUG_VALUE: mbedtls_pem_read_buffer:header <- [DW_OP_LLVM_entry_value 1] $r1
	@DEBUG_VALUE: mbedtls_pem_read_buffer:enc_alg <- $r5
	.loc	2 326 16 is_stmt 1              @ ../../../ThirdParty/mbedTLS/library/pem.c:326:16
	mov	r0, r6
	adds	r0, #22
.Ltmp181:
	@DEBUG_VALUE: mbedtls_pem_read_buffer:s1 <- $r0
	.loc	2 327 20                        @ ../../../ThirdParty/mbedTLS/library/pem.c:327:20
	ldr	r1, [sp, #16]                   @ 4-byte Reload
	subs	r1, r1, r0
	.loc	2 327 30 is_stmt 0              @ ../../../ThirdParty/mbedTLS/library/pem.c:327:30
	cmp	r1, #32
	blt	.LBB1_84
.Ltmp182:
@ %bb.83:
	@DEBUG_VALUE: mbedtls_pem_read_buffer:ctx <- [DW_OP_plus_uconst 20] [$sp+0]
	@DEBUG_VALUE: mbedtls_pem_read_buffer:enc_alg <- $r5
	@DEBUG_VALUE: mbedtls_pem_read_buffer:s1 <- $r0
	@DEBUG_VALUE: mbedtls_pem_read_buffer:pwd <- [DW_OP_plus_uconst 64] [$sp+0]
	@DEBUG_VALUE: mbedtls_pem_read_buffer:pwdlen <- [DW_OP_plus_uconst 68] [$sp+0]
	@DEBUG_VALUE: mbedtls_pem_read_buffer:use_len <- [DW_OP_plus_uconst 72] [$sp+0]
	@DEBUG_VALUE: mbedtls_pem_read_buffer:enc <- 1
	@DEBUG_VALUE: mbedtls_pem_read_buffer:footer <- [DW_OP_LLVM_entry_value 1] $r2
	@DEBUG_VALUE: mbedtls_pem_read_buffer:data <- [DW_OP_LLVM_entry_value 1] $r3
	@DEBUG_VALUE: mbedtls_pem_read_buffer:header <- [DW_OP_LLVM_entry_value 1] $r1
	.loc	2 0 30                          @ ../../../ThirdParty/mbedTLS/library/pem.c:0:30
	add	r1, sp, #24
	movs	r2, #16
	.loc	2 327 33                        @ ../../../ThirdParty/mbedTLS/library/pem.c:327:33
	bl	pem_get_iv
.Ltmp183:
	.loc	2 327 17                        @ ../../../ThirdParty/mbedTLS/library/pem.c:327:17
	cbz	r0, .LBB1_85
.Ltmp184:
.LBB1_84:
	@DEBUG_VALUE: mbedtls_pem_read_buffer:ctx <- [DW_OP_plus_uconst 20] [$sp+0]
	@DEBUG_VALUE: mbedtls_pem_read_buffer:pwd <- [DW_OP_plus_uconst 64] [$sp+0]
	@DEBUG_VALUE: mbedtls_pem_read_buffer:pwdlen <- [DW_OP_plus_uconst 68] [$sp+0]
	@DEBUG_VALUE: mbedtls_pem_read_buffer:use_len <- [DW_OP_plus_uconst 72] [$sp+0]
	@DEBUG_VALUE: mbedtls_pem_read_buffer:enc <- 1
	@DEBUG_VALUE: mbedtls_pem_read_buffer:footer <- [DW_OP_LLVM_entry_value 1] $r2
	@DEBUG_VALUE: mbedtls_pem_read_buffer:data <- [DW_OP_LLVM_entry_value 1] $r3
	@DEBUG_VALUE: mbedtls_pem_read_buffer:header <- [DW_OP_LLVM_entry_value 1] $r1
	.loc	2 0 0                           @ ../../../ThirdParty/mbedTLS/library/pem.c:0:0
	ldr	r0, __arm_cp.1_4
	.loc	2 423 1 is_stmt 1               @ ../../../ThirdParty/mbedTLS/library/pem.c:423:1
	add	sp, #44
.Ltmp185:
	pop	{r4, r5, r6, r7, pc}
.Ltmp186:
.LBB1_85:
	@DEBUG_VALUE: mbedtls_pem_read_buffer:ctx <- [DW_OP_plus_uconst 20] [$sp+0]
	@DEBUG_VALUE: mbedtls_pem_read_buffer:enc_alg <- $r5
	@DEBUG_VALUE: mbedtls_pem_read_buffer:pwd <- [DW_OP_plus_uconst 64] [$sp+0]
	@DEBUG_VALUE: mbedtls_pem_read_buffer:pwdlen <- [DW_OP_plus_uconst 68] [$sp+0]
	@DEBUG_VALUE: mbedtls_pem_read_buffer:use_len <- [DW_OP_plus_uconst 72] [$sp+0]
	@DEBUG_VALUE: mbedtls_pem_read_buffer:enc <- 1
	@DEBUG_VALUE: mbedtls_pem_read_buffer:footer <- [DW_OP_LLVM_entry_value 1] $r2
	@DEBUG_VALUE: mbedtls_pem_read_buffer:data <- [DW_OP_LLVM_entry_value 1] $r3
	@DEBUG_VALUE: mbedtls_pem_read_buffer:header <- [DW_OP_LLVM_entry_value 1] $r1
	.loc	2 330 16                        @ ../../../ThirdParty/mbedTLS/library/pem.c:330:16
	adds	r6, #54
.Ltmp187:
	@DEBUG_VALUE: mbedtls_pem_read_buffer:s1 <- $r6
	.loc	2 0 16 is_stmt 0                @ ../../../ThirdParty/mbedTLS/library/pem.c:0:16
	ldr	r3, [sp, #16]                   @ 4-byte Reload
.Ltmp188:
	@DEBUG_VALUE: mbedtls_pem_read_buffer:enc_alg <- $r5
	@DEBUG_VALUE: mbedtls_pem_read_buffer:s1 <- $r6
	.loc	2 334 13 is_stmt 1              @ ../../../ThirdParty/mbedTLS/library/pem.c:334:13
	cmp	r5, #0
	beq	.LBB1_86
	b	.LBB1_46
.Ltmp189:
.LBB1_86:
	@DEBUG_VALUE: mbedtls_pem_read_buffer:ctx <- [DW_OP_plus_uconst 20] [$sp+0]
	@DEBUG_VALUE: mbedtls_pem_read_buffer:s1 <- $r6
	@DEBUG_VALUE: mbedtls_pem_read_buffer:enc_alg <- $r5
	@DEBUG_VALUE: mbedtls_pem_read_buffer:pwd <- [DW_OP_plus_uconst 64] [$sp+0]
	@DEBUG_VALUE: mbedtls_pem_read_buffer:pwdlen <- [DW_OP_plus_uconst 68] [$sp+0]
	@DEBUG_VALUE: mbedtls_pem_read_buffer:use_len <- [DW_OP_plus_uconst 72] [$sp+0]
	@DEBUG_VALUE: mbedtls_pem_read_buffer:enc <- 1
	@DEBUG_VALUE: mbedtls_pem_read_buffer:footer <- [DW_OP_LLVM_entry_value 1] $r2
	@DEBUG_VALUE: mbedtls_pem_read_buffer:data <- [DW_OP_LLVM_entry_value 1] $r3
	@DEBUG_VALUE: mbedtls_pem_read_buffer:header <- [DW_OP_LLVM_entry_value 1] $r1
	.loc	2 0 13 is_stmt 0                @ ../../../ThirdParty/mbedTLS/library/pem.c:0:13
	ldr	r0, __arm_cp.1_4
.Ltmp190:
.LBB1_87:
	@DEBUG_VALUE: mbedtls_pem_read_buffer:ctx <- [DW_OP_plus_uconst 20] [$sp+0]
	@DEBUG_VALUE: mbedtls_pem_read_buffer:pwd <- [DW_OP_plus_uconst 64] [$sp+0]
	@DEBUG_VALUE: mbedtls_pem_read_buffer:pwdlen <- [DW_OP_plus_uconst 68] [$sp+0]
	@DEBUG_VALUE: mbedtls_pem_read_buffer:use_len <- [DW_OP_plus_uconst 72] [$sp+0]
	@DEBUG_VALUE: mbedtls_pem_read_buffer:footer <- [DW_OP_LLVM_entry_value 1] $r2
	@DEBUG_VALUE: mbedtls_pem_read_buffer:data <- [DW_OP_LLVM_entry_value 1] $r3
	@DEBUG_VALUE: mbedtls_pem_read_buffer:header <- [DW_OP_LLVM_entry_value 1] $r1
	subs	r0, #128
	.loc	2 423 1 is_stmt 1               @ ../../../ThirdParty/mbedTLS/library/pem.c:423:1
	add	sp, #44
.Ltmp191:
	pop	{r4, r5, r6, r7, pc}
.Ltmp192:
	.p2align	2
@ %bb.88:
	.loc	2 0 1 is_stmt 0                 @ ../../../ThirdParty/mbedTLS/library/pem.c:0:1
__arm_cp.1_0:
	.long	4294962048                      @ 0xffffeb80
.Lcpi_end0:
	.size	__arm_cp.1_0, .Lcpi_end0-__arm_cp.1_0
__arm_cp.1_1:
	.long	4294963072                      @ 0xffffef80
.Lcpi_end1:
	.size	__arm_cp.1_1, .Lcpi_end1-__arm_cp.1_1
__arm_cp.1_2:
	.long	4294962944                      @ 0xffffef00
.Lcpi_end2:
	.size	__arm_cp.1_2, .Lcpi_end2-__arm_cp.1_2
.LCPI1_3:
.L.str:
	.asciz	"Proc-Type: 4,ENCRYPTED\000"
__arm_cp.1_4:
	.long	4294962688                      @ 0xffffee00
.Lcpi_end3:
	.size	__arm_cp.1_4, .Lcpi_end3-__arm_cp.1_4
.LCPI1_5:
.L.str.1:
	.asciz	"DEK-Info: DES-EDE3-CBC,"
.LCPI1_6:
.L.str.2:
	.asciz	"DEK-Info: DES-CBC,\000"
.LCPI1_7:
.L.str.3:
	.asciz	"DEK-Info: AES-\000"
.LCPI1_8:
.L.str.4:
	.asciz	"DEK-Info: AES-128-CBC,\000"
.LCPI1_9:
.L.str.5:
	.asciz	"DEK-Info: AES-192-CBC,\000"
__arm_cp.1_10:
	.long	.L.str.6
.Lcpi_end4:
	.size	__arm_cp.1_10, .Lcpi_end4-__arm_cp.1_10
__arm_cp.1_11:
	.long	4294962304                      @ 0xffffec80
.Lcpi_end5:
	.size	__arm_cp.1_11, .Lcpi_end5-__arm_cp.1_11
.Lfunc_end1:
	.size	mbedtls_pem_read_buffer, .Lfunc_end1-mbedtls_pem_read_buffer
	.cfi_endproc
	.cantunwind
	.fnend
                                        @ -- End function
	.section	.text.pem_get_iv,"ax",%progbits
	.p2align	2                               @ -- Begin function pem_get_iv
	.type	pem_get_iv,%function
	.code	16                              @ @pem_get_iv
	.thumb_func
pem_get_iv:
.Lfunc_begin2:
	.loc	2 61 0 is_stmt 1                @ ../../../ThirdParty/mbedTLS/library/pem.c:61:0
	.fnstart
	.cfi_startproc
@ %bb.0:
	@DEBUG_VALUE: pem_get_iv:s <- $r0
	@DEBUG_VALUE: pem_get_iv:iv <- $r1
	@DEBUG_VALUE: pem_get_iv:iv_len <- $r2
	.save	{r4, r5, r6, r7, lr}
	push	{r4, r5, r6, r7, lr}
	.cfi_def_cfa_offset 20
	.cfi_offset lr, -4
	.cfi_offset r7, -8
	.cfi_offset r6, -12
	.cfi_offset r5, -16
	.cfi_offset r4, -20
	.pad	#4
	sub	sp, #4
	.cfi_def_cfa_offset 24
	mov	r6, r2
	mov	r4, r1
	mov	r5, r0
.Ltmp193:
	@DEBUG_VALUE: pem_get_iv:iv_len <- $r6
	@DEBUG_VALUE: pem_get_iv:iv <- $r4
	@DEBUG_VALUE: pem_get_iv:s <- $r5
	.loc	2 64 5 prologue_end             @ ../../../ThirdParty/mbedTLS/library/pem.c:64:5
	mov	r0, r1
	mov	r1, r2
	bl	__aeabi_memclr
.Ltmp194:
	@DEBUG_VALUE: pem_get_iv:i <- 0
	@DEBUG_VALUE: pem_get_iv:s <- undef
	.loc	2 66 28                         @ ../../../ThirdParty/mbedTLS/library/pem.c:66:28
	lsls	r1, r6, #1
.Ltmp195:
	.loc	2 66 5 is_stmt 0                @ ../../../ThirdParty/mbedTLS/library/pem.c:66:5
	beq	.LBB2_9
.Ltmp196:
@ %bb.1:
	@DEBUG_VALUE: pem_get_iv:iv_len <- $r6
	@DEBUG_VALUE: pem_get_iv:iv <- $r4
	@DEBUG_VALUE: pem_get_iv:i <- 0
	.loc	2 0 5                           @ ../../../ThirdParty/mbedTLS/library/pem.c:0:5
	movs	r0, #86
	mvns	r2, r0
	movs	r3, #0
	str	r2, [sp]                        @ 4-byte Spill
	adds	r2, #39
	b	.LBB2_3
.Ltmp197:
.LBB2_2:                                @   in Loop: Header=BB2_3 Depth=1
	@DEBUG_VALUE: pem_get_iv:iv <- $r4
	@DEBUG_VALUE: pem_get_iv:i <- $r3
	@DEBUG_VALUE: pem_get_iv:k <- $r7
	.loc	2 76 44 is_stmt 1               @ ../../../ThirdParty/mbedTLS/library/pem.c:76:44
	lsrs	r6, r3, #1
	.loc	2 76 39 is_stmt 0               @ ../../../ThirdParty/mbedTLS/library/pem.c:76:39
	ldrb	r0, [r4, r6]
	.loc	2 76 22                         @ ../../../ThirdParty/mbedTLS/library/pem.c:76:22
	orrs	r0, r7
	.loc	2 76 20                         @ ../../../ThirdParty/mbedTLS/library/pem.c:76:20
	strb	r0, [r4, r6]
.Ltmp198:
	.loc	2 66 34 is_stmt 1               @ ../../../ThirdParty/mbedTLS/library/pem.c:66:34
	adds	r3, r3, #1
.Ltmp199:
	@DEBUG_VALUE: pem_get_iv:i <- $r3
	@DEBUG_VALUE: pem_get_iv:s <- [DW_OP_plus_uconst 1, DW_OP_stack_value] undef
	.loc	2 66 5 is_stmt 0                @ ../../../ThirdParty/mbedTLS/library/pem.c:66:5
	cmp	r1, r3
	beq	.LBB2_9
.Ltmp200:
.LBB2_3:                                @ =>This Inner Loop Header: Depth=1
	@DEBUG_VALUE: pem_get_iv:iv <- $r4
	@DEBUG_VALUE: pem_get_iv:s <- undef
	@DEBUG_VALUE: pem_get_iv:i <- $r3
	.loc	2 68 13 is_stmt 1               @ ../../../ThirdParty/mbedTLS/library/pem.c:68:13
	ldrb	r7, [r5, r3]
	.loc	2 68 23 is_stmt 0               @ ../../../ThirdParty/mbedTLS/library/pem.c:68:23
	mov	r6, r7
	subs	r6, #48
	cmp	r6, #10
	mov	r6, r2
	blo	.LBB2_7
.Ltmp201:
@ %bb.4:                                @   in Loop: Header=BB2_3 Depth=1
	@DEBUG_VALUE: pem_get_iv:iv <- $r4
	@DEBUG_VALUE: pem_get_iv:i <- $r3
	.loc	2 69 28 is_stmt 1               @ ../../../ThirdParty/mbedTLS/library/pem.c:69:28
	mov	r6, r7
	subs	r6, #65
	cmp	r6, #6
	bhs	.LBB2_6
.Ltmp202:
@ %bb.5:                                @   in Loop: Header=BB2_3 Depth=1
	@DEBUG_VALUE: pem_get_iv:iv <- $r4
	@DEBUG_VALUE: pem_get_iv:i <- $r3
	.loc	2 0 28 is_stmt 0                @ ../../../ThirdParty/mbedTLS/library/pem.c:0:28
	ldr	r6, [sp]                        @ 4-byte Reload
	adds	r6, #32
	b	.LBB2_7
.Ltmp203:
.LBB2_6:                                @   in Loop: Header=BB2_3 Depth=1
	@DEBUG_VALUE: pem_get_iv:iv <- $r4
	@DEBUG_VALUE: pem_get_iv:i <- $r3
	.loc	2 70 28 is_stmt 1               @ ../../../ThirdParty/mbedTLS/library/pem.c:70:28
	mov	r6, r7
	subs	r6, #97
	cmp	r6, #5
	ldr	r6, [sp]                        @ 4-byte Reload
	bhi	.LBB2_10
.Ltmp204:
.LBB2_7:                                @   in Loop: Header=BB2_3 Depth=1
	@DEBUG_VALUE: pem_get_iv:iv <- $r4
	@DEBUG_VALUE: pem_get_iv:i <- $r3
	.loc	2 0 0 is_stmt 0                 @ ../../../ThirdParty/mbedTLS/library/pem.c:0:0
	adds	r7, r6, r7
.Ltmp205:
	@DEBUG_VALUE: pem_get_iv:j <- $r7
	.loc	2 74 13 is_stmt 1               @ ../../../ThirdParty/mbedTLS/library/pem.c:74:13
	lsls	r6, r3, #31
	bne	.LBB2_2
.Ltmp206:
@ %bb.8:                                @   in Loop: Header=BB2_3 Depth=1
	@DEBUG_VALUE: pem_get_iv:j <- $r7
	@DEBUG_VALUE: pem_get_iv:iv <- $r4
	@DEBUG_VALUE: pem_get_iv:i <- $r3
	.loc	2 0 13 is_stmt 0                @ ../../../ThirdParty/mbedTLS/library/pem.c:0:13
	lsls	r7, r7, #4
.Ltmp207:
	b	.LBB2_2
.Ltmp208:
.LBB2_9:
	@DEBUG_VALUE: pem_get_iv:iv <- $r4
	movs	r0, #0
	.loc	2 80 1 is_stmt 1                @ ../../../ThirdParty/mbedTLS/library/pem.c:80:1
	add	sp, #4
	pop	{r4, r5, r6, r7, pc}
.Ltmp209:
.LBB2_10:
	@DEBUG_VALUE: pem_get_iv:iv <- $r4
	@DEBUG_VALUE: pem_get_iv:i <- $r3
	.loc	2 0 1 is_stmt 0                 @ ../../../ThirdParty/mbedTLS/library/pem.c:0:1
	ldr	r0, __arm_cp.2_0
	.loc	2 80 1                          @ ../../../ThirdParty/mbedTLS/library/pem.c:80:1
	add	sp, #4
	pop	{r4, r5, r6, r7, pc}
.Ltmp210:
	.p2align	2
@ %bb.11:
	.loc	2 0 1                           @ ../../../ThirdParty/mbedTLS/library/pem.c:0:1
__arm_cp.2_0:
	.long	4294962688                      @ 0xffffee00
.Lcpi_end6:
	.size	__arm_cp.2_0, .Lcpi_end6-__arm_cp.2_0
.Lfunc_end2:
	.size	pem_get_iv, .Lfunc_end2-pem_get_iv
	.cfi_endproc
	.cantunwind
	.fnend
                                        @ -- End function
	.section	.text.pem_des3_decrypt,"ax",%progbits
	.p2align	1                               @ -- Begin function pem_des3_decrypt
	.type	pem_des3_decrypt,%function
	.code	16                              @ @pem_des3_decrypt
	.thumb_func
pem_des3_decrypt:
.Lfunc_begin3:
	.loc	2 175 0 is_stmt 1               @ ../../../ThirdParty/mbedTLS/library/pem.c:175:0
	.fnstart
	.cfi_startproc
@ %bb.0:
	@DEBUG_VALUE: pem_des3_decrypt:des3_iv <- $r0
	@DEBUG_VALUE: pem_des3_decrypt:buf <- $r1
	@DEBUG_VALUE: pem_des3_decrypt:buflen <- $r2
	@DEBUG_VALUE: pem_des3_decrypt:pwd <- $r3
	.save	{r4, r5, r6, r7, lr}
	push	{r4, r5, r6, r7, lr}
	.cfi_def_cfa_offset 20
	.cfi_offset lr, -4
	.cfi_offset r7, -8
	.cfi_offset r6, -12
	.cfi_offset r5, -16
	.cfi_offset r4, -20
	.pad	#420
	sub	sp, #420
	.cfi_def_cfa_offset 440
	mov	r7, r3
	mov	r4, r2
	mov	r6, r1
	mov	r5, r0
.Ltmp211:
	@DEBUG_VALUE: pem_des3_decrypt:pwdlen <- [DW_OP_plus_uconst 440] [$sp+0]
	@DEBUG_VALUE: pem_des3_decrypt:pwd <- $r7
	@DEBUG_VALUE: pem_des3_decrypt:buflen <- $r4
	@DEBUG_VALUE: pem_des3_decrypt:buf <- $r6
	@DEBUG_VALUE: pem_des3_decrypt:des3_iv <- $r5
	add	r0, sp, #36
.Ltmp212:
	.loc	2 180 5 prologue_end            @ ../../../ThirdParty/mbedTLS/library/pem.c:180:5
	bl	mbedtls_des3_init
	ldr	r0, [sp, #440]
.Ltmp213:
	.loc	2 182 17                        @ ../../../ThirdParty/mbedTLS/library/pem.c:182:17
	str	r0, [sp]
	add	r0, sp, #12
	movs	r1, #24
	mov	r2, r5
	mov	r3, r7
.Ltmp214:
	@DEBUG_VALUE: pem_des3_decrypt:pwd <- $r3
	bl	pem_pbkdf1
.Ltmp215:
	mov	r7, r0
.Ltmp216:
	@DEBUG_VALUE: pem_des3_decrypt:ret <- $r7
	.loc	2 182 9 is_stmt 0               @ ../../../ThirdParty/mbedTLS/library/pem.c:182:9
	cbnz	r0, .LBB3_3
.Ltmp217:
@ %bb.1:
	@DEBUG_VALUE: pem_des3_decrypt:ret <- $r7
	@DEBUG_VALUE: pem_des3_decrypt:buf <- $r6
	@DEBUG_VALUE: pem_des3_decrypt:des3_iv <- $r5
	@DEBUG_VALUE: pem_des3_decrypt:buflen <- $r4
	@DEBUG_VALUE: pem_des3_decrypt:pwdlen <- [DW_OP_plus_uconst 440] [$sp+0]
	.loc	2 0 9                           @ ../../../ThirdParty/mbedTLS/library/pem.c:0:9
	add	r0, sp, #36
	add	r1, sp, #12
.Ltmp218:
	.loc	2 185 17 is_stmt 1              @ ../../../ThirdParty/mbedTLS/library/pem.c:185:17
	bl	mbedtls_des3_set3key_dec
	mov	r7, r0
.Ltmp219:
	@DEBUG_VALUE: pem_des3_decrypt:ret <- $r7
	.loc	2 185 9 is_stmt 0               @ ../../../ThirdParty/mbedTLS/library/pem.c:185:9
	cbnz	r0, .LBB3_3
.Ltmp220:
@ %bb.2:
	@DEBUG_VALUE: pem_des3_decrypt:ret <- $r7
	@DEBUG_VALUE: pem_des3_decrypt:buf <- $r6
	@DEBUG_VALUE: pem_des3_decrypt:des3_iv <- $r5
	@DEBUG_VALUE: pem_des3_decrypt:buflen <- $r4
	@DEBUG_VALUE: pem_des3_decrypt:pwdlen <- [DW_OP_plus_uconst 440] [$sp+0]
	.loc	2 187 11 is_stmt 1              @ ../../../ThirdParty/mbedTLS/library/pem.c:187:11
	str	r6, [sp]
	str	r6, [sp, #4]
	add	r0, sp, #36
	movs	r1, #0
	mov	r2, r4
	mov	r3, r5
	bl	mbedtls_des3_crypt_cbc
	mov	r7, r0
.Ltmp221:
	@DEBUG_VALUE: pem_des3_decrypt:ret <- $r7
.LBB3_3:
	@DEBUG_VALUE: pem_des3_decrypt:ret <- $r7
	@DEBUG_VALUE: pem_des3_decrypt:buf <- $r6
	@DEBUG_VALUE: pem_des3_decrypt:des3_iv <- $r5
	@DEBUG_VALUE: pem_des3_decrypt:buflen <- $r4
	@DEBUG_VALUE: pem_des3_decrypt:pwdlen <- [DW_OP_plus_uconst 440] [$sp+0]
	@DEBUG_VALUE: pem_des3_decrypt:ret <- $r7
	@DEBUG_LABEL: pem_des3_decrypt:exit
	.loc	2 0 11 is_stmt 0                @ ../../../ThirdParty/mbedTLS/library/pem.c:0:11
	add	r0, sp, #36
	.loc	2 191 5 is_stmt 1               @ ../../../ThirdParty/mbedTLS/library/pem.c:191:5
	bl	mbedtls_des3_free
	add	r0, sp, #12
	movs	r1, #24
	.loc	2 192 5                         @ ../../../ThirdParty/mbedTLS/library/pem.c:192:5
	bl	mbedtls_platform_zeroize
	.loc	2 194 5                         @ ../../../ThirdParty/mbedTLS/library/pem.c:194:5
	mov	r0, r7
	add	sp, #420
.Ltmp222:
	pop	{r4, r5, r6, r7, pc}
.Ltmp223:
.Lfunc_end3:
	.size	pem_des3_decrypt, .Lfunc_end3-pem_des3_decrypt
	.cfi_endproc
	.cantunwind
	.fnend
                                        @ -- End function
	.section	.text.pem_des_decrypt,"ax",%progbits
	.p2align	1                               @ -- Begin function pem_des_decrypt
	.type	pem_des_decrypt,%function
	.code	16                              @ @pem_des_decrypt
	.thumb_func
pem_des_decrypt:
.Lfunc_begin4:
	.loc	2 147 0                         @ ../../../ThirdParty/mbedTLS/library/pem.c:147:0
	.fnstart
	.cfi_startproc
@ %bb.0:
	@DEBUG_VALUE: pem_des_decrypt:des_iv <- $r0
	@DEBUG_VALUE: pem_des_decrypt:buf <- $r1
	@DEBUG_VALUE: pem_des_decrypt:buflen <- $r2
	@DEBUG_VALUE: pem_des_decrypt:pwd <- $r3
	.save	{r4, r5, r6, r7, lr}
	push	{r4, r5, r6, r7, lr}
	.cfi_def_cfa_offset 20
	.cfi_offset lr, -4
	.cfi_offset r7, -8
	.cfi_offset r6, -12
	.cfi_offset r5, -16
	.cfi_offset r4, -20
	.pad	#148
	sub	sp, #148
	.cfi_def_cfa_offset 168
	mov	r7, r3
	mov	r4, r2
	mov	r6, r1
	mov	r5, r0
.Ltmp224:
	@DEBUG_VALUE: pem_des_decrypt:pwdlen <- [DW_OP_plus_uconst 168] [$sp+0]
	@DEBUG_VALUE: pem_des_decrypt:pwd <- $r7
	@DEBUG_VALUE: pem_des_decrypt:buflen <- $r4
	@DEBUG_VALUE: pem_des_decrypt:buf <- $r6
	@DEBUG_VALUE: pem_des_decrypt:des_iv <- $r5
	add	r0, sp, #20
.Ltmp225:
	.loc	2 152 5 prologue_end            @ ../../../ThirdParty/mbedTLS/library/pem.c:152:5
	bl	mbedtls_des_init
	ldr	r0, [sp, #168]
.Ltmp226:
	.loc	2 154 17                        @ ../../../ThirdParty/mbedTLS/library/pem.c:154:17
	str	r0, [sp]
	add	r0, sp, #12
	movs	r1, #8
	mov	r2, r5
	mov	r3, r7
.Ltmp227:
	@DEBUG_VALUE: pem_des_decrypt:pwd <- $r3
	bl	pem_pbkdf1
.Ltmp228:
	mov	r7, r0
.Ltmp229:
	@DEBUG_VALUE: pem_des_decrypt:ret <- $r7
	.loc	2 154 9 is_stmt 0               @ ../../../ThirdParty/mbedTLS/library/pem.c:154:9
	cbnz	r0, .LBB4_3
.Ltmp230:
@ %bb.1:
	@DEBUG_VALUE: pem_des_decrypt:ret <- $r7
	@DEBUG_VALUE: pem_des_decrypt:buf <- $r6
	@DEBUG_VALUE: pem_des_decrypt:des_iv <- $r5
	@DEBUG_VALUE: pem_des_decrypt:buflen <- $r4
	@DEBUG_VALUE: pem_des_decrypt:pwdlen <- [DW_OP_plus_uconst 168] [$sp+0]
	.loc	2 0 9                           @ ../../../ThirdParty/mbedTLS/library/pem.c:0:9
	add	r0, sp, #20
	add	r1, sp, #12
.Ltmp231:
	.loc	2 157 17 is_stmt 1              @ ../../../ThirdParty/mbedTLS/library/pem.c:157:17
	bl	mbedtls_des_setkey_dec
	mov	r7, r0
.Ltmp232:
	@DEBUG_VALUE: pem_des_decrypt:ret <- $r7
	.loc	2 157 9 is_stmt 0               @ ../../../ThirdParty/mbedTLS/library/pem.c:157:9
	cbnz	r0, .LBB4_3
.Ltmp233:
@ %bb.2:
	@DEBUG_VALUE: pem_des_decrypt:ret <- $r7
	@DEBUG_VALUE: pem_des_decrypt:buf <- $r6
	@DEBUG_VALUE: pem_des_decrypt:des_iv <- $r5
	@DEBUG_VALUE: pem_des_decrypt:buflen <- $r4
	@DEBUG_VALUE: pem_des_decrypt:pwdlen <- [DW_OP_plus_uconst 168] [$sp+0]
	.loc	2 159 11 is_stmt 1              @ ../../../ThirdParty/mbedTLS/library/pem.c:159:11
	str	r6, [sp]
	str	r6, [sp, #4]
	add	r0, sp, #20
	movs	r1, #0
	mov	r2, r4
	mov	r3, r5
	bl	mbedtls_des_crypt_cbc
	mov	r7, r0
.Ltmp234:
	@DEBUG_VALUE: pem_des_decrypt:ret <- $r7
.LBB4_3:
	@DEBUG_VALUE: pem_des_decrypt:ret <- $r7
	@DEBUG_VALUE: pem_des_decrypt:buf <- $r6
	@DEBUG_VALUE: pem_des_decrypt:des_iv <- $r5
	@DEBUG_VALUE: pem_des_decrypt:buflen <- $r4
	@DEBUG_VALUE: pem_des_decrypt:pwdlen <- [DW_OP_plus_uconst 168] [$sp+0]
	@DEBUG_VALUE: pem_des_decrypt:ret <- $r7
	@DEBUG_LABEL: pem_des_decrypt:exit
	.loc	2 0 11 is_stmt 0                @ ../../../ThirdParty/mbedTLS/library/pem.c:0:11
	add	r0, sp, #20
	.loc	2 163 5 is_stmt 1               @ ../../../ThirdParty/mbedTLS/library/pem.c:163:5
	bl	mbedtls_des_free
	add	r0, sp, #12
	movs	r1, #8
	.loc	2 164 5                         @ ../../../ThirdParty/mbedTLS/library/pem.c:164:5
	bl	mbedtls_platform_zeroize
	.loc	2 166 5                         @ ../../../ThirdParty/mbedTLS/library/pem.c:166:5
	mov	r0, r7
	add	sp, #148
.Ltmp235:
	pop	{r4, r5, r6, r7, pc}
.Ltmp236:
.Lfunc_end4:
	.size	pem_des_decrypt, .Lfunc_end4-pem_des_decrypt
	.cfi_endproc
	.cantunwind
	.fnend
                                        @ -- End function
	.section	.text.pem_aes_decrypt,"ax",%progbits
	.p2align	1                               @ -- Begin function pem_aes_decrypt
	.type	pem_aes_decrypt,%function
	.code	16                              @ @pem_aes_decrypt
	.thumb_func
pem_aes_decrypt:
.Lfunc_begin5:
	.loc	2 205 0                         @ ../../../ThirdParty/mbedTLS/library/pem.c:205:0
	.fnstart
	.cfi_startproc
@ %bb.0:
	@DEBUG_VALUE: pem_aes_decrypt:aes_iv <- $r0
	@DEBUG_VALUE: pem_aes_decrypt:keylen <- $r1
	@DEBUG_VALUE: pem_aes_decrypt:buf <- $r2
	@DEBUG_VALUE: pem_aes_decrypt:buflen <- $r3
	.save	{r4, r5, r6, r7, lr}
	push	{r4, r5, r6, r7, lr}
	.cfi_def_cfa_offset 20
	.cfi_offset lr, -4
	.cfi_offset r7, -8
	.cfi_offset r6, -12
	.cfi_offset r5, -16
	.cfi_offset r4, -20
	.pad	#324
	sub	sp, #324
	.cfi_def_cfa_offset 344
	str	r3, [sp, #8]                    @ 4-byte Spill
	mov	r7, r2
	mov	r4, r1
	mov	r6, r0
.Ltmp237:
	@DEBUG_VALUE: pem_aes_decrypt:pwdlen <- [DW_OP_plus_uconst 348] [$sp+0]
	@DEBUG_VALUE: pem_aes_decrypt:pwd <- [DW_OP_plus_uconst 344] [$sp+0]
	@DEBUG_VALUE: pem_aes_decrypt:buflen <- [DW_OP_plus_uconst 8] [$sp+0]
	@DEBUG_VALUE: pem_aes_decrypt:buf <- $r7
	@DEBUG_VALUE: pem_aes_decrypt:keylen <- $r4
	@DEBUG_VALUE: pem_aes_decrypt:aes_iv <- $r6
	add	r0, sp, #44
.Ltmp238:
	.loc	2 210 5 prologue_end            @ ../../../ThirdParty/mbedTLS/library/pem.c:210:5
	bl	mbedtls_aes_init
	ldr	r0, [sp, #348]
.Ltmp239:
	.loc	2 212 17                        @ ../../../ThirdParty/mbedTLS/library/pem.c:212:17
	str	r0, [sp]
	add	r0, sp, #12
	ldr	r3, [sp, #344]
	mov	r1, r4
	mov	r2, r6
	bl	pem_pbkdf1
	mov	r5, r0
.Ltmp240:
	@DEBUG_VALUE: pem_aes_decrypt:ret <- $r5
	.loc	2 212 9 is_stmt 0               @ ../../../ThirdParty/mbedTLS/library/pem.c:212:9
	cbnz	r0, .LBB5_3
.Ltmp241:
@ %bb.1:
	@DEBUG_VALUE: pem_aes_decrypt:buf <- $r7
	@DEBUG_VALUE: pem_aes_decrypt:aes_iv <- $r6
	@DEBUG_VALUE: pem_aes_decrypt:ret <- $r5
	@DEBUG_VALUE: pem_aes_decrypt:keylen <- $r4
	@DEBUG_VALUE: pem_aes_decrypt:buflen <- [DW_OP_plus_uconst 8] [$sp+0]
	@DEBUG_VALUE: pem_aes_decrypt:pwd <- [DW_OP_plus_uconst 344] [$sp+0]
	@DEBUG_VALUE: pem_aes_decrypt:pwdlen <- [DW_OP_plus_uconst 348] [$sp+0]
	.loc	2 215 67 is_stmt 1              @ ../../../ThirdParty/mbedTLS/library/pem.c:215:67
	lsls	r2, r4, #3
	add	r0, sp, #44
	add	r1, sp, #12
	.loc	2 215 17 is_stmt 0              @ ../../../ThirdParty/mbedTLS/library/pem.c:215:17
	bl	mbedtls_aes_setkey_dec
	mov	r5, r0
.Ltmp242:
	@DEBUG_VALUE: pem_aes_decrypt:ret <- $r5
	.loc	2 215 9                         @ ../../../ThirdParty/mbedTLS/library/pem.c:215:9
	cbnz	r0, .LBB5_3
.Ltmp243:
@ %bb.2:
	@DEBUG_VALUE: pem_aes_decrypt:buf <- $r7
	@DEBUG_VALUE: pem_aes_decrypt:aes_iv <- $r6
	@DEBUG_VALUE: pem_aes_decrypt:ret <- $r5
	@DEBUG_VALUE: pem_aes_decrypt:keylen <- $r4
	@DEBUG_VALUE: pem_aes_decrypt:buflen <- [DW_OP_plus_uconst 8] [$sp+0]
	@DEBUG_VALUE: pem_aes_decrypt:pwd <- [DW_OP_plus_uconst 344] [$sp+0]
	@DEBUG_VALUE: pem_aes_decrypt:pwdlen <- [DW_OP_plus_uconst 348] [$sp+0]
	.loc	2 217 11 is_stmt 1              @ ../../../ThirdParty/mbedTLS/library/pem.c:217:11
	str	r7, [sp]
	str	r7, [sp, #4]
	add	r0, sp, #44
	movs	r1, #0
	ldr	r2, [sp, #8]                    @ 4-byte Reload
	mov	r3, r6
	bl	mbedtls_aes_crypt_cbc
	mov	r5, r0
.Ltmp244:
	@DEBUG_VALUE: pem_aes_decrypt:ret <- $r5
.LBB5_3:
	@DEBUG_VALUE: pem_aes_decrypt:buf <- $r7
	@DEBUG_VALUE: pem_aes_decrypt:aes_iv <- $r6
	@DEBUG_VALUE: pem_aes_decrypt:ret <- $r5
	@DEBUG_VALUE: pem_aes_decrypt:keylen <- $r4
	@DEBUG_VALUE: pem_aes_decrypt:buflen <- [DW_OP_plus_uconst 8] [$sp+0]
	@DEBUG_VALUE: pem_aes_decrypt:pwd <- [DW_OP_plus_uconst 344] [$sp+0]
	@DEBUG_VALUE: pem_aes_decrypt:pwdlen <- [DW_OP_plus_uconst 348] [$sp+0]
	@DEBUG_VALUE: pem_aes_decrypt:ret <- $r5
	@DEBUG_LABEL: pem_aes_decrypt:exit
	.loc	2 0 11 is_stmt 0                @ ../../../ThirdParty/mbedTLS/library/pem.c:0:11
	add	r0, sp, #44
	.loc	2 221 5 is_stmt 1               @ ../../../ThirdParty/mbedTLS/library/pem.c:221:5
	bl	mbedtls_aes_free
	add	r0, sp, #12
	.loc	2 222 5                         @ ../../../ThirdParty/mbedTLS/library/pem.c:222:5
	mov	r1, r4
	bl	mbedtls_platform_zeroize
	.loc	2 224 5                         @ ../../../ThirdParty/mbedTLS/library/pem.c:224:5
	mov	r0, r5
	add	sp, #324
.Ltmp245:
	pop	{r4, r5, r6, r7, pc}
.Ltmp246:
.Lfunc_end5:
	.size	pem_aes_decrypt, .Lfunc_end5-pem_aes_decrypt
	.cfi_endproc
	.cantunwind
	.fnend
                                        @ -- End function
	.section	.text.mbedtls_pem_free,"ax",%progbits
	.hidden	mbedtls_pem_free                @ -- Begin function mbedtls_pem_free
	.globl	mbedtls_pem_free
	.p2align	1
	.type	mbedtls_pem_free,%function
	.code	16                              @ @mbedtls_pem_free
	.thumb_func
mbedtls_pem_free:
.Lfunc_begin6:
	.loc	2 426 0                         @ ../../../ThirdParty/mbedTLS/library/pem.c:426:0
	.fnstart
	.cfi_startproc
@ %bb.0:
	@DEBUG_VALUE: mbedtls_pem_free:ctx <- $r0
	.save	{r4, lr}
	push	{r4, lr}
	.cfi_def_cfa_offset 8
	.cfi_offset lr, -4
	.cfi_offset r4, -8
	mov	r4, r0
.Ltmp247:
	@DEBUG_VALUE: mbedtls_pem_free:ctx <- $r4
	.loc	2 427 15 prologue_end           @ ../../../ThirdParty/mbedTLS/library/pem.c:427:15
	ldr	r0, [r0]
.Ltmp248:
	.loc	2 427 10 is_stmt 0              @ ../../../ThirdParty/mbedTLS/library/pem.c:427:10
	cbz	r0, .LBB6_2
.Ltmp249:
@ %bb.1:
	@DEBUG_VALUE: mbedtls_pem_free:ctx <- $r4
	.loc	2 429 50 is_stmt 1              @ ../../../ThirdParty/mbedTLS/library/pem.c:429:50
	ldr	r1, [r4, #4]
	.loc	2 429 9 is_stmt 0               @ ../../../ThirdParty/mbedTLS/library/pem.c:429:9
	bl	mbedtls_platform_zeroize
	.loc	2 430 28 is_stmt 1              @ ../../../ThirdParty/mbedTLS/library/pem.c:430:28
	ldr	r0, [r4]
	.loc	2 430 9 is_stmt 0               @ ../../../ThirdParty/mbedTLS/library/pem.c:430:9
	bl	free
.Ltmp250:
.LBB6_2:
	@DEBUG_VALUE: mbedtls_pem_free:ctx <- $r4
	.loc	2 432 24 is_stmt 1              @ ../../../ThirdParty/mbedTLS/library/pem.c:432:24
	ldr	r0, [r4, #8]
	.loc	2 432 5 is_stmt 0               @ ../../../ThirdParty/mbedTLS/library/pem.c:432:5
	bl	free
	movs	r1, #12
	.loc	2 434 5 is_stmt 1               @ ../../../ThirdParty/mbedTLS/library/pem.c:434:5
	mov	r0, r4
	bl	mbedtls_platform_zeroize
	.loc	2 435 1                         @ ../../../ThirdParty/mbedTLS/library/pem.c:435:1
	pop	{r4, pc}
.Ltmp251:
.Lfunc_end6:
	.size	mbedtls_pem_free, .Lfunc_end6-mbedtls_pem_free
	.cfi_endproc
	.cantunwind
	.fnend
                                        @ -- End function
	.section	.text.mbedtls_pem_write_buffer,"ax",%progbits
	.hidden	mbedtls_pem_write_buffer        @ -- Begin function mbedtls_pem_write_buffer
	.globl	mbedtls_pem_write_buffer
	.p2align	2
	.type	mbedtls_pem_write_buffer,%function
	.code	16                              @ @mbedtls_pem_write_buffer
	.thumb_func
mbedtls_pem_write_buffer:
.Lfunc_begin7:
	.loc	2 442 0                         @ ../../../ThirdParty/mbedTLS/library/pem.c:442:0
	.fnstart
	.cfi_startproc
@ %bb.0:
	@DEBUG_VALUE: mbedtls_pem_write_buffer:header <- $r0
	@DEBUG_VALUE: mbedtls_pem_write_buffer:footer <- $r1
	@DEBUG_VALUE: mbedtls_pem_write_buffer:der_data <- $r2
	@DEBUG_VALUE: mbedtls_pem_write_buffer:der_len <- $r3
	.save	{r4, r5, r6, r7, lr}
	push	{r4, r5, r6, r7, lr}
	.cfi_def_cfa_offset 20
	.cfi_offset lr, -4
	.cfi_offset r7, -8
	.cfi_offset r6, -12
	.cfi_offset r5, -16
	.cfi_offset r4, -20
	.pad	#28
	sub	sp, #28
	.cfi_def_cfa_offset 48
	mov	r5, r3
	mov	r6, r2
	mov	r7, r1
	mov	r4, r0
.Ltmp252:
	@DEBUG_VALUE: mbedtls_pem_write_buffer:use_len <- [DW_OP_plus_uconst 24, DW_OP_deref] $sp
	@DEBUG_VALUE: mbedtls_pem_write_buffer:add_len <- 0
	@DEBUG_VALUE: mbedtls_pem_write_buffer:len <- 0
	@DEBUG_VALUE: mbedtls_pem_write_buffer:encode_buf <- 0
	@DEBUG_VALUE: mbedtls_pem_write_buffer:olen <- [DW_OP_plus_uconst 56] [$sp+0]
	@DEBUG_VALUE: mbedtls_pem_write_buffer:buf_len <- [DW_OP_plus_uconst 52] [$sp+0]
	@DEBUG_VALUE: mbedtls_pem_write_buffer:buf <- [DW_OP_plus_uconst 48] [$sp+0]
	@DEBUG_VALUE: mbedtls_pem_write_buffer:der_len <- $r5
	@DEBUG_VALUE: mbedtls_pem_write_buffer:der_data <- $r6
	@DEBUG_VALUE: mbedtls_pem_write_buffer:footer <- $r7
	@DEBUG_VALUE: mbedtls_pem_write_buffer:header <- $r4
	.loc	2 447 5 prologue_end            @ ../../../ThirdParty/mbedTLS/library/pem.c:447:5
	str	r3, [sp]
	movs	r0, #0
	add	r2, sp, #24
	str	r0, [sp, #20]                   @ 4-byte Spill
	mov	r1, r0
	mov	r3, r6
	bl	mbedtls_base64_encode
	str	r4, [sp, #16]                   @ 4-byte Spill
.Ltmp253:
	@DEBUG_VALUE: mbedtls_pem_write_buffer:header <- [DW_OP_plus_uconst 16] [$sp+0]
	.loc	2 448 15                        @ ../../../ThirdParty/mbedTLS/library/pem.c:448:15
	mov	r0, r4
	bl	strlen
	mov	r4, r0
	str	r7, [sp, #12]                   @ 4-byte Spill
.Ltmp254:
	@DEBUG_VALUE: mbedtls_pem_write_buffer:footer <- [DW_OP_plus_uconst 12] [$sp+0]
	.loc	2 448 34 is_stmt 0              @ ../../../ThirdParty/mbedTLS/library/pem.c:448:34
	mov	r0, r7
	bl	strlen
.Ltmp255:
	@DEBUG_VALUE: mbedtls_pem_write_buffer:add_len <- undef
	.loc	2 448 32                        @ ../../../ThirdParty/mbedTLS/library/pem.c:448:32
	adds	r0, r4, r0
	.loc	2 448 55                        @ ../../../ThirdParty/mbedTLS/library/pem.c:448:55
	ldr	r7, [sp, #24]
.Ltmp256:
	@DEBUG_VALUE: mbedtls_pem_write_buffer:use_len <- $r7
	.loc	2 448 51                        @ ../../../ThirdParty/mbedTLS/library/pem.c:448:51
	adds	r0, r0, r7
	.loc	2 448 63                        @ ../../../ThirdParty/mbedTLS/library/pem.c:448:63
	lsrs	r1, r7, #6
	.loc	2 448 70                        @ ../../../ThirdParty/mbedTLS/library/pem.c:448:70
	adds	r0, r0, r1
.Ltmp257:
	.loc	2 450 17 is_stmt 1              @ ../../../ThirdParty/mbedTLS/library/pem.c:450:17
	adds	r0, r0, #1
	ldr	r4, [sp, #56]
.Ltmp258:
	@DEBUG_VALUE: mbedtls_pem_write_buffer:p <- undef
	.loc	2 0 17 is_stmt 0                @ ../../../ThirdParty/mbedTLS/library/pem.c:0:17
	ldr	r1, [sp, #52]
.Ltmp259:
	.loc	2 450 9                         @ ../../../ThirdParty/mbedTLS/library/pem.c:450:9
	cmp	r0, r1
	bls	.LBB7_2
.Ltmp260:
@ %bb.1:
	@DEBUG_VALUE: mbedtls_pem_write_buffer:use_len <- $r7
	@DEBUG_VALUE: mbedtls_pem_write_buffer:der_data <- $r6
	@DEBUG_VALUE: mbedtls_pem_write_buffer:der_len <- $r5
	@DEBUG_VALUE: mbedtls_pem_write_buffer:footer <- [DW_OP_plus_uconst 12] [$sp+0]
	@DEBUG_VALUE: mbedtls_pem_write_buffer:header <- [DW_OP_plus_uconst 16] [$sp+0]
	@DEBUG_VALUE: mbedtls_pem_write_buffer:buf <- [DW_OP_plus_uconst 48] [$sp+0]
	@DEBUG_VALUE: mbedtls_pem_write_buffer:buf_len <- [DW_OP_plus_uconst 52] [$sp+0]
	@DEBUG_VALUE: mbedtls_pem_write_buffer:olen <- [DW_OP_plus_uconst 56] [$sp+0]
	@DEBUG_VALUE: mbedtls_pem_write_buffer:encode_buf <- 0
	@DEBUG_VALUE: mbedtls_pem_write_buffer:len <- 0
	.loc	2 452 15 is_stmt 1              @ ../../../ThirdParty/mbedTLS/library/pem.c:452:15
	str	r0, [r4]
	movs	r0, #41
	mvns	r4, r0
	.loc	2 453 9                         @ ../../../ThirdParty/mbedTLS/library/pem.c:453:9
	b	.LBB7_13
.Ltmp261:
.LBB7_2:
	@DEBUG_VALUE: mbedtls_pem_write_buffer:use_len <- $r7
	@DEBUG_VALUE: mbedtls_pem_write_buffer:der_data <- $r6
	@DEBUG_VALUE: mbedtls_pem_write_buffer:der_len <- $r5
	@DEBUG_VALUE: mbedtls_pem_write_buffer:footer <- [DW_OP_plus_uconst 12] [$sp+0]
	@DEBUG_VALUE: mbedtls_pem_write_buffer:header <- [DW_OP_plus_uconst 16] [$sp+0]
	@DEBUG_VALUE: mbedtls_pem_write_buffer:buf <- [DW_OP_plus_uconst 48] [$sp+0]
	@DEBUG_VALUE: mbedtls_pem_write_buffer:buf_len <- [DW_OP_plus_uconst 52] [$sp+0]
	@DEBUG_VALUE: mbedtls_pem_write_buffer:olen <- [DW_OP_plus_uconst 56] [$sp+0]
	@DEBUG_VALUE: mbedtls_pem_write_buffer:encode_buf <- 0
	@DEBUG_VALUE: mbedtls_pem_write_buffer:len <- 0
	@DEBUG_VALUE: mbedtls_pem_write_buffer:p <- undef
	.loc	2 456 22                        @ ../../../ThirdParty/mbedTLS/library/pem.c:456:22
	cbz	r7, .LBB7_4
.Ltmp262:
@ %bb.3:
	@DEBUG_VALUE: mbedtls_pem_write_buffer:use_len <- $r7
	@DEBUG_VALUE: mbedtls_pem_write_buffer:der_data <- $r6
	@DEBUG_VALUE: mbedtls_pem_write_buffer:der_len <- $r5
	@DEBUG_VALUE: mbedtls_pem_write_buffer:footer <- [DW_OP_plus_uconst 12] [$sp+0]
	@DEBUG_VALUE: mbedtls_pem_write_buffer:header <- [DW_OP_plus_uconst 16] [$sp+0]
	@DEBUG_VALUE: mbedtls_pem_write_buffer:buf <- [DW_OP_plus_uconst 48] [$sp+0]
	@DEBUG_VALUE: mbedtls_pem_write_buffer:buf_len <- [DW_OP_plus_uconst 52] [$sp+0]
	@DEBUG_VALUE: mbedtls_pem_write_buffer:olen <- [DW_OP_plus_uconst 56] [$sp+0]
	@DEBUG_VALUE: mbedtls_pem_write_buffer:encode_buf <- 0
	@DEBUG_VALUE: mbedtls_pem_write_buffer:len <- 0
	.loc	2 0 22 is_stmt 0                @ ../../../ThirdParty/mbedTLS/library/pem.c:0:22
	movs	r0, #1
	.loc	2 457 30 is_stmt 1              @ ../../../ThirdParty/mbedTLS/library/pem.c:457:30
	mov	r1, r7
	bl	calloc
.Ltmp263:
	@DEBUG_VALUE: mbedtls_pem_write_buffer:encode_buf <- $r0
	.loc	2 0 30 is_stmt 0                @ ../../../ThirdParty/mbedTLS/library/pem.c:0:30
	str	r0, [sp, #20]                   @ 4-byte Spill
.Ltmp264:
	@DEBUG_VALUE: mbedtls_pem_write_buffer:encode_buf <- [DW_OP_plus_uconst 20] [$sp+0]
	.loc	2 456 9 is_stmt 1               @ ../../../ThirdParty/mbedTLS/library/pem.c:456:9
	cmp	r0, #0
	beq	.LBB7_12
.Ltmp265:
.LBB7_4:
	@DEBUG_VALUE: mbedtls_pem_write_buffer:use_len <- $r7
	@DEBUG_VALUE: mbedtls_pem_write_buffer:der_data <- $r6
	@DEBUG_VALUE: mbedtls_pem_write_buffer:der_len <- $r5
	@DEBUG_VALUE: mbedtls_pem_write_buffer:footer <- [DW_OP_plus_uconst 12] [$sp+0]
	@DEBUG_VALUE: mbedtls_pem_write_buffer:header <- [DW_OP_plus_uconst 16] [$sp+0]
	@DEBUG_VALUE: mbedtls_pem_write_buffer:buf <- [DW_OP_plus_uconst 48] [$sp+0]
	@DEBUG_VALUE: mbedtls_pem_write_buffer:buf_len <- [DW_OP_plus_uconst 52] [$sp+0]
	@DEBUG_VALUE: mbedtls_pem_write_buffer:olen <- [DW_OP_plus_uconst 56] [$sp+0]
	@DEBUG_VALUE: mbedtls_pem_write_buffer:len <- 0
	@DEBUG_VALUE: mbedtls_pem_write_buffer:encode_buf <- [DW_OP_plus_uconst 20] [$sp+0]
	@DEBUG_VALUE: mbedtls_pem_write_buffer:use_len <- [DW_OP_plus_uconst 24, DW_OP_deref] $sp
	@DEBUG_VALUE: mbedtls_pem_write_buffer:p <- undef
	.loc	2 0 9 is_stmt 0                 @ ../../../ThirdParty/mbedTLS/library/pem.c:0:9
	str	r4, [sp, #8]                    @ 4-byte Spill
.Ltmp266:
	.loc	2 460 17 is_stmt 1              @ ../../../ThirdParty/mbedTLS/library/pem.c:460:17
	str	r5, [sp]
	add	r2, sp, #24
	ldr	r5, [sp, #20]                   @ 4-byte Reload
.Ltmp267:
	mov	r0, r5
	mov	r1, r7
	mov	r3, r6
	bl	mbedtls_base64_encode
.Ltmp268:
	@DEBUG_VALUE: mbedtls_pem_write_buffer:ret <- $r0
	.loc	2 460 9 is_stmt 0               @ ../../../ThirdParty/mbedTLS/library/pem.c:460:9
	cbz	r0, .LBB7_6
.Ltmp269:
@ %bb.5:
	@DEBUG_VALUE: mbedtls_pem_write_buffer:der_data <- $r6
	@DEBUG_VALUE: mbedtls_pem_write_buffer:ret <- $r0
	@DEBUG_VALUE: mbedtls_pem_write_buffer:encode_buf <- [DW_OP_plus_uconst 20] [$sp+0]
	@DEBUG_VALUE: mbedtls_pem_write_buffer:footer <- [DW_OP_plus_uconst 12] [$sp+0]
	@DEBUG_VALUE: mbedtls_pem_write_buffer:header <- [DW_OP_plus_uconst 16] [$sp+0]
	@DEBUG_VALUE: mbedtls_pem_write_buffer:buf <- [DW_OP_plus_uconst 48] [$sp+0]
	@DEBUG_VALUE: mbedtls_pem_write_buffer:buf_len <- [DW_OP_plus_uconst 52] [$sp+0]
	@DEBUG_VALUE: mbedtls_pem_write_buffer:olen <- [DW_OP_plus_uconst 56] [$sp+0]
	@DEBUG_VALUE: mbedtls_pem_write_buffer:use_len <- [DW_OP_plus_uconst 24, DW_OP_deref] $sp
	@DEBUG_VALUE: mbedtls_pem_write_buffer:len <- 0
	.loc	2 0 0                           @ ../../../ThirdParty/mbedTLS/library/pem.c:0:0
	mov	r4, r0
.Ltmp270:
	@DEBUG_VALUE: mbedtls_pem_write_buffer:ret <- $r4
	.loc	2 463 9 is_stmt 1               @ ../../../ThirdParty/mbedTLS/library/pem.c:463:9
	mov	r0, r5
	bl	free
	.loc	2 464 9                         @ ../../../ThirdParty/mbedTLS/library/pem.c:464:9
	b	.LBB7_13
.Ltmp271:
.LBB7_6:
	@DEBUG_VALUE: mbedtls_pem_write_buffer:der_data <- $r6
	@DEBUG_VALUE: mbedtls_pem_write_buffer:ret <- $r0
	@DEBUG_VALUE: mbedtls_pem_write_buffer:encode_buf <- [DW_OP_plus_uconst 20] [$sp+0]
	@DEBUG_VALUE: mbedtls_pem_write_buffer:footer <- [DW_OP_plus_uconst 12] [$sp+0]
	@DEBUG_VALUE: mbedtls_pem_write_buffer:header <- [DW_OP_plus_uconst 16] [$sp+0]
	@DEBUG_VALUE: mbedtls_pem_write_buffer:buf <- [DW_OP_plus_uconst 48] [$sp+0]
	@DEBUG_VALUE: mbedtls_pem_write_buffer:buf_len <- [DW_OP_plus_uconst 52] [$sp+0]
	@DEBUG_VALUE: mbedtls_pem_write_buffer:olen <- [DW_OP_plus_uconst 56] [$sp+0]
	@DEBUG_VALUE: mbedtls_pem_write_buffer:use_len <- [DW_OP_plus_uconst 24, DW_OP_deref] $sp
	@DEBUG_VALUE: mbedtls_pem_write_buffer:len <- 0
	.loc	2 0 9 is_stmt 0                 @ ../../../ThirdParty/mbedTLS/library/pem.c:0:9
	ldr	r4, [sp, #48]
.Ltmp272:
	@DEBUG_VALUE: mbedtls_pem_write_buffer:p <- $r4
	ldr	r5, [sp, #16]                   @ 4-byte Reload
	.loc	2 467 24 is_stmt 1              @ ../../../ThirdParty/mbedTLS/library/pem.c:467:24
	mov	r0, r5
.Ltmp273:
	bl	strlen
	mov	r2, r0
	.loc	2 467 5 is_stmt 0               @ ../../../ThirdParty/mbedTLS/library/pem.c:467:5
	mov	r0, r4
	mov	r1, r5
	bl	__aeabi_memcpy
	.loc	2 468 10 is_stmt 1              @ ../../../ThirdParty/mbedTLS/library/pem.c:468:10
	mov	r0, r5
	bl	strlen
	str	r4, [sp, #4]                    @ 4-byte Spill
.Ltmp274:
	@DEBUG_VALUE: mbedtls_pem_write_buffer:p <- [DW_OP_plus_uconst 4] [$sp+0]
	.loc	2 468 7 is_stmt 0               @ ../../../ThirdParty/mbedTLS/library/pem.c:468:7
	adds	r7, r4, r0
.Ltmp275:
	@DEBUG_VALUE: mbedtls_pem_write_buffer:c <- [DW_OP_plus_uconst 20] [$sp+0]
	@DEBUG_VALUE: mbedtls_pem_write_buffer:p <- $r7
	.loc	2 471 12 is_stmt 1              @ ../../../ThirdParty/mbedTLS/library/pem.c:471:12
	ldr	r5, [sp, #24]
.Ltmp276:
	@DEBUG_VALUE: mbedtls_pem_write_buffer:use_len <- $r5
	.loc	2 471 5 is_stmt 0               @ ../../../ThirdParty/mbedTLS/library/pem.c:471:5
	cbz	r5, .LBB7_11
.Ltmp277:
@ %bb.7:
	@DEBUG_VALUE: mbedtls_pem_write_buffer:p <- $r7
	@DEBUG_VALUE: mbedtls_pem_write_buffer:der_data <- $r6
	@DEBUG_VALUE: mbedtls_pem_write_buffer:use_len <- $r5
	@DEBUG_VALUE: mbedtls_pem_write_buffer:c <- [DW_OP_plus_uconst 20] [$sp+0]
	@DEBUG_VALUE: mbedtls_pem_write_buffer:encode_buf <- [DW_OP_plus_uconst 20] [$sp+0]
	@DEBUG_VALUE: mbedtls_pem_write_buffer:footer <- [DW_OP_plus_uconst 12] [$sp+0]
	@DEBUG_VALUE: mbedtls_pem_write_buffer:header <- [DW_OP_plus_uconst 16] [$sp+0]
	@DEBUG_VALUE: mbedtls_pem_write_buffer:buf <- [DW_OP_plus_uconst 48] [$sp+0]
	@DEBUG_VALUE: mbedtls_pem_write_buffer:buf_len <- [DW_OP_plus_uconst 52] [$sp+0]
	@DEBUG_VALUE: mbedtls_pem_write_buffer:olen <- [DW_OP_plus_uconst 56] [$sp+0]
	@DEBUG_VALUE: mbedtls_pem_write_buffer:len <- 0
	.loc	2 0 5                           @ ../../../ThirdParty/mbedTLS/library/pem.c:0:5
	movs	r0, #64
	str	r0, [sp, #16]                   @ 4-byte Spill
	movs	r6, #10
.Ltmp278:
	ldr	r4, [sp, #20]                   @ 4-byte Reload
	b	.LBB7_9
.Ltmp279:
.LBB7_8:                                @   in Loop: Header=BB7_9 Depth=1
	@DEBUG_VALUE: mbedtls_pem_write_buffer:p <- $r7
	@DEBUG_VALUE: mbedtls_pem_write_buffer:c <- $r4
	@DEBUG_VALUE: mbedtls_pem_write_buffer:encode_buf <- [DW_OP_plus_uconst 20] [$sp+0]
	@DEBUG_VALUE: mbedtls_pem_write_buffer:footer <- [DW_OP_plus_uconst 12] [$sp+0]
	@DEBUG_VALUE: mbedtls_pem_write_buffer:header <- [DW_OP_plus_uconst 16] [$sp+0]
	@DEBUG_VALUE: mbedtls_pem_write_buffer:buf <- [DW_OP_plus_uconst 48] [$sp+0]
	@DEBUG_VALUE: mbedtls_pem_write_buffer:buf_len <- [DW_OP_plus_uconst 52] [$sp+0]
	@DEBUG_VALUE: mbedtls_pem_write_buffer:olen <- [DW_OP_plus_uconst 56] [$sp+0]
	@DEBUG_VALUE: mbedtls_pem_write_buffer:len <- $r5
	.loc	2 474 9 is_stmt 1               @ ../../../ThirdParty/mbedTLS/library/pem.c:474:9
	mov	r0, r7
	mov	r1, r4
	mov	r2, r5
	bl	__aeabi_memcpy
	.loc	2 475 17                        @ ../../../ThirdParty/mbedTLS/library/pem.c:475:17
	ldr	r0, [sp, #24]
.Ltmp280:
	@DEBUG_VALUE: mbedtls_pem_write_buffer:use_len <- $r0
	subs	r0, r0, r5
.Ltmp281:
	@DEBUG_VALUE: mbedtls_pem_write_buffer:use_len <- $r0
	str	r0, [sp, #24]
	.loc	2 478 14                        @ ../../../ThirdParty/mbedTLS/library/pem.c:478:14
	strb	r6, [r7, r5]
	.loc	2 477 11                        @ ../../../ThirdParty/mbedTLS/library/pem.c:477:11
	adds	r4, r4, r5
.Ltmp282:
	@DEBUG_VALUE: mbedtls_pem_write_buffer:c <- $r4
	.loc	2 476 11                        @ ../../../ThirdParty/mbedTLS/library/pem.c:476:11
	adds	r0, r7, r5
.Ltmp283:
	@DEBUG_VALUE: mbedtls_pem_write_buffer:p <- $r0
	.loc	2 478 11                        @ ../../../ThirdParty/mbedTLS/library/pem.c:478:11
	adds	r7, r0, #1
.Ltmp284:
	@DEBUG_VALUE: mbedtls_pem_write_buffer:p <- $r7
	.loc	2 471 12                        @ ../../../ThirdParty/mbedTLS/library/pem.c:471:12
	ldr	r5, [sp, #24]
.Ltmp285:
	@DEBUG_VALUE: mbedtls_pem_write_buffer:use_len <- $r5
	.loc	2 471 5 is_stmt 0               @ ../../../ThirdParty/mbedTLS/library/pem.c:471:5
	cbz	r5, .LBB7_11
.Ltmp286:
.LBB7_9:                                @ =>This Inner Loop Header: Depth=1
	@DEBUG_VALUE: mbedtls_pem_write_buffer:p <- $r7
	@DEBUG_VALUE: mbedtls_pem_write_buffer:use_len <- $r5
	@DEBUG_VALUE: mbedtls_pem_write_buffer:encode_buf <- [DW_OP_plus_uconst 20] [$sp+0]
	@DEBUG_VALUE: mbedtls_pem_write_buffer:footer <- [DW_OP_plus_uconst 12] [$sp+0]
	@DEBUG_VALUE: mbedtls_pem_write_buffer:header <- [DW_OP_plus_uconst 16] [$sp+0]
	@DEBUG_VALUE: mbedtls_pem_write_buffer:buf <- [DW_OP_plus_uconst 48] [$sp+0]
	@DEBUG_VALUE: mbedtls_pem_write_buffer:buf_len <- [DW_OP_plus_uconst 52] [$sp+0]
	@DEBUG_VALUE: mbedtls_pem_write_buffer:olen <- [DW_OP_plus_uconst 56] [$sp+0]
	@DEBUG_VALUE: mbedtls_pem_write_buffer:p <- $r7
	@DEBUG_VALUE: mbedtls_pem_write_buffer:c <- $r4
	.loc	2 473 15 is_stmt 1              @ ../../../ThirdParty/mbedTLS/library/pem.c:473:15
	cmp	r5, #64
	blo	.LBB7_8
.Ltmp287:
@ %bb.10:                               @   in Loop: Header=BB7_9 Depth=1
	@DEBUG_VALUE: mbedtls_pem_write_buffer:p <- $r7
	@DEBUG_VALUE: mbedtls_pem_write_buffer:use_len <- $r5
	@DEBUG_VALUE: mbedtls_pem_write_buffer:c <- $r4
	@DEBUG_VALUE: mbedtls_pem_write_buffer:encode_buf <- [DW_OP_plus_uconst 20] [$sp+0]
	@DEBUG_VALUE: mbedtls_pem_write_buffer:footer <- [DW_OP_plus_uconst 12] [$sp+0]
	@DEBUG_VALUE: mbedtls_pem_write_buffer:header <- [DW_OP_plus_uconst 16] [$sp+0]
	@DEBUG_VALUE: mbedtls_pem_write_buffer:buf <- [DW_OP_plus_uconst 48] [$sp+0]
	@DEBUG_VALUE: mbedtls_pem_write_buffer:buf_len <- [DW_OP_plus_uconst 52] [$sp+0]
	@DEBUG_VALUE: mbedtls_pem_write_buffer:olen <- [DW_OP_plus_uconst 56] [$sp+0]
	ldr	r5, [sp, #16]                   @ 4-byte Reload
.Ltmp288:
	.loc	2 0 15 is_stmt 0                @ ../../../ThirdParty/mbedTLS/library/pem.c:0:15
	b	.LBB7_8
.Ltmp289:
.LBB7_11:
	@DEBUG_VALUE: mbedtls_pem_write_buffer:p <- $r7
	@DEBUG_VALUE: mbedtls_pem_write_buffer:use_len <- $r5
	@DEBUG_VALUE: mbedtls_pem_write_buffer:encode_buf <- [DW_OP_plus_uconst 20] [$sp+0]
	@DEBUG_VALUE: mbedtls_pem_write_buffer:footer <- [DW_OP_plus_uconst 12] [$sp+0]
	@DEBUG_VALUE: mbedtls_pem_write_buffer:header <- [DW_OP_plus_uconst 16] [$sp+0]
	@DEBUG_VALUE: mbedtls_pem_write_buffer:buf <- [DW_OP_plus_uconst 48] [$sp+0]
	@DEBUG_VALUE: mbedtls_pem_write_buffer:buf_len <- [DW_OP_plus_uconst 52] [$sp+0]
	@DEBUG_VALUE: mbedtls_pem_write_buffer:olen <- [DW_OP_plus_uconst 56] [$sp+0]
	@DEBUG_VALUE: mbedtls_pem_write_buffer:p <- $r7
	ldr	r4, [sp, #12]                   @ 4-byte Reload
	.loc	2 481 24 is_stmt 1              @ ../../../ThirdParty/mbedTLS/library/pem.c:481:24
	mov	r0, r4
	bl	strlen
	mov	r2, r0
	.loc	2 481 5 is_stmt 0               @ ../../../ThirdParty/mbedTLS/library/pem.c:481:5
	mov	r0, r7
	mov	r1, r4
	bl	__aeabi_memcpy
	.loc	2 482 10 is_stmt 1              @ ../../../ThirdParty/mbedTLS/library/pem.c:482:10
	mov	r0, r4
	bl	strlen
	movs	r4, #0
.Ltmp290:
	@DEBUG_VALUE: mbedtls_pem_write_buffer:p <- undef
	.loc	2 484 10                        @ ../../../ThirdParty/mbedTLS/library/pem.c:484:10
	strb	r4, [r7, r0]
	.loc	2 482 7                         @ ../../../ThirdParty/mbedTLS/library/pem.c:482:7
	adds	r0, r7, r0
.Ltmp291:
	@DEBUG_VALUE: mbedtls_pem_write_buffer:p <- $r0
	.loc	2 485 15                        @ ../../../ThirdParty/mbedTLS/library/pem.c:485:15
	ldr	r1, [sp, #4]                    @ 4-byte Reload
	subs	r0, r0, r1
.Ltmp292:
	adds	r0, r0, #1
	.loc	2 485 11 is_stmt 0              @ ../../../ThirdParty/mbedTLS/library/pem.c:485:11
	ldr	r1, [sp, #8]                    @ 4-byte Reload
	str	r0, [r1]
	.loc	2 487 5 is_stmt 1               @ ../../../ThirdParty/mbedTLS/library/pem.c:487:5
	ldr	r0, [sp, #20]                   @ 4-byte Reload
	bl	free
	b	.LBB7_13
.Ltmp293:
.LBB7_12:
	@DEBUG_VALUE: mbedtls_pem_write_buffer:use_len <- $r7
	@DEBUG_VALUE: mbedtls_pem_write_buffer:der_data <- $r6
	@DEBUG_VALUE: mbedtls_pem_write_buffer:der_len <- $r5
	@DEBUG_VALUE: mbedtls_pem_write_buffer:encode_buf <- [DW_OP_plus_uconst 20] [$sp+0]
	@DEBUG_VALUE: mbedtls_pem_write_buffer:footer <- [DW_OP_plus_uconst 12] [$sp+0]
	@DEBUG_VALUE: mbedtls_pem_write_buffer:header <- [DW_OP_plus_uconst 16] [$sp+0]
	@DEBUG_VALUE: mbedtls_pem_write_buffer:buf <- [DW_OP_plus_uconst 48] [$sp+0]
	@DEBUG_VALUE: mbedtls_pem_write_buffer:buf_len <- [DW_OP_plus_uconst 52] [$sp+0]
	@DEBUG_VALUE: mbedtls_pem_write_buffer:olen <- [DW_OP_plus_uconst 56] [$sp+0]
	@DEBUG_VALUE: mbedtls_pem_write_buffer:len <- 0
	.loc	2 0 5 is_stmt 0                 @ ../../../ThirdParty/mbedTLS/library/pem.c:0:5
	ldr	r4, __arm_cp.7_0
.Ltmp294:
.LBB7_13:
	@DEBUG_VALUE: mbedtls_pem_write_buffer:footer <- [DW_OP_plus_uconst 12] [$sp+0]
	@DEBUG_VALUE: mbedtls_pem_write_buffer:header <- [DW_OP_plus_uconst 16] [$sp+0]
	@DEBUG_VALUE: mbedtls_pem_write_buffer:buf <- [DW_OP_plus_uconst 48] [$sp+0]
	@DEBUG_VALUE: mbedtls_pem_write_buffer:buf_len <- [DW_OP_plus_uconst 52] [$sp+0]
	@DEBUG_VALUE: mbedtls_pem_write_buffer:olen <- [DW_OP_plus_uconst 56] [$sp+0]
	.loc	2 489 1 is_stmt 1               @ ../../../ThirdParty/mbedTLS/library/pem.c:489:1
	mov	r0, r4
	add	sp, #28
.Ltmp295:
	pop	{r4, r5, r6, r7, pc}
.Ltmp296:
	.p2align	2
@ %bb.14:
	.loc	2 0 1 is_stmt 0                 @ ../../../ThirdParty/mbedTLS/library/pem.c:0:1
__arm_cp.7_0:
	.long	4294962816                      @ 0xffffee80
.Lcpi_end7:
	.size	__arm_cp.7_0, .Lcpi_end7-__arm_cp.7_0
.Lfunc_end7:
	.size	mbedtls_pem_write_buffer, .Lfunc_end7-mbedtls_pem_write_buffer
	.cfi_endproc
	.cantunwind
	.fnend
                                        @ -- End function
	.section	.text.pem_pbkdf1,"ax",%progbits
	.p2align	1                               @ -- Begin function pem_pbkdf1
	.type	pem_pbkdf1,%function
	.code	16                              @ @pem_pbkdf1
	.thumb_func
pem_pbkdf1:
.Lfunc_begin8:
	.loc	2 85 0 is_stmt 1                @ ../../../ThirdParty/mbedTLS/library/pem.c:85:0
	.fnstart
	.cfi_startproc
@ %bb.0:
	@DEBUG_VALUE: pem_pbkdf1:key <- $r0
	@DEBUG_VALUE: pem_pbkdf1:keylen <- $r1
	@DEBUG_VALUE: pem_pbkdf1:iv <- $r2
	@DEBUG_VALUE: pem_pbkdf1:pwd <- $r3
	.save	{r4, r5, r6, r7, lr}
	push	{r4, r5, r6, r7, lr}
	.cfi_def_cfa_offset 20
	.cfi_offset lr, -4
	.cfi_offset r7, -8
	.cfi_offset r6, -12
	.cfi_offset r5, -16
	.cfi_offset r4, -20
	.pad	#116
	sub	sp, #116
	.cfi_def_cfa_offset 136
	mov	r7, r3
	mov	r6, r2
	str	r1, [sp, #8]                    @ 4-byte Spill
	str	r0, [sp, #4]                    @ 4-byte Spill
.Ltmp297:
	@DEBUG_VALUE: pem_pbkdf1:pwdlen <- [DW_OP_plus_uconst 136] [$sp+0]
	@DEBUG_VALUE: pem_pbkdf1:pwd <- $r7
	@DEBUG_VALUE: pem_pbkdf1:iv <- $r6
	@DEBUG_VALUE: pem_pbkdf1:keylen <- [DW_OP_plus_uconst 8] [$sp+0]
	@DEBUG_VALUE: pem_pbkdf1:key <- [DW_OP_plus_uconst 4] [$sp+0]
	add	r4, sp, #28
.Ltmp298:
	.loc	2 91 5 prologue_end             @ ../../../ThirdParty/mbedTLS/library/pem.c:91:5
	mov	r0, r4
	bl	mbedtls_md5_init
.Ltmp299:
	.loc	2 96 17                         @ ../../../ThirdParty/mbedTLS/library/pem.c:96:17
	mov	r0, r4
	bl	mbedtls_md5_starts_ret
	mov	r5, r0
.Ltmp300:
	@DEBUG_VALUE: pem_pbkdf1:ret <- $r5
	.loc	2 96 9 is_stmt 0                @ ../../../ThirdParty/mbedTLS/library/pem.c:96:9
	cmp	r0, #0
	bne	.LBB8_15
.Ltmp301:
@ %bb.1:
	@DEBUG_VALUE: pem_pbkdf1:pwd <- $r7
	@DEBUG_VALUE: pem_pbkdf1:iv <- $r6
	@DEBUG_VALUE: pem_pbkdf1:ret <- $r5
	@DEBUG_VALUE: pem_pbkdf1:key <- [DW_OP_plus_uconst 4] [$sp+0]
	@DEBUG_VALUE: pem_pbkdf1:keylen <- [DW_OP_plus_uconst 8] [$sp+0]
	@DEBUG_VALUE: pem_pbkdf1:pwdlen <- [DW_OP_plus_uconst 136] [$sp+0]
	.loc	2 0 9                           @ ../../../ThirdParty/mbedTLS/library/pem.c:0:9
	ldr	r4, [sp, #136]
	add	r0, sp, #28
.Ltmp302:
	.loc	2 98 17 is_stmt 1               @ ../../../ThirdParty/mbedTLS/library/pem.c:98:17
	mov	r1, r7
	mov	r2, r4
	bl	mbedtls_md5_update_ret
	mov	r5, r0
.Ltmp303:
	@DEBUG_VALUE: pem_pbkdf1:ret <- $r5
	.loc	2 98 9 is_stmt 0                @ ../../../ThirdParty/mbedTLS/library/pem.c:98:9
	cmp	r0, #0
	bne	.LBB8_15
.Ltmp304:
@ %bb.2:
	@DEBUG_VALUE: pem_pbkdf1:pwd <- $r7
	@DEBUG_VALUE: pem_pbkdf1:iv <- $r6
	@DEBUG_VALUE: pem_pbkdf1:ret <- $r5
	@DEBUG_VALUE: pem_pbkdf1:key <- [DW_OP_plus_uconst 4] [$sp+0]
	@DEBUG_VALUE: pem_pbkdf1:keylen <- [DW_OP_plus_uconst 8] [$sp+0]
	@DEBUG_VALUE: pem_pbkdf1:pwdlen <- [DW_OP_plus_uconst 136] [$sp+0]
	.loc	2 0 9                           @ ../../../ThirdParty/mbedTLS/library/pem.c:0:9
	add	r0, sp, #28
	movs	r2, #8
.Ltmp305:
	.loc	2 100 17 is_stmt 1              @ ../../../ThirdParty/mbedTLS/library/pem.c:100:17
	mov	r1, r6
	bl	mbedtls_md5_update_ret
	mov	r5, r0
.Ltmp306:
	@DEBUG_VALUE: pem_pbkdf1:ret <- $r5
	.loc	2 100 9 is_stmt 0               @ ../../../ThirdParty/mbedTLS/library/pem.c:100:9
	cmp	r0, #0
	bne	.LBB8_15
.Ltmp307:
@ %bb.3:
	@DEBUG_VALUE: pem_pbkdf1:pwd <- $r7
	@DEBUG_VALUE: pem_pbkdf1:iv <- $r6
	@DEBUG_VALUE: pem_pbkdf1:ret <- $r5
	@DEBUG_VALUE: pem_pbkdf1:key <- [DW_OP_plus_uconst 4] [$sp+0]
	@DEBUG_VALUE: pem_pbkdf1:keylen <- [DW_OP_plus_uconst 8] [$sp+0]
	@DEBUG_VALUE: pem_pbkdf1:pwdlen <- [DW_OP_plus_uconst 136] [$sp+0]
	.loc	2 0 9                           @ ../../../ThirdParty/mbedTLS/library/pem.c:0:9
	add	r0, sp, #28
	add	r1, sp, #12
.Ltmp308:
	.loc	2 102 17 is_stmt 1              @ ../../../ThirdParty/mbedTLS/library/pem.c:102:17
	bl	mbedtls_md5_finish_ret
	mov	r5, r0
.Ltmp309:
	@DEBUG_VALUE: pem_pbkdf1:ret <- $r5
	.loc	2 102 9 is_stmt 0               @ ../../../ThirdParty/mbedTLS/library/pem.c:102:9
	cbnz	r0, .LBB8_15
.Ltmp310:
@ %bb.4:
	@DEBUG_VALUE: pem_pbkdf1:pwd <- $r7
	@DEBUG_VALUE: pem_pbkdf1:iv <- $r6
	@DEBUG_VALUE: pem_pbkdf1:ret <- $r5
	@DEBUG_VALUE: pem_pbkdf1:key <- [DW_OP_plus_uconst 4] [$sp+0]
	@DEBUG_VALUE: pem_pbkdf1:keylen <- [DW_OP_plus_uconst 8] [$sp+0]
	@DEBUG_VALUE: pem_pbkdf1:pwdlen <- [DW_OP_plus_uconst 136] [$sp+0]
	.loc	2 0 9                           @ ../../../ThirdParty/mbedTLS/library/pem.c:0:9
	ldr	r2, [sp, #8]                    @ 4-byte Reload
	.loc	2 105 9 is_stmt 1               @ ../../../ThirdParty/mbedTLS/library/pem.c:105:9
	cmp	r2, #16
	bhi	.LBB8_6
.Ltmp311:
@ %bb.5:
	@DEBUG_VALUE: pem_pbkdf1:pwd <- $r7
	@DEBUG_VALUE: pem_pbkdf1:iv <- $r6
	@DEBUG_VALUE: pem_pbkdf1:ret <- $r5
	@DEBUG_VALUE: pem_pbkdf1:key <- [DW_OP_plus_uconst 4] [$sp+0]
	@DEBUG_VALUE: pem_pbkdf1:keylen <- [DW_OP_plus_uconst 8] [$sp+0]
	@DEBUG_VALUE: pem_pbkdf1:pwdlen <- [DW_OP_plus_uconst 136] [$sp+0]
	.loc	2 0 9 is_stmt 0                 @ ../../../ThirdParty/mbedTLS/library/pem.c:0:9
	add	r1, sp, #12
.Ltmp312:
	.loc	2 107 9 is_stmt 1               @ ../../../ThirdParty/mbedTLS/library/pem.c:107:9
	ldr	r0, [sp, #4]                    @ 4-byte Reload
	bl	__aeabi_memcpy
	movs	r5, #0
.Ltmp313:
	.loc	2 108 9                         @ ../../../ThirdParty/mbedTLS/library/pem.c:108:9
	b	.LBB8_15
.Ltmp314:
.LBB8_6:
	@DEBUG_VALUE: pem_pbkdf1:pwd <- $r7
	@DEBUG_VALUE: pem_pbkdf1:iv <- $r6
	@DEBUG_VALUE: pem_pbkdf1:ret <- $r5
	@DEBUG_VALUE: pem_pbkdf1:key <- [DW_OP_plus_uconst 4] [$sp+0]
	@DEBUG_VALUE: pem_pbkdf1:keylen <- [DW_OP_plus_uconst 8] [$sp+0]
	@DEBUG_VALUE: pem_pbkdf1:pwdlen <- [DW_OP_plus_uconst 136] [$sp+0]
	.loc	2 0 9 is_stmt 0                 @ ../../../ThirdParty/mbedTLS/library/pem.c:0:9
	add	r1, sp, #12
	movs	r2, #16
	.loc	2 111 5 is_stmt 1               @ ../../../ThirdParty/mbedTLS/library/pem.c:111:5
	ldr	r0, [sp, #4]                    @ 4-byte Reload
	bl	__aeabi_memcpy
	add	r0, sp, #28
.Ltmp315:
	.loc	2 116 17                        @ ../../../ThirdParty/mbedTLS/library/pem.c:116:17
	bl	mbedtls_md5_starts_ret
	mov	r5, r0
.Ltmp316:
	@DEBUG_VALUE: pem_pbkdf1:ret <- $r5
	.loc	2 116 9 is_stmt 0               @ ../../../ThirdParty/mbedTLS/library/pem.c:116:9
	cbnz	r0, .LBB8_15
.Ltmp317:
@ %bb.7:
	@DEBUG_VALUE: pem_pbkdf1:pwd <- $r7
	@DEBUG_VALUE: pem_pbkdf1:iv <- $r6
	@DEBUG_VALUE: pem_pbkdf1:ret <- $r5
	@DEBUG_VALUE: pem_pbkdf1:key <- [DW_OP_plus_uconst 4] [$sp+0]
	@DEBUG_VALUE: pem_pbkdf1:keylen <- [DW_OP_plus_uconst 8] [$sp+0]
	@DEBUG_VALUE: pem_pbkdf1:pwdlen <- [DW_OP_plus_uconst 136] [$sp+0]
	.loc	2 0 9                           @ ../../../ThirdParty/mbedTLS/library/pem.c:0:9
	add	r0, sp, #28
	add	r1, sp, #12
	movs	r2, #16
	str	r2, [sp]                        @ 4-byte Spill
.Ltmp318:
	.loc	2 118 17 is_stmt 1              @ ../../../ThirdParty/mbedTLS/library/pem.c:118:17
	bl	mbedtls_md5_update_ret
	mov	r5, r0
.Ltmp319:
	@DEBUG_VALUE: pem_pbkdf1:ret <- $r5
	.loc	2 118 9 is_stmt 0               @ ../../../ThirdParty/mbedTLS/library/pem.c:118:9
	cbnz	r0, .LBB8_15
.Ltmp320:
@ %bb.8:
	@DEBUG_VALUE: pem_pbkdf1:pwd <- $r7
	@DEBUG_VALUE: pem_pbkdf1:iv <- $r6
	@DEBUG_VALUE: pem_pbkdf1:ret <- $r5
	@DEBUG_VALUE: pem_pbkdf1:key <- [DW_OP_plus_uconst 4] [$sp+0]
	@DEBUG_VALUE: pem_pbkdf1:keylen <- [DW_OP_plus_uconst 8] [$sp+0]
	@DEBUG_VALUE: pem_pbkdf1:pwdlen <- [DW_OP_plus_uconst 136] [$sp+0]
	.loc	2 0 9                           @ ../../../ThirdParty/mbedTLS/library/pem.c:0:9
	add	r0, sp, #28
.Ltmp321:
	.loc	2 120 17 is_stmt 1              @ ../../../ThirdParty/mbedTLS/library/pem.c:120:17
	mov	r1, r7
	mov	r2, r4
	bl	mbedtls_md5_update_ret
	mov	r5, r0
.Ltmp322:
	@DEBUG_VALUE: pem_pbkdf1:ret <- $r5
	.loc	2 120 9 is_stmt 0               @ ../../../ThirdParty/mbedTLS/library/pem.c:120:9
	cbnz	r0, .LBB8_15
.Ltmp323:
@ %bb.9:
	@DEBUG_VALUE: pem_pbkdf1:pwd <- $r7
	@DEBUG_VALUE: pem_pbkdf1:iv <- $r6
	@DEBUG_VALUE: pem_pbkdf1:ret <- $r5
	@DEBUG_VALUE: pem_pbkdf1:key <- [DW_OP_plus_uconst 4] [$sp+0]
	@DEBUG_VALUE: pem_pbkdf1:keylen <- [DW_OP_plus_uconst 8] [$sp+0]
	@DEBUG_VALUE: pem_pbkdf1:pwdlen <- [DW_OP_plus_uconst 136] [$sp+0]
	.loc	2 0 9                           @ ../../../ThirdParty/mbedTLS/library/pem.c:0:9
	add	r0, sp, #28
	movs	r2, #8
.Ltmp324:
	.loc	2 122 17 is_stmt 1              @ ../../../ThirdParty/mbedTLS/library/pem.c:122:17
	mov	r1, r6
	bl	mbedtls_md5_update_ret
	mov	r5, r0
.Ltmp325:
	@DEBUG_VALUE: pem_pbkdf1:ret <- $r5
	.loc	2 122 9 is_stmt 0               @ ../../../ThirdParty/mbedTLS/library/pem.c:122:9
	cbnz	r0, .LBB8_15
.Ltmp326:
@ %bb.10:
	@DEBUG_VALUE: pem_pbkdf1:pwd <- $r7
	@DEBUG_VALUE: pem_pbkdf1:iv <- $r6
	@DEBUG_VALUE: pem_pbkdf1:ret <- $r5
	@DEBUG_VALUE: pem_pbkdf1:key <- [DW_OP_plus_uconst 4] [$sp+0]
	@DEBUG_VALUE: pem_pbkdf1:keylen <- [DW_OP_plus_uconst 8] [$sp+0]
	@DEBUG_VALUE: pem_pbkdf1:pwdlen <- [DW_OP_plus_uconst 136] [$sp+0]
	.loc	2 0 9                           @ ../../../ThirdParty/mbedTLS/library/pem.c:0:9
	add	r0, sp, #28
	add	r1, sp, #12
.Ltmp327:
	.loc	2 124 17 is_stmt 1              @ ../../../ThirdParty/mbedTLS/library/pem.c:124:17
	bl	mbedtls_md5_finish_ret
	mov	r5, r0
.Ltmp328:
	@DEBUG_VALUE: pem_pbkdf1:ret <- $r5
	.loc	2 124 9 is_stmt 0               @ ../../../ThirdParty/mbedTLS/library/pem.c:124:9
	cbnz	r0, .LBB8_15
.Ltmp329:
@ %bb.11:
	@DEBUG_VALUE: pem_pbkdf1:pwd <- $r7
	@DEBUG_VALUE: pem_pbkdf1:iv <- $r6
	@DEBUG_VALUE: pem_pbkdf1:ret <- $r5
	@DEBUG_VALUE: pem_pbkdf1:key <- [DW_OP_plus_uconst 4] [$sp+0]
	@DEBUG_VALUE: pem_pbkdf1:keylen <- [DW_OP_plus_uconst 8] [$sp+0]
	@DEBUG_VALUE: pem_pbkdf1:pwdlen <- [DW_OP_plus_uconst 136] [$sp+0]
	@DEBUG_VALUE: pem_pbkdf1:use_len <- 16
	.loc	2 128 9 is_stmt 1               @ ../../../ThirdParty/mbedTLS/library/pem.c:128:9
	ldr	r0, [sp, #8]                    @ 4-byte Reload
	cmp	r0, #32
	blo	.LBB8_13
.Ltmp330:
@ %bb.12:
	@DEBUG_VALUE: pem_pbkdf1:pwd <- $r7
	@DEBUG_VALUE: pem_pbkdf1:iv <- $r6
	@DEBUG_VALUE: pem_pbkdf1:ret <- $r5
	@DEBUG_VALUE: pem_pbkdf1:key <- [DW_OP_plus_uconst 4] [$sp+0]
	@DEBUG_VALUE: pem_pbkdf1:keylen <- [DW_OP_plus_uconst 8] [$sp+0]
	@DEBUG_VALUE: pem_pbkdf1:pwdlen <- [DW_OP_plus_uconst 136] [$sp+0]
	@DEBUG_VALUE: pem_pbkdf1:use_len <- 16
	ldr	r2, [sp]                        @ 4-byte Reload
	b	.LBB8_14
.Ltmp331:
.LBB8_13:
	@DEBUG_VALUE: pem_pbkdf1:pwd <- $r7
	@DEBUG_VALUE: pem_pbkdf1:iv <- $r6
	@DEBUG_VALUE: pem_pbkdf1:ret <- $r5
	@DEBUG_VALUE: pem_pbkdf1:key <- [DW_OP_plus_uconst 4] [$sp+0]
	@DEBUG_VALUE: pem_pbkdf1:keylen <- [DW_OP_plus_uconst 8] [$sp+0]
	@DEBUG_VALUE: pem_pbkdf1:pwdlen <- [DW_OP_plus_uconst 136] [$sp+0]
	@DEBUG_VALUE: pem_pbkdf1:use_len <- 16
	.loc	2 0 9 is_stmt 0                 @ ../../../ThirdParty/mbedTLS/library/pem.c:0:9
	ldr	r2, [sp, #8]                    @ 4-byte Reload
	subs	r2, #16
.Ltmp332:
.LBB8_14:
	@DEBUG_VALUE: pem_pbkdf1:pwd <- $r7
	@DEBUG_VALUE: pem_pbkdf1:iv <- $r6
	@DEBUG_VALUE: pem_pbkdf1:ret <- $r5
	@DEBUG_VALUE: pem_pbkdf1:key <- [DW_OP_plus_uconst 4] [$sp+0]
	@DEBUG_VALUE: pem_pbkdf1:keylen <- [DW_OP_plus_uconst 8] [$sp+0]
	@DEBUG_VALUE: pem_pbkdf1:pwdlen <- [DW_OP_plus_uconst 136] [$sp+0]
	@DEBUG_VALUE: pem_pbkdf1:use_len <- 16
	@DEBUG_VALUE: pem_pbkdf1:use_len <- $r2
	ldr	r0, [sp, #4]                    @ 4-byte Reload
	.loc	2 131 17 is_stmt 1              @ ../../../ThirdParty/mbedTLS/library/pem.c:131:17
	adds	r0, #16
	add	r1, sp, #12
	.loc	2 131 5 is_stmt 0               @ ../../../ThirdParty/mbedTLS/library/pem.c:131:5
	bl	__aeabi_memcpy
.Ltmp333:
	.loc	2 0 5                           @ ../../../ThirdParty/mbedTLS/library/pem.c:0:5
	movs	r5, #0
.Ltmp334:
.LBB8_15:
	@DEBUG_VALUE: pem_pbkdf1:pwd <- $r7
	@DEBUG_VALUE: pem_pbkdf1:iv <- $r6
	@DEBUG_VALUE: pem_pbkdf1:key <- [DW_OP_plus_uconst 4] [$sp+0]
	@DEBUG_VALUE: pem_pbkdf1:keylen <- [DW_OP_plus_uconst 8] [$sp+0]
	@DEBUG_VALUE: pem_pbkdf1:pwdlen <- [DW_OP_plus_uconst 136] [$sp+0]
	@DEBUG_VALUE: pem_pbkdf1:ret <- $r5
	@DEBUG_LABEL: pem_pbkdf1:exit
	add	r0, sp, #28
	.loc	2 134 5 is_stmt 1               @ ../../../ThirdParty/mbedTLS/library/pem.c:134:5
	bl	mbedtls_md5_free
	add	r0, sp, #12
	movs	r1, #16
	.loc	2 135 5                         @ ../../../ThirdParty/mbedTLS/library/pem.c:135:5
	bl	mbedtls_platform_zeroize
	.loc	2 137 5                         @ ../../../ThirdParty/mbedTLS/library/pem.c:137:5
	mov	r0, r5
	add	sp, #116
.Ltmp335:
	pop	{r4, r5, r6, r7, pc}
.Ltmp336:
.Lfunc_end8:
	.size	pem_pbkdf1, .Lfunc_end8-pem_pbkdf1
	.cfi_endproc
	.cantunwind
	.fnend
                                        @ -- End function
	.type	.L.str.6,%object                @ @.str.6
	.section	.rodata.str1.1,"aMS",%progbits,1
.L.str.6:
	.asciz	"DEK-Info: AES-256-CBC,"
	.size	.L.str.6, 23

	.file	3 "C:\\Users\\shw26\\OneDrive\\Desktop\\2021\\2021-1\\\354\272\241\354\212\244\355\206\244\353\224\224\354\236\220\354\235\2702\\Nuvoton\\M2351_BSP_v3.00.004\\M2351Series_BSP_CMSIS_V3.00.004\\MyProject\\PulseMonitoring\\Secure" "../../../ThirdParty/mbedTLS/include/mbedtls\\pem.h"
	.file	4 "C:\\" "Keil_v5\\ARM\\ARMCLANG\\Bin\\..\\include\\stddef.h"
	.file	5 "C:\\" "Keil_v5\\ARM\\ARMCLANG\\Bin\\..\\include\\stdint.h"
	.file	6 "C:\\Users\\shw26\\OneDrive\\Desktop\\2021\\2021-1\\\354\272\241\354\212\244\355\206\244\353\224\224\354\236\220\354\235\2702\\Nuvoton\\M2351_BSP_v3.00.004\\M2351Series_BSP_CMSIS_V3.00.004\\MyProject\\PulseMonitoring\\Secure" "../../../ThirdParty/mbedTLS/include/mbedtls\\des.h"
	.file	7 "C:\\Users\\shw26\\OneDrive\\Desktop\\2021\\2021-1\\\354\272\241\354\212\244\355\206\244\353\224\224\354\236\220\354\235\2702\\Nuvoton\\M2351_BSP_v3.00.004\\M2351Series_BSP_CMSIS_V3.00.004\\MyProject\\PulseMonitoring\\Secure" "../../../ThirdParty/mbedTLS/include/mbedtls\\aes.h"
	.file	8 "C:\\Users\\shw26\\OneDrive\\Desktop\\2021\\2021-1\\\354\272\241\354\212\244\355\206\244\353\224\224\354\236\220\354\235\2702\\Nuvoton\\M2351_BSP_v3.00.004\\M2351Series_BSP_CMSIS_V3.00.004\\MyProject\\PulseMonitoring\\Secure" "../../../ThirdParty/mbedTLS/include/mbedtls\\md5.h"
	.section	".note.GNU-stack","",%progbits
	.eabi_attribute	30, 1	@ Tag_ABI_optimization_goals
	.ARM_attribute	16, 1	@ Tag_AV_eba