	.text
	.syntax unified
	.eabi_attribute	67, "2.09"	@ Tag_conformance
	.cpu	cortex-m23
	.eabi_attribute	6, 16	@ Tag_CPU_arch
	.eabi_attribute	7, 77	@ Tag_CPU_arch_profile
	.eabi_attribute	8, 0	@ Tag_ARM_ISA_use
	.eabi_attribute	9, 3	@ Tag_THUMB_ISA_use
	.eabi_attribute	34, 0	@ Tag_CPU_unaligned_access
	.eabi_attribute	17, 1	@ Tag_ABI_PCS_GOT_use
	.eabi_attribute	20, 2	@ Tag_ABI_FP_denormal
	.eabi_attribute	21, 0	@ Tag_ABI_FP_exceptions
	.eabi_attribute	23, 1	@ Tag_ABI_FP_number_model
	.eabi_attribute	24, 1	@ Tag_ABI_align_needed
	.eabi_attribute	25, 1	@ Tag_ABI_align_preserved
	.eabi_attribute	38, 1	@ Tag_ABI_FP_16bit_format
	.eabi_attribute	18, 2	@ Tag_ABI_PCS_wchar_t
	.eabi_attribute	26, 1	@ Tag_ABI_enum_size
	.eabi_attribute	14, 0	@ Tag_ABI_PCS_R9_use
	.file	"pk.c"
	.file	1 "C:\\Users\\shw26\\OneDrive\\Desktop\\2021\\2021-1\\\354\272\241\354\212\244\355\206\244\353\224\224\354\236\220\354\235\2702\\Nuvoton\\M2351_BSP_v3.00.004\\M2351Series_BSP_CMSIS_V3.00.004\\MyProject\\PulseMonitoring\\Secure" "../../../ThirdParty/mbedTLS/include/mbedtls/pk.h"
	.file	2 "C:\\Users\\shw26\\OneDrive\\Desktop\\2021\\2021-1\\\354\272\241\354\212\244\355\206\244\353\224\224\354\236\220\354\235\2702\\Nuvoton\\M2351_BSP_v3.00.004\\M2351Series_BSP_CMSIS_V3.00.004\\MyProject\\PulseMonitoring\\Secure" "../../../ThirdParty/mbedTLS/include/mbedtls/md.h"
	.file	3 "C:\\Users\\shw26\\OneDrive\\Desktop\\2021\\2021-1\\\354\272\241\354\212\244\355\206\244\353\224\224\354\236\220\354\235\2702\\Nuvoton\\M2351_BSP_v3.00.004\\M2351Series_BSP_CMSIS_V3.00.004\\MyProject\\PulseMonitoring\\Secure" "../../../ThirdParty/mbedTLS/include/mbedtls\\pk_internal.h"
	.file	4 "C:\\" "Keil_v5\\ARM\\ARMCLANG\\Bin\\..\\include\\stddef.h"
	.file	5 "C:\\Users\\shw26\\OneDrive\\Desktop\\2021\\2021-1\\\354\272\241\354\212\244\355\206\244\353\224\224\354\236\220\354\235\2702\\Nuvoton\\M2351_BSP_v3.00.004\\M2351Series_BSP_CMSIS_V3.00.004\\MyProject\\PulseMonitoring\\Secure" "../../../ThirdParty/mbedTLS/include/mbedtls\\rsa.h"
	.file	6 "C:\\Users\\shw26\\OneDrive\\Desktop\\2021\\2021-1\\\354\272\241\354\212\244\355\206\244\353\224\224\354\236\220\354\235\2702\\Nuvoton\\M2351_BSP_v3.00.004\\M2351Series_BSP_CMSIS_V3.00.004\\MyProject\\PulseMonitoring\\Secure" "../../../ThirdParty/mbedTLS/include/mbedtls/bignum.h"
	.file	7 "C:\\" "Keil_v5\\ARM\\ARMCLANG\\Bin\\..\\include\\stdint.h"
	.section	.text.mbedtls_pk_init,"ax",%progbits
	.hidden	mbedtls_pk_init                 @ -- Begin function mbedtls_pk_init
	.globl	mbedtls_pk_init
	.p2align	1
	.type	mbedtls_pk_init,%function
	.code	16                              @ @mbedtls_pk_init
	.thumb_func
mbedtls_pk_init:
.Lfunc_begin0:
	.file	8 "C:\\Users\\shw26\\OneDrive\\Desktop\\2021\\2021-1\\\354\272\241\354\212\244\355\206\244\353\224\224\354\236\220\354\235\2702\\Nuvoton\\M2351_BSP_v3.00.004\\M2351Series_BSP_CMSIS_V3.00.004\\MyProject\\PulseMonitoring\\Secure" "../../../ThirdParty/mbedTLS/library/pk.c"
	.loc	8 61 0                          @ ../../../ThirdParty/mbedTLS/library/pk.c:61:0
	.fnstart
	.cfi_sections .debug_frame
	.cfi_startproc
@ %bb.0:
	@DEBUG_VALUE: mbedtls_pk_init:ctx <- $r0
	movs	r1, #0
	@DEBUG_VALUE: mbedtls_pk_init:ctx <- $r0
.Ltmp0:
	.loc	8 64 18 prologue_end            @ ../../../ThirdParty/mbedTLS/library/pk.c:64:18
	str	r1, [r0]
	.loc	8 65 17                         @ ../../../ThirdParty/mbedTLS/library/pk.c:65:17
	str	r1, [r0, #4]
	.loc	8 66 1                          @ ../../../ThirdParty/mbedTLS/library/pk.c:66:1
	bx	lr
.Ltmp1:
.Lfunc_end0:
	.size	mbedtls_pk_init, .Lfunc_end0-mbedtls_pk_init
	.cfi_endproc
	.cantunwind
	.fnend
                                        @ -- End function
	.section	.text.mbedtls_pk_free,"ax",%progbits
	.hidden	mbedtls_pk_free                 @ -- Begin function mbedtls_pk_free
	.globl	mbedtls_pk_free
	.p2align	1
	.type	mbedtls_pk_free,%function
	.code	16                              @ @mbedtls_pk_free
	.thumb_func
mbedtls_pk_free:
.Lfunc_begin1:
	.loc	8 72 0                          @ ../../../ThirdParty/mbedTLS/library/pk.c:72:0
	.fnstart
	.cfi_startproc
@ %bb.0:
	@DEBUG_VALUE: mbedtls_pk_free:ctx <- $r0
	@DEBUG_VALUE: mbedtls_pk_free:ctx <- $r0
	.save	{r4, lr}
	push	{r4, lr}
	.cfi_def_cfa_offset 8
	.cfi_offset lr, -4
	.cfi_offset r4, -8
.Ltmp2:
	.loc	8 73 9 prologue_end             @ ../../../ThirdParty/mbedTLS/library/pk.c:73:9
	cbz	r0, .LBB1_4
.Ltmp3:
@ %bb.1:
	@DEBUG_VALUE: mbedtls_pk_free:ctx <- $r0
	.loc	8 0 9 is_stmt 0                 @ ../../../ThirdParty/mbedTLS/library/pk.c:0:9
	mov	r4, r0
.Ltmp4:
	@DEBUG_VALUE: mbedtls_pk_free:ctx <- $r4
	.loc	8 76 15 is_stmt 1               @ ../../../ThirdParty/mbedTLS/library/pk.c:76:15
	ldr	r1, [r0]
.Ltmp5:
	.loc	8 76 10 is_stmt 0               @ ../../../ThirdParty/mbedTLS/library/pk.c:76:10
	cbz	r1, .LBB1_3
.Ltmp6:
@ %bb.2:
	@DEBUG_VALUE: mbedtls_pk_free:ctx <- $r4
	.loc	8 77 43 is_stmt 1               @ ../../../ThirdParty/mbedTLS/library/pk.c:77:43
	ldr	r0, [r4, #4]
	.loc	8 77 23 is_stmt 0               @ ../../../ThirdParty/mbedTLS/library/pk.c:77:23
	ldr	r1, [r1, #40]
	.loc	8 77 9                          @ ../../../ThirdParty/mbedTLS/library/pk.c:77:9
	blx	r1
.Ltmp7:
.LBB1_3:
	@DEBUG_VALUE: mbedtls_pk_free:ctx <- $r4
	.loc	8 0 9                           @ ../../../ThirdParty/mbedTLS/library/pk.c:0:9
	movs	r1, #8
	.loc	8 79 5 is_stmt 1                @ ../../../ThirdParty/mbedTLS/library/pk.c:79:5
	mov	r0, r4
	bl	mbedtls_platform_zeroize
.Ltmp8:
.LBB1_4:
	.loc	8 80 1                          @ ../../../ThirdParty/mbedTLS/library/pk.c:80:1
	pop	{r4, pc}
.Ltmp9:
.Lfunc_end1:
	.size	mbedtls_pk_free, .Lfunc_end1-mbedtls_pk_free
	.cfi_endproc
	.cantunwind
	.fnend
                                        @ -- End function
	.section	.text.mbedtls_pk_info_from_type,"ax",%progbits
	.hidden	mbedtls_pk_info_from_type       @ -- Begin function mbedtls_pk_info_from_type
	.globl	mbedtls_pk_info_from_type
	.p2align	2
	.type	mbedtls_pk_info_from_type,%function
	.code	16                              @ @mbedtls_pk_info_from_type
	.thumb_func
mbedtls_pk_info_from_type:
.Lfunc_begin2:
	.loc	8 115 0                         @ ../../../ThirdParty/mbedTLS/library/pk.c:115:0
	.fnstart
	.cfi_startproc
@ %bb.0:
	@DEBUG_VALUE: mbedtls_pk_info_from_type:pk_type <- $r0
	@DEBUG_VALUE: mbedtls_pk_info_from_type:pk_type <- $r0
	.loc	8 116 5 prologue_end            @ ../../../ThirdParty/mbedTLS/library/pk.c:116:5
	subs	r0, r0, #1
.Ltmp10:
	@DEBUG_VALUE: mbedtls_pk_info_from_type:pk_type <- [DW_OP_LLVM_entry_value 1] $r0
	uxtb	r1, r0
	cmp	r1, #3
	bhi	.LBB2_2
.Ltmp11:
@ %bb.1:
	@DEBUG_VALUE: mbedtls_pk_info_from_type:pk_type <- [DW_OP_LLVM_entry_value 1] $r0
	sxtb	r0, r0
	lsls	r0, r0, #2
	adr	r1, .LCPI2_0
	ldr	r0, [r1, r0]
	bx	lr
.Ltmp12:
.LBB2_2:
	@DEBUG_VALUE: mbedtls_pk_info_from_type:pk_type <- [DW_OP_LLVM_entry_value 1] $r0
	.loc	8 0 5 is_stmt 0                 @ ../../../ThirdParty/mbedTLS/library/pk.c:0:5
	movs	r0, #0
	.loc	8 135 1 is_stmt 1               @ ../../../ThirdParty/mbedTLS/library/pk.c:135:1
	bx	lr
.Ltmp13:
	.p2align	2
@ %bb.3:
	.loc	8 0 1 is_stmt 0                 @ ../../../ThirdParty/mbedTLS/library/pk.c:0:1
.LCPI2_0:
.Lswitch.table.mbedtls_pk_info_from_type:
	.long	mbedtls_rsa_info
	.long	mbedtls_eckey_info
	.long	mbedtls_eckeydh_info
	.long	mbedtls_ecdsa_info
.Lfunc_end2:
	.size	mbedtls_pk_info_from_type, .Lfunc_end2-mbedtls_pk_info_from_type
	.cfi_endproc
	.cantunwind
	.fnend
                                        @ -- End function
	.section	.text.mbedtls_pk_setup,"ax",%progbits
	.hidden	mbedtls_pk_setup                @ -- Begin function mbedtls_pk_setup
	.globl	mbedtls_pk_setup
	.p2align	2
	.type	mbedtls_pk_setup,%function
	.code	16                              @ @mbedtls_pk_setup
	.thumb_func
mbedtls_pk_setup:
.Lfunc_begin3:
	.loc	8 141 0 is_stmt 1               @ ../../../ThirdParty/mbedTLS/library/pk.c:141:0
	.fnstart
	.cfi_startproc
@ %bb.0:
	@DEBUG_VALUE: mbedtls_pk_setup:ctx <- $r0
	@DEBUG_VALUE: mbedtls_pk_setup:info <- $r1
	.save	{r4, r5, r7, lr}
	push	{r4, r5, r7, lr}
	.cfi_def_cfa_offset 16
	.cfi_offset lr, -4
	.cfi_offset r7, -8
	.cfi_offset r5, -12
	.cfi_offset r4, -16
	mov	r5, r0
	ldr	r0, __arm_cp.3_0
.Ltmp14:
	@DEBUG_VALUE: mbedtls_pk_setup:ctx <- [DW_OP_LLVM_entry_value 1] $r0
	@DEBUG_VALUE: mbedtls_pk_setup:info <- $r1
	@DEBUG_VALUE: mbedtls_pk_setup:ctx <- $r5
	.loc	8 143 22 prologue_end           @ ../../../ThirdParty/mbedTLS/library/pk.c:143:22
	cbz	r1, .LBB3_2
.Ltmp15:
@ %bb.1:
	@DEBUG_VALUE: mbedtls_pk_setup:ctx <- $r5
	@DEBUG_VALUE: mbedtls_pk_setup:info <- $r1
	.loc	8 0 22 is_stmt 0                @ ../../../ThirdParty/mbedTLS/library/pk.c:0:22
	mov	r4, r1
.Ltmp16:
	@DEBUG_VALUE: mbedtls_pk_setup:info <- $r4
	.loc	8 143 30                        @ ../../../ThirdParty/mbedTLS/library/pk.c:143:30
	ldr	r1, [r5]
.Ltmp17:
	.loc	8 143 9                         @ ../../../ThirdParty/mbedTLS/library/pk.c:143:9
	cbz	r1, .LBB3_3
.Ltmp18:
.LBB3_2:
	@DEBUG_VALUE: mbedtls_pk_setup:ctx <- $r5
	.loc	8 152 1 is_stmt 1               @ ../../../ThirdParty/mbedTLS/library/pk.c:152:1
	pop	{r4, r5, r7, pc}
.Ltmp19:
.LBB3_3:
	@DEBUG_VALUE: mbedtls_pk_setup:ctx <- $r5
	@DEBUG_VALUE: mbedtls_pk_setup:info <- $r4
	.loc	8 146 31                        @ ../../../ThirdParty/mbedTLS/library/pk.c:146:31
	ldr	r0, [r4, #36]
	.loc	8 146 25 is_stmt 0              @ ../../../ThirdParty/mbedTLS/library/pk.c:146:25
	blx	r0
	.loc	8 146 23                        @ ../../../ThirdParty/mbedTLS/library/pk.c:146:23
	str	r0, [r5, #4]
.Ltmp20:
	.loc	8 146 9                         @ ../../../ThirdParty/mbedTLS/library/pk.c:146:9
	cbz	r0, .LBB3_5
.Ltmp21:
@ %bb.4:
	@DEBUG_VALUE: mbedtls_pk_setup:ctx <- $r5
	@DEBUG_VALUE: mbedtls_pk_setup:info <- $r4
	.loc	8 149 18 is_stmt 1              @ ../../../ThirdParty/mbedTLS/library/pk.c:149:18
	str	r4, [r5]
	movs	r0, #0
	.loc	8 152 1                         @ ../../../ThirdParty/mbedTLS/library/pk.c:152:1
	pop	{r4, r5, r7, pc}
.Ltmp22:
.LBB3_5:
	@DEBUG_VALUE: mbedtls_pk_setup:ctx <- $r5
	@DEBUG_VALUE: mbedtls_pk_setup:info <- $r4
	.loc	8 0 1 is_stmt 0                 @ ../../../ThirdParty/mbedTLS/library/pk.c:0:1
	ldr	r0, __arm_cp.3_1
	.loc	8 152 1                         @ ../../../ThirdParty/mbedTLS/library/pk.c:152:1
	pop	{r4, r5, r7, pc}
.Ltmp23:
	.p2align	2
@ %bb.6:
	.loc	8 0 1                           @ ../../../ThirdParty/mbedTLS/library/pk.c:0:1
__arm_cp.3_0:
	.long	4294951296                      @ 0xffffc180
.Lcpi_end0:
	.size	__arm_cp.3_0, .Lcpi_end0-__arm_cp.3_0
__arm_cp.3_1:
	.long	4294951040                      @ 0xffffc080
.Lcpi_end1:
	.size	__arm_cp.3_1, .Lcpi_end1-__arm_cp.3_1
.Lfunc_end3:
	.size	mbedtls_pk_setup, .Lfunc_end3-mbedtls_pk_setup
	.cfi_endproc
	.cantunwind
	.fnend
                                        @ -- End function
	.section	.text.mbedtls_pk_setup_rsa_alt,"ax",%progbits
	.hidden	mbedtls_pk_setup_rsa_alt        @ -- Begin function mbedtls_pk_setup_rsa_alt
	.globl	mbedtls_pk_setup_rsa_alt
	.p2align	2
	.type	mbedtls_pk_setup_rsa_alt,%function
	.code	16                              @ @mbedtls_pk_setup_rsa_alt
	.thumb_func
mbedtls_pk_setup_rsa_alt:
.Lfunc_begin4:
	.loc	8 194 0 is_stmt 1               @ ../../../ThirdParty/mbedTLS/library/pk.c:194:0
	.fnstart
	.cfi_startproc
@ %bb.0:
	@DEBUG_VALUE: mbedtls_pk_setup_rsa_alt:ctx <- $r0
	@DEBUG_VALUE: mbedtls_pk_setup_rsa_alt:key <- $r1
	@DEBUG_VALUE: mbedtls_pk_setup_rsa_alt:decrypt_func <- $r2
	@DEBUG_VALUE: mbedtls_pk_setup_rsa_alt:sign_func <- $r3
	.save	{r4, r5, r6, r7, lr}
	push	{r4, r5, r6, r7, lr}
	.cfi_def_cfa_offset 20
	.cfi_offset lr, -4
	.cfi_offset r7, -8
	.cfi_offset r6, -12
	.cfi_offset r5, -16
	.cfi_offset r4, -20
	.pad	#4
	sub	sp, #4
	.cfi_def_cfa_offset 24
	mov	r7, r0
.Ltmp24:
	@DEBUG_VALUE: mbedtls_pk_setup_rsa_alt:key_len_func <- [DW_OP_plus_uconst 24] [$sp+0]
	@DEBUG_VALUE: mbedtls_pk_setup_rsa_alt:sign_func <- $r3
	@DEBUG_VALUE: mbedtls_pk_setup_rsa_alt:decrypt_func <- $r2
	@DEBUG_VALUE: mbedtls_pk_setup_rsa_alt:key <- $r1
	@DEBUG_VALUE: mbedtls_pk_setup_rsa_alt:ctx <- $r7
	.loc	8 199 14 prologue_end           @ ../../../ThirdParty/mbedTLS/library/pk.c:199:14
	ldr	r0, [r0]
.Ltmp25:
	@DEBUG_VALUE: mbedtls_pk_setup_rsa_alt:info <- undef
	.loc	8 199 9 is_stmt 0               @ ../../../ThirdParty/mbedTLS/library/pk.c:199:9
	cbz	r0, .LBB4_2
.Ltmp26:
@ %bb.1:
	@DEBUG_VALUE: mbedtls_pk_setup_rsa_alt:ctx <- $r7
	@DEBUG_VALUE: mbedtls_pk_setup_rsa_alt:sign_func <- $r3
	@DEBUG_VALUE: mbedtls_pk_setup_rsa_alt:decrypt_func <- $r2
	@DEBUG_VALUE: mbedtls_pk_setup_rsa_alt:key <- $r1
	@DEBUG_VALUE: mbedtls_pk_setup_rsa_alt:key_len_func <- [DW_OP_plus_uconst 24] [$sp+0]
	.loc	8 0 9                           @ ../../../ThirdParty/mbedTLS/library/pk.c:0:9
	ldr	r0, __arm_cp.4_0
	.loc	8 215 1 is_stmt 1               @ ../../../ThirdParty/mbedTLS/library/pk.c:215:1
	add	sp, #4
.Ltmp27:
	pop	{r4, r5, r6, r7, pc}
.Ltmp28:
.LBB4_2:
	@DEBUG_VALUE: mbedtls_pk_setup_rsa_alt:ctx <- $r7
	@DEBUG_VALUE: mbedtls_pk_setup_rsa_alt:sign_func <- $r3
	@DEBUG_VALUE: mbedtls_pk_setup_rsa_alt:decrypt_func <- $r2
	@DEBUG_VALUE: mbedtls_pk_setup_rsa_alt:key <- $r1
	@DEBUG_VALUE: mbedtls_pk_setup_rsa_alt:key_len_func <- [DW_OP_plus_uconst 24] [$sp+0]
	.loc	8 0 1 is_stmt 0                 @ ../../../ThirdParty/mbedTLS/library/pk.c:0:1
	mov	r4, r3
.Ltmp29:
	@DEBUG_VALUE: mbedtls_pk_setup_rsa_alt:sign_func <- $r4
	mov	r5, r2
.Ltmp30:
	@DEBUG_VALUE: mbedtls_pk_setup_rsa_alt:decrypt_func <- $r5
	mov	r6, r1
.Ltmp31:
	@DEBUG_VALUE: mbedtls_pk_setup_rsa_alt:key <- $r6
	.loc	8 202 31 is_stmt 1              @ ../../../ThirdParty/mbedTLS/library/pk.c:202:31
	ldr	r0, __arm_cp.4_1
	ldr	r0, [r0, #36]
	.loc	8 202 25 is_stmt 0              @ ../../../ThirdParty/mbedTLS/library/pk.c:202:25
	blx	r0
	.loc	8 202 23                        @ ../../../ThirdParty/mbedTLS/library/pk.c:202:23
	str	r0, [r7, #4]
.Ltmp32:
	.loc	8 202 9                         @ ../../../ThirdParty/mbedTLS/library/pk.c:202:9
	cbz	r0, .LBB4_4
.Ltmp33:
@ %bb.3:
	@DEBUG_VALUE: mbedtls_pk_setup_rsa_alt:ctx <- $r7
	@DEBUG_VALUE: mbedtls_pk_setup_rsa_alt:key <- $r6
	@DEBUG_VALUE: mbedtls_pk_setup_rsa_alt:decrypt_func <- $r5
	@DEBUG_VALUE: mbedtls_pk_setup_rsa_alt:sign_func <- $r4
	@DEBUG_VALUE: mbedtls_pk_setup_rsa_alt:key_len_func <- [DW_OP_plus_uconst 24] [$sp+0]
	.loc	8 0 9                           @ ../../../ThirdParty/mbedTLS/library/pk.c:0:9
	ldr	r0, [sp, #24]
	.loc	8 205 18 is_stmt 1              @ ../../../ThirdParty/mbedTLS/library/pk.c:205:18
	ldr	r1, __arm_cp.4_1
	str	r1, [r7]
	.loc	8 207 48                        @ ../../../ThirdParty/mbedTLS/library/pk.c:207:48
	ldr	r1, [r7, #4]
.Ltmp34:
	@DEBUG_VALUE: mbedtls_pk_setup_rsa_alt:rsa_alt <- $r1
	.loc	8 209 18                        @ ../../../ThirdParty/mbedTLS/library/pk.c:209:18
	str	r6, [r1]
	.loc	8 210 27                        @ ../../../ThirdParty/mbedTLS/library/pk.c:210:27
	str	r5, [r1, #4]
	.loc	8 211 24                        @ ../../../ThirdParty/mbedTLS/library/pk.c:211:24
	str	r4, [r1, #8]
	.loc	8 212 27                        @ ../../../ThirdParty/mbedTLS/library/pk.c:212:27
	str	r0, [r1, #12]
	movs	r0, #0
	.loc	8 215 1                         @ ../../../ThirdParty/mbedTLS/library/pk.c:215:1
	add	sp, #4
.Ltmp35:
	pop	{r4, r5, r6, r7, pc}
.Ltmp36:
.LBB4_4:
	@DEBUG_VALUE: mbedtls_pk_setup_rsa_alt:ctx <- $r7
	@DEBUG_VALUE: mbedtls_pk_setup_rsa_alt:key <- $r6
	@DEBUG_VALUE: mbedtls_pk_setup_rsa_alt:decrypt_func <- $r5
	@DEBUG_VALUE: mbedtls_pk_setup_rsa_alt:sign_func <- $r4
	@DEBUG_VALUE: mbedtls_pk_setup_rsa_alt:key_len_func <- [DW_OP_plus_uconst 24] [$sp+0]
	.loc	8 0 1 is_stmt 0                 @ ../../../ThirdParty/mbedTLS/library/pk.c:0:1
	ldr	r0, __arm_cp.4_2
	.loc	8 215 1                         @ ../../../ThirdParty/mbedTLS/library/pk.c:215:1
	add	sp, #4
.Ltmp37:
	pop	{r4, r5, r6, r7, pc}
.Ltmp38:
	.p2align	2
@ %bb.5:
	.loc	8 0 1                           @ ../../../ThirdParty/mbedTLS/library/pk.c:0:1
__arm_cp.4_0:
	.long	4294951296                      @ 0xffffc180
.Lcpi_end2:
	.size	__arm_cp.4_0, .Lcpi_end2-__arm_cp.4_0
__arm_cp.4_1:
	.long	mbedtls_rsa_alt_info
.Lcpi_end3:
	.size	__arm_cp.4_1, .Lcpi_end3-__arm_cp.4_1
__arm_cp.4_2:
	.long	4294951040                      @ 0xffffc080
.Lcpi_end4:
	.size	__arm_cp.4_2, .Lcpi_end4-__arm_cp.4_2
.Lfunc_end4:
	.size	mbedtls_pk_setup_rsa_alt, .Lfunc_end4-mbedtls_pk_setup_rsa_alt
	.cfi_endproc
	.cantunwind
	.fnend
                                        @ -- End function
	.section	.text.mbedtls_pk_can_do,"ax",%progbits
	.hidden	mbedtls_pk_can_do               @ -- Begin function mbedtls_pk_can_do
	.globl	mbedtls_pk_can_do
	.p2align	1
	.type	mbedtls_pk_can_do,%function
	.code	16                              @ @mbedtls_pk_can_do
	.thumb_func
mbedtls_pk_can_do:
.Lfunc_begin5:
	.loc	8 222 0 is_stmt 1               @ ../../../ThirdParty/mbedTLS/library/pk.c:222:0
	.fnstart
	.cfi_startproc
@ %bb.0:
	@DEBUG_VALUE: mbedtls_pk_can_do:ctx <- $r0
	@DEBUG_VALUE: mbedtls_pk_can_do:type <- $r1
	.save	{r7, lr}
	push	{r7, lr}
	.cfi_def_cfa_offset 8
	.cfi_offset lr, -4
	.cfi_offset r7, -8
	mov	r2, r0
	movs	r0, #0
.Ltmp39:
	@DEBUG_VALUE: mbedtls_pk_can_do:ctx <- [DW_OP_LLVM_entry_value 1] $r0
	@DEBUG_VALUE: mbedtls_pk_can_do:type <- $r1
	@DEBUG_VALUE: mbedtls_pk_can_do:ctx <- $r2
	.loc	8 226 21 prologue_end           @ ../../../ThirdParty/mbedTLS/library/pk.c:226:21
	cbz	r2, .LBB5_3
.Ltmp40:
@ %bb.1:
	@DEBUG_VALUE: mbedtls_pk_can_do:ctx <- $r2
	@DEBUG_VALUE: mbedtls_pk_can_do:type <- $r1
	@DEBUG_VALUE: mbedtls_pk_can_do:type <- $r1
	.loc	8 226 29 is_stmt 0              @ ../../../ThirdParty/mbedTLS/library/pk.c:226:29
	ldr	r2, [r2]
.Ltmp41:
	.loc	8 226 9                         @ ../../../ThirdParty/mbedTLS/library/pk.c:226:9
	cbz	r2, .LBB5_3
.Ltmp42:
@ %bb.2:
	@DEBUG_VALUE: mbedtls_pk_can_do:type <- $r1
	@DEBUG_VALUE: mbedtls_pk_can_do:type <- $r1
	.loc	8 229 27 is_stmt 1              @ ../../../ThirdParty/mbedTLS/library/pk.c:229:27
	ldr	r2, [r2, #12]
	.loc	8 229 13 is_stmt 0              @ ../../../ThirdParty/mbedTLS/library/pk.c:229:13
	mov	r0, r1
	blx	r2
.Ltmp43:
	@DEBUG_VALUE: mbedtls_pk_can_do:type <- [DW_OP_LLVM_entry_value 1] $r1
.LBB5_3:
	.loc	8 230 1 is_stmt 1               @ ../../../ThirdParty/mbedTLS/library/pk.c:230:1
	pop	{r7, pc}
.Ltmp44:
.Lfunc_end5:
	.size	mbedtls_pk_can_do, .Lfunc_end5-mbedtls_pk_can_do
	.cfi_endproc
	.cantunwind
	.fnend
                                        @ -- End function
	.section	.text.mbedtls_pk_verify_restartable,"ax",%progbits
	.hidden	mbedtls_pk_verify_restartable   @ -- Begin function mbedtls_pk_verify_restartable
	.globl	mbedtls_pk_verify_restartable
	.p2align	2
	.type	mbedtls_pk_verify_restartable,%function
	.code	16                              @ @mbedtls_pk_verify_restartable
	.thumb_func
mbedtls_pk_verify_restartable:
.Lfunc_begin6:
	.loc	8 281 0                         @ ../../../ThirdParty/mbedTLS/library/pk.c:281:0
	.fnstart
	.cfi_startproc
@ %bb.0:
	@DEBUG_VALUE: mbedtls_pk_verify_restartable:ctx <- $r0
	@DEBUG_VALUE: mbedtls_pk_verify_restartable:md_alg <- $r1
	@DEBUG_VALUE: mbedtls_pk_verify_restartable:hash <- $r2
	@DEBUG_VALUE: mbedtls_pk_verify_restartable:hash_len <- $r3
	@DEBUG_VALUE: mbedtls_pk_verify_restartable:hash_len <- $r3
	.save	{r4, r5, r6, r7, lr}
	push	{r4, r5, r6, r7, lr}
	.cfi_def_cfa_offset 20
	.cfi_offset lr, -4
	.cfi_offset r7, -8
	.cfi_offset r6, -12
	.cfi_offset r5, -16
	.cfi_offset r4, -20
	.pad	#12
	sub	sp, #12
	.cfi_def_cfa_offset 32
	mov	r7, r0
	str	r3, [sp, #8]
	@DEBUG_VALUE: mbedtls_pk_verify_restartable:rs_ctx <- undef
.Ltmp45:
	@DEBUG_VALUE: mbedtls_pk_verify_restartable:sig_len <- [DW_OP_plus_uconst 36] [$sp+0]
	@DEBUG_VALUE: mbedtls_pk_verify_restartable:sig <- [DW_OP_plus_uconst 32] [$sp+0]
	@DEBUG_VALUE: mbedtls_pk_verify_restartable:hash <- $r2
	@DEBUG_VALUE: mbedtls_pk_verify_restartable:md_alg <- $r1
	@DEBUG_VALUE: mbedtls_pk_verify_restartable:ctx <- $r7
	.loc	8 287 14 prologue_end           @ ../../../ThirdParty/mbedTLS/library/pk.c:287:14
	ldr	r0, [r0]
	ldr	r4, __arm_cp.6_0
	.loc	8 287 30 is_stmt 0              @ ../../../ThirdParty/mbedTLS/library/pk.c:287:30
	cbz	r0, .LBB6_5
.Ltmp46:
@ %bb.1:
	@DEBUG_VALUE: mbedtls_pk_verify_restartable:ctx <- $r7
	@DEBUG_VALUE: mbedtls_pk_verify_restartable:hash_len <- $r3
	@DEBUG_VALUE: mbedtls_pk_verify_restartable:hash <- $r2
	@DEBUG_VALUE: mbedtls_pk_verify_restartable:md_alg <- $r1
	@DEBUG_VALUE: mbedtls_pk_verify_restartable:sig <- [DW_OP_plus_uconst 32] [$sp+0]
	@DEBUG_VALUE: mbedtls_pk_verify_restartable:sig_len <- [DW_OP_plus_uconst 36] [$sp+0]
	.loc	8 0 30                          @ ../../../ThirdParty/mbedTLS/library/pk.c:0:30
	mov	r5, r2
.Ltmp47:
	@DEBUG_VALUE: mbedtls_pk_verify_restartable:hash <- $r5
	mov	r6, r1
.Ltmp48:
	@DEBUG_VALUE: mbedtls_pk_verify_restartable:md_alg <- $r6
	@DEBUG_VALUE: mbedtls_pk_verify_restartable:md_alg <- $r6
	@DEBUG_VALUE: mbedtls_pk_verify_restartable:hash_len <- [DW_OP_plus_uconst 8, DW_OP_deref] $sp
	add	r1, sp, #8
	.loc	8 288 13 is_stmt 1              @ ../../../ThirdParty/mbedTLS/library/pk.c:288:13
	mov	r0, r6
	bl	pk_hashlen_helper
.Ltmp49:
	.loc	8 287 9                         @ ../../../ThirdParty/mbedTLS/library/pk.c:287:9
	cbnz	r0, .LBB6_5
.Ltmp50:
@ %bb.2:
	@DEBUG_VALUE: mbedtls_pk_verify_restartable:ctx <- $r7
	@DEBUG_VALUE: mbedtls_pk_verify_restartable:md_alg <- $r6
	@DEBUG_VALUE: mbedtls_pk_verify_restartable:hash <- $r5
	@DEBUG_VALUE: mbedtls_pk_verify_restartable:hash_len <- [DW_OP_plus_uconst 8, DW_OP_deref] $sp
	@DEBUG_VALUE: mbedtls_pk_verify_restartable:sig <- [DW_OP_plus_uconst 32] [$sp+0]
	@DEBUG_VALUE: mbedtls_pk_verify_restartable:sig_len <- [DW_OP_plus_uconst 36] [$sp+0]
	.loc	8 314 14                        @ ../../../ThirdParty/mbedTLS/library/pk.c:314:14
	ldr	r0, [r7]
	.loc	8 314 23 is_stmt 0              @ ../../../ThirdParty/mbedTLS/library/pk.c:314:23
	ldr	r0, [r0, #16]
.Ltmp51:
	.loc	8 314 9                         @ ../../../ThirdParty/mbedTLS/library/pk.c:314:9
	cbz	r0, .LBB6_4
.Ltmp52:
@ %bb.3:
	@DEBUG_VALUE: mbedtls_pk_verify_restartable:ctx <- $r7
	@DEBUG_VALUE: mbedtls_pk_verify_restartable:md_alg <- $r6
	@DEBUG_VALUE: mbedtls_pk_verify_restartable:hash <- $r5
	@DEBUG_VALUE: mbedtls_pk_verify_restartable:hash_len <- [DW_OP_plus_uconst 8, DW_OP_deref] $sp
	@DEBUG_VALUE: mbedtls_pk_verify_restartable:sig <- [DW_OP_plus_uconst 32] [$sp+0]
	@DEBUG_VALUE: mbedtls_pk_verify_restartable:sig_len <- [DW_OP_plus_uconst 36] [$sp+0]
	.loc	8 0 9                           @ ../../../ThirdParty/mbedTLS/library/pk.c:0:9
	ldr	r1, [sp, #36]
	ldr	r2, [sp, #32]
	mov	r4, r0
	.loc	8 317 45 is_stmt 1              @ ../../../ThirdParty/mbedTLS/library/pk.c:317:45
	ldr	r0, [r7, #4]
	.loc	8 317 67 is_stmt 0              @ ../../../ThirdParty/mbedTLS/library/pk.c:317:67
	ldr	r3, [sp, #8]
.Ltmp53:
	@DEBUG_VALUE: mbedtls_pk_verify_restartable:hash_len <- $r3
	.loc	8 317 13                        @ ../../../ThirdParty/mbedTLS/library/pk.c:317:13
	str	r2, [sp]
	str	r1, [sp, #4]
	mov	r1, r6
	mov	r2, r5
	blx	r4
.Ltmp54:
	mov	r4, r0
	b	.LBB6_5
.Ltmp55:
.LBB6_4:
	@DEBUG_VALUE: mbedtls_pk_verify_restartable:ctx <- $r7
	@DEBUG_VALUE: mbedtls_pk_verify_restartable:md_alg <- $r6
	@DEBUG_VALUE: mbedtls_pk_verify_restartable:hash <- $r5
	@DEBUG_VALUE: mbedtls_pk_verify_restartable:hash_len <- [DW_OP_plus_uconst 8, DW_OP_deref] $sp
	@DEBUG_VALUE: mbedtls_pk_verify_restartable:sig <- [DW_OP_plus_uconst 32] [$sp+0]
	@DEBUG_VALUE: mbedtls_pk_verify_restartable:sig_len <- [DW_OP_plus_uconst 36] [$sp+0]
	.loc	8 0 13                          @ ../../../ThirdParty/mbedTLS/library/pk.c:0:13
	subs	r4, #128
.Ltmp56:
.LBB6_5:
	@DEBUG_VALUE: mbedtls_pk_verify_restartable:ctx <- $r7
	@DEBUG_VALUE: mbedtls_pk_verify_restartable:sig <- [DW_OP_plus_uconst 32] [$sp+0]
	@DEBUG_VALUE: mbedtls_pk_verify_restartable:sig_len <- [DW_OP_plus_uconst 36] [$sp+0]
	.loc	8 319 1 is_stmt 1               @ ../../../ThirdParty/mbedTLS/library/pk.c:319:1
	mov	r0, r4
	add	sp, #12
.Ltmp57:
	pop	{r4, r5, r6, r7, pc}
.Ltmp58:
	.p2align	2
@ %bb.6:
	.loc	8 0 1 is_stmt 0                 @ ../../../ThirdParty/mbedTLS/library/pk.c:0:1
__arm_cp.6_0:
	.long	4294951296                      @ 0xffffc180
.Lcpi_end5:
	.size	__arm_cp.6_0, .Lcpi_end5-__arm_cp.6_0
.Lfunc_end6:
	.size	mbedtls_pk_verify_restartable, .Lfunc_end6-mbedtls_pk_verify_restartable
	.cfi_endproc
	.cantunwind
	.fnend
                                        @ -- End function
	.section	.text.pk_hashlen_helper,"ax",%progbits
	.p2align	1                               @ -- Begin function pk_hashlen_helper
	.type	pk_hashlen_helper,%function
	.code	16                              @ @pk_hashlen_helper
	.thumb_func
pk_hashlen_helper:
.Lfunc_begin7:
	.loc	8 236 0 is_stmt 1               @ ../../../ThirdParty/mbedTLS/library/pk.c:236:0
	.fnstart
	.cfi_startproc
@ %bb.0:
	@DEBUG_VALUE: pk_hashlen_helper:md_alg <- $r0
	@DEBUG_VALUE: pk_hashlen_helper:hash_len <- $r1
	.save	{r4, r5, r7, lr}
	push	{r4, r5, r7, lr}
	.cfi_def_cfa_offset 16
	.cfi_offset lr, -4
	.cfi_offset r7, -8
	.cfi_offset r5, -12
	.cfi_offset r4, -16
	mov	r4, r1
.Ltmp59:
	@DEBUG_VALUE: pk_hashlen_helper:hash_len <- $r4
	@DEBUG_VALUE: pk_hashlen_helper:md_alg <- $r0
	.loc	8 239 9 prologue_end            @ ../../../ThirdParty/mbedTLS/library/pk.c:239:9
	ldr	r1, [r1]
.Ltmp60:
	.loc	8 239 9 is_stmt 0               @ ../../../ThirdParty/mbedTLS/library/pk.c:239:9
	cbz	r1, .LBB7_2
.Ltmp61:
@ %bb.1:
	@DEBUG_VALUE: pk_hashlen_helper:hash_len <- $r4
	@DEBUG_VALUE: pk_hashlen_helper:md_alg <- $r0
	.loc	8 0 9                           @ ../../../ThirdParty/mbedTLS/library/pk.c:0:9
	movs	r0, #0
.Ltmp62:
	@DEBUG_VALUE: pk_hashlen_helper:md_alg <- [DW_OP_LLVM_entry_value 1] $r0
	.loc	8 247 1 is_stmt 1               @ ../../../ThirdParty/mbedTLS/library/pk.c:247:1
	pop	{r4, r5, r7, pc}
.Ltmp63:
.LBB7_2:
	@DEBUG_VALUE: pk_hashlen_helper:hash_len <- $r4
	@DEBUG_VALUE: pk_hashlen_helper:md_alg <- $r0
	@DEBUG_VALUE: pk_hashlen_helper:md_alg <- $r0
	.loc	8 242 21                        @ ../../../ThirdParty/mbedTLS/library/pk.c:242:21
	bl	mbedtls_md_info_from_type
.Ltmp64:
	@DEBUG_VALUE: pk_hashlen_helper:md_alg <- [DW_OP_LLVM_entry_value 1] $r0
	@DEBUG_VALUE: pk_hashlen_helper:md_info <- $r0
	.loc	8 0 21 is_stmt 0                @ ../../../ThirdParty/mbedTLS/library/pk.c:0:21
	movs	r5, #0
.Ltmp65:
	.loc	8 242 9                         @ ../../../ThirdParty/mbedTLS/library/pk.c:242:9
	cbz	r0, .LBB7_4
.Ltmp66:
@ %bb.3:
	@DEBUG_VALUE: pk_hashlen_helper:hash_len <- $r4
	@DEBUG_VALUE: pk_hashlen_helper:md_info <- $r0
	@DEBUG_VALUE: pk_hashlen_helper:md_alg <- [DW_OP_LLVM_entry_value 1] $r0
	.loc	8 245 17 is_stmt 1              @ ../../../ThirdParty/mbedTLS/library/pk.c:245:17
	bl	mbedtls_md_get_size
.Ltmp67:
	.loc	8 245 15 is_stmt 0              @ ../../../ThirdParty/mbedTLS/library/pk.c:245:15
	str	r0, [r4]
	.loc	8 247 1 is_stmt 1               @ ../../../ThirdParty/mbedTLS/library/pk.c:247:1
	mov	r0, r5
	pop	{r4, r5, r7, pc}
.Ltmp68:
.LBB7_4:
	@DEBUG_VALUE: pk_hashlen_helper:hash_len <- $r4
	@DEBUG_VALUE: pk_hashlen_helper:md_info <- $r0
	@DEBUG_VALUE: pk_hashlen_helper:md_alg <- [DW_OP_LLVM_entry_value 1] $r0
	.loc	8 0 1 is_stmt 0                 @ ../../../ThirdParty/mbedTLS/library/pk.c:0:1
	mvns	r0, r5
.Ltmp69:
	.loc	8 247 1                         @ ../../../ThirdParty/mbedTLS/library/pk.c:247:1
	pop	{r4, r5, r7, pc}
.Ltmp70:
.Lfunc_end7:
	.size	pk_hashlen_helper, .Lfunc_end7-pk_hashlen_helper
	.cfi_endproc
	.cantunwind
	.fnend
                                        @ -- End function
	.section	.text.mbedtls_pk_verify,"ax",%progbits
	.hidden	mbedtls_pk_verify               @ -- Begin function mbedtls_pk_verify
	.globl	mbedtls_pk_verify
	.p2align	1
	.type	mbedtls_pk_verify,%function
	.code	16                              @ @mbedtls_pk_verify
	.thumb_func
mbedtls_pk_verify:
.Lfunc_begin8:
	.loc	8 327 0 is_stmt 1               @ ../../../ThirdParty/mbedTLS/library/pk.c:327:0
	.fnstart
	.cfi_startproc
@ %bb.0:
	@DEBUG_VALUE: mbedtls_pk_verify:ctx <- $r0
	@DEBUG_VALUE: mbedtls_pk_verify:ctx <- $r0
	@DEBUG_VALUE: mbedtls_pk_verify:md_alg <- $r1
	@DEBUG_VALUE: mbedtls_pk_verify:md_alg <- $r1
	@DEBUG_VALUE: mbedtls_pk_verify:hash <- $r2
	@DEBUG_VALUE: mbedtls_pk_verify:hash <- $r2
	@DEBUG_VALUE: mbedtls_pk_verify:hash_len <- $r3
	@DEBUG_VALUE: mbedtls_pk_verify:hash_len <- $r3
	.save	{r4, lr}
	push	{r4, lr}
	.cfi_def_cfa_offset 8
	.cfi_offset lr, -4
	.cfi_offset r4, -8
	.pad	#16
	sub	sp, #16
	.cfi_def_cfa_offset 24
.Ltmp71:
	@DEBUG_VALUE: mbedtls_pk_verify:sig <- [DW_OP_plus_uconst 24] [$sp+0]
	@DEBUG_VALUE: mbedtls_pk_verify:sig_len <- [DW_OP_plus_uconst 28] [$sp+0]
	ldr	r4, [sp, #28]
.Ltmp72:
	.loc	8 328 13 prologue_end           @ ../../../ThirdParty/mbedTLS/library/pk.c:328:13
	str	r4, [sp, #4]
	ldr	r4, [sp, #24]
	str	r4, [sp]
	@DEBUG_VALUE: mbedtls_pk_verify:hash_len <- $r3
	@DEBUG_VALUE: mbedtls_pk_verify:hash <- $r2
	@DEBUG_VALUE: mbedtls_pk_verify:md_alg <- $r1
	@DEBUG_VALUE: mbedtls_pk_verify:ctx <- $r0
	bl	mbedtls_pk_verify_restartable
.Ltmp73:
	@DEBUG_VALUE: mbedtls_pk_verify:hash_len <- [DW_OP_LLVM_entry_value 1] $r3
	@DEBUG_VALUE: mbedtls_pk_verify:hash <- [DW_OP_LLVM_entry_value 1] $r2
	@DEBUG_VALUE: mbedtls_pk_verify:md_alg <- [DW_OP_LLVM_entry_value 1] $r1
	@DEBUG_VALUE: mbedtls_pk_verify:ctx <- [DW_OP_LLVM_entry_value 1] $r0
	.loc	8 328 5 is_stmt 0               @ ../../../ThirdParty/mbedTLS/library/pk.c:328:5
	add	sp, #16
.Ltmp74:
	pop	{r4, pc}
.Ltmp75:
.Lfunc_end8:
	.size	mbedtls_pk_verify, .Lfunc_end8-mbedtls_pk_verify
	.cfi_endproc
	.cantunwind
	.fnend
                                        @ -- End function
	.section	.text.mbedtls_pk_verify_ext,"ax",%progbits
	.hidden	mbedtls_pk_verify_ext           @ -- Begin function mbedtls_pk_verify_ext
	.globl	mbedtls_pk_verify_ext
	.p2align	2
	.type	mbedtls_pk_verify_ext,%function
	.code	16                              @ @mbedtls_pk_verify_ext
	.thumb_func
mbedtls_pk_verify_ext:
.Lfunc_begin9:
	.loc	8 339 0 is_stmt 1               @ ../../../ThirdParty/mbedTLS/library/pk.c:339:0
	.fnstart
	.cfi_startproc
@ %bb.0:
	@DEBUG_VALUE: mbedtls_pk_verify_ext:type <- $r0
	@DEBUG_VALUE: mbedtls_pk_verify_ext:options <- $r1
	@DEBUG_VALUE: mbedtls_pk_verify_ext:ctx <- $r2
	@DEBUG_VALUE: mbedtls_pk_verify_ext:md_alg <- $r3
	.save	{r4, r5, r6, r7, lr}
	push	{r4, r5, r6, r7, lr}
	.cfi_def_cfa_offset 20
	.cfi_offset lr, -4
	.cfi_offset r7, -8
	.cfi_offset r6, -12
	.cfi_offset r5, -16
	.cfi_offset r4, -20
	.pad	#36
	sub	sp, #36
	.cfi_def_cfa_offset 56
	mov	r5, r0
.Ltmp76:
	@DEBUG_VALUE: mbedtls_pk_verify_ext:sig_len <- [DW_OP_plus_uconst 68] [$sp+0]
	@DEBUG_VALUE: mbedtls_pk_verify_ext:sig <- [DW_OP_plus_uconst 64] [$sp+0]
	@DEBUG_VALUE: mbedtls_pk_verify_ext:hash_len <- [DW_OP_plus_uconst 60] [$sp+0]
	@DEBUG_VALUE: mbedtls_pk_verify_ext:hash <- [DW_OP_plus_uconst 56] [$sp+0]
	@DEBUG_VALUE: mbedtls_pk_verify_ext:md_alg <- $r3
	@DEBUG_VALUE: mbedtls_pk_verify_ext:ctx <- $r2
	@DEBUG_VALUE: mbedtls_pk_verify_ext:options <- $r1
	@DEBUG_VALUE: mbedtls_pk_verify_ext:type <- $r5
	.loc	8 345 14 prologue_end           @ ../../../ThirdParty/mbedTLS/library/pk.c:345:14
	ldr	r0, [r2]
	ldr	r6, __arm_cp.9_0
.Ltmp77:
	.loc	8 345 9 is_stmt 0               @ ../../../ThirdParty/mbedTLS/library/pk.c:345:9
	cbz	r0, .LBB9_10
.Ltmp78:
@ %bb.1:
	@DEBUG_VALUE: mbedtls_pk_verify_ext:type <- $r5
	@DEBUG_VALUE: mbedtls_pk_verify_ext:md_alg <- $r3
	@DEBUG_VALUE: mbedtls_pk_verify_ext:ctx <- $r2
	@DEBUG_VALUE: mbedtls_pk_verify_ext:options <- $r1
	@DEBUG_VALUE: mbedtls_pk_verify_ext:hash <- [DW_OP_plus_uconst 56] [$sp+0]
	@DEBUG_VALUE: mbedtls_pk_verify_ext:hash_len <- [DW_OP_plus_uconst 60] [$sp+0]
	@DEBUG_VALUE: mbedtls_pk_verify_ext:sig <- [DW_OP_plus_uconst 64] [$sp+0]
	@DEBUG_VALUE: mbedtls_pk_verify_ext:sig_len <- [DW_OP_plus_uconst 68] [$sp+0]
	.loc	8 0 9                           @ ../../../ThirdParty/mbedTLS/library/pk.c:0:9
	mov	r4, r2
.Ltmp79:
	@DEBUG_VALUE: mbedtls_pk_verify_ext:ctx <- $r4
	mov	r7, r1
.Ltmp80:
	@DEBUG_VALUE: mbedtls_pk_verify_ext:options <- $r7
	@DEBUG_VALUE: mbedtls_pk_verify_ext:type <- $r5
	@DEBUG_VALUE: mbedtls_pk_verify_ext:md_alg <- $r3
	str	r3, [sp, #32]                   @ 4-byte Spill
.Ltmp81:
	@DEBUG_VALUE: mbedtls_pk_verify_ext:md_alg <- [DW_OP_plus_uconst 32] [$sp+0]
	@DEBUG_VALUE: mbedtls_pk_verify_ext:md_alg <- [DW_OP_plus_uconst 32] [$sp+0]
	.loc	8 348 11 is_stmt 1              @ ../../../ThirdParty/mbedTLS/library/pk.c:348:11
	mov	r0, r2
	mov	r1, r5
	bl	mbedtls_pk_can_do
.Ltmp82:
	.loc	8 348 9 is_stmt 0               @ ../../../ThirdParty/mbedTLS/library/pk.c:348:9
	cbz	r0, .LBB9_6
.Ltmp83:
@ %bb.2:
	@DEBUG_VALUE: mbedtls_pk_verify_ext:options <- $r7
	@DEBUG_VALUE: mbedtls_pk_verify_ext:type <- $r5
	@DEBUG_VALUE: mbedtls_pk_verify_ext:ctx <- $r4
	@DEBUG_VALUE: mbedtls_pk_verify_ext:md_alg <- [DW_OP_plus_uconst 32] [$sp+0]
	@DEBUG_VALUE: mbedtls_pk_verify_ext:hash <- [DW_OP_plus_uconst 56] [$sp+0]
	@DEBUG_VALUE: mbedtls_pk_verify_ext:hash_len <- [DW_OP_plus_uconst 60] [$sp+0]
	@DEBUG_VALUE: mbedtls_pk_verify_ext:sig <- [DW_OP_plus_uconst 64] [$sp+0]
	@DEBUG_VALUE: mbedtls_pk_verify_ext:sig_len <- [DW_OP_plus_uconst 68] [$sp+0]
	.loc	8 0 9                           @ ../../../ThirdParty/mbedTLS/library/pk.c:0:9
	ldr	r0, [sp, #68]
	ldr	r1, [sp, #64]
	ldr	r3, [sp, #60]
	ldr	r2, [sp, #56]
	@DEBUG_VALUE: mbedtls_pk_verify_ext:md_alg <- [DW_OP_plus_uconst 32] [$sp+0]
	.loc	8 351 9 is_stmt 1               @ ../../../ThirdParty/mbedTLS/library/pk.c:351:9
	cmp	r5, #6
	bne	.LBB9_7
.Ltmp84:
@ %bb.3:
	@DEBUG_VALUE: mbedtls_pk_verify_ext:options <- $r7
	@DEBUG_VALUE: mbedtls_pk_verify_ext:type <- $r5
	@DEBUG_VALUE: mbedtls_pk_verify_ext:ctx <- $r4
	@DEBUG_VALUE: mbedtls_pk_verify_ext:md_alg <- [DW_OP_plus_uconst 32] [$sp+0]
	@DEBUG_VALUE: mbedtls_pk_verify_ext:hash <- [DW_OP_plus_uconst 56] [$sp+0]
	@DEBUG_VALUE: mbedtls_pk_verify_ext:hash_len <- [DW_OP_plus_uconst 60] [$sp+0]
	@DEBUG_VALUE: mbedtls_pk_verify_ext:sig <- [DW_OP_plus_uconst 64] [$sp+0]
	@DEBUG_VALUE: mbedtls_pk_verify_ext:sig_len <- [DW_OP_plus_uconst 68] [$sp+0]
	.loc	8 362 13                        @ ../../../ThirdParty/mbedTLS/library/pk.c:362:13
	cbz	r7, .LBB9_10
.Ltmp85:
@ %bb.4:
	@DEBUG_VALUE: mbedtls_pk_verify_ext:options <- $r7
	@DEBUG_VALUE: mbedtls_pk_verify_ext:type <- $r5
	@DEBUG_VALUE: mbedtls_pk_verify_ext:ctx <- $r4
	@DEBUG_VALUE: mbedtls_pk_verify_ext:md_alg <- [DW_OP_plus_uconst 32] [$sp+0]
	@DEBUG_VALUE: mbedtls_pk_verify_ext:hash <- [DW_OP_plus_uconst 56] [$sp+0]
	@DEBUG_VALUE: mbedtls_pk_verify_ext:hash_len <- [DW_OP_plus_uconst 60] [$sp+0]
	@DEBUG_VALUE: mbedtls_pk_verify_ext:sig <- [DW_OP_plus_uconst 64] [$sp+0]
	@DEBUG_VALUE: mbedtls_pk_verify_ext:sig_len <- [DW_OP_plus_uconst 68] [$sp+0]
	@DEBUG_VALUE: pss_opts <- $r7
	.loc	8 0 13 is_stmt 0                @ ../../../ThirdParty/mbedTLS/library/pk.c:0:13
	str	r2, [sp, #24]                   @ 4-byte Spill
	str	r1, [sp, #28]                   @ 4-byte Spill
	mov	r6, r3
	mov	r5, r0
.Ltmp86:
	.loc	8 367 23 is_stmt 1              @ ../../../ThirdParty/mbedTLS/library/pk.c:367:23
	mov	r0, r4
	bl	mbedtls_pk_get_len
.Ltmp87:
	.loc	8 367 13 is_stmt 0              @ ../../../ThirdParty/mbedTLS/library/pk.c:367:13
	cmp	r0, r5
	bls	.LBB9_9
.Ltmp88:
@ %bb.5:
	@DEBUG_VALUE: pss_opts <- $r7
	@DEBUG_VALUE: mbedtls_pk_verify_ext:options <- $r7
	@DEBUG_VALUE: mbedtls_pk_verify_ext:ctx <- $r4
	@DEBUG_VALUE: mbedtls_pk_verify_ext:md_alg <- [DW_OP_plus_uconst 32] [$sp+0]
	@DEBUG_VALUE: mbedtls_pk_verify_ext:hash <- [DW_OP_plus_uconst 56] [$sp+0]
	@DEBUG_VALUE: mbedtls_pk_verify_ext:hash_len <- [DW_OP_plus_uconst 60] [$sp+0]
	@DEBUG_VALUE: mbedtls_pk_verify_ext:sig <- [DW_OP_plus_uconst 64] [$sp+0]
	@DEBUG_VALUE: mbedtls_pk_verify_ext:sig_len <- [DW_OP_plus_uconst 68] [$sp+0]
	.loc	8 0 13                          @ ../../../ThirdParty/mbedTLS/library/pk.c:0:13
	ldr	r6, __arm_cp.9_1
	b	.LBB9_10
.Ltmp89:
.LBB9_6:
	@DEBUG_VALUE: mbedtls_pk_verify_ext:options <- $r7
	@DEBUG_VALUE: mbedtls_pk_verify_ext:type <- $r5
	@DEBUG_VALUE: mbedtls_pk_verify_ext:ctx <- $r4
	@DEBUG_VALUE: mbedtls_pk_verify_ext:md_alg <- [DW_OP_plus_uconst 32] [$sp+0]
	@DEBUG_VALUE: mbedtls_pk_verify_ext:hash <- [DW_OP_plus_uconst 56] [$sp+0]
	@DEBUG_VALUE: mbedtls_pk_verify_ext:hash_len <- [DW_OP_plus_uconst 60] [$sp+0]
	@DEBUG_VALUE: mbedtls_pk_verify_ext:sig <- [DW_OP_plus_uconst 64] [$sp+0]
	@DEBUG_VALUE: mbedtls_pk_verify_ext:sig_len <- [DW_OP_plus_uconst 68] [$sp+0]
	subs	r6, #128
	b	.LBB9_10
.Ltmp90:
.LBB9_7:
	@DEBUG_VALUE: mbedtls_pk_verify_ext:options <- $r7
	@DEBUG_VALUE: mbedtls_pk_verify_ext:type <- $r5
	@DEBUG_VALUE: mbedtls_pk_verify_ext:ctx <- $r4
	@DEBUG_VALUE: mbedtls_pk_verify_ext:md_alg <- [DW_OP_plus_uconst 32] [$sp+0]
	@DEBUG_VALUE: mbedtls_pk_verify_ext:hash <- [DW_OP_plus_uconst 56] [$sp+0]
	@DEBUG_VALUE: mbedtls_pk_verify_ext:hash_len <- [DW_OP_plus_uconst 60] [$sp+0]
	@DEBUG_VALUE: mbedtls_pk_verify_ext:sig <- [DW_OP_plus_uconst 64] [$sp+0]
	@DEBUG_VALUE: mbedtls_pk_verify_ext:sig_len <- [DW_OP_plus_uconst 68] [$sp+0]
	.loc	8 389 9 is_stmt 1               @ ../../../ThirdParty/mbedTLS/library/pk.c:389:9
	cbnz	r7, .LBB9_10
.Ltmp91:
@ %bb.8:
	@DEBUG_VALUE: mbedtls_pk_verify_ext:options <- $r7
	@DEBUG_VALUE: mbedtls_pk_verify_ext:type <- $r5
	@DEBUG_VALUE: mbedtls_pk_verify_ext:ctx <- $r4
	@DEBUG_VALUE: mbedtls_pk_verify_ext:md_alg <- [DW_OP_plus_uconst 32] [$sp+0]
	@DEBUG_VALUE: mbedtls_pk_verify_ext:hash <- [DW_OP_plus_uconst 56] [$sp+0]
	@DEBUG_VALUE: mbedtls_pk_verify_ext:hash_len <- [DW_OP_plus_uconst 60] [$sp+0]
	@DEBUG_VALUE: mbedtls_pk_verify_ext:sig <- [DW_OP_plus_uconst 64] [$sp+0]
	@DEBUG_VALUE: mbedtls_pk_verify_ext:sig_len <- [DW_OP_plus_uconst 68] [$sp+0]
	.loc	8 392 13                        @ ../../../ThirdParty/mbedTLS/library/pk.c:392:13
	str	r1, [sp]
	str	r0, [sp, #4]
	mov	r0, r4
	ldr	r1, [sp, #32]                   @ 4-byte Reload
	bl	mbedtls_pk_verify
	mov	r6, r0
	b	.LBB9_10
.Ltmp92:
.LBB9_9:
	@DEBUG_VALUE: pss_opts <- $r7
	@DEBUG_VALUE: mbedtls_pk_verify_ext:options <- $r7
	@DEBUG_VALUE: mbedtls_pk_verify_ext:ctx <- $r4
	@DEBUG_VALUE: mbedtls_pk_verify_ext:md_alg <- [DW_OP_plus_uconst 32] [$sp+0]
	@DEBUG_VALUE: mbedtls_pk_verify_ext:hash <- [DW_OP_plus_uconst 56] [$sp+0]
	@DEBUG_VALUE: mbedtls_pk_verify_ext:hash_len <- [DW_OP_plus_uconst 60] [$sp+0]
	@DEBUG_VALUE: mbedtls_pk_verify_ext:sig <- [DW_OP_plus_uconst 64] [$sp+0]
	@DEBUG_VALUE: mbedtls_pk_verify_ext:sig_len <- [DW_OP_plus_uconst 68] [$sp+0]
	@DEBUG_VALUE: pss_opts <- $r7
	.loc	8 370 50                        @ ../../../ThirdParty/mbedTLS/library/pk.c:370:50
	ldm	r4!, {r0, r1}
.Ltmp93:
	@DEBUG_VALUE: mbedtls_pk_verify_ext:ctx <- [DW_OP_LLVM_entry_value 1] $r2
	subs	r4, #8
	bl	mbedtls_pk_rsa
	.loc	8 373 27                        @ ../../../ThirdParty/mbedTLS/library/pk.c:373:27
	ldrb	r1, [r7]
	.loc	8 374 27                        @ ../../../ThirdParty/mbedTLS/library/pk.c:374:27
	ldr	r2, [r7, #4]
	.loc	8 370 15                        @ ../../../ThirdParty/mbedTLS/library/pk.c:370:15
	ldr	r3, [sp, #32]                   @ 4-byte Reload
	str	r3, [sp]
	str	r6, [sp, #4]
	ldr	r3, [sp, #24]                   @ 4-byte Reload
	str	r3, [sp, #8]
	str	r1, [sp, #12]
	str	r2, [sp, #16]
	ldr	r1, [sp, #28]                   @ 4-byte Reload
	str	r1, [sp, #20]
	movs	r7, #0
.Ltmp94:
	@DEBUG_VALUE: mbedtls_pk_verify_ext:options <- [DW_OP_LLVM_entry_value 1] $r1
	mov	r1, r7
	mov	r2, r7
	mov	r3, r7
	bl	mbedtls_rsa_rsassa_pss_verify_ext
	mov	r6, r0
.Ltmp95:
	@DEBUG_VALUE: ret <- $r6
	.loc	8 376 13                        @ ../../../ThirdParty/mbedTLS/library/pk.c:376:13
	cbz	r0, .LBB9_11
.Ltmp96:
.LBB9_10:
	@DEBUG_VALUE: mbedtls_pk_verify_ext:hash <- [DW_OP_plus_uconst 56] [$sp+0]
	@DEBUG_VALUE: mbedtls_pk_verify_ext:hash_len <- [DW_OP_plus_uconst 60] [$sp+0]
	@DEBUG_VALUE: mbedtls_pk_verify_ext:sig <- [DW_OP_plus_uconst 64] [$sp+0]
	@DEBUG_VALUE: mbedtls_pk_verify_ext:sig_len <- [DW_OP_plus_uconst 68] [$sp+0]
	.loc	8 393 1                         @ ../../../ThirdParty/mbedTLS/library/pk.c:393:1
	mov	r0, r6
	add	sp, #36
.Ltmp97:
	pop	{r4, r5, r6, r7, pc}
.LBB9_11:
.Ltmp98:
	@DEBUG_VALUE: ret <- $r6
	@DEBUG_VALUE: mbedtls_pk_verify_ext:md_alg <- [DW_OP_plus_uconst 32] [$sp+0]
	@DEBUG_VALUE: mbedtls_pk_verify_ext:hash <- [DW_OP_plus_uconst 56] [$sp+0]
	@DEBUG_VALUE: mbedtls_pk_verify_ext:hash_len <- [DW_OP_plus_uconst 60] [$sp+0]
	@DEBUG_VALUE: mbedtls_pk_verify_ext:sig <- [DW_OP_plus_uconst 64] [$sp+0]
	@DEBUG_VALUE: mbedtls_pk_verify_ext:sig_len <- [DW_OP_plus_uconst 68] [$sp+0]
	@DEBUG_VALUE: mbedtls_pk_verify_ext:options <- [DW_OP_LLVM_entry_value 1] $r1
	@DEBUG_VALUE: mbedtls_pk_verify_ext:ctx <- [DW_OP_LLVM_entry_value 1] $r2
	.loc	8 379 23                        @ ../../../ThirdParty/mbedTLS/library/pk.c:379:23
	mov	r0, r4
	bl	mbedtls_pk_get_len
.Ltmp99:
	.loc	8 379 13 is_stmt 0              @ ../../../ThirdParty/mbedTLS/library/pk.c:379:13
	cmp	r0, r5
	bhs	.LBB9_13
.Ltmp100:
@ %bb.12:
	@DEBUG_VALUE: ret <- $r6
	@DEBUG_VALUE: mbedtls_pk_verify_ext:md_alg <- [DW_OP_plus_uconst 32] [$sp+0]
	@DEBUG_VALUE: mbedtls_pk_verify_ext:hash <- [DW_OP_plus_uconst 56] [$sp+0]
	@DEBUG_VALUE: mbedtls_pk_verify_ext:hash_len <- [DW_OP_plus_uconst 60] [$sp+0]
	@DEBUG_VALUE: mbedtls_pk_verify_ext:sig <- [DW_OP_plus_uconst 64] [$sp+0]
	@DEBUG_VALUE: mbedtls_pk_verify_ext:sig_len <- [DW_OP_plus_uconst 68] [$sp+0]
	@DEBUG_VALUE: mbedtls_pk_verify_ext:options <- [DW_OP_LLVM_entry_value 1] $r1
	@DEBUG_VALUE: mbedtls_pk_verify_ext:ctx <- [DW_OP_LLVM_entry_value 1] $r2
	.loc	8 0 13                          @ ../../../ThirdParty/mbedTLS/library/pk.c:0:13
	ldr	r7, __arm_cp.9_2
.Ltmp101:
.LBB9_13:
	@DEBUG_VALUE: ret <- $r6
	@DEBUG_VALUE: mbedtls_pk_verify_ext:md_alg <- [DW_OP_plus_uconst 32] [$sp+0]
	@DEBUG_VALUE: mbedtls_pk_verify_ext:hash <- [DW_OP_plus_uconst 56] [$sp+0]
	@DEBUG_VALUE: mbedtls_pk_verify_ext:hash_len <- [DW_OP_plus_uconst 60] [$sp+0]
	@DEBUG_VALUE: mbedtls_pk_verify_ext:sig <- [DW_OP_plus_uconst 64] [$sp+0]
	@DEBUG_VALUE: mbedtls_pk_verify_ext:sig_len <- [DW_OP_plus_uconst 68] [$sp+0]
	@DEBUG_VALUE: mbedtls_pk_verify_ext:options <- [DW_OP_LLVM_entry_value 1] $r1
	@DEBUG_VALUE: mbedtls_pk_verify_ext:ctx <- [DW_OP_LLVM_entry_value 1] $r2
	.loc	8 379 13                        @ ../../../ThirdParty/mbedTLS/library/pk.c:379:13
	mov	r0, r7
	add	sp, #36
.Ltmp102:
	pop	{r4, r5, r6, r7, pc}
.Ltmp103:
	.p2align	2
@ %bb.14:
	.loc	8 0 13                          @ ../../../ThirdParty/mbedTLS/library/pk.c:0:13
__arm_cp.9_0:
	.long	4294951296                      @ 0xffffc180
.Lcpi_end6:
	.size	__arm_cp.9_0, .Lcpi_end6-__arm_cp.9_0
__arm_cp.9_1:
	.long	4294950016                      @ 0xffffbc80
.Lcpi_end7:
	.size	__arm_cp.9_1, .Lcpi_end7-__arm_cp.9_1
__arm_cp.9_2:
	.long	4294952704                      @ 0xffffc700
.Lcpi_end8:
	.size	__arm_cp.9_2, .Lcpi_end8-__arm_cp.9_2
.Lfunc_end9:
	.size	mbedtls_pk_verify_ext, .Lfunc_end9-mbedtls_pk_verify_ext
	.cfi_endproc
	.cantunwind
	.fnend
                                        @ -- End function
	.section	.text.mbedtls_pk_get_len,"ax",%progbits
	.p2align	1                               @ -- Begin function mbedtls_pk_get_len
	.type	mbedtls_pk_get_len,%function
	.code	16                              @ @mbedtls_pk_get_len
	.thumb_func
mbedtls_pk_get_len:
.Lfunc_begin10:
	.loc	1 331 0 is_stmt 1               @ ../../../ThirdParty/mbedTLS/include/mbedtls/pk.h:331:0
	.fnstart
	.cfi_startproc
@ %bb.0:
	@DEBUG_VALUE: mbedtls_pk_get_len:ctx <- $r0
	@DEBUG_VALUE: mbedtls_pk_get_len:ctx <- $r0
	@DEBUG_VALUE: mbedtls_pk_get_len:ctx <- $r0
	.save	{r7, lr}
	push	{r7, lr}
	.cfi_def_cfa_offset 8
	.cfi_offset lr, -4
	.cfi_offset r7, -8
.Ltmp104:
	.loc	1 332 15 prologue_end           @ ../../../ThirdParty/mbedTLS/include/mbedtls/pk.h:332:15
	bl	mbedtls_pk_get_bitlen
.Ltmp105:
	@DEBUG_VALUE: mbedtls_pk_get_len:ctx <- [DW_OP_LLVM_entry_value 1] $r0
	.loc	1 332 44 is_stmt 0              @ ../../../ThirdParty/mbedTLS/include/mbedtls/pk.h:332:44
	adds	r0, r0, #7
	.loc	1 332 50                        @ ../../../ThirdParty/mbedTLS/include/mbedtls/pk.h:332:50
	lsrs	r0, r0, #3
	.loc	1 332 5                         @ ../../../ThirdParty/mbedTLS/include/mbedtls/pk.h:332:5
	pop	{r7, pc}
.Ltmp106:
.Lfunc_end10:
	.size	mbedtls_pk_get_len, .Lfunc_end10-mbedtls_pk_get_len
	.cfi_endproc
	.cantunwind
	.fnend
                                        @ -- End function
	.section	.text.mbedtls_pk_rsa,"ax",%progbits
	.p2align	1                               @ -- Begin function mbedtls_pk_rsa
	.type	mbedtls_pk_rsa,%function
	.code	16                              @ @mbedtls_pk_rsa
	.thumb_func
mbedtls_pk_rsa:
.Lfunc_begin11:
	.loc	1 163 0 is_stmt 1               @ ../../../ThirdParty/mbedTLS/include/mbedtls/pk.h:163:0
	.fnstart
	.cfi_startproc
@ %bb.0:
	mov	r0, r1
.Ltmp107:
	@DEBUG_VALUE: mbedtls_pk_rsa:pk <- [DW_OP_LLVM_fragment 32 32] $r0
	@DEBUG_VALUE: mbedtls_pk_rsa:pk <- [DW_OP_LLVM_fragment 0 32] undef
	.loc	1 164 5 prologue_end            @ ../../../ThirdParty/mbedTLS/include/mbedtls/pk.h:164:5
	bx	lr
.Ltmp108:
.Lfunc_end11:
	.size	mbedtls_pk_rsa, .Lfunc_end11-mbedtls_pk_rsa
	.cfi_endproc
	.cantunwind
	.fnend
                                        @ -- End function
	.section	.text.mbedtls_pk_sign_restartable,"ax",%progbits
	.hidden	mbedtls_pk_sign_restartable     @ -- Begin function mbedtls_pk_sign_restartable
	.globl	mbedtls_pk_sign_restartable
	.p2align	2
	.type	mbedtls_pk_sign_restartable,%function
	.code	16                              @ @mbedtls_pk_sign_restartable
	.thumb_func
mbedtls_pk_sign_restartable:
.Lfunc_begin12:
	.loc	8 404 0                         @ ../../../ThirdParty/mbedTLS/library/pk.c:404:0
	.fnstart
	.cfi_startproc
@ %bb.0:
	@DEBUG_VALUE: mbedtls_pk_sign_restartable:ctx <- $r0
	@DEBUG_VALUE: mbedtls_pk_sign_restartable:md_alg <- $r1
	@DEBUG_VALUE: mbedtls_pk_sign_restartable:hash <- $r2
	@DEBUG_VALUE: mbedtls_pk_sign_restartable:hash_len <- $r3
	@DEBUG_VALUE: mbedtls_pk_sign_restartable:hash_len <- $r3
	.save	{r4, r5, r6, r7, lr}
	push	{r4, r5, r6, r7, lr}
	.cfi_def_cfa_offset 20
	.cfi_offset lr, -4
	.cfi_offset r7, -8
	.cfi_offset r6, -12
	.cfi_offset r5, -16
	.cfi_offset r4, -20
	.pad	#28
	sub	sp, #28
	.cfi_def_cfa_offset 48
	mov	r7, r0
	str	r3, [sp, #24]
	@DEBUG_VALUE: mbedtls_pk_sign_restartable:rs_ctx <- undef
.Ltmp109:
	@DEBUG_VALUE: mbedtls_pk_sign_restartable:p_rng <- [DW_OP_plus_uconst 60] [$sp+0]
	@DEBUG_VALUE: mbedtls_pk_sign_restartable:f_rng <- [DW_OP_plus_uconst 56] [$sp+0]
	@DEBUG_VALUE: mbedtls_pk_sign_restartable:sig_len <- [DW_OP_plus_uconst 52] [$sp+0]
	@DEBUG_VALUE: mbedtls_pk_sign_restartable:sig <- [DW_OP_plus_uconst 48] [$sp+0]
	@DEBUG_VALUE: mbedtls_pk_sign_restartable:hash <- $r2
	@DEBUG_VALUE: mbedtls_pk_sign_restartable:md_alg <- $r1
	@DEBUG_VALUE: mbedtls_pk_sign_restartable:ctx <- $r7
	.loc	8 410 14 prologue_end           @ ../../../ThirdParty/mbedTLS/library/pk.c:410:14
	ldr	r0, [r0]
	ldr	r6, __arm_cp.12_0
	.loc	8 410 30 is_stmt 0              @ ../../../ThirdParty/mbedTLS/library/pk.c:410:30
	cbz	r0, .LBB12_5
.Ltmp110:
@ %bb.1:
	@DEBUG_VALUE: mbedtls_pk_sign_restartable:ctx <- $r7
	@DEBUG_VALUE: mbedtls_pk_sign_restartable:hash_len <- $r3
	@DEBUG_VALUE: mbedtls_pk_sign_restartable:hash <- $r2
	@DEBUG_VALUE: mbedtls_pk_sign_restartable:md_alg <- $r1
	@DEBUG_VALUE: mbedtls_pk_sign_restartable:sig <- [DW_OP_plus_uconst 48] [$sp+0]
	@DEBUG_VALUE: mbedtls_pk_sign_restartable:sig_len <- [DW_OP_plus_uconst 52] [$sp+0]
	@DEBUG_VALUE: mbedtls_pk_sign_restartable:f_rng <- [DW_OP_plus_uconst 56] [$sp+0]
	@DEBUG_VALUE: mbedtls_pk_sign_restartable:p_rng <- [DW_OP_plus_uconst 60] [$sp+0]
	.loc	8 0 30                          @ ../../../ThirdParty/mbedTLS/library/pk.c:0:30
	mov	r4, r2
.Ltmp111:
	@DEBUG_VALUE: mbedtls_pk_sign_restartable:hash <- $r4
	mov	r5, r1
.Ltmp112:
	@DEBUG_VALUE: mbedtls_pk_sign_restartable:md_alg <- $r5
	@DEBUG_VALUE: mbedtls_pk_sign_restartable:md_alg <- $r5
	@DEBUG_VALUE: mbedtls_pk_sign_restartable:hash_len <- [DW_OP_plus_uconst 24, DW_OP_deref] $sp
	add	r1, sp, #24
	.loc	8 411 13 is_stmt 1              @ ../../../ThirdParty/mbedTLS/library/pk.c:411:13
	mov	r0, r5
	bl	pk_hashlen_helper
.Ltmp113:
	.loc	8 410 9                         @ ../../../ThirdParty/mbedTLS/library/pk.c:410:9
	cbnz	r0, .LBB12_5
.Ltmp114:
@ %bb.2:
	@DEBUG_VALUE: mbedtls_pk_sign_restartable:ctx <- $r7
	@DEBUG_VALUE: mbedtls_pk_sign_restartable:md_alg <- $r5
	@DEBUG_VALUE: mbedtls_pk_sign_restartable:hash <- $r4
	@DEBUG_VALUE: mbedtls_pk_sign_restartable:hash_len <- [DW_OP_plus_uconst 24, DW_OP_deref] $sp
	@DEBUG_VALUE: mbedtls_pk_sign_restartable:sig <- [DW_OP_plus_uconst 48] [$sp+0]
	@DEBUG_VALUE: mbedtls_pk_sign_restartable:sig_len <- [DW_OP_plus_uconst 52] [$sp+0]
	@DEBUG_VALUE: mbedtls_pk_sign_restartable:f_rng <- [DW_OP_plus_uconst 56] [$sp+0]
	@DEBUG_VALUE: mbedtls_pk_sign_restartable:p_rng <- [DW_OP_plus_uconst 60] [$sp+0]
	.loc	8 437 14                        @ ../../../ThirdParty/mbedTLS/library/pk.c:437:14
	ldr	r0, [r7]
	.loc	8 437 23 is_stmt 0              @ ../../../ThirdParty/mbedTLS/library/pk.c:437:23
	ldr	r0, [r0, #20]
.Ltmp115:
	.loc	8 437 9                         @ ../../../ThirdParty/mbedTLS/library/pk.c:437:9
	cbz	r0, .LBB12_4
.Ltmp116:
@ %bb.3:
	@DEBUG_VALUE: mbedtls_pk_sign_restartable:ctx <- $r7
	@DEBUG_VALUE: mbedtls_pk_sign_restartable:md_alg <- $r5
	@DEBUG_VALUE: mbedtls_pk_sign_restartable:hash <- $r4
	@DEBUG_VALUE: mbedtls_pk_sign_restartable:hash_len <- [DW_OP_plus_uconst 24, DW_OP_deref] $sp
	@DEBUG_VALUE: mbedtls_pk_sign_restartable:sig <- [DW_OP_plus_uconst 48] [$sp+0]
	@DEBUG_VALUE: mbedtls_pk_sign_restartable:sig_len <- [DW_OP_plus_uconst 52] [$sp+0]
	@DEBUG_VALUE: mbedtls_pk_sign_restartable:f_rng <- [DW_OP_plus_uconst 56] [$sp+0]
	@DEBUG_VALUE: mbedtls_pk_sign_restartable:p_rng <- [DW_OP_plus_uconst 60] [$sp+0]
	.loc	8 0 9                           @ ../../../ThirdParty/mbedTLS/library/pk.c:0:9
	ldr	r1, [sp, #60]
	ldr	r2, [sp, #56]
	ldr	r6, [sp, #52]
	ldr	r3, [sp, #48]
	str	r0, [sp, #20]                   @ 4-byte Spill
	.loc	8 440 43 is_stmt 1              @ ../../../ThirdParty/mbedTLS/library/pk.c:440:43
	ldr	r0, [r7, #4]
	.loc	8 440 65 is_stmt 0              @ ../../../ThirdParty/mbedTLS/library/pk.c:440:65
	ldr	r7, [sp, #24]
.Ltmp117:
	@DEBUG_VALUE: mbedtls_pk_sign_restartable:hash_len <- $r7
	.loc	8 440 13                        @ ../../../ThirdParty/mbedTLS/library/pk.c:440:13
	str	r3, [sp]
	str	r6, [sp, #4]
	str	r2, [sp, #8]
	str	r1, [sp, #12]
	mov	r1, r5
	mov	r2, r4
	mov	r3, r7
	ldr	r4, [sp, #20]                   @ 4-byte Reload
.Ltmp118:
	@DEBUG_VALUE: mbedtls_pk_sign_restartable:hash <- [DW_OP_LLVM_entry_value 1] $r2
	blx	r4
	mov	r6, r0
	b	.LBB12_5
.Ltmp119:
.LBB12_4:
	@DEBUG_VALUE: mbedtls_pk_sign_restartable:ctx <- $r7
	@DEBUG_VALUE: mbedtls_pk_sign_restartable:md_alg <- $r5
	@DEBUG_VALUE: mbedtls_pk_sign_restartable:hash <- $r4
	@DEBUG_VALUE: mbedtls_pk_sign_restartable:hash_len <- [DW_OP_plus_uconst 24, DW_OP_deref] $sp
	@DEBUG_VALUE: mbedtls_pk_sign_restartable:sig <- [DW_OP_plus_uconst 48] [$sp+0]
	@DEBUG_VALUE: mbedtls_pk_sign_restartable:sig_len <- [DW_OP_plus_uconst 52] [$sp+0]
	@DEBUG_VALUE: mbedtls_pk_sign_restartable:f_rng <- [DW_OP_plus_uconst 56] [$sp+0]
	@DEBUG_VALUE: mbedtls_pk_sign_restartable:p_rng <- [DW_OP_plus_uconst 60] [$sp+0]
	.loc	8 0 13                          @ ../../../ThirdParty/mbedTLS/library/pk.c:0:13
	subs	r6, #128
.Ltmp120:
.LBB12_5:
	@DEBUG_VALUE: mbedtls_pk_sign_restartable:sig <- [DW_OP_plus_uconst 48] [$sp+0]
	@DEBUG_VALUE: mbedtls_pk_sign_restartable:sig_len <- [DW_OP_plus_uconst 52] [$sp+0]
	@DEBUG_VALUE: mbedtls_pk_sign_restartable:f_rng <- [DW_OP_plus_uconst 56] [$sp+0]
	@DEBUG_VALUE: mbedtls_pk_sign_restartable:p_rng <- [DW_OP_plus_uconst 60] [$sp+0]
	.loc	8 442 1 is_stmt 1               @ ../../../ThirdParty/mbedTLS/library/pk.c:442:1
	mov	r0, r6
	add	sp, #28
.Ltmp121:
	pop	{r4, r5, r6, r7, pc}
.Ltmp122:
	.p2align	2
@ %bb.6:
	.loc	8 0 1 is_stmt 0                 @ ../../../ThirdParty/mbedTLS/library/pk.c:0:1
__arm_cp.12_0:
	.long	4294951296                      @ 0xffffc180
.Lcpi_end9:
	.size	__arm_cp.12_0, .Lcpi_end9-__arm_cp.12_0
.Lfunc_end12:
	.size	mbedtls_pk_sign_restartable, .Lfunc_end12-mbedtls_pk_sign_restartable
	.cfi_endproc
	.cantunwind
	.fnend
                                        @ -- End function
	.section	.text.mbedtls_pk_sign,"ax",%progbits
	.hidden	mbedtls_pk_sign                 @ -- Begin function mbedtls_pk_sign
	.globl	mbedtls_pk_sign
	.p2align	1
	.type	mbedtls_pk_sign,%function
	.code	16                              @ @mbedtls_pk_sign
	.thumb_func
mbedtls_pk_sign:
.Lfunc_begin13:
	.loc	8 451 0 is_stmt 1               @ ../../../ThirdParty/mbedTLS/library/pk.c:451:0
	.fnstart
	.cfi_startproc
@ %bb.0:
	@DEBUG_VALUE: mbedtls_pk_sign:ctx <- $r0
	@DEBUG_VALUE: mbedtls_pk_sign:ctx <- $r0
	@DEBUG_VALUE: mbedtls_pk_sign:md_alg <- $r1
	@DEBUG_VALUE: mbedtls_pk_sign:md_alg <- $r1
	@DEBUG_VALUE: mbedtls_pk_sign:hash <- $r2
	@DEBUG_VALUE: mbedtls_pk_sign:hash <- $r2
	@DEBUG_VALUE: mbedtls_pk_sign:hash_len <- $r3
	@DEBUG_VALUE: mbedtls_pk_sign:hash_len <- $r3
	.save	{r4, lr}
	push	{r4, lr}
	.cfi_def_cfa_offset 8
	.cfi_offset lr, -4
	.cfi_offset r4, -8
	.pad	#24
	sub	sp, #24
	.cfi_def_cfa_offset 32
.Ltmp123:
	@DEBUG_VALUE: mbedtls_pk_sign:sig <- [DW_OP_plus_uconst 32] [$sp+0]
	@DEBUG_VALUE: mbedtls_pk_sign:sig_len <- [DW_OP_plus_uconst 36] [$sp+0]
	@DEBUG_VALUE: mbedtls_pk_sign:f_rng <- [DW_OP_plus_uconst 40] [$sp+0]
	@DEBUG_VALUE: mbedtls_pk_sign:p_rng <- [DW_OP_plus_uconst 44] [$sp+0]
	ldr	r4, [sp, #44]
.Ltmp124:
	.loc	8 452 13 prologue_end           @ ../../../ThirdParty/mbedTLS/library/pk.c:452:13
	str	r4, [sp, #12]
	ldr	r4, [sp, #40]
	str	r4, [sp, #8]
	ldr	r4, [sp, #36]
	str	r4, [sp, #4]
	ldr	r4, [sp, #32]
	str	r4, [sp]
	@DEBUG_VALUE: mbedtls_pk_sign:hash_len <- $r3
	@DEBUG_VALUE: mbedtls_pk_sign:hash <- $r2
	@DEBUG_VALUE: mbedtls_pk_sign:md_alg <- $r1
	@DEBUG_VALUE: mbedtls_pk_sign:ctx <- $r0
	bl	mbedtls_pk_sign_restartable
.Ltmp125:
	@DEBUG_VALUE: mbedtls_pk_sign:hash_len <- [DW_OP_LLVM_entry_value 1] $r3
	@DEBUG_VALUE: mbedtls_pk_sign:hash <- [DW_OP_LLVM_entry_value 1] $r2
	@DEBUG_VALUE: mbedtls_pk_sign:md_alg <- [DW_OP_LLVM_entry_value 1] $r1
	@DEBUG_VALUE: mbedtls_pk_sign:ctx <- [DW_OP_LLVM_entry_value 1] $r0
	.loc	8 452 5 is_stmt 0               @ ../../../ThirdParty/mbedTLS/library/pk.c:452:5
	add	sp, #24
.Ltmp126:
	pop	{r4, pc}
.Ltmp127:
.Lfunc_end13:
	.size	mbedtls_pk_sign, .Lfunc_end13-mbedtls_pk_sign
	.cfi_endproc
	.cantunwind
	.fnend
                                        @ -- End function
	.section	.text.mbedtls_pk_decrypt,"ax",%progbits
	.hidden	mbedtls_pk_decrypt              @ -- Begin function mbedtls_pk_decrypt
	.globl	mbedtls_pk_decrypt
	.p2align	2
	.type	mbedtls_pk_decrypt,%function
	.code	16                              @ @mbedtls_pk_decrypt
	.thumb_func
mbedtls_pk_decrypt:
.Lfunc_begin14:
	.loc	8 463 0 is_stmt 1               @ ../../../ThirdParty/mbedTLS/library/pk.c:463:0
	.fnstart
	.cfi_startproc
@ %bb.0:
	@DEBUG_VALUE: mbedtls_pk_decrypt:ctx <- $r0
	@DEBUG_VALUE: mbedtls_pk_decrypt:input <- $r1
	@DEBUG_VALUE: mbedtls_pk_decrypt:ilen <- $r2
	@DEBUG_VALUE: mbedtls_pk_decrypt:output <- $r3
	.save	{r4, r5, r6, r7, lr}
	push	{r4, r5, r6, r7, lr}
	.cfi_def_cfa_offset 20
	.cfi_offset lr, -4
	.cfi_offset r7, -8
	.cfi_offset r6, -12
	.cfi_offset r5, -16
	.cfi_offset r4, -20
	.pad	#20
	sub	sp, #20
	.cfi_def_cfa_offset 40
	mov	r4, r0
	ldr	r0, __arm_cp.14_0
.Ltmp128:
	@DEBUG_VALUE: mbedtls_pk_decrypt:ctx <- [DW_OP_LLVM_entry_value 1] $r0
	@DEBUG_VALUE: mbedtls_pk_decrypt:p_rng <- [DW_OP_plus_uconst 52] [$sp+0]
	@DEBUG_VALUE: mbedtls_pk_decrypt:f_rng <- [DW_OP_plus_uconst 48] [$sp+0]
	@DEBUG_VALUE: mbedtls_pk_decrypt:osize <- [DW_OP_plus_uconst 44] [$sp+0]
	@DEBUG_VALUE: mbedtls_pk_decrypt:olen <- [DW_OP_plus_uconst 40] [$sp+0]
	@DEBUG_VALUE: mbedtls_pk_decrypt:output <- $r3
	@DEBUG_VALUE: mbedtls_pk_decrypt:ilen <- $r2
	@DEBUG_VALUE: mbedtls_pk_decrypt:input <- $r1
	@DEBUG_VALUE: mbedtls_pk_decrypt:ctx <- $r4
	.loc	8 469 14 prologue_end           @ ../../../ThirdParty/mbedTLS/library/pk.c:469:14
	ldr	r5, [r4]
.Ltmp129:
	.loc	8 469 9 is_stmt 0               @ ../../../ThirdParty/mbedTLS/library/pk.c:469:9
	cbz	r5, .LBB14_4
.Ltmp130:
@ %bb.1:
	@DEBUG_VALUE: mbedtls_pk_decrypt:ctx <- $r4
	@DEBUG_VALUE: mbedtls_pk_decrypt:output <- $r3
	@DEBUG_VALUE: mbedtls_pk_decrypt:ilen <- $r2
	@DEBUG_VALUE: mbedtls_pk_decrypt:input <- $r1
	@DEBUG_VALUE: mbedtls_pk_decrypt:olen <- [DW_OP_plus_uconst 40] [$sp+0]
	@DEBUG_VALUE: mbedtls_pk_decrypt:osize <- [DW_OP_plus_uconst 44] [$sp+0]
	@DEBUG_VALUE: mbedtls_pk_decrypt:f_rng <- [DW_OP_plus_uconst 48] [$sp+0]
	@DEBUG_VALUE: mbedtls_pk_decrypt:p_rng <- [DW_OP_plus_uconst 52] [$sp+0]
	.loc	8 472 23 is_stmt 1              @ ../../../ThirdParty/mbedTLS/library/pk.c:472:23
	ldr	r5, [r5, #24]
.Ltmp131:
	.loc	8 472 9 is_stmt 0               @ ../../../ThirdParty/mbedTLS/library/pk.c:472:9
	cbz	r5, .LBB14_3
.Ltmp132:
@ %bb.2:
	@DEBUG_VALUE: mbedtls_pk_decrypt:ctx <- $r4
	@DEBUG_VALUE: mbedtls_pk_decrypt:output <- $r3
	@DEBUG_VALUE: mbedtls_pk_decrypt:ilen <- $r2
	@DEBUG_VALUE: mbedtls_pk_decrypt:input <- $r1
	@DEBUG_VALUE: mbedtls_pk_decrypt:olen <- [DW_OP_plus_uconst 40] [$sp+0]
	@DEBUG_VALUE: mbedtls_pk_decrypt:osize <- [DW_OP_plus_uconst 44] [$sp+0]
	@DEBUG_VALUE: mbedtls_pk_decrypt:f_rng <- [DW_OP_plus_uconst 48] [$sp+0]
	@DEBUG_VALUE: mbedtls_pk_decrypt:p_rng <- [DW_OP_plus_uconst 52] [$sp+0]
	.loc	8 0 9                           @ ../../../ThirdParty/mbedTLS/library/pk.c:0:9
	ldr	r0, [sp, #52]
	str	r0, [sp, #16]                   @ 4-byte Spill
	add	r7, sp, #40
	ldm	r7, {r0, r6, r7}
	.loc	8 475 46 is_stmt 1              @ ../../../ThirdParty/mbedTLS/library/pk.c:475:46
	ldr	r4, [r4, #4]
.Ltmp133:
	.loc	8 475 13 is_stmt 0              @ ../../../ThirdParty/mbedTLS/library/pk.c:475:13
	str	r0, [sp]
	str	r6, [sp, #4]
	str	r7, [sp, #8]
	ldr	r0, [sp, #16]                   @ 4-byte Reload
	str	r0, [sp, #12]
	mov	r0, r4
	blx	r5
.Ltmp134:
	@DEBUG_VALUE: mbedtls_pk_decrypt:output <- [DW_OP_LLVM_entry_value 1] $r3
	@DEBUG_VALUE: mbedtls_pk_decrypt:ilen <- [DW_OP_LLVM_entry_value 1] $r2
	@DEBUG_VALUE: mbedtls_pk_decrypt:input <- [DW_OP_LLVM_entry_value 1] $r1
.LBB14_3:
	@DEBUG_VALUE: mbedtls_pk_decrypt:olen <- [DW_OP_plus_uconst 40] [$sp+0]
	@DEBUG_VALUE: mbedtls_pk_decrypt:osize <- [DW_OP_plus_uconst 44] [$sp+0]
	@DEBUG_VALUE: mbedtls_pk_decrypt:f_rng <- [DW_OP_plus_uconst 48] [$sp+0]
	@DEBUG_VALUE: mbedtls_pk_decrypt:p_rng <- [DW_OP_plus_uconst 52] [$sp+0]
	.loc	8 477 1 is_stmt 1               @ ../../../ThirdParty/mbedTLS/library/pk.c:477:1
	add	sp, #20
.Ltmp135:
	pop	{r4, r5, r6, r7, pc}
.LBB14_4:
.Ltmp136:
	@DEBUG_VALUE: mbedtls_pk_decrypt:ctx <- $r4
	@DEBUG_VALUE: mbedtls_pk_decrypt:output <- $r3
	@DEBUG_VALUE: mbedtls_pk_decrypt:ilen <- $r2
	@DEBUG_VALUE: mbedtls_pk_decrypt:input <- $r1
	@DEBUG_VALUE: mbedtls_pk_decrypt:olen <- [DW_OP_plus_uconst 40] [$sp+0]
	@DEBUG_VALUE: mbedtls_pk_decrypt:osize <- [DW_OP_plus_uconst 44] [$sp+0]
	@DEBUG_VALUE: mbedtls_pk_decrypt:f_rng <- [DW_OP_plus_uconst 48] [$sp+0]
	@DEBUG_VALUE: mbedtls_pk_decrypt:p_rng <- [DW_OP_plus_uconst 52] [$sp+0]
	.loc	8 0 1 is_stmt 0                 @ ../../../ThirdParty/mbedTLS/library/pk.c:0:1
	adds	r0, #128
	.loc	8 477 1                         @ ../../../ThirdParty/mbedTLS/library/pk.c:477:1
	add	sp, #20
.Ltmp137:
	pop	{r4, r5, r6, r7, pc}
.Ltmp138:
	.p2align	2
@ %bb.5:
	.loc	8 0 1                           @ ../../../ThirdParty/mbedTLS/library/pk.c:0:1
__arm_cp.14_0:
	.long	4294951168                      @ 0xffffc100
.Lcpi_end10:
	.size	__arm_cp.14_0, .Lcpi_end10-__arm_cp.14_0
.Lfunc_end14:
	.size	mbedtls_pk_decrypt, .Lfunc_end14-mbedtls_pk_decrypt
	.cfi_endproc
	.cantunwind
	.fnend
                                        @ -- End function
	.section	.text.mbedtls_pk_encrypt,"ax",%progbits
	.hidden	mbedtls_pk_encrypt              @ -- Begin function mbedtls_pk_encrypt
	.globl	mbedtls_pk_encrypt
	.p2align	2
	.type	mbedtls_pk_encrypt,%function
	.code	16                              @ @mbedtls_pk_encrypt
	.thumb_func
mbedtls_pk_encrypt:
.Lfunc_begin15:
	.loc	8 486 0 is_stmt 1               @ ../../../ThirdParty/mbedTLS/library/pk.c:486:0
	.fnstart
	.cfi_startproc
@ %bb.0:
	@DEBUG_VALUE: mbedtls_pk_encrypt:ctx <- $r0
	@DEBUG_VALUE: mbedtls_pk_encrypt:input <- $r1
	@DEBUG_VALUE: mbedtls_pk_encrypt:ilen <- $r2
	@DEBUG_VALUE: mbedtls_pk_encrypt:output <- $r3
	.save	{r4, r5, r6, r7, lr}
	push	{r4, r5, r6, r7, lr}
	.cfi_def_cfa_offset 20
	.cfi_offset lr, -4
	.cfi_offset r7, -8
	.cfi_offset r6, -12
	.cfi_offset r5, -16
	.cfi_offset r4, -20
	.pad	#20
	sub	sp, #20
	.cfi_def_cfa_offset 40
	mov	r4, r0
	ldr	r0, __arm_cp.15_0
.Ltmp139:
	@DEBUG_VALUE: mbedtls_pk_encrypt:ctx <- [DW_OP_LLVM_entry_value 1] $r0
	@DEBUG_VALUE: mbedtls_pk_encrypt:p_rng <- [DW_OP_plus_uconst 52] [$sp+0]
	@DEBUG_VALUE: mbedtls_pk_encrypt:f_rng <- [DW_OP_plus_uconst 48] [$sp+0]
	@DEBUG_VALUE: mbedtls_pk_encrypt:osize <- [DW_OP_plus_uconst 44] [$sp+0]
	@DEBUG_VALUE: mbedtls_pk_encrypt:olen <- [DW_OP_plus_uconst 40] [$sp+0]
	@DEBUG_VALUE: mbedtls_pk_encrypt:output <- $r3
	@DEBUG_VALUE: mbedtls_pk_encrypt:ilen <- $r2
	@DEBUG_VALUE: mbedtls_pk_encrypt:input <- $r1
	@DEBUG_VALUE: mbedtls_pk_encrypt:ctx <- $r4
	.loc	8 492 14 prologue_end           @ ../../../ThirdParty/mbedTLS/library/pk.c:492:14
	ldr	r5, [r4]
.Ltmp140:
	.loc	8 492 9 is_stmt 0               @ ../../../ThirdParty/mbedTLS/library/pk.c:492:9
	cbz	r5, .LBB15_4
.Ltmp141:
@ %bb.1:
	@DEBUG_VALUE: mbedtls_pk_encrypt:ctx <- $r4
	@DEBUG_VALUE: mbedtls_pk_encrypt:output <- $r3
	@DEBUG_VALUE: mbedtls_pk_encrypt:ilen <- $r2
	@DEBUG_VALUE: mbedtls_pk_encrypt:input <- $r1
	@DEBUG_VALUE: mbedtls_pk_encrypt:olen <- [DW_OP_plus_uconst 40] [$sp+0]
	@DEBUG_VALUE: mbedtls_pk_encrypt:osize <- [DW_OP_plus_uconst 44] [$sp+0]
	@DEBUG_VALUE: mbedtls_pk_encrypt:f_rng <- [DW_OP_plus_uconst 48] [$sp+0]
	@DEBUG_VALUE: mbedtls_pk_encrypt:p_rng <- [DW_OP_plus_uconst 52] [$sp+0]
	.loc	8 495 23 is_stmt 1              @ ../../../ThirdParty/mbedTLS/library/pk.c:495:23
	ldr	r5, [r5, #28]
.Ltmp142:
	.loc	8 495 9 is_stmt 0               @ ../../../ThirdParty/mbedTLS/library/pk.c:495:9
	cbz	r5, .LBB15_3
.Ltmp143:
@ %bb.2:
	@DEBUG_VALUE: mbedtls_pk_encrypt:ctx <- $r4
	@DEBUG_VALUE: mbedtls_pk_encrypt:output <- $r3
	@DEBUG_VALUE: mbedtls_pk_encrypt:ilen <- $r2
	@DEBUG_VALUE: mbedtls_pk_encrypt:input <- $r1
	@DEBUG_VALUE: mbedtls_pk_encrypt:olen <- [DW_OP_plus_uconst 40] [$sp+0]
	@DEBUG_VALUE: mbedtls_pk_encrypt:osize <- [DW_OP_plus_uconst 44] [$sp+0]
	@DEBUG_VALUE: mbedtls_pk_encrypt:f_rng <- [DW_OP_plus_uconst 48] [$sp+0]
	@DEBUG_VALUE: mbedtls_pk_encrypt:p_rng <- [DW_OP_plus_uconst 52] [$sp+0]
	.loc	8 0 9                           @ ../../../ThirdParty/mbedTLS/library/pk.c:0:9
	ldr	r0, [sp, #52]
	str	r0, [sp, #16]                   @ 4-byte Spill
	add	r7, sp, #40
	ldm	r7, {r0, r6, r7}
	.loc	8 498 46 is_stmt 1              @ ../../../ThirdParty/mbedTLS/library/pk.c:498:46
	ldr	r4, [r4, #4]
.Ltmp144:
	.loc	8 498 13 is_stmt 0              @ ../../../ThirdParty/mbedTLS/library/pk.c:498:13
	str	r0, [sp]
	str	r6, [sp, #4]
	str	r7, [sp, #8]
	ldr	r0, [sp, #16]                   @ 4-byte Reload
	str	r0, [sp, #12]
	mov	r0, r4
	blx	r5
.Ltmp145:
	@DEBUG_VALUE: mbedtls_pk_encrypt:output <- [DW_OP_LLVM_entry_value 1] $r3
	@DEBUG_VALUE: mbedtls_pk_encrypt:ilen <- [DW_OP_LLVM_entry_value 1] $r2
	@DEBUG_VALUE: mbedtls_pk_encrypt:input <- [DW_OP_LLVM_entry_value 1] $r1
.LBB15_3:
	@DEBUG_VALUE: mbedtls_pk_encrypt:olen <- [DW_OP_plus_uconst 40] [$sp+0]
	@DEBUG_VALUE: mbedtls_pk_encrypt:osize <- [DW_OP_plus_uconst 44] [$sp+0]
	@DEBUG_VALUE: mbedtls_pk_encrypt:f_rng <- [DW_OP_plus_uconst 48] [$sp+0]
	@DEBUG_VALUE: mbedtls_pk_encrypt:p_rng <- [DW_OP_plus_uconst 52] [$sp+0]
	.loc	8 500 1 is_stmt 1               @ ../../../ThirdParty/mbedTLS/library/pk.c:500:1
	add	sp, #20
.Ltmp146:
	pop	{r4, r5, r6, r7, pc}
.LBB15_4:
.Ltmp147:
	@DEBUG_VALUE: mbedtls_pk_encrypt:ctx <- $r4
	@DEBUG_VALUE: mbedtls_pk_encrypt:output <- $r3
	@DEBUG_VALUE: mbedtls_pk_encrypt:ilen <- $r2
	@DEBUG_VALUE: mbedtls_pk_encrypt:input <- $r1
	@DEBUG_VALUE: mbedtls_pk_encrypt:olen <- [DW_OP_plus_uconst 40] [$sp+0]
	@DEBUG_VALUE: mbedtls_pk_encrypt:osize <- [DW_OP_plus_uconst 44] [$sp+0]
	@DEBUG_VALUE: mbedtls_pk_encrypt:f_rng <- [DW_OP_plus_uconst 48] [$sp+0]
	@DEBUG_VALUE: mbedtls_pk_encrypt:p_rng <- [DW_OP_plus_uconst 52] [$sp+0]
	.loc	8 0 1 is_stmt 0                 @ ../../../ThirdParty/mbedTLS/library/pk.c:0:1
	adds	r0, #128
	.loc	8 500 1                         @ ../../../ThirdParty/mbedTLS/library/pk.c:500:1
	add	sp, #20
.Ltmp148:
	pop	{r4, r5, r6, r7, pc}
.Ltmp149:
	.p2align	2
@ %bb.5:
	.loc	8 0 1                           @ ../../../ThirdParty/mbedTLS/library/pk.c:0:1
__arm_cp.15_0:
	.long	4294951168                      @ 0xffffc100
.Lcpi_end11:
	.size	__arm_cp.15_0, .Lcpi_end11-__arm_cp.15_0
.Lfunc_end15:
	.size	mbedtls_pk_encrypt, .Lfunc_end15-mbedtls_pk_encrypt
	.cfi_endproc
	.cantunwind
	.fnend
                                        @ -- End function
	.section	.text.mbedtls_pk_check_pair,"ax",%progbits
	.hidden	mbedtls_pk_check_pair           @ -- Begin function mbedtls_pk_check_pair
	.globl	mbedtls_pk_check_pair
	.p2align	2
	.type	mbedtls_pk_check_pair,%function
	.code	16                              @ @mbedtls_pk_check_pair
	.thumb_func
mbedtls_pk_check_pair:
.Lfunc_begin16:
	.loc	8 506 0 is_stmt 1               @ ../../../ThirdParty/mbedTLS/library/pk.c:506:0
	.fnstart
	.cfi_startproc
@ %bb.0:
	@DEBUG_VALUE: mbedtls_pk_check_pair:pub <- $r0
	@DEBUG_VALUE: mbedtls_pk_check_pair:prv <- $r1
	.save	{r4, r5, r6, lr}
	push	{r4, r5, r6, lr}
	.cfi_def_cfa_offset 16
	.cfi_offset lr, -4
	.cfi_offset r6, -8
	.cfi_offset r5, -12
	.cfi_offset r4, -16
	ldr	r3, __arm_cp.16_0
	@DEBUG_VALUE: mbedtls_pk_check_pair:prv <- $r1
	@DEBUG_VALUE: mbedtls_pk_check_pair:pub <- $r0
.Ltmp150:
	.loc	8 0 0 prologue_end              @ ../../../ThirdParty/mbedTLS/library/pk.c:0:0
	mov	r2, r3
	adds	r2, #128
.Ltmp151:
	.loc	8 510 14                        @ ../../../ThirdParty/mbedTLS/library/pk.c:510:14
	ldr	r5, [r0]
	.loc	8 510 30 is_stmt 0              @ ../../../ThirdParty/mbedTLS/library/pk.c:510:30
	cbz	r5, .LBB16_7
.Ltmp152:
@ %bb.1:
	@DEBUG_VALUE: mbedtls_pk_check_pair:prv <- $r1
	@DEBUG_VALUE: mbedtls_pk_check_pair:pub <- $r0
	.loc	8 511 18 is_stmt 1              @ ../../../ThirdParty/mbedTLS/library/pk.c:511:18
	ldr	r6, [r1]
.Ltmp153:
	.loc	8 510 9                         @ ../../../ThirdParty/mbedTLS/library/pk.c:510:9
	cbz	r6, .LBB16_7
.Ltmp154:
@ %bb.2:
	@DEBUG_VALUE: mbedtls_pk_check_pair:prv <- $r1
	@DEBUG_VALUE: mbedtls_pk_check_pair:pub <- $r0
	.loc	8 516 23                        @ ../../../ThirdParty/mbedTLS/library/pk.c:516:23
	ldr	r4, [r6, #32]
.Ltmp155:
	.loc	8 516 9 is_stmt 0               @ ../../../ThirdParty/mbedTLS/library/pk.c:516:9
	cbz	r4, .LBB16_5
.Ltmp156:
@ %bb.3:
	@DEBUG_VALUE: mbedtls_pk_check_pair:prv <- $r1
	@DEBUG_VALUE: mbedtls_pk_check_pair:pub <- $r0
	.loc	8 519 23 is_stmt 1              @ ../../../ThirdParty/mbedTLS/library/pk.c:519:23
	ldrb	r2, [r6]
.Ltmp157:
	.loc	8 519 9 is_stmt 0               @ ../../../ThirdParty/mbedTLS/library/pk.c:519:9
	cmp	r2, #5
	bne	.LBB16_6
.Ltmp158:
@ %bb.4:
	@DEBUG_VALUE: mbedtls_pk_check_pair:prv <- $r1
	@DEBUG_VALUE: mbedtls_pk_check_pair:pub <- $r0
	.loc	8 521 27 is_stmt 1              @ ../../../ThirdParty/mbedTLS/library/pk.c:521:27
	ldrb	r2, [r5]
.Ltmp159:
	.loc	8 521 13 is_stmt 0              @ ../../../ThirdParty/mbedTLS/library/pk.c:521:13
	cmp	r2, #1
.Ltmp160:
	.loc	8 0 0                           @ ../../../ThirdParty/mbedTLS/library/pk.c:0:0
	mov	r2, r3
.Ltmp161:
	bne	.LBB16_7
	b	.LBB16_8
.Ltmp162:
.LBB16_5:
	@DEBUG_VALUE: mbedtls_pk_check_pair:prv <- $r1
	@DEBUG_VALUE: mbedtls_pk_check_pair:pub <- $r0
	ldr	r0, __arm_cp.16_1
.Ltmp163:
	@DEBUG_VALUE: mbedtls_pk_check_pair:pub <- [DW_OP_LLVM_entry_value 1] $r0
	.loc	8 531 1 is_stmt 1               @ ../../../ThirdParty/mbedTLS/library/pk.c:531:1
	pop	{r4, r5, r6, pc}
.Ltmp164:
.LBB16_6:
	@DEBUG_VALUE: mbedtls_pk_check_pair:prv <- $r1
	@DEBUG_VALUE: mbedtls_pk_check_pair:pub <- $r0
	.loc	8 526 13                        @ ../../../ThirdParty/mbedTLS/library/pk.c:526:13
	cmp	r5, r6
.Ltmp165:
	.loc	8 0 0 is_stmt 0                 @ ../../../ThirdParty/mbedTLS/library/pk.c:0:0
	mov	r2, r3
.Ltmp166:
	beq	.LBB16_8
.Ltmp167:
.LBB16_7:
	@DEBUG_VALUE: mbedtls_pk_check_pair:prv <- $r1
	@DEBUG_VALUE: mbedtls_pk_check_pair:pub <- $r0
	.loc	8 531 1 is_stmt 1               @ ../../../ThirdParty/mbedTLS/library/pk.c:531:1
	mov	r0, r2
.Ltmp168:
	@DEBUG_VALUE: mbedtls_pk_check_pair:pub <- [DW_OP_LLVM_entry_value 1] $r0
	pop	{r4, r5, r6, pc}
.Ltmp169:
.LBB16_8:
	@DEBUG_VALUE: mbedtls_pk_check_pair:prv <- $r1
	@DEBUG_VALUE: mbedtls_pk_check_pair:pub <- $r0
	.loc	8 530 62                        @ ../../../ThirdParty/mbedTLS/library/pk.c:530:62
	ldr	r1, [r1, #4]
.Ltmp170:
	@DEBUG_VALUE: mbedtls_pk_check_pair:prv <- [DW_OP_LLVM_entry_value 1] $r1
	.loc	8 530 49 is_stmt 0              @ ../../../ThirdParty/mbedTLS/library/pk.c:530:49
	ldr	r0, [r0, #4]
.Ltmp171:
	@DEBUG_VALUE: mbedtls_pk_check_pair:pub <- [DW_OP_LLVM_entry_value 1] $r0
	.loc	8 530 13                        @ ../../../ThirdParty/mbedTLS/library/pk.c:530:13
	blx	r4
	mov	r2, r0
	.loc	8 531 1 is_stmt 1               @ ../../../ThirdParty/mbedTLS/library/pk.c:531:1
	mov	r0, r2
	pop	{r4, r5, r6, pc}
.Ltmp172:
	.p2align	2
@ %bb.9:
	.loc	8 0 1 is_stmt 0                 @ ../../../ThirdParty/mbedTLS/library/pk.c:0:1
__arm_cp.16_0:
	.long	4294951168                      @ 0xffffc100
.Lcpi_end12:
	.size	__arm_cp.16_0, .Lcpi_end12-__arm_cp.16_0
__arm_cp.16_1:
	.long	4294952576                      @ 0xffffc680
.Lcpi_end13:
	.size	__arm_cp.16_1, .Lcpi_end13-__arm_cp.16_1
.Lfunc_end16:
	.size	mbedtls_pk_check_pair, .Lfunc_end16-mbedtls_pk_check_pair
	.cfi_endproc
	.cantunwind
	.fnend
                                        @ -- End function
	.section	.text.mbedtls_pk_get_bitlen,"ax",%progbits
	.hidden	mbedtls_pk_get_bitlen           @ -- Begin function mbedtls_pk_get_bitlen
	.globl	mbedtls_pk_get_bitlen
	.p2align	1
	.type	mbedtls_pk_get_bitlen,%function
	.code	16                              @ @mbedtls_pk_get_bitlen
	.thumb_func
mbedtls_pk_get_bitlen:
.Lfunc_begin17:
	.loc	8 537 0 is_stmt 1               @ ../../../ThirdParty/mbedTLS/library/pk.c:537:0
	.fnstart
	.cfi_startproc
@ %bb.0:
	@DEBUG_VALUE: mbedtls_pk_get_bitlen:ctx <- $r0
	.save	{r7, lr}
	push	{r7, lr}
	.cfi_def_cfa_offset 8
	.cfi_offset lr, -4
	.cfi_offset r7, -8
	mov	r1, r0
	movs	r0, #0
.Ltmp173:
	@DEBUG_VALUE: mbedtls_pk_get_bitlen:ctx <- [DW_OP_LLVM_entry_value 1] $r0
	@DEBUG_VALUE: mbedtls_pk_get_bitlen:ctx <- $r1
	.loc	8 540 21 prologue_end           @ ../../../ThirdParty/mbedTLS/library/pk.c:540:21
	cbz	r1, .LBB17_3
.Ltmp174:
@ %bb.1:
	@DEBUG_VALUE: mbedtls_pk_get_bitlen:ctx <- $r1
	.loc	8 540 29 is_stmt 0              @ ../../../ThirdParty/mbedTLS/library/pk.c:540:29
	ldr	r2, [r1]
.Ltmp175:
	.loc	8 540 9                         @ ../../../ThirdParty/mbedTLS/library/pk.c:540:9
	cbz	r2, .LBB17_3
.Ltmp176:
@ %bb.2:
	@DEBUG_VALUE: mbedtls_pk_get_bitlen:ctx <- $r1
	.loc	8 543 44 is_stmt 1              @ ../../../ThirdParty/mbedTLS/library/pk.c:543:44
	ldr	r0, [r1, #4]
	.loc	8 543 27 is_stmt 0              @ ../../../ThirdParty/mbedTLS/library/pk.c:543:27
	ldr	r1, [r2, #8]
.Ltmp177:
	.loc	8 543 13                        @ ../../../ThirdParty/mbedTLS/library/pk.c:543:13
	blx	r1
.LBB17_3:
	.loc	8 544 1 is_stmt 1               @ ../../../ThirdParty/mbedTLS/library/pk.c:544:1
	pop	{r7, pc}
.Ltmp178:
.Lfunc_end17:
	.size	mbedtls_pk_get_bitlen, .Lfunc_end17-mbedtls_pk_get_bitlen
	.cfi_endproc
	.cantunwind
	.fnend
                                        @ -- End function
	.section	.text.mbedtls_pk_debug,"ax",%progbits
	.hidden	mbedtls_pk_debug                @ -- Begin function mbedtls_pk_debug
	.globl	mbedtls_pk_debug
	.p2align	2
	.type	mbedtls_pk_debug,%function
	.code	16                              @ @mbedtls_pk_debug
	.thumb_func
mbedtls_pk_debug:
.Lfunc_begin18:
	.loc	8 550 0                         @ ../../../ThirdParty/mbedTLS/library/pk.c:550:0
	.fnstart
	.cfi_startproc
@ %bb.0:
	@DEBUG_VALUE: mbedtls_pk_debug:ctx <- $r0
	@DEBUG_VALUE: mbedtls_pk_debug:items <- $r1
	.save	{r7, lr}
	push	{r7, lr}
	.cfi_def_cfa_offset 8
	.cfi_offset lr, -4
	.cfi_offset r7, -8
	mov	r2, r0
	ldr	r0, __arm_cp.18_0
.Ltmp179:
	@DEBUG_VALUE: mbedtls_pk_debug:ctx <- [DW_OP_LLVM_entry_value 1] $r0
	@DEBUG_VALUE: mbedtls_pk_debug:items <- $r1
	@DEBUG_VALUE: mbedtls_pk_debug:ctx <- $r2
	.loc	8 552 14 prologue_end           @ ../../../ThirdParty/mbedTLS/library/pk.c:552:14
	ldr	r3, [r2]
.Ltmp180:
	.loc	8 552 9 is_stmt 0               @ ../../../ThirdParty/mbedTLS/library/pk.c:552:9
	cbz	r3, .LBB18_4
.Ltmp181:
@ %bb.1:
	@DEBUG_VALUE: mbedtls_pk_debug:ctx <- $r2
	@DEBUG_VALUE: mbedtls_pk_debug:items <- $r1
	.loc	8 555 23 is_stmt 1              @ ../../../ThirdParty/mbedTLS/library/pk.c:555:23
	ldr	r3, [r3, #44]
.Ltmp182:
	.loc	8 555 9 is_stmt 0               @ ../../../ThirdParty/mbedTLS/library/pk.c:555:9
	cbz	r3, .LBB18_3
.Ltmp183:
@ %bb.2:
	@DEBUG_VALUE: mbedtls_pk_debug:ctx <- $r2
	@DEBUG_VALUE: mbedtls_pk_debug:items <- $r1
	.loc	8 558 36 is_stmt 1              @ ../../../ThirdParty/mbedTLS/library/pk.c:558:36
	ldr	r0, [r2, #4]
	.loc	8 558 5 is_stmt 0               @ ../../../ThirdParty/mbedTLS/library/pk.c:558:5
	blx	r3
.Ltmp184:
	@DEBUG_VALUE: mbedtls_pk_debug:items <- [DW_OP_LLVM_entry_value 1] $r1
	.loc	8 0 5                           @ ../../../ThirdParty/mbedTLS/library/pk.c:0:5
	movs	r0, #0
.Ltmp185:
.LBB18_3:
	.loc	8 560 1 is_stmt 1               @ ../../../ThirdParty/mbedTLS/library/pk.c:560:1
	pop	{r7, pc}
.LBB18_4:
.Ltmp186:
	@DEBUG_VALUE: mbedtls_pk_debug:ctx <- $r2
	@DEBUG_VALUE: mbedtls_pk_debug:items <- $r1
	.loc	8 0 1 is_stmt 0                 @ ../../../ThirdParty/mbedTLS/library/pk.c:0:1
	adds	r0, #128
	.loc	8 560 1                         @ ../../../ThirdParty/mbedTLS/library/pk.c:560:1
	pop	{r7, pc}
.Ltmp187:
	.p2align	2
@ %bb.5:
	.loc	8 0 1                           @ ../../../ThirdParty/mbedTLS/library/pk.c:0:1
__arm_cp.18_0:
	.long	4294951168                      @ 0xffffc100
.Lcpi_end14:
	.size	__arm_cp.18_0, .Lcpi_end14-__arm_cp.18_0
.Lfunc_end18:
	.size	mbedtls_pk_debug, .Lfunc_end18-mbedtls_pk_debug
	.cfi_endproc
	.cantunwind
	.fnend
                                        @ -- End function
	.section	.text.mbedtls_pk_get_name,"ax",%progbits
	.hidden	mbedtls_pk_get_name             @ -- Begin function mbedtls_pk_get_name
	.globl	mbedtls_pk_get_name
	.p2align	2
	.type	mbedtls_pk_get_name,%function
	.code	16                              @ @mbedtls_pk_get_name
	.thumb_func
mbedtls_pk_get_name:
.Lfunc_begin19:
	.loc	8 566 0 is_stmt 1               @ ../../../ThirdParty/mbedTLS/library/pk.c:566:0
	.fnstart
	.cfi_startproc
@ %bb.0:
	@DEBUG_VALUE: mbedtls_pk_get_name:ctx <- $r0
	mov	r1, r0
	ldr	r0, __arm_cp.19_0
.Ltmp188:
	@DEBUG_VALUE: mbedtls_pk_get_name:ctx <- [DW_OP_LLVM_entry_value 1] $r0
	@DEBUG_VALUE: mbedtls_pk_get_name:ctx <- $r1
	.loc	8 567 21 prologue_end           @ ../../../ThirdParty/mbedTLS/library/pk.c:567:21
	cbz	r1, .LBB19_3
.Ltmp189:
@ %bb.1:
	@DEBUG_VALUE: mbedtls_pk_get_name:ctx <- $r1
	.loc	8 567 29 is_stmt 0              @ ../../../ThirdParty/mbedTLS/library/pk.c:567:29
	ldr	r1, [r1]
.Ltmp190:
	.loc	8 567 9                         @ ../../../ThirdParty/mbedTLS/library/pk.c:567:9
	cbz	r1, .LBB19_3
@ %bb.2:
	.loc	8 570 27 is_stmt 1              @ ../../../ThirdParty/mbedTLS/library/pk.c:570:27
	ldr	r0, [r1, #4]
.LBB19_3:
	.loc	8 571 1                         @ ../../../ThirdParty/mbedTLS/library/pk.c:571:1
	bx	lr
.Ltmp191:
	.p2align	2
@ %bb.4:
	.loc	8 0 1 is_stmt 0                 @ ../../../ThirdParty/mbedTLS/library/pk.c:0:1
__arm_cp.19_0:
	.long	.L.str
.Lcpi_end15:
	.size	__arm_cp.19_0, .Lcpi_end15-__arm_cp.19_0
.Lfunc_end19:
	.size	mbedtls_pk_get_name, .Lfunc_end19-mbedtls_pk_get_name
	.cfi_endproc
	.cantunwind
	.fnend
                                        @ -- End function
	.section	.text.mbedtls_pk_get_type,"ax",%progbits
	.hidden	mbedtls_pk_get_type             @ -- Begin function mbedtls_pk_get_type
	.globl	mbedtls_pk_get_type
	.p2align	1
	.type	mbedtls_pk_get_type,%function
	.code	16                              @ @mbedtls_pk_get_type
	.thumb_func
mbedtls_pk_get_type:
.Lfunc_begin20:
	.loc	8 577 0 is_stmt 1               @ ../../../ThirdParty/mbedTLS/library/pk.c:577:0
	.fnstart
	.cfi_startproc
@ %bb.0:
	@DEBUG_VALUE: mbedtls_pk_get_type:ctx <- $r0
	mov	r1, r0
	movs	r0, #0
.Ltmp192:
	@DEBUG_VALUE: mbedtls_pk_get_type:ctx <- [DW_OP_LLVM_entry_value 1] $r0
	@DEBUG_VALUE: mbedtls_pk_get_type:ctx <- $r1
	.loc	8 578 21 prologue_end           @ ../../../ThirdParty/mbedTLS/library/pk.c:578:21
	cbz	r1, .LBB20_3
.Ltmp193:
@ %bb.1:
	@DEBUG_VALUE: mbedtls_pk_get_type:ctx <- $r1
	.loc	8 578 29 is_stmt 0              @ ../../../ThirdParty/mbedTLS/library/pk.c:578:29
	ldr	r1, [r1]
.Ltmp194:
	.loc	8 578 9                         @ ../../../ThirdParty/mbedTLS/library/pk.c:578:9
	cbz	r1, .LBB20_3
@ %bb.2:
	.loc	8 581 27 is_stmt 1              @ ../../../ThirdParty/mbedTLS/library/pk.c:581:27
	ldrb	r0, [r1]
.LBB20_3:
	.loc	8 582 1                         @ ../../../ThirdParty/mbedTLS/library/pk.c:582:1
	bx	lr
.Ltmp195:
.Lfunc_end20:
	.size	mbedtls_pk_get_type, .Lfunc_end20-mbedtls_pk_get_type
	.cfi_endproc
	.cantunwind
	.fnend
                                        @ -- End function
	.type	.L.str,%object                  @ @.str
	.section	.rodata.str1.1,"aMS",%progbits,1
.L.str:
	.asciz	"invalid PK"
	.size	.L.str, 11

	.section	".note.GNU-stack","",%progbits
	.eabi_attribute	30, 1	@ Tag_ABI_optimization_goals
	.ARM_attribute	16, 1	@ Tag_AV_eba