	.text
	.syntax unified
	.eabi_attribute	67, "2.09"	@ Tag_conformance
	.cpu	cortex-m23
	.eabi_attribute	6, 16	@ Tag_CPU_arch
	.eabi_attribute	7, 77	@ Tag_CPU_arch_profile
	.eabi_attribute	8, 0	@ Tag_ARM_ISA_use
	.eabi_attribute	9, 3	@ Tag_THUMB_ISA_use
	.eabi_attribute	34, 0	@ Tag_CPU_unaligned_access
	.eabi_attribute	17, 1	@ Tag_ABI_PCS_GOT_use
	.eabi_attribute	20, 2	@ Tag_ABI_FP_denormal
	.eabi_attribute	21, 0	@ Tag_ABI_FP_exceptions
	.eabi_attribute	23, 1	@ Tag_ABI_FP_number_model
	.eabi_attribute	24, 1	@ Tag_ABI_align_needed
	.eabi_attribute	25, 1	@ Tag_ABI_align_preserved
	.eabi_attribute	38, 1	@ Tag_ABI_FP_16bit_format
	.eabi_attribute	18, 2	@ Tag_ABI_PCS_wchar_t
	.eabi_attribute	26, 1	@ Tag_ABI_enum_size
	.eabi_attribute	14, 0	@ Tag_ABI_PCS_R9_use
	.file	"pk_wrap.c"
	.file	1 "C:\\Users\\shw26\\OneDrive\\Desktop\\2021\\2021-1\\\354\272\241\354\212\244\355\206\244\353\224\224\354\236\220\354\235\2702\\Nuvoton\\M2351_BSP_v3.00.004\\M2351Series_BSP_CMSIS_V3.00.004\\MyProject\\PulseMonitoring\\Secure" "../../../ThirdParty/mbedTLS/include/mbedtls/pk.h"
	.file	2 "C:\\Users\\shw26\\OneDrive\\Desktop\\2021\\2021-1\\\354\272\241\354\212\244\355\206\244\353\224\224\354\236\220\354\235\2702\\Nuvoton\\M2351_BSP_v3.00.004\\M2351Series_BSP_CMSIS_V3.00.004\\MyProject\\PulseMonitoring\\Secure" "../../../ThirdParty/mbedTLS/include/mbedtls\\pk_internal.h"
	.file	3 "C:\\" "Keil_v5\\ARM\\ARMCLANG\\Bin\\..\\include\\stddef.h"
	.file	4 "C:\\Users\\shw26\\OneDrive\\Desktop\\2021\\2021-1\\\354\272\241\354\212\244\355\206\244\353\224\224\354\236\220\354\235\2702\\Nuvoton\\M2351_BSP_v3.00.004\\M2351Series_BSP_CMSIS_V3.00.004\\MyProject\\PulseMonitoring\\Secure" "../../../ThirdParty/mbedTLS/include/mbedtls/md.h"
	.file	5 "C:\\Users\\shw26\\OneDrive\\Desktop\\2021\\2021-1\\\354\272\241\354\212\244\355\206\244\353\224\224\354\236\220\354\235\2702\\Nuvoton\\M2351_BSP_v3.00.004\\M2351Series_BSP_CMSIS_V3.00.004\\MyProject\\PulseMonitoring\\Secure" "../../../ThirdParty/mbedTLS/library/pk_wrap.c"
	.file	6 "C:\\Users\\shw26\\OneDrive\\Desktop\\2021\\2021-1\\\354\272\241\354\212\244\355\206\244\353\224\224\354\236\220\354\235\2702\\Nuvoton\\M2351_BSP_v3.00.004\\M2351Series_BSP_CMSIS_V3.00.004\\MyProject\\PulseMonitoring\\Secure" "../../../ThirdParty/mbedTLS/include/mbedtls\\ecp.h"
	.file	7 "C:\\Users\\shw26\\OneDrive\\Desktop\\2021\\2021-1\\\354\272\241\354\212\244\355\206\244\353\224\224\354\236\220\354\235\2702\\Nuvoton\\M2351_BSP_v3.00.004\\M2351Series_BSP_CMSIS_V3.00.004\\MyProject\\PulseMonitoring\\Secure" "../../../ThirdParty/mbedTLS/include/mbedtls\\rsa.h"
	.file	8 "C:\\Users\\shw26\\OneDrive\\Desktop\\2021\\2021-1\\\354\272\241\354\212\244\355\206\244\353\224\224\354\236\220\354\235\2702\\Nuvoton\\M2351_BSP_v3.00.004\\M2351Series_BSP_CMSIS_V3.00.004\\MyProject\\PulseMonitoring\\Secure" "../../../ThirdParty/mbedTLS/include/mbedtls/bignum.h"
	.file	9 "C:\\" "Keil_v5\\ARM\\ARMCLANG\\Bin\\..\\include\\stdint.h"
	.file	10 "C:\\Users\\shw26\\OneDrive\\Desktop\\2021\\2021-1\\\354\272\241\354\212\244\355\206\244\353\224\224\354\236\220\354\235\2702\\Nuvoton\\M2351_BSP_v3.00.004\\M2351Series_BSP_CMSIS_V3.00.004\\MyProject\\PulseMonitoring\\Secure" "../../../ThirdParty/mbedTLS/include/mbedtls\\ecdsa.h"
	.section	.text.rsa_get_bitlen,"ax",%progbits
	.p2align	1                               @ -- Begin function rsa_get_bitlen
	.type	rsa_get_bitlen,%function
	.code	16                              @ @rsa_get_bitlen
	.thumb_func
rsa_get_bitlen:
.Lfunc_begin0:
	.loc	5 77 0                          @ ../../../ThirdParty/mbedTLS/library/pk_wrap.c:77:0
	.fnstart
	.cfi_sections .debug_frame
	.cfi_startproc
@ %bb.0:
	@DEBUG_VALUE: rsa_get_bitlen:ctx <- $r0
	@DEBUG_VALUE: rsa_get_bitlen:ctx <- $r0
	@DEBUG_VALUE: rsa_get_bitlen:ctx <- $r0
	.save	{r7, lr}
	push	{r7, lr}
	.cfi_def_cfa_offset 8
	.cfi_offset lr, -4
	.cfi_offset r7, -8
.Ltmp0:
	@DEBUG_VALUE: rsa_get_bitlen:rsa <- $r0
	.loc	5 79 17 prologue_end            @ ../../../ThirdParty/mbedTLS/library/pk_wrap.c:79:17
	bl	mbedtls_rsa_get_len
.Ltmp1:
	@DEBUG_VALUE: rsa_get_bitlen:ctx <- [DW_OP_LLVM_entry_value 1] $r0
	.loc	5 79 15 is_stmt 0               @ ../../../ThirdParty/mbedTLS/library/pk_wrap.c:79:15
	lsls	r0, r0, #3
	.loc	5 79 5                          @ ../../../ThirdParty/mbedTLS/library/pk_wrap.c:79:5
	pop	{r7, pc}
.Ltmp2:
.Lfunc_end0:
	.size	rsa_get_bitlen, .Lfunc_end0-rsa_get_bitlen
	.cfi_endproc
	.cantunwind
	.fnend
                                        @ -- End function
	.section	.text.rsa_can_do,"ax",%progbits
	.p2align	1                               @ -- Begin function rsa_can_do
	.type	rsa_can_do,%function
	.code	16                              @ @rsa_can_do
	.thumb_func
rsa_can_do:
.Lfunc_begin1:
	.loc	5 71 0 is_stmt 1                @ ../../../ThirdParty/mbedTLS/library/pk_wrap.c:71:0
	.fnstart
	.cfi_startproc
@ %bb.0:
	@DEBUG_VALUE: rsa_can_do:type <- $r0
	@DEBUG_VALUE: rsa_can_do:type <- $r0
	.loc	5 72 36 prologue_end            @ ../../../ThirdParty/mbedTLS/library/pk_wrap.c:72:36
	subs	r1, r0, #6
	rsbs	r2, r1, #0
	adcs	r2, r1
	.loc	5 72 18 is_stmt 0               @ ../../../ThirdParty/mbedTLS/library/pk_wrap.c:72:18
	subs	r1, r0, #1
	rsbs	r0, r1, #0
.Ltmp3:
	@DEBUG_VALUE: rsa_can_do:type <- [DW_OP_LLVM_entry_value 1] $r0
	adcs	r0, r1
	.loc	5 72 36                         @ ../../../ThirdParty/mbedTLS/library/pk_wrap.c:72:36
	orrs	r0, r2
	.loc	5 72 5                          @ ../../../ThirdParty/mbedTLS/library/pk_wrap.c:72:5
	bx	lr
.Ltmp4:
.Lfunc_end1:
	.size	rsa_can_do, .Lfunc_end1-rsa_can_do
	.cfi_endproc
	.cantunwind
	.fnend
                                        @ -- End function
	.section	.text.rsa_verify_wrap,"ax",%progbits
	.p2align	2                               @ -- Begin function rsa_verify_wrap
	.type	rsa_verify_wrap,%function
	.code	16                              @ @rsa_verify_wrap
	.thumb_func
rsa_verify_wrap:
.Lfunc_begin2:
	.loc	5 85 0 is_stmt 1                @ ../../../ThirdParty/mbedTLS/library/pk_wrap.c:85:0
	.fnstart
	.cfi_startproc
@ %bb.0:
	@DEBUG_VALUE: rsa_verify_wrap:ctx <- $r0
	@DEBUG_VALUE: rsa_verify_wrap:md_alg <- $r1
	@DEBUG_VALUE: rsa_verify_wrap:hash <- $r2
	@DEBUG_VALUE: rsa_verify_wrap:hash_len <- $r3
	.save	{r4, r5, r6, r7, lr}
	push	{r4, r5, r6, r7, lr}
	.cfi_def_cfa_offset 20
	.cfi_offset lr, -4
	.cfi_offset r7, -8
	.cfi_offset r6, -12
	.cfi_offset r5, -16
	.cfi_offset r4, -20
	.pad	#28
	sub	sp, #28
	.cfi_def_cfa_offset 48
	str	r3, [sp, #20]                   @ 4-byte Spill
	str	r2, [sp, #24]                   @ 4-byte Spill
	mov	r5, r1
	mov	r6, r0
.Ltmp5:
	@DEBUG_VALUE: rsa_verify_wrap:rsa <- $r6
	@DEBUG_VALUE: rsa_verify_wrap:sig_len <- [DW_OP_plus_uconst 52] [$sp+0]
	@DEBUG_VALUE: rsa_verify_wrap:sig <- [DW_OP_plus_uconst 48] [$sp+0]
	@DEBUG_VALUE: rsa_verify_wrap:hash_len <- [DW_OP_plus_uconst 20] [$sp+0]
	@DEBUG_VALUE: rsa_verify_wrap:hash <- [DW_OP_plus_uconst 24] [$sp+0]
	@DEBUG_VALUE: rsa_verify_wrap:md_alg <- $r5
	@DEBUG_VALUE: rsa_verify_wrap:ctx <- $r6
	.loc	5 88 22 prologue_end            @ ../../../ThirdParty/mbedTLS/library/pk_wrap.c:88:22
	bl	mbedtls_rsa_get_len
.Ltmp6:
	@DEBUG_VALUE: rsa_verify_wrap:rsa_len <- $r0
	.loc	5 0 22 is_stmt 0                @ ../../../ThirdParty/mbedTLS/library/pk_wrap.c:0:22
	ldr	r7, [sp, #52]
	.loc	5 95 9 is_stmt 1                @ ../../../ThirdParty/mbedTLS/library/pk_wrap.c:95:9
	cmp	r0, r7
	bls	.LBB2_2
.Ltmp7:
@ %bb.1:
	@DEBUG_VALUE: rsa_verify_wrap:ctx <- $r6
	@DEBUG_VALUE: rsa_verify_wrap:rsa <- $r6
	@DEBUG_VALUE: rsa_verify_wrap:md_alg <- $r5
	@DEBUG_VALUE: rsa_verify_wrap:rsa_len <- $r0
	@DEBUG_VALUE: rsa_verify_wrap:hash <- [DW_OP_plus_uconst 24] [$sp+0]
	@DEBUG_VALUE: rsa_verify_wrap:hash_len <- [DW_OP_plus_uconst 20] [$sp+0]
	@DEBUG_VALUE: rsa_verify_wrap:sig <- [DW_OP_plus_uconst 48] [$sp+0]
	@DEBUG_VALUE: rsa_verify_wrap:sig_len <- [DW_OP_plus_uconst 52] [$sp+0]
	.loc	5 0 9 is_stmt 0                 @ ../../../ThirdParty/mbedTLS/library/pk_wrap.c:0:9
	ldr	r0, __arm_cp.2_0
.Ltmp8:
	add	sp, #28
.Ltmp9:
	pop	{r4, r5, r6, r7, pc}
.Ltmp10:
.LBB2_2:
	@DEBUG_VALUE: rsa_verify_wrap:ctx <- $r6
	@DEBUG_VALUE: rsa_verify_wrap:rsa <- $r6
	@DEBUG_VALUE: rsa_verify_wrap:md_alg <- $r5
	@DEBUG_VALUE: rsa_verify_wrap:rsa_len <- $r0
	@DEBUG_VALUE: rsa_verify_wrap:hash <- [DW_OP_plus_uconst 24] [$sp+0]
	@DEBUG_VALUE: rsa_verify_wrap:hash_len <- [DW_OP_plus_uconst 20] [$sp+0]
	@DEBUG_VALUE: rsa_verify_wrap:sig <- [DW_OP_plus_uconst 48] [$sp+0]
	@DEBUG_VALUE: rsa_verify_wrap:sig_len <- [DW_OP_plus_uconst 52] [$sp+0]
	mov	r4, r0
.Ltmp11:
	@DEBUG_VALUE: rsa_verify_wrap:rsa_len <- $r4
	ldr	r0, [sp, #48]
	@DEBUG_VALUE: rsa_verify_wrap:md_alg <- $r5
.Ltmp12:
	.loc	5 98 17 is_stmt 1               @ ../../../ThirdParty/mbedTLS/library/pk_wrap.c:98:17
	str	r5, [sp]
	ldr	r1, [sp, #20]                   @ 4-byte Reload
	str	r1, [sp, #4]
	ldr	r1, [sp, #24]                   @ 4-byte Reload
	str	r1, [sp, #8]
	str	r0, [sp, #12]
	movs	r5, #0
.Ltmp13:
	mov	r0, r6
	mov	r1, r5
	mov	r2, r5
	mov	r3, r5
	bl	mbedtls_rsa_pkcs1_verify
.Ltmp14:
	@DEBUG_VALUE: rsa_verify_wrap:ret <- $r0
	.loc	5 98 9 is_stmt 0                @ ../../../ThirdParty/mbedTLS/library/pk_wrap.c:98:9
	cbz	r0, .LBB2_4
.Ltmp15:
@ %bb.3:
	@DEBUG_VALUE: rsa_verify_wrap:ctx <- $r6
	@DEBUG_VALUE: rsa_verify_wrap:rsa <- $r6
	@DEBUG_VALUE: rsa_verify_wrap:rsa_len <- $r4
	@DEBUG_VALUE: rsa_verify_wrap:ret <- $r0
	@DEBUG_VALUE: rsa_verify_wrap:hash <- [DW_OP_plus_uconst 24] [$sp+0]
	@DEBUG_VALUE: rsa_verify_wrap:hash_len <- [DW_OP_plus_uconst 20] [$sp+0]
	@DEBUG_VALUE: rsa_verify_wrap:sig <- [DW_OP_plus_uconst 48] [$sp+0]
	@DEBUG_VALUE: rsa_verify_wrap:sig_len <- [DW_OP_plus_uconst 52] [$sp+0]
	.loc	5 0 0                           @ ../../../ThirdParty/mbedTLS/library/pk_wrap.c:0:0
	add	sp, #28
.Ltmp16:
	pop	{r4, r5, r6, r7, pc}
.Ltmp17:
.LBB2_4:
	@DEBUG_VALUE: rsa_verify_wrap:ctx <- $r6
	@DEBUG_VALUE: rsa_verify_wrap:rsa <- $r6
	@DEBUG_VALUE: rsa_verify_wrap:rsa_len <- $r4
	@DEBUG_VALUE: rsa_verify_wrap:ret <- $r0
	@DEBUG_VALUE: rsa_verify_wrap:hash <- [DW_OP_plus_uconst 24] [$sp+0]
	@DEBUG_VALUE: rsa_verify_wrap:hash_len <- [DW_OP_plus_uconst 20] [$sp+0]
	@DEBUG_VALUE: rsa_verify_wrap:sig <- [DW_OP_plus_uconst 48] [$sp+0]
	@DEBUG_VALUE: rsa_verify_wrap:sig_len <- [DW_OP_plus_uconst 52] [$sp+0]
	.loc	5 108 9 is_stmt 1               @ ../../../ThirdParty/mbedTLS/library/pk_wrap.c:108:9
	cmp	r4, r7
	bhs	.LBB2_6
.Ltmp18:
@ %bb.5:
	@DEBUG_VALUE: rsa_verify_wrap:ctx <- $r6
	@DEBUG_VALUE: rsa_verify_wrap:rsa <- $r6
	@DEBUG_VALUE: rsa_verify_wrap:rsa_len <- $r4
	@DEBUG_VALUE: rsa_verify_wrap:ret <- $r0
	@DEBUG_VALUE: rsa_verify_wrap:hash <- [DW_OP_plus_uconst 24] [$sp+0]
	@DEBUG_VALUE: rsa_verify_wrap:hash_len <- [DW_OP_plus_uconst 20] [$sp+0]
	@DEBUG_VALUE: rsa_verify_wrap:sig <- [DW_OP_plus_uconst 48] [$sp+0]
	@DEBUG_VALUE: rsa_verify_wrap:sig_len <- [DW_OP_plus_uconst 52] [$sp+0]
	.loc	5 0 9 is_stmt 0                 @ ../../../ThirdParty/mbedTLS/library/pk_wrap.c:0:9
	ldr	r5, __arm_cp.2_1
.Ltmp19:
.LBB2_6:
	@DEBUG_VALUE: rsa_verify_wrap:ctx <- $r6
	@DEBUG_VALUE: rsa_verify_wrap:rsa <- $r6
	@DEBUG_VALUE: rsa_verify_wrap:rsa_len <- $r4
	@DEBUG_VALUE: rsa_verify_wrap:ret <- $r0
	@DEBUG_VALUE: rsa_verify_wrap:hash <- [DW_OP_plus_uconst 24] [$sp+0]
	@DEBUG_VALUE: rsa_verify_wrap:hash_len <- [DW_OP_plus_uconst 20] [$sp+0]
	@DEBUG_VALUE: rsa_verify_wrap:sig <- [DW_OP_plus_uconst 48] [$sp+0]
	@DEBUG_VALUE: rsa_verify_wrap:sig_len <- [DW_OP_plus_uconst 52] [$sp+0]
	.loc	5 108 9                         @ ../../../ThirdParty/mbedTLS/library/pk_wrap.c:108:9
	mov	r0, r5
.Ltmp20:
	.loc	5 0 0                           @ ../../../ThirdParty/mbedTLS/library/pk_wrap.c:0:0
	add	sp, #28
.Ltmp21:
	pop	{r4, r5, r6, r7, pc}
.Ltmp22:
	.p2align	2
@ %bb.7:
__arm_cp.2_0:
	.long	4294950016                      @ 0xffffbc80
.Lcpi_end0:
	.size	__arm_cp.2_0, .Lcpi_end0-__arm_cp.2_0
__arm_cp.2_1:
	.long	4294952704                      @ 0xffffc700
.Lcpi_end1:
	.size	__arm_cp.2_1, .Lcpi_end1-__arm_cp.2_1
.Lfunc_end2:
	.size	rsa_verify_wrap, .Lfunc_end2-rsa_verify_wrap
	.cfi_endproc
	.cantunwind
	.fnend
                                        @ -- End function
	.section	.text.rsa_sign_wrap,"ax",%progbits
	.p2align	1                               @ -- Begin function rsa_sign_wrap
	.type	rsa_sign_wrap,%function
	.code	16                              @ @rsa_sign_wrap
	.thumb_func
rsa_sign_wrap:
.Lfunc_begin3:
	.loc	5 118 0 is_stmt 1               @ ../../../ThirdParty/mbedTLS/library/pk_wrap.c:118:0
	.fnstart
	.cfi_startproc
@ %bb.0:
	@DEBUG_VALUE: rsa_sign_wrap:ctx <- $r0
	@DEBUG_VALUE: rsa_sign_wrap:md_alg <- $r1
	@DEBUG_VALUE: rsa_sign_wrap:hash <- $r2
	@DEBUG_VALUE: rsa_sign_wrap:hash_len <- $r3
	.save	{r4, r5, r6, r7, lr}
	push	{r4, r5, r6, r7, lr}
	.cfi_def_cfa_offset 20
	.cfi_offset lr, -4
	.cfi_offset r7, -8
	.cfi_offset r6, -12
	.cfi_offset r5, -16
	.cfi_offset r4, -20
	.pad	#20
	sub	sp, #20
	.cfi_def_cfa_offset 40
	mov	r5, r3
	mov	r6, r2
	mov	r7, r1
	mov	r4, r0
.Ltmp23:
	@DEBUG_VALUE: rsa_sign_wrap:rsa <- $r4
	@DEBUG_VALUE: rsa_sign_wrap:p_rng <- [DW_OP_plus_uconst 52] [$sp+0]
	@DEBUG_VALUE: rsa_sign_wrap:f_rng <- [DW_OP_plus_uconst 48] [$sp+0]
	@DEBUG_VALUE: rsa_sign_wrap:sig_len <- [DW_OP_plus_uconst 44] [$sp+0]
	@DEBUG_VALUE: rsa_sign_wrap:sig <- [DW_OP_plus_uconst 40] [$sp+0]
	@DEBUG_VALUE: rsa_sign_wrap:hash_len <- $r5
	@DEBUG_VALUE: rsa_sign_wrap:hash <- $r6
	@DEBUG_VALUE: rsa_sign_wrap:md_alg <- $r7
	@DEBUG_VALUE: rsa_sign_wrap:ctx <- $r4
	.loc	5 126 16 prologue_end           @ ../../../ThirdParty/mbedTLS/library/pk_wrap.c:126:16
	bl	mbedtls_rsa_get_len
	ldr	r1, [sp, #44]
	.loc	5 126 14 is_stmt 0              @ ../../../ThirdParty/mbedTLS/library/pk_wrap.c:126:14
	str	r0, [r1]
	ldr	r0, [sp, #40]
	.loc	5 128 13 is_stmt 1              @ ../../../ThirdParty/mbedTLS/library/pk_wrap.c:128:13
	str	r7, [sp]
	str	r5, [sp, #4]
	str	r6, [sp, #8]
	str	r0, [sp, #12]
	ldr	r1, [sp, #48]
	ldr	r2, [sp, #52]
	movs	r3, #1
	mov	r0, r4
	bl	mbedtls_rsa_pkcs1_sign
	.loc	5 128 5 is_stmt 0               @ ../../../ThirdParty/mbedTLS/library/pk_wrap.c:128:5
	add	sp, #20
.Ltmp24:
	pop	{r4, r5, r6, r7, pc}
.Ltmp25:
.Lfunc_end3:
	.size	rsa_sign_wrap, .Lfunc_end3-rsa_sign_wrap
	.cfi_endproc
	.cantunwind
	.fnend
                                        @ -- End function
	.section	.text.rsa_decrypt_wrap,"ax",%progbits
	.p2align	2                               @ -- Begin function rsa_decrypt_wrap
	.type	rsa_decrypt_wrap,%function
	.code	16                              @ @rsa_decrypt_wrap
	.thumb_func
rsa_decrypt_wrap:
.Lfunc_begin4:
	.loc	5 136 0 is_stmt 1               @ ../../../ThirdParty/mbedTLS/library/pk_wrap.c:136:0
	.fnstart
	.cfi_startproc
@ %bb.0:
	@DEBUG_VALUE: rsa_decrypt_wrap:ctx <- $r0
	@DEBUG_VALUE: rsa_decrypt_wrap:input <- $r1
	@DEBUG_VALUE: rsa_decrypt_wrap:ilen <- $r2
	@DEBUG_VALUE: rsa_decrypt_wrap:output <- $r3
	.save	{r4, r5, r6, r7, lr}
	push	{r4, r5, r6, r7, lr}
	.cfi_def_cfa_offset 20
	.cfi_offset lr, -4
	.cfi_offset r7, -8
	.cfi_offset r6, -12
	.cfi_offset r5, -16
	.cfi_offset r4, -20
	.pad	#20
	sub	sp, #20
	.cfi_def_cfa_offset 40
	mov	r5, r3
	mov	r7, r2
	mov	r6, r1
	mov	r4, r0
.Ltmp26:
	@DEBUG_VALUE: rsa_decrypt_wrap:rsa <- $r4
	@DEBUG_VALUE: rsa_decrypt_wrap:p_rng <- [DW_OP_plus_uconst 52] [$sp+0]
	@DEBUG_VALUE: rsa_decrypt_wrap:f_rng <- [DW_OP_plus_uconst 48] [$sp+0]
	@DEBUG_VALUE: rsa_decrypt_wrap:osize <- [DW_OP_plus_uconst 44] [$sp+0]
	@DEBUG_VALUE: rsa_decrypt_wrap:olen <- [DW_OP_plus_uconst 40] [$sp+0]
	@DEBUG_VALUE: rsa_decrypt_wrap:output <- $r5
	@DEBUG_VALUE: rsa_decrypt_wrap:ilen <- $r7
	@DEBUG_VALUE: rsa_decrypt_wrap:input <- $r6
	@DEBUG_VALUE: rsa_decrypt_wrap:ctx <- $r4
	.loc	5 139 17 prologue_end           @ ../../../ThirdParty/mbedTLS/library/pk_wrap.c:139:17
	bl	mbedtls_rsa_get_len
.Ltmp27:
	.loc	5 139 9 is_stmt 0               @ ../../../ThirdParty/mbedTLS/library/pk_wrap.c:139:9
	cmp	r0, r7
	bne	.LBB4_2
.Ltmp28:
@ %bb.1:
	@DEBUG_VALUE: rsa_decrypt_wrap:ilen <- $r7
	@DEBUG_VALUE: rsa_decrypt_wrap:input <- $r6
	@DEBUG_VALUE: rsa_decrypt_wrap:output <- $r5
	@DEBUG_VALUE: rsa_decrypt_wrap:ctx <- $r4
	@DEBUG_VALUE: rsa_decrypt_wrap:rsa <- $r4
	@DEBUG_VALUE: rsa_decrypt_wrap:olen <- [DW_OP_plus_uconst 40] [$sp+0]
	@DEBUG_VALUE: rsa_decrypt_wrap:osize <- [DW_OP_plus_uconst 44] [$sp+0]
	@DEBUG_VALUE: rsa_decrypt_wrap:f_rng <- [DW_OP_plus_uconst 48] [$sp+0]
	@DEBUG_VALUE: rsa_decrypt_wrap:p_rng <- [DW_OP_plus_uconst 52] [$sp+0]
	.loc	5 0 9                           @ ../../../ThirdParty/mbedTLS/library/pk_wrap.c:0:9
	add	r2, sp, #44
	ldm	r2, {r0, r1, r2}
	ldr	r3, [sp, #40]
	.loc	5 142 13 is_stmt 1              @ ../../../ThirdParty/mbedTLS/library/pk_wrap.c:142:13
	str	r3, [sp]
	str	r6, [sp, #4]
	str	r5, [sp, #8]
	str	r0, [sp, #12]
	movs	r3, #1
	mov	r0, r4
	bl	mbedtls_rsa_pkcs1_decrypt
	.loc	5 144 1                         @ ../../../ThirdParty/mbedTLS/library/pk_wrap.c:144:1
	add	sp, #20
.Ltmp29:
	pop	{r4, r5, r6, r7, pc}
.Ltmp30:
.LBB4_2:
	@DEBUG_VALUE: rsa_decrypt_wrap:ilen <- $r7
	@DEBUG_VALUE: rsa_decrypt_wrap:input <- $r6
	@DEBUG_VALUE: rsa_decrypt_wrap:output <- $r5
	@DEBUG_VALUE: rsa_decrypt_wrap:ctx <- $r4
	@DEBUG_VALUE: rsa_decrypt_wrap:rsa <- $r4
	@DEBUG_VALUE: rsa_decrypt_wrap:olen <- [DW_OP_plus_uconst 40] [$sp+0]
	@DEBUG_VALUE: rsa_decrypt_wrap:osize <- [DW_OP_plus_uconst 44] [$sp+0]
	@DEBUG_VALUE: rsa_decrypt_wrap:f_rng <- [DW_OP_plus_uconst 48] [$sp+0]
	@DEBUG_VALUE: rsa_decrypt_wrap:p_rng <- [DW_OP_plus_uconst 52] [$sp+0]
	.loc	5 0 1 is_stmt 0                 @ ../../../ThirdParty/mbedTLS/library/pk_wrap.c:0:1
	ldr	r0, __arm_cp.4_0
	.loc	5 144 1                         @ ../../../ThirdParty/mbedTLS/library/pk_wrap.c:144:1
	add	sp, #20
.Ltmp31:
	pop	{r4, r5, r6, r7, pc}
.Ltmp32:
	.p2align	2
@ %bb.3:
	.loc	5 0 1                           @ ../../../ThirdParty/mbedTLS/library/pk_wrap.c:0:1
__arm_cp.4_0:
	.long	4294950784                      @ 0xffffbf80
.Lcpi_end2:
	.size	__arm_cp.4_0, .Lcpi_end2-__arm_cp.4_0
.Lfunc_end4:
	.size	rsa_decrypt_wrap, .Lfunc_end4-rsa_decrypt_wrap
	.cfi_endproc
	.cantunwind
	.fnend
                                        @ -- End function
	.section	.text.rsa_encrypt_wrap,"ax",%progbits
	.p2align	2                               @ -- Begin function rsa_encrypt_wrap
	.type	rsa_encrypt_wrap,%function
	.code	16                              @ @rsa_encrypt_wrap
	.thumb_func
rsa_encrypt_wrap:
.Lfunc_begin5:
	.loc	5 150 0 is_stmt 1               @ ../../../ThirdParty/mbedTLS/library/pk_wrap.c:150:0
	.fnstart
	.cfi_startproc
@ %bb.0:
	@DEBUG_VALUE: rsa_encrypt_wrap:ctx <- $r0
	@DEBUG_VALUE: rsa_encrypt_wrap:input <- $r1
	@DEBUG_VALUE: rsa_encrypt_wrap:ilen <- $r2
	@DEBUG_VALUE: rsa_encrypt_wrap:output <- $r3
	.save	{r4, r5, r6, r7, lr}
	push	{r4, r5, r6, r7, lr}
	.cfi_def_cfa_offset 20
	.cfi_offset lr, -4
	.cfi_offset r7, -8
	.cfi_offset r6, -12
	.cfi_offset r5, -16
	.cfi_offset r4, -20
	.pad	#12
	sub	sp, #12
	.cfi_def_cfa_offset 32
	mov	r4, r3
	mov	r7, r2
	mov	r6, r1
	mov	r5, r0
.Ltmp33:
	@DEBUG_VALUE: rsa_encrypt_wrap:rsa <- $r5
	@DEBUG_VALUE: rsa_encrypt_wrap:p_rng <- [DW_OP_plus_uconst 44] [$sp+0]
	@DEBUG_VALUE: rsa_encrypt_wrap:f_rng <- [DW_OP_plus_uconst 40] [$sp+0]
	@DEBUG_VALUE: rsa_encrypt_wrap:osize <- [DW_OP_plus_uconst 36] [$sp+0]
	@DEBUG_VALUE: rsa_encrypt_wrap:olen <- [DW_OP_plus_uconst 32] [$sp+0]
	@DEBUG_VALUE: rsa_encrypt_wrap:output <- $r4
	@DEBUG_VALUE: rsa_encrypt_wrap:ilen <- $r7
	@DEBUG_VALUE: rsa_encrypt_wrap:input <- $r6
	@DEBUG_VALUE: rsa_encrypt_wrap:ctx <- $r5
	.loc	5 152 13 prologue_end           @ ../../../ThirdParty/mbedTLS/library/pk_wrap.c:152:13
	bl	mbedtls_rsa_get_len
	ldr	r1, [sp, #32]
	.loc	5 152 11 is_stmt 0              @ ../../../ThirdParty/mbedTLS/library/pk_wrap.c:152:11
	str	r0, [r1]
	ldr	r1, [sp, #36]
	.loc	5 154 9 is_stmt 1               @ ../../../ThirdParty/mbedTLS/library/pk_wrap.c:154:9
	cmp	r0, r1
	bls	.LBB5_2
.Ltmp34:
@ %bb.1:
	@DEBUG_VALUE: rsa_encrypt_wrap:ilen <- $r7
	@DEBUG_VALUE: rsa_encrypt_wrap:input <- $r6
	@DEBUG_VALUE: rsa_encrypt_wrap:ctx <- $r5
	@DEBUG_VALUE: rsa_encrypt_wrap:rsa <- $r5
	@DEBUG_VALUE: rsa_encrypt_wrap:output <- $r4
	@DEBUG_VALUE: rsa_encrypt_wrap:olen <- [DW_OP_plus_uconst 32] [$sp+0]
	@DEBUG_VALUE: rsa_encrypt_wrap:osize <- [DW_OP_plus_uconst 36] [$sp+0]
	@DEBUG_VALUE: rsa_encrypt_wrap:f_rng <- [DW_OP_plus_uconst 40] [$sp+0]
	@DEBUG_VALUE: rsa_encrypt_wrap:p_rng <- [DW_OP_plus_uconst 44] [$sp+0]
	.loc	5 0 9 is_stmt 0                 @ ../../../ThirdParty/mbedTLS/library/pk_wrap.c:0:9
	ldr	r0, __arm_cp.5_0
	.loc	5 159 1 is_stmt 1               @ ../../../ThirdParty/mbedTLS/library/pk_wrap.c:159:1
	add	sp, #12
.Ltmp35:
	pop	{r4, r5, r6, r7, pc}
.Ltmp36:
.LBB5_2:
	@DEBUG_VALUE: rsa_encrypt_wrap:ilen <- $r7
	@DEBUG_VALUE: rsa_encrypt_wrap:input <- $r6
	@DEBUG_VALUE: rsa_encrypt_wrap:ctx <- $r5
	@DEBUG_VALUE: rsa_encrypt_wrap:rsa <- $r5
	@DEBUG_VALUE: rsa_encrypt_wrap:output <- $r4
	@DEBUG_VALUE: rsa_encrypt_wrap:olen <- [DW_OP_plus_uconst 32] [$sp+0]
	@DEBUG_VALUE: rsa_encrypt_wrap:osize <- [DW_OP_plus_uconst 36] [$sp+0]
	@DEBUG_VALUE: rsa_encrypt_wrap:f_rng <- [DW_OP_plus_uconst 40] [$sp+0]
	@DEBUG_VALUE: rsa_encrypt_wrap:p_rng <- [DW_OP_plus_uconst 44] [$sp+0]
	.loc	5 0 1 is_stmt 0                 @ ../../../ThirdParty/mbedTLS/library/pk_wrap.c:0:1
	ldr	r2, [sp, #44]
	ldr	r1, [sp, #40]
	.loc	5 157 13 is_stmt 1              @ ../../../ThirdParty/mbedTLS/library/pk_wrap.c:157:13
	str	r7, [sp]
	str	r6, [sp, #4]
	str	r4, [sp, #8]
	movs	r3, #0
	mov	r0, r5
	bl	mbedtls_rsa_pkcs1_encrypt
	.loc	5 159 1                         @ ../../../ThirdParty/mbedTLS/library/pk_wrap.c:159:1
	add	sp, #12
.Ltmp37:
	pop	{r4, r5, r6, r7, pc}
.Ltmp38:
	.p2align	2
@ %bb.3:
	.loc	5 0 1 is_stmt 0                 @ ../../../ThirdParty/mbedTLS/library/pk_wrap.c:0:1
__arm_cp.5_0:
	.long	4294949888                      @ 0xffffbc00
.Lcpi_end3:
	.size	__arm_cp.5_0, .Lcpi_end3-__arm_cp.5_0
.Lfunc_end5:
	.size	rsa_encrypt_wrap, .Lfunc_end5-rsa_encrypt_wrap
	.cfi_endproc
	.cantunwind
	.fnend
                                        @ -- End function
	.section	.text.rsa_check_pair_wrap,"ax",%progbits
	.p2align	1                               @ -- Begin function rsa_check_pair_wrap
	.type	rsa_check_pair_wrap,%function
	.code	16                              @ @rsa_check_pair_wrap
	.thumb_func
rsa_check_pair_wrap:
.Lfunc_begin6:
	.loc	5 162 0 is_stmt 1               @ ../../../ThirdParty/mbedTLS/library/pk_wrap.c:162:0
	.fnstart
	.cfi_startproc
@ %bb.0:
	@DEBUG_VALUE: rsa_check_pair_wrap:pub <- $r0
	@DEBUG_VALUE: rsa_check_pair_wrap:pub <- $r0
	@DEBUG_VALUE: rsa_check_pair_wrap:prv <- $r1
	@DEBUG_VALUE: rsa_check_pair_wrap:prv <- $r1
	@DEBUG_VALUE: rsa_check_pair_wrap:prv <- $r1
	@DEBUG_VALUE: rsa_check_pair_wrap:pub <- $r0
	.save	{r7, lr}
	push	{r7, lr}
	.cfi_def_cfa_offset 8
	.cfi_offset lr, -4
	.cfi_offset r7, -8
.Ltmp39:
	.loc	5 163 13 prologue_end           @ ../../../ThirdParty/mbedTLS/library/pk_wrap.c:163:13
	bl	mbedtls_rsa_check_pub_priv
.Ltmp40:
	@DEBUG_VALUE: rsa_check_pair_wrap:prv <- [DW_OP_LLVM_entry_value 1] $r1
	@DEBUG_VALUE: rsa_check_pair_wrap:pub <- [DW_OP_LLVM_entry_value 1] $r0
	.loc	5 163 5 is_stmt 0               @ ../../../ThirdParty/mbedTLS/library/pk_wrap.c:163:5
	pop	{r7, pc}
.Ltmp41:
.Lfunc_end6:
	.size	rsa_check_pair_wrap, .Lfunc_end6-rsa_check_pair_wrap
	.cfi_endproc
	.cantunwind
	.fnend
                                        @ -- End function
	.section	.text.rsa_alloc_wrap,"ax",%progbits
	.p2align	1                               @ -- Begin function rsa_alloc_wrap
	.type	rsa_alloc_wrap,%function
	.code	16                              @ @rsa_alloc_wrap
	.thumb_func
rsa_alloc_wrap:
.Lfunc_begin7:
	.loc	5 168 0 is_stmt 1               @ ../../../ThirdParty/mbedTLS/library/pk_wrap.c:168:0
	.fnstart
	.cfi_startproc
@ %bb.0:
	.save	{r4, lr}
	push	{r4, lr}
	.cfi_def_cfa_offset 8
	.cfi_offset lr, -4
	.cfi_offset r4, -8
	movs	r0, #1
	movs	r1, #172
.Ltmp42:
	.loc	5 169 17 prologue_end           @ ../../../ThirdParty/mbedTLS/library/pk_wrap.c:169:17
	bl	calloc
	mov	r4, r0
.Ltmp43:
	@DEBUG_VALUE: rsa_alloc_wrap:ctx <- $r4
	.loc	5 171 9                         @ ../../../ThirdParty/mbedTLS/library/pk_wrap.c:171:9
	cbz	r0, .LBB7_2
.Ltmp44:
@ %bb.1:
	@DEBUG_VALUE: rsa_alloc_wrap:ctx <- $r4
	.loc	5 0 9 is_stmt 0                 @ ../../../ThirdParty/mbedTLS/library/pk_wrap.c:0:9
	movs	r1, #0
.Ltmp45:
	.loc	5 172 9 is_stmt 1               @ ../../../ThirdParty/mbedTLS/library/pk_wrap.c:172:9
	mov	r0, r4
	mov	r2, r1
	bl	mbedtls_rsa_init
.Ltmp46:
.LBB7_2:
	@DEBUG_VALUE: rsa_alloc_wrap:ctx <- $r4
	.loc	5 174 5                         @ ../../../ThirdParty/mbedTLS/library/pk_wrap.c:174:5
	mov	r0, r4
	pop	{r4, pc}
.Ltmp47:
.Lfunc_end7:
	.size	rsa_alloc_wrap, .Lfunc_end7-rsa_alloc_wrap
	.cfi_endproc
	.cantunwind
	.fnend
                                        @ -- End function
	.section	.text.rsa_free_wrap,"ax",%progbits
	.p2align	1                               @ -- Begin function rsa_free_wrap
	.type	rsa_free_wrap,%function
	.code	16                              @ @rsa_free_wrap
	.thumb_func
rsa_free_wrap:
.Lfunc_begin8:
	.loc	5 178 0                         @ ../../../ThirdParty/mbedTLS/library/pk_wrap.c:178:0
	.fnstart
	.cfi_startproc
@ %bb.0:
	@DEBUG_VALUE: rsa_free_wrap:ctx <- $r0
	.save	{r4, lr}
	push	{r4, lr}
	.cfi_def_cfa_offset 8
	.cfi_offset lr, -4
	.cfi_offset r4, -8
	mov	r4, r0
.Ltmp48:
	@DEBUG_VALUE: rsa_free_wrap:ctx <- $r4
	.loc	5 179 5 prologue_end            @ ../../../ThirdParty/mbedTLS/library/pk_wrap.c:179:5
	bl	mbedtls_rsa_free
	.loc	5 180 5                         @ ../../../ThirdParty/mbedTLS/library/pk_wrap.c:180:5
	mov	r0, r4
	bl	free
	.loc	5 181 1                         @ ../../../ThirdParty/mbedTLS/library/pk_wrap.c:181:1
	pop	{r4, pc}
.Ltmp49:
.Lfunc_end8:
	.size	rsa_free_wrap, .Lfunc_end8-rsa_free_wrap
	.cfi_endproc
	.cantunwind
	.fnend
                                        @ -- End function
	.section	.text.rsa_debug,"ax",%progbits
	.p2align	2                               @ -- Begin function rsa_debug
	.type	rsa_debug,%function
	.code	16                              @ @rsa_debug
	.thumb_func
rsa_debug:
.Lfunc_begin9:
	.loc	5 184 0                         @ ../../../ThirdParty/mbedTLS/library/pk_wrap.c:184:0
	.fnstart
	.cfi_startproc
@ %bb.0:
	@DEBUG_VALUE: rsa_debug:ctx <- $r0
	@DEBUG_VALUE: rsa_debug:ctx <- $r0
	@DEBUG_VALUE: rsa_debug:items <- $r1
	@DEBUG_VALUE: rsa_debug:items <- $r1
	.save	{r4, lr}
	push	{r4, lr}
	.cfi_def_cfa_offset 8
	.cfi_offset lr, -4
	.cfi_offset r4, -8
.Ltmp50:
	.loc	5 192 17 prologue_end           @ ../../../ThirdParty/mbedTLS/library/pk_wrap.c:192:17
	adr	r2, .LCPI9_0
	movs	r3, #1
.Ltmp51:
	@DEBUG_VALUE: rsa_debug:items <- [DW_OP_plus_uconst 12, DW_OP_stack_value] $r1
	.loc	5 191 17                        @ ../../../ThirdParty/mbedTLS/library/pk_wrap.c:191:17
	strb	r3, [r1, #12]
	.loc	5 186 17                        @ ../../../ThirdParty/mbedTLS/library/pk_wrap.c:186:17
	adr	r4, .LCPI9_1
	.loc	5 185 17                        @ ../../../ThirdParty/mbedTLS/library/pk_wrap.c:185:17
	strb	r3, [r1]
	.loc	5 193 54                        @ ../../../ThirdParty/mbedTLS/library/pk_wrap.c:193:54
	mov	r3, r0
	adds	r3, #20
	.loc	5 192 17                        @ ../../../ThirdParty/mbedTLS/library/pk_wrap.c:192:17
	str	r2, [r1, #16]
	.loc	5 193 18                        @ ../../../ThirdParty/mbedTLS/library/pk_wrap.c:193:18
	str	r3, [r1, #20]
	.loc	5 187 54                        @ ../../../ThirdParty/mbedTLS/library/pk_wrap.c:187:54
	adds	r0, #8
.Ltmp52:
	@DEBUG_VALUE: rsa_debug:ctx <- [DW_OP_LLVM_entry_value 1] $r0
	.loc	5 186 17                        @ ../../../ThirdParty/mbedTLS/library/pk_wrap.c:186:17
	str	r4, [r1, #4]
	.loc	5 187 18                        @ ../../../ThirdParty/mbedTLS/library/pk_wrap.c:187:18
	str	r0, [r1, #8]
	.loc	5 194 1                         @ ../../../ThirdParty/mbedTLS/library/pk_wrap.c:194:1
	pop	{r4, pc}
.Ltmp53:
	.p2align	2
@ %bb.1:
	.loc	5 0 1 is_stmt 0                 @ ../../../ThirdParty/mbedTLS/library/pk_wrap.c:0:1
.LCPI9_0:
.L.str.6:
	.asciz	"rsa.E\000\000"
.LCPI9_1:
.L.str.5:
	.asciz	"rsa.N\000\000"
.Lfunc_end9:
	.size	rsa_debug, .Lfunc_end9-rsa_debug
	.cfi_endproc
	.cantunwind
	.fnend
                                        @ -- End function
	.section	.text.eckey_get_bitlen,"ax",%progbits
	.p2align	1                               @ -- Begin function eckey_get_bitlen
	.type	eckey_get_bitlen,%function
	.code	16                              @ @eckey_get_bitlen
	.thumb_func
eckey_get_bitlen:
.Lfunc_begin10:
	.loc	5 232 0 is_stmt 1               @ ../../../ThirdParty/mbedTLS/library/pk_wrap.c:232:0
	.fnstart
	.cfi_startproc
@ %bb.0:
	@DEBUG_VALUE: eckey_get_bitlen:ctx <- $r0
	@DEBUG_VALUE: eckey_get_bitlen:ctx <- $r0
	.loc	5 233 48 prologue_end           @ ../../../ThirdParty/mbedTLS/library/pk_wrap.c:233:48
	ldr	r0, [r0, #88]
.Ltmp54:
	@DEBUG_VALUE: eckey_get_bitlen:ctx <- [DW_OP_LLVM_entry_value 1] $r0
	.loc	5 233 5 is_stmt 0               @ ../../../ThirdParty/mbedTLS/library/pk_wrap.c:233:5
	bx	lr
.Ltmp55:
.Lfunc_end10:
	.size	eckey_get_bitlen, .Lfunc_end10-eckey_get_bitlen
	.cfi_endproc
	.cantunwind
	.fnend
                                        @ -- End function
	.section	.text.eckey_can_do,"ax",%progbits
	.p2align	1                               @ -- Begin function eckey_can_do
	.type	eckey_can_do,%function
	.code	16                              @ @eckey_can_do
	.thumb_func
eckey_can_do:
.Lfunc_begin11:
	.loc	5 225 0 is_stmt 1               @ ../../../ThirdParty/mbedTLS/library/pk_wrap.c:225:0
	.fnstart
	.cfi_startproc
@ %bb.0:
	@DEBUG_VALUE: eckey_can_do:type <- $r0
	movs	r1, #254
	@DEBUG_VALUE: eckey_can_do:type <- $r0
.Ltmp56:
	.loc	5 226 38 prologue_end           @ ../../../ThirdParty/mbedTLS/library/pk_wrap.c:226:38
	ands	r1, r0
	subs	r1, r1, #2
	rsbs	r2, r1, #0
	adcs	r2, r1
	subs	r1, r0, #4
	rsbs	r0, r1, #0
.Ltmp57:
	@DEBUG_VALUE: eckey_can_do:type <- [DW_OP_LLVM_entry_value 1] $r0
	adcs	r0, r1
	orrs	r0, r2
	.loc	5 226 5 is_stmt 0               @ ../../../ThirdParty/mbedTLS/library/pk_wrap.c:226:5
	bx	lr
.Ltmp58:
.Lfunc_end11:
	.size	eckey_can_do, .Lfunc_end11-eckey_can_do
	.cfi_endproc
	.cantunwind
	.fnend
                                        @ -- End function
	.section	.text.eckey_verify_wrap,"ax",%progbits
	.p2align	1                               @ -- Begin function eckey_verify_wrap
	.type	eckey_verify_wrap,%function
	.code	16                              @ @eckey_verify_wrap
	.thumb_func
eckey_verify_wrap:
.Lfunc_begin12:
	.loc	5 250 0 is_stmt 1               @ ../../../ThirdParty/mbedTLS/library/pk_wrap.c:250:0
	.fnstart
	.cfi_startproc
@ %bb.0:
	@DEBUG_VALUE: eckey_verify_wrap:ctx <- $r0
	@DEBUG_VALUE: eckey_verify_wrap:md_alg <- $r1
	@DEBUG_VALUE: eckey_verify_wrap:hash <- $r2
	@DEBUG_VALUE: eckey_verify_wrap:hash_len <- $r3
	.save	{r4, r5, r6, r7, lr}
	push	{r4, r5, r6, r7, lr}
	.cfi_def_cfa_offset 20
	.cfi_offset lr, -4
	.cfi_offset r7, -8
	.cfi_offset r6, -12
	.cfi_offset r5, -16
	.cfi_offset r4, -20
	.pad	#188
	sub	sp, #188
	.cfi_def_cfa_offset 208
	str	r3, [sp, #12]                   @ 4-byte Spill
	mov	r5, r2
	mov	r6, r1
	mov	r7, r0
.Ltmp59:
	@DEBUG_VALUE: eckey_verify_wrap:sig_len <- [DW_OP_plus_uconst 212] [$sp+0]
	@DEBUG_VALUE: eckey_verify_wrap:sig <- [DW_OP_plus_uconst 208] [$sp+0]
	@DEBUG_VALUE: eckey_verify_wrap:hash_len <- [DW_OP_plus_uconst 12] [$sp+0]
	@DEBUG_VALUE: eckey_verify_wrap:hash <- $r5
	@DEBUG_VALUE: eckey_verify_wrap:md_alg <- $r6
	@DEBUG_VALUE: eckey_verify_wrap:ctx <- $r7
	add	r4, sp, #16
.Ltmp60:
	.loc	5 254 5 prologue_end            @ ../../../ThirdParty/mbedTLS/library/pk_wrap.c:254:5
	mov	r0, r4
	bl	mbedtls_ecdsa_init
.Ltmp61:
	.loc	5 256 17                        @ ../../../ThirdParty/mbedTLS/library/pk_wrap.c:256:17
	mov	r0, r4
	mov	r1, r7
.Ltmp62:
	@DEBUG_VALUE: eckey_verify_wrap:ctx <- $r1
	bl	mbedtls_ecdsa_from_keypair
.Ltmp63:
	mov	r7, r0
.Ltmp64:
	@DEBUG_VALUE: eckey_verify_wrap:ret <- $r7
	.loc	5 256 9 is_stmt 0               @ ../../../ThirdParty/mbedTLS/library/pk_wrap.c:256:9
	cbnz	r0, .LBB12_2
.Ltmp65:
@ %bb.1:
	@DEBUG_VALUE: eckey_verify_wrap:ret <- $r7
	@DEBUG_VALUE: eckey_verify_wrap:md_alg <- $r6
	@DEBUG_VALUE: eckey_verify_wrap:hash <- $r5
	@DEBUG_VALUE: eckey_verify_wrap:hash_len <- [DW_OP_plus_uconst 12] [$sp+0]
	@DEBUG_VALUE: eckey_verify_wrap:sig <- [DW_OP_plus_uconst 208] [$sp+0]
	@DEBUG_VALUE: eckey_verify_wrap:sig_len <- [DW_OP_plus_uconst 212] [$sp+0]
	.loc	5 0 9                           @ ../../../ThirdParty/mbedTLS/library/pk_wrap.c:0:9
	ldr	r0, [sp, #212]
	ldr	r1, [sp, #208]
	@DEBUG_VALUE: eckey_verify_wrap:md_alg <- $r6
.Ltmp66:
	.loc	5 257 15 is_stmt 1              @ ../../../ThirdParty/mbedTLS/library/pk_wrap.c:257:15
	str	r1, [sp]
	str	r0, [sp, #4]
	add	r0, sp, #16
	mov	r1, r6
	mov	r2, r5
	ldr	r3, [sp, #12]                   @ 4-byte Reload
	bl	ecdsa_verify_wrap
	mov	r7, r0
.Ltmp67:
	@DEBUG_VALUE: eckey_verify_wrap:ret <- $r7
.LBB12_2:
	@DEBUG_VALUE: eckey_verify_wrap:ret <- $r7
	@DEBUG_VALUE: eckey_verify_wrap:md_alg <- $r6
	@DEBUG_VALUE: eckey_verify_wrap:hash <- $r5
	@DEBUG_VALUE: eckey_verify_wrap:hash_len <- [DW_OP_plus_uconst 12] [$sp+0]
	@DEBUG_VALUE: eckey_verify_wrap:sig <- [DW_OP_plus_uconst 208] [$sp+0]
	@DEBUG_VALUE: eckey_verify_wrap:sig_len <- [DW_OP_plus_uconst 212] [$sp+0]
	@DEBUG_VALUE: eckey_verify_wrap:ret <- $r7
	.loc	5 0 15 is_stmt 0                @ ../../../ThirdParty/mbedTLS/library/pk_wrap.c:0:15
	add	r0, sp, #16
	.loc	5 259 5 is_stmt 1               @ ../../../ThirdParty/mbedTLS/library/pk_wrap.c:259:5
	bl	mbedtls_ecdsa_free
	.loc	5 261 5                         @ ../../../ThirdParty/mbedTLS/library/pk_wrap.c:261:5
	mov	r0, r7
	add	sp, #188
.Ltmp68:
	pop	{r4, r5, r6, r7, pc}
.Ltmp69:
.Lfunc_end12:
	.size	eckey_verify_wrap, .Lfunc_end12-eckey_verify_wrap
	.cfi_endproc
	.cantunwind
	.fnend
                                        @ -- End function
	.section	.text.eckey_sign_wrap,"ax",%progbits
	.p2align	1                               @ -- Begin function eckey_sign_wrap
	.type	eckey_sign_wrap,%function
	.code	16                              @ @eckey_sign_wrap
	.thumb_func
eckey_sign_wrap:
.Lfunc_begin13:
	.loc	5 268 0                         @ ../../../ThirdParty/mbedTLS/library/pk_wrap.c:268:0
	.fnstart
	.cfi_startproc
@ %bb.0:
	@DEBUG_VALUE: eckey_sign_wrap:ctx <- $r0
	@DEBUG_VALUE: eckey_sign_wrap:md_alg <- $r1
	@DEBUG_VALUE: eckey_sign_wrap:hash <- $r2
	@DEBUG_VALUE: eckey_sign_wrap:hash_len <- $r3
	.save	{r4, r5, r6, r7, lr}
	push	{r4, r5, r6, r7, lr}
	.cfi_def_cfa_offset 20
	.cfi_offset lr, -4
	.cfi_offset r7, -8
	.cfi_offset r6, -12
	.cfi_offset r5, -16
	.cfi_offset r4, -20
	.pad	#196
	sub	sp, #196
	.cfi_def_cfa_offset 216
	str	r3, [sp, #20]                   @ 4-byte Spill
	mov	r5, r2
	mov	r6, r1
	mov	r7, r0
.Ltmp70:
	@DEBUG_VALUE: eckey_sign_wrap:p_rng <- [DW_OP_plus_uconst 228] [$sp+0]
	@DEBUG_VALUE: eckey_sign_wrap:f_rng <- [DW_OP_plus_uconst 224] [$sp+0]
	@DEBUG_VALUE: eckey_sign_wrap:sig_len <- [DW_OP_plus_uconst 220] [$sp+0]
	@DEBUG_VALUE: eckey_sign_wrap:sig <- [DW_OP_plus_uconst 216] [$sp+0]
	@DEBUG_VALUE: eckey_sign_wrap:hash_len <- [DW_OP_plus_uconst 20] [$sp+0]
	@DEBUG_VALUE: eckey_sign_wrap:hash <- $r5
	@DEBUG_VALUE: eckey_sign_wrap:md_alg <- $r6
	@DEBUG_VALUE: eckey_sign_wrap:ctx <- $r7
	add	r4, sp, #24
.Ltmp71:
	.loc	5 272 5 prologue_end            @ ../../../ThirdParty/mbedTLS/library/pk_wrap.c:272:5
	mov	r0, r4
	bl	mbedtls_ecdsa_init
.Ltmp72:
	.loc	5 274 17                        @ ../../../ThirdParty/mbedTLS/library/pk_wrap.c:274:17
	mov	r0, r4
	mov	r1, r7
.Ltmp73:
	@DEBUG_VALUE: eckey_sign_wrap:ctx <- $r1
	bl	mbedtls_ecdsa_from_keypair
.Ltmp74:
	mov	r7, r0
.Ltmp75:
	@DEBUG_VALUE: eckey_sign_wrap:ret <- $r7
	.loc	5 274 9 is_stmt 0               @ ../../../ThirdParty/mbedTLS/library/pk_wrap.c:274:9
	cbnz	r0, .LBB13_2
.Ltmp76:
@ %bb.1:
	@DEBUG_VALUE: eckey_sign_wrap:ret <- $r7
	@DEBUG_VALUE: eckey_sign_wrap:md_alg <- $r6
	@DEBUG_VALUE: eckey_sign_wrap:hash <- $r5
	@DEBUG_VALUE: eckey_sign_wrap:hash_len <- [DW_OP_plus_uconst 20] [$sp+0]
	@DEBUG_VALUE: eckey_sign_wrap:sig <- [DW_OP_plus_uconst 216] [$sp+0]
	@DEBUG_VALUE: eckey_sign_wrap:sig_len <- [DW_OP_plus_uconst 220] [$sp+0]
	@DEBUG_VALUE: eckey_sign_wrap:f_rng <- [DW_OP_plus_uconst 224] [$sp+0]
	@DEBUG_VALUE: eckey_sign_wrap:p_rng <- [DW_OP_plus_uconst 228] [$sp+0]
	.loc	5 0 9                           @ ../../../ThirdParty/mbedTLS/library/pk_wrap.c:0:9
	ldr	r0, [sp, #228]
	ldr	r1, [sp, #224]
	ldr	r2, [sp, #220]
	ldr	r3, [sp, #216]
	@DEBUG_VALUE: eckey_sign_wrap:md_alg <- $r6
.Ltmp77:
	.loc	5 275 15 is_stmt 1              @ ../../../ThirdParty/mbedTLS/library/pk_wrap.c:275:15
	str	r3, [sp]
	str	r2, [sp, #4]
	str	r1, [sp, #8]
	str	r0, [sp, #12]
	add	r0, sp, #24
	mov	r1, r6
	mov	r2, r5
	ldr	r3, [sp, #20]                   @ 4-byte Reload
	bl	ecdsa_sign_wrap
	mov	r7, r0
.Ltmp78:
	@DEBUG_VALUE: eckey_sign_wrap:ret <- $r7
.LBB13_2:
	@DEBUG_VALUE: eckey_sign_wrap:ret <- $r7
	@DEBUG_VALUE: eckey_sign_wrap:md_alg <- $r6
	@DEBUG_VALUE: eckey_sign_wrap:hash <- $r5
	@DEBUG_VALUE: eckey_sign_wrap:hash_len <- [DW_OP_plus_uconst 20] [$sp+0]
	@DEBUG_VALUE: eckey_sign_wrap:sig <- [DW_OP_plus_uconst 216] [$sp+0]
	@DEBUG_VALUE: eckey_sign_wrap:sig_len <- [DW_OP_plus_uconst 220] [$sp+0]
	@DEBUG_VALUE: eckey_sign_wrap:f_rng <- [DW_OP_plus_uconst 224] [$sp+0]
	@DEBUG_VALUE: eckey_sign_wrap:p_rng <- [DW_OP_plus_uconst 228] [$sp+0]
	@DEBUG_VALUE: eckey_sign_wrap:ret <- $r7
	.loc	5 0 15 is_stmt 0                @ ../../../ThirdParty/mbedTLS/library/pk_wrap.c:0:15
	add	r0, sp, #24
	.loc	5 278 5 is_stmt 1               @ ../../../ThirdParty/mbedTLS/library/pk_wrap.c:278:5
	bl	mbedtls_ecdsa_free
	.loc	5 280 5                         @ ../../../ThirdParty/mbedTLS/library/pk_wrap.c:280:5
	mov	r0, r7
	add	sp, #196
.Ltmp79:
	pop	{r4, r5, r6, r7, pc}
.Ltmp80:
.Lfunc_end13:
	.size	eckey_sign_wrap, .Lfunc_end13-eckey_sign_wrap
	.cfi_endproc
	.cantunwind
	.fnend
                                        @ -- End function
	.section	.text.eckey_check_pair,"ax",%progbits
	.p2align	1                               @ -- Begin function eckey_check_pair
	.type	eckey_check_pair,%function
	.code	16                              @ @eckey_check_pair
	.thumb_func
eckey_check_pair:
.Lfunc_begin14:
	.loc	5 390 0                         @ ../../../ThirdParty/mbedTLS/library/pk_wrap.c:390:0
	.fnstart
	.cfi_startproc
@ %bb.0:
	@DEBUG_VALUE: eckey_check_pair:pub <- $r0
	@DEBUG_VALUE: eckey_check_pair:pub <- $r0
	@DEBUG_VALUE: eckey_check_pair:prv <- $r1
	@DEBUG_VALUE: eckey_check_pair:prv <- $r1
	@DEBUG_VALUE: eckey_check_pair:prv <- $r1
	@DEBUG_VALUE: eckey_check_pair:pub <- $r0
	.save	{r7, lr}
	push	{r7, lr}
	.cfi_def_cfa_offset 8
	.cfi_offset lr, -4
	.cfi_offset r7, -8
.Ltmp81:
	.loc	5 391 13 prologue_end           @ ../../../ThirdParty/mbedTLS/library/pk_wrap.c:391:13
	bl	mbedtls_ecp_check_pub_priv
.Ltmp82:
	@DEBUG_VALUE: eckey_check_pair:prv <- [DW_OP_LLVM_entry_value 1] $r1
	@DEBUG_VALUE: eckey_check_pair:pub <- [DW_OP_LLVM_entry_value 1] $r0
	.loc	5 391 5 is_stmt 0               @ ../../../ThirdParty/mbedTLS/library/pk_wrap.c:391:5
	pop	{r7, pc}
.Ltmp83:
.Lfunc_end14:
	.size	eckey_check_pair, .Lfunc_end14-eckey_check_pair
	.cfi_endproc
	.cantunwind
	.fnend
                                        @ -- End function
	.section	.text.eckey_alloc_wrap,"ax",%progbits
	.p2align	1                               @ -- Begin function eckey_alloc_wrap
	.type	eckey_alloc_wrap,%function
	.code	16                              @ @eckey_alloc_wrap
	.thumb_func
eckey_alloc_wrap:
.Lfunc_begin15:
	.loc	5 396 0 is_stmt 1               @ ../../../ThirdParty/mbedTLS/library/pk_wrap.c:396:0
	.fnstart
	.cfi_startproc
@ %bb.0:
	.save	{r4, lr}
	push	{r4, lr}
	.cfi_def_cfa_offset 8
	.cfi_offset lr, -4
	.cfi_offset r4, -8
	movs	r0, #1
	movs	r1, #172
.Ltmp84:
	.loc	5 397 17 prologue_end           @ ../../../ThirdParty/mbedTLS/library/pk_wrap.c:397:17
	bl	calloc
	mov	r4, r0
.Ltmp85:
	@DEBUG_VALUE: eckey_alloc_wrap:ctx <- $r4
	.loc	5 399 9                         @ ../../../ThirdParty/mbedTLS/library/pk_wrap.c:399:9
	cbz	r0, .LBB15_2
.Ltmp86:
@ %bb.1:
	@DEBUG_VALUE: eckey_alloc_wrap:ctx <- $r4
	.loc	5 400 9                         @ ../../../ThirdParty/mbedTLS/library/pk_wrap.c:400:9
	mov	r0, r4
	bl	mbedtls_ecp_keypair_init
.Ltmp87:
.LBB15_2:
	@DEBUG_VALUE: eckey_alloc_wrap:ctx <- $r4
	.loc	5 402 5                         @ ../../../ThirdParty/mbedTLS/library/pk_wrap.c:402:5
	mov	r0, r4
	pop	{r4, pc}
.Ltmp88:
.Lfunc_end15:
	.size	eckey_alloc_wrap, .Lfunc_end15-eckey_alloc_wrap
	.cfi_endproc
	.cantunwind
	.fnend
                                        @ -- End function
	.section	.text.eckey_free_wrap,"ax",%progbits
	.p2align	1                               @ -- Begin function eckey_free_wrap
	.type	eckey_free_wrap,%function
	.code	16                              @ @eckey_free_wrap
	.thumb_func
eckey_free_wrap:
.Lfunc_begin16:
	.loc	5 406 0                         @ ../../../ThirdParty/mbedTLS/library/pk_wrap.c:406:0
	.fnstart
	.cfi_startproc
@ %bb.0:
	@DEBUG_VALUE: eckey_free_wrap:ctx <- $r0
	.save	{r4, lr}
	push	{r4, lr}
	.cfi_def_cfa_offset 8
	.cfi_offset lr, -4
	.cfi_offset r4, -8
	mov	r4, r0
.Ltmp89:
	@DEBUG_VALUE: eckey_free_wrap:ctx <- $r4
	.loc	5 407 5 prologue_end            @ ../../../ThirdParty/mbedTLS/library/pk_wrap.c:407:5
	bl	mbedtls_ecp_keypair_free
	.loc	5 408 5                         @ ../../../ThirdParty/mbedTLS/library/pk_wrap.c:408:5
	mov	r0, r4
	bl	free
	.loc	5 409 1                         @ ../../../ThirdParty/mbedTLS/library/pk_wrap.c:409:1
	pop	{r4, pc}
.Ltmp90:
.Lfunc_end16:
	.size	eckey_free_wrap, .Lfunc_end16-eckey_free_wrap
	.cfi_endproc
	.cantunwind
	.fnend
                                        @ -- End function
	.section	.text.eckey_debug,"ax",%progbits
	.p2align	2                               @ -- Begin function eckey_debug
	.type	eckey_debug,%function
	.code	16                              @ @eckey_debug
	.thumb_func
eckey_debug:
.Lfunc_begin17:
	.loc	5 412 0                         @ ../../../ThirdParty/mbedTLS/library/pk_wrap.c:412:0
	.fnstart
	.cfi_startproc
@ %bb.0:
	@DEBUG_VALUE: eckey_debug:ctx <- $r0
	@DEBUG_VALUE: eckey_debug:ctx <- $r0
	@DEBUG_VALUE: eckey_debug:items <- $r1
	@DEBUG_VALUE: eckey_debug:items <- $r1
	.loc	5 414 17 prologue_end           @ ../../../ThirdParty/mbedTLS/library/pk_wrap.c:414:17
	adr	r2, .LCPI17_0
	movs	r3, #2
	.loc	5 413 17                        @ ../../../ThirdParty/mbedTLS/library/pk_wrap.c:413:17
	strb	r3, [r1]
	.loc	5 415 54                        @ ../../../ThirdParty/mbedTLS/library/pk_wrap.c:415:54
	adds	r0, #136
.Ltmp91:
	@DEBUG_VALUE: eckey_debug:ctx <- [DW_OP_LLVM_entry_value 1] $r0
	.loc	5 414 17                        @ ../../../ThirdParty/mbedTLS/library/pk_wrap.c:414:17
	str	r2, [r1, #4]
	.loc	5 415 18                        @ ../../../ThirdParty/mbedTLS/library/pk_wrap.c:415:18
	str	r0, [r1, #8]
	.loc	5 416 1                         @ ../../../ThirdParty/mbedTLS/library/pk_wrap.c:416:1
	bx	lr
.Ltmp92:
	.p2align	2
@ %bb.1:
	.loc	5 0 1 is_stmt 0                 @ ../../../ThirdParty/mbedTLS/library/pk_wrap.c:0:1
.LCPI17_0:
.L.str.7:
	.asciz	"eckey.Q"
.Lfunc_end17:
	.size	eckey_debug, .Lfunc_end17-eckey_debug
	.cfi_endproc
	.cantunwind
	.fnend
                                        @ -- End function
	.section	.text.eckeydh_can_do,"ax",%progbits
	.p2align	1                               @ -- Begin function eckeydh_can_do
	.type	eckeydh_can_do,%function
	.code	16                              @ @eckeydh_can_do
	.thumb_func
eckeydh_can_do:
.Lfunc_begin18:
	.loc	5 450 0 is_stmt 1               @ ../../../ThirdParty/mbedTLS/library/pk_wrap.c:450:0
	.fnstart
	.cfi_startproc
@ %bb.0:
	@DEBUG_VALUE: eckeydh_can_do:type <- $r0
	movs	r1, #254
	@DEBUG_VALUE: eckeydh_can_do:type <- $r0
.Ltmp93:
	.loc	5 451 38 prologue_end           @ ../../../ThirdParty/mbedTLS/library/pk_wrap.c:451:38
	ands	r1, r0
	subs	r1, r1, #2
	rsbs	r0, r1, #0
.Ltmp94:
	@DEBUG_VALUE: eckeydh_can_do:type <- [DW_OP_LLVM_entry_value 1] $r0
	adcs	r0, r1
	.loc	5 451 5 is_stmt 0               @ ../../../ThirdParty/mbedTLS/library/pk_wrap.c:451:5
	bx	lr
.Ltmp95:
.Lfunc_end18:
	.size	eckeydh_can_do, .Lfunc_end18-eckeydh_can_do
	.cfi_endproc
	.cantunwind
	.fnend
                                        @ -- End function
	.section	.text.ecdsa_can_do,"ax",%progbits
	.p2align	1                               @ -- Begin function ecdsa_can_do
	.type	ecdsa_can_do,%function
	.code	16                              @ @ecdsa_can_do
	.thumb_func
ecdsa_can_do:
.Lfunc_begin19:
	.loc	5 481 0 is_stmt 1               @ ../../../ThirdParty/mbedTLS/library/pk_wrap.c:481:0
	.fnstart
	.cfi_startproc
@ %bb.0:
	@DEBUG_VALUE: ecdsa_can_do:type <- $r0
	@DEBUG_VALUE: ecdsa_can_do:type <- $r0
	.loc	5 482 18 prologue_end           @ ../../../ThirdParty/mbedTLS/library/pk_wrap.c:482:18
	subs	r1, r0, #4
	rsbs	r0, r1, #0
.Ltmp96:
	@DEBUG_VALUE: ecdsa_can_do:type <- [DW_OP_LLVM_entry_value 1] $r0
	adcs	r0, r1
	.loc	5 482 5 is_stmt 0               @ ../../../ThirdParty/mbedTLS/library/pk_wrap.c:482:5
	bx	lr
.Ltmp97:
.Lfunc_end19:
	.size	ecdsa_can_do, .Lfunc_end19-ecdsa_can_do
	.cfi_endproc
	.cantunwind
	.fnend
                                        @ -- End function
	.section	.text.ecdsa_verify_wrap,"ax",%progbits
	.p2align	2                               @ -- Begin function ecdsa_verify_wrap
	.type	ecdsa_verify_wrap,%function
	.code	16                              @ @ecdsa_verify_wrap
	.thumb_func
ecdsa_verify_wrap:
.Lfunc_begin20:
	.loc	5 638 0 is_stmt 1               @ ../../../ThirdParty/mbedTLS/library/pk_wrap.c:638:0
	.fnstart
	.cfi_startproc
@ %bb.0:
	@DEBUG_VALUE: ecdsa_verify_wrap:ctx <- $r0
	@DEBUG_VALUE: ecdsa_verify_wrap:md_alg <- $r1
	@DEBUG_VALUE: ecdsa_verify_wrap:hash <- $r2
	@DEBUG_VALUE: ecdsa_verify_wrap:hash_len <- $r3
	.save	{r4, lr}
	push	{r4, lr}
	.cfi_def_cfa_offset 8
	.cfi_offset lr, -4
	.cfi_offset r4, -8
	.pad	#8
	sub	sp, #8
	.cfi_def_cfa_offset 16
	mov	r4, r3
	mov	r1, r2
.Ltmp98:
	@DEBUG_VALUE: ecdsa_verify_wrap:md_alg <- [DW_OP_LLVM_entry_value 1] $r1
	@DEBUG_VALUE: ecdsa_verify_wrap:sig_len <- [DW_OP_plus_uconst 20] [$sp+0]
	@DEBUG_VALUE: ecdsa_verify_wrap:sig <- [DW_OP_plus_uconst 16] [$sp+0]
	@DEBUG_VALUE: ecdsa_verify_wrap:hash_len <- $r4
	@DEBUG_VALUE: ecdsa_verify_wrap:hash <- $r1
	@DEBUG_VALUE: ecdsa_verify_wrap:ctx <- $r0
	ldr	r2, [sp, #20]
.Ltmp99:
	.loc	5 642 11 prologue_end           @ ../../../ThirdParty/mbedTLS/library/pk_wrap.c:642:11
	str	r2, [sp]
	ldr	r3, [sp, #16]
	@DEBUG_VALUE: ecdsa_verify_wrap:hash <- $r1
	@DEBUG_VALUE: ecdsa_verify_wrap:ctx <- $r0
	mov	r2, r4
.Ltmp100:
	@DEBUG_VALUE: ecdsa_verify_wrap:hash_len <- $r2
	bl	mbedtls_ecdsa_read_signature
.Ltmp101:
	@DEBUG_VALUE: ecdsa_verify_wrap:ctx <- [DW_OP_LLVM_entry_value 1] $r0
	@DEBUG_VALUE: ecdsa_verify_wrap:ret <- $r0
	.loc	5 0 11 is_stmt 0                @ ../../../ThirdParty/mbedTLS/library/pk_wrap.c:0:11
	ldr	r1, __arm_cp.20_0
	.loc	5 645 9 is_stmt 1               @ ../../../ThirdParty/mbedTLS/library/pk_wrap.c:645:9
	cmp	r0, r1
	bne	.LBB20_2
.Ltmp102:
@ %bb.1:
	@DEBUG_VALUE: ecdsa_verify_wrap:ret <- $r0
	@DEBUG_VALUE: ecdsa_verify_wrap:sig <- [DW_OP_plus_uconst 16] [$sp+0]
	@DEBUG_VALUE: ecdsa_verify_wrap:sig_len <- [DW_OP_plus_uconst 20] [$sp+0]
	@DEBUG_VALUE: ecdsa_verify_wrap:ctx <- [DW_OP_LLVM_entry_value 1] $r0
	@DEBUG_VALUE: ecdsa_verify_wrap:md_alg <- [DW_OP_LLVM_entry_value 1] $r1
	.loc	5 0 9 is_stmt 0                 @ ../../../ThirdParty/mbedTLS/library/pk_wrap.c:0:9
	ldr	r0, __arm_cp.20_1
.Ltmp103:
.LBB20_2:
	@DEBUG_VALUE: ecdsa_verify_wrap:sig <- [DW_OP_plus_uconst 16] [$sp+0]
	@DEBUG_VALUE: ecdsa_verify_wrap:sig_len <- [DW_OP_plus_uconst 20] [$sp+0]
	@DEBUG_VALUE: ecdsa_verify_wrap:ctx <- [DW_OP_LLVM_entry_value 1] $r0
	@DEBUG_VALUE: ecdsa_verify_wrap:md_alg <- [DW_OP_LLVM_entry_value 1] $r1
	.loc	5 649 1 is_stmt 1               @ ../../../ThirdParty/mbedTLS/library/pk_wrap.c:649:1
	add	sp, #8
.Ltmp104:
	pop	{r4, pc}
.Ltmp105:
	.p2align	2
@ %bb.3:
	.loc	5 0 1 is_stmt 0                 @ ../../../ThirdParty/mbedTLS/library/pk_wrap.c:0:1
__arm_cp.20_0:
	.long	4294947840                      @ 0xffffb400
.Lcpi_end4:
	.size	__arm_cp.20_0, .Lcpi_end4-__arm_cp.20_0
__arm_cp.20_1:
	.long	4294952704                      @ 0xffffc700
.Lcpi_end5:
	.size	__arm_cp.20_1, .Lcpi_end5-__arm_cp.20_1
.Lfunc_end20:
	.size	ecdsa_verify_wrap, .Lfunc_end20-ecdsa_verify_wrap
	.cfi_endproc
	.cantunwind
	.fnend
                                        @ -- End function
	.section	.text.ecdsa_sign_wrap,"ax",%progbits
	.p2align	1                               @ -- Begin function ecdsa_sign_wrap
	.type	ecdsa_sign_wrap,%function
	.code	16                              @ @ecdsa_sign_wrap
	.thumb_func
ecdsa_sign_wrap:
.Lfunc_begin21:
	.loc	5 656 0 is_stmt 1               @ ../../../ThirdParty/mbedTLS/library/pk_wrap.c:656:0
	.fnstart
	.cfi_startproc
@ %bb.0:
	@DEBUG_VALUE: ecdsa_sign_wrap:ctx <- $r0
	@DEBUG_VALUE: ecdsa_sign_wrap:ctx <- $r0
	@DEBUG_VALUE: ecdsa_sign_wrap:md_alg <- $r1
	@DEBUG_VALUE: ecdsa_sign_wrap:md_alg <- $r1
	@DEBUG_VALUE: ecdsa_sign_wrap:hash <- $r2
	@DEBUG_VALUE: ecdsa_sign_wrap:hash <- $r2
	@DEBUG_VALUE: ecdsa_sign_wrap:hash_len <- $r3
	@DEBUG_VALUE: ecdsa_sign_wrap:hash_len <- $r3
	.save	{r4, lr}
	push	{r4, lr}
	.cfi_def_cfa_offset 8
	.cfi_offset lr, -4
	.cfi_offset r4, -8
	.pad	#16
	sub	sp, #16
	.cfi_def_cfa_offset 24
.Ltmp106:
	@DEBUG_VALUE: ecdsa_sign_wrap:sig <- [DW_OP_plus_uconst 24] [$sp+0]
	@DEBUG_VALUE: ecdsa_sign_wrap:sig_len <- [DW_OP_plus_uconst 28] [$sp+0]
	@DEBUG_VALUE: ecdsa_sign_wrap:f_rng <- [DW_OP_plus_uconst 32] [$sp+0]
	@DEBUG_VALUE: ecdsa_sign_wrap:p_rng <- [DW_OP_plus_uconst 36] [$sp+0]
	ldr	r4, [sp, #36]
.Ltmp107:
	.loc	5 657 13 prologue_end           @ ../../../ThirdParty/mbedTLS/library/pk_wrap.c:657:13
	str	r4, [sp, #12]
	ldr	r4, [sp, #32]
	str	r4, [sp, #8]
	ldr	r4, [sp, #28]
	str	r4, [sp, #4]
	ldr	r4, [sp, #24]
	str	r4, [sp]
	@DEBUG_VALUE: ecdsa_sign_wrap:hash_len <- $r3
	@DEBUG_VALUE: ecdsa_sign_wrap:hash <- $r2
	@DEBUG_VALUE: ecdsa_sign_wrap:md_alg <- $r1
	@DEBUG_VALUE: ecdsa_sign_wrap:ctx <- $r0
	bl	mbedtls_ecdsa_write_signature
.Ltmp108:
	@DEBUG_VALUE: ecdsa_sign_wrap:hash_len <- [DW_OP_LLVM_entry_value 1] $r3
	@DEBUG_VALUE: ecdsa_sign_wrap:hash <- [DW_OP_LLVM_entry_value 1] $r2
	@DEBUG_VALUE: ecdsa_sign_wrap:md_alg <- [DW_OP_LLVM_entry_value 1] $r1
	@DEBUG_VALUE: ecdsa_sign_wrap:ctx <- [DW_OP_LLVM_entry_value 1] $r0
	.loc	5 657 5 is_stmt 0               @ ../../../ThirdParty/mbedTLS/library/pk_wrap.c:657:5
	add	sp, #16
.Ltmp109:
	pop	{r4, pc}
.Ltmp110:
.Lfunc_end21:
	.size	ecdsa_sign_wrap, .Lfunc_end21-ecdsa_sign_wrap
	.cfi_endproc
	.cantunwind
	.fnend
                                        @ -- End function
	.section	.text.ecdsa_alloc_wrap,"ax",%progbits
	.p2align	1                               @ -- Begin function ecdsa_alloc_wrap
	.type	ecdsa_alloc_wrap,%function
	.code	16                              @ @ecdsa_alloc_wrap
	.thumb_func
ecdsa_alloc_wrap:
.Lfunc_begin22:
	.loc	5 696 0 is_stmt 1               @ ../../../ThirdParty/mbedTLS/library/pk_wrap.c:696:0
	.fnstart
	.cfi_startproc
@ %bb.0:
	.save	{r4, lr}
	push	{r4, lr}
	.cfi_def_cfa_offset 8
	.cfi_offset lr, -4
	.cfi_offset r4, -8
	movs	r0, #1
	movs	r1, #172
.Ltmp111:
	.loc	5 697 17 prologue_end           @ ../../../ThirdParty/mbedTLS/library/pk_wrap.c:697:17
	bl	calloc
	mov	r4, r0
.Ltmp112:
	@DEBUG_VALUE: ecdsa_alloc_wrap:ctx <- $r4
	.loc	5 699 9                         @ ../../../ThirdParty/mbedTLS/library/pk_wrap.c:699:9
	cbz	r0, .LBB22_2
.Ltmp113:
@ %bb.1:
	@DEBUG_VALUE: ecdsa_alloc_wrap:ctx <- $r4
	.loc	5 700 9                         @ ../../../ThirdParty/mbedTLS/library/pk_wrap.c:700:9
	mov	r0, r4
	bl	mbedtls_ecdsa_init
.Ltmp114:
.LBB22_2:
	@DEBUG_VALUE: ecdsa_alloc_wrap:ctx <- $r4
	.loc	5 702 5                         @ ../../../ThirdParty/mbedTLS/library/pk_wrap.c:702:5
	mov	r0, r4
	pop	{r4, pc}
.Ltmp115:
.Lfunc_end22:
	.size	ecdsa_alloc_wrap, .Lfunc_end22-ecdsa_alloc_wrap
	.cfi_endproc
	.cantunwind
	.fnend
                                        @ -- End function
	.section	.text.ecdsa_free_wrap,"ax",%progbits
	.p2align	1                               @ -- Begin function ecdsa_free_wrap
	.type	ecdsa_free_wrap,%function
	.code	16                              @ @ecdsa_free_wrap
	.thumb_func
ecdsa_free_wrap:
.Lfunc_begin23:
	.loc	5 706 0                         @ ../../../ThirdParty/mbedTLS/library/pk_wrap.c:706:0
	.fnstart
	.cfi_startproc
@ %bb.0:
	@DEBUG_VALUE: ecdsa_free_wrap:ctx <- $r0
	.save	{r4, lr}
	push	{r4, lr}
	.cfi_def_cfa_offset 8
	.cfi_offset lr, -4
	.cfi_offset r4, -8
	mov	r4, r0
.Ltmp116:
	@DEBUG_VALUE: ecdsa_free_wrap:ctx <- $r4
	.loc	5 707 5 prologue_end            @ ../../../ThirdParty/mbedTLS/library/pk_wrap.c:707:5
	bl	mbedtls_ecdsa_free
	.loc	5 708 5                         @ ../../../ThirdParty/mbedTLS/library/pk_wrap.c:708:5
	mov	r0, r4
	bl	free
	.loc	5 709 1                         @ ../../../ThirdParty/mbedTLS/library/pk_wrap.c:709:1
	pop	{r4, pc}
.Ltmp117:
.Lfunc_end23:
	.size	ecdsa_free_wrap, .Lfunc_end23-ecdsa_free_wrap
	.cfi_endproc
	.cantunwind
	.fnend
                                        @ -- End function
	.section	.text.rsa_alt_get_bitlen,"ax",%progbits
	.p2align	1                               @ -- Begin function rsa_alt_get_bitlen
	.type	rsa_alt_get_bitlen,%function
	.code	16                              @ @rsa_alt_get_bitlen
	.thumb_func
rsa_alt_get_bitlen:
.Lfunc_begin24:
	.loc	5 764 0                         @ ../../../ThirdParty/mbedTLS/library/pk_wrap.c:764:0
	.fnstart
	.cfi_startproc
@ %bb.0:
	@DEBUG_VALUE: rsa_alt_get_bitlen:ctx <- $r0
	@DEBUG_VALUE: rsa_alt_get_bitlen:ctx <- $r0
	.save	{r7, lr}
	push	{r7, lr}
	.cfi_def_cfa_offset 8
	.cfi_offset lr, -4
	.cfi_offset r7, -8
.Ltmp118:
	@DEBUG_VALUE: rsa_alt_get_bitlen:rsa_alt <- $r0
	@DEBUG_VALUE: rsa_alt_get_bitlen:rsa_alt <- $r0
	.loc	5 767 49 prologue_end           @ ../../../ThirdParty/mbedTLS/library/pk_wrap.c:767:49
	ldr	r1, [r0]
	.loc	5 767 26 is_stmt 0              @ ../../../ThirdParty/mbedTLS/library/pk_wrap.c:767:26
	ldr	r2, [r0, #12]
	.loc	5 767 17                        @ ../../../ThirdParty/mbedTLS/library/pk_wrap.c:767:17
	mov	r0, r1
.Ltmp119:
	@DEBUG_VALUE: rsa_alt_get_bitlen:ctx <- [DW_OP_LLVM_entry_value 1] $r0
	blx	r2
	.loc	5 767 15                        @ ../../../ThirdParty/mbedTLS/library/pk_wrap.c:767:15
	lsls	r0, r0, #3
	.loc	5 767 5                         @ ../../../ThirdParty/mbedTLS/library/pk_wrap.c:767:5
	pop	{r7, pc}
.Ltmp120:
.Lfunc_end24:
	.size	rsa_alt_get_bitlen, .Lfunc_end24-rsa_alt_get_bitlen
	.cfi_endproc
	.cantunwind
	.fnend
                                        @ -- End function
	.section	.text.rsa_alt_can_do,"ax",%progbits
	.p2align	1                               @ -- Begin function rsa_alt_can_do
	.type	rsa_alt_can_do,%function
	.code	16                              @ @rsa_alt_can_do
	.thumb_func
rsa_alt_can_do:
.Lfunc_begin25:
	.loc	5 759 0 is_stmt 1               @ ../../../ThirdParty/mbedTLS/library/pk_wrap.c:759:0
	.fnstart
	.cfi_startproc
@ %bb.0:
	@DEBUG_VALUE: rsa_alt_can_do:type <- $r0
	@DEBUG_VALUE: rsa_alt_can_do:type <- $r0
	.loc	5 760 18 prologue_end           @ ../../../ThirdParty/mbedTLS/library/pk_wrap.c:760:18
	subs	r1, r0, #1
	rsbs	r0, r1, #0
.Ltmp121:
	@DEBUG_VALUE: rsa_alt_can_do:type <- [DW_OP_LLVM_entry_value 1] $r0
	adcs	r0, r1
	.loc	5 760 5 is_stmt 0               @ ../../../ThirdParty/mbedTLS/library/pk_wrap.c:760:5
	bx	lr
.Ltmp122:
.Lfunc_end25:
	.size	rsa_alt_can_do, .Lfunc_end25-rsa_alt_can_do
	.cfi_endproc
	.cantunwind
	.fnend
                                        @ -- End function
	.section	.text.rsa_alt_sign_wrap,"ax",%progbits
	.p2align	1                               @ -- Begin function rsa_alt_sign_wrap
	.type	rsa_alt_sign_wrap,%function
	.code	16                              @ @rsa_alt_sign_wrap
	.thumb_func
rsa_alt_sign_wrap:
.Lfunc_begin26:
	.loc	5 774 0 is_stmt 1               @ ../../../ThirdParty/mbedTLS/library/pk_wrap.c:774:0
	.fnstart
	.cfi_startproc
@ %bb.0:
	@DEBUG_VALUE: rsa_alt_sign_wrap:ctx <- $r0
	@DEBUG_VALUE: rsa_alt_sign_wrap:md_alg <- $r1
	@DEBUG_VALUE: rsa_alt_sign_wrap:hash <- $r2
	@DEBUG_VALUE: rsa_alt_sign_wrap:hash_len <- $r3
	.save	{r4, r5, r6, r7, lr}
	push	{r4, r5, r6, r7, lr}
	.cfi_def_cfa_offset 20
	.cfi_offset lr, -4
	.cfi_offset r7, -8
	.cfi_offset r6, -12
	.cfi_offset r5, -16
	.cfi_offset r4, -20
	.pad	#20
	sub	sp, #20
	.cfi_def_cfa_offset 40
.Ltmp123:
	@DEBUG_VALUE: rsa_alt_sign_wrap:rsa_alt <- $r0
	mov	r5, r3
	str	r2, [sp, #16]                   @ 4-byte Spill
	mov	r6, r1
	mov	r7, r0
.Ltmp124:
	@DEBUG_VALUE: rsa_alt_sign_wrap:rsa_alt <- $r7
	@DEBUG_VALUE: rsa_alt_sign_wrap:p_rng <- [DW_OP_plus_uconst 52] [$sp+0]
	@DEBUG_VALUE: rsa_alt_sign_wrap:f_rng <- [DW_OP_plus_uconst 48] [$sp+0]
	@DEBUG_VALUE: rsa_alt_sign_wrap:sig_len <- [DW_OP_plus_uconst 44] [$sp+0]
	@DEBUG_VALUE: rsa_alt_sign_wrap:sig <- [DW_OP_plus_uconst 40] [$sp+0]
	@DEBUG_VALUE: rsa_alt_sign_wrap:hash_len <- $r5
	@DEBUG_VALUE: rsa_alt_sign_wrap:hash <- [DW_OP_plus_uconst 16] [$sp+0]
	@DEBUG_VALUE: rsa_alt_sign_wrap:md_alg <- $r6
	@DEBUG_VALUE: rsa_alt_sign_wrap:ctx <- $r7
	.loc	5 782 48 prologue_end           @ ../../../ThirdParty/mbedTLS/library/pk_wrap.c:782:48
	ldr	r0, [r0]
	.loc	5 782 25 is_stmt 0              @ ../../../ThirdParty/mbedTLS/library/pk_wrap.c:782:25
	ldr	r1, [r7, #12]
	.loc	5 782 16                        @ ../../../ThirdParty/mbedTLS/library/pk_wrap.c:782:16
	blx	r1
	ldr	r1, [sp, #44]
	.loc	5 782 14                        @ ../../../ThirdParty/mbedTLS/library/pk_wrap.c:782:14
	str	r0, [r1]
	.loc	5 784 22 is_stmt 1              @ ../../../ThirdParty/mbedTLS/library/pk_wrap.c:784:22
	ldr	r4, [r7, #8]
	.loc	5 784 42 is_stmt 0              @ ../../../ThirdParty/mbedTLS/library/pk_wrap.c:784:42
	ldr	r0, [r7]
	ldr	r1, [sp, #40]
	.loc	5 784 13                        @ ../../../ThirdParty/mbedTLS/library/pk_wrap.c:784:13
	str	r6, [sp]
	str	r5, [sp, #4]
	ldr	r2, [sp, #16]                   @ 4-byte Reload
.Ltmp125:
	@DEBUG_VALUE: rsa_alt_sign_wrap:hash <- $r2
	str	r2, [sp, #8]
	str	r1, [sp, #12]
	ldr	r1, [sp, #48]
	ldr	r2, [sp, #52]
.Ltmp126:
	.loc	5 0 13                          @ ../../../ThirdParty/mbedTLS/library/pk_wrap.c:0:13
	movs	r3, #1
	.loc	5 784 13                        @ ../../../ThirdParty/mbedTLS/library/pk_wrap.c:784:13
	blx	r4
	.loc	5 784 5                         @ ../../../ThirdParty/mbedTLS/library/pk_wrap.c:784:5
	add	sp, #20
.Ltmp127:
	pop	{r4, r5, r6, r7, pc}
.Ltmp128:
.Lfunc_end26:
	.size	rsa_alt_sign_wrap, .Lfunc_end26-rsa_alt_sign_wrap
	.cfi_endproc
	.cantunwind
	.fnend
                                        @ -- End function
	.section	.text.rsa_alt_decrypt_wrap,"ax",%progbits
	.p2align	2                               @ -- Begin function rsa_alt_decrypt_wrap
	.type	rsa_alt_decrypt_wrap,%function
	.code	16                              @ @rsa_alt_decrypt_wrap
	.thumb_func
rsa_alt_decrypt_wrap:
.Lfunc_begin27:
	.loc	5 792 0 is_stmt 1               @ ../../../ThirdParty/mbedTLS/library/pk_wrap.c:792:0
	.fnstart
	.cfi_startproc
@ %bb.0:
	@DEBUG_VALUE: rsa_alt_decrypt_wrap:ctx <- $r0
	@DEBUG_VALUE: rsa_alt_decrypt_wrap:input <- $r1
	@DEBUG_VALUE: rsa_alt_decrypt_wrap:ilen <- $r2
	@DEBUG_VALUE: rsa_alt_decrypt_wrap:output <- $r3
	.save	{r4, r5, r6, r7, lr}
	push	{r4, r5, r6, r7, lr}
	.cfi_def_cfa_offset 20
	.cfi_offset lr, -4
	.cfi_offset r7, -8
	.cfi_offset r6, -12
	.cfi_offset r5, -16
	.cfi_offset r4, -20
	.pad	#12
	sub	sp, #12
	.cfi_def_cfa_offset 32
.Ltmp129:
	@DEBUG_VALUE: rsa_alt_decrypt_wrap:rsa_alt <- $r0
	mov	r5, r3
	mov	r7, r2
	mov	r4, r1
	mov	r6, r0
.Ltmp130:
	@DEBUG_VALUE: rsa_alt_decrypt_wrap:rsa_alt <- $r6
	@DEBUG_VALUE: rsa_alt_decrypt_wrap:p_rng <- [DW_OP_plus_uconst 44] [$sp+0]
	@DEBUG_VALUE: rsa_alt_decrypt_wrap:f_rng <- [DW_OP_plus_uconst 40] [$sp+0]
	@DEBUG_VALUE: rsa_alt_decrypt_wrap:osize <- [DW_OP_plus_uconst 36] [$sp+0]
	@DEBUG_VALUE: rsa_alt_decrypt_wrap:olen <- [DW_OP_plus_uconst 32] [$sp+0]
	@DEBUG_VALUE: rsa_alt_decrypt_wrap:output <- $r5
	@DEBUG_VALUE: rsa_alt_decrypt_wrap:ilen <- $r7
	@DEBUG_VALUE: rsa_alt_decrypt_wrap:input <- $r4
	@DEBUG_VALUE: rsa_alt_decrypt_wrap:ctx <- $r6
	.loc	5 798 49 prologue_end           @ ../../../ThirdParty/mbedTLS/library/pk_wrap.c:798:49
	ldr	r0, [r0]
	.loc	5 798 26 is_stmt 0              @ ../../../ThirdParty/mbedTLS/library/pk_wrap.c:798:26
	ldr	r1, [r6, #12]
	.loc	5 798 17                        @ ../../../ThirdParty/mbedTLS/library/pk_wrap.c:798:17
	blx	r1
.Ltmp131:
	.loc	5 798 9                         @ ../../../ThirdParty/mbedTLS/library/pk_wrap.c:798:9
	cmp	r0, r7
	bne	.LBB27_2
.Ltmp132:
@ %bb.1:
	@DEBUG_VALUE: rsa_alt_decrypt_wrap:ilen <- $r7
	@DEBUG_VALUE: rsa_alt_decrypt_wrap:ctx <- $r6
	@DEBUG_VALUE: rsa_alt_decrypt_wrap:rsa_alt <- $r6
	@DEBUG_VALUE: rsa_alt_decrypt_wrap:output <- $r5
	@DEBUG_VALUE: rsa_alt_decrypt_wrap:input <- $r4
	@DEBUG_VALUE: rsa_alt_decrypt_wrap:olen <- [DW_OP_plus_uconst 32] [$sp+0]
	@DEBUG_VALUE: rsa_alt_decrypt_wrap:osize <- [DW_OP_plus_uconst 36] [$sp+0]
	@DEBUG_VALUE: rsa_alt_decrypt_wrap:f_rng <- [DW_OP_plus_uconst 40] [$sp+0]
	@DEBUG_VALUE: rsa_alt_decrypt_wrap:p_rng <- [DW_OP_plus_uconst 44] [$sp+0]
	.loc	5 0 9                           @ ../../../ThirdParty/mbedTLS/library/pk_wrap.c:0:9
	ldr	r1, [sp, #36]
	ldr	r2, [sp, #32]
	@DEBUG_VALUE: rsa_alt_decrypt_wrap:rsa_alt <- $r6
	.loc	5 801 45 is_stmt 1              @ ../../../ThirdParty/mbedTLS/library/pk_wrap.c:801:45
	ldm	r6, {r0, r6}
.Ltmp133:
	.loc	5 801 13 is_stmt 0              @ ../../../ThirdParty/mbedTLS/library/pk_wrap.c:801:13
	str	r5, [sp]
	str	r1, [sp, #4]
	movs	r1, #1
	mov	r3, r4
	blx	r6
	.loc	5 803 1 is_stmt 1               @ ../../../ThirdParty/mbedTLS/library/pk_wrap.c:803:1
	add	sp, #12
.Ltmp134:
	pop	{r4, r5, r6, r7, pc}
.Ltmp135:
.LBB27_2:
	@DEBUG_VALUE: rsa_alt_decrypt_wrap:ilen <- $r7
	@DEBUG_VALUE: rsa_alt_decrypt_wrap:ctx <- $r6
	@DEBUG_VALUE: rsa_alt_decrypt_wrap:rsa_alt <- $r6
	@DEBUG_VALUE: rsa_alt_decrypt_wrap:output <- $r5
	@DEBUG_VALUE: rsa_alt_decrypt_wrap:input <- $r4
	@DEBUG_VALUE: rsa_alt_decrypt_wrap:olen <- [DW_OP_plus_uconst 32] [$sp+0]
	@DEBUG_VALUE: rsa_alt_decrypt_wrap:osize <- [DW_OP_plus_uconst 36] [$sp+0]
	@DEBUG_VALUE: rsa_alt_decrypt_wrap:f_rng <- [DW_OP_plus_uconst 40] [$sp+0]
	@DEBUG_VALUE: rsa_alt_decrypt_wrap:p_rng <- [DW_OP_plus_uconst 44] [$sp+0]
	.loc	5 0 1 is_stmt 0                 @ ../../../ThirdParty/mbedTLS/library/pk_wrap.c:0:1
	ldr	r0, __arm_cp.27_0
	.loc	5 803 1                         @ ../../../ThirdParty/mbedTLS/library/pk_wrap.c:803:1
	add	sp, #12
.Ltmp136:
	pop	{r4, r5, r6, r7, pc}
.Ltmp137:
	.p2align	2
@ %bb.3:
	.loc	5 0 1                           @ ../../../ThirdParty/mbedTLS/library/pk_wrap.c:0:1
__arm_cp.27_0:
	.long	4294950784                      @ 0xffffbf80
.Lcpi_end6:
	.size	__arm_cp.27_0, .Lcpi_end6-__arm_cp.27_0
.Lfunc_end27:
	.size	rsa_alt_decrypt_wrap, .Lfunc_end27-rsa_alt_decrypt_wrap
	.cfi_endproc
	.cantunwind
	.fnend
                                        @ -- End function
	.section	.text.rsa_alt_check_pair,"ax",%progbits
	.p2align	2                               @ -- Begin function rsa_alt_check_pair
	.type	rsa_alt_check_pair,%function
	.code	16                              @ @rsa_alt_check_pair
	.thumb_func
rsa_alt_check_pair:
.Lfunc_begin28:
	.loc	5 807 0 is_stmt 1               @ ../../../ThirdParty/mbedTLS/library/pk_wrap.c:807:0
	.fnstart
	.cfi_startproc
@ %bb.0:
	@DEBUG_VALUE: rsa_alt_check_pair:pub <- $r0
	@DEBUG_VALUE: rsa_alt_check_pair:prv <- $r1
	.save	{r4, r5, r6, r7, lr}
	push	{r4, r5, r6, r7, lr}
	.cfi_def_cfa_offset 20
	.cfi_offset lr, -4
	.cfi_offset r7, -8
	.cfi_offset r6, -12
	.cfi_offset r5, -16
	.cfi_offset r4, -20
	.pad	#508
	sub	sp, #508
	.pad	#508
	sub	sp, #508
	.pad	#68
	sub	sp, #68
	.cfi_def_cfa_offset 1104
	mov	r5, r1
	mov	r4, r0
	movs	r6, #0
.Ltmp138:
	@DEBUG_VALUE: rsa_alt_check_pair:sig_len <- 0
	@DEBUG_VALUE: rsa_alt_check_pair:prv <- $r5
	@DEBUG_VALUE: rsa_alt_check_pair:pub <- $r4
	.loc	5 810 12 prologue_end           @ ../../../ThirdParty/mbedTLS/library/pk_wrap.c:810:12
	str	r6, [sp, #24]
.Ltmp139:
	.loc	5 813 9                         @ ../../../ThirdParty/mbedTLS/library/pk_wrap.c:813:9
	mov	r0, r1
	bl	rsa_alt_get_bitlen
	mov	r7, r0
	.loc	5 813 38 is_stmt 0              @ ../../../ThirdParty/mbedTLS/library/pk_wrap.c:813:38
	mov	r0, r4
	bl	rsa_get_bitlen
	ldr	r1, __arm_cp.28_0
.Ltmp140:
	.loc	5 813 9                         @ ../../../ThirdParty/mbedTLS/library/pk_wrap.c:813:9
	cmp	r7, r0
	bne	.LBB28_5
.Ltmp141:
@ %bb.1:
	@DEBUG_VALUE: rsa_alt_check_pair:prv <- $r5
	@DEBUG_VALUE: rsa_alt_check_pair:pub <- $r4
	@DEBUG_VALUE: rsa_alt_check_pair:sig_len <- 0
	.loc	5 0 9                           @ ../../../ThirdParty/mbedTLS/library/pk_wrap.c:0:9
	mov	r7, r1
	ldr	r0, __arm_cp.28_1
	.loc	5 816 5 is_stmt 1               @ ../../../ThirdParty/mbedTLS/library/pk_wrap.c:816:5
	str	r0, [sp, #56]
	str	r0, [sp, #52]
	str	r0, [sp, #48]
	str	r0, [sp, #44]
	str	r0, [sp, #40]
	str	r0, [sp, #36]
	str	r0, [sp, #32]
	str	r0, [sp, #28]
.Ltmp142:
	@DEBUG_VALUE: rsa_alt_check_pair:sig_len <- [DW_OP_plus_uconst 24, DW_OP_deref] $sp
	.loc	5 818 17                        @ ../../../ThirdParty/mbedTLS/library/pk_wrap.c:818:17
	str	r6, [sp, #12]
	str	r6, [sp, #8]
	add	r0, sp, #24
	str	r0, [sp, #4]
	add	r0, sp, #60
	str	r0, [sp]
	add	r2, sp, #28
	movs	r3, #32
	mov	r0, r5
	mov	r1, r6
	bl	rsa_alt_sign_wrap
.Ltmp143:
	@DEBUG_VALUE: rsa_alt_check_pair:ret <- $r0
	.loc	5 818 9 is_stmt 0               @ ../../../ThirdParty/mbedTLS/library/pk_wrap.c:818:9
	cbnz	r0, .LBB28_6
.Ltmp144:
@ %bb.2:
	@DEBUG_VALUE: rsa_alt_check_pair:prv <- $r5
	@DEBUG_VALUE: rsa_alt_check_pair:pub <- $r4
	@DEBUG_VALUE: rsa_alt_check_pair:ret <- $r0
	@DEBUG_VALUE: rsa_alt_check_pair:sig_len <- [DW_OP_plus_uconst 24, DW_OP_deref] $sp
	.loc	5 826 53 is_stmt 1              @ ../../../ThirdParty/mbedTLS/library/pk_wrap.c:826:53
	ldr	r0, [sp, #24]
.Ltmp145:
	@DEBUG_VALUE: rsa_alt_check_pair:sig_len <- $r0
	.loc	5 825 9                         @ ../../../ThirdParty/mbedTLS/library/pk_wrap.c:825:9
	str	r0, [sp, #4]
	add	r0, sp, #60
.Ltmp146:
	str	r0, [sp]
	movs	r1, #0
	add	r2, sp, #28
	movs	r3, #32
	mov	r0, r4
	bl	rsa_verify_wrap
	mov	r1, r7
.Ltmp147:
	.loc	5 825 9 is_stmt 0               @ ../../../ThirdParty/mbedTLS/library/pk_wrap.c:825:9
	cbnz	r0, .LBB28_4
.Ltmp148:
@ %bb.3:
	@DEBUG_VALUE: rsa_alt_check_pair:prv <- $r5
	@DEBUG_VALUE: rsa_alt_check_pair:pub <- $r4
	mov	r1, r0
.Ltmp149:
.LBB28_4:
	@DEBUG_VALUE: rsa_alt_check_pair:prv <- $r5
	@DEBUG_VALUE: rsa_alt_check_pair:pub <- $r4
	.loc	5 0 0                           @ ../../../ThirdParty/mbedTLS/library/pk_wrap.c:0:0
	mov	r0, r1
	b	.LBB28_6
.Ltmp150:
.LBB28_5:
	@DEBUG_VALUE: rsa_alt_check_pair:prv <- $r5
	@DEBUG_VALUE: rsa_alt_check_pair:pub <- $r4
	@DEBUG_VALUE: rsa_alt_check_pair:sig_len <- 0
	mov	r0, r1
.Ltmp151:
.LBB28_6:
	@DEBUG_VALUE: rsa_alt_check_pair:prv <- $r5
	@DEBUG_VALUE: rsa_alt_check_pair:pub <- $r4
	.loc	5 832 1 is_stmt 1               @ ../../../ThirdParty/mbedTLS/library/pk_wrap.c:832:1
	add	sp, #508
	add	sp, #508
	add	sp, #68
	pop	{r4, r5, r6, r7, pc}
.Ltmp152:
	.p2align	2
@ %bb.7:
	.loc	5 0 1 is_stmt 0                 @ ../../../ThirdParty/mbedTLS/library/pk_wrap.c:0:1
__arm_cp.28_0:
	.long	4294950400                      @ 0xffffbe00
.Lcpi_end7:
	.size	__arm_cp.28_0, .Lcpi_end7-__arm_cp.28_0
__arm_cp.28_1:
	.long	707406378                       @ 0x2a2a2a2a
.Lcpi_end8:
	.size	__arm_cp.28_1, .Lcpi_end8-__arm_cp.28_1
.Lfunc_end28:
	.size	rsa_alt_check_pair, .Lfunc_end28-rsa_alt_check_pair
	.cfi_endproc
	.cantunwind
	.fnend
                                        @ -- End function
	.section	.text.rsa_alt_alloc_wrap,"ax",%progbits
	.p2align	1                               @ -- Begin function rsa_alt_alloc_wrap
	.type	rsa_alt_alloc_wrap,%function
	.code	16                              @ @rsa_alt_alloc_wrap
	.thumb_func
rsa_alt_alloc_wrap:
.Lfunc_begin29:
	.loc	5 836 0 is_stmt 1               @ ../../../ThirdParty/mbedTLS/library/pk_wrap.c:836:0
	.fnstart
	.cfi_startproc
@ %bb.0:
	.save	{r4, lr}
	push	{r4, lr}
	.cfi_def_cfa_offset 8
	.cfi_offset lr, -4
	.cfi_offset r4, -8
	movs	r0, #1
	movs	r1, #16
.Ltmp153:
	.loc	5 837 17 prologue_end           @ ../../../ThirdParty/mbedTLS/library/pk_wrap.c:837:17
	bl	calloc
	mov	r4, r0
.Ltmp154:
	@DEBUG_VALUE: rsa_alt_alloc_wrap:ctx <- $r4
	.loc	5 839 9                         @ ../../../ThirdParty/mbedTLS/library/pk_wrap.c:839:9
	cbz	r0, .LBB29_2
.Ltmp155:
@ %bb.1:
	@DEBUG_VALUE: rsa_alt_alloc_wrap:ctx <- $r4
	.loc	5 0 9 is_stmt 0                 @ ../../../ThirdParty/mbedTLS/library/pk_wrap.c:0:9
	movs	r1, #16
.Ltmp156:
	.loc	5 840 9 is_stmt 1               @ ../../../ThirdParty/mbedTLS/library/pk_wrap.c:840:9
	mov	r0, r4
	bl	__aeabi_memclr
.Ltmp157:
.LBB29_2:
	@DEBUG_VALUE: rsa_alt_alloc_wrap:ctx <- $r4
	.loc	5 842 5                         @ ../../../ThirdParty/mbedTLS/library/pk_wrap.c:842:5
	mov	r0, r4
	pop	{r4, pc}
.Ltmp158:
.Lfunc_end29:
	.size	rsa_alt_alloc_wrap, .Lfunc_end29-rsa_alt_alloc_wrap
	.cfi_endproc
	.cantunwind
	.fnend
                                        @ -- End function
	.section	.text.rsa_alt_free_wrap,"ax",%progbits
	.p2align	1                               @ -- Begin function rsa_alt_free_wrap
	.type	rsa_alt_free_wrap,%function
	.code	16                              @ @rsa_alt_free_wrap
	.thumb_func
rsa_alt_free_wrap:
.Lfunc_begin30:
	.loc	5 846 0                         @ ../../../ThirdParty/mbedTLS/library/pk_wrap.c:846:0
	.fnstart
	.cfi_startproc
@ %bb.0:
	@DEBUG_VALUE: rsa_alt_free_wrap:ctx <- $r0
	.save	{r4, lr}
	push	{r4, lr}
	.cfi_def_cfa_offset 8
	.cfi_offset lr, -4
	.cfi_offset r4, -8
	mov	r4, r0
.Ltmp159:
	@DEBUG_VALUE: rsa_alt_free_wrap:ctx <- $r4
	movs	r1, #16
.Ltmp160:
	.loc	5 847 5 prologue_end            @ ../../../ThirdParty/mbedTLS/library/pk_wrap.c:847:5
	bl	mbedtls_platform_zeroize
	.loc	5 848 5                         @ ../../../ThirdParty/mbedTLS/library/pk_wrap.c:848:5
	mov	r0, r4
	bl	free
	.loc	5 849 1                         @ ../../../ThirdParty/mbedTLS/library/pk_wrap.c:849:1
	pop	{r4, pc}
.Ltmp161:
.Lfunc_end30:
	.size	rsa_alt_free_wrap, .Lfunc_end30-rsa_alt_free_wrap
	.cfi_endproc
	.cantunwind
	.fnend
                                        @ -- End function
	.type	.L.str,%object                  @ @.str
	.section	.rodata.str1.1,"aMS",%progbits,1
.L.str:
	.asciz	"RSA"
	.size	.L.str, 4

	.hidden	mbedtls_rsa_info                @ @mbedtls_rsa_info
	.type	mbedtls_rsa_info,%object
	.section	.rodata.mbedtls_rsa_info,"a",%progbits
	.globl	mbedtls_rsa_info
	.p2align	2
mbedtls_rsa_info:
	.byte	1                               @ 0x1
	.zero	3
	.long	.L.str
	.long	rsa_get_bitlen
	.long	rsa_can_do
	.long	rsa_verify_wrap
	.long	rsa_sign_wrap
	.long	rsa_decrypt_wrap
	.long	rsa_encrypt_wrap
	.long	rsa_check_pair_wrap
	.long	rsa_alloc_wrap
	.long	rsa_free_wrap
	.long	rsa_debug
	.size	mbedtls_rsa_info, 48

	.type	.L.str.1,%object                @ @.str.1
	.section	.rodata.str1.1,"aMS",%progbits,1
.L.str.1:
	.asciz	"EC"
	.size	.L.str.1, 3

	.hidden	mbedtls_eckey_info              @ @mbedtls_eckey_info
	.type	mbedtls_eckey_info,%object
	.section	.rodata.mbedtls_eckey_info,"a",%progbits
	.globl	mbedtls_eckey_info
	.p2align	2
mbedtls_eckey_info:
	.byte	2                               @ 0x2
	.zero	3
	.long	.L.str.1
	.long	eckey_get_bitlen
	.long	eckey_can_do
	.long	eckey_verify_wrap
	.long	eckey_sign_wrap
	.long	0
	.long	0
	.long	eckey_check_pair
	.long	eckey_alloc_wrap
	.long	eckey_free_wrap
	.long	eckey_debug
	.size	mbedtls_eckey_info, 48

	.type	.L.str.2,%object                @ @.str.2
	.section	.rodata.str1.1,"aMS",%progbits,1
.L.str.2:
	.asciz	"EC_DH"
	.size	.L.str.2, 6

	.hidden	mbedtls_eckeydh_info            @ @mbedtls_eckeydh_info
	.type	mbedtls_eckeydh_info,%object
	.section	.rodata.mbedtls_eckeydh_info,"a",%progbits
	.globl	mbedtls_eckeydh_info
	.p2align	2
mbedtls_eckeydh_info:
	.byte	3                               @ 0x3
	.zero	3
	.long	.L.str.2
	.long	eckey_get_bitlen
	.long	eckeydh_can_do
	.long	0
	.long	0
	.long	0
	.long	0
	.long	eckey_check_pair
	.long	eckey_alloc_wrap
	.long	eckey_free_wrap
	.long	eckey_debug
	.size	mbedtls_eckeydh_info, 48

	.type	.L.str.3,%object                @ @.str.3
	.section	.rodata.str1.1,"aMS",%progbits,1
.L.str.3:
	.asciz	"ECDSA"
	.size	.L.str.3, 6

	.hidden	mbedtls_ecdsa_info              @ @mbedtls_ecdsa_info
	.type	mbedtls_ecdsa_info,%object
	.section	.rodata.mbedtls_ecdsa_info,"a",%progbits
	.globl	mbedtls_ecdsa_info
	.p2align	2
mbedtls_ecdsa_info:
	.byte	4                               @ 0x4
	.zero	3
	.long	.L.str.3
	.long	eckey_get_bitlen
	.long	ecdsa_can_do
	.long	ecdsa_verify_wrap
	.long	ecdsa_sign_wrap
	.long	0
	.long	0
	.long	eckey_check_pair
	.long	ecdsa_alloc_wrap
	.long	ecdsa_free_wrap
	.long	eckey_debug
	.size	mbedtls_ecdsa_info, 48

	.type	.L.str.4,%object                @ @.str.4
	.section	.rodata.str1.1,"aMS",%progbits,1
.L.str.4:
	.asciz	"RSA-alt"
	.size	.L.str.4, 8

	.hidden	mbedtls_rsa_alt_info            @ @mbedtls_rsa_alt_info
	.type	mbedtls_rsa_alt_info,%object
	.section	.rodata.mbedtls_rsa_alt_info,"a",%progbits
	.globl	mbedtls_rsa_alt_info
	.p2align	2
mbedtls_rsa_alt_info:
	.byte	5                               @ 0x5
	.zero	3
	.long	.L.str.4
	.long	rsa_alt_get_bitlen
	.long	rsa_alt_can_do
	.long	0
	.long	rsa_alt_sign_wrap
	.long	rsa_alt_decrypt_wrap
	.long	0
	.long	rsa_alt_check_pair
	.long	rsa_alt_alloc_wrap
	.long	rsa_alt_free_wrap
	.long	0
	.size	mbedtls_rsa_alt_info, 48

	.section	".note.GNU-stack","",%progbits
	.eabi_attribute	30, 1	@ Tag_ABI_optimization_goals
	.ARM_attribute	16, 1	@ Tag_AV_eba