	.text
	.syntax unified
	.eabi_attribute	67, "2.09"	@ Tag_conformance
	.cpu	cortex-m23
	.eabi_attribute	6, 16	@ Tag_CPU_arch
	.eabi_attribute	7, 77	@ Tag_CPU_arch_profile
	.eabi_attribute	8, 0	@ Tag_ARM_ISA_use
	.eabi_attribute	9, 3	@ Tag_THUMB_ISA_use
	.eabi_attribute	34, 0	@ Tag_CPU_unaligned_access
	.eabi_attribute	17, 1	@ Tag_ABI_PCS_GOT_use
	.eabi_attribute	20, 2	@ Tag_ABI_FP_denormal
	.eabi_attribute	21, 0	@ Tag_ABI_FP_exceptions
	.eabi_attribute	23, 1	@ Tag_ABI_FP_number_model
	.eabi_attribute	24, 1	@ Tag_ABI_align_needed
	.eabi_attribute	25, 1	@ Tag_ABI_align_preserved
	.eabi_attribute	38, 1	@ Tag_ABI_FP_16bit_format
	.eabi_attribute	18, 2	@ Tag_ABI_PCS_wchar_t
	.eabi_attribute	26, 1	@ Tag_ABI_enum_size
	.eabi_attribute	14, 0	@ Tag_ABI_PCS_R9_use
	.file	"pkcs5.c"
	.file	1 "C:\\Users\\shw26\\OneDrive\\Desktop\\2021\\2021-1\\\354\272\241\354\212\244\355\206\244\353\224\224\354\236\220\354\235\2702\\Nuvoton\\M2351_BSP_v3.00.004\\M2351Series_BSP_CMSIS_V3.00.004\\MyProject\\PulseMonitoring\\Secure" "../../../ThirdParty/mbedTLS/library/pkcs5.c"
	.file	2 "C:\\" "Keil_v5\\ARM\\ARMCLANG\\Bin\\..\\include\\stddef.h"
	.file	3 "C:\\" "Keil_v5\\ARM\\ARMCLANG\\Bin\\..\\include\\stdint.h"
	.file	4 "C:\\Users\\shw26\\OneDrive\\Desktop\\2021\\2021-1\\\354\272\241\354\212\244\355\206\244\353\224\224\354\236\220\354\235\2702\\Nuvoton\\M2351_BSP_v3.00.004\\M2351Series_BSP_CMSIS_V3.00.004\\MyProject\\PulseMonitoring\\Secure" "../../../ThirdParty/mbedTLS/include/mbedtls/md.h"
	.file	5 "C:\\Users\\shw26\\OneDrive\\Desktop\\2021\\2021-1\\\354\272\241\354\212\244\355\206\244\353\224\224\354\236\220\354\235\2702\\Nuvoton\\M2351_BSP_v3.00.004\\M2351Series_BSP_CMSIS_V3.00.004\\MyProject\\PulseMonitoring\\Secure" "../../../ThirdParty/mbedTLS/include/mbedtls/cipher.h"
	.section	.text.mbedtls_pkcs5_pbes2,"ax",%progbits
	.hidden	mbedtls_pkcs5_pbes2             @ -- Begin function mbedtls_pkcs5_pbes2
	.globl	mbedtls_pkcs5_pbes2
	.p2align	2
	.type	mbedtls_pkcs5_pbes2,%function
	.code	16                              @ @mbedtls_pkcs5_pbes2
	.thumb_func
mbedtls_pkcs5_pbes2:
.Lfunc_begin0:
	.loc	1 117 0                         @ ../../../ThirdParty/mbedTLS/library/pkcs5.c:117:0
	.fnstart
	.cfi_sections .debug_frame
	.cfi_startproc
@ %bb.0:
	@DEBUG_VALUE: mbedtls_pkcs5_pbes2:pbe_params <- $r0
	@DEBUG_VALUE: mbedtls_pkcs5_pbes2:mode <- $r1
	@DEBUG_VALUE: mbedtls_pkcs5_pbes2:pwd <- $r2
	@DEBUG_VALUE: mbedtls_pkcs5_pbes2:pwdlen <- $r3
	.save	{r4, r5, r6, r7, lr}
	push	{r4, r5, r6, r7, lr}
	.cfi_def_cfa_offset 20
	.cfi_offset lr, -4
	.cfi_offset r7, -8
	.cfi_offset r6, -12
	.cfi_offset r5, -16
	.cfi_offset r4, -20
	.pad	#252
	sub	sp, #252
	.cfi_def_cfa_offset 272
	mov	r6, r2
	mov	r7, r1
	movs	r1, #0
.Ltmp0:
	@DEBUG_VALUE: mbedtls_pkcs5_pbes2:mode <- [DW_OP_LLVM_entry_value 1] $r1
	@DEBUG_VALUE: mbedtls_pkcs5_pbes2:iterations <- 0
	@DEBUG_VALUE: mbedtls_pkcs5_pbes2:output <- [DW_OP_plus_uconst 280] [$sp+0]
	@DEBUG_VALUE: mbedtls_pkcs5_pbes2:datalen <- [DW_OP_plus_uconst 276] [$sp+0]
	@DEBUG_VALUE: mbedtls_pkcs5_pbes2:data <- [DW_OP_plus_uconst 272] [$sp+0]
	@DEBUG_VALUE: mbedtls_pkcs5_pbes2:pwdlen <- $r3
	@DEBUG_VALUE: mbedtls_pkcs5_pbes2:pwd <- $r6
	@DEBUG_VALUE: mbedtls_pkcs5_pbes2:mode <- $r7
	@DEBUG_VALUE: mbedtls_pkcs5_pbes2:pbe_params <- $r0
	.loc	1 118 14 prologue_end           @ ../../../ThirdParty/mbedTLS/library/pkcs5.c:118:14
	str	r1, [sp, #248]
.Ltmp1:
	@DEBUG_VALUE: mbedtls_pkcs5_pbes2:keylen <- 0
	.loc	1 118 30 is_stmt 0              @ ../../../ThirdParty/mbedTLS/library/pkcs5.c:118:30
	str	r1, [sp, #244]
	add	r2, sp, #176
	movs	r4, #4
.Ltmp2:
	@DEBUG_VALUE: mbedtls_pkcs5_pbes2:md_type <- 4
	.loc	1 122 23 is_stmt 1              @ ../../../ThirdParty/mbedTLS/library/pkcs5.c:122:23
	strb	r4, [r2]
.Ltmp3:
	@DEBUG_VALUE: mbedtls_pkcs5_pbes2:olen <- 0
	.loc	1 124 12                        @ ../../../ThirdParty/mbedTLS/library/pkcs5.c:124:12
	str	r1, [sp, #108]
	.loc	1 131 21                        @ ../../../ThirdParty/mbedTLS/library/pkcs5.c:131:21
	ldr	r1, [r0, #8]
.Ltmp4:
	@DEBUG_VALUE: mbedtls_pkcs5_pbes2:p <- $r1
	.loc	1 131 7 is_stmt 0               @ ../../../ThirdParty/mbedTLS/library/pkcs5.c:131:7
	str	r1, [sp, #240]
.Ltmp5:
	@DEBUG_VALUE: mbedtls_pkcs5_pbes2:end <- undef
	.loc	1 0 7                           @ ../../../ThirdParty/mbedTLS/library/pkcs5.c:0:7
	ldr	r5, __arm_cp.0_0
.Ltmp6:
	.loc	1 140 21 is_stmt 1              @ ../../../ThirdParty/mbedTLS/library/pkcs5.c:140:21
	ldr	r2, [r0]
.Ltmp7:
	.loc	1 140 9 is_stmt 0               @ ../../../ThirdParty/mbedTLS/library/pkcs5.c:140:9
	cmp	r2, #48
	bne	.LBB0_3
.Ltmp8:
@ %bb.1:
	@DEBUG_VALUE: mbedtls_pkcs5_pbes2:mode <- $r7
	@DEBUG_VALUE: mbedtls_pkcs5_pbes2:pwd <- $r6
	@DEBUG_VALUE: mbedtls_pkcs5_pbes2:pwdlen <- $r3
	@DEBUG_VALUE: mbedtls_pkcs5_pbes2:p <- $r1
	@DEBUG_VALUE: mbedtls_pkcs5_pbes2:pbe_params <- $r0
	@DEBUG_VALUE: mbedtls_pkcs5_pbes2:data <- [DW_OP_plus_uconst 272] [$sp+0]
	@DEBUG_VALUE: mbedtls_pkcs5_pbes2:datalen <- [DW_OP_plus_uconst 276] [$sp+0]
	@DEBUG_VALUE: mbedtls_pkcs5_pbes2:output <- [DW_OP_plus_uconst 280] [$sp+0]
	@DEBUG_VALUE: mbedtls_pkcs5_pbes2:olen <- 0
	@DEBUG_VALUE: mbedtls_pkcs5_pbes2:md_type <- 4
	@DEBUG_VALUE: mbedtls_pkcs5_pbes2:keylen <- 0
	@DEBUG_VALUE: mbedtls_pkcs5_pbes2:iterations <- 0
	.loc	1 0 9                           @ ../../../ThirdParty/mbedTLS/library/pkcs5.c:0:9
	str	r3, [sp, #24]                   @ 4-byte Spill
.Ltmp9:
	@DEBUG_VALUE: mbedtls_pkcs5_pbes2:pwdlen <- [DW_OP_plus_uconst 24] [$sp+0]
	ldr	r0, [r0, #4]
.Ltmp10:
	@DEBUG_VALUE: mbedtls_pkcs5_pbes2:pbe_params <- [DW_OP_LLVM_entry_value 1] $r0
	adds	r4, r1, r0
.Ltmp11:
	@DEBUG_VALUE: mbedtls_pkcs5_pbes2:end <- $r4
	@DEBUG_VALUE: mbedtls_pkcs5_pbes2:p <- [DW_OP_plus_uconst 240, DW_OP_deref] $sp
	add	r0, sp, #240
	add	r2, sp, #228
	add	r3, sp, #204
.Ltmp12:
	.loc	1 144 17 is_stmt 1              @ ../../../ThirdParty/mbedTLS/library/pkcs5.c:144:17
	mov	r1, r4
	bl	mbedtls_asn1_get_alg
.Ltmp13:
	@DEBUG_VALUE: mbedtls_pkcs5_pbes2:ret <- $r0
	.loc	1 144 9 is_stmt 0               @ ../../../ThirdParty/mbedTLS/library/pkcs5.c:144:9
	cbz	r0, .LBB0_5
.Ltmp14:
@ %bb.2:
	@DEBUG_VALUE: mbedtls_pkcs5_pbes2:pwdlen <- [DW_OP_plus_uconst 24] [$sp+0]
	@DEBUG_VALUE: mbedtls_pkcs5_pbes2:mode <- $r7
	@DEBUG_VALUE: mbedtls_pkcs5_pbes2:pwd <- $r6
	@DEBUG_VALUE: mbedtls_pkcs5_pbes2:end <- $r4
	@DEBUG_VALUE: mbedtls_pkcs5_pbes2:ret <- $r0
	@DEBUG_VALUE: mbedtls_pkcs5_pbes2:p <- [DW_OP_plus_uconst 240, DW_OP_deref] $sp
	@DEBUG_VALUE: mbedtls_pkcs5_pbes2:data <- [DW_OP_plus_uconst 272] [$sp+0]
	@DEBUG_VALUE: mbedtls_pkcs5_pbes2:datalen <- [DW_OP_plus_uconst 276] [$sp+0]
	@DEBUG_VALUE: mbedtls_pkcs5_pbes2:output <- [DW_OP_plus_uconst 280] [$sp+0]
	@DEBUG_VALUE: mbedtls_pkcs5_pbes2:pbe_params <- [DW_OP_LLVM_entry_value 1] $r0
	@DEBUG_VALUE: mbedtls_pkcs5_pbes2:olen <- 0
	@DEBUG_VALUE: mbedtls_pkcs5_pbes2:md_type <- 4
	@DEBUG_VALUE: mbedtls_pkcs5_pbes2:keylen <- 0
	@DEBUG_VALUE: mbedtls_pkcs5_pbes2:iterations <- 0
	.loc	1 145 50 is_stmt 1              @ ../../../ThirdParty/mbedTLS/library/pkcs5.c:145:50
	adds	r7, r5, r0
.Ltmp15:
	subs	r7, #128
	.loc	1 145 9 is_stmt 0               @ ../../../ThirdParty/mbedTLS/library/pkcs5.c:145:9
	b	.LBB0_4
.Ltmp16:
.LBB0_3:
	@DEBUG_VALUE: mbedtls_pkcs5_pbes2:mode <- $r7
	@DEBUG_VALUE: mbedtls_pkcs5_pbes2:pwd <- $r6
	@DEBUG_VALUE: mbedtls_pkcs5_pbes2:pwdlen <- $r3
	@DEBUG_VALUE: mbedtls_pkcs5_pbes2:p <- $r1
	@DEBUG_VALUE: mbedtls_pkcs5_pbes2:pbe_params <- $r0
	@DEBUG_VALUE: mbedtls_pkcs5_pbes2:data <- [DW_OP_plus_uconst 272] [$sp+0]
	@DEBUG_VALUE: mbedtls_pkcs5_pbes2:datalen <- [DW_OP_plus_uconst 276] [$sp+0]
	@DEBUG_VALUE: mbedtls_pkcs5_pbes2:output <- [DW_OP_plus_uconst 280] [$sp+0]
	@DEBUG_VALUE: mbedtls_pkcs5_pbes2:olen <- 0
	@DEBUG_VALUE: mbedtls_pkcs5_pbes2:md_type <- 4
	@DEBUG_VALUE: mbedtls_pkcs5_pbes2:keylen <- 0
	@DEBUG_VALUE: mbedtls_pkcs5_pbes2:iterations <- 0
	.loc	1 0 9                           @ ../../../ThirdParty/mbedTLS/library/pkcs5.c:0:9
	subs	r5, #226
	mov	r7, r5
.Ltmp17:
.LBB0_4:
	@DEBUG_VALUE: mbedtls_pkcs5_pbes2:pwd <- $r6
	@DEBUG_VALUE: mbedtls_pkcs5_pbes2:data <- [DW_OP_plus_uconst 272] [$sp+0]
	@DEBUG_VALUE: mbedtls_pkcs5_pbes2:datalen <- [DW_OP_plus_uconst 276] [$sp+0]
	@DEBUG_VALUE: mbedtls_pkcs5_pbes2:output <- [DW_OP_plus_uconst 280] [$sp+0]
	.loc	1 217 1 is_stmt 1               @ ../../../ThirdParty/mbedTLS/library/pkcs5.c:217:1
	mov	r0, r7
	add	sp, #252
.Ltmp18:
	pop	{r4, r5, r6, r7, pc}
.Ltmp19:
.LBB0_5:
	@DEBUG_VALUE: mbedtls_pkcs5_pbes2:pwdlen <- [DW_OP_plus_uconst 24] [$sp+0]
	@DEBUG_VALUE: mbedtls_pkcs5_pbes2:mode <- $r7
	@DEBUG_VALUE: mbedtls_pkcs5_pbes2:pwd <- $r6
	@DEBUG_VALUE: mbedtls_pkcs5_pbes2:end <- $r4
	@DEBUG_VALUE: mbedtls_pkcs5_pbes2:ret <- $r0
	@DEBUG_VALUE: mbedtls_pkcs5_pbes2:p <- [DW_OP_plus_uconst 240, DW_OP_deref] $sp
	@DEBUG_VALUE: mbedtls_pkcs5_pbes2:data <- [DW_OP_plus_uconst 272] [$sp+0]
	@DEBUG_VALUE: mbedtls_pkcs5_pbes2:datalen <- [DW_OP_plus_uconst 276] [$sp+0]
	@DEBUG_VALUE: mbedtls_pkcs5_pbes2:output <- [DW_OP_plus_uconst 280] [$sp+0]
	@DEBUG_VALUE: mbedtls_pkcs5_pbes2:pbe_params <- [DW_OP_LLVM_entry_value 1] $r0
	@DEBUG_VALUE: mbedtls_pkcs5_pbes2:olen <- 0
	@DEBUG_VALUE: mbedtls_pkcs5_pbes2:md_type <- 4
	@DEBUG_VALUE: mbedtls_pkcs5_pbes2:keylen <- 0
	@DEBUG_VALUE: mbedtls_pkcs5_pbes2:iterations <- 0
	.loc	1 149 9                         @ ../../../ThirdParty/mbedTLS/library/pkcs5.c:149:9
	ldr	r0, [sp, #232]
.Ltmp20:
	cmp	r0, #9
	bne	.LBB0_8
.Ltmp21:
@ %bb.6:
	@DEBUG_VALUE: mbedtls_pkcs5_pbes2:pwdlen <- [DW_OP_plus_uconst 24] [$sp+0]
	@DEBUG_VALUE: mbedtls_pkcs5_pbes2:mode <- $r7
	@DEBUG_VALUE: mbedtls_pkcs5_pbes2:pwd <- $r6
	@DEBUG_VALUE: mbedtls_pkcs5_pbes2:end <- $r4
	@DEBUG_VALUE: mbedtls_pkcs5_pbes2:p <- [DW_OP_plus_uconst 240, DW_OP_deref] $sp
	@DEBUG_VALUE: mbedtls_pkcs5_pbes2:data <- [DW_OP_plus_uconst 272] [$sp+0]
	@DEBUG_VALUE: mbedtls_pkcs5_pbes2:datalen <- [DW_OP_plus_uconst 276] [$sp+0]
	@DEBUG_VALUE: mbedtls_pkcs5_pbes2:output <- [DW_OP_plus_uconst 280] [$sp+0]
	@DEBUG_VALUE: mbedtls_pkcs5_pbes2:pbe_params <- [DW_OP_LLVM_entry_value 1] $r0
	@DEBUG_VALUE: mbedtls_pkcs5_pbes2:olen <- 0
	@DEBUG_VALUE: mbedtls_pkcs5_pbes2:md_type <- 4
	@DEBUG_VALUE: mbedtls_pkcs5_pbes2:keylen <- 0
	@DEBUG_VALUE: mbedtls_pkcs5_pbes2:iterations <- 0
	ldr	r1, [sp, #236]
	adr	r0, .LCPI0_1
	movs	r2, #9
	bl	memcmp
.Ltmp22:
	.loc	1 149 9 is_stmt 0               @ ../../../ThirdParty/mbedTLS/library/pkcs5.c:149:9
	cbz	r0, .LBB0_9
.Ltmp23:
@ %bb.7:
	@DEBUG_VALUE: mbedtls_pkcs5_pbes2:pwdlen <- [DW_OP_plus_uconst 24] [$sp+0]
	@DEBUG_VALUE: mbedtls_pkcs5_pbes2:mode <- $r7
	@DEBUG_VALUE: mbedtls_pkcs5_pbes2:pwd <- $r6
	@DEBUG_VALUE: mbedtls_pkcs5_pbes2:end <- $r4
	@DEBUG_VALUE: mbedtls_pkcs5_pbes2:p <- [DW_OP_plus_uconst 240, DW_OP_deref] $sp
	@DEBUG_VALUE: mbedtls_pkcs5_pbes2:data <- [DW_OP_plus_uconst 272] [$sp+0]
	@DEBUG_VALUE: mbedtls_pkcs5_pbes2:datalen <- [DW_OP_plus_uconst 276] [$sp+0]
	@DEBUG_VALUE: mbedtls_pkcs5_pbes2:output <- [DW_OP_plus_uconst 280] [$sp+0]
	@DEBUG_VALUE: mbedtls_pkcs5_pbes2:pbe_params <- [DW_OP_LLVM_entry_value 1] $r0
	@DEBUG_VALUE: mbedtls_pkcs5_pbes2:olen <- 0
	@DEBUG_VALUE: mbedtls_pkcs5_pbes2:md_type <- 4
	@DEBUG_VALUE: mbedtls_pkcs5_pbes2:keylen <- 0
	@DEBUG_VALUE: mbedtls_pkcs5_pbes2:iterations <- 0
	.loc	1 0 0                           @ ../../../ThirdParty/mbedTLS/library/pkcs5.c:0:0
	mov	r7, r5
.Ltmp24:
	b	.LBB0_4
.Ltmp25:
.LBB0_8:
	@DEBUG_VALUE: mbedtls_pkcs5_pbes2:pwdlen <- [DW_OP_plus_uconst 24] [$sp+0]
	@DEBUG_VALUE: mbedtls_pkcs5_pbes2:mode <- $r7
	@DEBUG_VALUE: mbedtls_pkcs5_pbes2:pwd <- $r6
	@DEBUG_VALUE: mbedtls_pkcs5_pbes2:end <- $r4
	@DEBUG_VALUE: mbedtls_pkcs5_pbes2:p <- [DW_OP_plus_uconst 240, DW_OP_deref] $sp
	@DEBUG_VALUE: mbedtls_pkcs5_pbes2:data <- [DW_OP_plus_uconst 272] [$sp+0]
	@DEBUG_VALUE: mbedtls_pkcs5_pbes2:datalen <- [DW_OP_plus_uconst 276] [$sp+0]
	@DEBUG_VALUE: mbedtls_pkcs5_pbes2:output <- [DW_OP_plus_uconst 280] [$sp+0]
	@DEBUG_VALUE: mbedtls_pkcs5_pbes2:pbe_params <- [DW_OP_LLVM_entry_value 1] $r0
	@DEBUG_VALUE: mbedtls_pkcs5_pbes2:olen <- 0
	@DEBUG_VALUE: mbedtls_pkcs5_pbes2:md_type <- 4
	@DEBUG_VALUE: mbedtls_pkcs5_pbes2:keylen <- 0
	@DEBUG_VALUE: mbedtls_pkcs5_pbes2:iterations <- 0
	mov	r7, r5
.Ltmp26:
	b	.LBB0_4
.Ltmp27:
.LBB0_9:
	@DEBUG_VALUE: mbedtls_pkcs5_pbes2:pwdlen <- [DW_OP_plus_uconst 24] [$sp+0]
	@DEBUG_VALUE: mbedtls_pkcs5_pbes2:mode <- $r7
	@DEBUG_VALUE: mbedtls_pkcs5_pbes2:pwd <- $r6
	@DEBUG_VALUE: mbedtls_pkcs5_pbes2:end <- $r4
	@DEBUG_VALUE: mbedtls_pkcs5_pbes2:p <- [DW_OP_plus_uconst 240, DW_OP_deref] $sp
	@DEBUG_VALUE: mbedtls_pkcs5_pbes2:data <- [DW_OP_plus_uconst 272] [$sp+0]
	@DEBUG_VALUE: mbedtls_pkcs5_pbes2:datalen <- [DW_OP_plus_uconst 276] [$sp+0]
	@DEBUG_VALUE: mbedtls_pkcs5_pbes2:output <- [DW_OP_plus_uconst 280] [$sp+0]
	@DEBUG_VALUE: mbedtls_pkcs5_pbes2:pbe_params <- [DW_OP_LLVM_entry_value 1] $r0
	@DEBUG_VALUE: mbedtls_pkcs5_pbes2:olen <- 0
	@DEBUG_VALUE: mbedtls_pkcs5_pbes2:md_type <- 4
	@DEBUG_VALUE: mbedtls_pkcs5_pbes2:keylen <- 0
	@DEBUG_VALUE: mbedtls_pkcs5_pbes2:iterations <- 0
	@DEBUG_VALUE: mbedtls_pkcs5_pbes2:iterations <- [DW_OP_plus_uconst 248, DW_OP_deref] $sp
	@DEBUG_VALUE: mbedtls_pkcs5_pbes2:keylen <- [DW_OP_plus_uconst 244, DW_OP_deref] $sp
	@DEBUG_VALUE: mbedtls_pkcs5_pbes2:md_type <- [DW_OP_plus_uconst 176, DW_OP_deref] $sp
	str	r7, [sp, #20]                   @ 4-byte Spill
.Ltmp28:
	@DEBUG_VALUE: mbedtls_pkcs5_pbes2:mode <- [DW_OP_plus_uconst 20] [$sp+0]
	add	r0, sp, #176
.Ltmp29:
	.loc	1 152 17 is_stmt 1              @ ../../../ThirdParty/mbedTLS/library/pkcs5.c:152:17
	str	r0, [sp]
	add	r0, sp, #204
	add	r1, sp, #180
	add	r2, sp, #248
	add	r3, sp, #244
	bl	pkcs5_parse_pbkdf2_params
	mov	r7, r0
.Ltmp30:
	@DEBUG_VALUE: mbedtls_pkcs5_pbes2:ret <- $r7
	.loc	1 152 9 is_stmt 0               @ ../../../ThirdParty/mbedTLS/library/pkcs5.c:152:9
	cmp	r0, #0
	bne	.LBB0_4
.Ltmp31:
@ %bb.10:
	@DEBUG_VALUE: mbedtls_pkcs5_pbes2:mode <- [DW_OP_plus_uconst 20] [$sp+0]
	@DEBUG_VALUE: mbedtls_pkcs5_pbes2:pwdlen <- [DW_OP_plus_uconst 24] [$sp+0]
	@DEBUG_VALUE: mbedtls_pkcs5_pbes2:ret <- $r7
	@DEBUG_VALUE: mbedtls_pkcs5_pbes2:pwd <- $r6
	@DEBUG_VALUE: mbedtls_pkcs5_pbes2:end <- $r4
	@DEBUG_VALUE: mbedtls_pkcs5_pbes2:md_type <- [DW_OP_plus_uconst 176, DW_OP_deref] $sp
	@DEBUG_VALUE: mbedtls_pkcs5_pbes2:keylen <- [DW_OP_plus_uconst 244, DW_OP_deref] $sp
	@DEBUG_VALUE: mbedtls_pkcs5_pbes2:iterations <- [DW_OP_plus_uconst 248, DW_OP_deref] $sp
	@DEBUG_VALUE: mbedtls_pkcs5_pbes2:p <- [DW_OP_plus_uconst 240, DW_OP_deref] $sp
	@DEBUG_VALUE: mbedtls_pkcs5_pbes2:data <- [DW_OP_plus_uconst 272] [$sp+0]
	@DEBUG_VALUE: mbedtls_pkcs5_pbes2:datalen <- [DW_OP_plus_uconst 276] [$sp+0]
	@DEBUG_VALUE: mbedtls_pkcs5_pbes2:output <- [DW_OP_plus_uconst 280] [$sp+0]
	@DEBUG_VALUE: mbedtls_pkcs5_pbes2:pbe_params <- [DW_OP_LLVM_entry_value 1] $r0
	@DEBUG_VALUE: mbedtls_pkcs5_pbes2:olen <- 0
	.loc	1 0 9                           @ ../../../ThirdParty/mbedTLS/library/pkcs5.c:0:9
	add	r0, sp, #176
	.loc	1 159 42 is_stmt 1              @ ../../../ThirdParty/mbedTLS/library/pkcs5.c:159:42
	ldrb	r0, [r0]
.Ltmp32:
	@DEBUG_VALUE: mbedtls_pkcs5_pbes2:md_type <- undef
	.loc	1 159 15 is_stmt 0              @ ../../../ThirdParty/mbedTLS/library/pkcs5.c:159:15
	bl	mbedtls_md_info_from_type
.Ltmp33:
	@DEBUG_VALUE: mbedtls_pkcs5_pbes2:md_info <- $r0
	.loc	1 160 9 is_stmt 1               @ ../../../ThirdParty/mbedTLS/library/pkcs5.c:160:9
	cbz	r0, .LBB0_13
.Ltmp34:
@ %bb.11:
	@DEBUG_VALUE: mbedtls_pkcs5_pbes2:mode <- [DW_OP_plus_uconst 20] [$sp+0]
	@DEBUG_VALUE: mbedtls_pkcs5_pbes2:pwdlen <- [DW_OP_plus_uconst 24] [$sp+0]
	@DEBUG_VALUE: mbedtls_pkcs5_pbes2:ret <- $r7
	@DEBUG_VALUE: mbedtls_pkcs5_pbes2:pwd <- $r6
	@DEBUG_VALUE: mbedtls_pkcs5_pbes2:end <- $r4
	@DEBUG_VALUE: mbedtls_pkcs5_pbes2:md_info <- $r0
	@DEBUG_VALUE: mbedtls_pkcs5_pbes2:keylen <- [DW_OP_plus_uconst 244, DW_OP_deref] $sp
	@DEBUG_VALUE: mbedtls_pkcs5_pbes2:iterations <- [DW_OP_plus_uconst 248, DW_OP_deref] $sp
	@DEBUG_VALUE: mbedtls_pkcs5_pbes2:p <- [DW_OP_plus_uconst 240, DW_OP_deref] $sp
	@DEBUG_VALUE: mbedtls_pkcs5_pbes2:data <- [DW_OP_plus_uconst 272] [$sp+0]
	@DEBUG_VALUE: mbedtls_pkcs5_pbes2:datalen <- [DW_OP_plus_uconst 276] [$sp+0]
	@DEBUG_VALUE: mbedtls_pkcs5_pbes2:output <- [DW_OP_plus_uconst 280] [$sp+0]
	@DEBUG_VALUE: mbedtls_pkcs5_pbes2:pbe_params <- [DW_OP_LLVM_entry_value 1] $r0
	@DEBUG_VALUE: mbedtls_pkcs5_pbes2:olen <- 0
	.loc	1 0 0 is_stmt 0                 @ ../../../ThirdParty/mbedTLS/library/pkcs5.c:0:0
	mov	r7, r0
.Ltmp35:
	@DEBUG_VALUE: mbedtls_pkcs5_pbes2:md_info <- $r7
	@DEBUG_VALUE: mbedtls_pkcs5_pbes2:p <- [DW_OP_plus_uconst 240, DW_OP_deref] $sp
	add	r0, sp, #240
	add	r2, sp, #216
	add	r3, sp, #192
.Ltmp36:
	.loc	1 163 17 is_stmt 1              @ ../../../ThirdParty/mbedTLS/library/pkcs5.c:163:17
	mov	r1, r4
	bl	mbedtls_asn1_get_alg
.Ltmp37:
	@DEBUG_VALUE: mbedtls_pkcs5_pbes2:ret <- $r0
	.loc	1 163 9 is_stmt 0               @ ../../../ThirdParty/mbedTLS/library/pkcs5.c:163:9
	cbz	r0, .LBB0_14
.Ltmp38:
@ %bb.12:
	@DEBUG_VALUE: mbedtls_pkcs5_pbes2:mode <- [DW_OP_plus_uconst 20] [$sp+0]
	@DEBUG_VALUE: mbedtls_pkcs5_pbes2:pwdlen <- [DW_OP_plus_uconst 24] [$sp+0]
	@DEBUG_VALUE: mbedtls_pkcs5_pbes2:md_info <- $r7
	@DEBUG_VALUE: mbedtls_pkcs5_pbes2:pwd <- $r6
	@DEBUG_VALUE: mbedtls_pkcs5_pbes2:end <- $r4
	@DEBUG_VALUE: mbedtls_pkcs5_pbes2:ret <- $r0
	@DEBUG_VALUE: mbedtls_pkcs5_pbes2:keylen <- [DW_OP_plus_uconst 244, DW_OP_deref] $sp
	@DEBUG_VALUE: mbedtls_pkcs5_pbes2:iterations <- [DW_OP_plus_uconst 248, DW_OP_deref] $sp
	@DEBUG_VALUE: mbedtls_pkcs5_pbes2:p <- [DW_OP_plus_uconst 240, DW_OP_deref] $sp
	@DEBUG_VALUE: mbedtls_pkcs5_pbes2:data <- [DW_OP_plus_uconst 272] [$sp+0]
	@DEBUG_VALUE: mbedtls_pkcs5_pbes2:datalen <- [DW_OP_plus_uconst 276] [$sp+0]
	@DEBUG_VALUE: mbedtls_pkcs5_pbes2:output <- [DW_OP_plus_uconst 280] [$sp+0]
	@DEBUG_VALUE: mbedtls_pkcs5_pbes2:pbe_params <- [DW_OP_LLVM_entry_value 1] $r0
	@DEBUG_VALUE: mbedtls_pkcs5_pbes2:olen <- 0
	.loc	1 166 50 is_stmt 1              @ ../../../ThirdParty/mbedTLS/library/pkcs5.c:166:50
	adds	r7, r5, r0
.Ltmp39:
	subs	r7, #128
	.loc	1 166 9 is_stmt 0               @ ../../../ThirdParty/mbedTLS/library/pkcs5.c:166:9
	b	.LBB0_4
.Ltmp40:
.LBB0_13:
	@DEBUG_VALUE: mbedtls_pkcs5_pbes2:mode <- [DW_OP_plus_uconst 20] [$sp+0]
	@DEBUG_VALUE: mbedtls_pkcs5_pbes2:pwdlen <- [DW_OP_plus_uconst 24] [$sp+0]
	@DEBUG_VALUE: mbedtls_pkcs5_pbes2:ret <- $r7
	@DEBUG_VALUE: mbedtls_pkcs5_pbes2:pwd <- $r6
	@DEBUG_VALUE: mbedtls_pkcs5_pbes2:end <- $r4
	@DEBUG_VALUE: mbedtls_pkcs5_pbes2:md_info <- $r0
	@DEBUG_VALUE: mbedtls_pkcs5_pbes2:keylen <- [DW_OP_plus_uconst 244, DW_OP_deref] $sp
	@DEBUG_VALUE: mbedtls_pkcs5_pbes2:iterations <- [DW_OP_plus_uconst 248, DW_OP_deref] $sp
	@DEBUG_VALUE: mbedtls_pkcs5_pbes2:p <- [DW_OP_plus_uconst 240, DW_OP_deref] $sp
	@DEBUG_VALUE: mbedtls_pkcs5_pbes2:data <- [DW_OP_plus_uconst 272] [$sp+0]
	@DEBUG_VALUE: mbedtls_pkcs5_pbes2:datalen <- [DW_OP_plus_uconst 276] [$sp+0]
	@DEBUG_VALUE: mbedtls_pkcs5_pbes2:output <- [DW_OP_plus_uconst 280] [$sp+0]
	@DEBUG_VALUE: mbedtls_pkcs5_pbes2:pbe_params <- [DW_OP_LLVM_entry_value 1] $r0
	@DEBUG_VALUE: mbedtls_pkcs5_pbes2:olen <- 0
	.loc	1 0 0                           @ ../../../ThirdParty/mbedTLS/library/pkcs5.c:0:0
	mov	r7, r5
.Ltmp41:
	b	.LBB0_4
.Ltmp42:
.LBB0_14:
	@DEBUG_VALUE: mbedtls_pkcs5_pbes2:mode <- [DW_OP_plus_uconst 20] [$sp+0]
	@DEBUG_VALUE: mbedtls_pkcs5_pbes2:pwdlen <- [DW_OP_plus_uconst 24] [$sp+0]
	@DEBUG_VALUE: mbedtls_pkcs5_pbes2:md_info <- $r7
	@DEBUG_VALUE: mbedtls_pkcs5_pbes2:pwd <- $r6
	@DEBUG_VALUE: mbedtls_pkcs5_pbes2:end <- $r4
	@DEBUG_VALUE: mbedtls_pkcs5_pbes2:ret <- $r0
	@DEBUG_VALUE: mbedtls_pkcs5_pbes2:keylen <- [DW_OP_plus_uconst 244, DW_OP_deref] $sp
	@DEBUG_VALUE: mbedtls_pkcs5_pbes2:iterations <- [DW_OP_plus_uconst 248, DW_OP_deref] $sp
	@DEBUG_VALUE: mbedtls_pkcs5_pbes2:p <- [DW_OP_plus_uconst 240, DW_OP_deref] $sp
	@DEBUG_VALUE: mbedtls_pkcs5_pbes2:data <- [DW_OP_plus_uconst 272] [$sp+0]
	@DEBUG_VALUE: mbedtls_pkcs5_pbes2:datalen <- [DW_OP_plus_uconst 276] [$sp+0]
	@DEBUG_VALUE: mbedtls_pkcs5_pbes2:output <- [DW_OP_plus_uconst 280] [$sp+0]
	@DEBUG_VALUE: mbedtls_pkcs5_pbes2:pbe_params <- [DW_OP_LLVM_entry_value 1] $r0
	@DEBUG_VALUE: mbedtls_pkcs5_pbes2:olen <- 0
	@DEBUG_VALUE: mbedtls_pkcs5_pbes2:cipher_alg <- [DW_OP_plus_uconst 92, DW_OP_deref] $sp
	add	r0, sp, #216
.Ltmp43:
	add	r1, sp, #92
.Ltmp44:
	.loc	1 169 9 is_stmt 1               @ ../../../ThirdParty/mbedTLS/library/pkcs5.c:169:9
	bl	mbedtls_oid_get_cipher_alg
.Ltmp45:
	.loc	1 169 9 is_stmt 0               @ ../../../ThirdParty/mbedTLS/library/pkcs5.c:169:9
	cbz	r0, .LBB0_16
.Ltmp46:
@ %bb.15:
	@DEBUG_VALUE: mbedtls_pkcs5_pbes2:mode <- [DW_OP_plus_uconst 20] [$sp+0]
	@DEBUG_VALUE: mbedtls_pkcs5_pbes2:pwdlen <- [DW_OP_plus_uconst 24] [$sp+0]
	@DEBUG_VALUE: mbedtls_pkcs5_pbes2:md_info <- $r7
	@DEBUG_VALUE: mbedtls_pkcs5_pbes2:pwd <- $r6
	@DEBUG_VALUE: mbedtls_pkcs5_pbes2:end <- $r4
	@DEBUG_VALUE: mbedtls_pkcs5_pbes2:cipher_alg <- [DW_OP_plus_uconst 92, DW_OP_deref] $sp
	@DEBUG_VALUE: mbedtls_pkcs5_pbes2:keylen <- [DW_OP_plus_uconst 244, DW_OP_deref] $sp
	@DEBUG_VALUE: mbedtls_pkcs5_pbes2:iterations <- [DW_OP_plus_uconst 248, DW_OP_deref] $sp
	@DEBUG_VALUE: mbedtls_pkcs5_pbes2:p <- [DW_OP_plus_uconst 240, DW_OP_deref] $sp
	@DEBUG_VALUE: mbedtls_pkcs5_pbes2:data <- [DW_OP_plus_uconst 272] [$sp+0]
	@DEBUG_VALUE: mbedtls_pkcs5_pbes2:datalen <- [DW_OP_plus_uconst 276] [$sp+0]
	@DEBUG_VALUE: mbedtls_pkcs5_pbes2:output <- [DW_OP_plus_uconst 280] [$sp+0]
	@DEBUG_VALUE: mbedtls_pkcs5_pbes2:pbe_params <- [DW_OP_LLVM_entry_value 1] $r0
	@DEBUG_VALUE: mbedtls_pkcs5_pbes2:olen <- 0
	.loc	1 0 0                           @ ../../../ThirdParty/mbedTLS/library/pkcs5.c:0:0
	mov	r7, r5
.Ltmp47:
	b	.LBB0_4
.Ltmp48:
.LBB0_16:
	@DEBUG_VALUE: mbedtls_pkcs5_pbes2:mode <- [DW_OP_plus_uconst 20] [$sp+0]
	@DEBUG_VALUE: mbedtls_pkcs5_pbes2:pwdlen <- [DW_OP_plus_uconst 24] [$sp+0]
	@DEBUG_VALUE: mbedtls_pkcs5_pbes2:md_info <- $r7
	@DEBUG_VALUE: mbedtls_pkcs5_pbes2:pwd <- $r6
	@DEBUG_VALUE: mbedtls_pkcs5_pbes2:end <- $r4
	@DEBUG_VALUE: mbedtls_pkcs5_pbes2:cipher_alg <- [DW_OP_plus_uconst 92, DW_OP_deref] $sp
	@DEBUG_VALUE: mbedtls_pkcs5_pbes2:keylen <- [DW_OP_plus_uconst 244, DW_OP_deref] $sp
	@DEBUG_VALUE: mbedtls_pkcs5_pbes2:iterations <- [DW_OP_plus_uconst 248, DW_OP_deref] $sp
	@DEBUG_VALUE: mbedtls_pkcs5_pbes2:p <- [DW_OP_plus_uconst 240, DW_OP_deref] $sp
	@DEBUG_VALUE: mbedtls_pkcs5_pbes2:data <- [DW_OP_plus_uconst 272] [$sp+0]
	@DEBUG_VALUE: mbedtls_pkcs5_pbes2:datalen <- [DW_OP_plus_uconst 276] [$sp+0]
	@DEBUG_VALUE: mbedtls_pkcs5_pbes2:output <- [DW_OP_plus_uconst 280] [$sp+0]
	@DEBUG_VALUE: mbedtls_pkcs5_pbes2:pbe_params <- [DW_OP_LLVM_entry_value 1] $r0
	@DEBUG_VALUE: mbedtls_pkcs5_pbes2:olen <- 0
	add	r0, sp, #92
	.loc	1 172 50 is_stmt 1              @ ../../../ThirdParty/mbedTLS/library/pkcs5.c:172:50
	ldrb	r0, [r0]
.Ltmp49:
	@DEBUG_VALUE: mbedtls_pkcs5_pbes2:cipher_alg <- undef
	.loc	1 172 19 is_stmt 0              @ ../../../ThirdParty/mbedTLS/library/pkcs5.c:172:19
	bl	mbedtls_cipher_info_from_type
.Ltmp50:
	@DEBUG_VALUE: mbedtls_pkcs5_pbes2:cipher_info <- $r0
	.loc	1 173 9 is_stmt 1               @ ../../../ThirdParty/mbedTLS/library/pkcs5.c:173:9
	cmp	r0, #0
	beq	.LBB0_25
.Ltmp51:
@ %bb.17:
	@DEBUG_VALUE: mbedtls_pkcs5_pbes2:mode <- [DW_OP_plus_uconst 20] [$sp+0]
	@DEBUG_VALUE: mbedtls_pkcs5_pbes2:pwdlen <- [DW_OP_plus_uconst 24] [$sp+0]
	@DEBUG_VALUE: mbedtls_pkcs5_pbes2:md_info <- $r7
	@DEBUG_VALUE: mbedtls_pkcs5_pbes2:pwd <- $r6
	@DEBUG_VALUE: mbedtls_pkcs5_pbes2:end <- $r4
	@DEBUG_VALUE: mbedtls_pkcs5_pbes2:cipher_info <- $r0
	@DEBUG_VALUE: mbedtls_pkcs5_pbes2:keylen <- [DW_OP_plus_uconst 244, DW_OP_deref] $sp
	@DEBUG_VALUE: mbedtls_pkcs5_pbes2:iterations <- [DW_OP_plus_uconst 248, DW_OP_deref] $sp
	@DEBUG_VALUE: mbedtls_pkcs5_pbes2:p <- [DW_OP_plus_uconst 240, DW_OP_deref] $sp
	@DEBUG_VALUE: mbedtls_pkcs5_pbes2:data <- [DW_OP_plus_uconst 272] [$sp+0]
	@DEBUG_VALUE: mbedtls_pkcs5_pbes2:datalen <- [DW_OP_plus_uconst 276] [$sp+0]
	@DEBUG_VALUE: mbedtls_pkcs5_pbes2:output <- [DW_OP_plus_uconst 280] [$sp+0]
	@DEBUG_VALUE: mbedtls_pkcs5_pbes2:pbe_params <- [DW_OP_LLVM_entry_value 1] $r0
	@DEBUG_VALUE: mbedtls_pkcs5_pbes2:olen <- 0
	.loc	1 180 27                        @ ../../../ThirdParty/mbedTLS/library/pkcs5.c:180:27
	ldr	r1, [r0, #4]
	.loc	1 180 38 is_stmt 0              @ ../../../ThirdParty/mbedTLS/library/pkcs5.c:180:38
	lsrs	r1, r1, #3
.Ltmp52:
	@DEBUG_VALUE: mbedtls_pkcs5_pbes2:keylen <- $r1
	.loc	1 180 12                        @ ../../../ThirdParty/mbedTLS/library/pkcs5.c:180:12
	str	r1, [sp, #244]
	.loc	1 0 0                           @ ../../../ThirdParty/mbedTLS/library/pkcs5.c:0:0
	subs	r5, #128
.Ltmp53:
	.loc	1 182 27 is_stmt 1              @ ../../../ThirdParty/mbedTLS/library/pkcs5.c:182:27
	ldr	r1, [sp, #192]
.Ltmp54:
	.loc	1 182 60 is_stmt 0              @ ../../../ThirdParty/mbedTLS/library/pkcs5.c:182:60
	cmp	r1, #4
	bne	.LBB0_26
.Ltmp55:
@ %bb.18:
	@DEBUG_VALUE: mbedtls_pkcs5_pbes2:mode <- [DW_OP_plus_uconst 20] [$sp+0]
	@DEBUG_VALUE: mbedtls_pkcs5_pbes2:pwdlen <- [DW_OP_plus_uconst 24] [$sp+0]
	@DEBUG_VALUE: mbedtls_pkcs5_pbes2:md_info <- $r7
	@DEBUG_VALUE: mbedtls_pkcs5_pbes2:pwd <- $r6
	@DEBUG_VALUE: mbedtls_pkcs5_pbes2:end <- $r4
	@DEBUG_VALUE: mbedtls_pkcs5_pbes2:cipher_info <- $r0
	@DEBUG_VALUE: mbedtls_pkcs5_pbes2:iterations <- [DW_OP_plus_uconst 248, DW_OP_deref] $sp
	@DEBUG_VALUE: mbedtls_pkcs5_pbes2:p <- [DW_OP_plus_uconst 240, DW_OP_deref] $sp
	@DEBUG_VALUE: mbedtls_pkcs5_pbes2:data <- [DW_OP_plus_uconst 272] [$sp+0]
	@DEBUG_VALUE: mbedtls_pkcs5_pbes2:datalen <- [DW_OP_plus_uconst 276] [$sp+0]
	@DEBUG_VALUE: mbedtls_pkcs5_pbes2:output <- [DW_OP_plus_uconst 280] [$sp+0]
	@DEBUG_VALUE: mbedtls_pkcs5_pbes2:pbe_params <- [DW_OP_LLVM_entry_value 1] $r0
	@DEBUG_VALUE: mbedtls_pkcs5_pbes2:olen <- 0
	.loc	1 0 60                          @ ../../../ThirdParty/mbedTLS/library/pkcs5.c:0:60
	str	r7, [sp, #16]                   @ 4-byte Spill
.Ltmp56:
	@DEBUG_VALUE: mbedtls_pkcs5_pbes2:md_info <- [DW_OP_plus_uconst 16] [$sp+0]
	.loc	1 183 51 is_stmt 1              @ ../../../ThirdParty/mbedTLS/library/pkcs5.c:183:51
	ldr	r2, [r0, #12]
	.loc	1 183 31 is_stmt 0              @ ../../../ThirdParty/mbedTLS/library/pkcs5.c:183:31
	ldr	r1, [sp, #196]
.Ltmp57:
	.loc	1 182 9 is_stmt 1               @ ../../../ThirdParty/mbedTLS/library/pkcs5.c:182:9
	cmp	r1, r2
	.loc	1 0 0 is_stmt 0                 @ ../../../ThirdParty/mbedTLS/library/pkcs5.c:0:0
	mov	r7, r5
	.loc	1 182 9                         @ ../../../ThirdParty/mbedTLS/library/pkcs5.c:182:9
	bne	.LBB0_4
.Ltmp58:
@ %bb.19:
	@DEBUG_VALUE: mbedtls_pkcs5_pbes2:md_info <- [DW_OP_plus_uconst 16] [$sp+0]
	@DEBUG_VALUE: mbedtls_pkcs5_pbes2:mode <- [DW_OP_plus_uconst 20] [$sp+0]
	@DEBUG_VALUE: mbedtls_pkcs5_pbes2:pwdlen <- [DW_OP_plus_uconst 24] [$sp+0]
	@DEBUG_VALUE: mbedtls_pkcs5_pbes2:pwd <- $r6
	@DEBUG_VALUE: mbedtls_pkcs5_pbes2:end <- $r4
	@DEBUG_VALUE: mbedtls_pkcs5_pbes2:cipher_info <- $r0
	@DEBUG_VALUE: mbedtls_pkcs5_pbes2:iterations <- [DW_OP_plus_uconst 248, DW_OP_deref] $sp
	@DEBUG_VALUE: mbedtls_pkcs5_pbes2:p <- [DW_OP_plus_uconst 240, DW_OP_deref] $sp
	@DEBUG_VALUE: mbedtls_pkcs5_pbes2:data <- [DW_OP_plus_uconst 272] [$sp+0]
	@DEBUG_VALUE: mbedtls_pkcs5_pbes2:datalen <- [DW_OP_plus_uconst 276] [$sp+0]
	@DEBUG_VALUE: mbedtls_pkcs5_pbes2:output <- [DW_OP_plus_uconst 280] [$sp+0]
	@DEBUG_VALUE: mbedtls_pkcs5_pbes2:pbe_params <- [DW_OP_LLVM_entry_value 1] $r0
	@DEBUG_VALUE: mbedtls_pkcs5_pbes2:olen <- 0
	.loc	1 0 9                           @ ../../../ThirdParty/mbedTLS/library/pkcs5.c:0:9
	mov	r5, r0
.Ltmp59:
	@DEBUG_VALUE: mbedtls_pkcs5_pbes2:cipher_info <- $r5
	add	r4, sp, #96
.Ltmp60:
	.loc	1 188 5 is_stmt 1               @ ../../../ThirdParty/mbedTLS/library/pkcs5.c:188:5
	mov	r0, r4
	bl	mbedtls_md_init
	add	r0, sp, #28
	.loc	1 189 5                         @ ../../../ThirdParty/mbedTLS/library/pkcs5.c:189:5
	bl	mbedtls_cipher_init
	.loc	1 191 56                        @ ../../../ThirdParty/mbedTLS/library/pkcs5.c:191:56
	ldr	r2, [sp, #196]
	.loc	1 191 35 is_stmt 0              @ ../../../ThirdParty/mbedTLS/library/pkcs5.c:191:35
	ldr	r1, [sp, #200]
	add	r0, sp, #112
	.loc	1 191 5                         @ ../../../ThirdParty/mbedTLS/library/pkcs5.c:191:5
	bl	__aeabi_memcpy
	movs	r2, #1
.Ltmp61:
	.loc	1 193 17 is_stmt 1              @ ../../../ThirdParty/mbedTLS/library/pkcs5.c:193:17
	mov	r0, r4
	ldr	r1, [sp, #16]                   @ 4-byte Reload
.Ltmp62:
	@DEBUG_VALUE: mbedtls_pkcs5_pbes2:md_info <- $r1
	bl	mbedtls_md_setup
.Ltmp63:
	mov	r7, r0
.Ltmp64:
	@DEBUG_VALUE: mbedtls_pkcs5_pbes2:ret <- $r7
	.loc	1 193 9 is_stmt 0               @ ../../../ThirdParty/mbedTLS/library/pkcs5.c:193:9
	cbnz	r0, .LBB0_28
.Ltmp65:
@ %bb.20:
	@DEBUG_VALUE: mbedtls_pkcs5_pbes2:mode <- [DW_OP_plus_uconst 20] [$sp+0]
	@DEBUG_VALUE: mbedtls_pkcs5_pbes2:pwdlen <- [DW_OP_plus_uconst 24] [$sp+0]
	@DEBUG_VALUE: mbedtls_pkcs5_pbes2:ret <- $r7
	@DEBUG_VALUE: mbedtls_pkcs5_pbes2:pwd <- $r6
	@DEBUG_VALUE: mbedtls_pkcs5_pbes2:cipher_info <- $r5
	@DEBUG_VALUE: mbedtls_pkcs5_pbes2:iterations <- [DW_OP_plus_uconst 248, DW_OP_deref] $sp
	@DEBUG_VALUE: mbedtls_pkcs5_pbes2:p <- [DW_OP_plus_uconst 240, DW_OP_deref] $sp
	@DEBUG_VALUE: mbedtls_pkcs5_pbes2:data <- [DW_OP_plus_uconst 272] [$sp+0]
	@DEBUG_VALUE: mbedtls_pkcs5_pbes2:datalen <- [DW_OP_plus_uconst 276] [$sp+0]
	@DEBUG_VALUE: mbedtls_pkcs5_pbes2:output <- [DW_OP_plus_uconst 280] [$sp+0]
	@DEBUG_VALUE: mbedtls_pkcs5_pbes2:pbe_params <- [DW_OP_LLVM_entry_value 1] $r0
	@DEBUG_VALUE: mbedtls_pkcs5_pbes2:olen <- 0
	.loc	1 196 71 is_stmt 1              @ ../../../ThirdParty/mbedTLS/library/pkcs5.c:196:71
	ldr	r3, [sp, #188]
	.loc	1 196 79 is_stmt 0              @ ../../../ThirdParty/mbedTLS/library/pkcs5.c:196:79
	ldr	r0, [sp, #184]
	.loc	1 197 44 is_stmt 1              @ ../../../ThirdParty/mbedTLS/library/pkcs5.c:197:44
	ldr	r1, [sp, #248]
.Ltmp66:
	@DEBUG_VALUE: mbedtls_pkcs5_pbes2:iterations <- $r1
	.loc	1 197 56 is_stmt 0              @ ../../../ThirdParty/mbedTLS/library/pkcs5.c:197:56
	ldr	r2, [sp, #244]
.Ltmp67:
	@DEBUG_VALUE: mbedtls_pkcs5_pbes2:keylen <- $r2
	.loc	1 0 56                          @ ../../../ThirdParty/mbedTLS/library/pkcs5.c:0:56
	add	r4, sp, #144
	.loc	1 196 17 is_stmt 1              @ ../../../ThirdParty/mbedTLS/library/pkcs5.c:196:17
	add	r7, sp, #0
.Ltmp68:
	stm	r7!, {r0, r1, r2, r4}
	add	r0, sp, #96
	mov	r1, r6
.Ltmp69:
	ldr	r2, [sp, #24]                   @ 4-byte Reload
.Ltmp70:
	@DEBUG_VALUE: mbedtls_pkcs5_pbes2:pwdlen <- $r2
	bl	mbedtls_pkcs5_pbkdf2_hmac
.Ltmp71:
	@DEBUG_VALUE: mbedtls_pkcs5_pbes2:pwdlen <- [DW_OP_LLVM_entry_value 1] $r3
	mov	r7, r0
.Ltmp72:
	@DEBUG_VALUE: mbedtls_pkcs5_pbes2:ret <- $r7
	.loc	1 196 9 is_stmt 0               @ ../../../ThirdParty/mbedTLS/library/pkcs5.c:196:9
	cbnz	r0, .LBB0_28
.Ltmp73:
@ %bb.21:
	@DEBUG_VALUE: mbedtls_pkcs5_pbes2:mode <- [DW_OP_plus_uconst 20] [$sp+0]
	@DEBUG_VALUE: mbedtls_pkcs5_pbes2:ret <- $r7
	@DEBUG_VALUE: mbedtls_pkcs5_pbes2:pwd <- $r6
	@DEBUG_VALUE: mbedtls_pkcs5_pbes2:cipher_info <- $r5
	@DEBUG_VALUE: mbedtls_pkcs5_pbes2:p <- [DW_OP_plus_uconst 240, DW_OP_deref] $sp
	@DEBUG_VALUE: mbedtls_pkcs5_pbes2:data <- [DW_OP_plus_uconst 272] [$sp+0]
	@DEBUG_VALUE: mbedtls_pkcs5_pbes2:datalen <- [DW_OP_plus_uconst 276] [$sp+0]
	@DEBUG_VALUE: mbedtls_pkcs5_pbes2:output <- [DW_OP_plus_uconst 280] [$sp+0]
	@DEBUG_VALUE: mbedtls_pkcs5_pbes2:pwdlen <- [DW_OP_LLVM_entry_value 1] $r3
	@DEBUG_VALUE: mbedtls_pkcs5_pbes2:pbe_params <- [DW_OP_LLVM_entry_value 1] $r0
	@DEBUG_VALUE: mbedtls_pkcs5_pbes2:olen <- 0
	.loc	1 0 9                           @ ../../../ThirdParty/mbedTLS/library/pkcs5.c:0:9
	add	r0, sp, #28
.Ltmp74:
	.loc	1 202 17 is_stmt 1              @ ../../../ThirdParty/mbedTLS/library/pkcs5.c:202:17
	mov	r1, r5
	bl	mbedtls_cipher_setup
	mov	r7, r0
.Ltmp75:
	@DEBUG_VALUE: mbedtls_pkcs5_pbes2:ret <- $r7
	.loc	1 202 9 is_stmt 0               @ ../../../ThirdParty/mbedTLS/library/pkcs5.c:202:9
	cbnz	r0, .LBB0_28
.Ltmp76:
@ %bb.22:
	@DEBUG_VALUE: mbedtls_pkcs5_pbes2:mode <- [DW_OP_plus_uconst 20] [$sp+0]
	@DEBUG_VALUE: mbedtls_pkcs5_pbes2:ret <- $r7
	@DEBUG_VALUE: mbedtls_pkcs5_pbes2:pwd <- $r6
	@DEBUG_VALUE: mbedtls_pkcs5_pbes2:cipher_info <- $r5
	@DEBUG_VALUE: mbedtls_pkcs5_pbes2:p <- [DW_OP_plus_uconst 240, DW_OP_deref] $sp
	@DEBUG_VALUE: mbedtls_pkcs5_pbes2:data <- [DW_OP_plus_uconst 272] [$sp+0]
	@DEBUG_VALUE: mbedtls_pkcs5_pbes2:datalen <- [DW_OP_plus_uconst 276] [$sp+0]
	@DEBUG_VALUE: mbedtls_pkcs5_pbes2:output <- [DW_OP_plus_uconst 280] [$sp+0]
	@DEBUG_VALUE: mbedtls_pkcs5_pbes2:pwdlen <- [DW_OP_LLVM_entry_value 1] $r3
	@DEBUG_VALUE: mbedtls_pkcs5_pbes2:pbe_params <- [DW_OP_LLVM_entry_value 1] $r0
	@DEBUG_VALUE: mbedtls_pkcs5_pbes2:olen <- 0
	.loc	1 205 62 is_stmt 1              @ ../../../ThirdParty/mbedTLS/library/pkcs5.c:205:62
	ldr	r0, [sp, #244]
.Ltmp77:
	@DEBUG_VALUE: mbedtls_pkcs5_pbes2:keylen <- $r0
	.loc	1 205 60 is_stmt 0              @ ../../../ThirdParty/mbedTLS/library/pkcs5.c:205:60
	lsls	r2, r0, #3
	.loc	1 205 17                        @ ../../../ThirdParty/mbedTLS/library/pkcs5.c:205:17
	ldr	r0, [sp, #20]                   @ 4-byte Reload
.Ltmp78:
	@DEBUG_VALUE: mbedtls_pkcs5_pbes2:mode <- $r0
	sxtb	r3, r0
	add	r0, sp, #28
.Ltmp79:
	.loc	1 0 17                          @ ../../../ThirdParty/mbedTLS/library/pkcs5.c:0:17
	add	r1, sp, #144
	.loc	1 205 17                        @ ../../../ThirdParty/mbedTLS/library/pkcs5.c:205:17
	bl	mbedtls_cipher_setkey
	mov	r7, r0
.Ltmp80:
	@DEBUG_VALUE: mbedtls_pkcs5_pbes2:ret <- $r7
	.loc	1 205 9                         @ ../../../ThirdParty/mbedTLS/library/pkcs5.c:205:9
	cbnz	r0, .LBB0_28
.Ltmp81:
@ %bb.23:
	@DEBUG_VALUE: mbedtls_pkcs5_pbes2:ret <- $r7
	@DEBUG_VALUE: mbedtls_pkcs5_pbes2:pwd <- $r6
	@DEBUG_VALUE: mbedtls_pkcs5_pbes2:cipher_info <- $r5
	@DEBUG_VALUE: mbedtls_pkcs5_pbes2:p <- [DW_OP_plus_uconst 240, DW_OP_deref] $sp
	@DEBUG_VALUE: mbedtls_pkcs5_pbes2:data <- [DW_OP_plus_uconst 272] [$sp+0]
	@DEBUG_VALUE: mbedtls_pkcs5_pbes2:datalen <- [DW_OP_plus_uconst 276] [$sp+0]
	@DEBUG_VALUE: mbedtls_pkcs5_pbes2:output <- [DW_OP_plus_uconst 280] [$sp+0]
	@DEBUG_VALUE: mbedtls_pkcs5_pbes2:pwdlen <- [DW_OP_LLVM_entry_value 1] $r3
	@DEBUG_VALUE: mbedtls_pkcs5_pbes2:pbe_params <- [DW_OP_LLVM_entry_value 1] $r0
	@DEBUG_VALUE: mbedtls_pkcs5_pbes2:olen <- 0
	.loc	1 0 9                           @ ../../../ThirdParty/mbedTLS/library/pkcs5.c:0:9
	ldr	r0, [sp, #280]
	ldr	r1, [sp, #276]
	ldr	r3, [sp, #272]
.Ltmp82:
	.loc	1 208 74 is_stmt 1              @ ../../../ThirdParty/mbedTLS/library/pkcs5.c:208:74
	ldr	r2, [sp, #196]
.Ltmp83:
	@DEBUG_VALUE: mbedtls_pkcs5_pbes2:olen <- [DW_OP_plus_uconst 108, DW_OP_deref] $sp
	.loc	1 0 74 is_stmt 0                @ ../../../ThirdParty/mbedTLS/library/pkcs5.c:0:74
	add	r4, sp, #108
	.loc	1 208 17                        @ ../../../ThirdParty/mbedTLS/library/pkcs5.c:208:17
	str	r1, [sp]
	str	r0, [sp, #4]
	str	r4, [sp, #8]
	add	r0, sp, #28
	add	r1, sp, #112
	bl	mbedtls_cipher_crypt
.Ltmp84:
	@DEBUG_VALUE: mbedtls_pkcs5_pbes2:ret <- $r0
	.loc	1 208 9                         @ ../../../ThirdParty/mbedTLS/library/pkcs5.c:208:9
	cbnz	r0, .LBB0_27
.Ltmp85:
@ %bb.24:
	@DEBUG_VALUE: mbedtls_pkcs5_pbes2:pwd <- $r6
	@DEBUG_VALUE: mbedtls_pkcs5_pbes2:cipher_info <- $r5
	@DEBUG_VALUE: mbedtls_pkcs5_pbes2:ret <- $r0
	@DEBUG_VALUE: mbedtls_pkcs5_pbes2:olen <- [DW_OP_plus_uconst 108, DW_OP_deref] $sp
	@DEBUG_VALUE: mbedtls_pkcs5_pbes2:p <- [DW_OP_plus_uconst 240, DW_OP_deref] $sp
	@DEBUG_VALUE: mbedtls_pkcs5_pbes2:data <- [DW_OP_plus_uconst 272] [$sp+0]
	@DEBUG_VALUE: mbedtls_pkcs5_pbes2:datalen <- [DW_OP_plus_uconst 276] [$sp+0]
	@DEBUG_VALUE: mbedtls_pkcs5_pbes2:output <- [DW_OP_plus_uconst 280] [$sp+0]
	@DEBUG_VALUE: mbedtls_pkcs5_pbes2:pwdlen <- [DW_OP_LLVM_entry_value 1] $r3
	@DEBUG_VALUE: mbedtls_pkcs5_pbes2:pbe_params <- [DW_OP_LLVM_entry_value 1] $r0
	.loc	1 0 9                           @ ../../../ThirdParty/mbedTLS/library/pkcs5.c:0:9
	mov	r7, r0
.Ltmp86:
	@DEBUG_VALUE: mbedtls_pkcs5_pbes2:ret <- $r7
	@DEBUG_VALUE: mbedtls_pkcs5_pbes2:ret <- $r7
	b	.LBB0_28
.Ltmp87:
.LBB0_25:
	@DEBUG_VALUE: mbedtls_pkcs5_pbes2:mode <- [DW_OP_plus_uconst 20] [$sp+0]
	@DEBUG_VALUE: mbedtls_pkcs5_pbes2:pwdlen <- [DW_OP_plus_uconst 24] [$sp+0]
	@DEBUG_VALUE: mbedtls_pkcs5_pbes2:md_info <- $r7
	@DEBUG_VALUE: mbedtls_pkcs5_pbes2:pwd <- $r6
	@DEBUG_VALUE: mbedtls_pkcs5_pbes2:end <- $r4
	@DEBUG_VALUE: mbedtls_pkcs5_pbes2:cipher_info <- $r0
	@DEBUG_VALUE: mbedtls_pkcs5_pbes2:keylen <- [DW_OP_plus_uconst 244, DW_OP_deref] $sp
	@DEBUG_VALUE: mbedtls_pkcs5_pbes2:iterations <- [DW_OP_plus_uconst 248, DW_OP_deref] $sp
	@DEBUG_VALUE: mbedtls_pkcs5_pbes2:p <- [DW_OP_plus_uconst 240, DW_OP_deref] $sp
	@DEBUG_VALUE: mbedtls_pkcs5_pbes2:data <- [DW_OP_plus_uconst 272] [$sp+0]
	@DEBUG_VALUE: mbedtls_pkcs5_pbes2:datalen <- [DW_OP_plus_uconst 276] [$sp+0]
	@DEBUG_VALUE: mbedtls_pkcs5_pbes2:output <- [DW_OP_plus_uconst 280] [$sp+0]
	@DEBUG_VALUE: mbedtls_pkcs5_pbes2:pbe_params <- [DW_OP_LLVM_entry_value 1] $r0
	@DEBUG_VALUE: mbedtls_pkcs5_pbes2:olen <- 0
	mov	r7, r5
.Ltmp88:
	b	.LBB0_4
.Ltmp89:
.LBB0_26:
	@DEBUG_VALUE: mbedtls_pkcs5_pbes2:mode <- [DW_OP_plus_uconst 20] [$sp+0]
	@DEBUG_VALUE: mbedtls_pkcs5_pbes2:pwdlen <- [DW_OP_plus_uconst 24] [$sp+0]
	@DEBUG_VALUE: mbedtls_pkcs5_pbes2:md_info <- $r7
	@DEBUG_VALUE: mbedtls_pkcs5_pbes2:pwd <- $r6
	@DEBUG_VALUE: mbedtls_pkcs5_pbes2:end <- $r4
	@DEBUG_VALUE: mbedtls_pkcs5_pbes2:cipher_info <- $r0
	@DEBUG_VALUE: mbedtls_pkcs5_pbes2:iterations <- [DW_OP_plus_uconst 248, DW_OP_deref] $sp
	@DEBUG_VALUE: mbedtls_pkcs5_pbes2:p <- [DW_OP_plus_uconst 240, DW_OP_deref] $sp
	@DEBUG_VALUE: mbedtls_pkcs5_pbes2:data <- [DW_OP_plus_uconst 272] [$sp+0]
	@DEBUG_VALUE: mbedtls_pkcs5_pbes2:datalen <- [DW_OP_plus_uconst 276] [$sp+0]
	@DEBUG_VALUE: mbedtls_pkcs5_pbes2:output <- [DW_OP_plus_uconst 280] [$sp+0]
	@DEBUG_VALUE: mbedtls_pkcs5_pbes2:pbe_params <- [DW_OP_LLVM_entry_value 1] $r0
	@DEBUG_VALUE: mbedtls_pkcs5_pbes2:olen <- 0
	mov	r7, r5
.Ltmp90:
	b	.LBB0_4
.Ltmp91:
.LBB0_27:
	@DEBUG_VALUE: mbedtls_pkcs5_pbes2:pwd <- $r6
	@DEBUG_VALUE: mbedtls_pkcs5_pbes2:cipher_info <- $r5
	@DEBUG_VALUE: mbedtls_pkcs5_pbes2:ret <- $r0
	@DEBUG_VALUE: mbedtls_pkcs5_pbes2:olen <- [DW_OP_plus_uconst 108, DW_OP_deref] $sp
	@DEBUG_VALUE: mbedtls_pkcs5_pbes2:p <- [DW_OP_plus_uconst 240, DW_OP_deref] $sp
	@DEBUG_VALUE: mbedtls_pkcs5_pbes2:data <- [DW_OP_plus_uconst 272] [$sp+0]
	@DEBUG_VALUE: mbedtls_pkcs5_pbes2:datalen <- [DW_OP_plus_uconst 276] [$sp+0]
	@DEBUG_VALUE: mbedtls_pkcs5_pbes2:output <- [DW_OP_plus_uconst 280] [$sp+0]
	@DEBUG_VALUE: mbedtls_pkcs5_pbes2:pwdlen <- [DW_OP_LLVM_entry_value 1] $r3
	@DEBUG_VALUE: mbedtls_pkcs5_pbes2:pbe_params <- [DW_OP_LLVM_entry_value 1] $r0
	ldr	r7, __arm_cp.0_2
.Ltmp92:
	@DEBUG_VALUE: mbedtls_pkcs5_pbes2:ret <- $r7
.LBB0_28:
	@DEBUG_VALUE: mbedtls_pkcs5_pbes2:ret <- $r7
	@DEBUG_VALUE: mbedtls_pkcs5_pbes2:pwd <- $r6
	@DEBUG_VALUE: mbedtls_pkcs5_pbes2:cipher_info <- $r5
	@DEBUG_VALUE: mbedtls_pkcs5_pbes2:p <- [DW_OP_plus_uconst 240, DW_OP_deref] $sp
	@DEBUG_VALUE: mbedtls_pkcs5_pbes2:data <- [DW_OP_plus_uconst 272] [$sp+0]
	@DEBUG_VALUE: mbedtls_pkcs5_pbes2:datalen <- [DW_OP_plus_uconst 276] [$sp+0]
	@DEBUG_VALUE: mbedtls_pkcs5_pbes2:output <- [DW_OP_plus_uconst 280] [$sp+0]
	@DEBUG_VALUE: mbedtls_pkcs5_pbes2:pbe_params <- [DW_OP_LLVM_entry_value 1] $r0
	@DEBUG_VALUE: mbedtls_pkcs5_pbes2:ret <- $r7
	@DEBUG_LABEL: mbedtls_pkcs5_pbes2:exit
	add	r0, sp, #96
	.loc	1 213 5 is_stmt 1               @ ../../../ThirdParty/mbedTLS/library/pkcs5.c:213:5
	bl	mbedtls_md_free
	add	r0, sp, #28
	.loc	1 214 5                         @ ../../../ThirdParty/mbedTLS/library/pkcs5.c:214:5
	bl	mbedtls_cipher_free
	b	.LBB0_4
.Ltmp93:
	.p2align	2
@ %bb.29:
	.loc	1 0 5 is_stmt 0                 @ ../../../ThirdParty/mbedTLS/library/pkcs5.c:0:5
__arm_cp.0_0:
	.long	4294955392                      @ 0xffffd180
.Lcpi_end0:
	.size	__arm_cp.0_0, .Lcpi_end0-__arm_cp.0_0
.LCPI0_1:
.L.str:
	.asciz	"*\206H\206\367\r\001\005\f\000\000"
__arm_cp.0_2:
	.long	4294955520                      @ 0xffffd200
.Lcpi_end1:
	.size	__arm_cp.0_2, .Lcpi_end1-__arm_cp.0_2
.Lfunc_end0:
	.size	mbedtls_pkcs5_pbes2, .Lfunc_end0-mbedtls_pkcs5_pbes2
	.cfi_endproc
	.cantunwind
	.fnend
                                        @ -- End function
	.section	.text.pkcs5_parse_pbkdf2_params,"ax",%progbits
	.p2align	2                               @ -- Begin function pkcs5_parse_pbkdf2_params
	.type	pkcs5_parse_pbkdf2_params,%function
	.code	16                              @ @pkcs5_parse_pbkdf2_params
	.thumb_func
pkcs5_parse_pbkdf2_params:
.Lfunc_begin1:
	.loc	1 61 0 is_stmt 1                @ ../../../ThirdParty/mbedTLS/library/pkcs5.c:61:0
	.fnstart
	.cfi_startproc
@ %bb.0:
	@DEBUG_VALUE: pkcs5_parse_pbkdf2_params:params <- $r0
	@DEBUG_VALUE: pkcs5_parse_pbkdf2_params:salt <- $r1
	@DEBUG_VALUE: pkcs5_parse_pbkdf2_params:iterations <- $r2
	@DEBUG_VALUE: pkcs5_parse_pbkdf2_params:keylen <- $r3
	.save	{r4, r5, r6, r7, lr}
	push	{r4, r5, r6, r7, lr}
	.cfi_def_cfa_offset 20
	.cfi_offset lr, -4
	.cfi_offset r7, -8
	.cfi_offset r6, -12
	.cfi_offset r5, -16
	.cfi_offset r4, -20
	.pad	#20
	sub	sp, #20
	.cfi_def_cfa_offset 40
	mov	r6, r2
	mov	r7, r1
.Ltmp94:
	@DEBUG_VALUE: pkcs5_parse_pbkdf2_params:md_type <- [DW_OP_plus_uconst 40] [$sp+0]
	@DEBUG_VALUE: pkcs5_parse_pbkdf2_params:keylen <- $r3
	@DEBUG_VALUE: pkcs5_parse_pbkdf2_params:iterations <- $r6
	@DEBUG_VALUE: pkcs5_parse_pbkdf2_params:salt <- $r7
	@DEBUG_VALUE: pkcs5_parse_pbkdf2_params:params <- $r0
	.loc	1 64 32 prologue_end            @ ../../../ThirdParty/mbedTLS/library/pkcs5.c:64:32
	ldr	r1, [r0, #8]
.Ltmp95:
	@DEBUG_VALUE: pkcs5_parse_pbkdf2_params:p <- undef
	.loc	1 64 20 is_stmt 0               @ ../../../ThirdParty/mbedTLS/library/pkcs5.c:64:20
	str	r1, [sp, #4]
.Ltmp96:
	@DEBUG_VALUE: pkcs5_parse_pbkdf2_params:end <- undef
	.loc	1 0 20                          @ ../../../ThirdParty/mbedTLS/library/pkcs5.c:0:20
	ldr	r4, __arm_cp.1_0
.Ltmp97:
	.loc	1 67 17 is_stmt 1               @ ../../../ThirdParty/mbedTLS/library/pkcs5.c:67:17
	ldr	r2, [r0]
.Ltmp98:
	.loc	1 67 9 is_stmt 0                @ ../../../ThirdParty/mbedTLS/library/pkcs5.c:67:9
	cmp	r2, #48
	bne	.LBB1_3
.Ltmp99:
@ %bb.1:
	@DEBUG_VALUE: pkcs5_parse_pbkdf2_params:salt <- $r7
	@DEBUG_VALUE: pkcs5_parse_pbkdf2_params:iterations <- $r6
	@DEBUG_VALUE: pkcs5_parse_pbkdf2_params:keylen <- $r3
	@DEBUG_VALUE: pkcs5_parse_pbkdf2_params:params <- $r0
	@DEBUG_VALUE: pkcs5_parse_pbkdf2_params:md_type <- [DW_OP_plus_uconst 40] [$sp+0]
	.loc	1 0 9                           @ ../../../ThirdParty/mbedTLS/library/pkcs5.c:0:9
	str	r3, [sp]                        @ 4-byte Spill
.Ltmp100:
	@DEBUG_VALUE: pkcs5_parse_pbkdf2_params:keylen <- [$sp+0]
	ldr	r0, [r0, #4]
.Ltmp101:
	@DEBUG_VALUE: pkcs5_parse_pbkdf2_params:params <- [DW_OP_LLVM_entry_value 1] $r0
	adds	r5, r1, r0
.Ltmp102:
	@DEBUG_VALUE: pkcs5_parse_pbkdf2_params:end <- $r5
	@DEBUG_VALUE: pkcs5_parse_pbkdf2_params:p <- [DW_OP_plus_uconst 4, DW_OP_deref] $sp
	.loc	1 79 55 is_stmt 1               @ ../../../ThirdParty/mbedTLS/library/pkcs5.c:79:55
	adds	r2, r7, #4
	add	r0, sp, #4
	movs	r3, #4
	.loc	1 79 17 is_stmt 0               @ ../../../ThirdParty/mbedTLS/library/pkcs5.c:79:17
	mov	r1, r5
	bl	mbedtls_asn1_get_tag
.Ltmp103:
	@DEBUG_VALUE: pkcs5_parse_pbkdf2_params:ret <- $r0
	.loc	1 79 9                          @ ../../../ThirdParty/mbedTLS/library/pkcs5.c:79:9
	cbz	r0, .LBB1_5
.Ltmp104:
@ %bb.2:
	@DEBUG_VALUE: pkcs5_parse_pbkdf2_params:keylen <- [$sp+0]
	@DEBUG_VALUE: pkcs5_parse_pbkdf2_params:salt <- $r7
	@DEBUG_VALUE: pkcs5_parse_pbkdf2_params:iterations <- $r6
	@DEBUG_VALUE: pkcs5_parse_pbkdf2_params:end <- $r5
	@DEBUG_VALUE: pkcs5_parse_pbkdf2_params:ret <- $r0
	@DEBUG_VALUE: pkcs5_parse_pbkdf2_params:p <- [DW_OP_plus_uconst 4, DW_OP_deref] $sp
	@DEBUG_VALUE: pkcs5_parse_pbkdf2_params:md_type <- [DW_OP_plus_uconst 40] [$sp+0]
	@DEBUG_VALUE: pkcs5_parse_pbkdf2_params:params <- [DW_OP_LLVM_entry_value 1] $r0
	.loc	1 80 50 is_stmt 1               @ ../../../ThirdParty/mbedTLS/library/pkcs5.c:80:50
	adds	r6, r0, r4
.Ltmp105:
	.loc	1 80 9 is_stmt 0                @ ../../../ThirdParty/mbedTLS/library/pkcs5.c:80:9
	b	.LBB1_4
.Ltmp106:
.LBB1_3:
	@DEBUG_VALUE: pkcs5_parse_pbkdf2_params:salt <- $r7
	@DEBUG_VALUE: pkcs5_parse_pbkdf2_params:iterations <- $r6
	@DEBUG_VALUE: pkcs5_parse_pbkdf2_params:keylen <- $r3
	@DEBUG_VALUE: pkcs5_parse_pbkdf2_params:params <- $r0
	@DEBUG_VALUE: pkcs5_parse_pbkdf2_params:md_type <- [DW_OP_plus_uconst 40] [$sp+0]
	.loc	1 0 9                           @ ../../../ThirdParty/mbedTLS/library/pkcs5.c:0:9
	subs	r4, #98
	mov	r6, r4
.Ltmp107:
.LBB1_4:
	@DEBUG_VALUE: pkcs5_parse_pbkdf2_params:salt <- $r7
	@DEBUG_VALUE: pkcs5_parse_pbkdf2_params:md_type <- [DW_OP_plus_uconst 40] [$sp+0]
	.loc	1 111 1 is_stmt 1               @ ../../../ThirdParty/mbedTLS/library/pkcs5.c:111:1
	mov	r0, r6
	add	sp, #20
.Ltmp108:
	pop	{r4, r5, r6, r7, pc}
.Ltmp109:
.LBB1_5:
	@DEBUG_VALUE: pkcs5_parse_pbkdf2_params:keylen <- [$sp+0]
	@DEBUG_VALUE: pkcs5_parse_pbkdf2_params:salt <- $r7
	@DEBUG_VALUE: pkcs5_parse_pbkdf2_params:iterations <- $r6
	@DEBUG_VALUE: pkcs5_parse_pbkdf2_params:end <- $r5
	@DEBUG_VALUE: pkcs5_parse_pbkdf2_params:ret <- $r0
	@DEBUG_VALUE: pkcs5_parse_pbkdf2_params:p <- [DW_OP_plus_uconst 4, DW_OP_deref] $sp
	@DEBUG_VALUE: pkcs5_parse_pbkdf2_params:md_type <- [DW_OP_plus_uconst 40] [$sp+0]
	@DEBUG_VALUE: pkcs5_parse_pbkdf2_params:params <- [DW_OP_LLVM_entry_value 1] $r0
	.loc	1 82 15                         @ ../../../ThirdParty/mbedTLS/library/pkcs5.c:82:15
	ldr	r0, [sp, #4]
.Ltmp110:
	@DEBUG_VALUE: pkcs5_parse_pbkdf2_params:p <- undef
	.loc	1 82 13 is_stmt 0               @ ../../../ThirdParty/mbedTLS/library/pkcs5.c:82:13
	str	r0, [r7, #8]
	.loc	1 83 16 is_stmt 1               @ ../../../ThirdParty/mbedTLS/library/pkcs5.c:83:16
	ldr	r1, [r7, #4]
.Ltmp111:
	@DEBUG_VALUE: pkcs5_parse_pbkdf2_params:p <- $r0
	.loc	1 83 7 is_stmt 0                @ ../../../ThirdParty/mbedTLS/library/pkcs5.c:83:7
	adds	r0, r0, r1
.Ltmp112:
	@DEBUG_VALUE: pkcs5_parse_pbkdf2_params:p <- $r0
	str	r0, [sp, #4]
.Ltmp113:
	@DEBUG_VALUE: pkcs5_parse_pbkdf2_params:p <- [DW_OP_plus_uconst 4, DW_OP_deref] $sp
	.loc	1 0 7                           @ ../../../ThirdParty/mbedTLS/library/pkcs5.c:0:7
	add	r0, sp, #4
.Ltmp114:
	.loc	1 85 17 is_stmt 1               @ ../../../ThirdParty/mbedTLS/library/pkcs5.c:85:17
	mov	r1, r5
	mov	r2, r6
	bl	mbedtls_asn1_get_int
.Ltmp115:
	@DEBUG_VALUE: pkcs5_parse_pbkdf2_params:ret <- $r0
	.loc	1 85 9 is_stmt 0                @ ../../../ThirdParty/mbedTLS/library/pkcs5.c:85:9
	cbz	r0, .LBB1_7
.Ltmp116:
@ %bb.6:
	@DEBUG_VALUE: pkcs5_parse_pbkdf2_params:keylen <- [$sp+0]
	@DEBUG_VALUE: pkcs5_parse_pbkdf2_params:salt <- $r7
	@DEBUG_VALUE: pkcs5_parse_pbkdf2_params:iterations <- $r6
	@DEBUG_VALUE: pkcs5_parse_pbkdf2_params:end <- $r5
	@DEBUG_VALUE: pkcs5_parse_pbkdf2_params:ret <- $r0
	@DEBUG_VALUE: pkcs5_parse_pbkdf2_params:p <- [DW_OP_plus_uconst 4, DW_OP_deref] $sp
	@DEBUG_VALUE: pkcs5_parse_pbkdf2_params:md_type <- [DW_OP_plus_uconst 40] [$sp+0]
	@DEBUG_VALUE: pkcs5_parse_pbkdf2_params:params <- [DW_OP_LLVM_entry_value 1] $r0
	.loc	1 86 50 is_stmt 1               @ ../../../ThirdParty/mbedTLS/library/pkcs5.c:86:50
	adds	r6, r0, r4
.Ltmp117:
	.loc	1 86 9 is_stmt 0                @ ../../../ThirdParty/mbedTLS/library/pkcs5.c:86:9
	b	.LBB1_4
.Ltmp118:
.LBB1_7:
	@DEBUG_VALUE: pkcs5_parse_pbkdf2_params:keylen <- [$sp+0]
	@DEBUG_VALUE: pkcs5_parse_pbkdf2_params:salt <- $r7
	@DEBUG_VALUE: pkcs5_parse_pbkdf2_params:iterations <- $r6
	@DEBUG_VALUE: pkcs5_parse_pbkdf2_params:end <- $r5
	@DEBUG_VALUE: pkcs5_parse_pbkdf2_params:ret <- $r0
	@DEBUG_VALUE: pkcs5_parse_pbkdf2_params:p <- [DW_OP_plus_uconst 4, DW_OP_deref] $sp
	@DEBUG_VALUE: pkcs5_parse_pbkdf2_params:md_type <- [DW_OP_plus_uconst 40] [$sp+0]
	@DEBUG_VALUE: pkcs5_parse_pbkdf2_params:params <- [DW_OP_LLVM_entry_value 1] $r0
	.loc	1 0 9                           @ ../../../ThirdParty/mbedTLS/library/pkcs5.c:0:9
	movs	r6, #0
.Ltmp119:
	.loc	1 88 9 is_stmt 1                @ ../../../ThirdParty/mbedTLS/library/pkcs5.c:88:9
	ldr	r0, [sp, #4]
.Ltmp120:
	@DEBUG_VALUE: pkcs5_parse_pbkdf2_params:p <- $r0
	.loc	1 88 9 is_stmt 0                @ ../../../ThirdParty/mbedTLS/library/pkcs5.c:88:9
	cmp	r0, r5
	beq	.LBB1_4
.Ltmp121:
@ %bb.8:
	@DEBUG_VALUE: pkcs5_parse_pbkdf2_params:keylen <- [$sp+0]
	@DEBUG_VALUE: pkcs5_parse_pbkdf2_params:salt <- $r7
	@DEBUG_VALUE: pkcs5_parse_pbkdf2_params:end <- $r5
	@DEBUG_VALUE: pkcs5_parse_pbkdf2_params:p <- $r0
	@DEBUG_VALUE: pkcs5_parse_pbkdf2_params:md_type <- [DW_OP_plus_uconst 40] [$sp+0]
	@DEBUG_VALUE: pkcs5_parse_pbkdf2_params:params <- [DW_OP_LLVM_entry_value 1] $r0
	@DEBUG_VALUE: pkcs5_parse_pbkdf2_params:p <- [DW_OP_plus_uconst 4, DW_OP_deref] $sp
	.loc	1 0 9                           @ ../../../ThirdParty/mbedTLS/library/pkcs5.c:0:9
	add	r0, sp, #4
.Ltmp122:
	.loc	1 91 17 is_stmt 1               @ ../../../ThirdParty/mbedTLS/library/pkcs5.c:91:17
	mov	r1, r5
	ldr	r2, [sp]                        @ 4-byte Reload
.Ltmp123:
	@DEBUG_VALUE: pkcs5_parse_pbkdf2_params:keylen <- $r2
	bl	mbedtls_asn1_get_int
.Ltmp124:
	@DEBUG_VALUE: pkcs5_parse_pbkdf2_params:keylen <- [DW_OP_LLVM_entry_value 1] $r3
	@DEBUG_VALUE: pkcs5_parse_pbkdf2_params:ret <- $r0
	.loc	1 91 9 is_stmt 0                @ ../../../ThirdParty/mbedTLS/library/pkcs5.c:91:9
	mov	r1, r0
	adds	r1, #98
	beq	.LBB1_10
.Ltmp125:
@ %bb.9:
	@DEBUG_VALUE: pkcs5_parse_pbkdf2_params:salt <- $r7
	@DEBUG_VALUE: pkcs5_parse_pbkdf2_params:end <- $r5
	@DEBUG_VALUE: pkcs5_parse_pbkdf2_params:ret <- $r0
	@DEBUG_VALUE: pkcs5_parse_pbkdf2_params:p <- [DW_OP_plus_uconst 4, DW_OP_deref] $sp
	@DEBUG_VALUE: pkcs5_parse_pbkdf2_params:md_type <- [DW_OP_plus_uconst 40] [$sp+0]
	@DEBUG_VALUE: pkcs5_parse_pbkdf2_params:keylen <- [DW_OP_LLVM_entry_value 1] $r3
	@DEBUG_VALUE: pkcs5_parse_pbkdf2_params:params <- [DW_OP_LLVM_entry_value 1] $r0
	cbnz	r0, .LBB1_13
.Ltmp126:
.LBB1_10:
	@DEBUG_VALUE: pkcs5_parse_pbkdf2_params:salt <- $r7
	@DEBUG_VALUE: pkcs5_parse_pbkdf2_params:end <- $r5
	@DEBUG_VALUE: pkcs5_parse_pbkdf2_params:ret <- $r0
	@DEBUG_VALUE: pkcs5_parse_pbkdf2_params:p <- [DW_OP_plus_uconst 4, DW_OP_deref] $sp
	@DEBUG_VALUE: pkcs5_parse_pbkdf2_params:md_type <- [DW_OP_plus_uconst 40] [$sp+0]
	@DEBUG_VALUE: pkcs5_parse_pbkdf2_params:keylen <- [DW_OP_LLVM_entry_value 1] $r3
	@DEBUG_VALUE: pkcs5_parse_pbkdf2_params:params <- [DW_OP_LLVM_entry_value 1] $r0
	.loc	1 97 9 is_stmt 1                @ ../../../ThirdParty/mbedTLS/library/pkcs5.c:97:9
	ldr	r0, [sp, #4]
.Ltmp127:
	@DEBUG_VALUE: pkcs5_parse_pbkdf2_params:p <- $r0
	.loc	1 97 9 is_stmt 0                @ ../../../ThirdParty/mbedTLS/library/pkcs5.c:97:9
	cmp	r0, r5
	beq	.LBB1_4
.Ltmp128:
@ %bb.11:
	@DEBUG_VALUE: pkcs5_parse_pbkdf2_params:salt <- $r7
	@DEBUG_VALUE: pkcs5_parse_pbkdf2_params:end <- $r5
	@DEBUG_VALUE: pkcs5_parse_pbkdf2_params:p <- $r0
	@DEBUG_VALUE: pkcs5_parse_pbkdf2_params:md_type <- [DW_OP_plus_uconst 40] [$sp+0]
	@DEBUG_VALUE: pkcs5_parse_pbkdf2_params:keylen <- [DW_OP_LLVM_entry_value 1] $r3
	@DEBUG_VALUE: pkcs5_parse_pbkdf2_params:params <- [DW_OP_LLVM_entry_value 1] $r0
	@DEBUG_VALUE: pkcs5_parse_pbkdf2_params:p <- [DW_OP_plus_uconst 4, DW_OP_deref] $sp
	.loc	1 0 9                           @ ../../../ThirdParty/mbedTLS/library/pkcs5.c:0:9
	add	r0, sp, #4
	add	r2, sp, #8
.Ltmp129:
	.loc	1 100 17 is_stmt 1              @ ../../../ThirdParty/mbedTLS/library/pkcs5.c:100:17
	mov	r1, r5
	bl	mbedtls_asn1_get_alg_null
.Ltmp130:
	@DEBUG_VALUE: pkcs5_parse_pbkdf2_params:ret <- $r0
	.loc	1 100 9 is_stmt 0               @ ../../../ThirdParty/mbedTLS/library/pkcs5.c:100:9
	cbz	r0, .LBB1_14
.Ltmp131:
@ %bb.12:
	@DEBUG_VALUE: pkcs5_parse_pbkdf2_params:salt <- $r7
	@DEBUG_VALUE: pkcs5_parse_pbkdf2_params:end <- $r5
	@DEBUG_VALUE: pkcs5_parse_pbkdf2_params:ret <- $r0
	@DEBUG_VALUE: pkcs5_parse_pbkdf2_params:p <- [DW_OP_plus_uconst 4, DW_OP_deref] $sp
	@DEBUG_VALUE: pkcs5_parse_pbkdf2_params:md_type <- [DW_OP_plus_uconst 40] [$sp+0]
	@DEBUG_VALUE: pkcs5_parse_pbkdf2_params:keylen <- [DW_OP_LLVM_entry_value 1] $r3
	@DEBUG_VALUE: pkcs5_parse_pbkdf2_params:params <- [DW_OP_LLVM_entry_value 1] $r0
	.loc	1 101 50 is_stmt 1              @ ../../../ThirdParty/mbedTLS/library/pkcs5.c:101:50
	adds	r6, r0, r4
	.loc	1 101 9 is_stmt 0               @ ../../../ThirdParty/mbedTLS/library/pkcs5.c:101:9
	b	.LBB1_4
.Ltmp132:
.LBB1_13:
	@DEBUG_VALUE: pkcs5_parse_pbkdf2_params:salt <- $r7
	@DEBUG_VALUE: pkcs5_parse_pbkdf2_params:end <- $r5
	@DEBUG_VALUE: pkcs5_parse_pbkdf2_params:ret <- $r0
	@DEBUG_VALUE: pkcs5_parse_pbkdf2_params:p <- [DW_OP_plus_uconst 4, DW_OP_deref] $sp
	@DEBUG_VALUE: pkcs5_parse_pbkdf2_params:md_type <- [DW_OP_plus_uconst 40] [$sp+0]
	@DEBUG_VALUE: pkcs5_parse_pbkdf2_params:keylen <- [DW_OP_LLVM_entry_value 1] $r3
	@DEBUG_VALUE: pkcs5_parse_pbkdf2_params:params <- [DW_OP_LLVM_entry_value 1] $r0
	.loc	1 94 54 is_stmt 1               @ ../../../ThirdParty/mbedTLS/library/pkcs5.c:94:54
	adds	r6, r0, r4
	.loc	1 94 13 is_stmt 0               @ ../../../ThirdParty/mbedTLS/library/pkcs5.c:94:13
	b	.LBB1_4
.Ltmp133:
.LBB1_14:
	@DEBUG_VALUE: pkcs5_parse_pbkdf2_params:salt <- $r7
	@DEBUG_VALUE: pkcs5_parse_pbkdf2_params:end <- $r5
	@DEBUG_VALUE: pkcs5_parse_pbkdf2_params:ret <- $r0
	@DEBUG_VALUE: pkcs5_parse_pbkdf2_params:p <- [DW_OP_plus_uconst 4, DW_OP_deref] $sp
	@DEBUG_VALUE: pkcs5_parse_pbkdf2_params:md_type <- [DW_OP_plus_uconst 40] [$sp+0]
	@DEBUG_VALUE: pkcs5_parse_pbkdf2_params:keylen <- [DW_OP_LLVM_entry_value 1] $r3
	@DEBUG_VALUE: pkcs5_parse_pbkdf2_params:params <- [DW_OP_LLVM_entry_value 1] $r0
	.loc	1 0 13                          @ ../../../ThirdParty/mbedTLS/library/pkcs5.c:0:13
	ldr	r1, [sp, #40]
	add	r0, sp, #8
.Ltmp134:
	.loc	1 103 9 is_stmt 1               @ ../../../ThirdParty/mbedTLS/library/pkcs5.c:103:9
	bl	mbedtls_oid_get_md_hmac
.Ltmp135:
	.loc	1 103 9 is_stmt 0               @ ../../../ThirdParty/mbedTLS/library/pkcs5.c:103:9
	cbz	r0, .LBB1_16
.Ltmp136:
@ %bb.15:
	@DEBUG_VALUE: pkcs5_parse_pbkdf2_params:salt <- $r7
	@DEBUG_VALUE: pkcs5_parse_pbkdf2_params:end <- $r5
	@DEBUG_VALUE: pkcs5_parse_pbkdf2_params:p <- [DW_OP_plus_uconst 4, DW_OP_deref] $sp
	@DEBUG_VALUE: pkcs5_parse_pbkdf2_params:md_type <- [DW_OP_plus_uconst 40] [$sp+0]
	@DEBUG_VALUE: pkcs5_parse_pbkdf2_params:keylen <- [DW_OP_LLVM_entry_value 1] $r3
	@DEBUG_VALUE: pkcs5_parse_pbkdf2_params:params <- [DW_OP_LLVM_entry_value 1] $r0
	.loc	1 0 9                           @ ../../../ThirdParty/mbedTLS/library/pkcs5.c:0:9
	adds	r4, #128
	mov	r6, r4
	b	.LBB1_4
.Ltmp137:
.LBB1_16:
	@DEBUG_VALUE: pkcs5_parse_pbkdf2_params:salt <- $r7
	@DEBUG_VALUE: pkcs5_parse_pbkdf2_params:end <- $r5
	@DEBUG_VALUE: pkcs5_parse_pbkdf2_params:p <- [DW_OP_plus_uconst 4, DW_OP_deref] $sp
	@DEBUG_VALUE: pkcs5_parse_pbkdf2_params:md_type <- [DW_OP_plus_uconst 40] [$sp+0]
	@DEBUG_VALUE: pkcs5_parse_pbkdf2_params:keylen <- [DW_OP_LLVM_entry_value 1] $r3
	@DEBUG_VALUE: pkcs5_parse_pbkdf2_params:params <- [DW_OP_LLVM_entry_value 1] $r0
	.loc	1 106 9 is_stmt 1               @ ../../../ThirdParty/mbedTLS/library/pkcs5.c:106:9
	ldr	r0, [sp, #4]
.Ltmp138:
	@DEBUG_VALUE: pkcs5_parse_pbkdf2_params:p <- $r0
	.loc	1 106 9 is_stmt 0               @ ../../../ThirdParty/mbedTLS/library/pkcs5.c:106:9
	cmp	r0, r5
	beq	.LBB1_18
.Ltmp139:
@ %bb.17:
	@DEBUG_VALUE: pkcs5_parse_pbkdf2_params:salt <- $r7
	@DEBUG_VALUE: pkcs5_parse_pbkdf2_params:end <- $r5
	@DEBUG_VALUE: pkcs5_parse_pbkdf2_params:p <- $r0
	@DEBUG_VALUE: pkcs5_parse_pbkdf2_params:md_type <- [DW_OP_plus_uconst 40] [$sp+0]
	@DEBUG_VALUE: pkcs5_parse_pbkdf2_params:keylen <- [DW_OP_LLVM_entry_value 1] $r3
	@DEBUG_VALUE: pkcs5_parse_pbkdf2_params:params <- [DW_OP_LLVM_entry_value 1] $r0
	.loc	1 0 9                           @ ../../../ThirdParty/mbedTLS/library/pkcs5.c:0:9
	subs	r4, #102
	.loc	1 106 9                         @ ../../../ThirdParty/mbedTLS/library/pkcs5.c:106:9
	mov	r6, r4
	b	.LBB1_4
.Ltmp140:
.LBB1_18:
	@DEBUG_VALUE: pkcs5_parse_pbkdf2_params:salt <- $r7
	@DEBUG_VALUE: pkcs5_parse_pbkdf2_params:end <- $r5
	@DEBUG_VALUE: pkcs5_parse_pbkdf2_params:p <- $r0
	@DEBUG_VALUE: pkcs5_parse_pbkdf2_params:md_type <- [DW_OP_plus_uconst 40] [$sp+0]
	@DEBUG_VALUE: pkcs5_parse_pbkdf2_params:keylen <- [DW_OP_LLVM_entry_value 1] $r3
	@DEBUG_VALUE: pkcs5_parse_pbkdf2_params:params <- [DW_OP_LLVM_entry_value 1] $r0
	.loc	1 0 9                           @ ../../../ThirdParty/mbedTLS/library/pkcs5.c:0:9
	movs	r6, #0
	b	.LBB1_4
.Ltmp141:
	.p2align	2
@ %bb.19:
__arm_cp.1_0:
	.long	4294955264                      @ 0xffffd100
.Lcpi_end2:
	.size	__arm_cp.1_0, .Lcpi_end2-__arm_cp.1_0
.Lfunc_end1:
	.size	pkcs5_parse_pbkdf2_params, .Lfunc_end1-pkcs5_parse_pbkdf2_params
	.cfi_endproc
	.cantunwind
	.fnend
                                        @ -- End function
	.section	.text.mbedtls_pkcs5_pbkdf2_hmac,"ax",%progbits
	.hidden	mbedtls_pkcs5_pbkdf2_hmac       @ -- Begin function mbedtls_pkcs5_pbkdf2_hmac
	.globl	mbedtls_pkcs5_pbkdf2_hmac
	.p2align	1
	.type	mbedtls_pkcs5_pbkdf2_hmac,%function
	.code	16                              @ @mbedtls_pkcs5_pbkdf2_hmac
	.thumb_func
mbedtls_pkcs5_pbkdf2_hmac:
.Lfunc_begin2:
	.loc	1 224 0 is_stmt 1               @ ../../../ThirdParty/mbedTLS/library/pkcs5.c:224:0
	.fnstart
	.cfi_startproc
@ %bb.0:
	@DEBUG_VALUE: mbedtls_pkcs5_pbkdf2_hmac:ctx <- $r0
	@DEBUG_VALUE: mbedtls_pkcs5_pbkdf2_hmac:password <- $r1
	@DEBUG_VALUE: mbedtls_pkcs5_pbkdf2_hmac:plen <- $r2
	@DEBUG_VALUE: mbedtls_pkcs5_pbkdf2_hmac:salt <- $r3
	.save	{r4, r5, r6, r7, lr}
	push	{r4, r5, r6, r7, lr}
	.cfi_def_cfa_offset 20
	.cfi_offset lr, -4
	.cfi_offset r7, -8
	.cfi_offset r6, -12
	.cfi_offset r5, -16
	.cfi_offset r4, -20
	.pad	#172
	sub	sp, #172
	.cfi_def_cfa_offset 192
	mov	r4, r3
	str	r2, [sp, #36]                   @ 4-byte Spill
	str	r1, [sp, #32]                   @ 4-byte Spill
	mov	r7, r0
.Ltmp142:
	@DEBUG_VALUE: mbedtls_pkcs5_pbkdf2_hmac:output <- [DW_OP_plus_uconst 204] [$sp+0]
	@DEBUG_VALUE: mbedtls_pkcs5_pbkdf2_hmac:key_length <- [DW_OP_plus_uconst 200] [$sp+0]
	@DEBUG_VALUE: mbedtls_pkcs5_pbkdf2_hmac:iteration_count <- [DW_OP_plus_uconst 196] [$sp+0]
	@DEBUG_VALUE: mbedtls_pkcs5_pbkdf2_hmac:slen <- [DW_OP_plus_uconst 192] [$sp+0]
	@DEBUG_VALUE: mbedtls_pkcs5_pbkdf2_hmac:salt <- $r4
	@DEBUG_VALUE: mbedtls_pkcs5_pbkdf2_hmac:plen <- [DW_OP_plus_uconst 36] [$sp+0]
	@DEBUG_VALUE: mbedtls_pkcs5_pbkdf2_hmac:password <- [DW_OP_plus_uconst 32] [$sp+0]
	@DEBUG_VALUE: mbedtls_pkcs5_pbkdf2_hmac:ctx <- $r7
	.loc	1 229 55 prologue_end           @ ../../../ThirdParty/mbedTLS/library/pkcs5.c:229:55
	ldr	r0, [r0]
	.loc	1 229 29 is_stmt 0              @ ../../../ThirdParty/mbedTLS/library/pkcs5.c:229:29
	bl	mbedtls_md_get_size
	mov	r5, r0
.Ltmp143:
	@DEBUG_VALUE: mbedtls_pkcs5_pbkdf2_hmac:out_p <- undef
	@DEBUG_VALUE: mbedtls_pkcs5_pbkdf2_hmac:md_size <- undef
	.loc	1 0 29                          @ ../../../ThirdParty/mbedTLS/library/pkcs5.c:0:29
	movs	r1, #0
	.loc	1 234 5 is_stmt 1               @ ../../../ThirdParty/mbedTLS/library/pkcs5.c:234:5
	str	r1, [sp, #40]
	add	r0, sp, #40
	movs	r2, #1
	str	r2, [sp, #12]                   @ 4-byte Spill
	.loc	1 235 16                        @ ../../../ThirdParty/mbedTLS/library/pkcs5.c:235:16
	strb	r2, [r0, #3]
	ldr	r3, [sp, #200]
	@DEBUG_VALUE: mbedtls_pkcs5_pbkdf2_hmac:out_p <- undef
.Ltmp144:
	@DEBUG_VALUE: mbedtls_pkcs5_pbkdf2_hmac:key_length <- $r3
	.loc	1 242 5                         @ ../../../ThirdParty/mbedTLS/library/pkcs5.c:242:5
	cmp	r3, #0
	beq	.LBB2_23
.Ltmp145:
@ %bb.1:
	@DEBUG_VALUE: mbedtls_pkcs5_pbkdf2_hmac:ctx <- $r7
	@DEBUG_VALUE: mbedtls_pkcs5_pbkdf2_hmac:salt <- $r4
	@DEBUG_VALUE: mbedtls_pkcs5_pbkdf2_hmac:key_length <- $r3
	@DEBUG_VALUE: mbedtls_pkcs5_pbkdf2_hmac:password <- [DW_OP_plus_uconst 32] [$sp+0]
	@DEBUG_VALUE: mbedtls_pkcs5_pbkdf2_hmac:plen <- [DW_OP_plus_uconst 36] [$sp+0]
	@DEBUG_VALUE: mbedtls_pkcs5_pbkdf2_hmac:slen <- [DW_OP_plus_uconst 192] [$sp+0]
	@DEBUG_VALUE: mbedtls_pkcs5_pbkdf2_hmac:iteration_count <- [DW_OP_plus_uconst 196] [$sp+0]
	@DEBUG_VALUE: mbedtls_pkcs5_pbkdf2_hmac:output <- [DW_OP_plus_uconst 204] [$sp+0]
	.loc	1 0 5 is_stmt 0                 @ ../../../ThirdParty/mbedTLS/library/pkcs5.c:0:5
	str	r1, [sp, #4]                    @ 4-byte Spill
	ldr	r0, [sp, #204]
.Ltmp146:
	@DEBUG_VALUE: mbedtls_pkcs5_pbkdf2_hmac:out_p <- $r0
	str	r0, [sp, #20]                   @ 4-byte Spill
.Ltmp147:
	@DEBUG_VALUE: mbedtls_pkcs5_pbkdf2_hmac:out_p <- [DW_OP_plus_uconst 20] [$sp+0]
	@DEBUG_VALUE: mbedtls_pkcs5_pbkdf2_hmac:out_p <- [DW_OP_plus_uconst 20] [$sp+0]
	ldr	r0, [sp, #196]
	str	r0, [sp, #28]                   @ 4-byte Spill
	ldr	r0, [sp, #192]
	str	r0, [sp, #16]                   @ 4-byte Spill
	str	r4, [sp, #8]                    @ 4-byte Spill
.Ltmp148:
.LBB2_2:                                @ =>This Loop Header: Depth=1
                                        @     Child Loop BB2_9 Depth 2
                                        @       Child Loop BB2_14 Depth 3
                                        @     Child Loop BB2_18 Depth 2
	@DEBUG_VALUE: mbedtls_pkcs5_pbkdf2_hmac:ctx <- $r7
	@DEBUG_VALUE: mbedtls_pkcs5_pbkdf2_hmac:key_length <- $r3
	@DEBUG_VALUE: mbedtls_pkcs5_pbkdf2_hmac:out_p <- [DW_OP_plus_uconst 20] [$sp+0]
	@DEBUG_VALUE: mbedtls_pkcs5_pbkdf2_hmac:password <- [DW_OP_plus_uconst 32] [$sp+0]
	@DEBUG_VALUE: mbedtls_pkcs5_pbkdf2_hmac:plen <- [DW_OP_plus_uconst 36] [$sp+0]
	@DEBUG_VALUE: mbedtls_pkcs5_pbkdf2_hmac:slen <- [DW_OP_plus_uconst 192] [$sp+0]
	@DEBUG_VALUE: mbedtls_pkcs5_pbkdf2_hmac:iteration_count <- [DW_OP_plus_uconst 196] [$sp+0]
	@DEBUG_VALUE: mbedtls_pkcs5_pbkdf2_hmac:output <- [DW_OP_plus_uconst 204] [$sp+0]
	@DEBUG_VALUE: mbedtls_pkcs5_pbkdf2_hmac:key_length <- $r3
	@DEBUG_VALUE: mbedtls_pkcs5_pbkdf2_hmac:out_p <- [DW_OP_plus_uconst 20] [$sp+0]
	str	r3, [sp, #24]                   @ 4-byte Spill
.Ltmp149:
	@DEBUG_VALUE: mbedtls_pkcs5_pbkdf2_hmac:key_length <- [DW_OP_plus_uconst 24] [$sp+0]
	@DEBUG_VALUE: mbedtls_pkcs5_pbkdf2_hmac:key_length <- [DW_OP_plus_uconst 24] [$sp+0]
	@DEBUG_VALUE: mbedtls_pkcs5_pbkdf2_hmac:key_length <- [DW_OP_plus_uconst 24] [$sp+0]
	.loc	1 246 21 is_stmt 1              @ ../../../ThirdParty/mbedTLS/library/pkcs5.c:246:21
	mov	r0, r7
	ldr	r1, [sp, #32]                   @ 4-byte Reload
	ldr	r2, [sp, #36]                   @ 4-byte Reload
	bl	mbedtls_md_hmac_starts
.Ltmp150:
	@DEBUG_VALUE: mbedtls_pkcs5_pbkdf2_hmac:ret <- $r0
	.loc	1 246 13 is_stmt 0              @ ../../../ThirdParty/mbedTLS/library/pkcs5.c:246:13
	cmp	r0, #0
	bne	.LBB2_22
.Ltmp151:
@ %bb.3:                                @   in Loop: Header=BB2_2 Depth=1
	@DEBUG_VALUE: mbedtls_pkcs5_pbkdf2_hmac:ctx <- $r7
	@DEBUG_VALUE: mbedtls_pkcs5_pbkdf2_hmac:ret <- $r0
	@DEBUG_VALUE: mbedtls_pkcs5_pbkdf2_hmac:key_length <- [DW_OP_plus_uconst 24] [$sp+0]
	@DEBUG_VALUE: mbedtls_pkcs5_pbkdf2_hmac:out_p <- [DW_OP_plus_uconst 20] [$sp+0]
	@DEBUG_VALUE: mbedtls_pkcs5_pbkdf2_hmac:password <- [DW_OP_plus_uconst 32] [$sp+0]
	@DEBUG_VALUE: mbedtls_pkcs5_pbkdf2_hmac:plen <- [DW_OP_plus_uconst 36] [$sp+0]
	@DEBUG_VALUE: mbedtls_pkcs5_pbkdf2_hmac:slen <- [DW_OP_plus_uconst 192] [$sp+0]
	@DEBUG_VALUE: mbedtls_pkcs5_pbkdf2_hmac:iteration_count <- [DW_OP_plus_uconst 196] [$sp+0]
	@DEBUG_VALUE: mbedtls_pkcs5_pbkdf2_hmac:output <- [DW_OP_plus_uconst 204] [$sp+0]
	.loc	1 249 21 is_stmt 1              @ ../../../ThirdParty/mbedTLS/library/pkcs5.c:249:21
	mov	r0, r7
.Ltmp152:
	mov	r1, r4
	ldr	r2, [sp, #16]                   @ 4-byte Reload
	bl	mbedtls_md_hmac_update
.Ltmp153:
	@DEBUG_VALUE: mbedtls_pkcs5_pbkdf2_hmac:ret <- $r0
	.loc	1 249 13 is_stmt 0              @ ../../../ThirdParty/mbedTLS/library/pkcs5.c:249:13
	cmp	r0, #0
	bne	.LBB2_22
.Ltmp154:
@ %bb.4:                                @   in Loop: Header=BB2_2 Depth=1
	@DEBUG_VALUE: mbedtls_pkcs5_pbkdf2_hmac:ctx <- $r7
	@DEBUG_VALUE: mbedtls_pkcs5_pbkdf2_hmac:ret <- $r0
	@DEBUG_VALUE: mbedtls_pkcs5_pbkdf2_hmac:key_length <- [DW_OP_plus_uconst 24] [$sp+0]
	@DEBUG_VALUE: mbedtls_pkcs5_pbkdf2_hmac:out_p <- [DW_OP_plus_uconst 20] [$sp+0]
	@DEBUG_VALUE: mbedtls_pkcs5_pbkdf2_hmac:password <- [DW_OP_plus_uconst 32] [$sp+0]
	@DEBUG_VALUE: mbedtls_pkcs5_pbkdf2_hmac:plen <- [DW_OP_plus_uconst 36] [$sp+0]
	@DEBUG_VALUE: mbedtls_pkcs5_pbkdf2_hmac:slen <- [DW_OP_plus_uconst 192] [$sp+0]
	@DEBUG_VALUE: mbedtls_pkcs5_pbkdf2_hmac:iteration_count <- [DW_OP_plus_uconst 196] [$sp+0]
	@DEBUG_VALUE: mbedtls_pkcs5_pbkdf2_hmac:output <- [DW_OP_plus_uconst 204] [$sp+0]
	.loc	1 0 13                          @ ../../../ThirdParty/mbedTLS/library/pkcs5.c:0:13
	add	r1, sp, #40
	movs	r2, #4
.Ltmp155:
	.loc	1 252 21 is_stmt 1              @ ../../../ThirdParty/mbedTLS/library/pkcs5.c:252:21
	mov	r0, r7
.Ltmp156:
	bl	mbedtls_md_hmac_update
.Ltmp157:
	@DEBUG_VALUE: mbedtls_pkcs5_pbkdf2_hmac:ret <- $r0
	.loc	1 252 13 is_stmt 0              @ ../../../ThirdParty/mbedTLS/library/pkcs5.c:252:13
	cmp	r0, #0
	bne	.LBB2_22
.Ltmp158:
@ %bb.5:                                @   in Loop: Header=BB2_2 Depth=1
	@DEBUG_VALUE: mbedtls_pkcs5_pbkdf2_hmac:ctx <- $r7
	@DEBUG_VALUE: mbedtls_pkcs5_pbkdf2_hmac:ret <- $r0
	@DEBUG_VALUE: mbedtls_pkcs5_pbkdf2_hmac:key_length <- [DW_OP_plus_uconst 24] [$sp+0]
	@DEBUG_VALUE: mbedtls_pkcs5_pbkdf2_hmac:out_p <- [DW_OP_plus_uconst 20] [$sp+0]
	@DEBUG_VALUE: mbedtls_pkcs5_pbkdf2_hmac:password <- [DW_OP_plus_uconst 32] [$sp+0]
	@DEBUG_VALUE: mbedtls_pkcs5_pbkdf2_hmac:plen <- [DW_OP_plus_uconst 36] [$sp+0]
	@DEBUG_VALUE: mbedtls_pkcs5_pbkdf2_hmac:slen <- [DW_OP_plus_uconst 192] [$sp+0]
	@DEBUG_VALUE: mbedtls_pkcs5_pbkdf2_hmac:iteration_count <- [DW_OP_plus_uconst 196] [$sp+0]
	@DEBUG_VALUE: mbedtls_pkcs5_pbkdf2_hmac:output <- [DW_OP_plus_uconst 204] [$sp+0]
	.loc	1 0 13                          @ ../../../ThirdParty/mbedTLS/library/pkcs5.c:0:13
	add	r1, sp, #44
.Ltmp159:
	.loc	1 255 21 is_stmt 1              @ ../../../ThirdParty/mbedTLS/library/pkcs5.c:255:21
	mov	r0, r7
.Ltmp160:
	bl	mbedtls_md_hmac_finish
.Ltmp161:
	@DEBUG_VALUE: mbedtls_pkcs5_pbkdf2_hmac:ret <- $r0
	.loc	1 255 13 is_stmt 0              @ ../../../ThirdParty/mbedTLS/library/pkcs5.c:255:13
	cmp	r0, #0
	bne	.LBB2_22
.Ltmp162:
@ %bb.6:                                @   in Loop: Header=BB2_2 Depth=1
	@DEBUG_VALUE: mbedtls_pkcs5_pbkdf2_hmac:ctx <- $r7
	@DEBUG_VALUE: mbedtls_pkcs5_pbkdf2_hmac:ret <- $r0
	@DEBUG_VALUE: mbedtls_pkcs5_pbkdf2_hmac:key_length <- [DW_OP_plus_uconst 24] [$sp+0]
	@DEBUG_VALUE: mbedtls_pkcs5_pbkdf2_hmac:out_p <- [DW_OP_plus_uconst 20] [$sp+0]
	@DEBUG_VALUE: mbedtls_pkcs5_pbkdf2_hmac:password <- [DW_OP_plus_uconst 32] [$sp+0]
	@DEBUG_VALUE: mbedtls_pkcs5_pbkdf2_hmac:plen <- [DW_OP_plus_uconst 36] [$sp+0]
	@DEBUG_VALUE: mbedtls_pkcs5_pbkdf2_hmac:slen <- [DW_OP_plus_uconst 192] [$sp+0]
	@DEBUG_VALUE: mbedtls_pkcs5_pbkdf2_hmac:iteration_count <- [DW_OP_plus_uconst 196] [$sp+0]
	@DEBUG_VALUE: mbedtls_pkcs5_pbkdf2_hmac:output <- [DW_OP_plus_uconst 204] [$sp+0]
	.loc	1 0 13                          @ ../../../ThirdParty/mbedTLS/library/pkcs5.c:0:13
	add	r0, sp, #108
.Ltmp163:
	add	r1, sp, #44
	.loc	1 258 9 is_stmt 1               @ ../../../ThirdParty/mbedTLS/library/pkcs5.c:258:9
	mov	r2, r5
	bl	__aeabi_memcpy4
.Ltmp164:
	@DEBUG_VALUE: mbedtls_pkcs5_pbkdf2_hmac:i <- 1
	.loc	1 260 9                         @ ../../../ThirdParty/mbedTLS/library/pkcs5.c:260:9
	ldr	r0, [sp, #28]                   @ 4-byte Reload
	cmp	r0, #2
	blo	.LBB2_15
.Ltmp165:
@ %bb.7:                                @   in Loop: Header=BB2_2 Depth=1
	@DEBUG_VALUE: mbedtls_pkcs5_pbkdf2_hmac:ctx <- $r7
	@DEBUG_VALUE: mbedtls_pkcs5_pbkdf2_hmac:key_length <- [DW_OP_plus_uconst 24] [$sp+0]
	@DEBUG_VALUE: mbedtls_pkcs5_pbkdf2_hmac:out_p <- [DW_OP_plus_uconst 20] [$sp+0]
	@DEBUG_VALUE: mbedtls_pkcs5_pbkdf2_hmac:password <- [DW_OP_plus_uconst 32] [$sp+0]
	@DEBUG_VALUE: mbedtls_pkcs5_pbkdf2_hmac:plen <- [DW_OP_plus_uconst 36] [$sp+0]
	@DEBUG_VALUE: mbedtls_pkcs5_pbkdf2_hmac:slen <- [DW_OP_plus_uconst 192] [$sp+0]
	@DEBUG_VALUE: mbedtls_pkcs5_pbkdf2_hmac:iteration_count <- [DW_OP_plus_uconst 196] [$sp+0]
	@DEBUG_VALUE: mbedtls_pkcs5_pbkdf2_hmac:output <- [DW_OP_plus_uconst 204] [$sp+0]
	@DEBUG_VALUE: mbedtls_pkcs5_pbkdf2_hmac:i <- 1
	.loc	1 0 9 is_stmt 0                 @ ../../../ThirdParty/mbedTLS/library/pkcs5.c:0:9
	ldr	r4, [sp, #12]                   @ 4-byte Reload
	b	.LBB2_9
.Ltmp166:
.LBB2_8:                                @   in Loop: Header=BB2_9 Depth=2
	@DEBUG_VALUE: mbedtls_pkcs5_pbkdf2_hmac:ctx <- $r7
	@DEBUG_VALUE: mbedtls_pkcs5_pbkdf2_hmac:i <- $r4
	@DEBUG_VALUE: mbedtls_pkcs5_pbkdf2_hmac:key_length <- [DW_OP_plus_uconst 24] [$sp+0]
	@DEBUG_VALUE: mbedtls_pkcs5_pbkdf2_hmac:out_p <- [DW_OP_plus_uconst 20] [$sp+0]
	@DEBUG_VALUE: mbedtls_pkcs5_pbkdf2_hmac:password <- [DW_OP_plus_uconst 32] [$sp+0]
	@DEBUG_VALUE: mbedtls_pkcs5_pbkdf2_hmac:plen <- [DW_OP_plus_uconst 36] [$sp+0]
	@DEBUG_VALUE: mbedtls_pkcs5_pbkdf2_hmac:slen <- [DW_OP_plus_uconst 192] [$sp+0]
	@DEBUG_VALUE: mbedtls_pkcs5_pbkdf2_hmac:iteration_count <- [DW_OP_plus_uconst 196] [$sp+0]
	@DEBUG_VALUE: mbedtls_pkcs5_pbkdf2_hmac:output <- [DW_OP_plus_uconst 204] [$sp+0]
	.loc	1 260 43                        @ ../../../ThirdParty/mbedTLS/library/pkcs5.c:260:43
	adds	r4, r4, #1
.Ltmp167:
	@DEBUG_VALUE: mbedtls_pkcs5_pbkdf2_hmac:i <- $r4
	.loc	1 260 9                         @ ../../../ThirdParty/mbedTLS/library/pkcs5.c:260:9
	ldr	r0, [sp, #28]                   @ 4-byte Reload
	cmp	r4, r0
	beq	.LBB2_15
.Ltmp168:
.LBB2_9:                                @   Parent Loop BB2_2 Depth=1
                                        @ =>  This Loop Header: Depth=2
                                        @       Child Loop BB2_14 Depth 3
	@DEBUG_VALUE: mbedtls_pkcs5_pbkdf2_hmac:ctx <- $r7
	@DEBUG_VALUE: mbedtls_pkcs5_pbkdf2_hmac:key_length <- [DW_OP_plus_uconst 24] [$sp+0]
	@DEBUG_VALUE: mbedtls_pkcs5_pbkdf2_hmac:out_p <- [DW_OP_plus_uconst 20] [$sp+0]
	@DEBUG_VALUE: mbedtls_pkcs5_pbkdf2_hmac:password <- [DW_OP_plus_uconst 32] [$sp+0]
	@DEBUG_VALUE: mbedtls_pkcs5_pbkdf2_hmac:plen <- [DW_OP_plus_uconst 36] [$sp+0]
	@DEBUG_VALUE: mbedtls_pkcs5_pbkdf2_hmac:slen <- [DW_OP_plus_uconst 192] [$sp+0]
	@DEBUG_VALUE: mbedtls_pkcs5_pbkdf2_hmac:iteration_count <- [DW_OP_plus_uconst 196] [$sp+0]
	@DEBUG_VALUE: mbedtls_pkcs5_pbkdf2_hmac:output <- [DW_OP_plus_uconst 204] [$sp+0]
	@DEBUG_VALUE: mbedtls_pkcs5_pbkdf2_hmac:i <- $r4
	.loc	1 264 25 is_stmt 1              @ ../../../ThirdParty/mbedTLS/library/pkcs5.c:264:25
	mov	r0, r7
	ldr	r1, [sp, #32]                   @ 4-byte Reload
	ldr	r2, [sp, #36]                   @ 4-byte Reload
	bl	mbedtls_md_hmac_starts
.Ltmp169:
	@DEBUG_VALUE: mbedtls_pkcs5_pbkdf2_hmac:ret <- $r0
	.loc	1 264 17 is_stmt 0              @ ../../../ThirdParty/mbedTLS/library/pkcs5.c:264:17
	cbnz	r0, .LBB2_22
.Ltmp170:
@ %bb.10:                               @   in Loop: Header=BB2_9 Depth=2
	@DEBUG_VALUE: mbedtls_pkcs5_pbkdf2_hmac:ctx <- $r7
	@DEBUG_VALUE: mbedtls_pkcs5_pbkdf2_hmac:i <- $r4
	@DEBUG_VALUE: mbedtls_pkcs5_pbkdf2_hmac:ret <- $r0
	@DEBUG_VALUE: mbedtls_pkcs5_pbkdf2_hmac:key_length <- [DW_OP_plus_uconst 24] [$sp+0]
	@DEBUG_VALUE: mbedtls_pkcs5_pbkdf2_hmac:out_p <- [DW_OP_plus_uconst 20] [$sp+0]
	@DEBUG_VALUE: mbedtls_pkcs5_pbkdf2_hmac:password <- [DW_OP_plus_uconst 32] [$sp+0]
	@DEBUG_VALUE: mbedtls_pkcs5_pbkdf2_hmac:plen <- [DW_OP_plus_uconst 36] [$sp+0]
	@DEBUG_VALUE: mbedtls_pkcs5_pbkdf2_hmac:slen <- [DW_OP_plus_uconst 192] [$sp+0]
	@DEBUG_VALUE: mbedtls_pkcs5_pbkdf2_hmac:iteration_count <- [DW_OP_plus_uconst 196] [$sp+0]
	@DEBUG_VALUE: mbedtls_pkcs5_pbkdf2_hmac:output <- [DW_OP_plus_uconst 204] [$sp+0]
	.loc	1 0 17                          @ ../../../ThirdParty/mbedTLS/library/pkcs5.c:0:17
	add	r1, sp, #108
.Ltmp171:
	.loc	1 267 25 is_stmt 1              @ ../../../ThirdParty/mbedTLS/library/pkcs5.c:267:25
	mov	r0, r7
.Ltmp172:
	mov	r2, r5
	bl	mbedtls_md_hmac_update
.Ltmp173:
	@DEBUG_VALUE: mbedtls_pkcs5_pbkdf2_hmac:ret <- $r0
	.loc	1 267 17 is_stmt 0              @ ../../../ThirdParty/mbedTLS/library/pkcs5.c:267:17
	cbnz	r0, .LBB2_22
.Ltmp174:
@ %bb.11:                               @   in Loop: Header=BB2_9 Depth=2
	@DEBUG_VALUE: mbedtls_pkcs5_pbkdf2_hmac:ctx <- $r7
	@DEBUG_VALUE: mbedtls_pkcs5_pbkdf2_hmac:i <- $r4
	@DEBUG_VALUE: mbedtls_pkcs5_pbkdf2_hmac:ret <- $r0
	@DEBUG_VALUE: mbedtls_pkcs5_pbkdf2_hmac:key_length <- [DW_OP_plus_uconst 24] [$sp+0]
	@DEBUG_VALUE: mbedtls_pkcs5_pbkdf2_hmac:out_p <- [DW_OP_plus_uconst 20] [$sp+0]
	@DEBUG_VALUE: mbedtls_pkcs5_pbkdf2_hmac:password <- [DW_OP_plus_uconst 32] [$sp+0]
	@DEBUG_VALUE: mbedtls_pkcs5_pbkdf2_hmac:plen <- [DW_OP_plus_uconst 36] [$sp+0]
	@DEBUG_VALUE: mbedtls_pkcs5_pbkdf2_hmac:slen <- [DW_OP_plus_uconst 192] [$sp+0]
	@DEBUG_VALUE: mbedtls_pkcs5_pbkdf2_hmac:iteration_count <- [DW_OP_plus_uconst 196] [$sp+0]
	@DEBUG_VALUE: mbedtls_pkcs5_pbkdf2_hmac:output <- [DW_OP_plus_uconst 204] [$sp+0]
	.loc	1 0 17                          @ ../../../ThirdParty/mbedTLS/library/pkcs5.c:0:17
	add	r1, sp, #108
.Ltmp175:
	.loc	1 270 25 is_stmt 1              @ ../../../ThirdParty/mbedTLS/library/pkcs5.c:270:25
	mov	r0, r7
.Ltmp176:
	bl	mbedtls_md_hmac_finish
.Ltmp177:
	@DEBUG_VALUE: mbedtls_pkcs5_pbkdf2_hmac:ret <- $r0
	.loc	1 270 17 is_stmt 0              @ ../../../ThirdParty/mbedTLS/library/pkcs5.c:270:17
	cbnz	r0, .LBB2_22
.Ltmp178:
@ %bb.12:                               @   in Loop: Header=BB2_9 Depth=2
	@DEBUG_VALUE: mbedtls_pkcs5_pbkdf2_hmac:ctx <- $r7
	@DEBUG_VALUE: mbedtls_pkcs5_pbkdf2_hmac:i <- $r4
	@DEBUG_VALUE: mbedtls_pkcs5_pbkdf2_hmac:ret <- $r0
	@DEBUG_VALUE: mbedtls_pkcs5_pbkdf2_hmac:key_length <- [DW_OP_plus_uconst 24] [$sp+0]
	@DEBUG_VALUE: mbedtls_pkcs5_pbkdf2_hmac:out_p <- [DW_OP_plus_uconst 20] [$sp+0]
	@DEBUG_VALUE: mbedtls_pkcs5_pbkdf2_hmac:password <- [DW_OP_plus_uconst 32] [$sp+0]
	@DEBUG_VALUE: mbedtls_pkcs5_pbkdf2_hmac:plen <- [DW_OP_plus_uconst 36] [$sp+0]
	@DEBUG_VALUE: mbedtls_pkcs5_pbkdf2_hmac:slen <- [DW_OP_plus_uconst 192] [$sp+0]
	@DEBUG_VALUE: mbedtls_pkcs5_pbkdf2_hmac:iteration_count <- [DW_OP_plus_uconst 196] [$sp+0]
	@DEBUG_VALUE: mbedtls_pkcs5_pbkdf2_hmac:output <- [DW_OP_plus_uconst 204] [$sp+0]
	@DEBUG_VALUE: mbedtls_pkcs5_pbkdf2_hmac:j <- 0
	.loc	1 275 13 is_stmt 1              @ ../../../ThirdParty/mbedTLS/library/pkcs5.c:275:13
	cmp	r5, #0
	beq	.LBB2_8
.Ltmp179:
@ %bb.13:                               @   in Loop: Header=BB2_9 Depth=2
	@DEBUG_VALUE: mbedtls_pkcs5_pbkdf2_hmac:ctx <- $r7
	@DEBUG_VALUE: mbedtls_pkcs5_pbkdf2_hmac:i <- $r4
	@DEBUG_VALUE: mbedtls_pkcs5_pbkdf2_hmac:ret <- $r0
	@DEBUG_VALUE: mbedtls_pkcs5_pbkdf2_hmac:key_length <- [DW_OP_plus_uconst 24] [$sp+0]
	@DEBUG_VALUE: mbedtls_pkcs5_pbkdf2_hmac:out_p <- [DW_OP_plus_uconst 20] [$sp+0]
	@DEBUG_VALUE: mbedtls_pkcs5_pbkdf2_hmac:password <- [DW_OP_plus_uconst 32] [$sp+0]
	@DEBUG_VALUE: mbedtls_pkcs5_pbkdf2_hmac:plen <- [DW_OP_plus_uconst 36] [$sp+0]
	@DEBUG_VALUE: mbedtls_pkcs5_pbkdf2_hmac:slen <- [DW_OP_plus_uconst 192] [$sp+0]
	@DEBUG_VALUE: mbedtls_pkcs5_pbkdf2_hmac:iteration_count <- [DW_OP_plus_uconst 196] [$sp+0]
	@DEBUG_VALUE: mbedtls_pkcs5_pbkdf2_hmac:output <- [DW_OP_plus_uconst 204] [$sp+0]
	@DEBUG_VALUE: mbedtls_pkcs5_pbkdf2_hmac:j <- 0
	.loc	1 0 13 is_stmt 0                @ ../../../ThirdParty/mbedTLS/library/pkcs5.c:0:13
	add	r0, sp, #44
.Ltmp180:
	add	r1, sp, #108
	mov	r2, r5
.Ltmp181:
.LBB2_14:                               @   Parent Loop BB2_2 Depth=1
                                        @     Parent Loop BB2_9 Depth=2
                                        @ =>    This Inner Loop Header: Depth=3
	@DEBUG_VALUE: mbedtls_pkcs5_pbkdf2_hmac:ctx <- $r7
	@DEBUG_VALUE: mbedtls_pkcs5_pbkdf2_hmac:i <- $r4
	@DEBUG_VALUE: mbedtls_pkcs5_pbkdf2_hmac:key_length <- [DW_OP_plus_uconst 24] [$sp+0]
	@DEBUG_VALUE: mbedtls_pkcs5_pbkdf2_hmac:out_p <- [DW_OP_plus_uconst 20] [$sp+0]
	@DEBUG_VALUE: mbedtls_pkcs5_pbkdf2_hmac:password <- [DW_OP_plus_uconst 32] [$sp+0]
	@DEBUG_VALUE: mbedtls_pkcs5_pbkdf2_hmac:plen <- [DW_OP_plus_uconst 36] [$sp+0]
	@DEBUG_VALUE: mbedtls_pkcs5_pbkdf2_hmac:slen <- [DW_OP_plus_uconst 192] [$sp+0]
	@DEBUG_VALUE: mbedtls_pkcs5_pbkdf2_hmac:iteration_count <- [DW_OP_plus_uconst 196] [$sp+0]
	@DEBUG_VALUE: mbedtls_pkcs5_pbkdf2_hmac:output <- [DW_OP_plus_uconst 204] [$sp+0]
	@DEBUG_VALUE: mbedtls_pkcs5_pbkdf2_hmac:j <- undef
	.loc	1 276 28 is_stmt 1              @ ../../../ThirdParty/mbedTLS/library/pkcs5.c:276:28
	ldrb	r3, [r1]
	.loc	1 276 25 is_stmt 0              @ ../../../ThirdParty/mbedTLS/library/pkcs5.c:276:25
	ldrb	r6, [r0]
	eors	r6, r3
	strb	r6, [r0]
	.loc	1 275 27 is_stmt 1              @ ../../../ThirdParty/mbedTLS/library/pkcs5.c:275:27
	adds	r1, r1, #1
	adds	r0, r0, #1
.Ltmp182:
	@DEBUG_VALUE: mbedtls_pkcs5_pbkdf2_hmac:j <- [DW_OP_plus_uconst 1, DW_OP_stack_value] undef
	subs	r2, r2, #1
.Ltmp183:
	.loc	1 275 13 is_stmt 0              @ ../../../ThirdParty/mbedTLS/library/pkcs5.c:275:13
	bne	.LBB2_14
	b	.LBB2_8
.Ltmp184:
.LBB2_15:                               @   in Loop: Header=BB2_2 Depth=1
	@DEBUG_VALUE: mbedtls_pkcs5_pbkdf2_hmac:ctx <- $r7
	@DEBUG_VALUE: mbedtls_pkcs5_pbkdf2_hmac:key_length <- [DW_OP_plus_uconst 24] [$sp+0]
	@DEBUG_VALUE: mbedtls_pkcs5_pbkdf2_hmac:out_p <- [DW_OP_plus_uconst 20] [$sp+0]
	@DEBUG_VALUE: mbedtls_pkcs5_pbkdf2_hmac:password <- [DW_OP_plus_uconst 32] [$sp+0]
	@DEBUG_VALUE: mbedtls_pkcs5_pbkdf2_hmac:plen <- [DW_OP_plus_uconst 36] [$sp+0]
	@DEBUG_VALUE: mbedtls_pkcs5_pbkdf2_hmac:slen <- [DW_OP_plus_uconst 192] [$sp+0]
	@DEBUG_VALUE: mbedtls_pkcs5_pbkdf2_hmac:iteration_count <- [DW_OP_plus_uconst 196] [$sp+0]
	@DEBUG_VALUE: mbedtls_pkcs5_pbkdf2_hmac:output <- [DW_OP_plus_uconst 204] [$sp+0]
	.loc	1 0 13                          @ ../../../ThirdParty/mbedTLS/library/pkcs5.c:0:13
	ldr	r4, [sp, #24]                   @ 4-byte Reload
	.loc	1 279 19 is_stmt 1              @ ../../../ThirdParty/mbedTLS/library/pkcs5.c:279:19
	cmp	r4, r5
	blo	.LBB2_17
.Ltmp185:
@ %bb.16:                               @   in Loop: Header=BB2_2 Depth=1
	@DEBUG_VALUE: mbedtls_pkcs5_pbkdf2_hmac:ctx <- $r7
	@DEBUG_VALUE: mbedtls_pkcs5_pbkdf2_hmac:key_length <- [DW_OP_plus_uconst 24] [$sp+0]
	@DEBUG_VALUE: mbedtls_pkcs5_pbkdf2_hmac:out_p <- [DW_OP_plus_uconst 20] [$sp+0]
	@DEBUG_VALUE: mbedtls_pkcs5_pbkdf2_hmac:password <- [DW_OP_plus_uconst 32] [$sp+0]
	@DEBUG_VALUE: mbedtls_pkcs5_pbkdf2_hmac:plen <- [DW_OP_plus_uconst 36] [$sp+0]
	@DEBUG_VALUE: mbedtls_pkcs5_pbkdf2_hmac:slen <- [DW_OP_plus_uconst 192] [$sp+0]
	@DEBUG_VALUE: mbedtls_pkcs5_pbkdf2_hmac:iteration_count <- [DW_OP_plus_uconst 196] [$sp+0]
	@DEBUG_VALUE: mbedtls_pkcs5_pbkdf2_hmac:output <- [DW_OP_plus_uconst 204] [$sp+0]
	mov	r4, r5
.Ltmp186:
.LBB2_17:                               @   in Loop: Header=BB2_2 Depth=1
	@DEBUG_VALUE: mbedtls_pkcs5_pbkdf2_hmac:ctx <- $r7
	@DEBUG_VALUE: mbedtls_pkcs5_pbkdf2_hmac:key_length <- [DW_OP_plus_uconst 24] [$sp+0]
	@DEBUG_VALUE: mbedtls_pkcs5_pbkdf2_hmac:out_p <- [DW_OP_plus_uconst 20] [$sp+0]
	@DEBUG_VALUE: mbedtls_pkcs5_pbkdf2_hmac:password <- [DW_OP_plus_uconst 32] [$sp+0]
	@DEBUG_VALUE: mbedtls_pkcs5_pbkdf2_hmac:plen <- [DW_OP_plus_uconst 36] [$sp+0]
	@DEBUG_VALUE: mbedtls_pkcs5_pbkdf2_hmac:slen <- [DW_OP_plus_uconst 192] [$sp+0]
	@DEBUG_VALUE: mbedtls_pkcs5_pbkdf2_hmac:iteration_count <- [DW_OP_plus_uconst 196] [$sp+0]
	@DEBUG_VALUE: mbedtls_pkcs5_pbkdf2_hmac:output <- [DW_OP_plus_uconst 204] [$sp+0]
	@DEBUG_VALUE: mbedtls_pkcs5_pbkdf2_hmac:use_len <- $r4
	.loc	1 0 19 is_stmt 0                @ ../../../ThirdParty/mbedTLS/library/pkcs5.c:0:19
	add	r1, sp, #44
	ldr	r6, [sp, #20]                   @ 4-byte Reload
	.loc	1 280 9 is_stmt 1               @ ../../../ThirdParty/mbedTLS/library/pkcs5.c:280:9
	mov	r0, r6
	mov	r2, r4
	bl	__aeabi_memcpy
	.loc	1 283 15                        @ ../../../ThirdParty/mbedTLS/library/pkcs5.c:283:15
	adds	r6, r6, r4
.Ltmp187:
	@DEBUG_VALUE: mbedtls_pkcs5_pbkdf2_hmac:out_p <- $r6
	.loc	1 0 15 is_stmt 0                @ ../../../ThirdParty/mbedTLS/library/pkcs5.c:0:15
	str	r6, [sp, #20]                   @ 4-byte Spill
.Ltmp188:
	@DEBUG_VALUE: mbedtls_pkcs5_pbkdf2_hmac:out_p <- [DW_OP_plus_uconst 20] [$sp+0]
	@DEBUG_VALUE: mbedtls_pkcs5_pbkdf2_hmac:out_p <- [DW_OP_plus_uconst 20] [$sp+0]
	ldr	r3, [sp, #24]                   @ 4-byte Reload
	.loc	1 282 20 is_stmt 1              @ ../../../ThirdParty/mbedTLS/library/pkcs5.c:282:20
	subs	r3, r3, r4
.Ltmp189:
	@DEBUG_VALUE: mbedtls_pkcs5_pbkdf2_hmac:key_length <- $r3
	.loc	1 0 20 is_stmt 0                @ ../../../ThirdParty/mbedTLS/library/pkcs5.c:0:20
	movs	r0, #3
.Ltmp190:
	@DEBUG_VALUE: mbedtls_pkcs5_pbkdf2_hmac:i <- 4
.LBB2_18:                               @   Parent Loop BB2_2 Depth=1
                                        @ =>  This Inner Loop Header: Depth=2
	@DEBUG_VALUE: mbedtls_pkcs5_pbkdf2_hmac:ctx <- $r7
	@DEBUG_VALUE: mbedtls_pkcs5_pbkdf2_hmac:use_len <- $r4
	@DEBUG_VALUE: mbedtls_pkcs5_pbkdf2_hmac:key_length <- $r3
	@DEBUG_VALUE: mbedtls_pkcs5_pbkdf2_hmac:out_p <- [DW_OP_plus_uconst 20] [$sp+0]
	@DEBUG_VALUE: mbedtls_pkcs5_pbkdf2_hmac:password <- [DW_OP_plus_uconst 32] [$sp+0]
	@DEBUG_VALUE: mbedtls_pkcs5_pbkdf2_hmac:plen <- [DW_OP_plus_uconst 36] [$sp+0]
	@DEBUG_VALUE: mbedtls_pkcs5_pbkdf2_hmac:slen <- [DW_OP_plus_uconst 192] [$sp+0]
	@DEBUG_VALUE: mbedtls_pkcs5_pbkdf2_hmac:iteration_count <- [DW_OP_plus_uconst 196] [$sp+0]
	@DEBUG_VALUE: mbedtls_pkcs5_pbkdf2_hmac:output <- [DW_OP_plus_uconst 204] [$sp+0]
	@DEBUG_VALUE: mbedtls_pkcs5_pbkdf2_hmac:i <- undef
	.loc	1 285 23 is_stmt 1              @ ../../../ThirdParty/mbedTLS/library/pkcs5.c:285:23
	adds	r1, r0, #1
.Ltmp191:
	.loc	1 285 9 is_stmt 0               @ ../../../ThirdParty/mbedTLS/library/pkcs5.c:285:9
	bhs	.LBB2_20
.Ltmp192:
@ %bb.19:                               @   in Loop: Header=BB2_18 Depth=2
	@DEBUG_VALUE: mbedtls_pkcs5_pbkdf2_hmac:ctx <- $r7
	@DEBUG_VALUE: mbedtls_pkcs5_pbkdf2_hmac:use_len <- $r4
	@DEBUG_VALUE: mbedtls_pkcs5_pbkdf2_hmac:key_length <- $r3
	@DEBUG_VALUE: mbedtls_pkcs5_pbkdf2_hmac:out_p <- [DW_OP_plus_uconst 20] [$sp+0]
	@DEBUG_VALUE: mbedtls_pkcs5_pbkdf2_hmac:password <- [DW_OP_plus_uconst 32] [$sp+0]
	@DEBUG_VALUE: mbedtls_pkcs5_pbkdf2_hmac:plen <- [DW_OP_plus_uconst 36] [$sp+0]
	@DEBUG_VALUE: mbedtls_pkcs5_pbkdf2_hmac:slen <- [DW_OP_plus_uconst 192] [$sp+0]
	@DEBUG_VALUE: mbedtls_pkcs5_pbkdf2_hmac:iteration_count <- [DW_OP_plus_uconst 196] [$sp+0]
	@DEBUG_VALUE: mbedtls_pkcs5_pbkdf2_hmac:output <- [DW_OP_plus_uconst 204] [$sp+0]
	.loc	1 0 9                           @ ../../../ThirdParty/mbedTLS/library/pkcs5.c:0:9
	add	r1, sp, #40
.Ltmp193:
	.loc	1 286 17 is_stmt 1              @ ../../../ThirdParty/mbedTLS/library/pkcs5.c:286:17
	ldrb	r2, [r1, r0]
	adds	r2, r2, #1
	strb	r2, [r1, r0]
	uxtb	r1, r2
.Ltmp194:
	.loc	1 286 17 is_stmt 0              @ ../../../ThirdParty/mbedTLS/library/pkcs5.c:286:17
	subs	r0, r0, #1
	cmp	r1, r2
	bne	.LBB2_18
.Ltmp195:
.LBB2_20:                               @   in Loop: Header=BB2_2 Depth=1
	@DEBUG_VALUE: mbedtls_pkcs5_pbkdf2_hmac:ctx <- $r7
	@DEBUG_VALUE: mbedtls_pkcs5_pbkdf2_hmac:use_len <- $r4
	@DEBUG_VALUE: mbedtls_pkcs5_pbkdf2_hmac:key_length <- $r3
	@DEBUG_VALUE: mbedtls_pkcs5_pbkdf2_hmac:out_p <- [DW_OP_plus_uconst 20] [$sp+0]
	@DEBUG_VALUE: mbedtls_pkcs5_pbkdf2_hmac:password <- [DW_OP_plus_uconst 32] [$sp+0]
	@DEBUG_VALUE: mbedtls_pkcs5_pbkdf2_hmac:plen <- [DW_OP_plus_uconst 36] [$sp+0]
	@DEBUG_VALUE: mbedtls_pkcs5_pbkdf2_hmac:slen <- [DW_OP_plus_uconst 192] [$sp+0]
	@DEBUG_VALUE: mbedtls_pkcs5_pbkdf2_hmac:iteration_count <- [DW_OP_plus_uconst 196] [$sp+0]
	@DEBUG_VALUE: mbedtls_pkcs5_pbkdf2_hmac:output <- [DW_OP_plus_uconst 204] [$sp+0]
	@DEBUG_VALUE: mbedtls_pkcs5_pbkdf2_hmac:key_length <- $r3
	@DEBUG_VALUE: mbedtls_pkcs5_pbkdf2_hmac:out_p <- [DW_OP_plus_uconst 20] [$sp+0]
	.loc	1 242 5 is_stmt 1               @ ../../../ThirdParty/mbedTLS/library/pkcs5.c:242:5
	cmp	r3, #0
	ldr	r4, [sp, #8]                    @ 4-byte Reload
.Ltmp196:
	bne	.LBB2_2
.Ltmp197:
@ %bb.21:
	@DEBUG_VALUE: mbedtls_pkcs5_pbkdf2_hmac:ctx <- $r7
	@DEBUG_VALUE: mbedtls_pkcs5_pbkdf2_hmac:key_length <- $r3
	@DEBUG_VALUE: mbedtls_pkcs5_pbkdf2_hmac:out_p <- [DW_OP_plus_uconst 20] [$sp+0]
	@DEBUG_VALUE: mbedtls_pkcs5_pbkdf2_hmac:password <- [DW_OP_plus_uconst 32] [$sp+0]
	@DEBUG_VALUE: mbedtls_pkcs5_pbkdf2_hmac:plen <- [DW_OP_plus_uconst 36] [$sp+0]
	@DEBUG_VALUE: mbedtls_pkcs5_pbkdf2_hmac:slen <- [DW_OP_plus_uconst 192] [$sp+0]
	@DEBUG_VALUE: mbedtls_pkcs5_pbkdf2_hmac:iteration_count <- [DW_OP_plus_uconst 196] [$sp+0]
	@DEBUG_VALUE: mbedtls_pkcs5_pbkdf2_hmac:output <- [DW_OP_plus_uconst 204] [$sp+0]
	.loc	1 0 0 is_stmt 0                 @ ../../../ThirdParty/mbedTLS/library/pkcs5.c:0:0
	ldr	r0, [sp, #4]                    @ 4-byte Reload
.Ltmp198:
.LBB2_22:
	@DEBUG_VALUE: mbedtls_pkcs5_pbkdf2_hmac:ctx <- $r7
	@DEBUG_VALUE: mbedtls_pkcs5_pbkdf2_hmac:out_p <- [DW_OP_plus_uconst 20] [$sp+0]
	@DEBUG_VALUE: mbedtls_pkcs5_pbkdf2_hmac:password <- [DW_OP_plus_uconst 32] [$sp+0]
	@DEBUG_VALUE: mbedtls_pkcs5_pbkdf2_hmac:plen <- [DW_OP_plus_uconst 36] [$sp+0]
	@DEBUG_VALUE: mbedtls_pkcs5_pbkdf2_hmac:slen <- [DW_OP_plus_uconst 192] [$sp+0]
	@DEBUG_VALUE: mbedtls_pkcs5_pbkdf2_hmac:iteration_count <- [DW_OP_plus_uconst 196] [$sp+0]
	@DEBUG_VALUE: mbedtls_pkcs5_pbkdf2_hmac:output <- [DW_OP_plus_uconst 204] [$sp+0]
	.loc	1 291 1 is_stmt 1               @ ../../../ThirdParty/mbedTLS/library/pkcs5.c:291:1
	add	sp, #172
.Ltmp199:
	pop	{r4, r5, r6, r7, pc}
.Ltmp200:
.LBB2_23:
	@DEBUG_VALUE: mbedtls_pkcs5_pbkdf2_hmac:ctx <- $r7
	@DEBUG_VALUE: mbedtls_pkcs5_pbkdf2_hmac:salt <- $r4
	@DEBUG_VALUE: mbedtls_pkcs5_pbkdf2_hmac:key_length <- $r3
	@DEBUG_VALUE: mbedtls_pkcs5_pbkdf2_hmac:password <- [DW_OP_plus_uconst 32] [$sp+0]
	@DEBUG_VALUE: mbedtls_pkcs5_pbkdf2_hmac:plen <- [DW_OP_plus_uconst 36] [$sp+0]
	@DEBUG_VALUE: mbedtls_pkcs5_pbkdf2_hmac:slen <- [DW_OP_plus_uconst 192] [$sp+0]
	@DEBUG_VALUE: mbedtls_pkcs5_pbkdf2_hmac:iteration_count <- [DW_OP_plus_uconst 196] [$sp+0]
	@DEBUG_VALUE: mbedtls_pkcs5_pbkdf2_hmac:output <- [DW_OP_plus_uconst 204] [$sp+0]
	.loc	1 0 0 is_stmt 0                 @ ../../../ThirdParty/mbedTLS/library/pkcs5.c:0:0
	mov	r0, r1
	.loc	1 291 1                         @ ../../../ThirdParty/mbedTLS/library/pkcs5.c:291:1
	add	sp, #172
.Ltmp201:
	pop	{r4, r5, r6, r7, pc}
.Ltmp202:
.Lfunc_end2:
	.size	mbedtls_pkcs5_pbkdf2_hmac, .Lfunc_end2-mbedtls_pkcs5_pbkdf2_hmac
	.cfi_endproc
	.cantunwind
	.fnend
                                        @ -- End function
	.section	.text.mbedtls_pkcs5_self_test,"ax",%progbits
	.hidden	mbedtls_pkcs5_self_test         @ -- Begin function mbedtls_pkcs5_self_test
	.globl	mbedtls_pkcs5_self_test
	.p2align	2
	.type	mbedtls_pkcs5_self_test,%function
	.code	16                              @ @mbedtls_pkcs5_self_test
	.thumb_func
mbedtls_pkcs5_self_test:
.Lfunc_begin3:
	.loc	1 362 0 is_stmt 1               @ ../../../ThirdParty/mbedTLS/library/pkcs5.c:362:0
	.fnstart
	.cfi_startproc
@ %bb.0:
	@DEBUG_VALUE: mbedtls_pkcs5_self_test:verbose <- $r0
	.save	{r4, r5, r6, r7, lr}
	push	{r4, r5, r6, r7, lr}
	.cfi_def_cfa_offset 20
	.cfi_offset lr, -4
	.cfi_offset r7, -8
	.cfi_offset r6, -12
	.cfi_offset r5, -16
	.cfi_offset r4, -20
	.pad	#124
	sub	sp, #124
	.cfi_def_cfa_offset 144
	mov	r7, r0
.Ltmp203:
	@DEBUG_VALUE: mbedtls_pkcs5_self_test:verbose <- $r7
	add	r0, sp, #112
.Ltmp204:
	.loc	1 368 5 prologue_end            @ ../../../ThirdParty/mbedTLS/library/pkcs5.c:368:5
	bl	mbedtls_md_init
	movs	r0, #4
	.loc	1 370 17                        @ ../../../ThirdParty/mbedTLS/library/pkcs5.c:370:17
	bl	mbedtls_md_info_from_type
.Ltmp205:
	@DEBUG_VALUE: mbedtls_pkcs5_self_test:info_sha1 <- $r0
	.loc	1 371 9                         @ ../../../ThirdParty/mbedTLS/library/pkcs5.c:371:9
	cmp	r0, #0
	beq	.LBB3_10
.Ltmp206:
@ %bb.1:
	@DEBUG_VALUE: mbedtls_pkcs5_self_test:verbose <- $r7
	@DEBUG_VALUE: mbedtls_pkcs5_self_test:info_sha1 <- $r0
	.loc	1 0 0 is_stmt 0                 @ ../../../ThirdParty/mbedTLS/library/pkcs5.c:0:0
	mov	r1, r0
.Ltmp207:
	@DEBUG_VALUE: mbedtls_pkcs5_self_test:info_sha1 <- $r1
	add	r0, sp, #112
	movs	r4, #1
.Ltmp208:
	.loc	1 377 17 is_stmt 1              @ ../../../ThirdParty/mbedTLS/library/pkcs5.c:377:17
	mov	r2, r4
	bl	mbedtls_md_setup
.Ltmp209:
	@DEBUG_VALUE: mbedtls_pkcs5_self_test:ret <- $r0
	.loc	1 377 9 is_stmt 0               @ ../../../ThirdParty/mbedTLS/library/pkcs5.c:377:9
	cmp	r0, #0
	bne	.LBB3_16
.Ltmp210:
@ %bb.2:
	@DEBUG_VALUE: mbedtls_pkcs5_self_test:verbose <- $r7
	@DEBUG_VALUE: mbedtls_pkcs5_self_test:ret <- $r0
	.loc	1 0 9                           @ ../../../ThirdParty/mbedTLS/library/pkcs5.c:0:9
	str	r4, [sp, #20]                   @ 4-byte Spill
	movs	r6, #0
	adr	r0, .LCPI3_0
.Ltmp211:
	str	r0, [sp, #44]                   @ 4-byte Spill
	adr	r0, .LCPI3_1
	str	r0, [sp, #40]                   @ 4-byte Spill
	adr	r0, .LCPI3_2
	str	r0, [sp, #36]                   @ 4-byte Spill
	adr	r0, .LCPI3_3
	str	r0, [sp, #32]                   @ 4-byte Spill
	ldr	r0, __arm_cp.3_4
	str	r0, [sp, #28]                   @ 4-byte Spill
	ldr	r4, __arm_cp.3_5
	ldr	r5, __arm_cp.3_6
.Ltmp212:
	@DEBUG_VALUE: mbedtls_pkcs5_self_test:i <- 0
	@DEBUG_VALUE: mbedtls_pkcs5_self_test:ret <- 0
	str	r7, [sp, #24]                   @ 4-byte Spill
	b	.LBB3_4
.Ltmp213:
.LBB3_3:                                @   in Loop: Header=BB3_4 Depth=1
	@DEBUG_VALUE: mbedtls_pkcs5_self_test:i <- $r6
	.loc	1 383 19 is_stmt 1              @ ../../../ThirdParty/mbedTLS/library/pkcs5.c:383:19
	adds	r5, #32
	adds	r4, #40
	ldr	r0, [sp, #28]                   @ 4-byte Reload
	adds	r0, #32
	str	r0, [sp, #28]                   @ 4-byte Spill
	ldr	r0, [sp, #32]                   @ 4-byte Reload
	adds	r0, r0, #4
	str	r0, [sp, #32]                   @ 4-byte Spill
	ldr	r0, [sp, #36]                   @ 4-byte Reload
	adds	r0, r0, #4
	str	r0, [sp, #36]                   @ 4-byte Spill
	ldr	r0, [sp, #40]                   @ 4-byte Reload
	adds	r0, r0, #4
.Ltmp214:
	@DEBUG_VALUE: mbedtls_pkcs5_self_test:ret <- 0
	str	r0, [sp, #40]                   @ 4-byte Spill
	ldr	r0, [sp, #44]                   @ 4-byte Reload
	adds	r0, r0, #4
	.loc	1 383 33 is_stmt 0              @ ../../../ThirdParty/mbedTLS/library/pkcs5.c:383:33
	str	r0, [sp, #44]                   @ 4-byte Spill
	adds	r6, r6, #1
.Ltmp215:
	@DEBUG_VALUE: mbedtls_pkcs5_self_test:i <- $r6
	.loc	1 383 5                         @ ../../../ThirdParty/mbedTLS/library/pkcs5.c:383:5
	cmp	r6, #6
	beq	.LBB3_13
.Ltmp216:
.LBB3_4:                                @ =>This Inner Loop Header: Depth=1
	@DEBUG_VALUE: mbedtls_pkcs5_self_test:ret <- 0
	@DEBUG_VALUE: mbedtls_pkcs5_self_test:i <- $r6
	.loc	1 385 13 is_stmt 1              @ ../../../ThirdParty/mbedTLS/library/pkcs5.c:385:13
	cbz	r7, .LBB3_6
.Ltmp217:
@ %bb.5:                                @   in Loop: Header=BB3_4 Depth=1
	@DEBUG_VALUE: mbedtls_pkcs5_self_test:i <- $r6
	@DEBUG_VALUE: mbedtls_pkcs5_self_test:ret <- 0
	.loc	1 386 13                        @ ../../../ThirdParty/mbedTLS/library/pkcs5.c:386:13
	adr	r0, .LCPI3_7
	mov	r1, r6
	bl	__2printf
.Ltmp218:
.LBB3_6:                                @   in Loop: Header=BB3_4 Depth=1
	@DEBUG_VALUE: mbedtls_pkcs5_self_test:i <- $r6
	@DEBUG_VALUE: mbedtls_pkcs5_self_test:ret <- 0
	.loc	1 388 66                        @ ../../../ThirdParty/mbedTLS/library/pkcs5.c:388:66
	ldr	r0, [sp, #32]                   @ 4-byte Reload
	ldr	r2, [r0]
	.loc	1 389 42                        @ ../../../ThirdParty/mbedTLS/library/pkcs5.c:389:42
	ldr	r0, [sp, #36]                   @ 4-byte Reload
	ldr	r0, [r0]
	.loc	1 389 51 is_stmt 0              @ ../../../ThirdParty/mbedTLS/library/pkcs5.c:389:51
	ldr	r1, [sp, #40]                   @ 4-byte Reload
	ldr	r1, [r1]
	.loc	1 389 62                        @ ../../../ThirdParty/mbedTLS/library/pkcs5.c:389:62
	ldr	r3, [sp, #44]                   @ 4-byte Reload
	ldr	r7, [r3]
.Ltmp219:
	@DEBUG_VALUE: mbedtls_pkcs5_self_test:verbose <- [DW_OP_LLVM_entry_value 1] $r0
	.loc	1 0 62                          @ ../../../ThirdParty/mbedTLS/library/pkcs5.c:0:62
	add	r3, sp, #48
	.loc	1 388 15 is_stmt 1              @ ../../../ThirdParty/mbedTLS/library/pkcs5.c:388:15
	str	r0, [sp]
	str	r1, [sp, #4]
	str	r7, [sp, #8]
	str	r3, [sp, #12]
	add	r0, sp, #112
	ldr	r1, [sp, #28]                   @ 4-byte Reload
	mov	r3, r4
	bl	mbedtls_pkcs5_pbkdf2_hmac
.Ltmp220:
	@DEBUG_VALUE: mbedtls_pkcs5_self_test:ret <- $r0
	.loc	1 390 22                        @ ../../../ThirdParty/mbedTLS/library/pkcs5.c:390:22
	cbnz	r0, .LBB3_11
.Ltmp221:
@ %bb.7:                                @   in Loop: Header=BB3_4 Depth=1
	@DEBUG_VALUE: mbedtls_pkcs5_self_test:i <- $r6
	@DEBUG_VALUE: mbedtls_pkcs5_self_test:ret <- $r0
	.loc	1 0 22 is_stmt 0                @ ../../../ThirdParty/mbedTLS/library/pkcs5.c:0:22
	add	r1, sp, #48
	.loc	1 391 17 is_stmt 1              @ ../../../ThirdParty/mbedTLS/library/pkcs5.c:391:17
	mov	r0, r5
.Ltmp222:
	mov	r2, r7
	bl	memcmp
.Ltmp223:
	.loc	1 390 13                        @ ../../../ThirdParty/mbedTLS/library/pkcs5.c:390:13
	cbnz	r0, .LBB3_11
.Ltmp224:
@ %bb.8:                                @   in Loop: Header=BB3_4 Depth=1
	@DEBUG_VALUE: mbedtls_pkcs5_self_test:i <- $r6
	.loc	1 0 13 is_stmt 0                @ ../../../ThirdParty/mbedTLS/library/pkcs5.c:0:13
	ldr	r7, [sp, #24]                   @ 4-byte Reload
	.loc	1 400 13 is_stmt 1              @ ../../../ThirdParty/mbedTLS/library/pkcs5.c:400:13
	cmp	r7, #0
	beq	.LBB3_3
.Ltmp225:
@ %bb.9:                                @   in Loop: Header=BB3_4 Depth=1
	@DEBUG_VALUE: mbedtls_pkcs5_self_test:i <- $r6
	.loc	1 401 13                        @ ../../../ThirdParty/mbedTLS/library/pkcs5.c:401:13
	adr	r0, .LCPI3_9
	bl	puts
	b	.LBB3_3
.Ltmp226:
.LBB3_10:
	@DEBUG_VALUE: mbedtls_pkcs5_self_test:verbose <- $r7
	@DEBUG_VALUE: mbedtls_pkcs5_self_test:info_sha1 <- $r0
	.loc	1 0 13 is_stmt 0                @ ../../../ThirdParty/mbedTLS/library/pkcs5.c:0:13
	movs	r4, #1
	b	.LBB3_16
.Ltmp227:
.LBB3_11:
	@DEBUG_VALUE: mbedtls_pkcs5_self_test:i <- $r6
	.loc	1 393 17 is_stmt 1              @ ../../../ThirdParty/mbedTLS/library/pkcs5.c:393:17
	ldr	r0, [sp, #24]                   @ 4-byte Reload
	cbz	r0, .LBB3_15
.Ltmp228:
@ %bb.12:
	@DEBUG_VALUE: mbedtls_pkcs5_self_test:i <- $r6
	.loc	1 394 17                        @ ../../../ThirdParty/mbedTLS/library/pkcs5.c:394:17
	adr	r0, .LCPI3_8
	bl	puts
	ldr	r4, [sp, #20]                   @ 4-byte Reload
	b	.LBB3_16
.Ltmp229:
.LBB3_13:
	@DEBUG_VALUE: mbedtls_pkcs5_self_test:i <- $r6
	@DEBUG_VALUE: mbedtls_pkcs5_self_test:ret <- 0
	.loc	1 0 17 is_stmt 0                @ ../../../ThirdParty/mbedTLS/library/pkcs5.c:0:17
	movs	r4, #0
	.loc	1 404 9 is_stmt 1               @ ../../../ThirdParty/mbedTLS/library/pkcs5.c:404:9
	cbz	r7, .LBB3_16
.Ltmp230:
@ %bb.14:
	@DEBUG_VALUE: mbedtls_pkcs5_self_test:i <- $r6
	@DEBUG_VALUE: mbedtls_pkcs5_self_test:ret <- 0
	.loc	1 0 9 is_stmt 0                 @ ../../../ThirdParty/mbedTLS/library/pkcs5.c:0:9
	movs	r0, #10
.Ltmp231:
	.loc	1 405 9 is_stmt 1               @ ../../../ThirdParty/mbedTLS/library/pkcs5.c:405:9
	bl	putchar
	b	.LBB3_16
.Ltmp232:
.LBB3_15:
	@DEBUG_VALUE: mbedtls_pkcs5_self_test:i <- $r6
	.loc	1 0 9 is_stmt 0                 @ ../../../ThirdParty/mbedTLS/library/pkcs5.c:0:9
	ldr	r4, [sp, #20]                   @ 4-byte Reload
.Ltmp233:
.LBB3_16:
	@DEBUG_VALUE: mbedtls_pkcs5_self_test:ret <- $r4
	@DEBUG_LABEL: mbedtls_pkcs5_self_test:exit
	add	r0, sp, #112
	.loc	1 408 5 is_stmt 1               @ ../../../ThirdParty/mbedTLS/library/pkcs5.c:408:5
	bl	mbedtls_md_free
	.loc	1 410 5                         @ ../../../ThirdParty/mbedTLS/library/pkcs5.c:410:5
	mov	r0, r4
	add	sp, #124
	pop	{r4, r5, r6, r7, pc}
.Ltmp234:
	.p2align	2
@ %bb.17:
	.loc	1 0 5 is_stmt 0                 @ ../../../ThirdParty/mbedTLS/library/pkcs5.c:0:5
.LCPI3_0:
key_len:
	.long	20                              @ 0x14
	.long	20                              @ 0x14
	.long	20                              @ 0x14
	.long	25                              @ 0x19
	.long	16                              @ 0x10
	.long	0                               @ 0x0
.LCPI3_1:
it_cnt:
	.long	1                               @ 0x1
	.long	2                               @ 0x2
	.long	4096                            @ 0x1000
	.long	4096                            @ 0x1000
	.long	4096                            @ 0x1000
	.long	0                               @ 0x0
.LCPI3_2:
slen:
	.long	4                               @ 0x4
	.long	4                               @ 0x4
	.long	4                               @ 0x4
	.long	36                              @ 0x24
	.long	5                               @ 0x5
	.long	0                               @ 0x0
.LCPI3_3:
plen:
	.long	8                               @ 0x8
	.long	8                               @ 0x8
	.long	8                               @ 0x8
	.long	24                              @ 0x18
	.long	9                               @ 0x9
	.long	0                               @ 0x0
__arm_cp.3_4:
	.long	password
.Lcpi_end3:
	.size	__arm_cp.3_4, .Lcpi_end3-__arm_cp.3_4
__arm_cp.3_5:
	.long	salt
.Lcpi_end4:
	.size	__arm_cp.3_5, .Lcpi_end4-__arm_cp.3_5
__arm_cp.3_6:
	.long	result_key
.Lcpi_end5:
	.size	__arm_cp.3_6, .Lcpi_end5-__arm_cp.3_6
.LCPI3_7:
.L.str.1:
	.asciz	"  PBKDF2 (SHA1) #%d: \000\000"
.LCPI3_8:
.Lstr.6:
	.asciz	"failed\000"
.LCPI3_9:
.Lstr:
	.asciz	"passed\000"
.Lfunc_end3:
	.size	mbedtls_pkcs5_self_test, .Lfunc_end3-mbedtls_pkcs5_self_test
	.cfi_endproc
	.cantunwind
	.fnend
                                        @ -- End function
	.type	password,%object                @ @password
	.section	.rodata.password,"a",%progbits
password:
	.asciz	"password\000\000\000\000\000\000\000\000\000\000\000\000\000\000\000\000\000\000\000\000\000\000\000"
	.asciz	"password\000\000\000\000\000\000\000\000\000\000\000\000\000\000\000\000\000\000\000\000\000\000\000"
	.asciz	"password\000\000\000\000\000\000\000\000\000\000\000\000\000\000\000\000\000\000\000\000\000\000\000"
	.asciz	"passwordPASSWORDpassword\000\000\000\000\000\000\000"
	.asciz	"pass\000word\000\000\000\000\000\000\000\000\000\000\000\000\000\000\000\000\000\000\000\000\000\000"
	.zero	32
	.size	password, 192

	.type	salt,%object                    @ @salt
	.section	.rodata.salt,"a",%progbits
salt:
	.asciz	"salt\000\000\000\000\000\000\000\000\000\000\000\000\000\000\000\000\000\000\000\000\000\000\000\000\000\000\000\000\000\000\000\000\000\000\000"
	.asciz	"salt\000\000\000\000\000\000\000\000\000\000\000\000\000\000\000\000\000\000\000\000\000\000\000\000\000\000\000\000\000\000\000\000\000\000\000"
	.asciz	"salt\000\000\000\000\000\000\000\000\000\000\000\000\000\000\000\000\000\000\000\000\000\000\000\000\000\000\000\000\000\000\000\000\000\000\000"
	.asciz	"saltSALTsaltSALTsaltSALTsaltSALTsalt\000\000\000"
	.asciz	"sa\000lt\000\000\000\000\000\000\000\000\000\000\000\000\000\000\000\000\000\000\000\000\000\000\000\000\000\000\000\000\000\000\000\000\000\000"
	.zero	40
	.size	salt, 240

	.type	result_key,%object              @ @result_key
	.section	.rodata.result_key,"a",%progbits
result_key:
	.ascii	"\f`\310\017\226\037\016q\363\251\265$\257`\022\006/\3407\246"
	.zero	12
	.ascii	"\352l\001M\307-o\214\315\036\331*\316\035A\360\330\336\211W"
	.zero	12
	.ascii	"K\000y\001\267eH\232\276\255I\331&\367!\320e\244)\301"
	.zero	12
	.asciz	"=.\354O\344\034\204\233\200\310\3306b\300\344J\213)\032\226L\362\360p8\000\000\000\000\000\000"
	.ascii	"V\372j\247UH\t\235\3147\327\3604%\340\303"
	.zero	16
	.zero	32
	.size	result_key, 192

	.globl	_printf_percent
	.globl	_printf_d
	.globl	_printf_int_dec
	.hidden	_printf_percent
	.hidden	_printf_d
	.hidden	_printf_int_dec
	.file	6 "C:\\Users\\shw26\\OneDrive\\Desktop\\2021\\2021-1\\\354\272\241\354\212\244\355\206\244\353\224\224\354\236\220\354\235\2702\\Nuvoton\\M2351_BSP_v3.00.004\\M2351Series_BSP_CMSIS_V3.00.004\\MyProject\\PulseMonitoring\\Secure" "../../../ThirdParty/mbedTLS/include/mbedtls\\asn1.h"
	.section	".note.GNU-stack","",%progbits
	.eabi_attribute	30, 1	@ Tag_ABI_optimization_goals
	.ARM_attribute	16, 1	@ Tag_AV_eba