	.text
	.syntax unified
	.eabi_attribute	67, "2.09"	@ Tag_conformance
	.cpu	cortex-m23
	.eabi_attribute	6, 16	@ Tag_CPU_arch
	.eabi_attribute	7, 77	@ Tag_CPU_arch_profile
	.eabi_attribute	8, 0	@ Tag_ARM_ISA_use
	.eabi_attribute	9, 3	@ Tag_THUMB_ISA_use
	.eabi_attribute	34, 0	@ Tag_CPU_unaligned_access
	.eabi_attribute	17, 1	@ Tag_ABI_PCS_GOT_use
	.eabi_attribute	20, 2	@ Tag_ABI_FP_denormal
	.eabi_attribute	21, 0	@ Tag_ABI_FP_exceptions
	.eabi_attribute	23, 1	@ Tag_ABI_FP_number_model
	.eabi_attribute	24, 1	@ Tag_ABI_align_needed
	.eabi_attribute	25, 1	@ Tag_ABI_align_preserved
	.eabi_attribute	38, 1	@ Tag_ABI_FP_16bit_format
	.eabi_attribute	18, 2	@ Tag_ABI_PCS_wchar_t
	.eabi_attribute	26, 1	@ Tag_ABI_enum_size
	.eabi_attribute	14, 0	@ Tag_ABI_PCS_R9_use
	.file	"pkcs12.c"
	.file	1 "C:\\Users\\shw26\\OneDrive\\Desktop\\2021\\2021-1\\\354\272\241\354\212\244\355\206\244\353\224\224\354\236\220\354\235\2702\\Nuvoton\\M2351_BSP_v3.00.004\\M2351Series_BSP_CMSIS_V3.00.004\\MyProject\\PulseMonitoring\\Secure" "../../../ThirdParty/mbedTLS/include/mbedtls/md.h"
	.file	2 "C:\\Users\\shw26\\OneDrive\\Desktop\\2021\\2021-1\\\354\272\241\354\212\244\355\206\244\353\224\224\354\236\220\354\235\2702\\Nuvoton\\M2351_BSP_v3.00.004\\M2351Series_BSP_CMSIS_V3.00.004\\MyProject\\PulseMonitoring\\Secure" "../../../ThirdParty/mbedTLS/include/mbedtls\\cipher.h"
	.file	3 "C:\\" "Keil_v5\\ARM\\ARMCLANG\\Bin\\..\\include\\stddef.h"
	.section	.text.mbedtls_pkcs12_pbe_sha1_rc4_128,"ax",%progbits
	.hidden	mbedtls_pkcs12_pbe_sha1_rc4_128 @ -- Begin function mbedtls_pkcs12_pbe_sha1_rc4_128
	.globl	mbedtls_pkcs12_pbe_sha1_rc4_128
	.p2align	1
	.type	mbedtls_pkcs12_pbe_sha1_rc4_128,%function
	.code	16                              @ @mbedtls_pkcs12_pbe_sha1_rc4_128
	.thumb_func
mbedtls_pkcs12_pbe_sha1_rc4_128:
.Lfunc_begin0:
	.file	4 "C:\\Users\\shw26\\OneDrive\\Desktop\\2021\\2021-1\\\354\272\241\354\212\244\355\206\244\353\224\224\354\236\220\354\235\2702\\Nuvoton\\M2351_BSP_v3.00.004\\M2351Series_BSP_CMSIS_V3.00.004\\MyProject\\PulseMonitoring\\Secure" "../../../ThirdParty/mbedTLS/library/pkcs12.c"
	.loc	4 137 0                         @ ../../../ThirdParty/mbedTLS/library/pkcs12.c:137:0
	.fnstart
	.cfi_sections .debug_frame
	.cfi_startproc
@ %bb.0:
	@DEBUG_VALUE: mbedtls_pkcs12_pbe_sha1_rc4_128:pbe_params <- $r0
	@DEBUG_VALUE: mbedtls_pkcs12_pbe_sha1_rc4_128:mode <- $r1
	@DEBUG_VALUE: mbedtls_pkcs12_pbe_sha1_rc4_128:pwd <- $r2
	@DEBUG_VALUE: mbedtls_pkcs12_pbe_sha1_rc4_128:pwdlen <- $r3
	.save	{r4, r5, r6, r7, lr}
	push	{r4, r5, r6, r7, lr}
	.cfi_def_cfa_offset 20
	.cfi_offset lr, -4
	.cfi_offset r7, -8
	.cfi_offset r6, -12
	.cfi_offset r5, -16
	.cfi_offset r4, -20
	.pad	#308
	sub	sp, #308
	.cfi_def_cfa_offset 328
	mov	r4, r3
	mov	r5, r2
	mov	r6, r0
.Ltmp0:
	@DEBUG_VALUE: mbedtls_pkcs12_pbe_sha1_rc4_128:output <- [DW_OP_plus_uconst 336] [$sp+0]
	@DEBUG_VALUE: mbedtls_pkcs12_pbe_sha1_rc4_128:len <- [DW_OP_plus_uconst 332] [$sp+0]
	@DEBUG_VALUE: mbedtls_pkcs12_pbe_sha1_rc4_128:data <- [DW_OP_plus_uconst 328] [$sp+0]
	@DEBUG_VALUE: mbedtls_pkcs12_pbe_sha1_rc4_128:pwdlen <- $r4
	@DEBUG_VALUE: mbedtls_pkcs12_pbe_sha1_rc4_128:pwd <- $r5
	@DEBUG_VALUE: mbedtls_pkcs12_pbe_sha1_rc4_128:pbe_params <- $r6
	add	r0, sp, #28
.Ltmp1:
	.loc	4 153 5 prologue_end            @ ../../../ThirdParty/mbedTLS/library/pkcs12.c:153:5
	bl	mbedtls_arc4_init
.Ltmp2:
	@DEBUG_VALUE: mbedtls_pkcs12_pbe_sha1_rc4_128:mode <- [DW_OP_LLVM_entry_value 1] $r1
	.loc	4 0 5 is_stmt 0                 @ ../../../ThirdParty/mbedTLS/library/pkcs12.c:0:5
	movs	r0, #0
.Ltmp3:
	.loc	4 155 17 is_stmt 1              @ ../../../ThirdParty/mbedTLS/library/pkcs12.c:155:17
	str	r0, [sp, #12]
	str	r0, [sp, #8]
	movs	r0, #16
	str	r0, [sp, #4]
	add	r0, sp, #292
	str	r0, [sp]
	movs	r1, #4
	mov	r0, r6
.Ltmp4:
	@DEBUG_VALUE: mbedtls_pkcs12_pbe_sha1_rc4_128:pbe_params <- $r0
	mov	r2, r5
.Ltmp5:
	@DEBUG_VALUE: mbedtls_pkcs12_pbe_sha1_rc4_128:pwd <- $r2
	mov	r3, r4
.Ltmp6:
	@DEBUG_VALUE: mbedtls_pkcs12_pbe_sha1_rc4_128:pwdlen <- $r3
	bl	pkcs12_pbe_derive_key_iv
.Ltmp7:
	mov	r5, r0
.Ltmp8:
	@DEBUG_VALUE: mbedtls_pkcs12_pbe_sha1_rc4_128:ret <- $r5
	.loc	4 155 9 is_stmt 0               @ ../../../ThirdParty/mbedTLS/library/pkcs12.c:155:9
	cbnz	r0, .LBB0_2
.Ltmp9:
@ %bb.1:
	@DEBUG_VALUE: mbedtls_pkcs12_pbe_sha1_rc4_128:ret <- $r5
	@DEBUG_VALUE: mbedtls_pkcs12_pbe_sha1_rc4_128:data <- [DW_OP_plus_uconst 328] [$sp+0]
	@DEBUG_VALUE: mbedtls_pkcs12_pbe_sha1_rc4_128:len <- [DW_OP_plus_uconst 332] [$sp+0]
	@DEBUG_VALUE: mbedtls_pkcs12_pbe_sha1_rc4_128:output <- [DW_OP_plus_uconst 336] [$sp+0]
	@DEBUG_VALUE: mbedtls_pkcs12_pbe_sha1_rc4_128:mode <- [DW_OP_LLVM_entry_value 1] $r1
	.loc	4 0 9                           @ ../../../ThirdParty/mbedTLS/library/pkcs12.c:0:9
	ldr	r0, [sp, #336]
	str	r0, [sp, #24]                   @ 4-byte Spill
	ldr	r5, [sp, #332]
.Ltmp10:
	ldr	r0, [sp, #328]
	.loc	4 162 5 is_stmt 1               @ ../../../ThirdParty/mbedTLS/library/pkcs12.c:162:5
	str	r0, [sp, #20]                   @ 4-byte Spill
	add	r4, sp, #28
	add	r6, sp, #292
	movs	r7, #16
	mov	r0, r4
	mov	r1, r6
	mov	r2, r7
	bl	mbedtls_arc4_setup
.Ltmp11:
	.loc	4 163 17                        @ ../../../ThirdParty/mbedTLS/library/pkcs12.c:163:17
	mov	r0, r4
	mov	r1, r5
	ldr	r2, [sp, #20]                   @ 4-byte Reload
	ldr	r3, [sp, #24]                   @ 4-byte Reload
	bl	mbedtls_arc4_crypt
	mov	r5, r0
.Ltmp12:
	@DEBUG_LABEL: mbedtls_pkcs12_pbe_sha1_rc4_128:exit
	@DEBUG_VALUE: mbedtls_pkcs12_pbe_sha1_rc4_128:ret <- $r5
	.loc	4 167 5                         @ ../../../ThirdParty/mbedTLS/library/pkcs12.c:167:5
	mov	r0, r6
	mov	r1, r7
	bl	mbedtls_platform_zeroize
	.loc	4 168 5                         @ ../../../ThirdParty/mbedTLS/library/pkcs12.c:168:5
	mov	r0, r4
	bl	mbedtls_arc4_free
.Ltmp13:
.LBB0_2:
	@DEBUG_VALUE: mbedtls_pkcs12_pbe_sha1_rc4_128:ret <- $r5
	@DEBUG_VALUE: mbedtls_pkcs12_pbe_sha1_rc4_128:data <- [DW_OP_plus_uconst 328] [$sp+0]
	@DEBUG_VALUE: mbedtls_pkcs12_pbe_sha1_rc4_128:len <- [DW_OP_plus_uconst 332] [$sp+0]
	@DEBUG_VALUE: mbedtls_pkcs12_pbe_sha1_rc4_128:output <- [DW_OP_plus_uconst 336] [$sp+0]
	@DEBUG_VALUE: mbedtls_pkcs12_pbe_sha1_rc4_128:mode <- [DW_OP_LLVM_entry_value 1] $r1
	.loc	4 172 1                         @ ../../../ThirdParty/mbedTLS/library/pkcs12.c:172:1
	mov	r0, r5
	add	sp, #308
.Ltmp14:
	pop	{r4, r5, r6, r7, pc}
.Ltmp15:
.Lfunc_end0:
	.size	mbedtls_pkcs12_pbe_sha1_rc4_128, .Lfunc_end0-mbedtls_pkcs12_pbe_sha1_rc4_128
	.cfi_endproc
	.cantunwind
	.fnend
                                        @ -- End function
	.section	.text.pkcs12_pbe_derive_key_iv,"ax",%progbits
	.p2align	2                               @ -- Begin function pkcs12_pbe_derive_key_iv
	.type	pkcs12_pbe_derive_key_iv,%function
	.code	16                              @ @pkcs12_pbe_derive_key_iv
	.thumb_func
pkcs12_pbe_derive_key_iv:
.Lfunc_begin1:
	.loc	4 93 0                          @ ../../../ThirdParty/mbedTLS/library/pkcs12.c:93:0
	.fnstart
	.cfi_startproc
@ %bb.0:
	@DEBUG_VALUE: pkcs12_pbe_derive_key_iv:pbe_params <- $r0
	@DEBUG_VALUE: pkcs12_pbe_derive_key_iv:md_type <- $r1
	@DEBUG_VALUE: pkcs12_pbe_derive_key_iv:pwd <- $r2
	@DEBUG_VALUE: pkcs12_pbe_derive_key_iv:pwdlen <- $r3
	.save	{r4, r5, r6, r7, lr}
	push	{r4, r5, r6, r7, lr}
	.cfi_def_cfa_offset 20
	.cfi_offset lr, -4
	.cfi_offset r7, -8
	.cfi_offset r6, -12
	.cfi_offset r5, -16
	.cfi_offset r4, -20
	.pad	#300
	sub	sp, #300
	.cfi_def_cfa_offset 320
	movs	r4, #0
.Ltmp16:
	@DEBUG_VALUE: pkcs12_pbe_derive_key_iv:iterations <- 0
	@DEBUG_VALUE: pkcs12_pbe_derive_key_iv:ivlen <- [DW_OP_plus_uconst 332] [$sp+0]
	@DEBUG_VALUE: pkcs12_pbe_derive_key_iv:iv <- [DW_OP_plus_uconst 328] [$sp+0]
	@DEBUG_VALUE: pkcs12_pbe_derive_key_iv:keylen <- [DW_OP_plus_uconst 324] [$sp+0]
	@DEBUG_VALUE: pkcs12_pbe_derive_key_iv:key <- [DW_OP_plus_uconst 320] [$sp+0]
	@DEBUG_VALUE: pkcs12_pbe_derive_key_iv:pwdlen <- $r3
	@DEBUG_VALUE: pkcs12_pbe_derive_key_iv:pwd <- $r2
	@DEBUG_VALUE: pkcs12_pbe_derive_key_iv:md_type <- $r1
	@DEBUG_VALUE: pkcs12_pbe_derive_key_iv:pbe_params <- $r0
	.loc	4 94 14 prologue_end            @ ../../../ThirdParty/mbedTLS/library/pkcs12.c:94:14
	str	r4, [sp, #296]
	.loc	4 99 9                          @ ../../../ThirdParty/mbedTLS/library/pkcs12.c:99:9
	cmp	r3, #128
	bls	.LBB1_2
.Ltmp17:
@ %bb.1:
	@DEBUG_VALUE: pkcs12_pbe_derive_key_iv:pwdlen <- $r3
	@DEBUG_VALUE: pkcs12_pbe_derive_key_iv:pwd <- $r2
	@DEBUG_VALUE: pkcs12_pbe_derive_key_iv:md_type <- $r1
	@DEBUG_VALUE: pkcs12_pbe_derive_key_iv:pbe_params <- $r0
	@DEBUG_VALUE: pkcs12_pbe_derive_key_iv:key <- [DW_OP_plus_uconst 320] [$sp+0]
	@DEBUG_VALUE: pkcs12_pbe_derive_key_iv:keylen <- [DW_OP_plus_uconst 324] [$sp+0]
	@DEBUG_VALUE: pkcs12_pbe_derive_key_iv:iv <- [DW_OP_plus_uconst 328] [$sp+0]
	@DEBUG_VALUE: pkcs12_pbe_derive_key_iv:ivlen <- [DW_OP_plus_uconst 332] [$sp+0]
	@DEBUG_VALUE: pkcs12_pbe_derive_key_iv:iterations <- 0
	.loc	4 0 9 is_stmt 0                 @ ../../../ThirdParty/mbedTLS/library/pkcs12.c:0:9
	ldr	r0, __arm_cp.1_0
.Ltmp18:
	@DEBUG_VALUE: pkcs12_pbe_derive_key_iv:pbe_params <- [DW_OP_LLVM_entry_value 1] $r0
	.loc	4 129 1 is_stmt 1               @ ../../../ThirdParty/mbedTLS/library/pkcs12.c:129:1
	add	sp, #300
.Ltmp19:
	pop	{r4, r5, r6, r7, pc}
.Ltmp20:
.LBB1_2:
	@DEBUG_VALUE: pkcs12_pbe_derive_key_iv:pwdlen <- $r3
	@DEBUG_VALUE: pkcs12_pbe_derive_key_iv:pwd <- $r2
	@DEBUG_VALUE: pkcs12_pbe_derive_key_iv:md_type <- $r1
	@DEBUG_VALUE: pkcs12_pbe_derive_key_iv:pbe_params <- $r0
	@DEBUG_VALUE: pkcs12_pbe_derive_key_iv:key <- [DW_OP_plus_uconst 320] [$sp+0]
	@DEBUG_VALUE: pkcs12_pbe_derive_key_iv:keylen <- [DW_OP_plus_uconst 324] [$sp+0]
	@DEBUG_VALUE: pkcs12_pbe_derive_key_iv:iv <- [DW_OP_plus_uconst 328] [$sp+0]
	@DEBUG_VALUE: pkcs12_pbe_derive_key_iv:ivlen <- [DW_OP_plus_uconst 332] [$sp+0]
	@DEBUG_VALUE: pkcs12_pbe_derive_key_iv:iterations <- 0
	.loc	4 0 1 is_stmt 0                 @ ../../../ThirdParty/mbedTLS/library/pkcs12.c:0:1
	mov	r5, r3
.Ltmp21:
	@DEBUG_VALUE: pkcs12_pbe_derive_key_iv:pwdlen <- $r5
	mov	r6, r2
.Ltmp22:
	@DEBUG_VALUE: pkcs12_pbe_derive_key_iv:pwd <- $r6
	mov	r7, r0
.Ltmp23:
	@DEBUG_VALUE: pkcs12_pbe_derive_key_iv:pbe_params <- $r7
	@DEBUG_VALUE: pkcs12_pbe_derive_key_iv:md_type <- $r1
	str	r1, [sp, #20]                   @ 4-byte Spill
.Ltmp24:
	@DEBUG_VALUE: pkcs12_pbe_derive_key_iv:md_type <- [DW_OP_plus_uconst 20] [$sp+0]
	@DEBUG_VALUE: pkcs12_pbe_derive_key_iv:md_type <- [DW_OP_plus_uconst 20] [$sp+0]
	.loc	4 102 5 is_stmt 1               @ ../../../ThirdParty/mbedTLS/library/pkcs12.c:102:5
	str	r4, [sp, #292]
	str	r4, [sp, #288]
	str	r4, [sp, #284]
	add	r0, sp, #24
	.loc	4 103 5                         @ ../../../ThirdParty/mbedTLS/library/pkcs12.c:103:5
	movw	r1, #258
	bl	__aeabi_memclr4
.Ltmp25:
	@DEBUG_VALUE: pkcs12_pbe_derive_key_iv:iterations <- [DW_OP_plus_uconst 296, DW_OP_deref] $sp
	.loc	4 0 5 is_stmt 0                 @ ../../../ThirdParty/mbedTLS/library/pkcs12.c:0:5
	add	r1, sp, #284
	add	r2, sp, #296
.Ltmp26:
	.loc	4 105 17 is_stmt 1              @ ../../../ThirdParty/mbedTLS/library/pkcs12.c:105:17
	mov	r0, r7
	bl	pkcs12_parse_pbe_params
.Ltmp27:
	@DEBUG_VALUE: pkcs12_pbe_derive_key_iv:ret <- $r0
	.loc	4 105 9 is_stmt 0               @ ../../../ThirdParty/mbedTLS/library/pkcs12.c:105:9
	cbz	r0, .LBB1_4
.Ltmp28:
.LBB1_3:
	@DEBUG_VALUE: pkcs12_pbe_derive_key_iv:md_type <- [DW_OP_plus_uconst 20] [$sp+0]
	@DEBUG_VALUE: pkcs12_pbe_derive_key_iv:key <- [DW_OP_plus_uconst 320] [$sp+0]
	@DEBUG_VALUE: pkcs12_pbe_derive_key_iv:keylen <- [DW_OP_plus_uconst 324] [$sp+0]
	@DEBUG_VALUE: pkcs12_pbe_derive_key_iv:iv <- [DW_OP_plus_uconst 328] [$sp+0]
	@DEBUG_VALUE: pkcs12_pbe_derive_key_iv:ivlen <- [DW_OP_plus_uconst 332] [$sp+0]
	.loc	4 129 1 is_stmt 1               @ ../../../ThirdParty/mbedTLS/library/pkcs12.c:129:1
	add	sp, #300
.Ltmp29:
	pop	{r4, r5, r6, r7, pc}
.LBB1_4:
.Ltmp30:
	@DEBUG_VALUE: pkcs12_pbe_derive_key_iv:pbe_params <- $r7
	@DEBUG_VALUE: pkcs12_pbe_derive_key_iv:pwd <- $r6
	@DEBUG_VALUE: pkcs12_pbe_derive_key_iv:pwdlen <- $r5
	@DEBUG_VALUE: pkcs12_pbe_derive_key_iv:ret <- $r0
	@DEBUG_VALUE: pkcs12_pbe_derive_key_iv:iterations <- [DW_OP_plus_uconst 296, DW_OP_deref] $sp
	@DEBUG_VALUE: pkcs12_pbe_derive_key_iv:md_type <- [DW_OP_plus_uconst 20] [$sp+0]
	@DEBUG_VALUE: pkcs12_pbe_derive_key_iv:key <- [DW_OP_plus_uconst 320] [$sp+0]
	@DEBUG_VALUE: pkcs12_pbe_derive_key_iv:keylen <- [DW_OP_plus_uconst 324] [$sp+0]
	@DEBUG_VALUE: pkcs12_pbe_derive_key_iv:iv <- [DW_OP_plus_uconst 328] [$sp+0]
	@DEBUG_VALUE: pkcs12_pbe_derive_key_iv:ivlen <- [DW_OP_plus_uconst 332] [$sp+0]
	.loc	4 0 1 is_stmt 0                 @ ../../../ThirdParty/mbedTLS/library/pkcs12.c:0:1
	ldr	r1, [sp, #324]
	ldr	r0, [sp, #320]
.Ltmp31:
	@DEBUG_VALUE: pkcs12_pbe_derive_key_iv:i <- 0
	@DEBUG_VALUE: pkcs12_pbe_derive_key_iv:md_type <- [DW_OP_plus_uconst 20] [$sp+0]
	.loc	4 109 5 is_stmt 1               @ ../../../ThirdParty/mbedTLS/library/pkcs12.c:109:5
	cbz	r5, .LBB1_7
.Ltmp32:
@ %bb.5:
	@DEBUG_VALUE: pkcs12_pbe_derive_key_iv:pbe_params <- $r7
	@DEBUG_VALUE: pkcs12_pbe_derive_key_iv:pwd <- $r6
	@DEBUG_VALUE: pkcs12_pbe_derive_key_iv:pwdlen <- $r5
	@DEBUG_VALUE: pkcs12_pbe_derive_key_iv:iterations <- [DW_OP_plus_uconst 296, DW_OP_deref] $sp
	@DEBUG_VALUE: pkcs12_pbe_derive_key_iv:md_type <- [DW_OP_plus_uconst 20] [$sp+0]
	@DEBUG_VALUE: pkcs12_pbe_derive_key_iv:key <- [DW_OP_plus_uconst 320] [$sp+0]
	@DEBUG_VALUE: pkcs12_pbe_derive_key_iv:keylen <- [DW_OP_plus_uconst 324] [$sp+0]
	@DEBUG_VALUE: pkcs12_pbe_derive_key_iv:iv <- [DW_OP_plus_uconst 328] [$sp+0]
	@DEBUG_VALUE: pkcs12_pbe_derive_key_iv:ivlen <- [DW_OP_plus_uconst 332] [$sp+0]
	@DEBUG_VALUE: pkcs12_pbe_derive_key_iv:i <- 0
	.loc	4 0 5 is_stmt 0                 @ ../../../ThirdParty/mbedTLS/library/pkcs12.c:0:5
	add	r2, sp, #24
	.loc	4 109 5                         @ ../../../ThirdParty/mbedTLS/library/pkcs12.c:109:5
	adds	r2, r2, #1
	mov	r3, r5
.Ltmp33:
.LBB1_6:                                @ =>This Inner Loop Header: Depth=1
	@DEBUG_VALUE: pkcs12_pbe_derive_key_iv:pwdlen <- $r5
	@DEBUG_VALUE: pkcs12_pbe_derive_key_iv:iterations <- [DW_OP_plus_uconst 296, DW_OP_deref] $sp
	@DEBUG_VALUE: pkcs12_pbe_derive_key_iv:md_type <- [DW_OP_plus_uconst 20] [$sp+0]
	@DEBUG_VALUE: pkcs12_pbe_derive_key_iv:key <- [DW_OP_plus_uconst 320] [$sp+0]
	@DEBUG_VALUE: pkcs12_pbe_derive_key_iv:keylen <- [DW_OP_plus_uconst 324] [$sp+0]
	@DEBUG_VALUE: pkcs12_pbe_derive_key_iv:iv <- [DW_OP_plus_uconst 328] [$sp+0]
	@DEBUG_VALUE: pkcs12_pbe_derive_key_iv:ivlen <- [DW_OP_plus_uconst 332] [$sp+0]
	@DEBUG_VALUE: pkcs12_pbe_derive_key_iv:i <- undef
	.loc	4 110 29 is_stmt 1              @ ../../../ThirdParty/mbedTLS/library/pkcs12.c:110:29
	ldrb	r7, [r6]
.Ltmp34:
	@DEBUG_VALUE: pkcs12_pbe_derive_key_iv:pbe_params <- [DW_OP_LLVM_entry_value 1] $r0
	.loc	4 110 27 is_stmt 0              @ ../../../ThirdParty/mbedTLS/library/pkcs12.c:110:27
	strb	r7, [r2]
	.loc	4 109 19 is_stmt 1              @ ../../../ThirdParty/mbedTLS/library/pkcs12.c:109:19
	adds	r2, r2, #2
	adds	r6, r6, #1
.Ltmp35:
	@DEBUG_VALUE: pkcs12_pbe_derive_key_iv:pwd <- [DW_OP_LLVM_entry_value 1] $r2
	@DEBUG_VALUE: pkcs12_pbe_derive_key_iv:i <- [DW_OP_plus_uconst 1, DW_OP_stack_value] undef
	subs	r3, r3, #1
.Ltmp36:
	.loc	4 109 5 is_stmt 0               @ ../../../ThirdParty/mbedTLS/library/pkcs12.c:109:5
	bne	.LBB1_6
.Ltmp37:
.LBB1_7:
	@DEBUG_VALUE: pkcs12_pbe_derive_key_iv:pwdlen <- $r5
	@DEBUG_VALUE: pkcs12_pbe_derive_key_iv:iterations <- [DW_OP_plus_uconst 296, DW_OP_deref] $sp
	@DEBUG_VALUE: pkcs12_pbe_derive_key_iv:md_type <- [DW_OP_plus_uconst 20] [$sp+0]
	@DEBUG_VALUE: pkcs12_pbe_derive_key_iv:key <- [DW_OP_plus_uconst 320] [$sp+0]
	@DEBUG_VALUE: pkcs12_pbe_derive_key_iv:keylen <- [DW_OP_plus_uconst 324] [$sp+0]
	@DEBUG_VALUE: pkcs12_pbe_derive_key_iv:iv <- [DW_OP_plus_uconst 328] [$sp+0]
	@DEBUG_VALUE: pkcs12_pbe_derive_key_iv:ivlen <- [DW_OP_plus_uconst 332] [$sp+0]
	.loc	4 113 49 is_stmt 1              @ ../../../ThirdParty/mbedTLS/library/pkcs12.c:113:49
	ldr	r2, [sp, #292]
	.loc	4 113 57 is_stmt 0              @ ../../../ThirdParty/mbedTLS/library/pkcs12.c:113:57
	ldr	r3, [sp, #288]
	.loc	4 114 71 is_stmt 1              @ ../../../ThirdParty/mbedTLS/library/pkcs12.c:114:71
	ldr	r6, [sp, #296]
.Ltmp38:
	@DEBUG_VALUE: pkcs12_pbe_derive_key_iv:iterations <- $r6
	.loc	4 0 71 is_stmt 0                @ ../../../ThirdParty/mbedTLS/library/pkcs12.c:0:71
	movs	r7, #1
	.loc	4 112 17 is_stmt 1              @ ../../../ThirdParty/mbedTLS/library/pkcs12.c:112:17
	str	r2, [sp]
	str	r3, [sp, #4]
	ldr	r2, [sp, #20]                   @ 4-byte Reload
	str	r2, [sp, #8]
	str	r7, [sp, #12]
	str	r6, [sp, #16]
	.loc	4 112 72 is_stmt 0              @ ../../../ThirdParty/mbedTLS/library/pkcs12.c:112:72
	lsls	r2, r5, #1
	.loc	4 112 76                        @ ../../../ThirdParty/mbedTLS/library/pkcs12.c:112:76
	adds	r5, r2, #2
.Ltmp39:
	@DEBUG_VALUE: pkcs12_pbe_derive_key_iv:pwdlen <- [DW_OP_LLVM_entry_value 1] $r3
	.loc	4 0 76                          @ ../../../ThirdParty/mbedTLS/library/pkcs12.c:0:76
	add	r2, sp, #24
	.loc	4 112 17                        @ ../../../ThirdParty/mbedTLS/library/pkcs12.c:112:17
	mov	r3, r5
	bl	mbedtls_pkcs12_derivation
.Ltmp40:
	@DEBUG_VALUE: pkcs12_pbe_derive_key_iv:ret <- $r0
	.loc	4 112 9                         @ ../../../ThirdParty/mbedTLS/library/pkcs12.c:112:9
	cmp	r0, #0
	bne	.LBB1_3
.Ltmp41:
@ %bb.8:
	@DEBUG_VALUE: pkcs12_pbe_derive_key_iv:iterations <- $r6
	@DEBUG_VALUE: pkcs12_pbe_derive_key_iv:ret <- $r0
	@DEBUG_VALUE: pkcs12_pbe_derive_key_iv:md_type <- [DW_OP_plus_uconst 20] [$sp+0]
	@DEBUG_VALUE: pkcs12_pbe_derive_key_iv:key <- [DW_OP_plus_uconst 320] [$sp+0]
	@DEBUG_VALUE: pkcs12_pbe_derive_key_iv:keylen <- [DW_OP_plus_uconst 324] [$sp+0]
	@DEBUG_VALUE: pkcs12_pbe_derive_key_iv:iv <- [DW_OP_plus_uconst 328] [$sp+0]
	@DEBUG_VALUE: pkcs12_pbe_derive_key_iv:ivlen <- [DW_OP_plus_uconst 332] [$sp+0]
	@DEBUG_VALUE: pkcs12_pbe_derive_key_iv:pwdlen <- [DW_OP_LLVM_entry_value 1] $r3
	.loc	4 0 9                           @ ../../../ThirdParty/mbedTLS/library/pkcs12.c:0:9
	ldr	r3, [sp, #328]
.Ltmp42:
	.loc	4 119 20 is_stmt 1              @ ../../../ThirdParty/mbedTLS/library/pkcs12.c:119:20
	cbz	r3, .LBB1_11
.Ltmp43:
@ %bb.9:
	@DEBUG_VALUE: pkcs12_pbe_derive_key_iv:iterations <- $r6
	@DEBUG_VALUE: pkcs12_pbe_derive_key_iv:ret <- $r0
	@DEBUG_VALUE: pkcs12_pbe_derive_key_iv:md_type <- [DW_OP_plus_uconst 20] [$sp+0]
	@DEBUG_VALUE: pkcs12_pbe_derive_key_iv:key <- [DW_OP_plus_uconst 320] [$sp+0]
	@DEBUG_VALUE: pkcs12_pbe_derive_key_iv:keylen <- [DW_OP_plus_uconst 324] [$sp+0]
	@DEBUG_VALUE: pkcs12_pbe_derive_key_iv:iv <- [DW_OP_plus_uconst 328] [$sp+0]
	@DEBUG_VALUE: pkcs12_pbe_derive_key_iv:ivlen <- [DW_OP_plus_uconst 332] [$sp+0]
	@DEBUG_VALUE: pkcs12_pbe_derive_key_iv:pwdlen <- [DW_OP_LLVM_entry_value 1] $r3
	.loc	4 0 20 is_stmt 0                @ ../../../ThirdParty/mbedTLS/library/pkcs12.c:0:20
	ldr	r1, [sp, #332]
	.loc	4 119 20                        @ ../../../ThirdParty/mbedTLS/library/pkcs12.c:119:20
	cmp	r1, #0
.Ltmp44:
	.loc	4 0 0                           @ ../../../ThirdParty/mbedTLS/library/pkcs12.c:0:0
	mov	r0, r4
.Ltmp45:
	.loc	4 119 20                        @ ../../../ThirdParty/mbedTLS/library/pkcs12.c:119:20
	beq	.LBB1_3
.Ltmp46:
@ %bb.10:
	@DEBUG_VALUE: pkcs12_pbe_derive_key_iv:iterations <- $r6
	@DEBUG_VALUE: pkcs12_pbe_derive_key_iv:md_type <- [DW_OP_plus_uconst 20] [$sp+0]
	@DEBUG_VALUE: pkcs12_pbe_derive_key_iv:key <- [DW_OP_plus_uconst 320] [$sp+0]
	@DEBUG_VALUE: pkcs12_pbe_derive_key_iv:keylen <- [DW_OP_plus_uconst 324] [$sp+0]
	@DEBUG_VALUE: pkcs12_pbe_derive_key_iv:iv <- [DW_OP_plus_uconst 328] [$sp+0]
	@DEBUG_VALUE: pkcs12_pbe_derive_key_iv:ivlen <- [DW_OP_plus_uconst 332] [$sp+0]
	@DEBUG_VALUE: pkcs12_pbe_derive_key_iv:pwdlen <- [DW_OP_LLVM_entry_value 1] $r3
	.loc	4 123 49 is_stmt 1              @ ../../../ThirdParty/mbedTLS/library/pkcs12.c:123:49
	ldr	r0, [sp, #292]
	.loc	4 123 57 is_stmt 0              @ ../../../ThirdParty/mbedTLS/library/pkcs12.c:123:57
	ldr	r2, [sp, #288]
	.loc	4 124 70 is_stmt 1              @ ../../../ThirdParty/mbedTLS/library/pkcs12.c:124:70
	ldr	r4, [sp, #296]
.Ltmp47:
	@DEBUG_VALUE: pkcs12_pbe_derive_key_iv:iterations <- $r4
	.loc	4 0 70 is_stmt 0                @ ../../../ThirdParty/mbedTLS/library/pkcs12.c:0:70
	movs	r6, #2
	.loc	4 122 17 is_stmt 1              @ ../../../ThirdParty/mbedTLS/library/pkcs12.c:122:17
	str	r0, [sp]
	str	r2, [sp, #4]
	ldr	r0, [sp, #20]                   @ 4-byte Reload
	str	r0, [sp, #8]
	str	r6, [sp, #12]
	str	r4, [sp, #16]
	add	r2, sp, #24
	mov	r0, r3
	mov	r3, r5
	bl	mbedtls_pkcs12_derivation
.Ltmp48:
	@DEBUG_VALUE: pkcs12_pbe_derive_key_iv:ret <- $r0
	.loc	4 129 1                         @ ../../../ThirdParty/mbedTLS/library/pkcs12.c:129:1
	add	sp, #300
.Ltmp49:
	pop	{r4, r5, r6, r7, pc}
.Ltmp50:
.LBB1_11:
	@DEBUG_VALUE: pkcs12_pbe_derive_key_iv:iterations <- $r6
	@DEBUG_VALUE: pkcs12_pbe_derive_key_iv:ret <- $r0
	@DEBUG_VALUE: pkcs12_pbe_derive_key_iv:md_type <- [DW_OP_plus_uconst 20] [$sp+0]
	@DEBUG_VALUE: pkcs12_pbe_derive_key_iv:key <- [DW_OP_plus_uconst 320] [$sp+0]
	@DEBUG_VALUE: pkcs12_pbe_derive_key_iv:keylen <- [DW_OP_plus_uconst 324] [$sp+0]
	@DEBUG_VALUE: pkcs12_pbe_derive_key_iv:iv <- [DW_OP_plus_uconst 328] [$sp+0]
	@DEBUG_VALUE: pkcs12_pbe_derive_key_iv:ivlen <- [DW_OP_plus_uconst 332] [$sp+0]
	@DEBUG_VALUE: pkcs12_pbe_derive_key_iv:pwdlen <- [DW_OP_LLVM_entry_value 1] $r3
	.loc	4 0 0 is_stmt 0                 @ ../../../ThirdParty/mbedTLS/library/pkcs12.c:0:0
	mov	r0, r4
.Ltmp51:
	.loc	4 129 1                         @ ../../../ThirdParty/mbedTLS/library/pkcs12.c:129:1
	add	sp, #300
.Ltmp52:
	pop	{r4, r5, r6, r7, pc}
.Ltmp53:
	.p2align	2
@ %bb.12:
	.loc	4 0 1                           @ ../../../ThirdParty/mbedTLS/library/pkcs12.c:0:1
__arm_cp.1_0:
	.long	4294959232                      @ 0xffffe080
.Lcpi_end0:
	.size	__arm_cp.1_0, .Lcpi_end0-__arm_cp.1_0
.Lfunc_end1:
	.size	pkcs12_pbe_derive_key_iv, .Lfunc_end1-pkcs12_pbe_derive_key_iv
	.cfi_endproc
	.cantunwind
	.fnend
                                        @ -- End function
	.section	.text.mbedtls_pkcs12_pbe,"ax",%progbits
	.hidden	mbedtls_pkcs12_pbe              @ -- Begin function mbedtls_pkcs12_pbe
	.globl	mbedtls_pkcs12_pbe
	.p2align	2
	.type	mbedtls_pkcs12_pbe,%function
	.code	16                              @ @mbedtls_pkcs12_pbe
	.thumb_func
mbedtls_pkcs12_pbe:
.Lfunc_begin2:
	.loc	4 179 0 is_stmt 1               @ ../../../ThirdParty/mbedTLS/library/pkcs12.c:179:0
	.fnstart
	.cfi_startproc
@ %bb.0:
	@DEBUG_VALUE: mbedtls_pkcs12_pbe:pbe_params <- $r0
	@DEBUG_VALUE: mbedtls_pkcs12_pbe:mode <- $r1
	@DEBUG_VALUE: mbedtls_pkcs12_pbe:cipher_type <- $r2
	@DEBUG_VALUE: mbedtls_pkcs12_pbe:md_type <- $r3
	.save	{r4, r5, r6, r7, lr}
	push	{r4, r5, r6, r7, lr}
	.cfi_def_cfa_offset 20
	.cfi_offset lr, -4
	.cfi_offset r7, -8
	.cfi_offset r6, -12
	.cfi_offset r5, -16
	.cfi_offset r4, -20
	.pad	#140
	sub	sp, #140
	.cfi_def_cfa_offset 160
	mov	r4, r3
	mov	r7, r1
	mov	r6, r0
	movs	r0, #0
.Ltmp54:
	@DEBUG_VALUE: mbedtls_pkcs12_pbe:pbe_params <- [DW_OP_LLVM_entry_value 1] $r0
	@DEBUG_VALUE: mbedtls_pkcs12_pbe:olen <- 0
	@DEBUG_VALUE: mbedtls_pkcs12_pbe:keylen <- 0
	@DEBUG_VALUE: mbedtls_pkcs12_pbe:output <- [DW_OP_plus_uconst 176] [$sp+0]
	@DEBUG_VALUE: mbedtls_pkcs12_pbe:len <- [DW_OP_plus_uconst 172] [$sp+0]
	@DEBUG_VALUE: mbedtls_pkcs12_pbe:data <- [DW_OP_plus_uconst 168] [$sp+0]
	@DEBUG_VALUE: mbedtls_pkcs12_pbe:pwdlen <- [DW_OP_plus_uconst 164] [$sp+0]
	@DEBUG_VALUE: mbedtls_pkcs12_pbe:pwd <- [DW_OP_plus_uconst 160] [$sp+0]
	@DEBUG_VALUE: mbedtls_pkcs12_pbe:md_type <- $r4
	@DEBUG_VALUE: mbedtls_pkcs12_pbe:cipher_type <- $r2
	@DEBUG_VALUE: mbedtls_pkcs12_pbe:mode <- $r7
	@DEBUG_VALUE: mbedtls_pkcs12_pbe:pbe_params <- $r6
	.loc	4 185 12 prologue_end           @ ../../../ThirdParty/mbedTLS/library/pkcs12.c:185:12
	str	r0, [sp, #24]
	.loc	4 187 19                        @ ../../../ThirdParty/mbedTLS/library/pkcs12.c:187:19
	mov	r0, r2
.Ltmp55:
	@DEBUG_VALUE: mbedtls_pkcs12_pbe:cipher_type <- $r0
	bl	mbedtls_cipher_info_from_type
.Ltmp56:
	@DEBUG_VALUE: mbedtls_pkcs12_pbe:cipher_info <- $r0
	.loc	4 188 9                         @ ../../../ThirdParty/mbedTLS/library/pkcs12.c:188:9
	cmp	r0, #0
	beq	.LBB2_9
.Ltmp57:
@ %bb.1:
	@DEBUG_VALUE: mbedtls_pkcs12_pbe:mode <- $r7
	@DEBUG_VALUE: mbedtls_pkcs12_pbe:pbe_params <- $r6
	@DEBUG_VALUE: mbedtls_pkcs12_pbe:md_type <- $r4
	@DEBUG_VALUE: mbedtls_pkcs12_pbe:cipher_info <- $r0
	@DEBUG_VALUE: mbedtls_pkcs12_pbe:pwd <- [DW_OP_plus_uconst 160] [$sp+0]
	@DEBUG_VALUE: mbedtls_pkcs12_pbe:pwdlen <- [DW_OP_plus_uconst 164] [$sp+0]
	@DEBUG_VALUE: mbedtls_pkcs12_pbe:data <- [DW_OP_plus_uconst 168] [$sp+0]
	@DEBUG_VALUE: mbedtls_pkcs12_pbe:len <- [DW_OP_plus_uconst 172] [$sp+0]
	@DEBUG_VALUE: mbedtls_pkcs12_pbe:output <- [DW_OP_plus_uconst 176] [$sp+0]
	@DEBUG_VALUE: mbedtls_pkcs12_pbe:keylen <- 0
	@DEBUG_VALUE: mbedtls_pkcs12_pbe:olen <- 0
	.loc	4 0 9 is_stmt 0                 @ ../../../ThirdParty/mbedTLS/library/pkcs12.c:0:9
	mov	r5, r0
.Ltmp58:
	@DEBUG_VALUE: mbedtls_pkcs12_pbe:cipher_info <- $r5
	str	r7, [sp, #20]                   @ 4-byte Spill
.Ltmp59:
	@DEBUG_VALUE: mbedtls_pkcs12_pbe:mode <- [DW_OP_plus_uconst 20] [$sp+0]
	ldr	r3, [sp, #164]
	ldr	r2, [sp, #160]
	@DEBUG_VALUE: mbedtls_pkcs12_pbe:md_type <- $r4
	.loc	4 191 27 is_stmt 1              @ ../../../ThirdParty/mbedTLS/library/pkcs12.c:191:27
	ldr	r7, [r0, #4]
.Ltmp60:
	.loc	4 195 60                        @ ../../../ThirdParty/mbedTLS/library/pkcs12.c:195:60
	ldr	r0, [r0, #12]
	.loc	4 193 17                        @ ../../../ThirdParty/mbedTLS/library/pkcs12.c:193:17
	str	r0, [sp, #12]
	add	r0, sp, #92
	str	r0, [sp, #8]
.Ltmp61:
	.loc	4 191 38                        @ ../../../ThirdParty/mbedTLS/library/pkcs12.c:191:38
	lsrs	r0, r7, #3
.Ltmp62:
	@DEBUG_VALUE: mbedtls_pkcs12_pbe:keylen <- $r0
	.loc	4 193 17                        @ ../../../ThirdParty/mbedTLS/library/pkcs12.c:193:17
	str	r0, [sp, #4]
	add	r0, sp, #108
.Ltmp63:
	str	r0, [sp]
	mov	r0, r6
	mov	r1, r4
	bl	pkcs12_pbe_derive_key_iv
	mov	r4, r0
.Ltmp64:
	@DEBUG_VALUE: mbedtls_pkcs12_pbe:ret <- $r4
	.loc	4 193 9 is_stmt 0               @ ../../../ThirdParty/mbedTLS/library/pkcs12.c:193:9
	cmp	r0, #0
	bne	.LBB2_12
.Ltmp65:
@ %bb.2:
	@DEBUG_VALUE: mbedtls_pkcs12_pbe:mode <- [DW_OP_plus_uconst 20] [$sp+0]
	@DEBUG_VALUE: mbedtls_pkcs12_pbe:pbe_params <- $r6
	@DEBUG_VALUE: mbedtls_pkcs12_pbe:cipher_info <- $r5
	@DEBUG_VALUE: mbedtls_pkcs12_pbe:ret <- $r4
	@DEBUG_VALUE: mbedtls_pkcs12_pbe:pwd <- [DW_OP_plus_uconst 160] [$sp+0]
	@DEBUG_VALUE: mbedtls_pkcs12_pbe:pwdlen <- [DW_OP_plus_uconst 164] [$sp+0]
	@DEBUG_VALUE: mbedtls_pkcs12_pbe:data <- [DW_OP_plus_uconst 168] [$sp+0]
	@DEBUG_VALUE: mbedtls_pkcs12_pbe:len <- [DW_OP_plus_uconst 172] [$sp+0]
	@DEBUG_VALUE: mbedtls_pkcs12_pbe:output <- [DW_OP_plus_uconst 176] [$sp+0]
	@DEBUG_VALUE: mbedtls_pkcs12_pbe:olen <- 0
	.loc	4 0 9                           @ ../../../ThirdParty/mbedTLS/library/pkcs12.c:0:9
	add	r4, sp, #28
.Ltmp66:
	.loc	4 200 5 is_stmt 1               @ ../../../ThirdParty/mbedTLS/library/pkcs12.c:200:5
	mov	r0, r4
	bl	mbedtls_cipher_init
.Ltmp67:
	.loc	4 202 17                        @ ../../../ThirdParty/mbedTLS/library/pkcs12.c:202:17
	mov	r0, r4
	mov	r1, r5
	bl	mbedtls_cipher_setup
	mov	r4, r0
.Ltmp68:
	@DEBUG_VALUE: mbedtls_pkcs12_pbe:ret <- $r4
	.loc	4 202 9 is_stmt 0               @ ../../../ThirdParty/mbedTLS/library/pkcs12.c:202:9
	cbnz	r0, .LBB2_11
.Ltmp69:
@ %bb.3:
	@DEBUG_VALUE: mbedtls_pkcs12_pbe:mode <- [DW_OP_plus_uconst 20] [$sp+0]
	@DEBUG_VALUE: mbedtls_pkcs12_pbe:pbe_params <- $r6
	@DEBUG_VALUE: mbedtls_pkcs12_pbe:cipher_info <- $r5
	@DEBUG_VALUE: mbedtls_pkcs12_pbe:ret <- $r4
	@DEBUG_VALUE: mbedtls_pkcs12_pbe:pwd <- [DW_OP_plus_uconst 160] [$sp+0]
	@DEBUG_VALUE: mbedtls_pkcs12_pbe:pwdlen <- [DW_OP_plus_uconst 164] [$sp+0]
	@DEBUG_VALUE: mbedtls_pkcs12_pbe:data <- [DW_OP_plus_uconst 168] [$sp+0]
	@DEBUG_VALUE: mbedtls_pkcs12_pbe:len <- [DW_OP_plus_uconst 172] [$sp+0]
	@DEBUG_VALUE: mbedtls_pkcs12_pbe:output <- [DW_OP_plus_uconst 176] [$sp+0]
	@DEBUG_VALUE: mbedtls_pkcs12_pbe:olen <- 0
	.loc	4 0 9                           @ ../../../ThirdParty/mbedTLS/library/pkcs12.c:0:9
	movs	r0, #7
.Ltmp70:
	.loc	4 205 60 is_stmt 1              @ ../../../ThirdParty/mbedTLS/library/pkcs12.c:205:60
	bics	r7, r0
	.loc	4 205 17 is_stmt 0              @ ../../../ThirdParty/mbedTLS/library/pkcs12.c:205:17
	ldr	r0, [sp, #20]                   @ 4-byte Reload
.Ltmp71:
	@DEBUG_VALUE: mbedtls_pkcs12_pbe:mode <- $r0
	sxtb	r3, r0
	add	r0, sp, #28
.Ltmp72:
	.loc	4 0 17                          @ ../../../ThirdParty/mbedTLS/library/pkcs12.c:0:17
	add	r1, sp, #108
	.loc	4 205 17                        @ ../../../ThirdParty/mbedTLS/library/pkcs12.c:205:17
	mov	r2, r7
	bl	mbedtls_cipher_setkey
	mov	r4, r0
.Ltmp73:
	@DEBUG_VALUE: mbedtls_pkcs12_pbe:ret <- $r4
	.loc	4 205 9                         @ ../../../ThirdParty/mbedTLS/library/pkcs12.c:205:9
	cbnz	r0, .LBB2_11
.Ltmp74:
@ %bb.4:
	@DEBUG_VALUE: mbedtls_pkcs12_pbe:pbe_params <- $r6
	@DEBUG_VALUE: mbedtls_pkcs12_pbe:cipher_info <- $r5
	@DEBUG_VALUE: mbedtls_pkcs12_pbe:ret <- $r4
	@DEBUG_VALUE: mbedtls_pkcs12_pbe:pwd <- [DW_OP_plus_uconst 160] [$sp+0]
	@DEBUG_VALUE: mbedtls_pkcs12_pbe:pwdlen <- [DW_OP_plus_uconst 164] [$sp+0]
	@DEBUG_VALUE: mbedtls_pkcs12_pbe:data <- [DW_OP_plus_uconst 168] [$sp+0]
	@DEBUG_VALUE: mbedtls_pkcs12_pbe:len <- [DW_OP_plus_uconst 172] [$sp+0]
	@DEBUG_VALUE: mbedtls_pkcs12_pbe:output <- [DW_OP_plus_uconst 176] [$sp+0]
	@DEBUG_VALUE: mbedtls_pkcs12_pbe:olen <- 0
	.loc	4 208 70 is_stmt 1              @ ../../../ThirdParty/mbedTLS/library/pkcs12.c:208:70
	ldr	r2, [r5, #12]
	add	r0, sp, #28
	add	r1, sp, #92
	.loc	4 208 17 is_stmt 0              @ ../../../ThirdParty/mbedTLS/library/pkcs12.c:208:17
	bl	mbedtls_cipher_set_iv
	mov	r4, r0
.Ltmp75:
	@DEBUG_VALUE: mbedtls_pkcs12_pbe:ret <- $r4
	.loc	4 208 9                         @ ../../../ThirdParty/mbedTLS/library/pkcs12.c:208:9
	cbnz	r0, .LBB2_11
.Ltmp76:
@ %bb.5:
	@DEBUG_VALUE: mbedtls_pkcs12_pbe:pbe_params <- $r6
	@DEBUG_VALUE: mbedtls_pkcs12_pbe:cipher_info <- $r5
	@DEBUG_VALUE: mbedtls_pkcs12_pbe:ret <- $r4
	@DEBUG_VALUE: mbedtls_pkcs12_pbe:pwd <- [DW_OP_plus_uconst 160] [$sp+0]
	@DEBUG_VALUE: mbedtls_pkcs12_pbe:pwdlen <- [DW_OP_plus_uconst 164] [$sp+0]
	@DEBUG_VALUE: mbedtls_pkcs12_pbe:data <- [DW_OP_plus_uconst 168] [$sp+0]
	@DEBUG_VALUE: mbedtls_pkcs12_pbe:len <- [DW_OP_plus_uconst 172] [$sp+0]
	@DEBUG_VALUE: mbedtls_pkcs12_pbe:output <- [DW_OP_plus_uconst 176] [$sp+0]
	@DEBUG_VALUE: mbedtls_pkcs12_pbe:olen <- 0
	.loc	4 0 9                           @ ../../../ThirdParty/mbedTLS/library/pkcs12.c:0:9
	add	r0, sp, #28
.Ltmp77:
	.loc	4 211 17 is_stmt 1              @ ../../../ThirdParty/mbedTLS/library/pkcs12.c:211:17
	bl	mbedtls_cipher_reset
	mov	r4, r0
.Ltmp78:
	@DEBUG_VALUE: mbedtls_pkcs12_pbe:ret <- $r4
	.loc	4 211 9 is_stmt 0               @ ../../../ThirdParty/mbedTLS/library/pkcs12.c:211:9
	cbnz	r0, .LBB2_11
.Ltmp79:
@ %bb.6:
	@DEBUG_VALUE: mbedtls_pkcs12_pbe:pbe_params <- $r6
	@DEBUG_VALUE: mbedtls_pkcs12_pbe:cipher_info <- $r5
	@DEBUG_VALUE: mbedtls_pkcs12_pbe:ret <- $r4
	@DEBUG_VALUE: mbedtls_pkcs12_pbe:pwd <- [DW_OP_plus_uconst 160] [$sp+0]
	@DEBUG_VALUE: mbedtls_pkcs12_pbe:pwdlen <- [DW_OP_plus_uconst 164] [$sp+0]
	@DEBUG_VALUE: mbedtls_pkcs12_pbe:data <- [DW_OP_plus_uconst 168] [$sp+0]
	@DEBUG_VALUE: mbedtls_pkcs12_pbe:len <- [DW_OP_plus_uconst 172] [$sp+0]
	@DEBUG_VALUE: mbedtls_pkcs12_pbe:output <- [DW_OP_plus_uconst 176] [$sp+0]
	@DEBUG_VALUE: mbedtls_pkcs12_pbe:olen <- 0
	.loc	4 0 9                           @ ../../../ThirdParty/mbedTLS/library/pkcs12.c:0:9
	add	r5, sp, #168
.Ltmp80:
	ldm	r5, {r1, r2, r5}
.Ltmp81:
	@DEBUG_VALUE: mbedtls_pkcs12_pbe:olen <- [DW_OP_plus_uconst 24, DW_OP_deref] $sp
	add	r0, sp, #24
.Ltmp82:
	.loc	4 214 17 is_stmt 1              @ ../../../ThirdParty/mbedTLS/library/pkcs12.c:214:17
	str	r0, [sp]
	add	r0, sp, #28
	mov	r3, r5
	bl	mbedtls_cipher_update
	mov	r4, r0
.Ltmp83:
	@DEBUG_VALUE: mbedtls_pkcs12_pbe:ret <- $r4
	.loc	4 214 9 is_stmt 0               @ ../../../ThirdParty/mbedTLS/library/pkcs12.c:214:9
	cbnz	r0, .LBB2_11
.Ltmp84:
@ %bb.7:
	@DEBUG_VALUE: mbedtls_pkcs12_pbe:pbe_params <- $r6
	@DEBUG_VALUE: mbedtls_pkcs12_pbe:ret <- $r4
	@DEBUG_VALUE: mbedtls_pkcs12_pbe:olen <- [DW_OP_plus_uconst 24, DW_OP_deref] $sp
	@DEBUG_VALUE: mbedtls_pkcs12_pbe:pwd <- [DW_OP_plus_uconst 160] [$sp+0]
	@DEBUG_VALUE: mbedtls_pkcs12_pbe:pwdlen <- [DW_OP_plus_uconst 164] [$sp+0]
	@DEBUG_VALUE: mbedtls_pkcs12_pbe:data <- [DW_OP_plus_uconst 168] [$sp+0]
	@DEBUG_VALUE: mbedtls_pkcs12_pbe:len <- [DW_OP_plus_uconst 172] [$sp+0]
	@DEBUG_VALUE: mbedtls_pkcs12_pbe:output <- [DW_OP_plus_uconst 176] [$sp+0]
	.loc	4 220 62 is_stmt 1              @ ../../../ThirdParty/mbedTLS/library/pkcs12.c:220:62
	ldr	r0, [sp, #24]
.Ltmp85:
	@DEBUG_VALUE: mbedtls_pkcs12_pbe:olen <- $r0
	.loc	4 220 60 is_stmt 0              @ ../../../ThirdParty/mbedTLS/library/pkcs12.c:220:60
	adds	r1, r5, r0
.Ltmp86:
	@DEBUG_VALUE: mbedtls_pkcs12_pbe:olen <- [DW_OP_plus_uconst 24, DW_OP_deref] $sp
	.loc	4 0 60                          @ ../../../ThirdParty/mbedTLS/library/pkcs12.c:0:60
	add	r0, sp, #28
	add	r2, sp, #24
	.loc	4 220 17                        @ ../../../ThirdParty/mbedTLS/library/pkcs12.c:220:17
	bl	mbedtls_cipher_finish
.Ltmp87:
	@DEBUG_VALUE: mbedtls_pkcs12_pbe:ret <- $r0
	.loc	4 220 9                         @ ../../../ThirdParty/mbedTLS/library/pkcs12.c:220:9
	cbnz	r0, .LBB2_10
.Ltmp88:
@ %bb.8:
	@DEBUG_VALUE: mbedtls_pkcs12_pbe:pbe_params <- $r6
	@DEBUG_VALUE: mbedtls_pkcs12_pbe:ret <- $r0
	@DEBUG_VALUE: mbedtls_pkcs12_pbe:olen <- [DW_OP_plus_uconst 24, DW_OP_deref] $sp
	@DEBUG_VALUE: mbedtls_pkcs12_pbe:pwd <- [DW_OP_plus_uconst 160] [$sp+0]
	@DEBUG_VALUE: mbedtls_pkcs12_pbe:pwdlen <- [DW_OP_plus_uconst 164] [$sp+0]
	@DEBUG_VALUE: mbedtls_pkcs12_pbe:data <- [DW_OP_plus_uconst 168] [$sp+0]
	@DEBUG_VALUE: mbedtls_pkcs12_pbe:len <- [DW_OP_plus_uconst 172] [$sp+0]
	@DEBUG_VALUE: mbedtls_pkcs12_pbe:output <- [DW_OP_plus_uconst 176] [$sp+0]
	.loc	4 0 9                           @ ../../../ThirdParty/mbedTLS/library/pkcs12.c:0:9
	mov	r4, r0
.Ltmp89:
	@DEBUG_VALUE: mbedtls_pkcs12_pbe:ret <- $r4
	@DEBUG_VALUE: mbedtls_pkcs12_pbe:ret <- $r4
	b	.LBB2_11
.Ltmp90:
.LBB2_9:
	@DEBUG_VALUE: mbedtls_pkcs12_pbe:mode <- $r7
	@DEBUG_VALUE: mbedtls_pkcs12_pbe:pbe_params <- $r6
	@DEBUG_VALUE: mbedtls_pkcs12_pbe:md_type <- $r4
	@DEBUG_VALUE: mbedtls_pkcs12_pbe:cipher_info <- $r0
	@DEBUG_VALUE: mbedtls_pkcs12_pbe:pwd <- [DW_OP_plus_uconst 160] [$sp+0]
	@DEBUG_VALUE: mbedtls_pkcs12_pbe:pwdlen <- [DW_OP_plus_uconst 164] [$sp+0]
	@DEBUG_VALUE: mbedtls_pkcs12_pbe:data <- [DW_OP_plus_uconst 168] [$sp+0]
	@DEBUG_VALUE: mbedtls_pkcs12_pbe:len <- [DW_OP_plus_uconst 172] [$sp+0]
	@DEBUG_VALUE: mbedtls_pkcs12_pbe:output <- [DW_OP_plus_uconst 176] [$sp+0]
	@DEBUG_VALUE: mbedtls_pkcs12_pbe:keylen <- 0
	@DEBUG_VALUE: mbedtls_pkcs12_pbe:olen <- 0
	ldr	r4, __arm_cp.2_0
.Ltmp91:
	b	.LBB2_12
.Ltmp92:
.LBB2_10:
	@DEBUG_VALUE: mbedtls_pkcs12_pbe:pbe_params <- $r6
	@DEBUG_VALUE: mbedtls_pkcs12_pbe:ret <- $r0
	@DEBUG_VALUE: mbedtls_pkcs12_pbe:olen <- [DW_OP_plus_uconst 24, DW_OP_deref] $sp
	@DEBUG_VALUE: mbedtls_pkcs12_pbe:pwd <- [DW_OP_plus_uconst 160] [$sp+0]
	@DEBUG_VALUE: mbedtls_pkcs12_pbe:pwdlen <- [DW_OP_plus_uconst 164] [$sp+0]
	@DEBUG_VALUE: mbedtls_pkcs12_pbe:data <- [DW_OP_plus_uconst 168] [$sp+0]
	@DEBUG_VALUE: mbedtls_pkcs12_pbe:len <- [DW_OP_plus_uconst 172] [$sp+0]
	@DEBUG_VALUE: mbedtls_pkcs12_pbe:output <- [DW_OP_plus_uconst 176] [$sp+0]
	ldr	r4, __arm_cp.2_1
.Ltmp93:
	@DEBUG_VALUE: mbedtls_pkcs12_pbe:ret <- $r4
.LBB2_11:
	@DEBUG_VALUE: mbedtls_pkcs12_pbe:pbe_params <- $r6
	@DEBUG_VALUE: mbedtls_pkcs12_pbe:ret <- $r4
	@DEBUG_VALUE: mbedtls_pkcs12_pbe:pwd <- [DW_OP_plus_uconst 160] [$sp+0]
	@DEBUG_VALUE: mbedtls_pkcs12_pbe:pwdlen <- [DW_OP_plus_uconst 164] [$sp+0]
	@DEBUG_VALUE: mbedtls_pkcs12_pbe:data <- [DW_OP_plus_uconst 168] [$sp+0]
	@DEBUG_VALUE: mbedtls_pkcs12_pbe:len <- [DW_OP_plus_uconst 172] [$sp+0]
	@DEBUG_VALUE: mbedtls_pkcs12_pbe:output <- [DW_OP_plus_uconst 176] [$sp+0]
	@DEBUG_VALUE: mbedtls_pkcs12_pbe:ret <- $r4
	@DEBUG_LABEL: mbedtls_pkcs12_pbe:exit
	add	r0, sp, #108
	movs	r1, #32
	.loc	4 224 5 is_stmt 1               @ ../../../ThirdParty/mbedTLS/library/pkcs12.c:224:5
	bl	mbedtls_platform_zeroize
	add	r0, sp, #92
	movs	r1, #16
	.loc	4 225 5                         @ ../../../ThirdParty/mbedTLS/library/pkcs12.c:225:5
	bl	mbedtls_platform_zeroize
	add	r0, sp, #28
	.loc	4 226 5                         @ ../../../ThirdParty/mbedTLS/library/pkcs12.c:226:5
	bl	mbedtls_cipher_free
.Ltmp94:
.LBB2_12:
	@DEBUG_VALUE: mbedtls_pkcs12_pbe:pbe_params <- $r6
	@DEBUG_VALUE: mbedtls_pkcs12_pbe:pwd <- [DW_OP_plus_uconst 160] [$sp+0]
	@DEBUG_VALUE: mbedtls_pkcs12_pbe:pwdlen <- [DW_OP_plus_uconst 164] [$sp+0]
	@DEBUG_VALUE: mbedtls_pkcs12_pbe:data <- [DW_OP_plus_uconst 168] [$sp+0]
	@DEBUG_VALUE: mbedtls_pkcs12_pbe:len <- [DW_OP_plus_uconst 172] [$sp+0]
	@DEBUG_VALUE: mbedtls_pkcs12_pbe:output <- [DW_OP_plus_uconst 176] [$sp+0]
	.loc	4 229 1                         @ ../../../ThirdParty/mbedTLS/library/pkcs12.c:229:1
	mov	r0, r4
	add	sp, #140
.Ltmp95:
	pop	{r4, r5, r6, r7, pc}
.Ltmp96:
	.p2align	2
@ %bb.13:
	.loc	4 0 1 is_stmt 0                 @ ../../../ThirdParty/mbedTLS/library/pkcs12.c:0:1
__arm_cp.2_0:
	.long	4294959360                      @ 0xffffe100
.Lcpi_end1:
	.size	__arm_cp.2_0, .Lcpi_end1-__arm_cp.2_0
__arm_cp.2_1:
	.long	4294959616                      @ 0xffffe200
.Lcpi_end2:
	.size	__arm_cp.2_1, .Lcpi_end2-__arm_cp.2_1
.Lfunc_end2:
	.size	mbedtls_pkcs12_pbe, .Lfunc_end2-mbedtls_pkcs12_pbe
	.cfi_endproc
	.cantunwind
	.fnend
                                        @ -- End function
	.section	.text.mbedtls_pkcs12_derivation,"ax",%progbits
	.hidden	mbedtls_pkcs12_derivation       @ -- Begin function mbedtls_pkcs12_derivation
	.globl	mbedtls_pkcs12_derivation
	.p2align	2
	.type	mbedtls_pkcs12_derivation,%function
	.code	16                              @ @mbedtls_pkcs12_derivation
	.thumb_func
mbedtls_pkcs12_derivation:
.Lfunc_begin3:
	.loc	4 252 0 is_stmt 1               @ ../../../ThirdParty/mbedTLS/library/pkcs12.c:252:0
	.fnstart
	.cfi_startproc
@ %bb.0:
	@DEBUG_VALUE: mbedtls_pkcs12_derivation:data <- $r0
	@DEBUG_VALUE: mbedtls_pkcs12_derivation:datalen <- $r1
	@DEBUG_VALUE: mbedtls_pkcs12_derivation:pwd <- $r2
	@DEBUG_VALUE: mbedtls_pkcs12_derivation:pwdlen <- $r3
	.save	{r4, r5, r6, r7, lr}
	push	{r4, r5, r6, r7, lr}
	.cfi_def_cfa_offset 20
	.cfi_offset lr, -4
	.cfi_offset r7, -8
	.cfi_offset r6, -12
	.cfi_offset r5, -16
	.cfi_offset r4, -20
	.pad	#508
	sub	sp, #508
	.pad	#120
	sub	sp, #120
	.cfi_def_cfa_offset 648
	ldr	r7, __arm_cp.3_0
	@DEBUG_VALUE: mbedtls_pkcs12_derivation:md_type <- undef
.Ltmp97:
	@DEBUG_VALUE: mbedtls_pkcs12_derivation:iterations <- [DW_OP_plus_uconst 664] [$sp+0]
	@DEBUG_VALUE: mbedtls_pkcs12_derivation:id <- [DW_OP_plus_uconst 660] [$sp+0]
	@DEBUG_VALUE: mbedtls_pkcs12_derivation:saltlen <- [DW_OP_plus_uconst 652] [$sp+0]
	@DEBUG_VALUE: mbedtls_pkcs12_derivation:salt <- [DW_OP_plus_uconst 648] [$sp+0]
	@DEBUG_VALUE: mbedtls_pkcs12_derivation:pwdlen <- $r3
	@DEBUG_VALUE: mbedtls_pkcs12_derivation:pwd <- $r2
	@DEBUG_VALUE: mbedtls_pkcs12_derivation:datalen <- $r1
	@DEBUG_VALUE: mbedtls_pkcs12_derivation:data <- $r0
	.loc	4 268 23 prologue_end           @ ../../../ThirdParty/mbedTLS/library/pkcs12.c:268:23
	cmp	r1, #128
	bls	.LBB3_1
	b	.LBB3_33
.Ltmp98:
.LBB3_1:
	@DEBUG_VALUE: mbedtls_pkcs12_derivation:pwdlen <- $r3
	@DEBUG_VALUE: mbedtls_pkcs12_derivation:pwd <- $r2
	@DEBUG_VALUE: mbedtls_pkcs12_derivation:datalen <- $r1
	@DEBUG_VALUE: mbedtls_pkcs12_derivation:data <- $r0
	@DEBUG_VALUE: mbedtls_pkcs12_derivation:salt <- [DW_OP_plus_uconst 648] [$sp+0]
	@DEBUG_VALUE: mbedtls_pkcs12_derivation:saltlen <- [DW_OP_plus_uconst 652] [$sp+0]
	@DEBUG_VALUE: mbedtls_pkcs12_derivation:id <- [DW_OP_plus_uconst 660] [$sp+0]
	@DEBUG_VALUE: mbedtls_pkcs12_derivation:iterations <- [DW_OP_plus_uconst 664] [$sp+0]
	.loc	4 0 23 is_stmt 0                @ ../../../ThirdParty/mbedTLS/library/pkcs12.c:0:23
	mov	r5, r3
.Ltmp99:
	@DEBUG_VALUE: mbedtls_pkcs12_derivation:pwdlen <- $r5
	@DEBUG_VALUE: mbedtls_pkcs12_derivation:pwd <- $r2
	@DEBUG_VALUE: mbedtls_pkcs12_derivation:md_type <- undef
	.loc	4 268 23                        @ ../../../ThirdParty/mbedTLS/library/pkcs12.c:268:23
	cmp	r3, #64
	bls	.LBB3_2
	b	.LBB3_33
.Ltmp100:
.LBB3_2:
	@DEBUG_VALUE: mbedtls_pkcs12_derivation:pwdlen <- $r5
	@DEBUG_VALUE: mbedtls_pkcs12_derivation:pwd <- $r2
	@DEBUG_VALUE: mbedtls_pkcs12_derivation:datalen <- $r1
	@DEBUG_VALUE: mbedtls_pkcs12_derivation:data <- $r0
	@DEBUG_VALUE: mbedtls_pkcs12_derivation:salt <- [DW_OP_plus_uconst 648] [$sp+0]
	@DEBUG_VALUE: mbedtls_pkcs12_derivation:saltlen <- [DW_OP_plus_uconst 652] [$sp+0]
	@DEBUG_VALUE: mbedtls_pkcs12_derivation:id <- [DW_OP_plus_uconst 660] [$sp+0]
	@DEBUG_VALUE: mbedtls_pkcs12_derivation:iterations <- [DW_OP_plus_uconst 664] [$sp+0]
	@DEBUG_VALUE: mbedtls_pkcs12_derivation:pwd <- $r2
	@DEBUG_VALUE: mbedtls_pkcs12_derivation:md_type <- undef
	.loc	4 0 23                          @ ../../../ThirdParty/mbedTLS/library/pkcs12.c:0:23
	ldr	r6, [sp, #652]
	.loc	4 268 23                        @ ../../../ThirdParty/mbedTLS/library/pkcs12.c:268:23
	cmp	r6, #64
	bls	.LBB3_3
	b	.LBB3_33
.Ltmp101:
.LBB3_3:
	@DEBUG_VALUE: mbedtls_pkcs12_derivation:pwdlen <- $r5
	@DEBUG_VALUE: mbedtls_pkcs12_derivation:pwd <- $r2
	@DEBUG_VALUE: mbedtls_pkcs12_derivation:datalen <- $r1
	@DEBUG_VALUE: mbedtls_pkcs12_derivation:data <- $r0
	@DEBUG_VALUE: mbedtls_pkcs12_derivation:salt <- [DW_OP_plus_uconst 648] [$sp+0]
	@DEBUG_VALUE: mbedtls_pkcs12_derivation:saltlen <- [DW_OP_plus_uconst 652] [$sp+0]
	@DEBUG_VALUE: mbedtls_pkcs12_derivation:id <- [DW_OP_plus_uconst 660] [$sp+0]
	@DEBUG_VALUE: mbedtls_pkcs12_derivation:iterations <- [DW_OP_plus_uconst 664] [$sp+0]
	.loc	4 0 23                          @ ../../../ThirdParty/mbedTLS/library/pkcs12.c:0:23
	mov	r4, r2
.Ltmp102:
	@DEBUG_VALUE: mbedtls_pkcs12_derivation:pwd <- $r4
	str	r0, [sp, #24]                   @ 4-byte Spill
.Ltmp103:
	@DEBUG_VALUE: mbedtls_pkcs12_derivation:data <- [DW_OP_plus_uconst 24] [$sp+0]
	str	r1, [sp, #36]                   @ 4-byte Spill
.Ltmp104:
	@DEBUG_VALUE: mbedtls_pkcs12_derivation:datalen <- [DW_OP_plus_uconst 36] [$sp+0]
	ldr	r0, [sp, #656]
.Ltmp105:
	@DEBUG_VALUE: mbedtls_pkcs12_derivation:md_type <- $r0
	.loc	4 271 15 is_stmt 1              @ ../../../ThirdParty/mbedTLS/library/pkcs12.c:271:15
	bl	mbedtls_md_info_from_type
.Ltmp106:
	@DEBUG_VALUE: mbedtls_pkcs12_derivation:md_info <- $r0
	.loc	4 272 9                         @ ../../../ThirdParty/mbedTLS/library/pkcs12.c:272:9
	cbz	r0, .LBB3_7
.Ltmp107:
@ %bb.4:
	@DEBUG_VALUE: mbedtls_pkcs12_derivation:datalen <- [DW_OP_plus_uconst 36] [$sp+0]
	@DEBUG_VALUE: mbedtls_pkcs12_derivation:data <- [DW_OP_plus_uconst 24] [$sp+0]
	@DEBUG_VALUE: mbedtls_pkcs12_derivation:pwdlen <- $r5
	@DEBUG_VALUE: mbedtls_pkcs12_derivation:pwd <- $r4
	@DEBUG_VALUE: mbedtls_pkcs12_derivation:md_info <- $r0
	@DEBUG_VALUE: mbedtls_pkcs12_derivation:salt <- [DW_OP_plus_uconst 648] [$sp+0]
	@DEBUG_VALUE: mbedtls_pkcs12_derivation:saltlen <- [DW_OP_plus_uconst 652] [$sp+0]
	@DEBUG_VALUE: mbedtls_pkcs12_derivation:id <- [DW_OP_plus_uconst 660] [$sp+0]
	@DEBUG_VALUE: mbedtls_pkcs12_derivation:iterations <- [DW_OP_plus_uconst 664] [$sp+0]
	.loc	4 0 9 is_stmt 0                 @ ../../../ThirdParty/mbedTLS/library/pkcs12.c:0:9
	str	r6, [sp, #16]                   @ 4-byte Spill
	str	r4, [sp, #20]                   @ 4-byte Spill
.Ltmp108:
	@DEBUG_VALUE: mbedtls_pkcs12_derivation:pwd <- [DW_OP_plus_uconst 20] [$sp+0]
	add	r7, sp, #40
	mov	r6, r0
.Ltmp109:
	@DEBUG_VALUE: mbedtls_pkcs12_derivation:md_info <- $r6
	.loc	4 275 5 is_stmt 1               @ ../../../ThirdParty/mbedTLS/library/pkcs12.c:275:5
	mov	r0, r7
	bl	mbedtls_md_init
	movs	r4, #0
.Ltmp110:
	.loc	4 277 17                        @ ../../../ThirdParty/mbedTLS/library/pkcs12.c:277:17
	mov	r0, r7
	mov	r1, r6
	mov	r2, r4
	bl	mbedtls_md_setup
	mov	r7, r0
.Ltmp111:
	@DEBUG_VALUE: mbedtls_pkcs12_derivation:ret <- $r7
	.loc	4 277 9 is_stmt 0               @ ../../../ThirdParty/mbedTLS/library/pkcs12.c:277:9
	cmp	r0, #0
	beq	.LBB3_5
	b	.LBB3_33
.Ltmp112:
.LBB3_5:
	@DEBUG_VALUE: mbedtls_pkcs12_derivation:pwd <- [DW_OP_plus_uconst 20] [$sp+0]
	@DEBUG_VALUE: mbedtls_pkcs12_derivation:datalen <- [DW_OP_plus_uconst 36] [$sp+0]
	@DEBUG_VALUE: mbedtls_pkcs12_derivation:data <- [DW_OP_plus_uconst 24] [$sp+0]
	@DEBUG_VALUE: mbedtls_pkcs12_derivation:ret <- $r7
	@DEBUG_VALUE: mbedtls_pkcs12_derivation:md_info <- $r6
	@DEBUG_VALUE: mbedtls_pkcs12_derivation:pwdlen <- $r5
	@DEBUG_VALUE: mbedtls_pkcs12_derivation:salt <- [DW_OP_plus_uconst 648] [$sp+0]
	@DEBUG_VALUE: mbedtls_pkcs12_derivation:saltlen <- [DW_OP_plus_uconst 652] [$sp+0]
	@DEBUG_VALUE: mbedtls_pkcs12_derivation:id <- [DW_OP_plus_uconst 660] [$sp+0]
	@DEBUG_VALUE: mbedtls_pkcs12_derivation:iterations <- [DW_OP_plus_uconst 664] [$sp+0]
	.loc	4 0 9                           @ ../../../ThirdParty/mbedTLS/library/pkcs12.c:0:9
	str	r4, [sp, #12]                   @ 4-byte Spill
	ldr	r7, [sp, #660]
.Ltmp113:
	ldr	r4, [sp, #648]
	str	r6, [sp, #28]                   @ 4-byte Spill
.Ltmp114:
	@DEBUG_VALUE: mbedtls_pkcs12_derivation:md_info <- [DW_OP_plus_uconst 28] [$sp+0]
	.loc	4 279 12 is_stmt 1              @ ../../../ThirdParty/mbedTLS/library/pkcs12.c:279:12
	mov	r0, r6
	bl	mbedtls_md_get_size
.Ltmp115:
	@DEBUG_VALUE: mbedtls_pkcs12_derivation:hlen <- $r0
	.loc	4 0 12 is_stmt 0                @ ../../../ThirdParty/mbedTLS/library/pkcs12.c:0:12
	str	r0, [sp, #32]                   @ 4-byte Spill
.Ltmp116:
	@DEBUG_VALUE: mbedtls_pkcs12_derivation:hlen <- [DW_OP_plus_uconst 32] [$sp+0]
	.loc	4 281 9 is_stmt 1               @ ../../../ThirdParty/mbedTLS/library/pkcs12.c:281:9
	cmp	r0, #33
	blo	.LBB3_8
.Ltmp117:
@ %bb.6:
	@DEBUG_VALUE: mbedtls_pkcs12_derivation:md_info <- [DW_OP_plus_uconst 28] [$sp+0]
	@DEBUG_VALUE: mbedtls_pkcs12_derivation:pwd <- [DW_OP_plus_uconst 20] [$sp+0]
	@DEBUG_VALUE: mbedtls_pkcs12_derivation:datalen <- [DW_OP_plus_uconst 36] [$sp+0]
	@DEBUG_VALUE: mbedtls_pkcs12_derivation:data <- [DW_OP_plus_uconst 24] [$sp+0]
	@DEBUG_VALUE: mbedtls_pkcs12_derivation:pwdlen <- $r5
	@DEBUG_VALUE: mbedtls_pkcs12_derivation:hlen <- [DW_OP_plus_uconst 32] [$sp+0]
	@DEBUG_VALUE: mbedtls_pkcs12_derivation:salt <- [DW_OP_plus_uconst 648] [$sp+0]
	@DEBUG_VALUE: mbedtls_pkcs12_derivation:saltlen <- [DW_OP_plus_uconst 652] [$sp+0]
	@DEBUG_VALUE: mbedtls_pkcs12_derivation:id <- [DW_OP_plus_uconst 660] [$sp+0]
	@DEBUG_VALUE: mbedtls_pkcs12_derivation:iterations <- [DW_OP_plus_uconst 664] [$sp+0]
	.loc	4 0 9 is_stmt 0                 @ ../../../ThirdParty/mbedTLS/library/pkcs12.c:0:9
	movs	r6, #128
	b	.LBB3_9
.Ltmp118:
.LBB3_7:
	@DEBUG_VALUE: mbedtls_pkcs12_derivation:datalen <- [DW_OP_plus_uconst 36] [$sp+0]
	@DEBUG_VALUE: mbedtls_pkcs12_derivation:data <- [DW_OP_plus_uconst 24] [$sp+0]
	@DEBUG_VALUE: mbedtls_pkcs12_derivation:pwdlen <- $r5
	@DEBUG_VALUE: mbedtls_pkcs12_derivation:pwd <- $r4
	@DEBUG_VALUE: mbedtls_pkcs12_derivation:md_info <- $r0
	@DEBUG_VALUE: mbedtls_pkcs12_derivation:salt <- [DW_OP_plus_uconst 648] [$sp+0]
	@DEBUG_VALUE: mbedtls_pkcs12_derivation:saltlen <- [DW_OP_plus_uconst 652] [$sp+0]
	@DEBUG_VALUE: mbedtls_pkcs12_derivation:id <- [DW_OP_plus_uconst 660] [$sp+0]
	@DEBUG_VALUE: mbedtls_pkcs12_derivation:iterations <- [DW_OP_plus_uconst 664] [$sp+0]
	adds	r7, #128
	b	.LBB3_33
.Ltmp119:
.LBB3_8:
	@DEBUG_VALUE: mbedtls_pkcs12_derivation:md_info <- [DW_OP_plus_uconst 28] [$sp+0]
	@DEBUG_VALUE: mbedtls_pkcs12_derivation:pwd <- [DW_OP_plus_uconst 20] [$sp+0]
	@DEBUG_VALUE: mbedtls_pkcs12_derivation:datalen <- [DW_OP_plus_uconst 36] [$sp+0]
	@DEBUG_VALUE: mbedtls_pkcs12_derivation:data <- [DW_OP_plus_uconst 24] [$sp+0]
	@DEBUG_VALUE: mbedtls_pkcs12_derivation:pwdlen <- $r5
	@DEBUG_VALUE: mbedtls_pkcs12_derivation:hlen <- [DW_OP_plus_uconst 32] [$sp+0]
	@DEBUG_VALUE: mbedtls_pkcs12_derivation:salt <- [DW_OP_plus_uconst 648] [$sp+0]
	@DEBUG_VALUE: mbedtls_pkcs12_derivation:saltlen <- [DW_OP_plus_uconst 652] [$sp+0]
	@DEBUG_VALUE: mbedtls_pkcs12_derivation:id <- [DW_OP_plus_uconst 660] [$sp+0]
	@DEBUG_VALUE: mbedtls_pkcs12_derivation:iterations <- [DW_OP_plus_uconst 664] [$sp+0]
	movs	r6, #64
.Ltmp120:
.LBB3_9:
	@DEBUG_VALUE: mbedtls_pkcs12_derivation:md_info <- [DW_OP_plus_uconst 28] [$sp+0]
	@DEBUG_VALUE: mbedtls_pkcs12_derivation:pwd <- [DW_OP_plus_uconst 20] [$sp+0]
	@DEBUG_VALUE: mbedtls_pkcs12_derivation:datalen <- [DW_OP_plus_uconst 36] [$sp+0]
	@DEBUG_VALUE: mbedtls_pkcs12_derivation:data <- [DW_OP_plus_uconst 24] [$sp+0]
	@DEBUG_VALUE: mbedtls_pkcs12_derivation:pwdlen <- $r5
	@DEBUG_VALUE: mbedtls_pkcs12_derivation:hlen <- [DW_OP_plus_uconst 32] [$sp+0]
	@DEBUG_VALUE: mbedtls_pkcs12_derivation:salt <- [DW_OP_plus_uconst 648] [$sp+0]
	@DEBUG_VALUE: mbedtls_pkcs12_derivation:saltlen <- [DW_OP_plus_uconst 652] [$sp+0]
	@DEBUG_VALUE: mbedtls_pkcs12_derivation:id <- [DW_OP_plus_uconst 660] [$sp+0]
	@DEBUG_VALUE: mbedtls_pkcs12_derivation:iterations <- [DW_OP_plus_uconst 664] [$sp+0]
	@DEBUG_VALUE: mbedtls_pkcs12_derivation:v <- $r6
	.loc	4 286 5 is_stmt 1               @ ../../../ThirdParty/mbedTLS/library/pkcs12.c:286:5
	uxtb	r2, r7
	add	r0, sp, #500
	mov	r1, r6
	bl	__aeabi_memset4
	add	r0, sp, #372
	.loc	4 288 5                         @ ../../../ThirdParty/mbedTLS/library/pkcs12.c:288:5
	mov	r1, r6
	mov	r2, r4
	ldr	r3, [sp, #16]                   @ 4-byte Reload
	bl	pkcs12_fill_buffer
	add	r0, sp, #244
	str	r6, [sp, #16]                   @ 4-byte Spill
.Ltmp121:
	@DEBUG_VALUE: mbedtls_pkcs12_derivation:v <- [DW_OP_plus_uconst 16] [$sp+0]
	.loc	4 289 5                         @ ../../../ThirdParty/mbedTLS/library/pkcs12.c:289:5
	mov	r1, r6
	ldr	r2, [sp, #20]                   @ 4-byte Reload
.Ltmp122:
	@DEBUG_VALUE: mbedtls_pkcs12_derivation:pwd <- $r2
	mov	r3, r5
	bl	pkcs12_fill_buffer
.Ltmp123:
	@DEBUG_VALUE: mbedtls_pkcs12_derivation:pwd <- [DW_OP_LLVM_entry_value 1] $r2
	@DEBUG_VALUE: mbedtls_pkcs12_derivation:p <- [DW_OP_plus_uconst 24] [$sp+0]
	@DEBUG_VALUE: mbedtls_pkcs12_derivation:datalen <- [DW_OP_plus_uconst 36] [$sp+0]
	.loc	4 292 5                         @ ../../../ThirdParty/mbedTLS/library/pkcs12.c:292:5
	ldr	r0, [sp, #36]                   @ 4-byte Reload
.Ltmp124:
	@DEBUG_VALUE: mbedtls_pkcs12_derivation:datalen <- $r0
	cmp	r0, #0
.Ltmp125:
	@DEBUG_VALUE: mbedtls_pkcs12_derivation:datalen <- [DW_OP_plus_uconst 36] [$sp+0]
	beq	.LBB3_30
.Ltmp126:
@ %bb.10:
	@DEBUG_VALUE: mbedtls_pkcs12_derivation:md_info <- [DW_OP_plus_uconst 28] [$sp+0]
	@DEBUG_VALUE: mbedtls_pkcs12_derivation:data <- [DW_OP_plus_uconst 24] [$sp+0]
	@DEBUG_VALUE: mbedtls_pkcs12_derivation:pwdlen <- $r5
	@DEBUG_VALUE: mbedtls_pkcs12_derivation:datalen <- [DW_OP_plus_uconst 36] [$sp+0]
	@DEBUG_VALUE: mbedtls_pkcs12_derivation:p <- [DW_OP_plus_uconst 24] [$sp+0]
	@DEBUG_VALUE: mbedtls_pkcs12_derivation:v <- [DW_OP_plus_uconst 16] [$sp+0]
	@DEBUG_VALUE: mbedtls_pkcs12_derivation:hlen <- [DW_OP_plus_uconst 32] [$sp+0]
	@DEBUG_VALUE: mbedtls_pkcs12_derivation:salt <- [DW_OP_plus_uconst 648] [$sp+0]
	@DEBUG_VALUE: mbedtls_pkcs12_derivation:saltlen <- [DW_OP_plus_uconst 652] [$sp+0]
	@DEBUG_VALUE: mbedtls_pkcs12_derivation:id <- [DW_OP_plus_uconst 660] [$sp+0]
	@DEBUG_VALUE: mbedtls_pkcs12_derivation:iterations <- [DW_OP_plus_uconst 664] [$sp+0]
	@DEBUG_VALUE: mbedtls_pkcs12_derivation:pwd <- [DW_OP_LLVM_entry_value 1] $r2
	@DEBUG_VALUE: mbedtls_pkcs12_derivation:p <- [DW_OP_plus_uconst 24] [$sp+0]
	.loc	4 0 5 is_stmt 0                 @ ../../../ThirdParty/mbedTLS/library/pkcs12.c:0:5
	add	r0, sp, #40
.Ltmp127:
	.loc	4 295 21 is_stmt 1              @ ../../../ThirdParty/mbedTLS/library/pkcs12.c:295:21
	bl	mbedtls_md_starts
	mov	r7, r0
.Ltmp128:
	@DEBUG_VALUE: mbedtls_pkcs12_derivation:ret <- $r7
	.loc	4 295 13 is_stmt 0              @ ../../../ThirdParty/mbedTLS/library/pkcs12.c:295:13
	cmp	r0, #0
.Ltmp129:
	@DEBUG_VALUE: mbedtls_pkcs12_derivation:datalen <- undef
	.loc	4 0 13                          @ ../../../ThirdParty/mbedTLS/library/pkcs12.c:0:13
	ldr	r5, [sp, #16]                   @ 4-byte Reload
.Ltmp130:
	@DEBUG_VALUE: mbedtls_pkcs12_derivation:pwdlen <- [DW_OP_LLVM_entry_value 1] $r3
	.loc	4 295 13                        @ ../../../ThirdParty/mbedTLS/library/pkcs12.c:295:13
	bne	.LBB3_32
.Ltmp131:
@ %bb.11:
	@DEBUG_VALUE: mbedtls_pkcs12_derivation:md_info <- [DW_OP_plus_uconst 28] [$sp+0]
	@DEBUG_VALUE: mbedtls_pkcs12_derivation:data <- [DW_OP_plus_uconst 24] [$sp+0]
	@DEBUG_VALUE: mbedtls_pkcs12_derivation:ret <- $r7
	@DEBUG_VALUE: mbedtls_pkcs12_derivation:p <- [DW_OP_plus_uconst 24] [$sp+0]
	@DEBUG_VALUE: mbedtls_pkcs12_derivation:v <- [DW_OP_plus_uconst 16] [$sp+0]
	@DEBUG_VALUE: mbedtls_pkcs12_derivation:hlen <- [DW_OP_plus_uconst 32] [$sp+0]
	@DEBUG_VALUE: mbedtls_pkcs12_derivation:salt <- [DW_OP_plus_uconst 648] [$sp+0]
	@DEBUG_VALUE: mbedtls_pkcs12_derivation:saltlen <- [DW_OP_plus_uconst 652] [$sp+0]
	@DEBUG_VALUE: mbedtls_pkcs12_derivation:id <- [DW_OP_plus_uconst 660] [$sp+0]
	@DEBUG_VALUE: mbedtls_pkcs12_derivation:iterations <- [DW_OP_plus_uconst 664] [$sp+0]
	@DEBUG_VALUE: mbedtls_pkcs12_derivation:pwdlen <- [DW_OP_LLVM_entry_value 1] $r3
	@DEBUG_VALUE: mbedtls_pkcs12_derivation:pwd <- [DW_OP_LLVM_entry_value 1] $r2
	.loc	4 0 13                          @ ../../../ThirdParty/mbedTLS/library/pkcs12.c:0:13
	ldr	r1, [sp, #664]
	add	r0, sp, #116
.Ltmp132:
	.loc	4 344 9 is_stmt 1               @ ../../../ThirdParty/mbedTLS/library/pkcs12.c:344:9
	subs	r6, r0, #1
	add	r0, sp, #244
	subs	r0, r0, #1
	str	r0, [sp, #4]                    @ 4-byte Spill
	add	r0, sp, #372
	subs	r4, r0, #1
	str	r1, [sp, #20]                   @ 4-byte Spill
	subs	r0, r1, #1
	str	r0, [sp, #8]                    @ 4-byte Spill
.Ltmp133:
.LBB3_12:                               @ =>This Loop Header: Depth=1
                                        @     Child Loop BB3_17 Depth 2
                                        @     Child Loop BB3_23 Depth 2
                                        @     Child Loop BB3_26 Depth 2
                                        @     Child Loop BB3_28 Depth 2
	@DEBUG_VALUE: mbedtls_pkcs12_derivation:ret <- $r7
	@DEBUG_VALUE: mbedtls_pkcs12_derivation:p <- [DW_OP_plus_uconst 24] [$sp+0]
	@DEBUG_VALUE: mbedtls_pkcs12_derivation:v <- [DW_OP_plus_uconst 16] [$sp+0]
	@DEBUG_VALUE: mbedtls_pkcs12_derivation:hlen <- [DW_OP_plus_uconst 32] [$sp+0]
	@DEBUG_VALUE: mbedtls_pkcs12_derivation:salt <- [DW_OP_plus_uconst 648] [$sp+0]
	@DEBUG_VALUE: mbedtls_pkcs12_derivation:saltlen <- [DW_OP_plus_uconst 652] [$sp+0]
	@DEBUG_VALUE: mbedtls_pkcs12_derivation:id <- [DW_OP_plus_uconst 660] [$sp+0]
	@DEBUG_VALUE: mbedtls_pkcs12_derivation:iterations <- [DW_OP_plus_uconst 664] [$sp+0]
	@DEBUG_VALUE: mbedtls_pkcs12_derivation:pwdlen <- [DW_OP_LLVM_entry_value 1] $r3
	@DEBUG_VALUE: mbedtls_pkcs12_derivation:pwd <- [DW_OP_LLVM_entry_value 1] $r2
	@DEBUG_VALUE: mbedtls_pkcs12_derivation:datalen <- [DW_OP_plus_uconst 36] [$sp+0]
	@DEBUG_VALUE: mbedtls_pkcs12_derivation:p <- [DW_OP_plus_uconst 24] [$sp+0]
	.loc	4 0 9 is_stmt 0                 @ ../../../ThirdParty/mbedTLS/library/pkcs12.c:0:9
	add	r0, sp, #40
	add	r1, sp, #500
.Ltmp134:
	.loc	4 298 21 is_stmt 1              @ ../../../ThirdParty/mbedTLS/library/pkcs12.c:298:21
	mov	r2, r5
	bl	mbedtls_md_update
.Ltmp135:
	@DEBUG_VALUE: mbedtls_pkcs12_derivation:ret <- $r0
	.loc	4 298 13 is_stmt 0              @ ../../../ThirdParty/mbedTLS/library/pkcs12.c:298:13
	cmp	r0, #0
	bne	.LBB3_31
.Ltmp136:
@ %bb.13:                               @   in Loop: Header=BB3_12 Depth=1
	@DEBUG_VALUE: mbedtls_pkcs12_derivation:ret <- $r0
	@DEBUG_VALUE: mbedtls_pkcs12_derivation:datalen <- [DW_OP_plus_uconst 36] [$sp+0]
	@DEBUG_VALUE: mbedtls_pkcs12_derivation:p <- [DW_OP_plus_uconst 24] [$sp+0]
	@DEBUG_VALUE: mbedtls_pkcs12_derivation:v <- [DW_OP_plus_uconst 16] [$sp+0]
	@DEBUG_VALUE: mbedtls_pkcs12_derivation:hlen <- [DW_OP_plus_uconst 32] [$sp+0]
	@DEBUG_VALUE: mbedtls_pkcs12_derivation:salt <- [DW_OP_plus_uconst 648] [$sp+0]
	@DEBUG_VALUE: mbedtls_pkcs12_derivation:saltlen <- [DW_OP_plus_uconst 652] [$sp+0]
	@DEBUG_VALUE: mbedtls_pkcs12_derivation:id <- [DW_OP_plus_uconst 660] [$sp+0]
	@DEBUG_VALUE: mbedtls_pkcs12_derivation:iterations <- [DW_OP_plus_uconst 664] [$sp+0]
	@DEBUG_VALUE: mbedtls_pkcs12_derivation:pwdlen <- [DW_OP_LLVM_entry_value 1] $r3
	@DEBUG_VALUE: mbedtls_pkcs12_derivation:pwd <- [DW_OP_LLVM_entry_value 1] $r2
	.loc	4 0 13                          @ ../../../ThirdParty/mbedTLS/library/pkcs12.c:0:13
	add	r0, sp, #40
.Ltmp137:
	add	r1, sp, #372
.Ltmp138:
	.loc	4 301 21 is_stmt 1              @ ../../../ThirdParty/mbedTLS/library/pkcs12.c:301:21
	mov	r2, r5
	bl	mbedtls_md_update
.Ltmp139:
	@DEBUG_VALUE: mbedtls_pkcs12_derivation:ret <- $r0
	.loc	4 301 13 is_stmt 0              @ ../../../ThirdParty/mbedTLS/library/pkcs12.c:301:13
	cmp	r0, #0
	bne	.LBB3_31
.Ltmp140:
@ %bb.14:                               @   in Loop: Header=BB3_12 Depth=1
	@DEBUG_VALUE: mbedtls_pkcs12_derivation:ret <- $r0
	@DEBUG_VALUE: mbedtls_pkcs12_derivation:datalen <- [DW_OP_plus_uconst 36] [$sp+0]
	@DEBUG_VALUE: mbedtls_pkcs12_derivation:p <- [DW_OP_plus_uconst 24] [$sp+0]
	@DEBUG_VALUE: mbedtls_pkcs12_derivation:v <- [DW_OP_plus_uconst 16] [$sp+0]
	@DEBUG_VALUE: mbedtls_pkcs12_derivation:hlen <- [DW_OP_plus_uconst 32] [$sp+0]
	@DEBUG_VALUE: mbedtls_pkcs12_derivation:salt <- [DW_OP_plus_uconst 648] [$sp+0]
	@DEBUG_VALUE: mbedtls_pkcs12_derivation:saltlen <- [DW_OP_plus_uconst 652] [$sp+0]
	@DEBUG_VALUE: mbedtls_pkcs12_derivation:id <- [DW_OP_plus_uconst 660] [$sp+0]
	@DEBUG_VALUE: mbedtls_pkcs12_derivation:iterations <- [DW_OP_plus_uconst 664] [$sp+0]
	@DEBUG_VALUE: mbedtls_pkcs12_derivation:pwdlen <- [DW_OP_LLVM_entry_value 1] $r3
	@DEBUG_VALUE: mbedtls_pkcs12_derivation:pwd <- [DW_OP_LLVM_entry_value 1] $r2
	.loc	4 0 13                          @ ../../../ThirdParty/mbedTLS/library/pkcs12.c:0:13
	add	r0, sp, #40
.Ltmp141:
	add	r1, sp, #244
.Ltmp142:
	.loc	4 304 21 is_stmt 1              @ ../../../ThirdParty/mbedTLS/library/pkcs12.c:304:21
	mov	r2, r5
	bl	mbedtls_md_update
.Ltmp143:
	@DEBUG_VALUE: mbedtls_pkcs12_derivation:ret <- $r0
	.loc	4 304 13 is_stmt 0              @ ../../../ThirdParty/mbedTLS/library/pkcs12.c:304:13
	cmp	r0, #0
	bne	.LBB3_31
.Ltmp144:
@ %bb.15:                               @   in Loop: Header=BB3_12 Depth=1
	@DEBUG_VALUE: mbedtls_pkcs12_derivation:ret <- $r0
	@DEBUG_VALUE: mbedtls_pkcs12_derivation:datalen <- [DW_OP_plus_uconst 36] [$sp+0]
	@DEBUG_VALUE: mbedtls_pkcs12_derivation:p <- [DW_OP_plus_uconst 24] [$sp+0]
	@DEBUG_VALUE: mbedtls_pkcs12_derivation:v <- [DW_OP_plus_uconst 16] [$sp+0]
	@DEBUG_VALUE: mbedtls_pkcs12_derivation:hlen <- [DW_OP_plus_uconst 32] [$sp+0]
	@DEBUG_VALUE: mbedtls_pkcs12_derivation:salt <- [DW_OP_plus_uconst 648] [$sp+0]
	@DEBUG_VALUE: mbedtls_pkcs12_derivation:saltlen <- [DW_OP_plus_uconst 652] [$sp+0]
	@DEBUG_VALUE: mbedtls_pkcs12_derivation:id <- [DW_OP_plus_uconst 660] [$sp+0]
	@DEBUG_VALUE: mbedtls_pkcs12_derivation:iterations <- [DW_OP_plus_uconst 664] [$sp+0]
	@DEBUG_VALUE: mbedtls_pkcs12_derivation:pwdlen <- [DW_OP_LLVM_entry_value 1] $r3
	@DEBUG_VALUE: mbedtls_pkcs12_derivation:pwd <- [DW_OP_LLVM_entry_value 1] $r2
	.loc	4 0 13                          @ ../../../ThirdParty/mbedTLS/library/pkcs12.c:0:13
	add	r0, sp, #40
.Ltmp145:
	add	r1, sp, #52
.Ltmp146:
	.loc	4 307 21 is_stmt 1              @ ../../../ThirdParty/mbedTLS/library/pkcs12.c:307:21
	bl	mbedtls_md_finish
.Ltmp147:
	@DEBUG_VALUE: mbedtls_pkcs12_derivation:ret <- $r0
	.loc	4 307 13 is_stmt 0              @ ../../../ThirdParty/mbedTLS/library/pkcs12.c:307:13
	cmp	r0, #0
	bne	.LBB3_31
.Ltmp148:
@ %bb.16:                               @   in Loop: Header=BB3_12 Depth=1
	@DEBUG_VALUE: mbedtls_pkcs12_derivation:ret <- $r0
	@DEBUG_VALUE: mbedtls_pkcs12_derivation:datalen <- [DW_OP_plus_uconst 36] [$sp+0]
	@DEBUG_VALUE: mbedtls_pkcs12_derivation:p <- [DW_OP_plus_uconst 24] [$sp+0]
	@DEBUG_VALUE: mbedtls_pkcs12_derivation:v <- [DW_OP_plus_uconst 16] [$sp+0]
	@DEBUG_VALUE: mbedtls_pkcs12_derivation:hlen <- [DW_OP_plus_uconst 32] [$sp+0]
	@DEBUG_VALUE: mbedtls_pkcs12_derivation:salt <- [DW_OP_plus_uconst 648] [$sp+0]
	@DEBUG_VALUE: mbedtls_pkcs12_derivation:saltlen <- [DW_OP_plus_uconst 652] [$sp+0]
	@DEBUG_VALUE: mbedtls_pkcs12_derivation:id <- [DW_OP_plus_uconst 660] [$sp+0]
	@DEBUG_VALUE: mbedtls_pkcs12_derivation:iterations <- [DW_OP_plus_uconst 664] [$sp+0]
	@DEBUG_VALUE: mbedtls_pkcs12_derivation:pwdlen <- [DW_OP_LLVM_entry_value 1] $r3
	@DEBUG_VALUE: mbedtls_pkcs12_derivation:pwd <- [DW_OP_LLVM_entry_value 1] $r2
	@DEBUG_VALUE: mbedtls_pkcs12_derivation:i <- 1
	.loc	4 311 9 is_stmt 1               @ ../../../ThirdParty/mbedTLS/library/pkcs12.c:311:9
	ldr	r0, [sp, #20]                   @ 4-byte Reload
.Ltmp149:
	cmp	r0, #2
	ldr	r5, [sp, #8]                    @ 4-byte Reload
	blo	.LBB3_19
.Ltmp150:
.LBB3_17:                               @   Parent Loop BB3_12 Depth=1
                                        @ =>  This Inner Loop Header: Depth=2
	@DEBUG_VALUE: mbedtls_pkcs12_derivation:datalen <- [DW_OP_plus_uconst 36] [$sp+0]
	@DEBUG_VALUE: mbedtls_pkcs12_derivation:p <- [DW_OP_plus_uconst 24] [$sp+0]
	@DEBUG_VALUE: mbedtls_pkcs12_derivation:v <- [DW_OP_plus_uconst 16] [$sp+0]
	@DEBUG_VALUE: mbedtls_pkcs12_derivation:hlen <- [DW_OP_plus_uconst 32] [$sp+0]
	@DEBUG_VALUE: mbedtls_pkcs12_derivation:salt <- [DW_OP_plus_uconst 648] [$sp+0]
	@DEBUG_VALUE: mbedtls_pkcs12_derivation:saltlen <- [DW_OP_plus_uconst 652] [$sp+0]
	@DEBUG_VALUE: mbedtls_pkcs12_derivation:id <- [DW_OP_plus_uconst 660] [$sp+0]
	@DEBUG_VALUE: mbedtls_pkcs12_derivation:iterations <- [DW_OP_plus_uconst 664] [$sp+0]
	@DEBUG_VALUE: mbedtls_pkcs12_derivation:pwdlen <- [DW_OP_LLVM_entry_value 1] $r3
	@DEBUG_VALUE: mbedtls_pkcs12_derivation:pwd <- [DW_OP_LLVM_entry_value 1] $r2
	@DEBUG_VALUE: mbedtls_pkcs12_derivation:i <- undef
	.loc	4 0 9 is_stmt 0                 @ ../../../ThirdParty/mbedTLS/library/pkcs12.c:0:9
	add	r1, sp, #52
.Ltmp151:
	.loc	4 313 25 is_stmt 1              @ ../../../ThirdParty/mbedTLS/library/pkcs12.c:313:25
	ldr	r0, [sp, #28]                   @ 4-byte Reload
.Ltmp152:
	@DEBUG_VALUE: mbedtls_pkcs12_derivation:md_info <- $r0
	ldr	r2, [sp, #32]                   @ 4-byte Reload
	mov	r3, r1
	bl	mbedtls_md
.Ltmp153:
	@DEBUG_VALUE: mbedtls_pkcs12_derivation:i <- [DW_OP_plus_uconst 1, DW_OP_stack_value] undef
	@DEBUG_VALUE: mbedtls_pkcs12_derivation:ret <- $r0
	.loc	4 313 17 is_stmt 0              @ ../../../ThirdParty/mbedTLS/library/pkcs12.c:313:17
	cmp	r0, #0
	bne	.LBB3_31
.Ltmp154:
@ %bb.18:                               @   in Loop: Header=BB3_17 Depth=2
	@DEBUG_VALUE: mbedtls_pkcs12_derivation:ret <- $r0
	@DEBUG_VALUE: mbedtls_pkcs12_derivation:datalen <- [DW_OP_plus_uconst 36] [$sp+0]
	@DEBUG_VALUE: mbedtls_pkcs12_derivation:p <- [DW_OP_plus_uconst 24] [$sp+0]
	@DEBUG_VALUE: mbedtls_pkcs12_derivation:v <- [DW_OP_plus_uconst 16] [$sp+0]
	@DEBUG_VALUE: mbedtls_pkcs12_derivation:hlen <- [DW_OP_plus_uconst 32] [$sp+0]
	@DEBUG_VALUE: mbedtls_pkcs12_derivation:salt <- [DW_OP_plus_uconst 648] [$sp+0]
	@DEBUG_VALUE: mbedtls_pkcs12_derivation:saltlen <- [DW_OP_plus_uconst 652] [$sp+0]
	@DEBUG_VALUE: mbedtls_pkcs12_derivation:id <- [DW_OP_plus_uconst 660] [$sp+0]
	@DEBUG_VALUE: mbedtls_pkcs12_derivation:iterations <- [DW_OP_plus_uconst 664] [$sp+0]
	@DEBUG_VALUE: mbedtls_pkcs12_derivation:pwdlen <- [DW_OP_LLVM_entry_value 1] $r3
	@DEBUG_VALUE: mbedtls_pkcs12_derivation:pwd <- [DW_OP_LLVM_entry_value 1] $r2
	@DEBUG_VALUE: mbedtls_pkcs12_derivation:i <- [DW_OP_plus_uconst 1, DW_OP_stack_value] undef
	.loc	4 311 23 is_stmt 1              @ ../../../ThirdParty/mbedTLS/library/pkcs12.c:311:23
	subs	r5, r5, #1
.Ltmp155:
	.loc	4 311 9 is_stmt 0               @ ../../../ThirdParty/mbedTLS/library/pkcs12.c:311:9
	bne	.LBB3_17
.Ltmp156:
.LBB3_19:                               @   in Loop: Header=BB3_12 Depth=1
	@DEBUG_VALUE: mbedtls_pkcs12_derivation:datalen <- [DW_OP_plus_uconst 36] [$sp+0]
	@DEBUG_VALUE: mbedtls_pkcs12_derivation:p <- [DW_OP_plus_uconst 24] [$sp+0]
	@DEBUG_VALUE: mbedtls_pkcs12_derivation:v <- [DW_OP_plus_uconst 16] [$sp+0]
	@DEBUG_VALUE: mbedtls_pkcs12_derivation:hlen <- [DW_OP_plus_uconst 32] [$sp+0]
	@DEBUG_VALUE: mbedtls_pkcs12_derivation:salt <- [DW_OP_plus_uconst 648] [$sp+0]
	@DEBUG_VALUE: mbedtls_pkcs12_derivation:saltlen <- [DW_OP_plus_uconst 652] [$sp+0]
	@DEBUG_VALUE: mbedtls_pkcs12_derivation:id <- [DW_OP_plus_uconst 660] [$sp+0]
	@DEBUG_VALUE: mbedtls_pkcs12_derivation:iterations <- [DW_OP_plus_uconst 664] [$sp+0]
	@DEBUG_VALUE: mbedtls_pkcs12_derivation:pwdlen <- [DW_OP_LLVM_entry_value 1] $r3
	@DEBUG_VALUE: mbedtls_pkcs12_derivation:pwd <- [DW_OP_LLVM_entry_value 1] $r2
	.loc	4 0 9                           @ ../../../ThirdParty/mbedTLS/library/pkcs12.c:0:9
	ldr	r0, [sp, #36]                   @ 4-byte Reload
	ldr	r7, [sp, #32]                   @ 4-byte Reload
	.loc	4 317 19 is_stmt 1              @ ../../../ThirdParty/mbedTLS/library/pkcs12.c:317:19
	cmp	r0, r7
	bhi	.LBB3_21
.Ltmp157:
@ %bb.20:                               @   in Loop: Header=BB3_12 Depth=1
	@DEBUG_VALUE: mbedtls_pkcs12_derivation:datalen <- [DW_OP_plus_uconst 36] [$sp+0]
	@DEBUG_VALUE: mbedtls_pkcs12_derivation:p <- [DW_OP_plus_uconst 24] [$sp+0]
	@DEBUG_VALUE: mbedtls_pkcs12_derivation:v <- [DW_OP_plus_uconst 16] [$sp+0]
	@DEBUG_VALUE: mbedtls_pkcs12_derivation:hlen <- [DW_OP_plus_uconst 32] [$sp+0]
	@DEBUG_VALUE: mbedtls_pkcs12_derivation:salt <- [DW_OP_plus_uconst 648] [$sp+0]
	@DEBUG_VALUE: mbedtls_pkcs12_derivation:saltlen <- [DW_OP_plus_uconst 652] [$sp+0]
	@DEBUG_VALUE: mbedtls_pkcs12_derivation:id <- [DW_OP_plus_uconst 660] [$sp+0]
	@DEBUG_VALUE: mbedtls_pkcs12_derivation:iterations <- [DW_OP_plus_uconst 664] [$sp+0]
	@DEBUG_VALUE: mbedtls_pkcs12_derivation:pwdlen <- [DW_OP_LLVM_entry_value 1] $r3
	@DEBUG_VALUE: mbedtls_pkcs12_derivation:pwd <- [DW_OP_LLVM_entry_value 1] $r2
	mov	r7, r0
.Ltmp158:
.LBB3_21:                               @   in Loop: Header=BB3_12 Depth=1
	@DEBUG_VALUE: mbedtls_pkcs12_derivation:datalen <- [DW_OP_plus_uconst 36] [$sp+0]
	@DEBUG_VALUE: mbedtls_pkcs12_derivation:p <- [DW_OP_plus_uconst 24] [$sp+0]
	@DEBUG_VALUE: mbedtls_pkcs12_derivation:v <- [DW_OP_plus_uconst 16] [$sp+0]
	@DEBUG_VALUE: mbedtls_pkcs12_derivation:hlen <- [DW_OP_plus_uconst 32] [$sp+0]
	@DEBUG_VALUE: mbedtls_pkcs12_derivation:salt <- [DW_OP_plus_uconst 648] [$sp+0]
	@DEBUG_VALUE: mbedtls_pkcs12_derivation:saltlen <- [DW_OP_plus_uconst 652] [$sp+0]
	@DEBUG_VALUE: mbedtls_pkcs12_derivation:id <- [DW_OP_plus_uconst 660] [$sp+0]
	@DEBUG_VALUE: mbedtls_pkcs12_derivation:iterations <- [DW_OP_plus_uconst 664] [$sp+0]
	@DEBUG_VALUE: mbedtls_pkcs12_derivation:pwdlen <- [DW_OP_LLVM_entry_value 1] $r3
	@DEBUG_VALUE: mbedtls_pkcs12_derivation:pwd <- [DW_OP_LLVM_entry_value 1] $r2
	@DEBUG_VALUE: mbedtls_pkcs12_derivation:use_len <- $r7
	.loc	4 0 19 is_stmt 0                @ ../../../ThirdParty/mbedTLS/library/pkcs12.c:0:19
	add	r1, sp, #52
	ldr	r5, [sp, #24]                   @ 4-byte Reload
.Ltmp159:
	@DEBUG_VALUE: mbedtls_pkcs12_derivation:data <- $r5
	.loc	4 318 9 is_stmt 1               @ ../../../ThirdParty/mbedTLS/library/pkcs12.c:318:9
	mov	r0, r5
	mov	r2, r7
	bl	__aeabi_memcpy
	ldr	r0, [sp, #36]                   @ 4-byte Reload
.Ltmp160:
	@DEBUG_VALUE: mbedtls_pkcs12_derivation:p <- undef
	.loc	4 319 17                        @ ../../../ThirdParty/mbedTLS/library/pkcs12.c:319:17
	subs	r0, r0, r7
.Ltmp161:
	@DEBUG_VALUE: mbedtls_pkcs12_derivation:datalen <- $r0
	.loc	4 0 17 is_stmt 0                @ ../../../ThirdParty/mbedTLS/library/pkcs12.c:0:17
	beq	.LBB3_30
.Ltmp162:
@ %bb.22:                               @   in Loop: Header=BB3_12 Depth=1
	@DEBUG_VALUE: mbedtls_pkcs12_derivation:use_len <- $r7
	@DEBUG_VALUE: mbedtls_pkcs12_derivation:datalen <- $r0
	@DEBUG_VALUE: mbedtls_pkcs12_derivation:v <- [DW_OP_plus_uconst 16] [$sp+0]
	@DEBUG_VALUE: mbedtls_pkcs12_derivation:hlen <- [DW_OP_plus_uconst 32] [$sp+0]
	@DEBUG_VALUE: mbedtls_pkcs12_derivation:salt <- [DW_OP_plus_uconst 648] [$sp+0]
	@DEBUG_VALUE: mbedtls_pkcs12_derivation:saltlen <- [DW_OP_plus_uconst 652] [$sp+0]
	@DEBUG_VALUE: mbedtls_pkcs12_derivation:id <- [DW_OP_plus_uconst 660] [$sp+0]
	@DEBUG_VALUE: mbedtls_pkcs12_derivation:iterations <- [DW_OP_plus_uconst 664] [$sp+0]
	@DEBUG_VALUE: mbedtls_pkcs12_derivation:pwdlen <- [DW_OP_LLVM_entry_value 1] $r3
	@DEBUG_VALUE: mbedtls_pkcs12_derivation:pwd <- [DW_OP_LLVM_entry_value 1] $r2
	str	r0, [sp, #36]                   @ 4-byte Spill
.Ltmp163:
	@DEBUG_VALUE: mbedtls_pkcs12_derivation:datalen <- [DW_OP_plus_uconst 36] [$sp+0]
	@DEBUG_VALUE: mbedtls_pkcs12_derivation:datalen <- [DW_OP_plus_uconst 36] [$sp+0]
	adds	r5, r5, r7
.Ltmp164:
	@DEBUG_VALUE: mbedtls_pkcs12_derivation:data <- [DW_OP_LLVM_entry_value 1] $r0
	@DEBUG_VALUE: mbedtls_pkcs12_derivation:p <- $r5
	str	r5, [sp, #24]                   @ 4-byte Spill
.Ltmp165:
	@DEBUG_VALUE: mbedtls_pkcs12_derivation:p <- [DW_OP_plus_uconst 24] [$sp+0]
	@DEBUG_VALUE: mbedtls_pkcs12_derivation:p <- [DW_OP_plus_uconst 24] [$sp+0]
	@DEBUG_VALUE: mbedtls_pkcs12_derivation:p <- [DW_OP_plus_uconst 24] [$sp+0]
	add	r0, sp, #116
	add	r2, sp, #52
	ldr	r5, [sp, #16]                   @ 4-byte Reload
	.loc	4 326 9 is_stmt 1               @ ../../../ThirdParty/mbedTLS/library/pkcs12.c:326:9
	mov	r1, r5
	ldr	r3, [sp, #32]                   @ 4-byte Reload
	bl	pkcs12_fill_buffer
.Ltmp166:
	@DEBUG_VALUE: mbedtls_pkcs12_derivation:i <- [DW_OP_plus_uconst 16] [$sp+0]
	.loc	4 0 0 is_stmt 0                 @ ../../../ThirdParty/mbedTLS/library/pkcs12.c:0:0
	mov	r0, r5
.Ltmp167:
.LBB3_23:                               @   Parent Loop BB3_12 Depth=1
                                        @ =>  This Inner Loop Header: Depth=2
	@DEBUG_VALUE: mbedtls_pkcs12_derivation:datalen <- [DW_OP_plus_uconst 36] [$sp+0]
	@DEBUG_VALUE: mbedtls_pkcs12_derivation:use_len <- $r7
	@DEBUG_VALUE: mbedtls_pkcs12_derivation:p <- [DW_OP_plus_uconst 24] [$sp+0]
	@DEBUG_VALUE: mbedtls_pkcs12_derivation:v <- [DW_OP_plus_uconst 16] [$sp+0]
	@DEBUG_VALUE: mbedtls_pkcs12_derivation:hlen <- [DW_OP_plus_uconst 32] [$sp+0]
	@DEBUG_VALUE: mbedtls_pkcs12_derivation:salt <- [DW_OP_plus_uconst 648] [$sp+0]
	@DEBUG_VALUE: mbedtls_pkcs12_derivation:saltlen <- [DW_OP_plus_uconst 652] [$sp+0]
	@DEBUG_VALUE: mbedtls_pkcs12_derivation:id <- [DW_OP_plus_uconst 660] [$sp+0]
	@DEBUG_VALUE: mbedtls_pkcs12_derivation:iterations <- [DW_OP_plus_uconst 664] [$sp+0]
	@DEBUG_VALUE: mbedtls_pkcs12_derivation:pwdlen <- [DW_OP_LLVM_entry_value 1] $r3
	@DEBUG_VALUE: mbedtls_pkcs12_derivation:pwd <- [DW_OP_LLVM_entry_value 1] $r2
	@DEBUG_VALUE: mbedtls_pkcs12_derivation:i <- $r0
	.loc	4 329 9 is_stmt 1               @ ../../../ThirdParty/mbedTLS/library/pkcs12.c:329:9
	cbz	r0, .LBB3_25
.Ltmp168:
@ %bb.24:                               @   in Loop: Header=BB3_23 Depth=2
	@DEBUG_VALUE: mbedtls_pkcs12_derivation:datalen <- [DW_OP_plus_uconst 36] [$sp+0]
	@DEBUG_VALUE: mbedtls_pkcs12_derivation:use_len <- $r7
	@DEBUG_VALUE: mbedtls_pkcs12_derivation:i <- $r0
	@DEBUG_VALUE: mbedtls_pkcs12_derivation:p <- [DW_OP_plus_uconst 24] [$sp+0]
	@DEBUG_VALUE: mbedtls_pkcs12_derivation:v <- [DW_OP_plus_uconst 16] [$sp+0]
	@DEBUG_VALUE: mbedtls_pkcs12_derivation:hlen <- [DW_OP_plus_uconst 32] [$sp+0]
	@DEBUG_VALUE: mbedtls_pkcs12_derivation:salt <- [DW_OP_plus_uconst 648] [$sp+0]
	@DEBUG_VALUE: mbedtls_pkcs12_derivation:saltlen <- [DW_OP_plus_uconst 652] [$sp+0]
	@DEBUG_VALUE: mbedtls_pkcs12_derivation:id <- [DW_OP_plus_uconst 660] [$sp+0]
	@DEBUG_VALUE: mbedtls_pkcs12_derivation:iterations <- [DW_OP_plus_uconst 664] [$sp+0]
	@DEBUG_VALUE: mbedtls_pkcs12_derivation:pwdlen <- [DW_OP_LLVM_entry_value 1] $r3
	@DEBUG_VALUE: mbedtls_pkcs12_derivation:pwd <- [DW_OP_LLVM_entry_value 1] $r2
	.loc	4 330 17                        @ ../../../ThirdParty/mbedTLS/library/pkcs12.c:330:17
	ldrb	r1, [r6, r0]
	adds	r1, r1, #1
	strb	r1, [r6, r0]
	uxtb	r2, r1
	.loc	4 330 32 is_stmt 0              @ ../../../ThirdParty/mbedTLS/library/pkcs12.c:330:32
	subs	r0, r0, #1
.Ltmp169:
	.loc	4 330 17                        @ ../../../ThirdParty/mbedTLS/library/pkcs12.c:330:17
	cmp	r2, r1
	bne	.LBB3_23
.Ltmp170:
.LBB3_25:                               @   in Loop: Header=BB3_12 Depth=1
	@DEBUG_VALUE: mbedtls_pkcs12_derivation:datalen <- [DW_OP_plus_uconst 36] [$sp+0]
	@DEBUG_VALUE: mbedtls_pkcs12_derivation:use_len <- $r7
	@DEBUG_VALUE: mbedtls_pkcs12_derivation:p <- [DW_OP_plus_uconst 24] [$sp+0]
	@DEBUG_VALUE: mbedtls_pkcs12_derivation:v <- [DW_OP_plus_uconst 16] [$sp+0]
	@DEBUG_VALUE: mbedtls_pkcs12_derivation:hlen <- [DW_OP_plus_uconst 32] [$sp+0]
	@DEBUG_VALUE: mbedtls_pkcs12_derivation:salt <- [DW_OP_plus_uconst 648] [$sp+0]
	@DEBUG_VALUE: mbedtls_pkcs12_derivation:saltlen <- [DW_OP_plus_uconst 652] [$sp+0]
	@DEBUG_VALUE: mbedtls_pkcs12_derivation:id <- [DW_OP_plus_uconst 660] [$sp+0]
	@DEBUG_VALUE: mbedtls_pkcs12_derivation:iterations <- [DW_OP_plus_uconst 664] [$sp+0]
	@DEBUG_VALUE: mbedtls_pkcs12_derivation:pwdlen <- [DW_OP_LLVM_entry_value 1] $r3
	@DEBUG_VALUE: mbedtls_pkcs12_derivation:pwd <- [DW_OP_LLVM_entry_value 1] $r2
	.loc	4 0 17                          @ ../../../ThirdParty/mbedTLS/library/pkcs12.c:0:17
	movs	r1, #0
	mov	r0, r5
	ldr	r7, [sp, #4]                    @ 4-byte Reload
.Ltmp171:
.LBB3_26:                               @   Parent Loop BB3_12 Depth=1
                                        @ =>  This Inner Loop Header: Depth=2
	@DEBUG_VALUE: mbedtls_pkcs12_derivation:datalen <- [DW_OP_plus_uconst 36] [$sp+0]
	@DEBUG_VALUE: mbedtls_pkcs12_derivation:p <- [DW_OP_plus_uconst 24] [$sp+0]
	@DEBUG_VALUE: mbedtls_pkcs12_derivation:v <- [DW_OP_plus_uconst 16] [$sp+0]
	@DEBUG_VALUE: mbedtls_pkcs12_derivation:hlen <- [DW_OP_plus_uconst 32] [$sp+0]
	@DEBUG_VALUE: mbedtls_pkcs12_derivation:salt <- [DW_OP_plus_uconst 648] [$sp+0]
	@DEBUG_VALUE: mbedtls_pkcs12_derivation:saltlen <- [DW_OP_plus_uconst 652] [$sp+0]
	@DEBUG_VALUE: mbedtls_pkcs12_derivation:id <- [DW_OP_plus_uconst 660] [$sp+0]
	@DEBUG_VALUE: mbedtls_pkcs12_derivation:iterations <- [DW_OP_plus_uconst 664] [$sp+0]
	@DEBUG_VALUE: mbedtls_pkcs12_derivation:pwdlen <- [DW_OP_LLVM_entry_value 1] $r3
	@DEBUG_VALUE: mbedtls_pkcs12_derivation:pwd <- [DW_OP_LLVM_entry_value 1] $r2
	@DEBUG_VALUE: mbedtls_pkcs12_derivation:i <- $r0
	.loc	4 337 37 is_stmt 1              @ ../../../ThirdParty/mbedTLS/library/pkcs12.c:337:37
	ldrb	r2, [r6, r0]
	.loc	4 337 17 is_stmt 0              @ ../../../ThirdParty/mbedTLS/library/pkcs12.c:337:17
	ldrb	r3, [r4, r0]
	.loc	4 337 57                        @ ../../../ThirdParty/mbedTLS/library/pkcs12.c:337:57
	uxtb	r1, r1
	.loc	4 337 35                        @ ../../../ThirdParty/mbedTLS/library/pkcs12.c:337:35
	adds	r1, r1, r3
	.loc	4 337 55                        @ ../../../ThirdParty/mbedTLS/library/pkcs12.c:337:55
	adds	r1, r1, r2
.Ltmp172:
	@DEBUG_VALUE: mbedtls_pkcs12_derivation:j <- $r1
	.loc	4 339 31 is_stmt 1              @ ../../../ThirdParty/mbedTLS/library/pkcs12.c:339:31
	strb	r1, [r4, r0]
	.loc	4 338 36                        @ ../../../ThirdParty/mbedTLS/library/pkcs12.c:338:36
	lsrs	r1, r1, #8
.Ltmp173:
	@DEBUG_VALUE: mbedtls_pkcs12_derivation:c <- [DW_OP_LLVM_convert 32 7, DW_OP_LLVM_convert 8 7, DW_OP_stack_value] $r1
	.loc	4 337 30                        @ ../../../ThirdParty/mbedTLS/library/pkcs12.c:337:30
	subs	r0, r0, #1
.Ltmp174:
	@DEBUG_VALUE: mbedtls_pkcs12_derivation:c <- undef
	@DEBUG_VALUE: mbedtls_pkcs12_derivation:i <- $r0
	.loc	4 335 9                         @ ../../../ThirdParty/mbedTLS/library/pkcs12.c:335:9
	bne	.LBB3_26
.Ltmp175:
@ %bb.27:                               @   in Loop: Header=BB3_12 Depth=1
	@DEBUG_VALUE: mbedtls_pkcs12_derivation:datalen <- [DW_OP_plus_uconst 36] [$sp+0]
	@DEBUG_VALUE: mbedtls_pkcs12_derivation:i <- $r0
	@DEBUG_VALUE: mbedtls_pkcs12_derivation:p <- [DW_OP_plus_uconst 24] [$sp+0]
	@DEBUG_VALUE: mbedtls_pkcs12_derivation:v <- [DW_OP_plus_uconst 16] [$sp+0]
	@DEBUG_VALUE: mbedtls_pkcs12_derivation:hlen <- [DW_OP_plus_uconst 32] [$sp+0]
	@DEBUG_VALUE: mbedtls_pkcs12_derivation:salt <- [DW_OP_plus_uconst 648] [$sp+0]
	@DEBUG_VALUE: mbedtls_pkcs12_derivation:saltlen <- [DW_OP_plus_uconst 652] [$sp+0]
	@DEBUG_VALUE: mbedtls_pkcs12_derivation:id <- [DW_OP_plus_uconst 660] [$sp+0]
	@DEBUG_VALUE: mbedtls_pkcs12_derivation:iterations <- [DW_OP_plus_uconst 664] [$sp+0]
	@DEBUG_VALUE: mbedtls_pkcs12_derivation:pwdlen <- [DW_OP_LLVM_entry_value 1] $r3
	@DEBUG_VALUE: mbedtls_pkcs12_derivation:pwd <- [DW_OP_LLVM_entry_value 1] $r2
	.loc	4 0 9 is_stmt 0                 @ ../../../ThirdParty/mbedTLS/library/pkcs12.c:0:9
	movs	r1, #0
	mov	r0, r5
.Ltmp176:
.LBB3_28:                               @   Parent Loop BB3_12 Depth=1
                                        @ =>  This Inner Loop Header: Depth=2
	@DEBUG_VALUE: mbedtls_pkcs12_derivation:datalen <- [DW_OP_plus_uconst 36] [$sp+0]
	@DEBUG_VALUE: mbedtls_pkcs12_derivation:p <- [DW_OP_plus_uconst 24] [$sp+0]
	@DEBUG_VALUE: mbedtls_pkcs12_derivation:v <- [DW_OP_plus_uconst 16] [$sp+0]
	@DEBUG_VALUE: mbedtls_pkcs12_derivation:hlen <- [DW_OP_plus_uconst 32] [$sp+0]
	@DEBUG_VALUE: mbedtls_pkcs12_derivation:salt <- [DW_OP_plus_uconst 648] [$sp+0]
	@DEBUG_VALUE: mbedtls_pkcs12_derivation:saltlen <- [DW_OP_plus_uconst 652] [$sp+0]
	@DEBUG_VALUE: mbedtls_pkcs12_derivation:id <- [DW_OP_plus_uconst 660] [$sp+0]
	@DEBUG_VALUE: mbedtls_pkcs12_derivation:iterations <- [DW_OP_plus_uconst 664] [$sp+0]
	@DEBUG_VALUE: mbedtls_pkcs12_derivation:pwdlen <- [DW_OP_LLVM_entry_value 1] $r3
	@DEBUG_VALUE: mbedtls_pkcs12_derivation:pwd <- [DW_OP_LLVM_entry_value 1] $r2
	@DEBUG_VALUE: mbedtls_pkcs12_derivation:i <- $r0
	.loc	4 346 36 is_stmt 1              @ ../../../ThirdParty/mbedTLS/library/pkcs12.c:346:36
	ldrb	r2, [r6, r0]
	.loc	4 346 17 is_stmt 0              @ ../../../ThirdParty/mbedTLS/library/pkcs12.c:346:17
	ldrb	r3, [r7, r0]
	.loc	4 346 56                        @ ../../../ThirdParty/mbedTLS/library/pkcs12.c:346:56
	uxtb	r1, r1
	.loc	4 346 34                        @ ../../../ThirdParty/mbedTLS/library/pkcs12.c:346:34
	adds	r1, r1, r3
	.loc	4 346 54                        @ ../../../ThirdParty/mbedTLS/library/pkcs12.c:346:54
	adds	r1, r1, r2
.Ltmp177:
	@DEBUG_VALUE: mbedtls_pkcs12_derivation:j <- $r1
	.loc	4 348 30 is_stmt 1              @ ../../../ThirdParty/mbedTLS/library/pkcs12.c:348:30
	strb	r1, [r7, r0]
	.loc	4 347 36                        @ ../../../ThirdParty/mbedTLS/library/pkcs12.c:347:36
	lsrs	r1, r1, #8
.Ltmp178:
	@DEBUG_VALUE: mbedtls_pkcs12_derivation:c <- [DW_OP_LLVM_convert 32 7, DW_OP_LLVM_convert 8 7, DW_OP_stack_value] $r1
	.loc	4 346 29                        @ ../../../ThirdParty/mbedTLS/library/pkcs12.c:346:29
	subs	r0, r0, #1
.Ltmp179:
	@DEBUG_VALUE: mbedtls_pkcs12_derivation:c <- undef
	@DEBUG_VALUE: mbedtls_pkcs12_derivation:i <- $r0
	.loc	4 344 9                         @ ../../../ThirdParty/mbedTLS/library/pkcs12.c:344:9
	bne	.LBB3_28
.Ltmp180:
@ %bb.29:                               @   in Loop: Header=BB3_12 Depth=1
	@DEBUG_VALUE: mbedtls_pkcs12_derivation:datalen <- [DW_OP_plus_uconst 36] [$sp+0]
	@DEBUG_VALUE: mbedtls_pkcs12_derivation:i <- $r0
	@DEBUG_VALUE: mbedtls_pkcs12_derivation:p <- [DW_OP_plus_uconst 24] [$sp+0]
	@DEBUG_VALUE: mbedtls_pkcs12_derivation:v <- [DW_OP_plus_uconst 16] [$sp+0]
	@DEBUG_VALUE: mbedtls_pkcs12_derivation:hlen <- [DW_OP_plus_uconst 32] [$sp+0]
	@DEBUG_VALUE: mbedtls_pkcs12_derivation:salt <- [DW_OP_plus_uconst 648] [$sp+0]
	@DEBUG_VALUE: mbedtls_pkcs12_derivation:saltlen <- [DW_OP_plus_uconst 652] [$sp+0]
	@DEBUG_VALUE: mbedtls_pkcs12_derivation:id <- [DW_OP_plus_uconst 660] [$sp+0]
	@DEBUG_VALUE: mbedtls_pkcs12_derivation:iterations <- [DW_OP_plus_uconst 664] [$sp+0]
	@DEBUG_VALUE: mbedtls_pkcs12_derivation:pwdlen <- [DW_OP_LLVM_entry_value 1] $r3
	@DEBUG_VALUE: mbedtls_pkcs12_derivation:pwd <- [DW_OP_LLVM_entry_value 1] $r2
	@DEBUG_VALUE: mbedtls_pkcs12_derivation:datalen <- [DW_OP_plus_uconst 36] [$sp+0]
	@DEBUG_VALUE: mbedtls_pkcs12_derivation:p <- [DW_OP_plus_uconst 24] [$sp+0]
	.loc	4 0 9 is_stmt 0                 @ ../../../ThirdParty/mbedTLS/library/pkcs12.c:0:9
	add	r0, sp, #40
.Ltmp181:
	.loc	4 295 21 is_stmt 1              @ ../../../ThirdParty/mbedTLS/library/pkcs12.c:295:21
	bl	mbedtls_md_starts
	mov	r7, r0
.Ltmp182:
	@DEBUG_VALUE: mbedtls_pkcs12_derivation:ret <- $r7
	.loc	4 295 13 is_stmt 0              @ ../../../ThirdParty/mbedTLS/library/pkcs12.c:295:13
	cmp	r0, #0
	beq	.LBB3_12
	b	.LBB3_32
.Ltmp183:
.LBB3_30:
	@DEBUG_VALUE: mbedtls_pkcs12_derivation:v <- [DW_OP_plus_uconst 16] [$sp+0]
	@DEBUG_VALUE: mbedtls_pkcs12_derivation:hlen <- [DW_OP_plus_uconst 32] [$sp+0]
	@DEBUG_VALUE: mbedtls_pkcs12_derivation:salt <- [DW_OP_plus_uconst 648] [$sp+0]
	@DEBUG_VALUE: mbedtls_pkcs12_derivation:saltlen <- [DW_OP_plus_uconst 652] [$sp+0]
	@DEBUG_VALUE: mbedtls_pkcs12_derivation:id <- [DW_OP_plus_uconst 660] [$sp+0]
	@DEBUG_VALUE: mbedtls_pkcs12_derivation:iterations <- [DW_OP_plus_uconst 664] [$sp+0]
	@DEBUG_VALUE: mbedtls_pkcs12_derivation:pwd <- [DW_OP_LLVM_entry_value 1] $r2
	.loc	4 0 0                           @ ../../../ThirdParty/mbedTLS/library/pkcs12.c:0:0
	ldr	r7, [sp, #12]                   @ 4-byte Reload
	b	.LBB3_32
.Ltmp184:
.LBB3_31:
	@DEBUG_VALUE: mbedtls_pkcs12_derivation:ret <- $r0
	@DEBUG_VALUE: mbedtls_pkcs12_derivation:datalen <- [DW_OP_plus_uconst 36] [$sp+0]
	@DEBUG_VALUE: mbedtls_pkcs12_derivation:p <- [DW_OP_plus_uconst 24] [$sp+0]
	@DEBUG_VALUE: mbedtls_pkcs12_derivation:v <- [DW_OP_plus_uconst 16] [$sp+0]
	@DEBUG_VALUE: mbedtls_pkcs12_derivation:hlen <- [DW_OP_plus_uconst 32] [$sp+0]
	@DEBUG_VALUE: mbedtls_pkcs12_derivation:salt <- [DW_OP_plus_uconst 648] [$sp+0]
	@DEBUG_VALUE: mbedtls_pkcs12_derivation:saltlen <- [DW_OP_plus_uconst 652] [$sp+0]
	@DEBUG_VALUE: mbedtls_pkcs12_derivation:id <- [DW_OP_plus_uconst 660] [$sp+0]
	@DEBUG_VALUE: mbedtls_pkcs12_derivation:iterations <- [DW_OP_plus_uconst 664] [$sp+0]
	@DEBUG_VALUE: mbedtls_pkcs12_derivation:pwdlen <- [DW_OP_LLVM_entry_value 1] $r3
	@DEBUG_VALUE: mbedtls_pkcs12_derivation:pwd <- [DW_OP_LLVM_entry_value 1] $r2
	mov	r7, r0
.Ltmp185:
	@DEBUG_VALUE: mbedtls_pkcs12_derivation:ret <- $r7
.LBB3_32:
	@DEBUG_VALUE: mbedtls_pkcs12_derivation:v <- [DW_OP_plus_uconst 16] [$sp+0]
	@DEBUG_VALUE: mbedtls_pkcs12_derivation:hlen <- [DW_OP_plus_uconst 32] [$sp+0]
	@DEBUG_VALUE: mbedtls_pkcs12_derivation:salt <- [DW_OP_plus_uconst 648] [$sp+0]
	@DEBUG_VALUE: mbedtls_pkcs12_derivation:saltlen <- [DW_OP_plus_uconst 652] [$sp+0]
	@DEBUG_VALUE: mbedtls_pkcs12_derivation:id <- [DW_OP_plus_uconst 660] [$sp+0]
	@DEBUG_VALUE: mbedtls_pkcs12_derivation:iterations <- [DW_OP_plus_uconst 664] [$sp+0]
	@DEBUG_VALUE: mbedtls_pkcs12_derivation:pwd <- [DW_OP_LLVM_entry_value 1] $r2
	@DEBUG_VALUE: mbedtls_pkcs12_derivation:ret <- $r7
	@DEBUG_LABEL: mbedtls_pkcs12_derivation:exit
	add	r0, sp, #372
	movs	r4, #128
	.loc	4 355 5 is_stmt 1               @ ../../../ThirdParty/mbedTLS/library/pkcs12.c:355:5
	mov	r1, r4
	bl	mbedtls_platform_zeroize
	add	r0, sp, #244
	.loc	4 356 5                         @ ../../../ThirdParty/mbedTLS/library/pkcs12.c:356:5
	mov	r1, r4
	bl	mbedtls_platform_zeroize
	add	r0, sp, #116
	.loc	4 357 5                         @ ../../../ThirdParty/mbedTLS/library/pkcs12.c:357:5
	mov	r1, r4
	bl	mbedtls_platform_zeroize
	add	r0, sp, #52
	movs	r1, #64
	.loc	4 358 5                         @ ../../../ThirdParty/mbedTLS/library/pkcs12.c:358:5
	bl	mbedtls_platform_zeroize
	add	r0, sp, #40
	.loc	4 360 5                         @ ../../../ThirdParty/mbedTLS/library/pkcs12.c:360:5
	bl	mbedtls_md_free
.Ltmp186:
.LBB3_33:
	@DEBUG_VALUE: mbedtls_pkcs12_derivation:salt <- [DW_OP_plus_uconst 648] [$sp+0]
	@DEBUG_VALUE: mbedtls_pkcs12_derivation:saltlen <- [DW_OP_plus_uconst 652] [$sp+0]
	@DEBUG_VALUE: mbedtls_pkcs12_derivation:id <- [DW_OP_plus_uconst 660] [$sp+0]
	@DEBUG_VALUE: mbedtls_pkcs12_derivation:iterations <- [DW_OP_plus_uconst 664] [$sp+0]
	.loc	4 363 1                         @ ../../../ThirdParty/mbedTLS/library/pkcs12.c:363:1
	mov	r0, r7
	add	sp, #508
.Ltmp187:
	add	sp, #120
	pop	{r4, r5, r6, r7, pc}
.Ltmp188:
	.p2align	2
@ %bb.34:
	.loc	4 0 1 is_stmt 0                 @ ../../../ThirdParty/mbedTLS/library/pkcs12.c:0:1
__arm_cp.3_0:
	.long	4294959232                      @ 0xffffe080
.Lcpi_end3:
	.size	__arm_cp.3_0, .Lcpi_end3-__arm_cp.3_0
.Lfunc_end3:
	.size	mbedtls_pkcs12_derivation, .Lfunc_end3-mbedtls_pkcs12_derivation
	.cfi_endproc
	.cantunwind
	.fnend
                                        @ -- End function
	.section	.text.pkcs12_fill_buffer,"ax",%progbits
	.p2align	1                               @ -- Begin function pkcs12_fill_buffer
	.type	pkcs12_fill_buffer,%function
	.code	16                              @ @pkcs12_fill_buffer
	.thumb_func
pkcs12_fill_buffer:
.Lfunc_begin4:
	.loc	4 235 0 is_stmt 1               @ ../../../ThirdParty/mbedTLS/library/pkcs12.c:235:0
	.fnstart
	.cfi_startproc
@ %bb.0:
	@DEBUG_VALUE: pkcs12_fill_buffer:data <- $r0
	@DEBUG_VALUE: pkcs12_fill_buffer:data_len <- $r1
	@DEBUG_VALUE: pkcs12_fill_buffer:filler <- $r2
	@DEBUG_VALUE: pkcs12_fill_buffer:fill_len <- $r3
	.save	{r4, r5, r6, r7, lr}
	push	{r4, r5, r6, r7, lr}
	.cfi_def_cfa_offset 20
	.cfi_offset lr, -4
	.cfi_offset r7, -8
	.cfi_offset r6, -12
	.cfi_offset r5, -16
	.cfi_offset r4, -20
	.pad	#4
	sub	sp, #4
	.cfi_def_cfa_offset 24
.Ltmp189:
	@DEBUG_VALUE: pkcs12_fill_buffer:p <- $r0
	str	r2, [sp]                        @ 4-byte Spill
	@DEBUG_VALUE: pkcs12_fill_buffer:p <- $r0
	@DEBUG_VALUE: pkcs12_fill_buffer:fill_len <- $r3
.Ltmp190:
	@DEBUG_VALUE: pkcs12_fill_buffer:filler <- [$sp+0]
	@DEBUG_VALUE: pkcs12_fill_buffer:data_len <- $r1
	@DEBUG_VALUE: pkcs12_fill_buffer:data <- $r0
	.loc	4 239 5 prologue_end            @ ../../../ThirdParty/mbedTLS/library/pkcs12.c:239:5
	cbz	r1, .LBB4_5
.Ltmp191:
@ %bb.1:
	@DEBUG_VALUE: pkcs12_fill_buffer:fill_len <- $r3
	@DEBUG_VALUE: pkcs12_fill_buffer:data_len <- $r1
	@DEBUG_VALUE: pkcs12_fill_buffer:p <- $r0
	@DEBUG_VALUE: pkcs12_fill_buffer:data <- $r0
	@DEBUG_VALUE: pkcs12_fill_buffer:filler <- [$sp+0]
	.loc	4 0 5 is_stmt 0                 @ ../../../ThirdParty/mbedTLS/library/pkcs12.c:0:5
	mov	r5, r3
.Ltmp192:
	@DEBUG_VALUE: pkcs12_fill_buffer:fill_len <- $r5
	mov	r6, r1
.Ltmp193:
	@DEBUG_VALUE: pkcs12_fill_buffer:data_len <- $r6
	mov	r7, r0
.Ltmp194:
	@DEBUG_VALUE: pkcs12_fill_buffer:data <- $r7
	@DEBUG_VALUE: pkcs12_fill_buffer:p <- $r7
	b	.LBB4_3
.Ltmp195:
.LBB4_2:                                @   in Loop: Header=BB4_3 Depth=1
	@DEBUG_VALUE: pkcs12_fill_buffer:p <- $r7
	@DEBUG_VALUE: pkcs12_fill_buffer:data_len <- $r6
	@DEBUG_VALUE: pkcs12_fill_buffer:fill_len <- $r5
	@DEBUG_VALUE: pkcs12_fill_buffer:filler <- [$sp+0]
	@DEBUG_VALUE: pkcs12_fill_buffer:use_len <- $r4
	.loc	4 242 9 is_stmt 1               @ ../../../ThirdParty/mbedTLS/library/pkcs12.c:242:9
	mov	r0, r7
	ldr	r1, [sp]                        @ 4-byte Reload
	mov	r2, r4
	bl	__aeabi_memcpy
	.loc	4 244 18                        @ ../../../ThirdParty/mbedTLS/library/pkcs12.c:244:18
	subs	r6, r6, r4
.Ltmp196:
	@DEBUG_VALUE: pkcs12_fill_buffer:data_len <- $r6
	.loc	4 243 11                        @ ../../../ThirdParty/mbedTLS/library/pkcs12.c:243:11
	adds	r7, r7, r4
.Ltmp197:
	@DEBUG_VALUE: pkcs12_fill_buffer:data <- [DW_OP_LLVM_entry_value 1] $r0
	@DEBUG_VALUE: pkcs12_fill_buffer:p <- $r7
	.loc	4 239 5                         @ ../../../ThirdParty/mbedTLS/library/pkcs12.c:239:5
	cbz	r6, .LBB4_5
.Ltmp198:
.LBB4_3:                                @ =>This Inner Loop Header: Depth=1
	@DEBUG_VALUE: pkcs12_fill_buffer:p <- $r7
	@DEBUG_VALUE: pkcs12_fill_buffer:data_len <- $r6
	@DEBUG_VALUE: pkcs12_fill_buffer:fill_len <- $r5
	@DEBUG_VALUE: pkcs12_fill_buffer:filler <- [$sp+0]
	@DEBUG_VALUE: pkcs12_fill_buffer:data_len <- $r6
	@DEBUG_VALUE: pkcs12_fill_buffer:p <- $r7
	.loc	4 241 19                        @ ../../../ThirdParty/mbedTLS/library/pkcs12.c:241:19
	cmp	r6, r5
	mov	r4, r5
	bhi	.LBB4_2
.Ltmp199:
@ %bb.4:                                @   in Loop: Header=BB4_3 Depth=1
	@DEBUG_VALUE: pkcs12_fill_buffer:p <- $r7
	@DEBUG_VALUE: pkcs12_fill_buffer:data_len <- $r6
	@DEBUG_VALUE: pkcs12_fill_buffer:fill_len <- $r5
	@DEBUG_VALUE: pkcs12_fill_buffer:filler <- [$sp+0]
	mov	r4, r6
	b	.LBB4_2
.Ltmp200:
.LBB4_5:
	@DEBUG_VALUE: pkcs12_fill_buffer:filler <- [$sp+0]
	.loc	4 246 1                         @ ../../../ThirdParty/mbedTLS/library/pkcs12.c:246:1
	add	sp, #4
.Ltmp201:
	pop	{r4, r5, r6, r7, pc}
.Ltmp202:
.Lfunc_end4:
	.size	pkcs12_fill_buffer, .Lfunc_end4-pkcs12_fill_buffer
	.cfi_endproc
	.cantunwind
	.fnend
                                        @ -- End function
	.section	.text.pkcs12_parse_pbe_params,"ax",%progbits
	.p2align	2                               @ -- Begin function pkcs12_parse_pbe_params
	.type	pkcs12_parse_pbe_params,%function
	.code	16                              @ @pkcs12_parse_pbe_params
	.thumb_func
pkcs12_parse_pbe_params:
.Lfunc_begin5:
	.loc	4 55 0                          @ ../../../ThirdParty/mbedTLS/library/pkcs12.c:55:0
	.fnstart
	.cfi_startproc
@ %bb.0:
	@DEBUG_VALUE: pkcs12_parse_pbe_params:params <- $r0
	@DEBUG_VALUE: pkcs12_parse_pbe_params:salt <- $r1
	@DEBUG_VALUE: pkcs12_parse_pbe_params:iterations <- $r2
	.save	{r4, r5, r6, r7, lr}
	push	{r4, r5, r6, r7, lr}
	.cfi_def_cfa_offset 20
	.cfi_offset lr, -4
	.cfi_offset r7, -8
	.cfi_offset r6, -12
	.cfi_offset r5, -16
	.cfi_offset r4, -20
	.pad	#4
	sub	sp, #4
	.cfi_def_cfa_offset 24
	mov	r5, r0
.Ltmp203:
	@DEBUG_VALUE: pkcs12_parse_pbe_params:end <- undef
	ldr	r4, __arm_cp.5_0
.Ltmp204:
	@DEBUG_VALUE: pkcs12_parse_pbe_params:p <- undef
	@DEBUG_VALUE: pkcs12_parse_pbe_params:iterations <- $r2
	@DEBUG_VALUE: pkcs12_parse_pbe_params:salt <- $r1
	@DEBUG_VALUE: pkcs12_parse_pbe_params:params <- $r5
	.loc	4 67 17 prologue_end            @ ../../../ThirdParty/mbedTLS/library/pkcs12.c:67:17
	ldr	r0, [r0]
.Ltmp205:
	.loc	4 67 9 is_stmt 0                @ ../../../ThirdParty/mbedTLS/library/pkcs12.c:67:9
	cmp	r0, #48
	bne	.LBB5_3
.Ltmp206:
@ %bb.1:
	@DEBUG_VALUE: pkcs12_parse_pbe_params:params <- $r5
	@DEBUG_VALUE: pkcs12_parse_pbe_params:iterations <- $r2
	@DEBUG_VALUE: pkcs12_parse_pbe_params:salt <- $r1
	.loc	4 0 9                           @ ../../../ThirdParty/mbedTLS/library/pkcs12.c:0:9
	mov	r6, r1
.Ltmp207:
	@DEBUG_VALUE: pkcs12_parse_pbe_params:salt <- $r6
	str	r2, [sp]                        @ 4-byte Spill
.Ltmp208:
	@DEBUG_VALUE: pkcs12_parse_pbe_params:iterations <- [$sp+0]
	ldr	r0, [r5, #4]
	ldr	r1, [r5, #8]
	adds	r7, r1, r0
.Ltmp209:
	@DEBUG_VALUE: pkcs12_parse_pbe_params:end <- $r7
	adds	r5, #8
.Ltmp210:
	@DEBUG_VALUE: pkcs12_parse_pbe_params:p <- $r5
	.loc	4 71 54 is_stmt 1               @ ../../../ThirdParty/mbedTLS/library/pkcs12.c:71:54
	adds	r2, r6, #4
	movs	r3, #4
	.loc	4 71 17 is_stmt 0               @ ../../../ThirdParty/mbedTLS/library/pkcs12.c:71:17
	mov	r0, r5
	mov	r1, r7
	bl	mbedtls_asn1_get_tag
.Ltmp211:
	@DEBUG_VALUE: pkcs12_parse_pbe_params:ret <- $r0
	.loc	4 71 9                          @ ../../../ThirdParty/mbedTLS/library/pkcs12.c:71:9
	cbz	r0, .LBB5_5
.Ltmp212:
@ %bb.2:
	@DEBUG_VALUE: pkcs12_parse_pbe_params:iterations <- [$sp+0]
	@DEBUG_VALUE: pkcs12_parse_pbe_params:end <- $r7
	@DEBUG_VALUE: pkcs12_parse_pbe_params:salt <- $r6
	@DEBUG_VALUE: pkcs12_parse_pbe_params:p <- $r5
	@DEBUG_VALUE: pkcs12_parse_pbe_params:ret <- $r0
	.loc	4 72 55 is_stmt 1               @ ../../../ThirdParty/mbedTLS/library/pkcs12.c:72:55
	adds	r4, r0, r4
	.loc	4 72 9 is_stmt 0                @ ../../../ThirdParty/mbedTLS/library/pkcs12.c:72:9
	b	.LBB5_4
.Ltmp213:
.LBB5_3:
	@DEBUG_VALUE: pkcs12_parse_pbe_params:params <- $r5
	@DEBUG_VALUE: pkcs12_parse_pbe_params:iterations <- $r2
	@DEBUG_VALUE: pkcs12_parse_pbe_params:salt <- $r1
	.loc	4 0 9                           @ ../../../ThirdParty/mbedTLS/library/pkcs12.c:0:9
	subs	r4, #98
.Ltmp214:
.LBB5_4:
	mov	r0, r4
	add	sp, #4
	pop	{r4, r5, r6, r7, pc}
.LBB5_5:
.Ltmp215:
	@DEBUG_VALUE: pkcs12_parse_pbe_params:iterations <- [$sp+0]
	@DEBUG_VALUE: pkcs12_parse_pbe_params:end <- $r7
	@DEBUG_VALUE: pkcs12_parse_pbe_params:salt <- $r6
	@DEBUG_VALUE: pkcs12_parse_pbe_params:p <- $r5
	@DEBUG_VALUE: pkcs12_parse_pbe_params:ret <- $r0
	.loc	4 74 15 is_stmt 1               @ ../../../ThirdParty/mbedTLS/library/pkcs12.c:74:15
	ldr	r0, [r5]
.Ltmp216:
	.loc	4 74 13 is_stmt 0               @ ../../../ThirdParty/mbedTLS/library/pkcs12.c:74:13
	str	r0, [r6, #8]
	.loc	4 75 17 is_stmt 1               @ ../../../ThirdParty/mbedTLS/library/pkcs12.c:75:17
	ldr	r0, [r6, #4]
	.loc	4 75 8 is_stmt 0                @ ../../../ThirdParty/mbedTLS/library/pkcs12.c:75:8
	ldr	r1, [r5]
	adds	r0, r1, r0
	str	r0, [r5]
.Ltmp217:
	.loc	4 77 17 is_stmt 1               @ ../../../ThirdParty/mbedTLS/library/pkcs12.c:77:17
	mov	r0, r5
	mov	r1, r7
	ldr	r2, [sp]                        @ 4-byte Reload
.Ltmp218:
	@DEBUG_VALUE: pkcs12_parse_pbe_params:iterations <- $r2
	bl	mbedtls_asn1_get_int
.Ltmp219:
	@DEBUG_VALUE: pkcs12_parse_pbe_params:iterations <- [DW_OP_LLVM_entry_value 1] $r2
	@DEBUG_VALUE: pkcs12_parse_pbe_params:ret <- $r0
	.loc	4 77 9 is_stmt 0                @ ../../../ThirdParty/mbedTLS/library/pkcs12.c:77:9
	cbz	r0, .LBB5_7
.Ltmp220:
@ %bb.6:
	@DEBUG_VALUE: pkcs12_parse_pbe_params:end <- $r7
	@DEBUG_VALUE: pkcs12_parse_pbe_params:salt <- $r6
	@DEBUG_VALUE: pkcs12_parse_pbe_params:p <- $r5
	@DEBUG_VALUE: pkcs12_parse_pbe_params:ret <- $r0
	@DEBUG_VALUE: pkcs12_parse_pbe_params:iterations <- [DW_OP_LLVM_entry_value 1] $r2
	.loc	4 78 55 is_stmt 1               @ ../../../ThirdParty/mbedTLS/library/pkcs12.c:78:55
	adds	r4, r0, r4
	.loc	4 78 9 is_stmt 0                @ ../../../ThirdParty/mbedTLS/library/pkcs12.c:78:9
	b	.LBB5_4
.Ltmp221:
.LBB5_7:
	@DEBUG_VALUE: pkcs12_parse_pbe_params:end <- $r7
	@DEBUG_VALUE: pkcs12_parse_pbe_params:salt <- $r6
	@DEBUG_VALUE: pkcs12_parse_pbe_params:p <- $r5
	@DEBUG_VALUE: pkcs12_parse_pbe_params:ret <- $r0
	@DEBUG_VALUE: pkcs12_parse_pbe_params:iterations <- [DW_OP_LLVM_entry_value 1] $r2
	.loc	4 80 9 is_stmt 1                @ ../../../ThirdParty/mbedTLS/library/pkcs12.c:80:9
	ldr	r0, [r5]
.Ltmp222:
	.loc	4 80 9 is_stmt 0                @ ../../../ThirdParty/mbedTLS/library/pkcs12.c:80:9
	cmp	r0, r7
	beq	.LBB5_9
.Ltmp223:
@ %bb.8:
	@DEBUG_VALUE: pkcs12_parse_pbe_params:end <- $r7
	@DEBUG_VALUE: pkcs12_parse_pbe_params:salt <- $r6
	@DEBUG_VALUE: pkcs12_parse_pbe_params:p <- $r5
	@DEBUG_VALUE: pkcs12_parse_pbe_params:iterations <- [DW_OP_LLVM_entry_value 1] $r2
	.loc	4 0 9                           @ ../../../ThirdParty/mbedTLS/library/pkcs12.c:0:9
	subs	r4, #102
	b	.LBB5_4
.Ltmp224:
.LBB5_9:
	@DEBUG_VALUE: pkcs12_parse_pbe_params:end <- $r7
	@DEBUG_VALUE: pkcs12_parse_pbe_params:salt <- $r6
	@DEBUG_VALUE: pkcs12_parse_pbe_params:p <- $r5
	@DEBUG_VALUE: pkcs12_parse_pbe_params:iterations <- [DW_OP_LLVM_entry_value 1] $r2
	movs	r4, #0
	b	.LBB5_4
.Ltmp225:
	.p2align	2
@ %bb.10:
__arm_cp.5_0:
	.long	4294959488                      @ 0xffffe180
.Lcpi_end4:
	.size	__arm_cp.5_0, .Lcpi_end4-__arm_cp.5_0
.Lfunc_end5:
	.size	pkcs12_parse_pbe_params, .Lfunc_end5-pkcs12_parse_pbe_params
	.cfi_endproc
	.cantunwind
	.fnend
                                        @ -- End function
	.file	5 "C:\\Users\\shw26\\OneDrive\\Desktop\\2021\\2021-1\\\354\272\241\354\212\244\355\206\244\353\224\224\354\236\220\354\235\2702\\Nuvoton\\M2351_BSP_v3.00.004\\M2351Series_BSP_CMSIS_V3.00.004\\MyProject\\PulseMonitoring\\Secure" "../../../ThirdParty/mbedTLS/include/mbedtls\\arc4.h"
	.file	6 "C:\\Users\\shw26\\OneDrive\\Desktop\\2021\\2021-1\\\354\272\241\354\212\244\355\206\244\353\224\224\354\236\220\354\235\2702\\Nuvoton\\M2351_BSP_v3.00.004\\M2351Series_BSP_CMSIS_V3.00.004\\MyProject\\PulseMonitoring\\Secure" "../../../ThirdParty/mbedTLS/include/mbedtls\\asn1.h"
	.section	".note.GNU-stack","",%progbits
	.eabi_attribute	30, 1	@ Tag_ABI_optimization_goals
	.ARM_attribute	16, 1	@ Tag_AV_eba