	.text
	.syntax unified
	.eabi_attribute	67, "2.09"	@ Tag_conformance
	.cpu	cortex-m23
	.eabi_attribute	6, 16	@ Tag_CPU_arch
	.eabi_attribute	7, 77	@ Tag_CPU_arch_profile
	.eabi_attribute	8, 0	@ Tag_ARM_ISA_use
	.eabi_attribute	9, 3	@ Tag_THUMB_ISA_use
	.eabi_attribute	34, 0	@ Tag_CPU_unaligned_access
	.eabi_attribute	17, 1	@ Tag_ABI_PCS_GOT_use
	.eabi_attribute	20, 2	@ Tag_ABI_FP_denormal
	.eabi_attribute	21, 0	@ Tag_ABI_FP_exceptions
	.eabi_attribute	23, 1	@ Tag_ABI_FP_number_model
	.eabi_attribute	24, 1	@ Tag_ABI_align_needed
	.eabi_attribute	25, 1	@ Tag_ABI_align_preserved
	.eabi_attribute	38, 1	@ Tag_ABI_FP_16bit_format
	.eabi_attribute	18, 2	@ Tag_ABI_PCS_wchar_t
	.eabi_attribute	26, 1	@ Tag_ABI_enum_size
	.eabi_attribute	14, 0	@ Tag_ABI_PCS_R9_use
	.file	"pkparse.c"
	.file	1 "C:\\Users\\shw26\\OneDrive\\Desktop\\2021\\2021-1\\\354\272\241\354\212\244\355\206\244\353\224\224\354\236\220\354\235\2702\\Nuvoton\\M2351_BSP_v3.00.004\\M2351Series_BSP_CMSIS_V3.00.004\\MyProject\\PulseMonitoring\\Secure" "../../../ThirdParty/mbedTLS/include/mbedtls/pk.h"
	.file	2 "C:\\Users\\shw26\\OneDrive\\Desktop\\2021\\2021-1\\\354\272\241\354\212\244\355\206\244\353\224\224\354\236\220\354\235\2702\\Nuvoton\\M2351_BSP_v3.00.004\\M2351Series_BSP_CMSIS_V3.00.004\\MyProject\\PulseMonitoring\\Secure" "../../../ThirdParty/mbedTLS/include/mbedtls\\ecp.h"
	.file	3 "C:\\Users\\shw26\\OneDrive\\Desktop\\2021\\2021-1\\\354\272\241\354\212\244\355\206\244\353\224\224\354\236\220\354\235\2702\\Nuvoton\\M2351_BSP_v3.00.004\\M2351Series_BSP_CMSIS_V3.00.004\\MyProject\\PulseMonitoring\\Secure" "../../../ThirdParty/mbedTLS/include/mbedtls/cipher.h"
	.file	4 "C:\\Users\\shw26\\OneDrive\\Desktop\\2021\\2021-1\\\354\272\241\354\212\244\355\206\244\353\224\224\354\236\220\354\235\2702\\Nuvoton\\M2351_BSP_v3.00.004\\M2351Series_BSP_CMSIS_V3.00.004\\MyProject\\PulseMonitoring\\Secure" "../../../ThirdParty/mbedTLS/include/mbedtls/md.h"
	.file	5 "C:\\Users\\shw26\\OneDrive\\Desktop\\2021\\2021-1\\\354\272\241\354\212\244\355\206\244\353\224\224\354\236\220\354\235\2702\\Nuvoton\\M2351_BSP_v3.00.004\\M2351Series_BSP_CMSIS_V3.00.004\\MyProject\\PulseMonitoring\\Secure" "../../../ThirdParty/mbedTLS/include/mbedtls\\rsa.h"
	.file	6 "C:\\" "Keil_v5\\ARM\\ARMCLANG\\Bin\\..\\include\\stddef.h"
	.file	7 "C:\\Users\\shw26\\OneDrive\\Desktop\\2021\\2021-1\\\354\272\241\354\212\244\355\206\244\353\224\224\354\236\220\354\235\2702\\Nuvoton\\M2351_BSP_v3.00.004\\M2351Series_BSP_CMSIS_V3.00.004\\MyProject\\PulseMonitoring\\Secure" "../../../ThirdParty/mbedTLS/include/mbedtls/bignum.h"
	.file	8 "C:\\" "Keil_v5\\ARM\\ARMCLANG\\Bin\\..\\include\\stdint.h"
	.section	.text.mbedtls_pk_parse_subpubkey,"ax",%progbits
	.hidden	mbedtls_pk_parse_subpubkey      @ -- Begin function mbedtls_pk_parse_subpubkey
	.globl	mbedtls_pk_parse_subpubkey
	.p2align	2
	.type	mbedtls_pk_parse_subpubkey,%function
	.code	16                              @ @mbedtls_pk_parse_subpubkey
	.thumb_func
mbedtls_pk_parse_subpubkey:
.Lfunc_begin0:
	.file	9 "C:\\Users\\shw26\\OneDrive\\Desktop\\2021\\2021-1\\\354\272\241\354\212\244\355\206\244\353\224\224\354\236\220\354\235\2702\\Nuvoton\\M2351_BSP_v3.00.004\\M2351Series_BSP_CMSIS_V3.00.004\\MyProject\\PulseMonitoring\\Secure" "../../../ThirdParty/mbedTLS/library/pkparse.c"
	.loc	9 617 0                         @ ../../../ThirdParty/mbedTLS/library/pkparse.c:617:0
	.fnstart
	.cfi_sections .debug_frame
	.cfi_startproc
@ %bb.0:
	@DEBUG_VALUE: mbedtls_pk_parse_subpubkey:p <- $r0
	@DEBUG_VALUE: mbedtls_pk_parse_subpubkey:end <- $r1
	@DEBUG_VALUE: mbedtls_pk_parse_subpubkey:pk <- $r2
	.save	{r4, r5, r6, r7, lr}
	push	{r4, r5, r6, r7, lr}
	.cfi_def_cfa_offset 20
	.cfi_offset lr, -4
	.cfi_offset r7, -8
	.cfi_offset r6, -12
	.cfi_offset r5, -16
	.cfi_offset r4, -20
	.pad	#20
	sub	sp, #20
	.cfi_def_cfa_offset 40
	mov	r4, r2
	mov	r5, r0
	mov	r0, sp
.Ltmp0:
	@DEBUG_VALUE: mbedtls_pk_parse_subpubkey:p <- [DW_OP_LLVM_entry_value 1] $r0
	movs	r7, #0
.Ltmp1:
	@DEBUG_VALUE: mbedtls_pk_parse_subpubkey:pk_alg <- 0
	@DEBUG_VALUE: mbedtls_pk_parse_subpubkey:pk <- $r4
	@DEBUG_VALUE: mbedtls_pk_parse_subpubkey:end <- $r1
	@DEBUG_VALUE: mbedtls_pk_parse_subpubkey:p <- $r5
	.loc	9 621 23 prologue_end           @ ../../../ThirdParty/mbedTLS/library/pkparse.c:621:23
	strb	r7, [r0]
.Ltmp2:
	@DEBUG_VALUE: mbedtls_pk_parse_subpubkey:len <- [DW_OP_plus_uconst 16, DW_OP_deref] $sp
	.loc	9 0 23 is_stmt 0                @ ../../../ThirdParty/mbedTLS/library/pkparse.c:0:23
	add	r2, sp, #16
	movs	r3, #48
.Ltmp3:
	.loc	9 629 17 is_stmt 1              @ ../../../ThirdParty/mbedTLS/library/pkparse.c:629:17
	mov	r0, r5
	@DEBUG_VALUE: mbedtls_pk_parse_subpubkey:end <- $r1
	bl	mbedtls_asn1_get_tag
.Ltmp4:
	@DEBUG_VALUE: mbedtls_pk_parse_subpubkey:end <- [DW_OP_LLVM_entry_value 1] $r1
	@DEBUG_VALUE: mbedtls_pk_parse_subpubkey:ret <- $r0
	.loc	9 629 9 is_stmt 0               @ ../../../ThirdParty/mbedTLS/library/pkparse.c:629:9
	cbz	r0, .LBB0_2
.Ltmp5:
@ %bb.1:
	@DEBUG_VALUE: mbedtls_pk_parse_subpubkey:p <- $r5
	@DEBUG_VALUE: mbedtls_pk_parse_subpubkey:pk <- $r4
	@DEBUG_VALUE: mbedtls_pk_parse_subpubkey:ret <- $r0
	@DEBUG_VALUE: mbedtls_pk_parse_subpubkey:len <- [DW_OP_plus_uconst 16, DW_OP_deref] $sp
	@DEBUG_VALUE: mbedtls_pk_parse_subpubkey:end <- [DW_OP_LLVM_entry_value 1] $r1
	@DEBUG_VALUE: mbedtls_pk_parse_subpubkey:pk_alg <- 0
	.loc	9 632 51 is_stmt 1              @ ../../../ThirdParty/mbedTLS/library/pkparse.c:632:51
	movw	r1, #15488
	subs	r0, r0, r1
.Ltmp6:
	subs	r0, #128
.Ltmp7:
	.loc	9 677 1                         @ ../../../ThirdParty/mbedTLS/library/pkparse.c:677:1
	add	sp, #20
.Ltmp8:
	pop	{r4, r5, r6, r7, pc}
.Ltmp9:
.LBB0_2:
	@DEBUG_VALUE: mbedtls_pk_parse_subpubkey:p <- $r5
	@DEBUG_VALUE: mbedtls_pk_parse_subpubkey:pk <- $r4
	@DEBUG_VALUE: mbedtls_pk_parse_subpubkey:ret <- $r0
	@DEBUG_VALUE: mbedtls_pk_parse_subpubkey:len <- [DW_OP_plus_uconst 16, DW_OP_deref] $sp
	@DEBUG_VALUE: mbedtls_pk_parse_subpubkey:end <- [DW_OP_LLVM_entry_value 1] $r1
	@DEBUG_VALUE: mbedtls_pk_parse_subpubkey:pk_alg <- 0
	.loc	9 635 11                        @ ../../../ThirdParty/mbedTLS/library/pkparse.c:635:11
	ldr	r0, [r5]
.Ltmp10:
	.loc	9 635 16 is_stmt 0              @ ../../../ThirdParty/mbedTLS/library/pkparse.c:635:16
	ldr	r1, [sp, #16]
.Ltmp11:
	@DEBUG_VALUE: mbedtls_pk_parse_subpubkey:len <- $r1
	.loc	9 635 14                        @ ../../../ThirdParty/mbedTLS/library/pkparse.c:635:14
	adds	r6, r0, r1
.Ltmp12:
	@DEBUG_VALUE: mbedtls_pk_parse_subpubkey:pk_alg <- [DW_OP_deref] $sp
	@DEBUG_VALUE: mbedtls_pk_parse_subpubkey:end <- $r6
	.loc	9 0 14                          @ ../../../ThirdParty/mbedTLS/library/pkparse.c:0:14
	mov	r2, sp
	add	r3, sp, #4
.Ltmp13:
	.loc	9 637 17 is_stmt 1              @ ../../../ThirdParty/mbedTLS/library/pkparse.c:637:17
	mov	r0, r5
	mov	r1, r6
.Ltmp14:
	bl	pk_get_pk_alg
.Ltmp15:
	@DEBUG_VALUE: mbedtls_pk_parse_subpubkey:ret <- $r0
	.loc	9 637 9 is_stmt 0               @ ../../../ThirdParty/mbedTLS/library/pkparse.c:637:9
	cbz	r0, .LBB0_4
.Ltmp16:
.LBB0_3:
	@DEBUG_VALUE: mbedtls_pk_parse_subpubkey:end <- $r6
	@DEBUG_VALUE: mbedtls_pk_parse_subpubkey:p <- $r5
	.loc	9 677 1 is_stmt 1               @ ../../../ThirdParty/mbedTLS/library/pkparse.c:677:1
	add	sp, #20
	pop	{r4, r5, r6, r7, pc}
.Ltmp17:
.LBB0_4:
	@DEBUG_VALUE: mbedtls_pk_parse_subpubkey:end <- $r6
	@DEBUG_VALUE: mbedtls_pk_parse_subpubkey:p <- $r5
	@DEBUG_VALUE: mbedtls_pk_parse_subpubkey:pk <- $r4
	@DEBUG_VALUE: mbedtls_pk_parse_subpubkey:ret <- $r0
	@DEBUG_VALUE: mbedtls_pk_parse_subpubkey:pk_alg <- [DW_OP_deref] $sp
	@DEBUG_VALUE: mbedtls_pk_parse_subpubkey:len <- [DW_OP_plus_uconst 16, DW_OP_deref] $sp
	.loc	9 0 1 is_stmt 0                 @ ../../../ThirdParty/mbedTLS/library/pkparse.c:0:1
	add	r2, sp, #16
.Ltmp18:
	.loc	9 640 17 is_stmt 1              @ ../../../ThirdParty/mbedTLS/library/pkparse.c:640:17
	mov	r0, r5
.Ltmp19:
	mov	r1, r6
	bl	mbedtls_asn1_get_bitstring_null
.Ltmp20:
	@DEBUG_VALUE: mbedtls_pk_parse_subpubkey:ret <- $r0
	.loc	9 0 17 is_stmt 0                @ ../../../ThirdParty/mbedTLS/library/pkparse.c:0:17
	ldr	r2, __arm_cp.0_0
.Ltmp21:
	.loc	9 640 9                         @ ../../../ThirdParty/mbedTLS/library/pkparse.c:640:9
	cbz	r0, .LBB0_6
.Ltmp22:
@ %bb.5:
	@DEBUG_VALUE: mbedtls_pk_parse_subpubkey:end <- $r6
	@DEBUG_VALUE: mbedtls_pk_parse_subpubkey:p <- $r5
	@DEBUG_VALUE: mbedtls_pk_parse_subpubkey:pk <- $r4
	@DEBUG_VALUE: mbedtls_pk_parse_subpubkey:ret <- $r0
	@DEBUG_VALUE: mbedtls_pk_parse_subpubkey:pk_alg <- [DW_OP_deref] $sp
	@DEBUG_VALUE: mbedtls_pk_parse_subpubkey:len <- [DW_OP_plus_uconst 16, DW_OP_deref] $sp
	.loc	9 641 47 is_stmt 1              @ ../../../ThirdParty/mbedTLS/library/pkparse.c:641:47
	adds	r0, r2, r0
.Ltmp23:
	adds	r0, #102
.Ltmp24:
	.loc	9 677 1                         @ ../../../ThirdParty/mbedTLS/library/pkparse.c:677:1
	add	sp, #20
.Ltmp25:
	pop	{r4, r5, r6, r7, pc}
.Ltmp26:
.LBB0_6:
	@DEBUG_VALUE: mbedtls_pk_parse_subpubkey:end <- $r6
	@DEBUG_VALUE: mbedtls_pk_parse_subpubkey:p <- $r5
	@DEBUG_VALUE: mbedtls_pk_parse_subpubkey:pk <- $r4
	@DEBUG_VALUE: mbedtls_pk_parse_subpubkey:ret <- $r0
	@DEBUG_VALUE: mbedtls_pk_parse_subpubkey:pk_alg <- [DW_OP_deref] $sp
	@DEBUG_VALUE: mbedtls_pk_parse_subpubkey:len <- [DW_OP_plus_uconst 16, DW_OP_deref] $sp
	.loc	9 643 9                         @ ../../../ThirdParty/mbedTLS/library/pkparse.c:643:9
	ldr	r0, [r5]
.Ltmp27:
	.loc	9 643 14 is_stmt 0              @ ../../../ThirdParty/mbedTLS/library/pkparse.c:643:14
	ldr	r1, [sp, #16]
.Ltmp28:
	@DEBUG_VALUE: mbedtls_pk_parse_subpubkey:len <- $r1
	.loc	9 643 12                        @ ../../../ThirdParty/mbedTLS/library/pkparse.c:643:12
	adds	r0, r0, r1
.Ltmp29:
	.loc	9 643 9                         @ ../../../ThirdParty/mbedTLS/library/pkparse.c:643:9
	cmp	r0, r6
	beq	.LBB0_8
.Ltmp30:
@ %bb.7:
	@DEBUG_VALUE: mbedtls_pk_parse_subpubkey:end <- $r6
	@DEBUG_VALUE: mbedtls_pk_parse_subpubkey:p <- $r5
	@DEBUG_VALUE: mbedtls_pk_parse_subpubkey:pk <- $r4
	@DEBUG_VALUE: mbedtls_pk_parse_subpubkey:len <- $r1
	@DEBUG_VALUE: mbedtls_pk_parse_subpubkey:pk_alg <- [DW_OP_deref] $sp
	.loc	9 0 0                           @ ../../../ThirdParty/mbedTLS/library/pkparse.c:0:0
	mov	r0, r2
	.loc	9 677 1 is_stmt 1               @ ../../../ThirdParty/mbedTLS/library/pkparse.c:677:1
	add	sp, #20
.Ltmp31:
	pop	{r4, r5, r6, r7, pc}
.Ltmp32:
.LBB0_8:
	@DEBUG_VALUE: mbedtls_pk_parse_subpubkey:end <- $r6
	@DEBUG_VALUE: mbedtls_pk_parse_subpubkey:p <- $r5
	@DEBUG_VALUE: mbedtls_pk_parse_subpubkey:pk <- $r4
	@DEBUG_VALUE: mbedtls_pk_parse_subpubkey:len <- $r1
	@DEBUG_VALUE: mbedtls_pk_parse_subpubkey:pk_alg <- [DW_OP_deref] $sp
	.loc	9 0 1 is_stmt 0                 @ ../../../ThirdParty/mbedTLS/library/pkparse.c:0:1
	mov	r0, sp
.Ltmp33:
	.loc	9 647 48 is_stmt 1              @ ../../../ThirdParty/mbedTLS/library/pkparse.c:647:48
	ldrb	r0, [r0]
.Ltmp34:
	@DEBUG_VALUE: mbedtls_pk_parse_subpubkey:pk_alg <- undef
	.loc	9 647 21 is_stmt 0              @ ../../../ThirdParty/mbedTLS/library/pkparse.c:647:21
	bl	mbedtls_pk_info_from_type
.Ltmp35:
	mov	r1, r0
.Ltmp36:
	@DEBUG_VALUE: mbedtls_pk_parse_subpubkey:pk_info <- $r1
	.loc	9 0 21                          @ ../../../ThirdParty/mbedTLS/library/pkparse.c:0:21
	ldr	r0, __arm_cp.0_1
.Ltmp37:
	.loc	9 647 9                         @ ../../../ThirdParty/mbedTLS/library/pkparse.c:647:9
	cmp	r1, #0
	beq	.LBB0_3
.Ltmp38:
@ %bb.9:
	@DEBUG_VALUE: mbedtls_pk_parse_subpubkey:end <- $r6
	@DEBUG_VALUE: mbedtls_pk_parse_subpubkey:p <- $r5
	@DEBUG_VALUE: mbedtls_pk_parse_subpubkey:pk <- $r4
	@DEBUG_VALUE: mbedtls_pk_parse_subpubkey:pk_info <- $r1
	.loc	9 650 17 is_stmt 1              @ ../../../ThirdParty/mbedTLS/library/pkparse.c:650:17
	mov	r0, r4
	bl	mbedtls_pk_setup
.Ltmp39:
	@DEBUG_VALUE: mbedtls_pk_parse_subpubkey:ret <- $r0
	.loc	9 650 9 is_stmt 0               @ ../../../ThirdParty/mbedTLS/library/pkparse.c:650:9
	cmp	r0, #0
	bne	.LBB0_3
.Ltmp40:
@ %bb.10:
	@DEBUG_VALUE: mbedtls_pk_parse_subpubkey:end <- $r6
	@DEBUG_VALUE: mbedtls_pk_parse_subpubkey:p <- $r5
	@DEBUG_VALUE: mbedtls_pk_parse_subpubkey:pk <- $r4
	@DEBUG_VALUE: mbedtls_pk_parse_subpubkey:ret <- $r0
	.loc	9 0 9                           @ ../../../ThirdParty/mbedTLS/library/pkparse.c:0:9
	mov	r0, sp
.Ltmp41:
	.loc	9 654 9 is_stmt 1               @ ../../../ThirdParty/mbedTLS/library/pkparse.c:654:9
	ldrb	r0, [r0]
.Ltmp42:
	@DEBUG_VALUE: mbedtls_pk_parse_subpubkey:pk_alg <- undef
	.loc	9 654 9 is_stmt 0               @ ../../../ThirdParty/mbedTLS/library/pkparse.c:654:9
	subs	r1, r0, #2
	cmp	r1, #2
	bhs	.LBB0_13
.Ltmp43:
@ %bb.11:
	@DEBUG_VALUE: mbedtls_pk_parse_subpubkey:end <- $r6
	@DEBUG_VALUE: mbedtls_pk_parse_subpubkey:p <- $r5
	@DEBUG_VALUE: mbedtls_pk_parse_subpubkey:pk <- $r4
	.loc	9 662 50 is_stmt 1              @ ../../../ThirdParty/mbedTLS/library/pkparse.c:662:50
	ldm	r4!, {r0, r1}
.Ltmp44:
	subs	r4, #8
	bl	mbedtls_pk_ec
	mov	r1, r0
	add	r0, sp, #4
	.loc	9 662 19 is_stmt 0              @ ../../../ThirdParty/mbedTLS/library/pkparse.c:662:19
	bl	pk_use_ecparams
.Ltmp45:
	@DEBUG_VALUE: mbedtls_pk_parse_subpubkey:ret <- $r0
	.loc	9 663 17 is_stmt 1              @ ../../../ThirdParty/mbedTLS/library/pkparse.c:663:17
	cbnz	r0, .LBB0_15
.Ltmp46:
@ %bb.12:
	@DEBUG_VALUE: mbedtls_pk_parse_subpubkey:end <- $r6
	@DEBUG_VALUE: mbedtls_pk_parse_subpubkey:p <- $r5
	@DEBUG_VALUE: mbedtls_pk_parse_subpubkey:ret <- $r0
	.loc	9 664 48                        @ ../../../ThirdParty/mbedTLS/library/pkparse.c:664:48
	ldm	r4!, {r0, r1}
.Ltmp47:
	subs	r4, #8
	bl	mbedtls_pk_ec
	mov	r2, r0
	.loc	9 664 23 is_stmt 0              @ ../../../ThirdParty/mbedTLS/library/pkparse.c:664:23
	mov	r0, r5
	mov	r1, r6
	bl	pk_get_ecpubkey
.Ltmp48:
	@DEBUG_VALUE: mbedtls_pk_parse_subpubkey:ret <- $r0
	.loc	9 0 23                          @ ../../../ThirdParty/mbedTLS/library/pkparse.c:0:23
	b	.LBB0_15
.Ltmp49:
.LBB0_13:
	@DEBUG_VALUE: mbedtls_pk_parse_subpubkey:end <- $r6
	@DEBUG_VALUE: mbedtls_pk_parse_subpubkey:p <- $r5
	@DEBUG_VALUE: mbedtls_pk_parse_subpubkey:pk <- $r4
	.loc	9 654 9 is_stmt 1               @ ../../../ThirdParty/mbedTLS/library/pkparse.c:654:9
	cmp	r0, #1
	ldr	r0, __arm_cp.0_1
	bne	.LBB0_15
.Ltmp50:
@ %bb.14:
	@DEBUG_VALUE: mbedtls_pk_parse_subpubkey:end <- $r6
	@DEBUG_VALUE: mbedtls_pk_parse_subpubkey:p <- $r5
	@DEBUG_VALUE: mbedtls_pk_parse_subpubkey:pk <- $r4
	.loc	9 656 41                        @ ../../../ThirdParty/mbedTLS/library/pkparse.c:656:41
	ldm	r4!, {r0, r1}
.Ltmp51:
	subs	r4, #8
	bl	mbedtls_pk_rsa
	mov	r2, r0
	.loc	9 656 15 is_stmt 0              @ ../../../ThirdParty/mbedTLS/library/pkparse.c:656:15
	mov	r0, r5
	mov	r1, r6
	bl	pk_get_rsapubkey
.Ltmp52:
	@DEBUG_VALUE: mbedtls_pk_parse_subpubkey:ret <- $r0
.LBB0_15:
	@DEBUG_VALUE: mbedtls_pk_parse_subpubkey:end <- $r6
	@DEBUG_VALUE: mbedtls_pk_parse_subpubkey:p <- $r5
	@DEBUG_VALUE: mbedtls_pk_parse_subpubkey:ret <- $r0
	.loc	9 669 18 is_stmt 1              @ ../../../ThirdParty/mbedTLS/library/pkparse.c:669:18
	cbnz	r0, .LBB0_19
.Ltmp53:
@ %bb.16:
	@DEBUG_VALUE: mbedtls_pk_parse_subpubkey:end <- $r6
	@DEBUG_VALUE: mbedtls_pk_parse_subpubkey:p <- $r5
	@DEBUG_VALUE: mbedtls_pk_parse_subpubkey:ret <- $r0
	.loc	9 669 21 is_stmt 0              @ ../../../ThirdParty/mbedTLS/library/pkparse.c:669:21
	ldr	r0, [r5]
.Ltmp54:
	.loc	9 669 9                         @ ../../../ThirdParty/mbedTLS/library/pkparse.c:669:9
	cmp	r0, r6
	beq	.LBB0_18
.Ltmp55:
@ %bb.17:
	@DEBUG_VALUE: mbedtls_pk_parse_subpubkey:end <- $r6
	@DEBUG_VALUE: mbedtls_pk_parse_subpubkey:p <- $r5
	ldr	r7, __arm_cp.0_0
.Ltmp56:
.LBB0_18:
	@DEBUG_VALUE: mbedtls_pk_parse_subpubkey:end <- $r6
	@DEBUG_VALUE: mbedtls_pk_parse_subpubkey:p <- $r5
	.loc	9 0 0                           @ ../../../ThirdParty/mbedTLS/library/pkparse.c:0:0
	mov	r0, r7
.Ltmp57:
.LBB0_19:
	@DEBUG_VALUE: mbedtls_pk_parse_subpubkey:end <- $r6
	@DEBUG_VALUE: mbedtls_pk_parse_subpubkey:p <- $r5
	@DEBUG_VALUE: mbedtls_pk_parse_subpubkey:ret <- $r0
	.loc	9 673 9 is_stmt 1               @ ../../../ThirdParty/mbedTLS/library/pkparse.c:673:9
	cmp	r0, #0
	beq	.LBB0_3
.Ltmp58:
@ %bb.20:
	@DEBUG_VALUE: mbedtls_pk_parse_subpubkey:end <- $r6
	@DEBUG_VALUE: mbedtls_pk_parse_subpubkey:p <- $r5
	@DEBUG_VALUE: mbedtls_pk_parse_subpubkey:ret <- $r0
	.loc	9 0 9 is_stmt 0                 @ ../../../ThirdParty/mbedTLS/library/pkparse.c:0:9
	mov	r5, r0
.Ltmp59:
	@DEBUG_VALUE: mbedtls_pk_parse_subpubkey:ret <- $r5
	.loc	9 674 9 is_stmt 1               @ ../../../ThirdParty/mbedTLS/library/pkparse.c:674:9
	mov	r0, r4
	bl	mbedtls_pk_free
.Ltmp60:
	.loc	9 0 0 is_stmt 0                 @ ../../../ThirdParty/mbedTLS/library/pkparse.c:0:0
	mov	r0, r5
	.loc	9 677 1 is_stmt 1               @ ../../../ThirdParty/mbedTLS/library/pkparse.c:677:1
	add	sp, #20
	pop	{r4, r5, r6, r7, pc}
.Ltmp61:
	.p2align	2
@ %bb.21:
	.loc	9 0 1 is_stmt 0                 @ ../../../ThirdParty/mbedTLS/library/pkparse.c:0:1
__arm_cp.0_0:
	.long	4294952090                      @ 0xffffc49a
.Lcpi_end0:
	.size	__arm_cp.0_0, .Lcpi_end0-__arm_cp.0_0
__arm_cp.0_1:
	.long	4294951808                      @ 0xffffc380
.Lcpi_end1:
	.size	__arm_cp.0_1, .Lcpi_end1-__arm_cp.0_1
.Lfunc_end0:
	.size	mbedtls_pk_parse_subpubkey, .Lfunc_end0-mbedtls_pk_parse_subpubkey
	.cfi_endproc
	.cantunwind
	.fnend
                                        @ -- End function
	.section	.text.pk_get_pk_alg,"ax",%progbits
	.p2align	2                               @ -- Begin function pk_get_pk_alg
	.type	pk_get_pk_alg,%function
	.code	16                              @ @pk_get_pk_alg
	.thumb_func
pk_get_pk_alg:
.Lfunc_begin1:
	.loc	9 585 0 is_stmt 1               @ ../../../ThirdParty/mbedTLS/library/pkparse.c:585:0
	.fnstart
	.cfi_startproc
@ %bb.0:
	@DEBUG_VALUE: pk_get_pk_alg:p <- $r0
	@DEBUG_VALUE: pk_get_pk_alg:end <- $r1
	@DEBUG_VALUE: pk_get_pk_alg:pk_alg <- $r2
	@DEBUG_VALUE: pk_get_pk_alg:params <- $r3
	.save	{r4, r5, r6, lr}
	push	{r4, r5, r6, lr}
	.cfi_def_cfa_offset 16
	.cfi_offset lr, -4
	.cfi_offset r6, -8
	.cfi_offset r5, -12
	.cfi_offset r4, -16
	.pad	#16
	sub	sp, #16
	.cfi_def_cfa_offset 32
	mov	r4, r3
	mov	r5, r2
	movs	r6, #0
.Ltmp62:
	@DEBUG_VALUE: pk_get_pk_alg:params <- $r4
	@DEBUG_VALUE: pk_get_pk_alg:pk_alg <- $r5
	@DEBUG_VALUE: pk_get_pk_alg:end <- $r1
	@DEBUG_VALUE: pk_get_pk_alg:p <- $r0
	.loc	9 589 5 prologue_end            @ ../../../ThirdParty/mbedTLS/library/pkparse.c:589:5
	str	r6, [r3]
	str	r6, [r3, #4]
	str	r6, [r3, #8]
	add	r2, sp, #4
	@DEBUG_VALUE: pk_get_pk_alg:end <- $r1
	@DEBUG_VALUE: pk_get_pk_alg:p <- $r0
.Ltmp63:
	.loc	9 591 17                        @ ../../../ThirdParty/mbedTLS/library/pkparse.c:591:17
	bl	mbedtls_asn1_get_alg
.Ltmp64:
	@DEBUG_VALUE: pk_get_pk_alg:end <- [DW_OP_LLVM_entry_value 1] $r1
	@DEBUG_VALUE: pk_get_pk_alg:p <- [DW_OP_LLVM_entry_value 1] $r0
	@DEBUG_VALUE: pk_get_pk_alg:ret <- $r0
	.loc	9 591 9 is_stmt 0               @ ../../../ThirdParty/mbedTLS/library/pkparse.c:591:9
	cbz	r0, .LBB1_2
.Ltmp65:
@ %bb.1:
	@DEBUG_VALUE: pk_get_pk_alg:pk_alg <- $r5
	@DEBUG_VALUE: pk_get_pk_alg:params <- $r4
	@DEBUG_VALUE: pk_get_pk_alg:ret <- $r0
	@DEBUG_VALUE: pk_get_pk_alg:end <- [DW_OP_LLVM_entry_value 1] $r1
	@DEBUG_VALUE: pk_get_pk_alg:p <- [DW_OP_LLVM_entry_value 1] $r0
	.loc	9 592 44 is_stmt 1              @ ../../../ThirdParty/mbedTLS/library/pkparse.c:592:44
	movw	r1, #14976
	subs	r0, r0, r1
.Ltmp66:
	.loc	9 608 1                         @ ../../../ThirdParty/mbedTLS/library/pkparse.c:608:1
	add	sp, #16
	pop	{r4, r5, r6, pc}
.Ltmp67:
.LBB1_2:
	@DEBUG_VALUE: pk_get_pk_alg:pk_alg <- $r5
	@DEBUG_VALUE: pk_get_pk_alg:params <- $r4
	@DEBUG_VALUE: pk_get_pk_alg:ret <- $r0
	@DEBUG_VALUE: pk_get_pk_alg:end <- [DW_OP_LLVM_entry_value 1] $r1
	@DEBUG_VALUE: pk_get_pk_alg:p <- [DW_OP_LLVM_entry_value 1] $r0
	.loc	9 0 1 is_stmt 0                 @ ../../../ThirdParty/mbedTLS/library/pkparse.c:0:1
	add	r0, sp, #4
.Ltmp68:
	.loc	9 594 9 is_stmt 1               @ ../../../ThirdParty/mbedTLS/library/pkparse.c:594:9
	mov	r1, r5
	bl	mbedtls_oid_get_pk_alg
.Ltmp69:
	.loc	9 594 9 is_stmt 0               @ ../../../ThirdParty/mbedTLS/library/pkparse.c:594:9
	cbz	r0, .LBB1_4
.Ltmp70:
@ %bb.3:
	@DEBUG_VALUE: pk_get_pk_alg:pk_alg <- $r5
	@DEBUG_VALUE: pk_get_pk_alg:params <- $r4
	@DEBUG_VALUE: pk_get_pk_alg:end <- [DW_OP_LLVM_entry_value 1] $r1
	@DEBUG_VALUE: pk_get_pk_alg:p <- [DW_OP_LLVM_entry_value 1] $r0
	.loc	9 0 9                           @ ../../../ThirdParty/mbedTLS/library/pkparse.c:0:9
	ldr	r0, __arm_cp.1_0
	.loc	9 608 1 is_stmt 1               @ ../../../ThirdParty/mbedTLS/library/pkparse.c:608:1
	add	sp, #16
	pop	{r4, r5, r6, pc}
.Ltmp71:
.LBB1_4:
	@DEBUG_VALUE: pk_get_pk_alg:pk_alg <- $r5
	@DEBUG_VALUE: pk_get_pk_alg:params <- $r4
	@DEBUG_VALUE: pk_get_pk_alg:end <- [DW_OP_LLVM_entry_value 1] $r1
	@DEBUG_VALUE: pk_get_pk_alg:p <- [DW_OP_LLVM_entry_value 1] $r0
	.loc	9 600 9                         @ ../../../ThirdParty/mbedTLS/library/pkparse.c:600:9
	ldrb	r0, [r5]
	.loc	9 600 35 is_stmt 0              @ ../../../ThirdParty/mbedTLS/library/pkparse.c:600:35
	cmp	r0, #1
	bne	.LBB1_8
.Ltmp72:
@ %bb.5:
	@DEBUG_VALUE: pk_get_pk_alg:pk_alg <- $r5
	@DEBUG_VALUE: pk_get_pk_alg:params <- $r4
	@DEBUG_VALUE: pk_get_pk_alg:end <- [DW_OP_LLVM_entry_value 1] $r1
	@DEBUG_VALUE: pk_get_pk_alg:p <- [DW_OP_LLVM_entry_value 1] $r0
	.loc	9 601 25 is_stmt 1              @ ../../../ThirdParty/mbedTLS/library/pkparse.c:601:25
	ldr	r1, [r4]
	ldr	r0, __arm_cp.1_1
	.loc	9 601 50 is_stmt 0              @ ../../../ThirdParty/mbedTLS/library/pkparse.c:601:50
	cmp	r1, #5
	beq	.LBB1_7
.Ltmp73:
@ %bb.6:
	@DEBUG_VALUE: pk_get_pk_alg:pk_alg <- $r5
	@DEBUG_VALUE: pk_get_pk_alg:params <- $r4
	@DEBUG_VALUE: pk_get_pk_alg:end <- [DW_OP_LLVM_entry_value 1] $r1
	@DEBUG_VALUE: pk_get_pk_alg:p <- [DW_OP_LLVM_entry_value 1] $r0
	cbnz	r1, .LBB1_9
.Ltmp74:
.LBB1_7:
	@DEBUG_VALUE: pk_get_pk_alg:pk_alg <- $r5
	@DEBUG_VALUE: pk_get_pk_alg:params <- $r4
	@DEBUG_VALUE: pk_get_pk_alg:end <- [DW_OP_LLVM_entry_value 1] $r1
	@DEBUG_VALUE: pk_get_pk_alg:p <- [DW_OP_LLVM_entry_value 1] $r0
	.loc	9 602 23 is_stmt 1              @ ../../../ThirdParty/mbedTLS/library/pkparse.c:602:23
	ldr	r1, [r4, #4]
.Ltmp75:
	.loc	9 600 9                         @ ../../../ThirdParty/mbedTLS/library/pkparse.c:600:9
	cbnz	r1, .LBB1_9
.Ltmp76:
.LBB1_8:
	@DEBUG_VALUE: pk_get_pk_alg:pk_alg <- $r5
	@DEBUG_VALUE: pk_get_pk_alg:params <- $r4
	@DEBUG_VALUE: pk_get_pk_alg:end <- [DW_OP_LLVM_entry_value 1] $r1
	@DEBUG_VALUE: pk_get_pk_alg:p <- [DW_OP_LLVM_entry_value 1] $r0
	.loc	9 0 0 is_stmt 0                 @ ../../../ThirdParty/mbedTLS/library/pkparse.c:0:0
	mov	r0, r6
.Ltmp77:
.LBB1_9:
	@DEBUG_VALUE: pk_get_pk_alg:pk_alg <- $r5
	@DEBUG_VALUE: pk_get_pk_alg:params <- $r4
	@DEBUG_VALUE: pk_get_pk_alg:end <- [DW_OP_LLVM_entry_value 1] $r1
	@DEBUG_VALUE: pk_get_pk_alg:p <- [DW_OP_LLVM_entry_value 1] $r0
	.loc	9 608 1 is_stmt 1               @ ../../../ThirdParty/mbedTLS/library/pkparse.c:608:1
	add	sp, #16
	pop	{r4, r5, r6, pc}
.Ltmp78:
	.p2align	2
@ %bb.10:
	.loc	9 0 1 is_stmt 0                 @ ../../../ThirdParty/mbedTLS/library/pkparse.c:0:1
__arm_cp.1_0:
	.long	4294951808                      @ 0xffffc380
.Lcpi_end2:
	.size	__arm_cp.1_0, .Lcpi_end2-__arm_cp.1_0
__arm_cp.1_1:
	.long	4294952320                      @ 0xffffc580
.Lcpi_end3:
	.size	__arm_cp.1_1, .Lcpi_end3-__arm_cp.1_1
.Lfunc_end1:
	.size	pk_get_pk_alg, .Lfunc_end1-pk_get_pk_alg
	.cfi_endproc
	.cantunwind
	.fnend
                                        @ -- End function
	.section	.text.pk_get_rsapubkey,"ax",%progbits
	.p2align	2                               @ -- Begin function pk_get_rsapubkey
	.type	pk_get_rsapubkey,%function
	.code	16                              @ @pk_get_rsapubkey
	.thumb_func
pk_get_rsapubkey:
.Lfunc_begin2:
	.loc	9 530 0 is_stmt 1               @ ../../../ThirdParty/mbedTLS/library/pkparse.c:530:0
	.fnstart
	.cfi_startproc
@ %bb.0:
	@DEBUG_VALUE: pk_get_rsapubkey:p <- $r0
	@DEBUG_VALUE: pk_get_rsapubkey:end <- $r1
	@DEBUG_VALUE: pk_get_rsapubkey:rsa <- $r2
	.save	{r4, r5, r6, r7, lr}
	push	{r4, r5, r6, r7, lr}
	.cfi_def_cfa_offset 20
	.cfi_offset lr, -4
	.cfi_offset r7, -8
	.cfi_offset r6, -12
	.cfi_offset r5, -16
	.cfi_offset r4, -20
	.pad	#36
	sub	sp, #36
	.cfi_def_cfa_offset 56
	mov	r7, r2
	mov	r4, r1
	mov	r5, r0
.Ltmp79:
	@DEBUG_VALUE: pk_get_rsapubkey:len <- [DW_OP_plus_uconst 32, DW_OP_deref] $sp
	@DEBUG_VALUE: pk_get_rsapubkey:rsa <- $r7
	@DEBUG_VALUE: pk_get_rsapubkey:end <- $r4
	@DEBUG_VALUE: pk_get_rsapubkey:p <- $r5
	add	r2, sp, #32
	movs	r3, #48
.Ltmp80:
	.loc	9 534 17 prologue_end           @ ../../../ThirdParty/mbedTLS/library/pkparse.c:534:17
	bl	mbedtls_asn1_get_tag
.Ltmp81:
	@DEBUG_VALUE: pk_get_rsapubkey:ret <- $r0
	.loc	9 0 17 is_stmt 0                @ ../../../ThirdParty/mbedTLS/library/pkparse.c:0:17
	ldr	r6, __arm_cp.2_0
.Ltmp82:
	.loc	9 534 9                         @ ../../../ThirdParty/mbedTLS/library/pkparse.c:534:9
	cbz	r0, .LBB2_2
.Ltmp83:
@ %bb.1:
	@DEBUG_VALUE: pk_get_rsapubkey:rsa <- $r7
	@DEBUG_VALUE: pk_get_rsapubkey:p <- $r5
	@DEBUG_VALUE: pk_get_rsapubkey:end <- $r4
	@DEBUG_VALUE: pk_get_rsapubkey:ret <- $r0
	@DEBUG_VALUE: pk_get_rsapubkey:len <- [DW_OP_plus_uconst 32, DW_OP_deref] $sp
	.loc	9 536 47 is_stmt 1              @ ../../../ThirdParty/mbedTLS/library/pkparse.c:536:47
	adds	r7, r0, r6
.Ltmp84:
	.loc	9 536 9 is_stmt 0               @ ../../../ThirdParty/mbedTLS/library/pkparse.c:536:9
	b	.LBB2_18
.Ltmp85:
.LBB2_2:
	@DEBUG_VALUE: pk_get_rsapubkey:rsa <- $r7
	@DEBUG_VALUE: pk_get_rsapubkey:p <- $r5
	@DEBUG_VALUE: pk_get_rsapubkey:end <- $r4
	@DEBUG_VALUE: pk_get_rsapubkey:ret <- $r0
	@DEBUG_VALUE: pk_get_rsapubkey:len <- [DW_OP_plus_uconst 32, DW_OP_deref] $sp
	.loc	9 538 9 is_stmt 1               @ ../../../ThirdParty/mbedTLS/library/pkparse.c:538:9
	ldr	r0, [r5]
.Ltmp86:
	.loc	9 538 14 is_stmt 0              @ ../../../ThirdParty/mbedTLS/library/pkparse.c:538:14
	ldr	r1, [sp, #32]
.Ltmp87:
	@DEBUG_VALUE: pk_get_rsapubkey:len <- $r1
	.loc	9 538 12                        @ ../../../ThirdParty/mbedTLS/library/pkparse.c:538:12
	adds	r0, r0, r1
.Ltmp88:
	.loc	9 538 9                         @ ../../../ThirdParty/mbedTLS/library/pkparse.c:538:9
	cmp	r0, r4
	beq	.LBB2_4
.Ltmp89:
@ %bb.3:
	@DEBUG_VALUE: pk_get_rsapubkey:rsa <- $r7
	@DEBUG_VALUE: pk_get_rsapubkey:p <- $r5
	@DEBUG_VALUE: pk_get_rsapubkey:end <- $r4
	@DEBUG_VALUE: pk_get_rsapubkey:len <- $r1
	.loc	9 0 9                           @ ../../../ThirdParty/mbedTLS/library/pkparse.c:0:9
	subs	r6, #102
	mov	r7, r6
.Ltmp90:
	b	.LBB2_18
.Ltmp91:
.LBB2_4:
	@DEBUG_VALUE: pk_get_rsapubkey:rsa <- $r7
	@DEBUG_VALUE: pk_get_rsapubkey:p <- $r5
	@DEBUG_VALUE: pk_get_rsapubkey:end <- $r4
	@DEBUG_VALUE: pk_get_rsapubkey:len <- $r1
	@DEBUG_VALUE: pk_get_rsapubkey:len <- [DW_OP_plus_uconst 32, DW_OP_deref] $sp
	add	r2, sp, #32
	movs	r3, #2
.Ltmp92:
	.loc	9 543 17 is_stmt 1              @ ../../../ThirdParty/mbedTLS/library/pkparse.c:543:17
	mov	r0, r5
	mov	r1, r4
	bl	mbedtls_asn1_get_tag
.Ltmp93:
	@DEBUG_VALUE: pk_get_rsapubkey:ret <- $r0
	.loc	9 543 9 is_stmt 0               @ ../../../ThirdParty/mbedTLS/library/pkparse.c:543:9
	cbz	r0, .LBB2_6
.Ltmp94:
@ %bb.5:
	@DEBUG_VALUE: pk_get_rsapubkey:rsa <- $r7
	@DEBUG_VALUE: pk_get_rsapubkey:p <- $r5
	@DEBUG_VALUE: pk_get_rsapubkey:end <- $r4
	@DEBUG_VALUE: pk_get_rsapubkey:ret <- $r0
	@DEBUG_VALUE: pk_get_rsapubkey:len <- [DW_OP_plus_uconst 32, DW_OP_deref] $sp
	.loc	9 544 47 is_stmt 1              @ ../../../ThirdParty/mbedTLS/library/pkparse.c:544:47
	adds	r7, r0, r6
.Ltmp95:
	.loc	9 544 9 is_stmt 0               @ ../../../ThirdParty/mbedTLS/library/pkparse.c:544:9
	b	.LBB2_18
.Ltmp96:
.LBB2_6:
	@DEBUG_VALUE: pk_get_rsapubkey:rsa <- $r7
	@DEBUG_VALUE: pk_get_rsapubkey:p <- $r5
	@DEBUG_VALUE: pk_get_rsapubkey:end <- $r4
	@DEBUG_VALUE: pk_get_rsapubkey:ret <- $r0
	@DEBUG_VALUE: pk_get_rsapubkey:len <- [DW_OP_plus_uconst 32, DW_OP_deref] $sp
	.loc	9 546 46 is_stmt 1              @ ../../../ThirdParty/mbedTLS/library/pkparse.c:546:46
	ldr	r1, [r5]
	.loc	9 546 50 is_stmt 0              @ ../../../ThirdParty/mbedTLS/library/pkparse.c:546:50
	ldr	r2, [sp, #32]
.Ltmp97:
	@DEBUG_VALUE: pk_get_rsapubkey:len <- $r2
	.loc	9 0 50                          @ ../../../ThirdParty/mbedTLS/library/pkparse.c:0:50
	mov	r0, r7
.Ltmp98:
	movs	r7, #0
.Ltmp99:
	.loc	9 546 17                        @ ../../../ThirdParty/mbedTLS/library/pkparse.c:546:17
	str	r7, [sp]
	str	r7, [sp, #4]
	str	r7, [sp, #8]
	str	r7, [sp, #12]
	str	r7, [sp, #16]
	str	r7, [sp, #20]
	str	r7, [sp, #24]
	str	r0, [sp, #28]                   @ 4-byte Spill
	mov	r3, r7
	bl	mbedtls_rsa_import_raw
.Ltmp100:
	@DEBUG_VALUE: pk_get_rsapubkey:ret <- $r0
	.loc	9 546 9                         @ ../../../ThirdParty/mbedTLS/library/pkparse.c:546:9
	cbz	r0, .LBB2_8
.Ltmp101:
@ %bb.7:
	@DEBUG_VALUE: pk_get_rsapubkey:p <- $r5
	@DEBUG_VALUE: pk_get_rsapubkey:end <- $r4
	@DEBUG_VALUE: pk_get_rsapubkey:ret <- $r0
	.loc	9 0 0                           @ ../../../ThirdParty/mbedTLS/library/pkparse.c:0:0
	mov	r7, r6
	b	.LBB2_18
.Ltmp102:
.LBB2_8:
	@DEBUG_VALUE: pk_get_rsapubkey:p <- $r5
	@DEBUG_VALUE: pk_get_rsapubkey:end <- $r4
	@DEBUG_VALUE: pk_get_rsapubkey:ret <- $r0
	.loc	9 550 8 is_stmt 1               @ ../../../ThirdParty/mbedTLS/library/pkparse.c:550:8
	ldr	r0, [r5]
.Ltmp103:
	.loc	9 550 11 is_stmt 0              @ ../../../ThirdParty/mbedTLS/library/pkparse.c:550:11
	ldr	r1, [sp, #32]
.Ltmp104:
	@DEBUG_VALUE: pk_get_rsapubkey:len <- $r1
	.loc	9 550 8                         @ ../../../ThirdParty/mbedTLS/library/pkparse.c:550:8
	adds	r0, r0, r1
	str	r0, [r5]
.Ltmp105:
	@DEBUG_VALUE: pk_get_rsapubkey:len <- [DW_OP_plus_uconst 32, DW_OP_deref] $sp
	.loc	9 0 8                           @ ../../../ThirdParty/mbedTLS/library/pkparse.c:0:8
	add	r2, sp, #32
	movs	r3, #2
.Ltmp106:
	.loc	9 553 17 is_stmt 1              @ ../../../ThirdParty/mbedTLS/library/pkparse.c:553:17
	mov	r0, r5
	mov	r1, r4
	bl	mbedtls_asn1_get_tag
.Ltmp107:
	@DEBUG_VALUE: pk_get_rsapubkey:ret <- $r0
	.loc	9 553 9 is_stmt 0               @ ../../../ThirdParty/mbedTLS/library/pkparse.c:553:9
	cbz	r0, .LBB2_10
.Ltmp108:
@ %bb.9:
	@DEBUG_VALUE: pk_get_rsapubkey:p <- $r5
	@DEBUG_VALUE: pk_get_rsapubkey:end <- $r4
	@DEBUG_VALUE: pk_get_rsapubkey:ret <- $r0
	@DEBUG_VALUE: pk_get_rsapubkey:len <- [DW_OP_plus_uconst 32, DW_OP_deref] $sp
	.loc	9 554 47 is_stmt 1              @ ../../../ThirdParty/mbedTLS/library/pkparse.c:554:47
	adds	r7, r0, r6
	.loc	9 554 9 is_stmt 0               @ ../../../ThirdParty/mbedTLS/library/pkparse.c:554:9
	b	.LBB2_18
.Ltmp109:
.LBB2_10:
	@DEBUG_VALUE: pk_get_rsapubkey:p <- $r5
	@DEBUG_VALUE: pk_get_rsapubkey:end <- $r4
	@DEBUG_VALUE: pk_get_rsapubkey:ret <- $r0
	@DEBUG_VALUE: pk_get_rsapubkey:len <- [DW_OP_plus_uconst 32, DW_OP_deref] $sp
	.loc	9 557 50 is_stmt 1              @ ../../../ThirdParty/mbedTLS/library/pkparse.c:557:50
	ldr	r0, [r5]
.Ltmp110:
	.loc	9 557 54 is_stmt 0              @ ../../../ThirdParty/mbedTLS/library/pkparse.c:557:54
	ldr	r1, [sp, #32]
.Ltmp111:
	@DEBUG_VALUE: pk_get_rsapubkey:len <- $r1
	.loc	9 556 17 is_stmt 1              @ ../../../ThirdParty/mbedTLS/library/pkparse.c:556:17
	str	r7, [sp]
	str	r7, [sp, #4]
	str	r7, [sp, #8]
	str	r7, [sp, #12]
	str	r7, [sp, #16]
	str	r0, [sp, #20]
	str	r1, [sp, #24]
	ldr	r0, [sp, #28]                   @ 4-byte Reload
	mov	r1, r7
.Ltmp112:
	mov	r2, r7
	mov	r3, r7
	bl	mbedtls_rsa_import_raw
.Ltmp113:
	@DEBUG_VALUE: pk_get_rsapubkey:ret <- $r0
	.loc	9 556 9 is_stmt 0               @ ../../../ThirdParty/mbedTLS/library/pkparse.c:556:9
	cbz	r0, .LBB2_12
.Ltmp114:
@ %bb.11:
	@DEBUG_VALUE: pk_get_rsapubkey:p <- $r5
	@DEBUG_VALUE: pk_get_rsapubkey:end <- $r4
	@DEBUG_VALUE: pk_get_rsapubkey:ret <- $r0
	.loc	9 0 0                           @ ../../../ThirdParty/mbedTLS/library/pkparse.c:0:0
	mov	r7, r6
	b	.LBB2_18
.Ltmp115:
.LBB2_12:
	@DEBUG_VALUE: pk_get_rsapubkey:p <- $r5
	@DEBUG_VALUE: pk_get_rsapubkey:end <- $r4
	@DEBUG_VALUE: pk_get_rsapubkey:ret <- $r0
	.loc	9 560 8 is_stmt 1               @ ../../../ThirdParty/mbedTLS/library/pkparse.c:560:8
	ldr	r0, [r5]
.Ltmp116:
	.loc	9 560 11 is_stmt 0              @ ../../../ThirdParty/mbedTLS/library/pkparse.c:560:11
	ldr	r1, [sp, #32]
.Ltmp117:
	@DEBUG_VALUE: pk_get_rsapubkey:len <- $r1
	.loc	9 560 8                         @ ../../../ThirdParty/mbedTLS/library/pkparse.c:560:8
	adds	r0, r0, r1
	str	r0, [r5]
.Ltmp118:
	.loc	9 562 9 is_stmt 1               @ ../../../ThirdParty/mbedTLS/library/pkparse.c:562:9
	ldr	r0, [sp, #28]                   @ 4-byte Reload
	bl	mbedtls_rsa_complete
.Ltmp119:
	.loc	9 562 42 is_stmt 0              @ ../../../ThirdParty/mbedTLS/library/pkparse.c:562:42
	cbz	r0, .LBB2_14
.Ltmp120:
@ %bb.13:
	@DEBUG_VALUE: pk_get_rsapubkey:p <- $r5
	@DEBUG_VALUE: pk_get_rsapubkey:end <- $r4
	.loc	9 0 0                           @ ../../../ThirdParty/mbedTLS/library/pkparse.c:0:0
	mov	r7, r6
	b	.LBB2_18
.Ltmp121:
.LBB2_14:
	@DEBUG_VALUE: pk_get_rsapubkey:p <- $r5
	@DEBUG_VALUE: pk_get_rsapubkey:end <- $r4
	.loc	9 563 13 is_stmt 1              @ ../../../ThirdParty/mbedTLS/library/pkparse.c:563:13
	ldr	r0, [sp, #28]                   @ 4-byte Reload
	bl	mbedtls_rsa_check_pubkey
.Ltmp122:
	.loc	9 562 9                         @ ../../../ThirdParty/mbedTLS/library/pkparse.c:562:9
	cbz	r0, .LBB2_16
.Ltmp123:
@ %bb.15:
	@DEBUG_VALUE: pk_get_rsapubkey:p <- $r5
	@DEBUG_VALUE: pk_get_rsapubkey:end <- $r4
	.loc	9 0 0 is_stmt 0                 @ ../../../ThirdParty/mbedTLS/library/pkparse.c:0:0
	mov	r7, r6
	b	.LBB2_18
.Ltmp124:
.LBB2_16:
	@DEBUG_VALUE: pk_get_rsapubkey:p <- $r5
	@DEBUG_VALUE: pk_get_rsapubkey:end <- $r4
	.loc	9 568 9 is_stmt 1               @ ../../../ThirdParty/mbedTLS/library/pkparse.c:568:9
	ldr	r0, [r5]
.Ltmp125:
	.loc	9 568 9 is_stmt 0               @ ../../../ThirdParty/mbedTLS/library/pkparse.c:568:9
	cmp	r0, r4
	beq	.LBB2_18
.Ltmp126:
@ %bb.17:
	@DEBUG_VALUE: pk_get_rsapubkey:p <- $r5
	@DEBUG_VALUE: pk_get_rsapubkey:end <- $r4
	.loc	9 0 9                           @ ../../../ThirdParty/mbedTLS/library/pkparse.c:0:9
	subs	r6, #102
	.loc	9 568 9                         @ ../../../ThirdParty/mbedTLS/library/pkparse.c:568:9
	mov	r7, r6
.Ltmp127:
.LBB2_18:
	@DEBUG_VALUE: pk_get_rsapubkey:p <- $r5
	@DEBUG_VALUE: pk_get_rsapubkey:end <- $r4
	.loc	9 573 1 is_stmt 1               @ ../../../ThirdParty/mbedTLS/library/pkparse.c:573:1
	mov	r0, r7
	add	sp, #36
	pop	{r4, r5, r6, r7, pc}
.Ltmp128:
	.p2align	2
@ %bb.19:
	.loc	9 0 1 is_stmt 0                 @ ../../../ThirdParty/mbedTLS/library/pkparse.c:0:1
__arm_cp.2_0:
	.long	4294952192                      @ 0xffffc500
.Lcpi_end4:
	.size	__arm_cp.2_0, .Lcpi_end4-__arm_cp.2_0
.Lfunc_end2:
	.size	pk_get_rsapubkey, .Lfunc_end2-pk_get_rsapubkey
	.cfi_endproc
	.cantunwind
	.fnend
                                        @ -- End function
	.section	.text.mbedtls_pk_rsa,"ax",%progbits
	.p2align	1                               @ -- Begin function mbedtls_pk_rsa
	.type	mbedtls_pk_rsa,%function
	.code	16                              @ @mbedtls_pk_rsa
	.thumb_func
mbedtls_pk_rsa:
.Lfunc_begin3:
	.loc	1 163 0 is_stmt 1               @ ../../../ThirdParty/mbedTLS/include/mbedtls/pk.h:163:0
	.fnstart
	.cfi_startproc
@ %bb.0:
	mov	r0, r1
.Ltmp129:
	@DEBUG_VALUE: mbedtls_pk_rsa:pk <- [DW_OP_LLVM_fragment 32 32] $r0
	@DEBUG_VALUE: mbedtls_pk_rsa:pk <- [DW_OP_LLVM_fragment 0 32] undef
	.loc	1 164 5 prologue_end            @ ../../../ThirdParty/mbedTLS/include/mbedtls/pk.h:164:5
	bx	lr
.Ltmp130:
.Lfunc_end3:
	.size	mbedtls_pk_rsa, .Lfunc_end3-mbedtls_pk_rsa
	.cfi_endproc
	.cantunwind
	.fnend
                                        @ -- End function
	.section	.text.pk_use_ecparams,"ax",%progbits
	.p2align	2                               @ -- Begin function pk_use_ecparams
	.type	pk_use_ecparams,%function
	.code	16                              @ @pk_use_ecparams
	.thumb_func
pk_use_ecparams:
.Lfunc_begin4:
	.loc	9 462 0                         @ ../../../ThirdParty/mbedTLS/library/pkparse.c:462:0
	.fnstart
	.cfi_startproc
@ %bb.0:
	@DEBUG_VALUE: pk_use_ecparams:params <- $r0
	@DEBUG_VALUE: pk_use_ecparams:grp <- $r1
	.save	{r4, lr}
	push	{r4, lr}
	.cfi_def_cfa_offset 8
	.cfi_offset lr, -4
	.cfi_offset r4, -8
	.pad	#8
	sub	sp, #8
	.cfi_def_cfa_offset 16
	mov	r4, r1
.Ltmp131:
	@DEBUG_VALUE: pk_use_ecparams:grp <- $r4
	@DEBUG_VALUE: pk_use_ecparams:params <- $r0
	.loc	9 466 17 prologue_end           @ ../../../ThirdParty/mbedTLS/library/pkparse.c:466:17
	ldr	r1, [r0]
.Ltmp132:
	@DEBUG_VALUE: pk_use_ecparams:grp_id <- [DW_OP_plus_uconst 4, DW_OP_deref] $sp
	.loc	9 466 9 is_stmt 0               @ ../../../ThirdParty/mbedTLS/library/pkparse.c:466:9
	cmp	r1, #6
	bne	.LBB4_3
.Ltmp133:
@ %bb.1:
	@DEBUG_VALUE: pk_use_ecparams:grp <- $r4
	@DEBUG_VALUE: pk_use_ecparams:params <- $r0
	@DEBUG_VALUE: pk_use_ecparams:grp_id <- [DW_OP_plus_uconst 4, DW_OP_deref] $sp
	.loc	9 0 9                           @ ../../../ThirdParty/mbedTLS/library/pkparse.c:0:9
	add	r1, sp, #4
.Ltmp134:
	.loc	9 468 13 is_stmt 1              @ ../../../ThirdParty/mbedTLS/library/pkparse.c:468:13
	bl	mbedtls_oid_get_ec_grp
.Ltmp135:
	@DEBUG_VALUE: pk_use_ecparams:params <- [DW_OP_LLVM_entry_value 1] $r0
	.loc	9 468 13 is_stmt 0              @ ../../../ThirdParty/mbedTLS/library/pkparse.c:468:13
	cbz	r0, .LBB4_5
.Ltmp136:
@ %bb.2:
	@DEBUG_VALUE: pk_use_ecparams:grp <- $r4
	@DEBUG_VALUE: pk_use_ecparams:grp_id <- [DW_OP_plus_uconst 4, DW_OP_deref] $sp
	@DEBUG_VALUE: pk_use_ecparams:params <- [DW_OP_LLVM_entry_value 1] $r0
	.loc	9 0 13                          @ ../../../ThirdParty/mbedTLS/library/pkparse.c:0:13
	ldr	r0, __arm_cp.4_0
	.loc	9 491 1 is_stmt 1               @ ../../../ThirdParty/mbedTLS/library/pkparse.c:491:1
	add	sp, #8
.Ltmp137:
	pop	{r4, pc}
.Ltmp138:
.LBB4_3:
	@DEBUG_VALUE: pk_use_ecparams:grp <- $r4
	@DEBUG_VALUE: pk_use_ecparams:params <- $r0
	@DEBUG_VALUE: pk_use_ecparams:grp_id <- [DW_OP_plus_uconst 4, DW_OP_deref] $sp
	.loc	9 0 1 is_stmt 0                 @ ../../../ThirdParty/mbedTLS/library/pkparse.c:0:1
	add	r1, sp, #4
.Ltmp139:
	.loc	9 474 21 is_stmt 1              @ ../../../ThirdParty/mbedTLS/library/pkparse.c:474:21
	bl	pk_group_id_from_specified
.Ltmp140:
	@DEBUG_VALUE: pk_use_ecparams:params <- [DW_OP_LLVM_entry_value 1] $r0
	@DEBUG_VALUE: pk_use_ecparams:ret <- $r0
	.loc	9 474 13 is_stmt 0              @ ../../../ThirdParty/mbedTLS/library/pkparse.c:474:13
	cbz	r0, .LBB4_5
.Ltmp141:
@ %bb.4:
	@DEBUG_VALUE: pk_use_ecparams:grp <- $r4
	@DEBUG_VALUE: pk_use_ecparams:ret <- $r0
	@DEBUG_VALUE: pk_use_ecparams:grp_id <- [DW_OP_plus_uconst 4, DW_OP_deref] $sp
	@DEBUG_VALUE: pk_use_ecparams:params <- [DW_OP_LLVM_entry_value 1] $r0
	.loc	9 491 1 is_stmt 1               @ ../../../ThirdParty/mbedTLS/library/pkparse.c:491:1
	add	sp, #8
.Ltmp142:
	pop	{r4, pc}
.Ltmp143:
.LBB4_5:
	@DEBUG_VALUE: pk_use_ecparams:grp <- $r4
	@DEBUG_VALUE: pk_use_ecparams:grp_id <- [DW_OP_plus_uconst 4, DW_OP_deref] $sp
	@DEBUG_VALUE: pk_use_ecparams:params <- [DW_OP_LLVM_entry_value 1] $r0
	.loc	9 484 14                        @ ../../../ThirdParty/mbedTLS/library/pkparse.c:484:14
	ldrb	r0, [r4]
	add	r1, sp, #4
	ldrb	r1, [r1]
.Ltmp144:
	@DEBUG_VALUE: pk_use_ecparams:grp_id <- undef
	.loc	9 484 40 is_stmt 0              @ ../../../ThirdParty/mbedTLS/library/pkparse.c:484:40
	cbz	r0, .LBB4_8
.Ltmp145:
@ %bb.6:
	@DEBUG_VALUE: pk_use_ecparams:grp <- $r4
	@DEBUG_VALUE: pk_use_ecparams:params <- [DW_OP_LLVM_entry_value 1] $r0
	cmp	r0, r1
	beq	.LBB4_8
.Ltmp146:
@ %bb.7:
	@DEBUG_VALUE: pk_use_ecparams:grp <- $r4
	@DEBUG_VALUE: pk_use_ecparams:params <- [DW_OP_LLVM_entry_value 1] $r0
	.loc	9 0 40                          @ ../../../ThirdParty/mbedTLS/library/pkparse.c:0:40
	ldr	r0, __arm_cp.4_1
	.loc	9 491 1 is_stmt 1               @ ../../../ThirdParty/mbedTLS/library/pkparse.c:491:1
	add	sp, #8
	pop	{r4, pc}
.Ltmp147:
.LBB4_8:
	@DEBUG_VALUE: pk_use_ecparams:grp <- $r4
	@DEBUG_VALUE: pk_use_ecparams:params <- [DW_OP_LLVM_entry_value 1] $r0
	@DEBUG_VALUE: pk_use_ecparams:grp_id <- $r1
	.loc	9 487 17                        @ ../../../ThirdParty/mbedTLS/library/pkparse.c:487:17
	mov	r0, r4
	bl	mbedtls_ecp_group_load
.Ltmp148:
	@DEBUG_VALUE: pk_use_ecparams:ret <- $r0
	.loc	9 491 1                         @ ../../../ThirdParty/mbedTLS/library/pkparse.c:491:1
	add	sp, #8
	pop	{r4, pc}
.Ltmp149:
	.p2align	2
@ %bb.9:
	.loc	9 0 1 is_stmt 0                 @ ../../../ThirdParty/mbedTLS/library/pkparse.c:0:1
__arm_cp.4_0:
	.long	4294952448                      @ 0xffffc600
.Lcpi_end5:
	.size	__arm_cp.4_0, .Lcpi_end5-__arm_cp.4_0
__arm_cp.4_1:
	.long	4294951680                      @ 0xffffc300
.Lcpi_end6:
	.size	__arm_cp.4_1, .Lcpi_end6-__arm_cp.4_1
.Lfunc_end4:
	.size	pk_use_ecparams, .Lfunc_end4-pk_use_ecparams
	.cfi_endproc
	.cantunwind
	.fnend
                                        @ -- End function
	.section	.text.mbedtls_pk_ec,"ax",%progbits
	.p2align	1                               @ -- Begin function mbedtls_pk_ec
	.type	mbedtls_pk_ec,%function
	.code	16                              @ @mbedtls_pk_ec
	.thumb_func
mbedtls_pk_ec:
.Lfunc_begin5:
	.loc	1 176 0 is_stmt 1               @ ../../../ThirdParty/mbedTLS/include/mbedtls/pk.h:176:0
	.fnstart
	.cfi_startproc
@ %bb.0:
	mov	r0, r1
.Ltmp150:
	@DEBUG_VALUE: mbedtls_pk_ec:pk <- [DW_OP_LLVM_fragment 32 32] $r0
	@DEBUG_VALUE: mbedtls_pk_ec:pk <- [DW_OP_LLVM_fragment 0 32] undef
	.loc	1 177 5 prologue_end            @ ../../../ThirdParty/mbedTLS/include/mbedtls/pk.h:177:5
	bx	lr
.Ltmp151:
.Lfunc_end5:
	.size	mbedtls_pk_ec, .Lfunc_end5-mbedtls_pk_ec
	.cfi_endproc
	.cantunwind
	.fnend
                                        @ -- End function
	.section	.text.pk_get_ecpubkey,"ax",%progbits
	.p2align	1                               @ -- Begin function pk_get_ecpubkey
	.type	pk_get_ecpubkey,%function
	.code	16                              @ @pk_get_ecpubkey
	.thumb_func
pk_get_ecpubkey:
.Lfunc_begin6:
	.loc	9 502 0                         @ ../../../ThirdParty/mbedTLS/library/pkparse.c:502:0
	.fnstart
	.cfi_startproc
@ %bb.0:
	@DEBUG_VALUE: pk_get_ecpubkey:p <- $r0
	@DEBUG_VALUE: pk_get_ecpubkey:end <- $r1
	@DEBUG_VALUE: pk_get_ecpubkey:key <- $r2
	.save	{r4, r5, r6, r7, lr}
	push	{r4, r5, r6, r7, lr}
	.cfi_def_cfa_offset 20
	.cfi_offset lr, -4
	.cfi_offset r7, -8
	.cfi_offset r6, -12
	.cfi_offset r5, -16
	.cfi_offset r4, -20
	.pad	#4
	sub	sp, #4
	.cfi_def_cfa_offset 24
	mov	r6, r2
	mov	r4, r1
	mov	r5, r0
.Ltmp152:
	@DEBUG_VALUE: pk_get_ecpubkey:key <- $r6
	@DEBUG_VALUE: pk_get_ecpubkey:end <- $r4
	@DEBUG_VALUE: pk_get_ecpubkey:p <- $r5
	.loc	9 506 41 prologue_end           @ ../../../ThirdParty/mbedTLS/library/pkparse.c:506:41
	ldr	r2, [r0]
	.loc	9 506 49 is_stmt 0              @ ../../../ThirdParty/mbedTLS/library/pkparse.c:506:49
	subs	r3, r1, r2
	.loc	9 505 65 is_stmt 1              @ ../../../ThirdParty/mbedTLS/library/pkparse.c:505:65
	mov	r7, r6
	adds	r7, #136
	.loc	9 505 17 is_stmt 0              @ ../../../ThirdParty/mbedTLS/library/pkparse.c:505:17
	mov	r0, r6
	mov	r1, r7
	bl	mbedtls_ecp_point_read_binary
.Ltmp153:
	@DEBUG_VALUE: pk_get_ecpubkey:ret <- $r0
	.loc	9 505 9                         @ ../../../ThirdParty/mbedTLS/library/pkparse.c:505:9
	cbnz	r0, .LBB6_2
.Ltmp154:
@ %bb.1:
	@DEBUG_VALUE: pk_get_ecpubkey:key <- $r6
	@DEBUG_VALUE: pk_get_ecpubkey:p <- $r5
	@DEBUG_VALUE: pk_get_ecpubkey:end <- $r4
	@DEBUG_VALUE: pk_get_ecpubkey:ret <- $r0
	.loc	9 508 15 is_stmt 1              @ ../../../ThirdParty/mbedTLS/library/pkparse.c:508:15
	mov	r0, r6
.Ltmp155:
	mov	r1, r7
	bl	mbedtls_ecp_check_pubkey
.Ltmp156:
	@DEBUG_VALUE: pk_get_ecpubkey:ret <- $r0
.LBB6_2:
	@DEBUG_VALUE: pk_get_ecpubkey:key <- $r6
	@DEBUG_VALUE: pk_get_ecpubkey:p <- $r5
	@DEBUG_VALUE: pk_get_ecpubkey:end <- $r4
	@DEBUG_VALUE: pk_get_ecpubkey:ret <- $r0
	@DEBUG_VALUE: pk_get_ecpubkey:ret <- $r0
	.loc	9 514 8                         @ ../../../ThirdParty/mbedTLS/library/pkparse.c:514:8
	str	r4, [r5]
	.loc	9 516 5                         @ ../../../ThirdParty/mbedTLS/library/pkparse.c:516:5
	add	sp, #4
	pop	{r4, r5, r6, r7, pc}
.Ltmp157:
.Lfunc_end6:
	.size	pk_get_ecpubkey, .Lfunc_end6-pk_get_ecpubkey
	.cfi_endproc
	.cantunwind
	.fnend
                                        @ -- End function
	.section	.text.mbedtls_pk_parse_key,"ax",%progbits
	.hidden	mbedtls_pk_parse_key            @ -- Begin function mbedtls_pk_parse_key
	.globl	mbedtls_pk_parse_key
	.p2align	2
	.type	mbedtls_pk_parse_key,%function
	.code	16                              @ @mbedtls_pk_parse_key
	.thumb_func
mbedtls_pk_parse_key:
.Lfunc_begin7:
	.loc	9 1166 0                        @ ../../../ThirdParty/mbedTLS/library/pkparse.c:1166:0
	.fnstart
	.cfi_startproc
@ %bb.0:
	@DEBUG_VALUE: mbedtls_pk_parse_key:pk <- $r0
	@DEBUG_VALUE: mbedtls_pk_parse_key:key <- $r1
	@DEBUG_VALUE: mbedtls_pk_parse_key:keylen <- $r2
	@DEBUG_VALUE: mbedtls_pk_parse_key:pwd <- $r3
	.save	{r4, r5, r6, r7, lr}
	push	{r4, r5, r6, r7, lr}
	.cfi_def_cfa_offset 20
	.cfi_offset lr, -4
	.cfi_offset r7, -8
	.cfi_offset r6, -12
	.cfi_offset r5, -16
	.cfi_offset r4, -20
	.pad	#44
	sub	sp, #44
	.cfi_def_cfa_offset 64
	ldr	r7, __arm_cp.7_0
.Ltmp158:
	@DEBUG_VALUE: mbedtls_pk_parse_key:pwdlen <- [DW_OP_plus_uconst 64] [$sp+0]
	@DEBUG_VALUE: mbedtls_pk_parse_key:pwd <- $r3
	@DEBUG_VALUE: mbedtls_pk_parse_key:keylen <- $r2
	@DEBUG_VALUE: mbedtls_pk_parse_key:key <- $r1
	@DEBUG_VALUE: mbedtls_pk_parse_key:pk <- $r0
	.loc	9 1175 9 prologue_end           @ ../../../ThirdParty/mbedTLS/library/pkparse.c:1175:9
	cmp	r2, #0
	beq	.LBB7_14
.Ltmp159:
@ %bb.1:
	@DEBUG_VALUE: mbedtls_pk_parse_key:pwd <- $r3
	@DEBUG_VALUE: mbedtls_pk_parse_key:keylen <- $r2
	@DEBUG_VALUE: mbedtls_pk_parse_key:key <- $r1
	@DEBUG_VALUE: mbedtls_pk_parse_key:pk <- $r0
	@DEBUG_VALUE: mbedtls_pk_parse_key:pwdlen <- [DW_OP_plus_uconst 64] [$sp+0]
	.loc	9 0 9 is_stmt 0                 @ ../../../ThirdParty/mbedTLS/library/pkparse.c:0:9
	mov	r5, r2
.Ltmp160:
	@DEBUG_VALUE: mbedtls_pk_parse_key:keylen <- $r5
	mov	r4, r1
.Ltmp161:
	@DEBUG_VALUE: mbedtls_pk_parse_key:key <- $r4
	str	r3, [sp, #24]                   @ 4-byte Spill
.Ltmp162:
	@DEBUG_VALUE: mbedtls_pk_parse_key:pwd <- [DW_OP_plus_uconst 24] [$sp+0]
	str	r0, [sp, #12]                   @ 4-byte Spill
.Ltmp163:
	@DEBUG_VALUE: mbedtls_pk_parse_key:pk <- [DW_OP_plus_uconst 12] [$sp+0]
	ldr	r0, [sp, #64]
	.loc	9 1180 5 is_stmt 1              @ ../../../ThirdParty/mbedTLS/library/pkparse.c:1180:5
	str	r0, [sp, #20]                   @ 4-byte Spill
	add	r0, sp, #28
	bl	mbedtls_pem_init
.Ltmp164:
	.loc	9 1184 20                       @ ../../../ThirdParty/mbedTLS/library/pkparse.c:1184:20
	subs	r6, r5, #1
	.loc	9 1184 9 is_stmt 0              @ ../../../ThirdParty/mbedTLS/library/pkparse.c:1184:9
	ldrb	r0, [r4, r6]
	ldr	r2, __arm_cp.7_1
	.loc	9 0 0                           @ ../../../ThirdParty/mbedTLS/library/pkparse.c:0:0
	mov	r7, r2
.Ltmp165:
	.loc	9 1184 9                        @ ../../../ThirdParty/mbedTLS/library/pkparse.c:1184:9
	cbnz	r0, .LBB7_3
.Ltmp166:
@ %bb.2:
	@DEBUG_VALUE: mbedtls_pk_parse_key:pk <- [DW_OP_plus_uconst 12] [$sp+0]
	@DEBUG_VALUE: mbedtls_pk_parse_key:pwd <- [DW_OP_plus_uconst 24] [$sp+0]
	@DEBUG_VALUE: mbedtls_pk_parse_key:keylen <- $r5
	@DEBUG_VALUE: mbedtls_pk_parse_key:key <- $r4
	@DEBUG_VALUE: mbedtls_pk_parse_key:pwdlen <- [DW_OP_plus_uconst 64] [$sp+0]
	@DEBUG_VALUE: mbedtls_pk_parse_key:len <- [DW_OP_plus_uconst 40, DW_OP_deref] $sp
	.loc	9 0 9                           @ ../../../ThirdParty/mbedTLS/library/pkparse.c:0:9
	add	r0, sp, #40
.Ltmp167:
	.loc	9 1187 15 is_stmt 1             @ ../../../ThirdParty/mbedTLS/library/pkparse.c:1187:15
	ldr	r1, [sp, #24]                   @ 4-byte Reload
.Ltmp168:
	@DEBUG_VALUE: mbedtls_pk_parse_key:pwd <- $r1
	str	r1, [sp]
	ldr	r1, [sp, #20]                   @ 4-byte Reload
.Ltmp169:
	@DEBUG_VALUE: mbedtls_pk_parse_key:pwd <- [DW_OP_LLVM_entry_value 1] $r3
	str	r1, [sp, #4]
	str	r0, [sp, #8]
	add	r0, sp, #28
	adr	r1, .LCPI7_2
	mov	r7, r2
	adr	r2, .LCPI7_3
	mov	r3, r4
	bl	mbedtls_pem_read_buffer
	mov	r2, r7
	mov	r7, r0
.Ltmp170:
	@DEBUG_VALUE: mbedtls_pk_parse_key:ret <- $r7
.LBB7_3:
	@DEBUG_VALUE: mbedtls_pk_parse_key:pk <- [DW_OP_plus_uconst 12] [$sp+0]
	@DEBUG_VALUE: mbedtls_pk_parse_key:keylen <- $r5
	@DEBUG_VALUE: mbedtls_pk_parse_key:key <- $r4
	@DEBUG_VALUE: mbedtls_pk_parse_key:pwdlen <- [DW_OP_plus_uconst 64] [$sp+0]
	@DEBUG_VALUE: mbedtls_pk_parse_key:ret <- $r7
	.loc	9 0 15 is_stmt 0                @ ../../../ThirdParty/mbedTLS/library/pkparse.c:0:15
	str	r4, [sp, #16]                   @ 4-byte Spill
.Ltmp171:
	@DEBUG_VALUE: mbedtls_pk_parse_key:key <- [DW_OP_plus_uconst 16] [$sp+0]
	ldr	r1, __arm_cp.7_4
	ldr	r4, __arm_cp.7_5
	.loc	9 1192 9 is_stmt 1              @ ../../../ThirdParty/mbedTLS/library/pkparse.c:1192:9
	cmp	r7, r4
	bgt	.LBB7_7
.Ltmp172:
@ %bb.4:
	@DEBUG_VALUE: mbedtls_pk_parse_key:key <- [DW_OP_plus_uconst 16] [$sp+0]
	@DEBUG_VALUE: mbedtls_pk_parse_key:pk <- [DW_OP_plus_uconst 12] [$sp+0]
	@DEBUG_VALUE: mbedtls_pk_parse_key:ret <- $r7
	@DEBUG_VALUE: mbedtls_pk_parse_key:keylen <- $r5
	@DEBUG_VALUE: mbedtls_pk_parse_key:pwdlen <- [DW_OP_plus_uconst 64] [$sp+0]
	.loc	9 0 9 is_stmt 0                 @ ../../../ThirdParty/mbedTLS/library/pkparse.c:0:9
	ldr	r0, __arm_cp.7_6
	.loc	9 1192 9                        @ ../../../ThirdParty/mbedTLS/library/pkparse.c:1192:9
	cmp	r7, r0
	beq	.LBB7_13
.Ltmp173:
@ %bb.5:
	@DEBUG_VALUE: mbedtls_pk_parse_key:key <- [DW_OP_plus_uconst 16] [$sp+0]
	@DEBUG_VALUE: mbedtls_pk_parse_key:pk <- [DW_OP_plus_uconst 12] [$sp+0]
	@DEBUG_VALUE: mbedtls_pk_parse_key:ret <- $r7
	@DEBUG_VALUE: mbedtls_pk_parse_key:keylen <- $r5
	@DEBUG_VALUE: mbedtls_pk_parse_key:pwdlen <- [DW_OP_plus_uconst 64] [$sp+0]
	.loc	9 0 9                           @ ../../../ThirdParty/mbedTLS/library/pkparse.c:0:9
	ldr	r0, __arm_cp.7_7
	.loc	9 1192 9                        @ ../../../ThirdParty/mbedTLS/library/pkparse.c:1192:9
	cmp	r7, r0
	bne	.LBB7_14
.Ltmp174:
@ %bb.6:
	@DEBUG_VALUE: mbedtls_pk_parse_key:key <- [DW_OP_plus_uconst 16] [$sp+0]
	@DEBUG_VALUE: mbedtls_pk_parse_key:pk <- [DW_OP_plus_uconst 12] [$sp+0]
	@DEBUG_VALUE: mbedtls_pk_parse_key:ret <- $r7
	@DEBUG_VALUE: mbedtls_pk_parse_key:keylen <- $r5
	@DEBUG_VALUE: mbedtls_pk_parse_key:pwdlen <- [DW_OP_plus_uconst 64] [$sp+0]
	.loc	9 0 0                           @ ../../../ThirdParty/mbedTLS/library/pkparse.c:0:0
	subs	r1, #128
	mov	r7, r1
.Ltmp175:
	.loc	9 1208 9 is_stmt 1              @ ../../../ThirdParty/mbedTLS/library/pkparse.c:1208:9
	b	.LBB7_14
.Ltmp176:
.LBB7_7:
	@DEBUG_VALUE: mbedtls_pk_parse_key:key <- [DW_OP_plus_uconst 16] [$sp+0]
	@DEBUG_VALUE: mbedtls_pk_parse_key:pk <- [DW_OP_plus_uconst 12] [$sp+0]
	@DEBUG_VALUE: mbedtls_pk_parse_key:ret <- $r7
	@DEBUG_VALUE: mbedtls_pk_parse_key:keylen <- $r5
	@DEBUG_VALUE: mbedtls_pk_parse_key:pwdlen <- [DW_OP_plus_uconst 64] [$sp+0]
	.loc	9 0 9 is_stmt 0                 @ ../../../ThirdParty/mbedTLS/library/pkparse.c:0:9
	ldr	r3, __arm_cp.7_1
	.loc	9 1192 9 is_stmt 1              @ ../../../ThirdParty/mbedTLS/library/pkparse.c:1192:9
	cmp	r7, r3
	beq	.LBB7_15
.Ltmp177:
@ %bb.8:
	@DEBUG_VALUE: mbedtls_pk_parse_key:key <- [DW_OP_plus_uconst 16] [$sp+0]
	@DEBUG_VALUE: mbedtls_pk_parse_key:pk <- [DW_OP_plus_uconst 12] [$sp+0]
	@DEBUG_VALUE: mbedtls_pk_parse_key:ret <- $r7
	@DEBUG_VALUE: mbedtls_pk_parse_key:keylen <- $r5
	@DEBUG_VALUE: mbedtls_pk_parse_key:pwdlen <- [DW_OP_plus_uconst 64] [$sp+0]
	cbnz	r7, .LBB7_14
.Ltmp178:
@ %bb.9:
	@DEBUG_VALUE: mbedtls_pk_parse_key:key <- [DW_OP_plus_uconst 16] [$sp+0]
	@DEBUG_VALUE: mbedtls_pk_parse_key:pk <- [DW_OP_plus_uconst 12] [$sp+0]
	@DEBUG_VALUE: mbedtls_pk_parse_key:ret <- $r7
	@DEBUG_VALUE: mbedtls_pk_parse_key:keylen <- $r5
	@DEBUG_VALUE: mbedtls_pk_parse_key:pwdlen <- [DW_OP_plus_uconst 64] [$sp+0]
	.loc	9 0 9 is_stmt 0                 @ ../../../ThirdParty/mbedTLS/library/pkparse.c:0:9
	movs	r0, #1
.Ltmp179:
	.loc	9 1194 19 is_stmt 1             @ ../../../ThirdParty/mbedTLS/library/pkparse.c:1194:19
	bl	mbedtls_pk_info_from_type
	mov	r1, r0
.Ltmp180:
	@DEBUG_VALUE: mbedtls_pk_parse_key:pk_info <- $r1
	.loc	9 0 19 is_stmt 0                @ ../../../ThirdParty/mbedTLS/library/pkparse.c:0:19
	ldr	r4, [sp, #12]                   @ 4-byte Reload
.Ltmp181:
	@DEBUG_VALUE: mbedtls_pk_parse_key:pk <- $r4
	.loc	9 1195 21 is_stmt 1             @ ../../../ThirdParty/mbedTLS/library/pkparse.c:1195:21
	mov	r0, r4
	bl	mbedtls_pk_setup
.Ltmp182:
	mov	r7, r0
.Ltmp183:
	@DEBUG_VALUE: mbedtls_pk_parse_key:ret <- $r7
	.loc	9 1195 60 is_stmt 0             @ ../../../ThirdParty/mbedTLS/library/pkparse.c:1195:60
	cbnz	r0, .LBB7_11
.Ltmp184:
@ %bb.10:
	@DEBUG_VALUE: mbedtls_pk_parse_key:key <- [DW_OP_plus_uconst 16] [$sp+0]
	@DEBUG_VALUE: mbedtls_pk_parse_key:ret <- $r7
	@DEBUG_VALUE: mbedtls_pk_parse_key:keylen <- $r5
	@DEBUG_VALUE: mbedtls_pk_parse_key:pk <- $r4
	@DEBUG_VALUE: mbedtls_pk_parse_key:pwdlen <- [DW_OP_plus_uconst 64] [$sp+0]
	.loc	9 1196 49 is_stmt 1             @ ../../../ThirdParty/mbedTLS/library/pkparse.c:1196:49
	ldm	r4!, {r0, r1}
.Ltmp185:
	subs	r4, #8
	bl	mbedtls_pk_rsa
	.loc	9 1197 53                       @ ../../../ThirdParty/mbedTLS/library/pkparse.c:1197:53
	ldr	r1, [sp, #28]
	.loc	9 1197 62 is_stmt 0             @ ../../../ThirdParty/mbedTLS/library/pkparse.c:1197:62
	ldr	r2, [sp, #32]
	.loc	9 1196 25 is_stmt 1             @ ../../../ThirdParty/mbedTLS/library/pkparse.c:1196:25
	bl	pk_parse_key_pkcs1_der
	mov	r7, r0
.Ltmp186:
	@DEBUG_VALUE: mbedtls_pk_parse_key:ret <- $r7
	.loc	9 1195 13                       @ ../../../ThirdParty/mbedTLS/library/pkparse.c:1195:13
	cmp	r0, #0
	beq	.LBB7_35
.Ltmp187:
.LBB7_11:
	@DEBUG_VALUE: mbedtls_pk_parse_key:key <- [DW_OP_plus_uconst 16] [$sp+0]
	@DEBUG_VALUE: mbedtls_pk_parse_key:ret <- $r7
	@DEBUG_VALUE: mbedtls_pk_parse_key:keylen <- $r5
	@DEBUG_VALUE: mbedtls_pk_parse_key:pwdlen <- [DW_OP_plus_uconst 64] [$sp+0]
	@DEBUG_VALUE: mbedtls_pk_parse_key:ret <- $r7
	.loc	9 1199 13                       @ ../../../ThirdParty/mbedTLS/library/pkparse.c:1199:13
	mov	r0, r4
	bl	mbedtls_pk_free
.Ltmp188:
.LBB7_12:
	@DEBUG_VALUE: mbedtls_pk_parse_key:key <- [DW_OP_plus_uconst 16] [$sp+0]
	@DEBUG_VALUE: mbedtls_pk_parse_key:keylen <- $r5
	@DEBUG_VALUE: mbedtls_pk_parse_key:pwdlen <- [DW_OP_plus_uconst 64] [$sp+0]
	@DEBUG_VALUE: mbedtls_pk_parse_key:ret <- $r7
	.loc	9 0 13 is_stmt 0                @ ../../../ThirdParty/mbedTLS/library/pkparse.c:0:13
	add	r0, sp, #28
	.loc	9 1202 9 is_stmt 1              @ ../../../ThirdParty/mbedTLS/library/pkparse.c:1202:9
	bl	mbedtls_pem_free
	.loc	9 1203 9                        @ ../../../ThirdParty/mbedTLS/library/pkparse.c:1203:9
	b	.LBB7_14
.Ltmp189:
.LBB7_13:
	@DEBUG_VALUE: mbedtls_pk_parse_key:key <- [DW_OP_plus_uconst 16] [$sp+0]
	@DEBUG_VALUE: mbedtls_pk_parse_key:pk <- [DW_OP_plus_uconst 12] [$sp+0]
	@DEBUG_VALUE: mbedtls_pk_parse_key:ret <- $r7
	@DEBUG_VALUE: mbedtls_pk_parse_key:keylen <- $r5
	@DEBUG_VALUE: mbedtls_pk_parse_key:pwdlen <- [DW_OP_plus_uconst 64] [$sp+0]
	.loc	9 0 0 is_stmt 0                 @ ../../../ThirdParty/mbedTLS/library/pkparse.c:0:0
	mov	r7, r1
.Ltmp190:
.LBB7_14:
	@DEBUG_VALUE: mbedtls_pk_parse_key:pwdlen <- [DW_OP_plus_uconst 64] [$sp+0]
	.loc	9 1371 1 is_stmt 1              @ ../../../ThirdParty/mbedTLS/library/pkparse.c:1371:1
	mov	r0, r7
	add	sp, #44
.Ltmp191:
	pop	{r4, r5, r6, r7, pc}
.LBB7_15:
.Ltmp192:
	@DEBUG_VALUE: mbedtls_pk_parse_key:key <- [DW_OP_plus_uconst 16] [$sp+0]
	@DEBUG_VALUE: mbedtls_pk_parse_key:pk <- [DW_OP_plus_uconst 12] [$sp+0]
	@DEBUG_VALUE: mbedtls_pk_parse_key:ret <- $r7
	@DEBUG_VALUE: mbedtls_pk_parse_key:keylen <- $r5
	@DEBUG_VALUE: mbedtls_pk_parse_key:pwdlen <- [DW_OP_plus_uconst 64] [$sp+0]
	.loc	9 1215 9                        @ ../../../ThirdParty/mbedTLS/library/pkparse.c:1215:9
	ldr	r0, [sp, #16]                   @ 4-byte Reload
.Ltmp193:
	@DEBUG_VALUE: mbedtls_pk_parse_key:key <- $r0
	ldrb	r0, [r0, r6]
.Ltmp194:
	@DEBUG_VALUE: mbedtls_pk_parse_key:key <- [DW_OP_LLVM_entry_value 1] $r1
	.loc	9 0 0 is_stmt 0                 @ ../../../ThirdParty/mbedTLS/library/pkparse.c:0:0
	mov	r7, r2
.Ltmp195:
	.loc	9 1215 9                        @ ../../../ThirdParty/mbedTLS/library/pkparse.c:1215:9
	cbz	r0, .LBB7_20
.Ltmp196:
@ %bb.16:
	@DEBUG_VALUE: mbedtls_pk_parse_key:pk <- [DW_OP_plus_uconst 12] [$sp+0]
	@DEBUG_VALUE: mbedtls_pk_parse_key:keylen <- $r5
	@DEBUG_VALUE: mbedtls_pk_parse_key:pwdlen <- [DW_OP_plus_uconst 64] [$sp+0]
	@DEBUG_VALUE: mbedtls_pk_parse_key:key <- [DW_OP_LLVM_entry_value 1] $r1
	@DEBUG_VALUE: mbedtls_pk_parse_key:ret <- $r7
	.loc	9 1222 9 is_stmt 1              @ ../../../ThirdParty/mbedTLS/library/pkparse.c:1222:9
	cmp	r7, r4
	bgt	.LBB7_21
.Ltmp197:
.LBB7_17:
	@DEBUG_VALUE: mbedtls_pk_parse_key:pk <- [DW_OP_plus_uconst 12] [$sp+0]
	@DEBUG_VALUE: mbedtls_pk_parse_key:ret <- $r7
	@DEBUG_VALUE: mbedtls_pk_parse_key:keylen <- $r5
	@DEBUG_VALUE: mbedtls_pk_parse_key:pwdlen <- [DW_OP_plus_uconst 64] [$sp+0]
	@DEBUG_VALUE: mbedtls_pk_parse_key:key <- [DW_OP_LLVM_entry_value 1] $r1
	.loc	9 0 9 is_stmt 0                 @ ../../../ThirdParty/mbedTLS/library/pkparse.c:0:9
	ldr	r0, __arm_cp.7_6
	.loc	9 1222 9                        @ ../../../ThirdParty/mbedTLS/library/pkparse.c:1222:9
	cmp	r7, r0
	beq	.LBB7_27
.Ltmp198:
@ %bb.18:
	@DEBUG_VALUE: mbedtls_pk_parse_key:pk <- [DW_OP_plus_uconst 12] [$sp+0]
	@DEBUG_VALUE: mbedtls_pk_parse_key:ret <- $r7
	@DEBUG_VALUE: mbedtls_pk_parse_key:keylen <- $r5
	@DEBUG_VALUE: mbedtls_pk_parse_key:pwdlen <- [DW_OP_plus_uconst 64] [$sp+0]
	@DEBUG_VALUE: mbedtls_pk_parse_key:key <- [DW_OP_LLVM_entry_value 1] $r1
	.loc	9 0 9                           @ ../../../ThirdParty/mbedTLS/library/pkparse.c:0:9
	ldr	r0, __arm_cp.7_7
	.loc	9 1222 9                        @ ../../../ThirdParty/mbedTLS/library/pkparse.c:1222:9
	cmp	r7, r0
	bne	.LBB7_14
.Ltmp199:
@ %bb.19:
	@DEBUG_VALUE: mbedtls_pk_parse_key:pk <- [DW_OP_plus_uconst 12] [$sp+0]
	@DEBUG_VALUE: mbedtls_pk_parse_key:ret <- $r7
	@DEBUG_VALUE: mbedtls_pk_parse_key:keylen <- $r5
	@DEBUG_VALUE: mbedtls_pk_parse_key:pwdlen <- [DW_OP_plus_uconst 64] [$sp+0]
	@DEBUG_VALUE: mbedtls_pk_parse_key:key <- [DW_OP_LLVM_entry_value 1] $r1
	.loc	9 0 0                           @ ../../../ThirdParty/mbedTLS/library/pkparse.c:0:0
	subs	r1, #128
	mov	r7, r1
.Ltmp200:
	.loc	9 1239 9 is_stmt 1              @ ../../../ThirdParty/mbedTLS/library/pkparse.c:1239:9
	b	.LBB7_14
.Ltmp201:
.LBB7_20:
	@DEBUG_VALUE: mbedtls_pk_parse_key:pk <- [DW_OP_plus_uconst 12] [$sp+0]
	@DEBUG_VALUE: mbedtls_pk_parse_key:keylen <- $r5
	@DEBUG_VALUE: mbedtls_pk_parse_key:pwdlen <- [DW_OP_plus_uconst 64] [$sp+0]
	@DEBUG_VALUE: mbedtls_pk_parse_key:key <- [DW_OP_LLVM_entry_value 1] $r1
	@DEBUG_VALUE: mbedtls_pk_parse_key:len <- [DW_OP_plus_uconst 40, DW_OP_deref] $sp
	.loc	9 0 9 is_stmt 0                 @ ../../../ThirdParty/mbedTLS/library/pkparse.c:0:9
	add	r0, sp, #40
	mov	r7, r2
.Ltmp202:
	.loc	9 1218 15 is_stmt 1             @ ../../../ThirdParty/mbedTLS/library/pkparse.c:1218:15
	ldr	r2, [sp, #24]                   @ 4-byte Reload
	str	r2, [sp]
	ldr	r1, [sp, #20]                   @ 4-byte Reload
	str	r1, [sp, #4]
	str	r0, [sp, #8]
	add	r0, sp, #28
	adr	r1, .LCPI7_8
	adr	r2, .LCPI7_9
	ldr	r3, [sp, #16]                   @ 4-byte Reload
	bl	mbedtls_pem_read_buffer
	ldr	r3, __arm_cp.7_1
	mov	r2, r7
	ldr	r1, __arm_cp.7_4
	mov	r7, r0
.Ltmp203:
	@DEBUG_VALUE: mbedtls_pk_parse_key:ret <- $r7
	@DEBUG_VALUE: mbedtls_pk_parse_key:ret <- $r7
	.loc	9 1222 9                        @ ../../../ThirdParty/mbedTLS/library/pkparse.c:1222:9
	cmp	r7, r4
	ble	.LBB7_17
.Ltmp204:
.LBB7_21:
	@DEBUG_VALUE: mbedtls_pk_parse_key:pk <- [DW_OP_plus_uconst 12] [$sp+0]
	@DEBUG_VALUE: mbedtls_pk_parse_key:ret <- $r7
	@DEBUG_VALUE: mbedtls_pk_parse_key:keylen <- $r5
	@DEBUG_VALUE: mbedtls_pk_parse_key:pwdlen <- [DW_OP_plus_uconst 64] [$sp+0]
	@DEBUG_VALUE: mbedtls_pk_parse_key:key <- [DW_OP_LLVM_entry_value 1] $r1
	cmp	r7, r3
	beq	.LBB7_28
.Ltmp205:
@ %bb.22:
	@DEBUG_VALUE: mbedtls_pk_parse_key:pk <- [DW_OP_plus_uconst 12] [$sp+0]
	@DEBUG_VALUE: mbedtls_pk_parse_key:ret <- $r7
	@DEBUG_VALUE: mbedtls_pk_parse_key:keylen <- $r5
	@DEBUG_VALUE: mbedtls_pk_parse_key:pwdlen <- [DW_OP_plus_uconst 64] [$sp+0]
	@DEBUG_VALUE: mbedtls_pk_parse_key:key <- [DW_OP_LLVM_entry_value 1] $r1
	cmp	r7, #0
	bne	.LBB7_14
.Ltmp206:
@ %bb.23:
	@DEBUG_VALUE: mbedtls_pk_parse_key:pk <- [DW_OP_plus_uconst 12] [$sp+0]
	@DEBUG_VALUE: mbedtls_pk_parse_key:ret <- $r7
	@DEBUG_VALUE: mbedtls_pk_parse_key:keylen <- $r5
	@DEBUG_VALUE: mbedtls_pk_parse_key:pwdlen <- [DW_OP_plus_uconst 64] [$sp+0]
	@DEBUG_VALUE: mbedtls_pk_parse_key:key <- [DW_OP_LLVM_entry_value 1] $r1
	.loc	9 0 9 is_stmt 0                 @ ../../../ThirdParty/mbedTLS/library/pkparse.c:0:9
	movs	r0, #2
.Ltmp207:
	.loc	9 1224 19 is_stmt 1             @ ../../../ThirdParty/mbedTLS/library/pkparse.c:1224:19
	bl	mbedtls_pk_info_from_type
	mov	r1, r0
.Ltmp208:
	@DEBUG_VALUE: mbedtls_pk_parse_key:pk_info <- $r1
	.loc	9 0 19 is_stmt 0                @ ../../../ThirdParty/mbedTLS/library/pkparse.c:0:19
	ldr	r4, [sp, #12]                   @ 4-byte Reload
.Ltmp209:
	@DEBUG_VALUE: mbedtls_pk_parse_key:pk <- $r4
	.loc	9 1226 21 is_stmt 1             @ ../../../ThirdParty/mbedTLS/library/pkparse.c:1226:21
	mov	r0, r4
	bl	mbedtls_pk_setup
.Ltmp210:
	mov	r7, r0
.Ltmp211:
	@DEBUG_VALUE: mbedtls_pk_parse_key:ret <- $r7
	.loc	9 1226 60 is_stmt 0             @ ../../../ThirdParty/mbedTLS/library/pkparse.c:1226:60
	cbnz	r0, .LBB7_25
.Ltmp212:
@ %bb.24:
	@DEBUG_VALUE: mbedtls_pk_parse_key:ret <- $r7
	@DEBUG_VALUE: mbedtls_pk_parse_key:keylen <- $r5
	@DEBUG_VALUE: mbedtls_pk_parse_key:pk <- $r4
	@DEBUG_VALUE: mbedtls_pk_parse_key:pwdlen <- [DW_OP_plus_uconst 64] [$sp+0]
	@DEBUG_VALUE: mbedtls_pk_parse_key:key <- [DW_OP_LLVM_entry_value 1] $r1
	.loc	9 1227 48 is_stmt 1             @ ../../../ThirdParty/mbedTLS/library/pkparse.c:1227:48
	ldm	r4!, {r0, r1}
.Ltmp213:
	subs	r4, #8
	bl	mbedtls_pk_ec
	.loc	9 1228 52                       @ ../../../ThirdParty/mbedTLS/library/pkparse.c:1228:52
	ldr	r1, [sp, #28]
	.loc	9 1228 61 is_stmt 0             @ ../../../ThirdParty/mbedTLS/library/pkparse.c:1228:61
	ldr	r2, [sp, #32]
	.loc	9 1227 25 is_stmt 1             @ ../../../ThirdParty/mbedTLS/library/pkparse.c:1227:25
	bl	pk_parse_key_sec1_der
	mov	r7, r0
.Ltmp214:
	@DEBUG_VALUE: mbedtls_pk_parse_key:ret <- $r7
	.loc	9 1226 13                       @ ../../../ThirdParty/mbedTLS/library/pkparse.c:1226:13
	cmp	r0, #0
	beq	.LBB7_43
.Ltmp215:
.LBB7_25:
	@DEBUG_VALUE: mbedtls_pk_parse_key:ret <- $r7
	@DEBUG_VALUE: mbedtls_pk_parse_key:keylen <- $r5
	@DEBUG_VALUE: mbedtls_pk_parse_key:pwdlen <- [DW_OP_plus_uconst 64] [$sp+0]
	@DEBUG_VALUE: mbedtls_pk_parse_key:key <- [DW_OP_LLVM_entry_value 1] $r1
	@DEBUG_VALUE: mbedtls_pk_parse_key:ret <- $r7
	.loc	9 1230 13                       @ ../../../ThirdParty/mbedTLS/library/pkparse.c:1230:13
	mov	r0, r4
	bl	mbedtls_pk_free
.Ltmp216:
.LBB7_26:
	@DEBUG_VALUE: mbedtls_pk_parse_key:keylen <- $r5
	@DEBUG_VALUE: mbedtls_pk_parse_key:pwdlen <- [DW_OP_plus_uconst 64] [$sp+0]
	@DEBUG_VALUE: mbedtls_pk_parse_key:key <- [DW_OP_LLVM_entry_value 1] $r1
	@DEBUG_VALUE: mbedtls_pk_parse_key:ret <- $r7
	.loc	9 0 13 is_stmt 0                @ ../../../ThirdParty/mbedTLS/library/pkparse.c:0:13
	add	r0, sp, #28
	.loc	9 1233 9 is_stmt 1              @ ../../../ThirdParty/mbedTLS/library/pkparse.c:1233:9
	bl	mbedtls_pem_free
	.loc	9 1234 9                        @ ../../../ThirdParty/mbedTLS/library/pkparse.c:1234:9
	b	.LBB7_14
.Ltmp217:
.LBB7_27:
	@DEBUG_VALUE: mbedtls_pk_parse_key:pk <- [DW_OP_plus_uconst 12] [$sp+0]
	@DEBUG_VALUE: mbedtls_pk_parse_key:ret <- $r7
	@DEBUG_VALUE: mbedtls_pk_parse_key:keylen <- $r5
	@DEBUG_VALUE: mbedtls_pk_parse_key:pwdlen <- [DW_OP_plus_uconst 64] [$sp+0]
	@DEBUG_VALUE: mbedtls_pk_parse_key:key <- [DW_OP_LLVM_entry_value 1] $r1
	.loc	9 0 0 is_stmt 0                 @ ../../../ThirdParty/mbedTLS/library/pkparse.c:0:0
	mov	r7, r1
.Ltmp218:
	b	.LBB7_14
.Ltmp219:
.LBB7_28:
	@DEBUG_VALUE: mbedtls_pk_parse_key:pk <- [DW_OP_plus_uconst 12] [$sp+0]
	@DEBUG_VALUE: mbedtls_pk_parse_key:ret <- $r7
	@DEBUG_VALUE: mbedtls_pk_parse_key:keylen <- $r5
	@DEBUG_VALUE: mbedtls_pk_parse_key:pwdlen <- [DW_OP_plus_uconst 64] [$sp+0]
	@DEBUG_VALUE: mbedtls_pk_parse_key:key <- [DW_OP_LLVM_entry_value 1] $r1
	ldr	r4, [sp, #16]                   @ 4-byte Reload
.Ltmp220:
	.loc	9 1245 9 is_stmt 1              @ ../../../ThirdParty/mbedTLS/library/pkparse.c:1245:9
	ldrb	r0, [r4, r6]
	.loc	9 0 0 is_stmt 0                 @ ../../../ThirdParty/mbedTLS/library/pkparse.c:0:0
	mov	r7, r2
.Ltmp221:
	.loc	9 1245 9                        @ ../../../ThirdParty/mbedTLS/library/pkparse.c:1245:9
	cbnz	r0, .LBB7_30
.Ltmp222:
@ %bb.29:
	@DEBUG_VALUE: mbedtls_pk_parse_key:pk <- [DW_OP_plus_uconst 12] [$sp+0]
	@DEBUG_VALUE: mbedtls_pk_parse_key:keylen <- $r5
	@DEBUG_VALUE: mbedtls_pk_parse_key:pwdlen <- [DW_OP_plus_uconst 64] [$sp+0]
	@DEBUG_VALUE: mbedtls_pk_parse_key:key <- [DW_OP_LLVM_entry_value 1] $r1
	@DEBUG_VALUE: mbedtls_pk_parse_key:len <- [DW_OP_plus_uconst 40, DW_OP_deref] $sp
	.loc	9 0 9                           @ ../../../ThirdParty/mbedTLS/library/pkparse.c:0:9
	add	r0, sp, #40
	movs	r1, #0
.Ltmp223:
	.loc	9 1248 15 is_stmt 1             @ ../../../ThirdParty/mbedTLS/library/pkparse.c:1248:15
	str	r1, [sp]
	str	r1, [sp, #4]
	str	r0, [sp, #8]
	add	r0, sp, #28
	ldr	r1, __arm_cp.7_10
	ldr	r2, __arm_cp.7_11
	mov	r7, r3
	mov	r3, r4
	bl	mbedtls_pem_read_buffer
	mov	r3, r7
	ldr	r2, __arm_cp.7_1
	mov	r7, r0
.Ltmp224:
	@DEBUG_VALUE: mbedtls_pk_parse_key:ret <- $r7
.LBB7_30:
	@DEBUG_VALUE: mbedtls_pk_parse_key:pk <- [DW_OP_plus_uconst 12] [$sp+0]
	@DEBUG_VALUE: mbedtls_pk_parse_key:keylen <- $r5
	@DEBUG_VALUE: mbedtls_pk_parse_key:pwdlen <- [DW_OP_plus_uconst 64] [$sp+0]
	@DEBUG_VALUE: mbedtls_pk_parse_key:key <- [DW_OP_LLVM_entry_value 1] $r1
	@DEBUG_VALUE: mbedtls_pk_parse_key:ret <- $r7
	.loc	9 1252 9                        @ ../../../ThirdParty/mbedTLS/library/pkparse.c:1252:9
	cmp	r7, r3
	beq	.LBB7_36
.Ltmp225:
@ %bb.31:
	@DEBUG_VALUE: mbedtls_pk_parse_key:pk <- [DW_OP_plus_uconst 12] [$sp+0]
	@DEBUG_VALUE: mbedtls_pk_parse_key:ret <- $r7
	@DEBUG_VALUE: mbedtls_pk_parse_key:keylen <- $r5
	@DEBUG_VALUE: mbedtls_pk_parse_key:pwdlen <- [DW_OP_plus_uconst 64] [$sp+0]
	@DEBUG_VALUE: mbedtls_pk_parse_key:key <- [DW_OP_LLVM_entry_value 1] $r1
	cmp	r7, #0
	bne	.LBB7_14
.Ltmp226:
@ %bb.32:
	@DEBUG_VALUE: mbedtls_pk_parse_key:pk <- [DW_OP_plus_uconst 12] [$sp+0]
	@DEBUG_VALUE: mbedtls_pk_parse_key:ret <- $r7
	@DEBUG_VALUE: mbedtls_pk_parse_key:keylen <- $r5
	@DEBUG_VALUE: mbedtls_pk_parse_key:pwdlen <- [DW_OP_plus_uconst 64] [$sp+0]
	@DEBUG_VALUE: mbedtls_pk_parse_key:key <- [DW_OP_LLVM_entry_value 1] $r1
	.loc	9 1255 34                       @ ../../../ThirdParty/mbedTLS/library/pkparse.c:1255:34
	ldr	r2, [sp, #32]
	.loc	9 1255 25 is_stmt 0             @ ../../../ThirdParty/mbedTLS/library/pkparse.c:1255:25
	ldr	r1, [sp, #28]
	ldr	r4, [sp, #12]                   @ 4-byte Reload
.Ltmp227:
	@DEBUG_VALUE: mbedtls_pk_parse_key:pk <- $r4
	.loc	9 1254 21 is_stmt 1             @ ../../../ThirdParty/mbedTLS/library/pkparse.c:1254:21
	mov	r0, r4
	bl	pk_parse_key_pkcs8_unencrypted_der
	mov	r7, r0
.Ltmp228:
	@DEBUG_VALUE: mbedtls_pk_parse_key:ret <- $r7
	.loc	9 1254 13 is_stmt 0             @ ../../../ThirdParty/mbedTLS/library/pkparse.c:1254:13
	cbz	r0, .LBB7_34
.Ltmp229:
@ %bb.33:
	@DEBUG_VALUE: mbedtls_pk_parse_key:ret <- $r7
	@DEBUG_VALUE: mbedtls_pk_parse_key:keylen <- $r5
	@DEBUG_VALUE: mbedtls_pk_parse_key:pk <- $r4
	@DEBUG_VALUE: mbedtls_pk_parse_key:pwdlen <- [DW_OP_plus_uconst 64] [$sp+0]
	@DEBUG_VALUE: mbedtls_pk_parse_key:key <- [DW_OP_LLVM_entry_value 1] $r1
	.loc	9 1257 13 is_stmt 1             @ ../../../ThirdParty/mbedTLS/library/pkparse.c:1257:13
	mov	r0, r4
	bl	mbedtls_pk_free
.Ltmp230:
.LBB7_34:
	@DEBUG_VALUE: mbedtls_pk_parse_key:ret <- $r7
	@DEBUG_VALUE: mbedtls_pk_parse_key:keylen <- $r5
	@DEBUG_VALUE: mbedtls_pk_parse_key:pk <- $r4
	@DEBUG_VALUE: mbedtls_pk_parse_key:pwdlen <- [DW_OP_plus_uconst 64] [$sp+0]
	@DEBUG_VALUE: mbedtls_pk_parse_key:key <- [DW_OP_LLVM_entry_value 1] $r1
	.loc	9 0 13 is_stmt 0                @ ../../../ThirdParty/mbedTLS/library/pkparse.c:0:13
	add	r0, sp, #28
	.loc	9 1260 9 is_stmt 1              @ ../../../ThirdParty/mbedTLS/library/pkparse.c:1260:9
	bl	mbedtls_pem_free
	.loc	9 1261 9                        @ ../../../ThirdParty/mbedTLS/library/pkparse.c:1261:9
	b	.LBB7_14
.Ltmp231:
.LBB7_35:
	@DEBUG_VALUE: mbedtls_pk_parse_key:key <- [DW_OP_plus_uconst 16] [$sp+0]
	@DEBUG_VALUE: mbedtls_pk_parse_key:ret <- $r7
	@DEBUG_VALUE: mbedtls_pk_parse_key:keylen <- $r5
	@DEBUG_VALUE: mbedtls_pk_parse_key:pwdlen <- [DW_OP_plus_uconst 64] [$sp+0]
	.loc	9 0 9 is_stmt 0                 @ ../../../ThirdParty/mbedTLS/library/pkparse.c:0:9
	movs	r7, #0
.Ltmp232:
	b	.LBB7_12
.Ltmp233:
.LBB7_36:
	@DEBUG_VALUE: mbedtls_pk_parse_key:pk <- [DW_OP_plus_uconst 12] [$sp+0]
	@DEBUG_VALUE: mbedtls_pk_parse_key:ret <- $r7
	@DEBUG_VALUE: mbedtls_pk_parse_key:keylen <- $r5
	@DEBUG_VALUE: mbedtls_pk_parse_key:pwdlen <- [DW_OP_plus_uconst 64] [$sp+0]
	@DEBUG_VALUE: mbedtls_pk_parse_key:key <- [DW_OP_LLVM_entry_value 1] $r1
	.loc	9 1268 9 is_stmt 1              @ ../../../ThirdParty/mbedTLS/library/pkparse.c:1268:9
	ldrb	r0, [r4, r6]
	.loc	9 0 0 is_stmt 0                 @ ../../../ThirdParty/mbedTLS/library/pkparse.c:0:0
	mov	r7, r2
.Ltmp234:
	.loc	9 1268 9                        @ ../../../ThirdParty/mbedTLS/library/pkparse.c:1268:9
	cbnz	r0, .LBB7_38
.Ltmp235:
@ %bb.37:
	@DEBUG_VALUE: mbedtls_pk_parse_key:pk <- [DW_OP_plus_uconst 12] [$sp+0]
	@DEBUG_VALUE: mbedtls_pk_parse_key:keylen <- $r5
	@DEBUG_VALUE: mbedtls_pk_parse_key:pwdlen <- [DW_OP_plus_uconst 64] [$sp+0]
	@DEBUG_VALUE: mbedtls_pk_parse_key:key <- [DW_OP_LLVM_entry_value 1] $r1
	@DEBUG_VALUE: mbedtls_pk_parse_key:len <- [DW_OP_plus_uconst 40, DW_OP_deref] $sp
	.loc	9 0 9                           @ ../../../ThirdParty/mbedTLS/library/pkparse.c:0:9
	add	r0, sp, #40
	movs	r1, #0
.Ltmp236:
	.loc	9 1271 15 is_stmt 1             @ ../../../ThirdParty/mbedTLS/library/pkparse.c:1271:15
	str	r1, [sp]
	str	r1, [sp, #4]
	str	r0, [sp, #8]
	add	r0, sp, #28
	ldr	r1, __arm_cp.7_12
	mov	r6, r2
	ldr	r2, __arm_cp.7_13
	mov	r7, r3
	mov	r3, r4
	bl	mbedtls_pem_read_buffer
	mov	r3, r7
	mov	r2, r6
	mov	r7, r0
.Ltmp237:
	@DEBUG_VALUE: mbedtls_pk_parse_key:ret <- $r7
.LBB7_38:
	@DEBUG_VALUE: mbedtls_pk_parse_key:pk <- [DW_OP_plus_uconst 12] [$sp+0]
	@DEBUG_VALUE: mbedtls_pk_parse_key:keylen <- $r5
	@DEBUG_VALUE: mbedtls_pk_parse_key:pwdlen <- [DW_OP_plus_uconst 64] [$sp+0]
	@DEBUG_VALUE: mbedtls_pk_parse_key:key <- [DW_OP_LLVM_entry_value 1] $r1
	@DEBUG_VALUE: mbedtls_pk_parse_key:ret <- $r7
	.loc	9 1275 9                        @ ../../../ThirdParty/mbedTLS/library/pkparse.c:1275:9
	cmp	r7, r3
	beq	.LBB7_44
.Ltmp238:
@ %bb.39:
	@DEBUG_VALUE: mbedtls_pk_parse_key:pk <- [DW_OP_plus_uconst 12] [$sp+0]
	@DEBUG_VALUE: mbedtls_pk_parse_key:ret <- $r7
	@DEBUG_VALUE: mbedtls_pk_parse_key:keylen <- $r5
	@DEBUG_VALUE: mbedtls_pk_parse_key:pwdlen <- [DW_OP_plus_uconst 64] [$sp+0]
	@DEBUG_VALUE: mbedtls_pk_parse_key:key <- [DW_OP_LLVM_entry_value 1] $r1
	cmp	r7, #0
	beq	.LBB7_40
	b	.LBB7_14
.Ltmp239:
.LBB7_40:
	@DEBUG_VALUE: mbedtls_pk_parse_key:pk <- [DW_OP_plus_uconst 12] [$sp+0]
	@DEBUG_VALUE: mbedtls_pk_parse_key:ret <- $r7
	@DEBUG_VALUE: mbedtls_pk_parse_key:keylen <- $r5
	@DEBUG_VALUE: mbedtls_pk_parse_key:pwdlen <- [DW_OP_plus_uconst 64] [$sp+0]
	@DEBUG_VALUE: mbedtls_pk_parse_key:key <- [DW_OP_LLVM_entry_value 1] $r1
	.loc	9 1278 34                       @ ../../../ThirdParty/mbedTLS/library/pkparse.c:1278:34
	ldr	r2, [sp, #32]
	.loc	9 1278 25 is_stmt 0             @ ../../../ThirdParty/mbedTLS/library/pkparse.c:1278:25
	ldr	r1, [sp, #28]
	.loc	9 1277 21 is_stmt 1             @ ../../../ThirdParty/mbedTLS/library/pkparse.c:1277:21
	ldr	r0, [sp, #20]                   @ 4-byte Reload
	str	r0, [sp]
	ldr	r4, [sp, #12]                   @ 4-byte Reload
.Ltmp240:
	@DEBUG_VALUE: mbedtls_pk_parse_key:pk <- $r4
	mov	r0, r4
	ldr	r3, [sp, #24]                   @ 4-byte Reload
	bl	pk_parse_key_pkcs8_encrypted_der
	mov	r7, r0
.Ltmp241:
	@DEBUG_VALUE: mbedtls_pk_parse_key:ret <- $r7
	.loc	9 1277 13 is_stmt 0             @ ../../../ThirdParty/mbedTLS/library/pkparse.c:1277:13
	cbz	r0, .LBB7_42
.Ltmp242:
@ %bb.41:
	@DEBUG_VALUE: mbedtls_pk_parse_key:ret <- $r7
	@DEBUG_VALUE: mbedtls_pk_parse_key:keylen <- $r5
	@DEBUG_VALUE: mbedtls_pk_parse_key:pk <- $r4
	@DEBUG_VALUE: mbedtls_pk_parse_key:pwdlen <- [DW_OP_plus_uconst 64] [$sp+0]
	@DEBUG_VALUE: mbedtls_pk_parse_key:key <- [DW_OP_LLVM_entry_value 1] $r1
	.loc	9 1281 13 is_stmt 1             @ ../../../ThirdParty/mbedTLS/library/pkparse.c:1281:13
	mov	r0, r4
	bl	mbedtls_pk_free
.Ltmp243:
.LBB7_42:
	@DEBUG_VALUE: mbedtls_pk_parse_key:ret <- $r7
	@DEBUG_VALUE: mbedtls_pk_parse_key:keylen <- $r5
	@DEBUG_VALUE: mbedtls_pk_parse_key:pk <- $r4
	@DEBUG_VALUE: mbedtls_pk_parse_key:pwdlen <- [DW_OP_plus_uconst 64] [$sp+0]
	@DEBUG_VALUE: mbedtls_pk_parse_key:key <- [DW_OP_LLVM_entry_value 1] $r1
	.loc	9 0 13 is_stmt 0                @ ../../../ThirdParty/mbedTLS/library/pkparse.c:0:13
	add	r0, sp, #28
	.loc	9 1284 9 is_stmt 1              @ ../../../ThirdParty/mbedTLS/library/pkparse.c:1284:9
	bl	mbedtls_pem_free
	.loc	9 1285 9                        @ ../../../ThirdParty/mbedTLS/library/pkparse.c:1285:9
	b	.LBB7_14
.Ltmp244:
.LBB7_43:
	@DEBUG_VALUE: mbedtls_pk_parse_key:ret <- $r7
	@DEBUG_VALUE: mbedtls_pk_parse_key:keylen <- $r5
	@DEBUG_VALUE: mbedtls_pk_parse_key:pwdlen <- [DW_OP_plus_uconst 64] [$sp+0]
	@DEBUG_VALUE: mbedtls_pk_parse_key:key <- [DW_OP_LLVM_entry_value 1] $r1
	.loc	9 0 9 is_stmt 0                 @ ../../../ThirdParty/mbedTLS/library/pkparse.c:0:9
	movs	r7, #0
.Ltmp245:
	b	.LBB7_26
.Ltmp246:
.LBB7_44:
	@DEBUG_VALUE: mbedtls_pk_parse_key:pk <- [DW_OP_plus_uconst 12] [$sp+0]
	@DEBUG_VALUE: mbedtls_pk_parse_key:ret <- $r7
	@DEBUG_VALUE: mbedtls_pk_parse_key:keylen <- $r5
	@DEBUG_VALUE: mbedtls_pk_parse_key:pwdlen <- [DW_OP_plus_uconst 64] [$sp+0]
	@DEBUG_VALUE: mbedtls_pk_parse_key:key <- [DW_OP_LLVM_entry_value 1] $r1
	mov	r6, r2
	movs	r0, #1
.Ltmp247:
	.loc	9 1306 26 is_stmt 1             @ ../../../ThirdParty/mbedTLS/library/pkparse.c:1306:26
	mov	r1, r5
	bl	calloc
	mov	r7, r0
.Ltmp248:
	@DEBUG_VALUE: key_copy <- $r7
	.loc	9 0 26 is_stmt 0                @ ../../../ThirdParty/mbedTLS/library/pkparse.c:0:26
	ldr	r4, [sp, #12]                   @ 4-byte Reload
.Ltmp249:
	@DEBUG_VALUE: mbedtls_pk_parse_key:pk <- $r4
	.loc	9 1306 13                       @ ../../../ThirdParty/mbedTLS/library/pkparse.c:1306:13
	cbz	r0, .LBB7_46
.Ltmp250:
@ %bb.45:
	@DEBUG_VALUE: key_copy <- $r7
	@DEBUG_VALUE: mbedtls_pk_parse_key:keylen <- $r5
	@DEBUG_VALUE: mbedtls_pk_parse_key:pk <- $r4
	@DEBUG_VALUE: mbedtls_pk_parse_key:pwdlen <- [DW_OP_plus_uconst 64] [$sp+0]
	@DEBUG_VALUE: mbedtls_pk_parse_key:key <- [DW_OP_LLVM_entry_value 1] $r1
	.loc	9 1309 9 is_stmt 1              @ ../../../ThirdParty/mbedTLS/library/pkparse.c:1309:9
	mov	r0, r7
	ldr	r1, [sp, #16]                   @ 4-byte Reload
	mov	r2, r5
	bl	__aeabi_memcpy
	.loc	9 1311 15                       @ ../../../ThirdParty/mbedTLS/library/pkparse.c:1311:15
	ldr	r0, [sp, #20]                   @ 4-byte Reload
	str	r0, [sp]
	mov	r0, r4
	mov	r1, r7
	mov	r2, r5
	ldr	r3, [sp, #24]                   @ 4-byte Reload
	bl	pk_parse_key_pkcs8_encrypted_der
	mov	r6, r0
.Ltmp251:
	@DEBUG_VALUE: mbedtls_pk_parse_key:ret <- $r6
	.loc	9 1314 9                        @ ../../../ThirdParty/mbedTLS/library/pkparse.c:1314:9
	mov	r0, r7
	mov	r1, r5
	bl	mbedtls_platform_zeroize
	.loc	9 1315 9                        @ ../../../ThirdParty/mbedTLS/library/pkparse.c:1315:9
	mov	r0, r7
	bl	free
.Ltmp252:
.LBB7_46:
	@DEBUG_VALUE: key_copy <- $r7
	@DEBUG_VALUE: mbedtls_pk_parse_key:keylen <- $r5
	@DEBUG_VALUE: mbedtls_pk_parse_key:pk <- $r4
	@DEBUG_VALUE: mbedtls_pk_parse_key:pwdlen <- [DW_OP_plus_uconst 64] [$sp+0]
	@DEBUG_VALUE: mbedtls_pk_parse_key:key <- [DW_OP_LLVM_entry_value 1] $r1
	@DEBUG_VALUE: mbedtls_pk_parse_key:ret <- $r6
	.loc	9 0 9 is_stmt 0                 @ ../../../ThirdParty/mbedTLS/library/pkparse.c:0:9
	cmp	r7, #0
	beq	.LBB7_55
.Ltmp253:
@ %bb.47:
	@DEBUG_VALUE: mbedtls_pk_parse_key:ret <- $r6
	@DEBUG_VALUE: mbedtls_pk_parse_key:keylen <- $r5
	@DEBUG_VALUE: mbedtls_pk_parse_key:pk <- $r4
	@DEBUG_VALUE: mbedtls_pk_parse_key:pwdlen <- [DW_OP_plus_uconst 64] [$sp+0]
	@DEBUG_VALUE: mbedtls_pk_parse_key:key <- [DW_OP_LLVM_entry_value 1] $r1
	movs	r7, #0
	.loc	9 1318 9 is_stmt 1              @ ../../../ThirdParty/mbedTLS/library/pkparse.c:1318:9
	cmp	r6, #0
	bne	.LBB7_48
	b	.LBB7_14
.Ltmp254:
.LBB7_48:
	@DEBUG_VALUE: mbedtls_pk_parse_key:ret <- $r6
	@DEBUG_VALUE: mbedtls_pk_parse_key:keylen <- $r5
	@DEBUG_VALUE: mbedtls_pk_parse_key:pk <- $r4
	@DEBUG_VALUE: mbedtls_pk_parse_key:pwdlen <- [DW_OP_plus_uconst 64] [$sp+0]
	@DEBUG_VALUE: mbedtls_pk_parse_key:key <- [DW_OP_LLVM_entry_value 1] $r1
	.loc	9 0 9 is_stmt 0                 @ ../../../ThirdParty/mbedTLS/library/pkparse.c:0:9
	str	r7, [sp, #24]                   @ 4-byte Spill
	.loc	9 1321 5 is_stmt 1              @ ../../../ThirdParty/mbedTLS/library/pkparse.c:1321:5
	mov	r0, r4
	bl	mbedtls_pk_free
	.loc	9 1322 5                        @ ../../../ThirdParty/mbedTLS/library/pkparse.c:1322:5
	mov	r0, r4
	bl	mbedtls_pk_init
	ldr	r7, __arm_cp.7_4
	.loc	9 1324 9                        @ ../../../ThirdParty/mbedTLS/library/pkparse.c:1324:9
	cmp	r6, r7
	bne	.LBB7_49
	b	.LBB7_14
.Ltmp255:
.LBB7_49:
	@DEBUG_VALUE: mbedtls_pk_parse_key:ret <- $r6
	@DEBUG_VALUE: mbedtls_pk_parse_key:keylen <- $r5
	@DEBUG_VALUE: mbedtls_pk_parse_key:pk <- $r4
	@DEBUG_VALUE: mbedtls_pk_parse_key:pwdlen <- [DW_OP_plus_uconst 64] [$sp+0]
	@DEBUG_VALUE: mbedtls_pk_parse_key:key <- [DW_OP_LLVM_entry_value 1] $r1
	.loc	9 0 9 is_stmt 0                 @ ../../../ThirdParty/mbedTLS/library/pkparse.c:0:9
	ldr	r4, [sp, #12]                   @ 4-byte Reload
.Ltmp256:
	.loc	9 1330 17 is_stmt 1             @ ../../../ThirdParty/mbedTLS/library/pkparse.c:1330:17
	mov	r0, r4
	ldr	r1, [sp, #16]                   @ 4-byte Reload
	mov	r2, r5
	bl	pk_parse_key_pkcs8_unencrypted_der
.Ltmp257:
	@DEBUG_VALUE: mbedtls_pk_parse_key:ret <- $r0
	.loc	9 1330 9 is_stmt 0              @ ../../../ThirdParty/mbedTLS/library/pkparse.c:1330:9
	cbz	r0, .LBB7_56
.Ltmp258:
@ %bb.50:
	@DEBUG_VALUE: mbedtls_pk_parse_key:keylen <- $r5
	@DEBUG_VALUE: mbedtls_pk_parse_key:ret <- $r0
	@DEBUG_VALUE: mbedtls_pk_parse_key:pwdlen <- [DW_OP_plus_uconst 64] [$sp+0]
	@DEBUG_VALUE: mbedtls_pk_parse_key:key <- [DW_OP_LLVM_entry_value 1] $r1
	.loc	9 1333 5 is_stmt 1              @ ../../../ThirdParty/mbedTLS/library/pkparse.c:1333:5
	mov	r0, r4
.Ltmp259:
	bl	mbedtls_pk_free
	.loc	9 1334 5                        @ ../../../ThirdParty/mbedTLS/library/pkparse.c:1334:5
	mov	r0, r4
	bl	mbedtls_pk_init
	movs	r0, #1
	.loc	9 1338 15                       @ ../../../ThirdParty/mbedTLS/library/pkparse.c:1338:15
	bl	mbedtls_pk_info_from_type
	mov	r1, r0
.Ltmp260:
	@DEBUG_VALUE: mbedtls_pk_parse_key:pk_info <- $r1
	.loc	9 1339 9                        @ ../../../ThirdParty/mbedTLS/library/pkparse.c:1339:9
	mov	r0, r4
	bl	mbedtls_pk_setup
.Ltmp261:
	.loc	9 1339 46 is_stmt 0             @ ../../../ThirdParty/mbedTLS/library/pkparse.c:1339:46
	cbnz	r0, .LBB7_52
.Ltmp262:
@ %bb.51:
	@DEBUG_VALUE: mbedtls_pk_parse_key:keylen <- $r5
	@DEBUG_VALUE: mbedtls_pk_parse_key:pwdlen <- [DW_OP_plus_uconst 64] [$sp+0]
	@DEBUG_VALUE: mbedtls_pk_parse_key:key <- [DW_OP_LLVM_entry_value 1] $r1
	.loc	9 1340 37 is_stmt 1             @ ../../../ThirdParty/mbedTLS/library/pkparse.c:1340:37
	ldm	r4!, {r0, r1}
	subs	r4, #8
	bl	mbedtls_pk_rsa
	.loc	9 1340 13 is_stmt 0             @ ../../../ThirdParty/mbedTLS/library/pkparse.c:1340:13
	ldr	r1, [sp, #16]                   @ 4-byte Reload
	mov	r2, r5
	bl	pk_parse_key_pkcs1_der
.Ltmp263:
	.loc	9 1339 9 is_stmt 1              @ ../../../ThirdParty/mbedTLS/library/pkparse.c:1339:9
	cbz	r0, .LBB7_57
.Ltmp264:
.LBB7_52:
	@DEBUG_VALUE: mbedtls_pk_parse_key:keylen <- $r5
	@DEBUG_VALUE: mbedtls_pk_parse_key:pwdlen <- [DW_OP_plus_uconst 64] [$sp+0]
	@DEBUG_VALUE: mbedtls_pk_parse_key:key <- [DW_OP_LLVM_entry_value 1] $r1
	.loc	9 1345 5                        @ ../../../ThirdParty/mbedTLS/library/pkparse.c:1345:5
	mov	r0, r4
	bl	mbedtls_pk_free
	.loc	9 1346 5                        @ ../../../ThirdParty/mbedTLS/library/pkparse.c:1346:5
	mov	r0, r4
	bl	mbedtls_pk_init
	movs	r0, #2
	.loc	9 1350 15                       @ ../../../ThirdParty/mbedTLS/library/pkparse.c:1350:15
	bl	mbedtls_pk_info_from_type
	mov	r1, r0
.Ltmp265:
	@DEBUG_VALUE: mbedtls_pk_parse_key:pk_info <- $r1
	.loc	9 1351 9                        @ ../../../ThirdParty/mbedTLS/library/pkparse.c:1351:9
	mov	r0, r4
	bl	mbedtls_pk_setup
.Ltmp266:
	.loc	9 1351 46 is_stmt 0             @ ../../../ThirdParty/mbedTLS/library/pkparse.c:1351:46
	cbnz	r0, .LBB7_54
.Ltmp267:
@ %bb.53:
	@DEBUG_VALUE: mbedtls_pk_parse_key:keylen <- $r5
	@DEBUG_VALUE: mbedtls_pk_parse_key:pwdlen <- [DW_OP_plus_uconst 64] [$sp+0]
	@DEBUG_VALUE: mbedtls_pk_parse_key:key <- [DW_OP_LLVM_entry_value 1] $r1
	.loc	9 0 46                          @ ../../../ThirdParty/mbedTLS/library/pkparse.c:0:46
	ldr	r1, [sp, #12]                   @ 4-byte Reload
	.loc	9 1352 36 is_stmt 1             @ ../../../ThirdParty/mbedTLS/library/pkparse.c:1352:36
	ldm	r1, {r0, r1}
	bl	mbedtls_pk_ec
	.loc	9 1352 13 is_stmt 0             @ ../../../ThirdParty/mbedTLS/library/pkparse.c:1352:13
	ldr	r1, [sp, #16]                   @ 4-byte Reload
	mov	r2, r5
	bl	pk_parse_key_sec1_der
.Ltmp268:
	.loc	9 1351 9 is_stmt 1              @ ../../../ThirdParty/mbedTLS/library/pkparse.c:1351:9
	cmp	r0, #0
	.loc	9 0 0 is_stmt 0                 @ ../../../ThirdParty/mbedTLS/library/pkparse.c:0:0
	ldr	r7, [sp, #24]                   @ 4-byte Reload
	bne	.LBB7_54
	b	.LBB7_14
.Ltmp269:
.LBB7_54:
	@DEBUG_VALUE: mbedtls_pk_parse_key:keylen <- $r5
	@DEBUG_VALUE: mbedtls_pk_parse_key:pwdlen <- [DW_OP_plus_uconst 64] [$sp+0]
	@DEBUG_VALUE: mbedtls_pk_parse_key:key <- [DW_OP_LLVM_entry_value 1] $r1
	.loc	9 1357 5 is_stmt 1              @ ../../../ThirdParty/mbedTLS/library/pkparse.c:1357:5
	ldr	r0, [sp, #12]                   @ 4-byte Reload
	bl	mbedtls_pk_free
	.loc	9 0 0 is_stmt 0                 @ ../../../ThirdParty/mbedTLS/library/pkparse.c:0:0
	ldr	r7, __arm_cp.7_0
	b	.LBB7_14
.Ltmp270:
.LBB7_55:
	@DEBUG_VALUE: key_copy <- $r7
	@DEBUG_VALUE: mbedtls_pk_parse_key:ret <- $r6
	@DEBUG_VALUE: mbedtls_pk_parse_key:keylen <- $r5
	@DEBUG_VALUE: mbedtls_pk_parse_key:pk <- $r4
	@DEBUG_VALUE: mbedtls_pk_parse_key:pwdlen <- [DW_OP_plus_uconst 64] [$sp+0]
	@DEBUG_VALUE: mbedtls_pk_parse_key:key <- [DW_OP_LLVM_entry_value 1] $r1
	ldr	r7, __arm_cp.7_14
	b	.LBB7_14
.Ltmp271:
.LBB7_56:
	@DEBUG_VALUE: mbedtls_pk_parse_key:keylen <- $r5
	@DEBUG_VALUE: mbedtls_pk_parse_key:ret <- $r0
	@DEBUG_VALUE: mbedtls_pk_parse_key:pwdlen <- [DW_OP_plus_uconst 64] [$sp+0]
	@DEBUG_VALUE: mbedtls_pk_parse_key:key <- [DW_OP_LLVM_entry_value 1] $r1
	ldr	r7, [sp, #24]                   @ 4-byte Reload
	b	.LBB7_14
.Ltmp272:
.LBB7_57:
	@DEBUG_VALUE: mbedtls_pk_parse_key:keylen <- $r5
	@DEBUG_VALUE: mbedtls_pk_parse_key:pwdlen <- [DW_OP_plus_uconst 64] [$sp+0]
	@DEBUG_VALUE: mbedtls_pk_parse_key:key <- [DW_OP_LLVM_entry_value 1] $r1
	ldr	r7, [sp, #24]                   @ 4-byte Reload
	b	.LBB7_14
.Ltmp273:
	.p2align	2
@ %bb.58:
__arm_cp.7_0:
	.long	4294951680                      @ 0xffffc300
.Lcpi_end7:
	.size	__arm_cp.7_0, .Lcpi_end7-__arm_cp.7_0
__arm_cp.7_1:
	.long	4294963072                      @ 0xffffef80
.Lcpi_end8:
	.size	__arm_cp.7_1, .Lcpi_end8-__arm_cp.7_1
.LCPI7_2:
.L.str:
	.asciz	"-----BEGIN RSA PRIVATE KEY-----"
.LCPI7_3:
.L.str.1:
	.asciz	"-----END RSA PRIVATE KEY-----\000\000"
__arm_cp.7_4:
	.long	4294952064                      @ 0xffffc480
.Lcpi_end9:
	.size	__arm_cp.7_4, .Lcpi_end9-__arm_cp.7_4
__arm_cp.7_5:
	.long	4294963071                      @ 0xffffef7f
.Lcpi_end10:
	.size	__arm_cp.7_5, .Lcpi_end10-__arm_cp.7_5
__arm_cp.7_6:
	.long	4294962304                      @ 0xffffec80
.Lcpi_end11:
	.size	__arm_cp.7_6, .Lcpi_end11-__arm_cp.7_6
__arm_cp.7_7:
	.long	4294962432                      @ 0xffffed00
.Lcpi_end12:
	.size	__arm_cp.7_7, .Lcpi_end12-__arm_cp.7_7
.LCPI7_8:
.L.str.2:
	.asciz	"-----BEGIN EC PRIVATE KEY-----\000"
.LCPI7_9:
.L.str.3:
	.asciz	"-----END EC PRIVATE KEY-----\000\000\000"
__arm_cp.7_10:
	.long	.L.str.4
.Lcpi_end13:
	.size	__arm_cp.7_10, .Lcpi_end13-__arm_cp.7_10
__arm_cp.7_11:
	.long	.L.str.5
.Lcpi_end14:
	.size	__arm_cp.7_11, .Lcpi_end14-__arm_cp.7_11
__arm_cp.7_12:
	.long	.L.str.6
.Lcpi_end15:
	.size	__arm_cp.7_12, .Lcpi_end15-__arm_cp.7_12
__arm_cp.7_13:
	.long	.L.str.7
.Lcpi_end16:
	.size	__arm_cp.7_13, .Lcpi_end16-__arm_cp.7_13
__arm_cp.7_14:
	.long	4294951040                      @ 0xffffc080
.Lcpi_end17:
	.size	__arm_cp.7_14, .Lcpi_end17-__arm_cp.7_14
.Lfunc_end7:
	.size	mbedtls_pk_parse_key, .Lfunc_end7-mbedtls_pk_parse_key
	.cfi_endproc
	.cantunwind
	.fnend
                                        @ -- End function
	.section	.text.pk_parse_key_pkcs1_der,"ax",%progbits
	.p2align	2                               @ -- Begin function pk_parse_key_pkcs1_der
	.type	pk_parse_key_pkcs1_der,%function
	.code	16                              @ @pk_parse_key_pkcs1_der
	.thumb_func
pk_parse_key_pkcs1_der:
.Lfunc_begin8:
	.loc	9 686 0 is_stmt 1               @ ../../../ThirdParty/mbedTLS/library/pkparse.c:686:0
	.fnstart
	.cfi_startproc
@ %bb.0:
	@DEBUG_VALUE: pk_parse_key_pkcs1_der:rsa <- $r0
	@DEBUG_VALUE: pk_parse_key_pkcs1_der:key <- $r1
	@DEBUG_VALUE: pk_parse_key_pkcs1_der:keylen <- $r2
	.save	{r4, r5, r6, r7, lr}
	push	{r4, r5, r6, r7, lr}
	.cfi_def_cfa_offset 20
	.cfi_offset lr, -4
	.cfi_offset r7, -8
	.cfi_offset r6, -12
	.cfi_offset r5, -16
	.cfi_offset r4, -20
	.pad	#60
	sub	sp, #60
	.cfi_def_cfa_offset 80
	mov	r4, r2
	mov	r6, r1
	mov	r5, r0
.Ltmp274:
	@DEBUG_VALUE: pk_parse_key_pkcs1_der:keylen <- $r4
	@DEBUG_VALUE: pk_parse_key_pkcs1_der:key <- $r6
	@DEBUG_VALUE: pk_parse_key_pkcs1_der:rsa <- $r5
	add	r0, sp, #36
.Ltmp275:
	.loc	9 692 5 prologue_end            @ ../../../ThirdParty/mbedTLS/library/pkparse.c:692:5
	bl	mbedtls_mpi_init
.Ltmp276:
	@DEBUG_VALUE: pk_parse_key_pkcs1_der:p <- $r6
	.loc	9 694 7                         @ ../../../ThirdParty/mbedTLS/library/pkparse.c:694:7
	str	r6, [sp, #48]
	.loc	9 695 13                        @ ../../../ThirdParty/mbedTLS/library/pkparse.c:695:13
	adds	r1, r6, r4
.Ltmp277:
	@DEBUG_VALUE: pk_parse_key_pkcs1_der:len <- [DW_OP_plus_uconst 52, DW_OP_deref] $sp
	@DEBUG_VALUE: pk_parse_key_pkcs1_der:end <- $r1
	@DEBUG_VALUE: pk_parse_key_pkcs1_der:p <- [DW_OP_plus_uconst 48, DW_OP_deref] $sp
	.loc	9 0 13 is_stmt 0                @ ../../../ThirdParty/mbedTLS/library/pkparse.c:0:13
	add	r0, sp, #48
	add	r2, sp, #52
	movs	r3, #48
.Ltmp278:
	.loc	9 713 17 is_stmt 1              @ ../../../ThirdParty/mbedTLS/library/pkparse.c:713:17
	bl	mbedtls_asn1_get_tag
.Ltmp279:
	@DEBUG_VALUE: pk_parse_key_pkcs1_der:ret <- $r0
	.loc	9 0 17 is_stmt 0                @ ../../../ThirdParty/mbedTLS/library/pkparse.c:0:17
	ldr	r4, __arm_cp.8_0
.Ltmp280:
	.loc	9 713 9                         @ ../../../ThirdParty/mbedTLS/library/pkparse.c:713:9
	cbz	r0, .LBB8_2
.Ltmp281:
@ %bb.1:
	@DEBUG_VALUE: pk_parse_key_pkcs1_der:key <- $r6
	@DEBUG_VALUE: pk_parse_key_pkcs1_der:rsa <- $r5
	@DEBUG_VALUE: pk_parse_key_pkcs1_der:ret <- $r0
	@DEBUG_VALUE: pk_parse_key_pkcs1_der:p <- [DW_OP_plus_uconst 48, DW_OP_deref] $sp
	@DEBUG_VALUE: pk_parse_key_pkcs1_der:len <- [DW_OP_plus_uconst 52, DW_OP_deref] $sp
	.loc	9 716 51 is_stmt 1              @ ../../../ThirdParty/mbedTLS/library/pkparse.c:716:51
	adds	r4, r0, r4
	.loc	9 716 9 is_stmt 0               @ ../../../ThirdParty/mbedTLS/library/pkparse.c:716:9
	b	.LBB8_6
.Ltmp282:
.LBB8_2:
	@DEBUG_VALUE: pk_parse_key_pkcs1_der:key <- $r6
	@DEBUG_VALUE: pk_parse_key_pkcs1_der:rsa <- $r5
	@DEBUG_VALUE: pk_parse_key_pkcs1_der:ret <- $r0
	@DEBUG_VALUE: pk_parse_key_pkcs1_der:p <- [DW_OP_plus_uconst 48, DW_OP_deref] $sp
	@DEBUG_VALUE: pk_parse_key_pkcs1_der:len <- [DW_OP_plus_uconst 52, DW_OP_deref] $sp
	.loc	9 719 15 is_stmt 1              @ ../../../ThirdParty/mbedTLS/library/pkparse.c:719:15
	ldr	r0, [sp, #52]
.Ltmp283:
	@DEBUG_VALUE: pk_parse_key_pkcs1_der:len <- $r0
	.loc	9 719 11 is_stmt 0              @ ../../../ThirdParty/mbedTLS/library/pkparse.c:719:11
	ldr	r1, [sp, #48]
.Ltmp284:
	@DEBUG_VALUE: pk_parse_key_pkcs1_der:p <- $r1
	.loc	9 719 13                        @ ../../../ThirdParty/mbedTLS/library/pkparse.c:719:13
	adds	r6, r1, r0
.Ltmp285:
	@DEBUG_VALUE: pk_parse_key_pkcs1_der:version <- [DW_OP_plus_uconst 56, DW_OP_deref] $sp
	@DEBUG_VALUE: pk_parse_key_pkcs1_der:end <- $r6
	@DEBUG_VALUE: pk_parse_key_pkcs1_der:p <- [DW_OP_plus_uconst 48, DW_OP_deref] $sp
	.loc	9 0 13                          @ ../../../ThirdParty/mbedTLS/library/pkparse.c:0:13
	add	r0, sp, #48
.Ltmp286:
	add	r2, sp, #56
.Ltmp287:
	.loc	9 721 17 is_stmt 1              @ ../../../ThirdParty/mbedTLS/library/pkparse.c:721:17
	mov	r1, r6
	bl	mbedtls_asn1_get_int
.Ltmp288:
	@DEBUG_VALUE: pk_parse_key_pkcs1_der:ret <- $r0
	.loc	9 721 9 is_stmt 0               @ ../../../ThirdParty/mbedTLS/library/pkparse.c:721:9
	cbz	r0, .LBB8_4
.Ltmp289:
@ %bb.3:
	@DEBUG_VALUE: pk_parse_key_pkcs1_der:end <- $r6
	@DEBUG_VALUE: pk_parse_key_pkcs1_der:rsa <- $r5
	@DEBUG_VALUE: pk_parse_key_pkcs1_der:ret <- $r0
	@DEBUG_VALUE: pk_parse_key_pkcs1_der:version <- [DW_OP_plus_uconst 56, DW_OP_deref] $sp
	@DEBUG_VALUE: pk_parse_key_pkcs1_der:p <- [DW_OP_plus_uconst 48, DW_OP_deref] $sp
	.loc	9 723 51 is_stmt 1              @ ../../../ThirdParty/mbedTLS/library/pkparse.c:723:51
	adds	r4, r0, r4
	.loc	9 723 9 is_stmt 0               @ ../../../ThirdParty/mbedTLS/library/pkparse.c:723:9
	b	.LBB8_6
.Ltmp290:
.LBB8_4:
	@DEBUG_VALUE: pk_parse_key_pkcs1_der:end <- $r6
	@DEBUG_VALUE: pk_parse_key_pkcs1_der:rsa <- $r5
	@DEBUG_VALUE: pk_parse_key_pkcs1_der:ret <- $r0
	@DEBUG_VALUE: pk_parse_key_pkcs1_der:version <- [DW_OP_plus_uconst 56, DW_OP_deref] $sp
	@DEBUG_VALUE: pk_parse_key_pkcs1_der:p <- [DW_OP_plus_uconst 48, DW_OP_deref] $sp
	.loc	9 726 9 is_stmt 1               @ ../../../ThirdParty/mbedTLS/library/pkparse.c:726:9
	ldr	r0, [sp, #56]
.Ltmp291:
	@DEBUG_VALUE: pk_parse_key_pkcs1_der:version <- $r0
	.loc	9 726 9 is_stmt 0               @ ../../../ThirdParty/mbedTLS/library/pkparse.c:726:9
	cbz	r0, .LBB8_7
.Ltmp292:
@ %bb.5:
	@DEBUG_VALUE: pk_parse_key_pkcs1_der:end <- $r6
	@DEBUG_VALUE: pk_parse_key_pkcs1_der:rsa <- $r5
	@DEBUG_VALUE: pk_parse_key_pkcs1_der:version <- $r0
	@DEBUG_VALUE: pk_parse_key_pkcs1_der:p <- [DW_OP_plus_uconst 48, DW_OP_deref] $sp
	.loc	9 0 9                           @ ../../../ThirdParty/mbedTLS/library/pkparse.c:0:9
	subs	r4, #128
.Ltmp293:
.LBB8_6:
	@DEBUG_VALUE: pk_parse_key_pkcs1_der:rsa <- $r5
	.loc	9 803 1 is_stmt 1               @ ../../../ThirdParty/mbedTLS/library/pkparse.c:803:1
	mov	r0, r4
	add	sp, #60
	pop	{r4, r5, r6, r7, pc}
.Ltmp294:
.LBB8_7:
	@DEBUG_VALUE: pk_parse_key_pkcs1_der:end <- $r6
	@DEBUG_VALUE: pk_parse_key_pkcs1_der:rsa <- $r5
	@DEBUG_VALUE: pk_parse_key_pkcs1_der:version <- $r0
	@DEBUG_VALUE: pk_parse_key_pkcs1_der:p <- [DW_OP_plus_uconst 48, DW_OP_deref] $sp
	@DEBUG_VALUE: pk_parse_key_pkcs1_der:p <- [DW_OP_plus_uconst 48, DW_OP_deref] $sp
	@DEBUG_VALUE: pk_parse_key_pkcs1_der:len <- [DW_OP_plus_uconst 52, DW_OP_deref] $sp
	.loc	9 0 1 is_stmt 0                 @ ../../../ThirdParty/mbedTLS/library/pkparse.c:0:1
	add	r0, sp, #48
.Ltmp295:
	add	r2, sp, #52
	movs	r3, #2
.Ltmp296:
	.loc	9 732 17 is_stmt 1              @ ../../../ThirdParty/mbedTLS/library/pkparse.c:732:17
	mov	r1, r6
	bl	mbedtls_asn1_get_tag
	mov	r7, r0
.Ltmp297:
	@DEBUG_VALUE: pk_parse_key_pkcs1_der:ret <- $r7
	.loc	9 733 69                        @ ../../../ThirdParty/mbedTLS/library/pkparse.c:733:69
	cmp	r0, #0
	beq	.LBB8_8
	b	.LBB8_24
.Ltmp298:
.LBB8_8:
	@DEBUG_VALUE: pk_parse_key_pkcs1_der:ret <- $r7
	@DEBUG_VALUE: pk_parse_key_pkcs1_der:end <- $r6
	@DEBUG_VALUE: pk_parse_key_pkcs1_der:rsa <- $r5
	@DEBUG_VALUE: pk_parse_key_pkcs1_der:p <- [DW_OP_plus_uconst 48, DW_OP_deref] $sp
	@DEBUG_VALUE: pk_parse_key_pkcs1_der:len <- [DW_OP_plus_uconst 52, DW_OP_deref] $sp
	.loc	9 734 53                        @ ../../../ThirdParty/mbedTLS/library/pkparse.c:734:53
	ldr	r2, [sp, #52]
.Ltmp299:
	@DEBUG_VALUE: pk_parse_key_pkcs1_der:len <- $r2
	.loc	9 734 50 is_stmt 0              @ ../../../ThirdParty/mbedTLS/library/pkparse.c:734:50
	ldr	r1, [sp, #48]
.Ltmp300:
	@DEBUG_VALUE: pk_parse_key_pkcs1_der:p <- $r1
	.loc	9 0 50                          @ ../../../ThirdParty/mbedTLS/library/pkparse.c:0:50
	movs	r3, #0
	.loc	9 734 21                        @ ../../../ThirdParty/mbedTLS/library/pkparse.c:734:21
	str	r3, [sp]
	str	r3, [sp, #4]
	str	r3, [sp, #8]
	str	r3, [sp, #12]
	str	r3, [sp, #16]
	str	r3, [sp, #20]
	str	r3, [sp, #24]
	mov	r0, r5
	str	r3, [sp, #32]                   @ 4-byte Spill
	bl	mbedtls_rsa_import_raw
.Ltmp301:
	mov	r7, r0
.Ltmp302:
	@DEBUG_VALUE: pk_parse_key_pkcs1_der:ret <- $r7
	.loc	9 732 9 is_stmt 1               @ ../../../ThirdParty/mbedTLS/library/pkparse.c:732:9
	cmp	r0, #0
	beq	.LBB8_9
	b	.LBB8_24
.Ltmp303:
.LBB8_9:
	@DEBUG_VALUE: pk_parse_key_pkcs1_der:ret <- $r7
	@DEBUG_VALUE: pk_parse_key_pkcs1_der:end <- $r6
	@DEBUG_VALUE: pk_parse_key_pkcs1_der:rsa <- $r5
	.loc	9 737 10                        @ ../../../ThirdParty/mbedTLS/library/pkparse.c:737:10
	ldr	r0, [sp, #52]
.Ltmp304:
	@DEBUG_VALUE: pk_parse_key_pkcs1_der:len <- $r0
	.loc	9 737 7 is_stmt 0               @ ../../../ThirdParty/mbedTLS/library/pkparse.c:737:7
	ldr	r1, [sp, #48]
.Ltmp305:
	@DEBUG_VALUE: pk_parse_key_pkcs1_der:p <- $r1
	adds	r0, r1, r0
.Ltmp306:
	@DEBUG_VALUE: pk_parse_key_pkcs1_der:p <- $r0
	str	r0, [sp, #48]
.Ltmp307:
	@DEBUG_VALUE: pk_parse_key_pkcs1_der:len <- [DW_OP_plus_uconst 52, DW_OP_deref] $sp
	@DEBUG_VALUE: pk_parse_key_pkcs1_der:p <- [DW_OP_plus_uconst 48, DW_OP_deref] $sp
	.loc	9 0 7                           @ ../../../ThirdParty/mbedTLS/library/pkparse.c:0:7
	add	r0, sp, #48
	add	r2, sp, #52
	movs	r3, #2
.Ltmp308:
	.loc	9 740 17 is_stmt 1              @ ../../../ThirdParty/mbedTLS/library/pkparse.c:740:17
	mov	r1, r6
	bl	mbedtls_asn1_get_tag
	mov	r7, r0
.Ltmp309:
	@DEBUG_VALUE: pk_parse_key_pkcs1_der:ret <- $r7
	.loc	9 741 69                        @ ../../../ThirdParty/mbedTLS/library/pkparse.c:741:69
	cmp	r0, #0
	beq	.LBB8_10
	b	.LBB8_24
.Ltmp310:
.LBB8_10:
	@DEBUG_VALUE: pk_parse_key_pkcs1_der:ret <- $r7
	@DEBUG_VALUE: pk_parse_key_pkcs1_der:end <- $r6
	@DEBUG_VALUE: pk_parse_key_pkcs1_der:rsa <- $r5
	@DEBUG_VALUE: pk_parse_key_pkcs1_der:p <- [DW_OP_plus_uconst 48, DW_OP_deref] $sp
	@DEBUG_VALUE: pk_parse_key_pkcs1_der:len <- [DW_OP_plus_uconst 52, DW_OP_deref] $sp
	.loc	9 743 54                        @ ../../../ThirdParty/mbedTLS/library/pkparse.c:743:54
	ldr	r0, [sp, #48]
.Ltmp311:
	@DEBUG_VALUE: pk_parse_key_pkcs1_der:p <- $r0
	.loc	9 743 57 is_stmt 0              @ ../../../ThirdParty/mbedTLS/library/pkparse.c:743:57
	ldr	r1, [sp, #52]
.Ltmp312:
	@DEBUG_VALUE: pk_parse_key_pkcs1_der:len <- $r1
	.loc	9 0 57                          @ ../../../ThirdParty/mbedTLS/library/pkparse.c:0:57
	ldr	r2, [sp, #32]                   @ 4-byte Reload
	.loc	9 742 21 is_stmt 1              @ ../../../ThirdParty/mbedTLS/library/pkparse.c:742:21
	str	r2, [sp]
	str	r2, [sp, #4]
	str	r2, [sp, #8]
	str	r2, [sp, #12]
	str	r2, [sp, #16]
	str	r0, [sp, #20]
	str	r1, [sp, #24]
	mov	r0, r5
.Ltmp313:
	mov	r1, r2
.Ltmp314:
	mov	r3, r2
	bl	mbedtls_rsa_import_raw
	mov	r7, r0
.Ltmp315:
	@DEBUG_VALUE: pk_parse_key_pkcs1_der:ret <- $r7
	.loc	9 740 9                         @ ../../../ThirdParty/mbedTLS/library/pkparse.c:740:9
	cmp	r0, #0
	beq	.LBB8_11
	b	.LBB8_24
.Ltmp316:
.LBB8_11:
	@DEBUG_VALUE: pk_parse_key_pkcs1_der:ret <- $r7
	@DEBUG_VALUE: pk_parse_key_pkcs1_der:end <- $r6
	@DEBUG_VALUE: pk_parse_key_pkcs1_der:rsa <- $r5
	.loc	9 745 10                        @ ../../../ThirdParty/mbedTLS/library/pkparse.c:745:10
	ldr	r0, [sp, #52]
.Ltmp317:
	@DEBUG_VALUE: pk_parse_key_pkcs1_der:len <- $r0
	.loc	9 745 7 is_stmt 0               @ ../../../ThirdParty/mbedTLS/library/pkparse.c:745:7
	ldr	r1, [sp, #48]
.Ltmp318:
	@DEBUG_VALUE: pk_parse_key_pkcs1_der:p <- $r1
	adds	r0, r1, r0
.Ltmp319:
	@DEBUG_VALUE: pk_parse_key_pkcs1_der:p <- $r0
	str	r0, [sp, #48]
.Ltmp320:
	@DEBUG_VALUE: pk_parse_key_pkcs1_der:len <- [DW_OP_plus_uconst 52, DW_OP_deref] $sp
	@DEBUG_VALUE: pk_parse_key_pkcs1_der:p <- [DW_OP_plus_uconst 48, DW_OP_deref] $sp
	.loc	9 0 7                           @ ../../../ThirdParty/mbedTLS/library/pkparse.c:0:7
	add	r0, sp, #48
	add	r2, sp, #52
	movs	r3, #2
.Ltmp321:
	.loc	9 748 17 is_stmt 1              @ ../../../ThirdParty/mbedTLS/library/pkparse.c:748:17
	mov	r1, r6
	bl	mbedtls_asn1_get_tag
	mov	r7, r0
.Ltmp322:
	@DEBUG_VALUE: pk_parse_key_pkcs1_der:ret <- $r7
	.loc	9 749 69                        @ ../../../ThirdParty/mbedTLS/library/pkparse.c:749:69
	cmp	r0, #0
	bne	.LBB8_24
.Ltmp323:
@ %bb.12:
	@DEBUG_VALUE: pk_parse_key_pkcs1_der:ret <- $r7
	@DEBUG_VALUE: pk_parse_key_pkcs1_der:end <- $r6
	@DEBUG_VALUE: pk_parse_key_pkcs1_der:rsa <- $r5
	@DEBUG_VALUE: pk_parse_key_pkcs1_der:p <- [DW_OP_plus_uconst 48, DW_OP_deref] $sp
	@DEBUG_VALUE: pk_parse_key_pkcs1_der:len <- [DW_OP_plus_uconst 52, DW_OP_deref] $sp
	.loc	9 751 45                        @ ../../../ThirdParty/mbedTLS/library/pkparse.c:751:45
	ldr	r0, [sp, #48]
.Ltmp324:
	@DEBUG_VALUE: pk_parse_key_pkcs1_der:p <- $r0
	.loc	9 751 48 is_stmt 0              @ ../../../ThirdParty/mbedTLS/library/pkparse.c:751:48
	ldr	r1, [sp, #52]
.Ltmp325:
	@DEBUG_VALUE: pk_parse_key_pkcs1_der:len <- $r1
	.loc	9 0 48                          @ ../../../ThirdParty/mbedTLS/library/pkparse.c:0:48
	ldr	r2, [sp, #32]                   @ 4-byte Reload
	.loc	9 750 21 is_stmt 1              @ ../../../ThirdParty/mbedTLS/library/pkparse.c:750:21
	str	r2, [sp]
	str	r2, [sp, #4]
	str	r2, [sp, #8]
	add	r3, sp, #12
	stm	r3!, {r0, r1, r2}
	str	r2, [sp, #24]
	mov	r0, r5
.Ltmp326:
	mov	r1, r2
.Ltmp327:
	mov	r3, r2
	bl	mbedtls_rsa_import_raw
	mov	r7, r0
.Ltmp328:
	@DEBUG_VALUE: pk_parse_key_pkcs1_der:ret <- $r7
	.loc	9 748 9                         @ ../../../ThirdParty/mbedTLS/library/pkparse.c:748:9
	cmp	r0, #0
	bne	.LBB8_24
.Ltmp329:
@ %bb.13:
	@DEBUG_VALUE: pk_parse_key_pkcs1_der:ret <- $r7
	@DEBUG_VALUE: pk_parse_key_pkcs1_der:end <- $r6
	@DEBUG_VALUE: pk_parse_key_pkcs1_der:rsa <- $r5
	.loc	9 753 10                        @ ../../../ThirdParty/mbedTLS/library/pkparse.c:753:10
	ldr	r0, [sp, #52]
.Ltmp330:
	@DEBUG_VALUE: pk_parse_key_pkcs1_der:len <- $r0
	.loc	9 753 7 is_stmt 0               @ ../../../ThirdParty/mbedTLS/library/pkparse.c:753:7
	ldr	r1, [sp, #48]
.Ltmp331:
	@DEBUG_VALUE: pk_parse_key_pkcs1_der:p <- $r1
	adds	r0, r1, r0
.Ltmp332:
	@DEBUG_VALUE: pk_parse_key_pkcs1_der:p <- $r0
	str	r0, [sp, #48]
.Ltmp333:
	@DEBUG_VALUE: pk_parse_key_pkcs1_der:len <- [DW_OP_plus_uconst 52, DW_OP_deref] $sp
	@DEBUG_VALUE: pk_parse_key_pkcs1_der:p <- [DW_OP_plus_uconst 48, DW_OP_deref] $sp
	.loc	9 0 7                           @ ../../../ThirdParty/mbedTLS/library/pkparse.c:0:7
	add	r0, sp, #48
	add	r2, sp, #52
	movs	r3, #2
.Ltmp334:
	.loc	9 756 17 is_stmt 1              @ ../../../ThirdParty/mbedTLS/library/pkparse.c:756:17
	mov	r1, r6
	bl	mbedtls_asn1_get_tag
	mov	r7, r0
.Ltmp335:
	@DEBUG_VALUE: pk_parse_key_pkcs1_der:ret <- $r7
	.loc	9 757 69                        @ ../../../ThirdParty/mbedTLS/library/pkparse.c:757:69
	cmp	r0, #0
	bne	.LBB8_24
.Ltmp336:
@ %bb.14:
	@DEBUG_VALUE: pk_parse_key_pkcs1_der:ret <- $r7
	@DEBUG_VALUE: pk_parse_key_pkcs1_der:end <- $r6
	@DEBUG_VALUE: pk_parse_key_pkcs1_der:rsa <- $r5
	@DEBUG_VALUE: pk_parse_key_pkcs1_der:p <- [DW_OP_plus_uconst 48, DW_OP_deref] $sp
	@DEBUG_VALUE: pk_parse_key_pkcs1_der:len <- [DW_OP_plus_uconst 52, DW_OP_deref] $sp
	.loc	9 758 59                        @ ../../../ThirdParty/mbedTLS/library/pkparse.c:758:59
	ldr	r3, [sp, #48]
.Ltmp337:
	@DEBUG_VALUE: pk_parse_key_pkcs1_der:p <- $r3
	.loc	9 758 62 is_stmt 0              @ ../../../ThirdParty/mbedTLS/library/pkparse.c:758:62
	ldr	r0, [sp, #52]
.Ltmp338:
	@DEBUG_VALUE: pk_parse_key_pkcs1_der:len <- $r0
	.loc	9 758 21                        @ ../../../ThirdParty/mbedTLS/library/pkparse.c:758:21
	str	r0, [sp]
	ldr	r1, [sp, #32]                   @ 4-byte Reload
	str	r1, [sp, #4]
	str	r1, [sp, #8]
	str	r1, [sp, #12]
	str	r1, [sp, #16]
	str	r1, [sp, #20]
	str	r1, [sp, #24]
	mov	r0, r5
.Ltmp339:
	mov	r2, r1
	bl	mbedtls_rsa_import_raw
.Ltmp340:
	mov	r7, r0
.Ltmp341:
	@DEBUG_VALUE: pk_parse_key_pkcs1_der:ret <- $r7
	.loc	9 756 9 is_stmt 1               @ ../../../ThirdParty/mbedTLS/library/pkparse.c:756:9
	cmp	r0, #0
	bne	.LBB8_24
.Ltmp342:
@ %bb.15:
	@DEBUG_VALUE: pk_parse_key_pkcs1_der:ret <- $r7
	@DEBUG_VALUE: pk_parse_key_pkcs1_der:end <- $r6
	@DEBUG_VALUE: pk_parse_key_pkcs1_der:rsa <- $r5
	.loc	9 761 10                        @ ../../../ThirdParty/mbedTLS/library/pkparse.c:761:10
	ldr	r0, [sp, #52]
.Ltmp343:
	@DEBUG_VALUE: pk_parse_key_pkcs1_der:len <- $r0
	.loc	9 761 7 is_stmt 0               @ ../../../ThirdParty/mbedTLS/library/pkparse.c:761:7
	ldr	r1, [sp, #48]
.Ltmp344:
	@DEBUG_VALUE: pk_parse_key_pkcs1_der:p <- $r1
	adds	r0, r1, r0
.Ltmp345:
	@DEBUG_VALUE: pk_parse_key_pkcs1_der:p <- $r0
	str	r0, [sp, #48]
.Ltmp346:
	@DEBUG_VALUE: pk_parse_key_pkcs1_der:len <- [DW_OP_plus_uconst 52, DW_OP_deref] $sp
	@DEBUG_VALUE: pk_parse_key_pkcs1_der:p <- [DW_OP_plus_uconst 48, DW_OP_deref] $sp
	.loc	9 0 7                           @ ../../../ThirdParty/mbedTLS/library/pkparse.c:0:7
	add	r0, sp, #48
	add	r2, sp, #52
	movs	r3, #2
.Ltmp347:
	.loc	9 764 17 is_stmt 1              @ ../../../ThirdParty/mbedTLS/library/pkparse.c:764:17
	mov	r1, r6
	bl	mbedtls_asn1_get_tag
	mov	r7, r0
.Ltmp348:
	@DEBUG_VALUE: pk_parse_key_pkcs1_der:ret <- $r7
	.loc	9 765 69                        @ ../../../ThirdParty/mbedTLS/library/pkparse.c:765:69
	cbnz	r0, .LBB8_24
.Ltmp349:
@ %bb.16:
	@DEBUG_VALUE: pk_parse_key_pkcs1_der:ret <- $r7
	@DEBUG_VALUE: pk_parse_key_pkcs1_der:end <- $r6
	@DEBUG_VALUE: pk_parse_key_pkcs1_der:rsa <- $r5
	@DEBUG_VALUE: pk_parse_key_pkcs1_der:p <- [DW_OP_plus_uconst 48, DW_OP_deref] $sp
	@DEBUG_VALUE: pk_parse_key_pkcs1_der:len <- [DW_OP_plus_uconst 52, DW_OP_deref] $sp
	.loc	9 766 68                        @ ../../../ThirdParty/mbedTLS/library/pkparse.c:766:68
	ldr	r0, [sp, #48]
.Ltmp350:
	@DEBUG_VALUE: pk_parse_key_pkcs1_der:p <- $r0
	.loc	9 766 71 is_stmt 0              @ ../../../ThirdParty/mbedTLS/library/pkparse.c:766:71
	ldr	r1, [sp, #52]
.Ltmp351:
	@DEBUG_VALUE: pk_parse_key_pkcs1_der:len <- $r1
	.loc	9 0 71                          @ ../../../ThirdParty/mbedTLS/library/pkparse.c:0:71
	ldr	r2, [sp, #32]                   @ 4-byte Reload
	.loc	9 766 21                        @ ../../../ThirdParty/mbedTLS/library/pkparse.c:766:21
	str	r2, [sp]
	add	r3, sp, #4
	stm	r3!, {r0, r1, r2}
	str	r2, [sp, #16]
	str	r2, [sp, #20]
	str	r2, [sp, #24]
	mov	r0, r5
.Ltmp352:
	mov	r1, r2
.Ltmp353:
	mov	r3, r2
	bl	mbedtls_rsa_import_raw
	mov	r7, r0
.Ltmp354:
	@DEBUG_VALUE: pk_parse_key_pkcs1_der:ret <- $r7
	.loc	9 764 9 is_stmt 1               @ ../../../ThirdParty/mbedTLS/library/pkparse.c:764:9
	cbnz	r0, .LBB8_24
.Ltmp355:
@ %bb.17:
	@DEBUG_VALUE: pk_parse_key_pkcs1_der:ret <- $r7
	@DEBUG_VALUE: pk_parse_key_pkcs1_der:end <- $r6
	@DEBUG_VALUE: pk_parse_key_pkcs1_der:rsa <- $r5
	.loc	9 769 10                        @ ../../../ThirdParty/mbedTLS/library/pkparse.c:769:10
	ldr	r0, [sp, #52]
.Ltmp356:
	@DEBUG_VALUE: pk_parse_key_pkcs1_der:len <- $r0
	.loc	9 769 7 is_stmt 0               @ ../../../ThirdParty/mbedTLS/library/pkparse.c:769:7
	ldr	r1, [sp, #48]
.Ltmp357:
	@DEBUG_VALUE: pk_parse_key_pkcs1_der:p <- $r1
	adds	r0, r1, r0
.Ltmp358:
	@DEBUG_VALUE: pk_parse_key_pkcs1_der:p <- $r0
	str	r0, [sp, #48]
.Ltmp359:
	.loc	9 772 17 is_stmt 1              @ ../../../ThirdParty/mbedTLS/library/pkparse.c:772:17
	mov	r0, r5
.Ltmp360:
	bl	mbedtls_rsa_complete
	mov	r7, r0
.Ltmp361:
	@DEBUG_VALUE: pk_parse_key_pkcs1_der:ret <- $r7
	.loc	9 772 9 is_stmt 0               @ ../../../ThirdParty/mbedTLS/library/pkparse.c:772:9
	cbnz	r0, .LBB8_24
.Ltmp362:
@ %bb.18:
	@DEBUG_VALUE: pk_parse_key_pkcs1_der:ret <- $r7
	@DEBUG_VALUE: pk_parse_key_pkcs1_der:end <- $r6
	@DEBUG_VALUE: pk_parse_key_pkcs1_der:rsa <- $r5
	@DEBUG_VALUE: pk_parse_key_pkcs1_der:p <- [DW_OP_plus_uconst 48, DW_OP_deref] $sp
	.loc	9 0 9                           @ ../../../ThirdParty/mbedTLS/library/pkparse.c:0:9
	add	r0, sp, #48
	add	r2, sp, #36
.Ltmp363:
	.loc	9 776 17 is_stmt 1              @ ../../../ThirdParty/mbedTLS/library/pkparse.c:776:17
	mov	r1, r6
	bl	mbedtls_asn1_get_mpi
	mov	r7, r0
.Ltmp364:
	@DEBUG_VALUE: pk_parse_key_pkcs1_der:ret <- $r7
	.loc	9 776 60 is_stmt 0              @ ../../../ThirdParty/mbedTLS/library/pkparse.c:776:60
	cbnz	r0, .LBB8_24
.Ltmp365:
@ %bb.19:
	@DEBUG_VALUE: pk_parse_key_pkcs1_der:ret <- $r7
	@DEBUG_VALUE: pk_parse_key_pkcs1_der:end <- $r6
	@DEBUG_VALUE: pk_parse_key_pkcs1_der:rsa <- $r5
	@DEBUG_VALUE: pk_parse_key_pkcs1_der:p <- [DW_OP_plus_uconst 48, DW_OP_deref] $sp
	@DEBUG_VALUE: pk_parse_key_pkcs1_der:p <- [DW_OP_plus_uconst 48, DW_OP_deref] $sp
	.loc	9 0 60                          @ ../../../ThirdParty/mbedTLS/library/pkparse.c:0:60
	add	r0, sp, #48
	add	r2, sp, #36
	.loc	9 777 21 is_stmt 1              @ ../../../ThirdParty/mbedTLS/library/pkparse.c:777:21
	mov	r1, r6
	bl	mbedtls_asn1_get_mpi
	mov	r7, r0
.Ltmp366:
	@DEBUG_VALUE: pk_parse_key_pkcs1_der:ret <- $r7
	.loc	9 777 64 is_stmt 0              @ ../../../ThirdParty/mbedTLS/library/pkparse.c:777:64
	cbnz	r0, .LBB8_24
.Ltmp367:
@ %bb.20:
	@DEBUG_VALUE: pk_parse_key_pkcs1_der:ret <- $r7
	@DEBUG_VALUE: pk_parse_key_pkcs1_der:end <- $r6
	@DEBUG_VALUE: pk_parse_key_pkcs1_der:rsa <- $r5
	@DEBUG_VALUE: pk_parse_key_pkcs1_der:p <- [DW_OP_plus_uconst 48, DW_OP_deref] $sp
	@DEBUG_VALUE: pk_parse_key_pkcs1_der:p <- [DW_OP_plus_uconst 48, DW_OP_deref] $sp
	.loc	9 0 64                          @ ../../../ThirdParty/mbedTLS/library/pkparse.c:0:64
	add	r0, sp, #48
	add	r2, sp, #36
	.loc	9 778 21 is_stmt 1              @ ../../../ThirdParty/mbedTLS/library/pkparse.c:778:21
	mov	r1, r6
	bl	mbedtls_asn1_get_mpi
	mov	r7, r0
.Ltmp368:
	@DEBUG_VALUE: pk_parse_key_pkcs1_der:ret <- $r7
	.loc	9 776 9                         @ ../../../ThirdParty/mbedTLS/library/pkparse.c:776:9
	cbnz	r0, .LBB8_24
.Ltmp369:
@ %bb.21:
	@DEBUG_VALUE: pk_parse_key_pkcs1_der:ret <- $r7
	@DEBUG_VALUE: pk_parse_key_pkcs1_der:end <- $r6
	@DEBUG_VALUE: pk_parse_key_pkcs1_der:rsa <- $r5
	@DEBUG_VALUE: pk_parse_key_pkcs1_der:p <- [DW_OP_plus_uconst 48, DW_OP_deref] $sp
	.loc	9 781 9                         @ ../../../ThirdParty/mbedTLS/library/pkparse.c:781:9
	ldr	r0, [sp, #48]
.Ltmp370:
	@DEBUG_VALUE: pk_parse_key_pkcs1_der:p <- $r0
	.loc	9 781 9 is_stmt 0               @ ../../../ThirdParty/mbedTLS/library/pkparse.c:781:9
	cmp	r0, r6
	beq	.LBB8_23
.Ltmp371:
@ %bb.22:
	@DEBUG_VALUE: pk_parse_key_pkcs1_der:ret <- $r7
	@DEBUG_VALUE: pk_parse_key_pkcs1_der:end <- $r6
	@DEBUG_VALUE: pk_parse_key_pkcs1_der:rsa <- $r5
	@DEBUG_VALUE: pk_parse_key_pkcs1_der:p <- $r0
	.loc	9 0 9                           @ ../../../ThirdParty/mbedTLS/library/pkparse.c:0:9
	mov	r0, r4
.Ltmp372:
	subs	r0, #102
	str	r0, [sp, #32]                   @ 4-byte Spill
.Ltmp373:
.LBB8_23:
	@DEBUG_VALUE: pk_parse_key_pkcs1_der:ret <- $r7
	@DEBUG_VALUE: pk_parse_key_pkcs1_der:end <- $r6
	@DEBUG_VALUE: pk_parse_key_pkcs1_der:rsa <- $r5
	ldr	r7, [sp, #32]                   @ 4-byte Reload
.Ltmp374:
.LBB8_24:
	@DEBUG_VALUE: pk_parse_key_pkcs1_der:end <- $r6
	@DEBUG_VALUE: pk_parse_key_pkcs1_der:rsa <- $r5
	@DEBUG_VALUE: pk_parse_key_pkcs1_der:ret <- $r7
	@DEBUG_LABEL: pk_parse_key_pkcs1_der:cleanup
	add	r0, sp, #36
	.loc	9 789 5 is_stmt 1               @ ../../../ThirdParty/mbedTLS/library/pkparse.c:789:5
	bl	mbedtls_mpi_free
	.loc	9 791 9                         @ ../../../ThirdParty/mbedTLS/library/pkparse.c:791:9
	cbz	r7, .LBB8_27
.Ltmp375:
@ %bb.25:
	@DEBUG_VALUE: pk_parse_key_pkcs1_der:ret <- $r7
	@DEBUG_VALUE: pk_parse_key_pkcs1_der:end <- $r6
	@DEBUG_VALUE: pk_parse_key_pkcs1_der:rsa <- $r5
	.loc	9 799 9                         @ ../../../ThirdParty/mbedTLS/library/pkparse.c:799:9
	mov	r0, r5
	bl	mbedtls_rsa_free
	.loc	9 794 13                        @ ../../../ThirdParty/mbedTLS/library/pkparse.c:794:13
	lsls	r0, r7, #16
	lsrs	r0, r0, #23
	beq	.LBB8_26
	b	.LBB8_6
.Ltmp376:
.LBB8_26:
	@DEBUG_VALUE: pk_parse_key_pkcs1_der:ret <- $r7
	@DEBUG_VALUE: pk_parse_key_pkcs1_der:end <- $r6
	@DEBUG_VALUE: pk_parse_key_pkcs1_der:rsa <- $r5
	.loc	9 0 13 is_stmt 0                @ ../../../ThirdParty/mbedTLS/library/pkparse.c:0:13
	adds	r4, r7, r4
.Ltmp377:
	@DEBUG_VALUE: pk_parse_key_pkcs1_der:ret <- $r4
	b	.LBB8_6
.Ltmp378:
.LBB8_27:
	@DEBUG_VALUE: pk_parse_key_pkcs1_der:ret <- $r7
	@DEBUG_VALUE: pk_parse_key_pkcs1_der:end <- $r6
	@DEBUG_VALUE: pk_parse_key_pkcs1_der:rsa <- $r5
	movs	r4, #0
	b	.LBB8_6
.Ltmp379:
	.p2align	2
@ %bb.28:
__arm_cp.8_0:
	.long	4294951680                      @ 0xffffc300
.Lcpi_end18:
	.size	__arm_cp.8_0, .Lcpi_end18-__arm_cp.8_0
.Lfunc_end8:
	.size	pk_parse_key_pkcs1_der, .Lfunc_end8-pk_parse_key_pkcs1_der
	.cfi_endproc
	.cantunwind
	.fnend
                                        @ -- End function
	.section	.text.pk_parse_key_sec1_der,"ax",%progbits
	.p2align	2                               @ -- Begin function pk_parse_key_sec1_der
	.type	pk_parse_key_sec1_der,%function
	.code	16                              @ @pk_parse_key_sec1_der
	.thumb_func
pk_parse_key_sec1_der:
.Lfunc_begin9:
	.loc	9 813 0 is_stmt 1               @ ../../../ThirdParty/mbedTLS/library/pkparse.c:813:0
	.fnstart
	.cfi_startproc
@ %bb.0:
	@DEBUG_VALUE: pk_parse_key_sec1_der:eck <- $r0
	@DEBUG_VALUE: pk_parse_key_sec1_der:key <- $r1
	@DEBUG_VALUE: pk_parse_key_sec1_der:keylen <- $r2
	.save	{r4, r5, r6, r7, lr}
	push	{r4, r5, r6, r7, lr}
	.cfi_def_cfa_offset 20
	.cfi_offset lr, -4
	.cfi_offset r7, -8
	.cfi_offset r6, -12
	.cfi_offset r5, -16
	.cfi_offset r4, -20
	.pad	#36
	sub	sp, #36
	.cfi_def_cfa_offset 56
	mov	r4, r0
.Ltmp380:
	@DEBUG_VALUE: pk_parse_key_sec1_der:p <- $r1
	@DEBUG_VALUE: pk_parse_key_sec1_der:keylen <- $r2
	@DEBUG_VALUE: pk_parse_key_sec1_der:key <- $r1
	@DEBUG_VALUE: pk_parse_key_sec1_der:eck <- $r4
	.loc	9 818 20 prologue_end           @ ../../../ThirdParty/mbedTLS/library/pkparse.c:818:20
	str	r1, [sp, #12]
	.loc	9 819 28                        @ ../../../ThirdParty/mbedTLS/library/pkparse.c:819:28
	adds	r1, r1, r2
.Ltmp381:
	@DEBUG_VALUE: pk_parse_key_sec1_der:key <- [DW_OP_LLVM_entry_value 1] $r1
	@DEBUG_VALUE: pk_parse_key_sec1_der:len <- [DW_OP_plus_uconst 28, DW_OP_deref] $sp
	@DEBUG_VALUE: pk_parse_key_sec1_der:end <- $r1
	@DEBUG_VALUE: pk_parse_key_sec1_der:p <- [DW_OP_plus_uconst 12, DW_OP_deref] $sp
	.loc	9 0 28 is_stmt 0                @ ../../../ThirdParty/mbedTLS/library/pkparse.c:0:28
	add	r0, sp, #12
	add	r2, sp, #28
.Ltmp382:
	@DEBUG_VALUE: pk_parse_key_sec1_der:keylen <- [DW_OP_LLVM_entry_value 1] $r2
	movs	r3, #48
.Ltmp383:
	.loc	9 832 17 is_stmt 1              @ ../../../ThirdParty/mbedTLS/library/pkparse.c:832:17
	bl	mbedtls_asn1_get_tag
.Ltmp384:
	@DEBUG_VALUE: pk_parse_key_sec1_der:ret <- $r0
	.loc	9 832 9 is_stmt 0               @ ../../../ThirdParty/mbedTLS/library/pkparse.c:832:9
	cbz	r0, .LBB9_2
.Ltmp385:
@ %bb.1:
	@DEBUG_VALUE: pk_parse_key_sec1_der:eck <- $r4
	@DEBUG_VALUE: pk_parse_key_sec1_der:ret <- $r0
	@DEBUG_VALUE: pk_parse_key_sec1_der:p <- [DW_OP_plus_uconst 12, DW_OP_deref] $sp
	@DEBUG_VALUE: pk_parse_key_sec1_der:len <- [DW_OP_plus_uconst 28, DW_OP_deref] $sp
	@DEBUG_VALUE: pk_parse_key_sec1_der:keylen <- [DW_OP_LLVM_entry_value 1] $r2
	@DEBUG_VALUE: pk_parse_key_sec1_der:key <- [DW_OP_LLVM_entry_value 1] $r1
	.loc	9 835 51 is_stmt 1              @ ../../../ThirdParty/mbedTLS/library/pkparse.c:835:51
	movw	r1, #15616
	subs	r7, r0, r1
	.loc	9 835 9 is_stmt 0               @ ../../../ThirdParty/mbedTLS/library/pkparse.c:835:9
	b	.LBB9_8
.Ltmp386:
.LBB9_2:
	@DEBUG_VALUE: pk_parse_key_sec1_der:eck <- $r4
	@DEBUG_VALUE: pk_parse_key_sec1_der:ret <- $r0
	@DEBUG_VALUE: pk_parse_key_sec1_der:p <- [DW_OP_plus_uconst 12, DW_OP_deref] $sp
	@DEBUG_VALUE: pk_parse_key_sec1_der:len <- [DW_OP_plus_uconst 28, DW_OP_deref] $sp
	@DEBUG_VALUE: pk_parse_key_sec1_der:keylen <- [DW_OP_LLVM_entry_value 1] $r2
	@DEBUG_VALUE: pk_parse_key_sec1_der:key <- [DW_OP_LLVM_entry_value 1] $r1
	.loc	9 838 15 is_stmt 1              @ ../../../ThirdParty/mbedTLS/library/pkparse.c:838:15
	ldr	r0, [sp, #28]
.Ltmp387:
	@DEBUG_VALUE: pk_parse_key_sec1_der:len <- $r0
	.loc	9 838 11 is_stmt 0              @ ../../../ThirdParty/mbedTLS/library/pkparse.c:838:11
	ldr	r1, [sp, #12]
.Ltmp388:
	@DEBUG_VALUE: pk_parse_key_sec1_der:p <- $r1
	.loc	9 838 13                        @ ../../../ThirdParty/mbedTLS/library/pkparse.c:838:13
	adds	r6, r1, r0
.Ltmp389:
	@DEBUG_VALUE: pk_parse_key_sec1_der:version <- [DW_OP_plus_uconst 32, DW_OP_deref] $sp
	@DEBUG_VALUE: pk_parse_key_sec1_der:end <- $r6
	@DEBUG_VALUE: pk_parse_key_sec1_der:p <- [DW_OP_plus_uconst 12, DW_OP_deref] $sp
	.loc	9 0 13                          @ ../../../ThirdParty/mbedTLS/library/pkparse.c:0:13
	add	r0, sp, #12
.Ltmp390:
	add	r2, sp, #32
.Ltmp391:
	.loc	9 840 17 is_stmt 1              @ ../../../ThirdParty/mbedTLS/library/pkparse.c:840:17
	mov	r1, r6
	bl	mbedtls_asn1_get_int
.Ltmp392:
	@DEBUG_VALUE: pk_parse_key_sec1_der:ret <- $r0
	.loc	9 0 17 is_stmt 0                @ ../../../ThirdParty/mbedTLS/library/pkparse.c:0:17
	ldr	r5, __arm_cp.9_0
.Ltmp393:
	.loc	9 840 9                         @ ../../../ThirdParty/mbedTLS/library/pkparse.c:840:9
	cbz	r0, .LBB9_4
.Ltmp394:
@ %bb.3:
	@DEBUG_VALUE: pk_parse_key_sec1_der:end <- $r6
	@DEBUG_VALUE: pk_parse_key_sec1_der:eck <- $r4
	@DEBUG_VALUE: pk_parse_key_sec1_der:ret <- $r0
	@DEBUG_VALUE: pk_parse_key_sec1_der:version <- [DW_OP_plus_uconst 32, DW_OP_deref] $sp
	@DEBUG_VALUE: pk_parse_key_sec1_der:p <- [DW_OP_plus_uconst 12, DW_OP_deref] $sp
	@DEBUG_VALUE: pk_parse_key_sec1_der:keylen <- [DW_OP_LLVM_entry_value 1] $r2
	@DEBUG_VALUE: pk_parse_key_sec1_der:key <- [DW_OP_LLVM_entry_value 1] $r1
	.loc	9 841 51 is_stmt 1              @ ../../../ThirdParty/mbedTLS/library/pkparse.c:841:51
	adds	r7, r0, r5
	.loc	9 841 9 is_stmt 0               @ ../../../ThirdParty/mbedTLS/library/pkparse.c:841:9
	b	.LBB9_8
.Ltmp395:
.LBB9_4:
	@DEBUG_VALUE: pk_parse_key_sec1_der:end <- $r6
	@DEBUG_VALUE: pk_parse_key_sec1_der:eck <- $r4
	@DEBUG_VALUE: pk_parse_key_sec1_der:ret <- $r0
	@DEBUG_VALUE: pk_parse_key_sec1_der:version <- [DW_OP_plus_uconst 32, DW_OP_deref] $sp
	@DEBUG_VALUE: pk_parse_key_sec1_der:p <- [DW_OP_plus_uconst 12, DW_OP_deref] $sp
	@DEBUG_VALUE: pk_parse_key_sec1_der:keylen <- [DW_OP_LLVM_entry_value 1] $r2
	@DEBUG_VALUE: pk_parse_key_sec1_der:key <- [DW_OP_LLVM_entry_value 1] $r1
	.loc	9 843 9 is_stmt 1               @ ../../../ThirdParty/mbedTLS/library/pkparse.c:843:9
	ldr	r0, [sp, #32]
.Ltmp396:
	@DEBUG_VALUE: pk_parse_key_sec1_der:version <- $r0
	.loc	9 843 9 is_stmt 0               @ ../../../ThirdParty/mbedTLS/library/pkparse.c:843:9
	cmp	r0, #1
	bne	.LBB9_7
.Ltmp397:
@ %bb.5:
	@DEBUG_VALUE: pk_parse_key_sec1_der:end <- $r6
	@DEBUG_VALUE: pk_parse_key_sec1_der:eck <- $r4
	@DEBUG_VALUE: pk_parse_key_sec1_der:version <- $r0
	@DEBUG_VALUE: pk_parse_key_sec1_der:p <- [DW_OP_plus_uconst 12, DW_OP_deref] $sp
	@DEBUG_VALUE: pk_parse_key_sec1_der:keylen <- [DW_OP_LLVM_entry_value 1] $r2
	@DEBUG_VALUE: pk_parse_key_sec1_der:key <- [DW_OP_LLVM_entry_value 1] $r1
	@DEBUG_VALUE: pk_parse_key_sec1_der:p <- [DW_OP_plus_uconst 12, DW_OP_deref] $sp
	@DEBUG_VALUE: pk_parse_key_sec1_der:len <- [DW_OP_plus_uconst 28, DW_OP_deref] $sp
	.loc	9 0 9                           @ ../../../ThirdParty/mbedTLS/library/pkparse.c:0:9
	add	r0, sp, #12
.Ltmp398:
	add	r2, sp, #28
	movs	r3, #4
.Ltmp399:
	.loc	9 846 17 is_stmt 1              @ ../../../ThirdParty/mbedTLS/library/pkparse.c:846:17
	mov	r1, r6
	bl	mbedtls_asn1_get_tag
.Ltmp400:
	@DEBUG_VALUE: pk_parse_key_sec1_der:ret <- $r0
	.loc	9 846 9 is_stmt 0               @ ../../../ThirdParty/mbedTLS/library/pkparse.c:846:9
	cbz	r0, .LBB9_9
.Ltmp401:
@ %bb.6:
	@DEBUG_VALUE: pk_parse_key_sec1_der:end <- $r6
	@DEBUG_VALUE: pk_parse_key_sec1_der:eck <- $r4
	@DEBUG_VALUE: pk_parse_key_sec1_der:ret <- $r0
	@DEBUG_VALUE: pk_parse_key_sec1_der:p <- [DW_OP_plus_uconst 12, DW_OP_deref] $sp
	@DEBUG_VALUE: pk_parse_key_sec1_der:len <- [DW_OP_plus_uconst 28, DW_OP_deref] $sp
	@DEBUG_VALUE: pk_parse_key_sec1_der:keylen <- [DW_OP_LLVM_entry_value 1] $r2
	@DEBUG_VALUE: pk_parse_key_sec1_der:key <- [DW_OP_LLVM_entry_value 1] $r1
	.loc	9 847 51 is_stmt 1              @ ../../../ThirdParty/mbedTLS/library/pkparse.c:847:51
	adds	r7, r0, r5
	.loc	9 847 9 is_stmt 0               @ ../../../ThirdParty/mbedTLS/library/pkparse.c:847:9
	b	.LBB9_8
.Ltmp402:
.LBB9_7:
	@DEBUG_VALUE: pk_parse_key_sec1_der:end <- $r6
	@DEBUG_VALUE: pk_parse_key_sec1_der:eck <- $r4
	@DEBUG_VALUE: pk_parse_key_sec1_der:version <- $r0
	@DEBUG_VALUE: pk_parse_key_sec1_der:p <- [DW_OP_plus_uconst 12, DW_OP_deref] $sp
	@DEBUG_VALUE: pk_parse_key_sec1_der:keylen <- [DW_OP_LLVM_entry_value 1] $r2
	@DEBUG_VALUE: pk_parse_key_sec1_der:key <- [DW_OP_LLVM_entry_value 1] $r1
	.loc	9 0 9                           @ ../../../ThirdParty/mbedTLS/library/pkparse.c:0:9
	subs	r5, #128
	mov	r7, r5
.Ltmp403:
.LBB9_8:
	@DEBUG_VALUE: pk_parse_key_sec1_der:eck <- $r4
	@DEBUG_VALUE: pk_parse_key_sec1_der:keylen <- [DW_OP_LLVM_entry_value 1] $r2
	@DEBUG_VALUE: pk_parse_key_sec1_der:key <- [DW_OP_LLVM_entry_value 1] $r1
	.loc	9 932 1 is_stmt 1               @ ../../../ThirdParty/mbedTLS/library/pkparse.c:932:1
	mov	r0, r7
	add	sp, #36
	pop	{r4, r5, r6, r7, pc}
.Ltmp404:
.LBB9_9:
	@DEBUG_VALUE: pk_parse_key_sec1_der:end <- $r6
	@DEBUG_VALUE: pk_parse_key_sec1_der:eck <- $r4
	@DEBUG_VALUE: pk_parse_key_sec1_der:ret <- $r0
	@DEBUG_VALUE: pk_parse_key_sec1_der:p <- [DW_OP_plus_uconst 12, DW_OP_deref] $sp
	@DEBUG_VALUE: pk_parse_key_sec1_der:len <- [DW_OP_plus_uconst 28, DW_OP_deref] $sp
	@DEBUG_VALUE: pk_parse_key_sec1_der:keylen <- [DW_OP_LLVM_entry_value 1] $r2
	@DEBUG_VALUE: pk_parse_key_sec1_der:key <- [DW_OP_LLVM_entry_value 1] $r1
	.loc	9 849 54                        @ ../../../ThirdParty/mbedTLS/library/pkparse.c:849:54
	ldr	r2, [sp, #28]
.Ltmp405:
	@DEBUG_VALUE: pk_parse_key_sec1_der:len <- $r2
	.loc	9 849 51 is_stmt 0              @ ../../../ThirdParty/mbedTLS/library/pkparse.c:849:51
	ldr	r1, [sp, #12]
.Ltmp406:
	@DEBUG_VALUE: pk_parse_key_sec1_der:p <- $r1
	.loc	9 849 48                        @ ../../../ThirdParty/mbedTLS/library/pkparse.c:849:48
	mov	r7, r4
	adds	r7, #124
	.loc	9 849 17                        @ ../../../ThirdParty/mbedTLS/library/pkparse.c:849:17
	mov	r0, r7
.Ltmp407:
	bl	mbedtls_mpi_read_binary
.Ltmp408:
	@DEBUG_VALUE: pk_parse_key_sec1_der:ret <- $r0
	.loc	9 849 9                         @ ../../../ThirdParty/mbedTLS/library/pkparse.c:849:9
	cbz	r0, .LBB9_11
.Ltmp409:
@ %bb.10:
	@DEBUG_VALUE: pk_parse_key_sec1_der:end <- $r6
	@DEBUG_VALUE: pk_parse_key_sec1_der:eck <- $r4
	@DEBUG_VALUE: pk_parse_key_sec1_der:ret <- $r0
	@DEBUG_VALUE: pk_parse_key_sec1_der:keylen <- [DW_OP_LLVM_entry_value 1] $r2
	@DEBUG_VALUE: pk_parse_key_sec1_der:key <- [DW_OP_LLVM_entry_value 1] $r1
	.loc	9 0 9                           @ ../../../ThirdParty/mbedTLS/library/pkparse.c:0:9
	mov	r6, r0
.Ltmp410:
	@DEBUG_VALUE: pk_parse_key_sec1_der:ret <- $r6
	.loc	9 851 9 is_stmt 1               @ ../../../ThirdParty/mbedTLS/library/pkparse.c:851:9
	mov	r0, r4
	bl	mbedtls_ecp_keypair_free
	.loc	9 852 51                        @ ../../../ThirdParty/mbedTLS/library/pkparse.c:852:51
	adds	r7, r6, r5
	.loc	9 852 9 is_stmt 0               @ ../../../ThirdParty/mbedTLS/library/pkparse.c:852:9
	b	.LBB9_8
.Ltmp411:
.LBB9_11:
	@DEBUG_VALUE: pk_parse_key_sec1_der:end <- $r6
	@DEBUG_VALUE: pk_parse_key_sec1_der:eck <- $r4
	@DEBUG_VALUE: pk_parse_key_sec1_der:ret <- $r0
	@DEBUG_VALUE: pk_parse_key_sec1_der:keylen <- [DW_OP_LLVM_entry_value 1] $r2
	@DEBUG_VALUE: pk_parse_key_sec1_der:key <- [DW_OP_LLVM_entry_value 1] $r1
	.loc	9 0 9                           @ ../../../ThirdParty/mbedTLS/library/pkparse.c:0:9
	str	r7, [sp, #8]                    @ 4-byte Spill
	.loc	9 855 10 is_stmt 1              @ ../../../ThirdParty/mbedTLS/library/pkparse.c:855:10
	ldr	r0, [sp, #28]
.Ltmp412:
	@DEBUG_VALUE: pk_parse_key_sec1_der:len <- $r0
	.loc	9 855 7 is_stmt 0               @ ../../../ThirdParty/mbedTLS/library/pkparse.c:855:7
	ldr	r1, [sp, #12]
.Ltmp413:
	@DEBUG_VALUE: pk_parse_key_sec1_der:p <- $r1
	adds	r0, r1, r0
.Ltmp414:
	@DEBUG_VALUE: pk_parse_key_sec1_der:p <- $r0
	str	r0, [sp, #12]
.Ltmp415:
	@DEBUG_VALUE: pk_parse_key_sec1_der:pubkey_done <- 0
	.loc	9 858 9 is_stmt 1               @ ../../../ThirdParty/mbedTLS/library/pkparse.c:858:9
	cmp	r0, r6
	beq	.LBB9_17
.Ltmp416:
@ %bb.12:
	@DEBUG_VALUE: pk_parse_key_sec1_der:end <- $r6
	@DEBUG_VALUE: pk_parse_key_sec1_der:eck <- $r4
	@DEBUG_VALUE: pk_parse_key_sec1_der:p <- $r0
	@DEBUG_VALUE: pk_parse_key_sec1_der:pubkey_done <- 0
	@DEBUG_VALUE: pk_parse_key_sec1_der:keylen <- [DW_OP_LLVM_entry_value 1] $r2
	@DEBUG_VALUE: pk_parse_key_sec1_der:key <- [DW_OP_LLVM_entry_value 1] $r1
	@DEBUG_VALUE: pk_parse_key_sec1_der:p <- [DW_OP_plus_uconst 12, DW_OP_deref] $sp
	@DEBUG_VALUE: pk_parse_key_sec1_der:len <- [DW_OP_plus_uconst 28, DW_OP_deref] $sp
	.loc	9 0 9 is_stmt 0                 @ ../../../ThirdParty/mbedTLS/library/pkparse.c:0:9
	add	r0, sp, #12
	add	r2, sp, #28
	movs	r3, #160
.Ltmp417:
	.loc	9 863 21 is_stmt 1              @ ../../../ThirdParty/mbedTLS/library/pkparse.c:863:21
	mov	r1, r6
	bl	mbedtls_asn1_get_tag
	mov	r7, r0
.Ltmp418:
	@DEBUG_VALUE: pk_parse_key_sec1_der:ret <- $r7
	.loc	9 863 13 is_stmt 0              @ ../../../ThirdParty/mbedTLS/library/pkparse.c:863:13
	adds	r0, #98
	beq	.LBB9_17
.Ltmp419:
@ %bb.13:
	@DEBUG_VALUE: pk_parse_key_sec1_der:ret <- $r7
	@DEBUG_VALUE: pk_parse_key_sec1_der:end <- $r6
	@DEBUG_VALUE: pk_parse_key_sec1_der:eck <- $r4
	@DEBUG_VALUE: pk_parse_key_sec1_der:p <- [DW_OP_plus_uconst 12, DW_OP_deref] $sp
	@DEBUG_VALUE: pk_parse_key_sec1_der:len <- [DW_OP_plus_uconst 28, DW_OP_deref] $sp
	@DEBUG_VALUE: pk_parse_key_sec1_der:pubkey_done <- 0
	@DEBUG_VALUE: pk_parse_key_sec1_der:keylen <- [DW_OP_LLVM_entry_value 1] $r2
	@DEBUG_VALUE: pk_parse_key_sec1_der:key <- [DW_OP_LLVM_entry_value 1] $r1
	cbnz	r7, .LBB9_22
.Ltmp420:
@ %bb.14:
	@DEBUG_VALUE: pk_parse_key_sec1_der:ret <- $r7
	@DEBUG_VALUE: pk_parse_key_sec1_der:end <- $r6
	@DEBUG_VALUE: pk_parse_key_sec1_der:eck <- $r4
	@DEBUG_VALUE: pk_parse_key_sec1_der:p <- [DW_OP_plus_uconst 12, DW_OP_deref] $sp
	@DEBUG_VALUE: pk_parse_key_sec1_der:len <- [DW_OP_plus_uconst 28, DW_OP_deref] $sp
	@DEBUG_VALUE: pk_parse_key_sec1_der:pubkey_done <- 0
	@DEBUG_VALUE: pk_parse_key_sec1_der:keylen <- [DW_OP_LLVM_entry_value 1] $r2
	@DEBUG_VALUE: pk_parse_key_sec1_der:key <- [DW_OP_LLVM_entry_value 1] $r1
	.loc	9 866 50 is_stmt 1              @ ../../../ThirdParty/mbedTLS/library/pkparse.c:866:50
	ldr	r0, [sp, #28]
.Ltmp421:
	@DEBUG_VALUE: pk_parse_key_sec1_der:len <- $r0
	.loc	9 866 46 is_stmt 0              @ ../../../ThirdParty/mbedTLS/library/pkparse.c:866:46
	ldr	r1, [sp, #12]
.Ltmp422:
	@DEBUG_VALUE: pk_parse_key_sec1_der:p <- $r1
	.loc	9 866 48                        @ ../../../ThirdParty/mbedTLS/library/pkparse.c:866:48
	adds	r1, r1, r0
.Ltmp423:
	@DEBUG_VALUE: pk_parse_key_sec1_der:p <- [DW_OP_plus_uconst 12, DW_OP_deref] $sp
	.loc	9 0 48                          @ ../../../ThirdParty/mbedTLS/library/pkparse.c:0:48
	add	r0, sp, #12
.Ltmp424:
	add	r2, sp, #16
	.loc	9 866 25                        @ ../../../ThirdParty/mbedTLS/library/pkparse.c:866:25
	bl	pk_get_ecparams
	mov	r7, r0
.Ltmp425:
	@DEBUG_VALUE: pk_parse_key_sec1_der:ret <- $r7
	.loc	9 866 71                        @ ../../../ThirdParty/mbedTLS/library/pkparse.c:866:71
	cbnz	r0, .LBB9_16
.Ltmp426:
@ %bb.15:
	@DEBUG_VALUE: pk_parse_key_sec1_der:ret <- $r7
	@DEBUG_VALUE: pk_parse_key_sec1_der:end <- $r6
	@DEBUG_VALUE: pk_parse_key_sec1_der:eck <- $r4
	@DEBUG_VALUE: pk_parse_key_sec1_der:p <- [DW_OP_plus_uconst 12, DW_OP_deref] $sp
	@DEBUG_VALUE: pk_parse_key_sec1_der:pubkey_done <- 0
	@DEBUG_VALUE: pk_parse_key_sec1_der:keylen <- [DW_OP_LLVM_entry_value 1] $r2
	@DEBUG_VALUE: pk_parse_key_sec1_der:key <- [DW_OP_LLVM_entry_value 1] $r1
	.loc	9 0 71                          @ ../../../ThirdParty/mbedTLS/library/pkparse.c:0:71
	add	r0, sp, #16
	.loc	9 867 29 is_stmt 1              @ ../../../ThirdParty/mbedTLS/library/pkparse.c:867:29
	mov	r1, r4
	bl	pk_use_ecparams
	mov	r7, r0
.Ltmp427:
	@DEBUG_VALUE: pk_parse_key_sec1_der:ret <- $r7
	.loc	9 866 17                        @ ../../../ThirdParty/mbedTLS/library/pkparse.c:866:17
	cbz	r0, .LBB9_17
.Ltmp428:
.LBB9_16:
	@DEBUG_VALUE: pk_parse_key_sec1_der:ret <- $r7
	@DEBUG_VALUE: pk_parse_key_sec1_der:end <- $r6
	@DEBUG_VALUE: pk_parse_key_sec1_der:eck <- $r4
	@DEBUG_VALUE: pk_parse_key_sec1_der:p <- [DW_OP_plus_uconst 12, DW_OP_deref] $sp
	@DEBUG_VALUE: pk_parse_key_sec1_der:pubkey_done <- 0
	@DEBUG_VALUE: pk_parse_key_sec1_der:keylen <- [DW_OP_LLVM_entry_value 1] $r2
	@DEBUG_VALUE: pk_parse_key_sec1_der:key <- [DW_OP_LLVM_entry_value 1] $r1
	@DEBUG_VALUE: pk_parse_key_sec1_der:ret <- $r7
	.loc	9 869 17                        @ ../../../ThirdParty/mbedTLS/library/pkparse.c:869:17
	mov	r0, r4
	bl	mbedtls_ecp_keypair_free
	.loc	9 870 17                        @ ../../../ThirdParty/mbedTLS/library/pkparse.c:870:17
	b	.LBB9_8
.Ltmp429:
.LBB9_17:
	@DEBUG_VALUE: pk_parse_key_sec1_der:end <- $r6
	@DEBUG_VALUE: pk_parse_key_sec1_der:eck <- $r4
	@DEBUG_VALUE: pk_parse_key_sec1_der:pubkey_done <- 0
	@DEBUG_VALUE: pk_parse_key_sec1_der:keylen <- [DW_OP_LLVM_entry_value 1] $r2
	@DEBUG_VALUE: pk_parse_key_sec1_der:key <- [DW_OP_LLVM_entry_value 1] $r1
	.loc	9 880 9                         @ ../../../ThirdParty/mbedTLS/library/pkparse.c:880:9
	ldr	r0, [sp, #12]
.Ltmp430:
	@DEBUG_VALUE: pk_parse_key_sec1_der:p <- $r0
	.loc	9 880 9 is_stmt 0               @ ../../../ThirdParty/mbedTLS/library/pkparse.c:880:9
	cmp	r0, r6
	beq	.LBB9_28
.Ltmp431:
@ %bb.18:
	@DEBUG_VALUE: pk_parse_key_sec1_der:end <- $r6
	@DEBUG_VALUE: pk_parse_key_sec1_der:eck <- $r4
	@DEBUG_VALUE: pk_parse_key_sec1_der:p <- $r0
	@DEBUG_VALUE: pk_parse_key_sec1_der:pubkey_done <- 0
	@DEBUG_VALUE: pk_parse_key_sec1_der:keylen <- [DW_OP_LLVM_entry_value 1] $r2
	@DEBUG_VALUE: pk_parse_key_sec1_der:key <- [DW_OP_LLVM_entry_value 1] $r1
	@DEBUG_VALUE: pk_parse_key_sec1_der:p <- [DW_OP_plus_uconst 12, DW_OP_deref] $sp
	@DEBUG_VALUE: pk_parse_key_sec1_der:len <- [DW_OP_plus_uconst 28, DW_OP_deref] $sp
	.loc	9 0 9                           @ ../../../ThirdParty/mbedTLS/library/pkparse.c:0:9
	add	r0, sp, #12
	add	r2, sp, #28
	movs	r3, #161
.Ltmp432:
	.loc	9 886 21 is_stmt 1              @ ../../../ThirdParty/mbedTLS/library/pkparse.c:886:21
	mov	r1, r6
	bl	mbedtls_asn1_get_tag
	mov	r6, r0
.Ltmp433:
	@DEBUG_VALUE: pk_parse_key_sec1_der:ret <- $r6
	.loc	9 886 13 is_stmt 0              @ ../../../ThirdParty/mbedTLS/library/pkparse.c:886:13
	adds	r0, #98
	beq	.LBB9_28
.Ltmp434:
@ %bb.19:
	@DEBUG_VALUE: pk_parse_key_sec1_der:ret <- $r6
	@DEBUG_VALUE: pk_parse_key_sec1_der:eck <- $r4
	@DEBUG_VALUE: pk_parse_key_sec1_der:p <- [DW_OP_plus_uconst 12, DW_OP_deref] $sp
	@DEBUG_VALUE: pk_parse_key_sec1_der:len <- [DW_OP_plus_uconst 28, DW_OP_deref] $sp
	@DEBUG_VALUE: pk_parse_key_sec1_der:pubkey_done <- 0
	@DEBUG_VALUE: pk_parse_key_sec1_der:keylen <- [DW_OP_LLVM_entry_value 1] $r2
	@DEBUG_VALUE: pk_parse_key_sec1_der:key <- [DW_OP_LLVM_entry_value 1] $r1
	cbnz	r6, .LBB9_23
.Ltmp435:
@ %bb.20:
	@DEBUG_VALUE: pk_parse_key_sec1_der:ret <- $r6
	@DEBUG_VALUE: pk_parse_key_sec1_der:eck <- $r4
	@DEBUG_VALUE: pk_parse_key_sec1_der:p <- [DW_OP_plus_uconst 12, DW_OP_deref] $sp
	@DEBUG_VALUE: pk_parse_key_sec1_der:len <- [DW_OP_plus_uconst 28, DW_OP_deref] $sp
	@DEBUG_VALUE: pk_parse_key_sec1_der:pubkey_done <- 0
	@DEBUG_VALUE: pk_parse_key_sec1_der:keylen <- [DW_OP_LLVM_entry_value 1] $r2
	@DEBUG_VALUE: pk_parse_key_sec1_der:key <- [DW_OP_LLVM_entry_value 1] $r1
	.loc	9 889 24 is_stmt 1              @ ../../../ThirdParty/mbedTLS/library/pkparse.c:889:24
	ldr	r0, [sp, #28]
.Ltmp436:
	@DEBUG_VALUE: pk_parse_key_sec1_der:len <- $r0
	.loc	9 889 20 is_stmt 0              @ ../../../ThirdParty/mbedTLS/library/pkparse.c:889:20
	ldr	r1, [sp, #12]
.Ltmp437:
	@DEBUG_VALUE: pk_parse_key_sec1_der:p <- $r1
	.loc	9 889 22                        @ ../../../ThirdParty/mbedTLS/library/pkparse.c:889:22
	adds	r6, r1, r0
.Ltmp438:
	@DEBUG_VALUE: pk_parse_key_sec1_der:end2 <- $r6
	@DEBUG_VALUE: pk_parse_key_sec1_der:len <- [DW_OP_plus_uconst 28, DW_OP_deref] $sp
	@DEBUG_VALUE: pk_parse_key_sec1_der:p <- [DW_OP_plus_uconst 12, DW_OP_deref] $sp
	.loc	9 0 22                          @ ../../../ThirdParty/mbedTLS/library/pkparse.c:0:22
	add	r0, sp, #12
	add	r2, sp, #28
.Ltmp439:
	.loc	9 891 25 is_stmt 1              @ ../../../ThirdParty/mbedTLS/library/pkparse.c:891:25
	mov	r1, r6
	bl	mbedtls_asn1_get_bitstring_null
.Ltmp440:
	@DEBUG_VALUE: pk_parse_key_sec1_der:ret <- $r0
	.loc	9 891 17 is_stmt 0              @ ../../../ThirdParty/mbedTLS/library/pkparse.c:891:17
	cbz	r0, .LBB9_24
.Ltmp441:
@ %bb.21:
	@DEBUG_VALUE: pk_parse_key_sec1_der:end2 <- $r6
	@DEBUG_VALUE: pk_parse_key_sec1_der:eck <- $r4
	@DEBUG_VALUE: pk_parse_key_sec1_der:ret <- $r0
	@DEBUG_VALUE: pk_parse_key_sec1_der:p <- [DW_OP_plus_uconst 12, DW_OP_deref] $sp
	@DEBUG_VALUE: pk_parse_key_sec1_der:len <- [DW_OP_plus_uconst 28, DW_OP_deref] $sp
	@DEBUG_VALUE: pk_parse_key_sec1_der:pubkey_done <- 0
	@DEBUG_VALUE: pk_parse_key_sec1_der:keylen <- [DW_OP_LLVM_entry_value 1] $r2
	@DEBUG_VALUE: pk_parse_key_sec1_der:key <- [DW_OP_LLVM_entry_value 1] $r1
	.loc	9 892 59 is_stmt 1              @ ../../../ThirdParty/mbedTLS/library/pkparse.c:892:59
	adds	r7, r0, r5
	.loc	9 892 17 is_stmt 0              @ ../../../ThirdParty/mbedTLS/library/pkparse.c:892:17
	b	.LBB9_8
.Ltmp442:
.LBB9_22:
	@DEBUG_VALUE: pk_parse_key_sec1_der:ret <- $r7
	@DEBUG_VALUE: pk_parse_key_sec1_der:end <- $r6
	@DEBUG_VALUE: pk_parse_key_sec1_der:eck <- $r4
	@DEBUG_VALUE: pk_parse_key_sec1_der:p <- [DW_OP_plus_uconst 12, DW_OP_deref] $sp
	@DEBUG_VALUE: pk_parse_key_sec1_der:len <- [DW_OP_plus_uconst 28, DW_OP_deref] $sp
	@DEBUG_VALUE: pk_parse_key_sec1_der:pubkey_done <- 0
	@DEBUG_VALUE: pk_parse_key_sec1_der:keylen <- [DW_OP_LLVM_entry_value 1] $r2
	@DEBUG_VALUE: pk_parse_key_sec1_der:key <- [DW_OP_LLVM_entry_value 1] $r1
	.loc	9 875 13 is_stmt 1              @ ../../../ThirdParty/mbedTLS/library/pkparse.c:875:13
	mov	r0, r4
	bl	mbedtls_ecp_keypair_free
	.loc	9 876 55                        @ ../../../ThirdParty/mbedTLS/library/pkparse.c:876:55
	adds	r7, r7, r5
.Ltmp443:
	.loc	9 876 13 is_stmt 0              @ ../../../ThirdParty/mbedTLS/library/pkparse.c:876:13
	b	.LBB9_8
.Ltmp444:
.LBB9_23:
	@DEBUG_VALUE: pk_parse_key_sec1_der:ret <- $r6
	@DEBUG_VALUE: pk_parse_key_sec1_der:eck <- $r4
	@DEBUG_VALUE: pk_parse_key_sec1_der:p <- [DW_OP_plus_uconst 12, DW_OP_deref] $sp
	@DEBUG_VALUE: pk_parse_key_sec1_der:len <- [DW_OP_plus_uconst 28, DW_OP_deref] $sp
	@DEBUG_VALUE: pk_parse_key_sec1_der:pubkey_done <- 0
	@DEBUG_VALUE: pk_parse_key_sec1_der:keylen <- [DW_OP_LLVM_entry_value 1] $r2
	@DEBUG_VALUE: pk_parse_key_sec1_der:key <- [DW_OP_LLVM_entry_value 1] $r1
	.loc	9 912 13 is_stmt 1              @ ../../../ThirdParty/mbedTLS/library/pkparse.c:912:13
	mov	r0, r4
	bl	mbedtls_ecp_keypair_free
	.loc	9 913 55                        @ ../../../ThirdParty/mbedTLS/library/pkparse.c:913:55
	adds	r7, r6, r5
	.loc	9 913 13 is_stmt 0              @ ../../../ThirdParty/mbedTLS/library/pkparse.c:913:13
	b	.LBB9_8
.Ltmp445:
.LBB9_24:
	@DEBUG_VALUE: pk_parse_key_sec1_der:end2 <- $r6
	@DEBUG_VALUE: pk_parse_key_sec1_der:eck <- $r4
	@DEBUG_VALUE: pk_parse_key_sec1_der:ret <- $r0
	@DEBUG_VALUE: pk_parse_key_sec1_der:p <- [DW_OP_plus_uconst 12, DW_OP_deref] $sp
	@DEBUG_VALUE: pk_parse_key_sec1_der:len <- [DW_OP_plus_uconst 28, DW_OP_deref] $sp
	@DEBUG_VALUE: pk_parse_key_sec1_der:pubkey_done <- 0
	@DEBUG_VALUE: pk_parse_key_sec1_der:keylen <- [DW_OP_LLVM_entry_value 1] $r2
	@DEBUG_VALUE: pk_parse_key_sec1_der:key <- [DW_OP_LLVM_entry_value 1] $r1
	.loc	9 894 21 is_stmt 1              @ ../../../ThirdParty/mbedTLS/library/pkparse.c:894:21
	ldr	r0, [sp, #28]
.Ltmp446:
	@DEBUG_VALUE: pk_parse_key_sec1_der:len <- $r0
	.loc	9 894 17 is_stmt 0              @ ../../../ThirdParty/mbedTLS/library/pkparse.c:894:17
	ldr	r1, [sp, #12]
.Ltmp447:
	@DEBUG_VALUE: pk_parse_key_sec1_der:p <- $r1
	.loc	9 894 19                        @ ../../../ThirdParty/mbedTLS/library/pkparse.c:894:19
	adds	r0, r1, r0
.Ltmp448:
	.loc	9 894 17                        @ ../../../ThirdParty/mbedTLS/library/pkparse.c:894:17
	cmp	r0, r6
	beq	.LBB9_26
.Ltmp449:
@ %bb.25:
	@DEBUG_VALUE: pk_parse_key_sec1_der:end2 <- $r6
	@DEBUG_VALUE: pk_parse_key_sec1_der:eck <- $r4
	@DEBUG_VALUE: pk_parse_key_sec1_der:p <- $r1
	@DEBUG_VALUE: pk_parse_key_sec1_der:pubkey_done <- 0
	@DEBUG_VALUE: pk_parse_key_sec1_der:keylen <- [DW_OP_LLVM_entry_value 1] $r2
	@DEBUG_VALUE: pk_parse_key_sec1_der:key <- [DW_OP_LLVM_entry_value 1] $r1
	.loc	9 0 17                          @ ../../../ThirdParty/mbedTLS/library/pkparse.c:0:17
	subs	r5, #102
	mov	r7, r5
	b	.LBB9_8
.Ltmp450:
.LBB9_26:
	@DEBUG_VALUE: pk_parse_key_sec1_der:end2 <- $r6
	@DEBUG_VALUE: pk_parse_key_sec1_der:eck <- $r4
	@DEBUG_VALUE: pk_parse_key_sec1_der:p <- $r1
	@DEBUG_VALUE: pk_parse_key_sec1_der:pubkey_done <- 0
	@DEBUG_VALUE: pk_parse_key_sec1_der:keylen <- [DW_OP_LLVM_entry_value 1] $r2
	@DEBUG_VALUE: pk_parse_key_sec1_der:key <- [DW_OP_LLVM_entry_value 1] $r1
	@DEBUG_VALUE: pk_parse_key_sec1_der:p <- [DW_OP_plus_uconst 12, DW_OP_deref] $sp
	add	r0, sp, #12
.Ltmp451:
	.loc	9 898 25 is_stmt 1              @ ../../../ThirdParty/mbedTLS/library/pkparse.c:898:25
	mov	r1, r6
	mov	r2, r4
	bl	pk_get_ecpubkey
.Ltmp452:
	@DEBUG_VALUE: pk_parse_key_sec1_der:ret <- $r0
	.loc	9 0 25 is_stmt 0                @ ../../../ThirdParty/mbedTLS/library/pkparse.c:0:25
	ldr	r1, __arm_cp.9_1
.Ltmp453:
	.loc	9 898 17                        @ ../../../ThirdParty/mbedTLS/library/pkparse.c:898:17
	cmp	r0, r1
	beq	.LBB9_28
.Ltmp454:
@ %bb.27:
	@DEBUG_VALUE: pk_parse_key_sec1_der:end2 <- $r6
	@DEBUG_VALUE: pk_parse_key_sec1_der:eck <- $r4
	@DEBUG_VALUE: pk_parse_key_sec1_der:ret <- $r0
	@DEBUG_VALUE: pk_parse_key_sec1_der:p <- [DW_OP_plus_uconst 12, DW_OP_deref] $sp
	@DEBUG_VALUE: pk_parse_key_sec1_der:pubkey_done <- 0
	@DEBUG_VALUE: pk_parse_key_sec1_der:keylen <- [DW_OP_LLVM_entry_value 1] $r2
	@DEBUG_VALUE: pk_parse_key_sec1_der:key <- [DW_OP_LLVM_entry_value 1] $r1
	.loc	9 0 0                           @ ../../../ThirdParty/mbedTLS/library/pkparse.c:0:0
	mov	r7, r5
	cbz	r0, .LBB9_30
	b	.LBB9_8
.Ltmp455:
.LBB9_28:
	@DEBUG_VALUE: pk_parse_key_sec1_der:eck <- $r4
	@DEBUG_VALUE: pk_parse_key_sec1_der:pubkey_done <- 0
	@DEBUG_VALUE: pk_parse_key_sec1_der:keylen <- [DW_OP_LLVM_entry_value 1] $r2
	@DEBUG_VALUE: pk_parse_key_sec1_der:key <- [DW_OP_LLVM_entry_value 1] $r1
	movs	r0, #0
.Ltmp456:
	.loc	9 918 21 is_stmt 1              @ ../../../ThirdParty/mbedTLS/library/pkparse.c:918:21
	str	r0, [sp]
	str	r0, [sp, #4]
	.loc	9 918 55 is_stmt 0              @ ../../../ThirdParty/mbedTLS/library/pkparse.c:918:55
	mov	r1, r4
	adds	r1, #136
	.loc	9 918 77                        @ ../../../ThirdParty/mbedTLS/library/pkparse.c:918:77
	mov	r3, r4
	adds	r3, #40
	.loc	9 918 21                        @ ../../../ThirdParty/mbedTLS/library/pkparse.c:918:21
	mov	r0, r4
	ldr	r2, [sp, #8]                    @ 4-byte Reload
	bl	mbedtls_ecp_mul
.Ltmp457:
	@DEBUG_VALUE: pk_parse_key_sec1_der:ret <- $r0
	.loc	9 917 9 is_stmt 1               @ ../../../ThirdParty/mbedTLS/library/pkparse.c:917:9
	cbz	r0, .LBB9_30
.Ltmp458:
@ %bb.29:
	@DEBUG_VALUE: pk_parse_key_sec1_der:eck <- $r4
	@DEBUG_VALUE: pk_parse_key_sec1_der:ret <- $r0
	@DEBUG_VALUE: pk_parse_key_sec1_der:pubkey_done <- 0
	@DEBUG_VALUE: pk_parse_key_sec1_der:keylen <- [DW_OP_LLVM_entry_value 1] $r2
	@DEBUG_VALUE: pk_parse_key_sec1_der:key <- [DW_OP_LLVM_entry_value 1] $r1
	.loc	9 0 0 is_stmt 0                 @ ../../../ThirdParty/mbedTLS/library/pkparse.c:0:0
	mov	r6, r0
.Ltmp459:
	@DEBUG_VALUE: pk_parse_key_sec1_der:ret <- $r6
	.loc	9 921 9 is_stmt 1               @ ../../../ThirdParty/mbedTLS/library/pkparse.c:921:9
	mov	r0, r4
	bl	mbedtls_ecp_keypair_free
	.loc	9 922 51                        @ ../../../ThirdParty/mbedTLS/library/pkparse.c:922:51
	adds	r7, r6, r5
	.loc	9 922 9 is_stmt 0               @ ../../../ThirdParty/mbedTLS/library/pkparse.c:922:9
	b	.LBB9_8
.Ltmp460:
.LBB9_30:
	@DEBUG_VALUE: pk_parse_key_sec1_der:eck <- $r4
	@DEBUG_VALUE: pk_parse_key_sec1_der:ret <- $r0
	@DEBUG_VALUE: pk_parse_key_sec1_der:pubkey_done <- 0
	@DEBUG_VALUE: pk_parse_key_sec1_der:keylen <- [DW_OP_LLVM_entry_value 1] $r2
	@DEBUG_VALUE: pk_parse_key_sec1_der:key <- [DW_OP_LLVM_entry_value 1] $r1
	.loc	9 925 17 is_stmt 1              @ ../../../ThirdParty/mbedTLS/library/pkparse.c:925:17
	mov	r0, r4
.Ltmp461:
	ldr	r1, [sp, #8]                    @ 4-byte Reload
	bl	mbedtls_ecp_check_privkey
.Ltmp462:
	@DEBUG_VALUE: pk_parse_key_sec1_der:ret <- $r0
	.loc	9 0 17 is_stmt 0                @ ../../../ThirdParty/mbedTLS/library/pkparse.c:0:17
	cbz	r0, .LBB9_32
.Ltmp463:
@ %bb.31:
	@DEBUG_VALUE: pk_parse_key_sec1_der:eck <- $r4
	@DEBUG_VALUE: pk_parse_key_sec1_der:ret <- $r0
	@DEBUG_VALUE: pk_parse_key_sec1_der:pubkey_done <- 0
	@DEBUG_VALUE: pk_parse_key_sec1_der:keylen <- [DW_OP_LLVM_entry_value 1] $r2
	@DEBUG_VALUE: pk_parse_key_sec1_der:key <- [DW_OP_LLVM_entry_value 1] $r1
	mov	r7, r0
.Ltmp464:
	@DEBUG_VALUE: pk_parse_key_sec1_der:ret <- $r7
	.loc	9 927 9 is_stmt 1               @ ../../../ThirdParty/mbedTLS/library/pkparse.c:927:9
	mov	r0, r4
	bl	mbedtls_ecp_keypair_free
	b	.LBB9_8
.Ltmp465:
.LBB9_32:
	@DEBUG_VALUE: pk_parse_key_sec1_der:eck <- $r4
	@DEBUG_VALUE: pk_parse_key_sec1_der:ret <- $r0
	@DEBUG_VALUE: pk_parse_key_sec1_der:pubkey_done <- 0
	@DEBUG_VALUE: pk_parse_key_sec1_der:keylen <- [DW_OP_LLVM_entry_value 1] $r2
	@DEBUG_VALUE: pk_parse_key_sec1_der:key <- [DW_OP_LLVM_entry_value 1] $r1
	.loc	9 0 9 is_stmt 0                 @ ../../../ThirdParty/mbedTLS/library/pkparse.c:0:9
	movs	r7, #0
	b	.LBB9_8
.Ltmp466:
	.p2align	2
@ %bb.33:
__arm_cp.9_0:
	.long	4294951680                      @ 0xffffc300
.Lcpi_end19:
	.size	__arm_cp.9_0, .Lcpi_end19-__arm_cp.9_0
__arm_cp.9_1:
	.long	4294947200                      @ 0xffffb180
.Lcpi_end20:
	.size	__arm_cp.9_1, .Lcpi_end20-__arm_cp.9_1
.Lfunc_end9:
	.size	pk_parse_key_sec1_der, .Lfunc_end9-pk_parse_key_sec1_der
	.cfi_endproc
	.cantunwind
	.fnend
                                        @ -- End function
	.section	.text.pk_parse_key_pkcs8_unencrypted_der,"ax",%progbits
	.p2align	2                               @ -- Begin function pk_parse_key_pkcs8_unencrypted_der
	.type	pk_parse_key_pkcs8_unencrypted_der,%function
	.code	16                              @ @pk_parse_key_pkcs8_unencrypted_der
	.thumb_func
pk_parse_key_pkcs8_unencrypted_der:
.Lfunc_begin10:
	.loc	9 952 0 is_stmt 1               @ ../../../ThirdParty/mbedTLS/library/pkparse.c:952:0
	.fnstart
	.cfi_startproc
@ %bb.0:
	@DEBUG_VALUE: pk_parse_key_pkcs8_unencrypted_der:pk <- $r0
	@DEBUG_VALUE: pk_parse_key_pkcs8_unencrypted_der:key <- $r1
	@DEBUG_VALUE: pk_parse_key_pkcs8_unencrypted_der:keylen <- $r2
	.save	{r4, r5, r6, r7, lr}
	push	{r4, r5, r6, r7, lr}
	.cfi_def_cfa_offset 20
	.cfi_offset lr, -4
	.cfi_offset r7, -8
	.cfi_offset r6, -12
	.cfi_offset r5, -16
	.cfi_offset r4, -20
	.pad	#28
	sub	sp, #28
	.cfi_def_cfa_offset 48
	mov	r4, r0
.Ltmp467:
	@DEBUG_VALUE: pk_parse_key_pkcs8_unencrypted_der:p <- $r1
	@DEBUG_VALUE: pk_parse_key_pkcs8_unencrypted_der:keylen <- $r2
	@DEBUG_VALUE: pk_parse_key_pkcs8_unencrypted_der:key <- $r1
	@DEBUG_VALUE: pk_parse_key_pkcs8_unencrypted_der:pk <- $r4
	.loc	9 956 20 prologue_end           @ ../../../ThirdParty/mbedTLS/library/pkparse.c:956:20
	str	r1, [sp, #4]
	mov	r0, sp
	movs	r7, #0
.Ltmp468:
	@DEBUG_VALUE: pk_parse_key_pkcs8_unencrypted_der:pk_alg <- 0
	.loc	9 958 23                        @ ../../../ThirdParty/mbedTLS/library/pkparse.c:958:23
	strb	r7, [r0]
	.loc	9 957 28                        @ ../../../ThirdParty/mbedTLS/library/pkparse.c:957:28
	adds	r1, r1, r2
.Ltmp469:
	@DEBUG_VALUE: pk_parse_key_pkcs8_unencrypted_der:key <- [DW_OP_LLVM_entry_value 1] $r1
	@DEBUG_VALUE: pk_parse_key_pkcs8_unencrypted_der:len <- [DW_OP_plus_uconst 20, DW_OP_deref] $sp
	@DEBUG_VALUE: pk_parse_key_pkcs8_unencrypted_der:end <- $r1
	@DEBUG_VALUE: pk_parse_key_pkcs8_unencrypted_der:p <- [DW_OP_plus_uconst 4, DW_OP_deref] $sp
	.loc	9 0 28 is_stmt 0                @ ../../../ThirdParty/mbedTLS/library/pkparse.c:0:28
	add	r0, sp, #4
	add	r2, sp, #20
.Ltmp470:
	@DEBUG_VALUE: pk_parse_key_pkcs8_unencrypted_der:keylen <- [DW_OP_LLVM_entry_value 1] $r2
	movs	r3, #48
.Ltmp471:
	.loc	9 977 17 is_stmt 1              @ ../../../ThirdParty/mbedTLS/library/pkparse.c:977:17
	bl	mbedtls_asn1_get_tag
.Ltmp472:
	@DEBUG_VALUE: pk_parse_key_pkcs8_unencrypted_der:ret <- $r0
	.loc	9 977 9 is_stmt 0               @ ../../../ThirdParty/mbedTLS/library/pkparse.c:977:9
	cbz	r0, .LBB10_2
.Ltmp473:
@ %bb.1:
	@DEBUG_VALUE: pk_parse_key_pkcs8_unencrypted_der:pk <- $r4
	@DEBUG_VALUE: pk_parse_key_pkcs8_unencrypted_der:ret <- $r0
	@DEBUG_VALUE: pk_parse_key_pkcs8_unencrypted_der:p <- [DW_OP_plus_uconst 4, DW_OP_deref] $sp
	@DEBUG_VALUE: pk_parse_key_pkcs8_unencrypted_der:len <- [DW_OP_plus_uconst 20, DW_OP_deref] $sp
	@DEBUG_VALUE: pk_parse_key_pkcs8_unencrypted_der:keylen <- [DW_OP_LLVM_entry_value 1] $r2
	@DEBUG_VALUE: pk_parse_key_pkcs8_unencrypted_der:key <- [DW_OP_LLVM_entry_value 1] $r1
	@DEBUG_VALUE: pk_parse_key_pkcs8_unencrypted_der:pk_alg <- 0
	.loc	9 980 51 is_stmt 1              @ ../../../ThirdParty/mbedTLS/library/pkparse.c:980:51
	movw	r1, #15616
	subs	r5, r0, r1
	.loc	9 980 9 is_stmt 0               @ ../../../ThirdParty/mbedTLS/library/pkparse.c:980:9
	b	.LBB10_10
.Ltmp474:
.LBB10_2:
	@DEBUG_VALUE: pk_parse_key_pkcs8_unencrypted_der:pk <- $r4
	@DEBUG_VALUE: pk_parse_key_pkcs8_unencrypted_der:ret <- $r0
	@DEBUG_VALUE: pk_parse_key_pkcs8_unencrypted_der:p <- [DW_OP_plus_uconst 4, DW_OP_deref] $sp
	@DEBUG_VALUE: pk_parse_key_pkcs8_unencrypted_der:len <- [DW_OP_plus_uconst 20, DW_OP_deref] $sp
	@DEBUG_VALUE: pk_parse_key_pkcs8_unencrypted_der:keylen <- [DW_OP_LLVM_entry_value 1] $r2
	@DEBUG_VALUE: pk_parse_key_pkcs8_unencrypted_der:key <- [DW_OP_LLVM_entry_value 1] $r1
	@DEBUG_VALUE: pk_parse_key_pkcs8_unencrypted_der:pk_alg <- 0
	.loc	9 983 15 is_stmt 1              @ ../../../ThirdParty/mbedTLS/library/pkparse.c:983:15
	ldr	r0, [sp, #20]
.Ltmp475:
	@DEBUG_VALUE: pk_parse_key_pkcs8_unencrypted_der:len <- $r0
	.loc	9 983 11 is_stmt 0              @ ../../../ThirdParty/mbedTLS/library/pkparse.c:983:11
	ldr	r1, [sp, #4]
.Ltmp476:
	@DEBUG_VALUE: pk_parse_key_pkcs8_unencrypted_der:p <- $r1
	.loc	9 983 13                        @ ../../../ThirdParty/mbedTLS/library/pkparse.c:983:13
	adds	r6, r1, r0
.Ltmp477:
	@DEBUG_VALUE: pk_parse_key_pkcs8_unencrypted_der:version <- [DW_OP_plus_uconst 24, DW_OP_deref] $sp
	@DEBUG_VALUE: pk_parse_key_pkcs8_unencrypted_der:end <- $r6
	@DEBUG_VALUE: pk_parse_key_pkcs8_unencrypted_der:p <- [DW_OP_plus_uconst 4, DW_OP_deref] $sp
	.loc	9 0 13                          @ ../../../ThirdParty/mbedTLS/library/pkparse.c:0:13
	add	r0, sp, #4
.Ltmp478:
	add	r2, sp, #24
.Ltmp479:
	.loc	9 985 17 is_stmt 1              @ ../../../ThirdParty/mbedTLS/library/pkparse.c:985:17
	mov	r1, r6
	bl	mbedtls_asn1_get_int
.Ltmp480:
	@DEBUG_VALUE: pk_parse_key_pkcs8_unencrypted_der:ret <- $r0
	.loc	9 0 17 is_stmt 0                @ ../../../ThirdParty/mbedTLS/library/pkparse.c:0:17
	ldr	r5, __arm_cp.10_0
.Ltmp481:
	.loc	9 985 9                         @ ../../../ThirdParty/mbedTLS/library/pkparse.c:985:9
	cbz	r0, .LBB10_4
.Ltmp482:
@ %bb.3:
	@DEBUG_VALUE: pk_parse_key_pkcs8_unencrypted_der:end <- $r6
	@DEBUG_VALUE: pk_parse_key_pkcs8_unencrypted_der:pk <- $r4
	@DEBUG_VALUE: pk_parse_key_pkcs8_unencrypted_der:ret <- $r0
	@DEBUG_VALUE: pk_parse_key_pkcs8_unencrypted_der:version <- [DW_OP_plus_uconst 24, DW_OP_deref] $sp
	@DEBUG_VALUE: pk_parse_key_pkcs8_unencrypted_der:p <- [DW_OP_plus_uconst 4, DW_OP_deref] $sp
	@DEBUG_VALUE: pk_parse_key_pkcs8_unencrypted_der:keylen <- [DW_OP_LLVM_entry_value 1] $r2
	@DEBUG_VALUE: pk_parse_key_pkcs8_unencrypted_der:key <- [DW_OP_LLVM_entry_value 1] $r1
	@DEBUG_VALUE: pk_parse_key_pkcs8_unencrypted_der:pk_alg <- 0
	.loc	9 986 51 is_stmt 1              @ ../../../ThirdParty/mbedTLS/library/pkparse.c:986:51
	adds	r5, r0, r5
	.loc	9 986 9 is_stmt 0               @ ../../../ThirdParty/mbedTLS/library/pkparse.c:986:9
	b	.LBB10_10
.Ltmp483:
.LBB10_4:
	@DEBUG_VALUE: pk_parse_key_pkcs8_unencrypted_der:end <- $r6
	@DEBUG_VALUE: pk_parse_key_pkcs8_unencrypted_der:pk <- $r4
	@DEBUG_VALUE: pk_parse_key_pkcs8_unencrypted_der:ret <- $r0
	@DEBUG_VALUE: pk_parse_key_pkcs8_unencrypted_der:version <- [DW_OP_plus_uconst 24, DW_OP_deref] $sp
	@DEBUG_VALUE: pk_parse_key_pkcs8_unencrypted_der:p <- [DW_OP_plus_uconst 4, DW_OP_deref] $sp
	@DEBUG_VALUE: pk_parse_key_pkcs8_unencrypted_der:keylen <- [DW_OP_LLVM_entry_value 1] $r2
	@DEBUG_VALUE: pk_parse_key_pkcs8_unencrypted_der:key <- [DW_OP_LLVM_entry_value 1] $r1
	@DEBUG_VALUE: pk_parse_key_pkcs8_unencrypted_der:pk_alg <- 0
	.loc	9 988 9 is_stmt 1               @ ../../../ThirdParty/mbedTLS/library/pkparse.c:988:9
	ldr	r0, [sp, #24]
.Ltmp484:
	@DEBUG_VALUE: pk_parse_key_pkcs8_unencrypted_der:version <- $r0
	.loc	9 988 9 is_stmt 0               @ ../../../ThirdParty/mbedTLS/library/pkparse.c:988:9
	cbz	r0, .LBB10_6
.Ltmp485:
@ %bb.5:
	@DEBUG_VALUE: pk_parse_key_pkcs8_unencrypted_der:end <- $r6
	@DEBUG_VALUE: pk_parse_key_pkcs8_unencrypted_der:pk <- $r4
	@DEBUG_VALUE: pk_parse_key_pkcs8_unencrypted_der:version <- $r0
	@DEBUG_VALUE: pk_parse_key_pkcs8_unencrypted_der:p <- [DW_OP_plus_uconst 4, DW_OP_deref] $sp
	@DEBUG_VALUE: pk_parse_key_pkcs8_unencrypted_der:keylen <- [DW_OP_LLVM_entry_value 1] $r2
	@DEBUG_VALUE: pk_parse_key_pkcs8_unencrypted_der:key <- [DW_OP_LLVM_entry_value 1] $r1
	@DEBUG_VALUE: pk_parse_key_pkcs8_unencrypted_der:pk_alg <- 0
	.loc	9 0 9                           @ ../../../ThirdParty/mbedTLS/library/pkparse.c:0:9
	subs	r5, #128
	b	.LBB10_10
.Ltmp486:
.LBB10_6:
	@DEBUG_VALUE: pk_parse_key_pkcs8_unencrypted_der:end <- $r6
	@DEBUG_VALUE: pk_parse_key_pkcs8_unencrypted_der:pk <- $r4
	@DEBUG_VALUE: pk_parse_key_pkcs8_unencrypted_der:version <- $r0
	@DEBUG_VALUE: pk_parse_key_pkcs8_unencrypted_der:p <- [DW_OP_plus_uconst 4, DW_OP_deref] $sp
	@DEBUG_VALUE: pk_parse_key_pkcs8_unencrypted_der:keylen <- [DW_OP_LLVM_entry_value 1] $r2
	@DEBUG_VALUE: pk_parse_key_pkcs8_unencrypted_der:key <- [DW_OP_LLVM_entry_value 1] $r1
	@DEBUG_VALUE: pk_parse_key_pkcs8_unencrypted_der:pk_alg <- 0
	@DEBUG_VALUE: pk_parse_key_pkcs8_unencrypted_der:p <- [DW_OP_plus_uconst 4, DW_OP_deref] $sp
	@DEBUG_VALUE: pk_parse_key_pkcs8_unencrypted_der:pk_alg <- [DW_OP_deref] $sp
	add	r0, sp, #4
.Ltmp487:
	mov	r2, sp
	add	r3, sp, #8
.Ltmp488:
	.loc	9 991 17 is_stmt 1              @ ../../../ThirdParty/mbedTLS/library/pkparse.c:991:17
	mov	r1, r6
	bl	pk_get_pk_alg
.Ltmp489:
	@DEBUG_VALUE: pk_parse_key_pkcs8_unencrypted_der:ret <- $r0
	.loc	9 991 9 is_stmt 0               @ ../../../ThirdParty/mbedTLS/library/pkparse.c:991:9
	cbz	r0, .LBB10_8
.Ltmp490:
@ %bb.7:
	@DEBUG_VALUE: pk_parse_key_pkcs8_unencrypted_der:end <- $r6
	@DEBUG_VALUE: pk_parse_key_pkcs8_unencrypted_der:pk <- $r4
	@DEBUG_VALUE: pk_parse_key_pkcs8_unencrypted_der:ret <- $r0
	@DEBUG_VALUE: pk_parse_key_pkcs8_unencrypted_der:pk_alg <- [DW_OP_deref] $sp
	@DEBUG_VALUE: pk_parse_key_pkcs8_unencrypted_der:p <- [DW_OP_plus_uconst 4, DW_OP_deref] $sp
	@DEBUG_VALUE: pk_parse_key_pkcs8_unencrypted_der:keylen <- [DW_OP_LLVM_entry_value 1] $r2
	@DEBUG_VALUE: pk_parse_key_pkcs8_unencrypted_der:key <- [DW_OP_LLVM_entry_value 1] $r1
	.loc	9 992 51 is_stmt 1              @ ../../../ThirdParty/mbedTLS/library/pkparse.c:992:51
	adds	r5, r0, r5
	.loc	9 992 9 is_stmt 0               @ ../../../ThirdParty/mbedTLS/library/pkparse.c:992:9
	b	.LBB10_10
.Ltmp491:
.LBB10_8:
	@DEBUG_VALUE: pk_parse_key_pkcs8_unencrypted_der:end <- $r6
	@DEBUG_VALUE: pk_parse_key_pkcs8_unencrypted_der:pk <- $r4
	@DEBUG_VALUE: pk_parse_key_pkcs8_unencrypted_der:ret <- $r0
	@DEBUG_VALUE: pk_parse_key_pkcs8_unencrypted_der:pk_alg <- [DW_OP_deref] $sp
	@DEBUG_VALUE: pk_parse_key_pkcs8_unencrypted_der:p <- [DW_OP_plus_uconst 4, DW_OP_deref] $sp
	@DEBUG_VALUE: pk_parse_key_pkcs8_unencrypted_der:keylen <- [DW_OP_LLVM_entry_value 1] $r2
	@DEBUG_VALUE: pk_parse_key_pkcs8_unencrypted_der:key <- [DW_OP_LLVM_entry_value 1] $r1
	@DEBUG_VALUE: pk_parse_key_pkcs8_unencrypted_der:p <- [DW_OP_plus_uconst 4, DW_OP_deref] $sp
	@DEBUG_VALUE: pk_parse_key_pkcs8_unencrypted_der:len <- [DW_OP_plus_uconst 20, DW_OP_deref] $sp
	.loc	9 0 9                           @ ../../../ThirdParty/mbedTLS/library/pkparse.c:0:9
	add	r0, sp, #4
.Ltmp492:
	add	r2, sp, #20
	movs	r3, #4
.Ltmp493:
	.loc	9 994 17 is_stmt 1              @ ../../../ThirdParty/mbedTLS/library/pkparse.c:994:17
	mov	r1, r6
	bl	mbedtls_asn1_get_tag
.Ltmp494:
	@DEBUG_VALUE: pk_parse_key_pkcs8_unencrypted_der:ret <- $r0
	.loc	9 994 9 is_stmt 0               @ ../../../ThirdParty/mbedTLS/library/pkparse.c:994:9
	cbz	r0, .LBB10_11
.Ltmp495:
@ %bb.9:
	@DEBUG_VALUE: pk_parse_key_pkcs8_unencrypted_der:end <- $r6
	@DEBUG_VALUE: pk_parse_key_pkcs8_unencrypted_der:pk <- $r4
	@DEBUG_VALUE: pk_parse_key_pkcs8_unencrypted_der:ret <- $r0
	@DEBUG_VALUE: pk_parse_key_pkcs8_unencrypted_der:pk_alg <- [DW_OP_deref] $sp
	@DEBUG_VALUE: pk_parse_key_pkcs8_unencrypted_der:p <- [DW_OP_plus_uconst 4, DW_OP_deref] $sp
	@DEBUG_VALUE: pk_parse_key_pkcs8_unencrypted_der:len <- [DW_OP_plus_uconst 20, DW_OP_deref] $sp
	@DEBUG_VALUE: pk_parse_key_pkcs8_unencrypted_der:keylen <- [DW_OP_LLVM_entry_value 1] $r2
	@DEBUG_VALUE: pk_parse_key_pkcs8_unencrypted_der:key <- [DW_OP_LLVM_entry_value 1] $r1
	.loc	9 995 51 is_stmt 1              @ ../../../ThirdParty/mbedTLS/library/pkparse.c:995:51
	adds	r5, r0, r5
.Ltmp496:
.LBB10_10:
	@DEBUG_VALUE: pk_parse_key_pkcs8_unencrypted_der:keylen <- [DW_OP_LLVM_entry_value 1] $r2
	@DEBUG_VALUE: pk_parse_key_pkcs8_unencrypted_der:key <- [DW_OP_LLVM_entry_value 1] $r1
	.loc	9 1031 1                        @ ../../../ThirdParty/mbedTLS/library/pkparse.c:1031:1
	mov	r0, r5
	add	sp, #28
	pop	{r4, r5, r6, r7, pc}
.Ltmp497:
.LBB10_11:
	@DEBUG_VALUE: pk_parse_key_pkcs8_unencrypted_der:end <- $r6
	@DEBUG_VALUE: pk_parse_key_pkcs8_unencrypted_der:pk <- $r4
	@DEBUG_VALUE: pk_parse_key_pkcs8_unencrypted_der:ret <- $r0
	@DEBUG_VALUE: pk_parse_key_pkcs8_unencrypted_der:pk_alg <- [DW_OP_deref] $sp
	@DEBUG_VALUE: pk_parse_key_pkcs8_unencrypted_der:p <- [DW_OP_plus_uconst 4, DW_OP_deref] $sp
	@DEBUG_VALUE: pk_parse_key_pkcs8_unencrypted_der:len <- [DW_OP_plus_uconst 20, DW_OP_deref] $sp
	@DEBUG_VALUE: pk_parse_key_pkcs8_unencrypted_der:keylen <- [DW_OP_LLVM_entry_value 1] $r2
	@DEBUG_VALUE: pk_parse_key_pkcs8_unencrypted_der:key <- [DW_OP_LLVM_entry_value 1] $r1
	.loc	9 997 9                         @ ../../../ThirdParty/mbedTLS/library/pkparse.c:997:9
	ldr	r0, [sp, #20]
.Ltmp498:
	@DEBUG_VALUE: pk_parse_key_pkcs8_unencrypted_der:len <- $r0
	.loc	9 997 9 is_stmt 0               @ ../../../ThirdParty/mbedTLS/library/pkparse.c:997:9
	cbz	r0, .LBB10_18
.Ltmp499:
@ %bb.12:
	@DEBUG_VALUE: pk_parse_key_pkcs8_unencrypted_der:end <- $r6
	@DEBUG_VALUE: pk_parse_key_pkcs8_unencrypted_der:pk <- $r4
	@DEBUG_VALUE: pk_parse_key_pkcs8_unencrypted_der:len <- $r0
	@DEBUG_VALUE: pk_parse_key_pkcs8_unencrypted_der:pk_alg <- [DW_OP_deref] $sp
	@DEBUG_VALUE: pk_parse_key_pkcs8_unencrypted_der:p <- [DW_OP_plus_uconst 4, DW_OP_deref] $sp
	@DEBUG_VALUE: pk_parse_key_pkcs8_unencrypted_der:keylen <- [DW_OP_LLVM_entry_value 1] $r2
	@DEBUG_VALUE: pk_parse_key_pkcs8_unencrypted_der:key <- [DW_OP_LLVM_entry_value 1] $r1
	.loc	9 0 9                           @ ../../../ThirdParty/mbedTLS/library/pkparse.c:0:9
	mov	r0, sp
.Ltmp500:
	.loc	9 1001 48 is_stmt 1             @ ../../../ThirdParty/mbedTLS/library/pkparse.c:1001:48
	ldrb	r0, [r0]
.Ltmp501:
	@DEBUG_VALUE: pk_parse_key_pkcs8_unencrypted_der:pk_alg <- undef
	.loc	9 1001 21 is_stmt 0             @ ../../../ThirdParty/mbedTLS/library/pkparse.c:1001:21
	bl	mbedtls_pk_info_from_type
.Ltmp502:
	@DEBUG_VALUE: pk_parse_key_pkcs8_unencrypted_der:pk_info <- $r0
	.loc	9 0 21                          @ ../../../ThirdParty/mbedTLS/library/pkparse.c:0:21
	ldr	r6, __arm_cp.10_1
.Ltmp503:
	.loc	9 1001 9                        @ ../../../ThirdParty/mbedTLS/library/pkparse.c:1001:9
	cbz	r0, .LBB10_19
.Ltmp504:
@ %bb.13:
	@DEBUG_VALUE: pk_parse_key_pkcs8_unencrypted_der:pk <- $r4
	@DEBUG_VALUE: pk_parse_key_pkcs8_unencrypted_der:pk_info <- $r0
	@DEBUG_VALUE: pk_parse_key_pkcs8_unencrypted_der:p <- [DW_OP_plus_uconst 4, DW_OP_deref] $sp
	@DEBUG_VALUE: pk_parse_key_pkcs8_unencrypted_der:keylen <- [DW_OP_LLVM_entry_value 1] $r2
	@DEBUG_VALUE: pk_parse_key_pkcs8_unencrypted_der:key <- [DW_OP_LLVM_entry_value 1] $r1
	.loc	9 0 0                           @ ../../../ThirdParty/mbedTLS/library/pkparse.c:0:0
	mov	r1, r0
.Ltmp505:
	@DEBUG_VALUE: pk_parse_key_pkcs8_unencrypted_der:pk_info <- $r1
	.loc	9 1004 17 is_stmt 1             @ ../../../ThirdParty/mbedTLS/library/pkparse.c:1004:17
	mov	r0, r4
	bl	mbedtls_pk_setup
.Ltmp506:
	mov	r5, r0
.Ltmp507:
	@DEBUG_VALUE: pk_parse_key_pkcs8_unencrypted_der:ret <- $r5
	.loc	9 1004 9 is_stmt 0              @ ../../../ThirdParty/mbedTLS/library/pkparse.c:1004:9
	cmp	r0, #0
	bne	.LBB10_10
.Ltmp508:
@ %bb.14:
	@DEBUG_VALUE: pk_parse_key_pkcs8_unencrypted_der:ret <- $r5
	@DEBUG_VALUE: pk_parse_key_pkcs8_unencrypted_der:pk <- $r4
	@DEBUG_VALUE: pk_parse_key_pkcs8_unencrypted_der:p <- [DW_OP_plus_uconst 4, DW_OP_deref] $sp
	@DEBUG_VALUE: pk_parse_key_pkcs8_unencrypted_der:keylen <- [DW_OP_LLVM_entry_value 1] $r2
	@DEBUG_VALUE: pk_parse_key_pkcs8_unencrypted_der:key <- [DW_OP_LLVM_entry_value 1] $r1
	.loc	9 0 9                           @ ../../../ThirdParty/mbedTLS/library/pkparse.c:0:9
	mov	r0, sp
.Ltmp509:
	.loc	9 1008 9 is_stmt 1              @ ../../../ThirdParty/mbedTLS/library/pkparse.c:1008:9
	ldrb	r0, [r0]
.Ltmp510:
	@DEBUG_VALUE: pk_parse_key_pkcs8_unencrypted_der:pk_alg <- undef
	.loc	9 1008 9 is_stmt 0              @ ../../../ThirdParty/mbedTLS/library/pkparse.c:1008:9
	subs	r1, r0, #2
	cmp	r1, #2
	bhs	.LBB10_20
.Ltmp511:
@ %bb.15:
	@DEBUG_VALUE: pk_parse_key_pkcs8_unencrypted_der:ret <- $r5
	@DEBUG_VALUE: pk_parse_key_pkcs8_unencrypted_der:pk <- $r4
	@DEBUG_VALUE: pk_parse_key_pkcs8_unencrypted_der:p <- [DW_OP_plus_uconst 4, DW_OP_deref] $sp
	@DEBUG_VALUE: pk_parse_key_pkcs8_unencrypted_der:keylen <- [DW_OP_LLVM_entry_value 1] $r2
	@DEBUG_VALUE: pk_parse_key_pkcs8_unencrypted_der:key <- [DW_OP_LLVM_entry_value 1] $r1
	.loc	9 1020 52 is_stmt 1             @ ../../../ThirdParty/mbedTLS/library/pkparse.c:1020:52
	ldm	r4!, {r0, r1}
.Ltmp512:
	subs	r4, #8
	bl	mbedtls_pk_ec
	mov	r1, r0
	add	r0, sp, #8
	.loc	9 1020 25 is_stmt 0             @ ../../../ThirdParty/mbedTLS/library/pkparse.c:1020:25
	bl	pk_use_ecparams
	mov	r6, r0
.Ltmp513:
	@DEBUG_VALUE: pk_parse_key_pkcs8_unencrypted_der:ret <- $r6
	.loc	9 1020 87                       @ ../../../ThirdParty/mbedTLS/library/pkparse.c:1020:87
	cbnz	r0, .LBB10_17
.Ltmp514:
@ %bb.16:
	@DEBUG_VALUE: pk_parse_key_pkcs8_unencrypted_der:ret <- $r6
	@DEBUG_VALUE: pk_parse_key_pkcs8_unencrypted_der:p <- [DW_OP_plus_uconst 4, DW_OP_deref] $sp
	@DEBUG_VALUE: pk_parse_key_pkcs8_unencrypted_der:keylen <- [DW_OP_LLVM_entry_value 1] $r2
	@DEBUG_VALUE: pk_parse_key_pkcs8_unencrypted_der:key <- [DW_OP_LLVM_entry_value 1] $r1
	.loc	9 1021 52 is_stmt 1             @ ../../../ThirdParty/mbedTLS/library/pkparse.c:1021:52
	ldm	r4!, {r0, r1}
	subs	r4, #8
	bl	mbedtls_pk_ec
	.loc	9 1021 74 is_stmt 0             @ ../../../ThirdParty/mbedTLS/library/pkparse.c:1021:74
	ldr	r1, [sp, #4]
.Ltmp515:
	@DEBUG_VALUE: pk_parse_key_pkcs8_unencrypted_der:p <- $r1
	.loc	9 1021 77                       @ ../../../ThirdParty/mbedTLS/library/pkparse.c:1021:77
	ldr	r2, [sp, #20]
.Ltmp516:
	@DEBUG_VALUE: pk_parse_key_pkcs8_unencrypted_der:len <- $r2
	.loc	9 1021 29                       @ ../../../ThirdParty/mbedTLS/library/pkparse.c:1021:29
	bl	pk_parse_key_sec1_der
.Ltmp517:
	mov	r6, r0
.Ltmp518:
	@DEBUG_VALUE: pk_parse_key_pkcs8_unencrypted_der:ret <- $r6
	.loc	9 1020 17 is_stmt 1             @ ../../../ThirdParty/mbedTLS/library/pkparse.c:1020:17
	cmp	r0, #0
.Ltmp519:
	.loc	9 0 0 is_stmt 0                 @ ../../../ThirdParty/mbedTLS/library/pkparse.c:0:0
	mov	r5, r7
.Ltmp520:
	.loc	9 1020 17                       @ ../../../ThirdParty/mbedTLS/library/pkparse.c:1020:17
	beq	.LBB10_10
.Ltmp521:
.LBB10_17:
	@DEBUG_VALUE: pk_parse_key_pkcs8_unencrypted_der:ret <- $r6
	@DEBUG_VALUE: pk_parse_key_pkcs8_unencrypted_der:keylen <- [DW_OP_LLVM_entry_value 1] $r2
	@DEBUG_VALUE: pk_parse_key_pkcs8_unencrypted_der:key <- [DW_OP_LLVM_entry_value 1] $r1
	@DEBUG_VALUE: pk_parse_key_pkcs8_unencrypted_der:ret <- $r6
	.loc	9 1023 17 is_stmt 1             @ ../../../ThirdParty/mbedTLS/library/pkparse.c:1023:17
	mov	r0, r4
	bl	mbedtls_pk_free
.Ltmp522:
	.loc	9 0 0 is_stmt 0                 @ ../../../ThirdParty/mbedTLS/library/pkparse.c:0:0
	mov	r5, r6
.Ltmp523:
	@DEBUG_VALUE: pk_parse_key_pkcs8_unencrypted_der:ret <- $r5
	@DEBUG_VALUE: pk_parse_key_pkcs8_unencrypted_der:ret <- $r5
	b	.LBB10_10
.Ltmp524:
.LBB10_18:
	@DEBUG_VALUE: pk_parse_key_pkcs8_unencrypted_der:end <- $r6
	@DEBUG_VALUE: pk_parse_key_pkcs8_unencrypted_der:pk <- $r4
	@DEBUG_VALUE: pk_parse_key_pkcs8_unencrypted_der:len <- $r0
	@DEBUG_VALUE: pk_parse_key_pkcs8_unencrypted_der:pk_alg <- [DW_OP_deref] $sp
	@DEBUG_VALUE: pk_parse_key_pkcs8_unencrypted_der:p <- [DW_OP_plus_uconst 4, DW_OP_deref] $sp
	@DEBUG_VALUE: pk_parse_key_pkcs8_unencrypted_der:keylen <- [DW_OP_LLVM_entry_value 1] $r2
	@DEBUG_VALUE: pk_parse_key_pkcs8_unencrypted_der:key <- [DW_OP_LLVM_entry_value 1] $r1
	subs	r5, #96
	b	.LBB10_10
.Ltmp525:
.LBB10_19:
	@DEBUG_VALUE: pk_parse_key_pkcs8_unencrypted_der:pk <- $r4
	@DEBUG_VALUE: pk_parse_key_pkcs8_unencrypted_der:pk_info <- $r0
	@DEBUG_VALUE: pk_parse_key_pkcs8_unencrypted_der:p <- [DW_OP_plus_uconst 4, DW_OP_deref] $sp
	@DEBUG_VALUE: pk_parse_key_pkcs8_unencrypted_der:keylen <- [DW_OP_LLVM_entry_value 1] $r2
	@DEBUG_VALUE: pk_parse_key_pkcs8_unencrypted_der:key <- [DW_OP_LLVM_entry_value 1] $r1
	mov	r5, r6
	b	.LBB10_10
.Ltmp526:
.LBB10_20:
	@DEBUG_VALUE: pk_parse_key_pkcs8_unencrypted_der:ret <- $r5
	@DEBUG_VALUE: pk_parse_key_pkcs8_unencrypted_der:pk <- $r4
	@DEBUG_VALUE: pk_parse_key_pkcs8_unencrypted_der:p <- [DW_OP_plus_uconst 4, DW_OP_deref] $sp
	@DEBUG_VALUE: pk_parse_key_pkcs8_unencrypted_der:keylen <- [DW_OP_LLVM_entry_value 1] $r2
	@DEBUG_VALUE: pk_parse_key_pkcs8_unencrypted_der:key <- [DW_OP_LLVM_entry_value 1] $r1
	.loc	9 1008 9 is_stmt 1              @ ../../../ThirdParty/mbedTLS/library/pkparse.c:1008:9
	cmp	r0, #1
	.loc	9 0 0 is_stmt 0                 @ ../../../ThirdParty/mbedTLS/library/pkparse.c:0:0
	mov	r5, r6
.Ltmp527:
	.loc	9 1008 9                        @ ../../../ThirdParty/mbedTLS/library/pkparse.c:1008:9
	bne	.LBB10_10
.Ltmp528:
@ %bb.21:
	@DEBUG_VALUE: pk_parse_key_pkcs8_unencrypted_der:pk <- $r4
	@DEBUG_VALUE: pk_parse_key_pkcs8_unencrypted_der:p <- [DW_OP_plus_uconst 4, DW_OP_deref] $sp
	@DEBUG_VALUE: pk_parse_key_pkcs8_unencrypted_der:keylen <- [DW_OP_LLVM_entry_value 1] $r2
	@DEBUG_VALUE: pk_parse_key_pkcs8_unencrypted_der:key <- [DW_OP_LLVM_entry_value 1] $r1
	.loc	9 1010 45 is_stmt 1             @ ../../../ThirdParty/mbedTLS/library/pkparse.c:1010:45
	ldm	r4!, {r0, r1}
.Ltmp529:
	subs	r4, #8
	bl	mbedtls_pk_rsa
	.loc	9 1010 68 is_stmt 0             @ ../../../ThirdParty/mbedTLS/library/pkparse.c:1010:68
	ldr	r1, [sp, #4]
.Ltmp530:
	@DEBUG_VALUE: pk_parse_key_pkcs8_unencrypted_der:p <- $r1
	.loc	9 1010 71                       @ ../../../ThirdParty/mbedTLS/library/pkparse.c:1010:71
	ldr	r2, [sp, #20]
.Ltmp531:
	@DEBUG_VALUE: pk_parse_key_pkcs8_unencrypted_der:len <- $r2
	.loc	9 1010 21                       @ ../../../ThirdParty/mbedTLS/library/pkparse.c:1010:21
	bl	pk_parse_key_pkcs1_der
.Ltmp532:
	@DEBUG_VALUE: pk_parse_key_pkcs8_unencrypted_der:ret <- $r0
	.loc	9 1010 13                       @ ../../../ThirdParty/mbedTLS/library/pkparse.c:1010:13
	cmp	r0, #0
.Ltmp533:
	.loc	9 0 0                           @ ../../../ThirdParty/mbedTLS/library/pkparse.c:0:0
	mov	r5, r7
.Ltmp534:
	.loc	9 1010 13                       @ ../../../ThirdParty/mbedTLS/library/pkparse.c:1010:13
	beq	.LBB10_10
.Ltmp535:
@ %bb.22:
	@DEBUG_VALUE: pk_parse_key_pkcs8_unencrypted_der:ret <- $r0
	@DEBUG_VALUE: pk_parse_key_pkcs8_unencrypted_der:keylen <- [DW_OP_LLVM_entry_value 1] $r2
	@DEBUG_VALUE: pk_parse_key_pkcs8_unencrypted_der:key <- [DW_OP_LLVM_entry_value 1] $r1
	.loc	9 0 0                           @ ../../../ThirdParty/mbedTLS/library/pkparse.c:0:0
	mov	r6, r0
.Ltmp536:
	@DEBUG_VALUE: pk_parse_key_pkcs8_unencrypted_der:ret <- $r6
	.loc	9 1012 13 is_stmt 1             @ ../../../ThirdParty/mbedTLS/library/pkparse.c:1012:13
	mov	r0, r4
	bl	mbedtls_pk_free
.Ltmp537:
	.loc	9 0 0 is_stmt 0                 @ ../../../ThirdParty/mbedTLS/library/pkparse.c:0:0
	mov	r5, r6
.Ltmp538:
	@DEBUG_VALUE: pk_parse_key_pkcs8_unencrypted_der:ret <- $r5
	.loc	9 1013 13 is_stmt 1             @ ../../../ThirdParty/mbedTLS/library/pkparse.c:1013:13
	b	.LBB10_10
.Ltmp539:
	.p2align	2
@ %bb.23:
	.loc	9 0 13 is_stmt 0                @ ../../../ThirdParty/mbedTLS/library/pkparse.c:0:13
__arm_cp.10_0:
	.long	4294951680                      @ 0xffffc300
.Lcpi_end21:
	.size	__arm_cp.10_0, .Lcpi_end21-__arm_cp.10_0
__arm_cp.10_1:
	.long	4294951808                      @ 0xffffc380
.Lcpi_end22:
	.size	__arm_cp.10_1, .Lcpi_end22-__arm_cp.10_1
.Lfunc_end10:
	.size	pk_parse_key_pkcs8_unencrypted_der, .Lfunc_end10-pk_parse_key_pkcs8_unencrypted_der
	.cfi_endproc
	.cantunwind
	.fnend
                                        @ -- End function
	.section	.text.pk_parse_key_pkcs8_encrypted_der,"ax",%progbits
	.p2align	2                               @ -- Begin function pk_parse_key_pkcs8_encrypted_der
	.type	pk_parse_key_pkcs8_encrypted_der,%function
	.code	16                              @ @pk_parse_key_pkcs8_encrypted_der
	.thumb_func
pk_parse_key_pkcs8_encrypted_der:
.Lfunc_begin11:
	.loc	9 1047 0 is_stmt 1              @ ../../../ThirdParty/mbedTLS/library/pkparse.c:1047:0
	.fnstart
	.cfi_startproc
@ %bb.0:
	@DEBUG_VALUE: pk_parse_key_pkcs8_encrypted_der:pk <- $r0
	@DEBUG_VALUE: pk_parse_key_pkcs8_encrypted_der:key <- $r1
	@DEBUG_VALUE: pk_parse_key_pkcs8_encrypted_der:keylen <- $r2
	@DEBUG_VALUE: pk_parse_key_pkcs8_encrypted_der:pwd <- $r3
	@DEBUG_VALUE: pk_parse_key_pkcs8_encrypted_der:pwd <- $r3
	@DEBUG_VALUE: pk_parse_key_pkcs8_encrypted_der:keylen <- $r2
	@DEBUG_VALUE: pk_parse_key_pkcs8_encrypted_der:key <- $r1
	@DEBUG_VALUE: pk_parse_key_pkcs8_encrypted_der:pk <- $r0
	.save	{r4, r5, r6, r7, lr}
	push	{r4, r5, r6, r7, lr}
	.cfi_def_cfa_offset 20
	.cfi_offset lr, -4
	.cfi_offset r7, -8
	.cfi_offset r6, -12
	.cfi_offset r5, -16
	.cfi_offset r4, -20
	.pad	#76
	sub	sp, #76
	.cfi_def_cfa_offset 96
.Ltmp540:
	@DEBUG_VALUE: pk_parse_key_pkcs8_encrypted_der:p <- $r1
	@DEBUG_VALUE: pk_parse_key_pkcs8_encrypted_der:decrypted <- 0
	@DEBUG_VALUE: pk_parse_key_pkcs8_encrypted_der:pwdlen <- [DW_OP_plus_uconst 96] [$sp+0]
	.loc	9 1058 7 prologue_end           @ ../../../ThirdParty/mbedTLS/library/pkparse.c:1058:7
	str	r1, [sp, #68]
	ldr	r4, __arm_cp.11_0
.Ltmp541:
	@DEBUG_VALUE: pk_parse_key_pkcs8_encrypted_der:end <- undef
	.loc	9 0 7 is_stmt 0                 @ ../../../ThirdParty/mbedTLS/library/pkparse.c:0:7
	ldr	r7, [sp, #96]
	.loc	9 1061 9 is_stmt 1              @ ../../../ThirdParty/mbedTLS/library/pkparse.c:1061:9
	cbz	r7, .LBB11_3
.Ltmp542:
@ %bb.1:
	@DEBUG_VALUE: pk_parse_key_pkcs8_encrypted_der:pwd <- $r3
	@DEBUG_VALUE: pk_parse_key_pkcs8_encrypted_der:keylen <- $r2
	@DEBUG_VALUE: pk_parse_key_pkcs8_encrypted_der:p <- $r1
	@DEBUG_VALUE: pk_parse_key_pkcs8_encrypted_der:key <- $r1
	@DEBUG_VALUE: pk_parse_key_pkcs8_encrypted_der:pk <- $r0
	@DEBUG_VALUE: pk_parse_key_pkcs8_encrypted_der:pwdlen <- [DW_OP_plus_uconst 96] [$sp+0]
	@DEBUG_VALUE: pk_parse_key_pkcs8_encrypted_der:decrypted <- 0
	.loc	9 0 9 is_stmt 0                 @ ../../../ThirdParty/mbedTLS/library/pkparse.c:0:9
	mov	r6, r3
.Ltmp543:
	@DEBUG_VALUE: pk_parse_key_pkcs8_encrypted_der:pwd <- $r6
	mov	r5, r0
.Ltmp544:
	@DEBUG_VALUE: pk_parse_key_pkcs8_encrypted_der:pk <- $r5
	.loc	9 1059 13 is_stmt 1             @ ../../../ThirdParty/mbedTLS/library/pkparse.c:1059:13
	adds	r1, r1, r2
.Ltmp545:
	@DEBUG_VALUE: pk_parse_key_pkcs8_encrypted_der:key <- [DW_OP_LLVM_entry_value 1] $r1
	@DEBUG_VALUE: pk_parse_key_pkcs8_encrypted_der:len <- [DW_OP_plus_uconst 72, DW_OP_deref] $sp
	@DEBUG_VALUE: pk_parse_key_pkcs8_encrypted_der:end <- $r1
	@DEBUG_VALUE: pk_parse_key_pkcs8_encrypted_der:p <- [DW_OP_plus_uconst 68, DW_OP_deref] $sp
	.loc	9 0 13 is_stmt 0                @ ../../../ThirdParty/mbedTLS/library/pkparse.c:0:13
	add	r0, sp, #68
	add	r2, sp, #72
.Ltmp546:
	@DEBUG_VALUE: pk_parse_key_pkcs8_encrypted_der:keylen <- [DW_OP_LLVM_entry_value 1] $r2
	movs	r3, #48
.Ltmp547:
	.loc	9 1079 17 is_stmt 1             @ ../../../ThirdParty/mbedTLS/library/pkparse.c:1079:17
	bl	mbedtls_asn1_get_tag
.Ltmp548:
	@DEBUG_VALUE: pk_parse_key_pkcs8_encrypted_der:ret <- $r0
	.loc	9 1079 9 is_stmt 0              @ ../../../ThirdParty/mbedTLS/library/pkparse.c:1079:9
	cbz	r0, .LBB11_4
.Ltmp549:
@ %bb.2:
	@DEBUG_VALUE: pk_parse_key_pkcs8_encrypted_der:pwd <- $r6
	@DEBUG_VALUE: pk_parse_key_pkcs8_encrypted_der:pk <- $r5
	@DEBUG_VALUE: pk_parse_key_pkcs8_encrypted_der:ret <- $r0
	@DEBUG_VALUE: pk_parse_key_pkcs8_encrypted_der:p <- [DW_OP_plus_uconst 68, DW_OP_deref] $sp
	@DEBUG_VALUE: pk_parse_key_pkcs8_encrypted_der:len <- [DW_OP_plus_uconst 72, DW_OP_deref] $sp
	@DEBUG_VALUE: pk_parse_key_pkcs8_encrypted_der:pwdlen <- [DW_OP_plus_uconst 96] [$sp+0]
	@DEBUG_VALUE: pk_parse_key_pkcs8_encrypted_der:keylen <- [DW_OP_LLVM_entry_value 1] $r2
	@DEBUG_VALUE: pk_parse_key_pkcs8_encrypted_der:key <- [DW_OP_LLVM_entry_value 1] $r1
	@DEBUG_VALUE: pk_parse_key_pkcs8_encrypted_der:decrypted <- 0
	.loc	9 1082 51 is_stmt 1             @ ../../../ThirdParty/mbedTLS/library/pkparse.c:1082:51
	movw	r1, #15616
	subs	r5, r0, r1
.Ltmp550:
	@DEBUG_VALUE: pk_parse_key_pkcs8_encrypted_der:pk <- [DW_OP_LLVM_entry_value 1] $r0
	.loc	9 1082 9 is_stmt 0              @ ../../../ThirdParty/mbedTLS/library/pkparse.c:1082:9
	b	.LBB11_8
.Ltmp551:
.LBB11_3:
	@DEBUG_VALUE: pk_parse_key_pkcs8_encrypted_der:pwd <- $r3
	@DEBUG_VALUE: pk_parse_key_pkcs8_encrypted_der:keylen <- $r2
	@DEBUG_VALUE: pk_parse_key_pkcs8_encrypted_der:p <- $r1
	@DEBUG_VALUE: pk_parse_key_pkcs8_encrypted_der:key <- $r1
	@DEBUG_VALUE: pk_parse_key_pkcs8_encrypted_der:pk <- $r0
	@DEBUG_VALUE: pk_parse_key_pkcs8_encrypted_der:pwdlen <- [DW_OP_plus_uconst 96] [$sp+0]
	@DEBUG_VALUE: pk_parse_key_pkcs8_encrypted_der:decrypted <- 0
	.loc	9 0 9                           @ ../../../ThirdParty/mbedTLS/library/pkparse.c:0:9
	subs	r4, #128
	mov	r5, r4
	b	.LBB11_8
.Ltmp552:
.LBB11_4:
	@DEBUG_VALUE: pk_parse_key_pkcs8_encrypted_der:pwd <- $r6
	@DEBUG_VALUE: pk_parse_key_pkcs8_encrypted_der:pk <- $r5
	@DEBUG_VALUE: pk_parse_key_pkcs8_encrypted_der:ret <- $r0
	@DEBUG_VALUE: pk_parse_key_pkcs8_encrypted_der:p <- [DW_OP_plus_uconst 68, DW_OP_deref] $sp
	@DEBUG_VALUE: pk_parse_key_pkcs8_encrypted_der:len <- [DW_OP_plus_uconst 72, DW_OP_deref] $sp
	@DEBUG_VALUE: pk_parse_key_pkcs8_encrypted_der:pwdlen <- [DW_OP_plus_uconst 96] [$sp+0]
	@DEBUG_VALUE: pk_parse_key_pkcs8_encrypted_der:keylen <- [DW_OP_LLVM_entry_value 1] $r2
	@DEBUG_VALUE: pk_parse_key_pkcs8_encrypted_der:key <- [DW_OP_LLVM_entry_value 1] $r1
	@DEBUG_VALUE: pk_parse_key_pkcs8_encrypted_der:decrypted <- 0
	str	r5, [sp, #32]                   @ 4-byte Spill
.Ltmp553:
	@DEBUG_VALUE: pk_parse_key_pkcs8_encrypted_der:pk <- [DW_OP_plus_uconst 32] [$sp+0]
	.loc	9 1085 15 is_stmt 1             @ ../../../ThirdParty/mbedTLS/library/pkparse.c:1085:15
	ldr	r0, [sp, #72]
.Ltmp554:
	@DEBUG_VALUE: pk_parse_key_pkcs8_encrypted_der:len <- $r0
	.loc	9 1085 11 is_stmt 0             @ ../../../ThirdParty/mbedTLS/library/pkparse.c:1085:11
	ldr	r1, [sp, #68]
.Ltmp555:
	@DEBUG_VALUE: pk_parse_key_pkcs8_encrypted_der:p <- $r1
	.loc	9 1085 13                       @ ../../../ThirdParty/mbedTLS/library/pkparse.c:1085:13
	adds	r5, r1, r0
.Ltmp556:
	@DEBUG_VALUE: pk_parse_key_pkcs8_encrypted_der:end <- $r5
	@DEBUG_VALUE: pk_parse_key_pkcs8_encrypted_der:p <- [DW_OP_plus_uconst 68, DW_OP_deref] $sp
	.loc	9 0 13                          @ ../../../ThirdParty/mbedTLS/library/pkparse.c:0:13
	add	r0, sp, #68
.Ltmp557:
	add	r2, sp, #56
	add	r3, sp, #44
.Ltmp558:
	.loc	9 1087 17 is_stmt 1             @ ../../../ThirdParty/mbedTLS/library/pkparse.c:1087:17
	mov	r1, r5
	bl	mbedtls_asn1_get_alg
.Ltmp559:
	@DEBUG_VALUE: pk_parse_key_pkcs8_encrypted_der:ret <- $r0
	.loc	9 1087 9 is_stmt 0              @ ../../../ThirdParty/mbedTLS/library/pkparse.c:1087:9
	cbz	r0, .LBB11_6
.Ltmp560:
@ %bb.5:
	@DEBUG_VALUE: pk_parse_key_pkcs8_encrypted_der:pk <- [DW_OP_plus_uconst 32] [$sp+0]
	@DEBUG_VALUE: pk_parse_key_pkcs8_encrypted_der:pwd <- $r6
	@DEBUG_VALUE: pk_parse_key_pkcs8_encrypted_der:end <- $r5
	@DEBUG_VALUE: pk_parse_key_pkcs8_encrypted_der:ret <- $r0
	@DEBUG_VALUE: pk_parse_key_pkcs8_encrypted_der:p <- [DW_OP_plus_uconst 68, DW_OP_deref] $sp
	@DEBUG_VALUE: pk_parse_key_pkcs8_encrypted_der:pwdlen <- [DW_OP_plus_uconst 96] [$sp+0]
	@DEBUG_VALUE: pk_parse_key_pkcs8_encrypted_der:keylen <- [DW_OP_LLVM_entry_value 1] $r2
	@DEBUG_VALUE: pk_parse_key_pkcs8_encrypted_der:key <- [DW_OP_LLVM_entry_value 1] $r1
	@DEBUG_VALUE: pk_parse_key_pkcs8_encrypted_der:decrypted <- 0
	.loc	9 1088 51 is_stmt 1             @ ../../../ThirdParty/mbedTLS/library/pkparse.c:1088:51
	movw	r1, #15616
	subs	r5, r0, r1
.Ltmp561:
	.loc	9 1088 9 is_stmt 0              @ ../../../ThirdParty/mbedTLS/library/pkparse.c:1088:9
	b	.LBB11_8
.Ltmp562:
.LBB11_6:
	@DEBUG_VALUE: pk_parse_key_pkcs8_encrypted_der:pk <- [DW_OP_plus_uconst 32] [$sp+0]
	@DEBUG_VALUE: pk_parse_key_pkcs8_encrypted_der:pwd <- $r6
	@DEBUG_VALUE: pk_parse_key_pkcs8_encrypted_der:end <- $r5
	@DEBUG_VALUE: pk_parse_key_pkcs8_encrypted_der:ret <- $r0
	@DEBUG_VALUE: pk_parse_key_pkcs8_encrypted_der:p <- [DW_OP_plus_uconst 68, DW_OP_deref] $sp
	@DEBUG_VALUE: pk_parse_key_pkcs8_encrypted_der:pwdlen <- [DW_OP_plus_uconst 96] [$sp+0]
	@DEBUG_VALUE: pk_parse_key_pkcs8_encrypted_der:keylen <- [DW_OP_LLVM_entry_value 1] $r2
	@DEBUG_VALUE: pk_parse_key_pkcs8_encrypted_der:key <- [DW_OP_LLVM_entry_value 1] $r1
	@DEBUG_VALUE: pk_parse_key_pkcs8_encrypted_der:decrypted <- 0
	@DEBUG_VALUE: pk_parse_key_pkcs8_encrypted_der:p <- [DW_OP_plus_uconst 68, DW_OP_deref] $sp
	@DEBUG_VALUE: pk_parse_key_pkcs8_encrypted_der:len <- [DW_OP_plus_uconst 72, DW_OP_deref] $sp
	.loc	9 0 9                           @ ../../../ThirdParty/mbedTLS/library/pkparse.c:0:9
	add	r0, sp, #68
.Ltmp563:
	add	r2, sp, #72
	movs	r3, #4
.Ltmp564:
	.loc	9 1090 17 is_stmt 1             @ ../../../ThirdParty/mbedTLS/library/pkparse.c:1090:17
	mov	r1, r5
	bl	mbedtls_asn1_get_tag
.Ltmp565:
	@DEBUG_VALUE: pk_parse_key_pkcs8_encrypted_der:ret <- $r0
	.loc	9 1090 9 is_stmt 0              @ ../../../ThirdParty/mbedTLS/library/pkparse.c:1090:9
	cbz	r0, .LBB11_9
.Ltmp566:
@ %bb.7:
	@DEBUG_VALUE: pk_parse_key_pkcs8_encrypted_der:pk <- [DW_OP_plus_uconst 32] [$sp+0]
	@DEBUG_VALUE: pk_parse_key_pkcs8_encrypted_der:pwd <- $r6
	@DEBUG_VALUE: pk_parse_key_pkcs8_encrypted_der:end <- $r5
	@DEBUG_VALUE: pk_parse_key_pkcs8_encrypted_der:ret <- $r0
	@DEBUG_VALUE: pk_parse_key_pkcs8_encrypted_der:p <- [DW_OP_plus_uconst 68, DW_OP_deref] $sp
	@DEBUG_VALUE: pk_parse_key_pkcs8_encrypted_der:len <- [DW_OP_plus_uconst 72, DW_OP_deref] $sp
	@DEBUG_VALUE: pk_parse_key_pkcs8_encrypted_der:pwdlen <- [DW_OP_plus_uconst 96] [$sp+0]
	@DEBUG_VALUE: pk_parse_key_pkcs8_encrypted_der:keylen <- [DW_OP_LLVM_entry_value 1] $r2
	@DEBUG_VALUE: pk_parse_key_pkcs8_encrypted_der:key <- [DW_OP_LLVM_entry_value 1] $r1
	@DEBUG_VALUE: pk_parse_key_pkcs8_encrypted_der:decrypted <- 0
	.loc	9 1091 51 is_stmt 1             @ ../../../ThirdParty/mbedTLS/library/pkparse.c:1091:51
	movw	r1, #15616
	subs	r5, r0, r1
.Ltmp567:
.LBB11_8:
	@DEBUG_VALUE: pk_parse_key_pkcs8_encrypted_der:pwdlen <- [DW_OP_plus_uconst 96] [$sp+0]
	@DEBUG_VALUE: pk_parse_key_pkcs8_encrypted_der:decrypted <- 0
	.loc	9 1157 1                        @ ../../../ThirdParty/mbedTLS/library/pkparse.c:1157:1
	mov	r0, r5
	add	sp, #76
.Ltmp568:
	pop	{r4, r5, r6, r7, pc}
.Ltmp569:
.LBB11_9:
	@DEBUG_VALUE: pk_parse_key_pkcs8_encrypted_der:pk <- [DW_OP_plus_uconst 32] [$sp+0]
	@DEBUG_VALUE: pk_parse_key_pkcs8_encrypted_der:pwd <- $r6
	@DEBUG_VALUE: pk_parse_key_pkcs8_encrypted_der:end <- $r5
	@DEBUG_VALUE: pk_parse_key_pkcs8_encrypted_der:ret <- $r0
	@DEBUG_VALUE: pk_parse_key_pkcs8_encrypted_der:p <- [DW_OP_plus_uconst 68, DW_OP_deref] $sp
	@DEBUG_VALUE: pk_parse_key_pkcs8_encrypted_der:len <- [DW_OP_plus_uconst 72, DW_OP_deref] $sp
	@DEBUG_VALUE: pk_parse_key_pkcs8_encrypted_der:pwdlen <- [DW_OP_plus_uconst 96] [$sp+0]
	@DEBUG_VALUE: pk_parse_key_pkcs8_encrypted_der:keylen <- [DW_OP_LLVM_entry_value 1] $r2
	@DEBUG_VALUE: pk_parse_key_pkcs8_encrypted_der:key <- [DW_OP_LLVM_entry_value 1] $r1
	@DEBUG_VALUE: pk_parse_key_pkcs8_encrypted_der:decrypted <- 0
	.loc	9 1093 11                       @ ../../../ThirdParty/mbedTLS/library/pkparse.c:1093:11
	ldr	r5, [sp, #68]
.Ltmp570:
	@DEBUG_VALUE: pk_parse_key_pkcs8_encrypted_der:md_alg <- [DW_OP_plus_uconst 36, DW_OP_deref] $sp
	@DEBUG_VALUE: pk_parse_key_pkcs8_encrypted_der:cipher_alg <- [DW_OP_plus_uconst 40, DW_OP_deref] $sp
	@DEBUG_VALUE: pk_parse_key_pkcs8_encrypted_der:buf <- $r5
	@DEBUG_VALUE: pk_parse_key_pkcs8_encrypted_der:p <- $r5
	.loc	9 0 11 is_stmt 0                @ ../../../ThirdParty/mbedTLS/library/pkparse.c:0:11
	add	r0, sp, #56
.Ltmp571:
	add	r1, sp, #36
	add	r2, sp, #40
.Ltmp572:
	.loc	9 1099 9 is_stmt 1              @ ../../../ThirdParty/mbedTLS/library/pkparse.c:1099:9
	bl	mbedtls_oid_get_pkcs12_pbe_alg
.Ltmp573:
	.loc	9 1099 9 is_stmt 0              @ ../../../ThirdParty/mbedTLS/library/pkparse.c:1099:9
	str	r5, [sp, #28]                   @ 4-byte Spill
	cbz	r0, .LBB11_16
.Ltmp574:
@ %bb.10:
	@DEBUG_VALUE: pk_parse_key_pkcs8_encrypted_der:pk <- [DW_OP_plus_uconst 32] [$sp+0]
	@DEBUG_VALUE: pk_parse_key_pkcs8_encrypted_der:pwd <- $r6
	@DEBUG_VALUE: pk_parse_key_pkcs8_encrypted_der:p <- $r5
	@DEBUG_VALUE: pk_parse_key_pkcs8_encrypted_der:buf <- $r5
	@DEBUG_VALUE: pk_parse_key_pkcs8_encrypted_der:cipher_alg <- [DW_OP_plus_uconst 40, DW_OP_deref] $sp
	@DEBUG_VALUE: pk_parse_key_pkcs8_encrypted_der:md_alg <- [DW_OP_plus_uconst 36, DW_OP_deref] $sp
	@DEBUG_VALUE: pk_parse_key_pkcs8_encrypted_der:len <- [DW_OP_plus_uconst 72, DW_OP_deref] $sp
	@DEBUG_VALUE: pk_parse_key_pkcs8_encrypted_der:pwdlen <- [DW_OP_plus_uconst 96] [$sp+0]
	@DEBUG_VALUE: pk_parse_key_pkcs8_encrypted_der:keylen <- [DW_OP_LLVM_entry_value 1] $r2
	@DEBUG_VALUE: pk_parse_key_pkcs8_encrypted_der:key <- [DW_OP_LLVM_entry_value 1] $r1
	@DEBUG_VALUE: pk_parse_key_pkcs8_encrypted_der:decrypted <- 0
	.loc	9 1113 14 is_stmt 1             @ ../../../ThirdParty/mbedTLS/library/pkparse.c:1113:14
	ldr	r0, [sp, #60]
	ldr	r5, __arm_cp.11_1
.Ltmp575:
	cmp	r0, #9
	beq	.LBB11_14
.Ltmp576:
@ %bb.11:
	@DEBUG_VALUE: pk_parse_key_pkcs8_encrypted_der:pk <- [DW_OP_plus_uconst 32] [$sp+0]
	@DEBUG_VALUE: pk_parse_key_pkcs8_encrypted_der:pwd <- $r6
	@DEBUG_VALUE: pk_parse_key_pkcs8_encrypted_der:cipher_alg <- [DW_OP_plus_uconst 40, DW_OP_deref] $sp
	@DEBUG_VALUE: pk_parse_key_pkcs8_encrypted_der:md_alg <- [DW_OP_plus_uconst 36, DW_OP_deref] $sp
	@DEBUG_VALUE: pk_parse_key_pkcs8_encrypted_der:len <- [DW_OP_plus_uconst 72, DW_OP_deref] $sp
	@DEBUG_VALUE: pk_parse_key_pkcs8_encrypted_der:pwdlen <- [DW_OP_plus_uconst 96] [$sp+0]
	@DEBUG_VALUE: pk_parse_key_pkcs8_encrypted_der:keylen <- [DW_OP_LLVM_entry_value 1] $r2
	@DEBUG_VALUE: pk_parse_key_pkcs8_encrypted_der:key <- [DW_OP_LLVM_entry_value 1] $r1
	@DEBUG_VALUE: pk_parse_key_pkcs8_encrypted_der:decrypted <- 0
	cmp	r0, #10
	bne	.LBB11_8
.Ltmp577:
@ %bb.12:
	@DEBUG_VALUE: pk_parse_key_pkcs8_encrypted_der:pk <- [DW_OP_plus_uconst 32] [$sp+0]
	@DEBUG_VALUE: pk_parse_key_pkcs8_encrypted_der:pwd <- $r6
	@DEBUG_VALUE: pk_parse_key_pkcs8_encrypted_der:cipher_alg <- [DW_OP_plus_uconst 40, DW_OP_deref] $sp
	@DEBUG_VALUE: pk_parse_key_pkcs8_encrypted_der:md_alg <- [DW_OP_plus_uconst 36, DW_OP_deref] $sp
	@DEBUG_VALUE: pk_parse_key_pkcs8_encrypted_der:len <- [DW_OP_plus_uconst 72, DW_OP_deref] $sp
	@DEBUG_VALUE: pk_parse_key_pkcs8_encrypted_der:pwdlen <- [DW_OP_plus_uconst 96] [$sp+0]
	@DEBUG_VALUE: pk_parse_key_pkcs8_encrypted_der:keylen <- [DW_OP_LLVM_entry_value 1] $r2
	@DEBUG_VALUE: pk_parse_key_pkcs8_encrypted_der:key <- [DW_OP_LLVM_entry_value 1] $r1
	@DEBUG_VALUE: pk_parse_key_pkcs8_encrypted_der:decrypted <- 0
	.loc	9 0 14 is_stmt 0                @ ../../../ThirdParty/mbedTLS/library/pkparse.c:0:14
	str	r0, [sp, #24]                   @ 4-byte Spill
	.loc	9 1113 14                       @ ../../../ThirdParty/mbedTLS/library/pkparse.c:1113:14
	ldr	r1, [sp, #64]
	adr	r0, .LCPI11_2
	movs	r2, #10
	bl	memcmp
.Ltmp578:
	.loc	9 1113 14                       @ ../../../ThirdParty/mbedTLS/library/pkparse.c:1113:14
	cbz	r0, .LBB11_20
.Ltmp579:
@ %bb.13:
	@DEBUG_VALUE: pk_parse_key_pkcs8_encrypted_der:pk <- [DW_OP_plus_uconst 32] [$sp+0]
	@DEBUG_VALUE: pk_parse_key_pkcs8_encrypted_der:pwd <- $r6
	@DEBUG_VALUE: pk_parse_key_pkcs8_encrypted_der:cipher_alg <- [DW_OP_plus_uconst 40, DW_OP_deref] $sp
	@DEBUG_VALUE: pk_parse_key_pkcs8_encrypted_der:md_alg <- [DW_OP_plus_uconst 36, DW_OP_deref] $sp
	@DEBUG_VALUE: pk_parse_key_pkcs8_encrypted_der:len <- [DW_OP_plus_uconst 72, DW_OP_deref] $sp
	@DEBUG_VALUE: pk_parse_key_pkcs8_encrypted_der:pwdlen <- [DW_OP_plus_uconst 96] [$sp+0]
	@DEBUG_VALUE: pk_parse_key_pkcs8_encrypted_der:keylen <- [DW_OP_LLVM_entry_value 1] $r2
	@DEBUG_VALUE: pk_parse_key_pkcs8_encrypted_der:key <- [DW_OP_LLVM_entry_value 1] $r1
	@DEBUG_VALUE: pk_parse_key_pkcs8_encrypted_der:decrypted <- 0
	.loc	9 1134 13 is_stmt 1             @ ../../../ThirdParty/mbedTLS/library/pkparse.c:1134:13
	ldr	r0, [sp, #24]                   @ 4-byte Reload
	cmp	r0, #9
	bne	.LBB11_8
.Ltmp580:
.LBB11_14:
	@DEBUG_VALUE: pk_parse_key_pkcs8_encrypted_der:pk <- [DW_OP_plus_uconst 32] [$sp+0]
	@DEBUG_VALUE: pk_parse_key_pkcs8_encrypted_der:pwd <- $r6
	@DEBUG_VALUE: pk_parse_key_pkcs8_encrypted_der:cipher_alg <- [DW_OP_plus_uconst 40, DW_OP_deref] $sp
	@DEBUG_VALUE: pk_parse_key_pkcs8_encrypted_der:md_alg <- [DW_OP_plus_uconst 36, DW_OP_deref] $sp
	@DEBUG_VALUE: pk_parse_key_pkcs8_encrypted_der:len <- [DW_OP_plus_uconst 72, DW_OP_deref] $sp
	@DEBUG_VALUE: pk_parse_key_pkcs8_encrypted_der:pwdlen <- [DW_OP_plus_uconst 96] [$sp+0]
	@DEBUG_VALUE: pk_parse_key_pkcs8_encrypted_der:keylen <- [DW_OP_LLVM_entry_value 1] $r2
	@DEBUG_VALUE: pk_parse_key_pkcs8_encrypted_der:key <- [DW_OP_LLVM_entry_value 1] $r1
	@DEBUG_VALUE: pk_parse_key_pkcs8_encrypted_der:decrypted <- 0
	ldr	r1, [sp, #64]
	adr	r0, .LCPI11_3
	movs	r2, #9
	bl	memcmp
.Ltmp581:
	.loc	9 1134 13 is_stmt 0             @ ../../../ThirdParty/mbedTLS/library/pkparse.c:1134:13
	cmp	r0, #0
	bne	.LBB11_8
.Ltmp582:
@ %bb.15:
	@DEBUG_VALUE: pk_parse_key_pkcs8_encrypted_der:pk <- [DW_OP_plus_uconst 32] [$sp+0]
	@DEBUG_VALUE: pk_parse_key_pkcs8_encrypted_der:pwd <- $r6
	@DEBUG_VALUE: pk_parse_key_pkcs8_encrypted_der:cipher_alg <- [DW_OP_plus_uconst 40, DW_OP_deref] $sp
	@DEBUG_VALUE: pk_parse_key_pkcs8_encrypted_der:md_alg <- [DW_OP_plus_uconst 36, DW_OP_deref] $sp
	@DEBUG_VALUE: pk_parse_key_pkcs8_encrypted_der:len <- [DW_OP_plus_uconst 72, DW_OP_deref] $sp
	@DEBUG_VALUE: pk_parse_key_pkcs8_encrypted_der:pwdlen <- [DW_OP_plus_uconst 96] [$sp+0]
	@DEBUG_VALUE: pk_parse_key_pkcs8_encrypted_der:keylen <- [DW_OP_LLVM_entry_value 1] $r2
	@DEBUG_VALUE: pk_parse_key_pkcs8_encrypted_der:key <- [DW_OP_LLVM_entry_value 1] $r1
	@DEBUG_VALUE: pk_parse_key_pkcs8_encrypted_der:decrypted <- 0
	.loc	9 1137 46 is_stmt 1             @ ../../../ThirdParty/mbedTLS/library/pkparse.c:1137:46
	ldr	r0, [sp, #68]
.Ltmp583:
	@DEBUG_VALUE: pk_parse_key_pkcs8_encrypted_der:p <- $r0
	.loc	9 1137 49 is_stmt 0             @ ../../../ThirdParty/mbedTLS/library/pkparse.c:1137:49
	ldr	r1, [sp, #72]
.Ltmp584:
	@DEBUG_VALUE: pk_parse_key_pkcs8_encrypted_der:len <- $r1
	.loc	9 1136 25 is_stmt 1             @ ../../../ThirdParty/mbedTLS/library/pkparse.c:1136:25
	str	r0, [sp]
	str	r1, [sp, #4]
	ldr	r0, [sp, #28]                   @ 4-byte Reload
.Ltmp585:
	str	r0, [sp, #8]
	add	r0, sp, #44
	movs	r1, #0
.Ltmp586:
	mov	r2, r6
	mov	r3, r7
	bl	mbedtls_pkcs5_pbes2
.Ltmp587:
	@DEBUG_VALUE: pk_parse_key_pkcs8_encrypted_der:ret <- $r0
	.loc	9 0 25 is_stmt 0                @ ../../../ThirdParty/mbedTLS/library/pkparse.c:0:25
	ldr	r1, __arm_cp.11_4
	b	.LBB11_17
.Ltmp588:
.LBB11_16:
	@DEBUG_VALUE: pk_parse_key_pkcs8_encrypted_der:pk <- [DW_OP_plus_uconst 32] [$sp+0]
	@DEBUG_VALUE: pk_parse_key_pkcs8_encrypted_der:pwd <- $r6
	@DEBUG_VALUE: pk_parse_key_pkcs8_encrypted_der:p <- $r5
	@DEBUG_VALUE: pk_parse_key_pkcs8_encrypted_der:buf <- $r5
	@DEBUG_VALUE: pk_parse_key_pkcs8_encrypted_der:cipher_alg <- [DW_OP_plus_uconst 40, DW_OP_deref] $sp
	@DEBUG_VALUE: pk_parse_key_pkcs8_encrypted_der:md_alg <- [DW_OP_plus_uconst 36, DW_OP_deref] $sp
	@DEBUG_VALUE: pk_parse_key_pkcs8_encrypted_der:len <- [DW_OP_plus_uconst 72, DW_OP_deref] $sp
	@DEBUG_VALUE: pk_parse_key_pkcs8_encrypted_der:pwdlen <- [DW_OP_plus_uconst 96] [$sp+0]
	@DEBUG_VALUE: pk_parse_key_pkcs8_encrypted_der:keylen <- [DW_OP_LLVM_entry_value 1] $r2
	@DEBUG_VALUE: pk_parse_key_pkcs8_encrypted_der:key <- [DW_OP_LLVM_entry_value 1] $r1
	@DEBUG_VALUE: pk_parse_key_pkcs8_encrypted_der:decrypted <- 0
	add	r0, sp, #36
.Ltmp589:
	@DEBUG_VALUE: pk_parse_key_pkcs8_encrypted_der:cipher_alg <- undef
	.loc	9 1102 53 is_stmt 1             @ ../../../ThirdParty/mbedTLS/library/pkparse.c:1102:53
	ldrb	r3, [r0]
	add	r0, sp, #40
	.loc	9 1102 41 is_stmt 0             @ ../../../ThirdParty/mbedTLS/library/pkparse.c:1102:41
	ldrb	r2, [r0]
.Ltmp590:
	@DEBUG_VALUE: pk_parse_key_pkcs8_encrypted_der:md_alg <- undef
	.loc	9 1103 54 is_stmt 1             @ ../../../ThirdParty/mbedTLS/library/pkparse.c:1103:54
	ldr	r0, [sp, #68]
.Ltmp591:
	@DEBUG_VALUE: pk_parse_key_pkcs8_encrypted_der:p <- $r0
	.loc	9 1103 57 is_stmt 0             @ ../../../ThirdParty/mbedTLS/library/pkparse.c:1103:57
	ldr	r1, [sp, #72]
.Ltmp592:
	@DEBUG_VALUE: pk_parse_key_pkcs8_encrypted_der:len <- $r1
	.loc	9 1101 21 is_stmt 1             @ ../../../ThirdParty/mbedTLS/library/pkparse.c:1101:21
	str	r6, [sp]
	str	r7, [sp, #4]
	add	r6, sp, #8
.Ltmp593:
	@DEBUG_VALUE: pk_parse_key_pkcs8_encrypted_der:pwd <- [DW_OP_LLVM_entry_value 1] $r3
	stm	r6!, {r0, r1, r5}
	add	r0, sp, #44
.Ltmp594:
	.loc	9 0 21 is_stmt 0                @ ../../../ThirdParty/mbedTLS/library/pkparse.c:0:21
	movs	r1, #0
.Ltmp595:
	.loc	9 1101 21                       @ ../../../ThirdParty/mbedTLS/library/pkparse.c:1101:21
	bl	mbedtls_pkcs12_pbe
.Ltmp596:
	@DEBUG_VALUE: pk_parse_key_pkcs8_encrypted_der:ret <- $r0
	.loc	9 0 21                          @ ../../../ThirdParty/mbedTLS/library/pkparse.c:0:21
	ldr	r1, __arm_cp.11_5
.Ltmp597:
.LBB11_17:
	@DEBUG_VALUE: pk_parse_key_pkcs8_encrypted_der:pk <- [DW_OP_plus_uconst 32] [$sp+0]
	@DEBUG_VALUE: pk_parse_key_pkcs8_encrypted_der:ret <- $r0
	@DEBUG_VALUE: pk_parse_key_pkcs8_encrypted_der:pwdlen <- [DW_OP_plus_uconst 96] [$sp+0]
	@DEBUG_VALUE: pk_parse_key_pkcs8_encrypted_der:keylen <- [DW_OP_LLVM_entry_value 1] $r2
	@DEBUG_VALUE: pk_parse_key_pkcs8_encrypted_der:key <- [DW_OP_LLVM_entry_value 1] $r1
	@DEBUG_VALUE: pk_parse_key_pkcs8_encrypted_der:decrypted <- 0
	cmp	r0, r1
.Ltmp598:
	mov	r5, r4
.Ltmp599:
	beq	.LBB11_8
.Ltmp600:
@ %bb.18:
	@DEBUG_VALUE: pk_parse_key_pkcs8_encrypted_der:pk <- [DW_OP_plus_uconst 32] [$sp+0]
	@DEBUG_VALUE: pk_parse_key_pkcs8_encrypted_der:ret <- $r0
	@DEBUG_VALUE: pk_parse_key_pkcs8_encrypted_der:pwdlen <- [DW_OP_plus_uconst 96] [$sp+0]
	@DEBUG_VALUE: pk_parse_key_pkcs8_encrypted_der:keylen <- [DW_OP_LLVM_entry_value 1] $r2
	@DEBUG_VALUE: pk_parse_key_pkcs8_encrypted_der:key <- [DW_OP_LLVM_entry_value 1] $r1
	@DEBUG_VALUE: pk_parse_key_pkcs8_encrypted_der:decrypted <- 0
	cmp	r0, #0
.Ltmp601:
	mov	r5, r0
.Ltmp602:
	@DEBUG_VALUE: pk_parse_key_pkcs8_encrypted_der:ret <- $r5
	bne	.LBB11_8
.Ltmp603:
.LBB11_19:
	@DEBUG_VALUE: pk_parse_key_pkcs8_encrypted_der:pk <- [DW_OP_plus_uconst 32] [$sp+0]
	@DEBUG_VALUE: pk_parse_key_pkcs8_encrypted_der:pwdlen <- [DW_OP_plus_uconst 96] [$sp+0]
	@DEBUG_VALUE: pk_parse_key_pkcs8_encrypted_der:keylen <- [DW_OP_LLVM_entry_value 1] $r2
	@DEBUG_VALUE: pk_parse_key_pkcs8_encrypted_der:key <- [DW_OP_LLVM_entry_value 1] $r1
	@DEBUG_VALUE: pk_parse_key_pkcs8_encrypted_der:decrypted <- 0
	.loc	9 1156 58 is_stmt 1             @ ../../../ThirdParty/mbedTLS/library/pkparse.c:1156:58
	ldr	r2, [sp, #72]
.Ltmp604:
	@DEBUG_VALUE: pk_parse_key_pkcs8_encrypted_der:len <- $r2
	.loc	9 1156 13 is_stmt 0             @ ../../../ThirdParty/mbedTLS/library/pkparse.c:1156:13
	ldr	r0, [sp, #32]                   @ 4-byte Reload
.Ltmp605:
	@DEBUG_VALUE: pk_parse_key_pkcs8_encrypted_der:pk <- $r0
	ldr	r1, [sp, #28]                   @ 4-byte Reload
	bl	pk_parse_key_pkcs8_unencrypted_der
.Ltmp606:
	@DEBUG_VALUE: pk_parse_key_pkcs8_encrypted_der:pk <- [DW_OP_LLVM_entry_value 1] $r0
	mov	r5, r0
	b	.LBB11_8
.Ltmp607:
.LBB11_20:
	@DEBUG_VALUE: pk_parse_key_pkcs8_encrypted_der:pk <- [DW_OP_plus_uconst 32] [$sp+0]
	@DEBUG_VALUE: pk_parse_key_pkcs8_encrypted_der:pwd <- $r6
	@DEBUG_VALUE: pk_parse_key_pkcs8_encrypted_der:cipher_alg <- [DW_OP_plus_uconst 40, DW_OP_deref] $sp
	@DEBUG_VALUE: pk_parse_key_pkcs8_encrypted_der:md_alg <- [DW_OP_plus_uconst 36, DW_OP_deref] $sp
	@DEBUG_VALUE: pk_parse_key_pkcs8_encrypted_der:len <- [DW_OP_plus_uconst 72, DW_OP_deref] $sp
	@DEBUG_VALUE: pk_parse_key_pkcs8_encrypted_der:pwdlen <- [DW_OP_plus_uconst 96] [$sp+0]
	@DEBUG_VALUE: pk_parse_key_pkcs8_encrypted_der:keylen <- [DW_OP_LLVM_entry_value 1] $r2
	@DEBUG_VALUE: pk_parse_key_pkcs8_encrypted_der:key <- [DW_OP_LLVM_entry_value 1] $r1
	@DEBUG_VALUE: pk_parse_key_pkcs8_encrypted_der:decrypted <- 0
	.loc	9 1118 21 is_stmt 1             @ ../../../ThirdParty/mbedTLS/library/pkparse.c:1118:21
	ldr	r0, [sp, #68]
.Ltmp608:
	@DEBUG_VALUE: pk_parse_key_pkcs8_encrypted_der:p <- $r0
	.loc	9 1118 24 is_stmt 0             @ ../../../ThirdParty/mbedTLS/library/pkparse.c:1118:24
	ldr	r1, [sp, #72]
.Ltmp609:
	@DEBUG_VALUE: pk_parse_key_pkcs8_encrypted_der:len <- $r1
	.loc	9 1115 21 is_stmt 1             @ ../../../ThirdParty/mbedTLS/library/pkparse.c:1115:21
	str	r0, [sp]
	str	r1, [sp, #4]
	ldr	r0, [sp, #28]                   @ 4-byte Reload
.Ltmp610:
	str	r0, [sp, #8]
	add	r0, sp, #44
	movs	r1, #0
.Ltmp611:
	mov	r2, r6
	mov	r3, r7
	bl	mbedtls_pkcs12_pbe_sha1_rc4_128
	mov	r5, r0
.Ltmp612:
	@DEBUG_VALUE: pk_parse_key_pkcs8_encrypted_der:ret <- $r5
	.loc	9 1115 13 is_stmt 0             @ ../../../ThirdParty/mbedTLS/library/pkparse.c:1115:13
	cmp	r0, #0
	bne	.LBB11_8
.Ltmp613:
@ %bb.21:
	@DEBUG_VALUE: pk_parse_key_pkcs8_encrypted_der:pk <- [DW_OP_plus_uconst 32] [$sp+0]
	@DEBUG_VALUE: pk_parse_key_pkcs8_encrypted_der:pwd <- $r6
	@DEBUG_VALUE: pk_parse_key_pkcs8_encrypted_der:ret <- $r5
	@DEBUG_VALUE: pk_parse_key_pkcs8_encrypted_der:cipher_alg <- [DW_OP_plus_uconst 40, DW_OP_deref] $sp
	@DEBUG_VALUE: pk_parse_key_pkcs8_encrypted_der:md_alg <- [DW_OP_plus_uconst 36, DW_OP_deref] $sp
	@DEBUG_VALUE: pk_parse_key_pkcs8_encrypted_der:pwdlen <- [DW_OP_plus_uconst 96] [$sp+0]
	@DEBUG_VALUE: pk_parse_key_pkcs8_encrypted_der:keylen <- [DW_OP_LLVM_entry_value 1] $r2
	@DEBUG_VALUE: pk_parse_key_pkcs8_encrypted_der:key <- [DW_OP_LLVM_entry_value 1] $r1
	@DEBUG_VALUE: pk_parse_key_pkcs8_encrypted_der:decrypted <- 0
	.loc	9 1126 13 is_stmt 1             @ ../../../ThirdParty/mbedTLS/library/pkparse.c:1126:13
	ldr	r0, [sp, #28]                   @ 4-byte Reload
	ldrb	r0, [r0]
.Ltmp614:
	.loc	9 1126 13 is_stmt 0             @ ../../../ThirdParty/mbedTLS/library/pkparse.c:1126:13
	cmp	r0, #48
.Ltmp615:
	.loc	9 0 0                           @ ../../../ThirdParty/mbedTLS/library/pkparse.c:0:0
	mov	r5, r4
.Ltmp616:
	.loc	9 1126 13                       @ ../../../ThirdParty/mbedTLS/library/pkparse.c:1126:13
	bne	.LBB11_8
	b	.LBB11_19
.Ltmp617:
	.p2align	2
@ %bb.22:
	.loc	9 0 13                          @ ../../../ThirdParty/mbedTLS/library/pkparse.c:0:13
__arm_cp.11_0:
	.long	4294952064                      @ 0xffffc480
.Lcpi_end23:
	.size	__arm_cp.11_0, .Lcpi_end23-__arm_cp.11_0
__arm_cp.11_1:
	.long	4294952576                      @ 0xffffc680
.Lcpi_end24:
	.size	__arm_cp.11_1, .Lcpi_end24-__arm_cp.11_1
.LCPI11_2:
.L.str.13:
	.asciz	"*\206H\206\367\r\001\f\001\001\000"
.LCPI11_3:
.L.str.14:
	.asciz	"*\206H\206\367\r\001\005\r\000\000"
__arm_cp.11_4:
	.long	4294955520                      @ 0xffffd200
.Lcpi_end25:
	.size	__arm_cp.11_4, .Lcpi_end25-__arm_cp.11_4
__arm_cp.11_5:
	.long	4294959616                      @ 0xffffe200
.Lcpi_end26:
	.size	__arm_cp.11_5, .Lcpi_end26-__arm_cp.11_5
.Lfunc_end11:
	.size	pk_parse_key_pkcs8_encrypted_der, .Lfunc_end11-pk_parse_key_pkcs8_encrypted_der
	.cfi_endproc
	.cantunwind
	.fnend
                                        @ -- End function
	.section	.text.mbedtls_pk_parse_public_key,"ax",%progbits
	.hidden	mbedtls_pk_parse_public_key     @ -- Begin function mbedtls_pk_parse_public_key
	.globl	mbedtls_pk_parse_public_key
	.p2align	2
	.type	mbedtls_pk_parse_public_key,%function
	.code	16                              @ @mbedtls_pk_parse_public_key
	.thumb_func
mbedtls_pk_parse_public_key:
.Lfunc_begin12:
	.loc	9 1378 0 is_stmt 1              @ ../../../ThirdParty/mbedTLS/library/pkparse.c:1378:0
	.fnstart
	.cfi_startproc
@ %bb.0:
	@DEBUG_VALUE: mbedtls_pk_parse_public_key:ctx <- $r0
	@DEBUG_VALUE: mbedtls_pk_parse_public_key:key <- $r1
	@DEBUG_VALUE: mbedtls_pk_parse_public_key:keylen <- $r2
	.save	{r4, r5, r6, r7, lr}
	push	{r4, r5, r6, r7, lr}
	.cfi_def_cfa_offset 20
	.cfi_offset lr, -4
	.cfi_offset r7, -8
	.cfi_offset r6, -12
	.cfi_offset r5, -16
	.cfi_offset r4, -20
	.pad	#44
	sub	sp, #44
	.cfi_def_cfa_offset 64
	ldr	r4, __arm_cp.12_0
	@DEBUG_VALUE: mbedtls_pk_parse_public_key:keylen <- $r2
	@DEBUG_VALUE: mbedtls_pk_parse_public_key:key <- $r1
	@DEBUG_VALUE: mbedtls_pk_parse_public_key:ctx <- $r0
.Ltmp618:
	.loc	9 1390 9 prologue_end           @ ../../../ThirdParty/mbedTLS/library/pkparse.c:1390:9
	cbz	r2, .LBB12_9
.Ltmp619:
@ %bb.1:
	@DEBUG_VALUE: mbedtls_pk_parse_public_key:keylen <- $r2
	@DEBUG_VALUE: mbedtls_pk_parse_public_key:key <- $r1
	@DEBUG_VALUE: mbedtls_pk_parse_public_key:ctx <- $r0
	.loc	9 0 9 is_stmt 0                 @ ../../../ThirdParty/mbedTLS/library/pkparse.c:0:9
	mov	r7, r2
.Ltmp620:
	@DEBUG_VALUE: mbedtls_pk_parse_public_key:keylen <- $r7
	mov	r5, r1
.Ltmp621:
	@DEBUG_VALUE: mbedtls_pk_parse_public_key:key <- $r5
	str	r0, [sp, #16]                   @ 4-byte Spill
.Ltmp622:
	@DEBUG_VALUE: mbedtls_pk_parse_public_key:ctx <- [DW_OP_plus_uconst 16] [$sp+0]
	add	r0, sp, #24
	.loc	9 1395 5 is_stmt 1              @ ../../../ThirdParty/mbedTLS/library/pkparse.c:1395:5
	bl	mbedtls_pem_init
.Ltmp623:
	.loc	9 1398 20                       @ ../../../ThirdParty/mbedTLS/library/pkparse.c:1398:20
	subs	r6, r7, #1
	str	r5, [sp, #20]                   @ 4-byte Spill
.Ltmp624:
	@DEBUG_VALUE: mbedtls_pk_parse_public_key:key <- [DW_OP_plus_uconst 20] [$sp+0]
	.loc	9 1398 9 is_stmt 0              @ ../../../ThirdParty/mbedTLS/library/pkparse.c:1398:9
	ldrb	r0, [r5, r6]
	ldr	r1, __arm_cp.12_1
	.loc	9 0 0                           @ ../../../ThirdParty/mbedTLS/library/pkparse.c:0:0
	mov	r5, r1
.Ltmp625:
	.loc	9 1398 9                        @ ../../../ThirdParty/mbedTLS/library/pkparse.c:1398:9
	cbz	r0, .LBB12_10
.Ltmp626:
@ %bb.2:
	@DEBUG_VALUE: mbedtls_pk_parse_public_key:key <- [DW_OP_plus_uconst 20] [$sp+0]
	@DEBUG_VALUE: mbedtls_pk_parse_public_key:ctx <- [DW_OP_plus_uconst 16] [$sp+0]
	@DEBUG_VALUE: mbedtls_pk_parse_public_key:keylen <- $r7
	@DEBUG_VALUE: mbedtls_pk_parse_public_key:ret <- $r5
	.loc	9 1406 9 is_stmt 1              @ ../../../ThirdParty/mbedTLS/library/pkparse.c:1406:9
	cmp	r5, r1
	beq	.LBB12_11
.Ltmp627:
.LBB12_3:
	@DEBUG_VALUE: mbedtls_pk_parse_public_key:ctx <- [DW_OP_plus_uconst 16] [$sp+0]
	@DEBUG_VALUE: mbedtls_pk_parse_public_key:keylen <- $r7
	@DEBUG_VALUE: mbedtls_pk_parse_public_key:ret <- $r5
	cmp	r5, #0
	bne	.LBB12_16
.Ltmp628:
@ %bb.4:
	@DEBUG_VALUE: mbedtls_pk_parse_public_key:ctx <- [DW_OP_plus_uconst 16] [$sp+0]
	@DEBUG_VALUE: mbedtls_pk_parse_public_key:keylen <- $r7
	@DEBUG_VALUE: mbedtls_pk_parse_public_key:ret <- $r5
	.loc	9 1408 17                       @ ../../../ThirdParty/mbedTLS/library/pkparse.c:1408:17
	ldr	r0, [sp, #24]
.Ltmp629:
	@DEBUG_VALUE: mbedtls_pk_parse_public_key:p <- undef
	.loc	9 1408 11 is_stmt 0             @ ../../../ThirdParty/mbedTLS/library/pkparse.c:1408:11
	str	r0, [sp, #40]
	movs	r0, #1
.Ltmp630:
	.loc	9 1409 25 is_stmt 1             @ ../../../ThirdParty/mbedTLS/library/pkparse.c:1409:25
	bl	mbedtls_pk_info_from_type
.Ltmp631:
	@DEBUG_VALUE: mbedtls_pk_parse_public_key:pk_info <- $r0
	.loc	9 1409 13 is_stmt 0             @ ../../../ThirdParty/mbedTLS/library/pkparse.c:1409:13
	cmp	r0, #0
	ldr	r6, [sp, #16]                   @ 4-byte Reload
.Ltmp632:
	@DEBUG_VALUE: mbedtls_pk_parse_public_key:ctx <- $r6
	.loc	9 0 13                          @ ../../../ThirdParty/mbedTLS/library/pkparse.c:0:13
	bne	.LBB12_5
	b	.LBB12_23
.Ltmp633:
.LBB12_5:
	@DEBUG_VALUE: mbedtls_pk_parse_public_key:keylen <- $r7
	@DEBUG_VALUE: mbedtls_pk_parse_public_key:ctx <- $r6
	@DEBUG_VALUE: mbedtls_pk_parse_public_key:ret <- $r5
	@DEBUG_VALUE: mbedtls_pk_parse_public_key:pk_info <- $r0
	mov	r1, r0
.Ltmp634:
	@DEBUG_VALUE: mbedtls_pk_parse_public_key:pk_info <- $r1
	.loc	9 1412 21 is_stmt 1             @ ../../../ThirdParty/mbedTLS/library/pkparse.c:1412:21
	mov	r0, r6
	bl	mbedtls_pk_setup
.Ltmp635:
	mov	r4, r0
.Ltmp636:
	@DEBUG_VALUE: mbedtls_pk_parse_public_key:ret <- $r4
	.loc	9 1412 13 is_stmt 0             @ ../../../ThirdParty/mbedTLS/library/pkparse.c:1412:13
	cmp	r0, #0
	beq	.LBB12_6
	b	.LBB12_23
.Ltmp637:
.LBB12_6:
	@DEBUG_VALUE: mbedtls_pk_parse_public_key:keylen <- $r7
	@DEBUG_VALUE: mbedtls_pk_parse_public_key:ctx <- $r6
	@DEBUG_VALUE: mbedtls_pk_parse_public_key:ret <- $r4
	.loc	9 1415 60 is_stmt 1             @ ../../../ThirdParty/mbedTLS/library/pkparse.c:1415:60
	ldm	r6!, {r0, r1}
.Ltmp638:
	.loc	9 1415 52 is_stmt 0             @ ../../../ThirdParty/mbedTLS/library/pkparse.c:1415:52
	ldr	r4, [sp, #28]
.Ltmp639:
	.loc	9 1415 44                       @ ../../../ThirdParty/mbedTLS/library/pkparse.c:1415:44
	ldr	r5, [sp, #40]
.Ltmp640:
	@DEBUG_VALUE: mbedtls_pk_parse_public_key:p <- $r5
	.loc	9 1415 60                       @ ../../../ThirdParty/mbedTLS/library/pkparse.c:1415:60
	subs	r6, #8
	bl	mbedtls_pk_rsa
	mov	r2, r0
	.loc	9 1415 46                       @ ../../../ThirdParty/mbedTLS/library/pkparse.c:1415:46
	adds	r1, r5, r4
.Ltmp641:
	@DEBUG_VALUE: mbedtls_pk_parse_public_key:p <- [DW_OP_plus_uconst 40, DW_OP_deref] $sp
	.loc	9 0 46                          @ ../../../ThirdParty/mbedTLS/library/pkparse.c:0:46
	add	r0, sp, #40
	.loc	9 1415 22                       @ ../../../ThirdParty/mbedTLS/library/pkparse.c:1415:22
	bl	pk_get_rsapubkey
	mov	r4, r0
.Ltmp642:
	@DEBUG_VALUE: mbedtls_pk_parse_public_key:ret <- $r4
	.loc	9 1415 14                       @ ../../../ThirdParty/mbedTLS/library/pkparse.c:1415:14
	cbz	r0, .LBB12_8
.Ltmp643:
@ %bb.7:
	@DEBUG_VALUE: mbedtls_pk_parse_public_key:keylen <- $r7
	@DEBUG_VALUE: mbedtls_pk_parse_public_key:ret <- $r4
	@DEBUG_VALUE: mbedtls_pk_parse_public_key:p <- [DW_OP_plus_uconst 40, DW_OP_deref] $sp
	.loc	9 1416 13 is_stmt 1             @ ../../../ThirdParty/mbedTLS/library/pkparse.c:1416:13
	mov	r0, r6
	bl	mbedtls_pk_free
.Ltmp644:
.LBB12_8:
	@DEBUG_VALUE: mbedtls_pk_parse_public_key:keylen <- $r7
	@DEBUG_VALUE: mbedtls_pk_parse_public_key:ret <- $r4
	@DEBUG_VALUE: mbedtls_pk_parse_public_key:p <- [DW_OP_plus_uconst 40, DW_OP_deref] $sp
	.loc	9 0 13 is_stmt 0                @ ../../../ThirdParty/mbedTLS/library/pkparse.c:0:13
	add	r0, sp, #24
	.loc	9 1418 9 is_stmt 1              @ ../../../ThirdParty/mbedTLS/library/pkparse.c:1418:9
	bl	mbedtls_pem_free
	.loc	9 1419 9                        @ ../../../ThirdParty/mbedTLS/library/pkparse.c:1419:9
	b	.LBB12_23
.Ltmp645:
.LBB12_9:
	@DEBUG_VALUE: mbedtls_pk_parse_public_key:keylen <- $r2
	@DEBUG_VALUE: mbedtls_pk_parse_public_key:key <- $r1
	@DEBUG_VALUE: mbedtls_pk_parse_public_key:ctx <- $r0
	.loc	9 0 9 is_stmt 0                 @ ../../../ThirdParty/mbedTLS/library/pkparse.c:0:9
	subs	r4, #128
	b	.LBB12_23
.Ltmp646:
.LBB12_10:
	@DEBUG_VALUE: mbedtls_pk_parse_public_key:key <- [DW_OP_plus_uconst 20] [$sp+0]
	@DEBUG_VALUE: mbedtls_pk_parse_public_key:ctx <- [DW_OP_plus_uconst 16] [$sp+0]
	@DEBUG_VALUE: mbedtls_pk_parse_public_key:keylen <- $r7
	@DEBUG_VALUE: mbedtls_pk_parse_public_key:len <- [DW_OP_plus_uconst 36, DW_OP_deref] $sp
	add	r0, sp, #36
	mov	r5, r1
	movs	r1, #0
.Ltmp647:
	.loc	9 1401 15 is_stmt 1             @ ../../../ThirdParty/mbedTLS/library/pkparse.c:1401:15
	str	r1, [sp]
	str	r1, [sp, #4]
	str	r0, [sp, #8]
	add	r0, sp, #24
	adr	r1, .LCPI12_2
	adr	r2, .LCPI12_3
	ldr	r3, [sp, #20]                   @ 4-byte Reload
.Ltmp648:
	@DEBUG_VALUE: mbedtls_pk_parse_public_key:key <- $r3
	bl	mbedtls_pem_read_buffer
.Ltmp649:
	@DEBUG_VALUE: mbedtls_pk_parse_public_key:key <- [DW_OP_LLVM_entry_value 1] $r1
	.loc	9 0 15 is_stmt 0                @ ../../../ThirdParty/mbedTLS/library/pkparse.c:0:15
	mov	r1, r5
	.loc	9 1401 15                       @ ../../../ThirdParty/mbedTLS/library/pkparse.c:1401:15
	mov	r5, r0
.Ltmp650:
	@DEBUG_VALUE: mbedtls_pk_parse_public_key:ret <- $r5
	@DEBUG_VALUE: mbedtls_pk_parse_public_key:ret <- $r5
	.loc	9 1406 9 is_stmt 1              @ ../../../ThirdParty/mbedTLS/library/pkparse.c:1406:9
	cmp	r5, r1
	bne	.LBB12_3
.Ltmp651:
.LBB12_11:
	@DEBUG_VALUE: mbedtls_pk_parse_public_key:ctx <- [DW_OP_plus_uconst 16] [$sp+0]
	@DEBUG_VALUE: mbedtls_pk_parse_public_key:keylen <- $r7
	@DEBUG_VALUE: mbedtls_pk_parse_public_key:ret <- $r5
	.loc	9 1429 9                        @ ../../../ThirdParty/mbedTLS/library/pkparse.c:1429:9
	ldr	r0, [sp, #20]                   @ 4-byte Reload
	ldrb	r0, [r0, r6]
	.loc	9 0 0 is_stmt 0                 @ ../../../ThirdParty/mbedTLS/library/pkparse.c:0:0
	mov	r5, r1
.Ltmp652:
	.loc	9 1429 9                        @ ../../../ThirdParty/mbedTLS/library/pkparse.c:1429:9
	cbnz	r0, .LBB12_13
.Ltmp653:
@ %bb.12:
	@DEBUG_VALUE: mbedtls_pk_parse_public_key:ctx <- [DW_OP_plus_uconst 16] [$sp+0]
	@DEBUG_VALUE: mbedtls_pk_parse_public_key:keylen <- $r7
	@DEBUG_VALUE: mbedtls_pk_parse_public_key:len <- [DW_OP_plus_uconst 36, DW_OP_deref] $sp
	.loc	9 0 9                           @ ../../../ThirdParty/mbedTLS/library/pkparse.c:0:9
	add	r0, sp, #36
	mov	r5, r1
	movs	r1, #0
.Ltmp654:
	.loc	9 1432 15 is_stmt 1             @ ../../../ThirdParty/mbedTLS/library/pkparse.c:1432:15
	str	r1, [sp]
	str	r1, [sp, #4]
	str	r0, [sp, #8]
	add	r0, sp, #24
	adr	r1, .LCPI12_4
	adr	r2, .LCPI12_5
	ldr	r3, [sp, #20]                   @ 4-byte Reload
	bl	mbedtls_pem_read_buffer
	mov	r1, r5
	mov	r5, r0
.Ltmp655:
	@DEBUG_VALUE: mbedtls_pk_parse_public_key:ret <- $r5
.LBB12_13:
	@DEBUG_VALUE: mbedtls_pk_parse_public_key:ctx <- [DW_OP_plus_uconst 16] [$sp+0]
	@DEBUG_VALUE: mbedtls_pk_parse_public_key:keylen <- $r7
	@DEBUG_VALUE: mbedtls_pk_parse_public_key:ret <- $r5
	.loc	9 1437 9                        @ ../../../ThirdParty/mbedTLS/library/pkparse.c:1437:9
	cmp	r5, r1
	ldr	r6, [sp, #16]                   @ 4-byte Reload
.Ltmp656:
	@DEBUG_VALUE: mbedtls_pk_parse_public_key:ctx <- $r6
	beq	.LBB12_17
.Ltmp657:
@ %bb.14:
	@DEBUG_VALUE: mbedtls_pk_parse_public_key:keylen <- $r7
	@DEBUG_VALUE: mbedtls_pk_parse_public_key:ctx <- $r6
	@DEBUG_VALUE: mbedtls_pk_parse_public_key:ret <- $r5
	cbnz	r5, .LBB12_22
.Ltmp658:
@ %bb.15:
	@DEBUG_VALUE: mbedtls_pk_parse_public_key:keylen <- $r7
	@DEBUG_VALUE: mbedtls_pk_parse_public_key:ctx <- $r6
	@DEBUG_VALUE: mbedtls_pk_parse_public_key:ret <- $r5
	.loc	9 1442 17                       @ ../../../ThirdParty/mbedTLS/library/pkparse.c:1442:17
	ldr	r0, [sp, #24]
.Ltmp659:
	@DEBUG_VALUE: mbedtls_pk_parse_public_key:p <- $r0
	.loc	9 1442 11 is_stmt 0             @ ../../../ThirdParty/mbedTLS/library/pkparse.c:1442:11
	str	r0, [sp, #40]
	.loc	9 1444 56 is_stmt 1             @ ../../../ThirdParty/mbedTLS/library/pkparse.c:1444:56
	ldr	r1, [sp, #28]
	.loc	9 1444 50 is_stmt 0             @ ../../../ThirdParty/mbedTLS/library/pkparse.c:1444:50
	adds	r1, r0, r1
.Ltmp660:
	@DEBUG_VALUE: mbedtls_pk_parse_public_key:p <- [DW_OP_plus_uconst 40, DW_OP_deref] $sp
	.loc	9 0 50                          @ ../../../ThirdParty/mbedTLS/library/pkparse.c:0:50
	add	r0, sp, #40
	.loc	9 1444 15                       @ ../../../ThirdParty/mbedTLS/library/pkparse.c:1444:15
	mov	r2, r6
	bl	mbedtls_pk_parse_subpubkey
	mov	r4, r0
.Ltmp661:
	@DEBUG_VALUE: mbedtls_pk_parse_public_key:ret <- $r4
	.loc	9 0 15                          @ ../../../ThirdParty/mbedTLS/library/pkparse.c:0:15
	add	r0, sp, #24
	.loc	9 1445 9 is_stmt 1              @ ../../../ThirdParty/mbedTLS/library/pkparse.c:1445:9
	bl	mbedtls_pem_free
	.loc	9 1446 9                        @ ../../../ThirdParty/mbedTLS/library/pkparse.c:1446:9
	b	.LBB12_23
.Ltmp662:
.LBB12_16:
	@DEBUG_VALUE: mbedtls_pk_parse_public_key:ctx <- [DW_OP_plus_uconst 16] [$sp+0]
	@DEBUG_VALUE: mbedtls_pk_parse_public_key:keylen <- $r7
	@DEBUG_VALUE: mbedtls_pk_parse_public_key:ret <- $r5
	.loc	9 0 9 is_stmt 0                 @ ../../../ThirdParty/mbedTLS/library/pkparse.c:0:9
	add	r0, sp, #24
.Ltmp663:
	.loc	9 1423 9 is_stmt 1              @ ../../../ThirdParty/mbedTLS/library/pkparse.c:1423:9
	bl	mbedtls_pem_free
.Ltmp664:
	.loc	9 0 0 is_stmt 0                 @ ../../../ThirdParty/mbedTLS/library/pkparse.c:0:0
	mov	r4, r5
.Ltmp665:
	@DEBUG_VALUE: mbedtls_pk_parse_public_key:ret <- $r4
	.loc	9 1424 9 is_stmt 1              @ ../../../ThirdParty/mbedTLS/library/pkparse.c:1424:9
	b	.LBB12_23
.Ltmp666:
.LBB12_17:
	@DEBUG_VALUE: mbedtls_pk_parse_public_key:keylen <- $r7
	@DEBUG_VALUE: mbedtls_pk_parse_public_key:ctx <- $r6
	@DEBUG_VALUE: mbedtls_pk_parse_public_key:ret <- $r5
	.loc	9 0 9 is_stmt 0                 @ ../../../ThirdParty/mbedTLS/library/pkparse.c:0:9
	add	r0, sp, #24
	.loc	9 1453 5 is_stmt 1              @ ../../../ThirdParty/mbedTLS/library/pkparse.c:1453:5
	bl	mbedtls_pem_free
	movs	r0, #1
.Ltmp667:
	.loc	9 1457 21                       @ ../../../ThirdParty/mbedTLS/library/pkparse.c:1457:21
	bl	mbedtls_pk_info_from_type
.Ltmp668:
	@DEBUG_VALUE: mbedtls_pk_parse_public_key:pk_info <- $r0
	.loc	9 1457 9 is_stmt 0              @ ../../../ThirdParty/mbedTLS/library/pkparse.c:1457:9
	cbz	r0, .LBB12_23
.Ltmp669:
@ %bb.18:
	@DEBUG_VALUE: mbedtls_pk_parse_public_key:keylen <- $r7
	@DEBUG_VALUE: mbedtls_pk_parse_public_key:ctx <- $r6
	@DEBUG_VALUE: mbedtls_pk_parse_public_key:ret <- $r5
	@DEBUG_VALUE: mbedtls_pk_parse_public_key:pk_info <- $r0
	.loc	9 0 0                           @ ../../../ThirdParty/mbedTLS/library/pkparse.c:0:0
	mov	r1, r0
.Ltmp670:
	@DEBUG_VALUE: mbedtls_pk_parse_public_key:pk_info <- $r1
	.loc	9 1460 17 is_stmt 1             @ ../../../ThirdParty/mbedTLS/library/pkparse.c:1460:17
	mov	r0, r6
	bl	mbedtls_pk_setup
.Ltmp671:
	mov	r4, r0
.Ltmp672:
	@DEBUG_VALUE: mbedtls_pk_parse_public_key:ret <- $r4
	.loc	9 1460 9 is_stmt 0              @ ../../../ThirdParty/mbedTLS/library/pkparse.c:1460:9
	cbnz	r0, .LBB12_23
.Ltmp673:
@ %bb.19:
	@DEBUG_VALUE: mbedtls_pk_parse_public_key:keylen <- $r7
	@DEBUG_VALUE: mbedtls_pk_parse_public_key:ctx <- $r6
	@DEBUG_VALUE: mbedtls_pk_parse_public_key:ret <- $r4
	@DEBUG_VALUE: mbedtls_pk_parse_public_key:p <- [DW_OP_plus_uconst 20] [$sp+0]
	.loc	9 0 9                           @ ../../../ThirdParty/mbedTLS/library/pkparse.c:0:9
	ldr	r4, [sp, #20]                   @ 4-byte Reload
.Ltmp674:
	.loc	9 1463 7 is_stmt 1              @ ../../../ThirdParty/mbedTLS/library/pkparse.c:1463:7
	str	r4, [sp, #40]
	.loc	9 1464 45                       @ ../../../ThirdParty/mbedTLS/library/pkparse.c:1464:45
	ldm	r6!, {r0, r1}
.Ltmp675:
	subs	r6, #8
	bl	mbedtls_pk_rsa
	mov	r2, r0
	.loc	9 1464 35 is_stmt 0             @ ../../../ThirdParty/mbedTLS/library/pkparse.c:1464:35
	adds	r7, r4, r7
.Ltmp676:
	@DEBUG_VALUE: mbedtls_pk_parse_public_key:keylen <- [DW_OP_LLVM_entry_value 1] $r2
	@DEBUG_VALUE: mbedtls_pk_parse_public_key:p <- [DW_OP_plus_uconst 40, DW_OP_deref] $sp
	.loc	9 0 35                          @ ../../../ThirdParty/mbedTLS/library/pkparse.c:0:35
	add	r0, sp, #40
	.loc	9 1464 11                       @ ../../../ThirdParty/mbedTLS/library/pkparse.c:1464:11
	mov	r1, r7
	bl	pk_get_rsapubkey
.Ltmp677:
	@DEBUG_VALUE: mbedtls_pk_parse_public_key:ret <- $r0
	.loc	9 1465 9 is_stmt 1              @ ../../../ThirdParty/mbedTLS/library/pkparse.c:1465:9
	cbz	r0, .LBB12_24
.Ltmp678:
@ %bb.20:
	@DEBUG_VALUE: mbedtls_pk_parse_public_key:ret <- $r0
	@DEBUG_VALUE: mbedtls_pk_parse_public_key:p <- [DW_OP_plus_uconst 40, DW_OP_deref] $sp
	@DEBUG_VALUE: mbedtls_pk_parse_public_key:keylen <- [DW_OP_LLVM_entry_value 1] $r2
	.loc	9 0 0 is_stmt 0                 @ ../../../ThirdParty/mbedTLS/library/pkparse.c:0:0
	mov	r4, r0
.Ltmp679:
	@DEBUG_VALUE: mbedtls_pk_parse_public_key:ret <- $r4
	.loc	9 1469 5 is_stmt 1              @ ../../../ThirdParty/mbedTLS/library/pkparse.c:1469:5
	mov	r0, r6
	bl	mbedtls_pk_free
	ldr	r0, __arm_cp.12_6
	.loc	9 1470 9                        @ ../../../ThirdParty/mbedTLS/library/pkparse.c:1470:9
	cmp	r4, r0
	bne	.LBB12_23
.Ltmp680:
@ %bb.21:
	@DEBUG_VALUE: mbedtls_pk_parse_public_key:ret <- $r4
	@DEBUG_VALUE: mbedtls_pk_parse_public_key:p <- [DW_OP_plus_uconst 40, DW_OP_deref] $sp
	@DEBUG_VALUE: mbedtls_pk_parse_public_key:keylen <- [DW_OP_LLVM_entry_value 1] $r2
	@DEBUG_VALUE: mbedtls_pk_parse_public_key:p <- [DW_OP_plus_uconst 20] [$sp+0]
	.loc	9 1475 7                        @ ../../../ThirdParty/mbedTLS/library/pkparse.c:1475:7
	ldr	r0, [sp, #20]                   @ 4-byte Reload
.Ltmp681:
	@DEBUG_VALUE: mbedtls_pk_parse_public_key:p <- $r0
	str	r0, [sp, #40]
.Ltmp682:
	@DEBUG_VALUE: mbedtls_pk_parse_public_key:p <- [DW_OP_plus_uconst 40, DW_OP_deref] $sp
	.loc	9 0 7 is_stmt 0                 @ ../../../ThirdParty/mbedTLS/library/pkparse.c:0:7
	add	r0, sp, #40
	.loc	9 1477 11 is_stmt 1             @ ../../../ThirdParty/mbedTLS/library/pkparse.c:1477:11
	mov	r1, r7
	mov	r2, r6
	bl	mbedtls_pk_parse_subpubkey
	mov	r4, r0
.Ltmp683:
	@DEBUG_VALUE: mbedtls_pk_parse_public_key:ret <- $r4
	.loc	9 0 11 is_stmt 0                @ ../../../ThirdParty/mbedTLS/library/pkparse.c:0:11
	b	.LBB12_23
.Ltmp684:
.LBB12_22:
	@DEBUG_VALUE: mbedtls_pk_parse_public_key:keylen <- $r7
	@DEBUG_VALUE: mbedtls_pk_parse_public_key:ctx <- $r6
	@DEBUG_VALUE: mbedtls_pk_parse_public_key:ret <- $r5
	add	r0, sp, #24
.Ltmp685:
	.loc	9 1450 9 is_stmt 1              @ ../../../ThirdParty/mbedTLS/library/pkparse.c:1450:9
	bl	mbedtls_pem_free
.Ltmp686:
	.loc	9 0 0 is_stmt 0                 @ ../../../ThirdParty/mbedTLS/library/pkparse.c:0:0
	mov	r4, r5
.Ltmp687:
	@DEBUG_VALUE: mbedtls_pk_parse_public_key:ret <- $r4
.LBB12_23:
	.loc	9 1480 1 is_stmt 1              @ ../../../ThirdParty/mbedTLS/library/pkparse.c:1480:1
	mov	r0, r4
	add	sp, #44
	pop	{r4, r5, r6, r7, pc}
.Ltmp688:
.LBB12_24:
	@DEBUG_VALUE: mbedtls_pk_parse_public_key:ret <- $r0
	@DEBUG_VALUE: mbedtls_pk_parse_public_key:p <- [DW_OP_plus_uconst 40, DW_OP_deref] $sp
	@DEBUG_VALUE: mbedtls_pk_parse_public_key:keylen <- [DW_OP_LLVM_entry_value 1] $r2
	.loc	9 0 1 is_stmt 0                 @ ../../../ThirdParty/mbedTLS/library/pkparse.c:0:1
	movs	r4, #0
	b	.LBB12_23
.Ltmp689:
	.p2align	2
@ %bb.25:
__arm_cp.12_0:
	.long	4294951808                      @ 0xffffc380
.Lcpi_end27:
	.size	__arm_cp.12_0, .Lcpi_end27-__arm_cp.12_0
__arm_cp.12_1:
	.long	4294963072                      @ 0xffffef80
.Lcpi_end28:
	.size	__arm_cp.12_1, .Lcpi_end28-__arm_cp.12_1
.LCPI12_2:
.L.str.8:
	.asciz	"-----BEGIN RSA PUBLIC KEY-----\000"
.LCPI12_3:
.L.str.9:
	.asciz	"-----END RSA PUBLIC KEY-----\000\000\000"
.LCPI12_4:
.L.str.10:
	.asciz	"-----BEGIN PUBLIC KEY-----\000"
.LCPI12_5:
.L.str.11:
	.asciz	"-----END PUBLIC KEY-----\000\000\000"
__arm_cp.12_6:
	.long	4294952094                      @ 0xffffc49e
.Lcpi_end29:
	.size	__arm_cp.12_6, .Lcpi_end29-__arm_cp.12_6
.Lfunc_end12:
	.size	mbedtls_pk_parse_public_key, .Lfunc_end12-mbedtls_pk_parse_public_key
	.cfi_endproc
	.cantunwind
	.fnend
                                        @ -- End function
	.section	.text.pk_group_id_from_specified,"ax",%progbits
	.p2align	1                               @ -- Begin function pk_group_id_from_specified
	.type	pk_group_id_from_specified,%function
	.code	16                              @ @pk_group_id_from_specified
	.thumb_func
pk_group_id_from_specified:
.Lfunc_begin13:
	.loc	9 435 0 is_stmt 1               @ ../../../ThirdParty/mbedTLS/library/pkparse.c:435:0
	.fnstart
	.cfi_startproc
@ %bb.0:
	@DEBUG_VALUE: pk_group_id_from_specified:params <- $r0
	@DEBUG_VALUE: pk_group_id_from_specified:grp_id <- $r1
	.save	{r4, r5, r6, lr}
	push	{r4, r5, r6, lr}
	.cfi_def_cfa_offset 16
	.cfi_offset lr, -4
	.cfi_offset r6, -8
	.cfi_offset r5, -12
	.cfi_offset r4, -16
	.pad	#128
	sub	sp, #128
	.cfi_def_cfa_offset 144
	mov	r4, r1
	mov	r5, r0
.Ltmp690:
	@DEBUG_VALUE: pk_group_id_from_specified:grp_id <- $r4
	@DEBUG_VALUE: pk_group_id_from_specified:params <- $r5
	add	r6, sp, #4
.Ltmp691:
	.loc	9 439 5 prologue_end            @ ../../../ThirdParty/mbedTLS/library/pkparse.c:439:5
	mov	r0, r6
	bl	mbedtls_ecp_group_init
.Ltmp692:
	.loc	9 441 17                        @ ../../../ThirdParty/mbedTLS/library/pkparse.c:441:17
	mov	r0, r5
.Ltmp693:
	@DEBUG_VALUE: pk_group_id_from_specified:params <- $r0
	mov	r1, r6
	bl	pk_group_from_specified
.Ltmp694:
	mov	r5, r0
.Ltmp695:
	@DEBUG_VALUE: pk_group_id_from_specified:ret <- $r5
	.loc	9 441 9 is_stmt 0               @ ../../../ThirdParty/mbedTLS/library/pkparse.c:441:9
	cbnz	r0, .LBB13_2
.Ltmp696:
@ %bb.1:
	@DEBUG_VALUE: pk_group_id_from_specified:ret <- $r5
	@DEBUG_VALUE: pk_group_id_from_specified:grp_id <- $r4
	.loc	9 0 9                           @ ../../../ThirdParty/mbedTLS/library/pkparse.c:0:9
	add	r0, sp, #4
	.loc	9 444 11 is_stmt 1              @ ../../../ThirdParty/mbedTLS/library/pkparse.c:444:11
	mov	r1, r4
	bl	pk_group_id_from_group
	mov	r5, r0
.Ltmp697:
	@DEBUG_VALUE: pk_group_id_from_specified:ret <- $r5
.LBB13_2:
	@DEBUG_VALUE: pk_group_id_from_specified:ret <- $r5
	@DEBUG_VALUE: pk_group_id_from_specified:grp_id <- $r4
	@DEBUG_VALUE: pk_group_id_from_specified:ret <- $r5
	@DEBUG_LABEL: pk_group_id_from_specified:cleanup
	.loc	9 0 11 is_stmt 0                @ ../../../ThirdParty/mbedTLS/library/pkparse.c:0:11
	add	r0, sp, #4
	.loc	9 447 5 is_stmt 1               @ ../../../ThirdParty/mbedTLS/library/pkparse.c:447:5
	bl	mbedtls_ecp_group_free
	.loc	9 449 5                         @ ../../../ThirdParty/mbedTLS/library/pkparse.c:449:5
	mov	r0, r5
	add	sp, #128
	pop	{r4, r5, r6, pc}
.Ltmp698:
.Lfunc_end13:
	.size	pk_group_id_from_specified, .Lfunc_end13-pk_group_id_from_specified
	.cfi_endproc
	.cantunwind
	.fnend
                                        @ -- End function
	.section	.text.pk_group_from_specified,"ax",%progbits
	.p2align	2                               @ -- Begin function pk_group_from_specified
	.type	pk_group_from_specified,%function
	.code	16                              @ @pk_group_from_specified
	.thumb_func
pk_group_from_specified:
.Lfunc_begin14:
	.loc	9 245 0                         @ ../../../ThirdParty/mbedTLS/library/pkparse.c:245:0
	.fnstart
	.cfi_startproc
@ %bb.0:
	@DEBUG_VALUE: pk_group_from_specified:params <- $r0
	@DEBUG_VALUE: pk_group_from_specified:grp <- $r1
	.save	{r4, r5, r6, r7, lr}
	push	{r4, r5, r6, r7, lr}
	.cfi_def_cfa_offset 20
	.cfi_offset lr, -4
	.cfi_offset r7, -8
	.cfi_offset r6, -12
	.cfi_offset r5, -16
	.cfi_offset r4, -20
	.pad	#28
	sub	sp, #28
	.cfi_def_cfa_offset 48
	mov	r4, r1
.Ltmp699:
	@DEBUG_VALUE: pk_group_from_specified:p <- undef
	@DEBUG_VALUE: pk_group_from_specified:grp <- $r4
	@DEBUG_VALUE: pk_group_from_specified:params <- $r0
	.loc	9 248 59 prologue_end           @ ../../../ThirdParty/mbedTLS/library/pkparse.c:248:59
	ldr	r1, [r0, #4]
	.loc	9 247 32                        @ ../../../ThirdParty/mbedTLS/library/pkparse.c:247:32
	ldr	r0, [r0, #8]
.Ltmp700:
	@DEBUG_VALUE: pk_group_from_specified:params <- [DW_OP_LLVM_entry_value 1] $r0
	.loc	9 247 20 is_stmt 0              @ ../../../ThirdParty/mbedTLS/library/pkparse.c:247:20
	str	r0, [sp, #24]
	.loc	9 248 49 is_stmt 1              @ ../../../ThirdParty/mbedTLS/library/pkparse.c:248:49
	adds	r5, r0, r1
.Ltmp701:
	@DEBUG_VALUE: pk_group_from_specified:ver <- [DW_OP_plus_uconst 16, DW_OP_deref] $sp
	@DEBUG_VALUE: pk_group_from_specified:end <- $r5
	@DEBUG_VALUE: pk_group_from_specified:p <- [DW_OP_plus_uconst 24, DW_OP_deref] $sp
	.loc	9 0 49 is_stmt 0                @ ../../../ThirdParty/mbedTLS/library/pkparse.c:0:49
	add	r0, sp, #24
	add	r2, sp, #16
.Ltmp702:
	.loc	9 254 17 is_stmt 1              @ ../../../ThirdParty/mbedTLS/library/pkparse.c:254:17
	mov	r1, r5
	bl	mbedtls_asn1_get_int
.Ltmp703:
	@DEBUG_VALUE: pk_group_from_specified:ret <- $r0
	.loc	9 0 17 is_stmt 0                @ ../../../ThirdParty/mbedTLS/library/pkparse.c:0:17
	ldr	r6, __arm_cp.14_0
.Ltmp704:
	.loc	9 254 9                         @ ../../../ThirdParty/mbedTLS/library/pkparse.c:254:9
	cbz	r0, .LBB14_2
.Ltmp705:
@ %bb.1:
	@DEBUG_VALUE: pk_group_from_specified:end <- $r5
	@DEBUG_VALUE: pk_group_from_specified:grp <- $r4
	@DEBUG_VALUE: pk_group_from_specified:ret <- $r0
	@DEBUG_VALUE: pk_group_from_specified:p <- [DW_OP_plus_uconst 24, DW_OP_deref] $sp
	@DEBUG_VALUE: pk_group_from_specified:ver <- [DW_OP_plus_uconst 16, DW_OP_deref] $sp
	@DEBUG_VALUE: pk_group_from_specified:params <- [DW_OP_LLVM_entry_value 1] $r0
	.loc	9 255 51 is_stmt 1              @ ../../../ThirdParty/mbedTLS/library/pkparse.c:255:51
	adds	r7, r0, r6
	.loc	9 255 9 is_stmt 0               @ ../../../ThirdParty/mbedTLS/library/pkparse.c:255:9
	b	.LBB14_16
.Ltmp706:
.LBB14_2:
	@DEBUG_VALUE: pk_group_from_specified:end <- $r5
	@DEBUG_VALUE: pk_group_from_specified:grp <- $r4
	@DEBUG_VALUE: pk_group_from_specified:ret <- $r0
	@DEBUG_VALUE: pk_group_from_specified:p <- [DW_OP_plus_uconst 24, DW_OP_deref] $sp
	@DEBUG_VALUE: pk_group_from_specified:ver <- [DW_OP_plus_uconst 16, DW_OP_deref] $sp
	@DEBUG_VALUE: pk_group_from_specified:params <- [DW_OP_LLVM_entry_value 1] $r0
	.loc	9 257 9 is_stmt 1               @ ../../../ThirdParty/mbedTLS/library/pkparse.c:257:9
	ldr	r0, [sp, #16]
.Ltmp707:
	@DEBUG_VALUE: pk_group_from_specified:ver <- $r0
	.loc	9 257 17 is_stmt 0              @ ../../../ThirdParty/mbedTLS/library/pkparse.c:257:17
	subs	r0, r0, #1
.Ltmp708:
	cmp	r0, #2
	bls	.LBB14_4
.Ltmp709:
@ %bb.3:
	@DEBUG_VALUE: pk_group_from_specified:end <- $r5
	@DEBUG_VALUE: pk_group_from_specified:grp <- $r4
	@DEBUG_VALUE: pk_group_from_specified:p <- [DW_OP_plus_uconst 24, DW_OP_deref] $sp
	@DEBUG_VALUE: pk_group_from_specified:params <- [DW_OP_LLVM_entry_value 1] $r0
	.loc	9 0 0                           @ ../../../ThirdParty/mbedTLS/library/pkparse.c:0:0
	mov	r7, r6
	b	.LBB14_16
.Ltmp710:
.LBB14_4:
	@DEBUG_VALUE: pk_group_from_specified:end <- $r5
	@DEBUG_VALUE: pk_group_from_specified:grp <- $r4
	@DEBUG_VALUE: pk_group_from_specified:p <- [DW_OP_plus_uconst 24, DW_OP_deref] $sp
	@DEBUG_VALUE: pk_group_from_specified:params <- [DW_OP_LLVM_entry_value 1] $r0
	@DEBUG_VALUE: pk_group_from_specified:p <- [DW_OP_plus_uconst 24, DW_OP_deref] $sp
	@DEBUG_VALUE: pk_group_from_specified:len <- [DW_OP_plus_uconst 20, DW_OP_deref] $sp
	add	r0, sp, #24
	add	r2, sp, #20
	movs	r3, #48
.Ltmp711:
	.loc	9 266 17 is_stmt 1              @ ../../../ThirdParty/mbedTLS/library/pkparse.c:266:17
	mov	r1, r5
	bl	mbedtls_asn1_get_tag
	mov	r7, r0
.Ltmp712:
	@DEBUG_VALUE: pk_group_from_specified:ret <- $r7
	.loc	9 266 9 is_stmt 0               @ ../../../ThirdParty/mbedTLS/library/pkparse.c:266:9
	cmp	r0, #0
	bne	.LBB14_16
.Ltmp713:
@ %bb.5:
	@DEBUG_VALUE: pk_group_from_specified:ret <- $r7
	@DEBUG_VALUE: pk_group_from_specified:end <- $r5
	@DEBUG_VALUE: pk_group_from_specified:grp <- $r4
	@DEBUG_VALUE: pk_group_from_specified:len <- [DW_OP_plus_uconst 20, DW_OP_deref] $sp
	@DEBUG_VALUE: pk_group_from_specified:p <- [DW_OP_plus_uconst 24, DW_OP_deref] $sp
	@DEBUG_VALUE: pk_group_from_specified:params <- [DW_OP_LLVM_entry_value 1] $r0
	.loc	9 270 21 is_stmt 1              @ ../../../ThirdParty/mbedTLS/library/pkparse.c:270:21
	ldr	r0, [sp, #20]
.Ltmp714:
	@DEBUG_VALUE: pk_group_from_specified:len <- $r0
	.loc	9 270 17 is_stmt 0              @ ../../../ThirdParty/mbedTLS/library/pkparse.c:270:17
	ldr	r1, [sp, #24]
.Ltmp715:
	@DEBUG_VALUE: pk_group_from_specified:p <- $r1
	.loc	9 270 19                        @ ../../../ThirdParty/mbedTLS/library/pkparse.c:270:19
	adds	r1, r1, r0
.Ltmp716:
	@DEBUG_VALUE: pk_group_from_specified:end_field <- $r1
	@DEBUG_VALUE: pk_group_from_specified:len <- [DW_OP_plus_uconst 20, DW_OP_deref] $sp
	@DEBUG_VALUE: pk_group_from_specified:p <- [DW_OP_plus_uconst 24, DW_OP_deref] $sp
	.loc	9 0 19                          @ ../../../ThirdParty/mbedTLS/library/pkparse.c:0:19
	add	r0, sp, #24
	add	r2, sp, #20
	movs	r3, #6
	str	r1, [sp, #12]                   @ 4-byte Spill
.Ltmp717:
	@DEBUG_VALUE: pk_group_from_specified:end_field <- [DW_OP_plus_uconst 12] [$sp+0]
	.loc	9 280 17 is_stmt 1              @ ../../../ThirdParty/mbedTLS/library/pkparse.c:280:17
	bl	mbedtls_asn1_get_tag
	mov	r7, r0
.Ltmp718:
	@DEBUG_VALUE: pk_group_from_specified:ret <- $r7
	.loc	9 280 9 is_stmt 0               @ ../../../ThirdParty/mbedTLS/library/pkparse.c:280:9
	cmp	r0, #0
	bne	.LBB14_16
.Ltmp719:
@ %bb.6:
	@DEBUG_VALUE: pk_group_from_specified:ret <- $r7
	@DEBUG_VALUE: pk_group_from_specified:end <- $r5
	@DEBUG_VALUE: pk_group_from_specified:grp <- $r4
	@DEBUG_VALUE: pk_group_from_specified:end_field <- [DW_OP_plus_uconst 12] [$sp+0]
	@DEBUG_VALUE: pk_group_from_specified:len <- [DW_OP_plus_uconst 20, DW_OP_deref] $sp
	@DEBUG_VALUE: pk_group_from_specified:p <- [DW_OP_plus_uconst 24, DW_OP_deref] $sp
	@DEBUG_VALUE: pk_group_from_specified:params <- [DW_OP_LLVM_entry_value 1] $r0
	.loc	9 283 9 is_stmt 1               @ ../../../ThirdParty/mbedTLS/library/pkparse.c:283:9
	ldr	r0, [sp, #20]
.Ltmp720:
	@DEBUG_VALUE: pk_group_from_specified:len <- $r0
	.loc	9 0 9 is_stmt 0                 @ ../../../ThirdParty/mbedTLS/library/pkparse.c:0:9
	ldr	r7, __arm_cp.14_1
.Ltmp721:
	.loc	9 283 71                        @ ../../../ThirdParty/mbedTLS/library/pkparse.c:283:71
	cmp	r0, #7
	bne	.LBB14_16
.Ltmp722:
@ %bb.7:
	@DEBUG_VALUE: pk_group_from_specified:end <- $r5
	@DEBUG_VALUE: pk_group_from_specified:grp <- $r4
	@DEBUG_VALUE: pk_group_from_specified:len <- $r0
	@DEBUG_VALUE: pk_group_from_specified:end_field <- [DW_OP_plus_uconst 12] [$sp+0]
	@DEBUG_VALUE: pk_group_from_specified:p <- [DW_OP_plus_uconst 24, DW_OP_deref] $sp
	@DEBUG_VALUE: pk_group_from_specified:params <- [DW_OP_LLVM_entry_value 1] $r0
	.loc	9 0 71                          @ ../../../ThirdParty/mbedTLS/library/pkparse.c:0:71
	str	r0, [sp, #8]                    @ 4-byte Spill
.Ltmp723:
	@DEBUG_VALUE: pk_group_from_specified:len <- [DW_OP_plus_uconst 8] [$sp+0]
	.loc	9 284 21 is_stmt 1              @ ../../../ThirdParty/mbedTLS/library/pkparse.c:284:21
	ldr	r0, [sp, #24]
.Ltmp724:
	@DEBUG_VALUE: pk_group_from_specified:p <- $r0
	.loc	9 284 13 is_stmt 0              @ ../../../ThirdParty/mbedTLS/library/pkparse.c:284:13
	adr	r1, .LCPI14_2
	movs	r2, #7
	str	r0, [sp, #4]                    @ 4-byte Spill
.Ltmp725:
	@DEBUG_VALUE: pk_group_from_specified:p <- [DW_OP_plus_uconst 4] [$sp+0]
	bl	memcmp
.Ltmp726:
	.loc	9 283 9 is_stmt 1               @ ../../../ThirdParty/mbedTLS/library/pkparse.c:283:9
	cbnz	r0, .LBB14_16
.Ltmp727:
@ %bb.8:
	@DEBUG_VALUE: pk_group_from_specified:len <- [DW_OP_plus_uconst 8] [$sp+0]
	@DEBUG_VALUE: pk_group_from_specified:end <- $r5
	@DEBUG_VALUE: pk_group_from_specified:grp <- $r4
	@DEBUG_VALUE: pk_group_from_specified:p <- [DW_OP_plus_uconst 4] [$sp+0]
	@DEBUG_VALUE: pk_group_from_specified:end_field <- [DW_OP_plus_uconst 12] [$sp+0]
	@DEBUG_VALUE: pk_group_from_specified:params <- [DW_OP_LLVM_entry_value 1] $r0
	@DEBUG_VALUE: pk_group_from_specified:p <- [DW_OP_plus_uconst 4] [$sp+0]
	@DEBUG_VALUE: pk_group_from_specified:len <- [DW_OP_plus_uconst 8] [$sp+0]
	.loc	9 289 7                         @ ../../../ThirdParty/mbedTLS/library/pkparse.c:289:7
	ldr	r0, [sp, #8]                    @ 4-byte Reload
.Ltmp728:
	@DEBUG_VALUE: pk_group_from_specified:len <- $r0
	ldr	r1, [sp, #4]                    @ 4-byte Reload
.Ltmp729:
	@DEBUG_VALUE: pk_group_from_specified:p <- $r1
	adds	r0, r1, r0
.Ltmp730:
	@DEBUG_VALUE: pk_group_from_specified:p <- $r0
	str	r0, [sp, #24]
.Ltmp731:
	@DEBUG_VALUE: pk_group_from_specified:p <- [DW_OP_plus_uconst 24, DW_OP_deref] $sp
	.loc	9 292 60                        @ ../../../ThirdParty/mbedTLS/library/pkparse.c:292:60
	adds	r2, r4, #4
	add	r0, sp, #24
	ldr	r7, [sp, #12]                   @ 4-byte Reload
	.loc	9 292 17 is_stmt 0              @ ../../../ThirdParty/mbedTLS/library/pkparse.c:292:17
	mov	r1, r7
	str	r2, [sp, #8]                    @ 4-byte Spill
	bl	mbedtls_asn1_get_mpi
.Ltmp732:
	@DEBUG_VALUE: pk_group_from_specified:ret <- $r0
	.loc	9 292 9                         @ ../../../ThirdParty/mbedTLS/library/pkparse.c:292:9
	cbz	r0, .LBB14_10
.Ltmp733:
@ %bb.9:
	@DEBUG_VALUE: pk_group_from_specified:end <- $r5
	@DEBUG_VALUE: pk_group_from_specified:grp <- $r4
	@DEBUG_VALUE: pk_group_from_specified:ret <- $r0
	@DEBUG_VALUE: pk_group_from_specified:end_field <- [DW_OP_plus_uconst 12] [$sp+0]
	@DEBUG_VALUE: pk_group_from_specified:p <- [DW_OP_plus_uconst 24, DW_OP_deref] $sp
	@DEBUG_VALUE: pk_group_from_specified:params <- [DW_OP_LLVM_entry_value 1] $r0
	.loc	9 293 51 is_stmt 1              @ ../../../ThirdParty/mbedTLS/library/pkparse.c:293:51
	adds	r7, r0, r6
	.loc	9 293 9 is_stmt 0               @ ../../../ThirdParty/mbedTLS/library/pkparse.c:293:9
	b	.LBB14_16
.Ltmp734:
.LBB14_10:
	@DEBUG_VALUE: pk_group_from_specified:end <- $r5
	@DEBUG_VALUE: pk_group_from_specified:grp <- $r4
	@DEBUG_VALUE: pk_group_from_specified:ret <- $r0
	@DEBUG_VALUE: pk_group_from_specified:end_field <- [DW_OP_plus_uconst 12] [$sp+0]
	@DEBUG_VALUE: pk_group_from_specified:p <- [DW_OP_plus_uconst 24, DW_OP_deref] $sp
	@DEBUG_VALUE: pk_group_from_specified:params <- [DW_OP_LLVM_entry_value 1] $r0
	.loc	9 295 18 is_stmt 1              @ ../../../ThirdParty/mbedTLS/library/pkparse.c:295:18
	ldr	r0, [sp, #8]                    @ 4-byte Reload
.Ltmp735:
	bl	mbedtls_mpi_bitlen
	.loc	9 295 16 is_stmt 0              @ ../../../ThirdParty/mbedTLS/library/pkparse.c:295:16
	str	r0, [r4, #88]
	.loc	9 0 0                           @ ../../../ThirdParty/mbedTLS/library/pkparse.c:0:0
	mov	r1, r6
	subs	r1, #102
.Ltmp736:
	.loc	9 297 9 is_stmt 1               @ ../../../ThirdParty/mbedTLS/library/pkparse.c:297:9
	ldr	r0, [sp, #24]
.Ltmp737:
	@DEBUG_VALUE: pk_group_from_specified:p <- $r0
	.loc	9 297 9 is_stmt 0               @ ../../../ThirdParty/mbedTLS/library/pkparse.c:297:9
	cmp	r0, r7
	beq	.LBB14_12
.Ltmp738:
@ %bb.11:
	@DEBUG_VALUE: pk_group_from_specified:end <- $r5
	@DEBUG_VALUE: pk_group_from_specified:grp <- $r4
	@DEBUG_VALUE: pk_group_from_specified:p <- $r0
	@DEBUG_VALUE: pk_group_from_specified:end_field <- [DW_OP_plus_uconst 12] [$sp+0]
	@DEBUG_VALUE: pk_group_from_specified:params <- [DW_OP_LLVM_entry_value 1] $r0
	.loc	9 0 0                           @ ../../../ThirdParty/mbedTLS/library/pkparse.c:0:0
	mov	r7, r1
	b	.LBB14_16
.Ltmp739:
.LBB14_12:
	@DEBUG_VALUE: pk_group_from_specified:end <- $r5
	@DEBUG_VALUE: pk_group_from_specified:grp <- $r4
	@DEBUG_VALUE: pk_group_from_specified:p <- $r0
	@DEBUG_VALUE: pk_group_from_specified:end_field <- [DW_OP_plus_uconst 12] [$sp+0]
	@DEBUG_VALUE: pk_group_from_specified:params <- [DW_OP_LLVM_entry_value 1] $r0
	@DEBUG_VALUE: pk_group_from_specified:p <- [DW_OP_plus_uconst 24, DW_OP_deref] $sp
	@DEBUG_VALUE: pk_group_from_specified:len <- [DW_OP_plus_uconst 20, DW_OP_deref] $sp
	str	r1, [sp, #12]                   @ 4-byte Spill
	add	r0, sp, #24
	add	r2, sp, #20
	movs	r3, #48
.Ltmp740:
	.loc	9 310 17 is_stmt 1              @ ../../../ThirdParty/mbedTLS/library/pkparse.c:310:17
	mov	r1, r5
	bl	mbedtls_asn1_get_tag
	mov	r7, r0
.Ltmp741:
	@DEBUG_VALUE: pk_group_from_specified:ret <- $r7
	.loc	9 310 9 is_stmt 0               @ ../../../ThirdParty/mbedTLS/library/pkparse.c:310:9
	cbnz	r0, .LBB14_16
.Ltmp742:
@ %bb.13:
	@DEBUG_VALUE: pk_group_from_specified:ret <- $r7
	@DEBUG_VALUE: pk_group_from_specified:end <- $r5
	@DEBUG_VALUE: pk_group_from_specified:grp <- $r4
	@DEBUG_VALUE: pk_group_from_specified:end_field <- [DW_OP_plus_uconst 12] [$sp+0]
	@DEBUG_VALUE: pk_group_from_specified:len <- [DW_OP_plus_uconst 20, DW_OP_deref] $sp
	@DEBUG_VALUE: pk_group_from_specified:p <- [DW_OP_plus_uconst 24, DW_OP_deref] $sp
	@DEBUG_VALUE: pk_group_from_specified:params <- [DW_OP_LLVM_entry_value 1] $r0
	.loc	9 314 21 is_stmt 1              @ ../../../ThirdParty/mbedTLS/library/pkparse.c:314:21
	ldr	r0, [sp, #20]
.Ltmp743:
	@DEBUG_VALUE: pk_group_from_specified:len <- $r0
	.loc	9 314 17 is_stmt 0              @ ../../../ThirdParty/mbedTLS/library/pkparse.c:314:17
	ldr	r1, [sp, #24]
.Ltmp744:
	@DEBUG_VALUE: pk_group_from_specified:p <- $r1
	.loc	9 314 19                        @ ../../../ThirdParty/mbedTLS/library/pkparse.c:314:19
	adds	r7, r1, r0
.Ltmp745:
	@DEBUG_VALUE: pk_group_from_specified:end_curve <- $r7
	@DEBUG_VALUE: pk_group_from_specified:len <- [DW_OP_plus_uconst 20, DW_OP_deref] $sp
	@DEBUG_VALUE: pk_group_from_specified:p <- [DW_OP_plus_uconst 24, DW_OP_deref] $sp
	.loc	9 0 19                          @ ../../../ThirdParty/mbedTLS/library/pkparse.c:0:19
	add	r0, sp, #24
	add	r2, sp, #20
	movs	r3, #4
.Ltmp746:
	.loc	9 320 17 is_stmt 1              @ ../../../ThirdParty/mbedTLS/library/pkparse.c:320:17
	mov	r1, r7
	bl	mbedtls_asn1_get_tag
.Ltmp747:
	@DEBUG_VALUE: pk_group_from_specified:ret <- $r0
	.loc	9 320 95 is_stmt 0              @ ../../../ThirdParty/mbedTLS/library/pkparse.c:320:95
	cbnz	r0, .LBB14_15
.Ltmp748:
@ %bb.14:
	@DEBUG_VALUE: pk_group_from_specified:end_curve <- $r7
	@DEBUG_VALUE: pk_group_from_specified:end <- $r5
	@DEBUG_VALUE: pk_group_from_specified:grp <- $r4
	@DEBUG_VALUE: pk_group_from_specified:ret <- $r0
	@DEBUG_VALUE: pk_group_from_specified:end_field <- [DW_OP_plus_uconst 12] [$sp+0]
	@DEBUG_VALUE: pk_group_from_specified:len <- [DW_OP_plus_uconst 20, DW_OP_deref] $sp
	@DEBUG_VALUE: pk_group_from_specified:p <- [DW_OP_plus_uconst 24, DW_OP_deref] $sp
	@DEBUG_VALUE: pk_group_from_specified:params <- [DW_OP_LLVM_entry_value 1] $r0
	.loc	9 321 58 is_stmt 1              @ ../../../ThirdParty/mbedTLS/library/pkparse.c:321:58
	ldr	r2, [sp, #20]
.Ltmp749:
	@DEBUG_VALUE: pk_group_from_specified:len <- $r2
	.loc	9 321 55 is_stmt 0              @ ../../../ThirdParty/mbedTLS/library/pkparse.c:321:55
	ldr	r1, [sp, #24]
.Ltmp750:
	@DEBUG_VALUE: pk_group_from_specified:p <- $r1
	.loc	9 321 52                        @ ../../../ThirdParty/mbedTLS/library/pkparse.c:321:52
	mov	r0, r4
.Ltmp751:
	adds	r0, #16
	.loc	9 321 21                        @ ../../../ThirdParty/mbedTLS/library/pkparse.c:321:21
	bl	mbedtls_mpi_read_binary
.Ltmp752:
	@DEBUG_VALUE: pk_group_from_specified:ret <- $r0
	.loc	9 320 9 is_stmt 1               @ ../../../ThirdParty/mbedTLS/library/pkparse.c:320:9
	cbz	r0, .LBB14_17
.Ltmp753:
.LBB14_15:
	@DEBUG_VALUE: pk_group_from_specified:end_curve <- $r7
	@DEBUG_VALUE: pk_group_from_specified:end <- $r5
	@DEBUG_VALUE: pk_group_from_specified:grp <- $r4
	@DEBUG_VALUE: pk_group_from_specified:ret <- $r0
	@DEBUG_VALUE: pk_group_from_specified:end_field <- [DW_OP_plus_uconst 12] [$sp+0]
	@DEBUG_VALUE: pk_group_from_specified:params <- [DW_OP_LLVM_entry_value 1] $r0
	@DEBUG_VALUE: pk_group_from_specified:ret <- $r0
	.loc	9 323 51                        @ ../../../ThirdParty/mbedTLS/library/pkparse.c:323:51
	adds	r7, r0, r6
.Ltmp754:
.LBB14_16:
	@DEBUG_VALUE: pk_group_from_specified:end <- $r5
	@DEBUG_VALUE: pk_group_from_specified:grp <- $r4
	@DEBUG_VALUE: pk_group_from_specified:params <- [DW_OP_LLVM_entry_value 1] $r0
	.loc	9 383 1                         @ ../../../ThirdParty/mbedTLS/library/pkparse.c:383:1
	mov	r0, r7
	add	sp, #28
	pop	{r4, r5, r6, r7, pc}
.Ltmp755:
.LBB14_17:
	@DEBUG_VALUE: pk_group_from_specified:end_curve <- $r7
	@DEBUG_VALUE: pk_group_from_specified:end <- $r5
	@DEBUG_VALUE: pk_group_from_specified:grp <- $r4
	@DEBUG_VALUE: pk_group_from_specified:ret <- $r0
	@DEBUG_VALUE: pk_group_from_specified:end_field <- [DW_OP_plus_uconst 12] [$sp+0]
	@DEBUG_VALUE: pk_group_from_specified:params <- [DW_OP_LLVM_entry_value 1] $r0
	.loc	9 326 10                        @ ../../../ThirdParty/mbedTLS/library/pkparse.c:326:10
	ldr	r0, [sp, #20]
.Ltmp756:
	@DEBUG_VALUE: pk_group_from_specified:len <- $r0
	.loc	9 326 7 is_stmt 0               @ ../../../ThirdParty/mbedTLS/library/pkparse.c:326:7
	ldr	r1, [sp, #24]
.Ltmp757:
	@DEBUG_VALUE: pk_group_from_specified:p <- $r1
	adds	r0, r1, r0
.Ltmp758:
	@DEBUG_VALUE: pk_group_from_specified:p <- $r0
	str	r0, [sp, #24]
.Ltmp759:
	@DEBUG_VALUE: pk_group_from_specified:len <- [DW_OP_plus_uconst 20, DW_OP_deref] $sp
	@DEBUG_VALUE: pk_group_from_specified:p <- [DW_OP_plus_uconst 24, DW_OP_deref] $sp
	.loc	9 0 7                           @ ../../../ThirdParty/mbedTLS/library/pkparse.c:0:7
	add	r0, sp, #24
	add	r2, sp, #20
	movs	r3, #4
.Ltmp760:
	.loc	9 328 17 is_stmt 1              @ ../../../ThirdParty/mbedTLS/library/pkparse.c:328:17
	mov	r1, r7
	bl	mbedtls_asn1_get_tag
.Ltmp761:
	@DEBUG_VALUE: pk_group_from_specified:ret <- $r0
	.loc	9 328 95 is_stmt 0              @ ../../../ThirdParty/mbedTLS/library/pkparse.c:328:95
	cbnz	r0, .LBB14_19
.Ltmp762:
@ %bb.18:
	@DEBUG_VALUE: pk_group_from_specified:end_curve <- $r7
	@DEBUG_VALUE: pk_group_from_specified:end <- $r5
	@DEBUG_VALUE: pk_group_from_specified:grp <- $r4
	@DEBUG_VALUE: pk_group_from_specified:ret <- $r0
	@DEBUG_VALUE: pk_group_from_specified:end_field <- [DW_OP_plus_uconst 12] [$sp+0]
	@DEBUG_VALUE: pk_group_from_specified:len <- [DW_OP_plus_uconst 20, DW_OP_deref] $sp
	@DEBUG_VALUE: pk_group_from_specified:p <- [DW_OP_plus_uconst 24, DW_OP_deref] $sp
	@DEBUG_VALUE: pk_group_from_specified:params <- [DW_OP_LLVM_entry_value 1] $r0
	.loc	9 329 58 is_stmt 1              @ ../../../ThirdParty/mbedTLS/library/pkparse.c:329:58
	ldr	r2, [sp, #20]
.Ltmp763:
	@DEBUG_VALUE: pk_group_from_specified:len <- $r2
	.loc	9 329 55 is_stmt 0              @ ../../../ThirdParty/mbedTLS/library/pkparse.c:329:55
	ldr	r1, [sp, #24]
.Ltmp764:
	@DEBUG_VALUE: pk_group_from_specified:p <- $r1
	.loc	9 329 52                        @ ../../../ThirdParty/mbedTLS/library/pkparse.c:329:52
	mov	r0, r4
.Ltmp765:
	adds	r0, #28
	.loc	9 329 21                        @ ../../../ThirdParty/mbedTLS/library/pkparse.c:329:21
	bl	mbedtls_mpi_read_binary
.Ltmp766:
	@DEBUG_VALUE: pk_group_from_specified:ret <- $r0
	.loc	9 328 9 is_stmt 1               @ ../../../ThirdParty/mbedTLS/library/pkparse.c:328:9
	cbz	r0, .LBB14_20
.Ltmp767:
.LBB14_19:
	@DEBUG_VALUE: pk_group_from_specified:end_curve <- $r7
	@DEBUG_VALUE: pk_group_from_specified:end <- $r5
	@DEBUG_VALUE: pk_group_from_specified:grp <- $r4
	@DEBUG_VALUE: pk_group_from_specified:ret <- $r0
	@DEBUG_VALUE: pk_group_from_specified:end_field <- [DW_OP_plus_uconst 12] [$sp+0]
	@DEBUG_VALUE: pk_group_from_specified:params <- [DW_OP_LLVM_entry_value 1] $r0
	@DEBUG_VALUE: pk_group_from_specified:ret <- $r0
	.loc	9 331 51                        @ ../../../ThirdParty/mbedTLS/library/pkparse.c:331:51
	adds	r7, r0, r6
.Ltmp768:
	.loc	9 331 9 is_stmt 0               @ ../../../ThirdParty/mbedTLS/library/pkparse.c:331:9
	b	.LBB14_16
.Ltmp769:
.LBB14_20:
	@DEBUG_VALUE: pk_group_from_specified:end_curve <- $r7
	@DEBUG_VALUE: pk_group_from_specified:end <- $r5
	@DEBUG_VALUE: pk_group_from_specified:grp <- $r4
	@DEBUG_VALUE: pk_group_from_specified:ret <- $r0
	@DEBUG_VALUE: pk_group_from_specified:end_field <- [DW_OP_plus_uconst 12] [$sp+0]
	@DEBUG_VALUE: pk_group_from_specified:params <- [DW_OP_LLVM_entry_value 1] $r0
	.loc	9 334 10 is_stmt 1              @ ../../../ThirdParty/mbedTLS/library/pkparse.c:334:10
	ldr	r0, [sp, #20]
.Ltmp770:
	@DEBUG_VALUE: pk_group_from_specified:len <- $r0
	.loc	9 334 7 is_stmt 0               @ ../../../ThirdParty/mbedTLS/library/pkparse.c:334:7
	ldr	r1, [sp, #24]
.Ltmp771:
	@DEBUG_VALUE: pk_group_from_specified:p <- $r1
	adds	r0, r1, r0
.Ltmp772:
	@DEBUG_VALUE: pk_group_from_specified:p <- $r0
	str	r0, [sp, #24]
.Ltmp773:
	@DEBUG_VALUE: pk_group_from_specified:len <- [DW_OP_plus_uconst 20, DW_OP_deref] $sp
	@DEBUG_VALUE: pk_group_from_specified:p <- [DW_OP_plus_uconst 24, DW_OP_deref] $sp
	.loc	9 0 7                           @ ../../../ThirdParty/mbedTLS/library/pkparse.c:0:7
	add	r0, sp, #24
	add	r2, sp, #20
	movs	r3, #3
.Ltmp774:
	.loc	9 337 17 is_stmt 1              @ ../../../ThirdParty/mbedTLS/library/pkparse.c:337:17
	mov	r1, r7
	bl	mbedtls_asn1_get_tag
.Ltmp775:
	@DEBUG_VALUE: pk_group_from_specified:ret <- $r0
	.loc	9 337 9 is_stmt 0               @ ../../../ThirdParty/mbedTLS/library/pkparse.c:337:9
	cbnz	r0, .LBB14_22
.Ltmp776:
@ %bb.21:
	@DEBUG_VALUE: pk_group_from_specified:end_curve <- $r7
	@DEBUG_VALUE: pk_group_from_specified:end <- $r5
	@DEBUG_VALUE: pk_group_from_specified:grp <- $r4
	@DEBUG_VALUE: pk_group_from_specified:ret <- $r0
	@DEBUG_VALUE: pk_group_from_specified:end_field <- [DW_OP_plus_uconst 12] [$sp+0]
	@DEBUG_VALUE: pk_group_from_specified:len <- [DW_OP_plus_uconst 20, DW_OP_deref] $sp
	@DEBUG_VALUE: pk_group_from_specified:p <- [DW_OP_plus_uconst 24, DW_OP_deref] $sp
	@DEBUG_VALUE: pk_group_from_specified:params <- [DW_OP_LLVM_entry_value 1] $r0
	.loc	9 338 14 is_stmt 1              @ ../../../ThirdParty/mbedTLS/library/pkparse.c:338:14
	ldr	r0, [sp, #20]
.Ltmp777:
	@DEBUG_VALUE: pk_group_from_specified:len <- $r0
	.loc	9 338 11 is_stmt 0              @ ../../../ThirdParty/mbedTLS/library/pkparse.c:338:11
	ldr	r1, [sp, #24]
.Ltmp778:
	@DEBUG_VALUE: pk_group_from_specified:p <- $r1
	adds	r0, r1, r0
.Ltmp779:
	@DEBUG_VALUE: pk_group_from_specified:p <- $r0
	str	r0, [sp, #24]
.Ltmp780:
.LBB14_22:
	@DEBUG_VALUE: pk_group_from_specified:end_curve <- $r7
	@DEBUG_VALUE: pk_group_from_specified:end <- $r5
	@DEBUG_VALUE: pk_group_from_specified:grp <- $r4
	@DEBUG_VALUE: pk_group_from_specified:end_field <- [DW_OP_plus_uconst 12] [$sp+0]
	@DEBUG_VALUE: pk_group_from_specified:params <- [DW_OP_LLVM_entry_value 1] $r0
	.loc	9 340 9 is_stmt 1               @ ../../../ThirdParty/mbedTLS/library/pkparse.c:340:9
	ldr	r0, [sp, #24]
.Ltmp781:
	@DEBUG_VALUE: pk_group_from_specified:p <- $r0
	.loc	9 340 9 is_stmt 0               @ ../../../ThirdParty/mbedTLS/library/pkparse.c:340:9
	cmp	r0, r7
	.loc	9 0 0                           @ ../../../ThirdParty/mbedTLS/library/pkparse.c:0:0
	ldr	r7, [sp, #12]                   @ 4-byte Reload
.Ltmp782:
	.loc	9 340 9                         @ ../../../ThirdParty/mbedTLS/library/pkparse.c:340:9
	bne	.LBB14_16
.Ltmp783:
@ %bb.23:
	@DEBUG_VALUE: pk_group_from_specified:end <- $r5
	@DEBUG_VALUE: pk_group_from_specified:grp <- $r4
	@DEBUG_VALUE: pk_group_from_specified:p <- $r0
	@DEBUG_VALUE: pk_group_from_specified:end_field <- [DW_OP_plus_uconst 12] [$sp+0]
	@DEBUG_VALUE: pk_group_from_specified:params <- [DW_OP_LLVM_entry_value 1] $r0
	@DEBUG_VALUE: pk_group_from_specified:p <- [DW_OP_plus_uconst 24, DW_OP_deref] $sp
	@DEBUG_VALUE: pk_group_from_specified:len <- [DW_OP_plus_uconst 20, DW_OP_deref] $sp
	.loc	9 0 9                           @ ../../../ThirdParty/mbedTLS/library/pkparse.c:0:9
	add	r0, sp, #24
	add	r2, sp, #20
	movs	r3, #4
.Ltmp784:
	.loc	9 347 17 is_stmt 1              @ ../../../ThirdParty/mbedTLS/library/pkparse.c:347:17
	mov	r1, r5
	bl	mbedtls_asn1_get_tag
.Ltmp785:
	@DEBUG_VALUE: pk_group_from_specified:ret <- $r0
	.loc	9 347 9 is_stmt 0               @ ../../../ThirdParty/mbedTLS/library/pkparse.c:347:9
	cbz	r0, .LBB14_25
.Ltmp786:
@ %bb.24:
	@DEBUG_VALUE: pk_group_from_specified:end <- $r5
	@DEBUG_VALUE: pk_group_from_specified:grp <- $r4
	@DEBUG_VALUE: pk_group_from_specified:ret <- $r0
	@DEBUG_VALUE: pk_group_from_specified:end_field <- [DW_OP_plus_uconst 12] [$sp+0]
	@DEBUG_VALUE: pk_group_from_specified:len <- [DW_OP_plus_uconst 20, DW_OP_deref] $sp
	@DEBUG_VALUE: pk_group_from_specified:p <- [DW_OP_plus_uconst 24, DW_OP_deref] $sp
	@DEBUG_VALUE: pk_group_from_specified:params <- [DW_OP_LLVM_entry_value 1] $r0
	.loc	9 348 51 is_stmt 1              @ ../../../ThirdParty/mbedTLS/library/pkparse.c:348:51
	adds	r7, r0, r6
	.loc	9 348 9 is_stmt 0               @ ../../../ThirdParty/mbedTLS/library/pkparse.c:348:9
	b	.LBB14_16
.Ltmp787:
.LBB14_25:
	@DEBUG_VALUE: pk_group_from_specified:end <- $r5
	@DEBUG_VALUE: pk_group_from_specified:grp <- $r4
	@DEBUG_VALUE: pk_group_from_specified:ret <- $r0
	@DEBUG_VALUE: pk_group_from_specified:end_field <- [DW_OP_plus_uconst 12] [$sp+0]
	@DEBUG_VALUE: pk_group_from_specified:len <- [DW_OP_plus_uconst 20, DW_OP_deref] $sp
	@DEBUG_VALUE: pk_group_from_specified:p <- [DW_OP_plus_uconst 24, DW_OP_deref] $sp
	@DEBUG_VALUE: pk_group_from_specified:params <- [DW_OP_LLVM_entry_value 1] $r0
	.loc	9 351 45 is_stmt 1              @ ../../../ThirdParty/mbedTLS/library/pkparse.c:351:45
	ldr	r3, [sp, #20]
.Ltmp788:
	@DEBUG_VALUE: pk_group_from_specified:len <- $r3
	.loc	9 351 42 is_stmt 0              @ ../../../ThirdParty/mbedTLS/library/pkparse.c:351:42
	ldr	r2, [sp, #24]
.Ltmp789:
	@DEBUG_VALUE: pk_group_from_specified:p <- $r2
	.loc	9 350 59 is_stmt 1              @ ../../../ThirdParty/mbedTLS/library/pkparse.c:350:59
	mov	r7, r4
	adds	r7, #40
	.loc	9 350 17 is_stmt 0              @ ../../../ThirdParty/mbedTLS/library/pkparse.c:350:17
	mov	r0, r4
.Ltmp790:
	mov	r1, r7
	bl	mbedtls_ecp_point_read_binary
.Ltmp791:
	@DEBUG_VALUE: pk_group_from_specified:ret <- $r0
	.loc	9 350 9                         @ ../../../ThirdParty/mbedTLS/library/pkparse.c:350:9
	cbz	r0, .LBB14_38
.Ltmp792:
@ %bb.26:
	@DEBUG_VALUE: pk_group_from_specified:end <- $r5
	@DEBUG_VALUE: pk_group_from_specified:grp <- $r4
	@DEBUG_VALUE: pk_group_from_specified:ret <- $r0
	@DEBUG_VALUE: pk_group_from_specified:end_field <- [DW_OP_plus_uconst 12] [$sp+0]
	@DEBUG_VALUE: pk_group_from_specified:params <- [DW_OP_LLVM_entry_value 1] $r0
	.loc	9 0 9                           @ ../../../ThirdParty/mbedTLS/library/pkparse.c:0:9
	ldr	r1, __arm_cp.14_3
	.loc	9 350 9                         @ ../../../ThirdParty/mbedTLS/library/pkparse.c:350:9
	cmp	r0, r1
	bne	.LBB14_31
.Ltmp793:
@ %bb.27:
	@DEBUG_VALUE: pk_group_from_specified:end <- $r5
	@DEBUG_VALUE: pk_group_from_specified:grp <- $r4
	@DEBUG_VALUE: pk_group_from_specified:ret <- $r0
	@DEBUG_VALUE: pk_group_from_specified:end_field <- [DW_OP_plus_uconst 12] [$sp+0]
	@DEBUG_VALUE: pk_group_from_specified:params <- [DW_OP_LLVM_entry_value 1] $r0
	.loc	9 358 19 is_stmt 1              @ ../../../ThirdParty/mbedTLS/library/pkparse.c:358:19
	ldr	r0, [sp, #24]
.Ltmp794:
	@DEBUG_VALUE: pk_group_from_specified:p <- $r0
	ldrb	r0, [r0]
.Ltmp795:
	.loc	9 0 19 is_stmt 0                @ ../../../ThirdParty/mbedTLS/library/pkparse.c:0:19
	movs	r1, #254
	.loc	9 358 32                        @ ../../../ThirdParty/mbedTLS/library/pkparse.c:358:32
	ands	r1, r0
	cmp	r1, #2
	bne	.LBB14_32
.Ltmp796:
@ %bb.28:
	@DEBUG_VALUE: pk_group_from_specified:end <- $r5
	@DEBUG_VALUE: pk_group_from_specified:grp <- $r4
	@DEBUG_VALUE: pk_group_from_specified:end_field <- [DW_OP_plus_uconst 12] [$sp+0]
	@DEBUG_VALUE: pk_group_from_specified:params <- [DW_OP_LLVM_entry_value 1] $r0
	.loc	9 359 17 is_stmt 1              @ ../../../ThirdParty/mbedTLS/library/pkparse.c:359:17
	ldr	r0, [sp, #20]
.Ltmp797:
	@DEBUG_VALUE: pk_group_from_specified:len <- $r0
	.loc	9 359 24 is_stmt 0              @ ../../../ThirdParty/mbedTLS/library/pkparse.c:359:24
	str	r0, [sp, #12]                   @ 4-byte Spill
.Ltmp798:
	@DEBUG_VALUE: pk_group_from_specified:len <- [DW_OP_plus_uconst 12] [$sp+0]
	@DEBUG_VALUE: pk_group_from_specified:len <- [DW_OP_plus_uconst 12] [$sp+0]
	ldr	r0, [sp, #8]                    @ 4-byte Reload
	bl	mbedtls_mpi_size
	.loc	9 359 52                        @ ../../../ThirdParty/mbedTLS/library/pkparse.c:359:52
	adds	r0, r0, #1
	.loc	9 359 56                        @ ../../../ThirdParty/mbedTLS/library/pkparse.c:359:56
	ldr	r1, [sp, #12]                   @ 4-byte Reload
.Ltmp799:
	@DEBUG_VALUE: pk_group_from_specified:len <- $r1
	cmp	r1, r0
	bne	.LBB14_33
.Ltmp800:
@ %bb.29:
	@DEBUG_VALUE: pk_group_from_specified:end <- $r5
	@DEBUG_VALUE: pk_group_from_specified:grp <- $r4
	@DEBUG_VALUE: pk_group_from_specified:len <- $r1
	@DEBUG_VALUE: pk_group_from_specified:end_field <- [DW_OP_plus_uconst 12] [$sp+0]
	@DEBUG_VALUE: pk_group_from_specified:params <- [DW_OP_LLVM_entry_value 1] $r0
	.loc	9 360 60 is_stmt 1              @ ../../../ThirdParty/mbedTLS/library/pkparse.c:360:60
	ldr	r0, [sp, #20]
.Ltmp801:
	@DEBUG_VALUE: pk_group_from_specified:len <- $r0
	.loc	9 360 53 is_stmt 0              @ ../../../ThirdParty/mbedTLS/library/pkparse.c:360:53
	ldr	r1, [sp, #24]
.Ltmp802:
	@DEBUG_VALUE: pk_group_from_specified:p <- $r1
	.loc	9 360 55                        @ ../../../ThirdParty/mbedTLS/library/pkparse.c:360:55
	adds	r1, r1, #1
.Ltmp803:
	.loc	9 360 64                        @ ../../../ThirdParty/mbedTLS/library/pkparse.c:360:64
	subs	r2, r0, #1
	.loc	9 360 17                        @ ../../../ThirdParty/mbedTLS/library/pkparse.c:360:17
	mov	r0, r7
.Ltmp804:
	bl	mbedtls_mpi_read_binary
	.loc	9 360 75                        @ ../../../ThirdParty/mbedTLS/library/pkparse.c:360:75
	cbz	r0, .LBB14_34
.Ltmp805:
@ %bb.30:
	@DEBUG_VALUE: pk_group_from_specified:end <- $r5
	@DEBUG_VALUE: pk_group_from_specified:grp <- $r4
	@DEBUG_VALUE: pk_group_from_specified:end_field <- [DW_OP_plus_uconst 12] [$sp+0]
	@DEBUG_VALUE: pk_group_from_specified:params <- [DW_OP_LLVM_entry_value 1] $r0
	.loc	9 0 0                           @ ../../../ThirdParty/mbedTLS/library/pkparse.c:0:0
	mov	r7, r6
	b	.LBB14_16
.Ltmp806:
.LBB14_31:
	@DEBUG_VALUE: pk_group_from_specified:end <- $r5
	@DEBUG_VALUE: pk_group_from_specified:grp <- $r4
	@DEBUG_VALUE: pk_group_from_specified:ret <- $r0
	@DEBUG_VALUE: pk_group_from_specified:end_field <- [DW_OP_plus_uconst 12] [$sp+0]
	@DEBUG_VALUE: pk_group_from_specified:params <- [DW_OP_LLVM_entry_value 1] $r0
	mov	r7, r6
	b	.LBB14_16
.Ltmp807:
.LBB14_32:
	@DEBUG_VALUE: pk_group_from_specified:end <- $r5
	@DEBUG_VALUE: pk_group_from_specified:grp <- $r4
	@DEBUG_VALUE: pk_group_from_specified:end_field <- [DW_OP_plus_uconst 12] [$sp+0]
	@DEBUG_VALUE: pk_group_from_specified:params <- [DW_OP_LLVM_entry_value 1] $r0
	mov	r7, r6
	b	.LBB14_16
.Ltmp808:
.LBB14_33:
	@DEBUG_VALUE: pk_group_from_specified:end <- $r5
	@DEBUG_VALUE: pk_group_from_specified:grp <- $r4
	@DEBUG_VALUE: pk_group_from_specified:len <- $r1
	@DEBUG_VALUE: pk_group_from_specified:end_field <- [DW_OP_plus_uconst 12] [$sp+0]
	@DEBUG_VALUE: pk_group_from_specified:params <- [DW_OP_LLVM_entry_value 1] $r0
	mov	r7, r6
	b	.LBB14_16
.Ltmp809:
.LBB14_34:
	@DEBUG_VALUE: pk_group_from_specified:end <- $r5
	@DEBUG_VALUE: pk_group_from_specified:grp <- $r4
	@DEBUG_VALUE: pk_group_from_specified:end_field <- [DW_OP_plus_uconst 12] [$sp+0]
	@DEBUG_VALUE: pk_group_from_specified:params <- [DW_OP_LLVM_entry_value 1] $r0
	.loc	9 361 46 is_stmt 1              @ ../../../ThirdParty/mbedTLS/library/pkparse.c:361:46
	ldr	r0, [sp, #24]
.Ltmp810:
	@DEBUG_VALUE: pk_group_from_specified:p <- $r0
	ldrb	r1, [r0]
	.loc	9 361 43 is_stmt 0              @ ../../../ThirdParty/mbedTLS/library/pkparse.c:361:43
	mov	r0, r4
.Ltmp811:
	adds	r0, #52
	.loc	9 361 51                        @ ../../../ThirdParty/mbedTLS/library/pkparse.c:361:51
	subs	r1, r1, #2
	.loc	9 361 17                        @ ../../../ThirdParty/mbedTLS/library/pkparse.c:361:17
	bl	mbedtls_mpi_lset
	.loc	9 361 62                        @ ../../../ThirdParty/mbedTLS/library/pkparse.c:361:62
	cbz	r0, .LBB14_36
.Ltmp812:
@ %bb.35:
	@DEBUG_VALUE: pk_group_from_specified:end <- $r5
	@DEBUG_VALUE: pk_group_from_specified:grp <- $r4
	@DEBUG_VALUE: pk_group_from_specified:end_field <- [DW_OP_plus_uconst 12] [$sp+0]
	@DEBUG_VALUE: pk_group_from_specified:params <- [DW_OP_LLVM_entry_value 1] $r0
	.loc	9 0 0                           @ ../../../ThirdParty/mbedTLS/library/pkparse.c:0:0
	mov	r7, r6
	b	.LBB14_16
.Ltmp813:
.LBB14_36:
	@DEBUG_VALUE: pk_group_from_specified:end <- $r5
	@DEBUG_VALUE: pk_group_from_specified:grp <- $r4
	@DEBUG_VALUE: pk_group_from_specified:end_field <- [DW_OP_plus_uconst 12] [$sp+0]
	@DEBUG_VALUE: pk_group_from_specified:params <- [DW_OP_LLVM_entry_value 1] $r0
	.loc	9 362 43 is_stmt 1              @ ../../../ThirdParty/mbedTLS/library/pkparse.c:362:43
	mov	r0, r4
	adds	r0, #64
	movs	r1, #1
	.loc	9 362 17 is_stmt 0              @ ../../../ThirdParty/mbedTLS/library/pkparse.c:362:17
	bl	mbedtls_mpi_lset
.Ltmp814:
	.loc	9 357 13 is_stmt 1              @ ../../../ThirdParty/mbedTLS/library/pkparse.c:357:13
	cbz	r0, .LBB14_38
.Ltmp815:
@ %bb.37:
	@DEBUG_VALUE: pk_group_from_specified:end <- $r5
	@DEBUG_VALUE: pk_group_from_specified:grp <- $r4
	@DEBUG_VALUE: pk_group_from_specified:end_field <- [DW_OP_plus_uconst 12] [$sp+0]
	@DEBUG_VALUE: pk_group_from_specified:params <- [DW_OP_LLVM_entry_value 1] $r0
	.loc	9 0 0 is_stmt 0                 @ ../../../ThirdParty/mbedTLS/library/pkparse.c:0:0
	mov	r7, r6
	b	.LBB14_16
.Ltmp816:
.LBB14_38:
	@DEBUG_VALUE: pk_group_from_specified:end <- $r5
	@DEBUG_VALUE: pk_group_from_specified:grp <- $r4
	@DEBUG_VALUE: pk_group_from_specified:end_field <- [DW_OP_plus_uconst 12] [$sp+0]
	@DEBUG_VALUE: pk_group_from_specified:params <- [DW_OP_LLVM_entry_value 1] $r0
	.loc	9 368 10 is_stmt 1              @ ../../../ThirdParty/mbedTLS/library/pkparse.c:368:10
	ldr	r0, [sp, #20]
.Ltmp817:
	@DEBUG_VALUE: pk_group_from_specified:len <- $r0
	.loc	9 368 7 is_stmt 0               @ ../../../ThirdParty/mbedTLS/library/pkparse.c:368:7
	ldr	r1, [sp, #24]
.Ltmp818:
	@DEBUG_VALUE: pk_group_from_specified:p <- $r1
	adds	r0, r1, r0
.Ltmp819:
	@DEBUG_VALUE: pk_group_from_specified:p <- $r0
	str	r0, [sp, #24]
.Ltmp820:
	@DEBUG_VALUE: pk_group_from_specified:p <- [DW_OP_plus_uconst 24, DW_OP_deref] $sp
	.loc	9 373 54 is_stmt 1              @ ../../../ThirdParty/mbedTLS/library/pkparse.c:373:54
	mov	r7, r4
	adds	r7, #76
	add	r0, sp, #24
	.loc	9 373 17 is_stmt 0              @ ../../../ThirdParty/mbedTLS/library/pkparse.c:373:17
	mov	r1, r5
	mov	r2, r7
	bl	mbedtls_asn1_get_mpi
.Ltmp821:
	@DEBUG_VALUE: pk_group_from_specified:ret <- $r0
	.loc	9 373 9                         @ ../../../ThirdParty/mbedTLS/library/pkparse.c:373:9
	cbz	r0, .LBB14_40
.Ltmp822:
@ %bb.39:
	@DEBUG_VALUE: pk_group_from_specified:end <- $r5
	@DEBUG_VALUE: pk_group_from_specified:grp <- $r4
	@DEBUG_VALUE: pk_group_from_specified:ret <- $r0
	@DEBUG_VALUE: pk_group_from_specified:end_field <- [DW_OP_plus_uconst 12] [$sp+0]
	@DEBUG_VALUE: pk_group_from_specified:p <- [DW_OP_plus_uconst 24, DW_OP_deref] $sp
	@DEBUG_VALUE: pk_group_from_specified:params <- [DW_OP_LLVM_entry_value 1] $r0
	.loc	9 374 51 is_stmt 1              @ ../../../ThirdParty/mbedTLS/library/pkparse.c:374:51
	adds	r7, r0, r6
	.loc	9 374 9 is_stmt 0               @ ../../../ThirdParty/mbedTLS/library/pkparse.c:374:9
	b	.LBB14_16
.Ltmp823:
.LBB14_40:
	@DEBUG_VALUE: pk_group_from_specified:end <- $r5
	@DEBUG_VALUE: pk_group_from_specified:grp <- $r4
	@DEBUG_VALUE: pk_group_from_specified:ret <- $r0
	@DEBUG_VALUE: pk_group_from_specified:end_field <- [DW_OP_plus_uconst 12] [$sp+0]
	@DEBUG_VALUE: pk_group_from_specified:p <- [DW_OP_plus_uconst 24, DW_OP_deref] $sp
	@DEBUG_VALUE: pk_group_from_specified:params <- [DW_OP_LLVM_entry_value 1] $r0
	.loc	9 376 18 is_stmt 1              @ ../../../ThirdParty/mbedTLS/library/pkparse.c:376:18
	mov	r0, r7
.Ltmp824:
	bl	mbedtls_mpi_bitlen
	.loc	9 376 16 is_stmt 0              @ ../../../ThirdParty/mbedTLS/library/pkparse.c:376:16
	str	r0, [r4, #92]
	movs	r7, #0
	b	.LBB14_16
.Ltmp825:
	.p2align	2
@ %bb.41:
	.loc	9 0 16                          @ ../../../ThirdParty/mbedTLS/library/pkparse.c:0:16
__arm_cp.14_0:
	.long	4294951680                      @ 0xffffc300
.Lcpi_end30:
	.size	__arm_cp.14_0, .Lcpi_end30-__arm_cp.14_0
__arm_cp.14_1:
	.long	4294952576                      @ 0xffffc680
.Lcpi_end31:
	.size	__arm_cp.14_1, .Lcpi_end31-__arm_cp.14_1
.LCPI14_2:
.L.str.12:
	.asciz	"*\206H\316=\001\001"
__arm_cp.14_3:
	.long	4294947200                      @ 0xffffb180
.Lcpi_end32:
	.size	__arm_cp.14_3, .Lcpi_end32-__arm_cp.14_3
.Lfunc_end14:
	.size	pk_group_from_specified, .Lfunc_end14-pk_group_from_specified
	.cfi_endproc
	.cantunwind
	.fnend
                                        @ -- End function
	.section	.text.pk_group_id_from_group,"ax",%progbits
