	.text
	.syntax unified
	.eabi_attribute	67, "2.09"	@ Tag_conformance
	.cpu	cortex-m23
	.eabi_attribute	6, 16	@ Tag_CPU_arch
	.eabi_attribute	7, 77	@ Tag_CPU_arch_profile
	.eabi_attribute	8, 0	@ Tag_ARM_ISA_use
	.eabi_attribute	9, 3	@ Tag_THUMB_ISA_use
	.eabi_attribute	34, 0	@ Tag_CPU_unaligned_access
	.eabi_attribute	17, 1	@ Tag_ABI_PCS_GOT_use
	.eabi_attribute	20, 2	@ Tag_ABI_FP_denormal
	.eabi_attribute	21, 0	@ Tag_ABI_FP_exceptions
	.eabi_attribute	23, 1	@ Tag_ABI_FP_number_model
	.eabi_attribute	24, 1	@ Tag_ABI_align_needed
	.eabi_attribute	25, 1	@ Tag_ABI_align_preserved
	.eabi_attribute	38, 1	@ Tag_ABI_FP_16bit_format
	.eabi_attribute	18, 2	@ Tag_ABI_PCS_wchar_t
	.eabi_attribute	26, 1	@ Tag_ABI_enum_size
	.eabi_attribute	14, 0	@ Tag_ABI_PCS_R9_use
	.file	"pkwrite.c"
	.file	1 "C:\\Users\\shw26\\OneDrive\\Desktop\\2021\\2021-1\\\354\272\241\354\212\244\355\206\244\353\224\224\354\236\220\354\235\2702\\Nuvoton\\M2351_BSP_v3.00.004\\M2351Series_BSP_CMSIS_V3.00.004\\MyProject\\PulseMonitoring\\Secure" "../../../ThirdParty/mbedTLS/include/mbedtls/pk.h"
	.file	2 "C:\\Users\\shw26\\OneDrive\\Desktop\\2021\\2021-1\\\354\272\241\354\212\244\355\206\244\353\224\224\354\236\220\354\235\2702\\Nuvoton\\M2351_BSP_v3.00.004\\M2351Series_BSP_CMSIS_V3.00.004\\MyProject\\PulseMonitoring\\Secure" "../../../ThirdParty/mbedTLS/include/mbedtls\\ecp.h"
	.file	3 "C:\\Users\\shw26\\OneDrive\\Desktop\\2021\\2021-1\\\354\272\241\354\212\244\355\206\244\353\224\224\354\236\220\354\235\2702\\Nuvoton\\M2351_BSP_v3.00.004\\M2351Series_BSP_CMSIS_V3.00.004\\MyProject\\PulseMonitoring\\Secure" "../../../ThirdParty/mbedTLS/include/mbedtls\\rsa.h"
	.file	4 "C:\\" "Keil_v5\\ARM\\ARMCLANG\\Bin\\..\\include\\stddef.h"
	.file	5 "C:\\Users\\shw26\\OneDrive\\Desktop\\2021\\2021-1\\\354\272\241\354\212\244\355\206\244\353\224\224\354\236\220\354\235\2702\\Nuvoton\\M2351_BSP_v3.00.004\\M2351Series_BSP_CMSIS_V3.00.004\\MyProject\\PulseMonitoring\\Secure" "../../../ThirdParty/mbedTLS/include/mbedtls/bignum.h"
	.file	6 "C:\\" "Keil_v5\\ARM\\ARMCLANG\\Bin\\..\\include\\stdint.h"
	.section	.text.mbedtls_pk_write_pubkey,"ax",%progbits
	.hidden	mbedtls_pk_write_pubkey         @ -- Begin function mbedtls_pk_write_pubkey
	.globl	mbedtls_pk_write_pubkey
	.p2align	2
	.type	mbedtls_pk_write_pubkey,%function
	.code	16                              @ @mbedtls_pk_write_pubkey
	.thumb_func
mbedtls_pk_write_pubkey:
.Lfunc_begin0:
	.file	7 "C:\\Users\\shw26\\OneDrive\\Desktop\\2021\\2021-1\\\354\272\241\354\212\244\355\206\244\353\224\224\354\236\220\354\235\2702\\Nuvoton\\M2351_BSP_v3.00.004\\M2351Series_BSP_CMSIS_V3.00.004\\MyProject\\PulseMonitoring\\Secure" "../../../ThirdParty/mbedTLS/library/pkwrite.c"
	.loc	7 161 0                         @ ../../../ThirdParty/mbedTLS/library/pkwrite.c:161:0
	.fnstart
	.cfi_sections .debug_frame
	.cfi_startproc
@ %bb.0:
	@DEBUG_VALUE: mbedtls_pk_write_pubkey:p <- $r0
	@DEBUG_VALUE: mbedtls_pk_write_pubkey:start <- $r1
	@DEBUG_VALUE: mbedtls_pk_write_pubkey:key <- $r2
	.save	{r4, r5, r6, lr}
	push	{r4, r5, r6, lr}
	.cfi_def_cfa_offset 16
	.cfi_offset lr, -4
	.cfi_offset r6, -8
	.cfi_offset r5, -12
	.cfi_offset r4, -16
	mov	r6, r2
	mov	r4, r1
	mov	r5, r0
.Ltmp0:
	@DEBUG_VALUE: mbedtls_pk_write_pubkey:len <- 0
	@DEBUG_VALUE: mbedtls_pk_write_pubkey:key <- $r6
	@DEBUG_VALUE: mbedtls_pk_write_pubkey:start <- $r4
	@DEBUG_VALUE: mbedtls_pk_write_pubkey:p <- $r5
	.loc	7 171 9 prologue_end            @ ../../../ThirdParty/mbedTLS/library/pkwrite.c:171:9
	mov	r0, r2
	bl	mbedtls_pk_get_type
.Ltmp1:
	.loc	7 171 9 is_stmt 0               @ ../../../ThirdParty/mbedTLS/library/pkwrite.c:171:9
	cmp	r0, #1
	bne	.LBB0_2
.Ltmp2:
@ %bb.1:
	@DEBUG_VALUE: mbedtls_pk_write_pubkey:key <- $r6
	@DEBUG_VALUE: mbedtls_pk_write_pubkey:p <- $r5
	@DEBUG_VALUE: mbedtls_pk_write_pubkey:start <- $r4
	@DEBUG_VALUE: mbedtls_pk_write_pubkey:len <- 0
	.loc	7 172 9 is_stmt 1               @ ../../../ThirdParty/mbedTLS/library/pkwrite.c:172:9
	ldm	r6!, {r0, r1}
.Ltmp3:
	bl	mbedtls_pk_rsa
	mov	r2, r0
	mov	r0, r5
	mov	r1, r4
	bl	pk_write_rsa_pubkey
.Ltmp4:
	@DEBUG_VALUE: mbedtls_pk_write_pubkey:ret <- $r0
	.loc	7 172 9 is_stmt 0               @ ../../../ThirdParty/mbedTLS/library/pkwrite.c:172:9
	pop	{r4, r5, r6, pc}
.Ltmp5:
.LBB0_2:
	@DEBUG_VALUE: mbedtls_pk_write_pubkey:key <- $r6
	@DEBUG_VALUE: mbedtls_pk_write_pubkey:p <- $r5
	@DEBUG_VALUE: mbedtls_pk_write_pubkey:start <- $r4
	@DEBUG_VALUE: mbedtls_pk_write_pubkey:len <- 0
	.loc	7 176 13 is_stmt 1              @ ../../../ThirdParty/mbedTLS/library/pkwrite.c:176:13
	mov	r0, r6
	bl	mbedtls_pk_get_type
.Ltmp6:
	.loc	7 176 13 is_stmt 0              @ ../../../ThirdParty/mbedTLS/library/pkwrite.c:176:13
	cmp	r0, #2
	bne	.LBB0_4
.Ltmp7:
@ %bb.3:
	@DEBUG_VALUE: mbedtls_pk_write_pubkey:key <- $r6
	@DEBUG_VALUE: mbedtls_pk_write_pubkey:p <- $r5
	@DEBUG_VALUE: mbedtls_pk_write_pubkey:start <- $r4
	@DEBUG_VALUE: mbedtls_pk_write_pubkey:len <- 0
	.loc	7 177 13 is_stmt 1              @ ../../../ThirdParty/mbedTLS/library/pkwrite.c:177:13
	ldm	r6!, {r0, r1}
.Ltmp8:
	bl	mbedtls_pk_ec
	mov	r2, r0
	mov	r0, r5
	mov	r1, r4
	bl	pk_write_ec_pubkey
.Ltmp9:
	@DEBUG_VALUE: mbedtls_pk_write_pubkey:ret <- $r0
	.loc	7 206 1                         @ ../../../ThirdParty/mbedTLS/library/pkwrite.c:206:1
	pop	{r4, r5, r6, pc}
.Ltmp10:
.LBB0_4:
	@DEBUG_VALUE: mbedtls_pk_write_pubkey:key <- $r6
	@DEBUG_VALUE: mbedtls_pk_write_pubkey:p <- $r5
	@DEBUG_VALUE: mbedtls_pk_write_pubkey:start <- $r4
	@DEBUG_VALUE: mbedtls_pk_write_pubkey:len <- 0
	.loc	7 0 1 is_stmt 0                 @ ../../../ThirdParty/mbedTLS/library/pkwrite.c:0:1
	ldr	r0, __arm_cp.0_0
	.loc	7 206 1                         @ ../../../ThirdParty/mbedTLS/library/pkwrite.c:206:1
	pop	{r4, r5, r6, pc}
.Ltmp11:
	.p2align	2
@ %bb.5:
	.loc	7 0 1                           @ ../../../ThirdParty/mbedTLS/library/pkwrite.c:0:1
__arm_cp.0_0:
	.long	4294952576                      @ 0xffffc680
.Lcpi_end0:
	.size	__arm_cp.0_0, .Lcpi_end0-__arm_cp.0_0
.Lfunc_end0:
	.size	mbedtls_pk_write_pubkey, .Lfunc_end0-mbedtls_pk_write_pubkey
	.cfi_endproc
	.cantunwind
	.fnend
                                        @ -- End function
	.section	.text.pk_write_rsa_pubkey,"ax",%progbits
	.p2align	1                               @ -- Begin function pk_write_rsa_pubkey
	.type	pk_write_rsa_pubkey,%function
	.code	16                              @ @pk_write_rsa_pubkey
	.thumb_func
pk_write_rsa_pubkey:
.Lfunc_begin1:
	.loc	7 77 0 is_stmt 1                @ ../../../ThirdParty/mbedTLS/library/pkwrite.c:77:0
	.fnstart
	.cfi_startproc
@ %bb.0:
	@DEBUG_VALUE: pk_write_rsa_pubkey:p <- $r0
	@DEBUG_VALUE: pk_write_rsa_pubkey:start <- $r1
	@DEBUG_VALUE: pk_write_rsa_pubkey:rsa <- $r2
	.save	{r4, r5, r6, r7, lr}
	push	{r4, r5, r6, r7, lr}
	.cfi_def_cfa_offset 20
	.cfi_offset lr, -4
	.cfi_offset r7, -8
	.cfi_offset r6, -12
	.cfi_offset r5, -16
	.cfi_offset r4, -20
	.pad	#28
	sub	sp, #28
	.cfi_def_cfa_offset 48
	mov	r7, r2
	str	r1, [sp, #12]                   @ 4-byte Spill
	mov	r4, r0
.Ltmp12:
	@DEBUG_VALUE: pk_write_rsa_pubkey:len <- 0
	@DEBUG_VALUE: pk_write_rsa_pubkey:rsa <- $r7
	@DEBUG_VALUE: pk_write_rsa_pubkey:start <- [DW_OP_plus_uconst 12] [$sp+0]
	@DEBUG_VALUE: pk_write_rsa_pubkey:p <- $r4
	add	r5, sp, #16
.Ltmp13:
	.loc	7 82 5 prologue_end             @ ../../../ThirdParty/mbedTLS/library/pkwrite.c:82:5
	mov	r0, r5
	bl	mbedtls_mpi_init
	movs	r6, #0
.Ltmp14:
	.loc	7 85 18                         @ ../../../ThirdParty/mbedTLS/library/pkwrite.c:85:18
	str	r6, [sp]
	str	r5, [sp, #4]
	mov	r5, r7
.Ltmp15:
	@DEBUG_VALUE: pk_write_rsa_pubkey:rsa <- $r5
	mov	r0, r7
	mov	r1, r6
	mov	r2, r6
	mov	r3, r6
	bl	mbedtls_rsa_export
.Ltmp16:
	@DEBUG_VALUE: pk_write_rsa_pubkey:ret <- $r0
	.loc	7 85 79 is_stmt 0               @ ../../../ThirdParty/mbedTLS/library/pkwrite.c:85:79
	cbz	r0, .LBB1_2
.Ltmp17:
@ %bb.1:
	@DEBUG_VALUE: pk_write_rsa_pubkey:rsa <- $r5
	@DEBUG_VALUE: pk_write_rsa_pubkey:p <- $r4
	@DEBUG_VALUE: pk_write_rsa_pubkey:ret <- $r0
	@DEBUG_VALUE: pk_write_rsa_pubkey:start <- [DW_OP_plus_uconst 12] [$sp+0]
	@DEBUG_VALUE: pk_write_rsa_pubkey:len <- 0
	.loc	7 0 79                          @ ../../../ThirdParty/mbedTLS/library/pkwrite.c:0:79
	mov	r7, r0
.Ltmp18:
	@DEBUG_VALUE: pk_write_rsa_pubkey:ret <- $r7
	ldr	r5, [sp, #12]                   @ 4-byte Reload
.Ltmp19:
	b	.LBB1_7
.Ltmp20:
.LBB1_2:
	@DEBUG_VALUE: pk_write_rsa_pubkey:rsa <- $r5
	@DEBUG_VALUE: pk_write_rsa_pubkey:p <- $r4
	@DEBUG_VALUE: pk_write_rsa_pubkey:ret <- $r0
	@DEBUG_VALUE: pk_write_rsa_pubkey:start <- [DW_OP_plus_uconst 12] [$sp+0]
	@DEBUG_VALUE: pk_write_rsa_pubkey:len <- 0
	add	r2, sp, #16
	str	r4, [sp, #8]                    @ 4-byte Spill
.Ltmp21:
	@DEBUG_VALUE: pk_write_rsa_pubkey:p <- [DW_OP_plus_uconst 8] [$sp+0]
	.loc	7 86 21 is_stmt 1               @ ../../../ThirdParty/mbedTLS/library/pkwrite.c:86:21
	mov	r0, r4
.Ltmp22:
	ldr	r1, [sp, #12]                   @ 4-byte Reload
	bl	mbedtls_asn1_write_mpi
	mov	r4, r0
.Ltmp23:
	@DEBUG_VALUE: pk_write_rsa_pubkey:ret <- $r4
	.loc	7 85 10                         @ ../../../ThirdParty/mbedTLS/library/pkwrite.c:85:10
	cmp	r0, #0
	bmi	.LBB1_5
.Ltmp24:
@ %bb.3:
	@DEBUG_VALUE: pk_write_rsa_pubkey:p <- [DW_OP_plus_uconst 8] [$sp+0]
	@DEBUG_VALUE: pk_write_rsa_pubkey:rsa <- $r5
	@DEBUG_VALUE: pk_write_rsa_pubkey:ret <- $r4
	@DEBUG_VALUE: pk_write_rsa_pubkey:start <- [DW_OP_plus_uconst 12] [$sp+0]
	@DEBUG_VALUE: pk_write_rsa_pubkey:len <- 0
	@DEBUG_VALUE: pk_write_rsa_pubkey:len <- $r4
	.loc	7 0 10 is_stmt 0                @ ../../../ThirdParty/mbedTLS/library/pkwrite.c:0:10
	movs	r2, #0
.Ltmp25:
	.loc	7 91 18 is_stmt 1               @ ../../../ThirdParty/mbedTLS/library/pkwrite.c:91:18
	str	r2, [sp]
	str	r2, [sp, #4]
	add	r1, sp, #16
	mov	r0, r5
	mov	r3, r2
	bl	mbedtls_rsa_export
.Ltmp26:
	@DEBUG_VALUE: pk_write_rsa_pubkey:ret <- $r0
	.loc	7 91 79 is_stmt 0               @ ../../../ThirdParty/mbedTLS/library/pkwrite.c:91:79
	cbz	r0, .LBB1_13
.Ltmp27:
@ %bb.4:
	@DEBUG_VALUE: pk_write_rsa_pubkey:p <- [DW_OP_plus_uconst 8] [$sp+0]
	@DEBUG_VALUE: pk_write_rsa_pubkey:rsa <- $r5
	@DEBUG_VALUE: pk_write_rsa_pubkey:len <- $r4
	@DEBUG_VALUE: pk_write_rsa_pubkey:ret <- $r0
	@DEBUG_VALUE: pk_write_rsa_pubkey:start <- [DW_OP_plus_uconst 12] [$sp+0]
	.loc	7 0 79                          @ ../../../ThirdParty/mbedTLS/library/pkwrite.c:0:79
	mov	r7, r0
.Ltmp28:
	@DEBUG_VALUE: pk_write_rsa_pubkey:ret <- $r7
	mov	r6, r4
.Ltmp29:
	@DEBUG_VALUE: pk_write_rsa_pubkey:len <- $r6
	b	.LBB1_6
.Ltmp30:
.LBB1_5:
	@DEBUG_VALUE: pk_write_rsa_pubkey:p <- [DW_OP_plus_uconst 8] [$sp+0]
	@DEBUG_VALUE: pk_write_rsa_pubkey:rsa <- $r5
	@DEBUG_VALUE: pk_write_rsa_pubkey:ret <- $r4
	@DEBUG_VALUE: pk_write_rsa_pubkey:start <- [DW_OP_plus_uconst 12] [$sp+0]
	@DEBUG_VALUE: pk_write_rsa_pubkey:len <- 0
	mov	r7, r4
.Ltmp31:
	@DEBUG_VALUE: pk_write_rsa_pubkey:ret <- $r7
.LBB1_6:
	@DEBUG_VALUE: pk_write_rsa_pubkey:p <- [DW_OP_plus_uconst 8] [$sp+0]
	@DEBUG_VALUE: pk_write_rsa_pubkey:ret <- $r7
	@DEBUG_VALUE: pk_write_rsa_pubkey:rsa <- $r5
	@DEBUG_VALUE: pk_write_rsa_pubkey:start <- [DW_OP_plus_uconst 12] [$sp+0]
	ldr	r5, [sp, #12]                   @ 4-byte Reload
.Ltmp32:
	ldr	r4, [sp, #8]                    @ 4-byte Reload
.Ltmp33:
	@DEBUG_VALUE: pk_write_rsa_pubkey:p <- $r4
.LBB1_7:
	@DEBUG_VALUE: pk_write_rsa_pubkey:ret <- $r7
	@DEBUG_VALUE: pk_write_rsa_pubkey:p <- $r4
	@DEBUG_VALUE: pk_write_rsa_pubkey:start <- [DW_OP_plus_uconst 12] [$sp+0]
	@DEBUG_VALUE: pk_write_rsa_pubkey:len <- $r6
	@DEBUG_VALUE: pk_write_rsa_pubkey:ret <- $r7
	@DEBUG_LABEL: pk_write_rsa_pubkey:end_of_export
	add	r0, sp, #16
	.loc	7 98 5 is_stmt 1                @ ../../../ThirdParty/mbedTLS/library/pkwrite.c:98:5
	bl	mbedtls_mpi_free
	.loc	7 99 9                          @ ../../../ThirdParty/mbedTLS/library/pkwrite.c:99:9
	cmp	r7, #0
	bmi	.LBB1_12
.Ltmp34:
@ %bb.8:
	@DEBUG_VALUE: pk_write_rsa_pubkey:ret <- $r7
	@DEBUG_VALUE: pk_write_rsa_pubkey:len <- $r6
	@DEBUG_VALUE: pk_write_rsa_pubkey:p <- $r4
	@DEBUG_VALUE: pk_write_rsa_pubkey:start <- [DW_OP_plus_uconst 12] [$sp+0]
	.loc	7 102 5                         @ ../../../ThirdParty/mbedTLS/library/pkwrite.c:102:5
	mov	r0, r4
	mov	r1, r5
	mov	r2, r6
	bl	mbedtls_asn1_write_len
	mov	r7, r0
.Ltmp35:
	@DEBUG_VALUE: pk_write_rsa_pubkey:ret <- $r7
	.loc	7 102 5 is_stmt 0               @ ../../../ThirdParty/mbedTLS/library/pkwrite.c:102:5
	cmp	r0, #0
	bmi	.LBB1_12
.Ltmp36:
@ %bb.9:
	@DEBUG_VALUE: pk_write_rsa_pubkey:ret <- $r7
	@DEBUG_VALUE: pk_write_rsa_pubkey:len <- $r6
	@DEBUG_VALUE: pk_write_rsa_pubkey:p <- $r4
	@DEBUG_VALUE: pk_write_rsa_pubkey:start <- [DW_OP_plus_uconst 12] [$sp+0]
	@DEBUG_VALUE: pk_write_rsa_pubkey:len <- undef
	.loc	7 0 5                           @ ../../../ThirdParty/mbedTLS/library/pkwrite.c:0:5
	movs	r2, #48
.Ltmp37:
	.loc	7 103 5 is_stmt 1               @ ../../../ThirdParty/mbedTLS/library/pkwrite.c:103:5
	mov	r0, r4
	mov	r1, r5
	bl	mbedtls_asn1_write_tag
.Ltmp38:
	@DEBUG_VALUE: pk_write_rsa_pubkey:ret <- $r0
	.loc	7 103 5 is_stmt 0               @ ../../../ThirdParty/mbedTLS/library/pkwrite.c:103:5
	cmp	r0, #0
	bmi	.LBB1_11
.Ltmp39:
@ %bb.10:
	@DEBUG_VALUE: pk_write_rsa_pubkey:p <- $r4
	@DEBUG_VALUE: pk_write_rsa_pubkey:ret <- $r0
	@DEBUG_VALUE: pk_write_rsa_pubkey:start <- [DW_OP_plus_uconst 12] [$sp+0]
	.loc	7 102 5 is_stmt 1               @ ../../../ThirdParty/mbedTLS/library/pkwrite.c:102:5
	adds	r1, r7, r6
.Ltmp40:
	@DEBUG_VALUE: pk_write_rsa_pubkey:len <- $r1
	.loc	7 103 5                         @ ../../../ThirdParty/mbedTLS/library/pkwrite.c:103:5
	adds	r7, r1, r0
.Ltmp41:
	@DEBUG_VALUE: pk_write_rsa_pubkey:len <- $r7
	.loc	7 0 5 is_stmt 0                 @ ../../../ThirdParty/mbedTLS/library/pkwrite.c:0:5
	b	.LBB1_12
.Ltmp42:
.LBB1_11:
	@DEBUG_VALUE: pk_write_rsa_pubkey:p <- $r4
	@DEBUG_VALUE: pk_write_rsa_pubkey:ret <- $r0
	@DEBUG_VALUE: pk_write_rsa_pubkey:start <- [DW_OP_plus_uconst 12] [$sp+0]
	mov	r7, r0
.Ltmp43:
	@DEBUG_VALUE: pk_write_rsa_pubkey:ret <- $r7
.LBB1_12:
	@DEBUG_VALUE: pk_write_rsa_pubkey:p <- $r4
	@DEBUG_VALUE: pk_write_rsa_pubkey:start <- [DW_OP_plus_uconst 12] [$sp+0]
	.loc	7 107 1 is_stmt 1               @ ../../../ThirdParty/mbedTLS/library/pkwrite.c:107:1
	mov	r0, r7
	add	sp, #28
.Ltmp44:
	pop	{r4, r5, r6, r7, pc}
.Ltmp45:
.LBB1_13:
	@DEBUG_VALUE: pk_write_rsa_pubkey:p <- [DW_OP_plus_uconst 8] [$sp+0]
	@DEBUG_VALUE: pk_write_rsa_pubkey:rsa <- $r5
	@DEBUG_VALUE: pk_write_rsa_pubkey:len <- $r4
	@DEBUG_VALUE: pk_write_rsa_pubkey:ret <- $r0
	@DEBUG_VALUE: pk_write_rsa_pubkey:start <- [DW_OP_plus_uconst 12] [$sp+0]
	.loc	7 0 1 is_stmt 0                 @ ../../../ThirdParty/mbedTLS/library/pkwrite.c:0:1
	mov	r6, r4
.Ltmp46:
	@DEBUG_VALUE: pk_write_rsa_pubkey:len <- $r6
	add	r2, sp, #16
	ldr	r4, [sp, #8]                    @ 4-byte Reload
.Ltmp47:
	@DEBUG_VALUE: pk_write_rsa_pubkey:p <- $r4
	.loc	7 92 21 is_stmt 1               @ ../../../ThirdParty/mbedTLS/library/pkwrite.c:92:21
	mov	r0, r4
.Ltmp48:
	.loc	7 0 21 is_stmt 0                @ ../../../ThirdParty/mbedTLS/library/pkwrite.c:0:21
	ldr	r5, [sp, #12]                   @ 4-byte Reload
.Ltmp49:
	.loc	7 92 21                         @ ../../../ThirdParty/mbedTLS/library/pkwrite.c:92:21
	mov	r1, r5
	bl	mbedtls_asn1_write_mpi
	mov	r7, r0
.Ltmp50:
	@DEBUG_VALUE: pk_write_rsa_pubkey:ret <- $r7
	.loc	7 91 10 is_stmt 1               @ ../../../ThirdParty/mbedTLS/library/pkwrite.c:91:10
	cmp	r0, #0
	ble	.LBB1_7
.Ltmp51:
@ %bb.14:
	@DEBUG_VALUE: pk_write_rsa_pubkey:ret <- $r7
	@DEBUG_VALUE: pk_write_rsa_pubkey:len <- $r6
	@DEBUG_VALUE: pk_write_rsa_pubkey:p <- $r4
	@DEBUG_VALUE: pk_write_rsa_pubkey:start <- [DW_OP_plus_uconst 12] [$sp+0]
	.loc	7 0 10 is_stmt 0                @ ../../../ThirdParty/mbedTLS/library/pkwrite.c:0:10
	adds	r6, r6, r7
.Ltmp52:
	b	.LBB1_7
.Lfunc_end1:
	.size	pk_write_rsa_pubkey, .Lfunc_end1-pk_write_rsa_pubkey
	.cfi_endproc
	.cantunwind
	.fnend
                                        @ -- End function
	.section	.text.mbedtls_pk_rsa,"ax",%progbits
	.p2align	1                               @ -- Begin function mbedtls_pk_rsa
	.type	mbedtls_pk_rsa,%function
	.code	16                              @ @mbedtls_pk_rsa
	.thumb_func
mbedtls_pk_rsa:
.Lfunc_begin2:
	.loc	1 163 0 is_stmt 1               @ ../../../ThirdParty/mbedTLS/include/mbedtls/pk.h:163:0
	.fnstart
	.cfi_startproc
@ %bb.0:
	mov	r0, r1
.Ltmp53:
	@DEBUG_VALUE: mbedtls_pk_rsa:pk <- [DW_OP_LLVM_fragment 32 32] $r0
	@DEBUG_VALUE: mbedtls_pk_rsa:pk <- [DW_OP_LLVM_fragment 0 32] undef
	.loc	1 164 5 prologue_end            @ ../../../ThirdParty/mbedTLS/include/mbedtls/pk.h:164:5
	bx	lr
.Ltmp54:
.Lfunc_end2:
	.size	mbedtls_pk_rsa, .Lfunc_end2-mbedtls_pk_rsa
	.cfi_endproc
	.cantunwind
	.fnend
                                        @ -- End function
	.section	.text.pk_write_ec_pubkey,"ax",%progbits
	.p2align	1                               @ -- Begin function pk_write_ec_pubkey
	.type	pk_write_ec_pubkey,%function
	.code	16                              @ @pk_write_ec_pubkey
	.thumb_func
pk_write_ec_pubkey:
.Lfunc_begin3:
	.loc	7 116 0                         @ ../../../ThirdParty/mbedTLS/library/pkwrite.c:116:0
	.fnstart
	.cfi_startproc
@ %bb.0:
	@DEBUG_VALUE: pk_write_ec_pubkey:p <- $r0
	@DEBUG_VALUE: pk_write_ec_pubkey:start <- $r1
	@DEBUG_VALUE: pk_write_ec_pubkey:ec <- $r2
	.save	{r4, r5, r6, lr}
	push	{r4, r5, r6, lr}
	.cfi_def_cfa_offset 16
	.cfi_offset lr, -4
	.cfi_offset r6, -8
	.cfi_offset r5, -12
	.cfi_offset r4, -16
	.pad	#152
	sub	sp, #152
	.cfi_def_cfa_offset 168
	mov	r6, r2
	mov	r5, r1
	mov	r4, r0
	movs	r2, #0
.Ltmp55:
	@DEBUG_VALUE: pk_write_ec_pubkey:ec <- [DW_OP_LLVM_entry_value 1] $r2
	@DEBUG_VALUE: pk_write_ec_pubkey:len <- 0
	@DEBUG_VALUE: pk_write_ec_pubkey:ec <- $r6
	@DEBUG_VALUE: pk_write_ec_pubkey:start <- $r5
	@DEBUG_VALUE: pk_write_ec_pubkey:p <- $r4
	.loc	7 118 12 prologue_end           @ ../../../ThirdParty/mbedTLS/library/pkwrite.c:118:12
	str	r2, [sp, #148]
.Ltmp56:
	@DEBUG_VALUE: pk_write_ec_pubkey:len <- [DW_OP_plus_uconst 148, DW_OP_deref] $sp
	.loc	7 0 12 is_stmt 0                @ ../../../ThirdParty/mbedTLS/library/pkwrite.c:0:12
	movs	r0, #133
.Ltmp57:
	.loc	7 121 17 is_stmt 1              @ ../../../ThirdParty/mbedTLS/library/pkwrite.c:121:17
	str	r0, [sp, #4]
	add	r0, sp, #12
	str	r0, [sp]
	.loc	7 121 64 is_stmt 0              @ ../../../ThirdParty/mbedTLS/library/pkwrite.c:121:64
	mov	r1, r6
	adds	r1, #136
	add	r3, sp, #148
	.loc	7 121 17                        @ ../../../ThirdParty/mbedTLS/library/pkwrite.c:121:17
	mov	r0, r6
	bl	mbedtls_ecp_point_write_binary
.Ltmp58:
	@DEBUG_VALUE: pk_write_ec_pubkey:ret <- $r0
	.loc	7 121 9                         @ ../../../ThirdParty/mbedTLS/library/pkwrite.c:121:9
	cbz	r0, .LBB3_2
.Ltmp59:
.LBB3_1:
	@DEBUG_VALUE: pk_write_ec_pubkey:ec <- $r6
	@DEBUG_VALUE: pk_write_ec_pubkey:start <- $r5
	@DEBUG_VALUE: pk_write_ec_pubkey:p <- $r4
	.loc	7 135 1 is_stmt 1               @ ../../../ThirdParty/mbedTLS/library/pkwrite.c:135:1
	add	sp, #152
	pop	{r4, r5, r6, pc}
.Ltmp60:
.LBB3_2:
	@DEBUG_VALUE: pk_write_ec_pubkey:ec <- $r6
	@DEBUG_VALUE: pk_write_ec_pubkey:start <- $r5
	@DEBUG_VALUE: pk_write_ec_pubkey:p <- $r4
	@DEBUG_VALUE: pk_write_ec_pubkey:ret <- $r0
	@DEBUG_VALUE: pk_write_ec_pubkey:len <- [DW_OP_plus_uconst 148, DW_OP_deref] $sp
	.loc	7 128 9                         @ ../../../ThirdParty/mbedTLS/library/pkwrite.c:128:9
	ldr	r1, [r4]
	movs	r0, #107
.Ltmp61:
	.loc	7 0 9 is_stmt 0                 @ ../../../ThirdParty/mbedTLS/library/pkwrite.c:0:9
	mvns	r0, r0
	.loc	7 128 20                        @ ../../../ThirdParty/mbedTLS/library/pkwrite.c:128:20
	cmp	r1, r5
	blo	.LBB3_1
.Ltmp62:
@ %bb.3:
	@DEBUG_VALUE: pk_write_ec_pubkey:ec <- $r6
	@DEBUG_VALUE: pk_write_ec_pubkey:start <- $r5
	@DEBUG_VALUE: pk_write_ec_pubkey:p <- $r4
	@DEBUG_VALUE: pk_write_ec_pubkey:len <- [DW_OP_plus_uconst 148, DW_OP_deref] $sp
	.loc	7 128 36                        @ ../../../ThirdParty/mbedTLS/library/pkwrite.c:128:36
	subs	r3, r1, r5
	.loc	7 128 48                        @ ../../../ThirdParty/mbedTLS/library/pkwrite.c:128:48
	ldr	r2, [sp, #148]
.Ltmp63:
	@DEBUG_VALUE: pk_write_ec_pubkey:len <- $r2
	.loc	7 128 9                         @ ../../../ThirdParty/mbedTLS/library/pkwrite.c:128:9
	cmp	r3, r2
	blo	.LBB3_1
.Ltmp64:
@ %bb.4:
	@DEBUG_VALUE: pk_write_ec_pubkey:ec <- $r6
	@DEBUG_VALUE: pk_write_ec_pubkey:start <- $r5
	@DEBUG_VALUE: pk_write_ec_pubkey:p <- $r4
	@DEBUG_VALUE: pk_write_ec_pubkey:len <- $r2
	.loc	7 131 8 is_stmt 1               @ ../../../ThirdParty/mbedTLS/library/pkwrite.c:131:8
	subs	r0, r1, r2
	str	r0, [r4]
	@DEBUG_VALUE: pk_write_ec_pubkey:len <- $r2
	add	r1, sp, #12
	.loc	7 132 5                         @ ../../../ThirdParty/mbedTLS/library/pkwrite.c:132:5
	bl	__aeabi_memcpy
.Ltmp65:
	.loc	7 134 19                        @ ../../../ThirdParty/mbedTLS/library/pkwrite.c:134:19
	ldr	r0, [sp, #148]
.Ltmp66:
	@DEBUG_VALUE: pk_write_ec_pubkey:len <- $r0
	.loc	7 135 1                         @ ../../../ThirdParty/mbedTLS/library/pkwrite.c:135:1
	add	sp, #152
	pop	{r4, r5, r6, pc}
.Ltmp67:
.Lfunc_end3:
	.size	pk_write_ec_pubkey, .Lfunc_end3-pk_write_ec_pubkey
	.cfi_endproc
	.cantunwind
	.fnend
                                        @ -- End function
	.section	.text.mbedtls_pk_ec,"ax",%progbits
	.p2align	1                               @ -- Begin function mbedtls_pk_ec
	.type	mbedtls_pk_ec,%function
	.code	16                              @ @mbedtls_pk_ec
	.thumb_func
mbedtls_pk_ec:
.Lfunc_begin4:
	.loc	1 176 0                         @ ../../../ThirdParty/mbedTLS/include/mbedtls/pk.h:176:0
	.fnstart
	.cfi_startproc
@ %bb.0:
	mov	r0, r1
.Ltmp68:
	@DEBUG_VALUE: mbedtls_pk_ec:pk <- [DW_OP_LLVM_fragment 32 32] $r0
	@DEBUG_VALUE: mbedtls_pk_ec:pk <- [DW_OP_LLVM_fragment 0 32] undef
	.loc	1 177 5 prologue_end            @ ../../../ThirdParty/mbedTLS/include/mbedtls/pk.h:177:5
	bx	lr
.Ltmp69:
.Lfunc_end4:
	.size	mbedtls_pk_ec, .Lfunc_end4-mbedtls_pk_ec
	.cfi_endproc
	.cantunwind
	.fnend
                                        @ -- End function
	.section	.text.mbedtls_pk_write_pubkey_der,"ax",%progbits
	.hidden	mbedtls_pk_write_pubkey_der     @ -- Begin function mbedtls_pk_write_pubkey_der
	.globl	mbedtls_pk_write_pubkey_der
	.p2align	1
	.type	mbedtls_pk_write_pubkey_der,%function
	.code	16                              @ @mbedtls_pk_write_pubkey_der
	.thumb_func
mbedtls_pk_write_pubkey_der:
.Lfunc_begin5:
	.loc	7 209 0                         @ ../../../ThirdParty/mbedTLS/library/pkwrite.c:209:0
	.fnstart
	.cfi_startproc
@ %bb.0:
	@DEBUG_VALUE: mbedtls_pk_write_pubkey_der:key <- $r0
	@DEBUG_VALUE: mbedtls_pk_write_pubkey_der:buf <- $r1
	@DEBUG_VALUE: mbedtls_pk_write_pubkey_der:size <- $r2
	.save	{r4, r5, r6, r7, lr}
	push	{r4, r5, r6, r7, lr}
	.cfi_def_cfa_offset 20
	.cfi_offset lr, -4
	.cfi_offset r7, -8
	.cfi_offset r6, -12
	.cfi_offset r5, -16
	.cfi_offset r4, -20
	.pad	#36
	sub	sp, #36
	.cfi_def_cfa_offset 56
	movs	r7, #107
	mvns	r4, r7
.Ltmp70:
	@DEBUG_VALUE: mbedtls_pk_write_pubkey_der:par_len <- 0
	@DEBUG_VALUE: mbedtls_pk_write_pubkey_der:len <- 0
	@DEBUG_VALUE: mbedtls_pk_write_pubkey_der:size <- $r2
	@DEBUG_VALUE: mbedtls_pk_write_pubkey_der:buf <- $r1
	@DEBUG_VALUE: mbedtls_pk_write_pubkey_der:key <- $r0
	.loc	7 217 9 prologue_end            @ ../../../ThirdParty/mbedTLS/library/pkwrite.c:217:9
	cmp	r2, #0
	beq	.LBB5_12
.Ltmp71:
@ %bb.1:
	@DEBUG_VALUE: mbedtls_pk_write_pubkey_der:size <- $r2
	@DEBUG_VALUE: mbedtls_pk_write_pubkey_der:buf <- $r1
	@DEBUG_VALUE: mbedtls_pk_write_pubkey_der:key <- $r0
	@DEBUG_VALUE: mbedtls_pk_write_pubkey_der:len <- 0
	@DEBUG_VALUE: mbedtls_pk_write_pubkey_der:par_len <- 0
	.loc	7 0 9 is_stmt 0                 @ ../../../ThirdParty/mbedTLS/library/pkwrite.c:0:9
	mov	r3, r0
.Ltmp72:
	@DEBUG_VALUE: mbedtls_pk_write_pubkey_der:key <- $r3
	.loc	7 221 13 is_stmt 1              @ ../../../ThirdParty/mbedTLS/library/pkwrite.c:221:13
	adds	r0, r1, r2
.Ltmp73:
	@DEBUG_VALUE: mbedtls_pk_write_pubkey_der:c <- $r0
	.loc	7 221 7 is_stmt 0               @ ../../../ThirdParty/mbedTLS/library/pkwrite.c:221:7
	str	r0, [sp, #32]
.Ltmp74:
	@DEBUG_VALUE: mbedtls_pk_write_pubkey_der:c <- [DW_OP_plus_uconst 32, DW_OP_deref] $sp
	.loc	7 0 7                           @ ../../../ThirdParty/mbedTLS/library/pkwrite.c:0:7
	add	r0, sp, #32
	str	r3, [sp, #20]                   @ 4-byte Spill
.Ltmp75:
	@DEBUG_VALUE: mbedtls_pk_write_pubkey_der:key <- [DW_OP_plus_uconst 20] [$sp+0]
	.loc	7 223 5 is_stmt 1               @ ../../../ThirdParty/mbedTLS/library/pkwrite.c:223:5
	mov	r2, r3
.Ltmp76:
	@DEBUG_VALUE: mbedtls_pk_write_pubkey_der:size <- [DW_OP_LLVM_entry_value 1] $r2
	.loc	7 0 5 is_stmt 0                 @ ../../../ThirdParty/mbedTLS/library/pkwrite.c:0:5
	mov	r5, r1
	.loc	7 223 5                         @ ../../../ThirdParty/mbedTLS/library/pkwrite.c:223:5
	bl	mbedtls_pk_write_pubkey
.Ltmp77:
	@DEBUG_VALUE: mbedtls_pk_write_pubkey_der:buf <- [DW_OP_LLVM_entry_value 1] $r1
	mov	r6, r0
.Ltmp78:
	@DEBUG_VALUE: mbedtls_pk_write_pubkey_der:ret <- $r6
	.loc	7 223 5                         @ ../../../ThirdParty/mbedTLS/library/pkwrite.c:223:5
	cmp	r0, #0
	bmi	.LBB5_16
.Ltmp79:
@ %bb.2:
	@DEBUG_VALUE: mbedtls_pk_write_pubkey_der:key <- [DW_OP_plus_uconst 20] [$sp+0]
	@DEBUG_VALUE: mbedtls_pk_write_pubkey_der:ret <- $r6
	@DEBUG_VALUE: mbedtls_pk_write_pubkey_der:c <- [DW_OP_plus_uconst 32, DW_OP_deref] $sp
	@DEBUG_VALUE: mbedtls_pk_write_pubkey_der:buf <- [DW_OP_LLVM_entry_value 1] $r1
	@DEBUG_VALUE: mbedtls_pk_write_pubkey_der:size <- [DW_OP_LLVM_entry_value 1] $r2
	@DEBUG_VALUE: mbedtls_pk_write_pubkey_der:len <- 0
	@DEBUG_VALUE: mbedtls_pk_write_pubkey_der:par_len <- 0
	@DEBUG_VALUE: mbedtls_pk_write_pubkey_der:len <- $r6
	.loc	7 225 9 is_stmt 1               @ ../../../ThirdParty/mbedTLS/library/pkwrite.c:225:9
	ldr	r0, [sp, #32]
.Ltmp80:
	@DEBUG_VALUE: mbedtls_pk_write_pubkey_der:c <- $r0
	.loc	7 225 11 is_stmt 0              @ ../../../ThirdParty/mbedTLS/library/pkwrite.c:225:11
	subs	r1, r0, r5
.Ltmp81:
	.loc	7 225 9                         @ ../../../ThirdParty/mbedTLS/library/pkwrite.c:225:9
	cmp	r1, #1
	blt	.LBB5_13
.Ltmp82:
@ %bb.3:
	@DEBUG_VALUE: mbedtls_pk_write_pubkey_der:key <- [DW_OP_plus_uconst 20] [$sp+0]
	@DEBUG_VALUE: mbedtls_pk_write_pubkey_der:len <- $r6
	@DEBUG_VALUE: mbedtls_pk_write_pubkey_der:ret <- $r6
	@DEBUG_VALUE: mbedtls_pk_write_pubkey_der:c <- $r0
	@DEBUG_VALUE: mbedtls_pk_write_pubkey_der:buf <- [DW_OP_LLVM_entry_value 1] $r1
	@DEBUG_VALUE: mbedtls_pk_write_pubkey_der:size <- [DW_OP_LLVM_entry_value 1] $r2
	@DEBUG_VALUE: mbedtls_pk_write_pubkey_der:par_len <- 0
	.loc	7 0 9                           @ ../../../ThirdParty/mbedTLS/library/pkwrite.c:0:9
	mov	r1, r5
	.loc	7 233 6 is_stmt 1               @ ../../../ThirdParty/mbedTLS/library/pkwrite.c:233:6
	adds	r0, r4, r0
.Ltmp83:
	mov	r2, r0
	adds	r2, #107
.Ltmp84:
	@DEBUG_VALUE: mbedtls_pk_write_pubkey_der:c <- $r2
	str	r2, [sp, #32]
	movs	r4, #0
	.loc	7 233 10 is_stmt 0              @ ../../../ThirdParty/mbedTLS/library/pkwrite.c:233:10
	strb	r4, [r0, r7]
.Ltmp85:
	@DEBUG_VALUE: mbedtls_pk_write_pubkey_der:c <- [DW_OP_plus_uconst 32, DW_OP_deref] $sp
	.loc	7 234 9 is_stmt 1               @ ../../../ThirdParty/mbedTLS/library/pkwrite.c:234:9
	adds	r5, r6, #1
.Ltmp86:
	@DEBUG_VALUE: mbedtls_pk_write_pubkey_der:len <- $r5
	.loc	7 0 9 is_stmt 0                 @ ../../../ThirdParty/mbedTLS/library/pkwrite.c:0:9
	add	r0, sp, #32
.Ltmp87:
	.loc	7 236 5 is_stmt 1               @ ../../../ThirdParty/mbedTLS/library/pkwrite.c:236:5
	mov	r2, r5
	mov	r6, r1
.Ltmp88:
	bl	mbedtls_asn1_write_len
	mov	r7, r0
.Ltmp89:
	@DEBUG_VALUE: mbedtls_pk_write_pubkey_der:ret <- $r7
	.loc	7 236 5 is_stmt 0               @ ../../../ThirdParty/mbedTLS/library/pkwrite.c:236:5
	cmp	r0, #0
	bmi	.LBB5_14
.Ltmp90:
@ %bb.4:
	@DEBUG_VALUE: mbedtls_pk_write_pubkey_der:key <- [DW_OP_plus_uconst 20] [$sp+0]
	@DEBUG_VALUE: mbedtls_pk_write_pubkey_der:ret <- $r7
	@DEBUG_VALUE: mbedtls_pk_write_pubkey_der:len <- $r5
	@DEBUG_VALUE: mbedtls_pk_write_pubkey_der:c <- [DW_OP_plus_uconst 32, DW_OP_deref] $sp
	@DEBUG_VALUE: mbedtls_pk_write_pubkey_der:buf <- [DW_OP_LLVM_entry_value 1] $r1
	@DEBUG_VALUE: mbedtls_pk_write_pubkey_der:size <- [DW_OP_LLVM_entry_value 1] $r2
	@DEBUG_VALUE: mbedtls_pk_write_pubkey_der:par_len <- 0
	@DEBUG_VALUE: mbedtls_pk_write_pubkey_der:len <- undef
	@DEBUG_VALUE: mbedtls_pk_write_pubkey_der:c <- [DW_OP_plus_uconst 32, DW_OP_deref] $sp
	.loc	7 0 5                           @ ../../../ThirdParty/mbedTLS/library/pkwrite.c:0:5
	add	r0, sp, #32
	movs	r2, #3
	str	r6, [sp, #16]                   @ 4-byte Spill
.Ltmp91:
	.loc	7 237 5 is_stmt 1               @ ../../../ThirdParty/mbedTLS/library/pkwrite.c:237:5
	mov	r1, r6
	bl	mbedtls_asn1_write_tag
.Ltmp92:
	@DEBUG_VALUE: mbedtls_pk_write_pubkey_der:ret <- $r0
	.loc	7 237 5 is_stmt 0               @ ../../../ThirdParty/mbedTLS/library/pkwrite.c:237:5
	cmp	r0, #0
	bmi	.LBB5_15
.Ltmp93:
@ %bb.5:
	@DEBUG_VALUE: mbedtls_pk_write_pubkey_der:key <- [DW_OP_plus_uconst 20] [$sp+0]
	@DEBUG_VALUE: mbedtls_pk_write_pubkey_der:ret <- $r0
	@DEBUG_VALUE: mbedtls_pk_write_pubkey_der:c <- [DW_OP_plus_uconst 32, DW_OP_deref] $sp
	@DEBUG_VALUE: mbedtls_pk_write_pubkey_der:buf <- [DW_OP_LLVM_entry_value 1] $r1
	@DEBUG_VALUE: mbedtls_pk_write_pubkey_der:size <- [DW_OP_LLVM_entry_value 1] $r2
	@DEBUG_VALUE: mbedtls_pk_write_pubkey_der:par_len <- 0
	@DEBUG_VALUE: mbedtls_pk_write_pubkey_der:len <- undef
	.loc	7 0 5                           @ ../../../ThirdParty/mbedTLS/library/pkwrite.c:0:5
	str	r0, [sp, #12]                   @ 4-byte Spill
.Ltmp94:
	@DEBUG_VALUE: mbedtls_pk_write_pubkey_der:ret <- [DW_OP_plus_uconst 12] [$sp+0]
	ldr	r6, [sp, #20]                   @ 4-byte Reload
.Ltmp95:
	@DEBUG_VALUE: mbedtls_pk_write_pubkey_der:key <- $r6
	.loc	7 239 15 is_stmt 1              @ ../../../ThirdParty/mbedTLS/library/pkwrite.c:239:15
	mov	r0, r6
	bl	mbedtls_pk_get_type
.Ltmp96:
	@DEBUG_VALUE: mbedtls_pk_write_pubkey_der:pk_type <- $r0
	.loc	7 241 9                         @ ../../../ThirdParty/mbedTLS/library/pkwrite.c:241:9
	cmp	r0, #2
	bne	.LBB5_7
.Ltmp97:
@ %bb.6:
	@DEBUG_VALUE: mbedtls_pk_write_pubkey_der:ret <- [DW_OP_plus_uconst 12] [$sp+0]
	@DEBUG_VALUE: mbedtls_pk_write_pubkey_der:key <- $r6
	@DEBUG_VALUE: mbedtls_pk_write_pubkey_der:pk_type <- $r0
	@DEBUG_VALUE: mbedtls_pk_write_pubkey_der:c <- [DW_OP_plus_uconst 32, DW_OP_deref] $sp
	@DEBUG_VALUE: mbedtls_pk_write_pubkey_der:buf <- [DW_OP_LLVM_entry_value 1] $r1
	@DEBUG_VALUE: mbedtls_pk_write_pubkey_der:size <- [DW_OP_LLVM_entry_value 1] $r2
	@DEBUG_VALUE: mbedtls_pk_write_pubkey_der:par_len <- 0
	.loc	7 0 9 is_stmt 0                 @ ../../../ThirdParty/mbedTLS/library/pkwrite.c:0:9
	str	r0, [sp, #8]                    @ 4-byte Spill
.Ltmp98:
	@DEBUG_VALUE: mbedtls_pk_write_pubkey_der:pk_type <- [DW_OP_plus_uconst 8] [$sp+0]
	.loc	7 243 9 is_stmt 1               @ ../../../ThirdParty/mbedTLS/library/pkwrite.c:243:9
	ldm	r6!, {r0, r1}
.Ltmp99:
	bl	mbedtls_pk_ec
	mov	r2, r0
	@DEBUG_VALUE: mbedtls_pk_write_pubkey_der:c <- [DW_OP_plus_uconst 32, DW_OP_deref] $sp
	add	r0, sp, #32
	ldr	r1, [sp, #16]                   @ 4-byte Reload
	bl	pk_write_ec_param
	mov	r6, r0
.Ltmp100:
	@DEBUG_VALUE: mbedtls_pk_write_pubkey_der:ret <- $r6
	.loc	7 243 9 is_stmt 0               @ ../../../ThirdParty/mbedTLS/library/pkwrite.c:243:9
	cmp	r0, #0
	mov	r4, r0
.Ltmp101:
	@DEBUG_VALUE: mbedtls_pk_write_pubkey_der:ret <- $r4
	.loc	7 0 9                           @ ../../../ThirdParty/mbedTLS/library/pkwrite.c:0:9
	ldr	r0, [sp, #8]                    @ 4-byte Reload
.Ltmp102:
	@DEBUG_VALUE: mbedtls_pk_write_pubkey_der:pk_type <- $r0
	.loc	7 243 9                         @ ../../../ThirdParty/mbedTLS/library/pkwrite.c:243:9
	bmi	.LBB5_16
.Ltmp103:
.LBB5_7:
	@DEBUG_VALUE: mbedtls_pk_write_pubkey_der:pk_type <- $r0
	@DEBUG_VALUE: mbedtls_pk_write_pubkey_der:c <- [DW_OP_plus_uconst 32, DW_OP_deref] $sp
	@DEBUG_VALUE: mbedtls_pk_write_pubkey_der:buf <- [DW_OP_LLVM_entry_value 1] $r1
	@DEBUG_VALUE: mbedtls_pk_write_pubkey_der:size <- [DW_OP_LLVM_entry_value 1] $r2
	@DEBUG_VALUE: mbedtls_pk_write_pubkey_der:par_len <- 0
	@DEBUG_VALUE: mbedtls_pk_write_pubkey_der:len <- undef
	@DEBUG_VALUE: mbedtls_pk_write_pubkey_der:par_len <- $r4
	@DEBUG_VALUE: mbedtls_pk_write_pubkey_der:oid_len <- [DW_OP_plus_uconst 28, DW_OP_deref] $sp
	@DEBUG_VALUE: mbedtls_pk_write_pubkey_der:oid <- [DW_OP_plus_uconst 24, DW_OP_deref] $sp
	.loc	7 0 9                           @ ../../../ThirdParty/mbedTLS/library/pkwrite.c:0:9
	add	r1, sp, #24
	add	r2, sp, #28
.Ltmp104:
	.loc	7 279 17 is_stmt 1              @ ../../../ThirdParty/mbedTLS/library/pkwrite.c:279:17
	bl	mbedtls_oid_get_oid_by_pk_alg
.Ltmp105:
	mov	r6, r0
.Ltmp106:
	@DEBUG_VALUE: mbedtls_pk_write_pubkey_der:ret <- $r6
	.loc	7 279 9 is_stmt 0               @ ../../../ThirdParty/mbedTLS/library/pkwrite.c:279:9
	cbnz	r0, .LBB5_16
.Ltmp107:
@ %bb.8:
	@DEBUG_VALUE: mbedtls_pk_write_pubkey_der:ret <- $r6
	@DEBUG_VALUE: mbedtls_pk_write_pubkey_der:par_len <- $r4
	@DEBUG_VALUE: mbedtls_pk_write_pubkey_der:oid <- [DW_OP_plus_uconst 24, DW_OP_deref] $sp
	@DEBUG_VALUE: mbedtls_pk_write_pubkey_der:oid_len <- [DW_OP_plus_uconst 28, DW_OP_deref] $sp
	@DEBUG_VALUE: mbedtls_pk_write_pubkey_der:c <- [DW_OP_plus_uconst 32, DW_OP_deref] $sp
	@DEBUG_VALUE: mbedtls_pk_write_pubkey_der:buf <- [DW_OP_LLVM_entry_value 1] $r1
	@DEBUG_VALUE: mbedtls_pk_write_pubkey_der:size <- [DW_OP_LLVM_entry_value 1] $r2
	@DEBUG_VALUE: mbedtls_pk_write_pubkey_der:len <- undef
	.loc	7 285 5 is_stmt 1               @ ../../../ThirdParty/mbedTLS/library/pkwrite.c:285:5
	ldr	r3, [sp, #28]
.Ltmp108:
	@DEBUG_VALUE: mbedtls_pk_write_pubkey_der:oid_len <- $r3
	ldr	r2, [sp, #24]
.Ltmp109:
	@DEBUG_VALUE: mbedtls_pk_write_pubkey_der:oid <- $r2
	@DEBUG_VALUE: mbedtls_pk_write_pubkey_der:c <- [DW_OP_plus_uconst 32, DW_OP_deref] $sp
	str	r4, [sp]
	add	r0, sp, #32
	ldr	r4, [sp, #16]                   @ 4-byte Reload
.Ltmp110:
	mov	r1, r4
	bl	mbedtls_asn1_write_algorithm_identifier
.Ltmp111:
	mov	r6, r0
.Ltmp112:
	@DEBUG_VALUE: mbedtls_pk_write_pubkey_der:ret <- $r6
	.loc	7 285 5 is_stmt 0               @ ../../../ThirdParty/mbedTLS/library/pkwrite.c:285:5
	cmp	r0, #0
	bmi	.LBB5_16
.Ltmp113:
@ %bb.9:
	@DEBUG_VALUE: mbedtls_pk_write_pubkey_der:ret <- $r6
	@DEBUG_VALUE: mbedtls_pk_write_pubkey_der:c <- [DW_OP_plus_uconst 32, DW_OP_deref] $sp
	@DEBUG_VALUE: mbedtls_pk_write_pubkey_der:buf <- [DW_OP_LLVM_entry_value 1] $r1
	@DEBUG_VALUE: mbedtls_pk_write_pubkey_der:size <- [DW_OP_LLVM_entry_value 1] $r2
	.loc	7 0 0                           @ ../../../ThirdParty/mbedTLS/library/pkwrite.c:0:0
	adds	r0, r7, r5
	ldr	r1, [sp, #12]                   @ 4-byte Reload
	adds	r0, r0, r1
.Ltmp114:
	@DEBUG_VALUE: mbedtls_pk_write_pubkey_der:len <- $r0
	.loc	7 285 5                         @ ../../../ThirdParty/mbedTLS/library/pkwrite.c:285:5
	adds	r5, r0, r6
	@DEBUG_VALUE: mbedtls_pk_write_pubkey_der:c <- [DW_OP_plus_uconst 32, DW_OP_deref] $sp
.Ltmp115:
	@DEBUG_VALUE: mbedtls_pk_write_pubkey_der:len <- $r5
	.loc	7 0 5                           @ ../../../ThirdParty/mbedTLS/library/pkwrite.c:0:5
	add	r0, sp, #32
.Ltmp116:
	.loc	7 288 5 is_stmt 1               @ ../../../ThirdParty/mbedTLS/library/pkwrite.c:288:5
	mov	r1, r4
	mov	r2, r5
	bl	mbedtls_asn1_write_len
	mov	r6, r0
.Ltmp117:
	@DEBUG_VALUE: mbedtls_pk_write_pubkey_der:ret <- $r6
	.loc	7 288 5 is_stmt 0               @ ../../../ThirdParty/mbedTLS/library/pkwrite.c:288:5
	cmp	r0, #0
	bmi	.LBB5_16
.Ltmp118:
@ %bb.10:
	@DEBUG_VALUE: mbedtls_pk_write_pubkey_der:ret <- $r6
	@DEBUG_VALUE: mbedtls_pk_write_pubkey_der:len <- $r5
	@DEBUG_VALUE: mbedtls_pk_write_pubkey_der:c <- [DW_OP_plus_uconst 32, DW_OP_deref] $sp
	@DEBUG_VALUE: mbedtls_pk_write_pubkey_der:buf <- [DW_OP_LLVM_entry_value 1] $r1
	@DEBUG_VALUE: mbedtls_pk_write_pubkey_der:size <- [DW_OP_LLVM_entry_value 1] $r2
	@DEBUG_VALUE: mbedtls_pk_write_pubkey_der:len <- undef
	@DEBUG_VALUE: mbedtls_pk_write_pubkey_der:c <- [DW_OP_plus_uconst 32, DW_OP_deref] $sp
	.loc	7 0 5                           @ ../../../ThirdParty/mbedTLS/library/pkwrite.c:0:5
	add	r0, sp, #32
	movs	r2, #48
.Ltmp119:
	.loc	7 289 5 is_stmt 1               @ ../../../ThirdParty/mbedTLS/library/pkwrite.c:289:5
	mov	r1, r4
	bl	mbedtls_asn1_write_tag
.Ltmp120:
	@DEBUG_VALUE: mbedtls_pk_write_pubkey_der:ret <- $r0
	.loc	7 289 5 is_stmt 0               @ ../../../ThirdParty/mbedTLS/library/pkwrite.c:289:5
	cmp	r0, #0
	bmi	.LBB5_17
.Ltmp121:
@ %bb.11:
	@DEBUG_VALUE: mbedtls_pk_write_pubkey_der:ret <- $r0
	@DEBUG_VALUE: mbedtls_pk_write_pubkey_der:c <- [DW_OP_plus_uconst 32, DW_OP_deref] $sp
	@DEBUG_VALUE: mbedtls_pk_write_pubkey_der:buf <- [DW_OP_LLVM_entry_value 1] $r1
	@DEBUG_VALUE: mbedtls_pk_write_pubkey_der:size <- [DW_OP_LLVM_entry_value 1] $r2
	.loc	7 288 5 is_stmt 1               @ ../../../ThirdParty/mbedTLS/library/pkwrite.c:288:5
	adds	r1, r6, r5
.Ltmp122:
	@DEBUG_VALUE: mbedtls_pk_write_pubkey_der:len <- $r1
	.loc	7 289 5                         @ ../../../ThirdParty/mbedTLS/library/pkwrite.c:289:5
	adds	r6, r1, r0
.Ltmp123:
	@DEBUG_VALUE: mbedtls_pk_write_pubkey_der:len <- $r6
	.loc	7 0 5 is_stmt 0                 @ ../../../ThirdParty/mbedTLS/library/pkwrite.c:0:5
	b	.LBB5_16
.Ltmp124:
.LBB5_12:
	@DEBUG_VALUE: mbedtls_pk_write_pubkey_der:size <- $r2
	@DEBUG_VALUE: mbedtls_pk_write_pubkey_der:buf <- $r1
	@DEBUG_VALUE: mbedtls_pk_write_pubkey_der:key <- $r0
	@DEBUG_VALUE: mbedtls_pk_write_pubkey_der:len <- 0
	@DEBUG_VALUE: mbedtls_pk_write_pubkey_der:par_len <- 0
	mov	r6, r4
	b	.LBB5_16
.Ltmp125:
.LBB5_13:
	@DEBUG_VALUE: mbedtls_pk_write_pubkey_der:key <- [DW_OP_plus_uconst 20] [$sp+0]
	@DEBUG_VALUE: mbedtls_pk_write_pubkey_der:len <- $r6
	@DEBUG_VALUE: mbedtls_pk_write_pubkey_der:ret <- $r6
	@DEBUG_VALUE: mbedtls_pk_write_pubkey_der:c <- $r0
	@DEBUG_VALUE: mbedtls_pk_write_pubkey_der:buf <- [DW_OP_LLVM_entry_value 1] $r1
	@DEBUG_VALUE: mbedtls_pk_write_pubkey_der:size <- [DW_OP_LLVM_entry_value 1] $r2
	@DEBUG_VALUE: mbedtls_pk_write_pubkey_der:par_len <- 0
	mov	r6, r4
.Ltmp126:
	b	.LBB5_16
.Ltmp127:
.LBB5_14:
	@DEBUG_VALUE: mbedtls_pk_write_pubkey_der:key <- [DW_OP_plus_uconst 20] [$sp+0]
	@DEBUG_VALUE: mbedtls_pk_write_pubkey_der:ret <- $r7
	@DEBUG_VALUE: mbedtls_pk_write_pubkey_der:len <- $r5
	@DEBUG_VALUE: mbedtls_pk_write_pubkey_der:c <- [DW_OP_plus_uconst 32, DW_OP_deref] $sp
	@DEBUG_VALUE: mbedtls_pk_write_pubkey_der:buf <- [DW_OP_LLVM_entry_value 1] $r1
	@DEBUG_VALUE: mbedtls_pk_write_pubkey_der:size <- [DW_OP_LLVM_entry_value 1] $r2
	@DEBUG_VALUE: mbedtls_pk_write_pubkey_der:par_len <- 0
	mov	r6, r7
.Ltmp128:
	@DEBUG_VALUE: mbedtls_pk_write_pubkey_der:ret <- $r6
	b	.LBB5_16
.Ltmp129:
.LBB5_15:
	@DEBUG_VALUE: mbedtls_pk_write_pubkey_der:key <- [DW_OP_plus_uconst 20] [$sp+0]
	@DEBUG_VALUE: mbedtls_pk_write_pubkey_der:ret <- $r0
	@DEBUG_VALUE: mbedtls_pk_write_pubkey_der:c <- [DW_OP_plus_uconst 32, DW_OP_deref] $sp
	@DEBUG_VALUE: mbedtls_pk_write_pubkey_der:buf <- [DW_OP_LLVM_entry_value 1] $r1
	@DEBUG_VALUE: mbedtls_pk_write_pubkey_der:size <- [DW_OP_LLVM_entry_value 1] $r2
	@DEBUG_VALUE: mbedtls_pk_write_pubkey_der:par_len <- 0
	mov	r6, r0
.Ltmp130:
	@DEBUG_VALUE: mbedtls_pk_write_pubkey_der:ret <- $r6
.LBB5_16:
	.loc	7 293 1 is_stmt 1               @ ../../../ThirdParty/mbedTLS/library/pkwrite.c:293:1
	mov	r0, r6
	add	sp, #36
	pop	{r4, r5, r6, r7, pc}
.LBB5_17:
.Ltmp131:
	@DEBUG_VALUE: mbedtls_pk_write_pubkey_der:ret <- $r0
	@DEBUG_VALUE: mbedtls_pk_write_pubkey_der:c <- [DW_OP_plus_uconst 32, DW_OP_deref] $sp
	@DEBUG_VALUE: mbedtls_pk_write_pubkey_der:buf <- [DW_OP_LLVM_entry_value 1] $r1
	@DEBUG_VALUE: mbedtls_pk_write_pubkey_der:size <- [DW_OP_LLVM_entry_value 1] $r2
	.loc	7 0 0 is_stmt 0                 @ ../../../ThirdParty/mbedTLS/library/pkwrite.c:0:0
	mov	r6, r0
.Ltmp132:
	@DEBUG_VALUE: mbedtls_pk_write_pubkey_der:ret <- $r6
	b	.LBB5_16
.Ltmp133:
.Lfunc_end5:
	.size	mbedtls_pk_write_pubkey_der, .Lfunc_end5-mbedtls_pk_write_pubkey_der
	.cfi_endproc
	.cantunwind
	.fnend
                                        @ -- End function
	.section	.text.pk_write_ec_param,"ax",%progbits
	.p2align	1                               @ -- Begin function pk_write_ec_param
	.type	pk_write_ec_param,%function
	.code	16                              @ @pk_write_ec_param
	.thumb_func
pk_write_ec_param:
.Lfunc_begin6:
	.loc	7 144 0 is_stmt 1               @ ../../../ThirdParty/mbedTLS/library/pkwrite.c:144:0
	.fnstart
	.cfi_startproc
@ %bb.0:
	@DEBUG_VALUE: pk_write_ec_param:p <- $r0
	@DEBUG_VALUE: pk_write_ec_param:start <- $r1
	@DEBUG_VALUE: pk_write_ec_param:ec <- $r2
	.save	{r4, r5, r7, lr}
	push	{r4, r5, r7, lr}
	.cfi_def_cfa_offset 16
	.cfi_offset lr, -4
	.cfi_offset r7, -8
	.cfi_offset r5, -12
	.cfi_offset r4, -16
	.pad	#8
	sub	sp, #8
	.cfi_def_cfa_offset 24
	mov	r4, r1
	mov	r5, r0
.Ltmp134:
	@DEBUG_VALUE: pk_write_ec_param:len <- 0
	@DEBUG_VALUE: pk_write_ec_param:ec <- $r2
	@DEBUG_VALUE: pk_write_ec_param:start <- $r4
	@DEBUG_VALUE: pk_write_ec_param:p <- $r5
	.loc	7 150 56 prologue_end           @ ../../../ThirdParty/mbedTLS/library/pkwrite.c:150:56
	ldrb	r0, [r2]
.Ltmp135:
	@DEBUG_VALUE: pk_write_ec_param:oid_len <- [DW_OP_deref] $sp
	@DEBUG_VALUE: pk_write_ec_param:oid <- [DW_OP_plus_uconst 4, DW_OP_deref] $sp
	.loc	7 0 56 is_stmt 0                @ ../../../ThirdParty/mbedTLS/library/pkwrite.c:0:56
	add	r1, sp, #4
	mov	r2, sp
.Ltmp136:
	@DEBUG_VALUE: pk_write_ec_param:ec <- [DW_OP_LLVM_entry_value 1] $r2
	.loc	7 150 17                        @ ../../../ThirdParty/mbedTLS/library/pkwrite.c:150:17
	bl	mbedtls_oid_get_oid_by_ec_grp
.Ltmp137:
	@DEBUG_VALUE: pk_write_ec_param:ret <- $r0
	.loc	7 150 9                         @ ../../../ThirdParty/mbedTLS/library/pkwrite.c:150:9
	cbz	r0, .LBB6_2
.Ltmp138:
@ %bb.1:
	@DEBUG_VALUE: pk_write_ec_param:p <- $r5
	@DEBUG_VALUE: pk_write_ec_param:start <- $r4
	@DEBUG_VALUE: pk_write_ec_param:ret <- $r0
	@DEBUG_VALUE: pk_write_ec_param:oid <- [DW_OP_plus_uconst 4, DW_OP_deref] $sp
	@DEBUG_VALUE: pk_write_ec_param:oid_len <- [DW_OP_deref] $sp
	@DEBUG_VALUE: pk_write_ec_param:ec <- [DW_OP_LLVM_entry_value 1] $r2
	@DEBUG_VALUE: pk_write_ec_param:len <- 0
	.loc	7 156 1 is_stmt 1               @ ../../../ThirdParty/mbedTLS/library/pkwrite.c:156:1
	add	sp, #8
.Ltmp139:
	pop	{r4, r5, r7, pc}
.Ltmp140:
.LBB6_2:
	@DEBUG_VALUE: pk_write_ec_param:p <- $r5
	@DEBUG_VALUE: pk_write_ec_param:start <- $r4
	@DEBUG_VALUE: pk_write_ec_param:ret <- $r0
	@DEBUG_VALUE: pk_write_ec_param:oid <- [DW_OP_plus_uconst 4, DW_OP_deref] $sp
	@DEBUG_VALUE: pk_write_ec_param:oid_len <- [DW_OP_deref] $sp
	@DEBUG_VALUE: pk_write_ec_param:ec <- [DW_OP_LLVM_entry_value 1] $r2
	@DEBUG_VALUE: pk_write_ec_param:len <- 0
	.loc	7 153 5                         @ ../../../ThirdParty/mbedTLS/library/pkwrite.c:153:5
	ldr	r3, [sp]
.Ltmp141:
	@DEBUG_VALUE: pk_write_ec_param:oid_len <- $r3
	ldr	r2, [sp, #4]
.Ltmp142:
	@DEBUG_VALUE: pk_write_ec_param:oid <- $r2
	mov	r0, r5
.Ltmp143:
	mov	r1, r4
	bl	mbedtls_asn1_write_oid
.Ltmp144:
	@DEBUG_VALUE: pk_write_ec_param:ret <- $r0
	.loc	7 156 1                         @ ../../../ThirdParty/mbedTLS/library/pkwrite.c:156:1
	add	sp, #8
	pop	{r4, r5, r7, pc}
.Ltmp145:
.Lfunc_end6:
	.size	pk_write_ec_param, .Lfunc_end6-pk_write_ec_param
	.cfi_endproc
	.cantunwind
	.fnend
                                        @ -- End function
	.section	.text.mbedtls_pk_write_key_der,"ax",%progbits
	.hidden	mbedtls_pk_write_key_der        @ -- Begin function mbedtls_pk_write_key_der
	.globl	mbedtls_pk_write_key_der
	.p2align	2
	.type	mbedtls_pk_write_key_der,%function
	.code	16                              @ @mbedtls_pk_write_key_der
	.thumb_func
mbedtls_pk_write_key_der:
.Lfunc_begin7:
	.loc	7 296 0                         @ ../../../ThirdParty/mbedTLS/library/pkwrite.c:296:0
	.fnstart
	.cfi_startproc
@ %bb.0:
	@DEBUG_VALUE: mbedtls_pk_write_key_der:key <- $r0
	@DEBUG_VALUE: mbedtls_pk_write_key_der:buf <- $r1
	@DEBUG_VALUE: mbedtls_pk_write_key_der:size <- $r2
	.save	{r4, r5, r6, r7, lr}
	push	{r4, r5, r6, r7, lr}
	.cfi_def_cfa_offset 20
	.cfi_offset lr, -4
	.cfi_offset r7, -8
	.cfi_offset r6, -12
	.cfi_offset r5, -16
	.cfi_offset r4, -20
	.pad	#36
	sub	sp, #36
	.cfi_def_cfa_offset 56
	movs	r7, #107
	mvns	r6, r7
.Ltmp146:
	@DEBUG_VALUE: mbedtls_pk_write_key_der:len <- 0
	@DEBUG_VALUE: mbedtls_pk_write_key_der:size <- $r2
	@DEBUG_VALUE: mbedtls_pk_write_key_der:buf <- $r1
	@DEBUG_VALUE: mbedtls_pk_write_key_der:key <- $r0
	.loc	7 302 9 prologue_end            @ ../../../ThirdParty/mbedTLS/library/pkwrite.c:302:9
	cmp	r2, #0
	beq	.LBB7_9
.Ltmp147:
@ %bb.1:
	@DEBUG_VALUE: mbedtls_pk_write_key_der:size <- $r2
	@DEBUG_VALUE: mbedtls_pk_write_key_der:buf <- $r1
	@DEBUG_VALUE: mbedtls_pk_write_key_der:key <- $r0
	@DEBUG_VALUE: mbedtls_pk_write_key_der:len <- 0
	.loc	7 0 9 is_stmt 0                 @ ../../../ThirdParty/mbedTLS/library/pkwrite.c:0:9
	mov	r4, r1
.Ltmp148:
	@DEBUG_VALUE: mbedtls_pk_write_key_der:buf <- $r4
	mov	r5, r0
.Ltmp149:
	@DEBUG_VALUE: mbedtls_pk_write_key_der:key <- $r5
	.loc	7 306 13 is_stmt 1              @ ../../../ThirdParty/mbedTLS/library/pkwrite.c:306:13
	adds	r0, r1, r2
.Ltmp150:
	@DEBUG_VALUE: mbedtls_pk_write_key_der:c <- $r0
	.loc	7 306 7 is_stmt 0               @ ../../../ThirdParty/mbedTLS/library/pkwrite.c:306:7
	str	r0, [sp, #32]
.Ltmp151:
	.loc	7 309 9 is_stmt 1               @ ../../../ThirdParty/mbedTLS/library/pkwrite.c:309:9
	mov	r0, r5
.Ltmp152:
	bl	mbedtls_pk_get_type
.Ltmp153:
	@DEBUG_VALUE: mbedtls_pk_write_key_der:size <- [DW_OP_LLVM_entry_value 1] $r2
	.loc	7 309 9 is_stmt 0               @ ../../../ThirdParty/mbedTLS/library/pkwrite.c:309:9
	cmp	r0, #1
	bne	.LBB7_10
.Ltmp154:
@ %bb.2:
	@DEBUG_VALUE: mbedtls_pk_write_key_der:key <- $r5
	@DEBUG_VALUE: mbedtls_pk_write_key_der:buf <- $r4
	@DEBUG_VALUE: mbedtls_pk_write_key_der:size <- [DW_OP_LLVM_entry_value 1] $r2
	@DEBUG_VALUE: mbedtls_pk_write_key_der:len <- 0
	.loc	7 0 9                           @ ../../../ThirdParty/mbedTLS/library/pkwrite.c:0:9
	str	r4, [sp, #16]                   @ 4-byte Spill
.Ltmp155:
	@DEBUG_VALUE: mbedtls_pk_write_key_der:buf <- [DW_OP_plus_uconst 16] [$sp+0]
	.loc	7 312 36 is_stmt 1              @ ../../../ThirdParty/mbedTLS/library/pkwrite.c:312:36
	ldm	r5!, {r0, r1}
.Ltmp156:
	@DEBUG_VALUE: mbedtls_pk_write_key_der:key <- [DW_OP_LLVM_entry_value 1] $r0
	bl	mbedtls_pk_rsa
	mov	r6, r0
.Ltmp157:
	@DEBUG_VALUE: rsa <- $r6
	.loc	7 0 36 is_stmt 0                @ ../../../ThirdParty/mbedTLS/library/pkwrite.c:0:36
	add	r5, sp, #20
	.loc	7 318 9 is_stmt 1               @ ../../../ThirdParty/mbedTLS/library/pkwrite.c:318:9
	mov	r0, r5
	bl	mbedtls_mpi_init
	movs	r4, #0
.Ltmp158:
	.loc	7 321 21                        @ ../../../ThirdParty/mbedTLS/library/pkwrite.c:321:21
	mov	r0, r6
	mov	r1, r4
	mov	r2, r4
	mov	r3, r5
	bl	mbedtls_rsa_export_crt
	mov	r5, r0
.Ltmp159:
	@DEBUG_VALUE: mbedtls_pk_write_key_der:ret <- $r5
	.loc	7 321 74 is_stmt 0              @ ../../../ThirdParty/mbedTLS/library/pkwrite.c:321:74
	cmp	r0, #0
.Ltmp160:
	.loc	7 0 0                           @ ../../../ThirdParty/mbedTLS/library/pkwrite.c:0:0
	mov	r7, r4
	@DEBUG_VALUE: rsa <- $r6
	bne	.LBB7_3
	b	.LBB7_26
.Ltmp161:
.LBB7_3:
	@DEBUG_VALUE: mbedtls_pk_write_key_der:ret <- $r5
	@DEBUG_VALUE: mbedtls_pk_write_key_der:key <- [DW_OP_LLVM_entry_value 1] $r0
	@DEBUG_VALUE: mbedtls_pk_write_key_der:size <- [DW_OP_LLVM_entry_value 1] $r2
	@DEBUG_VALUE: mbedtls_pk_write_key_der:len <- $r7
	@DEBUG_VALUE: mbedtls_pk_write_key_der:ret <- $r5
	@DEBUG_LABEL: end_of_export
	add	r0, sp, #20
.Ltmp162:
	.loc	7 375 9 is_stmt 1               @ ../../../ThirdParty/mbedTLS/library/pkwrite.c:375:9
	bl	mbedtls_mpi_free
	.loc	7 376 13                        @ ../../../ThirdParty/mbedTLS/library/pkwrite.c:376:13
	cmp	r5, #0
	bpl	.LBB7_4
	b	.LBB7_29
.Ltmp163:
.LBB7_4:
	@DEBUG_VALUE: mbedtls_pk_write_key_der:len <- $r7
	@DEBUG_VALUE: mbedtls_pk_write_key_der:ret <- $r5
	@DEBUG_VALUE: mbedtls_pk_write_key_der:key <- [DW_OP_LLVM_entry_value 1] $r0
	@DEBUG_VALUE: mbedtls_pk_write_key_der:size <- [DW_OP_LLVM_entry_value 1] $r2
	@DEBUG_VALUE: mbedtls_pk_write_key_der:c <- [DW_OP_plus_uconst 32, DW_OP_deref] $sp
	.loc	7 0 13 is_stmt 0                @ ../../../ThirdParty/mbedTLS/library/pkwrite.c:0:13
	add	r0, sp, #32
	movs	r2, #0
	ldr	r4, [sp, #16]                   @ 4-byte Reload
.Ltmp164:
	.loc	7 379 9 is_stmt 1               @ ../../../ThirdParty/mbedTLS/library/pkwrite.c:379:9
	mov	r1, r4
	str	r2, [sp, #12]                   @ 4-byte Spill
	bl	mbedtls_asn1_write_int
	mov	r5, r0
.Ltmp165:
	@DEBUG_VALUE: mbedtls_pk_write_key_der:ret <- $r5
	.loc	7 379 9 is_stmt 0               @ ../../../ThirdParty/mbedTLS/library/pkwrite.c:379:9
	cmp	r0, #0
	mov	r6, r7
.Ltmp166:
	@DEBUG_VALUE: mbedtls_pk_write_key_der:len <- $r6
	.loc	7 0 9                           @ ../../../ThirdParty/mbedTLS/library/pkwrite.c:0:9
	bpl	.LBB7_5
	b	.LBB7_34
.Ltmp167:
.LBB7_5:
	@DEBUG_VALUE: mbedtls_pk_write_key_der:len <- $r6
	@DEBUG_VALUE: mbedtls_pk_write_key_der:ret <- $r5
	@DEBUG_VALUE: mbedtls_pk_write_key_der:c <- [DW_OP_plus_uconst 32, DW_OP_deref] $sp
	@DEBUG_VALUE: mbedtls_pk_write_key_der:key <- [DW_OP_LLVM_entry_value 1] $r0
	@DEBUG_VALUE: mbedtls_pk_write_key_der:size <- [DW_OP_LLVM_entry_value 1] $r2
	.loc	7 379 9                         @ ../../../ThirdParty/mbedTLS/library/pkwrite.c:379:9
	adds	r6, r5, r6
.Ltmp168:
	@DEBUG_VALUE: mbedtls_pk_write_key_der:c <- [DW_OP_plus_uconst 32, DW_OP_deref] $sp
	@DEBUG_VALUE: mbedtls_pk_write_key_der:len <- $r6
	.loc	7 0 9                           @ ../../../ThirdParty/mbedTLS/library/pkwrite.c:0:9
	add	r0, sp, #32
.Ltmp169:
	.loc	7 380 9 is_stmt 1               @ ../../../ThirdParty/mbedTLS/library/pkwrite.c:380:9
	mov	r1, r4
	mov	r2, r6
	bl	mbedtls_asn1_write_len
	mov	r5, r0
.Ltmp170:
	@DEBUG_VALUE: mbedtls_pk_write_key_der:ret <- $r5
	.loc	7 380 9 is_stmt 0               @ ../../../ThirdParty/mbedTLS/library/pkwrite.c:380:9
	cmp	r0, #0
	bpl	.LBB7_6
	b	.LBB7_34
.Ltmp171:
.LBB7_6:
	@DEBUG_VALUE: mbedtls_pk_write_key_der:len <- $r6
	@DEBUG_VALUE: mbedtls_pk_write_key_der:ret <- $r5
	@DEBUG_VALUE: mbedtls_pk_write_key_der:c <- [DW_OP_plus_uconst 32, DW_OP_deref] $sp
	@DEBUG_VALUE: mbedtls_pk_write_key_der:key <- [DW_OP_LLVM_entry_value 1] $r0
	@DEBUG_VALUE: mbedtls_pk_write_key_der:size <- [DW_OP_LLVM_entry_value 1] $r2
	@DEBUG_VALUE: mbedtls_pk_write_key_der:c <- [DW_OP_plus_uconst 32, DW_OP_deref] $sp
	.loc	7 0 9                           @ ../../../ThirdParty/mbedTLS/library/pkwrite.c:0:9
	add	r0, sp, #32
	movs	r2, #48
.Ltmp172:
	.loc	7 381 9 is_stmt 1               @ ../../../ThirdParty/mbedTLS/library/pkwrite.c:381:9
	mov	r1, r4
	bl	mbedtls_asn1_write_tag
.Ltmp173:
	@DEBUG_VALUE: mbedtls_pk_write_key_der:ret <- $r0
	.loc	7 380 9                         @ ../../../ThirdParty/mbedTLS/library/pkwrite.c:380:9
	adds	r6, r5, r6
.Ltmp174:
	@DEBUG_VALUE: mbedtls_pk_write_key_der:len <- $r6
	.loc	7 381 9                         @ ../../../ThirdParty/mbedTLS/library/pkwrite.c:381:9
	cmp	r0, #0
	bpl	.LBB7_7
	b	.LBB7_33
.Ltmp175:
.LBB7_7:
	@DEBUG_VALUE: mbedtls_pk_write_key_der:len <- $r6
	@DEBUG_VALUE: mbedtls_pk_write_key_der:ret <- $r0
	@DEBUG_VALUE: mbedtls_pk_write_key_der:c <- [DW_OP_plus_uconst 32, DW_OP_deref] $sp
	@DEBUG_VALUE: mbedtls_pk_write_key_der:key <- [DW_OP_LLVM_entry_value 1] $r0
	@DEBUG_VALUE: mbedtls_pk_write_key_der:size <- [DW_OP_LLVM_entry_value 1] $r2
	.loc	7 381 9 is_stmt 0               @ ../../../ThirdParty/mbedTLS/library/pkwrite.c:381:9
	adds	r6, r0, r6
.Ltmp176:
	@DEBUG_VALUE: mbedtls_pk_write_key_der:len <- $r6
	.loc	7 0 9                           @ ../../../ThirdParty/mbedTLS/library/pkwrite.c:0:9
	movs	r4, #1
                                        @ implicit-def: $r5
	@DEBUG_VALUE: mbedtls_pk_write_key_der:len <- $r6
	cmp	r4, #0
	bne	.LBB7_8
	b	.LBB7_52
.Ltmp177:
.LBB7_8:
	b	.LBB7_51
.LBB7_9:
.Ltmp178:
	@DEBUG_VALUE: mbedtls_pk_write_key_der:size <- $r2
	@DEBUG_VALUE: mbedtls_pk_write_key_der:buf <- $r1
	@DEBUG_VALUE: mbedtls_pk_write_key_der:key <- $r0
	@DEBUG_VALUE: mbedtls_pk_write_key_der:len <- 0
	mov	r5, r6
	b	.LBB7_52
.Ltmp179:
.LBB7_10:
	@DEBUG_VALUE: mbedtls_pk_write_key_der:key <- $r5
	@DEBUG_VALUE: mbedtls_pk_write_key_der:buf <- $r4
	@DEBUG_VALUE: mbedtls_pk_write_key_der:size <- [DW_OP_LLVM_entry_value 1] $r2
	@DEBUG_VALUE: mbedtls_pk_write_key_der:len <- 0
	.loc	7 388 13 is_stmt 1              @ ../../../ThirdParty/mbedTLS/library/pkwrite.c:388:13
	mov	r0, r5
	bl	mbedtls_pk_get_type
.Ltmp180:
	.loc	7 388 13 is_stmt 0              @ ../../../ThirdParty/mbedTLS/library/pkwrite.c:388:13
	cmp	r0, #2
	beq	.LBB7_11
	b	.LBB7_25
.Ltmp181:
.LBB7_11:
	@DEBUG_VALUE: mbedtls_pk_write_key_der:key <- $r5
	@DEBUG_VALUE: mbedtls_pk_write_key_der:buf <- $r4
	@DEBUG_VALUE: mbedtls_pk_write_key_der:size <- [DW_OP_LLVM_entry_value 1] $r2
	@DEBUG_VALUE: mbedtls_pk_write_key_der:len <- 0
	.loc	7 390 39 is_stmt 1              @ ../../../ThirdParty/mbedTLS/library/pkwrite.c:390:39
	ldm	r5!, {r0, r1}
.Ltmp182:
	@DEBUG_VALUE: mbedtls_pk_write_key_der:key <- [DW_OP_LLVM_entry_value 1] $r0
	bl	mbedtls_pk_ec
	mov	r2, r0
.Ltmp183:
	@DEBUG_VALUE: par_len <- 0
	@DEBUG_VALUE: pub_len <- 0
	@DEBUG_VALUE: ec <- $r2
	@DEBUG_VALUE: mbedtls_pk_write_key_der:c <- [DW_OP_plus_uconst 32, DW_OP_deref] $sp
	.loc	7 0 39 is_stmt 0                @ ../../../ThirdParty/mbedTLS/library/pkwrite.c:0:39
	add	r0, sp, #32
.Ltmp184:
	.loc	7 405 13 is_stmt 1              @ ../../../ThirdParty/mbedTLS/library/pkwrite.c:405:13
	mov	r1, r4
	str	r2, [sp, #16]                   @ 4-byte Spill
.Ltmp185:
	@DEBUG_VALUE: ec <- [DW_OP_plus_uconst 16] [$sp+0]
	bl	pk_write_ec_pubkey
	mov	r5, r0
.Ltmp186:
	@DEBUG_VALUE: mbedtls_pk_write_key_der:ret <- $r5
	.loc	7 405 13 is_stmt 0              @ ../../../ThirdParty/mbedTLS/library/pkwrite.c:405:13
	cmp	r0, #0
	bpl	.LBB7_12
	b	.LBB7_30
.Ltmp187:
.LBB7_12:
	@DEBUG_VALUE: mbedtls_pk_write_key_der:ret <- $r5
	@DEBUG_VALUE: mbedtls_pk_write_key_der:buf <- $r4
	@DEBUG_VALUE: ec <- [DW_OP_plus_uconst 16] [$sp+0]
	@DEBUG_VALUE: mbedtls_pk_write_key_der:c <- [DW_OP_plus_uconst 32, DW_OP_deref] $sp
	@DEBUG_VALUE: pub_len <- 0
	@DEBUG_VALUE: par_len <- 0
	@DEBUG_VALUE: mbedtls_pk_write_key_der:key <- [DW_OP_LLVM_entry_value 1] $r0
	@DEBUG_VALUE: mbedtls_pk_write_key_der:size <- [DW_OP_LLVM_entry_value 1] $r2
	@DEBUG_VALUE: mbedtls_pk_write_key_der:len <- 0
	@DEBUG_VALUE: pub_len <- $r5
	.loc	7 407 17 is_stmt 1              @ ../../../ThirdParty/mbedTLS/library/pkwrite.c:407:17
	ldr	r0, [sp, #32]
.Ltmp188:
	@DEBUG_VALUE: mbedtls_pk_write_key_der:c <- $r0
	.loc	7 407 19 is_stmt 0              @ ../../../ThirdParty/mbedTLS/library/pkwrite.c:407:19
	subs	r1, r0, r4
.Ltmp189:
	.loc	7 407 17                        @ ../../../ThirdParty/mbedTLS/library/pkwrite.c:407:17
	cmp	r1, #1
	bge	.LBB7_13
	b	.LBB7_32
.Ltmp190:
.LBB7_13:
	@DEBUG_VALUE: pub_len <- $r5
	@DEBUG_VALUE: mbedtls_pk_write_key_der:ret <- $r5
	@DEBUG_VALUE: mbedtls_pk_write_key_der:buf <- $r4
	@DEBUG_VALUE: mbedtls_pk_write_key_der:c <- $r0
	@DEBUG_VALUE: ec <- [DW_OP_plus_uconst 16] [$sp+0]
	@DEBUG_VALUE: par_len <- 0
	@DEBUG_VALUE: mbedtls_pk_write_key_der:key <- [DW_OP_LLVM_entry_value 1] $r0
	@DEBUG_VALUE: mbedtls_pk_write_key_der:size <- [DW_OP_LLVM_entry_value 1] $r2
	@DEBUG_VALUE: mbedtls_pk_write_key_der:len <- 0
	.loc	7 409 14 is_stmt 1              @ ../../../ThirdParty/mbedTLS/library/pkwrite.c:409:14
	adds	r0, r6, r0
.Ltmp191:
	mov	r1, r0
	adds	r1, #107
.Ltmp192:
	@DEBUG_VALUE: mbedtls_pk_write_key_der:c <- $r1
	str	r1, [sp, #32]
	movs	r6, #0
	.loc	7 409 18 is_stmt 0              @ ../../../ThirdParty/mbedTLS/library/pkwrite.c:409:18
	strb	r6, [r0, r7]
.Ltmp193:
	@DEBUG_VALUE: mbedtls_pk_write_key_der:c <- [DW_OP_plus_uconst 32, DW_OP_deref] $sp
	.loc	7 410 21 is_stmt 1              @ ../../../ThirdParty/mbedTLS/library/pkwrite.c:410:21
	adds	r7, r5, #1
.Ltmp194:
	@DEBUG_VALUE: pub_len <- $r7
	.loc	7 0 21 is_stmt 0                @ ../../../ThirdParty/mbedTLS/library/pkwrite.c:0:21
	add	r0, sp, #32
.Ltmp195:
	.loc	7 412 13 is_stmt 1              @ ../../../ThirdParty/mbedTLS/library/pkwrite.c:412:13
	mov	r1, r4
	mov	r2, r7
	bl	mbedtls_asn1_write_len
	mov	r5, r0
.Ltmp196:
	@DEBUG_VALUE: mbedtls_pk_write_key_der:ret <- $r5
	.loc	7 412 13 is_stmt 0              @ ../../../ThirdParty/mbedTLS/library/pkwrite.c:412:13
	cmp	r0, #0
	bpl	.LBB7_14
	b	.LBB7_38
.Ltmp197:
.LBB7_14:
	@DEBUG_VALUE: pub_len <- $r7
	@DEBUG_VALUE: mbedtls_pk_write_key_der:ret <- $r5
	@DEBUG_VALUE: mbedtls_pk_write_key_der:buf <- $r4
	@DEBUG_VALUE: ec <- [DW_OP_plus_uconst 16] [$sp+0]
	@DEBUG_VALUE: mbedtls_pk_write_key_der:c <- [DW_OP_plus_uconst 32, DW_OP_deref] $sp
	@DEBUG_VALUE: par_len <- 0
	@DEBUG_VALUE: mbedtls_pk_write_key_der:key <- [DW_OP_LLVM_entry_value 1] $r0
	@DEBUG_VALUE: mbedtls_pk_write_key_der:size <- [DW_OP_LLVM_entry_value 1] $r2
	@DEBUG_VALUE: mbedtls_pk_write_key_der:len <- 0
	@DEBUG_VALUE: mbedtls_pk_write_key_der:c <- [DW_OP_plus_uconst 32, DW_OP_deref] $sp
	@DEBUG_VALUE: pub_len <- undef
	.loc	7 0 13                          @ ../../../ThirdParty/mbedTLS/library/pkwrite.c:0:13
	add	r0, sp, #32
	movs	r2, #3
.Ltmp198:
	.loc	7 413 13 is_stmt 1              @ ../../../ThirdParty/mbedTLS/library/pkwrite.c:413:13
	mov	r1, r4
	bl	mbedtls_asn1_write_tag
.Ltmp199:
	@DEBUG_VALUE: mbedtls_pk_write_key_der:ret <- $r0
	.loc	7 413 13 is_stmt 0              @ ../../../ThirdParty/mbedTLS/library/pkwrite.c:413:13
	cmp	r0, #0
	bpl	.LBB7_15
	b	.LBB7_39
.Ltmp200:
.LBB7_15:
	@DEBUG_VALUE: mbedtls_pk_write_key_der:buf <- $r4
	@DEBUG_VALUE: mbedtls_pk_write_key_der:ret <- $r0
	@DEBUG_VALUE: ec <- [DW_OP_plus_uconst 16] [$sp+0]
	@DEBUG_VALUE: mbedtls_pk_write_key_der:c <- [DW_OP_plus_uconst 32, DW_OP_deref] $sp
	@DEBUG_VALUE: par_len <- 0
	@DEBUG_VALUE: mbedtls_pk_write_key_der:key <- [DW_OP_LLVM_entry_value 1] $r0
	@DEBUG_VALUE: mbedtls_pk_write_key_der:size <- [DW_OP_LLVM_entry_value 1] $r2
	@DEBUG_VALUE: mbedtls_pk_write_key_der:len <- 0
	.loc	7 412 13 is_stmt 1              @ ../../../ThirdParty/mbedTLS/library/pkwrite.c:412:13
	adds	r1, r5, r7
.Ltmp201:
	@DEBUG_VALUE: pub_len <- $r1
	.loc	7 413 13                        @ ../../../ThirdParty/mbedTLS/library/pkwrite.c:413:13
	adds	r6, r1, r0
.Ltmp202:
	@DEBUG_VALUE: pub_len <- $r6
	@DEBUG_VALUE: mbedtls_pk_write_key_der:c <- [DW_OP_plus_uconst 32, DW_OP_deref] $sp
	.loc	7 0 13 is_stmt 0                @ ../../../ThirdParty/mbedTLS/library/pkwrite.c:0:13
	add	r0, sp, #32
.Ltmp203:
	.loc	7 415 13 is_stmt 1              @ ../../../ThirdParty/mbedTLS/library/pkwrite.c:415:13
	mov	r1, r4
	mov	r2, r6
	bl	mbedtls_asn1_write_len
	mov	r5, r0
.Ltmp204:
	@DEBUG_VALUE: mbedtls_pk_write_key_der:ret <- $r5
	.loc	7 415 13 is_stmt 0              @ ../../../ThirdParty/mbedTLS/library/pkwrite.c:415:13
	cmp	r0, #0
	bmi	.LBB7_30
.Ltmp205:
@ %bb.16:
	@DEBUG_VALUE: pub_len <- $r6
	@DEBUG_VALUE: mbedtls_pk_write_key_der:ret <- $r5
	@DEBUG_VALUE: mbedtls_pk_write_key_der:buf <- $r4
	@DEBUG_VALUE: ec <- [DW_OP_plus_uconst 16] [$sp+0]
	@DEBUG_VALUE: mbedtls_pk_write_key_der:c <- [DW_OP_plus_uconst 32, DW_OP_deref] $sp
	@DEBUG_VALUE: par_len <- 0
	@DEBUG_VALUE: mbedtls_pk_write_key_der:key <- [DW_OP_LLVM_entry_value 1] $r0
	@DEBUG_VALUE: mbedtls_pk_write_key_der:size <- [DW_OP_LLVM_entry_value 1] $r2
	@DEBUG_VALUE: mbedtls_pk_write_key_der:len <- 0
	@DEBUG_VALUE: mbedtls_pk_write_key_der:c <- [DW_OP_plus_uconst 32, DW_OP_deref] $sp
	@DEBUG_VALUE: pub_len <- undef
	.loc	7 0 13                          @ ../../../ThirdParty/mbedTLS/library/pkwrite.c:0:13
	add	r0, sp, #32
	movs	r2, #161
.Ltmp206:
	.loc	7 416 13 is_stmt 1              @ ../../../ThirdParty/mbedTLS/library/pkwrite.c:416:13
	mov	r1, r4
	bl	mbedtls_asn1_write_tag
.Ltmp207:
	@DEBUG_VALUE: mbedtls_pk_write_key_der:ret <- $r0
	.loc	7 0 13 is_stmt 0                @ ../../../ThirdParty/mbedTLS/library/pkwrite.c:0:13
	movs	r7, #0
.Ltmp208:
	.loc	7 416 13                        @ ../../../ThirdParty/mbedTLS/library/pkwrite.c:416:13
	cmp	r0, #0
	bpl	.LBB7_17
	b	.LBB7_48
.Ltmp209:
.LBB7_17:
	@DEBUG_VALUE: mbedtls_pk_write_key_der:buf <- $r4
	@DEBUG_VALUE: mbedtls_pk_write_key_der:ret <- $r0
	@DEBUG_VALUE: ec <- [DW_OP_plus_uconst 16] [$sp+0]
	@DEBUG_VALUE: mbedtls_pk_write_key_der:c <- [DW_OP_plus_uconst 32, DW_OP_deref] $sp
	@DEBUG_VALUE: par_len <- 0
	@DEBUG_VALUE: mbedtls_pk_write_key_der:key <- [DW_OP_LLVM_entry_value 1] $r0
	@DEBUG_VALUE: mbedtls_pk_write_key_der:size <- [DW_OP_LLVM_entry_value 1] $r2
	@DEBUG_VALUE: mbedtls_pk_write_key_der:len <- 0
	@DEBUG_VALUE: mbedtls_pk_write_key_der:c <- [DW_OP_plus_uconst 32, DW_OP_deref] $sp
	.loc	7 0 13                          @ ../../../ThirdParty/mbedTLS/library/pkwrite.c:0:13
	str	r0, [sp, #12]                   @ 4-byte Spill
.Ltmp210:
	@DEBUG_VALUE: mbedtls_pk_write_key_der:ret <- [DW_OP_plus_uconst 12] [$sp+0]
	add	r0, sp, #32
.Ltmp211:
	.loc	7 421 13 is_stmt 1              @ ../../../ThirdParty/mbedTLS/library/pkwrite.c:421:13
	mov	r1, r4
	ldr	r2, [sp, #16]                   @ 4-byte Reload
	bl	pk_write_ec_param
	mov	r2, r0
.Ltmp212:
	@DEBUG_VALUE: mbedtls_pk_write_key_der:ret <- $r2
	.loc	7 415 13                        @ ../../../ThirdParty/mbedTLS/library/pkwrite.c:415:13
	adds	r0, r5, r6
.Ltmp213:
	@DEBUG_VALUE: pub_len <- $r0
	.loc	7 416 13                        @ ../../../ThirdParty/mbedTLS/library/pkwrite.c:416:13
	ldr	r1, [sp, #12]                   @ 4-byte Reload
	adds	r6, r0, r1
.Ltmp214:
	@DEBUG_VALUE: pub_len <- $r6
	@DEBUG_VALUE: mbedtls_pk_write_key_der:len <- $r6
	.loc	7 421 13                        @ ../../../ThirdParty/mbedTLS/library/pkwrite.c:421:13
	cmp	r2, #0
	bpl	.LBB7_18
	b	.LBB7_53
.Ltmp215:
.LBB7_18:
	@DEBUG_VALUE: mbedtls_pk_write_key_der:len <- $r6
	@DEBUG_VALUE: pub_len <- $r6
	@DEBUG_VALUE: mbedtls_pk_write_key_der:buf <- $r4
	@DEBUG_VALUE: mbedtls_pk_write_key_der:ret <- $r2
	@DEBUG_VALUE: ec <- [DW_OP_plus_uconst 16] [$sp+0]
	@DEBUG_VALUE: mbedtls_pk_write_key_der:c <- [DW_OP_plus_uconst 32, DW_OP_deref] $sp
	@DEBUG_VALUE: par_len <- 0
	@DEBUG_VALUE: mbedtls_pk_write_key_der:key <- [DW_OP_LLVM_entry_value 1] $r0
	@DEBUG_VALUE: mbedtls_pk_write_key_der:size <- [DW_OP_LLVM_entry_value 1] $r2
	@DEBUG_VALUE: mbedtls_pk_write_key_der:c <- [DW_OP_plus_uconst 32, DW_OP_deref] $sp
	@DEBUG_VALUE: par_len <- $r2
	.loc	7 0 13 is_stmt 0                @ ../../../ThirdParty/mbedTLS/library/pkwrite.c:0:13
	add	r0, sp, #32
.Ltmp216:
	.loc	7 423 13 is_stmt 1              @ ../../../ThirdParty/mbedTLS/library/pkwrite.c:423:13
	mov	r1, r4
	str	r2, [sp, #12]                   @ 4-byte Spill
.Ltmp217:
	@DEBUG_VALUE: par_len <- [DW_OP_plus_uconst 12] [$sp+0]
	bl	mbedtls_asn1_write_len
.Ltmp218:
	mov	r5, r0
.Ltmp219:
	@DEBUG_VALUE: mbedtls_pk_write_key_der:ret <- $r5
	.loc	7 423 13 is_stmt 0              @ ../../../ThirdParty/mbedTLS/library/pkwrite.c:423:13
	cmp	r0, #0
	bpl	.LBB7_19
	b	.LBB7_50
.Ltmp220:
.LBB7_19:
	@DEBUG_VALUE: mbedtls_pk_write_key_der:len <- $r6
	@DEBUG_VALUE: pub_len <- $r6
	@DEBUG_VALUE: mbedtls_pk_write_key_der:ret <- $r5
	@DEBUG_VALUE: mbedtls_pk_write_key_der:buf <- $r4
	@DEBUG_VALUE: par_len <- [DW_OP_plus_uconst 12] [$sp+0]
	@DEBUG_VALUE: ec <- [DW_OP_plus_uconst 16] [$sp+0]
	@DEBUG_VALUE: mbedtls_pk_write_key_der:c <- [DW_OP_plus_uconst 32, DW_OP_deref] $sp
	@DEBUG_VALUE: mbedtls_pk_write_key_der:key <- [DW_OP_LLVM_entry_value 1] $r0
	@DEBUG_VALUE: mbedtls_pk_write_key_der:size <- [DW_OP_LLVM_entry_value 1] $r2
	@DEBUG_VALUE: mbedtls_pk_write_key_der:c <- [DW_OP_plus_uconst 32, DW_OP_deref] $sp
	@DEBUG_VALUE: par_len <- undef
	.loc	7 0 13                          @ ../../../ThirdParty/mbedTLS/library/pkwrite.c:0:13
	add	r0, sp, #32
	movs	r2, #160
.Ltmp221:
	.loc	7 424 13 is_stmt 1              @ ../../../ThirdParty/mbedTLS/library/pkwrite.c:424:13
	mov	r1, r4
	bl	mbedtls_asn1_write_tag
.Ltmp222:
	@DEBUG_VALUE: mbedtls_pk_write_key_der:ret <- $r0
	.loc	7 424 13 is_stmt 0              @ ../../../ThirdParty/mbedTLS/library/pkwrite.c:424:13
	cmp	r0, #0
	bpl	.LBB7_20
	b	.LBB7_49
.Ltmp223:
.LBB7_20:
	@DEBUG_VALUE: mbedtls_pk_write_key_der:len <- $r6
	@DEBUG_VALUE: pub_len <- $r6
	@DEBUG_VALUE: mbedtls_pk_write_key_der:buf <- $r4
	@DEBUG_VALUE: mbedtls_pk_write_key_der:ret <- $r0
	@DEBUG_VALUE: ec <- [DW_OP_plus_uconst 16] [$sp+0]
	@DEBUG_VALUE: mbedtls_pk_write_key_der:c <- [DW_OP_plus_uconst 32, DW_OP_deref] $sp
	@DEBUG_VALUE: mbedtls_pk_write_key_der:key <- [DW_OP_LLVM_entry_value 1] $r0
	@DEBUG_VALUE: mbedtls_pk_write_key_der:size <- [DW_OP_LLVM_entry_value 1] $r2
	@DEBUG_VALUE: mbedtls_pk_write_key_der:c <- [DW_OP_plus_uconst 32, DW_OP_deref] $sp
	@DEBUG_VALUE: par_len <- undef
	.loc	7 0 13                          @ ../../../ThirdParty/mbedTLS/library/pkwrite.c:0:13
	str	r7, [sp, #8]                    @ 4-byte Spill
	ldr	r2, [sp, #16]                   @ 4-byte Reload
.Ltmp224:
	.loc	7 429 13 is_stmt 1              @ ../../../ThirdParty/mbedTLS/library/pkwrite.c:429:13
	adds	r2, #124
	str	r0, [sp, #16]                   @ 4-byte Spill
.Ltmp225:
	@DEBUG_VALUE: mbedtls_pk_write_key_der:ret <- [DW_OP_plus_uconst 16] [$sp+0]
	.loc	7 0 13 is_stmt 0                @ ../../../ThirdParty/mbedTLS/library/pkwrite.c:0:13
	add	r0, sp, #32
	.loc	7 429 13                        @ ../../../ThirdParty/mbedTLS/library/pkwrite.c:429:13
	mov	r1, r4
	bl	mbedtls_asn1_write_mpi
	mov	r7, r0
.Ltmp226:
	@DEBUG_VALUE: mbedtls_pk_write_key_der:ret <- $r7
	.loc	7 423 13 is_stmt 1              @ ../../../ThirdParty/mbedTLS/library/pkwrite.c:423:13
	ldr	r0, [sp, #12]                   @ 4-byte Reload
	adds	r0, r0, r6
.Ltmp227:
	.loc	7 424 13                        @ ../../../ThirdParty/mbedTLS/library/pkwrite.c:424:13
	adds	r0, r0, r5
.Ltmp228:
	.loc	7 426 17                        @ ../../../ThirdParty/mbedTLS/library/pkwrite.c:426:17
	ldr	r1, [sp, #16]                   @ 4-byte Reload
	adds	r6, r0, r1
.Ltmp229:
	@DEBUG_VALUE: mbedtls_pk_write_key_der:len <- $r6
	.loc	7 429 13                        @ ../../../ThirdParty/mbedTLS/library/pkwrite.c:429:13
	cmp	r7, #0
	bpl	.LBB7_21
	b	.LBB7_54
.Ltmp230:
.LBB7_21:
	@DEBUG_VALUE: mbedtls_pk_write_key_der:ret <- $r7
	@DEBUG_VALUE: mbedtls_pk_write_key_der:len <- $r6
	@DEBUG_VALUE: mbedtls_pk_write_key_der:buf <- $r4
	@DEBUG_VALUE: ec <- [DW_OP_plus_uconst 16] [$sp+0]
	@DEBUG_VALUE: mbedtls_pk_write_key_der:c <- [DW_OP_plus_uconst 32, DW_OP_deref] $sp
	@DEBUG_VALUE: mbedtls_pk_write_key_der:key <- [DW_OP_LLVM_entry_value 1] $r0
	@DEBUG_VALUE: mbedtls_pk_write_key_der:size <- [DW_OP_LLVM_entry_value 1] $r2
	.loc	7 430 14                        @ ../../../ThirdParty/mbedTLS/library/pkwrite.c:430:14
	ldr	r0, [sp, #32]
.Ltmp231:
	@DEBUG_VALUE: mbedtls_pk_write_key_der:c <- $r0
	.loc	7 0 14 is_stmt 0                @ ../../../ThirdParty/mbedTLS/library/pkwrite.c:0:14
	movs	r1, #4
	.loc	7 430 16                        @ ../../../ThirdParty/mbedTLS/library/pkwrite.c:430:16
	strb	r1, [r0]
.Ltmp232:
	@DEBUG_VALUE: mbedtls_pk_write_key_der:c <- [DW_OP_plus_uconst 32, DW_OP_deref] $sp
	.loc	7 0 16                          @ ../../../ThirdParty/mbedTLS/library/pkwrite.c:0:16
	add	r0, sp, #32
	movs	r2, #1
.Ltmp233:
	.loc	7 433 13 is_stmt 1              @ ../../../ThirdParty/mbedTLS/library/pkwrite.c:433:13
	mov	r1, r4
	str	r2, [sp, #16]                   @ 4-byte Spill
	bl	mbedtls_asn1_write_int
	mov	r5, r0
.Ltmp234:
	@DEBUG_VALUE: mbedtls_pk_write_key_der:ret <- $r5
	.loc	7 429 13                        @ ../../../ThirdParty/mbedTLS/library/pkwrite.c:429:13
	adds	r6, r7, r6
.Ltmp235:
	@DEBUG_VALUE: mbedtls_pk_write_key_der:len <- $r6
	.loc	7 433 13                        @ ../../../ThirdParty/mbedTLS/library/pkwrite.c:433:13
	cmp	r0, #0
	bpl	.LBB7_22
	b	.LBB7_55
.Ltmp236:
.LBB7_22:
	@DEBUG_VALUE: mbedtls_pk_write_key_der:len <- $r6
	@DEBUG_VALUE: mbedtls_pk_write_key_der:ret <- $r5
	@DEBUG_VALUE: mbedtls_pk_write_key_der:buf <- $r4
	@DEBUG_VALUE: ec <- [DW_OP_plus_uconst 16] [$sp+0]
	@DEBUG_VALUE: mbedtls_pk_write_key_der:c <- [DW_OP_plus_uconst 32, DW_OP_deref] $sp
	@DEBUG_VALUE: mbedtls_pk_write_key_der:key <- [DW_OP_LLVM_entry_value 1] $r0
	@DEBUG_VALUE: mbedtls_pk_write_key_der:size <- [DW_OP_LLVM_entry_value 1] $r2
	.loc	7 433 13 is_stmt 0              @ ../../../ThirdParty/mbedTLS/library/pkwrite.c:433:13
	adds	r6, r5, r6
.Ltmp237:
	@DEBUG_VALUE: mbedtls_pk_write_key_der:c <- [DW_OP_plus_uconst 32, DW_OP_deref] $sp
	@DEBUG_VALUE: mbedtls_pk_write_key_der:len <- $r6
	.loc	7 0 13                          @ ../../../ThirdParty/mbedTLS/library/pkwrite.c:0:13
	add	r0, sp, #32
.Ltmp238:
	.loc	7 435 13 is_stmt 1              @ ../../../ThirdParty/mbedTLS/library/pkwrite.c:435:13
	mov	r1, r4
	mov	r2, r6
	bl	mbedtls_asn1_write_len
	mov	r5, r0
.Ltmp239:
	@DEBUG_VALUE: mbedtls_pk_write_key_der:ret <- $r5
	.loc	7 435 13 is_stmt 0              @ ../../../ThirdParty/mbedTLS/library/pkwrite.c:435:13
	cmp	r0, #0
	ldr	r7, [sp, #8]                    @ 4-byte Reload
	bpl	.LBB7_23
	b	.LBB7_50
.Ltmp240:
.LBB7_23:
	@DEBUG_VALUE: mbedtls_pk_write_key_der:len <- $r6
	@DEBUG_VALUE: mbedtls_pk_write_key_der:ret <- $r5
	@DEBUG_VALUE: mbedtls_pk_write_key_der:buf <- $r4
	@DEBUG_VALUE: ec <- [DW_OP_plus_uconst 16] [$sp+0]
	@DEBUG_VALUE: mbedtls_pk_write_key_der:c <- [DW_OP_plus_uconst 32, DW_OP_deref] $sp
	@DEBUG_VALUE: mbedtls_pk_write_key_der:key <- [DW_OP_LLVM_entry_value 1] $r0
	@DEBUG_VALUE: mbedtls_pk_write_key_der:size <- [DW_OP_LLVM_entry_value 1] $r2
	@DEBUG_VALUE: mbedtls_pk_write_key_der:c <- [DW_OP_plus_uconst 32, DW_OP_deref] $sp
	.loc	7 0 13                          @ ../../../ThirdParty/mbedTLS/library/pkwrite.c:0:13
	add	r0, sp, #32
	movs	r2, #48
.Ltmp241:
	.loc	7 436 13 is_stmt 1              @ ../../../ThirdParty/mbedTLS/library/pkwrite.c:436:13
	mov	r1, r4
	bl	mbedtls_asn1_write_tag
.Ltmp242:
	@DEBUG_VALUE: mbedtls_pk_write_key_der:ret <- $r0
	.loc	7 435 13                        @ ../../../ThirdParty/mbedTLS/library/pkwrite.c:435:13
	adds	r6, r5, r6
.Ltmp243:
	@DEBUG_VALUE: mbedtls_pk_write_key_der:len <- $r6
	.loc	7 436 13                        @ ../../../ThirdParty/mbedTLS/library/pkwrite.c:436:13
	cmp	r0, #0
	bpl	.LBB7_24
	b	.LBB7_49
.Ltmp244:
.LBB7_24:
	@DEBUG_VALUE: mbedtls_pk_write_key_der:len <- $r6
	@DEBUG_VALUE: mbedtls_pk_write_key_der:buf <- $r4
	@DEBUG_VALUE: mbedtls_pk_write_key_der:ret <- $r0
	@DEBUG_VALUE: ec <- [DW_OP_plus_uconst 16] [$sp+0]
	@DEBUG_VALUE: mbedtls_pk_write_key_der:c <- [DW_OP_plus_uconst 32, DW_OP_deref] $sp
	@DEBUG_VALUE: mbedtls_pk_write_key_der:key <- [DW_OP_LLVM_entry_value 1] $r0
	@DEBUG_VALUE: mbedtls_pk_write_key_der:size <- [DW_OP_LLVM_entry_value 1] $r2
	.loc	7 436 13 is_stmt 0              @ ../../../ThirdParty/mbedTLS/library/pkwrite.c:436:13
	adds	r6, r0, r6
.Ltmp245:
	@DEBUG_VALUE: mbedtls_pk_write_key_der:len <- $r6
	.loc	7 0 13                          @ ../../../ThirdParty/mbedTLS/library/pkwrite.c:0:13
	ldr	r7, [sp, #16]                   @ 4-byte Reload
                                        @ implicit-def: $r5
	b	.LBB7_50
.Ltmp246:
.LBB7_25:
	@DEBUG_VALUE: mbedtls_pk_write_key_der:key <- $r5
	@DEBUG_VALUE: mbedtls_pk_write_key_der:buf <- $r4
	@DEBUG_VALUE: mbedtls_pk_write_key_der:size <- [DW_OP_LLVM_entry_value 1] $r2
	@DEBUG_VALUE: mbedtls_pk_write_key_der:len <- 0
	ldr	r5, __arm_cp.7_0
.Ltmp247:
	@DEBUG_VALUE: mbedtls_pk_write_key_der:key <- [DW_OP_LLVM_entry_value 1] $r0
	b	.LBB7_52
.Ltmp248:
.LBB7_26:
	@DEBUG_VALUE: mbedtls_pk_write_key_der:buf <- [DW_OP_plus_uconst 16] [$sp+0]
	@DEBUG_VALUE: rsa <- $r6
	@DEBUG_VALUE: mbedtls_pk_write_key_der:ret <- $r5
	@DEBUG_VALUE: mbedtls_pk_write_key_der:key <- [DW_OP_LLVM_entry_value 1] $r0
	@DEBUG_VALUE: mbedtls_pk_write_key_der:size <- [DW_OP_LLVM_entry_value 1] $r2
	@DEBUG_VALUE: mbedtls_pk_write_key_der:len <- 0
	@DEBUG_VALUE: mbedtls_pk_write_key_der:c <- [DW_OP_plus_uconst 32, DW_OP_deref] $sp
	str	r6, [sp, #12]                   @ 4-byte Spill
.Ltmp249:
	@DEBUG_VALUE: rsa <- [DW_OP_plus_uconst 12] [$sp+0]
	add	r0, sp, #32
	add	r2, sp, #20
.Ltmp250:
	.loc	7 322 25 is_stmt 1              @ ../../../ThirdParty/mbedTLS/library/pkwrite.c:322:25
	ldr	r1, [sp, #16]                   @ 4-byte Reload
.Ltmp251:
	@DEBUG_VALUE: mbedtls_pk_write_key_der:buf <- $r1
	bl	mbedtls_asn1_write_mpi
.Ltmp252:
	@DEBUG_VALUE: mbedtls_pk_write_key_der:buf <- [DW_OP_LLVM_entry_value 1] $r1
	mov	r6, r0
.Ltmp253:
	@DEBUG_VALUE: mbedtls_pk_write_key_der:ret <- $r6
	.loc	7 321 13                        @ ../../../ThirdParty/mbedTLS/library/pkwrite.c:321:13
	cmp	r0, #0
	bmi	.LBB7_31
.Ltmp254:
@ %bb.27:
	@DEBUG_VALUE: rsa <- [DW_OP_plus_uconst 12] [$sp+0]
	@DEBUG_VALUE: mbedtls_pk_write_key_der:ret <- $r6
	@DEBUG_VALUE: mbedtls_pk_write_key_der:c <- [DW_OP_plus_uconst 32, DW_OP_deref] $sp
	@DEBUG_VALUE: mbedtls_pk_write_key_der:buf <- [DW_OP_LLVM_entry_value 1] $r1
	@DEBUG_VALUE: mbedtls_pk_write_key_der:key <- [DW_OP_LLVM_entry_value 1] $r0
	@DEBUG_VALUE: mbedtls_pk_write_key_der:size <- [DW_OP_LLVM_entry_value 1] $r2
	@DEBUG_VALUE: mbedtls_pk_write_key_der:len <- 0
	@DEBUG_VALUE: mbedtls_pk_write_key_der:len <- $r6
	.loc	7 0 13 is_stmt 0                @ ../../../ThirdParty/mbedTLS/library/pkwrite.c:0:13
	add	r2, sp, #20
	movs	r1, #0
.Ltmp255:
	.loc	7 327 21 is_stmt 1              @ ../../../ThirdParty/mbedTLS/library/pkwrite.c:327:21
	ldr	r0, [sp, #12]                   @ 4-byte Reload
.Ltmp256:
	@DEBUG_VALUE: rsa <- $r0
	mov	r3, r1
	bl	mbedtls_rsa_export_crt
.Ltmp257:
	@DEBUG_VALUE: mbedtls_pk_write_key_der:ret <- $r0
	.loc	7 327 74 is_stmt 0              @ ../../../ThirdParty/mbedTLS/library/pkwrite.c:327:74
	cbz	r0, .LBB7_35
.Ltmp258:
@ %bb.28:
	@DEBUG_VALUE: mbedtls_pk_write_key_der:len <- $r6
	@DEBUG_VALUE: mbedtls_pk_write_key_der:ret <- $r0
	@DEBUG_VALUE: mbedtls_pk_write_key_der:c <- [DW_OP_plus_uconst 32, DW_OP_deref] $sp
	@DEBUG_VALUE: mbedtls_pk_write_key_der:buf <- [DW_OP_LLVM_entry_value 1] $r1
	@DEBUG_VALUE: mbedtls_pk_write_key_der:key <- [DW_OP_LLVM_entry_value 1] $r0
	@DEBUG_VALUE: mbedtls_pk_write_key_der:size <- [DW_OP_LLVM_entry_value 1] $r2
	.loc	7 0 0                           @ ../../../ThirdParty/mbedTLS/library/pkwrite.c:0:0
	mov	r5, r0
.Ltmp259:
	@DEBUG_VALUE: mbedtls_pk_write_key_der:ret <- $r5
	mov	r7, r6
.Ltmp260:
	@DEBUG_VALUE: mbedtls_pk_write_key_der:len <- $r7
	b	.LBB7_3
.Ltmp261:
.LBB7_29:
	@DEBUG_VALUE: mbedtls_pk_write_key_der:len <- $r7
	@DEBUG_VALUE: mbedtls_pk_write_key_der:ret <- $r5
	@DEBUG_VALUE: mbedtls_pk_write_key_der:key <- [DW_OP_LLVM_entry_value 1] $r0
	@DEBUG_VALUE: mbedtls_pk_write_key_der:size <- [DW_OP_LLVM_entry_value 1] $r2
	mov	r6, r7
.Ltmp262:
	@DEBUG_VALUE: mbedtls_pk_write_key_der:len <- $r6
	@DEBUG_VALUE: mbedtls_pk_write_key_der:len <- $r6
	cmp	r4, #0
	beq	.LBB7_52
	b	.LBB7_51
.Ltmp263:
.LBB7_30:
	@DEBUG_VALUE: mbedtls_pk_write_key_der:ret <- $r5
	@DEBUG_VALUE: mbedtls_pk_write_key_der:buf <- $r4
	@DEBUG_VALUE: ec <- [DW_OP_plus_uconst 16] [$sp+0]
	@DEBUG_VALUE: mbedtls_pk_write_key_der:c <- [DW_OP_plus_uconst 32, DW_OP_deref] $sp
	@DEBUG_VALUE: par_len <- 0
	@DEBUG_VALUE: mbedtls_pk_write_key_der:key <- [DW_OP_LLVM_entry_value 1] $r0
	@DEBUG_VALUE: mbedtls_pk_write_key_der:size <- [DW_OP_LLVM_entry_value 1] $r2
	@DEBUG_VALUE: mbedtls_pk_write_key_der:len <- 0
	movs	r6, #0
	mov	r7, r6
	b	.LBB7_50
.Ltmp264:
.LBB7_31:
	@DEBUG_VALUE: rsa <- [DW_OP_plus_uconst 12] [$sp+0]
	@DEBUG_VALUE: mbedtls_pk_write_key_der:ret <- $r6
	@DEBUG_VALUE: mbedtls_pk_write_key_der:c <- [DW_OP_plus_uconst 32, DW_OP_deref] $sp
	@DEBUG_VALUE: mbedtls_pk_write_key_der:buf <- [DW_OP_LLVM_entry_value 1] $r1
	@DEBUG_VALUE: mbedtls_pk_write_key_der:key <- [DW_OP_LLVM_entry_value 1] $r0
	@DEBUG_VALUE: mbedtls_pk_write_key_der:size <- [DW_OP_LLVM_entry_value 1] $r2
	@DEBUG_VALUE: mbedtls_pk_write_key_der:len <- 0
	mov	r7, r4
.Ltmp265:
	mov	r5, r6
.Ltmp266:
	@DEBUG_VALUE: mbedtls_pk_write_key_der:ret <- $r5
	b	.LBB7_3
.Ltmp267:
.LBB7_32:
	@DEBUG_VALUE: pub_len <- $r5
	@DEBUG_VALUE: mbedtls_pk_write_key_der:ret <- $r5
	@DEBUG_VALUE: mbedtls_pk_write_key_der:buf <- $r4
	@DEBUG_VALUE: mbedtls_pk_write_key_der:c <- $r0
	@DEBUG_VALUE: ec <- [DW_OP_plus_uconst 16] [$sp+0]
	@DEBUG_VALUE: par_len <- 0
	@DEBUG_VALUE: mbedtls_pk_write_key_der:key <- [DW_OP_LLVM_entry_value 1] $r0
	@DEBUG_VALUE: mbedtls_pk_write_key_der:size <- [DW_OP_LLVM_entry_value 1] $r2
	@DEBUG_VALUE: mbedtls_pk_write_key_der:len <- 0
	movs	r0, #0
.Ltmp268:
	mov	r7, r0
	mov	r5, r6
.Ltmp269:
	mov	r6, r0
	b	.LBB7_50
.Ltmp270:
.LBB7_33:
	@DEBUG_VALUE: mbedtls_pk_write_key_der:len <- $r6
	@DEBUG_VALUE: mbedtls_pk_write_key_der:ret <- $r0
	@DEBUG_VALUE: mbedtls_pk_write_key_der:c <- [DW_OP_plus_uconst 32, DW_OP_deref] $sp
	@DEBUG_VALUE: mbedtls_pk_write_key_der:key <- [DW_OP_LLVM_entry_value 1] $r0
	@DEBUG_VALUE: mbedtls_pk_write_key_der:size <- [DW_OP_LLVM_entry_value 1] $r2
	mov	r5, r0
.Ltmp271:
	@DEBUG_VALUE: mbedtls_pk_write_key_der:ret <- $r5
.LBB7_34:
	@DEBUG_VALUE: mbedtls_pk_write_key_der:len <- $r6
	@DEBUG_VALUE: mbedtls_pk_write_key_der:ret <- $r5
	@DEBUG_VALUE: mbedtls_pk_write_key_der:c <- [DW_OP_plus_uconst 32, DW_OP_deref] $sp
	@DEBUG_VALUE: mbedtls_pk_write_key_der:key <- [DW_OP_LLVM_entry_value 1] $r0
	@DEBUG_VALUE: mbedtls_pk_write_key_der:size <- [DW_OP_LLVM_entry_value 1] $r2
	ldr	r4, [sp, #12]                   @ 4-byte Reload
	@DEBUG_VALUE: mbedtls_pk_write_key_der:len <- $r6
	cmp	r4, #0
	beq	.LBB7_52
	b	.LBB7_51
.Ltmp272:
.LBB7_35:
	@DEBUG_VALUE: mbedtls_pk_write_key_der:len <- $r6
	@DEBUG_VALUE: mbedtls_pk_write_key_der:ret <- $r0
	@DEBUG_VALUE: mbedtls_pk_write_key_der:c <- [DW_OP_plus_uconst 32, DW_OP_deref] $sp
	@DEBUG_VALUE: mbedtls_pk_write_key_der:buf <- [DW_OP_LLVM_entry_value 1] $r1
	@DEBUG_VALUE: mbedtls_pk_write_key_der:key <- [DW_OP_LLVM_entry_value 1] $r0
	@DEBUG_VALUE: mbedtls_pk_write_key_der:size <- [DW_OP_LLVM_entry_value 1] $r2
	@DEBUG_VALUE: mbedtls_pk_write_key_der:c <- [DW_OP_plus_uconst 32, DW_OP_deref] $sp
	add	r0, sp, #32
.Ltmp273:
	add	r2, sp, #20
.Ltmp274:
	.loc	7 328 25 is_stmt 1              @ ../../../ThirdParty/mbedTLS/library/pkwrite.c:328:25
	ldr	r1, [sp, #16]                   @ 4-byte Reload
	bl	mbedtls_asn1_write_mpi
	mov	r5, r0
.Ltmp275:
	@DEBUG_VALUE: mbedtls_pk_write_key_der:ret <- $r5
	.loc	7 327 13                        @ ../../../ThirdParty/mbedTLS/library/pkwrite.c:327:13
	cmp	r0, #0
	bmi	.LBB7_47
.Ltmp276:
@ %bb.36:
	@DEBUG_VALUE: mbedtls_pk_write_key_der:len <- $r6
	@DEBUG_VALUE: mbedtls_pk_write_key_der:ret <- $r5
	@DEBUG_VALUE: mbedtls_pk_write_key_der:c <- [DW_OP_plus_uconst 32, DW_OP_deref] $sp
	@DEBUG_VALUE: mbedtls_pk_write_key_der:buf <- [DW_OP_LLVM_entry_value 1] $r1
	@DEBUG_VALUE: mbedtls_pk_write_key_der:key <- [DW_OP_LLVM_entry_value 1] $r0
	@DEBUG_VALUE: mbedtls_pk_write_key_der:size <- [DW_OP_LLVM_entry_value 1] $r2
	.loc	7 0 13 is_stmt 0                @ ../../../ThirdParty/mbedTLS/library/pkwrite.c:0:13
	add	r1, sp, #20
	movs	r7, #0
.Ltmp277:
	.loc	7 333 21 is_stmt 1              @ ../../../ThirdParty/mbedTLS/library/pkwrite.c:333:21
	ldr	r0, [sp, #12]                   @ 4-byte Reload
	mov	r2, r7
	mov	r3, r7
	bl	mbedtls_rsa_export_crt
.Ltmp278:
	@DEBUG_VALUE: mbedtls_pk_write_key_der:ret <- $r0
	.loc	7 330 13                        @ ../../../ThirdParty/mbedTLS/library/pkwrite.c:330:13
	adds	r6, r5, r6
.Ltmp279:
	@DEBUG_VALUE: mbedtls_pk_write_key_der:len <- $r6
	.loc	7 333 74                        @ ../../../ThirdParty/mbedTLS/library/pkwrite.c:333:74
	cbz	r0, .LBB7_40
.Ltmp280:
.LBB7_37:
	@DEBUG_VALUE: mbedtls_pk_write_key_der:len <- $r6
	@DEBUG_VALUE: mbedtls_pk_write_key_der:ret <- $r0
	@DEBUG_VALUE: mbedtls_pk_write_key_der:c <- [DW_OP_plus_uconst 32, DW_OP_deref] $sp
	@DEBUG_VALUE: mbedtls_pk_write_key_der:buf <- [DW_OP_LLVM_entry_value 1] $r1
	@DEBUG_VALUE: mbedtls_pk_write_key_der:key <- [DW_OP_LLVM_entry_value 1] $r0
	@DEBUG_VALUE: mbedtls_pk_write_key_der:size <- [DW_OP_LLVM_entry_value 1] $r2
	.loc	7 0 74 is_stmt 0                @ ../../../ThirdParty/mbedTLS/library/pkwrite.c:0:74
	mov	r7, r6
.Ltmp281:
	@DEBUG_VALUE: mbedtls_pk_write_key_der:len <- $r7
	mov	r5, r0
.Ltmp282:
	@DEBUG_VALUE: mbedtls_pk_write_key_der:ret <- $r5
	b	.LBB7_3
.Ltmp283:
.LBB7_38:
	@DEBUG_VALUE: pub_len <- $r7
	@DEBUG_VALUE: mbedtls_pk_write_key_der:ret <- $r5
	@DEBUG_VALUE: mbedtls_pk_write_key_der:buf <- $r4
	@DEBUG_VALUE: ec <- [DW_OP_plus_uconst 16] [$sp+0]
	@DEBUG_VALUE: mbedtls_pk_write_key_der:c <- [DW_OP_plus_uconst 32, DW_OP_deref] $sp
	@DEBUG_VALUE: par_len <- 0
	@DEBUG_VALUE: mbedtls_pk_write_key_der:key <- [DW_OP_LLVM_entry_value 1] $r0
	@DEBUG_VALUE: mbedtls_pk_write_key_der:size <- [DW_OP_LLVM_entry_value 1] $r2
	@DEBUG_VALUE: mbedtls_pk_write_key_der:len <- 0
	mov	r7, r6
	b	.LBB7_50
.Ltmp284:
.LBB7_39:
	@DEBUG_VALUE: mbedtls_pk_write_key_der:buf <- $r4
	@DEBUG_VALUE: mbedtls_pk_write_key_der:ret <- $r0
	@DEBUG_VALUE: ec <- [DW_OP_plus_uconst 16] [$sp+0]
	@DEBUG_VALUE: mbedtls_pk_write_key_der:c <- [DW_OP_plus_uconst 32, DW_OP_deref] $sp
	@DEBUG_VALUE: par_len <- 0
	@DEBUG_VALUE: mbedtls_pk_write_key_der:key <- [DW_OP_LLVM_entry_value 1] $r0
	@DEBUG_VALUE: mbedtls_pk_write_key_der:size <- [DW_OP_LLVM_entry_value 1] $r2
	@DEBUG_VALUE: mbedtls_pk_write_key_der:len <- 0
	movs	r6, #0
	mov	r7, r6
	b	.LBB7_49
.Ltmp285:
.LBB7_40:
	@DEBUG_VALUE: mbedtls_pk_write_key_der:len <- $r6
	@DEBUG_VALUE: mbedtls_pk_write_key_der:ret <- $r0
	@DEBUG_VALUE: mbedtls_pk_write_key_der:c <- [DW_OP_plus_uconst 32, DW_OP_deref] $sp
	@DEBUG_VALUE: mbedtls_pk_write_key_der:buf <- [DW_OP_LLVM_entry_value 1] $r1
	@DEBUG_VALUE: mbedtls_pk_write_key_der:key <- [DW_OP_LLVM_entry_value 1] $r0
	@DEBUG_VALUE: mbedtls_pk_write_key_der:size <- [DW_OP_LLVM_entry_value 1] $r2
	@DEBUG_VALUE: mbedtls_pk_write_key_der:c <- [DW_OP_plus_uconst 32, DW_OP_deref] $sp
	str	r7, [sp, #8]                    @ 4-byte Spill
	add	r0, sp, #32
.Ltmp286:
	add	r2, sp, #20
.Ltmp287:
	.loc	7 334 25 is_stmt 1              @ ../../../ThirdParty/mbedTLS/library/pkwrite.c:334:25
	ldr	r1, [sp, #16]                   @ 4-byte Reload
	bl	mbedtls_asn1_write_mpi
	mov	r5, r0
.Ltmp288:
	@DEBUG_VALUE: mbedtls_pk_write_key_der:ret <- $r5
	.loc	7 333 13                        @ ../../../ThirdParty/mbedTLS/library/pkwrite.c:333:13
	cmp	r0, #0
	bmi	.LBB7_47
.Ltmp289:
@ %bb.41:
	@DEBUG_VALUE: mbedtls_pk_write_key_der:len <- $r6
	@DEBUG_VALUE: mbedtls_pk_write_key_der:ret <- $r5
	@DEBUG_VALUE: mbedtls_pk_write_key_der:c <- [DW_OP_plus_uconst 32, DW_OP_deref] $sp
	@DEBUG_VALUE: mbedtls_pk_write_key_der:buf <- [DW_OP_LLVM_entry_value 1] $r1
	@DEBUG_VALUE: mbedtls_pk_write_key_der:key <- [DW_OP_LLVM_entry_value 1] $r0
	@DEBUG_VALUE: mbedtls_pk_write_key_der:size <- [DW_OP_LLVM_entry_value 1] $r2
	.loc	7 0 13 is_stmt 0                @ ../../../ThirdParty/mbedTLS/library/pkwrite.c:0:13
	ldr	r7, [sp, #8]                    @ 4-byte Reload
.Ltmp290:
	.loc	7 339 22 is_stmt 1              @ ../../../ThirdParty/mbedTLS/library/pkwrite.c:339:22
	str	r7, [sp]
	str	r7, [sp, #4]
	add	r3, sp, #20
	ldr	r0, [sp, #12]                   @ 4-byte Reload
	mov	r1, r7
	mov	r2, r7
	bl	mbedtls_rsa_export
.Ltmp291:
	@DEBUG_VALUE: mbedtls_pk_write_key_der:ret <- $r0
	.loc	7 336 13                        @ ../../../ThirdParty/mbedTLS/library/pkwrite.c:336:13
	adds	r6, r5, r6
.Ltmp292:
	@DEBUG_VALUE: mbedtls_pk_write_key_der:len <- $r6
	.loc	7 340 66                        @ ../../../ThirdParty/mbedTLS/library/pkwrite.c:340:66
	cmp	r0, #0
	bne	.LBB7_37
.Ltmp293:
@ %bb.42:
	@DEBUG_VALUE: mbedtls_pk_write_key_der:len <- $r6
	@DEBUG_VALUE: mbedtls_pk_write_key_der:ret <- $r0
	@DEBUG_VALUE: mbedtls_pk_write_key_der:c <- [DW_OP_plus_uconst 32, DW_OP_deref] $sp
	@DEBUG_VALUE: mbedtls_pk_write_key_der:buf <- [DW_OP_LLVM_entry_value 1] $r1
	@DEBUG_VALUE: mbedtls_pk_write_key_der:key <- [DW_OP_LLVM_entry_value 1] $r0
	@DEBUG_VALUE: mbedtls_pk_write_key_der:size <- [DW_OP_LLVM_entry_value 1] $r2
	@DEBUG_VALUE: mbedtls_pk_write_key_der:c <- [DW_OP_plus_uconst 32, DW_OP_deref] $sp
	.loc	7 0 66 is_stmt 0                @ ../../../ThirdParty/mbedTLS/library/pkwrite.c:0:66
	add	r0, sp, #32
.Ltmp294:
	add	r2, sp, #20
	.loc	7 341 25 is_stmt 1              @ ../../../ThirdParty/mbedTLS/library/pkwrite.c:341:25
	ldr	r1, [sp, #16]                   @ 4-byte Reload
	bl	mbedtls_asn1_write_mpi
	mov	r5, r0
.Ltmp295:
	@DEBUG_VALUE: mbedtls_pk_write_key_der:ret <- $r5
	.loc	7 339 14                        @ ../../../ThirdParty/mbedTLS/library/pkwrite.c:339:14
	cmp	r0, #0
	bmi	.LBB7_47
.Ltmp296:
@ %bb.43:
	@DEBUG_VALUE: mbedtls_pk_write_key_der:len <- $r6
	@DEBUG_VALUE: mbedtls_pk_write_key_der:ret <- $r5
	@DEBUG_VALUE: mbedtls_pk_write_key_der:c <- [DW_OP_plus_uconst 32, DW_OP_deref] $sp
	@DEBUG_VALUE: mbedtls_pk_write_key_der:buf <- [DW_OP_LLVM_entry_value 1] $r1
	@DEBUG_VALUE: mbedtls_pk_write_key_der:key <- [DW_OP_LLVM_entry_value 1] $r0
	@DEBUG_VALUE: mbedtls_pk_write_key_der:size <- [DW_OP_LLVM_entry_value 1] $r2
	.loc	7 346 22                        @ ../../../ThirdParty/mbedTLS/library/pkwrite.c:346:22
	str	r7, [sp]
	str	r7, [sp, #4]
	add	r2, sp, #20
	ldr	r0, [sp, #12]                   @ 4-byte Reload
	mov	r1, r7
	mov	r3, r7
	bl	mbedtls_rsa_export
.Ltmp297:
	@DEBUG_VALUE: mbedtls_pk_write_key_der:ret <- $r0
	.loc	7 343 13                        @ ../../../ThirdParty/mbedTLS/library/pkwrite.c:343:13
	adds	r6, r5, r6
.Ltmp298:
	@DEBUG_VALUE: mbedtls_pk_write_key_der:len <- $r6
	.loc	7 347 68                        @ ../../../ThirdParty/mbedTLS/library/pkwrite.c:347:68
	cmp	r0, #0
	bne	.LBB7_37
.Ltmp299:
@ %bb.44:
	@DEBUG_VALUE: mbedtls_pk_write_key_der:len <- $r6
	@DEBUG_VALUE: mbedtls_pk_write_key_der:ret <- $r0
	@DEBUG_VALUE: mbedtls_pk_write_key_der:c <- [DW_OP_plus_uconst 32, DW_OP_deref] $sp
	@DEBUG_VALUE: mbedtls_pk_write_key_der:buf <- [DW_OP_LLVM_entry_value 1] $r1
	@DEBUG_VALUE: mbedtls_pk_write_key_der:key <- [DW_OP_LLVM_entry_value 1] $r0
	@DEBUG_VALUE: mbedtls_pk_write_key_der:size <- [DW_OP_LLVM_entry_value 1] $r2
	@DEBUG_VALUE: mbedtls_pk_write_key_der:c <- [DW_OP_plus_uconst 32, DW_OP_deref] $sp
	.loc	7 0 68 is_stmt 0                @ ../../../ThirdParty/mbedTLS/library/pkwrite.c:0:68
	add	r0, sp, #32
.Ltmp300:
	add	r2, sp, #20
	.loc	7 348 25 is_stmt 1              @ ../../../ThirdParty/mbedTLS/library/pkwrite.c:348:25
	ldr	r1, [sp, #16]                   @ 4-byte Reload
	bl	mbedtls_asn1_write_mpi
	mov	r5, r0
.Ltmp301:
	@DEBUG_VALUE: mbedtls_pk_write_key_der:ret <- $r5
	.loc	7 346 14                        @ ../../../ThirdParty/mbedTLS/library/pkwrite.c:346:14
	cmp	r0, #0
	bmi	.LBB7_47
.Ltmp302:
@ %bb.45:
	@DEBUG_VALUE: mbedtls_pk_write_key_der:len <- $r6
	@DEBUG_VALUE: mbedtls_pk_write_key_der:ret <- $r5
	@DEBUG_VALUE: mbedtls_pk_write_key_der:c <- [DW_OP_plus_uconst 32, DW_OP_deref] $sp
	@DEBUG_VALUE: mbedtls_pk_write_key_der:buf <- [DW_OP_LLVM_entry_value 1] $r1
	@DEBUG_VALUE: mbedtls_pk_write_key_der:key <- [DW_OP_LLVM_entry_value 1] $r0
	@DEBUG_VALUE: mbedtls_pk_write_key_der:size <- [DW_OP_LLVM_entry_value 1] $r2
	.loc	7 353 22                        @ ../../../ThirdParty/mbedTLS/library/pkwrite.c:353:22
	str	r7, [sp, #4]
	add	r0, sp, #20
	str	r0, [sp]
.Ltmp303:
	.loc	7 350 13                        @ ../../../ThirdParty/mbedTLS/library/pkwrite.c:350:13
	adds	r6, r5, r6
.Ltmp304:
	@DEBUG_VALUE: mbedtls_pk_write_key_der:len <- $r6
	.loc	7 0 13 is_stmt 0                @ ../../../ThirdParty/mbedTLS/library/pkwrite.c:0:13
	mov	r1, r7
	mov	r7, r6
.Ltmp305:
	@DEBUG_VALUE: mbedtls_pk_write_key_der:len <- $r7
	@DEBUG_VALUE: mbedtls_pk_write_key_der:len <- $r7
	.loc	7 353 22 is_stmt 1              @ ../../../ThirdParty/mbedTLS/library/pkwrite.c:353:22
	ldr	r0, [sp, #12]                   @ 4-byte Reload
	mov	r2, r1
	mov	r6, r1
	mov	r3, r1
	bl	mbedtls_rsa_export
.Ltmp306:
	@DEBUG_VALUE: mbedtls_pk_write_key_der:ret <- $r0
	.loc	7 354 66                        @ ../../../ThirdParty/mbedTLS/library/pkwrite.c:354:66
	cbz	r0, .LBB7_56
.Ltmp307:
.LBB7_46:
	@DEBUG_VALUE: mbedtls_pk_write_key_der:len <- $r7
	@DEBUG_VALUE: mbedtls_pk_write_key_der:ret <- $r0
	@DEBUG_VALUE: mbedtls_pk_write_key_der:c <- [DW_OP_plus_uconst 32, DW_OP_deref] $sp
	@DEBUG_VALUE: mbedtls_pk_write_key_der:buf <- [DW_OP_LLVM_entry_value 1] $r1
	@DEBUG_VALUE: mbedtls_pk_write_key_der:key <- [DW_OP_LLVM_entry_value 1] $r0
	@DEBUG_VALUE: mbedtls_pk_write_key_der:size <- [DW_OP_LLVM_entry_value 1] $r2
	.loc	7 0 66 is_stmt 0                @ ../../../ThirdParty/mbedTLS/library/pkwrite.c:0:66
	mov	r5, r0
.Ltmp308:
	@DEBUG_VALUE: mbedtls_pk_write_key_der:ret <- $r5
	b	.LBB7_3
.Ltmp309:
.LBB7_47:
	@DEBUG_VALUE: mbedtls_pk_write_key_der:len <- $r6
	@DEBUG_VALUE: mbedtls_pk_write_key_der:ret <- $r5
	@DEBUG_VALUE: mbedtls_pk_write_key_der:c <- [DW_OP_plus_uconst 32, DW_OP_deref] $sp
	@DEBUG_VALUE: mbedtls_pk_write_key_der:buf <- [DW_OP_LLVM_entry_value 1] $r1
	@DEBUG_VALUE: mbedtls_pk_write_key_der:key <- [DW_OP_LLVM_entry_value 1] $r0
	@DEBUG_VALUE: mbedtls_pk_write_key_der:size <- [DW_OP_LLVM_entry_value 1] $r2
	mov	r7, r6
.Ltmp310:
	@DEBUG_VALUE: mbedtls_pk_write_key_der:len <- $r7
	b	.LBB7_3
.Ltmp311:
.LBB7_48:
	@DEBUG_VALUE: mbedtls_pk_write_key_der:buf <- $r4
	@DEBUG_VALUE: mbedtls_pk_write_key_der:ret <- $r0
	@DEBUG_VALUE: ec <- [DW_OP_plus_uconst 16] [$sp+0]
	@DEBUG_VALUE: mbedtls_pk_write_key_der:c <- [DW_OP_plus_uconst 32, DW_OP_deref] $sp
	@DEBUG_VALUE: par_len <- 0
	@DEBUG_VALUE: mbedtls_pk_write_key_der:key <- [DW_OP_LLVM_entry_value 1] $r0
	@DEBUG_VALUE: mbedtls_pk_write_key_der:size <- [DW_OP_LLVM_entry_value 1] $r2
	@DEBUG_VALUE: mbedtls_pk_write_key_der:len <- 0
	mov	r6, r7
.Ltmp312:
.LBB7_49:
	@DEBUG_VALUE: mbedtls_pk_write_key_der:buf <- $r4
	@DEBUG_VALUE: mbedtls_pk_write_key_der:ret <- $r0
	@DEBUG_VALUE: ec <- [DW_OP_plus_uconst 16] [$sp+0]
	@DEBUG_VALUE: mbedtls_pk_write_key_der:c <- [DW_OP_plus_uconst 32, DW_OP_deref] $sp
	@DEBUG_VALUE: mbedtls_pk_write_key_der:key <- [DW_OP_LLVM_entry_value 1] $r0
	@DEBUG_VALUE: mbedtls_pk_write_key_der:size <- [DW_OP_LLVM_entry_value 1] $r2
	mov	r5, r0
.Ltmp313:
	@DEBUG_VALUE: mbedtls_pk_write_key_der:ret <- $r5
.LBB7_50:
	@DEBUG_VALUE: mbedtls_pk_write_key_der:buf <- $r4
	@DEBUG_VALUE: ec <- [DW_OP_plus_uconst 16] [$sp+0]
	@DEBUG_VALUE: mbedtls_pk_write_key_der:key <- [DW_OP_LLVM_entry_value 1] $r0
	@DEBUG_VALUE: mbedtls_pk_write_key_der:size <- [DW_OP_LLVM_entry_value 1] $r2
	@DEBUG_VALUE: mbedtls_pk_write_key_der:len <- $r6
	cbz	r7, .LBB7_52
.Ltmp314:
.LBB7_51:
	@DEBUG_VALUE: mbedtls_pk_write_key_der:len <- $r6
	@DEBUG_VALUE: mbedtls_pk_write_key_der:key <- [DW_OP_LLVM_entry_value 1] $r0
	@DEBUG_VALUE: mbedtls_pk_write_key_der:size <- [DW_OP_LLVM_entry_value 1] $r2
	@DEBUG_VALUE: mbedtls_pk_write_key_der:len <- $r6
	mov	r5, r6
.Ltmp315:
	@DEBUG_VALUE: mbedtls_pk_write_key_der:len <- $r5
	@DEBUG_VALUE: mbedtls_pk_write_key_der:len <- $r5
.LBB7_52:
	.loc	7 444 1 is_stmt 1               @ ../../../ThirdParty/mbedTLS/library/pkwrite.c:444:1
	mov	r0, r5
	add	sp, #36
	pop	{r4, r5, r6, r7, pc}
.LBB7_53:
.Ltmp316:
	@DEBUG_VALUE: mbedtls_pk_write_key_der:len <- $r6
	@DEBUG_VALUE: pub_len <- $r6
	@DEBUG_VALUE: mbedtls_pk_write_key_der:buf <- $r4
	@DEBUG_VALUE: mbedtls_pk_write_key_der:ret <- $r2
	@DEBUG_VALUE: ec <- [DW_OP_plus_uconst 16] [$sp+0]
	@DEBUG_VALUE: mbedtls_pk_write_key_der:c <- [DW_OP_plus_uconst 32, DW_OP_deref] $sp
	@DEBUG_VALUE: par_len <- 0
	@DEBUG_VALUE: mbedtls_pk_write_key_der:key <- [DW_OP_LLVM_entry_value 1] $r0
	@DEBUG_VALUE: mbedtls_pk_write_key_der:size <- [DW_OP_LLVM_entry_value 1] $r2
	.loc	7 0 1 is_stmt 0                 @ ../../../ThirdParty/mbedTLS/library/pkwrite.c:0:1
	mov	r5, r2
.Ltmp317:
	@DEBUG_VALUE: mbedtls_pk_write_key_der:ret <- $r5
	b	.LBB7_50
.Ltmp318:
.LBB7_54:
	@DEBUG_VALUE: mbedtls_pk_write_key_der:ret <- $r7
	@DEBUG_VALUE: mbedtls_pk_write_key_der:len <- $r6
	@DEBUG_VALUE: mbedtls_pk_write_key_der:buf <- $r4
	@DEBUG_VALUE: ec <- [DW_OP_plus_uconst 16] [$sp+0]
	@DEBUG_VALUE: mbedtls_pk_write_key_der:c <- [DW_OP_plus_uconst 32, DW_OP_deref] $sp
	@DEBUG_VALUE: mbedtls_pk_write_key_der:key <- [DW_OP_LLVM_entry_value 1] $r0
	@DEBUG_VALUE: mbedtls_pk_write_key_der:size <- [DW_OP_LLVM_entry_value 1] $r2
	mov	r5, r7
.Ltmp319:
	@DEBUG_VALUE: mbedtls_pk_write_key_der:ret <- $r5
.LBB7_55:
	@DEBUG_VALUE: mbedtls_pk_write_key_der:len <- $r6
	@DEBUG_VALUE: mbedtls_pk_write_key_der:ret <- $r5
	@DEBUG_VALUE: mbedtls_pk_write_key_der:buf <- $r4
	@DEBUG_VALUE: ec <- [DW_OP_plus_uconst 16] [$sp+0]
	@DEBUG_VALUE: mbedtls_pk_write_key_der:c <- [DW_OP_plus_uconst 32, DW_OP_deref] $sp
	@DEBUG_VALUE: mbedtls_pk_write_key_der:key <- [DW_OP_LLVM_entry_value 1] $r0
	@DEBUG_VALUE: mbedtls_pk_write_key_der:size <- [DW_OP_LLVM_entry_value 1] $r2
	ldr	r7, [sp, #8]                    @ 4-byte Reload
	b	.LBB7_50
.Ltmp320:
.LBB7_56:
	@DEBUG_VALUE: mbedtls_pk_write_key_der:len <- $r7
	@DEBUG_VALUE: mbedtls_pk_write_key_der:ret <- $r0
	@DEBUG_VALUE: mbedtls_pk_write_key_der:c <- [DW_OP_plus_uconst 32, DW_OP_deref] $sp
	@DEBUG_VALUE: mbedtls_pk_write_key_der:buf <- [DW_OP_LLVM_entry_value 1] $r1
	@DEBUG_VALUE: mbedtls_pk_write_key_der:key <- [DW_OP_LLVM_entry_value 1] $r0
	@DEBUG_VALUE: mbedtls_pk_write_key_der:size <- [DW_OP_LLVM_entry_value 1] $r2
	@DEBUG_VALUE: mbedtls_pk_write_key_der:c <- [DW_OP_plus_uconst 32, DW_OP_deref] $sp
	add	r0, sp, #32
.Ltmp321:
	add	r2, sp, #20
.Ltmp322:
	.loc	7 355 25 is_stmt 1              @ ../../../ThirdParty/mbedTLS/library/pkwrite.c:355:25
	ldr	r1, [sp, #16]                   @ 4-byte Reload
	bl	mbedtls_asn1_write_mpi
	mov	r5, r0
.Ltmp323:
	@DEBUG_VALUE: mbedtls_pk_write_key_der:ret <- $r5
	.loc	7 353 14                        @ ../../../ThirdParty/mbedTLS/library/pkwrite.c:353:14
	cmp	r0, #0
	bpl	.LBB7_57
	b	.LBB7_3
.Ltmp324:
.LBB7_57:
	@DEBUG_VALUE: mbedtls_pk_write_key_der:len <- $r7
	@DEBUG_VALUE: mbedtls_pk_write_key_der:ret <- $r5
	@DEBUG_VALUE: mbedtls_pk_write_key_der:c <- [DW_OP_plus_uconst 32, DW_OP_deref] $sp
	@DEBUG_VALUE: mbedtls_pk_write_key_der:buf <- [DW_OP_LLVM_entry_value 1] $r1
	@DEBUG_VALUE: mbedtls_pk_write_key_der:key <- [DW_OP_LLVM_entry_value 1] $r0
	@DEBUG_VALUE: mbedtls_pk_write_key_der:size <- [DW_OP_LLVM_entry_value 1] $r2
	.loc	7 0 14 is_stmt 0                @ ../../../ThirdParty/mbedTLS/library/pkwrite.c:0:14
	add	r0, sp, #20
	mov	r1, r6
.Ltmp325:
	.loc	7 360 22 is_stmt 1              @ ../../../ThirdParty/mbedTLS/library/pkwrite.c:360:22
	str	r6, [sp]
	str	r0, [sp, #4]
.Ltmp326:
	.loc	7 357 13                        @ ../../../ThirdParty/mbedTLS/library/pkwrite.c:357:13
	adds	r7, r5, r7
.Ltmp327:
	@DEBUG_VALUE: mbedtls_pk_write_key_der:len <- $r7
	@DEBUG_VALUE: mbedtls_pk_write_key_der:len <- $r7
	.loc	7 360 22                        @ ../../../ThirdParty/mbedTLS/library/pkwrite.c:360:22
	ldr	r0, [sp, #12]                   @ 4-byte Reload
	mov	r2, r6
	mov	r3, r6
	bl	mbedtls_rsa_export
.Ltmp328:
	@DEBUG_VALUE: mbedtls_pk_write_key_der:ret <- $r0
	.loc	7 361 66                        @ ../../../ThirdParty/mbedTLS/library/pkwrite.c:361:66
	cmp	r0, #0
	bne	.LBB7_46
.Ltmp329:
@ %bb.58:
	@DEBUG_VALUE: mbedtls_pk_write_key_der:len <- $r7
	@DEBUG_VALUE: mbedtls_pk_write_key_der:ret <- $r0
	@DEBUG_VALUE: mbedtls_pk_write_key_der:c <- [DW_OP_plus_uconst 32, DW_OP_deref] $sp
	@DEBUG_VALUE: mbedtls_pk_write_key_der:buf <- [DW_OP_LLVM_entry_value 1] $r1
	@DEBUG_VALUE: mbedtls_pk_write_key_der:key <- [DW_OP_LLVM_entry_value 1] $r0
	@DEBUG_VALUE: mbedtls_pk_write_key_der:size <- [DW_OP_LLVM_entry_value 1] $r2
	@DEBUG_VALUE: mbedtls_pk_write_key_der:c <- [DW_OP_plus_uconst 32, DW_OP_deref] $sp
	.loc	7 0 66 is_stmt 0                @ ../../../ThirdParty/mbedTLS/library/pkwrite.c:0:66
	add	r0, sp, #32
.Ltmp330:
	add	r2, sp, #20
	.loc	7 362 25 is_stmt 1              @ ../../../ThirdParty/mbedTLS/library/pkwrite.c:362:25
	ldr	r1, [sp, #16]                   @ 4-byte Reload
	bl	mbedtls_asn1_write_mpi
	mov	r5, r0
.Ltmp331:
	@DEBUG_VALUE: mbedtls_pk_write_key_der:ret <- $r5
	.loc	7 360 14                        @ ../../../ThirdParty/mbedTLS/library/pkwrite.c:360:14
	cmp	r0, #0
	bpl	.LBB7_59
	b	.LBB7_3
.Ltmp332:
.LBB7_59:
	@DEBUG_VALUE: mbedtls_pk_write_key_der:len <- $r7
	@DEBUG_VALUE: mbedtls_pk_write_key_der:ret <- $r5
	@DEBUG_VALUE: mbedtls_pk_write_key_der:c <- [DW_OP_plus_uconst 32, DW_OP_deref] $sp
	@DEBUG_VALUE: mbedtls_pk_write_key_der:buf <- [DW_OP_LLVM_entry_value 1] $r1
	@DEBUG_VALUE: mbedtls_pk_write_key_der:key <- [DW_OP_LLVM_entry_value 1] $r0
	@DEBUG_VALUE: mbedtls_pk_write_key_der:size <- [DW_OP_LLVM_entry_value 1] $r2
	.loc	7 0 14 is_stmt 0                @ ../../../ThirdParty/mbedTLS/library/pkwrite.c:0:14
	ldr	r2, [sp, #8]                    @ 4-byte Reload
.Ltmp333:
	.loc	7 367 22 is_stmt 1              @ ../../../ThirdParty/mbedTLS/library/pkwrite.c:367:22
	str	r2, [sp]
	str	r2, [sp, #4]
	add	r1, sp, #20
	ldr	r0, [sp, #12]                   @ 4-byte Reload
	mov	r3, r2
	bl	mbedtls_rsa_export
.Ltmp334:
	@DEBUG_VALUE: mbedtls_pk_write_key_der:ret <- $r0
	.loc	7 364 13                        @ ../../../ThirdParty/mbedTLS/library/pkwrite.c:364:13
	adds	r7, r5, r7
.Ltmp335:
	@DEBUG_VALUE: mbedtls_pk_write_key_der:len <- $r7
	.loc	7 368 68                        @ ../../../ThirdParty/mbedTLS/library/pkwrite.c:368:68
	cmp	r0, #0
	bne	.LBB7_46
.Ltmp336:
@ %bb.60:
	@DEBUG_VALUE: mbedtls_pk_write_key_der:len <- $r7
	@DEBUG_VALUE: mbedtls_pk_write_key_der:ret <- $r0
	@DEBUG_VALUE: mbedtls_pk_write_key_der:c <- [DW_OP_plus_uconst 32, DW_OP_deref] $sp
	@DEBUG_VALUE: mbedtls_pk_write_key_der:buf <- [DW_OP_LLVM_entry_value 1] $r1
	@DEBUG_VALUE: mbedtls_pk_write_key_der:key <- [DW_OP_LLVM_entry_value 1] $r0
	@DEBUG_VALUE: mbedtls_pk_write_key_der:size <- [DW_OP_LLVM_entry_value 1] $r2
	@DEBUG_VALUE: mbedtls_pk_write_key_der:c <- [DW_OP_plus_uconst 32, DW_OP_deref] $sp
	.loc	7 0 68 is_stmt 0                @ ../../../ThirdParty/mbedTLS/library/pkwrite.c:0:68
	add	r0, sp, #32
.Ltmp337:
	add	r2, sp, #20
	.loc	7 369 25 is_stmt 1              @ ../../../ThirdParty/mbedTLS/library/pkwrite.c:369:25
	ldr	r1, [sp, #16]                   @ 4-byte Reload
	bl	mbedtls_asn1_write_mpi
	mov	r5, r0
.Ltmp338:
	@DEBUG_VALUE: mbedtls_pk_write_key_der:ret <- $r5
	.loc	7 367 14                        @ ../../../ThirdParty/mbedTLS/library/pkwrite.c:367:14
	cmp	r0, #0
	bgt	.LBB7_61
	b	.LBB7_3
.Ltmp339:
.LBB7_61:
	@DEBUG_VALUE: mbedtls_pk_write_key_der:len <- $r7
	@DEBUG_VALUE: mbedtls_pk_write_key_der:ret <- $r5
	@DEBUG_VALUE: mbedtls_pk_write_key_der:c <- [DW_OP_plus_uconst 32, DW_OP_deref] $sp
	@DEBUG_VALUE: mbedtls_pk_write_key_der:buf <- [DW_OP_LLVM_entry_value 1] $r1
	@DEBUG_VALUE: mbedtls_pk_write_key_der:key <- [DW_OP_LLVM_entry_value 1] $r0
	@DEBUG_VALUE: mbedtls_pk_write_key_der:size <- [DW_OP_LLVM_entry_value 1] $r2
	.loc	7 0 14 is_stmt 0                @ ../../../ThirdParty/mbedTLS/library/pkwrite.c:0:14
	adds	r7, r7, r5
.Ltmp340:
	b	.LBB7_3
.Ltmp341:
	.p2align	2
@ %bb.62:
__arm_cp.7_0:
	.long	4294952576                      @ 0xffffc680
.Lcpi_end1:
	.size	__arm_cp.7_0, .Lcpi_end1-__arm_cp.7_0
.Lfunc_end7:
	.size	mbedtls_pk_write_key_der, .Lfunc_end7-mbedtls_pk_write_key_der
	.cfi_endproc
	.cantunwind
	.fnend
                                        @ -- End function
	.section	.text.mbedtls_pk_write_pubkey_pem,"ax",%progbits
	.hidden	mbedtls_pk_write_pubkey_pem     @ -- Begin function mbedtls_pk_write_pubkey_pem
	.globl	mbedtls_pk_write_pubkey_pem
	.p2align	2
	.type	mbedtls_pk_write_pubkey_pem,%function
	.code	16                              @ @mbedtls_pk_write_pubkey_pem
	.thumb_func
mbedtls_pk_write_pubkey_pem:
.Lfunc_begin8:
	.loc	7 540 0 is_stmt 1               @ ../../../ThirdParty/mbedTLS/library/pkwrite.c:540:0
	.fnstart
	.cfi_startproc
@ %bb.0:
	@DEBUG_VALUE: mbedtls_pk_write_pubkey_pem:key <- $r0
	@DEBUG_VALUE: mbedtls_pk_write_pubkey_pem:buf <- $r1
	@DEBUG_VALUE: mbedtls_pk_write_pubkey_pem:size <- $r2
	.save	{r4, r5, r6, lr}
	push	{r4, r5, r6, lr}
	.cfi_def_cfa_offset 16
	.cfi_offset lr, -4
	.cfi_offset r6, -8
	.cfi_offset r5, -12
	.cfi_offset r4, -16
	ldr	r6, __arm_cp.8_3
	.pad	#2112
	add	sp, r6
	.cfi_def_cfa_offset 2128
	mov	r4, r2
	mov	r5, r1
	movs	r1, #0
.Ltmp342:
	@DEBUG_VALUE: mbedtls_pk_write_pubkey_pem:buf <- [DW_OP_LLVM_entry_value 1] $r1
	@DEBUG_VALUE: mbedtls_pk_write_pubkey_pem:olen <- 0
	@DEBUG_VALUE: mbedtls_pk_write_pubkey_pem:size <- $r4
	@DEBUG_VALUE: mbedtls_pk_write_pubkey_pem:buf <- $r5
	@DEBUG_VALUE: mbedtls_pk_write_pubkey_pem:key <- $r0
	.loc	7 543 12 prologue_end           @ ../../../ThirdParty/mbedTLS/library/pkwrite.c:543:12
	str	r1, [sp, #20]
	add	r1, sp, #24
	ldr	r6, __arm_cp.8_0
	@DEBUG_VALUE: mbedtls_pk_write_pubkey_pem:key <- $r0
.Ltmp343:
	.loc	7 548 17                        @ ../../../ThirdParty/mbedTLS/library/pkwrite.c:548:17
	mov	r2, r6
	bl	mbedtls_pk_write_pubkey_der
.Ltmp344:
	@DEBUG_VALUE: mbedtls_pk_write_pubkey_pem:key <- [DW_OP_LLVM_entry_value 1] $r0
	mov	r3, r0
.Ltmp345:
	@DEBUG_VALUE: mbedtls_pk_write_pubkey_pem:ret <- $r3
	.loc	7 548 9 is_stmt 0               @ ../../../ThirdParty/mbedTLS/library/pkwrite.c:548:9
	cmp	r0, #0
	bmi	.LBB8_2
.Ltmp346:
@ %bb.1:
	@DEBUG_VALUE: mbedtls_pk_write_pubkey_pem:buf <- $r5
	@DEBUG_VALUE: mbedtls_pk_write_pubkey_pem:size <- $r4
	@DEBUG_VALUE: mbedtls_pk_write_pubkey_pem:ret <- $r3
	@DEBUG_VALUE: mbedtls_pk_write_pubkey_pem:key <- [DW_OP_LLVM_entry_value 1] $r0
	@DEBUG_VALUE: mbedtls_pk_write_pubkey_pem:olen <- 0
	@DEBUG_VALUE: mbedtls_pk_write_pubkey_pem:olen <- [DW_OP_plus_uconst 20, DW_OP_deref] $sp
	.loc	7 0 9                           @ ../../../ThirdParty/mbedTLS/library/pkwrite.c:0:9
	add	r0, sp, #20
.Ltmp347:
	.loc	7 554 17 is_stmt 1              @ ../../../ThirdParty/mbedTLS/library/pkwrite.c:554:17
	str	r5, [sp]
	str	r4, [sp, #4]
	str	r0, [sp, #8]
	add	r0, sp, #24
	.loc	7 555 54                        @ ../../../ThirdParty/mbedTLS/library/pkwrite.c:555:54
	adds	r0, r0, r6
	.loc	7 555 75 is_stmt 0              @ ../../../ThirdParty/mbedTLS/library/pkwrite.c:555:75
	subs	r2, r0, r3
	.loc	7 554 17 is_stmt 1              @ ../../../ThirdParty/mbedTLS/library/pkwrite.c:554:17
	adr	r0, .LCPI8_1
	adr	r1, .LCPI8_2
	bl	mbedtls_pem_write_buffer
.Ltmp348:
	mov	r3, r0
.Ltmp349:
	@DEBUG_VALUE: mbedtls_pk_write_pubkey_pem:ret <- $r3
.LBB8_2:
	@DEBUG_VALUE: mbedtls_pk_write_pubkey_pem:buf <- $r5
	@DEBUG_VALUE: mbedtls_pk_write_pubkey_pem:size <- $r4
	@DEBUG_VALUE: mbedtls_pk_write_pubkey_pem:ret <- $r3
	@DEBUG_VALUE: mbedtls_pk_write_pubkey_pem:key <- [DW_OP_LLVM_entry_value 1] $r0
	.loc	7 562 1                         @ ../../../ThirdParty/mbedTLS/library/pkwrite.c:562:1
	mov	r0, r3
	ldr	r6, __arm_cp.8_4
	add	sp, r6
	pop	{r4, r5, r6, pc}
.Ltmp350:
	.p2align	2
@ %bb.3:
	.loc	7 0 1 is_stmt 0                 @ ../../../ThirdParty/mbedTLS/library/pkwrite.c:0:1
__arm_cp.8_0:
	.long	2086                            @ 0x826
.Lcpi_end2:
	.size	__arm_cp.8_0, .Lcpi_end2-__arm_cp.8_0
.LCPI8_1:
.L.str:
	.asciz	"-----BEGIN PUBLIC KEY-----\n"
.LCPI8_2:
.L.str.1:
	.asciz	"-----END PUBLIC KEY-----\n\000\000"
__arm_cp.8_3:
	.long	4294965184                      @ 0xfffff7c0
.Lcpi_end3:
	.size	__arm_cp.8_3, .Lcpi_end3-__arm_cp.8_3
__arm_cp.8_4:
	.long	2112                            @ 0x840
.Lcpi_end4:
	.size	__arm_cp.8_4, .Lcpi_end4-__arm_cp.8_4
.Lfunc_end8:
	.size	mbedtls_pk_write_pubkey_pem, .Lfunc_end8-mbedtls_pk_write_pubkey_pem
	.cfi_endproc
	.cantunwind
	.fnend
                                        @ -- End function
	.section	.text.mbedtls_pk_write_key_pem,"ax",%progbits
	.hidden	mbedtls_pk_write_key_pem        @ -- Begin function mbedtls_pk_write_key_pem
	.globl	mbedtls_pk_write_key_pem
	.p2align	2
	.type	mbedtls_pk_write_key_pem,%function
	.code	16                              @ @mbedtls_pk_write_key_pem
	.thumb_func
mbedtls_pk_write_key_pem:
.Lfunc_begin9:
	.loc	7 565 0 is_stmt 1               @ ../../../ThirdParty/mbedTLS/library/pkwrite.c:565:0
	.fnstart
	.cfi_startproc
@ %bb.0:
	@DEBUG_VALUE: mbedtls_pk_write_key_pem:key <- $r0
	@DEBUG_VALUE: mbedtls_pk_write_key_pem:buf <- $r1
	@DEBUG_VALUE: mbedtls_pk_write_key_pem:size <- $r2
	.save	{r4, r5, r6, r7, lr}
	push	{r4, r5, r6, r7, lr}
	.cfi_def_cfa_offset 20
	.cfi_offset lr, -4
	.cfi_offset r7, -8
	.cfi_offset r6, -12
	.cfi_offset r5, -16
	.cfi_offset r4, -20
	ldr	r7, __arm_cp.9_6
	.pad	#5700
	add	sp, r7
	.cfi_def_cfa_offset 5720
	mov	r5, r2
	mov	r6, r1
	mov	r7, r0
	movs	r0, #0
.Ltmp351:
	@DEBUG_VALUE: mbedtls_pk_write_key_pem:key <- [DW_OP_LLVM_entry_value 1] $r0
	@DEBUG_VALUE: mbedtls_pk_write_key_pem:olen <- 0
	@DEBUG_VALUE: mbedtls_pk_write_key_pem:size <- $r5
	@DEBUG_VALUE: mbedtls_pk_write_key_pem:buf <- $r6
	@DEBUG_VALUE: mbedtls_pk_write_key_pem:key <- $r7
	.loc	7 569 12 prologue_end           @ ../../../ThirdParty/mbedTLS/library/pkwrite.c:569:12
	str	r0, [sp, #16]
	add	r1, sp, #20
	ldr	r2, __arm_cp.9_0
.Ltmp352:
	.loc	7 574 17                        @ ../../../ThirdParty/mbedTLS/library/pkwrite.c:574:17
	mov	r0, r7
	bl	mbedtls_pk_write_key_der
	mov	r4, r0
.Ltmp353:
	@DEBUG_VALUE: mbedtls_pk_write_key_pem:ret <- $r4
	.loc	7 574 9 is_stmt 0               @ ../../../ThirdParty/mbedTLS/library/pkwrite.c:574:9
	cmp	r0, #0
	bmi	.LBB9_7
.Ltmp354:
@ %bb.1:
	@DEBUG_VALUE: mbedtls_pk_write_key_pem:key <- $r7
	@DEBUG_VALUE: mbedtls_pk_write_key_pem:buf <- $r6
	@DEBUG_VALUE: mbedtls_pk_write_key_pem:size <- $r5
	@DEBUG_VALUE: mbedtls_pk_write_key_pem:ret <- $r4
	@DEBUG_VALUE: mbedtls_pk_write_key_pem:olen <- 0
	.loc	7 578 9 is_stmt 1               @ ../../../ThirdParty/mbedTLS/library/pkwrite.c:578:9
	mov	r0, r7
	bl	mbedtls_pk_get_type
.Ltmp355:
	.loc	7 578 9 is_stmt 0               @ ../../../ThirdParty/mbedTLS/library/pkwrite.c:578:9
	cmp	r0, #1
	bne	.LBB9_3
.Ltmp356:
@ %bb.2:
	@DEBUG_VALUE: mbedtls_pk_write_key_pem:key <- $r7
	@DEBUG_VALUE: mbedtls_pk_write_key_pem:buf <- $r6
	@DEBUG_VALUE: mbedtls_pk_write_key_pem:size <- $r5
	@DEBUG_VALUE: mbedtls_pk_write_key_pem:ret <- $r4
	@DEBUG_VALUE: mbedtls_pk_write_key_pem:olen <- 0
	.loc	7 0 9                           @ ../../../ThirdParty/mbedTLS/library/pkwrite.c:0:9
	ldr	r1, __arm_cp.9_1
	ldr	r0, __arm_cp.9_2
	b	.LBB9_5
.Ltmp357:
.LBB9_3:
	@DEBUG_VALUE: mbedtls_pk_write_key_pem:key <- $r7
	@DEBUG_VALUE: mbedtls_pk_write_key_pem:buf <- $r6
	@DEBUG_VALUE: mbedtls_pk_write_key_pem:size <- $r5
	@DEBUG_VALUE: mbedtls_pk_write_key_pem:ret <- $r4
	@DEBUG_VALUE: mbedtls_pk_write_key_pem:olen <- 0
	.loc	7 586 13 is_stmt 1              @ ../../../ThirdParty/mbedTLS/library/pkwrite.c:586:13
	mov	r0, r7
	bl	mbedtls_pk_get_type
.Ltmp358:
	.loc	7 586 13 is_stmt 0              @ ../../../ThirdParty/mbedTLS/library/pkwrite.c:586:13
	cmp	r0, #2
	bne	.LBB9_6
.Ltmp359:
@ %bb.4:
	@DEBUG_VALUE: mbedtls_pk_write_key_pem:key <- $r7
	@DEBUG_VALUE: mbedtls_pk_write_key_pem:buf <- $r6
	@DEBUG_VALUE: mbedtls_pk_write_key_pem:size <- $r5
	@DEBUG_VALUE: mbedtls_pk_write_key_pem:ret <- $r4
	@DEBUG_VALUE: mbedtls_pk_write_key_pem:olen <- 0
	.loc	7 0 13                          @ ../../../ThirdParty/mbedTLS/library/pkwrite.c:0:13
	adr	r1, .LCPI9_4
	adr	r0, .LCPI9_5
.Ltmp360:
.LBB9_5:
	@DEBUG_VALUE: mbedtls_pk_write_key_pem:key <- $r7
	@DEBUG_VALUE: mbedtls_pk_write_key_pem:buf <- $r6
	@DEBUG_VALUE: mbedtls_pk_write_key_pem:size <- $r5
	@DEBUG_VALUE: mbedtls_pk_write_key_pem:ret <- $r4
	@DEBUG_VALUE: mbedtls_pk_write_key_pem:olen <- 0
	@DEBUG_VALUE: mbedtls_pk_write_key_pem:olen <- [DW_OP_plus_uconst 16, DW_OP_deref] $sp
	@DEBUG_VALUE: mbedtls_pk_write_key_pem:end <- $r1
	@DEBUG_VALUE: mbedtls_pk_write_key_pem:begin <- $r0
	add	r2, sp, #16
.Ltmp361:
	.loc	7 595 17 is_stmt 1              @ ../../../ThirdParty/mbedTLS/library/pkwrite.c:595:17
	str	r6, [sp]
	str	r5, [sp, #4]
	str	r2, [sp, #8]
	add	r2, sp, #20
	.loc	7 596 54                        @ ../../../ThirdParty/mbedTLS/library/pkwrite.c:596:54
	ldr	r3, __arm_cp.9_0
	adds	r2, r2, r3
	.loc	7 596 75 is_stmt 0              @ ../../../ThirdParty/mbedTLS/library/pkwrite.c:596:75
	subs	r2, r2, r4
	.loc	7 595 17 is_stmt 1              @ ../../../ThirdParty/mbedTLS/library/pkwrite.c:595:17
	mov	r3, r4
	bl	mbedtls_pem_write_buffer
.Ltmp362:
	mov	r4, r0
.Ltmp363:
	@DEBUG_VALUE: mbedtls_pk_write_key_pem:ret <- $r4
	.loc	7 0 17 is_stmt 0                @ ../../../ThirdParty/mbedTLS/library/pkwrite.c:0:17
	b	.LBB9_7
.Ltmp364:
.LBB9_6:
	@DEBUG_VALUE: mbedtls_pk_write_key_pem:key <- $r7
	@DEBUG_VALUE: mbedtls_pk_write_key_pem:buf <- $r6
	@DEBUG_VALUE: mbedtls_pk_write_key_pem:size <- $r5
	@DEBUG_VALUE: mbedtls_pk_write_key_pem:ret <- $r4
	@DEBUG_VALUE: mbedtls_pk_write_key_pem:olen <- 0
	ldr	r4, __arm_cp.9_3
.Ltmp365:
.LBB9_7:
	@DEBUG_VALUE: mbedtls_pk_write_key_pem:key <- $r7
	@DEBUG_VALUE: mbedtls_pk_write_key_pem:buf <- $r6
	@DEBUG_VALUE: mbedtls_pk_write_key_pem:size <- $r5
	.loc	7 603 1 is_stmt 1               @ ../../../ThirdParty/mbedTLS/library/pkwrite.c:603:1
	mov	r0, r4
	ldr	r7, __arm_cp.9_7
.Ltmp366:
	add	sp, r7
	pop	{r4, r5, r6, r7, pc}
.Ltmp367:
	.p2align	2
@ %bb.8:
	.loc	7 0 1 is_stmt 0                 @ ../../../ThirdParty/mbedTLS/library/pkwrite.c:0:1
__arm_cp.9_0:
	.long	5679                            @ 0x162f
.Lcpi_end5:
	.size	__arm_cp.9_0, .Lcpi_end5-__arm_cp.9_0
__arm_cp.9_1:
	.long	.L.str.3
.Lcpi_end6:
	.size	__arm_cp.9_1, .Lcpi_end6-__arm_cp.9_1
__arm_cp.9_2:
	.long	.L.str.2
.Lcpi_end7:
	.size	__arm_cp.9_2, .Lcpi_end7-__arm_cp.9_2
__arm_cp.9_3:
	.long	4294952576                      @ 0xffffc680
.Lcpi_end8:
	.size	__arm_cp.9_3, .Lcpi_end8-__arm_cp.9_3
.LCPI9_4:
.L.str.5:
	.asciz	"-----END EC PRIVATE KEY-----\n\000\000"
.LCPI9_5:
.L.str.4:
	.asciz	"-----BEGIN EC PRIVATE KEY-----\n"
__arm_cp.9_6:
	.long	4294961596                      @ 0xffffe9bc
.Lcpi_end9:
	.size	__arm_cp.9_6, .Lcpi_end9-__arm_cp.9_6
__arm_cp.9_7:
	.long	5700                            @ 0x1644
.Lcpi_end10:
	.size	__arm_cp.9_7, .Lcpi_end10-__arm_cp.9_7
.Lfunc_end9:
	.size	mbedtls_pk_write_key_pem, .Lfunc_end9-mbedtls_pk_write_key_pem
	.cfi_endproc
	.cantunwind
	.fnend
                                        @ -- End function
	.type	.L.str.2,%object                @ @.str.2
	.section	.rodata.str1.1,"aMS",%progbits,1
.L.str.2:
	.asciz	"-----BEGIN RSA PRIVATE KEY-----\n"
	.size	.L.str.2, 33

	.type	.L.str.3,%object                @ @.str.3
.L.str.3:
	.asciz	"-----END RSA PRIVATE KEY-----\n"
	.size	.L.str.3, 31

	.section	".note.GNU-stack","",%progbits
	.eabi_attribute	30, 1	@ Tag_ABI_optimization_goals
	.ARM_attribute	16, 1	@ Tag_AV_eba