	.text
	.syntax unified
	.eabi_attribute	67, "2.09"	@ Tag_conformance
	.cpu	cortex-m23
	.eabi_attribute	6, 16	@ Tag_CPU_arch
	.eabi_attribute	7, 77	@ Tag_CPU_arch_profile
	.eabi_attribute	8, 0	@ Tag_ARM_ISA_use
	.eabi_attribute	9, 3	@ Tag_THUMB_ISA_use
	.eabi_attribute	34, 0	@ Tag_CPU_unaligned_access
	.eabi_attribute	17, 1	@ Tag_ABI_PCS_GOT_use
	.eabi_attribute	20, 2	@ Tag_ABI_FP_denormal
	.eabi_attribute	21, 0	@ Tag_ABI_FP_exceptions
	.eabi_attribute	23, 1	@ Tag_ABI_FP_number_model
	.eabi_attribute	24, 1	@ Tag_ABI_align_needed
	.eabi_attribute	25, 1	@ Tag_ABI_align_preserved
	.eabi_attribute	38, 1	@ Tag_ABI_FP_16bit_format
	.eabi_attribute	18, 2	@ Tag_ABI_PCS_wchar_t
	.eabi_attribute	26, 1	@ Tag_ABI_enum_size
	.eabi_attribute	14, 0	@ Tag_ABI_PCS_R9_use
	.file	"ripemd160.c"
	.file	1 "C:\\Users\\shw26\\OneDrive\\Desktop\\2021\\2021-1\\\354\272\241\354\212\244\355\206\244\353\224\224\354\236\220\354\235\2702\\Nuvoton\\M2351_BSP_v3.00.004\\M2351Series_BSP_CMSIS_V3.00.004\\MyProject\\PulseMonitoring\\Secure" "../../../ThirdParty/mbedTLS/library/ripemd160.c"
	.file	2 "C:\\" "Keil_v5\\ARM\\ARMCLANG\\Bin\\..\\include\\stddef.h"
	.file	3 "C:\\" "Keil_v5\\ARM\\ARMCLANG\\Bin\\..\\include\\stdint.h"
	.section	.text.mbedtls_ripemd160_init,"ax",%progbits
	.hidden	mbedtls_ripemd160_init          @ -- Begin function mbedtls_ripemd160_init
	.globl	mbedtls_ripemd160_init
	.p2align	1
	.type	mbedtls_ripemd160_init,%function
	.code	16                              @ @mbedtls_ripemd160_init
	.thumb_func
mbedtls_ripemd160_init:
.Lfunc_begin0:
	.loc	1 76 0                          @ ../../../ThirdParty/mbedTLS/library/ripemd160.c:76:0
	.fnstart
	.cfi_sections .debug_frame
	.cfi_startproc
@ %bb.0:
	@DEBUG_VALUE: mbedtls_ripemd160_init:ctx <- $r0
	@DEBUG_VALUE: mbedtls_ripemd160_init:ctx <- $r0
	.save	{r7, lr}
	push	{r7, lr}
	.cfi_def_cfa_offset 8
	.cfi_offset lr, -4
	.cfi_offset r7, -8
	movs	r1, #92
	@DEBUG_VALUE: mbedtls_ripemd160_init:ctx <- $r0
.Ltmp0:
	.loc	1 77 5 prologue_end             @ ../../../ThirdParty/mbedTLS/library/ripemd160.c:77:5
	bl	__aeabi_memclr4
.Ltmp1:
	@DEBUG_VALUE: mbedtls_ripemd160_init:ctx <- [DW_OP_LLVM_entry_value 1] $r0
	.loc	1 78 1                          @ ../../../ThirdParty/mbedTLS/library/ripemd160.c:78:1
	pop	{r7, pc}
.Ltmp2:
.Lfunc_end0:
	.size	mbedtls_ripemd160_init, .Lfunc_end0-mbedtls_ripemd160_init
	.cfi_endproc
	.cantunwind
	.fnend
                                        @ -- End function
	.section	.text.mbedtls_ripemd160_free,"ax",%progbits
	.hidden	mbedtls_ripemd160_free          @ -- Begin function mbedtls_ripemd160_free
	.globl	mbedtls_ripemd160_free
	.p2align	1
	.type	mbedtls_ripemd160_free,%function
	.code	16                              @ @mbedtls_ripemd160_free
	.thumb_func
mbedtls_ripemd160_free:
.Lfunc_begin1:
	.loc	1 81 0                          @ ../../../ThirdParty/mbedTLS/library/ripemd160.c:81:0
	.fnstart
	.cfi_startproc
@ %bb.0:
	@DEBUG_VALUE: mbedtls_ripemd160_free:ctx <- $r0
	@DEBUG_VALUE: mbedtls_ripemd160_free:ctx <- $r0
	.save	{r7, lr}
	push	{r7, lr}
	.cfi_def_cfa_offset 8
	.cfi_offset lr, -4
	.cfi_offset r7, -8
.Ltmp3:
	.loc	1 82 9 prologue_end             @ ../../../ThirdParty/mbedTLS/library/ripemd160.c:82:9
	cbz	r0, .LBB1_2
.Ltmp4:
@ %bb.1:
	@DEBUG_VALUE: mbedtls_ripemd160_free:ctx <- $r0
	.loc	1 0 9 is_stmt 0                 @ ../../../ThirdParty/mbedTLS/library/ripemd160.c:0:9
	movs	r1, #92
	.loc	1 85 5 is_stmt 1                @ ../../../ThirdParty/mbedTLS/library/ripemd160.c:85:5
	bl	mbedtls_platform_zeroize
.Ltmp5:
	@DEBUG_VALUE: mbedtls_ripemd160_free:ctx <- [DW_OP_LLVM_entry_value 1] $r0
.LBB1_2:
	.loc	1 86 1                          @ ../../../ThirdParty/mbedTLS/library/ripemd160.c:86:1
	pop	{r7, pc}
.Ltmp6:
.Lfunc_end1:
	.size	mbedtls_ripemd160_free, .Lfunc_end1-mbedtls_ripemd160_free
	.cfi_endproc
	.cantunwind
	.fnend
                                        @ -- End function
	.section	.text.mbedtls_ripemd160_clone,"ax",%progbits
	.hidden	mbedtls_ripemd160_clone         @ -- Begin function mbedtls_ripemd160_clone
	.globl	mbedtls_ripemd160_clone
	.p2align	1
	.type	mbedtls_ripemd160_clone,%function
	.code	16                              @ @mbedtls_ripemd160_clone
	.thumb_func
mbedtls_ripemd160_clone:
.Lfunc_begin2:
	.loc	1 90 0                          @ ../../../ThirdParty/mbedTLS/library/ripemd160.c:90:0
	.fnstart
	.cfi_startproc
@ %bb.0:
	@DEBUG_VALUE: mbedtls_ripemd160_clone:dst <- $r0
	@DEBUG_VALUE: mbedtls_ripemd160_clone:dst <- $r0
	@DEBUG_VALUE: mbedtls_ripemd160_clone:src <- $r1
	@DEBUG_VALUE: mbedtls_ripemd160_clone:src <- $r1
	.save	{r7, lr}
	push	{r7, lr}
	.cfi_def_cfa_offset 8
	.cfi_offset lr, -4
	.cfi_offset r7, -8
	movs	r2, #92
	@DEBUG_VALUE: mbedtls_ripemd160_clone:src <- $r1
	@DEBUG_VALUE: mbedtls_ripemd160_clone:dst <- $r0
.Ltmp7:
	.loc	1 91 12 prologue_end            @ ../../../ThirdParty/mbedTLS/library/ripemd160.c:91:12
	bl	__aeabi_memcpy4
.Ltmp8:
	@DEBUG_VALUE: mbedtls_ripemd160_clone:src <- [DW_OP_LLVM_entry_value 1] $r1
	@DEBUG_VALUE: mbedtls_ripemd160_clone:dst <- [DW_OP_LLVM_entry_value 1] $r0
	.loc	1 92 1                          @ ../../../ThirdParty/mbedTLS/library/ripemd160.c:92:1
	pop	{r7, pc}
.Ltmp9:
.Lfunc_end2:
	.size	mbedtls_ripemd160_clone, .Lfunc_end2-mbedtls_ripemd160_clone
	.cfi_endproc
	.cantunwind
	.fnend
                                        @ -- End function
	.section	.text.mbedtls_ripemd160_starts_ret,"ax",%progbits
	.hidden	mbedtls_ripemd160_starts_ret    @ -- Begin function mbedtls_ripemd160_starts_ret
	.globl	mbedtls_ripemd160_starts_ret
	.p2align	2
	.type	mbedtls_ripemd160_starts_ret,%function
	.code	16                              @ @mbedtls_ripemd160_starts_ret
	.thumb_func
mbedtls_ripemd160_starts_ret:
.Lfunc_begin3:
	.loc	1 98 0                          @ ../../../ThirdParty/mbedTLS/library/ripemd160.c:98:0
	.fnstart
	.cfi_startproc
@ %bb.0:
	@DEBUG_VALUE: mbedtls_ripemd160_starts_ret:ctx <- $r0
	.save	{r4, r5, r6, lr}
	push	{r4, r5, r6, lr}
	.cfi_def_cfa_offset 16
	.cfi_offset lr, -4
	.cfi_offset r6, -8
	.cfi_offset r5, -12
	.cfi_offset r4, -16
	ldr	r2, __arm_cp.3_0
	ldr	r3, __arm_cp.3_1
	ldr	r4, __arm_cp.3_2
	ldr	r5, __arm_cp.3_3
	ldr	r6, __arm_cp.3_4
	movs	r1, #0
	@DEBUG_VALUE: mbedtls_ripemd160_starts_ret:ctx <- $r0
.Ltmp10:
	.loc	1 99 19 prologue_end            @ ../../../ThirdParty/mbedTLS/library/ripemd160.c:99:19
	str	r1, [r0]
	.loc	1 100 19                        @ ../../../ThirdParty/mbedTLS/library/ripemd160.c:100:19
	str	r1, [r0, #4]
	.loc	1 102 19                        @ ../../../ThirdParty/mbedTLS/library/ripemd160.c:102:19
	str	r6, [r0, #8]
	.loc	1 103 19                        @ ../../../ThirdParty/mbedTLS/library/ripemd160.c:103:19
	str	r5, [r0, #12]
	.loc	1 104 19                        @ ../../../ThirdParty/mbedTLS/library/ripemd160.c:104:19
	str	r4, [r0, #16]
	.loc	1 105 19                        @ ../../../ThirdParty/mbedTLS/library/ripemd160.c:105:19
	str	r3, [r0, #20]
	.loc	1 106 19                        @ ../../../ThirdParty/mbedTLS/library/ripemd160.c:106:19
	str	r2, [r0, #24]
	.loc	1 108 5                         @ ../../../ThirdParty/mbedTLS/library/ripemd160.c:108:5
	mov	r0, r1
.Ltmp11:
	@DEBUG_VALUE: mbedtls_ripemd160_starts_ret:ctx <- [DW_OP_LLVM_entry_value 1] $r0
	pop	{r4, r5, r6, pc}
.Ltmp12:
	.p2align	2
@ %bb.1:
	.loc	1 0 5 is_stmt 0                 @ ../../../ThirdParty/mbedTLS/library/ripemd160.c:0:5
__arm_cp.3_0:
	.long	3285377520                      @ 0xc3d2e1f0
.Lcpi_end0:
	.size	__arm_cp.3_0, .Lcpi_end0-__arm_cp.3_0
__arm_cp.3_1:
	.long	271733878                       @ 0x10325476
.Lcpi_end1:
	.size	__arm_cp.3_1, .Lcpi_end1-__arm_cp.3_1
__arm_cp.3_2:
	.long	2562383102                      @ 0x98badcfe
.Lcpi_end2:
	.size	__arm_cp.3_2, .Lcpi_end2-__arm_cp.3_2
__arm_cp.3_3:
	.long	4023233417                      @ 0xefcdab89
.Lcpi_end3:
	.size	__arm_cp.3_3, .Lcpi_end3-__arm_cp.3_3
__arm_cp.3_4:
	.long	1732584193                      @ 0x67452301
.Lcpi_end4:
	.size	__arm_cp.3_4, .Lcpi_end4-__arm_cp.3_4
.Lfunc_end3:
	.size	mbedtls_ripemd160_starts_ret, .Lfunc_end3-mbedtls_ripemd160_starts_ret
	.cfi_endproc
	.cantunwind
	.fnend
                                        @ -- End function
	.section	.text.mbedtls_ripemd160_starts,"ax",%progbits
	.hidden	mbedtls_ripemd160_starts        @ -- Begin function mbedtls_ripemd160_starts
	.globl	mbedtls_ripemd160_starts
	.p2align	1
	.type	mbedtls_ripemd160_starts,%function
	.code	16                              @ @mbedtls_ripemd160_starts
	.thumb_func
mbedtls_ripemd160_starts:
.Lfunc_begin4:
	.loc	1 113 0 is_stmt 1               @ ../../../ThirdParty/mbedTLS/library/ripemd160.c:113:0
	.fnstart
	.cfi_startproc
@ %bb.0:
	@DEBUG_VALUE: mbedtls_ripemd160_starts:ctx <- $r0
	@DEBUG_VALUE: mbedtls_ripemd160_starts:ctx <- $r0
	@DEBUG_VALUE: mbedtls_ripemd160_starts:ctx <- $r0
	.save	{r7, lr}
	push	{r7, lr}
	.cfi_def_cfa_offset 8
	.cfi_offset lr, -4
	.cfi_offset r7, -8
.Ltmp13:
	.loc	1 114 5 prologue_end            @ ../../../ThirdParty/mbedTLS/library/ripemd160.c:114:5
	bl	mbedtls_ripemd160_starts_ret
.Ltmp14:
	@DEBUG_VALUE: mbedtls_ripemd160_starts:ctx <- [DW_OP_LLVM_entry_value 1] $r0
	.loc	1 115 1                         @ ../../../ThirdParty/mbedTLS/library/ripemd160.c:115:1
	pop	{r7, pc}
.Ltmp15:
.Lfunc_end4:
	.size	mbedtls_ripemd160_starts, .Lfunc_end4-mbedtls_ripemd160_starts
	.cfi_endproc
	.cantunwind
	.fnend
                                        @ -- End function
	.section	.text.mbedtls_internal_ripemd160_process,"ax",%progbits
	.hidden	mbedtls_internal_ripemd160_process @ -- Begin function mbedtls_internal_ripemd160_process
	.globl	mbedtls_internal_ripemd160_process
	.p2align	2
	.type	mbedtls_internal_ripemd160_process,%function
	.code	16                              @ @mbedtls_internal_ripemd160_process
	.thumb_func
mbedtls_internal_ripemd160_process:
.Lfunc_begin5:
	.loc	1 124 0                         @ ../../../ThirdParty/mbedTLS/library/ripemd160.c:124:0
	.fnstart
	.cfi_startproc
@ %bb.0:
	@DEBUG_VALUE: mbedtls_internal_ripemd160_process:ctx <- $r0
	@DEBUG_VALUE: mbedtls_internal_ripemd160_process:ctx <- $r0
	@DEBUG_VALUE: mbedtls_internal_ripemd160_process:data <- $r1
	@DEBUG_VALUE: mbedtls_internal_ripemd160_process:data <- $r1
	.save	{r4, r5, r6, r7, lr}
	push	{r4, r5, r6, r7, lr}
	.cfi_def_cfa_offset 20
	.cfi_offset lr, -4
	.cfi_offset r7, -8
	.cfi_offset r6, -12
	.cfi_offset r5, -16
	.cfi_offset r4, -20
	.pad	#164
	sub	sp, #164
	.cfi_def_cfa_offset 184
.Ltmp16:
	.loc	1 145 14 prologue_end           @ ../../../ThirdParty/mbedTLS/library/ripemd160.c:145:14
	ldr	r7, [r0, #12]
.Ltmp17:
	@DEBUG_VALUE: mbedtls_internal_ripemd160_process:B <- $r7
	@DEBUG_VALUE: mbedtls_internal_ripemd160_process:Bp <- $r7
	.loc	1 146 14                        @ ../../../ThirdParty/mbedTLS/library/ripemd160.c:146:14
	ldr	r2, [r0, #16]
.Ltmp18:
	@DEBUG_VALUE: mbedtls_internal_ripemd160_process:C <- $r2
	@DEBUG_VALUE: mbedtls_internal_ripemd160_process:Cp <- $r2
	.loc	1 171 5                         @ ../../../ThirdParty/mbedTLS/library/ripemd160.c:171:5
	mov	r4, r2
	mov	r5, r2
.Ltmp19:
	@DEBUG_VALUE: mbedtls_internal_ripemd160_process:C <- $r5
	@DEBUG_VALUE: mbedtls_internal_ripemd160_process:Cp <- $r5
	str	r2, [sp, #28]                   @ 4-byte Spill
	eors	r4, r7
	@DEBUG_VALUE: mbedtls_internal_ripemd160_process:B <- $r7
	@DEBUG_VALUE: mbedtls_internal_ripemd160_process:Bp <- $r7
	.loc	1 147 14                        @ ../../../ThirdParty/mbedTLS/library/ripemd160.c:147:14
	ldr	r2, [r0, #20]
.Ltmp20:
	@DEBUG_VALUE: mbedtls_internal_ripemd160_process:D <- $r2
	@DEBUG_VALUE: mbedtls_internal_ripemd160_process:Dp <- $r2
	.loc	1 0 14 is_stmt 0                @ ../../../ThirdParty/mbedTLS/library/ripemd160.c:0:14
	str	r2, [sp, #36]                   @ 4-byte Spill
	@DEBUG_VALUE: mbedtls_internal_ripemd160_process:ctx <- $r0
	.loc	1 171 5 is_stmt 1               @ ../../../ThirdParty/mbedTLS/library/ripemd160.c:171:5
	eors	r4, r2
.Ltmp21:
	@DEBUG_VALUE: mbedtls_internal_ripemd160_process:D <- [DW_OP_plus_uconst 36] [$sp+0]
	@DEBUG_VALUE: mbedtls_internal_ripemd160_process:Dp <- [DW_OP_plus_uconst 36] [$sp+0]
	.loc	1 127 5                         @ ../../../ThirdParty/mbedTLS/library/ripemd160.c:127:5
	ldrb	r2, [r1]
	ldrb	r3, [r1, #1]
	lsls	r3, r3, #8
	adds	r2, r3, r2
	ldrb	r3, [r1, #2]
	lsls	r3, r3, #16
	adds	r2, r2, r3
	ldrb	r3, [r1, #3]
	lsls	r3, r3, #24
	adds	r2, r2, r3
.Ltmp22:
	@DEBUG_VALUE: mbedtls_internal_ripemd160_process:X <- [DW_OP_LLVM_fragment 0 32] $r2
	.loc	1 0 5 is_stmt 0                 @ ../../../ThirdParty/mbedTLS/library/ripemd160.c:0:5
	str	r2, [sp, #116]                  @ 4-byte Spill
	mov	r3, r0
.Ltmp23:
	@DEBUG_VALUE: mbedtls_internal_ripemd160_process:ctx <- $r3
	.loc	1 144 14 is_stmt 1              @ ../../../ThirdParty/mbedTLS/library/ripemd160.c:144:14
	str	r0, [sp, #44]                   @ 4-byte Spill
	ldr	r0, [r0, #8]
.Ltmp24:
	@DEBUG_VALUE: mbedtls_internal_ripemd160_process:A <- $r0
	@DEBUG_VALUE: mbedtls_internal_ripemd160_process:Ap <- $r0
	.loc	1 171 5                         @ ../../../ThirdParty/mbedTLS/library/ripemd160.c:171:5
	str	r0, [sp, #32]                   @ 4-byte Spill
.Ltmp25:
	@DEBUG_VALUE: mbedtls_internal_ripemd160_process:A <- [DW_OP_plus_uconst 32] [$sp+0]
	adds	r2, r0, r2
.Ltmp26:
	@DEBUG_VALUE: mbedtls_internal_ripemd160_process:A <- [DW_OP_plus_uconst 32] [$sp+0]
	@DEBUG_VALUE: mbedtls_internal_ripemd160_process:Ap <- [DW_OP_plus_uconst 32] [$sp+0]
	@DEBUG_VALUE: mbedtls_internal_ripemd160_process:X <- [DW_OP_plus_uconst 116, DW_OP_LLVM_fragment 0 32] [$sp+0]
	@DEBUG_VALUE: mbedtls_internal_ripemd160_process:X <- [DW_OP_LLVM_fragment 0 32] $r2
	adds	r0, r2, r4
.Ltmp27:
	@DEBUG_VALUE: mbedtls_internal_ripemd160_process:A <- $r0
	.loc	1 0 5 is_stmt 0                 @ ../../../ThirdParty/mbedTLS/library/ripemd160.c:0:5
	movs	r2, #21
.Ltmp28:
	.loc	1 171 5                         @ ../../../ThirdParty/mbedTLS/library/ripemd160.c:171:5
	str	r2, [sp, #144]                  @ 4-byte Spill
	rors	r0, r2
.Ltmp29:
	.loc	1 148 14 is_stmt 1              @ ../../../ThirdParty/mbedTLS/library/ripemd160.c:148:14
	ldr	r6, [r3, #24]
.Ltmp30:
	@DEBUG_VALUE: mbedtls_internal_ripemd160_process:E <- $r6
	@DEBUG_VALUE: mbedtls_internal_ripemd160_process:Ep <- $r6
	@DEBUG_VALUE: mbedtls_internal_ripemd160_process:ctx <- [DW_OP_plus_uconst 44] [$sp+0]
	.loc	1 171 5                         @ ../../../ThirdParty/mbedTLS/library/ripemd160.c:171:5
	adds	r0, r0, r6
	@DEBUG_VALUE: mbedtls_internal_ripemd160_process:E <- $r6
	@DEBUG_VALUE: mbedtls_internal_ripemd160_process:Ep <- $r6
.Ltmp31:
	@DEBUG_VALUE: mbedtls_internal_ripemd160_process:A <- $r0
	.loc	1 0 5 is_stmt 0                 @ ../../../ThirdParty/mbedTLS/library/ripemd160.c:0:5
	str	r6, [sp, #24]                   @ 4-byte Spill
	movs	r3, #22
	.loc	1 173 5 is_stmt 1               @ ../../../ThirdParty/mbedTLS/library/ripemd160.c:173:5
	str	r3, [sp, #160]                  @ 4-byte Spill
	mov	r2, r0
	rors	r2, r3
.Ltmp32:
	@DEBUG_VALUE: mbedtls_internal_ripemd160_process:A <- $r2
	.loc	1 0 5 is_stmt 0                 @ ../../../ThirdParty/mbedTLS/library/ripemd160.c:0:5
	str	r2, [sp, #156]                  @ 4-byte Spill
.Ltmp33:
	@DEBUG_VALUE: mbedtls_internal_ripemd160_process:A <- [DW_OP_plus_uconst 156] [$sp+0]
	@DEBUG_VALUE: mbedtls_internal_ripemd160_process:A <- [DW_OP_plus_uconst 156] [$sp+0]
	@DEBUG_VALUE: mbedtls_internal_ripemd160_process:C <- [DW_OP_plus_uconst 28] [$sp+0]
	@DEBUG_VALUE: mbedtls_internal_ripemd160_process:Cp <- [DW_OP_plus_uconst 28] [$sp+0]
	.loc	1 171 5 is_stmt 1               @ ../../../ThirdParty/mbedTLS/library/ripemd160.c:171:5
	rors	r5, r3
.Ltmp34:
	@DEBUG_VALUE: mbedtls_internal_ripemd160_process:C <- $r5
	@DEBUG_VALUE: mbedtls_internal_ripemd160_process:Cp <- $r5
	.loc	1 172 5                         @ ../../../ThirdParty/mbedTLS/library/ripemd160.c:172:5
	str	r5, [sp, #40]                   @ 4-byte Spill
.Ltmp35:
	@DEBUG_VALUE: mbedtls_internal_ripemd160_process:C <- [DW_OP_plus_uconst 40] [$sp+0]
	mov	r3, r5
	@DEBUG_VALUE: mbedtls_internal_ripemd160_process:C <- [DW_OP_plus_uconst 40] [$sp+0]
.Ltmp36:
	@DEBUG_VALUE: mbedtls_internal_ripemd160_process:Cp <- [DW_OP_plus_uconst 40] [$sp+0]
	eors	r3, r7
	@DEBUG_VALUE: mbedtls_internal_ripemd160_process:B <- $r7
	@DEBUG_VALUE: mbedtls_internal_ripemd160_process:Bp <- $r7
	str	r7, [sp, #20]                   @ 4-byte Spill
	eors	r3, r0
.Ltmp37:
	.loc	1 128 5                         @ ../../../ThirdParty/mbedTLS/library/ripemd160.c:128:5
	ldrb	r4, [r1, #4]
	ldrb	r5, [r1, #5]
	lsls	r5, r5, #8
	adds	r4, r5, r4
	ldrb	r5, [r1, #6]
	lsls	r5, r5, #16
	adds	r4, r4, r5
	ldrb	r5, [r1, #7]
	lsls	r5, r5, #24
	adds	r2, r4, r5
.Ltmp38:
	@DEBUG_VALUE: mbedtls_internal_ripemd160_process:X <- [DW_OP_LLVM_fragment 32 32] $r2
	.loc	1 172 5                         @ ../../../ThirdParty/mbedTLS/library/ripemd160.c:172:5
	str	r2, [sp, #104]                  @ 4-byte Spill
.Ltmp39:
	@DEBUG_VALUE: mbedtls_internal_ripemd160_process:X <- [DW_OP_plus_uconst 104, DW_OP_LLVM_fragment 32 32] [$sp+0]
	adds	r4, r6, r2
	@DEBUG_VALUE: mbedtls_internal_ripemd160_process:X <- [DW_OP_plus_uconst 104, DW_OP_LLVM_fragment 32 32] [$sp+0]
.Ltmp40:
	@DEBUG_VALUE: mbedtls_internal_ripemd160_process:E <- [DW_OP_plus_uconst 24] [$sp+0]
	@DEBUG_VALUE: mbedtls_internal_ripemd160_process:Ep <- [DW_OP_plus_uconst 24] [$sp+0]
	adds	r3, r4, r3
.Ltmp41:
	@DEBUG_VALUE: mbedtls_internal_ripemd160_process:E <- $r3
	.loc	1 0 5 is_stmt 0                 @ ../../../ThirdParty/mbedTLS/library/ripemd160.c:0:5
	movs	r2, #18
	.loc	1 172 5                         @ ../../../ThirdParty/mbedTLS/library/ripemd160.c:172:5
	str	r2, [sp, #124]                  @ 4-byte Spill
	rors	r3, r2
.Ltmp42:
	.loc	1 0 5                           @ ../../../ThirdParty/mbedTLS/library/ripemd160.c:0:5
	ldr	r2, [sp, #36]                   @ 4-byte Reload
.Ltmp43:
	@DEBUG_VALUE: mbedtls_internal_ripemd160_process:D <- $r2
	@DEBUG_VALUE: mbedtls_internal_ripemd160_process:Dp <- $r2
	.loc	1 172 5                         @ ../../../ThirdParty/mbedTLS/library/ripemd160.c:172:5
	adds	r6, r3, r2
.Ltmp44:
	@DEBUG_VALUE: mbedtls_internal_ripemd160_process:E <- $r6
	.loc	1 174 5 is_stmt 1               @ ../../../ThirdParty/mbedTLS/library/ripemd160.c:174:5
	str	r6, [sp, #136]                  @ 4-byte Spill
	mov	r3, r6
	ldr	r4, [sp, #156]                  @ 4-byte Reload
.Ltmp45:
	@DEBUG_VALUE: mbedtls_internal_ripemd160_process:A <- $r4
	eors	r3, r4
.Ltmp46:
	@DEBUG_VALUE: mbedtls_internal_ripemd160_process:A <- [DW_OP_plus_uconst 156] [$sp+0]
	.loc	1 172 5                         @ ../../../ThirdParty/mbedTLS/library/ripemd160.c:172:5
	ldr	r4, [sp, #160]                  @ 4-byte Reload
.Ltmp47:
	@DEBUG_VALUE: mbedtls_internal_ripemd160_process:B <- [DW_OP_plus_uconst 20] [$sp+0]
	@DEBUG_VALUE: mbedtls_internal_ripemd160_process:Bp <- [DW_OP_plus_uconst 20] [$sp+0]
	rors	r7, r4
.Ltmp48:
	@DEBUG_VALUE: mbedtls_internal_ripemd160_process:B <- $r7
	@DEBUG_VALUE: mbedtls_internal_ripemd160_process:Bp <- $r7
	.loc	1 173 5                         @ ../../../ThirdParty/mbedTLS/library/ripemd160.c:173:5
	eors	r0, r7
	mov	r4, r7
.Ltmp49:
	@DEBUG_VALUE: mbedtls_internal_ripemd160_process:B <- $r4
	@DEBUG_VALUE: mbedtls_internal_ripemd160_process:B <- $r4
	@DEBUG_VALUE: mbedtls_internal_ripemd160_process:Bp <- $r4
	eors	r0, r6
.Ltmp50:
	@DEBUG_VALUE: mbedtls_internal_ripemd160_process:E <- [DW_OP_plus_uconst 136] [$sp+0]
	.loc	1 129 5                         @ ../../../ThirdParty/mbedTLS/library/ripemd160.c:129:5
	ldrb	r5, [r1, #8]
	ldrb	r6, [r1, #9]
	lsls	r6, r6, #8
	adds	r5, r6, r5
	ldrb	r6, [r1, #10]
	lsls	r6, r6, #16
	adds	r5, r5, r6
	ldrb	r6, [r1, #11]
	lsls	r6, r6, #24
	adds	r5, r5, r6
.Ltmp51:
	@DEBUG_VALUE: mbedtls_internal_ripemd160_process:X <- [DW_OP_LLVM_fragment 64 32] $r5
	.loc	1 173 5                         @ ../../../ThirdParty/mbedTLS/library/ripemd160.c:173:5
	str	r5, [sp, #108]                  @ 4-byte Spill
.Ltmp52:
	@DEBUG_VALUE: mbedtls_internal_ripemd160_process:X <- [DW_OP_plus_uconst 108, DW_OP_LLVM_fragment 64 32] [$sp+0]
	adds	r5, r2, r5
	@DEBUG_VALUE: mbedtls_internal_ripemd160_process:X <- [DW_OP_plus_uconst 108, DW_OP_LLVM_fragment 64 32] [$sp+0]
.Ltmp53:
	@DEBUG_VALUE: mbedtls_internal_ripemd160_process:X <- [DW_OP_LLVM_fragment 64 32] $r5
	@DEBUG_VALUE: mbedtls_internal_ripemd160_process:D <- [DW_OP_plus_uconst 36] [$sp+0]
	@DEBUG_VALUE: mbedtls_internal_ripemd160_process:Dp <- [DW_OP_plus_uconst 36] [$sp+0]
	adds	r0, r5, r0
.Ltmp54:
	@DEBUG_VALUE: mbedtls_internal_ripemd160_process:D <- $r0
	.loc	1 0 5 is_stmt 0                 @ ../../../ThirdParty/mbedTLS/library/ripemd160.c:0:5
	movs	r2, #17
	.loc	1 173 5                         @ ../../../ThirdParty/mbedTLS/library/ripemd160.c:173:5
	str	r2, [sp, #128]                  @ 4-byte Spill
	rors	r0, r2
.Ltmp55:
	.loc	1 0 5                           @ ../../../ThirdParty/mbedTLS/library/ripemd160.c:0:5
	ldr	r2, [sp, #40]                   @ 4-byte Reload
.Ltmp56:
	@DEBUG_VALUE: mbedtls_internal_ripemd160_process:C <- $r2
	@DEBUG_VALUE: mbedtls_internal_ripemd160_process:Cp <- $r2
	.loc	1 173 5                         @ ../../../ThirdParty/mbedTLS/library/ripemd160.c:173:5
	adds	r7, r0, r2
.Ltmp57:
	@DEBUG_VALUE: mbedtls_internal_ripemd160_process:D <- $r7
	.loc	1 174 5 is_stmt 1               @ ../../../ThirdParty/mbedTLS/library/ripemd160.c:174:5
	eors	r3, r7
.Ltmp58:
	.loc	1 130 5                         @ ../../../ThirdParty/mbedTLS/library/ripemd160.c:130:5
	ldrb	r0, [r1, #12]
	ldrb	r5, [r1, #13]
.Ltmp59:
	lsls	r5, r5, #8
	adds	r0, r5, r0
	ldrb	r5, [r1, #14]
	lsls	r5, r5, #16
	adds	r0, r0, r5
	ldrb	r5, [r1, #15]
	lsls	r5, r5, #24
	adds	r0, r0, r5
.Ltmp60:
	@DEBUG_VALUE: mbedtls_internal_ripemd160_process:X <- [DW_OP_LLVM_fragment 96 32] $r0
	.loc	1 174 5                         @ ../../../ThirdParty/mbedTLS/library/ripemd160.c:174:5
	str	r0, [sp, #112]                  @ 4-byte Spill
.Ltmp61:
	@DEBUG_VALUE: mbedtls_internal_ripemd160_process:X <- [DW_OP_plus_uconst 112, DW_OP_LLVM_fragment 96 32] [$sp+0]
	adds	r0, r2, r0
	@DEBUG_VALUE: mbedtls_internal_ripemd160_process:X <- [DW_OP_plus_uconst 112, DW_OP_LLVM_fragment 96 32] [$sp+0]
.Ltmp62:
	@DEBUG_VALUE: mbedtls_internal_ripemd160_process:X <- [DW_OP_LLVM_fragment 96 32] $r0
	@DEBUG_VALUE: mbedtls_internal_ripemd160_process:C <- undef
	@DEBUG_VALUE: mbedtls_internal_ripemd160_process:Cp <- undef
	adds	r0, r0, r3
.Ltmp63:
	@DEBUG_VALUE: mbedtls_internal_ripemd160_process:C <- $r0
	.loc	1 0 5 is_stmt 0                 @ ../../../ThirdParty/mbedTLS/library/ripemd160.c:0:5
	movs	r2, #20
	.loc	1 174 5                         @ ../../../ThirdParty/mbedTLS/library/ripemd160.c:174:5
	str	r2, [sp, #140]                  @ 4-byte Spill
	rors	r0, r2
.Ltmp64:
	@DEBUG_VALUE: mbedtls_internal_ripemd160_process:B <- $r4
	@DEBUG_VALUE: mbedtls_internal_ripemd160_process:Bp <- $r4
	str	r4, [sp]                        @ 4-byte Spill
	adds	r3, r0, r4
.Ltmp65:
	@DEBUG_VALUE: mbedtls_internal_ripemd160_process:C <- $r3
	.loc	1 176 5 is_stmt 1               @ ../../../ThirdParty/mbedTLS/library/ripemd160.c:176:5
	mov	r2, r3
	ldr	r0, [sp, #160]                  @ 4-byte Reload
	rors	r2, r0
.Ltmp66:
	@DEBUG_VALUE: mbedtls_internal_ripemd160_process:C <- $r2
	.loc	1 0 5 is_stmt 0                 @ ../../../ThirdParty/mbedTLS/library/ripemd160.c:0:5
	str	r2, [sp, #148]                  @ 4-byte Spill
.Ltmp67:
	@DEBUG_VALUE: mbedtls_internal_ripemd160_process:C <- [DW_OP_plus_uconst 148] [$sp+0]
	@DEBUG_VALUE: mbedtls_internal_ripemd160_process:C <- [DW_OP_plus_uconst 148] [$sp+0]
	ldr	r2, [sp, #136]                  @ 4-byte Reload
.Ltmp68:
	@DEBUG_VALUE: mbedtls_internal_ripemd160_process:E <- $r2
	.loc	1 174 5 is_stmt 1               @ ../../../ThirdParty/mbedTLS/library/ripemd160.c:174:5
	rors	r2, r0
.Ltmp69:
	@DEBUG_VALUE: mbedtls_internal_ripemd160_process:E <- $r2
	.loc	1 175 5                         @ ../../../ThirdParty/mbedTLS/library/ripemd160.c:175:5
	str	r2, [sp, #136]                  @ 4-byte Spill
	mov	r0, r7
	eors	r0, r2
.Ltmp70:
	@DEBUG_VALUE: mbedtls_internal_ripemd160_process:E <- [DW_OP_plus_uconst 136] [$sp+0]
	eors	r0, r3
.Ltmp71:
	.loc	1 131 5                         @ ../../../ThirdParty/mbedTLS/library/ripemd160.c:131:5
	ldrb	r5, [r1, #16]
	ldrb	r6, [r1, #17]
	lsls	r6, r6, #8
	adds	r5, r6, r5
	ldrb	r6, [r1, #18]
	lsls	r6, r6, #16
	adds	r5, r5, r6
	ldrb	r6, [r1, #19]
	lsls	r6, r6, #24
	adds	r2, r5, r6
.Ltmp72:
	@DEBUG_VALUE: mbedtls_internal_ripemd160_process:X <- [DW_OP_LLVM_fragment 128 32] $r2
	.loc	1 175 5                         @ ../../../ThirdParty/mbedTLS/library/ripemd160.c:175:5
	str	r2, [sp, #88]                   @ 4-byte Spill
.Ltmp73:
	@DEBUG_VALUE: mbedtls_internal_ripemd160_process:X <- [DW_OP_plus_uconst 88, DW_OP_LLVM_fragment 128 32] [$sp+0]
	adds	r5, r4, r2
	@DEBUG_VALUE: mbedtls_internal_ripemd160_process:X <- [DW_OP_plus_uconst 88, DW_OP_LLVM_fragment 128 32] [$sp+0]
.Ltmp74:
	@DEBUG_VALUE: mbedtls_internal_ripemd160_process:B <- [$sp+0]
	@DEBUG_VALUE: mbedtls_internal_ripemd160_process:Bp <- [$sp+0]
	adds	r0, r5, r0
.Ltmp75:
	@DEBUG_VALUE: mbedtls_internal_ripemd160_process:B <- $r0
	.loc	1 0 5 is_stmt 0                 @ ../../../ThirdParty/mbedTLS/library/ripemd160.c:0:5
	movs	r2, #27
	.loc	1 175 5                         @ ../../../ThirdParty/mbedTLS/library/ripemd160.c:175:5
	str	r2, [sp, #152]                  @ 4-byte Spill
	rors	r0, r2
.Ltmp76:
	.loc	1 0 5                           @ ../../../ThirdParty/mbedTLS/library/ripemd160.c:0:5
	ldr	r4, [sp, #156]                  @ 4-byte Reload
.Ltmp77:
	@DEBUG_VALUE: mbedtls_internal_ripemd160_process:A <- $r4
	.loc	1 175 5                         @ ../../../ThirdParty/mbedTLS/library/ripemd160.c:175:5
	adds	r0, r0, r4
.Ltmp78:
	@DEBUG_VALUE: mbedtls_internal_ripemd160_process:B <- $r0
	.loc	1 177 5 is_stmt 1               @ ../../../ThirdParty/mbedTLS/library/ripemd160.c:177:5
	mov	r5, r0
	ldr	r2, [sp, #148]                  @ 4-byte Reload
.Ltmp79:
	@DEBUG_VALUE: mbedtls_internal_ripemd160_process:C <- $r2
	eors	r5, r2
.Ltmp80:
	@DEBUG_VALUE: mbedtls_internal_ripemd160_process:C <- [DW_OP_plus_uconst 148] [$sp+0]
	.loc	1 175 5                         @ ../../../ThirdParty/mbedTLS/library/ripemd160.c:175:5
	ldr	r2, [sp, #160]                  @ 4-byte Reload
	rors	r7, r2
.Ltmp81:
	@DEBUG_VALUE: mbedtls_internal_ripemd160_process:D <- $r7
	.loc	1 176 5                         @ ../../../ThirdParty/mbedTLS/library/ripemd160.c:176:5
	eors	r3, r7
	eors	r3, r0
.Ltmp82:
	.loc	1 132 5                         @ ../../../ThirdParty/mbedTLS/library/ripemd160.c:132:5
	ldrb	r6, [r1, #20]
	ldrb	r2, [r1, #21]
	lsls	r2, r2, #8
	adds	r2, r2, r6
	ldrb	r6, [r1, #22]
	lsls	r6, r6, #16
	adds	r2, r2, r6
	ldrb	r6, [r1, #23]
	lsls	r6, r6, #24
	adds	r2, r2, r6
.Ltmp83:
	@DEBUG_VALUE: mbedtls_internal_ripemd160_process:X <- [DW_OP_LLVM_fragment 160 32] $r2
	.loc	1 176 5                         @ ../../../ThirdParty/mbedTLS/library/ripemd160.c:176:5
	str	r2, [sp, #84]                   @ 4-byte Spill
.Ltmp84:
	@DEBUG_VALUE: mbedtls_internal_ripemd160_process:X <- [DW_OP_plus_uconst 84, DW_OP_LLVM_fragment 160 32] [$sp+0]
	adds	r2, r4, r2
	@DEBUG_VALUE: mbedtls_internal_ripemd160_process:X <- [DW_OP_plus_uconst 84, DW_OP_LLVM_fragment 160 32] [$sp+0]
.Ltmp85:
	@DEBUG_VALUE: mbedtls_internal_ripemd160_process:X <- [DW_OP_LLVM_fragment 160 32] $r2
	adds	r2, r2, r3
.Ltmp86:
	@DEBUG_VALUE: mbedtls_internal_ripemd160_process:A <- $r2
	.loc	1 0 5 is_stmt 0                 @ ../../../ThirdParty/mbedTLS/library/ripemd160.c:0:5
	movs	r3, #24
	.loc	1 176 5                         @ ../../../ThirdParty/mbedTLS/library/ripemd160.c:176:5
	str	r3, [sp, #156]                  @ 4-byte Spill
	rors	r2, r3
.Ltmp87:
	.loc	1 0 5                           @ ../../../ThirdParty/mbedTLS/library/ripemd160.c:0:5
	ldr	r4, [sp, #136]                  @ 4-byte Reload
.Ltmp88:
	@DEBUG_VALUE: mbedtls_internal_ripemd160_process:E <- $r4
	.loc	1 176 5                         @ ../../../ThirdParty/mbedTLS/library/ripemd160.c:176:5
	adds	r3, r2, r4
.Ltmp89:
	@DEBUG_VALUE: mbedtls_internal_ripemd160_process:A <- $r3
	.loc	1 177 5 is_stmt 1               @ ../../../ThirdParty/mbedTLS/library/ripemd160.c:177:5
	eors	r5, r3
.Ltmp90:
	.loc	1 133 5                         @ ../../../ThirdParty/mbedTLS/library/ripemd160.c:133:5
	ldrb	r2, [r1, #24]
	ldrb	r6, [r1, #25]
	lsls	r6, r6, #8
	adds	r2, r6, r2
	ldrb	r6, [r1, #26]
	lsls	r6, r6, #16
	adds	r2, r2, r6
	ldrb	r6, [r1, #27]
	lsls	r6, r6, #24
	adds	r2, r2, r6
.Ltmp91:
	@DEBUG_VALUE: mbedtls_internal_ripemd160_process:X <- [DW_OP_LLVM_fragment 192 32] $r2
	.loc	1 177 5                         @ ../../../ThirdParty/mbedTLS/library/ripemd160.c:177:5
	str	r2, [sp, #100]                  @ 4-byte Spill
.Ltmp92:
	@DEBUG_VALUE: mbedtls_internal_ripemd160_process:X <- [DW_OP_plus_uconst 100, DW_OP_LLVM_fragment 192 32] [$sp+0]
	adds	r2, r4, r2
	@DEBUG_VALUE: mbedtls_internal_ripemd160_process:X <- [DW_OP_plus_uconst 100, DW_OP_LLVM_fragment 192 32] [$sp+0]
.Ltmp93:
	@DEBUG_VALUE: mbedtls_internal_ripemd160_process:X <- [DW_OP_LLVM_fragment 192 32] $r2
	adds	r2, r2, r5
.Ltmp94:
	@DEBUG_VALUE: mbedtls_internal_ripemd160_process:E <- $r2
	.loc	1 0 5 is_stmt 0                 @ ../../../ThirdParty/mbedTLS/library/ripemd160.c:0:5
	movs	r4, #25
	.loc	1 177 5                         @ ../../../ThirdParty/mbedTLS/library/ripemd160.c:177:5
	str	r4, [sp, #120]                  @ 4-byte Spill
	rors	r2, r4
.Ltmp95:
	adds	r2, r2, r7
.Ltmp96:
	@DEBUG_VALUE: mbedtls_internal_ripemd160_process:E <- $r2
	.loc	1 179 5 is_stmt 1               @ ../../../ThirdParty/mbedTLS/library/ripemd160.c:179:5
	mov	r5, r2
	ldr	r4, [sp, #160]                  @ 4-byte Reload
	rors	r5, r4
.Ltmp97:
	@DEBUG_VALUE: mbedtls_internal_ripemd160_process:E <- $r5
	.loc	1 0 5 is_stmt 0                 @ ../../../ThirdParty/mbedTLS/library/ripemd160.c:0:5
	str	r5, [sp, #76]                   @ 4-byte Spill
.Ltmp98:
	@DEBUG_VALUE: mbedtls_internal_ripemd160_process:E <- [DW_OP_plus_uconst 76] [$sp+0]
	@DEBUG_VALUE: mbedtls_internal_ripemd160_process:E <- [DW_OP_plus_uconst 76] [$sp+0]
	.loc	1 177 5 is_stmt 1               @ ../../../ThirdParty/mbedTLS/library/ripemd160.c:177:5
	rors	r0, r4
.Ltmp99:
	@DEBUG_VALUE: mbedtls_internal_ripemd160_process:B <- $r0
	.loc	1 178 5                         @ ../../../ThirdParty/mbedTLS/library/ripemd160.c:178:5
	mov	r4, r3
	eors	r4, r0
	eors	r4, r2
.Ltmp100:
	.loc	1 134 5                         @ ../../../ThirdParty/mbedTLS/library/ripemd160.c:134:5
	ldrb	r5, [r1, #28]
	ldrb	r6, [r1, #29]
	lsls	r6, r6, #8
	adds	r5, r6, r5
	ldrb	r6, [r1, #30]
	lsls	r6, r6, #16
	adds	r5, r5, r6
	ldrb	r6, [r1, #31]
	lsls	r6, r6, #24
	adds	r5, r5, r6
.Ltmp101:
	@DEBUG_VALUE: mbedtls_internal_ripemd160_process:X <- [DW_OP_LLVM_fragment 224 32] $r5
	.loc	1 178 5                         @ ../../../ThirdParty/mbedTLS/library/ripemd160.c:178:5
	str	r5, [sp, #80]                   @ 4-byte Spill
.Ltmp102:
	@DEBUG_VALUE: mbedtls_internal_ripemd160_process:X <- [DW_OP_plus_uconst 80, DW_OP_LLVM_fragment 224 32] [$sp+0]
	adds	r5, r7, r5
	@DEBUG_VALUE: mbedtls_internal_ripemd160_process:X <- [DW_OP_plus_uconst 80, DW_OP_LLVM_fragment 224 32] [$sp+0]
.Ltmp103:
	@DEBUG_VALUE: mbedtls_internal_ripemd160_process:X <- [DW_OP_LLVM_fragment 224 32] $r5
	adds	r4, r5, r4
.Ltmp104:
	@DEBUG_VALUE: mbedtls_internal_ripemd160_process:D <- $r4
	.loc	1 0 5 is_stmt 0                 @ ../../../ThirdParty/mbedTLS/library/ripemd160.c:0:5
	movs	r5, #23
.Ltmp105:
	.loc	1 178 5                         @ ../../../ThirdParty/mbedTLS/library/ripemd160.c:178:5
	str	r5, [sp, #136]                  @ 4-byte Spill
	rors	r4, r5
.Ltmp106:
	ldr	r5, [sp, #148]                  @ 4-byte Reload
.Ltmp107:
	@DEBUG_VALUE: mbedtls_internal_ripemd160_process:C <- $r5
	adds	r4, r4, r5
.Ltmp108:
	@DEBUG_VALUE: mbedtls_internal_ripemd160_process:D <- $r4
	@DEBUG_VALUE: mbedtls_internal_ripemd160_process:C <- [DW_OP_plus_uconst 148] [$sp+0]
	.loc	1 180 5 is_stmt 1               @ ../../../ThirdParty/mbedTLS/library/ripemd160.c:180:5
	str	r4, [sp, #92]                   @ 4-byte Spill
	mov	r7, r4
	ldr	r5, [sp, #76]                   @ 4-byte Reload
.Ltmp109:
	@DEBUG_VALUE: mbedtls_internal_ripemd160_process:E <- $r5
	eors	r7, r5
.Ltmp110:
	@DEBUG_VALUE: mbedtls_internal_ripemd160_process:E <- [DW_OP_plus_uconst 76] [$sp+0]
	.loc	1 178 5                         @ ../../../ThirdParty/mbedTLS/library/ripemd160.c:178:5
	ldr	r5, [sp, #160]                  @ 4-byte Reload
	@DEBUG_VALUE: mbedtls_internal_ripemd160_process:A <- $r3
	rors	r3, r5
.Ltmp111:
	@DEBUG_VALUE: mbedtls_internal_ripemd160_process:A <- $r3
	.loc	1 179 5                         @ ../../../ThirdParty/mbedTLS/library/ripemd160.c:179:5
	eors	r2, r3
	@DEBUG_VALUE: mbedtls_internal_ripemd160_process:A <- $r3
	eors	r2, r4
.Ltmp112:
	@DEBUG_VALUE: mbedtls_internal_ripemd160_process:D <- [DW_OP_plus_uconst 92] [$sp+0]
	.loc	1 0 5 is_stmt 0                 @ ../../../ThirdParty/mbedTLS/library/ripemd160.c:0:5
	movs	r5, #32
.Ltmp113:
	.loc	1 135 5 is_stmt 1               @ ../../../ThirdParty/mbedTLS/library/ripemd160.c:135:5
	ldrb	r5, [r1, r5]
.Ltmp114:
	.loc	1 0 0 is_stmt 0                 @ ../../../ThirdParty/mbedTLS/library/ripemd160.c:0:0
	adds	r1, #32
.Ltmp115:
	@DEBUG_VALUE: mbedtls_internal_ripemd160_process:data <- [DW_OP_LLVM_entry_value 1] $r1
	.loc	1 135 5                         @ ../../../ThirdParty/mbedTLS/library/ripemd160.c:135:5
	ldrb	r6, [r1, #1]
	lsls	r6, r6, #8
	adds	r5, r6, r5
	ldrb	r6, [r1, #2]
	lsls	r6, r6, #16
	adds	r5, r5, r6
	ldrb	r6, [r1, #3]
	lsls	r6, r6, #24
	adds	r5, r5, r6
.Ltmp116:
	@DEBUG_VALUE: mbedtls_internal_ripemd160_process:X <- [DW_OP_LLVM_fragment 256 32] $r5
	.loc	1 179 5 is_stmt 1               @ ../../../ThirdParty/mbedTLS/library/ripemd160.c:179:5
	str	r5, [sp, #72]                   @ 4-byte Spill
	ldr	r6, [sp, #148]                  @ 4-byte Reload
.Ltmp117:
	@DEBUG_VALUE: mbedtls_internal_ripemd160_process:C <- $r6
	adds	r5, r6, r5
.Ltmp118:
	@DEBUG_VALUE: mbedtls_internal_ripemd160_process:X <- [DW_OP_plus_uconst 72, DW_OP_LLVM_fragment 256 32] [$sp+0]
	@DEBUG_VALUE: mbedtls_internal_ripemd160_process:X <- [DW_OP_LLVM_fragment 256 32] $r5
	adds	r2, r5, r2
.Ltmp119:
	@DEBUG_VALUE: mbedtls_internal_ripemd160_process:C <- $r2
	ldr	r5, [sp, #144]                  @ 4-byte Reload
.Ltmp120:
	rors	r2, r5
.Ltmp121:
	adds	r4, r2, r0
.Ltmp122:
	@DEBUG_VALUE: mbedtls_internal_ripemd160_process:C <- $r4
	.loc	1 180 5                         @ ../../../ThirdParty/mbedTLS/library/ripemd160.c:180:5
	eors	r7, r4
	@DEBUG_VALUE: mbedtls_internal_ripemd160_process:C <- $r4
.Ltmp123:
	.loc	1 136 5                         @ ../../../ThirdParty/mbedTLS/library/ripemd160.c:136:5
	str	r4, [sp, #148]                  @ 4-byte Spill
	ldrb	r5, [r1, #4]
	ldrb	r6, [r1, #5]
	lsls	r6, r6, #8
	adds	r5, r6, r5
	ldrb	r6, [r1, #6]
	lsls	r6, r6, #16
	adds	r5, r5, r6
	ldrb	r6, [r1, #7]
	lsls	r6, r6, #24
	adds	r5, r5, r6
.Ltmp124:
	@DEBUG_VALUE: mbedtls_internal_ripemd160_process:X <- [DW_OP_LLVM_fragment 288 32] $r5
	.loc	1 180 5                         @ ../../../ThirdParty/mbedTLS/library/ripemd160.c:180:5
	str	r5, [sp, #96]                   @ 4-byte Spill
.Ltmp125:
	@DEBUG_VALUE: mbedtls_internal_ripemd160_process:X <- [DW_OP_plus_uconst 96, DW_OP_LLVM_fragment 288 32] [$sp+0]
	adds	r0, r0, r5
.Ltmp126:
	@DEBUG_VALUE: mbedtls_internal_ripemd160_process:X <- [DW_OP_plus_uconst 96, DW_OP_LLVM_fragment 288 32] [$sp+0]
	adds	r0, r0, r7
.Ltmp127:
	@DEBUG_VALUE: mbedtls_internal_ripemd160_process:B <- $r0
	.loc	1 0 5 is_stmt 0                 @ ../../../ThirdParty/mbedTLS/library/ripemd160.c:0:5
	movs	r5, #19
	.loc	1 180 5                         @ ../../../ThirdParty/mbedTLS/library/ripemd160.c:180:5
	str	r5, [sp, #132]                  @ 4-byte Spill
	rors	r0, r5
.Ltmp128:
	@DEBUG_VALUE: mbedtls_internal_ripemd160_process:A <- $r3
	adds	r0, r0, r3
.Ltmp129:
	@DEBUG_VALUE: mbedtls_internal_ripemd160_process:B <- $r0
	.loc	1 182 5 is_stmt 1               @ ../../../ThirdParty/mbedTLS/library/ripemd160.c:182:5
	mov	r2, r0
	ldr	r5, [sp, #160]                  @ 4-byte Reload
	rors	r2, r5
.Ltmp130:
	@DEBUG_VALUE: mbedtls_internal_ripemd160_process:B <- $r2
	.loc	1 0 5 is_stmt 0                 @ ../../../ThirdParty/mbedTLS/library/ripemd160.c:0:5
	str	r2, [sp, #68]                   @ 4-byte Spill
.Ltmp131:
	@DEBUG_VALUE: mbedtls_internal_ripemd160_process:B <- [DW_OP_plus_uconst 68] [$sp+0]
	@DEBUG_VALUE: mbedtls_internal_ripemd160_process:B <- [DW_OP_plus_uconst 68] [$sp+0]
	ldr	r2, [sp, #92]                   @ 4-byte Reload
.Ltmp132:
	@DEBUG_VALUE: mbedtls_internal_ripemd160_process:D <- $r2
	.loc	1 180 5 is_stmt 1               @ ../../../ThirdParty/mbedTLS/library/ripemd160.c:180:5
	rors	r2, r5
.Ltmp133:
	@DEBUG_VALUE: mbedtls_internal_ripemd160_process:D <- $r2
	.loc	1 181 5                         @ ../../../ThirdParty/mbedTLS/library/ripemd160.c:181:5
	mov	r5, r4
.Ltmp134:
	@DEBUG_VALUE: mbedtls_internal_ripemd160_process:C <- $r5
	@DEBUG_VALUE: mbedtls_internal_ripemd160_process:C <- [DW_OP_plus_uconst 148] [$sp+0]
	eors	r5, r2
	mov	r4, r2
.Ltmp135:
	@DEBUG_VALUE: mbedtls_internal_ripemd160_process:D <- $r4
	@DEBUG_VALUE: mbedtls_internal_ripemd160_process:D <- $r4
	eors	r5, r0
.Ltmp136:
	.loc	1 137 5                         @ ../../../ThirdParty/mbedTLS/library/ripemd160.c:137:5
	ldrb	r6, [r1, #8]
	ldrb	r7, [r1, #9]
	lsls	r7, r7, #8
	adds	r6, r7, r6
	ldrb	r7, [r1, #10]
	lsls	r7, r7, #16
	adds	r6, r6, r7
	ldrb	r7, [r1, #11]
	lsls	r7, r7, #24
	adds	r6, r6, r7
.Ltmp137:
	@DEBUG_VALUE: mbedtls_internal_ripemd160_process:X <- [DW_OP_LLVM_fragment 320 32] $r6
	.loc	1 181 5                         @ ../../../ThirdParty/mbedTLS/library/ripemd160.c:181:5
	str	r6, [sp, #60]                   @ 4-byte Spill
.Ltmp138:
	@DEBUG_VALUE: mbedtls_internal_ripemd160_process:X <- [DW_OP_plus_uconst 60, DW_OP_LLVM_fragment 320 32] [$sp+0]
	adds	r3, r3, r6
.Ltmp139:
	@DEBUG_VALUE: mbedtls_internal_ripemd160_process:X <- [DW_OP_plus_uconst 60, DW_OP_LLVM_fragment 320 32] [$sp+0]
	adds	r3, r3, r5
.Ltmp140:
	@DEBUG_VALUE: mbedtls_internal_ripemd160_process:A <- $r3
	ldr	r5, [sp, #124]                  @ 4-byte Reload
	rors	r3, r5
.Ltmp141:
	.loc	1 0 5 is_stmt 0                 @ ../../../ThirdParty/mbedTLS/library/ripemd160.c:0:5
	ldr	r2, [sp, #76]                   @ 4-byte Reload
.Ltmp142:
	@DEBUG_VALUE: mbedtls_internal_ripemd160_process:E <- $r2
	.loc	1 181 5                         @ ../../../ThirdParty/mbedTLS/library/ripemd160.c:181:5
	adds	r7, r3, r2
.Ltmp143:
	@DEBUG_VALUE: mbedtls_internal_ripemd160_process:A <- $r7
	.loc	1 183 5 is_stmt 1               @ ../../../ThirdParty/mbedTLS/library/ripemd160.c:183:5
	str	r7, [sp, #52]                   @ 4-byte Spill
	mov	r5, r7
	ldr	r3, [sp, #68]                   @ 4-byte Reload
.Ltmp144:
	@DEBUG_VALUE: mbedtls_internal_ripemd160_process:B <- $r3
	eors	r5, r3
.Ltmp145:
	@DEBUG_VALUE: mbedtls_internal_ripemd160_process:B <- [DW_OP_plus_uconst 68] [$sp+0]
	.loc	1 0 5 is_stmt 0                 @ ../../../ThirdParty/mbedTLS/library/ripemd160.c:0:5
	ldr	r3, [sp, #148]                  @ 4-byte Reload
.Ltmp146:
	@DEBUG_VALUE: mbedtls_internal_ripemd160_process:C <- $r3
	.loc	1 181 5 is_stmt 1               @ ../../../ThirdParty/mbedTLS/library/ripemd160.c:181:5
	ldr	r6, [sp, #160]                  @ 4-byte Reload
	rors	r3, r6
.Ltmp147:
	@DEBUG_VALUE: mbedtls_internal_ripemd160_process:C <- $r3
	.loc	1 182 5                         @ ../../../ThirdParty/mbedTLS/library/ripemd160.c:182:5
	eors	r0, r3
	@DEBUG_VALUE: mbedtls_internal_ripemd160_process:C <- $r3
	eors	r0, r7
.Ltmp148:
	@DEBUG_VALUE: mbedtls_internal_ripemd160_process:A <- [DW_OP_plus_uconst 52] [$sp+0]
	.loc	1 138 5                         @ ../../../ThirdParty/mbedTLS/library/ripemd160.c:138:5
	ldrb	r6, [r1, #12]
	ldrb	r7, [r1, #13]
	lsls	r7, r7, #8
	adds	r6, r7, r6
	ldrb	r7, [r1, #14]
	lsls	r7, r7, #16
	adds	r6, r6, r7
	ldrb	r7, [r1, #15]
	lsls	r7, r7, #24
	adds	r6, r6, r7
.Ltmp149:
	@DEBUG_VALUE: mbedtls_internal_ripemd160_process:X <- [DW_OP_LLVM_fragment 352 32] $r6
	.loc	1 182 5                         @ ../../../ThirdParty/mbedTLS/library/ripemd160.c:182:5
	str	r6, [sp, #92]                   @ 4-byte Spill
.Ltmp150:
	@DEBUG_VALUE: mbedtls_internal_ripemd160_process:X <- [DW_OP_plus_uconst 92, DW_OP_LLVM_fragment 352 32] [$sp+0]
	adds	r6, r2, r6
	@DEBUG_VALUE: mbedtls_internal_ripemd160_process:X <- [DW_OP_plus_uconst 92, DW_OP_LLVM_fragment 352 32] [$sp+0]
.Ltmp151:
	@DEBUG_VALUE: mbedtls_internal_ripemd160_process:X <- [DW_OP_LLVM_fragment 352 32] $r6
	adds	r0, r6, r0
.Ltmp152:
	@DEBUG_VALUE: mbedtls_internal_ripemd160_process:E <- $r0
	ldr	r6, [sp, #128]                  @ 4-byte Reload
.Ltmp153:
	rors	r0, r6
.Ltmp154:
	adds	r0, r0, r4
.Ltmp155:
	@DEBUG_VALUE: mbedtls_internal_ripemd160_process:E <- $r0
	.loc	1 183 5                         @ ../../../ThirdParty/mbedTLS/library/ripemd160.c:183:5
	eors	r5, r0
.Ltmp156:
	.loc	1 139 5                         @ ../../../ThirdParty/mbedTLS/library/ripemd160.c:139:5
	ldrb	r6, [r1, #16]
	ldrb	r7, [r1, #17]
	lsls	r7, r7, #8
	adds	r6, r7, r6
	ldrb	r7, [r1, #18]
	lsls	r7, r7, #16
	adds	r6, r6, r7
	ldrb	r7, [r1, #19]
	lsls	r7, r7, #24
	adds	r6, r6, r7
.Ltmp157:
	@DEBUG_VALUE: mbedtls_internal_ripemd160_process:X <- [DW_OP_LLVM_fragment 384 32] $r6
	.loc	1 183 5                         @ ../../../ThirdParty/mbedTLS/library/ripemd160.c:183:5
	str	r6, [sp, #56]                   @ 4-byte Spill
.Ltmp158:
	@DEBUG_VALUE: mbedtls_internal_ripemd160_process:X <- [DW_OP_plus_uconst 56, DW_OP_LLVM_fragment 384 32] [$sp+0]
	adds	r4, r4, r6
.Ltmp159:
	@DEBUG_VALUE: mbedtls_internal_ripemd160_process:X <- [DW_OP_plus_uconst 56, DW_OP_LLVM_fragment 384 32] [$sp+0]
	adds	r4, r4, r5
.Ltmp160:
	@DEBUG_VALUE: mbedtls_internal_ripemd160_process:D <- $r4
	.loc	1 0 5 is_stmt 0                 @ ../../../ThirdParty/mbedTLS/library/ripemd160.c:0:5
	movs	r5, #26
	.loc	1 183 5                         @ ../../../ThirdParty/mbedTLS/library/ripemd160.c:183:5
	str	r5, [sp, #148]                  @ 4-byte Spill
	rors	r4, r5
.Ltmp161:
	adds	r5, r4, r3
.Ltmp162:
	@DEBUG_VALUE: mbedtls_internal_ripemd160_process:D <- $r5
	.loc	1 185 5 is_stmt 1               @ ../../../ThirdParty/mbedTLS/library/ripemd160.c:185:5
	mov	r2, r5
	ldr	r4, [sp, #160]                  @ 4-byte Reload
	rors	r2, r4
.Ltmp163:
	@DEBUG_VALUE: mbedtls_internal_ripemd160_process:D <- $r2
	.loc	1 0 5 is_stmt 0                 @ ../../../ThirdParty/mbedTLS/library/ripemd160.c:0:5
	str	r2, [sp, #48]                   @ 4-byte Spill
.Ltmp164:
	@DEBUG_VALUE: mbedtls_internal_ripemd160_process:D <- [DW_OP_plus_uconst 48] [$sp+0]
	@DEBUG_VALUE: mbedtls_internal_ripemd160_process:D <- [DW_OP_plus_uconst 48] [$sp+0]
	ldr	r2, [sp, #52]                   @ 4-byte Reload
.Ltmp165:
	@DEBUG_VALUE: mbedtls_internal_ripemd160_process:A <- $r2
	.loc	1 183 5 is_stmt 1               @ ../../../ThirdParty/mbedTLS/library/ripemd160.c:183:5
	rors	r2, r4
.Ltmp166:
	@DEBUG_VALUE: mbedtls_internal_ripemd160_process:A <- $r2
	.loc	1 184 5                         @ ../../../ThirdParty/mbedTLS/library/ripemd160.c:184:5
	str	r2, [sp, #52]                   @ 4-byte Spill
	mov	r6, r0
	eors	r6, r2
.Ltmp167:
	@DEBUG_VALUE: mbedtls_internal_ripemd160_process:A <- [DW_OP_plus_uconst 52] [$sp+0]
	eors	r6, r5
.Ltmp168:
	.loc	1 140 5                         @ ../../../ThirdParty/mbedTLS/library/ripemd160.c:140:5
	ldrb	r7, [r1, #20]
	ldrb	r4, [r1, #21]
	lsls	r4, r4, #8
	adds	r4, r4, r7
	ldrb	r7, [r1, #22]
	lsls	r7, r7, #16
	adds	r4, r4, r7
	ldrb	r7, [r1, #23]
	lsls	r7, r7, #24
	adds	r4, r4, r7
.Ltmp169:
	@DEBUG_VALUE: mbedtls_internal_ripemd160_process:X <- [DW_OP_LLVM_fragment 416 32] $r4
	.loc	1 184 5                         @ ../../../ThirdParty/mbedTLS/library/ripemd160.c:184:5
	str	r4, [sp, #76]                   @ 4-byte Spill
.Ltmp170:
	@DEBUG_VALUE: mbedtls_internal_ripemd160_process:X <- [DW_OP_plus_uconst 76, DW_OP_LLVM_fragment 416 32] [$sp+0]
	adds	r2, r3, r4
	@DEBUG_VALUE: mbedtls_internal_ripemd160_process:X <- [DW_OP_plus_uconst 76, DW_OP_LLVM_fragment 416 32] [$sp+0]
	adds	r2, r2, r6
.Ltmp171:
	@DEBUG_VALUE: mbedtls_internal_ripemd160_process:C <- $r2
	ldr	r4, [sp, #120]                  @ 4-byte Reload
	rors	r2, r4
.Ltmp172:
	.loc	1 0 5 is_stmt 0                 @ ../../../ThirdParty/mbedTLS/library/ripemd160.c:0:5
	ldr	r3, [sp, #68]                   @ 4-byte Reload
.Ltmp173:
	@DEBUG_VALUE: mbedtls_internal_ripemd160_process:B <- $r3
	.loc	1 184 5                         @ ../../../ThirdParty/mbedTLS/library/ripemd160.c:184:5
	adds	r6, r2, r3
.Ltmp174:
	@DEBUG_VALUE: mbedtls_internal_ripemd160_process:C <- $r6
	.loc	1 186 5 is_stmt 1               @ ../../../ThirdParty/mbedTLS/library/ripemd160.c:186:5
	mov	r2, r6
	ldr	r4, [sp, #48]                   @ 4-byte Reload
.Ltmp175:
	@DEBUG_VALUE: mbedtls_internal_ripemd160_process:D <- $r4
	eors	r2, r4
.Ltmp176:
	@DEBUG_VALUE: mbedtls_internal_ripemd160_process:D <- [DW_OP_plus_uconst 48] [$sp+0]
	.loc	1 184 5                         @ ../../../ThirdParty/mbedTLS/library/ripemd160.c:184:5
	ldr	r4, [sp, #160]                  @ 4-byte Reload
	rors	r0, r4
.Ltmp177:
	@DEBUG_VALUE: mbedtls_internal_ripemd160_process:E <- $r0
	.loc	1 185 5                         @ ../../../ThirdParty/mbedTLS/library/ripemd160.c:185:5
	eors	r5, r0
	eors	r5, r6
.Ltmp178:
	.loc	1 141 5                         @ ../../../ThirdParty/mbedTLS/library/ripemd160.c:141:5
	ldrb	r4, [r1, #24]
	ldrb	r7, [r1, #25]
	lsls	r7, r7, #8
	adds	r4, r7, r4
	ldrb	r7, [r1, #26]
	lsls	r7, r7, #16
	adds	r4, r4, r7
	ldrb	r7, [r1, #27]
	lsls	r7, r7, #24
	adds	r4, r4, r7
.Ltmp179:
	@DEBUG_VALUE: mbedtls_internal_ripemd160_process:X <- [DW_OP_LLVM_fragment 448 32] $r4
	.loc	1 185 5                         @ ../../../ThirdParty/mbedTLS/library/ripemd160.c:185:5
	str	r4, [sp, #64]                   @ 4-byte Spill
.Ltmp180:
	@DEBUG_VALUE: mbedtls_internal_ripemd160_process:X <- [DW_OP_plus_uconst 64, DW_OP_LLVM_fragment 448 32] [$sp+0]
	adds	r4, r3, r4
	@DEBUG_VALUE: mbedtls_internal_ripemd160_process:X <- [DW_OP_plus_uconst 64, DW_OP_LLVM_fragment 448 32] [$sp+0]
.Ltmp181:
	@DEBUG_VALUE: mbedtls_internal_ripemd160_process:X <- [DW_OP_LLVM_fragment 448 32] $r4
	adds	r4, r4, r5
.Ltmp182:
	@DEBUG_VALUE: mbedtls_internal_ripemd160_process:B <- $r4
	ldr	r5, [sp, #136]                  @ 4-byte Reload
	rors	r4, r5
.Ltmp183:
	.loc	1 0 5 is_stmt 0                 @ ../../../ThirdParty/mbedTLS/library/ripemd160.c:0:5
	ldr	r3, [sp, #52]                   @ 4-byte Reload
.Ltmp184:
	@DEBUG_VALUE: mbedtls_internal_ripemd160_process:A <- $r3
	.loc	1 185 5                         @ ../../../ThirdParty/mbedTLS/library/ripemd160.c:185:5
	adds	r7, r4, r3
.Ltmp185:
	@DEBUG_VALUE: mbedtls_internal_ripemd160_process:B <- $r7
	.loc	1 186 5 is_stmt 1               @ ../../../ThirdParty/mbedTLS/library/ripemd160.c:186:5
	eors	r2, r7
.Ltmp186:
	.loc	1 142 5                         @ ../../../ThirdParty/mbedTLS/library/ripemd160.c:142:5
	ldrb	r4, [r1, #28]
	ldrb	r5, [r1, #29]
	lsls	r5, r5, #8
	adds	r4, r5, r4
	ldrb	r5, [r1, #30]
	lsls	r5, r5, #16
	adds	r4, r4, r5
	ldrb	r1, [r1, #31]
	lsls	r1, r1, #24
	adds	r1, r4, r1
.Ltmp187:
	@DEBUG_VALUE: mbedtls_internal_ripemd160_process:X <- [DW_OP_LLVM_fragment 480 32] $r1
	.loc	1 186 5                         @ ../../../ThirdParty/mbedTLS/library/ripemd160.c:186:5
	str	r1, [sp, #68]                   @ 4-byte Spill
.Ltmp188:
	@DEBUG_VALUE: mbedtls_internal_ripemd160_process:X <- [DW_OP_plus_uconst 68, DW_OP_LLVM_fragment 480 32] [$sp+0]
	adds	r1, r3, r1
	@DEBUG_VALUE: mbedtls_internal_ripemd160_process:X <- [DW_OP_plus_uconst 68, DW_OP_LLVM_fragment 480 32] [$sp+0]
.Ltmp189:
	@DEBUG_VALUE: mbedtls_internal_ripemd160_process:X <- [DW_OP_LLVM_fragment 480 32] $r1
	adds	r1, r1, r2
.Ltmp190:
	@DEBUG_VALUE: mbedtls_internal_ripemd160_process:A <- $r1
	ldr	r2, [sp, #156]                  @ 4-byte Reload
	rors	r1, r2
.Ltmp191:
	adds	r3, r1, r0
.Ltmp192:
	@DEBUG_VALUE: mbedtls_internal_ripemd160_process:A <- $r3
	.loc	1 0 5 is_stmt 0                 @ ../../../ThirdParty/mbedTLS/library/ripemd160.c:0:5
	ldr	r5, [sp, #160]                  @ 4-byte Reload
	.loc	1 186 5                         @ ../../../ThirdParty/mbedTLS/library/ripemd160.c:186:5
	rors	r6, r5
.Ltmp193:
	@DEBUG_VALUE: mbedtls_internal_ripemd160_process:C <- $r6
	.loc	1 196 5 is_stmt 1               @ ../../../ThirdParty/mbedTLS/library/ripemd160.c:196:5
	mov	r1, r6
	bics	r1, r3
	mov	r2, r3
	ands	r2, r7
	orrs	r2, r1
	ldr	r1, [sp, #80]                   @ 4-byte Reload
.Ltmp194:
	@DEBUG_VALUE: mbedtls_internal_ripemd160_process:X <- [DW_OP_LLVM_fragment 224 32] $r1
	adds	r0, r1, r0
.Ltmp195:
	@DEBUG_VALUE: mbedtls_internal_ripemd160_process:X <- [DW_OP_plus_uconst 80, DW_OP_LLVM_fragment 224 32] [$sp+0]
	adds	r0, r0, r2
	ldr	r1, __arm_cp.5_8
	adds	r0, r0, r1
.Ltmp196:
	@DEBUG_VALUE: mbedtls_internal_ripemd160_process:E <- $r0
	ldr	r1, [sp, #120]                  @ 4-byte Reload
	rors	r0, r1
.Ltmp197:
	.loc	1 0 5 is_stmt 0                 @ ../../../ThirdParty/mbedTLS/library/ripemd160.c:0:5
	ldr	r1, [sp, #48]                   @ 4-byte Reload
.Ltmp198:
	@DEBUG_VALUE: mbedtls_internal_ripemd160_process:D <- $r1
	.loc	1 196 5                         @ ../../../ThirdParty/mbedTLS/library/ripemd160.c:196:5
	adds	r0, r0, r1
.Ltmp199:
	@DEBUG_VALUE: mbedtls_internal_ripemd160_process:E <- $r0
	rors	r7, r5
.Ltmp200:
	@DEBUG_VALUE: mbedtls_internal_ripemd160_process:B <- $r7
	.loc	1 197 5 is_stmt 1               @ ../../../ThirdParty/mbedTLS/library/ripemd160.c:197:5
	mov	r2, r7
	bics	r2, r0
	mov	r4, r0
	ands	r4, r3
	orrs	r4, r2
	ldr	r2, [sp, #88]                   @ 4-byte Reload
.Ltmp201:
	@DEBUG_VALUE: mbedtls_internal_ripemd160_process:X <- [DW_OP_LLVM_fragment 128 32] $r2
	adds	r2, r2, r1
.Ltmp202:
	@DEBUG_VALUE: mbedtls_internal_ripemd160_process:X <- [DW_OP_plus_uconst 88, DW_OP_LLVM_fragment 128 32] [$sp+0]
	adds	r2, r2, r4
	ldr	r1, __arm_cp.5_8
.Ltmp203:
	adds	r2, r2, r1
.Ltmp204:
	@DEBUG_VALUE: mbedtls_internal_ripemd160_process:D <- $r2
	ldr	r4, [sp, #148]                  @ 4-byte Reload
	rors	r2, r4
.Ltmp205:
	adds	r4, r2, r6
.Ltmp206:
	@DEBUG_VALUE: mbedtls_internal_ripemd160_process:D <- $r4
	rors	r3, r5
.Ltmp207:
	@DEBUG_VALUE: mbedtls_internal_ripemd160_process:A <- $r3
	.loc	1 0 5 is_stmt 0                 @ ../../../ThirdParty/mbedTLS/library/ripemd160.c:0:5
	mov	r1, r5
	.loc	1 198 5 is_stmt 1               @ ../../../ThirdParty/mbedTLS/library/ripemd160.c:198:5
	mov	r2, r3
	bics	r2, r4
	mov	r5, r4
	ands	r5, r0
	orrs	r5, r2
	ldr	r2, [sp, #76]                   @ 4-byte Reload
.Ltmp208:
	@DEBUG_VALUE: mbedtls_internal_ripemd160_process:X <- [DW_OP_LLVM_fragment 416 32] $r2
	adds	r2, r2, r6
.Ltmp209:
	@DEBUG_VALUE: mbedtls_internal_ripemd160_process:X <- [DW_OP_plus_uconst 76, DW_OP_LLVM_fragment 416 32] [$sp+0]
	adds	r2, r2, r5
	ldr	r5, __arm_cp.5_8
	adds	r2, r2, r5
.Ltmp210:
	@DEBUG_VALUE: mbedtls_internal_ripemd160_process:C <- $r2
	ldr	r5, [sp, #156]                  @ 4-byte Reload
	rors	r2, r5
.Ltmp211:
	adds	r2, r2, r7
.Ltmp212:
	@DEBUG_VALUE: mbedtls_internal_ripemd160_process:C <- $r2
	rors	r0, r1
.Ltmp213:
	@DEBUG_VALUE: mbedtls_internal_ripemd160_process:E <- $r0
	.loc	1 199 5                         @ ../../../ThirdParty/mbedTLS/library/ripemd160.c:199:5
	mov	r5, r0
	bics	r5, r2
	mov	r6, r2
	ands	r6, r4
	orrs	r6, r5
	ldr	r5, [sp, #104]                  @ 4-byte Reload
.Ltmp214:
	@DEBUG_VALUE: mbedtls_internal_ripemd160_process:X <- [DW_OP_LLVM_fragment 32 32] $r5
	adds	r5, r5, r7
.Ltmp215:
	@DEBUG_VALUE: mbedtls_internal_ripemd160_process:X <- [DW_OP_plus_uconst 104, DW_OP_LLVM_fragment 32 32] [$sp+0]
	adds	r5, r5, r6
	ldr	r1, __arm_cp.5_8
	adds	r5, r5, r1
.Ltmp216:
	@DEBUG_VALUE: mbedtls_internal_ripemd160_process:B <- $r5
	ldr	r1, [sp, #132]                  @ 4-byte Reload
	rors	r5, r1
.Ltmp217:
	adds	r7, r5, r3
.Ltmp218:
	@DEBUG_VALUE: mbedtls_internal_ripemd160_process:B <- $r7
	ldr	r1, [sp, #160]                  @ 4-byte Reload
	rors	r4, r1
.Ltmp219:
	@DEBUG_VALUE: mbedtls_internal_ripemd160_process:D <- $r4
	.loc	1 200 5                         @ ../../../ThirdParty/mbedTLS/library/ripemd160.c:200:5
	mov	r5, r4
	bics	r5, r7
	mov	r6, r7
	ands	r6, r2
	orrs	r6, r5
	ldr	r5, [sp, #60]                   @ 4-byte Reload
.Ltmp220:
	@DEBUG_VALUE: mbedtls_internal_ripemd160_process:X <- [DW_OP_LLVM_fragment 320 32] $r5
	adds	r3, r5, r3
.Ltmp221:
	@DEBUG_VALUE: mbedtls_internal_ripemd160_process:X <- [DW_OP_plus_uconst 60, DW_OP_LLVM_fragment 320 32] [$sp+0]
	adds	r3, r3, r6
	ldr	r1, __arm_cp.5_8
	adds	r3, r3, r1
.Ltmp222:
	@DEBUG_VALUE: mbedtls_internal_ripemd160_process:A <- $r3
	ldr	r1, [sp, #144]                  @ 4-byte Reload
	rors	r3, r1
.Ltmp223:
	adds	r3, r3, r0
.Ltmp224:
	@DEBUG_VALUE: mbedtls_internal_ripemd160_process:A <- $r3
	ldr	r1, [sp, #160]                  @ 4-byte Reload
	rors	r2, r1
.Ltmp225:
	@DEBUG_VALUE: mbedtls_internal_ripemd160_process:C <- $r2
	.loc	1 201 5                         @ ../../../ThirdParty/mbedTLS/library/ripemd160.c:201:5
	mov	r5, r2
	bics	r5, r3
	mov	r6, r3
	ands	r6, r7
	orrs	r6, r5
	ldr	r5, [sp, #100]                  @ 4-byte Reload
.Ltmp226:
	@DEBUG_VALUE: mbedtls_internal_ripemd160_process:X <- [DW_OP_LLVM_fragment 192 32] $r5
	adds	r0, r5, r0
.Ltmp227:
	@DEBUG_VALUE: mbedtls_internal_ripemd160_process:X <- [DW_OP_plus_uconst 100, DW_OP_LLVM_fragment 192 32] [$sp+0]
	adds	r0, r0, r6
	ldr	r1, __arm_cp.5_8
	adds	r0, r0, r1
.Ltmp228:
	@DEBUG_VALUE: mbedtls_internal_ripemd160_process:E <- $r0
	ldr	r1, [sp, #136]                  @ 4-byte Reload
	rors	r0, r1
.Ltmp229:
	adds	r0, r0, r4
.Ltmp230:
	@DEBUG_VALUE: mbedtls_internal_ripemd160_process:E <- $r0
	.loc	1 0 5 is_stmt 0                 @ ../../../ThirdParty/mbedTLS/library/ripemd160.c:0:5
	ldr	r1, [sp, #160]                  @ 4-byte Reload
	.loc	1 201 5                         @ ../../../ThirdParty/mbedTLS/library/ripemd160.c:201:5
	rors	r7, r1
.Ltmp231:
	@DEBUG_VALUE: mbedtls_internal_ripemd160_process:B <- $r7
	.loc	1 202 5 is_stmt 1               @ ../../../ThirdParty/mbedTLS/library/ripemd160.c:202:5
	mov	r5, r7
	bics	r5, r0
	mov	r6, r0
	ands	r6, r3
	orrs	r6, r5
	ldr	r5, [sp, #68]                   @ 4-byte Reload
.Ltmp232:
	@DEBUG_VALUE: mbedtls_internal_ripemd160_process:X <- [DW_OP_LLVM_fragment 480 32] $r5
	adds	r4, r5, r4
.Ltmp233:
	@DEBUG_VALUE: mbedtls_internal_ripemd160_process:X <- [DW_OP_plus_uconst 68, DW_OP_LLVM_fragment 480 32] [$sp+0]
	adds	r4, r4, r6
	ldr	r5, __arm_cp.5_8
	adds	r4, r4, r5
.Ltmp234:
	@DEBUG_VALUE: mbedtls_internal_ripemd160_process:D <- $r4
	ldr	r5, [sp, #120]                  @ 4-byte Reload
	rors	r4, r5
.Ltmp235:
	adds	r4, r4, r2
.Ltmp236:
	@DEBUG_VALUE: mbedtls_internal_ripemd160_process:D <- $r4
	rors	r3, r1
.Ltmp237:
	@DEBUG_VALUE: mbedtls_internal_ripemd160_process:A <- $r3
	.loc	1 203 5                         @ ../../../ThirdParty/mbedTLS/library/ripemd160.c:203:5
	mov	r5, r3
	bics	r5, r4
	mov	r6, r4
	ands	r6, r0
	orrs	r6, r5
	ldr	r5, [sp, #112]                  @ 4-byte Reload
.Ltmp238:
	@DEBUG_VALUE: mbedtls_internal_ripemd160_process:X <- [DW_OP_LLVM_fragment 96 32] $r5
	adds	r2, r5, r2
.Ltmp239:
	@DEBUG_VALUE: mbedtls_internal_ripemd160_process:X <- [DW_OP_plus_uconst 112, DW_OP_LLVM_fragment 96 32] [$sp+0]
	adds	r2, r2, r6
	ldr	r1, __arm_cp.5_8
	adds	r2, r2, r1
.Ltmp240:
	@DEBUG_VALUE: mbedtls_internal_ripemd160_process:C <- $r2
	ldr	r1, [sp, #128]                  @ 4-byte Reload
	rors	r2, r1
.Ltmp241:
	adds	r2, r2, r7
.Ltmp242:
	@DEBUG_VALUE: mbedtls_internal_ripemd160_process:C <- $r2
	.loc	1 0 5 is_stmt 0                 @ ../../../ThirdParty/mbedTLS/library/ripemd160.c:0:5
	ldr	r1, [sp, #160]                  @ 4-byte Reload
	.loc	1 203 5                         @ ../../../ThirdParty/mbedTLS/library/ripemd160.c:203:5
	rors	r0, r1
.Ltmp243:
	@DEBUG_VALUE: mbedtls_internal_ripemd160_process:E <- $r0
	.loc	1 204 5 is_stmt 1               @ ../../../ThirdParty/mbedTLS/library/ripemd160.c:204:5
	mov	r5, r0
	bics	r5, r2
	mov	r6, r2
	ands	r6, r4
	orrs	r6, r5
	ldr	r5, [sp, #56]                   @ 4-byte Reload
.Ltmp244:
	@DEBUG_VALUE: mbedtls_internal_ripemd160_process:X <- [DW_OP_LLVM_fragment 384 32] $r5
	adds	r5, r5, r7
.Ltmp245:
	@DEBUG_VALUE: mbedtls_internal_ripemd160_process:X <- [DW_OP_plus_uconst 56, DW_OP_LLVM_fragment 384 32] [$sp+0]
	adds	r5, r5, r6
	ldr	r6, __arm_cp.5_8
	adds	r5, r5, r6
.Ltmp246:
	@DEBUG_VALUE: mbedtls_internal_ripemd160_process:B <- $r5
	ldr	r6, [sp, #120]                  @ 4-byte Reload
	rors	r5, r6
.Ltmp247:
	adds	r7, r5, r3
.Ltmp248:
	@DEBUG_VALUE: mbedtls_internal_ripemd160_process:B <- $r7
	rors	r4, r1
.Ltmp249:
	@DEBUG_VALUE: mbedtls_internal_ripemd160_process:D <- $r4
	.loc	1 205 5                         @ ../../../ThirdParty/mbedTLS/library/ripemd160.c:205:5
	mov	r5, r4
	bics	r5, r7
	mov	r6, r7
	ands	r6, r2
	orrs	r6, r5
	ldr	r5, [sp, #116]                  @ 4-byte Reload
.Ltmp250:
	@DEBUG_VALUE: mbedtls_internal_ripemd160_process:X <- [DW_OP_LLVM_fragment 0 32] $r5
	adds	r3, r5, r3
.Ltmp251:
	@DEBUG_VALUE: mbedtls_internal_ripemd160_process:X <- [DW_OP_plus_uconst 116, DW_OP_LLVM_fragment 0 32] [$sp+0]
	adds	r3, r3, r6
	ldr	r1, __arm_cp.5_8
	adds	r3, r3, r1
.Ltmp252:
	@DEBUG_VALUE: mbedtls_internal_ripemd160_process:A <- $r3
	ldr	r1, [sp, #140]                  @ 4-byte Reload
	rors	r3, r1
.Ltmp253:
	adds	r3, r3, r0
.Ltmp254:
	@DEBUG_VALUE: mbedtls_internal_ripemd160_process:A <- $r3
	.loc	1 0 5 is_stmt 0                 @ ../../../ThirdParty/mbedTLS/library/ripemd160.c:0:5
	ldr	r1, [sp, #160]                  @ 4-byte Reload
	.loc	1 205 5                         @ ../../../ThirdParty/mbedTLS/library/ripemd160.c:205:5
	rors	r2, r1
.Ltmp255:
	@DEBUG_VALUE: mbedtls_internal_ripemd160_process:C <- $r2
	.loc	1 206 5 is_stmt 1               @ ../../../ThirdParty/mbedTLS/library/ripemd160.c:206:5
	mov	r5, r2
	bics	r5, r3
	mov	r6, r3
	ands	r6, r7
	orrs	r6, r5
	ldr	r5, [sp, #96]                   @ 4-byte Reload
.Ltmp256:
	@DEBUG_VALUE: mbedtls_internal_ripemd160_process:X <- [DW_OP_LLVM_fragment 288 32] $r5
	adds	r0, r5, r0
.Ltmp257:
	@DEBUG_VALUE: mbedtls_internal_ripemd160_process:X <- [DW_OP_plus_uconst 96, DW_OP_LLVM_fragment 288 32] [$sp+0]
	adds	r0, r0, r6
	ldr	r5, __arm_cp.5_8
	adds	r0, r0, r5
.Ltmp258:
	@DEBUG_VALUE: mbedtls_internal_ripemd160_process:E <- $r0
	ldr	r5, [sp, #128]                  @ 4-byte Reload
	rors	r0, r5
.Ltmp259:
	adds	r0, r0, r4
.Ltmp260:
	@DEBUG_VALUE: mbedtls_internal_ripemd160_process:E <- $r0
	rors	r7, r1
.Ltmp261:
	@DEBUG_VALUE: mbedtls_internal_ripemd160_process:B <- $r7
	.loc	1 207 5                         @ ../../../ThirdParty/mbedTLS/library/ripemd160.c:207:5
	mov	r5, r7
	bics	r5, r0
	mov	r6, r0
	ands	r6, r3
	orrs	r6, r5
	ldr	r5, [sp, #84]                   @ 4-byte Reload
.Ltmp262:
	@DEBUG_VALUE: mbedtls_internal_ripemd160_process:X <- [DW_OP_LLVM_fragment 160 32] $r5
	adds	r4, r5, r4
.Ltmp263:
	@DEBUG_VALUE: mbedtls_internal_ripemd160_process:X <- [DW_OP_plus_uconst 84, DW_OP_LLVM_fragment 160 32] [$sp+0]
	adds	r4, r4, r6
	ldr	r1, __arm_cp.5_8
	adds	r4, r4, r1
.Ltmp264:
	@DEBUG_VALUE: mbedtls_internal_ripemd160_process:D <- $r4
	ldr	r1, [sp, #136]                  @ 4-byte Reload
	rors	r4, r1
.Ltmp265:
	adds	r4, r4, r2
.Ltmp266:
	@DEBUG_VALUE: mbedtls_internal_ripemd160_process:D <- $r4
	ldr	r1, [sp, #160]                  @ 4-byte Reload
	rors	r3, r1
.Ltmp267:
	@DEBUG_VALUE: mbedtls_internal_ripemd160_process:A <- $r3
	.loc	1 208 5                         @ ../../../ThirdParty/mbedTLS/library/ripemd160.c:208:5
	mov	r5, r3
	bics	r5, r4
	mov	r6, r4
	ands	r6, r0
	orrs	r6, r5
	ldr	r5, [sp, #108]                  @ 4-byte Reload
.Ltmp268:
	@DEBUG_VALUE: mbedtls_internal_ripemd160_process:X <- [DW_OP_LLVM_fragment 64 32] $r5
	adds	r2, r5, r2
.Ltmp269:
	@DEBUG_VALUE: mbedtls_internal_ripemd160_process:X <- [DW_OP_plus_uconst 108, DW_OP_LLVM_fragment 64 32] [$sp+0]
	adds	r2, r2, r6
	ldr	r1, __arm_cp.5_8
	adds	r2, r2, r1
.Ltmp270:
	@DEBUG_VALUE: mbedtls_internal_ripemd160_process:C <- $r2
	ldr	r1, [sp, #144]                  @ 4-byte Reload
	rors	r2, r1
.Ltmp271:
	adds	r2, r2, r7
.Ltmp272:
	@DEBUG_VALUE: mbedtls_internal_ripemd160_process:C <- $r2
	ldr	r1, [sp, #160]                  @ 4-byte Reload
	rors	r0, r1
.Ltmp273:
	@DEBUG_VALUE: mbedtls_internal_ripemd160_process:E <- $r0
	.loc	1 209 5                         @ ../../../ThirdParty/mbedTLS/library/ripemd160.c:209:5
	mov	r5, r0
	bics	r5, r2
	mov	r6, r2
	ands	r6, r4
	orrs	r6, r5
	ldr	r5, [sp, #64]                   @ 4-byte Reload
.Ltmp274:
	@DEBUG_VALUE: mbedtls_internal_ripemd160_process:X <- [DW_OP_LLVM_fragment 448 32] $r5
	adds	r5, r5, r7
.Ltmp275:
	@DEBUG_VALUE: mbedtls_internal_ripemd160_process:X <- [DW_OP_plus_uconst 64, DW_OP_LLVM_fragment 448 32] [$sp+0]
	adds	r5, r5, r6
	ldr	r1, __arm_cp.5_8
	adds	r5, r5, r1
.Ltmp276:
	@DEBUG_VALUE: mbedtls_internal_ripemd160_process:B <- $r5
	ldr	r1, [sp, #120]                  @ 4-byte Reload
	rors	r5, r1
.Ltmp277:
	adds	r7, r5, r3
.Ltmp278:
	@DEBUG_VALUE: mbedtls_internal_ripemd160_process:B <- $r7
	ldr	r1, [sp, #160]                  @ 4-byte Reload
	rors	r4, r1
.Ltmp279:
	@DEBUG_VALUE: mbedtls_internal_ripemd160_process:D <- $r4
	.loc	1 210 5                         @ ../../../ThirdParty/mbedTLS/library/ripemd160.c:210:5
	mov	r5, r4
	bics	r5, r7
	mov	r6, r7
	ands	r6, r2
	orrs	r6, r5
	ldr	r5, [sp, #92]                   @ 4-byte Reload
.Ltmp280:
	@DEBUG_VALUE: mbedtls_internal_ripemd160_process:X <- [DW_OP_LLVM_fragment 352 32] $r5
	adds	r3, r5, r3
.Ltmp281:
	@DEBUG_VALUE: mbedtls_internal_ripemd160_process:X <- [DW_OP_plus_uconst 92, DW_OP_LLVM_fragment 352 32] [$sp+0]
	adds	r3, r3, r6
	ldr	r1, __arm_cp.5_8
	adds	r3, r3, r1
.Ltmp282:
	@DEBUG_VALUE: mbedtls_internal_ripemd160_process:A <- $r3
	ldr	r1, [sp, #132]                  @ 4-byte Reload
	rors	r3, r1
.Ltmp283:
	adds	r3, r3, r0
.Ltmp284:
	@DEBUG_VALUE: mbedtls_internal_ripemd160_process:A <- $r3
	ldr	r1, [sp, #160]                  @ 4-byte Reload
	rors	r2, r1
.Ltmp285:
	@DEBUG_VALUE: mbedtls_internal_ripemd160_process:C <- $r2
	.loc	1 211 5                         @ ../../../ThirdParty/mbedTLS/library/ripemd160.c:211:5
	mov	r5, r2
	bics	r5, r3
	mov	r6, r3
	ands	r6, r7
	orrs	r6, r5
	ldr	r5, [sp, #72]                   @ 4-byte Reload
.Ltmp286:
	@DEBUG_VALUE: mbedtls_internal_ripemd160_process:X <- [DW_OP_LLVM_fragment 256 32] $r5
	adds	r0, r5, r0
.Ltmp287:
	@DEBUG_VALUE: mbedtls_internal_ripemd160_process:X <- [DW_OP_plus_uconst 72, DW_OP_LLVM_fragment 256 32] [$sp+0]
	adds	r0, r0, r6
	ldr	r1, __arm_cp.5_8
	adds	r0, r0, r1
.Ltmp288:
	@DEBUG_VALUE: mbedtls_internal_ripemd160_process:E <- $r0
	ldr	r1, [sp, #140]                  @ 4-byte Reload
	rors	r0, r1
.Ltmp289:
	adds	r1, r0, r4
.Ltmp290:
	@DEBUG_VALUE: mbedtls_internal_ripemd160_process:E <- $r1
	mvns	r0, r3
	.loc	1 221 5                         @ ../../../ThirdParty/mbedTLS/library/ripemd160.c:221:5
	orrs	r0, r1
	ldr	r6, [sp, #160]                  @ 4-byte Reload
	.loc	1 211 5                         @ ../../../ThirdParty/mbedTLS/library/ripemd160.c:211:5
	rors	r7, r6
.Ltmp291:
	@DEBUG_VALUE: mbedtls_internal_ripemd160_process:B <- $r7
	.loc	1 221 5                         @ ../../../ThirdParty/mbedTLS/library/ripemd160.c:221:5
	eors	r0, r7
	ldr	r5, [sp, #112]                  @ 4-byte Reload
.Ltmp292:
	@DEBUG_VALUE: mbedtls_internal_ripemd160_process:X <- [DW_OP_LLVM_fragment 96 32] $r5
	adds	r4, r5, r4
.Ltmp293:
	@DEBUG_VALUE: mbedtls_internal_ripemd160_process:X <- [DW_OP_plus_uconst 112, DW_OP_LLVM_fragment 96 32] [$sp+0]
	adds	r0, r4, r0
	ldr	r4, __arm_cp.5_9
	adds	r0, r0, r4
.Ltmp294:
	@DEBUG_VALUE: mbedtls_internal_ripemd160_process:D <- $r0
	ldr	r4, [sp, #144]                  @ 4-byte Reload
	rors	r0, r4
.Ltmp295:
	adds	r4, r0, r2
.Ltmp296:
	@DEBUG_VALUE: mbedtls_internal_ripemd160_process:D <- $r4
	.loc	1 222 5                         @ ../../../ThirdParty/mbedTLS/library/ripemd160.c:222:5
	mvns	r0, r1
	orrs	r0, r4
	.loc	1 221 5                         @ ../../../ThirdParty/mbedTLS/library/ripemd160.c:221:5
	rors	r3, r6
.Ltmp297:
	@DEBUG_VALUE: mbedtls_internal_ripemd160_process:A <- $r3
	.loc	1 222 5                         @ ../../../ThirdParty/mbedTLS/library/ripemd160.c:222:5
	eors	r0, r3
	ldr	r5, [sp, #60]                   @ 4-byte Reload
.Ltmp298:
	@DEBUG_VALUE: mbedtls_internal_ripemd160_process:X <- [DW_OP_LLVM_fragment 320 32] $r5
	adds	r2, r5, r2
.Ltmp299:
	@DEBUG_VALUE: mbedtls_internal_ripemd160_process:X <- [DW_OP_plus_uconst 60, DW_OP_LLVM_fragment 320 32] [$sp+0]
	adds	r0, r2, r0
	ldr	r2, __arm_cp.5_9
	adds	r0, r0, r2
.Ltmp300:
	@DEBUG_VALUE: mbedtls_internal_ripemd160_process:C <- $r0
	ldr	r2, [sp, #132]                  @ 4-byte Reload
	rors	r0, r2
.Ltmp301:
	adds	r2, r0, r7
.Ltmp302:
	@DEBUG_VALUE: mbedtls_internal_ripemd160_process:C <- $r2
	.loc	1 223 5                         @ ../../../ThirdParty/mbedTLS/library/ripemd160.c:223:5
	mvns	r0, r4
	orrs	r0, r2
	.loc	1 222 5                         @ ../../../ThirdParty/mbedTLS/library/ripemd160.c:222:5
	rors	r1, r6
.Ltmp303:
	@DEBUG_VALUE: mbedtls_internal_ripemd160_process:E <- $r1
	.loc	1 223 5                         @ ../../../ThirdParty/mbedTLS/library/ripemd160.c:223:5
	eors	r0, r1
	ldr	r5, [sp, #64]                   @ 4-byte Reload
.Ltmp304:
	@DEBUG_VALUE: mbedtls_internal_ripemd160_process:X <- [DW_OP_LLVM_fragment 448 32] $r5
	adds	r5, r5, r7
.Ltmp305:
	@DEBUG_VALUE: mbedtls_internal_ripemd160_process:X <- [DW_OP_plus_uconst 64, DW_OP_LLVM_fragment 448 32] [$sp+0]
	adds	r0, r5, r0
	ldr	r5, __arm_cp.5_9
	adds	r0, r0, r5
.Ltmp306:
	@DEBUG_VALUE: mbedtls_internal_ripemd160_process:B <- $r0
	ldr	r5, [sp, #148]                  @ 4-byte Reload
	rors	r0, r5
.Ltmp307:
	adds	r5, r0, r3
.Ltmp308:
	@DEBUG_VALUE: mbedtls_internal_ripemd160_process:B <- $r5
	.loc	1 224 5                         @ ../../../ThirdParty/mbedTLS/library/ripemd160.c:224:5
	mvns	r0, r2
	orrs	r0, r5
	mov	r7, r6
	.loc	1 223 5                         @ ../../../ThirdParty/mbedTLS/library/ripemd160.c:223:5
	rors	r4, r6
.Ltmp309:
	@DEBUG_VALUE: mbedtls_internal_ripemd160_process:D <- $r4
	.loc	1 224 5                         @ ../../../ThirdParty/mbedTLS/library/ripemd160.c:224:5
	eors	r0, r4
	ldr	r6, [sp, #88]                   @ 4-byte Reload
.Ltmp310:
	@DEBUG_VALUE: mbedtls_internal_ripemd160_process:X <- [DW_OP_LLVM_fragment 128 32] $r6
	adds	r3, r6, r3
.Ltmp311:
	@DEBUG_VALUE: mbedtls_internal_ripemd160_process:X <- [DW_OP_plus_uconst 88, DW_OP_LLVM_fragment 128 32] [$sp+0]
	adds	r0, r3, r0
	ldr	r3, __arm_cp.5_9
	adds	r0, r0, r3
.Ltmp312:
	@DEBUG_VALUE: mbedtls_internal_ripemd160_process:A <- $r0
	ldr	r3, [sp, #120]                  @ 4-byte Reload
	rors	r0, r3
.Ltmp313:
	adds	r3, r0, r1
.Ltmp314:
	@DEBUG_VALUE: mbedtls_internal_ripemd160_process:A <- $r3
	.loc	1 225 5                         @ ../../../ThirdParty/mbedTLS/library/ripemd160.c:225:5
	mvns	r0, r5
	orrs	r0, r3
	.loc	1 224 5                         @ ../../../ThirdParty/mbedTLS/library/ripemd160.c:224:5
	rors	r2, r7
.Ltmp315:
	@DEBUG_VALUE: mbedtls_internal_ripemd160_process:C <- $r2
	.loc	1 225 5                         @ ../../../ThirdParty/mbedTLS/library/ripemd160.c:225:5
	eors	r0, r2
	ldr	r6, [sp, #96]                   @ 4-byte Reload
.Ltmp316:
	@DEBUG_VALUE: mbedtls_internal_ripemd160_process:X <- [DW_OP_LLVM_fragment 288 32] $r6
	adds	r1, r6, r1
.Ltmp317:
	@DEBUG_VALUE: mbedtls_internal_ripemd160_process:X <- [DW_OP_plus_uconst 96, DW_OP_LLVM_fragment 288 32] [$sp+0]
	adds	r0, r1, r0
	ldr	r7, __arm_cp.5_9
	adds	r0, r0, r7
.Ltmp318:
	@DEBUG_VALUE: mbedtls_internal_ripemd160_process:E <- $r0
	ldr	r1, [sp, #124]                  @ 4-byte Reload
	rors	r0, r1
.Ltmp319:
	adds	r1, r0, r4
.Ltmp320:
	@DEBUG_VALUE: mbedtls_internal_ripemd160_process:E <- $r1
	.loc	1 226 5                         @ ../../../ThirdParty/mbedTLS/library/ripemd160.c:226:5
	mvns	r0, r3
	orrs	r0, r1
	.loc	1 225 5                         @ ../../../ThirdParty/mbedTLS/library/ripemd160.c:225:5
	ldr	r6, [sp, #160]                  @ 4-byte Reload
	rors	r5, r6
.Ltmp321:
	@DEBUG_VALUE: mbedtls_internal_ripemd160_process:B <- $r5
	.loc	1 226 5                         @ ../../../ThirdParty/mbedTLS/library/ripemd160.c:226:5
	eors	r0, r5
	ldr	r6, [sp, #68]                   @ 4-byte Reload
.Ltmp322:
	@DEBUG_VALUE: mbedtls_internal_ripemd160_process:X <- [DW_OP_LLVM_fragment 480 32] $r6
	adds	r4, r6, r4
.Ltmp323:
	@DEBUG_VALUE: mbedtls_internal_ripemd160_process:X <- [DW_OP_plus_uconst 68, DW_OP_LLVM_fragment 480 32] [$sp+0]
	adds	r0, r4, r0
	adds	r0, r0, r7
.Ltmp324:
	@DEBUG_VALUE: mbedtls_internal_ripemd160_process:D <- $r0
	ldr	r4, [sp, #136]                  @ 4-byte Reload
	rors	r0, r4
.Ltmp325:
	adds	r7, r0, r2
.Ltmp326:
	@DEBUG_VALUE: mbedtls_internal_ripemd160_process:D <- $r7
	.loc	1 227 5                         @ ../../../ThirdParty/mbedTLS/library/ripemd160.c:227:5
	mvns	r0, r1
	orrs	r0, r7
	ldr	r6, [sp, #160]                  @ 4-byte Reload
	.loc	1 226 5                         @ ../../../ThirdParty/mbedTLS/library/ripemd160.c:226:5
	rors	r3, r6
.Ltmp327:
	@DEBUG_VALUE: mbedtls_internal_ripemd160_process:A <- $r3
	.loc	1 227 5                         @ ../../../ThirdParty/mbedTLS/library/ripemd160.c:227:5
	eors	r0, r3
	ldr	r4, [sp, #72]                   @ 4-byte Reload
.Ltmp328:
	@DEBUG_VALUE: mbedtls_internal_ripemd160_process:X <- [DW_OP_LLVM_fragment 256 32] $r4
	adds	r2, r4, r2
.Ltmp329:
	@DEBUG_VALUE: mbedtls_internal_ripemd160_process:X <- [DW_OP_plus_uconst 72, DW_OP_LLVM_fragment 256 32] [$sp+0]
	adds	r0, r2, r0
	ldr	r2, __arm_cp.5_9
	adds	r0, r0, r2
.Ltmp330:
	@DEBUG_VALUE: mbedtls_internal_ripemd160_process:C <- $r0
	ldr	r2, [sp, #132]                  @ 4-byte Reload
	rors	r0, r2
.Ltmp331:
	adds	r2, r0, r5
.Ltmp332:
	@DEBUG_VALUE: mbedtls_internal_ripemd160_process:C <- $r2
	.loc	1 228 5                         @ ../../../ThirdParty/mbedTLS/library/ripemd160.c:228:5
	mvns	r0, r7
	orrs	r0, r2
	.loc	1 227 5                         @ ../../../ThirdParty/mbedTLS/library/ripemd160.c:227:5
	rors	r1, r6
.Ltmp333:
	@DEBUG_VALUE: mbedtls_internal_ripemd160_process:E <- $r1
	.loc	1 228 5                         @ ../../../ThirdParty/mbedTLS/library/ripemd160.c:228:5
	eors	r0, r1
	ldr	r4, [sp, #104]                  @ 4-byte Reload
.Ltmp334:
	@DEBUG_VALUE: mbedtls_internal_ripemd160_process:X <- [DW_OP_LLVM_fragment 32 32] $r4
	adds	r4, r4, r5
.Ltmp335:
	@DEBUG_VALUE: mbedtls_internal_ripemd160_process:X <- [DW_OP_plus_uconst 104, DW_OP_LLVM_fragment 32 32] [$sp+0]
	adds	r0, r4, r0
	ldr	r4, __arm_cp.5_9
	adds	r0, r0, r4
.Ltmp336:
	@DEBUG_VALUE: mbedtls_internal_ripemd160_process:B <- $r0
	ldr	r4, [sp, #128]                  @ 4-byte Reload
	rors	r0, r4
.Ltmp337:
	adds	r0, r0, r3
.Ltmp338:
	@DEBUG_VALUE: mbedtls_internal_ripemd160_process:B <- $r0
	.loc	1 229 5                         @ ../../../ThirdParty/mbedTLS/library/ripemd160.c:229:5
	mvns	r4, r2
	orrs	r4, r0
	.loc	1 228 5                         @ ../../../ThirdParty/mbedTLS/library/ripemd160.c:228:5
	rors	r7, r6
.Ltmp339:
	@DEBUG_VALUE: mbedtls_internal_ripemd160_process:D <- $r7
	.loc	1 229 5                         @ ../../../ThirdParty/mbedTLS/library/ripemd160.c:229:5
	eors	r4, r7
	ldr	r5, [sp, #108]                  @ 4-byte Reload
.Ltmp340:
	@DEBUG_VALUE: mbedtls_internal_ripemd160_process:X <- [DW_OP_LLVM_fragment 64 32] $r5
	adds	r3, r5, r3
.Ltmp341:
	@DEBUG_VALUE: mbedtls_internal_ripemd160_process:X <- [DW_OP_plus_uconst 108, DW_OP_LLVM_fragment 64 32] [$sp+0]
	adds	r3, r3, r4
	ldr	r4, __arm_cp.5_9
	adds	r3, r3, r4
.Ltmp342:
	@DEBUG_VALUE: mbedtls_internal_ripemd160_process:A <- $r3
	ldr	r4, [sp, #124]                  @ 4-byte Reload
	rors	r3, r4
.Ltmp343:
	adds	r3, r3, r1
.Ltmp344:
	@DEBUG_VALUE: mbedtls_internal_ripemd160_process:A <- $r3
	.loc	1 230 5                         @ ../../../ThirdParty/mbedTLS/library/ripemd160.c:230:5
	mvns	r4, r0
	orrs	r4, r3
	.loc	1 229 5                         @ ../../../ThirdParty/mbedTLS/library/ripemd160.c:229:5
	rors	r2, r6
.Ltmp345:
	@DEBUG_VALUE: mbedtls_internal_ripemd160_process:C <- $r2
	.loc	1 230 5                         @ ../../../ThirdParty/mbedTLS/library/ripemd160.c:230:5
	eors	r4, r2
	ldr	r5, [sp, #80]                   @ 4-byte Reload
.Ltmp346:
	@DEBUG_VALUE: mbedtls_internal_ripemd160_process:X <- [DW_OP_LLVM_fragment 224 32] $r5
	adds	r1, r5, r1
.Ltmp347:
	@DEBUG_VALUE: mbedtls_internal_ripemd160_process:X <- [DW_OP_plus_uconst 80, DW_OP_LLVM_fragment 224 32] [$sp+0]
	adds	r1, r1, r4
	ldr	r4, __arm_cp.5_9
	adds	r1, r1, r4
.Ltmp348:
	@DEBUG_VALUE: mbedtls_internal_ripemd160_process:E <- $r1
	ldr	r4, [sp, #156]                  @ 4-byte Reload
	rors	r1, r4
.Ltmp349:
	adds	r4, r1, r7
.Ltmp350:
	@DEBUG_VALUE: mbedtls_internal_ripemd160_process:E <- $r4
	.loc	1 231 5                         @ ../../../ThirdParty/mbedTLS/library/ripemd160.c:231:5
	mvns	r1, r3
	orrs	r1, r4
	.loc	1 230 5                         @ ../../../ThirdParty/mbedTLS/library/ripemd160.c:230:5
	rors	r0, r6
.Ltmp351:
	@DEBUG_VALUE: mbedtls_internal_ripemd160_process:B <- $r0
	.loc	1 231 5                         @ ../../../ThirdParty/mbedTLS/library/ripemd160.c:231:5
	eors	r1, r0
	ldr	r5, [sp, #116]                  @ 4-byte Reload
.Ltmp352:
	@DEBUG_VALUE: mbedtls_internal_ripemd160_process:X <- [DW_OP_LLVM_fragment 0 32] $r5
	adds	r5, r5, r7
.Ltmp353:
	@DEBUG_VALUE: mbedtls_internal_ripemd160_process:X <- [DW_OP_plus_uconst 116, DW_OP_LLVM_fragment 0 32] [$sp+0]
	adds	r1, r5, r1
	ldr	r5, __arm_cp.5_9
	adds	r1, r1, r5
.Ltmp354:
	@DEBUG_VALUE: mbedtls_internal_ripemd160_process:D <- $r1
	ldr	r5, [sp, #132]                  @ 4-byte Reload
	rors	r1, r5
.Ltmp355:
	adds	r1, r1, r2
.Ltmp356:
	@DEBUG_VALUE: mbedtls_internal_ripemd160_process:D <- $r1
	.loc	1 232 5                         @ ../../../ThirdParty/mbedTLS/library/ripemd160.c:232:5
	mvns	r5, r4
	orrs	r5, r1
	mov	r7, r6
	.loc	1 231 5                         @ ../../../ThirdParty/mbedTLS/library/ripemd160.c:231:5
	rors	r3, r6
.Ltmp357:
	@DEBUG_VALUE: mbedtls_internal_ripemd160_process:A <- $r3
	.loc	1 232 5                         @ ../../../ThirdParty/mbedTLS/library/ripemd160.c:232:5
	eors	r5, r3
	ldr	r6, [sp, #100]                  @ 4-byte Reload
.Ltmp358:
	@DEBUG_VALUE: mbedtls_internal_ripemd160_process:X <- [DW_OP_LLVM_fragment 192 32] $r6
	adds	r2, r6, r2
.Ltmp359:
	@DEBUG_VALUE: mbedtls_internal_ripemd160_process:X <- [DW_OP_plus_uconst 100, DW_OP_LLVM_fragment 192 32] [$sp+0]
	adds	r2, r2, r5
	ldr	r5, __arm_cp.5_9
	adds	r2, r2, r5
.Ltmp360:
	@DEBUG_VALUE: mbedtls_internal_ripemd160_process:C <- $r2
	ldr	r5, [sp, #148]                  @ 4-byte Reload
	rors	r2, r5
.Ltmp361:
	adds	r5, r2, r0
.Ltmp362:
	@DEBUG_VALUE: mbedtls_internal_ripemd160_process:C <- $r5
	.loc	1 233 5                         @ ../../../ThirdParty/mbedTLS/library/ripemd160.c:233:5
	mvns	r2, r1
	orrs	r2, r5
	.loc	1 232 5                         @ ../../../ThirdParty/mbedTLS/library/ripemd160.c:232:5
	rors	r4, r7
.Ltmp363:
	@DEBUG_VALUE: mbedtls_internal_ripemd160_process:E <- $r4
	.loc	1 233 5                         @ ../../../ThirdParty/mbedTLS/library/ripemd160.c:233:5
	eors	r2, r4
	ldr	r6, [sp, #76]                   @ 4-byte Reload
.Ltmp364:
	@DEBUG_VALUE: mbedtls_internal_ripemd160_process:X <- [DW_OP_LLVM_fragment 416 32] $r6
	adds	r0, r6, r0
.Ltmp365:
	@DEBUG_VALUE: mbedtls_internal_ripemd160_process:X <- [DW_OP_plus_uconst 76, DW_OP_LLVM_fragment 416 32] [$sp+0]
	adds	r0, r0, r2
	ldr	r2, __arm_cp.5_9
	adds	r0, r0, r2
.Ltmp366:
	@DEBUG_VALUE: mbedtls_internal_ripemd160_process:B <- $r0
	ldr	r2, [sp, #152]                  @ 4-byte Reload
	rors	r0, r2
.Ltmp367:
	adds	r0, r0, r3
.Ltmp368:
	@DEBUG_VALUE: mbedtls_internal_ripemd160_process:B <- $r0
	.loc	1 234 5                         @ ../../../ThirdParty/mbedTLS/library/ripemd160.c:234:5
	mvns	r2, r5
	orrs	r2, r0
	.loc	1 233 5                         @ ../../../ThirdParty/mbedTLS/library/ripemd160.c:233:5
	rors	r1, r7
.Ltmp369:
	@DEBUG_VALUE: mbedtls_internal_ripemd160_process:D <- $r1
	.loc	1 234 5                         @ ../../../ThirdParty/mbedTLS/library/ripemd160.c:234:5
	eors	r2, r1
	ldr	r6, [sp, #92]                   @ 4-byte Reload
.Ltmp370:
	@DEBUG_VALUE: mbedtls_internal_ripemd160_process:X <- [DW_OP_LLVM_fragment 352 32] $r6
	adds	r3, r6, r3
.Ltmp371:
	@DEBUG_VALUE: mbedtls_internal_ripemd160_process:X <- [DW_OP_plus_uconst 92, DW_OP_LLVM_fragment 352 32] [$sp+0]
	adds	r2, r3, r2
	ldr	r3, __arm_cp.5_9
	adds	r2, r2, r3
.Ltmp372:
	@DEBUG_VALUE: mbedtls_internal_ripemd160_process:A <- $r2
	ldr	r3, [sp, #140]                  @ 4-byte Reload
	rors	r2, r3
.Ltmp373:
	adds	r3, r2, r4
.Ltmp374:
	@DEBUG_VALUE: mbedtls_internal_ripemd160_process:A <- $r3
	.loc	1 236 5                         @ ../../../ThirdParty/mbedTLS/library/ripemd160.c:236:5
	mov	r2, r3
	rors	r2, r7
.Ltmp375:
	@DEBUG_VALUE: mbedtls_internal_ripemd160_process:A <- $r2
	.loc	1 235 5                         @ ../../../ThirdParty/mbedTLS/library/ripemd160.c:235:5
	mvns	r6, r0
	orrs	r6, r3
	.loc	1 234 5                         @ ../../../ThirdParty/mbedTLS/library/ripemd160.c:234:5
	rors	r5, r7
.Ltmp376:
	@DEBUG_VALUE: mbedtls_internal_ripemd160_process:C <- $r5
	.loc	1 235 5                         @ ../../../ThirdParty/mbedTLS/library/ripemd160.c:235:5
	eors	r6, r5
	ldr	r7, [sp, #84]                   @ 4-byte Reload
.Ltmp377:
	@DEBUG_VALUE: mbedtls_internal_ripemd160_process:X <- [DW_OP_LLVM_fragment 160 32] $r7
	adds	r4, r7, r4
.Ltmp378:
	@DEBUG_VALUE: mbedtls_internal_ripemd160_process:X <- [DW_OP_plus_uconst 84, DW_OP_LLVM_fragment 160 32] [$sp+0]
	adds	r4, r4, r6
	ldr	r6, __arm_cp.5_9
	adds	r4, r4, r6
.Ltmp379:
	@DEBUG_VALUE: mbedtls_internal_ripemd160_process:E <- $r4
	ldr	r6, [sp, #120]                  @ 4-byte Reload
	rors	r4, r6
.Ltmp380:
	adds	r7, r4, r1
.Ltmp381:
	@DEBUG_VALUE: mbedtls_internal_ripemd160_process:E <- $r7
	.loc	1 246 5                         @ ../../../ThirdParty/mbedTLS/library/ripemd160.c:246:5
	mov	r6, r7
	bics	r6, r2
	.loc	1 236 5                         @ ../../../ThirdParty/mbedTLS/library/ripemd160.c:236:5
	mvns	r3, r3
	orrs	r3, r7
	.loc	1 235 5                         @ ../../../ThirdParty/mbedTLS/library/ripemd160.c:235:5
	ldr	r4, [sp, #160]                  @ 4-byte Reload
	rors	r0, r4
.Ltmp382:
	@DEBUG_VALUE: mbedtls_internal_ripemd160_process:B <- $r0
	.loc	1 236 5                         @ ../../../ThirdParty/mbedTLS/library/ripemd160.c:236:5
	eors	r3, r0
	ldr	r4, [sp, #56]                   @ 4-byte Reload
.Ltmp383:
	@DEBUG_VALUE: mbedtls_internal_ripemd160_process:X <- [DW_OP_LLVM_fragment 384 32] $r4
	adds	r1, r4, r1
.Ltmp384:
	@DEBUG_VALUE: mbedtls_internal_ripemd160_process:X <- [DW_OP_plus_uconst 56, DW_OP_LLVM_fragment 384 32] [$sp+0]
	adds	r1, r1, r3
	ldr	r3, __arm_cp.5_9
	adds	r1, r1, r3
.Ltmp385:
	@DEBUG_VALUE: mbedtls_internal_ripemd160_process:D <- $r1
	ldr	r3, [sp, #152]                  @ 4-byte Reload
	rors	r1, r3
.Ltmp386:
	adds	r4, r1, r5
.Ltmp387:
	@DEBUG_VALUE: mbedtls_internal_ripemd160_process:D <- $r4
	.loc	1 246 5                         @ ../../../ThirdParty/mbedTLS/library/ripemd160.c:246:5
	mov	r1, r4
	ands	r1, r2
	orrs	r1, r6
	ldr	r3, [sp, #104]                  @ 4-byte Reload
.Ltmp388:
	@DEBUG_VALUE: mbedtls_internal_ripemd160_process:X <- [DW_OP_LLVM_fragment 32 32] $r3
	adds	r3, r3, r5
.Ltmp389:
	@DEBUG_VALUE: mbedtls_internal_ripemd160_process:X <- [DW_OP_plus_uconst 104, DW_OP_LLVM_fragment 32 32] [$sp+0]
	adds	r1, r3, r1
	ldr	r3, .LCPI5_10
	adds	r1, r1, r3
.Ltmp390:
	@DEBUG_VALUE: mbedtls_internal_ripemd160_process:C <- $r1
	ldr	r3, [sp, #144]                  @ 4-byte Reload
	rors	r1, r3
.Ltmp391:
	adds	r6, r1, r0
.Ltmp392:
	@DEBUG_VALUE: mbedtls_internal_ripemd160_process:C <- $r6
	.loc	1 248 5                         @ ../../../ThirdParty/mbedTLS/library/ripemd160.c:248:5
	mov	r5, r6
	ldr	r1, [sp, #160]                  @ 4-byte Reload
	rors	r5, r1
.Ltmp393:
	@DEBUG_VALUE: mbedtls_internal_ripemd160_process:C <- $r5
	.loc	1 246 5                         @ ../../../ThirdParty/mbedTLS/library/ripemd160.c:246:5
	rors	r7, r1
.Ltmp394:
	@DEBUG_VALUE: mbedtls_internal_ripemd160_process:E <- $r7
	.loc	1 247 5                         @ ../../../ThirdParty/mbedTLS/library/ripemd160.c:247:5
	mov	r1, r6
	ands	r1, r7
	mov	r3, r4
	bics	r3, r7
	orrs	r3, r1
	ldr	r1, [sp, #96]                   @ 4-byte Reload
.Ltmp395:
	@DEBUG_VALUE: mbedtls_internal_ripemd160_process:X <- [DW_OP_LLVM_fragment 288 32] $r1
	adds	r0, r1, r0
.Ltmp396:
	@DEBUG_VALUE: mbedtls_internal_ripemd160_process:X <- [DW_OP_plus_uconst 96, DW_OP_LLVM_fragment 288 32] [$sp+0]
	adds	r0, r0, r3
	ldr	r1, .LCPI5_10
	adds	r0, r0, r1
.Ltmp397:
	@DEBUG_VALUE: mbedtls_internal_ripemd160_process:B <- $r0
	ldr	r1, [sp, #140]                  @ 4-byte Reload
	rors	r0, r1
.Ltmp398:
	adds	r3, r0, r2
.Ltmp399:
	@DEBUG_VALUE: mbedtls_internal_ripemd160_process:B <- $r3
	.loc	1 249 5                         @ ../../../ThirdParty/mbedTLS/library/ripemd160.c:249:5
	mov	r1, r3
	bics	r1, r5
	.loc	1 247 5                         @ ../../../ThirdParty/mbedTLS/library/ripemd160.c:247:5
	ldr	r0, [sp, #160]                  @ 4-byte Reload
	rors	r4, r0
.Ltmp400:
	@DEBUG_VALUE: mbedtls_internal_ripemd160_process:D <- $r4
	.loc	1 248 5                         @ ../../../ThirdParty/mbedTLS/library/ripemd160.c:248:5
	bics	r6, r4
	mov	r0, r3
	ands	r0, r4
	orrs	r0, r6
	ldr	r6, [sp, #92]                   @ 4-byte Reload
.Ltmp401:
	@DEBUG_VALUE: mbedtls_internal_ripemd160_process:X <- [DW_OP_LLVM_fragment 352 32] $r6
	adds	r2, r6, r2
.Ltmp402:
	@DEBUG_VALUE: mbedtls_internal_ripemd160_process:X <- [DW_OP_plus_uconst 92, DW_OP_LLVM_fragment 352 32] [$sp+0]
	adds	r0, r2, r0
	ldr	r6, .LCPI5_10
	adds	r0, r0, r6
.Ltmp403:
	@DEBUG_VALUE: mbedtls_internal_ripemd160_process:A <- $r0
	ldr	r2, [sp, #124]                  @ 4-byte Reload
	rors	r0, r2
.Ltmp404:
	adds	r0, r0, r7
.Ltmp405:
	@DEBUG_VALUE: mbedtls_internal_ripemd160_process:A <- $r0
	.loc	1 249 5                         @ ../../../ThirdParty/mbedTLS/library/ripemd160.c:249:5
	mov	r2, r0
	ands	r2, r5
	orrs	r2, r1
	ldr	r1, [sp, #60]                   @ 4-byte Reload
.Ltmp406:
	@DEBUG_VALUE: mbedtls_internal_ripemd160_process:X <- [DW_OP_LLVM_fragment 320 32] $r1
	adds	r1, r1, r7
.Ltmp407:
	@DEBUG_VALUE: mbedtls_internal_ripemd160_process:X <- [DW_OP_plus_uconst 60, DW_OP_LLVM_fragment 320 32] [$sp+0]
	adds	r1, r1, r2
	adds	r1, r1, r6
.Ltmp408:
	@DEBUG_VALUE: mbedtls_internal_ripemd160_process:E <- $r1
	ldr	r2, [sp, #128]                  @ 4-byte Reload
	rors	r1, r2
.Ltmp409:
	adds	r6, r1, r4
.Ltmp410:
	@DEBUG_VALUE: mbedtls_internal_ripemd160_process:E <- $r6
	.loc	1 251 5                         @ ../../../ThirdParty/mbedTLS/library/ripemd160.c:251:5
	mov	r2, r6
	ldr	r1, [sp, #160]                  @ 4-byte Reload
	rors	r2, r1
.Ltmp411:
	@DEBUG_VALUE: mbedtls_internal_ripemd160_process:E <- $r2
	.loc	1 249 5                         @ ../../../ThirdParty/mbedTLS/library/ripemd160.c:249:5
	rors	r3, r1
.Ltmp412:
	@DEBUG_VALUE: mbedtls_internal_ripemd160_process:B <- $r3
	.loc	1 250 5                         @ ../../../ThirdParty/mbedTLS/library/ripemd160.c:250:5
	mov	r1, r6
	ands	r1, r3
	mov	r7, r0
	bics	r7, r3
	orrs	r7, r1
	ldr	r1, [sp, #116]                  @ 4-byte Reload
.Ltmp413:
	@DEBUG_VALUE: mbedtls_internal_ripemd160_process:X <- [DW_OP_LLVM_fragment 0 32] $r1
	adds	r1, r1, r4
.Ltmp414:
	@DEBUG_VALUE: mbedtls_internal_ripemd160_process:X <- [DW_OP_plus_uconst 116, DW_OP_LLVM_fragment 0 32] [$sp+0]
	adds	r1, r1, r7
	ldr	r4, .LCPI5_10
.Ltmp415:
	adds	r1, r1, r4
.Ltmp416:
	@DEBUG_VALUE: mbedtls_internal_ripemd160_process:D <- $r1
	ldr	r4, [sp, #124]                  @ 4-byte Reload
	rors	r1, r4
.Ltmp417:
	adds	r4, r1, r5
.Ltmp418:
	@DEBUG_VALUE: mbedtls_internal_ripemd160_process:D <- $r4
	.loc	1 252 5                         @ ../../../ThirdParty/mbedTLS/library/ripemd160.c:252:5
	mov	r1, r4
	bics	r1, r2
	.loc	1 250 5                         @ ../../../ThirdParty/mbedTLS/library/ripemd160.c:250:5
	ldr	r7, [sp, #160]                  @ 4-byte Reload
	rors	r0, r7
.Ltmp419:
	@DEBUG_VALUE: mbedtls_internal_ripemd160_process:A <- $r0
	.loc	1 251 5                         @ ../../../ThirdParty/mbedTLS/library/ripemd160.c:251:5
	bics	r6, r0
	mov	r7, r4
	ands	r7, r0
	orrs	r7, r6
	b	.LBB5_4
.Ltmp420:
	.p2align	2
@ %bb.1:
	.loc	1 0 5 is_stmt 0                 @ ../../../ThirdParty/mbedTLS/library/ripemd160.c:0:5
__arm_cp.5_8:
	.long	1518500249                      @ 0x5a827999
.Lcpi_end5:
	.size	__arm_cp.5_8, .Lcpi_end5-__arm_cp.5_8
	.p2align	2
@ %bb.2:
__arm_cp.5_9:
	.long	1859775393                      @ 0x6ed9eba1
.Lcpi_end6:
	.size	__arm_cp.5_9, .Lcpi_end6-__arm_cp.5_9
	.p2align	2
@ %bb.3:
.LCPI5_10:
	.long	2400959708                      @ 0x8f1bbcdc
	.p2align	1
.LBB5_4:
	.loc	1 251 5                         @ ../../../ThirdParty/mbedTLS/library/ripemd160.c:251:5
	ldr	r6, [sp, #72]                   @ 4-byte Reload
.Ltmp421:
	@DEBUG_VALUE: mbedtls_internal_ripemd160_process:X <- [DW_OP_LLVM_fragment 256 32] $r6
	adds	r5, r6, r5
.Ltmp422:
	@DEBUG_VALUE: mbedtls_internal_ripemd160_process:X <- [DW_OP_plus_uconst 72, DW_OP_LLVM_fragment 256 32] [$sp+0]
	adds	r5, r5, r7
	ldr	r6, __arm_cp.5_11
	adds	r5, r5, r6
.Ltmp423:
	@DEBUG_VALUE: mbedtls_internal_ripemd160_process:C <- $r5
	ldr	r6, [sp, #128]                  @ 4-byte Reload
	rors	r5, r6
.Ltmp424:
	adds	r7, r5, r3
.Ltmp425:
	@DEBUG_VALUE: mbedtls_internal_ripemd160_process:C <- $r7
	.loc	1 252 5 is_stmt 1               @ ../../../ThirdParty/mbedTLS/library/ripemd160.c:252:5
	mov	r5, r7
	ands	r5, r2
	orrs	r5, r1
	ldr	r1, [sp, #56]                   @ 4-byte Reload
.Ltmp426:
	@DEBUG_VALUE: mbedtls_internal_ripemd160_process:X <- [DW_OP_LLVM_fragment 384 32] $r1
	adds	r1, r1, r3
.Ltmp427:
	@DEBUG_VALUE: mbedtls_internal_ripemd160_process:X <- [DW_OP_plus_uconst 56, DW_OP_LLVM_fragment 384 32] [$sp+0]
	adds	r1, r1, r5
	ldr	r3, __arm_cp.5_11
	adds	r1, r1, r3
.Ltmp428:
	@DEBUG_VALUE: mbedtls_internal_ripemd160_process:B <- $r1
	ldr	r3, [sp, #136]                  @ 4-byte Reload
	rors	r1, r3
.Ltmp429:
	adds	r3, r1, r0
.Ltmp430:
	@DEBUG_VALUE: mbedtls_internal_ripemd160_process:B <- $r3
	.loc	1 254 5                         @ ../../../ThirdParty/mbedTLS/library/ripemd160.c:254:5
	mov	r1, r3
	ldr	r5, [sp, #160]                  @ 4-byte Reload
	rors	r1, r5
.Ltmp431:
	@DEBUG_VALUE: mbedtls_internal_ripemd160_process:B <- $r1
	.loc	1 252 5                         @ ../../../ThirdParty/mbedTLS/library/ripemd160.c:252:5
	rors	r4, r5
.Ltmp432:
	@DEBUG_VALUE: mbedtls_internal_ripemd160_process:D <- $r4
	.loc	1 253 5                         @ ../../../ThirdParty/mbedTLS/library/ripemd160.c:253:5
	mov	r5, r3
	ands	r5, r4
	mov	r6, r7
	bics	r6, r4
	orrs	r6, r5
	ldr	r5, [sp, #88]                   @ 4-byte Reload
.Ltmp433:
	@DEBUG_VALUE: mbedtls_internal_ripemd160_process:X <- [DW_OP_LLVM_fragment 128 32] $r5
	adds	r0, r5, r0
.Ltmp434:
	@DEBUG_VALUE: mbedtls_internal_ripemd160_process:X <- [DW_OP_plus_uconst 88, DW_OP_LLVM_fragment 128 32] [$sp+0]
	adds	r0, r0, r6
	ldr	r5, __arm_cp.5_11
	adds	r0, r0, r5
.Ltmp435:
	@DEBUG_VALUE: mbedtls_internal_ripemd160_process:A <- $r0
	ldr	r5, [sp, #156]                  @ 4-byte Reload
	rors	r0, r5
.Ltmp436:
	adds	r0, r0, r2
.Ltmp437:
	@DEBUG_VALUE: mbedtls_internal_ripemd160_process:A <- $r0
	.loc	1 255 5                         @ ../../../ThirdParty/mbedTLS/library/ripemd160.c:255:5
	mov	r5, r0
	bics	r5, r1
	.loc	1 253 5                         @ ../../../ThirdParty/mbedTLS/library/ripemd160.c:253:5
	ldr	r6, [sp, #160]                  @ 4-byte Reload
	rors	r7, r6
.Ltmp438:
	@DEBUG_VALUE: mbedtls_internal_ripemd160_process:C <- $r7
	.loc	1 254 5                         @ ../../../ThirdParty/mbedTLS/library/ripemd160.c:254:5
	bics	r3, r7
	mov	r6, r0
	ands	r6, r7
	orrs	r6, r3
	ldr	r3, [sp, #76]                   @ 4-byte Reload
.Ltmp439:
	@DEBUG_VALUE: mbedtls_internal_ripemd160_process:X <- [DW_OP_LLVM_fragment 416 32] $r3
	adds	r2, r3, r2
.Ltmp440:
	@DEBUG_VALUE: mbedtls_internal_ripemd160_process:X <- [DW_OP_plus_uconst 76, DW_OP_LLVM_fragment 416 32] [$sp+0]
	adds	r2, r2, r6
	ldr	r6, __arm_cp.5_11
	adds	r2, r2, r6
.Ltmp441:
	@DEBUG_VALUE: mbedtls_internal_ripemd160_process:E <- $r2
	ldr	r3, [sp, #136]                  @ 4-byte Reload
	rors	r2, r3
.Ltmp442:
	adds	r3, r2, r4
.Ltmp443:
	@DEBUG_VALUE: mbedtls_internal_ripemd160_process:E <- $r3
	.loc	1 255 5                         @ ../../../ThirdParty/mbedTLS/library/ripemd160.c:255:5
	mov	r2, r3
	ands	r2, r1
	orrs	r2, r5
	ldr	r5, [sp, #112]                  @ 4-byte Reload
.Ltmp444:
	@DEBUG_VALUE: mbedtls_internal_ripemd160_process:X <- [DW_OP_LLVM_fragment 96 32] $r5
	adds	r4, r5, r4
.Ltmp445:
	@DEBUG_VALUE: mbedtls_internal_ripemd160_process:X <- [DW_OP_plus_uconst 112, DW_OP_LLVM_fragment 96 32] [$sp+0]
	adds	r2, r4, r2
	adds	r2, r2, r6
.Ltmp446:
	@DEBUG_VALUE: mbedtls_internal_ripemd160_process:D <- $r2
	ldr	r4, [sp, #124]                  @ 4-byte Reload
	rors	r2, r4
.Ltmp447:
	adds	r6, r2, r7
.Ltmp448:
	@DEBUG_VALUE: mbedtls_internal_ripemd160_process:D <- $r6
	.loc	1 257 5                         @ ../../../ThirdParty/mbedTLS/library/ripemd160.c:257:5
	mov	r2, r6
	ldr	r4, [sp, #160]                  @ 4-byte Reload
	rors	r2, r4
.Ltmp449:
	@DEBUG_VALUE: mbedtls_internal_ripemd160_process:D <- $r2
	.loc	1 255 5                         @ ../../../ThirdParty/mbedTLS/library/ripemd160.c:255:5
	rors	r0, r4
.Ltmp450:
	@DEBUG_VALUE: mbedtls_internal_ripemd160_process:A <- $r0
	.loc	1 256 5                         @ ../../../ThirdParty/mbedTLS/library/ripemd160.c:256:5
	mov	r4, r6
	ands	r4, r0
	mov	r5, r3
	bics	r5, r0
	orrs	r5, r4
	ldr	r4, [sp, #80]                   @ 4-byte Reload
.Ltmp451:
	@DEBUG_VALUE: mbedtls_internal_ripemd160_process:X <- [DW_OP_LLVM_fragment 224 32] $r4
	adds	r4, r4, r7
.Ltmp452:
	@DEBUG_VALUE: mbedtls_internal_ripemd160_process:X <- [DW_OP_plus_uconst 80, DW_OP_LLVM_fragment 224 32] [$sp+0]
	adds	r4, r4, r5
	ldr	r5, __arm_cp.5_11
	adds	r4, r4, r5
.Ltmp453:
	@DEBUG_VALUE: mbedtls_internal_ripemd160_process:C <- $r4
	ldr	r5, [sp, #152]                  @ 4-byte Reload
	rors	r4, r5
.Ltmp454:
	adds	r4, r4, r1
.Ltmp455:
	@DEBUG_VALUE: mbedtls_internal_ripemd160_process:C <- $r4
	.loc	1 258 5                         @ ../../../ThirdParty/mbedTLS/library/ripemd160.c:258:5
	mov	r5, r4
	bics	r5, r2
	.loc	1 256 5                         @ ../../../ThirdParty/mbedTLS/library/ripemd160.c:256:5
	ldr	r7, [sp, #160]                  @ 4-byte Reload
	rors	r3, r7
.Ltmp456:
	@DEBUG_VALUE: mbedtls_internal_ripemd160_process:E <- $r3
	.loc	1 257 5                         @ ../../../ThirdParty/mbedTLS/library/ripemd160.c:257:5
	bics	r6, r3
	mov	r7, r4
	ands	r7, r3
	orrs	r7, r6
	ldr	r6, [sp, #68]                   @ 4-byte Reload
.Ltmp457:
	@DEBUG_VALUE: mbedtls_internal_ripemd160_process:X <- [DW_OP_LLVM_fragment 480 32] $r6
	adds	r1, r6, r1
.Ltmp458:
	@DEBUG_VALUE: mbedtls_internal_ripemd160_process:X <- [DW_OP_plus_uconst 68, DW_OP_LLVM_fragment 480 32] [$sp+0]
	adds	r1, r1, r7
	ldr	r6, __arm_cp.5_11
	adds	r1, r1, r6
.Ltmp459:
	@DEBUG_VALUE: mbedtls_internal_ripemd160_process:B <- $r1
	ldr	r6, [sp, #148]                  @ 4-byte Reload
	rors	r1, r6
.Ltmp460:
	adds	r7, r1, r0
.Ltmp461:
	@DEBUG_VALUE: mbedtls_internal_ripemd160_process:B <- $r7
	.loc	1 258 5                         @ ../../../ThirdParty/mbedTLS/library/ripemd160.c:258:5
	mov	r1, r7
	ands	r1, r2
	orrs	r1, r5
	ldr	r5, [sp, #64]                   @ 4-byte Reload
.Ltmp462:
	@DEBUG_VALUE: mbedtls_internal_ripemd160_process:X <- [DW_OP_LLVM_fragment 448 32] $r5
	adds	r0, r5, r0
.Ltmp463:
	@DEBUG_VALUE: mbedtls_internal_ripemd160_process:X <- [DW_OP_plus_uconst 64, DW_OP_LLVM_fragment 448 32] [$sp+0]
	adds	r0, r0, r1
	ldr	r1, __arm_cp.5_11
	adds	r0, r0, r1
.Ltmp464:
	@DEBUG_VALUE: mbedtls_internal_ripemd160_process:A <- $r0
	ldr	r1, [sp, #156]                  @ 4-byte Reload
	rors	r0, r1
.Ltmp465:
	adds	r6, r0, r3
.Ltmp466:
	@DEBUG_VALUE: mbedtls_internal_ripemd160_process:A <- $r6
	.loc	1 260 5                         @ ../../../ThirdParty/mbedTLS/library/ripemd160.c:260:5
	mov	r0, r6
	ldr	r1, [sp, #160]                  @ 4-byte Reload
	rors	r0, r1
.Ltmp467:
	@DEBUG_VALUE: mbedtls_internal_ripemd160_process:A <- $r0
	.loc	1 258 5                         @ ../../../ThirdParty/mbedTLS/library/ripemd160.c:258:5
	rors	r4, r1
.Ltmp468:
	@DEBUG_VALUE: mbedtls_internal_ripemd160_process:C <- $r4
	.loc	1 259 5                         @ ../../../ThirdParty/mbedTLS/library/ripemd160.c:259:5
	mov	r1, r6
	ands	r1, r4
	mov	r5, r7
	bics	r5, r4
	orrs	r5, r1
	ldr	r1, [sp, #84]                   @ 4-byte Reload
.Ltmp469:
	@DEBUG_VALUE: mbedtls_internal_ripemd160_process:X <- [DW_OP_LLVM_fragment 160 32] $r1
	adds	r1, r1, r3
.Ltmp470:
	@DEBUG_VALUE: mbedtls_internal_ripemd160_process:X <- [DW_OP_plus_uconst 84, DW_OP_LLVM_fragment 160 32] [$sp+0]
	adds	r1, r1, r5
	ldr	r3, __arm_cp.5_11
.Ltmp471:
	adds	r1, r1, r3
.Ltmp472:
	@DEBUG_VALUE: mbedtls_internal_ripemd160_process:E <- $r1
	ldr	r3, [sp, #148]                  @ 4-byte Reload
	rors	r1, r3
.Ltmp473:
	adds	r1, r1, r2
.Ltmp474:
	@DEBUG_VALUE: mbedtls_internal_ripemd160_process:E <- $r1
	.loc	1 261 5                         @ ../../../ThirdParty/mbedTLS/library/ripemd160.c:261:5
	mov	r5, r1
	bics	r5, r0
	.loc	1 259 5                         @ ../../../ThirdParty/mbedTLS/library/ripemd160.c:259:5
	ldr	r3, [sp, #160]                  @ 4-byte Reload
	rors	r7, r3
.Ltmp475:
	@DEBUG_VALUE: mbedtls_internal_ripemd160_process:B <- $r7
	.loc	1 260 5                         @ ../../../ThirdParty/mbedTLS/library/ripemd160.c:260:5
	bics	r6, r7
	mov	r3, r1
	ands	r3, r7
	orrs	r3, r6
	ldr	r6, [sp, #100]                  @ 4-byte Reload
.Ltmp476:
	@DEBUG_VALUE: mbedtls_internal_ripemd160_process:X <- [DW_OP_LLVM_fragment 192 32] $r6
	adds	r2, r6, r2
.Ltmp477:
	@DEBUG_VALUE: mbedtls_internal_ripemd160_process:X <- [DW_OP_plus_uconst 100, DW_OP_LLVM_fragment 192 32] [$sp+0]
	adds	r2, r2, r3
	ldr	r6, __arm_cp.5_11
	adds	r2, r2, r6
.Ltmp478:
	@DEBUG_VALUE: mbedtls_internal_ripemd160_process:D <- $r2
	ldr	r3, [sp, #152]                  @ 4-byte Reload
	rors	r2, r3
.Ltmp479:
	adds	r3, r2, r4
.Ltmp480:
	@DEBUG_VALUE: mbedtls_internal_ripemd160_process:D <- $r3
	.loc	1 261 5                         @ ../../../ThirdParty/mbedTLS/library/ripemd160.c:261:5
	mov	r2, r3
	ands	r2, r0
	orrs	r2, r5
	ldr	r5, [sp, #108]                  @ 4-byte Reload
.Ltmp481:
	@DEBUG_VALUE: mbedtls_internal_ripemd160_process:X <- [DW_OP_LLVM_fragment 64 32] $r5
	adds	r4, r5, r4
.Ltmp482:
	@DEBUG_VALUE: mbedtls_internal_ripemd160_process:X <- [DW_OP_plus_uconst 108, DW_OP_LLVM_fragment 64 32] [$sp+0]
	adds	r2, r4, r2
	adds	r2, r2, r6
.Ltmp483:
	@DEBUG_VALUE: mbedtls_internal_ripemd160_process:C <- $r2
	ldr	r4, [sp, #140]                  @ 4-byte Reload
	rors	r2, r4
.Ltmp484:
	adds	r4, r2, r7
.Ltmp485:
	@DEBUG_VALUE: mbedtls_internal_ripemd160_process:C <- $r4
	.loc	1 0 5 is_stmt 0                 @ ../../../ThirdParty/mbedTLS/library/ripemd160.c:0:5
	ldr	r6, [sp, #160]                  @ 4-byte Reload
	.loc	1 261 5                         @ ../../../ThirdParty/mbedTLS/library/ripemd160.c:261:5
	rors	r1, r6
.Ltmp486:
	@DEBUG_VALUE: mbedtls_internal_ripemd160_process:E <- $r1
	.loc	1 271 5 is_stmt 1               @ ../../../ThirdParty/mbedTLS/library/ripemd160.c:271:5
	mvns	r2, r1
	orrs	r2, r3
	eors	r2, r4
	ldr	r5, [sp, #88]                   @ 4-byte Reload
.Ltmp487:
	@DEBUG_VALUE: mbedtls_internal_ripemd160_process:X <- [DW_OP_LLVM_fragment 128 32] $r5
	adds	r5, r5, r7
.Ltmp488:
	@DEBUG_VALUE: mbedtls_internal_ripemd160_process:X <- [DW_OP_plus_uconst 88, DW_OP_LLVM_fragment 128 32] [$sp+0]
	adds	r2, r5, r2
	ldr	r5, .LCPI5_12
	adds	r2, r2, r5
.Ltmp489:
	@DEBUG_VALUE: mbedtls_internal_ripemd160_process:B <- $r2
	ldr	r5, [sp, #136]                  @ 4-byte Reload
	rors	r2, r5
.Ltmp490:
	adds	r2, r2, r0
.Ltmp491:
	@DEBUG_VALUE: mbedtls_internal_ripemd160_process:B <- $r2
	.loc	1 272 5                         @ ../../../ThirdParty/mbedTLS/library/ripemd160.c:272:5
	mov	r5, r4
	mov	r7, r6
	rors	r5, r6
.Ltmp492:
	@DEBUG_VALUE: mbedtls_internal_ripemd160_process:C <- $r5
	.loc	1 273 5                         @ ../../../ThirdParty/mbedTLS/library/ripemd160.c:273:5
	mvns	r6, r5
	orrs	r6, r2
	.loc	1 271 5                         @ ../../../ThirdParty/mbedTLS/library/ripemd160.c:271:5
	rors	r3, r7
.Ltmp493:
	@DEBUG_VALUE: mbedtls_internal_ripemd160_process:D <- $r3
	.loc	1 272 5                         @ ../../../ThirdParty/mbedTLS/library/ripemd160.c:272:5
	mvns	r7, r3
	orrs	r7, r4
	eors	r7, r2
	ldr	r4, [sp, #116]                  @ 4-byte Reload
.Ltmp494:
	@DEBUG_VALUE: mbedtls_internal_ripemd160_process:X <- [DW_OP_LLVM_fragment 0 32] $r4
	adds	r0, r4, r0
.Ltmp495:
	@DEBUG_VALUE: mbedtls_internal_ripemd160_process:X <- [DW_OP_plus_uconst 116, DW_OP_LLVM_fragment 0 32] [$sp+0]
	adds	r0, r0, r7
	ldr	r7, .LCPI5_12
	adds	r0, r0, r7
.Ltmp496:
	@DEBUG_VALUE: mbedtls_internal_ripemd160_process:A <- $r0
	ldr	r4, [sp, #128]                  @ 4-byte Reload
	rors	r0, r4
.Ltmp497:
	adds	r4, r0, r1
.Ltmp498:
	@DEBUG_VALUE: mbedtls_internal_ripemd160_process:A <- $r4
	.loc	1 273 5                         @ ../../../ThirdParty/mbedTLS/library/ripemd160.c:273:5
	eors	r6, r4
	ldr	r0, [sp, #84]                   @ 4-byte Reload
.Ltmp499:
	@DEBUG_VALUE: mbedtls_internal_ripemd160_process:X <- [DW_OP_LLVM_fragment 160 32] $r0
	adds	r0, r0, r1
.Ltmp500:
	@DEBUG_VALUE: mbedtls_internal_ripemd160_process:X <- [DW_OP_plus_uconst 84, DW_OP_LLVM_fragment 160 32] [$sp+0]
	adds	r0, r0, r6
	adds	r0, r0, r7
.Ltmp501:
	@DEBUG_VALUE: mbedtls_internal_ripemd160_process:E <- $r0
	ldr	r1, [sp, #152]                  @ 4-byte Reload
	rors	r0, r1
.Ltmp502:
	adds	r1, r0, r3
.Ltmp503:
	@DEBUG_VALUE: mbedtls_internal_ripemd160_process:E <- $r1
	ldr	r0, [sp, #160]                  @ 4-byte Reload
	rors	r2, r0
.Ltmp504:
	@DEBUG_VALUE: mbedtls_internal_ripemd160_process:B <- $r2
	.loc	1 274 5                         @ ../../../ThirdParty/mbedTLS/library/ripemd160.c:274:5
	mvns	r0, r2
	orrs	r0, r4
	eors	r0, r1
	ldr	r6, [sp, #96]                   @ 4-byte Reload
.Ltmp505:
	@DEBUG_VALUE: mbedtls_internal_ripemd160_process:X <- [DW_OP_LLVM_fragment 288 32] $r6
	adds	r3, r6, r3
.Ltmp506:
	@DEBUG_VALUE: mbedtls_internal_ripemd160_process:X <- [DW_OP_plus_uconst 96, DW_OP_LLVM_fragment 288 32] [$sp+0]
	adds	r0, r3, r0
	adds	r0, r0, r7
.Ltmp507:
	@DEBUG_VALUE: mbedtls_internal_ripemd160_process:D <- $r0
	ldr	r3, [sp, #144]                  @ 4-byte Reload
	rors	r0, r3
.Ltmp508:
	adds	r0, r0, r5
.Ltmp509:
	@DEBUG_VALUE: mbedtls_internal_ripemd160_process:D <- $r0
	.loc	1 275 5                         @ ../../../ThirdParty/mbedTLS/library/ripemd160.c:275:5
	mov	r7, r1
	ldr	r3, [sp, #160]                  @ 4-byte Reload
	rors	r7, r3
.Ltmp510:
	@DEBUG_VALUE: mbedtls_internal_ripemd160_process:E <- $r7
	.loc	1 276 5                         @ ../../../ThirdParty/mbedTLS/library/ripemd160.c:276:5
	mvns	r6, r7
	orrs	r6, r0
	.loc	1 274 5                         @ ../../../ThirdParty/mbedTLS/library/ripemd160.c:274:5
	rors	r4, r3
.Ltmp511:
	@DEBUG_VALUE: mbedtls_internal_ripemd160_process:A <- $r4
	.loc	1 275 5                         @ ../../../ThirdParty/mbedTLS/library/ripemd160.c:275:5
	mvns	r3, r4
	orrs	r3, r1
	eors	r3, r0
	ldr	r1, [sp, #80]                   @ 4-byte Reload
.Ltmp512:
	@DEBUG_VALUE: mbedtls_internal_ripemd160_process:X <- [DW_OP_LLVM_fragment 224 32] $r1
	adds	r1, r1, r5
.Ltmp513:
	@DEBUG_VALUE: mbedtls_internal_ripemd160_process:X <- [DW_OP_plus_uconst 80, DW_OP_LLVM_fragment 224 32] [$sp+0]
	adds	r1, r1, r3
	ldr	r5, .LCPI5_12
.Ltmp514:
	adds	r1, r1, r5
.Ltmp515:
	@DEBUG_VALUE: mbedtls_internal_ripemd160_process:C <- $r1
	ldr	r3, [sp, #148]                  @ 4-byte Reload
	rors	r1, r3
.Ltmp516:
	adds	r3, r1, r2
.Ltmp517:
	@DEBUG_VALUE: mbedtls_internal_ripemd160_process:C <- $r3
	.loc	1 276 5                         @ ../../../ThirdParty/mbedTLS/library/ripemd160.c:276:5
	eors	r6, r3
	ldr	r1, [sp, #56]                   @ 4-byte Reload
.Ltmp518:
	@DEBUG_VALUE: mbedtls_internal_ripemd160_process:X <- [DW_OP_LLVM_fragment 384 32] $r1
	adds	r1, r1, r2
.Ltmp519:
	@DEBUG_VALUE: mbedtls_internal_ripemd160_process:X <- [DW_OP_plus_uconst 56, DW_OP_LLVM_fragment 384 32] [$sp+0]
	adds	r1, r1, r6
	adds	r1, r1, r5
.Ltmp520:
	@DEBUG_VALUE: mbedtls_internal_ripemd160_process:B <- $r1
	ldr	r2, [sp, #156]                  @ 4-byte Reload
	rors	r1, r2
.Ltmp521:
	adds	r2, r1, r4
.Ltmp522:
	@DEBUG_VALUE: mbedtls_internal_ripemd160_process:B <- $r2
	.loc	1 0 5 is_stmt 0                 @ ../../../ThirdParty/mbedTLS/library/ripemd160.c:0:5
	ldr	r6, [sp, #160]                  @ 4-byte Reload
	.loc	1 276 5                         @ ../../../ThirdParty/mbedTLS/library/ripemd160.c:276:5
	rors	r0, r6
.Ltmp523:
	@DEBUG_VALUE: mbedtls_internal_ripemd160_process:D <- $r0
	.loc	1 277 5 is_stmt 1               @ ../../../ThirdParty/mbedTLS/library/ripemd160.c:277:5
	mvns	r1, r0
	orrs	r1, r3
	eors	r1, r2
	ldr	r5, [sp, #108]                  @ 4-byte Reload
.Ltmp524:
	@DEBUG_VALUE: mbedtls_internal_ripemd160_process:X <- [DW_OP_LLVM_fragment 64 32] $r5
	adds	r4, r5, r4
.Ltmp525:
	@DEBUG_VALUE: mbedtls_internal_ripemd160_process:X <- [DW_OP_plus_uconst 108, DW_OP_LLVM_fragment 64 32] [$sp+0]
	adds	r1, r4, r1
	ldr	r4, .LCPI5_12
	adds	r1, r1, r4
.Ltmp526:
	@DEBUG_VALUE: mbedtls_internal_ripemd160_process:A <- $r1
	ldr	r4, [sp, #132]                  @ 4-byte Reload
	rors	r1, r4
.Ltmp527:
	adds	r1, r1, r7
.Ltmp528:
	@DEBUG_VALUE: mbedtls_internal_ripemd160_process:A <- $r1
	.loc	1 278 5                         @ ../../../ThirdParty/mbedTLS/library/ripemd160.c:278:5
	mov	r4, r2
	rors	r4, r6
.Ltmp529:
	@DEBUG_VALUE: mbedtls_internal_ripemd160_process:B <- $r4
	.loc	1 279 5                         @ ../../../ThirdParty/mbedTLS/library/ripemd160.c:279:5
	str	r4, [sp, #52]                   @ 4-byte Spill
.Ltmp530:
	@DEBUG_VALUE: mbedtls_internal_ripemd160_process:B <- [DW_OP_plus_uconst 52] [$sp+0]
	mvns	r5, r4
	@DEBUG_VALUE: mbedtls_internal_ripemd160_process:B <- [DW_OP_plus_uconst 52] [$sp+0]
	orrs	r5, r1
	.loc	1 277 5                         @ ../../../ThirdParty/mbedTLS/library/ripemd160.c:277:5
	rors	r3, r6
.Ltmp531:
	@DEBUG_VALUE: mbedtls_internal_ripemd160_process:C <- $r3
	.loc	1 278 5                         @ ../../../ThirdParty/mbedTLS/library/ripemd160.c:278:5
	mvns	r6, r3
	orrs	r6, r2
	eors	r6, r1
	ldr	r2, [sp, #60]                   @ 4-byte Reload
.Ltmp532:
	@DEBUG_VALUE: mbedtls_internal_ripemd160_process:X <- [DW_OP_LLVM_fragment 320 32] $r2
	adds	r2, r2, r7
.Ltmp533:
	@DEBUG_VALUE: mbedtls_internal_ripemd160_process:X <- [DW_OP_plus_uconst 60, DW_OP_LLVM_fragment 320 32] [$sp+0]
	adds	r2, r2, r6
	ldr	r4, .LCPI5_12
	adds	r2, r2, r4
.Ltmp534:
	@DEBUG_VALUE: mbedtls_internal_ripemd160_process:E <- $r2
	.loc	1 0 5 is_stmt 0                 @ ../../../ThirdParty/mbedTLS/library/ripemd160.c:0:5
	ldr	r7, [sp, #140]                  @ 4-byte Reload
	.loc	1 278 5                         @ ../../../ThirdParty/mbedTLS/library/ripemd160.c:278:5
	rors	r2, r7
.Ltmp535:
	adds	r2, r2, r0
.Ltmp536:
	@DEBUG_VALUE: mbedtls_internal_ripemd160_process:E <- $r2
	.loc	1 279 5 is_stmt 1               @ ../../../ThirdParty/mbedTLS/library/ripemd160.c:279:5
	eors	r5, r2
	ldr	r6, [sp, #64]                   @ 4-byte Reload
.Ltmp537:
	@DEBUG_VALUE: mbedtls_internal_ripemd160_process:X <- [DW_OP_LLVM_fragment 448 32] $r6
	adds	r0, r6, r0
.Ltmp538:
	@DEBUG_VALUE: mbedtls_internal_ripemd160_process:X <- [DW_OP_plus_uconst 64, DW_OP_LLVM_fragment 448 32] [$sp+0]
	adds	r0, r0, r5
	adds	r0, r0, r4
.Ltmp539:
	@DEBUG_VALUE: mbedtls_internal_ripemd160_process:D <- $r0
	ldr	r5, [sp, #152]                  @ 4-byte Reload
	rors	r0, r5
.Ltmp540:
	adds	r4, r0, r3
.Ltmp541:
	@DEBUG_VALUE: mbedtls_internal_ripemd160_process:D <- $r4
	.loc	1 0 5 is_stmt 0                 @ ../../../ThirdParty/mbedTLS/library/ripemd160.c:0:5
	ldr	r0, [sp, #160]                  @ 4-byte Reload
	.loc	1 279 5                         @ ../../../ThirdParty/mbedTLS/library/ripemd160.c:279:5
	rors	r1, r0
.Ltmp542:
	@DEBUG_VALUE: mbedtls_internal_ripemd160_process:A <- $r1
	.loc	1 280 5 is_stmt 1               @ ../../../ThirdParty/mbedTLS/library/ripemd160.c:280:5
	mvns	r5, r1
	orrs	r5, r2
	eors	r5, r4
	ldr	r6, [sp, #104]                  @ 4-byte Reload
.Ltmp543:
	@DEBUG_VALUE: mbedtls_internal_ripemd160_process:X <- [DW_OP_LLVM_fragment 32 32] $r6
	adds	r3, r6, r3
.Ltmp544:
	@DEBUG_VALUE: mbedtls_internal_ripemd160_process:X <- [DW_OP_plus_uconst 104, DW_OP_LLVM_fragment 32 32] [$sp+0]
	adds	r3, r3, r5
	ldr	r5, .LCPI5_12
	adds	r3, r3, r5
.Ltmp545:
	@DEBUG_VALUE: mbedtls_internal_ripemd160_process:C <- $r3
	rors	r3, r7
.Ltmp546:
	.loc	1 0 5 is_stmt 0                 @ ../../../ThirdParty/mbedTLS/library/ripemd160.c:0:5
	ldr	r6, [sp, #52]                   @ 4-byte Reload
.Ltmp547:
	@DEBUG_VALUE: mbedtls_internal_ripemd160_process:B <- $r6
	.loc	1 280 5                         @ ../../../ThirdParty/mbedTLS/library/ripemd160.c:280:5
	adds	r7, r3, r6
.Ltmp548:
	@DEBUG_VALUE: mbedtls_internal_ripemd160_process:C <- $r7
	.loc	1 281 5 is_stmt 1               @ ../../../ThirdParty/mbedTLS/library/ripemd160.c:281:5
	mov	r3, r4
	rors	r3, r0
.Ltmp549:
	@DEBUG_VALUE: mbedtls_internal_ripemd160_process:D <- $r3
	.loc	1 282 5                         @ ../../../ThirdParty/mbedTLS/library/ripemd160.c:282:5
	str	r3, [sp, #4]                    @ 4-byte Spill
.Ltmp550:
	@DEBUG_VALUE: mbedtls_internal_ripemd160_process:D <- [DW_OP_plus_uconst 4] [$sp+0]
	mvns	r3, r3
	@DEBUG_VALUE: mbedtls_internal_ripemd160_process:D <- [DW_OP_plus_uconst 4] [$sp+0]
.Ltmp551:
	@DEBUG_VALUE: mbedtls_internal_ripemd160_process:D <- $r3
	orrs	r3, r7
.Ltmp552:
	.loc	1 280 5                         @ ../../../ThirdParty/mbedTLS/library/ripemd160.c:280:5
	rors	r2, r0
.Ltmp553:
	@DEBUG_VALUE: mbedtls_internal_ripemd160_process:E <- $r2
	.loc	1 281 5                         @ ../../../ThirdParty/mbedTLS/library/ripemd160.c:281:5
	mvns	r5, r2
	orrs	r5, r4
	eors	r5, r7
	ldr	r0, [sp, #112]                  @ 4-byte Reload
.Ltmp554:
	@DEBUG_VALUE: mbedtls_internal_ripemd160_process:X <- [DW_OP_LLVM_fragment 96 32] $r0
	adds	r0, r0, r6
.Ltmp555:
	@DEBUG_VALUE: mbedtls_internal_ripemd160_process:X <- [DW_OP_plus_uconst 112, DW_OP_LLVM_fragment 96 32] [$sp+0]
	adds	r0, r0, r5
	ldr	r4, .LCPI5_12
	adds	r0, r0, r4
.Ltmp556:
	@DEBUG_VALUE: mbedtls_internal_ripemd160_process:B <- $r0
	ldr	r5, [sp, #132]                  @ 4-byte Reload
	rors	r0, r5
.Ltmp557:
	adds	r0, r0, r1
.Ltmp558:
	@DEBUG_VALUE: mbedtls_internal_ripemd160_process:B <- $r0
	.loc	1 282 5                         @ ../../../ThirdParty/mbedTLS/library/ripemd160.c:282:5
	eors	r3, r0
	mov	r5, r0
.Ltmp559:
	@DEBUG_VALUE: mbedtls_internal_ripemd160_process:B <- $r5
	str	r0, [sp, #48]                   @ 4-byte Spill
	ldr	r0, [sp, #72]                   @ 4-byte Reload
.Ltmp560:
	@DEBUG_VALUE: mbedtls_internal_ripemd160_process:X <- [DW_OP_LLVM_fragment 256 32] $r0
	adds	r0, r0, r1
.Ltmp561:
	@DEBUG_VALUE: mbedtls_internal_ripemd160_process:X <- [DW_OP_plus_uconst 72, DW_OP_LLVM_fragment 256 32] [$sp+0]
	adds	r0, r0, r3
	adds	r0, r0, r4
.Ltmp562:
	@DEBUG_VALUE: mbedtls_internal_ripemd160_process:A <- $r0
	ldr	r1, [sp, #124]                  @ 4-byte Reload
	rors	r0, r1
.Ltmp563:
	adds	r1, r0, r2
.Ltmp564:
	@DEBUG_VALUE: mbedtls_internal_ripemd160_process:A <- $r1
	.loc	1 0 5 is_stmt 0                 @ ../../../ThirdParty/mbedTLS/library/ripemd160.c:0:5
	str	r1, [sp, #52]                   @ 4-byte Spill
	@DEBUG_VALUE: mbedtls_internal_ripemd160_process:C <- $r7
	ldr	r3, [sp, #160]                  @ 4-byte Reload
	.loc	1 282 5                         @ ../../../ThirdParty/mbedTLS/library/ripemd160.c:282:5
	rors	r7, r3
.Ltmp565:
	@DEBUG_VALUE: mbedtls_internal_ripemd160_process:C <- $r7
	.loc	1 283 5 is_stmt 1               @ ../../../ThirdParty/mbedTLS/library/ripemd160.c:283:5
	str	r7, [sp, #8]                    @ 4-byte Spill
.Ltmp566:
	@DEBUG_VALUE: mbedtls_internal_ripemd160_process:C <- [DW_OP_plus_uconst 8] [$sp+0]
	mvns	r0, r7
	@DEBUG_VALUE: mbedtls_internal_ripemd160_process:C <- [DW_OP_plus_uconst 8] [$sp+0]
	orrs	r0, r5
.Ltmp567:
	@DEBUG_VALUE: mbedtls_internal_ripemd160_process:B <- [DW_OP_plus_uconst 48] [$sp+0]
	eors	r0, r1
.Ltmp568:
	@DEBUG_VALUE: mbedtls_internal_ripemd160_process:A <- [DW_OP_plus_uconst 52] [$sp+0]
	ldr	r1, [sp, #92]                   @ 4-byte Reload
.Ltmp569:
	@DEBUG_VALUE: mbedtls_internal_ripemd160_process:X <- [DW_OP_LLVM_fragment 352 32] $r1
	adds	r1, r1, r2
.Ltmp570:
	@DEBUG_VALUE: mbedtls_internal_ripemd160_process:X <- [DW_OP_plus_uconst 92, DW_OP_LLVM_fragment 352 32] [$sp+0]
	adds	r0, r1, r0
	adds	r0, r0, r4
.Ltmp571:
	@DEBUG_VALUE: mbedtls_internal_ripemd160_process:E <- $r0
	ldr	r1, [sp, #144]                  @ 4-byte Reload
	rors	r0, r1
.Ltmp572:
	ldr	r1, [sp, #4]                    @ 4-byte Reload
.Ltmp573:
	@DEBUG_VALUE: mbedtls_internal_ripemd160_process:D <- $r1
	adds	r0, r0, r1
.Ltmp574:
	@DEBUG_VALUE: mbedtls_internal_ripemd160_process:E <- $r0
	@DEBUG_VALUE: mbedtls_internal_ripemd160_process:D <- [DW_OP_plus_uconst 4] [$sp+0]
	.loc	1 0 5 is_stmt 0                 @ ../../../ThirdParty/mbedTLS/library/ripemd160.c:0:5
	str	r0, [sp, #12]                   @ 4-byte Spill
.Ltmp575:
	@DEBUG_VALUE: mbedtls_internal_ripemd160_process:E <- [DW_OP_plus_uconst 12] [$sp+0]
	@DEBUG_VALUE: mbedtls_internal_ripemd160_process:D <- [DW_OP_plus_uconst 4] [$sp+0]
	.loc	1 285 5 is_stmt 1               @ ../../../ThirdParty/mbedTLS/library/ripemd160.c:285:5
	rors	r0, r3
.Ltmp576:
	@DEBUG_VALUE: mbedtls_internal_ripemd160_process:E <- $r0
	.loc	1 0 5 is_stmt 0                 @ ../../../ThirdParty/mbedTLS/library/ripemd160.c:0:5
	mov	r5, r3
	str	r0, [sp, #16]                   @ 4-byte Spill
.Ltmp577:
	@DEBUG_VALUE: mbedtls_internal_ripemd160_process:E <- [DW_OP_plus_uconst 16] [$sp+0]
	@DEBUG_VALUE: mbedtls_internal_ripemd160_process:E <- [DW_OP_plus_uconst 16] [$sp+0]
	ldr	r6, [sp, #36]                   @ 4-byte Reload
.Ltmp578:
	@DEBUG_VALUE: mbedtls_internal_ripemd160_process:Dp <- $r6
	.loc	1 171 5 is_stmt 1               @ ../../../ThirdParty/mbedTLS/library/ripemd160.c:171:5
	mvns	r0, r6
	ldr	r1, [sp, #28]                   @ 4-byte Reload
	orrs	r0, r1
	ldr	r2, [sp, #20]                   @ 4-byte Reload
	eors	r0, r2
	ldr	r1, [sp, #32]                   @ 4-byte Reload
.Ltmp579:
	@DEBUG_VALUE: mbedtls_internal_ripemd160_process:Ap <- $r1
	ldr	r3, [sp, #84]                   @ 4-byte Reload
.Ltmp580:
	@DEBUG_VALUE: mbedtls_internal_ripemd160_process:X <- [DW_OP_LLVM_fragment 160 32] $r3
	adds	r1, r3, r1
.Ltmp581:
	@DEBUG_VALUE: mbedtls_internal_ripemd160_process:X <- [DW_OP_plus_uconst 84, DW_OP_LLVM_fragment 160 32] [$sp+0]
	@DEBUG_VALUE: mbedtls_internal_ripemd160_process:Ap <- [DW_OP_plus_uconst 32] [$sp+0]
	adds	r0, r1, r0
	ldr	r1, .LCPI5_13
	adds	r0, r0, r1
.Ltmp582:
	@DEBUG_VALUE: mbedtls_internal_ripemd160_process:Ap <- $r0
	.loc	1 0 5 is_stmt 0                 @ ../../../ThirdParty/mbedTLS/library/ripemd160.c:0:5
	mov	r4, r1
	.loc	1 171 5                         @ ../../../ThirdParty/mbedTLS/library/ripemd160.c:171:5
	ldr	r1, [sp, #156]                  @ 4-byte Reload
	rors	r0, r1
.Ltmp583:
	.loc	1 0 5                           @ ../../../ThirdParty/mbedTLS/library/ripemd160.c:0:5
	ldr	r3, [sp, #24]                   @ 4-byte Reload
.Ltmp584:
	@DEBUG_VALUE: mbedtls_internal_ripemd160_process:Ep <- $r3
	.loc	1 171 5                         @ ../../../ThirdParty/mbedTLS/library/ripemd160.c:171:5
	adds	r1, r0, r3
.Ltmp585:
	@DEBUG_VALUE: mbedtls_internal_ripemd160_process:Ap <- $r1
	@DEBUG_VALUE: mbedtls_internal_ripemd160_process:Cp <- [DW_OP_plus_uconst 40] [$sp+0]
	.loc	1 172 5 is_stmt 1               @ ../../../ThirdParty/mbedTLS/library/ripemd160.c:172:5
	ldr	r0, [sp, #40]                   @ 4-byte Reload
.Ltmp586:
	@DEBUG_VALUE: mbedtls_internal_ripemd160_process:Cp <- $r0
	mvns	r0, r0
.Ltmp587:
	@DEBUG_VALUE: mbedtls_internal_ripemd160_process:Cp <- [DW_OP_plus_uconst 40] [$sp+0]
	orrs	r0, r2
	eors	r0, r1
	ldr	r2, [sp, #64]                   @ 4-byte Reload
.Ltmp588:
	@DEBUG_VALUE: mbedtls_internal_ripemd160_process:X <- [DW_OP_LLVM_fragment 448 32] $r2
	adds	r2, r2, r3
.Ltmp589:
	@DEBUG_VALUE: mbedtls_internal_ripemd160_process:X <- [DW_OP_plus_uconst 64, DW_OP_LLVM_fragment 448 32] [$sp+0]
	@DEBUG_VALUE: mbedtls_internal_ripemd160_process:Ep <- [DW_OP_plus_uconst 24] [$sp+0]
	adds	r0, r2, r0
	adds	r0, r0, r4
.Ltmp590:
	@DEBUG_VALUE: mbedtls_internal_ripemd160_process:Ep <- $r0
	.loc	1 0 5 is_stmt 0                 @ ../../../ThirdParty/mbedTLS/library/ripemd160.c:0:5
	ldr	r7, [sp, #136]                  @ 4-byte Reload
	.loc	1 172 5                         @ ../../../ThirdParty/mbedTLS/library/ripemd160.c:172:5
	rors	r0, r7
.Ltmp591:
	adds	r2, r0, r6
.Ltmp592:
	@DEBUG_VALUE: mbedtls_internal_ripemd160_process:Ep <- $r2
	.loc	1 173 5 is_stmt 1               @ ../../../ThirdParty/mbedTLS/library/ripemd160.c:173:5
	mov	r0, r1
	rors	r0, r5
.Ltmp593:
	@DEBUG_VALUE: mbedtls_internal_ripemd160_process:Ap <- $r0
	.loc	1 174 5                         @ ../../../ThirdParty/mbedTLS/library/ripemd160.c:174:5
	mvns	r4, r0
	orrs	r4, r2
	ldr	r5, [sp]                        @ 4-byte Reload
.Ltmp594:
	@DEBUG_VALUE: mbedtls_internal_ripemd160_process:Bp <- $r5
	.loc	1 173 5                         @ ../../../ThirdParty/mbedTLS/library/ripemd160.c:173:5
	mvns	r3, r5
	orrs	r3, r1
	eors	r3, r2
	ldr	r1, [sp, #80]                   @ 4-byte Reload
.Ltmp595:
	@DEBUG_VALUE: mbedtls_internal_ripemd160_process:X <- [DW_OP_LLVM_fragment 224 32] $r1
	adds	r1, r1, r6
.Ltmp596:
	@DEBUG_VALUE: mbedtls_internal_ripemd160_process:X <- [DW_OP_plus_uconst 80, DW_OP_LLVM_fragment 224 32] [$sp+0]
	@DEBUG_VALUE: mbedtls_internal_ripemd160_process:Dp <- [DW_OP_plus_uconst 36] [$sp+0]
	adds	r1, r1, r3
	ldr	r3, .LCPI5_13
	adds	r1, r1, r3
.Ltmp597:
	@DEBUG_VALUE: mbedtls_internal_ripemd160_process:Dp <- $r1
	rors	r1, r7
.Ltmp598:
	.loc	1 0 5 is_stmt 0                 @ ../../../ThirdParty/mbedTLS/library/ripemd160.c:0:5
	ldr	r6, [sp, #40]                   @ 4-byte Reload
.Ltmp599:
	@DEBUG_VALUE: mbedtls_internal_ripemd160_process:Cp <- $r6
	.loc	1 173 5                         @ ../../../ThirdParty/mbedTLS/library/ripemd160.c:173:5
	adds	r3, r1, r6
.Ltmp600:
	@DEBUG_VALUE: mbedtls_internal_ripemd160_process:Dp <- $r3
	.loc	1 174 5 is_stmt 1               @ ../../../ThirdParty/mbedTLS/library/ripemd160.c:174:5
	eors	r4, r3
	ldr	r1, [sp, #116]                  @ 4-byte Reload
.Ltmp601:
	@DEBUG_VALUE: mbedtls_internal_ripemd160_process:X <- [DW_OP_LLVM_fragment 0 32] $r1
	adds	r1, r1, r6
.Ltmp602:
	@DEBUG_VALUE: mbedtls_internal_ripemd160_process:X <- [DW_OP_plus_uconst 116, DW_OP_LLVM_fragment 0 32] [$sp+0]
	adds	r1, r1, r4
	ldr	r4, .LCPI5_13
	adds	r1, r1, r4
.Ltmp603:
	@DEBUG_VALUE: mbedtls_internal_ripemd160_process:Cp <- $r1
	ldr	r4, [sp, #144]                  @ 4-byte Reload
	rors	r1, r4
.Ltmp604:
	.loc	1 0 5 is_stmt 0                 @ ../../../ThirdParty/mbedTLS/library/ripemd160.c:0:5
	mov	r6, r5
.Ltmp605:
	@DEBUG_VALUE: mbedtls_internal_ripemd160_process:Bp <- $r6
	.loc	1 174 5                         @ ../../../ThirdParty/mbedTLS/library/ripemd160.c:174:5
	adds	r4, r1, r5
.Ltmp606:
	@DEBUG_VALUE: mbedtls_internal_ripemd160_process:Cp <- $r4
	.loc	1 0 5                           @ ../../../ThirdParty/mbedTLS/library/ripemd160.c:0:5
	ldr	r7, [sp, #160]                  @ 4-byte Reload
	.loc	1 174 5                         @ ../../../ThirdParty/mbedTLS/library/ripemd160.c:174:5
	rors	r2, r7
.Ltmp607:
	@DEBUG_VALUE: mbedtls_internal_ripemd160_process:Ep <- $r2
	.loc	1 175 5 is_stmt 1               @ ../../../ThirdParty/mbedTLS/library/ripemd160.c:175:5
	mvns	r1, r2
	orrs	r1, r3
	eors	r1, r4
	ldr	r5, [sp, #96]                   @ 4-byte Reload
.Ltmp608:
	@DEBUG_VALUE: mbedtls_internal_ripemd160_process:X <- [DW_OP_LLVM_fragment 288 32] $r5
	adds	r5, r5, r6
.Ltmp609:
	@DEBUG_VALUE: mbedtls_internal_ripemd160_process:X <- [DW_OP_plus_uconst 96, DW_OP_LLVM_fragment 288 32] [$sp+0]
	adds	r1, r5, r1
	ldr	r5, .LCPI5_13
	adds	r1, r1, r5
.Ltmp610:
	@DEBUG_VALUE: mbedtls_internal_ripemd160_process:Bp <- $r1
	ldr	r5, [sp, #132]                  @ 4-byte Reload
	rors	r1, r5
.Ltmp611:
	adds	r1, r1, r0
.Ltmp612:
	@DEBUG_VALUE: mbedtls_internal_ripemd160_process:Bp <- $r1
	.loc	1 176 5                         @ ../../../ThirdParty/mbedTLS/library/ripemd160.c:176:5
	mov	r5, r4
	rors	r5, r7
.Ltmp613:
	@DEBUG_VALUE: mbedtls_internal_ripemd160_process:Cp <- $r5
	.loc	1 177 5                         @ ../../../ThirdParty/mbedTLS/library/ripemd160.c:177:5
	mvns	r6, r5
	orrs	r6, r1
	.loc	1 175 5                         @ ../../../ThirdParty/mbedTLS/library/ripemd160.c:175:5
	rors	r3, r7
.Ltmp614:
	@DEBUG_VALUE: mbedtls_internal_ripemd160_process:Dp <- $r3
	.loc	1 176 5                         @ ../../../ThirdParty/mbedTLS/library/ripemd160.c:176:5
	mvns	r7, r3
	orrs	r7, r4
	eors	r7, r1
	ldr	r4, [sp, #108]                  @ 4-byte Reload
.Ltmp615:
	@DEBUG_VALUE: mbedtls_internal_ripemd160_process:X <- [DW_OP_LLVM_fragment 64 32] $r4
	adds	r0, r4, r0
.Ltmp616:
	@DEBUG_VALUE: mbedtls_internal_ripemd160_process:X <- [DW_OP_plus_uconst 108, DW_OP_LLVM_fragment 64 32] [$sp+0]
	adds	r0, r0, r7
	ldr	r4, .LCPI5_13
	adds	r0, r0, r4
.Ltmp617:
	@DEBUG_VALUE: mbedtls_internal_ripemd160_process:Ap <- $r0
	.loc	1 0 5 is_stmt 0                 @ ../../../ThirdParty/mbedTLS/library/ripemd160.c:0:5
	ldr	r7, [sp, #128]                  @ 4-byte Reload
	.loc	1 176 5                         @ ../../../ThirdParty/mbedTLS/library/ripemd160.c:176:5
	rors	r0, r7
.Ltmp618:
	adds	r4, r0, r2
.Ltmp619:
	@DEBUG_VALUE: mbedtls_internal_ripemd160_process:Ap <- $r4
	.loc	1 177 5 is_stmt 1               @ ../../../ThirdParty/mbedTLS/library/ripemd160.c:177:5
	eors	r6, r4
	ldr	r0, [sp, #92]                   @ 4-byte Reload
.Ltmp620:
	@DEBUG_VALUE: mbedtls_internal_ripemd160_process:X <- [DW_OP_LLVM_fragment 352 32] $r0
	adds	r0, r0, r2
.Ltmp621:
	@DEBUG_VALUE: mbedtls_internal_ripemd160_process:X <- [DW_OP_plus_uconst 92, DW_OP_LLVM_fragment 352 32] [$sp+0]
	adds	r0, r0, r6
	ldr	r2, .LCPI5_13
.Ltmp622:
	adds	r0, r0, r2
.Ltmp623:
	@DEBUG_VALUE: mbedtls_internal_ripemd160_process:Ep <- $r0
	rors	r0, r7
.Ltmp624:
	adds	r0, r0, r3
.Ltmp625:
	@DEBUG_VALUE: mbedtls_internal_ripemd160_process:Ep <- $r0
	ldr	r2, [sp, #160]                  @ 4-byte Reload
	rors	r1, r2
.Ltmp626:
	@DEBUG_VALUE: mbedtls_internal_ripemd160_process:Bp <- $r1
	.loc	1 178 5                         @ ../../../ThirdParty/mbedTLS/library/ripemd160.c:178:5
	mvns	r2, r1
	orrs	r2, r4
	eors	r2, r0
	ldr	r6, [sp, #88]                   @ 4-byte Reload
.Ltmp627:
	@DEBUG_VALUE: mbedtls_internal_ripemd160_process:X <- [DW_OP_LLVM_fragment 128 32] $r6
	adds	r3, r6, r3
.Ltmp628:
	@DEBUG_VALUE: mbedtls_internal_ripemd160_process:X <- [DW_OP_plus_uconst 88, DW_OP_LLVM_fragment 128 32] [$sp+0]
	adds	r2, r3, r2
	ldr	r3, .LCPI5_13
	adds	r2, r2, r3
.Ltmp629:
	@DEBUG_VALUE: mbedtls_internal_ripemd160_process:Dp <- $r2
	ldr	r3, [sp, #152]                  @ 4-byte Reload
	rors	r2, r3
.Ltmp630:
	adds	r2, r2, r5
.Ltmp631:
	@DEBUG_VALUE: mbedtls_internal_ripemd160_process:Dp <- $r2
	.loc	1 179 5                         @ ../../../ThirdParty/mbedTLS/library/ripemd160.c:179:5
	mov	r7, r0
	ldr	r6, [sp, #160]                  @ 4-byte Reload
	rors	r7, r6
.Ltmp632:
	@DEBUG_VALUE: mbedtls_internal_ripemd160_process:Ep <- $r7
	.loc	1 180 5                         @ ../../../ThirdParty/mbedTLS/library/ripemd160.c:180:5
	mvns	r3, r7
	orrs	r3, r2
	.loc	1 178 5                         @ ../../../ThirdParty/mbedTLS/library/ripemd160.c:178:5
	rors	r4, r6
.Ltmp633:
	@DEBUG_VALUE: mbedtls_internal_ripemd160_process:Ap <- $r4
	.loc	1 179 5                         @ ../../../ThirdParty/mbedTLS/library/ripemd160.c:179:5
	mvns	r6, r4
	orrs	r6, r0
	eors	r6, r2
	ldr	r0, [sp, #76]                   @ 4-byte Reload
.Ltmp634:
	@DEBUG_VALUE: mbedtls_internal_ripemd160_process:X <- [DW_OP_LLVM_fragment 416 32] $r0
	adds	r0, r0, r5
.Ltmp635:
	@DEBUG_VALUE: mbedtls_internal_ripemd160_process:X <- [DW_OP_plus_uconst 76, DW_OP_LLVM_fragment 416 32] [$sp+0]
	adds	r0, r0, r6
	ldr	r5, .LCPI5_13
.Ltmp636:
	adds	r0, r0, r5
.Ltmp637:
	@DEBUG_VALUE: mbedtls_internal_ripemd160_process:Cp <- $r0
	.loc	1 0 5 is_stmt 0                 @ ../../../ThirdParty/mbedTLS/library/ripemd160.c:0:5
	ldr	r6, [sp, #120]                  @ 4-byte Reload
	.loc	1 179 5                         @ ../../../ThirdParty/mbedTLS/library/ripemd160.c:179:5
	rors	r0, r6
.Ltmp638:
	adds	r5, r0, r1
.Ltmp639:
	@DEBUG_VALUE: mbedtls_internal_ripemd160_process:Cp <- $r5
	.loc	1 180 5 is_stmt 1               @ ../../../ThirdParty/mbedTLS/library/ripemd160.c:180:5
	eors	r3, r5
	ldr	r0, [sp, #100]                  @ 4-byte Reload
.Ltmp640:
	@DEBUG_VALUE: mbedtls_internal_ripemd160_process:X <- [DW_OP_LLVM_fragment 192 32] $r0
	adds	r0, r0, r1
.Ltmp641:
	@DEBUG_VALUE: mbedtls_internal_ripemd160_process:X <- [DW_OP_plus_uconst 100, DW_OP_LLVM_fragment 192 32] [$sp+0]
	adds	r0, r0, r3
	ldr	r1, .LCPI5_13
.Ltmp642:
	adds	r0, r0, r1
.Ltmp643:
	@DEBUG_VALUE: mbedtls_internal_ripemd160_process:Bp <- $r0
	rors	r0, r6
.Ltmp644:
	adds	r1, r0, r4
.Ltmp645:
	@DEBUG_VALUE: mbedtls_internal_ripemd160_process:Bp <- $r1
	.loc	1 0 5 is_stmt 0                 @ ../../../ThirdParty/mbedTLS/library/ripemd160.c:0:5
	ldr	r6, [sp, #160]                  @ 4-byte Reload
	.loc	1 180 5                         @ ../../../ThirdParty/mbedTLS/library/ripemd160.c:180:5
	rors	r2, r6
.Ltmp646:
	@DEBUG_VALUE: mbedtls_internal_ripemd160_process:Dp <- $r2
	.loc	1 181 5 is_stmt 1               @ ../../../ThirdParty/mbedTLS/library/ripemd160.c:181:5
	mvns	r0, r2
	orrs	r0, r5
	eors	r0, r1
	ldr	r3, [sp, #68]                   @ 4-byte Reload
.Ltmp647:
	@DEBUG_VALUE: mbedtls_internal_ripemd160_process:X <- [DW_OP_LLVM_fragment 480 32] $r3
	adds	r3, r3, r4
.Ltmp648:
	@DEBUG_VALUE: mbedtls_internal_ripemd160_process:X <- [DW_OP_plus_uconst 68, DW_OP_LLVM_fragment 480 32] [$sp+0]
	adds	r0, r3, r0
	ldr	r3, .LCPI5_13
	adds	r0, r0, r3
.Ltmp649:
	@DEBUG_VALUE: mbedtls_internal_ripemd160_process:Ap <- $r0
	ldr	r3, [sp, #156]                  @ 4-byte Reload
	rors	r0, r3
.Ltmp650:
	adds	r3, r0, r7
.Ltmp651:
	@DEBUG_VALUE: mbedtls_internal_ripemd160_process:Ap <- $r3
	.loc	1 182 5                         @ ../../../ThirdParty/mbedTLS/library/ripemd160.c:182:5
	mov	r0, r1
	mov	r4, r6
	rors	r0, r6
.Ltmp652:
	@DEBUG_VALUE: mbedtls_internal_ripemd160_process:Bp <- $r0
	.loc	1 183 5                         @ ../../../ThirdParty/mbedTLS/library/ripemd160.c:183:5
	mvns	r6, r0
	orrs	r6, r3
	.loc	1 181 5                         @ ../../../ThirdParty/mbedTLS/library/ripemd160.c:181:5
	rors	r5, r4
.Ltmp653:
	@DEBUG_VALUE: mbedtls_internal_ripemd160_process:Cp <- $r5
	.loc	1 182 5                         @ ../../../ThirdParty/mbedTLS/library/ripemd160.c:182:5
	mvns	r4, r5
	orrs	r4, r1
	eors	r4, r3
	ldr	r1, [sp, #72]                   @ 4-byte Reload
.Ltmp654:
	@DEBUG_VALUE: mbedtls_internal_ripemd160_process:X <- [DW_OP_LLVM_fragment 256 32] $r1
	adds	r1, r1, r7
.Ltmp655:
	@DEBUG_VALUE: mbedtls_internal_ripemd160_process:X <- [DW_OP_plus_uconst 72, DW_OP_LLVM_fragment 256 32] [$sp+0]
	adds	r1, r1, r4
	ldr	r7, .LCPI5_13
.Ltmp656:
	adds	r1, r1, r7
.Ltmp657:
	@DEBUG_VALUE: mbedtls_internal_ripemd160_process:Ep <- $r1
	ldr	r4, [sp, #144]                  @ 4-byte Reload
	rors	r1, r4
.Ltmp658:
	adds	r4, r1, r2
.Ltmp659:
	@DEBUG_VALUE: mbedtls_internal_ripemd160_process:Ep <- $r4
	.loc	1 183 5                         @ ../../../ThirdParty/mbedTLS/library/ripemd160.c:183:5
	eors	r6, r4
	ldr	r1, [sp, #104]                  @ 4-byte Reload
.Ltmp660:
	@DEBUG_VALUE: mbedtls_internal_ripemd160_process:X <- [DW_OP_LLVM_fragment 32 32] $r1
	adds	r1, r1, r2
.Ltmp661:
	@DEBUG_VALUE: mbedtls_internal_ripemd160_process:X <- [DW_OP_plus_uconst 104, DW_OP_LLVM_fragment 32 32] [$sp+0]
	adds	r1, r1, r6
	adds	r1, r1, r7
.Ltmp662:
	@DEBUG_VALUE: mbedtls_internal_ripemd160_process:Dp <- $r1
	.loc	1 0 5 is_stmt 0                 @ ../../../ThirdParty/mbedTLS/library/ripemd160.c:0:5
	ldr	r6, [sp, #124]                  @ 4-byte Reload
	.loc	1 183 5                         @ ../../../ThirdParty/mbedTLS/library/ripemd160.c:183:5
	rors	r1, r6
.Ltmp663:
	adds	r2, r1, r5
.Ltmp664:
	@DEBUG_VALUE: mbedtls_internal_ripemd160_process:Dp <- $r2
	ldr	r1, [sp, #160]                  @ 4-byte Reload
	rors	r3, r1
.Ltmp665:
	@DEBUG_VALUE: mbedtls_internal_ripemd160_process:Ap <- $r3
	.loc	1 184 5 is_stmt 1               @ ../../../ThirdParty/mbedTLS/library/ripemd160.c:184:5
	mvns	r1, r3
	orrs	r1, r4
	eors	r1, r2
	ldr	r7, [sp, #60]                   @ 4-byte Reload
.Ltmp666:
	@DEBUG_VALUE: mbedtls_internal_ripemd160_process:X <- [DW_OP_LLVM_fragment 320 32] $r7
	adds	r5, r7, r5
.Ltmp667:
	@DEBUG_VALUE: mbedtls_internal_ripemd160_process:X <- [DW_OP_plus_uconst 60, DW_OP_LLVM_fragment 320 32] [$sp+0]
	adds	r1, r5, r1
	ldr	r5, .LCPI5_13
	adds	r1, r1, r5
.Ltmp668:
	@DEBUG_VALUE: mbedtls_internal_ripemd160_process:Cp <- $r1
	rors	r1, r6
.Ltmp669:
	adds	r1, r1, r0
.Ltmp670:
	@DEBUG_VALUE: mbedtls_internal_ripemd160_process:Cp <- $r1
	.loc	1 185 5                         @ ../../../ThirdParty/mbedTLS/library/ripemd160.c:185:5
	mov	r5, r2
	ldr	r7, [sp, #160]                  @ 4-byte Reload
	rors	r5, r7
.Ltmp671:
	@DEBUG_VALUE: mbedtls_internal_ripemd160_process:Dp <- $r5
	.loc	1 186 5                         @ ../../../ThirdParty/mbedTLS/library/ripemd160.c:186:5
	mvns	r6, r5
	orrs	r6, r1
	.loc	1 184 5                         @ ../../../ThirdParty/mbedTLS/library/ripemd160.c:184:5
	rors	r4, r7
.Ltmp672:
	@DEBUG_VALUE: mbedtls_internal_ripemd160_process:Ep <- $r4
	.loc	1 185 5                         @ ../../../ThirdParty/mbedTLS/library/ripemd160.c:185:5
	mvns	r7, r4
	orrs	r7, r2
	eors	r7, r1
	b	.LBB5_8
.Ltmp673:
	.p2align	2
@ %bb.5:
	.loc	1 0 5 is_stmt 0                 @ ../../../ThirdParty/mbedTLS/library/ripemd160.c:0:5
__arm_cp.5_11:
	.long	2400959708                      @ 0x8f1bbcdc
.Lcpi_end7:
	.size	__arm_cp.5_11, .Lcpi_end7-__arm_cp.5_11
	.p2align	2
@ %bb.6:
.LCPI5_12:
	.long	2840853838                      @ 0xa953fd4e
	.p2align	2
@ %bb.7:
.LCPI5_13:
	.long	1352829926                      @ 0x50a28be6
	.p2align	1
.LBB5_8:
	.loc	1 185 5                         @ ../../../ThirdParty/mbedTLS/library/ripemd160.c:185:5
	ldr	r2, [sp, #112]                  @ 4-byte Reload
.Ltmp674:
	@DEBUG_VALUE: mbedtls_internal_ripemd160_process:X <- [DW_OP_LLVM_fragment 96 32] $r2
	adds	r0, r2, r0
.Ltmp675:
	@DEBUG_VALUE: mbedtls_internal_ripemd160_process:X <- [DW_OP_plus_uconst 112, DW_OP_LLVM_fragment 96 32] [$sp+0]
	adds	r0, r0, r7
	ldr	r2, __arm_cp.5_14
	adds	r0, r0, r2
.Ltmp676:
	@DEBUG_VALUE: mbedtls_internal_ripemd160_process:Bp <- $r0
	ldr	r2, [sp, #140]                  @ 4-byte Reload
	rors	r0, r2
.Ltmp677:
	adds	r7, r0, r3
.Ltmp678:
	@DEBUG_VALUE: mbedtls_internal_ripemd160_process:Bp <- $r7
	.loc	1 186 5 is_stmt 1               @ ../../../ThirdParty/mbedTLS/library/ripemd160.c:186:5
	eors	r6, r7
	ldr	r0, [sp, #56]                   @ 4-byte Reload
.Ltmp679:
	@DEBUG_VALUE: mbedtls_internal_ripemd160_process:X <- [DW_OP_LLVM_fragment 384 32] $r0
	adds	r0, r0, r3
.Ltmp680:
	@DEBUG_VALUE: mbedtls_internal_ripemd160_process:X <- [DW_OP_plus_uconst 56, DW_OP_LLVM_fragment 384 32] [$sp+0]
	adds	r0, r0, r6
	ldr	r2, __arm_cp.5_14
	adds	r0, r0, r2
.Ltmp681:
	@DEBUG_VALUE: mbedtls_internal_ripemd160_process:Ap <- $r0
	ldr	r2, [sp, #148]                  @ 4-byte Reload
	rors	r0, r2
.Ltmp682:
	adds	r0, r0, r4
.Ltmp683:
	@DEBUG_VALUE: mbedtls_internal_ripemd160_process:Ap <- $r0
	.loc	1 197 5                         @ ../../../ThirdParty/mbedTLS/library/ripemd160.c:197:5
	mov	r2, r0
	ldr	r3, [sp, #160]                  @ 4-byte Reload
	rors	r2, r3
.Ltmp684:
	@DEBUG_VALUE: mbedtls_internal_ripemd160_process:Ap <- $r2
	.loc	1 186 5                         @ ../../../ThirdParty/mbedTLS/library/ripemd160.c:186:5
	rors	r1, r3
.Ltmp685:
	@DEBUG_VALUE: mbedtls_internal_ripemd160_process:Cp <- $r1
	.loc	1 196 5                         @ ../../../ThirdParty/mbedTLS/library/ripemd160.c:196:5
	mov	r3, r0
	ands	r3, r1
	mov	r6, r7
	bics	r6, r1
	orrs	r6, r3
	ldr	r3, [sp, #100]                  @ 4-byte Reload
.Ltmp686:
	@DEBUG_VALUE: mbedtls_internal_ripemd160_process:X <- [DW_OP_LLVM_fragment 192 32] $r3
	adds	r3, r3, r4
.Ltmp687:
	@DEBUG_VALUE: mbedtls_internal_ripemd160_process:X <- [DW_OP_plus_uconst 100, DW_OP_LLVM_fragment 192 32] [$sp+0]
	adds	r3, r3, r6
	ldr	r4, __arm_cp.5_15
	adds	r3, r3, r4
.Ltmp688:
	@DEBUG_VALUE: mbedtls_internal_ripemd160_process:Ep <- $r3
	ldr	r4, [sp, #136]                  @ 4-byte Reload
	rors	r3, r4
.Ltmp689:
	adds	r4, r3, r5
.Ltmp690:
	@DEBUG_VALUE: mbedtls_internal_ripemd160_process:Ep <- $r4
	.loc	1 198 5                         @ ../../../ThirdParty/mbedTLS/library/ripemd160.c:198:5
	mov	r3, r4
	bics	r3, r2
	.loc	1 196 5                         @ ../../../ThirdParty/mbedTLS/library/ripemd160.c:196:5
	ldr	r6, [sp, #160]                  @ 4-byte Reload
	rors	r7, r6
.Ltmp691:
	@DEBUG_VALUE: mbedtls_internal_ripemd160_process:Bp <- $r7
	.loc	1 197 5                         @ ../../../ThirdParty/mbedTLS/library/ripemd160.c:197:5
	bics	r0, r7
	mov	r6, r4
	ands	r6, r7
	orrs	r6, r0
	ldr	r0, [sp, #92]                   @ 4-byte Reload
.Ltmp692:
	@DEBUG_VALUE: mbedtls_internal_ripemd160_process:X <- [DW_OP_LLVM_fragment 352 32] $r0
	adds	r0, r0, r5
.Ltmp693:
	@DEBUG_VALUE: mbedtls_internal_ripemd160_process:X <- [DW_OP_plus_uconst 92, DW_OP_LLVM_fragment 352 32] [$sp+0]
	adds	r0, r0, r6
	ldr	r6, __arm_cp.5_15
	adds	r0, r0, r6
.Ltmp694:
	@DEBUG_VALUE: mbedtls_internal_ripemd160_process:Dp <- $r0
	ldr	r5, [sp, #132]                  @ 4-byte Reload
	rors	r0, r5
.Ltmp695:
	adds	r5, r0, r1
.Ltmp696:
	@DEBUG_VALUE: mbedtls_internal_ripemd160_process:Dp <- $r5
	.loc	1 198 5                         @ ../../../ThirdParty/mbedTLS/library/ripemd160.c:198:5
	mov	r0, r5
	ands	r0, r2
	orrs	r0, r3
	ldr	r3, [sp, #112]                  @ 4-byte Reload
.Ltmp697:
	@DEBUG_VALUE: mbedtls_internal_ripemd160_process:X <- [DW_OP_LLVM_fragment 96 32] $r3
	adds	r1, r3, r1
.Ltmp698:
	@DEBUG_VALUE: mbedtls_internal_ripemd160_process:X <- [DW_OP_plus_uconst 112, DW_OP_LLVM_fragment 96 32] [$sp+0]
	adds	r0, r1, r0
	adds	r0, r0, r6
.Ltmp699:
	@DEBUG_VALUE: mbedtls_internal_ripemd160_process:Cp <- $r0
	ldr	r1, [sp, #128]                  @ 4-byte Reload
	rors	r0, r1
.Ltmp700:
	adds	r0, r0, r7
.Ltmp701:
	@DEBUG_VALUE: mbedtls_internal_ripemd160_process:Cp <- $r0
	.loc	1 200 5                         @ ../../../ThirdParty/mbedTLS/library/ripemd160.c:200:5
	mov	r3, r0
	ldr	r1, [sp, #160]                  @ 4-byte Reload
	rors	r3, r1
.Ltmp702:
	@DEBUG_VALUE: mbedtls_internal_ripemd160_process:Cp <- $r3
	.loc	1 198 5                         @ ../../../ThirdParty/mbedTLS/library/ripemd160.c:198:5
	rors	r4, r1
.Ltmp703:
	@DEBUG_VALUE: mbedtls_internal_ripemd160_process:Ep <- $r4
	.loc	1 199 5                         @ ../../../ThirdParty/mbedTLS/library/ripemd160.c:199:5
	mov	r1, r0
	ands	r1, r4
	mov	r6, r5
	bics	r6, r4
	orrs	r6, r1
	ldr	r1, [sp, #80]                   @ 4-byte Reload
.Ltmp704:
	@DEBUG_VALUE: mbedtls_internal_ripemd160_process:X <- [DW_OP_LLVM_fragment 224 32] $r1
	adds	r1, r1, r7
.Ltmp705:
	@DEBUG_VALUE: mbedtls_internal_ripemd160_process:X <- [DW_OP_plus_uconst 80, DW_OP_LLVM_fragment 224 32] [$sp+0]
	adds	r1, r1, r6
	ldr	r6, __arm_cp.5_15
	adds	r1, r1, r6
.Ltmp706:
	@DEBUG_VALUE: mbedtls_internal_ripemd160_process:Bp <- $r1
	ldr	r6, [sp, #120]                  @ 4-byte Reload
	rors	r1, r6
.Ltmp707:
	adds	r1, r1, r2
.Ltmp708:
	@DEBUG_VALUE: mbedtls_internal_ripemd160_process:Bp <- $r1
	.loc	1 201 5                         @ ../../../ThirdParty/mbedTLS/library/ripemd160.c:201:5
	mov	r6, r1
	bics	r6, r3
	.loc	1 199 5                         @ ../../../ThirdParty/mbedTLS/library/ripemd160.c:199:5
	ldr	r7, [sp, #160]                  @ 4-byte Reload
	rors	r5, r7
.Ltmp709:
	@DEBUG_VALUE: mbedtls_internal_ripemd160_process:Dp <- $r5
	.loc	1 200 5                         @ ../../../ThirdParty/mbedTLS/library/ripemd160.c:200:5
	bics	r0, r5
	mov	r7, r1
	ands	r7, r5
	orrs	r7, r0
	ldr	r0, [sp, #116]                  @ 4-byte Reload
.Ltmp710:
	@DEBUG_VALUE: mbedtls_internal_ripemd160_process:X <- [DW_OP_LLVM_fragment 0 32] $r0
	adds	r0, r0, r2
.Ltmp711:
	@DEBUG_VALUE: mbedtls_internal_ripemd160_process:X <- [DW_OP_plus_uconst 116, DW_OP_LLVM_fragment 0 32] [$sp+0]
	adds	r0, r0, r7
	ldr	r2, __arm_cp.5_15
.Ltmp712:
	adds	r0, r0, r2
.Ltmp713:
	@DEBUG_VALUE: mbedtls_internal_ripemd160_process:Ap <- $r0
	ldr	r2, [sp, #140]                  @ 4-byte Reload
	rors	r0, r2
.Ltmp714:
	adds	r7, r0, r4
.Ltmp715:
	@DEBUG_VALUE: mbedtls_internal_ripemd160_process:Ap <- $r7
	.loc	1 201 5                         @ ../../../ThirdParty/mbedTLS/library/ripemd160.c:201:5
	mov	r0, r7
	ands	r0, r3
	orrs	r0, r6
	ldr	r2, [sp, #76]                   @ 4-byte Reload
.Ltmp716:
	@DEBUG_VALUE: mbedtls_internal_ripemd160_process:X <- [DW_OP_LLVM_fragment 416 32] $r2
	adds	r2, r2, r4
.Ltmp717:
	@DEBUG_VALUE: mbedtls_internal_ripemd160_process:X <- [DW_OP_plus_uconst 76, DW_OP_LLVM_fragment 416 32] [$sp+0]
	adds	r0, r2, r0
	ldr	r2, __arm_cp.5_15
	adds	r0, r0, r2
.Ltmp718:
	@DEBUG_VALUE: mbedtls_internal_ripemd160_process:Ep <- $r0
	ldr	r2, [sp, #156]                  @ 4-byte Reload
	rors	r0, r2
.Ltmp719:
	adds	r0, r0, r5
.Ltmp720:
	@DEBUG_VALUE: mbedtls_internal_ripemd160_process:Ep <- $r0
	.loc	1 203 5                         @ ../../../ThirdParty/mbedTLS/library/ripemd160.c:203:5
	mov	r2, r0
	ldr	r4, [sp, #160]                  @ 4-byte Reload
	rors	r2, r4
.Ltmp721:
	@DEBUG_VALUE: mbedtls_internal_ripemd160_process:Ep <- $r2
	@DEBUG_VALUE: mbedtls_internal_ripemd160_process:Ep <- $r2
	.loc	1 201 5                         @ ../../../ThirdParty/mbedTLS/library/ripemd160.c:201:5
	str	r2, [sp, #40]                   @ 4-byte Spill
	rors	r1, r4
.Ltmp722:
	@DEBUG_VALUE: mbedtls_internal_ripemd160_process:Bp <- $r1
	.loc	1 202 5                         @ ../../../ThirdParty/mbedTLS/library/ripemd160.c:202:5
	mov	r4, r0
	ands	r4, r1
	mov	r6, r7
	bics	r6, r1
	orrs	r6, r4
	ldr	r4, [sp, #84]                   @ 4-byte Reload
.Ltmp723:
	@DEBUG_VALUE: mbedtls_internal_ripemd160_process:X <- [DW_OP_LLVM_fragment 160 32] $r4
	adds	r4, r4, r5
.Ltmp724:
	@DEBUG_VALUE: mbedtls_internal_ripemd160_process:X <- [DW_OP_plus_uconst 84, DW_OP_LLVM_fragment 160 32] [$sp+0]
	adds	r4, r4, r6
	ldr	r5, __arm_cp.5_15
.Ltmp725:
	adds	r4, r4, r5
.Ltmp726:
	@DEBUG_VALUE: mbedtls_internal_ripemd160_process:Dp <- $r4
	ldr	r5, [sp, #136]                  @ 4-byte Reload
	rors	r4, r5
.Ltmp727:
	adds	r4, r4, r3
.Ltmp728:
	@DEBUG_VALUE: mbedtls_internal_ripemd160_process:Dp <- $r4
	.loc	1 204 5                         @ ../../../ThirdParty/mbedTLS/library/ripemd160.c:204:5
	mov	r6, r4
	bics	r6, r2
	.loc	1 202 5                         @ ../../../ThirdParty/mbedTLS/library/ripemd160.c:202:5
	ldr	r2, [sp, #160]                  @ 4-byte Reload
.Ltmp729:
	@DEBUG_VALUE: mbedtls_internal_ripemd160_process:Ep <- [DW_OP_plus_uconst 40] [$sp+0]
	@DEBUG_VALUE: mbedtls_internal_ripemd160_process:Ep <- $r2
	rors	r7, r2
.Ltmp730:
	@DEBUG_VALUE: mbedtls_internal_ripemd160_process:Ap <- $r7
	.loc	1 203 5                         @ ../../../ThirdParty/mbedTLS/library/ripemd160.c:203:5
	bics	r0, r7
	mov	r5, r4
	ands	r5, r7
	orrs	r5, r0
	ldr	r0, [sp, #60]                   @ 4-byte Reload
.Ltmp731:
	@DEBUG_VALUE: mbedtls_internal_ripemd160_process:X <- [DW_OP_LLVM_fragment 320 32] $r0
	adds	r0, r0, r3
.Ltmp732:
	@DEBUG_VALUE: mbedtls_internal_ripemd160_process:X <- [DW_OP_plus_uconst 60, DW_OP_LLVM_fragment 320 32] [$sp+0]
	adds	r0, r0, r5
	ldr	r2, __arm_cp.5_15
.Ltmp733:
	adds	r0, r0, r2
.Ltmp734:
	@DEBUG_VALUE: mbedtls_internal_ripemd160_process:Cp <- $r0
	ldr	r2, [sp, #144]                  @ 4-byte Reload
	rors	r0, r2
.Ltmp735:
	adds	r5, r0, r1
.Ltmp736:
	@DEBUG_VALUE: mbedtls_internal_ripemd160_process:Cp <- $r5
	.loc	1 204 5                         @ ../../../ThirdParty/mbedTLS/library/ripemd160.c:204:5
	mov	r0, r5
	ldr	r2, [sp, #40]                   @ 4-byte Reload
.Ltmp737:
	@DEBUG_VALUE: mbedtls_internal_ripemd160_process:Ep <- $r2
	ands	r0, r2
.Ltmp738:
	@DEBUG_VALUE: mbedtls_internal_ripemd160_process:Ep <- [DW_OP_plus_uconst 40] [$sp+0]
	orrs	r0, r6
	ldr	r3, [sp, #64]                   @ 4-byte Reload
.Ltmp739:
	@DEBUG_VALUE: mbedtls_internal_ripemd160_process:X <- [DW_OP_LLVM_fragment 448 32] $r3
	adds	r1, r3, r1
.Ltmp740:
	@DEBUG_VALUE: mbedtls_internal_ripemd160_process:X <- [DW_OP_plus_uconst 64, DW_OP_LLVM_fragment 448 32] [$sp+0]
	adds	r0, r1, r0
	ldr	r1, __arm_cp.5_15
	adds	r0, r0, r1
.Ltmp741:
	@DEBUG_VALUE: mbedtls_internal_ripemd160_process:Bp <- $r0
	.loc	1 0 5 is_stmt 0                 @ ../../../ThirdParty/mbedTLS/library/ripemd160.c:0:5
	ldr	r2, [sp, #120]                  @ 4-byte Reload
	.loc	1 204 5                         @ ../../../ThirdParty/mbedTLS/library/ripemd160.c:204:5
	rors	r0, r2
.Ltmp742:
	adds	r0, r0, r7
.Ltmp743:
	@DEBUG_VALUE: mbedtls_internal_ripemd160_process:Bp <- $r0
	.loc	1 206 5 is_stmt 1               @ ../../../ThirdParty/mbedTLS/library/ripemd160.c:206:5
	mov	r3, r0
	ldr	r1, [sp, #160]                  @ 4-byte Reload
	rors	r3, r1
.Ltmp744:
	@DEBUG_VALUE: mbedtls_internal_ripemd160_process:Bp <- $r3
	.loc	1 204 5                         @ ../../../ThirdParty/mbedTLS/library/ripemd160.c:204:5
	rors	r4, r1
.Ltmp745:
	@DEBUG_VALUE: mbedtls_internal_ripemd160_process:Dp <- $r4
	.loc	1 205 5                         @ ../../../ThirdParty/mbedTLS/library/ripemd160.c:205:5
	mov	r1, r0
	ands	r1, r4
	mov	r6, r5
	bics	r6, r4
	orrs	r6, r1
	ldr	r1, [sp, #68]                   @ 4-byte Reload
.Ltmp746:
	@DEBUG_VALUE: mbedtls_internal_ripemd160_process:X <- [DW_OP_LLVM_fragment 480 32] $r1
	adds	r1, r1, r7
.Ltmp747:
	@DEBUG_VALUE: mbedtls_internal_ripemd160_process:X <- [DW_OP_plus_uconst 68, DW_OP_LLVM_fragment 480 32] [$sp+0]
	adds	r1, r1, r6
	ldr	r6, __arm_cp.5_15
	adds	r1, r1, r6
.Ltmp748:
	@DEBUG_VALUE: mbedtls_internal_ripemd160_process:Ap <- $r1
	rors	r1, r2
.Ltmp749:
	.loc	1 0 5 is_stmt 0                 @ ../../../ThirdParty/mbedTLS/library/ripemd160.c:0:5
	ldr	r2, [sp, #40]                   @ 4-byte Reload
.Ltmp750:
	@DEBUG_VALUE: mbedtls_internal_ripemd160_process:Ep <- $r2
	.loc	1 205 5                         @ ../../../ThirdParty/mbedTLS/library/ripemd160.c:205:5
	adds	r7, r1, r2
.Ltmp751:
	@DEBUG_VALUE: mbedtls_internal_ripemd160_process:Ap <- $r7
	.loc	1 207 5 is_stmt 1               @ ../../../ThirdParty/mbedTLS/library/ripemd160.c:207:5
	mov	r1, r7
	bics	r1, r3
	.loc	1 205 5                         @ ../../../ThirdParty/mbedTLS/library/ripemd160.c:205:5
	ldr	r6, [sp, #160]                  @ 4-byte Reload
	rors	r5, r6
.Ltmp752:
	@DEBUG_VALUE: mbedtls_internal_ripemd160_process:Cp <- $r5
	.loc	1 206 5                         @ ../../../ThirdParty/mbedTLS/library/ripemd160.c:206:5
	bics	r0, r5
	mov	r6, r7
	ands	r6, r5
	orrs	r6, r0
	ldr	r0, [sp, #72]                   @ 4-byte Reload
.Ltmp753:
	@DEBUG_VALUE: mbedtls_internal_ripemd160_process:X <- [DW_OP_LLVM_fragment 256 32] $r0
	adds	r0, r0, r2
.Ltmp754:
	@DEBUG_VALUE: mbedtls_internal_ripemd160_process:X <- [DW_OP_plus_uconst 72, DW_OP_LLVM_fragment 256 32] [$sp+0]
	adds	r0, r0, r6
	ldr	r6, __arm_cp.5_15
	adds	r0, r0, r6
.Ltmp755:
	@DEBUG_VALUE: mbedtls_internal_ripemd160_process:Ep <- $r0
	ldr	r2, [sp, #140]                  @ 4-byte Reload
	rors	r0, r2
.Ltmp756:
	adds	r0, r0, r4
.Ltmp757:
	@DEBUG_VALUE: mbedtls_internal_ripemd160_process:Ep <- $r0
	.loc	1 207 5                         @ ../../../ThirdParty/mbedTLS/library/ripemd160.c:207:5
	mov	r2, r0
	ands	r2, r3
	orrs	r2, r1
	ldr	r1, [sp, #56]                   @ 4-byte Reload
.Ltmp758:
	@DEBUG_VALUE: mbedtls_internal_ripemd160_process:X <- [DW_OP_LLVM_fragment 384 32] $r1
	adds	r1, r1, r4
.Ltmp759:
	@DEBUG_VALUE: mbedtls_internal_ripemd160_process:X <- [DW_OP_plus_uconst 56, DW_OP_LLVM_fragment 384 32] [$sp+0]
	adds	r1, r1, r2
	adds	r1, r1, r6
.Ltmp760:
	@DEBUG_VALUE: mbedtls_internal_ripemd160_process:Dp <- $r1
	ldr	r2, [sp, #120]                  @ 4-byte Reload
	rors	r1, r2
.Ltmp761:
	adds	r4, r1, r5
.Ltmp762:
	@DEBUG_VALUE: mbedtls_internal_ripemd160_process:Dp <- $r4
	.loc	1 209 5                         @ ../../../ThirdParty/mbedTLS/library/ripemd160.c:209:5
	mov	r1, r4
	ldr	r2, [sp, #160]                  @ 4-byte Reload
	rors	r1, r2
.Ltmp763:
	@DEBUG_VALUE: mbedtls_internal_ripemd160_process:Dp <- $r1
	@DEBUG_VALUE: mbedtls_internal_ripemd160_process:Dp <- $r1
	.loc	1 207 5                         @ ../../../ThirdParty/mbedTLS/library/ripemd160.c:207:5
	rors	r7, r2
.Ltmp764:
	@DEBUG_VALUE: mbedtls_internal_ripemd160_process:Ap <- $r7
	.loc	1 208 5                         @ ../../../ThirdParty/mbedTLS/library/ripemd160.c:208:5
	mov	r2, r4
	ands	r2, r7
	mov	r6, r0
	bics	r6, r7
	orrs	r6, r2
	ldr	r2, [sp, #88]                   @ 4-byte Reload
.Ltmp765:
	@DEBUG_VALUE: mbedtls_internal_ripemd160_process:X <- [DW_OP_LLVM_fragment 128 32] $r2
	adds	r2, r2, r5
.Ltmp766:
	@DEBUG_VALUE: mbedtls_internal_ripemd160_process:X <- [DW_OP_plus_uconst 88, DW_OP_LLVM_fragment 128 32] [$sp+0]
	adds	r2, r2, r6
	ldr	r5, __arm_cp.5_15
.Ltmp767:
	adds	r2, r2, r5
.Ltmp768:
	@DEBUG_VALUE: mbedtls_internal_ripemd160_process:Cp <- $r2
	ldr	r5, [sp, #148]                  @ 4-byte Reload
	rors	r2, r5
.Ltmp769:
	adds	r2, r2, r3
.Ltmp770:
	@DEBUG_VALUE: mbedtls_internal_ripemd160_process:Cp <- $r2
	.loc	1 210 5                         @ ../../../ThirdParty/mbedTLS/library/ripemd160.c:210:5
	mov	r6, r2
	bics	r6, r1
	@DEBUG_VALUE: mbedtls_internal_ripemd160_process:Dp <- $r1
	.loc	1 208 5                         @ ../../../ThirdParty/mbedTLS/library/ripemd160.c:208:5
	str	r1, [sp, #40]                   @ 4-byte Spill
	ldr	r5, [sp, #160]                  @ 4-byte Reload
	rors	r0, r5
.Ltmp771:
	@DEBUG_VALUE: mbedtls_internal_ripemd160_process:Ep <- $r0
	.loc	1 209 5                         @ ../../../ThirdParty/mbedTLS/library/ripemd160.c:209:5
	bics	r4, r0
	mov	r5, r2
	ands	r5, r0
	orrs	r5, r4
	ldr	r4, [sp, #96]                   @ 4-byte Reload
.Ltmp772:
	@DEBUG_VALUE: mbedtls_internal_ripemd160_process:X <- [DW_OP_LLVM_fragment 288 32] $r4
	adds	r3, r4, r3
.Ltmp773:
	@DEBUG_VALUE: mbedtls_internal_ripemd160_process:X <- [DW_OP_plus_uconst 96, DW_OP_LLVM_fragment 288 32] [$sp+0]
	adds	r3, r3, r5
	ldr	r4, __arm_cp.5_15
	adds	r3, r3, r4
.Ltmp774:
	@DEBUG_VALUE: mbedtls_internal_ripemd160_process:Bp <- $r3
	ldr	r4, [sp, #128]                  @ 4-byte Reload
	rors	r3, r4
.Ltmp775:
	adds	r5, r3, r7
.Ltmp776:
	@DEBUG_VALUE: mbedtls_internal_ripemd160_process:Bp <- $r5
	.loc	1 210 5                         @ ../../../ThirdParty/mbedTLS/library/ripemd160.c:210:5
	mov	r3, r5
	ands	r3, r1
.Ltmp777:
	@DEBUG_VALUE: mbedtls_internal_ripemd160_process:Dp <- [DW_OP_plus_uconst 40] [$sp+0]
	orrs	r3, r6
	ldr	r4, [sp, #104]                  @ 4-byte Reload
.Ltmp778:
	@DEBUG_VALUE: mbedtls_internal_ripemd160_process:X <- [DW_OP_LLVM_fragment 32 32] $r4
	adds	r4, r4, r7
.Ltmp779:
	@DEBUG_VALUE: mbedtls_internal_ripemd160_process:X <- [DW_OP_plus_uconst 104, DW_OP_LLVM_fragment 32 32] [$sp+0]
	adds	r3, r4, r3
	ldr	r7, __arm_cp.5_15
.Ltmp780:
	adds	r3, r3, r7
.Ltmp781:
	@DEBUG_VALUE: mbedtls_internal_ripemd160_process:Ap <- $r3
	ldr	r4, [sp, #132]                  @ 4-byte Reload
	rors	r3, r4
.Ltmp782:
	adds	r3, r3, r0
.Ltmp783:
	@DEBUG_VALUE: mbedtls_internal_ripemd160_process:Ap <- $r3
	.loc	1 0 5 is_stmt 0                 @ ../../../ThirdParty/mbedTLS/library/ripemd160.c:0:5
	ldr	r1, [sp, #160]                  @ 4-byte Reload
	.loc	1 210 5                         @ ../../../ThirdParty/mbedTLS/library/ripemd160.c:210:5
	rors	r2, r1
.Ltmp784:
	@DEBUG_VALUE: mbedtls_internal_ripemd160_process:Cp <- $r2
	.loc	1 211 5 is_stmt 1               @ ../../../ThirdParty/mbedTLS/library/ripemd160.c:211:5
	mov	r4, r3
	ands	r4, r2
	mov	r6, r5
	bics	r6, r2
	orrs	r6, r4
	ldr	r4, [sp, #108]                  @ 4-byte Reload
.Ltmp785:
	@DEBUG_VALUE: mbedtls_internal_ripemd160_process:X <- [DW_OP_LLVM_fragment 64 32] $r4
	adds	r0, r4, r0
.Ltmp786:
	@DEBUG_VALUE: mbedtls_internal_ripemd160_process:X <- [DW_OP_plus_uconst 108, DW_OP_LLVM_fragment 64 32] [$sp+0]
	adds	r0, r0, r6
	adds	r0, r0, r7
.Ltmp787:
	@DEBUG_VALUE: mbedtls_internal_ripemd160_process:Ep <- $r0
	ldr	r4, [sp, #144]                  @ 4-byte Reload
	rors	r0, r4
.Ltmp788:
	.loc	1 0 5 is_stmt 0                 @ ../../../ThirdParty/mbedTLS/library/ripemd160.c:0:5
	ldr	r7, [sp, #40]                   @ 4-byte Reload
.Ltmp789:
	@DEBUG_VALUE: mbedtls_internal_ripemd160_process:Dp <- $r7
	.loc	1 211 5                         @ ../../../ThirdParty/mbedTLS/library/ripemd160.c:211:5
	adds	r0, r0, r7
.Ltmp790:
	@DEBUG_VALUE: mbedtls_internal_ripemd160_process:Ep <- $r0
	.loc	1 221 5 is_stmt 1               @ ../../../ThirdParty/mbedTLS/library/ripemd160.c:221:5
	mvns	r4, r3
	orrs	r4, r0
	.loc	1 211 5                         @ ../../../ThirdParty/mbedTLS/library/ripemd160.c:211:5
	rors	r5, r1
.Ltmp791:
	@DEBUG_VALUE: mbedtls_internal_ripemd160_process:Bp <- $r5
	.loc	1 221 5                         @ ../../../ThirdParty/mbedTLS/library/ripemd160.c:221:5
	eors	r4, r5
	ldr	r6, [sp, #68]                   @ 4-byte Reload
.Ltmp792:
	@DEBUG_VALUE: mbedtls_internal_ripemd160_process:X <- [DW_OP_LLVM_fragment 480 32] $r6
	adds	r1, r6, r7
.Ltmp793:
	@DEBUG_VALUE: mbedtls_internal_ripemd160_process:X <- [DW_OP_plus_uconst 68, DW_OP_LLVM_fragment 480 32] [$sp+0]
	adds	r1, r1, r4
	ldr	r4, .LCPI5_16
	adds	r1, r1, r4
.Ltmp794:
	@DEBUG_VALUE: mbedtls_internal_ripemd160_process:Dp <- $r1
	ldr	r4, [sp, #136]                  @ 4-byte Reload
	rors	r1, r4
.Ltmp795:
	adds	r4, r1, r2
.Ltmp796:
	@DEBUG_VALUE: mbedtls_internal_ripemd160_process:Dp <- $r4
	.loc	1 222 5                         @ ../../../ThirdParty/mbedTLS/library/ripemd160.c:222:5
	mvns	r1, r0
	orrs	r1, r4
	ldr	r7, [sp, #160]                  @ 4-byte Reload
	.loc	1 221 5                         @ ../../../ThirdParty/mbedTLS/library/ripemd160.c:221:5
	rors	r3, r7
.Ltmp797:
	@DEBUG_VALUE: mbedtls_internal_ripemd160_process:Ap <- $r3
	.loc	1 222 5                         @ ../../../ThirdParty/mbedTLS/library/ripemd160.c:222:5
	eors	r1, r3
	ldr	r6, [sp, #84]                   @ 4-byte Reload
.Ltmp798:
	@DEBUG_VALUE: mbedtls_internal_ripemd160_process:X <- [DW_OP_LLVM_fragment 160 32] $r6
	adds	r2, r6, r2
.Ltmp799:
	@DEBUG_VALUE: mbedtls_internal_ripemd160_process:X <- [DW_OP_plus_uconst 84, DW_OP_LLVM_fragment 160 32] [$sp+0]
	adds	r1, r2, r1
	ldr	r2, .LCPI5_16
	adds	r1, r1, r2
.Ltmp800:
	@DEBUG_VALUE: mbedtls_internal_ripemd160_process:Cp <- $r1
	ldr	r2, [sp, #120]                  @ 4-byte Reload
	rors	r1, r2
.Ltmp801:
	adds	r2, r1, r5
.Ltmp802:
	@DEBUG_VALUE: mbedtls_internal_ripemd160_process:Cp <- $r2
	.loc	1 223 5                         @ ../../../ThirdParty/mbedTLS/library/ripemd160.c:223:5
	mvns	r1, r4
	orrs	r1, r2
	.loc	1 222 5                         @ ../../../ThirdParty/mbedTLS/library/ripemd160.c:222:5
	rors	r0, r7
.Ltmp803:
	@DEBUG_VALUE: mbedtls_internal_ripemd160_process:Ep <- $r0
	.loc	1 223 5                         @ ../../../ThirdParty/mbedTLS/library/ripemd160.c:223:5
	eors	r1, r0
	ldr	r6, [sp, #104]                  @ 4-byte Reload
.Ltmp804:
	@DEBUG_VALUE: mbedtls_internal_ripemd160_process:X <- [DW_OP_LLVM_fragment 32 32] $r6
	adds	r5, r6, r5
.Ltmp805:
	@DEBUG_VALUE: mbedtls_internal_ripemd160_process:X <- [DW_OP_plus_uconst 104, DW_OP_LLVM_fragment 32 32] [$sp+0]
	adds	r1, r5, r1
	ldr	r5, .LCPI5_16
	adds	r1, r1, r5
.Ltmp806:
	@DEBUG_VALUE: mbedtls_internal_ripemd160_process:Bp <- $r1
	ldr	r5, [sp, #128]                  @ 4-byte Reload
	rors	r1, r5
.Ltmp807:
	adds	r5, r1, r3
.Ltmp808:
	@DEBUG_VALUE: mbedtls_internal_ripemd160_process:Bp <- $r5
	.loc	1 224 5                         @ ../../../ThirdParty/mbedTLS/library/ripemd160.c:224:5
	mvns	r1, r2
	orrs	r1, r5
	.loc	1 223 5                         @ ../../../ThirdParty/mbedTLS/library/ripemd160.c:223:5
	rors	r4, r7
.Ltmp809:
	@DEBUG_VALUE: mbedtls_internal_ripemd160_process:Dp <- $r4
	.loc	1 224 5                         @ ../../../ThirdParty/mbedTLS/library/ripemd160.c:224:5
	eors	r1, r4
	ldr	r6, [sp, #112]                  @ 4-byte Reload
.Ltmp810:
	@DEBUG_VALUE: mbedtls_internal_ripemd160_process:X <- [DW_OP_LLVM_fragment 96 32] $r6
	adds	r3, r6, r3
.Ltmp811:
	@DEBUG_VALUE: mbedtls_internal_ripemd160_process:X <- [DW_OP_plus_uconst 112, DW_OP_LLVM_fragment 96 32] [$sp+0]
	adds	r1, r3, r1
	ldr	r3, .LCPI5_16
	adds	r1, r1, r3
.Ltmp812:
	@DEBUG_VALUE: mbedtls_internal_ripemd160_process:Ap <- $r1
	ldr	r3, [sp, #144]                  @ 4-byte Reload
	rors	r1, r3
.Ltmp813:
	adds	r3, r1, r0
.Ltmp814:
	@DEBUG_VALUE: mbedtls_internal_ripemd160_process:Ap <- $r3
	.loc	1 225 5                         @ ../../../ThirdParty/mbedTLS/library/ripemd160.c:225:5
	mvns	r1, r5
	orrs	r1, r3
	.loc	1 224 5                         @ ../../../ThirdParty/mbedTLS/library/ripemd160.c:224:5
	rors	r2, r7
.Ltmp815:
	@DEBUG_VALUE: mbedtls_internal_ripemd160_process:Cp <- $r2
	.loc	1 225 5                         @ ../../../ThirdParty/mbedTLS/library/ripemd160.c:225:5
	eors	r1, r2
	ldr	r6, [sp, #80]                   @ 4-byte Reload
.Ltmp816:
	@DEBUG_VALUE: mbedtls_internal_ripemd160_process:X <- [DW_OP_LLVM_fragment 224 32] $r6
	adds	r0, r6, r0
.Ltmp817:
	@DEBUG_VALUE: mbedtls_internal_ripemd160_process:X <- [DW_OP_plus_uconst 80, DW_OP_LLVM_fragment 224 32] [$sp+0]
	adds	r0, r0, r1
	ldr	r1, .LCPI5_16
	adds	r0, r0, r1
.Ltmp818:
	@DEBUG_VALUE: mbedtls_internal_ripemd160_process:Ep <- $r0
	ldr	r1, [sp, #156]                  @ 4-byte Reload
	rors	r0, r1
.Ltmp819:
	adds	r0, r0, r4
.Ltmp820:
	@DEBUG_VALUE: mbedtls_internal_ripemd160_process:Ep <- $r0
	.loc	1 226 5                         @ ../../../ThirdParty/mbedTLS/library/ripemd160.c:226:5
	mvns	r1, r3
	orrs	r1, r0
	.loc	1 225 5                         @ ../../../ThirdParty/mbedTLS/library/ripemd160.c:225:5
	rors	r5, r7
.Ltmp821:
	@DEBUG_VALUE: mbedtls_internal_ripemd160_process:Bp <- $r5
	.loc	1 226 5                         @ ../../../ThirdParty/mbedTLS/library/ripemd160.c:226:5
	eors	r1, r5
	ldr	r6, [sp, #64]                   @ 4-byte Reload
.Ltmp822:
	@DEBUG_VALUE: mbedtls_internal_ripemd160_process:X <- [DW_OP_LLVM_fragment 448 32] $r6
	adds	r4, r6, r4
.Ltmp823:
	@DEBUG_VALUE: mbedtls_internal_ripemd160_process:X <- [DW_OP_plus_uconst 64, DW_OP_LLVM_fragment 448 32] [$sp+0]
	adds	r1, r4, r1
	ldr	r4, .LCPI5_16
	adds	r1, r1, r4
.Ltmp824:
	@DEBUG_VALUE: mbedtls_internal_ripemd160_process:Dp <- $r1
	.loc	1 0 5 is_stmt 0                 @ ../../../ThirdParty/mbedTLS/library/ripemd160.c:0:5
	ldr	r7, [sp, #148]                  @ 4-byte Reload
	.loc	1 226 5                         @ ../../../ThirdParty/mbedTLS/library/ripemd160.c:226:5
	rors	r1, r7
.Ltmp825:
	adds	r4, r1, r2
.Ltmp826:
	@DEBUG_VALUE: mbedtls_internal_ripemd160_process:Dp <- $r4
	.loc	1 227 5 is_stmt 1               @ ../../../ThirdParty/mbedTLS/library/ripemd160.c:227:5
	mvns	r1, r0
	orrs	r1, r4
	.loc	1 226 5                         @ ../../../ThirdParty/mbedTLS/library/ripemd160.c:226:5
	ldr	r6, [sp, #160]                  @ 4-byte Reload
	rors	r3, r6
.Ltmp827:
	@DEBUG_VALUE: mbedtls_internal_ripemd160_process:Ap <- $r3
	.loc	1 227 5                         @ ../../../ThirdParty/mbedTLS/library/ripemd160.c:227:5
	eors	r1, r3
	ldr	r6, [sp, #100]                  @ 4-byte Reload
.Ltmp828:
	@DEBUG_VALUE: mbedtls_internal_ripemd160_process:X <- [DW_OP_LLVM_fragment 192 32] $r6
	adds	r2, r6, r2
.Ltmp829:
	@DEBUG_VALUE: mbedtls_internal_ripemd160_process:X <- [DW_OP_plus_uconst 100, DW_OP_LLVM_fragment 192 32] [$sp+0]
	adds	r1, r2, r1
	ldr	r2, .LCPI5_16
	adds	r1, r1, r2
.Ltmp830:
	@DEBUG_VALUE: mbedtls_internal_ripemd160_process:Cp <- $r1
	rors	r1, r7
.Ltmp831:
	adds	r2, r1, r5
.Ltmp832:
	@DEBUG_VALUE: mbedtls_internal_ripemd160_process:Cp <- $r2
	.loc	1 228 5                         @ ../../../ThirdParty/mbedTLS/library/ripemd160.c:228:5
	mvns	r1, r4
	orrs	r1, r2
	ldr	r7, [sp, #160]                  @ 4-byte Reload
	.loc	1 227 5                         @ ../../../ThirdParty/mbedTLS/library/ripemd160.c:227:5
	rors	r0, r7
.Ltmp833:
	@DEBUG_VALUE: mbedtls_internal_ripemd160_process:Ep <- $r0
	.loc	1 228 5                         @ ../../../ThirdParty/mbedTLS/library/ripemd160.c:228:5
	eors	r1, r0
	ldr	r6, [sp, #96]                   @ 4-byte Reload
.Ltmp834:
	@DEBUG_VALUE: mbedtls_internal_ripemd160_process:X <- [DW_OP_LLVM_fragment 288 32] $r6
	adds	r5, r6, r5
.Ltmp835:
	@DEBUG_VALUE: mbedtls_internal_ripemd160_process:X <- [DW_OP_plus_uconst 96, DW_OP_LLVM_fragment 288 32] [$sp+0]
	adds	r1, r5, r1
	ldr	r5, .LCPI5_16
	adds	r1, r1, r5
.Ltmp836:
	@DEBUG_VALUE: mbedtls_internal_ripemd160_process:Bp <- $r1
	ldr	r5, [sp, #124]                  @ 4-byte Reload
	rors	r1, r5
.Ltmp837:
	adds	r5, r1, r3
.Ltmp838:
	@DEBUG_VALUE: mbedtls_internal_ripemd160_process:Bp <- $r5
	.loc	1 229 5                         @ ../../../ThirdParty/mbedTLS/library/ripemd160.c:229:5
	mvns	r1, r2
	orrs	r1, r5
	.loc	1 228 5                         @ ../../../ThirdParty/mbedTLS/library/ripemd160.c:228:5
	rors	r4, r7
.Ltmp839:
	@DEBUG_VALUE: mbedtls_internal_ripemd160_process:Dp <- $r4
	.loc	1 229 5                         @ ../../../ThirdParty/mbedTLS/library/ripemd160.c:229:5
	eors	r1, r4
	ldr	r6, [sp, #92]                   @ 4-byte Reload
.Ltmp840:
	@DEBUG_VALUE: mbedtls_internal_ripemd160_process:X <- [DW_OP_LLVM_fragment 352 32] $r6
	adds	r3, r6, r3
.Ltmp841:
	@DEBUG_VALUE: mbedtls_internal_ripemd160_process:X <- [DW_OP_plus_uconst 92, DW_OP_LLVM_fragment 352 32] [$sp+0]
	adds	r1, r3, r1
	ldr	r3, .LCPI5_16
	adds	r1, r1, r3
.Ltmp842:
	@DEBUG_VALUE: mbedtls_internal_ripemd160_process:Ap <- $r1
	ldr	r3, [sp, #140]                  @ 4-byte Reload
	rors	r1, r3
.Ltmp843:
	adds	r3, r1, r0
.Ltmp844:
	@DEBUG_VALUE: mbedtls_internal_ripemd160_process:Ap <- $r3
	.loc	1 230 5                         @ ../../../ThirdParty/mbedTLS/library/ripemd160.c:230:5
	mvns	r1, r5
	orrs	r1, r3
	@DEBUG_VALUE: mbedtls_internal_ripemd160_process:Cp <- $r2
	.loc	1 229 5                         @ ../../../ThirdParty/mbedTLS/library/ripemd160.c:229:5
	rors	r2, r7
.Ltmp845:
	@DEBUG_VALUE: mbedtls_internal_ripemd160_process:Cp <- $r2
	.loc	1 0 5 is_stmt 0                 @ ../../../ThirdParty/mbedTLS/library/ripemd160.c:0:5
	str	r2, [sp, #40]                   @ 4-byte Spill
.Ltmp846:
	@DEBUG_VALUE: mbedtls_internal_ripemd160_process:Cp <- [DW_OP_plus_uconst 40] [$sp+0]
	.loc	1 230 5 is_stmt 1               @ ../../../ThirdParty/mbedTLS/library/ripemd160.c:230:5
	eors	r1, r2
	@DEBUG_VALUE: mbedtls_internal_ripemd160_process:Cp <- [DW_OP_plus_uconst 40] [$sp+0]
	ldr	r6, [sp, #72]                   @ 4-byte Reload
.Ltmp847:
	@DEBUG_VALUE: mbedtls_internal_ripemd160_process:X <- [DW_OP_LLVM_fragment 256 32] $r6
	adds	r0, r6, r0
.Ltmp848:
	@DEBUG_VALUE: mbedtls_internal_ripemd160_process:X <- [DW_OP_plus_uconst 72, DW_OP_LLVM_fragment 256 32] [$sp+0]
	adds	r0, r0, r1
	ldr	r6, .LCPI5_16
	adds	r0, r0, r6
.Ltmp849:
	@DEBUG_VALUE: mbedtls_internal_ripemd160_process:Ep <- $r0
	ldr	r1, [sp, #132]                  @ 4-byte Reload
	rors	r0, r1
.Ltmp850:
	adds	r7, r0, r4
.Ltmp851:
	@DEBUG_VALUE: mbedtls_internal_ripemd160_process:Ep <- $r7
	.loc	1 231 5                         @ ../../../ThirdParty/mbedTLS/library/ripemd160.c:231:5
	mvns	r0, r3
	orrs	r0, r7
	ldr	r2, [sp, #160]                  @ 4-byte Reload
	.loc	1 230 5                         @ ../../../ThirdParty/mbedTLS/library/ripemd160.c:230:5
	rors	r5, r2
.Ltmp852:
	@DEBUG_VALUE: mbedtls_internal_ripemd160_process:Bp <- $r5
	.loc	1 231 5                         @ ../../../ThirdParty/mbedTLS/library/ripemd160.c:231:5
	eors	r0, r5
	ldr	r1, [sp, #56]                   @ 4-byte Reload
.Ltmp853:
	@DEBUG_VALUE: mbedtls_internal_ripemd160_process:X <- [DW_OP_LLVM_fragment 384 32] $r1
	adds	r1, r1, r4
.Ltmp854:
	@DEBUG_VALUE: mbedtls_internal_ripemd160_process:X <- [DW_OP_plus_uconst 56, DW_OP_LLVM_fragment 384 32] [$sp+0]
	adds	r0, r1, r0
	adds	r0, r0, r6
.Ltmp855:
	@DEBUG_VALUE: mbedtls_internal_ripemd160_process:Dp <- $r0
	ldr	r1, [sp, #152]                  @ 4-byte Reload
	rors	r0, r1
.Ltmp856:
	.loc	1 0 5 is_stmt 0                 @ ../../../ThirdParty/mbedTLS/library/ripemd160.c:0:5
	ldr	r6, [sp, #40]                   @ 4-byte Reload
.Ltmp857:
	@DEBUG_VALUE: mbedtls_internal_ripemd160_process:Cp <- $r6
	.loc	1 231 5                         @ ../../../ThirdParty/mbedTLS/library/ripemd160.c:231:5
	adds	r0, r0, r6
.Ltmp858:
	@DEBUG_VALUE: mbedtls_internal_ripemd160_process:Dp <- $r0
	.loc	1 232 5 is_stmt 1               @ ../../../ThirdParty/mbedTLS/library/ripemd160.c:232:5
	mvns	r1, r7
	orrs	r1, r0
	.loc	1 231 5                         @ ../../../ThirdParty/mbedTLS/library/ripemd160.c:231:5
	rors	r3, r2
.Ltmp859:
	@DEBUG_VALUE: mbedtls_internal_ripemd160_process:Ap <- $r3
	.loc	1 232 5                         @ ../../../ThirdParty/mbedTLS/library/ripemd160.c:232:5
	eors	r1, r3
	ldr	r4, [sp, #108]                  @ 4-byte Reload
.Ltmp860:
	@DEBUG_VALUE: mbedtls_internal_ripemd160_process:X <- [DW_OP_LLVM_fragment 64 32] $r4
	adds	r2, r4, r6
.Ltmp861:
	@DEBUG_VALUE: mbedtls_internal_ripemd160_process:X <- [DW_OP_plus_uconst 108, DW_OP_LLVM_fragment 64 32] [$sp+0]
	adds	r1, r2, r1
	ldr	r6, .LCPI5_16
.Ltmp862:
	adds	r1, r1, r6
.Ltmp863:
	@DEBUG_VALUE: mbedtls_internal_ripemd160_process:Cp <- $r1
	ldr	r2, [sp, #124]                  @ 4-byte Reload
	rors	r1, r2
.Ltmp864:
	adds	r4, r1, r5
.Ltmp865:
	@DEBUG_VALUE: mbedtls_internal_ripemd160_process:Cp <- $r4
	.loc	1 233 5                         @ ../../../ThirdParty/mbedTLS/library/ripemd160.c:233:5
	mvns	r1, r0
	orrs	r1, r4
	.loc	1 232 5                         @ ../../../ThirdParty/mbedTLS/library/ripemd160.c:232:5
	ldr	r2, [sp, #160]                  @ 4-byte Reload
	rors	r7, r2
.Ltmp866:
	@DEBUG_VALUE: mbedtls_internal_ripemd160_process:Ep <- $r7
	.loc	1 233 5                         @ ../../../ThirdParty/mbedTLS/library/ripemd160.c:233:5
	eors	r1, r7
	ldr	r2, [sp, #60]                   @ 4-byte Reload
.Ltmp867:
	@DEBUG_VALUE: mbedtls_internal_ripemd160_process:X <- [DW_OP_LLVM_fragment 320 32] $r2
	adds	r2, r2, r5
.Ltmp868:
	@DEBUG_VALUE: mbedtls_internal_ripemd160_process:X <- [DW_OP_plus_uconst 60, DW_OP_LLVM_fragment 320 32] [$sp+0]
	adds	r1, r2, r1
	adds	r1, r1, r6
.Ltmp869:
	@DEBUG_VALUE: mbedtls_internal_ripemd160_process:Bp <- $r1
	.loc	1 0 5 is_stmt 0                 @ ../../../ThirdParty/mbedTLS/library/ripemd160.c:0:5
	ldr	r6, [sp, #132]                  @ 4-byte Reload
	.loc	1 233 5                         @ ../../../ThirdParty/mbedTLS/library/ripemd160.c:233:5
	rors	r1, r6
.Ltmp870:
	adds	r5, r1, r3
.Ltmp871:
	@DEBUG_VALUE: mbedtls_internal_ripemd160_process:Bp <- $r5
	.loc	1 234 5 is_stmt 1               @ ../../../ThirdParty/mbedTLS/library/ripemd160.c:234:5
	mvns	r1, r4
	orrs	r1, r5
	.loc	1 233 5                         @ ../../../ThirdParty/mbedTLS/library/ripemd160.c:233:5
	ldr	r2, [sp, #160]                  @ 4-byte Reload
	rors	r0, r2
.Ltmp872:
	@DEBUG_VALUE: mbedtls_internal_ripemd160_process:Dp <- $r0
	.loc	1 234 5                         @ ../../../ThirdParty/mbedTLS/library/ripemd160.c:234:5
	eors	r1, r0
	ldr	r2, [sp, #116]                  @ 4-byte Reload
.Ltmp873:
	@DEBUG_VALUE: mbedtls_internal_ripemd160_process:X <- [DW_OP_LLVM_fragment 0 32] $r2
	adds	r2, r2, r3
.Ltmp874:
	@DEBUG_VALUE: mbedtls_internal_ripemd160_process:X <- [DW_OP_plus_uconst 116, DW_OP_LLVM_fragment 0 32] [$sp+0]
	adds	r1, r2, r1
	ldr	r2, .LCPI5_16
	adds	r1, r1, r2
.Ltmp875:
	@DEBUG_VALUE: mbedtls_internal_ripemd160_process:Ap <- $r1
	rors	r1, r6
.Ltmp876:
	adds	r1, r1, r7
.Ltmp877:
	@DEBUG_VALUE: mbedtls_internal_ripemd160_process:Ap <- $r1
	.loc	1 235 5                         @ ../../../ThirdParty/mbedTLS/library/ripemd160.c:235:5
	mvns	r2, r5
	orrs	r2, r1
	@DEBUG_VALUE: mbedtls_internal_ripemd160_process:Ap <- $r1
	ldr	r6, [sp, #160]                  @ 4-byte Reload
	.loc	1 234 5                         @ ../../../ThirdParty/mbedTLS/library/ripemd160.c:234:5
	rors	r4, r6
.Ltmp878:
	@DEBUG_VALUE: mbedtls_internal_ripemd160_process:Cp <- $r4
	.loc	1 235 5                         @ ../../../ThirdParty/mbedTLS/library/ripemd160.c:235:5
	eors	r2, r4
	ldr	r3, [sp, #88]                   @ 4-byte Reload
.Ltmp879:
	@DEBUG_VALUE: mbedtls_internal_ripemd160_process:X <- [DW_OP_LLVM_fragment 128 32] $r3
	adds	r3, r3, r7
.Ltmp880:
	@DEBUG_VALUE: mbedtls_internal_ripemd160_process:X <- [DW_OP_plus_uconst 88, DW_OP_LLVM_fragment 128 32] [$sp+0]
	adds	r2, r3, r2
	ldr	r3, .LCPI5_16
	adds	r2, r2, r3
.Ltmp881:
	@DEBUG_VALUE: mbedtls_internal_ripemd160_process:Ep <- $r2
	ldr	r3, [sp, #120]                  @ 4-byte Reload
	rors	r2, r3
.Ltmp882:
	adds	r3, r2, r0
.Ltmp883:
	@DEBUG_VALUE: mbedtls_internal_ripemd160_process:Ep <- $r3
	.loc	1 236 5                         @ ../../../ThirdParty/mbedTLS/library/ripemd160.c:236:5
	mvns	r2, r1
	mov	r7, r1
.Ltmp884:
	@DEBUG_VALUE: mbedtls_internal_ripemd160_process:Ap <- $r7
	@DEBUG_VALUE: mbedtls_internal_ripemd160_process:Ap <- $r7
	orrs	r2, r3
	mov	r1, r6
	.loc	1 235 5                         @ ../../../ThirdParty/mbedTLS/library/ripemd160.c:235:5
	rors	r5, r6
.Ltmp885:
	@DEBUG_VALUE: mbedtls_internal_ripemd160_process:Bp <- $r5
	.loc	1 236 5                         @ ../../../ThirdParty/mbedTLS/library/ripemd160.c:236:5
	eors	r2, r5
	ldr	r6, [sp, #76]                   @ 4-byte Reload
.Ltmp886:
	@DEBUG_VALUE: mbedtls_internal_ripemd160_process:X <- [DW_OP_LLVM_fragment 416 32] $r6
	adds	r0, r6, r0
.Ltmp887:
	@DEBUG_VALUE: mbedtls_internal_ripemd160_process:X <- [DW_OP_plus_uconst 76, DW_OP_LLVM_fragment 416 32] [$sp+0]
	adds	r0, r0, r2
	ldr	r2, __arm_cp.5_6
	adds	r0, r0, r2
.Ltmp888:
	@DEBUG_VALUE: mbedtls_internal_ripemd160_process:Dp <- $r0
	ldr	r2, [sp, #152]                  @ 4-byte Reload
	rors	r0, r2
.Ltmp889:
	adds	r2, r0, r4
.Ltmp890:
	@DEBUG_VALUE: mbedtls_internal_ripemd160_process:Dp <- $r2
	.loc	1 246 5                         @ ../../../ThirdParty/mbedTLS/library/ripemd160.c:246:5
	mov	r0, r2
	ands	r0, r3
	.loc	1 236 5                         @ ../../../ThirdParty/mbedTLS/library/ripemd160.c:236:5
	rors	r7, r1
.Ltmp891:
	@DEBUG_VALUE: mbedtls_internal_ripemd160_process:Ap <- $r7
	.loc	1 246 5                         @ ../../../ThirdParty/mbedTLS/library/ripemd160.c:246:5
	mov	r6, r7
	bics	r6, r2
	orrs	r6, r0
	ldr	r0, [sp, #72]                   @ 4-byte Reload
.Ltmp892:
	@DEBUG_VALUE: mbedtls_internal_ripemd160_process:X <- [DW_OP_LLVM_fragment 256 32] $r0
	adds	r0, r0, r4
.Ltmp893:
	@DEBUG_VALUE: mbedtls_internal_ripemd160_process:X <- [DW_OP_plus_uconst 72, DW_OP_LLVM_fragment 256 32] [$sp+0]
	adds	r0, r0, r6
	ldr	r4, __arm_cp.5_7
.Ltmp894:
	adds	r0, r0, r4
.Ltmp895:
	@DEBUG_VALUE: mbedtls_internal_ripemd160_process:Cp <- $r0
	ldr	r4, [sp, #128]                  @ 4-byte Reload
	rors	r0, r4
.Ltmp896:
	adds	r4, r0, r5
.Ltmp897:
	@DEBUG_VALUE: mbedtls_internal_ripemd160_process:Cp <- $r4
	rors	r3, r1
.Ltmp898:
	@DEBUG_VALUE: mbedtls_internal_ripemd160_process:Ep <- $r3
	.loc	1 247 5                         @ ../../../ThirdParty/mbedTLS/library/ripemd160.c:247:5
	mov	r0, r3
	bics	r0, r4
	mov	r6, r4
	ands	r6, r2
	orrs	r6, r0
	ldr	r0, [sp, #100]                  @ 4-byte Reload
.Ltmp899:
	@DEBUG_VALUE: mbedtls_internal_ripemd160_process:X <- [DW_OP_LLVM_fragment 192 32] $r0
	adds	r0, r0, r5
.Ltmp900:
	@DEBUG_VALUE: mbedtls_internal_ripemd160_process:X <- [DW_OP_plus_uconst 100, DW_OP_LLVM_fragment 192 32] [$sp+0]
	adds	r0, r0, r6
	ldr	r1, __arm_cp.5_7
	adds	r0, r0, r1
.Ltmp901:
	@DEBUG_VALUE: mbedtls_internal_ripemd160_process:Bp <- $r0
	ldr	r1, [sp, #152]                  @ 4-byte Reload
	rors	r0, r1
.Ltmp902:
	.loc	1 0 5 is_stmt 0                 @ ../../../ThirdParty/mbedTLS/library/ripemd160.c:0:5
	mov	r1, r7
.Ltmp903:
	@DEBUG_VALUE: mbedtls_internal_ripemd160_process:Ap <- $r1
	.loc	1 247 5                         @ ../../../ThirdParty/mbedTLS/library/ripemd160.c:247:5
	adds	r7, r0, r7
.Ltmp904:
	@DEBUG_VALUE: mbedtls_internal_ripemd160_process:Bp <- $r7
	.loc	1 0 5                           @ ../../../ThirdParty/mbedTLS/library/ripemd160.c:0:5
	ldr	r6, [sp, #160]                  @ 4-byte Reload
	.loc	1 247 5                         @ ../../../ThirdParty/mbedTLS/library/ripemd160.c:247:5
	rors	r2, r6
.Ltmp905:
	@DEBUG_VALUE: mbedtls_internal_ripemd160_process:Dp <- $r2
	.loc	1 248 5 is_stmt 1               @ ../../../ThirdParty/mbedTLS/library/ripemd160.c:248:5
	mov	r0, r2
	bics	r0, r7
	mov	r5, r7
	ands	r5, r4
	orrs	r5, r0
	ldr	r0, [sp, #88]                   @ 4-byte Reload
.Ltmp906:
	@DEBUG_VALUE: mbedtls_internal_ripemd160_process:X <- [DW_OP_LLVM_fragment 128 32] $r0
	adds	r0, r0, r1
.Ltmp907:
	@DEBUG_VALUE: mbedtls_internal_ripemd160_process:X <- [DW_OP_plus_uconst 88, DW_OP_LLVM_fragment 128 32] [$sp+0]
	adds	r0, r0, r5
	ldr	r1, __arm_cp.5_7
.Ltmp908:
	adds	r0, r0, r1
.Ltmp909:
	@DEBUG_VALUE: mbedtls_internal_ripemd160_process:Ap <- $r0
	ldr	r1, [sp, #156]                  @ 4-byte Reload
	rors	r0, r1
.Ltmp910:
	adds	r0, r0, r3
.Ltmp911:
	@DEBUG_VALUE: mbedtls_internal_ripemd160_process:Ap <- $r0
	rors	r4, r6
.Ltmp912:
	@DEBUG_VALUE: mbedtls_internal_ripemd160_process:Cp <- $r4
	.loc	1 249 5                         @ ../../../ThirdParty/mbedTLS/library/ripemd160.c:249:5
	mov	r1, r4
	bics	r1, r0
	mov	r5, r0
	ands	r5, r7
	orrs	r5, r1
	ldr	r1, [sp, #104]                  @ 4-byte Reload
.Ltmp913:
	@DEBUG_VALUE: mbedtls_internal_ripemd160_process:X <- [DW_OP_LLVM_fragment 32 32] $r1
	adds	r1, r1, r3
.Ltmp914:
	@DEBUG_VALUE: mbedtls_internal_ripemd160_process:X <- [DW_OP_plus_uconst 104, DW_OP_LLVM_fragment 32 32] [$sp+0]
	adds	r1, r1, r5
	ldr	r3, __arm_cp.5_7
.Ltmp915:
	adds	r1, r1, r3
.Ltmp916:
	@DEBUG_VALUE: mbedtls_internal_ripemd160_process:Ep <- $r1
	.loc	1 0 5 is_stmt 0                 @ ../../../ThirdParty/mbedTLS/library/ripemd160.c:0:5
	b	.LBB5_12
.Ltmp917:
	.p2align	2
@ %bb.9:
__arm_cp.5_14:
	.long	1352829926                      @ 0x50a28be6
.Lcpi_end8:
	.size	__arm_cp.5_14, .Lcpi_end8-__arm_cp.5_14
	.p2align	2
@ %bb.10:
__arm_cp.5_15:
	.long	1548603684                      @ 0x5c4dd124
.Lcpi_end9:
	.size	__arm_cp.5_15, .Lcpi_end9-__arm_cp.5_15
	.p2align	2
@ %bb.11:
.LCPI5_16:
	.long	1836072691                      @ 0x6d703ef3
	.p2align	1
.LBB5_12:
	.loc	1 249 5                         @ ../../../ThirdParty/mbedTLS/library/ripemd160.c:249:5
	ldr	r3, [sp, #144]                  @ 4-byte Reload
	rors	r1, r3
	adds	r3, r1, r2
.Ltmp918:
	@DEBUG_VALUE: mbedtls_internal_ripemd160_process:Ep <- $r3
	rors	r7, r6
.Ltmp919:
	@DEBUG_VALUE: mbedtls_internal_ripemd160_process:Bp <- $r7
	.loc	1 250 5 is_stmt 1               @ ../../../ThirdParty/mbedTLS/library/ripemd160.c:250:5
	mov	r1, r7
	bics	r1, r3
	mov	r5, r3
	ands	r5, r0
	orrs	r5, r1
	ldr	r1, [sp, #112]                  @ 4-byte Reload
.Ltmp920:
	@DEBUG_VALUE: mbedtls_internal_ripemd160_process:X <- [DW_OP_LLVM_fragment 96 32] $r1
	adds	r1, r1, r2
.Ltmp921:
	@DEBUG_VALUE: mbedtls_internal_ripemd160_process:X <- [DW_OP_plus_uconst 112, DW_OP_LLVM_fragment 96 32] [$sp+0]
	adds	r1, r1, r5
	ldr	r2, __arm_cp.5_7
	adds	r1, r1, r2
.Ltmp922:
	@DEBUG_VALUE: mbedtls_internal_ripemd160_process:Dp <- $r1
	.loc	1 0 5 is_stmt 0                 @ ../../../ThirdParty/mbedTLS/library/ripemd160.c:0:5
	ldr	r6, [sp, #124]                  @ 4-byte Reload
	.loc	1 250 5                         @ ../../../ThirdParty/mbedTLS/library/ripemd160.c:250:5
	rors	r1, r6
.Ltmp923:
	adds	r2, r1, r4
.Ltmp924:
	@DEBUG_VALUE: mbedtls_internal_ripemd160_process:Dp <- $r2
	ldr	r1, [sp, #160]                  @ 4-byte Reload
	rors	r0, r1
.Ltmp925:
	@DEBUG_VALUE: mbedtls_internal_ripemd160_process:Ap <- $r0
	.loc	1 251 5 is_stmt 1               @ ../../../ThirdParty/mbedTLS/library/ripemd160.c:251:5
	mov	r1, r0
	bics	r1, r2
	mov	r5, r2
	ands	r5, r3
	orrs	r5, r1
	ldr	r1, [sp, #92]                   @ 4-byte Reload
.Ltmp926:
	@DEBUG_VALUE: mbedtls_internal_ripemd160_process:X <- [DW_OP_LLVM_fragment 352 32] $r1
	adds	r1, r1, r4
.Ltmp927:
	@DEBUG_VALUE: mbedtls_internal_ripemd160_process:X <- [DW_OP_plus_uconst 92, DW_OP_LLVM_fragment 352 32] [$sp+0]
	adds	r1, r1, r5
	ldr	r4, __arm_cp.5_7
	adds	r1, r1, r4
.Ltmp928:
	@DEBUG_VALUE: mbedtls_internal_ripemd160_process:Cp <- $r1
	rors	r1, r6
.Ltmp929:
	adds	r4, r1, r7
.Ltmp930:
	@DEBUG_VALUE: mbedtls_internal_ripemd160_process:Cp <- $r4
	.loc	1 0 5 is_stmt 0                 @ ../../../ThirdParty/mbedTLS/library/ripemd160.c:0:5
	ldr	r6, [sp, #160]                  @ 4-byte Reload
	.loc	1 251 5                         @ ../../../ThirdParty/mbedTLS/library/ripemd160.c:251:5
	rors	r3, r6
.Ltmp931:
	@DEBUG_VALUE: mbedtls_internal_ripemd160_process:Ep <- $r3
	.loc	1 252 5 is_stmt 1               @ ../../../ThirdParty/mbedTLS/library/ripemd160.c:252:5
	mov	r1, r3
	bics	r1, r4
	mov	r5, r4
	ands	r5, r2
	orrs	r5, r1
	ldr	r1, [sp, #68]                   @ 4-byte Reload
.Ltmp932:
	@DEBUG_VALUE: mbedtls_internal_ripemd160_process:X <- [DW_OP_LLVM_fragment 480 32] $r1
	adds	r1, r1, r7
.Ltmp933:
	@DEBUG_VALUE: mbedtls_internal_ripemd160_process:X <- [DW_OP_plus_uconst 68, DW_OP_LLVM_fragment 480 32] [$sp+0]
	adds	r1, r1, r5
	ldr	r5, __arm_cp.5_7
	adds	r1, r1, r5
.Ltmp934:
	@DEBUG_VALUE: mbedtls_internal_ripemd160_process:Bp <- $r1
	ldr	r5, [sp, #148]                  @ 4-byte Reload
	rors	r1, r5
.Ltmp935:
	adds	r7, r1, r0
.Ltmp936:
	@DEBUG_VALUE: mbedtls_internal_ripemd160_process:Bp <- $r7
	rors	r2, r6
.Ltmp937:
	@DEBUG_VALUE: mbedtls_internal_ripemd160_process:Dp <- $r2
	.loc	1 253 5                         @ ../../../ThirdParty/mbedTLS/library/ripemd160.c:253:5
	mov	r1, r2
	bics	r1, r7
	mov	r5, r7
	ands	r5, r4
	orrs	r5, r1
	ldr	r1, [sp, #116]                  @ 4-byte Reload
.Ltmp938:
	@DEBUG_VALUE: mbedtls_internal_ripemd160_process:X <- [DW_OP_LLVM_fragment 0 32] $r1
	adds	r0, r1, r0
.Ltmp939:
	@DEBUG_VALUE: mbedtls_internal_ripemd160_process:X <- [DW_OP_plus_uconst 116, DW_OP_LLVM_fragment 0 32] [$sp+0]
	adds	r0, r0, r5
	ldr	r1, __arm_cp.5_7
	adds	r0, r0, r1
.Ltmp940:
	@DEBUG_VALUE: mbedtls_internal_ripemd160_process:Ap <- $r0
	ldr	r1, [sp, #124]                  @ 4-byte Reload
	rors	r0, r1
.Ltmp941:
	adds	r6, r0, r3
.Ltmp942:
	@DEBUG_VALUE: mbedtls_internal_ripemd160_process:Ap <- $r6
	ldr	r0, [sp, #160]                  @ 4-byte Reload
	rors	r4, r0
.Ltmp943:
	@DEBUG_VALUE: mbedtls_internal_ripemd160_process:Cp <- $r4
	.loc	1 254 5                         @ ../../../ThirdParty/mbedTLS/library/ripemd160.c:254:5
	mov	r1, r4
	bics	r1, r6
	mov	r5, r6
	ands	r5, r7
	orrs	r5, r1
	ldr	r1, [sp, #84]                   @ 4-byte Reload
.Ltmp944:
	@DEBUG_VALUE: mbedtls_internal_ripemd160_process:X <- [DW_OP_LLVM_fragment 160 32] $r1
	adds	r1, r1, r3
.Ltmp945:
	@DEBUG_VALUE: mbedtls_internal_ripemd160_process:X <- [DW_OP_plus_uconst 84, DW_OP_LLVM_fragment 160 32] [$sp+0]
	adds	r1, r1, r5
	ldr	r0, __arm_cp.5_7
	adds	r1, r1, r0
.Ltmp946:
	@DEBUG_VALUE: mbedtls_internal_ripemd160_process:Ep <- $r1
	ldr	r0, [sp, #148]                  @ 4-byte Reload
	rors	r1, r0
.Ltmp947:
	adds	r3, r1, r2
.Ltmp948:
	@DEBUG_VALUE: mbedtls_internal_ripemd160_process:Ep <- $r3
	ldr	r0, [sp, #160]                  @ 4-byte Reload
	rors	r7, r0
.Ltmp949:
	@DEBUG_VALUE: mbedtls_internal_ripemd160_process:Bp <- $r7
	.loc	1 255 5                         @ ../../../ThirdParty/mbedTLS/library/ripemd160.c:255:5
	mov	r1, r7
	bics	r1, r3
	mov	r5, r3
	ands	r5, r6
	orrs	r5, r1
	ldr	r0, [sp, #56]                   @ 4-byte Reload
.Ltmp950:
	@DEBUG_VALUE: mbedtls_internal_ripemd160_process:X <- [DW_OP_LLVM_fragment 384 32] undef
	adds	r1, r0, r2
.Ltmp951:
	@DEBUG_VALUE: mbedtls_internal_ripemd160_process:X <- [DW_OP_plus_uconst 56, DW_OP_LLVM_fragment 384 32] [$sp+0]
	adds	r1, r1, r5
	ldr	r0, __arm_cp.5_7
	adds	r1, r1, r0
.Ltmp952:
	@DEBUG_VALUE: mbedtls_internal_ripemd160_process:Dp <- $r1
	ldr	r2, [sp, #136]                  @ 4-byte Reload
	rors	r1, r2
.Ltmp953:
	adds	r2, r1, r4
.Ltmp954:
	@DEBUG_VALUE: mbedtls_internal_ripemd160_process:Dp <- $r2
	.loc	1 0 5 is_stmt 0                 @ ../../../ThirdParty/mbedTLS/library/ripemd160.c:0:5
	ldr	r0, [sp, #160]                  @ 4-byte Reload
	.loc	1 255 5                         @ ../../../ThirdParty/mbedTLS/library/ripemd160.c:255:5
	rors	r6, r0
.Ltmp955:
	@DEBUG_VALUE: mbedtls_internal_ripemd160_process:Ap <- $r6
	.loc	1 256 5 is_stmt 1               @ ../../../ThirdParty/mbedTLS/library/ripemd160.c:256:5
	mov	r1, r6
	bics	r1, r2
	mov	r5, r2
	ands	r5, r3
	orrs	r5, r1
	ldr	r1, [sp, #108]                  @ 4-byte Reload
.Ltmp956:
	@DEBUG_VALUE: mbedtls_internal_ripemd160_process:X <- [DW_OP_LLVM_fragment 64 32] $r1
	adds	r1, r1, r4
.Ltmp957:
	@DEBUG_VALUE: mbedtls_internal_ripemd160_process:X <- [DW_OP_plus_uconst 108, DW_OP_LLVM_fragment 64 32] [$sp+0]
	adds	r1, r1, r5
	ldr	r4, __arm_cp.5_7
.Ltmp958:
	adds	r1, r1, r4
.Ltmp959:
	@DEBUG_VALUE: mbedtls_internal_ripemd160_process:Cp <- $r1
	ldr	r4, [sp, #140]                  @ 4-byte Reload
	rors	r1, r4
.Ltmp960:
	adds	r4, r1, r7
.Ltmp961:
	@DEBUG_VALUE: mbedtls_internal_ripemd160_process:Cp <- $r4
	rors	r3, r0
.Ltmp962:
	@DEBUG_VALUE: mbedtls_internal_ripemd160_process:Ep <- $r3
	.loc	1 257 5                         @ ../../../ThirdParty/mbedTLS/library/ripemd160.c:257:5
	mov	r1, r3
	bics	r1, r4
	mov	r5, r4
	ands	r5, r2
	orrs	r5, r1
	ldr	r1, [sp, #76]                   @ 4-byte Reload
.Ltmp963:
	@DEBUG_VALUE: mbedtls_internal_ripemd160_process:X <- [DW_OP_LLVM_fragment 416 32] $r1
	adds	r1, r1, r7
.Ltmp964:
	@DEBUG_VALUE: mbedtls_internal_ripemd160_process:X <- [DW_OP_plus_uconst 76, DW_OP_LLVM_fragment 416 32] [$sp+0]
	adds	r1, r1, r5
	ldr	r5, __arm_cp.5_7
	adds	r1, r1, r5
.Ltmp965:
	@DEBUG_VALUE: mbedtls_internal_ripemd160_process:Bp <- $r1
	ldr	r5, [sp, #136]                  @ 4-byte Reload
	rors	r1, r5
.Ltmp966:
	adds	r7, r1, r6
.Ltmp967:
	@DEBUG_VALUE: mbedtls_internal_ripemd160_process:Bp <- $r7
	rors	r2, r0
.Ltmp968:
	@DEBUG_VALUE: mbedtls_internal_ripemd160_process:Dp <- $r2
	.loc	1 258 5                         @ ../../../ThirdParty/mbedTLS/library/ripemd160.c:258:5
	mov	r1, r2
	bics	r1, r7
	mov	r5, r7
	ands	r5, r4
	orrs	r5, r1
	ldr	r1, [sp, #96]                   @ 4-byte Reload
.Ltmp969:
	@DEBUG_VALUE: mbedtls_internal_ripemd160_process:X <- [DW_OP_LLVM_fragment 288 32] $r1
	adds	r0, r1, r6
.Ltmp970:
	@DEBUG_VALUE: mbedtls_internal_ripemd160_process:X <- [DW_OP_plus_uconst 96, DW_OP_LLVM_fragment 288 32] [$sp+0]
	adds	r0, r0, r5
	ldr	r1, __arm_cp.5_7
	adds	r0, r0, r1
.Ltmp971:
	@DEBUG_VALUE: mbedtls_internal_ripemd160_process:Ap <- $r0
	ldr	r1, [sp, #140]                  @ 4-byte Reload
	rors	r0, r1
.Ltmp972:
	adds	r0, r0, r3
.Ltmp973:
	@DEBUG_VALUE: mbedtls_internal_ripemd160_process:Ap <- $r0
	.loc	1 0 5 is_stmt 0                 @ ../../../ThirdParty/mbedTLS/library/ripemd160.c:0:5
	ldr	r6, [sp, #160]                  @ 4-byte Reload
	.loc	1 258 5                         @ ../../../ThirdParty/mbedTLS/library/ripemd160.c:258:5
	rors	r4, r6
.Ltmp974:
	@DEBUG_VALUE: mbedtls_internal_ripemd160_process:Cp <- $r4
	.loc	1 259 5 is_stmt 1               @ ../../../ThirdParty/mbedTLS/library/ripemd160.c:259:5
	mov	r1, r4
	bics	r1, r0
	mov	r5, r0
	ands	r5, r7
	orrs	r5, r1
	ldr	r1, [sp, #80]                   @ 4-byte Reload
.Ltmp975:
	@DEBUG_VALUE: mbedtls_internal_ripemd160_process:X <- [DW_OP_LLVM_fragment 224 32] $r1
	adds	r1, r1, r3
.Ltmp976:
	@DEBUG_VALUE: mbedtls_internal_ripemd160_process:X <- [DW_OP_plus_uconst 80, DW_OP_LLVM_fragment 224 32] [$sp+0]
	adds	r1, r1, r5
	ldr	r3, __arm_cp.5_7
.Ltmp977:
	adds	r1, r1, r3
.Ltmp978:
	@DEBUG_VALUE: mbedtls_internal_ripemd160_process:Ep <- $r1
	ldr	r3, [sp, #152]                  @ 4-byte Reload
	rors	r1, r3
.Ltmp979:
	adds	r1, r1, r2
.Ltmp980:
	@DEBUG_VALUE: mbedtls_internal_ripemd160_process:Ep <- $r1
	rors	r7, r6
.Ltmp981:
	@DEBUG_VALUE: mbedtls_internal_ripemd160_process:Bp <- $r7
	.loc	1 260 5                         @ ../../../ThirdParty/mbedTLS/library/ripemd160.c:260:5
	mov	r3, r7
	bics	r3, r1
	mov	r5, r1
	ands	r5, r0
	orrs	r5, r3
	ldr	r3, [sp, #60]                   @ 4-byte Reload
.Ltmp982:
	@DEBUG_VALUE: mbedtls_internal_ripemd160_process:X <- [DW_OP_LLVM_fragment 320 32] $r3
	adds	r2, r3, r2
.Ltmp983:
	@DEBUG_VALUE: mbedtls_internal_ripemd160_process:X <- [DW_OP_plus_uconst 60, DW_OP_LLVM_fragment 320 32] [$sp+0]
	adds	r2, r2, r5
	ldr	r3, __arm_cp.5_7
	adds	r2, r2, r3
.Ltmp984:
	@DEBUG_VALUE: mbedtls_internal_ripemd160_process:Dp <- $r2
	ldr	r3, [sp, #128]                  @ 4-byte Reload
	rors	r2, r3
.Ltmp985:
	adds	r2, r2, r4
.Ltmp986:
	@DEBUG_VALUE: mbedtls_internal_ripemd160_process:Dp <- $r2
	rors	r0, r6
.Ltmp987:
	@DEBUG_VALUE: mbedtls_internal_ripemd160_process:Ap <- $r0
	.loc	1 261 5                         @ ../../../ThirdParty/mbedTLS/library/ripemd160.c:261:5
	mov	r3, r0
	bics	r3, r2
	mov	r5, r2
	ands	r5, r1
	orrs	r5, r3
	ldr	r3, [sp, #64]                   @ 4-byte Reload
.Ltmp988:
	@DEBUG_VALUE: mbedtls_internal_ripemd160_process:X <- [DW_OP_LLVM_fragment 448 32] $r3
	adds	r3, r3, r4
.Ltmp989:
	@DEBUG_VALUE: mbedtls_internal_ripemd160_process:X <- [DW_OP_plus_uconst 64, DW_OP_LLVM_fragment 448 32] [$sp+0]
	adds	r3, r3, r5
	ldr	r4, __arm_cp.5_7
.Ltmp990:
	adds	r3, r3, r4
.Ltmp991:
	@DEBUG_VALUE: mbedtls_internal_ripemd160_process:Cp <- $r3
	ldr	r4, [sp, #156]                  @ 4-byte Reload
	rors	r3, r4
.Ltmp992:
	adds	r5, r3, r7
.Ltmp993:
	@DEBUG_VALUE: mbedtls_internal_ripemd160_process:Cp <- $r5
	.loc	1 272 5                         @ ../../../ThirdParty/mbedTLS/library/ripemd160.c:272:5
	mov	r3, r5
	rors	r3, r6
.Ltmp994:
	@DEBUG_VALUE: mbedtls_internal_ripemd160_process:Cp <- $r3
	.loc	1 261 5                         @ ../../../ThirdParty/mbedTLS/library/ripemd160.c:261:5
	rors	r1, r6
.Ltmp995:
	@DEBUG_VALUE: mbedtls_internal_ripemd160_process:Ep <- $r1
	.loc	1 271 5                         @ ../../../ThirdParty/mbedTLS/library/ripemd160.c:271:5
	mov	r4, r2
	eors	r4, r1
	eors	r4, r5
	ldr	r6, [sp, #56]                   @ 4-byte Reload
.Ltmp996:
	@DEBUG_VALUE: mbedtls_internal_ripemd160_process:X <- [DW_OP_LLVM_fragment 384 32] $r6
	adds	r6, r7, r6
.Ltmp997:
	adds	r4, r6, r4
.Ltmp998:
	@DEBUG_VALUE: mbedtls_internal_ripemd160_process:Bp <- $r4
	ldr	r6, [sp, #156]                  @ 4-byte Reload
	rors	r4, r6
.Ltmp999:
	adds	r4, r4, r0
.Ltmp1000:
	@DEBUG_VALUE: mbedtls_internal_ripemd160_process:Bp <- $r4
	.loc	1 273 5                         @ ../../../ThirdParty/mbedTLS/library/ripemd160.c:273:5
	mov	r6, r4
	eors	r6, r3
	.loc	1 271 5                         @ ../../../ThirdParty/mbedTLS/library/ripemd160.c:271:5
	ldr	r7, [sp, #160]                  @ 4-byte Reload
	rors	r2, r7
.Ltmp1001:
	@DEBUG_VALUE: mbedtls_internal_ripemd160_process:Dp <- $r2
	.loc	1 272 5                         @ ../../../ThirdParty/mbedTLS/library/ripemd160.c:272:5
	eors	r5, r2
	eors	r5, r4
	ldr	r7, [sp, #68]                   @ 4-byte Reload
.Ltmp1002:
	@DEBUG_VALUE: mbedtls_internal_ripemd160_process:X <- [DW_OP_LLVM_fragment 480 32] $r7
	adds	r0, r0, r7
.Ltmp1003:
	@DEBUG_VALUE: mbedtls_internal_ripemd160_process:X <- [DW_OP_plus_uconst 68, DW_OP_LLVM_fragment 480 32] [$sp+0]
	adds	r0, r0, r5
.Ltmp1004:
	@DEBUG_VALUE: mbedtls_internal_ripemd160_process:Ap <- $r0
	ldr	r5, [sp, #152]                  @ 4-byte Reload
	rors	r0, r5
.Ltmp1005:
	adds	r5, r0, r1
.Ltmp1006:
	@DEBUG_VALUE: mbedtls_internal_ripemd160_process:Ap <- $r5
	.loc	1 273 5                         @ ../../../ThirdParty/mbedTLS/library/ripemd160.c:273:5
	eors	r6, r5
	ldr	r0, [sp, #60]                   @ 4-byte Reload
.Ltmp1007:
	@DEBUG_VALUE: mbedtls_internal_ripemd160_process:X <- [DW_OP_LLVM_fragment 320 32] $r0
	adds	r0, r1, r0
.Ltmp1008:
	adds	r0, r0, r6
.Ltmp1009:
	@DEBUG_VALUE: mbedtls_internal_ripemd160_process:Ep <- $r0
	ldr	r1, [sp, #140]                  @ 4-byte Reload
	rors	r0, r1
.Ltmp1010:
	adds	r1, r0, r2
.Ltmp1011:
	@DEBUG_VALUE: mbedtls_internal_ripemd160_process:Ep <- $r1
	.loc	1 275 5                         @ ../../../ThirdParty/mbedTLS/library/ripemd160.c:275:5
	mov	r0, r1
	ldr	r6, [sp, #160]                  @ 4-byte Reload
	rors	r0, r6
.Ltmp1012:
	@DEBUG_VALUE: mbedtls_internal_ripemd160_process:Ep <- $r0
	.loc	1 273 5                         @ ../../../ThirdParty/mbedTLS/library/ripemd160.c:273:5
	rors	r4, r6
.Ltmp1013:
	@DEBUG_VALUE: mbedtls_internal_ripemd160_process:Bp <- $r4
	.loc	1 274 5                         @ ../../../ThirdParty/mbedTLS/library/ripemd160.c:274:5
	mov	r6, r5
	eors	r6, r4
	eors	r6, r1
	ldr	r7, [sp, #88]                   @ 4-byte Reload
.Ltmp1014:
	@DEBUG_VALUE: mbedtls_internal_ripemd160_process:X <- [DW_OP_LLVM_fragment 128 32] $r7
	adds	r2, r2, r7
.Ltmp1015:
	adds	r2, r2, r6
.Ltmp1016:
	@DEBUG_VALUE: mbedtls_internal_ripemd160_process:Dp <- $r2
	ldr	r6, [sp, #136]                  @ 4-byte Reload
	rors	r2, r6
.Ltmp1017:
	adds	r2, r2, r3
.Ltmp1018:
	@DEBUG_VALUE: mbedtls_internal_ripemd160_process:Dp <- $r2
	.loc	1 276 5                         @ ../../../ThirdParty/mbedTLS/library/ripemd160.c:276:5
	mov	r6, r2
	eors	r6, r0
	.loc	1 274 5                         @ ../../../ThirdParty/mbedTLS/library/ripemd160.c:274:5
	ldr	r7, [sp, #160]                  @ 4-byte Reload
.Ltmp1019:
	rors	r5, r7
.Ltmp1020:
	@DEBUG_VALUE: mbedtls_internal_ripemd160_process:Ap <- $r5
	.loc	1 275 5                         @ ../../../ThirdParty/mbedTLS/library/ripemd160.c:275:5
	eors	r1, r5
	eors	r1, r2
	ldr	r7, [sp, #104]                  @ 4-byte Reload
.Ltmp1021:
	@DEBUG_VALUE: mbedtls_internal_ripemd160_process:X <- [DW_OP_LLVM_fragment 32 32] $r7
	adds	r3, r3, r7
.Ltmp1022:
	adds	r1, r3, r1
.Ltmp1023:
	@DEBUG_VALUE: mbedtls_internal_ripemd160_process:Cp <- $r1
	ldr	r3, [sp, #140]                  @ 4-byte Reload
	rors	r1, r3
.Ltmp1024:
	adds	r3, r1, r4
.Ltmp1025:
	@DEBUG_VALUE: mbedtls_internal_ripemd160_process:Cp <- $r3
	.loc	1 276 5                         @ ../../../ThirdParty/mbedTLS/library/ripemd160.c:276:5
	eors	r6, r3
	ldr	r1, [sp, #84]                   @ 4-byte Reload
.Ltmp1026:
	@DEBUG_VALUE: mbedtls_internal_ripemd160_process:X <- [DW_OP_LLVM_fragment 160 32] $r1
	adds	r1, r4, r1
.Ltmp1027:
	adds	r1, r1, r6
.Ltmp1028:
	@DEBUG_VALUE: mbedtls_internal_ripemd160_process:Bp <- $r1
	ldr	r4, [sp, #152]                  @ 4-byte Reload
	rors	r1, r4
.Ltmp1029:
	adds	r4, r1, r5
.Ltmp1030:
	@DEBUG_VALUE: mbedtls_internal_ripemd160_process:Bp <- $r4
	.loc	1 278 5                         @ ../../../ThirdParty/mbedTLS/library/ripemd160.c:278:5
	mov	r1, r4
	ldr	r6, [sp, #160]                  @ 4-byte Reload
	rors	r1, r6
.Ltmp1031:
	@DEBUG_VALUE: mbedtls_internal_ripemd160_process:Bp <- $r1
	.loc	1 276 5                         @ ../../../ThirdParty/mbedTLS/library/ripemd160.c:276:5
	rors	r2, r6
.Ltmp1032:
	@DEBUG_VALUE: mbedtls_internal_ripemd160_process:Dp <- $r2
	.loc	1 277 5                         @ ../../../ThirdParty/mbedTLS/library/ripemd160.c:277:5
	mov	r6, r3
	eors	r6, r2
	eors	r6, r4
	ldr	r7, [sp, #72]                   @ 4-byte Reload
.Ltmp1033:
	@DEBUG_VALUE: mbedtls_internal_ripemd160_process:X <- [DW_OP_LLVM_fragment 256 32] $r7
	adds	r5, r5, r7
.Ltmp1034:
	adds	r5, r5, r6
.Ltmp1035:
	@DEBUG_VALUE: mbedtls_internal_ripemd160_process:Ap <- $r5
	ldr	r6, [sp, #124]                  @ 4-byte Reload
	rors	r5, r6
.Ltmp1036:
	adds	r5, r5, r0
.Ltmp1037:
	@DEBUG_VALUE: mbedtls_internal_ripemd160_process:Ap <- $r5
	.loc	1 279 5                         @ ../../../ThirdParty/mbedTLS/library/ripemd160.c:279:5
	mov	r6, r5
	eors	r6, r1
	.loc	1 277 5                         @ ../../../ThirdParty/mbedTLS/library/ripemd160.c:277:5
	ldr	r7, [sp, #160]                  @ 4-byte Reload
.Ltmp1038:
	rors	r3, r7
.Ltmp1039:
	@DEBUG_VALUE: mbedtls_internal_ripemd160_process:Cp <- $r3
	.loc	1 278 5                         @ ../../../ThirdParty/mbedTLS/library/ripemd160.c:278:5
	eors	r4, r3
	eors	r4, r5
	ldr	r7, [sp, #80]                   @ 4-byte Reload
.Ltmp1040:
	@DEBUG_VALUE: mbedtls_internal_ripemd160_process:X <- [DW_OP_LLVM_fragment 224 32] $r7
	adds	r0, r0, r7
.Ltmp1041:
	adds	r0, r0, r4
.Ltmp1042:
	@DEBUG_VALUE: mbedtls_internal_ripemd160_process:Ep <- $r0
	ldr	r4, [sp, #148]                  @ 4-byte Reload
	rors	r0, r4
.Ltmp1043:
	adds	r7, r0, r2
.Ltmp1044:
	@DEBUG_VALUE: mbedtls_internal_ripemd160_process:Ep <- $r7
	.loc	1 279 5                         @ ../../../ThirdParty/mbedTLS/library/ripemd160.c:279:5
	eors	r6, r7
	ldr	r0, [sp, #100]                  @ 4-byte Reload
.Ltmp1045:
	@DEBUG_VALUE: mbedtls_internal_ripemd160_process:X <- [DW_OP_LLVM_fragment 192 32] $r0
	adds	r0, r2, r0
.Ltmp1046:
	@DEBUG_VALUE: mbedtls_internal_ripemd160_process:X <- [DW_OP_plus_uconst 100, DW_OP_LLVM_fragment 192 32] [$sp+0]
	adds	r0, r0, r6
.Ltmp1047:
	@DEBUG_VALUE: mbedtls_internal_ripemd160_process:Dp <- $r0
	ldr	r2, [sp, #156]                  @ 4-byte Reload
	rors	r0, r2
.Ltmp1048:
	adds	r2, r0, r3
.Ltmp1049:
	@DEBUG_VALUE: mbedtls_internal_ripemd160_process:Dp <- $r2
	.loc	1 281 5                         @ ../../../ThirdParty/mbedTLS/library/ripemd160.c:281:5
	mov	r0, r2
	ldr	r4, [sp, #160]                  @ 4-byte Reload
	rors	r0, r4
.Ltmp1050:
	@DEBUG_VALUE: mbedtls_internal_ripemd160_process:Dp <- $r0
	.loc	1 0 5 is_stmt 0                 @ ../../../ThirdParty/mbedTLS/library/ripemd160.c:0:5
	str	r0, [sp, #136]                  @ 4-byte Spill
.Ltmp1051:
	@DEBUG_VALUE: mbedtls_internal_ripemd160_process:Dp <- [DW_OP_plus_uconst 136] [$sp+0]
	@DEBUG_VALUE: mbedtls_internal_ripemd160_process:Dp <- [DW_OP_plus_uconst 136] [$sp+0]
	.loc	1 279 5 is_stmt 1               @ ../../../ThirdParty/mbedTLS/library/ripemd160.c:279:5
	rors	r5, r4
.Ltmp1052:
	@DEBUG_VALUE: mbedtls_internal_ripemd160_process:Ap <- $r5
	.loc	1 280 5                         @ ../../../ThirdParty/mbedTLS/library/ripemd160.c:280:5
	mov	r0, r7
	eors	r0, r5
	eors	r0, r2
	ldr	r4, [sp, #108]                  @ 4-byte Reload
.Ltmp1053:
	@DEBUG_VALUE: mbedtls_internal_ripemd160_process:X <- [DW_OP_LLVM_fragment 64 32] $r4
	adds	r3, r3, r4
.Ltmp1054:
	adds	r0, r3, r0
.Ltmp1055:
	@DEBUG_VALUE: mbedtls_internal_ripemd160_process:Cp <- $r0
	ldr	r3, [sp, #132]                  @ 4-byte Reload
	rors	r0, r3
.Ltmp1056:
	adds	r3, r0, r1
.Ltmp1057:
	@DEBUG_VALUE: mbedtls_internal_ripemd160_process:Cp <- $r3
	.loc	1 282 5                         @ ../../../ThirdParty/mbedTLS/library/ripemd160.c:282:5
	mov	r6, r3
	ldr	r0, [sp, #136]                  @ 4-byte Reload
.Ltmp1058:
	@DEBUG_VALUE: mbedtls_internal_ripemd160_process:Dp <- $r0
	eors	r6, r0
.Ltmp1059:
	@DEBUG_VALUE: mbedtls_internal_ripemd160_process:Dp <- [DW_OP_plus_uconst 136] [$sp+0]
	.loc	1 0 5 is_stmt 0                 @ ../../../ThirdParty/mbedTLS/library/ripemd160.c:0:5
	ldr	r4, [sp, #160]                  @ 4-byte Reload
.Ltmp1060:
	.loc	1 280 5 is_stmt 1               @ ../../../ThirdParty/mbedTLS/library/ripemd160.c:280:5
	rors	r7, r4
.Ltmp1061:
	@DEBUG_VALUE: mbedtls_internal_ripemd160_process:Ep <- $r7
	.loc	1 281 5                         @ ../../../ThirdParty/mbedTLS/library/ripemd160.c:281:5
	eors	r2, r7
	eors	r2, r3
	ldr	r0, [sp, #76]                   @ 4-byte Reload
.Ltmp1062:
	@DEBUG_VALUE: mbedtls_internal_ripemd160_process:X <- [DW_OP_LLVM_fragment 416 32] $r0
	adds	r1, r1, r0
.Ltmp1063:
	@DEBUG_VALUE: mbedtls_internal_ripemd160_process:X <- [DW_OP_plus_uconst 76, DW_OP_LLVM_fragment 416 32] [$sp+0]
	adds	r1, r1, r2
.Ltmp1064:
	@DEBUG_VALUE: mbedtls_internal_ripemd160_process:Bp <- $r1
	ldr	r0, [sp, #148]                  @ 4-byte Reload
	rors	r1, r0
.Ltmp1065:
	adds	r0, r1, r5
.Ltmp1066:
	@DEBUG_VALUE: mbedtls_internal_ripemd160_process:Bp <- $r0
	.loc	1 282 5                         @ ../../../ThirdParty/mbedTLS/library/ripemd160.c:282:5
	str	r0, [sp, #140]                  @ 4-byte Spill
.Ltmp1067:
	@DEBUG_VALUE: mbedtls_internal_ripemd160_process:Bp <- [DW_OP_plus_uconst 140] [$sp+0]
	eors	r6, r0
	@DEBUG_VALUE: mbedtls_internal_ripemd160_process:Bp <- [DW_OP_plus_uconst 140] [$sp+0]
	ldr	r0, [sp, #64]                   @ 4-byte Reload
.Ltmp1068:
	@DEBUG_VALUE: mbedtls_internal_ripemd160_process:X <- [DW_OP_LLVM_fragment 448 32] $r0
	adds	r1, r5, r0
	adds	r1, r1, r6
.Ltmp1069:
	@DEBUG_VALUE: mbedtls_internal_ripemd160_process:Ap <- $r1
	ldr	r0, [sp, #152]                  @ 4-byte Reload
.Ltmp1070:
	rors	r1, r0
.Ltmp1071:
	adds	r5, r1, r7
.Ltmp1072:
	@DEBUG_VALUE: mbedtls_internal_ripemd160_process:Ap <- $r5
	.loc	1 284 5                         @ ../../../ThirdParty/mbedTLS/library/ripemd160.c:284:5
	mov	r1, r5
	rors	r1, r4
.Ltmp1073:
	@DEBUG_VALUE: mbedtls_internal_ripemd160_process:Ap <- $r1
	.loc	1 294 35                        @ ../../../ThirdParty/mbedTLS/library/ripemd160.c:294:35
	str	r1, [sp, #124]                  @ 4-byte Spill
	ldr	r0, [sp, #36]                   @ 4-byte Reload
	adds	r1, r1, r0
.Ltmp1074:
	@DEBUG_VALUE: mbedtls_internal_ripemd160_process:Ap <- [DW_OP_plus_uconst 124] [$sp+0]
	@DEBUG_VALUE: mbedtls_internal_ripemd160_process:Ap <- $r1
	.loc	1 294 39 is_stmt 0              @ ../../../ThirdParty/mbedTLS/library/ripemd160.c:294:39
	ldr	r0, [sp, #16]                   @ 4-byte Reload
.Ltmp1075:
	@DEBUG_VALUE: mbedtls_internal_ripemd160_process:E <- $r0
	adds	r1, r1, r0
.Ltmp1076:
	@DEBUG_VALUE: mbedtls_internal_ripemd160_process:E <- [DW_OP_plus_uconst 16] [$sp+0]
	.loc	1 294 19                        @ ../../../ThirdParty/mbedTLS/library/ripemd160.c:294:19
	ldr	r0, [sp, #44]                   @ 4-byte Reload
.Ltmp1077:
	@DEBUG_VALUE: mbedtls_internal_ripemd160_process:ctx <- $r0
	str	r1, [r0, #16]
.Ltmp1078:
	@DEBUG_VALUE: mbedtls_internal_ripemd160_process:ctx <- [DW_OP_plus_uconst 44] [$sp+0]
	.loc	1 0 19                          @ ../../../ThirdParty/mbedTLS/library/ripemd160.c:0:19
	ldr	r0, [sp, #48]                   @ 4-byte Reload
.Ltmp1079:
	@DEBUG_VALUE: mbedtls_internal_ripemd160_process:B <- $r0
	.loc	1 283 5 is_stmt 1               @ ../../../ThirdParty/mbedTLS/library/ripemd160.c:283:5
	rors	r0, r4
.Ltmp1080:
	@DEBUG_VALUE: mbedtls_internal_ripemd160_process:B <- $r0
	.loc	1 284 5                         @ ../../../ThirdParty/mbedTLS/library/ripemd160.c:284:5
	str	r0, [sp, #48]                   @ 4-byte Spill
.Ltmp1081:
	@DEBUG_VALUE: mbedtls_internal_ripemd160_process:B <- [DW_OP_plus_uconst 48] [$sp+0]
	mvns	r1, r0
	@DEBUG_VALUE: mbedtls_internal_ripemd160_process:B <- [DW_OP_plus_uconst 48] [$sp+0]
	ldr	r2, [sp, #52]                   @ 4-byte Reload
.Ltmp1082:
	@DEBUG_VALUE: mbedtls_internal_ripemd160_process:A <- $r2
	orrs	r1, r2
.Ltmp1083:
	@DEBUG_VALUE: mbedtls_internal_ripemd160_process:A <- [DW_OP_plus_uconst 52] [$sp+0]
	ldr	r2, [sp, #12]                   @ 4-byte Reload
	eors	r1, r2
	ldr	r2, [sp, #100]                  @ 4-byte Reload
.Ltmp1084:
	@DEBUG_VALUE: mbedtls_internal_ripemd160_process:X <- [DW_OP_LLVM_fragment 192 32] $r2
	ldr	r4, [sp, #4]                    @ 4-byte Reload
.Ltmp1085:
	@DEBUG_VALUE: mbedtls_internal_ripemd160_process:D <- $r4
	adds	r2, r2, r4
.Ltmp1086:
	adds	r1, r2, r1
	ldr	r2, __arm_cp.5_3
	adds	r1, r1, r2
.Ltmp1087:
	@DEBUG_VALUE: mbedtls_internal_ripemd160_process:D <- $r1
	ldr	r2, [sp, #156]                  @ 4-byte Reload
	rors	r1, r2
.Ltmp1088:
	ldr	r0, [sp, #8]                    @ 4-byte Reload
.Ltmp1089:
	@DEBUG_VALUE: mbedtls_internal_ripemd160_process:C <- $r0
	adds	r2, r1, r0
.Ltmp1090:
	@DEBUG_VALUE: mbedtls_internal_ripemd160_process:D <- $r2
	@DEBUG_VALUE: mbedtls_internal_ripemd160_process:C <- [DW_OP_plus_uconst 8] [$sp+0]
	@DEBUG_VALUE: mbedtls_internal_ripemd160_process:B <- undef
	.loc	1 286 5                         @ ../../../ThirdParty/mbedTLS/library/ripemd160.c:286:5
	mov	r6, r2
	@DEBUG_VALUE: mbedtls_internal_ripemd160_process:D <- $r2
	str	r2, [sp, #120]                  @ 4-byte Spill
	ldr	r0, [sp, #160]                  @ 4-byte Reload
	rors	r6, r0
.Ltmp1091:
	@DEBUG_VALUE: mbedtls_internal_ripemd160_process:D <- $r6
	@DEBUG_VALUE: mbedtls_internal_ripemd160_process:Cp <- $r3
	.loc	1 282 5                         @ ../../../ThirdParty/mbedTLS/library/ripemd160.c:282:5
	rors	r3, r0
.Ltmp1092:
	@DEBUG_VALUE: mbedtls_internal_ripemd160_process:Cp <- $r3
	.loc	1 0 5 is_stmt 0                 @ ../../../ThirdParty/mbedTLS/library/ripemd160.c:0:5
	str	r3, [sp, #156]                  @ 4-byte Spill
	.loc	1 283 5 is_stmt 1               @ ../../../ThirdParty/mbedTLS/library/ripemd160.c:283:5
	ldr	r1, [sp, #140]                  @ 4-byte Reload
	eors	r1, r3
.Ltmp1093:
	@DEBUG_VALUE: mbedtls_internal_ripemd160_process:Cp <- [DW_OP_plus_uconst 156] [$sp+0]
	eors	r1, r5
	ldr	r4, [sp, #116]                  @ 4-byte Reload
.Ltmp1094:
	@DEBUG_VALUE: mbedtls_internal_ripemd160_process:X <- [DW_OP_LLVM_fragment 0 32] $r4
	adds	r7, r7, r4
.Ltmp1095:
	adds	r1, r7, r1
.Ltmp1096:
	@DEBUG_VALUE: mbedtls_internal_ripemd160_process:Ep <- $r1
	ldr	r4, [sp, #128]                  @ 4-byte Reload
.Ltmp1097:
	rors	r1, r4
.Ltmp1098:
	ldr	r3, [sp, #136]                  @ 4-byte Reload
.Ltmp1099:
	@DEBUG_VALUE: mbedtls_internal_ripemd160_process:Dp <- $r3
	adds	r7, r1, r3
.Ltmp1100:
	@DEBUG_VALUE: mbedtls_internal_ripemd160_process:Ep <- $r7
	@DEBUG_VALUE: mbedtls_internal_ripemd160_process:Dp <- [DW_OP_plus_uconst 136] [$sp+0]
	.loc	1 285 5                         @ ../../../ThirdParty/mbedTLS/library/ripemd160.c:285:5
	mov	r1, r7
	rors	r1, r0
.Ltmp1101:
	@DEBUG_VALUE: mbedtls_internal_ripemd160_process:Ep <- $r1
	.loc	1 293 35                        @ ../../../ThirdParty/mbedTLS/library/ripemd160.c:293:35
	ldr	r4, [sp, #28]                   @ 4-byte Reload
	adds	r4, r1, r4
	.loc	1 293 39 is_stmt 0              @ ../../../ThirdParty/mbedTLS/library/ripemd160.c:293:39
	adds	r4, r4, r6
	ldr	r3, [sp, #44]                   @ 4-byte Reload
.Ltmp1102:
	@DEBUG_VALUE: mbedtls_internal_ripemd160_process:ctx <- $r3
	.loc	1 293 19                        @ ../../../ThirdParty/mbedTLS/library/ripemd160.c:293:19
	str	r4, [r3, #12]
	ldr	r4, [sp, #52]                   @ 4-byte Reload
.Ltmp1103:
	@DEBUG_VALUE: mbedtls_internal_ripemd160_process:A <- $r4
	.loc	1 284 5 is_stmt 1               @ ../../../ThirdParty/mbedTLS/library/ripemd160.c:284:5
	rors	r4, r0
.Ltmp1104:
	@DEBUG_VALUE: mbedtls_internal_ripemd160_process:A <- $r4
	.loc	1 285 5                         @ ../../../ThirdParty/mbedTLS/library/ripemd160.c:285:5
	str	r4, [sp, #52]                   @ 4-byte Spill
.Ltmp1105:
	@DEBUG_VALUE: mbedtls_internal_ripemd160_process:A <- [DW_OP_plus_uconst 52] [$sp+0]
	mvns	r4, r4
	@DEBUG_VALUE: mbedtls_internal_ripemd160_process:A <- [DW_OP_plus_uconst 52] [$sp+0]
.Ltmp1106:
	@DEBUG_VALUE: mbedtls_internal_ripemd160_process:A <- $r4
	ldr	r6, [sp, #12]                   @ 4-byte Reload
.Ltmp1107:
	orrs	r4, r6
.Ltmp1108:
	eors	r4, r2
	ldr	r6, [sp, #68]                   @ 4-byte Reload
.Ltmp1109:
	@DEBUG_VALUE: mbedtls_internal_ripemd160_process:X <- [DW_OP_LLVM_fragment 480 32] $r6
	ldr	r2, [sp, #8]                    @ 4-byte Reload
.Ltmp1110:
	@DEBUG_VALUE: mbedtls_internal_ripemd160_process:C <- $r2
	adds	r6, r6, r2
.Ltmp1111:
	adds	r4, r6, r4
	ldr	r2, __arm_cp.5_3
.Ltmp1112:
	adds	r4, r4, r2
.Ltmp1113:
	@DEBUG_VALUE: mbedtls_internal_ripemd160_process:C <- $r4
	ldr	r2, [sp, #152]                  @ 4-byte Reload
	rors	r4, r2
.Ltmp1114:
	ldr	r2, [sp, #48]                   @ 4-byte Reload
	adds	r6, r4, r2
.Ltmp1115:
	@DEBUG_VALUE: mbedtls_internal_ripemd160_process:C <- $r6
	.loc	1 0 5 is_stmt 0                 @ ../../../ThirdParty/mbedTLS/library/ripemd160.c:0:5
	ldr	r2, [sp, #140]                  @ 4-byte Reload
.Ltmp1116:
	@DEBUG_VALUE: mbedtls_internal_ripemd160_process:Bp <- $r2
	.loc	1 283 5 is_stmt 1               @ ../../../ThirdParty/mbedTLS/library/ripemd160.c:283:5
	rors	r2, r0
.Ltmp1117:
	@DEBUG_VALUE: mbedtls_internal_ripemd160_process:Bp <- $r2
	.loc	1 284 5                         @ ../../../ThirdParty/mbedTLS/library/ripemd160.c:284:5
	str	r2, [sp, #140]                  @ 4-byte Spill
.Ltmp1118:
	@DEBUG_VALUE: mbedtls_internal_ripemd160_process:Bp <- [DW_OP_plus_uconst 140] [$sp+0]
	eors	r5, r2
	@DEBUG_VALUE: mbedtls_internal_ripemd160_process:Bp <- [DW_OP_plus_uconst 140] [$sp+0]
	eors	r5, r7
	ldr	r4, [sp, #112]                  @ 4-byte Reload
.Ltmp1119:
	@DEBUG_VALUE: mbedtls_internal_ripemd160_process:X <- [DW_OP_LLVM_fragment 96 32] $r4
	ldr	r2, [sp, #136]                  @ 4-byte Reload
.Ltmp1120:
	@DEBUG_VALUE: mbedtls_internal_ripemd160_process:Dp <- $r2
	adds	r4, r2, r4
.Ltmp1121:
	adds	r4, r4, r5
.Ltmp1122:
	@DEBUG_VALUE: mbedtls_internal_ripemd160_process:Dp <- $r4
	ldr	r2, [sp, #132]                  @ 4-byte Reload
	rors	r4, r2
.Ltmp1123:
	ldr	r2, [sp, #156]                  @ 4-byte Reload
.Ltmp1124:
	@DEBUG_VALUE: mbedtls_internal_ripemd160_process:Cp <- $r2
	adds	r4, r4, r2
.Ltmp1125:
	@DEBUG_VALUE: mbedtls_internal_ripemd160_process:Dp <- $r4
	@DEBUG_VALUE: mbedtls_internal_ripemd160_process:Cp <- [DW_OP_plus_uconst 156] [$sp+0]
	@DEBUG_VALUE: mbedtls_internal_ripemd160_process:Bp <- undef
	.loc	1 286 5                         @ ../../../ThirdParty/mbedTLS/library/ripemd160.c:286:5
	mov	r5, r4
	rors	r5, r0
.Ltmp1126:
	@DEBUG_VALUE: mbedtls_internal_ripemd160_process:Dp <- $r5
	.loc	1 292 35                        @ ../../../ThirdParty/mbedTLS/library/ripemd160.c:292:35
	ldr	r2, [sp, #20]                   @ 4-byte Reload
	adds	r5, r5, r2
.Ltmp1127:
	.loc	1 292 39 is_stmt 0              @ ../../../ThirdParty/mbedTLS/library/ripemd160.c:292:39
	adds	r5, r5, r6
.Ltmp1128:
	@DEBUG_VALUE: mbedtls_internal_ripemd160_process:C <- $r5
	.loc	1 297 19 is_stmt 1              @ ../../../ThirdParty/mbedTLS/library/ripemd160.c:297:19
	str	r5, [r3, #8]
.Ltmp1129:
	@DEBUG_VALUE: mbedtls_internal_ripemd160_process:ctx <- [DW_OP_plus_uconst 44] [$sp+0]
	.loc	1 286 5                         @ ../../../ThirdParty/mbedTLS/library/ripemd160.c:286:5
	ldr	r0, [sp, #16]                   @ 4-byte Reload
.Ltmp1130:
	@DEBUG_VALUE: mbedtls_internal_ripemd160_process:E <- $r0
	mvns	r5, r0
.Ltmp1131:
	ldr	r0, [sp, #120]                  @ 4-byte Reload
.Ltmp1132:
	orrs	r5, r0
	eors	r5, r6
	ldr	r0, [sp, #76]                   @ 4-byte Reload
.Ltmp1133:
	@DEBUG_VALUE: mbedtls_internal_ripemd160_process:X <- [DW_OP_LLVM_fragment 416 32] $r0
	ldr	r2, [sp, #48]                   @ 4-byte Reload
	adds	r2, r0, r2
	adds	r2, r2, r5
	ldr	r0, __arm_cp.5_3
.Ltmp1134:
	adds	r2, r2, r0
.Ltmp1135:
	@DEBUG_VALUE: mbedtls_internal_ripemd160_process:B <- $r2
	ldr	r0, [sp, #148]                  @ 4-byte Reload
	rors	r2, r0
.Ltmp1136:
	.loc	1 285 5                         @ ../../../ThirdParty/mbedTLS/library/ripemd160.c:285:5
	ldr	r0, [sp, #124]                  @ 4-byte Reload
.Ltmp1137:
	@DEBUG_VALUE: mbedtls_internal_ripemd160_process:Ap <- $r0
	eors	r7, r0
.Ltmp1138:
	@DEBUG_VALUE: mbedtls_internal_ripemd160_process:Ap <- [DW_OP_plus_uconst 124] [$sp+0]
	eors	r7, r4
	ldr	r0, [sp, #96]                   @ 4-byte Reload
.Ltmp1139:
	@DEBUG_VALUE: mbedtls_internal_ripemd160_process:X <- [DW_OP_LLVM_fragment 288 32] $r0
	ldr	r5, [sp, #156]                  @ 4-byte Reload
.Ltmp1140:
	@DEBUG_VALUE: mbedtls_internal_ripemd160_process:Cp <- $r5
	adds	r0, r5, r0
.Ltmp1141:
	adds	r0, r0, r7
.Ltmp1142:
	@DEBUG_VALUE: mbedtls_internal_ripemd160_process:Cp <- $r0
	.loc	1 0 5 is_stmt 0                 @ ../../../ThirdParty/mbedTLS/library/ripemd160.c:0:5
	ldr	r6, [sp, #144]                  @ 4-byte Reload
	.loc	1 285 5                         @ ../../../ThirdParty/mbedTLS/library/ripemd160.c:285:5
	rors	r0, r6
.Ltmp1143:
	.loc	1 0 5                           @ ../../../ThirdParty/mbedTLS/library/ripemd160.c:0:5
	ldr	r3, [sp, #140]                  @ 4-byte Reload
	.loc	1 285 5                         @ ../../../ThirdParty/mbedTLS/library/ripemd160.c:285:5
	adds	r0, r0, r3
.Ltmp1144:
	@DEBUG_VALUE: mbedtls_internal_ripemd160_process:Cp <- $r0
	.loc	1 286 5 is_stmt 1               @ ../../../ThirdParty/mbedTLS/library/ripemd160.c:286:5
	ldr	r5, [sp, #32]                   @ 4-byte Reload
	ldr	r7, [sp, #52]                   @ 4-byte Reload
.Ltmp1145:
	@DEBUG_VALUE: mbedtls_internal_ripemd160_process:A <- $r7
	adds	r5, r7, r5
	.loc	1 296 35                        @ ../../../ThirdParty/mbedTLS/library/ripemd160.c:296:35
	adds	r5, r5, r0
	.loc	1 296 39 is_stmt 0              @ ../../../ThirdParty/mbedTLS/library/ripemd160.c:296:39
	adds	r2, r5, r2
	ldr	r5, [sp, #44]                   @ 4-byte Reload
.Ltmp1146:
	@DEBUG_VALUE: mbedtls_internal_ripemd160_process:ctx <- $r5
	.loc	1 296 19                        @ ../../../ThirdParty/mbedTLS/library/ripemd160.c:296:19
	str	r2, [r5, #24]
	.loc	1 286 5 is_stmt 1               @ ../../../ThirdParty/mbedTLS/library/ripemd160.c:286:5
	eors	r1, r4
.Ltmp1147:
	eors	r1, r0
	ldr	r0, [sp, #92]                   @ 4-byte Reload
.Ltmp1148:
	@DEBUG_VALUE: mbedtls_internal_ripemd160_process:X <- [DW_OP_LLVM_fragment 352 32] $r0
	adds	r0, r3, r0
.Ltmp1149:
	adds	r0, r0, r1
.Ltmp1150:
	@DEBUG_VALUE: mbedtls_internal_ripemd160_process:Bp <- $r0
	rors	r0, r6
.Ltmp1151:
	ldr	r1, [sp, #24]                   @ 4-byte Reload
	adds	r1, r7, r1
	.loc	1 295 35                        @ ../../../ThirdParty/mbedTLS/library/ripemd160.c:295:35
	ldr	r2, [sp, #124]                  @ 4-byte Reload
.Ltmp1152:
	@DEBUG_VALUE: mbedtls_internal_ripemd160_process:Ap <- $r2
	adds	r1, r1, r2
	.loc	1 295 39 is_stmt 0              @ ../../../ThirdParty/mbedTLS/library/ripemd160.c:295:39
	adds	r0, r1, r0
	.loc	1 295 19                        @ ../../../ThirdParty/mbedTLS/library/ripemd160.c:295:19
	str	r0, [r5, #20]
	movs	r0, #0
	.loc	1 299 5 is_stmt 1               @ ../../../ThirdParty/mbedTLS/library/ripemd160.c:299:5
	add	sp, #164
	pop	{r4, r5, r6, r7, pc}
.Ltmp1153:
	.p2align	2
@ %bb.13:
	.loc	1 0 5 is_stmt 0                 @ ../../../ThirdParty/mbedTLS/library/ripemd160.c:0:5
__arm_cp.5_3:
	.long	2840853838                      @ 0xa953fd4e
.Lcpi_end10:
	.size	__arm_cp.5_3, .Lcpi_end10-__arm_cp.5_3
__arm_cp.5_6:
	.long	1836072691                      @ 0x6d703ef3
.Lcpi_end11:
	.size	__arm_cp.5_6, .Lcpi_end11-__arm_cp.5_6
__arm_cp.5_7:
	.long	2053994217                      @ 0x7a6d76e9
.Lcpi_end12:
	.size	__arm_cp.5_7, .Lcpi_end12-__arm_cp.5_7
.Lfunc_end5:
	.size	mbedtls_internal_ripemd160_process, .Lfunc_end5-mbedtls_internal_ripemd160_process
	.cfi_endproc
	.cantunwind
	.fnend
                                        @ -- End function
	.section	.text.mbedtls_ripemd160_process,"ax",%progbits
	.hidden	mbedtls_ripemd160_process       @ -- Begin function mbedtls_ripemd160_process
	.globl	mbedtls_ripemd160_process
	.p2align	1
	.type	mbedtls_ripemd160_process,%function
	.code	16                              @ @mbedtls_ripemd160_process
	.thumb_func
mbedtls_ripemd160_process:
.Lfunc_begin6:
	.loc	1 305 0 is_stmt 1               @ ../../../ThirdParty/mbedTLS/library/ripemd160.c:305:0
	.fnstart
	.cfi_startproc
@ %bb.0:
	@DEBUG_VALUE: mbedtls_ripemd160_process:ctx <- $r0
	@DEBUG_VALUE: mbedtls_ripemd160_process:ctx <- $r0
	@DEBUG_VALUE: mbedtls_ripemd160_process:data <- $r1
	@DEBUG_VALUE: mbedtls_ripemd160_process:data <- $r1
	@DEBUG_VALUE: mbedtls_ripemd160_process:data <- $r1
	@DEBUG_VALUE: mbedtls_ripemd160_process:ctx <- $r0
	.save	{r7, lr}
	push	{r7, lr}
	.cfi_def_cfa_offset 8
	.cfi_offset lr, -4
	.cfi_offset r7, -8
.Ltmp1154:
	.loc	1 306 5 prologue_end            @ ../../../ThirdParty/mbedTLS/library/ripemd160.c:306:5
	bl	mbedtls_internal_ripemd160_process
.Ltmp1155:
	@DEBUG_VALUE: mbedtls_ripemd160_process:data <- [DW_OP_LLVM_entry_value 1] $r1
	@DEBUG_VALUE: mbedtls_ripemd160_process:ctx <- [DW_OP_LLVM_entry_value 1] $r0
	.loc	1 307 1                         @ ../../../ThirdParty/mbedTLS/library/ripemd160.c:307:1
	pop	{r7, pc}
.Ltmp1156:
.Lfunc_end6:
	.size	mbedtls_ripemd160_process, .Lfunc_end6-mbedtls_ripemd160_process
	.cfi_endproc
	.cantunwind
	.fnend
                                        @ -- End function
	.section	.text.mbedtls_ripemd160_update_ret,"ax",%progbits
	.hidden	mbedtls_ripemd160_update_ret    @ -- Begin function mbedtls_ripemd160_update_ret
	.globl	mbedtls_ripemd160_update_ret
	.p2align	1
	.type	mbedtls_ripemd160_update_ret,%function
	.code	16                              @ @mbedtls_ripemd160_update_ret
	.thumb_func
mbedtls_ripemd160_update_ret:
.Lfunc_begin7:
	.loc	1 317 0                         @ ../../../ThirdParty/mbedTLS/library/ripemd160.c:317:0
	.fnstart
	.cfi_startproc
@ %bb.0:
	@DEBUG_VALUE: mbedtls_ripemd160_update_ret:ctx <- $r0
	@DEBUG_VALUE: mbedtls_ripemd160_update_ret:input <- $r1
	@DEBUG_VALUE: mbedtls_ripemd160_update_ret:ilen <- $r2
	@DEBUG_VALUE: mbedtls_ripemd160_update_ret:ilen <- $r2
	@DEBUG_VALUE: mbedtls_ripemd160_update_ret:input <- $r1
	@DEBUG_VALUE: mbedtls_ripemd160_update_ret:ctx <- $r0
	.save	{r4, r5, r6, r7, lr}
	push	{r4, r5, r6, r7, lr}
	.cfi_def_cfa_offset 20
	.cfi_offset lr, -4
	.cfi_offset r7, -8
	.cfi_offset r6, -12
	.cfi_offset r5, -16
	.cfi_offset r4, -20
	.pad	#12
	sub	sp, #12
	.cfi_def_cfa_offset 32
.Ltmp1157:
	.loc	1 322 9 prologue_end            @ ../../../ThirdParty/mbedTLS/library/ripemd160.c:322:9
	cbz	r2, .LBB7_10
.Ltmp1158:
@ %bb.1:
	@DEBUG_VALUE: mbedtls_ripemd160_update_ret:ilen <- $r2
	@DEBUG_VALUE: mbedtls_ripemd160_update_ret:input <- $r1
	@DEBUG_VALUE: mbedtls_ripemd160_update_ret:ctx <- $r0
	.loc	1 0 9 is_stmt 0                 @ ../../../ThirdParty/mbedTLS/library/ripemd160.c:0:9
	mov	r4, r2
.Ltmp1159:
	@DEBUG_VALUE: mbedtls_ripemd160_update_ret:ilen <- $r4
	mov	r5, r1
.Ltmp1160:
	@DEBUG_VALUE: mbedtls_ripemd160_update_ret:input <- $r5
	mov	r6, r0
.Ltmp1161:
	@DEBUG_VALUE: mbedtls_ripemd160_update_ret:ctx <- $r6
	.loc	1 325 12 is_stmt 1              @ ../../../ThirdParty/mbedTLS/library/ripemd160.c:325:12
	ldr	r1, [r0]
	.loc	1 328 19                        @ ../../../ThirdParty/mbedTLS/library/ripemd160.c:328:19
	adds	r2, r1, r2
	.loc	1 329 19                        @ ../../../ThirdParty/mbedTLS/library/ripemd160.c:329:19
	str	r2, [r0]
	movs	r0, #63
	.loc	1 325 26                        @ ../../../ThirdParty/mbedTLS/library/ripemd160.c:325:26
	ands	r0, r1
.Ltmp1162:
	@DEBUG_VALUE: mbedtls_ripemd160_update_ret:fill <- undef
	@DEBUG_VALUE: mbedtls_ripemd160_update_ret:left <- $r0
	.loc	1 328 19                        @ ../../../ThirdParty/mbedTLS/library/ripemd160.c:328:19
	cmp	r2, r1
	.loc	1 331 9                         @ ../../../ThirdParty/mbedTLS/library/ripemd160.c:331:9
	bhs	.LBB7_3
.Ltmp1163:
@ %bb.2:
	@DEBUG_VALUE: mbedtls_ripemd160_update_ret:ctx <- $r6
	@DEBUG_VALUE: mbedtls_ripemd160_update_ret:input <- $r5
	@DEBUG_VALUE: mbedtls_ripemd160_update_ret:ilen <- $r4
	@DEBUG_VALUE: mbedtls_ripemd160_update_ret:left <- $r0
	.loc	1 332 22                        @ ../../../ThirdParty/mbedTLS/library/ripemd160.c:332:22
	ldr	r1, [r6, #4]
	adds	r1, r1, #1
	str	r1, [r6, #4]
.Ltmp1164:
.LBB7_3:
	@DEBUG_VALUE: mbedtls_ripemd160_update_ret:ctx <- $r6
	@DEBUG_VALUE: mbedtls_ripemd160_update_ret:input <- $r5
	@DEBUG_VALUE: mbedtls_ripemd160_update_ret:ilen <- $r4
	@DEBUG_VALUE: mbedtls_ripemd160_update_ret:left <- $r0
	@DEBUG_VALUE: mbedtls_ripemd160_update_ret:fill <- undef
	.loc	1 0 22 is_stmt 0                @ ../../../ThirdParty/mbedTLS/library/ripemd160.c:0:22
	movs	r7, #0
.Ltmp1165:
	.loc	1 334 14 is_stmt 1              @ ../../../ThirdParty/mbedTLS/library/ripemd160.c:334:14
	cbz	r0, .LBB7_6
.Ltmp1166:
@ %bb.4:
	@DEBUG_VALUE: mbedtls_ripemd160_update_ret:ctx <- $r6
	@DEBUG_VALUE: mbedtls_ripemd160_update_ret:input <- $r5
	@DEBUG_VALUE: mbedtls_ripemd160_update_ret:ilen <- $r4
	@DEBUG_VALUE: mbedtls_ripemd160_update_ret:left <- $r0
	.loc	1 0 14 is_stmt 0                @ ../../../ThirdParty/mbedTLS/library/ripemd160.c:0:14
	str	r7, [sp, #8]                    @ 4-byte Spill
	movs	r1, #64
	subs	r7, r1, r0
.Ltmp1167:
	@DEBUG_VALUE: mbedtls_ripemd160_update_ret:fill <- $r7
	.loc	1 334 9                         @ ../../../ThirdParty/mbedTLS/library/ripemd160.c:334:9
	cmp	r7, r4
	bls	.LBB7_11
.Ltmp1168:
@ %bb.5:
	@DEBUG_VALUE: mbedtls_ripemd160_update_ret:fill <- $r7
	@DEBUG_VALUE: mbedtls_ripemd160_update_ret:ctx <- $r6
	@DEBUG_VALUE: mbedtls_ripemd160_update_ret:input <- $r5
	@DEBUG_VALUE: mbedtls_ripemd160_update_ret:ilen <- $r4
	@DEBUG_VALUE: mbedtls_ripemd160_update_ret:left <- $r0
	.loc	1 0 0                           @ ../../../ThirdParty/mbedTLS/library/ripemd160.c:0:0
	mov	r7, r0
.Ltmp1169:
	@DEBUG_VALUE: mbedtls_ripemd160_update_ret:left <- $r7
.LBB7_6:
	@DEBUG_VALUE: mbedtls_ripemd160_update_ret:ctx <- $r6
	@DEBUG_VALUE: mbedtls_ripemd160_update_ret:input <- $r5
	@DEBUG_VALUE: mbedtls_ripemd160_update_ret:ilen <- $r4
	@DEBUG_VALUE: mbedtls_ripemd160_update_ret:input <- $r5
	@DEBUG_VALUE: mbedtls_ripemd160_update_ret:ilen <- $r4
	@DEBUG_VALUE: mbedtls_ripemd160_update_ret:left <- $r7
	.loc	1 346 5 is_stmt 1               @ ../../../ThirdParty/mbedTLS/library/ripemd160.c:346:5
	cmp	r4, #64
	blo	.LBB7_8
.Ltmp1170:
.LBB7_7:                                @ =>This Inner Loop Header: Depth=1
	@DEBUG_VALUE: mbedtls_ripemd160_update_ret:left <- $r7
	@DEBUG_VALUE: mbedtls_ripemd160_update_ret:ctx <- $r6
	@DEBUG_VALUE: mbedtls_ripemd160_update_ret:input <- $r5
	@DEBUG_VALUE: mbedtls_ripemd160_update_ret:ilen <- $r4
	@DEBUG_VALUE: mbedtls_ripemd160_update_ret:input <- $r5
	@DEBUG_VALUE: mbedtls_ripemd160_update_ret:ilen <- $r4
	.loc	1 348 21                        @ ../../../ThirdParty/mbedTLS/library/ripemd160.c:348:21
	mov	r0, r6
	mov	r1, r5
	bl	mbedtls_internal_ripemd160_process
.Ltmp1171:
	.loc	1 352 15                        @ ../../../ThirdParty/mbedTLS/library/ripemd160.c:352:15
	subs	r4, #64
.Ltmp1172:
	@DEBUG_VALUE: mbedtls_ripemd160_update_ret:ret <- 0
	@DEBUG_VALUE: mbedtls_ripemd160_update_ret:ilen <- $r4
	.loc	1 351 15                        @ ../../../ThirdParty/mbedTLS/library/ripemd160.c:351:15
	adds	r5, #64
.Ltmp1173:
	@DEBUG_VALUE: mbedtls_ripemd160_update_ret:input <- $r5
	.loc	1 346 5                         @ ../../../ThirdParty/mbedTLS/library/ripemd160.c:346:5
	cmp	r4, #63
	bhi	.LBB7_7
.Ltmp1174:
.LBB7_8:
	@DEBUG_VALUE: mbedtls_ripemd160_update_ret:left <- $r7
	@DEBUG_VALUE: mbedtls_ripemd160_update_ret:ctx <- $r6
	@DEBUG_VALUE: mbedtls_ripemd160_update_ret:input <- $r5
	@DEBUG_VALUE: mbedtls_ripemd160_update_ret:ilen <- $r4
	@DEBUG_VALUE: mbedtls_ripemd160_update_ret:input <- $r5
	@DEBUG_VALUE: mbedtls_ripemd160_update_ret:ilen <- $r4
	.loc	1 355 9                         @ ../../../ThirdParty/mbedTLS/library/ripemd160.c:355:9
	cbz	r4, .LBB7_10
.Ltmp1175:
@ %bb.9:
	@DEBUG_VALUE: mbedtls_ripemd160_update_ret:left <- $r7
	@DEBUG_VALUE: mbedtls_ripemd160_update_ret:ctx <- $r6
	@DEBUG_VALUE: mbedtls_ripemd160_update_ret:input <- $r5
	@DEBUG_VALUE: mbedtls_ripemd160_update_ret:ilen <- $r4
	.loc	1 357 39                        @ ../../../ThirdParty/mbedTLS/library/ripemd160.c:357:39
	adds	r0, r6, r7
	adds	r0, #28
	.loc	1 357 9 is_stmt 0               @ ../../../ThirdParty/mbedTLS/library/ripemd160.c:357:9
	mov	r1, r5
	mov	r2, r4
	bl	__aeabi_memcpy
.Ltmp1176:
.LBB7_10:
	.loc	1 0 9                           @ ../../../ThirdParty/mbedTLS/library/ripemd160.c:0:9
	movs	r0, #0
	.loc	1 361 1 is_stmt 1               @ ../../../ThirdParty/mbedTLS/library/ripemd160.c:361:1
	add	sp, #12
	pop	{r4, r5, r6, r7, pc}
.LBB7_11:
.Ltmp1177:
	@DEBUG_VALUE: mbedtls_ripemd160_update_ret:fill <- $r7
	@DEBUG_VALUE: mbedtls_ripemd160_update_ret:ctx <- $r6
	@DEBUG_VALUE: mbedtls_ripemd160_update_ret:input <- $r5
	@DEBUG_VALUE: mbedtls_ripemd160_update_ret:ilen <- $r4
	@DEBUG_VALUE: mbedtls_ripemd160_update_ret:left <- $r0
	.loc	1 336 27                        @ ../../../ThirdParty/mbedTLS/library/ripemd160.c:336:27
	mov	r1, r6
	adds	r1, #28
	.loc	1 336 39 is_stmt 0              @ ../../../ThirdParty/mbedTLS/library/ripemd160.c:336:39
	str	r1, [sp, #4]                    @ 4-byte Spill
	adds	r0, r1, r0
.Ltmp1178:
	.loc	1 336 9                         @ ../../../ThirdParty/mbedTLS/library/ripemd160.c:336:9
	mov	r1, r5
	mov	r2, r7
	bl	__aeabi_memcpy
.Ltmp1179:
	.loc	1 338 21 is_stmt 1              @ ../../../ThirdParty/mbedTLS/library/ripemd160.c:338:21
	mov	r0, r6
	ldr	r1, [sp, #4]                    @ 4-byte Reload
	bl	mbedtls_internal_ripemd160_process
.Ltmp1180:
	.loc	1 342 15                        @ ../../../ThirdParty/mbedTLS/library/ripemd160.c:342:15
	subs	r4, r4, r7
.Ltmp1181:
	@DEBUG_VALUE: mbedtls_ripemd160_update_ret:ilen <- [DW_OP_LLVM_entry_value 1] $r2
	@DEBUG_VALUE: mbedtls_ripemd160_update_ret:ret <- 0
	@DEBUG_VALUE: mbedtls_ripemd160_update_ret:ilen <- $r4
	.loc	1 341 15                        @ ../../../ThirdParty/mbedTLS/library/ripemd160.c:341:15
	adds	r5, r5, r7
.Ltmp1182:
	@DEBUG_VALUE: mbedtls_ripemd160_update_ret:input <- [DW_OP_LLVM_entry_value 1] $r1
	@DEBUG_VALUE: mbedtls_ripemd160_update_ret:left <- 0
	@DEBUG_VALUE: mbedtls_ripemd160_update_ret:input <- $r5
	.loc	1 0 15 is_stmt 0                @ ../../../ThirdParty/mbedTLS/library/ripemd160.c:0:15
	ldr	r7, [sp, #8]                    @ 4-byte Reload
.Ltmp1183:
	@DEBUG_VALUE: mbedtls_ripemd160_update_ret:input <- $r5
	@DEBUG_VALUE: mbedtls_ripemd160_update_ret:ilen <- $r4
	@DEBUG_VALUE: mbedtls_ripemd160_update_ret:left <- $r7
	.loc	1 346 5 is_stmt 1               @ ../../../ThirdParty/mbedTLS/library/ripemd160.c:346:5
	cmp	r4, #64
	bhs	.LBB7_7
	b	.LBB7_8
.Ltmp1184:
.Lfunc_end7:
	.size	mbedtls_ripemd160_update_ret, .Lfunc_end7-mbedtls_ripemd160_update_ret
	.cfi_endproc
	.cantunwind
	.fnend
                                        @ -- End function
	.section	.text.mbedtls_ripemd160_update,"ax",%progbits
	.hidden	mbedtls_ripemd160_update        @ -- Begin function mbedtls_ripemd160_update
	.globl	mbedtls_ripemd160_update
	.p2align	1
	.type	mbedtls_ripemd160_update,%function
	.code	16                              @ @mbedtls_ripemd160_update
	.thumb_func
mbedtls_ripemd160_update:
.Lfunc_begin8:
	.loc	1 367 0                         @ ../../../ThirdParty/mbedTLS/library/ripemd160.c:367:0
	.fnstart
	.cfi_startproc
@ %bb.0:
	@DEBUG_VALUE: mbedtls_ripemd160_update:ctx <- $r0
	@DEBUG_VALUE: mbedtls_ripemd160_update:ctx <- $r0
	@DEBUG_VALUE: mbedtls_ripemd160_update:input <- $r1
	@DEBUG_VALUE: mbedtls_ripemd160_update:input <- $r1
	@DEBUG_VALUE: mbedtls_ripemd160_update:ilen <- $r2
	@DEBUG_VALUE: mbedtls_ripemd160_update:ilen <- $r2
	@DEBUG_VALUE: mbedtls_ripemd160_update:ilen <- $r2
	@DEBUG_VALUE: mbedtls_ripemd160_update:input <- $r1
	@DEBUG_VALUE: mbedtls_ripemd160_update:ctx <- $r0
	.save	{r7, lr}
	push	{r7, lr}
	.cfi_def_cfa_offset 8
	.cfi_offset lr, -4
	.cfi_offset r7, -8
.Ltmp1185:
	.loc	1 368 5 prologue_end            @ ../../../ThirdParty/mbedTLS/library/ripemd160.c:368:5
	bl	mbedtls_ripemd160_update_ret
.Ltmp1186:
	@DEBUG_VALUE: mbedtls_ripemd160_update:ilen <- [DW_OP_LLVM_entry_value 1] $r2
	@DEBUG_VALUE: mbedtls_ripemd160_update:input <- [DW_OP_LLVM_entry_value 1] $r1
	@DEBUG_VALUE: mbedtls_ripemd160_update:ctx <- [DW_OP_LLVM_entry_value 1] $r0
	.loc	1 369 1                         @ ../../../ThirdParty/mbedTLS/library/ripemd160.c:369:1
	pop	{r7, pc}
.Ltmp1187:
.Lfunc_end8:
	.size	mbedtls_ripemd160_update, .Lfunc_end8-mbedtls_ripemd160_update
	.cfi_endproc
	.cantunwind
	.fnend
                                        @ -- End function
	.section	.text.mbedtls_ripemd160_finish_ret,"ax",%progbits
	.hidden	mbedtls_ripemd160_finish_ret    @ -- Begin function mbedtls_ripemd160_finish_ret
	.globl	mbedtls_ripemd160_finish_ret
	.p2align	2
	.type	mbedtls_ripemd160_finish_ret,%function
	.code	16                              @ @mbedtls_ripemd160_finish_ret
	.thumb_func
mbedtls_ripemd160_finish_ret:
.Lfunc_begin9:
	.loc	1 385 0                         @ ../../../ThirdParty/mbedTLS/library/ripemd160.c:385:0
	.fnstart
	.cfi_startproc
@ %bb.0:
	@DEBUG_VALUE: mbedtls_ripemd160_finish_ret:ctx <- $r0
	@DEBUG_VALUE: mbedtls_ripemd160_finish_ret:output <- $r1
	.save	{r4, r5, r6, lr}
	push	{r4, r5, r6, lr}
	.cfi_def_cfa_offset 16
	.cfi_offset lr, -4
	.cfi_offset r6, -8
	.cfi_offset r5, -12
	.cfi_offset r4, -16
	.pad	#8
	sub	sp, #8
	.cfi_def_cfa_offset 24
	mov	r4, r1
	mov	r5, r0
.Ltmp1188:
	@DEBUG_VALUE: mbedtls_ripemd160_finish_ret:output <- $r4
	@DEBUG_VALUE: mbedtls_ripemd160_finish_ret:ctx <- $r5
	.loc	1 392 16 prologue_end           @ ../../../ThirdParty/mbedTLS/library/ripemd160.c:392:16
	ldr	r0, [r0, #4]
.Ltmp1189:
	.loc	1 396 5                         @ ../../../ThirdParty/mbedTLS/library/ripemd160.c:396:5
	lsrs	r1, r0, #21
	mov	r6, sp
	strb	r1, [r6, #7]
	lsrs	r1, r0, #13
	strb	r1, [r6, #6]
	lsrs	r1, r0, #5
	strb	r1, [r6, #5]
.Ltmp1190:
	.loc	1 391 14                        @ ../../../ThirdParty/mbedTLS/library/ripemd160.c:391:14
	ldr	r1, [r5]
.Ltmp1191:
	.loc	1 395 5                         @ ../../../ThirdParty/mbedTLS/library/ripemd160.c:395:5
	lsrs	r2, r1, #21
	strb	r2, [r6, #3]
	lsrs	r2, r1, #13
	strb	r2, [r6, #2]
	lsrs	r2, r1, #5
	strb	r2, [r6, #1]
.Ltmp1192:
	@DEBUG_VALUE: mbedtls_ripemd160_finish_ret:low <- [DW_OP_constu 3, DW_OP_shl, DW_OP_stack_value] $r1
	@DEBUG_VALUE: mbedtls_ripemd160_finish_ret:high <- undef
	lsls	r2, r1, #3
	strb	r2, [r6]
.Ltmp1193:
	.loc	1 391 28                        @ ../../../ThirdParty/mbedTLS/library/ripemd160.c:391:28
	lsrs	r2, r1, #29
	.loc	1 392 30                        @ ../../../ThirdParty/mbedTLS/library/ripemd160.c:392:30
	lsls	r0, r0, #3
	.loc	1 392 12 is_stmt 0              @ ../../../ThirdParty/mbedTLS/library/ripemd160.c:392:12
	adds	r0, r0, r2
.Ltmp1194:
	.loc	1 396 5 is_stmt 1               @ ../../../ThirdParty/mbedTLS/library/ripemd160.c:396:5
	strb	r0, [r6, #4]
	movs	r0, #63
.Ltmp1195:
	.loc	1 398 26                        @ ../../../ThirdParty/mbedTLS/library/ripemd160.c:398:26
	ands	r0, r1
.Ltmp1196:
	@DEBUG_VALUE: mbedtls_ripemd160_finish_ret:last <- $r0
	.loc	1 399 12                        @ ../../../ThirdParty/mbedTLS/library/ripemd160.c:399:12
	cmp	r0, #56
	blo	.LBB9_2
.Ltmp1197:
@ %bb.1:
	@DEBUG_VALUE: mbedtls_ripemd160_finish_ret:ctx <- $r5
	@DEBUG_VALUE: mbedtls_ripemd160_finish_ret:output <- $r4
	@DEBUG_VALUE: mbedtls_ripemd160_finish_ret:low <- [DW_OP_constu 3, DW_OP_shl, DW_OP_stack_value] $r1
	@DEBUG_VALUE: mbedtls_ripemd160_finish_ret:last <- $r0
	.loc	1 0 12 is_stmt 0                @ ../../../ThirdParty/mbedTLS/library/ripemd160.c:0:12
	movs	r1, #120
.Ltmp1198:
	b	.LBB9_3
.Ltmp1199:
.LBB9_2:
	@DEBUG_VALUE: mbedtls_ripemd160_finish_ret:ctx <- $r5
	@DEBUG_VALUE: mbedtls_ripemd160_finish_ret:output <- $r4
	@DEBUG_VALUE: mbedtls_ripemd160_finish_ret:low <- [DW_OP_constu 3, DW_OP_shl, DW_OP_stack_value] $r1
	@DEBUG_VALUE: mbedtls_ripemd160_finish_ret:last <- $r0
	movs	r1, #56
.Ltmp1200:
.LBB9_3:
	@DEBUG_VALUE: mbedtls_ripemd160_finish_ret:ctx <- $r5
	@DEBUG_VALUE: mbedtls_ripemd160_finish_ret:output <- $r4
	@DEBUG_VALUE: mbedtls_ripemd160_finish_ret:last <- $r0
	.loc	1 399 12                        @ ../../../ThirdParty/mbedTLS/library/ripemd160.c:399:12
	subs	r2, r1, r0
.Ltmp1201:
	@DEBUG_VALUE: mbedtls_ripemd160_finish_ret:padn <- $r2
	.loc	1 401 11 is_stmt 1              @ ../../../ThirdParty/mbedTLS/library/ripemd160.c:401:11
	ldr	r1, __arm_cp.9_0
	mov	r0, r5
.Ltmp1202:
	bl	mbedtls_ripemd160_update_ret
.Ltmp1203:
	@DEBUG_VALUE: mbedtls_ripemd160_finish_ret:ret <- 0
	.loc	1 0 11 is_stmt 0                @ ../../../ThirdParty/mbedTLS/library/ripemd160.c:0:11
	movs	r2, #8
	.loc	1 405 11 is_stmt 1              @ ../../../ThirdParty/mbedTLS/library/ripemd160.c:405:11
	mov	r0, r5
	mov	r1, r6
	bl	mbedtls_ripemd160_update_ret
.Ltmp1204:
	.loc	1 409 5                         @ ../../../ThirdParty/mbedTLS/library/ripemd160.c:409:5
	ldr	r0, [r5, #8]
	strb	r0, [r4]
	ldr	r0, [r5, #8]
	lsrs	r0, r0, #8
	strb	r0, [r4, #1]
	ldrh	r0, [r5, #10]
	strb	r0, [r4, #2]
	ldrb	r0, [r5, #11]
	strb	r0, [r4, #3]
.Ltmp1205:
	.loc	1 410 5                         @ ../../../ThirdParty/mbedTLS/library/ripemd160.c:410:5
	ldr	r0, [r5, #12]
	strb	r0, [r4, #4]
	ldr	r0, [r5, #12]
	lsrs	r0, r0, #8
	strb	r0, [r4, #5]
	ldrh	r0, [r5, #14]
	strb	r0, [r4, #6]
	ldrb	r0, [r5, #15]
	strb	r0, [r4, #7]
.Ltmp1206:
	.loc	1 411 5                         @ ../../../ThirdParty/mbedTLS/library/ripemd160.c:411:5
	ldr	r0, [r5, #16]
	strb	r0, [r4, #8]
	ldr	r0, [r5, #16]
	lsrs	r0, r0, #8
	strb	r0, [r4, #9]
	ldrh	r0, [r5, #18]
	strb	r0, [r4, #10]
	ldrb	r0, [r5, #19]
	strb	r0, [r4, #11]
.Ltmp1207:
	.loc	1 412 5                         @ ../../../ThirdParty/mbedTLS/library/ripemd160.c:412:5
	ldr	r0, [r5, #20]
	strb	r0, [r4, #12]
	ldr	r0, [r5, #20]
	lsrs	r0, r0, #8
	strb	r0, [r4, #13]
	ldrh	r0, [r5, #22]
	strb	r0, [r4, #14]
	ldrb	r0, [r5, #23]
	strb	r0, [r4, #15]
.Ltmp1208:
	.loc	1 413 5                         @ ../../../ThirdParty/mbedTLS/library/ripemd160.c:413:5
	ldr	r0, [r5, #24]
	strb	r0, [r4, #16]
	ldr	r0, [r5, #24]
	lsrs	r0, r0, #8
	strb	r0, [r4, #17]
	ldrh	r0, [r5, #26]
	strb	r0, [r4, #18]
	ldrb	r0, [r5, #27]
	strb	r0, [r4, #19]
	movs	r0, #0
.Ltmp1209:
	.loc	1 416 1                         @ ../../../ThirdParty/mbedTLS/library/ripemd160.c:416:1
	add	sp, #8
	pop	{r4, r5, r6, pc}
.Ltmp1210:
	.p2align	2
@ %bb.4:
	.loc	1 0 1 is_stmt 0                 @ ../../../ThirdParty/mbedTLS/library/ripemd160.c:0:1
__arm_cp.9_0:
	.long	ripemd160_padding
.Lcpi_end13:
	.size	__arm_cp.9_0, .Lcpi_end13-__arm_cp.9_0
.Lfunc_end9:
	.size	mbedtls_ripemd160_finish_ret, .Lfunc_end9-mbedtls_ripemd160_finish_ret
	.cfi_endproc
	.cantunwind
	.fnend
                                        @ -- End function
	.section	.text.mbedtls_ripemd160_finish,"ax",%progbits
	.hidden	mbedtls_ripemd160_finish        @ -- Begin function mbedtls_ripemd160_finish
	.globl	mbedtls_ripemd160_finish
	.p2align	1
	.type	mbedtls_ripemd160_finish,%function
	.code	16                              @ @mbedtls_ripemd160_finish
	.thumb_func
mbedtls_ripemd160_finish:
.Lfunc_begin10:
	.loc	1 421 0 is_stmt 1               @ ../../../ThirdParty/mbedTLS/library/ripemd160.c:421:0
	.fnstart
	.cfi_startproc
@ %bb.0:
	@DEBUG_VALUE: mbedtls_ripemd160_finish:ctx <- $r0
	@DEBUG_VALUE: mbedtls_ripemd160_finish:ctx <- $r0
	@DEBUG_VALUE: mbedtls_ripemd160_finish:output <- $r1
	@DEBUG_VALUE: mbedtls_ripemd160_finish:output <- $r1
	@DEBUG_VALUE: mbedtls_ripemd160_finish:output <- $r1
	@DEBUG_VALUE: mbedtls_ripemd160_finish:ctx <- $r0
	.save	{r7, lr}
	push	{r7, lr}
	.cfi_def_cfa_offset 8
	.cfi_offset lr, -4
	.cfi_offset r7, -8
.Ltmp1211:
	.loc	1 422 5 prologue_end            @ ../../../ThirdParty/mbedTLS/library/ripemd160.c:422:5
	bl	mbedtls_ripemd160_finish_ret
.Ltmp1212:
	@DEBUG_VALUE: mbedtls_ripemd160_finish:output <- [DW_OP_LLVM_entry_value 1] $r1
	@DEBUG_VALUE: mbedtls_ripemd160_finish:ctx <- [DW_OP_LLVM_entry_value 1] $r0
	.loc	1 423 1                         @ ../../../ThirdParty/mbedTLS/library/ripemd160.c:423:1
	pop	{r7, pc}
.Ltmp1213:
.Lfunc_end10:
	.size	mbedtls_ripemd160_finish, .Lfunc_end10-mbedtls_ripemd160_finish
	.cfi_endproc
	.cantunwind
	.fnend
                                        @ -- End function
	.section	.text.mbedtls_ripemd160_ret,"ax",%progbits
	.hidden	mbedtls_ripemd160_ret           @ -- Begin function mbedtls_ripemd160_ret
	.globl	mbedtls_ripemd160_ret
	.p2align	1
	.type	mbedtls_ripemd160_ret,%function
	.code	16                              @ @mbedtls_ripemd160_ret
	.thumb_func
mbedtls_ripemd160_ret:
.Lfunc_begin11:
	.loc	1 434 0                         @ ../../../ThirdParty/mbedTLS/library/ripemd160.c:434:0
	.fnstart
	.cfi_startproc
@ %bb.0:
	@DEBUG_VALUE: mbedtls_ripemd160_ret:input <- $r0
	@DEBUG_VALUE: mbedtls_ripemd160_ret:ilen <- $r1
	@DEBUG_VALUE: mbedtls_ripemd160_ret:output <- $r2
	.save	{r4, r5, r6, r7, lr}
	push	{r4, r5, r6, r7, lr}
	.cfi_def_cfa_offset 20
	.cfi_offset lr, -4
	.cfi_offset r7, -8
	.cfi_offset r6, -12
	.cfi_offset r5, -16
	.cfi_offset r4, -20
	.pad	#92
	sub	sp, #92
	.cfi_def_cfa_offset 112
	mov	r4, r2
	mov	r6, r1
	mov	r7, r0
.Ltmp1214:
	@DEBUG_VALUE: mbedtls_ripemd160_ret:output <- $r4
	@DEBUG_VALUE: mbedtls_ripemd160_ret:ilen <- $r6
	@DEBUG_VALUE: mbedtls_ripemd160_ret:input <- $r7
	mov	r5, sp
.Ltmp1215:
	.loc	1 438 5 prologue_end            @ ../../../ThirdParty/mbedTLS/library/ripemd160.c:438:5
	mov	r0, r5
	bl	mbedtls_ripemd160_init
.Ltmp1216:
	.loc	1 440 17                        @ ../../../ThirdParty/mbedTLS/library/ripemd160.c:440:17
	mov	r0, r5
	bl	mbedtls_ripemd160_starts_ret
.Ltmp1217:
	@DEBUG_VALUE: mbedtls_ripemd160_ret:ret <- 0
	.loc	1 443 17                        @ ../../../ThirdParty/mbedTLS/library/ripemd160.c:443:17
	mov	r0, r5
	mov	r1, r7
.Ltmp1218:
	@DEBUG_VALUE: mbedtls_ripemd160_ret:input <- $r1
	mov	r2, r6
.Ltmp1219:
	@DEBUG_VALUE: mbedtls_ripemd160_ret:ilen <- $r2
	bl	mbedtls_ripemd160_update_ret
.Ltmp1220:
	.loc	1 446 17                        @ ../../../ThirdParty/mbedTLS/library/ripemd160.c:446:17
	mov	r0, r5
	mov	r1, r4
.Ltmp1221:
	@DEBUG_VALUE: mbedtls_ripemd160_ret:output <- $r1
	bl	mbedtls_ripemd160_finish_ret
.Ltmp1222:
	@DEBUG_LABEL: mbedtls_ripemd160_ret:exit
	.loc	1 450 5                         @ ../../../ThirdParty/mbedTLS/library/ripemd160.c:450:5
	mov	r0, r5
	bl	mbedtls_ripemd160_free
	movs	r0, #0
	.loc	1 452 5                         @ ../../../ThirdParty/mbedTLS/library/ripemd160.c:452:5
	add	sp, #92
	pop	{r4, r5, r6, r7, pc}
.Ltmp1223:
.Lfunc_end11:
	.size	mbedtls_ripemd160_ret, .Lfunc_end11-mbedtls_ripemd160_ret
	.cfi_endproc
	.cantunwind
	.fnend
                                        @ -- End function
	.section	.text.mbedtls_ripemd160,"ax",%progbits
	.hidden	mbedtls_ripemd160               @ -- Begin function mbedtls_ripemd160
	.globl	mbedtls_ripemd160
	.p2align	1
	.type	mbedtls_ripemd160,%function
	.code	16                              @ @mbedtls_ripemd160
	.thumb_func
mbedtls_ripemd160:
.Lfunc_begin12:
	.loc	1 459 0                         @ ../../../ThirdParty/mbedTLS/library/ripemd160.c:459:0
	.fnstart
	.cfi_startproc
@ %bb.0:
	@DEBUG_VALUE: mbedtls_ripemd160:input <- $r0
	@DEBUG_VALUE: mbedtls_ripemd160:input <- $r0
	@DEBUG_VALUE: mbedtls_ripemd160:ilen <- $r1
	@DEBUG_VALUE: mbedtls_ripemd160:ilen <- $r1
	@DEBUG_VALUE: mbedtls_ripemd160:output <- $r2
	@DEBUG_VALUE: mbedtls_ripemd160:output <- $r2
	@DEBUG_VALUE: mbedtls_ripemd160:output <- $r2
	@DEBUG_VALUE: mbedtls_ripemd160:ilen <- $r1
	@DEBUG_VALUE: mbedtls_ripemd160:input <- $r0
	.save	{r7, lr}
	push	{r7, lr}
	.cfi_def_cfa_offset 8
	.cfi_offset lr, -4
	.cfi_offset r7, -8
.Ltmp1224:
	.loc	1 460 5 prologue_end            @ ../../../ThirdParty/mbedTLS/library/ripemd160.c:460:5
	bl	mbedtls_ripemd160_ret
.Ltmp1225:
	@DEBUG_VALUE: mbedtls_ripemd160:output <- [DW_OP_LLVM_entry_value 1] $r2
	@DEBUG_VALUE: mbedtls_ripemd160:ilen <- [DW_OP_LLVM_entry_value 1] $r1
	@DEBUG_VALUE: mbedtls_ripemd160:input <- [DW_OP_LLVM_entry_value 1] $r0
	.loc	1 461 1                         @ ../../../ThirdParty/mbedTLS/library/ripemd160.c:461:1
	pop	{r7, pc}
.Ltmp1226:
.Lfunc_end12:
	.size	mbedtls_ripemd160, .Lfunc_end12-mbedtls_ripemd160
	.cfi_endproc
	.cantunwind
	.fnend
                                        @ -- End function
	.section	.text.mbedtls_ripemd160_self_test,"ax",%progbits
	.hidden	mbedtls_ripemd160_self_test     @ -- Begin function mbedtls_ripemd160_self_test
	.globl	mbedtls_ripemd160_self_test
	.p2align	2
	.type	mbedtls_ripemd160_self_test,%function
	.code	16                              @ @mbedtls_ripemd160_self_test
	.thumb_func
mbedtls_ripemd160_self_test:
.Lfunc_begin13:
	.loc	1 521 0                         @ ../../../ThirdParty/mbedTLS/library/ripemd160.c:521:0
	.fnstart
	.cfi_startproc
@ %bb.0:
	@DEBUG_VALUE: mbedtls_ripemd160_self_test:verbose <- $r0
	.save	{r4, r5, r6, r7, lr}
	push	{r4, r5, r6, r7, lr}
	.cfi_def_cfa_offset 20
	.cfi_offset lr, -4
	.cfi_offset r7, -8
	.cfi_offset r6, -12
	.cfi_offset r5, -16
	.cfi_offset r4, -20
	.pad	#36
	sub	sp, #36
	.cfi_def_cfa_offset 56
	mov	r5, r0
	movs	r0, #0
.Ltmp1227:
	@DEBUG_VALUE: mbedtls_ripemd160_self_test:verbose <- [DW_OP_LLVM_entry_value 1] $r0
	@DEBUG_VALUE: mbedtls_ripemd160_self_test:ret <- 0
	@DEBUG_VALUE: mbedtls_ripemd160_self_test:verbose <- $r5
	.loc	1 525 5 prologue_end            @ ../../../ThirdParty/mbedTLS/library/ripemd160.c:525:5
	str	r0, [sp, #32]
	str	r0, [sp, #28]
	str	r0, [sp, #24]
	str	r0, [sp, #20]
	str	r0, [sp, #4]                    @ 4-byte Spill
	str	r0, [sp, #16]
	movs	r6, #1
	adr	r0, .LCPI13_0
	str	r0, [sp, #12]                   @ 4-byte Spill
	ldr	r7, __arm_cp.13_1
	ldr	r4, __arm_cp.13_2
.Ltmp1228:
	@DEBUG_VALUE: mbedtls_ripemd160_self_test:i <- 0
	.loc	1 0 5 is_stmt 0                 @ ../../../ThirdParty/mbedTLS/library/ripemd160.c:0:5
	str	r5, [sp, #8]                    @ 4-byte Spill
	b	.LBB13_2
.Ltmp1229:
.LBB13_1:                               @   in Loop: Header=BB13_2 Depth=1
	@DEBUG_VALUE: mbedtls_ripemd160_self_test:ret <- 0
	@DEBUG_VALUE: mbedtls_ripemd160_self_test:i <- [DW_OP_plus_uconst 1, DW_OP_stack_value] undef
	.loc	1 527 19 is_stmt 1              @ ../../../ThirdParty/mbedTLS/library/ripemd160.c:527:19
	adds	r4, #20
	adds	r7, #81
	ldr	r0, [sp, #12]                   @ 4-byte Reload
	adds	r0, r0, #4
	str	r0, [sp, #12]                   @ 4-byte Spill
	adds	r6, r6, #1
.Ltmp1230:
	.loc	1 527 5 is_stmt 0               @ ../../../ThirdParty/mbedTLS/library/ripemd160.c:527:5
	cmp	r6, #9
	beq	.LBB13_9
.Ltmp1231:
.LBB13_2:                               @ =>This Inner Loop Header: Depth=1
	@DEBUG_VALUE: mbedtls_ripemd160_self_test:ret <- 0
	@DEBUG_VALUE: mbedtls_ripemd160_self_test:i <- undef
	.loc	1 529 13 is_stmt 1              @ ../../../ThirdParty/mbedTLS/library/ripemd160.c:529:13
	cbz	r5, .LBB13_4
.Ltmp1232:
@ %bb.3:                                @   in Loop: Header=BB13_2 Depth=1
	@DEBUG_VALUE: mbedtls_ripemd160_self_test:ret <- 0
	.loc	1 530 13                        @ ../../../ThirdParty/mbedTLS/library/ripemd160.c:530:13
	adr	r0, .LCPI13_3
	mov	r1, r6
	bl	__2printf
.Ltmp1233:
.LBB13_4:                               @   in Loop: Header=BB13_2 Depth=1
	@DEBUG_VALUE: mbedtls_ripemd160_self_test:ret <- 0
	.loc	1 533 38                        @ ../../../ThirdParty/mbedTLS/library/ripemd160.c:533:38
	ldr	r0, [sp, #12]                   @ 4-byte Reload
	ldr	r1, [r0]
	add	r5, sp, #16
	.loc	1 532 15                        @ ../../../ThirdParty/mbedTLS/library/ripemd160.c:532:15
	mov	r0, r7
	mov	r2, r5
	bl	mbedtls_ripemd160_ret
	@DEBUG_VALUE: mbedtls_ripemd160_self_test:ret <- 0
	movs	r2, #20
.Ltmp1234:
	.loc	1 537 13                        @ ../../../ThirdParty/mbedTLS/library/ripemd160.c:537:13
	mov	r0, r5
	mov	r1, r4
	bl	memcmp
.Ltmp1235:
	.loc	1 537 13 is_stmt 0              @ ../../../ThirdParty/mbedTLS/library/ripemd160.c:537:13
	cbnz	r0, .LBB13_7
.Ltmp1236:
@ %bb.5:                                @   in Loop: Header=BB13_2 Depth=1
	@DEBUG_VALUE: mbedtls_ripemd160_self_test:ret <- 0
	.loc	1 0 13                          @ ../../../ThirdParty/mbedTLS/library/ripemd160.c:0:13
	ldr	r5, [sp, #8]                    @ 4-byte Reload
	.loc	1 543 13 is_stmt 1              @ ../../../ThirdParty/mbedTLS/library/ripemd160.c:543:13
	cmp	r5, #0
	beq	.LBB13_1
.Ltmp1237:
@ %bb.6:                                @   in Loop: Header=BB13_2 Depth=1
	@DEBUG_VALUE: mbedtls_ripemd160_self_test:ret <- 0
	.loc	1 544 13                        @ ../../../ThirdParty/mbedTLS/library/ripemd160.c:544:13
	adr	r0, .LCPI13_5
	bl	puts
	b	.LBB13_1
.Ltmp1238:
.LBB13_7:
	@DEBUG_VALUE: mbedtls_ripemd160_self_test:ret <- 0
	@DEBUG_VALUE: mbedtls_ripemd160_self_test:ret <- 1
	@DEBUG_LABEL: mbedtls_ripemd160_self_test:fail
	.loc	1 0 13 is_stmt 0                @ ../../../ThirdParty/mbedTLS/library/ripemd160.c:0:13
	movs	r4, #1
	.loc	1 553 9 is_stmt 1               @ ../../../ThirdParty/mbedTLS/library/ripemd160.c:553:9
	ldr	r0, [sp, #8]                    @ 4-byte Reload
	cbz	r0, .LBB13_12
.Ltmp1239:
@ %bb.8:
	@DEBUG_VALUE: mbedtls_ripemd160_self_test:ret <- 1
	.loc	1 554 9                         @ ../../../ThirdParty/mbedTLS/library/ripemd160.c:554:9
	adr	r0, .LCPI13_4
	bl	puts
	b	.LBB13_12
.Ltmp1240:
.LBB13_9:
	@DEBUG_VALUE: mbedtls_ripemd160_self_test:ret <- 0
	.loc	1 547 9                         @ ../../../ThirdParty/mbedTLS/library/ripemd160.c:547:9
	cbz	r5, .LBB13_11
.Ltmp1241:
@ %bb.10:
	@DEBUG_VALUE: mbedtls_ripemd160_self_test:ret <- 0
	.loc	1 0 9 is_stmt 0                 @ ../../../ThirdParty/mbedTLS/library/ripemd160.c:0:9
	movs	r0, #10
.Ltmp1242:
	.loc	1 548 9 is_stmt 1               @ ../../../ThirdParty/mbedTLS/library/ripemd160.c:548:9
	bl	putchar
	ldr	r4, [sp, #4]                    @ 4-byte Reload
	b	.LBB13_12
.Ltmp1243:
.LBB13_11:
	@DEBUG_VALUE: mbedtls_ripemd160_self_test:ret <- 0
	.loc	1 0 9 is_stmt 0                 @ ../../../ThirdParty/mbedTLS/library/ripemd160.c:0:9
	ldr	r4, [sp, #4]                    @ 4-byte Reload
.Ltmp1244:
.LBB13_12:
	.loc	1 557 1 is_stmt 1               @ ../../../ThirdParty/mbedTLS/library/ripemd160.c:557:1
	mov	r0, r4
	add	sp, #36
	pop	{r4, r5, r6, r7, pc}
.Ltmp1245:
	.p2align	2
@ %bb.13:
	.loc	1 0 1 is_stmt 0                 @ ../../../ThirdParty/mbedTLS/library/ripemd160.c:0:1
.LCPI13_0:
ripemd160_test_strlen:
	.long	0                               @ 0x0
	.long	1                               @ 0x1
	.long	3                               @ 0x3
	.long	14                              @ 0xe
	.long	26                              @ 0x1a
	.long	56                              @ 0x38
	.long	62                              @ 0x3e
	.long	80                              @ 0x50
__arm_cp.13_1:
	.long	ripemd160_test_str
.Lcpi_end14:
	.size	__arm_cp.13_1, .Lcpi_end14-__arm_cp.13_1
__arm_cp.13_2:
	.long	ripemd160_test_md
.Lcpi_end15:
	.size	__arm_cp.13_2, .Lcpi_end15-__arm_cp.13_2
.LCPI13_3:
.L.str:
	.asciz	"  RIPEMD-160 test #%d: "
.LCPI13_4:
.Lstr.5:
	.asciz	"failed\000"
.LCPI13_5:
.Lstr:
	.asciz	"passed\000"
.Lfunc_end13:
	.size	mbedtls_ripemd160_self_test, .Lfunc_end13-mbedtls_ripemd160_self_test
	.cfi_endproc
	.cantunwind
	.fnend
                                        @ -- End function
	.type	ripemd160_test_str,%object      @ @ripemd160_test_str
	.section	.rodata.ripemd160_test_str,"a",%progbits
ripemd160_test_str:
	.zero	81
	.asciz	"a\000\000\000\000\000\000\000\000\000\000\000\000\000\000\000\000\000\000\000\000\000\000\000\000\000\000\000\000\000\000\000\000\000\000\000\000\000\000\000\000\000\000\000\000\000\000\000\000\000\000\000\000\000\000\000\000\000\000\000\000\000\000\000\000\000\000\000\000\000\000\000\000\000\000\000\000\000\000\000"
	.asciz	"abc\000\000\000\000\000\000\000\000\000\000\000\000\000\000\000\000\000\000\000\000\000\000\000\000\000\000\000\000\000\000\000\000\000\000\000\000\000\000\000\000\000\000\000\000\000\000\000\000\000\000\000\000\000\000\000\000\000\000\000\000\000\000\000\000\000\000\000\000\000\000\000\000\000\000\000\000\000"
	.asciz	"message digest\000\000\000\000\000\000\000\000\000\000\000\000\000\000\000\000\000\000\000\000\000\000\000\000\000\000\000\000\000\000\000\000\000\000\000\000\000\000\000\000\000\000\000\000\000\000\000\000\000\000\000\000\000\000\000\000\000\000\000\000\000\000\000\000\000\000"
	.asciz	"abcdefghijklmnopqrstuvwxyz\000\000\000\000\000\000\000\000\000\000\000\000\000\000\000\000\000\000\000\000\000\000\000\000\000\000\000\000\000\000\000\000\000\000\000\000\000\000\000\000\000\000\000\000\000\000\000\000\000\000\000\000\000\000"
	.asciz	"abcdbcdecdefdefgefghfghighijhijkijkljklmklmnlmnomnopnopq\000\000\000\000\000\000\000\000\000\000\000\000\000\000\000\000\000\000\000\000\000\000\000\000"
	.asciz	"ABCDEFGHIJKLMNOPQRSTUVWXYZabcdefghijklmnopqrstuvwxyz0123456789\000\000\000\000\000\000\000\000\000\000\000\000\000\000\000\000\000\000"
	.asciz	"12345678901234567890123456789012345678901234567890123456789012345678901234567890"
	.size	ripemd160_test_str, 648

	.type	ripemd160_test_md,%object       @ @ripemd160_test_md
	.section	.rodata.ripemd160_test_md,"a",%progbits
ripemd160_test_md:
	.ascii	"\234\021\205\245\305\351\374Ta(\b\227~\350\365H\262%\2151"
	.ascii	"\013\334\235-%k>\351\332\2564{\346\364\334\203ZF\177\376"
	.ascii	"\216\262\b\367\340]\230z\233\004J\216\230\306\260\207\361Z\013\374"
	.ascii	"]\006\211\357I\322\372\345r\270\201\261#\250_\372!Y_6"
	.ascii	"\367\034'\020\234i,\033V\273\334\353[\235(e\263p\215\274"
	.ascii	"\022\240S8J\234\f\210\344\005\240l'\334\364\232\332b\353+"
	.ascii	"\260\342\013n1\026d\002\206\355:\207\245q0y\262\037Q\211"
	.ascii	"\233u.EW=K9\364\333\3232<\253\202\277c2k\373"
	.size	ripemd160_test_md, 160

	.type	ripemd160_padding,%object       @ @ripemd160_padding
	.section	.rodata.ripemd160_padding,"a",%progbits
ripemd160_padding:
	.byte	128                             @ 0x80
	.zero	63
	.size	ripemd160_padding, 64

	.globl	_printf_percent
	.globl	_printf_d
	.globl	_printf_int_dec
	.hidden	_printf_percent
	.hidden	_printf_d
	.hidden	_printf_int_dec
	.file	4 "C:\\Users\\shw26\\OneDrive\\Desktop\\2021\\2021-1\\\354\272\241\354\212\244\355\206\244\353\224\224\354\236\220\354\235\2702\\Nuvoton\\M2351_BSP_v3.00.004\\M2351Series_BSP_CMSIS_V3.00.004\\MyProject\\PulseMonitoring\\Secure" "../../../ThirdParty/mbedTLS/include/mbedtls\\ripemd160.h"