	.text
	.syntax unified
	.eabi_attribute	67, "2.09"	@ Tag_conformance
	.cpu	cortex-m23
	.eabi_attribute	6, 16	@ Tag_CPU_arch
	.eabi_attribute	7, 77	@ Tag_CPU_arch_profile
	.eabi_attribute	8, 0	@ Tag_ARM_ISA_use
	.eabi_attribute	9, 3	@ Tag_THUMB_ISA_use
	.eabi_attribute	34, 0	@ Tag_CPU_unaligned_access
	.eabi_attribute	17, 1	@ Tag_ABI_PCS_GOT_use
	.eabi_attribute	20, 2	@ Tag_ABI_FP_denormal
	.eabi_attribute	21, 0	@ Tag_ABI_FP_exceptions
	.eabi_attribute	23, 1	@ Tag_ABI_FP_number_model
	.eabi_attribute	24, 1	@ Tag_ABI_align_needed
	.eabi_attribute	25, 1	@ Tag_ABI_align_preserved
	.eabi_attribute	38, 1	@ Tag_ABI_FP_16bit_format
	.eabi_attribute	18, 2	@ Tag_ABI_PCS_wchar_t
	.eabi_attribute	26, 1	@ Tag_ABI_enum_size
	.eabi_attribute	14, 0	@ Tag_ABI_PCS_R9_use
	.file	"rsa.c"
	.file	1 "C:\\Users\\shw26\\OneDrive\\Desktop\\2021\\2021-1\\\354\272\241\354\212\244\355\206\244\353\224\224\354\236\220\354\235\2702\\Nuvoton\\M2351_BSP_v3.00.004\\M2351Series_BSP_CMSIS_V3.00.004\\MyProject\\PulseMonitoring\\Secure" "../../../ThirdParty/mbedTLS/include/mbedtls/bignum.h"
	.file	2 "C:\\Users\\shw26\\OneDrive\\Desktop\\2021\\2021-1\\\354\272\241\354\212\244\355\206\244\353\224\224\354\236\220\354\235\2702\\Nuvoton\\M2351_BSP_v3.00.004\\M2351Series_BSP_CMSIS_V3.00.004\\MyProject\\PulseMonitoring\\Secure" "../../../ThirdParty/mbedTLS/include/mbedtls\\md.h"
	.file	3 "C:\\" "Keil_v5\\ARM\\ARMCLANG\\Bin\\..\\include\\stddef.h"
	.section	.text.mbedtls_rsa_import,"ax",%progbits
	.hidden	mbedtls_rsa_import              @ -- Begin function mbedtls_rsa_import
	.globl	mbedtls_rsa_import
	.p2align	1
	.type	mbedtls_rsa_import,%function
	.code	16                              @ @mbedtls_rsa_import
	.thumb_func
mbedtls_rsa_import:
.Lfunc_begin0:
	.file	4 "C:\\Users\\shw26\\OneDrive\\Desktop\\2021\\2021-1\\\354\272\241\354\212\244\355\206\244\353\224\224\354\236\220\354\235\2702\\Nuvoton\\M2351_BSP_v3.00.004\\M2351Series_BSP_CMSIS_V3.00.004\\MyProject\\PulseMonitoring\\Secure" "../../../ThirdParty/mbedTLS/library/rsa.c"
	.loc	4 100 0                         @ ../../../ThirdParty/mbedTLS/library/rsa.c:100:0
	.fnstart
	.cfi_sections .debug_frame
	.cfi_startproc
@ %bb.0:
	@DEBUG_VALUE: mbedtls_rsa_import:ctx <- $r0
	@DEBUG_VALUE: mbedtls_rsa_import:N <- $r1
	@DEBUG_VALUE: mbedtls_rsa_import:P <- $r2
	@DEBUG_VALUE: mbedtls_rsa_import:Q <- $r3
	.save	{r4, r5, r6, r7, lr}
	push	{r4, r5, r6, r7, lr}
	.cfi_def_cfa_offset 20
	.cfi_offset lr, -4
	.cfi_offset r7, -8
	.cfi_offset r6, -12
	.cfi_offset r5, -16
	.cfi_offset r4, -20
	.pad	#4
	sub	sp, #4
	.cfi_def_cfa_offset 24
	mov	r6, r3
	mov	r7, r2
	mov	r5, r1
	mov	r4, r0
.Ltmp0:
	@DEBUG_VALUE: mbedtls_rsa_import:E <- [DW_OP_plus_uconst 28] [$sp+0]
	@DEBUG_VALUE: mbedtls_rsa_import:D <- [DW_OP_plus_uconst 24] [$sp+0]
	@DEBUG_VALUE: mbedtls_rsa_import:Q <- $r6
	@DEBUG_VALUE: mbedtls_rsa_import:P <- $r7
	@DEBUG_VALUE: mbedtls_rsa_import:N <- $r5
	@DEBUG_VALUE: mbedtls_rsa_import:ctx <- $r4
	.loc	4 104 21 prologue_end           @ ../../../ThirdParty/mbedTLS/library/rsa.c:104:21
	cbz	r1, .LBB0_2
.Ltmp1:
@ %bb.1:
	@DEBUG_VALUE: mbedtls_rsa_import:P <- $r7
	@DEBUG_VALUE: mbedtls_rsa_import:Q <- $r6
	@DEBUG_VALUE: mbedtls_rsa_import:N <- $r5
	@DEBUG_VALUE: mbedtls_rsa_import:ctx <- $r4
	@DEBUG_VALUE: mbedtls_rsa_import:D <- [DW_OP_plus_uconst 24] [$sp+0]
	@DEBUG_VALUE: mbedtls_rsa_import:E <- [DW_OP_plus_uconst 28] [$sp+0]
	.loc	4 104 56 is_stmt 0              @ ../../../ThirdParty/mbedTLS/library/rsa.c:104:56
	mov	r0, r4
	adds	r0, #8
	.loc	4 104 32                        @ ../../../ThirdParty/mbedTLS/library/rsa.c:104:32
	mov	r1, r5
	bl	mbedtls_mpi_copy
.Ltmp2:
	@DEBUG_VALUE: mbedtls_rsa_import:ret <- $r0
	.loc	4 104 72                        @ ../../../ThirdParty/mbedTLS/library/rsa.c:104:72
	cbnz	r0, .LBB0_10
.Ltmp3:
.LBB0_2:
	@DEBUG_VALUE: mbedtls_rsa_import:P <- $r7
	@DEBUG_VALUE: mbedtls_rsa_import:Q <- $r6
	@DEBUG_VALUE: mbedtls_rsa_import:N <- $r5
	@DEBUG_VALUE: mbedtls_rsa_import:ctx <- $r4
	@DEBUG_VALUE: mbedtls_rsa_import:D <- [DW_OP_plus_uconst 24] [$sp+0]
	@DEBUG_VALUE: mbedtls_rsa_import:E <- [DW_OP_plus_uconst 28] [$sp+0]
	.loc	4 105 25 is_stmt 1              @ ../../../ThirdParty/mbedTLS/library/rsa.c:105:25
	cbz	r7, .LBB0_4
.Ltmp4:
@ %bb.3:
	@DEBUG_VALUE: mbedtls_rsa_import:P <- $r7
	@DEBUG_VALUE: mbedtls_rsa_import:Q <- $r6
	@DEBUG_VALUE: mbedtls_rsa_import:N <- $r5
	@DEBUG_VALUE: mbedtls_rsa_import:ctx <- $r4
	@DEBUG_VALUE: mbedtls_rsa_import:D <- [DW_OP_plus_uconst 24] [$sp+0]
	@DEBUG_VALUE: mbedtls_rsa_import:E <- [DW_OP_plus_uconst 28] [$sp+0]
	.loc	4 105 60 is_stmt 0              @ ../../../ThirdParty/mbedTLS/library/rsa.c:105:60
	mov	r0, r4
	adds	r0, #44
	.loc	4 105 36                        @ ../../../ThirdParty/mbedTLS/library/rsa.c:105:36
	mov	r1, r7
	bl	mbedtls_mpi_copy
.Ltmp5:
	@DEBUG_VALUE: mbedtls_rsa_import:ret <- $r0
	.loc	4 105 76                        @ ../../../ThirdParty/mbedTLS/library/rsa.c:105:76
	cbnz	r0, .LBB0_10
.Ltmp6:
.LBB0_4:
	@DEBUG_VALUE: mbedtls_rsa_import:P <- $r7
	@DEBUG_VALUE: mbedtls_rsa_import:Q <- $r6
	@DEBUG_VALUE: mbedtls_rsa_import:N <- $r5
	@DEBUG_VALUE: mbedtls_rsa_import:ctx <- $r4
	@DEBUG_VALUE: mbedtls_rsa_import:D <- [DW_OP_plus_uconst 24] [$sp+0]
	@DEBUG_VALUE: mbedtls_rsa_import:E <- [DW_OP_plus_uconst 28] [$sp+0]
	.loc	4 106 25 is_stmt 1              @ ../../../ThirdParty/mbedTLS/library/rsa.c:106:25
	cbz	r6, .LBB0_6
.Ltmp7:
@ %bb.5:
	@DEBUG_VALUE: mbedtls_rsa_import:P <- $r7
	@DEBUG_VALUE: mbedtls_rsa_import:Q <- $r6
	@DEBUG_VALUE: mbedtls_rsa_import:N <- $r5
	@DEBUG_VALUE: mbedtls_rsa_import:ctx <- $r4
	@DEBUG_VALUE: mbedtls_rsa_import:D <- [DW_OP_plus_uconst 24] [$sp+0]
	@DEBUG_VALUE: mbedtls_rsa_import:E <- [DW_OP_plus_uconst 28] [$sp+0]
	.loc	4 106 60 is_stmt 0              @ ../../../ThirdParty/mbedTLS/library/rsa.c:106:60
	mov	r0, r4
	adds	r0, #56
	.loc	4 106 36                        @ ../../../ThirdParty/mbedTLS/library/rsa.c:106:36
	mov	r1, r6
	bl	mbedtls_mpi_copy
.Ltmp8:
	@DEBUG_VALUE: mbedtls_rsa_import:ret <- $r0
	.loc	4 106 76                        @ ../../../ThirdParty/mbedTLS/library/rsa.c:106:76
	cbnz	r0, .LBB0_10
.Ltmp9:
.LBB0_6:
	@DEBUG_VALUE: mbedtls_rsa_import:P <- $r7
	@DEBUG_VALUE: mbedtls_rsa_import:Q <- $r6
	@DEBUG_VALUE: mbedtls_rsa_import:N <- $r5
	@DEBUG_VALUE: mbedtls_rsa_import:ctx <- $r4
	@DEBUG_VALUE: mbedtls_rsa_import:D <- [DW_OP_plus_uconst 24] [$sp+0]
	@DEBUG_VALUE: mbedtls_rsa_import:E <- [DW_OP_plus_uconst 28] [$sp+0]
	.loc	4 0 76                          @ ../../../ThirdParty/mbedTLS/library/rsa.c:0:76
	ldr	r1, [sp, #24]
	.loc	4 107 25 is_stmt 1              @ ../../../ThirdParty/mbedTLS/library/rsa.c:107:25
	cbz	r1, .LBB0_8
.Ltmp10:
@ %bb.7:
	@DEBUG_VALUE: mbedtls_rsa_import:P <- $r7
	@DEBUG_VALUE: mbedtls_rsa_import:Q <- $r6
	@DEBUG_VALUE: mbedtls_rsa_import:N <- $r5
	@DEBUG_VALUE: mbedtls_rsa_import:ctx <- $r4
	@DEBUG_VALUE: mbedtls_rsa_import:D <- [DW_OP_plus_uconst 24] [$sp+0]
	@DEBUG_VALUE: mbedtls_rsa_import:E <- [DW_OP_plus_uconst 28] [$sp+0]
	.loc	4 107 60 is_stmt 0              @ ../../../ThirdParty/mbedTLS/library/rsa.c:107:60
	mov	r0, r4
	adds	r0, #32
	.loc	4 107 36                        @ ../../../ThirdParty/mbedTLS/library/rsa.c:107:36
	bl	mbedtls_mpi_copy
.Ltmp11:
	@DEBUG_VALUE: mbedtls_rsa_import:ret <- $r0
	.loc	4 107 76                        @ ../../../ThirdParty/mbedTLS/library/rsa.c:107:76
	cbnz	r0, .LBB0_10
.Ltmp12:
.LBB0_8:
	@DEBUG_VALUE: mbedtls_rsa_import:P <- $r7
	@DEBUG_VALUE: mbedtls_rsa_import:Q <- $r6
	@DEBUG_VALUE: mbedtls_rsa_import:N <- $r5
	@DEBUG_VALUE: mbedtls_rsa_import:ctx <- $r4
	@DEBUG_VALUE: mbedtls_rsa_import:D <- [DW_OP_plus_uconst 24] [$sp+0]
	@DEBUG_VALUE: mbedtls_rsa_import:E <- [DW_OP_plus_uconst 28] [$sp+0]
	.loc	4 0 76                          @ ../../../ThirdParty/mbedTLS/library/rsa.c:0:76
	ldr	r1, [sp, #28]
	.loc	4 108 25 is_stmt 1              @ ../../../ThirdParty/mbedTLS/library/rsa.c:108:25
	cbz	r1, .LBB0_12
.Ltmp13:
@ %bb.9:
	@DEBUG_VALUE: mbedtls_rsa_import:P <- $r7
	@DEBUG_VALUE: mbedtls_rsa_import:Q <- $r6
	@DEBUG_VALUE: mbedtls_rsa_import:N <- $r5
	@DEBUG_VALUE: mbedtls_rsa_import:ctx <- $r4
	@DEBUG_VALUE: mbedtls_rsa_import:D <- [DW_OP_plus_uconst 24] [$sp+0]
	@DEBUG_VALUE: mbedtls_rsa_import:E <- [DW_OP_plus_uconst 28] [$sp+0]
	.loc	4 108 60 is_stmt 0              @ ../../../ThirdParty/mbedTLS/library/rsa.c:108:60
	mov	r0, r4
	adds	r0, #20
	.loc	4 108 36                        @ ../../../ThirdParty/mbedTLS/library/rsa.c:108:36
	bl	mbedtls_mpi_copy
.Ltmp14:
	@DEBUG_VALUE: mbedtls_rsa_import:ret <- $r0
	.loc	4 104 9 is_stmt 1               @ ../../../ThirdParty/mbedTLS/library/rsa.c:104:9
	cbz	r0, .LBB0_12
.Ltmp15:
.LBB0_10:
	@DEBUG_VALUE: mbedtls_rsa_import:P <- $r7
	@DEBUG_VALUE: mbedtls_rsa_import:Q <- $r6
	@DEBUG_VALUE: mbedtls_rsa_import:N <- $r5
	@DEBUG_VALUE: mbedtls_rsa_import:ctx <- $r4
	@DEBUG_VALUE: mbedtls_rsa_import:ret <- $r0
	@DEBUG_VALUE: mbedtls_rsa_import:D <- [DW_OP_plus_uconst 24] [$sp+0]
	@DEBUG_VALUE: mbedtls_rsa_import:E <- [DW_OP_plus_uconst 28] [$sp+0]
	@DEBUG_VALUE: mbedtls_rsa_import:ret <- $r0
	.loc	4 110 48                        @ ../../../ThirdParty/mbedTLS/library/rsa.c:110:48
	movw	r1, #16512
	subs	r6, r0, r1
.Ltmp16:
.LBB0_11:
	@DEBUG_VALUE: mbedtls_rsa_import:P <- $r7
	@DEBUG_VALUE: mbedtls_rsa_import:N <- $r5
	@DEBUG_VALUE: mbedtls_rsa_import:ctx <- $r4
	@DEBUG_VALUE: mbedtls_rsa_import:D <- [DW_OP_plus_uconst 24] [$sp+0]
	@DEBUG_VALUE: mbedtls_rsa_import:E <- [DW_OP_plus_uconst 28] [$sp+0]
	.loc	4 117 1                         @ ../../../ThirdParty/mbedTLS/library/rsa.c:117:1
	mov	r0, r6
	add	sp, #4
.Ltmp17:
	pop	{r4, r5, r6, r7, pc}
.Ltmp18:
.LBB0_12:
	@DEBUG_VALUE: mbedtls_rsa_import:P <- $r7
	@DEBUG_VALUE: mbedtls_rsa_import:Q <- $r6
	@DEBUG_VALUE: mbedtls_rsa_import:N <- $r5
	@DEBUG_VALUE: mbedtls_rsa_import:ctx <- $r4
	@DEBUG_VALUE: mbedtls_rsa_import:D <- [DW_OP_plus_uconst 24] [$sp+0]
	@DEBUG_VALUE: mbedtls_rsa_import:E <- [DW_OP_plus_uconst 28] [$sp+0]
	.loc	4 0 1 is_stmt 0                 @ ../../../ThirdParty/mbedTLS/library/rsa.c:0:1
	movs	r6, #0
.Ltmp19:
	.loc	4 113 9 is_stmt 1               @ ../../../ThirdParty/mbedTLS/library/rsa.c:113:9
	cmp	r5, #0
	beq	.LBB0_11
.Ltmp20:
@ %bb.13:
	@DEBUG_VALUE: mbedtls_rsa_import:P <- $r7
	@DEBUG_VALUE: mbedtls_rsa_import:N <- $r5
	@DEBUG_VALUE: mbedtls_rsa_import:ctx <- $r4
	@DEBUG_VALUE: mbedtls_rsa_import:D <- [DW_OP_plus_uconst 24] [$sp+0]
	@DEBUG_VALUE: mbedtls_rsa_import:E <- [DW_OP_plus_uconst 28] [$sp+0]
	.loc	4 114 44                        @ ../../../ThirdParty/mbedTLS/library/rsa.c:114:44
	mov	r0, r4
	adds	r0, #8
	.loc	4 114 20 is_stmt 0              @ ../../../ThirdParty/mbedTLS/library/rsa.c:114:20
	bl	mbedtls_mpi_size
	.loc	4 114 18                        @ ../../../ThirdParty/mbedTLS/library/rsa.c:114:18
	str	r0, [r4, #4]
	b	.LBB0_11
.Ltmp21:
.Lfunc_end0:
	.size	mbedtls_rsa_import, .Lfunc_end0-mbedtls_rsa_import
	.cfi_endproc
	.cantunwind
	.fnend
                                        @ -- End function
	.section	.text.mbedtls_rsa_import_raw,"ax",%progbits
	.hidden	mbedtls_rsa_import_raw          @ -- Begin function mbedtls_rsa_import_raw
	.globl	mbedtls_rsa_import_raw
	.p2align	1
	.type	mbedtls_rsa_import_raw,%function
	.code	16                              @ @mbedtls_rsa_import_raw
	.thumb_func
mbedtls_rsa_import_raw:
.Lfunc_begin1:
	.loc	4 125 0 is_stmt 1               @ ../../../ThirdParty/mbedTLS/library/rsa.c:125:0
	.fnstart
	.cfi_startproc
@ %bb.0:
	@DEBUG_VALUE: mbedtls_rsa_import_raw:ctx <- $r0
	@DEBUG_VALUE: mbedtls_rsa_import_raw:N <- $r1
	@DEBUG_VALUE: mbedtls_rsa_import_raw:N_len <- $r2
	@DEBUG_VALUE: mbedtls_rsa_import_raw:P <- $r3
	.save	{r4, r5, r6, lr}
	push	{r4, r5, r6, lr}
	.cfi_def_cfa_offset 16
	.cfi_offset lr, -4
	.cfi_offset r6, -8
	.cfi_offset r5, -12
	.cfi_offset r4, -16
	mov	r5, r3
	mov	r4, r0
.Ltmp22:
	@DEBUG_VALUE: mbedtls_rsa_import_raw:ret <- 0
	@DEBUG_VALUE: mbedtls_rsa_import_raw:E_len <- [DW_OP_plus_uconst 40] [$sp+0]
	@DEBUG_VALUE: mbedtls_rsa_import_raw:E <- [DW_OP_plus_uconst 36] [$sp+0]
	@DEBUG_VALUE: mbedtls_rsa_import_raw:D_len <- [DW_OP_plus_uconst 32] [$sp+0]
	@DEBUG_VALUE: mbedtls_rsa_import_raw:D <- [DW_OP_plus_uconst 28] [$sp+0]
	@DEBUG_VALUE: mbedtls_rsa_import_raw:Q_len <- [DW_OP_plus_uconst 24] [$sp+0]
	@DEBUG_VALUE: mbedtls_rsa_import_raw:Q <- [DW_OP_plus_uconst 20] [$sp+0]
	@DEBUG_VALUE: mbedtls_rsa_import_raw:P_len <- [DW_OP_plus_uconst 16] [$sp+0]
	@DEBUG_VALUE: mbedtls_rsa_import_raw:P <- $r5
	@DEBUG_VALUE: mbedtls_rsa_import_raw:N_len <- $r2
	@DEBUG_VALUE: mbedtls_rsa_import_raw:N <- $r1
	@DEBUG_VALUE: mbedtls_rsa_import_raw:ctx <- $r4
	.loc	4 129 9 prologue_end            @ ../../../ThirdParty/mbedTLS/library/rsa.c:129:9
	cbz	r1, .LBB1_3
.Ltmp23:
@ %bb.1:
	@DEBUG_VALUE: mbedtls_rsa_import_raw:P <- $r5
	@DEBUG_VALUE: mbedtls_rsa_import_raw:ctx <- $r4
	@DEBUG_VALUE: mbedtls_rsa_import_raw:N_len <- $r2
	@DEBUG_VALUE: mbedtls_rsa_import_raw:N <- $r1
	@DEBUG_VALUE: mbedtls_rsa_import_raw:P_len <- [DW_OP_plus_uconst 16] [$sp+0]
	@DEBUG_VALUE: mbedtls_rsa_import_raw:Q <- [DW_OP_plus_uconst 20] [$sp+0]
	@DEBUG_VALUE: mbedtls_rsa_import_raw:Q_len <- [DW_OP_plus_uconst 24] [$sp+0]
	@DEBUG_VALUE: mbedtls_rsa_import_raw:D <- [DW_OP_plus_uconst 28] [$sp+0]
	@DEBUG_VALUE: mbedtls_rsa_import_raw:D_len <- [DW_OP_plus_uconst 32] [$sp+0]
	@DEBUG_VALUE: mbedtls_rsa_import_raw:E <- [DW_OP_plus_uconst 36] [$sp+0]
	@DEBUG_VALUE: mbedtls_rsa_import_raw:E_len <- [DW_OP_plus_uconst 40] [$sp+0]
	@DEBUG_VALUE: mbedtls_rsa_import_raw:ret <- 0
	.loc	4 131 9                         @ ../../../ThirdParty/mbedTLS/library/rsa.c:131:9
	mov	r6, r4
	adds	r6, #8
	mov	r0, r6
	bl	mbedtls_mpi_read_binary
.Ltmp24:
	@DEBUG_VALUE: mbedtls_rsa_import_raw:N_len <- [DW_OP_LLVM_entry_value 1] $r2
	@DEBUG_VALUE: mbedtls_rsa_import_raw:N <- [DW_OP_LLVM_entry_value 1] $r1
	@DEBUG_VALUE: mbedtls_rsa_import_raw:ret <- $r0
	.loc	4 131 9 is_stmt 0               @ ../../../ThirdParty/mbedTLS/library/rsa.c:131:9
	cbnz	r0, .LBB1_11
.Ltmp25:
@ %bb.2:
	@DEBUG_VALUE: mbedtls_rsa_import_raw:P <- $r5
	@DEBUG_VALUE: mbedtls_rsa_import_raw:ctx <- $r4
	@DEBUG_VALUE: mbedtls_rsa_import_raw:ret <- $r0
	@DEBUG_VALUE: mbedtls_rsa_import_raw:P_len <- [DW_OP_plus_uconst 16] [$sp+0]
	@DEBUG_VALUE: mbedtls_rsa_import_raw:Q <- [DW_OP_plus_uconst 20] [$sp+0]
	@DEBUG_VALUE: mbedtls_rsa_import_raw:Q_len <- [DW_OP_plus_uconst 24] [$sp+0]
	@DEBUG_VALUE: mbedtls_rsa_import_raw:D <- [DW_OP_plus_uconst 28] [$sp+0]
	@DEBUG_VALUE: mbedtls_rsa_import_raw:D_len <- [DW_OP_plus_uconst 32] [$sp+0]
	@DEBUG_VALUE: mbedtls_rsa_import_raw:E <- [DW_OP_plus_uconst 36] [$sp+0]
	@DEBUG_VALUE: mbedtls_rsa_import_raw:E_len <- [DW_OP_plus_uconst 40] [$sp+0]
	@DEBUG_VALUE: mbedtls_rsa_import_raw:N_len <- [DW_OP_LLVM_entry_value 1] $r2
	@DEBUG_VALUE: mbedtls_rsa_import_raw:N <- [DW_OP_LLVM_entry_value 1] $r1
	.loc	4 132 20 is_stmt 1              @ ../../../ThirdParty/mbedTLS/library/rsa.c:132:20
	mov	r0, r6
.Ltmp26:
	bl	mbedtls_mpi_size
	.loc	4 132 18 is_stmt 0              @ ../../../ThirdParty/mbedTLS/library/rsa.c:132:18
	str	r0, [r4, #4]
.Ltmp27:
.LBB1_3:
	@DEBUG_VALUE: mbedtls_rsa_import_raw:P <- $r5
	@DEBUG_VALUE: mbedtls_rsa_import_raw:ctx <- $r4
	@DEBUG_VALUE: mbedtls_rsa_import_raw:P_len <- [DW_OP_plus_uconst 16] [$sp+0]
	@DEBUG_VALUE: mbedtls_rsa_import_raw:Q <- [DW_OP_plus_uconst 20] [$sp+0]
	@DEBUG_VALUE: mbedtls_rsa_import_raw:Q_len <- [DW_OP_plus_uconst 24] [$sp+0]
	@DEBUG_VALUE: mbedtls_rsa_import_raw:D <- [DW_OP_plus_uconst 28] [$sp+0]
	@DEBUG_VALUE: mbedtls_rsa_import_raw:D_len <- [DW_OP_plus_uconst 32] [$sp+0]
	@DEBUG_VALUE: mbedtls_rsa_import_raw:E <- [DW_OP_plus_uconst 36] [$sp+0]
	@DEBUG_VALUE: mbedtls_rsa_import_raw:E_len <- [DW_OP_plus_uconst 40] [$sp+0]
	@DEBUG_VALUE: mbedtls_rsa_import_raw:ret <- 0
	.loc	4 135 9 is_stmt 1               @ ../../../ThirdParty/mbedTLS/library/rsa.c:135:9
	cbz	r5, .LBB1_5
.Ltmp28:
@ %bb.4:
	@DEBUG_VALUE: mbedtls_rsa_import_raw:P <- $r5
	@DEBUG_VALUE: mbedtls_rsa_import_raw:ctx <- $r4
	@DEBUG_VALUE: mbedtls_rsa_import_raw:P_len <- [DW_OP_plus_uconst 16] [$sp+0]
	@DEBUG_VALUE: mbedtls_rsa_import_raw:Q <- [DW_OP_plus_uconst 20] [$sp+0]
	@DEBUG_VALUE: mbedtls_rsa_import_raw:Q_len <- [DW_OP_plus_uconst 24] [$sp+0]
	@DEBUG_VALUE: mbedtls_rsa_import_raw:D <- [DW_OP_plus_uconst 28] [$sp+0]
	@DEBUG_VALUE: mbedtls_rsa_import_raw:D_len <- [DW_OP_plus_uconst 32] [$sp+0]
	@DEBUG_VALUE: mbedtls_rsa_import_raw:E <- [DW_OP_plus_uconst 36] [$sp+0]
	@DEBUG_VALUE: mbedtls_rsa_import_raw:E_len <- [DW_OP_plus_uconst 40] [$sp+0]
	@DEBUG_VALUE: mbedtls_rsa_import_raw:ret <- 0
	.loc	4 0 9 is_stmt 0                 @ ../../../ThirdParty/mbedTLS/library/rsa.c:0:9
	ldr	r2, [sp, #16]
.Ltmp29:
	.loc	4 136 9 is_stmt 1               @ ../../../ThirdParty/mbedTLS/library/rsa.c:136:9
	mov	r0, r4
	adds	r0, #44
	mov	r1, r5
	bl	mbedtls_mpi_read_binary
.Ltmp30:
	@DEBUG_VALUE: mbedtls_rsa_import_raw:ret <- $r0
	.loc	4 136 9 is_stmt 0               @ ../../../ThirdParty/mbedTLS/library/rsa.c:136:9
	cbnz	r0, .LBB1_11
.Ltmp31:
.LBB1_5:
	@DEBUG_VALUE: mbedtls_rsa_import_raw:P <- $r5
	@DEBUG_VALUE: mbedtls_rsa_import_raw:ctx <- $r4
	@DEBUG_VALUE: mbedtls_rsa_import_raw:P_len <- [DW_OP_plus_uconst 16] [$sp+0]
	@DEBUG_VALUE: mbedtls_rsa_import_raw:Q <- [DW_OP_plus_uconst 20] [$sp+0]
	@DEBUG_VALUE: mbedtls_rsa_import_raw:Q_len <- [DW_OP_plus_uconst 24] [$sp+0]
	@DEBUG_VALUE: mbedtls_rsa_import_raw:D <- [DW_OP_plus_uconst 28] [$sp+0]
	@DEBUG_VALUE: mbedtls_rsa_import_raw:D_len <- [DW_OP_plus_uconst 32] [$sp+0]
	@DEBUG_VALUE: mbedtls_rsa_import_raw:E <- [DW_OP_plus_uconst 36] [$sp+0]
	@DEBUG_VALUE: mbedtls_rsa_import_raw:E_len <- [DW_OP_plus_uconst 40] [$sp+0]
	.loc	4 0 9                           @ ../../../ThirdParty/mbedTLS/library/rsa.c:0:9
	ldr	r1, [sp, #20]
.Ltmp32:
	@DEBUG_VALUE: mbedtls_rsa_import_raw:ret <- 0
	.loc	4 138 9 is_stmt 1               @ ../../../ThirdParty/mbedTLS/library/rsa.c:138:9
	cbz	r1, .LBB1_7
.Ltmp33:
@ %bb.6:
	@DEBUG_VALUE: mbedtls_rsa_import_raw:P <- $r5
	@DEBUG_VALUE: mbedtls_rsa_import_raw:ctx <- $r4
	@DEBUG_VALUE: mbedtls_rsa_import_raw:P_len <- [DW_OP_plus_uconst 16] [$sp+0]
	@DEBUG_VALUE: mbedtls_rsa_import_raw:Q <- [DW_OP_plus_uconst 20] [$sp+0]
	@DEBUG_VALUE: mbedtls_rsa_import_raw:Q_len <- [DW_OP_plus_uconst 24] [$sp+0]
	@DEBUG_VALUE: mbedtls_rsa_import_raw:D <- [DW_OP_plus_uconst 28] [$sp+0]
	@DEBUG_VALUE: mbedtls_rsa_import_raw:D_len <- [DW_OP_plus_uconst 32] [$sp+0]
	@DEBUG_VALUE: mbedtls_rsa_import_raw:E <- [DW_OP_plus_uconst 36] [$sp+0]
	@DEBUG_VALUE: mbedtls_rsa_import_raw:E_len <- [DW_OP_plus_uconst 40] [$sp+0]
	@DEBUG_VALUE: mbedtls_rsa_import_raw:ret <- 0
	.loc	4 0 9 is_stmt 0                 @ ../../../ThirdParty/mbedTLS/library/rsa.c:0:9
	ldr	r2, [sp, #24]
.Ltmp34:
	.loc	4 139 9 is_stmt 1               @ ../../../ThirdParty/mbedTLS/library/rsa.c:139:9
	mov	r0, r4
	adds	r0, #56
	bl	mbedtls_mpi_read_binary
.Ltmp35:
	@DEBUG_VALUE: mbedtls_rsa_import_raw:ret <- $r0
	.loc	4 139 9 is_stmt 0               @ ../../../ThirdParty/mbedTLS/library/rsa.c:139:9
	cbnz	r0, .LBB1_11
.Ltmp36:
.LBB1_7:
	@DEBUG_VALUE: mbedtls_rsa_import_raw:P <- $r5
	@DEBUG_VALUE: mbedtls_rsa_import_raw:ctx <- $r4
	@DEBUG_VALUE: mbedtls_rsa_import_raw:P_len <- [DW_OP_plus_uconst 16] [$sp+0]
	@DEBUG_VALUE: mbedtls_rsa_import_raw:Q <- [DW_OP_plus_uconst 20] [$sp+0]
	@DEBUG_VALUE: mbedtls_rsa_import_raw:Q_len <- [DW_OP_plus_uconst 24] [$sp+0]
	@DEBUG_VALUE: mbedtls_rsa_import_raw:D <- [DW_OP_plus_uconst 28] [$sp+0]
	@DEBUG_VALUE: mbedtls_rsa_import_raw:D_len <- [DW_OP_plus_uconst 32] [$sp+0]
	@DEBUG_VALUE: mbedtls_rsa_import_raw:E <- [DW_OP_plus_uconst 36] [$sp+0]
	@DEBUG_VALUE: mbedtls_rsa_import_raw:E_len <- [DW_OP_plus_uconst 40] [$sp+0]
	.loc	4 0 9                           @ ../../../ThirdParty/mbedTLS/library/rsa.c:0:9
	ldr	r1, [sp, #28]
.Ltmp37:
	@DEBUG_VALUE: mbedtls_rsa_import_raw:ret <- 0
	.loc	4 141 9 is_stmt 1               @ ../../../ThirdParty/mbedTLS/library/rsa.c:141:9
	cbz	r1, .LBB1_9
.Ltmp38:
@ %bb.8:
	@DEBUG_VALUE: mbedtls_rsa_import_raw:P <- $r5
	@DEBUG_VALUE: mbedtls_rsa_import_raw:ctx <- $r4
	@DEBUG_VALUE: mbedtls_rsa_import_raw:P_len <- [DW_OP_plus_uconst 16] [$sp+0]
	@DEBUG_VALUE: mbedtls_rsa_import_raw:Q <- [DW_OP_plus_uconst 20] [$sp+0]
	@DEBUG_VALUE: mbedtls_rsa_import_raw:Q_len <- [DW_OP_plus_uconst 24] [$sp+0]
	@DEBUG_VALUE: mbedtls_rsa_import_raw:D <- [DW_OP_plus_uconst 28] [$sp+0]
	@DEBUG_VALUE: mbedtls_rsa_import_raw:D_len <- [DW_OP_plus_uconst 32] [$sp+0]
	@DEBUG_VALUE: mbedtls_rsa_import_raw:E <- [DW_OP_plus_uconst 36] [$sp+0]
	@DEBUG_VALUE: mbedtls_rsa_import_raw:E_len <- [DW_OP_plus_uconst 40] [$sp+0]
	@DEBUG_VALUE: mbedtls_rsa_import_raw:ret <- 0
	.loc	4 0 9 is_stmt 0                 @ ../../../ThirdParty/mbedTLS/library/rsa.c:0:9
	ldr	r2, [sp, #32]
.Ltmp39:
	.loc	4 142 9 is_stmt 1               @ ../../../ThirdParty/mbedTLS/library/rsa.c:142:9
	mov	r0, r4
	adds	r0, #32
	bl	mbedtls_mpi_read_binary
.Ltmp40:
	@DEBUG_VALUE: mbedtls_rsa_import_raw:ret <- $r0
	.loc	4 142 9 is_stmt 0               @ ../../../ThirdParty/mbedTLS/library/rsa.c:142:9
	cbnz	r0, .LBB1_11
.Ltmp41:
.LBB1_9:
	@DEBUG_VALUE: mbedtls_rsa_import_raw:P <- $r5
	@DEBUG_VALUE: mbedtls_rsa_import_raw:ctx <- $r4
	@DEBUG_VALUE: mbedtls_rsa_import_raw:P_len <- [DW_OP_plus_uconst 16] [$sp+0]
	@DEBUG_VALUE: mbedtls_rsa_import_raw:Q <- [DW_OP_plus_uconst 20] [$sp+0]
	@DEBUG_VALUE: mbedtls_rsa_import_raw:Q_len <- [DW_OP_plus_uconst 24] [$sp+0]
	@DEBUG_VALUE: mbedtls_rsa_import_raw:D <- [DW_OP_plus_uconst 28] [$sp+0]
	@DEBUG_VALUE: mbedtls_rsa_import_raw:D_len <- [DW_OP_plus_uconst 32] [$sp+0]
	@DEBUG_VALUE: mbedtls_rsa_import_raw:E <- [DW_OP_plus_uconst 36] [$sp+0]
	@DEBUG_VALUE: mbedtls_rsa_import_raw:E_len <- [DW_OP_plus_uconst 40] [$sp+0]
	.loc	4 0 9                           @ ../../../ThirdParty/mbedTLS/library/rsa.c:0:9
	ldr	r1, [sp, #36]
.Ltmp42:
	@DEBUG_VALUE: mbedtls_rsa_import_raw:ret <- 0
	.loc	4 144 9 is_stmt 1               @ ../../../ThirdParty/mbedTLS/library/rsa.c:144:9
	cbz	r1, .LBB1_14
.Ltmp43:
@ %bb.10:
	@DEBUG_VALUE: mbedtls_rsa_import_raw:P <- $r5
	@DEBUG_VALUE: mbedtls_rsa_import_raw:ctx <- $r4
	@DEBUG_VALUE: mbedtls_rsa_import_raw:P_len <- [DW_OP_plus_uconst 16] [$sp+0]
	@DEBUG_VALUE: mbedtls_rsa_import_raw:Q <- [DW_OP_plus_uconst 20] [$sp+0]
	@DEBUG_VALUE: mbedtls_rsa_import_raw:Q_len <- [DW_OP_plus_uconst 24] [$sp+0]
	@DEBUG_VALUE: mbedtls_rsa_import_raw:D <- [DW_OP_plus_uconst 28] [$sp+0]
	@DEBUG_VALUE: mbedtls_rsa_import_raw:D_len <- [DW_OP_plus_uconst 32] [$sp+0]
	@DEBUG_VALUE: mbedtls_rsa_import_raw:E <- [DW_OP_plus_uconst 36] [$sp+0]
	@DEBUG_VALUE: mbedtls_rsa_import_raw:E_len <- [DW_OP_plus_uconst 40] [$sp+0]
	@DEBUG_VALUE: mbedtls_rsa_import_raw:ret <- 0
	.loc	4 0 9 is_stmt 0                 @ ../../../ThirdParty/mbedTLS/library/rsa.c:0:9
	ldr	r2, [sp, #40]
.Ltmp44:
	.loc	4 145 9 is_stmt 1               @ ../../../ThirdParty/mbedTLS/library/rsa.c:145:9
	adds	r4, #20
.Ltmp45:
	mov	r0, r4
	bl	mbedtls_mpi_read_binary
.Ltmp46:
	@DEBUG_VALUE: mbedtls_rsa_import_raw:ret <- $r0
.LBB1_11:
	@DEBUG_VALUE: mbedtls_rsa_import_raw:P <- $r5
	@DEBUG_VALUE: mbedtls_rsa_import_raw:ret <- $r0
	@DEBUG_VALUE: mbedtls_rsa_import_raw:P_len <- [DW_OP_plus_uconst 16] [$sp+0]
	@DEBUG_VALUE: mbedtls_rsa_import_raw:Q <- [DW_OP_plus_uconst 20] [$sp+0]
	@DEBUG_VALUE: mbedtls_rsa_import_raw:Q_len <- [DW_OP_plus_uconst 24] [$sp+0]
	@DEBUG_VALUE: mbedtls_rsa_import_raw:D <- [DW_OP_plus_uconst 28] [$sp+0]
	@DEBUG_VALUE: mbedtls_rsa_import_raw:D_len <- [DW_OP_plus_uconst 32] [$sp+0]
	@DEBUG_VALUE: mbedtls_rsa_import_raw:E <- [DW_OP_plus_uconst 36] [$sp+0]
	@DEBUG_VALUE: mbedtls_rsa_import_raw:E_len <- [DW_OP_plus_uconst 40] [$sp+0]
	@DEBUG_VALUE: mbedtls_rsa_import_raw:ret <- $r0
	@DEBUG_LABEL: mbedtls_rsa_import_raw:cleanup
	.loc	4 149 9                         @ ../../../ThirdParty/mbedTLS/library/rsa.c:149:9
	cbz	r0, .LBB1_13
.Ltmp47:
.LBB1_12:
	@DEBUG_VALUE: mbedtls_rsa_import_raw:P <- $r5
	@DEBUG_VALUE: mbedtls_rsa_import_raw:ret <- $r0
	@DEBUG_VALUE: mbedtls_rsa_import_raw:P_len <- [DW_OP_plus_uconst 16] [$sp+0]
	@DEBUG_VALUE: mbedtls_rsa_import_raw:Q <- [DW_OP_plus_uconst 20] [$sp+0]
	@DEBUG_VALUE: mbedtls_rsa_import_raw:Q_len <- [DW_OP_plus_uconst 24] [$sp+0]
	@DEBUG_VALUE: mbedtls_rsa_import_raw:D <- [DW_OP_plus_uconst 28] [$sp+0]
	@DEBUG_VALUE: mbedtls_rsa_import_raw:D_len <- [DW_OP_plus_uconst 32] [$sp+0]
	@DEBUG_VALUE: mbedtls_rsa_import_raw:E <- [DW_OP_plus_uconst 36] [$sp+0]
	@DEBUG_VALUE: mbedtls_rsa_import_raw:E_len <- [DW_OP_plus_uconst 40] [$sp+0]
	.loc	4 0 9 is_stmt 0                 @ ../../../ThirdParty/mbedTLS/library/rsa.c:0:9
	movw	r1, #16512
	subs	r0, r0, r1
.Ltmp48:
.LBB1_13:
	@DEBUG_VALUE: mbedtls_rsa_import_raw:P <- $r5
	@DEBUG_VALUE: mbedtls_rsa_import_raw:P_len <- [DW_OP_plus_uconst 16] [$sp+0]
	@DEBUG_VALUE: mbedtls_rsa_import_raw:Q <- [DW_OP_plus_uconst 20] [$sp+0]
	@DEBUG_VALUE: mbedtls_rsa_import_raw:Q_len <- [DW_OP_plus_uconst 24] [$sp+0]
	@DEBUG_VALUE: mbedtls_rsa_import_raw:D <- [DW_OP_plus_uconst 28] [$sp+0]
	@DEBUG_VALUE: mbedtls_rsa_import_raw:D_len <- [DW_OP_plus_uconst 32] [$sp+0]
	@DEBUG_VALUE: mbedtls_rsa_import_raw:E <- [DW_OP_plus_uconst 36] [$sp+0]
	@DEBUG_VALUE: mbedtls_rsa_import_raw:E_len <- [DW_OP_plus_uconst 40] [$sp+0]
	.loc	4 153 1 is_stmt 1               @ ../../../ThirdParty/mbedTLS/library/rsa.c:153:1
	pop	{r4, r5, r6, pc}
.Ltmp49:
.LBB1_14:
	@DEBUG_VALUE: mbedtls_rsa_import_raw:P <- $r5
	@DEBUG_VALUE: mbedtls_rsa_import_raw:ctx <- $r4
	@DEBUG_VALUE: mbedtls_rsa_import_raw:P_len <- [DW_OP_plus_uconst 16] [$sp+0]
	@DEBUG_VALUE: mbedtls_rsa_import_raw:Q <- [DW_OP_plus_uconst 20] [$sp+0]
	@DEBUG_VALUE: mbedtls_rsa_import_raw:Q_len <- [DW_OP_plus_uconst 24] [$sp+0]
	@DEBUG_VALUE: mbedtls_rsa_import_raw:D <- [DW_OP_plus_uconst 28] [$sp+0]
	@DEBUG_VALUE: mbedtls_rsa_import_raw:D_len <- [DW_OP_plus_uconst 32] [$sp+0]
	@DEBUG_VALUE: mbedtls_rsa_import_raw:E <- [DW_OP_plus_uconst 36] [$sp+0]
	@DEBUG_VALUE: mbedtls_rsa_import_raw:E_len <- [DW_OP_plus_uconst 40] [$sp+0]
	@DEBUG_VALUE: mbedtls_rsa_import_raw:ret <- 0
	.loc	4 0 1 is_stmt 0                 @ ../../../ThirdParty/mbedTLS/library/rsa.c:0:1
	movs	r0, #0
.Ltmp50:
	@DEBUG_VALUE: mbedtls_rsa_import_raw:ret <- $r0
	@DEBUG_LABEL: mbedtls_rsa_import_raw:cleanup
	.loc	4 149 9 is_stmt 1               @ ../../../ThirdParty/mbedTLS/library/rsa.c:149:9
	cmp	r0, #0
	beq	.LBB1_13
	b	.LBB1_12
.Ltmp51:
.Lfunc_end1:
	.size	mbedtls_rsa_import_raw, .Lfunc_end1-mbedtls_rsa_import_raw
	.cfi_endproc
	.cantunwind
	.fnend
                                        @ -- End function
	.section	.text.mbedtls_rsa_complete,"ax",%progbits
	.hidden	mbedtls_rsa_complete            @ -- Begin function mbedtls_rsa_complete
	.globl	mbedtls_rsa_complete
	.p2align	2
	.type	mbedtls_rsa_complete,%function
	.code	16                              @ @mbedtls_rsa_complete
	.thumb_func
mbedtls_rsa_complete:
.Lfunc_begin2:
	.loc	4 249 0                         @ ../../../ThirdParty/mbedTLS/library/rsa.c:249:0
	.fnstart
	.cfi_startproc
@ %bb.0:
	@DEBUG_VALUE: mbedtls_rsa_complete:ctx <- $r0
	.save	{r4, r5, r6, r7, lr}
	push	{r4, r5, r6, r7, lr}
	.cfi_def_cfa_offset 20
	.cfi_offset lr, -4
	.cfi_offset r7, -8
	.cfi_offset r6, -12
	.cfi_offset r5, -16
	.cfi_offset r4, -20
	.pad	#60
	sub	sp, #60
	.cfi_def_cfa_offset 80
	mov	r5, r0
.Ltmp52:
	@DEBUG_VALUE: mbedtls_rsa_complete:ret <- 0
	@DEBUG_VALUE: mbedtls_rsa_complete:ctx <- $r5
	.loc	4 256 43 prologue_end           @ ../../../ThirdParty/mbedTLS/library/rsa.c:256:43
	adds	r0, #8
	movs	r6, #0
	str	r6, [sp, #56]                   @ 4-byte Spill
	str	r0, [sp, #28]                   @ 4-byte Spill
	.loc	4 256 16 is_stmt 0              @ ../../../ThirdParty/mbedTLS/library/rsa.c:256:16
	mov	r1, r6
	bl	mbedtls_mpi_cmp_int
	mov	r4, r0
	.loc	4 257 43 is_stmt 1              @ ../../../ThirdParty/mbedTLS/library/rsa.c:257:43
	mov	r0, r5
	adds	r0, #44
	str	r0, [sp, #36]                   @ 4-byte Spill
	.loc	4 257 16 is_stmt 0              @ ../../../ThirdParty/mbedTLS/library/rsa.c:257:16
	mov	r1, r6
	bl	mbedtls_mpi_cmp_int
	mov	r7, r0
	.loc	4 258 16 is_stmt 1              @ ../../../ThirdParty/mbedTLS/library/rsa.c:258:16
	str	r0, [sp, #52]                   @ 4-byte Spill
	.loc	4 258 43 is_stmt 0              @ ../../../ThirdParty/mbedTLS/library/rsa.c:258:43
	mov	r0, r5
	adds	r0, #56
	str	r0, [sp, #32]                   @ 4-byte Spill
	.loc	4 258 16                        @ ../../../ThirdParty/mbedTLS/library/rsa.c:258:16
	mov	r1, r6
	bl	mbedtls_mpi_cmp_int
	.loc	4 273 27 is_stmt 1              @ ../../../ThirdParty/mbedTLS/library/rsa.c:273:27
	str	r0, [sp, #48]                   @ 4-byte Spill
	mov	r2, r0
	orrs	r2, r7
	subs	r1, r2, #1
	sbcs	r2, r1
	.loc	4 256 50                        @ ../../../ThirdParty/mbedTLS/library/rsa.c:256:50
	rsbs	r6, r4, #0
	str	r4, [sp, #24]                   @ 4-byte Spill
	adcs	r6, r4
.Ltmp53:
	@DEBUG_VALUE: mbedtls_rsa_complete:have_N <- [DW_OP_LLVM_convert 1 7, DW_OP_LLVM_convert 32 7, DW_OP_stack_value] $r6
	.loc	4 273 27                        @ ../../../ThirdParty/mbedTLS/library/rsa.c:273:27
	orrs	r6, r2
.Ltmp54:
	.loc	4 0 27 is_stmt 0                @ ../../../ThirdParty/mbedTLS/library/rsa.c:0:27
	movs	r0, #1
	.loc	4 273 27                        @ ../../../ThirdParty/mbedTLS/library/rsa.c:273:27
	str	r0, [sp, #44]                   @ 4-byte Spill
	mov	r7, r6
	eors	r7, r0
	.loc	4 259 43 is_stmt 1              @ ../../../ThirdParty/mbedTLS/library/rsa.c:259:43
	mov	r0, r5
	adds	r0, #32
	str	r0, [sp, #20]                   @ 4-byte Spill
	.loc	4 259 16 is_stmt 0              @ ../../../ThirdParty/mbedTLS/library/rsa.c:259:16
	ldr	r1, [sp, #56]                   @ 4-byte Reload
	bl	mbedtls_mpi_cmp_int
	mov	r4, r0
	.loc	4 259 50                        @ ../../../ThirdParty/mbedTLS/library/rsa.c:259:50
	str	r0, [sp, #40]                   @ 4-byte Spill
	subs	r1, r0, #1
	sbcs	r4, r1
.Ltmp55:
	@DEBUG_VALUE: mbedtls_rsa_complete:have_D <- [DW_OP_LLVM_convert 1 7, DW_OP_LLVM_convert 32 7, DW_OP_stack_value] $r4
	.loc	4 273 27 is_stmt 1              @ ../../../ThirdParty/mbedTLS/library/rsa.c:273:27
	ands	r7, r4
	str	r5, [sp, #16]                   @ 4-byte Spill
.Ltmp56:
	@DEBUG_VALUE: mbedtls_rsa_complete:ctx <- [DW_OP_plus_uconst 16] [$sp+0]
	.loc	4 260 43                        @ ../../../ThirdParty/mbedTLS/library/rsa.c:260:43
	adds	r5, #20
	str	r5, [sp, #12]                   @ 4-byte Spill
	.loc	4 260 16 is_stmt 0              @ ../../../ThirdParty/mbedTLS/library/rsa.c:260:16
	mov	r0, r5
	ldr	r1, [sp, #56]                   @ 4-byte Reload
	bl	mbedtls_mpi_cmp_int
	.loc	4 260 50                        @ ../../../ThirdParty/mbedTLS/library/rsa.c:260:50
	subs	r1, r0, #1
	sbcs	r0, r1
.Ltmp57:
	@DEBUG_VALUE: mbedtls_rsa_complete:have_E <- [DW_OP_LLVM_convert 1 7, DW_OP_LLVM_convert 32 7, DW_OP_stack_value] $r0
	.loc	4 273 27 is_stmt 1              @ ../../../ThirdParty/mbedTLS/library/rsa.c:273:27
	ands	r7, r0
.Ltmp58:
	@DEBUG_VALUE: mbedtls_rsa_complete:pq_missing <- [DW_OP_LLVM_convert 1 7, DW_OP_LLVM_convert 32 7, DW_OP_stack_value] $r7
	.loc	4 0 27 is_stmt 0                @ ../../../ThirdParty/mbedTLS/library/rsa.c:0:27
	ldr	r2, [sp, #52]                   @ 4-byte Reload
	.loc	4 257 50 is_stmt 1              @ ../../../ThirdParty/mbedTLS/library/rsa.c:257:50
	subs	r1, r2, #1
	sbcs	r2, r1
.Ltmp59:
	@DEBUG_VALUE: mbedtls_rsa_complete:have_P <- [DW_OP_LLVM_convert 1 7, DW_OP_LLVM_convert 32 7, DW_OP_stack_value] $r2
	.loc	4 0 50 is_stmt 0                @ ../../../ThirdParty/mbedTLS/library/rsa.c:0:50
	ldr	r3, [sp, #48]                   @ 4-byte Reload
	.loc	4 258 50 is_stmt 1              @ ../../../ThirdParty/mbedTLS/library/rsa.c:258:50
	subs	r1, r3, #1
	sbcs	r3, r1
.Ltmp60:
	@DEBUG_VALUE: mbedtls_rsa_complete:have_Q <- [DW_OP_LLVM_convert 1 7, DW_OP_LLVM_convert 32 7, DW_OP_stack_value] $r3
	.loc	4 272 38                        @ ../../../ThirdParty/mbedTLS/library/rsa.c:272:38
	ands	r3, r2
.Ltmp61:
	mov	r2, r3
.Ltmp62:
	ands	r2, r4
	ands	r2, r0
.Ltmp63:
	@DEBUG_VALUE: mbedtls_rsa_complete:is_pub <- [DW_OP_LLVM_convert 1 7, DW_OP_LLVM_convert 32 7, DW_OP_stack_value] undef
	@DEBUG_VALUE: mbedtls_rsa_complete:n_missing <- [DW_OP_LLVM_convert 1 7, DW_OP_LLVM_convert 32 7, DW_OP_stack_value] $r2
	.loc	4 0 38 is_stmt 0                @ ../../../ThirdParty/mbedTLS/library/rsa.c:0:38
	str	r7, [sp, #56]                   @ 4-byte Spill
.Ltmp64:
	@DEBUG_VALUE: mbedtls_rsa_complete:pq_missing <- [DW_OP_plus_uconst 56, DW_OP_deref_size 4, DW_OP_LLVM_convert 1 7, DW_OP_LLVM_convert 32 7, DW_OP_stack_value] $sp
	.loc	4 278 25 is_stmt 1              @ ../../../ThirdParty/mbedTLS/library/rsa.c:278:25
	orrs	r2, r7
.Ltmp65:
	.loc	4 0 25 is_stmt 0                @ ../../../ThirdParty/mbedTLS/library/rsa.c:0:25
	ldr	r1, [sp, #40]                   @ 4-byte Reload
	.loc	4 259 50 is_stmt 1              @ ../../../ThirdParty/mbedTLS/library/rsa.c:259:50
	rsbs	r5, r1, #0
	adcs	r5, r1
	.loc	4 274 38                        @ ../../../ThirdParty/mbedTLS/library/rsa.c:274:38
	ands	r5, r3
	ands	r5, r0
.Ltmp66:
	@DEBUG_VALUE: mbedtls_rsa_complete:d_missing <- [DW_OP_LLVM_convert 1 7, DW_OP_LLVM_convert 32 7, DW_OP_stack_value] $r5
	.loc	4 278 25                        @ ../../../ThirdParty/mbedTLS/library/rsa.c:278:25
	orrs	r2, r5
	.loc	4 275 27                        @ ../../../ThirdParty/mbedTLS/library/rsa.c:275:27
	orrs	r4, r6
.Ltmp67:
	ldr	r1, [sp, #44]                   @ 4-byte Reload
	eors	r4, r1
	ldr	r1, __arm_cp.2_0
.Ltmp68:
	@DEBUG_VALUE: mbedtls_rsa_complete:is_priv <- $r2
	.loc	4 280 18                        @ ../../../ThirdParty/mbedTLS/library/rsa.c:280:18
	tst	r0, r4
	bne	.LBB2_2
.Ltmp69:
@ %bb.1:
	@DEBUG_VALUE: mbedtls_rsa_complete:d_missing <- [DW_OP_LLVM_convert 1 7, DW_OP_LLVM_convert 32 7, DW_OP_stack_value] $r5
	@DEBUG_VALUE: mbedtls_rsa_complete:is_priv <- $r2
	@DEBUG_VALUE: mbedtls_rsa_complete:have_E <- [DW_OP_LLVM_convert 1 7, DW_OP_LLVM_convert 32 7, DW_OP_stack_value] $r0
	@DEBUG_VALUE: mbedtls_rsa_complete:pq_missing <- [DW_OP_plus_uconst 56, DW_OP_deref_size 4, DW_OP_LLVM_convert 1 7, DW_OP_LLVM_convert 32 7, DW_OP_stack_value] $sp
	@DEBUG_VALUE: mbedtls_rsa_complete:ctx <- [DW_OP_plus_uconst 16] [$sp+0]
	@DEBUG_VALUE: mbedtls_rsa_complete:ret <- 0
	cmp	r2, #0
	beq	.LBB2_18
.Ltmp70:
.LBB2_2:
	@DEBUG_VALUE: mbedtls_rsa_complete:d_missing <- [DW_OP_LLVM_convert 1 7, DW_OP_LLVM_convert 32 7, DW_OP_stack_value] $r5
	@DEBUG_VALUE: mbedtls_rsa_complete:is_priv <- $r2
	@DEBUG_VALUE: mbedtls_rsa_complete:have_E <- [DW_OP_LLVM_convert 1 7, DW_OP_LLVM_convert 32 7, DW_OP_stack_value] $r0
	@DEBUG_VALUE: mbedtls_rsa_complete:pq_missing <- [DW_OP_plus_uconst 56, DW_OP_deref_size 4, DW_OP_LLVM_convert 1 7, DW_OP_LLVM_convert 32 7, DW_OP_stack_value] $sp
	@DEBUG_VALUE: mbedtls_rsa_complete:ctx <- [DW_OP_plus_uconst 16] [$sp+0]
	@DEBUG_VALUE: mbedtls_rsa_complete:ret <- 0
	.loc	4 287 17                        @ ../../../ThirdParty/mbedTLS/library/rsa.c:287:17
	ldr	r0, [sp, #24]                   @ 4-byte Reload
.Ltmp71:
	.loc	4 0 17 is_stmt 0                @ ../../../ThirdParty/mbedTLS/library/rsa.c:0:17
	ldr	r4, [sp, #36]                   @ 4-byte Reload
	ldr	r6, [sp, #32]                   @ 4-byte Reload
	ldr	r7, [sp, #28]                   @ 4-byte Reload
	.loc	4 287 17                        @ ../../../ThirdParty/mbedTLS/library/rsa.c:287:17
	cbnz	r0, .LBB2_8
.Ltmp72:
@ %bb.3:
	@DEBUG_VALUE: mbedtls_rsa_complete:d_missing <- [DW_OP_LLVM_convert 1 7, DW_OP_LLVM_convert 32 7, DW_OP_stack_value] $r5
	@DEBUG_VALUE: mbedtls_rsa_complete:is_priv <- $r2
	@DEBUG_VALUE: mbedtls_rsa_complete:pq_missing <- [DW_OP_plus_uconst 56, DW_OP_deref_size 4, DW_OP_LLVM_convert 1 7, DW_OP_LLVM_convert 32 7, DW_OP_stack_value] $sp
	@DEBUG_VALUE: mbedtls_rsa_complete:ctx <- [DW_OP_plus_uconst 16] [$sp+0]
	@DEBUG_VALUE: mbedtls_rsa_complete:ret <- 0
	ldr	r0, [sp, #52]                   @ 4-byte Reload
	cbz	r0, .LBB2_8
.Ltmp73:
@ %bb.4:
	@DEBUG_VALUE: mbedtls_rsa_complete:d_missing <- [DW_OP_LLVM_convert 1 7, DW_OP_LLVM_convert 32 7, DW_OP_stack_value] $r5
	@DEBUG_VALUE: mbedtls_rsa_complete:is_priv <- $r2
	@DEBUG_VALUE: mbedtls_rsa_complete:pq_missing <- [DW_OP_plus_uconst 56, DW_OP_deref_size 4, DW_OP_LLVM_convert 1 7, DW_OP_LLVM_convert 32 7, DW_OP_stack_value] $sp
	@DEBUG_VALUE: mbedtls_rsa_complete:ctx <- [DW_OP_plus_uconst 16] [$sp+0]
	@DEBUG_VALUE: mbedtls_rsa_complete:ret <- 0
	ldr	r0, [sp, #48]                   @ 4-byte Reload
	cbz	r0, .LBB2_8
.Ltmp74:
@ %bb.5:
	@DEBUG_VALUE: mbedtls_rsa_complete:d_missing <- [DW_OP_LLVM_convert 1 7, DW_OP_LLVM_convert 32 7, DW_OP_stack_value] $r5
	@DEBUG_VALUE: mbedtls_rsa_complete:is_priv <- $r2
	@DEBUG_VALUE: mbedtls_rsa_complete:pq_missing <- [DW_OP_plus_uconst 56, DW_OP_deref_size 4, DW_OP_LLVM_convert 1 7, DW_OP_LLVM_convert 32 7, DW_OP_stack_value] $sp
	@DEBUG_VALUE: mbedtls_rsa_complete:ctx <- [DW_OP_plus_uconst 16] [$sp+0]
	@DEBUG_VALUE: mbedtls_rsa_complete:ret <- 0
	.loc	4 0 17                          @ ../../../ThirdParty/mbedTLS/library/rsa.c:0:17
	str	r2, [sp, #52]                   @ 4-byte Spill
.Ltmp75:
	@DEBUG_VALUE: mbedtls_rsa_complete:is_priv <- [DW_OP_plus_uconst 52] [$sp+0]
	.loc	4 289 21 is_stmt 1              @ ../../../ThirdParty/mbedTLS/library/rsa.c:289:21
	mov	r0, r7
	mov	r1, r4
	mov	r2, r6
	bl	mbedtls_mpi_mul_mpi
.Ltmp76:
	@DEBUG_VALUE: mbedtls_rsa_complete:ret <- $r0
	.loc	4 289 13 is_stmt 0              @ ../../../ThirdParty/mbedTLS/library/rsa.c:289:13
	cbz	r0, .LBB2_7
.Ltmp77:
@ %bb.6:
	@DEBUG_VALUE: mbedtls_rsa_complete:is_priv <- [DW_OP_plus_uconst 52] [$sp+0]
	@DEBUG_VALUE: mbedtls_rsa_complete:d_missing <- [DW_OP_LLVM_convert 1 7, DW_OP_LLVM_convert 32 7, DW_OP_stack_value] $r5
	@DEBUG_VALUE: mbedtls_rsa_complete:ret <- $r0
	@DEBUG_VALUE: mbedtls_rsa_complete:pq_missing <- [DW_OP_plus_uconst 56, DW_OP_deref_size 4, DW_OP_LLVM_convert 1 7, DW_OP_LLVM_convert 32 7, DW_OP_stack_value] $sp
	@DEBUG_VALUE: mbedtls_rsa_complete:ctx <- [DW_OP_plus_uconst 16] [$sp+0]
	.loc	4 0 13                          @ ../../../ThirdParty/mbedTLS/library/rsa.c:0:13
	ldr	r1, __arm_cp.2_0
.Ltmp78:
	.loc	4 292 52 is_stmt 1              @ ../../../ThirdParty/mbedTLS/library/rsa.c:292:52
	adds	r1, r0, r1
	.loc	4 292 13 is_stmt 0              @ ../../../ThirdParty/mbedTLS/library/rsa.c:292:13
	b	.LBB2_18
.Ltmp79:
.LBB2_7:
	@DEBUG_VALUE: mbedtls_rsa_complete:is_priv <- [DW_OP_plus_uconst 52] [$sp+0]
	@DEBUG_VALUE: mbedtls_rsa_complete:d_missing <- [DW_OP_LLVM_convert 1 7, DW_OP_LLVM_convert 32 7, DW_OP_stack_value] $r5
	@DEBUG_VALUE: mbedtls_rsa_complete:ret <- $r0
	@DEBUG_VALUE: mbedtls_rsa_complete:pq_missing <- [DW_OP_plus_uconst 56, DW_OP_deref_size 4, DW_OP_LLVM_convert 1 7, DW_OP_LLVM_convert 32 7, DW_OP_stack_value] $sp
	@DEBUG_VALUE: mbedtls_rsa_complete:ctx <- [DW_OP_plus_uconst 16] [$sp+0]
	.loc	4 295 20 is_stmt 1              @ ../../../ThirdParty/mbedTLS/library/rsa.c:295:20
	mov	r0, r7
.Ltmp80:
	bl	mbedtls_mpi_size
	.loc	4 295 18 is_stmt 0              @ ../../../ThirdParty/mbedTLS/library/rsa.c:295:18
	ldr	r1, [sp, #16]                   @ 4-byte Reload
	str	r0, [r1, #4]
	ldr	r2, [sp, #52]                   @ 4-byte Reload
.Ltmp81:
	@DEBUG_VALUE: mbedtls_rsa_complete:is_priv <- $r2
.LBB2_8:
	@DEBUG_VALUE: mbedtls_rsa_complete:d_missing <- [DW_OP_LLVM_convert 1 7, DW_OP_LLVM_convert 32 7, DW_OP_stack_value] $r5
	@DEBUG_VALUE: mbedtls_rsa_complete:is_priv <- $r2
	@DEBUG_VALUE: mbedtls_rsa_complete:pq_missing <- [DW_OP_plus_uconst 56, DW_OP_deref_size 4, DW_OP_LLVM_convert 1 7, DW_OP_LLVM_convert 32 7, DW_OP_stack_value] $sp
	@DEBUG_VALUE: mbedtls_rsa_complete:ctx <- [DW_OP_plus_uconst 16] [$sp+0]
	.loc	4 302 9 is_stmt 1               @ ../../../ThirdParty/mbedTLS/library/rsa.c:302:9
	ldr	r0, [sp, #56]                   @ 4-byte Reload
	cbz	r0, .LBB2_11
.Ltmp82:
@ %bb.9:
	@DEBUG_VALUE: mbedtls_rsa_complete:d_missing <- [DW_OP_LLVM_convert 1 7, DW_OP_LLVM_convert 32 7, DW_OP_stack_value] $r5
	@DEBUG_VALUE: mbedtls_rsa_complete:is_priv <- $r2
	@DEBUG_VALUE: mbedtls_rsa_complete:pq_missing <- [DW_OP_plus_uconst 56, DW_OP_deref_size 4, DW_OP_LLVM_convert 1 7, DW_OP_LLVM_convert 32 7, DW_OP_stack_value] $sp
	@DEBUG_VALUE: mbedtls_rsa_complete:ctx <- [DW_OP_plus_uconst 16] [$sp+0]
	.loc	4 304 15                        @ ../../../ThirdParty/mbedTLS/library/rsa.c:304:15
	str	r6, [sp]
	mov	r0, r7
	ldr	r1, [sp, #12]                   @ 4-byte Reload
	mov	r5, r2
.Ltmp83:
	@DEBUG_VALUE: mbedtls_rsa_complete:is_priv <- $r5
	ldr	r2, [sp, #20]                   @ 4-byte Reload
	mov	r3, r4
	bl	mbedtls_rsa_deduce_primes
	mov	r2, r5
.Ltmp84:
	@DEBUG_VALUE: mbedtls_rsa_complete:ret <- $r0
	.loc	4 306 13                        @ ../../../ThirdParty/mbedTLS/library/rsa.c:306:13
	cbz	r0, .LBB2_14
.Ltmp85:
@ %bb.10:
	@DEBUG_VALUE: mbedtls_rsa_complete:is_priv <- $r5
	@DEBUG_VALUE: mbedtls_rsa_complete:ret <- $r0
	@DEBUG_VALUE: mbedtls_rsa_complete:pq_missing <- [DW_OP_plus_uconst 56, DW_OP_deref_size 4, DW_OP_LLVM_convert 1 7, DW_OP_LLVM_convert 32 7, DW_OP_stack_value] $sp
	@DEBUG_VALUE: mbedtls_rsa_complete:ctx <- [DW_OP_plus_uconst 16] [$sp+0]
	.loc	4 0 13 is_stmt 0                @ ../../../ThirdParty/mbedTLS/library/rsa.c:0:13
	ldr	r1, __arm_cp.2_0
.Ltmp86:
	.loc	4 307 52 is_stmt 1              @ ../../../ThirdParty/mbedTLS/library/rsa.c:307:52
	adds	r1, r0, r1
	.loc	4 307 13 is_stmt 0              @ ../../../ThirdParty/mbedTLS/library/rsa.c:307:13
	b	.LBB2_18
.Ltmp87:
.LBB2_11:
	@DEBUG_VALUE: mbedtls_rsa_complete:d_missing <- [DW_OP_LLVM_convert 1 7, DW_OP_LLVM_convert 32 7, DW_OP_stack_value] $r5
	@DEBUG_VALUE: mbedtls_rsa_complete:is_priv <- $r2
	@DEBUG_VALUE: mbedtls_rsa_complete:pq_missing <- [DW_OP_plus_uconst 56, DW_OP_deref_size 4, DW_OP_LLVM_convert 1 7, DW_OP_LLVM_convert 32 7, DW_OP_stack_value] $sp
	@DEBUG_VALUE: mbedtls_rsa_complete:ctx <- [DW_OP_plus_uconst 16] [$sp+0]
	.loc	4 310 14 is_stmt 1              @ ../../../ThirdParty/mbedTLS/library/rsa.c:310:14
	cbz	r5, .LBB2_14
.Ltmp88:
@ %bb.12:
	@DEBUG_VALUE: mbedtls_rsa_complete:d_missing <- [DW_OP_LLVM_convert 1 7, DW_OP_LLVM_convert 32 7, DW_OP_stack_value] $r5
	@DEBUG_VALUE: mbedtls_rsa_complete:is_priv <- $r2
	@DEBUG_VALUE: mbedtls_rsa_complete:pq_missing <- [DW_OP_plus_uconst 56, DW_OP_deref_size 4, DW_OP_LLVM_convert 1 7, DW_OP_LLVM_convert 32 7, DW_OP_stack_value] $sp
	@DEBUG_VALUE: mbedtls_rsa_complete:ctx <- [DW_OP_plus_uconst 16] [$sp+0]
	.loc	4 312 21                        @ ../../../ThirdParty/mbedTLS/library/rsa.c:312:21
	mov	r0, r4
	mov	r1, r6
	mov	r5, r2
.Ltmp89:
	@DEBUG_VALUE: mbedtls_rsa_complete:is_priv <- $r5
	ldr	r2, [sp, #12]                   @ 4-byte Reload
	ldr	r3, [sp, #20]                   @ 4-byte Reload
	bl	mbedtls_rsa_deduce_private_exponent
	mov	r2, r5
.Ltmp90:
	@DEBUG_VALUE: mbedtls_rsa_complete:ret <- $r0
	.loc	4 312 13 is_stmt 0              @ ../../../ThirdParty/mbedTLS/library/rsa.c:312:13
	cbz	r0, .LBB2_14
.Ltmp91:
@ %bb.13:
	@DEBUG_VALUE: mbedtls_rsa_complete:is_priv <- $r5
	@DEBUG_VALUE: mbedtls_rsa_complete:ret <- $r0
	@DEBUG_VALUE: mbedtls_rsa_complete:pq_missing <- [DW_OP_plus_uconst 56, DW_OP_deref_size 4, DW_OP_LLVM_convert 1 7, DW_OP_LLVM_convert 32 7, DW_OP_stack_value] $sp
	@DEBUG_VALUE: mbedtls_rsa_complete:ctx <- [DW_OP_plus_uconst 16] [$sp+0]
	.loc	4 0 13                          @ ../../../ThirdParty/mbedTLS/library/rsa.c:0:13
	ldr	r1, __arm_cp.2_0
.Ltmp92:
	.loc	4 317 52 is_stmt 1              @ ../../../ThirdParty/mbedTLS/library/rsa.c:317:52
	adds	r1, r0, r1
	.loc	4 317 13 is_stmt 0              @ ../../../ThirdParty/mbedTLS/library/rsa.c:317:13
	b	.LBB2_18
.Ltmp93:
.LBB2_14:
	@DEBUG_VALUE: mbedtls_rsa_complete:pq_missing <- [DW_OP_plus_uconst 56, DW_OP_deref_size 4, DW_OP_LLVM_convert 1 7, DW_OP_LLVM_convert 32 7, DW_OP_stack_value] $sp
	@DEBUG_VALUE: mbedtls_rsa_complete:ctx <- [DW_OP_plus_uconst 16] [$sp+0]
	.loc	4 327 9 is_stmt 1               @ ../../../ThirdParty/mbedTLS/library/rsa.c:327:9
	cbz	r2, .LBB2_17
.Ltmp94:
@ %bb.15:
	@DEBUG_VALUE: mbedtls_rsa_complete:pq_missing <- [DW_OP_plus_uconst 56, DW_OP_deref_size 4, DW_OP_LLVM_convert 1 7, DW_OP_LLVM_convert 32 7, DW_OP_stack_value] $sp
	@DEBUG_VALUE: mbedtls_rsa_complete:ctx <- [DW_OP_plus_uconst 16] [$sp+0]
	.loc	4 0 9 is_stmt 0                 @ ../../../ThirdParty/mbedTLS/library/rsa.c:0:9
	ldr	r3, [sp, #16]                   @ 4-byte Reload
.Ltmp95:
	.loc	4 330 65 is_stmt 1              @ ../../../ThirdParty/mbedTLS/library/rsa.c:330:65
	mov	r0, r3
	adds	r0, #92
	.loc	4 330 55 is_stmt 0              @ ../../../ThirdParty/mbedTLS/library/rsa.c:330:55
	mov	r1, r3
	adds	r1, #80
	.loc	4 329 15 is_stmt 1              @ ../../../ThirdParty/mbedTLS/library/rsa.c:329:15
	str	r1, [sp]
	str	r0, [sp, #4]
	.loc	4 330 45                        @ ../../../ThirdParty/mbedTLS/library/rsa.c:330:45
	adds	r3, #68
	.loc	4 329 15                        @ ../../../ThirdParty/mbedTLS/library/rsa.c:329:15
	mov	r0, r4
	mov	r1, r6
	mov	r4, r2
	ldr	r2, [sp, #20]                   @ 4-byte Reload
	bl	mbedtls_rsa_deduce_crt
	mov	r2, r4
.Ltmp96:
	@DEBUG_VALUE: mbedtls_rsa_complete:ret <- $r0
	.loc	4 331 13                        @ ../../../ThirdParty/mbedTLS/library/rsa.c:331:13
	cbz	r0, .LBB2_17
.Ltmp97:
@ %bb.16:
	@DEBUG_VALUE: mbedtls_rsa_complete:ret <- $r0
	@DEBUG_VALUE: mbedtls_rsa_complete:pq_missing <- [DW_OP_plus_uconst 56, DW_OP_deref_size 4, DW_OP_LLVM_convert 1 7, DW_OP_LLVM_convert 32 7, DW_OP_stack_value] $sp
	@DEBUG_VALUE: mbedtls_rsa_complete:ctx <- [DW_OP_plus_uconst 16] [$sp+0]
	.loc	4 0 13 is_stmt 0                @ ../../../ThirdParty/mbedTLS/library/rsa.c:0:13
	ldr	r1, __arm_cp.2_0
.Ltmp98:
	.loc	4 332 52 is_stmt 1              @ ../../../ThirdParty/mbedTLS/library/rsa.c:332:52
	adds	r1, r0, r1
	.loc	4 332 13 is_stmt 0              @ ../../../ThirdParty/mbedTLS/library/rsa.c:332:13
	b	.LBB2_18
.Ltmp99:
.LBB2_17:
	@DEBUG_VALUE: mbedtls_rsa_complete:pq_missing <- [DW_OP_plus_uconst 56, DW_OP_deref_size 4, DW_OP_LLVM_convert 1 7, DW_OP_LLVM_convert 32 7, DW_OP_stack_value] $sp
	@DEBUG_VALUE: mbedtls_rsa_complete:ctx <- [DW_OP_plus_uconst 16] [$sp+0]
	.loc	4 340 13 is_stmt 1              @ ../../../ThirdParty/mbedTLS/library/rsa.c:340:13
	ldr	r0, [sp, #16]                   @ 4-byte Reload
	mov	r1, r2
	bl	rsa_check_context
	mov	r1, r0
.Ltmp100:
.LBB2_18:
	@DEBUG_VALUE: mbedtls_rsa_complete:pq_missing <- [DW_OP_plus_uconst 56, DW_OP_deref_size 4, DW_OP_LLVM_convert 1 7, DW_OP_LLVM_convert 32 7, DW_OP_stack_value] $sp
	@DEBUG_VALUE: mbedtls_rsa_complete:ctx <- [DW_OP_plus_uconst 16] [$sp+0]
	.loc	4 341 1                         @ ../../../ThirdParty/mbedTLS/library/rsa.c:341:1
	mov	r0, r1
	add	sp, #60
.Ltmp101:
	pop	{r4, r5, r6, r7, pc}
.Ltmp102:
	.p2align	2
@ %bb.19:
	.loc	4 0 1 is_stmt 0                 @ ../../../ThirdParty/mbedTLS/library/rsa.c:0:1
__arm_cp.2_0:
	.long	4294950784                      @ 0xffffbf80
.Lcpi_end0:
	.size	__arm_cp.2_0, .Lcpi_end0-__arm_cp.2_0
.Lfunc_end2:
	.size	mbedtls_rsa_complete, .Lfunc_end2-mbedtls_rsa_complete
	.cfi_endproc
	.cantunwind
	.fnend
                                        @ -- End function
	.section	.text.rsa_check_context,"ax",%progbits
	.p2align	2                               @ -- Begin function rsa_check_context
	.type	rsa_check_context,%function
	.code	16                              @ @rsa_check_context
	.thumb_func
rsa_check_context:
.Lfunc_begin3:
	.loc	4 162 0 is_stmt 1               @ ../../../ThirdParty/mbedTLS/library/rsa.c:162:0
	.fnstart
	.cfi_startproc
@ %bb.0:
	@DEBUG_VALUE: rsa_check_context:ctx <- $r0
	@DEBUG_VALUE: rsa_check_context:is_priv <- $r1
	.save	{r4, r5, r6, r7, lr}
	push	{r4, r5, r6, r7, lr}
	.cfi_def_cfa_offset 20
	.cfi_offset lr, -4
	.cfi_offset r7, -8
	.cfi_offset r6, -12
	.cfi_offset r5, -16
	.cfi_offset r4, -20
	.pad	#4
	sub	sp, #4
	.cfi_def_cfa_offset 24
	mov	r4, r1
	mov	r5, r0
	@DEBUG_VALUE: rsa_check_context:blinding_needed <- undef
.Ltmp103:
	@DEBUG_VALUE: rsa_check_context:is_priv <- $r4
	@DEBUG_VALUE: rsa_check_context:ctx <- $r5
	.loc	4 169 14 prologue_end           @ ../../../ThirdParty/mbedTLS/library/rsa.c:169:14
	ldr	r6, [r0, #4]
	.loc	4 169 45 is_stmt 0              @ ../../../ThirdParty/mbedTLS/library/rsa.c:169:45
	mov	r7, r0
	adds	r7, #8
	.loc	4 169 21                        @ ../../../ThirdParty/mbedTLS/library/rsa.c:169:21
	mov	r0, r7
	bl	mbedtls_mpi_size
	ldr	r2, __arm_cp.3_0
	.loc	4 169 49                        @ ../../../ThirdParty/mbedTLS/library/rsa.c:169:49
	cmp	r6, r0
	bne	.LBB3_24
.Ltmp104:
@ %bb.1:
	@DEBUG_VALUE: rsa_check_context:ctx <- $r5
	@DEBUG_VALUE: rsa_check_context:is_priv <- $r4
	.loc	4 170 18 is_stmt 1              @ ../../../ThirdParty/mbedTLS/library/rsa.c:170:18
	ldr	r0, [r5, #4]
	movw	r1, #1024
.Ltmp105:
	.loc	4 169 9                         @ ../../../ThirdParty/mbedTLS/library/rsa.c:169:9
	cmp	r0, r1
	bhi	.LBB3_24
.Ltmp106:
@ %bb.2:
	@DEBUG_VALUE: rsa_check_context:ctx <- $r5
	@DEBUG_VALUE: rsa_check_context:is_priv <- $r4
	.loc	4 0 9 is_stmt 0                 @ ../../../ThirdParty/mbedTLS/library/rsa.c:0:9
	mov	r6, r2
	movs	r1, #0
.Ltmp107:
	.loc	4 181 9 is_stmt 1               @ ../../../ThirdParty/mbedTLS/library/rsa.c:181:9
	mov	r0, r7
	bl	mbedtls_mpi_cmp_int
	.loc	4 181 48 is_stmt 0              @ ../../../ThirdParty/mbedTLS/library/rsa.c:181:48
	cmp	r0, #1
	blt	.LBB3_15
.Ltmp108:
@ %bb.3:
	@DEBUG_VALUE: rsa_check_context:ctx <- $r5
	@DEBUG_VALUE: rsa_check_context:is_priv <- $r4
	.loc	4 0 48                          @ ../../../ThirdParty/mbedTLS/library/rsa.c:0:48
	movs	r1, #0
	.loc	4 182 13 is_stmt 1              @ ../../../ThirdParty/mbedTLS/library/rsa.c:182:13
	mov	r0, r7
	bl	mbedtls_mpi_get_bit
.Ltmp109:
	.loc	4 181 9                         @ ../../../ThirdParty/mbedTLS/library/rsa.c:181:9
	cbz	r0, .LBB3_16
.Ltmp110:
@ %bb.4:
	@DEBUG_VALUE: rsa_check_context:ctx <- $r5
	@DEBUG_VALUE: rsa_check_context:is_priv <- $r4
	.loc	4 191 17                        @ ../../../ThirdParty/mbedTLS/library/rsa.c:191:17
	cbz	r4, .LBB3_9
.Ltmp111:
@ %bb.5:
	@DEBUG_VALUE: rsa_check_context:ctx <- $r5
	@DEBUG_VALUE: rsa_check_context:is_priv <- $r4
	.loc	4 192 42                        @ ../../../ThirdParty/mbedTLS/library/rsa.c:192:42
	mov	r7, r5
	adds	r7, #44
	movs	r1, #0
	.loc	4 192 15 is_stmt 0              @ ../../../ThirdParty/mbedTLS/library/rsa.c:192:15
	mov	r0, r7
	bl	mbedtls_mpi_cmp_int
	.loc	4 192 54                        @ ../../../ThirdParty/mbedTLS/library/rsa.c:192:54
	cmp	r0, #1
	blt	.LBB3_17
.Ltmp112:
@ %bb.6:
	@DEBUG_VALUE: rsa_check_context:ctx <- $r5
	@DEBUG_VALUE: rsa_check_context:is_priv <- $r4
	.loc	4 0 54                          @ ../../../ThirdParty/mbedTLS/library/rsa.c:0:54
	movs	r1, #0
	.loc	4 193 15 is_stmt 1              @ ../../../ThirdParty/mbedTLS/library/rsa.c:193:15
	mov	r0, r7
	bl	mbedtls_mpi_get_bit
	.loc	4 193 54 is_stmt 0              @ ../../../ThirdParty/mbedTLS/library/rsa.c:193:54
	cbz	r0, .LBB3_19
.Ltmp113:
@ %bb.7:
	@DEBUG_VALUE: rsa_check_context:ctx <- $r5
	@DEBUG_VALUE: rsa_check_context:is_priv <- $r4
	.loc	4 194 42 is_stmt 1              @ ../../../ThirdParty/mbedTLS/library/rsa.c:194:42
	mov	r7, r5
	adds	r7, #56
	movs	r1, #0
	.loc	4 194 15 is_stmt 0              @ ../../../ThirdParty/mbedTLS/library/rsa.c:194:15
	mov	r0, r7
	bl	mbedtls_mpi_cmp_int
	.loc	4 194 54                        @ ../../../ThirdParty/mbedTLS/library/rsa.c:194:54
	cmp	r0, #1
	blt	.LBB3_20
.Ltmp114:
@ %bb.8:
	@DEBUG_VALUE: rsa_check_context:ctx <- $r5
	@DEBUG_VALUE: rsa_check_context:is_priv <- $r4
	.loc	4 0 54                          @ ../../../ThirdParty/mbedTLS/library/rsa.c:0:54
	movs	r1, #0
	.loc	4 195 15 is_stmt 1              @ ../../../ThirdParty/mbedTLS/library/rsa.c:195:15
	mov	r0, r7
	bl	mbedtls_mpi_get_bit
.Ltmp115:
	.loc	4 191 9                         @ ../../../ThirdParty/mbedTLS/library/rsa.c:191:9
	cbz	r0, .LBB3_22
.Ltmp116:
.LBB3_9:
	@DEBUG_VALUE: rsa_check_context:ctx <- $r5
	@DEBUG_VALUE: rsa_check_context:is_priv <- $r4
	.loc	4 206 36                        @ ../../../ThirdParty/mbedTLS/library/rsa.c:206:36
	mov	r0, r5
	adds	r0, #20
	movs	r7, #0
	.loc	4 206 9 is_stmt 0               @ ../../../ThirdParty/mbedTLS/library/rsa.c:206:9
	mov	r1, r7
	bl	mbedtls_mpi_cmp_int
.Ltmp117:
	.loc	4 206 9                         @ ../../../ThirdParty/mbedTLS/library/rsa.c:206:9
	cmp	r0, #1
	blt	.LBB3_18
.Ltmp118:
@ %bb.10:
	@DEBUG_VALUE: rsa_check_context:ctx <- $r5
	@DEBUG_VALUE: rsa_check_context:is_priv <- $r4
	.loc	4 215 17 is_stmt 1              @ ../../../ThirdParty/mbedTLS/library/rsa.c:215:17
	cbz	r4, .LBB3_14
.Ltmp119:
@ %bb.11:
	@DEBUG_VALUE: rsa_check_context:ctx <- $r5
	@DEBUG_VALUE: rsa_check_context:is_priv <- $r4
	.loc	4 216 42                        @ ../../../ThirdParty/mbedTLS/library/rsa.c:216:42
	mov	r0, r5
	adds	r0, #68
	movs	r1, #0
	.loc	4 216 15 is_stmt 0              @ ../../../ThirdParty/mbedTLS/library/rsa.c:216:15
	bl	mbedtls_mpi_cmp_int
	.loc	4 216 55                        @ ../../../ThirdParty/mbedTLS/library/rsa.c:216:55
	cmp	r0, #1
	blt	.LBB3_21
.Ltmp120:
@ %bb.12:
	@DEBUG_VALUE: rsa_check_context:ctx <- $r5
	@DEBUG_VALUE: rsa_check_context:is_priv <- $r4
	.loc	4 217 42 is_stmt 1              @ ../../../ThirdParty/mbedTLS/library/rsa.c:217:42
	mov	r0, r5
	adds	r0, #80
	movs	r1, #0
	.loc	4 217 15 is_stmt 0              @ ../../../ThirdParty/mbedTLS/library/rsa.c:217:15
	bl	mbedtls_mpi_cmp_int
.Ltmp121:
	.loc	4 215 9 is_stmt 1               @ ../../../ThirdParty/mbedTLS/library/rsa.c:215:9
	cmp	r0, #1
	blt	.LBB3_23
.Ltmp122:
@ %bb.13:
	@DEBUG_VALUE: rsa_check_context:ctx <- $r5
	@DEBUG_VALUE: rsa_check_context:is_priv <- $r4
	.loc	4 239 40                        @ ../../../ThirdParty/mbedTLS/library/rsa.c:239:40
	adds	r5, #92
.Ltmp123:
	.loc	4 0 40 is_stmt 0                @ ../../../ThirdParty/mbedTLS/library/rsa.c:0:40
	movs	r1, #0
	.loc	4 239 13                        @ ../../../ThirdParty/mbedTLS/library/rsa.c:239:13
	mov	r0, r5
	bl	mbedtls_mpi_cmp_int
.Ltmp124:
	.loc	4 238 9 is_stmt 1               @ ../../../ThirdParty/mbedTLS/library/rsa.c:238:9
	cmp	r0, #1
	mov	r2, r6
	blt	.LBB3_24
.Ltmp125:
.LBB3_14:
	@DEBUG_VALUE: rsa_check_context:is_priv <- $r4
	.loc	4 0 0 is_stmt 0                 @ ../../../ThirdParty/mbedTLS/library/rsa.c:0:0
	mov	r2, r7
	b	.LBB3_24
.Ltmp126:
.LBB3_15:
	@DEBUG_VALUE: rsa_check_context:ctx <- $r5
	@DEBUG_VALUE: rsa_check_context:is_priv <- $r4
	mov	r2, r6
	b	.LBB3_24
.Ltmp127:
.LBB3_16:
	@DEBUG_VALUE: rsa_check_context:ctx <- $r5
	@DEBUG_VALUE: rsa_check_context:is_priv <- $r4
	mov	r2, r6
	b	.LBB3_24
.Ltmp128:
.LBB3_17:
	@DEBUG_VALUE: rsa_check_context:ctx <- $r5
	@DEBUG_VALUE: rsa_check_context:is_priv <- $r4
	mov	r2, r6
	b	.LBB3_24
.Ltmp129:
.LBB3_18:
	@DEBUG_VALUE: rsa_check_context:ctx <- $r5
	@DEBUG_VALUE: rsa_check_context:is_priv <- $r4
	mov	r2, r6
	b	.LBB3_24
.Ltmp130:
.LBB3_19:
	@DEBUG_VALUE: rsa_check_context:ctx <- $r5
	@DEBUG_VALUE: rsa_check_context:is_priv <- $r4
	mov	r2, r6
	b	.LBB3_24
.Ltmp131:
.LBB3_20:
	@DEBUG_VALUE: rsa_check_context:ctx <- $r5
	@DEBUG_VALUE: rsa_check_context:is_priv <- $r4
	mov	r2, r6
	b	.LBB3_24
.Ltmp132:
.LBB3_21:
	@DEBUG_VALUE: rsa_check_context:ctx <- $r5
	@DEBUG_VALUE: rsa_check_context:is_priv <- $r4
	mov	r2, r6
	b	.LBB3_24
.Ltmp133:
.LBB3_22:
	@DEBUG_VALUE: rsa_check_context:ctx <- $r5
	@DEBUG_VALUE: rsa_check_context:is_priv <- $r4
	mov	r2, r6
	b	.LBB3_24
.Ltmp134:
.LBB3_23:
	@DEBUG_VALUE: rsa_check_context:ctx <- $r5
	@DEBUG_VALUE: rsa_check_context:is_priv <- $r4
	mov	r2, r6
.Ltmp135:
.LBB3_24:
	@DEBUG_VALUE: rsa_check_context:is_priv <- $r4
	.loc	4 246 1 is_stmt 1               @ ../../../ThirdParty/mbedTLS/library/rsa.c:246:1
	mov	r0, r2
	add	sp, #4
	pop	{r4, r5, r6, r7, pc}
.Ltmp136:
	.p2align	2
@ %bb.25:
	.loc	4 0 1 is_stmt 0                 @ ../../../ThirdParty/mbedTLS/library/rsa.c:0:1
__arm_cp.3_0:
	.long	4294950784                      @ 0xffffbf80
.Lcpi_end1:
	.size	__arm_cp.3_0, .Lcpi_end1-__arm_cp.3_0
.Lfunc_end3:
	.size	rsa_check_context, .Lfunc_end3-rsa_check_context
	.cfi_endproc
	.cantunwind
	.fnend
                                        @ -- End function
	.section	.text.mbedtls_rsa_export_raw,"ax",%progbits
	.hidden	mbedtls_rsa_export_raw          @ -- Begin function mbedtls_rsa_export_raw
	.globl	mbedtls_rsa_export_raw
	.p2align	2
	.type	mbedtls_rsa_export_raw,%function
	.code	16                              @ @mbedtls_rsa_export_raw
	.thumb_func
mbedtls_rsa_export_raw:
.Lfunc_begin4:
	.loc	4 349 0 is_stmt 1               @ ../../../ThirdParty/mbedTLS/library/rsa.c:349:0
	.fnstart
	.cfi_startproc
@ %bb.0:
	@DEBUG_VALUE: mbedtls_rsa_export_raw:ctx <- $r0
	@DEBUG_VALUE: mbedtls_rsa_export_raw:N <- $r1
	@DEBUG_VALUE: mbedtls_rsa_export_raw:N_len <- $r2
	@DEBUG_VALUE: mbedtls_rsa_export_raw:P <- $r3
	.save	{r4, r5, r6, r7, lr}
	push	{r4, r5, r6, r7, lr}
	.cfi_def_cfa_offset 20
	.cfi_offset lr, -4
	.cfi_offset r7, -8
	.cfi_offset r6, -12
	.cfi_offset r5, -16
	.cfi_offset r4, -20
	.pad	#20
	sub	sp, #20
	.cfi_def_cfa_offset 40
	mov	r5, r3
	str	r2, [sp, #8]                    @ 4-byte Spill
	mov	r6, r1
	mov	r7, r0
.Ltmp137:
	@DEBUG_VALUE: mbedtls_rsa_export_raw:E_len <- [DW_OP_plus_uconst 64] [$sp+0]
	@DEBUG_VALUE: mbedtls_rsa_export_raw:E <- [DW_OP_plus_uconst 60] [$sp+0]
	@DEBUG_VALUE: mbedtls_rsa_export_raw:D_len <- [DW_OP_plus_uconst 56] [$sp+0]
	@DEBUG_VALUE: mbedtls_rsa_export_raw:D <- [DW_OP_plus_uconst 52] [$sp+0]
	@DEBUG_VALUE: mbedtls_rsa_export_raw:Q_len <- [DW_OP_plus_uconst 48] [$sp+0]
	@DEBUG_VALUE: mbedtls_rsa_export_raw:Q <- [DW_OP_plus_uconst 44] [$sp+0]
	@DEBUG_VALUE: mbedtls_rsa_export_raw:P_len <- [DW_OP_plus_uconst 40] [$sp+0]
	@DEBUG_VALUE: mbedtls_rsa_export_raw:P <- $r5
	@DEBUG_VALUE: mbedtls_rsa_export_raw:N_len <- [DW_OP_plus_uconst 8] [$sp+0]
	@DEBUG_VALUE: mbedtls_rsa_export_raw:N <- $r6
	@DEBUG_VALUE: mbedtls_rsa_export_raw:ctx <- $r7
	@DEBUG_VALUE: mbedtls_rsa_export_raw:ret <- 0
	.loc	4 356 36 prologue_end           @ ../../../ThirdParty/mbedTLS/library/rsa.c:356:36
	mov	r4, r0
	adds	r4, #8
	movs	r1, #0
	.loc	4 356 9 is_stmt 0               @ ../../../ThirdParty/mbedTLS/library/rsa.c:356:9
	mov	r0, r4
	str	r1, [sp, #4]                    @ 4-byte Spill
	bl	mbedtls_mpi_cmp_int
	ldr	r1, [sp, #52]
	str	r1, [sp, #12]                   @ 4-byte Spill
	ldr	r1, [sp, #44]
	.loc	4 356 48                        @ ../../../ThirdParty/mbedTLS/library/rsa.c:356:48
	str	r1, [sp, #16]                   @ 4-byte Spill
	cbz	r0, .LBB4_5
.Ltmp138:
@ %bb.1:
	@DEBUG_VALUE: mbedtls_rsa_export_raw:ctx <- $r7
	@DEBUG_VALUE: mbedtls_rsa_export_raw:N <- $r6
	@DEBUG_VALUE: mbedtls_rsa_export_raw:P <- $r5
	@DEBUG_VALUE: mbedtls_rsa_export_raw:N_len <- [DW_OP_plus_uconst 8] [$sp+0]
	@DEBUG_VALUE: mbedtls_rsa_export_raw:P_len <- [DW_OP_plus_uconst 40] [$sp+0]
	@DEBUG_VALUE: mbedtls_rsa_export_raw:Q <- [DW_OP_plus_uconst 44] [$sp+0]
	@DEBUG_VALUE: mbedtls_rsa_export_raw:Q_len <- [DW_OP_plus_uconst 48] [$sp+0]
	@DEBUG_VALUE: mbedtls_rsa_export_raw:D <- [DW_OP_plus_uconst 52] [$sp+0]
	@DEBUG_VALUE: mbedtls_rsa_export_raw:D_len <- [DW_OP_plus_uconst 56] [$sp+0]
	@DEBUG_VALUE: mbedtls_rsa_export_raw:E <- [DW_OP_plus_uconst 60] [$sp+0]
	@DEBUG_VALUE: mbedtls_rsa_export_raw:E_len <- [DW_OP_plus_uconst 64] [$sp+0]
	@DEBUG_VALUE: mbedtls_rsa_export_raw:ret <- 0
	.loc	4 357 36 is_stmt 1              @ ../../../ThirdParty/mbedTLS/library/rsa.c:357:36
	mov	r0, r7
	adds	r0, #44
	movs	r1, #0
	.loc	4 357 9 is_stmt 0               @ ../../../ThirdParty/mbedTLS/library/rsa.c:357:9
	bl	mbedtls_mpi_cmp_int
	.loc	4 357 48                        @ ../../../ThirdParty/mbedTLS/library/rsa.c:357:48
	cbz	r0, .LBB4_5
.Ltmp139:
@ %bb.2:
	@DEBUG_VALUE: mbedtls_rsa_export_raw:ctx <- $r7
	@DEBUG_VALUE: mbedtls_rsa_export_raw:N <- $r6
	@DEBUG_VALUE: mbedtls_rsa_export_raw:P <- $r5
	@DEBUG_VALUE: mbedtls_rsa_export_raw:N_len <- [DW_OP_plus_uconst 8] [$sp+0]
	@DEBUG_VALUE: mbedtls_rsa_export_raw:P_len <- [DW_OP_plus_uconst 40] [$sp+0]
	@DEBUG_VALUE: mbedtls_rsa_export_raw:Q <- [DW_OP_plus_uconst 44] [$sp+0]
	@DEBUG_VALUE: mbedtls_rsa_export_raw:Q_len <- [DW_OP_plus_uconst 48] [$sp+0]
	@DEBUG_VALUE: mbedtls_rsa_export_raw:D <- [DW_OP_plus_uconst 52] [$sp+0]
	@DEBUG_VALUE: mbedtls_rsa_export_raw:D_len <- [DW_OP_plus_uconst 56] [$sp+0]
	@DEBUG_VALUE: mbedtls_rsa_export_raw:E <- [DW_OP_plus_uconst 60] [$sp+0]
	@DEBUG_VALUE: mbedtls_rsa_export_raw:E_len <- [DW_OP_plus_uconst 64] [$sp+0]
	@DEBUG_VALUE: mbedtls_rsa_export_raw:ret <- 0
	.loc	4 358 36 is_stmt 1              @ ../../../ThirdParty/mbedTLS/library/rsa.c:358:36
	mov	r0, r7
	adds	r0, #56
	movs	r1, #0
	.loc	4 358 9 is_stmt 0               @ ../../../ThirdParty/mbedTLS/library/rsa.c:358:9
	bl	mbedtls_mpi_cmp_int
	.loc	4 358 48                        @ ../../../ThirdParty/mbedTLS/library/rsa.c:358:48
	cbz	r0, .LBB4_5
.Ltmp140:
@ %bb.3:
	@DEBUG_VALUE: mbedtls_rsa_export_raw:ctx <- $r7
	@DEBUG_VALUE: mbedtls_rsa_export_raw:N <- $r6
	@DEBUG_VALUE: mbedtls_rsa_export_raw:P <- $r5
	@DEBUG_VALUE: mbedtls_rsa_export_raw:N_len <- [DW_OP_plus_uconst 8] [$sp+0]
	@DEBUG_VALUE: mbedtls_rsa_export_raw:P_len <- [DW_OP_plus_uconst 40] [$sp+0]
	@DEBUG_VALUE: mbedtls_rsa_export_raw:Q <- [DW_OP_plus_uconst 44] [$sp+0]
	@DEBUG_VALUE: mbedtls_rsa_export_raw:Q_len <- [DW_OP_plus_uconst 48] [$sp+0]
	@DEBUG_VALUE: mbedtls_rsa_export_raw:D <- [DW_OP_plus_uconst 52] [$sp+0]
	@DEBUG_VALUE: mbedtls_rsa_export_raw:D_len <- [DW_OP_plus_uconst 56] [$sp+0]
	@DEBUG_VALUE: mbedtls_rsa_export_raw:E <- [DW_OP_plus_uconst 60] [$sp+0]
	@DEBUG_VALUE: mbedtls_rsa_export_raw:E_len <- [DW_OP_plus_uconst 64] [$sp+0]
	@DEBUG_VALUE: mbedtls_rsa_export_raw:ret <- 0
	.loc	4 359 36 is_stmt 1              @ ../../../ThirdParty/mbedTLS/library/rsa.c:359:36
	mov	r0, r7
	adds	r0, #32
	movs	r1, #0
	.loc	4 359 9 is_stmt 0               @ ../../../ThirdParty/mbedTLS/library/rsa.c:359:9
	bl	mbedtls_mpi_cmp_int
	.loc	4 359 48                        @ ../../../ThirdParty/mbedTLS/library/rsa.c:359:48
	cbz	r0, .LBB4_5
.Ltmp141:
@ %bb.4:
	@DEBUG_VALUE: mbedtls_rsa_export_raw:ctx <- $r7
	@DEBUG_VALUE: mbedtls_rsa_export_raw:N <- $r6
	@DEBUG_VALUE: mbedtls_rsa_export_raw:P <- $r5
	@DEBUG_VALUE: mbedtls_rsa_export_raw:N_len <- [DW_OP_plus_uconst 8] [$sp+0]
	@DEBUG_VALUE: mbedtls_rsa_export_raw:P_len <- [DW_OP_plus_uconst 40] [$sp+0]
	@DEBUG_VALUE: mbedtls_rsa_export_raw:Q <- [DW_OP_plus_uconst 44] [$sp+0]
	@DEBUG_VALUE: mbedtls_rsa_export_raw:Q_len <- [DW_OP_plus_uconst 48] [$sp+0]
	@DEBUG_VALUE: mbedtls_rsa_export_raw:D <- [DW_OP_plus_uconst 52] [$sp+0]
	@DEBUG_VALUE: mbedtls_rsa_export_raw:D_len <- [DW_OP_plus_uconst 56] [$sp+0]
	@DEBUG_VALUE: mbedtls_rsa_export_raw:E <- [DW_OP_plus_uconst 60] [$sp+0]
	@DEBUG_VALUE: mbedtls_rsa_export_raw:E_len <- [DW_OP_plus_uconst 64] [$sp+0]
	@DEBUG_VALUE: mbedtls_rsa_export_raw:ret <- 0
	.loc	4 360 36 is_stmt 1              @ ../../../ThirdParty/mbedTLS/library/rsa.c:360:36
	mov	r0, r7
	adds	r0, #20
	movs	r1, #0
	.loc	4 360 9 is_stmt 0               @ ../../../ThirdParty/mbedTLS/library/rsa.c:360:9
	bl	mbedtls_mpi_cmp_int
.Ltmp142:
	@DEBUG_VALUE: mbedtls_rsa_export_raw:is_priv <- [DW_OP_LLVM_convert 1 7, DW_OP_LLVM_convert 32 7, DW_OP_stack_value] undef
	.loc	4 362 9 is_stmt 1               @ ../../../ThirdParty/mbedTLS/library/rsa.c:362:9
	cbnz	r0, .LBB4_8
.Ltmp143:
.LBB4_5:
	@DEBUG_VALUE: mbedtls_rsa_export_raw:ctx <- $r7
	@DEBUG_VALUE: mbedtls_rsa_export_raw:N <- $r6
	@DEBUG_VALUE: mbedtls_rsa_export_raw:P <- $r5
	@DEBUG_VALUE: mbedtls_rsa_export_raw:N_len <- [DW_OP_plus_uconst 8] [$sp+0]
	@DEBUG_VALUE: mbedtls_rsa_export_raw:P_len <- [DW_OP_plus_uconst 40] [$sp+0]
	@DEBUG_VALUE: mbedtls_rsa_export_raw:Q <- [DW_OP_plus_uconst 44] [$sp+0]
	@DEBUG_VALUE: mbedtls_rsa_export_raw:Q_len <- [DW_OP_plus_uconst 48] [$sp+0]
	@DEBUG_VALUE: mbedtls_rsa_export_raw:D <- [DW_OP_plus_uconst 52] [$sp+0]
	@DEBUG_VALUE: mbedtls_rsa_export_raw:D_len <- [DW_OP_plus_uconst 56] [$sp+0]
	@DEBUG_VALUE: mbedtls_rsa_export_raw:E <- [DW_OP_plus_uconst 60] [$sp+0]
	@DEBUG_VALUE: mbedtls_rsa_export_raw:E_len <- [DW_OP_plus_uconst 64] [$sp+0]
	@DEBUG_VALUE: mbedtls_rsa_export_raw:ret <- 0
	.loc	4 0 9 is_stmt 0                 @ ../../../ThirdParty/mbedTLS/library/rsa.c:0:9
	ldr	r0, __arm_cp.4_0
.Ltmp144:
	.loc	4 366 23 is_stmt 1              @ ../../../ThirdParty/mbedTLS/library/rsa.c:366:23
	cbnz	r5, .LBB4_10
.Ltmp145:
@ %bb.6:
	@DEBUG_VALUE: mbedtls_rsa_export_raw:ctx <- $r7
	@DEBUG_VALUE: mbedtls_rsa_export_raw:N <- $r6
	@DEBUG_VALUE: mbedtls_rsa_export_raw:P <- $r5
	@DEBUG_VALUE: mbedtls_rsa_export_raw:N_len <- [DW_OP_plus_uconst 8] [$sp+0]
	@DEBUG_VALUE: mbedtls_rsa_export_raw:P_len <- [DW_OP_plus_uconst 40] [$sp+0]
	@DEBUG_VALUE: mbedtls_rsa_export_raw:Q <- [DW_OP_plus_uconst 44] [$sp+0]
	@DEBUG_VALUE: mbedtls_rsa_export_raw:Q_len <- [DW_OP_plus_uconst 48] [$sp+0]
	@DEBUG_VALUE: mbedtls_rsa_export_raw:D <- [DW_OP_plus_uconst 52] [$sp+0]
	@DEBUG_VALUE: mbedtls_rsa_export_raw:D_len <- [DW_OP_plus_uconst 56] [$sp+0]
	@DEBUG_VALUE: mbedtls_rsa_export_raw:E <- [DW_OP_plus_uconst 60] [$sp+0]
	@DEBUG_VALUE: mbedtls_rsa_export_raw:E_len <- [DW_OP_plus_uconst 64] [$sp+0]
	@DEBUG_VALUE: mbedtls_rsa_export_raw:ret <- 0
	ldr	r1, [sp, #16]                   @ 4-byte Reload
	cbnz	r1, .LBB4_10
.Ltmp146:
@ %bb.7:
	@DEBUG_VALUE: mbedtls_rsa_export_raw:ctx <- $r7
	@DEBUG_VALUE: mbedtls_rsa_export_raw:N <- $r6
	@DEBUG_VALUE: mbedtls_rsa_export_raw:P <- $r5
	@DEBUG_VALUE: mbedtls_rsa_export_raw:N_len <- [DW_OP_plus_uconst 8] [$sp+0]
	@DEBUG_VALUE: mbedtls_rsa_export_raw:P_len <- [DW_OP_plus_uconst 40] [$sp+0]
	@DEBUG_VALUE: mbedtls_rsa_export_raw:Q <- [DW_OP_plus_uconst 44] [$sp+0]
	@DEBUG_VALUE: mbedtls_rsa_export_raw:Q_len <- [DW_OP_plus_uconst 48] [$sp+0]
	@DEBUG_VALUE: mbedtls_rsa_export_raw:D <- [DW_OP_plus_uconst 52] [$sp+0]
	@DEBUG_VALUE: mbedtls_rsa_export_raw:D_len <- [DW_OP_plus_uconst 56] [$sp+0]
	@DEBUG_VALUE: mbedtls_rsa_export_raw:E <- [DW_OP_plus_uconst 60] [$sp+0]
	@DEBUG_VALUE: mbedtls_rsa_export_raw:E_len <- [DW_OP_plus_uconst 64] [$sp+0]
	@DEBUG_VALUE: mbedtls_rsa_export_raw:ret <- 0
	ldr	r1, [sp, #12]                   @ 4-byte Reload
	cbnz	r1, .LBB4_10
.Ltmp147:
.LBB4_8:
	@DEBUG_VALUE: mbedtls_rsa_export_raw:ctx <- $r7
	@DEBUG_VALUE: mbedtls_rsa_export_raw:N <- $r6
	@DEBUG_VALUE: mbedtls_rsa_export_raw:P <- $r5
	@DEBUG_VALUE: mbedtls_rsa_export_raw:N_len <- [DW_OP_plus_uconst 8] [$sp+0]
	@DEBUG_VALUE: mbedtls_rsa_export_raw:P_len <- [DW_OP_plus_uconst 40] [$sp+0]
	@DEBUG_VALUE: mbedtls_rsa_export_raw:Q <- [DW_OP_plus_uconst 44] [$sp+0]
	@DEBUG_VALUE: mbedtls_rsa_export_raw:Q_len <- [DW_OP_plus_uconst 48] [$sp+0]
	@DEBUG_VALUE: mbedtls_rsa_export_raw:D <- [DW_OP_plus_uconst 52] [$sp+0]
	@DEBUG_VALUE: mbedtls_rsa_export_raw:D_len <- [DW_OP_plus_uconst 56] [$sp+0]
	@DEBUG_VALUE: mbedtls_rsa_export_raw:E <- [DW_OP_plus_uconst 60] [$sp+0]
	@DEBUG_VALUE: mbedtls_rsa_export_raw:E_len <- [DW_OP_plus_uconst 64] [$sp+0]
	@DEBUG_VALUE: mbedtls_rsa_export_raw:ret <- 0
	.loc	4 371 9                         @ ../../../ThirdParty/mbedTLS/library/rsa.c:371:9
	cbz	r6, .LBB4_11
.Ltmp148:
@ %bb.9:
	@DEBUG_VALUE: mbedtls_rsa_export_raw:ctx <- $r7
	@DEBUG_VALUE: mbedtls_rsa_export_raw:N <- $r6
	@DEBUG_VALUE: mbedtls_rsa_export_raw:P <- $r5
	@DEBUG_VALUE: mbedtls_rsa_export_raw:N_len <- [DW_OP_plus_uconst 8] [$sp+0]
	@DEBUG_VALUE: mbedtls_rsa_export_raw:P_len <- [DW_OP_plus_uconst 40] [$sp+0]
	@DEBUG_VALUE: mbedtls_rsa_export_raw:Q <- [DW_OP_plus_uconst 44] [$sp+0]
	@DEBUG_VALUE: mbedtls_rsa_export_raw:Q_len <- [DW_OP_plus_uconst 48] [$sp+0]
	@DEBUG_VALUE: mbedtls_rsa_export_raw:D <- [DW_OP_plus_uconst 52] [$sp+0]
	@DEBUG_VALUE: mbedtls_rsa_export_raw:D_len <- [DW_OP_plus_uconst 56] [$sp+0]
	@DEBUG_VALUE: mbedtls_rsa_export_raw:E <- [DW_OP_plus_uconst 60] [$sp+0]
	@DEBUG_VALUE: mbedtls_rsa_export_raw:E_len <- [DW_OP_plus_uconst 64] [$sp+0]
	@DEBUG_VALUE: mbedtls_rsa_export_raw:ret <- 0
	.loc	4 372 9                         @ ../../../ThirdParty/mbedTLS/library/rsa.c:372:9
	mov	r0, r4
	mov	r1, r6
	ldr	r2, [sp, #8]                    @ 4-byte Reload
	bl	mbedtls_mpi_write_binary
.Ltmp149:
	@DEBUG_VALUE: mbedtls_rsa_export_raw:ret <- $r0
	.loc	4 372 9 is_stmt 0               @ ../../../ThirdParty/mbedTLS/library/rsa.c:372:9
	cbz	r0, .LBB4_11
.Ltmp150:
.LBB4_10:
	@DEBUG_VALUE: mbedtls_rsa_export_raw:ctx <- $r7
	@DEBUG_VALUE: mbedtls_rsa_export_raw:N <- $r6
	@DEBUG_VALUE: mbedtls_rsa_export_raw:P <- $r5
	@DEBUG_VALUE: mbedtls_rsa_export_raw:N_len <- [DW_OP_plus_uconst 8] [$sp+0]
	@DEBUG_VALUE: mbedtls_rsa_export_raw:P_len <- [DW_OP_plus_uconst 40] [$sp+0]
	@DEBUG_VALUE: mbedtls_rsa_export_raw:Q <- [DW_OP_plus_uconst 44] [$sp+0]
	@DEBUG_VALUE: mbedtls_rsa_export_raw:Q_len <- [DW_OP_plus_uconst 48] [$sp+0]
	@DEBUG_VALUE: mbedtls_rsa_export_raw:D <- [DW_OP_plus_uconst 52] [$sp+0]
	@DEBUG_VALUE: mbedtls_rsa_export_raw:D_len <- [DW_OP_plus_uconst 56] [$sp+0]
	@DEBUG_VALUE: mbedtls_rsa_export_raw:E <- [DW_OP_plus_uconst 60] [$sp+0]
	@DEBUG_VALUE: mbedtls_rsa_export_raw:E_len <- [DW_OP_plus_uconst 64] [$sp+0]
	.loc	4 389 1 is_stmt 1               @ ../../../ThirdParty/mbedTLS/library/rsa.c:389:1
	add	sp, #20
.Ltmp151:
	pop	{r4, r5, r6, r7, pc}
.Ltmp152:
.LBB4_11:
	@DEBUG_VALUE: mbedtls_rsa_export_raw:ctx <- $r7
	@DEBUG_VALUE: mbedtls_rsa_export_raw:N <- $r6
	@DEBUG_VALUE: mbedtls_rsa_export_raw:P <- $r5
	@DEBUG_VALUE: mbedtls_rsa_export_raw:N_len <- [DW_OP_plus_uconst 8] [$sp+0]
	@DEBUG_VALUE: mbedtls_rsa_export_raw:P_len <- [DW_OP_plus_uconst 40] [$sp+0]
	@DEBUG_VALUE: mbedtls_rsa_export_raw:Q <- [DW_OP_plus_uconst 44] [$sp+0]
	@DEBUG_VALUE: mbedtls_rsa_export_raw:Q_len <- [DW_OP_plus_uconst 48] [$sp+0]
	@DEBUG_VALUE: mbedtls_rsa_export_raw:D <- [DW_OP_plus_uconst 52] [$sp+0]
	@DEBUG_VALUE: mbedtls_rsa_export_raw:D_len <- [DW_OP_plus_uconst 56] [$sp+0]
	@DEBUG_VALUE: mbedtls_rsa_export_raw:E <- [DW_OP_plus_uconst 60] [$sp+0]
	@DEBUG_VALUE: mbedtls_rsa_export_raw:E_len <- [DW_OP_plus_uconst 64] [$sp+0]
	@DEBUG_VALUE: mbedtls_rsa_export_raw:ret <- 0
	.loc	4 374 9                         @ ../../../ThirdParty/mbedTLS/library/rsa.c:374:9
	cbz	r5, .LBB4_13
.Ltmp153:
@ %bb.12:
	@DEBUG_VALUE: mbedtls_rsa_export_raw:ctx <- $r7
	@DEBUG_VALUE: mbedtls_rsa_export_raw:N <- $r6
	@DEBUG_VALUE: mbedtls_rsa_export_raw:P <- $r5
	@DEBUG_VALUE: mbedtls_rsa_export_raw:N_len <- [DW_OP_plus_uconst 8] [$sp+0]
	@DEBUG_VALUE: mbedtls_rsa_export_raw:P_len <- [DW_OP_plus_uconst 40] [$sp+0]
	@DEBUG_VALUE: mbedtls_rsa_export_raw:Q <- [DW_OP_plus_uconst 44] [$sp+0]
	@DEBUG_VALUE: mbedtls_rsa_export_raw:Q_len <- [DW_OP_plus_uconst 48] [$sp+0]
	@DEBUG_VALUE: mbedtls_rsa_export_raw:D <- [DW_OP_plus_uconst 52] [$sp+0]
	@DEBUG_VALUE: mbedtls_rsa_export_raw:D_len <- [DW_OP_plus_uconst 56] [$sp+0]
	@DEBUG_VALUE: mbedtls_rsa_export_raw:E <- [DW_OP_plus_uconst 60] [$sp+0]
	@DEBUG_VALUE: mbedtls_rsa_export_raw:E_len <- [DW_OP_plus_uconst 64] [$sp+0]
	@DEBUG_VALUE: mbedtls_rsa_export_raw:ret <- 0
	.loc	4 0 9 is_stmt 0                 @ ../../../ThirdParty/mbedTLS/library/rsa.c:0:9
	ldr	r2, [sp, #40]
.Ltmp154:
	.loc	4 375 9 is_stmt 1               @ ../../../ThirdParty/mbedTLS/library/rsa.c:375:9
	mov	r0, r7
	adds	r0, #44
	mov	r1, r5
	bl	mbedtls_mpi_write_binary
.Ltmp155:
	@DEBUG_VALUE: mbedtls_rsa_export_raw:ret <- $r0
	.loc	4 375 9 is_stmt 0               @ ../../../ThirdParty/mbedTLS/library/rsa.c:375:9
	cmp	r0, #0
	bne	.LBB4_10
.Ltmp156:
.LBB4_13:
	@DEBUG_VALUE: mbedtls_rsa_export_raw:ctx <- $r7
	@DEBUG_VALUE: mbedtls_rsa_export_raw:N <- $r6
	@DEBUG_VALUE: mbedtls_rsa_export_raw:P <- $r5
	@DEBUG_VALUE: mbedtls_rsa_export_raw:N_len <- [DW_OP_plus_uconst 8] [$sp+0]
	@DEBUG_VALUE: mbedtls_rsa_export_raw:P_len <- [DW_OP_plus_uconst 40] [$sp+0]
	@DEBUG_VALUE: mbedtls_rsa_export_raw:Q <- [DW_OP_plus_uconst 44] [$sp+0]
	@DEBUG_VALUE: mbedtls_rsa_export_raw:Q_len <- [DW_OP_plus_uconst 48] [$sp+0]
	@DEBUG_VALUE: mbedtls_rsa_export_raw:D <- [DW_OP_plus_uconst 52] [$sp+0]
	@DEBUG_VALUE: mbedtls_rsa_export_raw:D_len <- [DW_OP_plus_uconst 56] [$sp+0]
	@DEBUG_VALUE: mbedtls_rsa_export_raw:E <- [DW_OP_plus_uconst 60] [$sp+0]
	@DEBUG_VALUE: mbedtls_rsa_export_raw:E_len <- [DW_OP_plus_uconst 64] [$sp+0]
	@DEBUG_VALUE: mbedtls_rsa_export_raw:ret <- 0
	.loc	4 377 9 is_stmt 1               @ ../../../ThirdParty/mbedTLS/library/rsa.c:377:9
	ldr	r0, [sp, #16]                   @ 4-byte Reload
	cbz	r0, .LBB4_15
.Ltmp157:
@ %bb.14:
	@DEBUG_VALUE: mbedtls_rsa_export_raw:ctx <- $r7
	@DEBUG_VALUE: mbedtls_rsa_export_raw:N <- $r6
	@DEBUG_VALUE: mbedtls_rsa_export_raw:P <- $r5
	@DEBUG_VALUE: mbedtls_rsa_export_raw:N_len <- [DW_OP_plus_uconst 8] [$sp+0]
	@DEBUG_VALUE: mbedtls_rsa_export_raw:P_len <- [DW_OP_plus_uconst 40] [$sp+0]
	@DEBUG_VALUE: mbedtls_rsa_export_raw:Q <- [DW_OP_plus_uconst 44] [$sp+0]
	@DEBUG_VALUE: mbedtls_rsa_export_raw:Q_len <- [DW_OP_plus_uconst 48] [$sp+0]
	@DEBUG_VALUE: mbedtls_rsa_export_raw:D <- [DW_OP_plus_uconst 52] [$sp+0]
	@DEBUG_VALUE: mbedtls_rsa_export_raw:D_len <- [DW_OP_plus_uconst 56] [$sp+0]
	@DEBUG_VALUE: mbedtls_rsa_export_raw:E <- [DW_OP_plus_uconst 60] [$sp+0]
	@DEBUG_VALUE: mbedtls_rsa_export_raw:E_len <- [DW_OP_plus_uconst 64] [$sp+0]
	@DEBUG_VALUE: mbedtls_rsa_export_raw:ret <- 0
	.loc	4 0 9 is_stmt 0                 @ ../../../ThirdParty/mbedTLS/library/rsa.c:0:9
	ldr	r2, [sp, #48]
.Ltmp158:
	.loc	4 378 9 is_stmt 1               @ ../../../ThirdParty/mbedTLS/library/rsa.c:378:9
	mov	r0, r7
	adds	r0, #56
	ldr	r1, [sp, #16]                   @ 4-byte Reload
	bl	mbedtls_mpi_write_binary
.Ltmp159:
	@DEBUG_VALUE: mbedtls_rsa_export_raw:ret <- $r0
	.loc	4 378 9 is_stmt 0               @ ../../../ThirdParty/mbedTLS/library/rsa.c:378:9
	cmp	r0, #0
	bne	.LBB4_10
.Ltmp160:
.LBB4_15:
	@DEBUG_VALUE: mbedtls_rsa_export_raw:ctx <- $r7
	@DEBUG_VALUE: mbedtls_rsa_export_raw:N <- $r6
	@DEBUG_VALUE: mbedtls_rsa_export_raw:P <- $r5
	@DEBUG_VALUE: mbedtls_rsa_export_raw:N_len <- [DW_OP_plus_uconst 8] [$sp+0]
	@DEBUG_VALUE: mbedtls_rsa_export_raw:P_len <- [DW_OP_plus_uconst 40] [$sp+0]
	@DEBUG_VALUE: mbedtls_rsa_export_raw:Q <- [DW_OP_plus_uconst 44] [$sp+0]
	@DEBUG_VALUE: mbedtls_rsa_export_raw:Q_len <- [DW_OP_plus_uconst 48] [$sp+0]
	@DEBUG_VALUE: mbedtls_rsa_export_raw:D <- [DW_OP_plus_uconst 52] [$sp+0]
	@DEBUG_VALUE: mbedtls_rsa_export_raw:D_len <- [DW_OP_plus_uconst 56] [$sp+0]
	@DEBUG_VALUE: mbedtls_rsa_export_raw:E <- [DW_OP_plus_uconst 60] [$sp+0]
	@DEBUG_VALUE: mbedtls_rsa_export_raw:E_len <- [DW_OP_plus_uconst 64] [$sp+0]
	@DEBUG_VALUE: mbedtls_rsa_export_raw:ret <- 0
	.loc	4 380 9 is_stmt 1               @ ../../../ThirdParty/mbedTLS/library/rsa.c:380:9
	ldr	r0, [sp, #12]                   @ 4-byte Reload
	cbz	r0, .LBB4_17
.Ltmp161:
@ %bb.16:
	@DEBUG_VALUE: mbedtls_rsa_export_raw:ctx <- $r7
	@DEBUG_VALUE: mbedtls_rsa_export_raw:N <- $r6
	@DEBUG_VALUE: mbedtls_rsa_export_raw:P <- $r5
	@DEBUG_VALUE: mbedtls_rsa_export_raw:N_len <- [DW_OP_plus_uconst 8] [$sp+0]
	@DEBUG_VALUE: mbedtls_rsa_export_raw:P_len <- [DW_OP_plus_uconst 40] [$sp+0]
	@DEBUG_VALUE: mbedtls_rsa_export_raw:Q <- [DW_OP_plus_uconst 44] [$sp+0]
	@DEBUG_VALUE: mbedtls_rsa_export_raw:Q_len <- [DW_OP_plus_uconst 48] [$sp+0]
	@DEBUG_VALUE: mbedtls_rsa_export_raw:D <- [DW_OP_plus_uconst 52] [$sp+0]
	@DEBUG_VALUE: mbedtls_rsa_export_raw:D_len <- [DW_OP_plus_uconst 56] [$sp+0]
	@DEBUG_VALUE: mbedtls_rsa_export_raw:E <- [DW_OP_plus_uconst 60] [$sp+0]
	@DEBUG_VALUE: mbedtls_rsa_export_raw:E_len <- [DW_OP_plus_uconst 64] [$sp+0]
	@DEBUG_VALUE: mbedtls_rsa_export_raw:ret <- 0
	.loc	4 0 9 is_stmt 0                 @ ../../../ThirdParty/mbedTLS/library/rsa.c:0:9
	ldr	r2, [sp, #56]
.Ltmp162:
	.loc	4 381 9 is_stmt 1               @ ../../../ThirdParty/mbedTLS/library/rsa.c:381:9
	mov	r0, r7
	adds	r0, #32
	ldr	r1, [sp, #12]                   @ 4-byte Reload
	bl	mbedtls_mpi_write_binary
.Ltmp163:
	@DEBUG_VALUE: mbedtls_rsa_export_raw:ret <- $r0
	.loc	4 381 9 is_stmt 0               @ ../../../ThirdParty/mbedTLS/library/rsa.c:381:9
	cmp	r0, #0
	bne	.LBB4_10
.Ltmp164:
.LBB4_17:
	@DEBUG_VALUE: mbedtls_rsa_export_raw:ctx <- $r7
	@DEBUG_VALUE: mbedtls_rsa_export_raw:N <- $r6
	@DEBUG_VALUE: mbedtls_rsa_export_raw:P <- $r5
	@DEBUG_VALUE: mbedtls_rsa_export_raw:N_len <- [DW_OP_plus_uconst 8] [$sp+0]
	@DEBUG_VALUE: mbedtls_rsa_export_raw:P_len <- [DW_OP_plus_uconst 40] [$sp+0]
	@DEBUG_VALUE: mbedtls_rsa_export_raw:Q <- [DW_OP_plus_uconst 44] [$sp+0]
	@DEBUG_VALUE: mbedtls_rsa_export_raw:Q_len <- [DW_OP_plus_uconst 48] [$sp+0]
	@DEBUG_VALUE: mbedtls_rsa_export_raw:D <- [DW_OP_plus_uconst 52] [$sp+0]
	@DEBUG_VALUE: mbedtls_rsa_export_raw:D_len <- [DW_OP_plus_uconst 56] [$sp+0]
	@DEBUG_VALUE: mbedtls_rsa_export_raw:E <- [DW_OP_plus_uconst 60] [$sp+0]
	@DEBUG_VALUE: mbedtls_rsa_export_raw:E_len <- [DW_OP_plus_uconst 64] [$sp+0]
	.loc	4 0 9                           @ ../../../ThirdParty/mbedTLS/library/rsa.c:0:9
	ldr	r1, [sp, #60]
.Ltmp165:
	@DEBUG_VALUE: mbedtls_rsa_export_raw:ret <- 0
	.loc	4 383 9 is_stmt 1               @ ../../../ThirdParty/mbedTLS/library/rsa.c:383:9
	cmp	r1, #0
	.loc	4 0 0 is_stmt 0                 @ ../../../ThirdParty/mbedTLS/library/rsa.c:0:0
	ldr	r0, [sp, #4]                    @ 4-byte Reload
	.loc	4 383 9                         @ ../../../ThirdParty/mbedTLS/library/rsa.c:383:9
	beq	.LBB4_10
.Ltmp166:
@ %bb.18:
	@DEBUG_VALUE: mbedtls_rsa_export_raw:ctx <- $r7
	@DEBUG_VALUE: mbedtls_rsa_export_raw:N <- $r6
	@DEBUG_VALUE: mbedtls_rsa_export_raw:P <- $r5
	@DEBUG_VALUE: mbedtls_rsa_export_raw:N_len <- [DW_OP_plus_uconst 8] [$sp+0]
	@DEBUG_VALUE: mbedtls_rsa_export_raw:P_len <- [DW_OP_plus_uconst 40] [$sp+0]
	@DEBUG_VALUE: mbedtls_rsa_export_raw:Q <- [DW_OP_plus_uconst 44] [$sp+0]
	@DEBUG_VALUE: mbedtls_rsa_export_raw:Q_len <- [DW_OP_plus_uconst 48] [$sp+0]
	@DEBUG_VALUE: mbedtls_rsa_export_raw:D <- [DW_OP_plus_uconst 52] [$sp+0]
	@DEBUG_VALUE: mbedtls_rsa_export_raw:D_len <- [DW_OP_plus_uconst 56] [$sp+0]
	@DEBUG_VALUE: mbedtls_rsa_export_raw:E <- [DW_OP_plus_uconst 60] [$sp+0]
	@DEBUG_VALUE: mbedtls_rsa_export_raw:E_len <- [DW_OP_plus_uconst 64] [$sp+0]
	@DEBUG_VALUE: mbedtls_rsa_export_raw:ret <- 0
	.loc	4 0 9                           @ ../../../ThirdParty/mbedTLS/library/rsa.c:0:9
	ldr	r2, [sp, #64]
.Ltmp167:
	.loc	4 384 9 is_stmt 1               @ ../../../ThirdParty/mbedTLS/library/rsa.c:384:9
	adds	r7, #20
.Ltmp168:
	mov	r0, r7
	bl	mbedtls_mpi_write_binary
.Ltmp169:
	@DEBUG_VALUE: mbedtls_rsa_export_raw:ret <- $r0
	.loc	4 389 1                         @ ../../../ThirdParty/mbedTLS/library/rsa.c:389:1
	add	sp, #20
.Ltmp170:
	pop	{r4, r5, r6, r7, pc}
.Ltmp171:
	.p2align	2
@ %bb.19:
	.loc	4 0 1 is_stmt 0                 @ ../../../ThirdParty/mbedTLS/library/rsa.c:0:1
__arm_cp.4_0:
	.long	4294950784                      @ 0xffffbf80
.Lcpi_end2:
	.size	__arm_cp.4_0, .Lcpi_end2-__arm_cp.4_0
.Lfunc_end4:
	.size	mbedtls_rsa_export_raw, .Lfunc_end4-mbedtls_rsa_export_raw
	.cfi_endproc
	.cantunwind
	.fnend
                                        @ -- End function
	.section	.text.mbedtls_rsa_export,"ax",%progbits
	.hidden	mbedtls_rsa_export              @ -- Begin function mbedtls_rsa_export
	.globl	mbedtls_rsa_export
	.p2align	2
	.type	mbedtls_rsa_export,%function
	.code	16                              @ @mbedtls_rsa_export
	.thumb_func
mbedtls_rsa_export:
.Lfunc_begin5:
	.loc	4 394 0 is_stmt 1               @ ../../../ThirdParty/mbedTLS/library/rsa.c:394:0
	.fnstart
	.cfi_startproc
@ %bb.0:
	@DEBUG_VALUE: mbedtls_rsa_export:ctx <- $r0
	@DEBUG_VALUE: mbedtls_rsa_export:N <- $r1
	@DEBUG_VALUE: mbedtls_rsa_export:P <- $r2
	@DEBUG_VALUE: mbedtls_rsa_export:Q <- $r3
	.save	{r4, r5, r6, r7, lr}
	push	{r4, r5, r6, r7, lr}
	.cfi_def_cfa_offset 20
	.cfi_offset lr, -4
	.cfi_offset r7, -8
	.cfi_offset r6, -12
	.cfi_offset r5, -16
	.cfi_offset r4, -20
	.pad	#12
	sub	sp, #12
	.cfi_def_cfa_offset 32
	str	r3, [sp, #8]                    @ 4-byte Spill
	mov	r4, r2
	mov	r6, r1
	mov	r7, r0
.Ltmp172:
	@DEBUG_VALUE: mbedtls_rsa_export:E <- [DW_OP_plus_uconst 36] [$sp+0]
	@DEBUG_VALUE: mbedtls_rsa_export:D <- [DW_OP_plus_uconst 32] [$sp+0]
	@DEBUG_VALUE: mbedtls_rsa_export:Q <- [DW_OP_plus_uconst 8] [$sp+0]
	@DEBUG_VALUE: mbedtls_rsa_export:P <- $r4
	@DEBUG_VALUE: mbedtls_rsa_export:N <- $r6
	@DEBUG_VALUE: mbedtls_rsa_export:ctx <- $r7
	.loc	4 401 36 prologue_end           @ ../../../ThirdParty/mbedTLS/library/rsa.c:401:36
	mov	r5, r0
	adds	r5, #8
	movs	r1, #0
	.loc	4 401 9 is_stmt 0               @ ../../../ThirdParty/mbedTLS/library/rsa.c:401:9
	mov	r0, r5
	str	r1, [sp]                        @ 4-byte Spill
	bl	mbedtls_mpi_cmp_int
	ldr	r1, [sp, #32]
	.loc	4 401 48                        @ ../../../ThirdParty/mbedTLS/library/rsa.c:401:48
	str	r1, [sp, #4]                    @ 4-byte Spill
	cbz	r0, .LBB5_5
.Ltmp173:
@ %bb.1:
	@DEBUG_VALUE: mbedtls_rsa_export:ctx <- $r7
	@DEBUG_VALUE: mbedtls_rsa_export:N <- $r6
	@DEBUG_VALUE: mbedtls_rsa_export:P <- $r4
	@DEBUG_VALUE: mbedtls_rsa_export:Q <- [DW_OP_plus_uconst 8] [$sp+0]
	@DEBUG_VALUE: mbedtls_rsa_export:D <- [DW_OP_plus_uconst 32] [$sp+0]
	@DEBUG_VALUE: mbedtls_rsa_export:E <- [DW_OP_plus_uconst 36] [$sp+0]
	.loc	4 402 36 is_stmt 1              @ ../../../ThirdParty/mbedTLS/library/rsa.c:402:36
	mov	r0, r7
	adds	r0, #44
	movs	r1, #0
	.loc	4 402 9 is_stmt 0               @ ../../../ThirdParty/mbedTLS/library/rsa.c:402:9
	bl	mbedtls_mpi_cmp_int
	.loc	4 402 48                        @ ../../../ThirdParty/mbedTLS/library/rsa.c:402:48
	cbz	r0, .LBB5_5
.Ltmp174:
@ %bb.2:
	@DEBUG_VALUE: mbedtls_rsa_export:ctx <- $r7
	@DEBUG_VALUE: mbedtls_rsa_export:N <- $r6
	@DEBUG_VALUE: mbedtls_rsa_export:P <- $r4
	@DEBUG_VALUE: mbedtls_rsa_export:Q <- [DW_OP_plus_uconst 8] [$sp+0]
	@DEBUG_VALUE: mbedtls_rsa_export:D <- [DW_OP_plus_uconst 32] [$sp+0]
	@DEBUG_VALUE: mbedtls_rsa_export:E <- [DW_OP_plus_uconst 36] [$sp+0]
	.loc	4 403 36 is_stmt 1              @ ../../../ThirdParty/mbedTLS/library/rsa.c:403:36
	mov	r0, r7
	adds	r0, #56
	movs	r1, #0
	.loc	4 403 9 is_stmt 0               @ ../../../ThirdParty/mbedTLS/library/rsa.c:403:9
	bl	mbedtls_mpi_cmp_int
	.loc	4 403 48                        @ ../../../ThirdParty/mbedTLS/library/rsa.c:403:48
	cbz	r0, .LBB5_5
.Ltmp175:
@ %bb.3:
	@DEBUG_VALUE: mbedtls_rsa_export:ctx <- $r7
	@DEBUG_VALUE: mbedtls_rsa_export:N <- $r6
	@DEBUG_VALUE: mbedtls_rsa_export:P <- $r4
	@DEBUG_VALUE: mbedtls_rsa_export:Q <- [DW_OP_plus_uconst 8] [$sp+0]
	@DEBUG_VALUE: mbedtls_rsa_export:D <- [DW_OP_plus_uconst 32] [$sp+0]
	@DEBUG_VALUE: mbedtls_rsa_export:E <- [DW_OP_plus_uconst 36] [$sp+0]
	.loc	4 404 36 is_stmt 1              @ ../../../ThirdParty/mbedTLS/library/rsa.c:404:36
	mov	r0, r7
	adds	r0, #32
	movs	r1, #0
	.loc	4 404 9 is_stmt 0               @ ../../../ThirdParty/mbedTLS/library/rsa.c:404:9
	bl	mbedtls_mpi_cmp_int
	.loc	4 404 48                        @ ../../../ThirdParty/mbedTLS/library/rsa.c:404:48
	cbz	r0, .LBB5_5
.Ltmp176:
@ %bb.4:
	@DEBUG_VALUE: mbedtls_rsa_export:ctx <- $r7
	@DEBUG_VALUE: mbedtls_rsa_export:N <- $r6
	@DEBUG_VALUE: mbedtls_rsa_export:P <- $r4
	@DEBUG_VALUE: mbedtls_rsa_export:Q <- [DW_OP_plus_uconst 8] [$sp+0]
	@DEBUG_VALUE: mbedtls_rsa_export:D <- [DW_OP_plus_uconst 32] [$sp+0]
	@DEBUG_VALUE: mbedtls_rsa_export:E <- [DW_OP_plus_uconst 36] [$sp+0]
	.loc	4 405 36 is_stmt 1              @ ../../../ThirdParty/mbedTLS/library/rsa.c:405:36
	mov	r0, r7
	adds	r0, #20
	movs	r1, #0
	.loc	4 405 9 is_stmt 0               @ ../../../ThirdParty/mbedTLS/library/rsa.c:405:9
	bl	mbedtls_mpi_cmp_int
.Ltmp177:
	@DEBUG_VALUE: mbedtls_rsa_export:is_priv <- [DW_OP_LLVM_convert 1 7, DW_OP_LLVM_convert 32 7, DW_OP_stack_value] undef
	.loc	4 407 9 is_stmt 1               @ ../../../ThirdParty/mbedTLS/library/rsa.c:407:9
	cbnz	r0, .LBB5_8
.Ltmp178:
.LBB5_5:
	@DEBUG_VALUE: mbedtls_rsa_export:ctx <- $r7
	@DEBUG_VALUE: mbedtls_rsa_export:N <- $r6
	@DEBUG_VALUE: mbedtls_rsa_export:P <- $r4
	@DEBUG_VALUE: mbedtls_rsa_export:Q <- [DW_OP_plus_uconst 8] [$sp+0]
	@DEBUG_VALUE: mbedtls_rsa_export:D <- [DW_OP_plus_uconst 32] [$sp+0]
	@DEBUG_VALUE: mbedtls_rsa_export:E <- [DW_OP_plus_uconst 36] [$sp+0]
	.loc	4 0 9 is_stmt 0                 @ ../../../ThirdParty/mbedTLS/library/rsa.c:0:9
	ldr	r0, __arm_cp.5_0
.Ltmp179:
	.loc	4 411 23 is_stmt 1              @ ../../../ThirdParty/mbedTLS/library/rsa.c:411:23
	cbnz	r4, .LBB5_10
.Ltmp180:
@ %bb.6:
	@DEBUG_VALUE: mbedtls_rsa_export:ctx <- $r7
	@DEBUG_VALUE: mbedtls_rsa_export:N <- $r6
	@DEBUG_VALUE: mbedtls_rsa_export:P <- $r4
	@DEBUG_VALUE: mbedtls_rsa_export:Q <- [DW_OP_plus_uconst 8] [$sp+0]
	@DEBUG_VALUE: mbedtls_rsa_export:D <- [DW_OP_plus_uconst 32] [$sp+0]
	@DEBUG_VALUE: mbedtls_rsa_export:E <- [DW_OP_plus_uconst 36] [$sp+0]
	ldr	r1, [sp, #8]                    @ 4-byte Reload
	cbnz	r1, .LBB5_10
.Ltmp181:
@ %bb.7:
	@DEBUG_VALUE: mbedtls_rsa_export:ctx <- $r7
	@DEBUG_VALUE: mbedtls_rsa_export:N <- $r6
	@DEBUG_VALUE: mbedtls_rsa_export:P <- $r4
	@DEBUG_VALUE: mbedtls_rsa_export:Q <- [DW_OP_plus_uconst 8] [$sp+0]
	@DEBUG_VALUE: mbedtls_rsa_export:D <- [DW_OP_plus_uconst 32] [$sp+0]
	@DEBUG_VALUE: mbedtls_rsa_export:E <- [DW_OP_plus_uconst 36] [$sp+0]
	ldr	r1, [sp, #4]                    @ 4-byte Reload
	cbnz	r1, .LBB5_10
.Ltmp182:
.LBB5_8:
	@DEBUG_VALUE: mbedtls_rsa_export:ctx <- $r7
	@DEBUG_VALUE: mbedtls_rsa_export:N <- $r6
	@DEBUG_VALUE: mbedtls_rsa_export:P <- $r4
	@DEBUG_VALUE: mbedtls_rsa_export:Q <- [DW_OP_plus_uconst 8] [$sp+0]
	@DEBUG_VALUE: mbedtls_rsa_export:D <- [DW_OP_plus_uconst 32] [$sp+0]
	@DEBUG_VALUE: mbedtls_rsa_export:E <- [DW_OP_plus_uconst 36] [$sp+0]
	.loc	4 418 21                        @ ../../../ThirdParty/mbedTLS/library/rsa.c:418:21
	cbz	r6, .LBB5_11
.Ltmp183:
@ %bb.9:
	@DEBUG_VALUE: mbedtls_rsa_export:ctx <- $r7
	@DEBUG_VALUE: mbedtls_rsa_export:N <- $r6
	@DEBUG_VALUE: mbedtls_rsa_export:P <- $r4
	@DEBUG_VALUE: mbedtls_rsa_export:Q <- [DW_OP_plus_uconst 8] [$sp+0]
	@DEBUG_VALUE: mbedtls_rsa_export:D <- [DW_OP_plus_uconst 32] [$sp+0]
	@DEBUG_VALUE: mbedtls_rsa_export:E <- [DW_OP_plus_uconst 36] [$sp+0]
	.loc	4 418 32 is_stmt 0              @ ../../../ThirdParty/mbedTLS/library/rsa.c:418:32
	mov	r0, r6
	mov	r1, r5
	bl	mbedtls_mpi_copy
.Ltmp184:
	@DEBUG_VALUE: mbedtls_rsa_export:ret <- $r0
	.loc	4 418 72                        @ ../../../ThirdParty/mbedTLS/library/rsa.c:418:72
	cbz	r0, .LBB5_11
.Ltmp185:
.LBB5_10:
	@DEBUG_VALUE: mbedtls_rsa_export:N <- $r6
	@DEBUG_VALUE: mbedtls_rsa_export:P <- $r4
	@DEBUG_VALUE: mbedtls_rsa_export:Q <- [DW_OP_plus_uconst 8] [$sp+0]
	@DEBUG_VALUE: mbedtls_rsa_export:D <- [DW_OP_plus_uconst 32] [$sp+0]
	@DEBUG_VALUE: mbedtls_rsa_export:E <- [DW_OP_plus_uconst 36] [$sp+0]
	.loc	4 428 1 is_stmt 1               @ ../../../ThirdParty/mbedTLS/library/rsa.c:428:1
	add	sp, #12
.Ltmp186:
	pop	{r4, r5, r6, r7, pc}
.Ltmp187:
.LBB5_11:
	@DEBUG_VALUE: mbedtls_rsa_export:ctx <- $r7
	@DEBUG_VALUE: mbedtls_rsa_export:N <- $r6
	@DEBUG_VALUE: mbedtls_rsa_export:P <- $r4
	@DEBUG_VALUE: mbedtls_rsa_export:Q <- [DW_OP_plus_uconst 8] [$sp+0]
	@DEBUG_VALUE: mbedtls_rsa_export:D <- [DW_OP_plus_uconst 32] [$sp+0]
	@DEBUG_VALUE: mbedtls_rsa_export:E <- [DW_OP_plus_uconst 36] [$sp+0]
	.loc	4 419 25                        @ ../../../ThirdParty/mbedTLS/library/rsa.c:419:25
	cbz	r4, .LBB5_13
.Ltmp188:
@ %bb.12:
	@DEBUG_VALUE: mbedtls_rsa_export:ctx <- $r7
	@DEBUG_VALUE: mbedtls_rsa_export:N <- $r6
	@DEBUG_VALUE: mbedtls_rsa_export:P <- $r4
	@DEBUG_VALUE: mbedtls_rsa_export:Q <- [DW_OP_plus_uconst 8] [$sp+0]
	@DEBUG_VALUE: mbedtls_rsa_export:D <- [DW_OP_plus_uconst 32] [$sp+0]
	@DEBUG_VALUE: mbedtls_rsa_export:E <- [DW_OP_plus_uconst 36] [$sp+0]
	.loc	4 419 63 is_stmt 0              @ ../../../ThirdParty/mbedTLS/library/rsa.c:419:63
	mov	r1, r7
	adds	r1, #44
	.loc	4 419 36                        @ ../../../ThirdParty/mbedTLS/library/rsa.c:419:36
	mov	r0, r4
	bl	mbedtls_mpi_copy
.Ltmp189:
	@DEBUG_VALUE: mbedtls_rsa_export:ret <- $r0
	.loc	4 419 76                        @ ../../../ThirdParty/mbedTLS/library/rsa.c:419:76
	cmp	r0, #0
	bne	.LBB5_10
.Ltmp190:
.LBB5_13:
	@DEBUG_VALUE: mbedtls_rsa_export:ctx <- $r7
	@DEBUG_VALUE: mbedtls_rsa_export:N <- $r6
	@DEBUG_VALUE: mbedtls_rsa_export:P <- $r4
	@DEBUG_VALUE: mbedtls_rsa_export:Q <- [DW_OP_plus_uconst 8] [$sp+0]
	@DEBUG_VALUE: mbedtls_rsa_export:D <- [DW_OP_plus_uconst 32] [$sp+0]
	@DEBUG_VALUE: mbedtls_rsa_export:E <- [DW_OP_plus_uconst 36] [$sp+0]
	.loc	4 420 25 is_stmt 1              @ ../../../ThirdParty/mbedTLS/library/rsa.c:420:25
	ldr	r0, [sp, #8]                    @ 4-byte Reload
	cbz	r0, .LBB5_15
.Ltmp191:
@ %bb.14:
	@DEBUG_VALUE: mbedtls_rsa_export:ctx <- $r7
	@DEBUG_VALUE: mbedtls_rsa_export:N <- $r6
	@DEBUG_VALUE: mbedtls_rsa_export:P <- $r4
	@DEBUG_VALUE: mbedtls_rsa_export:Q <- [DW_OP_plus_uconst 8] [$sp+0]
	@DEBUG_VALUE: mbedtls_rsa_export:D <- [DW_OP_plus_uconst 32] [$sp+0]
	@DEBUG_VALUE: mbedtls_rsa_export:E <- [DW_OP_plus_uconst 36] [$sp+0]
	.loc	4 420 63 is_stmt 0              @ ../../../ThirdParty/mbedTLS/library/rsa.c:420:63
	mov	r1, r7
	adds	r1, #56
	.loc	4 420 36                        @ ../../../ThirdParty/mbedTLS/library/rsa.c:420:36
	ldr	r0, [sp, #8]                    @ 4-byte Reload
	bl	mbedtls_mpi_copy
.Ltmp192:
	@DEBUG_VALUE: mbedtls_rsa_export:ret <- $r0
	.loc	4 420 76                        @ ../../../ThirdParty/mbedTLS/library/rsa.c:420:76
	cmp	r0, #0
	bne	.LBB5_10
.Ltmp193:
.LBB5_15:
	@DEBUG_VALUE: mbedtls_rsa_export:ctx <- $r7
	@DEBUG_VALUE: mbedtls_rsa_export:N <- $r6
	@DEBUG_VALUE: mbedtls_rsa_export:P <- $r4
	@DEBUG_VALUE: mbedtls_rsa_export:Q <- [DW_OP_plus_uconst 8] [$sp+0]
	@DEBUG_VALUE: mbedtls_rsa_export:D <- [DW_OP_plus_uconst 32] [$sp+0]
	@DEBUG_VALUE: mbedtls_rsa_export:E <- [DW_OP_plus_uconst 36] [$sp+0]
	.loc	4 421 25 is_stmt 1              @ ../../../ThirdParty/mbedTLS/library/rsa.c:421:25
	ldr	r0, [sp, #4]                    @ 4-byte Reload
	cbz	r0, .LBB5_17
.Ltmp194:
@ %bb.16:
	@DEBUG_VALUE: mbedtls_rsa_export:ctx <- $r7
	@DEBUG_VALUE: mbedtls_rsa_export:N <- $r6
	@DEBUG_VALUE: mbedtls_rsa_export:P <- $r4
	@DEBUG_VALUE: mbedtls_rsa_export:Q <- [DW_OP_plus_uconst 8] [$sp+0]
	@DEBUG_VALUE: mbedtls_rsa_export:D <- [DW_OP_plus_uconst 32] [$sp+0]
	@DEBUG_VALUE: mbedtls_rsa_export:E <- [DW_OP_plus_uconst 36] [$sp+0]
	.loc	4 421 63 is_stmt 0              @ ../../../ThirdParty/mbedTLS/library/rsa.c:421:63
	mov	r1, r7
	adds	r1, #32
	.loc	4 421 36                        @ ../../../ThirdParty/mbedTLS/library/rsa.c:421:36
	ldr	r0, [sp, #4]                    @ 4-byte Reload
	bl	mbedtls_mpi_copy
.Ltmp195:
	@DEBUG_VALUE: mbedtls_rsa_export:ret <- $r0
	.loc	4 421 76                        @ ../../../ThirdParty/mbedTLS/library/rsa.c:421:76
	cmp	r0, #0
	bne	.LBB5_10
.Ltmp196:
.LBB5_17:
	@DEBUG_VALUE: mbedtls_rsa_export:ctx <- $r7
	@DEBUG_VALUE: mbedtls_rsa_export:N <- $r6
	@DEBUG_VALUE: mbedtls_rsa_export:P <- $r4
	@DEBUG_VALUE: mbedtls_rsa_export:Q <- [DW_OP_plus_uconst 8] [$sp+0]
	@DEBUG_VALUE: mbedtls_rsa_export:D <- [DW_OP_plus_uconst 32] [$sp+0]
	@DEBUG_VALUE: mbedtls_rsa_export:E <- [DW_OP_plus_uconst 36] [$sp+0]
	.loc	4 0 76                          @ ../../../ThirdParty/mbedTLS/library/rsa.c:0:76
	ldr	r0, [sp, #36]
	.loc	4 422 25 is_stmt 1              @ ../../../ThirdParty/mbedTLS/library/rsa.c:422:25
	cbz	r0, .LBB5_19
.Ltmp197:
@ %bb.18:
	@DEBUG_VALUE: mbedtls_rsa_export:ctx <- $r7
	@DEBUG_VALUE: mbedtls_rsa_export:N <- $r6
	@DEBUG_VALUE: mbedtls_rsa_export:P <- $r4
	@DEBUG_VALUE: mbedtls_rsa_export:Q <- [DW_OP_plus_uconst 8] [$sp+0]
	@DEBUG_VALUE: mbedtls_rsa_export:D <- [DW_OP_plus_uconst 32] [$sp+0]
	@DEBUG_VALUE: mbedtls_rsa_export:E <- [DW_OP_plus_uconst 36] [$sp+0]
	.loc	4 422 63 is_stmt 0              @ ../../../ThirdParty/mbedTLS/library/rsa.c:422:63
	adds	r7, #20
.Ltmp198:
	.loc	4 422 36                        @ ../../../ThirdParty/mbedTLS/library/rsa.c:422:36
	mov	r1, r7
	bl	mbedtls_mpi_copy
.Ltmp199:
	@DEBUG_VALUE: mbedtls_rsa_export:ret <- $r0
	.loc	4 418 9 is_stmt 1               @ ../../../ThirdParty/mbedTLS/library/rsa.c:418:9
	cmp	r0, #0
	bne	.LBB5_10
.Ltmp200:
.LBB5_19:
	@DEBUG_VALUE: mbedtls_rsa_export:N <- $r6
	@DEBUG_VALUE: mbedtls_rsa_export:P <- $r4
	@DEBUG_VALUE: mbedtls_rsa_export:Q <- [DW_OP_plus_uconst 8] [$sp+0]
	@DEBUG_VALUE: mbedtls_rsa_export:D <- [DW_OP_plus_uconst 32] [$sp+0]
	@DEBUG_VALUE: mbedtls_rsa_export:E <- [DW_OP_plus_uconst 36] [$sp+0]
	.loc	4 0 0 is_stmt 0                 @ ../../../ThirdParty/mbedTLS/library/rsa.c:0:0
	ldr	r0, [sp]                        @ 4-byte Reload
	.loc	4 428 1 is_stmt 1               @ ../../../ThirdParty/mbedTLS/library/rsa.c:428:1
	add	sp, #12
.Ltmp201:
	pop	{r4, r5, r6, r7, pc}
.Ltmp202:
	.p2align	2
@ %bb.20:
	.loc	4 0 1 is_stmt 0                 @ ../../../ThirdParty/mbedTLS/library/rsa.c:0:1
__arm_cp.5_0:
	.long	4294950784                      @ 0xffffbf80
.Lcpi_end3:
	.size	__arm_cp.5_0, .Lcpi_end3-__arm_cp.5_0
.Lfunc_end5:
	.size	mbedtls_rsa_export, .Lfunc_end5-mbedtls_rsa_export
	.cfi_endproc
	.cantunwind
	.fnend
                                        @ -- End function
	.section	.text.mbedtls_rsa_export_crt,"ax",%progbits
	.hidden	mbedtls_rsa_export_crt          @ -- Begin function mbedtls_rsa_export_crt
	.globl	mbedtls_rsa_export_crt
	.p2align	2
	.type	mbedtls_rsa_export_crt,%function
	.code	16                              @ @mbedtls_rsa_export_crt
	.thumb_func
mbedtls_rsa_export_crt:
.Lfunc_begin6:
	.loc	4 438 0 is_stmt 1               @ ../../../ThirdParty/mbedTLS/library/rsa.c:438:0
	.fnstart
	.cfi_startproc
@ %bb.0:
	@DEBUG_VALUE: mbedtls_rsa_export_crt:ctx <- $r0
	@DEBUG_VALUE: mbedtls_rsa_export_crt:DP <- $r1
	@DEBUG_VALUE: mbedtls_rsa_export_crt:DQ <- $r2
	@DEBUG_VALUE: mbedtls_rsa_export_crt:QP <- $r3
	.save	{r4, r5, r6, r7, lr}
	push	{r4, r5, r6, r7, lr}
	.cfi_def_cfa_offset 20
	.cfi_offset lr, -4
	.cfi_offset r7, -8
	.cfi_offset r6, -12
	.cfi_offset r5, -16
	.cfi_offset r4, -20
	.pad	#4
	sub	sp, #4
	.cfi_def_cfa_offset 24
	str	r3, [sp]                        @ 4-byte Spill
	mov	r6, r2
	mov	r4, r1
	mov	r5, r0
.Ltmp203:
	@DEBUG_VALUE: mbedtls_rsa_export_crt:QP <- [$sp+0]
	@DEBUG_VALUE: mbedtls_rsa_export_crt:DQ <- $r6
	@DEBUG_VALUE: mbedtls_rsa_export_crt:DP <- $r4
	@DEBUG_VALUE: mbedtls_rsa_export_crt:ctx <- $r5
	.loc	4 445 36 prologue_end           @ ../../../ThirdParty/mbedTLS/library/rsa.c:445:36
	adds	r0, #8
	movs	r1, #0
	.loc	4 445 9 is_stmt 0               @ ../../../ThirdParty/mbedTLS/library/rsa.c:445:9
	bl	mbedtls_mpi_cmp_int
	ldr	r7, __arm_cp.6_0
	.loc	4 445 48                        @ ../../../ThirdParty/mbedTLS/library/rsa.c:445:48
	cbz	r0, .LBB6_13
.Ltmp204:
@ %bb.1:
	@DEBUG_VALUE: mbedtls_rsa_export_crt:DQ <- $r6
	@DEBUG_VALUE: mbedtls_rsa_export_crt:ctx <- $r5
	@DEBUG_VALUE: mbedtls_rsa_export_crt:DP <- $r4
	@DEBUG_VALUE: mbedtls_rsa_export_crt:QP <- [$sp+0]
	.loc	4 446 36 is_stmt 1              @ ../../../ThirdParty/mbedTLS/library/rsa.c:446:36
	mov	r0, r5
	adds	r0, #44
	movs	r1, #0
	.loc	4 446 9 is_stmt 0               @ ../../../ThirdParty/mbedTLS/library/rsa.c:446:9
	bl	mbedtls_mpi_cmp_int
	.loc	4 446 48                        @ ../../../ThirdParty/mbedTLS/library/rsa.c:446:48
	cbz	r0, .LBB6_13
.Ltmp205:
@ %bb.2:
	@DEBUG_VALUE: mbedtls_rsa_export_crt:DQ <- $r6
	@DEBUG_VALUE: mbedtls_rsa_export_crt:ctx <- $r5
	@DEBUG_VALUE: mbedtls_rsa_export_crt:DP <- $r4
	@DEBUG_VALUE: mbedtls_rsa_export_crt:QP <- [$sp+0]
	.loc	4 447 36 is_stmt 1              @ ../../../ThirdParty/mbedTLS/library/rsa.c:447:36
	mov	r0, r5
	adds	r0, #56
	movs	r1, #0
	.loc	4 447 9 is_stmt 0               @ ../../../ThirdParty/mbedTLS/library/rsa.c:447:9
	bl	mbedtls_mpi_cmp_int
	.loc	4 447 48                        @ ../../../ThirdParty/mbedTLS/library/rsa.c:447:48
	cbz	r0, .LBB6_13
.Ltmp206:
@ %bb.3:
	@DEBUG_VALUE: mbedtls_rsa_export_crt:DQ <- $r6
	@DEBUG_VALUE: mbedtls_rsa_export_crt:ctx <- $r5
	@DEBUG_VALUE: mbedtls_rsa_export_crt:DP <- $r4
	@DEBUG_VALUE: mbedtls_rsa_export_crt:QP <- [$sp+0]
	.loc	4 448 36 is_stmt 1              @ ../../../ThirdParty/mbedTLS/library/rsa.c:448:36
	mov	r0, r5
	adds	r0, #32
	movs	r1, #0
	.loc	4 448 9 is_stmt 0               @ ../../../ThirdParty/mbedTLS/library/rsa.c:448:9
	bl	mbedtls_mpi_cmp_int
	.loc	4 448 48                        @ ../../../ThirdParty/mbedTLS/library/rsa.c:448:48
	cbz	r0, .LBB6_13
.Ltmp207:
@ %bb.4:
	@DEBUG_VALUE: mbedtls_rsa_export_crt:DQ <- $r6
	@DEBUG_VALUE: mbedtls_rsa_export_crt:ctx <- $r5
	@DEBUG_VALUE: mbedtls_rsa_export_crt:DP <- $r4
	@DEBUG_VALUE: mbedtls_rsa_export_crt:QP <- [$sp+0]
	.loc	4 449 36 is_stmt 1              @ ../../../ThirdParty/mbedTLS/library/rsa.c:449:36
	mov	r0, r5
	adds	r0, #20
	movs	r7, #0
	.loc	4 449 9 is_stmt 0               @ ../../../ThirdParty/mbedTLS/library/rsa.c:449:9
	mov	r1, r7
	bl	mbedtls_mpi_cmp_int
.Ltmp208:
	@DEBUG_VALUE: mbedtls_rsa_export_crt:is_priv <- [DW_OP_LLVM_convert 1 7, DW_OP_LLVM_convert 32 7, DW_OP_stack_value] undef
	.loc	4 451 9 is_stmt 1               @ ../../../ThirdParty/mbedTLS/library/rsa.c:451:9
	cbz	r0, .LBB6_12
.Ltmp209:
@ %bb.5:
	@DEBUG_VALUE: mbedtls_rsa_export_crt:DQ <- $r6
	@DEBUG_VALUE: mbedtls_rsa_export_crt:ctx <- $r5
	@DEBUG_VALUE: mbedtls_rsa_export_crt:DP <- $r4
	@DEBUG_VALUE: mbedtls_rsa_export_crt:QP <- [$sp+0]
	.loc	4 456 22                        @ ../../../ThirdParty/mbedTLS/library/rsa.c:456:22
	cbz	r4, .LBB6_7
.Ltmp210:
@ %bb.6:
	@DEBUG_VALUE: mbedtls_rsa_export_crt:DQ <- $r6
	@DEBUG_VALUE: mbedtls_rsa_export_crt:ctx <- $r5
	@DEBUG_VALUE: mbedtls_rsa_export_crt:DP <- $r4
	@DEBUG_VALUE: mbedtls_rsa_export_crt:QP <- [$sp+0]
	.loc	4 456 61 is_stmt 0              @ ../../../ThirdParty/mbedTLS/library/rsa.c:456:61
	mov	r1, r5
	adds	r1, #68
	.loc	4 456 33                        @ ../../../ThirdParty/mbedTLS/library/rsa.c:456:33
	mov	r0, r4
	bl	mbedtls_mpi_copy
.Ltmp211:
	@DEBUG_VALUE: mbedtls_rsa_export_crt:ret <- $r0
	.loc	4 456 75                        @ ../../../ThirdParty/mbedTLS/library/rsa.c:456:75
	cbnz	r0, .LBB6_11
.Ltmp212:
.LBB6_7:
	@DEBUG_VALUE: mbedtls_rsa_export_crt:DQ <- $r6
	@DEBUG_VALUE: mbedtls_rsa_export_crt:ctx <- $r5
	@DEBUG_VALUE: mbedtls_rsa_export_crt:DP <- $r4
	@DEBUG_VALUE: mbedtls_rsa_export_crt:QP <- [$sp+0]
	.loc	4 457 26 is_stmt 1              @ ../../../ThirdParty/mbedTLS/library/rsa.c:457:26
	cbz	r6, .LBB6_9
.Ltmp213:
@ %bb.8:
	@DEBUG_VALUE: mbedtls_rsa_export_crt:DQ <- $r6
	@DEBUG_VALUE: mbedtls_rsa_export_crt:ctx <- $r5
	@DEBUG_VALUE: mbedtls_rsa_export_crt:DP <- $r4
	@DEBUG_VALUE: mbedtls_rsa_export_crt:QP <- [$sp+0]
	.loc	4 457 65 is_stmt 0              @ ../../../ThirdParty/mbedTLS/library/rsa.c:457:65
	mov	r1, r5
	adds	r1, #80
	.loc	4 457 37                        @ ../../../ThirdParty/mbedTLS/library/rsa.c:457:37
	mov	r0, r6
	bl	mbedtls_mpi_copy
.Ltmp214:
	@DEBUG_VALUE: mbedtls_rsa_export_crt:ret <- $r0
	.loc	4 457 79                        @ ../../../ThirdParty/mbedTLS/library/rsa.c:457:79
	cbnz	r0, .LBB6_11
.Ltmp215:
.LBB6_9:
	@DEBUG_VALUE: mbedtls_rsa_export_crt:DQ <- $r6
	@DEBUG_VALUE: mbedtls_rsa_export_crt:ctx <- $r5
	@DEBUG_VALUE: mbedtls_rsa_export_crt:DP <- $r4
	@DEBUG_VALUE: mbedtls_rsa_export_crt:QP <- [$sp+0]
	.loc	4 0 79                          @ ../../../ThirdParty/mbedTLS/library/rsa.c:0:79
	ldr	r0, [sp]                        @ 4-byte Reload
	.loc	4 458 26 is_stmt 1              @ ../../../ThirdParty/mbedTLS/library/rsa.c:458:26
	cbz	r0, .LBB6_13
.Ltmp216:
@ %bb.10:
	@DEBUG_VALUE: mbedtls_rsa_export_crt:DQ <- $r6
	@DEBUG_VALUE: mbedtls_rsa_export_crt:ctx <- $r5
	@DEBUG_VALUE: mbedtls_rsa_export_crt:DP <- $r4
	@DEBUG_VALUE: mbedtls_rsa_export_crt:QP <- [$sp+0]
	.loc	4 458 65 is_stmt 0              @ ../../../ThirdParty/mbedTLS/library/rsa.c:458:65
	adds	r5, #92
.Ltmp217:
	.loc	4 458 37                        @ ../../../ThirdParty/mbedTLS/library/rsa.c:458:37
	mov	r1, r5
	bl	mbedtls_mpi_copy
.Ltmp218:
	@DEBUG_VALUE: mbedtls_rsa_export_crt:ret <- $r0
	.loc	4 456 9 is_stmt 1               @ ../../../ThirdParty/mbedTLS/library/rsa.c:456:9
	cbz	r0, .LBB6_13
.Ltmp219:
.LBB6_11:
	@DEBUG_VALUE: mbedtls_rsa_export_crt:DQ <- $r6
	@DEBUG_VALUE: mbedtls_rsa_export_crt:DP <- $r4
	@DEBUG_VALUE: mbedtls_rsa_export_crt:ret <- $r0
	@DEBUG_VALUE: mbedtls_rsa_export_crt:QP <- [$sp+0]
	@DEBUG_VALUE: mbedtls_rsa_export_crt:ret <- $r0
	.loc	4 460 48                        @ ../../../ThirdParty/mbedTLS/library/rsa.c:460:48
	ldr	r1, __arm_cp.6_0
	adds	r7, r0, r1
	b	.LBB6_13
.Ltmp220:
.LBB6_12:
	@DEBUG_VALUE: mbedtls_rsa_export_crt:DQ <- $r6
	@DEBUG_VALUE: mbedtls_rsa_export_crt:ctx <- $r5
	@DEBUG_VALUE: mbedtls_rsa_export_crt:DP <- $r4
	@DEBUG_VALUE: mbedtls_rsa_export_crt:QP <- [$sp+0]
	.loc	4 0 0 is_stmt 0                 @ ../../../ThirdParty/mbedTLS/library/rsa.c:0:0
	ldr	r7, __arm_cp.6_0
.Ltmp221:
.LBB6_13:
	@DEBUG_VALUE: mbedtls_rsa_export_crt:DQ <- $r6
	@DEBUG_VALUE: mbedtls_rsa_export_crt:DP <- $r4
	@DEBUG_VALUE: mbedtls_rsa_export_crt:QP <- [$sp+0]
	.loc	4 471 1 is_stmt 1               @ ../../../ThirdParty/mbedTLS/library/rsa.c:471:1
	mov	r0, r7
	add	sp, #4
.Ltmp222:
	pop	{r4, r5, r6, r7, pc}
.Ltmp223:
	.p2align	2
@ %bb.14:
	.loc	4 0 1 is_stmt 0                 @ ../../../ThirdParty/mbedTLS/library/rsa.c:0:1
__arm_cp.6_0:
	.long	4294950784                      @ 0xffffbf80
.Lcpi_end4:
	.size	__arm_cp.6_0, .Lcpi_end4-__arm_cp.6_0
.Lfunc_end6:
	.size	mbedtls_rsa_export_crt, .Lfunc_end6-mbedtls_rsa_export_crt
	.cfi_endproc
	.cantunwind
	.fnend
                                        @ -- End function
	.section	.text.mbedtls_rsa_init,"ax",%progbits
	.hidden	mbedtls_rsa_init                @ -- Begin function mbedtls_rsa_init
	.globl	mbedtls_rsa_init
	.p2align	1
	.type	mbedtls_rsa_init,%function
	.code	16                              @ @mbedtls_rsa_init
	.thumb_func
mbedtls_rsa_init:
.Lfunc_begin7:
	.loc	4 479 0 is_stmt 1               @ ../../../ThirdParty/mbedTLS/library/rsa.c:479:0
	.fnstart
	.cfi_startproc
@ %bb.0:
	@DEBUG_VALUE: mbedtls_rsa_init:ctx <- $r0
	@DEBUG_VALUE: mbedtls_rsa_init:padding <- $r1
	@DEBUG_VALUE: mbedtls_rsa_init:hash_id <- $r2
	.save	{r4, r5, r6, lr}
	push	{r4, r5, r6, lr}
	.cfi_def_cfa_offset 16
	.cfi_offset lr, -4
	.cfi_offset r6, -8
	.cfi_offset r5, -12
	.cfi_offset r4, -16
	mov	r4, r2
	mov	r5, r1
	mov	r6, r0
.Ltmp224:
	@DEBUG_VALUE: mbedtls_rsa_init:hash_id <- $r4
	@DEBUG_VALUE: mbedtls_rsa_init:padding <- $r5
	@DEBUG_VALUE: mbedtls_rsa_init:ctx <- $r6
	movs	r1, #172
.Ltmp225:
	.loc	4 484 5 prologue_end            @ ../../../ThirdParty/mbedTLS/library/rsa.c:484:5
	bl	__aeabi_memclr4
	.loc	4 486 5                         @ ../../../ThirdParty/mbedTLS/library/rsa.c:486:5
	mov	r0, r6
	mov	r1, r5
.Ltmp226:
	@DEBUG_VALUE: mbedtls_rsa_init:padding <- $r1
	mov	r2, r4
.Ltmp227:
	@DEBUG_VALUE: mbedtls_rsa_init:hash_id <- $r2
	bl	mbedtls_rsa_set_padding
.Ltmp228:
	.loc	4 491 1                         @ ../../../ThirdParty/mbedTLS/library/rsa.c:491:1
	pop	{r4, r5, r6, pc}
.Ltmp229:
.Lfunc_end7:
	.size	mbedtls_rsa_init, .Lfunc_end7-mbedtls_rsa_init
	.cfi_endproc
	.cantunwind
	.fnend
                                        @ -- End function
	.section	.text.mbedtls_rsa_set_padding,"ax",%progbits
	.hidden	mbedtls_rsa_set_padding         @ -- Begin function mbedtls_rsa_set_padding
	.globl	mbedtls_rsa_set_padding
	.p2align	1
	.type	mbedtls_rsa_set_padding,%function
	.code	16                              @ @mbedtls_rsa_set_padding
	.thumb_func
mbedtls_rsa_set_padding:
.Lfunc_begin8:
	.loc	4 498 0                         @ ../../../ThirdParty/mbedTLS/library/rsa.c:498:0
	.fnstart
	.cfi_startproc
@ %bb.0:
	@DEBUG_VALUE: mbedtls_rsa_set_padding:ctx <- $r0
	@DEBUG_VALUE: mbedtls_rsa_set_padding:padding <- $r1
	@DEBUG_VALUE: mbedtls_rsa_set_padding:hash_id <- $r2
	movs	r3, #164
	@DEBUG_VALUE: mbedtls_rsa_set_padding:hash_id <- $r2
	@DEBUG_VALUE: mbedtls_rsa_set_padding:padding <- $r1
	@DEBUG_VALUE: mbedtls_rsa_set_padding:ctx <- $r0
.Ltmp230:
	.loc	4 503 18 prologue_end           @ ../../../ThirdParty/mbedTLS/library/rsa.c:503:18
	str	r1, [r0, r3]
	.loc	4 0 0 is_stmt 0                 @ ../../../ThirdParty/mbedTLS/library/rsa.c:0:0
	adds	r0, #164
.Ltmp231:
	@DEBUG_VALUE: mbedtls_rsa_set_padding:ctx <- [DW_OP_LLVM_entry_value 1] $r0
	.loc	4 504 18 is_stmt 1              @ ../../../ThirdParty/mbedTLS/library/rsa.c:504:18
	str	r2, [r0, #4]
	.loc	4 505 1                         @ ../../../ThirdParty/mbedTLS/library/rsa.c:505:1
	bx	lr
.Ltmp232:
.Lfunc_end8:
	.size	mbedtls_rsa_set_padding, .Lfunc_end8-mbedtls_rsa_set_padding
	.cfi_endproc
	.cantunwind
	.fnend
                                        @ -- End function
	.section	.text.mbedtls_rsa_get_len,"ax",%progbits
	.hidden	mbedtls_rsa_get_len             @ -- Begin function mbedtls_rsa_get_len
	.globl	mbedtls_rsa_get_len
	.p2align	1
	.type	mbedtls_rsa_get_len,%function
	.code	16                              @ @mbedtls_rsa_get_len
	.thumb_func
mbedtls_rsa_get_len:
.Lfunc_begin9:
	.loc	4 512 0                         @ ../../../ThirdParty/mbedTLS/library/rsa.c:512:0
	.fnstart
	.cfi_startproc
@ %bb.0:
	@DEBUG_VALUE: mbedtls_rsa_get_len:ctx <- $r0
	@DEBUG_VALUE: mbedtls_rsa_get_len:ctx <- $r0
	.loc	4 513 18 prologue_end           @ ../../../ThirdParty/mbedTLS/library/rsa.c:513:18
	ldr	r0, [r0, #4]
.Ltmp233:
	@DEBUG_VALUE: mbedtls_rsa_get_len:ctx <- [DW_OP_LLVM_entry_value 1] $r0
	.loc	4 513 5 is_stmt 0               @ ../../../ThirdParty/mbedTLS/library/rsa.c:513:5
	bx	lr
.Ltmp234:
.Lfunc_end9:
	.size	mbedtls_rsa_get_len, .Lfunc_end9-mbedtls_rsa_get_len
	.cfi_endproc
	.cantunwind
	.fnend
                                        @ -- End function
	.section	.text.mbedtls_rsa_gen_key,"ax",%progbits
	.hidden	mbedtls_rsa_gen_key             @ -- Begin function mbedtls_rsa_gen_key
	.globl	mbedtls_rsa_gen_key
	.p2align	2
	.type	mbedtls_rsa_gen_key,%function
	.code	16                              @ @mbedtls_rsa_gen_key
	.thumb_func
mbedtls_rsa_gen_key:
.Lfunc_begin10:
	.loc	4 529 0 is_stmt 1               @ ../../../ThirdParty/mbedTLS/library/rsa.c:529:0
	.fnstart
	.cfi_startproc
@ %bb.0:
	@DEBUG_VALUE: mbedtls_rsa_gen_key:ctx <- $r0
	@DEBUG_VALUE: mbedtls_rsa_gen_key:f_rng <- $r1
	@DEBUG_VALUE: mbedtls_rsa_gen_key:p_rng <- $r2
	@DEBUG_VALUE: mbedtls_rsa_gen_key:nbits <- $r3
	.save	{r4, r5, r6, r7, lr}
	push	{r4, r5, r6, r7, lr}
	.cfi_def_cfa_offset 20
	.cfi_offset lr, -4
	.cfi_offset r7, -8
	.cfi_offset r6, -12
	.cfi_offset r5, -16
	.cfi_offset r4, -20
	.pad	#84
	sub	sp, #84
	.cfi_def_cfa_offset 104
	str	r1, [sp, #44]                   @ 4-byte Spill
	mov	r7, r0
.Ltmp235:
	@DEBUG_VALUE: mbedtls_rsa_gen_key:prime_quality <- 0
	@DEBUG_VALUE: mbedtls_rsa_gen_key:exponent <- [DW_OP_plus_uconst 104] [$sp+0]
	@DEBUG_VALUE: mbedtls_rsa_gen_key:nbits <- $r3
	@DEBUG_VALUE: mbedtls_rsa_gen_key:p_rng <- $r2
	@DEBUG_VALUE: mbedtls_rsa_gen_key:f_rng <- [DW_OP_plus_uconst 44] [$sp+0]
	@DEBUG_VALUE: mbedtls_rsa_gen_key:ctx <- $r7
	.loc	4 536 21 prologue_end           @ ../../../ThirdParty/mbedTLS/library/rsa.c:536:21
	lsls	r0, r3, #31
	ldr	r0, __arm_cp.10_0
	beq	.LBB10_1
	b	.LBB10_35
.Ltmp236:
.LBB10_1:
	@DEBUG_VALUE: mbedtls_rsa_gen_key:ctx <- $r7
	@DEBUG_VALUE: mbedtls_rsa_gen_key:nbits <- $r3
	@DEBUG_VALUE: mbedtls_rsa_gen_key:p_rng <- $r2
	@DEBUG_VALUE: mbedtls_rsa_gen_key:f_rng <- [DW_OP_plus_uconst 44] [$sp+0]
	@DEBUG_VALUE: mbedtls_rsa_gen_key:exponent <- [DW_OP_plus_uconst 104] [$sp+0]
	@DEBUG_VALUE: mbedtls_rsa_gen_key:prime_quality <- 0
	.loc	4 0 21 is_stmt 0                @ ../../../ThirdParty/mbedTLS/library/rsa.c:0:21
	mov	r4, r3
.Ltmp237:
	@DEBUG_VALUE: mbedtls_rsa_gen_key:nbits <- $r4
	.loc	4 536 21                        @ ../../../ThirdParty/mbedTLS/library/rsa.c:536:21
	cmp	r3, #128
	bhs	.LBB10_2
	b	.LBB10_35
.Ltmp238:
.LBB10_2:
	@DEBUG_VALUE: mbedtls_rsa_gen_key:ctx <- $r7
	@DEBUG_VALUE: mbedtls_rsa_gen_key:nbits <- $r4
	@DEBUG_VALUE: mbedtls_rsa_gen_key:p_rng <- $r2
	@DEBUG_VALUE: mbedtls_rsa_gen_key:f_rng <- [DW_OP_plus_uconst 44] [$sp+0]
	@DEBUG_VALUE: mbedtls_rsa_gen_key:exponent <- [DW_OP_plus_uconst 104] [$sp+0]
	@DEBUG_VALUE: mbedtls_rsa_gen_key:prime_quality <- 0
	.loc	4 0 21                          @ ../../../ThirdParty/mbedTLS/library/rsa.c:0:21
	ldr	r6, [sp, #104]
	.loc	4 536 21                        @ ../../../ThirdParty/mbedTLS/library/rsa.c:536:21
	cmp	r6, #3
	bge	.LBB10_3
	b	.LBB10_35
.Ltmp239:
.LBB10_3:
	@DEBUG_VALUE: mbedtls_rsa_gen_key:ctx <- $r7
	@DEBUG_VALUE: mbedtls_rsa_gen_key:nbits <- $r4
	@DEBUG_VALUE: mbedtls_rsa_gen_key:p_rng <- $r2
	@DEBUG_VALUE: mbedtls_rsa_gen_key:f_rng <- [DW_OP_plus_uconst 44] [$sp+0]
	@DEBUG_VALUE: mbedtls_rsa_gen_key:exponent <- [DW_OP_plus_uconst 104] [$sp+0]
	@DEBUG_VALUE: mbedtls_rsa_gen_key:prime_quality <- 0
	.loc	4 0 21                          @ ../../../ThirdParty/mbedTLS/library/rsa.c:0:21
	str	r2, [sp, #36]                   @ 4-byte Spill
.Ltmp240:
	@DEBUG_VALUE: mbedtls_rsa_gen_key:p_rng <- [DW_OP_plus_uconst 36] [$sp+0]
	add	r0, sp, #72
	.loc	4 547 5 is_stmt 1               @ ../../../ThirdParty/mbedTLS/library/rsa.c:547:5
	bl	mbedtls_mpi_init
	add	r0, sp, #60
	.loc	4 548 5                         @ ../../../ThirdParty/mbedTLS/library/rsa.c:548:5
	bl	mbedtls_mpi_init
	add	r0, sp, #48
	.loc	4 549 5                         @ ../../../ThirdParty/mbedTLS/library/rsa.c:549:5
	bl	mbedtls_mpi_init
	movw	r0, #1024
.Ltmp241:
	.loc	4 544 15                        @ ../../../ThirdParty/mbedTLS/library/rsa.c:544:15
	cmp	r4, r0
	bhi	.LBB10_5
.Ltmp242:
@ %bb.4:
	@DEBUG_VALUE: mbedtls_rsa_gen_key:p_rng <- [DW_OP_plus_uconst 36] [$sp+0]
	@DEBUG_VALUE: mbedtls_rsa_gen_key:ctx <- $r7
	@DEBUG_VALUE: mbedtls_rsa_gen_key:nbits <- $r4
	@DEBUG_VALUE: mbedtls_rsa_gen_key:f_rng <- [DW_OP_plus_uconst 44] [$sp+0]
	@DEBUG_VALUE: mbedtls_rsa_gen_key:exponent <- [DW_OP_plus_uconst 104] [$sp+0]
	@DEBUG_VALUE: mbedtls_rsa_gen_key:prime_quality <- 0
	.loc	4 0 15 is_stmt 0                @ ../../../ThirdParty/mbedTLS/library/rsa.c:0:15
	movs	r5, #0
	b	.LBB10_6
.Ltmp243:
.LBB10_5:
	@DEBUG_VALUE: mbedtls_rsa_gen_key:p_rng <- [DW_OP_plus_uconst 36] [$sp+0]
	@DEBUG_VALUE: mbedtls_rsa_gen_key:ctx <- $r7
	@DEBUG_VALUE: mbedtls_rsa_gen_key:nbits <- $r4
	@DEBUG_VALUE: mbedtls_rsa_gen_key:f_rng <- [DW_OP_plus_uconst 44] [$sp+0]
	@DEBUG_VALUE: mbedtls_rsa_gen_key:exponent <- [DW_OP_plus_uconst 104] [$sp+0]
	@DEBUG_VALUE: mbedtls_rsa_gen_key:prime_quality <- 0
	movs	r5, #1
.Ltmp244:
.LBB10_6:
	@DEBUG_VALUE: mbedtls_rsa_gen_key:p_rng <- [DW_OP_plus_uconst 36] [$sp+0]
	@DEBUG_VALUE: mbedtls_rsa_gen_key:ctx <- $r7
	@DEBUG_VALUE: mbedtls_rsa_gen_key:nbits <- $r4
	@DEBUG_VALUE: mbedtls_rsa_gen_key:f_rng <- [DW_OP_plus_uconst 44] [$sp+0]
	@DEBUG_VALUE: mbedtls_rsa_gen_key:exponent <- [DW_OP_plus_uconst 104] [$sp+0]
	@DEBUG_VALUE: mbedtls_rsa_gen_key:prime_quality <- 0
	@DEBUG_VALUE: mbedtls_rsa_gen_key:prime_quality <- undef
	str	r7, [sp, #32]                   @ 4-byte Spill
.Ltmp245:
	@DEBUG_VALUE: mbedtls_rsa_gen_key:ctx <- [DW_OP_plus_uconst 32] [$sp+0]
	.loc	4 557 5 is_stmt 1               @ ../../../ThirdParty/mbedTLS/library/rsa.c:557:5
	adds	r7, #20
	str	r7, [sp, #28]                   @ 4-byte Spill
	mov	r0, r7
	mov	r1, r6
	bl	mbedtls_mpi_lset
	mov	r7, r0
.Ltmp246:
	@DEBUG_VALUE: mbedtls_rsa_gen_key:ret <- $r7
	.loc	4 557 5 is_stmt 0               @ ../../../ThirdParty/mbedTLS/library/rsa.c:557:5
	cmp	r0, #0
	beq	.LBB10_7
	b	.LBB10_33
.Ltmp247:
.LBB10_7:
	@DEBUG_VALUE: mbedtls_rsa_gen_key:ctx <- [DW_OP_plus_uconst 32] [$sp+0]
	@DEBUG_VALUE: mbedtls_rsa_gen_key:p_rng <- [DW_OP_plus_uconst 36] [$sp+0]
	@DEBUG_VALUE: mbedtls_rsa_gen_key:ret <- $r7
	@DEBUG_VALUE: mbedtls_rsa_gen_key:nbits <- $r4
	@DEBUG_VALUE: mbedtls_rsa_gen_key:f_rng <- [DW_OP_plus_uconst 44] [$sp+0]
	@DEBUG_VALUE: mbedtls_rsa_gen_key:exponent <- [DW_OP_plus_uconst 104] [$sp+0]
	.loc	4 0 0                           @ ../../../ThirdParty/mbedTLS/library/rsa.c:0:0
	lsls	r5, r5, #1
.Ltmp248:
	@DEBUG_VALUE: mbedtls_rsa_gen_key:prime_quality <- $r5
	.loc	4 561 9 is_stmt 1               @ ../../../ThirdParty/mbedTLS/library/rsa.c:561:9
	ldr	r0, [sp, #36]                   @ 4-byte Reload
.Ltmp249:
	@DEBUG_VALUE: mbedtls_rsa_gen_key:p_rng <- $r0
	str	r0, [sp]
	ldr	r0, [sp, #32]                   @ 4-byte Reload
.Ltmp250:
	@DEBUG_VALUE: mbedtls_rsa_gen_key:ctx <- $r0
	@DEBUG_VALUE: mbedtls_rsa_gen_key:p_rng <- [DW_OP_LLVM_entry_value 1] $r2
	adds	r0, #44
.Ltmp251:
	lsrs	r6, r4, #1
	str	r0, [sp, #40]                   @ 4-byte Spill
	mov	r1, r6
	mov	r2, r5
	ldr	r3, [sp, #44]                   @ 4-byte Reload
	bl	mbedtls_mpi_gen_prime
	mov	r7, r0
.Ltmp252:
	@DEBUG_VALUE: mbedtls_rsa_gen_key:ret <- $r7
	.loc	4 561 9 is_stmt 0               @ ../../../ThirdParty/mbedTLS/library/rsa.c:561:9
	cmp	r0, #0
	beq	.LBB10_8
	b	.LBB10_33
.Ltmp253:
.LBB10_8:
	@DEBUG_VALUE: mbedtls_rsa_gen_key:ret <- $r7
	@DEBUG_VALUE: mbedtls_rsa_gen_key:prime_quality <- $r5
	@DEBUG_VALUE: mbedtls_rsa_gen_key:nbits <- $r4
	@DEBUG_VALUE: mbedtls_rsa_gen_key:f_rng <- [DW_OP_plus_uconst 44] [$sp+0]
	@DEBUG_VALUE: mbedtls_rsa_gen_key:exponent <- [DW_OP_plus_uconst 104] [$sp+0]
	@DEBUG_VALUE: mbedtls_rsa_gen_key:p_rng <- [DW_OP_LLVM_entry_value 1] $r2
	.loc	4 0 0                           @ ../../../ThirdParty/mbedTLS/library/rsa.c:0:0
	cmp	r4, #199
	bhi	.LBB10_10
.Ltmp254:
@ %bb.9:
	@DEBUG_VALUE: mbedtls_rsa_gen_key:ret <- $r7
	@DEBUG_VALUE: mbedtls_rsa_gen_key:prime_quality <- $r5
	@DEBUG_VALUE: mbedtls_rsa_gen_key:nbits <- $r4
	@DEBUG_VALUE: mbedtls_rsa_gen_key:f_rng <- [DW_OP_plus_uconst 44] [$sp+0]
	@DEBUG_VALUE: mbedtls_rsa_gen_key:exponent <- [DW_OP_plus_uconst 104] [$sp+0]
	@DEBUG_VALUE: mbedtls_rsa_gen_key:p_rng <- [DW_OP_LLVM_entry_value 1] $r2
	movs	r0, #0
	b	.LBB10_11
.Ltmp255:
.LBB10_10:
	@DEBUG_VALUE: mbedtls_rsa_gen_key:ret <- $r7
	@DEBUG_VALUE: mbedtls_rsa_gen_key:prime_quality <- $r5
	@DEBUG_VALUE: mbedtls_rsa_gen_key:nbits <- $r4
	@DEBUG_VALUE: mbedtls_rsa_gen_key:f_rng <- [DW_OP_plus_uconst 44] [$sp+0]
	@DEBUG_VALUE: mbedtls_rsa_gen_key:exponent <- [DW_OP_plus_uconst 104] [$sp+0]
	@DEBUG_VALUE: mbedtls_rsa_gen_key:p_rng <- [DW_OP_LLVM_entry_value 1] $r2
	mov	r0, r6
	subs	r0, #99
.Ltmp256:
.LBB10_11:
	@DEBUG_VALUE: mbedtls_rsa_gen_key:ret <- $r7
	@DEBUG_VALUE: mbedtls_rsa_gen_key:prime_quality <- $r5
	@DEBUG_VALUE: mbedtls_rsa_gen_key:nbits <- $r4
	@DEBUG_VALUE: mbedtls_rsa_gen_key:f_rng <- [DW_OP_plus_uconst 44] [$sp+0]
	@DEBUG_VALUE: mbedtls_rsa_gen_key:exponent <- [DW_OP_plus_uconst 104] [$sp+0]
	@DEBUG_VALUE: mbedtls_rsa_gen_key:p_rng <- [DW_OP_LLVM_entry_value 1] $r2
	str	r0, [sp, #20]                   @ 4-byte Spill
	ldr	r0, [sp, #32]                   @ 4-byte Reload
.Ltmp257:
	mov	r1, r0
	adds	r1, #32
	str	r1, [sp, #12]                   @ 4-byte Spill
.Ltmp258:
	adds	r0, #56
	str	r0, [sp, #24]                   @ 4-byte Spill
.Ltmp259:
	adds	r0, r4, #1
	lsrs	r0, r0, #1
	str	r0, [sp, #8]                    @ 4-byte Spill
	str	r6, [sp, #16]                   @ 4-byte Spill
	b	.LBB10_13
.Ltmp260:
.LBB10_12:                              @   in Loop: Header=BB10_13 Depth=1
	@DEBUG_VALUE: mbedtls_rsa_gen_key:f_rng <- [DW_OP_plus_uconst 44] [$sp+0]
	@DEBUG_VALUE: mbedtls_rsa_gen_key:exponent <- [DW_OP_plus_uconst 104] [$sp+0]
	@DEBUG_VALUE: mbedtls_rsa_gen_key:p_rng <- [DW_OP_LLVM_entry_value 1] $r2
	.loc	4 561 9                         @ ../../../ThirdParty/mbedTLS/library/rsa.c:561:9
	str	r5, [sp]
	ldr	r0, [sp, #40]                   @ 4-byte Reload
	ldr	r1, [sp, #16]                   @ 4-byte Reload
	mov	r5, r6
	mov	r6, r1
	mov	r2, r5
	ldr	r3, [sp, #44]                   @ 4-byte Reload
	bl	mbedtls_mpi_gen_prime
	mov	r7, r0
.Ltmp261:
	@DEBUG_VALUE: mbedtls_rsa_gen_key:ret <- $r7
	.loc	4 561 9                         @ ../../../ThirdParty/mbedTLS/library/rsa.c:561:9
	cmp	r0, #0
	beq	.LBB10_13
	b	.LBB10_33
.Ltmp262:
.LBB10_13:                              @ =>This Inner Loop Header: Depth=1
	@DEBUG_VALUE: mbedtls_rsa_gen_key:ret <- $r7
	@DEBUG_VALUE: mbedtls_rsa_gen_key:f_rng <- [DW_OP_plus_uconst 44] [$sp+0]
	@DEBUG_VALUE: mbedtls_rsa_gen_key:exponent <- [DW_OP_plus_uconst 104] [$sp+0]
	@DEBUG_VALUE: mbedtls_rsa_gen_key:p_rng <- [DW_OP_LLVM_entry_value 1] $r2
	.loc	4 0 9                           @ ../../../ThirdParty/mbedTLS/library/rsa.c:0:9
	mov	r2, r5
	ldr	r5, [sp, #36]                   @ 4-byte Reload
.Ltmp263:
	.loc	4 564 9 is_stmt 1               @ ../../../ThirdParty/mbedTLS/library/rsa.c:564:9
	str	r5, [sp]
	ldr	r4, [sp, #24]                   @ 4-byte Reload
.Ltmp264:
	@DEBUG_VALUE: mbedtls_rsa_gen_key:nbits <- [DW_OP_LLVM_entry_value 1] $r3
	mov	r0, r4
	mov	r1, r6
	mov	r6, r2
	ldr	r3, [sp, #44]                   @ 4-byte Reload
	bl	mbedtls_mpi_gen_prime
.Ltmp265:
	@DEBUG_VALUE: mbedtls_rsa_gen_key:ret <- $r0
	.loc	4 564 9 is_stmt 0               @ ../../../ThirdParty/mbedTLS/library/rsa.c:564:9
	cmp	r0, #0
	beq	.LBB10_14
	b	.LBB10_32
.Ltmp266:
.LBB10_14:                              @   in Loop: Header=BB10_13 Depth=1
	@DEBUG_VALUE: mbedtls_rsa_gen_key:ret <- $r0
	@DEBUG_VALUE: mbedtls_rsa_gen_key:f_rng <- [DW_OP_plus_uconst 44] [$sp+0]
	@DEBUG_VALUE: mbedtls_rsa_gen_key:exponent <- [DW_OP_plus_uconst 104] [$sp+0]
	@DEBUG_VALUE: mbedtls_rsa_gen_key:p_rng <- [DW_OP_LLVM_entry_value 1] $r2
	.loc	4 0 9                           @ ../../../ThirdParty/mbedTLS/library/rsa.c:0:9
	add	r0, sp, #72
.Ltmp267:
	.loc	4 568 9 is_stmt 1               @ ../../../ThirdParty/mbedTLS/library/rsa.c:568:9
	ldr	r1, [sp, #40]                   @ 4-byte Reload
	mov	r2, r4
	bl	mbedtls_mpi_sub_mpi
.Ltmp268:
	@DEBUG_VALUE: mbedtls_rsa_gen_key:ret <- $r0
	.loc	4 568 9 is_stmt 0               @ ../../../ThirdParty/mbedTLS/library/rsa.c:568:9
	cmp	r0, #0
	bne	.LBB10_32
.Ltmp269:
@ %bb.15:                               @   in Loop: Header=BB10_13 Depth=1
	@DEBUG_VALUE: mbedtls_rsa_gen_key:ret <- $r0
	@DEBUG_VALUE: mbedtls_rsa_gen_key:f_rng <- [DW_OP_plus_uconst 44] [$sp+0]
	@DEBUG_VALUE: mbedtls_rsa_gen_key:exponent <- [DW_OP_plus_uconst 104] [$sp+0]
	@DEBUG_VALUE: mbedtls_rsa_gen_key:p_rng <- [DW_OP_LLVM_entry_value 1] $r2
	.loc	4 0 9                           @ ../../../ThirdParty/mbedTLS/library/rsa.c:0:9
	add	r0, sp, #72
.Ltmp270:
	.loc	4 569 13 is_stmt 1              @ ../../../ThirdParty/mbedTLS/library/rsa.c:569:13
	bl	mbedtls_mpi_bitlen
.Ltmp271:
	.loc	4 569 13 is_stmt 0              @ ../../../ThirdParty/mbedTLS/library/rsa.c:569:13
	ldr	r1, [sp, #20]                   @ 4-byte Reload
	cmp	r0, r1
	bls	.LBB10_12
.Ltmp272:
@ %bb.16:                               @   in Loop: Header=BB10_13 Depth=1
	@DEBUG_VALUE: mbedtls_rsa_gen_key:f_rng <- [DW_OP_plus_uconst 44] [$sp+0]
	@DEBUG_VALUE: mbedtls_rsa_gen_key:exponent <- [DW_OP_plus_uconst 104] [$sp+0]
	@DEBUG_VALUE: mbedtls_rsa_gen_key:p_rng <- [DW_OP_LLVM_entry_value 1] $r2
	.loc	4 573 15 is_stmt 1              @ ../../../ThirdParty/mbedTLS/library/rsa.c:573:15
	ldr	r0, [sp, #72]
.Ltmp273:
	.loc	4 573 13 is_stmt 0              @ ../../../ThirdParty/mbedTLS/library/rsa.c:573:13
	cmp	r0, #0
	bpl	.LBB10_18
.Ltmp274:
@ %bb.17:                               @   in Loop: Header=BB10_13 Depth=1
	@DEBUG_VALUE: mbedtls_rsa_gen_key:f_rng <- [DW_OP_plus_uconst 44] [$sp+0]
	@DEBUG_VALUE: mbedtls_rsa_gen_key:exponent <- [DW_OP_plus_uconst 104] [$sp+0]
	@DEBUG_VALUE: mbedtls_rsa_gen_key:p_rng <- [DW_OP_LLVM_entry_value 1] $r2
	.loc	4 574 13 is_stmt 1              @ ../../../ThirdParty/mbedTLS/library/rsa.c:574:13
	ldr	r0, [sp, #40]                   @ 4-byte Reload
	mov	r1, r4
	bl	mbedtls_mpi_swap
.Ltmp275:
.LBB10_18:                              @   in Loop: Header=BB10_13 Depth=1
	@DEBUG_VALUE: mbedtls_rsa_gen_key:f_rng <- [DW_OP_plus_uconst 44] [$sp+0]
	@DEBUG_VALUE: mbedtls_rsa_gen_key:exponent <- [DW_OP_plus_uconst 104] [$sp+0]
	@DEBUG_VALUE: mbedtls_rsa_gen_key:p_rng <- [DW_OP_LLVM_entry_value 1] $r2
	.loc	4 0 13 is_stmt 0                @ ../../../ThirdParty/mbedTLS/library/rsa.c:0:13
	movs	r2, #1
	ldr	r0, [sp, #40]                   @ 4-byte Reload
.Ltmp276:
	.loc	4 577 9 is_stmt 1               @ ../../../ThirdParty/mbedTLS/library/rsa.c:577:9
	mov	r1, r0
	bl	mbedtls_mpi_sub_int
.Ltmp277:
	@DEBUG_VALUE: mbedtls_rsa_gen_key:ret <- $r0
	.loc	4 577 9 is_stmt 0               @ ../../../ThirdParty/mbedTLS/library/rsa.c:577:9
	cmp	r0, #0
	bne	.LBB10_32
.Ltmp278:
@ %bb.19:                               @   in Loop: Header=BB10_13 Depth=1
	@DEBUG_VALUE: mbedtls_rsa_gen_key:ret <- $r0
	@DEBUG_VALUE: mbedtls_rsa_gen_key:f_rng <- [DW_OP_plus_uconst 44] [$sp+0]
	@DEBUG_VALUE: mbedtls_rsa_gen_key:exponent <- [DW_OP_plus_uconst 104] [$sp+0]
	@DEBUG_VALUE: mbedtls_rsa_gen_key:p_rng <- [DW_OP_LLVM_entry_value 1] $r2
	.loc	4 0 9                           @ ../../../ThirdParty/mbedTLS/library/rsa.c:0:9
	movs	r2, #1
.Ltmp279:
	.loc	4 578 9 is_stmt 1               @ ../../../ThirdParty/mbedTLS/library/rsa.c:578:9
	mov	r0, r4
.Ltmp280:
	mov	r1, r4
	bl	mbedtls_mpi_sub_int
.Ltmp281:
	@DEBUG_VALUE: mbedtls_rsa_gen_key:ret <- $r0
	.loc	4 578 9 is_stmt 0               @ ../../../ThirdParty/mbedTLS/library/rsa.c:578:9
	cmp	r0, #0
	bne	.LBB10_32
.Ltmp282:
@ %bb.20:                               @   in Loop: Header=BB10_13 Depth=1
	@DEBUG_VALUE: mbedtls_rsa_gen_key:ret <- $r0
	@DEBUG_VALUE: mbedtls_rsa_gen_key:f_rng <- [DW_OP_plus_uconst 44] [$sp+0]
	@DEBUG_VALUE: mbedtls_rsa_gen_key:exponent <- [DW_OP_plus_uconst 104] [$sp+0]
	@DEBUG_VALUE: mbedtls_rsa_gen_key:p_rng <- [DW_OP_LLVM_entry_value 1] $r2
	.loc	4 0 9                           @ ../../../ThirdParty/mbedTLS/library/rsa.c:0:9
	add	r0, sp, #72
.Ltmp283:
	.loc	4 579 9 is_stmt 1               @ ../../../ThirdParty/mbedTLS/library/rsa.c:579:9
	ldr	r1, [sp, #40]                   @ 4-byte Reload
	mov	r2, r4
	bl	mbedtls_mpi_mul_mpi
.Ltmp284:
	@DEBUG_VALUE: mbedtls_rsa_gen_key:ret <- $r0
	.loc	4 579 9 is_stmt 0               @ ../../../ThirdParty/mbedTLS/library/rsa.c:579:9
	cmp	r0, #0
	bne	.LBB10_32
.Ltmp285:
@ %bb.21:                               @   in Loop: Header=BB10_13 Depth=1
	@DEBUG_VALUE: mbedtls_rsa_gen_key:ret <- $r0
	@DEBUG_VALUE: mbedtls_rsa_gen_key:f_rng <- [DW_OP_plus_uconst 44] [$sp+0]
	@DEBUG_VALUE: mbedtls_rsa_gen_key:exponent <- [DW_OP_plus_uconst 104] [$sp+0]
	@DEBUG_VALUE: mbedtls_rsa_gen_key:p_rng <- [DW_OP_LLVM_entry_value 1] $r2
	.loc	4 0 9                           @ ../../../ThirdParty/mbedTLS/library/rsa.c:0:9
	add	r0, sp, #60
.Ltmp286:
	add	r2, sp, #72
.Ltmp287:
	.loc	4 582 9 is_stmt 1               @ ../../../ThirdParty/mbedTLS/library/rsa.c:582:9
	ldr	r1, [sp, #28]                   @ 4-byte Reload
	bl	mbedtls_mpi_gcd
.Ltmp288:
	@DEBUG_VALUE: mbedtls_rsa_gen_key:ret <- $r0
	.loc	4 582 9 is_stmt 0               @ ../../../ThirdParty/mbedTLS/library/rsa.c:582:9
	cmp	r0, #0
	bne	.LBB10_32
.Ltmp289:
@ %bb.22:                               @   in Loop: Header=BB10_13 Depth=1
	@DEBUG_VALUE: mbedtls_rsa_gen_key:ret <- $r0
	@DEBUG_VALUE: mbedtls_rsa_gen_key:f_rng <- [DW_OP_plus_uconst 44] [$sp+0]
	@DEBUG_VALUE: mbedtls_rsa_gen_key:exponent <- [DW_OP_plus_uconst 104] [$sp+0]
	@DEBUG_VALUE: mbedtls_rsa_gen_key:p_rng <- [DW_OP_LLVM_entry_value 1] $r2
	.loc	4 0 9                           @ ../../../ThirdParty/mbedTLS/library/rsa.c:0:9
	add	r0, sp, #60
.Ltmp290:
	movs	r1, #1
.Ltmp291:
	.loc	4 583 13 is_stmt 1              @ ../../../ThirdParty/mbedTLS/library/rsa.c:583:13
	bl	mbedtls_mpi_cmp_int
.Ltmp292:
	.loc	4 583 13 is_stmt 0              @ ../../../ThirdParty/mbedTLS/library/rsa.c:583:13
	cmp	r0, #0
	bne	.LBB10_12
.Ltmp293:
@ %bb.23:                               @   in Loop: Header=BB10_13 Depth=1
	@DEBUG_VALUE: mbedtls_rsa_gen_key:f_rng <- [DW_OP_plus_uconst 44] [$sp+0]
	@DEBUG_VALUE: mbedtls_rsa_gen_key:exponent <- [DW_OP_plus_uconst 104] [$sp+0]
	@DEBUG_VALUE: mbedtls_rsa_gen_key:p_rng <- [DW_OP_LLVM_entry_value 1] $r2
	.loc	4 0 13                          @ ../../../ThirdParty/mbedTLS/library/rsa.c:0:13
	add	r0, sp, #60
.Ltmp294:
	.loc	4 587 9 is_stmt 1               @ ../../../ThirdParty/mbedTLS/library/rsa.c:587:9
	ldr	r1, [sp, #40]                   @ 4-byte Reload
	mov	r2, r4
	bl	mbedtls_mpi_gcd
.Ltmp295:
	@DEBUG_VALUE: mbedtls_rsa_gen_key:ret <- $r0
	.loc	4 587 9 is_stmt 0               @ ../../../ThirdParty/mbedTLS/library/rsa.c:587:9
	cmp	r0, #0
	bne	.LBB10_32
.Ltmp296:
@ %bb.24:                               @   in Loop: Header=BB10_13 Depth=1
	@DEBUG_VALUE: mbedtls_rsa_gen_key:ret <- $r0
	@DEBUG_VALUE: mbedtls_rsa_gen_key:f_rng <- [DW_OP_plus_uconst 44] [$sp+0]
	@DEBUG_VALUE: mbedtls_rsa_gen_key:exponent <- [DW_OP_plus_uconst 104] [$sp+0]
	@DEBUG_VALUE: mbedtls_rsa_gen_key:p_rng <- [DW_OP_LLVM_entry_value 1] $r2
	.loc	4 0 9                           @ ../../../ThirdParty/mbedTLS/library/rsa.c:0:9
	add	r0, sp, #48
.Ltmp297:
	movs	r1, #0
	add	r2, sp, #72
	add	r3, sp, #60
.Ltmp298:
	.loc	4 588 9 is_stmt 1               @ ../../../ThirdParty/mbedTLS/library/rsa.c:588:9
	bl	mbedtls_mpi_div_mpi
.Ltmp299:
	@DEBUG_VALUE: mbedtls_rsa_gen_key:ret <- $r0
	.loc	4 588 9 is_stmt 0               @ ../../../ThirdParty/mbedTLS/library/rsa.c:588:9
	cbnz	r0, .LBB10_32
.Ltmp300:
@ %bb.25:                               @   in Loop: Header=BB10_13 Depth=1
	@DEBUG_VALUE: mbedtls_rsa_gen_key:ret <- $r0
	@DEBUG_VALUE: mbedtls_rsa_gen_key:f_rng <- [DW_OP_plus_uconst 44] [$sp+0]
	@DEBUG_VALUE: mbedtls_rsa_gen_key:exponent <- [DW_OP_plus_uconst 104] [$sp+0]
	@DEBUG_VALUE: mbedtls_rsa_gen_key:p_rng <- [DW_OP_LLVM_entry_value 1] $r2
	.loc	4 0 9                           @ ../../../ThirdParty/mbedTLS/library/rsa.c:0:9
	add	r2, sp, #48
	ldr	r4, [sp, #12]                   @ 4-byte Reload
.Ltmp301:
	.loc	4 589 9 is_stmt 1               @ ../../../ThirdParty/mbedTLS/library/rsa.c:589:9
	mov	r0, r4
.Ltmp302:
	ldr	r1, [sp, #28]                   @ 4-byte Reload
	bl	mbedtls_mpi_inv_mod
.Ltmp303:
	@DEBUG_VALUE: mbedtls_rsa_gen_key:ret <- $r0
	.loc	4 589 9 is_stmt 0               @ ../../../ThirdParty/mbedTLS/library/rsa.c:589:9
	cbnz	r0, .LBB10_32
.Ltmp304:
@ %bb.26:                               @   in Loop: Header=BB10_13 Depth=1
	@DEBUG_VALUE: mbedtls_rsa_gen_key:ret <- $r0
	@DEBUG_VALUE: mbedtls_rsa_gen_key:f_rng <- [DW_OP_plus_uconst 44] [$sp+0]
	@DEBUG_VALUE: mbedtls_rsa_gen_key:exponent <- [DW_OP_plus_uconst 104] [$sp+0]
	@DEBUG_VALUE: mbedtls_rsa_gen_key:p_rng <- [DW_OP_LLVM_entry_value 1] $r2
	.loc	4 591 13 is_stmt 1              @ ../../../ThirdParty/mbedTLS/library/rsa.c:591:13
	mov	r0, r4
.Ltmp305:
	bl	mbedtls_mpi_bitlen
.Ltmp306:
	.loc	4 591 13 is_stmt 0              @ ../../../ThirdParty/mbedTLS/library/rsa.c:591:13
	ldr	r1, [sp, #8]                    @ 4-byte Reload
	cmp	r0, r1
	bls	.LBB10_12
.Ltmp307:
@ %bb.27:
	@DEBUG_VALUE: mbedtls_rsa_gen_key:f_rng <- [DW_OP_plus_uconst 44] [$sp+0]
	@DEBUG_VALUE: mbedtls_rsa_gen_key:exponent <- [DW_OP_plus_uconst 104] [$sp+0]
	@DEBUG_VALUE: mbedtls_rsa_gen_key:p_rng <- [DW_OP_LLVM_entry_value 1] $r2
	.loc	4 0 13                          @ ../../../ThirdParty/mbedTLS/library/rsa.c:0:13
	movs	r2, #1
	ldr	r0, [sp, #40]                   @ 4-byte Reload
.Ltmp308:
	.loc	4 599 5 is_stmt 1               @ ../../../ThirdParty/mbedTLS/library/rsa.c:599:5
	mov	r1, r0
	bl	mbedtls_mpi_add_int
	mov	r7, r0
.Ltmp309:
	@DEBUG_VALUE: mbedtls_rsa_gen_key:ret <- $r7
	.loc	4 599 5 is_stmt 0               @ ../../../ThirdParty/mbedTLS/library/rsa.c:599:5
	cbnz	r0, .LBB10_33
.Ltmp310:
@ %bb.28:
	@DEBUG_VALUE: mbedtls_rsa_gen_key:ret <- $r7
	@DEBUG_VALUE: mbedtls_rsa_gen_key:f_rng <- [DW_OP_plus_uconst 44] [$sp+0]
	@DEBUG_VALUE: mbedtls_rsa_gen_key:exponent <- [DW_OP_plus_uconst 104] [$sp+0]
	@DEBUG_VALUE: mbedtls_rsa_gen_key:p_rng <- [DW_OP_LLVM_entry_value 1] $r2
	.loc	4 0 5                           @ ../../../ThirdParty/mbedTLS/library/rsa.c:0:5
	movs	r2, #1
	ldr	r0, [sp, #24]                   @ 4-byte Reload
.Ltmp311:
	.loc	4 600 5 is_stmt 1               @ ../../../ThirdParty/mbedTLS/library/rsa.c:600:5
	mov	r1, r0
	bl	mbedtls_mpi_add_int
	mov	r7, r0
.Ltmp312:
	@DEBUG_VALUE: mbedtls_rsa_gen_key:ret <- $r7
	.loc	4 600 5 is_stmt 0               @ ../../../ThirdParty/mbedTLS/library/rsa.c:600:5
	cbnz	r0, .LBB10_33
.Ltmp313:
@ %bb.29:
	@DEBUG_VALUE: mbedtls_rsa_gen_key:ret <- $r7
	@DEBUG_VALUE: mbedtls_rsa_gen_key:f_rng <- [DW_OP_plus_uconst 44] [$sp+0]
	@DEBUG_VALUE: mbedtls_rsa_gen_key:exponent <- [DW_OP_plus_uconst 104] [$sp+0]
	@DEBUG_VALUE: mbedtls_rsa_gen_key:p_rng <- [DW_OP_LLVM_entry_value 1] $r2
	.loc	4 602 5 is_stmt 1               @ ../../../ThirdParty/mbedTLS/library/rsa.c:602:5
	ldr	r4, [sp, #32]                   @ 4-byte Reload
	adds	r4, #8
	mov	r0, r4
	ldr	r1, [sp, #40]                   @ 4-byte Reload
	ldr	r2, [sp, #24]                   @ 4-byte Reload
	bl	mbedtls_mpi_mul_mpi
	mov	r7, r0
.Ltmp314:
	@DEBUG_VALUE: mbedtls_rsa_gen_key:ret <- $r7
	.loc	4 602 5 is_stmt 0               @ ../../../ThirdParty/mbedTLS/library/rsa.c:602:5
	cbnz	r0, .LBB10_33
.Ltmp315:
@ %bb.30:
	@DEBUG_VALUE: mbedtls_rsa_gen_key:ret <- $r7
	@DEBUG_VALUE: mbedtls_rsa_gen_key:f_rng <- [DW_OP_plus_uconst 44] [$sp+0]
	@DEBUG_VALUE: mbedtls_rsa_gen_key:exponent <- [DW_OP_plus_uconst 104] [$sp+0]
	@DEBUG_VALUE: mbedtls_rsa_gen_key:p_rng <- [DW_OP_LLVM_entry_value 1] $r2
	.loc	4 604 16 is_stmt 1              @ ../../../ThirdParty/mbedTLS/library/rsa.c:604:16
	mov	r0, r4
	bl	mbedtls_mpi_size
	ldr	r3, [sp, #32]                   @ 4-byte Reload
	.loc	4 604 14 is_stmt 0              @ ../../../ThirdParty/mbedTLS/library/rsa.c:604:14
	str	r0, [r3, #4]
.Ltmp316:
	.loc	4 612 5 is_stmt 1               @ ../../../ThirdParty/mbedTLS/library/rsa.c:612:5
	mov	r0, r3
	adds	r0, #92
	mov	r1, r3
	adds	r1, #80
	str	r1, [sp]
	str	r0, [sp, #4]
	adds	r3, #68
	ldr	r0, [sp, #40]                   @ 4-byte Reload
	ldr	r1, [sp, #24]                   @ 4-byte Reload
	ldr	r2, [sp, #12]                   @ 4-byte Reload
	bl	mbedtls_rsa_deduce_crt
	mov	r7, r0
.Ltmp317:
	@DEBUG_VALUE: mbedtls_rsa_gen_key:ret <- $r7
	.loc	4 612 5 is_stmt 0               @ ../../../ThirdParty/mbedTLS/library/rsa.c:612:5
	cbnz	r0, .LBB10_33
.Ltmp318:
@ %bb.31:
	@DEBUG_VALUE: mbedtls_rsa_gen_key:ret <- $r7
	@DEBUG_VALUE: mbedtls_rsa_gen_key:f_rng <- [DW_OP_plus_uconst 44] [$sp+0]
	@DEBUG_VALUE: mbedtls_rsa_gen_key:exponent <- [DW_OP_plus_uconst 104] [$sp+0]
	@DEBUG_VALUE: mbedtls_rsa_gen_key:p_rng <- [DW_OP_LLVM_entry_value 1] $r2
	.loc	4 617 5 is_stmt 1               @ ../../../ThirdParty/mbedTLS/library/rsa.c:617:5
	ldr	r0, [sp, #32]                   @ 4-byte Reload
	bl	mbedtls_rsa_check_privkey
.Ltmp319:
.LBB10_32:
	@DEBUG_VALUE: mbedtls_rsa_gen_key:f_rng <- [DW_OP_plus_uconst 44] [$sp+0]
	@DEBUG_VALUE: mbedtls_rsa_gen_key:exponent <- [DW_OP_plus_uconst 104] [$sp+0]
	@DEBUG_VALUE: mbedtls_rsa_gen_key:p_rng <- [DW_OP_LLVM_entry_value 1] $r2
	.loc	4 0 5 is_stmt 0                 @ ../../../ThirdParty/mbedTLS/library/rsa.c:0:5
	mov	r7, r0
.Ltmp320:
	@DEBUG_VALUE: mbedtls_rsa_gen_key:ret <- $r7
.LBB10_33:
	@DEBUG_VALUE: mbedtls_rsa_gen_key:ret <- $r7
	@DEBUG_VALUE: mbedtls_rsa_gen_key:f_rng <- [DW_OP_plus_uconst 44] [$sp+0]
	@DEBUG_VALUE: mbedtls_rsa_gen_key:exponent <- [DW_OP_plus_uconst 104] [$sp+0]
	@DEBUG_VALUE: mbedtls_rsa_gen_key:ret <- $r7
	@DEBUG_LABEL: mbedtls_rsa_gen_key:cleanup
	add	r0, sp, #72
	.loc	4 621 5 is_stmt 1               @ ../../../ThirdParty/mbedTLS/library/rsa.c:621:5
	bl	mbedtls_mpi_free
	add	r0, sp, #60
	.loc	4 622 5                         @ ../../../ThirdParty/mbedTLS/library/rsa.c:622:5
	bl	mbedtls_mpi_free
	add	r0, sp, #48
	.loc	4 623 5                         @ ../../../ThirdParty/mbedTLS/library/rsa.c:623:5
	bl	mbedtls_mpi_free
	.loc	4 625 9                         @ ../../../ThirdParty/mbedTLS/library/rsa.c:625:9
	cbz	r7, .LBB10_36
.Ltmp321:
@ %bb.34:
	@DEBUG_VALUE: mbedtls_rsa_gen_key:ret <- $r7
	@DEBUG_VALUE: mbedtls_rsa_gen_key:f_rng <- [DW_OP_plus_uconst 44] [$sp+0]
	@DEBUG_VALUE: mbedtls_rsa_gen_key:exponent <- [DW_OP_plus_uconst 104] [$sp+0]
	.loc	4 627 9                         @ ../../../ThirdParty/mbedTLS/library/rsa.c:627:9
	ldr	r0, [sp, #32]                   @ 4-byte Reload
	bl	mbedtls_rsa_free
	.loc	4 628 48                        @ ../../../ThirdParty/mbedTLS/library/rsa.c:628:48
	movw	r0, #16768
	subs	r0, r7, r0
.Ltmp322:
.LBB10_35:
	@DEBUG_VALUE: mbedtls_rsa_gen_key:f_rng <- [DW_OP_plus_uconst 44] [$sp+0]
	@DEBUG_VALUE: mbedtls_rsa_gen_key:exponent <- [DW_OP_plus_uconst 104] [$sp+0]
	.loc	4 632 1                         @ ../../../ThirdParty/mbedTLS/library/rsa.c:632:1
	add	sp, #84
.Ltmp323:
	pop	{r4, r5, r6, r7, pc}
.LBB10_36:
.Ltmp324:
	@DEBUG_VALUE: mbedtls_rsa_gen_key:ret <- $r7
	@DEBUG_VALUE: mbedtls_rsa_gen_key:f_rng <- [DW_OP_plus_uconst 44] [$sp+0]
	@DEBUG_VALUE: mbedtls_rsa_gen_key:exponent <- [DW_OP_plus_uconst 104] [$sp+0]
	.loc	4 0 1 is_stmt 0                 @ ../../../ThirdParty/mbedTLS/library/rsa.c:0:1
	movs	r0, #0
	.loc	4 632 1                         @ ../../../ThirdParty/mbedTLS/library/rsa.c:632:1
	add	sp, #84
.Ltmp325:
	pop	{r4, r5, r6, r7, pc}
.Ltmp326:
	.p2align	2
@ %bb.37:
	.loc	4 0 1                           @ ../../../ThirdParty/mbedTLS/library/rsa.c:0:1
__arm_cp.10_0:
	.long	4294950784                      @ 0xffffbf80
.Lcpi_end5:
	.size	__arm_cp.10_0, .Lcpi_end5-__arm_cp.10_0
.Lfunc_end10:
	.size	mbedtls_rsa_gen_key, .Lfunc_end10-mbedtls_rsa_gen_key
	.cfi_endproc
	.cantunwind
	.fnend
                                        @ -- End function
	.section	.text.mbedtls_rsa_check_privkey,"ax",%progbits
	.hidden	mbedtls_rsa_check_privkey       @ -- Begin function mbedtls_rsa_check_privkey
	.globl	mbedtls_rsa_check_privkey
	.p2align	2
	.type	mbedtls_rsa_check_privkey,%function
	.code	16                              @ @mbedtls_rsa_check_privkey
	.thumb_func
mbedtls_rsa_check_privkey:
.Lfunc_begin11:
	.loc	4 665 0 is_stmt 1               @ ../../../ThirdParty/mbedTLS/library/rsa.c:665:0
	.fnstart
	.cfi_startproc
@ %bb.0:
	@DEBUG_VALUE: mbedtls_rsa_check_privkey:ctx <- $r0
	.save	{r4, r5, r6, r7, lr}
	push	{r4, r5, r6, r7, lr}
	.cfi_def_cfa_offset 20
	.cfi_offset lr, -4
	.cfi_offset r7, -8
	.cfi_offset r6, -12
	.cfi_offset r5, -16
	.cfi_offset r4, -20
	.pad	#20
	sub	sp, #20
	.cfi_def_cfa_offset 40
	mov	r5, r0
.Ltmp327:
	@DEBUG_VALUE: mbedtls_rsa_check_privkey:ctx <- $r5
	.loc	4 668 9 prologue_end            @ ../../../ThirdParty/mbedTLS/library/rsa.c:668:9
	bl	mbedtls_rsa_check_pubkey
	ldr	r4, __arm_cp.11_0
	.loc	4 668 46 is_stmt 0              @ ../../../ThirdParty/mbedTLS/library/rsa.c:668:46
	cbnz	r0, .LBB11_5
.Ltmp328:
@ %bb.1:
	@DEBUG_VALUE: mbedtls_rsa_check_privkey:ctx <- $r5
	.loc	4 0 46                          @ ../../../ThirdParty/mbedTLS/library/rsa.c:0:46
	movs	r1, #1
	.loc	4 669 13 is_stmt 1              @ ../../../ThirdParty/mbedTLS/library/rsa.c:669:13
	mov	r0, r5
	bl	rsa_check_context
.Ltmp329:
	.loc	4 668 9                         @ ../../../ThirdParty/mbedTLS/library/rsa.c:668:9
	cbnz	r0, .LBB11_5
.Ltmp330:
@ %bb.2:
	@DEBUG_VALUE: mbedtls_rsa_check_privkey:ctx <- $r5
	.loc	4 0 9 is_stmt 0                 @ ../../../ThirdParty/mbedTLS/library/rsa.c:0:9
	movs	r0, #0
.Ltmp331:
	.loc	4 675 53 is_stmt 1              @ ../../../ThirdParty/mbedTLS/library/rsa.c:675:53
	mov	r1, r5
	adds	r1, #20
	.loc	4 674 9                         @ ../../../ThirdParty/mbedTLS/library/rsa.c:674:9
	str	r1, [sp]
	str	r0, [sp, #4]
	str	r0, [sp, #8]
	.loc	4 674 44 is_stmt 0              @ ../../../ThirdParty/mbedTLS/library/rsa.c:674:44
	mov	r0, r5
	adds	r0, #8
	.loc	4 674 53                        @ ../../../ThirdParty/mbedTLS/library/rsa.c:674:53
	mov	r1, r5
	adds	r1, #44
	.loc	4 674 62                        @ ../../../ThirdParty/mbedTLS/library/rsa.c:674:62
	mov	r7, r5
	adds	r7, #56
	.loc	4 675 44 is_stmt 1              @ ../../../ThirdParty/mbedTLS/library/rsa.c:675:44
	mov	r6, r5
	adds	r6, #32
	str	r1, [sp, #16]                   @ 4-byte Spill
	.loc	4 674 9                         @ ../../../ThirdParty/mbedTLS/library/rsa.c:674:9
	mov	r2, r7
	mov	r3, r6
	bl	mbedtls_rsa_validate_params
.Ltmp332:
	.loc	4 674 9 is_stmt 0               @ ../../../ThirdParty/mbedTLS/library/rsa.c:674:9
	cbnz	r0, .LBB11_5
.Ltmp333:
@ %bb.3:
	@DEBUG_VALUE: mbedtls_rsa_check_privkey:ctx <- $r5
	.loc	4 682 66 is_stmt 1              @ ../../../ThirdParty/mbedTLS/library/rsa.c:682:66
	mov	r0, r5
	adds	r0, #92
	.loc	4 682 56 is_stmt 0              @ ../../../ThirdParty/mbedTLS/library/rsa.c:682:56
	mov	r1, r5
	adds	r1, #80
	.loc	4 681 14 is_stmt 1              @ ../../../ThirdParty/mbedTLS/library/rsa.c:681:14
	str	r1, [sp]
	str	r0, [sp, #4]
	.loc	4 682 46                        @ ../../../ThirdParty/mbedTLS/library/rsa.c:682:46
	adds	r5, #68
.Ltmp334:
	@DEBUG_VALUE: mbedtls_rsa_check_privkey:ctx <- [DW_OP_LLVM_entry_value 1] $r0
	.loc	4 681 14                        @ ../../../ThirdParty/mbedTLS/library/rsa.c:681:14
	ldr	r0, [sp, #16]                   @ 4-byte Reload
	mov	r1, r7
	mov	r2, r6
	mov	r3, r5
	bl	mbedtls_rsa_validate_crt
.Ltmp335:
	.loc	4 681 14 is_stmt 0              @ ../../../ThirdParty/mbedTLS/library/rsa.c:681:14
	cbnz	r0, .LBB11_5
.Ltmp336:
@ %bb.4:
	@DEBUG_VALUE: mbedtls_rsa_check_privkey:ctx <- [DW_OP_LLVM_entry_value 1] $r0
	mov	r4, r0
.Ltmp337:
.LBB11_5:
	.loc	4 0 0                           @ ../../../ThirdParty/mbedTLS/library/rsa.c:0:0
	mov	r0, r4
	add	sp, #20
	pop	{r4, r5, r6, r7, pc}
.Ltmp338:
	.p2align	2
@ %bb.6:
__arm_cp.11_0:
	.long	4294950400                      @ 0xffffbe00
.Lcpi_end6:
	.size	__arm_cp.11_0, .Lcpi_end6-__arm_cp.11_0
.Lfunc_end11:
	.size	mbedtls_rsa_check_privkey, .Lfunc_end11-mbedtls_rsa_check_privkey
	.cfi_endproc
	.cantunwind
	.fnend
                                        @ -- End function
	.section	.text.mbedtls_rsa_free,"ax",%progbits
	.hidden	mbedtls_rsa_free                @ -- Begin function mbedtls_rsa_free
	.globl	mbedtls_rsa_free
	.p2align	1
	.type	mbedtls_rsa_free,%function
	.code	16                              @ @mbedtls_rsa_free
	.thumb_func
mbedtls_rsa_free:
.Lfunc_begin12:
	.loc	4 2494 0 is_stmt 1              @ ../../../ThirdParty/mbedTLS/library/rsa.c:2494:0
	.fnstart
	.cfi_startproc
@ %bb.0:
	@DEBUG_VALUE: mbedtls_rsa_free:ctx <- $r0
	@DEBUG_VALUE: mbedtls_rsa_free:ctx <- $r0
	.save	{r4, lr}
	push	{r4, lr}
	.cfi_def_cfa_offset 8
	.cfi_offset lr, -4
	.cfi_offset r4, -8
.Ltmp339:
	.loc	4 2495 9 prologue_end           @ ../../../ThirdParty/mbedTLS/library/rsa.c:2495:9
	cbz	r0, .LBB12_2
.Ltmp340:
@ %bb.1:
	@DEBUG_VALUE: mbedtls_rsa_free:ctx <- $r0
	.loc	4 0 9 is_stmt 0                 @ ../../../ThirdParty/mbedTLS/library/rsa.c:0:9
	mov	r4, r0
.Ltmp341:
	@DEBUG_VALUE: mbedtls_rsa_free:ctx <- $r4
	.loc	4 2498 29 is_stmt 1             @ ../../../ThirdParty/mbedTLS/library/rsa.c:2498:29
	adds	r0, #140
	.loc	4 2498 5 is_stmt 0              @ ../../../ThirdParty/mbedTLS/library/rsa.c:2498:5
	bl	mbedtls_mpi_free
	.loc	4 2499 29 is_stmt 1             @ ../../../ThirdParty/mbedTLS/library/rsa.c:2499:29
	mov	r0, r4
	adds	r0, #152
	.loc	4 2499 5 is_stmt 0              @ ../../../ThirdParty/mbedTLS/library/rsa.c:2499:5
	bl	mbedtls_mpi_free
	.loc	4 2500 29 is_stmt 1             @ ../../../ThirdParty/mbedTLS/library/rsa.c:2500:29
	mov	r0, r4
	adds	r0, #104
	.loc	4 2500 5 is_stmt 0              @ ../../../ThirdParty/mbedTLS/library/rsa.c:2500:5
	bl	mbedtls_mpi_free
	.loc	4 2501 29 is_stmt 1             @ ../../../ThirdParty/mbedTLS/library/rsa.c:2501:29
	mov	r0, r4
	adds	r0, #32
	.loc	4 2501 5 is_stmt 0              @ ../../../ThirdParty/mbedTLS/library/rsa.c:2501:5
	bl	mbedtls_mpi_free
	.loc	4 2502 29 is_stmt 1             @ ../../../ThirdParty/mbedTLS/library/rsa.c:2502:29
	mov	r0, r4
	adds	r0, #56
	.loc	4 2502 5 is_stmt 0              @ ../../../ThirdParty/mbedTLS/library/rsa.c:2502:5
	bl	mbedtls_mpi_free
	.loc	4 2503 29 is_stmt 1             @ ../../../ThirdParty/mbedTLS/library/rsa.c:2503:29
	mov	r0, r4
	adds	r0, #44
	.loc	4 2503 5 is_stmt 0              @ ../../../ThirdParty/mbedTLS/library/rsa.c:2503:5
	bl	mbedtls_mpi_free
	.loc	4 2504 29 is_stmt 1             @ ../../../ThirdParty/mbedTLS/library/rsa.c:2504:29
	mov	r0, r4
	adds	r0, #20
	.loc	4 2504 5 is_stmt 0              @ ../../../ThirdParty/mbedTLS/library/rsa.c:2504:5
	bl	mbedtls_mpi_free
	.loc	4 2505 29 is_stmt 1             @ ../../../ThirdParty/mbedTLS/library/rsa.c:2505:29
	mov	r0, r4
	adds	r0, #8
	.loc	4 2505 5 is_stmt 0              @ ../../../ThirdParty/mbedTLS/library/rsa.c:2505:5
	bl	mbedtls_mpi_free
	.loc	4 2508 29 is_stmt 1             @ ../../../ThirdParty/mbedTLS/library/rsa.c:2508:29
	mov	r0, r4
	adds	r0, #128
	.loc	4 2508 5 is_stmt 0              @ ../../../ThirdParty/mbedTLS/library/rsa.c:2508:5
	bl	mbedtls_mpi_free
	.loc	4 2509 29 is_stmt 1             @ ../../../ThirdParty/mbedTLS/library/rsa.c:2509:29
	mov	r0, r4
	adds	r0, #116
	.loc	4 2509 5 is_stmt 0              @ ../../../ThirdParty/mbedTLS/library/rsa.c:2509:5
	bl	mbedtls_mpi_free
	.loc	4 2510 29 is_stmt 1             @ ../../../ThirdParty/mbedTLS/library/rsa.c:2510:29
	mov	r0, r4
	adds	r0, #92
	.loc	4 2510 5 is_stmt 0              @ ../../../ThirdParty/mbedTLS/library/rsa.c:2510:5
	bl	mbedtls_mpi_free
	.loc	4 2511 29 is_stmt 1             @ ../../../ThirdParty/mbedTLS/library/rsa.c:2511:29
	mov	r0, r4
	adds	r0, #80
	.loc	4 2511 5 is_stmt 0              @ ../../../ThirdParty/mbedTLS/library/rsa.c:2511:5
	bl	mbedtls_mpi_free
	.loc	4 2512 29 is_stmt 1             @ ../../../ThirdParty/mbedTLS/library/rsa.c:2512:29
	adds	r4, #68
.Ltmp342:
	@DEBUG_VALUE: mbedtls_rsa_free:ctx <- [DW_OP_LLVM_entry_value 1] $r0
	.loc	4 2512 5 is_stmt 0              @ ../../../ThirdParty/mbedTLS/library/rsa.c:2512:5
	mov	r0, r4
	bl	mbedtls_mpi_free
.Ltmp343:
.LBB12_2:
	.loc	4 2518 1 is_stmt 1              @ ../../../ThirdParty/mbedTLS/library/rsa.c:2518:1
	pop	{r4, pc}
.Ltmp344:
.Lfunc_end12:
	.size	mbedtls_rsa_free, .Lfunc_end12-mbedtls_rsa_free
	.cfi_endproc
	.cantunwind
	.fnend
                                        @ -- End function
	.section	.text.mbedtls_rsa_check_pubkey,"ax",%progbits
	.hidden	mbedtls_rsa_check_pubkey        @ -- Begin function mbedtls_rsa_check_pubkey
	.globl	mbedtls_rsa_check_pubkey
	.p2align	2
	.type	mbedtls_rsa_check_pubkey,%function
	.code	16                              @ @mbedtls_rsa_check_pubkey
	.thumb_func
mbedtls_rsa_check_pubkey:
.Lfunc_begin13:
	.loc	4 640 0                         @ ../../../ThirdParty/mbedTLS/library/rsa.c:640:0
	.fnstart
	.cfi_startproc
@ %bb.0:
	@DEBUG_VALUE: mbedtls_rsa_check_pubkey:ctx <- $r0
	.save	{r4, r5, r6, r7, lr}
	push	{r4, r5, r6, r7, lr}
	.cfi_def_cfa_offset 20
	.cfi_offset lr, -4
	.cfi_offset r7, -8
	.cfi_offset r6, -12
	.cfi_offset r5, -16
	.cfi_offset r4, -20
	.pad	#4
	sub	sp, #4
	.cfi_def_cfa_offset 24
	mov	r5, r0
.Ltmp345:
	@DEBUG_VALUE: mbedtls_rsa_check_pubkey:ctx <- $r5
	movs	r1, #0
.Ltmp346:
	.loc	4 643 9 prologue_end            @ ../../../ThirdParty/mbedTLS/library/rsa.c:643:9
	bl	rsa_check_context
	ldr	r4, __arm_cp.13_0
.Ltmp347:
	.loc	4 643 9 is_stmt 0               @ ../../../ThirdParty/mbedTLS/library/rsa.c:643:9
	cbnz	r0, .LBB13_4
.Ltmp348:
@ %bb.1:
	@DEBUG_VALUE: mbedtls_rsa_check_pubkey:ctx <- $r5
	.loc	4 646 35 is_stmt 1              @ ../../../ThirdParty/mbedTLS/library/rsa.c:646:35
	mov	r6, r5
	adds	r6, #8
	.loc	4 646 9 is_stmt 0               @ ../../../ThirdParty/mbedTLS/library/rsa.c:646:9
	mov	r0, r6
	bl	mbedtls_mpi_bitlen
.Ltmp349:
	.loc	4 646 9                         @ ../../../ThirdParty/mbedTLS/library/rsa.c:646:9
	cmp	r0, #128
	blo	.LBB13_4
.Ltmp350:
@ %bb.2:
	@DEBUG_VALUE: mbedtls_rsa_check_pubkey:ctx <- $r5
	.loc	4 651 36 is_stmt 1              @ ../../../ThirdParty/mbedTLS/library/rsa.c:651:36
	adds	r5, #20
.Ltmp351:
	@DEBUG_VALUE: mbedtls_rsa_check_pubkey:ctx <- [DW_OP_LLVM_entry_value 1] $r0
	.loc	4 0 36 is_stmt 0                @ ../../../ThirdParty/mbedTLS/library/rsa.c:0:36
	movs	r7, #0
	.loc	4 651 9                         @ ../../../ThirdParty/mbedTLS/library/rsa.c:651:9
	mov	r0, r5
	mov	r1, r7
	bl	mbedtls_mpi_get_bit
	.loc	4 651 48                        @ ../../../ThirdParty/mbedTLS/library/rsa.c:651:48
	cbz	r0, .LBB13_4
.Ltmp352:
@ %bb.3:
	@DEBUG_VALUE: mbedtls_rsa_check_pubkey:ctx <- [DW_OP_LLVM_entry_value 1] $r0
	.loc	4 652 13 is_stmt 1              @ ../../../ThirdParty/mbedTLS/library/rsa.c:652:13
	mov	r0, r5
	bl	mbedtls_mpi_bitlen
	.loc	4 652 52 is_stmt 0              @ ../../../ThirdParty/mbedTLS/library/rsa.c:652:52
	cmp	r0, #2
	bhs	.LBB13_5
.Ltmp353:
.LBB13_4:
	.loc	4 659 1 is_stmt 1               @ ../../../ThirdParty/mbedTLS/library/rsa.c:659:1
	mov	r0, r4
	add	sp, #4
	pop	{r4, r5, r6, r7, pc}
.LBB13_5:
.Ltmp354:
	@DEBUG_VALUE: mbedtls_rsa_check_pubkey:ctx <- [DW_OP_LLVM_entry_value 1] $r0
	.loc	4 653 13                        @ ../../../ThirdParty/mbedTLS/library/rsa.c:653:13
	mov	r0, r5
	mov	r1, r6
	bl	mbedtls_mpi_cmp_mpi
.Ltmp355:
	.loc	4 651 9                         @ ../../../ThirdParty/mbedTLS/library/rsa.c:651:9
	cmp	r0, #0
	bmi	.LBB13_7
.Ltmp356:
@ %bb.6:
	@DEBUG_VALUE: mbedtls_rsa_check_pubkey:ctx <- [DW_OP_LLVM_entry_value 1] $r0
	mov	r7, r4
.Ltmp357:
.LBB13_7:
	@DEBUG_VALUE: mbedtls_rsa_check_pubkey:ctx <- [DW_OP_LLVM_entry_value 1] $r0
	mov	r0, r7
	add	sp, #4
	pop	{r4, r5, r6, r7, pc}
.Ltmp358:
	.p2align	2
@ %bb.8:
	.loc	4 0 9 is_stmt 0                 @ ../../../ThirdParty/mbedTLS/library/rsa.c:0:9
__arm_cp.13_0:
	.long	4294950400                      @ 0xffffbe00
.Lcpi_end7:
	.size	__arm_cp.13_0, .Lcpi_end7-__arm_cp.13_0
.Lfunc_end13:
	.size	mbedtls_rsa_check_pubkey, .Lfunc_end13-mbedtls_rsa_check_pubkey
	.cfi_endproc
	.cantunwind
	.fnend
                                        @ -- End function
	.section	.text.mbedtls_rsa_check_pub_priv,"ax",%progbits
	.hidden	mbedtls_rsa_check_pub_priv      @ -- Begin function mbedtls_rsa_check_pub_priv
	.globl	mbedtls_rsa_check_pub_priv
	.p2align	2
	.type	mbedtls_rsa_check_pub_priv,%function
	.code	16                              @ @mbedtls_rsa_check_pub_priv
	.thumb_func
mbedtls_rsa_check_pub_priv:
.Lfunc_begin14:
	.loc	4 696 0 is_stmt 1               @ ../../../ThirdParty/mbedTLS/library/rsa.c:696:0
	.fnstart
	.cfi_startproc
@ %bb.0:
	@DEBUG_VALUE: mbedtls_rsa_check_pub_priv:pub <- $r0
	@DEBUG_VALUE: mbedtls_rsa_check_pub_priv:prv <- $r1
	.save	{r4, r5, r6, lr}
	push	{r4, r5, r6, lr}
	.cfi_def_cfa_offset 16
	.cfi_offset lr, -4
	.cfi_offset r6, -8
	.cfi_offset r5, -12
	.cfi_offset r4, -16
	mov	r5, r1
	mov	r6, r0
.Ltmp359:
	@DEBUG_VALUE: mbedtls_rsa_check_pub_priv:prv <- $r5
	@DEBUG_VALUE: mbedtls_rsa_check_pub_priv:pub <- $r6
	.loc	4 700 9 prologue_end            @ ../../../ThirdParty/mbedTLS/library/rsa.c:700:9
	bl	mbedtls_rsa_check_pubkey
	ldr	r4, __arm_cp.14_0
	.loc	4 700 47 is_stmt 0              @ ../../../ThirdParty/mbedTLS/library/rsa.c:700:47
	cbz	r0, .LBB14_2
.Ltmp360:
.LBB14_1:
	.loc	4 0 0                           @ ../../../ThirdParty/mbedTLS/library/rsa.c:0:0
	mov	r0, r4
	pop	{r4, r5, r6, pc}
.LBB14_2:
.Ltmp361:
	@DEBUG_VALUE: mbedtls_rsa_check_pub_priv:pub <- $r6
	@DEBUG_VALUE: mbedtls_rsa_check_pub_priv:prv <- $r5
	.loc	4 701 13 is_stmt 1              @ ../../../ThirdParty/mbedTLS/library/rsa.c:701:13
	mov	r0, r5
	bl	mbedtls_rsa_check_privkey
.Ltmp362:
	.loc	4 700 9                         @ ../../../ThirdParty/mbedTLS/library/rsa.c:700:9
	cmp	r0, #0
	bne	.LBB14_1
.Ltmp363:
@ %bb.3:
	@DEBUG_VALUE: mbedtls_rsa_check_pub_priv:pub <- $r6
	@DEBUG_VALUE: mbedtls_rsa_check_pub_priv:prv <- $r5
	.loc	4 706 36                        @ ../../../ThirdParty/mbedTLS/library/rsa.c:706:36
	mov	r0, r6
	adds	r0, #8
	.loc	4 706 45 is_stmt 0              @ ../../../ThirdParty/mbedTLS/library/rsa.c:706:45
	mov	r1, r5
	adds	r1, #8
	.loc	4 706 9                         @ ../../../ThirdParty/mbedTLS/library/rsa.c:706:9
	bl	mbedtls_mpi_cmp_mpi
	.loc	4 706 54                        @ ../../../ThirdParty/mbedTLS/library/rsa.c:706:54
	cmp	r0, #0
	bne	.LBB14_1
.Ltmp364:
@ %bb.4:
	@DEBUG_VALUE: mbedtls_rsa_check_pub_priv:pub <- $r6
	@DEBUG_VALUE: mbedtls_rsa_check_pub_priv:prv <- $r5
	.loc	4 707 40 is_stmt 1              @ ../../../ThirdParty/mbedTLS/library/rsa.c:707:40
	adds	r6, #20
.Ltmp365:
	.loc	4 707 49 is_stmt 0              @ ../../../ThirdParty/mbedTLS/library/rsa.c:707:49
	adds	r5, #20
.Ltmp366:
	.loc	4 707 13                        @ ../../../ThirdParty/mbedTLS/library/rsa.c:707:13
	mov	r0, r6
	mov	r1, r5
	bl	mbedtls_mpi_cmp_mpi
.Ltmp367:
	.loc	4 706 9 is_stmt 1               @ ../../../ThirdParty/mbedTLS/library/rsa.c:706:9
	cmp	r0, #0
	bne	.LBB14_1
@ %bb.5:
	mov	r4, r0
	.loc	4 0 0 is_stmt 0                 @ ../../../ThirdParty/mbedTLS/library/rsa.c:0:0
	mov	r0, r4
	pop	{r4, r5, r6, pc}
.Ltmp368:
	.p2align	2
@ %bb.6:
__arm_cp.14_0:
	.long	4294950400                      @ 0xffffbe00
.Lcpi_end8:
	.size	__arm_cp.14_0, .Lcpi_end8-__arm_cp.14_0
.Lfunc_end14:
	.size	mbedtls_rsa_check_pub_priv, .Lfunc_end14-mbedtls_rsa_check_pub_priv
	.cfi_endproc
	.cantunwind
	.fnend
                                        @ -- End function
	.section	.text.mbedtls_rsa_public,"ax",%progbits
	.hidden	mbedtls_rsa_public              @ -- Begin function mbedtls_rsa_public
	.globl	mbedtls_rsa_public
	.p2align	2
	.type	mbedtls_rsa_public,%function
	.code	16                              @ @mbedtls_rsa_public
	.thumb_func
mbedtls_rsa_public:
.Lfunc_begin15:
	.loc	4 721 0 is_stmt 1               @ ../../../ThirdParty/mbedTLS/library/rsa.c:721:0
	.fnstart
	.cfi_startproc
@ %bb.0:
	@DEBUG_VALUE: mbedtls_rsa_public:ctx <- $r0
	@DEBUG_VALUE: mbedtls_rsa_public:input <- $r1
	@DEBUG_VALUE: mbedtls_rsa_public:output <- $r2
	.save	{r4, r5, r6, r7, lr}
	push	{r4, r5, r6, r7, lr}
	.cfi_def_cfa_offset 20
	.cfi_offset lr, -4
	.cfi_offset r7, -8
	.cfi_offset r6, -12
	.cfi_offset r5, -16
	.cfi_offset r4, -20
	.pad	#20
	sub	sp, #20
	.cfi_def_cfa_offset 40
	mov	r4, r2
	mov	r6, r1
	mov	r5, r0
.Ltmp369:
	@DEBUG_VALUE: mbedtls_rsa_public:output <- $r4
	@DEBUG_VALUE: mbedtls_rsa_public:input <- $r6
	@DEBUG_VALUE: mbedtls_rsa_public:ctx <- $r5
	movs	r1, #0
.Ltmp370:
	.loc	4 729 9 prologue_end            @ ../../../ThirdParty/mbedTLS/library/rsa.c:729:9
	bl	rsa_check_context
.Ltmp371:
	.loc	4 729 9 is_stmt 0               @ ../../../ThirdParty/mbedTLS/library/rsa.c:729:9
	cbz	r0, .LBB15_2
.Ltmp372:
@ %bb.1:
	@DEBUG_VALUE: mbedtls_rsa_public:input <- $r6
	@DEBUG_VALUE: mbedtls_rsa_public:ctx <- $r5
	@DEBUG_VALUE: mbedtls_rsa_public:output <- $r4
	.loc	4 0 9                           @ ../../../ThirdParty/mbedTLS/library/rsa.c:0:9
	ldr	r6, __arm_cp.15_0
.Ltmp373:
	b	.LBB15_9
.Ltmp374:
.LBB15_2:
	@DEBUG_VALUE: mbedtls_rsa_public:input <- $r6
	@DEBUG_VALUE: mbedtls_rsa_public:ctx <- $r5
	@DEBUG_VALUE: mbedtls_rsa_public:output <- $r4
	add	r7, sp, #8
	.loc	4 732 5 is_stmt 1               @ ../../../ThirdParty/mbedTLS/library/rsa.c:732:5
	mov	r0, r7
	bl	mbedtls_mpi_init
.Ltmp375:
	.loc	4 739 5                         @ ../../../ThirdParty/mbedTLS/library/rsa.c:739:5
	ldr	r2, [r5, #4]
	mov	r0, r7
	mov	r1, r6
	bl	mbedtls_mpi_read_binary
	mov	r6, r0
.Ltmp376:
	@DEBUG_VALUE: mbedtls_rsa_public:ret <- $r6
	.loc	4 739 5 is_stmt 0               @ ../../../ThirdParty/mbedTLS/library/rsa.c:739:5
	cbnz	r0, .LBB15_7
.Ltmp377:
@ %bb.3:
	@DEBUG_VALUE: mbedtls_rsa_public:ret <- $r6
	@DEBUG_VALUE: mbedtls_rsa_public:ctx <- $r5
	@DEBUG_VALUE: mbedtls_rsa_public:output <- $r4
	.loc	4 741 40 is_stmt 1              @ ../../../ThirdParty/mbedTLS/library/rsa.c:741:40
	mov	r6, r5
.Ltmp378:
	adds	r6, #8
	add	r0, sp, #8
	.loc	4 741 9 is_stmt 0               @ ../../../ThirdParty/mbedTLS/library/rsa.c:741:9
	mov	r1, r6
	bl	mbedtls_mpi_cmp_mpi
.Ltmp379:
	.loc	4 741 9                         @ ../../../ThirdParty/mbedTLS/library/rsa.c:741:9
	cmp	r0, #0
	bmi	.LBB15_5
.Ltmp380:
@ %bb.4:
	@DEBUG_VALUE: mbedtls_rsa_public:ctx <- $r5
	@DEBUG_VALUE: mbedtls_rsa_public:output <- $r4
	.loc	4 0 9                           @ ../../../ThirdParty/mbedTLS/library/rsa.c:0:9
	movs	r0, #3
	mvns	r6, r0
	b	.LBB15_7
.Ltmp381:
.LBB15_5:
	@DEBUG_VALUE: mbedtls_rsa_public:ctx <- $r5
	@DEBUG_VALUE: mbedtls_rsa_public:output <- $r4
	.loc	4 747 17 is_stmt 1              @ ../../../ThirdParty/mbedTLS/library/rsa.c:747:17
	ldr	r7, [r5, #4]
.Ltmp382:
	@DEBUG_VALUE: mbedtls_rsa_public:olen <- $r7
	.loc	4 748 5                         @ ../../../ThirdParty/mbedTLS/library/rsa.c:748:5
	mov	r0, r5
	adds	r0, #104
	str	r0, [sp]
	adds	r5, #20
.Ltmp383:
	.loc	4 0 5 is_stmt 0                 @ ../../../ThirdParty/mbedTLS/library/rsa.c:0:5
	add	r0, sp, #8
	.loc	4 748 5                         @ ../../../ThirdParty/mbedTLS/library/rsa.c:748:5
	mov	r1, r0
	mov	r2, r5
	mov	r3, r6
	bl	mbedtls_mpi_exp_mod
	mov	r6, r0
.Ltmp384:
	@DEBUG_VALUE: mbedtls_rsa_public:ret <- $r6
	.loc	4 748 5                         @ ../../../ThirdParty/mbedTLS/library/rsa.c:748:5
	cbnz	r0, .LBB15_7
.Ltmp385:
@ %bb.6:
	@DEBUG_VALUE: mbedtls_rsa_public:olen <- $r7
	@DEBUG_VALUE: mbedtls_rsa_public:ret <- $r6
	@DEBUG_VALUE: mbedtls_rsa_public:output <- $r4
	.loc	4 0 5                           @ ../../../ThirdParty/mbedTLS/library/rsa.c:0:5
	add	r0, sp, #8
.Ltmp386:
	.loc	4 749 5 is_stmt 1               @ ../../../ThirdParty/mbedTLS/library/rsa.c:749:5
	mov	r1, r4
	mov	r2, r7
	bl	mbedtls_mpi_write_binary
	mov	r6, r0
.Ltmp387:
	@DEBUG_VALUE: mbedtls_rsa_public:ret <- $r6
.LBB15_7:
	@DEBUG_VALUE: mbedtls_rsa_public:output <- $r4
	@DEBUG_VALUE: mbedtls_rsa_public:ret <- $r6
	@DEBUG_LABEL: mbedtls_rsa_public:cleanup
	.loc	4 0 5 is_stmt 0                 @ ../../../ThirdParty/mbedTLS/library/rsa.c:0:5
	add	r0, sp, #8
	.loc	4 757 5 is_stmt 1               @ ../../../ThirdParty/mbedTLS/library/rsa.c:757:5
	bl	mbedtls_mpi_free
	.loc	4 759 9                         @ ../../../ThirdParty/mbedTLS/library/rsa.c:759:9
	cbz	r6, .LBB15_9
.Ltmp388:
@ %bb.8:
	@DEBUG_VALUE: mbedtls_rsa_public:ret <- $r6
	@DEBUG_VALUE: mbedtls_rsa_public:output <- $r4
	.loc	4 0 9 is_stmt 0                 @ ../../../ThirdParty/mbedTLS/library/rsa.c:0:9
	movw	r0, #17024
	subs	r6, r6, r0
.Ltmp389:
.LBB15_9:
	@DEBUG_VALUE: mbedtls_rsa_public:output <- $r4
	.loc	4 763 1 is_stmt 1               @ ../../../ThirdParty/mbedTLS/library/rsa.c:763:1
	mov	r0, r6
	add	sp, #20
	pop	{r4, r5, r6, r7, pc}
.Ltmp390:
	.p2align	2
@ %bb.10:
	.loc	4 0 1 is_stmt 0                 @ ../../../ThirdParty/mbedTLS/library/rsa.c:0:1
__arm_cp.15_0:
	.long	4294950784                      @ 0xffffbf80
.Lcpi_end9:
	.size	__arm_cp.15_0, .Lcpi_end9-__arm_cp.15_0
.Lfunc_end15:
	.size	mbedtls_rsa_public, .Lfunc_end15-mbedtls_rsa_public
	.cfi_endproc
	.cantunwind
	.fnend
                                        @ -- End function
	.section	.text.mbedtls_rsa_private,"ax",%progbits
	.hidden	mbedtls_rsa_private             @ -- Begin function mbedtls_rsa_private
	.globl	mbedtls_rsa_private
	.p2align	2
	.type	mbedtls_rsa_private,%function
	.code	16                              @ @mbedtls_rsa_private
	.thumb_func
mbedtls_rsa_private:
.Lfunc_begin16:
	.loc	4 834 0 is_stmt 1               @ ../../../ThirdParty/mbedTLS/library/rsa.c:834:0
	.fnstart
	.cfi_startproc
@ %bb.0:
	@DEBUG_VALUE: mbedtls_rsa_private:ctx <- $r0
	@DEBUG_VALUE: mbedtls_rsa_private:f_rng <- $r1
	@DEBUG_VALUE: mbedtls_rsa_private:p_rng <- $r2
	@DEBUG_VALUE: mbedtls_rsa_private:input <- $r3
	.save	{r4, r5, r6, r7, lr}
	push	{r4, r5, r6, r7, lr}
	.cfi_def_cfa_offset 20
	.cfi_offset lr, -4
	.cfi_offset r7, -8
	.cfi_offset r6, -12
	.cfi_offset r5, -16
	.cfi_offset r4, -20
	.pad	#140
	sub	sp, #140
	.cfi_def_cfa_offset 160
	mov	r6, r3
	mov	r7, r2
	mov	r4, r1
	mov	r5, r0
.Ltmp391:
	@DEBUG_VALUE: mbedtls_rsa_private:output <- [DW_OP_plus_uconst 160] [$sp+0]
	@DEBUG_VALUE: mbedtls_rsa_private:input <- $r6
	@DEBUG_VALUE: mbedtls_rsa_private:p_rng <- $r7
	@DEBUG_VALUE: mbedtls_rsa_private:f_rng <- $r4
	@DEBUG_VALUE: mbedtls_rsa_private:ctx <- $r5
	movs	r1, #1
.Ltmp392:
	.loc	4 874 9 prologue_end            @ ../../../ThirdParty/mbedTLS/library/rsa.c:874:9
	bl	rsa_check_context
.Ltmp393:
	@DEBUG_VALUE: mbedtls_rsa_private:DP <- undef
	@DEBUG_VALUE: mbedtls_rsa_private:DQ <- undef
	.loc	4 874 9 is_stmt 0               @ ../../../ThirdParty/mbedTLS/library/rsa.c:874:9
	cbz	r0, .LBB16_2
.Ltmp394:
@ %bb.1:
	@DEBUG_VALUE: mbedtls_rsa_private:p_rng <- $r7
	@DEBUG_VALUE: mbedtls_rsa_private:input <- $r6
	@DEBUG_VALUE: mbedtls_rsa_private:ctx <- $r5
	@DEBUG_VALUE: mbedtls_rsa_private:f_rng <- $r4
	@DEBUG_VALUE: mbedtls_rsa_private:output <- [DW_OP_plus_uconst 160] [$sp+0]
	.loc	4 0 9                           @ ../../../ThirdParty/mbedTLS/library/rsa.c:0:9
	ldr	r6, __arm_cp.16_0
.Ltmp395:
	b	.LBB16_12
.Ltmp396:
.LBB16_2:
	@DEBUG_VALUE: mbedtls_rsa_private:p_rng <- $r7
	@DEBUG_VALUE: mbedtls_rsa_private:input <- $r6
	@DEBUG_VALUE: mbedtls_rsa_private:ctx <- $r5
	@DEBUG_VALUE: mbedtls_rsa_private:f_rng <- $r4
	@DEBUG_VALUE: mbedtls_rsa_private:output <- [DW_OP_plus_uconst 160] [$sp+0]
	@DEBUG_VALUE: mbedtls_rsa_private:DQ <- undef
	@DEBUG_VALUE: mbedtls_rsa_private:DP <- undef
	add	r0, sp, #128
	.loc	4 886 5 is_stmt 1               @ ../../../ThirdParty/mbedTLS/library/rsa.c:886:5
	bl	mbedtls_mpi_init
	add	r0, sp, #116
	.loc	4 888 5                         @ ../../../ThirdParty/mbedTLS/library/rsa.c:888:5
	bl	mbedtls_mpi_init
	add	r0, sp, #104
	.loc	4 889 5                         @ ../../../ThirdParty/mbedTLS/library/rsa.c:889:5
	bl	mbedtls_mpi_init
	add	r0, sp, #92
	.loc	4 890 5                         @ ../../../ThirdParty/mbedTLS/library/rsa.c:890:5
	bl	mbedtls_mpi_init
	.loc	4 892 9                         @ ../../../ThirdParty/mbedTLS/library/rsa.c:892:9
	cbz	r4, .LBB16_4
.Ltmp397:
@ %bb.3:
	@DEBUG_VALUE: mbedtls_rsa_private:p_rng <- $r7
	@DEBUG_VALUE: mbedtls_rsa_private:input <- $r6
	@DEBUG_VALUE: mbedtls_rsa_private:ctx <- $r5
	@DEBUG_VALUE: mbedtls_rsa_private:f_rng <- $r4
	@DEBUG_VALUE: mbedtls_rsa_private:output <- [DW_OP_plus_uconst 160] [$sp+0]
	.loc	4 0 9 is_stmt 0                 @ ../../../ThirdParty/mbedTLS/library/rsa.c:0:9
	add	r0, sp, #56
.Ltmp398:
	.loc	4 897 9 is_stmt 1               @ ../../../ThirdParty/mbedTLS/library/rsa.c:897:9
	bl	mbedtls_mpi_init
	add	r0, sp, #44
	.loc	4 898 9                         @ ../../../ThirdParty/mbedTLS/library/rsa.c:898:9
	bl	mbedtls_mpi_init
.Ltmp399:
.LBB16_4:
	@DEBUG_VALUE: mbedtls_rsa_private:p_rng <- $r7
	@DEBUG_VALUE: mbedtls_rsa_private:input <- $r6
	@DEBUG_VALUE: mbedtls_rsa_private:ctx <- $r5
	@DEBUG_VALUE: mbedtls_rsa_private:f_rng <- $r4
	@DEBUG_VALUE: mbedtls_rsa_private:output <- [DW_OP_plus_uconst 160] [$sp+0]
	@DEBUG_VALUE: mbedtls_rsa_private:DQ <- undef
	@DEBUG_VALUE: mbedtls_rsa_private:DP <- undef
	.loc	4 0 9 is_stmt 0                 @ ../../../ThirdParty/mbedTLS/library/rsa.c:0:9
	add	r0, sp, #80
	.loc	4 903 5 is_stmt 1               @ ../../../ThirdParty/mbedTLS/library/rsa.c:903:5
	bl	mbedtls_mpi_init
	add	r0, sp, #68
	.loc	4 904 5                         @ ../../../ThirdParty/mbedTLS/library/rsa.c:904:5
	bl	mbedtls_mpi_init
	add	r0, sp, #32
	.loc	4 907 5                         @ ../../../ThirdParty/mbedTLS/library/rsa.c:907:5
	bl	mbedtls_mpi_init
	add	r0, sp, #20
	.loc	4 908 5                         @ ../../../ThirdParty/mbedTLS/library/rsa.c:908:5
	bl	mbedtls_mpi_init
.Ltmp400:
	.loc	4 912 5                         @ ../../../ThirdParty/mbedTLS/library/rsa.c:912:5
	ldr	r2, [r5, #4]
	add	r0, sp, #128
	mov	r1, r6
	bl	mbedtls_mpi_read_binary
	mov	r6, r0
.Ltmp401:
	@DEBUG_VALUE: mbedtls_rsa_private:ret <- $r6
	.loc	4 912 5 is_stmt 0               @ ../../../ThirdParty/mbedTLS/library/rsa.c:912:5
	cbnz	r0, .LBB16_8
.Ltmp402:
@ %bb.5:
	@DEBUG_VALUE: mbedtls_rsa_private:p_rng <- $r7
	@DEBUG_VALUE: mbedtls_rsa_private:ret <- $r6
	@DEBUG_VALUE: mbedtls_rsa_private:ctx <- $r5
	@DEBUG_VALUE: mbedtls_rsa_private:f_rng <- $r4
	@DEBUG_VALUE: mbedtls_rsa_private:output <- [DW_OP_plus_uconst 160] [$sp+0]
	@DEBUG_VALUE: mbedtls_rsa_private:DQ <- undef
	@DEBUG_VALUE: mbedtls_rsa_private:DP <- undef
	.loc	4 913 40 is_stmt 1              @ ../../../ThirdParty/mbedTLS/library/rsa.c:913:40
	mov	r6, r5
.Ltmp403:
	adds	r6, #8
	add	r0, sp, #128
	.loc	4 913 9 is_stmt 0               @ ../../../ThirdParty/mbedTLS/library/rsa.c:913:9
	mov	r1, r6
	bl	mbedtls_mpi_cmp_mpi
.Ltmp404:
	.loc	4 913 9                         @ ../../../ThirdParty/mbedTLS/library/rsa.c:913:9
	cmp	r0, #0
	bmi	.LBB16_7
.Ltmp405:
@ %bb.6:
	@DEBUG_VALUE: mbedtls_rsa_private:p_rng <- $r7
	@DEBUG_VALUE: mbedtls_rsa_private:ctx <- $r5
	@DEBUG_VALUE: mbedtls_rsa_private:f_rng <- $r4
	@DEBUG_VALUE: mbedtls_rsa_private:output <- [DW_OP_plus_uconst 160] [$sp+0]
	.loc	4 0 9                           @ ../../../ThirdParty/mbedTLS/library/rsa.c:0:9
	movs	r0, #3
	mvns	r6, r0
	b	.LBB16_8
.Ltmp406:
.LBB16_7:
	@DEBUG_VALUE: mbedtls_rsa_private:p_rng <- $r7
	@DEBUG_VALUE: mbedtls_rsa_private:ctx <- $r5
	@DEBUG_VALUE: mbedtls_rsa_private:f_rng <- $r4
	@DEBUG_VALUE: mbedtls_rsa_private:output <- [DW_OP_plus_uconst 160] [$sp+0]
	@DEBUG_VALUE: mbedtls_rsa_private:DQ <- undef
	@DEBUG_VALUE: mbedtls_rsa_private:DP <- undef
	str	r6, [sp, #16]                   @ 4-byte Spill
	add	r0, sp, #32
	add	r1, sp, #128
.Ltmp407:
	.loc	4 919 5 is_stmt 1               @ ../../../ThirdParty/mbedTLS/library/rsa.c:919:5
	bl	mbedtls_mpi_copy
	mov	r6, r0
.Ltmp408:
	@DEBUG_VALUE: mbedtls_rsa_private:ret <- $r6
	.loc	4 919 5 is_stmt 0               @ ../../../ThirdParty/mbedTLS/library/rsa.c:919:5
	cbz	r0, .LBB16_13
.Ltmp409:
.LBB16_8:
	@DEBUG_VALUE: mbedtls_rsa_private:ctx <- $r5
	@DEBUG_VALUE: mbedtls_rsa_private:f_rng <- $r4
	@DEBUG_VALUE: mbedtls_rsa_private:output <- [DW_OP_plus_uconst 160] [$sp+0]
	@DEBUG_VALUE: mbedtls_rsa_private:ret <- $r6
	@DEBUG_LABEL: mbedtls_rsa_private:cleanup
	.loc	4 0 5                           @ ../../../ThirdParty/mbedTLS/library/rsa.c:0:5
	add	r0, sp, #116
	.loc	4 1028 5 is_stmt 1              @ ../../../ThirdParty/mbedTLS/library/rsa.c:1028:5
	bl	mbedtls_mpi_free
	add	r0, sp, #104
	.loc	4 1029 5                        @ ../../../ThirdParty/mbedTLS/library/rsa.c:1029:5
	bl	mbedtls_mpi_free
	add	r0, sp, #92
	.loc	4 1030 5                        @ ../../../ThirdParty/mbedTLS/library/rsa.c:1030:5
	bl	mbedtls_mpi_free
	.loc	4 1032 9                        @ ../../../ThirdParty/mbedTLS/library/rsa.c:1032:9
	cbz	r4, .LBB16_10
.Ltmp410:
@ %bb.9:
	@DEBUG_VALUE: mbedtls_rsa_private:ret <- $r6
	@DEBUG_VALUE: mbedtls_rsa_private:ctx <- $r5
	@DEBUG_VALUE: mbedtls_rsa_private:f_rng <- $r4
	@DEBUG_VALUE: mbedtls_rsa_private:output <- [DW_OP_plus_uconst 160] [$sp+0]
	.loc	4 0 9 is_stmt 0                 @ ../../../ThirdParty/mbedTLS/library/rsa.c:0:9
	add	r0, sp, #56
.Ltmp411:
	.loc	4 1037 9 is_stmt 1              @ ../../../ThirdParty/mbedTLS/library/rsa.c:1037:9
	bl	mbedtls_mpi_free
	add	r0, sp, #44
	.loc	4 1038 9                        @ ../../../ThirdParty/mbedTLS/library/rsa.c:1038:9
	bl	mbedtls_mpi_free
.Ltmp412:
.LBB16_10:
	@DEBUG_VALUE: mbedtls_rsa_private:ret <- $r6
	@DEBUG_VALUE: mbedtls_rsa_private:ctx <- $r5
	@DEBUG_VALUE: mbedtls_rsa_private:f_rng <- $r4
	@DEBUG_VALUE: mbedtls_rsa_private:output <- [DW_OP_plus_uconst 160] [$sp+0]
	.loc	4 0 9 is_stmt 0                 @ ../../../ThirdParty/mbedTLS/library/rsa.c:0:9
	add	r0, sp, #128
	.loc	4 1042 5 is_stmt 1              @ ../../../ThirdParty/mbedTLS/library/rsa.c:1042:5
	bl	mbedtls_mpi_free
	add	r0, sp, #80
	.loc	4 1045 5                        @ ../../../ThirdParty/mbedTLS/library/rsa.c:1045:5
	bl	mbedtls_mpi_free
	add	r0, sp, #68
	.loc	4 1046 5                        @ ../../../ThirdParty/mbedTLS/library/rsa.c:1046:5
	bl	mbedtls_mpi_free
	add	r0, sp, #20
	.loc	4 1049 5                        @ ../../../ThirdParty/mbedTLS/library/rsa.c:1049:5
	bl	mbedtls_mpi_free
	add	r0, sp, #32
	.loc	4 1050 5                        @ ../../../ThirdParty/mbedTLS/library/rsa.c:1050:5
	bl	mbedtls_mpi_free
	.loc	4 1052 9                        @ ../../../ThirdParty/mbedTLS/library/rsa.c:1052:9
	cbz	r6, .LBB16_12
.Ltmp413:
@ %bb.11:
	@DEBUG_VALUE: mbedtls_rsa_private:ret <- $r6
	@DEBUG_VALUE: mbedtls_rsa_private:ctx <- $r5
	@DEBUG_VALUE: mbedtls_rsa_private:f_rng <- $r4
	@DEBUG_VALUE: mbedtls_rsa_private:output <- [DW_OP_plus_uconst 160] [$sp+0]
	.loc	4 0 9 is_stmt 0                 @ ../../../ThirdParty/mbedTLS/library/rsa.c:0:9
	ldr	r0, __arm_cp.16_1
	adds	r6, r0, r6
.Ltmp414:
	adds	r6, #128
.Ltmp415:
.LBB16_12:
	@DEBUG_VALUE: mbedtls_rsa_private:ctx <- $r5
	@DEBUG_VALUE: mbedtls_rsa_private:f_rng <- $r4
	@DEBUG_VALUE: mbedtls_rsa_private:output <- [DW_OP_plus_uconst 160] [$sp+0]
	.loc	4 1056 1 is_stmt 1              @ ../../../ThirdParty/mbedTLS/library/rsa.c:1056:1
	mov	r0, r6
	add	sp, #140
.Ltmp416:
	pop	{r4, r5, r6, r7, pc}
.Ltmp417:
.LBB16_13:
	@DEBUG_VALUE: mbedtls_rsa_private:p_rng <- $r7
	@DEBUG_VALUE: mbedtls_rsa_private:ret <- $r6
	@DEBUG_VALUE: mbedtls_rsa_private:ctx <- $r5
	@DEBUG_VALUE: mbedtls_rsa_private:f_rng <- $r4
	@DEBUG_VALUE: mbedtls_rsa_private:output <- [DW_OP_plus_uconst 160] [$sp+0]
	.loc	4 0 1 is_stmt 0                 @ ../../../ThirdParty/mbedTLS/library/rsa.c:0:1
	mov	r0, r5
	adds	r0, #80
.Ltmp418:
	@DEBUG_VALUE: mbedtls_rsa_private:DQ <- $r0
	mov	r1, r5
	adds	r1, #68
.Ltmp419:
	@DEBUG_VALUE: mbedtls_rsa_private:DP <- $r1
	str	r1, [sp, #12]                   @ 4-byte Spill
.Ltmp420:
	@DEBUG_VALUE: mbedtls_rsa_private:DP <- [DW_OP_plus_uconst 12] [$sp+0]
	@DEBUG_VALUE: mbedtls_rsa_private:DP <- [DW_OP_plus_uconst 12] [$sp+0]
	.loc	4 921 9 is_stmt 1               @ ../../../ThirdParty/mbedTLS/library/rsa.c:921:9
	cmp	r4, #0
	beq	.LBB16_25
.Ltmp421:
@ %bb.14:
	@DEBUG_VALUE: mbedtls_rsa_private:p_rng <- $r7
	@DEBUG_VALUE: mbedtls_rsa_private:ret <- $r6
	@DEBUG_VALUE: mbedtls_rsa_private:ctx <- $r5
	@DEBUG_VALUE: mbedtls_rsa_private:f_rng <- $r4
	@DEBUG_VALUE: mbedtls_rsa_private:DQ <- $r0
	@DEBUG_VALUE: mbedtls_rsa_private:DP <- [DW_OP_plus_uconst 12] [$sp+0]
	@DEBUG_VALUE: mbedtls_rsa_private:output <- [DW_OP_plus_uconst 160] [$sp+0]
	.loc	4 0 9 is_stmt 0                 @ ../../../ThirdParty/mbedTLS/library/rsa.c:0:9
	str	r0, [sp, #8]                    @ 4-byte Spill
.Ltmp422:
	@DEBUG_VALUE: mbedtls_rsa_private:DQ <- [DW_OP_plus_uconst 8] [$sp+0]
	.loc	4 927 9 is_stmt 1               @ ../../../ThirdParty/mbedTLS/library/rsa.c:927:9
	mov	r0, r5
	mov	r1, r4
	mov	r2, r7
	bl	rsa_prepare_blinding
	mov	r6, r0
.Ltmp423:
	@DEBUG_VALUE: mbedtls_rsa_private:ret <- $r6
	.loc	4 927 9 is_stmt 0               @ ../../../ThirdParty/mbedTLS/library/rsa.c:927:9
	cmp	r0, #0
	bne	.LBB16_8
.Ltmp424:
@ %bb.15:
	@DEBUG_VALUE: mbedtls_rsa_private:DQ <- [DW_OP_plus_uconst 8] [$sp+0]
	@DEBUG_VALUE: mbedtls_rsa_private:p_rng <- $r7
	@DEBUG_VALUE: mbedtls_rsa_private:ret <- $r6
	@DEBUG_VALUE: mbedtls_rsa_private:ctx <- $r5
	@DEBUG_VALUE: mbedtls_rsa_private:f_rng <- $r4
	@DEBUG_VALUE: mbedtls_rsa_private:DP <- [DW_OP_plus_uconst 12] [$sp+0]
	@DEBUG_VALUE: mbedtls_rsa_private:output <- [DW_OP_plus_uconst 160] [$sp+0]
	.loc	4 928 9 is_stmt 1               @ ../../../ThirdParty/mbedTLS/library/rsa.c:928:9
	mov	r2, r5
	adds	r2, #140
	add	r0, sp, #128
	mov	r1, r0
	bl	mbedtls_mpi_mul_mpi
	mov	r6, r0
.Ltmp425:
	@DEBUG_VALUE: mbedtls_rsa_private:ret <- $r6
	.loc	4 928 9 is_stmt 0               @ ../../../ThirdParty/mbedTLS/library/rsa.c:928:9
	cmp	r0, #0
	bne	.LBB16_8
.Ltmp426:
@ %bb.16:
	@DEBUG_VALUE: mbedtls_rsa_private:DQ <- [DW_OP_plus_uconst 8] [$sp+0]
	@DEBUG_VALUE: mbedtls_rsa_private:p_rng <- $r7
	@DEBUG_VALUE: mbedtls_rsa_private:ret <- $r6
	@DEBUG_VALUE: mbedtls_rsa_private:ctx <- $r5
	@DEBUG_VALUE: mbedtls_rsa_private:f_rng <- $r4
	@DEBUG_VALUE: mbedtls_rsa_private:DP <- [DW_OP_plus_uconst 12] [$sp+0]
	@DEBUG_VALUE: mbedtls_rsa_private:output <- [DW_OP_plus_uconst 160] [$sp+0]
	.loc	4 0 9                           @ ../../../ThirdParty/mbedTLS/library/rsa.c:0:9
	add	r0, sp, #128
.Ltmp427:
	.loc	4 929 9 is_stmt 1               @ ../../../ThirdParty/mbedTLS/library/rsa.c:929:9
	mov	r1, r0
	ldr	r2, [sp, #16]                   @ 4-byte Reload
	bl	mbedtls_mpi_mod_mpi
	mov	r6, r0
.Ltmp428:
	@DEBUG_VALUE: mbedtls_rsa_private:ret <- $r6
	.loc	4 929 9 is_stmt 0               @ ../../../ThirdParty/mbedTLS/library/rsa.c:929:9
	cmp	r0, #0
	bne	.LBB16_8
.Ltmp429:
@ %bb.17:
	@DEBUG_VALUE: mbedtls_rsa_private:DQ <- [DW_OP_plus_uconst 8] [$sp+0]
	@DEBUG_VALUE: mbedtls_rsa_private:p_rng <- $r7
	@DEBUG_VALUE: mbedtls_rsa_private:ret <- $r6
	@DEBUG_VALUE: mbedtls_rsa_private:ctx <- $r5
	@DEBUG_VALUE: mbedtls_rsa_private:f_rng <- $r4
	@DEBUG_VALUE: mbedtls_rsa_private:DP <- [DW_OP_plus_uconst 12] [$sp+0]
	@DEBUG_VALUE: mbedtls_rsa_private:output <- [DW_OP_plus_uconst 160] [$sp+0]
	.loc	4 934 9 is_stmt 1               @ ../../../ThirdParty/mbedTLS/library/rsa.c:934:9
	mov	r1, r5
	adds	r1, #44
	add	r0, sp, #116
	movs	r2, #1
	bl	mbedtls_mpi_sub_int
	mov	r6, r0
.Ltmp430:
	@DEBUG_VALUE: mbedtls_rsa_private:ret <- $r6
	.loc	4 934 9 is_stmt 0               @ ../../../ThirdParty/mbedTLS/library/rsa.c:934:9
	cmp	r0, #0
	bne	.LBB16_8
.Ltmp431:
@ %bb.18:
	@DEBUG_VALUE: mbedtls_rsa_private:DQ <- [DW_OP_plus_uconst 8] [$sp+0]
	@DEBUG_VALUE: mbedtls_rsa_private:p_rng <- $r7
	@DEBUG_VALUE: mbedtls_rsa_private:ret <- $r6
	@DEBUG_VALUE: mbedtls_rsa_private:ctx <- $r5
	@DEBUG_VALUE: mbedtls_rsa_private:f_rng <- $r4
	@DEBUG_VALUE: mbedtls_rsa_private:DP <- [DW_OP_plus_uconst 12] [$sp+0]
	@DEBUG_VALUE: mbedtls_rsa_private:output <- [DW_OP_plus_uconst 160] [$sp+0]
	.loc	4 935 9 is_stmt 1               @ ../../../ThirdParty/mbedTLS/library/rsa.c:935:9
	mov	r1, r5
	adds	r1, #56
	add	r0, sp, #104
	movs	r2, #1
	bl	mbedtls_mpi_sub_int
	mov	r6, r0
.Ltmp432:
	@DEBUG_VALUE: mbedtls_rsa_private:ret <- $r6
	.loc	4 935 9 is_stmt 0               @ ../../../ThirdParty/mbedTLS/library/rsa.c:935:9
	cmp	r0, #0
	bne	.LBB16_8
.Ltmp433:
@ %bb.19:
	@DEBUG_VALUE: mbedtls_rsa_private:DQ <- [DW_OP_plus_uconst 8] [$sp+0]
	@DEBUG_VALUE: mbedtls_rsa_private:p_rng <- $r7
	@DEBUG_VALUE: mbedtls_rsa_private:ret <- $r6
	@DEBUG_VALUE: mbedtls_rsa_private:ctx <- $r5
	@DEBUG_VALUE: mbedtls_rsa_private:f_rng <- $r4
	@DEBUG_VALUE: mbedtls_rsa_private:DP <- [DW_OP_plus_uconst 12] [$sp+0]
	@DEBUG_VALUE: mbedtls_rsa_private:output <- [DW_OP_plus_uconst 160] [$sp+0]
	.loc	4 0 9                           @ ../../../ThirdParty/mbedTLS/library/rsa.c:0:9
	add	r0, sp, #92
	movs	r1, #28
.Ltmp434:
	.loc	4 952 9 is_stmt 1               @ ../../../ThirdParty/mbedTLS/library/rsa.c:952:9
	mov	r2, r4
	mov	r3, r7
	bl	mbedtls_mpi_fill_random
	mov	r6, r0
.Ltmp435:
	@DEBUG_VALUE: mbedtls_rsa_private:ret <- $r6
	.loc	4 952 9 is_stmt 0               @ ../../../ThirdParty/mbedTLS/library/rsa.c:952:9
	cmp	r0, #0
	bne	.LBB16_8
.Ltmp436:
@ %bb.20:
	@DEBUG_VALUE: mbedtls_rsa_private:DQ <- [DW_OP_plus_uconst 8] [$sp+0]
	@DEBUG_VALUE: mbedtls_rsa_private:p_rng <- $r7
	@DEBUG_VALUE: mbedtls_rsa_private:ret <- $r6
	@DEBUG_VALUE: mbedtls_rsa_private:ctx <- $r5
	@DEBUG_VALUE: mbedtls_rsa_private:f_rng <- $r4
	@DEBUG_VALUE: mbedtls_rsa_private:DP <- [DW_OP_plus_uconst 12] [$sp+0]
	@DEBUG_VALUE: mbedtls_rsa_private:output <- [DW_OP_plus_uconst 160] [$sp+0]
	.loc	4 0 9                           @ ../../../ThirdParty/mbedTLS/library/rsa.c:0:9
	add	r0, sp, #56
	add	r1, sp, #116
	add	r2, sp, #92
.Ltmp437:
	.loc	4 954 9 is_stmt 1               @ ../../../ThirdParty/mbedTLS/library/rsa.c:954:9
	bl	mbedtls_mpi_mul_mpi
	mov	r6, r0
.Ltmp438:
	@DEBUG_VALUE: mbedtls_rsa_private:ret <- $r6
	.loc	4 954 9 is_stmt 0               @ ../../../ThirdParty/mbedTLS/library/rsa.c:954:9
	cmp	r0, #0
	bne	.LBB16_8
.Ltmp439:
@ %bb.21:
	@DEBUG_VALUE: mbedtls_rsa_private:DQ <- [DW_OP_plus_uconst 8] [$sp+0]
	@DEBUG_VALUE: mbedtls_rsa_private:p_rng <- $r7
	@DEBUG_VALUE: mbedtls_rsa_private:ret <- $r6
	@DEBUG_VALUE: mbedtls_rsa_private:ctx <- $r5
	@DEBUG_VALUE: mbedtls_rsa_private:f_rng <- $r4
	@DEBUG_VALUE: mbedtls_rsa_private:DP <- [DW_OP_plus_uconst 12] [$sp+0]
	@DEBUG_VALUE: mbedtls_rsa_private:output <- [DW_OP_plus_uconst 160] [$sp+0]
	.loc	4 0 9                           @ ../../../ThirdParty/mbedTLS/library/rsa.c:0:9
	add	r0, sp, #56
.Ltmp440:
	.loc	4 955 9 is_stmt 1               @ ../../../ThirdParty/mbedTLS/library/rsa.c:955:9
	mov	r1, r0
	ldr	r2, [sp, #12]                   @ 4-byte Reload
	bl	mbedtls_mpi_add_mpi
	mov	r6, r0
.Ltmp441:
	@DEBUG_VALUE: mbedtls_rsa_private:ret <- $r6
	.loc	4 955 9 is_stmt 0               @ ../../../ThirdParty/mbedTLS/library/rsa.c:955:9
	cmp	r0, #0
	bne	.LBB16_8
.Ltmp442:
@ %bb.22:
	@DEBUG_VALUE: mbedtls_rsa_private:DQ <- [DW_OP_plus_uconst 8] [$sp+0]
	@DEBUG_VALUE: mbedtls_rsa_private:p_rng <- $r7
	@DEBUG_VALUE: mbedtls_rsa_private:ret <- $r6
	@DEBUG_VALUE: mbedtls_rsa_private:ctx <- $r5
	@DEBUG_VALUE: mbedtls_rsa_private:f_rng <- $r4
	@DEBUG_VALUE: mbedtls_rsa_private:DP <- [DW_OP_plus_uconst 12] [$sp+0]
	@DEBUG_VALUE: mbedtls_rsa_private:output <- [DW_OP_plus_uconst 160] [$sp+0]
	@DEBUG_VALUE: mbedtls_rsa_private:DP <- [DW_OP_plus_uconst 56, DW_OP_stack_value] $sp
	.loc	4 0 9                           @ ../../../ThirdParty/mbedTLS/library/rsa.c:0:9
	add	r0, sp, #92
	movs	r1, #28
.Ltmp443:
	.loc	4 963 9 is_stmt 1               @ ../../../ThirdParty/mbedTLS/library/rsa.c:963:9
	mov	r2, r4
	mov	r3, r7
	bl	mbedtls_mpi_fill_random
	mov	r6, r0
.Ltmp444:
	@DEBUG_VALUE: mbedtls_rsa_private:ret <- $r6
	.loc	4 963 9 is_stmt 0               @ ../../../ThirdParty/mbedTLS/library/rsa.c:963:9
	cmp	r0, #0
	bne	.LBB16_8
.Ltmp445:
@ %bb.23:
	@DEBUG_VALUE: mbedtls_rsa_private:DQ <- [DW_OP_plus_uconst 8] [$sp+0]
	@DEBUG_VALUE: mbedtls_rsa_private:p_rng <- $r7
	@DEBUG_VALUE: mbedtls_rsa_private:ret <- $r6
	@DEBUG_VALUE: mbedtls_rsa_private:ctx <- $r5
	@DEBUG_VALUE: mbedtls_rsa_private:f_rng <- $r4
	@DEBUG_VALUE: mbedtls_rsa_private:DP <- [DW_OP_plus_uconst 56, DW_OP_stack_value] $sp
	@DEBUG_VALUE: mbedtls_rsa_private:output <- [DW_OP_plus_uconst 160] [$sp+0]
	.loc	4 0 9                           @ ../../../ThirdParty/mbedTLS/library/rsa.c:0:9
	add	r0, sp, #44
	add	r1, sp, #104
	add	r2, sp, #92
.Ltmp446:
	.loc	4 965 9 is_stmt 1               @ ../../../ThirdParty/mbedTLS/library/rsa.c:965:9
	bl	mbedtls_mpi_mul_mpi
	mov	r6, r0
.Ltmp447:
	@DEBUG_VALUE: mbedtls_rsa_private:ret <- $r6
	.loc	4 965 9 is_stmt 0               @ ../../../ThirdParty/mbedTLS/library/rsa.c:965:9
	cmp	r0, #0
	beq	.LBB16_24
	b	.LBB16_8
.Ltmp448:
.LBB16_24:
	@DEBUG_VALUE: mbedtls_rsa_private:DQ <- [DW_OP_plus_uconst 8] [$sp+0]
	@DEBUG_VALUE: mbedtls_rsa_private:p_rng <- $r7
	@DEBUG_VALUE: mbedtls_rsa_private:ret <- $r6
	@DEBUG_VALUE: mbedtls_rsa_private:ctx <- $r5
	@DEBUG_VALUE: mbedtls_rsa_private:f_rng <- $r4
	@DEBUG_VALUE: mbedtls_rsa_private:DP <- [DW_OP_plus_uconst 56, DW_OP_stack_value] $sp
	@DEBUG_VALUE: mbedtls_rsa_private:output <- [DW_OP_plus_uconst 160] [$sp+0]
	.loc	4 0 9                           @ ../../../ThirdParty/mbedTLS/library/rsa.c:0:9
	add	r0, sp, #44
	str	r0, [sp, #4]                    @ 4-byte Spill
.Ltmp449:
	.loc	4 966 9 is_stmt 1               @ ../../../ThirdParty/mbedTLS/library/rsa.c:966:9
	mov	r1, r0
	ldr	r2, [sp, #8]                    @ 4-byte Reload
.Ltmp450:
	@DEBUG_VALUE: mbedtls_rsa_private:DQ <- $r2
	bl	mbedtls_mpi_add_mpi
.Ltmp451:
	mov	r6, r0
.Ltmp452:
	@DEBUG_VALUE: mbedtls_rsa_private:ret <- $r6
	.loc	4 0 9 is_stmt 0                 @ ../../../ThirdParty/mbedTLS/library/rsa.c:0:9
	add	r0, sp, #56
.Ltmp453:
	.loc	4 966 9                         @ ../../../ThirdParty/mbedTLS/library/rsa.c:966:9
	str	r0, [sp, #12]                   @ 4-byte Spill
	cbz	r6, .LBB16_26
	b	.LBB16_8
.Ltmp454:
.LBB16_25:
	@DEBUG_VALUE: mbedtls_rsa_private:p_rng <- $r7
	@DEBUG_VALUE: mbedtls_rsa_private:ret <- $r6
	@DEBUG_VALUE: mbedtls_rsa_private:ctx <- $r5
	@DEBUG_VALUE: mbedtls_rsa_private:f_rng <- $r4
	@DEBUG_VALUE: mbedtls_rsa_private:DQ <- $r0
	@DEBUG_VALUE: mbedtls_rsa_private:DP <- [DW_OP_plus_uconst 12] [$sp+0]
	@DEBUG_VALUE: mbedtls_rsa_private:output <- [DW_OP_plus_uconst 160] [$sp+0]
	.loc	4 0 0                           @ ../../../ThirdParty/mbedTLS/library/rsa.c:0:0
	str	r0, [sp, #4]                    @ 4-byte Spill
.Ltmp455:
	@DEBUG_VALUE: mbedtls_rsa_private:DQ <- [DW_OP_plus_uconst 4] [$sp+0]
.LBB16_26:
	@DEBUG_VALUE: mbedtls_rsa_private:p_rng <- $r7
	@DEBUG_VALUE: mbedtls_rsa_private:ret <- $r6
	@DEBUG_VALUE: mbedtls_rsa_private:ctx <- $r5
	@DEBUG_VALUE: mbedtls_rsa_private:f_rng <- $r4
	@DEBUG_VALUE: mbedtls_rsa_private:output <- [DW_OP_plus_uconst 160] [$sp+0]
	@DEBUG_VALUE: mbedtls_rsa_private:DQ <- [DW_OP_plus_uconst 4] [$sp+0]
	@DEBUG_VALUE: mbedtls_rsa_private:DP <- [DW_OP_plus_uconst 12] [$sp+0]
	.loc	4 983 5 is_stmt 1               @ ../../../ThirdParty/mbedTLS/library/rsa.c:983:5
	mov	r0, r5
	adds	r0, #116
	str	r0, [sp]
	mov	r7, r5
.Ltmp456:
	adds	r7, #44
	add	r0, sp, #80
	add	r1, sp, #128
	ldr	r2, [sp, #12]                   @ 4-byte Reload
	mov	r3, r7
	bl	mbedtls_mpi_exp_mod
	mov	r6, r0
.Ltmp457:
	@DEBUG_VALUE: mbedtls_rsa_private:ret <- $r6
	.loc	4 983 5 is_stmt 0               @ ../../../ThirdParty/mbedTLS/library/rsa.c:983:5
	cmp	r0, #0
	beq	.LBB16_27
	b	.LBB16_8
.Ltmp458:
.LBB16_27:
	@DEBUG_VALUE: mbedtls_rsa_private:ret <- $r6
	@DEBUG_VALUE: mbedtls_rsa_private:ctx <- $r5
	@DEBUG_VALUE: mbedtls_rsa_private:f_rng <- $r4
	@DEBUG_VALUE: mbedtls_rsa_private:DQ <- [DW_OP_plus_uconst 4] [$sp+0]
	@DEBUG_VALUE: mbedtls_rsa_private:DP <- [DW_OP_plus_uconst 12] [$sp+0]
	@DEBUG_VALUE: mbedtls_rsa_private:output <- [DW_OP_plus_uconst 160] [$sp+0]
	.loc	4 984 5 is_stmt 1               @ ../../../ThirdParty/mbedTLS/library/rsa.c:984:5
	mov	r0, r5
	adds	r0, #128
	str	r0, [sp]
	mov	r3, r5
	adds	r3, #56
	add	r0, sp, #68
	add	r1, sp, #128
	ldr	r2, [sp, #4]                    @ 4-byte Reload
	str	r3, [sp, #12]                   @ 4-byte Spill
	bl	mbedtls_mpi_exp_mod
	mov	r6, r0
.Ltmp459:
	@DEBUG_VALUE: mbedtls_rsa_private:ret <- $r6
	.loc	4 984 5 is_stmt 0               @ ../../../ThirdParty/mbedTLS/library/rsa.c:984:5
	cmp	r0, #0
	beq	.LBB16_28
	b	.LBB16_8
.Ltmp460:
.LBB16_28:
	@DEBUG_VALUE: mbedtls_rsa_private:ret <- $r6
	@DEBUG_VALUE: mbedtls_rsa_private:ctx <- $r5
	@DEBUG_VALUE: mbedtls_rsa_private:f_rng <- $r4
	@DEBUG_VALUE: mbedtls_rsa_private:DQ <- [DW_OP_plus_uconst 4] [$sp+0]
	@DEBUG_VALUE: mbedtls_rsa_private:DP <- [DW_OP_plus_uconst 12] [$sp+0]
	@DEBUG_VALUE: mbedtls_rsa_private:output <- [DW_OP_plus_uconst 160] [$sp+0]
	.loc	4 0 5                           @ ../../../ThirdParty/mbedTLS/library/rsa.c:0:5
	add	r0, sp, #128
	add	r1, sp, #80
	add	r2, sp, #68
.Ltmp461:
	.loc	4 989 5 is_stmt 1               @ ../../../ThirdParty/mbedTLS/library/rsa.c:989:5
	bl	mbedtls_mpi_sub_mpi
	mov	r6, r0
.Ltmp462:
	@DEBUG_VALUE: mbedtls_rsa_private:ret <- $r6
	.loc	4 989 5 is_stmt 0               @ ../../../ThirdParty/mbedTLS/library/rsa.c:989:5
	cmp	r0, #0
	beq	.LBB16_29
	b	.LBB16_8
.Ltmp463:
.LBB16_29:
	@DEBUG_VALUE: mbedtls_rsa_private:ret <- $r6
	@DEBUG_VALUE: mbedtls_rsa_private:ctx <- $r5
	@DEBUG_VALUE: mbedtls_rsa_private:f_rng <- $r4
	@DEBUG_VALUE: mbedtls_rsa_private:DQ <- [DW_OP_plus_uconst 4] [$sp+0]
	@DEBUG_VALUE: mbedtls_rsa_private:DP <- [DW_OP_plus_uconst 12] [$sp+0]
	@DEBUG_VALUE: mbedtls_rsa_private:output <- [DW_OP_plus_uconst 160] [$sp+0]
	.loc	4 990 5 is_stmt 1               @ ../../../ThirdParty/mbedTLS/library/rsa.c:990:5
	mov	r2, r5
	adds	r2, #92
	add	r0, sp, #80
	add	r1, sp, #128
	bl	mbedtls_mpi_mul_mpi
	mov	r6, r0
.Ltmp464:
	@DEBUG_VALUE: mbedtls_rsa_private:ret <- $r6
	.loc	4 990 5 is_stmt 0               @ ../../../ThirdParty/mbedTLS/library/rsa.c:990:5
	cmp	r0, #0
	beq	.LBB16_30
	b	.LBB16_8
.Ltmp465:
.LBB16_30:
	@DEBUG_VALUE: mbedtls_rsa_private:ret <- $r6
	@DEBUG_VALUE: mbedtls_rsa_private:ctx <- $r5
	@DEBUG_VALUE: mbedtls_rsa_private:f_rng <- $r4
	@DEBUG_VALUE: mbedtls_rsa_private:DQ <- [DW_OP_plus_uconst 4] [$sp+0]
	@DEBUG_VALUE: mbedtls_rsa_private:DP <- [DW_OP_plus_uconst 12] [$sp+0]
	@DEBUG_VALUE: mbedtls_rsa_private:output <- [DW_OP_plus_uconst 160] [$sp+0]
	.loc	4 0 5                           @ ../../../ThirdParty/mbedTLS/library/rsa.c:0:5
	add	r0, sp, #128
	add	r1, sp, #80
.Ltmp466:
	.loc	4 991 5 is_stmt 1               @ ../../../ThirdParty/mbedTLS/library/rsa.c:991:5
	mov	r2, r7
	bl	mbedtls_mpi_mod_mpi
	mov	r6, r0
.Ltmp467:
	@DEBUG_VALUE: mbedtls_rsa_private:ret <- $r6
	.loc	4 991 5 is_stmt 0               @ ../../../ThirdParty/mbedTLS/library/rsa.c:991:5
	cmp	r0, #0
	beq	.LBB16_31
	b	.LBB16_8
.Ltmp468:
.LBB16_31:
	@DEBUG_VALUE: mbedtls_rsa_private:ret <- $r6
	@DEBUG_VALUE: mbedtls_rsa_private:ctx <- $r5
	@DEBUG_VALUE: mbedtls_rsa_private:f_rng <- $r4
	@DEBUG_VALUE: mbedtls_rsa_private:DQ <- [DW_OP_plus_uconst 4] [$sp+0]
	@DEBUG_VALUE: mbedtls_rsa_private:DP <- [DW_OP_plus_uconst 12] [$sp+0]
	@DEBUG_VALUE: mbedtls_rsa_private:output <- [DW_OP_plus_uconst 160] [$sp+0]
	.loc	4 0 5                           @ ../../../ThirdParty/mbedTLS/library/rsa.c:0:5
	add	r0, sp, #80
	add	r1, sp, #128
.Ltmp469:
	.loc	4 996 5 is_stmt 1               @ ../../../ThirdParty/mbedTLS/library/rsa.c:996:5
	ldr	r2, [sp, #12]                   @ 4-byte Reload
	bl	mbedtls_mpi_mul_mpi
	mov	r6, r0
.Ltmp470:
	@DEBUG_VALUE: mbedtls_rsa_private:ret <- $r6
	.loc	4 996 5 is_stmt 0               @ ../../../ThirdParty/mbedTLS/library/rsa.c:996:5
	cmp	r0, #0
	beq	.LBB16_32
	b	.LBB16_8
.Ltmp471:
.LBB16_32:
	@DEBUG_VALUE: mbedtls_rsa_private:ret <- $r6
	@DEBUG_VALUE: mbedtls_rsa_private:ctx <- $r5
	@DEBUG_VALUE: mbedtls_rsa_private:f_rng <- $r4
	@DEBUG_VALUE: mbedtls_rsa_private:DQ <- [DW_OP_plus_uconst 4] [$sp+0]
	@DEBUG_VALUE: mbedtls_rsa_private:DP <- [DW_OP_plus_uconst 12] [$sp+0]
	@DEBUG_VALUE: mbedtls_rsa_private:output <- [DW_OP_plus_uconst 160] [$sp+0]
	.loc	4 0 5                           @ ../../../ThirdParty/mbedTLS/library/rsa.c:0:5
	add	r0, sp, #128
	add	r1, sp, #68
	add	r2, sp, #80
.Ltmp472:
	.loc	4 997 5 is_stmt 1               @ ../../../ThirdParty/mbedTLS/library/rsa.c:997:5
	bl	mbedtls_mpi_add_mpi
	mov	r6, r0
.Ltmp473:
	@DEBUG_VALUE: mbedtls_rsa_private:ret <- $r6
	.loc	4 997 5 is_stmt 0               @ ../../../ThirdParty/mbedTLS/library/rsa.c:997:5
	cmp	r0, #0
	beq	.LBB16_33
	b	.LBB16_8
.Ltmp474:
.LBB16_33:
	@DEBUG_VALUE: mbedtls_rsa_private:ret <- $r6
	@DEBUG_VALUE: mbedtls_rsa_private:ctx <- $r5
	@DEBUG_VALUE: mbedtls_rsa_private:f_rng <- $r4
	@DEBUG_VALUE: mbedtls_rsa_private:DQ <- [DW_OP_plus_uconst 4] [$sp+0]
	@DEBUG_VALUE: mbedtls_rsa_private:DP <- [DW_OP_plus_uconst 12] [$sp+0]
	@DEBUG_VALUE: mbedtls_rsa_private:output <- [DW_OP_plus_uconst 160] [$sp+0]
	.loc	4 1000 9 is_stmt 1              @ ../../../ThirdParty/mbedTLS/library/rsa.c:1000:9
	cbz	r4, .LBB16_36
.Ltmp475:
@ %bb.34:
	@DEBUG_VALUE: mbedtls_rsa_private:ret <- $r6
	@DEBUG_VALUE: mbedtls_rsa_private:ctx <- $r5
	@DEBUG_VALUE: mbedtls_rsa_private:f_rng <- $r4
	@DEBUG_VALUE: mbedtls_rsa_private:DQ <- [DW_OP_plus_uconst 4] [$sp+0]
	@DEBUG_VALUE: mbedtls_rsa_private:DP <- [DW_OP_plus_uconst 12] [$sp+0]
	@DEBUG_VALUE: mbedtls_rsa_private:output <- [DW_OP_plus_uconst 160] [$sp+0]
	.loc	4 1006 9                        @ ../../../ThirdParty/mbedTLS/library/rsa.c:1006:9
	mov	r2, r5
	adds	r2, #152
	add	r0, sp, #128
	mov	r1, r0
	bl	mbedtls_mpi_mul_mpi
	mov	r6, r0
.Ltmp476:
	@DEBUG_VALUE: mbedtls_rsa_private:ret <- $r6
	.loc	4 1006 9 is_stmt 0              @ ../../../ThirdParty/mbedTLS/library/rsa.c:1006:9
	cmp	r0, #0
	beq	.LBB16_35
	b	.LBB16_8
.Ltmp477:
.LBB16_35:
	@DEBUG_VALUE: mbedtls_rsa_private:ret <- $r6
	@DEBUG_VALUE: mbedtls_rsa_private:ctx <- $r5
	@DEBUG_VALUE: mbedtls_rsa_private:f_rng <- $r4
	@DEBUG_VALUE: mbedtls_rsa_private:DQ <- [DW_OP_plus_uconst 4] [$sp+0]
	@DEBUG_VALUE: mbedtls_rsa_private:DP <- [DW_OP_plus_uconst 12] [$sp+0]
	@DEBUG_VALUE: mbedtls_rsa_private:output <- [DW_OP_plus_uconst 160] [$sp+0]
	.loc	4 0 9                           @ ../../../ThirdParty/mbedTLS/library/rsa.c:0:9
	add	r0, sp, #128
.Ltmp478:
	.loc	4 1007 9 is_stmt 1              @ ../../../ThirdParty/mbedTLS/library/rsa.c:1007:9
	mov	r1, r0
	ldr	r2, [sp, #16]                   @ 4-byte Reload
	bl	mbedtls_mpi_mod_mpi
	mov	r6, r0
.Ltmp479:
	@DEBUG_VALUE: mbedtls_rsa_private:ret <- $r6
	.loc	4 1007 9 is_stmt 0              @ ../../../ThirdParty/mbedTLS/library/rsa.c:1007:9
	cmp	r0, #0
	beq	.LBB16_36
	b	.LBB16_8
.Ltmp480:
.LBB16_36:
	@DEBUG_VALUE: mbedtls_rsa_private:ret <- $r6
	@DEBUG_VALUE: mbedtls_rsa_private:ctx <- $r5
	@DEBUG_VALUE: mbedtls_rsa_private:f_rng <- $r4
	@DEBUG_VALUE: mbedtls_rsa_private:DQ <- [DW_OP_plus_uconst 4] [$sp+0]
	@DEBUG_VALUE: mbedtls_rsa_private:DP <- [DW_OP_plus_uconst 12] [$sp+0]
	@DEBUG_VALUE: mbedtls_rsa_private:output <- [DW_OP_plus_uconst 160] [$sp+0]
	.loc	4 1011 5 is_stmt 1              @ ../../../ThirdParty/mbedTLS/library/rsa.c:1011:5
	mov	r0, r5
	adds	r0, #104
	str	r0, [sp]
	mov	r2, r5
	adds	r2, #20
	add	r0, sp, #20
	add	r1, sp, #128
	ldr	r3, [sp, #16]                   @ 4-byte Reload
	bl	mbedtls_mpi_exp_mod
	mov	r6, r0
.Ltmp481:
	@DEBUG_VALUE: mbedtls_rsa_private:ret <- $r6
	.loc	4 1011 5 is_stmt 0              @ ../../../ThirdParty/mbedTLS/library/rsa.c:1011:5
	cmp	r0, #0
	beq	.LBB16_37
	b	.LBB16_8
.Ltmp482:
.LBB16_37:
	@DEBUG_VALUE: mbedtls_rsa_private:ret <- $r6
	@DEBUG_VALUE: mbedtls_rsa_private:ctx <- $r5
	@DEBUG_VALUE: mbedtls_rsa_private:f_rng <- $r4
	@DEBUG_VALUE: mbedtls_rsa_private:DQ <- [DW_OP_plus_uconst 4] [$sp+0]
	@DEBUG_VALUE: mbedtls_rsa_private:DP <- [DW_OP_plus_uconst 12] [$sp+0]
	@DEBUG_VALUE: mbedtls_rsa_private:output <- [DW_OP_plus_uconst 160] [$sp+0]
	.loc	4 0 5                           @ ../../../ThirdParty/mbedTLS/library/rsa.c:0:5
	add	r0, sp, #20
	add	r1, sp, #32
.Ltmp483:
	.loc	4 1013 9 is_stmt 1              @ ../../../ThirdParty/mbedTLS/library/rsa.c:1013:9
	bl	mbedtls_mpi_cmp_mpi
.Ltmp484:
	.loc	4 1013 9 is_stmt 0              @ ../../../ThirdParty/mbedTLS/library/rsa.c:1013:9
	cmp	r0, #0
	.loc	4 0 0                           @ ../../../ThirdParty/mbedTLS/library/rsa.c:0:0
	ldr	r6, __arm_cp.16_1
.Ltmp485:
	beq	.LBB16_38
	b	.LBB16_8
.Ltmp486:
.LBB16_38:
	@DEBUG_VALUE: mbedtls_rsa_private:ctx <- $r5
	@DEBUG_VALUE: mbedtls_rsa_private:f_rng <- $r4
	@DEBUG_VALUE: mbedtls_rsa_private:DQ <- [DW_OP_plus_uconst 4] [$sp+0]
	@DEBUG_VALUE: mbedtls_rsa_private:DP <- [DW_OP_plus_uconst 12] [$sp+0]
	@DEBUG_VALUE: mbedtls_rsa_private:output <- [DW_OP_plus_uconst 160] [$sp+0]
	ldr	r1, [sp, #160]
	.loc	4 1019 17 is_stmt 1             @ ../../../ThirdParty/mbedTLS/library/rsa.c:1019:17
	ldr	r2, [r5, #4]
.Ltmp487:
	@DEBUG_VALUE: mbedtls_rsa_private:olen <- $r2
	.loc	4 0 17 is_stmt 0                @ ../../../ThirdParty/mbedTLS/library/rsa.c:0:17
	add	r0, sp, #128
.Ltmp488:
	.loc	4 1020 5 is_stmt 1              @ ../../../ThirdParty/mbedTLS/library/rsa.c:1020:5
	bl	mbedtls_mpi_write_binary
.Ltmp489:
	mov	r6, r0
.Ltmp490:
	@DEBUG_VALUE: mbedtls_rsa_private:ret <- $r6
	.loc	4 0 5 is_stmt 0                 @ ../../../ThirdParty/mbedTLS/library/rsa.c:0:5
	b	.LBB16_8
.Ltmp491:
	.p2align	2
@ %bb.39:
__arm_cp.16_0:
	.long	4294950784                      @ 0xffffbf80
.Lcpi_end10:
	.size	__arm_cp.16_0, .Lcpi_end10-__arm_cp.16_0
__arm_cp.16_1:
	.long	4294950016                      @ 0xffffbc80
.Lcpi_end11:
	.size	__arm_cp.16_1, .Lcpi_end11-__arm_cp.16_1
.Lfunc_end16:
	.size	mbedtls_rsa_private, .Lfunc_end16-mbedtls_rsa_private
	.cfi_endproc
	.cantunwind
	.fnend
                                        @ -- End function
	.section	.text.rsa_prepare_blinding,"ax",%progbits
	.p2align	2                               @ -- Begin function rsa_prepare_blinding
	.type	rsa_prepare_blinding,%function
	.code	16                              @ @rsa_prepare_blinding
	.thumb_func
rsa_prepare_blinding:
.Lfunc_begin17:
	.loc	4 773 0 is_stmt 1               @ ../../../ThirdParty/mbedTLS/library/rsa.c:773:0
	.fnstart
	.cfi_startproc
@ %bb.0:
	@DEBUG_VALUE: rsa_prepare_blinding:ctx <- $r0
	@DEBUG_VALUE: rsa_prepare_blinding:f_rng <- $r1
	@DEBUG_VALUE: rsa_prepare_blinding:p_rng <- $r2
	.save	{r4, r5, r6, r7, lr}
	push	{r4, r5, r6, r7, lr}
	.cfi_def_cfa_offset 20
	.cfi_offset lr, -4
	.cfi_offset r7, -8
	.cfi_offset r6, -12
	.cfi_offset r5, -16
	.cfi_offset r4, -20
	.pad	#20
	sub	sp, #20
	.cfi_def_cfa_offset 40
	mov	r4, r0
	movs	r0, #160
.Ltmp492:
	@DEBUG_VALUE: rsa_prepare_blinding:ctx <- [DW_OP_LLVM_entry_value 1] $r0
	@DEBUG_VALUE: rsa_prepare_blinding:count <- 0
	@DEBUG_VALUE: rsa_prepare_blinding:p_rng <- $r2
	@DEBUG_VALUE: rsa_prepare_blinding:f_rng <- $r1
	@DEBUG_VALUE: rsa_prepare_blinding:ctx <- $r4
	.loc	4 776 17 prologue_end           @ ../../../ThirdParty/mbedTLS/library/rsa.c:776:17
	ldr	r0, [r4, r0]
	.loc	4 776 14 is_stmt 0              @ ../../../ThirdParty/mbedTLS/library/rsa.c:776:14
	mov	r5, r4
	adds	r5, #152
.Ltmp493:
	.loc	4 776 9                         @ ../../../ThirdParty/mbedTLS/library/rsa.c:776:9
	cbz	r0, .LBB17_3
.Ltmp494:
@ %bb.1:
	@DEBUG_VALUE: rsa_prepare_blinding:ctx <- $r4
	@DEBUG_VALUE: rsa_prepare_blinding:p_rng <- $r2
	@DEBUG_VALUE: rsa_prepare_blinding:f_rng <- $r1
	@DEBUG_VALUE: rsa_prepare_blinding:count <- 0
	.loc	4 779 9 is_stmt 1               @ ../../../ThirdParty/mbedTLS/library/rsa.c:779:9
	mov	r6, r4
	adds	r6, #140
	mov	r0, r6
	mov	r1, r6
.Ltmp495:
	@DEBUG_VALUE: rsa_prepare_blinding:f_rng <- [DW_OP_LLVM_entry_value 1] $r1
	mov	r2, r6
.Ltmp496:
	@DEBUG_VALUE: rsa_prepare_blinding:p_rng <- [DW_OP_LLVM_entry_value 1] $r2
	bl	mbedtls_mpi_mul_mpi
.Ltmp497:
	@DEBUG_VALUE: rsa_prepare_blinding:ret <- $r0
	.loc	4 779 9 is_stmt 0               @ ../../../ThirdParty/mbedTLS/library/rsa.c:779:9
	cbz	r0, .LBB17_10
.Ltmp498:
.LBB17_2:
	@DEBUG_VALUE: rsa_prepare_blinding:ret <- $r0
	.loc	4 803 1 is_stmt 1               @ ../../../ThirdParty/mbedTLS/library/rsa.c:803:1
	add	sp, #20
	pop	{r4, r5, r6, r7, pc}
.Ltmp499:
.LBB17_3:
	@DEBUG_VALUE: rsa_prepare_blinding:ctx <- $r4
	@DEBUG_VALUE: rsa_prepare_blinding:p_rng <- $r2
	@DEBUG_VALUE: rsa_prepare_blinding:f_rng <- $r1
	@DEBUG_VALUE: rsa_prepare_blinding:count <- 0
	.loc	4 0 1 is_stmt 0                 @ ../../../ThirdParty/mbedTLS/library/rsa.c:0:1
	mov	r3, r2
.Ltmp500:
	@DEBUG_VALUE: rsa_prepare_blinding:p_rng <- $r3
	mov	r2, r1
.Ltmp501:
	@DEBUG_VALUE: rsa_prepare_blinding:f_rng <- $r2
	str	r5, [sp, #16]                   @ 4-byte Spill
.Ltmp502:
	mov	r0, r4
	adds	r0, #8
	str	r0, [sp, #12]                   @ 4-byte Spill
	mov	r7, r4
	adds	r7, #140
	movs	r6, #12
.Ltmp503:
	.loc	4 788 5 is_stmt 1               @ ../../../ThirdParty/mbedTLS/library/rsa.c:788:5
	str	r4, [sp, #8]                    @ 4-byte Spill
	str	r1, [sp, #4]                    @ 4-byte Spill
.Ltmp504:
.LBB17_4:                               @ =>This Inner Loop Header: Depth=1
	@DEBUG_VALUE: rsa_prepare_blinding:count <- [DW_OP_plus_uconst 1, DW_OP_stack_value] undef
	.loc	4 789 21                        @ ../../../ThirdParty/mbedTLS/library/rsa.c:789:21
	subs	r6, r6, #1
	beq	.LBB17_13
.Ltmp505:
@ %bb.5:                                @   in Loop: Header=BB17_4 Depth=1
	.loc	4 0 21 is_stmt 0                @ ../../../ThirdParty/mbedTLS/library/rsa.c:0:21
	mov	r5, r7
.Ltmp506:
	.loc	4 792 9 is_stmt 1               @ ../../../ThirdParty/mbedTLS/library/rsa.c:792:9
	ldr	r0, [r4, #4]
	subs	r1, r0, #1
	ldr	r7, [sp, #16]                   @ 4-byte Reload
	mov	r0, r7
	mov	r4, r3
	bl	mbedtls_mpi_fill_random
.Ltmp507:
	@DEBUG_VALUE: rsa_prepare_blinding:ret <- $r0
	.loc	4 792 9 is_stmt 0               @ ../../../ThirdParty/mbedTLS/library/rsa.c:792:9
	cmp	r0, #0
	bne	.LBB17_2
.Ltmp508:
@ %bb.6:                                @   in Loop: Header=BB17_4 Depth=1
	@DEBUG_VALUE: rsa_prepare_blinding:ret <- $r0
	.loc	4 793 9 is_stmt 1               @ ../../../ThirdParty/mbedTLS/library/rsa.c:793:9
	mov	r0, r5
.Ltmp509:
	mov	r1, r7
	ldr	r2, [sp, #12]                   @ 4-byte Reload
	bl	mbedtls_mpi_gcd
.Ltmp510:
	@DEBUG_VALUE: rsa_prepare_blinding:ret <- $r0
	.loc	4 793 9 is_stmt 0               @ ../../../ThirdParty/mbedTLS/library/rsa.c:793:9
	cmp	r0, #0
	bne	.LBB17_2
.Ltmp511:
@ %bb.7:                                @   in Loop: Header=BB17_4 Depth=1
	@DEBUG_VALUE: rsa_prepare_blinding:ret <- $r0
	.loc	4 0 9                           @ ../../../ThirdParty/mbedTLS/library/rsa.c:0:9
	movs	r1, #1
	.loc	4 794 14 is_stmt 1              @ ../../../ThirdParty/mbedTLS/library/rsa.c:794:14
	mov	r0, r5
.Ltmp512:
	bl	mbedtls_mpi_cmp_int
.Ltmp513:
	.loc	4 794 5 is_stmt 0               @ ../../../ThirdParty/mbedTLS/library/rsa.c:794:5
	cmp	r0, #0
	mov	r3, r4
	ldr	r4, [sp, #8]                    @ 4-byte Reload
	mov	r7, r5
	ldr	r2, [sp, #4]                    @ 4-byte Reload
	bne	.LBB17_4
.Ltmp514:
@ %bb.8:
	.loc	4 797 5 is_stmt 1               @ ../../../ThirdParty/mbedTLS/library/rsa.c:797:5
	mov	r0, r7
	ldr	r1, [sp, #16]                   @ 4-byte Reload
	ldr	r5, [sp, #12]                   @ 4-byte Reload
	mov	r2, r5
	bl	mbedtls_mpi_inv_mod
.Ltmp515:
	@DEBUG_VALUE: rsa_prepare_blinding:ret <- $r0
	.loc	4 797 5 is_stmt 0               @ ../../../ThirdParty/mbedTLS/library/rsa.c:797:5
	cmp	r0, #0
	bne	.LBB17_2
.Ltmp516:
@ %bb.9:
	@DEBUG_VALUE: rsa_prepare_blinding:ret <- $r0
	.loc	4 798 5 is_stmt 1               @ ../../../ThirdParty/mbedTLS/library/rsa.c:798:5
	mov	r0, r4
.Ltmp517:
	adds	r0, #104
	str	r0, [sp]
	adds	r4, #20
	mov	r0, r7
	mov	r1, r7
	mov	r2, r4
	mov	r3, r5
	bl	mbedtls_mpi_exp_mod
.Ltmp518:
	@DEBUG_VALUE: rsa_prepare_blinding:ret <- $r0
	.loc	4 803 1                         @ ../../../ThirdParty/mbedTLS/library/rsa.c:803:1
	add	sp, #20
	pop	{r4, r5, r6, r7, pc}
.Ltmp519:
.LBB17_10:
	@DEBUG_VALUE: rsa_prepare_blinding:ctx <- $r4
	@DEBUG_VALUE: rsa_prepare_blinding:ret <- $r0
	@DEBUG_VALUE: rsa_prepare_blinding:p_rng <- [DW_OP_LLVM_entry_value 1] $r2
	@DEBUG_VALUE: rsa_prepare_blinding:f_rng <- [DW_OP_LLVM_entry_value 1] $r1
	@DEBUG_VALUE: rsa_prepare_blinding:count <- 0
	.loc	4 780 9                         @ ../../../ThirdParty/mbedTLS/library/rsa.c:780:9
	adds	r4, #8
.Ltmp520:
	mov	r0, r6
.Ltmp521:
	mov	r1, r6
	mov	r2, r4
	bl	mbedtls_mpi_mod_mpi
.Ltmp522:
	@DEBUG_VALUE: rsa_prepare_blinding:ret <- $r0
	.loc	4 780 9 is_stmt 0               @ ../../../ThirdParty/mbedTLS/library/rsa.c:780:9
	cmp	r0, #0
	bne	.LBB17_2
.Ltmp523:
@ %bb.11:
	@DEBUG_VALUE: rsa_prepare_blinding:ret <- $r0
	@DEBUG_VALUE: rsa_prepare_blinding:p_rng <- [DW_OP_LLVM_entry_value 1] $r2
	@DEBUG_VALUE: rsa_prepare_blinding:f_rng <- [DW_OP_LLVM_entry_value 1] $r1
	@DEBUG_VALUE: rsa_prepare_blinding:count <- 0
	.loc	4 781 9 is_stmt 1               @ ../../../ThirdParty/mbedTLS/library/rsa.c:781:9
	mov	r0, r5
.Ltmp524:
	mov	r1, r5
	mov	r2, r5
	bl	mbedtls_mpi_mul_mpi
.Ltmp525:
	@DEBUG_VALUE: rsa_prepare_blinding:ret <- $r0
	.loc	4 781 9 is_stmt 0               @ ../../../ThirdParty/mbedTLS/library/rsa.c:781:9
	cmp	r0, #0
	bne	.LBB17_2
.Ltmp526:
@ %bb.12:
	@DEBUG_VALUE: rsa_prepare_blinding:ret <- $r0
	@DEBUG_VALUE: rsa_prepare_blinding:p_rng <- [DW_OP_LLVM_entry_value 1] $r2
	@DEBUG_VALUE: rsa_prepare_blinding:f_rng <- [DW_OP_LLVM_entry_value 1] $r1
	@DEBUG_VALUE: rsa_prepare_blinding:count <- 0
	.loc	4 782 9 is_stmt 1               @ ../../../ThirdParty/mbedTLS/library/rsa.c:782:9
	mov	r0, r5
.Ltmp527:
	mov	r1, r5
	mov	r2, r4
	bl	mbedtls_mpi_mod_mpi
.Ltmp528:
	@DEBUG_VALUE: rsa_prepare_blinding:ret <- $r0
	.loc	4 803 1                         @ ../../../ThirdParty/mbedTLS/library/rsa.c:803:1
	add	sp, #20
	pop	{r4, r5, r6, r7, pc}
.Ltmp529:
.LBB17_13:
	.loc	4 0 0 is_stmt 0                 @ ../../../ThirdParty/mbedTLS/library/rsa.c:0:0
	ldr	r0, __arm_cp.17_0
	.loc	4 803 1                         @ ../../../ThirdParty/mbedTLS/library/rsa.c:803:1
	add	sp, #20
	pop	{r4, r5, r6, r7, pc}
.Ltmp530:
	.p2align	2
@ %bb.14:
	.loc	4 0 1                           @ ../../../ThirdParty/mbedTLS/library/rsa.c:0:1
__arm_cp.17_0:
	.long	4294949760                      @ 0xffffbb80
.Lcpi_end12:
	.size	__arm_cp.17_0, .Lcpi_end12-__arm_cp.17_0
.Lfunc_end17:
	.size	rsa_prepare_blinding, .Lfunc_end17-rsa_prepare_blinding
	.cfi_endproc
	.cantunwind
	.fnend
                                        @ -- End function
	.section	.text.mbedtls_rsa_rsaes_oaep_encrypt,"ax",%progbits
	.hidden	mbedtls_rsa_rsaes_oaep_encrypt  @ -- Begin function mbedtls_rsa_rsaes_oaep_encrypt
	.globl	mbedtls_rsa_rsaes_oaep_encrypt
	.p2align	2
	.type	mbedtls_rsa_rsaes_oaep_encrypt,%function
	.code	16                              @ @mbedtls_rsa_rsaes_oaep_encrypt
	.thumb_func
mbedtls_rsa_rsaes_oaep_encrypt:
.Lfunc_begin18:
	.loc	4 1128 0 is_stmt 1              @ ../../../ThirdParty/mbedTLS/library/rsa.c:1128:0
	.fnstart
	.cfi_startproc
@ %bb.0:
	@DEBUG_VALUE: mbedtls_rsa_rsaes_oaep_encrypt:ctx <- $r0
	@DEBUG_VALUE: mbedtls_rsa_rsaes_oaep_encrypt:f_rng <- $r1
	@DEBUG_VALUE: mbedtls_rsa_rsaes_oaep_encrypt:p_rng <- $r2
	@DEBUG_VALUE: mbedtls_rsa_rsaes_oaep_encrypt:mode <- $r3
	.save	{r4, r5, r6, r7, lr}
	push	{r4, r5, r6, r7, lr}
	.cfi_def_cfa_offset 20
	.cfi_offset lr, -4
	.cfi_offset r7, -8
	.cfi_offset r6, -12
	.cfi_offset r5, -16
	.cfi_offset r4, -20
	.pad	#60
	sub	sp, #60
	.cfi_def_cfa_offset 80
	mov	r6, r2
.Ltmp531:
	@DEBUG_VALUE: mbedtls_rsa_rsaes_oaep_encrypt:p <- undef
	mov	r5, r0
	adds	r5, #164
	ldr	r4, __arm_cp.18_0
.Ltmp532:
	@DEBUG_VALUE: mbedtls_rsa_rsaes_oaep_encrypt:output <- [DW_OP_plus_uconst 96] [$sp+0]
	@DEBUG_VALUE: mbedtls_rsa_rsaes_oaep_encrypt:input <- [DW_OP_plus_uconst 92] [$sp+0]
	@DEBUG_VALUE: mbedtls_rsa_rsaes_oaep_encrypt:ilen <- [DW_OP_plus_uconst 88] [$sp+0]
	@DEBUG_VALUE: mbedtls_rsa_rsaes_oaep_encrypt:label_len <- [DW_OP_plus_uconst 84] [$sp+0]
	@DEBUG_VALUE: mbedtls_rsa_rsaes_oaep_encrypt:label <- [DW_OP_plus_uconst 80] [$sp+0]
	@DEBUG_VALUE: mbedtls_rsa_rsaes_oaep_encrypt:mode <- $r3
	@DEBUG_VALUE: mbedtls_rsa_rsaes_oaep_encrypt:p_rng <- $r6
	@DEBUG_VALUE: mbedtls_rsa_rsaes_oaep_encrypt:f_rng <- $r1
	@DEBUG_VALUE: mbedtls_rsa_rsaes_oaep_encrypt:ctx <- $r0
	.loc	4 1143 37 prologue_end          @ ../../../ThirdParty/mbedTLS/library/rsa.c:1143:37
	cmp	r3, #1
	bne	.LBB18_3
.Ltmp533:
@ %bb.1:
	@DEBUG_VALUE: mbedtls_rsa_rsaes_oaep_encrypt:p_rng <- $r6
	@DEBUG_VALUE: mbedtls_rsa_rsaes_oaep_encrypt:mode <- $r3
	@DEBUG_VALUE: mbedtls_rsa_rsaes_oaep_encrypt:f_rng <- $r1
	@DEBUG_VALUE: mbedtls_rsa_rsaes_oaep_encrypt:ctx <- $r0
	@DEBUG_VALUE: mbedtls_rsa_rsaes_oaep_encrypt:label <- [DW_OP_plus_uconst 80] [$sp+0]
	@DEBUG_VALUE: mbedtls_rsa_rsaes_oaep_encrypt:label_len <- [DW_OP_plus_uconst 84] [$sp+0]
	@DEBUG_VALUE: mbedtls_rsa_rsaes_oaep_encrypt:ilen <- [DW_OP_plus_uconst 88] [$sp+0]
	@DEBUG_VALUE: mbedtls_rsa_rsaes_oaep_encrypt:input <- [DW_OP_plus_uconst 92] [$sp+0]
	@DEBUG_VALUE: mbedtls_rsa_rsaes_oaep_encrypt:output <- [DW_OP_plus_uconst 96] [$sp+0]
	.loc	4 1143 9 is_stmt 0              @ ../../../ThirdParty/mbedTLS/library/rsa.c:1143:9
	cmp	r1, #0
	bne	.LBB18_2
	b	.LBB18_19
.Ltmp534:
.LBB18_2:
	@DEBUG_VALUE: mbedtls_rsa_rsaes_oaep_encrypt:p_rng <- $r6
	@DEBUG_VALUE: mbedtls_rsa_rsaes_oaep_encrypt:mode <- $r3
	@DEBUG_VALUE: mbedtls_rsa_rsaes_oaep_encrypt:f_rng <- $r1
	@DEBUG_VALUE: mbedtls_rsa_rsaes_oaep_encrypt:ctx <- $r0
	@DEBUG_VALUE: mbedtls_rsa_rsaes_oaep_encrypt:label <- [DW_OP_plus_uconst 80] [$sp+0]
	@DEBUG_VALUE: mbedtls_rsa_rsaes_oaep_encrypt:label_len <- [DW_OP_plus_uconst 84] [$sp+0]
	@DEBUG_VALUE: mbedtls_rsa_rsaes_oaep_encrypt:ilen <- [DW_OP_plus_uconst 88] [$sp+0]
	@DEBUG_VALUE: mbedtls_rsa_rsaes_oaep_encrypt:input <- [DW_OP_plus_uconst 92] [$sp+0]
	@DEBUG_VALUE: mbedtls_rsa_rsaes_oaep_encrypt:output <- [DW_OP_plus_uconst 96] [$sp+0]
	.loc	4 0 0                           @ ../../../ThirdParty/mbedTLS/library/rsa.c:0:0
	ldr	r2, [r5]
	.loc	4 1143 9                        @ ../../../ThirdParty/mbedTLS/library/rsa.c:1143:9
	cmp	r2, #1
	beq	.LBB18_4
	b	.LBB18_19
.Ltmp535:
.LBB18_3:
	@DEBUG_VALUE: mbedtls_rsa_rsaes_oaep_encrypt:p_rng <- $r6
	@DEBUG_VALUE: mbedtls_rsa_rsaes_oaep_encrypt:mode <- $r3
	@DEBUG_VALUE: mbedtls_rsa_rsaes_oaep_encrypt:f_rng <- $r1
	@DEBUG_VALUE: mbedtls_rsa_rsaes_oaep_encrypt:ctx <- $r0
	@DEBUG_VALUE: mbedtls_rsa_rsaes_oaep_encrypt:label <- [DW_OP_plus_uconst 80] [$sp+0]
	@DEBUG_VALUE: mbedtls_rsa_rsaes_oaep_encrypt:label_len <- [DW_OP_plus_uconst 84] [$sp+0]
	@DEBUG_VALUE: mbedtls_rsa_rsaes_oaep_encrypt:ilen <- [DW_OP_plus_uconst 88] [$sp+0]
	@DEBUG_VALUE: mbedtls_rsa_rsaes_oaep_encrypt:input <- [DW_OP_plus_uconst 92] [$sp+0]
	@DEBUG_VALUE: mbedtls_rsa_rsaes_oaep_encrypt:output <- [DW_OP_plus_uconst 96] [$sp+0]
	.loc	4 1146 9 is_stmt 1              @ ../../../ThirdParty/mbedTLS/library/rsa.c:1146:9
	cmp	r1, #0
	bne	.LBB18_4
	b	.LBB18_19
.Ltmp536:
.LBB18_4:
	@DEBUG_VALUE: mbedtls_rsa_rsaes_oaep_encrypt:p_rng <- $r6
	@DEBUG_VALUE: mbedtls_rsa_rsaes_oaep_encrypt:mode <- $r3
	@DEBUG_VALUE: mbedtls_rsa_rsaes_oaep_encrypt:f_rng <- $r1
	@DEBUG_VALUE: mbedtls_rsa_rsaes_oaep_encrypt:ctx <- $r0
	@DEBUG_VALUE: mbedtls_rsa_rsaes_oaep_encrypt:label <- [DW_OP_plus_uconst 80] [$sp+0]
	@DEBUG_VALUE: mbedtls_rsa_rsaes_oaep_encrypt:label_len <- [DW_OP_plus_uconst 84] [$sp+0]
	@DEBUG_VALUE: mbedtls_rsa_rsaes_oaep_encrypt:ilen <- [DW_OP_plus_uconst 88] [$sp+0]
	@DEBUG_VALUE: mbedtls_rsa_rsaes_oaep_encrypt:input <- [DW_OP_plus_uconst 92] [$sp+0]
	@DEBUG_VALUE: mbedtls_rsa_rsaes_oaep_encrypt:output <- [DW_OP_plus_uconst 96] [$sp+0]
	.loc	4 0 9 is_stmt 0                 @ ../../../ThirdParty/mbedTLS/library/rsa.c:0:9
	str	r0, [sp, #44]                   @ 4-byte Spill
.Ltmp537:
	@DEBUG_VALUE: mbedtls_rsa_rsaes_oaep_encrypt:ctx <- [DW_OP_plus_uconst 44] [$sp+0]
	str	r3, [sp, #36]                   @ 4-byte Spill
.Ltmp538:
	@DEBUG_VALUE: mbedtls_rsa_rsaes_oaep_encrypt:mode <- [DW_OP_plus_uconst 36] [$sp+0]
	str	r1, [sp, #40]                   @ 4-byte Spill
.Ltmp539:
	@DEBUG_VALUE: mbedtls_rsa_rsaes_oaep_encrypt:f_rng <- [DW_OP_plus_uconst 40] [$sp+0]
	.loc	4 1149 67 is_stmt 1             @ ../../../ThirdParty/mbedTLS/library/rsa.c:1149:67
	ldrb	r0, [r5, #4]
	.loc	4 1149 15 is_stmt 0             @ ../../../ThirdParty/mbedTLS/library/rsa.c:1149:15
	bl	mbedtls_md_info_from_type
.Ltmp540:
	@DEBUG_VALUE: mbedtls_rsa_rsaes_oaep_encrypt:md_info <- $r0
	.loc	4 1150 9 is_stmt 1              @ ../../../ThirdParty/mbedTLS/library/rsa.c:1150:9
	cmp	r0, #0
	bne	.LBB18_5
	b	.LBB18_19
.Ltmp541:
.LBB18_5:
	@DEBUG_VALUE: mbedtls_rsa_rsaes_oaep_encrypt:f_rng <- [DW_OP_plus_uconst 40] [$sp+0]
	@DEBUG_VALUE: mbedtls_rsa_rsaes_oaep_encrypt:mode <- [DW_OP_plus_uconst 36] [$sp+0]
	@DEBUG_VALUE: mbedtls_rsa_rsaes_oaep_encrypt:ctx <- [DW_OP_plus_uconst 44] [$sp+0]
	@DEBUG_VALUE: mbedtls_rsa_rsaes_oaep_encrypt:p_rng <- $r6
	@DEBUG_VALUE: mbedtls_rsa_rsaes_oaep_encrypt:md_info <- $r0
	@DEBUG_VALUE: mbedtls_rsa_rsaes_oaep_encrypt:label <- [DW_OP_plus_uconst 80] [$sp+0]
	@DEBUG_VALUE: mbedtls_rsa_rsaes_oaep_encrypt:label_len <- [DW_OP_plus_uconst 84] [$sp+0]
	@DEBUG_VALUE: mbedtls_rsa_rsaes_oaep_encrypt:ilen <- [DW_OP_plus_uconst 88] [$sp+0]
	@DEBUG_VALUE: mbedtls_rsa_rsaes_oaep_encrypt:input <- [DW_OP_plus_uconst 92] [$sp+0]
	@DEBUG_VALUE: mbedtls_rsa_rsaes_oaep_encrypt:output <- [DW_OP_plus_uconst 96] [$sp+0]
	.loc	4 0 9 is_stmt 0                 @ ../../../ThirdParty/mbedTLS/library/rsa.c:0:9
	mov	r7, r0
.Ltmp542:
	@DEBUG_VALUE: mbedtls_rsa_rsaes_oaep_encrypt:md_info <- $r7
	str	r6, [sp, #32]                   @ 4-byte Spill
.Ltmp543:
	@DEBUG_VALUE: mbedtls_rsa_rsaes_oaep_encrypt:p_rng <- [DW_OP_plus_uconst 32] [$sp+0]
	ldr	r5, [sp, #88]
	.loc	4 1153 17 is_stmt 1             @ ../../../ThirdParty/mbedTLS/library/rsa.c:1153:17
	ldr	r0, [sp, #44]                   @ 4-byte Reload
.Ltmp544:
	@DEBUG_VALUE: mbedtls_rsa_rsaes_oaep_encrypt:ctx <- $r0
	ldr	r6, [r0, #4]
.Ltmp545:
	@DEBUG_VALUE: mbedtls_rsa_rsaes_oaep_encrypt:olen <- $r6
	.loc	4 1154 12                       @ ../../../ThirdParty/mbedTLS/library/rsa.c:1154:12
	mov	r0, r7
.Ltmp546:
	@DEBUG_VALUE: mbedtls_rsa_rsaes_oaep_encrypt:ctx <- [DW_OP_LLVM_entry_value 1] $r0
	bl	mbedtls_md_get_size
	mov	r2, r0
.Ltmp547:
	@DEBUG_VALUE: mbedtls_rsa_rsaes_oaep_encrypt:hlen <- $r2
	.loc	4 1157 18                       @ ../../../ThirdParty/mbedTLS/library/rsa.c:1157:18
	lsls	r0, r0, #1
	.loc	4 1157 14 is_stmt 0             @ ../../../ThirdParty/mbedTLS/library/rsa.c:1157:14
	adds	r1, r0, r5
	.loc	4 1157 25                       @ ../../../ThirdParty/mbedTLS/library/rsa.c:1157:25
	adds	r0, r1, #2
	str	r5, [sp, #28]                   @ 4-byte Spill
	.loc	4 1157 36                       @ ../../../ThirdParty/mbedTLS/library/rsa.c:1157:36
	cmp	r0, r5
	blo	.LBB18_19
.Ltmp548:
@ %bb.6:
	@DEBUG_VALUE: mbedtls_rsa_rsaes_oaep_encrypt:p_rng <- [DW_OP_plus_uconst 32] [$sp+0]
	@DEBUG_VALUE: mbedtls_rsa_rsaes_oaep_encrypt:f_rng <- [DW_OP_plus_uconst 40] [$sp+0]
	@DEBUG_VALUE: mbedtls_rsa_rsaes_oaep_encrypt:mode <- [DW_OP_plus_uconst 36] [$sp+0]
	@DEBUG_VALUE: mbedtls_rsa_rsaes_oaep_encrypt:md_info <- $r7
	@DEBUG_VALUE: mbedtls_rsa_rsaes_oaep_encrypt:olen <- $r6
	@DEBUG_VALUE: mbedtls_rsa_rsaes_oaep_encrypt:hlen <- $r2
	@DEBUG_VALUE: mbedtls_rsa_rsaes_oaep_encrypt:label <- [DW_OP_plus_uconst 80] [$sp+0]
	@DEBUG_VALUE: mbedtls_rsa_rsaes_oaep_encrypt:label_len <- [DW_OP_plus_uconst 84] [$sp+0]
	@DEBUG_VALUE: mbedtls_rsa_rsaes_oaep_encrypt:ilen <- [DW_OP_plus_uconst 88] [$sp+0]
	@DEBUG_VALUE: mbedtls_rsa_rsaes_oaep_encrypt:input <- [DW_OP_plus_uconst 92] [$sp+0]
	@DEBUG_VALUE: mbedtls_rsa_rsaes_oaep_encrypt:output <- [DW_OP_plus_uconst 96] [$sp+0]
	@DEBUG_VALUE: mbedtls_rsa_rsaes_oaep_encrypt:ctx <- [DW_OP_LLVM_entry_value 1] $r0
	cmp	r6, r0
	blo	.LBB18_19
.Ltmp549:
@ %bb.7:
	@DEBUG_VALUE: mbedtls_rsa_rsaes_oaep_encrypt:p_rng <- [DW_OP_plus_uconst 32] [$sp+0]
	@DEBUG_VALUE: mbedtls_rsa_rsaes_oaep_encrypt:f_rng <- [DW_OP_plus_uconst 40] [$sp+0]
	@DEBUG_VALUE: mbedtls_rsa_rsaes_oaep_encrypt:mode <- [DW_OP_plus_uconst 36] [$sp+0]
	@DEBUG_VALUE: mbedtls_rsa_rsaes_oaep_encrypt:md_info <- $r7
	@DEBUG_VALUE: mbedtls_rsa_rsaes_oaep_encrypt:olen <- $r6
	@DEBUG_VALUE: mbedtls_rsa_rsaes_oaep_encrypt:hlen <- $r2
	@DEBUG_VALUE: mbedtls_rsa_rsaes_oaep_encrypt:label <- [DW_OP_plus_uconst 80] [$sp+0]
	@DEBUG_VALUE: mbedtls_rsa_rsaes_oaep_encrypt:label_len <- [DW_OP_plus_uconst 84] [$sp+0]
	@DEBUG_VALUE: mbedtls_rsa_rsaes_oaep_encrypt:ilen <- [DW_OP_plus_uconst 88] [$sp+0]
	@DEBUG_VALUE: mbedtls_rsa_rsaes_oaep_encrypt:input <- [DW_OP_plus_uconst 92] [$sp+0]
	@DEBUG_VALUE: mbedtls_rsa_rsaes_oaep_encrypt:output <- [DW_OP_plus_uconst 96] [$sp+0]
	@DEBUG_VALUE: mbedtls_rsa_rsaes_oaep_encrypt:ctx <- [DW_OP_LLVM_entry_value 1] $r0
	.loc	4 0 36                          @ ../../../ThirdParty/mbedTLS/library/rsa.c:0:36
	str	r1, [sp, #16]                   @ 4-byte Spill
	ldr	r4, [sp, #96]
	.loc	4 1160 5 is_stmt 1              @ ../../../ThirdParty/mbedTLS/library/rsa.c:1160:5
	mov	r0, r4
	str	r6, [sp, #20]                   @ 4-byte Spill
.Ltmp550:
	@DEBUG_VALUE: mbedtls_rsa_rsaes_oaep_encrypt:olen <- [DW_OP_plus_uconst 20] [$sp+0]
	mov	r1, r6
	mov	r5, r2
.Ltmp551:
	@DEBUG_VALUE: mbedtls_rsa_rsaes_oaep_encrypt:hlen <- $r5
	bl	__aeabi_memclr
	movs	r0, #0
	.loc	4 1162 10                       @ ../../../ThirdParty/mbedTLS/library/rsa.c:1162:10
	strb	r0, [r4]
	.loc	4 1162 7 is_stmt 0              @ ../../../ThirdParty/mbedTLS/library/rsa.c:1162:7
	adds	r6, r4, #1
.Ltmp552:
	@DEBUG_VALUE: mbedtls_rsa_rsaes_oaep_encrypt:p <- $r6
	.loc	4 1165 17 is_stmt 1             @ ../../../ThirdParty/mbedTLS/library/rsa.c:1165:17
	ldr	r0, [sp, #32]                   @ 4-byte Reload
.Ltmp553:
	@DEBUG_VALUE: mbedtls_rsa_rsaes_oaep_encrypt:p_rng <- $r0
	mov	r1, r6
	str	r5, [sp, #24]                   @ 4-byte Spill
.Ltmp554:
	@DEBUG_VALUE: mbedtls_rsa_rsaes_oaep_encrypt:hlen <- [DW_OP_plus_uconst 24] [$sp+0]
	mov	r2, r5
	ldr	r3, [sp, #40]                   @ 4-byte Reload
.Ltmp555:
	@DEBUG_VALUE: mbedtls_rsa_rsaes_oaep_encrypt:f_rng <- $r3
	blx	r3
.Ltmp556:
	@DEBUG_VALUE: mbedtls_rsa_rsaes_oaep_encrypt:f_rng <- [DW_OP_LLVM_entry_value 1] $r1
	@DEBUG_VALUE: mbedtls_rsa_rsaes_oaep_encrypt:ret <- $r0
	.loc	4 1165 9 is_stmt 0              @ ../../../ThirdParty/mbedTLS/library/rsa.c:1165:9
	cbz	r0, .LBB18_9
.Ltmp557:
@ %bb.8:
	@DEBUG_VALUE: mbedtls_rsa_rsaes_oaep_encrypt:hlen <- [DW_OP_plus_uconst 24] [$sp+0]
	@DEBUG_VALUE: mbedtls_rsa_rsaes_oaep_encrypt:olen <- [DW_OP_plus_uconst 20] [$sp+0]
	@DEBUG_VALUE: mbedtls_rsa_rsaes_oaep_encrypt:mode <- [DW_OP_plus_uconst 36] [$sp+0]
	@DEBUG_VALUE: mbedtls_rsa_rsaes_oaep_encrypt:md_info <- $r7
	@DEBUG_VALUE: mbedtls_rsa_rsaes_oaep_encrypt:p <- $r6
	@DEBUG_VALUE: mbedtls_rsa_rsaes_oaep_encrypt:ret <- $r0
	@DEBUG_VALUE: mbedtls_rsa_rsaes_oaep_encrypt:label <- [DW_OP_plus_uconst 80] [$sp+0]
	@DEBUG_VALUE: mbedtls_rsa_rsaes_oaep_encrypt:label_len <- [DW_OP_plus_uconst 84] [$sp+0]
	@DEBUG_VALUE: mbedtls_rsa_rsaes_oaep_encrypt:ilen <- [DW_OP_plus_uconst 88] [$sp+0]
	@DEBUG_VALUE: mbedtls_rsa_rsaes_oaep_encrypt:input <- [DW_OP_plus_uconst 92] [$sp+0]
	@DEBUG_VALUE: mbedtls_rsa_rsaes_oaep_encrypt:output <- [DW_OP_plus_uconst 96] [$sp+0]
	@DEBUG_VALUE: mbedtls_rsa_rsaes_oaep_encrypt:f_rng <- [DW_OP_LLVM_entry_value 1] $r1
	@DEBUG_VALUE: mbedtls_rsa_rsaes_oaep_encrypt:ctx <- [DW_OP_LLVM_entry_value 1] $r0
	.loc	4 1166 44 is_stmt 1             @ ../../../ThirdParty/mbedTLS/library/rsa.c:1166:44
	movw	r1, #17536
	subs	r4, r0, r1
	.loc	4 1166 9 is_stmt 0              @ ../../../ThirdParty/mbedTLS/library/rsa.c:1166:9
	b	.LBB18_19
.Ltmp558:
.LBB18_9:
	@DEBUG_VALUE: mbedtls_rsa_rsaes_oaep_encrypt:hlen <- [DW_OP_plus_uconst 24] [$sp+0]
	@DEBUG_VALUE: mbedtls_rsa_rsaes_oaep_encrypt:olen <- [DW_OP_plus_uconst 20] [$sp+0]
	@DEBUG_VALUE: mbedtls_rsa_rsaes_oaep_encrypt:mode <- [DW_OP_plus_uconst 36] [$sp+0]
	@DEBUG_VALUE: mbedtls_rsa_rsaes_oaep_encrypt:md_info <- $r7
	@DEBUG_VALUE: mbedtls_rsa_rsaes_oaep_encrypt:p <- $r6
	@DEBUG_VALUE: mbedtls_rsa_rsaes_oaep_encrypt:ret <- $r0
	@DEBUG_VALUE: mbedtls_rsa_rsaes_oaep_encrypt:label <- [DW_OP_plus_uconst 80] [$sp+0]
	@DEBUG_VALUE: mbedtls_rsa_rsaes_oaep_encrypt:label_len <- [DW_OP_plus_uconst 84] [$sp+0]
	@DEBUG_VALUE: mbedtls_rsa_rsaes_oaep_encrypt:ilen <- [DW_OP_plus_uconst 88] [$sp+0]
	@DEBUG_VALUE: mbedtls_rsa_rsaes_oaep_encrypt:input <- [DW_OP_plus_uconst 92] [$sp+0]
	@DEBUG_VALUE: mbedtls_rsa_rsaes_oaep_encrypt:output <- [DW_OP_plus_uconst 96] [$sp+0]
	@DEBUG_VALUE: mbedtls_rsa_rsaes_oaep_encrypt:f_rng <- [DW_OP_LLVM_entry_value 1] $r1
	@DEBUG_VALUE: mbedtls_rsa_rsaes_oaep_encrypt:ctx <- [DW_OP_LLVM_entry_value 1] $r0
	.loc	4 0 9                           @ ../../../ThirdParty/mbedTLS/library/rsa.c:0:9
	str	r4, [sp, #8]                    @ 4-byte Spill
	ldr	r2, [sp, #84]
	ldr	r1, [sp, #80]
	ldr	r5, [sp, #24]                   @ 4-byte Reload
.Ltmp559:
	@DEBUG_VALUE: mbedtls_rsa_rsaes_oaep_encrypt:hlen <- $r5
	.loc	4 1168 7 is_stmt 1              @ ../../../ThirdParty/mbedTLS/library/rsa.c:1168:7
	adds	r3, r6, r5
.Ltmp560:
	@DEBUG_VALUE: mbedtls_rsa_rsaes_oaep_encrypt:p <- $r3
	.loc	4 1171 17                       @ ../../../ThirdParty/mbedTLS/library/rsa.c:1171:17
	mov	r0, r7
.Ltmp561:
	.loc	4 0 17 is_stmt 0                @ ../../../ThirdParty/mbedTLS/library/rsa.c:0:17
	str	r3, [sp, #12]                   @ 4-byte Spill
.Ltmp562:
	@DEBUG_VALUE: mbedtls_rsa_rsaes_oaep_encrypt:p <- [DW_OP_plus_uconst 12] [$sp+0]
	.loc	4 1171 17                       @ ../../../ThirdParty/mbedTLS/library/rsa.c:1171:17
	bl	mbedtls_md
	mov	r4, r0
.Ltmp563:
	@DEBUG_VALUE: mbedtls_rsa_rsaes_oaep_encrypt:ret <- $r4
	.loc	4 1171 9                        @ ../../../ThirdParty/mbedTLS/library/rsa.c:1171:9
	cmp	r0, #0
	mov	r0, r5
	ldr	r1, [sp, #20]                   @ 4-byte Reload
.Ltmp564:
	@DEBUG_VALUE: mbedtls_rsa_rsaes_oaep_encrypt:olen <- $r1
	.loc	4 0 9                           @ ../../../ThirdParty/mbedTLS/library/rsa.c:0:9
	ldr	r5, [sp, #16]                   @ 4-byte Reload
.Ltmp565:
	.loc	4 1171 9                        @ ../../../ThirdParty/mbedTLS/library/rsa.c:1171:9
	bne	.LBB18_19
.Ltmp566:
@ %bb.10:
	@DEBUG_VALUE: mbedtls_rsa_rsaes_oaep_encrypt:mode <- [DW_OP_plus_uconst 36] [$sp+0]
	@DEBUG_VALUE: mbedtls_rsa_rsaes_oaep_encrypt:md_info <- $r7
	@DEBUG_VALUE: mbedtls_rsa_rsaes_oaep_encrypt:ret <- $r4
	@DEBUG_VALUE: mbedtls_rsa_rsaes_oaep_encrypt:olen <- $r1
	@DEBUG_VALUE: mbedtls_rsa_rsaes_oaep_encrypt:p <- [DW_OP_plus_uconst 12] [$sp+0]
	@DEBUG_VALUE: mbedtls_rsa_rsaes_oaep_encrypt:label <- [DW_OP_plus_uconst 80] [$sp+0]
	@DEBUG_VALUE: mbedtls_rsa_rsaes_oaep_encrypt:label_len <- [DW_OP_plus_uconst 84] [$sp+0]
	@DEBUG_VALUE: mbedtls_rsa_rsaes_oaep_encrypt:ilen <- [DW_OP_plus_uconst 88] [$sp+0]
	@DEBUG_VALUE: mbedtls_rsa_rsaes_oaep_encrypt:input <- [DW_OP_plus_uconst 92] [$sp+0]
	@DEBUG_VALUE: mbedtls_rsa_rsaes_oaep_encrypt:output <- [DW_OP_plus_uconst 96] [$sp+0]
	@DEBUG_VALUE: mbedtls_rsa_rsaes_oaep_encrypt:f_rng <- [DW_OP_LLVM_entry_value 1] $r1
	@DEBUG_VALUE: mbedtls_rsa_rsaes_oaep_encrypt:ctx <- [DW_OP_LLVM_entry_value 1] $r0
	.loc	4 0 9                           @ ../../../ThirdParty/mbedTLS/library/rsa.c:0:9
	str	r6, [sp, #4]                    @ 4-byte Spill
	.loc	4 1173 7 is_stmt 1              @ ../../../ThirdParty/mbedTLS/library/rsa.c:1173:7
	ldr	r2, [sp, #12]                   @ 4-byte Reload
	adds	r0, r2, r0
.Ltmp567:
	@DEBUG_VALUE: mbedtls_rsa_rsaes_oaep_encrypt:p <- $r0
	.loc	4 1174 30                       @ ../../../ThirdParty/mbedTLS/library/rsa.c:1174:30
	subs	r1, r1, r5
.Ltmp568:
	adds	r0, r1, r0
.Ltmp569:
	.loc	4 1174 7 is_stmt 0              @ ../../../ThirdParty/mbedTLS/library/rsa.c:1174:7
	subs	r0, r0, #2
.Ltmp570:
	@DEBUG_VALUE: mbedtls_rsa_rsaes_oaep_encrypt:p <- [DW_OP_plus_uconst 1, DW_OP_stack_value] $r0
	.loc	4 0 7                           @ ../../../ThirdParty/mbedTLS/library/rsa.c:0:7
	movs	r1, #1
	.loc	4 1175 10 is_stmt 1             @ ../../../ThirdParty/mbedTLS/library/rsa.c:1175:10
	strb	r1, [r0]
	ldr	r2, [sp, #28]                   @ 4-byte Reload
	.loc	4 1176 9                        @ ../../../ThirdParty/mbedTLS/library/rsa.c:1176:9
	cbz	r2, .LBB18_12
.Ltmp571:
@ %bb.11:
	@DEBUG_VALUE: mbedtls_rsa_rsaes_oaep_encrypt:mode <- [DW_OP_plus_uconst 36] [$sp+0]
	@DEBUG_VALUE: mbedtls_rsa_rsaes_oaep_encrypt:md_info <- $r7
	@DEBUG_VALUE: mbedtls_rsa_rsaes_oaep_encrypt:ret <- $r4
	@DEBUG_VALUE: mbedtls_rsa_rsaes_oaep_encrypt:p <- [DW_OP_plus_uconst 1, DW_OP_stack_value] $r0
	@DEBUG_VALUE: mbedtls_rsa_rsaes_oaep_encrypt:label <- [DW_OP_plus_uconst 80] [$sp+0]
	@DEBUG_VALUE: mbedtls_rsa_rsaes_oaep_encrypt:label_len <- [DW_OP_plus_uconst 84] [$sp+0]
	@DEBUG_VALUE: mbedtls_rsa_rsaes_oaep_encrypt:ilen <- [DW_OP_plus_uconst 88] [$sp+0]
	@DEBUG_VALUE: mbedtls_rsa_rsaes_oaep_encrypt:input <- [DW_OP_plus_uconst 92] [$sp+0]
	@DEBUG_VALUE: mbedtls_rsa_rsaes_oaep_encrypt:output <- [DW_OP_plus_uconst 96] [$sp+0]
	@DEBUG_VALUE: mbedtls_rsa_rsaes_oaep_encrypt:f_rng <- [DW_OP_LLVM_entry_value 1] $r1
	@DEBUG_VALUE: mbedtls_rsa_rsaes_oaep_encrypt:ctx <- [DW_OP_LLVM_entry_value 1] $r0
	.loc	4 0 9 is_stmt 0                 @ ../../../ThirdParty/mbedTLS/library/rsa.c:0:9
	ldr	r1, [sp, #92]
	.loc	4 1175 7 is_stmt 1              @ ../../../ThirdParty/mbedTLS/library/rsa.c:1175:7
	adds	r0, r0, #1
.Ltmp572:
	@DEBUG_VALUE: mbedtls_rsa_rsaes_oaep_encrypt:p <- $r0
	.loc	4 1177 9                        @ ../../../ThirdParty/mbedTLS/library/rsa.c:1177:9
	bl	__aeabi_memcpy
.Ltmp573:
.LBB18_12:
	@DEBUG_VALUE: mbedtls_rsa_rsaes_oaep_encrypt:mode <- [DW_OP_plus_uconst 36] [$sp+0]
	@DEBUG_VALUE: mbedtls_rsa_rsaes_oaep_encrypt:md_info <- $r7
	@DEBUG_VALUE: mbedtls_rsa_rsaes_oaep_encrypt:ret <- $r4
	@DEBUG_VALUE: mbedtls_rsa_rsaes_oaep_encrypt:label <- [DW_OP_plus_uconst 80] [$sp+0]
	@DEBUG_VALUE: mbedtls_rsa_rsaes_oaep_encrypt:label_len <- [DW_OP_plus_uconst 84] [$sp+0]
	@DEBUG_VALUE: mbedtls_rsa_rsaes_oaep_encrypt:ilen <- [DW_OP_plus_uconst 88] [$sp+0]
	@DEBUG_VALUE: mbedtls_rsa_rsaes_oaep_encrypt:input <- [DW_OP_plus_uconst 92] [$sp+0]
	@DEBUG_VALUE: mbedtls_rsa_rsaes_oaep_encrypt:output <- [DW_OP_plus_uconst 96] [$sp+0]
	@DEBUG_VALUE: mbedtls_rsa_rsaes_oaep_encrypt:f_rng <- [DW_OP_LLVM_entry_value 1] $r1
	@DEBUG_VALUE: mbedtls_rsa_rsaes_oaep_encrypt:ctx <- [DW_OP_LLVM_entry_value 1] $r0
	.loc	4 0 9 is_stmt 0                 @ ../../../ThirdParty/mbedTLS/library/rsa.c:0:9
	add	r4, sp, #48
.Ltmp574:
	.loc	4 1179 5 is_stmt 1              @ ../../../ThirdParty/mbedTLS/library/rsa.c:1179:5
	mov	r0, r4
	bl	mbedtls_md_init
	movs	r2, #0
.Ltmp575:
	.loc	4 1180 17                       @ ../../../ThirdParty/mbedTLS/library/rsa.c:1180:17
	mov	r0, r4
	mov	r1, r7
	bl	mbedtls_md_setup
	mov	r4, r0
.Ltmp576:
	@DEBUG_VALUE: mbedtls_rsa_rsaes_oaep_encrypt:ret <- $r4
	.loc	4 1180 9 is_stmt 0              @ ../../../ThirdParty/mbedTLS/library/rsa.c:1180:9
	cbnz	r0, .LBB18_15
.Ltmp577:
@ %bb.13:
	@DEBUG_VALUE: mbedtls_rsa_rsaes_oaep_encrypt:mode <- [DW_OP_plus_uconst 36] [$sp+0]
	@DEBUG_VALUE: mbedtls_rsa_rsaes_oaep_encrypt:md_info <- $r7
	@DEBUG_VALUE: mbedtls_rsa_rsaes_oaep_encrypt:ret <- $r4
	@DEBUG_VALUE: mbedtls_rsa_rsaes_oaep_encrypt:label <- [DW_OP_plus_uconst 80] [$sp+0]
	@DEBUG_VALUE: mbedtls_rsa_rsaes_oaep_encrypt:label_len <- [DW_OP_plus_uconst 84] [$sp+0]
	@DEBUG_VALUE: mbedtls_rsa_rsaes_oaep_encrypt:ilen <- [DW_OP_plus_uconst 88] [$sp+0]
	@DEBUG_VALUE: mbedtls_rsa_rsaes_oaep_encrypt:input <- [DW_OP_plus_uconst 92] [$sp+0]
	@DEBUG_VALUE: mbedtls_rsa_rsaes_oaep_encrypt:output <- [DW_OP_plus_uconst 96] [$sp+0]
	@DEBUG_VALUE: mbedtls_rsa_rsaes_oaep_encrypt:f_rng <- [DW_OP_LLVM_entry_value 1] $r1
	@DEBUG_VALUE: mbedtls_rsa_rsaes_oaep_encrypt:ctx <- [DW_OP_LLVM_entry_value 1] $r0
	.loc	4 0 9                           @ ../../../ThirdParty/mbedTLS/library/rsa.c:0:9
	add	r0, sp, #48
.Ltmp578:
	.loc	4 1184 17 is_stmt 1             @ ../../../ThirdParty/mbedTLS/library/rsa.c:1184:17
	str	r0, [sp]
	ldr	r3, [sp, #24]                   @ 4-byte Reload
	.loc	4 1184 58 is_stmt 0             @ ../../../ThirdParty/mbedTLS/library/rsa.c:1184:58
	mvns	r0, r3
	ldr	r1, [sp, #20]                   @ 4-byte Reload
	adds	r6, r1, r0
	.loc	4 1184 34                       @ ../../../ThirdParty/mbedTLS/library/rsa.c:1184:34
	ldr	r0, [sp, #8]                    @ 4-byte Reload
	adds	r0, r0, r3
	.loc	4 1184 41                       @ ../../../ThirdParty/mbedTLS/library/rsa.c:1184:41
	adds	r7, r0, #1
.Ltmp579:
	.loc	4 1184 17                       @ ../../../ThirdParty/mbedTLS/library/rsa.c:1184:17
	mov	r0, r7
	mov	r1, r6
	ldr	r2, [sp, #4]                    @ 4-byte Reload
	bl	mgf_mask
	mov	r4, r0
.Ltmp580:
	@DEBUG_VALUE: mbedtls_rsa_rsaes_oaep_encrypt:ret <- $r4
	.loc	4 1184 9                        @ ../../../ThirdParty/mbedTLS/library/rsa.c:1184:9
	cbnz	r0, .LBB18_15
.Ltmp581:
@ %bb.14:
	@DEBUG_VALUE: mbedtls_rsa_rsaes_oaep_encrypt:mode <- [DW_OP_plus_uconst 36] [$sp+0]
	@DEBUG_VALUE: mbedtls_rsa_rsaes_oaep_encrypt:ret <- $r4
	@DEBUG_VALUE: mbedtls_rsa_rsaes_oaep_encrypt:label <- [DW_OP_plus_uconst 80] [$sp+0]
	@DEBUG_VALUE: mbedtls_rsa_rsaes_oaep_encrypt:label_len <- [DW_OP_plus_uconst 84] [$sp+0]
	@DEBUG_VALUE: mbedtls_rsa_rsaes_oaep_encrypt:ilen <- [DW_OP_plus_uconst 88] [$sp+0]
	@DEBUG_VALUE: mbedtls_rsa_rsaes_oaep_encrypt:input <- [DW_OP_plus_uconst 92] [$sp+0]
	@DEBUG_VALUE: mbedtls_rsa_rsaes_oaep_encrypt:output <- [DW_OP_plus_uconst 96] [$sp+0]
	@DEBUG_VALUE: mbedtls_rsa_rsaes_oaep_encrypt:f_rng <- [DW_OP_LLVM_entry_value 1] $r1
	@DEBUG_VALUE: mbedtls_rsa_rsaes_oaep_encrypt:ctx <- [DW_OP_LLVM_entry_value 1] $r0
	.loc	4 0 9                           @ ../../../ThirdParty/mbedTLS/library/rsa.c:0:9
	add	r0, sp, #48
.Ltmp582:
	.loc	4 1189 17 is_stmt 1             @ ../../../ThirdParty/mbedTLS/library/rsa.c:1189:17
	str	r0, [sp]
	ldr	r0, [sp, #4]                    @ 4-byte Reload
	ldr	r1, [sp, #24]                   @ 4-byte Reload
	mov	r2, r7
	mov	r3, r6
	bl	mgf_mask
	mov	r4, r0
.Ltmp583:
	@DEBUG_VALUE: mbedtls_rsa_rsaes_oaep_encrypt:ret <- $r4
.LBB18_15:
	@DEBUG_VALUE: mbedtls_rsa_rsaes_oaep_encrypt:mode <- [DW_OP_plus_uconst 36] [$sp+0]
	@DEBUG_VALUE: mbedtls_rsa_rsaes_oaep_encrypt:ret <- $r4
	@DEBUG_VALUE: mbedtls_rsa_rsaes_oaep_encrypt:label <- [DW_OP_plus_uconst 80] [$sp+0]
	@DEBUG_VALUE: mbedtls_rsa_rsaes_oaep_encrypt:label_len <- [DW_OP_plus_uconst 84] [$sp+0]
	@DEBUG_VALUE: mbedtls_rsa_rsaes_oaep_encrypt:ilen <- [DW_OP_plus_uconst 88] [$sp+0]
	@DEBUG_VALUE: mbedtls_rsa_rsaes_oaep_encrypt:input <- [DW_OP_plus_uconst 92] [$sp+0]
	@DEBUG_VALUE: mbedtls_rsa_rsaes_oaep_encrypt:output <- [DW_OP_plus_uconst 96] [$sp+0]
	@DEBUG_VALUE: mbedtls_rsa_rsaes_oaep_encrypt:f_rng <- [DW_OP_LLVM_entry_value 1] $r1
	@DEBUG_VALUE: mbedtls_rsa_rsaes_oaep_encrypt:ctx <- [DW_OP_LLVM_entry_value 1] $r0
	@DEBUG_VALUE: mbedtls_rsa_rsaes_oaep_encrypt:ret <- $r4
	@DEBUG_LABEL: mbedtls_rsa_rsaes_oaep_encrypt:exit
	.loc	4 0 17 is_stmt 0                @ ../../../ThirdParty/mbedTLS/library/rsa.c:0:17
	add	r0, sp, #48
	.loc	4 1194 5 is_stmt 1              @ ../../../ThirdParty/mbedTLS/library/rsa.c:1194:5
	bl	mbedtls_md_free
	.loc	4 1196 9                        @ ../../../ThirdParty/mbedTLS/library/rsa.c:1196:9
	cbnz	r4, .LBB18_19
.Ltmp584:
@ %bb.16:
	@DEBUG_VALUE: mbedtls_rsa_rsaes_oaep_encrypt:mode <- [DW_OP_plus_uconst 36] [$sp+0]
	@DEBUG_VALUE: mbedtls_rsa_rsaes_oaep_encrypt:ret <- $r4
	@DEBUG_VALUE: mbedtls_rsa_rsaes_oaep_encrypt:label <- [DW_OP_plus_uconst 80] [$sp+0]
	@DEBUG_VALUE: mbedtls_rsa_rsaes_oaep_encrypt:label_len <- [DW_OP_plus_uconst 84] [$sp+0]
	@DEBUG_VALUE: mbedtls_rsa_rsaes_oaep_encrypt:ilen <- [DW_OP_plus_uconst 88] [$sp+0]
	@DEBUG_VALUE: mbedtls_rsa_rsaes_oaep_encrypt:input <- [DW_OP_plus_uconst 92] [$sp+0]
	@DEBUG_VALUE: mbedtls_rsa_rsaes_oaep_encrypt:output <- [DW_OP_plus_uconst 96] [$sp+0]
	@DEBUG_VALUE: mbedtls_rsa_rsaes_oaep_encrypt:f_rng <- [DW_OP_LLVM_entry_value 1] $r1
	@DEBUG_VALUE: mbedtls_rsa_rsaes_oaep_encrypt:ctx <- [DW_OP_LLVM_entry_value 1] $r0
	.loc	4 1199 13                       @ ../../../ThirdParty/mbedTLS/library/rsa.c:1199:13
	ldr	r0, [sp, #36]                   @ 4-byte Reload
.Ltmp585:
	@DEBUG_VALUE: mbedtls_rsa_rsaes_oaep_encrypt:mode <- $r0
	cbz	r0, .LBB18_18
.Ltmp586:
@ %bb.17:
	@DEBUG_VALUE: mbedtls_rsa_rsaes_oaep_encrypt:ret <- $r4
	@DEBUG_VALUE: mbedtls_rsa_rsaes_oaep_encrypt:mode <- $r0
	@DEBUG_VALUE: mbedtls_rsa_rsaes_oaep_encrypt:label <- [DW_OP_plus_uconst 80] [$sp+0]
	@DEBUG_VALUE: mbedtls_rsa_rsaes_oaep_encrypt:label_len <- [DW_OP_plus_uconst 84] [$sp+0]
	@DEBUG_VALUE: mbedtls_rsa_rsaes_oaep_encrypt:ilen <- [DW_OP_plus_uconst 88] [$sp+0]
	@DEBUG_VALUE: mbedtls_rsa_rsaes_oaep_encrypt:input <- [DW_OP_plus_uconst 92] [$sp+0]
	@DEBUG_VALUE: mbedtls_rsa_rsaes_oaep_encrypt:output <- [DW_OP_plus_uconst 96] [$sp+0]
	@DEBUG_VALUE: mbedtls_rsa_rsaes_oaep_encrypt:f_rng <- [DW_OP_LLVM_entry_value 1] $r1
	@DEBUG_VALUE: mbedtls_rsa_rsaes_oaep_encrypt:ctx <- [DW_OP_LLVM_entry_value 1] $r0
	.loc	4 0 13 is_stmt 0                @ ../../../ThirdParty/mbedTLS/library/rsa.c:0:13
	ldr	r3, [sp, #8]                    @ 4-byte Reload
	.loc	4 1201 15 is_stmt 1             @ ../../../ThirdParty/mbedTLS/library/rsa.c:1201:15
	str	r3, [sp]
	ldr	r0, [sp, #44]                   @ 4-byte Reload
.Ltmp587:
	@DEBUG_VALUE: mbedtls_rsa_rsaes_oaep_encrypt:mode <- [DW_OP_LLVM_entry_value 1] $r3
	ldr	r1, [sp, #40]                   @ 4-byte Reload
	ldr	r2, [sp, #32]                   @ 4-byte Reload
	bl	mbedtls_rsa_private
	mov	r4, r0
.Ltmp588:
	.loc	4 0 15 is_stmt 0                @ ../../../ThirdParty/mbedTLS/library/rsa.c:0:15
	b	.LBB18_19
.Ltmp589:
.LBB18_18:
	@DEBUG_VALUE: mbedtls_rsa_rsaes_oaep_encrypt:ret <- $r4
	@DEBUG_VALUE: mbedtls_rsa_rsaes_oaep_encrypt:mode <- $r0
	@DEBUG_VALUE: mbedtls_rsa_rsaes_oaep_encrypt:label <- [DW_OP_plus_uconst 80] [$sp+0]
	@DEBUG_VALUE: mbedtls_rsa_rsaes_oaep_encrypt:label_len <- [DW_OP_plus_uconst 84] [$sp+0]
	@DEBUG_VALUE: mbedtls_rsa_rsaes_oaep_encrypt:ilen <- [DW_OP_plus_uconst 88] [$sp+0]
	@DEBUG_VALUE: mbedtls_rsa_rsaes_oaep_encrypt:input <- [DW_OP_plus_uconst 92] [$sp+0]
	@DEBUG_VALUE: mbedtls_rsa_rsaes_oaep_encrypt:output <- [DW_OP_plus_uconst 96] [$sp+0]
	@DEBUG_VALUE: mbedtls_rsa_rsaes_oaep_encrypt:f_rng <- [DW_OP_LLVM_entry_value 1] $r1
	@DEBUG_VALUE: mbedtls_rsa_rsaes_oaep_encrypt:ctx <- [DW_OP_LLVM_entry_value 1] $r0
	.loc	4 1200 15 is_stmt 1             @ ../../../ThirdParty/mbedTLS/library/rsa.c:1200:15
	ldr	r0, [sp, #44]                   @ 4-byte Reload
.Ltmp590:
	@DEBUG_VALUE: mbedtls_rsa_rsaes_oaep_encrypt:mode <- [DW_OP_LLVM_entry_value 1] $r3
	.loc	4 0 15 is_stmt 0                @ ../../../ThirdParty/mbedTLS/library/rsa.c:0:15
	ldr	r1, [sp, #8]                    @ 4-byte Reload
	.loc	4 1200 15                       @ ../../../ThirdParty/mbedTLS/library/rsa.c:1200:15
	mov	r2, r1
	bl	mbedtls_rsa_public
	mov	r4, r0
.Ltmp591:
.LBB18_19:
	@DEBUG_VALUE: mbedtls_rsa_rsaes_oaep_encrypt:label <- [DW_OP_plus_uconst 80] [$sp+0]
	@DEBUG_VALUE: mbedtls_rsa_rsaes_oaep_encrypt:label_len <- [DW_OP_plus_uconst 84] [$sp+0]
	@DEBUG_VALUE: mbedtls_rsa_rsaes_oaep_encrypt:ilen <- [DW_OP_plus_uconst 88] [$sp+0]
	@DEBUG_VALUE: mbedtls_rsa_rsaes_oaep_encrypt:input <- [DW_OP_plus_uconst 92] [$sp+0]
	@DEBUG_VALUE: mbedtls_rsa_rsaes_oaep_encrypt:output <- [DW_OP_plus_uconst 96] [$sp+0]
	.loc	4 1202 1 is_stmt 1              @ ../../../ThirdParty/mbedTLS/library/rsa.c:1202:1
	mov	r0, r4
	add	sp, #60
.Ltmp592:
	pop	{r4, r5, r6, r7, pc}
.Ltmp593:
	.p2align	2
@ %bb.20:
	.loc	4 0 1 is_stmt 0                 @ ../../../ThirdParty/mbedTLS/library/rsa.c:0:1
__arm_cp.18_0:
	.long	4294950784                      @ 0xffffbf80
.Lcpi_end13:
	.size	__arm_cp.18_0, .Lcpi_end13-__arm_cp.18_0
.Lfunc_end18:
	.size	mbedtls_rsa_rsaes_oaep_encrypt, .Lfunc_end18-mbedtls_rsa_rsaes_oaep_encrypt
	.cfi_endproc
	.cantunwind
	.fnend
                                        @ -- End function
	.section	.text.mgf_mask,"ax",%progbits
	.p2align	1                               @ -- Begin function mgf_mask
	.type	mgf_mask,%function
	.code	16                              @ @mgf_mask
	.thumb_func
mgf_mask:
.Lfunc_begin19:
	.loc	4 1070 0 is_stmt 1              @ ../../../ThirdParty/mbedTLS/library/rsa.c:1070:0
	.fnstart
	.cfi_startproc
@ %bb.0:
	@DEBUG_VALUE: mgf_mask:dst <- $r0
	@DEBUG_VALUE: mgf_mask:dlen <- $r1
	@DEBUG_VALUE: mgf_mask:src <- $r2
	@DEBUG_VALUE: mgf_mask:slen <- $r3
	.save	{r4, r5, r6, r7, lr}
	push	{r4, r5, r6, r7, lr}
	.cfi_def_cfa_offset 20
	.cfi_offset lr, -4
	.cfi_offset r7, -8
	.cfi_offset r6, -12
	.cfi_offset r5, -16
	.cfi_offset r4, -20
	.pad	#92
	sub	sp, #92
	.cfi_def_cfa_offset 112
	str	r3, [sp, #12]                   @ 4-byte Spill
	str	r2, [sp, #8]                    @ 4-byte Spill
	mov	r6, r1
	mov	r7, r0
.Ltmp594:
	@DEBUG_VALUE: mgf_mask:ret <- 0
	@DEBUG_VALUE: mgf_mask:md_ctx <- [DW_OP_plus_uconst 112] [$sp+0]
	@DEBUG_VALUE: mgf_mask:slen <- [DW_OP_plus_uconst 12] [$sp+0]
	@DEBUG_VALUE: mgf_mask:src <- [DW_OP_plus_uconst 8] [$sp+0]
	@DEBUG_VALUE: mgf_mask:dlen <- $r6
	@DEBUG_VALUE: mgf_mask:dst <- $r7
	add	r0, sp, #28
	movs	r1, #64
.Ltmp595:
	.loc	4 1078 5 prologue_end           @ ../../../ThirdParty/mbedTLS/library/rsa.c:1078:5
	bl	__aeabi_memclr4
	movs	r5, #0
.Ltmp596:
	@DEBUG_VALUE: mgf_mask:counter <- 0
	.loc	4 1079 5                        @ ../../../ThirdParty/mbedTLS/library/rsa.c:1079:5
	str	r5, [sp, #24]
	ldr	r4, [sp, #112]
	.loc	4 1081 41                       @ ../../../ThirdParty/mbedTLS/library/rsa.c:1081:41
	ldr	r0, [r4]
	.loc	4 1081 12 is_stmt 0             @ ../../../ThirdParty/mbedTLS/library/rsa.c:1081:12
	bl	mbedtls_md_get_size
	str	r0, [sp, #16]                   @ 4-byte Spill
.Ltmp597:
	@DEBUG_VALUE: mgf_mask:p <- undef
	@DEBUG_VALUE: mgf_mask:hlen <- [DW_OP_plus_uconst 16] [$sp+0]
	.loc	4 1086 5 is_stmt 1              @ ../../../ThirdParty/mbedTLS/library/rsa.c:1086:5
	cbz	r6, .LBB19_17
.Ltmp598:
@ %bb.1:
	@DEBUG_VALUE: mgf_mask:dst <- $r7
	@DEBUG_VALUE: mgf_mask:dlen <- $r6
	@DEBUG_VALUE: mgf_mask:hlen <- [DW_OP_plus_uconst 16] [$sp+0]
	@DEBUG_VALUE: mgf_mask:src <- [DW_OP_plus_uconst 8] [$sp+0]
	@DEBUG_VALUE: mgf_mask:slen <- [DW_OP_plus_uconst 12] [$sp+0]
	@DEBUG_VALUE: mgf_mask:md_ctx <- [DW_OP_plus_uconst 112] [$sp+0]
	@DEBUG_VALUE: mgf_mask:counter <- 0
	@DEBUG_VALUE: mgf_mask:ret <- 0
	.loc	4 0 5 is_stmt 0                 @ ../../../ThirdParty/mbedTLS/library/rsa.c:0:5
	str	r4, [sp, #4]                    @ 4-byte Spill
	str	r5, [sp]                        @ 4-byte Spill
	ldr	r4, [sp, #4]                    @ 4-byte Reload
	b	.LBB19_3
.Ltmp599:
.LBB19_2:                               @   in Loop: Header=BB19_3 Depth=1
	@DEBUG_VALUE: mgf_mask:p <- $r7
	@DEBUG_VALUE: mgf_mask:use_len <- $r6
	@DEBUG_VALUE: mgf_mask:counter <- [DW_OP_plus_uconst 24, DW_OP_deref] $sp
	@DEBUG_VALUE: mgf_mask:dlen <- [DW_OP_plus_uconst 20] [$sp+0]
	@DEBUG_VALUE: mgf_mask:hlen <- [DW_OP_plus_uconst 16] [$sp+0]
	@DEBUG_VALUE: mgf_mask:src <- [DW_OP_plus_uconst 8] [$sp+0]
	@DEBUG_VALUE: mgf_mask:slen <- [DW_OP_plus_uconst 12] [$sp+0]
	@DEBUG_VALUE: mgf_mask:md_ctx <- [DW_OP_plus_uconst 112] [$sp+0]
	@DEBUG_VALUE: mgf_mask:p <- $r7
	add	r0, sp, #24
.Ltmp600:
	.loc	4 1104 19 is_stmt 1             @ ../../../ThirdParty/mbedTLS/library/rsa.c:1104:19
	ldrb	r1, [r0, #3]
	adds	r1, r1, #1
	strb	r1, [r0, #3]
	ldr	r0, [sp, #20]                   @ 4-byte Reload
	.loc	4 1106 14                       @ ../../../ThirdParty/mbedTLS/library/rsa.c:1106:14
	subs	r0, r0, r6
.Ltmp601:
	@DEBUG_VALUE: mgf_mask:ret <- 0
	@DEBUG_VALUE: mgf_mask:dlen <- $r0
	.loc	4 0 14 is_stmt 0                @ ../../../ThirdParty/mbedTLS/library/rsa.c:0:14
	mov	r6, r0
.Ltmp602:
	@DEBUG_VALUE: mgf_mask:dlen <- $r6
	@DEBUG_VALUE: mgf_mask:dlen <- $r6
	.loc	4 1086 5 is_stmt 1              @ ../../../ThirdParty/mbedTLS/library/rsa.c:1086:5
	beq	.LBB19_13
.Ltmp603:
.LBB19_3:                               @ =>This Loop Header: Depth=1
                                        @     Child Loop BB19_11 Depth 2
	@DEBUG_VALUE: mgf_mask:dlen <- $r6
	@DEBUG_VALUE: mgf_mask:hlen <- [DW_OP_plus_uconst 16] [$sp+0]
	@DEBUG_VALUE: mgf_mask:src <- [DW_OP_plus_uconst 8] [$sp+0]
	@DEBUG_VALUE: mgf_mask:slen <- [DW_OP_plus_uconst 12] [$sp+0]
	@DEBUG_VALUE: mgf_mask:md_ctx <- [DW_OP_plus_uconst 112] [$sp+0]
	@DEBUG_VALUE: mgf_mask:ret <- 0
	@DEBUG_VALUE: mgf_mask:dlen <- $r6
	@DEBUG_VALUE: mgf_mask:p <- $r7
	@DEBUG_VALUE: mgf_mask:use_len <- [DW_OP_plus_uconst 16] [$sp+0]
	.loc	4 1089 13                       @ ../../../ThirdParty/mbedTLS/library/rsa.c:1089:13
	ldr	r0, [sp, #16]                   @ 4-byte Reload
.Ltmp604:
	@DEBUG_VALUE: mgf_mask:use_len <- $r0
	cmp	r6, r0
.Ltmp605:
	@DEBUG_VALUE: mgf_mask:use_len <- [DW_OP_plus_uconst 16] [$sp+0]
	.loc	4 0 13 is_stmt 0                @ ../../../ThirdParty/mbedTLS/library/rsa.c:0:13
	str	r6, [sp, #20]                   @ 4-byte Spill
.Ltmp606:
	@DEBUG_VALUE: mgf_mask:dlen <- [DW_OP_plus_uconst 20] [$sp+0]
	.loc	4 1089 13                       @ ../../../ThirdParty/mbedTLS/library/rsa.c:1089:13
	blo	.LBB19_5
.Ltmp607:
@ %bb.4:                                @   in Loop: Header=BB19_3 Depth=1
	@DEBUG_VALUE: mgf_mask:p <- $r7
	@DEBUG_VALUE: mgf_mask:dlen <- [DW_OP_plus_uconst 20] [$sp+0]
	@DEBUG_VALUE: mgf_mask:use_len <- [DW_OP_plus_uconst 16] [$sp+0]
	@DEBUG_VALUE: mgf_mask:hlen <- [DW_OP_plus_uconst 16] [$sp+0]
	@DEBUG_VALUE: mgf_mask:src <- [DW_OP_plus_uconst 8] [$sp+0]
	@DEBUG_VALUE: mgf_mask:slen <- [DW_OP_plus_uconst 12] [$sp+0]
	@DEBUG_VALUE: mgf_mask:md_ctx <- [DW_OP_plus_uconst 112] [$sp+0]
	@DEBUG_VALUE: mgf_mask:ret <- 0
	ldr	r6, [sp, #16]                   @ 4-byte Reload
.Ltmp608:
.LBB19_5:                               @   in Loop: Header=BB19_3 Depth=1
	@DEBUG_VALUE: mgf_mask:p <- $r7
	@DEBUG_VALUE: mgf_mask:dlen <- [DW_OP_plus_uconst 20] [$sp+0]
	@DEBUG_VALUE: mgf_mask:use_len <- [DW_OP_plus_uconst 16] [$sp+0]
	@DEBUG_VALUE: mgf_mask:hlen <- [DW_OP_plus_uconst 16] [$sp+0]
	@DEBUG_VALUE: mgf_mask:src <- [DW_OP_plus_uconst 8] [$sp+0]
	@DEBUG_VALUE: mgf_mask:slen <- [DW_OP_plus_uconst 12] [$sp+0]
	@DEBUG_VALUE: mgf_mask:md_ctx <- [DW_OP_plus_uconst 112] [$sp+0]
	@DEBUG_VALUE: mgf_mask:ret <- 0
	@DEBUG_VALUE: mgf_mask:use_len <- $r6
	@DEBUG_VALUE: mgf_mask:use_len <- $r6
	.loc	4 1092 21 is_stmt 1             @ ../../../ThirdParty/mbedTLS/library/rsa.c:1092:21
	mov	r0, r4
	bl	mbedtls_md_starts
.Ltmp609:
	@DEBUG_VALUE: mgf_mask:ret <- $r0
	.loc	4 1092 13 is_stmt 0             @ ../../../ThirdParty/mbedTLS/library/rsa.c:1092:13
	cbnz	r0, .LBB19_12
.Ltmp610:
@ %bb.6:                                @   in Loop: Header=BB19_3 Depth=1
	@DEBUG_VALUE: mgf_mask:p <- $r7
	@DEBUG_VALUE: mgf_mask:use_len <- $r6
	@DEBUG_VALUE: mgf_mask:ret <- $r0
	@DEBUG_VALUE: mgf_mask:dlen <- [DW_OP_plus_uconst 20] [$sp+0]
	@DEBUG_VALUE: mgf_mask:hlen <- [DW_OP_plus_uconst 16] [$sp+0]
	@DEBUG_VALUE: mgf_mask:src <- [DW_OP_plus_uconst 8] [$sp+0]
	@DEBUG_VALUE: mgf_mask:slen <- [DW_OP_plus_uconst 12] [$sp+0]
	@DEBUG_VALUE: mgf_mask:md_ctx <- [DW_OP_plus_uconst 112] [$sp+0]
	.loc	4 1094 21 is_stmt 1             @ ../../../ThirdParty/mbedTLS/library/rsa.c:1094:21
	mov	r0, r4
.Ltmp611:
	ldr	r1, [sp, #8]                    @ 4-byte Reload
	ldr	r2, [sp, #12]                   @ 4-byte Reload
	bl	mbedtls_md_update
.Ltmp612:
	@DEBUG_VALUE: mgf_mask:ret <- $r0
	.loc	4 1094 13 is_stmt 0             @ ../../../ThirdParty/mbedTLS/library/rsa.c:1094:13
	cbnz	r0, .LBB19_14
.Ltmp613:
@ %bb.7:                                @   in Loop: Header=BB19_3 Depth=1
	@DEBUG_VALUE: mgf_mask:p <- $r7
	@DEBUG_VALUE: mgf_mask:use_len <- $r6
	@DEBUG_VALUE: mgf_mask:ret <- $r0
	@DEBUG_VALUE: mgf_mask:dlen <- [DW_OP_plus_uconst 20] [$sp+0]
	@DEBUG_VALUE: mgf_mask:hlen <- [DW_OP_plus_uconst 16] [$sp+0]
	@DEBUG_VALUE: mgf_mask:src <- [DW_OP_plus_uconst 8] [$sp+0]
	@DEBUG_VALUE: mgf_mask:slen <- [DW_OP_plus_uconst 12] [$sp+0]
	@DEBUG_VALUE: mgf_mask:md_ctx <- [DW_OP_plus_uconst 112] [$sp+0]
	@DEBUG_VALUE: mgf_mask:counter <- [DW_OP_plus_uconst 24, DW_OP_deref] $sp
	.loc	4 0 13                          @ ../../../ThirdParty/mbedTLS/library/rsa.c:0:13
	add	r1, sp, #24
	movs	r2, #4
.Ltmp614:
	.loc	4 1096 21 is_stmt 1             @ ../../../ThirdParty/mbedTLS/library/rsa.c:1096:21
	mov	r0, r4
.Ltmp615:
	bl	mbedtls_md_update
.Ltmp616:
	@DEBUG_VALUE: mgf_mask:ret <- $r0
	.loc	4 1096 13 is_stmt 0             @ ../../../ThirdParty/mbedTLS/library/rsa.c:1096:13
	cbnz	r0, .LBB19_15
.Ltmp617:
@ %bb.8:                                @   in Loop: Header=BB19_3 Depth=1
	@DEBUG_VALUE: mgf_mask:p <- $r7
	@DEBUG_VALUE: mgf_mask:use_len <- $r6
	@DEBUG_VALUE: mgf_mask:ret <- $r0
	@DEBUG_VALUE: mgf_mask:counter <- [DW_OP_plus_uconst 24, DW_OP_deref] $sp
	@DEBUG_VALUE: mgf_mask:dlen <- [DW_OP_plus_uconst 20] [$sp+0]
	@DEBUG_VALUE: mgf_mask:hlen <- [DW_OP_plus_uconst 16] [$sp+0]
	@DEBUG_VALUE: mgf_mask:src <- [DW_OP_plus_uconst 8] [$sp+0]
	@DEBUG_VALUE: mgf_mask:slen <- [DW_OP_plus_uconst 12] [$sp+0]
	@DEBUG_VALUE: mgf_mask:md_ctx <- [DW_OP_plus_uconst 112] [$sp+0]
	.loc	4 0 13                          @ ../../../ThirdParty/mbedTLS/library/rsa.c:0:13
	add	r1, sp, #28
.Ltmp618:
	.loc	4 1098 21 is_stmt 1             @ ../../../ThirdParty/mbedTLS/library/rsa.c:1098:21
	mov	r0, r4
.Ltmp619:
	bl	mbedtls_md_finish
.Ltmp620:
	@DEBUG_VALUE: mgf_mask:ret <- $r0
	.loc	4 1098 13 is_stmt 0             @ ../../../ThirdParty/mbedTLS/library/rsa.c:1098:13
	cbnz	r0, .LBB19_16
.Ltmp621:
@ %bb.9:                                @   in Loop: Header=BB19_3 Depth=1
	@DEBUG_VALUE: mgf_mask:p <- $r7
	@DEBUG_VALUE: mgf_mask:use_len <- $r6
	@DEBUG_VALUE: mgf_mask:ret <- $r0
	@DEBUG_VALUE: mgf_mask:counter <- [DW_OP_plus_uconst 24, DW_OP_deref] $sp
	@DEBUG_VALUE: mgf_mask:dlen <- [DW_OP_plus_uconst 20] [$sp+0]
	@DEBUG_VALUE: mgf_mask:hlen <- [DW_OP_plus_uconst 16] [$sp+0]
	@DEBUG_VALUE: mgf_mask:src <- [DW_OP_plus_uconst 8] [$sp+0]
	@DEBUG_VALUE: mgf_mask:slen <- [DW_OP_plus_uconst 12] [$sp+0]
	@DEBUG_VALUE: mgf_mask:md_ctx <- [DW_OP_plus_uconst 112] [$sp+0]
	@DEBUG_VALUE: mgf_mask:p <- $r7
	@DEBUG_VALUE: mgf_mask:i <- 0
	.loc	4 1101 9 is_stmt 1              @ ../../../ThirdParty/mbedTLS/library/rsa.c:1101:9
	cmp	r6, #0
	beq	.LBB19_2
.Ltmp622:
@ %bb.10:                               @   in Loop: Header=BB19_3 Depth=1
	@DEBUG_VALUE: mgf_mask:p <- $r7
	@DEBUG_VALUE: mgf_mask:use_len <- $r6
	@DEBUG_VALUE: mgf_mask:ret <- $r0
	@DEBUG_VALUE: mgf_mask:counter <- [DW_OP_plus_uconst 24, DW_OP_deref] $sp
	@DEBUG_VALUE: mgf_mask:dlen <- [DW_OP_plus_uconst 20] [$sp+0]
	@DEBUG_VALUE: mgf_mask:hlen <- [DW_OP_plus_uconst 16] [$sp+0]
	@DEBUG_VALUE: mgf_mask:src <- [DW_OP_plus_uconst 8] [$sp+0]
	@DEBUG_VALUE: mgf_mask:slen <- [DW_OP_plus_uconst 12] [$sp+0]
	@DEBUG_VALUE: mgf_mask:md_ctx <- [DW_OP_plus_uconst 112] [$sp+0]
	@DEBUG_VALUE: mgf_mask:i <- 0
	.loc	4 0 9 is_stmt 0                 @ ../../../ThirdParty/mbedTLS/library/rsa.c:0:9
	add	r0, sp, #28
.Ltmp623:
	mov	r1, r6
.Ltmp624:
.LBB19_11:                              @   Parent Loop BB19_3 Depth=1
                                        @ =>  This Inner Loop Header: Depth=2
	@DEBUG_VALUE: mgf_mask:p <- $r7
	@DEBUG_VALUE: mgf_mask:use_len <- $r6
	@DEBUG_VALUE: mgf_mask:counter <- [DW_OP_plus_uconst 24, DW_OP_deref] $sp
	@DEBUG_VALUE: mgf_mask:dlen <- [DW_OP_plus_uconst 20] [$sp+0]
	@DEBUG_VALUE: mgf_mask:hlen <- [DW_OP_plus_uconst 16] [$sp+0]
	@DEBUG_VALUE: mgf_mask:src <- [DW_OP_plus_uconst 8] [$sp+0]
	@DEBUG_VALUE: mgf_mask:slen <- [DW_OP_plus_uconst 12] [$sp+0]
	@DEBUG_VALUE: mgf_mask:md_ctx <- [DW_OP_plus_uconst 112] [$sp+0]
	@DEBUG_VALUE: mgf_mask:p <- $r7
	@DEBUG_VALUE: mgf_mask:i <- undef
	.loc	4 1102 21 is_stmt 1             @ ../../../ThirdParty/mbedTLS/library/rsa.c:1102:21
	ldrb	r2, [r0]
	.loc	4 1102 18 is_stmt 0             @ ../../../ThirdParty/mbedTLS/library/rsa.c:1102:18
	ldrb	r3, [r7]
	eors	r3, r2
	strb	r3, [r7]
	.loc	4 1101 23 is_stmt 1             @ ../../../ThirdParty/mbedTLS/library/rsa.c:1101:23
	adds	r0, r0, #1
.Ltmp625:
	@DEBUG_VALUE: mgf_mask:i <- [DW_OP_plus_uconst 1, DW_OP_stack_value] undef
	subs	r1, r1, #1
	.loc	4 1102 15                       @ ../../../ThirdParty/mbedTLS/library/rsa.c:1102:15
	adds	r7, r7, #1
.Ltmp626:
	@DEBUG_VALUE: mgf_mask:p <- $r7
	.loc	4 1101 9                        @ ../../../ThirdParty/mbedTLS/library/rsa.c:1101:9
	cmp	r1, #0
	bne	.LBB19_11
	b	.LBB19_2
.Ltmp627:
.LBB19_12:
	@DEBUG_VALUE: mgf_mask:p <- $r7
	@DEBUG_VALUE: mgf_mask:use_len <- $r6
	@DEBUG_VALUE: mgf_mask:ret <- $r0
	@DEBUG_VALUE: mgf_mask:dlen <- [DW_OP_plus_uconst 20] [$sp+0]
	@DEBUG_VALUE: mgf_mask:hlen <- [DW_OP_plus_uconst 16] [$sp+0]
	@DEBUG_VALUE: mgf_mask:src <- [DW_OP_plus_uconst 8] [$sp+0]
	@DEBUG_VALUE: mgf_mask:slen <- [DW_OP_plus_uconst 12] [$sp+0]
	@DEBUG_VALUE: mgf_mask:md_ctx <- [DW_OP_plus_uconst 112] [$sp+0]
	.loc	4 0 9 is_stmt 0                 @ ../../../ThirdParty/mbedTLS/library/rsa.c:0:9
	mov	r5, r0
.Ltmp628:
	@DEBUG_VALUE: mgf_mask:ret <- $r5
	b	.LBB19_17
.Ltmp629:
.LBB19_13:
	@DEBUG_VALUE: mgf_mask:p <- $r7
	@DEBUG_VALUE: mgf_mask:dlen <- $r6
	@DEBUG_VALUE: mgf_mask:counter <- [DW_OP_plus_uconst 24, DW_OP_deref] $sp
	@DEBUG_VALUE: mgf_mask:hlen <- [DW_OP_plus_uconst 16] [$sp+0]
	@DEBUG_VALUE: mgf_mask:src <- [DW_OP_plus_uconst 8] [$sp+0]
	@DEBUG_VALUE: mgf_mask:slen <- [DW_OP_plus_uconst 12] [$sp+0]
	@DEBUG_VALUE: mgf_mask:md_ctx <- [DW_OP_plus_uconst 112] [$sp+0]
	@DEBUG_VALUE: mgf_mask:ret <- 0
	ldr	r5, [sp]                        @ 4-byte Reload
	b	.LBB19_17
.Ltmp630:
.LBB19_14:
	@DEBUG_VALUE: mgf_mask:p <- $r7
	@DEBUG_VALUE: mgf_mask:use_len <- $r6
	@DEBUG_VALUE: mgf_mask:ret <- $r0
	@DEBUG_VALUE: mgf_mask:dlen <- [DW_OP_plus_uconst 20] [$sp+0]
	@DEBUG_VALUE: mgf_mask:hlen <- [DW_OP_plus_uconst 16] [$sp+0]
	@DEBUG_VALUE: mgf_mask:src <- [DW_OP_plus_uconst 8] [$sp+0]
	@DEBUG_VALUE: mgf_mask:slen <- [DW_OP_plus_uconst 12] [$sp+0]
	@DEBUG_VALUE: mgf_mask:md_ctx <- [DW_OP_plus_uconst 112] [$sp+0]
	mov	r5, r0
.Ltmp631:
	@DEBUG_VALUE: mgf_mask:ret <- $r5
	b	.LBB19_17
.Ltmp632:
.LBB19_15:
	@DEBUG_VALUE: mgf_mask:p <- $r7
	@DEBUG_VALUE: mgf_mask:use_len <- $r6
	@DEBUG_VALUE: mgf_mask:ret <- $r0
	@DEBUG_VALUE: mgf_mask:counter <- [DW_OP_plus_uconst 24, DW_OP_deref] $sp
	@DEBUG_VALUE: mgf_mask:dlen <- [DW_OP_plus_uconst 20] [$sp+0]
	@DEBUG_VALUE: mgf_mask:hlen <- [DW_OP_plus_uconst 16] [$sp+0]
	@DEBUG_VALUE: mgf_mask:src <- [DW_OP_plus_uconst 8] [$sp+0]
	@DEBUG_VALUE: mgf_mask:slen <- [DW_OP_plus_uconst 12] [$sp+0]
	@DEBUG_VALUE: mgf_mask:md_ctx <- [DW_OP_plus_uconst 112] [$sp+0]
	mov	r5, r0
.Ltmp633:
	@DEBUG_VALUE: mgf_mask:ret <- $r5
	b	.LBB19_17
.Ltmp634:
.LBB19_16:
	@DEBUG_VALUE: mgf_mask:p <- $r7
	@DEBUG_VALUE: mgf_mask:use_len <- $r6
	@DEBUG_VALUE: mgf_mask:ret <- $r0
	@DEBUG_VALUE: mgf_mask:counter <- [DW_OP_plus_uconst 24, DW_OP_deref] $sp
	@DEBUG_VALUE: mgf_mask:dlen <- [DW_OP_plus_uconst 20] [$sp+0]
	@DEBUG_VALUE: mgf_mask:hlen <- [DW_OP_plus_uconst 16] [$sp+0]
	@DEBUG_VALUE: mgf_mask:src <- [DW_OP_plus_uconst 8] [$sp+0]
	@DEBUG_VALUE: mgf_mask:slen <- [DW_OP_plus_uconst 12] [$sp+0]
	@DEBUG_VALUE: mgf_mask:md_ctx <- [DW_OP_plus_uconst 112] [$sp+0]
	mov	r5, r0
.Ltmp635:
	@DEBUG_VALUE: mgf_mask:ret <- $r5
.LBB19_17:
	@DEBUG_VALUE: mgf_mask:hlen <- [DW_OP_plus_uconst 16] [$sp+0]
	@DEBUG_VALUE: mgf_mask:src <- [DW_OP_plus_uconst 8] [$sp+0]
	@DEBUG_VALUE: mgf_mask:slen <- [DW_OP_plus_uconst 12] [$sp+0]
	@DEBUG_VALUE: mgf_mask:md_ctx <- [DW_OP_plus_uconst 112] [$sp+0]
	@DEBUG_VALUE: mgf_mask:ret <- $r5
	@DEBUG_LABEL: mgf_mask:exit
	add	r0, sp, #28
	movs	r1, #64
	.loc	4 1110 5 is_stmt 1              @ ../../../ThirdParty/mbedTLS/library/rsa.c:1110:5
	bl	mbedtls_platform_zeroize
	.loc	4 1112 5                        @ ../../../ThirdParty/mbedTLS/library/rsa.c:1112:5
	mov	r0, r5
	add	sp, #92
.Ltmp636:
	pop	{r4, r5, r6, r7, pc}
.Ltmp637:
.Lfunc_end19:
	.size	mgf_mask, .Lfunc_end19-mgf_mask
	.cfi_endproc
	.cantunwind
	.fnend
                                        @ -- End function
	.section	.text.mbedtls_rsa_rsaes_pkcs1_v15_encrypt,"ax",%progbits
	.hidden	mbedtls_rsa_rsaes_pkcs1_v15_encrypt @ -- Begin function mbedtls_rsa_rsaes_pkcs1_v15_encrypt
	.globl	mbedtls_rsa_rsaes_pkcs1_v15_encrypt
	.p2align	2
	.type	mbedtls_rsa_rsaes_pkcs1_v15_encrypt,%function
	.code	16                              @ @mbedtls_rsa_rsaes_pkcs1_v15_encrypt
	.thumb_func
mbedtls_rsa_rsaes_pkcs1_v15_encrypt:
.Lfunc_begin20:
	.loc	4 1215 0                        @ ../../../ThirdParty/mbedTLS/library/rsa.c:1215:0
	.fnstart
	.cfi_startproc
@ %bb.0:
	@DEBUG_VALUE: mbedtls_rsa_rsaes_pkcs1_v15_encrypt:ctx <- $r0
	@DEBUG_VALUE: mbedtls_rsa_rsaes_pkcs1_v15_encrypt:f_rng <- $r1
	@DEBUG_VALUE: mbedtls_rsa_rsaes_pkcs1_v15_encrypt:p_rng <- $r2
	@DEBUG_VALUE: mbedtls_rsa_rsaes_pkcs1_v15_encrypt:mode <- $r3
	.save	{r4, r5, r6, r7, lr}
	push	{r4, r5, r6, r7, lr}
	.cfi_def_cfa_offset 20
	.cfi_offset lr, -4
	.cfi_offset r7, -8
	.cfi_offset r6, -12
	.cfi_offset r5, -16
	.cfi_offset r4, -20
	.pad	#44
	sub	sp, #44
	.cfi_def_cfa_offset 64
	str	r2, [sp, #40]                   @ 4-byte Spill
	mov	r6, r1
	mov	r7, r0
	ldr	r5, __arm_cp.20_0
.Ltmp638:
	@DEBUG_VALUE: mbedtls_rsa_rsaes_pkcs1_v15_encrypt:p <- undef
	@DEBUG_VALUE: mbedtls_rsa_rsaes_pkcs1_v15_encrypt:output <- [DW_OP_plus_uconst 72] [$sp+0]
	@DEBUG_VALUE: mbedtls_rsa_rsaes_pkcs1_v15_encrypt:input <- [DW_OP_plus_uconst 68] [$sp+0]
	@DEBUG_VALUE: mbedtls_rsa_rsaes_pkcs1_v15_encrypt:ilen <- [DW_OP_plus_uconst 64] [$sp+0]
	@DEBUG_VALUE: mbedtls_rsa_rsaes_pkcs1_v15_encrypt:mode <- $r3
	@DEBUG_VALUE: mbedtls_rsa_rsaes_pkcs1_v15_encrypt:p_rng <- [DW_OP_plus_uconst 40] [$sp+0]
	@DEBUG_VALUE: mbedtls_rsa_rsaes_pkcs1_v15_encrypt:f_rng <- $r6
	@DEBUG_VALUE: mbedtls_rsa_rsaes_pkcs1_v15_encrypt:ctx <- $r7
	.loc	4 1226 37 prologue_end          @ ../../../ThirdParty/mbedTLS/library/rsa.c:1226:37
	cmp	r3, #1
	bne	.LBB20_3
.Ltmp639:
@ %bb.1:
	@DEBUG_VALUE: mbedtls_rsa_rsaes_pkcs1_v15_encrypt:ctx <- $r7
	@DEBUG_VALUE: mbedtls_rsa_rsaes_pkcs1_v15_encrypt:f_rng <- $r6
	@DEBUG_VALUE: mbedtls_rsa_rsaes_pkcs1_v15_encrypt:mode <- $r3
	@DEBUG_VALUE: mbedtls_rsa_rsaes_pkcs1_v15_encrypt:p_rng <- [DW_OP_plus_uconst 40] [$sp+0]
	@DEBUG_VALUE: mbedtls_rsa_rsaes_pkcs1_v15_encrypt:ilen <- [DW_OP_plus_uconst 64] [$sp+0]
	@DEBUG_VALUE: mbedtls_rsa_rsaes_pkcs1_v15_encrypt:input <- [DW_OP_plus_uconst 68] [$sp+0]
	@DEBUG_VALUE: mbedtls_rsa_rsaes_pkcs1_v15_encrypt:output <- [DW_OP_plus_uconst 72] [$sp+0]
	.loc	4 0 37 is_stmt 0                @ ../../../ThirdParty/mbedTLS/library/rsa.c:0:37
	movs	r0, #164
	.loc	4 1226 45                       @ ../../../ThirdParty/mbedTLS/library/rsa.c:1226:45
	ldr	r0, [r7, r0]
.Ltmp640:
	.loc	4 1226 9                        @ ../../../ThirdParty/mbedTLS/library/rsa.c:1226:9
	cbz	r0, .LBB20_3
.Ltmp641:
@ %bb.2:
	@DEBUG_VALUE: mbedtls_rsa_rsaes_pkcs1_v15_encrypt:ctx <- $r7
	@DEBUG_VALUE: mbedtls_rsa_rsaes_pkcs1_v15_encrypt:f_rng <- $r6
	@DEBUG_VALUE: mbedtls_rsa_rsaes_pkcs1_v15_encrypt:mode <- $r3
	@DEBUG_VALUE: mbedtls_rsa_rsaes_pkcs1_v15_encrypt:p_rng <- [DW_OP_plus_uconst 40] [$sp+0]
	@DEBUG_VALUE: mbedtls_rsa_rsaes_pkcs1_v15_encrypt:ilen <- [DW_OP_plus_uconst 64] [$sp+0]
	@DEBUG_VALUE: mbedtls_rsa_rsaes_pkcs1_v15_encrypt:input <- [DW_OP_plus_uconst 68] [$sp+0]
	@DEBUG_VALUE: mbedtls_rsa_rsaes_pkcs1_v15_encrypt:output <- [DW_OP_plus_uconst 72] [$sp+0]
	.loc	4 0 9                           @ ../../../ThirdParty/mbedTLS/library/rsa.c:0:9
	str	r5, [sp, #36]                   @ 4-byte Spill
	b	.LBB20_29
.Ltmp642:
.LBB20_3:
	@DEBUG_VALUE: mbedtls_rsa_rsaes_pkcs1_v15_encrypt:ctx <- $r7
	@DEBUG_VALUE: mbedtls_rsa_rsaes_pkcs1_v15_encrypt:f_rng <- $r6
	@DEBUG_VALUE: mbedtls_rsa_rsaes_pkcs1_v15_encrypt:mode <- $r3
	@DEBUG_VALUE: mbedtls_rsa_rsaes_pkcs1_v15_encrypt:p_rng <- [DW_OP_plus_uconst 40] [$sp+0]
	@DEBUG_VALUE: mbedtls_rsa_rsaes_pkcs1_v15_encrypt:ilen <- [DW_OP_plus_uconst 64] [$sp+0]
	@DEBUG_VALUE: mbedtls_rsa_rsaes_pkcs1_v15_encrypt:input <- [DW_OP_plus_uconst 68] [$sp+0]
	@DEBUG_VALUE: mbedtls_rsa_rsaes_pkcs1_v15_encrypt:output <- [DW_OP_plus_uconst 72] [$sp+0]
	@DEBUG_VALUE: mbedtls_rsa_rsaes_pkcs1_v15_encrypt:p <- undef
	ldr	r2, [sp, #64]
.Ltmp643:
	@DEBUG_VALUE: mbedtls_rsa_rsaes_pkcs1_v15_encrypt:olen <- undef
	movs	r0, #11
	mvns	r0, r0
.Ltmp644:
	.loc	4 1232 26 is_stmt 1             @ ../../../ThirdParty/mbedTLS/library/rsa.c:1232:26
	cmp	r2, r0
	bhi	.LBB20_9
.Ltmp645:
@ %bb.4:
	@DEBUG_VALUE: mbedtls_rsa_rsaes_pkcs1_v15_encrypt:ctx <- $r7
	@DEBUG_VALUE: mbedtls_rsa_rsaes_pkcs1_v15_encrypt:f_rng <- $r6
	@DEBUG_VALUE: mbedtls_rsa_rsaes_pkcs1_v15_encrypt:mode <- $r3
	@DEBUG_VALUE: mbedtls_rsa_rsaes_pkcs1_v15_encrypt:p_rng <- [DW_OP_plus_uconst 40] [$sp+0]
	@DEBUG_VALUE: mbedtls_rsa_rsaes_pkcs1_v15_encrypt:ilen <- [DW_OP_plus_uconst 64] [$sp+0]
	@DEBUG_VALUE: mbedtls_rsa_rsaes_pkcs1_v15_encrypt:input <- [DW_OP_plus_uconst 68] [$sp+0]
	@DEBUG_VALUE: mbedtls_rsa_rsaes_pkcs1_v15_encrypt:output <- [DW_OP_plus_uconst 72] [$sp+0]
	@DEBUG_VALUE: mbedtls_rsa_rsaes_pkcs1_v15_encrypt:p <- undef
	.loc	4 0 26 is_stmt 0                @ ../../../ThirdParty/mbedTLS/library/rsa.c:0:26
	mov	r0, r2
	adds	r0, #11
	ldr	r4, [r7, #4]
.Ltmp646:
	@DEBUG_VALUE: mbedtls_rsa_rsaes_pkcs1_v15_encrypt:olen <- $r4
	.loc	4 1232 26                       @ ../../../ThirdParty/mbedTLS/library/rsa.c:1232:26
	cmp	r4, r0
	blo	.LBB20_10
.Ltmp647:
@ %bb.5:
	@DEBUG_VALUE: mbedtls_rsa_rsaes_pkcs1_v15_encrypt:ctx <- $r7
	@DEBUG_VALUE: mbedtls_rsa_rsaes_pkcs1_v15_encrypt:f_rng <- $r6
	@DEBUG_VALUE: mbedtls_rsa_rsaes_pkcs1_v15_encrypt:olen <- $r4
	@DEBUG_VALUE: mbedtls_rsa_rsaes_pkcs1_v15_encrypt:mode <- $r3
	@DEBUG_VALUE: mbedtls_rsa_rsaes_pkcs1_v15_encrypt:p_rng <- [DW_OP_plus_uconst 40] [$sp+0]
	@DEBUG_VALUE: mbedtls_rsa_rsaes_pkcs1_v15_encrypt:ilen <- [DW_OP_plus_uconst 64] [$sp+0]
	@DEBUG_VALUE: mbedtls_rsa_rsaes_pkcs1_v15_encrypt:input <- [DW_OP_plus_uconst 68] [$sp+0]
	@DEBUG_VALUE: mbedtls_rsa_rsaes_pkcs1_v15_encrypt:output <- [DW_OP_plus_uconst 72] [$sp+0]
	.loc	4 0 26                          @ ../../../ThirdParty/mbedTLS/library/rsa.c:0:26
	ldr	r1, [sp, #72]
.Ltmp648:
	@DEBUG_VALUE: mbedtls_rsa_rsaes_pkcs1_v15_encrypt:p <- $r1
	movs	r0, #0
.Ltmp649:
	@DEBUG_VALUE: mbedtls_rsa_rsaes_pkcs1_v15_encrypt:p <- [DW_OP_plus_uconst 1, DW_OP_stack_value] $r1
	str	r0, [sp, #12]                   @ 4-byte Spill
	.loc	4 1237 10 is_stmt 1             @ ../../../ThirdParty/mbedTLS/library/rsa.c:1237:10
	strb	r0, [r1]
	str	r2, [sp, #24]                   @ 4-byte Spill
	.loc	4 1235 23                       @ ../../../ThirdParty/mbedTLS/library/rsa.c:1235:23
	subs	r0, r4, r2
	subs	r2, r0, #3
.Ltmp650:
	@DEBUG_VALUE: mbedtls_rsa_rsaes_pkcs1_v15_encrypt:nb_pad <- $r2
	.loc	4 0 23 is_stmt 0                @ ../../../ThirdParty/mbedTLS/library/rsa.c:0:23
	str	r3, [sp, #16]                   @ 4-byte Spill
.Ltmp651:
	@DEBUG_VALUE: mbedtls_rsa_rsaes_pkcs1_v15_encrypt:mode <- [DW_OP_plus_uconst 16] [$sp+0]
	str	r1, [sp, #20]                   @ 4-byte Spill
.Ltmp652:
	@DEBUG_VALUE: mbedtls_rsa_rsaes_pkcs1_v15_encrypt:p <- [DW_OP_plus_uconst 20, DW_OP_deref_size 4, DW_OP_plus_uconst 1, DW_OP_stack_value] $sp
	.loc	4 1238 9 is_stmt 1              @ ../../../ThirdParty/mbedTLS/library/rsa.c:1238:9
	cbz	r3, .LBB20_11
.Ltmp653:
@ %bb.6:
	@DEBUG_VALUE: mbedtls_rsa_rsaes_pkcs1_v15_encrypt:mode <- [DW_OP_plus_uconst 16] [$sp+0]
	@DEBUG_VALUE: mbedtls_rsa_rsaes_pkcs1_v15_encrypt:ctx <- $r7
	@DEBUG_VALUE: mbedtls_rsa_rsaes_pkcs1_v15_encrypt:f_rng <- $r6
	@DEBUG_VALUE: mbedtls_rsa_rsaes_pkcs1_v15_encrypt:olen <- $r4
	@DEBUG_VALUE: mbedtls_rsa_rsaes_pkcs1_v15_encrypt:nb_pad <- $r2
	@DEBUG_VALUE: mbedtls_rsa_rsaes_pkcs1_v15_encrypt:p <- [DW_OP_plus_uconst 20, DW_OP_deref_size 4, DW_OP_plus_uconst 1, DW_OP_stack_value] $sp
	@DEBUG_VALUE: mbedtls_rsa_rsaes_pkcs1_v15_encrypt:p_rng <- [DW_OP_plus_uconst 40] [$sp+0]
	@DEBUG_VALUE: mbedtls_rsa_rsaes_pkcs1_v15_encrypt:ilen <- [DW_OP_plus_uconst 64] [$sp+0]
	@DEBUG_VALUE: mbedtls_rsa_rsaes_pkcs1_v15_encrypt:input <- [DW_OP_plus_uconst 68] [$sp+0]
	@DEBUG_VALUE: mbedtls_rsa_rsaes_pkcs1_v15_encrypt:output <- [DW_OP_plus_uconst 72] [$sp+0]
	.loc	4 0 9 is_stmt 0                 @ ../../../ThirdParty/mbedTLS/library/rsa.c:0:9
	movs	r0, #1
.Ltmp654:
	.loc	4 1262 14 is_stmt 1             @ ../../../ThirdParty/mbedTLS/library/rsa.c:1262:14
	strb	r0, [r1, #1]
	.loc	4 1262 11 is_stmt 0             @ ../../../ThirdParty/mbedTLS/library/rsa.c:1262:11
	adds	r5, r1, #2
.Ltmp655:
	@DEBUG_VALUE: mbedtls_rsa_rsaes_pkcs1_v15_encrypt:nb_pad <- [DW_OP_constu 1, DW_OP_minus, DW_OP_stack_value] $r2
	@DEBUG_VALUE: mbedtls_rsa_rsaes_pkcs1_v15_encrypt:p <- $r5
	.loc	4 1264 9 is_stmt 1              @ ../../../ThirdParty/mbedTLS/library/rsa.c:1264:9
	cbz	r2, .LBB20_24
.Ltmp656:
@ %bb.7:
	@DEBUG_VALUE: mbedtls_rsa_rsaes_pkcs1_v15_encrypt:mode <- [DW_OP_plus_uconst 16] [$sp+0]
	@DEBUG_VALUE: mbedtls_rsa_rsaes_pkcs1_v15_encrypt:ctx <- $r7
	@DEBUG_VALUE: mbedtls_rsa_rsaes_pkcs1_v15_encrypt:f_rng <- $r6
	@DEBUG_VALUE: mbedtls_rsa_rsaes_pkcs1_v15_encrypt:p <- $r5
	@DEBUG_VALUE: mbedtls_rsa_rsaes_pkcs1_v15_encrypt:olen <- $r4
	@DEBUG_VALUE: mbedtls_rsa_rsaes_pkcs1_v15_encrypt:nb_pad <- [DW_OP_constu 1, DW_OP_minus, DW_OP_stack_value] $r2
	@DEBUG_VALUE: mbedtls_rsa_rsaes_pkcs1_v15_encrypt:p_rng <- [DW_OP_plus_uconst 40] [$sp+0]
	@DEBUG_VALUE: mbedtls_rsa_rsaes_pkcs1_v15_encrypt:ilen <- [DW_OP_plus_uconst 64] [$sp+0]
	@DEBUG_VALUE: mbedtls_rsa_rsaes_pkcs1_v15_encrypt:input <- [DW_OP_plus_uconst 68] [$sp+0]
	@DEBUG_VALUE: mbedtls_rsa_rsaes_pkcs1_v15_encrypt:output <- [DW_OP_plus_uconst 72] [$sp+0]
	.loc	4 0 9 is_stmt 0                 @ ../../../ThirdParty/mbedTLS/library/rsa.c:0:9
	mov	r1, r2
	movs	r2, #255
.Ltmp657:
