	.text
	.syntax unified
	.eabi_attribute	67, "2.09"	@ Tag_conformance
	.cpu	cortex-m23
	.eabi_attribute	6, 16	@ Tag_CPU_arch
	.eabi_attribute	7, 77	@ Tag_CPU_arch_profile
	.eabi_attribute	8, 0	@ Tag_ARM_ISA_use
	.eabi_attribute	9, 3	@ Tag_THUMB_ISA_use
	.eabi_attribute	34, 0	@ Tag_CPU_unaligned_access
	.eabi_attribute	17, 1	@ Tag_ABI_PCS_GOT_use
	.eabi_attribute	20, 2	@ Tag_ABI_FP_denormal
	.eabi_attribute	21, 0	@ Tag_ABI_FP_exceptions
	.eabi_attribute	23, 1	@ Tag_ABI_FP_number_model
	.eabi_attribute	24, 1	@ Tag_ABI_align_needed
	.eabi_attribute	25, 1	@ Tag_ABI_align_preserved
	.eabi_attribute	38, 1	@ Tag_ABI_FP_16bit_format
	.eabi_attribute	18, 2	@ Tag_ABI_PCS_wchar_t
	.eabi_attribute	26, 1	@ Tag_ABI_enum_size
	.eabi_attribute	14, 0	@ Tag_ABI_PCS_R9_use
	.file	"rsa_internal.c"
	.file	1 "C:\\" "Keil_v5\\ARM\\ARMCLANG\\Bin\\..\\include\\stdint.h"
	.section	.text.mbedtls_rsa_deduce_primes,"ax",%progbits
	.hidden	mbedtls_rsa_deduce_primes       @ -- Begin function mbedtls_rsa_deduce_primes
	.globl	mbedtls_rsa_deduce_primes
	.p2align	2
	.type	mbedtls_rsa_deduce_primes,%function
	.code	16                              @ @mbedtls_rsa_deduce_primes
	.thumb_func
mbedtls_rsa_deduce_primes:
.Lfunc_begin0:
	.file	2 "C:\\Users\\shw26\\OneDrive\\Desktop\\2021\\2021-1\\\354\272\241\354\212\244\355\206\244\353\224\224\354\236\220\354\235\2702\\Nuvoton\\M2351_BSP_v3.00.004\\M2351Series_BSP_CMSIS_V3.00.004\\MyProject\\PulseMonitoring\\Secure" "../../../ThirdParty/mbedTLS/library/rsa_internal.c"
	.loc	2 71 0                          @ ../../../ThirdParty/mbedTLS/library/rsa_internal.c:71:0
	.fnstart
	.cfi_sections .debug_frame
	.cfi_startproc
@ %bb.0:
	@DEBUG_VALUE: mbedtls_rsa_deduce_primes:N <- $r0
	@DEBUG_VALUE: mbedtls_rsa_deduce_primes:E <- $r1
	@DEBUG_VALUE: mbedtls_rsa_deduce_primes:D <- $r2
	@DEBUG_VALUE: mbedtls_rsa_deduce_primes:P <- $r3
	.save	{r4, r5, r6, r7, lr}
	push	{r4, r5, r6, r7, lr}
	.cfi_def_cfa_offset 20
	.cfi_offset lr, -4
	.cfi_offset r7, -8
	.cfi_offset r6, -12
	.cfi_offset r5, -16
	.cfi_offset r4, -20
	.pad	#44
	sub	sp, #44
	.cfi_def_cfa_offset 64
	mov	r7, r1
	movs	r1, #3
.Ltmp0:
	@DEBUG_VALUE: mbedtls_rsa_deduce_primes:E <- [DW_OP_LLVM_entry_value 1] $r1
	mvns	r6, r1
.Ltmp1:
	@DEBUG_VALUE: mbedtls_rsa_deduce_primes:num_primes <- 54
	@DEBUG_VALUE: mbedtls_rsa_deduce_primes:ret <- 0
	@DEBUG_VALUE: mbedtls_rsa_deduce_primes:Q <- [DW_OP_plus_uconst 64] [$sp+0]
	@DEBUG_VALUE: mbedtls_rsa_deduce_primes:P <- $r3
	@DEBUG_VALUE: mbedtls_rsa_deduce_primes:D <- $r2
	@DEBUG_VALUE: mbedtls_rsa_deduce_primes:E <- $r7
	@DEBUG_VALUE: mbedtls_rsa_deduce_primes:N <- $r0
	.loc	2 94 19 prologue_end            @ ../../../ThirdParty/mbedTLS/library/rsa_internal.c:94:19
	cbz	r3, .LBB0_4
.Ltmp2:
@ %bb.1:
	@DEBUG_VALUE: mbedtls_rsa_deduce_primes:E <- $r7
	@DEBUG_VALUE: mbedtls_rsa_deduce_primes:P <- $r3
	@DEBUG_VALUE: mbedtls_rsa_deduce_primes:D <- $r2
	@DEBUG_VALUE: mbedtls_rsa_deduce_primes:N <- $r0
	@DEBUG_VALUE: mbedtls_rsa_deduce_primes:Q <- [DW_OP_plus_uconst 64] [$sp+0]
	@DEBUG_VALUE: mbedtls_rsa_deduce_primes:ret <- 0
	@DEBUG_VALUE: mbedtls_rsa_deduce_primes:num_primes <- 54
	@DEBUG_VALUE: mbedtls_rsa_deduce_primes:P <- $r3
	.loc	2 0 19 is_stmt 0                @ ../../../ThirdParty/mbedTLS/library/rsa_internal.c:0:19
	mov	r5, r2
.Ltmp3:
	@DEBUG_VALUE: mbedtls_rsa_deduce_primes:D <- $r5
	ldr	r2, [sp, #64]
	.loc	2 94 19                         @ ../../../ThirdParty/mbedTLS/library/rsa_internal.c:94:19
	cbz	r2, .LBB0_5
.Ltmp4:
@ %bb.2:
	@DEBUG_VALUE: mbedtls_rsa_deduce_primes:E <- $r7
	@DEBUG_VALUE: mbedtls_rsa_deduce_primes:D <- $r5
	@DEBUG_VALUE: mbedtls_rsa_deduce_primes:P <- $r3
	@DEBUG_VALUE: mbedtls_rsa_deduce_primes:N <- $r0
	@DEBUG_VALUE: mbedtls_rsa_deduce_primes:Q <- [DW_OP_plus_uconst 64] [$sp+0]
	@DEBUG_VALUE: mbedtls_rsa_deduce_primes:ret <- 0
	@DEBUG_VALUE: mbedtls_rsa_deduce_primes:num_primes <- 54
	.loc	2 0 19                          @ ../../../ThirdParty/mbedTLS/library/rsa_internal.c:0:19
	mov	r4, r3
.Ltmp5:
	@DEBUG_VALUE: mbedtls_rsa_deduce_primes:P <- $r4
	.loc	2 94 38                         @ ../../../ThirdParty/mbedTLS/library/rsa_internal.c:94:38
	ldr	r1, [r3, #8]
	.loc	2 94 48                         @ ../../../ThirdParty/mbedTLS/library/rsa_internal.c:94:48
	cbz	r1, .LBB0_6
.Ltmp6:
@ %bb.3:
	@DEBUG_VALUE: mbedtls_rsa_deduce_primes:E <- $r7
	@DEBUG_VALUE: mbedtls_rsa_deduce_primes:D <- $r5
	@DEBUG_VALUE: mbedtls_rsa_deduce_primes:P <- $r4
	@DEBUG_VALUE: mbedtls_rsa_deduce_primes:N <- $r0
	@DEBUG_VALUE: mbedtls_rsa_deduce_primes:Q <- [DW_OP_plus_uconst 64] [$sp+0]
	@DEBUG_VALUE: mbedtls_rsa_deduce_primes:ret <- 0
	@DEBUG_VALUE: mbedtls_rsa_deduce_primes:num_primes <- 54
	.loc	2 0 0                           @ ../../../ThirdParty/mbedTLS/library/rsa_internal.c:0:0
	mov	r7, r6
.Ltmp7:
	b	.LBB0_8
.Ltmp8:
.LBB0_4:
	@DEBUG_VALUE: mbedtls_rsa_deduce_primes:E <- $r7
	@DEBUG_VALUE: mbedtls_rsa_deduce_primes:P <- $r3
	@DEBUG_VALUE: mbedtls_rsa_deduce_primes:D <- $r2
	@DEBUG_VALUE: mbedtls_rsa_deduce_primes:N <- $r0
	@DEBUG_VALUE: mbedtls_rsa_deduce_primes:Q <- [DW_OP_plus_uconst 64] [$sp+0]
	@DEBUG_VALUE: mbedtls_rsa_deduce_primes:ret <- 0
	@DEBUG_VALUE: mbedtls_rsa_deduce_primes:num_primes <- 54
	mov	r7, r6
.Ltmp9:
	b	.LBB0_8
.Ltmp10:
.LBB0_5:
	@DEBUG_VALUE: mbedtls_rsa_deduce_primes:E <- $r7
	@DEBUG_VALUE: mbedtls_rsa_deduce_primes:D <- $r5
	@DEBUG_VALUE: mbedtls_rsa_deduce_primes:P <- $r3
	@DEBUG_VALUE: mbedtls_rsa_deduce_primes:N <- $r0
	@DEBUG_VALUE: mbedtls_rsa_deduce_primes:Q <- [DW_OP_plus_uconst 64] [$sp+0]
	@DEBUG_VALUE: mbedtls_rsa_deduce_primes:ret <- 0
	@DEBUG_VALUE: mbedtls_rsa_deduce_primes:num_primes <- 54
	mov	r7, r6
.Ltmp11:
	b	.LBB0_8
.Ltmp12:
.LBB0_6:
	@DEBUG_VALUE: mbedtls_rsa_deduce_primes:E <- $r7
	@DEBUG_VALUE: mbedtls_rsa_deduce_primes:D <- $r5
	@DEBUG_VALUE: mbedtls_rsa_deduce_primes:P <- $r4
	@DEBUG_VALUE: mbedtls_rsa_deduce_primes:N <- $r0
	@DEBUG_VALUE: mbedtls_rsa_deduce_primes:Q <- [DW_OP_plus_uconst 64] [$sp+0]
	@DEBUG_VALUE: mbedtls_rsa_deduce_primes:ret <- 0
	@DEBUG_VALUE: mbedtls_rsa_deduce_primes:num_primes <- 54
	.loc	2 94 54                         @ ../../../ThirdParty/mbedTLS/library/rsa_internal.c:94:54
	ldr	r1, [r2, #8]
.Ltmp13:
	.loc	2 94 9                          @ ../../../ThirdParty/mbedTLS/library/rsa_internal.c:94:9
	cbz	r1, .LBB0_9
.Ltmp14:
@ %bb.7:
	@DEBUG_VALUE: mbedtls_rsa_deduce_primes:E <- $r7
	@DEBUG_VALUE: mbedtls_rsa_deduce_primes:D <- $r5
	@DEBUG_VALUE: mbedtls_rsa_deduce_primes:P <- $r4
	@DEBUG_VALUE: mbedtls_rsa_deduce_primes:N <- $r0
	@DEBUG_VALUE: mbedtls_rsa_deduce_primes:Q <- [DW_OP_plus_uconst 64] [$sp+0]
	@DEBUG_VALUE: mbedtls_rsa_deduce_primes:ret <- 0
	@DEBUG_VALUE: mbedtls_rsa_deduce_primes:num_primes <- 54
	.loc	2 0 0                           @ ../../../ThirdParty/mbedTLS/library/rsa_internal.c:0:0
	mov	r7, r6
.Ltmp15:
.LBB0_8:
	@DEBUG_VALUE: mbedtls_rsa_deduce_primes:Q <- [DW_OP_plus_uconst 64] [$sp+0]
	@DEBUG_VALUE: mbedtls_rsa_deduce_primes:num_primes <- 54
	.loc	2 197 1 is_stmt 1               @ ../../../ThirdParty/mbedTLS/library/rsa_internal.c:197:1
	mov	r0, r7
	add	sp, #44
.Ltmp16:
	pop	{r4, r5, r6, r7, pc}
.Ltmp17:
.LBB0_9:
	@DEBUG_VALUE: mbedtls_rsa_deduce_primes:E <- $r7
	@DEBUG_VALUE: mbedtls_rsa_deduce_primes:D <- $r5
	@DEBUG_VALUE: mbedtls_rsa_deduce_primes:P <- $r4
	@DEBUG_VALUE: mbedtls_rsa_deduce_primes:N <- $r0
	@DEBUG_VALUE: mbedtls_rsa_deduce_primes:Q <- [DW_OP_plus_uconst 64] [$sp+0]
	@DEBUG_VALUE: mbedtls_rsa_deduce_primes:ret <- 0
	@DEBUG_VALUE: mbedtls_rsa_deduce_primes:num_primes <- 54
	.loc	2 0 1 is_stmt 0                 @ ../../../ThirdParty/mbedTLS/library/rsa_internal.c:0:1
	str	r2, [sp, #12]                   @ 4-byte Spill
	movs	r1, #0
	str	r0, [sp, #16]                   @ 4-byte Spill
.Ltmp18:
	.loc	2 97 9 is_stmt 1                @ ../../../ThirdParty/mbedTLS/library/rsa_internal.c:97:9
	bl	mbedtls_mpi_cmp_int
.Ltmp19:
	@DEBUG_VALUE: mbedtls_rsa_deduce_primes:N <- [DW_OP_LLVM_entry_value 1] $r0
	.loc	2 97 42 is_stmt 0               @ ../../../ThirdParty/mbedTLS/library/rsa_internal.c:97:42
	cmp	r0, #1
	blt	.LBB0_13
.Ltmp20:
@ %bb.10:
	@DEBUG_VALUE: mbedtls_rsa_deduce_primes:E <- $r7
	@DEBUG_VALUE: mbedtls_rsa_deduce_primes:D <- $r5
	@DEBUG_VALUE: mbedtls_rsa_deduce_primes:P <- $r4
	@DEBUG_VALUE: mbedtls_rsa_deduce_primes:Q <- [DW_OP_plus_uconst 64] [$sp+0]
	@DEBUG_VALUE: mbedtls_rsa_deduce_primes:N <- [DW_OP_LLVM_entry_value 1] $r0
	@DEBUG_VALUE: mbedtls_rsa_deduce_primes:ret <- 0
	@DEBUG_VALUE: mbedtls_rsa_deduce_primes:num_primes <- 54
	.loc	2 0 42                          @ ../../../ThirdParty/mbedTLS/library/rsa_internal.c:0:42
	movs	r1, #1
	.loc	2 98 13 is_stmt 1               @ ../../../ThirdParty/mbedTLS/library/rsa_internal.c:98:13
	mov	r0, r5
	bl	mbedtls_mpi_cmp_int
	.loc	2 98 46 is_stmt 0               @ ../../../ThirdParty/mbedTLS/library/rsa_internal.c:98:46
	cmp	r0, #1
	blt	.LBB0_14
.Ltmp21:
@ %bb.11:
	@DEBUG_VALUE: mbedtls_rsa_deduce_primes:E <- $r7
	@DEBUG_VALUE: mbedtls_rsa_deduce_primes:D <- $r5
	@DEBUG_VALUE: mbedtls_rsa_deduce_primes:P <- $r4
	@DEBUG_VALUE: mbedtls_rsa_deduce_primes:Q <- [DW_OP_plus_uconst 64] [$sp+0]
	@DEBUG_VALUE: mbedtls_rsa_deduce_primes:N <- [DW_OP_LLVM_entry_value 1] $r0
	@DEBUG_VALUE: mbedtls_rsa_deduce_primes:ret <- 0
	@DEBUG_VALUE: mbedtls_rsa_deduce_primes:num_primes <- 54
	.loc	2 99 13 is_stmt 1               @ ../../../ThirdParty/mbedTLS/library/rsa_internal.c:99:13
	mov	r0, r5
	ldr	r1, [sp, #16]                   @ 4-byte Reload
	bl	mbedtls_mpi_cmp_mpi
	.loc	2 99 46 is_stmt 0               @ ../../../ThirdParty/mbedTLS/library/rsa_internal.c:99:46
	cmp	r0, #0
	bmi	.LBB0_15
.Ltmp22:
@ %bb.12:
	@DEBUG_VALUE: mbedtls_rsa_deduce_primes:E <- $r7
	@DEBUG_VALUE: mbedtls_rsa_deduce_primes:D <- $r5
	@DEBUG_VALUE: mbedtls_rsa_deduce_primes:P <- $r4
	@DEBUG_VALUE: mbedtls_rsa_deduce_primes:Q <- [DW_OP_plus_uconst 64] [$sp+0]
	@DEBUG_VALUE: mbedtls_rsa_deduce_primes:N <- [DW_OP_LLVM_entry_value 1] $r0
	@DEBUG_VALUE: mbedtls_rsa_deduce_primes:ret <- 0
	@DEBUG_VALUE: mbedtls_rsa_deduce_primes:num_primes <- 54
	.loc	2 0 0                           @ ../../../ThirdParty/mbedTLS/library/rsa_internal.c:0:0
	mov	r7, r6
.Ltmp23:
	b	.LBB0_8
.Ltmp24:
.LBB0_13:
	@DEBUG_VALUE: mbedtls_rsa_deduce_primes:E <- $r7
	@DEBUG_VALUE: mbedtls_rsa_deduce_primes:D <- $r5
	@DEBUG_VALUE: mbedtls_rsa_deduce_primes:P <- $r4
	@DEBUG_VALUE: mbedtls_rsa_deduce_primes:Q <- [DW_OP_plus_uconst 64] [$sp+0]
	@DEBUG_VALUE: mbedtls_rsa_deduce_primes:N <- [DW_OP_LLVM_entry_value 1] $r0
	@DEBUG_VALUE: mbedtls_rsa_deduce_primes:ret <- 0
	@DEBUG_VALUE: mbedtls_rsa_deduce_primes:num_primes <- 54
	mov	r7, r6
.Ltmp25:
	b	.LBB0_8
.Ltmp26:
.LBB0_14:
	@DEBUG_VALUE: mbedtls_rsa_deduce_primes:E <- $r7
	@DEBUG_VALUE: mbedtls_rsa_deduce_primes:D <- $r5
	@DEBUG_VALUE: mbedtls_rsa_deduce_primes:P <- $r4
	@DEBUG_VALUE: mbedtls_rsa_deduce_primes:Q <- [DW_OP_plus_uconst 64] [$sp+0]
	@DEBUG_VALUE: mbedtls_rsa_deduce_primes:N <- [DW_OP_LLVM_entry_value 1] $r0
	@DEBUG_VALUE: mbedtls_rsa_deduce_primes:ret <- 0
	@DEBUG_VALUE: mbedtls_rsa_deduce_primes:num_primes <- 54
	mov	r7, r6
.Ltmp27:
	b	.LBB0_8
.Ltmp28:
.LBB0_15:
	@DEBUG_VALUE: mbedtls_rsa_deduce_primes:E <- $r7
	@DEBUG_VALUE: mbedtls_rsa_deduce_primes:D <- $r5
	@DEBUG_VALUE: mbedtls_rsa_deduce_primes:P <- $r4
	@DEBUG_VALUE: mbedtls_rsa_deduce_primes:Q <- [DW_OP_plus_uconst 64] [$sp+0]
	@DEBUG_VALUE: mbedtls_rsa_deduce_primes:N <- [DW_OP_LLVM_entry_value 1] $r0
	@DEBUG_VALUE: mbedtls_rsa_deduce_primes:ret <- 0
	@DEBUG_VALUE: mbedtls_rsa_deduce_primes:num_primes <- 54
	movs	r1, #1
.Ltmp29:
	.loc	2 100 13 is_stmt 1              @ ../../../ThirdParty/mbedTLS/library/rsa_internal.c:100:13
	mov	r0, r7
	bl	mbedtls_mpi_cmp_int
	.loc	2 100 46 is_stmt 0              @ ../../../ThirdParty/mbedTLS/library/rsa_internal.c:100:46
	cmp	r0, #1
	blt	.LBB0_18
.Ltmp30:
@ %bb.16:
	@DEBUG_VALUE: mbedtls_rsa_deduce_primes:E <- $r7
	@DEBUG_VALUE: mbedtls_rsa_deduce_primes:D <- $r5
	@DEBUG_VALUE: mbedtls_rsa_deduce_primes:P <- $r4
	@DEBUG_VALUE: mbedtls_rsa_deduce_primes:Q <- [DW_OP_plus_uconst 64] [$sp+0]
	@DEBUG_VALUE: mbedtls_rsa_deduce_primes:N <- [DW_OP_LLVM_entry_value 1] $r0
	@DEBUG_VALUE: mbedtls_rsa_deduce_primes:ret <- 0
	@DEBUG_VALUE: mbedtls_rsa_deduce_primes:num_primes <- 54
	.loc	2 101 13 is_stmt 1              @ ../../../ThirdParty/mbedTLS/library/rsa_internal.c:101:13
	mov	r0, r7
	ldr	r1, [sp, #16]                   @ 4-byte Reload
	bl	mbedtls_mpi_cmp_mpi
.Ltmp31:
	.loc	2 97 9                          @ ../../../ThirdParty/mbedTLS/library/rsa_internal.c:97:9
	cmp	r0, #0
	bmi	.LBB0_19
.Ltmp32:
@ %bb.17:
	@DEBUG_VALUE: mbedtls_rsa_deduce_primes:E <- $r7
	@DEBUG_VALUE: mbedtls_rsa_deduce_primes:D <- $r5
	@DEBUG_VALUE: mbedtls_rsa_deduce_primes:P <- $r4
	@DEBUG_VALUE: mbedtls_rsa_deduce_primes:Q <- [DW_OP_plus_uconst 64] [$sp+0]
	@DEBUG_VALUE: mbedtls_rsa_deduce_primes:N <- [DW_OP_LLVM_entry_value 1] $r0
	@DEBUG_VALUE: mbedtls_rsa_deduce_primes:ret <- 0
	@DEBUG_VALUE: mbedtls_rsa_deduce_primes:num_primes <- 54
	.loc	2 0 0 is_stmt 0                 @ ../../../ThirdParty/mbedTLS/library/rsa_internal.c:0:0
	mov	r7, r6
.Ltmp33:
	b	.LBB0_8
.Ltmp34:
.LBB0_18:
	@DEBUG_VALUE: mbedtls_rsa_deduce_primes:E <- $r7
	@DEBUG_VALUE: mbedtls_rsa_deduce_primes:D <- $r5
	@DEBUG_VALUE: mbedtls_rsa_deduce_primes:P <- $r4
	@DEBUG_VALUE: mbedtls_rsa_deduce_primes:Q <- [DW_OP_plus_uconst 64] [$sp+0]
	@DEBUG_VALUE: mbedtls_rsa_deduce_primes:N <- [DW_OP_LLVM_entry_value 1] $r0
	@DEBUG_VALUE: mbedtls_rsa_deduce_primes:ret <- 0
	@DEBUG_VALUE: mbedtls_rsa_deduce_primes:num_primes <- 54
	mov	r7, r6
.Ltmp35:
	b	.LBB0_8
.Ltmp36:
.LBB0_19:
	@DEBUG_VALUE: mbedtls_rsa_deduce_primes:E <- $r7
	@DEBUG_VALUE: mbedtls_rsa_deduce_primes:D <- $r5
	@DEBUG_VALUE: mbedtls_rsa_deduce_primes:P <- $r4
	@DEBUG_VALUE: mbedtls_rsa_deduce_primes:Q <- [DW_OP_plus_uconst 64] [$sp+0]
	@DEBUG_VALUE: mbedtls_rsa_deduce_primes:N <- [DW_OP_LLVM_entry_value 1] $r0
	@DEBUG_VALUE: mbedtls_rsa_deduce_primes:ret <- 0
	@DEBUG_VALUE: mbedtls_rsa_deduce_primes:num_primes <- 54
	add	r0, sp, #20
	.loc	2 110 5 is_stmt 1               @ ../../../ThirdParty/mbedTLS/library/rsa_internal.c:110:5
	bl	mbedtls_mpi_init
	add	r0, sp, #32
	.loc	2 111 5                         @ ../../../ThirdParty/mbedTLS/library/rsa_internal.c:111:5
	str	r0, [sp, #8]                    @ 4-byte Spill
	bl	mbedtls_mpi_init
.Ltmp37:
	.loc	2 114 5                         @ ../../../ThirdParty/mbedTLS/library/rsa_internal.c:114:5
	ldr	r0, [sp, #8]                    @ 4-byte Reload
	mov	r1, r5
	mov	r2, r7
	bl	mbedtls_mpi_mul_mpi
	mov	r7, r0
.Ltmp38:
	@DEBUG_VALUE: mbedtls_rsa_deduce_primes:ret <- $r7
	.loc	2 114 5 is_stmt 0               @ ../../../ThirdParty/mbedTLS/library/rsa_internal.c:114:5
	cbnz	r0, .LBB0_21
.Ltmp39:
@ %bb.20:
	@DEBUG_VALUE: mbedtls_rsa_deduce_primes:ret <- $r7
	@DEBUG_VALUE: mbedtls_rsa_deduce_primes:D <- $r5
	@DEBUG_VALUE: mbedtls_rsa_deduce_primes:P <- $r4
	@DEBUG_VALUE: mbedtls_rsa_deduce_primes:Q <- [DW_OP_plus_uconst 64] [$sp+0]
	@DEBUG_VALUE: mbedtls_rsa_deduce_primes:N <- [DW_OP_LLVM_entry_value 1] $r0
	@DEBUG_VALUE: mbedtls_rsa_deduce_primes:num_primes <- 54
	.loc	2 0 5                           @ ../../../ThirdParty/mbedTLS/library/rsa_internal.c:0:5
	add	r0, sp, #32
	movs	r2, #1
.Ltmp40:
	.loc	2 115 5 is_stmt 1               @ ../../../ThirdParty/mbedTLS/library/rsa_internal.c:115:5
	mov	r1, r0
	bl	mbedtls_mpi_sub_int
	mov	r7, r0
.Ltmp41:
	@DEBUG_VALUE: mbedtls_rsa_deduce_primes:ret <- $r7
	.loc	2 115 5 is_stmt 0               @ ../../../ThirdParty/mbedTLS/library/rsa_internal.c:115:5
	cbz	r0, .LBB0_22
.Ltmp42:
.LBB0_21:
	@DEBUG_VALUE: mbedtls_rsa_deduce_primes:P <- $r4
	@DEBUG_VALUE: mbedtls_rsa_deduce_primes:Q <- [DW_OP_plus_uconst 64] [$sp+0]
	@DEBUG_VALUE: mbedtls_rsa_deduce_primes:N <- [DW_OP_LLVM_entry_value 1] $r0
	@DEBUG_VALUE: mbedtls_rsa_deduce_primes:num_primes <- 54
	@DEBUG_VALUE: mbedtls_rsa_deduce_primes:ret <- $r7
	@DEBUG_LABEL: mbedtls_rsa_deduce_primes:cleanup
	.loc	2 0 5                           @ ../../../ThirdParty/mbedTLS/library/rsa_internal.c:0:5
	add	r0, sp, #20
	.loc	2 194 5 is_stmt 1               @ ../../../ThirdParty/mbedTLS/library/rsa_internal.c:194:5
	bl	mbedtls_mpi_free
	add	r0, sp, #32
	.loc	2 195 5                         @ ../../../ThirdParty/mbedTLS/library/rsa_internal.c:195:5
	bl	mbedtls_mpi_free
	b	.LBB0_8
.Ltmp43:
.LBB0_22:
	@DEBUG_VALUE: mbedtls_rsa_deduce_primes:ret <- $r7
	@DEBUG_VALUE: mbedtls_rsa_deduce_primes:D <- $r5
	@DEBUG_VALUE: mbedtls_rsa_deduce_primes:P <- $r4
	@DEBUG_VALUE: mbedtls_rsa_deduce_primes:Q <- [DW_OP_plus_uconst 64] [$sp+0]
	@DEBUG_VALUE: mbedtls_rsa_deduce_primes:N <- [DW_OP_LLVM_entry_value 1] $r0
	@DEBUG_VALUE: mbedtls_rsa_deduce_primes:num_primes <- 54
	.loc	2 0 5 is_stmt 0                 @ ../../../ThirdParty/mbedTLS/library/rsa_internal.c:0:5
	add	r0, sp, #32
.Ltmp44:
	.loc	2 117 30 is_stmt 1              @ ../../../ThirdParty/mbedTLS/library/rsa_internal.c:117:30
	bl	mbedtls_mpi_lsb
.Ltmp45:
	@DEBUG_VALUE: mbedtls_rsa_deduce_primes:order <- $r0
	.loc	2 117 9 is_stmt 0               @ ../../../ThirdParty/mbedTLS/library/rsa_internal.c:117:9
	uxth	r5, r0
.Ltmp46:
	@DEBUG_VALUE: mbedtls_rsa_deduce_primes:D <- [DW_OP_LLVM_entry_value 1] $r2
	.loc	2 117 9                         @ ../../../ThirdParty/mbedTLS/library/rsa_internal.c:117:9
	cmp	r5, #0
	beq	.LBB0_39
.Ltmp47:
@ %bb.23:
	@DEBUG_VALUE: mbedtls_rsa_deduce_primes:ret <- $r7
	@DEBUG_VALUE: mbedtls_rsa_deduce_primes:P <- $r4
	@DEBUG_VALUE: mbedtls_rsa_deduce_primes:order <- $r0
	@DEBUG_VALUE: mbedtls_rsa_deduce_primes:Q <- [DW_OP_plus_uconst 64] [$sp+0]
	@DEBUG_VALUE: mbedtls_rsa_deduce_primes:D <- [DW_OP_LLVM_entry_value 1] $r2
	@DEBUG_VALUE: mbedtls_rsa_deduce_primes:N <- [DW_OP_LLVM_entry_value 1] $r0
	@DEBUG_VALUE: mbedtls_rsa_deduce_primes:num_primes <- 54
	.loc	2 0 9                           @ ../../../ThirdParty/mbedTLS/library/rsa_internal.c:0:9
	add	r0, sp, #32
.Ltmp48:
	.loc	2 124 5 is_stmt 1               @ ../../../ThirdParty/mbedTLS/library/rsa_internal.c:124:5
	mov	r1, r5
	bl	mbedtls_mpi_shift_r
	mov	r7, r0
.Ltmp49:
	@DEBUG_VALUE: mbedtls_rsa_deduce_primes:ret <- $r7
	.loc	2 124 5 is_stmt 0               @ ../../../ThirdParty/mbedTLS/library/rsa_internal.c:124:5
	cmp	r0, #0
	bne	.LBB0_21
.Ltmp50:
@ %bb.24:
	@DEBUG_VALUE: mbedtls_rsa_deduce_primes:ret <- $r7
	@DEBUG_VALUE: mbedtls_rsa_deduce_primes:P <- $r4
	@DEBUG_VALUE: mbedtls_rsa_deduce_primes:Q <- [DW_OP_plus_uconst 64] [$sp+0]
	@DEBUG_VALUE: mbedtls_rsa_deduce_primes:D <- [DW_OP_LLVM_entry_value 1] $r2
	@DEBUG_VALUE: mbedtls_rsa_deduce_primes:N <- [DW_OP_LLVM_entry_value 1] $r0
	@DEBUG_VALUE: mbedtls_rsa_deduce_primes:num_primes <- 54
	@DEBUG_VALUE: mbedtls_rsa_deduce_primes:attempt <- 0
	.loc	2 0 5                           @ ../../../ThirdParty/mbedTLS/library/rsa_internal.c:0:5
	str	r5, [sp, #4]                    @ 4-byte Spill
.Ltmp51:
	.loc	2 132 12 is_stmt 1              @ ../../../ThirdParty/mbedTLS/library/rsa_internal.c:132:12
	ldr	r0, [sp, #16]                   @ 4-byte Reload
	ldr	r0, [r0, #8]
	.loc	2 132 9 is_stmt 0               @ ../../../ThirdParty/mbedTLS/library/rsa_internal.c:132:9
	ldr	r0, [r0]
	movs	r1, #7
	.loc	2 132 17                        @ ../../../ThirdParty/mbedTLS/library/rsa_internal.c:132:17
	ands	r1, r0
	.loc	2 132 21                        @ ../../../ThirdParty/mbedTLS/library/rsa_internal.c:132:21
	subs	r0, r1, #1
	rsbs	r1, r0, #0
	adcs	r1, r0
.Ltmp52:
	@DEBUG_VALUE: mbedtls_rsa_deduce_primes:attempt <- [DW_OP_LLVM_convert 1 7, DW_OP_LLVM_convert 16 7, DW_OP_stack_value] $r1
	.loc	2 0 21                          @ ../../../ThirdParty/mbedTLS/library/rsa_internal.c:0:21
	b	.LBB0_27
.Ltmp53:
.LBB0_25:                               @   in Loop: Header=BB0_27 Depth=1
	@DEBUG_VALUE: mbedtls_rsa_deduce_primes:iter <- $r5
	@DEBUG_VALUE: mbedtls_rsa_deduce_primes:P <- $r4
	@DEBUG_VALUE: mbedtls_rsa_deduce_primes:attempt <- [DW_OP_plus_uconst 8] [$sp+0]
	@DEBUG_VALUE: mbedtls_rsa_deduce_primes:Q <- [DW_OP_plus_uconst 64] [$sp+0]
	@DEBUG_VALUE: mbedtls_rsa_deduce_primes:D <- [DW_OP_LLVM_entry_value 1] $r2
	@DEBUG_VALUE: mbedtls_rsa_deduce_primes:N <- [DW_OP_LLVM_entry_value 1] $r0
	@DEBUG_VALUE: mbedtls_rsa_deduce_primes:num_primes <- 54
	add	r0, sp, #20
	movs	r1, #1
.Ltmp54:
	.loc	2 184 13 is_stmt 1              @ ../../../ThirdParty/mbedTLS/library/rsa_internal.c:184:13
	bl	mbedtls_mpi_cmp_int
.Ltmp55:
	.loc	2 184 13 is_stmt 0              @ ../../../ThirdParty/mbedTLS/library/rsa_internal.c:184:13
	cmp	r0, #0
	bne	.LBB0_39
.Ltmp56:
.LBB0_26:                               @   in Loop: Header=BB0_27 Depth=1
	@DEBUG_VALUE: mbedtls_rsa_deduce_primes:P <- $r4
	@DEBUG_VALUE: mbedtls_rsa_deduce_primes:attempt <- [DW_OP_plus_uconst 8] [$sp+0]
	@DEBUG_VALUE: mbedtls_rsa_deduce_primes:Q <- [DW_OP_plus_uconst 64] [$sp+0]
	@DEBUG_VALUE: mbedtls_rsa_deduce_primes:D <- [DW_OP_LLVM_entry_value 1] $r2
	@DEBUG_VALUE: mbedtls_rsa_deduce_primes:N <- [DW_OP_LLVM_entry_value 1] $r0
	@DEBUG_VALUE: mbedtls_rsa_deduce_primes:num_primes <- 54
	.loc	2 0 13                          @ ../../../ThirdParty/mbedTLS/library/rsa_internal.c:0:13
	ldr	r1, [sp, #8]                    @ 4-byte Reload
	.loc	2 135 34 is_stmt 1              @ ../../../ThirdParty/mbedTLS/library/rsa_internal.c:135:34
	adds	r1, r1, #1
.Ltmp57:
	@DEBUG_VALUE: mbedtls_rsa_deduce_primes:attempt <- $r1
	.loc	2 135 5 is_stmt 0               @ ../../../ThirdParty/mbedTLS/library/rsa_internal.c:135:5
	cmp	r1, #54
	beq	.LBB0_39
.Ltmp58:
.LBB0_27:                               @ =>This Loop Header: Depth=1
                                        @     Child Loop BB0_30 Depth 2
	@DEBUG_VALUE: mbedtls_rsa_deduce_primes:P <- $r4
	@DEBUG_VALUE: mbedtls_rsa_deduce_primes:Q <- [DW_OP_plus_uconst 64] [$sp+0]
	@DEBUG_VALUE: mbedtls_rsa_deduce_primes:D <- [DW_OP_LLVM_entry_value 1] $r2
	@DEBUG_VALUE: mbedtls_rsa_deduce_primes:N <- [DW_OP_LLVM_entry_value 1] $r0
	@DEBUG_VALUE: mbedtls_rsa_deduce_primes:num_primes <- 54
	@DEBUG_VALUE: mbedtls_rsa_deduce_primes:attempt <- $r1
	.loc	2 0 5                           @ ../../../ThirdParty/mbedTLS/library/rsa_internal.c:0:5
	str	r1, [sp, #8]                    @ 4-byte Spill
.Ltmp59:
	@DEBUG_VALUE: mbedtls_rsa_deduce_primes:attempt <- [DW_OP_plus_uconst 8] [$sp+0]
	.loc	2 137 31 is_stmt 1              @ ../../../ThirdParty/mbedTLS/library/rsa_internal.c:137:31
	adr	r0, .LCPI0_0
	ldrb	r1, [r0, r1]
	add	r5, sp, #20
	.loc	2 137 9 is_stmt 0               @ ../../../ThirdParty/mbedTLS/library/rsa_internal.c:137:9
	mov	r0, r5
	bl	mbedtls_mpi_lset
.Ltmp60:
	.loc	2 140 9 is_stmt 1               @ ../../../ThirdParty/mbedTLS/library/rsa_internal.c:140:9
	mov	r0, r4
	mov	r1, r5
	ldr	r2, [sp, #16]                   @ 4-byte Reload
	bl	mbedtls_mpi_gcd
.Ltmp61:
	@DEBUG_VALUE: mbedtls_rsa_deduce_primes:ret <- $r0
	.loc	2 140 9 is_stmt 0               @ ../../../ThirdParty/mbedTLS/library/rsa_internal.c:140:9
	cmp	r0, #0
	bne	.LBB0_41
.Ltmp62:
@ %bb.28:                               @   in Loop: Header=BB0_27 Depth=1
	@DEBUG_VALUE: mbedtls_rsa_deduce_primes:P <- $r4
	@DEBUG_VALUE: mbedtls_rsa_deduce_primes:ret <- $r0
	@DEBUG_VALUE: mbedtls_rsa_deduce_primes:attempt <- [DW_OP_plus_uconst 8] [$sp+0]
	@DEBUG_VALUE: mbedtls_rsa_deduce_primes:Q <- [DW_OP_plus_uconst 64] [$sp+0]
	@DEBUG_VALUE: mbedtls_rsa_deduce_primes:D <- [DW_OP_LLVM_entry_value 1] $r2
	@DEBUG_VALUE: mbedtls_rsa_deduce_primes:N <- [DW_OP_LLVM_entry_value 1] $r0
	@DEBUG_VALUE: mbedtls_rsa_deduce_primes:num_primes <- 54
	.loc	2 0 9                           @ ../../../ThirdParty/mbedTLS/library/rsa_internal.c:0:9
	movs	r5, #1
.Ltmp63:
	.loc	2 141 13 is_stmt 1              @ ../../../ThirdParty/mbedTLS/library/rsa_internal.c:141:13
	mov	r0, r4
.Ltmp64:
	mov	r1, r5
	bl	mbedtls_mpi_cmp_int
.Ltmp65:
	.loc	2 141 13 is_stmt 0              @ ../../../ThirdParty/mbedTLS/library/rsa_internal.c:141:13
	cmp	r0, #0
	bne	.LBB0_26
.Ltmp66:
@ %bb.29:                               @   in Loop: Header=BB0_27 Depth=1
	@DEBUG_VALUE: mbedtls_rsa_deduce_primes:P <- $r4
	@DEBUG_VALUE: mbedtls_rsa_deduce_primes:attempt <- [DW_OP_plus_uconst 8] [$sp+0]
	@DEBUG_VALUE: mbedtls_rsa_deduce_primes:Q <- [DW_OP_plus_uconst 64] [$sp+0]
	@DEBUG_VALUE: mbedtls_rsa_deduce_primes:D <- [DW_OP_LLVM_entry_value 1] $r2
	@DEBUG_VALUE: mbedtls_rsa_deduce_primes:N <- [DW_OP_LLVM_entry_value 1] $r0
	@DEBUG_VALUE: mbedtls_rsa_deduce_primes:num_primes <- 54
	.loc	2 146 9 is_stmt 1               @ ../../../ThirdParty/mbedTLS/library/rsa_internal.c:146:9
	ldr	r0, [sp, #12]                   @ 4-byte Reload
	str	r0, [sp]
	add	r0, sp, #20
	add	r2, sp, #32
	mov	r1, r0
	ldr	r3, [sp, #16]                   @ 4-byte Reload
	bl	mbedtls_mpi_exp_mod
.Ltmp67:
	@DEBUG_VALUE: mbedtls_rsa_deduce_primes:ret <- $r0
	.loc	2 146 9 is_stmt 0               @ ../../../ThirdParty/mbedTLS/library/rsa_internal.c:146:9
	cmp	r0, #0
	bne	.LBB0_41
.Ltmp68:
.LBB0_30:                               @   Parent Loop BB0_27 Depth=1
                                        @ =>  This Inner Loop Header: Depth=2
	@DEBUG_VALUE: mbedtls_rsa_deduce_primes:P <- $r4
	@DEBUG_VALUE: mbedtls_rsa_deduce_primes:attempt <- [DW_OP_plus_uconst 8] [$sp+0]
	@DEBUG_VALUE: mbedtls_rsa_deduce_primes:Q <- [DW_OP_plus_uconst 64] [$sp+0]
	@DEBUG_VALUE: mbedtls_rsa_deduce_primes:D <- [DW_OP_LLVM_entry_value 1] $r2
	@DEBUG_VALUE: mbedtls_rsa_deduce_primes:N <- [DW_OP_LLVM_entry_value 1] $r0
	@DEBUG_VALUE: mbedtls_rsa_deduce_primes:num_primes <- 54
	@DEBUG_VALUE: mbedtls_rsa_deduce_primes:iter <- $r5
	.loc	2 0 9                           @ ../../../ThirdParty/mbedTLS/library/rsa_internal.c:0:9
	add	r0, sp, #20
	movs	r1, #1
.Ltmp69:
	.loc	2 154 17 is_stmt 1              @ ../../../ThirdParty/mbedTLS/library/rsa_internal.c:154:17
	bl	mbedtls_mpi_cmp_int
.Ltmp70:
	.loc	2 154 17 is_stmt 0              @ ../../../ThirdParty/mbedTLS/library/rsa_internal.c:154:17
	cmp	r0, #0
	beq	.LBB0_25
.Ltmp71:
@ %bb.31:                               @   in Loop: Header=BB0_30 Depth=2
	@DEBUG_VALUE: mbedtls_rsa_deduce_primes:iter <- $r5
	@DEBUG_VALUE: mbedtls_rsa_deduce_primes:P <- $r4
	@DEBUG_VALUE: mbedtls_rsa_deduce_primes:attempt <- [DW_OP_plus_uconst 8] [$sp+0]
	@DEBUG_VALUE: mbedtls_rsa_deduce_primes:Q <- [DW_OP_plus_uconst 64] [$sp+0]
	@DEBUG_VALUE: mbedtls_rsa_deduce_primes:D <- [DW_OP_LLVM_entry_value 1] $r2
	@DEBUG_VALUE: mbedtls_rsa_deduce_primes:N <- [DW_OP_LLVM_entry_value 1] $r0
	@DEBUG_VALUE: mbedtls_rsa_deduce_primes:num_primes <- 54
	.loc	2 0 17                          @ ../../../ThirdParty/mbedTLS/library/rsa_internal.c:0:17
	add	r0, sp, #20
	movs	r2, #1
.Ltmp72:
	.loc	2 157 13 is_stmt 1              @ ../../../ThirdParty/mbedTLS/library/rsa_internal.c:157:13
	mov	r1, r0
	bl	mbedtls_mpi_add_int
.Ltmp73:
	@DEBUG_VALUE: mbedtls_rsa_deduce_primes:ret <- $r0
	.loc	2 157 13 is_stmt 0              @ ../../../ThirdParty/mbedTLS/library/rsa_internal.c:157:13
	cbnz	r0, .LBB0_41
.Ltmp74:
@ %bb.32:                               @   in Loop: Header=BB0_30 Depth=2
	@DEBUG_VALUE: mbedtls_rsa_deduce_primes:iter <- $r5
	@DEBUG_VALUE: mbedtls_rsa_deduce_primes:P <- $r4
	@DEBUG_VALUE: mbedtls_rsa_deduce_primes:ret <- $r0
	@DEBUG_VALUE: mbedtls_rsa_deduce_primes:attempt <- [DW_OP_plus_uconst 8] [$sp+0]
	@DEBUG_VALUE: mbedtls_rsa_deduce_primes:Q <- [DW_OP_plus_uconst 64] [$sp+0]
	@DEBUG_VALUE: mbedtls_rsa_deduce_primes:D <- [DW_OP_LLVM_entry_value 1] $r2
	@DEBUG_VALUE: mbedtls_rsa_deduce_primes:N <- [DW_OP_LLVM_entry_value 1] $r0
	@DEBUG_VALUE: mbedtls_rsa_deduce_primes:num_primes <- 54
	.loc	2 0 13                          @ ../../../ThirdParty/mbedTLS/library/rsa_internal.c:0:13
	add	r1, sp, #20
.Ltmp75:
	.loc	2 158 13 is_stmt 1              @ ../../../ThirdParty/mbedTLS/library/rsa_internal.c:158:13
	mov	r0, r4
.Ltmp76:
	ldr	r2, [sp, #16]                   @ 4-byte Reload
	bl	mbedtls_mpi_gcd
.Ltmp77:
	@DEBUG_VALUE: mbedtls_rsa_deduce_primes:ret <- $r0
	.loc	2 158 13 is_stmt 0              @ ../../../ThirdParty/mbedTLS/library/rsa_internal.c:158:13
	cbnz	r0, .LBB0_41
.Ltmp78:
@ %bb.33:                               @   in Loop: Header=BB0_30 Depth=2
	@DEBUG_VALUE: mbedtls_rsa_deduce_primes:iter <- $r5
	@DEBUG_VALUE: mbedtls_rsa_deduce_primes:P <- $r4
	@DEBUG_VALUE: mbedtls_rsa_deduce_primes:ret <- $r0
	@DEBUG_VALUE: mbedtls_rsa_deduce_primes:attempt <- [DW_OP_plus_uconst 8] [$sp+0]
	@DEBUG_VALUE: mbedtls_rsa_deduce_primes:Q <- [DW_OP_plus_uconst 64] [$sp+0]
	@DEBUG_VALUE: mbedtls_rsa_deduce_primes:D <- [DW_OP_LLVM_entry_value 1] $r2
	@DEBUG_VALUE: mbedtls_rsa_deduce_primes:N <- [DW_OP_LLVM_entry_value 1] $r0
	@DEBUG_VALUE: mbedtls_rsa_deduce_primes:num_primes <- 54
	.loc	2 0 13                          @ ../../../ThirdParty/mbedTLS/library/rsa_internal.c:0:13
	movs	r1, #1
.Ltmp79:
	.loc	2 160 17 is_stmt 1              @ ../../../ThirdParty/mbedTLS/library/rsa_internal.c:160:17
	mov	r0, r4
.Ltmp80:
	bl	mbedtls_mpi_cmp_int
	.loc	2 160 51 is_stmt 0              @ ../../../ThirdParty/mbedTLS/library/rsa_internal.c:160:51
	cmp	r0, #1
	bne	.LBB0_35
.Ltmp81:
@ %bb.34:                               @   in Loop: Header=BB0_30 Depth=2
	@DEBUG_VALUE: mbedtls_rsa_deduce_primes:iter <- $r5
	@DEBUG_VALUE: mbedtls_rsa_deduce_primes:P <- $r4
	@DEBUG_VALUE: mbedtls_rsa_deduce_primes:attempt <- [DW_OP_plus_uconst 8] [$sp+0]
	@DEBUG_VALUE: mbedtls_rsa_deduce_primes:Q <- [DW_OP_plus_uconst 64] [$sp+0]
	@DEBUG_VALUE: mbedtls_rsa_deduce_primes:D <- [DW_OP_LLVM_entry_value 1] $r2
	@DEBUG_VALUE: mbedtls_rsa_deduce_primes:N <- [DW_OP_LLVM_entry_value 1] $r0
	@DEBUG_VALUE: mbedtls_rsa_deduce_primes:num_primes <- 54
	.loc	2 161 21 is_stmt 1              @ ../../../ThirdParty/mbedTLS/library/rsa_internal.c:161:21
	mov	r0, r4
	ldr	r1, [sp, #16]                   @ 4-byte Reload
	bl	mbedtls_mpi_cmp_mpi
.Ltmp82:
	.loc	2 160 17                        @ ../../../ThirdParty/mbedTLS/library/rsa_internal.c:160:17
	adds	r0, r0, #1
	beq	.LBB0_40
.Ltmp83:
.LBB0_35:                               @   in Loop: Header=BB0_30 Depth=2
	@DEBUG_VALUE: mbedtls_rsa_deduce_primes:iter <- $r5
	@DEBUG_VALUE: mbedtls_rsa_deduce_primes:P <- $r4
	@DEBUG_VALUE: mbedtls_rsa_deduce_primes:attempt <- [DW_OP_plus_uconst 8] [$sp+0]
	@DEBUG_VALUE: mbedtls_rsa_deduce_primes:Q <- [DW_OP_plus_uconst 64] [$sp+0]
	@DEBUG_VALUE: mbedtls_rsa_deduce_primes:D <- [DW_OP_LLVM_entry_value 1] $r2
	@DEBUG_VALUE: mbedtls_rsa_deduce_primes:N <- [DW_OP_LLVM_entry_value 1] $r0
	@DEBUG_VALUE: mbedtls_rsa_deduce_primes:num_primes <- 54
	.loc	2 0 17 is_stmt 0                @ ../../../ThirdParty/mbedTLS/library/rsa_internal.c:0:17
	add	r0, sp, #20
	movs	r2, #1
.Ltmp84:
	.loc	2 172 13 is_stmt 1              @ ../../../ThirdParty/mbedTLS/library/rsa_internal.c:172:13
	mov	r1, r0
	bl	mbedtls_mpi_sub_int
.Ltmp85:
	@DEBUG_VALUE: mbedtls_rsa_deduce_primes:ret <- $r0
	.loc	2 172 13 is_stmt 0              @ ../../../ThirdParty/mbedTLS/library/rsa_internal.c:172:13
	cbnz	r0, .LBB0_41
.Ltmp86:
@ %bb.36:                               @   in Loop: Header=BB0_30 Depth=2
	@DEBUG_VALUE: mbedtls_rsa_deduce_primes:iter <- $r5
	@DEBUG_VALUE: mbedtls_rsa_deduce_primes:P <- $r4
	@DEBUG_VALUE: mbedtls_rsa_deduce_primes:ret <- $r0
	@DEBUG_VALUE: mbedtls_rsa_deduce_primes:attempt <- [DW_OP_plus_uconst 8] [$sp+0]
	@DEBUG_VALUE: mbedtls_rsa_deduce_primes:Q <- [DW_OP_plus_uconst 64] [$sp+0]
	@DEBUG_VALUE: mbedtls_rsa_deduce_primes:D <- [DW_OP_LLVM_entry_value 1] $r2
	@DEBUG_VALUE: mbedtls_rsa_deduce_primes:N <- [DW_OP_LLVM_entry_value 1] $r0
	@DEBUG_VALUE: mbedtls_rsa_deduce_primes:num_primes <- 54
	.loc	2 0 13                          @ ../../../ThirdParty/mbedTLS/library/rsa_internal.c:0:13
	add	r0, sp, #20
.Ltmp87:
	.loc	2 173 13 is_stmt 1              @ ../../../ThirdParty/mbedTLS/library/rsa_internal.c:173:13
	mov	r1, r0
	mov	r2, r0
	bl	mbedtls_mpi_mul_mpi
.Ltmp88:
	@DEBUG_VALUE: mbedtls_rsa_deduce_primes:ret <- $r0
	.loc	2 173 13 is_stmt 0              @ ../../../ThirdParty/mbedTLS/library/rsa_internal.c:173:13
	cbnz	r0, .LBB0_41
.Ltmp89:
@ %bb.37:                               @   in Loop: Header=BB0_30 Depth=2
	@DEBUG_VALUE: mbedtls_rsa_deduce_primes:iter <- $r5
	@DEBUG_VALUE: mbedtls_rsa_deduce_primes:P <- $r4
	@DEBUG_VALUE: mbedtls_rsa_deduce_primes:ret <- $r0
	@DEBUG_VALUE: mbedtls_rsa_deduce_primes:attempt <- [DW_OP_plus_uconst 8] [$sp+0]
	@DEBUG_VALUE: mbedtls_rsa_deduce_primes:Q <- [DW_OP_plus_uconst 64] [$sp+0]
	@DEBUG_VALUE: mbedtls_rsa_deduce_primes:D <- [DW_OP_LLVM_entry_value 1] $r2
	@DEBUG_VALUE: mbedtls_rsa_deduce_primes:N <- [DW_OP_LLVM_entry_value 1] $r0
	@DEBUG_VALUE: mbedtls_rsa_deduce_primes:num_primes <- 54
	.loc	2 0 13                          @ ../../../ThirdParty/mbedTLS/library/rsa_internal.c:0:13
	add	r0, sp, #20
.Ltmp90:
	.loc	2 174 13 is_stmt 1              @ ../../../ThirdParty/mbedTLS/library/rsa_internal.c:174:13
	mov	r1, r0
	ldr	r2, [sp, #16]                   @ 4-byte Reload
	bl	mbedtls_mpi_mod_mpi
.Ltmp91:
	@DEBUG_VALUE: mbedtls_rsa_deduce_primes:iter <- undef
	@DEBUG_VALUE: mbedtls_rsa_deduce_primes:ret <- $r0
	.loc	2 174 13 is_stmt 0              @ ../../../ThirdParty/mbedTLS/library/rsa_internal.c:174:13
	cbnz	r0, .LBB0_41
.Ltmp92:
@ %bb.38:                               @   in Loop: Header=BB0_30 Depth=2
	@DEBUG_VALUE: mbedtls_rsa_deduce_primes:P <- $r4
	@DEBUG_VALUE: mbedtls_rsa_deduce_primes:ret <- $r0
	@DEBUG_VALUE: mbedtls_rsa_deduce_primes:attempt <- [DW_OP_plus_uconst 8] [$sp+0]
	@DEBUG_VALUE: mbedtls_rsa_deduce_primes:Q <- [DW_OP_plus_uconst 64] [$sp+0]
	@DEBUG_VALUE: mbedtls_rsa_deduce_primes:D <- [DW_OP_LLVM_entry_value 1] $r2
	@DEBUG_VALUE: mbedtls_rsa_deduce_primes:N <- [DW_OP_LLVM_entry_value 1] $r0
	@DEBUG_VALUE: mbedtls_rsa_deduce_primes:num_primes <- 54
	.loc	2 0 13                          @ ../../../ThirdParty/mbedTLS/library/rsa_internal.c:0:13
	mov	r0, r5
.Ltmp93:
	adds	r0, r5, #1
.Ltmp94:
	@DEBUG_VALUE: mbedtls_rsa_deduce_primes:iter <- $r0
	mov	r5, r0
.Ltmp95:
	@DEBUG_VALUE: mbedtls_rsa_deduce_primes:iter <- $r5
	.loc	2 150 24 is_stmt 1              @ ../../../ThirdParty/mbedTLS/library/rsa_internal.c:150:24
	uxth	r0, r0
.Ltmp96:
	.loc	2 150 9 is_stmt 0               @ ../../../ThirdParty/mbedTLS/library/rsa_internal.c:150:9
	ldr	r1, [sp, #4]                    @ 4-byte Reload
	cmp	r1, r0
	bhs	.LBB0_30
	b	.LBB0_25
.Ltmp97:
.LBB0_39:
	@DEBUG_VALUE: mbedtls_rsa_deduce_primes:P <- $r4
	@DEBUG_VALUE: mbedtls_rsa_deduce_primes:Q <- [DW_OP_plus_uconst 64] [$sp+0]
	@DEBUG_VALUE: mbedtls_rsa_deduce_primes:D <- [DW_OP_LLVM_entry_value 1] $r2
	@DEBUG_VALUE: mbedtls_rsa_deduce_primes:N <- [DW_OP_LLVM_entry_value 1] $r0
	@DEBUG_VALUE: mbedtls_rsa_deduce_primes:num_primes <- 54
	.loc	2 0 0                           @ ../../../ThirdParty/mbedTLS/library/rsa_internal.c:0:0
	mov	r7, r6
	b	.LBB0_21
.Ltmp98:
.LBB0_40:
	@DEBUG_VALUE: mbedtls_rsa_deduce_primes:iter <- $r5
	@DEBUG_VALUE: mbedtls_rsa_deduce_primes:P <- $r4
	@DEBUG_VALUE: mbedtls_rsa_deduce_primes:attempt <- [DW_OP_plus_uconst 8] [$sp+0]
	@DEBUG_VALUE: mbedtls_rsa_deduce_primes:Q <- [DW_OP_plus_uconst 64] [$sp+0]
	@DEBUG_VALUE: mbedtls_rsa_deduce_primes:D <- [DW_OP_LLVM_entry_value 1] $r2
	@DEBUG_VALUE: mbedtls_rsa_deduce_primes:N <- [DW_OP_LLVM_entry_value 1] $r0
	@DEBUG_VALUE: mbedtls_rsa_deduce_primes:num_primes <- 54
	movs	r1, #0
.Ltmp99:
	.loc	2 168 17 is_stmt 1              @ ../../../ThirdParty/mbedTLS/library/rsa_internal.c:168:17
	ldr	r0, [sp, #12]                   @ 4-byte Reload
	ldr	r2, [sp, #16]                   @ 4-byte Reload
	mov	r3, r4
	bl	mbedtls_mpi_div_mpi
.Ltmp100:
.LBB0_41:
	@DEBUG_VALUE: mbedtls_rsa_deduce_primes:P <- $r4
	@DEBUG_VALUE: mbedtls_rsa_deduce_primes:attempt <- [DW_OP_plus_uconst 8] [$sp+0]
	@DEBUG_VALUE: mbedtls_rsa_deduce_primes:Q <- [DW_OP_plus_uconst 64] [$sp+0]
	@DEBUG_VALUE: mbedtls_rsa_deduce_primes:D <- [DW_OP_LLVM_entry_value 1] $r2
	@DEBUG_VALUE: mbedtls_rsa_deduce_primes:N <- [DW_OP_LLVM_entry_value 1] $r0
	@DEBUG_VALUE: mbedtls_rsa_deduce_primes:num_primes <- 54
	.loc	2 0 17 is_stmt 0                @ ../../../ThirdParty/mbedTLS/library/rsa_internal.c:0:17
	mov	r7, r0
.Ltmp101:
	@DEBUG_VALUE: mbedtls_rsa_deduce_primes:ret <- $r7
	b	.LBB0_21
.Ltmp102:
	.p2align	2
@ %bb.42:
.LCPI0_0:
.L__const.mbedtls_rsa_deduce_primes.primes:
	.asciz	"\002\003\005\007\013\r\021\023\027\035\037%)+/5;=CGIOSYaegkmq\177\203\211\213\225\227\235\243\247\255\263\265\277\301\305\307\323\337\343\345\351\357\361\373\000"
.Lfunc_end0:
	.size	mbedtls_rsa_deduce_primes, .Lfunc_end0-mbedtls_rsa_deduce_primes
	.cfi_endproc
	.cantunwind
	.fnend
                                        @ -- End function
	.section	.text.mbedtls_rsa_deduce_private_exponent,"ax",%progbits
	.hidden	mbedtls_rsa_deduce_private_exponent @ -- Begin function mbedtls_rsa_deduce_private_exponent
	.globl	mbedtls_rsa_deduce_private_exponent
	.p2align	1
	.type	mbedtls_rsa_deduce_private_exponent,%function
	.code	16                              @ @mbedtls_rsa_deduce_private_exponent
	.thumb_func
mbedtls_rsa_deduce_private_exponent:
.Lfunc_begin1:
	.loc	2 207 0 is_stmt 1               @ ../../../ThirdParty/mbedTLS/library/rsa_internal.c:207:0
	.fnstart
	.cfi_startproc
@ %bb.0:
	@DEBUG_VALUE: mbedtls_rsa_deduce_private_exponent:P <- $r0
	@DEBUG_VALUE: mbedtls_rsa_deduce_private_exponent:Q <- $r1
	@DEBUG_VALUE: mbedtls_rsa_deduce_private_exponent:E <- $r2
	@DEBUG_VALUE: mbedtls_rsa_deduce_private_exponent:D <- $r3
	.save	{r4, r5, r6, r7, lr}
	push	{r4, r5, r6, r7, lr}
	.cfi_def_cfa_offset 20
	.cfi_offset lr, -4
	.cfi_offset r7, -8
	.cfi_offset r6, -12
	.cfi_offset r5, -16
	.cfi_offset r4, -20
	.pad	#28
	sub	sp, #28
	.cfi_def_cfa_offset 48
	mov	r4, r0
	movs	r0, #3
.Ltmp103:
	@DEBUG_VALUE: mbedtls_rsa_deduce_private_exponent:P <- [DW_OP_LLVM_entry_value 1] $r0
	mvns	r6, r0
.Ltmp104:
	@DEBUG_VALUE: mbedtls_rsa_deduce_private_exponent:ret <- 0
	@DEBUG_VALUE: mbedtls_rsa_deduce_private_exponent:D <- $r3
	@DEBUG_VALUE: mbedtls_rsa_deduce_private_exponent:E <- $r2
	@DEBUG_VALUE: mbedtls_rsa_deduce_private_exponent:Q <- $r1
	@DEBUG_VALUE: mbedtls_rsa_deduce_private_exponent:P <- $r4
	.loc	2 211 19 prologue_end           @ ../../../ThirdParty/mbedTLS/library/rsa_internal.c:211:19
	cbz	r3, .LBB1_2
.Ltmp105:
@ %bb.1:
	@DEBUG_VALUE: mbedtls_rsa_deduce_private_exponent:P <- $r4
	@DEBUG_VALUE: mbedtls_rsa_deduce_private_exponent:D <- $r3
	@DEBUG_VALUE: mbedtls_rsa_deduce_private_exponent:E <- $r2
	@DEBUG_VALUE: mbedtls_rsa_deduce_private_exponent:Q <- $r1
	@DEBUG_VALUE: mbedtls_rsa_deduce_private_exponent:ret <- 0
	.loc	2 0 19 is_stmt 0                @ ../../../ThirdParty/mbedTLS/library/rsa_internal.c:0:19
	mov	r5, r3
.Ltmp106:
	@DEBUG_VALUE: mbedtls_rsa_deduce_private_exponent:D <- $r5
	mov	r7, r1
.Ltmp107:
	@DEBUG_VALUE: mbedtls_rsa_deduce_private_exponent:Q <- $r7
	str	r2, [sp]                        @ 4-byte Spill
.Ltmp108:
	@DEBUG_VALUE: mbedtls_rsa_deduce_private_exponent:E <- [$sp+0]
	movs	r1, #0
	.loc	2 211 22                        @ ../../../ThirdParty/mbedTLS/library/rsa_internal.c:211:22
	mov	r0, r3
	bl	mbedtls_mpi_cmp_int
.Ltmp109:
	.loc	2 211 9                         @ ../../../ThirdParty/mbedTLS/library/rsa_internal.c:211:9
	cbz	r0, .LBB1_3
.Ltmp110:
.LBB1_2:
	@DEBUG_VALUE: mbedtls_rsa_deduce_private_exponent:P <- $r4
	.loc	2 244 1 is_stmt 1               @ ../../../ThirdParty/mbedTLS/library/rsa_internal.c:244:1
	mov	r0, r6
	add	sp, #28
	pop	{r4, r5, r6, r7, pc}
.Ltmp111:
.LBB1_3:
	@DEBUG_VALUE: mbedtls_rsa_deduce_private_exponent:E <- [$sp+0]
	@DEBUG_VALUE: mbedtls_rsa_deduce_private_exponent:Q <- $r7
	@DEBUG_VALUE: mbedtls_rsa_deduce_private_exponent:D <- $r5
	@DEBUG_VALUE: mbedtls_rsa_deduce_private_exponent:P <- $r4
	@DEBUG_VALUE: mbedtls_rsa_deduce_private_exponent:ret <- 0
	.loc	2 0 1 is_stmt 0                 @ ../../../ThirdParty/mbedTLS/library/rsa_internal.c:0:1
	movs	r1, #1
.Ltmp112:
	.loc	2 214 9 is_stmt 1               @ ../../../ThirdParty/mbedTLS/library/rsa_internal.c:214:9
	mov	r0, r4
	bl	mbedtls_mpi_cmp_int
	.loc	2 214 42 is_stmt 0              @ ../../../ThirdParty/mbedTLS/library/rsa_internal.c:214:42
	cmp	r0, #1
	blt	.LBB1_2
.Ltmp113:
@ %bb.4:
	@DEBUG_VALUE: mbedtls_rsa_deduce_private_exponent:E <- [$sp+0]
	@DEBUG_VALUE: mbedtls_rsa_deduce_private_exponent:Q <- $r7
	@DEBUG_VALUE: mbedtls_rsa_deduce_private_exponent:D <- $r5
	@DEBUG_VALUE: mbedtls_rsa_deduce_private_exponent:P <- $r4
	@DEBUG_VALUE: mbedtls_rsa_deduce_private_exponent:ret <- 0
	.loc	2 0 42                          @ ../../../ThirdParty/mbedTLS/library/rsa_internal.c:0:42
	movs	r1, #1
	.loc	2 215 13 is_stmt 1              @ ../../../ThirdParty/mbedTLS/library/rsa_internal.c:215:13
	mov	r0, r7
	bl	mbedtls_mpi_cmp_int
	.loc	2 215 46 is_stmt 0              @ ../../../ThirdParty/mbedTLS/library/rsa_internal.c:215:46
	cmp	r0, #1
	blt	.LBB1_2
.Ltmp114:
@ %bb.5:
	@DEBUG_VALUE: mbedtls_rsa_deduce_private_exponent:E <- [$sp+0]
	@DEBUG_VALUE: mbedtls_rsa_deduce_private_exponent:Q <- $r7
	@DEBUG_VALUE: mbedtls_rsa_deduce_private_exponent:D <- $r5
	@DEBUG_VALUE: mbedtls_rsa_deduce_private_exponent:P <- $r4
	@DEBUG_VALUE: mbedtls_rsa_deduce_private_exponent:ret <- 0
	.loc	2 0 46                          @ ../../../ThirdParty/mbedTLS/library/rsa_internal.c:0:46
	movs	r1, #0
	.loc	2 216 13 is_stmt 1              @ ../../../ThirdParty/mbedTLS/library/rsa_internal.c:216:13
	ldr	r0, [sp]                        @ 4-byte Reload
.Ltmp115:
	@DEBUG_VALUE: mbedtls_rsa_deduce_private_exponent:E <- $r0
	bl	mbedtls_mpi_cmp_int
.Ltmp116:
	@DEBUG_VALUE: mbedtls_rsa_deduce_private_exponent:E <- [DW_OP_LLVM_entry_value 1] $r2
	.loc	2 214 9                         @ ../../../ThirdParty/mbedTLS/library/rsa_internal.c:214:9
	cmp	r0, #0
	beq	.LBB1_2
.Ltmp117:
@ %bb.6:
	@DEBUG_VALUE: mbedtls_rsa_deduce_private_exponent:Q <- $r7
	@DEBUG_VALUE: mbedtls_rsa_deduce_private_exponent:D <- $r5
	@DEBUG_VALUE: mbedtls_rsa_deduce_private_exponent:P <- $r4
	@DEBUG_VALUE: mbedtls_rsa_deduce_private_exponent:E <- [DW_OP_LLVM_entry_value 1] $r2
	@DEBUG_VALUE: mbedtls_rsa_deduce_private_exponent:ret <- 0
	.loc	2 0 9 is_stmt 0                 @ ../../../ThirdParty/mbedTLS/library/rsa_internal.c:0:9
	add	r6, sp, #16
	.loc	2 221 5 is_stmt 1               @ ../../../ThirdParty/mbedTLS/library/rsa_internal.c:221:5
	mov	r0, r6
	bl	mbedtls_mpi_init
	add	r0, sp, #4
	.loc	2 222 5                         @ ../../../ThirdParty/mbedTLS/library/rsa_internal.c:222:5
	bl	mbedtls_mpi_init
	movs	r2, #1
.Ltmp118:
	.loc	2 225 5                         @ ../../../ThirdParty/mbedTLS/library/rsa_internal.c:225:5
	mov	r0, r6
	mov	r1, r4
	bl	mbedtls_mpi_sub_int
	mov	r6, r0
.Ltmp119:
	@DEBUG_VALUE: mbedtls_rsa_deduce_private_exponent:ret <- $r6
	.loc	2 225 5 is_stmt 0               @ ../../../ThirdParty/mbedTLS/library/rsa_internal.c:225:5
	cbnz	r0, .LBB1_12
.Ltmp120:
@ %bb.7:
	@DEBUG_VALUE: mbedtls_rsa_deduce_private_exponent:Q <- $r7
	@DEBUG_VALUE: mbedtls_rsa_deduce_private_exponent:ret <- $r6
	@DEBUG_VALUE: mbedtls_rsa_deduce_private_exponent:D <- $r5
	@DEBUG_VALUE: mbedtls_rsa_deduce_private_exponent:P <- $r4
	@DEBUG_VALUE: mbedtls_rsa_deduce_private_exponent:E <- [DW_OP_LLVM_entry_value 1] $r2
	.loc	2 0 5                           @ ../../../ThirdParty/mbedTLS/library/rsa_internal.c:0:5
	add	r0, sp, #4
	movs	r2, #1
.Ltmp121:
	.loc	2 226 5 is_stmt 1               @ ../../../ThirdParty/mbedTLS/library/rsa_internal.c:226:5
	mov	r1, r7
	bl	mbedtls_mpi_sub_int
	mov	r6, r0
.Ltmp122:
	@DEBUG_VALUE: mbedtls_rsa_deduce_private_exponent:ret <- $r6
	.loc	2 226 5 is_stmt 0               @ ../../../ThirdParty/mbedTLS/library/rsa_internal.c:226:5
	cbnz	r0, .LBB1_12
.Ltmp123:
@ %bb.8:
	@DEBUG_VALUE: mbedtls_rsa_deduce_private_exponent:Q <- $r7
	@DEBUG_VALUE: mbedtls_rsa_deduce_private_exponent:ret <- $r6
	@DEBUG_VALUE: mbedtls_rsa_deduce_private_exponent:D <- $r5
	@DEBUG_VALUE: mbedtls_rsa_deduce_private_exponent:P <- $r4
	@DEBUG_VALUE: mbedtls_rsa_deduce_private_exponent:E <- [DW_OP_LLVM_entry_value 1] $r2
	.loc	2 0 5                           @ ../../../ThirdParty/mbedTLS/library/rsa_internal.c:0:5
	add	r1, sp, #16
	add	r2, sp, #4
.Ltmp124:
	.loc	2 229 5 is_stmt 1               @ ../../../ThirdParty/mbedTLS/library/rsa_internal.c:229:5
	mov	r0, r5
	bl	mbedtls_mpi_gcd
	mov	r6, r0
.Ltmp125:
	@DEBUG_VALUE: mbedtls_rsa_deduce_private_exponent:ret <- $r6
	.loc	2 229 5 is_stmt 0               @ ../../../ThirdParty/mbedTLS/library/rsa_internal.c:229:5
	cbnz	r0, .LBB1_12
.Ltmp126:
@ %bb.9:
	@DEBUG_VALUE: mbedtls_rsa_deduce_private_exponent:Q <- $r7
	@DEBUG_VALUE: mbedtls_rsa_deduce_private_exponent:ret <- $r6
	@DEBUG_VALUE: mbedtls_rsa_deduce_private_exponent:D <- $r5
	@DEBUG_VALUE: mbedtls_rsa_deduce_private_exponent:P <- $r4
	@DEBUG_VALUE: mbedtls_rsa_deduce_private_exponent:E <- [DW_OP_LLVM_entry_value 1] $r2
	.loc	2 0 5                           @ ../../../ThirdParty/mbedTLS/library/rsa_internal.c:0:5
	add	r0, sp, #16
	add	r2, sp, #4
.Ltmp127:
	.loc	2 232 5 is_stmt 1               @ ../../../ThirdParty/mbedTLS/library/rsa_internal.c:232:5
	mov	r1, r0
	bl	mbedtls_mpi_mul_mpi
	mov	r6, r0
.Ltmp128:
	@DEBUG_VALUE: mbedtls_rsa_deduce_private_exponent:ret <- $r6
	.loc	2 232 5 is_stmt 0               @ ../../../ThirdParty/mbedTLS/library/rsa_internal.c:232:5
	cbnz	r0, .LBB1_12
.Ltmp129:
@ %bb.10:
	@DEBUG_VALUE: mbedtls_rsa_deduce_private_exponent:Q <- $r7
	@DEBUG_VALUE: mbedtls_rsa_deduce_private_exponent:ret <- $r6
	@DEBUG_VALUE: mbedtls_rsa_deduce_private_exponent:D <- $r5
	@DEBUG_VALUE: mbedtls_rsa_deduce_private_exponent:P <- $r4
	@DEBUG_VALUE: mbedtls_rsa_deduce_private_exponent:E <- [DW_OP_LLVM_entry_value 1] $r2
	.loc	2 0 5                           @ ../../../ThirdParty/mbedTLS/library/rsa_internal.c:0:5
	movs	r1, #0
	add	r0, sp, #16
.Ltmp130:
	.loc	2 233 5 is_stmt 1               @ ../../../ThirdParty/mbedTLS/library/rsa_internal.c:233:5
	mov	r2, r0
	mov	r3, r5
	bl	mbedtls_mpi_div_mpi
	mov	r6, r0
.Ltmp131:
	@DEBUG_VALUE: mbedtls_rsa_deduce_private_exponent:ret <- $r6
	.loc	2 233 5 is_stmt 0               @ ../../../ThirdParty/mbedTLS/library/rsa_internal.c:233:5
	cbnz	r0, .LBB1_12
.Ltmp132:
@ %bb.11:
	@DEBUG_VALUE: mbedtls_rsa_deduce_private_exponent:Q <- $r7
	@DEBUG_VALUE: mbedtls_rsa_deduce_private_exponent:ret <- $r6
	@DEBUG_VALUE: mbedtls_rsa_deduce_private_exponent:D <- $r5
	@DEBUG_VALUE: mbedtls_rsa_deduce_private_exponent:P <- $r4
	@DEBUG_VALUE: mbedtls_rsa_deduce_private_exponent:E <- [DW_OP_LLVM_entry_value 1] $r2
	.loc	2 0 5                           @ ../../../ThirdParty/mbedTLS/library/rsa_internal.c:0:5
	add	r2, sp, #16
.Ltmp133:
	.loc	2 236 5 is_stmt 1               @ ../../../ThirdParty/mbedTLS/library/rsa_internal.c:236:5
	mov	r0, r5
	ldr	r1, [sp]                        @ 4-byte Reload
	bl	mbedtls_mpi_inv_mod
	mov	r6, r0
.Ltmp134:
	@DEBUG_VALUE: mbedtls_rsa_deduce_private_exponent:ret <- $r6
.LBB1_12:
	@DEBUG_VALUE: mbedtls_rsa_deduce_private_exponent:Q <- $r7
	@DEBUG_VALUE: mbedtls_rsa_deduce_private_exponent:ret <- $r6
	@DEBUG_VALUE: mbedtls_rsa_deduce_private_exponent:D <- $r5
	@DEBUG_VALUE: mbedtls_rsa_deduce_private_exponent:P <- $r4
	@DEBUG_VALUE: mbedtls_rsa_deduce_private_exponent:E <- [DW_OP_LLVM_entry_value 1] $r2
	@DEBUG_VALUE: mbedtls_rsa_deduce_private_exponent:ret <- $r6
	@DEBUG_LABEL: mbedtls_rsa_deduce_private_exponent:cleanup
	.loc	2 0 5 is_stmt 0                 @ ../../../ThirdParty/mbedTLS/library/rsa_internal.c:0:5
	add	r0, sp, #16
	.loc	2 240 5 is_stmt 1               @ ../../../ThirdParty/mbedTLS/library/rsa_internal.c:240:5
	bl	mbedtls_mpi_free
	add	r0, sp, #4
	.loc	2 241 5                         @ ../../../ThirdParty/mbedTLS/library/rsa_internal.c:241:5
	bl	mbedtls_mpi_free
	b	.LBB1_2
.Ltmp135:
.Lfunc_end1:
	.size	mbedtls_rsa_deduce_private_exponent, .Lfunc_end1-mbedtls_rsa_deduce_private_exponent
	.cfi_endproc
	.cantunwind
	.fnend
                                        @ -- End function
	.section	.text.mbedtls_rsa_validate_crt,"ax",%progbits
	.hidden	mbedtls_rsa_validate_crt        @ -- Begin function mbedtls_rsa_validate_crt
	.globl	mbedtls_rsa_validate_crt
	.p2align	2
	.type	mbedtls_rsa_validate_crt,%function
	.code	16                              @ @mbedtls_rsa_validate_crt
	.thumb_func
mbedtls_rsa_validate_crt:
.Lfunc_begin2:
	.loc	2 252 0                         @ ../../../ThirdParty/mbedTLS/library/rsa_internal.c:252:0
	.fnstart
	.cfi_startproc
@ %bb.0:
	@DEBUG_VALUE: mbedtls_rsa_validate_crt:P <- $r0
	@DEBUG_VALUE: mbedtls_rsa_validate_crt:Q <- $r1
	@DEBUG_VALUE: mbedtls_rsa_validate_crt:D <- $r2
	@DEBUG_VALUE: mbedtls_rsa_validate_crt:DP <- $r3
	.save	{r4, r5, r6, r7, lr}
	push	{r4, r5, r6, r7, lr}
	.cfi_def_cfa_offset 20
	.cfi_offset lr, -4
	.cfi_offset r7, -8
	.cfi_offset r6, -12
	.cfi_offset r5, -16
	.cfi_offset r4, -20
	.pad	#28
	sub	sp, #28
	.cfi_def_cfa_offset 48
	mov	r5, r3
	mov	r7, r2
	mov	r6, r1
	mov	r4, r0
.Ltmp136:
	@DEBUG_VALUE: mbedtls_rsa_validate_crt:ret <- 0
	@DEBUG_VALUE: mbedtls_rsa_validate_crt:QP <- [DW_OP_plus_uconst 52] [$sp+0]
	@DEBUG_VALUE: mbedtls_rsa_validate_crt:DQ <- [DW_OP_plus_uconst 48] [$sp+0]
	@DEBUG_VALUE: mbedtls_rsa_validate_crt:DP <- $r5
	@DEBUG_VALUE: mbedtls_rsa_validate_crt:D <- $r7
	@DEBUG_VALUE: mbedtls_rsa_validate_crt:Q <- $r6
	@DEBUG_VALUE: mbedtls_rsa_validate_crt:P <- $r4
	add	r0, sp, #16
.Ltmp137:
	.loc	2 256 5 prologue_end            @ ../../../ThirdParty/mbedTLS/library/rsa_internal.c:256:5
	bl	mbedtls_mpi_init
	add	r0, sp, #4
	.loc	2 257 5                         @ ../../../ThirdParty/mbedTLS/library/rsa_internal.c:257:5
	bl	mbedtls_mpi_init
	.loc	2 260 9                         @ ../../../ThirdParty/mbedTLS/library/rsa_internal.c:260:9
	cbz	r5, .LBB2_6
.Ltmp138:
@ %bb.1:
	@DEBUG_VALUE: mbedtls_rsa_validate_crt:D <- $r7
	@DEBUG_VALUE: mbedtls_rsa_validate_crt:Q <- $r6
	@DEBUG_VALUE: mbedtls_rsa_validate_crt:DP <- $r5
	@DEBUG_VALUE: mbedtls_rsa_validate_crt:P <- $r4
	@DEBUG_VALUE: mbedtls_rsa_validate_crt:DQ <- [DW_OP_plus_uconst 48] [$sp+0]
	@DEBUG_VALUE: mbedtls_rsa_validate_crt:QP <- [DW_OP_plus_uconst 52] [$sp+0]
	@DEBUG_VALUE: mbedtls_rsa_validate_crt:ret <- 0
	.loc	2 262 13                        @ ../../../ThirdParty/mbedTLS/library/rsa_internal.c:262:13
	cmp	r4, #0
	beq	.LBB2_20
.Ltmp139:
@ %bb.2:
	@DEBUG_VALUE: mbedtls_rsa_validate_crt:D <- $r7
	@DEBUG_VALUE: mbedtls_rsa_validate_crt:Q <- $r6
	@DEBUG_VALUE: mbedtls_rsa_validate_crt:DP <- $r5
	@DEBUG_VALUE: mbedtls_rsa_validate_crt:P <- $r4
	@DEBUG_VALUE: mbedtls_rsa_validate_crt:DQ <- [DW_OP_plus_uconst 48] [$sp+0]
	@DEBUG_VALUE: mbedtls_rsa_validate_crt:QP <- [DW_OP_plus_uconst 52] [$sp+0]
	@DEBUG_VALUE: mbedtls_rsa_validate_crt:ret <- 0
	.loc	2 0 13 is_stmt 0                @ ../../../ThirdParty/mbedTLS/library/rsa_internal.c:0:13
	str	r6, [sp]                        @ 4-byte Spill
.Ltmp140:
	@DEBUG_VALUE: mbedtls_rsa_validate_crt:Q <- [$sp+0]
	add	r0, sp, #16
	movs	r2, #1
.Ltmp141:
	.loc	2 268 9 is_stmt 1               @ ../../../ThirdParty/mbedTLS/library/rsa_internal.c:268:9
	mov	r1, r4
	bl	mbedtls_mpi_sub_int
	mov	r6, r0
.Ltmp142:
	@DEBUG_VALUE: mbedtls_rsa_validate_crt:ret <- $r6
	.loc	2 268 9 is_stmt 0               @ ../../../ThirdParty/mbedTLS/library/rsa_internal.c:268:9
	cmp	r0, #0
	bne	.LBB2_21
.Ltmp143:
@ %bb.3:
	@DEBUG_VALUE: mbedtls_rsa_validate_crt:Q <- [$sp+0]
	@DEBUG_VALUE: mbedtls_rsa_validate_crt:D <- $r7
	@DEBUG_VALUE: mbedtls_rsa_validate_crt:ret <- $r6
	@DEBUG_VALUE: mbedtls_rsa_validate_crt:DP <- $r5
	@DEBUG_VALUE: mbedtls_rsa_validate_crt:P <- $r4
	@DEBUG_VALUE: mbedtls_rsa_validate_crt:DQ <- [DW_OP_plus_uconst 48] [$sp+0]
	@DEBUG_VALUE: mbedtls_rsa_validate_crt:QP <- [DW_OP_plus_uconst 52] [$sp+0]
	.loc	2 0 9                           @ ../../../ThirdParty/mbedTLS/library/rsa_internal.c:0:9
	add	r0, sp, #4
.Ltmp144:
	.loc	2 269 9 is_stmt 1               @ ../../../ThirdParty/mbedTLS/library/rsa_internal.c:269:9
	mov	r1, r5
	mov	r2, r7
	bl	mbedtls_mpi_sub_mpi
	mov	r6, r0
.Ltmp145:
	@DEBUG_VALUE: mbedtls_rsa_validate_crt:ret <- $r6
	.loc	2 269 9 is_stmt 0               @ ../../../ThirdParty/mbedTLS/library/rsa_internal.c:269:9
	cmp	r0, #0
	bne	.LBB2_21
.Ltmp146:
@ %bb.4:
	@DEBUG_VALUE: mbedtls_rsa_validate_crt:Q <- [$sp+0]
	@DEBUG_VALUE: mbedtls_rsa_validate_crt:D <- $r7
	@DEBUG_VALUE: mbedtls_rsa_validate_crt:ret <- $r6
	@DEBUG_VALUE: mbedtls_rsa_validate_crt:DP <- $r5
	@DEBUG_VALUE: mbedtls_rsa_validate_crt:P <- $r4
	@DEBUG_VALUE: mbedtls_rsa_validate_crt:DQ <- [DW_OP_plus_uconst 48] [$sp+0]
	@DEBUG_VALUE: mbedtls_rsa_validate_crt:QP <- [DW_OP_plus_uconst 52] [$sp+0]
	.loc	2 0 9                           @ ../../../ThirdParty/mbedTLS/library/rsa_internal.c:0:9
	add	r0, sp, #4
	add	r2, sp, #16
.Ltmp147:
	.loc	2 270 9 is_stmt 1               @ ../../../ThirdParty/mbedTLS/library/rsa_internal.c:270:9
	mov	r1, r0
	bl	mbedtls_mpi_mod_mpi
	mov	r6, r0
.Ltmp148:
	@DEBUG_VALUE: mbedtls_rsa_validate_crt:ret <- $r6
	.loc	2 270 9 is_stmt 0               @ ../../../ThirdParty/mbedTLS/library/rsa_internal.c:270:9
	cmp	r0, #0
	bne	.LBB2_21
.Ltmp149:
@ %bb.5:
	@DEBUG_VALUE: mbedtls_rsa_validate_crt:Q <- [$sp+0]
	@DEBUG_VALUE: mbedtls_rsa_validate_crt:D <- $r7
	@DEBUG_VALUE: mbedtls_rsa_validate_crt:ret <- $r6
	@DEBUG_VALUE: mbedtls_rsa_validate_crt:DP <- $r5
	@DEBUG_VALUE: mbedtls_rsa_validate_crt:P <- $r4
	@DEBUG_VALUE: mbedtls_rsa_validate_crt:DQ <- [DW_OP_plus_uconst 48] [$sp+0]
	@DEBUG_VALUE: mbedtls_rsa_validate_crt:QP <- [DW_OP_plus_uconst 52] [$sp+0]
	.loc	2 0 9                           @ ../../../ThirdParty/mbedTLS/library/rsa_internal.c:0:9
	add	r0, sp, #4
	movs	r1, #0
.Ltmp150:
	.loc	2 272 13 is_stmt 1              @ ../../../ThirdParty/mbedTLS/library/rsa_internal.c:272:13
	bl	mbedtls_mpi_cmp_int
.Ltmp151:
	.loc	2 272 13 is_stmt 0              @ ../../../ThirdParty/mbedTLS/library/rsa_internal.c:272:13
	cmp	r0, #0
	ldr	r6, [sp]                        @ 4-byte Reload
.Ltmp152:
	@DEBUG_VALUE: mbedtls_rsa_validate_crt:Q <- $r6
	bne	.LBB2_27
.Ltmp153:
.LBB2_6:
	@DEBUG_VALUE: mbedtls_rsa_validate_crt:D <- $r7
	@DEBUG_VALUE: mbedtls_rsa_validate_crt:Q <- $r6
	@DEBUG_VALUE: mbedtls_rsa_validate_crt:DP <- $r5
	@DEBUG_VALUE: mbedtls_rsa_validate_crt:P <- $r4
	@DEBUG_VALUE: mbedtls_rsa_validate_crt:DQ <- [DW_OP_plus_uconst 48] [$sp+0]
	@DEBUG_VALUE: mbedtls_rsa_validate_crt:QP <- [DW_OP_plus_uconst 52] [$sp+0]
	.loc	2 0 13                          @ ../../../ThirdParty/mbedTLS/library/rsa_internal.c:0:13
	ldr	r5, [sp, #48]
.Ltmp154:
	@DEBUG_VALUE: mbedtls_rsa_validate_crt:ret <- 0
	.loc	2 280 9 is_stmt 1               @ ../../../ThirdParty/mbedTLS/library/rsa_internal.c:280:9
	cbz	r5, .LBB2_12
.Ltmp155:
@ %bb.7:
	@DEBUG_VALUE: mbedtls_rsa_validate_crt:D <- $r7
	@DEBUG_VALUE: mbedtls_rsa_validate_crt:Q <- $r6
	@DEBUG_VALUE: mbedtls_rsa_validate_crt:P <- $r4
	@DEBUG_VALUE: mbedtls_rsa_validate_crt:DQ <- [DW_OP_plus_uconst 48] [$sp+0]
	@DEBUG_VALUE: mbedtls_rsa_validate_crt:QP <- [DW_OP_plus_uconst 52] [$sp+0]
	@DEBUG_VALUE: mbedtls_rsa_validate_crt:ret <- 0
	.loc	2 282 13                        @ ../../../ThirdParty/mbedTLS/library/rsa_internal.c:282:13
	cbz	r6, .LBB2_20
.Ltmp156:
@ %bb.8:
	@DEBUG_VALUE: mbedtls_rsa_validate_crt:D <- $r7
	@DEBUG_VALUE: mbedtls_rsa_validate_crt:Q <- $r6
	@DEBUG_VALUE: mbedtls_rsa_validate_crt:P <- $r4
	@DEBUG_VALUE: mbedtls_rsa_validate_crt:DQ <- [DW_OP_plus_uconst 48] [$sp+0]
	@DEBUG_VALUE: mbedtls_rsa_validate_crt:QP <- [DW_OP_plus_uconst 52] [$sp+0]
	@DEBUG_VALUE: mbedtls_rsa_validate_crt:ret <- 0
	.loc	2 0 13 is_stmt 0                @ ../../../ThirdParty/mbedTLS/library/rsa_internal.c:0:13
	add	r0, sp, #16
	movs	r2, #1
	str	r6, [sp]                        @ 4-byte Spill
.Ltmp157:
	@DEBUG_VALUE: mbedtls_rsa_validate_crt:Q <- [$sp+0]
	.loc	2 288 9 is_stmt 1               @ ../../../ThirdParty/mbedTLS/library/rsa_internal.c:288:9
	mov	r1, r6
	bl	mbedtls_mpi_sub_int
	mov	r6, r0
.Ltmp158:
	@DEBUG_VALUE: mbedtls_rsa_validate_crt:ret <- $r6
	.loc	2 288 9 is_stmt 0               @ ../../../ThirdParty/mbedTLS/library/rsa_internal.c:288:9
	cbnz	r0, .LBB2_21
.Ltmp159:
@ %bb.9:
	@DEBUG_VALUE: mbedtls_rsa_validate_crt:Q <- [$sp+0]
	@DEBUG_VALUE: mbedtls_rsa_validate_crt:D <- $r7
	@DEBUG_VALUE: mbedtls_rsa_validate_crt:ret <- $r6
	@DEBUG_VALUE: mbedtls_rsa_validate_crt:P <- $r4
	@DEBUG_VALUE: mbedtls_rsa_validate_crt:DQ <- [DW_OP_plus_uconst 48] [$sp+0]
	@DEBUG_VALUE: mbedtls_rsa_validate_crt:QP <- [DW_OP_plus_uconst 52] [$sp+0]
	.loc	2 0 9                           @ ../../../ThirdParty/mbedTLS/library/rsa_internal.c:0:9
	add	r0, sp, #4
.Ltmp160:
	.loc	2 289 9 is_stmt 1               @ ../../../ThirdParty/mbedTLS/library/rsa_internal.c:289:9
	mov	r1, r5
	mov	r2, r7
	bl	mbedtls_mpi_sub_mpi
	mov	r6, r0
.Ltmp161:
	@DEBUG_VALUE: mbedtls_rsa_validate_crt:ret <- $r6
	.loc	2 289 9 is_stmt 0               @ ../../../ThirdParty/mbedTLS/library/rsa_internal.c:289:9
	cbnz	r0, .LBB2_21
.Ltmp162:
@ %bb.10:
	@DEBUG_VALUE: mbedtls_rsa_validate_crt:Q <- [$sp+0]
	@DEBUG_VALUE: mbedtls_rsa_validate_crt:D <- $r7
	@DEBUG_VALUE: mbedtls_rsa_validate_crt:ret <- $r6
	@DEBUG_VALUE: mbedtls_rsa_validate_crt:P <- $r4
	@DEBUG_VALUE: mbedtls_rsa_validate_crt:DQ <- [DW_OP_plus_uconst 48] [$sp+0]
	@DEBUG_VALUE: mbedtls_rsa_validate_crt:QP <- [DW_OP_plus_uconst 52] [$sp+0]
	.loc	2 0 9                           @ ../../../ThirdParty/mbedTLS/library/rsa_internal.c:0:9
	add	r0, sp, #4
	add	r2, sp, #16
.Ltmp163:
	.loc	2 290 9 is_stmt 1               @ ../../../ThirdParty/mbedTLS/library/rsa_internal.c:290:9
	mov	r1, r0
	bl	mbedtls_mpi_mod_mpi
	mov	r6, r0
.Ltmp164:
	@DEBUG_VALUE: mbedtls_rsa_validate_crt:ret <- $r6
	.loc	2 290 9 is_stmt 0               @ ../../../ThirdParty/mbedTLS/library/rsa_internal.c:290:9
	cbnz	r0, .LBB2_21
.Ltmp165:
@ %bb.11:
	@DEBUG_VALUE: mbedtls_rsa_validate_crt:Q <- [$sp+0]
	@DEBUG_VALUE: mbedtls_rsa_validate_crt:D <- $r7
	@DEBUG_VALUE: mbedtls_rsa_validate_crt:ret <- $r6
	@DEBUG_VALUE: mbedtls_rsa_validate_crt:P <- $r4
	@DEBUG_VALUE: mbedtls_rsa_validate_crt:DQ <- [DW_OP_plus_uconst 48] [$sp+0]
	@DEBUG_VALUE: mbedtls_rsa_validate_crt:QP <- [DW_OP_plus_uconst 52] [$sp+0]
	.loc	2 0 9                           @ ../../../ThirdParty/mbedTLS/library/rsa_internal.c:0:9
	add	r0, sp, #4
	movs	r1, #0
.Ltmp166:
	.loc	2 292 13 is_stmt 1              @ ../../../ThirdParty/mbedTLS/library/rsa_internal.c:292:13
	bl	mbedtls_mpi_cmp_int
	ldr	r6, [sp]                        @ 4-byte Reload
.Ltmp167:
	@DEBUG_VALUE: mbedtls_rsa_validate_crt:Q <- $r6
	.loc	2 292 13 is_stmt 0              @ ../../../ThirdParty/mbedTLS/library/rsa_internal.c:292:13
	cbnz	r0, .LBB2_27
.Ltmp168:
.LBB2_12:
	@DEBUG_VALUE: mbedtls_rsa_validate_crt:D <- $r7
	@DEBUG_VALUE: mbedtls_rsa_validate_crt:Q <- $r6
	@DEBUG_VALUE: mbedtls_rsa_validate_crt:P <- $r4
	@DEBUG_VALUE: mbedtls_rsa_validate_crt:DQ <- [DW_OP_plus_uconst 48] [$sp+0]
	@DEBUG_VALUE: mbedtls_rsa_validate_crt:QP <- [DW_OP_plus_uconst 52] [$sp+0]
	.loc	2 0 13                          @ ../../../ThirdParty/mbedTLS/library/rsa_internal.c:0:13
	ldr	r1, [sp, #52]
.Ltmp169:
	@DEBUG_VALUE: mbedtls_rsa_validate_crt:ret <- 0
	.loc	2 300 9 is_stmt 1               @ ../../../ThirdParty/mbedTLS/library/rsa_internal.c:300:9
	cbz	r1, .LBB2_26
.Ltmp170:
@ %bb.13:
	@DEBUG_VALUE: mbedtls_rsa_validate_crt:D <- $r7
	@DEBUG_VALUE: mbedtls_rsa_validate_crt:Q <- $r6
	@DEBUG_VALUE: mbedtls_rsa_validate_crt:P <- $r4
	@DEBUG_VALUE: mbedtls_rsa_validate_crt:DQ <- [DW_OP_plus_uconst 48] [$sp+0]
	@DEBUG_VALUE: mbedtls_rsa_validate_crt:QP <- [DW_OP_plus_uconst 52] [$sp+0]
	@DEBUG_VALUE: mbedtls_rsa_validate_crt:ret <- 0
	.loc	2 0 9 is_stmt 0                 @ ../../../ThirdParty/mbedTLS/library/rsa_internal.c:0:9
	mov	r2, r6
	ldr	r6, __arm_cp.2_0
.Ltmp171:
	.loc	2 302 23 is_stmt 1              @ ../../../ThirdParty/mbedTLS/library/rsa_internal.c:302:23
	cbz	r4, .LBB2_21
.Ltmp172:
@ %bb.14:
	@DEBUG_VALUE: mbedtls_rsa_validate_crt:D <- $r7
	@DEBUG_VALUE: mbedtls_rsa_validate_crt:P <- $r4
	@DEBUG_VALUE: mbedtls_rsa_validate_crt:DQ <- [DW_OP_plus_uconst 48] [$sp+0]
	@DEBUG_VALUE: mbedtls_rsa_validate_crt:QP <- [DW_OP_plus_uconst 52] [$sp+0]
	@DEBUG_VALUE: mbedtls_rsa_validate_crt:ret <- 0
	cbz	r2, .LBB2_21
.Ltmp173:
@ %bb.15:
	@DEBUG_VALUE: mbedtls_rsa_validate_crt:D <- $r7
	@DEBUG_VALUE: mbedtls_rsa_validate_crt:P <- $r4
	@DEBUG_VALUE: mbedtls_rsa_validate_crt:DQ <- [DW_OP_plus_uconst 48] [$sp+0]
	@DEBUG_VALUE: mbedtls_rsa_validate_crt:QP <- [DW_OP_plus_uconst 52] [$sp+0]
	@DEBUG_VALUE: mbedtls_rsa_validate_crt:ret <- 0
	.loc	2 0 23 is_stmt 0                @ ../../../ThirdParty/mbedTLS/library/rsa_internal.c:0:23
	add	r0, sp, #16
.Ltmp174:
	.loc	2 308 9 is_stmt 1               @ ../../../ThirdParty/mbedTLS/library/rsa_internal.c:308:9
	bl	mbedtls_mpi_mul_mpi
	mov	r6, r0
.Ltmp175:
	@DEBUG_VALUE: mbedtls_rsa_validate_crt:ret <- $r6
	.loc	2 308 9 is_stmt 0               @ ../../../ThirdParty/mbedTLS/library/rsa_internal.c:308:9
	cbnz	r0, .LBB2_21
.Ltmp176:
@ %bb.16:
	@DEBUG_VALUE: mbedtls_rsa_validate_crt:D <- $r7
	@DEBUG_VALUE: mbedtls_rsa_validate_crt:ret <- $r6
	@DEBUG_VALUE: mbedtls_rsa_validate_crt:P <- $r4
	@DEBUG_VALUE: mbedtls_rsa_validate_crt:DQ <- [DW_OP_plus_uconst 48] [$sp+0]
	@DEBUG_VALUE: mbedtls_rsa_validate_crt:QP <- [DW_OP_plus_uconst 52] [$sp+0]
	.loc	2 0 9                           @ ../../../ThirdParty/mbedTLS/library/rsa_internal.c:0:9
	add	r0, sp, #16
	movs	r2, #1
.Ltmp177:
	.loc	2 309 9 is_stmt 1               @ ../../../ThirdParty/mbedTLS/library/rsa_internal.c:309:9
	mov	r1, r0
	bl	mbedtls_mpi_sub_int
	mov	r6, r0
.Ltmp178:
	@DEBUG_VALUE: mbedtls_rsa_validate_crt:ret <- $r6
	.loc	2 309 9 is_stmt 0               @ ../../../ThirdParty/mbedTLS/library/rsa_internal.c:309:9
	cbnz	r0, .LBB2_21
.Ltmp179:
@ %bb.17:
	@DEBUG_VALUE: mbedtls_rsa_validate_crt:D <- $r7
	@DEBUG_VALUE: mbedtls_rsa_validate_crt:ret <- $r6
	@DEBUG_VALUE: mbedtls_rsa_validate_crt:P <- $r4
	@DEBUG_VALUE: mbedtls_rsa_validate_crt:DQ <- [DW_OP_plus_uconst 48] [$sp+0]
	@DEBUG_VALUE: mbedtls_rsa_validate_crt:QP <- [DW_OP_plus_uconst 52] [$sp+0]
	.loc	2 0 9                           @ ../../../ThirdParty/mbedTLS/library/rsa_internal.c:0:9
	add	r0, sp, #16
.Ltmp180:
	.loc	2 310 9 is_stmt 1               @ ../../../ThirdParty/mbedTLS/library/rsa_internal.c:310:9
	mov	r1, r0
	mov	r2, r4
	bl	mbedtls_mpi_mod_mpi
	mov	r6, r0
.Ltmp181:
	@DEBUG_VALUE: mbedtls_rsa_validate_crt:ret <- $r6
	.loc	2 310 9 is_stmt 0               @ ../../../ThirdParty/mbedTLS/library/rsa_internal.c:310:9
	cbnz	r0, .LBB2_21
.Ltmp182:
@ %bb.18:
	@DEBUG_VALUE: mbedtls_rsa_validate_crt:D <- $r7
	@DEBUG_VALUE: mbedtls_rsa_validate_crt:ret <- $r6
	@DEBUG_VALUE: mbedtls_rsa_validate_crt:P <- $r4
	@DEBUG_VALUE: mbedtls_rsa_validate_crt:DQ <- [DW_OP_plus_uconst 48] [$sp+0]
	@DEBUG_VALUE: mbedtls_rsa_validate_crt:QP <- [DW_OP_plus_uconst 52] [$sp+0]
	.loc	2 0 9                           @ ../../../ThirdParty/mbedTLS/library/rsa_internal.c:0:9
	add	r0, sp, #16
	movs	r1, #0
.Ltmp183:
	.loc	2 311 13 is_stmt 1              @ ../../../ThirdParty/mbedTLS/library/rsa_internal.c:311:13
	bl	mbedtls_mpi_cmp_int
.Ltmp184:
	.loc	2 311 13 is_stmt 0              @ ../../../ThirdParty/mbedTLS/library/rsa_internal.c:311:13
	cbnz	r0, .LBB2_27
.Ltmp185:
@ %bb.19:
	@DEBUG_VALUE: mbedtls_rsa_validate_crt:D <- $r7
	@DEBUG_VALUE: mbedtls_rsa_validate_crt:ret <- $r6
	@DEBUG_VALUE: mbedtls_rsa_validate_crt:P <- $r4
	@DEBUG_VALUE: mbedtls_rsa_validate_crt:DQ <- [DW_OP_plus_uconst 48] [$sp+0]
	@DEBUG_VALUE: mbedtls_rsa_validate_crt:QP <- [DW_OP_plus_uconst 52] [$sp+0]
	.loc	2 0 13                          @ ../../../ThirdParty/mbedTLS/library/rsa_internal.c:0:13
	mov	r6, r0
.Ltmp186:
	b	.LBB2_21
.Ltmp187:
.LBB2_20:
	@DEBUG_VALUE: mbedtls_rsa_validate_crt:D <- $r7
	@DEBUG_VALUE: mbedtls_rsa_validate_crt:Q <- $r6
	@DEBUG_VALUE: mbedtls_rsa_validate_crt:P <- $r4
	@DEBUG_VALUE: mbedtls_rsa_validate_crt:DQ <- [DW_OP_plus_uconst 48] [$sp+0]
	@DEBUG_VALUE: mbedtls_rsa_validate_crt:QP <- [DW_OP_plus_uconst 52] [$sp+0]
	@DEBUG_VALUE: mbedtls_rsa_validate_crt:ret <- 0
	ldr	r6, __arm_cp.2_0
.Ltmp188:
.LBB2_21:
	@DEBUG_VALUE: mbedtls_rsa_validate_crt:D <- $r7
	@DEBUG_VALUE: mbedtls_rsa_validate_crt:P <- $r4
	@DEBUG_VALUE: mbedtls_rsa_validate_crt:DQ <- [DW_OP_plus_uconst 48] [$sp+0]
	@DEBUG_VALUE: mbedtls_rsa_validate_crt:QP <- [DW_OP_plus_uconst 52] [$sp+0]
	@DEBUG_VALUE: mbedtls_rsa_validate_crt:ret <- $r6
	@DEBUG_LABEL: mbedtls_rsa_validate_crt:cleanup
	ldr	r0, __arm_cp.2_1
.Ltmp189:
	.loc	2 321 18 is_stmt 1              @ ../../../ThirdParty/mbedTLS/library/rsa_internal.c:321:18
	cmp	r6, r0
	beq	.LBB2_25
.Ltmp190:
@ %bb.22:
	@DEBUG_VALUE: mbedtls_rsa_validate_crt:D <- $r7
	@DEBUG_VALUE: mbedtls_rsa_validate_crt:ret <- $r6
	@DEBUG_VALUE: mbedtls_rsa_validate_crt:P <- $r4
	@DEBUG_VALUE: mbedtls_rsa_validate_crt:DQ <- [DW_OP_plus_uconst 48] [$sp+0]
	@DEBUG_VALUE: mbedtls_rsa_validate_crt:QP <- [DW_OP_plus_uconst 52] [$sp+0]
	.loc	2 0 18 is_stmt 0                @ ../../../ThirdParty/mbedTLS/library/rsa_internal.c:0:18
	ldr	r0, __arm_cp.2_0
	.loc	2 321 18                        @ ../../../ThirdParty/mbedTLS/library/rsa_internal.c:321:18
	cmp	r6, r0
	beq	.LBB2_25
.Ltmp191:
@ %bb.23:
	@DEBUG_VALUE: mbedtls_rsa_validate_crt:D <- $r7
	@DEBUG_VALUE: mbedtls_rsa_validate_crt:ret <- $r6
	@DEBUG_VALUE: mbedtls_rsa_validate_crt:P <- $r4
	@DEBUG_VALUE: mbedtls_rsa_validate_crt:DQ <- [DW_OP_plus_uconst 48] [$sp+0]
	@DEBUG_VALUE: mbedtls_rsa_validate_crt:QP <- [DW_OP_plus_uconst 52] [$sp+0]
	cbz	r6, .LBB2_25
.Ltmp192:
@ %bb.24:
	@DEBUG_VALUE: mbedtls_rsa_validate_crt:D <- $r7
	@DEBUG_VALUE: mbedtls_rsa_validate_crt:ret <- $r6
	@DEBUG_VALUE: mbedtls_rsa_validate_crt:P <- $r4
	@DEBUG_VALUE: mbedtls_rsa_validate_crt:DQ <- [DW_OP_plus_uconst 48] [$sp+0]
	@DEBUG_VALUE: mbedtls_rsa_validate_crt:QP <- [DW_OP_plus_uconst 52] [$sp+0]
	.loc	2 325 13 is_stmt 1              @ ../../../ThirdParty/mbedTLS/library/rsa_internal.c:325:13
	movw	r0, #16896
	subs	r6, r6, r0
.Ltmp193:
	@DEBUG_VALUE: mbedtls_rsa_validate_crt:ret <- $r6
.LBB2_25:
	@DEBUG_VALUE: mbedtls_rsa_validate_crt:D <- $r7
	@DEBUG_VALUE: mbedtls_rsa_validate_crt:ret <- $r6
	@DEBUG_VALUE: mbedtls_rsa_validate_crt:P <- $r4
	@DEBUG_VALUE: mbedtls_rsa_validate_crt:DQ <- [DW_OP_plus_uconst 48] [$sp+0]
	@DEBUG_VALUE: mbedtls_rsa_validate_crt:QP <- [DW_OP_plus_uconst 52] [$sp+0]
	@DEBUG_VALUE: mbedtls_rsa_validate_crt:ret <- $r6
	.loc	2 0 13 is_stmt 0                @ ../../../ThirdParty/mbedTLS/library/rsa_internal.c:0:13
	add	r0, sp, #16
	.loc	2 328 5 is_stmt 1               @ ../../../ThirdParty/mbedTLS/library/rsa_internal.c:328:5
	bl	mbedtls_mpi_free
	add	r0, sp, #4
	.loc	2 329 5                         @ ../../../ThirdParty/mbedTLS/library/rsa_internal.c:329:5
	bl	mbedtls_mpi_free
	.loc	2 331 5                         @ ../../../ThirdParty/mbedTLS/library/rsa_internal.c:331:5
	mov	r0, r6
	add	sp, #28
.Ltmp194:
	pop	{r4, r5, r6, r7, pc}
.Ltmp195:
.LBB2_26:
	@DEBUG_VALUE: mbedtls_rsa_validate_crt:D <- $r7
	@DEBUG_VALUE: mbedtls_rsa_validate_crt:Q <- $r6
	@DEBUG_VALUE: mbedtls_rsa_validate_crt:P <- $r4
	@DEBUG_VALUE: mbedtls_rsa_validate_crt:DQ <- [DW_OP_plus_uconst 48] [$sp+0]
	@DEBUG_VALUE: mbedtls_rsa_validate_crt:QP <- [DW_OP_plus_uconst 52] [$sp+0]
	@DEBUG_VALUE: mbedtls_rsa_validate_crt:ret <- 0
	.loc	2 0 5 is_stmt 0                 @ ../../../ThirdParty/mbedTLS/library/rsa_internal.c:0:5
	movs	r6, #0
.Ltmp196:
	b	.LBB2_21
.Ltmp197:
.LBB2_27:
	@DEBUG_VALUE: mbedtls_rsa_validate_crt:D <- $r7
	@DEBUG_VALUE: mbedtls_rsa_validate_crt:P <- $r4
	@DEBUG_VALUE: mbedtls_rsa_validate_crt:DQ <- [DW_OP_plus_uconst 48] [$sp+0]
	@DEBUG_VALUE: mbedtls_rsa_validate_crt:QP <- [DW_OP_plus_uconst 52] [$sp+0]
	ldr	r6, __arm_cp.2_1
	b	.LBB2_21
.Ltmp198:
	.p2align	2
@ %bb.28:
__arm_cp.2_0:
	.long	4294950784                      @ 0xffffbf80
.Lcpi_end0:
	.size	__arm_cp.2_0, .Lcpi_end0-__arm_cp.2_0
__arm_cp.2_1:
	.long	4294950400                      @ 0xffffbe00
.Lcpi_end1:
	.size	__arm_cp.2_1, .Lcpi_end1-__arm_cp.2_1
.Lfunc_end2:
	.size	mbedtls_rsa_validate_crt, .Lfunc_end2-mbedtls_rsa_validate_crt
	.cfi_endproc
	.cantunwind
	.fnend
                                        @ -- End function
	.section	.text.mbedtls_rsa_validate_params,"ax",%progbits
	.hidden	mbedtls_rsa_validate_params     @ -- Begin function mbedtls_rsa_validate_params
	.globl	mbedtls_rsa_validate_params
	.p2align	2
	.type	mbedtls_rsa_validate_params,%function
	.code	16                              @ @mbedtls_rsa_validate_params
	.thumb_func
mbedtls_rsa_validate_params:
.Lfunc_begin3:
	.loc	2 342 0 is_stmt 1               @ ../../../ThirdParty/mbedTLS/library/rsa_internal.c:342:0
	.fnstart
	.cfi_startproc
@ %bb.0:
	@DEBUG_VALUE: mbedtls_rsa_validate_params:N <- $r0
	@DEBUG_VALUE: mbedtls_rsa_validate_params:P <- $r1
	@DEBUG_VALUE: mbedtls_rsa_validate_params:Q <- $r2
	@DEBUG_VALUE: mbedtls_rsa_validate_params:D <- $r3
	.save	{r4, r5, r6, r7, lr}
	push	{r4, r5, r6, r7, lr}
	.cfi_def_cfa_offset 20
	.cfi_offset lr, -4
	.cfi_offset r7, -8
	.cfi_offset r6, -12
	.cfi_offset r5, -16
	.cfi_offset r4, -20
	.pad	#36
	sub	sp, #36
	.cfi_def_cfa_offset 56
	str	r3, [sp]                        @ 4-byte Spill
	str	r2, [sp, #8]                    @ 4-byte Spill
	mov	r6, r1
	str	r0, [sp, #4]                    @ 4-byte Spill
.Ltmp199:
	@DEBUG_VALUE: mbedtls_rsa_validate_params:ret <- 0
	@DEBUG_VALUE: mbedtls_rsa_validate_params:p_rng <- [DW_OP_plus_uconst 64] [$sp+0]
	@DEBUG_VALUE: mbedtls_rsa_validate_params:f_rng <- [DW_OP_plus_uconst 60] [$sp+0]
	@DEBUG_VALUE: mbedtls_rsa_validate_params:E <- [DW_OP_plus_uconst 56] [$sp+0]
	@DEBUG_VALUE: mbedtls_rsa_validate_params:D <- [$sp+0]
	@DEBUG_VALUE: mbedtls_rsa_validate_params:Q <- [DW_OP_plus_uconst 8] [$sp+0]
	@DEBUG_VALUE: mbedtls_rsa_validate_params:P <- $r6
	@DEBUG_VALUE: mbedtls_rsa_validate_params:N <- [DW_OP_plus_uconst 4] [$sp+0]
	add	r0, sp, #24
.Ltmp200:
	.loc	2 346 5 prologue_end            @ ../../../ThirdParty/mbedTLS/library/rsa_internal.c:346:5
	bl	mbedtls_mpi_init
	add	r0, sp, #12
	.loc	2 347 5                         @ ../../../ThirdParty/mbedTLS/library/rsa_internal.c:347:5
	bl	mbedtls_mpi_init
	ldr	r4, [sp, #64]
	ldr	r7, [sp, #60]
.Ltmp201:
	.loc	2 359 23                        @ ../../../ThirdParty/mbedTLS/library/rsa_internal.c:359:23
	cbz	r6, .LBB3_3
.Ltmp202:
@ %bb.1:
	@DEBUG_VALUE: mbedtls_rsa_validate_params:P <- $r6
	@DEBUG_VALUE: mbedtls_rsa_validate_params:N <- [DW_OP_plus_uconst 4] [$sp+0]
	@DEBUG_VALUE: mbedtls_rsa_validate_params:Q <- [DW_OP_plus_uconst 8] [$sp+0]
	@DEBUG_VALUE: mbedtls_rsa_validate_params:D <- [$sp+0]
	@DEBUG_VALUE: mbedtls_rsa_validate_params:E <- [DW_OP_plus_uconst 56] [$sp+0]
	@DEBUG_VALUE: mbedtls_rsa_validate_params:f_rng <- [DW_OP_plus_uconst 60] [$sp+0]
	@DEBUG_VALUE: mbedtls_rsa_validate_params:p_rng <- [DW_OP_plus_uconst 64] [$sp+0]
	@DEBUG_VALUE: mbedtls_rsa_validate_params:ret <- 0
	cbz	r7, .LBB3_3
.Ltmp203:
@ %bb.2:
	@DEBUG_VALUE: mbedtls_rsa_validate_params:P <- $r6
	@DEBUG_VALUE: mbedtls_rsa_validate_params:N <- [DW_OP_plus_uconst 4] [$sp+0]
	@DEBUG_VALUE: mbedtls_rsa_validate_params:Q <- [DW_OP_plus_uconst 8] [$sp+0]
	@DEBUG_VALUE: mbedtls_rsa_validate_params:D <- [$sp+0]
	@DEBUG_VALUE: mbedtls_rsa_validate_params:E <- [DW_OP_plus_uconst 56] [$sp+0]
	@DEBUG_VALUE: mbedtls_rsa_validate_params:f_rng <- [DW_OP_plus_uconst 60] [$sp+0]
	@DEBUG_VALUE: mbedtls_rsa_validate_params:p_rng <- [DW_OP_plus_uconst 64] [$sp+0]
	@DEBUG_VALUE: mbedtls_rsa_validate_params:ret <- 0
	.loc	2 0 23 is_stmt 0                @ ../../../ThirdParty/mbedTLS/library/rsa_internal.c:0:23
	movs	r1, #50
	.loc	2 360 21 is_stmt 1              @ ../../../ThirdParty/mbedTLS/library/rsa_internal.c:360:21
	mov	r0, r6
	mov	r2, r7
	mov	r3, r4
	bl	mbedtls_mpi_is_prime_ext
.Ltmp204:
	@DEBUG_VALUE: mbedtls_rsa_validate_params:ret <- $r0
	.loc	2 359 9                         @ ../../../ThirdParty/mbedTLS/library/rsa_internal.c:359:9
	cmp	r0, #0
	.loc	2 0 0 is_stmt 0                 @ ../../../ThirdParty/mbedTLS/library/rsa_internal.c:0:0
	ldr	r5, __arm_cp.3_0
	beq	.LBB3_3
	b	.LBB3_33
.Ltmp205:
.LBB3_3:
	@DEBUG_VALUE: mbedtls_rsa_validate_params:P <- $r6
	@DEBUG_VALUE: mbedtls_rsa_validate_params:N <- [DW_OP_plus_uconst 4] [$sp+0]
	@DEBUG_VALUE: mbedtls_rsa_validate_params:Q <- [DW_OP_plus_uconst 8] [$sp+0]
	@DEBUG_VALUE: mbedtls_rsa_validate_params:D <- [$sp+0]
	@DEBUG_VALUE: mbedtls_rsa_validate_params:E <- [DW_OP_plus_uconst 56] [$sp+0]
	@DEBUG_VALUE: mbedtls_rsa_validate_params:f_rng <- [DW_OP_plus_uconst 60] [$sp+0]
	@DEBUG_VALUE: mbedtls_rsa_validate_params:p_rng <- [DW_OP_plus_uconst 64] [$sp+0]
	@DEBUG_VALUE: mbedtls_rsa_validate_params:ret <- 0
	.loc	2 366 23 is_stmt 1              @ ../../../ThirdParty/mbedTLS/library/rsa_internal.c:366:23
	ldr	r0, [sp, #8]                    @ 4-byte Reload
	cbz	r0, .LBB3_6
.Ltmp206:
@ %bb.4:
	@DEBUG_VALUE: mbedtls_rsa_validate_params:P <- $r6
	@DEBUG_VALUE: mbedtls_rsa_validate_params:N <- [DW_OP_plus_uconst 4] [$sp+0]
	@DEBUG_VALUE: mbedtls_rsa_validate_params:Q <- [DW_OP_plus_uconst 8] [$sp+0]
	@DEBUG_VALUE: mbedtls_rsa_validate_params:D <- [$sp+0]
	@DEBUG_VALUE: mbedtls_rsa_validate_params:E <- [DW_OP_plus_uconst 56] [$sp+0]
	@DEBUG_VALUE: mbedtls_rsa_validate_params:f_rng <- [DW_OP_plus_uconst 60] [$sp+0]
	@DEBUG_VALUE: mbedtls_rsa_validate_params:p_rng <- [DW_OP_plus_uconst 64] [$sp+0]
	@DEBUG_VALUE: mbedtls_rsa_validate_params:ret <- 0
	cbz	r7, .LBB3_6
.Ltmp207:
@ %bb.5:
	@DEBUG_VALUE: mbedtls_rsa_validate_params:P <- $r6
	@DEBUG_VALUE: mbedtls_rsa_validate_params:N <- [DW_OP_plus_uconst 4] [$sp+0]
	@DEBUG_VALUE: mbedtls_rsa_validate_params:Q <- [DW_OP_plus_uconst 8] [$sp+0]
	@DEBUG_VALUE: mbedtls_rsa_validate_params:D <- [$sp+0]
	@DEBUG_VALUE: mbedtls_rsa_validate_params:E <- [DW_OP_plus_uconst 56] [$sp+0]
	@DEBUG_VALUE: mbedtls_rsa_validate_params:f_rng <- [DW_OP_plus_uconst 60] [$sp+0]
	@DEBUG_VALUE: mbedtls_rsa_validate_params:p_rng <- [DW_OP_plus_uconst 64] [$sp+0]
	@DEBUG_VALUE: mbedtls_rsa_validate_params:ret <- 0
	.loc	2 0 23 is_stmt 0                @ ../../../ThirdParty/mbedTLS/library/rsa_internal.c:0:23
	movs	r1, #50
	.loc	2 367 21 is_stmt 1              @ ../../../ThirdParty/mbedTLS/library/rsa_internal.c:367:21
	ldr	r0, [sp, #8]                    @ 4-byte Reload
	mov	r2, r7
	mov	r3, r4
	bl	mbedtls_mpi_is_prime_ext
.Ltmp208:
	@DEBUG_VALUE: mbedtls_rsa_validate_params:ret <- $r0
	.loc	2 366 9                         @ ../../../ThirdParty/mbedTLS/library/rsa_internal.c:366:9
	cmp	r0, #0
	.loc	2 0 0 is_stmt 0                 @ ../../../ThirdParty/mbedTLS/library/rsa_internal.c:0:0
	ldr	r5, __arm_cp.3_0
	beq	.LBB3_6
	b	.LBB3_33
.Ltmp209:
.LBB3_6:
	@DEBUG_VALUE: mbedtls_rsa_validate_params:P <- $r6
	@DEBUG_VALUE: mbedtls_rsa_validate_params:N <- [DW_OP_plus_uconst 4] [$sp+0]
	@DEBUG_VALUE: mbedtls_rsa_validate_params:Q <- [DW_OP_plus_uconst 8] [$sp+0]
	@DEBUG_VALUE: mbedtls_rsa_validate_params:D <- [$sp+0]
	@DEBUG_VALUE: mbedtls_rsa_validate_params:E <- [DW_OP_plus_uconst 56] [$sp+0]
	@DEBUG_VALUE: mbedtls_rsa_validate_params:f_rng <- [DW_OP_plus_uconst 60] [$sp+0]
	@DEBUG_VALUE: mbedtls_rsa_validate_params:p_rng <- [DW_OP_plus_uconst 64] [$sp+0]
	ldr	r1, [sp, #8]                    @ 4-byte Reload
	subs	r0, r1, #1
	sbcs	r1, r0
	subs	r0, r6, #1
	mov	r4, r6
	sbcs	r4, r0
.Ltmp210:
	@DEBUG_VALUE: mbedtls_rsa_validate_params:ret <- 0
	.loc	2 381 19 is_stmt 1              @ ../../../ThirdParty/mbedTLS/library/rsa_internal.c:381:19
	ands	r4, r1
	ldr	r0, [sp, #4]                    @ 4-byte Reload
	cbz	r0, .LBB3_11
.Ltmp211:
@ %bb.7:
	@DEBUG_VALUE: mbedtls_rsa_validate_params:P <- $r6
	@DEBUG_VALUE: mbedtls_rsa_validate_params:N <- [DW_OP_plus_uconst 4] [$sp+0]
	@DEBUG_VALUE: mbedtls_rsa_validate_params:Q <- [DW_OP_plus_uconst 8] [$sp+0]
	@DEBUG_VALUE: mbedtls_rsa_validate_params:D <- [$sp+0]
	@DEBUG_VALUE: mbedtls_rsa_validate_params:E <- [DW_OP_plus_uconst 56] [$sp+0]
	@DEBUG_VALUE: mbedtls_rsa_validate_params:f_rng <- [DW_OP_plus_uconst 60] [$sp+0]
	@DEBUG_VALUE: mbedtls_rsa_validate_params:p_rng <- [DW_OP_plus_uconst 64] [$sp+0]
	@DEBUG_VALUE: mbedtls_rsa_validate_params:ret <- 0
	cbz	r4, .LBB3_11
.Ltmp212:
@ %bb.8:
	@DEBUG_VALUE: mbedtls_rsa_validate_params:P <- $r6
	@DEBUG_VALUE: mbedtls_rsa_validate_params:N <- [DW_OP_plus_uconst 4] [$sp+0]
	@DEBUG_VALUE: mbedtls_rsa_validate_params:Q <- [DW_OP_plus_uconst 8] [$sp+0]
	@DEBUG_VALUE: mbedtls_rsa_validate_params:D <- [$sp+0]
	@DEBUG_VALUE: mbedtls_rsa_validate_params:E <- [DW_OP_plus_uconst 56] [$sp+0]
	@DEBUG_VALUE: mbedtls_rsa_validate_params:f_rng <- [DW_OP_plus_uconst 60] [$sp+0]
	@DEBUG_VALUE: mbedtls_rsa_validate_params:p_rng <- [DW_OP_plus_uconst 64] [$sp+0]
	@DEBUG_VALUE: mbedtls_rsa_validate_params:ret <- 0
	.loc	2 0 19 is_stmt 0                @ ../../../ThirdParty/mbedTLS/library/rsa_internal.c:0:19
	add	r0, sp, #24
.Ltmp213:
	.loc	2 383 9 is_stmt 1               @ ../../../ThirdParty/mbedTLS/library/rsa_internal.c:383:9
	mov	r1, r6
	ldr	r2, [sp, #8]                    @ 4-byte Reload
	bl	mbedtls_mpi_mul_mpi
	mov	r5, r0
.Ltmp214:
	@DEBUG_VALUE: mbedtls_rsa_validate_params:ret <- $r5
	.loc	2 383 9 is_stmt 0               @ ../../../ThirdParty/mbedTLS/library/rsa_internal.c:383:9
	cmp	r0, #0
	beq	.LBB3_9
	b	.LBB3_33
.Ltmp215:
.LBB3_9:
	@DEBUG_VALUE: mbedtls_rsa_validate_params:P <- $r6
	@DEBUG_VALUE: mbedtls_rsa_validate_params:ret <- $r5
	@DEBUG_VALUE: mbedtls_rsa_validate_params:N <- [DW_OP_plus_uconst 4] [$sp+0]
	@DEBUG_VALUE: mbedtls_rsa_validate_params:Q <- [DW_OP_plus_uconst 8] [$sp+0]
	@DEBUG_VALUE: mbedtls_rsa_validate_params:D <- [$sp+0]
	@DEBUG_VALUE: mbedtls_rsa_validate_params:E <- [DW_OP_plus_uconst 56] [$sp+0]
	@DEBUG_VALUE: mbedtls_rsa_validate_params:f_rng <- [DW_OP_plus_uconst 60] [$sp+0]
	@DEBUG_VALUE: mbedtls_rsa_validate_params:p_rng <- [DW_OP_plus_uconst 64] [$sp+0]
	.loc	2 0 9                           @ ../../../ThirdParty/mbedTLS/library/rsa_internal.c:0:9
	movs	r1, #1
.Ltmp216:
	.loc	2 384 13 is_stmt 1              @ ../../../ThirdParty/mbedTLS/library/rsa_internal.c:384:13
	ldr	r0, [sp, #4]                    @ 4-byte Reload
	bl	mbedtls_mpi_cmp_int
	.loc	2 384 47 is_stmt 0              @ ../../../ThirdParty/mbedTLS/library/rsa_internal.c:384:47
	cmp	r0, #1
.Ltmp217:
	.loc	2 0 0                           @ ../../../ThirdParty/mbedTLS/library/rsa_internal.c:0:0
	ldr	r5, __arm_cp.3_0
.Ltmp218:
	bge	.LBB3_10
	b	.LBB3_33
.Ltmp219:
.LBB3_10:
	@DEBUG_VALUE: mbedtls_rsa_validate_params:P <- $r6
	@DEBUG_VALUE: mbedtls_rsa_validate_params:N <- [DW_OP_plus_uconst 4] [$sp+0]
	@DEBUG_VALUE: mbedtls_rsa_validate_params:Q <- [DW_OP_plus_uconst 8] [$sp+0]
	@DEBUG_VALUE: mbedtls_rsa_validate_params:D <- [$sp+0]
	@DEBUG_VALUE: mbedtls_rsa_validate_params:E <- [DW_OP_plus_uconst 56] [$sp+0]
	@DEBUG_VALUE: mbedtls_rsa_validate_params:f_rng <- [DW_OP_plus_uconst 60] [$sp+0]
	@DEBUG_VALUE: mbedtls_rsa_validate_params:p_rng <- [DW_OP_plus_uconst 64] [$sp+0]
	add	r0, sp, #24
.Ltmp220:
	.loc	2 385 17 is_stmt 1              @ ../../../ThirdParty/mbedTLS/library/rsa_internal.c:385:17
	ldr	r1, [sp, #4]                    @ 4-byte Reload
	bl	mbedtls_mpi_cmp_mpi
.Ltmp221:
	.loc	2 384 13                        @ ../../../ThirdParty/mbedTLS/library/rsa_internal.c:384:13
	cmp	r0, #0
.Ltmp222:
	.loc	2 0 0 is_stmt 0                 @ ../../../ThirdParty/mbedTLS/library/rsa_internal.c:0:0
	ldr	r5, __arm_cp.3_0
	beq	.LBB3_11
	b	.LBB3_33
.Ltmp223:
.LBB3_11:
	@DEBUG_VALUE: mbedtls_rsa_validate_params:P <- $r6
	@DEBUG_VALUE: mbedtls_rsa_validate_params:N <- [DW_OP_plus_uconst 4] [$sp+0]
	@DEBUG_VALUE: mbedtls_rsa_validate_params:Q <- [DW_OP_plus_uconst 8] [$sp+0]
	@DEBUG_VALUE: mbedtls_rsa_validate_params:D <- [$sp+0]
	@DEBUG_VALUE: mbedtls_rsa_validate_params:E <- [DW_OP_plus_uconst 56] [$sp+0]
	@DEBUG_VALUE: mbedtls_rsa_validate_params:f_rng <- [DW_OP_plus_uconst 60] [$sp+0]
	@DEBUG_VALUE: mbedtls_rsa_validate_params:p_rng <- [DW_OP_plus_uconst 64] [$sp+0]
	ldr	r7, [sp, #56]
.Ltmp224:
	@DEBUG_VALUE: mbedtls_rsa_validate_params:ret <- 0
	.loc	2 396 19 is_stmt 1              @ ../../../ThirdParty/mbedTLS/library/rsa_internal.c:396:19
	ldr	r0, [sp, #4]                    @ 4-byte Reload
	cbz	r0, .LBB3_18
.Ltmp225:
@ %bb.12:
	@DEBUG_VALUE: mbedtls_rsa_validate_params:P <- $r6
	@DEBUG_VALUE: mbedtls_rsa_validate_params:N <- [DW_OP_plus_uconst 4] [$sp+0]
	@DEBUG_VALUE: mbedtls_rsa_validate_params:Q <- [DW_OP_plus_uconst 8] [$sp+0]
	@DEBUG_VALUE: mbedtls_rsa_validate_params:D <- [$sp+0]
	@DEBUG_VALUE: mbedtls_rsa_validate_params:E <- [DW_OP_plus_uconst 56] [$sp+0]
	@DEBUG_VALUE: mbedtls_rsa_validate_params:f_rng <- [DW_OP_plus_uconst 60] [$sp+0]
	@DEBUG_VALUE: mbedtls_rsa_validate_params:p_rng <- [DW_OP_plus_uconst 64] [$sp+0]
	@DEBUG_VALUE: mbedtls_rsa_validate_params:ret <- 0
	ldr	r0, [sp]                        @ 4-byte Reload
	cbz	r0, .LBB3_18
.Ltmp226:
@ %bb.13:
	@DEBUG_VALUE: mbedtls_rsa_validate_params:P <- $r6
	@DEBUG_VALUE: mbedtls_rsa_validate_params:N <- [DW_OP_plus_uconst 4] [$sp+0]
	@DEBUG_VALUE: mbedtls_rsa_validate_params:Q <- [DW_OP_plus_uconst 8] [$sp+0]
	@DEBUG_VALUE: mbedtls_rsa_validate_params:D <- [$sp+0]
	@DEBUG_VALUE: mbedtls_rsa_validate_params:E <- [DW_OP_plus_uconst 56] [$sp+0]
	@DEBUG_VALUE: mbedtls_rsa_validate_params:f_rng <- [DW_OP_plus_uconst 60] [$sp+0]
	@DEBUG_VALUE: mbedtls_rsa_validate_params:p_rng <- [DW_OP_plus_uconst 64] [$sp+0]
	@DEBUG_VALUE: mbedtls_rsa_validate_params:ret <- 0
	cbz	r7, .LBB3_18
.Ltmp227:
@ %bb.14:
	@DEBUG_VALUE: mbedtls_rsa_validate_params:P <- $r6
	@DEBUG_VALUE: mbedtls_rsa_validate_params:N <- [DW_OP_plus_uconst 4] [$sp+0]
	@DEBUG_VALUE: mbedtls_rsa_validate_params:Q <- [DW_OP_plus_uconst 8] [$sp+0]
	@DEBUG_VALUE: mbedtls_rsa_validate_params:D <- [$sp+0]
	@DEBUG_VALUE: mbedtls_rsa_validate_params:E <- [DW_OP_plus_uconst 56] [$sp+0]
	@DEBUG_VALUE: mbedtls_rsa_validate_params:f_rng <- [DW_OP_plus_uconst 60] [$sp+0]
	@DEBUG_VALUE: mbedtls_rsa_validate_params:p_rng <- [DW_OP_plus_uconst 64] [$sp+0]
	@DEBUG_VALUE: mbedtls_rsa_validate_params:ret <- 0
	.loc	2 0 19 is_stmt 0                @ ../../../ThirdParty/mbedTLS/library/rsa_internal.c:0:19
	movs	r1, #1
.Ltmp228:
	.loc	2 398 14 is_stmt 1              @ ../../../ThirdParty/mbedTLS/library/rsa_internal.c:398:14
	ldr	r0, [sp]                        @ 4-byte Reload
	bl	mbedtls_mpi_cmp_int
	.loc	2 398 47 is_stmt 0              @ ../../../ThirdParty/mbedTLS/library/rsa_internal.c:398:47
	cmp	r0, #1
.Ltmp229:
	.loc	2 0 0                           @ ../../../ThirdParty/mbedTLS/library/rsa_internal.c:0:0
	ldr	r5, __arm_cp.3_0
.Ltmp230:
	.loc	2 398 47                        @ ../../../ThirdParty/mbedTLS/library/rsa_internal.c:398:47
	blt	.LBB3_33
.Ltmp231:
@ %bb.15:
	@DEBUG_VALUE: mbedtls_rsa_validate_params:P <- $r6
	@DEBUG_VALUE: mbedtls_rsa_validate_params:N <- [DW_OP_plus_uconst 4] [$sp+0]
	@DEBUG_VALUE: mbedtls_rsa_validate_params:Q <- [DW_OP_plus_uconst 8] [$sp+0]
	@DEBUG_VALUE: mbedtls_rsa_validate_params:D <- [$sp+0]
	@DEBUG_VALUE: mbedtls_rsa_validate_params:E <- [DW_OP_plus_uconst 56] [$sp+0]
	@DEBUG_VALUE: mbedtls_rsa_validate_params:f_rng <- [DW_OP_plus_uconst 60] [$sp+0]
	@DEBUG_VALUE: mbedtls_rsa_validate_params:p_rng <- [DW_OP_plus_uconst 64] [$sp+0]
	@DEBUG_VALUE: mbedtls_rsa_validate_params:ret <- 0
	.loc	2 0 47                          @ ../../../ThirdParty/mbedTLS/library/rsa_internal.c:0:47
	movs	r1, #1
	.loc	2 399 17 is_stmt 1              @ ../../../ThirdParty/mbedTLS/library/rsa_internal.c:399:17
	mov	r0, r7
	bl	mbedtls_mpi_cmp_int
	.loc	2 399 50 is_stmt 0              @ ../../../ThirdParty/mbedTLS/library/rsa_internal.c:399:50
	cmp	r0, #1
.Ltmp232:
	.loc	2 0 0                           @ ../../../ThirdParty/mbedTLS/library/rsa_internal.c:0:0
	ldr	r5, __arm_cp.3_0
.Ltmp233:
	.loc	2 399 50                        @ ../../../ThirdParty/mbedTLS/library/rsa_internal.c:399:50
	blt	.LBB3_33
.Ltmp234:
@ %bb.16:
	@DEBUG_VALUE: mbedtls_rsa_validate_params:P <- $r6
	@DEBUG_VALUE: mbedtls_rsa_validate_params:N <- [DW_OP_plus_uconst 4] [$sp+0]
	@DEBUG_VALUE: mbedtls_rsa_validate_params:Q <- [DW_OP_plus_uconst 8] [$sp+0]
	@DEBUG_VALUE: mbedtls_rsa_validate_params:D <- [$sp+0]
	@DEBUG_VALUE: mbedtls_rsa_validate_params:E <- [DW_OP_plus_uconst 56] [$sp+0]
	@DEBUG_VALUE: mbedtls_rsa_validate_params:f_rng <- [DW_OP_plus_uconst 60] [$sp+0]
	@DEBUG_VALUE: mbedtls_rsa_validate_params:p_rng <- [DW_OP_plus_uconst 64] [$sp+0]
	@DEBUG_VALUE: mbedtls_rsa_validate_params:ret <- 0
	.loc	2 400 17 is_stmt 1              @ ../../../ThirdParty/mbedTLS/library/rsa_internal.c:400:17
	ldr	r0, [sp]                        @ 4-byte Reload
	ldr	r1, [sp, #4]                    @ 4-byte Reload
	bl	mbedtls_mpi_cmp_mpi
	.loc	2 400 50 is_stmt 0              @ ../../../ThirdParty/mbedTLS/library/rsa_internal.c:400:50
	cmp	r0, #0
.Ltmp235:
	.loc	2 0 0                           @ ../../../ThirdParty/mbedTLS/library/rsa_internal.c:0:0
	ldr	r5, __arm_cp.3_0
.Ltmp236:
	.loc	2 400 50                        @ ../../../ThirdParty/mbedTLS/library/rsa_internal.c:400:50
	bpl	.LBB3_33
.Ltmp237:
@ %bb.17:
	@DEBUG_VALUE: mbedtls_rsa_validate_params:P <- $r6
	@DEBUG_VALUE: mbedtls_rsa_validate_params:N <- [DW_OP_plus_uconst 4] [$sp+0]
	@DEBUG_VALUE: mbedtls_rsa_validate_params:Q <- [DW_OP_plus_uconst 8] [$sp+0]
	@DEBUG_VALUE: mbedtls_rsa_validate_params:D <- [$sp+0]
	@DEBUG_VALUE: mbedtls_rsa_validate_params:E <- [DW_OP_plus_uconst 56] [$sp+0]
	@DEBUG_VALUE: mbedtls_rsa_validate_params:f_rng <- [DW_OP_plus_uconst 60] [$sp+0]
	@DEBUG_VALUE: mbedtls_rsa_validate_params:p_rng <- [DW_OP_plus_uconst 64] [$sp+0]
	@DEBUG_VALUE: mbedtls_rsa_validate_params:ret <- 0
	.loc	2 401 17 is_stmt 1              @ ../../../ThirdParty/mbedTLS/library/rsa_internal.c:401:17
	mov	r0, r7
	ldr	r1, [sp, #4]                    @ 4-byte Reload
	bl	mbedtls_mpi_cmp_mpi
.Ltmp238:
	.loc	2 398 14                        @ ../../../ThirdParty/mbedTLS/library/rsa_internal.c:398:14
	cmp	r0, #0
.Ltmp239:
	.loc	2 0 0 is_stmt 0                 @ ../../../ThirdParty/mbedTLS/library/rsa_internal.c:0:0
	ldr	r5, __arm_cp.3_0
.Ltmp240:
	.loc	2 398 14                        @ ../../../ThirdParty/mbedTLS/library/rsa_internal.c:398:14
	bpl	.LBB3_33
.Ltmp241:
.LBB3_18:
	@DEBUG_VALUE: mbedtls_rsa_validate_params:P <- $r6
	@DEBUG_VALUE: mbedtls_rsa_validate_params:N <- [DW_OP_plus_uconst 4] [$sp+0]
	@DEBUG_VALUE: mbedtls_rsa_validate_params:Q <- [DW_OP_plus_uconst 8] [$sp+0]
	@DEBUG_VALUE: mbedtls_rsa_validate_params:D <- [$sp+0]
	@DEBUG_VALUE: mbedtls_rsa_validate_params:E <- [DW_OP_plus_uconst 56] [$sp+0]
	@DEBUG_VALUE: mbedtls_rsa_validate_params:f_rng <- [DW_OP_plus_uconst 60] [$sp+0]
	@DEBUG_VALUE: mbedtls_rsa_validate_params:p_rng <- [DW_OP_plus_uconst 64] [$sp+0]
	@DEBUG_VALUE: mbedtls_rsa_validate_params:ret <- 0
	.loc	2 0 14                          @ ../../../ThirdParty/mbedTLS/library/rsa_internal.c:0:14
	ldr	r1, [sp]                        @ 4-byte Reload
	rsbs	r0, r1, #0
	adcs	r0, r1
	movs	r1, #1
.Ltmp242:
	.loc	2 412 19 is_stmt 1              @ ../../../ThirdParty/mbedTLS/library/rsa_internal.c:412:19
	eors	r4, r1
	movs	r5, #0
	orrs	r4, r0
	bne	.LBB3_33
.Ltmp243:
@ %bb.19:
	@DEBUG_VALUE: mbedtls_rsa_validate_params:P <- $r6
	@DEBUG_VALUE: mbedtls_rsa_validate_params:N <- [DW_OP_plus_uconst 4] [$sp+0]
	@DEBUG_VALUE: mbedtls_rsa_validate_params:Q <- [DW_OP_plus_uconst 8] [$sp+0]
	@DEBUG_VALUE: mbedtls_rsa_validate_params:D <- [$sp+0]
	@DEBUG_VALUE: mbedtls_rsa_validate_params:E <- [DW_OP_plus_uconst 56] [$sp+0]
	@DEBUG_VALUE: mbedtls_rsa_validate_params:f_rng <- [DW_OP_plus_uconst 60] [$sp+0]
	@DEBUG_VALUE: mbedtls_rsa_validate_params:p_rng <- [DW_OP_plus_uconst 64] [$sp+0]
	@DEBUG_VALUE: mbedtls_rsa_validate_params:ret <- 0
	cmp	r7, #0
	beq	.LBB3_33
.Ltmp244:
@ %bb.20:
	@DEBUG_VALUE: mbedtls_rsa_validate_params:P <- $r6
	@DEBUG_VALUE: mbedtls_rsa_validate_params:N <- [DW_OP_plus_uconst 4] [$sp+0]
	@DEBUG_VALUE: mbedtls_rsa_validate_params:Q <- [DW_OP_plus_uconst 8] [$sp+0]
	@DEBUG_VALUE: mbedtls_rsa_validate_params:D <- [$sp+0]
	@DEBUG_VALUE: mbedtls_rsa_validate_params:E <- [DW_OP_plus_uconst 56] [$sp+0]
	@DEBUG_VALUE: mbedtls_rsa_validate_params:f_rng <- [DW_OP_plus_uconst 60] [$sp+0]
	@DEBUG_VALUE: mbedtls_rsa_validate_params:p_rng <- [DW_OP_plus_uconst 64] [$sp+0]
	@DEBUG_VALUE: mbedtls_rsa_validate_params:ret <- 0
	.loc	2 0 19 is_stmt 0                @ ../../../ThirdParty/mbedTLS/library/rsa_internal.c:0:19
	movs	r1, #1
.Ltmp245:
	.loc	2 414 13 is_stmt 1              @ ../../../ThirdParty/mbedTLS/library/rsa_internal.c:414:13
	mov	r0, r6
	bl	mbedtls_mpi_cmp_int
	.loc	2 414 46 is_stmt 0              @ ../../../ThirdParty/mbedTLS/library/rsa_internal.c:414:46
	cmp	r0, #1
.Ltmp246:
	.loc	2 0 0                           @ ../../../ThirdParty/mbedTLS/library/rsa_internal.c:0:0
	ldr	r5, __arm_cp.3_0
.Ltmp247:
	.loc	2 414 46                        @ ../../../ThirdParty/mbedTLS/library/rsa_internal.c:414:46
	blt	.LBB3_33
.Ltmp248:
@ %bb.21:
	@DEBUG_VALUE: mbedtls_rsa_validate_params:P <- $r6
	@DEBUG_VALUE: mbedtls_rsa_validate_params:N <- [DW_OP_plus_uconst 4] [$sp+0]
	@DEBUG_VALUE: mbedtls_rsa_validate_params:Q <- [DW_OP_plus_uconst 8] [$sp+0]
	@DEBUG_VALUE: mbedtls_rsa_validate_params:D <- [$sp+0]
	@DEBUG_VALUE: mbedtls_rsa_validate_params:E <- [DW_OP_plus_uconst 56] [$sp+0]
	@DEBUG_VALUE: mbedtls_rsa_validate_params:f_rng <- [DW_OP_plus_uconst 60] [$sp+0]
	@DEBUG_VALUE: mbedtls_rsa_validate_params:p_rng <- [DW_OP_plus_uconst 64] [$sp+0]
	@DEBUG_VALUE: mbedtls_rsa_validate_params:ret <- 0
	.loc	2 0 46                          @ ../../../ThirdParty/mbedTLS/library/rsa_internal.c:0:46
	movs	r1, #1
	.loc	2 415 17 is_stmt 1              @ ../../../ThirdParty/mbedTLS/library/rsa_internal.c:415:17
	ldr	r0, [sp, #8]                    @ 4-byte Reload
	bl	mbedtls_mpi_cmp_int
.Ltmp249:
	.loc	2 414 13                        @ ../../../ThirdParty/mbedTLS/library/rsa_internal.c:414:13
	cmp	r0, #1
.Ltmp250:
	.loc	2 0 0 is_stmt 0                 @ ../../../ThirdParty/mbedTLS/library/rsa_internal.c:0:0
	ldr	r5, __arm_cp.3_0
.Ltmp251:
	.loc	2 414 13                        @ ../../../ThirdParty/mbedTLS/library/rsa_internal.c:414:13
	blt	.LBB3_33
.Ltmp252:
@ %bb.22:
	@DEBUG_VALUE: mbedtls_rsa_validate_params:P <- $r6
	@DEBUG_VALUE: mbedtls_rsa_validate_params:N <- [DW_OP_plus_uconst 4] [$sp+0]
	@DEBUG_VALUE: mbedtls_rsa_validate_params:Q <- [DW_OP_plus_uconst 8] [$sp+0]
	@DEBUG_VALUE: mbedtls_rsa_validate_params:D <- [$sp+0]
	@DEBUG_VALUE: mbedtls_rsa_validate_params:E <- [DW_OP_plus_uconst 56] [$sp+0]
	@DEBUG_VALUE: mbedtls_rsa_validate_params:f_rng <- [DW_OP_plus_uconst 60] [$sp+0]
	@DEBUG_VALUE: mbedtls_rsa_validate_params:p_rng <- [DW_OP_plus_uconst 64] [$sp+0]
	@DEBUG_VALUE: mbedtls_rsa_validate_params:ret <- 0
	.loc	2 0 13                          @ ../../../ThirdParty/mbedTLS/library/rsa_internal.c:0:13
	add	r0, sp, #24
.Ltmp253:
	.loc	2 422 9 is_stmt 1               @ ../../../ThirdParty/mbedTLS/library/rsa_internal.c:422:9
	ldr	r1, [sp]                        @ 4-byte Reload
	mov	r2, r7
	bl	mbedtls_mpi_mul_mpi
	mov	r5, r0
.Ltmp254:
	@DEBUG_VALUE: mbedtls_rsa_validate_params:ret <- $r5
	.loc	2 422 9 is_stmt 0               @ ../../../ThirdParty/mbedTLS/library/rsa_internal.c:422:9
	cbnz	r0, .LBB3_33
.Ltmp255:
@ %bb.23:
	@DEBUG_VALUE: mbedtls_rsa_validate_params:P <- $r6
	@DEBUG_VALUE: mbedtls_rsa_validate_params:ret <- $r5
	@DEBUG_VALUE: mbedtls_rsa_validate_params:N <- [DW_OP_plus_uconst 4] [$sp+0]
	@DEBUG_VALUE: mbedtls_rsa_validate_params:Q <- [DW_OP_plus_uconst 8] [$sp+0]
	@DEBUG_VALUE: mbedtls_rsa_validate_params:D <- [$sp+0]
	@DEBUG_VALUE: mbedtls_rsa_validate_params:E <- [DW_OP_plus_uconst 56] [$sp+0]
	@DEBUG_VALUE: mbedtls_rsa_validate_params:f_rng <- [DW_OP_plus_uconst 60] [$sp+0]
	@DEBUG_VALUE: mbedtls_rsa_validate_params:p_rng <- [DW_OP_plus_uconst 64] [$sp+0]
	.loc	2 0 9                           @ ../../../ThirdParty/mbedTLS/library/rsa_internal.c:0:9
	add	r0, sp, #24
	movs	r2, #1
.Ltmp256:
	.loc	2 423 9 is_stmt 1               @ ../../../ThirdParty/mbedTLS/library/rsa_internal.c:423:9
	mov	r1, r0
	bl	mbedtls_mpi_sub_int
	mov	r5, r0
.Ltmp257:
	@DEBUG_VALUE: mbedtls_rsa_validate_params:ret <- $r5
	.loc	2 423 9 is_stmt 0               @ ../../../ThirdParty/mbedTLS/library/rsa_internal.c:423:9
	cbnz	r0, .LBB3_33
.Ltmp258:
@ %bb.24:
	@DEBUG_VALUE: mbedtls_rsa_validate_params:P <- $r6
	@DEBUG_VALUE: mbedtls_rsa_validate_params:ret <- $r5
	@DEBUG_VALUE: mbedtls_rsa_validate_params:N <- [DW_OP_plus_uconst 4] [$sp+0]
	@DEBUG_VALUE: mbedtls_rsa_validate_params:Q <- [DW_OP_plus_uconst 8] [$sp+0]
	@DEBUG_VALUE: mbedtls_rsa_validate_params:D <- [$sp+0]
	@DEBUG_VALUE: mbedtls_rsa_validate_params:E <- [DW_OP_plus_uconst 56] [$sp+0]
	@DEBUG_VALUE: mbedtls_rsa_validate_params:f_rng <- [DW_OP_plus_uconst 60] [$sp+0]
	@DEBUG_VALUE: mbedtls_rsa_validate_params:p_rng <- [DW_OP_plus_uconst 64] [$sp+0]
	.loc	2 0 9                           @ ../../../ThirdParty/mbedTLS/library/rsa_internal.c:0:9
	add	r0, sp, #12
	movs	r2, #1
.Ltmp259:
	.loc	2 424 9 is_stmt 1               @ ../../../ThirdParty/mbedTLS/library/rsa_internal.c:424:9
	mov	r1, r6
	bl	mbedtls_mpi_sub_int
	mov	r5, r0
.Ltmp260:
	@DEBUG_VALUE: mbedtls_rsa_validate_params:ret <- $r5
	.loc	2 424 9 is_stmt 0               @ ../../../ThirdParty/mbedTLS/library/rsa_internal.c:424:9
	cbnz	r0, .LBB3_33
.Ltmp261:
@ %bb.25:
	@DEBUG_VALUE: mbedtls_rsa_validate_params:P <- $r6
	@DEBUG_VALUE: mbedtls_rsa_validate_params:ret <- $r5
	@DEBUG_VALUE: mbedtls_rsa_validate_params:N <- [DW_OP_plus_uconst 4] [$sp+0]
	@DEBUG_VALUE: mbedtls_rsa_validate_params:Q <- [DW_OP_plus_uconst 8] [$sp+0]
	@DEBUG_VALUE: mbedtls_rsa_validate_params:D <- [$sp+0]
	@DEBUG_VALUE: mbedtls_rsa_validate_params:E <- [DW_OP_plus_uconst 56] [$sp+0]
	@DEBUG_VALUE: mbedtls_rsa_validate_params:f_rng <- [DW_OP_plus_uconst 60] [$sp+0]
	@DEBUG_VALUE: mbedtls_rsa_validate_params:p_rng <- [DW_OP_plus_uconst 64] [$sp+0]
	.loc	2 0 9                           @ ../../../ThirdParty/mbedTLS/library/rsa_internal.c:0:9
	add	r0, sp, #24
	add	r2, sp, #12
.Ltmp262:
	.loc	2 425 9 is_stmt 1               @ ../../../ThirdParty/mbedTLS/library/rsa_internal.c:425:9
	mov	r1, r0
	bl	mbedtls_mpi_mod_mpi
	mov	r5, r0
.Ltmp263:
	@DEBUG_VALUE: mbedtls_rsa_validate_params:ret <- $r5
	.loc	2 425 9 is_stmt 0               @ ../../../ThirdParty/mbedTLS/library/rsa_internal.c:425:9
	cbnz	r0, .LBB3_33
.Ltmp264:
@ %bb.26:
	@DEBUG_VALUE: mbedtls_rsa_validate_params:P <- $r6
	@DEBUG_VALUE: mbedtls_rsa_validate_params:ret <- $r5
	@DEBUG_VALUE: mbedtls_rsa_validate_params:N <- [DW_OP_plus_uconst 4] [$sp+0]
	@DEBUG_VALUE: mbedtls_rsa_validate_params:Q <- [DW_OP_plus_uconst 8] [$sp+0]
	@DEBUG_VALUE: mbedtls_rsa_validate_params:D <- [$sp+0]
	@DEBUG_VALUE: mbedtls_rsa_validate_params:E <- [DW_OP_plus_uconst 56] [$sp+0]
	@DEBUG_VALUE: mbedtls_rsa_validate_params:f_rng <- [DW_OP_plus_uconst 60] [$sp+0]
	@DEBUG_VALUE: mbedtls_rsa_validate_params:p_rng <- [DW_OP_plus_uconst 64] [$sp+0]
	.loc	2 0 9                           @ ../../../ThirdParty/mbedTLS/library/rsa_internal.c:0:9
	add	r0, sp, #24
	movs	r1, #0
.Ltmp265:
	.loc	2 426 13 is_stmt 1              @ ../../../ThirdParty/mbedTLS/library/rsa_internal.c:426:13
	bl	mbedtls_mpi_cmp_int
.Ltmp266:
	.loc	2 0 0 is_stmt 0                 @ ../../../ThirdParty/mbedTLS/library/rsa_internal.c:0:0
	ldr	r5, __arm_cp.3_0
.Ltmp267:
	.loc	2 426 13                        @ ../../../ThirdParty/mbedTLS/library/rsa_internal.c:426:13
	cbnz	r0, .LBB3_33
.Ltmp268:
@ %bb.27:
	@DEBUG_VALUE: mbedtls_rsa_validate_params:P <- $r6
	@DEBUG_VALUE: mbedtls_rsa_validate_params:N <- [DW_OP_plus_uconst 4] [$sp+0]
	@DEBUG_VALUE: mbedtls_rsa_validate_params:Q <- [DW_OP_plus_uconst 8] [$sp+0]
	@DEBUG_VALUE: mbedtls_rsa_validate_params:D <- [$sp+0]
	@DEBUG_VALUE: mbedtls_rsa_validate_params:E <- [DW_OP_plus_uconst 56] [$sp+0]
	@DEBUG_VALUE: mbedtls_rsa_validate_params:f_rng <- [DW_OP_plus_uconst 60] [$sp+0]
	@DEBUG_VALUE: mbedtls_rsa_validate_params:p_rng <- [DW_OP_plus_uconst 64] [$sp+0]
	.loc	2 0 13                          @ ../../../ThirdParty/mbedTLS/library/rsa_internal.c:0:13
	add	r0, sp, #24
.Ltmp269:
	.loc	2 433 9 is_stmt 1               @ ../../../ThirdParty/mbedTLS/library/rsa_internal.c:433:9
	ldr	r1, [sp]                        @ 4-byte Reload
	mov	r2, r7
	bl	mbedtls_mpi_mul_mpi
	mov	r5, r0
.Ltmp270:
	@DEBUG_VALUE: mbedtls_rsa_validate_params:ret <- $r5
	.loc	2 433 9 is_stmt 0               @ ../../../ThirdParty/mbedTLS/library/rsa_internal.c:433:9
	cbnz	r0, .LBB3_33
.Ltmp271:
@ %bb.28:
	@DEBUG_VALUE: mbedtls_rsa_validate_params:P <- $r6
	@DEBUG_VALUE: mbedtls_rsa_validate_params:ret <- $r5
	@DEBUG_VALUE: mbedtls_rsa_validate_params:N <- [DW_OP_plus_uconst 4] [$sp+0]
	@DEBUG_VALUE: mbedtls_rsa_validate_params:Q <- [DW_OP_plus_uconst 8] [$sp+0]
	@DEBUG_VALUE: mbedtls_rsa_validate_params:D <- [$sp+0]
	@DEBUG_VALUE: mbedtls_rsa_validate_params:E <- [DW_OP_plus_uconst 56] [$sp+0]
	@DEBUG_VALUE: mbedtls_rsa_validate_params:f_rng <- [DW_OP_plus_uconst 60] [$sp+0]
	@DEBUG_VALUE: mbedtls_rsa_validate_params:p_rng <- [DW_OP_plus_uconst 64] [$sp+0]
	.loc	2 0 9                           @ ../../../ThirdParty/mbedTLS/library/rsa_internal.c:0:9
	add	r0, sp, #24
	movs	r2, #1
.Ltmp272:
	.loc	2 434 9 is_stmt 1               @ ../../../ThirdParty/mbedTLS/library/rsa_internal.c:434:9
	mov	r1, r0
	bl	mbedtls_mpi_sub_int
	mov	r5, r0
.Ltmp273:
	@DEBUG_VALUE: mbedtls_rsa_validate_params:ret <- $r5
	.loc	2 434 9 is_stmt 0               @ ../../../ThirdParty/mbedTLS/library/rsa_internal.c:434:9
	cbnz	r0, .LBB3_33
.Ltmp274:
@ %bb.29:
	@DEBUG_VALUE: mbedtls_rsa_validate_params:P <- $r6
	@DEBUG_VALUE: mbedtls_rsa_validate_params:ret <- $r5
	@DEBUG_VALUE: mbedtls_rsa_validate_params:N <- [DW_OP_plus_uconst 4] [$sp+0]
	@DEBUG_VALUE: mbedtls_rsa_validate_params:Q <- [DW_OP_plus_uconst 8] [$sp+0]
	@DEBUG_VALUE: mbedtls_rsa_validate_params:D <- [$sp+0]
	@DEBUG_VALUE: mbedtls_rsa_validate_params:E <- [DW_OP_plus_uconst 56] [$sp+0]
	@DEBUG_VALUE: mbedtls_rsa_validate_params:f_rng <- [DW_OP_plus_uconst 60] [$sp+0]
	@DEBUG_VALUE: mbedtls_rsa_validate_params:p_rng <- [DW_OP_plus_uconst 64] [$sp+0]
	.loc	2 0 9                           @ ../../../ThirdParty/mbedTLS/library/rsa_internal.c:0:9
	add	r0, sp, #12
	movs	r2, #1
.Ltmp275:
	.loc	2 435 9 is_stmt 1               @ ../../../ThirdParty/mbedTLS/library/rsa_internal.c:435:9
	ldr	r1, [sp, #8]                    @ 4-byte Reload
	bl	mbedtls_mpi_sub_int
	mov	r5, r0
.Ltmp276:
	@DEBUG_VALUE: mbedtls_rsa_validate_params:ret <- $r5
	.loc	2 435 9 is_stmt 0               @ ../../../ThirdParty/mbedTLS/library/rsa_internal.c:435:9
	cbnz	r0, .LBB3_33
.Ltmp277:
@ %bb.30:
	@DEBUG_VALUE: mbedtls_rsa_validate_params:P <- $r6
	@DEBUG_VALUE: mbedtls_rsa_validate_params:ret <- $r5
	@DEBUG_VALUE: mbedtls_rsa_validate_params:N <- [DW_OP_plus_uconst 4] [$sp+0]
	@DEBUG_VALUE: mbedtls_rsa_validate_params:Q <- [DW_OP_plus_uconst 8] [$sp+0]
	@DEBUG_VALUE: mbedtls_rsa_validate_params:D <- [$sp+0]
	@DEBUG_VALUE: mbedtls_rsa_validate_params:E <- [DW_OP_plus_uconst 56] [$sp+0]
	@DEBUG_VALUE: mbedtls_rsa_validate_params:f_rng <- [DW_OP_plus_uconst 60] [$sp+0]
	@DEBUG_VALUE: mbedtls_rsa_validate_params:p_rng <- [DW_OP_plus_uconst 64] [$sp+0]
	.loc	2 0 9                           @ ../../../ThirdParty/mbedTLS/library/rsa_internal.c:0:9
	add	r0, sp, #24
	add	r2, sp, #12
.Ltmp278:
	.loc	2 436 9 is_stmt 1               @ ../../../ThirdParty/mbedTLS/library/rsa_internal.c:436:9
	mov	r1, r0
	bl	mbedtls_mpi_mod_mpi
	mov	r5, r0
.Ltmp279:
	@DEBUG_VALUE: mbedtls_rsa_validate_params:ret <- $r5
	.loc	2 436 9 is_stmt 0               @ ../../../ThirdParty/mbedTLS/library/rsa_internal.c:436:9
	cbnz	r0, .LBB3_33
.Ltmp280:
@ %bb.31:
	@DEBUG_VALUE: mbedtls_rsa_validate_params:P <- $r6
	@DEBUG_VALUE: mbedtls_rsa_validate_params:ret <- $r5
	@DEBUG_VALUE: mbedtls_rsa_validate_params:N <- [DW_OP_plus_uconst 4] [$sp+0]
	@DEBUG_VALUE: mbedtls_rsa_validate_params:Q <- [DW_OP_plus_uconst 8] [$sp+0]
	@DEBUG_VALUE: mbedtls_rsa_validate_params:D <- [$sp+0]
	@DEBUG_VALUE: mbedtls_rsa_validate_params:E <- [DW_OP_plus_uconst 56] [$sp+0]
	@DEBUG_VALUE: mbedtls_rsa_validate_params:f_rng <- [DW_OP_plus_uconst 60] [$sp+0]
	@DEBUG_VALUE: mbedtls_rsa_validate_params:p_rng <- [DW_OP_plus_uconst 64] [$sp+0]
	.loc	2 0 9                           @ ../../../ThirdParty/mbedTLS/library/rsa_internal.c:0:9
	add	r0, sp, #24
	movs	r1, #0
.Ltmp281:
	.loc	2 437 13 is_stmt 1              @ ../../../ThirdParty/mbedTLS/library/rsa_internal.c:437:13
	bl	mbedtls_mpi_cmp_int
.Ltmp282:
	.loc	2 437 13 is_stmt 0              @ ../../../ThirdParty/mbedTLS/library/rsa_internal.c:437:13
	ldr	r5, __arm_cp.3_0
.Ltmp283:
	cbnz	r0, .LBB3_33
.Ltmp284:
@ %bb.32:
	@DEBUG_VALUE: mbedtls_rsa_validate_params:P <- $r6
	@DEBUG_VALUE: mbedtls_rsa_validate_params:N <- [DW_OP_plus_uconst 4] [$sp+0]
	@DEBUG_VALUE: mbedtls_rsa_validate_params:Q <- [DW_OP_plus_uconst 8] [$sp+0]
	@DEBUG_VALUE: mbedtls_rsa_validate_params:D <- [$sp+0]
	@DEBUG_VALUE: mbedtls_rsa_validate_params:E <- [DW_OP_plus_uconst 56] [$sp+0]
	@DEBUG_VALUE: mbedtls_rsa_validate_params:f_rng <- [DW_OP_plus_uconst 60] [$sp+0]
	@DEBUG_VALUE: mbedtls_rsa_validate_params:p_rng <- [DW_OP_plus_uconst 64] [$sp+0]
	mov	r5, r0
.Ltmp285:
.LBB3_33:
	@DEBUG_VALUE: mbedtls_rsa_validate_params:P <- $r6
	@DEBUG_VALUE: mbedtls_rsa_validate_params:N <- [DW_OP_plus_uconst 4] [$sp+0]
	@DEBUG_VALUE: mbedtls_rsa_validate_params:Q <- [DW_OP_plus_uconst 8] [$sp+0]
	@DEBUG_VALUE: mbedtls_rsa_validate_params:D <- [$sp+0]
	@DEBUG_VALUE: mbedtls_rsa_validate_params:E <- [DW_OP_plus_uconst 56] [$sp+0]
	@DEBUG_VALUE: mbedtls_rsa_validate_params:f_rng <- [DW_OP_plus_uconst 60] [$sp+0]
	@DEBUG_VALUE: mbedtls_rsa_validate_params:p_rng <- [DW_OP_plus_uconst 64] [$sp+0]
	@DEBUG_VALUE: mbedtls_rsa_validate_params:ret <- $r5
	@DEBUG_LABEL: mbedtls_rsa_validate_params:cleanup
	.loc	2 0 13                          @ ../../../ThirdParty/mbedTLS/library/rsa_internal.c:0:13
	add	r0, sp, #24
	.loc	2 446 5 is_stmt 1               @ ../../../ThirdParty/mbedTLS/library/rsa_internal.c:446:5
	bl	mbedtls_mpi_free
	add	r0, sp, #12
	.loc	2 447 5                         @ ../../../ThirdParty/mbedTLS/library/rsa_internal.c:447:5
	bl	mbedtls_mpi_free
.Ltmp286:
	.loc	2 450 18                        @ ../../../ThirdParty/mbedTLS/library/rsa_internal.c:450:18
	ldr	r0, __arm_cp.3_0
	cmp	r5, r0
	beq	.LBB3_36
.Ltmp287:
@ %bb.34:
	@DEBUG_VALUE: mbedtls_rsa_validate_params:P <- $r6
	@DEBUG_VALUE: mbedtls_rsa_validate_params:ret <- $r5
	@DEBUG_VALUE: mbedtls_rsa_validate_params:N <- [DW_OP_plus_uconst 4] [$sp+0]
	@DEBUG_VALUE: mbedtls_rsa_validate_params:Q <- [DW_OP_plus_uconst 8] [$sp+0]
	@DEBUG_VALUE: mbedtls_rsa_validate_params:D <- [$sp+0]
	@DEBUG_VALUE: mbedtls_rsa_validate_params:E <- [DW_OP_plus_uconst 56] [$sp+0]
	@DEBUG_VALUE: mbedtls_rsa_validate_params:f_rng <- [DW_OP_plus_uconst 60] [$sp+0]
	@DEBUG_VALUE: mbedtls_rsa_validate_params:p_rng <- [DW_OP_plus_uconst 64] [$sp+0]
	cbz	r5, .LBB3_36
.Ltmp288:
@ %bb.35:
	@DEBUG_VALUE: mbedtls_rsa_validate_params:P <- $r6
	@DEBUG_VALUE: mbedtls_rsa_validate_params:ret <- $r5
	@DEBUG_VALUE: mbedtls_rsa_validate_params:N <- [DW_OP_plus_uconst 4] [$sp+0]
	@DEBUG_VALUE: mbedtls_rsa_validate_params:Q <- [DW_OP_plus_uconst 8] [$sp+0]
	@DEBUG_VALUE: mbedtls_rsa_validate_params:D <- [$sp+0]
	@DEBUG_VALUE: mbedtls_rsa_validate_params:E <- [DW_OP_plus_uconst 56] [$sp+0]
	@DEBUG_VALUE: mbedtls_rsa_validate_params:f_rng <- [DW_OP_plus_uconst 60] [$sp+0]
	@DEBUG_VALUE: mbedtls_rsa_validate_params:p_rng <- [DW_OP_plus_uconst 64] [$sp+0]
	.loc	2 452 13                        @ ../../../ThirdParty/mbedTLS/library/rsa_internal.c:452:13
	ldr	r0, __arm_cp.3_0
	adds	r5, r5, r0
.Ltmp289:
	@DEBUG_VALUE: mbedtls_rsa_validate_params:ret <- $r5
.LBB3_36:
	@DEBUG_VALUE: mbedtls_rsa_validate_params:P <- $r6
	@DEBUG_VALUE: mbedtls_rsa_validate_params:ret <- $r5
	@DEBUG_VALUE: mbedtls_rsa_validate_params:N <- [DW_OP_plus_uconst 4] [$sp+0]
	@DEBUG_VALUE: mbedtls_rsa_validate_params:Q <- [DW_OP_plus_uconst 8] [$sp+0]
	@DEBUG_VALUE: mbedtls_rsa_validate_params:D <- [$sp+0]
	@DEBUG_VALUE: mbedtls_rsa_validate_params:E <- [DW_OP_plus_uconst 56] [$sp+0]
	@DEBUG_VALUE: mbedtls_rsa_validate_params:f_rng <- [DW_OP_plus_uconst 60] [$sp+0]
	@DEBUG_VALUE: mbedtls_rsa_validate_params:p_rng <- [DW_OP_plus_uconst 64] [$sp+0]
	@DEBUG_VALUE: mbedtls_rsa_validate_params:ret <- $r5
	.loc	2 455 5                         @ ../../../ThirdParty/mbedTLS/library/rsa_internal.c:455:5
	mov	r0, r5
	add	sp, #36
.Ltmp290:
	pop	{r4, r5, r6, r7, pc}
.Ltmp291:
	.p2align	2
@ %bb.37:
	.loc	2 0 5 is_stmt 0                 @ ../../../ThirdParty/mbedTLS/library/rsa_internal.c:0:5
__arm_cp.3_0:
	.long	4294950400                      @ 0xffffbe00
.Lcpi_end2:
	.size	__arm_cp.3_0, .Lcpi_end2-__arm_cp.3_0
.Lfunc_end3:
	.size	mbedtls_rsa_validate_params, .Lfunc_end3-mbedtls_rsa_validate_params
	.cfi_endproc
	.cantunwind
	.fnend
                                        @ -- End function
	.section	.text.mbedtls_rsa_deduce_crt,"ax",%progbits
	.hidden	mbedtls_rsa_deduce_crt          @ -- Begin function mbedtls_rsa_deduce_crt
	.globl	mbedtls_rsa_deduce_crt
	.p2align	1
	.type	mbedtls_rsa_deduce_crt,%function
	.code	16                              @ @mbedtls_rsa_deduce_crt
	.thumb_func
mbedtls_rsa_deduce_crt:
.Lfunc_begin4:
	.loc	2 461 0 is_stmt 1               @ ../../../ThirdParty/mbedTLS/library/rsa_internal.c:461:0
	.fnstart
	.cfi_startproc
@ %bb.0:
	@DEBUG_VALUE: mbedtls_rsa_deduce_crt:P <- $r0
	@DEBUG_VALUE: mbedtls_rsa_deduce_crt:Q <- $r1
	@DEBUG_VALUE: mbedtls_rsa_deduce_crt:D <- $r2
	@DEBUG_VALUE: mbedtls_rsa_deduce_crt:DP <- $r3
	.save	{r4, r5, r6, r7, lr}
	push	{r4, r5, r6, r7, lr}
	.cfi_def_cfa_offset 20
	.cfi_offset lr, -4
	.cfi_offset r7, -8
	.cfi_offset r6, -12
	.cfi_offset r5, -16
	.cfi_offset r4, -20
	.pad	#20
	sub	sp, #20
	.cfi_def_cfa_offset 40
	mov	r5, r3
	mov	r6, r2
	str	r1, [sp, #4]                    @ 4-byte Spill
	mov	r4, r0
.Ltmp292:
	@DEBUG_VALUE: mbedtls_rsa_deduce_crt:ret <- 0
	@DEBUG_VALUE: mbedtls_rsa_deduce_crt:QP <- [DW_OP_plus_uconst 44] [$sp+0]
	@DEBUG_VALUE: mbedtls_rsa_deduce_crt:DQ <- [DW_OP_plus_uconst 40] [$sp+0]
	@DEBUG_VALUE: mbedtls_rsa_deduce_crt:DP <- $r5
	@DEBUG_VALUE: mbedtls_rsa_deduce_crt:D <- $r6
	@DEBUG_VALUE: mbedtls_rsa_deduce_crt:Q <- [DW_OP_plus_uconst 4] [$sp+0]
	@DEBUG_VALUE: mbedtls_rsa_deduce_crt:P <- $r4
	add	r0, sp, #8
.Ltmp293:
	.loc	2 464 5 prologue_end            @ ../../../ThirdParty/mbedTLS/library/rsa_internal.c:464:5
	bl	mbedtls_mpi_init
	.loc	2 467 9                         @ ../../../ThirdParty/mbedTLS/library/rsa_internal.c:467:9
	cbz	r5, .LBB4_3
.Ltmp294:
@ %bb.1:
	@DEBUG_VALUE: mbedtls_rsa_deduce_crt:D <- $r6
	@DEBUG_VALUE: mbedtls_rsa_deduce_crt:DP <- $r5
	@DEBUG_VALUE: mbedtls_rsa_deduce_crt:P <- $r4
	@DEBUG_VALUE: mbedtls_rsa_deduce_crt:Q <- [DW_OP_plus_uconst 4] [$sp+0]
	@DEBUG_VALUE: mbedtls_rsa_deduce_crt:DQ <- [DW_OP_plus_uconst 40] [$sp+0]
	@DEBUG_VALUE: mbedtls_rsa_deduce_crt:QP <- [DW_OP_plus_uconst 44] [$sp+0]
	@DEBUG_VALUE: mbedtls_rsa_deduce_crt:ret <- 0
	.loc	2 0 9 is_stmt 0                 @ ../../../ThirdParty/mbedTLS/library/rsa_internal.c:0:9
	add	r0, sp, #8
	movs	r2, #1
.Ltmp295:
	.loc	2 469 9 is_stmt 1               @ ../../../ThirdParty/mbedTLS/library/rsa_internal.c:469:9
	mov	r1, r4
	bl	mbedtls_mpi_sub_int
	mov	r7, r0
.Ltmp296:
	@DEBUG_VALUE: mbedtls_rsa_deduce_crt:ret <- $r7
	.loc	2 469 9 is_stmt 0               @ ../../../ThirdParty/mbedTLS/library/rsa_internal.c:469:9
	cbnz	r0, .LBB4_9
.Ltmp297:
@ %bb.2:
	@DEBUG_VALUE: mbedtls_rsa_deduce_crt:ret <- $r7
	@DEBUG_VALUE: mbedtls_rsa_deduce_crt:D <- $r6
	@DEBUG_VALUE: mbedtls_rsa_deduce_crt:DP <- $r5
	@DEBUG_VALUE: mbedtls_rsa_deduce_crt:P <- $r4
	@DEBUG_VALUE: mbedtls_rsa_deduce_crt:Q <- [DW_OP_plus_uconst 4] [$sp+0]
	@DEBUG_VALUE: mbedtls_rsa_deduce_crt:DQ <- [DW_OP_plus_uconst 40] [$sp+0]
	@DEBUG_VALUE: mbedtls_rsa_deduce_crt:QP <- [DW_OP_plus_uconst 44] [$sp+0]
	.loc	2 0 9                           @ ../../../ThirdParty/mbedTLS/library/rsa_internal.c:0:9
	add	r2, sp, #8
.Ltmp298:
	.loc	2 470 9 is_stmt 1               @ ../../../ThirdParty/mbedTLS/library/rsa_internal.c:470:9
	mov	r0, r5
	mov	r1, r6
	bl	mbedtls_mpi_mod_mpi
	mov	r7, r0
.Ltmp299:
	@DEBUG_VALUE: mbedtls_rsa_deduce_crt:ret <- $r7
	.loc	2 470 9 is_stmt 0               @ ../../../ThirdParty/mbedTLS/library/rsa_internal.c:470:9
	cbnz	r0, .LBB4_9
.Ltmp300:
.LBB4_3:
	@DEBUG_VALUE: mbedtls_rsa_deduce_crt:D <- $r6
	@DEBUG_VALUE: mbedtls_rsa_deduce_crt:DP <- $r5
	@DEBUG_VALUE: mbedtls_rsa_deduce_crt:P <- $r4
	@DEBUG_VALUE: mbedtls_rsa_deduce_crt:Q <- [DW_OP_plus_uconst 4] [$sp+0]
	@DEBUG_VALUE: mbedtls_rsa_deduce_crt:DQ <- [DW_OP_plus_uconst 40] [$sp+0]
	@DEBUG_VALUE: mbedtls_rsa_deduce_crt:QP <- [DW_OP_plus_uconst 44] [$sp+0]
	.loc	2 0 9                           @ ../../../ThirdParty/mbedTLS/library/rsa_internal.c:0:9
	ldr	r5, [sp, #40]
.Ltmp301:
	@DEBUG_VALUE: mbedtls_rsa_deduce_crt:ret <- 0
	.loc	2 474 9 is_stmt 1               @ ../../../ThirdParty/mbedTLS/library/rsa_internal.c:474:9
	cbz	r5, .LBB4_6
.Ltmp302:
@ %bb.4:
	@DEBUG_VALUE: mbedtls_rsa_deduce_crt:D <- $r6
	@DEBUG_VALUE: mbedtls_rsa_deduce_crt:P <- $r4
	@DEBUG_VALUE: mbedtls_rsa_deduce_crt:Q <- [DW_OP_plus_uconst 4] [$sp+0]
	@DEBUG_VALUE: mbedtls_rsa_deduce_crt:DQ <- [DW_OP_plus_uconst 40] [$sp+0]
	@DEBUG_VALUE: mbedtls_rsa_deduce_crt:QP <- [DW_OP_plus_uconst 44] [$sp+0]
	@DEBUG_VALUE: mbedtls_rsa_deduce_crt:ret <- 0
	.loc	2 0 9 is_stmt 0                 @ ../../../ThirdParty/mbedTLS/library/rsa_internal.c:0:9
	add	r0, sp, #8
	movs	r2, #1
.Ltmp303:
	.loc	2 476 9 is_stmt 1               @ ../../../ThirdParty/mbedTLS/library/rsa_internal.c:476:9
	ldr	r1, [sp, #4]                    @ 4-byte Reload
	bl	mbedtls_mpi_sub_int
	mov	r7, r0
.Ltmp304:
	@DEBUG_VALUE: mbedtls_rsa_deduce_crt:ret <- $r7
	.loc	2 476 9 is_stmt 0               @ ../../../ThirdParty/mbedTLS/library/rsa_internal.c:476:9
	cbnz	r0, .LBB4_9
.Ltmp305:
@ %bb.5:
	@DEBUG_VALUE: mbedtls_rsa_deduce_crt:ret <- $r7
	@DEBUG_VALUE: mbedtls_rsa_deduce_crt:D <- $r6
	@DEBUG_VALUE: mbedtls_rsa_deduce_crt:P <- $r4
	@DEBUG_VALUE: mbedtls_rsa_deduce_crt:Q <- [DW_OP_plus_uconst 4] [$sp+0]
	@DEBUG_VALUE: mbedtls_rsa_deduce_crt:DQ <- [DW_OP_plus_uconst 40] [$sp+0]
	@DEBUG_VALUE: mbedtls_rsa_deduce_crt:QP <- [DW_OP_plus_uconst 44] [$sp+0]
	.loc	2 0 9                           @ ../../../ThirdParty/mbedTLS/library/rsa_internal.c:0:9
	add	r2, sp, #8
.Ltmp306:
	.loc	2 477 9 is_stmt 1               @ ../../../ThirdParty/mbedTLS/library/rsa_internal.c:477:9
	mov	r0, r5
	mov	r1, r6
	bl	mbedtls_mpi_mod_mpi
	mov	r7, r0
.Ltmp307:
	@DEBUG_VALUE: mbedtls_rsa_deduce_crt:ret <- $r7
	.loc	2 477 9 is_stmt 0               @ ../../../ThirdParty/mbedTLS/library/rsa_internal.c:477:9
	cbnz	r0, .LBB4_9
.Ltmp308:
.LBB4_6:
	@DEBUG_VALUE: mbedtls_rsa_deduce_crt:D <- $r6
	@DEBUG_VALUE: mbedtls_rsa_deduce_crt:P <- $r4
	@DEBUG_VALUE: mbedtls_rsa_deduce_crt:Q <- [DW_OP_plus_uconst 4] [$sp+0]
	@DEBUG_VALUE: mbedtls_rsa_deduce_crt:DQ <- [DW_OP_plus_uconst 40] [$sp+0]
	@DEBUG_VALUE: mbedtls_rsa_deduce_crt:QP <- [DW_OP_plus_uconst 44] [$sp+0]
	.loc	2 0 9                           @ ../../../ThirdParty/mbedTLS/library/rsa_internal.c:0:9
	ldr	r0, [sp, #44]
.Ltmp309:
	@DEBUG_VALUE: mbedtls_rsa_deduce_crt:ret <- 0
	.loc	2 481 9 is_stmt 1               @ ../../../ThirdParty/mbedTLS/library/rsa_internal.c:481:9
	cbz	r0, .LBB4_8
.Ltmp310:
@ %bb.7:
	@DEBUG_VALUE: mbedtls_rsa_deduce_crt:D <- $r6
	@DEBUG_VALUE: mbedtls_rsa_deduce_crt:P <- $r4
	@DEBUG_VALUE: mbedtls_rsa_deduce_crt:Q <- [DW_OP_plus_uconst 4] [$sp+0]
	@DEBUG_VALUE: mbedtls_rsa_deduce_crt:DQ <- [DW_OP_plus_uconst 40] [$sp+0]
	@DEBUG_VALUE: mbedtls_rsa_deduce_crt:QP <- [DW_OP_plus_uconst 44] [$sp+0]
	@DEBUG_VALUE: mbedtls_rsa_deduce_crt:ret <- 0
	.loc	2 483 9                         @ ../../../ThirdParty/mbedTLS/library/rsa_internal.c:483:9
	ldr	r1, [sp, #4]                    @ 4-byte Reload
	mov	r2, r4
	bl	mbedtls_mpi_inv_mod
	mov	r7, r0
.Ltmp311:
	@DEBUG_VALUE: mbedtls_rsa_deduce_crt:ret <- $r7
	.loc	2 0 9 is_stmt 0                 @ ../../../ThirdParty/mbedTLS/library/rsa_internal.c:0:9
	b	.LBB4_9
.Ltmp312:
.LBB4_8:
	@DEBUG_VALUE: mbedtls_rsa_deduce_crt:D <- $r6
	@DEBUG_VALUE: mbedtls_rsa_deduce_crt:P <- $r4
	@DEBUG_VALUE: mbedtls_rsa_deduce_crt:Q <- [DW_OP_plus_uconst 4] [$sp+0]
	@DEBUG_VALUE: mbedtls_rsa_deduce_crt:DQ <- [DW_OP_plus_uconst 40] [$sp+0]
	@DEBUG_VALUE: mbedtls_rsa_deduce_crt:QP <- [DW_OP_plus_uconst 44] [$sp+0]
	@DEBUG_VALUE: mbedtls_rsa_deduce_crt:ret <- 0
	movs	r7, #0
.Ltmp313:
.LBB4_9:
	@DEBUG_VALUE: mbedtls_rsa_deduce_crt:D <- $r6
	@DEBUG_VALUE: mbedtls_rsa_deduce_crt:P <- $r4
	@DEBUG_VALUE: mbedtls_rsa_deduce_crt:Q <- [DW_OP_plus_uconst 4] [$sp+0]
	@DEBUG_VALUE: mbedtls_rsa_deduce_crt:DQ <- [DW_OP_plus_uconst 40] [$sp+0]
	@DEBUG_VALUE: mbedtls_rsa_deduce_crt:QP <- [DW_OP_plus_uconst 44] [$sp+0]
	@DEBUG_VALUE: mbedtls_rsa_deduce_crt:ret <- $r7
	@DEBUG_LABEL: mbedtls_rsa_deduce_crt:cleanup
	add	r0, sp, #8
	.loc	2 487 5 is_stmt 1               @ ../../../ThirdParty/mbedTLS/library/rsa_internal.c:487:5
	bl	mbedtls_mpi_free
	.loc	2 489 5                         @ ../../../ThirdParty/mbedTLS/library/rsa_internal.c:489:5
	mov	r0, r7
	add	sp, #20
.Ltmp314:
	pop	{r4, r5, r6, r7, pc}
.Ltmp315:
.Lfunc_end4:
	.size	mbedtls_rsa_deduce_crt, .Lfunc_end4-mbedtls_rsa_deduce_crt
	.cfi_endproc
	.cantunwind
	.fnend
                                        @ -- End function
	.file	3 "C:\\Users\\shw26\\OneDrive\\Desktop\\2021\\2021-1\\\354\272\241\354\212\244\355\206\244\353\224\224\354\236\220\354\235\2702\\Nuvoton\\M2351_BSP_v3.00.004\\M2351Series_BSP_CMSIS_V3.00.004\\MyProject\\PulseMonitoring\\Secure" "../../../ThirdParty/mbedTLS/include/mbedtls\\bignum.h"
	.file	4 "C:\\" "Keil_v5\\ARM\\ARMCLANG\\Bin\\..\\include\\stddef.h"
	.section	".note.GNU-stack","",%progbits
	.eabi_attribute	30, 1	@ Tag_ABI_optimization_goals
	.ARM_attribute	16, 1	@ Tag_AV_eba