	.text
	.syntax unified
	.eabi_attribute	67, "2.09"	@ Tag_conformance
	.cpu	cortex-m23
	.eabi_attribute	6, 16	@ Tag_CPU_arch
	.eabi_attribute	7, 77	@ Tag_CPU_arch_profile
	.eabi_attribute	8, 0	@ Tag_ARM_ISA_use
	.eabi_attribute	9, 3	@ Tag_THUMB_ISA_use
	.eabi_attribute	34, 0	@ Tag_CPU_unaligned_access
	.eabi_attribute	17, 1	@ Tag_ABI_PCS_GOT_use
	.eabi_attribute	20, 2	@ Tag_ABI_FP_denormal
	.eabi_attribute	21, 0	@ Tag_ABI_FP_exceptions
	.eabi_attribute	23, 1	@ Tag_ABI_FP_number_model
	.eabi_attribute	24, 1	@ Tag_ABI_align_needed
	.eabi_attribute	25, 1	@ Tag_ABI_align_preserved
	.eabi_attribute	38, 1	@ Tag_ABI_FP_16bit_format
	.eabi_attribute	18, 2	@ Tag_ABI_PCS_wchar_t
	.eabi_attribute	26, 1	@ Tag_ABI_enum_size
	.eabi_attribute	14, 0	@ Tag_ABI_PCS_R9_use
	.file	"sha1.c"
	.file	1 "C:\\Users\\shw26\\OneDrive\\Desktop\\2021\\2021-1\\\354\272\241\354\212\244\355\206\244\353\224\224\354\236\220\354\235\2702\\Nuvoton\\M2351_BSP_v3.00.004\\M2351Series_BSP_CMSIS_V3.00.004\\MyProject\\PulseMonitoring\\Secure" "../../../ThirdParty/mbedTLS/library/sha1.c"
	.file	2 "C:\\" "Keil_v5\\ARM\\ARMCLANG\\Bin\\..\\include\\stddef.h"
	.file	3 "C:\\" "Keil_v5\\ARM\\ARMCLANG\\Bin\\..\\include\\stdint.h"
	.section	.text.mbedtls_sha1_init,"ax",%progbits
	.hidden	mbedtls_sha1_init               @ -- Begin function mbedtls_sha1_init
	.globl	mbedtls_sha1_init
	.p2align	1
	.type	mbedtls_sha1_init,%function
	.code	16                              @ @mbedtls_sha1_init
	.thumb_func
mbedtls_sha1_init:
.Lfunc_begin0:
	.loc	1 80 0                          @ ../../../ThirdParty/mbedTLS/library/sha1.c:80:0
	.fnstart
	.cfi_sections .debug_frame
	.cfi_startproc
@ %bb.0:
	@DEBUG_VALUE: mbedtls_sha1_init:ctx <- $r0
	@DEBUG_VALUE: mbedtls_sha1_init:ctx <- $r0
	.save	{r7, lr}
	push	{r7, lr}
	.cfi_def_cfa_offset 8
	.cfi_offset lr, -4
	.cfi_offset r7, -8
	movs	r1, #92
	@DEBUG_VALUE: mbedtls_sha1_init:ctx <- $r0
.Ltmp0:
	.loc	1 83 5 prologue_end             @ ../../../ThirdParty/mbedTLS/library/sha1.c:83:5
	bl	__aeabi_memclr4
.Ltmp1:
	@DEBUG_VALUE: mbedtls_sha1_init:ctx <- [DW_OP_LLVM_entry_value 1] $r0
	.loc	1 84 1                          @ ../../../ThirdParty/mbedTLS/library/sha1.c:84:1
	pop	{r7, pc}
.Ltmp2:
.Lfunc_end0:
	.size	mbedtls_sha1_init, .Lfunc_end0-mbedtls_sha1_init
	.cfi_endproc
	.cantunwind
	.fnend
                                        @ -- End function
	.section	.text.mbedtls_sha1_free,"ax",%progbits
	.hidden	mbedtls_sha1_free               @ -- Begin function mbedtls_sha1_free
	.globl	mbedtls_sha1_free
	.p2align	1
	.type	mbedtls_sha1_free,%function
	.code	16                              @ @mbedtls_sha1_free
	.thumb_func
mbedtls_sha1_free:
.Lfunc_begin1:
	.loc	1 87 0                          @ ../../../ThirdParty/mbedTLS/library/sha1.c:87:0
	.fnstart
	.cfi_startproc
@ %bb.0:
	@DEBUG_VALUE: mbedtls_sha1_free:ctx <- $r0
	@DEBUG_VALUE: mbedtls_sha1_free:ctx <- $r0
	.save	{r7, lr}
	push	{r7, lr}
	.cfi_def_cfa_offset 8
	.cfi_offset lr, -4
	.cfi_offset r7, -8
.Ltmp3:
	.loc	1 88 9 prologue_end             @ ../../../ThirdParty/mbedTLS/library/sha1.c:88:9
	cbz	r0, .LBB1_2
.Ltmp4:
@ %bb.1:
	@DEBUG_VALUE: mbedtls_sha1_free:ctx <- $r0
	.loc	1 0 9 is_stmt 0                 @ ../../../ThirdParty/mbedTLS/library/sha1.c:0:9
	movs	r1, #92
	.loc	1 91 5 is_stmt 1                @ ../../../ThirdParty/mbedTLS/library/sha1.c:91:5
	bl	mbedtls_platform_zeroize
.Ltmp5:
	@DEBUG_VALUE: mbedtls_sha1_free:ctx <- [DW_OP_LLVM_entry_value 1] $r0
.LBB1_2:
	.loc	1 92 1                          @ ../../../ThirdParty/mbedTLS/library/sha1.c:92:1
	pop	{r7, pc}
.Ltmp6:
.Lfunc_end1:
	.size	mbedtls_sha1_free, .Lfunc_end1-mbedtls_sha1_free
	.cfi_endproc
	.cantunwind
	.fnend
                                        @ -- End function
	.section	.text.mbedtls_sha1_clone,"ax",%progbits
	.hidden	mbedtls_sha1_clone              @ -- Begin function mbedtls_sha1_clone
	.globl	mbedtls_sha1_clone
	.p2align	1
	.type	mbedtls_sha1_clone,%function
	.code	16                              @ @mbedtls_sha1_clone
	.thumb_func
mbedtls_sha1_clone:
.Lfunc_begin2:
	.loc	1 96 0                          @ ../../../ThirdParty/mbedTLS/library/sha1.c:96:0
	.fnstart
	.cfi_startproc
@ %bb.0:
	@DEBUG_VALUE: mbedtls_sha1_clone:dst <- $r0
	@DEBUG_VALUE: mbedtls_sha1_clone:dst <- $r0
	@DEBUG_VALUE: mbedtls_sha1_clone:src <- $r1
	@DEBUG_VALUE: mbedtls_sha1_clone:src <- $r1
	.save	{r7, lr}
	push	{r7, lr}
	.cfi_def_cfa_offset 8
	.cfi_offset lr, -4
	.cfi_offset r7, -8
	movs	r2, #92
	@DEBUG_VALUE: mbedtls_sha1_clone:src <- $r1
	@DEBUG_VALUE: mbedtls_sha1_clone:dst <- $r0
.Ltmp7:
	.loc	1 100 12 prologue_end           @ ../../../ThirdParty/mbedTLS/library/sha1.c:100:12
	bl	__aeabi_memcpy4
.Ltmp8:
	@DEBUG_VALUE: mbedtls_sha1_clone:src <- [DW_OP_LLVM_entry_value 1] $r1
	@DEBUG_VALUE: mbedtls_sha1_clone:dst <- [DW_OP_LLVM_entry_value 1] $r0
	.loc	1 101 1                         @ ../../../ThirdParty/mbedTLS/library/sha1.c:101:1
	pop	{r7, pc}
.Ltmp9:
.Lfunc_end2:
	.size	mbedtls_sha1_clone, .Lfunc_end2-mbedtls_sha1_clone
	.cfi_endproc
	.cantunwind
	.fnend
                                        @ -- End function
	.section	.text.mbedtls_sha1_starts_ret,"ax",%progbits
	.hidden	mbedtls_sha1_starts_ret         @ -- Begin function mbedtls_sha1_starts_ret
	.globl	mbedtls_sha1_starts_ret
	.p2align	2
	.type	mbedtls_sha1_starts_ret,%function
	.code	16                              @ @mbedtls_sha1_starts_ret
	.thumb_func
mbedtls_sha1_starts_ret:
.Lfunc_begin3:
	.loc	1 107 0                         @ ../../../ThirdParty/mbedTLS/library/sha1.c:107:0
	.fnstart
	.cfi_startproc
@ %bb.0:
	@DEBUG_VALUE: mbedtls_sha1_starts_ret:ctx <- $r0
	.save	{r4, r5, r6, lr}
	push	{r4, r5, r6, lr}
	.cfi_def_cfa_offset 16
	.cfi_offset lr, -4
	.cfi_offset r6, -8
	.cfi_offset r5, -12
	.cfi_offset r4, -16
	ldr	r2, __arm_cp.3_0
	ldr	r3, __arm_cp.3_1
	ldr	r4, __arm_cp.3_2
	ldr	r5, __arm_cp.3_3
	ldr	r6, __arm_cp.3_4
	movs	r1, #0
	@DEBUG_VALUE: mbedtls_sha1_starts_ret:ctx <- $r0
.Ltmp10:
	.loc	1 110 19 prologue_end           @ ../../../ThirdParty/mbedTLS/library/sha1.c:110:19
	str	r1, [r0]
	.loc	1 111 19                        @ ../../../ThirdParty/mbedTLS/library/sha1.c:111:19
	str	r1, [r0, #4]
	.loc	1 113 19                        @ ../../../ThirdParty/mbedTLS/library/sha1.c:113:19
	str	r6, [r0, #8]
	.loc	1 114 19                        @ ../../../ThirdParty/mbedTLS/library/sha1.c:114:19
	str	r5, [r0, #12]
	.loc	1 115 19                        @ ../../../ThirdParty/mbedTLS/library/sha1.c:115:19
	str	r4, [r0, #16]
	.loc	1 116 19                        @ ../../../ThirdParty/mbedTLS/library/sha1.c:116:19
	str	r3, [r0, #20]
	.loc	1 117 19                        @ ../../../ThirdParty/mbedTLS/library/sha1.c:117:19
	str	r2, [r0, #24]
	.loc	1 119 5                         @ ../../../ThirdParty/mbedTLS/library/sha1.c:119:5
	mov	r0, r1
.Ltmp11:
	@DEBUG_VALUE: mbedtls_sha1_starts_ret:ctx <- [DW_OP_LLVM_entry_value 1] $r0
	pop	{r4, r5, r6, pc}
.Ltmp12:
	.p2align	2
@ %bb.1:
	.loc	1 0 5 is_stmt 0                 @ ../../../ThirdParty/mbedTLS/library/sha1.c:0:5
__arm_cp.3_0:
	.long	3285377520                      @ 0xc3d2e1f0
.Lcpi_end0:
	.size	__arm_cp.3_0, .Lcpi_end0-__arm_cp.3_0
__arm_cp.3_1:
	.long	271733878                       @ 0x10325476
.Lcpi_end1:
	.size	__arm_cp.3_1, .Lcpi_end1-__arm_cp.3_1
__arm_cp.3_2:
	.long	2562383102                      @ 0x98badcfe
.Lcpi_end2:
	.size	__arm_cp.3_2, .Lcpi_end2-__arm_cp.3_2
__arm_cp.3_3:
	.long	4023233417                      @ 0xefcdab89
.Lcpi_end3:
	.size	__arm_cp.3_3, .Lcpi_end3-__arm_cp.3_3
__arm_cp.3_4:
	.long	1732584193                      @ 0x67452301
.Lcpi_end4:
	.size	__arm_cp.3_4, .Lcpi_end4-__arm_cp.3_4
.Lfunc_end3:
	.size	mbedtls_sha1_starts_ret, .Lfunc_end3-mbedtls_sha1_starts_ret
	.cfi_endproc
	.cantunwind
	.fnend
                                        @ -- End function
	.section	.text.mbedtls_sha1_starts,"ax",%progbits
	.hidden	mbedtls_sha1_starts             @ -- Begin function mbedtls_sha1_starts
	.globl	mbedtls_sha1_starts
	.p2align	1
	.type	mbedtls_sha1_starts,%function
	.code	16                              @ @mbedtls_sha1_starts
	.thumb_func
mbedtls_sha1_starts:
.Lfunc_begin4:
	.loc	1 124 0 is_stmt 1               @ ../../../ThirdParty/mbedTLS/library/sha1.c:124:0
	.fnstart
	.cfi_startproc
@ %bb.0:
	@DEBUG_VALUE: mbedtls_sha1_starts:ctx <- $r0
	@DEBUG_VALUE: mbedtls_sha1_starts:ctx <- $r0
	@DEBUG_VALUE: mbedtls_sha1_starts:ctx <- $r0
	.save	{r7, lr}
	push	{r7, lr}
	.cfi_def_cfa_offset 8
	.cfi_offset lr, -4
	.cfi_offset r7, -8
.Ltmp13:
	.loc	1 125 5 prologue_end            @ ../../../ThirdParty/mbedTLS/library/sha1.c:125:5
	bl	mbedtls_sha1_starts_ret
.Ltmp14:
	@DEBUG_VALUE: mbedtls_sha1_starts:ctx <- [DW_OP_LLVM_entry_value 1] $r0
	.loc	1 126 1                         @ ../../../ThirdParty/mbedTLS/library/sha1.c:126:1
	pop	{r7, pc}
.Ltmp15:
.Lfunc_end4:
	.size	mbedtls_sha1_starts, .Lfunc_end4-mbedtls_sha1_starts
	.cfi_endproc
	.cantunwind
	.fnend
                                        @ -- End function
	.section	.text.mbedtls_internal_sha1_process,"ax",%progbits
	.hidden	mbedtls_internal_sha1_process   @ -- Begin function mbedtls_internal_sha1_process
	.globl	mbedtls_internal_sha1_process
	.p2align	2
	.type	mbedtls_internal_sha1_process,%function
	.code	16                              @ @mbedtls_internal_sha1_process
	.thumb_func
mbedtls_internal_sha1_process:
.Lfunc_begin5:
	.loc	1 132 0                         @ ../../../ThirdParty/mbedTLS/library/sha1.c:132:0
	.fnstart
	.cfi_startproc
@ %bb.0:
	@DEBUG_VALUE: mbedtls_internal_sha1_process:ctx <- $r0
	@DEBUG_VALUE: mbedtls_internal_sha1_process:ctx <- $r0
	@DEBUG_VALUE: mbedtls_internal_sha1_process:data <- $r1
	@DEBUG_VALUE: mbedtls_internal_sha1_process:data <- $r1
	.save	{r4, r5, r6, r7, lr}
	push	{r4, r5, r6, r7, lr}
	.cfi_def_cfa_offset 20
	.cfi_offset lr, -4
	.cfi_offset r7, -8
	.cfi_offset r6, -12
	.cfi_offset r5, -16
	.cfi_offset r4, -20
	.pad	#128
	sub	sp, #128
	.cfi_def_cfa_offset 148
.Ltmp16:
	.loc	1 169 9 prologue_end            @ ../../../ThirdParty/mbedTLS/library/sha1.c:169:9
	ldr	r4, [r0, #8]
.Ltmp17:
	@DEBUG_VALUE: mbedtls_internal_sha1_process:A <- $r4
	.loc	1 0 9 is_stmt 0                 @ ../../../ThirdParty/mbedTLS/library/sha1.c:0:9
	str	r4, [sp, #28]                   @ 4-byte Spill
	movs	r6, #2
.Ltmp18:
	.loc	1 179 5 is_stmt 1               @ ../../../ThirdParty/mbedTLS/library/sha1.c:179:5
	str	r6, [sp, #124]                  @ 4-byte Spill
	mov	r5, r4
	rors	r5, r6
.Ltmp19:
	@DEBUG_VALUE: mbedtls_internal_sha1_process:A <- $r5
	.loc	1 170 9                         @ ../../../ThirdParty/mbedTLS/library/sha1.c:170:9
	str	r5, [sp, #112]                  @ 4-byte Spill
	ldr	r3, [r0, #12]
.Ltmp20:
	@DEBUG_VALUE: mbedtls_internal_sha1_process:B <- $r3
	.loc	1 178 5                         @ ../../../ThirdParty/mbedTLS/library/sha1.c:178:5
	mov	r2, r3
	mov	r7, r3
.Ltmp21:
	@DEBUG_VALUE: mbedtls_internal_sha1_process:B <- $r7
	str	r3, [sp, #16]                   @ 4-byte Spill
	rors	r2, r6
.Ltmp22:
	@DEBUG_VALUE: mbedtls_internal_sha1_process:B <- $r2
	.loc	1 180 5                         @ ../../../ThirdParty/mbedTLS/library/sha1.c:180:5
	str	r2, [sp, #100]                  @ 4-byte Spill
.Ltmp23:
	@DEBUG_VALUE: mbedtls_internal_sha1_process:B <- [DW_OP_plus_uconst 100] [$sp+0]
	mov	r3, r2
	@DEBUG_VALUE: mbedtls_internal_sha1_process:B <- [DW_OP_plus_uconst 100] [$sp+0]
	eors	r3, r5
.Ltmp24:
	@DEBUG_VALUE: mbedtls_internal_sha1_process:A <- [DW_OP_plus_uconst 112] [$sp+0]
	.loc	1 0 5 is_stmt 0                 @ ../../../ThirdParty/mbedTLS/library/sha1.c:0:5
	movs	r2, #27
.Ltmp25:
	.loc	1 178 5 is_stmt 1               @ ../../../ThirdParty/mbedTLS/library/sha1.c:178:5
	str	r2, [sp, #120]                  @ 4-byte Spill
	rors	r4, r2
.Ltmp26:
	.loc	1 138 5                         @ ../../../ThirdParty/mbedTLS/library/sha1.c:138:5
	ldrb	r2, [r1]
	lsls	r2, r2, #24
	ldrb	r5, [r1, #1]
	lsls	r5, r5, #16
	adds	r2, r5, r2
	ldrb	r5, [r1, #2]
	lsls	r5, r5, #8
	adds	r2, r2, r5
	ldrb	r5, [r1, #3]
	adds	r2, r2, r5
.Ltmp27:
	@DEBUG_VALUE: mbedtls_internal_sha1_process:W <- [DW_OP_LLVM_fragment 0 32] $r2
	.loc	1 178 5                         @ ../../../ThirdParty/mbedTLS/library/sha1.c:178:5
	str	r2, [sp, #108]                  @ 4-byte Spill
.Ltmp28:
	@DEBUG_VALUE: mbedtls_internal_sha1_process:W <- [DW_OP_plus_uconst 108, DW_OP_LLVM_fragment 0 32] [$sp+0]
	adds	r2, r2, r4
	@DEBUG_VALUE: mbedtls_internal_sha1_process:W <- [DW_OP_plus_uconst 108, DW_OP_LLVM_fragment 0 32] [$sp+0]
.Ltmp29:
	@DEBUG_VALUE: mbedtls_internal_sha1_process:W <- [DW_OP_LLVM_fragment 0 32] $r2
	.loc	1 0 5 is_stmt 0                 @ ../../../ThirdParty/mbedTLS/library/sha1.c:0:5
	mov	r4, r0
.Ltmp30:
	@DEBUG_VALUE: mbedtls_internal_sha1_process:ctx <- $r4
	.loc	1 173 9 is_stmt 1               @ ../../../ThirdParty/mbedTLS/library/sha1.c:173:9
	str	r0, [sp, #4]                    @ 4-byte Spill
	ldr	r0, [r0, #24]
.Ltmp31:
	@DEBUG_VALUE: mbedtls_internal_sha1_process:E <- $r0
	.loc	1 178 5                         @ ../../../ThirdParty/mbedTLS/library/sha1.c:178:5
	str	r0, [sp, #8]                    @ 4-byte Spill
.Ltmp32:
	@DEBUG_VALUE: mbedtls_internal_sha1_process:E <- [DW_OP_plus_uconst 8] [$sp+0]
	adds	r0, r2, r0
.Ltmp33:
	@DEBUG_VALUE: mbedtls_internal_sha1_process:E <- [DW_OP_plus_uconst 8] [$sp+0]
	@DEBUG_VALUE: mbedtls_internal_sha1_process:E <- $r0
	.loc	1 171 9                         @ ../../../ThirdParty/mbedTLS/library/sha1.c:171:9
	ldr	r6, [r4, #16]
.Ltmp34:
	@DEBUG_VALUE: mbedtls_internal_sha1_process:C <- $r6
	.loc	1 172 9                         @ ../../../ThirdParty/mbedTLS/library/sha1.c:172:9
	ldr	r5, [r4, #20]
.Ltmp35:
	@DEBUG_VALUE: mbedtls_internal_sha1_process:D <- $r5
	@DEBUG_VALUE: mbedtls_internal_sha1_process:ctx <- [DW_OP_plus_uconst 4] [$sp+0]
	.loc	1 178 5                         @ ../../../ThirdParty/mbedTLS/library/sha1.c:178:5
	mov	r2, r5
.Ltmp36:
	eors	r2, r6
	ands	r2, r7
	eors	r2, r5
	mov	r7, r5
.Ltmp37:
	@DEBUG_VALUE: mbedtls_internal_sha1_process:D <- $r7
	str	r5, [sp]                        @ 4-byte Spill
	adds	r0, r0, r2
.Ltmp38:
	.loc	1 0 5 is_stmt 0                 @ ../../../ThirdParty/mbedTLS/library/sha1.c:0:5
	ldr	r2, __arm_cp.5_4
	.loc	1 178 5                         @ ../../../ThirdParty/mbedTLS/library/sha1.c:178:5
	adds	r0, r0, r2
.Ltmp39:
	@DEBUG_VALUE: mbedtls_internal_sha1_process:E <- $r0
	.loc	1 180 5 is_stmt 1               @ ../../../ThirdParty/mbedTLS/library/sha1.c:180:5
	ands	r3, r0
	ldr	r4, [sp, #100]                  @ 4-byte Reload
.Ltmp40:
	@DEBUG_VALUE: mbedtls_internal_sha1_process:B <- $r4
	eors	r3, r4
.Ltmp41:
	.loc	1 140 5                         @ ../../../ThirdParty/mbedTLS/library/sha1.c:140:5
	ldrb	r2, [r1, #8]
	lsls	r2, r2, #24
	ldrb	r5, [r1, #9]
	lsls	r5, r5, #16
	adds	r2, r5, r2
	ldrb	r5, [r1, #10]
	lsls	r5, r5, #8
	adds	r2, r2, r5
	ldrb	r5, [r1, #11]
	adds	r2, r2, r5
.Ltmp42:
	@DEBUG_VALUE: mbedtls_internal_sha1_process:W <- [DW_OP_LLVM_fragment 64 32] $r2
	.loc	1 0 5 is_stmt 0                 @ ../../../ThirdParty/mbedTLS/library/sha1.c:0:5
	str	r2, [sp, #72]                   @ 4-byte Spill
.Ltmp43:
	@DEBUG_VALUE: mbedtls_internal_sha1_process:C <- $r6
	.loc	1 180 5 is_stmt 1               @ ../../../ThirdParty/mbedTLS/library/sha1.c:180:5
	str	r6, [sp, #12]                   @ 4-byte Spill
	adds	r2, r2, r6
.Ltmp44:
	@DEBUG_VALUE: mbedtls_internal_sha1_process:W <- [DW_OP_plus_uconst 72, DW_OP_LLVM_fragment 64 32] [$sp+0]
	@DEBUG_VALUE: mbedtls_internal_sha1_process:W <- [DW_OP_LLVM_fragment 64 32] $r2
	adds	r2, r2, r3
.Ltmp45:
	.loc	1 179 5                         @ ../../../ThirdParty/mbedTLS/library/sha1.c:179:5
	mov	r3, r4
.Ltmp46:
	@DEBUG_VALUE: mbedtls_internal_sha1_process:B <- [DW_OP_plus_uconst 100] [$sp+0]
	eors	r3, r6
	ldr	r4, [sp, #28]                   @ 4-byte Reload
	ands	r3, r4
	eors	r3, r6
.Ltmp47:
	@DEBUG_VALUE: mbedtls_internal_sha1_process:C <- [DW_OP_plus_uconst 12] [$sp+0]
	.loc	1 139 5                         @ ../../../ThirdParty/mbedTLS/library/sha1.c:139:5
	ldrb	r5, [r1, #4]
	lsls	r5, r5, #24
	ldrb	r6, [r1, #5]
	lsls	r6, r6, #16
	adds	r5, r6, r5
	ldrb	r6, [r1, #6]
	lsls	r6, r6, #8
	adds	r5, r5, r6
	ldrb	r6, [r1, #7]
	adds	r4, r5, r6
.Ltmp48:
	@DEBUG_VALUE: mbedtls_internal_sha1_process:W <- [DW_OP_LLVM_fragment 32 32] $r4
	.loc	1 179 5                         @ ../../../ThirdParty/mbedTLS/library/sha1.c:179:5
	str	r4, [sp, #104]                  @ 4-byte Spill
.Ltmp49:
	@DEBUG_VALUE: mbedtls_internal_sha1_process:W <- [DW_OP_plus_uconst 104, DW_OP_LLVM_fragment 32 32] [$sp+0]
	adds	r5, r4, r7
	@DEBUG_VALUE: mbedtls_internal_sha1_process:W <- [DW_OP_plus_uconst 104, DW_OP_LLVM_fragment 32 32] [$sp+0]
.Ltmp50:
	@DEBUG_VALUE: mbedtls_internal_sha1_process:D <- [$sp+0]
	adds	r3, r5, r3
	mov	r5, r0
	ldr	r4, [sp, #120]                  @ 4-byte Reload
	rors	r5, r4
	adds	r3, r3, r5
	ldr	r6, __arm_cp.5_4
	adds	r5, r3, r6
.Ltmp51:
	@DEBUG_VALUE: mbedtls_internal_sha1_process:D <- $r5
	.loc	1 180 5                         @ ../../../ThirdParty/mbedTLS/library/sha1.c:180:5
	mov	r3, r5
	rors	r3, r4
	adds	r2, r2, r3
	adds	r3, r2, r6
.Ltmp52:
	@DEBUG_VALUE: mbedtls_internal_sha1_process:C <- $r3
	.loc	1 182 5                         @ ../../../ThirdParty/mbedTLS/library/sha1.c:182:5
	mov	r2, r3
	ldr	r7, [sp, #124]                  @ 4-byte Reload
	rors	r2, r7
.Ltmp53:
	@DEBUG_VALUE: mbedtls_internal_sha1_process:C <- $r2
	.loc	1 0 5 is_stmt 0                 @ ../../../ThirdParty/mbedTLS/library/sha1.c:0:5
	str	r2, [sp, #116]                  @ 4-byte Spill
.Ltmp54:
	@DEBUG_VALUE: mbedtls_internal_sha1_process:C <- [DW_OP_plus_uconst 116] [$sp+0]
	@DEBUG_VALUE: mbedtls_internal_sha1_process:C <- [DW_OP_plus_uconst 116] [$sp+0]
	.loc	1 181 5 is_stmt 1               @ ../../../ThirdParty/mbedTLS/library/sha1.c:181:5
	mov	r6, r3
	rors	r6, r4
.Ltmp55:
	@DEBUG_VALUE: mbedtls_internal_sha1_process:E <- $r0
	.loc	1 180 5                         @ ../../../ThirdParty/mbedTLS/library/sha1.c:180:5
	rors	r0, r7
.Ltmp56:
	@DEBUG_VALUE: mbedtls_internal_sha1_process:E <- $r0
	.loc	1 181 5                         @ ../../../ThirdParty/mbedTLS/library/sha1.c:181:5
	mov	r2, r0
	@DEBUG_VALUE: mbedtls_internal_sha1_process:E <- $r0
	ldr	r4, [sp, #112]                  @ 4-byte Reload
.Ltmp57:
	@DEBUG_VALUE: mbedtls_internal_sha1_process:A <- $r4
	eors	r2, r4
	ands	r2, r5
	eors	r2, r4
.Ltmp58:
	@DEBUG_VALUE: mbedtls_internal_sha1_process:A <- [DW_OP_plus_uconst 112] [$sp+0]
	.loc	1 141 5                         @ ../../../ThirdParty/mbedTLS/library/sha1.c:141:5
	ldrb	r7, [r1, #12]
	lsls	r7, r7, #24
	ldrb	r4, [r1, #13]
	lsls	r4, r4, #16
	adds	r4, r4, r7
	ldrb	r7, [r1, #14]
	lsls	r7, r7, #8
	adds	r4, r4, r7
	ldrb	r7, [r1, #15]
	adds	r4, r4, r7
.Ltmp59:
	@DEBUG_VALUE: mbedtls_internal_sha1_process:W <- [DW_OP_LLVM_fragment 96 32] $r4
	.loc	1 181 5                         @ ../../../ThirdParty/mbedTLS/library/sha1.c:181:5
	str	r4, [sp, #60]                   @ 4-byte Spill
	ldr	r7, [sp, #100]                  @ 4-byte Reload
.Ltmp60:
	@DEBUG_VALUE: mbedtls_internal_sha1_process:B <- $r7
	adds	r4, r4, r7
.Ltmp61:
	@DEBUG_VALUE: mbedtls_internal_sha1_process:W <- [DW_OP_plus_uconst 60, DW_OP_LLVM_fragment 96 32] [$sp+0]
	@DEBUG_VALUE: mbedtls_internal_sha1_process:W <- [DW_OP_LLVM_fragment 96 32] $r4
	adds	r2, r4, r2
	adds	r2, r2, r6
	ldr	r4, __arm_cp.5_4
.Ltmp62:
	adds	r6, r2, r4
.Ltmp63:
	@DEBUG_VALUE: mbedtls_internal_sha1_process:B <- $r6
	.loc	1 183 5                         @ ../../../ThirdParty/mbedTLS/library/sha1.c:183:5
	mov	r4, r6
	ldr	r2, [sp, #124]                  @ 4-byte Reload
	rors	r4, r2
.Ltmp64:
	@DEBUG_VALUE: mbedtls_internal_sha1_process:B <- $r4
	.loc	1 184 5                         @ ../../../ThirdParty/mbedTLS/library/sha1.c:184:5
	str	r4, [sp, #92]                   @ 4-byte Spill
	ldr	r7, [sp, #116]                  @ 4-byte Reload
.Ltmp65:
	@DEBUG_VALUE: mbedtls_internal_sha1_process:C <- $r7
	@DEBUG_VALUE: mbedtls_internal_sha1_process:B <- [DW_OP_plus_uconst 92] [$sp+0]
	eors	r4, r7
.Ltmp66:
	@DEBUG_VALUE: mbedtls_internal_sha1_process:C <- [DW_OP_plus_uconst 116] [$sp+0]
	.loc	1 181 5                         @ ../../../ThirdParty/mbedTLS/library/sha1.c:181:5
	rors	r5, r2
.Ltmp67:
	@DEBUG_VALUE: mbedtls_internal_sha1_process:D <- $r5
	.loc	1 182 5                         @ ../../../ThirdParty/mbedTLS/library/sha1.c:182:5
	mov	r2, r5
	@DEBUG_VALUE: mbedtls_internal_sha1_process:E <- $r0
	str	r0, [sp, #88]                   @ 4-byte Spill
	eors	r2, r0
	ands	r2, r3
	eors	r2, r0
.Ltmp68:
	@DEBUG_VALUE: mbedtls_internal_sha1_process:E <- [DW_OP_plus_uconst 88] [$sp+0]
	.loc	1 142 5                         @ ../../../ThirdParty/mbedTLS/library/sha1.c:142:5
	ldrb	r3, [r1, #16]
	lsls	r3, r3, #24
	ldrb	r7, [r1, #17]
	lsls	r7, r7, #16
	adds	r3, r7, r3
	ldrb	r7, [r1, #18]
	lsls	r7, r7, #8
	adds	r3, r3, r7
	ldrb	r7, [r1, #19]
	adds	r3, r3, r7
.Ltmp69:
	@DEBUG_VALUE: mbedtls_internal_sha1_process:W <- [DW_OP_LLVM_fragment 128 32] $r3
	.loc	1 182 5                         @ ../../../ThirdParty/mbedTLS/library/sha1.c:182:5
	str	r3, [sp, #84]                   @ 4-byte Spill
	ldr	r0, [sp, #112]                  @ 4-byte Reload
.Ltmp70:
	@DEBUG_VALUE: mbedtls_internal_sha1_process:A <- $r0
	adds	r3, r3, r0
.Ltmp71:
	@DEBUG_VALUE: mbedtls_internal_sha1_process:W <- [DW_OP_plus_uconst 84, DW_OP_LLVM_fragment 128 32] [$sp+0]
	@DEBUG_VALUE: mbedtls_internal_sha1_process:W <- [DW_OP_LLVM_fragment 128 32] $r3
	adds	r2, r3, r2
	mov	r3, r6
.Ltmp72:
	ldr	r7, [sp, #120]                  @ 4-byte Reload
	rors	r3, r7
	adds	r2, r2, r3
	ldr	r0, __arm_cp.5_4
.Ltmp73:
	adds	r7, r2, r0
.Ltmp74:
	@DEBUG_VALUE: mbedtls_internal_sha1_process:A <- $r7
	.loc	1 184 5                         @ ../../../ThirdParty/mbedTLS/library/sha1.c:184:5
	ands	r4, r7
	ldr	r0, [sp, #116]                  @ 4-byte Reload
.Ltmp75:
	@DEBUG_VALUE: mbedtls_internal_sha1_process:C <- $r0
	eors	r4, r0
.Ltmp76:
	.loc	1 144 5                         @ ../../../ThirdParty/mbedTLS/library/sha1.c:144:5
	ldrb	r2, [r1, #24]
	lsls	r2, r2, #24
	ldrb	r3, [r1, #25]
	lsls	r3, r3, #16
	adds	r2, r3, r2
	ldrb	r3, [r1, #26]
	lsls	r3, r3, #8
	adds	r2, r2, r3
	ldrb	r3, [r1, #27]
	adds	r2, r2, r3
.Ltmp77:
	@DEBUG_VALUE: mbedtls_internal_sha1_process:W <- [DW_OP_LLVM_fragment 192 32] $r2
	.loc	1 184 5                         @ ../../../ThirdParty/mbedTLS/library/sha1.c:184:5
	str	r2, [sp, #76]                   @ 4-byte Spill
.Ltmp78:
	@DEBUG_VALUE: mbedtls_internal_sha1_process:W <- [DW_OP_plus_uconst 76, DW_OP_LLVM_fragment 192 32] [$sp+0]
	adds	r2, r2, r5
	@DEBUG_VALUE: mbedtls_internal_sha1_process:W <- [DW_OP_plus_uconst 76, DW_OP_LLVM_fragment 192 32] [$sp+0]
.Ltmp79:
	@DEBUG_VALUE: mbedtls_internal_sha1_process:W <- [DW_OP_LLVM_fragment 192 32] $r2
	adds	r3, r2, r4
.Ltmp80:
	.loc	1 183 5                         @ ../../../ThirdParty/mbedTLS/library/sha1.c:183:5
	mov	r2, r0
.Ltmp81:
	@DEBUG_VALUE: mbedtls_internal_sha1_process:C <- [DW_OP_plus_uconst 116] [$sp+0]
	eors	r2, r5
	ands	r2, r6
	eors	r2, r5
.Ltmp82:
	.loc	1 143 5                         @ ../../../ThirdParty/mbedTLS/library/sha1.c:143:5
	ldrb	r4, [r1, #20]
	lsls	r4, r4, #24
	ldrb	r5, [r1, #21]
.Ltmp83:
	lsls	r5, r5, #16
	adds	r4, r5, r4
	ldrb	r5, [r1, #22]
	lsls	r5, r5, #8
	adds	r4, r4, r5
	ldrb	r5, [r1, #23]
	adds	r4, r4, r5
.Ltmp84:
	@DEBUG_VALUE: mbedtls_internal_sha1_process:W <- [DW_OP_LLVM_fragment 160 32] $r4
	.loc	1 183 5                         @ ../../../ThirdParty/mbedTLS/library/sha1.c:183:5
	str	r4, [sp, #96]                   @ 4-byte Spill
	ldr	r0, [sp, #88]                   @ 4-byte Reload
.Ltmp85:
	@DEBUG_VALUE: mbedtls_internal_sha1_process:E <- $r0
	adds	r0, r4, r0
.Ltmp86:
	@DEBUG_VALUE: mbedtls_internal_sha1_process:W <- [DW_OP_plus_uconst 96, DW_OP_LLVM_fragment 160 32] [$sp+0]
	adds	r0, r0, r2
	mov	r2, r7
	ldr	r5, [sp, #120]                  @ 4-byte Reload
	rors	r2, r5
	adds	r0, r0, r2
	ldr	r2, __arm_cp.5_4
	adds	r6, r0, r2
.Ltmp87:
	@DEBUG_VALUE: mbedtls_internal_sha1_process:E <- $r6
	.loc	1 184 5                         @ ../../../ThirdParty/mbedTLS/library/sha1.c:184:5
	mov	r0, r6
	rors	r0, r5
	adds	r0, r3, r0
	adds	r4, r0, r2
.Ltmp88:
	@DEBUG_VALUE: mbedtls_internal_sha1_process:D <- $r4
	.loc	1 186 5                         @ ../../../ThirdParty/mbedTLS/library/sha1.c:186:5
	mov	r0, r4
	ldr	r2, [sp, #124]                  @ 4-byte Reload
	rors	r0, r2
.Ltmp89:
	@DEBUG_VALUE: mbedtls_internal_sha1_process:D <- $r0
	.loc	1 0 5 is_stmt 0                 @ ../../../ThirdParty/mbedTLS/library/sha1.c:0:5
	str	r0, [sp, #100]                  @ 4-byte Spill
.Ltmp90:
	@DEBUG_VALUE: mbedtls_internal_sha1_process:D <- [DW_OP_plus_uconst 100] [$sp+0]
	@DEBUG_VALUE: mbedtls_internal_sha1_process:D <- [DW_OP_plus_uconst 100] [$sp+0]
	.loc	1 185 5 is_stmt 1               @ ../../../ThirdParty/mbedTLS/library/sha1.c:185:5
	mov	r3, r4
	rors	r3, r5
.Ltmp91:
	.loc	1 184 5                         @ ../../../ThirdParty/mbedTLS/library/sha1.c:184:5
	rors	r7, r2
.Ltmp92:
	@DEBUG_VALUE: mbedtls_internal_sha1_process:A <- $r7
	.loc	1 185 5                         @ ../../../ThirdParty/mbedTLS/library/sha1.c:185:5
	mov	r0, r7
	ldr	r2, [sp, #92]                   @ 4-byte Reload
.Ltmp93:
	@DEBUG_VALUE: mbedtls_internal_sha1_process:B <- $r2
	eors	r0, r2
	ands	r0, r6
	eors	r0, r2
.Ltmp94:
	@DEBUG_VALUE: mbedtls_internal_sha1_process:B <- [DW_OP_plus_uconst 92] [$sp+0]
	.loc	1 145 5                         @ ../../../ThirdParty/mbedTLS/library/sha1.c:145:5
	ldrb	r5, [r1, #28]
	lsls	r5, r5, #24
	ldrb	r2, [r1, #29]
	lsls	r2, r2, #16
	adds	r2, r2, r5
	ldrb	r5, [r1, #30]
	lsls	r5, r5, #8
	adds	r2, r2, r5
	ldrb	r5, [r1, #31]
	adds	r2, r2, r5
.Ltmp95:
	@DEBUG_VALUE: mbedtls_internal_sha1_process:W <- [DW_OP_LLVM_fragment 224 32] $r2
	.loc	1 185 5                         @ ../../../ThirdParty/mbedTLS/library/sha1.c:185:5
	str	r2, [sp, #56]                   @ 4-byte Spill
	ldr	r5, [sp, #116]                  @ 4-byte Reload
.Ltmp96:
	@DEBUG_VALUE: mbedtls_internal_sha1_process:C <- $r5
	adds	r2, r2, r5
.Ltmp97:
	@DEBUG_VALUE: mbedtls_internal_sha1_process:W <- [DW_OP_plus_uconst 56, DW_OP_LLVM_fragment 224 32] [$sp+0]
	@DEBUG_VALUE: mbedtls_internal_sha1_process:W <- [DW_OP_LLVM_fragment 224 32] $r2
	adds	r0, r2, r0
	adds	r0, r0, r3
	ldr	r2, __arm_cp.5_4
.Ltmp98:
	adds	r3, r0, r2
.Ltmp99:
	@DEBUG_VALUE: mbedtls_internal_sha1_process:C <- $r3
	.loc	1 187 5                         @ ../../../ThirdParty/mbedTLS/library/sha1.c:187:5
	mov	r5, r3
	ldr	r0, [sp, #124]                  @ 4-byte Reload
	rors	r5, r0
.Ltmp100:
	@DEBUG_VALUE: mbedtls_internal_sha1_process:C <- $r5
	.loc	1 188 5                         @ ../../../ThirdParty/mbedTLS/library/sha1.c:188:5
	str	r5, [sp, #88]                   @ 4-byte Spill
	ldr	r2, [sp, #100]                  @ 4-byte Reload
.Ltmp101:
	@DEBUG_VALUE: mbedtls_internal_sha1_process:D <- $r2
	@DEBUG_VALUE: mbedtls_internal_sha1_process:C <- [DW_OP_plus_uconst 88] [$sp+0]
	eors	r5, r2
.Ltmp102:
	@DEBUG_VALUE: mbedtls_internal_sha1_process:D <- [DW_OP_plus_uconst 100] [$sp+0]
	.loc	1 185 5                         @ ../../../ThirdParty/mbedTLS/library/sha1.c:185:5
	rors	r6, r0
.Ltmp103:
	@DEBUG_VALUE: mbedtls_internal_sha1_process:E <- $r6
	.loc	1 186 5                         @ ../../../ThirdParty/mbedTLS/library/sha1.c:186:5
	mov	r0, r6
	eors	r0, r7
	ands	r0, r4
	eors	r0, r7
	movs	r2, #32
.Ltmp104:
	.loc	1 146 5                         @ ../../../ThirdParty/mbedTLS/library/sha1.c:146:5
	ldrb	r2, [r1, r2]
	lsls	r2, r2, #24
.Ltmp105:
	.loc	1 0 0 is_stmt 0                 @ ../../../ThirdParty/mbedTLS/library/sha1.c:0:0
	adds	r1, #32
.Ltmp106:
	@DEBUG_VALUE: mbedtls_internal_sha1_process:data <- [DW_OP_LLVM_entry_value 1] $r1
	.loc	1 146 5                         @ ../../../ThirdParty/mbedTLS/library/sha1.c:146:5
	ldrb	r4, [r1, #1]
	lsls	r4, r4, #16
	adds	r2, r4, r2
	ldrb	r4, [r1, #2]
	lsls	r4, r4, #8
	adds	r2, r2, r4
	ldrb	r4, [r1, #3]
	adds	r2, r2, r4
.Ltmp107:
	@DEBUG_VALUE: mbedtls_internal_sha1_process:W <- [DW_OP_LLVM_fragment 256 32] $r2
	.loc	1 186 5 is_stmt 1               @ ../../../ThirdParty/mbedTLS/library/sha1.c:186:5
	str	r2, [sp, #80]                   @ 4-byte Spill
	ldr	r4, [sp, #92]                   @ 4-byte Reload
.Ltmp108:
	@DEBUG_VALUE: mbedtls_internal_sha1_process:B <- $r4
	adds	r2, r2, r4
.Ltmp109:
	@DEBUG_VALUE: mbedtls_internal_sha1_process:W <- [DW_OP_plus_uconst 80, DW_OP_LLVM_fragment 256 32] [$sp+0]
	@DEBUG_VALUE: mbedtls_internal_sha1_process:W <- [DW_OP_LLVM_fragment 256 32] $r2
	adds	r0, r2, r0
	mov	r2, r3
.Ltmp110:
	ldr	r4, [sp, #120]                  @ 4-byte Reload
.Ltmp111:
	rors	r2, r4
	adds	r0, r0, r2
	ldr	r2, __arm_cp.5_4
	adds	r0, r0, r2
.Ltmp112:
	@DEBUG_VALUE: mbedtls_internal_sha1_process:B <- $r0
	.loc	1 188 5                         @ ../../../ThirdParty/mbedTLS/library/sha1.c:188:5
	str	r0, [sp, #116]                  @ 4-byte Spill
.Ltmp113:
	@DEBUG_VALUE: mbedtls_internal_sha1_process:B <- [DW_OP_plus_uconst 116] [$sp+0]
	ands	r5, r0
	@DEBUG_VALUE: mbedtls_internal_sha1_process:B <- [DW_OP_plus_uconst 116] [$sp+0]
	ldr	r0, [sp, #100]                  @ 4-byte Reload
.Ltmp114:
	@DEBUG_VALUE: mbedtls_internal_sha1_process:D <- $r0
	eors	r5, r0
.Ltmp115:
	.loc	1 148 5                         @ ../../../ThirdParty/mbedTLS/library/sha1.c:148:5
	ldrb	r2, [r1, #8]
	lsls	r2, r2, #24
	ldrb	r4, [r1, #9]
	lsls	r4, r4, #16
	adds	r2, r4, r2
	ldrb	r4, [r1, #10]
	lsls	r4, r4, #8
	adds	r2, r2, r4
	ldrb	r4, [r1, #11]
	adds	r2, r2, r4
.Ltmp116:
	@DEBUG_VALUE: mbedtls_internal_sha1_process:W <- [DW_OP_LLVM_fragment 320 32] $r2
	.loc	1 188 5                         @ ../../../ThirdParty/mbedTLS/library/sha1.c:188:5
	str	r2, [sp, #92]                   @ 4-byte Spill
.Ltmp117:
	@DEBUG_VALUE: mbedtls_internal_sha1_process:W <- [DW_OP_plus_uconst 92, DW_OP_LLVM_fragment 320 32] [$sp+0]
	adds	r2, r2, r6
	@DEBUG_VALUE: mbedtls_internal_sha1_process:W <- [DW_OP_plus_uconst 92, DW_OP_LLVM_fragment 320 32] [$sp+0]
.Ltmp118:
	@DEBUG_VALUE: mbedtls_internal_sha1_process:W <- [DW_OP_LLVM_fragment 320 32] $r2
	adds	r4, r2, r5
.Ltmp119:
	@DEBUG_VALUE: mbedtls_internal_sha1_process:D <- [DW_OP_plus_uconst 100] [$sp+0]
	.loc	1 187 5                         @ ../../../ThirdParty/mbedTLS/library/sha1.c:187:5
	eors	r0, r6
	ands	r0, r3
	eors	r0, r6
.Ltmp120:
	.loc	1 147 5                         @ ../../../ThirdParty/mbedTLS/library/sha1.c:147:5
	ldrb	r2, [r1, #4]
.Ltmp121:
	lsls	r2, r2, #24
	ldrb	r3, [r1, #5]
	lsls	r3, r3, #16
	adds	r2, r3, r2
	ldrb	r3, [r1, #6]
	lsls	r3, r3, #8
	adds	r2, r2, r3
	ldrb	r3, [r1, #7]
	adds	r2, r2, r3
.Ltmp122:
	@DEBUG_VALUE: mbedtls_internal_sha1_process:W <- [DW_OP_LLVM_fragment 288 32] $r2
	.loc	1 187 5                         @ ../../../ThirdParty/mbedTLS/library/sha1.c:187:5
	str	r2, [sp, #112]                  @ 4-byte Spill
.Ltmp123:
	@DEBUG_VALUE: mbedtls_internal_sha1_process:W <- [DW_OP_plus_uconst 112, DW_OP_LLVM_fragment 288 32] [$sp+0]
	adds	r2, r2, r7
	@DEBUG_VALUE: mbedtls_internal_sha1_process:W <- [DW_OP_plus_uconst 112, DW_OP_LLVM_fragment 288 32] [$sp+0]
.Ltmp124:
	@DEBUG_VALUE: mbedtls_internal_sha1_process:W <- [DW_OP_LLVM_fragment 288 32] $r2
	adds	r2, r2, r0
.Ltmp125:
	.loc	1 0 5 is_stmt 0                 @ ../../../ThirdParty/mbedTLS/library/sha1.c:0:5
	ldr	r7, [sp, #116]                  @ 4-byte Reload
.Ltmp126:
	@DEBUG_VALUE: mbedtls_internal_sha1_process:B <- $r7
	.loc	1 187 5                         @ ../../../ThirdParty/mbedTLS/library/sha1.c:187:5
	mov	r3, r7
	ldr	r5, [sp, #120]                  @ 4-byte Reload
	rors	r3, r5
	adds	r2, r2, r3
	ldr	r0, __arm_cp.5_4
	adds	r6, r2, r0
.Ltmp127:
	@DEBUG_VALUE: mbedtls_internal_sha1_process:A <- $r6
	.loc	1 188 5 is_stmt 1               @ ../../../ThirdParty/mbedTLS/library/sha1.c:188:5
	mov	r2, r6
	rors	r2, r5
	adds	r2, r4, r2
	adds	r4, r2, r0
.Ltmp128:
	@DEBUG_VALUE: mbedtls_internal_sha1_process:E <- $r4
	.loc	1 190 5                         @ ../../../ThirdParty/mbedTLS/library/sha1.c:190:5
	mov	r0, r4
	ldr	r2, [sp, #124]                  @ 4-byte Reload
	rors	r0, r2
.Ltmp129:
	@DEBUG_VALUE: mbedtls_internal_sha1_process:E <- $r0
	.loc	1 0 5 is_stmt 0                 @ ../../../ThirdParty/mbedTLS/library/sha1.c:0:5
	str	r0, [sp, #48]                   @ 4-byte Spill
.Ltmp130:
	@DEBUG_VALUE: mbedtls_internal_sha1_process:E <- [DW_OP_plus_uconst 48] [$sp+0]
	@DEBUG_VALUE: mbedtls_internal_sha1_process:E <- [DW_OP_plus_uconst 48] [$sp+0]
	.loc	1 189 5 is_stmt 1               @ ../../../ThirdParty/mbedTLS/library/sha1.c:189:5
	mov	r3, r4
	rors	r3, r5
.Ltmp131:
	.loc	1 188 5                         @ ../../../ThirdParty/mbedTLS/library/sha1.c:188:5
	rors	r7, r2
.Ltmp132:
	@DEBUG_VALUE: mbedtls_internal_sha1_process:B <- $r7
	.loc	1 0 5 is_stmt 0                 @ ../../../ThirdParty/mbedTLS/library/sha1.c:0:5
	str	r7, [sp, #116]                  @ 4-byte Spill
	mov	r0, r2
.Ltmp133:
	.loc	1 189 5 is_stmt 1               @ ../../../ThirdParty/mbedTLS/library/sha1.c:189:5
	mov	r5, r7
.Ltmp134:
	@DEBUG_VALUE: mbedtls_internal_sha1_process:B <- $r5
	@DEBUG_VALUE: mbedtls_internal_sha1_process:B <- [DW_OP_plus_uconst 116] [$sp+0]
	.loc	1 0 5 is_stmt 0                 @ ../../../ThirdParty/mbedTLS/library/sha1.c:0:5
	ldr	r2, [sp, #88]                   @ 4-byte Reload
.Ltmp135:
	@DEBUG_VALUE: mbedtls_internal_sha1_process:C <- $r2
	.loc	1 189 5                         @ ../../../ThirdParty/mbedTLS/library/sha1.c:189:5
	eors	r5, r2
	ands	r5, r6
	eors	r5, r2
.Ltmp136:
	@DEBUG_VALUE: mbedtls_internal_sha1_process:C <- [DW_OP_plus_uconst 88] [$sp+0]
	.loc	1 149 5 is_stmt 1               @ ../../../ThirdParty/mbedTLS/library/sha1.c:149:5
	ldrb	r2, [r1, #12]
	lsls	r2, r2, #24
	ldrb	r7, [r1, #13]
	lsls	r7, r7, #16
	adds	r2, r7, r2
	ldrb	r7, [r1, #14]
	lsls	r7, r7, #8
	adds	r2, r2, r7
	ldrb	r7, [r1, #15]
	adds	r2, r2, r7
.Ltmp137:
	@DEBUG_VALUE: mbedtls_internal_sha1_process:W <- [DW_OP_LLVM_fragment 352 32] $r2
	.loc	1 189 5                         @ ../../../ThirdParty/mbedTLS/library/sha1.c:189:5
	str	r2, [sp, #68]                   @ 4-byte Spill
	ldr	r7, [sp, #100]                  @ 4-byte Reload
.Ltmp138:
	@DEBUG_VALUE: mbedtls_internal_sha1_process:D <- $r7
	adds	r2, r2, r7
.Ltmp139:
	@DEBUG_VALUE: mbedtls_internal_sha1_process:W <- [DW_OP_plus_uconst 68, DW_OP_LLVM_fragment 352 32] [$sp+0]
	@DEBUG_VALUE: mbedtls_internal_sha1_process:W <- [DW_OP_LLVM_fragment 352 32] $r2
	adds	r2, r2, r5
.Ltmp140:
	adds	r2, r2, r3
	ldr	r3, __arm_cp.5_4
	adds	r7, r2, r3
.Ltmp141:
	@DEBUG_VALUE: mbedtls_internal_sha1_process:D <- $r7
	.loc	1 191 5                         @ ../../../ThirdParty/mbedTLS/library/sha1.c:191:5
	mov	r5, r7
	rors	r5, r0
.Ltmp142:
	@DEBUG_VALUE: mbedtls_internal_sha1_process:D <- $r5
	.loc	1 192 5                         @ ../../../ThirdParty/mbedTLS/library/sha1.c:192:5
	str	r5, [sp, #36]                   @ 4-byte Spill
	ldr	r2, [sp, #48]                   @ 4-byte Reload
.Ltmp143:
	@DEBUG_VALUE: mbedtls_internal_sha1_process:D <- [DW_OP_plus_uconst 36] [$sp+0]
	@DEBUG_VALUE: mbedtls_internal_sha1_process:E <- $r2
	eors	r5, r2
.Ltmp144:
	@DEBUG_VALUE: mbedtls_internal_sha1_process:E <- [DW_OP_plus_uconst 48] [$sp+0]
	.loc	1 189 5                         @ ../../../ThirdParty/mbedTLS/library/sha1.c:189:5
	rors	r6, r0
.Ltmp145:
	@DEBUG_VALUE: mbedtls_internal_sha1_process:A <- $r6
	.loc	1 190 5                         @ ../../../ThirdParty/mbedTLS/library/sha1.c:190:5
	mov	r2, r6
	ldr	r0, [sp, #116]                  @ 4-byte Reload
.Ltmp146:
	@DEBUG_VALUE: mbedtls_internal_sha1_process:B <- $r0
	eors	r2, r0
	ands	r2, r4
	eors	r2, r0
.Ltmp147:
	@DEBUG_VALUE: mbedtls_internal_sha1_process:B <- [DW_OP_plus_uconst 116] [$sp+0]
	.loc	1 150 5                         @ ../../../ThirdParty/mbedTLS/library/sha1.c:150:5
	ldrb	r4, [r1, #16]
	lsls	r4, r4, #24
	ldrb	r3, [r1, #17]
	lsls	r3, r3, #16
	adds	r3, r3, r4
	ldrb	r4, [r1, #18]
	lsls	r4, r4, #8
	adds	r3, r3, r4
	ldrb	r4, [r1, #19]
	adds	r3, r3, r4
.Ltmp148:
	@DEBUG_VALUE: mbedtls_internal_sha1_process:W <- [DW_OP_LLVM_fragment 384 32] $r3
	.loc	1 190 5                         @ ../../../ThirdParty/mbedTLS/library/sha1.c:190:5
	str	r3, [sp, #100]                  @ 4-byte Spill
	ldr	r0, [sp, #88]                   @ 4-byte Reload
.Ltmp149:
	@DEBUG_VALUE: mbedtls_internal_sha1_process:C <- $r0
	adds	r3, r3, r0
.Ltmp150:
	@DEBUG_VALUE: mbedtls_internal_sha1_process:W <- [DW_OP_plus_uconst 100, DW_OP_LLVM_fragment 384 32] [$sp+0]
	@DEBUG_VALUE: mbedtls_internal_sha1_process:W <- [DW_OP_LLVM_fragment 384 32] $r3
	adds	r2, r3, r2
	mov	r3, r7
.Ltmp151:
	ldr	r0, [sp, #120]                  @ 4-byte Reload
.Ltmp152:
	rors	r3, r0
	adds	r2, r2, r3
	ldr	r0, __arm_cp.5_4
	adds	r2, r2, r0
.Ltmp153:
	@DEBUG_VALUE: mbedtls_internal_sha1_process:C <- $r2
	.loc	1 192 5                         @ ../../../ThirdParty/mbedTLS/library/sha1.c:192:5
	ands	r5, r2
	@DEBUG_VALUE: mbedtls_internal_sha1_process:C <- $r2
	str	r2, [sp, #44]                   @ 4-byte Spill
	ldr	r0, [sp, #48]                   @ 4-byte Reload
.Ltmp154:
	@DEBUG_VALUE: mbedtls_internal_sha1_process:E <- $r0
	eors	r5, r0
.Ltmp155:
	.loc	1 152 5                         @ ../../../ThirdParty/mbedTLS/library/sha1.c:152:5
	ldrb	r3, [r1, #24]
	lsls	r3, r3, #24
	ldrb	r4, [r1, #25]
	lsls	r4, r4, #16
	adds	r3, r4, r3
	ldrb	r4, [r1, #26]
	lsls	r4, r4, #8
	adds	r3, r3, r4
	ldrb	r4, [r1, #27]
	adds	r3, r3, r4
.Ltmp156:
	@DEBUG_VALUE: mbedtls_internal_sha1_process:W <- [DW_OP_LLVM_fragment 448 32] $r3
	.loc	1 192 5                         @ ../../../ThirdParty/mbedTLS/library/sha1.c:192:5
	str	r3, [sp, #64]                   @ 4-byte Spill
.Ltmp157:
	@DEBUG_VALUE: mbedtls_internal_sha1_process:W <- [DW_OP_plus_uconst 64, DW_OP_LLVM_fragment 448 32] [$sp+0]
	adds	r3, r3, r6
	@DEBUG_VALUE: mbedtls_internal_sha1_process:W <- [DW_OP_plus_uconst 64, DW_OP_LLVM_fragment 448 32] [$sp+0]
.Ltmp158:
	@DEBUG_VALUE: mbedtls_internal_sha1_process:W <- [DW_OP_LLVM_fragment 448 32] $r3
	adds	r4, r3, r5
.Ltmp159:
	.loc	1 191 5                         @ ../../../ThirdParty/mbedTLS/library/sha1.c:191:5
	mov	r5, r0
.Ltmp160:
	@DEBUG_VALUE: mbedtls_internal_sha1_process:E <- $r5
	@DEBUG_VALUE: mbedtls_internal_sha1_process:E <- [DW_OP_plus_uconst 48] [$sp+0]
	eors	r5, r6
	ands	r5, r7
	eors	r5, r6
.Ltmp161:
	.loc	1 151 5                         @ ../../../ThirdParty/mbedTLS/library/sha1.c:151:5
	ldrb	r3, [r1, #20]
.Ltmp162:
	lsls	r3, r3, #24
	ldrb	r6, [r1, #21]
.Ltmp163:
	lsls	r6, r6, #16
	adds	r3, r6, r3
	ldrb	r6, [r1, #22]
	lsls	r6, r6, #8
	adds	r3, r3, r6
	ldrb	r6, [r1, #23]
	adds	r3, r3, r6
.Ltmp164:
	@DEBUG_VALUE: mbedtls_internal_sha1_process:W <- [DW_OP_LLVM_fragment 416 32] $r3
	.loc	1 191 5                         @ ../../../ThirdParty/mbedTLS/library/sha1.c:191:5
	str	r3, [sp, #88]                   @ 4-byte Spill
	ldr	r0, [sp, #116]                  @ 4-byte Reload
.Ltmp165:
	@DEBUG_VALUE: mbedtls_internal_sha1_process:B <- $r0
	adds	r0, r3, r0
.Ltmp166:
	@DEBUG_VALUE: mbedtls_internal_sha1_process:W <- [DW_OP_plus_uconst 88, DW_OP_LLVM_fragment 416 32] [$sp+0]
	adds	r0, r0, r5
.Ltmp167:
	@DEBUG_VALUE: mbedtls_internal_sha1_process:C <- [DW_OP_plus_uconst 44] [$sp+0]
	.loc	1 0 5 is_stmt 0                 @ ../../../ThirdParty/mbedTLS/library/sha1.c:0:5
	ldr	r5, [sp, #120]                  @ 4-byte Reload
	.loc	1 191 5                         @ ../../../ThirdParty/mbedTLS/library/sha1.c:191:5
	rors	r2, r5
	adds	r0, r0, r2
	ldr	r6, __arm_cp.5_4
	adds	r2, r0, r6
.Ltmp168:
	@DEBUG_VALUE: mbedtls_internal_sha1_process:B <- $r2
	.loc	1 192 5 is_stmt 1               @ ../../../ThirdParty/mbedTLS/library/sha1.c:192:5
	mov	r3, r2
	rors	r3, r5
	adds	r3, r4, r3
	adds	r7, r3, r6
.Ltmp169:
	@DEBUG_VALUE: mbedtls_internal_sha1_process:A <- $r7
	.loc	1 194 5                         @ ../../../ThirdParty/mbedTLS/library/sha1.c:194:5
	mov	r0, r7
	ldr	r3, [sp, #124]                  @ 4-byte Reload
	rors	r0, r3
.Ltmp170:
	@DEBUG_VALUE: mbedtls_internal_sha1_process:A <- $r0
	.loc	1 0 5 is_stmt 0                 @ ../../../ThirdParty/mbedTLS/library/sha1.c:0:5
	str	r0, [sp, #40]                   @ 4-byte Spill
.Ltmp171:
	@DEBUG_VALUE: mbedtls_internal_sha1_process:A <- [DW_OP_plus_uconst 40] [$sp+0]
	@DEBUG_VALUE: mbedtls_internal_sha1_process:A <- [DW_OP_plus_uconst 40] [$sp+0]
	.loc	1 193 5 is_stmt 1               @ ../../../ThirdParty/mbedTLS/library/sha1.c:193:5
	mov	r4, r7
	rors	r4, r5
	ldr	r6, [sp, #44]                   @ 4-byte Reload
.Ltmp172:
	@DEBUG_VALUE: mbedtls_internal_sha1_process:C <- $r6
	.loc	1 192 5                         @ ../../../ThirdParty/mbedTLS/library/sha1.c:192:5
	rors	r6, r3
.Ltmp173:
	@DEBUG_VALUE: mbedtls_internal_sha1_process:C <- $r6
	.loc	1 0 5 is_stmt 0                 @ ../../../ThirdParty/mbedTLS/library/sha1.c:0:5
	str	r6, [sp, #44]                   @ 4-byte Spill
.Ltmp174:
	@DEBUG_VALUE: mbedtls_internal_sha1_process:C <- [DW_OP_plus_uconst 44] [$sp+0]
	ldr	r0, [sp, #36]                   @ 4-byte Reload
.Ltmp175:
	@DEBUG_VALUE: mbedtls_internal_sha1_process:D <- $r0
	.loc	1 193 5 is_stmt 1               @ ../../../ThirdParty/mbedTLS/library/sha1.c:193:5
	eors	r6, r0
	ands	r6, r2
	eors	r6, r0
.Ltmp176:
	@DEBUG_VALUE: mbedtls_internal_sha1_process:D <- [DW_OP_plus_uconst 36] [$sp+0]
	.loc	1 153 5                         @ ../../../ThirdParty/mbedTLS/library/sha1.c:153:5
	ldrb	r3, [r1, #28]
	lsls	r3, r3, #24
	ldrb	r5, [r1, #29]
	lsls	r5, r5, #16
	adds	r3, r5, r3
	ldrb	r5, [r1, #30]
	lsls	r5, r5, #8
	adds	r3, r3, r5
	ldrb	r1, [r1, #31]
	adds	r1, r3, r1
.Ltmp177:
	@DEBUG_VALUE: mbedtls_internal_sha1_process:W <- [DW_OP_LLVM_fragment 480 32] $r1
	.loc	1 193 5                         @ ../../../ThirdParty/mbedTLS/library/sha1.c:193:5
	str	r1, [sp, #52]                   @ 4-byte Spill
	ldr	r0, [sp, #48]                   @ 4-byte Reload
.Ltmp178:
	@DEBUG_VALUE: mbedtls_internal_sha1_process:E <- $r0
	adds	r1, r1, r0
.Ltmp179:
	@DEBUG_VALUE: mbedtls_internal_sha1_process:W <- [DW_OP_plus_uconst 52, DW_OP_LLVM_fragment 480 32] [$sp+0]
	@DEBUG_VALUE: mbedtls_internal_sha1_process:W <- [DW_OP_LLVM_fragment 480 32] $r1
	adds	r1, r1, r6
.Ltmp180:
	adds	r1, r1, r4
	ldr	r0, __arm_cp.5_4
.Ltmp181:
	adds	r6, r1, r0
.Ltmp182:
	@DEBUG_VALUE: mbedtls_internal_sha1_process:E <- $r6
	.loc	1 195 5                         @ ../../../ThirdParty/mbedTLS/library/sha1.c:195:5
	str	r6, [sp, #24]                   @ 4-byte Spill
.Ltmp183:
	@DEBUG_VALUE: mbedtls_internal_sha1_process:E <- [DW_OP_plus_uconst 24] [$sp+0]
	.loc	1 0 5 is_stmt 0                 @ ../../../ThirdParty/mbedTLS/library/sha1.c:0:5
	ldr	r0, [sp, #124]                  @ 4-byte Reload
	.loc	1 195 5                         @ ../../../ThirdParty/mbedTLS/library/sha1.c:195:5
	rors	r6, r0
.Ltmp184:
	@DEBUG_VALUE: mbedtls_internal_sha1_process:E <- $r6
	.loc	1 196 5 is_stmt 1               @ ../../../ThirdParty/mbedTLS/library/sha1.c:196:5
	str	r6, [sp, #32]                   @ 4-byte Spill
	ldr	r1, [sp, #40]                   @ 4-byte Reload
.Ltmp185:
	@DEBUG_VALUE: mbedtls_internal_sha1_process:E <- [DW_OP_plus_uconst 32] [$sp+0]
	@DEBUG_VALUE: mbedtls_internal_sha1_process:A <- $r1
	eors	r6, r1
.Ltmp186:
	@DEBUG_VALUE: mbedtls_internal_sha1_process:A <- [DW_OP_plus_uconst 40] [$sp+0]
	.loc	1 193 5                         @ ../../../ThirdParty/mbedTLS/library/sha1.c:193:5
	rors	r2, r0
.Ltmp187:
	@DEBUG_VALUE: mbedtls_internal_sha1_process:B <- $r2
	.loc	1 194 5                         @ ../../../ThirdParty/mbedTLS/library/sha1.c:194:5
	mov	r3, r2
	ldr	r0, [sp, #44]                   @ 4-byte Reload
.Ltmp188:
	@DEBUG_VALUE: mbedtls_internal_sha1_process:C <- $r0
	eors	r3, r0
	ands	r3, r7
	eors	r3, r0
.Ltmp189:
	@DEBUG_VALUE: mbedtls_internal_sha1_process:C <- [DW_OP_plus_uconst 44] [$sp+0]
	.loc	1 0 5 is_stmt 0                 @ ../../../ThirdParty/mbedTLS/library/sha1.c:0:5
	ldr	r5, [sp, #108]                  @ 4-byte Reload
.Ltmp190:
	@DEBUG_VALUE: mbedtls_internal_sha1_process:W <- [DW_OP_LLVM_fragment 0 32] $r5
	ldr	r1, [sp, #72]                   @ 4-byte Reload
.Ltmp191:
	@DEBUG_VALUE: mbedtls_internal_sha1_process:W <- [DW_OP_LLVM_fragment 64 32] $r1
	.loc	1 194 5                         @ ../../../ThirdParty/mbedTLS/library/sha1.c:194:5
	eors	r5, r1
.Ltmp192:
	ldr	r4, [sp, #80]                   @ 4-byte Reload
.Ltmp193:
	@DEBUG_VALUE: mbedtls_internal_sha1_process:W <- [DW_OP_LLVM_fragment 256 32] $r4
	eors	r5, r4
.Ltmp194:
	@DEBUG_VALUE: mbedtls_internal_sha1_process:W <- [DW_OP_plus_uconst 80, DW_OP_LLVM_fragment 256 32] [$sp+0]
	ldr	r4, [sp, #88]                   @ 4-byte Reload
.Ltmp195:
	@DEBUG_VALUE: mbedtls_internal_sha1_process:W <- [DW_OP_LLVM_fragment 416 32] $r4
	eors	r5, r4
.Ltmp196:
	@DEBUG_VALUE: mbedtls_internal_sha1_process:temp <- $r5
	@DEBUG_VALUE: mbedtls_internal_sha1_process:W <- [DW_OP_plus_uconst 88, DW_OP_LLVM_fragment 416 32] [$sp+0]
	.loc	1 0 5                           @ ../../../ThirdParty/mbedTLS/library/sha1.c:0:5
	movs	r4, #31
	.loc	1 194 5                         @ ../../../ThirdParty/mbedTLS/library/sha1.c:194:5
	rors	r5, r4
.Ltmp197:
	@DEBUG_VALUE: mbedtls_internal_sha1_process:W <- [DW_OP_LLVM_fragment 0 32] $r5
	.loc	1 0 5                           @ ../../../ThirdParty/mbedTLS/library/sha1.c:0:5
	str	r5, [sp, #108]                  @ 4-byte Spill
	.loc	1 194 5                         @ ../../../ThirdParty/mbedTLS/library/sha1.c:194:5
	ldr	r0, [sp, #36]                   @ 4-byte Reload
.Ltmp198:
	@DEBUG_VALUE: mbedtls_internal_sha1_process:D <- $r0
	adds	r5, r5, r0
.Ltmp199:
	@DEBUG_VALUE: mbedtls_internal_sha1_process:W <- [DW_OP_plus_uconst 108, DW_OP_LLVM_fragment 0 32] [$sp+0]
	@DEBUG_VALUE: mbedtls_internal_sha1_process:W <- [DW_OP_LLVM_fragment 0 32] $r5
	adds	r3, r5, r3
	ldr	r7, [sp, #24]                   @ 4-byte Reload
	mov	r5, r7
.Ltmp200:
	ldr	r0, [sp, #120]                  @ 4-byte Reload
.Ltmp201:
	rors	r5, r0
	adds	r3, r3, r5
	ldr	r0, __arm_cp.5_4
	adds	r0, r3, r0
.Ltmp202:
	@DEBUG_VALUE: mbedtls_internal_sha1_process:D <- $r0
	.loc	1 196 5 is_stmt 1               @ ../../../ThirdParty/mbedTLS/library/sha1.c:196:5
	str	r0, [sp, #48]                   @ 4-byte Spill
.Ltmp203:
	@DEBUG_VALUE: mbedtls_internal_sha1_process:D <- [DW_OP_plus_uconst 48] [$sp+0]
	ands	r6, r0
	@DEBUG_VALUE: mbedtls_internal_sha1_process:D <- [DW_OP_plus_uconst 48] [$sp+0]
	ldr	r0, [sp, #40]                   @ 4-byte Reload
.Ltmp204:
	@DEBUG_VALUE: mbedtls_internal_sha1_process:A <- $r0
	eors	r6, r0
	mov	r3, r1
.Ltmp205:
	@DEBUG_VALUE: mbedtls_internal_sha1_process:W <- [DW_OP_LLVM_fragment 64 32] $r3
	ldr	r1, [sp, #84]                   @ 4-byte Reload
.Ltmp206:
	@DEBUG_VALUE: mbedtls_internal_sha1_process:W <- [DW_OP_LLVM_fragment 128 32] $r1
	eors	r3, r1
.Ltmp207:
	@DEBUG_VALUE: mbedtls_internal_sha1_process:W <- [DW_OP_plus_uconst 84, DW_OP_LLVM_fragment 128 32] [$sp+0]
	ldr	r1, [sp, #92]                   @ 4-byte Reload
.Ltmp208:
	@DEBUG_VALUE: mbedtls_internal_sha1_process:W <- [DW_OP_LLVM_fragment 320 32] $r1
	eors	r3, r1
.Ltmp209:
	@DEBUG_VALUE: mbedtls_internal_sha1_process:W <- [DW_OP_plus_uconst 92, DW_OP_LLVM_fragment 320 32] [$sp+0]
	ldr	r1, [sp, #52]                   @ 4-byte Reload
.Ltmp210:
	@DEBUG_VALUE: mbedtls_internal_sha1_process:W <- [DW_OP_LLVM_fragment 480 32] $r1
	eors	r3, r1
.Ltmp211:
	@DEBUG_VALUE: mbedtls_internal_sha1_process:temp <- $r3
	@DEBUG_VALUE: mbedtls_internal_sha1_process:W <- [DW_OP_plus_uconst 52, DW_OP_LLVM_fragment 480 32] [$sp+0]
	rors	r3, r4
.Ltmp212:
	@DEBUG_VALUE: mbedtls_internal_sha1_process:W <- [DW_OP_LLVM_fragment 64 32] $r3
	.loc	1 0 5 is_stmt 0                 @ ../../../ThirdParty/mbedTLS/library/sha1.c:0:5
	str	r3, [sp, #72]                   @ 4-byte Spill
	.loc	1 196 5                         @ ../../../ThirdParty/mbedTLS/library/sha1.c:196:5
	str	r4, [sp, #116]                  @ 4-byte Spill
	adds	r5, r3, r2
.Ltmp213:
	@DEBUG_VALUE: mbedtls_internal_sha1_process:W <- [DW_OP_plus_uconst 72, DW_OP_LLVM_fragment 64 32] [$sp+0]
	adds	r1, r5, r6
.Ltmp214:
	.loc	1 195 5 is_stmt 1               @ ../../../ThirdParty/mbedTLS/library/sha1.c:195:5
	str	r1, [sp, #36]                   @ 4-byte Spill
	mov	r5, r0
.Ltmp215:
	@DEBUG_VALUE: mbedtls_internal_sha1_process:A <- $r5
	@DEBUG_VALUE: mbedtls_internal_sha1_process:A <- [DW_OP_plus_uconst 40] [$sp+0]
	eors	r5, r2
	ands	r5, r7
	eors	r5, r2
	ldr	r1, [sp, #104]                  @ 4-byte Reload
.Ltmp216:
	@DEBUG_VALUE: mbedtls_internal_sha1_process:W <- [DW_OP_LLVM_fragment 32 32] $r1
	.loc	1 0 5 is_stmt 0                 @ ../../../ThirdParty/mbedTLS/library/sha1.c:0:5
	ldr	r6, [sp, #60]                   @ 4-byte Reload
.Ltmp217:
	@DEBUG_VALUE: mbedtls_internal_sha1_process:W <- [DW_OP_LLVM_fragment 96 32] $r6
	.loc	1 195 5                         @ ../../../ThirdParty/mbedTLS/library/sha1.c:195:5
	eors	r1, r6
.Ltmp218:
	ldr	r0, [sp, #112]                  @ 4-byte Reload
.Ltmp219:
	@DEBUG_VALUE: mbedtls_internal_sha1_process:W <- [DW_OP_LLVM_fragment 288 32] $r0
	eors	r1, r0
.Ltmp220:
	@DEBUG_VALUE: mbedtls_internal_sha1_process:W <- [DW_OP_plus_uconst 112, DW_OP_LLVM_fragment 288 32] [$sp+0]
	ldr	r0, [sp, #64]                   @ 4-byte Reload
.Ltmp221:
	@DEBUG_VALUE: mbedtls_internal_sha1_process:W <- [DW_OP_LLVM_fragment 448 32] $r0
	eors	r1, r0
.Ltmp222:
	@DEBUG_VALUE: mbedtls_internal_sha1_process:temp <- $r1
	@DEBUG_VALUE: mbedtls_internal_sha1_process:W <- [DW_OP_plus_uconst 64, DW_OP_LLVM_fragment 448 32] [$sp+0]
	rors	r1, r4
.Ltmp223:
	@DEBUG_VALUE: mbedtls_internal_sha1_process:W <- [DW_OP_LLVM_fragment 32 32] $r1
	str	r1, [sp, #104]                  @ 4-byte Spill
	ldr	r0, [sp, #44]                   @ 4-byte Reload
.Ltmp224:
	@DEBUG_VALUE: mbedtls_internal_sha1_process:C <- $r0
	adds	r0, r1, r0
.Ltmp225:
	@DEBUG_VALUE: mbedtls_internal_sha1_process:W <- [DW_OP_plus_uconst 104, DW_OP_LLVM_fragment 32 32] [$sp+0]
	adds	r0, r0, r5
	ldr	r7, [sp, #48]                   @ 4-byte Reload
.Ltmp226:
	@DEBUG_VALUE: mbedtls_internal_sha1_process:D <- $r7
	mov	r1, r7
	ldr	r5, [sp, #120]                  @ 4-byte Reload
	rors	r1, r5
	adds	r0, r0, r1
	ldr	r1, __arm_cp.5_4
	adds	r3, r0, r1
.Ltmp227:
	@DEBUG_VALUE: mbedtls_internal_sha1_process:C <- $r3
	.loc	1 196 5 is_stmt 1               @ ../../../ThirdParty/mbedTLS/library/sha1.c:196:5
	mov	r0, r3
	rors	r0, r5
	ldr	r2, [sp, #36]                   @ 4-byte Reload
.Ltmp228:
	adds	r0, r2, r0
	adds	r0, r0, r1
.Ltmp229:
	@DEBUG_VALUE: mbedtls_internal_sha1_process:B <- $r0
	.loc	1 205 5                         @ ../../../ThirdParty/mbedTLS/library/sha1.c:205:5
	mov	r2, r0
	ldr	r1, [sp, #124]                  @ 4-byte Reload
	rors	r2, r1
.Ltmp230:
	@DEBUG_VALUE: mbedtls_internal_sha1_process:B <- $r2
	.loc	1 0 5 is_stmt 0                 @ ../../../ThirdParty/mbedTLS/library/sha1.c:0:5
	str	r2, [sp, #24]                   @ 4-byte Spill
.Ltmp231:
	@DEBUG_VALUE: mbedtls_internal_sha1_process:B <- [DW_OP_plus_uconst 24] [$sp+0]
	@DEBUG_VALUE: mbedtls_internal_sha1_process:B <- [DW_OP_plus_uconst 24] [$sp+0]
	.loc	1 197 5 is_stmt 1               @ ../../../ThirdParty/mbedTLS/library/sha1.c:197:5
	mov	r2, r0
	rors	r2, r5
.Ltmp232:
	.loc	1 196 5                         @ ../../../ThirdParty/mbedTLS/library/sha1.c:196:5
	rors	r7, r1
.Ltmp233:
	@DEBUG_VALUE: mbedtls_internal_sha1_process:D <- $r7
	.loc	1 0 5 is_stmt 0                 @ ../../../ThirdParty/mbedTLS/library/sha1.c:0:5
	str	r7, [sp, #48]                   @ 4-byte Spill
.Ltmp234:
	@DEBUG_VALUE: mbedtls_internal_sha1_process:D <- [DW_OP_plus_uconst 48] [$sp+0]
	ldr	r1, [sp, #32]                   @ 4-byte Reload
.Ltmp235:
	@DEBUG_VALUE: mbedtls_internal_sha1_process:E <- $r1
	.loc	1 197 5 is_stmt 1               @ ../../../ThirdParty/mbedTLS/library/sha1.c:197:5
	eors	r7, r1
	ands	r7, r3
	eors	r7, r1
.Ltmp236:
	@DEBUG_VALUE: mbedtls_internal_sha1_process:E <- [DW_OP_plus_uconst 32] [$sp+0]
	.loc	1 0 5 is_stmt 0                 @ ../../../ThirdParty/mbedTLS/library/sha1.c:0:5
	mov	r1, r6
.Ltmp237:
	@DEBUG_VALUE: mbedtls_internal_sha1_process:W <- [DW_OP_LLVM_fragment 96 32] $r1
	.loc	1 197 5                         @ ../../../ThirdParty/mbedTLS/library/sha1.c:197:5
	ldr	r4, [sp, #96]                   @ 4-byte Reload
.Ltmp238:
	@DEBUG_VALUE: mbedtls_internal_sha1_process:W <- [DW_OP_LLVM_fragment 160 32] $r4
	eors	r1, r4
.Ltmp239:
	@DEBUG_VALUE: mbedtls_internal_sha1_process:W <- [DW_OP_plus_uconst 96, DW_OP_LLVM_fragment 160 32] [$sp+0]
	ldr	r4, [sp, #68]                   @ 4-byte Reload
.Ltmp240:
	@DEBUG_VALUE: mbedtls_internal_sha1_process:W <- [DW_OP_LLVM_fragment 352 32] $r4
	eors	r1, r4
.Ltmp241:
	@DEBUG_VALUE: mbedtls_internal_sha1_process:W <- [DW_OP_plus_uconst 68, DW_OP_LLVM_fragment 352 32] [$sp+0]
	ldr	r4, [sp, #108]                  @ 4-byte Reload
.Ltmp242:
	@DEBUG_VALUE: mbedtls_internal_sha1_process:W <- [DW_OP_LLVM_fragment 0 32] $r4
	eors	r1, r4
.Ltmp243:
	@DEBUG_VALUE: mbedtls_internal_sha1_process:temp <- $r1
	@DEBUG_VALUE: mbedtls_internal_sha1_process:W <- [DW_OP_plus_uconst 108, DW_OP_LLVM_fragment 0 32] [$sp+0]
	.loc	1 0 5                           @ ../../../ThirdParty/mbedTLS/library/sha1.c:0:5
	ldr	r4, [sp, #116]                  @ 4-byte Reload
	.loc	1 197 5                         @ ../../../ThirdParty/mbedTLS/library/sha1.c:197:5
	rors	r1, r4
.Ltmp244:
	@DEBUG_VALUE: mbedtls_internal_sha1_process:W <- [DW_OP_LLVM_fragment 96 32] $r1
	str	r1, [sp, #60]                   @ 4-byte Spill
	ldr	r6, [sp, #40]                   @ 4-byte Reload
.Ltmp245:
	@DEBUG_VALUE: mbedtls_internal_sha1_process:A <- $r6
	adds	r6, r1, r6
.Ltmp246:
	@DEBUG_VALUE: mbedtls_internal_sha1_process:W <- [DW_OP_plus_uconst 60, DW_OP_LLVM_fragment 96 32] [$sp+0]
	adds	r5, r6, r7
	adds	r2, r5, r2
	ldr	r1, __arm_cp.5_4
	adds	r2, r2, r1
.Ltmp247:
	@DEBUG_VALUE: mbedtls_internal_sha1_process:A <- $r2
	.loc	1 206 5 is_stmt 1               @ ../../../ThirdParty/mbedTLS/library/sha1.c:206:5
	str	r2, [sp, #40]                   @ 4-byte Spill
.Ltmp248:
	@DEBUG_VALUE: mbedtls_internal_sha1_process:A <- [DW_OP_plus_uconst 40] [$sp+0]
	.loc	1 0 5 is_stmt 0                 @ ../../../ThirdParty/mbedTLS/library/sha1.c:0:5
	ldr	r1, [sp, #124]                  @ 4-byte Reload
	.loc	1 206 5                         @ ../../../ThirdParty/mbedTLS/library/sha1.c:206:5
	rors	r2, r1
.Ltmp249:
	@DEBUG_VALUE: mbedtls_internal_sha1_process:A <- $r2
	.loc	1 207 5 is_stmt 1               @ ../../../ThirdParty/mbedTLS/library/sha1.c:207:5
	str	r2, [sp, #44]                   @ 4-byte Spill
.Ltmp250:
	@DEBUG_VALUE: mbedtls_internal_sha1_process:A <- [DW_OP_plus_uconst 44] [$sp+0]
	.loc	1 0 5 is_stmt 0                 @ ../../../ThirdParty/mbedTLS/library/sha1.c:0:5
	ldr	r7, [sp, #24]                   @ 4-byte Reload
.Ltmp251:
	@DEBUG_VALUE: mbedtls_internal_sha1_process:B <- $r7
	b	.LBB5_2
.Ltmp252:
	.p2align	2
@ %bb.1:
__arm_cp.5_4:
	.long	1518500249                      @ 0x5a827999
.Lcpi_end5:
	.size	__arm_cp.5_4, .Lcpi_end5-__arm_cp.5_4
	.p2align	1
.LBB5_2:
	.loc	1 207 5                         @ ../../../ThirdParty/mbedTLS/library/sha1.c:207:5
	eors	r2, r7
.Ltmp253:
	.loc	1 197 5 is_stmt 1               @ ../../../ThirdParty/mbedTLS/library/sha1.c:197:5
	rors	r3, r1
.Ltmp254:
	@DEBUG_VALUE: mbedtls_internal_sha1_process:C <- $r3
	.loc	1 205 5                         @ ../../../ThirdParty/mbedTLS/library/sha1.c:205:5
	mov	r1, r3
	ldr	r5, [sp, #48]                   @ 4-byte Reload
.Ltmp255:
	@DEBUG_VALUE: mbedtls_internal_sha1_process:D <- $r5
	eors	r1, r5
.Ltmp256:
	@DEBUG_VALUE: mbedtls_internal_sha1_process:D <- [DW_OP_plus_uconst 48] [$sp+0]
	eors	r1, r0
	ldr	r0, [sp, #84]                   @ 4-byte Reload
.Ltmp257:
	@DEBUG_VALUE: mbedtls_internal_sha1_process:W <- [DW_OP_LLVM_fragment 128 32] $r0
	.loc	1 0 5 is_stmt 0                 @ ../../../ThirdParty/mbedTLS/library/sha1.c:0:5
	ldr	r5, [sp, #76]                   @ 4-byte Reload
.Ltmp258:
	@DEBUG_VALUE: mbedtls_internal_sha1_process:W <- [DW_OP_LLVM_fragment 192 32] $r5
	.loc	1 205 5                         @ ../../../ThirdParty/mbedTLS/library/sha1.c:205:5
	eors	r0, r5
.Ltmp259:
	ldr	r6, [sp, #100]                  @ 4-byte Reload
.Ltmp260:
	@DEBUG_VALUE: mbedtls_internal_sha1_process:W <- [DW_OP_LLVM_fragment 384 32] $r6
	eors	r0, r6
.Ltmp261:
	@DEBUG_VALUE: mbedtls_internal_sha1_process:W <- [DW_OP_plus_uconst 100, DW_OP_LLVM_fragment 384 32] [$sp+0]
	ldr	r6, [sp, #104]                  @ 4-byte Reload
.Ltmp262:
	@DEBUG_VALUE: mbedtls_internal_sha1_process:W <- [DW_OP_LLVM_fragment 32 32] $r6
	eors	r0, r6
.Ltmp263:
	@DEBUG_VALUE: mbedtls_internal_sha1_process:temp <- $r0
	@DEBUG_VALUE: mbedtls_internal_sha1_process:W <- [DW_OP_plus_uconst 104, DW_OP_LLVM_fragment 32 32] [$sp+0]
	rors	r0, r4
.Ltmp264:
	@DEBUG_VALUE: mbedtls_internal_sha1_process:W <- [DW_OP_LLVM_fragment 128 32] $r0
	@DEBUG_VALUE: mbedtls_internal_sha1_process:W <- [DW_OP_LLVM_fragment 128 32] $r0
	str	r0, [sp, #84]                   @ 4-byte Spill
	ldr	r6, [sp, #32]                   @ 4-byte Reload
.Ltmp265:
	@DEBUG_VALUE: mbedtls_internal_sha1_process:E <- $r6
	adds	r0, r0, r6
.Ltmp266:
	@DEBUG_VALUE: mbedtls_internal_sha1_process:W <- [DW_OP_plus_uconst 84, DW_OP_LLVM_fragment 128 32] [$sp+0]
	@DEBUG_VALUE: mbedtls_internal_sha1_process:W <- [DW_OP_LLVM_fragment 128 32] $r0
	adds	r0, r0, r1
.Ltmp267:
	ldr	r1, [sp, #40]                   @ 4-byte Reload
	ldr	r6, [sp, #120]                  @ 4-byte Reload
.Ltmp268:
	rors	r1, r6
	adds	r0, r0, r1
	ldr	r1, __arm_cp.5_5
	adds	r6, r0, r1
.Ltmp269:
	@DEBUG_VALUE: mbedtls_internal_sha1_process:E <- $r6
	.loc	1 207 5 is_stmt 1               @ ../../../ThirdParty/mbedTLS/library/sha1.c:207:5
	eors	r2, r6
	mov	r0, r5
.Ltmp270:
	@DEBUG_VALUE: mbedtls_internal_sha1_process:W <- [DW_OP_LLVM_fragment 192 32] $r0
	ldr	r1, [sp, #80]                   @ 4-byte Reload
.Ltmp271:
	@DEBUG_VALUE: mbedtls_internal_sha1_process:W <- [DW_OP_LLVM_fragment 256 32] $r1
	eors	r0, r1
.Ltmp272:
	@DEBUG_VALUE: mbedtls_internal_sha1_process:W <- [DW_OP_plus_uconst 80, DW_OP_LLVM_fragment 256 32] [$sp+0]
	ldr	r1, [sp, #64]                   @ 4-byte Reload
.Ltmp273:
	@DEBUG_VALUE: mbedtls_internal_sha1_process:W <- [DW_OP_LLVM_fragment 448 32] $r1
	eors	r0, r1
.Ltmp274:
	@DEBUG_VALUE: mbedtls_internal_sha1_process:W <- [DW_OP_plus_uconst 64, DW_OP_LLVM_fragment 448 32] [$sp+0]
	ldr	r1, [sp, #60]                   @ 4-byte Reload
.Ltmp275:
	@DEBUG_VALUE: mbedtls_internal_sha1_process:W <- [DW_OP_LLVM_fragment 96 32] $r1
	eors	r0, r1
.Ltmp276:
	@DEBUG_VALUE: mbedtls_internal_sha1_process:temp <- $r0
	@DEBUG_VALUE: mbedtls_internal_sha1_process:W <- [DW_OP_plus_uconst 60, DW_OP_LLVM_fragment 96 32] [$sp+0]
	rors	r0, r4
.Ltmp277:
	@DEBUG_VALUE: mbedtls_internal_sha1_process:W <- [DW_OP_LLVM_fragment 192 32] $r0
	.loc	1 0 5 is_stmt 0                 @ ../../../ThirdParty/mbedTLS/library/sha1.c:0:5
	mov	r5, r4
	.loc	1 207 5                         @ ../../../ThirdParty/mbedTLS/library/sha1.c:207:5
	str	r0, [sp, #76]                   @ 4-byte Spill
.Ltmp278:
	@DEBUG_VALUE: mbedtls_internal_sha1_process:W <- [DW_OP_plus_uconst 76, DW_OP_LLVM_fragment 192 32] [$sp+0]
	adds	r1, r0, r3
	@DEBUG_VALUE: mbedtls_internal_sha1_process:W <- [DW_OP_plus_uconst 76, DW_OP_LLVM_fragment 192 32] [$sp+0]
	adds	r2, r1, r2
.Ltmp279:
	.loc	1 206 5 is_stmt 1               @ ../../../ThirdParty/mbedTLS/library/sha1.c:206:5
	eors	r3, r7
.Ltmp280:
	@DEBUG_VALUE: mbedtls_internal_sha1_process:B <- [DW_OP_plus_uconst 24] [$sp+0]
	ldr	r0, [sp, #40]                   @ 4-byte Reload
	eors	r3, r0
	ldr	r0, [sp, #96]                   @ 4-byte Reload
.Ltmp281:
	@DEBUG_VALUE: mbedtls_internal_sha1_process:W <- [DW_OP_LLVM_fragment 160 32] $r0
	.loc	1 0 5 is_stmt 0                 @ ../../../ThirdParty/mbedTLS/library/sha1.c:0:5
	ldr	r4, [sp, #56]                   @ 4-byte Reload
.Ltmp282:
	@DEBUG_VALUE: mbedtls_internal_sha1_process:W <- [DW_OP_LLVM_fragment 224 32] $r4
	.loc	1 206 5                         @ ../../../ThirdParty/mbedTLS/library/sha1.c:206:5
	eors	r0, r4
.Ltmp283:
	ldr	r1, [sp, #88]                   @ 4-byte Reload
.Ltmp284:
	@DEBUG_VALUE: mbedtls_internal_sha1_process:W <- [DW_OP_LLVM_fragment 416 32] $r1
	eors	r0, r1
.Ltmp285:
	@DEBUG_VALUE: mbedtls_internal_sha1_process:W <- [DW_OP_plus_uconst 88, DW_OP_LLVM_fragment 416 32] [$sp+0]
	ldr	r1, [sp, #72]                   @ 4-byte Reload
.Ltmp286:
	@DEBUG_VALUE: mbedtls_internal_sha1_process:W <- [DW_OP_LLVM_fragment 64 32] $r1
	eors	r0, r1
.Ltmp287:
	@DEBUG_VALUE: mbedtls_internal_sha1_process:temp <- $r0
	@DEBUG_VALUE: mbedtls_internal_sha1_process:W <- [DW_OP_plus_uconst 72, DW_OP_LLVM_fragment 64 32] [$sp+0]
	rors	r0, r5
.Ltmp288:
	@DEBUG_VALUE: mbedtls_internal_sha1_process:W <- [DW_OP_LLVM_fragment 160 32] $r0
	str	r0, [sp, #96]                   @ 4-byte Spill
	ldr	r1, [sp, #48]                   @ 4-byte Reload
.Ltmp289:
	@DEBUG_VALUE: mbedtls_internal_sha1_process:D <- $r1
	adds	r1, r0, r1
.Ltmp290:
	@DEBUG_VALUE: mbedtls_internal_sha1_process:W <- [DW_OP_plus_uconst 96, DW_OP_LLVM_fragment 160 32] [$sp+0]
	adds	r1, r1, r3
	mov	r3, r6
	ldr	r7, [sp, #120]                  @ 4-byte Reload
	rors	r3, r7
	adds	r1, r1, r3
	ldr	r5, __arm_cp.5_5
	adds	r0, r1, r5
.Ltmp291:
	@DEBUG_VALUE: mbedtls_internal_sha1_process:D <- $r0
	.loc	1 207 5 is_stmt 1               @ ../../../ThirdParty/mbedTLS/library/sha1.c:207:5
	mov	r3, r0
	rors	r3, r7
	adds	r2, r2, r3
	adds	r2, r2, r5
.Ltmp292:
	@DEBUG_VALUE: mbedtls_internal_sha1_process:C <- $r2
	.loc	1 209 5                         @ ../../../ThirdParty/mbedTLS/library/sha1.c:209:5
	mov	r3, r2
	ldr	r5, [sp, #124]                  @ 4-byte Reload
	rors	r3, r5
.Ltmp293:
	@DEBUG_VALUE: mbedtls_internal_sha1_process:C <- $r3
	.loc	1 0 5 is_stmt 0                 @ ../../../ThirdParty/mbedTLS/library/sha1.c:0:5
	str	r3, [sp, #20]                   @ 4-byte Spill
.Ltmp294:
	@DEBUG_VALUE: mbedtls_internal_sha1_process:C <- [DW_OP_plus_uconst 20] [$sp+0]
	@DEBUG_VALUE: mbedtls_internal_sha1_process:C <- [DW_OP_plus_uconst 20] [$sp+0]
	.loc	1 208 5 is_stmt 1               @ ../../../ThirdParty/mbedTLS/library/sha1.c:208:5
	mov	r3, r2
	rors	r3, r7
.Ltmp295:
	@DEBUG_VALUE: mbedtls_internal_sha1_process:E <- $r6
	.loc	1 207 5                         @ ../../../ThirdParty/mbedTLS/library/sha1.c:207:5
	rors	r6, r5
.Ltmp296:
	@DEBUG_VALUE: mbedtls_internal_sha1_process:E <- $r6
	.loc	1 0 5 is_stmt 0                 @ ../../../ThirdParty/mbedTLS/library/sha1.c:0:5
	str	r6, [sp, #36]                   @ 4-byte Spill
.Ltmp297:
	@DEBUG_VALUE: mbedtls_internal_sha1_process:E <- [DW_OP_plus_uconst 36] [$sp+0]
	.loc	1 208 5 is_stmt 1               @ ../../../ThirdParty/mbedTLS/library/sha1.c:208:5
	mov	r5, r6
	@DEBUG_VALUE: mbedtls_internal_sha1_process:E <- [DW_OP_plus_uconst 36] [$sp+0]
	ldr	r1, [sp, #44]                   @ 4-byte Reload
.Ltmp298:
	@DEBUG_VALUE: mbedtls_internal_sha1_process:A <- $r1
	eors	r5, r1
.Ltmp299:
	@DEBUG_VALUE: mbedtls_internal_sha1_process:A <- [DW_OP_plus_uconst 44] [$sp+0]
	eors	r5, r0
	mov	r1, r4
.Ltmp300:
	@DEBUG_VALUE: mbedtls_internal_sha1_process:W <- [DW_OP_LLVM_fragment 224 32] $r1
	ldr	r4, [sp, #112]                  @ 4-byte Reload
.Ltmp301:
	@DEBUG_VALUE: mbedtls_internal_sha1_process:W <- [DW_OP_LLVM_fragment 288 32] $r4
	eors	r1, r4
.Ltmp302:
	@DEBUG_VALUE: mbedtls_internal_sha1_process:W <- [DW_OP_plus_uconst 112, DW_OP_LLVM_fragment 288 32] [$sp+0]
	ldr	r4, [sp, #52]                   @ 4-byte Reload
.Ltmp303:
	@DEBUG_VALUE: mbedtls_internal_sha1_process:W <- [DW_OP_LLVM_fragment 480 32] $r4
	eors	r1, r4
.Ltmp304:
	@DEBUG_VALUE: mbedtls_internal_sha1_process:W <- [DW_OP_plus_uconst 52, DW_OP_LLVM_fragment 480 32] [$sp+0]
	ldr	r4, [sp, #84]                   @ 4-byte Reload
.Ltmp305:
	@DEBUG_VALUE: mbedtls_internal_sha1_process:W <- [DW_OP_LLVM_fragment 128 32] $r4
	eors	r1, r4
.Ltmp306:
	@DEBUG_VALUE: mbedtls_internal_sha1_process:temp <- $r1
	@DEBUG_VALUE: mbedtls_internal_sha1_process:W <- [DW_OP_plus_uconst 84, DW_OP_LLVM_fragment 128 32] [$sp+0]
	ldr	r4, [sp, #116]                  @ 4-byte Reload
	rors	r1, r4
.Ltmp307:
	@DEBUG_VALUE: mbedtls_internal_sha1_process:W <- [DW_OP_LLVM_fragment 224 32] $r1
	str	r1, [sp, #56]                   @ 4-byte Spill
	ldr	r4, [sp, #24]                   @ 4-byte Reload
.Ltmp308:
	@DEBUG_VALUE: mbedtls_internal_sha1_process:B <- $r4
	adds	r7, r1, r4
.Ltmp309:
	@DEBUG_VALUE: mbedtls_internal_sha1_process:W <- [DW_OP_plus_uconst 56, DW_OP_LLVM_fragment 224 32] [$sp+0]
	adds	r5, r7, r5
	adds	r3, r5, r3
	ldr	r1, __arm_cp.5_5
	adds	r7, r3, r1
.Ltmp310:
	@DEBUG_VALUE: mbedtls_internal_sha1_process:B <- $r7
	.loc	1 0 5 is_stmt 0                 @ ../../../ThirdParty/mbedTLS/library/sha1.c:0:5
	str	r7, [sp, #32]                   @ 4-byte Spill
.Ltmp311:
	@DEBUG_VALUE: mbedtls_internal_sha1_process:B <- [DW_OP_plus_uconst 32] [$sp+0]
	ldr	r1, [sp, #124]                  @ 4-byte Reload
.Ltmp312:
	.loc	1 210 5 is_stmt 1               @ ../../../ThirdParty/mbedTLS/library/sha1.c:210:5
	rors	r7, r1
.Ltmp313:
	@DEBUG_VALUE: mbedtls_internal_sha1_process:B <- $r7
	.loc	1 211 5                         @ ../../../ThirdParty/mbedTLS/library/sha1.c:211:5
	str	r7, [sp, #40]                   @ 4-byte Spill
.Ltmp314:
	@DEBUG_VALUE: mbedtls_internal_sha1_process:B <- [DW_OP_plus_uconst 40] [$sp+0]
	.loc	1 0 5 is_stmt 0                 @ ../../../ThirdParty/mbedTLS/library/sha1.c:0:5
	ldr	r6, [sp, #20]                   @ 4-byte Reload
.Ltmp315:
	@DEBUG_VALUE: mbedtls_internal_sha1_process:C <- $r6
	.loc	1 211 5                         @ ../../../ThirdParty/mbedTLS/library/sha1.c:211:5
	eors	r7, r6
.Ltmp316:
	.loc	1 208 5 is_stmt 1               @ ../../../ThirdParty/mbedTLS/library/sha1.c:208:5
	rors	r0, r1
.Ltmp317:
	@DEBUG_VALUE: mbedtls_internal_sha1_process:D <- $r0
	.loc	1 209 5                         @ ../../../ThirdParty/mbedTLS/library/sha1.c:209:5
	mov	r1, r0
	ldr	r3, [sp, #36]                   @ 4-byte Reload
.Ltmp318:
	@DEBUG_VALUE: mbedtls_internal_sha1_process:E <- $r3
	eors	r1, r3
.Ltmp319:
	@DEBUG_VALUE: mbedtls_internal_sha1_process:E <- [DW_OP_plus_uconst 36] [$sp+0]
	eors	r1, r2
	ldr	r2, [sp, #80]                   @ 4-byte Reload
.Ltmp320:
	@DEBUG_VALUE: mbedtls_internal_sha1_process:W <- [DW_OP_LLVM_fragment 256 32] $r2
	.loc	1 0 5 is_stmt 0                 @ ../../../ThirdParty/mbedTLS/library/sha1.c:0:5
	ldr	r4, [sp, #92]                   @ 4-byte Reload
.Ltmp321:
	@DEBUG_VALUE: mbedtls_internal_sha1_process:W <- [DW_OP_LLVM_fragment 320 32] $r4
	.loc	1 209 5                         @ ../../../ThirdParty/mbedTLS/library/sha1.c:209:5
	eors	r2, r4
.Ltmp322:
	ldr	r3, [sp, #108]                  @ 4-byte Reload
.Ltmp323:
	@DEBUG_VALUE: mbedtls_internal_sha1_process:W <- [DW_OP_LLVM_fragment 0 32] $r3
	eors	r2, r3
.Ltmp324:
	@DEBUG_VALUE: mbedtls_internal_sha1_process:W <- [DW_OP_plus_uconst 108, DW_OP_LLVM_fragment 0 32] [$sp+0]
	ldr	r3, [sp, #96]                   @ 4-byte Reload
.Ltmp325:
	@DEBUG_VALUE: mbedtls_internal_sha1_process:W <- [DW_OP_LLVM_fragment 160 32] $r3
	eors	r2, r3
.Ltmp326:
	@DEBUG_VALUE: mbedtls_internal_sha1_process:temp <- $r2
	@DEBUG_VALUE: mbedtls_internal_sha1_process:W <- [DW_OP_plus_uconst 96, DW_OP_LLVM_fragment 160 32] [$sp+0]
	.loc	1 0 5                           @ ../../../ThirdParty/mbedTLS/library/sha1.c:0:5
	ldr	r3, [sp, #116]                  @ 4-byte Reload
	.loc	1 209 5                         @ ../../../ThirdParty/mbedTLS/library/sha1.c:209:5
	rors	r2, r3
.Ltmp327:
	@DEBUG_VALUE: mbedtls_internal_sha1_process:W <- [DW_OP_LLVM_fragment 256 32] $r2
	str	r2, [sp, #80]                   @ 4-byte Spill
	ldr	r5, [sp, #44]                   @ 4-byte Reload
.Ltmp328:
	@DEBUG_VALUE: mbedtls_internal_sha1_process:A <- $r5
	adds	r2, r2, r5
.Ltmp329:
	@DEBUG_VALUE: mbedtls_internal_sha1_process:W <- [DW_OP_plus_uconst 80, DW_OP_LLVM_fragment 256 32] [$sp+0]
	@DEBUG_VALUE: mbedtls_internal_sha1_process:W <- [DW_OP_LLVM_fragment 256 32] $r2
	adds	r1, r2, r1
	ldr	r2, [sp, #32]                   @ 4-byte Reload
.Ltmp330:
	ldr	r5, [sp, #120]                  @ 4-byte Reload
.Ltmp331:
	rors	r2, r5
	adds	r1, r1, r2
	ldr	r2, __arm_cp.5_5
	adds	r1, r1, r2
.Ltmp332:
	@DEBUG_VALUE: mbedtls_internal_sha1_process:A <- $r1
	.loc	1 211 5 is_stmt 1               @ ../../../ThirdParty/mbedTLS/library/sha1.c:211:5
	str	r1, [sp, #48]                   @ 4-byte Spill
.Ltmp333:
	@DEBUG_VALUE: mbedtls_internal_sha1_process:A <- [DW_OP_plus_uconst 48] [$sp+0]
	eors	r7, r1
	@DEBUG_VALUE: mbedtls_internal_sha1_process:A <- [DW_OP_plus_uconst 48] [$sp+0]
	mov	r1, r4
.Ltmp334:
	@DEBUG_VALUE: mbedtls_internal_sha1_process:W <- [DW_OP_LLVM_fragment 320 32] $r1
	ldr	r2, [sp, #100]                  @ 4-byte Reload
.Ltmp335:
	@DEBUG_VALUE: mbedtls_internal_sha1_process:W <- [DW_OP_LLVM_fragment 384 32] $r2
	eors	r1, r2
.Ltmp336:
	@DEBUG_VALUE: mbedtls_internal_sha1_process:W <- [DW_OP_plus_uconst 100, DW_OP_LLVM_fragment 384 32] [$sp+0]
	ldr	r2, [sp, #72]                   @ 4-byte Reload
.Ltmp337:
	@DEBUG_VALUE: mbedtls_internal_sha1_process:W <- [DW_OP_LLVM_fragment 64 32] $r2
	eors	r1, r2
.Ltmp338:
	@DEBUG_VALUE: mbedtls_internal_sha1_process:W <- [DW_OP_plus_uconst 72, DW_OP_LLVM_fragment 64 32] [$sp+0]
	ldr	r2, [sp, #56]                   @ 4-byte Reload
.Ltmp339:
	@DEBUG_VALUE: mbedtls_internal_sha1_process:W <- [DW_OP_LLVM_fragment 224 32] $r2
	eors	r1, r2
.Ltmp340:
	@DEBUG_VALUE: mbedtls_internal_sha1_process:temp <- $r1
	@DEBUG_VALUE: mbedtls_internal_sha1_process:W <- [DW_OP_plus_uconst 56, DW_OP_LLVM_fragment 224 32] [$sp+0]
	rors	r1, r3
.Ltmp341:
	@DEBUG_VALUE: mbedtls_internal_sha1_process:W <- [DW_OP_LLVM_fragment 320 32] $r1
	str	r1, [sp, #92]                   @ 4-byte Spill
.Ltmp342:
	@DEBUG_VALUE: mbedtls_internal_sha1_process:W <- [DW_OP_plus_uconst 92, DW_OP_LLVM_fragment 320 32] [$sp+0]
	adds	r1, r1, r0
	@DEBUG_VALUE: mbedtls_internal_sha1_process:W <- [DW_OP_plus_uconst 92, DW_OP_LLVM_fragment 320 32] [$sp+0]
.Ltmp343:
	@DEBUG_VALUE: mbedtls_internal_sha1_process:W <- [DW_OP_LLVM_fragment 320 32] $r1
	adds	r1, r1, r7
.Ltmp344:
	.loc	1 210 5                         @ ../../../ThirdParty/mbedTLS/library/sha1.c:210:5
	str	r1, [sp, #44]                   @ 4-byte Spill
	eors	r0, r6
.Ltmp345:
	@DEBUG_VALUE: mbedtls_internal_sha1_process:C <- [DW_OP_plus_uconst 20] [$sp+0]
	ldr	r1, [sp, #32]                   @ 4-byte Reload
	eors	r0, r1
	ldr	r2, [sp, #112]                  @ 4-byte Reload
.Ltmp346:
	@DEBUG_VALUE: mbedtls_internal_sha1_process:W <- [DW_OP_LLVM_fragment 288 32] $r2
	.loc	1 0 5 is_stmt 0                 @ ../../../ThirdParty/mbedTLS/library/sha1.c:0:5
	ldr	r5, [sp, #68]                   @ 4-byte Reload
.Ltmp347:
	@DEBUG_VALUE: mbedtls_internal_sha1_process:W <- [DW_OP_LLVM_fragment 352 32] $r5
	.loc	1 210 5                         @ ../../../ThirdParty/mbedTLS/library/sha1.c:210:5
	eors	r2, r5
.Ltmp348:
	ldr	r1, [sp, #104]                  @ 4-byte Reload
.Ltmp349:
	@DEBUG_VALUE: mbedtls_internal_sha1_process:W <- [DW_OP_LLVM_fragment 32 32] $r1
	eors	r2, r1
.Ltmp350:
	@DEBUG_VALUE: mbedtls_internal_sha1_process:W <- [DW_OP_plus_uconst 104, DW_OP_LLVM_fragment 32 32] [$sp+0]
	ldr	r1, [sp, #76]                   @ 4-byte Reload
.Ltmp351:
	@DEBUG_VALUE: mbedtls_internal_sha1_process:W <- [DW_OP_LLVM_fragment 192 32] $r1
	eors	r2, r1
.Ltmp352:
	@DEBUG_VALUE: mbedtls_internal_sha1_process:temp <- $r2
	@DEBUG_VALUE: mbedtls_internal_sha1_process:W <- [DW_OP_plus_uconst 76, DW_OP_LLVM_fragment 192 32] [$sp+0]
	rors	r2, r3
.Ltmp353:
	@DEBUG_VALUE: mbedtls_internal_sha1_process:W <- [DW_OP_LLVM_fragment 288 32] $r2
	.loc	1 0 5                           @ ../../../ThirdParty/mbedTLS/library/sha1.c:0:5
	mov	r7, r3
	.loc	1 210 5                         @ ../../../ThirdParty/mbedTLS/library/sha1.c:210:5
	str	r2, [sp, #112]                  @ 4-byte Spill
	ldr	r1, [sp, #36]                   @ 4-byte Reload
.Ltmp354:
	@DEBUG_VALUE: mbedtls_internal_sha1_process:E <- $r1
	adds	r1, r2, r1
.Ltmp355:
	@DEBUG_VALUE: mbedtls_internal_sha1_process:W <- [DW_OP_plus_uconst 112, DW_OP_LLVM_fragment 288 32] [$sp+0]
	adds	r0, r1, r0
	ldr	r3, [sp, #48]                   @ 4-byte Reload
.Ltmp356:
	@DEBUG_VALUE: mbedtls_internal_sha1_process:A <- $r3
	mov	r1, r3
	ldr	r4, [sp, #120]                  @ 4-byte Reload
	rors	r1, r4
	adds	r0, r0, r1
	ldr	r1, __arm_cp.5_5
	adds	r2, r0, r1
.Ltmp357:
	@DEBUG_VALUE: mbedtls_internal_sha1_process:E <- $r2
	.loc	1 211 5 is_stmt 1               @ ../../../ThirdParty/mbedTLS/library/sha1.c:211:5
	mov	r0, r2
	rors	r0, r4
	ldr	r6, [sp, #44]                   @ 4-byte Reload
	adds	r0, r6, r0
	adds	r0, r0, r1
.Ltmp358:
	@DEBUG_VALUE: mbedtls_internal_sha1_process:D <- $r0
	.loc	1 213 5                         @ ../../../ThirdParty/mbedTLS/library/sha1.c:213:5
	mov	r6, r0
	ldr	r1, [sp, #124]                  @ 4-byte Reload
	rors	r6, r1
.Ltmp359:
	@DEBUG_VALUE: mbedtls_internal_sha1_process:D <- $r6
	.loc	1 0 5 is_stmt 0                 @ ../../../ThirdParty/mbedTLS/library/sha1.c:0:5
	str	r6, [sp, #32]                   @ 4-byte Spill
.Ltmp360:
	@DEBUG_VALUE: mbedtls_internal_sha1_process:D <- [DW_OP_plus_uconst 32] [$sp+0]
	@DEBUG_VALUE: mbedtls_internal_sha1_process:D <- [DW_OP_plus_uconst 32] [$sp+0]
	.loc	1 212 5 is_stmt 1               @ ../../../ThirdParty/mbedTLS/library/sha1.c:212:5
	mov	r6, r0
	rors	r6, r4
.Ltmp361:
	.loc	1 211 5                         @ ../../../ThirdParty/mbedTLS/library/sha1.c:211:5
	rors	r3, r1
.Ltmp362:
	@DEBUG_VALUE: mbedtls_internal_sha1_process:A <- $r3
	.loc	1 0 5 is_stmt 0                 @ ../../../ThirdParty/mbedTLS/library/sha1.c:0:5
	str	r3, [sp, #48]                   @ 4-byte Spill
.Ltmp363:
	@DEBUG_VALUE: mbedtls_internal_sha1_process:A <- [DW_OP_plus_uconst 48] [$sp+0]
	.loc	1 212 5 is_stmt 1               @ ../../../ThirdParty/mbedTLS/library/sha1.c:212:5
	mov	r4, r3
	@DEBUG_VALUE: mbedtls_internal_sha1_process:A <- [DW_OP_plus_uconst 48] [$sp+0]
	ldr	r1, [sp, #40]                   @ 4-byte Reload
.Ltmp364:
	@DEBUG_VALUE: mbedtls_internal_sha1_process:B <- $r1
	eors	r4, r1
.Ltmp365:
	@DEBUG_VALUE: mbedtls_internal_sha1_process:B <- [DW_OP_plus_uconst 40] [$sp+0]
	eors	r4, r2
	mov	r1, r5
.Ltmp366:
	@DEBUG_VALUE: mbedtls_internal_sha1_process:W <- [DW_OP_LLVM_fragment 352 32] $r1
	ldr	r5, [sp, #88]                   @ 4-byte Reload
.Ltmp367:
	@DEBUG_VALUE: mbedtls_internal_sha1_process:W <- [DW_OP_LLVM_fragment 416 32] $r5
	eors	r1, r5
.Ltmp368:
	@DEBUG_VALUE: mbedtls_internal_sha1_process:W <- [DW_OP_plus_uconst 88, DW_OP_LLVM_fragment 416 32] [$sp+0]
	ldr	r3, [sp, #60]                   @ 4-byte Reload
.Ltmp369:
	@DEBUG_VALUE: mbedtls_internal_sha1_process:W <- [DW_OP_LLVM_fragment 96 32] $r3
	eors	r1, r3
.Ltmp370:
	@DEBUG_VALUE: mbedtls_internal_sha1_process:W <- [DW_OP_plus_uconst 60, DW_OP_LLVM_fragment 96 32] [$sp+0]
	ldr	r5, [sp, #80]                   @ 4-byte Reload
.Ltmp371:
	@DEBUG_VALUE: mbedtls_internal_sha1_process:W <- [DW_OP_LLVM_fragment 256 32] $r5
	eors	r1, r5
.Ltmp372:
	@DEBUG_VALUE: mbedtls_internal_sha1_process:temp <- $r1
	@DEBUG_VALUE: mbedtls_internal_sha1_process:W <- [DW_OP_plus_uconst 80, DW_OP_LLVM_fragment 256 32] [$sp+0]
	rors	r1, r7
.Ltmp373:
	@DEBUG_VALUE: mbedtls_internal_sha1_process:W <- [DW_OP_LLVM_fragment 352 32] $r1
	str	r1, [sp, #68]                   @ 4-byte Spill
	ldr	r3, [sp, #20]                   @ 4-byte Reload
.Ltmp374:
	@DEBUG_VALUE: mbedtls_internal_sha1_process:C <- $r3
	adds	r7, r1, r3
.Ltmp375:
	@DEBUG_VALUE: mbedtls_internal_sha1_process:W <- [DW_OP_plus_uconst 68, DW_OP_LLVM_fragment 352 32] [$sp+0]
	adds	r4, r7, r4
	adds	r4, r4, r6
	ldr	r1, __arm_cp.5_5
	adds	r7, r4, r1
.Ltmp376:
	@DEBUG_VALUE: mbedtls_internal_sha1_process:C <- $r7
	.loc	1 0 5 is_stmt 0                 @ ../../../ThirdParty/mbedTLS/library/sha1.c:0:5
	str	r7, [sp, #36]                   @ 4-byte Spill
.Ltmp377:
	@DEBUG_VALUE: mbedtls_internal_sha1_process:C <- [DW_OP_plus_uconst 36] [$sp+0]
	ldr	r1, [sp, #124]                  @ 4-byte Reload
.Ltmp378:
	.loc	1 214 5 is_stmt 1               @ ../../../ThirdParty/mbedTLS/library/sha1.c:214:5
	rors	r7, r1
.Ltmp379:
	@DEBUG_VALUE: mbedtls_internal_sha1_process:C <- $r7
	.loc	1 215 5                         @ ../../../ThirdParty/mbedTLS/library/sha1.c:215:5
	str	r7, [sp, #44]                   @ 4-byte Spill
.Ltmp380:
	@DEBUG_VALUE: mbedtls_internal_sha1_process:C <- [DW_OP_plus_uconst 44] [$sp+0]
	.loc	1 0 5 is_stmt 0                 @ ../../../ThirdParty/mbedTLS/library/sha1.c:0:5
	ldr	r6, [sp, #32]                   @ 4-byte Reload
.Ltmp381:
	@DEBUG_VALUE: mbedtls_internal_sha1_process:D <- $r6
	.loc	1 215 5                         @ ../../../ThirdParty/mbedTLS/library/sha1.c:215:5
	eors	r7, r6
.Ltmp382:
	.loc	1 212 5 is_stmt 1               @ ../../../ThirdParty/mbedTLS/library/sha1.c:212:5
	rors	r2, r1
.Ltmp383:
	@DEBUG_VALUE: mbedtls_internal_sha1_process:E <- $r2
	.loc	1 213 5                         @ ../../../ThirdParty/mbedTLS/library/sha1.c:213:5
	mov	r1, r2
	ldr	r3, [sp, #48]                   @ 4-byte Reload
.Ltmp384:
	@DEBUG_VALUE: mbedtls_internal_sha1_process:A <- $r3
	eors	r1, r3
.Ltmp385:
	@DEBUG_VALUE: mbedtls_internal_sha1_process:A <- [DW_OP_plus_uconst 48] [$sp+0]
	eors	r1, r0
	ldr	r0, [sp, #100]                  @ 4-byte Reload
.Ltmp386:
	@DEBUG_VALUE: mbedtls_internal_sha1_process:W <- [DW_OP_LLVM_fragment 384 32] $r0
	.loc	1 0 5 is_stmt 0                 @ ../../../ThirdParty/mbedTLS/library/sha1.c:0:5
	ldr	r5, [sp, #64]                   @ 4-byte Reload
.Ltmp387:
	@DEBUG_VALUE: mbedtls_internal_sha1_process:W <- [DW_OP_LLVM_fragment 448 32] $r5
	.loc	1 213 5                         @ ../../../ThirdParty/mbedTLS/library/sha1.c:213:5
	eors	r0, r5
.Ltmp388:
	ldr	r4, [sp, #84]                   @ 4-byte Reload
.Ltmp389:
	@DEBUG_VALUE: mbedtls_internal_sha1_process:W <- [DW_OP_LLVM_fragment 128 32] $r4
	eors	r0, r4
.Ltmp390:
	@DEBUG_VALUE: mbedtls_internal_sha1_process:W <- [DW_OP_plus_uconst 84, DW_OP_LLVM_fragment 128 32] [$sp+0]
	ldr	r3, [sp, #112]                  @ 4-byte Reload
.Ltmp391:
	@DEBUG_VALUE: mbedtls_internal_sha1_process:W <- [DW_OP_LLVM_fragment 288 32] $r3
	eors	r0, r3
.Ltmp392:
	@DEBUG_VALUE: mbedtls_internal_sha1_process:temp <- $r0
	@DEBUG_VALUE: mbedtls_internal_sha1_process:W <- [DW_OP_plus_uconst 112, DW_OP_LLVM_fragment 288 32] [$sp+0]
	.loc	1 0 5                           @ ../../../ThirdParty/mbedTLS/library/sha1.c:0:5
	ldr	r3, [sp, #116]                  @ 4-byte Reload
	.loc	1 213 5                         @ ../../../ThirdParty/mbedTLS/library/sha1.c:213:5
	rors	r0, r3
.Ltmp393:
	@DEBUG_VALUE: mbedtls_internal_sha1_process:W <- [DW_OP_LLVM_fragment 384 32] $r0
	str	r0, [sp, #100]                  @ 4-byte Spill
	ldr	r4, [sp, #40]                   @ 4-byte Reload
.Ltmp394:
	@DEBUG_VALUE: mbedtls_internal_sha1_process:B <- $r4
	adds	r0, r0, r4
.Ltmp395:
	@DEBUG_VALUE: mbedtls_internal_sha1_process:W <- [DW_OP_plus_uconst 100, DW_OP_LLVM_fragment 384 32] [$sp+0]
	@DEBUG_VALUE: mbedtls_internal_sha1_process:W <- [DW_OP_LLVM_fragment 384 32] $r0
	adds	r0, r0, r1
.Ltmp396:
	ldr	r1, [sp, #36]                   @ 4-byte Reload
	ldr	r4, [sp, #120]                  @ 4-byte Reload
.Ltmp397:
	rors	r1, r4
	adds	r0, r0, r1
	ldr	r1, __arm_cp.5_5
	adds	r4, r0, r1
.Ltmp398:
	@DEBUG_VALUE: mbedtls_internal_sha1_process:B <- $r4
	.loc	1 215 5 is_stmt 1               @ ../../../ThirdParty/mbedTLS/library/sha1.c:215:5
	eors	r7, r4
	mov	r0, r5
.Ltmp399:
	@DEBUG_VALUE: mbedtls_internal_sha1_process:W <- [DW_OP_LLVM_fragment 448 32] $r0
	ldr	r1, [sp, #108]                  @ 4-byte Reload
.Ltmp400:
	@DEBUG_VALUE: mbedtls_internal_sha1_process:W <- [DW_OP_LLVM_fragment 0 32] $r1
	eors	r0, r1
.Ltmp401:
	@DEBUG_VALUE: mbedtls_internal_sha1_process:W <- [DW_OP_plus_uconst 108, DW_OP_LLVM_fragment 0 32] [$sp+0]
	ldr	r1, [sp, #76]                   @ 4-byte Reload
.Ltmp402:
	@DEBUG_VALUE: mbedtls_internal_sha1_process:W <- [DW_OP_LLVM_fragment 192 32] $r1
	eors	r0, r1
.Ltmp403:
	@DEBUG_VALUE: mbedtls_internal_sha1_process:W <- [DW_OP_plus_uconst 76, DW_OP_LLVM_fragment 192 32] [$sp+0]
	ldr	r1, [sp, #68]                   @ 4-byte Reload
.Ltmp404:
	@DEBUG_VALUE: mbedtls_internal_sha1_process:W <- [DW_OP_LLVM_fragment 352 32] $r1
	eors	r0, r1
.Ltmp405:
	@DEBUG_VALUE: mbedtls_internal_sha1_process:temp <- $r0
	@DEBUG_VALUE: mbedtls_internal_sha1_process:W <- [DW_OP_plus_uconst 68, DW_OP_LLVM_fragment 352 32] [$sp+0]
	rors	r0, r3
.Ltmp406:
	@DEBUG_VALUE: mbedtls_internal_sha1_process:W <- [DW_OP_LLVM_fragment 448 32] $r0
	str	r0, [sp, #64]                   @ 4-byte Spill
.Ltmp407:
	@DEBUG_VALUE: mbedtls_internal_sha1_process:W <- [DW_OP_plus_uconst 64, DW_OP_LLVM_fragment 448 32] [$sp+0]
	adds	r1, r0, r2
	@DEBUG_VALUE: mbedtls_internal_sha1_process:W <- [DW_OP_plus_uconst 64, DW_OP_LLVM_fragment 448 32] [$sp+0]
	adds	r7, r1, r7
.Ltmp408:
	.loc	1 214 5                         @ ../../../ThirdParty/mbedTLS/library/sha1.c:214:5
	eors	r2, r6
.Ltmp409:
	@DEBUG_VALUE: mbedtls_internal_sha1_process:D <- [DW_OP_plus_uconst 32] [$sp+0]
	ldr	r0, [sp, #36]                   @ 4-byte Reload
	eors	r2, r0
	ldr	r0, [sp, #88]                   @ 4-byte Reload
.Ltmp410:
	@DEBUG_VALUE: mbedtls_internal_sha1_process:W <- [DW_OP_LLVM_fragment 416 32] $r0
	.loc	1 0 5 is_stmt 0                 @ ../../../ThirdParty/mbedTLS/library/sha1.c:0:5
	ldr	r5, [sp, #52]                   @ 4-byte Reload
.Ltmp411:
	@DEBUG_VALUE: mbedtls_internal_sha1_process:W <- [DW_OP_LLVM_fragment 480 32] $r5
	.loc	1 214 5                         @ ../../../ThirdParty/mbedTLS/library/sha1.c:214:5
	eors	r0, r5
.Ltmp412:
	ldr	r1, [sp, #96]                   @ 4-byte Reload
.Ltmp413:
	@DEBUG_VALUE: mbedtls_internal_sha1_process:W <- [DW_OP_LLVM_fragment 160 32] $r1
	eors	r0, r1
.Ltmp414:
	@DEBUG_VALUE: mbedtls_internal_sha1_process:W <- [DW_OP_plus_uconst 96, DW_OP_LLVM_fragment 160 32] [$sp+0]
	ldr	r1, [sp, #92]                   @ 4-byte Reload
.Ltmp415:
	@DEBUG_VALUE: mbedtls_internal_sha1_process:W <- [DW_OP_LLVM_fragment 320 32] $r1
	eors	r0, r1
.Ltmp416:
	@DEBUG_VALUE: mbedtls_internal_sha1_process:temp <- $r0
	@DEBUG_VALUE: mbedtls_internal_sha1_process:W <- [DW_OP_plus_uconst 92, DW_OP_LLVM_fragment 320 32] [$sp+0]
	rors	r0, r3
.Ltmp417:
	@DEBUG_VALUE: mbedtls_internal_sha1_process:W <- [DW_OP_LLVM_fragment 416 32] $r0
	str	r0, [sp, #88]                   @ 4-byte Spill
	ldr	r1, [sp, #48]                   @ 4-byte Reload
.Ltmp418:
	@DEBUG_VALUE: mbedtls_internal_sha1_process:A <- $r1
	adds	r1, r0, r1
.Ltmp419:
	@DEBUG_VALUE: mbedtls_internal_sha1_process:W <- [DW_OP_plus_uconst 88, DW_OP_LLVM_fragment 416 32] [$sp+0]
	adds	r1, r1, r2
	mov	r2, r4
	ldr	r3, [sp, #120]                  @ 4-byte Reload
	rors	r2, r3
	adds	r1, r1, r2
	ldr	r6, __arm_cp.5_5
	adds	r0, r1, r6
.Ltmp420:
	@DEBUG_VALUE: mbedtls_internal_sha1_process:A <- $r0
	.loc	1 215 5 is_stmt 1               @ ../../../ThirdParty/mbedTLS/library/sha1.c:215:5
	mov	r2, r0
	rors	r2, r3
	adds	r2, r7, r2
	adds	r2, r2, r6
.Ltmp421:
	@DEBUG_VALUE: mbedtls_internal_sha1_process:E <- $r2
	.loc	1 217 5                         @ ../../../ThirdParty/mbedTLS/library/sha1.c:217:5
	mov	r6, r2
	ldr	r1, [sp, #124]                  @ 4-byte Reload
	rors	r6, r1
.Ltmp422:
	@DEBUG_VALUE: mbedtls_internal_sha1_process:E <- $r6
	.loc	1 0 5 is_stmt 0                 @ ../../../ThirdParty/mbedTLS/library/sha1.c:0:5
	str	r6, [sp, #40]                   @ 4-byte Spill
.Ltmp423:
	@DEBUG_VALUE: mbedtls_internal_sha1_process:E <- [DW_OP_plus_uconst 40] [$sp+0]
	@DEBUG_VALUE: mbedtls_internal_sha1_process:E <- [DW_OP_plus_uconst 40] [$sp+0]
	.loc	1 216 5 is_stmt 1               @ ../../../ThirdParty/mbedTLS/library/sha1.c:216:5
	mov	r6, r2
	rors	r6, r3
	mov	r7, r4
.Ltmp424:
	@DEBUG_VALUE: mbedtls_internal_sha1_process:B <- $r7
	@DEBUG_VALUE: mbedtls_internal_sha1_process:B <- $r7
	.loc	1 215 5                         @ ../../../ThirdParty/mbedTLS/library/sha1.c:215:5
	rors	r7, r1
.Ltmp425:
	@DEBUG_VALUE: mbedtls_internal_sha1_process:B <- $r7
	.loc	1 0 5 is_stmt 0                 @ ../../../ThirdParty/mbedTLS/library/sha1.c:0:5
	str	r7, [sp, #48]                   @ 4-byte Spill
.Ltmp426:
	@DEBUG_VALUE: mbedtls_internal_sha1_process:B <- [DW_OP_plus_uconst 48] [$sp+0]
	.loc	1 216 5 is_stmt 1               @ ../../../ThirdParty/mbedTLS/library/sha1.c:216:5
	ldr	r1, [sp, #44]                   @ 4-byte Reload
.Ltmp427:
	@DEBUG_VALUE: mbedtls_internal_sha1_process:C <- $r1
	eors	r7, r1
.Ltmp428:
	@DEBUG_VALUE: mbedtls_internal_sha1_process:C <- [DW_OP_plus_uconst 44] [$sp+0]
	eors	r7, r0
	mov	r1, r5
.Ltmp429:
	@DEBUG_VALUE: mbedtls_internal_sha1_process:W <- [DW_OP_LLVM_fragment 480 32] $r1
	ldr	r3, [sp, #104]                  @ 4-byte Reload
.Ltmp430:
	@DEBUG_VALUE: mbedtls_internal_sha1_process:W <- [DW_OP_LLVM_fragment 32 32] $r3
	eors	r1, r3
.Ltmp431:
	@DEBUG_VALUE: mbedtls_internal_sha1_process:W <- [DW_OP_plus_uconst 104, DW_OP_LLVM_fragment 32 32] [$sp+0]
	ldr	r3, [sp, #56]                   @ 4-byte Reload
.Ltmp432:
	@DEBUG_VALUE: mbedtls_internal_sha1_process:W <- [DW_OP_LLVM_fragment 224 32] $r3
	eors	r1, r3
.Ltmp433:
	@DEBUG_VALUE: mbedtls_internal_sha1_process:W <- [DW_OP_plus_uconst 56, DW_OP_LLVM_fragment 224 32] [$sp+0]
	ldr	r3, [sp, #100]                  @ 4-byte Reload
.Ltmp434:
	@DEBUG_VALUE: mbedtls_internal_sha1_process:W <- [DW_OP_LLVM_fragment 384 32] $r3
	eors	r1, r3
.Ltmp435:
	@DEBUG_VALUE: mbedtls_internal_sha1_process:temp <- $r1
	@DEBUG_VALUE: mbedtls_internal_sha1_process:W <- [DW_OP_plus_uconst 100, DW_OP_LLVM_fragment 384 32] [$sp+0]
	ldr	r3, [sp, #116]                  @ 4-byte Reload
	rors	r1, r3
.Ltmp436:
	@DEBUG_VALUE: mbedtls_internal_sha1_process:W <- [DW_OP_LLVM_fragment 480 32] $r1
	str	r1, [sp, #52]                   @ 4-byte Spill
	ldr	r3, [sp, #32]                   @ 4-byte Reload
.Ltmp437:
	@DEBUG_VALUE: mbedtls_internal_sha1_process:D <- $r3
	adds	r5, r1, r3
.Ltmp438:
	@DEBUG_VALUE: mbedtls_internal_sha1_process:W <- [DW_OP_plus_uconst 52, DW_OP_LLVM_fragment 480 32] [$sp+0]
	@DEBUG_VALUE: mbedtls_internal_sha1_process:W <- [DW_OP_LLVM_fragment 480 32] undef
	adds	r5, r5, r7
	adds	r5, r5, r6
	ldr	r1, __arm_cp.5_5
	adds	r4, r5, r1
.Ltmp439:
	@DEBUG_VALUE: mbedtls_internal_sha1_process:D <- $r4
	.loc	1 218 5                         @ ../../../ThirdParty/mbedTLS/library/sha1.c:218:5
	mov	r7, r4
	@DEBUG_VALUE: mbedtls_internal_sha1_process:D <- $r4
	ldr	r1, [sp, #124]                  @ 4-byte Reload
	rors	r7, r1
.Ltmp440:
	@DEBUG_VALUE: mbedtls_internal_sha1_process:D <- $r7
	.loc	1 219 5                         @ ../../../ThirdParty/mbedTLS/library/sha1.c:219:5
	str	r7, [sp, #36]                   @ 4-byte Spill
.Ltmp441:
	@DEBUG_VALUE: mbedtls_internal_sha1_process:D <- [DW_OP_plus_uconst 36] [$sp+0]
	@DEBUG_VALUE: mbedtls_internal_sha1_process:E <- undef
	ldr	r3, [sp, #40]                   @ 4-byte Reload
	eors	r7, r3
.Ltmp442:
	@DEBUG_VALUE: mbedtls_internal_sha1_process:E <- [DW_OP_plus_uconst 40] [$sp+0]
	@DEBUG_VALUE: mbedtls_internal_sha1_process:E <- undef
	.loc	1 216 5                         @ ../../../ThirdParty/mbedTLS/library/sha1.c:216:5
	rors	r0, r1
.Ltmp443:
	@DEBUG_VALUE: mbedtls_internal_sha1_process:A <- $r0
	.loc	1 217 5                         @ ../../../ThirdParty/mbedTLS/library/sha1.c:217:5
	mov	r1, r0
	ldr	r3, [sp, #48]                   @ 4-byte Reload
.Ltmp444:
	@DEBUG_VALUE: mbedtls_internal_sha1_process:B <- $r3
	eors	r1, r3
.Ltmp445:
	@DEBUG_VALUE: mbedtls_internal_sha1_process:B <- [DW_OP_plus_uconst 48] [$sp+0]
	eors	r1, r2
	ldr	r2, [sp, #108]                  @ 4-byte Reload
.Ltmp446:
	@DEBUG_VALUE: mbedtls_internal_sha1_process:W <- [DW_OP_LLVM_fragment 0 32] $r2
	.loc	1 0 5 is_stmt 0                 @ ../../../ThirdParty/mbedTLS/library/sha1.c:0:5
	ldr	r3, [sp, #72]                   @ 4-byte Reload
.Ltmp447:
	@DEBUG_VALUE: mbedtls_internal_sha1_process:W <- [DW_OP_LLVM_fragment 64 32] $r3
	.loc	1 217 5                         @ ../../../ThirdParty/mbedTLS/library/sha1.c:217:5
	eors	r2, r3
.Ltmp448:
	ldr	r5, [sp, #80]                   @ 4-byte Reload
.Ltmp449:
	@DEBUG_VALUE: mbedtls_internal_sha1_process:W <- [DW_OP_LLVM_fragment 256 32] $r5
	eors	r2, r5
.Ltmp450:
	@DEBUG_VALUE: mbedtls_internal_sha1_process:W <- [DW_OP_plus_uconst 80, DW_OP_LLVM_fragment 256 32] [$sp+0]
	ldr	r5, [sp, #88]                   @ 4-byte Reload
.Ltmp451:
	@DEBUG_VALUE: mbedtls_internal_sha1_process:W <- [DW_OP_LLVM_fragment 416 32] $r5
	eors	r2, r5
.Ltmp452:
	@DEBUG_VALUE: mbedtls_internal_sha1_process:temp <- $r2
	@DEBUG_VALUE: mbedtls_internal_sha1_process:W <- [DW_OP_plus_uconst 88, DW_OP_LLVM_fragment 416 32] [$sp+0]
	.loc	1 0 5                           @ ../../../ThirdParty/mbedTLS/library/sha1.c:0:5
	ldr	r5, [sp, #116]                  @ 4-byte Reload
	.loc	1 217 5                         @ ../../../ThirdParty/mbedTLS/library/sha1.c:217:5
	rors	r2, r5
.Ltmp453:
	@DEBUG_VALUE: mbedtls_internal_sha1_process:W <- [DW_OP_LLVM_fragment 0 32] $r2
	@DEBUG_VALUE: mbedtls_internal_sha1_process:W <- [DW_OP_LLVM_fragment 0 32] $r2
	str	r2, [sp, #108]                  @ 4-byte Spill
	ldr	r6, [sp, #44]                   @ 4-byte Reload
.Ltmp454:
	@DEBUG_VALUE: mbedtls_internal_sha1_process:C <- $r6
	adds	r2, r2, r6
.Ltmp455:
	@DEBUG_VALUE: mbedtls_internal_sha1_process:W <- [DW_OP_plus_uconst 108, DW_OP_LLVM_fragment 0 32] [$sp+0]
	@DEBUG_VALUE: mbedtls_internal_sha1_process:W <- [DW_OP_LLVM_fragment 0 32] $r2
	adds	r1, r2, r1
	mov	r2, r4
.Ltmp456:
	.loc	1 0 5                           @ ../../../ThirdParty/mbedTLS/library/sha1.c:0:5
	ldr	r6, [sp, #120]                  @ 4-byte Reload
.Ltmp457:
	.loc	1 217 5                         @ ../../../ThirdParty/mbedTLS/library/sha1.c:217:5
	rors	r2, r6
	adds	r1, r1, r2
	ldr	r2, __arm_cp.5_5
	adds	r1, r1, r2
.Ltmp458:
	@DEBUG_VALUE: mbedtls_internal_sha1_process:C <- $r1
	.loc	1 219 5 is_stmt 1               @ ../../../ThirdParty/mbedTLS/library/sha1.c:219:5
	str	r1, [sp, #44]                   @ 4-byte Spill
.Ltmp459:
	@DEBUG_VALUE: mbedtls_internal_sha1_process:C <- [DW_OP_plus_uconst 44] [$sp+0]
	eors	r7, r1
	@DEBUG_VALUE: mbedtls_internal_sha1_process:C <- [DW_OP_plus_uconst 44] [$sp+0]
	mov	r1, r3
.Ltmp460:
	@DEBUG_VALUE: mbedtls_internal_sha1_process:W <- [DW_OP_LLVM_fragment 64 32] $r1
	ldr	r2, [sp, #84]                   @ 4-byte Reload
.Ltmp461:
	@DEBUG_VALUE: mbedtls_internal_sha1_process:W <- [DW_OP_LLVM_fragment 128 32] $r2
	eors	r1, r2
.Ltmp462:
	@DEBUG_VALUE: mbedtls_internal_sha1_process:W <- [DW_OP_plus_uconst 84, DW_OP_LLVM_fragment 128 32] [$sp+0]
	ldr	r2, [sp, #92]                   @ 4-byte Reload
.Ltmp463:
	@DEBUG_VALUE: mbedtls_internal_sha1_process:W <- [DW_OP_LLVM_fragment 320 32] $r2
	eors	r1, r2
.Ltmp464:
	@DEBUG_VALUE: mbedtls_internal_sha1_process:W <- [DW_OP_plus_uconst 92, DW_OP_LLVM_fragment 320 32] [$sp+0]
	ldr	r2, [sp, #52]                   @ 4-byte Reload
.Ltmp465:
	@DEBUG_VALUE: mbedtls_internal_sha1_process:W <- [DW_OP_LLVM_fragment 480 32] $r2
	eors	r1, r2
.Ltmp466:
	@DEBUG_VALUE: mbedtls_internal_sha1_process:temp <- $r1
	@DEBUG_VALUE: mbedtls_internal_sha1_process:W <- [DW_OP_plus_uconst 52, DW_OP_LLVM_fragment 480 32] [$sp+0]
	@DEBUG_VALUE: mbedtls_internal_sha1_process:W <- [DW_OP_LLVM_fragment 480 32] undef
	.loc	1 0 5 is_stmt 0                 @ ../../../ThirdParty/mbedTLS/library/sha1.c:0:5
	mov	r3, r5
	.loc	1 219 5                         @ ../../../ThirdParty/mbedTLS/library/sha1.c:219:5
	rors	r1, r5
.Ltmp467:
	@DEBUG_VALUE: mbedtls_internal_sha1_process:W <- [DW_OP_LLVM_fragment 64 32] $r1
	@DEBUG_VALUE: mbedtls_internal_sha1_process:W <- [DW_OP_LLVM_fragment 64 32] $r1
	str	r1, [sp, #72]                   @ 4-byte Spill
.Ltmp468:
	@DEBUG_VALUE: mbedtls_internal_sha1_process:W <- [DW_OP_plus_uconst 72, DW_OP_LLVM_fragment 64 32] [$sp+0]
	adds	r1, r1, r0
	@DEBUG_VALUE: mbedtls_internal_sha1_process:W <- [DW_OP_plus_uconst 72, DW_OP_LLVM_fragment 64 32] [$sp+0]
.Ltmp469:
	@DEBUG_VALUE: mbedtls_internal_sha1_process:W <- [DW_OP_LLVM_fragment 64 32] $r1
	adds	r7, r1, r7
.Ltmp470:
	.loc	1 218 5 is_stmt 1               @ ../../../ThirdParty/mbedTLS/library/sha1.c:218:5
	ldr	r1, [sp, #40]                   @ 4-byte Reload
.Ltmp471:
	@DEBUG_VALUE: mbedtls_internal_sha1_process:E <- $r1
	eors	r0, r1
.Ltmp472:
	@DEBUG_VALUE: mbedtls_internal_sha1_process:E <- [DW_OP_plus_uconst 40] [$sp+0]
	@DEBUG_VALUE: mbedtls_internal_sha1_process:E <- undef
	eors	r0, r4
	ldr	r2, [sp, #104]                  @ 4-byte Reload
.Ltmp473:
	@DEBUG_VALUE: mbedtls_internal_sha1_process:W <- [DW_OP_LLVM_fragment 32 32] $r2
	.loc	1 0 5 is_stmt 0                 @ ../../../ThirdParty/mbedTLS/library/sha1.c:0:5
	ldr	r5, [sp, #60]                   @ 4-byte Reload
.Ltmp474:
	@DEBUG_VALUE: mbedtls_internal_sha1_process:W <- [DW_OP_LLVM_fragment 96 32] $r5
	.loc	1 218 5                         @ ../../../ThirdParty/mbedTLS/library/sha1.c:218:5
	eors	r2, r5
.Ltmp475:
	ldr	r1, [sp, #112]                  @ 4-byte Reload
.Ltmp476:
	@DEBUG_VALUE: mbedtls_internal_sha1_process:W <- [DW_OP_LLVM_fragment 288 32] $r1
	eors	r2, r1
.Ltmp477:
	@DEBUG_VALUE: mbedtls_internal_sha1_process:W <- [DW_OP_plus_uconst 112, DW_OP_LLVM_fragment 288 32] [$sp+0]
	ldr	r1, [sp, #64]                   @ 4-byte Reload
.Ltmp478:
	@DEBUG_VALUE: mbedtls_internal_sha1_process:W <- [DW_OP_LLVM_fragment 448 32] $r1
	eors	r2, r1
.Ltmp479:
	@DEBUG_VALUE: mbedtls_internal_sha1_process:temp <- $r2
	@DEBUG_VALUE: mbedtls_internal_sha1_process:W <- [DW_OP_plus_uconst 64, DW_OP_LLVM_fragment 448 32] [$sp+0]
	rors	r2, r3
.Ltmp480:
	@DEBUG_VALUE: mbedtls_internal_sha1_process:W <- [DW_OP_LLVM_fragment 32 32] $r2
	.loc	1 0 5                           @ ../../../ThirdParty/mbedTLS/library/sha1.c:0:5
	str	r2, [sp, #104]                  @ 4-byte Spill
	.loc	1 218 5                         @ ../../../ThirdParty/mbedTLS/library/sha1.c:218:5
	ldr	r1, [sp, #48]                   @ 4-byte Reload
.Ltmp481:
	@DEBUG_VALUE: mbedtls_internal_sha1_process:B <- $r1
	adds	r1, r2, r1
.Ltmp482:
	@DEBUG_VALUE: mbedtls_internal_sha1_process:W <- [DW_OP_plus_uconst 104, DW_OP_LLVM_fragment 32 32] [$sp+0]
	adds	r0, r1, r0
	ldr	r4, [sp, #44]                   @ 4-byte Reload
.Ltmp483:
	@DEBUG_VALUE: mbedtls_internal_sha1_process:C <- $r4
	mov	r1, r4
	rors	r1, r6
	adds	r0, r0, r1
	ldr	r1, __arm_cp.5_5
	adds	r2, r0, r1
.Ltmp484:
	@DEBUG_VALUE: mbedtls_internal_sha1_process:B <- $r2
	.loc	1 219 5 is_stmt 1               @ ../../../ThirdParty/mbedTLS/library/sha1.c:219:5
	mov	r0, r2
	rors	r0, r6
	adds	r0, r7, r0
	adds	r7, r0, r1
.Ltmp485:
	@DEBUG_VALUE: mbedtls_internal_sha1_process:A <- $r7
	.loc	1 221 5                         @ ../../../ThirdParty/mbedTLS/library/sha1.c:221:5
	mov	r0, r7
	ldr	r1, [sp, #124]                  @ 4-byte Reload
	rors	r0, r1
.Ltmp486:
	@DEBUG_VALUE: mbedtls_internal_sha1_process:A <- $r0
	.loc	1 0 5 is_stmt 0                 @ ../../../ThirdParty/mbedTLS/library/sha1.c:0:5
	str	r0, [sp, #48]                   @ 4-byte Spill
.Ltmp487:
	@DEBUG_VALUE: mbedtls_internal_sha1_process:A <- [DW_OP_plus_uconst 48] [$sp+0]
	@DEBUG_VALUE: mbedtls_internal_sha1_process:A <- [DW_OP_plus_uconst 48] [$sp+0]
	@DEBUG_VALUE: mbedtls_internal_sha1_process:A <- undef
	.loc	1 220 5 is_stmt 1               @ ../../../ThirdParty/mbedTLS/library/sha1.c:220:5
	mov	r0, r7
	rors	r0, r6
.Ltmp488:
	.loc	1 219 5                         @ ../../../ThirdParty/mbedTLS/library/sha1.c:219:5
	rors	r4, r1
.Ltmp489:
	@DEBUG_VALUE: mbedtls_internal_sha1_process:C <- $r4
	.loc	1 220 5                         @ ../../../ThirdParty/mbedTLS/library/sha1.c:220:5
	mov	r6, r4
	@DEBUG_VALUE: mbedtls_internal_sha1_process:C <- $r4
	str	r4, [sp, #44]                   @ 4-byte Spill
	ldr	r1, [sp, #36]                   @ 4-byte Reload
.Ltmp490:
	@DEBUG_VALUE: mbedtls_internal_sha1_process:D <- $r1
	eors	r6, r1
.Ltmp491:
	@DEBUG_VALUE: mbedtls_internal_sha1_process:D <- [DW_OP_plus_uconst 36] [$sp+0]
	eors	r6, r2
	mov	r1, r5
.Ltmp492:
	@DEBUG_VALUE: mbedtls_internal_sha1_process:W <- [DW_OP_LLVM_fragment 96 32] $r1
	ldr	r3, [sp, #96]                   @ 4-byte Reload
.Ltmp493:
	@DEBUG_VALUE: mbedtls_internal_sha1_process:W <- [DW_OP_LLVM_fragment 160 32] $r3
	eors	r1, r3
.Ltmp494:
	@DEBUG_VALUE: mbedtls_internal_sha1_process:W <- [DW_OP_plus_uconst 96, DW_OP_LLVM_fragment 160 32] [$sp+0]
	ldr	r3, [sp, #68]                   @ 4-byte Reload
.Ltmp495:
	@DEBUG_VALUE: mbedtls_internal_sha1_process:W <- [DW_OP_LLVM_fragment 352 32] $r3
	eors	r1, r3
.Ltmp496:
	@DEBUG_VALUE: mbedtls_internal_sha1_process:W <- [DW_OP_plus_uconst 68, DW_OP_LLVM_fragment 352 32] [$sp+0]
	ldr	r3, [sp, #108]                  @ 4-byte Reload
.Ltmp497:
	@DEBUG_VALUE: mbedtls_internal_sha1_process:W <- [DW_OP_LLVM_fragment 0 32] $r3
	eors	r1, r3
.Ltmp498:
	@DEBUG_VALUE: mbedtls_internal_sha1_process:temp <- $r1
	@DEBUG_VALUE: mbedtls_internal_sha1_process:W <- [DW_OP_plus_uconst 108, DW_OP_LLVM_fragment 0 32] [$sp+0]
	.loc	1 0 5 is_stmt 0                 @ ../../../ThirdParty/mbedTLS/library/sha1.c:0:5
	ldr	r5, [sp, #116]                  @ 4-byte Reload
	.loc	1 220 5                         @ ../../../ThirdParty/mbedTLS/library/sha1.c:220:5
	rors	r1, r5
.Ltmp499:
	@DEBUG_VALUE: mbedtls_internal_sha1_process:W <- [DW_OP_LLVM_fragment 96 32] $r1
	str	r1, [sp, #60]                   @ 4-byte Spill
	ldr	r3, [sp, #40]                   @ 4-byte Reload
.Ltmp500:
	@DEBUG_VALUE: mbedtls_internal_sha1_process:E <- $r3
	adds	r3, r1, r3
.Ltmp501:
	@DEBUG_VALUE: mbedtls_internal_sha1_process:W <- [DW_OP_plus_uconst 60, DW_OP_LLVM_fragment 96 32] [$sp+0]
	adds	r3, r3, r6
	adds	r0, r3, r0
	ldr	r1, __arm_cp.5_5
	adds	r3, r0, r1
.Ltmp502:
	@DEBUG_VALUE: mbedtls_internal_sha1_process:E <- $r3
	.loc	1 222 5 is_stmt 1               @ ../../../ThirdParty/mbedTLS/library/sha1.c:222:5
	mov	r6, r3
	ldr	r0, [sp, #124]                  @ 4-byte Reload
	rors	r6, r0
.Ltmp503:
	@DEBUG_VALUE: mbedtls_internal_sha1_process:E <- $r6
	.loc	1 223 5                         @ ../../../ThirdParty/mbedTLS/library/sha1.c:223:5
	str	r6, [sp, #40]                   @ 4-byte Spill
	ldr	r1, [sp, #48]                   @ 4-byte Reload
.Ltmp504:
	@DEBUG_VALUE: mbedtls_internal_sha1_process:E <- [DW_OP_plus_uconst 40] [$sp+0]
	@DEBUG_VALUE: mbedtls_internal_sha1_process:A <- $r1
	eors	r6, r1
.Ltmp505:
	@DEBUG_VALUE: mbedtls_internal_sha1_process:A <- [DW_OP_plus_uconst 48] [$sp+0]
	@DEBUG_VALUE: mbedtls_internal_sha1_process:A <- undef
	.loc	1 220 5                         @ ../../../ThirdParty/mbedTLS/library/sha1.c:220:5
	rors	r2, r0
.Ltmp506:
	@DEBUG_VALUE: mbedtls_internal_sha1_process:B <- $r2
	.loc	1 221 5                         @ ../../../ThirdParty/mbedTLS/library/sha1.c:221:5
	mov	r1, r2
	eors	r1, r4
.Ltmp507:
	@DEBUG_VALUE: mbedtls_internal_sha1_process:C <- [DW_OP_plus_uconst 44] [$sp+0]
	eors	r1, r7
	ldr	r7, [sp, #84]                   @ 4-byte Reload
.Ltmp508:
	@DEBUG_VALUE: mbedtls_internal_sha1_process:W <- [DW_OP_LLVM_fragment 128 32] $r7
	.loc	1 0 5 is_stmt 0                 @ ../../../ThirdParty/mbedTLS/library/sha1.c:0:5
	ldr	r4, [sp, #76]                   @ 4-byte Reload
.Ltmp509:
	@DEBUG_VALUE: mbedtls_internal_sha1_process:W <- [DW_OP_LLVM_fragment 192 32] $r4
	.loc	1 221 5                         @ ../../../ThirdParty/mbedTLS/library/sha1.c:221:5
	eors	r7, r4
.Ltmp510:
	ldr	r0, [sp, #100]                  @ 4-byte Reload
.Ltmp511:
	@DEBUG_VALUE: mbedtls_internal_sha1_process:W <- [DW_OP_LLVM_fragment 384 32] $r0
	eors	r7, r0
.Ltmp512:
	@DEBUG_VALUE: mbedtls_internal_sha1_process:W <- [DW_OP_plus_uconst 100, DW_OP_LLVM_fragment 384 32] [$sp+0]
	ldr	r0, [sp, #104]                  @ 4-byte Reload
.Ltmp513:
	@DEBUG_VALUE: mbedtls_internal_sha1_process:W <- [DW_OP_LLVM_fragment 32 32] $r0
	eors	r7, r0
.Ltmp514:
	@DEBUG_VALUE: mbedtls_internal_sha1_process:temp <- $r7
	@DEBUG_VALUE: mbedtls_internal_sha1_process:W <- [DW_OP_plus_uconst 104, DW_OP_LLVM_fragment 32 32] [$sp+0]
	.loc	1 0 5                           @ ../../../ThirdParty/mbedTLS/library/sha1.c:0:5
	mov	r0, r5
	.loc	1 221 5                         @ ../../../ThirdParty/mbedTLS/library/sha1.c:221:5
	rors	r7, r5
.Ltmp515:
	@DEBUG_VALUE: mbedtls_internal_sha1_process:W <- [DW_OP_LLVM_fragment 128 32] $r7
	str	r7, [sp, #84]                   @ 4-byte Spill
	ldr	r5, [sp, #36]                   @ 4-byte Reload
.Ltmp516:
	@DEBUG_VALUE: mbedtls_internal_sha1_process:D <- $r5
	adds	r5, r7, r5
.Ltmp517:
	@DEBUG_VALUE: mbedtls_internal_sha1_process:W <- [DW_OP_plus_uconst 84, DW_OP_LLVM_fragment 128 32] [$sp+0]
	adds	r1, r5, r1
	mov	r5, r3
	ldr	r7, [sp, #120]                  @ 4-byte Reload
	rors	r5, r7
	adds	r1, r1, r5
	ldr	r5, __arm_cp.5_5
	adds	r5, r1, r5
.Ltmp518:
	@DEBUG_VALUE: mbedtls_internal_sha1_process:D <- $r5
	.loc	1 223 5 is_stmt 1               @ ../../../ThirdParty/mbedTLS/library/sha1.c:223:5
	eors	r6, r5
	mov	r1, r4
.Ltmp519:
	@DEBUG_VALUE: mbedtls_internal_sha1_process:W <- [DW_OP_LLVM_fragment 192 32] $r1
	ldr	r7, [sp, #80]                   @ 4-byte Reload
.Ltmp520:
	@DEBUG_VALUE: mbedtls_internal_sha1_process:W <- [DW_OP_LLVM_fragment 256 32] $r7
	eors	r1, r7
.Ltmp521:
	@DEBUG_VALUE: mbedtls_internal_sha1_process:W <- [DW_OP_plus_uconst 80, DW_OP_LLVM_fragment 256 32] [$sp+0]
	ldr	r7, [sp, #64]                   @ 4-byte Reload
.Ltmp522:
	@DEBUG_VALUE: mbedtls_internal_sha1_process:W <- [DW_OP_LLVM_fragment 448 32] $r7
	eors	r1, r7
.Ltmp523:
	@DEBUG_VALUE: mbedtls_internal_sha1_process:W <- [DW_OP_plus_uconst 64, DW_OP_LLVM_fragment 448 32] [$sp+0]
	ldr	r7, [sp, #60]                   @ 4-byte Reload
.Ltmp524:
	@DEBUG_VALUE: mbedtls_internal_sha1_process:W <- [DW_OP_LLVM_fragment 96 32] $r7
	eors	r1, r7
.Ltmp525:
	@DEBUG_VALUE: mbedtls_internal_sha1_process:temp <- $r1
	@DEBUG_VALUE: mbedtls_internal_sha1_process:W <- [DW_OP_plus_uconst 60, DW_OP_LLVM_fragment 96 32] [$sp+0]
	rors	r1, r0
.Ltmp526:
	@DEBUG_VALUE: mbedtls_internal_sha1_process:W <- [DW_OP_LLVM_fragment 192 32] $r1
	.loc	1 0 5 is_stmt 0                 @ ../../../ThirdParty/mbedTLS/library/sha1.c:0:5
	str	r1, [sp, #76]                   @ 4-byte Spill
.Ltmp527:
	@DEBUG_VALUE: mbedtls_internal_sha1_process:W <- [DW_OP_plus_uconst 76, DW_OP_LLVM_fragment 192 32] [$sp+0]
	.loc	1 223 5                         @ ../../../ThirdParty/mbedTLS/library/sha1.c:223:5
	adds	r1, r1, r2
	@DEBUG_VALUE: mbedtls_internal_sha1_process:W <- [DW_OP_plus_uconst 76, DW_OP_LLVM_fragment 192 32] [$sp+0]
.Ltmp528:
	@DEBUG_VALUE: mbedtls_internal_sha1_process:W <- [DW_OP_LLVM_fragment 192 32] $r1
	adds	r6, r1, r6
.Ltmp529:
	.loc	1 222 5 is_stmt 1               @ ../../../ThirdParty/mbedTLS/library/sha1.c:222:5
	ldr	r1, [sp, #48]                   @ 4-byte Reload
.Ltmp530:
	@DEBUG_VALUE: mbedtls_internal_sha1_process:A <- $r1
	eors	r2, r1
.Ltmp531:
	@DEBUG_VALUE: mbedtls_internal_sha1_process:A <- [DW_OP_plus_uconst 48] [$sp+0]
	eors	r2, r3
	ldr	r3, [sp, #96]                   @ 4-byte Reload
.Ltmp532:
	@DEBUG_VALUE: mbedtls_internal_sha1_process:W <- [DW_OP_LLVM_fragment 160 32] $r3
	.loc	1 0 5 is_stmt 0                 @ ../../../ThirdParty/mbedTLS/library/sha1.c:0:5
	ldr	r4, [sp, #56]                   @ 4-byte Reload
.Ltmp533:
	@DEBUG_VALUE: mbedtls_internal_sha1_process:W <- [DW_OP_LLVM_fragment 224 32] $r4
	.loc	1 222 5                         @ ../../../ThirdParty/mbedTLS/library/sha1.c:222:5
	eors	r3, r4
.Ltmp534:
	ldr	r1, [sp, #88]                   @ 4-byte Reload
.Ltmp535:
	@DEBUG_VALUE: mbedtls_internal_sha1_process:W <- [DW_OP_LLVM_fragment 416 32] $r1
	eors	r3, r1
.Ltmp536:
	@DEBUG_VALUE: mbedtls_internal_sha1_process:W <- [DW_OP_plus_uconst 88, DW_OP_LLVM_fragment 416 32] [$sp+0]
	ldr	r1, [sp, #72]                   @ 4-byte Reload
.Ltmp537:
	@DEBUG_VALUE: mbedtls_internal_sha1_process:W <- [DW_OP_LLVM_fragment 64 32] $r1
	eors	r3, r1
.Ltmp538:
	@DEBUG_VALUE: mbedtls_internal_sha1_process:temp <- $r3
	@DEBUG_VALUE: mbedtls_internal_sha1_process:W <- [DW_OP_plus_uconst 72, DW_OP_LLVM_fragment 64 32] [$sp+0]
	rors	r3, r0
.Ltmp539:
	@DEBUG_VALUE: mbedtls_internal_sha1_process:W <- [DW_OP_LLVM_fragment 160 32] $r3
	.loc	1 0 5                           @ ../../../ThirdParty/mbedTLS/library/sha1.c:0:5
	str	r3, [sp, #96]                   @ 4-byte Spill
	.loc	1 222 5                         @ ../../../ThirdParty/mbedTLS/library/sha1.c:222:5
	ldr	r0, [sp, #44]                   @ 4-byte Reload
.Ltmp540:
	@DEBUG_VALUE: mbedtls_internal_sha1_process:C <- $r0
	adds	r1, r3, r0
.Ltmp541:
	@DEBUG_VALUE: mbedtls_internal_sha1_process:W <- [DW_OP_plus_uconst 96, DW_OP_LLVM_fragment 160 32] [$sp+0]
	adds	r1, r1, r2
	mov	r2, r5
	ldr	r7, [sp, #120]                  @ 4-byte Reload
	rors	r2, r7
	adds	r1, r1, r2
	ldr	r0, __arm_cp.5_5
.Ltmp542:
	adds	r1, r1, r0
.Ltmp543:
	@DEBUG_VALUE: mbedtls_internal_sha1_process:C <- $r1
	.loc	1 223 5 is_stmt 1               @ ../../../ThirdParty/mbedTLS/library/sha1.c:223:5
	mov	r2, r1
	@DEBUG_VALUE: mbedtls_internal_sha1_process:C <- $r1
	str	r1, [sp, #44]                   @ 4-byte Spill
	rors	r2, r7
	adds	r2, r6, r2
	adds	r2, r2, r0
.Ltmp544:
	@DEBUG_VALUE: mbedtls_internal_sha1_process:B <- $r2
	.loc	1 232 5                         @ ../../../ThirdParty/mbedTLS/library/sha1.c:232:5
	mov	r3, r2
	ldr	r0, [sp, #124]                  @ 4-byte Reload
	rors	r3, r0
.Ltmp545:
	@DEBUG_VALUE: mbedtls_internal_sha1_process:B <- $r3
	.loc	1 224 5                         @ ../../../ThirdParty/mbedTLS/library/sha1.c:224:5
	mov	r6, r2
	rors	r6, r7
.Ltmp546:
	.loc	1 223 5                         @ ../../../ThirdParty/mbedTLS/library/sha1.c:223:5
	rors	r5, r0
.Ltmp547:
	@DEBUG_VALUE: mbedtls_internal_sha1_process:D <- $r5
	.loc	1 224 5                         @ ../../../ThirdParty/mbedTLS/library/sha1.c:224:5
	mov	r7, r5
	ldr	r0, [sp, #40]                   @ 4-byte Reload
.Ltmp548:
	@DEBUG_VALUE: mbedtls_internal_sha1_process:E <- $r0
	eors	r7, r0
.Ltmp549:
	@DEBUG_VALUE: mbedtls_internal_sha1_process:E <- [DW_OP_plus_uconst 40] [$sp+0]
	eors	r7, r1
.Ltmp550:
	@DEBUG_VALUE: mbedtls_internal_sha1_process:C <- [DW_OP_plus_uconst 44] [$sp+0]
	.loc	1 0 5 is_stmt 0                 @ ../../../ThirdParty/mbedTLS/library/sha1.c:0:5
	mov	r0, r4
.Ltmp551:
	@DEBUG_VALUE: mbedtls_internal_sha1_process:W <- [DW_OP_LLVM_fragment 224 32] $r0
	.loc	1 224 5                         @ ../../../ThirdParty/mbedTLS/library/sha1.c:224:5
	ldr	r1, [sp, #112]                  @ 4-byte Reload
.Ltmp552:
	@DEBUG_VALUE: mbedtls_internal_sha1_process:W <- [DW_OP_LLVM_fragment 288 32] $r1
	eors	r0, r1
.Ltmp553:
	@DEBUG_VALUE: mbedtls_internal_sha1_process:W <- [DW_OP_plus_uconst 112, DW_OP_LLVM_fragment 288 32] [$sp+0]
	ldr	r1, [sp, #52]                   @ 4-byte Reload
.Ltmp554:
	@DEBUG_VALUE: mbedtls_internal_sha1_process:W <- [DW_OP_LLVM_fragment 480 32] $r1
	eors	r0, r1
.Ltmp555:
	@DEBUG_VALUE: mbedtls_internal_sha1_process:W <- [DW_OP_plus_uconst 52, DW_OP_LLVM_fragment 480 32] [$sp+0]
	ldr	r1, [sp, #84]                   @ 4-byte Reload
.Ltmp556:
	@DEBUG_VALUE: mbedtls_internal_sha1_process:W <- [DW_OP_LLVM_fragment 128 32] $r1
	eors	r0, r1
.Ltmp557:
	@DEBUG_VALUE: mbedtls_internal_sha1_process:temp <- $r0
	@DEBUG_VALUE: mbedtls_internal_sha1_process:W <- [DW_OP_plus_uconst 84, DW_OP_LLVM_fragment 128 32] [$sp+0]
	.loc	1 0 5                           @ ../../../ThirdParty/mbedTLS/library/sha1.c:0:5
	ldr	r1, [sp, #116]                  @ 4-byte Reload
	.loc	1 224 5                         @ ../../../ThirdParty/mbedTLS/library/sha1.c:224:5
	rors	r0, r1
.Ltmp558:
	@DEBUG_VALUE: mbedtls_internal_sha1_process:W <- [DW_OP_LLVM_fragment 224 32] $r0
	str	r0, [sp, #56]                   @ 4-byte Spill
	ldr	r4, [sp, #48]                   @ 4-byte Reload
.Ltmp559:
	@DEBUG_VALUE: mbedtls_internal_sha1_process:A <- $r4
	adds	r4, r0, r4
.Ltmp560:
	@DEBUG_VALUE: mbedtls_internal_sha1_process:W <- [DW_OP_plus_uconst 56, DW_OP_LLVM_fragment 224 32] [$sp+0]
	adds	r4, r4, r7
	adds	r4, r4, r6
	ldr	r0, __arm_cp.5_5
	adds	r0, r4, r0
.Ltmp561:
	@DEBUG_VALUE: mbedtls_internal_sha1_process:A <- $r0
	.loc	1 233 5 is_stmt 1               @ ../../../ThirdParty/mbedTLS/library/sha1.c:233:5
	mov	r7, r0
	@DEBUG_VALUE: mbedtls_internal_sha1_process:B <- $r3
	str	r3, [sp, #36]                   @ 4-byte Spill
	ands	r7, r3
	mov	r6, r0
	mov	r4, r0
.Ltmp562:
	@DEBUG_VALUE: mbedtls_internal_sha1_process:A <- $r4
	@DEBUG_VALUE: mbedtls_internal_sha1_process:A <- $r4
	orrs	r6, r3
.Ltmp563:
	@DEBUG_VALUE: mbedtls_internal_sha1_process:B <- [DW_OP_plus_uconst 36] [$sp+0]
	.loc	1 0 5 is_stmt 0                 @ ../../../ThirdParty/mbedTLS/library/sha1.c:0:5
	ldr	r0, [sp, #44]                   @ 4-byte Reload
.Ltmp564:
	@DEBUG_VALUE: mbedtls_internal_sha1_process:C <- $r0
	.loc	1 224 5 is_stmt 1               @ ../../../ThirdParty/mbedTLS/library/sha1.c:224:5
	ldr	r3, [sp, #124]                  @ 4-byte Reload
	rors	r0, r3
.Ltmp565:
	@DEBUG_VALUE: mbedtls_internal_sha1_process:C <- $r0
	.loc	1 233 5                         @ ../../../ThirdParty/mbedTLS/library/sha1.c:233:5
	ands	r6, r0
	mov	r3, r0
.Ltmp566:
	@DEBUG_VALUE: mbedtls_internal_sha1_process:C <- $r3
	orrs	r6, r7
	ldr	r0, [sp, #112]                  @ 4-byte Reload
.Ltmp567:
	@DEBUG_VALUE: mbedtls_internal_sha1_process:W <- [DW_OP_LLVM_fragment 288 32] $r0
	ldr	r7, [sp, #68]                   @ 4-byte Reload
.Ltmp568:
	@DEBUG_VALUE: mbedtls_internal_sha1_process:W <- [DW_OP_LLVM_fragment 352 32] $r7
	eors	r0, r7
.Ltmp569:
	@DEBUG_VALUE: mbedtls_internal_sha1_process:W <- [DW_OP_plus_uconst 68, DW_OP_LLVM_fragment 352 32] [$sp+0]
	ldr	r7, [sp, #104]                  @ 4-byte Reload
.Ltmp570:
	@DEBUG_VALUE: mbedtls_internal_sha1_process:W <- [DW_OP_LLVM_fragment 32 32] $r7
	eors	r0, r7
.Ltmp571:
	@DEBUG_VALUE: mbedtls_internal_sha1_process:W <- [DW_OP_plus_uconst 104, DW_OP_LLVM_fragment 32 32] [$sp+0]
	ldr	r7, [sp, #76]                   @ 4-byte Reload
.Ltmp572:
	@DEBUG_VALUE: mbedtls_internal_sha1_process:W <- [DW_OP_LLVM_fragment 192 32] $r7
	eors	r0, r7
.Ltmp573:
	@DEBUG_VALUE: mbedtls_internal_sha1_process:temp <- $r0
	@DEBUG_VALUE: mbedtls_internal_sha1_process:W <- [DW_OP_plus_uconst 76, DW_OP_LLVM_fragment 192 32] [$sp+0]
	rors	r0, r1
.Ltmp574:
	@DEBUG_VALUE: mbedtls_internal_sha1_process:W <- [DW_OP_LLVM_fragment 288 32] $r0
	.loc	1 0 5 is_stmt 0                 @ ../../../ThirdParty/mbedTLS/library/sha1.c:0:5
	str	r0, [sp, #112]                  @ 4-byte Spill
.Ltmp575:
	@DEBUG_VALUE: mbedtls_internal_sha1_process:W <- [DW_OP_plus_uconst 112, DW_OP_LLVM_fragment 288 32] [$sp+0]
	.loc	1 233 5                         @ ../../../ThirdParty/mbedTLS/library/sha1.c:233:5
	adds	r7, r0, r5
	@DEBUG_VALUE: mbedtls_internal_sha1_process:W <- [DW_OP_plus_uconst 112, DW_OP_LLVM_fragment 288 32] [$sp+0]
	adds	r6, r7, r6
.Ltmp576:
	.loc	1 232 5 is_stmt 1               @ ../../../ThirdParty/mbedTLS/library/sha1.c:232:5
	mov	r7, r2
	@DEBUG_VALUE: mbedtls_internal_sha1_process:C <- $r3
	str	r3, [sp, #44]                   @ 4-byte Spill
	ands	r7, r3
	orrs	r2, r3
.Ltmp577:
	@DEBUG_VALUE: mbedtls_internal_sha1_process:C <- [DW_OP_plus_uconst 44] [$sp+0]
	ands	r2, r5
	orrs	r2, r7
	ldr	r0, [sp, #80]                   @ 4-byte Reload
.Ltmp578:
	@DEBUG_VALUE: mbedtls_internal_sha1_process:W <- [DW_OP_LLVM_fragment 256 32] $r0
	ldr	r5, [sp, #92]                   @ 4-byte Reload
.Ltmp579:
	@DEBUG_VALUE: mbedtls_internal_sha1_process:W <- [DW_OP_LLVM_fragment 320 32] $r5
	eors	r0, r5
.Ltmp580:
	@DEBUG_VALUE: mbedtls_internal_sha1_process:W <- [DW_OP_plus_uconst 92, DW_OP_LLVM_fragment 320 32] [$sp+0]
	ldr	r5, [sp, #108]                  @ 4-byte Reload
.Ltmp581:
	@DEBUG_VALUE: mbedtls_internal_sha1_process:W <- [DW_OP_LLVM_fragment 0 32] $r5
	eors	r0, r5
.Ltmp582:
	@DEBUG_VALUE: mbedtls_internal_sha1_process:W <- [DW_OP_plus_uconst 108, DW_OP_LLVM_fragment 0 32] [$sp+0]
	ldr	r5, [sp, #96]                   @ 4-byte Reload
.Ltmp583:
	@DEBUG_VALUE: mbedtls_internal_sha1_process:W <- [DW_OP_LLVM_fragment 160 32] $r5
	eors	r0, r5
.Ltmp584:
	@DEBUG_VALUE: mbedtls_internal_sha1_process:temp <- $r0
	@DEBUG_VALUE: mbedtls_internal_sha1_process:W <- [DW_OP_plus_uconst 96, DW_OP_LLVM_fragment 160 32] [$sp+0]
	rors	r0, r1
.Ltmp585:
	@DEBUG_VALUE: mbedtls_internal_sha1_process:W <- [DW_OP_LLVM_fragment 256 32] $r0
	.loc	1 0 5 is_stmt 0                 @ ../../../ThirdParty/mbedTLS/library/sha1.c:0:5
	str	r0, [sp, #80]                   @ 4-byte Spill
	.loc	1 232 5                         @ ../../../ThirdParty/mbedTLS/library/sha1.c:232:5
	ldr	r1, [sp, #40]                   @ 4-byte Reload
.Ltmp586:
	@DEBUG_VALUE: mbedtls_internal_sha1_process:E <- $r1
	adds	r0, r0, r1
.Ltmp587:
	@DEBUG_VALUE: mbedtls_internal_sha1_process:W <- [DW_OP_plus_uconst 80, DW_OP_LLVM_fragment 256 32] [$sp+0]
	@DEBUG_VALUE: mbedtls_internal_sha1_process:W <- [DW_OP_LLVM_fragment 256 32] $r0
	adds	r0, r0, r2
.Ltmp588:
	mov	r2, r4
	ldr	r7, [sp, #120]                  @ 4-byte Reload
	rors	r2, r7
	adds	r0, r0, r2
	ldr	r1, .LCPI5_6
.Ltmp589:
	adds	r5, r0, r1
.Ltmp590:
	@DEBUG_VALUE: mbedtls_internal_sha1_process:E <- $r5
	.loc	1 233 5 is_stmt 1               @ ../../../ThirdParty/mbedTLS/library/sha1.c:233:5
	mov	r0, r5
	rors	r0, r7
	adds	r0, r6, r0
	adds	r2, r0, r1
.Ltmp591:
	@DEBUG_VALUE: mbedtls_internal_sha1_process:D <- $r2
	.loc	1 0 5 is_stmt 0                 @ ../../../ThirdParty/mbedTLS/library/sha1.c:0:5
	str	r2, [sp, #48]                   @ 4-byte Spill
.Ltmp592:
	@DEBUG_VALUE: mbedtls_internal_sha1_process:D <- [DW_OP_plus_uconst 48] [$sp+0]
	b	.LBB5_5
.Ltmp593:
	.p2align	2
@ %bb.3:
__arm_cp.5_5:
	.long	1859775393                      @ 0x6ed9eba1
.Lcpi_end6:
	.size	__arm_cp.5_5, .Lcpi_end6-__arm_cp.5_5
	.p2align	2
@ %bb.4:
.LCPI5_6:
	.long	2400959708                      @ 0x8f1bbcdc
	.p2align	1
.LBB5_5:
.Ltmp594:
	.loc	1 234 5 is_stmt 1               @ ../../../ThirdParty/mbedTLS/library/sha1.c:234:5
	rors	r2, r7
	mov	r3, r7
.Ltmp595:
	.loc	1 233 5                         @ ../../../ThirdParty/mbedTLS/library/sha1.c:233:5
	ldr	r0, [sp, #124]                  @ 4-byte Reload
.Ltmp596:
	@DEBUG_VALUE: mbedtls_internal_sha1_process:A <- $r4
	rors	r4, r0
.Ltmp597:
	@DEBUG_VALUE: mbedtls_internal_sha1_process:A <- $r4
	.loc	1 234 5                         @ ../../../ThirdParty/mbedTLS/library/sha1.c:234:5
	mov	r6, r5
	ands	r6, r4
	@DEBUG_VALUE: mbedtls_internal_sha1_process:A <- $r4
	str	r4, [sp, #32]                   @ 4-byte Spill
	mov	r7, r5
	orrs	r7, r4
.Ltmp598:
	@DEBUG_VALUE: mbedtls_internal_sha1_process:A <- [DW_OP_plus_uconst 32] [$sp+0]
	ldr	r0, [sp, #36]                   @ 4-byte Reload
.Ltmp599:
	@DEBUG_VALUE: mbedtls_internal_sha1_process:B <- $r0
	ands	r7, r0
.Ltmp600:
	@DEBUG_VALUE: mbedtls_internal_sha1_process:B <- [DW_OP_plus_uconst 36] [$sp+0]
	orrs	r7, r6
	ldr	r1, [sp, #92]                   @ 4-byte Reload
.Ltmp601:
	@DEBUG_VALUE: mbedtls_internal_sha1_process:W <- [DW_OP_LLVM_fragment 320 32] $r1
	ldr	r0, [sp, #100]                  @ 4-byte Reload
.Ltmp602:
	@DEBUG_VALUE: mbedtls_internal_sha1_process:W <- [DW_OP_LLVM_fragment 384 32] $r0
	eors	r1, r0
.Ltmp603:
	@DEBUG_VALUE: mbedtls_internal_sha1_process:W <- [DW_OP_plus_uconst 100, DW_OP_LLVM_fragment 384 32] [$sp+0]
	ldr	r0, [sp, #72]                   @ 4-byte Reload
.Ltmp604:
	@DEBUG_VALUE: mbedtls_internal_sha1_process:W <- [DW_OP_LLVM_fragment 64 32] $r0
	eors	r1, r0
.Ltmp605:
	@DEBUG_VALUE: mbedtls_internal_sha1_process:W <- [DW_OP_plus_uconst 72, DW_OP_LLVM_fragment 64 32] [$sp+0]
	ldr	r0, [sp, #56]                   @ 4-byte Reload
.Ltmp606:
	@DEBUG_VALUE: mbedtls_internal_sha1_process:W <- [DW_OP_LLVM_fragment 224 32] $r0
	eors	r1, r0
.Ltmp607:
	@DEBUG_VALUE: mbedtls_internal_sha1_process:temp <- $r1
	@DEBUG_VALUE: mbedtls_internal_sha1_process:W <- [DW_OP_plus_uconst 56, DW_OP_LLVM_fragment 224 32] [$sp+0]
	.loc	1 0 5 is_stmt 0                 @ ../../../ThirdParty/mbedTLS/library/sha1.c:0:5
	ldr	r4, [sp, #116]                  @ 4-byte Reload
	.loc	1 234 5                         @ ../../../ThirdParty/mbedTLS/library/sha1.c:234:5
	rors	r1, r4
.Ltmp608:
	@DEBUG_VALUE: mbedtls_internal_sha1_process:W <- [DW_OP_LLVM_fragment 320 32] $r1
	str	r1, [sp, #92]                   @ 4-byte Spill
	ldr	r0, [sp, #44]                   @ 4-byte Reload
.Ltmp609:
	@DEBUG_VALUE: mbedtls_internal_sha1_process:C <- $r0
	adds	r1, r1, r0
.Ltmp610:
	@DEBUG_VALUE: mbedtls_internal_sha1_process:W <- [DW_OP_plus_uconst 92, DW_OP_LLVM_fragment 320 32] [$sp+0]
	@DEBUG_VALUE: mbedtls_internal_sha1_process:W <- [DW_OP_LLVM_fragment 320 32] $r1
	adds	r1, r1, r7
.Ltmp611:
	adds	r1, r1, r2
	ldr	r0, __arm_cp.5_7
.Ltmp612:
	adds	r1, r1, r0
.Ltmp613:
	@DEBUG_VALUE: mbedtls_internal_sha1_process:C <- $r1
	.loc	1 235 5 is_stmt 1               @ ../../../ThirdParty/mbedTLS/library/sha1.c:235:5
	str	r1, [sp, #44]                   @ 4-byte Spill
.Ltmp614:
	@DEBUG_VALUE: mbedtls_internal_sha1_process:C <- [DW_OP_plus_uconst 44] [$sp+0]
	rors	r1, r3
	ldr	r2, [sp, #124]                  @ 4-byte Reload
.Ltmp615:
	.loc	1 234 5                         @ ../../../ThirdParty/mbedTLS/library/sha1.c:234:5
	rors	r5, r2
.Ltmp616:
	@DEBUG_VALUE: mbedtls_internal_sha1_process:E <- $r5
	.loc	1 0 5 is_stmt 0                 @ ../../../ThirdParty/mbedTLS/library/sha1.c:0:5
	ldr	r7, [sp, #48]                   @ 4-byte Reload
.Ltmp617:
	@DEBUG_VALUE: mbedtls_internal_sha1_process:D <- $r7
	.loc	1 235 5 is_stmt 1               @ ../../../ThirdParty/mbedTLS/library/sha1.c:235:5
	mov	r6, r7
	ands	r6, r5
.Ltmp618:
	@DEBUG_VALUE: mbedtls_internal_sha1_process:D <- [DW_OP_plus_uconst 48] [$sp+0]
	orrs	r7, r5
	ldr	r0, [sp, #32]                   @ 4-byte Reload
.Ltmp619:
	@DEBUG_VALUE: mbedtls_internal_sha1_process:A <- $r0
	ands	r7, r0
.Ltmp620:
	@DEBUG_VALUE: mbedtls_internal_sha1_process:A <- [DW_OP_plus_uconst 32] [$sp+0]
	orrs	r7, r6
	ldr	r0, [sp, #68]                   @ 4-byte Reload
.Ltmp621:
	@DEBUG_VALUE: mbedtls_internal_sha1_process:W <- [DW_OP_LLVM_fragment 352 32] $r0
	ldr	r3, [sp, #88]                   @ 4-byte Reload
.Ltmp622:
	@DEBUG_VALUE: mbedtls_internal_sha1_process:W <- [DW_OP_LLVM_fragment 416 32] $r3
	eors	r0, r3
.Ltmp623:
	@DEBUG_VALUE: mbedtls_internal_sha1_process:W <- [DW_OP_plus_uconst 88, DW_OP_LLVM_fragment 416 32] [$sp+0]
	ldr	r3, [sp, #60]                   @ 4-byte Reload
.Ltmp624:
	@DEBUG_VALUE: mbedtls_internal_sha1_process:W <- [DW_OP_LLVM_fragment 96 32] $r3
	eors	r0, r3
.Ltmp625:
	@DEBUG_VALUE: mbedtls_internal_sha1_process:W <- [DW_OP_plus_uconst 60, DW_OP_LLVM_fragment 96 32] [$sp+0]
	ldr	r3, [sp, #80]                   @ 4-byte Reload
.Ltmp626:
	@DEBUG_VALUE: mbedtls_internal_sha1_process:W <- [DW_OP_LLVM_fragment 256 32] $r3
	eors	r0, r3
.Ltmp627:
	@DEBUG_VALUE: mbedtls_internal_sha1_process:temp <- $r0
	@DEBUG_VALUE: mbedtls_internal_sha1_process:W <- [DW_OP_plus_uconst 80, DW_OP_LLVM_fragment 256 32] [$sp+0]
	rors	r0, r4
.Ltmp628:
	@DEBUG_VALUE: mbedtls_internal_sha1_process:W <- [DW_OP_LLVM_fragment 352 32] $r0
	str	r0, [sp, #68]                   @ 4-byte Spill
	ldr	r3, [sp, #36]                   @ 4-byte Reload
.Ltmp629:
	@DEBUG_VALUE: mbedtls_internal_sha1_process:B <- $r3
	adds	r3, r0, r3
.Ltmp630:
	@DEBUG_VALUE: mbedtls_internal_sha1_process:W <- [DW_OP_plus_uconst 68, DW_OP_LLVM_fragment 352 32] [$sp+0]
	adds	r3, r3, r7
	adds	r1, r3, r1
	ldr	r0, __arm_cp.5_7
	adds	r1, r1, r0
.Ltmp631:
	@DEBUG_VALUE: mbedtls_internal_sha1_process:B <- $r1
	.loc	1 0 5 is_stmt 0                 @ ../../../ThirdParty/mbedTLS/library/sha1.c:0:5
	str	r1, [sp, #40]                   @ 4-byte Spill
.Ltmp632:
	@DEBUG_VALUE: mbedtls_internal_sha1_process:B <- [DW_OP_plus_uconst 40] [$sp+0]
	.loc	1 236 5 is_stmt 1               @ ../../../ThirdParty/mbedTLS/library/sha1.c:236:5
	ldr	r0, [sp, #120]                  @ 4-byte Reload
	rors	r1, r0
	ldr	r0, [sp, #48]                   @ 4-byte Reload
.Ltmp633:
	@DEBUG_VALUE: mbedtls_internal_sha1_process:D <- $r0
	.loc	1 235 5                         @ ../../../ThirdParty/mbedTLS/library/sha1.c:235:5
	rors	r0, r2
.Ltmp634:
	@DEBUG_VALUE: mbedtls_internal_sha1_process:D <- $r0
	.loc	1 0 5 is_stmt 0                 @ ../../../ThirdParty/mbedTLS/library/sha1.c:0:5
	str	r0, [sp, #48]                   @ 4-byte Spill
	ldr	r7, [sp, #44]                   @ 4-byte Reload
.Ltmp635:
	@DEBUG_VALUE: mbedtls_internal_sha1_process:C <- $r7
	.loc	1 236 5 is_stmt 1               @ ../../../ThirdParty/mbedTLS/library/sha1.c:236:5
	mov	r6, r7
	ands	r6, r0
.Ltmp636:
	@DEBUG_VALUE: mbedtls_internal_sha1_process:C <- [DW_OP_plus_uconst 44] [$sp+0]
	orrs	r7, r0
.Ltmp637:
	@DEBUG_VALUE: mbedtls_internal_sha1_process:D <- [DW_OP_plus_uconst 48] [$sp+0]
	ands	r7, r5
	orrs	r7, r6
	ldr	r6, [sp, #100]                  @ 4-byte Reload
.Ltmp638:
	@DEBUG_VALUE: mbedtls_internal_sha1_process:W <- [DW_OP_LLVM_fragment 384 32] $r6
	ldr	r0, [sp, #64]                   @ 4-byte Reload
.Ltmp639:
	@DEBUG_VALUE: mbedtls_internal_sha1_process:W <- [DW_OP_LLVM_fragment 448 32] $r0
	eors	r6, r0
.Ltmp640:
	@DEBUG_VALUE: mbedtls_internal_sha1_process:W <- [DW_OP_plus_uconst 64, DW_OP_LLVM_fragment 448 32] [$sp+0]
	ldr	r0, [sp, #84]                   @ 4-byte Reload
.Ltmp641:
	@DEBUG_VALUE: mbedtls_internal_sha1_process:W <- [DW_OP_LLVM_fragment 128 32] $r0
	eors	r6, r0
.Ltmp642:
	@DEBUG_VALUE: mbedtls_internal_sha1_process:W <- [DW_OP_plus_uconst 84, DW_OP_LLVM_fragment 128 32] [$sp+0]
	ldr	r0, [sp, #112]                  @ 4-byte Reload
.Ltmp643:
	@DEBUG_VALUE: mbedtls_internal_sha1_process:W <- [DW_OP_LLVM_fragment 288 32] $r0
	eors	r6, r0
.Ltmp644:
	@DEBUG_VALUE: mbedtls_internal_sha1_process:temp <- $r6
	@DEBUG_VALUE: mbedtls_internal_sha1_process:W <- [DW_OP_plus_uconst 112, DW_OP_LLVM_fragment 288 32] [$sp+0]
	.loc	1 0 5 is_stmt 0                 @ ../../../ThirdParty/mbedTLS/library/sha1.c:0:5
	mov	r3, r4
	.loc	1 236 5                         @ ../../../ThirdParty/mbedTLS/library/sha1.c:236:5
	rors	r6, r4
.Ltmp645:
	@DEBUG_VALUE: mbedtls_internal_sha1_process:W <- [DW_OP_LLVM_fragment 384 32] $r6
	str	r6, [sp, #100]                  @ 4-byte Spill
	ldr	r0, [sp, #32]                   @ 4-byte Reload
.Ltmp646:
	@DEBUG_VALUE: mbedtls_internal_sha1_process:A <- $r0
	adds	r4, r6, r0
.Ltmp647:
	@DEBUG_VALUE: mbedtls_internal_sha1_process:W <- [DW_OP_plus_uconst 100, DW_OP_LLVM_fragment 384 32] [$sp+0]
	adds	r4, r4, r7
	adds	r1, r4, r1
	ldr	r0, __arm_cp.5_7
.Ltmp648:
	adds	r2, r1, r0
.Ltmp649:
	@DEBUG_VALUE: mbedtls_internal_sha1_process:A <- $r2
	.loc	1 237 5 is_stmt 1               @ ../../../ThirdParty/mbedTLS/library/sha1.c:237:5
	str	r2, [sp, #36]                   @ 4-byte Spill
.Ltmp650:
	@DEBUG_VALUE: mbedtls_internal_sha1_process:A <- [DW_OP_plus_uconst 36] [$sp+0]
	ldr	r0, [sp, #120]                  @ 4-byte Reload
	rors	r2, r0
	ldr	r4, [sp, #124]                  @ 4-byte Reload
	ldr	r0, [sp, #44]                   @ 4-byte Reload
.Ltmp651:
	@DEBUG_VALUE: mbedtls_internal_sha1_process:C <- $r0
	.loc	1 236 5                         @ ../../../ThirdParty/mbedTLS/library/sha1.c:236:5
	rors	r0, r4
.Ltmp652:
	@DEBUG_VALUE: mbedtls_internal_sha1_process:C <- $r0
	.loc	1 237 5                         @ ../../../ThirdParty/mbedTLS/library/sha1.c:237:5
	str	r0, [sp, #44]                   @ 4-byte Spill
	ldr	r7, [sp, #40]                   @ 4-byte Reload
.Ltmp653:
	@DEBUG_VALUE: mbedtls_internal_sha1_process:B <- $r7
	mov	r1, r7
	ands	r1, r0
.Ltmp654:
	@DEBUG_VALUE: mbedtls_internal_sha1_process:B <- [DW_OP_plus_uconst 40] [$sp+0]
	orrs	r7, r0
.Ltmp655:
	@DEBUG_VALUE: mbedtls_internal_sha1_process:C <- [DW_OP_plus_uconst 44] [$sp+0]
	ldr	r0, [sp, #48]                   @ 4-byte Reload
.Ltmp656:
	@DEBUG_VALUE: mbedtls_internal_sha1_process:D <- $r0
	ands	r7, r0
.Ltmp657:
	@DEBUG_VALUE: mbedtls_internal_sha1_process:D <- [DW_OP_plus_uconst 48] [$sp+0]
	orrs	r7, r1
	ldr	r6, [sp, #88]                   @ 4-byte Reload
.Ltmp658:
	@DEBUG_VALUE: mbedtls_internal_sha1_process:W <- [DW_OP_LLVM_fragment 416 32] $r6
	ldr	r0, [sp, #52]                   @ 4-byte Reload
.Ltmp659:
	@DEBUG_VALUE: mbedtls_internal_sha1_process:W <- [DW_OP_LLVM_fragment 480 32] $r0
	eors	r6, r0
.Ltmp660:
	@DEBUG_VALUE: mbedtls_internal_sha1_process:W <- [DW_OP_plus_uconst 52, DW_OP_LLVM_fragment 480 32] [$sp+0]
	ldr	r0, [sp, #96]                   @ 4-byte Reload
.Ltmp661:
	@DEBUG_VALUE: mbedtls_internal_sha1_process:W <- [DW_OP_LLVM_fragment 160 32] $r0
	eors	r6, r0
.Ltmp662:
	@DEBUG_VALUE: mbedtls_internal_sha1_process:W <- [DW_OP_plus_uconst 96, DW_OP_LLVM_fragment 160 32] [$sp+0]
	ldr	r0, [sp, #92]                   @ 4-byte Reload
.Ltmp663:
	@DEBUG_VALUE: mbedtls_internal_sha1_process:W <- [DW_OP_LLVM_fragment 320 32] $r0
	eors	r6, r0
.Ltmp664:
	@DEBUG_VALUE: mbedtls_internal_sha1_process:temp <- $r6
	@DEBUG_VALUE: mbedtls_internal_sha1_process:W <- [DW_OP_plus_uconst 92, DW_OP_LLVM_fragment 320 32] [$sp+0]
	rors	r6, r3
.Ltmp665:
	@DEBUG_VALUE: mbedtls_internal_sha1_process:W <- [DW_OP_LLVM_fragment 416 32] $r6
	str	r6, [sp, #88]                   @ 4-byte Spill
.Ltmp666:
	@DEBUG_VALUE: mbedtls_internal_sha1_process:W <- [DW_OP_plus_uconst 88, DW_OP_LLVM_fragment 416 32] [$sp+0]
	adds	r5, r6, r5
.Ltmp667:
	@DEBUG_VALUE: mbedtls_internal_sha1_process:W <- [DW_OP_plus_uconst 88, DW_OP_LLVM_fragment 416 32] [$sp+0]
	adds	r5, r5, r7
	adds	r1, r5, r2
	ldr	r0, __arm_cp.5_7
	adds	r5, r1, r0
.Ltmp668:
	@DEBUG_VALUE: mbedtls_internal_sha1_process:E <- $r5
	.loc	1 238 5                         @ ../../../ThirdParty/mbedTLS/library/sha1.c:238:5
	mov	r1, r5
	ldr	r3, [sp, #120]                  @ 4-byte Reload
	rors	r1, r3
	ldr	r0, [sp, #40]                   @ 4-byte Reload
.Ltmp669:
	@DEBUG_VALUE: mbedtls_internal_sha1_process:B <- $r0
	.loc	1 237 5                         @ ../../../ThirdParty/mbedTLS/library/sha1.c:237:5
	rors	r0, r4
.Ltmp670:
	@DEBUG_VALUE: mbedtls_internal_sha1_process:B <- $r0
	.loc	1 0 5 is_stmt 0                 @ ../../../ThirdParty/mbedTLS/library/sha1.c:0:5
	str	r0, [sp, #40]                   @ 4-byte Spill
	ldr	r4, [sp, #36]                   @ 4-byte Reload
.Ltmp671:
	@DEBUG_VALUE: mbedtls_internal_sha1_process:A <- $r4
	.loc	1 238 5 is_stmt 1               @ ../../../ThirdParty/mbedTLS/library/sha1.c:238:5
	mov	r6, r4
	ands	r6, r0
	mov	r7, r4
	@DEBUG_VALUE: mbedtls_internal_sha1_process:A <- $r4
	orrs	r7, r0
.Ltmp672:
	@DEBUG_VALUE: mbedtls_internal_sha1_process:B <- [DW_OP_plus_uconst 40] [$sp+0]
	ldr	r0, [sp, #44]                   @ 4-byte Reload
.Ltmp673:
	@DEBUG_VALUE: mbedtls_internal_sha1_process:C <- $r0
	ands	r7, r0
.Ltmp674:
	@DEBUG_VALUE: mbedtls_internal_sha1_process:C <- [DW_OP_plus_uconst 44] [$sp+0]
	orrs	r7, r6
	ldr	r6, [sp, #64]                   @ 4-byte Reload
.Ltmp675:
	@DEBUG_VALUE: mbedtls_internal_sha1_process:W <- [DW_OP_LLVM_fragment 448 32] $r6
	ldr	r0, [sp, #108]                  @ 4-byte Reload
.Ltmp676:
	@DEBUG_VALUE: mbedtls_internal_sha1_process:W <- [DW_OP_LLVM_fragment 0 32] $r0
	eors	r6, r0
.Ltmp677:
	@DEBUG_VALUE: mbedtls_internal_sha1_process:W <- [DW_OP_plus_uconst 108, DW_OP_LLVM_fragment 0 32] [$sp+0]
	ldr	r0, [sp, #76]                   @ 4-byte Reload
.Ltmp678:
	@DEBUG_VALUE: mbedtls_internal_sha1_process:W <- [DW_OP_LLVM_fragment 192 32] $r0
	eors	r6, r0
.Ltmp679:
	@DEBUG_VALUE: mbedtls_internal_sha1_process:W <- [DW_OP_plus_uconst 76, DW_OP_LLVM_fragment 192 32] [$sp+0]
	ldr	r0, [sp, #68]                   @ 4-byte Reload
.Ltmp680:
	@DEBUG_VALUE: mbedtls_internal_sha1_process:W <- [DW_OP_LLVM_fragment 352 32] $r0
	eors	r6, r0
.Ltmp681:
	@DEBUG_VALUE: mbedtls_internal_sha1_process:temp <- $r6
	@DEBUG_VALUE: mbedtls_internal_sha1_process:W <- [DW_OP_plus_uconst 68, DW_OP_LLVM_fragment 352 32] [$sp+0]
	.loc	1 0 5 is_stmt 0                 @ ../../../ThirdParty/mbedTLS/library/sha1.c:0:5
	ldr	r2, [sp, #116]                  @ 4-byte Reload
	.loc	1 238 5                         @ ../../../ThirdParty/mbedTLS/library/sha1.c:238:5
	rors	r6, r2
.Ltmp682:
	@DEBUG_VALUE: mbedtls_internal_sha1_process:W <- [DW_OP_LLVM_fragment 448 32] $r6
	str	r6, [sp, #64]                   @ 4-byte Spill
	ldr	r0, [sp, #48]                   @ 4-byte Reload
.Ltmp683:
	@DEBUG_VALUE: mbedtls_internal_sha1_process:D <- $r0
	adds	r0, r6, r0
.Ltmp684:
	@DEBUG_VALUE: mbedtls_internal_sha1_process:W <- [DW_OP_plus_uconst 64, DW_OP_LLVM_fragment 448 32] [$sp+0]
	adds	r0, r0, r7
	adds	r0, r0, r1
	ldr	r1, __arm_cp.5_7
	adds	r1, r0, r1
.Ltmp685:
	@DEBUG_VALUE: mbedtls_internal_sha1_process:D <- $r1
	.loc	1 239 5 is_stmt 1               @ ../../../ThirdParty/mbedTLS/library/sha1.c:239:5
	str	r1, [sp, #48]                   @ 4-byte Spill
.Ltmp686:
	@DEBUG_VALUE: mbedtls_internal_sha1_process:D <- [DW_OP_plus_uconst 48] [$sp+0]
	rors	r1, r3
	ldr	r3, [sp, #124]                  @ 4-byte Reload
.Ltmp687:
	@DEBUG_VALUE: mbedtls_internal_sha1_process:A <- $r4
	.loc	1 238 5                         @ ../../../ThirdParty/mbedTLS/library/sha1.c:238:5
	rors	r4, r3
.Ltmp688:
	@DEBUG_VALUE: mbedtls_internal_sha1_process:A <- $r4
	.loc	1 239 5                         @ ../../../ThirdParty/mbedTLS/library/sha1.c:239:5
	str	r4, [sp, #36]                   @ 4-byte Spill
	mov	r6, r5
	ands	r6, r4
	mov	r7, r5
	orrs	r7, r4
.Ltmp689:
	@DEBUG_VALUE: mbedtls_internal_sha1_process:A <- [DW_OP_plus_uconst 36] [$sp+0]
	ldr	r0, [sp, #40]                   @ 4-byte Reload
.Ltmp690:
	@DEBUG_VALUE: mbedtls_internal_sha1_process:B <- $r0
	ands	r7, r0
.Ltmp691:
	@DEBUG_VALUE: mbedtls_internal_sha1_process:B <- [DW_OP_plus_uconst 40] [$sp+0]
	orrs	r7, r6
	ldr	r6, [sp, #52]                   @ 4-byte Reload
.Ltmp692:
	@DEBUG_VALUE: mbedtls_internal_sha1_process:W <- [DW_OP_LLVM_fragment 480 32] $r6
	ldr	r0, [sp, #104]                  @ 4-byte Reload
.Ltmp693:
	@DEBUG_VALUE: mbedtls_internal_sha1_process:W <- [DW_OP_LLVM_fragment 32 32] $r0
	eors	r6, r0
.Ltmp694:
	@DEBUG_VALUE: mbedtls_internal_sha1_process:W <- [DW_OP_plus_uconst 104, DW_OP_LLVM_fragment 32 32] [$sp+0]
	ldr	r0, [sp, #56]                   @ 4-byte Reload
.Ltmp695:
	@DEBUG_VALUE: mbedtls_internal_sha1_process:W <- [DW_OP_LLVM_fragment 224 32] $r0
	eors	r6, r0
.Ltmp696:
	@DEBUG_VALUE: mbedtls_internal_sha1_process:W <- [DW_OP_plus_uconst 56, DW_OP_LLVM_fragment 224 32] [$sp+0]
	ldr	r0, [sp, #100]                  @ 4-byte Reload
.Ltmp697:
	@DEBUG_VALUE: mbedtls_internal_sha1_process:W <- [DW_OP_LLVM_fragment 384 32] $r0
	eors	r6, r0
.Ltmp698:
	@DEBUG_VALUE: mbedtls_internal_sha1_process:temp <- $r6
	@DEBUG_VALUE: mbedtls_internal_sha1_process:W <- [DW_OP_plus_uconst 100, DW_OP_LLVM_fragment 384 32] [$sp+0]
	rors	r6, r2
.Ltmp699:
	@DEBUG_VALUE: mbedtls_internal_sha1_process:W <- [DW_OP_LLVM_fragment 480 32] $r6
	str	r6, [sp, #52]                   @ 4-byte Spill
	ldr	r0, [sp, #44]                   @ 4-byte Reload
.Ltmp700:
	@DEBUG_VALUE: mbedtls_internal_sha1_process:C <- $r0
	adds	r2, r6, r0
.Ltmp701:
	@DEBUG_VALUE: mbedtls_internal_sha1_process:W <- [DW_OP_plus_uconst 52, DW_OP_LLVM_fragment 480 32] [$sp+0]
	adds	r2, r2, r7
	adds	r1, r2, r1
	ldr	r0, __arm_cp.5_7
.Ltmp702:
	adds	r1, r1, r0
.Ltmp703:
	@DEBUG_VALUE: mbedtls_internal_sha1_process:C <- $r1
	.loc	1 0 5 is_stmt 0                 @ ../../../ThirdParty/mbedTLS/library/sha1.c:0:5
	str	r1, [sp, #32]                   @ 4-byte Spill
.Ltmp704:
	@DEBUG_VALUE: mbedtls_internal_sha1_process:C <- [DW_OP_plus_uconst 32] [$sp+0]
	ldr	r4, [sp, #120]                  @ 4-byte Reload
.Ltmp705:
	.loc	1 240 5 is_stmt 1               @ ../../../ThirdParty/mbedTLS/library/sha1.c:240:5
	rors	r1, r4
.Ltmp706:
	.loc	1 239 5                         @ ../../../ThirdParty/mbedTLS/library/sha1.c:239:5
	rors	r5, r3
.Ltmp707:
	@DEBUG_VALUE: mbedtls_internal_sha1_process:E <- $r5
	.loc	1 0 5 is_stmt 0                 @ ../../../ThirdParty/mbedTLS/library/sha1.c:0:5
	ldr	r7, [sp, #48]                   @ 4-byte Reload
.Ltmp708:
	@DEBUG_VALUE: mbedtls_internal_sha1_process:D <- $r7
	.loc	1 240 5 is_stmt 1               @ ../../../ThirdParty/mbedTLS/library/sha1.c:240:5
	mov	r6, r7
	ands	r6, r5
.Ltmp709:
	@DEBUG_VALUE: mbedtls_internal_sha1_process:D <- [DW_OP_plus_uconst 48] [$sp+0]
	orrs	r7, r5
	ldr	r0, [sp, #36]                   @ 4-byte Reload
.Ltmp710:
	@DEBUG_VALUE: mbedtls_internal_sha1_process:A <- $r0
	ands	r7, r0
.Ltmp711:
	@DEBUG_VALUE: mbedtls_internal_sha1_process:A <- [DW_OP_plus_uconst 36] [$sp+0]
	orrs	r7, r6
	ldr	r2, [sp, #108]                  @ 4-byte Reload
.Ltmp712:
	@DEBUG_VALUE: mbedtls_internal_sha1_process:W <- [DW_OP_LLVM_fragment 0 32] $r2
	ldr	r0, [sp, #72]                   @ 4-byte Reload
.Ltmp713:
	@DEBUG_VALUE: mbedtls_internal_sha1_process:W <- [DW_OP_LLVM_fragment 64 32] $r0
	eors	r2, r0
.Ltmp714:
	@DEBUG_VALUE: mbedtls_internal_sha1_process:W <- [DW_OP_plus_uconst 72, DW_OP_LLVM_fragment 64 32] [$sp+0]
	ldr	r0, [sp, #80]                   @ 4-byte Reload
.Ltmp715:
	@DEBUG_VALUE: mbedtls_internal_sha1_process:W <- [DW_OP_LLVM_fragment 256 32] $r0
	eors	r2, r0
.Ltmp716:
	@DEBUG_VALUE: mbedtls_internal_sha1_process:W <- [DW_OP_plus_uconst 80, DW_OP_LLVM_fragment 256 32] [$sp+0]
	ldr	r0, [sp, #88]                   @ 4-byte Reload
.Ltmp717:
	@DEBUG_VALUE: mbedtls_internal_sha1_process:W <- [DW_OP_LLVM_fragment 416 32] $r0
	eors	r2, r0
.Ltmp718:
	@DEBUG_VALUE: mbedtls_internal_sha1_process:temp <- $r2
	@DEBUG_VALUE: mbedtls_internal_sha1_process:W <- [DW_OP_plus_uconst 88, DW_OP_LLVM_fragment 416 32] [$sp+0]
	ldr	r0, [sp, #116]                  @ 4-byte Reload
	rors	r2, r0
.Ltmp719:
	@DEBUG_VALUE: mbedtls_internal_sha1_process:W <- [DW_OP_LLVM_fragment 0 32] $r2
	str	r2, [sp, #108]                  @ 4-byte Spill
	ldr	r0, [sp, #40]                   @ 4-byte Reload
.Ltmp720:
	@DEBUG_VALUE: mbedtls_internal_sha1_process:B <- $r0
	adds	r3, r2, r0
.Ltmp721:
	@DEBUG_VALUE: mbedtls_internal_sha1_process:W <- [DW_OP_plus_uconst 108, DW_OP_LLVM_fragment 0 32] [$sp+0]
	adds	r3, r3, r7
	adds	r1, r3, r1
	ldr	r0, __arm_cp.5_7
.Ltmp722:
	adds	r1, r1, r0
.Ltmp723:
	@DEBUG_VALUE: mbedtls_internal_sha1_process:B <- $r1
	.loc	1 241 5                         @ ../../../ThirdParty/mbedTLS/library/sha1.c:241:5
	str	r1, [sp, #40]                   @ 4-byte Spill
.Ltmp724:
	@DEBUG_VALUE: mbedtls_internal_sha1_process:B <- [DW_OP_plus_uconst 40] [$sp+0]
	rors	r1, r4
	ldr	r3, [sp, #124]                  @ 4-byte Reload
	ldr	r0, [sp, #48]                   @ 4-byte Reload
.Ltmp725:
	@DEBUG_VALUE: mbedtls_internal_sha1_process:D <- $r0
	.loc	1 240 5                         @ ../../../ThirdParty/mbedTLS/library/sha1.c:240:5
	rors	r0, r3
.Ltmp726:
	@DEBUG_VALUE: mbedtls_internal_sha1_process:D <- $r0
	.loc	1 241 5                         @ ../../../ThirdParty/mbedTLS/library/sha1.c:241:5
	str	r0, [sp, #48]                   @ 4-byte Spill
	ldr	r7, [sp, #32]                   @ 4-byte Reload
.Ltmp727:
	@DEBUG_VALUE: mbedtls_internal_sha1_process:C <- $r7
	mov	r6, r7
	ands	r6, r0
.Ltmp728:
	@DEBUG_VALUE: mbedtls_internal_sha1_process:C <- [DW_OP_plus_uconst 32] [$sp+0]
	orrs	r7, r0
.Ltmp729:
	@DEBUG_VALUE: mbedtls_internal_sha1_process:D <- [DW_OP_plus_uconst 48] [$sp+0]
	ands	r7, r5
	orrs	r7, r6
	ldr	r2, [sp, #104]                  @ 4-byte Reload
.Ltmp730:
	@DEBUG_VALUE: mbedtls_internal_sha1_process:W <- [DW_OP_LLVM_fragment 32 32] $r2
	ldr	r0, [sp, #60]                   @ 4-byte Reload
.Ltmp731:
	@DEBUG_VALUE: mbedtls_internal_sha1_process:W <- [DW_OP_LLVM_fragment 96 32] $r0
	eors	r2, r0
.Ltmp732:
	@DEBUG_VALUE: mbedtls_internal_sha1_process:W <- [DW_OP_plus_uconst 60, DW_OP_LLVM_fragment 96 32] [$sp+0]
	ldr	r0, [sp, #112]                  @ 4-byte Reload
.Ltmp733:
	@DEBUG_VALUE: mbedtls_internal_sha1_process:W <- [DW_OP_LLVM_fragment 288 32] $r0
	eors	r2, r0
.Ltmp734:
	@DEBUG_VALUE: mbedtls_internal_sha1_process:W <- [DW_OP_plus_uconst 112, DW_OP_LLVM_fragment 288 32] [$sp+0]
	ldr	r0, [sp, #64]                   @ 4-byte Reload
.Ltmp735:
	@DEBUG_VALUE: mbedtls_internal_sha1_process:W <- [DW_OP_LLVM_fragment 448 32] $r0
	eors	r2, r0
.Ltmp736:
	@DEBUG_VALUE: mbedtls_internal_sha1_process:temp <- $r2
	@DEBUG_VALUE: mbedtls_internal_sha1_process:W <- [DW_OP_plus_uconst 64, DW_OP_LLVM_fragment 448 32] [$sp+0]
	.loc	1 0 5 is_stmt 0                 @ ../../../ThirdParty/mbedTLS/library/sha1.c:0:5
	ldr	r0, [sp, #116]                  @ 4-byte Reload
	.loc	1 241 5                         @ ../../../ThirdParty/mbedTLS/library/sha1.c:241:5
	rors	r2, r0
.Ltmp737:
	@DEBUG_VALUE: mbedtls_internal_sha1_process:W <- [DW_OP_LLVM_fragment 32 32] $r2
	str	r2, [sp, #104]                  @ 4-byte Spill
	ldr	r4, [sp, #36]                   @ 4-byte Reload
.Ltmp738:
	@DEBUG_VALUE: mbedtls_internal_sha1_process:A <- $r4
	adds	r4, r2, r4
.Ltmp739:
	@DEBUG_VALUE: mbedtls_internal_sha1_process:W <- [DW_OP_plus_uconst 104, DW_OP_LLVM_fragment 32 32] [$sp+0]
	adds	r4, r4, r7
	adds	r1, r4, r1
	ldr	r2, __arm_cp.5_7
	adds	r1, r1, r2
.Ltmp740:
	@DEBUG_VALUE: mbedtls_internal_sha1_process:A <- $r1
	.loc	1 242 5 is_stmt 1               @ ../../../ThirdParty/mbedTLS/library/sha1.c:242:5
	str	r1, [sp, #44]                   @ 4-byte Spill
.Ltmp741:
	@DEBUG_VALUE: mbedtls_internal_sha1_process:A <- [DW_OP_plus_uconst 44] [$sp+0]
	.loc	1 0 5 is_stmt 0                 @ ../../../ThirdParty/mbedTLS/library/sha1.c:0:5
	ldr	r4, [sp, #120]                  @ 4-byte Reload
	.loc	1 242 5                         @ ../../../ThirdParty/mbedTLS/library/sha1.c:242:5
	rors	r1, r4
	ldr	r2, [sp, #32]                   @ 4-byte Reload
.Ltmp742:
	@DEBUG_VALUE: mbedtls_internal_sha1_process:C <- $r2
	.loc	1 241 5 is_stmt 1               @ ../../../ThirdParty/mbedTLS/library/sha1.c:241:5
	rors	r2, r3
.Ltmp743:
	@DEBUG_VALUE: mbedtls_internal_sha1_process:C <- $r2
	.loc	1 0 5 is_stmt 0                 @ ../../../ThirdParty/mbedTLS/library/sha1.c:0:5
	ldr	r7, [sp, #40]                   @ 4-byte Reload
.Ltmp744:
	@DEBUG_VALUE: mbedtls_internal_sha1_process:B <- $r7
	.loc	1 242 5 is_stmt 1               @ ../../../ThirdParty/mbedTLS/library/sha1.c:242:5
	mov	r6, r7
	ands	r6, r2
.Ltmp745:
	@DEBUG_VALUE: mbedtls_internal_sha1_process:B <- [DW_OP_plus_uconst 40] [$sp+0]
	orrs	r7, r2
	mov	r3, r2
.Ltmp746:
	@DEBUG_VALUE: mbedtls_internal_sha1_process:C <- $r3
	str	r2, [sp, #32]                   @ 4-byte Spill
	ldr	r2, [sp, #48]                   @ 4-byte Reload
.Ltmp747:
	@DEBUG_VALUE: mbedtls_internal_sha1_process:D <- $r2
	ands	r7, r2
.Ltmp748:
	@DEBUG_VALUE: mbedtls_internal_sha1_process:D <- [DW_OP_plus_uconst 48] [$sp+0]
	orrs	r7, r6
	ldr	r6, [sp, #72]                   @ 4-byte Reload
.Ltmp749:
	@DEBUG_VALUE: mbedtls_internal_sha1_process:W <- [DW_OP_LLVM_fragment 64 32] $r6
	ldr	r2, [sp, #84]                   @ 4-byte Reload
.Ltmp750:
	@DEBUG_VALUE: mbedtls_internal_sha1_process:W <- [DW_OP_LLVM_fragment 128 32] $r2
	eors	r6, r2
.Ltmp751:
	@DEBUG_VALUE: mbedtls_internal_sha1_process:W <- [DW_OP_plus_uconst 84, DW_OP_LLVM_fragment 128 32] [$sp+0]
	ldr	r2, [sp, #92]                   @ 4-byte Reload
.Ltmp752:
	@DEBUG_VALUE: mbedtls_internal_sha1_process:W <- [DW_OP_LLVM_fragment 320 32] $r2
	eors	r6, r2
.Ltmp753:
	@DEBUG_VALUE: mbedtls_internal_sha1_process:W <- [DW_OP_plus_uconst 92, DW_OP_LLVM_fragment 320 32] [$sp+0]
	ldr	r2, [sp, #52]                   @ 4-byte Reload
.Ltmp754:
	@DEBUG_VALUE: mbedtls_internal_sha1_process:W <- [DW_OP_LLVM_fragment 480 32] $r2
	eors	r6, r2
.Ltmp755:
	@DEBUG_VALUE: mbedtls_internal_sha1_process:temp <- $r6
	@DEBUG_VALUE: mbedtls_internal_sha1_process:W <- [DW_OP_plus_uconst 52, DW_OP_LLVM_fragment 480 32] [$sp+0]
	rors	r6, r0
.Ltmp756:
	@DEBUG_VALUE: mbedtls_internal_sha1_process:W <- [DW_OP_LLVM_fragment 64 32] $r6
	str	r6, [sp, #72]                   @ 4-byte Spill
.Ltmp757:
	@DEBUG_VALUE: mbedtls_internal_sha1_process:W <- [DW_OP_plus_uconst 72, DW_OP_LLVM_fragment 64 32] [$sp+0]
	adds	r5, r6, r5
.Ltmp758:
	@DEBUG_VALUE: mbedtls_internal_sha1_process:W <- [DW_OP_plus_uconst 72, DW_OP_LLVM_fragment 64 32] [$sp+0]
	adds	r5, r5, r7
	adds	r1, r5, r1
	ldr	r0, __arm_cp.5_7
	adds	r5, r1, r0
.Ltmp759:
	@DEBUG_VALUE: mbedtls_internal_sha1_process:E <- $r5
	.loc	1 243 5                         @ ../../../ThirdParty/mbedTLS/library/sha1.c:243:5
	mov	r1, r5
	rors	r1, r4
	ldr	r2, [sp, #124]                  @ 4-byte Reload
	ldr	r0, [sp, #40]                   @ 4-byte Reload
.Ltmp760:
	@DEBUG_VALUE: mbedtls_internal_sha1_process:B <- $r0
	.loc	1 242 5                         @ ../../../ThirdParty/mbedTLS/library/sha1.c:242:5
	rors	r0, r2
.Ltmp761:
	@DEBUG_VALUE: mbedtls_internal_sha1_process:B <- $r0
	.loc	1 0 5 is_stmt 0                 @ ../../../ThirdParty/mbedTLS/library/sha1.c:0:5
	ldr	r7, [sp, #44]                   @ 4-byte Reload
.Ltmp762:
	@DEBUG_VALUE: mbedtls_internal_sha1_process:A <- $r7
	.loc	1 243 5 is_stmt 1               @ ../../../ThirdParty/mbedTLS/library/sha1.c:243:5
	mov	r6, r7
	ands	r6, r0
	@DEBUG_VALUE: mbedtls_internal_sha1_process:B <- $r0
	str	r0, [sp, #40]                   @ 4-byte Spill
.Ltmp763:
	@DEBUG_VALUE: mbedtls_internal_sha1_process:A <- [DW_OP_plus_uconst 44] [$sp+0]
	orrs	r7, r0
.Ltmp764:
	@DEBUG_VALUE: mbedtls_internal_sha1_process:B <- [DW_OP_plus_uconst 40] [$sp+0]
	ands	r7, r3
.Ltmp765:
	@DEBUG_VALUE: mbedtls_internal_sha1_process:C <- [DW_OP_plus_uconst 32] [$sp+0]
	orrs	r7, r6
	ldr	r3, [sp, #60]                   @ 4-byte Reload
.Ltmp766:
	@DEBUG_VALUE: mbedtls_internal_sha1_process:W <- [DW_OP_LLVM_fragment 96 32] $r3
	ldr	r0, [sp, #96]                   @ 4-byte Reload
.Ltmp767:
	@DEBUG_VALUE: mbedtls_internal_sha1_process:W <- [DW_OP_LLVM_fragment 160 32] $r0
	eors	r3, r0
.Ltmp768:
	@DEBUG_VALUE: mbedtls_internal_sha1_process:W <- [DW_OP_plus_uconst 96, DW_OP_LLVM_fragment 160 32] [$sp+0]
	ldr	r0, [sp, #68]                   @ 4-byte Reload
.Ltmp769:
	@DEBUG_VALUE: mbedtls_internal_sha1_process:W <- [DW_OP_LLVM_fragment 352 32] $r0
	eors	r3, r0
.Ltmp770:
	@DEBUG_VALUE: mbedtls_internal_sha1_process:W <- [DW_OP_plus_uconst 68, DW_OP_LLVM_fragment 352 32] [$sp+0]
	ldr	r0, [sp, #108]                  @ 4-byte Reload
.Ltmp771:
	@DEBUG_VALUE: mbedtls_internal_sha1_process:W <- [DW_OP_LLVM_fragment 0 32] $r0
	eors	r3, r0
.Ltmp772:
	@DEBUG_VALUE: mbedtls_internal_sha1_process:temp <- $r3
	@DEBUG_VALUE: mbedtls_internal_sha1_process:W <- [DW_OP_plus_uconst 108, DW_OP_LLVM_fragment 0 32] [$sp+0]
	ldr	r0, [sp, #116]                  @ 4-byte Reload
	rors	r3, r0
.Ltmp773:
	@DEBUG_VALUE: mbedtls_internal_sha1_process:W <- [DW_OP_LLVM_fragment 96 32] $r3
	str	r3, [sp, #60]                   @ 4-byte Spill
	ldr	r0, [sp, #48]                   @ 4-byte Reload
.Ltmp774:
	@DEBUG_VALUE: mbedtls_internal_sha1_process:D <- $r0
	adds	r0, r3, r0
.Ltmp775:
	@DEBUG_VALUE: mbedtls_internal_sha1_process:W <- [DW_OP_plus_uconst 60, DW_OP_LLVM_fragment 96 32] [$sp+0]
	adds	r0, r0, r7
	adds	r0, r0, r1
	ldr	r1, __arm_cp.5_7
	adds	r4, r0, r1
.Ltmp776:
	@DEBUG_VALUE: mbedtls_internal_sha1_process:D <- $r4
	.loc	1 244 5                         @ ../../../ThirdParty/mbedTLS/library/sha1.c:244:5
	mov	r1, r4
	ldr	r0, [sp, #120]                  @ 4-byte Reload
	rors	r1, r0
	ldr	r0, [sp, #44]                   @ 4-byte Reload
.Ltmp777:
	@DEBUG_VALUE: mbedtls_internal_sha1_process:A <- $r0
	.loc	1 243 5                         @ ../../../ThirdParty/mbedTLS/library/sha1.c:243:5
	rors	r0, r2
.Ltmp778:
	@DEBUG_VALUE: mbedtls_internal_sha1_process:A <- $r0
	.loc	1 0 5 is_stmt 0                 @ ../../../ThirdParty/mbedTLS/library/sha1.c:0:5
	str	r0, [sp, #44]                   @ 4-byte Spill
.Ltmp779:
	.loc	1 244 5 is_stmt 1               @ ../../../ThirdParty/mbedTLS/library/sha1.c:244:5
	mov	r6, r5
	ands	r6, r0
	mov	r7, r5
	orrs	r7, r0
	ldr	r0, [sp, #40]                   @ 4-byte Reload
.Ltmp780:
	@DEBUG_VALUE: mbedtls_internal_sha1_process:B <- $r0
	@DEBUG_VALUE: mbedtls_internal_sha1_process:A <- [DW_OP_plus_uconst 44] [$sp+0]
	@DEBUG_VALUE: mbedtls_internal_sha1_process:A <- $r0
	ands	r7, r0
.Ltmp781:
	@DEBUG_VALUE: mbedtls_internal_sha1_process:B <- [DW_OP_plus_uconst 40] [$sp+0]
	orrs	r7, r6
	ldr	r2, [sp, #84]                   @ 4-byte Reload
.Ltmp782:
	@DEBUG_VALUE: mbedtls_internal_sha1_process:W <- [DW_OP_LLVM_fragment 128 32] $r2
	ldr	r0, [sp, #76]                   @ 4-byte Reload
.Ltmp783:
	@DEBUG_VALUE: mbedtls_internal_sha1_process:W <- [DW_OP_LLVM_fragment 192 32] $r0
	eors	r2, r0
.Ltmp784:
	@DEBUG_VALUE: mbedtls_internal_sha1_process:W <- [DW_OP_plus_uconst 76, DW_OP_LLVM_fragment 192 32] [$sp+0]
	ldr	r0, [sp, #100]                  @ 4-byte Reload
.Ltmp785:
	@DEBUG_VALUE: mbedtls_internal_sha1_process:W <- [DW_OP_LLVM_fragment 384 32] $r0
	eors	r2, r0
.Ltmp786:
	@DEBUG_VALUE: mbedtls_internal_sha1_process:W <- [DW_OP_plus_uconst 100, DW_OP_LLVM_fragment 384 32] [$sp+0]
	ldr	r0, [sp, #104]                  @ 4-byte Reload
.Ltmp787:
	@DEBUG_VALUE: mbedtls_internal_sha1_process:W <- [DW_OP_LLVM_fragment 32 32] $r0
	eors	r2, r0
.Ltmp788:
	@DEBUG_VALUE: mbedtls_internal_sha1_process:temp <- $r2
	@DEBUG_VALUE: mbedtls_internal_sha1_process:W <- [DW_OP_plus_uconst 104, DW_OP_LLVM_fragment 32 32] [$sp+0]
	.loc	1 0 5 is_stmt 0                 @ ../../../ThirdParty/mbedTLS/library/sha1.c:0:5
	ldr	r3, [sp, #116]                  @ 4-byte Reload
	.loc	1 244 5                         @ ../../../ThirdParty/mbedTLS/library/sha1.c:244:5
	rors	r2, r3
.Ltmp789:
	@DEBUG_VALUE: mbedtls_internal_sha1_process:W <- [DW_OP_LLVM_fragment 128 32] $r2
	str	r2, [sp, #84]                   @ 4-byte Spill
	ldr	r0, [sp, #32]                   @ 4-byte Reload
.Ltmp790:
	@DEBUG_VALUE: mbedtls_internal_sha1_process:C <- $r0
	adds	r2, r2, r0
.Ltmp791:
	@DEBUG_VALUE: mbedtls_internal_sha1_process:W <- [DW_OP_plus_uconst 84, DW_OP_LLVM_fragment 128 32] [$sp+0]
	@DEBUG_VALUE: mbedtls_internal_sha1_process:W <- [DW_OP_LLVM_fragment 128 32] $r2
	adds	r2, r2, r7
.Ltmp792:
	adds	r1, r2, r1
	ldr	r0, __arm_cp.5_7
.Ltmp793:
	adds	r1, r1, r0
.Ltmp794:
	@DEBUG_VALUE: mbedtls_internal_sha1_process:C <- $r1
	.loc	1 245 5 is_stmt 1               @ ../../../ThirdParty/mbedTLS/library/sha1.c:245:5
	str	r1, [sp, #48]                   @ 4-byte Spill
	ldr	r0, [sp, #120]                  @ 4-byte Reload
.Ltmp795:
	@DEBUG_VALUE: mbedtls_internal_sha1_process:C <- [DW_OP_plus_uconst 48] [$sp+0]
	rors	r1, r0
.Ltmp796:
	.loc	1 244 5                         @ ../../../ThirdParty/mbedTLS/library/sha1.c:244:5
	ldr	r0, [sp, #124]                  @ 4-byte Reload
	rors	r5, r0
.Ltmp797:
	@DEBUG_VALUE: mbedtls_internal_sha1_process:E <- $r5
	.loc	1 245 5                         @ ../../../ThirdParty/mbedTLS/library/sha1.c:245:5
	mov	r6, r4
	ands	r6, r5
	mov	r7, r4
	orrs	r7, r5
	ldr	r0, [sp, #44]                   @ 4-byte Reload
.Ltmp798:
	@DEBUG_VALUE: mbedtls_internal_sha1_process:A <- $r0
	ands	r7, r0
.Ltmp799:
	@DEBUG_VALUE: mbedtls_internal_sha1_process:A <- [DW_OP_plus_uconst 44] [$sp+0]
	orrs	r7, r6
	ldr	r2, [sp, #96]                   @ 4-byte Reload
.Ltmp800:
	@DEBUG_VALUE: mbedtls_internal_sha1_process:W <- [DW_OP_LLVM_fragment 160 32] $r2
	ldr	r0, [sp, #56]                   @ 4-byte Reload
.Ltmp801:
	@DEBUG_VALUE: mbedtls_internal_sha1_process:W <- [DW_OP_LLVM_fragment 224 32] undef
	eors	r2, r0
.Ltmp802:
	@DEBUG_VALUE: mbedtls_internal_sha1_process:W <- [DW_OP_plus_uconst 56, DW_OP_LLVM_fragment 224 32] [$sp+0]
	ldr	r0, [sp, #88]                   @ 4-byte Reload
.Ltmp803:
	@DEBUG_VALUE: mbedtls_internal_sha1_process:W <- [DW_OP_LLVM_fragment 416 32] $r0
	eors	r2, r0
.Ltmp804:
	@DEBUG_VALUE: mbedtls_internal_sha1_process:W <- [DW_OP_plus_uconst 88, DW_OP_LLVM_fragment 416 32] [$sp+0]
	ldr	r0, [sp, #72]                   @ 4-byte Reload
.Ltmp805:
	@DEBUG_VALUE: mbedtls_internal_sha1_process:W <- [DW_OP_LLVM_fragment 64 32] $r0
	eors	r2, r0
.Ltmp806:
	@DEBUG_VALUE: mbedtls_internal_sha1_process:temp <- $r2
	@DEBUG_VALUE: mbedtls_internal_sha1_process:W <- [DW_OP_plus_uconst 72, DW_OP_LLVM_fragment 64 32] [$sp+0]
	rors	r2, r3
.Ltmp807:
	@DEBUG_VALUE: mbedtls_internal_sha1_process:W <- [DW_OP_LLVM_fragment 160 32] $r2
	str	r2, [sp, #96]                   @ 4-byte Spill
	ldr	r0, [sp, #40]                   @ 4-byte Reload
.Ltmp808:
	@DEBUG_VALUE: mbedtls_internal_sha1_process:B <- $r0
	adds	r3, r2, r0
.Ltmp809:
	@DEBUG_VALUE: mbedtls_internal_sha1_process:W <- [DW_OP_plus_uconst 96, DW_OP_LLVM_fragment 160 32] [$sp+0]
	adds	r3, r3, r7
	adds	r1, r3, r1
	ldr	r0, __arm_cp.5_7
.Ltmp810:
	adds	r1, r1, r0
.Ltmp811:
	@DEBUG_VALUE: mbedtls_internal_sha1_process:B <- $r1
	.loc	1 0 5 is_stmt 0                 @ ../../../ThirdParty/mbedTLS/library/sha1.c:0:5
	str	r1, [sp, #40]                   @ 4-byte Spill
.Ltmp812:
	@DEBUG_VALUE: mbedtls_internal_sha1_process:B <- [DW_OP_plus_uconst 40] [$sp+0]
	ldr	r3, [sp, #120]                  @ 4-byte Reload
.Ltmp813:
	.loc	1 246 5 is_stmt 1               @ ../../../ThirdParty/mbedTLS/library/sha1.c:246:5
	rors	r1, r3
	ldr	r0, [sp, #124]                  @ 4-byte Reload
.Ltmp814:
	@DEBUG_VALUE: mbedtls_internal_sha1_process:D <- $r4
	.loc	1 245 5                         @ ../../../ThirdParty/mbedTLS/library/sha1.c:245:5
	rors	r4, r0
.Ltmp815:
	@DEBUG_VALUE: mbedtls_internal_sha1_process:D <- $r4
	.loc	1 0 5 is_stmt 0                 @ ../../../ThirdParty/mbedTLS/library/sha1.c:0:5
	str	r4, [sp, #36]                   @ 4-byte Spill
	ldr	r7, [sp, #48]                   @ 4-byte Reload
.Ltmp816:
	@DEBUG_VALUE: mbedtls_internal_sha1_process:C <- $r7
	.loc	1 246 5 is_stmt 1               @ ../../../ThirdParty/mbedTLS/library/sha1.c:246:5
	mov	r6, r7
	ands	r6, r4
.Ltmp817:
	@DEBUG_VALUE: mbedtls_internal_sha1_process:C <- [DW_OP_plus_uconst 48] [$sp+0]
	orrs	r7, r4
.Ltmp818:
	@DEBUG_VALUE: mbedtls_internal_sha1_process:D <- [DW_OP_plus_uconst 36] [$sp+0]
	ands	r7, r5
	orrs	r7, r6
	ldr	r6, [sp, #76]                   @ 4-byte Reload
.Ltmp819:
	@DEBUG_VALUE: mbedtls_internal_sha1_process:W <- [DW_OP_LLVM_fragment 192 32] $r6
	ldr	r2, [sp, #80]                   @ 4-byte Reload
.Ltmp820:
	@DEBUG_VALUE: mbedtls_internal_sha1_process:W <- [DW_OP_LLVM_fragment 256 32] $r2
	eors	r6, r2
.Ltmp821:
	@DEBUG_VALUE: mbedtls_internal_sha1_process:W <- [DW_OP_plus_uconst 80, DW_OP_LLVM_fragment 256 32] [$sp+0]
	ldr	r2, [sp, #64]                   @ 4-byte Reload
.Ltmp822:
	@DEBUG_VALUE: mbedtls_internal_sha1_process:W <- [DW_OP_LLVM_fragment 448 32] $r2
	eors	r6, r2
.Ltmp823:
	@DEBUG_VALUE: mbedtls_internal_sha1_process:W <- [DW_OP_plus_uconst 64, DW_OP_LLVM_fragment 448 32] [$sp+0]
	ldr	r2, [sp, #60]                   @ 4-byte Reload
.Ltmp824:
	@DEBUG_VALUE: mbedtls_internal_sha1_process:W <- [DW_OP_LLVM_fragment 96 32] $r2
	eors	r6, r2
.Ltmp825:
	@DEBUG_VALUE: mbedtls_internal_sha1_process:temp <- $r6
	@DEBUG_VALUE: mbedtls_internal_sha1_process:W <- [DW_OP_plus_uconst 60, DW_OP_LLVM_fragment 96 32] [$sp+0]
	.loc	1 0 5 is_stmt 0                 @ ../../../ThirdParty/mbedTLS/library/sha1.c:0:5
	ldr	r2, [sp, #116]                  @ 4-byte Reload
	.loc	1 246 5                         @ ../../../ThirdParty/mbedTLS/library/sha1.c:246:5
	rors	r6, r2
.Ltmp826:
	@DEBUG_VALUE: mbedtls_internal_sha1_process:W <- [DW_OP_LLVM_fragment 192 32] $r6
	str	r6, [sp, #76]                   @ 4-byte Spill
	ldr	r4, [sp, #44]                   @ 4-byte Reload
.Ltmp827:
	@DEBUG_VALUE: mbedtls_internal_sha1_process:A <- $r4
	adds	r4, r6, r4
.Ltmp828:
	@DEBUG_VALUE: mbedtls_internal_sha1_process:W <- [DW_OP_plus_uconst 76, DW_OP_LLVM_fragment 192 32] [$sp+0]
	adds	r4, r4, r7
	adds	r1, r4, r1
	ldr	r4, __arm_cp.5_7
	adds	r4, r1, r4
.Ltmp829:
	@DEBUG_VALUE: mbedtls_internal_sha1_process:A <- $r4
	.loc	1 247 5 is_stmt 1               @ ../../../ThirdParty/mbedTLS/library/sha1.c:247:5
	mov	r1, r4
	rors	r1, r3
	ldr	r7, [sp, #48]                   @ 4-byte Reload
.Ltmp830:
	@DEBUG_VALUE: mbedtls_internal_sha1_process:C <- $r7
	.loc	1 246 5                         @ ../../../ThirdParty/mbedTLS/library/sha1.c:246:5
	rors	r7, r0
.Ltmp831:
	@DEBUG_VALUE: mbedtls_internal_sha1_process:C <- $r7
	.loc	1 0 5 is_stmt 0                 @ ../../../ThirdParty/mbedTLS/library/sha1.c:0:5
	ldr	r3, [sp, #40]                   @ 4-byte Reload
.Ltmp832:
	@DEBUG_VALUE: mbedtls_internal_sha1_process:B <- $r3
	.loc	1 247 5 is_stmt 1               @ ../../../ThirdParty/mbedTLS/library/sha1.c:247:5
	mov	r6, r3
	ands	r6, r7
	mov	r0, r7
.Ltmp833:
	@DEBUG_VALUE: mbedtls_internal_sha1_process:C <- $r0
	str	r7, [sp, #48]                   @ 4-byte Spill
	mov	r7, r3
.Ltmp834:
	@DEBUG_VALUE: mbedtls_internal_sha1_process:B <- $r7
	@DEBUG_VALUE: mbedtls_internal_sha1_process:B <- [DW_OP_plus_uconst 40] [$sp+0]
	orrs	r7, r0
.Ltmp835:
	@DEBUG_VALUE: mbedtls_internal_sha1_process:C <- [DW_OP_plus_uconst 48] [$sp+0]
	ldr	r0, [sp, #36]                   @ 4-byte Reload
.Ltmp836:
	@DEBUG_VALUE: mbedtls_internal_sha1_process:D <- $r0
	ands	r7, r0
.Ltmp837:
	@DEBUG_VALUE: mbedtls_internal_sha1_process:D <- [DW_OP_plus_uconst 36] [$sp+0]
	orrs	r7, r6
	ldr	r6, [sp, #56]                   @ 4-byte Reload
.Ltmp838:
	@DEBUG_VALUE: mbedtls_internal_sha1_process:W <- [DW_OP_LLVM_fragment 224 32] $r6
	ldr	r0, [sp, #112]                  @ 4-byte Reload
.Ltmp839:
	@DEBUG_VALUE: mbedtls_internal_sha1_process:W <- [DW_OP_LLVM_fragment 288 32] $r0
	eors	r6, r0
.Ltmp840:
	@DEBUG_VALUE: mbedtls_internal_sha1_process:W <- [DW_OP_plus_uconst 112, DW_OP_LLVM_fragment 288 32] [$sp+0]
	ldr	r0, [sp, #52]                   @ 4-byte Reload
.Ltmp841:
	@DEBUG_VALUE: mbedtls_internal_sha1_process:W <- [DW_OP_LLVM_fragment 480 32] $r0
	eors	r6, r0
.Ltmp842:
	@DEBUG_VALUE: mbedtls_internal_sha1_process:W <- [DW_OP_plus_uconst 52, DW_OP_LLVM_fragment 480 32] [$sp+0]
	ldr	r0, [sp, #84]                   @ 4-byte Reload
.Ltmp843:
	@DEBUG_VALUE: mbedtls_internal_sha1_process:W <- [DW_OP_LLVM_fragment 128 32] $r0
	eors	r6, r0
.Ltmp844:
	@DEBUG_VALUE: mbedtls_internal_sha1_process:temp <- $r6
	@DEBUG_VALUE: mbedtls_internal_sha1_process:W <- [DW_OP_plus_uconst 84, DW_OP_LLVM_fragment 128 32] [$sp+0]
	.loc	1 0 5 is_stmt 0                 @ ../../../ThirdParty/mbedTLS/library/sha1.c:0:5
	mov	r0, r2
	.loc	1 247 5                         @ ../../../ThirdParty/mbedTLS/library/sha1.c:247:5
	rors	r6, r2
.Ltmp845:
	@DEBUG_VALUE: mbedtls_internal_sha1_process:W <- [DW_OP_LLVM_fragment 224 32] $r6
	str	r6, [sp, #56]                   @ 4-byte Spill
.Ltmp846:
	@DEBUG_VALUE: mbedtls_internal_sha1_process:W <- [DW_OP_plus_uconst 56, DW_OP_LLVM_fragment 224 32] [$sp+0]
	adds	r5, r6, r5
.Ltmp847:
	@DEBUG_VALUE: mbedtls_internal_sha1_process:W <- [DW_OP_plus_uconst 56, DW_OP_LLVM_fragment 224 32] [$sp+0]
	adds	r5, r5, r7
	adds	r1, r5, r1
	ldr	r2, __arm_cp.5_7
	adds	r5, r1, r2
.Ltmp848:
	@DEBUG_VALUE: mbedtls_internal_sha1_process:E <- $r5
	.loc	1 248 5 is_stmt 1               @ ../../../ThirdParty/mbedTLS/library/sha1.c:248:5
	mov	r1, r5
	ldr	r3, [sp, #120]                  @ 4-byte Reload
	rors	r1, r3
	ldr	r2, [sp, #40]                   @ 4-byte Reload
.Ltmp849:
	@DEBUG_VALUE: mbedtls_internal_sha1_process:B <- $r2
	.loc	1 247 5                         @ ../../../ThirdParty/mbedTLS/library/sha1.c:247:5
	ldr	r6, [sp, #124]                  @ 4-byte Reload
	rors	r2, r6
.Ltmp850:
	@DEBUG_VALUE: mbedtls_internal_sha1_process:B <- $r2
	.loc	1 248 5                         @ ../../../ThirdParty/mbedTLS/library/sha1.c:248:5
	mov	r6, r4
	ands	r6, r2
	@DEBUG_VALUE: mbedtls_internal_sha1_process:B <- $r2
	str	r2, [sp, #40]                   @ 4-byte Spill
	mov	r7, r4
	orrs	r7, r2
.Ltmp851:
	@DEBUG_VALUE: mbedtls_internal_sha1_process:B <- [DW_OP_plus_uconst 40] [$sp+0]
	ldr	r2, [sp, #48]                   @ 4-byte Reload
.Ltmp852:
	@DEBUG_VALUE: mbedtls_internal_sha1_process:C <- $r2
	ands	r7, r2
.Ltmp853:
	@DEBUG_VALUE: mbedtls_internal_sha1_process:C <- [DW_OP_plus_uconst 48] [$sp+0]
	orrs	r7, r6
	ldr	r6, [sp, #80]                   @ 4-byte Reload
.Ltmp854:
	@DEBUG_VALUE: mbedtls_internal_sha1_process:W <- [DW_OP_LLVM_fragment 256 32] $r6
	ldr	r2, [sp, #92]                   @ 4-byte Reload
.Ltmp855:
	@DEBUG_VALUE: mbedtls_internal_sha1_process:W <- [DW_OP_LLVM_fragment 320 32] $r2
	eors	r6, r2
.Ltmp856:
	@DEBUG_VALUE: mbedtls_internal_sha1_process:W <- [DW_OP_plus_uconst 92, DW_OP_LLVM_fragment 320 32] [$sp+0]
	ldr	r2, [sp, #108]                  @ 4-byte Reload
.Ltmp857:
	@DEBUG_VALUE: mbedtls_internal_sha1_process:W <- [DW_OP_LLVM_fragment 0 32] $r2
	eors	r6, r2
.Ltmp858:
	@DEBUG_VALUE: mbedtls_internal_sha1_process:W <- [DW_OP_plus_uconst 108, DW_OP_LLVM_fragment 0 32] [$sp+0]
	ldr	r2, [sp, #96]                   @ 4-byte Reload
.Ltmp859:
	@DEBUG_VALUE: mbedtls_internal_sha1_process:W <- [DW_OP_LLVM_fragment 160 32] $r2
	eors	r6, r2
.Ltmp860:
	@DEBUG_VALUE: mbedtls_internal_sha1_process:temp <- $r6
	@DEBUG_VALUE: mbedtls_internal_sha1_process:W <- [DW_OP_plus_uconst 96, DW_OP_LLVM_fragment 160 32] [$sp+0]
	rors	r6, r0
.Ltmp861:
	@DEBUG_VALUE: mbedtls_internal_sha1_process:W <- [DW_OP_LLVM_fragment 256 32] $r6
	.loc	1 0 5 is_stmt 0                 @ ../../../ThirdParty/mbedTLS/library/sha1.c:0:5
	str	r6, [sp, #80]                   @ 4-byte Spill
	.loc	1 248 5                         @ ../../../ThirdParty/mbedTLS/library/sha1.c:248:5
	ldr	r0, [sp, #36]                   @ 4-byte Reload
.Ltmp862:
	@DEBUG_VALUE: mbedtls_internal_sha1_process:D <- $r0
	adds	r0, r6, r0
.Ltmp863:
	@DEBUG_VALUE: mbedtls_internal_sha1_process:W <- [DW_OP_plus_uconst 80, DW_OP_LLVM_fragment 256 32] [$sp+0]
	adds	r0, r0, r7
	adds	r0, r0, r1
	ldr	r1, __arm_cp.5_7
	adds	r0, r0, r1
.Ltmp864:
	@DEBUG_VALUE: mbedtls_internal_sha1_process:D <- $r0
	.loc	1 249 5 is_stmt 1               @ ../../../ThirdParty/mbedTLS/library/sha1.c:249:5
	str	r0, [sp, #44]                   @ 4-byte Spill
.Ltmp865:
	@DEBUG_VALUE: mbedtls_internal_sha1_process:D <- [DW_OP_plus_uconst 44] [$sp+0]
	rors	r0, r3
	ldr	r3, [sp, #124]                  @ 4-byte Reload
.Ltmp866:
	@DEBUG_VALUE: mbedtls_internal_sha1_process:A <- $r4
	.loc	1 248 5                         @ ../../../ThirdParty/mbedTLS/library/sha1.c:248:5
	rors	r4, r3
.Ltmp867:
	@DEBUG_VALUE: mbedtls_internal_sha1_process:A <- $r4
	.loc	1 249 5                         @ ../../../ThirdParty/mbedTLS/library/sha1.c:249:5
	str	r4, [sp, #36]                   @ 4-byte Spill
	mov	r6, r5
	ands	r6, r4
	mov	r7, r5
	orrs	r7, r4
	ldr	r1, [sp, #40]                   @ 4-byte Reload
.Ltmp868:
	@DEBUG_VALUE: mbedtls_internal_sha1_process:B <- $r1
	@DEBUG_VALUE: mbedtls_internal_sha1_process:A <- [DW_OP_plus_uconst 36] [$sp+0]
	ands	r7, r1
.Ltmp869:
	@DEBUG_VALUE: mbedtls_internal_sha1_process:B <- [DW_OP_plus_uconst 40] [$sp+0]
	orrs	r7, r6
	ldr	r1, [sp, #112]                  @ 4-byte Reload
.Ltmp870:
	@DEBUG_VALUE: mbedtls_internal_sha1_process:W <- [DW_OP_LLVM_fragment 288 32] $r1
	ldr	r2, [sp, #68]                   @ 4-byte Reload
.Ltmp871:
	@DEBUG_VALUE: mbedtls_internal_sha1_process:W <- [DW_OP_LLVM_fragment 352 32] $r2
	eors	r1, r2
.Ltmp872:
	@DEBUG_VALUE: mbedtls_internal_sha1_process:W <- [DW_OP_plus_uconst 68, DW_OP_LLVM_fragment 352 32] [$sp+0]
	ldr	r2, [sp, #104]                  @ 4-byte Reload
.Ltmp873:
	@DEBUG_VALUE: mbedtls_internal_sha1_process:W <- [DW_OP_LLVM_fragment 32 32] $r2
	eors	r1, r2
.Ltmp874:
	@DEBUG_VALUE: mbedtls_internal_sha1_process:W <- [DW_OP_plus_uconst 104, DW_OP_LLVM_fragment 32 32] [$sp+0]
	ldr	r2, [sp, #76]                   @ 4-byte Reload
.Ltmp875:
	@DEBUG_VALUE: mbedtls_internal_sha1_process:W <- [DW_OP_LLVM_fragment 192 32] $r2
	eors	r1, r2
.Ltmp876:
	@DEBUG_VALUE: mbedtls_internal_sha1_process:temp <- $r1
	@DEBUG_VALUE: mbedtls_internal_sha1_process:W <- [DW_OP_plus_uconst 76, DW_OP_LLVM_fragment 192 32] [$sp+0]
	ldr	r2, [sp, #116]                  @ 4-byte Reload
	rors	r1, r2
.Ltmp877:
	@DEBUG_VALUE: mbedtls_internal_sha1_process:W <- [DW_OP_LLVM_fragment 288 32] $r1
	str	r1, [sp, #112]                  @ 4-byte Spill
	ldr	r2, [sp, #48]                   @ 4-byte Reload
.Ltmp878:
	@DEBUG_VALUE: mbedtls_internal_sha1_process:C <- $r2
	adds	r2, r1, r2
.Ltmp879:
	@DEBUG_VALUE: mbedtls_internal_sha1_process:W <- [DW_OP_plus_uconst 112, DW_OP_LLVM_fragment 288 32] [$sp+0]
	adds	r2, r2, r7
	adds	r0, r2, r0
	ldr	r1, __arm_cp.5_7
	adds	r0, r0, r1
.Ltmp880:
	@DEBUG_VALUE: mbedtls_internal_sha1_process:C <- $r0
	.loc	1 250 5                         @ ../../../ThirdParty/mbedTLS/library/sha1.c:250:5
	str	r0, [sp, #48]                   @ 4-byte Spill
.Ltmp881:
	@DEBUG_VALUE: mbedtls_internal_sha1_process:C <- [DW_OP_plus_uconst 48] [$sp+0]
	.loc	1 0 5 is_stmt 0                 @ ../../../ThirdParty/mbedTLS/library/sha1.c:0:5
	ldr	r4, [sp, #120]                  @ 4-byte Reload
	.loc	1 250 5                         @ ../../../ThirdParty/mbedTLS/library/sha1.c:250:5
	rors	r0, r4
.Ltmp882:
	.loc	1 249 5 is_stmt 1               @ ../../../ThirdParty/mbedTLS/library/sha1.c:249:5
	rors	r5, r3
.Ltmp883:
	@DEBUG_VALUE: mbedtls_internal_sha1_process:E <- $r5
	.loc	1 0 5 is_stmt 0                 @ ../../../ThirdParty/mbedTLS/library/sha1.c:0:5
	ldr	r7, [sp, #44]                   @ 4-byte Reload
.Ltmp884:
	@DEBUG_VALUE: mbedtls_internal_sha1_process:D <- $r7
	.loc	1 250 5 is_stmt 1               @ ../../../ThirdParty/mbedTLS/library/sha1.c:250:5
	mov	r6, r7
	ands	r6, r5
.Ltmp885:
	@DEBUG_VALUE: mbedtls_internal_sha1_process:D <- [DW_OP_plus_uconst 44] [$sp+0]
	orrs	r7, r5
	ldr	r1, [sp, #36]                   @ 4-byte Reload
.Ltmp886:
	@DEBUG_VALUE: mbedtls_internal_sha1_process:A <- $r1
	ands	r7, r1
.Ltmp887:
	@DEBUG_VALUE: mbedtls_internal_sha1_process:A <- [DW_OP_plus_uconst 36] [$sp+0]
	orrs	r7, r6
	ldr	r1, [sp, #92]                   @ 4-byte Reload
.Ltmp888:
	@DEBUG_VALUE: mbedtls_internal_sha1_process:W <- [DW_OP_LLVM_fragment 320 32] $r1
	ldr	r6, [sp, #100]                  @ 4-byte Reload
.Ltmp889:
	@DEBUG_VALUE: mbedtls_internal_sha1_process:W <- [DW_OP_LLVM_fragment 384 32] $r6
	eors	r1, r6
.Ltmp890:
	@DEBUG_VALUE: mbedtls_internal_sha1_process:W <- [DW_OP_plus_uconst 100, DW_OP_LLVM_fragment 384 32] [$sp+0]
	ldr	r6, [sp, #72]                   @ 4-byte Reload
.Ltmp891:
	@DEBUG_VALUE: mbedtls_internal_sha1_process:W <- [DW_OP_LLVM_fragment 64 32] $r6
	eors	r1, r6
.Ltmp892:
	@DEBUG_VALUE: mbedtls_internal_sha1_process:W <- [DW_OP_plus_uconst 72, DW_OP_LLVM_fragment 64 32] [$sp+0]
	ldr	r6, [sp, #56]                   @ 4-byte Reload
.Ltmp893:
	@DEBUG_VALUE: mbedtls_internal_sha1_process:W <- [DW_OP_LLVM_fragment 224 32] $r6
	eors	r1, r6
.Ltmp894:
	@DEBUG_VALUE: mbedtls_internal_sha1_process:temp <- $r1
	@DEBUG_VALUE: mbedtls_internal_sha1_process:W <- [DW_OP_plus_uconst 56, DW_OP_LLVM_fragment 224 32] [$sp+0]
	.loc	1 0 5 is_stmt 0                 @ ../../../ThirdParty/mbedTLS/library/sha1.c:0:5
	ldr	r2, [sp, #116]                  @ 4-byte Reload
	.loc	1 250 5                         @ ../../../ThirdParty/mbedTLS/library/sha1.c:250:5
	rors	r1, r2
.Ltmp895:
	@DEBUG_VALUE: mbedtls_internal_sha1_process:W <- [DW_OP_LLVM_fragment 320 32] $r1
	str	r1, [sp, #92]                   @ 4-byte Spill
	ldr	r3, [sp, #40]                   @ 4-byte Reload
.Ltmp896:
	@DEBUG_VALUE: mbedtls_internal_sha1_process:B <- $r3
	adds	r3, r1, r3
.Ltmp897:
	@DEBUG_VALUE: mbedtls_internal_sha1_process:W <- [DW_OP_plus_uconst 92, DW_OP_LLVM_fragment 320 32] [$sp+0]
	adds	r3, r3, r7
	adds	r0, r3, r0
	ldr	r1, __arm_cp.5_7
	adds	r1, r0, r1
.Ltmp898:
	@DEBUG_VALUE: mbedtls_internal_sha1_process:B <- $r1
	.loc	1 251 5 is_stmt 1               @ ../../../ThirdParty/mbedTLS/library/sha1.c:251:5
	mov	r3, r1
	rors	r3, r4
	ldr	r0, [sp, #44]                   @ 4-byte Reload
.Ltmp899:
	@DEBUG_VALUE: mbedtls_internal_sha1_process:D <- $r0
	.loc	1 250 5                         @ ../../../ThirdParty/mbedTLS/library/sha1.c:250:5
	ldr	r4, [sp, #124]                  @ 4-byte Reload
	rors	r0, r4
.Ltmp900:
	@DEBUG_VALUE: mbedtls_internal_sha1_process:D <- $r0
	.loc	1 251 5                         @ ../../../ThirdParty/mbedTLS/library/sha1.c:251:5
	str	r0, [sp, #44]                   @ 4-byte Spill
	ldr	r7, [sp, #48]                   @ 4-byte Reload
.Ltmp901:
	@DEBUG_VALUE: mbedtls_internal_sha1_process:C <- $r7
	mov	r6, r7
	ands	r6, r0
.Ltmp902:
	@DEBUG_VALUE: mbedtls_internal_sha1_process:C <- [DW_OP_plus_uconst 48] [$sp+0]
	orrs	r7, r0
.Ltmp903:
	@DEBUG_VALUE: mbedtls_internal_sha1_process:D <- [DW_OP_plus_uconst 44] [$sp+0]
	ands	r7, r5
	orrs	r7, r6
	ldr	r0, [sp, #68]                   @ 4-byte Reload
.Ltmp904:
	@DEBUG_VALUE: mbedtls_internal_sha1_process:W <- [DW_OP_LLVM_fragment 352 32] $r0
	ldr	r6, [sp, #88]                   @ 4-byte Reload
.Ltmp905:
	@DEBUG_VALUE: mbedtls_internal_sha1_process:W <- [DW_OP_LLVM_fragment 416 32] $r6
	eors	r0, r6
.Ltmp906:
	@DEBUG_VALUE: mbedtls_internal_sha1_process:W <- [DW_OP_plus_uconst 88, DW_OP_LLVM_fragment 416 32] [$sp+0]
	ldr	r6, [sp, #60]                   @ 4-byte Reload
.Ltmp907:
	@DEBUG_VALUE: mbedtls_internal_sha1_process:W <- [DW_OP_LLVM_fragment 96 32] $r6
	eors	r0, r6
.Ltmp908:
	@DEBUG_VALUE: mbedtls_internal_sha1_process:W <- [DW_OP_plus_uconst 60, DW_OP_LLVM_fragment 96 32] [$sp+0]
	ldr	r6, [sp, #80]                   @ 4-byte Reload
.Ltmp909:
	@DEBUG_VALUE: mbedtls_internal_sha1_process:W <- [DW_OP_LLVM_fragment 256 32] $r6
	eors	r0, r6
.Ltmp910:
	@DEBUG_VALUE: mbedtls_internal_sha1_process:temp <- $r0
	@DEBUG_VALUE: mbedtls_internal_sha1_process:W <- [DW_OP_plus_uconst 80, DW_OP_LLVM_fragment 256 32] [$sp+0]
	rors	r0, r2
.Ltmp911:
	@DEBUG_VALUE: mbedtls_internal_sha1_process:W <- [DW_OP_LLVM_fragment 352 32] $r0
	str	r0, [sp, #68]                   @ 4-byte Spill
	ldr	r2, [sp, #36]                   @ 4-byte Reload
.Ltmp912:
	@DEBUG_VALUE: mbedtls_internal_sha1_process:A <- $r2
	adds	r4, r0, r2
.Ltmp913:
	@DEBUG_VALUE: mbedtls_internal_sha1_process:W <- [DW_OP_plus_uconst 68, DW_OP_LLVM_fragment 352 32] [$sp+0]
	adds	r4, r4, r7
	adds	r3, r4, r3
	ldr	r0, __arm_cp.5_7
	adds	r6, r3, r0
.Ltmp914:
	@DEBUG_VALUE: mbedtls_internal_sha1_process:A <- $r6
	.loc	1 260 5                         @ ../../../ThirdParty/mbedTLS/library/sha1.c:260:5
	mov	r2, r6
	ldr	r0, [sp, #124]                  @ 4-byte Reload
	rors	r2, r0
.Ltmp915:
	@DEBUG_VALUE: mbedtls_internal_sha1_process:A <- $r2
	.loc	1 0 5 is_stmt 0                 @ ../../../ThirdParty/mbedTLS/library/sha1.c:0:5
	str	r2, [sp, #36]                   @ 4-byte Spill
.Ltmp916:
	@DEBUG_VALUE: mbedtls_internal_sha1_process:A <- [DW_OP_plus_uconst 36] [$sp+0]
	@DEBUG_VALUE: mbedtls_internal_sha1_process:A <- [DW_OP_plus_uconst 36] [$sp+0]
	.loc	1 259 5 is_stmt 1               @ ../../../ThirdParty/mbedTLS/library/sha1.c:259:5
	mov	r4, r6
	ldr	r2, [sp, #120]                  @ 4-byte Reload
	rors	r4, r2
	ldr	r7, [sp, #48]                   @ 4-byte Reload
.Ltmp917:
	@DEBUG_VALUE: mbedtls_internal_sha1_process:C <- $r7
	.loc	1 251 5                         @ ../../../ThirdParty/mbedTLS/library/sha1.c:251:5
	rors	r7, r0
.Ltmp918:
	@DEBUG_VALUE: mbedtls_internal_sha1_process:C <- $r7
	.loc	1 0 5 is_stmt 0                 @ ../../../ThirdParty/mbedTLS/library/sha1.c:0:5
	str	r7, [sp, #48]                   @ 4-byte Spill
.Ltmp919:
	.loc	1 259 5 is_stmt 1               @ ../../../ThirdParty/mbedTLS/library/sha1.c:259:5
	ldr	r0, [sp, #44]                   @ 4-byte Reload
.Ltmp920:
	@DEBUG_VALUE: mbedtls_internal_sha1_process:D <- $r0
	@DEBUG_VALUE: mbedtls_internal_sha1_process:C <- [DW_OP_plus_uconst 48] [$sp+0]
	eors	r7, r0
.Ltmp921:
	@DEBUG_VALUE: mbedtls_internal_sha1_process:D <- [DW_OP_plus_uconst 44] [$sp+0]
	eors	r7, r1
	ldr	r0, [sp, #100]                  @ 4-byte Reload
.Ltmp922:
	@DEBUG_VALUE: mbedtls_internal_sha1_process:W <- [DW_OP_LLVM_fragment 384 32] $r0
	ldr	r2, [sp, #64]                   @ 4-byte Reload
.Ltmp923:
	@DEBUG_VALUE: mbedtls_internal_sha1_process:W <- [DW_OP_LLVM_fragment 448 32] undef
	eors	r0, r2
.Ltmp924:
	@DEBUG_VALUE: mbedtls_internal_sha1_process:W <- [DW_OP_plus_uconst 64, DW_OP_LLVM_fragment 448 32] [$sp+0]
	ldr	r2, [sp, #84]                   @ 4-byte Reload
.Ltmp925:
	@DEBUG_VALUE: mbedtls_internal_sha1_process:W <- [DW_OP_LLVM_fragment 128 32] $r2
	eors	r0, r2
.Ltmp926:
	@DEBUG_VALUE: mbedtls_internal_sha1_process:W <- [DW_OP_plus_uconst 84, DW_OP_LLVM_fragment 128 32] [$sp+0]
	ldr	r2, [sp, #112]                  @ 4-byte Reload
.Ltmp927:
	@DEBUG_VALUE: mbedtls_internal_sha1_process:W <- [DW_OP_LLVM_fragment 288 32] $r2
	eors	r0, r2
.Ltmp928:
	@DEBUG_VALUE: mbedtls_internal_sha1_process:temp <- $r0
	@DEBUG_VALUE: mbedtls_internal_sha1_process:W <- [DW_OP_plus_uconst 112, DW_OP_LLVM_fragment 288 32] [$sp+0]
	.loc	1 0 5 is_stmt 0                 @ ../../../ThirdParty/mbedTLS/library/sha1.c:0:5
	ldr	r3, [sp, #116]                  @ 4-byte Reload
	.loc	1 259 5                         @ ../../../ThirdParty/mbedTLS/library/sha1.c:259:5
	rors	r0, r3
.Ltmp929:
	@DEBUG_VALUE: mbedtls_internal_sha1_process:W <- [DW_OP_LLVM_fragment 384 32] $r0
	str	r0, [sp, #100]                  @ 4-byte Spill
.Ltmp930:
	@DEBUG_VALUE: mbedtls_internal_sha1_process:W <- [DW_OP_plus_uconst 100, DW_OP_LLVM_fragment 384 32] [$sp+0]
	adds	r5, r0, r5
.Ltmp931:
	@DEBUG_VALUE: mbedtls_internal_sha1_process:W <- [DW_OP_plus_uconst 100, DW_OP_LLVM_fragment 384 32] [$sp+0]
	adds	r5, r5, r7
	adds	r4, r5, r4
	ldr	r0, __arm_cp.5_3
	adds	r7, r4, r0
.Ltmp932:
	@DEBUG_VALUE: mbedtls_internal_sha1_process:E <- $r7
	.loc	1 0 5                           @ ../../../ThirdParty/mbedTLS/library/sha1.c:0:5
	b	.LBB5_7
.Ltmp933:
	.p2align	2
@ %bb.6:
__arm_cp.5_7:
	.long	2400959708                      @ 0x8f1bbcdc
.Lcpi_end7:
	.size	__arm_cp.5_7, .Lcpi_end7-__arm_cp.5_7
	.p2align	1
.LBB5_7:
.Ltmp934:
	.loc	1 261 5 is_stmt 1               @ ../../../ThirdParty/mbedTLS/library/sha1.c:261:5
	str	r7, [sp, #24]                   @ 4-byte Spill
.Ltmp935:
	@DEBUG_VALUE: mbedtls_internal_sha1_process:E <- [DW_OP_plus_uconst 24] [$sp+0]
	.loc	1 0 5 is_stmt 0                 @ ../../../ThirdParty/mbedTLS/library/sha1.c:0:5
	ldr	r0, [sp, #124]                  @ 4-byte Reload
	.loc	1 261 5                         @ ../../../ThirdParty/mbedTLS/library/sha1.c:261:5
	rors	r7, r0
.Ltmp936:
	@DEBUG_VALUE: mbedtls_internal_sha1_process:E <- $r7
	.loc	1 262 5 is_stmt 1               @ ../../../ThirdParty/mbedTLS/library/sha1.c:262:5
	str	r7, [sp, #40]                   @ 4-byte Spill
.Ltmp937:
	@DEBUG_VALUE: mbedtls_internal_sha1_process:E <- [DW_OP_plus_uconst 40] [$sp+0]
	.loc	1 0 5 is_stmt 0                 @ ../../../ThirdParty/mbedTLS/library/sha1.c:0:5
	ldr	r5, [sp, #36]                   @ 4-byte Reload
.Ltmp938:
	@DEBUG_VALUE: mbedtls_internal_sha1_process:A <- $r5
	.loc	1 262 5                         @ ../../../ThirdParty/mbedTLS/library/sha1.c:262:5
	eors	r7, r5
.Ltmp939:
	.loc	1 259 5 is_stmt 1               @ ../../../ThirdParty/mbedTLS/library/sha1.c:259:5
	rors	r1, r0
.Ltmp940:
	@DEBUG_VALUE: mbedtls_internal_sha1_process:B <- $r1
	.loc	1 260 5                         @ ../../../ThirdParty/mbedTLS/library/sha1.c:260:5
	mov	r0, r1
	ldr	r2, [sp, #48]                   @ 4-byte Reload
.Ltmp941:
	@DEBUG_VALUE: mbedtls_internal_sha1_process:C <- $r2
	eors	r0, r2
.Ltmp942:
	@DEBUG_VALUE: mbedtls_internal_sha1_process:C <- [DW_OP_plus_uconst 48] [$sp+0]
	eors	r0, r6
	ldr	r6, [sp, #88]                   @ 4-byte Reload
.Ltmp943:
	@DEBUG_VALUE: mbedtls_internal_sha1_process:W <- [DW_OP_LLVM_fragment 416 32] $r6
	.loc	1 0 5 is_stmt 0                 @ ../../../ThirdParty/mbedTLS/library/sha1.c:0:5
	ldr	r2, [sp, #52]                   @ 4-byte Reload
.Ltmp944:
	@DEBUG_VALUE: mbedtls_internal_sha1_process:W <- [DW_OP_LLVM_fragment 480 32] $r2
	.loc	1 260 5                         @ ../../../ThirdParty/mbedTLS/library/sha1.c:260:5
	eors	r6, r2
.Ltmp945:
	ldr	r4, [sp, #96]                   @ 4-byte Reload
.Ltmp946:
	@DEBUG_VALUE: mbedtls_internal_sha1_process:W <- [DW_OP_LLVM_fragment 160 32] $r4
	eors	r6, r4
.Ltmp947:
	@DEBUG_VALUE: mbedtls_internal_sha1_process:W <- [DW_OP_plus_uconst 96, DW_OP_LLVM_fragment 160 32] [$sp+0]
	ldr	r4, [sp, #92]                   @ 4-byte Reload
.Ltmp948:
	@DEBUG_VALUE: mbedtls_internal_sha1_process:W <- [DW_OP_LLVM_fragment 320 32] $r4
	eors	r6, r4
.Ltmp949:
	@DEBUG_VALUE: mbedtls_internal_sha1_process:temp <- $r6
	@DEBUG_VALUE: mbedtls_internal_sha1_process:W <- [DW_OP_plus_uconst 92, DW_OP_LLVM_fragment 320 32] [$sp+0]
	rors	r6, r3
.Ltmp950:
	@DEBUG_VALUE: mbedtls_internal_sha1_process:W <- [DW_OP_LLVM_fragment 416 32] $r6
	.loc	1 0 5                           @ ../../../ThirdParty/mbedTLS/library/sha1.c:0:5
	str	r6, [sp, #88]                   @ 4-byte Spill
	.loc	1 260 5                         @ ../../../ThirdParty/mbedTLS/library/sha1.c:260:5
	ldr	r3, [sp, #44]                   @ 4-byte Reload
.Ltmp951:
	@DEBUG_VALUE: mbedtls_internal_sha1_process:D <- $r3
	adds	r3, r6, r3
.Ltmp952:
	@DEBUG_VALUE: mbedtls_internal_sha1_process:W <- [DW_OP_plus_uconst 88, DW_OP_LLVM_fragment 416 32] [$sp+0]
	@DEBUG_VALUE: mbedtls_internal_sha1_process:W <- [DW_OP_LLVM_fragment 416 32] undef
	adds	r0, r3, r0
	ldr	r4, [sp, #24]                   @ 4-byte Reload
	mov	r3, r4
	ldr	r6, [sp, #120]                  @ 4-byte Reload
	rors	r3, r6
	adds	r0, r0, r3
	ldr	r3, __arm_cp.5_3
	adds	r0, r0, r3
.Ltmp953:
	@DEBUG_VALUE: mbedtls_internal_sha1_process:D <- $r0
	.loc	1 262 5 is_stmt 1               @ ../../../ThirdParty/mbedTLS/library/sha1.c:262:5
	str	r0, [sp, #44]                   @ 4-byte Spill
.Ltmp954:
	@DEBUG_VALUE: mbedtls_internal_sha1_process:D <- [DW_OP_plus_uconst 44] [$sp+0]
	eors	r7, r0
	@DEBUG_VALUE: mbedtls_internal_sha1_process:D <- [DW_OP_plus_uconst 44] [$sp+0]
	mov	r3, r2
.Ltmp955:
	@DEBUG_VALUE: mbedtls_internal_sha1_process:W <- [DW_OP_LLVM_fragment 480 32] $r3
	ldr	r0, [sp, #104]                  @ 4-byte Reload
.Ltmp956:
	@DEBUG_VALUE: mbedtls_internal_sha1_process:W <- [DW_OP_LLVM_fragment 32 32] $r0
	eors	r3, r0
.Ltmp957:
	@DEBUG_VALUE: mbedtls_internal_sha1_process:W <- [DW_OP_plus_uconst 104, DW_OP_LLVM_fragment 32 32] [$sp+0]
	ldr	r0, [sp, #56]                   @ 4-byte Reload
.Ltmp958:
	@DEBUG_VALUE: mbedtls_internal_sha1_process:W <- [DW_OP_LLVM_fragment 224 32] $r0
	eors	r3, r0
.Ltmp959:
	@DEBUG_VALUE: mbedtls_internal_sha1_process:W <- [DW_OP_plus_uconst 56, DW_OP_LLVM_fragment 224 32] [$sp+0]
	ldr	r0, [sp, #100]                  @ 4-byte Reload
.Ltmp960:
	@DEBUG_VALUE: mbedtls_internal_sha1_process:W <- [DW_OP_LLVM_fragment 384 32] $r0
	eors	r3, r0
.Ltmp961:
	@DEBUG_VALUE: mbedtls_internal_sha1_process:temp <- $r3
	@DEBUG_VALUE: mbedtls_internal_sha1_process:W <- [DW_OP_plus_uconst 100, DW_OP_LLVM_fragment 384 32] [$sp+0]
	.loc	1 0 5 is_stmt 0                 @ ../../../ThirdParty/mbedTLS/library/sha1.c:0:5
	ldr	r2, [sp, #116]                  @ 4-byte Reload
	.loc	1 262 5                         @ ../../../ThirdParty/mbedTLS/library/sha1.c:262:5
	rors	r3, r2
.Ltmp962:
	@DEBUG_VALUE: mbedtls_internal_sha1_process:W <- [DW_OP_LLVM_fragment 480 32] $r3
	str	r3, [sp, #52]                   @ 4-byte Spill
.Ltmp963:
	@DEBUG_VALUE: mbedtls_internal_sha1_process:W <- [DW_OP_plus_uconst 52, DW_OP_LLVM_fragment 480 32] [$sp+0]
	adds	r0, r3, r1
	@DEBUG_VALUE: mbedtls_internal_sha1_process:W <- [DW_OP_plus_uconst 52, DW_OP_LLVM_fragment 480 32] [$sp+0]
	adds	r0, r0, r7
.Ltmp964:
	.loc	1 261 5 is_stmt 1               @ ../../../ThirdParty/mbedTLS/library/sha1.c:261:5
	str	r0, [sp, #32]                   @ 4-byte Spill
	eors	r1, r5
.Ltmp965:
	@DEBUG_VALUE: mbedtls_internal_sha1_process:A <- [DW_OP_plus_uconst 36] [$sp+0]
	eors	r1, r4
	ldr	r3, [sp, #64]                   @ 4-byte Reload
.Ltmp966:
	@DEBUG_VALUE: mbedtls_internal_sha1_process:W <- [DW_OP_LLVM_fragment 448 32] $r3
	ldr	r0, [sp, #108]                  @ 4-byte Reload
.Ltmp967:
	@DEBUG_VALUE: mbedtls_internal_sha1_process:W <- [DW_OP_LLVM_fragment 0 32] $r0
	eors	r3, r0
.Ltmp968:
	@DEBUG_VALUE: mbedtls_internal_sha1_process:W <- [DW_OP_plus_uconst 108, DW_OP_LLVM_fragment 0 32] [$sp+0]
	ldr	r0, [sp, #76]                   @ 4-byte Reload
.Ltmp969:
	@DEBUG_VALUE: mbedtls_internal_sha1_process:W <- [DW_OP_LLVM_fragment 192 32] $r0
	eors	r3, r0
.Ltmp970:
	@DEBUG_VALUE: mbedtls_internal_sha1_process:W <- [DW_OP_plus_uconst 76, DW_OP_LLVM_fragment 192 32] [$sp+0]
	ldr	r0, [sp, #68]                   @ 4-byte Reload
.Ltmp971:
	@DEBUG_VALUE: mbedtls_internal_sha1_process:W <- [DW_OP_LLVM_fragment 352 32] $r0
	eors	r3, r0
.Ltmp972:
	@DEBUG_VALUE: mbedtls_internal_sha1_process:temp <- $r3
	@DEBUG_VALUE: mbedtls_internal_sha1_process:W <- [DW_OP_plus_uconst 68, DW_OP_LLVM_fragment 352 32] [$sp+0]
	rors	r3, r2
.Ltmp973:
	@DEBUG_VALUE: mbedtls_internal_sha1_process:W <- [DW_OP_LLVM_fragment 448 32] $r3
	.loc	1 0 5 is_stmt 0                 @ ../../../ThirdParty/mbedTLS/library/sha1.c:0:5
	str	r3, [sp, #64]                   @ 4-byte Spill
	.loc	1 261 5                         @ ../../../ThirdParty/mbedTLS/library/sha1.c:261:5
	ldr	r0, [sp, #48]                   @ 4-byte Reload
.Ltmp974:
	@DEBUG_VALUE: mbedtls_internal_sha1_process:C <- $r0
	adds	r0, r3, r0
.Ltmp975:
	@DEBUG_VALUE: mbedtls_internal_sha1_process:W <- [DW_OP_plus_uconst 64, DW_OP_LLVM_fragment 448 32] [$sp+0]
	adds	r0, r0, r1
	ldr	r4, [sp, #44]                   @ 4-byte Reload
.Ltmp976:
	@DEBUG_VALUE: mbedtls_internal_sha1_process:D <- $r4
	mov	r1, r4
	mov	r7, r6
	rors	r1, r6
	adds	r0, r0, r1
	ldr	r2, __arm_cp.5_3
	adds	r3, r0, r2
.Ltmp977:
	@DEBUG_VALUE: mbedtls_internal_sha1_process:C <- $r3
	.loc	1 262 5 is_stmt 1               @ ../../../ThirdParty/mbedTLS/library/sha1.c:262:5
	mov	r1, r3
	rors	r1, r6
	ldr	r0, [sp, #32]                   @ 4-byte Reload
	adds	r1, r0, r1
	adds	r2, r1, r2
.Ltmp978:
	@DEBUG_VALUE: mbedtls_internal_sha1_process:B <- $r2
	.loc	1 264 5                         @ ../../../ThirdParty/mbedTLS/library/sha1.c:264:5
	mov	r0, r2
	ldr	r1, [sp, #124]                  @ 4-byte Reload
	rors	r0, r1
.Ltmp979:
	@DEBUG_VALUE: mbedtls_internal_sha1_process:B <- $r0
	.loc	1 0 5 is_stmt 0                 @ ../../../ThirdParty/mbedTLS/library/sha1.c:0:5
	str	r0, [sp, #32]                   @ 4-byte Spill
.Ltmp980:
	@DEBUG_VALUE: mbedtls_internal_sha1_process:B <- [DW_OP_plus_uconst 32] [$sp+0]
	@DEBUG_VALUE: mbedtls_internal_sha1_process:B <- [DW_OP_plus_uconst 32] [$sp+0]
	.loc	1 263 5 is_stmt 1               @ ../../../ThirdParty/mbedTLS/library/sha1.c:263:5
	mov	r6, r2
	rors	r6, r7
.Ltmp981:
	@DEBUG_VALUE: mbedtls_internal_sha1_process:D <- $r4
	.loc	1 262 5                         @ ../../../ThirdParty/mbedTLS/library/sha1.c:262:5
	rors	r4, r1
.Ltmp982:
	@DEBUG_VALUE: mbedtls_internal_sha1_process:D <- $r4
	.loc	1 263 5                         @ ../../../ThirdParty/mbedTLS/library/sha1.c:263:5
	mov	r1, r4
	@DEBUG_VALUE: mbedtls_internal_sha1_process:D <- $r4
	str	r4, [sp, #44]                   @ 4-byte Spill
	ldr	r0, [sp, #40]                   @ 4-byte Reload
.Ltmp983:
	@DEBUG_VALUE: mbedtls_internal_sha1_process:E <- $r0
	eors	r1, r0
.Ltmp984:
	@DEBUG_VALUE: mbedtls_internal_sha1_process:E <- [DW_OP_plus_uconst 40] [$sp+0]
	eors	r1, r3
	ldr	r0, [sp, #108]                  @ 4-byte Reload
.Ltmp985:
	@DEBUG_VALUE: mbedtls_internal_sha1_process:W <- [DW_OP_LLVM_fragment 0 32] $r0
	ldr	r7, [sp, #72]                   @ 4-byte Reload
.Ltmp986:
	@DEBUG_VALUE: mbedtls_internal_sha1_process:W <- [DW_OP_LLVM_fragment 64 32] $r7
	eors	r0, r7
.Ltmp987:
	@DEBUG_VALUE: mbedtls_internal_sha1_process:W <- [DW_OP_plus_uconst 72, DW_OP_LLVM_fragment 64 32] [$sp+0]
	ldr	r5, [sp, #80]                   @ 4-byte Reload
.Ltmp988:
	@DEBUG_VALUE: mbedtls_internal_sha1_process:W <- [DW_OP_LLVM_fragment 256 32] $r5
	eors	r0, r5
.Ltmp989:
	@DEBUG_VALUE: mbedtls_internal_sha1_process:W <- [DW_OP_plus_uconst 80, DW_OP_LLVM_fragment 256 32] [$sp+0]
	ldr	r5, [sp, #88]                   @ 4-byte Reload
.Ltmp990:
	@DEBUG_VALUE: mbedtls_internal_sha1_process:W <- [DW_OP_LLVM_fragment 416 32] $r5
	eors	r0, r5
.Ltmp991:
	@DEBUG_VALUE: mbedtls_internal_sha1_process:temp <- $r0
	@DEBUG_VALUE: mbedtls_internal_sha1_process:W <- [DW_OP_plus_uconst 88, DW_OP_LLVM_fragment 416 32] [$sp+0]
	@DEBUG_VALUE: mbedtls_internal_sha1_process:W <- [DW_OP_LLVM_fragment 416 32] undef
	.loc	1 0 5 is_stmt 0                 @ ../../../ThirdParty/mbedTLS/library/sha1.c:0:5
	ldr	r5, [sp, #116]                  @ 4-byte Reload
	.loc	1 263 5                         @ ../../../ThirdParty/mbedTLS/library/sha1.c:263:5
	rors	r0, r5
.Ltmp992:
	@DEBUG_VALUE: mbedtls_internal_sha1_process:W <- [DW_OP_LLVM_fragment 0 32] $r0
	str	r0, [sp, #108]                  @ 4-byte Spill
	ldr	r7, [sp, #36]                   @ 4-byte Reload
.Ltmp993:
	@DEBUG_VALUE: mbedtls_internal_sha1_process:A <- $r7
	adds	r7, r0, r7
.Ltmp994:
	@DEBUG_VALUE: mbedtls_internal_sha1_process:W <- [DW_OP_plus_uconst 108, DW_OP_LLVM_fragment 0 32] [$sp+0]
	adds	r1, r7, r1
	adds	r1, r1, r6
	ldr	r0, __arm_cp.5_3
	adds	r7, r1, r0
.Ltmp995:
	@DEBUG_VALUE: mbedtls_internal_sha1_process:A <- $r7
	.loc	1 265 5 is_stmt 1               @ ../../../ThirdParty/mbedTLS/library/sha1.c:265:5
	str	r7, [sp, #36]                   @ 4-byte Spill
.Ltmp996:
	@DEBUG_VALUE: mbedtls_internal_sha1_process:A <- [DW_OP_plus_uconst 36] [$sp+0]
	.loc	1 0 5 is_stmt 0                 @ ../../../ThirdParty/mbedTLS/library/sha1.c:0:5
	ldr	r0, [sp, #124]                  @ 4-byte Reload
	.loc	1 265 5                         @ ../../../ThirdParty/mbedTLS/library/sha1.c:265:5
	rors	r7, r0
.Ltmp997:
	@DEBUG_VALUE: mbedtls_internal_sha1_process:A <- $r7
	.loc	1 266 5 is_stmt 1               @ ../../../ThirdParty/mbedTLS/library/sha1.c:266:5
	str	r7, [sp, #48]                   @ 4-byte Spill
.Ltmp998:
	@DEBUG_VALUE: mbedtls_internal_sha1_process:A <- [DW_OP_plus_uconst 48] [$sp+0]
	.loc	1 0 5 is_stmt 0                 @ ../../../ThirdParty/mbedTLS/library/sha1.c:0:5
	ldr	r6, [sp, #32]                   @ 4-byte Reload
.Ltmp999:
	@DEBUG_VALUE: mbedtls_internal_sha1_process:B <- $r6
	.loc	1 266 5                         @ ../../../ThirdParty/mbedTLS/library/sha1.c:266:5
	eors	r7, r6
.Ltmp1000:
	.loc	1 263 5 is_stmt 1               @ ../../../ThirdParty/mbedTLS/library/sha1.c:263:5
	rors	r3, r0
.Ltmp1001:
	@DEBUG_VALUE: mbedtls_internal_sha1_process:C <- $r3
	.loc	1 264 5                         @ ../../../ThirdParty/mbedTLS/library/sha1.c:264:5
	mov	r1, r3
	eors	r1, r4
.Ltmp1002:
	@DEBUG_VALUE: mbedtls_internal_sha1_process:D <- [DW_OP_plus_uconst 44] [$sp+0]
	eors	r1, r2
	ldr	r0, [sp, #104]                  @ 4-byte Reload
.Ltmp1003:
	@DEBUG_VALUE: mbedtls_internal_sha1_process:W <- [DW_OP_LLVM_fragment 32 32] $r0
	.loc	1 0 5 is_stmt 0                 @ ../../../ThirdParty/mbedTLS/library/sha1.c:0:5
	ldr	r4, [sp, #60]                   @ 4-byte Reload
.Ltmp1004:
	@DEBUG_VALUE: mbedtls_internal_sha1_process:W <- [DW_OP_LLVM_fragment 96 32] $r4
	.loc	1 264 5                         @ ../../../ThirdParty/mbedTLS/library/sha1.c:264:5
	eors	r0, r4
.Ltmp1005:
	ldr	r2, [sp, #112]                  @ 4-byte Reload
.Ltmp1006:
	@DEBUG_VALUE: mbedtls_internal_sha1_process:W <- [DW_OP_LLVM_fragment 288 32] $r2
	eors	r0, r2
.Ltmp1007:
	@DEBUG_VALUE: mbedtls_internal_sha1_process:W <- [DW_OP_plus_uconst 112, DW_OP_LLVM_fragment 288 32] [$sp+0]
	ldr	r2, [sp, #64]                   @ 4-byte Reload
.Ltmp1008:
	@DEBUG_VALUE: mbedtls_internal_sha1_process:W <- [DW_OP_LLVM_fragment 448 32] $r2
	eors	r0, r2
.Ltmp1009:
	@DEBUG_VALUE: mbedtls_internal_sha1_process:temp <- $r0
	@DEBUG_VALUE: mbedtls_internal_sha1_process:W <- [DW_OP_plus_uconst 64, DW_OP_LLVM_fragment 448 32] [$sp+0]
	rors	r0, r5
.Ltmp1010:
	@DEBUG_VALUE: mbedtls_internal_sha1_process:W <- [DW_OP_LLVM_fragment 32 32] $r0
	.loc	1 0 5                           @ ../../../ThirdParty/mbedTLS/library/sha1.c:0:5
	str	r0, [sp, #104]                  @ 4-byte Spill
	.loc	1 264 5                         @ ../../../ThirdParty/mbedTLS/library/sha1.c:264:5
	ldr	r2, [sp, #40]                   @ 4-byte Reload
.Ltmp1011:
	@DEBUG_VALUE: mbedtls_internal_sha1_process:E <- $r2
	adds	r2, r0, r2
.Ltmp1012:
	@DEBUG_VALUE: mbedtls_internal_sha1_process:W <- [DW_OP_plus_uconst 104, DW_OP_LLVM_fragment 32 32] [$sp+0]
	adds	r1, r2, r1
	ldr	r5, [sp, #36]                   @ 4-byte Reload
	mov	r2, r5
	ldr	r0, [sp, #120]                  @ 4-byte Reload
	rors	r2, r0
	adds	r1, r1, r2
	ldr	r0, __arm_cp.5_3
	adds	r2, r1, r0
.Ltmp1013:
	@DEBUG_VALUE: mbedtls_internal_sha1_process:E <- $r2
	.loc	1 266 5 is_stmt 1               @ ../../../ThirdParty/mbedTLS/library/sha1.c:266:5
	eors	r7, r2
	mov	r0, r4
.Ltmp1014:
	@DEBUG_VALUE: mbedtls_internal_sha1_process:W <- [DW_OP_LLVM_fragment 96 32] $r0
	ldr	r1, [sp, #96]                   @ 4-byte Reload
.Ltmp1015:
	@DEBUG_VALUE: mbedtls_internal_sha1_process:W <- [DW_OP_LLVM_fragment 160 32] $r1
	eors	r0, r1
.Ltmp1016:
	@DEBUG_VALUE: mbedtls_internal_sha1_process:W <- [DW_OP_plus_uconst 96, DW_OP_LLVM_fragment 160 32] [$sp+0]
	ldr	r1, [sp, #68]                   @ 4-byte Reload
.Ltmp1017:
	@DEBUG_VALUE: mbedtls_internal_sha1_process:W <- [DW_OP_LLVM_fragment 352 32] $r1
	eors	r0, r1
.Ltmp1018:
	@DEBUG_VALUE: mbedtls_internal_sha1_process:W <- [DW_OP_plus_uconst 68, DW_OP_LLVM_fragment 352 32] [$sp+0]
	ldr	r1, [sp, #108]                  @ 4-byte Reload
.Ltmp1019:
	@DEBUG_VALUE: mbedtls_internal_sha1_process:W <- [DW_OP_LLVM_fragment 0 32] $r1
	eors	r0, r1
.Ltmp1020:
	@DEBUG_VALUE: mbedtls_internal_sha1_process:temp <- $r0
	@DEBUG_VALUE: mbedtls_internal_sha1_process:W <- [DW_OP_plus_uconst 108, DW_OP_LLVM_fragment 0 32] [$sp+0]
	.loc	1 0 5 is_stmt 0                 @ ../../../ThirdParty/mbedTLS/library/sha1.c:0:5
	ldr	r4, [sp, #116]                  @ 4-byte Reload
	.loc	1 266 5                         @ ../../../ThirdParty/mbedTLS/library/sha1.c:266:5
	rors	r0, r4
.Ltmp1021:
	@DEBUG_VALUE: mbedtls_internal_sha1_process:W <- [DW_OP_LLVM_fragment 96 32] $r0
	str	r0, [sp, #60]                   @ 4-byte Spill
.Ltmp1022:
	@DEBUG_VALUE: mbedtls_internal_sha1_process:W <- [DW_OP_plus_uconst 60, DW_OP_LLVM_fragment 96 32] [$sp+0]
	adds	r1, r0, r3
	@DEBUG_VALUE: mbedtls_internal_sha1_process:W <- [DW_OP_plus_uconst 60, DW_OP_LLVM_fragment 96 32] [$sp+0]
	adds	r0, r1, r7
.Ltmp1023:
	.loc	1 265 5 is_stmt 1               @ ../../../ThirdParty/mbedTLS/library/sha1.c:265:5
	str	r0, [sp, #40]                   @ 4-byte Spill
	eors	r3, r6
.Ltmp1024:
	@DEBUG_VALUE: mbedtls_internal_sha1_process:B <- [DW_OP_plus_uconst 32] [$sp+0]
	eors	r3, r5
	ldr	r1, [sp, #72]                   @ 4-byte Reload
.Ltmp1025:
	@DEBUG_VALUE: mbedtls_internal_sha1_process:W <- [DW_OP_LLVM_fragment 64 32] $r1
	.loc	1 0 5 is_stmt 0                 @ ../../../ThirdParty/mbedTLS/library/sha1.c:0:5
	ldr	r5, [sp, #84]                   @ 4-byte Reload
.Ltmp1026:
	@DEBUG_VALUE: mbedtls_internal_sha1_process:W <- [DW_OP_LLVM_fragment 128 32] $r5
	.loc	1 265 5                         @ ../../../ThirdParty/mbedTLS/library/sha1.c:265:5
	eors	r1, r5
.Ltmp1027:
	ldr	r0, [sp, #92]                   @ 4-byte Reload
.Ltmp1028:
	@DEBUG_VALUE: mbedtls_internal_sha1_process:W <- [DW_OP_LLVM_fragment 320 32] $r0
	eors	r1, r0
.Ltmp1029:
	@DEBUG_VALUE: mbedtls_internal_sha1_process:W <- [DW_OP_plus_uconst 92, DW_OP_LLVM_fragment 320 32] [$sp+0]
	ldr	r0, [sp, #52]                   @ 4-byte Reload
.Ltmp1030:
	@DEBUG_VALUE: mbedtls_internal_sha1_process:W <- [DW_OP_LLVM_fragment 480 32] $r0
	eors	r1, r0
.Ltmp1031:
	@DEBUG_VALUE: mbedtls_internal_sha1_process:temp <- $r1
	@DEBUG_VALUE: mbedtls_internal_sha1_process:W <- [DW_OP_plus_uconst 52, DW_OP_LLVM_fragment 480 32] [$sp+0]
	rors	r1, r4
.Ltmp1032:
	@DEBUG_VALUE: mbedtls_internal_sha1_process:W <- [DW_OP_LLVM_fragment 64 32] $r1
	.loc	1 0 5                           @ ../../../ThirdParty/mbedTLS/library/sha1.c:0:5
	str	r1, [sp, #72]                   @ 4-byte Spill
	.loc	1 265 5                         @ ../../../ThirdParty/mbedTLS/library/sha1.c:265:5
	ldr	r0, [sp, #44]                   @ 4-byte Reload
.Ltmp1033:
	@DEBUG_VALUE: mbedtls_internal_sha1_process:D <- $r0
	adds	r1, r1, r0
.Ltmp1034:
	@DEBUG_VALUE: mbedtls_internal_sha1_process:W <- [DW_OP_plus_uconst 72, DW_OP_LLVM_fragment 64 32] [$sp+0]
	@DEBUG_VALUE: mbedtls_internal_sha1_process:W <- [DW_OP_LLVM_fragment 64 32] $r1
	adds	r0, r1, r3
.Ltmp1035:
	mov	r1, r2
.Ltmp1036:
	.loc	1 0 5                           @ ../../../ThirdParty/mbedTLS/library/sha1.c:0:5
	ldr	r7, [sp, #120]                  @ 4-byte Reload
	.loc	1 265 5                         @ ../../../ThirdParty/mbedTLS/library/sha1.c:265:5
	rors	r1, r7
	adds	r0, r0, r1
	ldr	r3, __arm_cp.5_3
	adds	r1, r0, r3
.Ltmp1037:
	@DEBUG_VALUE: mbedtls_internal_sha1_process:D <- $r1
	.loc	1 266 5 is_stmt 1               @ ../../../ThirdParty/mbedTLS/library/sha1.c:266:5
	mov	r0, r1
	rors	r0, r7
	ldr	r4, [sp, #40]                   @ 4-byte Reload
	adds	r0, r4, r0
	adds	r0, r0, r3
.Ltmp1038:
	@DEBUG_VALUE: mbedtls_internal_sha1_process:C <- $r0
	.loc	1 268 5                         @ ../../../ThirdParty/mbedTLS/library/sha1.c:268:5
	mov	r4, r0
	ldr	r3, [sp, #124]                  @ 4-byte Reload
	rors	r4, r3
.Ltmp1039:
	@DEBUG_VALUE: mbedtls_internal_sha1_process:C <- $r4
	.loc	1 0 5 is_stmt 0                 @ ../../../ThirdParty/mbedTLS/library/sha1.c:0:5
	str	r4, [sp, #24]                   @ 4-byte Spill
.Ltmp1040:
	@DEBUG_VALUE: mbedtls_internal_sha1_process:C <- [DW_OP_plus_uconst 24] [$sp+0]
	@DEBUG_VALUE: mbedtls_internal_sha1_process:C <- [DW_OP_plus_uconst 24] [$sp+0]
	.loc	1 267 5 is_stmt 1               @ ../../../ThirdParty/mbedTLS/library/sha1.c:267:5
	mov	r6, r0
	rors	r6, r7
.Ltmp1041:
	@DEBUG_VALUE: mbedtls_internal_sha1_process:E <- $r2
	.loc	1 266 5                         @ ../../../ThirdParty/mbedTLS/library/sha1.c:266:5
	rors	r2, r3
.Ltmp1042:
	@DEBUG_VALUE: mbedtls_internal_sha1_process:E <- $r2
	.loc	1 0 5 is_stmt 0                 @ ../../../ThirdParty/mbedTLS/library/sha1.c:0:5
	str	r2, [sp, #44]                   @ 4-byte Spill
.Ltmp1043:
	@DEBUG_VALUE: mbedtls_internal_sha1_process:E <- [DW_OP_plus_uconst 44] [$sp+0]
	.loc	1 267 5 is_stmt 1               @ ../../../ThirdParty/mbedTLS/library/sha1.c:267:5
	mov	r3, r2
	@DEBUG_VALUE: mbedtls_internal_sha1_process:E <- [DW_OP_plus_uconst 44] [$sp+0]
	ldr	r2, [sp, #48]                   @ 4-byte Reload
.Ltmp1044:
	@DEBUG_VALUE: mbedtls_internal_sha1_process:A <- $r2
	eors	r3, r2
.Ltmp1045:
	@DEBUG_VALUE: mbedtls_internal_sha1_process:A <- [DW_OP_plus_uconst 48] [$sp+0]
	eors	r3, r1
.Ltmp1046:
	@DEBUG_VALUE: mbedtls_internal_sha1_process:W <- [DW_OP_LLVM_fragment 128 32] $r5
	ldr	r4, [sp, #76]                   @ 4-byte Reload
.Ltmp1047:
	@DEBUG_VALUE: mbedtls_internal_sha1_process:W <- [DW_OP_LLVM_fragment 192 32] $r4
	eors	r5, r4
.Ltmp1048:
	@DEBUG_VALUE: mbedtls_internal_sha1_process:W <- [DW_OP_plus_uconst 76, DW_OP_LLVM_fragment 192 32] [$sp+0]
	ldr	r4, [sp, #100]                  @ 4-byte Reload
.Ltmp1049:
	@DEBUG_VALUE: mbedtls_internal_sha1_process:W <- [DW_OP_LLVM_fragment 384 32] $r4
	eors	r5, r4
.Ltmp1050:
	@DEBUG_VALUE: mbedtls_internal_sha1_process:W <- [DW_OP_plus_uconst 100, DW_OP_LLVM_fragment 384 32] [$sp+0]
	ldr	r4, [sp, #104]                  @ 4-byte Reload
.Ltmp1051:
	@DEBUG_VALUE: mbedtls_internal_sha1_process:W <- [DW_OP_LLVM_fragment 32 32] $r4
	eors	r5, r4
.Ltmp1052:
	@DEBUG_VALUE: mbedtls_internal_sha1_process:temp <- $r5
	@DEBUG_VALUE: mbedtls_internal_sha1_process:W <- [DW_OP_plus_uconst 104, DW_OP_LLVM_fragment 32 32] [$sp+0]
	.loc	1 0 5 is_stmt 0                 @ ../../../ThirdParty/mbedTLS/library/sha1.c:0:5
	ldr	r2, [sp, #116]                  @ 4-byte Reload
	.loc	1 267 5                         @ ../../../ThirdParty/mbedTLS/library/sha1.c:267:5
	rors	r5, r2
.Ltmp1053:
	@DEBUG_VALUE: mbedtls_internal_sha1_process:W <- [DW_OP_LLVM_fragment 128 32] $r5
	str	r5, [sp, #84]                   @ 4-byte Spill
	ldr	r4, [sp, #32]                   @ 4-byte Reload
.Ltmp1054:
	@DEBUG_VALUE: mbedtls_internal_sha1_process:B <- $r4
	adds	r5, r5, r4
.Ltmp1055:
	@DEBUG_VALUE: mbedtls_internal_sha1_process:W <- [DW_OP_plus_uconst 84, DW_OP_LLVM_fragment 128 32] [$sp+0]
	@DEBUG_VALUE: mbedtls_internal_sha1_process:W <- [DW_OP_LLVM_fragment 128 32] $r5
	adds	r3, r5, r3
	adds	r3, r3, r6
	ldr	r4, __arm_cp.5_3
.Ltmp1056:
	adds	r7, r3, r4
.Ltmp1057:
	@DEBUG_VALUE: mbedtls_internal_sha1_process:B <- $r7
	.loc	1 269 5 is_stmt 1               @ ../../../ThirdParty/mbedTLS/library/sha1.c:269:5
	str	r7, [sp, #36]                   @ 4-byte Spill
.Ltmp1058:
	@DEBUG_VALUE: mbedtls_internal_sha1_process:B <- [DW_OP_plus_uconst 36] [$sp+0]
	.loc	1 0 5 is_stmt 0                 @ ../../../ThirdParty/mbedTLS/library/sha1.c:0:5
	ldr	r3, [sp, #124]                  @ 4-byte Reload
	.loc	1 269 5                         @ ../../../ThirdParty/mbedTLS/library/sha1.c:269:5
	rors	r7, r3
.Ltmp1059:
	@DEBUG_VALUE: mbedtls_internal_sha1_process:B <- $r7
	.loc	1 270 5 is_stmt 1               @ ../../../ThirdParty/mbedTLS/library/sha1.c:270:5
	str	r7, [sp, #40]                   @ 4-byte Spill
.Ltmp1060:
	@DEBUG_VALUE: mbedtls_internal_sha1_process:B <- [DW_OP_plus_uconst 40] [$sp+0]
	.loc	1 0 5 is_stmt 0                 @ ../../../ThirdParty/mbedTLS/library/sha1.c:0:5
	ldr	r6, [sp, #24]                   @ 4-byte Reload
.Ltmp1061:
	@DEBUG_VALUE: mbedtls_internal_sha1_process:C <- $r6
	.loc	1 270 5                         @ ../../../ThirdParty/mbedTLS/library/sha1.c:270:5
	eors	r7, r6
.Ltmp1062:
	.loc	1 267 5 is_stmt 1               @ ../../../ThirdParty/mbedTLS/library/sha1.c:267:5
	rors	r1, r3
.Ltmp1063:
	@DEBUG_VALUE: mbedtls_internal_sha1_process:D <- $r1
	.loc	1 268 5                         @ ../../../ThirdParty/mbedTLS/library/sha1.c:268:5
	mov	r3, r1
	ldr	r4, [sp, #44]                   @ 4-byte Reload
.Ltmp1064:
	@DEBUG_VALUE: mbedtls_internal_sha1_process:E <- $r4
	eors	r3, r4
.Ltmp1065:
	@DEBUG_VALUE: mbedtls_internal_sha1_process:E <- [DW_OP_plus_uconst 44] [$sp+0]
	eors	r3, r0
	ldr	r0, [sp, #96]                   @ 4-byte Reload
.Ltmp1066:
	@DEBUG_VALUE: mbedtls_internal_sha1_process:W <- [DW_OP_LLVM_fragment 160 32] $r0
	.loc	1 0 5 is_stmt 0                 @ ../../../ThirdParty/mbedTLS/library/sha1.c:0:5
	ldr	r4, [sp, #56]                   @ 4-byte Reload
.Ltmp1067:
	@DEBUG_VALUE: mbedtls_internal_sha1_process:W <- [DW_OP_LLVM_fragment 224 32] $r4
	.loc	1 268 5                         @ ../../../ThirdParty/mbedTLS/library/sha1.c:268:5
	eors	r0, r4
.Ltmp1068:
	ldr	r5, [sp, #88]                   @ 4-byte Reload
.Ltmp1069:
	@DEBUG_VALUE: mbedtls_internal_sha1_process:W <- [DW_OP_LLVM_fragment 416 32] $r5
	eors	r0, r5
.Ltmp1070:
	@DEBUG_VALUE: mbedtls_internal_sha1_process:W <- [DW_OP_plus_uconst 88, DW_OP_LLVM_fragment 416 32] [$sp+0]
	ldr	r5, [sp, #72]                   @ 4-byte Reload
.Ltmp1071:
	@DEBUG_VALUE: mbedtls_internal_sha1_process:W <- [DW_OP_LLVM_fragment 64 32] $r5
	eors	r0, r5
.Ltmp1072:
	@DEBUG_VALUE: mbedtls_internal_sha1_process:temp <- $r0
	@DEBUG_VALUE: mbedtls_internal_sha1_process:W <- [DW_OP_plus_uconst 72, DW_OP_LLVM_fragment 64 32] [$sp+0]
	rors	r0, r2
.Ltmp1073:
	@DEBUG_VALUE: mbedtls_internal_sha1_process:W <- [DW_OP_LLVM_fragment 160 32] $r0
	@DEBUG_VALUE: mbedtls_internal_sha1_process:W <- [DW_OP_LLVM_fragment 160 32] $r0
	str	r0, [sp, #96]                   @ 4-byte Spill
	ldr	r5, [sp, #48]                   @ 4-byte Reload
.Ltmp1074:
	@DEBUG_VALUE: mbedtls_internal_sha1_process:A <- $r5
	adds	r0, r0, r5
.Ltmp1075:
	@DEBUG_VALUE: mbedtls_internal_sha1_process:W <- [DW_OP_plus_uconst 96, DW_OP_LLVM_fragment 160 32] [$sp+0]
	@DEBUG_VALUE: mbedtls_internal_sha1_process:W <- [DW_OP_LLVM_fragment 160 32] $r0
	adds	r0, r0, r3
.Ltmp1076:
	.loc	1 0 5                           @ ../../../ThirdParty/mbedTLS/library/sha1.c:0:5
	ldr	r2, [sp, #36]                   @ 4-byte Reload
	.loc	1 268 5                         @ ../../../ThirdParty/mbedTLS/library/sha1.c:268:5
	mov	r3, r2
	ldr	r5, [sp, #120]                  @ 4-byte Reload
.Ltmp1077:
	rors	r3, r5
	adds	r0, r0, r3
	ldr	r3, __arm_cp.5_3
	adds	r5, r0, r3
.Ltmp1078:
	@DEBUG_VALUE: mbedtls_internal_sha1_process:A <- $r5
	.loc	1 270 5 is_stmt 1               @ ../../../ThirdParty/mbedTLS/library/sha1.c:270:5
	eors	r7, r5
	mov	r3, r4
.Ltmp1079:
	@DEBUG_VALUE: mbedtls_internal_sha1_process:W <- [DW_OP_LLVM_fragment 224 32] $r3
	ldr	r4, [sp, #112]                  @ 4-byte Reload
.Ltmp1080:
	@DEBUG_VALUE: mbedtls_internal_sha1_process:W <- [DW_OP_LLVM_fragment 288 32] $r4
	eors	r3, r4
.Ltmp1081:
	@DEBUG_VALUE: mbedtls_internal_sha1_process:W <- [DW_OP_plus_uconst 112, DW_OP_LLVM_fragment 288 32] [$sp+0]
	ldr	r4, [sp, #52]                   @ 4-byte Reload
.Ltmp1082:
	@DEBUG_VALUE: mbedtls_internal_sha1_process:W <- [DW_OP_LLVM_fragment 480 32] $r4
	eors	r3, r4
.Ltmp1083:
	@DEBUG_VALUE: mbedtls_internal_sha1_process:W <- [DW_OP_plus_uconst 52, DW_OP_LLVM_fragment 480 32] [$sp+0]
	ldr	r0, [sp, #84]                   @ 4-byte Reload
.Ltmp1084:
	@DEBUG_VALUE: mbedtls_internal_sha1_process:W <- [DW_OP_LLVM_fragment 128 32] $r0
	eors	r3, r0
.Ltmp1085:
	@DEBUG_VALUE: mbedtls_internal_sha1_process:temp <- $r3
	@DEBUG_VALUE: mbedtls_internal_sha1_process:W <- [DW_OP_plus_uconst 84, DW_OP_LLVM_fragment 128 32] [$sp+0]
	.loc	1 0 5 is_stmt 0                 @ ../../../ThirdParty/mbedTLS/library/sha1.c:0:5
	ldr	r0, [sp, #116]                  @ 4-byte Reload
	.loc	1 270 5                         @ ../../../ThirdParty/mbedTLS/library/sha1.c:270:5
	rors	r3, r0
.Ltmp1086:
	@DEBUG_VALUE: mbedtls_internal_sha1_process:W <- [DW_OP_LLVM_fragment 224 32] $r3
	@DEBUG_VALUE: mbedtls_internal_sha1_process:W <- [DW_OP_LLVM_fragment 224 32] $r3
	str	r3, [sp, #56]                   @ 4-byte Spill
.Ltmp1087:
	@DEBUG_VALUE: mbedtls_internal_sha1_process:W <- [DW_OP_plus_uconst 56, DW_OP_LLVM_fragment 224 32] [$sp+0]
	adds	r3, r3, r1
	@DEBUG_VALUE: mbedtls_internal_sha1_process:W <- [DW_OP_plus_uconst 56, DW_OP_LLVM_fragment 224 32] [$sp+0]
.Ltmp1088:
	@DEBUG_VALUE: mbedtls_internal_sha1_process:W <- [DW_OP_LLVM_fragment 224 32] $r3
	adds	r3, r3, r7
.Ltmp1089:
	.loc	1 269 5 is_stmt 1               @ ../../../ThirdParty/mbedTLS/library/sha1.c:269:5
	eors	r1, r6
.Ltmp1090:
	@DEBUG_VALUE: mbedtls_internal_sha1_process:C <- [DW_OP_plus_uconst 24] [$sp+0]
	eors	r1, r2
	ldr	r6, [sp, #76]                   @ 4-byte Reload
.Ltmp1091:
	@DEBUG_VALUE: mbedtls_internal_sha1_process:W <- [DW_OP_LLVM_fragment 192 32] $r6
	.loc	1 0 5 is_stmt 0                 @ ../../../ThirdParty/mbedTLS/library/sha1.c:0:5
	ldr	r4, [sp, #80]                   @ 4-byte Reload
.Ltmp1092:
	@DEBUG_VALUE: mbedtls_internal_sha1_process:W <- [DW_OP_LLVM_fragment 256 32] $r4
	.loc	1 269 5                         @ ../../../ThirdParty/mbedTLS/library/sha1.c:269:5
	eors	r6, r4
.Ltmp1093:
	ldr	r7, [sp, #64]                   @ 4-byte Reload
.Ltmp1094:
	@DEBUG_VALUE: mbedtls_internal_sha1_process:W <- [DW_OP_LLVM_fragment 448 32] $r7
	eors	r6, r7
.Ltmp1095:
	@DEBUG_VALUE: mbedtls_internal_sha1_process:W <- [DW_OP_plus_uconst 64, DW_OP_LLVM_fragment 448 32] [$sp+0]
	ldr	r7, [sp, #60]                   @ 4-byte Reload
.Ltmp1096:
	@DEBUG_VALUE: mbedtls_internal_sha1_process:W <- [DW_OP_LLVM_fragment 96 32] $r7
	eors	r6, r7
.Ltmp1097:
	@DEBUG_VALUE: mbedtls_internal_sha1_process:temp <- $r6
	@DEBUG_VALUE: mbedtls_internal_sha1_process:W <- [DW_OP_plus_uconst 60, DW_OP_LLVM_fragment 96 32] [$sp+0]
	rors	r6, r0
.Ltmp1098:
	@DEBUG_VALUE: mbedtls_internal_sha1_process:W <- [DW_OP_LLVM_fragment 192 32] $r6
	.loc	1 0 5                           @ ../../../ThirdParty/mbedTLS/library/sha1.c:0:5
	str	r6, [sp, #76]                   @ 4-byte Spill
	.loc	1 269 5                         @ ../../../ThirdParty/mbedTLS/library/sha1.c:269:5
	ldr	r0, [sp, #44]                   @ 4-byte Reload
.Ltmp1099:
	@DEBUG_VALUE: mbedtls_internal_sha1_process:E <- $r0
	adds	r2, r6, r0
.Ltmp1100:
	@DEBUG_VALUE: mbedtls_internal_sha1_process:W <- [DW_OP_plus_uconst 76, DW_OP_LLVM_fragment 192 32] [$sp+0]
	adds	r1, r2, r1
	mov	r2, r5
	ldr	r7, [sp, #120]                  @ 4-byte Reload
	rors	r2, r7
	adds	r1, r1, r2
	ldr	r0, __arm_cp.5_3
.Ltmp1101:
	adds	r1, r1, r0
.Ltmp1102:
	@DEBUG_VALUE: mbedtls_internal_sha1_process:E <- $r1
	.loc	1 270 5 is_stmt 1               @ ../../../ThirdParty/mbedTLS/library/sha1.c:270:5
	mov	r2, r1
	rors	r2, r7
	adds	r2, r3, r2
	adds	r2, r2, r0
.Ltmp1103:
	@DEBUG_VALUE: mbedtls_internal_sha1_process:D <- $r2
	.loc	1 272 5                         @ ../../../ThirdParty/mbedTLS/library/sha1.c:272:5
	mov	r0, r2
	ldr	r6, [sp, #124]                  @ 4-byte Reload
	rors	r0, r6
.Ltmp1104:
	@DEBUG_VALUE: mbedtls_internal_sha1_process:D <- $r0
	.loc	1 0 5 is_stmt 0                 @ ../../../ThirdParty/mbedTLS/library/sha1.c:0:5
	str	r0, [sp, #48]                   @ 4-byte Spill
.Ltmp1105:
	@DEBUG_VALUE: mbedtls_internal_sha1_process:D <- [DW_OP_plus_uconst 48] [$sp+0]
	@DEBUG_VALUE: mbedtls_internal_sha1_process:D <- [DW_OP_plus_uconst 48] [$sp+0]
	.loc	1 271 5 is_stmt 1               @ ../../../ThirdParty/mbedTLS/library/sha1.c:271:5
	mov	r3, r2
	rors	r3, r7
	mov	r0, r5
.Ltmp1106:
	@DEBUG_VALUE: mbedtls_internal_sha1_process:A <- $r0
	.loc	1 270 5                         @ ../../../ThirdParty/mbedTLS/library/sha1.c:270:5
	rors	r0, r6
.Ltmp1107:
	@DEBUG_VALUE: mbedtls_internal_sha1_process:A <- $r0
	.loc	1 0 5 is_stmt 0                 @ ../../../ThirdParty/mbedTLS/library/sha1.c:0:5
	str	r0, [sp, #36]                   @ 4-byte Spill
	mov	r5, r6
.Ltmp1108:
	.loc	1 271 5 is_stmt 1               @ ../../../ThirdParty/mbedTLS/library/sha1.c:271:5
	mov	r6, r0
.Ltmp1109:
	@DEBUG_VALUE: mbedtls_internal_sha1_process:A <- $r6
	@DEBUG_VALUE: mbedtls_internal_sha1_process:A <- [DW_OP_plus_uconst 36] [$sp+0]
	ldr	r0, [sp, #40]                   @ 4-byte Reload
.Ltmp1110:
	@DEBUG_VALUE: mbedtls_internal_sha1_process:B <- $r0
	eors	r6, r0
.Ltmp1111:
	@DEBUG_VALUE: mbedtls_internal_sha1_process:B <- [DW_OP_plus_uconst 40] [$sp+0]
	eors	r6, r1
	mov	r7, r4
.Ltmp1112:
	@DEBUG_VALUE: mbedtls_internal_sha1_process:W <- [DW_OP_LLVM_fragment 256 32] $r7
	@DEBUG_VALUE: mbedtls_internal_sha1_process:W <- [DW_OP_LLVM_fragment 256 32] $r7
	ldr	r4, [sp, #92]                   @ 4-byte Reload
.Ltmp1113:
	@DEBUG_VALUE: mbedtls_internal_sha1_process:W <- [DW_OP_LLVM_fragment 320 32] $r4
	eors	r7, r4
.Ltmp1114:
	@DEBUG_VALUE: mbedtls_internal_sha1_process:W <- [DW_OP_plus_uconst 92, DW_OP_LLVM_fragment 320 32] [$sp+0]
	ldr	r0, [sp, #108]                  @ 4-byte Reload
.Ltmp1115:
	@DEBUG_VALUE: mbedtls_internal_sha1_process:W <- [DW_OP_LLVM_fragment 0 32] $r0
	eors	r7, r0
.Ltmp1116:
	@DEBUG_VALUE: mbedtls_internal_sha1_process:W <- [DW_OP_plus_uconst 108, DW_OP_LLVM_fragment 0 32] [$sp+0]
	ldr	r0, [sp, #96]                   @ 4-byte Reload
.Ltmp1117:
	@DEBUG_VALUE: mbedtls_internal_sha1_process:W <- [DW_OP_LLVM_fragment 160 32] $r0
	eors	r7, r0
.Ltmp1118:
	@DEBUG_VALUE: mbedtls_internal_sha1_process:temp <- $r7
	@DEBUG_VALUE: mbedtls_internal_sha1_process:W <- [DW_OP_plus_uconst 96, DW_OP_LLVM_fragment 160 32] [$sp+0]
	ldr	r0, [sp, #116]                  @ 4-byte Reload
.Ltmp1119:
	@DEBUG_VALUE: mbedtls_internal_sha1_process:W <- [DW_OP_LLVM_fragment 160 32] undef
	rors	r7, r0
.Ltmp1120:
	@DEBUG_VALUE: mbedtls_internal_sha1_process:W <- [DW_OP_LLVM_fragment 256 32] $r7
	str	r7, [sp, #80]                   @ 4-byte Spill
	ldr	r0, [sp, #24]                   @ 4-byte Reload
.Ltmp1121:
	@DEBUG_VALUE: mbedtls_internal_sha1_process:C <- $r0
	adds	r4, r7, r0
.Ltmp1122:
	@DEBUG_VALUE: mbedtls_internal_sha1_process:W <- [DW_OP_plus_uconst 80, DW_OP_LLVM_fragment 256 32] [$sp+0]
	adds	r4, r4, r6
	adds	r3, r4, r3
	ldr	r0, __arm_cp.5_3
.Ltmp1123:
	adds	r6, r3, r0
.Ltmp1124:
	@DEBUG_VALUE: mbedtls_internal_sha1_process:C <- $r6
	.loc	1 273 5                         @ ../../../ThirdParty/mbedTLS/library/sha1.c:273:5
	mov	r7, r6
	rors	r7, r5
.Ltmp1125:
	@DEBUG_VALUE: mbedtls_internal_sha1_process:C <- $r7
	.loc	1 274 5                         @ ../../../ThirdParty/mbedTLS/library/sha1.c:274:5
	str	r7, [sp, #44]                   @ 4-byte Spill
	ldr	r0, [sp, #48]                   @ 4-byte Reload
.Ltmp1126:
	@DEBUG_VALUE: mbedtls_internal_sha1_process:D <- $r0
	@DEBUG_VALUE: mbedtls_internal_sha1_process:C <- [DW_OP_plus_uconst 44] [$sp+0]
	eors	r7, r0
.Ltmp1127:
	@DEBUG_VALUE: mbedtls_internal_sha1_process:D <- [DW_OP_plus_uconst 48] [$sp+0]
	.loc	1 271 5                         @ ../../../ThirdParty/mbedTLS/library/sha1.c:271:5
	rors	r1, r5
.Ltmp1128:
	@DEBUG_VALUE: mbedtls_internal_sha1_process:E <- $r1
	.loc	1 272 5                         @ ../../../ThirdParty/mbedTLS/library/sha1.c:272:5
	mov	r4, r1
	ldr	r0, [sp, #36]                   @ 4-byte Reload
.Ltmp1129:
	@DEBUG_VALUE: mbedtls_internal_sha1_process:A <- $r0
	eors	r4, r0
.Ltmp1130:
	@DEBUG_VALUE: mbedtls_internal_sha1_process:A <- [DW_OP_plus_uconst 36] [$sp+0]
	eors	r4, r2
	ldr	r2, [sp, #112]                  @ 4-byte Reload
.Ltmp1131:
	@DEBUG_VALUE: mbedtls_internal_sha1_process:W <- [DW_OP_LLVM_fragment 288 32] $r2
	.loc	1 0 5 is_stmt 0                 @ ../../../ThirdParty/mbedTLS/library/sha1.c:0:5
	ldr	r0, [sp, #68]                   @ 4-byte Reload
.Ltmp1132:
	@DEBUG_VALUE: mbedtls_internal_sha1_process:W <- [DW_OP_LLVM_fragment 352 32] $r0
	.loc	1 272 5                         @ ../../../ThirdParty/mbedTLS/library/sha1.c:272:5
	eors	r2, r0
.Ltmp1133:
	ldr	r3, [sp, #104]                  @ 4-byte Reload
.Ltmp1134:
	@DEBUG_VALUE: mbedtls_internal_sha1_process:W <- [DW_OP_LLVM_fragment 32 32] $r3
	eors	r2, r3
.Ltmp1135:
	@DEBUG_VALUE: mbedtls_internal_sha1_process:W <- [DW_OP_plus_uconst 104, DW_OP_LLVM_fragment 32 32] [$sp+0]
	ldr	r3, [sp, #76]                   @ 4-byte Reload
.Ltmp1136:
	@DEBUG_VALUE: mbedtls_internal_sha1_process:W <- [DW_OP_LLVM_fragment 192 32] $r3
	eors	r2, r3
.Ltmp1137:
	@DEBUG_VALUE: mbedtls_internal_sha1_process:temp <- $r2
	@DEBUG_VALUE: mbedtls_internal_sha1_process:W <- [DW_OP_plus_uconst 76, DW_OP_LLVM_fragment 192 32] [$sp+0]
	.loc	1 0 5                           @ ../../../ThirdParty/mbedTLS/library/sha1.c:0:5
	ldr	r5, [sp, #116]                  @ 4-byte Reload
	.loc	1 272 5                         @ ../../../ThirdParty/mbedTLS/library/sha1.c:272:5
	rors	r2, r5
.Ltmp1138:
	@DEBUG_VALUE: mbedtls_internal_sha1_process:W <- [DW_OP_LLVM_fragment 288 32] $r2
	.loc	1 0 5                           @ ../../../ThirdParty/mbedTLS/library/sha1.c:0:5
	mov	r3, r2
.Ltmp1139:
	@DEBUG_VALUE: mbedtls_internal_sha1_process:W <- [DW_OP_LLVM_fragment 288 32] $r3
	.loc	1 272 5                         @ ../../../ThirdParty/mbedTLS/library/sha1.c:272:5
	str	r2, [sp, #112]                  @ 4-byte Spill
	ldr	r2, [sp, #40]                   @ 4-byte Reload
.Ltmp1140:
	@DEBUG_VALUE: mbedtls_internal_sha1_process:B <- $r2
	adds	r2, r3, r2
.Ltmp1141:
	@DEBUG_VALUE: mbedtls_internal_sha1_process:W <- [DW_OP_plus_uconst 112, DW_OP_LLVM_fragment 288 32] [$sp+0]
	adds	r2, r2, r4
	mov	r4, r6
	ldr	r3, [sp, #120]                  @ 4-byte Reload
	rors	r4, r3
	adds	r2, r2, r4
	ldr	r3, __arm_cp.5_3
	adds	r2, r2, r3
.Ltmp1142:
	@DEBUG_VALUE: mbedtls_internal_sha1_process:B <- $r2
	.loc	1 274 5 is_stmt 1               @ ../../../ThirdParty/mbedTLS/library/sha1.c:274:5
	eors	r7, r2
	mov	r3, r2
.Ltmp1143:
	@DEBUG_VALUE: mbedtls_internal_sha1_process:B <- $r3
	.loc	1 0 5 is_stmt 0                 @ ../../../ThirdParty/mbedTLS/library/sha1.c:0:5
	mov	r2, r0
.Ltmp1144:
	@DEBUG_VALUE: mbedtls_internal_sha1_process:W <- [DW_OP_LLVM_fragment 352 32] $r2
	.loc	1 274 5                         @ ../../../ThirdParty/mbedTLS/library/sha1.c:274:5
	ldr	r0, [sp, #88]                   @ 4-byte Reload
.Ltmp1145:
	@DEBUG_VALUE: mbedtls_internal_sha1_process:W <- [DW_OP_LLVM_fragment 416 32] undef
	eors	r2, r0
.Ltmp1146:
	@DEBUG_VALUE: mbedtls_internal_sha1_process:W <- [DW_OP_plus_uconst 88, DW_OP_LLVM_fragment 416 32] [$sp+0]
	ldr	r0, [sp, #60]                   @ 4-byte Reload
.Ltmp1147:
	@DEBUG_VALUE: mbedtls_internal_sha1_process:W <- [DW_OP_LLVM_fragment 96 32] $r0
	eors	r2, r0
	ldr	r0, [sp, #80]                   @ 4-byte Reload
.Ltmp1148:
	@DEBUG_VALUE: mbedtls_internal_sha1_process:W <- [DW_OP_LLVM_fragment 256 32] $r0
	eors	r2, r0
.Ltmp1149:
	@DEBUG_VALUE: mbedtls_internal_sha1_process:temp <- $r2
	rors	r2, r5
.Ltmp1150:
	@DEBUG_VALUE: mbedtls_internal_sha1_process:W <- [DW_OP_LLVM_fragment 352 32] $r2
	@DEBUG_VALUE: mbedtls_internal_sha1_process:W <- [DW_OP_LLVM_fragment 352 32] $r2
	str	r2, [sp, #68]                   @ 4-byte Spill
.Ltmp1151:
	@DEBUG_VALUE: mbedtls_internal_sha1_process:W <- [DW_OP_plus_uconst 68, DW_OP_LLVM_fragment 352 32] [$sp+0]
	adds	r2, r2, r1
	@DEBUG_VALUE: mbedtls_internal_sha1_process:W <- [DW_OP_plus_uconst 68, DW_OP_LLVM_fragment 352 32] [$sp+0]
.Ltmp1152:
	@DEBUG_VALUE: mbedtls_internal_sha1_process:W <- [DW_OP_LLVM_fragment 352 32] $r2
	adds	r2, r2, r7
.Ltmp1153:
	.loc	1 273 5 is_stmt 1               @ ../../../ThirdParty/mbedTLS/library/sha1.c:273:5
	ldr	r0, [sp, #48]                   @ 4-byte Reload
.Ltmp1154:
	@DEBUG_VALUE: mbedtls_internal_sha1_process:D <- undef
	eors	r1, r0
.Ltmp1155:
	@DEBUG_VALUE: mbedtls_internal_sha1_process:D <- [DW_OP_plus_uconst 48] [$sp+0]
	eors	r1, r6
	ldr	r4, [sp, #92]                   @ 4-byte Reload
.Ltmp1156:
	@DEBUG_VALUE: mbedtls_internal_sha1_process:W <- [DW_OP_LLVM_fragment 320 32] $r4
	ldr	r0, [sp, #100]                  @ 4-byte Reload
.Ltmp1157:
	@DEBUG_VALUE: mbedtls_internal_sha1_process:W <- [DW_OP_LLVM_fragment 384 32] undef
	eors	r4, r0
.Ltmp1158:
	@DEBUG_VALUE: mbedtls_internal_sha1_process:W <- [DW_OP_plus_uconst 100, DW_OP_LLVM_fragment 384 32] [$sp+0]
	ldr	r0, [sp, #72]                   @ 4-byte Reload
.Ltmp1159:
	@DEBUG_VALUE: mbedtls_internal_sha1_process:W <- [DW_OP_LLVM_fragment 64 32] $r0
	eors	r4, r0
	ldr	r0, [sp, #56]                   @ 4-byte Reload
.Ltmp1160:
	@DEBUG_VALUE: mbedtls_internal_sha1_process:W <- [DW_OP_LLVM_fragment 224 32] $r0
	eors	r4, r0
.Ltmp1161:
	@DEBUG_VALUE: mbedtls_internal_sha1_process:temp <- $r4
	@DEBUG_VALUE: mbedtls_internal_sha1_process:W <- [DW_OP_plus_uconst 56, DW_OP_LLVM_fragment 224 32] [$sp+0]
	rors	r4, r5
.Ltmp1162:
	@DEBUG_VALUE: mbedtls_internal_sha1_process:W <- [DW_OP_LLVM_fragment 320 32] $r4
	.loc	1 0 5 is_stmt 0                 @ ../../../ThirdParty/mbedTLS/library/sha1.c:0:5
	str	r4, [sp, #92]                   @ 4-byte Spill
	.loc	1 273 5                         @ ../../../ThirdParty/mbedTLS/library/sha1.c:273:5
	ldr	r0, [sp, #36]                   @ 4-byte Reload
.Ltmp1163:
	@DEBUG_VALUE: mbedtls_internal_sha1_process:A <- $r0
	adds	r0, r4, r0
.Ltmp1164:
	@DEBUG_VALUE: mbedtls_internal_sha1_process:W <- [DW_OP_plus_uconst 92, DW_OP_LLVM_fragment 320 32] [$sp+0]
	adds	r0, r0, r1
	mov	r7, r3
.Ltmp1165:
	@DEBUG_VALUE: mbedtls_internal_sha1_process:B <- $r7
	mov	r1, r3
	ldr	r5, [sp, #120]                  @ 4-byte Reload
	rors	r1, r5
	adds	r0, r0, r1
	ldr	r3, __arm_cp.5_3
	adds	r1, r0, r3
.Ltmp1166:
	@DEBUG_VALUE: mbedtls_internal_sha1_process:A <- $r1
	.loc	1 274 5 is_stmt 1               @ ../../../ThirdParty/mbedTLS/library/sha1.c:274:5
	str	r1, [sp, #80]                   @ 4-byte Spill
.Ltmp1167:
	@DEBUG_VALUE: mbedtls_internal_sha1_process:A <- [DW_OP_plus_uconst 80] [$sp+0]
	rors	r1, r5
	adds	r1, r2, r1
	adds	r3, r1, r3
.Ltmp1168:
	@DEBUG_VALUE: mbedtls_internal_sha1_process:E <- $r3
	.loc	1 276 5                         @ ../../../ThirdParty/mbedTLS/library/sha1.c:276:5
	mov	r1, r3
	@DEBUG_VALUE: mbedtls_internal_sha1_process:E <- $r3
	ldr	r6, [sp, #124]                  @ 4-byte Reload
	rors	r1, r6
.Ltmp1169:
	@DEBUG_VALUE: mbedtls_internal_sha1_process:E <- $r1
	.loc	1 287 19                        @ ../../../ThirdParty/mbedTLS/library/sha1.c:287:19
	str	r1, [sp, #72]                   @ 4-byte Spill
	ldr	r0, [sp, #8]                    @ 4-byte Reload
	adds	r2, r1, r0
.Ltmp1170:
	@DEBUG_VALUE: mbedtls_internal_sha1_process:E <- [DW_OP_plus_uconst 72] [$sp+0]
	.loc	1 0 19 is_stmt 0                @ ../../../ThirdParty/mbedTLS/library/sha1.c:0:19
	ldr	r4, [sp, #4]                    @ 4-byte Reload
.Ltmp1171:
	@DEBUG_VALUE: mbedtls_internal_sha1_process:ctx <- $r4
	.loc	1 287 19                        @ ../../../ThirdParty/mbedTLS/library/sha1.c:287:19
	str	r2, [r4, #24]
.Ltmp1172:
	.loc	1 275 5 is_stmt 1               @ ../../../ThirdParty/mbedTLS/library/sha1.c:275:5
	mov	r2, r3
	rors	r2, r5
.Ltmp1173:
	@DEBUG_VALUE: mbedtls_internal_sha1_process:B <- $r7
	.loc	1 274 5                         @ ../../../ThirdParty/mbedTLS/library/sha1.c:274:5
	rors	r7, r6
.Ltmp1174:
	@DEBUG_VALUE: mbedtls_internal_sha1_process:B <- $r7
	.loc	1 0 5 is_stmt 0                 @ ../../../ThirdParty/mbedTLS/library/sha1.c:0:5
	str	r7, [sp, #60]                   @ 4-byte Spill
.Ltmp1175:
	@DEBUG_VALUE: mbedtls_internal_sha1_process:B <- [DW_OP_plus_uconst 60] [$sp+0]
	.loc	1 275 5 is_stmt 1               @ ../../../ThirdParty/mbedTLS/library/sha1.c:275:5
	mov	r6, r7
	@DEBUG_VALUE: mbedtls_internal_sha1_process:B <- [DW_OP_plus_uconst 60] [$sp+0]
	ldr	r0, [sp, #44]                   @ 4-byte Reload
.Ltmp1176:
	@DEBUG_VALUE: mbedtls_internal_sha1_process:C <- $r0
	eors	r6, r0
.Ltmp1177:
	@DEBUG_VALUE: mbedtls_internal_sha1_process:C <- [DW_OP_plus_uconst 44] [$sp+0]
	.loc	1 0 5 is_stmt 0                 @ ../../../ThirdParty/mbedTLS/library/sha1.c:0:5
	ldr	r5, [sp, #80]                   @ 4-byte Reload
.Ltmp1178:
	@DEBUG_VALUE: mbedtls_internal_sha1_process:A <- $r5
	.loc	1 275 5                         @ ../../../ThirdParty/mbedTLS/library/sha1.c:275:5
	eors	r6, r5
	ldr	r0, [sp, #100]                  @ 4-byte Reload
.Ltmp1179:
	@DEBUG_VALUE: mbedtls_internal_sha1_process:W <- [DW_OP_LLVM_fragment 384 32] $r0
	ldr	r7, [sp, #64]                   @ 4-byte Reload
.Ltmp1180:
	@DEBUG_VALUE: mbedtls_internal_sha1_process:W <- [DW_OP_LLVM_fragment 448 32] $r7
	eors	r0, r7
.Ltmp1181:
	@DEBUG_VALUE: mbedtls_internal_sha1_process:W <- [DW_OP_plus_uconst 64, DW_OP_LLVM_fragment 448 32] [$sp+0]
	ldr	r7, [sp, #84]                   @ 4-byte Reload
.Ltmp1182:
	@DEBUG_VALUE: mbedtls_internal_sha1_process:W <- [DW_OP_LLVM_fragment 128 32] $r7
	eors	r0, r7
	ldr	r1, [sp, #112]                  @ 4-byte Reload
.Ltmp1183:
	@DEBUG_VALUE: mbedtls_internal_sha1_process:W <- [DW_OP_LLVM_fragment 288 32] $r1
	eors	r0, r1
.Ltmp1184:
	@DEBUG_VALUE: mbedtls_internal_sha1_process:temp <- $r0
	.loc	1 0 5                           @ ../../../ThirdParty/mbedTLS/library/sha1.c:0:5
	ldr	r1, [sp, #116]                  @ 4-byte Reload
.Ltmp1185:
	.loc	1 275 5                         @ ../../../ThirdParty/mbedTLS/library/sha1.c:275:5
	rors	r0, r1
.Ltmp1186:
	@DEBUG_VALUE: mbedtls_internal_sha1_process:W <- [DW_OP_LLVM_fragment 384 32] $r0
	str	r0, [sp, #100]                  @ 4-byte Spill
	ldr	r7, [sp, #48]                   @ 4-byte Reload
.Ltmp1187:
	@DEBUG_VALUE: mbedtls_internal_sha1_process:D <- $r7
	adds	r7, r0, r7
.Ltmp1188:
	@DEBUG_VALUE: mbedtls_internal_sha1_process:W <- [DW_OP_plus_uconst 100, DW_OP_LLVM_fragment 384 32] [$sp+0]
	adds	r6, r7, r6
	adds	r2, r6, r2
	ldr	r0, __arm_cp.5_3
	adds	r6, r2, r0
.Ltmp1189:
	@DEBUG_VALUE: mbedtls_internal_sha1_process:D <- $r6
	.loc	1 277 5 is_stmt 1               @ ../../../ThirdParty/mbedTLS/library/sha1.c:277:5
	mov	r2, r6
	ldr	r0, [sp, #124]                  @ 4-byte Reload
	rors	r2, r0
.Ltmp1190:
	@DEBUG_VALUE: mbedtls_internal_sha1_process:D <- $r2
	.loc	1 286 19                        @ ../../../ThirdParty/mbedTLS/library/sha1.c:286:19
	ldr	r7, [sp]                        @ 4-byte Reload
	adds	r7, r2, r7
	str	r7, [r4, #20]
	@DEBUG_VALUE: mbedtls_internal_sha1_process:ctx <- $r4
.Ltmp1191:
	.loc	1 275 5                         @ ../../../ThirdParty/mbedTLS/library/sha1.c:275:5
	rors	r5, r0
.Ltmp1192:
	@DEBUG_VALUE: mbedtls_internal_sha1_process:A <- $r5
	.loc	1 0 5 is_stmt 0                 @ ../../../ThirdParty/mbedTLS/library/sha1.c:0:5
	str	r5, [sp, #80]                   @ 4-byte Spill
.Ltmp1193:
	@DEBUG_VALUE: mbedtls_internal_sha1_process:A <- [DW_OP_plus_uconst 80] [$sp+0]
	.loc	1 276 5 is_stmt 1               @ ../../../ThirdParty/mbedTLS/library/sha1.c:276:5
	mov	r7, r5
	@DEBUG_VALUE: mbedtls_internal_sha1_process:A <- [DW_OP_plus_uconst 80] [$sp+0]
	ldr	r0, [sp, #60]                   @ 4-byte Reload
.Ltmp1194:
	@DEBUG_VALUE: mbedtls_internal_sha1_process:B <- $r0
	eors	r7, r0
.Ltmp1195:
	@DEBUG_VALUE: mbedtls_internal_sha1_process:B <- [DW_OP_plus_uconst 60] [$sp+0]
	eors	r7, r3
.Ltmp1196:
	@DEBUG_VALUE: mbedtls_internal_sha1_process:W <- [DW_OP_LLVM_fragment 480 32] undef
	.loc	1 0 5 is_stmt 0                 @ ../../../ThirdParty/mbedTLS/library/sha1.c:0:5
	ldr	r0, [sp, #88]                   @ 4-byte Reload
.Ltmp1197:
	@DEBUG_VALUE: mbedtls_internal_sha1_process:W <- [DW_OP_LLVM_fragment 416 32] $r0
	.loc	1 276 5                         @ ../../../ThirdParty/mbedTLS/library/sha1.c:276:5
	ldr	r3, [sp, #52]                   @ 4-byte Reload
	eors	r0, r3
.Ltmp1198:
	@DEBUG_VALUE: mbedtls_internal_sha1_process:W <- [DW_OP_plus_uconst 52, DW_OP_LLVM_fragment 480 32] [$sp+0]
	ldr	r3, [sp, #96]                   @ 4-byte Reload
	eors	r0, r3
	ldr	r3, [sp, #92]                   @ 4-byte Reload
.Ltmp1199:
	@DEBUG_VALUE: mbedtls_internal_sha1_process:W <- [DW_OP_LLVM_fragment 320 32] $r3
	eors	r0, r3
.Ltmp1200:
	@DEBUG_VALUE: mbedtls_internal_sha1_process:temp <- $r0
	rors	r0, r1
.Ltmp1201:
	@DEBUG_VALUE: mbedtls_internal_sha1_process:W <- [DW_OP_LLVM_fragment 416 32] $r0
	ldr	r3, [sp, #44]                   @ 4-byte Reload
.Ltmp1202:
	@DEBUG_VALUE: mbedtls_internal_sha1_process:C <- $r3
	adds	r3, r0, r3
.Ltmp1203:
	adds	r3, r3, r7
	mov	r5, r6
	ldr	r0, [sp, #120]                  @ 4-byte Reload
.Ltmp1204:
	rors	r5, r0
	adds	r3, r3, r5
	ldr	r0, __arm_cp.5_3
	adds	r3, r3, r0
.Ltmp1205:
	@DEBUG_VALUE: mbedtls_internal_sha1_process:C <- $r3
	@DEBUG_VALUE: mbedtls_internal_sha1_process:A <- undef
	.loc	1 278 5 is_stmt 1               @ ../../../ThirdParty/mbedTLS/library/sha1.c:278:5
	mov	r5, r3
	ldr	r0, [sp, #124]                  @ 4-byte Reload
	rors	r5, r0
.Ltmp1206:
	@DEBUG_VALUE: mbedtls_internal_sha1_process:C <- $r5
	.loc	1 285 19                        @ ../../../ThirdParty/mbedTLS/library/sha1.c:285:19
	ldr	r0, [sp, #12]                   @ 4-byte Reload
	adds	r5, r5, r0
.Ltmp1207:
	.loc	1 0 19 is_stmt 0                @ ../../../ThirdParty/mbedTLS/library/sha1.c:0:19
	mov	r7, r4
.Ltmp1208:
	@DEBUG_VALUE: mbedtls_internal_sha1_process:ctx <- $r7
	.loc	1 285 19                        @ ../../../ThirdParty/mbedTLS/library/sha1.c:285:19
	str	r5, [r4, #16]
.Ltmp1209:
	.loc	1 277 5 is_stmt 1               @ ../../../ThirdParty/mbedTLS/library/sha1.c:277:5
	ldr	r5, [sp, #72]                   @ 4-byte Reload
	ldr	r0, [sp, #80]                   @ 4-byte Reload
	eors	r5, r0
	eors	r5, r6
	ldr	r0, [sp, #108]                  @ 4-byte Reload
.Ltmp1210:
	@DEBUG_VALUE: mbedtls_internal_sha1_process:W <- [DW_OP_LLVM_fragment 0 32] $r0
	ldr	r6, [sp, #64]                   @ 4-byte Reload
.Ltmp1211:
	@DEBUG_VALUE: mbedtls_internal_sha1_process:W <- [DW_OP_LLVM_fragment 448 32] $r6
	eors	r0, r6
.Ltmp1212:
	ldr	r6, [sp, #76]                   @ 4-byte Reload
.Ltmp1213:
	@DEBUG_VALUE: mbedtls_internal_sha1_process:W <- [DW_OP_LLVM_fragment 192 32] $r6
	eors	r0, r6
	ldr	r1, [sp, #68]                   @ 4-byte Reload
.Ltmp1214:
	@DEBUG_VALUE: mbedtls_internal_sha1_process:W <- [DW_OP_LLVM_fragment 352 32] $r1
	eors	r0, r1
.Ltmp1215:
	@DEBUG_VALUE: mbedtls_internal_sha1_process:temp <- $r0
	.loc	1 0 5 is_stmt 0                 @ ../../../ThirdParty/mbedTLS/library/sha1.c:0:5
	ldr	r6, [sp, #116]                  @ 4-byte Reload
.Ltmp1216:
	.loc	1 277 5                         @ ../../../ThirdParty/mbedTLS/library/sha1.c:277:5
	rors	r0, r6
.Ltmp1217:
	@DEBUG_VALUE: mbedtls_internal_sha1_process:W <- [DW_OP_LLVM_fragment 448 32] $r0
	ldr	r1, [sp, #60]                   @ 4-byte Reload
.Ltmp1218:
	@DEBUG_VALUE: mbedtls_internal_sha1_process:B <- $r1
	adds	r4, r0, r1
	adds	r4, r4, r5
	mov	r5, r3
	ldr	r0, [sp, #120]                  @ 4-byte Reload
.Ltmp1219:
	rors	r5, r0
	adds	r4, r4, r5
	ldr	r0, __arm_cp.5_3
	adds	r4, r4, r0
.Ltmp1220:
	@DEBUG_VALUE: mbedtls_internal_sha1_process:B <- $r4
	.loc	1 284 19 is_stmt 1              @ ../../../ThirdParty/mbedTLS/library/sha1.c:284:19
	ldr	r5, [sp, #16]                   @ 4-byte Reload
	adds	r5, r4, r5
	str	r5, [r7, #12]
	@DEBUG_VALUE: mbedtls_internal_sha1_process:ctx <- $r7
.Ltmp1221:
	.loc	1 278 5                         @ ../../../ThirdParty/mbedTLS/library/sha1.c:278:5
	ldr	r0, [sp, #72]                   @ 4-byte Reload
.Ltmp1222:
	@DEBUG_VALUE: mbedtls_internal_sha1_process:E <- $r0
	eors	r2, r0
.Ltmp1223:
	eors	r2, r3
	ldr	r0, [sp, #104]                  @ 4-byte Reload
.Ltmp1224:
	@DEBUG_VALUE: mbedtls_internal_sha1_process:W <- [DW_OP_LLVM_fragment 32 32] $r0
	ldr	r1, [sp, #52]                   @ 4-byte Reload
.Ltmp1225:
	@DEBUG_VALUE: mbedtls_internal_sha1_process:W <- [DW_OP_LLVM_fragment 480 32] $r1
	eors	r0, r1
.Ltmp1226:
	ldr	r1, [sp, #56]                   @ 4-byte Reload
.Ltmp1227:
	@DEBUG_VALUE: mbedtls_internal_sha1_process:W <- [DW_OP_LLVM_fragment 224 32] $r1
	eors	r0, r1
	ldr	r1, [sp, #100]                  @ 4-byte Reload
.Ltmp1228:
	@DEBUG_VALUE: mbedtls_internal_sha1_process:W <- [DW_OP_LLVM_fragment 384 32] $r1
	eors	r0, r1
.Ltmp1229:
	@DEBUG_VALUE: mbedtls_internal_sha1_process:temp <- $r0
	rors	r0, r6
.Ltmp1230:
	@DEBUG_VALUE: mbedtls_internal_sha1_process:W <- [DW_OP_LLVM_fragment 480 32] $r0
	ldr	r1, [sp, #28]                   @ 4-byte Reload
.Ltmp1231:
	adds	r1, r1, r0
	ldr	r0, [sp, #80]                   @ 4-byte Reload
.Ltmp1232:
	adds	r0, r1, r0
	adds	r0, r0, r2
	ldr	r1, [sp, #120]                  @ 4-byte Reload
	rors	r4, r1
.Ltmp1233:
	adds	r0, r0, r4
.Ltmp1234:
	.loc	1 283 19                        @ ../../../ThirdParty/mbedTLS/library/sha1.c:283:19
	ldr	r1, __arm_cp.5_3
	adds	r0, r0, r1
	str	r0, [r7, #8]
	movs	r0, #0
	.loc	1 289 5                         @ ../../../ThirdParty/mbedTLS/library/sha1.c:289:5
	add	sp, #128
	pop	{r4, r5, r6, r7, pc}
.Ltmp1235:
	.p2align	2
@ %bb.8:
	.loc	1 0 5 is_stmt 0                 @ ../../../ThirdParty/mbedTLS/library/sha1.c:0:5
__arm_cp.5_3:
	.long	3395469782                      @ 0xca62c1d6
.Lcpi_end8:
	.size	__arm_cp.5_3, .Lcpi_end8-__arm_cp.5_3
.Lfunc_end5:
	.size	mbedtls_internal_sha1_process, .Lfunc_end5-mbedtls_internal_sha1_process
	.cfi_endproc
	.cantunwind
	.fnend
                                        @ -- End function
	.section	.text.mbedtls_sha1_process,"ax",%progbits
	.hidden	mbedtls_sha1_process            @ -- Begin function mbedtls_sha1_process
	.globl	mbedtls_sha1_process
	.p2align	1
	.type	mbedtls_sha1_process,%function
	.code	16                              @ @mbedtls_sha1_process
	.thumb_func
mbedtls_sha1_process:
.Lfunc_begin6:
	.loc	1 295 0 is_stmt 1               @ ../../../ThirdParty/mbedTLS/library/sha1.c:295:0
	.fnstart
	.cfi_startproc
@ %bb.0:
	@DEBUG_VALUE: mbedtls_sha1_process:ctx <- $r0
	@DEBUG_VALUE: mbedtls_sha1_process:ctx <- $r0
	@DEBUG_VALUE: mbedtls_sha1_process:data <- $r1
	@DEBUG_VALUE: mbedtls_sha1_process:data <- $r1
	@DEBUG_VALUE: mbedtls_sha1_process:data <- $r1
	@DEBUG_VALUE: mbedtls_sha1_process:ctx <- $r0
	.save	{r7, lr}
	push	{r7, lr}
	.cfi_def_cfa_offset 8
	.cfi_offset lr, -4
	.cfi_offset r7, -8
.Ltmp1236:
	.loc	1 296 5 prologue_end            @ ../../../ThirdParty/mbedTLS/library/sha1.c:296:5
	bl	mbedtls_internal_sha1_process
.Ltmp1237:
	@DEBUG_VALUE: mbedtls_sha1_process:data <- [DW_OP_LLVM_entry_value 1] $r1
	@DEBUG_VALUE: mbedtls_sha1_process:ctx <- [DW_OP_LLVM_entry_value 1] $r0
	.loc	1 297 1                         @ ../../../ThirdParty/mbedTLS/library/sha1.c:297:1
	pop	{r7, pc}
.Ltmp1238:
.Lfunc_end6:
	.size	mbedtls_sha1_process, .Lfunc_end6-mbedtls_sha1_process
	.cfi_endproc
	.cantunwind
	.fnend
                                        @ -- End function
	.section	.text.mbedtls_sha1_update_ret,"ax",%progbits
	.hidden	mbedtls_sha1_update_ret         @ -- Begin function mbedtls_sha1_update_ret
	.globl	mbedtls_sha1_update_ret
	.p2align	1
	.type	mbedtls_sha1_update_ret,%function
	.code	16                              @ @mbedtls_sha1_update_ret
	.thumb_func
mbedtls_sha1_update_ret:
.Lfunc_begin7:
	.loc	1 307 0                         @ ../../../ThirdParty/mbedTLS/library/sha1.c:307:0
	.fnstart
	.cfi_startproc
@ %bb.0:
	@DEBUG_VALUE: mbedtls_sha1_update_ret:ctx <- $r0
	@DEBUG_VALUE: mbedtls_sha1_update_ret:input <- $r1
	@DEBUG_VALUE: mbedtls_sha1_update_ret:ilen <- $r2
	@DEBUG_VALUE: mbedtls_sha1_update_ret:ilen <- $r2
	@DEBUG_VALUE: mbedtls_sha1_update_ret:input <- $r1
	@DEBUG_VALUE: mbedtls_sha1_update_ret:ctx <- $r0
	.save	{r4, r5, r6, r7, lr}
	push	{r4, r5, r6, r7, lr}
	.cfi_def_cfa_offset 20
	.cfi_offset lr, -4
	.cfi_offset r7, -8
	.cfi_offset r6, -12
	.cfi_offset r5, -16
	.cfi_offset r4, -20
	.pad	#12
	sub	sp, #12
	.cfi_def_cfa_offset 32
.Ltmp1239:
	.loc	1 315 9 prologue_end            @ ../../../ThirdParty/mbedTLS/library/sha1.c:315:9
	cbz	r2, .LBB7_10
.Ltmp1240:
@ %bb.1:
	@DEBUG_VALUE: mbedtls_sha1_update_ret:ilen <- $r2
	@DEBUG_VALUE: mbedtls_sha1_update_ret:input <- $r1
	@DEBUG_VALUE: mbedtls_sha1_update_ret:ctx <- $r0
	.loc	1 0 9 is_stmt 0                 @ ../../../ThirdParty/mbedTLS/library/sha1.c:0:9
	mov	r4, r2
.Ltmp1241:
	@DEBUG_VALUE: mbedtls_sha1_update_ret:ilen <- $r4
	mov	r5, r1
.Ltmp1242:
	@DEBUG_VALUE: mbedtls_sha1_update_ret:input <- $r5
	mov	r6, r0
.Ltmp1243:
	@DEBUG_VALUE: mbedtls_sha1_update_ret:ctx <- $r6
	.loc	1 318 12 is_stmt 1              @ ../../../ThirdParty/mbedTLS/library/sha1.c:318:12
	ldr	r1, [r0]
	.loc	1 321 19                        @ ../../../ThirdParty/mbedTLS/library/sha1.c:321:19
	adds	r2, r1, r2
	.loc	1 322 19                        @ ../../../ThirdParty/mbedTLS/library/sha1.c:322:19
	str	r2, [r0]
	movs	r0, #63
	.loc	1 318 26                        @ ../../../ThirdParty/mbedTLS/library/sha1.c:318:26
	ands	r0, r1
.Ltmp1244:
	@DEBUG_VALUE: mbedtls_sha1_update_ret:fill <- undef
	@DEBUG_VALUE: mbedtls_sha1_update_ret:left <- $r0
	.loc	1 321 19                        @ ../../../ThirdParty/mbedTLS/library/sha1.c:321:19
	cmp	r2, r1
	.loc	1 324 9                         @ ../../../ThirdParty/mbedTLS/library/sha1.c:324:9
	bhs	.LBB7_3
.Ltmp1245:
@ %bb.2:
	@DEBUG_VALUE: mbedtls_sha1_update_ret:ctx <- $r6
	@DEBUG_VALUE: mbedtls_sha1_update_ret:input <- $r5
	@DEBUG_VALUE: mbedtls_sha1_update_ret:ilen <- $r4
	@DEBUG_VALUE: mbedtls_sha1_update_ret:left <- $r0
	.loc	1 325 22                        @ ../../../ThirdParty/mbedTLS/library/sha1.c:325:22
	ldr	r1, [r6, #4]
	adds	r1, r1, #1
	str	r1, [r6, #4]
.Ltmp1246:
.LBB7_3:
	@DEBUG_VALUE: mbedtls_sha1_update_ret:ctx <- $r6
	@DEBUG_VALUE: mbedtls_sha1_update_ret:input <- $r5
	@DEBUG_VALUE: mbedtls_sha1_update_ret:ilen <- $r4
	@DEBUG_VALUE: mbedtls_sha1_update_ret:left <- $r0
	@DEBUG_VALUE: mbedtls_sha1_update_ret:fill <- undef
	.loc	1 0 22 is_stmt 0                @ ../../../ThirdParty/mbedTLS/library/sha1.c:0:22
	movs	r7, #0
.Ltmp1247:
	.loc	1 327 14 is_stmt 1              @ ../../../ThirdParty/mbedTLS/library/sha1.c:327:14
	cbz	r0, .LBB7_6
.Ltmp1248:
@ %bb.4:
	@DEBUG_VALUE: mbedtls_sha1_update_ret:ctx <- $r6
	@DEBUG_VALUE: mbedtls_sha1_update_ret:input <- $r5
	@DEBUG_VALUE: mbedtls_sha1_update_ret:ilen <- $r4
	@DEBUG_VALUE: mbedtls_sha1_update_ret:left <- $r0
	.loc	1 0 14 is_stmt 0                @ ../../../ThirdParty/mbedTLS/library/sha1.c:0:14
	str	r7, [sp, #8]                    @ 4-byte Spill
	movs	r1, #64
	subs	r7, r1, r0
.Ltmp1249:
	@DEBUG_VALUE: mbedtls_sha1_update_ret:fill <- $r7
	.loc	1 327 9                         @ ../../../ThirdParty/mbedTLS/library/sha1.c:327:9
	cmp	r7, r4
	bls	.LBB7_11
.Ltmp1250:
@ %bb.5:
	@DEBUG_VALUE: mbedtls_sha1_update_ret:fill <- $r7
	@DEBUG_VALUE: mbedtls_sha1_update_ret:ctx <- $r6
	@DEBUG_VALUE: mbedtls_sha1_update_ret:input <- $r5
	@DEBUG_VALUE: mbedtls_sha1_update_ret:ilen <- $r4
	@DEBUG_VALUE: mbedtls_sha1_update_ret:left <- $r0
	.loc	1 0 0                           @ ../../../ThirdParty/mbedTLS/library/sha1.c:0:0
	mov	r7, r0
.Ltmp1251:
	@DEBUG_VALUE: mbedtls_sha1_update_ret:left <- $r7
.LBB7_6:
	@DEBUG_VALUE: mbedtls_sha1_update_ret:ctx <- $r6
	@DEBUG_VALUE: mbedtls_sha1_update_ret:input <- $r5
	@DEBUG_VALUE: mbedtls_sha1_update_ret:ilen <- $r4
	@DEBUG_VALUE: mbedtls_sha1_update_ret:input <- $r5
	@DEBUG_VALUE: mbedtls_sha1_update_ret:ilen <- $r4
	@DEBUG_VALUE: mbedtls_sha1_update_ret:left <- $r7
	.loc	1 339 5 is_stmt 1               @ ../../../ThirdParty/mbedTLS/library/sha1.c:339:5
	cmp	r4, #64
	blo	.LBB7_8
.Ltmp1252:
.LBB7_7:                                @ =>This Inner Loop Header: Depth=1
	@DEBUG_VALUE: mbedtls_sha1_update_ret:left <- $r7
	@DEBUG_VALUE: mbedtls_sha1_update_ret:ctx <- $r6
	@DEBUG_VALUE: mbedtls_sha1_update_ret:input <- $r5
	@DEBUG_VALUE: mbedtls_sha1_update_ret:ilen <- $r4
	@DEBUG_VALUE: mbedtls_sha1_update_ret:input <- $r5
	@DEBUG_VALUE: mbedtls_sha1_update_ret:ilen <- $r4
	.loc	1 341 21                        @ ../../../ThirdParty/mbedTLS/library/sha1.c:341:21
	mov	r0, r6
	mov	r1, r5
	bl	mbedtls_internal_sha1_process
.Ltmp1253:
	.loc	1 345 15                        @ ../../../ThirdParty/mbedTLS/library/sha1.c:345:15
	subs	r4, #64
.Ltmp1254:
	@DEBUG_VALUE: mbedtls_sha1_update_ret:ret <- 0
	@DEBUG_VALUE: mbedtls_sha1_update_ret:ilen <- $r4
	.loc	1 344 15                        @ ../../../ThirdParty/mbedTLS/library/sha1.c:344:15
	adds	r5, #64
.Ltmp1255:
	@DEBUG_VALUE: mbedtls_sha1_update_ret:input <- $r5
	.loc	1 339 5                         @ ../../../ThirdParty/mbedTLS/library/sha1.c:339:5
	cmp	r4, #63
	bhi	.LBB7_7
.Ltmp1256:
.LBB7_8:
	@DEBUG_VALUE: mbedtls_sha1_update_ret:left <- $r7
	@DEBUG_VALUE: mbedtls_sha1_update_ret:ctx <- $r6
	@DEBUG_VALUE: mbedtls_sha1_update_ret:input <- $r5
	@DEBUG_VALUE: mbedtls_sha1_update_ret:ilen <- $r4
	@DEBUG_VALUE: mbedtls_sha1_update_ret:input <- $r5
	@DEBUG_VALUE: mbedtls_sha1_update_ret:ilen <- $r4
	.loc	1 348 9                         @ ../../../ThirdParty/mbedTLS/library/sha1.c:348:9
	cbz	r4, .LBB7_10
.Ltmp1257:
@ %bb.9:
	@DEBUG_VALUE: mbedtls_sha1_update_ret:left <- $r7
	@DEBUG_VALUE: mbedtls_sha1_update_ret:ctx <- $r6
	@DEBUG_VALUE: mbedtls_sha1_update_ret:input <- $r5
	@DEBUG_VALUE: mbedtls_sha1_update_ret:ilen <- $r4
	.loc	1 349 39                        @ ../../../ThirdParty/mbedTLS/library/sha1.c:349:39
	adds	r0, r6, r7
	adds	r0, #28
	.loc	1 349 9 is_stmt 0               @ ../../../ThirdParty/mbedTLS/library/sha1.c:349:9
	mov	r1, r5
	mov	r2, r4
	bl	__aeabi_memcpy
.Ltmp1258:
.LBB7_10:
	.loc	1 0 9                           @ ../../../ThirdParty/mbedTLS/library/sha1.c:0:9
	movs	r0, #0
	.loc	1 352 1 is_stmt 1               @ ../../../ThirdParty/mbedTLS/library/sha1.c:352:1
	add	sp, #12
	pop	{r4, r5, r6, r7, pc}
.LBB7_11:
.Ltmp1259:
	@DEBUG_VALUE: mbedtls_sha1_update_ret:fill <- $r7
	@DEBUG_VALUE: mbedtls_sha1_update_ret:ctx <- $r6
	@DEBUG_VALUE: mbedtls_sha1_update_ret:input <- $r5
	@DEBUG_VALUE: mbedtls_sha1_update_ret:ilen <- $r4
	@DEBUG_VALUE: mbedtls_sha1_update_ret:left <- $r0
	.loc	1 329 27                        @ ../../../ThirdParty/mbedTLS/library/sha1.c:329:27
	mov	r1, r6
	adds	r1, #28
	.loc	1 329 39 is_stmt 0              @ ../../../ThirdParty/mbedTLS/library/sha1.c:329:39
	str	r1, [sp, #4]                    @ 4-byte Spill
	adds	r0, r1, r0
.Ltmp1260:
	.loc	1 329 9                         @ ../../../ThirdParty/mbedTLS/library/sha1.c:329:9
	mov	r1, r5
	mov	r2, r7
	bl	__aeabi_memcpy
.Ltmp1261:
	.loc	1 331 21 is_stmt 1              @ ../../../ThirdParty/mbedTLS/library/sha1.c:331:21
	mov	r0, r6
	ldr	r1, [sp, #4]                    @ 4-byte Reload
	bl	mbedtls_internal_sha1_process
.Ltmp1262:
	.loc	1 335 15                        @ ../../../ThirdParty/mbedTLS/library/sha1.c:335:15
	subs	r4, r4, r7
.Ltmp1263:
	@DEBUG_VALUE: mbedtls_sha1_update_ret:ilen <- [DW_OP_LLVM_entry_value 1] $r2
	@DEBUG_VALUE: mbedtls_sha1_update_ret:ret <- 0
	@DEBUG_VALUE: mbedtls_sha1_update_ret:ilen <- $r4
	.loc	1 334 15                        @ ../../../ThirdParty/mbedTLS/library/sha1.c:334:15
	adds	r5, r5, r7
.Ltmp1264:
	@DEBUG_VALUE: mbedtls_sha1_update_ret:input <- [DW_OP_LLVM_entry_value 1] $r1
	@DEBUG_VALUE: mbedtls_sha1_update_ret:left <- 0
	@DEBUG_VALUE: mbedtls_sha1_update_ret:input <- $r5
	.loc	1 0 15 is_stmt 0                @ ../../../ThirdParty/mbedTLS/library/sha1.c:0:15
	ldr	r7, [sp, #8]                    @ 4-byte Reload
.Ltmp1265:
	@DEBUG_VALUE: mbedtls_sha1_update_ret:input <- $r5
	@DEBUG_VALUE: mbedtls_sha1_update_ret:ilen <- $r4
	@DEBUG_VALUE: mbedtls_sha1_update_ret:left <- $r7
	.loc	1 339 5 is_stmt 1               @ ../../../ThirdParty/mbedTLS/library/sha1.c:339:5
	cmp	r4, #64
	bhs	.LBB7_7
	b	.LBB7_8
.Ltmp1266:
.Lfunc_end7:
	.size	mbedtls_sha1_update_ret, .Lfunc_end7-mbedtls_sha1_update_ret
	.cfi_endproc
	.cantunwind
	.fnend
                                        @ -- End function
	.section	.text.mbedtls_sha1_update,"ax",%progbits
	.hidden	mbedtls_sha1_update             @ -- Begin function mbedtls_sha1_update
	.globl	mbedtls_sha1_update
	.p2align	1
	.type	mbedtls_sha1_update,%function
	.code	16                              @ @mbedtls_sha1_update
	.thumb_func
mbedtls_sha1_update:
.Lfunc_begin8:
	.loc	1 358 0                         @ ../../../ThirdParty/mbedTLS/library/sha1.c:358:0
	.fnstart
	.cfi_startproc
@ %bb.0:
	@DEBUG_VALUE: mbedtls_sha1_update:ctx <- $r0
	@DEBUG_VALUE: mbedtls_sha1_update:ctx <- $r0
	@DEBUG_VALUE: mbedtls_sha1_update:input <- $r1
	@DEBUG_VALUE: mbedtls_sha1_update:input <- $r1
	@DEBUG_VALUE: mbedtls_sha1_update:ilen <- $r2
	@DEBUG_VALUE: mbedtls_sha1_update:ilen <- $r2
	@DEBUG_VALUE: mbedtls_sha1_update:ilen <- $r2
	@DEBUG_VALUE: mbedtls_sha1_update:input <- $r1
	@DEBUG_VALUE: mbedtls_sha1_update:ctx <- $r0
	.save	{r7, lr}
	push	{r7, lr}
	.cfi_def_cfa_offset 8
	.cfi_offset lr, -4
	.cfi_offset r7, -8
.Ltmp1267:
	.loc	1 359 5 prologue_end            @ ../../../ThirdParty/mbedTLS/library/sha1.c:359:5
	bl	mbedtls_sha1_update_ret
.Ltmp1268:
	@DEBUG_VALUE: mbedtls_sha1_update:ilen <- [DW_OP_LLVM_entry_value 1] $r2
	@DEBUG_VALUE: mbedtls_sha1_update:input <- [DW_OP_LLVM_entry_value 1] $r1
	@DEBUG_VALUE: mbedtls_sha1_update:ctx <- [DW_OP_LLVM_entry_value 1] $r0
	.loc	1 360 1                         @ ../../../ThirdParty/mbedTLS/library/sha1.c:360:1
	pop	{r7, pc}
.Ltmp1269:
.Lfunc_end8:
	.size	mbedtls_sha1_update, .Lfunc_end8-mbedtls_sha1_update
	.cfi_endproc
	.cantunwind
	.fnend
                                        @ -- End function
	.section	.text.mbedtls_sha1_finish_ret,"ax",%progbits
	.hidden	mbedtls_sha1_finish_ret         @ -- Begin function mbedtls_sha1_finish_ret
	.globl	mbedtls_sha1_finish_ret
	.p2align	1
	.type	mbedtls_sha1_finish_ret,%function
	.code	16                              @ @mbedtls_sha1_finish_ret
	.thumb_func
mbedtls_sha1_finish_ret:
.Lfunc_begin9:
	.loc	1 368 0                         @ ../../../ThirdParty/mbedTLS/library/sha1.c:368:0
	.fnstart
	.cfi_startproc
@ %bb.0:
	@DEBUG_VALUE: mbedtls_sha1_finish_ret:ctx <- $r0
	@DEBUG_VALUE: mbedtls_sha1_finish_ret:output <- $r1
	.save	{r4, r5, r6, r7, lr}
	push	{r4, r5, r6, r7, lr}
	.cfi_def_cfa_offset 20
	.cfi_offset lr, -4
	.cfi_offset r7, -8
	.cfi_offset r6, -12
	.cfi_offset r5, -16
	.cfi_offset r4, -20
	.pad	#4
	sub	sp, #4
	.cfi_def_cfa_offset 24
	mov	r4, r1
	mov	r5, r0
.Ltmp1270:
	@DEBUG_VALUE: mbedtls_sha1_finish_ret:output <- $r4
	@DEBUG_VALUE: mbedtls_sha1_finish_ret:ctx <- $r5
	.loc	1 379 12 prologue_end           @ ../../../ThirdParty/mbedTLS/library/sha1.c:379:12
	ldr	r1, [r0]
	movs	r0, #63
	.loc	1 379 26 is_stmt 0              @ ../../../ThirdParty/mbedTLS/library/sha1.c:379:26
	ands	r1, r0
.Ltmp1271:
	@DEBUG_VALUE: mbedtls_sha1_finish_ret:used <- $r1
	.loc	1 381 10 is_stmt 1              @ ../../../ThirdParty/mbedTLS/library/sha1.c:381:10
	mov	r6, r5
	adds	r6, #28
	movs	r2, #128
	.loc	1 381 25 is_stmt 0              @ ../../../ThirdParty/mbedTLS/library/sha1.c:381:25
	strb	r2, [r6, r1]
	.loc	1 381 21                        @ ../../../ThirdParty/mbedTLS/library/sha1.c:381:21
	adds	r2, r1, #1
.Ltmp1272:
	@DEBUG_VALUE: mbedtls_sha1_finish_ret:used <- $r2
	.loc	1 0 0                           @ ../../../ThirdParty/mbedTLS/library/sha1.c:0:0
	mov	r7, r5
	adds	r7, #84
	.loc	1 383 9 is_stmt 1               @ ../../../ThirdParty/mbedTLS/library/sha1.c:383:9
	cmp	r1, #55
	bhi	.LBB9_2
.Ltmp1273:
@ %bb.1:
	@DEBUG_VALUE: mbedtls_sha1_finish_ret:ctx <- $r5
	@DEBUG_VALUE: mbedtls_sha1_finish_ret:output <- $r4
	@DEBUG_VALUE: mbedtls_sha1_finish_ret:used <- $r2
	.loc	1 0 9 is_stmt 0                 @ ../../../ThirdParty/mbedTLS/library/sha1.c:0:9
	movs	r0, #55
.Ltmp1274:
	.loc	1 386 43 is_stmt 1              @ ../../../ThirdParty/mbedTLS/library/sha1.c:386:43
	subs	r1, r0, r1
	.loc	1 386 29 is_stmt 0              @ ../../../ThirdParty/mbedTLS/library/sha1.c:386:29
	adds	r0, r5, r2
	adds	r0, #28
	.loc	1 386 9                         @ ../../../ThirdParty/mbedTLS/library/sha1.c:386:9
	bl	__aeabi_memclr
.Ltmp1275:
	.loc	1 387 5 is_stmt 1               @ ../../../ThirdParty/mbedTLS/library/sha1.c:387:5
	b	.LBB9_3
.Ltmp1276:
.LBB9_2:
	@DEBUG_VALUE: mbedtls_sha1_finish_ret:ctx <- $r5
	@DEBUG_VALUE: mbedtls_sha1_finish_ret:output <- $r4
	@DEBUG_VALUE: mbedtls_sha1_finish_ret:used <- $r2
	.loc	1 391 43                        @ ../../../ThirdParty/mbedTLS/library/sha1.c:391:43
	eors	r1, r0
	.loc	1 391 29 is_stmt 0              @ ../../../ThirdParty/mbedTLS/library/sha1.c:391:29
	adds	r0, r5, r2
	adds	r0, #28
	.loc	1 391 9                         @ ../../../ThirdParty/mbedTLS/library/sha1.c:391:9
	bl	__aeabi_memclr
.Ltmp1277:
	.loc	1 393 21 is_stmt 1              @ ../../../ThirdParty/mbedTLS/library/sha1.c:393:21
	mov	r0, r5
	mov	r1, r6
	bl	mbedtls_internal_sha1_process
.Ltmp1278:
	@DEBUG_VALUE: mbedtls_sha1_finish_ret:ret <- 0
	.loc	1 0 21 is_stmt 0                @ ../../../ThirdParty/mbedTLS/library/sha1.c:0:21
	movs	r1, #56
.Ltmp1279:
	.loc	1 396 9 is_stmt 1               @ ../../../ThirdParty/mbedTLS/library/sha1.c:396:9
	mov	r0, r6
	bl	__aeabi_memclr4
.Ltmp1280:
.LBB9_3:
	@DEBUG_VALUE: mbedtls_sha1_finish_ret:ctx <- $r5
	@DEBUG_VALUE: mbedtls_sha1_finish_ret:output <- $r4
	.loc	1 402 14                        @ ../../../ThirdParty/mbedTLS/library/sha1.c:402:14
	ldr	r0, [r5]
.Ltmp1281:
	.loc	1 407 5                         @ ../../../ThirdParty/mbedTLS/library/sha1.c:407:5
	lsls	r1, r0, #3
	strb	r1, [r7, #7]
	lsrs	r1, r0, #5
	strb	r1, [r7, #6]
	lsrs	r1, r0, #13
	strb	r1, [r7, #5]
	lsrs	r1, r0, #21
	strb	r1, [r7, #4]
.Ltmp1282:
	.loc	1 403 16                        @ ../../../ThirdParty/mbedTLS/library/sha1.c:403:16
	ldr	r1, [r5, #4]
.Ltmp1283:
	.loc	1 406 5                         @ ../../../ThirdParty/mbedTLS/library/sha1.c:406:5
	lsrs	r2, r1, #5
	strb	r2, [r7, #2]
	lsrs	r2, r1, #13
	strb	r2, [r7, #1]
.Ltmp1284:
	@DEBUG_VALUE: mbedtls_sha1_finish_ret:low <- [DW_OP_constu 3, DW_OP_shl, DW_OP_stack_value] $r0
	@DEBUG_VALUE: mbedtls_sha1_finish_ret:high <- undef
	lsrs	r2, r1, #21
	strb	r2, [r7]
.Ltmp1285:
	.loc	1 402 28                        @ ../../../ThirdParty/mbedTLS/library/sha1.c:402:28
	lsrs	r0, r0, #29
.Ltmp1286:
	.loc	1 403 30                        @ ../../../ThirdParty/mbedTLS/library/sha1.c:403:30
	lsls	r1, r1, #3
	.loc	1 403 12 is_stmt 0              @ ../../../ThirdParty/mbedTLS/library/sha1.c:403:12
	adds	r0, r1, r0
.Ltmp1287:
	.loc	1 406 5 is_stmt 1               @ ../../../ThirdParty/mbedTLS/library/sha1.c:406:5
	strb	r0, [r7, #3]
.Ltmp1288:
	.loc	1 409 17                        @ ../../../ThirdParty/mbedTLS/library/sha1.c:409:17
	mov	r0, r5
	mov	r1, r6
	bl	mbedtls_internal_sha1_process
.Ltmp1289:
	@DEBUG_VALUE: mbedtls_sha1_finish_ret:ret <- 0
	.loc	1 415 5                         @ ../../../ThirdParty/mbedTLS/library/sha1.c:415:5
	ldrb	r0, [r5, #11]
	strb	r0, [r4]
	ldrh	r0, [r5, #10]
	strb	r0, [r4, #1]
	ldr	r0, [r5, #8]
	lsrs	r0, r0, #8
	strb	r0, [r4, #2]
	ldr	r0, [r5, #8]
	strb	r0, [r4, #3]
.Ltmp1290:
	.loc	1 416 5                         @ ../../../ThirdParty/mbedTLS/library/sha1.c:416:5
	ldrb	r0, [r5, #15]
	strb	r0, [r4, #4]
	ldrh	r0, [r5, #14]
	strb	r0, [r4, #5]
	ldr	r0, [r5, #12]
	lsrs	r0, r0, #8
	strb	r0, [r4, #6]
	ldr	r0, [r5, #12]
	strb	r0, [r4, #7]
.Ltmp1291:
	.loc	1 417 5                         @ ../../../ThirdParty/mbedTLS/library/sha1.c:417:5
	ldrb	r0, [r5, #19]
	strb	r0, [r4, #8]
	ldrh	r0, [r5, #18]
	strb	r0, [r4, #9]
	ldr	r0, [r5, #16]
	lsrs	r0, r0, #8
	strb	r0, [r4, #10]
	ldr	r0, [r5, #16]
	strb	r0, [r4, #11]
.Ltmp1292:
	.loc	1 418 5                         @ ../../../ThirdParty/mbedTLS/library/sha1.c:418:5
	ldrb	r0, [r5, #23]
	strb	r0, [r4, #12]
	ldrh	r0, [r5, #22]
	strb	r0, [r4, #13]
	ldr	r0, [r5, #20]
	lsrs	r0, r0, #8
	strb	r0, [r4, #14]
	ldr	r0, [r5, #20]
	strb	r0, [r4, #15]
.Ltmp1293:
	.loc	1 419 5                         @ ../../../ThirdParty/mbedTLS/library/sha1.c:419:5
	ldrb	r0, [r5, #27]
	strb	r0, [r4, #16]
	ldrh	r0, [r5, #26]
	strb	r0, [r4, #17]
	ldr	r0, [r5, #24]
	lsrs	r0, r0, #8
	strb	r0, [r4, #18]
	ldr	r0, [r5, #24]
	strb	r0, [r4, #19]
	movs	r0, #0
.Ltmp1294:
	.loc	1 422 1                         @ ../../../ThirdParty/mbedTLS/library/sha1.c:422:1
	add	sp, #4
	pop	{r4, r5, r6, r7, pc}
.Ltmp1295:
.Lfunc_end9:
	.size	mbedtls_sha1_finish_ret, .Lfunc_end9-mbedtls_sha1_finish_ret
	.cfi_endproc
	.cantunwind
	.fnend
                                        @ -- End function
	.section	.text.mbedtls_sha1_finish,"ax",%progbits
	.hidden	mbedtls_sha1_finish             @ -- Begin function mbedtls_sha1_finish
	.globl	mbedtls_sha1_finish
	.p2align	1
	.type	mbedtls_sha1_finish,%function
	.code	16                              @ @mbedtls_sha1_finish
	.thumb_func
mbedtls_sha1_finish:
.Lfunc_begin10:
	.loc	1 427 0                         @ ../../../ThirdParty/mbedTLS/library/sha1.c:427:0
	.fnstart
	.cfi_startproc
@ %bb.0:
	@DEBUG_VALUE: mbedtls_sha1_finish:ctx <- $r0
	@DEBUG_VALUE: mbedtls_sha1_finish:ctx <- $r0
	@DEBUG_VALUE: mbedtls_sha1_finish:output <- $r1
	@DEBUG_VALUE: mbedtls_sha1_finish:output <- $r1
	@DEBUG_VALUE: mbedtls_sha1_finish:output <- $r1
	@DEBUG_VALUE: mbedtls_sha1_finish:ctx <- $r0
	.save	{r7, lr}
	push	{r7, lr}
	.cfi_def_cfa_offset 8
	.cfi_offset lr, -4
	.cfi_offset r7, -8
.Ltmp1296:
	.loc	1 428 5 prologue_end            @ ../../../ThirdParty/mbedTLS/library/sha1.c:428:5
	bl	mbedtls_sha1_finish_ret
.Ltmp1297:
	@DEBUG_VALUE: mbedtls_sha1_finish:output <- [DW_OP_LLVM_entry_value 1] $r1
	@DEBUG_VALUE: mbedtls_sha1_finish:ctx <- [DW_OP_LLVM_entry_value 1] $r0
	.loc	1 429 1                         @ ../../../ThirdParty/mbedTLS/library/sha1.c:429:1
	pop	{r7, pc}
.Ltmp1298:
.Lfunc_end10:
	.size	mbedtls_sha1_finish, .Lfunc_end10-mbedtls_sha1_finish
	.cfi_endproc
	.cantunwind
	.fnend
                                        @ -- End function
	.section	.text.mbedtls_sha1_ret,"ax",%progbits
	.hidden	mbedtls_sha1_ret                @ -- Begin function mbedtls_sha1_ret
	.globl	mbedtls_sha1_ret
	.p2align	1
	.type	mbedtls_sha1_ret,%function
	.code	16                              @ @mbedtls_sha1_ret
	.thumb_func
mbedtls_sha1_ret:
.Lfunc_begin11:
	.loc	1 440 0                         @ ../../../ThirdParty/mbedTLS/library/sha1.c:440:0
	.fnstart
	.cfi_startproc
@ %bb.0:
	@DEBUG_VALUE: mbedtls_sha1_ret:input <- $r0
	@DEBUG_VALUE: mbedtls_sha1_ret:ilen <- $r1
	@DEBUG_VALUE: mbedtls_sha1_ret:output <- $r2
	.save	{r4, r5, r6, r7, lr}
	push	{r4, r5, r6, r7, lr}
	.cfi_def_cfa_offset 20
	.cfi_offset lr, -4
	.cfi_offset r7, -8
	.cfi_offset r6, -12
	.cfi_offset r5, -16
	.cfi_offset r4, -20
	.pad	#92
	sub	sp, #92
	.cfi_def_cfa_offset 112
	mov	r4, r2
	mov	r6, r1
	mov	r7, r0
.Ltmp1299:
	@DEBUG_VALUE: mbedtls_sha1_ret:output <- $r4
	@DEBUG_VALUE: mbedtls_sha1_ret:ilen <- $r6
	@DEBUG_VALUE: mbedtls_sha1_ret:input <- $r7
	mov	r5, sp
.Ltmp1300:
	.loc	1 447 5 prologue_end            @ ../../../ThirdParty/mbedTLS/library/sha1.c:447:5
	mov	r0, r5
	bl	mbedtls_sha1_init
.Ltmp1301:
	.loc	1 449 17                        @ ../../../ThirdParty/mbedTLS/library/sha1.c:449:17
	mov	r0, r5
	bl	mbedtls_sha1_starts_ret
.Ltmp1302:
	@DEBUG_VALUE: mbedtls_sha1_ret:ret <- 0
	.loc	1 452 17                        @ ../../../ThirdParty/mbedTLS/library/sha1.c:452:17
	mov	r0, r5
	mov	r1, r7
.Ltmp1303:
	@DEBUG_VALUE: mbedtls_sha1_ret:input <- $r1
	mov	r2, r6
.Ltmp1304:
	@DEBUG_VALUE: mbedtls_sha1_ret:ilen <- $r2
	bl	mbedtls_sha1_update_ret
.Ltmp1305:
	.loc	1 455 17                        @ ../../../ThirdParty/mbedTLS/library/sha1.c:455:17
	mov	r0, r5
	mov	r1, r4
.Ltmp1306:
	@DEBUG_VALUE: mbedtls_sha1_ret:output <- $r1
	bl	mbedtls_sha1_finish_ret
.Ltmp1307:
	@DEBUG_LABEL: mbedtls_sha1_ret:exit
	.loc	1 459 5                         @ ../../../ThirdParty/mbedTLS/library/sha1.c:459:5
	mov	r0, r5
	bl	mbedtls_sha1_free
	movs	r0, #0
	.loc	1 461 5                         @ ../../../ThirdParty/mbedTLS/library/sha1.c:461:5
	add	sp, #92
	pop	{r4, r5, r6, r7, pc}
.Ltmp1308:
.Lfunc_end11:
	.size	mbedtls_sha1_ret, .Lfunc_end11-mbedtls_sha1_ret
	.cfi_endproc
	.cantunwind
	.fnend
                                        @ -- End function
	.section	.text.mbedtls_sha1,"ax",%progbits
	.hidden	mbedtls_sha1                    @ -- Begin function mbedtls_sha1
	.globl	mbedtls_sha1
	.p2align	1
	.type	mbedtls_sha1,%function
	.code	16                              @ @mbedtls_sha1
	.thumb_func
mbedtls_sha1:
.Lfunc_begin12:
	.loc	1 468 0                         @ ../../../ThirdParty/mbedTLS/library/sha1.c:468:0
	.fnstart
	.cfi_startproc
@ %bb.0:
	@DEBUG_VALUE: mbedtls_sha1:input <- $r0
	@DEBUG_VALUE: mbedtls_sha1:input <- $r0
	@DEBUG_VALUE: mbedtls_sha1:ilen <- $r1
	@DEBUG_VALUE: mbedtls_sha1:ilen <- $r1
	@DEBUG_VALUE: mbedtls_sha1:output <- $r2
	@DEBUG_VALUE: mbedtls_sha1:output <- $r2
	@DEBUG_VALUE: mbedtls_sha1:output <- $r2
	@DEBUG_VALUE: mbedtls_sha1:ilen <- $r1
	@DEBUG_VALUE: mbedtls_sha1:input <- $r0
	.save	{r7, lr}
	push	{r7, lr}
	.cfi_def_cfa_offset 8
	.cfi_offset lr, -4
	.cfi_offset r7, -8
.Ltmp1309:
	.loc	1 469 5 prologue_end            @ ../../../ThirdParty/mbedTLS/library/sha1.c:469:5
	bl	mbedtls_sha1_ret
.Ltmp1310:
	@DEBUG_VALUE: mbedtls_sha1:output <- [DW_OP_LLVM_entry_value 1] $r2
	@DEBUG_VALUE: mbedtls_sha1:ilen <- [DW_OP_LLVM_entry_value 1] $r1
	@DEBUG_VALUE: mbedtls_sha1:input <- [DW_OP_LLVM_entry_value 1] $r0
	.loc	1 470 1                         @ ../../../ThirdParty/mbedTLS/library/sha1.c:470:1
	pop	{r7, pc}
.Ltmp1311:
.Lfunc_end12:
	.size	mbedtls_sha1, .Lfunc_end12-mbedtls_sha1
	.cfi_endproc
	.cantunwind
	.fnend
                                        @ -- End function
	.section	.text.mbedtls_sha1_self_test,"ax",%progbits
	.hidden	mbedtls_sha1_self_test          @ -- Begin function mbedtls_sha1_self_test
	.globl	mbedtls_sha1_self_test
	.p2align	2
	.type	mbedtls_sha1_self_test,%function
	.code	16                              @ @mbedtls_sha1_self_test
	.thumb_func
mbedtls_sha1_self_test:
.Lfunc_begin13:
	.loc	1 506 0                         @ ../../../ThirdParty/mbedTLS/library/sha1.c:506:0
	.fnstart
	.cfi_startproc
@ %bb.0:
	@DEBUG_VALUE: mbedtls_sha1_self_test:verbose <- $r0
	.save	{r4, r5, r6, r7, lr}
	push	{r4, r5, r6, r7, lr}
	.cfi_def_cfa_offset 20
	.cfi_offset lr, -4
	.cfi_offset r7, -8
	.cfi_offset r6, -12
	.cfi_offset r5, -16
	.cfi_offset r4, -20
	.pad	#508
	sub	sp, #508
	.pad	#508
	sub	sp, #508
	.pad	#132
	sub	sp, #132
	.cfi_def_cfa_offset 1168
	mov	r4, r0
.Ltmp1312:
	@DEBUG_VALUE: mbedtls_sha1_self_test:ret <- 0
	@DEBUG_VALUE: mbedtls_sha1_self_test:verbose <- $r4
	add	r0, sp, #12
.Ltmp1313:
	.loc	1 512 5 prologue_end            @ ../../../ThirdParty/mbedTLS/library/sha1.c:512:5
	bl	mbedtls_sha1_init
	movs	r5, #0
.Ltmp1314:
	@DEBUG_VALUE: mbedtls_sha1_self_test:i <- 0
	.loc	1 0 5 is_stmt 0                 @ ../../../ThirdParty/mbedTLS/library/sha1.c:0:5
	movs	r0, #97
	str	r0, [sp, #8]                    @ 4-byte Spill
	movs	r6, #20
	movs	r0, #57
	str	r0, [sp, #4]                    @ 4-byte Spill
	b	.LBB13_2
.Ltmp1315:
.LBB13_1:                               @   in Loop: Header=BB13_2 Depth=1
	@DEBUG_VALUE: mbedtls_sha1_self_test:i <- $r5
	@DEBUG_VALUE: mbedtls_sha1_self_test:verbose <- $r4
	@DEBUG_VALUE: mbedtls_sha1_self_test:ret <- 0
	.loc	1 517 25 is_stmt 1              @ ../../../ThirdParty/mbedTLS/library/sha1.c:517:25
	adds	r5, r5, #1
.Ltmp1316:
	@DEBUG_VALUE: mbedtls_sha1_self_test:i <- $r5
	@DEBUG_VALUE: mbedtls_sha1_self_test:ret <- 0
	.loc	1 517 5 is_stmt 0               @ ../../../ThirdParty/mbedTLS/library/sha1.c:517:5
	cmp	r5, #3
	beq	.LBB13_13
.Ltmp1317:
.LBB13_2:                               @ =>This Loop Header: Depth=1
                                        @     Child Loop BB13_6 Depth 2
	@DEBUG_VALUE: mbedtls_sha1_self_test:verbose <- $r4
	@DEBUG_VALUE: mbedtls_sha1_self_test:ret <- 0
	@DEBUG_VALUE: mbedtls_sha1_self_test:i <- $r5
	.loc	1 519 13 is_stmt 1              @ ../../../ThirdParty/mbedTLS/library/sha1.c:519:13
	cbz	r4, .LBB13_4
.Ltmp1318:
@ %bb.3:                                @   in Loop: Header=BB13_2 Depth=1
	@DEBUG_VALUE: mbedtls_sha1_self_test:i <- $r5
	@DEBUG_VALUE: mbedtls_sha1_self_test:verbose <- $r4
	@DEBUG_VALUE: mbedtls_sha1_self_test:ret <- 0
	.loc	1 520 53                        @ ../../../ThirdParty/mbedTLS/library/sha1.c:520:53
	adds	r1, r5, #1
	.loc	1 520 13 is_stmt 0              @ ../../../ThirdParty/mbedTLS/library/sha1.c:520:13
	adr	r0, .LCPI13_0
	bl	__2printf
.Ltmp1319:
.LBB13_4:                               @   in Loop: Header=BB13_2 Depth=1
	@DEBUG_VALUE: mbedtls_sha1_self_test:i <- $r5
	@DEBUG_VALUE: mbedtls_sha1_self_test:verbose <- $r4
	@DEBUG_VALUE: mbedtls_sha1_self_test:ret <- 0
	.loc	1 0 13                          @ ../../../ThirdParty/mbedTLS/library/sha1.c:0:13
	add	r0, sp, #12
.Ltmp1320:
	.loc	1 522 21 is_stmt 1              @ ../../../ThirdParty/mbedTLS/library/sha1.c:522:21
	bl	mbedtls_sha1_starts_ret
.Ltmp1321:
	@DEBUG_VALUE: mbedtls_sha1_self_test:ret <- 0
	.loc	1 525 13                        @ ../../../ThirdParty/mbedTLS/library/sha1.c:525:13
	cmp	r5, #2
	bne	.LBB13_7
.Ltmp1322:
@ %bb.5:                                @   in Loop: Header=BB13_2 Depth=1
	@DEBUG_VALUE: mbedtls_sha1_self_test:i <- $r5
	@DEBUG_VALUE: mbedtls_sha1_self_test:verbose <- $r4
	@DEBUG_VALUE: mbedtls_sha1_self_test:ret <- 0
	@DEBUG_VALUE: mbedtls_sha1_self_test:buflen <- 1000
	.loc	1 0 13 is_stmt 0                @ ../../../ThirdParty/mbedTLS/library/sha1.c:0:13
	add	r0, sp, #124
.Ltmp1323:
	.loc	1 527 13 is_stmt 1              @ ../../../ThirdParty/mbedTLS/library/sha1.c:527:13
	movw	r1, #1000
	ldr	r2, [sp, #8]                    @ 4-byte Reload
	bl	__aeabi_memset4
.Ltmp1324:
	@DEBUG_VALUE: mbedtls_sha1_self_test:j <- 0
	.loc	1 0 13 is_stmt 0                @ ../../../ThirdParty/mbedTLS/library/sha1.c:0:13
