	.text
	.syntax unified
	.eabi_attribute	67, "2.09"	@ Tag_conformance
	.cpu	cortex-m23
	.eabi_attribute	6, 16	@ Tag_CPU_arch
	.eabi_attribute	7, 77	@ Tag_CPU_arch_profile
	.eabi_attribute	8, 0	@ Tag_ARM_ISA_use
	.eabi_attribute	9, 3	@ Tag_THUMB_ISA_use
	.eabi_attribute	34, 0	@ Tag_CPU_unaligned_access
	.eabi_attribute	17, 1	@ Tag_ABI_PCS_GOT_use
	.eabi_attribute	20, 2	@ Tag_ABI_FP_denormal
	.eabi_attribute	21, 0	@ Tag_ABI_FP_exceptions
	.eabi_attribute	23, 1	@ Tag_ABI_FP_number_model
	.eabi_attribute	24, 1	@ Tag_ABI_align_needed
	.eabi_attribute	25, 1	@ Tag_ABI_align_preserved
	.eabi_attribute	38, 1	@ Tag_ABI_FP_16bit_format
	.eabi_attribute	18, 2	@ Tag_ABI_PCS_wchar_t
	.eabi_attribute	26, 1	@ Tag_ABI_enum_size
	.eabi_attribute	14, 0	@ Tag_ABI_PCS_R9_use
	.file	"sha256.c"
	.file	1 "C:\\" "Keil_v5\\ARM\\ARMCLANG\\Bin\\..\\include\\stdint.h"
	.file	2 "C:\\Users\\shw26\\OneDrive\\Desktop\\2021\\2021-1\\\354\272\241\354\212\244\355\206\244\353\224\224\354\236\220\354\235\2702\\Nuvoton\\M2351_BSP_v3.00.004\\M2351Series_BSP_CMSIS_V3.00.004\\MyProject\\PulseMonitoring\\Secure" "../../../ThirdParty/mbedTLS/library/sha256.c"
	.file	3 "C:\\" "Keil_v5\\ARM\\ARMCLANG\\Bin\\..\\include\\stddef.h"
	.section	.text.mbedtls_sha256_init,"ax",%progbits
	.hidden	mbedtls_sha256_init             @ -- Begin function mbedtls_sha256_init
	.globl	mbedtls_sha256_init
	.p2align	1
	.type	mbedtls_sha256_init,%function
	.code	16                              @ @mbedtls_sha256_init
	.thumb_func
mbedtls_sha256_init:
.Lfunc_begin0:
	.loc	2 82 0                          @ ../../../ThirdParty/mbedTLS/library/sha256.c:82:0
	.fnstart
	.cfi_sections .debug_frame
	.cfi_startproc
@ %bb.0:
	@DEBUG_VALUE: mbedtls_sha256_init:ctx <- $r0
	@DEBUG_VALUE: mbedtls_sha256_init:ctx <- $r0
	.save	{r7, lr}
	push	{r7, lr}
	.cfi_def_cfa_offset 8
	.cfi_offset lr, -4
	.cfi_offset r7, -8
	movs	r1, #108
	@DEBUG_VALUE: mbedtls_sha256_init:ctx <- $r0
.Ltmp0:
	.loc	2 85 5 prologue_end             @ ../../../ThirdParty/mbedTLS/library/sha256.c:85:5
	bl	__aeabi_memclr4
.Ltmp1:
	@DEBUG_VALUE: mbedtls_sha256_init:ctx <- [DW_OP_LLVM_entry_value 1] $r0
	.loc	2 86 1                          @ ../../../ThirdParty/mbedTLS/library/sha256.c:86:1
	pop	{r7, pc}
.Ltmp2:
.Lfunc_end0:
	.size	mbedtls_sha256_init, .Lfunc_end0-mbedtls_sha256_init
	.cfi_endproc
	.cantunwind
	.fnend
                                        @ -- End function
	.section	.text.mbedtls_sha256_free,"ax",%progbits
	.hidden	mbedtls_sha256_free             @ -- Begin function mbedtls_sha256_free
	.globl	mbedtls_sha256_free
	.p2align	1
	.type	mbedtls_sha256_free,%function
	.code	16                              @ @mbedtls_sha256_free
	.thumb_func
mbedtls_sha256_free:
.Lfunc_begin1:
	.loc	2 89 0                          @ ../../../ThirdParty/mbedTLS/library/sha256.c:89:0
	.fnstart
	.cfi_startproc
@ %bb.0:
	@DEBUG_VALUE: mbedtls_sha256_free:ctx <- $r0
	@DEBUG_VALUE: mbedtls_sha256_free:ctx <- $r0
	.save	{r7, lr}
	push	{r7, lr}
	.cfi_def_cfa_offset 8
	.cfi_offset lr, -4
	.cfi_offset r7, -8
.Ltmp3:
	.loc	2 90 9 prologue_end             @ ../../../ThirdParty/mbedTLS/library/sha256.c:90:9
	cbz	r0, .LBB1_2
.Ltmp4:
@ %bb.1:
	@DEBUG_VALUE: mbedtls_sha256_free:ctx <- $r0
	.loc	2 0 9 is_stmt 0                 @ ../../../ThirdParty/mbedTLS/library/sha256.c:0:9
	movs	r1, #108
	.loc	2 93 5 is_stmt 1                @ ../../../ThirdParty/mbedTLS/library/sha256.c:93:5
	bl	mbedtls_platform_zeroize
.Ltmp5:
	@DEBUG_VALUE: mbedtls_sha256_free:ctx <- [DW_OP_LLVM_entry_value 1] $r0
.LBB1_2:
	.loc	2 94 1                          @ ../../../ThirdParty/mbedTLS/library/sha256.c:94:1
	pop	{r7, pc}
.Ltmp6:
.Lfunc_end1:
	.size	mbedtls_sha256_free, .Lfunc_end1-mbedtls_sha256_free
	.cfi_endproc
	.cantunwind
	.fnend
                                        @ -- End function
	.section	.text.mbedtls_sha256_clone,"ax",%progbits
	.hidden	mbedtls_sha256_clone            @ -- Begin function mbedtls_sha256_clone
	.globl	mbedtls_sha256_clone
	.p2align	1
	.type	mbedtls_sha256_clone,%function
	.code	16                              @ @mbedtls_sha256_clone
	.thumb_func
mbedtls_sha256_clone:
.Lfunc_begin2:
	.loc	2 98 0                          @ ../../../ThirdParty/mbedTLS/library/sha256.c:98:0
	.fnstart
	.cfi_startproc
@ %bb.0:
	@DEBUG_VALUE: mbedtls_sha256_clone:dst <- $r0
	@DEBUG_VALUE: mbedtls_sha256_clone:dst <- $r0
	@DEBUG_VALUE: mbedtls_sha256_clone:src <- $r1
	@DEBUG_VALUE: mbedtls_sha256_clone:src <- $r1
	.save	{r7, lr}
	push	{r7, lr}
	.cfi_def_cfa_offset 8
	.cfi_offset lr, -4
	.cfi_offset r7, -8
	movs	r2, #108
	@DEBUG_VALUE: mbedtls_sha256_clone:src <- $r1
	@DEBUG_VALUE: mbedtls_sha256_clone:dst <- $r0
.Ltmp7:
	.loc	2 102 12 prologue_end           @ ../../../ThirdParty/mbedTLS/library/sha256.c:102:12
	bl	__aeabi_memcpy4
.Ltmp8:
	@DEBUG_VALUE: mbedtls_sha256_clone:src <- [DW_OP_LLVM_entry_value 1] $r1
	@DEBUG_VALUE: mbedtls_sha256_clone:dst <- [DW_OP_LLVM_entry_value 1] $r0
	.loc	2 103 1                         @ ../../../ThirdParty/mbedTLS/library/sha256.c:103:1
	pop	{r7, pc}
.Ltmp9:
.Lfunc_end2:
	.size	mbedtls_sha256_clone, .Lfunc_end2-mbedtls_sha256_clone
	.cfi_endproc
	.cantunwind
	.fnend
                                        @ -- End function
	.section	.text.mbedtls_sha256_starts_ret,"ax",%progbits
	.hidden	mbedtls_sha256_starts_ret       @ -- Begin function mbedtls_sha256_starts_ret
	.globl	mbedtls_sha256_starts_ret
	.p2align	2
	.type	mbedtls_sha256_starts_ret,%function
	.code	16                              @ @mbedtls_sha256_starts_ret
	.thumb_func
mbedtls_sha256_starts_ret:
.Lfunc_begin3:
	.loc	2 109 0                         @ ../../../ThirdParty/mbedTLS/library/sha256.c:109:0
	.fnstart
	.cfi_startproc
@ %bb.0:
	@DEBUG_VALUE: mbedtls_sha256_starts_ret:ctx <- $r0
	@DEBUG_VALUE: mbedtls_sha256_starts_ret:ctx <- $r0
	@DEBUG_VALUE: mbedtls_sha256_starts_ret:is224 <- $r1
	@DEBUG_VALUE: mbedtls_sha256_starts_ret:is224 <- $r1
	.loc	2 141 16 prologue_end           @ ../../../ThirdParty/mbedTLS/library/sha256.c:141:16
	str	r1, [r0, #104]
	movs	r2, #0
	.loc	2 113 19                        @ ../../../ThirdParty/mbedTLS/library/sha256.c:113:19
	str	r2, [r0]
	.loc	2 114 19                        @ ../../../ThirdParty/mbedTLS/library/sha256.c:114:19
	str	r2, [r0, #4]
	cbz	r1, .LBB3_2
.Ltmp10:
@ %bb.1:
	@DEBUG_VALUE: mbedtls_sha256_starts_ret:is224 <- $r1
	@DEBUG_VALUE: mbedtls_sha256_starts_ret:ctx <- $r0
	.loc	2 0 19 is_stmt 0                @ ../../../ThirdParty/mbedTLS/library/sha256.c:0:19
	ldr	r3, __arm_cp.3_1
	b	.LBB3_3
.Ltmp11:
.LBB3_2:
	@DEBUG_VALUE: mbedtls_sha256_starts_ret:is224 <- $r1
	@DEBUG_VALUE: mbedtls_sha256_starts_ret:ctx <- $r0
	ldr	r3, __arm_cp.3_0
.Ltmp12:
.LBB3_3:
	@DEBUG_VALUE: mbedtls_sha256_starts_ret:is224 <- $r1
	@DEBUG_VALUE: mbedtls_sha256_starts_ret:ctx <- $r0
	str	r3, [r0, #36]
	cbz	r1, .LBB3_5
.Ltmp13:
@ %bb.4:
	@DEBUG_VALUE: mbedtls_sha256_starts_ret:is224 <- $r1
	@DEBUG_VALUE: mbedtls_sha256_starts_ret:ctx <- $r0
	ldr	r3, __arm_cp.3_3
	b	.LBB3_6
.Ltmp14:
.LBB3_5:
	@DEBUG_VALUE: mbedtls_sha256_starts_ret:is224 <- $r1
	@DEBUG_VALUE: mbedtls_sha256_starts_ret:ctx <- $r0
	ldr	r3, __arm_cp.3_2
.Ltmp15:
.LBB3_6:
	@DEBUG_VALUE: mbedtls_sha256_starts_ret:is224 <- $r1
	@DEBUG_VALUE: mbedtls_sha256_starts_ret:ctx <- $r0
	str	r3, [r0, #32]
	cbz	r1, .LBB3_8
.Ltmp16:
@ %bb.7:
	@DEBUG_VALUE: mbedtls_sha256_starts_ret:is224 <- $r1
	@DEBUG_VALUE: mbedtls_sha256_starts_ret:ctx <- $r0
	ldr	r3, __arm_cp.3_5
	b	.LBB3_9
.Ltmp17:
.LBB3_8:
	@DEBUG_VALUE: mbedtls_sha256_starts_ret:is224 <- $r1
	@DEBUG_VALUE: mbedtls_sha256_starts_ret:ctx <- $r0
	ldr	r3, __arm_cp.3_4
.Ltmp18:
.LBB3_9:
	@DEBUG_VALUE: mbedtls_sha256_starts_ret:is224 <- $r1
	@DEBUG_VALUE: mbedtls_sha256_starts_ret:ctx <- $r0
	str	r3, [r0, #28]
	cbz	r1, .LBB3_11
.Ltmp19:
@ %bb.10:
	@DEBUG_VALUE: mbedtls_sha256_starts_ret:is224 <- $r1
	@DEBUG_VALUE: mbedtls_sha256_starts_ret:ctx <- $r0
	ldr	r3, __arm_cp.3_7
	b	.LBB3_12
.Ltmp20:
.LBB3_11:
	@DEBUG_VALUE: mbedtls_sha256_starts_ret:is224 <- $r1
	@DEBUG_VALUE: mbedtls_sha256_starts_ret:ctx <- $r0
	ldr	r3, __arm_cp.3_6
.Ltmp21:
.LBB3_12:
	@DEBUG_VALUE: mbedtls_sha256_starts_ret:is224 <- $r1
	@DEBUG_VALUE: mbedtls_sha256_starts_ret:ctx <- $r0
	str	r3, [r0, #24]
	cbz	r1, .LBB3_14
.Ltmp22:
@ %bb.13:
	@DEBUG_VALUE: mbedtls_sha256_starts_ret:is224 <- $r1
	@DEBUG_VALUE: mbedtls_sha256_starts_ret:ctx <- $r0
	ldr	r3, __arm_cp.3_9
	b	.LBB3_15
.Ltmp23:
.LBB3_14:
	@DEBUG_VALUE: mbedtls_sha256_starts_ret:is224 <- $r1
	@DEBUG_VALUE: mbedtls_sha256_starts_ret:ctx <- $r0
	ldr	r3, __arm_cp.3_8
.Ltmp24:
.LBB3_15:
	@DEBUG_VALUE: mbedtls_sha256_starts_ret:is224 <- $r1
	@DEBUG_VALUE: mbedtls_sha256_starts_ret:ctx <- $r0
	str	r3, [r0, #20]
	cbz	r1, .LBB3_17
.Ltmp25:
@ %bb.16:
	@DEBUG_VALUE: mbedtls_sha256_starts_ret:is224 <- $r1
	@DEBUG_VALUE: mbedtls_sha256_starts_ret:ctx <- $r0
	ldr	r3, __arm_cp.3_11
	b	.LBB3_18
.Ltmp26:
.LBB3_17:
	@DEBUG_VALUE: mbedtls_sha256_starts_ret:is224 <- $r1
	@DEBUG_VALUE: mbedtls_sha256_starts_ret:ctx <- $r0
	ldr	r3, __arm_cp.3_10
.Ltmp27:
.LBB3_18:
	@DEBUG_VALUE: mbedtls_sha256_starts_ret:is224 <- $r1
	@DEBUG_VALUE: mbedtls_sha256_starts_ret:ctx <- $r0
	str	r3, [r0, #16]
	cbz	r1, .LBB3_20
.Ltmp28:
@ %bb.19:
	@DEBUG_VALUE: mbedtls_sha256_starts_ret:is224 <- $r1
	@DEBUG_VALUE: mbedtls_sha256_starts_ret:ctx <- $r0
	ldr	r3, __arm_cp.3_13
	b	.LBB3_21
.Ltmp29:
.LBB3_20:
	@DEBUG_VALUE: mbedtls_sha256_starts_ret:is224 <- $r1
	@DEBUG_VALUE: mbedtls_sha256_starts_ret:ctx <- $r0
	ldr	r3, __arm_cp.3_12
.Ltmp30:
.LBB3_21:
	@DEBUG_VALUE: mbedtls_sha256_starts_ret:is224 <- $r1
	@DEBUG_VALUE: mbedtls_sha256_starts_ret:ctx <- $r0
	str	r3, [r0, #12]
	cbz	r1, .LBB3_23
.Ltmp31:
@ %bb.22:
	@DEBUG_VALUE: mbedtls_sha256_starts_ret:is224 <- $r1
	@DEBUG_VALUE: mbedtls_sha256_starts_ret:ctx <- $r0
	ldr	r1, __arm_cp.3_15
.Ltmp32:
	@DEBUG_VALUE: mbedtls_sha256_starts_ret:is224 <- [DW_OP_LLVM_entry_value 1] $r1
	b	.LBB3_24
.Ltmp33:
.LBB3_23:
	@DEBUG_VALUE: mbedtls_sha256_starts_ret:is224 <- $r1
	@DEBUG_VALUE: mbedtls_sha256_starts_ret:ctx <- $r0
	ldr	r1, __arm_cp.3_14
.Ltmp34:
	@DEBUG_VALUE: mbedtls_sha256_starts_ret:is224 <- [DW_OP_LLVM_entry_value 1] $r1
.LBB3_24:
	@DEBUG_VALUE: mbedtls_sha256_starts_ret:ctx <- $r0
	@DEBUG_VALUE: mbedtls_sha256_starts_ret:is224 <- [DW_OP_LLVM_entry_value 1] $r1
	str	r1, [r0, #8]
.Ltmp35:
	.loc	2 143 5 is_stmt 1               @ ../../../ThirdParty/mbedTLS/library/sha256.c:143:5
	mov	r0, r2
.Ltmp36:
	@DEBUG_VALUE: mbedtls_sha256_starts_ret:ctx <- [DW_OP_LLVM_entry_value 1] $r0
	bx	lr
.Ltmp37:
	.p2align	2
@ %bb.25:
	.loc	2 0 5 is_stmt 0                 @ ../../../ThirdParty/mbedTLS/library/sha256.c:0:5
__arm_cp.3_0:
	.long	1541459225                      @ 0x5be0cd19
.Lcpi_end0:
	.size	__arm_cp.3_0, .Lcpi_end0-__arm_cp.3_0
__arm_cp.3_1:
	.long	3204075428                      @ 0xbefa4fa4
.Lcpi_end1:
	.size	__arm_cp.3_1, .Lcpi_end1-__arm_cp.3_1
__arm_cp.3_2:
	.long	528734635                       @ 0x1f83d9ab
.Lcpi_end2:
	.size	__arm_cp.3_2, .Lcpi_end2-__arm_cp.3_2
__arm_cp.3_3:
	.long	1694076839                      @ 0x64f98fa7
.Lcpi_end3:
	.size	__arm_cp.3_3, .Lcpi_end3-__arm_cp.3_3
__arm_cp.3_4:
	.long	2600822924                      @ 0x9b05688c
.Lcpi_end4:
	.size	__arm_cp.3_4, .Lcpi_end4-__arm_cp.3_4
__arm_cp.3_5:
	.long	1750603025                      @ 0x68581511
.Lcpi_end5:
	.size	__arm_cp.3_5, .Lcpi_end5-__arm_cp.3_5
__arm_cp.3_6:
	.long	1359893119                      @ 0x510e527f
.Lcpi_end6:
	.size	__arm_cp.3_6, .Lcpi_end6-__arm_cp.3_6
__arm_cp.3_7:
	.long	4290775857                      @ 0xffc00b31
.Lcpi_end7:
	.size	__arm_cp.3_7, .Lcpi_end7-__arm_cp.3_7
__arm_cp.3_8:
	.long	2773480762                      @ 0xa54ff53a
.Lcpi_end8:
	.size	__arm_cp.3_8, .Lcpi_end8-__arm_cp.3_8
__arm_cp.3_9:
	.long	4144912697                      @ 0xf70e5939
.Lcpi_end9:
	.size	__arm_cp.3_9, .Lcpi_end9-__arm_cp.3_9
__arm_cp.3_10:
	.long	1013904242                      @ 0x3c6ef372
.Lcpi_end10:
	.size	__arm_cp.3_10, .Lcpi_end10-__arm_cp.3_10
__arm_cp.3_11:
	.long	812702999                       @ 0x3070dd17
.Lcpi_end11:
	.size	__arm_cp.3_11, .Lcpi_end11-__arm_cp.3_11
__arm_cp.3_12:
	.long	3144134277                      @ 0xbb67ae85
.Lcpi_end12:
	.size	__arm_cp.3_12, .Lcpi_end12-__arm_cp.3_12
__arm_cp.3_13:
	.long	914150663                       @ 0x367cd507
.Lcpi_end13:
	.size	__arm_cp.3_13, .Lcpi_end13-__arm_cp.3_13
__arm_cp.3_14:
	.long	1779033703                      @ 0x6a09e667
.Lcpi_end14:
	.size	__arm_cp.3_14, .Lcpi_end14-__arm_cp.3_14
__arm_cp.3_15:
	.long	3238371032                      @ 0xc1059ed8
.Lcpi_end15:
	.size	__arm_cp.3_15, .Lcpi_end15-__arm_cp.3_15
.Lfunc_end3:
	.size	mbedtls_sha256_starts_ret, .Lfunc_end3-mbedtls_sha256_starts_ret
	.cfi_endproc
	.cantunwind
	.fnend
                                        @ -- End function
	.section	.text.mbedtls_sha256_starts,"ax",%progbits
	.hidden	mbedtls_sha256_starts           @ -- Begin function mbedtls_sha256_starts
	.globl	mbedtls_sha256_starts
	.p2align	1
	.type	mbedtls_sha256_starts,%function
	.code	16                              @ @mbedtls_sha256_starts
	.thumb_func
mbedtls_sha256_starts:
.Lfunc_begin4:
	.loc	2 149 0 is_stmt 1               @ ../../../ThirdParty/mbedTLS/library/sha256.c:149:0
	.fnstart
	.cfi_startproc
@ %bb.0:
	@DEBUG_VALUE: mbedtls_sha256_starts:ctx <- $r0
	@DEBUG_VALUE: mbedtls_sha256_starts:ctx <- $r0
	@DEBUG_VALUE: mbedtls_sha256_starts:is224 <- $r1
	@DEBUG_VALUE: mbedtls_sha256_starts:is224 <- $r1
	@DEBUG_VALUE: mbedtls_sha256_starts:is224 <- $r1
	@DEBUG_VALUE: mbedtls_sha256_starts:ctx <- $r0
	.save	{r7, lr}
	push	{r7, lr}
	.cfi_def_cfa_offset 8
	.cfi_offset lr, -4
	.cfi_offset r7, -8
.Ltmp38:
	.loc	2 150 5 prologue_end            @ ../../../ThirdParty/mbedTLS/library/sha256.c:150:5
	bl	mbedtls_sha256_starts_ret
.Ltmp39:
	@DEBUG_VALUE: mbedtls_sha256_starts:is224 <- [DW_OP_LLVM_entry_value 1] $r1
	@DEBUG_VALUE: mbedtls_sha256_starts:ctx <- [DW_OP_LLVM_entry_value 1] $r0
	.loc	2 151 1                         @ ../../../ThirdParty/mbedTLS/library/sha256.c:151:1
	pop	{r7, pc}
.Ltmp40:
.Lfunc_end4:
	.size	mbedtls_sha256_starts, .Lfunc_end4-mbedtls_sha256_starts
	.cfi_endproc
	.cantunwind
	.fnend
                                        @ -- End function
	.section	.text.mbedtls_internal_sha256_process,"ax",%progbits
	.hidden	mbedtls_internal_sha256_process @ -- Begin function mbedtls_internal_sha256_process
	.globl	mbedtls_internal_sha256_process
	.p2align	2
	.type	mbedtls_internal_sha256_process,%function
	.code	16                              @ @mbedtls_internal_sha256_process
	.thumb_func
mbedtls_internal_sha256_process:
.Lfunc_begin5:
	.loc	2 202 0                         @ ../../../ThirdParty/mbedTLS/library/sha256.c:202:0
	.fnstart
	.cfi_startproc
@ %bb.0:
	@DEBUG_VALUE: mbedtls_internal_sha256_process:ctx <- $r0
	@DEBUG_VALUE: mbedtls_internal_sha256_process:data <- $r1
	.save	{r4, r5, r6, r7, lr}
	push	{r4, r5, r6, r7, lr}
	.cfi_def_cfa_offset 20
	.cfi_offset lr, -4
	.cfi_offset r7, -8
	.cfi_offset r6, -12
	.cfi_offset r5, -16
	.cfi_offset r4, -20
	.pad	#400
	sub	sp, #400
	.cfi_def_cfa_offset 420
	mov	r2, r0
.Ltmp41:
	@DEBUG_VALUE: mbedtls_internal_sha256_process:i <- 0
	@DEBUG_VALUE: mbedtls_internal_sha256_process:data <- $r1
	@DEBUG_VALUE: mbedtls_internal_sha256_process:ctx <- $r2
	.loc	2 210 5 prologue_end            @ ../../../ThirdParty/mbedTLS/library/sha256.c:210:5
	adds	r2, #8
.Ltmp42:
	.loc	2 0 5 is_stmt 0                 @ ../../../ThirdParty/mbedTLS/library/sha256.c:0:5
	add	r0, sp, #112
	str	r2, [sp]                        @ 4-byte Spill
.Ltmp43:
	.loc	2 211 14 is_stmt 1              @ ../../../ThirdParty/mbedTLS/library/sha256.c:211:14
	ldm	r2!, {r3, r4, r5, r6}
	stm	r0!, {r3, r4, r5, r6}
	ldm	r2!, {r3, r4, r5, r6}
	stm	r0!, {r3, r4, r5, r6}
	movs	r0, #0
.Ltmp44:
	@DEBUG_VALUE: mbedtls_internal_sha256_process:i <- undef
.LBB5_1:                                @ =>This Inner Loop Header: Depth=1
	@DEBUG_VALUE: mbedtls_internal_sha256_process:data <- $r1
	@DEBUG_VALUE: mbedtls_internal_sha256_process:i <- undef
	.loc	2 235 9                         @ ../../../ThirdParty/mbedTLS/library/sha256.c:235:9
	ldrb	r2, [r1, r0]
	lsls	r2, r2, #24
	adds	r3, r1, r0
	ldrb	r4, [r3, #1]
	lsls	r4, r4, #16
	adds	r2, r4, r2
	ldrb	r4, [r3, #2]
	lsls	r4, r4, #8
	adds	r2, r2, r4
	ldrb	r3, [r3, #3]
	adds	r2, r2, r3
	add	r3, sp, #144
	str	r2, [r3, r0]
.Ltmp45:
	@DEBUG_VALUE: mbedtls_internal_sha256_process:i <- [DW_OP_plus_uconst 1, DW_OP_stack_value] undef
	.loc	2 234 19                        @ ../../../ThirdParty/mbedTLS/library/sha256.c:234:19
	adds	r0, r0, #4
.Ltmp46:
	.loc	2 234 5 is_stmt 0               @ ../../../ThirdParty/mbedTLS/library/sha256.c:234:5
	cmp	r0, #64
	bne	.LBB5_1
.Ltmp47:
@ %bb.2:
	@DEBUG_VALUE: mbedtls_internal_sha256_process:data <- $r1
	@DEBUG_VALUE: mbedtls_internal_sha256_process:i <- 0
	.loc	2 0 5                           @ ../../../ThirdParty/mbedTLS/library/sha256.c:0:5
	movs	r7, #0
	ldr	r0, [sp, #124]
	str	r0, [sp, #48]                   @ 4-byte Spill
	ldr	r2, [sp, #120]
	ldr	r0, [sp, #116]
	str	r0, [sp, #84]                   @ 4-byte Spill
	ldr	r3, [sp, #112]
	ldr	r0, [sp, #132]
	str	r0, [sp, #80]                   @ 4-byte Spill
	ldr	r0, [sp, #136]
	str	r0, [sp, #64]                   @ 4-byte Spill
	ldr	r6, [sp, #128]
	ldr	r4, [sp, #140]
.Ltmp48:
.LBB5_3:                                @ =>This Inner Loop Header: Depth=1
	@DEBUG_VALUE: mbedtls_internal_sha256_process:i <- undef
	str	r2, [sp, #52]                   @ 4-byte Spill
	str	r7, [sp, #44]                   @ 4-byte Spill
	ldr	r0, [sp, #84]                   @ 4-byte Reload
.Ltmp49:
	.loc	2 239 9 is_stmt 1               @ ../../../ThirdParty/mbedTLS/library/sha256.c:239:9
	mov	r1, r0
.Ltmp50:
	@DEBUG_VALUE: mbedtls_internal_sha256_process:data <- [DW_OP_LLVM_entry_value 1] $r1
	ands	r1, r3
	orrs	r0, r3
	ands	r0, r2
	orrs	r0, r1
	movs	r2, #11
	str	r2, [sp, #108]                  @ 4-byte Spill
	mov	r1, r6
	rors	r1, r2
	movs	r5, #6
	str	r5, [sp, #100]                  @ 4-byte Spill
	mov	r2, r6
	rors	r2, r5
	eors	r2, r1
	movs	r5, #25
	str	r5, [sp, #104]                  @ 4-byte Spill
	mov	r1, r6
	str	r6, [sp, #76]                   @ 4-byte Spill
	rors	r1, r5
	eors	r1, r2
	ldr	r5, .LCPI5_1
	ldr	r2, [r5, r7]
	adds	r2, r2, r4
	adds	r2, r2, r1
	add	r4, sp, #144
	str	r4, [sp, #56]                   @ 4-byte Spill
	mov	r1, r3
	ldr	r3, [r4, r7]
	adds	r2, r2, r3
	ldr	r3, [sp, #80]                   @ 4-byte Reload
	ldr	r4, [sp, #64]                   @ 4-byte Reload
	eors	r3, r4
	ands	r3, r6
	eors	r3, r4
	adds	r7, r2, r3
.Ltmp51:
	@DEBUG_VALUE: mbedtls_internal_sha256_process:temp1 <- $r7
	adds	r0, r0, r7
	movs	r5, #13
	mov	r2, r1
	str	r1, [sp, #72]                   @ 4-byte Spill
	mov	r3, r1
	rors	r3, r5
	str	r5, [sp, #96]                   @ 4-byte Spill
	movs	r1, #2
	mov	r4, r2
	rors	r4, r1
	str	r1, [sp, #92]                   @ 4-byte Spill
	eors	r4, r3
	movs	r6, #22
	mov	r3, r2
	rors	r3, r6
	str	r6, [sp, #88]                   @ 4-byte Spill
	eors	r3, r4
	adds	r4, r0, r3
.Ltmp52:
	.loc	2 240 9                         @ ../../../ThirdParty/mbedTLS/library/sha256.c:240:9
	mov	r0, r4
	ands	r0, r2
	mov	r3, r4
	orrs	r3, r2
	ldr	r2, [sp, #84]                   @ 4-byte Reload
	ands	r3, r2
	orrs	r3, r0
	mov	r0, r4
	mov	r2, r4
	rors	r0, r5
	rors	r4, r1
	eors	r4, r0
	mov	r0, r2
	rors	r0, r6
	eors	r0, r4
	adds	r0, r0, r3
.Ltmp53:
	@DEBUG_VALUE: mbedtls_internal_sha256_process:temp2 <- undef
	.loc	2 239 9                         @ ../../../ThirdParty/mbedTLS/library/sha256.c:239:9
	str	r0, [sp, #36]                   @ 4-byte Spill
	ldr	r0, [sp, #48]                   @ 4-byte Reload
	adds	r1, r0, r7
.Ltmp54:
	.loc	2 240 9                         @ ../../../ThirdParty/mbedTLS/library/sha256.c:240:9
	str	r1, [sp, #68]                   @ 4-byte Spill
	mov	r0, r1
	ldr	r6, [sp, #108]                  @ 4-byte Reload
	rors	r0, r6
	mov	r4, r1
	ldr	r7, [sp, #100]                  @ 4-byte Reload
.Ltmp55:
	rors	r4, r7
	eors	r4, r0
	mov	r0, r1
	ldr	r3, [sp, #104]                  @ 4-byte Reload
	rors	r0, r3
	eors	r0, r4
	ldr	r5, [sp, #80]                   @ 4-byte Reload
	mov	r4, r5
	ldr	r3, [sp, #76]                   @ 4-byte Reload
	eors	r4, r3
	ands	r4, r1
	eors	r4, r5
	ldr	r1, [sp, #64]                   @ 4-byte Reload
	adds	r4, r4, r1
.Ltmp56:
	.loc	2 239 9                         @ ../../../ThirdParty/mbedTLS/library/sha256.c:239:9
	ldr	r1, [sp, #44]                   @ 4-byte Reload
	ldr	r3, .LCPI5_1
	adds	r1, r3, r1
.Ltmp57:
	.loc	2 240 9                         @ ../../../ThirdParty/mbedTLS/library/sha256.c:240:9
	str	r1, [sp, #60]                   @ 4-byte Spill
	ldr	r5, [r1, #4]
	adds	r4, r4, r5
.Ltmp58:
	.loc	2 239 9                         @ ../../../ThirdParty/mbedTLS/library/sha256.c:239:9
	ldr	r1, [sp, #44]                   @ 4-byte Reload
	ldr	r3, [sp, #56]                   @ 4-byte Reload
	adds	r1, r3, r1
.Ltmp59:
	.loc	2 240 9                         @ ../../../ThirdParty/mbedTLS/library/sha256.c:240:9
	str	r1, [sp, #56]                   @ 4-byte Spill
	ldr	r1, [r1, #4]
	adds	r1, r4, r1
	adds	r4, r1, r0
.Ltmp60:
	@DEBUG_VALUE: mbedtls_internal_sha256_process:temp1 <- $r4
	ldr	r0, [sp, #36]                   @ 4-byte Reload
	adds	r5, r0, r4
.Ltmp61:
	.loc	2 241 9                         @ ../../../ThirdParty/mbedTLS/library/sha256.c:241:9
	mov	r0, r5
	str	r2, [sp, #40]                   @ 4-byte Spill
	ands	r0, r2
	mov	r1, r5
	orrs	r1, r2
	ldr	r2, [sp, #72]                   @ 4-byte Reload
	ands	r1, r2
	orrs	r1, r0
	mov	r0, r5
	ldr	r2, [sp, #96]                   @ 4-byte Reload
	rors	r0, r2
	mov	r3, r5
	ldr	r2, [sp, #92]                   @ 4-byte Reload
	rors	r3, r2
	eors	r3, r0
	mov	r0, r5
	mov	r2, r5
	ldr	r5, [sp, #88]                   @ 4-byte Reload
	rors	r0, r5
	eors	r0, r3
	adds	r1, r0, r1
.Ltmp62:
	@DEBUG_VALUE: mbedtls_internal_sha256_process:temp2 <- $r1
	.loc	2 240 9                         @ ../../../ThirdParty/mbedTLS/library/sha256.c:240:9
	ldr	r0, [sp, #52]                   @ 4-byte Reload
	adds	r5, r4, r0
.Ltmp63:
	.loc	2 241 9                         @ ../../../ThirdParty/mbedTLS/library/sha256.c:241:9
	str	r5, [sp, #64]                   @ 4-byte Spill
	mov	r0, r5
	rors	r0, r6
	mov	r4, r5
.Ltmp64:
	rors	r4, r7
	eors	r4, r0
	mov	r0, r5
	ldr	r3, [sp, #104]                  @ 4-byte Reload
	rors	r0, r3
	eors	r0, r4
	ldr	r4, [sp, #68]                   @ 4-byte Reload
	ldr	r3, [sp, #76]                   @ 4-byte Reload
	eors	r4, r3
	ands	r4, r5
	eors	r4, r3
	ldr	r3, [sp, #60]                   @ 4-byte Reload
	ldr	r5, [r3, #8]
	ldr	r3, [sp, #80]                   @ 4-byte Reload
	adds	r5, r5, r3
	ldr	r6, [sp, #56]                   @ 4-byte Reload
	ldr	r7, [r6, #8]
	adds	r5, r5, r7
	adds	r4, r5, r4
	adds	r4, r4, r0
.Ltmp65:
	@DEBUG_VALUE: mbedtls_internal_sha256_process:temp1 <- $r4
	adds	r5, r1, r4
.Ltmp66:
	.loc	2 242 9                         @ ../../../ThirdParty/mbedTLS/library/sha256.c:242:9
	str	r5, [sp, #80]                   @ 4-byte Spill
	mov	r0, r5
	str	r2, [sp, #48]                   @ 4-byte Spill
	ands	r0, r2
	mov	r1, r5
.Ltmp67:
	orrs	r1, r2
	ldr	r2, [sp, #40]                   @ 4-byte Reload
	ands	r1, r2
	orrs	r1, r0
	mov	r0, r5
	ldr	r2, [sp, #96]                   @ 4-byte Reload
	rors	r0, r2
	mov	r7, r5
	ldr	r3, [sp, #92]                   @ 4-byte Reload
	rors	r7, r3
	eors	r7, r0
	mov	r0, r5
	ldr	r5, [sp, #88]                   @ 4-byte Reload
	rors	r0, r5
	eors	r0, r7
	adds	r0, r0, r1
.Ltmp68:
	@DEBUG_VALUE: mbedtls_internal_sha256_process:temp2 <- $r0
	.loc	2 241 9                         @ ../../../ThirdParty/mbedTLS/library/sha256.c:241:9
	str	r0, [sp, #52]                   @ 4-byte Spill
.Ltmp69:
	@DEBUG_VALUE: mbedtls_internal_sha256_process:temp2 <- [DW_OP_plus_uconst 52] [$sp+0]
	@DEBUG_VALUE: mbedtls_internal_sha256_process:temp2 <- [DW_OP_plus_uconst 52] [$sp+0]
	@DEBUG_VALUE: mbedtls_internal_sha256_process:temp2 <- [DW_OP_plus_uconst 52] [$sp+0]
	ldr	r0, [sp, #84]                   @ 4-byte Reload
	adds	r1, r4, r0
.Ltmp70:
	.loc	2 242 9                         @ ../../../ThirdParty/mbedTLS/library/sha256.c:242:9
	str	r1, [sp, #84]                   @ 4-byte Spill
	mov	r0, r1
	ldr	r4, [sp, #108]                  @ 4-byte Reload
.Ltmp71:
	rors	r0, r4
	mov	r7, r1
	ldr	r4, [sp, #100]                  @ 4-byte Reload
	rors	r7, r4
	eors	r7, r0
	mov	r0, r1
	ldr	r4, [sp, #104]                  @ 4-byte Reload
	rors	r0, r4
	eors	r0, r7
	ldr	r7, [sp, #64]                   @ 4-byte Reload
	ldr	r4, [sp, #68]                   @ 4-byte Reload
	eors	r7, r4
	ands	r7, r1
	eors	r7, r4
	ldr	r4, [sp, #60]                   @ 4-byte Reload
	ldr	r1, [r4, #12]
	ldr	r5, [sp, #76]                   @ 4-byte Reload
	adds	r1, r1, r5
	ldr	r5, [r6, #12]
	adds	r1, r1, r5
	adds	r1, r1, r7
	adds	r7, r1, r0
.Ltmp72:
	@DEBUG_VALUE: mbedtls_internal_sha256_process:temp1 <- $r7
	ldr	r0, [sp, #52]                   @ 4-byte Reload
.Ltmp73:
	@DEBUG_VALUE: mbedtls_internal_sha256_process:temp2 <- $r0
	adds	r6, r0, r7
.Ltmp74:
	.loc	2 243 9                         @ ../../../ThirdParty/mbedTLS/library/sha256.c:243:9
	str	r6, [sp, #76]                   @ 4-byte Spill
	mov	r0, r6
.Ltmp75:
	.loc	2 0 9 is_stmt 0                 @ ../../../ThirdParty/mbedTLS/library/sha256.c:0:9
	ldr	r1, [sp, #80]                   @ 4-byte Reload
	.loc	2 243 9                         @ ../../../ThirdParty/mbedTLS/library/sha256.c:243:9
	ands	r0, r1
	mov	r5, r6
	orrs	r5, r1
	ldr	r1, [sp, #48]                   @ 4-byte Reload
	ands	r5, r1
	orrs	r5, r0
	mov	r0, r6
	rors	r0, r2
	mov	r1, r6
	rors	r1, r3
	eors	r1, r0
	mov	r0, r6
	ldr	r2, [sp, #88]                   @ 4-byte Reload
	rors	r0, r2
	eors	r0, r1
	adds	r6, r0, r5
.Ltmp76:
	@DEBUG_VALUE: mbedtls_internal_sha256_process:temp2 <- $r6
	.loc	2 242 9 is_stmt 1               @ ../../../ThirdParty/mbedTLS/library/sha256.c:242:9
	ldr	r0, [sp, #72]                   @ 4-byte Reload
	adds	r3, r7, r0
.Ltmp77:
	.loc	2 243 9                         @ ../../../ThirdParty/mbedTLS/library/sha256.c:243:9
	str	r3, [sp, #72]                   @ 4-byte Spill
	mov	r0, r3
	ldr	r1, [sp, #108]                  @ 4-byte Reload
	rors	r0, r1
	mov	r1, r3
	ldr	r7, [sp, #100]                  @ 4-byte Reload
.Ltmp78:
	rors	r1, r7
	eors	r1, r0
	mov	r0, r3
	ldr	r2, [sp, #104]                  @ 4-byte Reload
	rors	r0, r2
	eors	r0, r1
	ldr	r1, [sp, #84]                   @ 4-byte Reload
	ldr	r2, [sp, #64]                   @ 4-byte Reload
	eors	r1, r2
	ands	r1, r3
	eors	r1, r2
	ldr	r5, [r4, #16]
	ldr	r2, [sp, #68]                   @ 4-byte Reload
	adds	r2, r5, r2
	ldr	r4, [sp, #56]                   @ 4-byte Reload
	ldr	r5, [r4, #16]
	adds	r2, r2, r5
	adds	r1, r2, r1
	adds	r0, r1, r0
.Ltmp79:
	@DEBUG_VALUE: mbedtls_internal_sha256_process:temp1 <- $r0
	adds	r6, r6, r0
.Ltmp80:
	.loc	2 244 9                         @ ../../../ThirdParty/mbedTLS/library/sha256.c:244:9
	mov	r1, r6
	ldr	r3, [sp, #76]                   @ 4-byte Reload
	ands	r1, r3
	mov	r2, r6
	orrs	r2, r3
	ldr	r5, [sp, #80]                   @ 4-byte Reload
	ands	r2, r5
	orrs	r2, r1
	mov	r1, r6
	ldr	r5, [sp, #96]                   @ 4-byte Reload
	rors	r1, r5
	mov	r5, r6
	ldr	r3, [sp, #92]                   @ 4-byte Reload
	rors	r5, r3
	eors	r5, r1
	mov	r1, r6
	ldr	r3, [sp, #88]                   @ 4-byte Reload
	rors	r1, r3
	eors	r1, r5
	adds	r1, r1, r2
.Ltmp81:
	@DEBUG_VALUE: mbedtls_internal_sha256_process:temp2 <- $r1
	.loc	2 243 9                         @ ../../../ThirdParty/mbedTLS/library/sha256.c:243:9
	str	r1, [sp, #52]                   @ 4-byte Spill
.Ltmp82:
	@DEBUG_VALUE: mbedtls_internal_sha256_process:temp2 <- [DW_OP_plus_uconst 52] [$sp+0]
	@DEBUG_VALUE: mbedtls_internal_sha256_process:temp2 <- [DW_OP_plus_uconst 52] [$sp+0]
	@DEBUG_VALUE: mbedtls_internal_sha256_process:temp2 <- [DW_OP_plus_uconst 52] [$sp+0]
	ldr	r1, [sp, #40]                   @ 4-byte Reload
	adds	r5, r0, r1
.Ltmp83:
	.loc	2 244 9                         @ ../../../ThirdParty/mbedTLS/library/sha256.c:244:9
	str	r5, [sp, #68]                   @ 4-byte Spill
	mov	r0, r5
.Ltmp84:
	ldr	r1, [sp, #108]                  @ 4-byte Reload
	rors	r0, r1
	mov	r1, r5
	rors	r1, r7
	eors	r1, r0
	mov	r0, r5
	ldr	r3, [sp, #104]                  @ 4-byte Reload
	rors	r0, r3
	eors	r0, r1
	ldr	r1, [sp, #72]                   @ 4-byte Reload
	ldr	r2, [sp, #84]                   @ 4-byte Reload
	eors	r1, r2
	ands	r1, r5
	eors	r1, r2
	ldr	r3, [sp, #60]                   @ 4-byte Reload
	ldr	r5, [r3, #20]
	ldr	r2, [sp, #64]                   @ 4-byte Reload
	adds	r3, r5, r2
	ldr	r5, [r4, #20]
	adds	r3, r3, r5
	adds	r1, r3, r1
	adds	r3, r1, r0
.Ltmp85:
	@DEBUG_VALUE: mbedtls_internal_sha256_process:temp1 <- $r3
	ldr	r0, [sp, #52]                   @ 4-byte Reload
.Ltmp86:
	@DEBUG_VALUE: mbedtls_internal_sha256_process:temp2 <- $r0
	adds	r7, r0, r3
.Ltmp87:
	.loc	2 245 9                         @ ../../../ThirdParty/mbedTLS/library/sha256.c:245:9
	mov	r0, r7
.Ltmp88:
	ands	r0, r6
	mov	r1, r7
	orrs	r1, r6
	ldr	r2, [sp, #76]                   @ 4-byte Reload
	ands	r1, r2
	orrs	r1, r0
	mov	r0, r7
	ldr	r2, [sp, #96]                   @ 4-byte Reload
	rors	r0, r2
	mov	r2, r7
	ldr	r4, [sp, #92]                   @ 4-byte Reload
	rors	r2, r4
	eors	r2, r0
	mov	r0, r7
	ldr	r4, [sp, #88]                   @ 4-byte Reload
	rors	r0, r4
	eors	r0, r2
	adds	r0, r0, r1
.Ltmp89:
	@DEBUG_VALUE: mbedtls_internal_sha256_process:temp2 <- $r0
	.loc	2 244 9                         @ ../../../ThirdParty/mbedTLS/library/sha256.c:244:9
	ldr	r1, [sp, #48]                   @ 4-byte Reload
	adds	r5, r3, r1
.Ltmp90:
	.loc	2 245 9                         @ ../../../ThirdParty/mbedTLS/library/sha256.c:245:9
	mov	r1, r5
	ldr	r2, [sp, #108]                  @ 4-byte Reload
	rors	r1, r2
	mov	r2, r5
	ldr	r3, [sp, #100]                  @ 4-byte Reload
.Ltmp91:
	rors	r2, r3
	eors	r2, r1
	mov	r1, r5
	ldr	r3, [sp, #104]                  @ 4-byte Reload
	rors	r1, r3
	eors	r1, r2
	ldr	r2, [sp, #68]                   @ 4-byte Reload
	ldr	r3, [sp, #72]                   @ 4-byte Reload
	eors	r2, r3
	ands	r2, r5
	eors	r2, r3
	ldr	r3, [sp, #60]                   @ 4-byte Reload
	ldr	r3, [r3, #24]
	ldr	r4, [sp, #84]                   @ 4-byte Reload
	adds	r3, r3, r4
	ldr	r4, [sp, #56]                   @ 4-byte Reload
	ldr	r4, [r4, #24]
	adds	r3, r3, r4
	adds	r2, r3, r2
	adds	r2, r2, r1
.Ltmp92:
	@DEBUG_VALUE: mbedtls_internal_sha256_process:temp1 <- $r2
	adds	r4, r0, r2
.Ltmp93:
	.loc	2 246 9                         @ ../../../ThirdParty/mbedTLS/library/sha256.c:246:9
	mov	r0, r4
.Ltmp94:
	ands	r0, r7
	mov	r1, r4
	orrs	r1, r7
	str	r6, [sp, #48]                   @ 4-byte Spill
	ands	r1, r6
	orrs	r1, r0
	mov	r0, r4
	ldr	r3, [sp, #96]                   @ 4-byte Reload
	rors	r0, r3
	mov	r3, r4
	ldr	r6, [sp, #92]                   @ 4-byte Reload
	rors	r3, r6
	eors	r3, r0
	str	r4, [sp, #84]                   @ 4-byte Spill
	mov	r0, r4
	ldr	r4, [sp, #88]                   @ 4-byte Reload
	rors	r0, r4
	eors	r0, r3
	adds	r6, r0, r1
.Ltmp95:
	@DEBUG_VALUE: mbedtls_internal_sha256_process:temp2 <- $r6
	.loc	2 245 9                         @ ../../../ThirdParty/mbedTLS/library/sha256.c:245:9
	ldr	r0, [sp, #80]                   @ 4-byte Reload
	adds	r3, r2, r0
.Ltmp96:
	.loc	2 246 9                         @ ../../../ThirdParty/mbedTLS/library/sha256.c:246:9
	mov	r1, r3
	ldr	r2, [sp, #108]                  @ 4-byte Reload
.Ltmp97:
	rors	r1, r2
	mov	r2, r3
	ldr	r4, [sp, #100]                  @ 4-byte Reload
	rors	r2, r4
	eors	r2, r1
	mov	r1, r3
	ldr	r4, [sp, #104]                  @ 4-byte Reload
	rors	r1, r4
	eors	r1, r2
	str	r5, [sp, #64]                   @ 4-byte Spill
	mov	r2, r5
	ldr	r5, [sp, #68]                   @ 4-byte Reload
	eors	r2, r5
	str	r3, [sp, #80]                   @ 4-byte Spill
	ands	r2, r3
	eors	r2, r5
	ldr	r3, [sp, #60]                   @ 4-byte Reload
	ldr	r3, [r3, #28]
	ldr	r4, [sp, #72]                   @ 4-byte Reload
	adds	r3, r4, r3
	ldr	r4, [sp, #56]                   @ 4-byte Reload
	ldr	r4, [r4, #28]
	adds	r3, r3, r4
	mov	r4, r5
	adds	r2, r3, r2
	adds	r1, r2, r1
.Ltmp98:
	@DEBUG_VALUE: mbedtls_internal_sha256_process:temp1 <- $r1
	adds	r3, r6, r1
	ldr	r2, [sp, #76]                   @ 4-byte Reload
	adds	r6, r1, r2
.Ltmp99:
	@DEBUG_VALUE: mbedtls_internal_sha256_process:i <- [DW_OP_plus_uconst 8, DW_OP_stack_value] undef
	.loc	2 0 9 is_stmt 0                 @ ../../../ThirdParty/mbedTLS/library/sha256.c:0:9
	mov	r2, r7
	ldr	r7, [sp, #44]                   @ 4-byte Reload
.Ltmp100:
	.loc	2 237 19 is_stmt 1              @ ../../../ThirdParty/mbedTLS/library/sha256.c:237:19
	adds	r7, #32
.Ltmp101:
	.loc	2 237 5 is_stmt 0               @ ../../../ThirdParty/mbedTLS/library/sha256.c:237:5
	cmp	r7, #32
	bne	.LBB5_5
	b	.LBB5_3
.Ltmp102:
	.p2align	2
@ %bb.4:
	.loc	2 0 5                           @ ../../../ThirdParty/mbedTLS/library/sha256.c:0:5
.LCPI5_1:
	.long	K
	.p2align	1
.LBB5_5:
.Ltmp103:
	@DEBUG_VALUE: mbedtls_internal_sha256_process:temp1 <- $r1
	ldr	r1, [sp, #64]                   @ 4-byte Reload
.Ltmp104:
	str	r1, [sp, #136]
	str	r6, [sp, #128]
	str	r4, [sp, #140]
	ldr	r5, [sp, #80]                   @ 4-byte Reload
	str	r5, [sp, #132]
	ldr	r1, [sp, #48]                   @ 4-byte Reload
	str	r1, [sp, #124]
	str	r2, [sp, #52]                   @ 4-byte Spill
	str	r2, [sp, #120]
	ldr	r1, [sp, #84]                   @ 4-byte Reload
	str	r1, [sp, #116]
	str	r3, [sp, #112]
	movs	r1, #8
	movs	r2, #0
.Ltmp105:
	@DEBUG_VALUE: mbedtls_internal_sha256_process:i <- 16
.LBB5_6:                                @ =>This Inner Loop Header: Depth=1
	@DEBUG_VALUE: mbedtls_internal_sha256_process:i <- undef
	str	r3, [sp, #72]                   @ 4-byte Spill
	str	r6, [sp, #76]                   @ 4-byte Spill
	str	r5, [sp, #80]                   @ 4-byte Spill
	str	r2, [sp, #40]                   @ 4-byte Spill
	str	r1, [sp, #24]                   @ 4-byte Spill
	add	r0, sp, #144
.Ltmp106:
	.loc	2 251 9 is_stmt 1               @ ../../../ThirdParty/mbedTLS/library/sha256.c:251:9
	ldr	r3, [r0, r2]
	adds	r1, r0, r2
	ldr	r2, [r1, #36]
	adds	r3, r3, r2
	ldr	r4, [r1, #56]
	movs	r0, #19
	str	r0, [sp, #56]                   @ 4-byte Spill
	mov	r2, r4
	rors	r2, r0
	lsrs	r5, r4, #10
	eors	r5, r2
	movs	r0, #17
	str	r0, [sp, #60]                   @ 4-byte Spill
	rors	r4, r0
	eors	r4, r5
	adds	r5, r3, r4
	ldr	r0, [r1, #4]
	movs	r2, #18
	str	r2, [sp, #28]                   @ 4-byte Spill
	mov	r3, r0
	rors	r3, r2
	lsrs	r7, r0, #3
	eors	r7, r3
	movs	r2, #7
	mov	r6, r0
	rors	r6, r2
	str	r2, [sp, #20]                   @ 4-byte Spill
	eors	r6, r7
	adds	r3, r5, r6
	str	r3, [sp, #44]                   @ 4-byte Spill
	str	r3, [r1, #64]
.Ltmp107:
	.loc	2 252 9                         @ ../../../ThirdParty/mbedTLS/library/sha256.c:252:9
	ldr	r5, [r1, #40]
	adds	r0, r0, r5
	ldr	r5, [r1, #60]
	mov	r6, r5
	ldr	r3, [sp, #56]                   @ 4-byte Reload
	rors	r6, r3
	lsrs	r7, r5, #10
	eors	r7, r6
	ldr	r4, [sp, #60]                   @ 4-byte Reload
	rors	r5, r4
	eors	r5, r7
	adds	r0, r0, r5
	str	r0, [sp, #32]                   @ 4-byte Spill
	ldr	r6, [r1, #8]
	mov	r5, r6
	str	r6, [sp, #36]                   @ 4-byte Spill
	ldr	r7, [sp, #28]                   @ 4-byte Reload
	rors	r5, r7
	lsrs	r0, r6, #3
	eors	r0, r5
	rors	r6, r2
	eors	r6, r0
	ldr	r0, [sp, #32]                   @ 4-byte Reload
	adds	r2, r0, r6
	str	r2, [sp, #8]                    @ 4-byte Spill
	str	r2, [r1, #68]
.Ltmp108:
	.loc	2 254 9                         @ ../../../ThirdParty/mbedTLS/library/sha256.c:254:9
	mov	r0, r2
	rors	r0, r3
	lsrs	r5, r2, #10
	eors	r5, r0
	mov	r0, r2
	rors	r0, r4
	eors	r0, r5
	ldr	r5, [r1, #48]
.Ltmp109:
	.loc	2 253 9                         @ ../../../ThirdParty/mbedTLS/library/sha256.c:253:9
	ldr	r6, [r1, #12]
.Ltmp110:
	.loc	2 254 9                         @ ../../../ThirdParty/mbedTLS/library/sha256.c:254:9
	adds	r5, r6, r5
	adds	r0, r5, r0
	str	r0, [sp, #32]                   @ 4-byte Spill
	ldr	r2, [r1, #16]
	mov	r5, r2
	rors	r5, r7
	lsrs	r0, r2, #3
	eors	r0, r5
	mov	r5, r2
	ldr	r4, [sp, #20]                   @ 4-byte Reload
	rors	r5, r4
	eors	r5, r0
	ldr	r0, [sp, #32]                   @ 4-byte Reload
	adds	r0, r0, r5
	str	r0, [sp, #32]                   @ 4-byte Spill
	str	r0, [r1, #76]
	ldr	r5, [sp, #44]                   @ 4-byte Reload
.Ltmp111:
	.loc	2 253 9                         @ ../../../ThirdParty/mbedTLS/library/sha256.c:253:9
	mov	r0, r5
	rors	r0, r3
	lsrs	r3, r5, #10
	eors	r3, r0
	mov	r0, r5
	ldr	r5, [sp, #60]                   @ 4-byte Reload
	rors	r0, r5
	eors	r0, r3
	ldr	r3, [r1, #44]
	adds	r0, r3, r0
	ldr	r3, [sp, #36]                   @ 4-byte Reload
	adds	r0, r0, r3
	mov	r3, r6
	rors	r3, r7
	lsrs	r5, r6, #3
	eors	r5, r3
	rors	r6, r4
	eors	r6, r5
	adds	r5, r0, r6
	str	r5, [sp, #4]                    @ 4-byte Spill
	str	r5, [r1, #72]
.Ltmp112:
	.loc	2 255 9                         @ ../../../ThirdParty/mbedTLS/library/sha256.c:255:9
	mov	r0, r5
	ldr	r3, [sp, #56]                   @ 4-byte Reload
	rors	r0, r3
	lsrs	r3, r5, #10
	eors	r3, r0
	mov	r0, r5
	ldr	r6, [sp, #60]                   @ 4-byte Reload
	rors	r0, r6
	eors	r0, r3
	ldr	r3, [r1, #52]
	adds	r2, r2, r3
	adds	r0, r2, r0
	ldr	r2, [r1, #20]
	mov	r3, r2
	rors	r3, r7
	lsrs	r5, r2, #3
	eors	r5, r3
	rors	r2, r4
	eors	r2, r5
	adds	r7, r0, r2
	str	r7, [r1, #80]
	ldr	r3, [sp, #32]                   @ 4-byte Reload
.Ltmp113:
	.loc	2 256 9                         @ ../../../ThirdParty/mbedTLS/library/sha256.c:256:9
	mov	r0, r3
	ldr	r2, [sp, #56]                   @ 4-byte Reload
	rors	r0, r2
	lsrs	r2, r3, #10
	eors	r2, r0
	mov	r0, r3
	rors	r0, r6
	eors	r0, r2
	ldr	r2, [r1, #56]
	ldr	r3, [r1, #20]
	adds	r2, r3, r2
	adds	r0, r2, r0
	ldr	r5, [r1, #24]
	mov	r2, r5
	ldr	r6, [sp, #28]                   @ 4-byte Reload
	rors	r2, r6
	lsrs	r3, r5, #3
	eors	r3, r2
	mov	r2, r5
	rors	r2, r4
	eors	r2, r3
	adds	r0, r0, r2
	str	r0, [sp, #36]                   @ 4-byte Spill
	str	r0, [r1, #84]
.Ltmp114:
	.loc	2 257 9                         @ ../../../ThirdParty/mbedTLS/library/sha256.c:257:9
	str	r7, [sp, #12]                   @ 4-byte Spill
	mov	r0, r7
	ldr	r2, [sp, #56]                   @ 4-byte Reload
	rors	r0, r2
	lsrs	r2, r7, #10
	eors	r2, r0
	mov	r0, r7
	ldr	r3, [sp, #60]                   @ 4-byte Reload
	rors	r0, r3
	eors	r0, r2
	ldr	r2, [r1, #60]
	adds	r2, r5, r2
	adds	r0, r2, r0
	ldr	r2, [r1, #28]
	mov	r3, r2
	mov	r7, r6
	rors	r3, r6
	lsrs	r5, r2, #3
	eors	r5, r3
.Ltmp115:
	.loc	2 258 9                         @ ../../../ThirdParty/mbedTLS/library/sha256.c:258:9
	ldr	r3, [sp, #44]                   @ 4-byte Reload
	adds	r3, r2, r3
.Ltmp116:
	.loc	2 257 9                         @ ../../../ThirdParty/mbedTLS/library/sha256.c:257:9
	rors	r2, r4
	eors	r2, r5
	adds	r0, r0, r2
	str	r0, [sp, #16]                   @ 4-byte Spill
	str	r0, [r1, #88]
	ldr	r6, [sp, #36]                   @ 4-byte Reload
.Ltmp117:
	.loc	2 258 9                         @ ../../../ThirdParty/mbedTLS/library/sha256.c:258:9
	mov	r0, r6
	ldr	r2, [sp, #56]                   @ 4-byte Reload
	rors	r0, r2
	lsrs	r2, r6, #10
	eors	r2, r0
	mov	r0, r6
	ldr	r5, [sp, #60]                   @ 4-byte Reload
	rors	r0, r5
	eors	r0, r2
	adds	r0, r3, r0
	ldr	r2, [r1, #32]
	mov	r3, r2
	rors	r3, r7
	lsrs	r5, r2, #3
	eors	r5, r3
	rors	r2, r4
	eors	r2, r5
	adds	r0, r0, r2
	str	r0, [sp, #20]                   @ 4-byte Spill
	str	r0, [r1, #92]
	ldr	r1, [sp, #84]                   @ 4-byte Reload
.Ltmp118:
	.loc	2 251 9                         @ ../../../ThirdParty/mbedTLS/library/sha256.c:251:9
	mov	r0, r1
	ldr	r3, [sp, #72]                   @ 4-byte Reload
	ands	r0, r3
	orrs	r1, r3
	ldr	r2, [sp, #52]                   @ 4-byte Reload
	ands	r1, r2
	orrs	r1, r0
	mov	r0, r3
	ldr	r2, [sp, #96]                   @ 4-byte Reload
	rors	r0, r2
	mov	r2, r3
	ldr	r4, [sp, #92]                   @ 4-byte Reload
	rors	r2, r4
	eors	r2, r0
	mov	r0, r3
	ldr	r3, [sp, #88]                   @ 4-byte Reload
	rors	r0, r3
	mov	r6, r3
	eors	r0, r2
	adds	r0, r0, r1
.Ltmp119:
	@DEBUG_VALUE: mbedtls_internal_sha256_process:temp2 <- $r0
	.loc	2 0 9 is_stmt 0                 @ ../../../ThirdParty/mbedTLS/library/sha256.c:0:9
	ldr	r3, [sp, #76]                   @ 4-byte Reload
	.loc	2 251 9                         @ ../../../ThirdParty/mbedTLS/library/sha256.c:251:9
	mov	r1, r3
	ldr	r2, [sp, #108]                  @ 4-byte Reload
	rors	r1, r2
	mov	r2, r3
	ldr	r4, [sp, #100]                  @ 4-byte Reload
	rors	r2, r4
	eors	r2, r1
	mov	r1, r3
	mov	r5, r3
	ldr	r3, [sp, #104]                  @ 4-byte Reload
	rors	r1, r3
	eors	r1, r2
	ldr	r2, __arm_cp.5_0
	ldr	r3, [sp, #40]                   @ 4-byte Reload
	adds	r2, r2, r3
	str	r2, [sp, #60]                   @ 4-byte Spill
	ldr	r2, [r2, #64]
	ldr	r3, [sp, #68]                   @ 4-byte Reload
	adds	r2, r2, r3
	adds	r1, r2, r1
	ldr	r2, [sp, #80]                   @ 4-byte Reload
	ldr	r7, [sp, #64]                   @ 4-byte Reload
	eors	r2, r7
	ands	r2, r5
	eors	r2, r7
	adds	r1, r1, r2
	ldr	r2, [sp, #44]                   @ 4-byte Reload
	adds	r4, r1, r2
.Ltmp120:
	@DEBUG_VALUE: mbedtls_internal_sha256_process:temp1 <- $r4
	adds	r5, r0, r4
.Ltmp121:
	.loc	2 252 9 is_stmt 1               @ ../../../ThirdParty/mbedTLS/library/sha256.c:252:9
	mov	r0, r5
.Ltmp122:
	.loc	2 0 9 is_stmt 0                 @ ../../../ThirdParty/mbedTLS/library/sha256.c:0:9
	ldr	r3, [sp, #72]                   @ 4-byte Reload
	.loc	2 252 9                         @ ../../../ThirdParty/mbedTLS/library/sha256.c:252:9
	ands	r0, r3
	mov	r1, r5
	orrs	r1, r3
	ldr	r3, [sp, #84]                   @ 4-byte Reload
	ands	r1, r3
	orrs	r1, r0
	mov	r0, r5
	ldr	r3, [sp, #96]                   @ 4-byte Reload
	rors	r0, r3
	mov	r3, r5
	ldr	r2, [sp, #92]                   @ 4-byte Reload
	rors	r3, r2
	eors	r3, r0
	mov	r0, r5
	rors	r0, r6
	eors	r0, r3
	adds	r1, r0, r1
.Ltmp123:
	@DEBUG_VALUE: mbedtls_internal_sha256_process:temp2 <- $r1
	.loc	2 251 9 is_stmt 1               @ ../../../ThirdParty/mbedTLS/library/sha256.c:251:9
	ldr	r0, [sp, #48]                   @ 4-byte Reload
	adds	r2, r4, r0
.Ltmp124:
	.loc	2 252 9                         @ ../../../ThirdParty/mbedTLS/library/sha256.c:252:9
	str	r2, [sp, #68]                   @ 4-byte Spill
	mov	r0, r2
	ldr	r3, [sp, #108]                  @ 4-byte Reload
	rors	r0, r3
	mov	r3, r2
	ldr	r6, [sp, #100]                  @ 4-byte Reload
	rors	r3, r6
	eors	r3, r0
	mov	r0, r2
	ldr	r6, [sp, #104]                  @ 4-byte Reload
	rors	r0, r6
	eors	r0, r3
	ldr	r4, [sp, #80]                   @ 4-byte Reload
.Ltmp125:
	mov	r3, r4
	ldr	r6, [sp, #76]                   @ 4-byte Reload
	eors	r3, r6
	ands	r3, r2
	eors	r3, r4
	ldr	r6, [sp, #60]                   @ 4-byte Reload
	ldr	r4, [r6, #68]
	adds	r4, r4, r7
	adds	r3, r4, r3
	adds	r0, r3, r0
	ldr	r3, [sp, #8]                    @ 4-byte Reload
	adds	r2, r0, r3
.Ltmp126:
	@DEBUG_VALUE: mbedtls_internal_sha256_process:temp1 <- $r2
	adds	r4, r1, r2
.Ltmp127:
	.loc	2 253 9                         @ ../../../ThirdParty/mbedTLS/library/sha256.c:253:9
	mov	r0, r4
	str	r5, [sp, #44]                   @ 4-byte Spill
	ands	r0, r5
	mov	r1, r4
.Ltmp128:
	orrs	r1, r5
	ldr	r3, [sp, #72]                   @ 4-byte Reload
	ands	r1, r3
	orrs	r1, r0
	mov	r0, r4
	mov	r3, r4
	ldr	r7, [sp, #96]                   @ 4-byte Reload
	rors	r0, r7
	ldr	r5, [sp, #92]                   @ 4-byte Reload
	rors	r4, r5
	eors	r4, r0
	mov	r0, r3
	ldr	r5, [sp, #88]                   @ 4-byte Reload
	rors	r0, r5
	eors	r0, r4
	adds	r1, r0, r1
.Ltmp129:
	@DEBUG_VALUE: mbedtls_internal_sha256_process:temp2 <- $r1
	.loc	2 252 9                         @ ../../../ThirdParty/mbedTLS/library/sha256.c:252:9
	ldr	r0, [sp, #52]                   @ 4-byte Reload
	adds	r2, r2, r0
.Ltmp130:
	.loc	2 253 9                         @ ../../../ThirdParty/mbedTLS/library/sha256.c:253:9
	str	r2, [sp, #64]                   @ 4-byte Spill
	mov	r0, r2
	ldr	r4, [sp, #108]                  @ 4-byte Reload
	rors	r0, r4
	mov	r4, r2
	ldr	r5, [sp, #100]                  @ 4-byte Reload
	rors	r4, r5
	eors	r4, r0
	mov	r0, r2
	ldr	r5, [sp, #104]                  @ 4-byte Reload
	rors	r0, r5
	eors	r0, r4
	ldr	r4, [sp, #68]                   @ 4-byte Reload
	ldr	r5, [sp, #76]                   @ 4-byte Reload
	eors	r4, r5
	ands	r4, r2
	eors	r4, r5
	ldr	r5, [r6, #72]
	ldr	r2, [sp, #80]                   @ 4-byte Reload
	adds	r5, r5, r2
	adds	r4, r5, r4
	adds	r0, r4, r0
	ldr	r2, [sp, #4]                    @ 4-byte Reload
	adds	r4, r0, r2
.Ltmp131:
	@DEBUG_VALUE: mbedtls_internal_sha256_process:temp1 <- $r4
	adds	r2, r1, r4
.Ltmp132:
	.loc	2 254 9                         @ ../../../ThirdParty/mbedTLS/library/sha256.c:254:9
	mov	r0, r2
	str	r3, [sp, #56]                   @ 4-byte Spill
	ands	r0, r3
	mov	r1, r2
.Ltmp133:
	orrs	r1, r3
	ldr	r3, [sp, #44]                   @ 4-byte Reload
	ands	r1, r3
	orrs	r1, r0
	mov	r0, r2
	rors	r0, r7
	mov	r7, r2
	ldr	r3, [sp, #92]                   @ 4-byte Reload
	rors	r7, r3
	eors	r7, r0
	mov	r0, r2
	mov	r5, r2
	ldr	r2, [sp, #88]                   @ 4-byte Reload
	rors	r0, r2
	eors	r0, r7
	adds	r0, r0, r1
.Ltmp134:
	@DEBUG_VALUE: mbedtls_internal_sha256_process:temp2 <- $r0
	.loc	2 253 9                         @ ../../../ThirdParty/mbedTLS/library/sha256.c:253:9
	str	r0, [sp, #80]                   @ 4-byte Spill
.Ltmp135:
	@DEBUG_VALUE: mbedtls_internal_sha256_process:temp2 <- [DW_OP_plus_uconst 80] [$sp+0]
	@DEBUG_VALUE: mbedtls_internal_sha256_process:temp2 <- [DW_OP_plus_uconst 80] [$sp+0]
	@DEBUG_VALUE: mbedtls_internal_sha256_process:temp2 <- [DW_OP_plus_uconst 80] [$sp+0]
	ldr	r0, [sp, #84]                   @ 4-byte Reload
	adds	r2, r4, r0
.Ltmp136:
	.loc	2 254 9                         @ ../../../ThirdParty/mbedTLS/library/sha256.c:254:9
	str	r2, [sp, #84]                   @ 4-byte Spill
	mov	r0, r2
	ldr	r1, [sp, #108]                  @ 4-byte Reload
	rors	r0, r1
	mov	r7, r2
	ldr	r1, [sp, #100]                  @ 4-byte Reload
	rors	r7, r1
	eors	r7, r0
	mov	r0, r2
	ldr	r3, [sp, #104]                  @ 4-byte Reload
	rors	r0, r3
	eors	r0, r7
	ldr	r7, [sp, #64]                   @ 4-byte Reload
	ldr	r1, [sp, #68]                   @ 4-byte Reload
	eors	r7, r1
	ands	r7, r2
	eors	r7, r1
	mov	r4, r6
.Ltmp137:
	ldr	r1, [r6, #76]
	ldr	r2, [sp, #76]                   @ 4-byte Reload
	adds	r1, r1, r2
	adds	r1, r1, r7
	adds	r0, r1, r0
	ldr	r1, [sp, #32]                   @ 4-byte Reload
	adds	r7, r0, r1
.Ltmp138:
	@DEBUG_VALUE: mbedtls_internal_sha256_process:temp1 <- $r7
	ldr	r0, [sp, #80]                   @ 4-byte Reload
.Ltmp139:
	@DEBUG_VALUE: mbedtls_internal_sha256_process:temp2 <- $r0
	adds	r6, r0, r7
.Ltmp140:
	.loc	2 255 9                         @ ../../../ThirdParty/mbedTLS/library/sha256.c:255:9
	str	r6, [sp, #80]                   @ 4-byte Spill
	mov	r0, r6
.Ltmp141:
	str	r5, [sp, #28]                   @ 4-byte Spill
	ands	r0, r5
	mov	r1, r6
	orrs	r1, r5
	ldr	r5, [sp, #56]                   @ 4-byte Reload
	ands	r1, r5
	orrs	r1, r0
	mov	r0, r6
	ldr	r5, [sp, #96]                   @ 4-byte Reload
	rors	r0, r5
	mov	r5, r6
	ldr	r2, [sp, #92]                   @ 4-byte Reload
	rors	r5, r2
	eors	r5, r0
	mov	r0, r6
	ldr	r6, [sp, #88]                   @ 4-byte Reload
	rors	r0, r6
	eors	r0, r5
	adds	r6, r0, r1
.Ltmp142:
	@DEBUG_VALUE: mbedtls_internal_sha256_process:temp2 <- $r6
	.loc	2 254 9                         @ ../../../ThirdParty/mbedTLS/library/sha256.c:254:9
	ldr	r0, [sp, #72]                   @ 4-byte Reload
	adds	r5, r7, r0
.Ltmp143:
	.loc	2 255 9                         @ ../../../ThirdParty/mbedTLS/library/sha256.c:255:9
	str	r5, [sp, #76]                   @ 4-byte Spill
	mov	r0, r5
	ldr	r1, [sp, #108]                  @ 4-byte Reload
	rors	r0, r1
	mov	r1, r5
	ldr	r2, [sp, #100]                  @ 4-byte Reload
	rors	r1, r2
	eors	r1, r0
	mov	r0, r5
	rors	r0, r3
	eors	r0, r1
	ldr	r1, [sp, #84]                   @ 4-byte Reload
	ldr	r2, [sp, #64]                   @ 4-byte Reload
	eors	r1, r2
	ands	r1, r5
	eors	r1, r2
	ldr	r5, [r4, #80]
	ldr	r2, [sp, #68]                   @ 4-byte Reload
	adds	r2, r5, r2
	adds	r1, r2, r1
	ldr	r2, [sp, #12]                   @ 4-byte Reload
	adds	r1, r1, r2
	adds	r0, r1, r0
.Ltmp144:
	@DEBUG_VALUE: mbedtls_internal_sha256_process:temp1 <- $r0
	adds	r7, r6, r0
.Ltmp145:
	.loc	2 256 9                         @ ../../../ThirdParty/mbedTLS/library/sha256.c:256:9
	mov	r1, r7
	ldr	r3, [sp, #80]                   @ 4-byte Reload
	ands	r1, r3
	mov	r2, r7
	orrs	r2, r3
	ldr	r3, [sp, #28]                   @ 4-byte Reload
	ands	r2, r3
	orrs	r2, r1
	mov	r1, r7
	ldr	r3, [sp, #96]                   @ 4-byte Reload
	rors	r1, r3
	mov	r5, r7
	ldr	r6, [sp, #92]                   @ 4-byte Reload
.Ltmp146:
	rors	r5, r6
	eors	r5, r1
	mov	r1, r7
	ldr	r4, [sp, #88]                   @ 4-byte Reload
	rors	r1, r4
	eors	r1, r5
	adds	r2, r1, r2
.Ltmp147:
	@DEBUG_VALUE: mbedtls_internal_sha256_process:temp2 <- $r2
	.loc	2 255 9                         @ ../../../ThirdParty/mbedTLS/library/sha256.c:255:9
	ldr	r1, [sp, #44]                   @ 4-byte Reload
	adds	r5, r0, r1
.Ltmp148:
	.loc	2 256 9                         @ ../../../ThirdParty/mbedTLS/library/sha256.c:256:9
	str	r5, [sp, #68]                   @ 4-byte Spill
	mov	r0, r5
.Ltmp149:
	ldr	r1, [sp, #108]                  @ 4-byte Reload
	rors	r0, r1
	mov	r1, r5
	ldr	r3, [sp, #100]                  @ 4-byte Reload
	rors	r1, r3
	eors	r1, r0
	mov	r0, r5
	ldr	r3, [sp, #104]                  @ 4-byte Reload
	rors	r0, r3
	eors	r0, r1
	ldr	r1, [sp, #76]                   @ 4-byte Reload
	ldr	r3, [sp, #84]                   @ 4-byte Reload
	eors	r1, r3
	ands	r1, r5
	eors	r1, r3
	ldr	r3, [sp, #60]                   @ 4-byte Reload
	ldr	r5, [r3, #84]
	ldr	r3, [sp, #64]                   @ 4-byte Reload
	adds	r3, r5, r3
	adds	r1, r3, r1
	ldr	r3, [sp, #36]                   @ 4-byte Reload
	adds	r1, r1, r3
	adds	r3, r1, r0
.Ltmp150:
	@DEBUG_VALUE: mbedtls_internal_sha256_process:temp1 <- $r3
	adds	r5, r2, r3
.Ltmp151:
	.loc	2 257 9                         @ ../../../ThirdParty/mbedTLS/library/sha256.c:257:9
	mov	r0, r5
	ands	r0, r7
	mov	r1, r5
	orrs	r1, r7
	ldr	r2, [sp, #80]                   @ 4-byte Reload
.Ltmp152:
	ands	r1, r2
	orrs	r1, r0
	mov	r0, r5
	ldr	r2, [sp, #96]                   @ 4-byte Reload
	rors	r0, r2
	mov	r2, r5
	rors	r2, r6
	eors	r2, r0
	mov	r0, r5
	rors	r0, r4
	eors	r0, r2
	adds	r0, r0, r1
.Ltmp153:
	@DEBUG_VALUE: mbedtls_internal_sha256_process:temp2 <- $r0
	.loc	2 256 9                         @ ../../../ThirdParty/mbedTLS/library/sha256.c:256:9
	ldr	r1, [sp, #56]                   @ 4-byte Reload
	adds	r6, r3, r1
.Ltmp154:
	.loc	2 257 9                         @ ../../../ThirdParty/mbedTLS/library/sha256.c:257:9
	mov	r1, r6
	ldr	r2, [sp, #108]                  @ 4-byte Reload
	rors	r1, r2
	mov	r2, r6
	ldr	r3, [sp, #100]                  @ 4-byte Reload
.Ltmp155:
	rors	r2, r3
	eors	r2, r1
	mov	r1, r6
	ldr	r3, [sp, #104]                  @ 4-byte Reload
	rors	r1, r3
	eors	r1, r2
	ldr	r2, [sp, #68]                   @ 4-byte Reload
	ldr	r3, [sp, #76]                   @ 4-byte Reload
	eors	r2, r3
	ands	r2, r6
	eors	r2, r3
	ldr	r3, [sp, #60]                   @ 4-byte Reload
	ldr	r3, [r3, #88]
	ldr	r4, [sp, #84]                   @ 4-byte Reload
	adds	r3, r3, r4
	ldr	r4, [sp, #16]                   @ 4-byte Reload
	adds	r3, r3, r4
	adds	r2, r3, r2
	adds	r2, r2, r1
.Ltmp156:
	@DEBUG_VALUE: mbedtls_internal_sha256_process:temp1 <- $r2
	adds	r4, r0, r2
.Ltmp157:
	.loc	2 258 9                         @ ../../../ThirdParty/mbedTLS/library/sha256.c:258:9
	mov	r0, r4
.Ltmp158:
	ands	r0, r5
	mov	r1, r4
	str	r5, [sp, #52]                   @ 4-byte Spill
	orrs	r1, r5
	str	r7, [sp, #48]                   @ 4-byte Spill
	ands	r1, r7
	orrs	r1, r0
	mov	r0, r4
	ldr	r3, [sp, #96]                   @ 4-byte Reload
	rors	r0, r3
	mov	r3, r4
	ldr	r5, [sp, #92]                   @ 4-byte Reload
	rors	r3, r5
	eors	r3, r0
	str	r4, [sp, #84]                   @ 4-byte Spill
	mov	r0, r4
	ldr	r4, [sp, #88]                   @ 4-byte Reload
	rors	r0, r4
	eors	r0, r3
	adds	r4, r0, r1
.Ltmp159:
	@DEBUG_VALUE: mbedtls_internal_sha256_process:temp2 <- $r4
	.loc	2 257 9                         @ ../../../ThirdParty/mbedTLS/library/sha256.c:257:9
	ldr	r0, [sp, #28]                   @ 4-byte Reload
	adds	r5, r2, r0
.Ltmp160:
	.loc	2 258 9                         @ ../../../ThirdParty/mbedTLS/library/sha256.c:258:9
	mov	r1, r5
	ldr	r2, [sp, #108]                  @ 4-byte Reload
.Ltmp161:
	rors	r1, r2
	mov	r2, r5
	ldr	r3, [sp, #100]                  @ 4-byte Reload
	rors	r2, r3
	eors	r2, r1
	mov	r1, r5
	ldr	r3, [sp, #104]                  @ 4-byte Reload
	rors	r1, r3
	eors	r1, r2
	str	r6, [sp, #64]                   @ 4-byte Spill
	mov	r2, r6
	ldr	r3, [sp, #68]                   @ 4-byte Reload
	eors	r2, r3
	ands	r2, r5
	eors	r2, r3
	ldr	r3, [sp, #60]                   @ 4-byte Reload
	ldr	r3, [r3, #92]
	ldr	r6, [sp, #76]                   @ 4-byte Reload
	adds	r3, r3, r6
	ldr	r6, [sp, #20]                   @ 4-byte Reload
	adds	r3, r3, r6
	adds	r2, r3, r2
	adds	r1, r2, r1
.Ltmp162:
	@DEBUG_VALUE: mbedtls_internal_sha256_process:temp1 <- $r1
	.loc	2 0 9 is_stmt 0                 @ ../../../ThirdParty/mbedTLS/library/sha256.c:0:9
	ldr	r2, [sp, #40]                   @ 4-byte Reload
	.loc	2 258 9                         @ ../../../ThirdParty/mbedTLS/library/sha256.c:258:9
	adds	r3, r4, r1
	ldr	r4, [sp, #80]                   @ 4-byte Reload
.Ltmp163:
	adds	r6, r1, r4
	ldr	r1, [sp, #24]                   @ 4-byte Reload
.Ltmp164:
	.loc	2 249 20 is_stmt 1              @ ../../../ThirdParty/mbedTLS/library/sha256.c:249:20
	adds	r2, #32
.Ltmp165:
	@DEBUG_VALUE: mbedtls_internal_sha256_process:i <- [DW_OP_plus_uconst 8, DW_OP_stack_value] undef
	adds	r1, #8
.Ltmp166:
	.loc	2 249 5 is_stmt 0               @ ../../../ThirdParty/mbedTLS/library/sha256.c:249:5
	cmp	r1, #56
	bhs	.LBB5_7
	b	.LBB5_6
.Ltmp167:
.LBB5_7:
	.loc	2 0 0                           @ ../../../ThirdParty/mbedTLS/library/sha256.c:0:0
	ldr	r0, [sp, #64]                   @ 4-byte Reload
	str	r0, [sp, #136]
	str	r6, [sp, #128]
	ldr	r0, [sp, #68]                   @ 4-byte Reload
	str	r0, [sp, #140]
	str	r5, [sp, #132]
	ldr	r0, [sp, #48]                   @ 4-byte Reload
	str	r0, [sp, #124]
	ldr	r0, [sp, #52]                   @ 4-byte Reload
	str	r0, [sp, #120]
	ldr	r0, [sp, #84]                   @ 4-byte Reload
	str	r0, [sp, #116]
	str	r3, [sp, #112]
.Ltmp168:
	@DEBUG_VALUE: mbedtls_internal_sha256_process:i <- 0
	movs	r0, #0
	ldr	r3, [sp]                        @ 4-byte Reload
.Ltmp169:
.LBB5_8:                                @ =>This Inner Loop Header: Depth=1
	@DEBUG_VALUE: mbedtls_internal_sha256_process:i <- undef
	add	r1, sp, #112
.Ltmp170:
	.loc	2 263 26 is_stmt 1              @ ../../../ThirdParty/mbedTLS/library/sha256.c:263:26
	ldr	r1, [r1, r0]
	.loc	2 263 23 is_stmt 0              @ ../../../ThirdParty/mbedTLS/library/sha256.c:263:23
	ldr	r2, [r3, r0]
	adds	r1, r2, r1
	str	r1, [r3, r0]
.Ltmp171:
	@DEBUG_VALUE: mbedtls_internal_sha256_process:i <- [DW_OP_plus_uconst 1, DW_OP_stack_value] undef
	.loc	2 262 19 is_stmt 1              @ ../../../ThirdParty/mbedTLS/library/sha256.c:262:19
	adds	r0, r0, #4
.Ltmp172:
	.loc	2 262 5 is_stmt 0               @ ../../../ThirdParty/mbedTLS/library/sha256.c:262:5
	cmp	r0, #32
	bne	.LBB5_8
.Ltmp173:
@ %bb.9:
	.loc	2 0 5                           @ ../../../ThirdParty/mbedTLS/library/sha256.c:0:5
	movs	r0, #0
	.loc	2 265 5 is_stmt 1               @ ../../../ThirdParty/mbedTLS/library/sha256.c:265:5
	add	sp, #400
	pop	{r4, r5, r6, r7, pc}
.Ltmp174:
	.p2align	2
@ %bb.10:
	.loc	2 0 5 is_stmt 0                 @ ../../../ThirdParty/mbedTLS/library/sha256.c:0:5
__arm_cp.5_0:
	.long	K
.Lcpi_end16:
	.size	__arm_cp.5_0, .Lcpi_end16-__arm_cp.5_0
.Lfunc_end5:
	.size	mbedtls_internal_sha256_process, .Lfunc_end5-mbedtls_internal_sha256_process
	.cfi_endproc
	.cantunwind
	.fnend
                                        @ -- End function
	.section	.text.mbedtls_sha256_process,"ax",%progbits
	.hidden	mbedtls_sha256_process          @ -- Begin function mbedtls_sha256_process
	.globl	mbedtls_sha256_process
	.p2align	1
	.type	mbedtls_sha256_process,%function
	.code	16                              @ @mbedtls_sha256_process
	.thumb_func
mbedtls_sha256_process:
.Lfunc_begin6:
	.loc	2 271 0 is_stmt 1               @ ../../../ThirdParty/mbedTLS/library/sha256.c:271:0
	.fnstart
	.cfi_startproc
@ %bb.0:
	@DEBUG_VALUE: mbedtls_sha256_process:ctx <- $r0
	@DEBUG_VALUE: mbedtls_sha256_process:ctx <- $r0
	@DEBUG_VALUE: mbedtls_sha256_process:data <- $r1
	@DEBUG_VALUE: mbedtls_sha256_process:data <- $r1
	@DEBUG_VALUE: mbedtls_sha256_process:data <- $r1
	@DEBUG_VALUE: mbedtls_sha256_process:ctx <- $r0
	.save	{r7, lr}
	push	{r7, lr}
	.cfi_def_cfa_offset 8
	.cfi_offset lr, -4
	.cfi_offset r7, -8
.Ltmp175:
	.loc	2 272 5 prologue_end            @ ../../../ThirdParty/mbedTLS/library/sha256.c:272:5
	bl	mbedtls_internal_sha256_process
.Ltmp176:
	@DEBUG_VALUE: mbedtls_sha256_process:data <- [DW_OP_LLVM_entry_value 1] $r1
	@DEBUG_VALUE: mbedtls_sha256_process:ctx <- [DW_OP_LLVM_entry_value 1] $r0
	.loc	2 273 1                         @ ../../../ThirdParty/mbedTLS/library/sha256.c:273:1
	pop	{r7, pc}
.Ltmp177:
.Lfunc_end6:
	.size	mbedtls_sha256_process, .Lfunc_end6-mbedtls_sha256_process
	.cfi_endproc
	.cantunwind
	.fnend
                                        @ -- End function
	.section	.text.mbedtls_sha256_update_ret,"ax",%progbits
	.hidden	mbedtls_sha256_update_ret       @ -- Begin function mbedtls_sha256_update_ret
	.globl	mbedtls_sha256_update_ret
	.p2align	1
	.type	mbedtls_sha256_update_ret,%function
	.code	16                              @ @mbedtls_sha256_update_ret
	.thumb_func
mbedtls_sha256_update_ret:
.Lfunc_begin7:
	.loc	2 283 0                         @ ../../../ThirdParty/mbedTLS/library/sha256.c:283:0
	.fnstart
	.cfi_startproc
@ %bb.0:
	@DEBUG_VALUE: mbedtls_sha256_update_ret:ctx <- $r0
	@DEBUG_VALUE: mbedtls_sha256_update_ret:input <- $r1
	@DEBUG_VALUE: mbedtls_sha256_update_ret:ilen <- $r2
	@DEBUG_VALUE: mbedtls_sha256_update_ret:ilen <- $r2
	@DEBUG_VALUE: mbedtls_sha256_update_ret:input <- $r1
	@DEBUG_VALUE: mbedtls_sha256_update_ret:ctx <- $r0
	.save	{r4, r5, r6, r7, lr}
	push	{r4, r5, r6, r7, lr}
	.cfi_def_cfa_offset 20
	.cfi_offset lr, -4
	.cfi_offset r7, -8
	.cfi_offset r6, -12
	.cfi_offset r5, -16
	.cfi_offset r4, -20
	.pad	#12
	sub	sp, #12
	.cfi_def_cfa_offset 32
.Ltmp178:
	.loc	2 291 9 prologue_end            @ ../../../ThirdParty/mbedTLS/library/sha256.c:291:9
	cbz	r2, .LBB7_10
.Ltmp179:
@ %bb.1:
	@DEBUG_VALUE: mbedtls_sha256_update_ret:ilen <- $r2
	@DEBUG_VALUE: mbedtls_sha256_update_ret:input <- $r1
	@DEBUG_VALUE: mbedtls_sha256_update_ret:ctx <- $r0
	.loc	2 0 9 is_stmt 0                 @ ../../../ThirdParty/mbedTLS/library/sha256.c:0:9
	mov	r4, r2
.Ltmp180:
	@DEBUG_VALUE: mbedtls_sha256_update_ret:ilen <- $r4
	mov	r5, r1
.Ltmp181:
	@DEBUG_VALUE: mbedtls_sha256_update_ret:input <- $r5
	mov	r6, r0
.Ltmp182:
	@DEBUG_VALUE: mbedtls_sha256_update_ret:ctx <- $r6
	.loc	2 294 12 is_stmt 1              @ ../../../ThirdParty/mbedTLS/library/sha256.c:294:12
	ldr	r1, [r0]
	.loc	2 297 19                        @ ../../../ThirdParty/mbedTLS/library/sha256.c:297:19
	adds	r2, r1, r2
	.loc	2 298 19                        @ ../../../ThirdParty/mbedTLS/library/sha256.c:298:19
	str	r2, [r0]
	movs	r0, #63
	.loc	2 294 26                        @ ../../../ThirdParty/mbedTLS/library/sha256.c:294:26
	ands	r0, r1
.Ltmp183:
	@DEBUG_VALUE: mbedtls_sha256_update_ret:fill <- undef
	@DEBUG_VALUE: mbedtls_sha256_update_ret:left <- $r0
	.loc	2 297 19                        @ ../../../ThirdParty/mbedTLS/library/sha256.c:297:19
	cmp	r2, r1
	.loc	2 300 9                         @ ../../../ThirdParty/mbedTLS/library/sha256.c:300:9
	bhs	.LBB7_3
.Ltmp184:
@ %bb.2:
	@DEBUG_VALUE: mbedtls_sha256_update_ret:ctx <- $r6
	@DEBUG_VALUE: mbedtls_sha256_update_ret:input <- $r5
	@DEBUG_VALUE: mbedtls_sha256_update_ret:ilen <- $r4
	@DEBUG_VALUE: mbedtls_sha256_update_ret:left <- $r0
	.loc	2 301 22                        @ ../../../ThirdParty/mbedTLS/library/sha256.c:301:22
	ldr	r1, [r6, #4]
	adds	r1, r1, #1
	str	r1, [r6, #4]
.Ltmp185:
.LBB7_3:
	@DEBUG_VALUE: mbedtls_sha256_update_ret:ctx <- $r6
	@DEBUG_VALUE: mbedtls_sha256_update_ret:input <- $r5
	@DEBUG_VALUE: mbedtls_sha256_update_ret:ilen <- $r4
	@DEBUG_VALUE: mbedtls_sha256_update_ret:left <- $r0
	@DEBUG_VALUE: mbedtls_sha256_update_ret:fill <- undef
	.loc	2 0 22 is_stmt 0                @ ../../../ThirdParty/mbedTLS/library/sha256.c:0:22
	movs	r7, #0
.Ltmp186:
	.loc	2 303 14 is_stmt 1              @ ../../../ThirdParty/mbedTLS/library/sha256.c:303:14
	cbz	r0, .LBB7_6
.Ltmp187:
@ %bb.4:
	@DEBUG_VALUE: mbedtls_sha256_update_ret:ctx <- $r6
	@DEBUG_VALUE: mbedtls_sha256_update_ret:input <- $r5
	@DEBUG_VALUE: mbedtls_sha256_update_ret:ilen <- $r4
	@DEBUG_VALUE: mbedtls_sha256_update_ret:left <- $r0
	.loc	2 0 14 is_stmt 0                @ ../../../ThirdParty/mbedTLS/library/sha256.c:0:14
	str	r7, [sp, #8]                    @ 4-byte Spill
	movs	r1, #64
	subs	r7, r1, r0
.Ltmp188:
	@DEBUG_VALUE: mbedtls_sha256_update_ret:fill <- $r7
	.loc	2 303 9                         @ ../../../ThirdParty/mbedTLS/library/sha256.c:303:9
	cmp	r7, r4
	bls	.LBB7_11
.Ltmp189:
@ %bb.5:
	@DEBUG_VALUE: mbedtls_sha256_update_ret:fill <- $r7
	@DEBUG_VALUE: mbedtls_sha256_update_ret:ctx <- $r6
	@DEBUG_VALUE: mbedtls_sha256_update_ret:input <- $r5
	@DEBUG_VALUE: mbedtls_sha256_update_ret:ilen <- $r4
	@DEBUG_VALUE: mbedtls_sha256_update_ret:left <- $r0
	.loc	2 0 0                           @ ../../../ThirdParty/mbedTLS/library/sha256.c:0:0
	mov	r7, r0
.Ltmp190:
	@DEBUG_VALUE: mbedtls_sha256_update_ret:left <- $r7
.LBB7_6:
	@DEBUG_VALUE: mbedtls_sha256_update_ret:ctx <- $r6
	@DEBUG_VALUE: mbedtls_sha256_update_ret:input <- $r5
	@DEBUG_VALUE: mbedtls_sha256_update_ret:ilen <- $r4
	@DEBUG_VALUE: mbedtls_sha256_update_ret:input <- $r5
	@DEBUG_VALUE: mbedtls_sha256_update_ret:ilen <- $r4
	@DEBUG_VALUE: mbedtls_sha256_update_ret:left <- $r7
	.loc	2 315 5 is_stmt 1               @ ../../../ThirdParty/mbedTLS/library/sha256.c:315:5
	cmp	r4, #64
	blo	.LBB7_8
.Ltmp191:
.LBB7_7:                                @ =>This Inner Loop Header: Depth=1
	@DEBUG_VALUE: mbedtls_sha256_update_ret:left <- $r7
	@DEBUG_VALUE: mbedtls_sha256_update_ret:ctx <- $r6
	@DEBUG_VALUE: mbedtls_sha256_update_ret:input <- $r5
	@DEBUG_VALUE: mbedtls_sha256_update_ret:ilen <- $r4
	@DEBUG_VALUE: mbedtls_sha256_update_ret:input <- $r5
	@DEBUG_VALUE: mbedtls_sha256_update_ret:ilen <- $r4
	.loc	2 317 21                        @ ../../../ThirdParty/mbedTLS/library/sha256.c:317:21
	mov	r0, r6
	mov	r1, r5
	bl	mbedtls_internal_sha256_process
.Ltmp192:
	.loc	2 321 15                        @ ../../../ThirdParty/mbedTLS/library/sha256.c:321:15
	subs	r4, #64
.Ltmp193:
	@DEBUG_VALUE: mbedtls_sha256_update_ret:ret <- 0
	@DEBUG_VALUE: mbedtls_sha256_update_ret:ilen <- $r4
	.loc	2 320 15                        @ ../../../ThirdParty/mbedTLS/library/sha256.c:320:15
	adds	r5, #64
.Ltmp194:
	@DEBUG_VALUE: mbedtls_sha256_update_ret:input <- $r5
	.loc	2 315 5                         @ ../../../ThirdParty/mbedTLS/library/sha256.c:315:5
	cmp	r4, #63
	bhi	.LBB7_7
.Ltmp195:
.LBB7_8:
	@DEBUG_VALUE: mbedtls_sha256_update_ret:left <- $r7
	@DEBUG_VALUE: mbedtls_sha256_update_ret:ctx <- $r6
	@DEBUG_VALUE: mbedtls_sha256_update_ret:input <- $r5
	@DEBUG_VALUE: mbedtls_sha256_update_ret:ilen <- $r4
	@DEBUG_VALUE: mbedtls_sha256_update_ret:input <- $r5
	@DEBUG_VALUE: mbedtls_sha256_update_ret:ilen <- $r4
	.loc	2 324 9                         @ ../../../ThirdParty/mbedTLS/library/sha256.c:324:9
	cbz	r4, .LBB7_10
.Ltmp196:
@ %bb.9:
	@DEBUG_VALUE: mbedtls_sha256_update_ret:left <- $r7
	@DEBUG_VALUE: mbedtls_sha256_update_ret:ctx <- $r6
	@DEBUG_VALUE: mbedtls_sha256_update_ret:input <- $r5
	@DEBUG_VALUE: mbedtls_sha256_update_ret:ilen <- $r4
	.loc	2 325 39                        @ ../../../ThirdParty/mbedTLS/library/sha256.c:325:39
	adds	r0, r6, r7
	adds	r0, #40
	.loc	2 325 9 is_stmt 0               @ ../../../ThirdParty/mbedTLS/library/sha256.c:325:9
	mov	r1, r5
	mov	r2, r4
	bl	__aeabi_memcpy
.Ltmp197:
.LBB7_10:
	.loc	2 0 9                           @ ../../../ThirdParty/mbedTLS/library/sha256.c:0:9
	movs	r0, #0
	.loc	2 328 1 is_stmt 1               @ ../../../ThirdParty/mbedTLS/library/sha256.c:328:1
	add	sp, #12
	pop	{r4, r5, r6, r7, pc}
.LBB7_11:
.Ltmp198:
	@DEBUG_VALUE: mbedtls_sha256_update_ret:fill <- $r7
	@DEBUG_VALUE: mbedtls_sha256_update_ret:ctx <- $r6
	@DEBUG_VALUE: mbedtls_sha256_update_ret:input <- $r5
	@DEBUG_VALUE: mbedtls_sha256_update_ret:ilen <- $r4
	@DEBUG_VALUE: mbedtls_sha256_update_ret:left <- $r0
	.loc	2 305 27                        @ ../../../ThirdParty/mbedTLS/library/sha256.c:305:27
	mov	r1, r6
	adds	r1, #40
	.loc	2 305 39 is_stmt 0              @ ../../../ThirdParty/mbedTLS/library/sha256.c:305:39
	str	r1, [sp, #4]                    @ 4-byte Spill
	adds	r0, r1, r0
.Ltmp199:
	.loc	2 305 9                         @ ../../../ThirdParty/mbedTLS/library/sha256.c:305:9
	mov	r1, r5
	mov	r2, r7
	bl	__aeabi_memcpy
.Ltmp200:
	.loc	2 307 21 is_stmt 1              @ ../../../ThirdParty/mbedTLS/library/sha256.c:307:21
	mov	r0, r6
	ldr	r1, [sp, #4]                    @ 4-byte Reload
	bl	mbedtls_internal_sha256_process
.Ltmp201:
	.loc	2 311 15                        @ ../../../ThirdParty/mbedTLS/library/sha256.c:311:15
	subs	r4, r4, r7
.Ltmp202:
	@DEBUG_VALUE: mbedtls_sha256_update_ret:ilen <- [DW_OP_LLVM_entry_value 1] $r2
	@DEBUG_VALUE: mbedtls_sha256_update_ret:ret <- 0
	@DEBUG_VALUE: mbedtls_sha256_update_ret:ilen <- $r4
	.loc	2 310 15                        @ ../../../ThirdParty/mbedTLS/library/sha256.c:310:15
	adds	r5, r5, r7
.Ltmp203:
	@DEBUG_VALUE: mbedtls_sha256_update_ret:input <- [DW_OP_LLVM_entry_value 1] $r1
	@DEBUG_VALUE: mbedtls_sha256_update_ret:left <- 0
	@DEBUG_VALUE: mbedtls_sha256_update_ret:input <- $r5
	.loc	2 0 15 is_stmt 0                @ ../../../ThirdParty/mbedTLS/library/sha256.c:0:15
	ldr	r7, [sp, #8]                    @ 4-byte Reload
.Ltmp204:
	@DEBUG_VALUE: mbedtls_sha256_update_ret:input <- $r5
	@DEBUG_VALUE: mbedtls_sha256_update_ret:ilen <- $r4
	@DEBUG_VALUE: mbedtls_sha256_update_ret:left <- $r7
	.loc	2 315 5 is_stmt 1               @ ../../../ThirdParty/mbedTLS/library/sha256.c:315:5
	cmp	r4, #64
	bhs	.LBB7_7
	b	.LBB7_8
.Ltmp205:
.Lfunc_end7:
	.size	mbedtls_sha256_update_ret, .Lfunc_end7-mbedtls_sha256_update_ret
	.cfi_endproc
	.cantunwind
	.fnend
                                        @ -- End function
	.section	.text.mbedtls_sha256_update,"ax",%progbits
	.hidden	mbedtls_sha256_update           @ -- Begin function mbedtls_sha256_update
	.globl	mbedtls_sha256_update
	.p2align	1
	.type	mbedtls_sha256_update,%function
	.code	16                              @ @mbedtls_sha256_update
	.thumb_func
mbedtls_sha256_update:
.Lfunc_begin8:
	.loc	2 334 0                         @ ../../../ThirdParty/mbedTLS/library/sha256.c:334:0
	.fnstart
	.cfi_startproc
@ %bb.0:
	@DEBUG_VALUE: mbedtls_sha256_update:ctx <- $r0
	@DEBUG_VALUE: mbedtls_sha256_update:ctx <- $r0
	@DEBUG_VALUE: mbedtls_sha256_update:input <- $r1
	@DEBUG_VALUE: mbedtls_sha256_update:input <- $r1
	@DEBUG_VALUE: mbedtls_sha256_update:ilen <- $r2
	@DEBUG_VALUE: mbedtls_sha256_update:ilen <- $r2
	@DEBUG_VALUE: mbedtls_sha256_update:ilen <- $r2
	@DEBUG_VALUE: mbedtls_sha256_update:input <- $r1
	@DEBUG_VALUE: mbedtls_sha256_update:ctx <- $r0
	.save	{r7, lr}
	push	{r7, lr}
	.cfi_def_cfa_offset 8
	.cfi_offset lr, -4
	.cfi_offset r7, -8
.Ltmp206:
	.loc	2 335 5 prologue_end            @ ../../../ThirdParty/mbedTLS/library/sha256.c:335:5
	bl	mbedtls_sha256_update_ret
.Ltmp207:
	@DEBUG_VALUE: mbedtls_sha256_update:ilen <- [DW_OP_LLVM_entry_value 1] $r2
	@DEBUG_VALUE: mbedtls_sha256_update:input <- [DW_OP_LLVM_entry_value 1] $r1
	@DEBUG_VALUE: mbedtls_sha256_update:ctx <- [DW_OP_LLVM_entry_value 1] $r0
	.loc	2 336 1                         @ ../../../ThirdParty/mbedTLS/library/sha256.c:336:1
	pop	{r7, pc}
.Ltmp208:
.Lfunc_end8:
	.size	mbedtls_sha256_update, .Lfunc_end8-mbedtls_sha256_update
	.cfi_endproc
	.cantunwind
	.fnend
                                        @ -- End function
	.section	.text.mbedtls_sha256_finish_ret,"ax",%progbits
	.hidden	mbedtls_sha256_finish_ret       @ -- Begin function mbedtls_sha256_finish_ret
	.globl	mbedtls_sha256_finish_ret
	.p2align	1
	.type	mbedtls_sha256_finish_ret,%function
	.code	16                              @ @mbedtls_sha256_finish_ret
	.thumb_func
mbedtls_sha256_finish_ret:
.Lfunc_begin9:
	.loc	2 344 0                         @ ../../../ThirdParty/mbedTLS/library/sha256.c:344:0
	.fnstart
	.cfi_startproc
@ %bb.0:
	@DEBUG_VALUE: mbedtls_sha256_finish_ret:ctx <- $r0
	@DEBUG_VALUE: mbedtls_sha256_finish_ret:output <- $r1
	.save	{r4, r5, r6, r7, lr}
	push	{r4, r5, r6, r7, lr}
	.cfi_def_cfa_offset 20
	.cfi_offset lr, -4
	.cfi_offset r7, -8
	.cfi_offset r6, -12
	.cfi_offset r5, -16
	.cfi_offset r4, -20
	.pad	#4
	sub	sp, #4
	.cfi_def_cfa_offset 24
	mov	r4, r1
	mov	r5, r0
.Ltmp209:
	@DEBUG_VALUE: mbedtls_sha256_finish_ret:output <- $r4
	@DEBUG_VALUE: mbedtls_sha256_finish_ret:ctx <- $r5
	.loc	2 355 12 prologue_end           @ ../../../ThirdParty/mbedTLS/library/sha256.c:355:12
	ldr	r1, [r0]
	movs	r0, #63
	.loc	2 355 26 is_stmt 0              @ ../../../ThirdParty/mbedTLS/library/sha256.c:355:26
	ands	r1, r0
.Ltmp210:
	@DEBUG_VALUE: mbedtls_sha256_finish_ret:used <- $r1
	.loc	2 357 10 is_stmt 1              @ ../../../ThirdParty/mbedTLS/library/sha256.c:357:10
	mov	r6, r5
	adds	r6, #40
	movs	r2, #128
	.loc	2 357 25 is_stmt 0              @ ../../../ThirdParty/mbedTLS/library/sha256.c:357:25
	strb	r2, [r6, r1]
	.loc	2 357 21                        @ ../../../ThirdParty/mbedTLS/library/sha256.c:357:21
	adds	r2, r1, #1
.Ltmp211:
	@DEBUG_VALUE: mbedtls_sha256_finish_ret:used <- $r2
	.loc	2 0 0                           @ ../../../ThirdParty/mbedTLS/library/sha256.c:0:0
	mov	r7, r5
	adds	r7, #96
	.loc	2 359 9 is_stmt 1               @ ../../../ThirdParty/mbedTLS/library/sha256.c:359:9
	cmp	r1, #55
	bhi	.LBB9_2
.Ltmp212:
@ %bb.1:
	@DEBUG_VALUE: mbedtls_sha256_finish_ret:ctx <- $r5
	@DEBUG_VALUE: mbedtls_sha256_finish_ret:output <- $r4
	@DEBUG_VALUE: mbedtls_sha256_finish_ret:used <- $r2
	.loc	2 0 9 is_stmt 0                 @ ../../../ThirdParty/mbedTLS/library/sha256.c:0:9
	movs	r0, #55
.Ltmp213:
	.loc	2 362 43 is_stmt 1              @ ../../../ThirdParty/mbedTLS/library/sha256.c:362:43
	subs	r1, r0, r1
	.loc	2 362 29 is_stmt 0              @ ../../../ThirdParty/mbedTLS/library/sha256.c:362:29
	adds	r0, r5, r2
	adds	r0, #40
	.loc	2 362 9                         @ ../../../ThirdParty/mbedTLS/library/sha256.c:362:9
	bl	__aeabi_memclr
.Ltmp214:
	.loc	2 0 9                           @ ../../../ThirdParty/mbedTLS/library/sha256.c:0:9
	b	.LBB9_3
.Ltmp215:
.LBB9_2:
	@DEBUG_VALUE: mbedtls_sha256_finish_ret:ctx <- $r5
	@DEBUG_VALUE: mbedtls_sha256_finish_ret:output <- $r4
	@DEBUG_VALUE: mbedtls_sha256_finish_ret:used <- $r2
	.loc	2 367 43 is_stmt 1              @ ../../../ThirdParty/mbedTLS/library/sha256.c:367:43
	eors	r1, r0
	.loc	2 367 29 is_stmt 0              @ ../../../ThirdParty/mbedTLS/library/sha256.c:367:29
	adds	r0, r5, r2
	adds	r0, #40
	.loc	2 367 9                         @ ../../../ThirdParty/mbedTLS/library/sha256.c:367:9
	bl	__aeabi_memclr
.Ltmp216:
	.loc	2 369 21 is_stmt 1              @ ../../../ThirdParty/mbedTLS/library/sha256.c:369:21
	mov	r0, r5
	mov	r1, r6
	bl	mbedtls_internal_sha256_process
.Ltmp217:
	@DEBUG_VALUE: mbedtls_sha256_finish_ret:ret <- 0
	.loc	2 0 21 is_stmt 0                @ ../../../ThirdParty/mbedTLS/library/sha256.c:0:21
	movs	r1, #56
.Ltmp218:
	.loc	2 372 9 is_stmt 1               @ ../../../ThirdParty/mbedTLS/library/sha256.c:372:9
	mov	r0, r6
	bl	__aeabi_memclr4
.Ltmp219:
.LBB9_3:
	@DEBUG_VALUE: mbedtls_sha256_finish_ret:ctx <- $r5
	@DEBUG_VALUE: mbedtls_sha256_finish_ret:output <- $r4
	.loc	2 378 14                        @ ../../../ThirdParty/mbedTLS/library/sha256.c:378:14
	ldr	r0, [r5]
.Ltmp220:
	.loc	2 383 5                         @ ../../../ThirdParty/mbedTLS/library/sha256.c:383:5
	lsls	r1, r0, #3
	strb	r1, [r7, #7]
	lsrs	r1, r0, #5
	strb	r1, [r7, #6]
	lsrs	r1, r0, #13
	strb	r1, [r7, #5]
	lsrs	r1, r0, #21
	strb	r1, [r7, #4]
.Ltmp221:
	.loc	2 379 16                        @ ../../../ThirdParty/mbedTLS/library/sha256.c:379:16
	ldr	r1, [r5, #4]
.Ltmp222:
	.loc	2 382 5                         @ ../../../ThirdParty/mbedTLS/library/sha256.c:382:5
	lsrs	r2, r1, #5
	strb	r2, [r7, #2]
	lsrs	r2, r1, #13
	strb	r2, [r7, #1]
.Ltmp223:
	@DEBUG_VALUE: mbedtls_sha256_finish_ret:low <- [DW_OP_constu 3, DW_OP_shl, DW_OP_stack_value] $r0
	@DEBUG_VALUE: mbedtls_sha256_finish_ret:high <- undef
	lsrs	r2, r1, #21
	strb	r2, [r7]
.Ltmp224:
	.loc	2 378 28                        @ ../../../ThirdParty/mbedTLS/library/sha256.c:378:28
	lsrs	r0, r0, #29
.Ltmp225:
	.loc	2 379 30                        @ ../../../ThirdParty/mbedTLS/library/sha256.c:379:30
	lsls	r1, r1, #3
	.loc	2 379 12 is_stmt 0              @ ../../../ThirdParty/mbedTLS/library/sha256.c:379:12
	adds	r0, r1, r0
.Ltmp226:
	.loc	2 382 5 is_stmt 1               @ ../../../ThirdParty/mbedTLS/library/sha256.c:382:5
	strb	r0, [r7, #3]
.Ltmp227:
	.loc	2 385 17                        @ ../../../ThirdParty/mbedTLS/library/sha256.c:385:17
	mov	r0, r5
	mov	r1, r6
	bl	mbedtls_internal_sha256_process
.Ltmp228:
	@DEBUG_VALUE: mbedtls_sha256_finish_ret:ret <- 0
	.loc	2 391 5                         @ ../../../ThirdParty/mbedTLS/library/sha256.c:391:5
	ldrb	r0, [r5, #11]
	strb	r0, [r4]
	ldrh	r0, [r5, #10]
	strb	r0, [r4, #1]
	ldr	r0, [r5, #8]
	lsrs	r0, r0, #8
	strb	r0, [r4, #2]
	ldr	r0, [r5, #8]
	strb	r0, [r4, #3]
.Ltmp229:
	.loc	2 392 5                         @ ../../../ThirdParty/mbedTLS/library/sha256.c:392:5
	ldrb	r0, [r5, #15]
	strb	r0, [r4, #4]
	ldrh	r0, [r5, #14]
	strb	r0, [r4, #5]
	ldr	r0, [r5, #12]
	lsrs	r0, r0, #8
	strb	r0, [r4, #6]
	ldr	r0, [r5, #12]
	strb	r0, [r4, #7]
.Ltmp230:
	.loc	2 393 5                         @ ../../../ThirdParty/mbedTLS/library/sha256.c:393:5
	ldrb	r0, [r5, #19]
	strb	r0, [r4, #8]
	ldrh	r0, [r5, #18]
	strb	r0, [r4, #9]
	ldr	r0, [r5, #16]
	lsrs	r0, r0, #8
	strb	r0, [r4, #10]
	ldr	r0, [r5, #16]
	strb	r0, [r4, #11]
.Ltmp231:
	.loc	2 394 5                         @ ../../../ThirdParty/mbedTLS/library/sha256.c:394:5
	ldrb	r0, [r5, #23]
	strb	r0, [r4, #12]
	ldrh	r0, [r5, #22]
	strb	r0, [r4, #13]
	ldr	r0, [r5, #20]
	lsrs	r0, r0, #8
	strb	r0, [r4, #14]
	ldr	r0, [r5, #20]
	strb	r0, [r4, #15]
.Ltmp232:
	.loc	2 395 5                         @ ../../../ThirdParty/mbedTLS/library/sha256.c:395:5
	ldrb	r0, [r5, #27]
	strb	r0, [r4, #16]
	ldrh	r0, [r5, #26]
	strb	r0, [r4, #17]
	ldr	r0, [r5, #24]
	lsrs	r0, r0, #8
	strb	r0, [r4, #18]
	ldr	r0, [r5, #24]
	strb	r0, [r4, #19]
.Ltmp233:
	.loc	2 396 5                         @ ../../../ThirdParty/mbedTLS/library/sha256.c:396:5
	ldrb	r0, [r5, #31]
	strb	r0, [r4, #20]
	ldrh	r0, [r5, #30]
	strb	r0, [r4, #21]
	ldr	r0, [r5, #28]
	lsrs	r0, r0, #8
	strb	r0, [r4, #22]
	ldr	r0, [r5, #28]
	strb	r0, [r4, #23]
	movs	r0, #35
.Ltmp234:
	.loc	2 397 5                         @ ../../../ThirdParty/mbedTLS/library/sha256.c:397:5
	ldrb	r0, [r5, r0]
	strb	r0, [r4, #24]
	ldrh	r0, [r5, #34]
	strb	r0, [r4, #25]
	ldr	r0, [r5, #32]
	lsrs	r0, r0, #8
	strb	r0, [r4, #26]
	ldr	r0, [r5, #32]
	strb	r0, [r4, #27]
.Ltmp235:
	.loc	2 399 14                        @ ../../../ThirdParty/mbedTLS/library/sha256.c:399:14
	ldr	r0, [r5, #104]
.Ltmp236:
	.loc	2 399 9 is_stmt 0               @ ../../../ThirdParty/mbedTLS/library/sha256.c:399:9
	cbnz	r0, .LBB9_5
.Ltmp237:
@ %bb.4:
	@DEBUG_VALUE: mbedtls_sha256_finish_ret:ctx <- $r5
	@DEBUG_VALUE: mbedtls_sha256_finish_ret:output <- $r4
	@DEBUG_VALUE: mbedtls_sha256_finish_ret:ret <- 0
	.loc	2 0 9                           @ ../../../ThirdParty/mbedTLS/library/sha256.c:0:9
	movs	r0, #39
.Ltmp238:
	.loc	2 400 9 is_stmt 1               @ ../../../ThirdParty/mbedTLS/library/sha256.c:400:9
	ldrb	r0, [r5, r0]
	strb	r0, [r4, #28]
	ldrh	r0, [r5, #38]
	strb	r0, [r4, #29]
	ldr	r0, [r5, #36]
	lsrs	r0, r0, #8
	strb	r0, [r4, #30]
	ldr	r0, [r5, #36]
	strb	r0, [r4, #31]
.Ltmp239:
.LBB9_5:
	@DEBUG_VALUE: mbedtls_sha256_finish_ret:ctx <- $r5
	@DEBUG_VALUE: mbedtls_sha256_finish_ret:output <- $r4
	@DEBUG_VALUE: mbedtls_sha256_finish_ret:ret <- 0
	.loc	2 0 9 is_stmt 0                 @ ../../../ThirdParty/mbedTLS/library/sha256.c:0:9
	movs	r0, #0
	.loc	2 403 1 is_stmt 1               @ ../../../ThirdParty/mbedTLS/library/sha256.c:403:1
	add	sp, #4
	pop	{r4, r5, r6, r7, pc}
.Ltmp240:
.Lfunc_end9:
	.size	mbedtls_sha256_finish_ret, .Lfunc_end9-mbedtls_sha256_finish_ret
	.cfi_endproc
	.cantunwind
	.fnend
                                        @ -- End function
	.section	.text.mbedtls_sha256_finish,"ax",%progbits
	.hidden	mbedtls_sha256_finish           @ -- Begin function mbedtls_sha256_finish
	.globl	mbedtls_sha256_finish
	.p2align	1
	.type	mbedtls_sha256_finish,%function
	.code	16                              @ @mbedtls_sha256_finish
	.thumb_func
mbedtls_sha256_finish:
.Lfunc_begin10:
	.loc	2 408 0                         @ ../../../ThirdParty/mbedTLS/library/sha256.c:408:0
	.fnstart
	.cfi_startproc
@ %bb.0:
	@DEBUG_VALUE: mbedtls_sha256_finish:ctx <- $r0
	@DEBUG_VALUE: mbedtls_sha256_finish:ctx <- $r0
	@DEBUG_VALUE: mbedtls_sha256_finish:output <- $r1
	@DEBUG_VALUE: mbedtls_sha256_finish:output <- $r1
	@DEBUG_VALUE: mbedtls_sha256_finish:output <- $r1
	@DEBUG_VALUE: mbedtls_sha256_finish:ctx <- $r0
	.save	{r7, lr}
	push	{r7, lr}
	.cfi_def_cfa_offset 8
	.cfi_offset lr, -4
	.cfi_offset r7, -8
.Ltmp241:
	.loc	2 409 5 prologue_end            @ ../../../ThirdParty/mbedTLS/library/sha256.c:409:5
	bl	mbedtls_sha256_finish_ret
.Ltmp242:
	@DEBUG_VALUE: mbedtls_sha256_finish:output <- [DW_OP_LLVM_entry_value 1] $r1
	@DEBUG_VALUE: mbedtls_sha256_finish:ctx <- [DW_OP_LLVM_entry_value 1] $r0
	.loc	2 410 1                         @ ../../../ThirdParty/mbedTLS/library/sha256.c:410:1
	pop	{r7, pc}
.Ltmp243:
.Lfunc_end10:
	.size	mbedtls_sha256_finish, .Lfunc_end10-mbedtls_sha256_finish
	.cfi_endproc
	.cantunwind
	.fnend
                                        @ -- End function
	.section	.text.mbedtls_sha256_ret,"ax",%progbits
	.hidden	mbedtls_sha256_ret              @ -- Begin function mbedtls_sha256_ret
	.globl	mbedtls_sha256_ret
	.p2align	1
	.type	mbedtls_sha256_ret,%function
	.code	16                              @ @mbedtls_sha256_ret
	.thumb_func
mbedtls_sha256_ret:
.Lfunc_begin11:
	.loc	2 422 0                         @ ../../../ThirdParty/mbedTLS/library/sha256.c:422:0
	.fnstart
	.cfi_startproc
@ %bb.0:
	@DEBUG_VALUE: mbedtls_sha256_ret:input <- $r0
	@DEBUG_VALUE: mbedtls_sha256_ret:ilen <- $r1
	@DEBUG_VALUE: mbedtls_sha256_ret:output <- $r2
	@DEBUG_VALUE: mbedtls_sha256_ret:is224 <- $r3
	.save	{r4, r5, r6, r7, lr}
	push	{r4, r5, r6, r7, lr}
	.cfi_def_cfa_offset 20
	.cfi_offset lr, -4
	.cfi_offset r7, -8
	.cfi_offset r6, -12
	.cfi_offset r5, -16
	.cfi_offset r4, -20
	.pad	#116
	sub	sp, #116
	.cfi_def_cfa_offset 136
	mov	r6, r3
	str	r2, [sp, #4]                    @ 4-byte Spill
	mov	r7, r1
	mov	r4, r0
.Ltmp244:
	@DEBUG_VALUE: mbedtls_sha256_ret:is224 <- $r6
	@DEBUG_VALUE: mbedtls_sha256_ret:output <- [DW_OP_plus_uconst 4] [$sp+0]
	@DEBUG_VALUE: mbedtls_sha256_ret:ilen <- $r7
	@DEBUG_VALUE: mbedtls_sha256_ret:input <- $r4
	add	r5, sp, #8
.Ltmp245:
	.loc	2 430 5 prologue_end            @ ../../../ThirdParty/mbedTLS/library/sha256.c:430:5
	mov	r0, r5
	bl	mbedtls_sha256_init
.Ltmp246:
	.loc	2 432 17                        @ ../../../ThirdParty/mbedTLS/library/sha256.c:432:17
	mov	r0, r5
	mov	r1, r6
.Ltmp247:
	@DEBUG_VALUE: mbedtls_sha256_ret:is224 <- $r1
	bl	mbedtls_sha256_starts_ret
.Ltmp248:
	@DEBUG_VALUE: mbedtls_sha256_ret:ret <- 0
	.loc	2 435 17                        @ ../../../ThirdParty/mbedTLS/library/sha256.c:435:17
	mov	r0, r5
	mov	r1, r4
.Ltmp249:
	@DEBUG_VALUE: mbedtls_sha256_ret:input <- $r1
	mov	r2, r7
.Ltmp250:
	@DEBUG_VALUE: mbedtls_sha256_ret:ilen <- $r2
	bl	mbedtls_sha256_update_ret
.Ltmp251:
	.loc	2 438 17                        @ ../../../ThirdParty/mbedTLS/library/sha256.c:438:17
	mov	r0, r5
	ldr	r1, [sp, #4]                    @ 4-byte Reload
.Ltmp252:
	@DEBUG_VALUE: mbedtls_sha256_ret:output <- $r1
	bl	mbedtls_sha256_finish_ret
.Ltmp253:
	@DEBUG_LABEL: mbedtls_sha256_ret:exit
	.loc	2 442 5                         @ ../../../ThirdParty/mbedTLS/library/sha256.c:442:5
	mov	r0, r5
	bl	mbedtls_sha256_free
	movs	r0, #0
	.loc	2 444 5                         @ ../../../ThirdParty/mbedTLS/library/sha256.c:444:5
	add	sp, #116
	pop	{r4, r5, r6, r7, pc}
.Ltmp254:
.Lfunc_end11:
	.size	mbedtls_sha256_ret, .Lfunc_end11-mbedtls_sha256_ret
	.cfi_endproc
	.cantunwind
	.fnend
                                        @ -- End function
	.section	.text.mbedtls_sha256,"ax",%progbits
	.hidden	mbedtls_sha256                  @ -- Begin function mbedtls_sha256
	.globl	mbedtls_sha256
	.p2align	1
	.type	mbedtls_sha256,%function
	.code	16                              @ @mbedtls_sha256
	.thumb_func
mbedtls_sha256:
.Lfunc_begin12:
	.loc	2 452 0                         @ ../../../ThirdParty/mbedTLS/library/sha256.c:452:0
	.fnstart
	.cfi_startproc
@ %bb.0:
	@DEBUG_VALUE: mbedtls_sha256:input <- $r0
	@DEBUG_VALUE: mbedtls_sha256:input <- $r0
	@DEBUG_VALUE: mbedtls_sha256:ilen <- $r1
	@DEBUG_VALUE: mbedtls_sha256:ilen <- $r1
	@DEBUG_VALUE: mbedtls_sha256:output <- $r2
	@DEBUG_VALUE: mbedtls_sha256:output <- $r2
	@DEBUG_VALUE: mbedtls_sha256:is224 <- $r3
	@DEBUG_VALUE: mbedtls_sha256:is224 <- $r3
	@DEBUG_VALUE: mbedtls_sha256:is224 <- $r3
	@DEBUG_VALUE: mbedtls_sha256:output <- $r2
	@DEBUG_VALUE: mbedtls_sha256:ilen <- $r1
	@DEBUG_VALUE: mbedtls_sha256:input <- $r0
	.save	{r7, lr}
	push	{r7, lr}
	.cfi_def_cfa_offset 8
	.cfi_offset lr, -4
	.cfi_offset r7, -8
.Ltmp255:
	.loc	2 453 5 prologue_end            @ ../../../ThirdParty/mbedTLS/library/sha256.c:453:5
	bl	mbedtls_sha256_ret
.Ltmp256:
	@DEBUG_VALUE: mbedtls_sha256:is224 <- [DW_OP_LLVM_entry_value 1] $r3
	@DEBUG_VALUE: mbedtls_sha256:output <- [DW_OP_LLVM_entry_value 1] $r2
	@DEBUG_VALUE: mbedtls_sha256:ilen <- [DW_OP_LLVM_entry_value 1] $r1
	@DEBUG_VALUE: mbedtls_sha256:input <- [DW_OP_LLVM_entry_value 1] $r0
	.loc	2 454 1                         @ ../../../ThirdParty/mbedTLS/library/sha256.c:454:1
	pop	{r7, pc}
.Ltmp257:
.Lfunc_end12:
	.size	mbedtls_sha256, .Lfunc_end12-mbedtls_sha256
	.cfi_endproc
	.cantunwind
	.fnend
                                        @ -- End function
	.section	.text.mbedtls_sha256_self_test,"ax",%progbits
	.hidden	mbedtls_sha256_self_test        @ -- Begin function mbedtls_sha256_self_test
	.globl	mbedtls_sha256_self_test
	.p2align	2
	.type	mbedtls_sha256_self_test,%function
	.code	16                              @ @mbedtls_sha256_self_test
	.thumb_func
mbedtls_sha256_self_test:
.Lfunc_begin13:
	.loc	2 518 0                         @ ../../../ThirdParty/mbedTLS/library/sha256.c:518:0
	.fnstart
	.cfi_startproc
@ %bb.0:
	@DEBUG_VALUE: mbedtls_sha256_self_test:verbose <- $r0
	.save	{r4, r5, r6, r7, lr}
	push	{r4, r5, r6, r7, lr}
	.cfi_def_cfa_offset 20
	.cfi_offset lr, -4
	.cfi_offset r7, -8
	.cfi_offset r6, -12
	.cfi_offset r5, -16
	.cfi_offset r4, -20
	.pad	#164
	sub	sp, #164
	.cfi_def_cfa_offset 184
	mov	r7, r0
.Ltmp258:
	@DEBUG_VALUE: mbedtls_sha256_self_test:ret <- 0
	@DEBUG_VALUE: mbedtls_sha256_self_test:verbose <- $r7
	movw	r0, #1000
.Ltmp259:
	.loc	2 524 11 prologue_end           @ ../../../ThirdParty/mbedTLS/library/sha256.c:524:11
	adds	r0, #24
	movs	r1, #1
	str	r1, [sp, #16]                   @ 4-byte Spill
	bl	calloc
.Ltmp260:
	@DEBUG_VALUE: mbedtls_sha256_self_test:buf <- $r0
	.loc	2 525 9                         @ ../../../ThirdParty/mbedTLS/library/sha256.c:525:9
	cmp	r0, #0
	beq	.LBB13_20
.Ltmp261:
@ %bb.1:
	@DEBUG_VALUE: mbedtls_sha256_self_test:verbose <- $r7
	@DEBUG_VALUE: mbedtls_sha256_self_test:buf <- $r0
	@DEBUG_VALUE: mbedtls_sha256_self_test:ret <- 0
	.loc	2 0 0 is_stmt 0                 @ ../../../ThirdParty/mbedTLS/library/sha256.c:0:0
	mov	r4, r0
.Ltmp262:
	@DEBUG_VALUE: mbedtls_sha256_self_test:buf <- $r4
	add	r0, sp, #24
	.loc	2 533 5 is_stmt 1               @ ../../../ThirdParty/mbedTLS/library/sha256.c:533:5
	bl	mbedtls_sha256_init
	movs	r5, #0
.Ltmp263:
	@DEBUG_VALUE: mbedtls_sha256_self_test:i <- 0
	@DEBUG_VALUE: mbedtls_sha256_self_test:ret <- 0
	.loc	2 0 5 is_stmt 0                 @ ../../../ThirdParty/mbedTLS/library/sha256.c:0:5
	movs	r0, #3
	str	r0, [sp, #12]                   @ 4-byte Spill
	movs	r0, #97
	str	r0, [sp, #4]                    @ 4-byte Spill
	str	r5, [sp, #8]                    @ 4-byte Spill
	mov	r1, r7
	str	r7, [sp, #20]                   @ 4-byte Spill
	b	.LBB13_3
.Ltmp264:
.LBB13_2:                               @   in Loop: Header=BB13_3 Depth=1
	@DEBUG_VALUE: mbedtls_sha256_self_test:i <- $r5
	@DEBUG_VALUE: mbedtls_sha256_self_test:buf <- $r4
	@DEBUG_VALUE: mbedtls_sha256_self_test:ret <- 0
	.loc	2 535 25 is_stmt 1              @ ../../../ThirdParty/mbedTLS/library/sha256.c:535:25
	adds	r5, r5, #1
.Ltmp265:
	@DEBUG_VALUE: mbedtls_sha256_self_test:i <- $r5
	@DEBUG_VALUE: mbedtls_sha256_self_test:ret <- 0
	.loc	2 535 5 is_stmt 0               @ ../../../ThirdParty/mbedTLS/library/sha256.c:535:5
	cmp	r5, #6
	beq	.LBB13_24
.Ltmp266:
.LBB13_3:                               @ =>This Loop Header: Depth=1
                                        @     Child Loop BB13_12 Depth 2
	@DEBUG_VALUE: mbedtls_sha256_self_test:buf <- $r4
	@DEBUG_VALUE: mbedtls_sha256_self_test:ret <- 0
	@DEBUG_VALUE: mbedtls_sha256_self_test:i <- $r5
	.loc	2 538 15 is_stmt 1              @ ../../../ThirdParty/mbedTLS/library/sha256.c:538:15
	cmp	r5, #3
	ldr	r6, [sp, #16]                   @ 4-byte Reload
	blo	.LBB13_5
.Ltmp267:
@ %bb.4:                                @   in Loop: Header=BB13_3 Depth=1
	@DEBUG_VALUE: mbedtls_sha256_self_test:i <- $r5
	@DEBUG_VALUE: mbedtls_sha256_self_test:buf <- $r4
	@DEBUG_VALUE: mbedtls_sha256_self_test:ret <- 0
	ldr	r6, [sp, #8]                    @ 4-byte Reload
.Ltmp268:
.LBB13_5:                               @   in Loop: Header=BB13_3 Depth=1
	@DEBUG_VALUE: mbedtls_sha256_self_test:i <- $r5
	@DEBUG_VALUE: mbedtls_sha256_self_test:buf <- $r4
	@DEBUG_VALUE: mbedtls_sha256_self_test:ret <- 0
	@DEBUG_VALUE: mbedtls_sha256_self_test:k <- $r6
	.loc	2 0 15 is_stmt 0                @ ../../../ThirdParty/mbedTLS/library/sha256.c:0:15
	ldr	r2, [sp, #12]                   @ 4-byte Reload
	.loc	2 537 15 is_stmt 1              @ ../../../ThirdParty/mbedTLS/library/sha256.c:537:15
	udiv	r0, r5, r2
	muls	r0, r2, r0
	subs	r7, r5, r0
.Ltmp269:
	@DEBUG_VALUE: mbedtls_sha256_self_test:j <- $r7
	.loc	2 540 13                        @ ../../../ThirdParty/mbedTLS/library/sha256.c:540:13
	cbz	r1, .LBB13_10
.Ltmp270:
@ %bb.6:                                @   in Loop: Header=BB13_3 Depth=1
	@DEBUG_VALUE: mbedtls_sha256_self_test:j <- $r7
	@DEBUG_VALUE: mbedtls_sha256_self_test:k <- $r6
	@DEBUG_VALUE: mbedtls_sha256_self_test:i <- $r5
	@DEBUG_VALUE: mbedtls_sha256_self_test:buf <- $r4
	@DEBUG_VALUE: mbedtls_sha256_self_test:ret <- 0
	.loc	2 541 56                        @ ../../../ThirdParty/mbedTLS/library/sha256.c:541:56
	cmp	r5, #3
	blo	.LBB13_8
.Ltmp271:
@ %bb.7:                                @   in Loop: Header=BB13_3 Depth=1
	@DEBUG_VALUE: mbedtls_sha256_self_test:j <- $r7
	@DEBUG_VALUE: mbedtls_sha256_self_test:k <- $r6
	@DEBUG_VALUE: mbedtls_sha256_self_test:i <- $r5
	@DEBUG_VALUE: mbedtls_sha256_self_test:buf <- $r4
	@DEBUG_VALUE: mbedtls_sha256_self_test:ret <- 0
	.loc	2 0 56 is_stmt 0                @ ../../../ThirdParty/mbedTLS/library/sha256.c:0:56
	movw	r1, #256
	b	.LBB13_9
.Ltmp272:
.LBB13_8:                               @   in Loop: Header=BB13_3 Depth=1
	@DEBUG_VALUE: mbedtls_sha256_self_test:j <- $r7
	@DEBUG_VALUE: mbedtls_sha256_self_test:k <- $r6
	@DEBUG_VALUE: mbedtls_sha256_self_test:i <- $r5
	@DEBUG_VALUE: mbedtls_sha256_self_test:buf <- $r4
	@DEBUG_VALUE: mbedtls_sha256_self_test:ret <- 0
	movs	r1, #224
.Ltmp273:
.LBB13_9:                               @   in Loop: Header=BB13_3 Depth=1
	@DEBUG_VALUE: mbedtls_sha256_self_test:j <- $r7
	@DEBUG_VALUE: mbedtls_sha256_self_test:k <- $r6
	@DEBUG_VALUE: mbedtls_sha256_self_test:i <- $r5
	@DEBUG_VALUE: mbedtls_sha256_self_test:buf <- $r4
	@DEBUG_VALUE: mbedtls_sha256_self_test:ret <- 0
	.loc	2 541 68                        @ ../../../ThirdParty/mbedTLS/library/sha256.c:541:68
	adds	r2, r7, #1
	.loc	2 541 13                        @ ../../../ThirdParty/mbedTLS/library/sha256.c:541:13
	adr	r0, .LCPI13_0
	bl	__2printf
.Ltmp274:
.LBB13_10:                              @   in Loop: Header=BB13_3 Depth=1
	@DEBUG_VALUE: mbedtls_sha256_self_test:j <- $r7
	@DEBUG_VALUE: mbedtls_sha256_self_test:k <- $r6
	@DEBUG_VALUE: mbedtls_sha256_self_test:i <- $r5
	@DEBUG_VALUE: mbedtls_sha256_self_test:buf <- $r4
	@DEBUG_VALUE: mbedtls_sha256_self_test:ret <- 0
	.loc	2 0 13                          @ ../../../ThirdParty/mbedTLS/library/sha256.c:0:13
	add	r0, sp, #24
.Ltmp275:
	.loc	2 543 21 is_stmt 1              @ ../../../ThirdParty/mbedTLS/library/sha256.c:543:21
	mov	r1, r6
	bl	mbedtls_sha256_starts_ret
.Ltmp276:
	@DEBUG_VALUE: mbedtls_sha256_self_test:ret <- 0
	.loc	2 546 13                        @ ../../../ThirdParty/mbedTLS/library/sha256.c:546:13
	cmp	r7, #2
	bne	.LBB13_13
.Ltmp277:
@ %bb.11:                               @   in Loop: Header=BB13_3 Depth=1
	@DEBUG_VALUE: mbedtls_sha256_self_test:j <- $r7
	@DEBUG_VALUE: mbedtls_sha256_self_test:k <- $r6
	@DEBUG_VALUE: mbedtls_sha256_self_test:i <- $r5
	@DEBUG_VALUE: mbedtls_sha256_self_test:buf <- $r4
	@DEBUG_VALUE: mbedtls_sha256_self_test:ret <- 0
	@DEBUG_VALUE: mbedtls_sha256_self_test:buflen <- 1000
	.loc	2 548 13                        @ ../../../ThirdParty/mbedTLS/library/sha256.c:548:13
	mov	r0, r4
	movw	r1, #1000
	ldr	r2, [sp, #4]                    @ 4-byte Reload
	bl	__aeabi_memset
.Ltmp278:
	@DEBUG_VALUE: mbedtls_sha256_self_test:j <- 0
	.loc	2 0 13 is_stmt 0                @ ../../../ThirdParty/mbedTLS/library/sha256.c:0:13
	movw	r6, #1000
.Ltmp279:
.LBB13_12:                              @   Parent Loop BB13_3 Depth=1
                                        @ =>  This Inner Loop Header: Depth=2
	@DEBUG_VALUE: mbedtls_sha256_self_test:i <- $r5
	@DEBUG_VALUE: mbedtls_sha256_self_test:buf <- $r4
	@DEBUG_VALUE: mbedtls_sha256_self_test:buflen <- 1000
	@DEBUG_VALUE: mbedtls_sha256_self_test:ret <- 0
	@DEBUG_VALUE: mbedtls_sha256_self_test:j <- undef
	add	r0, sp, #24
.Ltmp280:
	.loc	2 552 23 is_stmt 1              @ ../../../ThirdParty/mbedTLS/library/sha256.c:552:23
	mov	r1, r4
	movw	r2, #1000
	bl	mbedtls_sha256_update_ret
.Ltmp281:
	@DEBUG_VALUE: mbedtls_sha256_self_test:j <- [DW_OP_plus_uconst 1, DW_OP_stack_value] undef
	@DEBUG_VALUE: mbedtls_sha256_self_test:ret <- 0
	.loc	2 550 27                        @ ../../../ThirdParty/mbedTLS/library/sha256.c:550:27
	subs	r6, r6, #1
.Ltmp282:
	.loc	2 550 13 is_stmt 0              @ ../../../ThirdParty/mbedTLS/library/sha256.c:550:13
	bne	.LBB13_12
	b	.LBB13_14
.Ltmp283:
.LBB13_13:                              @   in Loop: Header=BB13_3 Depth=1
	@DEBUG_VALUE: mbedtls_sha256_self_test:j <- $r7
	@DEBUG_VALUE: mbedtls_sha256_self_test:k <- $r6
	@DEBUG_VALUE: mbedtls_sha256_self_test:i <- $r5
	@DEBUG_VALUE: mbedtls_sha256_self_test:buf <- $r4
	@DEBUG_VALUE: mbedtls_sha256_self_test:ret <- 0
	.loc	2 0 13                          @ ../../../ThirdParty/mbedTLS/library/sha256.c:0:13
	movs	r0, #57
.Ltmp284:
	.loc	2 560 52 is_stmt 1              @ ../../../ThirdParty/mbedTLS/library/sha256.c:560:52
	muls	r0, r7, r0
	ldr	r1, __arm_cp.13_1
	adds	r1, r1, r0
	.loc	2 561 46                        @ ../../../ThirdParty/mbedTLS/library/sha256.c:561:46
	lsls	r0, r7, #2
	adr	r2, .LCPI13_2
	ldr	r2, [r2, r0]
	add	r0, sp, #24
	.loc	2 560 19                        @ ../../../ThirdParty/mbedTLS/library/sha256.c:560:19
	bl	mbedtls_sha256_update_ret
.Ltmp285:
	@DEBUG_VALUE: mbedtls_sha256_self_test:ret <- 0
.LBB13_14:                              @   in Loop: Header=BB13_3 Depth=1
	@DEBUG_VALUE: mbedtls_sha256_self_test:i <- $r5
	@DEBUG_VALUE: mbedtls_sha256_self_test:buf <- $r4
	@DEBUG_VALUE: mbedtls_sha256_self_test:ret <- 0
	.loc	2 0 19 is_stmt 0                @ ../../../ThirdParty/mbedTLS/library/sha256.c:0:19
	add	r0, sp, #24
	add	r6, sp, #132
.Ltmp286:
	.loc	2 566 21 is_stmt 1              @ ../../../ThirdParty/mbedTLS/library/sha256.c:566:21
	mov	r1, r6
	bl	mbedtls_sha256_finish_ret
.Ltmp287:
	.loc	2 570 55                        @ ../../../ThirdParty/mbedTLS/library/sha256.c:570:55
	cmp	r5, #3
	blo	.LBB13_16
.Ltmp288:
@ %bb.15:                               @   in Loop: Header=BB13_3 Depth=1
	@DEBUG_VALUE: mbedtls_sha256_self_test:i <- $r5
	@DEBUG_VALUE: mbedtls_sha256_self_test:buf <- $r4
	@DEBUG_VALUE: mbedtls_sha256_self_test:ret <- 0
	.loc	2 0 55 is_stmt 0                @ ../../../ThirdParty/mbedTLS/library/sha256.c:0:55
	movs	r2, #32
	b	.LBB13_17
.Ltmp289:
.LBB13_16:                              @   in Loop: Header=BB13_3 Depth=1
	@DEBUG_VALUE: mbedtls_sha256_self_test:i <- $r5
	@DEBUG_VALUE: mbedtls_sha256_self_test:buf <- $r4
	@DEBUG_VALUE: mbedtls_sha256_self_test:ret <- 0
	movs	r2, #28
.Ltmp290:
.LBB13_17:                              @   in Loop: Header=BB13_3 Depth=1
	@DEBUG_VALUE: mbedtls_sha256_self_test:i <- $r5
	@DEBUG_VALUE: mbedtls_sha256_self_test:buf <- $r4
	@DEBUG_VALUE: mbedtls_sha256_self_test:ret <- 0
	@DEBUG_VALUE: mbedtls_sha256_self_test:ret <- 0
	.loc	2 570 32                        @ ../../../ThirdParty/mbedTLS/library/sha256.c:570:32
	lsls	r0, r5, #5
	ldr	r1, __arm_cp.13_3
	adds	r1, r1, r0
	.loc	2 570 13                        @ ../../../ThirdParty/mbedTLS/library/sha256.c:570:13
	mov	r0, r6
	bl	memcmp
.Ltmp291:
	.loc	2 570 13                        @ ../../../ThirdParty/mbedTLS/library/sha256.c:570:13
	cbnz	r0, .LBB13_22
.Ltmp292:
@ %bb.18:                               @   in Loop: Header=BB13_3 Depth=1
	@DEBUG_VALUE: mbedtls_sha256_self_test:i <- $r5
	@DEBUG_VALUE: mbedtls_sha256_self_test:buf <- $r4
	@DEBUG_VALUE: mbedtls_sha256_self_test:ret <- 0
	.loc	2 0 13                          @ ../../../ThirdParty/mbedTLS/library/sha256.c:0:13
	ldr	r1, [sp, #20]                   @ 4-byte Reload
	.loc	2 576 13 is_stmt 1              @ ../../../ThirdParty/mbedTLS/library/sha256.c:576:13
	cmp	r1, #0
	beq	.LBB13_2
.Ltmp293:
@ %bb.19:                               @   in Loop: Header=BB13_3 Depth=1
	@DEBUG_VALUE: mbedtls_sha256_self_test:i <- $r5
	@DEBUG_VALUE: mbedtls_sha256_self_test:buf <- $r4
	@DEBUG_VALUE: mbedtls_sha256_self_test:ret <- 0
	.loc	2 577 13                        @ ../../../ThirdParty/mbedTLS/library/sha256.c:577:13
	adr	r0, .LCPI13_5
	bl	puts
	ldr	r1, [sp, #20]                   @ 4-byte Reload
	b	.LBB13_2
.Ltmp294:
.LBB13_20:
	@DEBUG_VALUE: mbedtls_sha256_self_test:verbose <- $r7
	@DEBUG_VALUE: mbedtls_sha256_self_test:buf <- $r0
	@DEBUG_VALUE: mbedtls_sha256_self_test:ret <- 0
	.loc	2 0 13 is_stmt 0                @ ../../../ThirdParty/mbedTLS/library/sha256.c:0:13
	movs	r6, #1
.Ltmp295:
	.loc	2 527 13 is_stmt 1              @ ../../../ThirdParty/mbedTLS/library/sha256.c:527:13
	cbz	r7, .LBB13_27
.Ltmp296:
@ %bb.21:
	@DEBUG_VALUE: mbedtls_sha256_self_test:verbose <- $r7
	@DEBUG_VALUE: mbedtls_sha256_self_test:buf <- $r0
	@DEBUG_VALUE: mbedtls_sha256_self_test:ret <- 0
	.loc	2 528 13                        @ ../../../ThirdParty/mbedTLS/library/sha256.c:528:13
	adr	r0, .LCPI13_6
.Ltmp297:
	bl	puts
	b	.LBB13_27
.Ltmp298:
.LBB13_22:
	@DEBUG_VALUE: mbedtls_sha256_self_test:i <- $r5
	@DEBUG_VALUE: mbedtls_sha256_self_test:buf <- $r4
	@DEBUG_VALUE: mbedtls_sha256_self_test:ret <- 0
	@DEBUG_VALUE: mbedtls_sha256_self_test:ret <- 1
	@DEBUG_LABEL: mbedtls_sha256_self_test:fail
	.loc	2 0 13 is_stmt 0                @ ../../../ThirdParty/mbedTLS/library/sha256.c:0:13
	movs	r6, #1
	.loc	2 586 9 is_stmt 1               @ ../../../ThirdParty/mbedTLS/library/sha256.c:586:9
	ldr	r0, [sp, #20]                   @ 4-byte Reload
	cbz	r0, .LBB13_26
.Ltmp299:
@ %bb.23:
	@DEBUG_VALUE: mbedtls_sha256_self_test:i <- $r5
	@DEBUG_VALUE: mbedtls_sha256_self_test:buf <- $r4
	@DEBUG_VALUE: mbedtls_sha256_self_test:ret <- 1
	.loc	2 587 9                         @ ../../../ThirdParty/mbedTLS/library/sha256.c:587:9
	adr	r0, .LCPI13_4
	bl	puts
	b	.LBB13_26
.Ltmp300:
.LBB13_24:
	@DEBUG_VALUE: mbedtls_sha256_self_test:i <- $r5
	@DEBUG_VALUE: mbedtls_sha256_self_test:buf <- $r4
	@DEBUG_VALUE: mbedtls_sha256_self_test:ret <- 0
	.loc	2 0 9 is_stmt 0                 @ ../../../ThirdParty/mbedTLS/library/sha256.c:0:9
	movs	r6, #0
	.loc	2 580 9 is_stmt 1               @ ../../../ThirdParty/mbedTLS/library/sha256.c:580:9
	cbz	r1, .LBB13_26
.Ltmp301:
@ %bb.25:
	@DEBUG_VALUE: mbedtls_sha256_self_test:i <- $r5
	@DEBUG_VALUE: mbedtls_sha256_self_test:buf <- $r4
	@DEBUG_VALUE: mbedtls_sha256_self_test:ret <- 0
	.loc	2 0 9 is_stmt 0                 @ ../../../ThirdParty/mbedTLS/library/sha256.c:0:9
	movs	r0, #10
.Ltmp302:
	.loc	2 581 9 is_stmt 1               @ ../../../ThirdParty/mbedTLS/library/sha256.c:581:9
	bl	putchar
.Ltmp303:
.LBB13_26:
	@DEBUG_VALUE: mbedtls_sha256_self_test:i <- $r5
	@DEBUG_VALUE: mbedtls_sha256_self_test:buf <- $r4
	@DEBUG_VALUE: mbedtls_sha256_self_test:ret <- $r6
	@DEBUG_LABEL: mbedtls_sha256_self_test:exit
	.loc	2 0 9 is_stmt 0                 @ ../../../ThirdParty/mbedTLS/library/sha256.c:0:9
	add	r0, sp, #24
	.loc	2 590 5 is_stmt 1               @ ../../../ThirdParty/mbedTLS/library/sha256.c:590:5
	bl	mbedtls_sha256_free
	.loc	2 591 5                         @ ../../../ThirdParty/mbedTLS/library/sha256.c:591:5
	mov	r0, r4
	bl	free
.Ltmp304:
.LBB13_27:
	.loc	2 594 1                         @ ../../../ThirdParty/mbedTLS/library/sha256.c:594:1
	mov	r0, r6
	add	sp, #164
	pop	{r4, r5, r6, r7, pc}
.Ltmp305:
	.p2align	2
@ %bb.28:
	.loc	2 0 1 is_stmt 0                 @ ../../../ThirdParty/mbedTLS/library/sha256.c:0:1
.LCPI13_0:
.L.str.1:
	.asciz	"  SHA-%d test #%d: "
__arm_cp.13_1:
	.long	sha256_test_buf
.Lcpi_end17:
	.size	__arm_cp.13_1, .Lcpi_end17-__arm_cp.13_1
.LCPI13_2:
sha256_test_buflen:
	.long	3                               @ 0x3
	.long	56                              @ 0x38
	.long	1000                            @ 0x3e8
__arm_cp.13_3:
	.long	sha256_test_sum
.Lcpi_end18:
	.size	__arm_cp.13_3, .Lcpi_end18-__arm_cp.13_3
.LCPI13_4:
.Lstr.5:
	.asciz	"failed\000"
.LCPI13_5:
.Lstr:
	.asciz	"passed\000"
.LCPI13_6:
.Lstr.6:
	.asciz	"Buffer allocation failed\000\000\000"
.Lfunc_end13:
	.size	mbedtls_sha256_self_test, .Lfunc_end13-mbedtls_sha256_self_test
	.cfi_endproc
	.cantunwind
	.fnend
                                        @ -- End function
	.type	K,%object                       @ @K
	.section	.rodata.K,"a",%progbits
	.p2align	2
K:
	.long	1116352408                      @ 0x428a2f98
	.long	1899447441                      @ 0x71374491
	.long	3049323471                      @ 0xb5c0fbcf
	.long	3921009573                      @ 0xe9b5dba5
	.long	961987163                       @ 0x3956c25b
	.long	1508970993                      @ 0x59f111f1
	.long	2453635748                      @ 0x923f82a4
	.long	2870763221                      @ 0xab1c5ed5
	.long	3624381080                      @ 0xd807aa98
	.long	310598401                       @ 0x12835b01
	.long	607225278                       @ 0x243185be
	.long	1426881987                      @ 0x550c7dc3
	.long	1925078388                      @ 0x72be5d74
	.long	2162078206                      @ 0x80deb1fe
	.long	2614888103                      @ 0x9bdc06a7
	.long	3248222580                      @ 0xc19bf174
	.long	3835390401                      @ 0xe49b69c1
	.long	4022224774                      @ 0xefbe4786
	.long	264347078                       @ 0xfc19dc6
	.long	604807628                       @ 0x240ca1cc
	.long	770255983                       @ 0x2de92c6f
	.long	1249150122                      @ 0x4a7484aa
	.long	1555081692                      @ 0x5cb0a9dc
	.long	1996064986                      @ 0x76f988da
	.long	2554220882                      @ 0x983e5152
	.long	2821834349                      @ 0xa831c66d
	.long	2952996808                      @ 0xb00327c8
	.long	3210313671                      @ 0xbf597fc7
	.long	3336571891                      @ 0xc6e00bf3
	.long	3584528711                      @ 0xd5a79147
	.long	113926993                       @ 0x6ca6351
	.long	338241895                       @ 0x14292967
	.long	666307205                       @ 0x27b70a85
	.long	773529912                       @ 0x2e1b2138
	.long	1294757372                      @ 0x4d2c6dfc
	.long	1396182291                      @ 0x53380d13
	.long	1695183700                      @ 0x650a7354
	.long	1986661051                      @ 0x766a0abb
	.long	2177026350                      @ 0x81c2c92e
	.long	2456956037                      @ 0x92722c85
	.long	2730485921                      @ 0xa2bfe8a1
	.long	2820302411                      @ 0xa81a664b
	.long	3259730800                      @ 0xc24b8b70
	.long	3345764771                      @ 0xc76c51a3
	.long	3516065817                      @ 0xd192e819
	.long	3600352804                      @ 0xd6990624
	.long	4094571909                      @ 0xf40e3585
	.long	275423344                       @ 0x106aa070
	.long	430227734                       @ 0x19a4c116
	.long	506948616                       @ 0x1e376c08
	.long	659060556                       @ 0x2748774c
	.long	883997877                       @ 0x34b0bcb5
	.long	958139571                       @ 0x391c0cb3
	.long	1322822218                      @ 0x4ed8aa4a
	.long	1537002063                      @ 0x5b9cca4f
	.long	1747873779                      @ 0x682e6ff3
	.long	1955562222                      @ 0x748f82ee
	.long	2024104815                      @ 0x78a5636f
	.long	2227730452                      @ 0x84c87814
	.long	2361852424                      @ 0x8cc70208
	.long	2428436474                      @ 0x90befffa
	.long	2756734187                      @ 0xa4506ceb
	.long	3204031479                      @ 0xbef9a3f7
	.long	3329325298                      @ 0xc67178f2
	.size	K, 256

	.type	sha256_test_buf,%object         @ @sha256_test_buf
	.section	.rodata.sha256_test_buf,"a",%progbits
sha256_test_buf:
	.asciz	"abc\000\000\000\000\000\000\000\000\000\000\000\000\000\000\000\000\000\000\000\000\000\000\000\000\000\000\000\000\000\000\000\000\000\000\000\000\000\000\000\000\000\000\000\000\000\000\000\000\000\000\000\000\000"
	.asciz	"abcdbcdecdefdefgefghfghighijhijkijkljklmklmnlmnomnopnopq"
	.zero	57
	.size	sha256_test_buf, 171

	.type	sha256_test_sum,%object         @ @sha256_test_sum
	.section	.rodata.sha256_test_sum,"a",%progbits
sha256_test_sum:
	.asciz	"#\t}\"4\005\330\"\206B\244w\275\242U\263*\255\274\344\275\240\263\367\343l\235\247\000\000\000"
	.asciz	"u8\213\026Q'v\314]\272]\241\375\211\001P\260\306E\\\264\365\213\031RR%%\000\000\000"
	.asciz	" yFU\230\f\221\330\273\264\301\352\227a\212K\360?BX\031H\262\356N\347\255g\000\000\000"
	.ascii	"\272x\026\277\217\001\317\352AA@\336]\256\"#\260\003a\243\226\027z\234\264\020\377a\362\000\025\255"
	.ascii	"$\215ja\322\0068\270\345\300&\223\f>`9\243<\344Yd\377!g\366\354\355\324\031\333\006\301"
	.ascii	"\315\307n\\\231\024\373\222\201\241\307\342\204\327>g\361\200\232H\244\227 \016\004m9\314\307\021,\320"
	.size	sha256_test_sum, 192

	.globl	_printf_percent
	.globl	_printf_d
	.globl	_printf_int_dec
	.hidden	_printf_percent
	.hidden	_printf_d
	.hidden	_printf_int_dec
	.file	4 "C:\\Users\\shw26\\OneDrive\\Desktop\\2021\\2021-1\\\354\272\241\354\212\244\355\206\244\353\224\224\354\236\220\354\235\2702\\Nuvoton\\M2351_BSP_v3.00.004\\M2351Series_BSP_CMSIS_V3.00.004\\MyProject\\PulseMonitoring\\Secure" "../../../ThirdParty/mbedTLS/include/mbedtls\\sha256.h"
	.section	".note.GNU-stack","",%progbits
	.eabi_attribute	30, 1	@ Tag_ABI_optimization_goals
	.ARM_attribute	16, 1	@ Tag_AV_eba