	.text
	.syntax unified
	.eabi_attribute	67, "2.09"	@ Tag_conformance
	.cpu	cortex-m23
	.eabi_attribute	6, 16	@ Tag_CPU_arch
	.eabi_attribute	7, 77	@ Tag_CPU_arch_profile
	.eabi_attribute	8, 0	@ Tag_ARM_ISA_use
	.eabi_attribute	9, 3	@ Tag_THUMB_ISA_use
	.eabi_attribute	34, 0	@ Tag_CPU_unaligned_access
	.eabi_attribute	17, 1	@ Tag_ABI_PCS_GOT_use
	.eabi_attribute	20, 2	@ Tag_ABI_FP_denormal
	.eabi_attribute	21, 0	@ Tag_ABI_FP_exceptions
	.eabi_attribute	23, 1	@ Tag_ABI_FP_number_model
	.eabi_attribute	24, 1	@ Tag_ABI_align_needed
	.eabi_attribute	25, 1	@ Tag_ABI_align_preserved
	.eabi_attribute	38, 1	@ Tag_ABI_FP_16bit_format
	.eabi_attribute	18, 2	@ Tag_ABI_PCS_wchar_t
	.eabi_attribute	26, 1	@ Tag_ABI_enum_size
	.eabi_attribute	14, 0	@ Tag_ABI_PCS_R9_use
	.file	"sha512.c"
	.file	1 "C:\\" "Keil_v5\\ARM\\ARMCLANG\\Bin\\..\\include\\stdint.h"
	.file	2 "C:\\Users\\shw26\\OneDrive\\Desktop\\2021\\2021-1\\\354\272\241\354\212\244\355\206\244\353\224\224\354\236\220\354\235\2702\\Nuvoton\\M2351_BSP_v3.00.004\\M2351Series_BSP_CMSIS_V3.00.004\\MyProject\\PulseMonitoring\\Secure" "../../../ThirdParty/mbedTLS/library/sha512.c"
	.file	3 "C:\\" "Keil_v5\\ARM\\ARMCLANG\\Bin\\..\\include\\stddef.h"
	.section	.text.mbedtls_sha512_init,"ax",%progbits
	.hidden	mbedtls_sha512_init             @ -- Begin function mbedtls_sha512_init
	.globl	mbedtls_sha512_init
	.p2align	1
	.type	mbedtls_sha512_init,%function
	.code	16                              @ @mbedtls_sha512_init
	.thumb_func
mbedtls_sha512_init:
.Lfunc_begin0:
	.loc	2 96 0                          @ ../../../ThirdParty/mbedTLS/library/sha512.c:96:0
	.fnstart
	.cfi_sections .debug_frame
	.cfi_startproc
@ %bb.0:
	@DEBUG_VALUE: mbedtls_sha512_init:ctx <- $r0
	@DEBUG_VALUE: mbedtls_sha512_init:ctx <- $r0
	.save	{r7, lr}
	push	{r7, lr}
	.cfi_def_cfa_offset 8
	.cfi_offset lr, -4
	.cfi_offset r7, -8
	movs	r1, #216
	@DEBUG_VALUE: mbedtls_sha512_init:ctx <- $r0
.Ltmp0:
	.loc	2 99 5 prologue_end             @ ../../../ThirdParty/mbedTLS/library/sha512.c:99:5
	bl	__aeabi_memclr8
.Ltmp1:
	@DEBUG_VALUE: mbedtls_sha512_init:ctx <- [DW_OP_LLVM_entry_value 1] $r0
	.loc	2 100 1                         @ ../../../ThirdParty/mbedTLS/library/sha512.c:100:1
	pop	{r7, pc}
.Ltmp2:
.Lfunc_end0:
	.size	mbedtls_sha512_init, .Lfunc_end0-mbedtls_sha512_init
	.cfi_endproc
	.cantunwind
	.fnend
                                        @ -- End function
	.section	.text.mbedtls_sha512_free,"ax",%progbits
	.hidden	mbedtls_sha512_free             @ -- Begin function mbedtls_sha512_free
	.globl	mbedtls_sha512_free
	.p2align	1
	.type	mbedtls_sha512_free,%function
	.code	16                              @ @mbedtls_sha512_free
	.thumb_func
mbedtls_sha512_free:
.Lfunc_begin1:
	.loc	2 103 0                         @ ../../../ThirdParty/mbedTLS/library/sha512.c:103:0
	.fnstart
	.cfi_startproc
@ %bb.0:
	@DEBUG_VALUE: mbedtls_sha512_free:ctx <- $r0
	@DEBUG_VALUE: mbedtls_sha512_free:ctx <- $r0
	.save	{r7, lr}
	push	{r7, lr}
	.cfi_def_cfa_offset 8
	.cfi_offset lr, -4
	.cfi_offset r7, -8
.Ltmp3:
	.loc	2 104 9 prologue_end            @ ../../../ThirdParty/mbedTLS/library/sha512.c:104:9
	cbz	r0, .LBB1_2
.Ltmp4:
@ %bb.1:
	@DEBUG_VALUE: mbedtls_sha512_free:ctx <- $r0
	.loc	2 0 9 is_stmt 0                 @ ../../../ThirdParty/mbedTLS/library/sha512.c:0:9
	movs	r1, #216
	.loc	2 107 5 is_stmt 1               @ ../../../ThirdParty/mbedTLS/library/sha512.c:107:5
	bl	mbedtls_platform_zeroize
.Ltmp5:
	@DEBUG_VALUE: mbedtls_sha512_free:ctx <- [DW_OP_LLVM_entry_value 1] $r0
.LBB1_2:
	.loc	2 108 1                         @ ../../../ThirdParty/mbedTLS/library/sha512.c:108:1
	pop	{r7, pc}
.Ltmp6:
.Lfunc_end1:
	.size	mbedtls_sha512_free, .Lfunc_end1-mbedtls_sha512_free
	.cfi_endproc
	.cantunwind
	.fnend
                                        @ -- End function
	.section	.text.mbedtls_sha512_clone,"ax",%progbits
	.hidden	mbedtls_sha512_clone            @ -- Begin function mbedtls_sha512_clone
	.globl	mbedtls_sha512_clone
	.p2align	1
	.type	mbedtls_sha512_clone,%function
	.code	16                              @ @mbedtls_sha512_clone
	.thumb_func
mbedtls_sha512_clone:
.Lfunc_begin2:
	.loc	2 112 0                         @ ../../../ThirdParty/mbedTLS/library/sha512.c:112:0
	.fnstart
	.cfi_startproc
@ %bb.0:
	@DEBUG_VALUE: mbedtls_sha512_clone:dst <- $r0
	@DEBUG_VALUE: mbedtls_sha512_clone:dst <- $r0
	@DEBUG_VALUE: mbedtls_sha512_clone:src <- $r1
	@DEBUG_VALUE: mbedtls_sha512_clone:src <- $r1
	.save	{r7, lr}
	push	{r7, lr}
	.cfi_def_cfa_offset 8
	.cfi_offset lr, -4
	.cfi_offset r7, -8
	movs	r2, #216
	@DEBUG_VALUE: mbedtls_sha512_clone:src <- $r1
	@DEBUG_VALUE: mbedtls_sha512_clone:dst <- $r0
.Ltmp7:
	.loc	2 116 12 prologue_end           @ ../../../ThirdParty/mbedTLS/library/sha512.c:116:12
	bl	__aeabi_memcpy8
.Ltmp8:
	@DEBUG_VALUE: mbedtls_sha512_clone:src <- [DW_OP_LLVM_entry_value 1] $r1
	@DEBUG_VALUE: mbedtls_sha512_clone:dst <- [DW_OP_LLVM_entry_value 1] $r0
	.loc	2 117 1                         @ ../../../ThirdParty/mbedTLS/library/sha512.c:117:1
	pop	{r7, pc}
.Ltmp9:
.Lfunc_end2:
	.size	mbedtls_sha512_clone, .Lfunc_end2-mbedtls_sha512_clone
	.cfi_endproc
	.cantunwind
	.fnend
                                        @ -- End function
	.section	.text.mbedtls_sha512_starts_ret,"ax",%progbits
	.hidden	mbedtls_sha512_starts_ret       @ -- Begin function mbedtls_sha512_starts_ret
	.globl	mbedtls_sha512_starts_ret
	.p2align	2
	.type	mbedtls_sha512_starts_ret,%function
	.code	16                              @ @mbedtls_sha512_starts_ret
	.thumb_func
mbedtls_sha512_starts_ret:
.Lfunc_begin3:
	.loc	2 123 0                         @ ../../../ThirdParty/mbedTLS/library/sha512.c:123:0
	.fnstart
	.cfi_startproc
@ %bb.0:
	@DEBUG_VALUE: mbedtls_sha512_starts_ret:ctx <- $r0
	@DEBUG_VALUE: mbedtls_sha512_starts_ret:is384 <- $r1
	movs	r2, #208
	@DEBUG_VALUE: mbedtls_sha512_starts_ret:is384 <- $r1
	@DEBUG_VALUE: mbedtls_sha512_starts_ret:ctx <- $r0
.Ltmp10:
	.loc	2 155 16 prologue_end           @ ../../../ThirdParty/mbedTLS/library/sha512.c:155:16
	str	r1, [r0, r2]
	movs	r2, #0
	.loc	2 128 19                        @ ../../../ThirdParty/mbedTLS/library/sha512.c:128:19
	str	r2, [r0]
	str	r2, [r0, #4]
	str	r2, [r0, #8]
	str	r2, [r0, #12]
	cbz	r1, .LBB3_2
.Ltmp11:
@ %bb.1:
	@DEBUG_VALUE: mbedtls_sha512_starts_ret:is384 <- $r1
	@DEBUG_VALUE: mbedtls_sha512_starts_ret:ctx <- $r0
	.loc	2 0 19 is_stmt 0                @ ../../../ThirdParty/mbedTLS/library/sha512.c:0:19
	ldr	r3, __arm_cp.3_1
	b	.LBB3_3
.Ltmp12:
.LBB3_2:
	@DEBUG_VALUE: mbedtls_sha512_starts_ret:is384 <- $r1
	@DEBUG_VALUE: mbedtls_sha512_starts_ret:ctx <- $r0
	ldr	r3, __arm_cp.3_0
.Ltmp13:
.LBB3_3:
	@DEBUG_VALUE: mbedtls_sha512_starts_ret:is384 <- $r1
	@DEBUG_VALUE: mbedtls_sha512_starts_ret:ctx <- $r0
	str	r3, [r0, #76]
	cbz	r1, .LBB3_5
.Ltmp14:
@ %bb.4:
	@DEBUG_VALUE: mbedtls_sha512_starts_ret:is384 <- $r1
	@DEBUG_VALUE: mbedtls_sha512_starts_ret:ctx <- $r0
	ldr	r3, __arm_cp.3_3
	b	.LBB3_6
.Ltmp15:
.LBB3_5:
	@DEBUG_VALUE: mbedtls_sha512_starts_ret:is384 <- $r1
	@DEBUG_VALUE: mbedtls_sha512_starts_ret:ctx <- $r0
	ldr	r3, __arm_cp.3_2
.Ltmp16:
.LBB3_6:
	@DEBUG_VALUE: mbedtls_sha512_starts_ret:is384 <- $r1
	@DEBUG_VALUE: mbedtls_sha512_starts_ret:ctx <- $r0
	str	r3, [r0, #72]
	cbz	r1, .LBB3_8
.Ltmp17:
@ %bb.7:
	@DEBUG_VALUE: mbedtls_sha512_starts_ret:is384 <- $r1
	@DEBUG_VALUE: mbedtls_sha512_starts_ret:ctx <- $r0
	ldr	r3, __arm_cp.3_5
	b	.LBB3_9
.Ltmp18:
.LBB3_8:
	@DEBUG_VALUE: mbedtls_sha512_starts_ret:is384 <- $r1
	@DEBUG_VALUE: mbedtls_sha512_starts_ret:ctx <- $r0
	ldr	r3, __arm_cp.3_4
.Ltmp19:
.LBB3_9:
	@DEBUG_VALUE: mbedtls_sha512_starts_ret:is384 <- $r1
	@DEBUG_VALUE: mbedtls_sha512_starts_ret:ctx <- $r0
	str	r3, [r0, #68]
	cbz	r1, .LBB3_11
.Ltmp20:
@ %bb.10:
	@DEBUG_VALUE: mbedtls_sha512_starts_ret:is384 <- $r1
	@DEBUG_VALUE: mbedtls_sha512_starts_ret:ctx <- $r0
	ldr	r3, __arm_cp.3_7
	b	.LBB3_12
.Ltmp21:
.LBB3_11:
	@DEBUG_VALUE: mbedtls_sha512_starts_ret:is384 <- $r1
	@DEBUG_VALUE: mbedtls_sha512_starts_ret:ctx <- $r0
	ldr	r3, __arm_cp.3_6
.Ltmp22:
.LBB3_12:
	@DEBUG_VALUE: mbedtls_sha512_starts_ret:is384 <- $r1
	@DEBUG_VALUE: mbedtls_sha512_starts_ret:ctx <- $r0
	str	r3, [r0, #64]
	cbz	r1, .LBB3_14
.Ltmp23:
@ %bb.13:
	@DEBUG_VALUE: mbedtls_sha512_starts_ret:is384 <- $r1
	@DEBUG_VALUE: mbedtls_sha512_starts_ret:ctx <- $r0
	ldr	r3, __arm_cp.3_9
	b	.LBB3_15
.Ltmp24:
.LBB3_14:
	@DEBUG_VALUE: mbedtls_sha512_starts_ret:is384 <- $r1
	@DEBUG_VALUE: mbedtls_sha512_starts_ret:ctx <- $r0
	ldr	r3, __arm_cp.3_8
.Ltmp25:
.LBB3_15:
	@DEBUG_VALUE: mbedtls_sha512_starts_ret:is384 <- $r1
	@DEBUG_VALUE: mbedtls_sha512_starts_ret:ctx <- $r0
	str	r3, [r0, #60]
	cbz	r1, .LBB3_17
.Ltmp26:
@ %bb.16:
	@DEBUG_VALUE: mbedtls_sha512_starts_ret:is384 <- $r1
	@DEBUG_VALUE: mbedtls_sha512_starts_ret:ctx <- $r0
	ldr	r3, __arm_cp.3_11
	b	.LBB3_18
.Ltmp27:
.LBB3_17:
	@DEBUG_VALUE: mbedtls_sha512_starts_ret:is384 <- $r1
	@DEBUG_VALUE: mbedtls_sha512_starts_ret:ctx <- $r0
	ldr	r3, __arm_cp.3_10
.Ltmp28:
.LBB3_18:
	@DEBUG_VALUE: mbedtls_sha512_starts_ret:is384 <- $r1
	@DEBUG_VALUE: mbedtls_sha512_starts_ret:ctx <- $r0
	str	r3, [r0, #56]
	cbz	r1, .LBB3_20
.Ltmp29:
@ %bb.19:
	@DEBUG_VALUE: mbedtls_sha512_starts_ret:is384 <- $r1
	@DEBUG_VALUE: mbedtls_sha512_starts_ret:ctx <- $r0
	ldr	r3, __arm_cp.3_13
	b	.LBB3_21
.Ltmp30:
.LBB3_20:
	@DEBUG_VALUE: mbedtls_sha512_starts_ret:is384 <- $r1
	@DEBUG_VALUE: mbedtls_sha512_starts_ret:ctx <- $r0
	ldr	r3, __arm_cp.3_12
.Ltmp31:
.LBB3_21:
	@DEBUG_VALUE: mbedtls_sha512_starts_ret:is384 <- $r1
	@DEBUG_VALUE: mbedtls_sha512_starts_ret:ctx <- $r0
	str	r3, [r0, #52]
	cbz	r1, .LBB3_23
.Ltmp32:
@ %bb.22:
	@DEBUG_VALUE: mbedtls_sha512_starts_ret:is384 <- $r1
	@DEBUG_VALUE: mbedtls_sha512_starts_ret:ctx <- $r0
	ldr	r3, __arm_cp.3_15
	b	.LBB3_24
.Ltmp33:
.LBB3_23:
	@DEBUG_VALUE: mbedtls_sha512_starts_ret:is384 <- $r1
	@DEBUG_VALUE: mbedtls_sha512_starts_ret:ctx <- $r0
	ldr	r3, __arm_cp.3_14
.Ltmp34:
.LBB3_24:
	@DEBUG_VALUE: mbedtls_sha512_starts_ret:is384 <- $r1
	@DEBUG_VALUE: mbedtls_sha512_starts_ret:ctx <- $r0
	str	r3, [r0, #48]
	cbz	r1, .LBB3_26
.Ltmp35:
@ %bb.25:
	@DEBUG_VALUE: mbedtls_sha512_starts_ret:is384 <- $r1
	@DEBUG_VALUE: mbedtls_sha512_starts_ret:ctx <- $r0
	ldr	r3, __arm_cp.3_17
	b	.LBB3_27
.Ltmp36:
.LBB3_26:
	@DEBUG_VALUE: mbedtls_sha512_starts_ret:is384 <- $r1
	@DEBUG_VALUE: mbedtls_sha512_starts_ret:ctx <- $r0
	ldr	r3, __arm_cp.3_16
.Ltmp37:
.LBB3_27:
	@DEBUG_VALUE: mbedtls_sha512_starts_ret:is384 <- $r1
	@DEBUG_VALUE: mbedtls_sha512_starts_ret:ctx <- $r0
	str	r3, [r0, #44]
	cbz	r1, .LBB3_29
.Ltmp38:
@ %bb.28:
	@DEBUG_VALUE: mbedtls_sha512_starts_ret:is384 <- $r1
	@DEBUG_VALUE: mbedtls_sha512_starts_ret:ctx <- $r0
	ldr	r3, __arm_cp.3_19
	b	.LBB3_30
.Ltmp39:
.LBB3_29:
	@DEBUG_VALUE: mbedtls_sha512_starts_ret:is384 <- $r1
	@DEBUG_VALUE: mbedtls_sha512_starts_ret:ctx <- $r0
	ldr	r3, __arm_cp.3_18
.Ltmp40:
.LBB3_30:
	@DEBUG_VALUE: mbedtls_sha512_starts_ret:is384 <- $r1
	@DEBUG_VALUE: mbedtls_sha512_starts_ret:ctx <- $r0
	str	r3, [r0, #40]
	cbz	r1, .LBB3_32
.Ltmp41:
@ %bb.31:
	@DEBUG_VALUE: mbedtls_sha512_starts_ret:is384 <- $r1
	@DEBUG_VALUE: mbedtls_sha512_starts_ret:ctx <- $r0
	ldr	r3, __arm_cp.3_21
	b	.LBB3_33
.Ltmp42:
.LBB3_32:
	@DEBUG_VALUE: mbedtls_sha512_starts_ret:is384 <- $r1
	@DEBUG_VALUE: mbedtls_sha512_starts_ret:ctx <- $r0
	ldr	r3, __arm_cp.3_20
.Ltmp43:
.LBB3_33:
	@DEBUG_VALUE: mbedtls_sha512_starts_ret:is384 <- $r1
	@DEBUG_VALUE: mbedtls_sha512_starts_ret:ctx <- $r0
	str	r3, [r0, #36]
	cbz	r1, .LBB3_35
.Ltmp44:
@ %bb.34:
	@DEBUG_VALUE: mbedtls_sha512_starts_ret:is384 <- $r1
	@DEBUG_VALUE: mbedtls_sha512_starts_ret:ctx <- $r0
	ldr	r3, __arm_cp.3_23
	b	.LBB3_36
.Ltmp45:
.LBB3_35:
	@DEBUG_VALUE: mbedtls_sha512_starts_ret:is384 <- $r1
	@DEBUG_VALUE: mbedtls_sha512_starts_ret:ctx <- $r0
	ldr	r3, __arm_cp.3_22
.Ltmp46:
.LBB3_36:
	@DEBUG_VALUE: mbedtls_sha512_starts_ret:is384 <- $r1
	@DEBUG_VALUE: mbedtls_sha512_starts_ret:ctx <- $r0
	str	r3, [r0, #32]
	cbz	r1, .LBB3_38
.Ltmp47:
@ %bb.37:
	@DEBUG_VALUE: mbedtls_sha512_starts_ret:is384 <- $r1
	@DEBUG_VALUE: mbedtls_sha512_starts_ret:ctx <- $r0
	ldr	r3, __arm_cp.3_25
	b	.LBB3_39
.Ltmp48:
.LBB3_38:
	@DEBUG_VALUE: mbedtls_sha512_starts_ret:is384 <- $r1
	@DEBUG_VALUE: mbedtls_sha512_starts_ret:ctx <- $r0
	ldr	r3, __arm_cp.3_24
.Ltmp49:
.LBB3_39:
	@DEBUG_VALUE: mbedtls_sha512_starts_ret:is384 <- $r1
	@DEBUG_VALUE: mbedtls_sha512_starts_ret:ctx <- $r0
	str	r3, [r0, #28]
	cbz	r1, .LBB3_41
.Ltmp50:
@ %bb.40:
	@DEBUG_VALUE: mbedtls_sha512_starts_ret:is384 <- $r1
	@DEBUG_VALUE: mbedtls_sha512_starts_ret:ctx <- $r0
	ldr	r3, __arm_cp.3_27
	b	.LBB3_42
.Ltmp51:
.LBB3_41:
	@DEBUG_VALUE: mbedtls_sha512_starts_ret:is384 <- $r1
	@DEBUG_VALUE: mbedtls_sha512_starts_ret:ctx <- $r0
	ldr	r3, __arm_cp.3_26
.Ltmp52:
.LBB3_42:
	@DEBUG_VALUE: mbedtls_sha512_starts_ret:is384 <- $r1
	@DEBUG_VALUE: mbedtls_sha512_starts_ret:ctx <- $r0
	str	r3, [r0, #24]
	cbz	r1, .LBB3_44
.Ltmp53:
@ %bb.43:
	@DEBUG_VALUE: mbedtls_sha512_starts_ret:is384 <- $r1
	@DEBUG_VALUE: mbedtls_sha512_starts_ret:ctx <- $r0
	ldr	r3, __arm_cp.3_29
	b	.LBB3_45
.Ltmp54:
.LBB3_44:
	@DEBUG_VALUE: mbedtls_sha512_starts_ret:is384 <- $r1
	@DEBUG_VALUE: mbedtls_sha512_starts_ret:ctx <- $r0
	ldr	r3, __arm_cp.3_28
.Ltmp55:
.LBB3_45:
	@DEBUG_VALUE: mbedtls_sha512_starts_ret:is384 <- $r1
	@DEBUG_VALUE: mbedtls_sha512_starts_ret:ctx <- $r0
	str	r3, [r0, #20]
	cbz	r1, .LBB3_47
.Ltmp56:
@ %bb.46:
	@DEBUG_VALUE: mbedtls_sha512_starts_ret:is384 <- $r1
	@DEBUG_VALUE: mbedtls_sha512_starts_ret:ctx <- $r0
	ldr	r1, __arm_cp.3_31
.Ltmp57:
	@DEBUG_VALUE: mbedtls_sha512_starts_ret:is384 <- [DW_OP_LLVM_entry_value 1] $r1
	b	.LBB3_48
.Ltmp58:
.LBB3_47:
	@DEBUG_VALUE: mbedtls_sha512_starts_ret:is384 <- $r1
	@DEBUG_VALUE: mbedtls_sha512_starts_ret:ctx <- $r0
	ldr	r1, __arm_cp.3_30
.Ltmp59:
	@DEBUG_VALUE: mbedtls_sha512_starts_ret:is384 <- [DW_OP_LLVM_entry_value 1] $r1
.LBB3_48:
	@DEBUG_VALUE: mbedtls_sha512_starts_ret:ctx <- $r0
	@DEBUG_VALUE: mbedtls_sha512_starts_ret:is384 <- [DW_OP_LLVM_entry_value 1] $r1
	str	r1, [r0, #16]
.Ltmp60:
	.loc	2 157 5 is_stmt 1               @ ../../../ThirdParty/mbedTLS/library/sha512.c:157:5
	mov	r0, r2
.Ltmp61:
	@DEBUG_VALUE: mbedtls_sha512_starts_ret:ctx <- [DW_OP_LLVM_entry_value 1] $r0
	bx	lr
.Ltmp62:
	.p2align	2
@ %bb.49:
	.loc	2 0 5 is_stmt 0                 @ ../../../ThirdParty/mbedTLS/library/sha512.c:0:5
__arm_cp.3_0:
	.long	1541459225                      @ 0x5be0cd19
.Lcpi_end0:
	.size	__arm_cp.3_0, .Lcpi_end0-__arm_cp.3_0
__arm_cp.3_1:
	.long	1203062813                      @ 0x47b5481d
.Lcpi_end1:
	.size	__arm_cp.3_1, .Lcpi_end1-__arm_cp.3_1
__arm_cp.3_2:
	.long	327033209                       @ 0x137e2179
.Lcpi_end2:
	.size	__arm_cp.3_2, .Lcpi_end2-__arm_cp.3_2
__arm_cp.3_3:
	.long	3204075428                      @ 0xbefa4fa4
.Lcpi_end3:
	.size	__arm_cp.3_3, .Lcpi_end3-__arm_cp.3_3
__arm_cp.3_4:
	.long	528734635                       @ 0x1f83d9ab
.Lcpi_end4:
	.size	__arm_cp.3_4, .Lcpi_end4-__arm_cp.3_4
__arm_cp.3_5:
	.long	3675008525                      @ 0xdb0c2e0d
.Lcpi_end5:
	.size	__arm_cp.3_5, .Lcpi_end5-__arm_cp.3_5
__arm_cp.3_6:
	.long	4215389547                      @ 0xfb41bd6b
.Lcpi_end6:
	.size	__arm_cp.3_6, .Lcpi_end6-__arm_cp.3_6
__arm_cp.3_7:
	.long	1694076839                      @ 0x64f98fa7
.Lcpi_end7:
	.size	__arm_cp.3_7, .Lcpi_end7-__arm_cp.3_7
__arm_cp.3_8:
	.long	2600822924                      @ 0x9b05688c
.Lcpi_end8:
	.size	__arm_cp.3_8, .Lcpi_end8-__arm_cp.3_8
__arm_cp.3_9:
	.long	2394180231                      @ 0x8eb44a87
.Lcpi_end9:
	.size	__arm_cp.3_9, .Lcpi_end9-__arm_cp.3_9
__arm_cp.3_10:
	.long	725511199                       @ 0x2b3e6c1f
.Lcpi_end10:
	.size	__arm_cp.3_10, .Lcpi_end10-__arm_cp.3_10
__arm_cp.3_11:
	.long	1750603025                      @ 0x68581511
.Lcpi_end11:
	.size	__arm_cp.3_11, .Lcpi_end11-__arm_cp.3_11
__arm_cp.3_12:
	.long	1359893119                      @ 0x510e527f
.Lcpi_end12:
	.size	__arm_cp.3_12, .Lcpi_end12-__arm_cp.3_12
__arm_cp.3_13:
	.long	1731405415                      @ 0x67332667
.Lcpi_end13:
	.size	__arm_cp.3_13, .Lcpi_end13-__arm_cp.3_13
__arm_cp.3_14:
	.long	2917565137                      @ 0xade682d1
.Lcpi_end14:
	.size	__arm_cp.3_14, .Lcpi_end14-__arm_cp.3_14
__arm_cp.3_15:
	.long	4290775857                      @ 0xffc00b31
.Lcpi_end15:
	.size	__arm_cp.3_15, .Lcpi_end15-__arm_cp.3_15
__arm_cp.3_16:
	.long	2773480762                      @ 0xa54ff53a
.Lcpi_end16:
	.size	__arm_cp.3_16, .Lcpi_end16-__arm_cp.3_16
__arm_cp.3_17:
	.long	355462360                       @ 0x152fecd8
.Lcpi_end17:
	.size	__arm_cp.3_17, .Lcpi_end17-__arm_cp.3_17
__arm_cp.3_18:
	.long	1595750129                      @ 0x5f1d36f1
.Lcpi_end18:
	.size	__arm_cp.3_18, .Lcpi_end18-__arm_cp.3_18
__arm_cp.3_19:
	.long	4144912697                      @ 0xf70e5939
.Lcpi_end19:
	.size	__arm_cp.3_19, .Lcpi_end19-__arm_cp.3_19
__arm_cp.3_20:
	.long	1013904242                      @ 0x3c6ef372
.Lcpi_end20:
	.size	__arm_cp.3_20, .Lcpi_end20-__arm_cp.3_20
__arm_cp.3_21:
	.long	2438529370                      @ 0x9159015a
.Lcpi_end21:
	.size	__arm_cp.3_21, .Lcpi_end21-__arm_cp.3_21
__arm_cp.3_22:
	.long	4271175723                      @ 0xfe94f82b
.Lcpi_end22:
	.size	__arm_cp.3_22, .Lcpi_end22-__arm_cp.3_22
__arm_cp.3_23:
	.long	812702999                       @ 0x3070dd17
.Lcpi_end23:
	.size	__arm_cp.3_23, .Lcpi_end23-__arm_cp.3_23
__arm_cp.3_24:
	.long	3144134277                      @ 0xbb67ae85
.Lcpi_end24:
	.size	__arm_cp.3_24, .Lcpi_end24-__arm_cp.3_24
__arm_cp.3_25:
	.long	1654270250                      @ 0x629a292a
.Lcpi_end25:
	.size	__arm_cp.3_25, .Lcpi_end25-__arm_cp.3_25
__arm_cp.3_26:
	.long	2227873595                      @ 0x84caa73b
.Lcpi_end26:
	.size	__arm_cp.3_26, .Lcpi_end26-__arm_cp.3_26
__arm_cp.3_27:
	.long	914150663                       @ 0x367cd507
.Lcpi_end27:
	.size	__arm_cp.3_27, .Lcpi_end27-__arm_cp.3_27
__arm_cp.3_28:
	.long	1779033703                      @ 0x6a09e667
.Lcpi_end28:
	.size	__arm_cp.3_28, .Lcpi_end28-__arm_cp.3_28
__arm_cp.3_29:
	.long	3418070365                      @ 0xcbbb9d5d
.Lcpi_end29:
	.size	__arm_cp.3_29, .Lcpi_end29-__arm_cp.3_29
__arm_cp.3_30:
	.long	4089235720                      @ 0xf3bcc908
.Lcpi_end30:
	.size	__arm_cp.3_30, .Lcpi_end30-__arm_cp.3_30
__arm_cp.3_31:
	.long	3238371032                      @ 0xc1059ed8
.Lcpi_end31:
	.size	__arm_cp.3_31, .Lcpi_end31-__arm_cp.3_31
.Lfunc_end3:
	.size	mbedtls_sha512_starts_ret, .Lfunc_end3-mbedtls_sha512_starts_ret
	.cfi_endproc
	.cantunwind
	.fnend
                                        @ -- End function
	.section	.text.mbedtls_sha512_starts,"ax",%progbits
	.hidden	mbedtls_sha512_starts           @ -- Begin function mbedtls_sha512_starts
	.globl	mbedtls_sha512_starts
	.p2align	1
	.type	mbedtls_sha512_starts,%function
	.code	16                              @ @mbedtls_sha512_starts
	.thumb_func
mbedtls_sha512_starts:
.Lfunc_begin4:
	.loc	2 163 0 is_stmt 1               @ ../../../ThirdParty/mbedTLS/library/sha512.c:163:0
	.fnstart
	.cfi_startproc
@ %bb.0:
	@DEBUG_VALUE: mbedtls_sha512_starts:ctx <- $r0
	@DEBUG_VALUE: mbedtls_sha512_starts:ctx <- $r0
	@DEBUG_VALUE: mbedtls_sha512_starts:is384 <- $r1
	@DEBUG_VALUE: mbedtls_sha512_starts:is384 <- $r1
	@DEBUG_VALUE: mbedtls_sha512_starts:is384 <- $r1
	@DEBUG_VALUE: mbedtls_sha512_starts:ctx <- $r0
	.save	{r7, lr}
	push	{r7, lr}
	.cfi_def_cfa_offset 8
	.cfi_offset lr, -4
	.cfi_offset r7, -8
.Ltmp63:
	.loc	2 164 5 prologue_end            @ ../../../ThirdParty/mbedTLS/library/sha512.c:164:5
	bl	mbedtls_sha512_starts_ret
.Ltmp64:
	@DEBUG_VALUE: mbedtls_sha512_starts:is384 <- [DW_OP_LLVM_entry_value 1] $r1
	@DEBUG_VALUE: mbedtls_sha512_starts:ctx <- [DW_OP_LLVM_entry_value 1] $r0
	.loc	2 165 1                         @ ../../../ThirdParty/mbedTLS/library/sha512.c:165:1
	pop	{r7, pc}
.Ltmp65:
.Lfunc_end4:
	.size	mbedtls_sha512_starts, .Lfunc_end4-mbedtls_sha512_starts
	.cfi_endproc
	.cantunwind
	.fnend
                                        @ -- End function
	.section	.text.mbedtls_internal_sha512_process,"ax",%progbits
	.hidden	mbedtls_internal_sha512_process @ -- Begin function mbedtls_internal_sha512_process
	.globl	mbedtls_internal_sha512_process
	.p2align	2
	.type	mbedtls_internal_sha512_process,%function
	.code	16                              @ @mbedtls_internal_sha512_process
	.thumb_func
mbedtls_internal_sha512_process:
.Lfunc_begin5:
	.loc	2 219 0                         @ ../../../ThirdParty/mbedTLS/library/sha512.c:219:0
	.fnstart
	.cfi_startproc
@ %bb.0:
	@DEBUG_VALUE: mbedtls_internal_sha512_process:ctx <- $r0
	@DEBUG_VALUE: mbedtls_internal_sha512_process:data <- $r1
	@DEBUG_VALUE: mbedtls_internal_sha512_process:data <- $r1
	.save	{r4, r5, r6, r7, lr}
	push	{r4, r5, r6, r7, lr}
	.cfi_def_cfa_offset 20
	.cfi_offset lr, -4
	.cfi_offset r7, -8
	.cfi_offset r6, -12
	.cfi_offset r5, -16
	.cfi_offset r4, -20
	.pad	#508
	sub	sp, #508
	.pad	#304
	sub	sp, #304
	.cfi_def_cfa_offset 832
	str	r0, [sp, #68]                   @ 4-byte Spill
.Ltmp66:
	@DEBUG_VALUE: mbedtls_internal_sha512_process:ctx <- [DW_OP_plus_uconst 68] [$sp+0]
	movs	r0, #0
.Ltmp67:
	@DEBUG_VALUE: mbedtls_internal_sha512_process:i <- 0
.LBB5_1:                                @ =>This Inner Loop Header: Depth=1
	@DEBUG_VALUE: mbedtls_internal_sha512_process:data <- $r1
	@DEBUG_VALUE: mbedtls_internal_sha512_process:ctx <- [DW_OP_plus_uconst 68] [$sp+0]
	@DEBUG_VALUE: mbedtls_internal_sha512_process:i <- undef
	.loc	2 248 9 prologue_end            @ ../../../ThirdParty/mbedTLS/library/sha512.c:248:9
	adds	r2, r1, r0
	ldrb	r3, [r2, #5]
	lsls	r3, r3, #16
	ldrb	r4, [r2, #4]
	lsls	r4, r4, #24
	adds	r3, r4, r3
	ldrb	r4, [r2, #6]
	lsls	r4, r4, #8
	adds	r3, r3, r4
	ldrb	r4, [r2, #7]
	adds	r3, r3, r4
	add	r4, sp, #168
	str	r3, [r4, r0]
	ldrb	r3, [r1, r0]
	lsls	r3, r3, #24
	ldrb	r5, [r2, #1]
	lsls	r5, r5, #16
	adds	r3, r5, r3
	ldrb	r5, [r2, #2]
	lsls	r5, r5, #8
	adds	r3, r3, r5
	ldrb	r2, [r2, #3]
	adds	r2, r3, r2
	adds	r3, r4, r0
	str	r2, [r3, #4]
.Ltmp68:
	@DEBUG_VALUE: mbedtls_internal_sha512_process:i <- [DW_OP_plus_uconst 1, DW_OP_stack_value] undef
	.loc	2 246 19                        @ ../../../ThirdParty/mbedTLS/library/sha512.c:246:19
	adds	r0, #8
.Ltmp69:
	.loc	2 246 5 is_stmt 0               @ ../../../ThirdParty/mbedTLS/library/sha512.c:246:5
	cmp	r0, #128
	bne	.LBB5_1
.Ltmp70:
@ %bb.2:
	@DEBUG_VALUE: mbedtls_internal_sha512_process:data <- $r1
	@DEBUG_VALUE: mbedtls_internal_sha512_process:ctx <- [DW_OP_plus_uconst 68] [$sp+0]
	.loc	2 0 5                           @ ../../../ThirdParty/mbedTLS/library/sha512.c:0:5
	movs	r0, #64
	add	r1, sp, #168
.Ltmp71:
	@DEBUG_VALUE: mbedtls_internal_sha512_process:data <- [DW_OP_LLVM_entry_value 1] $r1
	movs	r2, #128
	str	r2, [sp, #156]                  @ 4-byte Spill
.Ltmp72:
.LBB5_3:                                @ =>This Inner Loop Header: Depth=1
	@DEBUG_VALUE: mbedtls_internal_sha512_process:ctx <- [DW_OP_plus_uconst 68] [$sp+0]
	@DEBUG_VALUE: mbedtls_internal_sha512_process:data <- [DW_OP_LLVM_entry_value 1] $r1
	@DEBUG_VALUE: mbedtls_internal_sha512_process:i <- undef
	.loc	2 253 16 is_stmt 1              @ ../../../ThirdParty/mbedTLS/library/sha512.c:253:16
	str	r0, [sp, #164]                  @ 4-byte Spill
	ldr	r3, [r1, #112]
	ldr	r4, [r1, #116]
	lsls	r5, r3, #13
	lsrs	r6, r4, #19
	adds	r6, r6, r5
	lsrs	r5, r3, #29
	lsls	r7, r4, #3
	adds	r7, r7, r5
	lsrs	r5, r4, #6
	eors	r5, r7
	eors	r5, r6
	lsls	r6, r4, #26
	lsrs	r7, r3, #6
	adds	r6, r7, r6
	lsls	r7, r3, #3
	lsrs	r2, r4, #29
	adds	r2, r2, r7
	eors	r2, r6
	lsls	r4, r4, #13
	lsrs	r3, r3, #19
	adds	r4, r3, r4
	eors	r4, r2
	.loc	2 253 32 is_stmt 0              @ ../../../ThirdParty/mbedTLS/library/sha512.c:253:32
	ldr	r2, [r1, #72]
	ldr	r6, [r1, #76]
	.loc	2 254 32 is_stmt 1              @ ../../../ThirdParty/mbedTLS/library/sha512.c:254:32
	ldr	r3, [r1, #4]
	ldr	r7, [r1]
	.loc	2 253 30                        @ ../../../ThirdParty/mbedTLS/library/sha512.c:253:30
	adds	r2, r7, r2
	adcs	r3, r6
	.loc	2 253 42 is_stmt 0              @ ../../../ThirdParty/mbedTLS/library/sha512.c:253:42
	adds	r0, r2, r4
	str	r0, [sp, #160]                  @ 4-byte Spill
	adcs	r3, r5
	.loc	2 254 16 is_stmt 1              @ ../../../ThirdParty/mbedTLS/library/sha512.c:254:16
	ldr	r6, [r1, #8]
	lsls	r2, r6, #31
	ldr	r7, [r1, #12]
	lsrs	r5, r7, #1
	adds	r2, r5, r2
	lsls	r5, r6, #24
	lsrs	r4, r7, #8
	adds	r4, r4, r5
	lsrs	r5, r7, #7
	eors	r5, r4
	eors	r5, r2
	lsls	r2, r7, #25
	lsrs	r4, r6, #7
	adds	r2, r4, r2
	lsls	r4, r7, #24
	lsrs	r0, r6, #8
	adds	r0, r0, r4
	eors	r0, r2
	lsls	r2, r7, #31
	lsrs	r4, r6, #1
	adds	r2, r4, r2
	eors	r2, r0
	.loc	2 254 30 is_stmt 0              @ ../../../ThirdParty/mbedTLS/library/sha512.c:254:30
	ldr	r0, [sp, #160]                  @ 4-byte Reload
	adds	r0, r0, r2
	.loc	2 253 14 is_stmt 1              @ ../../../ThirdParty/mbedTLS/library/sha512.c:253:14
	ldr	r2, [sp, #156]                  @ 4-byte Reload
	str	r0, [r1, r2]
	.loc	2 254 30                        @ ../../../ThirdParty/mbedTLS/library/sha512.c:254:30
	adcs	r5, r3
	.loc	2 253 14                        @ ../../../ThirdParty/mbedTLS/library/sha512.c:253:14
	mov	r0, r1
	adds	r0, #128
	str	r5, [r0, #4]
	ldr	r0, [sp, #164]                  @ 4-byte Reload
	.loc	2 254 16                        @ ../../../ThirdParty/mbedTLS/library/sha512.c:254:16
	adds	r1, #8
.Ltmp73:
	@DEBUG_VALUE: mbedtls_internal_sha512_process:i <- [DW_OP_plus_uconst 1, DW_OP_stack_value] undef
	.loc	2 251 14                        @ ../../../ThirdParty/mbedTLS/library/sha512.c:251:14
	subs	r0, r0, #1
.Ltmp74:
	.loc	2 251 5 is_stmt 0               @ ../../../ThirdParty/mbedTLS/library/sha512.c:251:5
	bne	.LBB5_3
.Ltmp75:
@ %bb.4:
	@DEBUG_VALUE: mbedtls_internal_sha512_process:ctx <- [DW_OP_plus_uconst 68] [$sp+0]
	@DEBUG_VALUE: mbedtls_internal_sha512_process:data <- [DW_OP_LLVM_entry_value 1] $r1
	@DEBUG_VALUE: mbedtls_internal_sha512_process:H <- [DW_OP_LLVM_fragment 32 32] undef
	@DEBUG_VALUE: mbedtls_internal_sha512_process:H <- [DW_OP_LLVM_fragment 0 32] undef
	@DEBUG_VALUE: mbedtls_internal_sha512_process:G <- [DW_OP_LLVM_fragment 32 32] undef
	@DEBUG_VALUE: mbedtls_internal_sha512_process:G <- [DW_OP_LLVM_fragment 0 32] undef
	@DEBUG_VALUE: mbedtls_internal_sha512_process:F <- [DW_OP_LLVM_fragment 32 32] undef
	@DEBUG_VALUE: mbedtls_internal_sha512_process:F <- [DW_OP_LLVM_fragment 0 32] undef
	@DEBUG_VALUE: mbedtls_internal_sha512_process:E <- [DW_OP_LLVM_fragment 32 32] undef
	@DEBUG_VALUE: mbedtls_internal_sha512_process:E <- [DW_OP_LLVM_fragment 0 32] undef
	@DEBUG_VALUE: mbedtls_internal_sha512_process:D <- [DW_OP_LLVM_fragment 32 32] undef
	@DEBUG_VALUE: mbedtls_internal_sha512_process:D <- [DW_OP_LLVM_fragment 0 32] undef
	@DEBUG_VALUE: mbedtls_internal_sha512_process:C <- [DW_OP_LLVM_fragment 32 32] undef
	@DEBUG_VALUE: mbedtls_internal_sha512_process:C <- [DW_OP_LLVM_fragment 0 32] undef
	@DEBUG_VALUE: mbedtls_internal_sha512_process:B <- [DW_OP_LLVM_fragment 32 32] undef
	@DEBUG_VALUE: mbedtls_internal_sha512_process:B <- [DW_OP_LLVM_fragment 0 32] undef
	@DEBUG_VALUE: mbedtls_internal_sha512_process:A <- [DW_OP_LLVM_fragment 32 32] undef
	@DEBUG_VALUE: mbedtls_internal_sha512_process:A <- [DW_OP_LLVM_fragment 0 32] undef
	.loc	2 0 5                           @ ../../../ThirdParty/mbedTLS/library/sha512.c:0:5
	ldr	r0, [sp, #68]                   @ 4-byte Reload
	.loc	2 261 9 is_stmt 1               @ ../../../ThirdParty/mbedTLS/library/sha512.c:261:9
	ldr	r1, [r0, #48]
	str	r1, [sp, #36]                   @ 4-byte Spill
	ldr	r1, [r0, #52]
	.loc	2 262 9                         @ ../../../ThirdParty/mbedTLS/library/sha512.c:262:9
	str	r1, [sp, #44]                   @ 4-byte Spill
	ldr	r1, [r0, #56]
	str	r1, [sp, #40]                   @ 4-byte Spill
	ldr	r1, [r0, #60]
	.loc	2 263 9                         @ ../../../ThirdParty/mbedTLS/library/sha512.c:263:9
	str	r1, [sp, #52]                   @ 4-byte Spill
	ldr	r1, [r0, #64]
	str	r1, [sp, #48]                   @ 4-byte Spill
	ldr	r1, [r0, #68]
	.loc	2 264 9                         @ ../../../ThirdParty/mbedTLS/library/sha512.c:264:9
	str	r1, [sp, #60]                   @ 4-byte Spill
	ldr	r1, [r0, #72]
	str	r1, [sp, #56]                   @ 4-byte Spill
	ldr	r1, [r0, #76]
	.loc	2 257 9                         @ ../../../ThirdParty/mbedTLS/library/sha512.c:257:9
	str	r1, [sp, #64]                   @ 4-byte Spill
	ldr	r2, [r0, #16]
	ldr	r5, [r0, #20]
	.loc	2 258 9                         @ ../../../ThirdParty/mbedTLS/library/sha512.c:258:9
	ldr	r3, [r0, #24]
	str	r3, [sp, #28]                   @ 4-byte Spill
	ldr	r6, [r0, #28]
	.loc	2 259 9                         @ ../../../ThirdParty/mbedTLS/library/sha512.c:259:9
	ldr	r7, [r0, #32]
	ldr	r4, [r0, #36]
	.loc	2 260 9                         @ ../../../ThirdParty/mbedTLS/library/sha512.c:260:9
	ldr	r3, [r0, #40]
	str	r3, [sp, #32]                   @ 4-byte Spill
	ldr	r3, [r0, #44]
	movs	r0, #7
	mvns	r0, r0
	str	r0, [sp, #72]                   @ 4-byte Spill
	movs	r0, #0
.Ltmp76:
	@DEBUG_VALUE: mbedtls_internal_sha512_process:i <- 0
	.loc	2 0 9 is_stmt 0                 @ ../../../ThirdParty/mbedTLS/library/sha512.c:0:9
	str	r0, [sp, #88]                   @ 4-byte Spill
	str	r2, [sp, #20]                   @ 4-byte Spill
	str	r5, [sp, #24]                   @ 4-byte Spill
	ldr	r0, [sp, #28]                   @ 4-byte Reload
	str	r0, [sp, #120]                  @ 4-byte Spill
	str	r6, [sp, #8]                    @ 4-byte Spill
	str	r6, [sp, #148]                  @ 4-byte Spill
	str	r7, [sp, #4]                    @ 4-byte Spill
	str	r7, [sp, #108]                  @ 4-byte Spill
	str	r4, [sp, #12]                   @ 4-byte Spill
	str	r4, [sp, #140]                  @ 4-byte Spill
	mov	r0, r2
	ldr	r1, [sp, #32]                   @ 4-byte Reload
	str	r1, [sp, #112]                  @ 4-byte Spill
	str	r3, [sp, #16]                   @ 4-byte Spill
	str	r3, [sp, #144]                  @ 4-byte Spill
	ldr	r7, [sp, #36]                   @ 4-byte Reload
	ldr	r1, [sp, #44]                   @ 4-byte Reload
	str	r1, [sp, #136]                  @ 4-byte Spill
	ldr	r1, [sp, #40]                   @ 4-byte Reload
	str	r1, [sp, #100]                  @ 4-byte Spill
	ldr	r6, [sp, #52]                   @ 4-byte Reload
	ldr	r1, [sp, #48]                   @ 4-byte Reload
	str	r1, [sp, #132]                  @ 4-byte Spill
	ldr	r1, [sp, #60]                   @ 4-byte Reload
	str	r1, [sp, #116]                  @ 4-byte Spill
	ldr	r1, [sp, #56]                   @ 4-byte Reload
	str	r1, [sp, #96]                   @ 4-byte Spill
	ldr	r1, [sp, #64]                   @ 4-byte Reload
	str	r1, [sp, #104]                  @ 4-byte Spill
.Ltmp77:
.LBB5_5:                                @ =>This Inner Loop Header: Depth=1
	@DEBUG_VALUE: mbedtls_internal_sha512_process:ctx <- [DW_OP_plus_uconst 68] [$sp+0]
	@DEBUG_VALUE: mbedtls_internal_sha512_process:data <- [DW_OP_LLVM_entry_value 1] $r1
	@DEBUG_VALUE: mbedtls_internal_sha512_process:i <- undef
	@DEBUG_VALUE: mbedtls_internal_sha512_process:H <- [DW_OP_plus_uconst 104, DW_OP_LLVM_fragment 32 32] [$sp+0]
	@DEBUG_VALUE: mbedtls_internal_sha512_process:H <- [DW_OP_plus_uconst 96, DW_OP_LLVM_fragment 0 32] [$sp+0]
	@DEBUG_VALUE: mbedtls_internal_sha512_process:G <- [DW_OP_plus_uconst 116, DW_OP_LLVM_fragment 32 32] [$sp+0]
	@DEBUG_VALUE: mbedtls_internal_sha512_process:G <- [DW_OP_plus_uconst 132, DW_OP_LLVM_fragment 0 32] [$sp+0]
	@DEBUG_VALUE: mbedtls_internal_sha512_process:F <- [DW_OP_LLVM_fragment 32 32] $r6
	@DEBUG_VALUE: mbedtls_internal_sha512_process:F <- [DW_OP_plus_uconst 100, DW_OP_LLVM_fragment 0 32] [$sp+0]
	@DEBUG_VALUE: mbedtls_internal_sha512_process:E <- [DW_OP_plus_uconst 136, DW_OP_LLVM_fragment 32 32] [$sp+0]
	@DEBUG_VALUE: mbedtls_internal_sha512_process:E <- [DW_OP_LLVM_fragment 0 32] $r7
	@DEBUG_VALUE: mbedtls_internal_sha512_process:D <- [DW_OP_plus_uconst 144, DW_OP_LLVM_fragment 32 32] [$sp+0]
	@DEBUG_VALUE: mbedtls_internal_sha512_process:D <- [DW_OP_plus_uconst 112, DW_OP_LLVM_fragment 0 32] [$sp+0]
	@DEBUG_VALUE: mbedtls_internal_sha512_process:C <- [DW_OP_plus_uconst 140, DW_OP_LLVM_fragment 32 32] [$sp+0]
	@DEBUG_VALUE: mbedtls_internal_sha512_process:C <- [DW_OP_plus_uconst 108, DW_OP_LLVM_fragment 0 32] [$sp+0]
	@DEBUG_VALUE: mbedtls_internal_sha512_process:B <- [DW_OP_plus_uconst 148, DW_OP_LLVM_fragment 32 32] [$sp+0]
	@DEBUG_VALUE: mbedtls_internal_sha512_process:B <- [DW_OP_plus_uconst 120, DW_OP_LLVM_fragment 0 32] [$sp+0]
	@DEBUG_VALUE: mbedtls_internal_sha512_process:A <- [DW_OP_LLVM_fragment 32 32] $r5
	@DEBUG_VALUE: mbedtls_internal_sha512_process:A <- [DW_OP_LLVM_fragment 0 32] $r0
	str	r7, [sp, #124]                  @ 4-byte Spill
.Ltmp78:
	@DEBUG_VALUE: mbedtls_internal_sha512_process:E <- [DW_OP_plus_uconst 124, DW_OP_LLVM_fragment 0 32] [$sp+0]
	@DEBUG_VALUE: mbedtls_internal_sha512_process:E <- [DW_OP_plus_uconst 124, DW_OP_LLVM_fragment 0 32] [$sp+0]
	str	r6, [sp, #128]                  @ 4-byte Spill
	ldr	r2, [sp, #148]                  @ 4-byte Reload
.Ltmp79:
	@DEBUG_VALUE: mbedtls_internal_sha512_process:B <- [DW_OP_LLVM_fragment 32 32] $r2
	.loc	2 269 9 is_stmt 1               @ ../../../ThirdParty/mbedTLS/library/sha512.c:269:9
	mov	r1, r2
	mov	r3, r5
.Ltmp80:
	@DEBUG_VALUE: mbedtls_internal_sha512_process:A <- [DW_OP_LLVM_fragment 32 32] $r3
	ands	r1, r5
	@DEBUG_VALUE: mbedtls_internal_sha512_process:E <- [DW_OP_plus_uconst 124, DW_OP_LLVM_fragment 0 32] [$sp+0]
	mov	r7, r2
.Ltmp81:
	@DEBUG_VALUE: mbedtls_internal_sha512_process:B <- [DW_OP_LLVM_fragment 32 32] $r7
	@DEBUG_VALUE: mbedtls_internal_sha512_process:B <- [DW_OP_LLVM_fragment 32 32] $r7
	@DEBUG_VALUE: mbedtls_internal_sha512_process:B <- [DW_OP_plus_uconst 148, DW_OP_LLVM_fragment 32 32] [$sp+0]
	orrs	r7, r5
	ldr	r2, [sp, #140]                  @ 4-byte Reload
.Ltmp82:
	@DEBUG_VALUE: mbedtls_internal_sha512_process:C <- [DW_OP_LLVM_fragment 32 32] undef
	ands	r7, r2
.Ltmp83:
	@DEBUG_VALUE: mbedtls_internal_sha512_process:C <- [DW_OP_plus_uconst 140, DW_OP_LLVM_fragment 32 32] [$sp+0]
	orrs	r7, r1
	mov	r4, r0
.Ltmp84:
	@DEBUG_VALUE: mbedtls_internal_sha512_process:A <- [DW_OP_LLVM_fragment 0 32] $r4
	str	r0, [sp, #92]                   @ 4-byte Spill
	lsrs	r1, r0, #2
	lsls	r2, r5, #30
.Ltmp85:
	@DEBUG_VALUE: mbedtls_internal_sha512_process:A <- [DW_OP_LLVM_fragment 32 32] $r3
	adds	r1, r2, r1
	lsls	r2, r0, #4
	lsrs	r5, r5, #28
	adds	r2, r5, r2
	eors	r2, r1
	lsrs	r1, r0, #7
	lsls	r5, r3, #25
	adds	r0, r5, r1
	eors	r0, r2
	str	r0, [sp, #160]                  @ 4-byte Spill
	ldr	r1, [sp, #120]                  @ 4-byte Reload
.Ltmp86:
	@DEBUG_VALUE: mbedtls_internal_sha512_process:B <- [DW_OP_LLVM_fragment 0 32] $r1
	mov	r2, r1
	ands	r2, r4
.Ltmp87:
	@DEBUG_VALUE: mbedtls_internal_sha512_process:B <- [DW_OP_plus_uconst 120, DW_OP_LLVM_fragment 0 32] [$sp+0]
	orrs	r1, r4
	ldr	r0, [sp, #108]                  @ 4-byte Reload
.Ltmp88:
	@DEBUG_VALUE: mbedtls_internal_sha512_process:C <- [DW_OP_LLVM_fragment 0 32] undef
	ands	r1, r0
.Ltmp89:
	@DEBUG_VALUE: mbedtls_internal_sha512_process:C <- [DW_OP_plus_uconst 108, DW_OP_LLVM_fragment 0 32] [$sp+0]
	orrs	r1, r2
	lsls	r2, r4, #30
	@DEBUG_VALUE: mbedtls_internal_sha512_process:A <- [DW_OP_LLVM_fragment 32 32] $r3
	str	r3, [sp, #164]                  @ 4-byte Spill
	lsrs	r5, r3, #2
	adds	r0, r5, r2
	lsrs	r5, r4, #28
	lsls	r2, r3, #4
	adds	r2, r5, r2
	eors	r2, r0
	lsls	r0, r4, #25
	lsrs	r5, r3, #7
.Ltmp90:
	@DEBUG_VALUE: mbedtls_internal_sha512_process:A <- [DW_OP_plus_uconst 164, DW_OP_LLVM_fragment 32 32] [$sp+0]
	adds	r5, r5, r0
	eors	r5, r2
	adds	r0, r5, r1
.Ltmp91:
	@DEBUG_VALUE: mbedtls_internal_sha512_process:temp2 <- [DW_OP_LLVM_fragment 0 32] $r0
	str	r0, [sp, #84]                   @ 4-byte Spill
.Ltmp92:
	@DEBUG_VALUE: mbedtls_internal_sha512_process:temp2 <- [DW_OP_plus_uconst 84, DW_OP_LLVM_fragment 0 32] [$sp+0]
	@DEBUG_VALUE: mbedtls_internal_sha512_process:temp2 <- [DW_OP_plus_uconst 84, DW_OP_LLVM_fragment 0 32] [$sp+0]
	@DEBUG_VALUE: mbedtls_internal_sha512_process:temp2 <- [DW_OP_plus_uconst 84, DW_OP_LLVM_fragment 0 32] [$sp+0]
	ldr	r0, [sp, #160]                  @ 4-byte Reload
	adcs	r0, r7
.Ltmp93:
	@DEBUG_VALUE: mbedtls_internal_sha512_process:temp2 <- [DW_OP_LLVM_fragment 32 32] $r0
	.loc	2 0 9 is_stmt 0                 @ ../../../ThirdParty/mbedTLS/library/sha512.c:0:9
	str	r0, [sp, #160]                  @ 4-byte Spill
.Ltmp94:
	@DEBUG_VALUE: mbedtls_internal_sha512_process:temp2 <- [DW_OP_plus_uconst 160, DW_OP_LLVM_fragment 32 32] [$sp+0]
	@DEBUG_VALUE: mbedtls_internal_sha512_process:temp2 <- [DW_OP_plus_uconst 160, DW_OP_LLVM_fragment 32 32] [$sp+0]
	@DEBUG_VALUE: mbedtls_internal_sha512_process:temp2 <- [DW_OP_plus_uconst 160, DW_OP_LLVM_fragment 32 32] [$sp+0]
	ldr	r0, [sp, #124]                  @ 4-byte Reload
.Ltmp95:
	@DEBUG_VALUE: mbedtls_internal_sha512_process:E <- [DW_OP_LLVM_fragment 0 32] $r0
	.loc	2 269 9                         @ ../../../ThirdParty/mbedTLS/library/sha512.c:269:9
	lsls	r1, r0, #14
	ldr	r3, [sp, #136]                  @ 4-byte Reload
.Ltmp96:
	@DEBUG_VALUE: mbedtls_internal_sha512_process:E <- [DW_OP_LLVM_fragment 32 32] $r3
	lsrs	r2, r3, #18
	adds	r1, r2, r1
	lsls	r2, r0, #18
	lsrs	r5, r3, #14
	adds	r5, r5, r2
	eors	r5, r1
	lsrs	r1, r0, #9
	lsls	r2, r3, #23
	adds	r2, r2, r1
	eors	r2, r5
	lsrs	r1, r0, #18
	lsls	r5, r3, #14
	adds	r1, r1, r5
	lsrs	r5, r0, #14
.Ltmp97:
	@DEBUG_VALUE: mbedtls_internal_sha512_process:E <- [DW_OP_LLVM_fragment 0 32] $r0
	lsls	r7, r3, #18
	adds	r5, r5, r7
	eors	r5, r1
	lsls	r1, r0, #23
.Ltmp98:
	@DEBUG_VALUE: mbedtls_internal_sha512_process:E <- [DW_OP_plus_uconst 124, DW_OP_LLVM_fragment 0 32] [$sp+0]
	lsrs	r7, r3, #9
.Ltmp99:
	@DEBUG_VALUE: mbedtls_internal_sha512_process:E <- [DW_OP_LLVM_fragment 32 32] $r3
	str	r3, [sp, #136]                  @ 4-byte Spill
	adds	r1, r7, r1
	eors	r1, r5
	ldr	r5, [sp, #96]                   @ 4-byte Reload
.Ltmp100:
	@DEBUG_VALUE: mbedtls_internal_sha512_process:H <- [DW_OP_LLVM_fragment 0 32] $r5
	adds	r1, r1, r5
	ldr	r5, [sp, #104]                  @ 4-byte Reload
.Ltmp101:
	@DEBUG_VALUE: mbedtls_internal_sha512_process:H <- [DW_OP_LLVM_fragment 32 32] $r5
	adcs	r2, r5
	ldr	r7, [sp, #88]                   @ 4-byte Reload
.Ltmp102:
	@DEBUG_VALUE: mbedtls_internal_sha512_process:A <- [DW_OP_plus_uconst 92, DW_OP_LLVM_fragment 0 32] [$sp+0]
	.loc	2 0 9                           @ ../../../ThirdParty/mbedTLS/library/sha512.c:0:9
	ldr	r5, __arm_cp.5_1
.Ltmp103:
	.loc	2 269 9                         @ ../../../ThirdParty/mbedTLS/library/sha512.c:269:9
	adds	r0, r5, r7
	str	r0, [sp, #156]                  @ 4-byte Spill
	ldr	r4, [r0, #4]
	ldr	r5, [r5, r7]
	adds	r5, r1, r5
	adcs	r4, r2
	ldr	r0, [sp, #116]                  @ 4-byte Reload
.Ltmp104:
	@DEBUG_VALUE: mbedtls_internal_sha512_process:G <- [DW_OP_LLVM_fragment 32 32] $r0
	mov	r1, r0
	eors	r1, r6
	ands	r1, r3
.Ltmp105:
	@DEBUG_VALUE: mbedtls_internal_sha512_process:E <- [DW_OP_LLVM_fragment 32 32] undef
	eors	r1, r0
.Ltmp106:
	@DEBUG_VALUE: mbedtls_internal_sha512_process:G <- [DW_OP_plus_uconst 116, DW_OP_LLVM_fragment 32 32] [$sp+0]
	.loc	2 0 9                           @ ../../../ThirdParty/mbedTLS/library/sha512.c:0:9
	ldr	r0, [sp, #132]                  @ 4-byte Reload
.Ltmp107:
	@DEBUG_VALUE: mbedtls_internal_sha512_process:G <- [DW_OP_LLVM_fragment 0 32] $r0
	.loc	2 269 9                         @ ../../../ThirdParty/mbedTLS/library/sha512.c:269:9
	mov	r2, r0
	ldr	r3, [sp, #100]                  @ 4-byte Reload
.Ltmp108:
	@DEBUG_VALUE: mbedtls_internal_sha512_process:F <- [DW_OP_LLVM_fragment 0 32] undef
	eors	r2, r3
	ldr	r3, [sp, #124]                  @ 4-byte Reload
.Ltmp109:
	@DEBUG_VALUE: mbedtls_internal_sha512_process:E <- [DW_OP_LLVM_fragment 0 32] $r3
	@DEBUG_VALUE: mbedtls_internal_sha512_process:F <- [DW_OP_plus_uconst 100, DW_OP_LLVM_fragment 0 32] [$sp+0]
	ands	r2, r3
.Ltmp110:
	@DEBUG_VALUE: mbedtls_internal_sha512_process:E <- [DW_OP_plus_uconst 124, DW_OP_LLVM_fragment 0 32] [$sp+0]
	@DEBUG_VALUE: mbedtls_internal_sha512_process:E <- [DW_OP_plus_uconst 124, DW_OP_LLVM_fragment 0 32] [$sp+0]
	eors	r2, r0
.Ltmp111:
	@DEBUG_VALUE: mbedtls_internal_sha512_process:G <- [DW_OP_plus_uconst 132, DW_OP_LLVM_fragment 0 32] [$sp+0]
	adds	r2, r5, r2
	adcs	r1, r4
	add	r5, sp, #168
	str	r7, [sp, #88]                   @ 4-byte Spill
	adds	r0, r5, r7
	str	r0, [sp, #152]                  @ 4-byte Spill
.Ltmp112:
	@DEBUG_VALUE: mbedtls_internal_sha512_process:F <- [DW_OP_plus_uconst 128, DW_OP_LLVM_fragment 32 32] [$sp+0]
	ldr	r6, [r0, #4]
	ldr	r5, [r5, r7]
	adds	r2, r2, r5
.Ltmp113:
	@DEBUG_VALUE: mbedtls_internal_sha512_process:temp1 <- [DW_OP_LLVM_fragment 0 32] $r2
	str	r2, [sp, #96]                   @ 4-byte Spill
	adcs	r6, r1
.Ltmp114:
	@DEBUG_VALUE: mbedtls_internal_sha512_process:temp1 <- [DW_OP_LLVM_fragment 32 32] $r6
	ldr	r0, [sp, #84]                   @ 4-byte Reload
.Ltmp115:
	@DEBUG_VALUE: mbedtls_internal_sha512_process:temp2 <- [DW_OP_LLVM_fragment 0 32] $r0
	adds	r0, r0, r2
.Ltmp116:
	@DEBUG_VALUE: mbedtls_internal_sha512_process:temp1 <- [DW_OP_plus_uconst 96, DW_OP_LLVM_fragment 0 32] [$sp+0]
	@DEBUG_VALUE: mbedtls_internal_sha512_process:H <- [DW_OP_LLVM_fragment 0 32] $r0
	.loc	2 0 9                           @ ../../../ThirdParty/mbedTLS/library/sha512.c:0:9
	ldr	r5, [sp, #160]                  @ 4-byte Reload
.Ltmp117:
	@DEBUG_VALUE: mbedtls_internal_sha512_process:temp2 <- [DW_OP_LLVM_fragment 32 32] $r5
	.loc	2 269 9                         @ ../../../ThirdParty/mbedTLS/library/sha512.c:269:9
	adcs	r5, r6
.Ltmp118:
	@DEBUG_VALUE: mbedtls_internal_sha512_process:H <- [DW_OP_LLVM_fragment 32 32] $r5
	.loc	2 271 9 is_stmt 1               @ ../../../ThirdParty/mbedTLS/library/sha512.c:271:9
	mov	r1, r5
	ldr	r2, [sp, #164]                  @ 4-byte Reload
.Ltmp119:
	@DEBUG_VALUE: mbedtls_internal_sha512_process:A <- [DW_OP_LLVM_fragment 32 32] $r2
	ands	r1, r2
	mov	r7, r5
	orrs	r7, r2
.Ltmp120:
	@DEBUG_VALUE: mbedtls_internal_sha512_process:A <- [DW_OP_plus_uconst 164, DW_OP_LLVM_fragment 32 32] [$sp+0]
	ldr	r2, [sp, #148]                  @ 4-byte Reload
.Ltmp121:
	@DEBUG_VALUE: mbedtls_internal_sha512_process:B <- [DW_OP_LLVM_fragment 32 32] $r2
	ands	r7, r2
.Ltmp122:
	@DEBUG_VALUE: mbedtls_internal_sha512_process:B <- [DW_OP_plus_uconst 148, DW_OP_LLVM_fragment 32 32] [$sp+0]
	orrs	r7, r1
	lsls	r1, r5, #30
	lsrs	r2, r0, #2
	adds	r1, r1, r2
	lsrs	r2, r5, #28
	mov	r3, r5
.Ltmp123:
	@DEBUG_VALUE: mbedtls_internal_sha512_process:H <- [DW_OP_LLVM_fragment 32 32] $r3
	str	r5, [sp, #160]                  @ 4-byte Spill
	lsls	r5, r0, #4
	adds	r2, r2, r5
	eors	r2, r1
	lsls	r1, r3, #25
	lsrs	r5, r0, #7
	adds	r1, r1, r5
	eors	r1, r2
	mov	r4, r1
	lsrs	r1, r3, #2
	lsls	r2, r0, #30
	adds	r1, r1, r2
	lsls	r2, r3, #4
	lsrs	r5, r0, #28
	adds	r2, r5, r2
	eors	r2, r1
	lsrs	r1, r3, #7
.Ltmp124:
	@DEBUG_VALUE: mbedtls_internal_sha512_process:H <- [DW_OP_plus_uconst 160, DW_OP_LLVM_fragment 32 32] [$sp+0]
	lsls	r5, r0, #25
	adds	r1, r1, r5
	eors	r1, r2
	mov	r2, r0
	mov	r5, r0
.Ltmp125:
	@DEBUG_VALUE: mbedtls_internal_sha512_process:H <- [DW_OP_LLVM_fragment 0 32] $r5
	.loc	2 0 9 is_stmt 0                 @ ../../../ThirdParty/mbedTLS/library/sha512.c:0:9
	str	r0, [sp, #104]                  @ 4-byte Spill
.Ltmp126:
	@DEBUG_VALUE: mbedtls_internal_sha512_process:G <- [DW_OP_LLVM_fragment 32 32] undef
	ldr	r0, [sp, #92]                   @ 4-byte Reload
.Ltmp127:
	@DEBUG_VALUE: mbedtls_internal_sha512_process:A <- [DW_OP_LLVM_fragment 0 32] $r0
	.loc	2 271 9                         @ ../../../ThirdParty/mbedTLS/library/sha512.c:271:9
	ands	r2, r0
.Ltmp128:
	@DEBUG_VALUE: mbedtls_internal_sha512_process:H <- [DW_OP_plus_uconst 104, DW_OP_LLVM_fragment 0 32] [$sp+0]
	orrs	r5, r0
.Ltmp129:
	@DEBUG_VALUE: mbedtls_internal_sha512_process:A <- [DW_OP_plus_uconst 92, DW_OP_LLVM_fragment 0 32] [$sp+0]
	ldr	r0, [sp, #120]                  @ 4-byte Reload
.Ltmp130:
	@DEBUG_VALUE: mbedtls_internal_sha512_process:B <- [DW_OP_LLVM_fragment 0 32] $r0
	ands	r5, r0
.Ltmp131:
	@DEBUG_VALUE: mbedtls_internal_sha512_process:B <- [DW_OP_plus_uconst 120, DW_OP_LLVM_fragment 0 32] [$sp+0]
	orrs	r5, r2
	adds	r0, r1, r5
.Ltmp132:
	@DEBUG_VALUE: mbedtls_internal_sha512_process:temp2 <- [DW_OP_LLVM_fragment 0 32] $r0
	.loc	2 0 9                           @ ../../../ThirdParty/mbedTLS/library/sha512.c:0:9
	str	r0, [sp, #84]                   @ 4-byte Spill
.Ltmp133:
	@DEBUG_VALUE: mbedtls_internal_sha512_process:temp2 <- [DW_OP_plus_uconst 84, DW_OP_LLVM_fragment 0 32] [$sp+0]
	@DEBUG_VALUE: mbedtls_internal_sha512_process:temp2 <- [DW_OP_plus_uconst 84, DW_OP_LLVM_fragment 0 32] [$sp+0]
	@DEBUG_VALUE: mbedtls_internal_sha512_process:temp2 <- [DW_OP_plus_uconst 84, DW_OP_LLVM_fragment 0 32] [$sp+0]
	mov	r3, r4
	.loc	2 271 9                         @ ../../../ThirdParty/mbedTLS/library/sha512.c:271:9
	adcs	r3, r7
.Ltmp134:
	@DEBUG_VALUE: mbedtls_internal_sha512_process:temp2 <- [DW_OP_LLVM_fragment 32 32] $r3
	.loc	2 0 9                           @ ../../../ThirdParty/mbedTLS/library/sha512.c:0:9
	ldr	r0, [sp, #156]                  @ 4-byte Reload
	.loc	2 271 9                         @ ../../../ThirdParty/mbedTLS/library/sha512.c:271:9
	ldr	r2, [r0, #12]
	ldr	r1, [r0, #8]
	ldr	r0, [sp, #132]                  @ 4-byte Reload
.Ltmp135:
	@DEBUG_VALUE: mbedtls_internal_sha512_process:G <- [DW_OP_LLVM_fragment 0 32] $r0
	adds	r1, r1, r0
	ldr	r0, [sp, #116]                  @ 4-byte Reload
.Ltmp136:
	adcs	r2, r0
	ldr	r0, [sp, #152]                  @ 4-byte Reload
	ldr	r7, [r0, #12]
	ldr	r5, [r0, #8]
	adds	r0, r1, r5
	str	r0, [sp, #132]                  @ 4-byte Spill
	adcs	r7, r2
.Ltmp137:
	.loc	2 269 9 is_stmt 1               @ ../../../ThirdParty/mbedTLS/library/sha512.c:269:9
	ldr	r2, [sp, #112]                  @ 4-byte Reload
.Ltmp138:
	@DEBUG_VALUE: mbedtls_internal_sha512_process:D <- [DW_OP_LLVM_fragment 0 32] $r2
	ldr	r0, [sp, #96]                   @ 4-byte Reload
.Ltmp139:
	@DEBUG_VALUE: mbedtls_internal_sha512_process:temp1 <- [DW_OP_LLVM_fragment 0 32] $r0
	adds	r0, r0, r2
.Ltmp140:
	@DEBUG_VALUE: mbedtls_internal_sha512_process:D <- [DW_OP_LLVM_fragment 0 32] $r0
	str	r0, [sp, #112]                  @ 4-byte Spill
	ldr	r2, [sp, #144]                  @ 4-byte Reload
.Ltmp141:
	@DEBUG_VALUE: mbedtls_internal_sha512_process:D <- [DW_OP_LLVM_fragment 32 32] $r2
	adcs	r6, r2
.Ltmp142:
	@DEBUG_VALUE: mbedtls_internal_sha512_process:D <- [DW_OP_LLVM_fragment 32 32] $r6
	.loc	2 0 9 is_stmt 0                 @ ../../../ThirdParty/mbedTLS/library/sha512.c:0:9
	ldr	r1, [sp, #128]                  @ 4-byte Reload
.Ltmp143:
	@DEBUG_VALUE: mbedtls_internal_sha512_process:F <- [DW_OP_LLVM_fragment 32 32] $r1
	.loc	2 271 9 is_stmt 1               @ ../../../ThirdParty/mbedTLS/library/sha512.c:271:9
	mov	r2, r1
.Ltmp144:
	@DEBUG_VALUE: mbedtls_internal_sha512_process:E <- [DW_OP_plus_uconst 136, DW_OP_LLVM_fragment 32 32] [$sp+0]
	ldr	r4, [sp, #136]                  @ 4-byte Reload
.Ltmp145:
	@DEBUG_VALUE: mbedtls_internal_sha512_process:E <- [DW_OP_LLVM_fragment 32 32] $r4
	eors	r2, r4
.Ltmp146:
	@DEBUG_VALUE: mbedtls_internal_sha512_process:E <- [DW_OP_plus_uconst 136, DW_OP_LLVM_fragment 32 32] [$sp+0]
	ands	r2, r6
	eors	r2, r1
.Ltmp147:
	@DEBUG_VALUE: mbedtls_internal_sha512_process:F <- [DW_OP_plus_uconst 128, DW_OP_LLVM_fragment 32 32] [$sp+0]
	.loc	2 0 9 is_stmt 0                 @ ../../../ThirdParty/mbedTLS/library/sha512.c:0:9
	ldr	r4, [sp, #100]                  @ 4-byte Reload
.Ltmp148:
	@DEBUG_VALUE: mbedtls_internal_sha512_process:F <- [DW_OP_LLVM_fragment 0 32] $r4
	.loc	2 271 9                         @ ../../../ThirdParty/mbedTLS/library/sha512.c:271:9
	mov	r5, r4
	ldr	r1, [sp, #124]                  @ 4-byte Reload
.Ltmp149:
	@DEBUG_VALUE: mbedtls_internal_sha512_process:E <- [DW_OP_LLVM_fragment 0 32] $r1
	eors	r5, r1
.Ltmp150:
	@DEBUG_VALUE: mbedtls_internal_sha512_process:E <- [DW_OP_plus_uconst 124, DW_OP_LLVM_fragment 0 32] [$sp+0]
	ands	r5, r0
	eors	r5, r4
	ldr	r1, [sp, #132]                  @ 4-byte Reload
.Ltmp151:
	@DEBUG_VALUE: mbedtls_internal_sha512_process:F <- [DW_OP_plus_uconst 100, DW_OP_LLVM_fragment 0 32] [$sp+0]
	adds	r1, r1, r5
	str	r1, [sp, #144]                  @ 4-byte Spill
	adcs	r2, r7
	lsrs	r1, r6, #18
	lsls	r5, r0, #14
	adds	r1, r1, r5
.Ltmp152:
	@DEBUG_VALUE: mbedtls_internal_sha512_process:i <- [DW_OP_constu 1, DW_OP_or, DW_OP_stack_value] undef
	lsrs	r5, r6, #14
	lsls	r7, r0, #18
	adds	r5, r5, r7
	eors	r5, r1
	lsls	r1, r6, #23
	lsrs	r7, r0, #9
	adds	r1, r1, r7
	eors	r1, r5
	@DEBUG_VALUE: mbedtls_internal_sha512_process:D <- [DW_OP_LLVM_fragment 32 32] $r6
	lsls	r7, r6, #14
	lsrs	r5, r0, #18
	adds	r4, r5, r7
	lsls	r5, r6, #18
	@DEBUG_VALUE: mbedtls_internal_sha512_process:D <- [DW_OP_LLVM_fragment 32 32] $r6
	str	r6, [sp, #96]                   @ 4-byte Spill
	lsrs	r7, r0, #14
	adds	r5, r7, r5
	eors	r5, r4
	lsrs	r4, r6, #9
.Ltmp153:
	@DEBUG_VALUE: mbedtls_internal_sha512_process:D <- [DW_OP_plus_uconst 96, DW_OP_LLVM_fragment 32 32] [$sp+0]
	lsls	r7, r0, #23
.Ltmp154:
	@DEBUG_VALUE: mbedtls_internal_sha512_process:D <- [DW_OP_plus_uconst 112, DW_OP_LLVM_fragment 0 32] [$sp+0]
	adds	r0, r4, r7
	eors	r0, r5
	ldr	r4, [sp, #144]                  @ 4-byte Reload
	adds	r4, r4, r0
.Ltmp155:
	@DEBUG_VALUE: mbedtls_internal_sha512_process:temp1 <- [DW_OP_LLVM_fragment 0 32] $r4
	str	r4, [sp, #80]                   @ 4-byte Spill
	adcs	r1, r2
.Ltmp156:
	@DEBUG_VALUE: mbedtls_internal_sha512_process:temp1 <- [DW_OP_LLVM_fragment 32 32] $r1
	ldr	r0, [sp, #84]                   @ 4-byte Reload
.Ltmp157:
	@DEBUG_VALUE: mbedtls_internal_sha512_process:temp2 <- [DW_OP_LLVM_fragment 0 32] $r0
	adds	r6, r0, r4
.Ltmp158:
	@DEBUG_VALUE: mbedtls_internal_sha512_process:temp1 <- [DW_OP_plus_uconst 80, DW_OP_LLVM_fragment 0 32] [$sp+0]
	@DEBUG_VALUE: mbedtls_internal_sha512_process:G <- [DW_OP_LLVM_fragment 0 32] $r6
	.loc	2 0 9                           @ ../../../ThirdParty/mbedTLS/library/sha512.c:0:9
	str	r6, [sp, #84]                   @ 4-byte Spill
	mov	r4, r3
.Ltmp159:
	@DEBUG_VALUE: mbedtls_internal_sha512_process:temp2 <- [DW_OP_LLVM_fragment 32 32] $r4
	@DEBUG_VALUE: mbedtls_internal_sha512_process:temp2 <- [DW_OP_LLVM_fragment 32 32] $r4
	@DEBUG_VALUE: mbedtls_internal_sha512_process:temp2 <- [DW_OP_LLVM_fragment 32 32] $r4
	.loc	2 271 9                         @ ../../../ThirdParty/mbedTLS/library/sha512.c:271:9
	adcs	r4, r1
.Ltmp160:
	@DEBUG_VALUE: mbedtls_internal_sha512_process:G <- [DW_OP_LLVM_fragment 32 32] $r4
	.loc	2 273 9 is_stmt 1               @ ../../../ThirdParty/mbedTLS/library/sha512.c:273:9
	str	r4, [sp, #116]                  @ 4-byte Spill
	mov	r0, r4
.Ltmp161:
	.loc	2 0 9 is_stmt 0                 @ ../../../ThirdParty/mbedTLS/library/sha512.c:0:9
	ldr	r2, [sp, #160]                  @ 4-byte Reload
.Ltmp162:
	@DEBUG_VALUE: mbedtls_internal_sha512_process:H <- [DW_OP_LLVM_fragment 32 32] $r2
	.loc	2 273 9                         @ ../../../ThirdParty/mbedTLS/library/sha512.c:273:9
	ands	r0, r2
	mov	r7, r4
	orrs	r7, r2
.Ltmp163:
	@DEBUG_VALUE: mbedtls_internal_sha512_process:H <- [DW_OP_plus_uconst 160, DW_OP_LLVM_fragment 32 32] [$sp+0]
	ldr	r2, [sp, #164]                  @ 4-byte Reload
.Ltmp164:
	@DEBUG_VALUE: mbedtls_internal_sha512_process:A <- [DW_OP_LLVM_fragment 32 32] $r2
	ands	r7, r2
.Ltmp165:
	@DEBUG_VALUE: mbedtls_internal_sha512_process:A <- [DW_OP_plus_uconst 164, DW_OP_LLVM_fragment 32 32] [$sp+0]
	orrs	r7, r0
	lsls	r0, r4, #30
	lsrs	r2, r6, #2
	adds	r0, r0, r2
	lsrs	r2, r4, #28
	lsls	r5, r6, #4
	adds	r2, r2, r5
	eors	r2, r0
	lsls	r0, r4, #25
	lsrs	r5, r6, #7
	adds	r0, r0, r5
	eors	r0, r2
	mov	r3, r0
	lsrs	r0, r4, #2
	lsls	r2, r6, #30
	adds	r0, r0, r2
	lsls	r2, r4, #4
	lsrs	r5, r6, #28
	adds	r2, r5, r2
	eors	r2, r0
	lsrs	r0, r4, #7
.Ltmp166:
	@DEBUG_VALUE: mbedtls_internal_sha512_process:G <- [DW_OP_plus_uconst 116, DW_OP_LLVM_fragment 32 32] [$sp+0]
	lsls	r5, r6, #25
	adds	r0, r0, r5
	eors	r0, r2
	mov	r2, r6
	ldr	r4, [sp, #104]                  @ 4-byte Reload
.Ltmp167:
	@DEBUG_VALUE: mbedtls_internal_sha512_process:H <- [DW_OP_LLVM_fragment 0 32] $r4
	ands	r2, r4
	mov	r5, r6
.Ltmp168:
	@DEBUG_VALUE: mbedtls_internal_sha512_process:G <- [DW_OP_LLVM_fragment 0 32] $r5
	@DEBUG_VALUE: mbedtls_internal_sha512_process:G <- [DW_OP_LLVM_fragment 0 32] $r5
	@DEBUG_VALUE: mbedtls_internal_sha512_process:G <- [DW_OP_plus_uconst 84, DW_OP_LLVM_fragment 0 32] [$sp+0]
	orrs	r5, r4
	ldr	r4, [sp, #92]                   @ 4-byte Reload
.Ltmp169:
	@DEBUG_VALUE: mbedtls_internal_sha512_process:A <- [DW_OP_LLVM_fragment 0 32] $r4
	@DEBUG_VALUE: mbedtls_internal_sha512_process:H <- [DW_OP_plus_uconst 104, DW_OP_LLVM_fragment 0 32] [$sp+0]
	@DEBUG_VALUE: mbedtls_internal_sha512_process:H <- [DW_OP_LLVM_fragment 0 32] $r4
	ands	r5, r4
.Ltmp170:
	@DEBUG_VALUE: mbedtls_internal_sha512_process:A <- [DW_OP_plus_uconst 92, DW_OP_LLVM_fragment 0 32] [$sp+0]
	orrs	r5, r2
	adds	r0, r0, r5
.Ltmp171:
	@DEBUG_VALUE: mbedtls_internal_sha512_process:temp2 <- [DW_OP_LLVM_fragment 0 32] $r0
	str	r0, [sp, #144]                  @ 4-byte Spill
.Ltmp172:
	@DEBUG_VALUE: mbedtls_internal_sha512_process:temp2 <- [DW_OP_plus_uconst 144, DW_OP_LLVM_fragment 0 32] [$sp+0]
	@DEBUG_VALUE: mbedtls_internal_sha512_process:temp2 <- [DW_OP_plus_uconst 144, DW_OP_LLVM_fragment 0 32] [$sp+0]
	@DEBUG_VALUE: mbedtls_internal_sha512_process:temp2 <- [DW_OP_plus_uconst 144, DW_OP_LLVM_fragment 0 32] [$sp+0]
	adcs	r3, r7
.Ltmp173:
	@DEBUG_VALUE: mbedtls_internal_sha512_process:temp2 <- [DW_OP_LLVM_fragment 32 32] $r3
	.loc	2 0 9                           @ ../../../ThirdParty/mbedTLS/library/sha512.c:0:9
	str	r3, [sp, #132]                  @ 4-byte Spill
.Ltmp174:
	@DEBUG_VALUE: mbedtls_internal_sha512_process:temp2 <- [DW_OP_plus_uconst 132, DW_OP_LLVM_fragment 32 32] [$sp+0]
	@DEBUG_VALUE: mbedtls_internal_sha512_process:temp2 <- [DW_OP_plus_uconst 132, DW_OP_LLVM_fragment 32 32] [$sp+0]
	@DEBUG_VALUE: mbedtls_internal_sha512_process:temp2 <- [DW_OP_plus_uconst 132, DW_OP_LLVM_fragment 32 32] [$sp+0]
	.loc	2 271 9 is_stmt 1               @ ../../../ThirdParty/mbedTLS/library/sha512.c:271:9
	ldr	r0, [sp, #108]                  @ 4-byte Reload
.Ltmp175:
	@DEBUG_VALUE: mbedtls_internal_sha512_process:C <- [DW_OP_LLVM_fragment 0 32] $r0
	ldr	r2, [sp, #80]                   @ 4-byte Reload
.Ltmp176:
	@DEBUG_VALUE: mbedtls_internal_sha512_process:temp1 <- [DW_OP_LLVM_fragment 0 32] $r2
	adds	r2, r2, r0
.Ltmp177:
	@DEBUG_VALUE: mbedtls_internal_sha512_process:C <- [DW_OP_LLVM_fragment 0 32] $r2
	.loc	2 0 9 is_stmt 0                 @ ../../../ThirdParty/mbedTLS/library/sha512.c:0:9
	mov	r4, r1
.Ltmp178:
	@DEBUG_VALUE: mbedtls_internal_sha512_process:temp1 <- [DW_OP_LLVM_fragment 32 32] $r4
	@DEBUG_VALUE: mbedtls_internal_sha512_process:temp1 <- [DW_OP_LLVM_fragment 32 32] $r4
	@DEBUG_VALUE: mbedtls_internal_sha512_process:temp1 <- [DW_OP_LLVM_fragment 32 32] $r4
	.loc	2 271 9                         @ ../../../ThirdParty/mbedTLS/library/sha512.c:271:9
	ldr	r0, [sp, #140]                  @ 4-byte Reload
.Ltmp179:
	@DEBUG_VALUE: mbedtls_internal_sha512_process:C <- [DW_OP_LLVM_fragment 32 32] $r0
	adcs	r4, r0
.Ltmp180:
	@DEBUG_VALUE: mbedtls_internal_sha512_process:C <- [DW_OP_LLVM_fragment 32 32] $r4
	.loc	2 273 9 is_stmt 1               @ ../../../ThirdParty/mbedTLS/library/sha512.c:273:9
	lsrs	r0, r4, #18
	lsls	r1, r2, #14
	adds	r0, r0, r1
.Ltmp181:
	@DEBUG_VALUE: mbedtls_internal_sha512_process:i <- [DW_OP_constu 2, DW_OP_or, DW_OP_stack_value] undef
	lsrs	r1, r4, #14
	lsls	r5, r2, #18
	adds	r1, r1, r5
	eors	r1, r0
	lsls	r0, r4, #23
	lsrs	r5, r2, #9
	adds	r0, r0, r5
	eors	r0, r1
	str	r0, [sp, #76]                   @ 4-byte Spill
	lsls	r1, r4, #14
	lsrs	r5, r2, #18
	adds	r1, r5, r1
	lsls	r5, r4, #18
	@DEBUG_VALUE: mbedtls_internal_sha512_process:C <- [DW_OP_LLVM_fragment 32 32] $r4
	str	r4, [sp, #108]                  @ 4-byte Spill
	lsrs	r7, r2, #14
	adds	r5, r7, r5
	eors	r5, r1
	lsrs	r1, r4, #9
	lsls	r7, r2, #23
	mov	r6, r2
.Ltmp182:
	@DEBUG_VALUE: mbedtls_internal_sha512_process:C <- [DW_OP_LLVM_fragment 0 32] $r6
	str	r2, [sp, #80]                   @ 4-byte Spill
	adds	r2, r1, r7
	eors	r2, r5
	ldr	r7, [sp, #96]                   @ 4-byte Reload
	ldr	r0, [sp, #136]                  @ 4-byte Reload
.Ltmp183:
	@DEBUG_VALUE: mbedtls_internal_sha512_process:E <- [DW_OP_LLVM_fragment 32 32] $r0
	eors	r7, r0
	ands	r7, r4
.Ltmp184:
	@DEBUG_VALUE: mbedtls_internal_sha512_process:C <- [DW_OP_plus_uconst 108, DW_OP_LLVM_fragment 32 32] [$sp+0]
	eors	r7, r0
.Ltmp185:
	@DEBUG_VALUE: mbedtls_internal_sha512_process:E <- [DW_OP_LLVM_fragment 32 32] undef
	ldr	r5, [sp, #112]                  @ 4-byte Reload
	ldr	r0, [sp, #124]                  @ 4-byte Reload
.Ltmp186:
	@DEBUG_VALUE: mbedtls_internal_sha512_process:E <- [DW_OP_LLVM_fragment 0 32] $r0
	eors	r5, r0
	ands	r5, r6
.Ltmp187:
	@DEBUG_VALUE: mbedtls_internal_sha512_process:C <- [DW_OP_plus_uconst 80, DW_OP_LLVM_fragment 0 32] [$sp+0]
	eors	r5, r0
.Ltmp188:
	@DEBUG_VALUE: mbedtls_internal_sha512_process:E <- [DW_OP_plus_uconst 124, DW_OP_LLVM_fragment 0 32] [$sp+0]
	.loc	2 0 9 is_stmt 0                 @ ../../../ThirdParty/mbedTLS/library/sha512.c:0:9
	ldr	r1, [sp, #156]                  @ 4-byte Reload
	.loc	2 273 9                         @ ../../../ThirdParty/mbedTLS/library/sha512.c:273:9
	ldr	r0, [r1, #20]
	ldr	r4, [r1, #16]
	ldr	r1, [sp, #100]                  @ 4-byte Reload
.Ltmp189:
	@DEBUG_VALUE: mbedtls_internal_sha512_process:F <- [DW_OP_LLVM_fragment 0 32] $r1
	adds	r4, r4, r1
	ldr	r1, [sp, #128]                  @ 4-byte Reload
.Ltmp190:
	@DEBUG_VALUE: mbedtls_internal_sha512_process:F <- [DW_OP_LLVM_fragment 32 32] $r1
	adcs	r0, r1
	ldr	r3, [sp, #152]                  @ 4-byte Reload
	ldr	r1, [r3, #20]
.Ltmp191:
	@DEBUG_VALUE: mbedtls_internal_sha512_process:E <- [DW_OP_plus_uconst 136, DW_OP_LLVM_fragment 32 32] [$sp+0]
	ldr	r3, [r3, #16]
	adds	r3, r4, r3
	adcs	r1, r0
	adds	r0, r3, r5
	adcs	r1, r7
	adds	r2, r0, r2
.Ltmp192:
	@DEBUG_VALUE: mbedtls_internal_sha512_process:temp1 <- [DW_OP_LLVM_fragment 0 32] $r2
	str	r2, [sp, #140]                  @ 4-byte Spill
	ldr	r0, [sp, #76]                   @ 4-byte Reload
	adcs	r1, r0
.Ltmp193:
	@DEBUG_VALUE: mbedtls_internal_sha512_process:temp1 <- [DW_OP_LLVM_fragment 32 32] $r1
	ldr	r0, [sp, #144]                  @ 4-byte Reload
.Ltmp194:
	@DEBUG_VALUE: mbedtls_internal_sha512_process:temp2 <- [DW_OP_LLVM_fragment 0 32] $r0
	adds	r7, r0, r2
.Ltmp195:
	@DEBUG_VALUE: mbedtls_internal_sha512_process:temp1 <- [DW_OP_plus_uconst 140, DW_OP_LLVM_fragment 0 32] [$sp+0]
	@DEBUG_VALUE: mbedtls_internal_sha512_process:F <- [DW_OP_LLVM_fragment 0 32] $r7
	.loc	2 0 9                           @ ../../../ThirdParty/mbedTLS/library/sha512.c:0:9
	str	r7, [sp, #100]                  @ 4-byte Spill
	ldr	r5, [sp, #132]                  @ 4-byte Reload
.Ltmp196:
	@DEBUG_VALUE: mbedtls_internal_sha512_process:temp2 <- [DW_OP_LLVM_fragment 32 32] $r5
	.loc	2 273 9                         @ ../../../ThirdParty/mbedTLS/library/sha512.c:273:9
	adcs	r5, r1
.Ltmp197:
	@DEBUG_VALUE: mbedtls_internal_sha512_process:F <- [DW_OP_LLVM_fragment 32 32] $r5
	.loc	2 275 9 is_stmt 1               @ ../../../ThirdParty/mbedTLS/library/sha512.c:275:9
	str	r5, [sp, #132]                  @ 4-byte Spill
	mov	r0, r5
.Ltmp198:
	.loc	2 0 9 is_stmt 0                 @ ../../../ThirdParty/mbedTLS/library/sha512.c:0:9
	ldr	r3, [sp, #116]                  @ 4-byte Reload
.Ltmp199:
	@DEBUG_VALUE: mbedtls_internal_sha512_process:G <- [DW_OP_LLVM_fragment 32 32] $r3
	.loc	2 275 9                         @ ../../../ThirdParty/mbedTLS/library/sha512.c:275:9
	ands	r0, r3
	mov	r2, r5
	orrs	r2, r3
.Ltmp200:
	@DEBUG_VALUE: mbedtls_internal_sha512_process:G <- [DW_OP_plus_uconst 116, DW_OP_LLVM_fragment 32 32] [$sp+0]
	ldr	r3, [sp, #160]                  @ 4-byte Reload
.Ltmp201:
	@DEBUG_VALUE: mbedtls_internal_sha512_process:H <- [DW_OP_LLVM_fragment 32 32] $r3
	ands	r2, r3
.Ltmp202:
	@DEBUG_VALUE: mbedtls_internal_sha512_process:H <- [DW_OP_plus_uconst 160, DW_OP_LLVM_fragment 32 32] [$sp+0]
	orrs	r2, r0
	lsls	r0, r5, #30
	lsrs	r3, r7, #2
	adds	r0, r0, r3
	lsrs	r3, r5, #28
	lsls	r4, r7, #4
	adds	r3, r3, r4
	eors	r3, r0
	lsls	r0, r5, #25
	lsrs	r4, r7, #7
	adds	r6, r0, r4
	eors	r6, r3
	lsrs	r0, r5, #2
	lsls	r3, r7, #30
	adds	r0, r0, r3
	lsls	r3, r5, #4
	lsrs	r4, r7, #28
	adds	r3, r4, r3
	eors	r3, r0
	lsrs	r0, r5, #7
.Ltmp203:
	@DEBUG_VALUE: mbedtls_internal_sha512_process:F <- [DW_OP_plus_uconst 132, DW_OP_LLVM_fragment 32 32] [$sp+0]
	lsls	r4, r7, #25
	adds	r0, r0, r4
	eors	r0, r3
	mov	r3, r7
	ldr	r5, [sp, #84]                   @ 4-byte Reload
.Ltmp204:
	@DEBUG_VALUE: mbedtls_internal_sha512_process:G <- [DW_OP_LLVM_fragment 0 32] $r5
	ands	r3, r5
	mov	r4, r7
.Ltmp205:
	@DEBUG_VALUE: mbedtls_internal_sha512_process:F <- [DW_OP_LLVM_fragment 0 32] $r4
	@DEBUG_VALUE: mbedtls_internal_sha512_process:F <- [DW_OP_LLVM_fragment 0 32] $r4
	@DEBUG_VALUE: mbedtls_internal_sha512_process:F <- [DW_OP_plus_uconst 100, DW_OP_LLVM_fragment 0 32] [$sp+0]
	orrs	r4, r5
.Ltmp206:
	@DEBUG_VALUE: mbedtls_internal_sha512_process:G <- [DW_OP_plus_uconst 84, DW_OP_LLVM_fragment 0 32] [$sp+0]
	ldr	r5, [sp, #104]                  @ 4-byte Reload
.Ltmp207:
	@DEBUG_VALUE: mbedtls_internal_sha512_process:H <- [DW_OP_LLVM_fragment 0 32] $r5
	ands	r4, r5
.Ltmp208:
	@DEBUG_VALUE: mbedtls_internal_sha512_process:H <- [DW_OP_plus_uconst 104, DW_OP_LLVM_fragment 0 32] [$sp+0]
	orrs	r4, r3
	adds	r0, r0, r4
.Ltmp209:
	@DEBUG_VALUE: mbedtls_internal_sha512_process:temp2 <- [DW_OP_LLVM_fragment 0 32] $r0
	str	r0, [sp, #144]                  @ 4-byte Spill
.Ltmp210:
	@DEBUG_VALUE: mbedtls_internal_sha512_process:temp2 <- [DW_OP_plus_uconst 144, DW_OP_LLVM_fragment 0 32] [$sp+0]
	@DEBUG_VALUE: mbedtls_internal_sha512_process:temp2 <- [DW_OP_plus_uconst 144, DW_OP_LLVM_fragment 0 32] [$sp+0]
	@DEBUG_VALUE: mbedtls_internal_sha512_process:temp2 <- [DW_OP_plus_uconst 144, DW_OP_LLVM_fragment 0 32] [$sp+0]
	adcs	r6, r2
.Ltmp211:
	@DEBUG_VALUE: mbedtls_internal_sha512_process:temp2 <- [DW_OP_LLVM_fragment 32 32] $r6
	.loc	2 0 9                           @ ../../../ThirdParty/mbedTLS/library/sha512.c:0:9
	str	r6, [sp, #128]                  @ 4-byte Spill
.Ltmp212:
	@DEBUG_VALUE: mbedtls_internal_sha512_process:temp2 <- [DW_OP_plus_uconst 128, DW_OP_LLVM_fragment 32 32] [$sp+0]
	@DEBUG_VALUE: mbedtls_internal_sha512_process:temp2 <- [DW_OP_plus_uconst 128, DW_OP_LLVM_fragment 32 32] [$sp+0]
	@DEBUG_VALUE: mbedtls_internal_sha512_process:temp2 <- [DW_OP_plus_uconst 128, DW_OP_LLVM_fragment 32 32] [$sp+0]
	.loc	2 273 9 is_stmt 1               @ ../../../ThirdParty/mbedTLS/library/sha512.c:273:9
	ldr	r0, [sp, #120]                  @ 4-byte Reload
.Ltmp213:
	@DEBUG_VALUE: mbedtls_internal_sha512_process:B <- [DW_OP_LLVM_fragment 0 32] $r0
	ldr	r2, [sp, #140]                  @ 4-byte Reload
.Ltmp214:
	@DEBUG_VALUE: mbedtls_internal_sha512_process:temp1 <- [DW_OP_LLVM_fragment 0 32] $r2
	adds	r5, r2, r0
.Ltmp215:
	@DEBUG_VALUE: mbedtls_internal_sha512_process:B <- [DW_OP_LLVM_fragment 0 32] $r5
	.loc	2 0 9 is_stmt 0                 @ ../../../ThirdParty/mbedTLS/library/sha512.c:0:9
	mov	r0, r1
.Ltmp216:
	@DEBUG_VALUE: mbedtls_internal_sha512_process:temp1 <- [DW_OP_LLVM_fragment 32 32] $r0
	.loc	2 273 9                         @ ../../../ThirdParty/mbedTLS/library/sha512.c:273:9
	ldr	r1, [sp, #148]                  @ 4-byte Reload
.Ltmp217:
	@DEBUG_VALUE: mbedtls_internal_sha512_process:B <- [DW_OP_LLVM_fragment 32 32] $r1
	adcs	r0, r1
.Ltmp218:
	@DEBUG_VALUE: mbedtls_internal_sha512_process:B <- [DW_OP_LLVM_fragment 32 32] $r0
	.loc	2 275 9 is_stmt 1               @ ../../../ThirdParty/mbedTLS/library/sha512.c:275:9
	lsrs	r1, r0, #18
	lsls	r2, r5, #14
.Ltmp219:
	adds	r1, r1, r2
.Ltmp220:
	@DEBUG_VALUE: mbedtls_internal_sha512_process:i <- [DW_OP_constu 3, DW_OP_or, DW_OP_stack_value] undef
	lsrs	r2, r0, #14
	lsls	r3, r5, #18
	adds	r3, r2, r3
	eors	r3, r1
	lsls	r1, r0, #23
	lsrs	r2, r5, #9
	adds	r1, r1, r2
	eors	r1, r3
	str	r1, [sp, #148]                  @ 4-byte Spill
	lsls	r1, r0, #14
	lsrs	r3, r5, #18
	adds	r1, r3, r1
	lsls	r3, r0, #18
	lsrs	r4, r5, #14
	adds	r3, r4, r3
	eors	r3, r1
	lsrs	r1, r0, #9
	mov	r6, r0
.Ltmp221:
	@DEBUG_VALUE: mbedtls_internal_sha512_process:B <- [DW_OP_LLVM_fragment 32 32] $r6
	str	r0, [sp, #76]                   @ 4-byte Spill
	lsls	r4, r5, #23
.Ltmp222:
	@DEBUG_VALUE: mbedtls_internal_sha512_process:B <- [DW_OP_LLVM_fragment 0 32] $r5
	str	r5, [sp, #120]                  @ 4-byte Spill
	adds	r2, r1, r4
	eors	r2, r3
	ldr	r3, [sp, #108]                  @ 4-byte Reload
	ldr	r0, [sp, #96]                   @ 4-byte Reload
.Ltmp223:
	@DEBUG_VALUE: mbedtls_internal_sha512_process:D <- [DW_OP_LLVM_fragment 32 32] $r0
	eors	r3, r0
	ands	r3, r6
.Ltmp224:
	@DEBUG_VALUE: mbedtls_internal_sha512_process:B <- [DW_OP_plus_uconst 76, DW_OP_LLVM_fragment 32 32] [$sp+0]
	eors	r3, r0
.Ltmp225:
	@DEBUG_VALUE: mbedtls_internal_sha512_process:D <- [DW_OP_plus_uconst 96, DW_OP_LLVM_fragment 32 32] [$sp+0]
	ldr	r4, [sp, #80]                   @ 4-byte Reload
	ldr	r0, [sp, #112]                  @ 4-byte Reload
.Ltmp226:
	@DEBUG_VALUE: mbedtls_internal_sha512_process:D <- [DW_OP_LLVM_fragment 0 32] $r0
	eors	r4, r0
	ands	r4, r5
.Ltmp227:
	@DEBUG_VALUE: mbedtls_internal_sha512_process:B <- [DW_OP_plus_uconst 120, DW_OP_LLVM_fragment 0 32] [$sp+0]
	eors	r4, r0
.Ltmp228:
	@DEBUG_VALUE: mbedtls_internal_sha512_process:D <- [DW_OP_plus_uconst 112, DW_OP_LLVM_fragment 0 32] [$sp+0]
	.loc	2 0 9 is_stmt 0                 @ ../../../ThirdParty/mbedTLS/library/sha512.c:0:9
	ldr	r0, [sp, #156]                  @ 4-byte Reload
	.loc	2 275 9                         @ ../../../ThirdParty/mbedTLS/library/sha512.c:275:9
	ldr	r5, [r0, #28]
	ldr	r7, [r0, #24]
	ldr	r0, [sp, #124]                  @ 4-byte Reload
.Ltmp229:
	@DEBUG_VALUE: mbedtls_internal_sha512_process:E <- [DW_OP_LLVM_fragment 0 32] $r0
	adds	r7, r7, r0
	ldr	r0, [sp, #136]                  @ 4-byte Reload
.Ltmp230:
	@DEBUG_VALUE: mbedtls_internal_sha512_process:E <- [DW_OP_LLVM_fragment 32 32] $r0
	adcs	r5, r0
	ldr	r0, [sp, #152]                  @ 4-byte Reload
.Ltmp231:
	ldr	r1, [r0, #28]
	ldr	r6, [r0, #24]
	adds	r6, r7, r6
	adcs	r1, r5
	adds	r4, r6, r4
	adcs	r1, r3
	adds	r2, r4, r2
.Ltmp232:
	@DEBUG_VALUE: mbedtls_internal_sha512_process:temp1 <- [DW_OP_LLVM_fragment 0 32] $r2
	str	r2, [sp, #140]                  @ 4-byte Spill
	ldr	r0, [sp, #148]                  @ 4-byte Reload
	adcs	r1, r0
.Ltmp233:
	@DEBUG_VALUE: mbedtls_internal_sha512_process:temp1 <- [DW_OP_LLVM_fragment 32 32] $r1
	ldr	r0, [sp, #144]                  @ 4-byte Reload
.Ltmp234:
	@DEBUG_VALUE: mbedtls_internal_sha512_process:temp2 <- [DW_OP_LLVM_fragment 0 32] $r0
	adds	r7, r0, r2
.Ltmp235:
	@DEBUG_VALUE: mbedtls_internal_sha512_process:temp1 <- [DW_OP_plus_uconst 140, DW_OP_LLVM_fragment 0 32] [$sp+0]
	@DEBUG_VALUE: mbedtls_internal_sha512_process:E <- [DW_OP_LLVM_fragment 0 32] $r7
	.loc	2 0 9                           @ ../../../ThirdParty/mbedTLS/library/sha512.c:0:9
	str	r7, [sp, #136]                  @ 4-byte Spill
	ldr	r5, [sp, #128]                  @ 4-byte Reload
.Ltmp236:
	@DEBUG_VALUE: mbedtls_internal_sha512_process:temp2 <- [DW_OP_LLVM_fragment 32 32] $r5
	.loc	2 275 9                         @ ../../../ThirdParty/mbedTLS/library/sha512.c:275:9
	adcs	r5, r1
.Ltmp237:
	@DEBUG_VALUE: mbedtls_internal_sha512_process:E <- [DW_OP_LLVM_fragment 32 32] $r5
	.loc	2 277 9 is_stmt 1               @ ../../../ThirdParty/mbedTLS/library/sha512.c:277:9
	str	r5, [sp, #128]                  @ 4-byte Spill
	mov	r0, r5
.Ltmp238:
	.loc	2 0 9 is_stmt 0                 @ ../../../ThirdParty/mbedTLS/library/sha512.c:0:9
	ldr	r2, [sp, #132]                  @ 4-byte Reload
.Ltmp239:
	@DEBUG_VALUE: mbedtls_internal_sha512_process:F <- [DW_OP_LLVM_fragment 32 32] $r2
	.loc	2 277 9                         @ ../../../ThirdParty/mbedTLS/library/sha512.c:277:9
	ands	r0, r2
	mov	r3, r5
	orrs	r3, r2
.Ltmp240:
	@DEBUG_VALUE: mbedtls_internal_sha512_process:F <- [DW_OP_plus_uconst 132, DW_OP_LLVM_fragment 32 32] [$sp+0]
	ldr	r2, [sp, #116]                  @ 4-byte Reload
.Ltmp241:
	@DEBUG_VALUE: mbedtls_internal_sha512_process:G <- [DW_OP_LLVM_fragment 32 32] $r2
	ands	r3, r2
.Ltmp242:
	@DEBUG_VALUE: mbedtls_internal_sha512_process:G <- [DW_OP_plus_uconst 116, DW_OP_LLVM_fragment 32 32] [$sp+0]
	orrs	r3, r0
	lsls	r0, r5, #30
	lsrs	r2, r7, #2
	adds	r0, r0, r2
	lsrs	r2, r5, #28
	lsls	r4, r7, #4
	adds	r2, r2, r4
	eors	r2, r0
	lsls	r0, r5, #25
	lsrs	r4, r7, #7
	adds	r6, r0, r4
	eors	r6, r2
	lsrs	r0, r5, #2
	lsls	r2, r7, #30
	adds	r0, r0, r2
	lsls	r2, r5, #4
	lsrs	r4, r7, #28
	adds	r2, r4, r2
	eors	r2, r0
	lsrs	r0, r5, #7
.Ltmp243:
	@DEBUG_VALUE: mbedtls_internal_sha512_process:E <- [DW_OP_plus_uconst 128, DW_OP_LLVM_fragment 32 32] [$sp+0]
	lsls	r4, r7, #25
	adds	r0, r0, r4
	eors	r0, r2
	mov	r2, r7
	ldr	r5, [sp, #100]                  @ 4-byte Reload
.Ltmp244:
	@DEBUG_VALUE: mbedtls_internal_sha512_process:F <- [DW_OP_LLVM_fragment 0 32] $r5
	ands	r2, r5
	mov	r4, r7
.Ltmp245:
	@DEBUG_VALUE: mbedtls_internal_sha512_process:E <- [DW_OP_LLVM_fragment 0 32] $r4
	@DEBUG_VALUE: mbedtls_internal_sha512_process:E <- [DW_OP_LLVM_fragment 0 32] $r4
	@DEBUG_VALUE: mbedtls_internal_sha512_process:E <- [DW_OP_plus_uconst 136, DW_OP_LLVM_fragment 0 32] [$sp+0]
	orrs	r4, r5
.Ltmp246:
	@DEBUG_VALUE: mbedtls_internal_sha512_process:F <- [DW_OP_plus_uconst 100, DW_OP_LLVM_fragment 0 32] [$sp+0]
	ldr	r5, [sp, #84]                   @ 4-byte Reload
.Ltmp247:
	@DEBUG_VALUE: mbedtls_internal_sha512_process:G <- [DW_OP_LLVM_fragment 0 32] $r5
	ands	r4, r5
.Ltmp248:
	@DEBUG_VALUE: mbedtls_internal_sha512_process:G <- [DW_OP_plus_uconst 84, DW_OP_LLVM_fragment 0 32] [$sp+0]
	orrs	r4, r2
	adds	r0, r0, r4
.Ltmp249:
	@DEBUG_VALUE: mbedtls_internal_sha512_process:temp2 <- [DW_OP_LLVM_fragment 0 32] $r0
	str	r0, [sp, #148]                  @ 4-byte Spill
.Ltmp250:
	@DEBUG_VALUE: mbedtls_internal_sha512_process:temp2 <- [DW_OP_plus_uconst 148, DW_OP_LLVM_fragment 0 32] [$sp+0]
	@DEBUG_VALUE: mbedtls_internal_sha512_process:temp2 <- [DW_OP_plus_uconst 148, DW_OP_LLVM_fragment 0 32] [$sp+0]
	@DEBUG_VALUE: mbedtls_internal_sha512_process:temp2 <- [DW_OP_plus_uconst 148, DW_OP_LLVM_fragment 0 32] [$sp+0]
	adcs	r6, r3
.Ltmp251:
	@DEBUG_VALUE: mbedtls_internal_sha512_process:temp2 <- [DW_OP_LLVM_fragment 32 32] $r6
	.loc	2 0 9                           @ ../../../ThirdParty/mbedTLS/library/sha512.c:0:9
	str	r6, [sp, #144]                  @ 4-byte Spill
.Ltmp252:
	@DEBUG_VALUE: mbedtls_internal_sha512_process:temp2 <- [DW_OP_plus_uconst 144, DW_OP_LLVM_fragment 32 32] [$sp+0]
	@DEBUG_VALUE: mbedtls_internal_sha512_process:temp2 <- [DW_OP_plus_uconst 144, DW_OP_LLVM_fragment 32 32] [$sp+0]
	@DEBUG_VALUE: mbedtls_internal_sha512_process:temp2 <- [DW_OP_plus_uconst 144, DW_OP_LLVM_fragment 32 32] [$sp+0]
	.loc	2 275 9 is_stmt 1               @ ../../../ThirdParty/mbedTLS/library/sha512.c:275:9
	ldr	r0, [sp, #92]                   @ 4-byte Reload
.Ltmp253:
	@DEBUG_VALUE: mbedtls_internal_sha512_process:A <- [DW_OP_LLVM_fragment 0 32] $r0
	ldr	r2, [sp, #140]                  @ 4-byte Reload
.Ltmp254:
	@DEBUG_VALUE: mbedtls_internal_sha512_process:temp1 <- [DW_OP_LLVM_fragment 0 32] $r2
	adds	r5, r2, r0
.Ltmp255:
	@DEBUG_VALUE: mbedtls_internal_sha512_process:A <- [DW_OP_LLVM_fragment 0 32] $r5
	.loc	2 0 9 is_stmt 0                 @ ../../../ThirdParty/mbedTLS/library/sha512.c:0:9
	mov	r0, r1
.Ltmp256:
	@DEBUG_VALUE: mbedtls_internal_sha512_process:temp1 <- [DW_OP_LLVM_fragment 32 32] $r0
	.loc	2 275 9                         @ ../../../ThirdParty/mbedTLS/library/sha512.c:275:9
	ldr	r1, [sp, #164]                  @ 4-byte Reload
.Ltmp257:
	@DEBUG_VALUE: mbedtls_internal_sha512_process:A <- [DW_OP_LLVM_fragment 32 32] $r1
	adcs	r0, r1
.Ltmp258:
	@DEBUG_VALUE: mbedtls_internal_sha512_process:A <- [DW_OP_LLVM_fragment 32 32] $r0
	.loc	2 277 9 is_stmt 1               @ ../../../ThirdParty/mbedTLS/library/sha512.c:277:9
	lsrs	r1, r0, #18
	lsls	r2, r5, #14
.Ltmp259:
	adds	r1, r1, r2
.Ltmp260:
	@DEBUG_VALUE: mbedtls_internal_sha512_process:i <- [DW_OP_constu 4, DW_OP_or, DW_OP_stack_value] undef
	lsrs	r2, r0, #14
	lsls	r3, r5, #18
	adds	r2, r2, r3
	eors	r2, r1
	lsls	r1, r0, #23
	lsrs	r3, r5, #9
	adds	r1, r1, r3
	eors	r1, r2
	str	r1, [sp, #164]                  @ 4-byte Spill
	lsls	r1, r0, #14
	lsrs	r2, r5, #18
	adds	r1, r2, r1
	lsls	r2, r0, #18
	lsrs	r4, r5, #14
	adds	r2, r4, r2
	eors	r2, r1
	lsrs	r1, r0, #9
	mov	r7, r0
.Ltmp261:
	@DEBUG_VALUE: mbedtls_internal_sha512_process:A <- [DW_OP_LLVM_fragment 32 32] $r7
	str	r0, [sp, #92]                   @ 4-byte Spill
	lsls	r4, r5, #23
	mov	r6, r5
.Ltmp262:
	@DEBUG_VALUE: mbedtls_internal_sha512_process:A <- [DW_OP_LLVM_fragment 0 32] $r6
	str	r5, [sp, #124]                  @ 4-byte Spill
	adds	r3, r1, r4
	eors	r3, r2
	ldr	r2, [sp, #76]                   @ 4-byte Reload
	ldr	r0, [sp, #108]                  @ 4-byte Reload
.Ltmp263:
	@DEBUG_VALUE: mbedtls_internal_sha512_process:C <- [DW_OP_LLVM_fragment 32 32] $r0
	eors	r2, r0
	ands	r2, r7
.Ltmp264:
	@DEBUG_VALUE: mbedtls_internal_sha512_process:A <- [DW_OP_plus_uconst 92, DW_OP_LLVM_fragment 32 32] [$sp+0]
	eors	r2, r0
.Ltmp265:
	@DEBUG_VALUE: mbedtls_internal_sha512_process:C <- [DW_OP_plus_uconst 108, DW_OP_LLVM_fragment 32 32] [$sp+0]
	ldr	r5, [sp, #120]                  @ 4-byte Reload
	ldr	r0, [sp, #80]                   @ 4-byte Reload
.Ltmp266:
	@DEBUG_VALUE: mbedtls_internal_sha512_process:C <- [DW_OP_LLVM_fragment 0 32] $r0
	eors	r5, r0
	ands	r5, r6
.Ltmp267:
	@DEBUG_VALUE: mbedtls_internal_sha512_process:A <- [DW_OP_plus_uconst 124, DW_OP_LLVM_fragment 0 32] [$sp+0]
	eors	r5, r0
.Ltmp268:
	@DEBUG_VALUE: mbedtls_internal_sha512_process:C <- [DW_OP_plus_uconst 80, DW_OP_LLVM_fragment 0 32] [$sp+0]
	.loc	2 0 9 is_stmt 0                 @ ../../../ThirdParty/mbedTLS/library/sha512.c:0:9
	ldr	r0, [sp, #156]                  @ 4-byte Reload
	.loc	2 277 9                         @ ../../../ThirdParty/mbedTLS/library/sha512.c:277:9
	ldr	r6, [r0, #36]
	ldr	r4, [r0, #32]
	ldr	r0, [sp, #112]                  @ 4-byte Reload
.Ltmp269:
	@DEBUG_VALUE: mbedtls_internal_sha512_process:D <- [DW_OP_LLVM_fragment 0 32] $r0
	adds	r7, r4, r0
	ldr	r0, [sp, #96]                   @ 4-byte Reload
.Ltmp270:
	@DEBUG_VALUE: mbedtls_internal_sha512_process:D <- [DW_OP_LLVM_fragment 32 32] $r0
	adcs	r6, r0
	ldr	r0, [sp, #152]                  @ 4-byte Reload
.Ltmp271:
	ldr	r1, [r0, #36]
	ldr	r0, [r0, #32]
	adds	r0, r7, r0
	adcs	r1, r6
	adds	r0, r0, r5
	adcs	r1, r2
	adds	r2, r0, r3
.Ltmp272:
	@DEBUG_VALUE: mbedtls_internal_sha512_process:temp1 <- [DW_OP_LLVM_fragment 0 32] $r2
	str	r2, [sp, #96]                   @ 4-byte Spill
	ldr	r0, [sp, #164]                  @ 4-byte Reload
	adcs	r1, r0
.Ltmp273:
	@DEBUG_VALUE: mbedtls_internal_sha512_process:temp1 <- [DW_OP_LLVM_fragment 32 32] $r1
	ldr	r0, [sp, #148]                  @ 4-byte Reload
.Ltmp274:
	@DEBUG_VALUE: mbedtls_internal_sha512_process:temp2 <- [DW_OP_LLVM_fragment 0 32] $r0
	adds	r6, r0, r2
.Ltmp275:
	@DEBUG_VALUE: mbedtls_internal_sha512_process:temp1 <- [DW_OP_plus_uconst 96, DW_OP_LLVM_fragment 0 32] [$sp+0]
	@DEBUG_VALUE: mbedtls_internal_sha512_process:D <- [DW_OP_LLVM_fragment 0 32] $r6
	.loc	2 0 9                           @ ../../../ThirdParty/mbedTLS/library/sha512.c:0:9
	str	r6, [sp, #112]                  @ 4-byte Spill
	ldr	r4, [sp, #144]                  @ 4-byte Reload
.Ltmp276:
	@DEBUG_VALUE: mbedtls_internal_sha512_process:temp2 <- [DW_OP_LLVM_fragment 32 32] $r4
	.loc	2 277 9                         @ ../../../ThirdParty/mbedTLS/library/sha512.c:277:9
	adcs	r4, r1
.Ltmp277:
	@DEBUG_VALUE: mbedtls_internal_sha512_process:D <- [DW_OP_LLVM_fragment 32 32] $r4
	.loc	2 279 9 is_stmt 1               @ ../../../ThirdParty/mbedTLS/library/sha512.c:279:9
	str	r4, [sp, #144]                  @ 4-byte Spill
	mov	r0, r4
.Ltmp278:
	.loc	2 0 9 is_stmt 0                 @ ../../../ThirdParty/mbedTLS/library/sha512.c:0:9
	ldr	r2, [sp, #128]                  @ 4-byte Reload
.Ltmp279:
	@DEBUG_VALUE: mbedtls_internal_sha512_process:E <- [DW_OP_LLVM_fragment 32 32] $r2
	.loc	2 279 9                         @ ../../../ThirdParty/mbedTLS/library/sha512.c:279:9
	ands	r0, r2
	mov	r5, r4
	orrs	r5, r2
.Ltmp280:
	@DEBUG_VALUE: mbedtls_internal_sha512_process:E <- [DW_OP_plus_uconst 128, DW_OP_LLVM_fragment 32 32] [$sp+0]
	ldr	r2, [sp, #132]                  @ 4-byte Reload
.Ltmp281:
	@DEBUG_VALUE: mbedtls_internal_sha512_process:F <- [DW_OP_LLVM_fragment 32 32] $r2
	ands	r5, r2
.Ltmp282:
	@DEBUG_VALUE: mbedtls_internal_sha512_process:F <- [DW_OP_plus_uconst 132, DW_OP_LLVM_fragment 32 32] [$sp+0]
	orrs	r5, r0
	lsls	r0, r4, #30
	lsrs	r2, r6, #2
	adds	r0, r0, r2
	lsrs	r2, r4, #28
	lsls	r3, r6, #4
	adds	r2, r2, r3
	eors	r2, r0
	lsls	r0, r4, #25
	lsrs	r3, r6, #7
	adds	r7, r0, r3
	eors	r7, r2
	lsrs	r0, r4, #2
	lsls	r2, r6, #30
	adds	r0, r0, r2
	lsls	r2, r4, #4
	lsrs	r3, r6, #28
	adds	r2, r3, r2
	eors	r2, r0
	lsrs	r0, r4, #7
.Ltmp283:
	@DEBUG_VALUE: mbedtls_internal_sha512_process:D <- [DW_OP_plus_uconst 144, DW_OP_LLVM_fragment 32 32] [$sp+0]
	lsls	r3, r6, #25
	adds	r0, r0, r3
	eors	r0, r2
	b	.LBB5_7
.Ltmp284:
	.p2align	2
@ %bb.6:
	.loc	2 0 9                           @ ../../../ThirdParty/mbedTLS/library/sha512.c:0:9
__arm_cp.5_1:
	.long	K
.Lcpi_end32:
	.size	__arm_cp.5_1, .Lcpi_end32-__arm_cp.5_1
	.p2align	1
.LBB5_7:                                @   in Loop: Header=BB5_5 Depth=1
	.loc	2 279 9                         @ ../../../ThirdParty/mbedTLS/library/sha512.c:279:9
	mov	r2, r6
	ldr	r4, [sp, #136]                  @ 4-byte Reload
.Ltmp285:
	@DEBUG_VALUE: mbedtls_internal_sha512_process:E <- [DW_OP_LLVM_fragment 0 32] $r4
	ands	r2, r4
	mov	r3, r6
.Ltmp286:
	@DEBUG_VALUE: mbedtls_internal_sha512_process:D <- [DW_OP_plus_uconst 112, DW_OP_LLVM_fragment 0 32] [$sp+0]
	orrs	r3, r4
.Ltmp287:
	@DEBUG_VALUE: mbedtls_internal_sha512_process:E <- [DW_OP_plus_uconst 136, DW_OP_LLVM_fragment 0 32] [$sp+0]
	ldr	r4, [sp, #100]                  @ 4-byte Reload
.Ltmp288:
	@DEBUG_VALUE: mbedtls_internal_sha512_process:F <- [DW_OP_LLVM_fragment 0 32] $r4
	ands	r3, r4
.Ltmp289:
	@DEBUG_VALUE: mbedtls_internal_sha512_process:F <- [DW_OP_plus_uconst 100, DW_OP_LLVM_fragment 0 32] [$sp+0]
	orrs	r3, r2
	adds	r0, r0, r3
.Ltmp290:
	@DEBUG_VALUE: mbedtls_internal_sha512_process:temp2 <- [DW_OP_LLVM_fragment 0 32] $r0
	str	r0, [sp, #164]                  @ 4-byte Spill
.Ltmp291:
	@DEBUG_VALUE: mbedtls_internal_sha512_process:temp2 <- [DW_OP_plus_uconst 164, DW_OP_LLVM_fragment 0 32] [$sp+0]
	@DEBUG_VALUE: mbedtls_internal_sha512_process:temp2 <- [DW_OP_plus_uconst 164, DW_OP_LLVM_fragment 0 32] [$sp+0]
	@DEBUG_VALUE: mbedtls_internal_sha512_process:temp2 <- [DW_OP_plus_uconst 164, DW_OP_LLVM_fragment 0 32] [$sp+0]
	adcs	r7, r5
.Ltmp292:
	@DEBUG_VALUE: mbedtls_internal_sha512_process:temp2 <- [DW_OP_LLVM_fragment 32 32] $r7
	.loc	2 0 9                           @ ../../../ThirdParty/mbedTLS/library/sha512.c:0:9
	str	r7, [sp, #140]                  @ 4-byte Spill
.Ltmp293:
	@DEBUG_VALUE: mbedtls_internal_sha512_process:temp2 <- [DW_OP_plus_uconst 140, DW_OP_LLVM_fragment 32 32] [$sp+0]
	@DEBUG_VALUE: mbedtls_internal_sha512_process:temp2 <- [DW_OP_plus_uconst 140, DW_OP_LLVM_fragment 32 32] [$sp+0]
	@DEBUG_VALUE: mbedtls_internal_sha512_process:temp2 <- [DW_OP_plus_uconst 140, DW_OP_LLVM_fragment 32 32] [$sp+0]
	.loc	2 277 9 is_stmt 1               @ ../../../ThirdParty/mbedTLS/library/sha512.c:277:9
	ldr	r0, [sp, #104]                  @ 4-byte Reload
.Ltmp294:
	@DEBUG_VALUE: mbedtls_internal_sha512_process:H <- [DW_OP_LLVM_fragment 0 32] $r0
	ldr	r2, [sp, #96]                   @ 4-byte Reload
.Ltmp295:
	@DEBUG_VALUE: mbedtls_internal_sha512_process:temp1 <- [DW_OP_LLVM_fragment 0 32] $r2
	adds	r4, r2, r0
.Ltmp296:
	@DEBUG_VALUE: mbedtls_internal_sha512_process:H <- [DW_OP_LLVM_fragment 0 32] $r4
	ldr	r0, [sp, #160]                  @ 4-byte Reload
.Ltmp297:
	@DEBUG_VALUE: mbedtls_internal_sha512_process:H <- [DW_OP_LLVM_fragment 32 32] $r0
	.loc	2 0 9 is_stmt 0                 @ ../../../ThirdParty/mbedTLS/library/sha512.c:0:9
	mov	r3, r1
.Ltmp298:
	@DEBUG_VALUE: mbedtls_internal_sha512_process:temp1 <- [DW_OP_LLVM_fragment 32 32] $r3
	.loc	2 277 9                         @ ../../../ThirdParty/mbedTLS/library/sha512.c:277:9
	adcs	r3, r0
.Ltmp299:
	@DEBUG_VALUE: mbedtls_internal_sha512_process:H <- [DW_OP_LLVM_fragment 32 32] $r3
	.loc	2 279 9 is_stmt 1               @ ../../../ThirdParty/mbedTLS/library/sha512.c:279:9
	lsrs	r0, r3, #18
	lsls	r1, r4, #14
	adds	r0, r0, r1
.Ltmp300:
	@DEBUG_VALUE: mbedtls_internal_sha512_process:i <- [DW_OP_constu 5, DW_OP_or, DW_OP_stack_value] undef
	lsrs	r1, r3, #14
	lsls	r2, r4, #18
.Ltmp301:
	adds	r1, r1, r2
	eors	r1, r0
	lsls	r0, r3, #23
	lsrs	r2, r4, #9
	adds	r0, r0, r2
	eors	r0, r1
	str	r0, [sp, #148]                  @ 4-byte Spill
	lsls	r0, r3, #14
	lsrs	r1, r4, #18
	adds	r0, r1, r0
	lsls	r1, r3, #18
	lsrs	r2, r4, #14
	adds	r1, r2, r1
	eors	r1, r0
	lsrs	r0, r3, #9
	mov	r5, r3
.Ltmp302:
	@DEBUG_VALUE: mbedtls_internal_sha512_process:H <- [DW_OP_LLVM_fragment 32 32] $r5
	str	r3, [sp, #104]                  @ 4-byte Spill
	lsls	r2, r4, #23
	mov	r3, r4
.Ltmp303:
	@DEBUG_VALUE: mbedtls_internal_sha512_process:H <- [DW_OP_LLVM_fragment 0 32] $r3
	str	r4, [sp, #96]                   @ 4-byte Spill
	adds	r4, r0, r2
	eors	r4, r1
	ldr	r2, [sp, #92]                   @ 4-byte Reload
	ldr	r0, [sp, #76]                   @ 4-byte Reload
.Ltmp304:
	@DEBUG_VALUE: mbedtls_internal_sha512_process:B <- [DW_OP_LLVM_fragment 32 32] $r0
	eors	r2, r0
	ands	r2, r5
.Ltmp305:
	@DEBUG_VALUE: mbedtls_internal_sha512_process:H <- [DW_OP_plus_uconst 104, DW_OP_LLVM_fragment 32 32] [$sp+0]
	eors	r2, r0
.Ltmp306:
	@DEBUG_VALUE: mbedtls_internal_sha512_process:B <- [DW_OP_plus_uconst 76, DW_OP_LLVM_fragment 32 32] [$sp+0]
	ldr	r1, [sp, #124]                  @ 4-byte Reload
	ldr	r0, [sp, #120]                  @ 4-byte Reload
.Ltmp307:
	@DEBUG_VALUE: mbedtls_internal_sha512_process:B <- [DW_OP_LLVM_fragment 0 32] $r0
	eors	r1, r0
	ands	r1, r3
.Ltmp308:
	@DEBUG_VALUE: mbedtls_internal_sha512_process:H <- [DW_OP_plus_uconst 96, DW_OP_LLVM_fragment 0 32] [$sp+0]
	eors	r1, r0
.Ltmp309:
	@DEBUG_VALUE: mbedtls_internal_sha512_process:B <- [DW_OP_plus_uconst 120, DW_OP_LLVM_fragment 0 32] [$sp+0]
	.loc	2 0 9 is_stmt 0                 @ ../../../ThirdParty/mbedTLS/library/sha512.c:0:9
	ldr	r5, [sp, #156]                  @ 4-byte Reload
	.loc	2 279 9                         @ ../../../ThirdParty/mbedTLS/library/sha512.c:279:9
	ldr	r7, [r5, #44]
	ldr	r0, [sp, #152]                  @ 4-byte Reload
	ldr	r3, [r0, #44]
	ldr	r6, [r5, #40]
	ldr	r5, [r0, #40]
	adds	r0, r5, r6
	adcs	r3, r7
	ldr	r5, [sp, #80]                   @ 4-byte Reload
.Ltmp310:
	@DEBUG_VALUE: mbedtls_internal_sha512_process:C <- [DW_OP_LLVM_fragment 0 32] $r5
	adds	r0, r0, r5
	ldr	r5, [sp, #108]                  @ 4-byte Reload
.Ltmp311:
	@DEBUG_VALUE: mbedtls_internal_sha512_process:C <- [DW_OP_LLVM_fragment 32 32] $r5
	adcs	r3, r5
	adds	r1, r0, r1
	adcs	r3, r2
	adds	r1, r1, r4
.Ltmp312:
	@DEBUG_VALUE: mbedtls_internal_sha512_process:temp1 <- [DW_OP_LLVM_fragment 0 32] $r1
	str	r1, [sp, #160]                  @ 4-byte Spill
	ldr	r0, [sp, #148]                  @ 4-byte Reload
	adcs	r3, r0
.Ltmp313:
	@DEBUG_VALUE: mbedtls_internal_sha512_process:temp1 <- [DW_OP_LLVM_fragment 32 32] $r3
	ldr	r0, [sp, #164]                  @ 4-byte Reload
.Ltmp314:
	@DEBUG_VALUE: mbedtls_internal_sha512_process:temp2 <- [DW_OP_LLVM_fragment 0 32] $r0
	adds	r2, r0, r1
.Ltmp315:
	@DEBUG_VALUE: mbedtls_internal_sha512_process:temp1 <- [DW_OP_plus_uconst 160, DW_OP_LLVM_fragment 0 32] [$sp+0]
	@DEBUG_VALUE: mbedtls_internal_sha512_process:C <- [DW_OP_LLVM_fragment 0 32] $r2
	.loc	2 0 9                           @ ../../../ThirdParty/mbedTLS/library/sha512.c:0:9
	ldr	r6, [sp, #140]                  @ 4-byte Reload
.Ltmp316:
	@DEBUG_VALUE: mbedtls_internal_sha512_process:temp2 <- [DW_OP_LLVM_fragment 32 32] $r6
	.loc	2 279 9                         @ ../../../ThirdParty/mbedTLS/library/sha512.c:279:9
	adcs	r6, r3
.Ltmp317:
	@DEBUG_VALUE: mbedtls_internal_sha512_process:C <- [DW_OP_LLVM_fragment 32 32] $r6
	.loc	2 281 9 is_stmt 1               @ ../../../ThirdParty/mbedTLS/library/sha512.c:281:9
	str	r6, [sp, #140]                  @ 4-byte Spill
	mov	r1, r6
	ldr	r0, [sp, #144]                  @ 4-byte Reload
.Ltmp318:
	@DEBUG_VALUE: mbedtls_internal_sha512_process:D <- [DW_OP_LLVM_fragment 32 32] $r0
	ands	r1, r0
	mov	r4, r6
	orrs	r4, r0
.Ltmp319:
	@DEBUG_VALUE: mbedtls_internal_sha512_process:D <- [DW_OP_plus_uconst 144, DW_OP_LLVM_fragment 32 32] [$sp+0]
	ldr	r0, [sp, #128]                  @ 4-byte Reload
.Ltmp320:
	@DEBUG_VALUE: mbedtls_internal_sha512_process:E <- [DW_OP_LLVM_fragment 32 32] $r0
	ands	r4, r0
.Ltmp321:
	@DEBUG_VALUE: mbedtls_internal_sha512_process:E <- [DW_OP_LLVM_fragment 32 32] undef
	@DEBUG_VALUE: mbedtls_internal_sha512_process:E <- [DW_OP_plus_uconst 128, DW_OP_LLVM_fragment 32 32] [$sp+0]
	orrs	r4, r1
	lsls	r1, r6, #30
	mov	r0, r2
.Ltmp322:
	@DEBUG_VALUE: mbedtls_internal_sha512_process:C <- [DW_OP_LLVM_fragment 0 32] $r0
	str	r2, [sp, #108]                  @ 4-byte Spill
	lsrs	r2, r2, #2
	adds	r1, r1, r2
	lsrs	r2, r6, #28
	lsls	r5, r0, #4
	adds	r2, r2, r5
	eors	r2, r1
	lsls	r1, r6, #25
	lsrs	r5, r0, #7
	adds	r7, r1, r5
	eors	r7, r2
	lsrs	r1, r6, #2
	lsls	r2, r0, #30
	adds	r1, r1, r2
	lsls	r2, r6, #4
	lsrs	r5, r0, #28
	adds	r2, r5, r2
	eors	r2, r1
	lsrs	r1, r6, #7
.Ltmp323:
	@DEBUG_VALUE: mbedtls_internal_sha512_process:C <- [DW_OP_plus_uconst 140, DW_OP_LLVM_fragment 32 32] [$sp+0]
	lsls	r5, r0, #25
	adds	r1, r1, r5
	eors	r1, r2
	mov	r2, r0
	ldr	r6, [sp, #112]                  @ 4-byte Reload
.Ltmp324:
	@DEBUG_VALUE: mbedtls_internal_sha512_process:D <- [DW_OP_LLVM_fragment 0 32] $r6
	ands	r2, r6
	mov	r5, r0
.Ltmp325:
	@DEBUG_VALUE: mbedtls_internal_sha512_process:C <- [DW_OP_LLVM_fragment 0 32] $r5
	@DEBUG_VALUE: mbedtls_internal_sha512_process:C <- [DW_OP_LLVM_fragment 0 32] $r5
	@DEBUG_VALUE: mbedtls_internal_sha512_process:C <- [DW_OP_plus_uconst 108, DW_OP_LLVM_fragment 0 32] [$sp+0]
	orrs	r5, r6
.Ltmp326:
	@DEBUG_VALUE: mbedtls_internal_sha512_process:D <- [DW_OP_plus_uconst 112, DW_OP_LLVM_fragment 0 32] [$sp+0]
	ldr	r0, [sp, #136]                  @ 4-byte Reload
.Ltmp327:
	@DEBUG_VALUE: mbedtls_internal_sha512_process:E <- [DW_OP_LLVM_fragment 0 32] $r0
	ands	r5, r0
.Ltmp328:
	@DEBUG_VALUE: mbedtls_internal_sha512_process:E <- [DW_OP_plus_uconst 136, DW_OP_LLVM_fragment 0 32] [$sp+0]
	orrs	r5, r2
	adds	r0, r1, r5
.Ltmp329:
	@DEBUG_VALUE: mbedtls_internal_sha512_process:temp2 <- [DW_OP_LLVM_fragment 0 32] $r0
	str	r0, [sp, #164]                  @ 4-byte Spill
.Ltmp330:
	@DEBUG_VALUE: mbedtls_internal_sha512_process:temp2 <- [DW_OP_plus_uconst 164, DW_OP_LLVM_fragment 0 32] [$sp+0]
	@DEBUG_VALUE: mbedtls_internal_sha512_process:temp2 <- [DW_OP_plus_uconst 164, DW_OP_LLVM_fragment 0 32] [$sp+0]
	@DEBUG_VALUE: mbedtls_internal_sha512_process:temp2 <- [DW_OP_plus_uconst 164, DW_OP_LLVM_fragment 0 32] [$sp+0]
	adcs	r7, r4
.Ltmp331:
	@DEBUG_VALUE: mbedtls_internal_sha512_process:temp2 <- [DW_OP_LLVM_fragment 32 32] $r7
	.loc	2 0 9 is_stmt 0                 @ ../../../ThirdParty/mbedTLS/library/sha512.c:0:9
	str	r7, [sp, #148]                  @ 4-byte Spill
.Ltmp332:
	@DEBUG_VALUE: mbedtls_internal_sha512_process:temp2 <- [DW_OP_plus_uconst 148, DW_OP_LLVM_fragment 32 32] [$sp+0]
	@DEBUG_VALUE: mbedtls_internal_sha512_process:temp2 <- [DW_OP_plus_uconst 148, DW_OP_LLVM_fragment 32 32] [$sp+0]
	@DEBUG_VALUE: mbedtls_internal_sha512_process:temp2 <- [DW_OP_plus_uconst 148, DW_OP_LLVM_fragment 32 32] [$sp+0]
	.loc	2 279 9 is_stmt 1               @ ../../../ThirdParty/mbedTLS/library/sha512.c:279:9
	ldr	r1, [sp, #84]                   @ 4-byte Reload
.Ltmp333:
	@DEBUG_VALUE: mbedtls_internal_sha512_process:G <- [DW_OP_LLVM_fragment 0 32] $r1
	ldr	r0, [sp, #160]                  @ 4-byte Reload
.Ltmp334:
	@DEBUG_VALUE: mbedtls_internal_sha512_process:temp1 <- [DW_OP_LLVM_fragment 0 32] $r0
	adds	r4, r0, r1
.Ltmp335:
	@DEBUG_VALUE: mbedtls_internal_sha512_process:G <- [DW_OP_LLVM_fragment 0 32] $r4
	ldr	r1, [sp, #116]                  @ 4-byte Reload
.Ltmp336:
	@DEBUG_VALUE: mbedtls_internal_sha512_process:G <- [DW_OP_LLVM_fragment 32 32] $r1
	.loc	2 0 9 is_stmt 0                 @ ../../../ThirdParty/mbedTLS/library/sha512.c:0:9
	mov	r0, r3
.Ltmp337:
	@DEBUG_VALUE: mbedtls_internal_sha512_process:temp1 <- [DW_OP_LLVM_fragment 32 32] $r0
	.loc	2 279 9                         @ ../../../ThirdParty/mbedTLS/library/sha512.c:279:9
	adcs	r0, r1
.Ltmp338:
	@DEBUG_VALUE: mbedtls_internal_sha512_process:G <- [DW_OP_LLVM_fragment 32 32] $r0
	.loc	2 281 9 is_stmt 1               @ ../../../ThirdParty/mbedTLS/library/sha512.c:281:9
	lsrs	r1, r0, #18
	lsls	r2, r4, #14
	adds	r1, r1, r2
.Ltmp339:
	@DEBUG_VALUE: mbedtls_internal_sha512_process:i <- [DW_OP_constu 6, DW_OP_or, DW_OP_stack_value] undef
	lsrs	r2, r0, #14
	lsls	r3, r4, #18
	adds	r2, r2, r3
	eors	r2, r1
	lsls	r1, r0, #23
	lsrs	r3, r4, #9
	adds	r1, r1, r3
	eors	r1, r2
	str	r1, [sp, #160]                  @ 4-byte Spill
	lsls	r1, r0, #14
	lsrs	r2, r4, #18
	adds	r1, r2, r1
	lsls	r2, r0, #18
	lsrs	r3, r4, #14
	adds	r2, r3, r2
	eors	r2, r1
	lsrs	r1, r0, #9
	mov	r6, r0
.Ltmp340:
	@DEBUG_VALUE: mbedtls_internal_sha512_process:G <- [DW_OP_LLVM_fragment 32 32] $r6
	str	r0, [sp, #116]                  @ 4-byte Spill
	lsls	r3, r4, #23
	adds	r5, r1, r3
	eors	r5, r2
	ldr	r2, [sp, #104]                  @ 4-byte Reload
	ldr	r0, [sp, #92]                   @ 4-byte Reload
.Ltmp341:
	@DEBUG_VALUE: mbedtls_internal_sha512_process:A <- [DW_OP_LLVM_fragment 32 32] $r0
	eors	r2, r0
	ands	r2, r6
.Ltmp342:
	@DEBUG_VALUE: mbedtls_internal_sha512_process:G <- [DW_OP_plus_uconst 116, DW_OP_LLVM_fragment 32 32] [$sp+0]
	eors	r2, r0
.Ltmp343:
	@DEBUG_VALUE: mbedtls_internal_sha512_process:A <- [DW_OP_plus_uconst 92, DW_OP_LLVM_fragment 32 32] [$sp+0]
	ldr	r1, [sp, #96]                   @ 4-byte Reload
	ldr	r0, [sp, #124]                  @ 4-byte Reload
.Ltmp344:
	@DEBUG_VALUE: mbedtls_internal_sha512_process:A <- [DW_OP_LLVM_fragment 0 32] $r0
	eors	r1, r0
	ands	r1, r4
	eors	r1, r0
.Ltmp345:
	@DEBUG_VALUE: mbedtls_internal_sha512_process:A <- [DW_OP_plus_uconst 124, DW_OP_LLVM_fragment 0 32] [$sp+0]
	.loc	2 0 9 is_stmt 0                 @ ../../../ThirdParty/mbedTLS/library/sha512.c:0:9
	ldr	r3, [sp, #156]                  @ 4-byte Reload
	.loc	2 281 9                         @ ../../../ThirdParty/mbedTLS/library/sha512.c:281:9
	ldr	r0, [r3, #52]
	str	r0, [sp, #84]                   @ 4-byte Spill
	ldr	r0, [sp, #152]                  @ 4-byte Reload
	ldr	r6, [r0, #52]
	ldr	r3, [r3, #48]
	ldr	r7, [r0, #48]
	adds	r7, r7, r3
	ldr	r0, [sp, #84]                   @ 4-byte Reload
	adcs	r6, r0
	ldr	r0, [sp, #120]                  @ 4-byte Reload
.Ltmp346:
	@DEBUG_VALUE: mbedtls_internal_sha512_process:B <- [DW_OP_LLVM_fragment 0 32] $r0
	adds	r7, r7, r0
	ldr	r0, [sp, #76]                   @ 4-byte Reload
.Ltmp347:
	@DEBUG_VALUE: mbedtls_internal_sha512_process:B <- [DW_OP_LLVM_fragment 32 32] $r0
	adcs	r6, r0
	adds	r1, r7, r1
	adcs	r6, r2
	adds	r1, r1, r5
.Ltmp348:
	@DEBUG_VALUE: mbedtls_internal_sha512_process:temp1 <- [DW_OP_LLVM_fragment 0 32] $r1
	str	r1, [sp, #84]                   @ 4-byte Spill
	ldr	r0, [sp, #160]                  @ 4-byte Reload
.Ltmp349:
	adcs	r6, r0
.Ltmp350:
	@DEBUG_VALUE: mbedtls_internal_sha512_process:temp1 <- [DW_OP_LLVM_fragment 32 32] $r6
	ldr	r0, [sp, #164]                  @ 4-byte Reload
.Ltmp351:
	@DEBUG_VALUE: mbedtls_internal_sha512_process:temp2 <- [DW_OP_LLVM_fragment 0 32] $r0
	adds	r3, r0, r1
.Ltmp352:
	@DEBUG_VALUE: mbedtls_internal_sha512_process:temp1 <- [DW_OP_plus_uconst 84, DW_OP_LLVM_fragment 0 32] [$sp+0]
	@DEBUG_VALUE: mbedtls_internal_sha512_process:B <- [DW_OP_LLVM_fragment 0 32] $r3
	.loc	2 0 9                           @ ../../../ThirdParty/mbedTLS/library/sha512.c:0:9
	ldr	r0, [sp, #148]                  @ 4-byte Reload
.Ltmp353:
	@DEBUG_VALUE: mbedtls_internal_sha512_process:temp2 <- [DW_OP_LLVM_fragment 32 32] $r0
	.loc	2 281 9                         @ ../../../ThirdParty/mbedTLS/library/sha512.c:281:9
	adcs	r0, r6
.Ltmp354:
	@DEBUG_VALUE: mbedtls_internal_sha512_process:B <- [DW_OP_LLVM_fragment 32 32] $r0
	.loc	2 283 9 is_stmt 1               @ ../../../ThirdParty/mbedTLS/library/sha512.c:283:9
	mov	r1, r0
	ldr	r2, [sp, #140]                  @ 4-byte Reload
.Ltmp355:
	@DEBUG_VALUE: mbedtls_internal_sha512_process:C <- [DW_OP_LLVM_fragment 32 32] $r2
	ands	r1, r2
	mov	r7, r0
.Ltmp356:
	@DEBUG_VALUE: mbedtls_internal_sha512_process:C <- [DW_OP_plus_uconst 140, DW_OP_LLVM_fragment 32 32] [$sp+0]
	orrs	r7, r2
.Ltmp357:
	@DEBUG_VALUE: mbedtls_internal_sha512_process:D <- [DW_OP_plus_uconst 144, DW_OP_LLVM_fragment 32 32] [$sp+0]
	@DEBUG_VALUE: mbedtls_internal_sha512_process:D <- [DW_OP_LLVM_fragment 32 32] undef
	ldr	r2, [sp, #144]                  @ 4-byte Reload
	ands	r7, r2
	orrs	r7, r1
	lsls	r1, r0, #30
	lsrs	r2, r3, #2
	adds	r1, r1, r2
	lsrs	r2, r0, #28
	lsls	r5, r3, #4
	adds	r2, r2, r5
	eors	r2, r1
	lsls	r1, r0, #25
	lsrs	r5, r3, #7
	adds	r1, r1, r5
	eors	r1, r2
	str	r1, [sp, #164]                  @ 4-byte Spill
	lsrs	r1, r0, #2
	lsls	r2, r3, #30
	adds	r1, r1, r2
	lsls	r2, r0, #4
	lsrs	r5, r3, #28
	adds	r2, r5, r2
	eors	r2, r1
	str	r0, [sp, #148]                  @ 4-byte Spill
.Ltmp358:
	@DEBUG_VALUE: mbedtls_internal_sha512_process:B <- [DW_OP_plus_uconst 148, DW_OP_LLVM_fragment 32 32] [$sp+0]
	lsrs	r1, r0, #7
	lsls	r5, r3, #25
	adds	r1, r1, r5
	eors	r1, r2
	mov	r2, r3
	ldr	r0, [sp, #108]                  @ 4-byte Reload
.Ltmp359:
	@DEBUG_VALUE: mbedtls_internal_sha512_process:C <- [DW_OP_LLVM_fragment 0 32] $r0
	ands	r2, r0
	str	r3, [sp, #120]                  @ 4-byte Spill
.Ltmp360:
	@DEBUG_VALUE: mbedtls_internal_sha512_process:B <- [DW_OP_plus_uconst 120, DW_OP_LLVM_fragment 0 32] [$sp+0]
	@DEBUG_VALUE: mbedtls_internal_sha512_process:C <- [DW_OP_plus_uconst 108, DW_OP_LLVM_fragment 0 32] [$sp+0]
	orrs	r3, r0
.Ltmp361:
	@DEBUG_VALUE: mbedtls_internal_sha512_process:D <- [DW_OP_plus_uconst 112, DW_OP_LLVM_fragment 0 32] [$sp+0]
	@DEBUG_VALUE: mbedtls_internal_sha512_process:D <- [DW_OP_LLVM_fragment 0 32] undef
	ldr	r0, [sp, #112]                  @ 4-byte Reload
	ands	r3, r0
	orrs	r3, r2
	adds	r0, r1, r3
.Ltmp362:
	@DEBUG_VALUE: mbedtls_internal_sha512_process:temp2 <- [DW_OP_LLVM_fragment 0 32] $r0
	str	r0, [sp, #160]                  @ 4-byte Spill
.Ltmp363:
	@DEBUG_VALUE: mbedtls_internal_sha512_process:temp2 <- [DW_OP_plus_uconst 160, DW_OP_LLVM_fragment 0 32] [$sp+0]
	@DEBUG_VALUE: mbedtls_internal_sha512_process:temp2 <- [DW_OP_plus_uconst 160, DW_OP_LLVM_fragment 0 32] [$sp+0]
	@DEBUG_VALUE: mbedtls_internal_sha512_process:temp2 <- [DW_OP_plus_uconst 160, DW_OP_LLVM_fragment 0 32] [$sp+0]
	ldr	r0, [sp, #164]                  @ 4-byte Reload
	adcs	r0, r7
.Ltmp364:
	@DEBUG_VALUE: mbedtls_internal_sha512_process:temp2 <- [DW_OP_LLVM_fragment 32 32] $r0
	.loc	2 281 9                         @ ../../../ThirdParty/mbedTLS/library/sha512.c:281:9
	str	r0, [sp, #164]                  @ 4-byte Spill
.Ltmp365:
	@DEBUG_VALUE: mbedtls_internal_sha512_process:temp2 <- [DW_OP_plus_uconst 164, DW_OP_LLVM_fragment 32 32] [$sp+0]
	@DEBUG_VALUE: mbedtls_internal_sha512_process:temp2 <- [DW_OP_plus_uconst 164, DW_OP_LLVM_fragment 32 32] [$sp+0]
	@DEBUG_VALUE: mbedtls_internal_sha512_process:temp2 <- [DW_OP_plus_uconst 164, DW_OP_LLVM_fragment 32 32] [$sp+0]
	ldr	r1, [sp, #100]                  @ 4-byte Reload
.Ltmp366:
	@DEBUG_VALUE: mbedtls_internal_sha512_process:F <- [DW_OP_LLVM_fragment 0 32] $r1
	ldr	r0, [sp, #84]                   @ 4-byte Reload
.Ltmp367:
	@DEBUG_VALUE: mbedtls_internal_sha512_process:temp1 <- [DW_OP_LLVM_fragment 0 32] $r0
	adds	r3, r0, r1
.Ltmp368:
	@DEBUG_VALUE: mbedtls_internal_sha512_process:F <- [DW_OP_LLVM_fragment 0 32] $r3
	ldr	r1, [sp, #132]                  @ 4-byte Reload
.Ltmp369:
	@DEBUG_VALUE: mbedtls_internal_sha512_process:F <- [DW_OP_LLVM_fragment 32 32] $r1
	adcs	r6, r1
.Ltmp370:
	@DEBUG_VALUE: mbedtls_internal_sha512_process:F <- [DW_OP_LLVM_fragment 32 32] $r6
	.loc	2 283 9                         @ ../../../ThirdParty/mbedTLS/library/sha512.c:283:9
	lsrs	r1, r6, #18
	lsls	r2, r3, #14
	adds	r1, r1, r2
.Ltmp371:
	@DEBUG_VALUE: mbedtls_internal_sha512_process:i <- [DW_OP_constu 7, DW_OP_or, DW_OP_stack_value] undef
	lsrs	r2, r6, #14
	lsls	r5, r3, #18
	adds	r2, r2, r5
	eors	r2, r1
	lsls	r1, r6, #23
	lsrs	r5, r3, #9
	adds	r0, r1, r5
.Ltmp372:
	eors	r0, r2
	str	r0, [sp, #84]                   @ 4-byte Spill
	lsls	r1, r6, #14
	lsrs	r2, r3, #18
	adds	r1, r2, r1
	lsls	r2, r6, #18
	lsrs	r5, r3, #14
	adds	r5, r5, r2
	eors	r5, r1
	lsrs	r1, r6, #9
	lsls	r2, r3, #23
	adds	r2, r1, r2
	eors	r2, r5
	@DEBUG_VALUE: mbedtls_internal_sha512_process:G <- [DW_OP_plus_uconst 116, DW_OP_LLVM_fragment 32 32] [$sp+0]
.Ltmp373:
	@DEBUG_VALUE: mbedtls_internal_sha512_process:G <- [DW_OP_LLVM_fragment 32 32] undef
	ldr	r1, [sp, #116]                  @ 4-byte Reload
	ldr	r0, [sp, #104]                  @ 4-byte Reload
.Ltmp374:
	@DEBUG_VALUE: mbedtls_internal_sha512_process:H <- [DW_OP_LLVM_fragment 32 32] $r0
	eors	r1, r0
	ands	r1, r6
.Ltmp375:
	@DEBUG_VALUE: mbedtls_internal_sha512_process:H <- [DW_OP_plus_uconst 104, DW_OP_LLVM_fragment 32 32] [$sp+0]
	eors	r1, r0
	str	r4, [sp, #132]                  @ 4-byte Spill
.Ltmp376:
	@DEBUG_VALUE: mbedtls_internal_sha512_process:G <- [DW_OP_plus_uconst 132, DW_OP_LLVM_fragment 0 32] [$sp+0]
	mov	r5, r4
	ldr	r0, [sp, #96]                   @ 4-byte Reload
.Ltmp377:
	@DEBUG_VALUE: mbedtls_internal_sha512_process:H <- [DW_OP_LLVM_fragment 0 32] $r0
	eors	r5, r0
	str	r3, [sp, #100]                  @ 4-byte Spill
.Ltmp378:
	@DEBUG_VALUE: mbedtls_internal_sha512_process:F <- [DW_OP_plus_uconst 100, DW_OP_LLVM_fragment 0 32] [$sp+0]
	ands	r5, r3
.Ltmp379:
	@DEBUG_VALUE: mbedtls_internal_sha512_process:H <- [DW_OP_plus_uconst 96, DW_OP_LLVM_fragment 0 32] [$sp+0]
	eors	r5, r0
	ldr	r0, [sp, #156]                  @ 4-byte Reload
	ldr	r3, [r0, #60]
	str	r3, [sp, #80]                   @ 4-byte Spill
	ldr	r4, [sp, #152]                  @ 4-byte Reload
	ldr	r3, [r4, #60]
	ldr	r0, [r0, #56]
	ldr	r7, [r4, #56]
	adds	r7, r7, r0
	ldr	r0, [sp, #80]                   @ 4-byte Reload
	adcs	r3, r0
	ldr	r0, [sp, #124]                  @ 4-byte Reload
.Ltmp380:
	@DEBUG_VALUE: mbedtls_internal_sha512_process:A <- [DW_OP_LLVM_fragment 0 32] $r0
	adds	r7, r7, r0
	ldr	r0, [sp, #92]                   @ 4-byte Reload
.Ltmp381:
	@DEBUG_VALUE: mbedtls_internal_sha512_process:A <- [DW_OP_LLVM_fragment 32 32] $r0
	adcs	r3, r0
	adds	r5, r7, r5
	adcs	r3, r1
	adds	r1, r5, r2
.Ltmp382:
	@DEBUG_VALUE: mbedtls_internal_sha512_process:temp1 <- [DW_OP_LLVM_fragment 0 32] $r1
	ldr	r0, [sp, #84]                   @ 4-byte Reload
.Ltmp383:
	adcs	r3, r0
.Ltmp384:
	@DEBUG_VALUE: mbedtls_internal_sha512_process:temp1 <- [DW_OP_LLVM_fragment 32 32] $r3
	ldr	r0, [sp, #160]                  @ 4-byte Reload
.Ltmp385:
	@DEBUG_VALUE: mbedtls_internal_sha512_process:temp2 <- [DW_OP_LLVM_fragment 0 32] $r0
	adds	r0, r0, r1
.Ltmp386:
	@DEBUG_VALUE: mbedtls_internal_sha512_process:A <- [DW_OP_LLVM_fragment 0 32] $r0
	.loc	2 0 9 is_stmt 0                 @ ../../../ThirdParty/mbedTLS/library/sha512.c:0:9
	ldr	r5, [sp, #164]                  @ 4-byte Reload
.Ltmp387:
	@DEBUG_VALUE: mbedtls_internal_sha512_process:temp2 <- [DW_OP_LLVM_fragment 32 32] $r5
	.loc	2 283 9                         @ ../../../ThirdParty/mbedTLS/library/sha512.c:283:9
	adcs	r5, r3
.Ltmp388:
	@DEBUG_VALUE: mbedtls_internal_sha512_process:A <- [DW_OP_LLVM_fragment 32 32] $r5
	@DEBUG_VALUE: mbedtls_internal_sha512_process:A <- [DW_OP_LLVM_fragment 32 32] $r5
	ldr	r2, [sp, #136]                  @ 4-byte Reload
.Ltmp389:
	@DEBUG_VALUE: mbedtls_internal_sha512_process:E <- [DW_OP_LLVM_fragment 0 32] $r2
	adds	r7, r1, r2
.Ltmp390:
	@DEBUG_VALUE: mbedtls_internal_sha512_process:E <- [DW_OP_LLVM_fragment 0 32] $r7
	ldr	r1, [sp, #128]                  @ 4-byte Reload
.Ltmp391:
	adcs	r3, r1
.Ltmp392:
	@DEBUG_VALUE: mbedtls_internal_sha512_process:E <- [DW_OP_LLVM_fragment 32 32] $r3
	.loc	2 0 9                           @ ../../../ThirdParty/mbedTLS/library/sha512.c:0:9
	str	r3, [sp, #136]                  @ 4-byte Spill
.Ltmp393:
	@DEBUG_VALUE: mbedtls_internal_sha512_process:E <- [DW_OP_plus_uconst 136, DW_OP_LLVM_fragment 32 32] [$sp+0]
	@DEBUG_VALUE: mbedtls_internal_sha512_process:E <- [DW_OP_plus_uconst 136, DW_OP_LLVM_fragment 32 32] [$sp+0]
	@DEBUG_VALUE: mbedtls_internal_sha512_process:E <- [DW_OP_plus_uconst 136, DW_OP_LLVM_fragment 32 32] [$sp+0]
	ldr	r1, [sp, #72]                   @ 4-byte Reload
.Ltmp394:
	.loc	2 286 14 is_stmt 1              @ ../../../ThirdParty/mbedTLS/library/sha512.c:286:14
	adds	r1, #8
.Ltmp395:
	@DEBUG_VALUE: mbedtls_internal_sha512_process:i <- [DW_OP_plus_uconst 8, DW_OP_stack_value] undef
	ldr	r2, [sp, #88]                   @ 4-byte Reload
	adds	r2, #64
	str	r2, [sp, #88]                   @ 4-byte Spill
	str	r1, [sp, #72]                   @ 4-byte Spill
.Ltmp396:
	.loc	2 285 5                         @ ../../../ThirdParty/mbedTLS/library/sha512.c:285:5
	cmp	r1, #72
	bhs	.LBB5_8
	b	.LBB5_5
.Ltmp397:
.LBB5_8:
	@DEBUG_VALUE: mbedtls_internal_sha512_process:E <- [DW_OP_LLVM_fragment 0 32] $r7
	@DEBUG_VALUE: mbedtls_internal_sha512_process:F <- [DW_OP_LLVM_fragment 32 32] $r6
	@DEBUG_VALUE: mbedtls_internal_sha512_process:A <- [DW_OP_LLVM_fragment 32 32] $r5
	@DEBUG_VALUE: mbedtls_internal_sha512_process:A <- [DW_OP_LLVM_fragment 0 32] $r0
	@DEBUG_VALUE: mbedtls_internal_sha512_process:B <- [DW_OP_plus_uconst 120, DW_OP_LLVM_fragment 0 32] [$sp+0]
	@DEBUG_VALUE: mbedtls_internal_sha512_process:B <- [DW_OP_plus_uconst 148, DW_OP_LLVM_fragment 32 32] [$sp+0]
	@DEBUG_VALUE: mbedtls_internal_sha512_process:C <- [DW_OP_plus_uconst 108, DW_OP_LLVM_fragment 0 32] [$sp+0]
	@DEBUG_VALUE: mbedtls_internal_sha512_process:C <- [DW_OP_plus_uconst 140, DW_OP_LLVM_fragment 32 32] [$sp+0]
	@DEBUG_VALUE: mbedtls_internal_sha512_process:E <- [DW_OP_plus_uconst 136, DW_OP_LLVM_fragment 32 32] [$sp+0]
	@DEBUG_VALUE: mbedtls_internal_sha512_process:F <- [DW_OP_plus_uconst 100, DW_OP_LLVM_fragment 0 32] [$sp+0]
	@DEBUG_VALUE: mbedtls_internal_sha512_process:G <- [DW_OP_plus_uconst 132, DW_OP_LLVM_fragment 0 32] [$sp+0]
	@DEBUG_VALUE: mbedtls_internal_sha512_process:H <- [DW_OP_plus_uconst 96, DW_OP_LLVM_fragment 0 32] [$sp+0]
	@DEBUG_VALUE: mbedtls_internal_sha512_process:H <- [DW_OP_plus_uconst 104, DW_OP_LLVM_fragment 32 32] [$sp+0]
	@DEBUG_VALUE: mbedtls_internal_sha512_process:ctx <- [DW_OP_plus_uconst 68] [$sp+0]
	@DEBUG_VALUE: mbedtls_internal_sha512_process:data <- [DW_OP_LLVM_entry_value 1] $r1
	.loc	2 289 19                        @ ../../../ThirdParty/mbedTLS/library/sha512.c:289:19
	ldr	r1, [sp, #28]                   @ 4-byte Reload
	ldr	r2, [sp, #120]                  @ 4-byte Reload
	adds	r1, r2, r1
	str	r1, [sp, #164]                  @ 4-byte Spill
	ldr	r1, [sp, #8]                    @ 4-byte Reload
	ldr	r2, [sp, #148]                  @ 4-byte Reload
	adcs	r2, r1
	str	r2, [sp, #148]                  @ 4-byte Spill
	.loc	2 290 19                        @ ../../../ThirdParty/mbedTLS/library/sha512.c:290:19
	ldr	r1, [sp, #4]                    @ 4-byte Reload
	ldr	r2, [sp, #108]                  @ 4-byte Reload
	adds	r4, r2, r1
	ldr	r1, [sp, #12]                   @ 4-byte Reload
	str	r0, [sp, #92]                   @ 4-byte Spill
.Ltmp398:
	@DEBUG_VALUE: mbedtls_internal_sha512_process:A <- [DW_OP_plus_uconst 92, DW_OP_LLVM_fragment 0 32] [$sp+0]
	@DEBUG_VALUE: mbedtls_internal_sha512_process:A <- [DW_OP_plus_uconst 92, DW_OP_LLVM_fragment 0 32] [$sp+0]
	ldr	r0, [sp, #140]                  @ 4-byte Reload
	adcs	r0, r1
	str	r0, [sp, #140]                  @ 4-byte Spill
	.loc	2 291 19                        @ ../../../ThirdParty/mbedTLS/library/sha512.c:291:19
	ldr	r1, [sp, #32]                   @ 4-byte Reload
	ldr	r2, [sp, #112]                  @ 4-byte Reload
	adds	r0, r2, r1
	str	r0, [sp, #160]                  @ 4-byte Spill
	ldr	r1, [sp, #16]                   @ 4-byte Reload
	ldr	r0, [sp, #144]                  @ 4-byte Reload
	adcs	r0, r1
	str	r0, [sp, #144]                  @ 4-byte Spill
	.loc	2 292 19                        @ ../../../ThirdParty/mbedTLS/library/sha512.c:292:19
	ldr	r1, [sp, #36]                   @ 4-byte Reload
	adds	r0, r7, r1
	str	r0, [sp, #156]                  @ 4-byte Spill
	ldr	r1, [sp, #44]                   @ 4-byte Reload
	ldr	r3, [sp, #136]                  @ 4-byte Reload
	adcs	r3, r1
	.loc	2 293 19                        @ ../../../ThirdParty/mbedTLS/library/sha512.c:293:19
	ldr	r1, [sp, #40]                   @ 4-byte Reload
	ldr	r2, [sp, #100]                  @ 4-byte Reload
	adds	r0, r2, r1
	str	r0, [sp, #152]                  @ 4-byte Spill
	ldr	r1, [sp, #52]                   @ 4-byte Reload
	adcs	r6, r1
.Ltmp399:
	.loc	2 294 19                        @ ../../../ThirdParty/mbedTLS/library/sha512.c:294:19
	ldr	r1, [sp, #48]                   @ 4-byte Reload
	ldr	r2, [sp, #132]                  @ 4-byte Reload
	adds	r1, r2, r1
	ldr	r2, [sp, #60]                   @ 4-byte Reload
	ldr	r0, [sp, #116]                  @ 4-byte Reload
	adcs	r0, r2
	.loc	2 295 19                        @ ../../../ThirdParty/mbedTLS/library/sha512.c:295:19
	ldr	r2, [sp, #56]                   @ 4-byte Reload
	ldr	r7, [sp, #96]                   @ 4-byte Reload
.Ltmp400:
	adds	r7, r7, r2
	ldr	r2, [sp, #68]                   @ 4-byte Reload
	str	r7, [r2, #72]
	.loc	2 294 19                        @ ../../../ThirdParty/mbedTLS/library/sha512.c:294:19
	str	r1, [r2, #64]
	.loc	2 293 19                        @ ../../../ThirdParty/mbedTLS/library/sha512.c:293:19
	ldr	r1, [sp, #152]                  @ 4-byte Reload
	str	r1, [r2, #56]
	.loc	2 292 19                        @ ../../../ThirdParty/mbedTLS/library/sha512.c:292:19
	ldr	r1, [sp, #156]                  @ 4-byte Reload
	str	r1, [r2, #48]
	.loc	2 291 19                        @ ../../../ThirdParty/mbedTLS/library/sha512.c:291:19
	ldr	r1, [sp, #160]                  @ 4-byte Reload
	str	r1, [r2, #40]
	.loc	2 290 19                        @ ../../../ThirdParty/mbedTLS/library/sha512.c:290:19
	str	r4, [r2, #32]
	.loc	2 289 19                        @ ../../../ThirdParty/mbedTLS/library/sha512.c:289:19
	ldr	r1, [sp, #164]                  @ 4-byte Reload
	str	r1, [r2, #24]
	.loc	2 295 19                        @ ../../../ThirdParty/mbedTLS/library/sha512.c:295:19
	ldr	r1, [sp, #64]                   @ 4-byte Reload
	ldr	r7, [sp, #104]                  @ 4-byte Reload
	adcs	r7, r1
	.loc	2 288 19                        @ ../../../ThirdParty/mbedTLS/library/sha512.c:288:19
	ldr	r1, [sp, #20]                   @ 4-byte Reload
	ldr	r4, [sp, #92]                   @ 4-byte Reload
.Ltmp401:
	@DEBUG_VALUE: mbedtls_internal_sha512_process:A <- [DW_OP_LLVM_fragment 0 32] $r4
	@DEBUG_VALUE: mbedtls_internal_sha512_process:A <- [DW_OP_LLVM_fragment 0 32] $r4
	adds	r1, r4, r1
	str	r1, [r2, #16]
	.loc	2 295 19                        @ ../../../ThirdParty/mbedTLS/library/sha512.c:295:19
	str	r7, [r2, #76]
	.loc	2 294 19                        @ ../../../ThirdParty/mbedTLS/library/sha512.c:294:19
	str	r0, [r2, #68]
	.loc	2 293 19                        @ ../../../ThirdParty/mbedTLS/library/sha512.c:293:19
	str	r6, [r2, #60]
	.loc	2 292 19                        @ ../../../ThirdParty/mbedTLS/library/sha512.c:292:19
	str	r3, [r2, #52]
	.loc	2 291 19                        @ ../../../ThirdParty/mbedTLS/library/sha512.c:291:19
	ldr	r0, [sp, #144]                  @ 4-byte Reload
	str	r0, [r2, #44]
	.loc	2 290 19                        @ ../../../ThirdParty/mbedTLS/library/sha512.c:290:19
	ldr	r0, [sp, #140]                  @ 4-byte Reload
	str	r0, [r2, #36]
	.loc	2 289 19                        @ ../../../ThirdParty/mbedTLS/library/sha512.c:289:19
	ldr	r0, [sp, #148]                  @ 4-byte Reload
	str	r0, [r2, #28]
	.loc	2 288 19                        @ ../../../ThirdParty/mbedTLS/library/sha512.c:288:19
	ldr	r0, [sp, #24]                   @ 4-byte Reload
	adcs	r5, r0
.Ltmp402:
	str	r5, [r2, #20]
	movs	r0, #0
	.loc	2 297 5                         @ ../../../ThirdParty/mbedTLS/library/sha512.c:297:5
	add	sp, #508
.Ltmp403:
	add	sp, #304
	pop	{r4, r5, r6, r7, pc}
.Ltmp404:
@ %bb.9:
.Lfunc_end5:
	.size	mbedtls_internal_sha512_process, .Lfunc_end5-mbedtls_internal_sha512_process
	.cfi_endproc
	.cantunwind
	.fnend
                                        @ -- End function
	.section	.text.mbedtls_sha512_process,"ax",%progbits
	.hidden	mbedtls_sha512_process          @ -- Begin function mbedtls_sha512_process
	.globl	mbedtls_sha512_process
	.p2align	1
	.type	mbedtls_sha512_process,%function
	.code	16                              @ @mbedtls_sha512_process
	.thumb_func
mbedtls_sha512_process:
.Lfunc_begin6:
	.loc	2 303 0                         @ ../../../ThirdParty/mbedTLS/library/sha512.c:303:0
	.fnstart
	.cfi_startproc
@ %bb.0:
	@DEBUG_VALUE: mbedtls_sha512_process:ctx <- $r0
	@DEBUG_VALUE: mbedtls_sha512_process:ctx <- $r0
	@DEBUG_VALUE: mbedtls_sha512_process:data <- $r1
	@DEBUG_VALUE: mbedtls_sha512_process:data <- $r1
	@DEBUG_VALUE: mbedtls_sha512_process:data <- $r1
	@DEBUG_VALUE: mbedtls_sha512_process:ctx <- $r0
	.save	{r7, lr}
	push	{r7, lr}
	.cfi_def_cfa_offset 8
	.cfi_offset lr, -4
	.cfi_offset r7, -8
.Ltmp405:
	.loc	2 304 5 prologue_end            @ ../../../ThirdParty/mbedTLS/library/sha512.c:304:5
	bl	mbedtls_internal_sha512_process
.Ltmp406:
	@DEBUG_VALUE: mbedtls_sha512_process:data <- [DW_OP_LLVM_entry_value 1] $r1
	@DEBUG_VALUE: mbedtls_sha512_process:ctx <- [DW_OP_LLVM_entry_value 1] $r0
	.loc	2 305 1                         @ ../../../ThirdParty/mbedTLS/library/sha512.c:305:1
	pop	{r7, pc}
.Ltmp407:
.Lfunc_end6:
	.size	mbedtls_sha512_process, .Lfunc_end6-mbedtls_sha512_process
	.cfi_endproc
	.cantunwind
	.fnend
                                        @ -- End function
	.section	.text.mbedtls_sha512_update_ret,"ax",%progbits
	.hidden	mbedtls_sha512_update_ret       @ -- Begin function mbedtls_sha512_update_ret
	.globl	mbedtls_sha512_update_ret
	.p2align	1
	.type	mbedtls_sha512_update_ret,%function
	.code	16                              @ @mbedtls_sha512_update_ret
	.thumb_func
mbedtls_sha512_update_ret:
.Lfunc_begin7:
	.loc	2 315 0                         @ ../../../ThirdParty/mbedTLS/library/sha512.c:315:0
	.fnstart
	.cfi_startproc
@ %bb.0:
	@DEBUG_VALUE: mbedtls_sha512_update_ret:ctx <- $r0
	@DEBUG_VALUE: mbedtls_sha512_update_ret:input <- $r1
	@DEBUG_VALUE: mbedtls_sha512_update_ret:ilen <- $r2
	@DEBUG_VALUE: mbedtls_sha512_update_ret:ilen <- $r2
	@DEBUG_VALUE: mbedtls_sha512_update_ret:input <- $r1
	@DEBUG_VALUE: mbedtls_sha512_update_ret:ctx <- $r0
	.save	{r4, r5, r6, r7, lr}
	push	{r4, r5, r6, r7, lr}
	.cfi_def_cfa_offset 20
	.cfi_offset lr, -4
	.cfi_offset r7, -8
	.cfi_offset r6, -12
	.cfi_offset r5, -16
	.cfi_offset r4, -20
	.pad	#12
	sub	sp, #12
	.cfi_def_cfa_offset 32
.Ltmp408:
	.loc	2 323 9 prologue_end            @ ../../../ThirdParty/mbedTLS/library/sha512.c:323:9
	cbz	r2, .LBB7_10
.Ltmp409:
@ %bb.1:
	@DEBUG_VALUE: mbedtls_sha512_update_ret:ilen <- $r2
	@DEBUG_VALUE: mbedtls_sha512_update_ret:input <- $r1
	@DEBUG_VALUE: mbedtls_sha512_update_ret:ctx <- $r0
	.loc	2 0 9 is_stmt 0                 @ ../../../ThirdParty/mbedTLS/library/sha512.c:0:9
	mov	r4, r2
.Ltmp410:
	@DEBUG_VALUE: mbedtls_sha512_update_ret:ilen <- $r4
	mov	r5, r1
.Ltmp411:
	@DEBUG_VALUE: mbedtls_sha512_update_ret:input <- $r5
	mov	r6, r0
.Ltmp412:
	@DEBUG_VALUE: mbedtls_sha512_update_ret:ctx <- $r6
	.loc	2 326 28 is_stmt 1              @ ../../../ThirdParty/mbedTLS/library/sha512.c:326:28
	ldr	r1, [r0]
	movs	r0, #127
	.loc	2 326 12 is_stmt 0              @ ../../../ThirdParty/mbedTLS/library/sha512.c:326:12
	ands	r0, r1
.Ltmp413:
	@DEBUG_VALUE: mbedtls_sha512_update_ret:fill <- undef
	@DEBUG_VALUE: mbedtls_sha512_update_ret:left <- $r0
	.loc	2 0 12                          @ ../../../ThirdParty/mbedTLS/library/sha512.c:0:12
	movs	r7, #0
	.loc	2 329 19 is_stmt 1              @ ../../../ThirdParty/mbedTLS/library/sha512.c:329:19
	adds	r1, r1, r2
	str	r1, [r6]
	.loc	2 326 28                        @ ../../../ThirdParty/mbedTLS/library/sha512.c:326:28
	ldr	r1, [r6, #4]
	.loc	2 329 19                        @ ../../../ThirdParty/mbedTLS/library/sha512.c:329:19
	adcs	r1, r7
	str	r1, [r6, #4]
	mov	r1, r7
	adcs	r1, r7
	.loc	2 331 9                         @ ../../../ThirdParty/mbedTLS/library/sha512.c:331:9
	cmp	r1, #1
	bne	.LBB7_3
.Ltmp414:
@ %bb.2:
	@DEBUG_VALUE: mbedtls_sha512_update_ret:ctx <- $r6
	@DEBUG_VALUE: mbedtls_sha512_update_ret:input <- $r5
	@DEBUG_VALUE: mbedtls_sha512_update_ret:ilen <- $r4
	@DEBUG_VALUE: mbedtls_sha512_update_ret:left <- $r0
	.loc	2 332 22                        @ ../../../ThirdParty/mbedTLS/library/sha512.c:332:22
	ldr	r1, [r6, #8]
	movs	r2, #0
	adds	r1, r1, #1
	str	r1, [r6, #8]
	ldr	r1, [r6, #12]
	adcs	r1, r2
	str	r1, [r6, #12]
.Ltmp415:
.LBB7_3:
	@DEBUG_VALUE: mbedtls_sha512_update_ret:ctx <- $r6
	@DEBUG_VALUE: mbedtls_sha512_update_ret:input <- $r5
	@DEBUG_VALUE: mbedtls_sha512_update_ret:ilen <- $r4
	@DEBUG_VALUE: mbedtls_sha512_update_ret:left <- $r0
	@DEBUG_VALUE: mbedtls_sha512_update_ret:fill <- undef
	.loc	2 334 14                        @ ../../../ThirdParty/mbedTLS/library/sha512.c:334:14
	cbz	r0, .LBB7_6
.Ltmp416:
@ %bb.4:
	@DEBUG_VALUE: mbedtls_sha512_update_ret:ctx <- $r6
	@DEBUG_VALUE: mbedtls_sha512_update_ret:input <- $r5
	@DEBUG_VALUE: mbedtls_sha512_update_ret:ilen <- $r4
	@DEBUG_VALUE: mbedtls_sha512_update_ret:left <- $r0
	.loc	2 0 14 is_stmt 0                @ ../../../ThirdParty/mbedTLS/library/sha512.c:0:14
	str	r7, [sp, #8]                    @ 4-byte Spill
	movs	r1, #128
	subs	r7, r1, r0
.Ltmp417:
	@DEBUG_VALUE: mbedtls_sha512_update_ret:fill <- $r7
	.loc	2 334 9                         @ ../../../ThirdParty/mbedTLS/library/sha512.c:334:9
	cmp	r7, r4
	bls	.LBB7_11
.Ltmp418:
@ %bb.5:
	@DEBUG_VALUE: mbedtls_sha512_update_ret:fill <- $r7
	@DEBUG_VALUE: mbedtls_sha512_update_ret:ctx <- $r6
	@DEBUG_VALUE: mbedtls_sha512_update_ret:input <- $r5
	@DEBUG_VALUE: mbedtls_sha512_update_ret:ilen <- $r4
	@DEBUG_VALUE: mbedtls_sha512_update_ret:left <- $r0
	.loc	2 0 0                           @ ../../../ThirdParty/mbedTLS/library/sha512.c:0:0
	mov	r7, r0
.Ltmp419:
	@DEBUG_VALUE: mbedtls_sha512_update_ret:left <- $r7
.LBB7_6:
	@DEBUG_VALUE: mbedtls_sha512_update_ret:ctx <- $r6
	@DEBUG_VALUE: mbedtls_sha512_update_ret:input <- $r5
	@DEBUG_VALUE: mbedtls_sha512_update_ret:ilen <- $r4
	@DEBUG_VALUE: mbedtls_sha512_update_ret:input <- $r5
	@DEBUG_VALUE: mbedtls_sha512_update_ret:ilen <- $r4
	@DEBUG_VALUE: mbedtls_sha512_update_ret:left <- $r7
	.loc	2 346 5 is_stmt 1               @ ../../../ThirdParty/mbedTLS/library/sha512.c:346:5
	cmp	r4, #128
	blo	.LBB7_8
.Ltmp420:
.LBB7_7:                                @ =>This Inner Loop Header: Depth=1
	@DEBUG_VALUE: mbedtls_sha512_update_ret:left <- $r7
	@DEBUG_VALUE: mbedtls_sha512_update_ret:ctx <- $r6
	@DEBUG_VALUE: mbedtls_sha512_update_ret:input <- $r5
	@DEBUG_VALUE: mbedtls_sha512_update_ret:ilen <- $r4
	@DEBUG_VALUE: mbedtls_sha512_update_ret:input <- $r5
	@DEBUG_VALUE: mbedtls_sha512_update_ret:ilen <- $r4
	.loc	2 348 21                        @ ../../../ThirdParty/mbedTLS/library/sha512.c:348:21
	mov	r0, r6
	mov	r1, r5
	bl	mbedtls_internal_sha512_process
.Ltmp421:
	.loc	2 352 15                        @ ../../../ThirdParty/mbedTLS/library/sha512.c:352:15
	subs	r4, #128
.Ltmp422:
	@DEBUG_VALUE: mbedtls_sha512_update_ret:ret <- 0
	@DEBUG_VALUE: mbedtls_sha512_update_ret:ilen <- $r4
	.loc	2 351 15                        @ ../../../ThirdParty/mbedTLS/library/sha512.c:351:15
	adds	r5, #128
.Ltmp423:
	@DEBUG_VALUE: mbedtls_sha512_update_ret:input <- $r5
	.loc	2 346 5                         @ ../../../ThirdParty/mbedTLS/library/sha512.c:346:5
	cmp	r4, #127
	bhi	.LBB7_7
.Ltmp424:
.LBB7_8:
	@DEBUG_VALUE: mbedtls_sha512_update_ret:left <- $r7
	@DEBUG_VALUE: mbedtls_sha512_update_ret:ctx <- $r6
	@DEBUG_VALUE: mbedtls_sha512_update_ret:input <- $r5
	@DEBUG_VALUE: mbedtls_sha512_update_ret:ilen <- $r4
	@DEBUG_VALUE: mbedtls_sha512_update_ret:input <- $r5
	@DEBUG_VALUE: mbedtls_sha512_update_ret:ilen <- $r4
	.loc	2 355 9                         @ ../../../ThirdParty/mbedTLS/library/sha512.c:355:9
	cbz	r4, .LBB7_10
.Ltmp425:
@ %bb.9:
	@DEBUG_VALUE: mbedtls_sha512_update_ret:left <- $r7
	@DEBUG_VALUE: mbedtls_sha512_update_ret:ctx <- $r6
	@DEBUG_VALUE: mbedtls_sha512_update_ret:input <- $r5
	@DEBUG_VALUE: mbedtls_sha512_update_ret:ilen <- $r4
	.loc	2 356 39                        @ ../../../ThirdParty/mbedTLS/library/sha512.c:356:39
	adds	r0, r6, r7
	adds	r0, #80
	.loc	2 356 9 is_stmt 0               @ ../../../ThirdParty/mbedTLS/library/sha512.c:356:9
	mov	r1, r5
	mov	r2, r4
	bl	__aeabi_memcpy
.Ltmp426:
.LBB7_10:
	.loc	2 0 9                           @ ../../../ThirdParty/mbedTLS/library/sha512.c:0:9
	movs	r0, #0
	.loc	2 359 1 is_stmt 1               @ ../../../ThirdParty/mbedTLS/library/sha512.c:359:1
	add	sp, #12
	pop	{r4, r5, r6, r7, pc}
.LBB7_11:
.Ltmp427:
	@DEBUG_VALUE: mbedtls_sha512_update_ret:fill <- $r7
	@DEBUG_VALUE: mbedtls_sha512_update_ret:ctx <- $r6
	@DEBUG_VALUE: mbedtls_sha512_update_ret:input <- $r5
	@DEBUG_VALUE: mbedtls_sha512_update_ret:ilen <- $r4
	@DEBUG_VALUE: mbedtls_sha512_update_ret:left <- $r0
	.loc	2 336 27                        @ ../../../ThirdParty/mbedTLS/library/sha512.c:336:27
	mov	r1, r6
	adds	r1, #80
	.loc	2 336 39 is_stmt 0              @ ../../../ThirdParty/mbedTLS/library/sha512.c:336:39
	str	r1, [sp, #4]                    @ 4-byte Spill
	adds	r0, r1, r0
.Ltmp428:
	.loc	2 336 9                         @ ../../../ThirdParty/mbedTLS/library/sha512.c:336:9
	mov	r1, r5
	mov	r2, r7
	bl	__aeabi_memcpy
.Ltmp429:
	.loc	2 338 21 is_stmt 1              @ ../../../ThirdParty/mbedTLS/library/sha512.c:338:21
	mov	r0, r6
	ldr	r1, [sp, #4]                    @ 4-byte Reload
	bl	mbedtls_internal_sha512_process
.Ltmp430:
	.loc	2 342 15                        @ ../../../ThirdParty/mbedTLS/library/sha512.c:342:15
	subs	r4, r4, r7
.Ltmp431:
	@DEBUG_VALUE: mbedtls_sha512_update_ret:ilen <- [DW_OP_LLVM_entry_value 1] $r2
	@DEBUG_VALUE: mbedtls_sha512_update_ret:ret <- 0
	@DEBUG_VALUE: mbedtls_sha512_update_ret:ilen <- $r4
	.loc	2 341 15                        @ ../../../ThirdParty/mbedTLS/library/sha512.c:341:15
	adds	r5, r5, r7
.Ltmp432:
	@DEBUG_VALUE: mbedtls_sha512_update_ret:input <- [DW_OP_LLVM_entry_value 1] $r1
	@DEBUG_VALUE: mbedtls_sha512_update_ret:left <- 0
	@DEBUG_VALUE: mbedtls_sha512_update_ret:input <- $r5
	.loc	2 0 15 is_stmt 0                @ ../../../ThirdParty/mbedTLS/library/sha512.c:0:15
	ldr	r7, [sp, #8]                    @ 4-byte Reload
.Ltmp433:
	@DEBUG_VALUE: mbedtls_sha512_update_ret:input <- $r5
	@DEBUG_VALUE: mbedtls_sha512_update_ret:ilen <- $r4
	@DEBUG_VALUE: mbedtls_sha512_update_ret:left <- $r7
	.loc	2 346 5 is_stmt 1               @ ../../../ThirdParty/mbedTLS/library/sha512.c:346:5
	cmp	r4, #128
	bhs	.LBB7_7
	b	.LBB7_8
.Ltmp434:
.Lfunc_end7:
	.size	mbedtls_sha512_update_ret, .Lfunc_end7-mbedtls_sha512_update_ret
	.cfi_endproc
	.cantunwind
	.fnend
                                        @ -- End function
	.section	.text.mbedtls_sha512_update,"ax",%progbits
	.hidden	mbedtls_sha512_update           @ -- Begin function mbedtls_sha512_update
	.globl	mbedtls_sha512_update
	.p2align	1
	.type	mbedtls_sha512_update,%function
	.code	16                              @ @mbedtls_sha512_update
	.thumb_func
mbedtls_sha512_update:
.Lfunc_begin8:
	.loc	2 365 0                         @ ../../../ThirdParty/mbedTLS/library/sha512.c:365:0
	.fnstart
	.cfi_startproc
@ %bb.0:
	@DEBUG_VALUE: mbedtls_sha512_update:ctx <- $r0
	@DEBUG_VALUE: mbedtls_sha512_update:ctx <- $r0
	@DEBUG_VALUE: mbedtls_sha512_update:input <- $r1
	@DEBUG_VALUE: mbedtls_sha512_update:input <- $r1
	@DEBUG_VALUE: mbedtls_sha512_update:ilen <- $r2
	@DEBUG_VALUE: mbedtls_sha512_update:ilen <- $r2
	@DEBUG_VALUE: mbedtls_sha512_update:ilen <- $r2
	@DEBUG_VALUE: mbedtls_sha512_update:input <- $r1
	@DEBUG_VALUE: mbedtls_sha512_update:ctx <- $r0
	.save	{r7, lr}
	push	{r7, lr}
	.cfi_def_cfa_offset 8
	.cfi_offset lr, -4
	.cfi_offset r7, -8
.Ltmp435:
	.loc	2 366 5 prologue_end            @ ../../../ThirdParty/mbedTLS/library/sha512.c:366:5
	bl	mbedtls_sha512_update_ret
.Ltmp436:
	@DEBUG_VALUE: mbedtls_sha512_update:ilen <- [DW_OP_LLVM_entry_value 1] $r2
	@DEBUG_VALUE: mbedtls_sha512_update:input <- [DW_OP_LLVM_entry_value 1] $r1
	@DEBUG_VALUE: mbedtls_sha512_update:ctx <- [DW_OP_LLVM_entry_value 1] $r0
	.loc	2 367 1                         @ ../../../ThirdParty/mbedTLS/library/sha512.c:367:1
	pop	{r7, pc}
.Ltmp437:
.Lfunc_end8:
	.size	mbedtls_sha512_update, .Lfunc_end8-mbedtls_sha512_update
	.cfi_endproc
	.cantunwind
	.fnend
                                        @ -- End function
	.section	.text.mbedtls_sha512_finish_ret,"ax",%progbits
	.hidden	mbedtls_sha512_finish_ret       @ -- Begin function mbedtls_sha512_finish_ret
	.globl	mbedtls_sha512_finish_ret
	.p2align	1
	.type	mbedtls_sha512_finish_ret,%function
	.code	16                              @ @mbedtls_sha512_finish_ret
	.thumb_func
mbedtls_sha512_finish_ret:
.Lfunc_begin9:
	.loc	2 375 0                         @ ../../../ThirdParty/mbedTLS/library/sha512.c:375:0
	.fnstart
	.cfi_startproc
@ %bb.0:
	@DEBUG_VALUE: mbedtls_sha512_finish_ret:ctx <- $r0
	@DEBUG_VALUE: mbedtls_sha512_finish_ret:output <- $r1
	.save	{r4, r5, r6, r7, lr}
	push	{r4, r5, r6, r7, lr}
	.cfi_def_cfa_offset 20
	.cfi_offset lr, -4
	.cfi_offset r7, -8
	.cfi_offset r6, -12
	.cfi_offset r5, -16
	.cfi_offset r4, -20
	.pad	#12
	sub	sp, #12
	.cfi_def_cfa_offset 32
	mov	r5, r1
	mov	r4, r0
.Ltmp438:
	@DEBUG_VALUE: mbedtls_sha512_finish_ret:output <- $r5
	@DEBUG_VALUE: mbedtls_sha512_finish_ret:ctx <- $r4
	.loc	2 386 12 prologue_end           @ ../../../ThirdParty/mbedTLS/library/sha512.c:386:12
	ldr	r1, [r0]
	movs	r0, #127
	ands	r1, r0
.Ltmp439:
	@DEBUG_VALUE: mbedtls_sha512_finish_ret:used <- $r1
	.loc	2 388 10                        @ ../../../ThirdParty/mbedTLS/library/sha512.c:388:10
	mov	r7, r4
	adds	r7, #80
	movs	r2, #128
	.loc	2 388 25 is_stmt 0              @ ../../../ThirdParty/mbedTLS/library/sha512.c:388:25
	strb	r2, [r7, r1]
	.loc	2 388 21                        @ ../../../ThirdParty/mbedTLS/library/sha512.c:388:21
	adds	r2, r1, #1
.Ltmp440:
	@DEBUG_VALUE: mbedtls_sha512_finish_ret:used <- $r2
	.loc	2 0 0                           @ ../../../ThirdParty/mbedTLS/library/sha512.c:0:0
	mov	r6, r4
	adds	r6, #192
	mov	r3, r5
	adds	r3, #32
	.loc	2 390 9 is_stmt 1               @ ../../../ThirdParty/mbedTLS/library/sha512.c:390:9
	cmp	r1, #111
	str	r3, [sp, #8]                    @ 4-byte Spill
	str	r7, [sp, #4]                    @ 4-byte Spill
	bhi	.LBB9_2
.Ltmp441:
@ %bb.1:
	@DEBUG_VALUE: mbedtls_sha512_finish_ret:output <- $r5
	@DEBUG_VALUE: mbedtls_sha512_finish_ret:ctx <- $r4
	@DEBUG_VALUE: mbedtls_sha512_finish_ret:used <- $r2
	.loc	2 0 9 is_stmt 0                 @ ../../../ThirdParty/mbedTLS/library/sha512.c:0:9
	movs	r0, #111
.Ltmp442:
	.loc	2 393 44 is_stmt 1              @ ../../../ThirdParty/mbedTLS/library/sha512.c:393:44
	subs	r1, r0, r1
	.loc	2 393 29 is_stmt 0              @ ../../../ThirdParty/mbedTLS/library/sha512.c:393:29
	adds	r0, r4, r2
	adds	r0, #80
	.loc	2 393 9                         @ ../../../ThirdParty/mbedTLS/library/sha512.c:393:9
	bl	__aeabi_memclr
.Ltmp443:
	.loc	2 0 9                           @ ../../../ThirdParty/mbedTLS/library/sha512.c:0:9
	b	.LBB9_3
.Ltmp444:
.LBB9_2:
	@DEBUG_VALUE: mbedtls_sha512_finish_ret:output <- $r5
	@DEBUG_VALUE: mbedtls_sha512_finish_ret:ctx <- $r4
	@DEBUG_VALUE: mbedtls_sha512_finish_ret:used <- $r2
	.loc	2 398 44 is_stmt 1              @ ../../../ThirdParty/mbedTLS/library/sha512.c:398:44
	eors	r1, r0
	.loc	2 398 29 is_stmt 0              @ ../../../ThirdParty/mbedTLS/library/sha512.c:398:29
	adds	r0, r4, r2
	adds	r0, #80
	.loc	2 398 9                         @ ../../../ThirdParty/mbedTLS/library/sha512.c:398:9
	bl	__aeabi_memclr
.Ltmp445:
	.loc	2 400 21 is_stmt 1              @ ../../../ThirdParty/mbedTLS/library/sha512.c:400:21
	mov	r0, r4
	mov	r1, r7
	bl	mbedtls_internal_sha512_process
.Ltmp446:
	@DEBUG_VALUE: mbedtls_sha512_finish_ret:ret <- 0
	.loc	2 0 21 is_stmt 0                @ ../../../ThirdParty/mbedTLS/library/sha512.c:0:21
	movs	r1, #112
.Ltmp447:
	.loc	2 403 9 is_stmt 1               @ ../../../ThirdParty/mbedTLS/library/sha512.c:403:9
	mov	r0, r7
	bl	__aeabi_memclr8
.Ltmp448:
.LBB9_3:
	@DEBUG_VALUE: mbedtls_sha512_finish_ret:output <- $r5
	@DEBUG_VALUE: mbedtls_sha512_finish_ret:ctx <- $r4
	.loc	2 409 14                        @ ../../../ThirdParty/mbedTLS/library/sha512.c:409:14
	ldr	r0, [r4]
.Ltmp449:
	.loc	2 414 5                         @ ../../../ThirdParty/mbedTLS/library/sha512.c:414:5
	lsls	r1, r0, #3
	strb	r1, [r6, #15]
	lsrs	r1, r0, #5
	strb	r1, [r6, #14]
	lsrs	r1, r0, #13
	strb	r1, [r6, #13]
	lsrs	r1, r0, #21
	strb	r1, [r6, #12]
.Ltmp450:
	.loc	2 409 14                        @ ../../../ThirdParty/mbedTLS/library/sha512.c:409:14
	ldr	r1, [r4, #4]
.Ltmp451:
	.loc	2 414 5                         @ ../../../ThirdParty/mbedTLS/library/sha512.c:414:5
	lsrs	r2, r1, #5
	strb	r2, [r6, #10]
	lsrs	r2, r1, #13
	strb	r2, [r6, #9]
	lsrs	r2, r1, #21
	strb	r2, [r6, #8]
.Ltmp452:
	.loc	2 410 16                        @ ../../../ThirdParty/mbedTLS/library/sha512.c:410:16
	ldr	r2, [r4, #8]
.Ltmp453:
	.loc	2 413 5                         @ ../../../ThirdParty/mbedTLS/library/sha512.c:413:5
	lsrs	r3, r2, #5
	strb	r3, [r6, #6]
	lsrs	r3, r2, #13
	strb	r3, [r6, #5]
	lsrs	r3, r2, #21
	strb	r3, [r6, #4]
.Ltmp454:
	.loc	2 410 16                        @ ../../../ThirdParty/mbedTLS/library/sha512.c:410:16
	ldr	r3, [r4, #12]
	mov	r7, r6
.Ltmp455:
	.loc	2 413 5                         @ ../../../ThirdParty/mbedTLS/library/sha512.c:413:5
	lsrs	r6, r3, #5
	strb	r6, [r7, #2]
	lsrs	r6, r3, #13
	strb	r6, [r7, #1]
.Ltmp456:
	@DEBUG_VALUE: mbedtls_sha512_finish_ret:low <- [DW_OP_constu 3, DW_OP_shl, DW_OP_stack_value] undef
	@DEBUG_VALUE: mbedtls_sha512_finish_ret:high <- undef
	lsrs	r6, r3, #21
	strb	r6, [r7]
.Ltmp457:
	.loc	2 414 5                         @ ../../../ThirdParty/mbedTLS/library/sha512.c:414:5
	lsls	r6, r1, #3
	lsrs	r0, r0, #29
	adds	r0, r0, r6
	strb	r0, [r7, #11]
.Ltmp458:
	.loc	2 409 28                        @ ../../../ThirdParty/mbedTLS/library/sha512.c:409:28
	lsrs	r0, r1, #29
	.loc	2 410 30                        @ ../../../ThirdParty/mbedTLS/library/sha512.c:410:30
	lsls	r1, r2, #3
	.loc	2 410 12 is_stmt 0              @ ../../../ThirdParty/mbedTLS/library/sha512.c:410:12
	adds	r0, r1, r0
.Ltmp459:
	.loc	2 413 5 is_stmt 1               @ ../../../ThirdParty/mbedTLS/library/sha512.c:413:5
	strb	r0, [r7, #7]
.Ltmp460:
	.loc	2 410 30                        @ ../../../ThirdParty/mbedTLS/library/sha512.c:410:30
	lsls	r0, r3, #3
	lsrs	r1, r2, #29
.Ltmp461:
	.loc	2 413 5                         @ ../../../ThirdParty/mbedTLS/library/sha512.c:413:5
	adds	r0, r1, r0
	strb	r0, [r7, #3]
.Ltmp462:
	.loc	2 416 17                        @ ../../../ThirdParty/mbedTLS/library/sha512.c:416:17
	mov	r0, r4
	ldr	r1, [sp, #4]                    @ 4-byte Reload
	bl	mbedtls_internal_sha512_process
.Ltmp463:
	@DEBUG_VALUE: mbedtls_sha512_finish_ret:ret <- 0
	.loc	2 422 5                         @ ../../../ThirdParty/mbedTLS/library/sha512.c:422:5
	ldrb	r0, [r4, #23]
	strb	r0, [r5]
	ldrb	r0, [r4, #22]
	strb	r0, [r5, #1]
	ldrb	r0, [r4, #21]
	strb	r0, [r5, #2]
	ldrb	r0, [r4, #20]
	strb	r0, [r5, #3]
	ldrb	r0, [r4, #19]
	strb	r0, [r5, #4]
	ldrb	r0, [r4, #18]
	strb	r0, [r5, #5]
	ldrb	r0, [r4, #17]
	strb	r0, [r5, #6]
	ldrb	r0, [r4, #16]
	strb	r0, [r5, #7]
.Ltmp464:
	.loc	2 423 5                         @ ../../../ThirdParty/mbedTLS/library/sha512.c:423:5
	ldrb	r0, [r4, #31]
	strb	r0, [r5, #8]
	ldrb	r0, [r4, #30]
	strb	r0, [r5, #9]
	ldrb	r0, [r4, #29]
	strb	r0, [r5, #10]
	ldrb	r0, [r4, #28]
	strb	r0, [r5, #11]
	ldrb	r0, [r4, #27]
	strb	r0, [r5, #12]
	ldrb	r0, [r4, #26]
	strb	r0, [r5, #13]
	ldrb	r0, [r4, #25]
	strb	r0, [r5, #14]
	ldrb	r0, [r4, #24]
	strb	r0, [r5, #15]
	movs	r0, #39
.Ltmp465:
	.loc	2 424 5                         @ ../../../ThirdParty/mbedTLS/library/sha512.c:424:5
	ldrb	r0, [r4, r0]
	strb	r0, [r5, #16]
	movs	r0, #38
	ldrb	r0, [r4, r0]
	strb	r0, [r5, #17]
	movs	r0, #37
	ldrb	r0, [r4, r0]
	strb	r0, [r5, #18]
	movs	r0, #36
	ldrb	r0, [r4, r0]
	strb	r0, [r5, #19]
	movs	r0, #35
	ldrb	r0, [r4, r0]
	strb	r0, [r5, #20]
	movs	r0, #34
	ldrb	r0, [r4, r0]
	strb	r0, [r5, #21]
	movs	r0, #33
	ldrb	r0, [r4, r0]
	strb	r0, [r5, #22]
	movs	r0, #32
	ldrb	r0, [r4, r0]
	strb	r0, [r5, #23]
	movs	r0, #47
.Ltmp466:
	.loc	2 425 5                         @ ../../../ThirdParty/mbedTLS/library/sha512.c:425:5
	ldrb	r0, [r4, r0]
	strb	r0, [r5, #24]
	movs	r0, #46
	ldrb	r0, [r4, r0]
	strb	r0, [r5, #25]
	movs	r0, #45
	ldrb	r0, [r4, r0]
	strb	r0, [r5, #26]
	movs	r0, #44
	ldrb	r0, [r4, r0]
	strb	r0, [r5, #27]
	movs	r0, #43
	ldrb	r0, [r4, r0]
	strb	r0, [r5, #28]
	movs	r0, #42
	ldrb	r0, [r4, r0]
	strb	r0, [r5, #29]
	movs	r0, #41
	ldrb	r0, [r4, r0]
	strb	r0, [r5, #30]
	movs	r0, #40
	ldrb	r0, [r4, r0]
	strb	r0, [r5, #31]
.Ltmp467:
	.loc	2 426 5                         @ ../../../ThirdParty/mbedTLS/library/sha512.c:426:5
	mov	r0, r4
	adds	r0, #48
	ldrb	r1, [r0, #7]
	ldr	r2, [sp, #8]                    @ 4-byte Reload
	strb	r1, [r2]
	ldrb	r1, [r0, #6]
	strb	r1, [r2, #1]
	ldrb	r1, [r0, #5]
	strb	r1, [r2, #2]
	ldrb	r1, [r0, #4]
	strb	r1, [r2, #3]
	ldrb	r1, [r0, #3]
	strb	r1, [r2, #4]
	ldrb	r1, [r0, #2]
	strb	r1, [r2, #5]
	ldrb	r0, [r0, #1]
	strb	r0, [r2, #6]
	movs	r0, #48
	ldrb	r0, [r4, r0]
	strb	r0, [r2, #7]
.Ltmp468:
	.loc	2 427 5                         @ ../../../ThirdParty/mbedTLS/library/sha512.c:427:5
	mov	r0, r4
	adds	r0, #56
	ldrb	r1, [r0, #7]
	strb	r1, [r2, #8]
	ldrb	r1, [r0, #6]
	strb	r1, [r2, #9]
	ldrb	r1, [r0, #5]
	strb	r1, [r2, #10]
	ldrb	r1, [r0, #4]
	strb	r1, [r2, #11]
	ldrb	r1, [r0, #3]
	strb	r1, [r2, #12]
	ldrb	r1, [r0, #2]
	strb	r1, [r2, #13]
	ldrb	r0, [r0, #1]
	strb	r0, [r2, #14]
	movs	r0, #56
	ldrb	r0, [r4, r0]
	strb	r0, [r2, #15]
.Ltmp469:
	.loc	2 429 14                        @ ../../../ThirdParty/mbedTLS/library/sha512.c:429:14
	ldr	r0, [r7, #16]
.Ltmp470:
	.loc	2 429 9 is_stmt 0               @ ../../../ThirdParty/mbedTLS/library/sha512.c:429:9
	cbnz	r0, .LBB9_5
.Ltmp471:
@ %bb.4:
	@DEBUG_VALUE: mbedtls_sha512_finish_ret:output <- $r5
	@DEBUG_VALUE: mbedtls_sha512_finish_ret:ctx <- $r4
	@DEBUG_VALUE: mbedtls_sha512_finish_ret:ret <- 0
	.loc	2 431 9 is_stmt 1               @ ../../../ThirdParty/mbedTLS/library/sha512.c:431:9
	mov	r0, r4
	adds	r0, #64
	ldrb	r1, [r0, #7]
	strb	r1, [r2, #16]
	ldrb	r1, [r0, #6]
	strb	r1, [r2, #17]
	ldrb	r1, [r0, #5]
	strb	r1, [r2, #18]
	ldrb	r1, [r0, #4]
	strb	r1, [r2, #19]
	ldrb	r1, [r0, #3]
	strb	r1, [r2, #20]
	ldrb	r1, [r0, #2]
	strb	r1, [r2, #21]
	ldrb	r0, [r0, #1]
	strb	r0, [r2, #22]
	movs	r0, #64
	ldrb	r0, [r4, r0]
	strb	r0, [r2, #23]
.Ltmp472:
	.loc	2 432 9                         @ ../../../ThirdParty/mbedTLS/library/sha512.c:432:9
	mov	r0, r4
	adds	r0, #72
	ldrb	r1, [r0, #7]
	strb	r1, [r2, #24]
	ldrb	r1, [r0, #6]
	strb	r1, [r2, #25]
	ldrb	r1, [r0, #5]
	strb	r1, [r2, #26]
	ldrb	r1, [r0, #4]
	strb	r1, [r2, #27]
	ldrb	r1, [r0, #3]
	strb	r1, [r2, #28]
	ldrb	r1, [r0, #2]
	strb	r1, [r2, #29]
	ldrb	r0, [r0, #1]
	strb	r0, [r2, #30]
	movs	r0, #72
	ldrb	r0, [r4, r0]
	strb	r0, [r2, #31]
.Ltmp473:
.LBB9_5:
	@DEBUG_VALUE: mbedtls_sha512_finish_ret:output <- $r5
	@DEBUG_VALUE: mbedtls_sha512_finish_ret:ctx <- $r4
	@DEBUG_VALUE: mbedtls_sha512_finish_ret:ret <- 0
	.loc	2 0 9 is_stmt 0                 @ ../../../ThirdParty/mbedTLS/library/sha512.c:0:9
	movs	r0, #0
	.loc	2 436 1 is_stmt 1               @ ../../../ThirdParty/mbedTLS/library/sha512.c:436:1
	add	sp, #12
	pop	{r4, r5, r6, r7, pc}
.Ltmp474:
.Lfunc_end9:
	.size	mbedtls_sha512_finish_ret, .Lfunc_end9-mbedtls_sha512_finish_ret
	.cfi_endproc
	.cantunwind
	.fnend
                                        @ -- End function
	.section	.text.mbedtls_sha512_finish,"ax",%progbits
	.hidden	mbedtls_sha512_finish           @ -- Begin function mbedtls_sha512_finish
	.globl	mbedtls_sha512_finish
	.p2align	1
	.type	mbedtls_sha512_finish,%function
	.code	16                              @ @mbedtls_sha512_finish
	.thumb_func
mbedtls_sha512_finish:
.Lfunc_begin10:
	.loc	2 441 0                         @ ../../../ThirdParty/mbedTLS/library/sha512.c:441:0
	.fnstart
	.cfi_startproc
@ %bb.0:
	@DEBUG_VALUE: mbedtls_sha512_finish:ctx <- $r0
	@DEBUG_VALUE: mbedtls_sha512_finish:ctx <- $r0
	@DEBUG_VALUE: mbedtls_sha512_finish:output <- $r1
	@DEBUG_VALUE: mbedtls_sha512_finish:output <- $r1
	@DEBUG_VALUE: mbedtls_sha512_finish:output <- $r1
	@DEBUG_VALUE: mbedtls_sha512_finish:ctx <- $r0
	.save	{r7, lr}
	push	{r7, lr}
	.cfi_def_cfa_offset 8
	.cfi_offset lr, -4
	.cfi_offset r7, -8
.Ltmp475:
	.loc	2 442 5 prologue_end            @ ../../../ThirdParty/mbedTLS/library/sha512.c:442:5
	bl	mbedtls_sha512_finish_ret
.Ltmp476:
	@DEBUG_VALUE: mbedtls_sha512_finish:output <- [DW_OP_LLVM_entry_value 1] $r1
	@DEBUG_VALUE: mbedtls_sha512_finish:ctx <- [DW_OP_LLVM_entry_value 1] $r0
	.loc	2 443 1                         @ ../../../ThirdParty/mbedTLS/library/sha512.c:443:1
	pop	{r7, pc}
.Ltmp477:
.Lfunc_end10:
	.size	mbedtls_sha512_finish, .Lfunc_end10-mbedtls_sha512_finish
	.cfi_endproc
	.cantunwind
	.fnend
                                        @ -- End function
	.section	.text.mbedtls_sha512_ret,"ax",%progbits
	.hidden	mbedtls_sha512_ret              @ -- Begin function mbedtls_sha512_ret
	.globl	mbedtls_sha512_ret
	.p2align	1
	.type	mbedtls_sha512_ret,%function
	.code	16                              @ @mbedtls_sha512_ret
	.thumb_func
mbedtls_sha512_ret:
.Lfunc_begin11:
	.loc	2 455 0                         @ ../../../ThirdParty/mbedTLS/library/sha512.c:455:0
	.fnstart
	.cfi_startproc
@ %bb.0:
	@DEBUG_VALUE: mbedtls_sha512_ret:input <- $r0
	@DEBUG_VALUE: mbedtls_sha512_ret:ilen <- $r1
	@DEBUG_VALUE: mbedtls_sha512_ret:output <- $r2
	@DEBUG_VALUE: mbedtls_sha512_ret:is384 <- $r3
	.save	{r4, r5, r6, r7, lr}
	push	{r4, r5, r6, r7, lr}
	.cfi_def_cfa_offset 20
	.cfi_offset lr, -4
	.cfi_offset r7, -8
	.cfi_offset r6, -12
	.cfi_offset r5, -16
	.cfi_offset r4, -20
	.pad	#228
	sub	sp, #228
	.cfi_def_cfa_offset 248
	mov	r6, r3
	str	r2, [sp, #4]                    @ 4-byte Spill
	mov	r7, r1
	mov	r4, r0
.Ltmp478:
	@DEBUG_VALUE: mbedtls_sha512_ret:is384 <- $r6
	@DEBUG_VALUE: mbedtls_sha512_ret:output <- [DW_OP_plus_uconst 4] [$sp+0]
	@DEBUG_VALUE: mbedtls_sha512_ret:ilen <- $r7
	@DEBUG_VALUE: mbedtls_sha512_ret:input <- $r4
	add	r5, sp, #8
.Ltmp479:
	.loc	2 463 5 prologue_end            @ ../../../ThirdParty/mbedTLS/library/sha512.c:463:5
	mov	r0, r5
	bl	mbedtls_sha512_init
.Ltmp480:
	.loc	2 465 17                        @ ../../../ThirdParty/mbedTLS/library/sha512.c:465:17
	mov	r0, r5
	mov	r1, r6
.Ltmp481:
	@DEBUG_VALUE: mbedtls_sha512_ret:is384 <- $r1
	bl	mbedtls_sha512_starts_ret
.Ltmp482:
	@DEBUG_VALUE: mbedtls_sha512_ret:ret <- 0
	.loc	2 468 17                        @ ../../../ThirdParty/mbedTLS/library/sha512.c:468:17
	mov	r0, r5
	mov	r1, r4
.Ltmp483:
	@DEBUG_VALUE: mbedtls_sha512_ret:input <- $r1
	mov	r2, r7
.Ltmp484:
	@DEBUG_VALUE: mbedtls_sha512_ret:ilen <- $r2
	bl	mbedtls_sha512_update_ret
.Ltmp485:
	.loc	2 471 17                        @ ../../../ThirdParty/mbedTLS/library/sha512.c:471:17
	mov	r0, r5
	ldr	r1, [sp, #4]                    @ 4-byte Reload
.Ltmp486:
	@DEBUG_VALUE: mbedtls_sha512_ret:output <- $r1
	bl	mbedtls_sha512_finish_ret
.Ltmp487:
	@DEBUG_LABEL: mbedtls_sha512_ret:exit
	.loc	2 475 5                         @ ../../../ThirdParty/mbedTLS/library/sha512.c:475:5
	mov	r0, r5
	bl	mbedtls_sha512_free
	movs	r0, #0
	.loc	2 477 5                         @ ../../../ThirdParty/mbedTLS/library/sha512.c:477:5
	add	sp, #228
	pop	{r4, r5, r6, r7, pc}
.Ltmp488:
.Lfunc_end11:
	.size	mbedtls_sha512_ret, .Lfunc_end11-mbedtls_sha512_ret
	.cfi_endproc
	.cantunwind
	.fnend
                                        @ -- End function
	.section	.text.mbedtls_sha512,"ax",%progbits
	.hidden	mbedtls_sha512                  @ -- Begin function mbedtls_sha512
	.globl	mbedtls_sha512
	.p2align	1
	.type	mbedtls_sha512,%function
	.code	16                              @ @mbedtls_sha512
	.thumb_func
mbedtls_sha512:
.Lfunc_begin12:
	.loc	2 485 0                         @ ../../../ThirdParty/mbedTLS/library/sha512.c:485:0
	.fnstart
	.cfi_startproc
@ %bb.0:
	@DEBUG_VALUE: mbedtls_sha512:input <- $r0
	@DEBUG_VALUE: mbedtls_sha512:input <- $r0
	@DEBUG_VALUE: mbedtls_sha512:ilen <- $r1
	@DEBUG_VALUE: mbedtls_sha512:ilen <- $r1
	@DEBUG_VALUE: mbedtls_sha512:output <- $r2
	@DEBUG_VALUE: mbedtls_sha512:output <- $r2
	@DEBUG_VALUE: mbedtls_sha512:is384 <- $r3
	@DEBUG_VALUE: mbedtls_sha512:is384 <- $r3
	@DEBUG_VALUE: mbedtls_sha512:is384 <- $r3
	@DEBUG_VALUE: mbedtls_sha512:output <- $r2
	@DEBUG_VALUE: mbedtls_sha512:ilen <- $r1
	@DEBUG_VALUE: mbedtls_sha512:input <- $r0
	.save	{r7, lr}
	push	{r7, lr}
	.cfi_def_cfa_offset 8
	.cfi_offset lr, -4
	.cfi_offset r7, -8
.Ltmp489:
	.loc	2 486 5 prologue_end            @ ../../../ThirdParty/mbedTLS/library/sha512.c:486:5
	bl	mbedtls_sha512_ret
.Ltmp490:
	@DEBUG_VALUE: mbedtls_sha512:is384 <- [DW_OP_LLVM_entry_value 1] $r3
	@DEBUG_VALUE: mbedtls_sha512:output <- [DW_OP_LLVM_entry_value 1] $r2
	@DEBUG_VALUE: mbedtls_sha512:ilen <- [DW_OP_LLVM_entry_value 1] $r1
	@DEBUG_VALUE: mbedtls_sha512:input <- [DW_OP_LLVM_entry_value 1] $r0
	.loc	2 487 1                         @ ../../../ThirdParty/mbedTLS/library/sha512.c:487:1
	pop	{r7, pc}
.Ltmp491:
.Lfunc_end12:
	.size	mbedtls_sha512, .Lfunc_end12-mbedtls_sha512
	.cfi_endproc
	.cantunwind
	.fnend
                                        @ -- End function
	.section	.text.mbedtls_sha512_self_test,"ax",%progbits
	.hidden	mbedtls_sha512_self_test        @ -- Begin function mbedtls_sha512_self_test
	.globl	mbedtls_sha512_self_test
	.p2align	2
	.type	mbedtls_sha512_self_test,%function
	.code	16                              @ @mbedtls_sha512_self_test
	.thumb_func
mbedtls_sha512_self_test:
.Lfunc_begin13:
	.loc	2 572 0                         @ ../../../ThirdParty/mbedTLS/library/sha512.c:572:0
	.fnstart
	.cfi_startproc
@ %bb.0:
	@DEBUG_VALUE: mbedtls_sha512_self_test:verbose <- $r0
	.save	{r4, r5, r6, r7, lr}
	push	{r4, r5, r6, r7, lr}
	.cfi_def_cfa_offset 20
	.cfi_offset lr, -4
	.cfi_offset r7, -8
	.cfi_offset r6, -12
	.cfi_offset r5, -16
	.cfi_offset r4, -20
	.pad	#300
	sub	sp, #300
	.cfi_def_cfa_offset 320
	mov	r7, r0
.Ltmp492:
	@DEBUG_VALUE: mbedtls_sha512_self_test:ret <- 0
	@DEBUG_VALUE: mbedtls_sha512_self_test:verbose <- $r7
	movw	r0, #1000
.Ltmp493:
	.loc	2 578 11 prologue_end           @ ../../../ThirdParty/mbedTLS/library/sha512.c:578:11
	adds	r0, #24
	movs	r1, #1
	str	r1, [sp, #8]                    @ 4-byte Spill
	bl	calloc
.Ltmp494:
	@DEBUG_VALUE: mbedtls_sha512_self_test:buf <- $r0
	.loc	2 579 9                         @ ../../../ThirdParty/mbedTLS/library/sha512.c:579:9
	cmp	r0, #0
	beq	.LBB13_19
.Ltmp495:
@ %bb.1:
	@DEBUG_VALUE: mbedtls_sha512_self_test:verbose <- $r7
	@DEBUG_VALUE: mbedtls_sha512_self_test:buf <- $r0
	@DEBUG_VALUE: mbedtls_sha512_self_test:ret <- 0
	.loc	2 0 0 is_stmt 0                 @ ../../../ThirdParty/mbedTLS/library/sha512.c:0:0
	mov	r4, r0
.Ltmp496:
	@DEBUG_VALUE: mbedtls_sha512_self_test:buf <- $r4
	add	r0, sp, #16
	.loc	2 587 5 is_stmt 1               @ ../../../ThirdParty/mbedTLS/library/sha512.c:587:5
	bl	mbedtls_sha512_init
	movs	r5, #0
.Ltmp497:
	@DEBUG_VALUE: mbedtls_sha512_self_test:i <- 0
	@DEBUG_VALUE: mbedtls_sha512_self_test:ret <- 0
	.loc	2 0 5 is_stmt 0                 @ ../../../ThirdParty/mbedTLS/library/sha512.c:0:5
	movs	r0, #3
	str	r0, [sp, #4]                    @ 4-byte Spill
	str	r5, [sp]                        @ 4-byte Spill
	mov	r1, r7
	str	r7, [sp, #12]                   @ 4-byte Spill
	b	.LBB13_3
.Ltmp498:
.LBB13_2:                               @   in Loop: Header=BB13_3 Depth=1
	@DEBUG_VALUE: mbedtls_sha512_self_test:i <- $r5
	@DEBUG_VALUE: mbedtls_sha512_self_test:buf <- $r4
	@DEBUG_VALUE: mbedtls_sha512_self_test:ret <- 0
	.loc	2 589 25 is_stmt 1              @ ../../../ThirdParty/mbedTLS/library/sha512.c:589:25
	adds	r5, r5, #1
.Ltmp499:
	@DEBUG_VALUE: mbedtls_sha512_self_test:i <- $r5
	@DEBUG_VALUE: mbedtls_sha512_self_test:ret <- 0
	.loc	2 589 5 is_stmt 0               @ ../../../ThirdParty/mbedTLS/library/sha512.c:589:5
	cmp	r5, #6
	beq	.LBB13_23
.Ltmp500:
.LBB13_3:                               @ =>This Loop Header: Depth=1
                                        @     Child Loop BB13_11 Depth 2
	@DEBUG_VALUE: mbedtls_sha512_self_test:buf <- $r4
	@DEBUG_VALUE: mbedtls_sha512_self_test:ret <- 0
	@DEBUG_VALUE: mbedtls_sha512_self_test:i <- $r5
	.loc	2 592 15 is_stmt 1              @ ../../../ThirdParty/mbedTLS/library/sha512.c:592:15
	cmp	r5, #3
	ldr	r6, [sp, #8]                    @ 4-byte Reload
	blo	.LBB13_5
.Ltmp501:
@ %bb.4:                                @   in Loop: Header=BB13_3 Depth=1
	@DEBUG_VALUE: mbedtls_sha512_self_test:i <- $r5
	@DEBUG_VALUE: mbedtls_sha512_self_test:buf <- $r4
	@DEBUG_VALUE: mbedtls_sha512_self_test:ret <- 0
	ldr	r6, [sp]                        @ 4-byte Reload
.Ltmp502:
.LBB13_5:                               @   in Loop: Header=BB13_3 Depth=1
	@DEBUG_VALUE: mbedtls_sha512_self_test:i <- $r5
	@DEBUG_VALUE: mbedtls_sha512_self_test:buf <- $r4
	@DEBUG_VALUE: mbedtls_sha512_self_test:ret <- 0
	@DEBUG_VALUE: mbedtls_sha512_self_test:k <- $r6
	.loc	2 0 15 is_stmt 0                @ ../../../ThirdParty/mbedTLS/library/sha512.c:0:15
	ldr	r2, [sp, #4]                    @ 4-byte Reload
	.loc	2 591 15 is_stmt 1              @ ../../../ThirdParty/mbedTLS/library/sha512.c:591:15
	udiv	r0, r5, r2
	muls	r0, r2, r0
	subs	r7, r5, r0
.Ltmp503:
	@DEBUG_VALUE: mbedtls_sha512_self_test:j <- $r7
	.loc	2 594 13                        @ ../../../ThirdParty/mbedTLS/library/sha512.c:594:13
	cbz	r1, .LBB13_9
.Ltmp504:
@ %bb.6:                                @   in Loop: Header=BB13_3 Depth=1
	@DEBUG_VALUE: mbedtls_sha512_self_test:j <- $r7
	@DEBUG_VALUE: mbedtls_sha512_self_test:k <- $r6
	@DEBUG_VALUE: mbedtls_sha512_self_test:i <- $r5
	@DEBUG_VALUE: mbedtls_sha512_self_test:buf <- $r4
	@DEBUG_VALUE: mbedtls_sha512_self_test:ret <- 0
	.loc	2 595 56                        @ ../../../ThirdParty/mbedTLS/library/sha512.c:595:56
	cmp	r5, #3
	movw	r1, #384
	blo	.LBB13_8
.Ltmp505:
@ %bb.7:                                @   in Loop: Header=BB13_3 Depth=1
	@DEBUG_VALUE: mbedtls_sha512_self_test:j <- $r7
	@DEBUG_VALUE: mbedtls_sha512_self_test:k <- $r6
	@DEBUG_VALUE: mbedtls_sha512_self_test:i <- $r5
	@DEBUG_VALUE: mbedtls_sha512_self_test:buf <- $r4
	@DEBUG_VALUE: mbedtls_sha512_self_test:ret <- 0
	.loc	2 0 56 is_stmt 0                @ ../../../ThirdParty/mbedTLS/library/sha512.c:0:56
	movw	r1, #384
	adds	r1, #128
.Ltmp506:
.LBB13_8:                               @   in Loop: Header=BB13_3 Depth=1
	@DEBUG_VALUE: mbedtls_sha512_self_test:j <- $r7
	@DEBUG_VALUE: mbedtls_sha512_self_test:k <- $r6
	@DEBUG_VALUE: mbedtls_sha512_self_test:i <- $r5
	@DEBUG_VALUE: mbedtls_sha512_self_test:buf <- $r4
	@DEBUG_VALUE: mbedtls_sha512_self_test:ret <- 0
	.loc	2 595 69                        @ ../../../ThirdParty/mbedTLS/library/sha512.c:595:69
	adds	r2, r7, #1
	.loc	2 595 13                        @ ../../../ThirdParty/mbedTLS/library/sha512.c:595:13
	adr	r0, .LCPI13_0
	bl	__2printf
.Ltmp507:
.LBB13_9:                               @   in Loop: Header=BB13_3 Depth=1
	@DEBUG_VALUE: mbedtls_sha512_self_test:j <- $r7
	@DEBUG_VALUE: mbedtls_sha512_self_test:k <- $r6
	@DEBUG_VALUE: mbedtls_sha512_self_test:i <- $r5
	@DEBUG_VALUE: mbedtls_sha512_self_test:buf <- $r4
	@DEBUG_VALUE: mbedtls_sha512_self_test:ret <- 0
	.loc	2 0 13                          @ ../../../ThirdParty/mbedTLS/library/sha512.c:0:13
	add	r0, sp, #16
.Ltmp508:
	.loc	2 597 21 is_stmt 1              @ ../../../ThirdParty/mbedTLS/library/sha512.c:597:21
	mov	r1, r6
	bl	mbedtls_sha512_starts_ret
.Ltmp509:
	@DEBUG_VALUE: mbedtls_sha512_self_test:ret <- 0
	.loc	2 600 13                        @ ../../../ThirdParty/mbedTLS/library/sha512.c:600:13
	cmp	r7, #2
	bne	.LBB13_12
.Ltmp510:
@ %bb.10:                               @   in Loop: Header=BB13_3 Depth=1
	@DEBUG_VALUE: mbedtls_sha512_self_test:j <- $r7
	@DEBUG_VALUE: mbedtls_sha512_self_test:k <- $r6
	@DEBUG_VALUE: mbedtls_sha512_self_test:i <- $r5
	@DEBUG_VALUE: mbedtls_sha512_self_test:buf <- $r4
	@DEBUG_VALUE: mbedtls_sha512_self_test:ret <- 0
	@DEBUG_VALUE: mbedtls_sha512_self_test:buflen <- 1000
	.loc	2 0 13 is_stmt 0                @ ../../../ThirdParty/mbedTLS/library/sha512.c:0:13
	movs	r2, #97
.Ltmp511:
	.loc	2 602 13 is_stmt 1              @ ../../../ThirdParty/mbedTLS/library/sha512.c:602:13
	mov	r0, r4
	movw	r1, #1000
	bl	__aeabi_memset
.Ltmp512:
	@DEBUG_VALUE: mbedtls_sha512_self_test:j <- 0
	.loc	2 0 13 is_stmt 0                @ ../../../ThirdParty/mbedTLS/library/sha512.c:0:13
	movw	r6, #1000
.Ltmp513:
.LBB13_11:                              @   Parent Loop BB13_3 Depth=1
                                        @ =>  This Inner Loop Header: Depth=2
	@DEBUG_VALUE: mbedtls_sha512_self_test:i <- $r5
	@DEBUG_VALUE: mbedtls_sha512_self_test:buf <- $r4
	@DEBUG_VALUE: mbedtls_sha512_self_test:buflen <- 1000
	@DEBUG_VALUE: mbedtls_sha512_self_test:ret <- 0
	@DEBUG_VALUE: mbedtls_sha512_self_test:j <- undef
	add	r0, sp, #16
.Ltmp514:
	.loc	2 606 23 is_stmt 1              @ ../../../ThirdParty/mbedTLS/library/sha512.c:606:23
	mov	r1, r4
	movw	r2, #1000
	bl	mbedtls_sha512_update_ret
.Ltmp515:
	@DEBUG_VALUE: mbedtls_sha512_self_test:j <- [DW_OP_plus_uconst 1, DW_OP_stack_value] undef
	@DEBUG_VALUE: mbedtls_sha512_self_test:ret <- 0
	.loc	2 604 27                        @ ../../../ThirdParty/mbedTLS/library/sha512.c:604:27
	subs	r6, r6, #1
.Ltmp516:
	.loc	2 604 13 is_stmt 0              @ ../../../ThirdParty/mbedTLS/library/sha512.c:604:13
	bne	.LBB13_11
	b	.LBB13_13
.Ltmp517:
.LBB13_12:                              @   in Loop: Header=BB13_3 Depth=1
	@DEBUG_VALUE: mbedtls_sha512_self_test:j <- $r7
	@DEBUG_VALUE: mbedtls_sha512_self_test:k <- $r6
	@DEBUG_VALUE: mbedtls_sha512_self_test:i <- $r5
	@DEBUG_VALUE: mbedtls_sha512_self_test:buf <- $r4
	@DEBUG_VALUE: mbedtls_sha512_self_test:ret <- 0
	.loc	2 0 13                          @ ../../../ThirdParty/mbedTLS/library/sha512.c:0:13
	movs	r0, #113
.Ltmp518:
	.loc	2 613 52 is_stmt 1              @ ../../../ThirdParty/mbedTLS/library/sha512.c:613:52
	muls	r0, r7, r0
	ldr	r1, __arm_cp.13_1
	adds	r1, r1, r0
	.loc	2 614 46                        @ ../../../ThirdParty/mbedTLS/library/sha512.c:614:46
	lsls	r0, r7, #2
	adr	r2, .LCPI13_2
	ldr	r2, [r2, r0]
	add	r0, sp, #16
	.loc	2 613 19                        @ ../../../ThirdParty/mbedTLS/library/sha512.c:613:19
	bl	mbedtls_sha512_update_ret
.Ltmp519:
	@DEBUG_VALUE: mbedtls_sha512_self_test:ret <- 0
.LBB13_13:                              @   in Loop: Header=BB13_3 Depth=1
	@DEBUG_VALUE: mbedtls_sha512_self_test:i <- $r5
	@DEBUG_VALUE: mbedtls_sha512_self_test:buf <- $r4
	@DEBUG_VALUE: mbedtls_sha512_self_test:ret <- 0
	.loc	2 0 19 is_stmt 0                @ ../../../ThirdParty/mbedTLS/library/sha512.c:0:19
	add	r0, sp, #16
	add	r6, sp, #236
.Ltmp520:
	.loc	2 619 21 is_stmt 1              @ ../../../ThirdParty/mbedTLS/library/sha512.c:619:21
	mov	r1, r6
	bl	mbedtls_sha512_finish_ret
.Ltmp521:
	.loc	2 622 55                        @ ../../../ThirdParty/mbedTLS/library/sha512.c:622:55
	cmp	r5, #3
	blo	.LBB13_15
.Ltmp522:
@ %bb.14:                               @   in Loop: Header=BB13_3 Depth=1
	@DEBUG_VALUE: mbedtls_sha512_self_test:i <- $r5
	@DEBUG_VALUE: mbedtls_sha512_self_test:buf <- $r4
	@DEBUG_VALUE: mbedtls_sha512_self_test:ret <- 0
	.loc	2 0 55 is_stmt 0                @ ../../../ThirdParty/mbedTLS/library/sha512.c:0:55
	movs	r2, #64
	b	.LBB13_16
.Ltmp523:
.LBB13_15:                              @   in Loop: Header=BB13_3 Depth=1
	@DEBUG_VALUE: mbedtls_sha512_self_test:i <- $r5
	@DEBUG_VALUE: mbedtls_sha512_self_test:buf <- $r4
	@DEBUG_VALUE: mbedtls_sha512_self_test:ret <- 0
	movs	r2, #48
.Ltmp524:
.LBB13_16:                              @   in Loop: Header=BB13_3 Depth=1
	@DEBUG_VALUE: mbedtls_sha512_self_test:i <- $r5
	@DEBUG_VALUE: mbedtls_sha512_self_test:buf <- $r4
	@DEBUG_VALUE: mbedtls_sha512_self_test:ret <- 0
	@DEBUG_VALUE: mbedtls_sha512_self_test:ret <- 0
	.loc	2 622 32                        @ ../../../ThirdParty/mbedTLS/library/sha512.c:622:32
	lsls	r0, r5, #6
	ldr	r1, __arm_cp.13_3
	adds	r1, r1, r0
	.loc	2 622 13                        @ ../../../ThirdParty/mbedTLS/library/sha512.c:622:13
	mov	r0, r6
	bl	memcmp
.Ltmp525:
	.loc	2 622 13                        @ ../../../ThirdParty/mbedTLS/library/sha512.c:622:13
	cbnz	r0, .LBB13_21
.Ltmp526:
@ %bb.17:                               @   in Loop: Header=BB13_3 Depth=1
	@DEBUG_VALUE: mbedtls_sha512_self_test:i <- $r5
	@DEBUG_VALUE: mbedtls_sha512_self_test:buf <- $r4
	@DEBUG_VALUE: mbedtls_sha512_self_test:ret <- 0
	.loc	2 0 13                          @ ../../../ThirdParty/mbedTLS/library/sha512.c:0:13
	ldr	r1, [sp, #12]                   @ 4-byte Reload
	.loc	2 628 13 is_stmt 1              @ ../../../ThirdParty/mbedTLS/library/sha512.c:628:13
	cmp	r1, #0
	beq	.LBB13_2
.Ltmp527:
@ %bb.18:                               @   in Loop: Header=BB13_3 Depth=1
	@DEBUG_VALUE: mbedtls_sha512_self_test:i <- $r5
	@DEBUG_VALUE: mbedtls_sha512_self_test:buf <- $r4
	@DEBUG_VALUE: mbedtls_sha512_self_test:ret <- 0
	.loc	2 629 13                        @ ../../../ThirdParty/mbedTLS/library/sha512.c:629:13
	adr	r0, .LCPI13_5
	bl	puts
	ldr	r1, [sp, #12]                   @ 4-byte Reload
	b	.LBB13_2
.Ltmp528:
.LBB13_19:
	@DEBUG_VALUE: mbedtls_sha512_self_test:verbose <- $r7
	@DEBUG_VALUE: mbedtls_sha512_self_test:buf <- $r0
	@DEBUG_VALUE: mbedtls_sha512_self_test:ret <- 0
	.loc	2 0 13 is_stmt 0                @ ../../../ThirdParty/mbedTLS/library/sha512.c:0:13
	movs	r6, #1
.Ltmp529:
	.loc	2 581 13 is_stmt 1              @ ../../../ThirdParty/mbedTLS/library/sha512.c:581:13
	cbz	r7, .LBB13_26
.Ltmp530:
@ %bb.20:
	@DEBUG_VALUE: mbedtls_sha512_self_test:verbose <- $r7
	@DEBUG_VALUE: mbedtls_sha512_self_test:buf <- $r0
	@DEBUG_VALUE: mbedtls_sha512_self_test:ret <- 0
	.loc	2 582 13                        @ ../../../ThirdParty/mbedTLS/library/sha512.c:582:13
	adr	r0, .LCPI13_6
.Ltmp531:
	bl	puts
	b	.LBB13_26
.Ltmp532:
.LBB13_21:
	@DEBUG_VALUE: mbedtls_sha512_self_test:i <- $r5
	@DEBUG_VALUE: mbedtls_sha512_self_test:buf <- $r4
	@DEBUG_VALUE: mbedtls_sha512_self_test:ret <- 0
	@DEBUG_VALUE: mbedtls_sha512_self_test:ret <- 1
	@DEBUG_LABEL: mbedtls_sha512_self_test:fail
	.loc	2 0 13 is_stmt 0                @ ../../../ThirdParty/mbedTLS/library/sha512.c:0:13
	movs	r6, #1
	.loc	2 638 9 is_stmt 1               @ ../../../ThirdParty/mbedTLS/library/sha512.c:638:9
	ldr	r0, [sp, #12]                   @ 4-byte Reload
	cbz	r0, .LBB13_25
.Ltmp533:
@ %bb.22:
	@DEBUG_VALUE: mbedtls_sha512_self_test:i <- $r5
	@DEBUG_VALUE: mbedtls_sha512_self_test:buf <- $r4
	@DEBUG_VALUE: mbedtls_sha512_self_test:ret <- 1
	.loc	2 639 9                         @ ../../../ThirdParty/mbedTLS/library/sha512.c:639:9
	adr	r0, .LCPI13_4
	bl	puts
	b	.LBB13_25
.Ltmp534:
.LBB13_23:
	@DEBUG_VALUE: mbedtls_sha512_self_test:i <- $r5
	@DEBUG_VALUE: mbedtls_sha512_self_test:buf <- $r4
	@DEBUG_VALUE: mbedtls_sha512_self_test:ret <- 0
	.loc	2 0 9 is_stmt 0                 @ ../../../ThirdParty/mbedTLS/library/sha512.c:0:9
	movs	r6, #0
	.loc	2 632 9 is_stmt 1               @ ../../../ThirdParty/mbedTLS/library/sha512.c:632:9
	cbz	r1, .LBB13_25
.Ltmp535:
@ %bb.24:
	@DEBUG_VALUE: mbedtls_sha512_self_test:i <- $r5
	@DEBUG_VALUE: mbedtls_sha512_self_test:buf <- $r4
	@DEBUG_VALUE: mbedtls_sha512_self_test:ret <- 0
	.loc	2 0 9 is_stmt 0                 @ ../../../ThirdParty/mbedTLS/library/sha512.c:0:9
	movs	r0, #10
.Ltmp536:
	.loc	2 633 9 is_stmt 1               @ ../../../ThirdParty/mbedTLS/library/sha512.c:633:9
	bl	putchar
.Ltmp537:
.LBB13_25:
	@DEBUG_VALUE: mbedtls_sha512_self_test:i <- $r5
	@DEBUG_VALUE: mbedtls_sha512_self_test:buf <- $r4
	@DEBUG_VALUE: mbedtls_sha512_self_test:ret <- $r6
	@DEBUG_LABEL: mbedtls_sha512_self_test:exit
	.loc	2 0 9 is_stmt 0                 @ ../../../ThirdParty/mbedTLS/library/sha512.c:0:9
	add	r0, sp, #16
	.loc	2 642 5 is_stmt 1               @ ../../../ThirdParty/mbedTLS/library/sha512.c:642:5
	bl	mbedtls_sha512_free
	.loc	2 643 5                         @ ../../../ThirdParty/mbedTLS/library/sha512.c:643:5
	mov	r0, r4
	bl	free
.Ltmp538:
.LBB13_26:
	.loc	2 646 1                         @ ../../../ThirdParty/mbedTLS/library/sha512.c:646:1
	mov	r0, r6
	add	sp, #300
	pop	{r4, r5, r6, r7, pc}
.Ltmp539:
	.p2align	2
@ %bb.27:
	.loc	2 0 1 is_stmt 0                 @ ../../../ThirdParty/mbedTLS/library/sha512.c:0:1
.LCPI13_0:
.L.str.1:
	.asciz	"  SHA-%d test #%d: "
__arm_cp.13_1:
	.long	sha512_test_buf
.Lcpi_end33:
	.size	__arm_cp.13_1, .Lcpi_end33-__arm_cp.13_1
.LCPI13_2:
sha512_test_buflen:
	.long	3                               @ 0x3
	.long	112                             @ 0x70
	.long	1000                            @ 0x3e8
__arm_cp.13_3:
	.long	sha512_test_sum
.Lcpi_end34:
	.size	__arm_cp.13_3, .Lcpi_end34-__arm_cp.13_3
.LCPI13_4:
.Lstr.6:
	.asciz	"failed\000"
.LCPI13_5:
.Lstr:
	.asciz	"passed\000"
.LCPI13_6:
.Lstr.7:
	.asciz	"Buffer allocation failed\000\000\000"
.Lfunc_end13:
	.size	mbedtls_sha512_self_test, .Lfunc_end13-mbedtls_sha512_self_test
	.cfi_endproc
	.cantunwind
	.fnend
                                        @ -- End function
	.type	K,%object                       @ @K
	.section	.rodata.K,"a",%progbits
	.p2align	3
K:
	.long	3609767458                      @ 0x428a2f98d728ae22
	.long	1116352408
	.long	602891725                       @ 0x7137449123ef65cd
	.long	1899447441
	.long	3964484399                      @ 0xb5c0fbcfec4d3b2f
	.long	3049323471
	.long	2173295548                      @ 0xe9b5dba58189dbbc
	.long	3921009573
	.long	4081628472                      @ 0x3956c25bf348b538
	.long	961987163
	.long	3053834265                      @ 0x59f111f1b605d019
	.long	1508970993
	.long	2937671579                      @ 0x923f82a4af194f9b
	.long	2453635748
	.long	3664609560                      @ 0xab1c5ed5da6d8118
	.long	2870763221
	.long	2734883394                      @ 0xd807aa98a3030242
	.long	3624381080
	.long	1164996542                      @ 0x12835b0145706fbe
	.long	310598401
	.long	1323610764                      @ 0x243185be4ee4b28c
	.long	607225278
	.long	3590304994                      @ 0x550c7dc3d5ffb4e2
	.long	1426881987
	.long	4068182383                      @ 0x72be5d74f27b896f
	.long	1925078388
	.long	991336113                       @ 0x80deb1fe3b1696b1
	.long	2162078206
	.long	633803317                       @ 0x9bdc06a725c71235
	.long	2614888103
	.long	3479774868                      @ 0xc19bf174cf692694
	.long	3248222580
	.long	2666613458                      @ 0xe49b69c19ef14ad2
	.long	3835390401
	.long	944711139                       @ 0xefbe4786384f25e3
	.long	4022224774
	.long	2341262773                      @ 0xfc19dc68b8cd5b5
	.long	264347078
	.long	2007800933                      @ 0x240ca1cc77ac9c65
	.long	604807628
	.long	1495990901                      @ 0x2de92c6f592b0275
	.long	770255983
	.long	1856431235                      @ 0x4a7484aa6ea6e483
	.long	1249150122
	.long	3175218132                      @ 0x5cb0a9dcbd41fbd4
	.long	1555081692
	.long	2198950837                      @ 0x76f988da831153b5
	.long	1996064986
	.long	3999719339                      @ 0x983e5152ee66dfab
	.long	2554220882
	.long	766784016                       @ 0xa831c66d2db43210
	.long	2821834349
	.long	2566594879                      @ 0xb00327c898fb213f
	.long	2952996808
	.long	3203337956                      @ 0xbf597fc7beef0ee4
	.long	3210313671
	.long	1034457026                      @ 0xc6e00bf33da88fc2
	.long	3336571891
	.long	2466948901                      @ 0xd5a79147930aa725
	.long	3584528711
	.long	3758326383                      @ 0x6ca6351e003826f
	.long	113926993
	.long	168717936                       @ 0x142929670a0e6e70
	.long	338241895
	.long	1188179964                      @ 0x27b70a8546d22ffc
	.long	666307205
	.long	1546045734                      @ 0x2e1b21385c26c926
	.long	773529912
	.long	1522805485                      @ 0x4d2c6dfc5ac42aed
	.long	1294757372
	.long	2643833823                      @ 0x53380d139d95b3df
	.long	1396182291
	.long	2343527390                      @ 0x650a73548baf63de
	.long	1695183700
	.long	1014477480                      @ 0x766a0abb3c77b2a8
	.long	1986661051
	.long	1206759142                      @ 0x81c2c92e47edaee6
	.long	2177026350
	.long	344077627                       @ 0x92722c851482353b
	.long	2456956037
	.long	1290863460                      @ 0xa2bfe8a14cf10364
	.long	2730485921
	.long	3158454273                      @ 0xa81a664bbc423001
	.long	2820302411
	.long	3505952657                      @ 0xc24b8b70d0f89791
	.long	3259730800
	.long	106217008                       @ 0xc76c51a30654be30
	.long	3345764771
	.long	3606008344                      @ 0xd192e819d6ef5218
	.long	3516065817
	.long	1432725776                      @ 0xd69906245565a910
	.long	3600352804
	.long	1467031594                      @ 0xf40e35855771202a
	.long	4094571909
	.long	851169720                       @ 0x106aa07032bbd1b8
	.long	275423344
	.long	3100823752                      @ 0x19a4c116b8d2d0c8
	.long	430227734
	.long	1363258195                      @ 0x1e376c085141ab53
	.long	506948616
	.long	3750685593                      @ 0x2748774cdf8eeb99
	.long	659060556
	.long	3785050280                      @ 0x34b0bcb5e19b48a8
	.long	883997877
	.long	3318307427                      @ 0x391c0cb3c5c95a63
	.long	958139571
	.long	3812723403                      @ 0x4ed8aa4ae3418acb
	.long	1322822218
	.long	2003034995                      @ 0x5b9cca4f7763e373
	.long	1537002063
	.long	3602036899                      @ 0x682e6ff3d6b2b8a3
	.long	1747873779
	.long	1575990012                      @ 0x748f82ee5defb2fc
	.long	1955562222
	.long	1125592928                      @ 0x78a5636f43172f60
	.long	2024104815
	.long	2716904306                      @ 0x84c87814a1f0ab72
	.long	2227730452
	.long	442776044                       @ 0x8cc702081a6439ec
	.long	2361852424
	.long	593698344                       @ 0x90befffa23631e28
	.long	2428436474
	.long	3733110249                      @ 0xa4506cebde82bde9
	.long	2756734187
	.long	2999351573                      @ 0xbef9a3f7b2c67915
	.long	3204031479
	.long	3815920427                      @ 0xc67178f2e372532b
	.long	3329325298
	.long	3928383900                      @ 0xca273eceea26619c
	.long	3391569614
	.long	566280711                       @ 0xd186b8c721c0c207
	.long	3515267271
	.long	3454069534                      @ 0xeada7dd6cde0eb1e
	.long	3940187606
	.long	4000239992                      @ 0xf57d4f7fee6ed178
	.long	4118630271
	.long	1914138554                      @ 0x6f067aa72176fba
	.long	116418474
	.long	2731055270                      @ 0xa637dc5a2c898a6
	.long	174292421
	.long	3203993006                      @ 0x113f9804bef90dae
	.long	289380356
	.long	320620315                       @ 0x1b710b35131c471b
	.long	460393269
	.long	587496836                       @ 0x28db77f523047d84
	.long	685471733
	.long	1086792851                      @ 0x32caab7b40c72493
	.long	852142971
	.long	365543100                       @ 0x3c9ebe0a15c9bebc
	.long	1017036298
	.long	2618297676                      @ 0x431d67c49c100d4c
	.long	1126000580
	.long	3409855158                      @ 0x4cc5d4becb3e42b6
	.long	1288033470
	.long	4234509866                      @ 0x597f299cfc657e2a
	.long	1501505948
	.long	987167468                       @ 0x5fcb6fab3ad6faec
	.long	1607167915
	.long	1246189591                      @ 0x6c44198c4a475817
	.long	1816402316
	.size	K, 640

	.type	sha512_test_buf,%object         @ @sha512_test_buf
	.section	.rodata.sha512_test_buf,"a",%progbits
sha512_test_buf:
	.asciz	"abc\000\000\000\000\000\000\000\000\000\000\000\000\000\000\000\000\000\000\000\000\000\000\000\000\000\000\000\000\000\000\000\000\000\000\000\000\000\000\000\000\000\000\000\000\000\000\000\000\000\000\000\000\000\000\000\000\000\000\000\000\000\000\000\000\000\000\000\000\000\000\000\000\000\000\000\000\000\000\000\000\000\000\000\000\000\000\000\000\000\000\000\000\000\000\000\000\000\000\000\000\000\000\000\000\000\000\000\000\000"
	.asciz	"abcdefghbcdefghicdefghijdefghijkefghijklfghijklmghijklmnhijklmnoijklmnopjklmnopqklmnopqrlmnopqrsmnopqrstnopqrstu"
	.zero	113
	.size	sha512_test_buf, 339

	.type	sha512_test_sum,%object         @ @sha512_test_sum
	.section	.rodata.sha512_test_sum,"a",%progbits
sha512_test_sum:
	.ascii	"\313\000u?E\243^\213\265\240=i\232\306P\007',2\253\016\336\321c\032\213`ZC\377[\355\200\206\007+\241\347\314#X\272\354\2414\310%\247"
	.zero	16
	.ascii	"\t3\f3\367\021G\350=\031/\307\202\315\033GS\021\033\027;;\005\322/\240\200\206\343\260\367\022\374\307\307\032U~-\271f\303\351\372\221t`9"
	.zero	16
	.ascii	"\235\016\030\tqdt\313\bn\203N1\nJ\034\355\024\236\234\000\362HRyr\316\305pL*[\007\270\263\3348\354\304\353\256\227\335\330\177=\211\205"
	.zero	16
	.ascii	"\335\2575\241\223az\272\314AsI\256 A1\022\346\372N\211\251~\242\n\236\356\346KU\323\232!\222\231*'O\301\2506\272<#\243\376\353\275EMD#d<\350\016*\232\311O\245L\244\237"
	.ascii	"\216\225\233u\332\343\023\332\214\364\367(\024\374\024?\217wy\306\353\237\177\241r\231\256\255\266\210\220\030P\035(\236I\000\367\3443\033\231\336\304\265C:\307\323)\356\266\335&T^\226\345[\207K\351\t"
	.ascii	"\347\030H=\f\347idN.B\307\274\025\264c\216\037\230\261; D(V2\250\003\257\251s\353\336\017\362D\207~\246\nL\260C,\345w\303\033\353\000\234\\,I\252.N\255\262\027\255\214\300\233"
	.size	sha512_test_sum, 384

	.globl	_printf_percent
	.globl	_printf_d
	.globl	_printf_int_dec
	.hidden	_printf_percent
	.hidden	_printf_d
	.hidden	_printf_int_dec
	.file	4 "C:\\Users\\shw26\\OneDrive\\Desktop\\2021\\2021-1\\\354\272\241\354\212\244\355\206\244\353\224\224\354\236\220\354\235\2702\\Nuvoton\\M2351_BSP_v3.00.004\\M2351Series_BSP_CMSIS_V3.00.004\\MyProject\\PulseMonitoring\\Secure" "../../../ThirdParty/mbedTLS/include/mbedtls\\sha512.h"
	.section	".note.GNU-stack","",%progbits
	.eabi_attribute	30, 1	@ Tag_ABI_optimization_goals
	.ARM_attribute	16, 1	@ Tag_AV_eba