	.text
	.syntax unified
	.eabi_attribute	67, "2.09"	@ Tag_conformance
	.cpu	cortex-m23
	.eabi_attribute	6, 16	@ Tag_CPU_arch
	.eabi_attribute	7, 77	@ Tag_CPU_arch_profile
	.eabi_attribute	8, 0	@ Tag_ARM_ISA_use
	.eabi_attribute	9, 3	@ Tag_THUMB_ISA_use
	.eabi_attribute	34, 0	@ Tag_CPU_unaligned_access
	.eabi_attribute	17, 1	@ Tag_ABI_PCS_GOT_use
	.eabi_attribute	20, 2	@ Tag_ABI_FP_denormal
	.eabi_attribute	21, 0	@ Tag_ABI_FP_exceptions
	.eabi_attribute	23, 1	@ Tag_ABI_FP_number_model
	.eabi_attribute	24, 1	@ Tag_ABI_align_needed
	.eabi_attribute	25, 1	@ Tag_ABI_align_preserved
	.eabi_attribute	38, 1	@ Tag_ABI_FP_16bit_format
	.eabi_attribute	18, 2	@ Tag_ABI_PCS_wchar_t
	.eabi_attribute	26, 1	@ Tag_ABI_enum_size
	.eabi_attribute	14, 0	@ Tag_ABI_PCS_R9_use
	.file	"spi.c"
	.file	1 "C:\\" "Keil_v5\\ARM\\ARMCLANG\\Bin\\..\\include\\stdint.h"
	.file	2 "C:\\Users\\shw26\\OneDrive\\Desktop\\2021\\2021-1\\\354\272\241\354\212\244\355\206\244\353\224\224\354\236\220\354\235\2702\\Nuvoton\\M2351_BSP_v3.00.004\\M2351Series_BSP_CMSIS_V3.00.004\\MyProject\\PulseMonitoring\\Secure" "../../../Library/Device/Nuvoton/M2351/Include/spi_reg.h"
	.file	3 "C:\\Users\\shw26\\OneDrive\\Desktop\\2021\\2021-1\\\354\272\241\354\212\244\355\206\244\353\224\224\354\236\220\354\235\2702\\Nuvoton\\M2351_BSP_v3.00.004\\M2351Series_BSP_CMSIS_V3.00.004\\MyProject\\PulseMonitoring\\Secure" "../../../Library/Device/Nuvoton/M2351/Include/clk_reg.h"
	.file	4 "C:\\Users\\shw26\\OneDrive\\Desktop\\2021\\2021-1\\\354\272\241\354\212\244\355\206\244\353\224\224\354\236\220\354\235\2702\\Nuvoton\\M2351_BSP_v3.00.004\\M2351Series_BSP_CMSIS_V3.00.004\\MyProject\\PulseMonitoring\\Secure" "../../../Library/Device/Nuvoton/M2351/Include/sys_reg.h"
	.section	.text.SPI_Open,"ax",%progbits
	.hidden	SPI_Open                        @ -- Begin function SPI_Open
	.globl	SPI_Open
	.p2align	2
	.type	SPI_Open,%function
	.code	16                              @ @SPI_Open
	.thumb_func
SPI_Open:
.Lfunc_begin0:
	.file	5 "C:\\Users\\shw26\\OneDrive\\Desktop\\2021\\2021-1\\\354\272\241\354\212\244\355\206\244\353\224\224\354\236\220\354\235\2702\\Nuvoton\\M2351_BSP_v3.00.004\\M2351Series_BSP_CMSIS_V3.00.004\\MyProject\\PulseMonitoring\\Secure" "../../../Library/StdDriver/src/spi.c"
	.loc	5 52 0                          @ ../../../Library/StdDriver/src/spi.c:52:0
	.fnstart
	.cfi_sections .debug_frame
	.cfi_startproc
@ %bb.0:
	@DEBUG_VALUE: SPI_Open:spi <- $r0
	@DEBUG_VALUE: SPI_Open:u32MasterSlave <- $r1
	@DEBUG_VALUE: SPI_Open:u32SPIMode <- $r2
	@DEBUG_VALUE: SPI_Open:u32DataWidth <- $r3
	.save	{r4, r5, r6, r7, lr}
	push	{r4, r5, r6, r7, lr}
	.cfi_def_cfa_offset 20
	.cfi_offset lr, -4
	.cfi_offset r7, -8
	.cfi_offset r6, -12
	.cfi_offset r5, -16
	.cfi_offset r4, -20
	.pad	#20
	sub	sp, #20
	.cfi_def_cfa_offset 40
	mov	r4, r3
	mov	r6, r2
	str	r1, [sp, #12]                   @ 4-byte Spill
	mov	r7, r0
.Ltmp0:
	@DEBUG_VALUE: SPI_Open:u32RetValue <- 0
	@DEBUG_VALUE: SPI_Open:u32ClkSrc <- 0
	@DEBUG_VALUE: SPI_Open:u32BusClock <- [DW_OP_plus_uconst 40] [$sp+0]
	@DEBUG_VALUE: SPI_Open:u32DataWidth <- $r4
	@DEBUG_VALUE: SPI_Open:u32SPIMode <- $r6
	@DEBUG_VALUE: SPI_Open:u32MasterSlave <- [DW_OP_plus_uconst 12] [$sp+0]
	@DEBUG_VALUE: SPI_Open:spi <- $r7
	.loc	5 56 17 prologue_end            @ ../../../Library/StdDriver/src/spi.c:56:17
	ldr	r0, [r0, #96]
	movs	r5, #1
	bics	r0, r5
	str	r0, [r7, #96]
.Ltmp1:
	@DEBUG_VALUE: SPI_Open:u32DataWidth <- undef
	.loc	5 64 19                         @ ../../../Library/StdDriver/src/spi.c:64:19
	bl	CLK_GetHCLKFreq
	str	r0, [sp, #8]                    @ 4-byte Spill
.Ltmp2:
	@DEBUG_VALUE: SPI_Open:u32HCLKFreq <- [DW_OP_plus_uconst 8] [$sp+0]
	.loc	5 66 20                         @ ../../../Library/StdDriver/src/spi.c:66:20
	bl	CLK_GetPCLK0Freq
	str	r0, [sp, #4]                    @ 4-byte Spill
.Ltmp3:
	@DEBUG_VALUE: SPI_Open:u32PCLK0Freq <- [DW_OP_plus_uconst 4] [$sp+0]
	.loc	5 68 20                         @ ../../../Library/StdDriver/src/spi.c:68:20
	bl	CLK_GetPCLK1Freq
.Ltmp4:
	@DEBUG_VALUE: SPI_Open:u32PCLK1Freq <- $r0
	.loc	5 0 20 is_stmt 0                @ ../../../Library/StdDriver/src/spi.c:0:20
	movs	r1, #0
	str	r7, [sp, #16]                   @ 4-byte Spill
.Ltmp5:
	@DEBUG_VALUE: SPI_Open:spi <- [DW_OP_plus_uconst 16] [$sp+0]
	str	r1, [r7, #8]
	cmp	r4, #32
	beq	.LBB0_2
.Ltmp6:
@ %bb.1:
	@DEBUG_VALUE: SPI_Open:u32SPIMode <- $r6
	@DEBUG_VALUE: SPI_Open:u32PCLK1Freq <- $r0
	@DEBUG_VALUE: SPI_Open:spi <- [DW_OP_plus_uconst 16] [$sp+0]
	@DEBUG_VALUE: SPI_Open:u32PCLK0Freq <- [DW_OP_plus_uconst 4] [$sp+0]
	@DEBUG_VALUE: SPI_Open:u32HCLKFreq <- [DW_OP_plus_uconst 8] [$sp+0]
	@DEBUG_VALUE: SPI_Open:u32MasterSlave <- [DW_OP_plus_uconst 12] [$sp+0]
	@DEBUG_VALUE: SPI_Open:u32BusClock <- [DW_OP_plus_uconst 40] [$sp+0]
	@DEBUG_VALUE: SPI_Open:u32ClkSrc <- 0
	@DEBUG_VALUE: SPI_Open:u32RetValue <- 0
	lsls	r1, r4, #8
.Ltmp7:
.LBB0_2:
	@DEBUG_VALUE: SPI_Open:u32SPIMode <- $r6
	@DEBUG_VALUE: SPI_Open:u32PCLK1Freq <- $r0
	@DEBUG_VALUE: SPI_Open:spi <- [DW_OP_plus_uconst 16] [$sp+0]
	@DEBUG_VALUE: SPI_Open:u32PCLK0Freq <- [DW_OP_plus_uconst 4] [$sp+0]
	@DEBUG_VALUE: SPI_Open:u32HCLKFreq <- [DW_OP_plus_uconst 8] [$sp+0]
	@DEBUG_VALUE: SPI_Open:u32MasterSlave <- [DW_OP_plus_uconst 12] [$sp+0]
	@DEBUG_VALUE: SPI_Open:u32BusClock <- [DW_OP_plus_uconst 40] [$sp+0]
	@DEBUG_VALUE: SPI_Open:u32ClkSrc <- 0
	@DEBUG_VALUE: SPI_Open:u32RetValue <- 0
	ldr	r2, [sp, #12]                   @ 4-byte Reload
	.loc	5 70 8 is_stmt 1                @ ../../../Library/StdDriver/src/spi.c:70:8
	cbz	r2, .LBB0_10
.Ltmp8:
@ %bb.3:
	@DEBUG_VALUE: SPI_Open:u32SPIMode <- $r6
	@DEBUG_VALUE: SPI_Open:u32PCLK1Freq <- $r0
	@DEBUG_VALUE: SPI_Open:spi <- [DW_OP_plus_uconst 16] [$sp+0]
	@DEBUG_VALUE: SPI_Open:u32PCLK0Freq <- [DW_OP_plus_uconst 4] [$sp+0]
	@DEBUG_VALUE: SPI_Open:u32HCLKFreq <- [DW_OP_plus_uconst 8] [$sp+0]
	@DEBUG_VALUE: SPI_Open:u32MasterSlave <- [DW_OP_plus_uconst 12] [$sp+0]
	@DEBUG_VALUE: SPI_Open:u32BusClock <- [DW_OP_plus_uconst 40] [$sp+0]
	@DEBUG_VALUE: SPI_Open:u32ClkSrc <- 0
	@DEBUG_VALUE: SPI_Open:u32RetValue <- 0
	.loc	5 0 8 is_stmt 0                 @ ../../../Library/StdDriver/src/spi.c:0:8
	mov	r7, r0
.Ltmp9:
	@DEBUG_VALUE: SPI_Open:u32PCLK1Freq <- $r7
	.loc	5 225 74 is_stmt 1              @ ../../../Library/StdDriver/src/spi.c:225:74
	orrs	r6, r2
.Ltmp10:
	.loc	5 225 89 is_stmt 0              @ ../../../Library/StdDriver/src/spi.c:225:89
	orrs	r6, r1
	orrs	r6, r5
	ldr	r5, [sp, #16]                   @ 4-byte Reload
	.loc	5 225 18                        @ ../../../Library/StdDriver/src/spi.c:225:18
	str	r6, [r5]
	movs	r0, #0
	.loc	5 228 21 is_stmt 1              @ ../../../Library/StdDriver/src/spi.c:228:21
	str	r0, [r5, #4]
	ldr	r6, __arm_cp.0_0
.Ltmp11:
	.loc	5 230 21                        @ ../../../Library/StdDriver/src/spi.c:230:21
	adds	r4, r6, #1
	.loc	5 230 14 is_stmt 0              @ ../../../Library/StdDriver/src/spi.c:230:14
	bl	__PC
.Ltmp12:
	.loc	5 230 12                        @ ../../../Library/StdDriver/src/spi.c:230:12
	tst	r0, r4
	beq	.LBB0_16
.Ltmp13:
@ %bb.4:
	@DEBUG_VALUE: SPI_Open:u32PCLK1Freq <- $r7
	@DEBUG_VALUE: SPI_Open:spi <- [DW_OP_plus_uconst 16] [$sp+0]
	@DEBUG_VALUE: SPI_Open:u32PCLK0Freq <- [DW_OP_plus_uconst 4] [$sp+0]
	@DEBUG_VALUE: SPI_Open:u32HCLKFreq <- [DW_OP_plus_uconst 8] [$sp+0]
	@DEBUG_VALUE: SPI_Open:u32MasterSlave <- [DW_OP_plus_uconst 12] [$sp+0]
	@DEBUG_VALUE: SPI_Open:u32BusClock <- [DW_OP_plus_uconst 40] [$sp+0]
	@DEBUG_VALUE: SPI_Open:u32ClkSrc <- 0
	@DEBUG_VALUE: SPI_Open:u32RetValue <- 0
	.loc	5 0 12                          @ ../../../Library/StdDriver/src/spi.c:0:12
	ldr	r0, __arm_cp.0_1
.Ltmp14:
	.loc	5 261 16 is_stmt 1              @ ../../../Library/StdDriver/src/spi.c:261:16
	cmp	r5, r0
	beq	.LBB0_20
.Ltmp15:
@ %bb.5:
	@DEBUG_VALUE: SPI_Open:u32PCLK1Freq <- $r7
	@DEBUG_VALUE: SPI_Open:spi <- [DW_OP_plus_uconst 16] [$sp+0]
	@DEBUG_VALUE: SPI_Open:u32PCLK0Freq <- [DW_OP_plus_uconst 4] [$sp+0]
	@DEBUG_VALUE: SPI_Open:u32HCLKFreq <- [DW_OP_plus_uconst 8] [$sp+0]
	@DEBUG_VALUE: SPI_Open:u32MasterSlave <- [DW_OP_plus_uconst 12] [$sp+0]
	@DEBUG_VALUE: SPI_Open:u32BusClock <- [DW_OP_plus_uconst 40] [$sp+0]
	@DEBUG_VALUE: SPI_Open:u32ClkSrc <- 0
	@DEBUG_VALUE: SPI_Open:u32RetValue <- 0
	.loc	5 0 16 is_stmt 0                @ ../../../Library/StdDriver/src/spi.c:0:16
	ldr	r0, __arm_cp.0_2
	.loc	5 261 16                        @ ../../../Library/StdDriver/src/spi.c:261:16
	cmp	r5, r0
	beq	.LBB0_23
.Ltmp16:
@ %bb.6:
	@DEBUG_VALUE: SPI_Open:u32PCLK1Freq <- $r7
	@DEBUG_VALUE: SPI_Open:spi <- [DW_OP_plus_uconst 16] [$sp+0]
	@DEBUG_VALUE: SPI_Open:u32PCLK0Freq <- [DW_OP_plus_uconst 4] [$sp+0]
	@DEBUG_VALUE: SPI_Open:u32HCLKFreq <- [DW_OP_plus_uconst 8] [$sp+0]
	@DEBUG_VALUE: SPI_Open:u32MasterSlave <- [DW_OP_plus_uconst 12] [$sp+0]
	@DEBUG_VALUE: SPI_Open:u32BusClock <- [DW_OP_plus_uconst 40] [$sp+0]
	@DEBUG_VALUE: SPI_Open:u32ClkSrc <- 0
	@DEBUG_VALUE: SPI_Open:u32RetValue <- 0
	.loc	5 0 16                          @ ../../../Library/StdDriver/src/spi.c:0:16
	ldr	r0, __arm_cp.0_3
	.loc	5 261 16                        @ ../../../Library/StdDriver/src/spi.c:261:16
	cmp	r5, r0
	bne	.LBB0_26
.Ltmp17:
@ %bb.7:
	@DEBUG_VALUE: SPI_Open:u32PCLK1Freq <- $r7
	@DEBUG_VALUE: SPI_Open:spi <- [DW_OP_plus_uconst 16] [$sp+0]
	@DEBUG_VALUE: SPI_Open:u32PCLK0Freq <- [DW_OP_plus_uconst 4] [$sp+0]
	@DEBUG_VALUE: SPI_Open:u32HCLKFreq <- [DW_OP_plus_uconst 8] [$sp+0]
	@DEBUG_VALUE: SPI_Open:u32MasterSlave <- [DW_OP_plus_uconst 12] [$sp+0]
	@DEBUG_VALUE: SPI_Open:u32BusClock <- [DW_OP_plus_uconst 40] [$sp+0]
	@DEBUG_VALUE: SPI_Open:u32ClkSrc <- 0
	@DEBUG_VALUE: SPI_Open:u32RetValue <- 0
	.loc	5 0 16                          @ ../../../Library/StdDriver/src/spi.c:0:16
	ldr	r4, __arm_cp.0_9
.Ltmp18:
	.loc	5 263 21 is_stmt 1              @ ../../../Library/StdDriver/src/spi.c:263:21
	mov	r0, r4
	bl	CLK_GetModuleClockSource
	ldr	r5, __arm_cp.0_6
.Ltmp19:
	.loc	5 263 20 is_stmt 0              @ ../../../Library/StdDriver/src/spi.c:263:20
	tst	r0, r6
	bne	.LBB0_8
	b	.LBB0_32
.Ltmp20:
.LBB0_8:
	@DEBUG_VALUE: SPI_Open:u32PCLK1Freq <- $r7
	@DEBUG_VALUE: SPI_Open:spi <- [DW_OP_plus_uconst 16] [$sp+0]
	@DEBUG_VALUE: SPI_Open:u32PCLK0Freq <- [DW_OP_plus_uconst 4] [$sp+0]
	@DEBUG_VALUE: SPI_Open:u32HCLKFreq <- [DW_OP_plus_uconst 8] [$sp+0]
	@DEBUG_VALUE: SPI_Open:u32MasterSlave <- [DW_OP_plus_uconst 12] [$sp+0]
	@DEBUG_VALUE: SPI_Open:u32BusClock <- [DW_OP_plus_uconst 40] [$sp+0]
	@DEBUG_VALUE: SPI_Open:u32ClkSrc <- 0
	@DEBUG_VALUE: SPI_Open:u32RetValue <- 0
	.loc	5 267 26 is_stmt 1              @ ../../../Library/StdDriver/src/spi.c:267:26
	mov	r0, r4
	bl	CLK_GetModuleClockSource
	.loc	5 267 92 is_stmt 0              @ ../../../Library/StdDriver/src/spi.c:267:92
	ands	r0, r6
.Ltmp21:
	.loc	5 267 25                        @ ../../../Library/StdDriver/src/spi.c:267:25
	cmp	r0, #1
	beq	.LBB0_9
	b	.LBB0_35
.Ltmp22:
.LBB0_9:
	@DEBUG_VALUE: SPI_Open:u32PCLK1Freq <- $r7
	@DEBUG_VALUE: SPI_Open:spi <- [DW_OP_plus_uconst 16] [$sp+0]
	@DEBUG_VALUE: SPI_Open:u32PCLK0Freq <- [DW_OP_plus_uconst 4] [$sp+0]
	@DEBUG_VALUE: SPI_Open:u32HCLKFreq <- [DW_OP_plus_uconst 8] [$sp+0]
	@DEBUG_VALUE: SPI_Open:u32MasterSlave <- [DW_OP_plus_uconst 12] [$sp+0]
	@DEBUG_VALUE: SPI_Open:u32BusClock <- [DW_OP_plus_uconst 40] [$sp+0]
	@DEBUG_VALUE: SPI_Open:u32ClkSrc <- 0
	@DEBUG_VALUE: SPI_Open:u32RetValue <- 0
	.loc	5 269 35 is_stmt 1              @ ../../../Library/StdDriver/src/spi.c:269:35
	bl	CLK_GetPLLClockFreq
	mov	r6, r0
.Ltmp23:
	@DEBUG_VALUE: SPI_Open:u32RetValue <- $r6
	.loc	5 270 17                        @ ../../../Library/StdDriver/src/spi.c:270:17
	b	.LBB0_77
.Ltmp24:
.LBB0_10:
	@DEBUG_VALUE: SPI_Open:u32SPIMode <- $r6
	@DEBUG_VALUE: SPI_Open:u32PCLK1Freq <- $r0
	@DEBUG_VALUE: SPI_Open:spi <- [DW_OP_plus_uconst 16] [$sp+0]
	@DEBUG_VALUE: SPI_Open:u32PCLK0Freq <- [DW_OP_plus_uconst 4] [$sp+0]
	@DEBUG_VALUE: SPI_Open:u32HCLKFreq <- [DW_OP_plus_uconst 8] [$sp+0]
	@DEBUG_VALUE: SPI_Open:u32MasterSlave <- [DW_OP_plus_uconst 12] [$sp+0]
	@DEBUG_VALUE: SPI_Open:u32BusClock <- [DW_OP_plus_uconst 40] [$sp+0]
	@DEBUG_VALUE: SPI_Open:u32ClkSrc <- 0
	@DEBUG_VALUE: SPI_Open:u32RetValue <- 0
	.loc	5 0 17 is_stmt 0                @ ../../../Library/StdDriver/src/spi.c:0:17
	ldr	r7, [sp, #40]
.Ltmp25:
	.loc	5 76 89 is_stmt 1               @ ../../../Library/StdDriver/src/spi.c:76:89
	orrs	r1, r6
	orrs	r1, r5
	ldr	r5, [sp, #16]                   @ 4-byte Reload
	.loc	5 76 18 is_stmt 0               @ ../../../Library/StdDriver/src/spi.c:76:18
	str	r1, [r5]
	.loc	5 78 12 is_stmt 1               @ ../../../Library/StdDriver/src/spi.c:78:12
	ldr	r0, [sp, #8]                    @ 4-byte Reload
.Ltmp26:
	cmp	r0, r7
	bls	.LBB0_11
	b	.LBB0_50
.Ltmp27:
.LBB0_11:
	@DEBUG_VALUE: SPI_Open:u32SPIMode <- $r6
	@DEBUG_VALUE: SPI_Open:spi <- [DW_OP_plus_uconst 16] [$sp+0]
	@DEBUG_VALUE: SPI_Open:u32PCLK0Freq <- [DW_OP_plus_uconst 4] [$sp+0]
	@DEBUG_VALUE: SPI_Open:u32HCLKFreq <- [DW_OP_plus_uconst 8] [$sp+0]
	@DEBUG_VALUE: SPI_Open:u32MasterSlave <- [DW_OP_plus_uconst 12] [$sp+0]
	@DEBUG_VALUE: SPI_Open:u32BusClock <- [DW_OP_plus_uconst 40] [$sp+0]
	@DEBUG_VALUE: SPI_Open:u32ClkSrc <- 0
	@DEBUG_VALUE: SPI_Open:u32RetValue <- 0
	.loc	5 0 12 is_stmt 0                @ ../../../Library/StdDriver/src/spi.c:0:12
	ldr	r0, __arm_cp.0_0
.Ltmp28:
	.loc	5 80 25 is_stmt 1               @ ../../../Library/StdDriver/src/spi.c:80:25
	adds	r4, r0, #1
	.loc	5 80 18 is_stmt 0               @ ../../../Library/StdDriver/src/spi.c:80:18
	bl	__PC
.Ltmp29:
	.loc	5 80 16                         @ ../../../Library/StdDriver/src/spi.c:80:16
	tst	r0, r4
	beq	.LBB0_12
	b	.LBB0_50
.Ltmp30:
.LBB0_12:
	@DEBUG_VALUE: SPI_Open:u32SPIMode <- $r6
	@DEBUG_VALUE: SPI_Open:spi <- [DW_OP_plus_uconst 16] [$sp+0]
	@DEBUG_VALUE: SPI_Open:u32PCLK0Freq <- [DW_OP_plus_uconst 4] [$sp+0]
	@DEBUG_VALUE: SPI_Open:u32HCLKFreq <- [DW_OP_plus_uconst 8] [$sp+0]
	@DEBUG_VALUE: SPI_Open:u32MasterSlave <- [DW_OP_plus_uconst 12] [$sp+0]
	@DEBUG_VALUE: SPI_Open:u32BusClock <- [DW_OP_plus_uconst 40] [$sp+0]
	@DEBUG_VALUE: SPI_Open:u32ClkSrc <- 0
	@DEBUG_VALUE: SPI_Open:u32RetValue <- 0
	.loc	5 0 16                          @ ../../../Library/StdDriver/src/spi.c:0:16
	ldr	r0, __arm_cp.0_1
.Ltmp31:
	.loc	5 83 20 is_stmt 1               @ ../../../Library/StdDriver/src/spi.c:83:20
	cmp	r5, r0
	bne	.LBB0_13
	b	.LBB0_45
.Ltmp32:
.LBB0_13:
	@DEBUG_VALUE: SPI_Open:u32SPIMode <- $r6
	@DEBUG_VALUE: SPI_Open:spi <- [DW_OP_plus_uconst 16] [$sp+0]
	@DEBUG_VALUE: SPI_Open:u32PCLK0Freq <- [DW_OP_plus_uconst 4] [$sp+0]
	@DEBUG_VALUE: SPI_Open:u32HCLKFreq <- [DW_OP_plus_uconst 8] [$sp+0]
	@DEBUG_VALUE: SPI_Open:u32MasterSlave <- [DW_OP_plus_uconst 12] [$sp+0]
	@DEBUG_VALUE: SPI_Open:u32BusClock <- [DW_OP_plus_uconst 40] [$sp+0]
	@DEBUG_VALUE: SPI_Open:u32ClkSrc <- 0
	@DEBUG_VALUE: SPI_Open:u32RetValue <- 0
	.loc	5 0 20 is_stmt 0                @ ../../../Library/StdDriver/src/spi.c:0:20
	ldr	r0, __arm_cp.0_2
	.loc	5 83 20                         @ ../../../Library/StdDriver/src/spi.c:83:20
	cmp	r5, r0
	bne	.LBB0_14
	b	.LBB0_47
.Ltmp33:
.LBB0_14:
	@DEBUG_VALUE: SPI_Open:u32SPIMode <- $r6
	@DEBUG_VALUE: SPI_Open:spi <- [DW_OP_plus_uconst 16] [$sp+0]
	@DEBUG_VALUE: SPI_Open:u32PCLK0Freq <- [DW_OP_plus_uconst 4] [$sp+0]
	@DEBUG_VALUE: SPI_Open:u32HCLKFreq <- [DW_OP_plus_uconst 8] [$sp+0]
	@DEBUG_VALUE: SPI_Open:u32MasterSlave <- [DW_OP_plus_uconst 12] [$sp+0]
	@DEBUG_VALUE: SPI_Open:u32BusClock <- [DW_OP_plus_uconst 40] [$sp+0]
	@DEBUG_VALUE: SPI_Open:u32ClkSrc <- 0
	@DEBUG_VALUE: SPI_Open:u32RetValue <- 0
	.loc	5 0 20                          @ ../../../Library/StdDriver/src/spi.c:0:20
	ldr	r0, __arm_cp.0_3
	.loc	5 83 20                         @ ../../../Library/StdDriver/src/spi.c:83:20
	cmp	r5, r0
	beq	.LBB0_15
	b	.LBB0_48
.Ltmp34:
.LBB0_15:
	@DEBUG_VALUE: SPI_Open:u32SPIMode <- $r6
	@DEBUG_VALUE: SPI_Open:spi <- [DW_OP_plus_uconst 16] [$sp+0]
	@DEBUG_VALUE: SPI_Open:u32PCLK0Freq <- [DW_OP_plus_uconst 4] [$sp+0]
	@DEBUG_VALUE: SPI_Open:u32HCLKFreq <- [DW_OP_plus_uconst 8] [$sp+0]
	@DEBUG_VALUE: SPI_Open:u32MasterSlave <- [DW_OP_plus_uconst 12] [$sp+0]
	@DEBUG_VALUE: SPI_Open:u32BusClock <- [DW_OP_plus_uconst 40] [$sp+0]
	@DEBUG_VALUE: SPI_Open:u32ClkSrc <- 0
	@DEBUG_VALUE: SPI_Open:u32RetValue <- 0
	.loc	5 0 20                          @ ../../../Library/StdDriver/src/spi.c:0:20
	ldr	r0, __arm_cp.0_12
.Ltmp35:
	.loc	5 85 42 is_stmt 1               @ ../../../Library/StdDriver/src/spi.c:85:42
	ldr	r1, [r0]
	movs	r2, #32
	.loc	5 85 50 is_stmt 0               @ ../../../Library/StdDriver/src/spi.c:85:50
	orrs	r2, r1
	movs	r1, #16
	b	.LBB0_46
.Ltmp36:
.LBB0_16:
	@DEBUG_VALUE: SPI_Open:u32PCLK1Freq <- $r7
	@DEBUG_VALUE: SPI_Open:spi <- [DW_OP_plus_uconst 16] [$sp+0]
	@DEBUG_VALUE: SPI_Open:u32PCLK0Freq <- [DW_OP_plus_uconst 4] [$sp+0]
	@DEBUG_VALUE: SPI_Open:u32HCLKFreq <- [DW_OP_plus_uconst 8] [$sp+0]
	@DEBUG_VALUE: SPI_Open:u32MasterSlave <- [DW_OP_plus_uconst 12] [$sp+0]
	@DEBUG_VALUE: SPI_Open:u32BusClock <- [DW_OP_plus_uconst 40] [$sp+0]
	@DEBUG_VALUE: SPI_Open:u32ClkSrc <- 0
	@DEBUG_VALUE: SPI_Open:u32RetValue <- 0
	.loc	5 0 50                          @ ../../../Library/StdDriver/src/spi.c:0:50
	ldr	r0, __arm_cp.0_1
.Ltmp37:
	.loc	5 233 16 is_stmt 1              @ ../../../Library/StdDriver/src/spi.c:233:16
	cmp	r5, r0
	beq	.LBB0_29
.Ltmp38:
@ %bb.17:
	@DEBUG_VALUE: SPI_Open:u32PCLK1Freq <- $r7
	@DEBUG_VALUE: SPI_Open:spi <- [DW_OP_plus_uconst 16] [$sp+0]
	@DEBUG_VALUE: SPI_Open:u32PCLK0Freq <- [DW_OP_plus_uconst 4] [$sp+0]
	@DEBUG_VALUE: SPI_Open:u32HCLKFreq <- [DW_OP_plus_uconst 8] [$sp+0]
	@DEBUG_VALUE: SPI_Open:u32MasterSlave <- [DW_OP_plus_uconst 12] [$sp+0]
	@DEBUG_VALUE: SPI_Open:u32BusClock <- [DW_OP_plus_uconst 40] [$sp+0]
	@DEBUG_VALUE: SPI_Open:u32ClkSrc <- 0
	@DEBUG_VALUE: SPI_Open:u32RetValue <- 0
	.loc	5 0 16 is_stmt 0                @ ../../../Library/StdDriver/src/spi.c:0:16
	ldr	r0, __arm_cp.0_2
	.loc	5 233 16                        @ ../../../Library/StdDriver/src/spi.c:233:16
	cmp	r5, r0
	ldr	r6, [sp, #4]                    @ 4-byte Reload
	beq	.LBB0_30
.Ltmp39:
@ %bb.18:
	@DEBUG_VALUE: SPI_Open:u32PCLK1Freq <- $r7
	@DEBUG_VALUE: SPI_Open:spi <- [DW_OP_plus_uconst 16] [$sp+0]
	@DEBUG_VALUE: SPI_Open:u32PCLK0Freq <- [DW_OP_plus_uconst 4] [$sp+0]
	@DEBUG_VALUE: SPI_Open:u32HCLKFreq <- [DW_OP_plus_uconst 8] [$sp+0]
	@DEBUG_VALUE: SPI_Open:u32MasterSlave <- [DW_OP_plus_uconst 12] [$sp+0]
	@DEBUG_VALUE: SPI_Open:u32BusClock <- [DW_OP_plus_uconst 40] [$sp+0]
	@DEBUG_VALUE: SPI_Open:u32ClkSrc <- 0
	@DEBUG_VALUE: SPI_Open:u32RetValue <- 0
	.loc	5 0 16                          @ ../../../Library/StdDriver/src/spi.c:0:16
	ldr	r0, __arm_cp.0_3
	.loc	5 233 16                        @ ../../../Library/StdDriver/src/spi.c:233:16
	cmp	r5, r0
	bne	.LBB0_31
.Ltmp40:
@ %bb.19:
	@DEBUG_VALUE: SPI_Open:u32PCLK1Freq <- $r7
	@DEBUG_VALUE: SPI_Open:spi <- [DW_OP_plus_uconst 16] [$sp+0]
	@DEBUG_VALUE: SPI_Open:u32PCLK0Freq <- [DW_OP_plus_uconst 4] [$sp+0]
	@DEBUG_VALUE: SPI_Open:u32HCLKFreq <- [DW_OP_plus_uconst 8] [$sp+0]
	@DEBUG_VALUE: SPI_Open:u32MasterSlave <- [DW_OP_plus_uconst 12] [$sp+0]
	@DEBUG_VALUE: SPI_Open:u32BusClock <- [DW_OP_plus_uconst 40] [$sp+0]
	@DEBUG_VALUE: SPI_Open:u32ClkSrc <- 0
	@DEBUG_VALUE: SPI_Open:u32RetValue <- 0
	.loc	5 0 16                          @ ../../../Library/StdDriver/src/spi.c:0:16
	ldr	r0, __arm_cp.0_12
.Ltmp41:
	.loc	5 235 38 is_stmt 1              @ ../../../Library/StdDriver/src/spi.c:235:38
	ldr	r1, [r0]
	movs	r2, #32
	.loc	5 235 46 is_stmt 0              @ ../../../Library/StdDriver/src/spi.c:235:46
	orrs	r2, r1
	movs	r1, #16
	.loc	5 235 76                        @ ../../../Library/StdDriver/src/spi.c:235:76
	bics	r2, r1
	.loc	5 235 30                        @ ../../../Library/StdDriver/src/spi.c:235:30
	str	r2, [r0]
.Ltmp42:
	@DEBUG_VALUE: SPI_Open:u32RetValue <- $r7
	.loc	5 0 0                           @ ../../../Library/StdDriver/src/spi.c:0:0
	mov	r6, r7
.Ltmp43:
	@DEBUG_VALUE: SPI_Open:u32PCLK1Freq <- $r6
	@DEBUG_VALUE: SPI_Open:u32RetValue <- $r6
	.loc	5 238 13 is_stmt 1              @ ../../../Library/StdDriver/src/spi.c:238:13
	b	.LBB0_77
.Ltmp44:
.LBB0_20:
	@DEBUG_VALUE: SPI_Open:u32PCLK1Freq <- $r7
	@DEBUG_VALUE: SPI_Open:spi <- [DW_OP_plus_uconst 16] [$sp+0]
	@DEBUG_VALUE: SPI_Open:u32PCLK0Freq <- [DW_OP_plus_uconst 4] [$sp+0]
	@DEBUG_VALUE: SPI_Open:u32HCLKFreq <- [DW_OP_plus_uconst 8] [$sp+0]
	@DEBUG_VALUE: SPI_Open:u32MasterSlave <- [DW_OP_plus_uconst 12] [$sp+0]
	@DEBUG_VALUE: SPI_Open:u32BusClock <- [DW_OP_plus_uconst 40] [$sp+0]
	@DEBUG_VALUE: SPI_Open:u32ClkSrc <- 0
	@DEBUG_VALUE: SPI_Open:u32RetValue <- 0
	.loc	5 0 13 is_stmt 0                @ ../../../Library/StdDriver/src/spi.c:0:13
	ldr	r4, __arm_cp.0_7
.Ltmp45:
	.loc	5 282 21 is_stmt 1              @ ../../../Library/StdDriver/src/spi.c:282:21
	mov	r0, r4
	bl	CLK_GetModuleClockSource
.Ltmp46:
	.loc	5 282 20 is_stmt 0              @ ../../../Library/StdDriver/src/spi.c:282:20
	lsls	r0, r0, #6
	ldr	r5, __arm_cp.0_6
	beq	.LBB0_33
.Ltmp47:
@ %bb.21:
	@DEBUG_VALUE: SPI_Open:u32PCLK1Freq <- $r7
	@DEBUG_VALUE: SPI_Open:spi <- [DW_OP_plus_uconst 16] [$sp+0]
	@DEBUG_VALUE: SPI_Open:u32PCLK0Freq <- [DW_OP_plus_uconst 4] [$sp+0]
	@DEBUG_VALUE: SPI_Open:u32HCLKFreq <- [DW_OP_plus_uconst 8] [$sp+0]
	@DEBUG_VALUE: SPI_Open:u32MasterSlave <- [DW_OP_plus_uconst 12] [$sp+0]
	@DEBUG_VALUE: SPI_Open:u32BusClock <- [DW_OP_plus_uconst 40] [$sp+0]
	@DEBUG_VALUE: SPI_Open:u32ClkSrc <- 0
	@DEBUG_VALUE: SPI_Open:u32RetValue <- 0
	.loc	5 0 20                          @ ../../../Library/StdDriver/src/spi.c:0:20
	ldr	r6, __arm_cp.0_8
.Ltmp48:
	.loc	5 286 26 is_stmt 1              @ ../../../Library/StdDriver/src/spi.c:286:26
	mov	r0, r4
	bl	CLK_GetModuleClockSource
	.loc	5 286 92 is_stmt 0              @ ../../../Library/StdDriver/src/spi.c:286:92
	ands	r0, r6
.Ltmp49:
	.loc	5 286 25                        @ ../../../Library/StdDriver/src/spi.c:286:25
	cmp	r0, #1
	bne	.LBB0_38
.Ltmp50:
@ %bb.22:
	@DEBUG_VALUE: SPI_Open:u32PCLK1Freq <- $r7
	@DEBUG_VALUE: SPI_Open:spi <- [DW_OP_plus_uconst 16] [$sp+0]
	@DEBUG_VALUE: SPI_Open:u32PCLK0Freq <- [DW_OP_plus_uconst 4] [$sp+0]
	@DEBUG_VALUE: SPI_Open:u32HCLKFreq <- [DW_OP_plus_uconst 8] [$sp+0]
	@DEBUG_VALUE: SPI_Open:u32MasterSlave <- [DW_OP_plus_uconst 12] [$sp+0]
	@DEBUG_VALUE: SPI_Open:u32BusClock <- [DW_OP_plus_uconst 40] [$sp+0]
	@DEBUG_VALUE: SPI_Open:u32ClkSrc <- 0
	@DEBUG_VALUE: SPI_Open:u32RetValue <- 0
	.loc	5 288 35 is_stmt 1              @ ../../../Library/StdDriver/src/spi.c:288:35
	bl	CLK_GetPLLClockFreq
	mov	r6, r0
.Ltmp51:
	@DEBUG_VALUE: SPI_Open:u32RetValue <- $r6
	.loc	5 289 17                        @ ../../../Library/StdDriver/src/spi.c:289:17
	b	.LBB0_77
.Ltmp52:
.LBB0_23:
	@DEBUG_VALUE: SPI_Open:u32PCLK1Freq <- $r7
	@DEBUG_VALUE: SPI_Open:spi <- [DW_OP_plus_uconst 16] [$sp+0]
	@DEBUG_VALUE: SPI_Open:u32PCLK0Freq <- [DW_OP_plus_uconst 4] [$sp+0]
	@DEBUG_VALUE: SPI_Open:u32HCLKFreq <- [DW_OP_plus_uconst 8] [$sp+0]
	@DEBUG_VALUE: SPI_Open:u32MasterSlave <- [DW_OP_plus_uconst 12] [$sp+0]
	@DEBUG_VALUE: SPI_Open:u32BusClock <- [DW_OP_plus_uconst 40] [$sp+0]
	@DEBUG_VALUE: SPI_Open:u32ClkSrc <- 0
	@DEBUG_VALUE: SPI_Open:u32RetValue <- 0
	.loc	5 0 17 is_stmt 0                @ ../../../Library/StdDriver/src/spi.c:0:17
	ldr	r4, __arm_cp.0_4
.Ltmp53:
	.loc	5 301 21 is_stmt 1              @ ../../../Library/StdDriver/src/spi.c:301:21
	mov	r0, r4
	bl	CLK_GetModuleClockSource
.Ltmp54:
	.loc	5 301 20 is_stmt 0              @ ../../../Library/StdDriver/src/spi.c:301:20
	lsls	r0, r0, #10
	ldr	r6, __arm_cp.0_6
	bne	.LBB0_24
	b	.LBB0_77
.Ltmp55:
.LBB0_24:
	@DEBUG_VALUE: SPI_Open:u32PCLK1Freq <- $r7
	@DEBUG_VALUE: SPI_Open:spi <- [DW_OP_plus_uconst 16] [$sp+0]
	@DEBUG_VALUE: SPI_Open:u32PCLK0Freq <- [DW_OP_plus_uconst 4] [$sp+0]
	@DEBUG_VALUE: SPI_Open:u32HCLKFreq <- [DW_OP_plus_uconst 8] [$sp+0]
	@DEBUG_VALUE: SPI_Open:u32MasterSlave <- [DW_OP_plus_uconst 12] [$sp+0]
	@DEBUG_VALUE: SPI_Open:u32BusClock <- [DW_OP_plus_uconst 40] [$sp+0]
	@DEBUG_VALUE: SPI_Open:u32ClkSrc <- 0
	@DEBUG_VALUE: SPI_Open:u32RetValue <- 0
	.loc	5 0 20                          @ ../../../Library/StdDriver/src/spi.c:0:20
	ldr	r5, __arm_cp.0_5
.Ltmp56:
	.loc	5 305 26 is_stmt 1              @ ../../../Library/StdDriver/src/spi.c:305:26
	mov	r0, r4
	bl	CLK_GetModuleClockSource
	.loc	5 305 92 is_stmt 0              @ ../../../Library/StdDriver/src/spi.c:305:92
	ands	r0, r5
.Ltmp57:
	.loc	5 305 25                        @ ../../../Library/StdDriver/src/spi.c:305:25
	cmp	r0, #1
	bne	.LBB0_40
.Ltmp58:
@ %bb.25:
	@DEBUG_VALUE: SPI_Open:u32PCLK1Freq <- $r7
	@DEBUG_VALUE: SPI_Open:spi <- [DW_OP_plus_uconst 16] [$sp+0]
	@DEBUG_VALUE: SPI_Open:u32PCLK0Freq <- [DW_OP_plus_uconst 4] [$sp+0]
	@DEBUG_VALUE: SPI_Open:u32HCLKFreq <- [DW_OP_plus_uconst 8] [$sp+0]
	@DEBUG_VALUE: SPI_Open:u32MasterSlave <- [DW_OP_plus_uconst 12] [$sp+0]
	@DEBUG_VALUE: SPI_Open:u32BusClock <- [DW_OP_plus_uconst 40] [$sp+0]
	@DEBUG_VALUE: SPI_Open:u32ClkSrc <- 0
	@DEBUG_VALUE: SPI_Open:u32RetValue <- 0
	.loc	5 307 35 is_stmt 1              @ ../../../Library/StdDriver/src/spi.c:307:35
	bl	CLK_GetPLLClockFreq
	mov	r6, r0
.Ltmp59:
	@DEBUG_VALUE: SPI_Open:u32RetValue <- $r6
	.loc	5 308 17                        @ ../../../Library/StdDriver/src/spi.c:308:17
	b	.LBB0_77
.Ltmp60:
.LBB0_26:
	@DEBUG_VALUE: SPI_Open:u32PCLK1Freq <- $r7
	@DEBUG_VALUE: SPI_Open:spi <- [DW_OP_plus_uconst 16] [$sp+0]
	@DEBUG_VALUE: SPI_Open:u32PCLK0Freq <- [DW_OP_plus_uconst 4] [$sp+0]
	@DEBUG_VALUE: SPI_Open:u32HCLKFreq <- [DW_OP_plus_uconst 8] [$sp+0]
	@DEBUG_VALUE: SPI_Open:u32MasterSlave <- [DW_OP_plus_uconst 12] [$sp+0]
	@DEBUG_VALUE: SPI_Open:u32BusClock <- [DW_OP_plus_uconst 40] [$sp+0]
	@DEBUG_VALUE: SPI_Open:u32ClkSrc <- 0
	@DEBUG_VALUE: SPI_Open:u32RetValue <- 0
	.loc	5 0 17 is_stmt 0                @ ../../../Library/StdDriver/src/spi.c:0:17
	ldr	r4, __arm_cp.0_10
.Ltmp61:
	.loc	5 320 21 is_stmt 1              @ ../../../Library/StdDriver/src/spi.c:320:21
	mov	r0, r4
	bl	CLK_GetModuleClockSource
.Ltmp62:
	.loc	5 320 20 is_stmt 0              @ ../../../Library/StdDriver/src/spi.c:320:20
	lsls	r0, r0, #12
	ldr	r5, __arm_cp.0_6
	beq	.LBB0_34
.Ltmp63:
@ %bb.27:
	@DEBUG_VALUE: SPI_Open:u32PCLK1Freq <- $r7
	@DEBUG_VALUE: SPI_Open:spi <- [DW_OP_plus_uconst 16] [$sp+0]
	@DEBUG_VALUE: SPI_Open:u32PCLK0Freq <- [DW_OP_plus_uconst 4] [$sp+0]
	@DEBUG_VALUE: SPI_Open:u32HCLKFreq <- [DW_OP_plus_uconst 8] [$sp+0]
	@DEBUG_VALUE: SPI_Open:u32MasterSlave <- [DW_OP_plus_uconst 12] [$sp+0]
	@DEBUG_VALUE: SPI_Open:u32BusClock <- [DW_OP_plus_uconst 40] [$sp+0]
	@DEBUG_VALUE: SPI_Open:u32ClkSrc <- 0
	@DEBUG_VALUE: SPI_Open:u32RetValue <- 0
	.loc	5 0 20                          @ ../../../Library/StdDriver/src/spi.c:0:20
	ldr	r6, __arm_cp.0_11
.Ltmp64:
	.loc	5 324 26 is_stmt 1              @ ../../../Library/StdDriver/src/spi.c:324:26
	mov	r0, r4
	bl	CLK_GetModuleClockSource
	.loc	5 324 92 is_stmt 0              @ ../../../Library/StdDriver/src/spi.c:324:92
	ands	r0, r6
.Ltmp65:
	.loc	5 324 25                        @ ../../../Library/StdDriver/src/spi.c:324:25
	cmp	r0, #1
	bne	.LBB0_43
.Ltmp66:
@ %bb.28:
	@DEBUG_VALUE: SPI_Open:u32PCLK1Freq <- $r7
	@DEBUG_VALUE: SPI_Open:spi <- [DW_OP_plus_uconst 16] [$sp+0]
	@DEBUG_VALUE: SPI_Open:u32PCLK0Freq <- [DW_OP_plus_uconst 4] [$sp+0]
	@DEBUG_VALUE: SPI_Open:u32HCLKFreq <- [DW_OP_plus_uconst 8] [$sp+0]
	@DEBUG_VALUE: SPI_Open:u32MasterSlave <- [DW_OP_plus_uconst 12] [$sp+0]
	@DEBUG_VALUE: SPI_Open:u32BusClock <- [DW_OP_plus_uconst 40] [$sp+0]
	@DEBUG_VALUE: SPI_Open:u32ClkSrc <- 0
	@DEBUG_VALUE: SPI_Open:u32RetValue <- 0
	.loc	5 326 35 is_stmt 1              @ ../../../Library/StdDriver/src/spi.c:326:35
	bl	CLK_GetPLLClockFreq
	mov	r6, r0
.Ltmp67:
	@DEBUG_VALUE: SPI_Open:u32RetValue <- $r6
	.loc	5 327 17                        @ ../../../Library/StdDriver/src/spi.c:327:17
	b	.LBB0_77
.Ltmp68:
.LBB0_29:
	@DEBUG_VALUE: SPI_Open:u32PCLK1Freq <- $r7
	@DEBUG_VALUE: SPI_Open:spi <- [DW_OP_plus_uconst 16] [$sp+0]
	@DEBUG_VALUE: SPI_Open:u32PCLK0Freq <- [DW_OP_plus_uconst 4] [$sp+0]
	@DEBUG_VALUE: SPI_Open:u32HCLKFreq <- [DW_OP_plus_uconst 8] [$sp+0]
	@DEBUG_VALUE: SPI_Open:u32MasterSlave <- [DW_OP_plus_uconst 12] [$sp+0]
	@DEBUG_VALUE: SPI_Open:u32BusClock <- [DW_OP_plus_uconst 40] [$sp+0]
	@DEBUG_VALUE: SPI_Open:u32ClkSrc <- 0
	@DEBUG_VALUE: SPI_Open:u32RetValue <- 0
	.loc	5 0 17 is_stmt 0                @ ../../../Library/StdDriver/src/spi.c:0:17
	ldr	r0, __arm_cp.0_12
.Ltmp69:
	.loc	5 241 38 is_stmt 1              @ ../../../Library/StdDriver/src/spi.c:241:38
	ldr	r1, [r0]
	movs	r2, #128
	.loc	5 241 46 is_stmt 0              @ ../../../Library/StdDriver/src/spi.c:241:46
	orrs	r2, r1
	movs	r1, #64
	.loc	5 241 76                        @ ../../../Library/StdDriver/src/spi.c:241:76
	bics	r2, r1
	.loc	5 241 30                        @ ../../../Library/StdDriver/src/spi.c:241:30
	str	r2, [r0]
.Ltmp70:
	@DEBUG_VALUE: SPI_Open:u32RetValue <- [DW_OP_plus_uconst 4] [$sp+0]
	.loc	5 0 30                          @ ../../../Library/StdDriver/src/spi.c:0:30
	ldr	r6, [sp, #4]                    @ 4-byte Reload
.Ltmp71:
	@DEBUG_VALUE: SPI_Open:u32RetValue <- $r6
	.loc	5 244 13 is_stmt 1              @ ../../../Library/StdDriver/src/spi.c:244:13
	b	.LBB0_77
.Ltmp72:
.LBB0_30:
	@DEBUG_VALUE: SPI_Open:u32PCLK1Freq <- $r7
	@DEBUG_VALUE: SPI_Open:spi <- [DW_OP_plus_uconst 16] [$sp+0]
	@DEBUG_VALUE: SPI_Open:u32PCLK0Freq <- [DW_OP_plus_uconst 4] [$sp+0]
	@DEBUG_VALUE: SPI_Open:u32HCLKFreq <- [DW_OP_plus_uconst 8] [$sp+0]
	@DEBUG_VALUE: SPI_Open:u32MasterSlave <- [DW_OP_plus_uconst 12] [$sp+0]
	@DEBUG_VALUE: SPI_Open:u32BusClock <- [DW_OP_plus_uconst 40] [$sp+0]
	@DEBUG_VALUE: SPI_Open:u32ClkSrc <- 0
	@DEBUG_VALUE: SPI_Open:u32RetValue <- 0
	.loc	5 0 13 is_stmt 0                @ ../../../Library/StdDriver/src/spi.c:0:13
	ldr	r0, __arm_cp.0_12
.Ltmp73:
	.loc	5 247 38 is_stmt 1              @ ../../../Library/StdDriver/src/spi.c:247:38
	ldr	r1, [r0]
	movw	r2, #3072
	.loc	5 247 46 is_stmt 0              @ ../../../Library/StdDriver/src/spi.c:247:46
	bics	r1, r2
	movw	r2, #2048
	.loc	5 247 76                        @ ../../../Library/StdDriver/src/spi.c:247:76
	adds	r1, r1, r2
	.loc	5 247 30                        @ ../../../Library/StdDriver/src/spi.c:247:30
	str	r1, [r0]
.Ltmp74:
	@DEBUG_VALUE: SPI_Open:u32RetValue <- $r7
	.loc	5 0 0                           @ ../../../Library/StdDriver/src/spi.c:0:0
	mov	r6, r7
.Ltmp75:
	@DEBUG_VALUE: SPI_Open:u32PCLK1Freq <- $r6
	@DEBUG_VALUE: SPI_Open:u32RetValue <- $r6
	.loc	5 250 13 is_stmt 1              @ ../../../Library/StdDriver/src/spi.c:250:13
	b	.LBB0_77
.Ltmp76:
.LBB0_31:
	@DEBUG_VALUE: SPI_Open:u32PCLK1Freq <- $r7
	@DEBUG_VALUE: SPI_Open:spi <- [DW_OP_plus_uconst 16] [$sp+0]
	@DEBUG_VALUE: SPI_Open:u32PCLK0Freq <- [DW_OP_plus_uconst 4] [$sp+0]
	@DEBUG_VALUE: SPI_Open:u32HCLKFreq <- [DW_OP_plus_uconst 8] [$sp+0]
	@DEBUG_VALUE: SPI_Open:u32MasterSlave <- [DW_OP_plus_uconst 12] [$sp+0]
	@DEBUG_VALUE: SPI_Open:u32BusClock <- [DW_OP_plus_uconst 40] [$sp+0]
	@DEBUG_VALUE: SPI_Open:u32ClkSrc <- 0
	@DEBUG_VALUE: SPI_Open:u32RetValue <- 0
	.loc	5 0 13 is_stmt 0                @ ../../../Library/StdDriver/src/spi.c:0:13
	ldr	r0, __arm_cp.0_12
.Ltmp77:
	.loc	5 253 38 is_stmt 1              @ ../../../Library/StdDriver/src/spi.c:253:38
	ldr	r1, [r0]
	movw	r2, #12288
	.loc	5 253 46 is_stmt 0              @ ../../../Library/StdDriver/src/spi.c:253:46
	bics	r1, r2
	movw	r2, #8192
	.loc	5 253 76                        @ ../../../Library/StdDriver/src/spi.c:253:76
	adds	r1, r1, r2
	.loc	5 253 30                        @ ../../../Library/StdDriver/src/spi.c:253:30
	str	r1, [r0]
.Ltmp78:
	@DEBUG_VALUE: SPI_Open:u32RetValue <- $r6
	.loc	5 0 30                          @ ../../../Library/StdDriver/src/spi.c:0:30
	b	.LBB0_77
.Ltmp79:
.LBB0_32:
	@DEBUG_VALUE: SPI_Open:u32PCLK1Freq <- $r7
	@DEBUG_VALUE: SPI_Open:spi <- [DW_OP_plus_uconst 16] [$sp+0]
	@DEBUG_VALUE: SPI_Open:u32PCLK0Freq <- [DW_OP_plus_uconst 4] [$sp+0]
	@DEBUG_VALUE: SPI_Open:u32HCLKFreq <- [DW_OP_plus_uconst 8] [$sp+0]
	@DEBUG_VALUE: SPI_Open:u32MasterSlave <- [DW_OP_plus_uconst 12] [$sp+0]
	@DEBUG_VALUE: SPI_Open:u32BusClock <- [DW_OP_plus_uconst 40] [$sp+0]
	@DEBUG_VALUE: SPI_Open:u32ClkSrc <- 0
	@DEBUG_VALUE: SPI_Open:u32RetValue <- 0
	mov	r6, r5
	b	.LBB0_77
.Ltmp80:
.LBB0_33:
	@DEBUG_VALUE: SPI_Open:u32PCLK1Freq <- $r7
	@DEBUG_VALUE: SPI_Open:spi <- [DW_OP_plus_uconst 16] [$sp+0]
	@DEBUG_VALUE: SPI_Open:u32PCLK0Freq <- [DW_OP_plus_uconst 4] [$sp+0]
	@DEBUG_VALUE: SPI_Open:u32HCLKFreq <- [DW_OP_plus_uconst 8] [$sp+0]
	@DEBUG_VALUE: SPI_Open:u32MasterSlave <- [DW_OP_plus_uconst 12] [$sp+0]
	@DEBUG_VALUE: SPI_Open:u32BusClock <- [DW_OP_plus_uconst 40] [$sp+0]
	@DEBUG_VALUE: SPI_Open:u32ClkSrc <- 0
	@DEBUG_VALUE: SPI_Open:u32RetValue <- 0
	mov	r6, r5
	b	.LBB0_77
.Ltmp81:
.LBB0_34:
	@DEBUG_VALUE: SPI_Open:u32PCLK1Freq <- $r7
	@DEBUG_VALUE: SPI_Open:spi <- [DW_OP_plus_uconst 16] [$sp+0]
	@DEBUG_VALUE: SPI_Open:u32PCLK0Freq <- [DW_OP_plus_uconst 4] [$sp+0]
	@DEBUG_VALUE: SPI_Open:u32HCLKFreq <- [DW_OP_plus_uconst 8] [$sp+0]
	@DEBUG_VALUE: SPI_Open:u32MasterSlave <- [DW_OP_plus_uconst 12] [$sp+0]
	@DEBUG_VALUE: SPI_Open:u32BusClock <- [DW_OP_plus_uconst 40] [$sp+0]
	@DEBUG_VALUE: SPI_Open:u32ClkSrc <- 0
	@DEBUG_VALUE: SPI_Open:u32RetValue <- 0
	mov	r6, r5
	b	.LBB0_77
.Ltmp82:
.LBB0_35:
	@DEBUG_VALUE: SPI_Open:u32PCLK1Freq <- $r7
	@DEBUG_VALUE: SPI_Open:spi <- [DW_OP_plus_uconst 16] [$sp+0]
	@DEBUG_VALUE: SPI_Open:u32PCLK0Freq <- [DW_OP_plus_uconst 4] [$sp+0]
	@DEBUG_VALUE: SPI_Open:u32HCLKFreq <- [DW_OP_plus_uconst 8] [$sp+0]
	@DEBUG_VALUE: SPI_Open:u32MasterSlave <- [DW_OP_plus_uconst 12] [$sp+0]
	@DEBUG_VALUE: SPI_Open:u32BusClock <- [DW_OP_plus_uconst 40] [$sp+0]
	@DEBUG_VALUE: SPI_Open:u32ClkSrc <- 0
	@DEBUG_VALUE: SPI_Open:u32RetValue <- 0
	.loc	5 271 26 is_stmt 1              @ ../../../Library/StdDriver/src/spi.c:271:26
	mov	r0, r4
	bl	CLK_GetModuleClockSource
	.loc	5 271 92 is_stmt 0              @ ../../../Library/StdDriver/src/spi.c:271:92
	ands	r0, r6
.Ltmp83:
	.loc	5 271 25                        @ ../../../Library/StdDriver/src/spi.c:271:25
	cmp	r0, #2
	mov	r0, r7
	beq	.LBB0_37
.Ltmp84:
@ %bb.36:
	@DEBUG_VALUE: SPI_Open:u32PCLK1Freq <- $r7
	@DEBUG_VALUE: SPI_Open:spi <- [DW_OP_plus_uconst 16] [$sp+0]
	@DEBUG_VALUE: SPI_Open:u32PCLK0Freq <- [DW_OP_plus_uconst 4] [$sp+0]
	@DEBUG_VALUE: SPI_Open:u32HCLKFreq <- [DW_OP_plus_uconst 8] [$sp+0]
	@DEBUG_VALUE: SPI_Open:u32MasterSlave <- [DW_OP_plus_uconst 12] [$sp+0]
	@DEBUG_VALUE: SPI_Open:u32BusClock <- [DW_OP_plus_uconst 40] [$sp+0]
	@DEBUG_VALUE: SPI_Open:u32ClkSrc <- 0
	@DEBUG_VALUE: SPI_Open:u32RetValue <- 0
	mov	r0, r5
.Ltmp85:
.LBB0_37:
	@DEBUG_VALUE: SPI_Open:u32PCLK1Freq <- $r7
	@DEBUG_VALUE: SPI_Open:spi <- [DW_OP_plus_uconst 16] [$sp+0]
	@DEBUG_VALUE: SPI_Open:u32PCLK0Freq <- [DW_OP_plus_uconst 4] [$sp+0]
	@DEBUG_VALUE: SPI_Open:u32HCLKFreq <- [DW_OP_plus_uconst 8] [$sp+0]
	@DEBUG_VALUE: SPI_Open:u32MasterSlave <- [DW_OP_plus_uconst 12] [$sp+0]
	@DEBUG_VALUE: SPI_Open:u32BusClock <- [DW_OP_plus_uconst 40] [$sp+0]
	@DEBUG_VALUE: SPI_Open:u32ClkSrc <- 0
	@DEBUG_VALUE: SPI_Open:u32RetValue <- 0
	add	sp, #20
.Ltmp86:
	pop	{r4, r5, r6, r7, pc}
.Ltmp87:
.LBB0_38:
	@DEBUG_VALUE: SPI_Open:u32PCLK1Freq <- $r7
	@DEBUG_VALUE: SPI_Open:spi <- [DW_OP_plus_uconst 16] [$sp+0]
	@DEBUG_VALUE: SPI_Open:u32PCLK0Freq <- [DW_OP_plus_uconst 4] [$sp+0]
	@DEBUG_VALUE: SPI_Open:u32HCLKFreq <- [DW_OP_plus_uconst 8] [$sp+0]
	@DEBUG_VALUE: SPI_Open:u32MasterSlave <- [DW_OP_plus_uconst 12] [$sp+0]
	@DEBUG_VALUE: SPI_Open:u32BusClock <- [DW_OP_plus_uconst 40] [$sp+0]
	@DEBUG_VALUE: SPI_Open:u32ClkSrc <- 0
	@DEBUG_VALUE: SPI_Open:u32RetValue <- 0
	.loc	5 290 26 is_stmt 1              @ ../../../Library/StdDriver/src/spi.c:290:26
	mov	r0, r4
	bl	CLK_GetModuleClockSource
	.loc	5 290 92 is_stmt 0              @ ../../../Library/StdDriver/src/spi.c:290:92
	ands	r0, r6
.Ltmp88:
	.loc	5 290 25                        @ ../../../Library/StdDriver/src/spi.c:290:25
	cmp	r0, #2
	ldr	r6, [sp, #4]                    @ 4-byte Reload
	bne	.LBB0_39
	b	.LBB0_77
.Ltmp89:
.LBB0_39:
	@DEBUG_VALUE: SPI_Open:u32PCLK1Freq <- $r7
	@DEBUG_VALUE: SPI_Open:spi <- [DW_OP_plus_uconst 16] [$sp+0]
	@DEBUG_VALUE: SPI_Open:u32PCLK0Freq <- [DW_OP_plus_uconst 4] [$sp+0]
	@DEBUG_VALUE: SPI_Open:u32HCLKFreq <- [DW_OP_plus_uconst 8] [$sp+0]
	@DEBUG_VALUE: SPI_Open:u32MasterSlave <- [DW_OP_plus_uconst 12] [$sp+0]
	@DEBUG_VALUE: SPI_Open:u32BusClock <- [DW_OP_plus_uconst 40] [$sp+0]
	@DEBUG_VALUE: SPI_Open:u32ClkSrc <- 0
	@DEBUG_VALUE: SPI_Open:u32RetValue <- 0
	mov	r6, r5
	b	.LBB0_77
.Ltmp90:
.LBB0_40:
	@DEBUG_VALUE: SPI_Open:u32PCLK1Freq <- $r7
	@DEBUG_VALUE: SPI_Open:spi <- [DW_OP_plus_uconst 16] [$sp+0]
	@DEBUG_VALUE: SPI_Open:u32PCLK0Freq <- [DW_OP_plus_uconst 4] [$sp+0]
	@DEBUG_VALUE: SPI_Open:u32HCLKFreq <- [DW_OP_plus_uconst 8] [$sp+0]
	@DEBUG_VALUE: SPI_Open:u32MasterSlave <- [DW_OP_plus_uconst 12] [$sp+0]
	@DEBUG_VALUE: SPI_Open:u32BusClock <- [DW_OP_plus_uconst 40] [$sp+0]
	@DEBUG_VALUE: SPI_Open:u32ClkSrc <- 0
	@DEBUG_VALUE: SPI_Open:u32RetValue <- 0
	.loc	5 309 26 is_stmt 1              @ ../../../Library/StdDriver/src/spi.c:309:26
	mov	r0, r4
	bl	CLK_GetModuleClockSource
	.loc	5 309 92 is_stmt 0              @ ../../../Library/StdDriver/src/spi.c:309:92
	ands	r0, r5
.Ltmp91:
	.loc	5 309 25                        @ ../../../Library/StdDriver/src/spi.c:309:25
	cmp	r0, #2
	mov	r0, r7
	beq	.LBB0_42
.Ltmp92:
@ %bb.41:
	@DEBUG_VALUE: SPI_Open:u32PCLK1Freq <- $r7
	@DEBUG_VALUE: SPI_Open:spi <- [DW_OP_plus_uconst 16] [$sp+0]
	@DEBUG_VALUE: SPI_Open:u32PCLK0Freq <- [DW_OP_plus_uconst 4] [$sp+0]
	@DEBUG_VALUE: SPI_Open:u32HCLKFreq <- [DW_OP_plus_uconst 8] [$sp+0]
	@DEBUG_VALUE: SPI_Open:u32MasterSlave <- [DW_OP_plus_uconst 12] [$sp+0]
	@DEBUG_VALUE: SPI_Open:u32BusClock <- [DW_OP_plus_uconst 40] [$sp+0]
	@DEBUG_VALUE: SPI_Open:u32ClkSrc <- 0
	@DEBUG_VALUE: SPI_Open:u32RetValue <- 0
	mov	r0, r6
.Ltmp93:
.LBB0_42:
	@DEBUG_VALUE: SPI_Open:u32PCLK1Freq <- $r7
	@DEBUG_VALUE: SPI_Open:spi <- [DW_OP_plus_uconst 16] [$sp+0]
	@DEBUG_VALUE: SPI_Open:u32PCLK0Freq <- [DW_OP_plus_uconst 4] [$sp+0]
	@DEBUG_VALUE: SPI_Open:u32HCLKFreq <- [DW_OP_plus_uconst 8] [$sp+0]
	@DEBUG_VALUE: SPI_Open:u32MasterSlave <- [DW_OP_plus_uconst 12] [$sp+0]
	@DEBUG_VALUE: SPI_Open:u32BusClock <- [DW_OP_plus_uconst 40] [$sp+0]
	@DEBUG_VALUE: SPI_Open:u32ClkSrc <- 0
	@DEBUG_VALUE: SPI_Open:u32RetValue <- 0
	.loc	5 0 0                           @ ../../../Library/StdDriver/src/spi.c:0:0
	mov	r6, r0
.Ltmp94:
	.loc	5 309 25                        @ ../../../Library/StdDriver/src/spi.c:309:25
	b	.LBB0_77
.Ltmp95:
.LBB0_43:
	@DEBUG_VALUE: SPI_Open:u32PCLK1Freq <- $r7
	@DEBUG_VALUE: SPI_Open:spi <- [DW_OP_plus_uconst 16] [$sp+0]
	@DEBUG_VALUE: SPI_Open:u32PCLK0Freq <- [DW_OP_plus_uconst 4] [$sp+0]
	@DEBUG_VALUE: SPI_Open:u32HCLKFreq <- [DW_OP_plus_uconst 8] [$sp+0]
	@DEBUG_VALUE: SPI_Open:u32MasterSlave <- [DW_OP_plus_uconst 12] [$sp+0]
	@DEBUG_VALUE: SPI_Open:u32BusClock <- [DW_OP_plus_uconst 40] [$sp+0]
	@DEBUG_VALUE: SPI_Open:u32ClkSrc <- 0
	@DEBUG_VALUE: SPI_Open:u32RetValue <- 0
	.loc	5 328 26 is_stmt 1              @ ../../../Library/StdDriver/src/spi.c:328:26
	mov	r0, r4
	bl	CLK_GetModuleClockSource
	.loc	5 328 92 is_stmt 0              @ ../../../Library/StdDriver/src/spi.c:328:92
	ands	r0, r6
.Ltmp96:
	.loc	5 328 25                        @ ../../../Library/StdDriver/src/spi.c:328:25
	cmp	r0, #2
	ldr	r6, [sp, #4]                    @ 4-byte Reload
	bne	.LBB0_44
	b	.LBB0_77
.Ltmp97:
.LBB0_44:
	@DEBUG_VALUE: SPI_Open:u32PCLK1Freq <- $r7
	@DEBUG_VALUE: SPI_Open:spi <- [DW_OP_plus_uconst 16] [$sp+0]
	@DEBUG_VALUE: SPI_Open:u32PCLK0Freq <- [DW_OP_plus_uconst 4] [$sp+0]
	@DEBUG_VALUE: SPI_Open:u32HCLKFreq <- [DW_OP_plus_uconst 8] [$sp+0]
	@DEBUG_VALUE: SPI_Open:u32MasterSlave <- [DW_OP_plus_uconst 12] [$sp+0]
	@DEBUG_VALUE: SPI_Open:u32BusClock <- [DW_OP_plus_uconst 40] [$sp+0]
	@DEBUG_VALUE: SPI_Open:u32ClkSrc <- 0
	@DEBUG_VALUE: SPI_Open:u32RetValue <- 0
	mov	r6, r5
	b	.LBB0_77
.Ltmp98:
.LBB0_45:
	@DEBUG_VALUE: SPI_Open:u32SPIMode <- $r6
	@DEBUG_VALUE: SPI_Open:spi <- [DW_OP_plus_uconst 16] [$sp+0]
	@DEBUG_VALUE: SPI_Open:u32PCLK0Freq <- [DW_OP_plus_uconst 4] [$sp+0]
	@DEBUG_VALUE: SPI_Open:u32HCLKFreq <- [DW_OP_plus_uconst 8] [$sp+0]
	@DEBUG_VALUE: SPI_Open:u32MasterSlave <- [DW_OP_plus_uconst 12] [$sp+0]
	@DEBUG_VALUE: SPI_Open:u32BusClock <- [DW_OP_plus_uconst 40] [$sp+0]
	@DEBUG_VALUE: SPI_Open:u32ClkSrc <- 0
	@DEBUG_VALUE: SPI_Open:u32RetValue <- 0
	.loc	5 0 25                          @ ../../../Library/StdDriver/src/spi.c:0:25
	ldr	r0, __arm_cp.0_12
.Ltmp99:
	.loc	5 89 42 is_stmt 1               @ ../../../Library/StdDriver/src/spi.c:89:42
	ldr	r1, [r0]
	movs	r2, #128
	.loc	5 89 50 is_stmt 0               @ ../../../Library/StdDriver/src/spi.c:89:50
	orrs	r2, r1
	movs	r1, #64
.Ltmp100:
.LBB0_46:
	@DEBUG_VALUE: SPI_Open:u32SPIMode <- $r6
	@DEBUG_VALUE: SPI_Open:spi <- [DW_OP_plus_uconst 16] [$sp+0]
	@DEBUG_VALUE: SPI_Open:u32PCLK0Freq <- [DW_OP_plus_uconst 4] [$sp+0]
	@DEBUG_VALUE: SPI_Open:u32HCLKFreq <- [DW_OP_plus_uconst 8] [$sp+0]
	@DEBUG_VALUE: SPI_Open:u32MasterSlave <- [DW_OP_plus_uconst 12] [$sp+0]
	@DEBUG_VALUE: SPI_Open:u32BusClock <- [DW_OP_plus_uconst 40] [$sp+0]
	@DEBUG_VALUE: SPI_Open:u32ClkSrc <- 0
	@DEBUG_VALUE: SPI_Open:u32RetValue <- 0
	.loc	5 0 0                           @ ../../../Library/StdDriver/src/spi.c:0:0
	bics	r2, r1
	str	r2, [r0]
	b	.LBB0_50
.Ltmp101:
.LBB0_47:
	@DEBUG_VALUE: SPI_Open:u32SPIMode <- $r6
	@DEBUG_VALUE: SPI_Open:spi <- [DW_OP_plus_uconst 16] [$sp+0]
	@DEBUG_VALUE: SPI_Open:u32PCLK0Freq <- [DW_OP_plus_uconst 4] [$sp+0]
	@DEBUG_VALUE: SPI_Open:u32HCLKFreq <- [DW_OP_plus_uconst 8] [$sp+0]
	@DEBUG_VALUE: SPI_Open:u32MasterSlave <- [DW_OP_plus_uconst 12] [$sp+0]
	@DEBUG_VALUE: SPI_Open:u32BusClock <- [DW_OP_plus_uconst 40] [$sp+0]
	@DEBUG_VALUE: SPI_Open:u32ClkSrc <- 0
	@DEBUG_VALUE: SPI_Open:u32RetValue <- 0
	ldr	r0, __arm_cp.0_12
.Ltmp102:
	.loc	5 93 42 is_stmt 1               @ ../../../Library/StdDriver/src/spi.c:93:42
	ldr	r1, [r0]
	movw	r2, #3072
	.loc	5 93 50 is_stmt 0               @ ../../../Library/StdDriver/src/spi.c:93:50
	bics	r1, r2
	movw	r2, #2048
	b	.LBB0_49
.Ltmp103:
.LBB0_48:
	@DEBUG_VALUE: SPI_Open:u32SPIMode <- $r6
	@DEBUG_VALUE: SPI_Open:spi <- [DW_OP_plus_uconst 16] [$sp+0]
	@DEBUG_VALUE: SPI_Open:u32PCLK0Freq <- [DW_OP_plus_uconst 4] [$sp+0]
	@DEBUG_VALUE: SPI_Open:u32HCLKFreq <- [DW_OP_plus_uconst 8] [$sp+0]
	@DEBUG_VALUE: SPI_Open:u32MasterSlave <- [DW_OP_plus_uconst 12] [$sp+0]
	@DEBUG_VALUE: SPI_Open:u32BusClock <- [DW_OP_plus_uconst 40] [$sp+0]
	@DEBUG_VALUE: SPI_Open:u32ClkSrc <- 0
	@DEBUG_VALUE: SPI_Open:u32RetValue <- 0
	.loc	5 0 50                          @ ../../../Library/StdDriver/src/spi.c:0:50
	ldr	r0, __arm_cp.0_12
.Ltmp104:
	.loc	5 97 42 is_stmt 1               @ ../../../Library/StdDriver/src/spi.c:97:42
	ldr	r1, [r0]
	movw	r2, #12288
	.loc	5 97 50 is_stmt 0               @ ../../../Library/StdDriver/src/spi.c:97:50
	bics	r1, r2
	movw	r2, #8192
.Ltmp105:
.LBB0_49:
	@DEBUG_VALUE: SPI_Open:u32SPIMode <- $r6
	@DEBUG_VALUE: SPI_Open:spi <- [DW_OP_plus_uconst 16] [$sp+0]
	@DEBUG_VALUE: SPI_Open:u32PCLK0Freq <- [DW_OP_plus_uconst 4] [$sp+0]
	@DEBUG_VALUE: SPI_Open:u32HCLKFreq <- [DW_OP_plus_uconst 8] [$sp+0]
	@DEBUG_VALUE: SPI_Open:u32MasterSlave <- [DW_OP_plus_uconst 12] [$sp+0]
	@DEBUG_VALUE: SPI_Open:u32BusClock <- [DW_OP_plus_uconst 40] [$sp+0]
	@DEBUG_VALUE: SPI_Open:u32ClkSrc <- 0
	@DEBUG_VALUE: SPI_Open:u32RetValue <- 0
	.loc	5 0 0                           @ ../../../Library/StdDriver/src/spi.c:0:0
	adds	r1, r1, r2
	str	r1, [r0]
.Ltmp106:
.LBB0_50:
	@DEBUG_VALUE: SPI_Open:u32SPIMode <- $r6
	@DEBUG_VALUE: SPI_Open:spi <- [DW_OP_plus_uconst 16] [$sp+0]
	@DEBUG_VALUE: SPI_Open:u32PCLK0Freq <- [DW_OP_plus_uconst 4] [$sp+0]
	@DEBUG_VALUE: SPI_Open:u32HCLKFreq <- [DW_OP_plus_uconst 8] [$sp+0]
	@DEBUG_VALUE: SPI_Open:u32MasterSlave <- [DW_OP_plus_uconst 12] [$sp+0]
	@DEBUG_VALUE: SPI_Open:u32BusClock <- [DW_OP_plus_uconst 40] [$sp+0]
	@DEBUG_VALUE: SPI_Open:u32ClkSrc <- 0
	@DEBUG_VALUE: SPI_Open:u32RetValue <- 0
	ldr	r6, __arm_cp.0_6
.Ltmp107:
	ldr	r0, __arm_cp.0_1
	.loc	5 103 12 is_stmt 1              @ ../../../Library/StdDriver/src/spi.c:103:12
	cmp	r5, r0
	beq	.LBB0_55
.Ltmp108:
@ %bb.51:
	@DEBUG_VALUE: SPI_Open:spi <- [DW_OP_plus_uconst 16] [$sp+0]
	@DEBUG_VALUE: SPI_Open:u32PCLK0Freq <- [DW_OP_plus_uconst 4] [$sp+0]
	@DEBUG_VALUE: SPI_Open:u32HCLKFreq <- [DW_OP_plus_uconst 8] [$sp+0]
	@DEBUG_VALUE: SPI_Open:u32MasterSlave <- [DW_OP_plus_uconst 12] [$sp+0]
	@DEBUG_VALUE: SPI_Open:u32BusClock <- [DW_OP_plus_uconst 40] [$sp+0]
	@DEBUG_VALUE: SPI_Open:u32ClkSrc <- 0
	@DEBUG_VALUE: SPI_Open:u32RetValue <- 0
	.loc	5 0 12 is_stmt 0                @ ../../../Library/StdDriver/src/spi.c:0:12
	ldr	r0, __arm_cp.0_2
	.loc	5 103 12                        @ ../../../Library/StdDriver/src/spi.c:103:12
	cmp	r5, r0
	beq	.LBB0_57
.Ltmp109:
@ %bb.52:
	@DEBUG_VALUE: SPI_Open:spi <- [DW_OP_plus_uconst 16] [$sp+0]
	@DEBUG_VALUE: SPI_Open:u32PCLK0Freq <- [DW_OP_plus_uconst 4] [$sp+0]
	@DEBUG_VALUE: SPI_Open:u32HCLKFreq <- [DW_OP_plus_uconst 8] [$sp+0]
	@DEBUG_VALUE: SPI_Open:u32MasterSlave <- [DW_OP_plus_uconst 12] [$sp+0]
	@DEBUG_VALUE: SPI_Open:u32BusClock <- [DW_OP_plus_uconst 40] [$sp+0]
	@DEBUG_VALUE: SPI_Open:u32ClkSrc <- 0
	@DEBUG_VALUE: SPI_Open:u32RetValue <- 0
	.loc	5 0 12                          @ ../../../Library/StdDriver/src/spi.c:0:12
	ldr	r0, __arm_cp.0_3
	.loc	5 103 12                        @ ../../../Library/StdDriver/src/spi.c:103:12
	cmp	r5, r0
	bne	.LBB0_62
.Ltmp110:
@ %bb.53:
	@DEBUG_VALUE: SPI_Open:spi <- [DW_OP_plus_uconst 16] [$sp+0]
	@DEBUG_VALUE: SPI_Open:u32PCLK0Freq <- [DW_OP_plus_uconst 4] [$sp+0]
	@DEBUG_VALUE: SPI_Open:u32HCLKFreq <- [DW_OP_plus_uconst 8] [$sp+0]
	@DEBUG_VALUE: SPI_Open:u32MasterSlave <- [DW_OP_plus_uconst 12] [$sp+0]
	@DEBUG_VALUE: SPI_Open:u32BusClock <- [DW_OP_plus_uconst 40] [$sp+0]
	@DEBUG_VALUE: SPI_Open:u32ClkSrc <- 0
	@DEBUG_VALUE: SPI_Open:u32RetValue <- 0
	.loc	5 0 12                          @ ../../../Library/StdDriver/src/spi.c:0:12
	ldr	r4, __arm_cp.0_9
.Ltmp111:
	.loc	5 105 17 is_stmt 1              @ ../../../Library/StdDriver/src/spi.c:105:17
	mov	r0, r4
	bl	CLK_GetModuleClockSource
.Ltmp112:
	.loc	5 105 16 is_stmt 0              @ ../../../Library/StdDriver/src/spi.c:105:16
	lsls	r0, r0, #4
	beq	.LBB0_66
.Ltmp113:
@ %bb.54:
	@DEBUG_VALUE: SPI_Open:spi <- [DW_OP_plus_uconst 16] [$sp+0]
	@DEBUG_VALUE: SPI_Open:u32PCLK0Freq <- [DW_OP_plus_uconst 4] [$sp+0]
	@DEBUG_VALUE: SPI_Open:u32HCLKFreq <- [DW_OP_plus_uconst 8] [$sp+0]
	@DEBUG_VALUE: SPI_Open:u32MasterSlave <- [DW_OP_plus_uconst 12] [$sp+0]
	@DEBUG_VALUE: SPI_Open:u32BusClock <- [DW_OP_plus_uconst 40] [$sp+0]
	@DEBUG_VALUE: SPI_Open:u32ClkSrc <- 0
	@DEBUG_VALUE: SPI_Open:u32RetValue <- 0
	.loc	5 0 16                          @ ../../../Library/StdDriver/src/spi.c:0:16
	ldr	r5, __arm_cp.0_0
	b	.LBB0_59
.Ltmp114:
.LBB0_55:
	@DEBUG_VALUE: SPI_Open:spi <- [DW_OP_plus_uconst 16] [$sp+0]
	@DEBUG_VALUE: SPI_Open:u32PCLK0Freq <- [DW_OP_plus_uconst 4] [$sp+0]
	@DEBUG_VALUE: SPI_Open:u32HCLKFreq <- [DW_OP_plus_uconst 8] [$sp+0]
	@DEBUG_VALUE: SPI_Open:u32MasterSlave <- [DW_OP_plus_uconst 12] [$sp+0]
	@DEBUG_VALUE: SPI_Open:u32BusClock <- [DW_OP_plus_uconst 40] [$sp+0]
	@DEBUG_VALUE: SPI_Open:u32ClkSrc <- 0
	@DEBUG_VALUE: SPI_Open:u32RetValue <- 0
	ldr	r4, __arm_cp.0_7
.Ltmp115:
	.loc	5 124 17 is_stmt 1              @ ../../../Library/StdDriver/src/spi.c:124:17
	mov	r0, r4
	bl	CLK_GetModuleClockSource
.Ltmp116:
	.loc	5 124 16 is_stmt 0              @ ../../../Library/StdDriver/src/spi.c:124:16
	lsls	r0, r0, #6
	beq	.LBB0_66
.Ltmp117:
@ %bb.56:
	@DEBUG_VALUE: SPI_Open:spi <- [DW_OP_plus_uconst 16] [$sp+0]
	@DEBUG_VALUE: SPI_Open:u32PCLK0Freq <- [DW_OP_plus_uconst 4] [$sp+0]
	@DEBUG_VALUE: SPI_Open:u32HCLKFreq <- [DW_OP_plus_uconst 8] [$sp+0]
	@DEBUG_VALUE: SPI_Open:u32MasterSlave <- [DW_OP_plus_uconst 12] [$sp+0]
	@DEBUG_VALUE: SPI_Open:u32BusClock <- [DW_OP_plus_uconst 40] [$sp+0]
	@DEBUG_VALUE: SPI_Open:u32ClkSrc <- 0
	@DEBUG_VALUE: SPI_Open:u32RetValue <- 0
	.loc	5 0 16                          @ ../../../Library/StdDriver/src/spi.c:0:16
	ldr	r5, __arm_cp.0_8
	b	.LBB0_64
.Ltmp118:
.LBB0_57:
	@DEBUG_VALUE: SPI_Open:spi <- [DW_OP_plus_uconst 16] [$sp+0]
	@DEBUG_VALUE: SPI_Open:u32PCLK0Freq <- [DW_OP_plus_uconst 4] [$sp+0]
	@DEBUG_VALUE: SPI_Open:u32HCLKFreq <- [DW_OP_plus_uconst 8] [$sp+0]
	@DEBUG_VALUE: SPI_Open:u32MasterSlave <- [DW_OP_plus_uconst 12] [$sp+0]
	@DEBUG_VALUE: SPI_Open:u32BusClock <- [DW_OP_plus_uconst 40] [$sp+0]
	@DEBUG_VALUE: SPI_Open:u32ClkSrc <- 0
	@DEBUG_VALUE: SPI_Open:u32RetValue <- 0
	ldr	r4, __arm_cp.0_4
.Ltmp119:
	.loc	5 143 17 is_stmt 1              @ ../../../Library/StdDriver/src/spi.c:143:17
	mov	r0, r4
	bl	CLK_GetModuleClockSource
.Ltmp120:
	.loc	5 143 16 is_stmt 0              @ ../../../Library/StdDriver/src/spi.c:143:16
	lsls	r0, r0, #10
	beq	.LBB0_66
.Ltmp121:
@ %bb.58:
	@DEBUG_VALUE: SPI_Open:spi <- [DW_OP_plus_uconst 16] [$sp+0]
	@DEBUG_VALUE: SPI_Open:u32PCLK0Freq <- [DW_OP_plus_uconst 4] [$sp+0]
	@DEBUG_VALUE: SPI_Open:u32HCLKFreq <- [DW_OP_plus_uconst 8] [$sp+0]
	@DEBUG_VALUE: SPI_Open:u32MasterSlave <- [DW_OP_plus_uconst 12] [$sp+0]
	@DEBUG_VALUE: SPI_Open:u32BusClock <- [DW_OP_plus_uconst 40] [$sp+0]
	@DEBUG_VALUE: SPI_Open:u32ClkSrc <- 0
	@DEBUG_VALUE: SPI_Open:u32RetValue <- 0
	.loc	5 0 16                          @ ../../../Library/StdDriver/src/spi.c:0:16
	ldr	r5, __arm_cp.0_5
.Ltmp122:
.LBB0_59:
	@DEBUG_VALUE: SPI_Open:spi <- [DW_OP_plus_uconst 16] [$sp+0]
	@DEBUG_VALUE: SPI_Open:u32PCLK0Freq <- [DW_OP_plus_uconst 4] [$sp+0]
	@DEBUG_VALUE: SPI_Open:u32HCLKFreq <- [DW_OP_plus_uconst 8] [$sp+0]
	@DEBUG_VALUE: SPI_Open:u32MasterSlave <- [DW_OP_plus_uconst 12] [$sp+0]
	@DEBUG_VALUE: SPI_Open:u32BusClock <- [DW_OP_plus_uconst 40] [$sp+0]
	@DEBUG_VALUE: SPI_Open:u32ClkSrc <- 0
	@DEBUG_VALUE: SPI_Open:u32RetValue <- 0
	mov	r0, r4
	bl	CLK_GetModuleClockSource
	ands	r0, r5
	cmp	r0, #1
	beq	.LBB0_65
.Ltmp123:
@ %bb.60:
	@DEBUG_VALUE: SPI_Open:spi <- [DW_OP_plus_uconst 16] [$sp+0]
	@DEBUG_VALUE: SPI_Open:u32PCLK0Freq <- [DW_OP_plus_uconst 4] [$sp+0]
	@DEBUG_VALUE: SPI_Open:u32HCLKFreq <- [DW_OP_plus_uconst 8] [$sp+0]
	@DEBUG_VALUE: SPI_Open:u32MasterSlave <- [DW_OP_plus_uconst 12] [$sp+0]
	@DEBUG_VALUE: SPI_Open:u32BusClock <- [DW_OP_plus_uconst 40] [$sp+0]
	@DEBUG_VALUE: SPI_Open:u32ClkSrc <- 0
	@DEBUG_VALUE: SPI_Open:u32RetValue <- 0
	mov	r0, r4
	bl	CLK_GetModuleClockSource
	ands	r0, r5
	cmp	r0, #2
	ldr	r5, [sp, #16]                   @ 4-byte Reload
	bne	.LBB0_66
.Ltmp124:
@ %bb.61:
	@DEBUG_VALUE: SPI_Open:spi <- [DW_OP_plus_uconst 16] [$sp+0]
	@DEBUG_VALUE: SPI_Open:u32PCLK0Freq <- [DW_OP_plus_uconst 4] [$sp+0]
	@DEBUG_VALUE: SPI_Open:u32HCLKFreq <- [DW_OP_plus_uconst 8] [$sp+0]
	@DEBUG_VALUE: SPI_Open:u32MasterSlave <- [DW_OP_plus_uconst 12] [$sp+0]
	@DEBUG_VALUE: SPI_Open:u32BusClock <- [DW_OP_plus_uconst 40] [$sp+0]
	@DEBUG_VALUE: SPI_Open:u32ClkSrc <- 0
	@DEBUG_VALUE: SPI_Open:u32RetValue <- 0
	bl	CLK_GetPCLK1Freq
	mov	r6, r0
.Ltmp125:
	@DEBUG_VALUE: SPI_Open:u32ClkSrc <- $r6
	b	.LBB0_66
.Ltmp126:
.LBB0_62:
	@DEBUG_VALUE: SPI_Open:spi <- [DW_OP_plus_uconst 16] [$sp+0]
	@DEBUG_VALUE: SPI_Open:u32PCLK0Freq <- [DW_OP_plus_uconst 4] [$sp+0]
	@DEBUG_VALUE: SPI_Open:u32HCLKFreq <- [DW_OP_plus_uconst 8] [$sp+0]
	@DEBUG_VALUE: SPI_Open:u32MasterSlave <- [DW_OP_plus_uconst 12] [$sp+0]
	@DEBUG_VALUE: SPI_Open:u32BusClock <- [DW_OP_plus_uconst 40] [$sp+0]
	@DEBUG_VALUE: SPI_Open:u32ClkSrc <- 0
	@DEBUG_VALUE: SPI_Open:u32RetValue <- 0
	ldr	r4, __arm_cp.0_10
.Ltmp127:
	.loc	5 162 17 is_stmt 1              @ ../../../Library/StdDriver/src/spi.c:162:17
	mov	r0, r4
	bl	CLK_GetModuleClockSource
.Ltmp128:
	.loc	5 162 16 is_stmt 0              @ ../../../Library/StdDriver/src/spi.c:162:16
	lsls	r0, r0, #12
	beq	.LBB0_66
.Ltmp129:
@ %bb.63:
	@DEBUG_VALUE: SPI_Open:spi <- [DW_OP_plus_uconst 16] [$sp+0]
	@DEBUG_VALUE: SPI_Open:u32PCLK0Freq <- [DW_OP_plus_uconst 4] [$sp+0]
	@DEBUG_VALUE: SPI_Open:u32HCLKFreq <- [DW_OP_plus_uconst 8] [$sp+0]
	@DEBUG_VALUE: SPI_Open:u32MasterSlave <- [DW_OP_plus_uconst 12] [$sp+0]
	@DEBUG_VALUE: SPI_Open:u32BusClock <- [DW_OP_plus_uconst 40] [$sp+0]
	@DEBUG_VALUE: SPI_Open:u32ClkSrc <- 0
	@DEBUG_VALUE: SPI_Open:u32RetValue <- 0
	.loc	5 0 16                          @ ../../../Library/StdDriver/src/spi.c:0:16
	ldr	r5, __arm_cp.0_11
.Ltmp130:
.LBB0_64:
	@DEBUG_VALUE: SPI_Open:spi <- [DW_OP_plus_uconst 16] [$sp+0]
	@DEBUG_VALUE: SPI_Open:u32PCLK0Freq <- [DW_OP_plus_uconst 4] [$sp+0]
	@DEBUG_VALUE: SPI_Open:u32HCLKFreq <- [DW_OP_plus_uconst 8] [$sp+0]
	@DEBUG_VALUE: SPI_Open:u32MasterSlave <- [DW_OP_plus_uconst 12] [$sp+0]
	@DEBUG_VALUE: SPI_Open:u32BusClock <- [DW_OP_plus_uconst 40] [$sp+0]
	@DEBUG_VALUE: SPI_Open:u32ClkSrc <- 0
	@DEBUG_VALUE: SPI_Open:u32RetValue <- 0
	mov	r0, r4
	bl	CLK_GetModuleClockSource
	ands	r0, r5
	cmp	r0, #1
	bne	.LBB0_73
.Ltmp131:
.LBB0_65:
	@DEBUG_VALUE: SPI_Open:spi <- [DW_OP_plus_uconst 16] [$sp+0]
	@DEBUG_VALUE: SPI_Open:u32PCLK0Freq <- [DW_OP_plus_uconst 4] [$sp+0]
	@DEBUG_VALUE: SPI_Open:u32HCLKFreq <- [DW_OP_plus_uconst 8] [$sp+0]
	@DEBUG_VALUE: SPI_Open:u32MasterSlave <- [DW_OP_plus_uconst 12] [$sp+0]
	@DEBUG_VALUE: SPI_Open:u32BusClock <- [DW_OP_plus_uconst 40] [$sp+0]
	@DEBUG_VALUE: SPI_Open:u32ClkSrc <- 0
	@DEBUG_VALUE: SPI_Open:u32RetValue <- 0
	bl	CLK_GetPLLClockFreq
	mov	r6, r0
.Ltmp132:
	@DEBUG_VALUE: SPI_Open:u32ClkSrc <- $r6
	ldr	r5, [sp, #16]                   @ 4-byte Reload
.Ltmp133:
.LBB0_66:
	@DEBUG_VALUE: SPI_Open:spi <- [DW_OP_plus_uconst 16] [$sp+0]
	@DEBUG_VALUE: SPI_Open:u32PCLK0Freq <- [DW_OP_plus_uconst 4] [$sp+0]
	@DEBUG_VALUE: SPI_Open:u32HCLKFreq <- [DW_OP_plus_uconst 8] [$sp+0]
	@DEBUG_VALUE: SPI_Open:u32MasterSlave <- [DW_OP_plus_uconst 12] [$sp+0]
	@DEBUG_VALUE: SPI_Open:u32BusClock <- [DW_OP_plus_uconst 40] [$sp+0]
	@DEBUG_VALUE: SPI_Open:u32RetValue <- 0
	@DEBUG_VALUE: SPI_Open:u32ClkSrc <- $r6
	.loc	5 180 12 is_stmt 1              @ ../../../Library/StdDriver/src/spi.c:180:12
	ldr	r0, [sp, #8]                    @ 4-byte Reload
	cmp	r0, r7
	bls	.LBB0_71
.Ltmp134:
@ %bb.67:
	@DEBUG_VALUE: SPI_Open:u32ClkSrc <- $r6
	@DEBUG_VALUE: SPI_Open:spi <- [DW_OP_plus_uconst 16] [$sp+0]
	@DEBUG_VALUE: SPI_Open:u32PCLK0Freq <- [DW_OP_plus_uconst 4] [$sp+0]
	@DEBUG_VALUE: SPI_Open:u32HCLKFreq <- [DW_OP_plus_uconst 8] [$sp+0]
	@DEBUG_VALUE: SPI_Open:u32MasterSlave <- [DW_OP_plus_uconst 12] [$sp+0]
	@DEBUG_VALUE: SPI_Open:u32BusClock <- [DW_OP_plus_uconst 40] [$sp+0]
	@DEBUG_VALUE: SPI_Open:u32RetValue <- 0
	.loc	5 187 17                        @ ../../../Library/StdDriver/src/spi.c:187:17
	cmp	r6, r7
	bls	.LBB0_72
.Ltmp135:
@ %bb.68:
	@DEBUG_VALUE: SPI_Open:u32ClkSrc <- $r6
	@DEBUG_VALUE: SPI_Open:spi <- [DW_OP_plus_uconst 16] [$sp+0]
	@DEBUG_VALUE: SPI_Open:u32PCLK0Freq <- [DW_OP_plus_uconst 4] [$sp+0]
	@DEBUG_VALUE: SPI_Open:u32HCLKFreq <- [DW_OP_plus_uconst 8] [$sp+0]
	@DEBUG_VALUE: SPI_Open:u32MasterSlave <- [DW_OP_plus_uconst 12] [$sp+0]
	@DEBUG_VALUE: SPI_Open:u32BusClock <- [DW_OP_plus_uconst 40] [$sp+0]
	@DEBUG_VALUE: SPI_Open:u32RetValue <- 0
	.loc	5 0 17 is_stmt 0                @ ../../../Library/StdDriver/src/spi.c:0:17
	ldr	r0, __arm_cp.0_13
.Ltmp136:
	.loc	5 194 17 is_stmt 1              @ ../../../Library/StdDriver/src/spi.c:194:17
	cbz	r7, .LBB0_75
.Ltmp137:
@ %bb.69:
	@DEBUG_VALUE: SPI_Open:u32ClkSrc <- $r6
	@DEBUG_VALUE: SPI_Open:spi <- [DW_OP_plus_uconst 16] [$sp+0]
	@DEBUG_VALUE: SPI_Open:u32PCLK0Freq <- [DW_OP_plus_uconst 4] [$sp+0]
	@DEBUG_VALUE: SPI_Open:u32HCLKFreq <- [DW_OP_plus_uconst 8] [$sp+0]
	@DEBUG_VALUE: SPI_Open:u32MasterSlave <- [DW_OP_plus_uconst 12] [$sp+0]
	@DEBUG_VALUE: SPI_Open:u32BusClock <- [DW_OP_plus_uconst 40] [$sp+0]
	@DEBUG_VALUE: SPI_Open:u32RetValue <- 0
	.loc	5 0 17 is_stmt 0                @ ../../../Library/StdDriver/src/spi.c:0:17
	movs	r1, #10
.Ltmp138:
	.loc	5 203 35 is_stmt 1              @ ../../../Library/StdDriver/src/spi.c:203:35
	mov	r2, r1
	muls	r2, r6, r2
	.loc	5 203 43 is_stmt 0              @ ../../../Library/StdDriver/src/spi.c:203:43
	udiv	r2, r2, r7
	.loc	5 203 57                        @ ../../../Library/StdDriver/src/spi.c:203:57
	adds	r2, r2, #5
	.loc	5 203 64                        @ ../../../Library/StdDriver/src/spi.c:203:64
	udiv	r2, r2, r1
	.loc	5 203 72                        @ ../../../Library/StdDriver/src/spi.c:203:72
	subs	r3, r2, #1
.Ltmp139:
	@DEBUG_VALUE: SPI_Open:u32Div <- $r3
	.loc	5 0 0                           @ ../../../Library/StdDriver/src/spi.c:0:0
	ldr	r1, [r5, #4]
.Ltmp140:
	.loc	5 204 16 is_stmt 1              @ ../../../Library/StdDriver/src/spi.c:204:16
	cmp	r3, r0
	bls	.LBB0_76
.Ltmp141:
@ %bb.70:
	@DEBUG_VALUE: SPI_Open:u32ClkSrc <- $r6
	@DEBUG_VALUE: SPI_Open:u32Div <- $r3
	@DEBUG_VALUE: SPI_Open:spi <- [DW_OP_plus_uconst 16] [$sp+0]
	@DEBUG_VALUE: SPI_Open:u32PCLK0Freq <- [DW_OP_plus_uconst 4] [$sp+0]
	@DEBUG_VALUE: SPI_Open:u32HCLKFreq <- [DW_OP_plus_uconst 8] [$sp+0]
	@DEBUG_VALUE: SPI_Open:u32MasterSlave <- [DW_OP_plus_uconst 12] [$sp+0]
	@DEBUG_VALUE: SPI_Open:u32BusClock <- [DW_OP_plus_uconst 40] [$sp+0]
	@DEBUG_VALUE: SPI_Open:u32RetValue <- 0
	@DEBUG_VALUE: SPI_Open:u32Div <- 511
	.loc	5 207 29                        @ ../../../Library/StdDriver/src/spi.c:207:29
	orrs	r1, r0
	str	r1, [r5, #4]
	.loc	5 209 42                        @ ../../../Library/StdDriver/src/spi.c:209:42
	lsrs	r6, r6, #9
.Ltmp142:
	@DEBUG_VALUE: SPI_Open:u32RetValue <- $r6
	.loc	5 210 13                        @ ../../../Library/StdDriver/src/spi.c:210:13
	b	.LBB0_77
.Ltmp143:
.LBB0_71:
	@DEBUG_VALUE: SPI_Open:u32ClkSrc <- $r6
	@DEBUG_VALUE: SPI_Open:spi <- [DW_OP_plus_uconst 16] [$sp+0]
	@DEBUG_VALUE: SPI_Open:u32PCLK0Freq <- [DW_OP_plus_uconst 4] [$sp+0]
	@DEBUG_VALUE: SPI_Open:u32HCLKFreq <- [DW_OP_plus_uconst 8] [$sp+0]
	@DEBUG_VALUE: SPI_Open:u32MasterSlave <- [DW_OP_plus_uconst 12] [$sp+0]
	@DEBUG_VALUE: SPI_Open:u32BusClock <- [DW_OP_plus_uconst 40] [$sp+0]
	@DEBUG_VALUE: SPI_Open:u32RetValue <- 0
	.loc	5 0 13 is_stmt 0                @ ../../../Library/StdDriver/src/spi.c:0:13
	movs	r0, #0
.Ltmp144:
	.loc	5 183 25 is_stmt 1              @ ../../../Library/StdDriver/src/spi.c:183:25
	str	r0, [r5, #4]
.Ltmp145:
	@DEBUG_VALUE: SPI_Open:u32RetValue <- $r6
	.loc	5 186 9                         @ ../../../Library/StdDriver/src/spi.c:186:9
	b	.LBB0_77
.Ltmp146:
.LBB0_72:
	@DEBUG_VALUE: SPI_Open:u32ClkSrc <- $r6
	@DEBUG_VALUE: SPI_Open:spi <- [DW_OP_plus_uconst 16] [$sp+0]
	@DEBUG_VALUE: SPI_Open:u32PCLK0Freq <- [DW_OP_plus_uconst 4] [$sp+0]
	@DEBUG_VALUE: SPI_Open:u32HCLKFreq <- [DW_OP_plus_uconst 8] [$sp+0]
	@DEBUG_VALUE: SPI_Open:u32MasterSlave <- [DW_OP_plus_uconst 12] [$sp+0]
	@DEBUG_VALUE: SPI_Open:u32BusClock <- [DW_OP_plus_uconst 40] [$sp+0]
	@DEBUG_VALUE: SPI_Open:u32RetValue <- 0
	.loc	5 0 9 is_stmt 0                 @ ../../../Library/StdDriver/src/spi.c:0:9
	movs	r0, #0
.Ltmp147:
	.loc	5 190 25 is_stmt 1              @ ../../../Library/StdDriver/src/spi.c:190:25
	str	r0, [r5, #4]
.Ltmp148:
	@DEBUG_VALUE: SPI_Open:u32RetValue <- $r6
	.loc	5 193 9                         @ ../../../Library/StdDriver/src/spi.c:193:9
	b	.LBB0_77
.Ltmp149:
.LBB0_73:
	@DEBUG_VALUE: SPI_Open:spi <- [DW_OP_plus_uconst 16] [$sp+0]
	@DEBUG_VALUE: SPI_Open:u32PCLK0Freq <- [DW_OP_plus_uconst 4] [$sp+0]
	@DEBUG_VALUE: SPI_Open:u32HCLKFreq <- [DW_OP_plus_uconst 8] [$sp+0]
	@DEBUG_VALUE: SPI_Open:u32MasterSlave <- [DW_OP_plus_uconst 12] [$sp+0]
	@DEBUG_VALUE: SPI_Open:u32BusClock <- [DW_OP_plus_uconst 40] [$sp+0]
	@DEBUG_VALUE: SPI_Open:u32ClkSrc <- 0
	@DEBUG_VALUE: SPI_Open:u32RetValue <- 0
	.loc	5 0 0 is_stmt 0                 @ ../../../Library/StdDriver/src/spi.c:0:0
	mov	r0, r4
	bl	CLK_GetModuleClockSource
	ands	r0, r5
	cmp	r0, #2
	ldr	r5, [sp, #16]                   @ 4-byte Reload
	bne	.LBB0_66
.Ltmp150:
@ %bb.74:
	@DEBUG_VALUE: SPI_Open:spi <- [DW_OP_plus_uconst 16] [$sp+0]
	@DEBUG_VALUE: SPI_Open:u32PCLK0Freq <- [DW_OP_plus_uconst 4] [$sp+0]
	@DEBUG_VALUE: SPI_Open:u32HCLKFreq <- [DW_OP_plus_uconst 8] [$sp+0]
	@DEBUG_VALUE: SPI_Open:u32MasterSlave <- [DW_OP_plus_uconst 12] [$sp+0]
	@DEBUG_VALUE: SPI_Open:u32BusClock <- [DW_OP_plus_uconst 40] [$sp+0]
	@DEBUG_VALUE: SPI_Open:u32ClkSrc <- 0
	@DEBUG_VALUE: SPI_Open:u32RetValue <- 0
	bl	CLK_GetPCLK0Freq
.Ltmp151:
	mov	r6, r0
.Ltmp152:
	@DEBUG_VALUE: SPI_Open:u32ClkSrc <- $r6
	b	.LBB0_66
.Ltmp153:
.LBB0_75:
	@DEBUG_VALUE: SPI_Open:u32ClkSrc <- $r6
	@DEBUG_VALUE: SPI_Open:spi <- [DW_OP_plus_uconst 16] [$sp+0]
	@DEBUG_VALUE: SPI_Open:u32PCLK0Freq <- [DW_OP_plus_uconst 4] [$sp+0]
	@DEBUG_VALUE: SPI_Open:u32HCLKFreq <- [DW_OP_plus_uconst 8] [$sp+0]
	@DEBUG_VALUE: SPI_Open:u32MasterSlave <- [DW_OP_plus_uconst 12] [$sp+0]
	@DEBUG_VALUE: SPI_Open:u32BusClock <- [DW_OP_plus_uconst 40] [$sp+0]
	@DEBUG_VALUE: SPI_Open:u32RetValue <- 0
	.loc	5 197 25 is_stmt 1              @ ../../../Library/StdDriver/src/spi.c:197:25
	ldr	r1, [r5, #4]
	orrs	r1, r0
	str	r1, [r5, #4]
	.loc	5 199 38                        @ ../../../Library/StdDriver/src/spi.c:199:38
	lsrs	r6, r6, #9
.Ltmp154:
	@DEBUG_VALUE: SPI_Open:u32RetValue <- $r6
	.loc	5 200 9                         @ ../../../Library/StdDriver/src/spi.c:200:9
	b	.LBB0_77
.Ltmp155:
.LBB0_76:
	@DEBUG_VALUE: SPI_Open:u32ClkSrc <- $r6
	@DEBUG_VALUE: SPI_Open:u32Div <- $r3
	@DEBUG_VALUE: SPI_Open:spi <- [DW_OP_plus_uconst 16] [$sp+0]
	@DEBUG_VALUE: SPI_Open:u32PCLK0Freq <- [DW_OP_plus_uconst 4] [$sp+0]
	@DEBUG_VALUE: SPI_Open:u32HCLKFreq <- [DW_OP_plus_uconst 8] [$sp+0]
	@DEBUG_VALUE: SPI_Open:u32MasterSlave <- [DW_OP_plus_uconst 12] [$sp+0]
	@DEBUG_VALUE: SPI_Open:u32BusClock <- [DW_OP_plus_uconst 40] [$sp+0]
	@DEBUG_VALUE: SPI_Open:u32RetValue <- 0
	.loc	5 0 9 is_stmt 0                 @ ../../../Library/StdDriver/src/spi.c:0:9
	ldr	r0, __arm_cp.0_14
.Ltmp156:
	.loc	5 213 44 is_stmt 1              @ ../../../Library/StdDriver/src/spi.c:213:44
	ands	r1, r0
	.loc	5 213 73 is_stmt 0              @ ../../../Library/StdDriver/src/spi.c:213:73
	orrs	r1, r3
	.loc	5 213 29                        @ ../../../Library/StdDriver/src/spi.c:213:29
	str	r1, [r5, #4]
	.loc	5 215 42 is_stmt 1              @ ../../../Library/StdDriver/src/spi.c:215:42
	udiv	r6, r6, r2
.Ltmp157:
	@DEBUG_VALUE: SPI_Open:u32RetValue <- $r6
.LBB0_77:
	@DEBUG_VALUE: SPI_Open:spi <- [DW_OP_plus_uconst 16] [$sp+0]
	@DEBUG_VALUE: SPI_Open:u32PCLK0Freq <- [DW_OP_plus_uconst 4] [$sp+0]
	@DEBUG_VALUE: SPI_Open:u32HCLKFreq <- [DW_OP_plus_uconst 8] [$sp+0]
	@DEBUG_VALUE: SPI_Open:u32MasterSlave <- [DW_OP_plus_uconst 12] [$sp+0]
	@DEBUG_VALUE: SPI_Open:u32BusClock <- [DW_OP_plus_uconst 40] [$sp+0]
	@DEBUG_VALUE: SPI_Open:u32RetValue <- $r6
	.loc	5 340 5                         @ ../../../Library/StdDriver/src/spi.c:340:5
	mov	r0, r6
	add	sp, #20
.Ltmp158:
	pop	{r4, r5, r6, r7, pc}
.Ltmp159:
	.p2align	2
@ %bb.78:
	.loc	5 0 5 is_stmt 0                 @ ../../../Library/StdDriver/src/spi.c:0:5
__arm_cp.0_0:
	.long	268435455                       @ 0xfffffff
.Lcpi_end0:
	.size	__arm_cp.0_0, .Lcpi_end0-__arm_cp.0_0
__arm_cp.0_1:
	.long	1342578688                      @ 0x50062000
.Lcpi_end1:
	.size	__arm_cp.0_1, .Lcpi_end1-__arm_cp.0_1
__arm_cp.0_2:
	.long	1074147328                      @ 0x40063000
.Lcpi_end2:
	.size	__arm_cp.0_2, .Lcpi_end2-__arm_cp.0_2
__arm_cp.0_3:
	.long	1074139136                      @ 0x40061000
.Lcpi_end3:
	.size	__arm_cp.0_3, .Lcpi_end3-__arm_cp.0_3
__arm_cp.0_4:
	.long	1721761807                      @ 0x66a0000f
.Lcpi_end4:
	.size	__arm_cp.0_4, .Lcpi_end4-__arm_cp.0_4
__arm_cp.0_5:
	.long	4194303                         @ 0x3fffff
.Lcpi_end5:
	.size	__arm_cp.0_5, .Lcpi_end5-__arm_cp.0_5
__arm_cp.0_6:
	.long	12000000                        @ 0xb71b00
.Lcpi_end6:
	.size	__arm_cp.0_6, .Lcpi_end6-__arm_cp.0_6
__arm_cp.0_7:
	.long	1717567502                      @ 0x6660000e
.Lcpi_end7:
	.size	__arm_cp.0_7, .Lcpi_end7-__arm_cp.0_7
__arm_cp.0_8:
	.long	67108863                        @ 0x3ffffff
.Lcpi_end8:
	.size	__arm_cp.0_8, .Lcpi_end8-__arm_cp.0_8
__arm_cp.0_9:
	.long	1715470349                      @ 0x6640000d
.Lcpi_end9:
	.size	__arm_cp.0_9, .Lcpi_end9-__arm_cp.0_9
__arm_cp.0_10:
	.long	2797600774                      @ 0xa6c00006
.Lcpi_end10:
	.size	__arm_cp.0_10, .Lcpi_end10-__arm_cp.0_10
__arm_cp.0_11:
	.long	1048575                         @ 0xfffff
.Lcpi_end11:
	.size	__arm_cp.0_11, .Lcpi_end11-__arm_cp.0_11
__arm_cp.0_12:
	.long	1073742360                      @ 0x40000218
.Lcpi_end12:
	.size	__arm_cp.0_12, .Lcpi_end12-__arm_cp.0_12
__arm_cp.0_13:
	.long	511                             @ 0x1ff
.Lcpi_end13:
	.size	__arm_cp.0_13, .Lcpi_end13-__arm_cp.0_13
__arm_cp.0_14:
	.long	4294966784                      @ 0xfffffe00
.Lcpi_end14:
	.size	__arm_cp.0_14, .Lcpi_end14-__arm_cp.0_14
.Lfunc_end0:
	.size	SPI_Open, .Lfunc_end0-SPI_Open
	.cfi_endproc
	.cantunwind
	.fnend
                                        @ -- End function
	.section	.text.SPI_Close,"ax",%progbits
	.hidden	SPI_Close                       @ -- Begin function SPI_Close
	.globl	SPI_Close
	.p2align	1
	.type	SPI_Close,%function
	.code	16                              @ @SPI_Close
	.thumb_func
SPI_Close:
.Lfunc_begin1:
	.loc	5 350 0 is_stmt 1               @ ../../../Library/StdDriver/src/spi.c:350:0
	.fnstart
	.cfi_startproc
@ %bb.0:
	@DEBUG_VALUE: SPI_Close:spi <- $r0
	@DEBUG_VALUE: SPI_Close:spi <- $r0
	.loc	5 351 14 prologue_end           @ ../../../Library/StdDriver/src/spi.c:351:14
	ldr	r1, [r0]
	movs	r2, #1
	bics	r1, r2
	str	r1, [r0]
	.loc	5 352 1                         @ ../../../Library/StdDriver/src/spi.c:352:1
	bx	lr
.Ltmp160:
.Lfunc_end1:
	.size	SPI_Close, .Lfunc_end1-SPI_Close
	.cfi_endproc
	.cantunwind
	.fnend
                                        @ -- End function
	.section	.text.SPI_ClearRxFIFO,"ax",%progbits
	.hidden	SPI_ClearRxFIFO                 @ -- Begin function SPI_ClearRxFIFO
	.globl	SPI_ClearRxFIFO
	.p2align	1
	.type	SPI_ClearRxFIFO,%function
	.code	16                              @ @SPI_ClearRxFIFO
	.thumb_func
SPI_ClearRxFIFO:
.Lfunc_begin2:
	.loc	5 361 0                         @ ../../../Library/StdDriver/src/spi.c:361:0
	.fnstart
	.cfi_startproc
@ %bb.0:
	@DEBUG_VALUE: SPI_ClearRxFIFO:spi <- $r0
	@DEBUG_VALUE: SPI_ClearRxFIFO:spi <- $r0
	.loc	5 362 18 prologue_end           @ ../../../Library/StdDriver/src/spi.c:362:18
	ldr	r1, [r0, #16]
	movw	r2, #256
	orrs	r2, r1
	str	r2, [r0, #16]
	.loc	5 363 1                         @ ../../../Library/StdDriver/src/spi.c:363:1
	bx	lr
.Ltmp161:
.Lfunc_end2:
	.size	SPI_ClearRxFIFO, .Lfunc_end2-SPI_ClearRxFIFO
	.cfi_endproc
	.cantunwind
	.fnend
                                        @ -- End function
	.section	.text.SPI_ClearTxFIFO,"ax",%progbits
	.hidden	SPI_ClearTxFIFO                 @ -- Begin function SPI_ClearTxFIFO
	.globl	SPI_ClearTxFIFO
	.p2align	1
	.type	SPI_ClearTxFIFO,%function
	.code	16                              @ @SPI_ClearTxFIFO
	.thumb_func
SPI_ClearTxFIFO:
.Lfunc_begin3:
	.loc	5 373 0                         @ ../../../Library/StdDriver/src/spi.c:373:0
	.fnstart
	.cfi_startproc
@ %bb.0:
	@DEBUG_VALUE: SPI_ClearTxFIFO:spi <- $r0
	@DEBUG_VALUE: SPI_ClearTxFIFO:spi <- $r0
	.loc	5 374 18 prologue_end           @ ../../../Library/StdDriver/src/spi.c:374:18
	ldr	r1, [r0, #16]
	movw	r2, #512
	orrs	r2, r1
	str	r2, [r0, #16]
	.loc	5 375 1                         @ ../../../Library/StdDriver/src/spi.c:375:1
	bx	lr
.Ltmp162:
.Lfunc_end3:
	.size	SPI_ClearTxFIFO, .Lfunc_end3-SPI_ClearTxFIFO
	.cfi_endproc
	.cantunwind
	.fnend
                                        @ -- End function
	.section	.text.SPI_DisableAutoSS,"ax",%progbits
	.hidden	SPI_DisableAutoSS               @ -- Begin function SPI_DisableAutoSS
	.globl	SPI_DisableAutoSS
	.p2align	1
	.type	SPI_DisableAutoSS,%function
	.code	16                              @ @SPI_DisableAutoSS
	.thumb_func
SPI_DisableAutoSS:
.Lfunc_begin4:
	.loc	5 384 0                         @ ../../../Library/StdDriver/src/spi.c:384:0
	.fnstart
	.cfi_startproc
@ %bb.0:
	@DEBUG_VALUE: SPI_DisableAutoSS:spi <- $r0
	@DEBUG_VALUE: SPI_DisableAutoSS:spi <- $r0
	.loc	5 385 16 prologue_end           @ ../../../Library/StdDriver/src/spi.c:385:16
	ldr	r1, [r0, #8]
	movs	r2, #9
	bics	r1, r2
	str	r1, [r0, #8]
	.loc	5 386 1                         @ ../../../Library/StdDriver/src/spi.c:386:1
	bx	lr
.Ltmp163:
.Lfunc_end4:
	.size	SPI_DisableAutoSS, .Lfunc_end4-SPI_DisableAutoSS
	.cfi_endproc
	.cantunwind
	.fnend
                                        @ -- End function
	.section	.text.SPI_EnableAutoSS,"ax",%progbits
	.hidden	SPI_EnableAutoSS                @ -- Begin function SPI_EnableAutoSS
	.globl	SPI_EnableAutoSS
	.p2align	1
	.type	SPI_EnableAutoSS,%function
	.code	16                              @ @SPI_EnableAutoSS
	.thumb_func
SPI_EnableAutoSS:
.Lfunc_begin5:
	.loc	5 398 0                         @ ../../../Library/StdDriver/src/spi.c:398:0
	.fnstart
	.cfi_startproc
@ %bb.0:
	@DEBUG_VALUE: SPI_EnableAutoSS:spi <- $r0
	@DEBUG_VALUE: SPI_EnableAutoSS:spi <- $r0
	@DEBUG_VALUE: SPI_EnableAutoSS:u32SSPinMask <- $r1
	@DEBUG_VALUE: SPI_EnableAutoSS:u32SSPinMask <- $r1
	@DEBUG_VALUE: SPI_EnableAutoSS:u32ActiveLevel <- $r2
	@DEBUG_VALUE: SPI_EnableAutoSS:u32ActiveLevel <- $r2
	.loc	5 399 136 prologue_end          @ ../../../Library/StdDriver/src/spi.c:399:136
	orrs	r1, r2
.Ltmp164:
	@DEBUG_VALUE: SPI_EnableAutoSS:u32SSPinMask <- [DW_OP_LLVM_entry_value 1] $r1
	.loc	5 399 24 is_stmt 0              @ ../../../Library/StdDriver/src/spi.c:399:24
	ldr	r2, [r0, #8]
.Ltmp165:
	@DEBUG_VALUE: SPI_EnableAutoSS:u32ActiveLevel <- [DW_OP_LLVM_entry_value 1] $r2
	.loc	5 0 24                          @ ../../../Library/StdDriver/src/spi.c:0:24
	movs	r3, #5
	.loc	5 399 30                        @ ../../../Library/StdDriver/src/spi.c:399:30
	bics	r2, r3
	.loc	5 399 103                       @ ../../../Library/StdDriver/src/spi.c:399:103
	orrs	r2, r1
	movs	r1, #8
	orrs	r1, r2
	.loc	5 399 16                        @ ../../../Library/StdDriver/src/spi.c:399:16
	str	r1, [r0, #8]
	.loc	5 400 1 is_stmt 1               @ ../../../Library/StdDriver/src/spi.c:400:1
	bx	lr
.Ltmp166:
.Lfunc_end5:
	.size	SPI_EnableAutoSS, .Lfunc_end5-SPI_EnableAutoSS
	.cfi_endproc
	.cantunwind
	.fnend
                                        @ -- End function
	.section	.text.SPI_SetBusClock,"ax",%progbits
	.hidden	SPI_SetBusClock                 @ -- Begin function SPI_SetBusClock
	.globl	SPI_SetBusClock
	.p2align	2
	.type	SPI_SetBusClock,%function
	.code	16                              @ @SPI_SetBusClock
	.thumb_func
SPI_SetBusClock:
.Lfunc_begin6:
	.loc	5 417 0                         @ ../../../Library/StdDriver/src/spi.c:417:0
	.fnstart
	.cfi_startproc
@ %bb.0:
	@DEBUG_VALUE: SPI_SetBusClock:spi <- $r0
	@DEBUG_VALUE: SPI_SetBusClock:u32BusClock <- $r1
	.save	{r4, r5, r6, r7, lr}
	push	{r4, r5, r6, r7, lr}
	.cfi_def_cfa_offset 20
	.cfi_offset lr, -4
	.cfi_offset r7, -8
	.cfi_offset r6, -12
	.cfi_offset r5, -16
	.cfi_offset r4, -20
	.pad	#4
	sub	sp, #4
	.cfi_def_cfa_offset 24
	mov	r5, r1
	mov	r4, r0
.Ltmp167:
	@DEBUG_VALUE: SPI_SetBusClock:u32BusClock <- $r5
	@DEBUG_VALUE: SPI_SetBusClock:spi <- $r4
	.loc	5 422 19 prologue_end           @ ../../../Library/StdDriver/src/spi.c:422:19
	bl	CLK_GetHCLKFreq
	mov	r6, r0
.Ltmp168:
	@DEBUG_VALUE: SPI_SetBusClock:u32HCLKFreq <- $r6
	.loc	5 424 8                         @ ../../../Library/StdDriver/src/spi.c:424:8
	cmp	r0, r5
	bhi	.LBB6_11
.Ltmp169:
@ %bb.1:
	@DEBUG_VALUE: SPI_SetBusClock:u32HCLKFreq <- $r6
	@DEBUG_VALUE: SPI_SetBusClock:u32BusClock <- $r5
	@DEBUG_VALUE: SPI_SetBusClock:spi <- $r4
	.loc	5 0 8 is_stmt 0                 @ ../../../Library/StdDriver/src/spi.c:0:8
	ldr	r0, __arm_cp.6_0
.Ltmp170:
	.loc	5 426 21 is_stmt 1              @ ../../../Library/StdDriver/src/spi.c:426:21
	adds	r7, r0, #1
	.loc	5 426 14 is_stmt 0              @ ../../../Library/StdDriver/src/spi.c:426:14
	bl	__PC
.Ltmp171:
	.loc	5 426 12                        @ ../../../Library/StdDriver/src/spi.c:426:12
	tst	r0, r7
	bne	.LBB6_11
.Ltmp172:
@ %bb.2:
	@DEBUG_VALUE: SPI_SetBusClock:u32HCLKFreq <- $r6
	@DEBUG_VALUE: SPI_SetBusClock:u32BusClock <- $r5
	@DEBUG_VALUE: SPI_SetBusClock:spi <- $r4
	.loc	5 0 12                          @ ../../../Library/StdDriver/src/spi.c:0:12
	ldr	r0, __arm_cp.6_1
.Ltmp173:
	.loc	5 429 16 is_stmt 1              @ ../../../Library/StdDriver/src/spi.c:429:16
	cmp	r4, r0
	beq	.LBB6_6
.Ltmp174:
@ %bb.3:
	@DEBUG_VALUE: SPI_SetBusClock:u32HCLKFreq <- $r6
	@DEBUG_VALUE: SPI_SetBusClock:u32BusClock <- $r5
	@DEBUG_VALUE: SPI_SetBusClock:spi <- $r4
	.loc	5 0 16 is_stmt 0                @ ../../../Library/StdDriver/src/spi.c:0:16
	ldr	r0, __arm_cp.6_2
	.loc	5 429 16                        @ ../../../Library/StdDriver/src/spi.c:429:16
	cmp	r4, r0
	beq	.LBB6_8
.Ltmp175:
@ %bb.4:
	@DEBUG_VALUE: SPI_SetBusClock:u32HCLKFreq <- $r6
	@DEBUG_VALUE: SPI_SetBusClock:u32BusClock <- $r5
	@DEBUG_VALUE: SPI_SetBusClock:spi <- $r4
	.loc	5 0 16                          @ ../../../Library/StdDriver/src/spi.c:0:16
	ldr	r0, __arm_cp.6_3
	.loc	5 429 16                        @ ../../../Library/StdDriver/src/spi.c:429:16
	cmp	r4, r0
	bne	.LBB6_9
.Ltmp176:
@ %bb.5:
	@DEBUG_VALUE: SPI_SetBusClock:u32HCLKFreq <- $r6
	@DEBUG_VALUE: SPI_SetBusClock:u32BusClock <- $r5
	@DEBUG_VALUE: SPI_SetBusClock:spi <- $r4
	.loc	5 0 16                          @ ../../../Library/StdDriver/src/spi.c:0:16
	ldr	r0, __arm_cp.6_4
.Ltmp177:
	.loc	5 431 38 is_stmt 1              @ ../../../Library/StdDriver/src/spi.c:431:38
	ldr	r1, [r0]
	movs	r2, #32
	.loc	5 431 46 is_stmt 0              @ ../../../Library/StdDriver/src/spi.c:431:46
	orrs	r2, r1
	movs	r1, #16
	b	.LBB6_7
.Ltmp178:
.LBB6_6:
	@DEBUG_VALUE: SPI_SetBusClock:u32HCLKFreq <- $r6
	@DEBUG_VALUE: SPI_SetBusClock:u32BusClock <- $r5
	@DEBUG_VALUE: SPI_SetBusClock:spi <- $r4
	.loc	5 0 46                          @ ../../../Library/StdDriver/src/spi.c:0:46
	ldr	r0, __arm_cp.6_4
.Ltmp179:
	.loc	5 435 38 is_stmt 1              @ ../../../Library/StdDriver/src/spi.c:435:38
	ldr	r1, [r0]
	movs	r2, #128
	.loc	5 435 46 is_stmt 0              @ ../../../Library/StdDriver/src/spi.c:435:46
	orrs	r2, r1
	movs	r1, #64
.Ltmp180:
.LBB6_7:
	@DEBUG_VALUE: SPI_SetBusClock:u32HCLKFreq <- $r6
	@DEBUG_VALUE: SPI_SetBusClock:u32BusClock <- $r5
	@DEBUG_VALUE: SPI_SetBusClock:spi <- $r4
	.loc	5 0 0                           @ ../../../Library/StdDriver/src/spi.c:0:0
	bics	r2, r1
	str	r2, [r0]
	b	.LBB6_11
.Ltmp181:
.LBB6_8:
	@DEBUG_VALUE: SPI_SetBusClock:u32HCLKFreq <- $r6
	@DEBUG_VALUE: SPI_SetBusClock:u32BusClock <- $r5
	@DEBUG_VALUE: SPI_SetBusClock:spi <- $r4
	ldr	r0, __arm_cp.6_4
.Ltmp182:
	.loc	5 439 38 is_stmt 1              @ ../../../Library/StdDriver/src/spi.c:439:38
	ldr	r1, [r0]
	movw	r2, #3072
	.loc	5 439 46 is_stmt 0              @ ../../../Library/StdDriver/src/spi.c:439:46
	bics	r1, r2
	movw	r2, #2048
	b	.LBB6_10
.Ltmp183:
.LBB6_9:
	@DEBUG_VALUE: SPI_SetBusClock:u32HCLKFreq <- $r6
	@DEBUG_VALUE: SPI_SetBusClock:u32BusClock <- $r5
	@DEBUG_VALUE: SPI_SetBusClock:spi <- $r4
	.loc	5 0 46                          @ ../../../Library/StdDriver/src/spi.c:0:46
	ldr	r0, __arm_cp.6_4
.Ltmp184:
	.loc	5 443 38 is_stmt 1              @ ../../../Library/StdDriver/src/spi.c:443:38
	ldr	r1, [r0]
	movw	r2, #12288
	.loc	5 443 46 is_stmt 0              @ ../../../Library/StdDriver/src/spi.c:443:46
	bics	r1, r2
	movw	r2, #8192
.Ltmp185:
.LBB6_10:
	@DEBUG_VALUE: SPI_SetBusClock:u32HCLKFreq <- $r6
	@DEBUG_VALUE: SPI_SetBusClock:u32BusClock <- $r5
	@DEBUG_VALUE: SPI_SetBusClock:spi <- $r4
	.loc	5 0 0                           @ ../../../Library/StdDriver/src/spi.c:0:0
	adds	r1, r1, r2
	str	r1, [r0]
.Ltmp186:
.LBB6_11:
	@DEBUG_VALUE: SPI_SetBusClock:u32HCLKFreq <- $r6
	@DEBUG_VALUE: SPI_SetBusClock:u32BusClock <- $r5
	@DEBUG_VALUE: SPI_SetBusClock:spi <- $r4
	ldr	r7, __arm_cp.6_5
	ldr	r0, __arm_cp.6_1
	.loc	5 449 8 is_stmt 1               @ ../../../Library/StdDriver/src/spi.c:449:8
	cmp	r4, r0
	beq	.LBB6_17
.Ltmp187:
@ %bb.12:
	@DEBUG_VALUE: SPI_SetBusClock:u32HCLKFreq <- $r6
	@DEBUG_VALUE: SPI_SetBusClock:u32BusClock <- $r5
	@DEBUG_VALUE: SPI_SetBusClock:spi <- $r4
	.loc	5 0 8 is_stmt 0                 @ ../../../Library/StdDriver/src/spi.c:0:8
	ldr	r0, __arm_cp.6_2
	.loc	5 449 8                         @ ../../../Library/StdDriver/src/spi.c:449:8
	cmp	r4, r0
	beq	.LBB6_20
.Ltmp188:
@ %bb.13:
	@DEBUG_VALUE: SPI_SetBusClock:u32HCLKFreq <- $r6
	@DEBUG_VALUE: SPI_SetBusClock:u32BusClock <- $r5
	@DEBUG_VALUE: SPI_SetBusClock:spi <- $r4
	.loc	5 0 8                           @ ../../../Library/StdDriver/src/spi.c:0:8
	ldr	r0, __arm_cp.6_3
	.loc	5 449 8                         @ ../../../Library/StdDriver/src/spi.c:449:8
	cmp	r4, r0
	bne	.LBB6_25
.Ltmp189:
@ %bb.14:
	@DEBUG_VALUE: SPI_SetBusClock:u32HCLKFreq <- $r6
	@DEBUG_VALUE: SPI_SetBusClock:u32BusClock <- $r5
	@DEBUG_VALUE: SPI_SetBusClock:spi <- $r4
	.loc	5 0 8                           @ ../../../Library/StdDriver/src/spi.c:0:8
	ldr	r0, __arm_cp.6_10
.Ltmp190:
	.loc	5 451 13 is_stmt 1              @ ../../../Library/StdDriver/src/spi.c:451:13
	bl	CLK_GetModuleClockSource
.Ltmp191:
	.loc	5 451 12 is_stmt 0              @ ../../../Library/StdDriver/src/spi.c:451:12
	lsls	r0, r0, #4
	beq	.LBB6_32
.Ltmp192:
@ %bb.15:
	@DEBUG_VALUE: SPI_SetBusClock:u32HCLKFreq <- $r6
	@DEBUG_VALUE: SPI_SetBusClock:u32BusClock <- $r5
	@DEBUG_VALUE: SPI_SetBusClock:spi <- $r4
	.loc	5 455 18 is_stmt 1              @ ../../../Library/StdDriver/src/spi.c:455:18
	ldr	r0, __arm_cp.6_10
	bl	CLK_GetModuleClockSource
	.loc	5 455 84 is_stmt 0              @ ../../../Library/StdDriver/src/spi.c:455:84
	ldr	r1, __arm_cp.6_0
	ands	r0, r1
.Ltmp193:
	.loc	5 455 17                        @ ../../../Library/StdDriver/src/spi.c:455:17
	cmp	r0, #1
	beq	.LBB6_27
.Ltmp194:
@ %bb.16:
	@DEBUG_VALUE: SPI_SetBusClock:u32HCLKFreq <- $r6
	@DEBUG_VALUE: SPI_SetBusClock:u32BusClock <- $r5
	@DEBUG_VALUE: SPI_SetBusClock:spi <- $r4
	.loc	5 459 18 is_stmt 1              @ ../../../Library/StdDriver/src/spi.c:459:18
	ldr	r0, __arm_cp.6_10
	bl	CLK_GetModuleClockSource
	.loc	5 459 84 is_stmt 0              @ ../../../Library/StdDriver/src/spi.c:459:84
	ldr	r1, __arm_cp.6_0
	b	.LBB6_23
.Ltmp195:
.LBB6_17:
	@DEBUG_VALUE: SPI_SetBusClock:u32HCLKFreq <- $r6
	@DEBUG_VALUE: SPI_SetBusClock:u32BusClock <- $r5
	@DEBUG_VALUE: SPI_SetBusClock:spi <- $r4
	.loc	5 0 84                          @ ../../../Library/StdDriver/src/spi.c:0:84
	ldr	r0, __arm_cp.6_8
.Ltmp196:
	.loc	5 470 13 is_stmt 1              @ ../../../Library/StdDriver/src/spi.c:470:13
	bl	CLK_GetModuleClockSource
.Ltmp197:
	.loc	5 470 12 is_stmt 0              @ ../../../Library/StdDriver/src/spi.c:470:12
	lsls	r0, r0, #6
	beq	.LBB6_32
.Ltmp198:
@ %bb.18:
	@DEBUG_VALUE: SPI_SetBusClock:u32HCLKFreq <- $r6
	@DEBUG_VALUE: SPI_SetBusClock:u32BusClock <- $r5
	@DEBUG_VALUE: SPI_SetBusClock:spi <- $r4
	.loc	5 474 18 is_stmt 1              @ ../../../Library/StdDriver/src/spi.c:474:18
	ldr	r0, __arm_cp.6_8
	bl	CLK_GetModuleClockSource
	.loc	5 474 84 is_stmt 0              @ ../../../Library/StdDriver/src/spi.c:474:84
	ldr	r1, __arm_cp.6_9
	ands	r0, r1
.Ltmp199:
	.loc	5 474 17                        @ ../../../Library/StdDriver/src/spi.c:474:17
	cmp	r0, #1
	beq	.LBB6_27
.Ltmp200:
@ %bb.19:
	@DEBUG_VALUE: SPI_SetBusClock:u32HCLKFreq <- $r6
	@DEBUG_VALUE: SPI_SetBusClock:u32BusClock <- $r5
	@DEBUG_VALUE: SPI_SetBusClock:spi <- $r4
	.loc	5 478 18 is_stmt 1              @ ../../../Library/StdDriver/src/spi.c:478:18
	ldr	r0, __arm_cp.6_8
	bl	CLK_GetModuleClockSource
	.loc	5 478 84 is_stmt 0              @ ../../../Library/StdDriver/src/spi.c:478:84
	ldr	r1, __arm_cp.6_9
	b	.LBB6_29
.Ltmp201:
.LBB6_20:
	@DEBUG_VALUE: SPI_SetBusClock:u32HCLKFreq <- $r6
	@DEBUG_VALUE: SPI_SetBusClock:u32BusClock <- $r5
	@DEBUG_VALUE: SPI_SetBusClock:spi <- $r4
	.loc	5 0 84                          @ ../../../Library/StdDriver/src/spi.c:0:84
	ldr	r0, __arm_cp.6_6
.Ltmp202:
	.loc	5 489 13 is_stmt 1              @ ../../../Library/StdDriver/src/spi.c:489:13
	bl	CLK_GetModuleClockSource
.Ltmp203:
	.loc	5 489 12 is_stmt 0              @ ../../../Library/StdDriver/src/spi.c:489:12
	lsls	r0, r0, #10
	beq	.LBB6_32
.Ltmp204:
@ %bb.21:
	@DEBUG_VALUE: SPI_SetBusClock:u32HCLKFreq <- $r6
	@DEBUG_VALUE: SPI_SetBusClock:u32BusClock <- $r5
	@DEBUG_VALUE: SPI_SetBusClock:spi <- $r4
	.loc	5 493 18 is_stmt 1              @ ../../../Library/StdDriver/src/spi.c:493:18
	ldr	r0, __arm_cp.6_6
	bl	CLK_GetModuleClockSource
	.loc	5 493 84 is_stmt 0              @ ../../../Library/StdDriver/src/spi.c:493:84
	ldr	r1, __arm_cp.6_7
	ands	r0, r1
.Ltmp205:
	.loc	5 493 17                        @ ../../../Library/StdDriver/src/spi.c:493:17
	cmp	r0, #1
	beq	.LBB6_27
.Ltmp206:
@ %bb.22:
	@DEBUG_VALUE: SPI_SetBusClock:u32HCLKFreq <- $r6
	@DEBUG_VALUE: SPI_SetBusClock:u32BusClock <- $r5
	@DEBUG_VALUE: SPI_SetBusClock:spi <- $r4
	.loc	5 497 18 is_stmt 1              @ ../../../Library/StdDriver/src/spi.c:497:18
	ldr	r0, __arm_cp.6_6
	bl	CLK_GetModuleClockSource
	.loc	5 497 84 is_stmt 0              @ ../../../Library/StdDriver/src/spi.c:497:84
	ldr	r1, __arm_cp.6_7
.Ltmp207:
.LBB6_23:
	@DEBUG_VALUE: SPI_SetBusClock:u32HCLKFreq <- $r6
	@DEBUG_VALUE: SPI_SetBusClock:u32BusClock <- $r5
	@DEBUG_VALUE: SPI_SetBusClock:spi <- $r4
	.loc	5 0 0                           @ ../../../Library/StdDriver/src/spi.c:0:0
	ands	r0, r1
	cmp	r0, #2
	bne	.LBB6_32
.Ltmp208:
@ %bb.24:
	@DEBUG_VALUE: SPI_SetBusClock:u32HCLKFreq <- $r6
	@DEBUG_VALUE: SPI_SetBusClock:u32BusClock <- $r5
	@DEBUG_VALUE: SPI_SetBusClock:spi <- $r4
	bl	CLK_GetPCLK1Freq
	b	.LBB6_31
.Ltmp209:
.LBB6_25:
	@DEBUG_VALUE: SPI_SetBusClock:u32HCLKFreq <- $r6
	@DEBUG_VALUE: SPI_SetBusClock:u32BusClock <- $r5
	@DEBUG_VALUE: SPI_SetBusClock:spi <- $r4
	ldr	r0, __arm_cp.6_11
.Ltmp210:
	.loc	5 508 13 is_stmt 1              @ ../../../Library/StdDriver/src/spi.c:508:13
	bl	CLK_GetModuleClockSource
.Ltmp211:
	.loc	5 508 12 is_stmt 0              @ ../../../Library/StdDriver/src/spi.c:508:12
	lsls	r0, r0, #12
	beq	.LBB6_32
.Ltmp212:
@ %bb.26:
	@DEBUG_VALUE: SPI_SetBusClock:u32HCLKFreq <- $r6
	@DEBUG_VALUE: SPI_SetBusClock:u32BusClock <- $r5
	@DEBUG_VALUE: SPI_SetBusClock:spi <- $r4
	.loc	5 512 18 is_stmt 1              @ ../../../Library/StdDriver/src/spi.c:512:18
	ldr	r0, __arm_cp.6_11
	bl	CLK_GetModuleClockSource
	.loc	5 512 84 is_stmt 0              @ ../../../Library/StdDriver/src/spi.c:512:84
	ldr	r1, __arm_cp.6_12
	ands	r0, r1
.Ltmp213:
	.loc	5 512 17                        @ ../../../Library/StdDriver/src/spi.c:512:17
	cmp	r0, #1
	bne	.LBB6_28
.Ltmp214:
.LBB6_27:
	@DEBUG_VALUE: SPI_SetBusClock:u32HCLKFreq <- $r6
	@DEBUG_VALUE: SPI_SetBusClock:u32BusClock <- $r5
	@DEBUG_VALUE: SPI_SetBusClock:spi <- $r4
	.loc	5 0 0                           @ ../../../Library/StdDriver/src/spi.c:0:0
	bl	CLK_GetPLLClockFreq
	b	.LBB6_31
.Ltmp215:
.LBB6_28:
	@DEBUG_VALUE: SPI_SetBusClock:u32HCLKFreq <- $r6
	@DEBUG_VALUE: SPI_SetBusClock:u32BusClock <- $r5
	@DEBUG_VALUE: SPI_SetBusClock:spi <- $r4
	.loc	5 516 18 is_stmt 1              @ ../../../Library/StdDriver/src/spi.c:516:18
	ldr	r0, __arm_cp.6_11
	bl	CLK_GetModuleClockSource
	.loc	5 516 84 is_stmt 0              @ ../../../Library/StdDriver/src/spi.c:516:84
	ldr	r1, __arm_cp.6_12
.Ltmp216:
.LBB6_29:
	@DEBUG_VALUE: SPI_SetBusClock:u32HCLKFreq <- $r6
	@DEBUG_VALUE: SPI_SetBusClock:u32BusClock <- $r5
	@DEBUG_VALUE: SPI_SetBusClock:spi <- $r4
	.loc	5 0 0                           @ ../../../Library/StdDriver/src/spi.c:0:0
	ands	r0, r1
	cmp	r0, #2
	bne	.LBB6_32
.Ltmp217:
@ %bb.30:
	@DEBUG_VALUE: SPI_SetBusClock:u32HCLKFreq <- $r6
	@DEBUG_VALUE: SPI_SetBusClock:u32BusClock <- $r5
	@DEBUG_VALUE: SPI_SetBusClock:spi <- $r4
	bl	CLK_GetPCLK0Freq
.Ltmp218:
.LBB6_31:
	@DEBUG_VALUE: SPI_SetBusClock:u32HCLKFreq <- $r6
	@DEBUG_VALUE: SPI_SetBusClock:u32BusClock <- $r5
	@DEBUG_VALUE: SPI_SetBusClock:spi <- $r4
	mov	r7, r0
.Ltmp219:
	@DEBUG_VALUE: SPI_SetBusClock:u32ClkSrc <- $r7
.LBB6_32:
	@DEBUG_VALUE: SPI_SetBusClock:u32HCLKFreq <- $r6
	@DEBUG_VALUE: SPI_SetBusClock:u32BusClock <- $r5
	@DEBUG_VALUE: SPI_SetBusClock:spi <- $r4
	@DEBUG_VALUE: SPI_SetBusClock:u32ClkSrc <- $r7
	.loc	5 526 8 is_stmt 1               @ ../../../Library/StdDriver/src/spi.c:526:8
	cmp	r6, r5
	bls	.LBB6_37
.Ltmp220:
@ %bb.33:
	@DEBUG_VALUE: SPI_SetBusClock:u32ClkSrc <- $r7
	@DEBUG_VALUE: SPI_SetBusClock:u32HCLKFreq <- $r6
	@DEBUG_VALUE: SPI_SetBusClock:u32BusClock <- $r5
	@DEBUG_VALUE: SPI_SetBusClock:spi <- $r4
	.loc	5 533 13                        @ ../../../Library/StdDriver/src/spi.c:533:13
	cmp	r7, r5
	bls	.LBB6_38
.Ltmp221:
@ %bb.34:
	@DEBUG_VALUE: SPI_SetBusClock:u32ClkSrc <- $r7
	@DEBUG_VALUE: SPI_SetBusClock:u32HCLKFreq <- $r6
	@DEBUG_VALUE: SPI_SetBusClock:u32BusClock <- $r5
	@DEBUG_VALUE: SPI_SetBusClock:spi <- $r4
	.loc	5 0 13 is_stmt 0                @ ../../../Library/StdDriver/src/spi.c:0:13
	ldr	r0, __arm_cp.6_13
.Ltmp222:
	.loc	5 540 13 is_stmt 1              @ ../../../Library/StdDriver/src/spi.c:540:13
	cbz	r5, .LBB6_39
.Ltmp223:
@ %bb.35:
	@DEBUG_VALUE: SPI_SetBusClock:u32ClkSrc <- $r7
	@DEBUG_VALUE: SPI_SetBusClock:u32HCLKFreq <- $r6
	@DEBUG_VALUE: SPI_SetBusClock:u32BusClock <- $r5
	@DEBUG_VALUE: SPI_SetBusClock:spi <- $r4
	.loc	5 0 13 is_stmt 0                @ ../../../Library/StdDriver/src/spi.c:0:13
	movs	r1, #10
.Ltmp224:
	.loc	5 549 31 is_stmt 1              @ ../../../Library/StdDriver/src/spi.c:549:31
	mov	r2, r1
	muls	r2, r7, r2
	.loc	5 549 39 is_stmt 0              @ ../../../Library/StdDriver/src/spi.c:549:39
	udiv	r2, r2, r5
	.loc	5 549 53                        @ ../../../Library/StdDriver/src/spi.c:549:53
	adds	r2, r2, #5
	.loc	5 549 60                        @ ../../../Library/StdDriver/src/spi.c:549:60
	udiv	r2, r2, r1
	.loc	5 549 68                        @ ../../../Library/StdDriver/src/spi.c:549:68
	subs	r3, r2, #1
.Ltmp225:
	@DEBUG_VALUE: SPI_SetBusClock:u32Div <- $r3
	.loc	5 0 0                           @ ../../../Library/StdDriver/src/spi.c:0:0
	ldr	r1, [r4, #4]
.Ltmp226:
	.loc	5 550 12 is_stmt 1              @ ../../../Library/StdDriver/src/spi.c:550:12
	cmp	r3, r0
	bls	.LBB6_40
.Ltmp227:
@ %bb.36:
	@DEBUG_VALUE: SPI_SetBusClock:u32ClkSrc <- $r7
	@DEBUG_VALUE: SPI_SetBusClock:u32HCLKFreq <- $r6
	@DEBUG_VALUE: SPI_SetBusClock:u32BusClock <- $r5
	@DEBUG_VALUE: SPI_SetBusClock:spi <- $r4
	@DEBUG_VALUE: SPI_SetBusClock:u32Div <- $r3
	@DEBUG_VALUE: SPI_SetBusClock:u32Div <- 511
	.loc	5 553 25                        @ ../../../Library/StdDriver/src/spi.c:553:25
	orrs	r1, r0
	str	r1, [r4, #4]
	.loc	5 555 38                        @ ../../../Library/StdDriver/src/spi.c:555:38
	lsrs	r7, r7, #9
.Ltmp228:
	@DEBUG_VALUE: SPI_SetBusClock:u32RetValue <- $r7
	.loc	5 556 9                         @ ../../../Library/StdDriver/src/spi.c:556:9
	b	.LBB6_41
.Ltmp229:
.LBB6_37:
	@DEBUG_VALUE: SPI_SetBusClock:u32ClkSrc <- $r7
	@DEBUG_VALUE: SPI_SetBusClock:u32HCLKFreq <- $r6
	@DEBUG_VALUE: SPI_SetBusClock:u32BusClock <- $r5
	@DEBUG_VALUE: SPI_SetBusClock:spi <- $r4
	.loc	5 0 9 is_stmt 0                 @ ../../../Library/StdDriver/src/spi.c:0:9
	movs	r0, #0
.Ltmp230:
	.loc	5 529 21 is_stmt 1              @ ../../../Library/StdDriver/src/spi.c:529:21
	str	r0, [r4, #4]
.Ltmp231:
	@DEBUG_VALUE: SPI_SetBusClock:u32RetValue <- $r7
	.loc	5 532 5                         @ ../../../Library/StdDriver/src/spi.c:532:5
	b	.LBB6_41
.Ltmp232:
.LBB6_38:
	@DEBUG_VALUE: SPI_SetBusClock:u32ClkSrc <- $r7
	@DEBUG_VALUE: SPI_SetBusClock:u32HCLKFreq <- $r6
	@DEBUG_VALUE: SPI_SetBusClock:u32BusClock <- $r5
	@DEBUG_VALUE: SPI_SetBusClock:spi <- $r4
	.loc	5 0 5 is_stmt 0                 @ ../../../Library/StdDriver/src/spi.c:0:5
	movs	r0, #0
.Ltmp233:
	.loc	5 536 21 is_stmt 1              @ ../../../Library/StdDriver/src/spi.c:536:21
	str	r0, [r4, #4]
.Ltmp234:
	@DEBUG_VALUE: SPI_SetBusClock:u32RetValue <- $r7
	.loc	5 539 5                         @ ../../../Library/StdDriver/src/spi.c:539:5
	b	.LBB6_41
.Ltmp235:
.LBB6_39:
	@DEBUG_VALUE: SPI_SetBusClock:u32ClkSrc <- $r7
	@DEBUG_VALUE: SPI_SetBusClock:u32HCLKFreq <- $r6
	@DEBUG_VALUE: SPI_SetBusClock:u32BusClock <- $r5
	@DEBUG_VALUE: SPI_SetBusClock:spi <- $r4
	.loc	5 543 21                        @ ../../../Library/StdDriver/src/spi.c:543:21
	ldr	r1, [r4, #4]
	orrs	r1, r0
	str	r1, [r4, #4]
	.loc	5 545 34                        @ ../../../Library/StdDriver/src/spi.c:545:34
	lsrs	r7, r7, #9
.Ltmp236:
	@DEBUG_VALUE: SPI_SetBusClock:u32RetValue <- $r7
	.loc	5 546 5                         @ ../../../Library/StdDriver/src/spi.c:546:5
	b	.LBB6_41
.Ltmp237:
.LBB6_40:
	@DEBUG_VALUE: SPI_SetBusClock:u32ClkSrc <- $r7
	@DEBUG_VALUE: SPI_SetBusClock:u32HCLKFreq <- $r6
	@DEBUG_VALUE: SPI_SetBusClock:u32BusClock <- $r5
	@DEBUG_VALUE: SPI_SetBusClock:spi <- $r4
	@DEBUG_VALUE: SPI_SetBusClock:u32Div <- $r3
	.loc	5 0 5 is_stmt 0                 @ ../../../Library/StdDriver/src/spi.c:0:5
	ldr	r0, __arm_cp.6_14
.Ltmp238:
	.loc	5 559 40 is_stmt 1              @ ../../../Library/StdDriver/src/spi.c:559:40
	ands	r1, r0
	.loc	5 559 69 is_stmt 0              @ ../../../Library/StdDriver/src/spi.c:559:69
	orrs	r1, r3
	.loc	5 559 25                        @ ../../../Library/StdDriver/src/spi.c:559:25
	str	r1, [r4, #4]
	.loc	5 561 38 is_stmt 1              @ ../../../Library/StdDriver/src/spi.c:561:38
	udiv	r7, r7, r2
.Ltmp239:
	@DEBUG_VALUE: SPI_SetBusClock:u32RetValue <- $r7
.LBB6_41:
	@DEBUG_VALUE: SPI_SetBusClock:u32RetValue <- $r7
	@DEBUG_VALUE: SPI_SetBusClock:u32HCLKFreq <- $r6
	@DEBUG_VALUE: SPI_SetBusClock:u32BusClock <- $r5
	@DEBUG_VALUE: SPI_SetBusClock:spi <- $r4
	@DEBUG_VALUE: SPI_SetBusClock:u32RetValue <- $r7
	.loc	5 565 5                         @ ../../../Library/StdDriver/src/spi.c:565:5
	mov	r0, r7
	add	sp, #4
	pop	{r4, r5, r6, r7, pc}
.Ltmp240:
	.p2align	2
@ %bb.42:
	.loc	5 0 5 is_stmt 0                 @ ../../../Library/StdDriver/src/spi.c:0:5
__arm_cp.6_0:
	.long	268435455                       @ 0xfffffff
.Lcpi_end15:
	.size	__arm_cp.6_0, .Lcpi_end15-__arm_cp.6_0
__arm_cp.6_1:
	.long	1342578688                      @ 0x50062000
.Lcpi_end16:
	.size	__arm_cp.6_1, .Lcpi_end16-__arm_cp.6_1
__arm_cp.6_2:
	.long	1074147328                      @ 0x40063000
.Lcpi_end17:
	.size	__arm_cp.6_2, .Lcpi_end17-__arm_cp.6_2
__arm_cp.6_3:
	.long	1074139136                      @ 0x40061000
.Lcpi_end18:
	.size	__arm_cp.6_3, .Lcpi_end18-__arm_cp.6_3
__arm_cp.6_4:
	.long	1073742360                      @ 0x40000218
.Lcpi_end19:
	.size	__arm_cp.6_4, .Lcpi_end19-__arm_cp.6_4
__arm_cp.6_5:
	.long	12000000                        @ 0xb71b00
.Lcpi_end20:
	.size	__arm_cp.6_5, .Lcpi_end20-__arm_cp.6_5
__arm_cp.6_6:
	.long	1721761807                      @ 0x66a0000f
.Lcpi_end21:
	.size	__arm_cp.6_6, .Lcpi_end21-__arm_cp.6_6
__arm_cp.6_7:
	.long	4194303                         @ 0x3fffff
.Lcpi_end22:
	.size	__arm_cp.6_7, .Lcpi_end22-__arm_cp.6_7
__arm_cp.6_8:
	.long	1717567502                      @ 0x6660000e
.Lcpi_end23:
	.size	__arm_cp.6_8, .Lcpi_end23-__arm_cp.6_8
__arm_cp.6_9:
	.long	67108863                        @ 0x3ffffff
.Lcpi_end24:
	.size	__arm_cp.6_9, .Lcpi_end24-__arm_cp.6_9
__arm_cp.6_10:
	.long	1715470349                      @ 0x6640000d
.Lcpi_end25:
	.size	__arm_cp.6_10, .Lcpi_end25-__arm_cp.6_10
__arm_cp.6_11:
	.long	2797600774                      @ 0xa6c00006
.Lcpi_end26:
	.size	__arm_cp.6_11, .Lcpi_end26-__arm_cp.6_11
__arm_cp.6_12:
	.long	1048575                         @ 0xfffff
.Lcpi_end27:
	.size	__arm_cp.6_12, .Lcpi_end27-__arm_cp.6_12
__arm_cp.6_13:
	.long	511                             @ 0x1ff
.Lcpi_end28:
	.size	__arm_cp.6_13, .Lcpi_end28-__arm_cp.6_13
__arm_cp.6_14:
	.long	4294966784                      @ 0xfffffe00
.Lcpi_end29:
	.size	__arm_cp.6_14, .Lcpi_end29-__arm_cp.6_14
.Lfunc_end6:
	.size	SPI_SetBusClock, .Lfunc_end6-SPI_SetBusClock
	.cfi_endproc
	.cantunwind
	.fnend
                                        @ -- End function
	.section	.text.SPI_SetFIFO,"ax",%progbits
	.hidden	SPI_SetFIFO                     @ -- Begin function SPI_SetFIFO
	.globl	SPI_SetFIFO
	.p2align	1
	.type	SPI_SetFIFO,%function
	.code	16                              @ @SPI_SetFIFO
	.thumb_func
SPI_SetFIFO:
.Lfunc_begin7:
	.loc	5 577 0 is_stmt 1               @ ../../../Library/StdDriver/src/spi.c:577:0
	.fnstart
	.cfi_startproc
@ %bb.0:
	@DEBUG_VALUE: SPI_SetFIFO:spi <- $r0
	@DEBUG_VALUE: SPI_SetFIFO:u32TxThreshold <- $r1
	@DEBUG_VALUE: SPI_SetFIFO:u32RxThreshold <- $r2
	.save	{r4, lr}
	push	{r4, lr}
	.cfi_def_cfa_offset 8
	.cfi_offset lr, -4
	.cfi_offset r4, -8
	movs	r3, #119
	lsls	r3, r3, #24
	@DEBUG_VALUE: SPI_SetFIFO:u32RxThreshold <- $r2
	@DEBUG_VALUE: SPI_SetFIFO:u32TxThreshold <- $r1
	@DEBUG_VALUE: SPI_SetFIFO:spi <- $r0
.Ltmp241:
	.loc	5 578 26 prologue_end           @ ../../../Library/StdDriver/src/spi.c:578:26
	ldr	r4, [r0, #16]
	.loc	5 578 34 is_stmt 0              @ ../../../Library/StdDriver/src/spi.c:578:34
	bics	r4, r3
	.loc	5 579 36 is_stmt 1              @ ../../../Library/StdDriver/src/spi.c:579:36
	lsls	r1, r1, #28
.Ltmp242:
	@DEBUG_VALUE: SPI_SetFIFO:u32TxThreshold <- [DW_OP_LLVM_entry_value 1] $r1
	.loc	5 580 36                        @ ../../../Library/StdDriver/src/spi.c:580:36
	lsls	r2, r2, #24
.Ltmp243:
	@DEBUG_VALUE: SPI_SetFIFO:u32RxThreshold <- [DW_OP_LLVM_entry_value 1] $r2
	.loc	5 578 84                        @ ../../../Library/StdDriver/src/spi.c:578:84
	orrs	r2, r1
	.loc	5 579 61                        @ ../../../Library/StdDriver/src/spi.c:579:61
	orrs	r2, r4
	.loc	5 578 18                        @ ../../../Library/StdDriver/src/spi.c:578:18
	str	r2, [r0, #16]
	.loc	5 581 1                         @ ../../../Library/StdDriver/src/spi.c:581:1
	pop	{r4, pc}
.Ltmp244:
.Lfunc_end7:
	.size	SPI_SetFIFO, .Lfunc_end7-SPI_SetFIFO
	.cfi_endproc
	.cantunwind
	.fnend
                                        @ -- End function
	.section	.text.SPI_GetBusClock,"ax",%progbits
	.hidden	SPI_GetBusClock                 @ -- Begin function SPI_GetBusClock
	.globl	SPI_GetBusClock
	.p2align	2
	.type	SPI_GetBusClock,%function
	.code	16                              @ @SPI_GetBusClock
	.thumb_func
SPI_GetBusClock:
.Lfunc_begin8:
	.loc	5 590 0                         @ ../../../Library/StdDriver/src/spi.c:590:0
	.fnstart
	.cfi_startproc
@ %bb.0:
	@DEBUG_VALUE: SPI_GetBusClock:spi <- $r0
	@DEBUG_VALUE: SPI_GetBusClock:spi <- $r0
	.save	{r4, r5, r6, r7, lr}
	push	{r4, r5, r6, r7, lr}
	.cfi_def_cfa_offset 20
	.cfi_offset lr, -4
	.cfi_offset r7, -8
	.cfi_offset r6, -12
	.cfi_offset r5, -16
	.cfi_offset r4, -20
	.pad	#4
	sub	sp, #4
	.cfi_def_cfa_offset 24
.Ltmp245:
	.loc	5 595 20 prologue_end           @ ../../../Library/StdDriver/src/spi.c:595:20
	ldr	r6, [r0, #4]
.Ltmp246:
	@DEBUG_VALUE: SPI_GetBusClock:u32Div <- [DW_OP_constu 511, DW_OP_and, DW_OP_stack_value] $r6
	.loc	5 0 20 is_stmt 0                @ ../../../Library/StdDriver/src/spi.c:0:20
	ldr	r4, __arm_cp.8_0
	ldr	r1, __arm_cp.8_1
	.loc	5 598 8 is_stmt 1               @ ../../../Library/StdDriver/src/spi.c:598:8
	cmp	r0, r1
	beq	.LBB8_6
.Ltmp247:
@ %bb.1:
	@DEBUG_VALUE: SPI_GetBusClock:u32Div <- [DW_OP_constu 511, DW_OP_and, DW_OP_stack_value] $r6
	@DEBUG_VALUE: SPI_GetBusClock:spi <- $r0
	.loc	5 0 8 is_stmt 0                 @ ../../../Library/StdDriver/src/spi.c:0:8
	ldr	r1, __arm_cp.8_2
	.loc	5 598 8                         @ ../../../Library/StdDriver/src/spi.c:598:8
	cmp	r0, r1
	beq	.LBB8_9
.Ltmp248:
@ %bb.2:
	@DEBUG_VALUE: SPI_GetBusClock:u32Div <- [DW_OP_constu 511, DW_OP_and, DW_OP_stack_value] $r6
	@DEBUG_VALUE: SPI_GetBusClock:spi <- $r0
	.loc	5 0 8                           @ ../../../Library/StdDriver/src/spi.c:0:8
	ldr	r1, __arm_cp.8_3
	.loc	5 598 8                         @ ../../../Library/StdDriver/src/spi.c:598:8
	cmp	r0, r1
	bne	.LBB8_12
.Ltmp249:
@ %bb.3:
	@DEBUG_VALUE: SPI_GetBusClock:u32Div <- [DW_OP_constu 511, DW_OP_and, DW_OP_stack_value] $r6
	@DEBUG_VALUE: SPI_GetBusClock:spi <- $r0
	.loc	5 0 8                           @ ../../../Library/StdDriver/src/spi.c:0:8
	ldr	r5, __arm_cp.8_8
.Ltmp250:
	.loc	5 600 13 is_stmt 1              @ ../../../Library/StdDriver/src/spi.c:600:13
	mov	r0, r5
.Ltmp251:
	@DEBUG_VALUE: SPI_GetBusClock:spi <- [DW_OP_LLVM_entry_value 1] $r0
	bl	CLK_GetModuleClockSource
.Ltmp252:
	.loc	5 600 12 is_stmt 0              @ ../../../Library/StdDriver/src/spi.c:600:12
	lsls	r0, r0, #4
	beq	.LBB8_23
.Ltmp253:
@ %bb.4:
	@DEBUG_VALUE: SPI_GetBusClock:u32Div <- [DW_OP_constu 511, DW_OP_and, DW_OP_stack_value] $r6
	@DEBUG_VALUE: SPI_GetBusClock:spi <- [DW_OP_LLVM_entry_value 1] $r0
	.loc	5 0 12                          @ ../../../Library/StdDriver/src/spi.c:0:12
	ldr	r7, __arm_cp.8_9
.Ltmp254:
	.loc	5 604 18 is_stmt 1              @ ../../../Library/StdDriver/src/spi.c:604:18
	mov	r0, r5
	bl	CLK_GetModuleClockSource
	.loc	5 604 84 is_stmt 0              @ ../../../Library/StdDriver/src/spi.c:604:84
	ands	r0, r7
.Ltmp255:
	.loc	5 604 17                        @ ../../../Library/StdDriver/src/spi.c:604:17
	cmp	r0, #1
	bne	.LBB8_15
.Ltmp256:
@ %bb.5:
	@DEBUG_VALUE: SPI_GetBusClock:u32Div <- [DW_OP_constu 511, DW_OP_and, DW_OP_stack_value] $r6
	@DEBUG_VALUE: SPI_GetBusClock:spi <- [DW_OP_LLVM_entry_value 1] $r0
	.loc	5 606 25 is_stmt 1              @ ../../../Library/StdDriver/src/spi.c:606:25
	bl	CLK_GetPLLClockFreq
	mov	r4, r0
.Ltmp257:
	@DEBUG_VALUE: SPI_GetBusClock:u32ClkSrc <- $r4
	.loc	5 607 9                         @ ../../../Library/StdDriver/src/spi.c:607:9
	b	.LBB8_23
.Ltmp258:
.LBB8_6:
	@DEBUG_VALUE: SPI_GetBusClock:u32Div <- [DW_OP_constu 511, DW_OP_and, DW_OP_stack_value] $r6
	@DEBUG_VALUE: SPI_GetBusClock:spi <- $r0
	.loc	5 0 9 is_stmt 0                 @ ../../../Library/StdDriver/src/spi.c:0:9
	ldr	r5, __arm_cp.8_6
.Ltmp259:
	.loc	5 619 13 is_stmt 1              @ ../../../Library/StdDriver/src/spi.c:619:13
	mov	r0, r5
.Ltmp260:
	@DEBUG_VALUE: SPI_GetBusClock:spi <- [DW_OP_LLVM_entry_value 1] $r0
	bl	CLK_GetModuleClockSource
.Ltmp261:
	.loc	5 619 12 is_stmt 0              @ ../../../Library/StdDriver/src/spi.c:619:12
	lsls	r0, r0, #6
	beq	.LBB8_23
.Ltmp262:
@ %bb.7:
	@DEBUG_VALUE: SPI_GetBusClock:u32Div <- [DW_OP_constu 511, DW_OP_and, DW_OP_stack_value] $r6
	@DEBUG_VALUE: SPI_GetBusClock:spi <- [DW_OP_LLVM_entry_value 1] $r0
	.loc	5 0 12                          @ ../../../Library/StdDriver/src/spi.c:0:12
	ldr	r7, __arm_cp.8_7
.Ltmp263:
	.loc	5 623 18 is_stmt 1              @ ../../../Library/StdDriver/src/spi.c:623:18
	mov	r0, r5
	bl	CLK_GetModuleClockSource
	.loc	5 623 84 is_stmt 0              @ ../../../Library/StdDriver/src/spi.c:623:84
	ands	r0, r7
.Ltmp264:
	.loc	5 623 17                        @ ../../../Library/StdDriver/src/spi.c:623:17
	cmp	r0, #1
	bne	.LBB8_17
.Ltmp265:
@ %bb.8:
	@DEBUG_VALUE: SPI_GetBusClock:u32Div <- [DW_OP_constu 511, DW_OP_and, DW_OP_stack_value] $r6
	@DEBUG_VALUE: SPI_GetBusClock:spi <- [DW_OP_LLVM_entry_value 1] $r0
	.loc	5 625 25 is_stmt 1              @ ../../../Library/StdDriver/src/spi.c:625:25
	bl	CLK_GetPLLClockFreq
	mov	r4, r0
.Ltmp266:
	@DEBUG_VALUE: SPI_GetBusClock:u32ClkSrc <- $r4
	.loc	5 626 9                         @ ../../../Library/StdDriver/src/spi.c:626:9
	b	.LBB8_23
.Ltmp267:
.LBB8_9:
	@DEBUG_VALUE: SPI_GetBusClock:u32Div <- [DW_OP_constu 511, DW_OP_and, DW_OP_stack_value] $r6
	@DEBUG_VALUE: SPI_GetBusClock:spi <- $r0
	.loc	5 0 9 is_stmt 0                 @ ../../../Library/StdDriver/src/spi.c:0:9
	ldr	r5, __arm_cp.8_4
.Ltmp268:
	.loc	5 638 13 is_stmt 1              @ ../../../Library/StdDriver/src/spi.c:638:13
	mov	r0, r5
.Ltmp269:
	@DEBUG_VALUE: SPI_GetBusClock:spi <- [DW_OP_LLVM_entry_value 1] $r0
	bl	CLK_GetModuleClockSource
.Ltmp270:
	.loc	5 638 12 is_stmt 0              @ ../../../Library/StdDriver/src/spi.c:638:12
	lsls	r0, r0, #10
	beq	.LBB8_23
.Ltmp271:
@ %bb.10:
	@DEBUG_VALUE: SPI_GetBusClock:u32Div <- [DW_OP_constu 511, DW_OP_and, DW_OP_stack_value] $r6
	@DEBUG_VALUE: SPI_GetBusClock:spi <- [DW_OP_LLVM_entry_value 1] $r0
	.loc	5 0 12                          @ ../../../Library/StdDriver/src/spi.c:0:12
	ldr	r7, __arm_cp.8_5
.Ltmp272:
	.loc	5 642 18 is_stmt 1              @ ../../../Library/StdDriver/src/spi.c:642:18
	mov	r0, r5
	bl	CLK_GetModuleClockSource
	.loc	5 642 84 is_stmt 0              @ ../../../Library/StdDriver/src/spi.c:642:84
	ands	r0, r7
.Ltmp273:
	.loc	5 642 17                        @ ../../../Library/StdDriver/src/spi.c:642:17
	cmp	r0, #1
	bne	.LBB8_19
.Ltmp274:
@ %bb.11:
	@DEBUG_VALUE: SPI_GetBusClock:u32Div <- [DW_OP_constu 511, DW_OP_and, DW_OP_stack_value] $r6
	@DEBUG_VALUE: SPI_GetBusClock:spi <- [DW_OP_LLVM_entry_value 1] $r0
	.loc	5 644 25 is_stmt 1              @ ../../../Library/StdDriver/src/spi.c:644:25
	bl	CLK_GetPLLClockFreq
	mov	r4, r0
.Ltmp275:
	@DEBUG_VALUE: SPI_GetBusClock:u32ClkSrc <- $r4
	.loc	5 645 9                         @ ../../../Library/StdDriver/src/spi.c:645:9
	b	.LBB8_23
.Ltmp276:
.LBB8_12:
	@DEBUG_VALUE: SPI_GetBusClock:u32Div <- [DW_OP_constu 511, DW_OP_and, DW_OP_stack_value] $r6
	@DEBUG_VALUE: SPI_GetBusClock:spi <- $r0
	.loc	5 0 9 is_stmt 0                 @ ../../../Library/StdDriver/src/spi.c:0:9
	ldr	r5, __arm_cp.8_10
.Ltmp277:
	.loc	5 657 13 is_stmt 1              @ ../../../Library/StdDriver/src/spi.c:657:13
	mov	r0, r5
.Ltmp278:
	@DEBUG_VALUE: SPI_GetBusClock:spi <- [DW_OP_LLVM_entry_value 1] $r0
	bl	CLK_GetModuleClockSource
.Ltmp279:
	.loc	5 657 12 is_stmt 0              @ ../../../Library/StdDriver/src/spi.c:657:12
	lsls	r0, r0, #12
	beq	.LBB8_23
.Ltmp280:
@ %bb.13:
	@DEBUG_VALUE: SPI_GetBusClock:u32Div <- [DW_OP_constu 511, DW_OP_and, DW_OP_stack_value] $r6
	@DEBUG_VALUE: SPI_GetBusClock:spi <- [DW_OP_LLVM_entry_value 1] $r0
	.loc	5 0 12                          @ ../../../Library/StdDriver/src/spi.c:0:12
	ldr	r7, __arm_cp.8_11
.Ltmp281:
	.loc	5 661 18 is_stmt 1              @ ../../../Library/StdDriver/src/spi.c:661:18
	mov	r0, r5
	bl	CLK_GetModuleClockSource
	.loc	5 661 84 is_stmt 0              @ ../../../Library/StdDriver/src/spi.c:661:84
	ands	r0, r7
.Ltmp282:
	.loc	5 661 17                        @ ../../../Library/StdDriver/src/spi.c:661:17
	cmp	r0, #1
	bne	.LBB8_21
.Ltmp283:
@ %bb.14:
	@DEBUG_VALUE: SPI_GetBusClock:u32Div <- [DW_OP_constu 511, DW_OP_and, DW_OP_stack_value] $r6
	@DEBUG_VALUE: SPI_GetBusClock:spi <- [DW_OP_LLVM_entry_value 1] $r0
	.loc	5 663 25 is_stmt 1              @ ../../../Library/StdDriver/src/spi.c:663:25
	bl	CLK_GetPLLClockFreq
	mov	r4, r0
.Ltmp284:
	@DEBUG_VALUE: SPI_GetBusClock:u32ClkSrc <- $r4
	.loc	5 664 9                         @ ../../../Library/StdDriver/src/spi.c:664:9
	b	.LBB8_23
.Ltmp285:
.LBB8_15:
	@DEBUG_VALUE: SPI_GetBusClock:u32Div <- [DW_OP_constu 511, DW_OP_and, DW_OP_stack_value] $r6
	@DEBUG_VALUE: SPI_GetBusClock:spi <- [DW_OP_LLVM_entry_value 1] $r0
	.loc	5 608 18                        @ ../../../Library/StdDriver/src/spi.c:608:18
	mov	r0, r5
	bl	CLK_GetModuleClockSource
	.loc	5 608 84 is_stmt 0              @ ../../../Library/StdDriver/src/spi.c:608:84
	ands	r0, r7
.Ltmp286:
	.loc	5 608 17                        @ ../../../Library/StdDriver/src/spi.c:608:17
	cmp	r0, #2
	bne	.LBB8_23
.Ltmp287:
@ %bb.16:
	@DEBUG_VALUE: SPI_GetBusClock:u32Div <- [DW_OP_constu 511, DW_OP_and, DW_OP_stack_value] $r6
	@DEBUG_VALUE: SPI_GetBusClock:spi <- [DW_OP_LLVM_entry_value 1] $r0
	.loc	5 610 25 is_stmt 1              @ ../../../Library/StdDriver/src/spi.c:610:25
	bl	CLK_GetPCLK1Freq
	mov	r4, r0
.Ltmp288:
	@DEBUG_VALUE: SPI_GetBusClock:u32ClkSrc <- $r4
	.loc	5 611 9                         @ ../../../Library/StdDriver/src/spi.c:611:9
	b	.LBB8_23
.Ltmp289:
.LBB8_17:
	@DEBUG_VALUE: SPI_GetBusClock:u32Div <- [DW_OP_constu 511, DW_OP_and, DW_OP_stack_value] $r6
	@DEBUG_VALUE: SPI_GetBusClock:spi <- [DW_OP_LLVM_entry_value 1] $r0
	.loc	5 627 18                        @ ../../../Library/StdDriver/src/spi.c:627:18
	mov	r0, r5
	bl	CLK_GetModuleClockSource
	.loc	5 627 84 is_stmt 0              @ ../../../Library/StdDriver/src/spi.c:627:84
	ands	r0, r7
.Ltmp290:
	.loc	5 627 17                        @ ../../../Library/StdDriver/src/spi.c:627:17
	cmp	r0, #2
	bne	.LBB8_23
.Ltmp291:
@ %bb.18:
	@DEBUG_VALUE: SPI_GetBusClock:u32Div <- [DW_OP_constu 511, DW_OP_and, DW_OP_stack_value] $r6
	@DEBUG_VALUE: SPI_GetBusClock:spi <- [DW_OP_LLVM_entry_value 1] $r0
	.loc	5 629 25 is_stmt 1              @ ../../../Library/StdDriver/src/spi.c:629:25
	bl	CLK_GetPCLK0Freq
	mov	r4, r0
.Ltmp292:
	@DEBUG_VALUE: SPI_GetBusClock:u32ClkSrc <- $r4
	.loc	5 630 9                         @ ../../../Library/StdDriver/src/spi.c:630:9
	b	.LBB8_23
.Ltmp293:
.LBB8_19:
	@DEBUG_VALUE: SPI_GetBusClock:u32Div <- [DW_OP_constu 511, DW_OP_and, DW_OP_stack_value] $r6
	@DEBUG_VALUE: SPI_GetBusClock:spi <- [DW_OP_LLVM_entry_value 1] $r0
	.loc	5 646 18                        @ ../../../Library/StdDriver/src/spi.c:646:18
	mov	r0, r5
	bl	CLK_GetModuleClockSource
	.loc	5 646 84 is_stmt 0              @ ../../../Library/StdDriver/src/spi.c:646:84
	ands	r0, r7
.Ltmp294:
	.loc	5 646 17                        @ ../../../Library/StdDriver/src/spi.c:646:17
	cmp	r0, #2
	bne	.LBB8_23
.Ltmp295:
@ %bb.20:
	@DEBUG_VALUE: SPI_GetBusClock:u32Div <- [DW_OP_constu 511, DW_OP_and, DW_OP_stack_value] $r6
	@DEBUG_VALUE: SPI_GetBusClock:spi <- [DW_OP_LLVM_entry_value 1] $r0
	.loc	5 648 25 is_stmt 1              @ ../../../Library/StdDriver/src/spi.c:648:25
	bl	CLK_GetPCLK1Freq
	mov	r4, r0
.Ltmp296:
	@DEBUG_VALUE: SPI_GetBusClock:u32ClkSrc <- $r4
	.loc	5 649 9                         @ ../../../Library/StdDriver/src/spi.c:649:9
	b	.LBB8_23
.Ltmp297:
.LBB8_21:
	@DEBUG_VALUE: SPI_GetBusClock:u32Div <- [DW_OP_constu 511, DW_OP_and, DW_OP_stack_value] $r6
	@DEBUG_VALUE: SPI_GetBusClock:spi <- [DW_OP_LLVM_entry_value 1] $r0
	.loc	5 665 18                        @ ../../../Library/StdDriver/src/spi.c:665:18
	mov	r0, r5
	bl	CLK_GetModuleClockSource
	.loc	5 665 84 is_stmt 0              @ ../../../Library/StdDriver/src/spi.c:665:84
	ands	r0, r7
.Ltmp298:
	.loc	5 665 17                        @ ../../../Library/StdDriver/src/spi.c:665:17
	cmp	r0, #2
	bne	.LBB8_23
.Ltmp299:
@ %bb.22:
	@DEBUG_VALUE: SPI_GetBusClock:u32Div <- [DW_OP_constu 511, DW_OP_and, DW_OP_stack_value] $r6
	@DEBUG_VALUE: SPI_GetBusClock:spi <- [DW_OP_LLVM_entry_value 1] $r0
	.loc	5 667 25 is_stmt 1              @ ../../../Library/StdDriver/src/spi.c:667:25
	bl	CLK_GetPCLK0Freq
	mov	r4, r0
.Ltmp300:
	@DEBUG_VALUE: SPI_GetBusClock:u32ClkSrc <- $r4
.LBB8_23:
	@DEBUG_VALUE: SPI_GetBusClock:u32Div <- [DW_OP_constu 511, DW_OP_and, DW_OP_stack_value] $r6
	@DEBUG_VALUE: SPI_GetBusClock:spi <- [DW_OP_LLVM_entry_value 1] $r0
	.loc	5 0 25 is_stmt 0                @ ../../../Library/StdDriver/src/spi.c:0:25
	ldr	r0, __arm_cp.8_12
	.loc	5 595 27 is_stmt 1              @ ../../../Library/StdDriver/src/spi.c:595:27
	ands	r6, r0
.Ltmp301:
	@DEBUG_VALUE: SPI_GetBusClock:u32ClkSrc <- $r4
	@DEBUG_VALUE: SPI_GetBusClock:u32Div <- $r6
	.loc	5 676 33                        @ ../../../Library/StdDriver/src/spi.c:676:33
	adds	r0, r6, #1
	.loc	5 676 23 is_stmt 0              @ ../../../Library/StdDriver/src/spi.c:676:23
	udiv	r0, r4, r0
	.loc	5 676 5                         @ ../../../Library/StdDriver/src/spi.c:676:5
	add	sp, #4
	pop	{r4, r5, r6, r7, pc}
.Ltmp302:
	.p2align	2
@ %bb.24:
	.loc	5 0 5                           @ ../../../Library/StdDriver/src/spi.c:0:5
__arm_cp.8_0:
	.long	12000000                        @ 0xb71b00
.Lcpi_end30:
	.size	__arm_cp.8_0, .Lcpi_end30-__arm_cp.8_0
__arm_cp.8_1:
	.long	1342578688                      @ 0x50062000
.Lcpi_end31:
	.size	__arm_cp.8_1, .Lcpi_end31-__arm_cp.8_1
__arm_cp.8_2:
	.long	1074147328                      @ 0x40063000
.Lcpi_end32:
	.size	__arm_cp.8_2, .Lcpi_end32-__arm_cp.8_2
__arm_cp.8_3:
	.long	1074139136                      @ 0x40061000
.Lcpi_end33:
	.size	__arm_cp.8_3, .Lcpi_end33-__arm_cp.8_3
__arm_cp.8_4:
	.long	1721761807                      @ 0x66a0000f
.Lcpi_end34:
	.size	__arm_cp.8_4, .Lcpi_end34-__arm_cp.8_4
__arm_cp.8_5:
	.long	4194303                         @ 0x3fffff
.Lcpi_end35:
	.size	__arm_cp.8_5, .Lcpi_end35-__arm_cp.8_5
__arm_cp.8_6:
	.long	1717567502                      @ 0x6660000e
.Lcpi_end36:
	.size	__arm_cp.8_6, .Lcpi_end36-__arm_cp.8_6
__arm_cp.8_7:
	.long	67108863                        @ 0x3ffffff
.Lcpi_end37:
	.size	__arm_cp.8_7, .Lcpi_end37-__arm_cp.8_7
__arm_cp.8_8:
	.long	1715470349                      @ 0x6640000d
.Lcpi_end38:
	.size	__arm_cp.8_8, .Lcpi_end38-__arm_cp.8_8
__arm_cp.8_9:
	.long	268435455                       @ 0xfffffff
.Lcpi_end39:
	.size	__arm_cp.8_9, .Lcpi_end39-__arm_cp.8_9
__arm_cp.8_10:
	.long	2797600774                      @ 0xa6c00006
.Lcpi_end40:
	.size	__arm_cp.8_10, .Lcpi_end40-__arm_cp.8_10
__arm_cp.8_11:
	.long	1048575                         @ 0xfffff
.Lcpi_end41:
	.size	__arm_cp.8_11, .Lcpi_end41-__arm_cp.8_11
__arm_cp.8_12:
	.long	511                             @ 0x1ff
.Lcpi_end42:
	.size	__arm_cp.8_12, .Lcpi_end42-__arm_cp.8_12
.Lfunc_end8:
	.size	SPI_GetBusClock, .Lfunc_end8-SPI_GetBusClock
	.cfi_endproc
	.cantunwind
	.fnend
                                        @ -- End function
	.section	.text.SPI_EnableInt,"ax",%progbits
	.hidden	SPI_EnableInt                   @ -- Begin function SPI_EnableInt
	.globl	SPI_EnableInt
	.p2align	1
	.type	SPI_EnableInt,%function
	.code	16                              @ @SPI_EnableInt
	.thumb_func
SPI_EnableInt:
.Lfunc_begin9:
	.loc	5 700 0 is_stmt 1               @ ../../../Library/StdDriver/src/spi.c:700:0
	.fnstart
	.cfi_startproc
@ %bb.0:
	@DEBUG_VALUE: SPI_EnableInt:spi <- $r0
	@DEBUG_VALUE: SPI_EnableInt:spi <- $r0
	@DEBUG_VALUE: SPI_EnableInt:u32Mask <- $r1
	@DEBUG_VALUE: SPI_EnableInt:u32Mask <- $r1
	.save	{r4, r5, r7, lr}
	push	{r4, r5, r7, lr}
	.cfi_def_cfa_offset 16
	.cfi_offset lr, -4
	.cfi_offset r7, -8
	.cfi_offset r5, -12
	.cfi_offset r4, -16
.Ltmp303:
	.loc	5 702 8 prologue_end            @ ../../../Library/StdDriver/src/spi.c:702:8
	lsls	r2, r1, #31
	bne	.LBB9_16
.Ltmp304:
@ %bb.1:
	@DEBUG_VALUE: SPI_EnableInt:u32Mask <- $r1
	@DEBUG_VALUE: SPI_EnableInt:spi <- $r0
	.loc	5 708 8                         @ ../../../Library/StdDriver/src/spi.c:708:8
	lsls	r2, r1, #30
	bmi	.LBB9_17
.Ltmp305:
.LBB9_2:
	@DEBUG_VALUE: SPI_EnableInt:u32Mask <- $r1
	@DEBUG_VALUE: SPI_EnableInt:spi <- $r0
	.loc	5 714 8                         @ ../../../Library/StdDriver/src/spi.c:714:8
	lsls	r2, r1, #29
	bpl	.LBB9_4
.Ltmp306:
.LBB9_3:
	@DEBUG_VALUE: SPI_EnableInt:u32Mask <- $r1
	@DEBUG_VALUE: SPI_EnableInt:spi <- $r0
	.loc	5 716 20                        @ ../../../Library/StdDriver/src/spi.c:716:20
	ldr	r2, [r0, #8]
	movw	r3, #8192
	orrs	r3, r2
	str	r3, [r0, #8]
.Ltmp307:
.LBB9_4:
	@DEBUG_VALUE: SPI_EnableInt:u32Mask <- $r1
	@DEBUG_VALUE: SPI_EnableInt:spi <- $r0
	.loc	5 720 8                         @ ../../../Library/StdDriver/src/spi.c:720:8
	lsls	r2, r1, #28
	movw	r2, #512
	bpl	.LBB9_6
.Ltmp308:
@ %bb.5:
	@DEBUG_VALUE: SPI_EnableInt:u32Mask <- $r1
	@DEBUG_VALUE: SPI_EnableInt:spi <- $r0
	.loc	5 722 20                        @ ../../../Library/StdDriver/src/spi.c:722:20
	ldr	r3, [r0, #8]
	orrs	r3, r2
	str	r3, [r0, #8]
.Ltmp309:
.LBB9_6:
	@DEBUG_VALUE: SPI_EnableInt:u32Mask <- $r1
	@DEBUG_VALUE: SPI_EnableInt:spi <- $r0
	.loc	5 726 8                         @ ../../../Library/StdDriver/src/spi.c:726:8
	lsls	r3, r1, #27
	movw	r3, #256
	bmi	.LBB9_18
.Ltmp310:
@ %bb.7:
	@DEBUG_VALUE: SPI_EnableInt:u32Mask <- $r1
	@DEBUG_VALUE: SPI_EnableInt:spi <- $r0
	.loc	5 732 8                         @ ../../../Library/StdDriver/src/spi.c:732:8
	lsls	r4, r1, #25
	bmi	.LBB9_19
.Ltmp311:
.LBB9_8:
	@DEBUG_VALUE: SPI_EnableInt:u32Mask <- $r1
	@DEBUG_VALUE: SPI_EnableInt:spi <- $r0
	.loc	5 738 8                         @ ../../../Library/StdDriver/src/spi.c:738:8
	lsls	r4, r1, #24
	bmi	.LBB9_20
.Ltmp312:
.LBB9_9:
	@DEBUG_VALUE: SPI_EnableInt:u32Mask <- $r1
	@DEBUG_VALUE: SPI_EnableInt:spi <- $r0
	.loc	5 744 8                         @ ../../../Library/StdDriver/src/spi.c:744:8
	tst	r1, r3
	beq	.LBB9_11
.Ltmp313:
.LBB9_10:
	@DEBUG_VALUE: SPI_EnableInt:u32Mask <- $r1
	@DEBUG_VALUE: SPI_EnableInt:spi <- $r0
	.loc	5 746 22                        @ ../../../Library/StdDriver/src/spi.c:746:22
	ldr	r3, [r0, #16]
	movs	r4, #4
	orrs	r4, r3
	str	r4, [r0, #16]
.Ltmp314:
.LBB9_11:
	@DEBUG_VALUE: SPI_EnableInt:u32Mask <- $r1
	@DEBUG_VALUE: SPI_EnableInt:spi <- $r0
	.loc	5 750 8                         @ ../../../Library/StdDriver/src/spi.c:750:8
	tst	r1, r2
	beq	.LBB9_13
.Ltmp315:
@ %bb.12:
	@DEBUG_VALUE: SPI_EnableInt:u32Mask <- $r1
	@DEBUG_VALUE: SPI_EnableInt:spi <- $r0
	.loc	5 752 22                        @ ../../../Library/StdDriver/src/spi.c:752:22
	ldr	r2, [r0, #16]
	movs	r3, #32
	orrs	r3, r2
	str	r3, [r0, #16]
.Ltmp316:
.LBB9_13:
	@DEBUG_VALUE: SPI_EnableInt:u32Mask <- $r1
	@DEBUG_VALUE: SPI_EnableInt:spi <- $r0
	.loc	5 756 8                         @ ../../../Library/StdDriver/src/spi.c:756:8
	lsls	r1, r1, #21
.Ltmp317:
	@DEBUG_VALUE: SPI_EnableInt:u32Mask <- [DW_OP_LLVM_entry_value 1] $r1
	bpl	.LBB9_15
.Ltmp318:
@ %bb.14:
	@DEBUG_VALUE: SPI_EnableInt:spi <- $r0
	@DEBUG_VALUE: SPI_EnableInt:u32Mask <- [DW_OP_LLVM_entry_value 1] $r1
	.loc	5 758 22                        @ ../../../Library/StdDriver/src/spi.c:758:22
	ldr	r1, [r0, #16]
	movs	r2, #16
	orrs	r2, r1
	str	r2, [r0, #16]
.Ltmp319:
.LBB9_15:
	@DEBUG_VALUE: SPI_EnableInt:spi <- $r0
	@DEBUG_VALUE: SPI_EnableInt:u32Mask <- [DW_OP_LLVM_entry_value 1] $r1
	.loc	5 760 1                         @ ../../../Library/StdDriver/src/spi.c:760:1
	pop	{r4, r5, r7, pc}
.Ltmp320:
.LBB9_16:
	@DEBUG_VALUE: SPI_EnableInt:u32Mask <- $r1
	@DEBUG_VALUE: SPI_EnableInt:spi <- $r0
	.loc	5 0 1 is_stmt 0                 @ ../../../Library/StdDriver/src/spi.c:0:1
	movs	r2, #1
	lsls	r2, r2, #17
.Ltmp321:
	.loc	5 704 18 is_stmt 1              @ ../../../Library/StdDriver/src/spi.c:704:18
	ldr	r3, [r0]
	orrs	r3, r2
	str	r3, [r0]
.Ltmp322:
	.loc	5 708 8                         @ ../../../Library/StdDriver/src/spi.c:708:8
	lsls	r2, r1, #30
	bpl	.LBB9_2
.Ltmp323:
.LBB9_17:
	@DEBUG_VALUE: SPI_EnableInt:u32Mask <- $r1
	@DEBUG_VALUE: SPI_EnableInt:spi <- $r0
	.loc	5 710 20                        @ ../../../Library/StdDriver/src/spi.c:710:20
	ldr	r2, [r0, #8]
	movw	r3, #4096
	orrs	r3, r2
	str	r3, [r0, #8]
.Ltmp324:
	.loc	5 714 8                         @ ../../../Library/StdDriver/src/spi.c:714:8
	lsls	r2, r1, #29
	bmi	.LBB9_3
	b	.LBB9_4
.Ltmp325:
.LBB9_18:
	@DEBUG_VALUE: SPI_EnableInt:u32Mask <- $r1
	@DEBUG_VALUE: SPI_EnableInt:spi <- $r0
	.loc	5 728 20                        @ ../../../Library/StdDriver/src/spi.c:728:20
	ldr	r4, [r0, #8]
	orrs	r4, r3
	str	r4, [r0, #8]
.Ltmp326:
	.loc	5 732 8                         @ ../../../Library/StdDriver/src/spi.c:732:8
	lsls	r4, r1, #25
	bpl	.LBB9_8
.Ltmp327:
.LBB9_19:
	@DEBUG_VALUE: SPI_EnableInt:u32Mask <- $r1
	@DEBUG_VALUE: SPI_EnableInt:spi <- $r0
	.loc	5 734 22                        @ ../../../Library/StdDriver/src/spi.c:734:22
	ldr	r4, [r0, #16]
	movs	r5, #128
	orrs	r5, r4
	str	r5, [r0, #16]
.Ltmp328:
	.loc	5 738 8                         @ ../../../Library/StdDriver/src/spi.c:738:8
	lsls	r4, r1, #24
	bpl	.LBB9_9
.Ltmp329:
.LBB9_20:
	@DEBUG_VALUE: SPI_EnableInt:u32Mask <- $r1
	@DEBUG_VALUE: SPI_EnableInt:spi <- $r0
	.loc	5 740 22                        @ ../../../Library/StdDriver/src/spi.c:740:22
	ldr	r4, [r0, #16]
	movs	r5, #8
	orrs	r5, r4
	str	r5, [r0, #16]
.Ltmp330:
	.loc	5 744 8                         @ ../../../Library/StdDriver/src/spi.c:744:8
	tst	r1, r3
	bne	.LBB9_10
	b	.LBB9_11
.Ltmp331:
.Lfunc_end9:
	.size	SPI_EnableInt, .Lfunc_end9-SPI_EnableInt
	.cfi_endproc
	.cantunwind
	.fnend
                                        @ -- End function
	.section	.text.SPI_DisableInt,"ax",%progbits
	.hidden	SPI_DisableInt                  @ -- Begin function SPI_DisableInt
	.globl	SPI_DisableInt
	.p2align	1
	.type	SPI_DisableInt,%function
	.code	16                              @ @SPI_DisableInt
	.thumb_func
SPI_DisableInt:
.Lfunc_begin10:
	.loc	5 783 0                         @ ../../../Library/StdDriver/src/spi.c:783:0
	.fnstart
	.cfi_startproc
@ %bb.0:
	@DEBUG_VALUE: SPI_DisableInt:spi <- $r0
	@DEBUG_VALUE: SPI_DisableInt:spi <- $r0
	@DEBUG_VALUE: SPI_DisableInt:u32Mask <- $r1
	@DEBUG_VALUE: SPI_DisableInt:u32Mask <- $r1
	.loc	5 785 8 prologue_end            @ ../../../Library/StdDriver/src/spi.c:785:8
	lsls	r2, r1, #31
	bne	.LBB10_11
.Ltmp332:
@ %bb.1:
	@DEBUG_VALUE: SPI_DisableInt:u32Mask <- $r1
	@DEBUG_VALUE: SPI_DisableInt:spi <- $r0
	.loc	5 791 8                         @ ../../../Library/StdDriver/src/spi.c:791:8
	lsls	r2, r1, #30
	bmi	.LBB10_12
.Ltmp333:
.LBB10_2:
	@DEBUG_VALUE: SPI_DisableInt:u32Mask <- $r1
	@DEBUG_VALUE: SPI_DisableInt:spi <- $r0
	.loc	5 797 8                         @ ../../../Library/StdDriver/src/spi.c:797:8
	lsls	r2, r1, #29
	bmi	.LBB10_13
.Ltmp334:
.LBB10_3:
	@DEBUG_VALUE: SPI_DisableInt:u32Mask <- $r1
	@DEBUG_VALUE: SPI_DisableInt:spi <- $r0
	.loc	5 803 8                         @ ../../../Library/StdDriver/src/spi.c:803:8
	lsls	r2, r1, #28
	bmi	.LBB10_14
.Ltmp335:
.LBB10_4:
	@DEBUG_VALUE: SPI_DisableInt:u32Mask <- $r1
	@DEBUG_VALUE: SPI_DisableInt:spi <- $r0
	.loc	5 809 8                         @ ../../../Library/StdDriver/src/spi.c:809:8
	lsls	r2, r1, #27
	bmi	.LBB10_15
.Ltmp336:
.LBB10_5:
	@DEBUG_VALUE: SPI_DisableInt:u32Mask <- $r1
	@DEBUG_VALUE: SPI_DisableInt:spi <- $r0
	.loc	5 815 8                         @ ../../../Library/StdDriver/src/spi.c:815:8
	lsls	r2, r1, #25
	bmi	.LBB10_16
.Ltmp337:
.LBB10_6:
	@DEBUG_VALUE: SPI_DisableInt:u32Mask <- $r1
	@DEBUG_VALUE: SPI_DisableInt:spi <- $r0
	.loc	5 821 8                         @ ../../../Library/StdDriver/src/spi.c:821:8
	lsls	r2, r1, #24
	bmi	.LBB10_17
.Ltmp338:
.LBB10_7:
	@DEBUG_VALUE: SPI_DisableInt:u32Mask <- $r1
	@DEBUG_VALUE: SPI_DisableInt:spi <- $r0
	.loc	5 827 8                         @ ../../../Library/StdDriver/src/spi.c:827:8
	lsls	r2, r1, #23
	bmi	.LBB10_18
.Ltmp339:
.LBB10_8:
	@DEBUG_VALUE: SPI_DisableInt:u32Mask <- $r1
	@DEBUG_VALUE: SPI_DisableInt:spi <- $r0
	.loc	5 833 8                         @ ../../../Library/StdDriver/src/spi.c:833:8
	lsls	r2, r1, #22
	bmi	.LBB10_19
.Ltmp340:
.LBB10_9:
	@DEBUG_VALUE: SPI_DisableInt:u32Mask <- $r1
	@DEBUG_VALUE: SPI_DisableInt:spi <- $r0
	.loc	5 839 8                         @ ../../../Library/StdDriver/src/spi.c:839:8
	lsls	r1, r1, #21
.Ltmp341:
	@DEBUG_VALUE: SPI_DisableInt:u32Mask <- [DW_OP_LLVM_entry_value 1] $r1
	bmi	.LBB10_20
.Ltmp342:
.LBB10_10:
	@DEBUG_VALUE: SPI_DisableInt:spi <- $r0
	@DEBUG_VALUE: SPI_DisableInt:u32Mask <- [DW_OP_LLVM_entry_value 1] $r1
	.loc	5 843 1                         @ ../../../Library/StdDriver/src/spi.c:843:1
	bx	lr
.Ltmp343:
.LBB10_11:
	@DEBUG_VALUE: SPI_DisableInt:u32Mask <- $r1
	@DEBUG_VALUE: SPI_DisableInt:spi <- $r0
	.loc	5 0 1 is_stmt 0                 @ ../../../Library/StdDriver/src/spi.c:0:1
	movs	r2, #1
	lsls	r2, r2, #17
.Ltmp344:
	.loc	5 787 18 is_stmt 1              @ ../../../Library/StdDriver/src/spi.c:787:18
	ldr	r3, [r0]
	bics	r3, r2
	str	r3, [r0]
.Ltmp345:
	.loc	5 791 8                         @ ../../../Library/StdDriver/src/spi.c:791:8
	lsls	r2, r1, #30
	bpl	.LBB10_2
.Ltmp346:
.LBB10_12:
	@DEBUG_VALUE: SPI_DisableInt:u32Mask <- $r1
	@DEBUG_VALUE: SPI_DisableInt:spi <- $r0
	.loc	5 793 20                        @ ../../../Library/StdDriver/src/spi.c:793:20
	ldr	r2, [r0, #8]
	movw	r3, #4096
	bics	r2, r3
	str	r2, [r0, #8]
.Ltmp347:
	.loc	5 797 8                         @ ../../../Library/StdDriver/src/spi.c:797:8
	lsls	r2, r1, #29
	bpl	.LBB10_3
.Ltmp348:
.LBB10_13:
	@DEBUG_VALUE: SPI_DisableInt:u32Mask <- $r1
	@DEBUG_VALUE: SPI_DisableInt:spi <- $r0
	.loc	5 799 20                        @ ../../../Library/StdDriver/src/spi.c:799:20
	ldr	r2, [r0, #8]
	movw	r3, #8192
	bics	r2, r3
	str	r2, [r0, #8]
.Ltmp349:
	.loc	5 803 8                         @ ../../../Library/StdDriver/src/spi.c:803:8
	lsls	r2, r1, #28
	bpl	.LBB10_4
.Ltmp350:
.LBB10_14:
	@DEBUG_VALUE: SPI_DisableInt:u32Mask <- $r1
	@DEBUG_VALUE: SPI_DisableInt:spi <- $r0
	.loc	5 805 20                        @ ../../../Library/StdDriver/src/spi.c:805:20
	ldr	r2, [r0, #8]
	movw	r3, #512
	bics	r2, r3
	str	r2, [r0, #8]
.Ltmp351:
	.loc	5 809 8                         @ ../../../Library/StdDriver/src/spi.c:809:8
	lsls	r2, r1, #27
	bpl	.LBB10_5
.Ltmp352:
.LBB10_15:
	@DEBUG_VALUE: SPI_DisableInt:u32Mask <- $r1
	@DEBUG_VALUE: SPI_DisableInt:spi <- $r0
	.loc	5 811 20                        @ ../../../Library/StdDriver/src/spi.c:811:20
	ldr	r2, [r0, #8]
	movw	r3, #256
	bics	r2, r3
	str	r2, [r0, #8]
.Ltmp353:
	.loc	5 815 8                         @ ../../../Library/StdDriver/src/spi.c:815:8
	lsls	r2, r1, #25
	bpl	.LBB10_6
.Ltmp354:
.LBB10_16:
	@DEBUG_VALUE: SPI_DisableInt:u32Mask <- $r1
	@DEBUG_VALUE: SPI_DisableInt:spi <- $r0
	.loc	5 817 22                        @ ../../../Library/StdDriver/src/spi.c:817:22
	ldr	r2, [r0, #16]
	movs	r3, #128
	bics	r2, r3
	str	r2, [r0, #16]
.Ltmp355:
	.loc	5 821 8                         @ ../../../Library/StdDriver/src/spi.c:821:8
	lsls	r2, r1, #24
	bpl	.LBB10_7
.Ltmp356:
.LBB10_17:
	@DEBUG_VALUE: SPI_DisableInt:u32Mask <- $r1
	@DEBUG_VALUE: SPI_DisableInt:spi <- $r0
	.loc	5 823 22                        @ ../../../Library/StdDriver/src/spi.c:823:22
	ldr	r2, [r0, #16]
	movs	r3, #8
	bics	r2, r3
	str	r2, [r0, #16]
.Ltmp357:
	.loc	5 827 8                         @ ../../../Library/StdDriver/src/spi.c:827:8
	lsls	r2, r1, #23
	bpl	.LBB10_8
.Ltmp358:
.LBB10_18:
	@DEBUG_VALUE: SPI_DisableInt:u32Mask <- $r1
	@DEBUG_VALUE: SPI_DisableInt:spi <- $r0
	.loc	5 829 22                        @ ../../../Library/StdDriver/src/spi.c:829:22
	ldr	r2, [r0, #16]
	movs	r3, #4
	bics	r2, r3
	str	r2, [r0, #16]
.Ltmp359:
	.loc	5 833 8                         @ ../../../Library/StdDriver/src/spi.c:833:8
	lsls	r2, r1, #22
	bpl	.LBB10_9
.Ltmp360:
.LBB10_19:
	@DEBUG_VALUE: SPI_DisableInt:u32Mask <- $r1
	@DEBUG_VALUE: SPI_DisableInt:spi <- $r0
	.loc	5 835 22                        @ ../../../Library/StdDriver/src/spi.c:835:22
	ldr	r2, [r0, #16]
	movs	r3, #32
	bics	r2, r3
	str	r2, [r0, #16]
.Ltmp361:
	.loc	5 839 8                         @ ../../../Library/StdDriver/src/spi.c:839:8
	lsls	r1, r1, #21
.Ltmp362:
	@DEBUG_VALUE: SPI_DisableInt:u32Mask <- [DW_OP_LLVM_entry_value 1] $r1
	bpl	.LBB10_10
.Ltmp363:
.LBB10_20:
	@DEBUG_VALUE: SPI_DisableInt:spi <- $r0
	@DEBUG_VALUE: SPI_DisableInt:u32Mask <- [DW_OP_LLVM_entry_value 1] $r1
	.loc	5 841 22                        @ ../../../Library/StdDriver/src/spi.c:841:22
	ldr	r1, [r0, #16]
	movs	r2, #16
	bics	r1, r2
	str	r1, [r0, #16]
.Ltmp364:
	.loc	5 843 1                         @ ../../../Library/StdDriver/src/spi.c:843:1
	bx	lr
.Ltmp365:
.Lfunc_end10:
	.size	SPI_DisableInt, .Lfunc_end10-SPI_DisableInt
	.cfi_endproc
	.cantunwind
	.fnend
                                        @ -- End function
	.section	.text.SPI_GetIntFlag,"ax",%progbits
	.hidden	SPI_GetIntFlag                  @ -- Begin function SPI_GetIntFlag
	.globl	SPI_GetIntFlag
	.p2align	1
	.type	SPI_GetIntFlag,%function
	.code	16                              @ @SPI_GetIntFlag
	.thumb_func
SPI_GetIntFlag:
.Lfunc_begin11:
	.loc	5 866 0                         @ ../../../Library/StdDriver/src/spi.c:866:0
	.fnstart
	.cfi_startproc
@ %bb.0:
	@DEBUG_VALUE: SPI_GetIntFlag:spi <- $r0
	@DEBUG_VALUE: SPI_GetIntFlag:spi <- $r0
	@DEBUG_VALUE: SPI_GetIntFlag:u32Mask <- $r1
	@DEBUG_VALUE: SPI_GetIntFlag:u32Mask <- $r1
	.save	{r4, lr}
	push	{r4, lr}
	.cfi_def_cfa_offset 8
	.cfi_offset lr, -4
	.cfi_offset r4, -8
.Ltmp366:
	@DEBUG_VALUE: SPI_GetIntFlag:u32IntFlag <- 0
	.loc	5 870 25 prologue_end           @ ../../../Library/StdDriver/src/spi.c:870:25
	ldr	r2, [r0, #20]
.Ltmp367:
	@DEBUG_VALUE: SPI_GetIntFlag:u32IntStatus <- $r2
	.loc	5 0 25 is_stmt 0                @ ../../../Library/StdDriver/src/spi.c:0:25
	movs	r0, #2
.Ltmp368:
	@DEBUG_VALUE: SPI_GetIntFlag:spi <- [DW_OP_LLVM_entry_value 1] $r0
	ands	r0, r2
	lsrs	r0, r0, #1
.Ltmp369:
	.loc	5 873 17 is_stmt 1              @ ../../../Library/StdDriver/src/spi.c:873:17
	ands	r0, r1
.Ltmp370:
	@DEBUG_VALUE: SPI_GetIntFlag:u32IntFlag <- $r0
	.loc	5 879 39                        @ ../../../Library/StdDriver/src/spi.c:879:39
	lsls	r3, r2, #29
	mov	r3, r0
	bpl	.LBB11_2
.Ltmp371:
@ %bb.1:
	@DEBUG_VALUE: SPI_GetIntFlag:u32IntStatus <- $r2
	@DEBUG_VALUE: SPI_GetIntFlag:u32Mask <- $r1
	@DEBUG_VALUE: SPI_GetIntFlag:u32IntFlag <- $r0
	@DEBUG_VALUE: SPI_GetIntFlag:spi <- [DW_OP_LLVM_entry_value 1] $r0
	.loc	5 0 39 is_stmt 0                @ ../../../Library/StdDriver/src/spi.c:0:39
	adds	r3, r0, #2
.Ltmp372:
.LBB11_2:
	@DEBUG_VALUE: SPI_GetIntFlag:u32IntStatus <- $r2
	@DEBUG_VALUE: SPI_GetIntFlag:u32Mask <- $r1
	@DEBUG_VALUE: SPI_GetIntFlag:u32IntFlag <- $r0
	@DEBUG_VALUE: SPI_GetIntFlag:spi <- [DW_OP_LLVM_entry_value 1] $r0
	.loc	5 879 39                        @ ../../../Library/StdDriver/src/spi.c:879:39
	lsls	r4, r1, #30
	bpl	.LBB11_4
.Ltmp373:
@ %bb.3:
	@DEBUG_VALUE: SPI_GetIntFlag:u32IntStatus <- $r2
	@DEBUG_VALUE: SPI_GetIntFlag:u32Mask <- $r1
	@DEBUG_VALUE: SPI_GetIntFlag:u32IntFlag <- $r0
	@DEBUG_VALUE: SPI_GetIntFlag:spi <- [DW_OP_LLVM_entry_value 1] $r0
	mov	r0, r3
.Ltmp374:
.LBB11_4:
	@DEBUG_VALUE: SPI_GetIntFlag:u32IntStatus <- $r2
	@DEBUG_VALUE: SPI_GetIntFlag:u32Mask <- $r1
	@DEBUG_VALUE: SPI_GetIntFlag:spi <- [DW_OP_LLVM_entry_value 1] $r0
	@DEBUG_VALUE: SPI_GetIntFlag:u32IntFlag <- $r0
	.loc	5 885 41 is_stmt 1              @ ../../../Library/StdDriver/src/spi.c:885:41
	lsls	r3, r2, #28
	mov	r3, r0
	bpl	.LBB11_6
.Ltmp375:
@ %bb.5:
	@DEBUG_VALUE: SPI_GetIntFlag:u32IntStatus <- $r2
	@DEBUG_VALUE: SPI_GetIntFlag:u32Mask <- $r1
	@DEBUG_VALUE: SPI_GetIntFlag:u32IntFlag <- $r0
	@DEBUG_VALUE: SPI_GetIntFlag:spi <- [DW_OP_LLVM_entry_value 1] $r0
	.loc	5 0 41 is_stmt 0                @ ../../../Library/StdDriver/src/spi.c:0:41
	adds	r3, r0, #4
.Ltmp376:
.LBB11_6:
	@DEBUG_VALUE: SPI_GetIntFlag:u32IntStatus <- $r2
	@DEBUG_VALUE: SPI_GetIntFlag:u32Mask <- $r1
	@DEBUG_VALUE: SPI_GetIntFlag:u32IntFlag <- $r0
	@DEBUG_VALUE: SPI_GetIntFlag:spi <- [DW_OP_LLVM_entry_value 1] $r0
	.loc	5 885 41                        @ ../../../Library/StdDriver/src/spi.c:885:41
	lsls	r4, r1, #29
	bpl	.LBB11_8
.Ltmp377:
@ %bb.7:
	@DEBUG_VALUE: SPI_GetIntFlag:u32IntStatus <- $r2
	@DEBUG_VALUE: SPI_GetIntFlag:u32Mask <- $r1
	@DEBUG_VALUE: SPI_GetIntFlag:u32IntFlag <- $r0
	@DEBUG_VALUE: SPI_GetIntFlag:spi <- [DW_OP_LLVM_entry_value 1] $r0
	mov	r0, r3
.Ltmp378:
.LBB11_8:
	@DEBUG_VALUE: SPI_GetIntFlag:u32IntStatus <- $r2
	@DEBUG_VALUE: SPI_GetIntFlag:u32Mask <- $r1
	@DEBUG_VALUE: SPI_GetIntFlag:spi <- [DW_OP_LLVM_entry_value 1] $r0
	@DEBUG_VALUE: SPI_GetIntFlag:u32IntFlag <- $r0
	.loc	5 891 39 is_stmt 1              @ ../../../Library/StdDriver/src/spi.c:891:39
	lsls	r3, r2, #24
	mov	r3, r0
	bpl	.LBB11_10
.Ltmp379:
@ %bb.9:
	@DEBUG_VALUE: SPI_GetIntFlag:u32IntStatus <- $r2
	@DEBUG_VALUE: SPI_GetIntFlag:u32Mask <- $r1
	@DEBUG_VALUE: SPI_GetIntFlag:u32IntFlag <- $r0
	@DEBUG_VALUE: SPI_GetIntFlag:spi <- [DW_OP_LLVM_entry_value 1] $r0
	.loc	5 0 39 is_stmt 0                @ ../../../Library/StdDriver/src/spi.c:0:39
	movs	r3, #8
	orrs	r3, r0
.Ltmp380:
.LBB11_10:
	@DEBUG_VALUE: SPI_GetIntFlag:u32IntStatus <- $r2
	@DEBUG_VALUE: SPI_GetIntFlag:u32Mask <- $r1
	@DEBUG_VALUE: SPI_GetIntFlag:u32IntFlag <- $r0
	@DEBUG_VALUE: SPI_GetIntFlag:spi <- [DW_OP_LLVM_entry_value 1] $r0
	.loc	5 891 39                        @ ../../../Library/StdDriver/src/spi.c:891:39
	lsls	r4, r1, #28
	bpl	.LBB11_12
.Ltmp381:
@ %bb.11:
	@DEBUG_VALUE: SPI_GetIntFlag:u32IntStatus <- $r2
	@DEBUG_VALUE: SPI_GetIntFlag:u32Mask <- $r1
	@DEBUG_VALUE: SPI_GetIntFlag:u32IntFlag <- $r0
	@DEBUG_VALUE: SPI_GetIntFlag:spi <- [DW_OP_LLVM_entry_value 1] $r0
	mov	r0, r3
.Ltmp382:
.LBB11_12:
	@DEBUG_VALUE: SPI_GetIntFlag:u32IntStatus <- $r2
	@DEBUG_VALUE: SPI_GetIntFlag:u32Mask <- $r1
	@DEBUG_VALUE: SPI_GetIntFlag:spi <- [DW_OP_LLVM_entry_value 1] $r0
	@DEBUG_VALUE: SPI_GetIntFlag:u32IntFlag <- $r0
	.loc	5 897 39 is_stmt 1              @ ../../../Library/StdDriver/src/spi.c:897:39
	lsls	r3, r2, #25
	mov	r3, r0
	bpl	.LBB11_14
.Ltmp383:
@ %bb.13:
	@DEBUG_VALUE: SPI_GetIntFlag:u32IntStatus <- $r2
	@DEBUG_VALUE: SPI_GetIntFlag:u32Mask <- $r1
	@DEBUG_VALUE: SPI_GetIntFlag:u32IntFlag <- $r0
	@DEBUG_VALUE: SPI_GetIntFlag:spi <- [DW_OP_LLVM_entry_value 1] $r0
	.loc	5 0 39 is_stmt 0                @ ../../../Library/StdDriver/src/spi.c:0:39
	movs	r3, #16
	orrs	r3, r0
.Ltmp384:
.LBB11_14:
	@DEBUG_VALUE: SPI_GetIntFlag:u32IntStatus <- $r2
	@DEBUG_VALUE: SPI_GetIntFlag:u32Mask <- $r1
	@DEBUG_VALUE: SPI_GetIntFlag:u32IntFlag <- $r0
	@DEBUG_VALUE: SPI_GetIntFlag:spi <- [DW_OP_LLVM_entry_value 1] $r0
	.loc	5 897 39                        @ ../../../Library/StdDriver/src/spi.c:897:39
	lsls	r4, r1, #27
	bpl	.LBB11_16
.Ltmp385:
@ %bb.15:
	@DEBUG_VALUE: SPI_GetIntFlag:u32IntStatus <- $r2
	@DEBUG_VALUE: SPI_GetIntFlag:u32Mask <- $r1
	@DEBUG_VALUE: SPI_GetIntFlag:u32IntFlag <- $r0
	@DEBUG_VALUE: SPI_GetIntFlag:spi <- [DW_OP_LLVM_entry_value 1] $r0
	mov	r0, r3
.Ltmp386:
.LBB11_16:
	@DEBUG_VALUE: SPI_GetIntFlag:u32IntStatus <- $r2
	@DEBUG_VALUE: SPI_GetIntFlag:u32Mask <- $r1
	@DEBUG_VALUE: SPI_GetIntFlag:spi <- [DW_OP_LLVM_entry_value 1] $r0
	@DEBUG_VALUE: SPI_GetIntFlag:u32IntFlag <- $r0
	.loc	5 903 38 is_stmt 1              @ ../../../Library/StdDriver/src/spi.c:903:38
	lsls	r3, r2, #12
	mov	r3, r0
	bpl	.LBB11_18
.Ltmp387:
@ %bb.17:
	@DEBUG_VALUE: SPI_GetIntFlag:u32IntStatus <- $r2
	@DEBUG_VALUE: SPI_GetIntFlag:u32Mask <- $r1
	@DEBUG_VALUE: SPI_GetIntFlag:u32IntFlag <- $r0
	@DEBUG_VALUE: SPI_GetIntFlag:spi <- [DW_OP_LLVM_entry_value 1] $r0
	.loc	5 0 38 is_stmt 0                @ ../../../Library/StdDriver/src/spi.c:0:38
	movs	r3, #64
	orrs	r3, r0
.Ltmp388:
.LBB11_18:
	@DEBUG_VALUE: SPI_GetIntFlag:u32IntStatus <- $r2
	@DEBUG_VALUE: SPI_GetIntFlag:u32Mask <- $r1
	@DEBUG_VALUE: SPI_GetIntFlag:u32IntFlag <- $r0
	@DEBUG_VALUE: SPI_GetIntFlag:spi <- [DW_OP_LLVM_entry_value 1] $r0
	.loc	5 903 38                        @ ../../../Library/StdDriver/src/spi.c:903:38
	lsls	r4, r1, #25
	bpl	.LBB11_20
.Ltmp389:
@ %bb.19:
	@DEBUG_VALUE: SPI_GetIntFlag:u32IntStatus <- $r2
	@DEBUG_VALUE: SPI_GetIntFlag:u32Mask <- $r1
	@DEBUG_VALUE: SPI_GetIntFlag:u32IntFlag <- $r0
	@DEBUG_VALUE: SPI_GetIntFlag:spi <- [DW_OP_LLVM_entry_value 1] $r0
	mov	r0, r3
.Ltmp390:
.LBB11_20:
	@DEBUG_VALUE: SPI_GetIntFlag:u32IntStatus <- $r2
	@DEBUG_VALUE: SPI_GetIntFlag:u32Mask <- $r1
	@DEBUG_VALUE: SPI_GetIntFlag:spi <- [DW_OP_LLVM_entry_value 1] $r0
	@DEBUG_VALUE: SPI_GetIntFlag:u32IntFlag <- $r0
	.loc	5 909 43 is_stmt 1              @ ../../../Library/StdDriver/src/spi.c:909:43
	lsls	r3, r2, #13
	mov	r3, r0
	bpl	.LBB11_22
.Ltmp391:
@ %bb.21:
	@DEBUG_VALUE: SPI_GetIntFlag:u32IntStatus <- $r2
	@DEBUG_VALUE: SPI_GetIntFlag:u32Mask <- $r1
	@DEBUG_VALUE: SPI_GetIntFlag:u32IntFlag <- $r0
	@DEBUG_VALUE: SPI_GetIntFlag:spi <- [DW_OP_LLVM_entry_value 1] $r0
	.loc	5 0 43 is_stmt 0                @ ../../../Library/StdDriver/src/spi.c:0:43
	movs	r3, #128
	orrs	r3, r0
.Ltmp392:
.LBB11_22:
	@DEBUG_VALUE: SPI_GetIntFlag:u32IntStatus <- $r2
	@DEBUG_VALUE: SPI_GetIntFlag:u32Mask <- $r1
	@DEBUG_VALUE: SPI_GetIntFlag:u32IntFlag <- $r0
	@DEBUG_VALUE: SPI_GetIntFlag:spi <- [DW_OP_LLVM_entry_value 1] $r0
	.loc	5 909 43                        @ ../../../Library/StdDriver/src/spi.c:909:43
	lsls	r4, r1, #24
	bpl	.LBB11_24
.Ltmp393:
@ %bb.23:
	@DEBUG_VALUE: SPI_GetIntFlag:u32IntStatus <- $r2
	@DEBUG_VALUE: SPI_GetIntFlag:u32Mask <- $r1
	@DEBUG_VALUE: SPI_GetIntFlag:u32IntFlag <- $r0
	@DEBUG_VALUE: SPI_GetIntFlag:spi <- [DW_OP_LLVM_entry_value 1] $r0
	mov	r0, r3
.Ltmp394:
.LBB11_24:
	@DEBUG_VALUE: SPI_GetIntFlag:u32IntStatus <- $r2
	@DEBUG_VALUE: SPI_GetIntFlag:u32Mask <- $r1
	@DEBUG_VALUE: SPI_GetIntFlag:spi <- [DW_OP_LLVM_entry_value 1] $r0
	@DEBUG_VALUE: SPI_GetIntFlag:u32IntFlag <- $r0
	.loc	5 915 43 is_stmt 1              @ ../../../Library/StdDriver/src/spi.c:915:43
	lsls	r3, r2, #21
	mov	r3, r0
	bpl	.LBB11_26
.Ltmp395:
@ %bb.25:
	@DEBUG_VALUE: SPI_GetIntFlag:u32IntStatus <- $r2
	@DEBUG_VALUE: SPI_GetIntFlag:u32Mask <- $r1
	@DEBUG_VALUE: SPI_GetIntFlag:u32IntFlag <- $r0
	@DEBUG_VALUE: SPI_GetIntFlag:spi <- [DW_OP_LLVM_entry_value 1] $r0
	.loc	5 0 43 is_stmt 0                @ ../../../Library/StdDriver/src/spi.c:0:43
	movw	r3, #256
	orrs	r3, r0
.Ltmp396:
.LBB11_26:
	@DEBUG_VALUE: SPI_GetIntFlag:u32IntStatus <- $r2
	@DEBUG_VALUE: SPI_GetIntFlag:u32Mask <- $r1
	@DEBUG_VALUE: SPI_GetIntFlag:u32IntFlag <- $r0
	@DEBUG_VALUE: SPI_GetIntFlag:spi <- [DW_OP_LLVM_entry_value 1] $r0
	.loc	5 915 43                        @ ../../../Library/StdDriver/src/spi.c:915:43
	lsls	r4, r1, #23
	bpl	.LBB11_28
.Ltmp397:
@ %bb.27:
	@DEBUG_VALUE: SPI_GetIntFlag:u32IntStatus <- $r2
	@DEBUG_VALUE: SPI_GetIntFlag:u32Mask <- $r1
	@DEBUG_VALUE: SPI_GetIntFlag:u32IntFlag <- $r0
	@DEBUG_VALUE: SPI_GetIntFlag:spi <- [DW_OP_LLVM_entry_value 1] $r0
	mov	r0, r3
.Ltmp398:
.LBB11_28:
	@DEBUG_VALUE: SPI_GetIntFlag:u32IntStatus <- $r2
	@DEBUG_VALUE: SPI_GetIntFlag:u32Mask <- $r1
	@DEBUG_VALUE: SPI_GetIntFlag:spi <- [DW_OP_LLVM_entry_value 1] $r0
	@DEBUG_VALUE: SPI_GetIntFlag:u32IntFlag <- $r0
	.loc	5 921 43 is_stmt 1              @ ../../../Library/StdDriver/src/spi.c:921:43
	lsls	r3, r2, #20
	mov	r3, r0
	bpl	.LBB11_30
.Ltmp399:
@ %bb.29:
	@DEBUG_VALUE: SPI_GetIntFlag:u32IntStatus <- $r2
	@DEBUG_VALUE: SPI_GetIntFlag:u32Mask <- $r1
	@DEBUG_VALUE: SPI_GetIntFlag:u32IntFlag <- $r0
	@DEBUG_VALUE: SPI_GetIntFlag:spi <- [DW_OP_LLVM_entry_value 1] $r0
	.loc	5 0 43 is_stmt 0                @ ../../../Library/StdDriver/src/spi.c:0:43
	movw	r3, #512
	orrs	r3, r0
.Ltmp400:
.LBB11_30:
	@DEBUG_VALUE: SPI_GetIntFlag:u32IntStatus <- $r2
	@DEBUG_VALUE: SPI_GetIntFlag:u32Mask <- $r1
	@DEBUG_VALUE: SPI_GetIntFlag:u32IntFlag <- $r0
	@DEBUG_VALUE: SPI_GetIntFlag:spi <- [DW_OP_LLVM_entry_value 1] $r0
	.loc	5 921 43                        @ ../../../Library/StdDriver/src/spi.c:921:43
	lsls	r4, r1, #22
	bpl	.LBB11_32
.Ltmp401:
@ %bb.31:
	@DEBUG_VALUE: SPI_GetIntFlag:u32IntStatus <- $r2
	@DEBUG_VALUE: SPI_GetIntFlag:u32Mask <- $r1
	@DEBUG_VALUE: SPI_GetIntFlag:u32IntFlag <- $r0
	@DEBUG_VALUE: SPI_GetIntFlag:spi <- [DW_OP_LLVM_entry_value 1] $r0
	mov	r0, r3
.Ltmp402:
.LBB11_32:
	@DEBUG_VALUE: SPI_GetIntFlag:u32IntStatus <- $r2
	@DEBUG_VALUE: SPI_GetIntFlag:u32Mask <- $r1
	@DEBUG_VALUE: SPI_GetIntFlag:spi <- [DW_OP_LLVM_entry_value 1] $r0
	@DEBUG_VALUE: SPI_GetIntFlag:u32IntFlag <- $r0
	.loc	5 927 43 is_stmt 1              @ ../../../Library/StdDriver/src/spi.c:927:43
	lsls	r2, r2, #19
.Ltmp403:
	mov	r2, r0
	bmi	.LBB11_35
.Ltmp404:
@ %bb.33:
	@DEBUG_VALUE: SPI_GetIntFlag:u32Mask <- $r1
	@DEBUG_VALUE: SPI_GetIntFlag:u32IntFlag <- $r0
	@DEBUG_VALUE: SPI_GetIntFlag:spi <- [DW_OP_LLVM_entry_value 1] $r0
	lsls	r1, r1, #21
.Ltmp405:
	@DEBUG_VALUE: SPI_GetIntFlag:u32Mask <- [DW_OP_LLVM_entry_value 1] $r1
	bmi	.LBB11_36
.Ltmp406:
.LBB11_34:
	@DEBUG_VALUE: SPI_GetIntFlag:u32IntFlag <- $r0
	@DEBUG_VALUE: SPI_GetIntFlag:u32Mask <- [DW_OP_LLVM_entry_value 1] $r1
	@DEBUG_VALUE: SPI_GetIntFlag:spi <- [DW_OP_LLVM_entry_value 1] $r0
	@DEBUG_VALUE: SPI_GetIntFlag:u32IntFlag <- $r0
	.loc	5 932 5                         @ ../../../Library/StdDriver/src/spi.c:932:5
	pop	{r4, pc}
.Ltmp407:
.LBB11_35:
	@DEBUG_VALUE: SPI_GetIntFlag:u32Mask <- $r1
	@DEBUG_VALUE: SPI_GetIntFlag:u32IntFlag <- $r0
	@DEBUG_VALUE: SPI_GetIntFlag:spi <- [DW_OP_LLVM_entry_value 1] $r0
	.loc	5 0 5 is_stmt 0                 @ ../../../Library/StdDriver/src/spi.c:0:5
	movw	r2, #1024
	orrs	r2, r0
.Ltmp408:
	.loc	5 927 43 is_stmt 1              @ ../../../Library/StdDriver/src/spi.c:927:43
	lsls	r1, r1, #21
.Ltmp409:
	@DEBUG_VALUE: SPI_GetIntFlag:u32Mask <- [DW_OP_LLVM_entry_value 1] $r1
	bpl	.LBB11_34
.Ltmp410:
.LBB11_36:
	@DEBUG_VALUE: SPI_GetIntFlag:u32IntFlag <- $r0
	@DEBUG_VALUE: SPI_GetIntFlag:u32Mask <- [DW_OP_LLVM_entry_value 1] $r1
	@DEBUG_VALUE: SPI_GetIntFlag:spi <- [DW_OP_LLVM_entry_value 1] $r0
	mov	r0, r2
.Ltmp411:
	@DEBUG_VALUE: SPI_GetIntFlag:u32IntFlag <- $r0
	.loc	5 932 5                         @ ../../../Library/StdDriver/src/spi.c:932:5
	pop	{r4, pc}
.Ltmp412:
.Lfunc_end11:
	.size	SPI_GetIntFlag, .Lfunc_end11-SPI_GetIntFlag
	.cfi_endproc
	.cantunwind
	.fnend
                                        @ -- End function
	.section	.text.SPI_ClearIntFlag,"ax",%progbits
	.hidden	SPI_ClearIntFlag                @ -- Begin function SPI_ClearIntFlag
	.globl	SPI_ClearIntFlag
	.p2align	1
	.type	SPI_ClearIntFlag,%function
	.code	16                              @ @SPI_ClearIntFlag
	.thumb_func
SPI_ClearIntFlag:
.Lfunc_begin12:
	.loc	5 954 0                         @ ../../../Library/StdDriver/src/spi.c:954:0
	.fnstart
	.cfi_startproc
@ %bb.0:
	@DEBUG_VALUE: SPI_ClearIntFlag:spi <- $r0
	@DEBUG_VALUE: SPI_ClearIntFlag:spi <- $r0
	@DEBUG_VALUE: SPI_ClearIntFlag:u32Mask <- $r1
	@DEBUG_VALUE: SPI_ClearIntFlag:u32Mask <- $r1
	.loc	5 955 8 prologue_end            @ ../../../Library/StdDriver/src/spi.c:955:8
	lsls	r2, r1, #31
	bne	.LBB12_9
.Ltmp413:
@ %bb.1:
	@DEBUG_VALUE: SPI_ClearIntFlag:u32Mask <- $r1
	@DEBUG_VALUE: SPI_ClearIntFlag:spi <- $r0
	.loc	5 960 8                         @ ../../../Library/StdDriver/src/spi.c:960:8
	lsls	r2, r1, #30
	bmi	.LBB12_10
.Ltmp414:
.LBB12_2:
	@DEBUG_VALUE: SPI_ClearIntFlag:u32Mask <- $r1
	@DEBUG_VALUE: SPI_ClearIntFlag:spi <- $r0
	.loc	5 965 8                         @ ../../../Library/StdDriver/src/spi.c:965:8
	lsls	r2, r1, #29
	bmi	.LBB12_11
.Ltmp415:
.LBB12_3:
	@DEBUG_VALUE: SPI_ClearIntFlag:u32Mask <- $r1
	@DEBUG_VALUE: SPI_ClearIntFlag:spi <- $r0
	.loc	5 970 8                         @ ../../../Library/StdDriver/src/spi.c:970:8
	lsls	r2, r1, #28
	bmi	.LBB12_12
.Ltmp416:
.LBB12_4:
	@DEBUG_VALUE: SPI_ClearIntFlag:u32Mask <- $r1
	@DEBUG_VALUE: SPI_ClearIntFlag:spi <- $r0
	.loc	5 975 8                         @ ../../../Library/StdDriver/src/spi.c:975:8
	lsls	r2, r1, #27
	bmi	.LBB12_13
.Ltmp417:
.LBB12_5:
	@DEBUG_VALUE: SPI_ClearIntFlag:u32Mask <- $r1
	@DEBUG_VALUE: SPI_ClearIntFlag:spi <- $r0
	.loc	5 980 8                         @ ../../../Library/StdDriver/src/spi.c:980:8
	lsls	r2, r1, #25
	bmi	.LBB12_14
.Ltmp418:
.LBB12_6:
	@DEBUG_VALUE: SPI_ClearIntFlag:u32Mask <- $r1
	@DEBUG_VALUE: SPI_ClearIntFlag:spi <- $r0
	.loc	5 985 8                         @ ../../../Library/StdDriver/src/spi.c:985:8
	lsls	r2, r1, #22
	bmi	.LBB12_15
.Ltmp419:
.LBB12_7:
	@DEBUG_VALUE: SPI_ClearIntFlag:u32Mask <- $r1
	@DEBUG_VALUE: SPI_ClearIntFlag:spi <- $r0
	.loc	5 990 8                         @ ../../../Library/StdDriver/src/spi.c:990:8
	lsls	r1, r1, #21
.Ltmp420:
	@DEBUG_VALUE: SPI_ClearIntFlag:u32Mask <- [DW_OP_LLVM_entry_value 1] $r1
	bmi	.LBB12_16
.Ltmp421:
.LBB12_8:
	@DEBUG_VALUE: SPI_ClearIntFlag:spi <- $r0
	@DEBUG_VALUE: SPI_ClearIntFlag:u32Mask <- [DW_OP_LLVM_entry_value 1] $r1
	.loc	5 994 1                         @ ../../../Library/StdDriver/src/spi.c:994:1
	bx	lr
.Ltmp422:
.LBB12_9:
	@DEBUG_VALUE: SPI_ClearIntFlag:u32Mask <- $r1
	@DEBUG_VALUE: SPI_ClearIntFlag:spi <- $r0
	.loc	5 0 1 is_stmt 0                 @ ../../../Library/StdDriver/src/spi.c:0:1
	movs	r2, #2
.Ltmp423:
	.loc	5 957 21 is_stmt 1              @ ../../../Library/StdDriver/src/spi.c:957:21
	str	r2, [r0, #20]
.Ltmp424:
	.loc	5 960 8                         @ ../../../Library/StdDriver/src/spi.c:960:8
	lsls	r2, r1, #30
	bpl	.LBB12_2
.Ltmp425:
.LBB12_10:
	@DEBUG_VALUE: SPI_ClearIntFlag:u32Mask <- $r1
	@DEBUG_VALUE: SPI_ClearIntFlag:spi <- $r0
	.loc	5 0 8 is_stmt 0                 @ ../../../Library/StdDriver/src/spi.c:0:8
	movs	r2, #4
.Ltmp426:
	.loc	5 962 21 is_stmt 1              @ ../../../Library/StdDriver/src/spi.c:962:21
	str	r2, [r0, #20]
.Ltmp427:
	.loc	5 965 8                         @ ../../../Library/StdDriver/src/spi.c:965:8
	lsls	r2, r1, #29
	bpl	.LBB12_3
.Ltmp428:
.LBB12_11:
	@DEBUG_VALUE: SPI_ClearIntFlag:u32Mask <- $r1
	@DEBUG_VALUE: SPI_ClearIntFlag:spi <- $r0
	.loc	5 0 8 is_stmt 0                 @ ../../../Library/StdDriver/src/spi.c:0:8
	movs	r2, #8
.Ltmp429:
	.loc	5 967 21 is_stmt 1              @ ../../../Library/StdDriver/src/spi.c:967:21
	str	r2, [r0, #20]
.Ltmp430:
	.loc	5 970 8                         @ ../../../Library/StdDriver/src/spi.c:970:8
	lsls	r2, r1, #28
	bpl	.LBB12_4
.Ltmp431:
.LBB12_12:
	@DEBUG_VALUE: SPI_ClearIntFlag:u32Mask <- $r1
	@DEBUG_VALUE: SPI_ClearIntFlag:spi <- $r0
	.loc	5 0 8 is_stmt 0                 @ ../../../Library/StdDriver/src/spi.c:0:8
	movs	r2, #128
.Ltmp432:
	.loc	5 972 21 is_stmt 1              @ ../../../Library/StdDriver/src/spi.c:972:21
	str	r2, [r0, #20]
.Ltmp433:
	.loc	5 975 8                         @ ../../../Library/StdDriver/src/spi.c:975:8
	lsls	r2, r1, #27
	bpl	.LBB12_5
.Ltmp434:
.LBB12_13:
	@DEBUG_VALUE: SPI_ClearIntFlag:u32Mask <- $r1
	@DEBUG_VALUE: SPI_ClearIntFlag:spi <- $r0
	.loc	5 0 8 is_stmt 0                 @ ../../../Library/StdDriver/src/spi.c:0:8
	movs	r2, #64
.Ltmp435:
	.loc	5 977 21 is_stmt 1              @ ../../../Library/StdDriver/src/spi.c:977:21
	str	r2, [r0, #20]
.Ltmp436:
	.loc	5 980 8                         @ ../../../Library/StdDriver/src/spi.c:980:8
	lsls	r2, r1, #25
	bpl	.LBB12_6
.Ltmp437:
.LBB12_14:
	@DEBUG_VALUE: SPI_ClearIntFlag:u32Mask <- $r1
	@DEBUG_VALUE: SPI_ClearIntFlag:spi <- $r0
	.loc	5 0 8 is_stmt 0                 @ ../../../Library/StdDriver/src/spi.c:0:8
	movs	r2, #1
	lsls	r2, r2, #19
.Ltmp438:
	.loc	5 982 21 is_stmt 1              @ ../../../Library/StdDriver/src/spi.c:982:21
	str	r2, [r0, #20]
.Ltmp439:
	.loc	5 985 8                         @ ../../../Library/StdDriver/src/spi.c:985:8
	lsls	r2, r1, #22
	bpl	.LBB12_7
.Ltmp440:
.LBB12_15:
	@DEBUG_VALUE: SPI_ClearIntFlag:u32Mask <- $r1
	@DEBUG_VALUE: SPI_ClearIntFlag:spi <- $r0
	.loc	5 0 8 is_stmt 0                 @ ../../../Library/StdDriver/src/spi.c:0:8
	movw	r2, #2048
.Ltmp441:
	.loc	5 987 21 is_stmt 1              @ ../../../Library/StdDriver/src/spi.c:987:21
	str	r2, [r0, #20]
.Ltmp442:
	.loc	5 990 8                         @ ../../../Library/StdDriver/src/spi.c:990:8
	lsls	r1, r1, #21
.Ltmp443:
	@DEBUG_VALUE: SPI_ClearIntFlag:u32Mask <- [DW_OP_LLVM_entry_value 1] $r1
	bpl	.LBB12_8
.Ltmp444:
.LBB12_16:
	@DEBUG_VALUE: SPI_ClearIntFlag:spi <- $r0
	@DEBUG_VALUE: SPI_ClearIntFlag:u32Mask <- [DW_OP_LLVM_entry_value 1] $r1
	.loc	5 0 8 is_stmt 0                 @ ../../../Library/StdDriver/src/spi.c:0:8
	movw	r1, #4096
.Ltmp445:
	.loc	5 992 21 is_stmt 1              @ ../../../Library/StdDriver/src/spi.c:992:21
	str	r1, [r0, #20]
.Ltmp446:
	.loc	5 994 1                         @ ../../../Library/StdDriver/src/spi.c:994:1
	bx	lr
.Ltmp447:
.Lfunc_end12:
	.size	SPI_ClearIntFlag, .Lfunc_end12-SPI_ClearIntFlag
	.cfi_endproc
	.cantunwind
	.fnend
                                        @ -- End function
	.section	.text.SPI_GetStatus,"ax",%progbits
	.hidden	SPI_GetStatus                   @ -- Begin function SPI_GetStatus
	.globl	SPI_GetStatus
	.p2align	1
	.type	SPI_GetStatus,%function
	.code	16                              @ @SPI_GetStatus
	.thumb_func
SPI_GetStatus:
.Lfunc_begin13:
	.loc	5 1015 0                        @ ../../../Library/StdDriver/src/spi.c:1015:0
	.fnstart
	.cfi_startproc
@ %bb.0:
	@DEBUG_VALUE: SPI_GetStatus:spi <- $r0
	@DEBUG_VALUE: SPI_GetStatus:spi <- $r0
	@DEBUG_VALUE: SPI_GetStatus:u32Mask <- $r1
	@DEBUG_VALUE: SPI_GetStatus:u32Mask <- $r1
	.save	{r4, lr}
	push	{r4, lr}
	.cfi_def_cfa_offset 8
	.cfi_offset lr, -4
	.cfi_offset r4, -8
.Ltmp448:
	@DEBUG_VALUE: SPI_GetStatus:u32Flag <- 0
	.loc	5 1019 25 prologue_end          @ ../../../Library/StdDriver/src/spi.c:1019:25
	ldr	r2, [r0, #20]
.Ltmp449:
	@DEBUG_VALUE: SPI_GetStatus:u32TmpStatus <- $r2
	.loc	5 1022 34                       @ ../../../Library/StdDriver/src/spi.c:1022:34
	mov	r3, r1
	ands	r3, r2
	movs	r0, #1
.Ltmp450:
	@DEBUG_VALUE: SPI_GetStatus:spi <- [DW_OP_LLVM_entry_value 1] $r0
	ands	r0, r3
.Ltmp451:
	@DEBUG_VALUE: SPI_GetStatus:u32Flag <- $r0
	.loc	5 1028 38                       @ ../../../Library/StdDriver/src/spi.c:1028:38
	lsls	r3, r2, #23
	mov	r3, r0
	bpl	.LBB13_2
.Ltmp452:
@ %bb.1:
	@DEBUG_VALUE: SPI_GetStatus:u32TmpStatus <- $r2
	@DEBUG_VALUE: SPI_GetStatus:u32Mask <- $r1
	@DEBUG_VALUE: SPI_GetStatus:u32Flag <- $r0
	@DEBUG_VALUE: SPI_GetStatus:spi <- [DW_OP_LLVM_entry_value 1] $r0
	.loc	5 0 38 is_stmt 0                @ ../../../Library/StdDriver/src/spi.c:0:38
	adds	r3, r0, #2
.Ltmp453:
.LBB13_2:
	@DEBUG_VALUE: SPI_GetStatus:u32TmpStatus <- $r2
	@DEBUG_VALUE: SPI_GetStatus:u32Mask <- $r1
	@DEBUG_VALUE: SPI_GetStatus:u32Flag <- $r0
	@DEBUG_VALUE: SPI_GetStatus:spi <- [DW_OP_LLVM_entry_value 1] $r0
	.loc	5 1028 38                       @ ../../../Library/StdDriver/src/spi.c:1028:38
	lsls	r4, r1, #30
	bpl	.LBB13_4
.Ltmp454:
@ %bb.3:
	@DEBUG_VALUE: SPI_GetStatus:u32TmpStatus <- $r2
	@DEBUG_VALUE: SPI_GetStatus:u32Mask <- $r1
	@DEBUG_VALUE: SPI_GetStatus:u32Flag <- $r0
	@DEBUG_VALUE: SPI_GetStatus:spi <- [DW_OP_LLVM_entry_value 1] $r0
	mov	r0, r3
.Ltmp455:
.LBB13_4:
	@DEBUG_VALUE: SPI_GetStatus:u32TmpStatus <- $r2
	@DEBUG_VALUE: SPI_GetStatus:u32Mask <- $r1
	@DEBUG_VALUE: SPI_GetStatus:spi <- [DW_OP_LLVM_entry_value 1] $r0
	@DEBUG_VALUE: SPI_GetStatus:u32Flag <- $r0
	.loc	5 1034 37 is_stmt 1             @ ../../../Library/StdDriver/src/spi.c:1034:37
	lsls	r3, r2, #22
	mov	r3, r0
	bpl	.LBB13_6
.Ltmp456:
@ %bb.5:
	@DEBUG_VALUE: SPI_GetStatus:u32TmpStatus <- $r2
	@DEBUG_VALUE: SPI_GetStatus:u32Mask <- $r1
	@DEBUG_VALUE: SPI_GetStatus:u32Flag <- $r0
	@DEBUG_VALUE: SPI_GetStatus:spi <- [DW_OP_LLVM_entry_value 1] $r0
	.loc	5 0 37 is_stmt 0                @ ../../../Library/StdDriver/src/spi.c:0:37
	adds	r3, r0, #4
.Ltmp457:
.LBB13_6:
	@DEBUG_VALUE: SPI_GetStatus:u32TmpStatus <- $r2
	@DEBUG_VALUE: SPI_GetStatus:u32Mask <- $r1
	@DEBUG_VALUE: SPI_GetStatus:u32Flag <- $r0
	@DEBUG_VALUE: SPI_GetStatus:spi <- [DW_OP_LLVM_entry_value 1] $r0
	.loc	5 1034 37                       @ ../../../Library/StdDriver/src/spi.c:1034:37
	lsls	r4, r1, #29
	bpl	.LBB13_8
.Ltmp458:
@ %bb.7:
	@DEBUG_VALUE: SPI_GetStatus:u32TmpStatus <- $r2
	@DEBUG_VALUE: SPI_GetStatus:u32Mask <- $r1
	@DEBUG_VALUE: SPI_GetStatus:u32Flag <- $r0
	@DEBUG_VALUE: SPI_GetStatus:spi <- [DW_OP_LLVM_entry_value 1] $r0
	mov	r0, r3
.Ltmp459:
.LBB13_8:
	@DEBUG_VALUE: SPI_GetStatus:u32TmpStatus <- $r2
	@DEBUG_VALUE: SPI_GetStatus:u32Mask <- $r1
	@DEBUG_VALUE: SPI_GetStatus:spi <- [DW_OP_LLVM_entry_value 1] $r0
	@DEBUG_VALUE: SPI_GetStatus:u32Flag <- $r0
	.loc	5 1040 38 is_stmt 1             @ ../../../Library/StdDriver/src/spi.c:1040:38
	lsls	r3, r2, #15
	mov	r3, r0
	bpl	.LBB13_10
.Ltmp460:
@ %bb.9:
	@DEBUG_VALUE: SPI_GetStatus:u32TmpStatus <- $r2
	@DEBUG_VALUE: SPI_GetStatus:u32Mask <- $r1
	@DEBUG_VALUE: SPI_GetStatus:u32Flag <- $r0
	@DEBUG_VALUE: SPI_GetStatus:spi <- [DW_OP_LLVM_entry_value 1] $r0
	.loc	5 0 38 is_stmt 0                @ ../../../Library/StdDriver/src/spi.c:0:38
	movs	r3, #8
	orrs	r3, r0
.Ltmp461:
.LBB13_10:
	@DEBUG_VALUE: SPI_GetStatus:u32TmpStatus <- $r2
	@DEBUG_VALUE: SPI_GetStatus:u32Mask <- $r1
	@DEBUG_VALUE: SPI_GetStatus:u32Flag <- $r0
	@DEBUG_VALUE: SPI_GetStatus:spi <- [DW_OP_LLVM_entry_value 1] $r0
	.loc	5 1040 38                       @ ../../../Library/StdDriver/src/spi.c:1040:38
	lsls	r4, r1, #28
	bpl	.LBB13_12
.Ltmp462:
@ %bb.11:
	@DEBUG_VALUE: SPI_GetStatus:u32TmpStatus <- $r2
	@DEBUG_VALUE: SPI_GetStatus:u32Mask <- $r1
	@DEBUG_VALUE: SPI_GetStatus:u32Flag <- $r0
	@DEBUG_VALUE: SPI_GetStatus:spi <- [DW_OP_LLVM_entry_value 1] $r0
	mov	r0, r3
.Ltmp463:
.LBB13_12:
	@DEBUG_VALUE: SPI_GetStatus:u32TmpStatus <- $r2
	@DEBUG_VALUE: SPI_GetStatus:u32Mask <- $r1
	@DEBUG_VALUE: SPI_GetStatus:spi <- [DW_OP_LLVM_entry_value 1] $r0
	@DEBUG_VALUE: SPI_GetStatus:u32Flag <- $r0
	.loc	5 1046 37 is_stmt 1             @ ../../../Library/StdDriver/src/spi.c:1046:37
	lsls	r3, r2, #14
	mov	r3, r0
	bpl	.LBB13_14
.Ltmp464:
@ %bb.13:
	@DEBUG_VALUE: SPI_GetStatus:u32TmpStatus <- $r2
	@DEBUG_VALUE: SPI_GetStatus:u32Mask <- $r1
	@DEBUG_VALUE: SPI_GetStatus:u32Flag <- $r0
	@DEBUG_VALUE: SPI_GetStatus:spi <- [DW_OP_LLVM_entry_value 1] $r0
	.loc	5 0 37 is_stmt 0                @ ../../../Library/StdDriver/src/spi.c:0:37
	movs	r3, #16
	orrs	r3, r0
.Ltmp465:
.LBB13_14:
	@DEBUG_VALUE: SPI_GetStatus:u32TmpStatus <- $r2
	@DEBUG_VALUE: SPI_GetStatus:u32Mask <- $r1
	@DEBUG_VALUE: SPI_GetStatus:u32Flag <- $r0
	@DEBUG_VALUE: SPI_GetStatus:spi <- [DW_OP_LLVM_entry_value 1] $r0
	.loc	5 1046 37                       @ ../../../Library/StdDriver/src/spi.c:1046:37
	lsls	r4, r1, #27
	bpl	.LBB13_16
.Ltmp466:
@ %bb.15:
	@DEBUG_VALUE: SPI_GetStatus:u32TmpStatus <- $r2
	@DEBUG_VALUE: SPI_GetStatus:u32Mask <- $r1
	@DEBUG_VALUE: SPI_GetStatus:u32Flag <- $r0
	@DEBUG_VALUE: SPI_GetStatus:spi <- [DW_OP_LLVM_entry_value 1] $r0
	mov	r0, r3
.Ltmp467:
.LBB13_16:
	@DEBUG_VALUE: SPI_GetStatus:u32TmpStatus <- $r2
	@DEBUG_VALUE: SPI_GetStatus:u32Mask <- $r1
	@DEBUG_VALUE: SPI_GetStatus:spi <- [DW_OP_LLVM_entry_value 1] $r0
	@DEBUG_VALUE: SPI_GetStatus:u32Flag <- $r0
	.loc	5 1052 40 is_stmt 1             @ ../../../Library/StdDriver/src/spi.c:1052:40
	lsls	r3, r2, #8
	mov	r3, r0
	bpl	.LBB13_18
.Ltmp468:
@ %bb.17:
	@DEBUG_VALUE: SPI_GetStatus:u32TmpStatus <- $r2
	@DEBUG_VALUE: SPI_GetStatus:u32Mask <- $r1
	@DEBUG_VALUE: SPI_GetStatus:u32Flag <- $r0
	@DEBUG_VALUE: SPI_GetStatus:spi <- [DW_OP_LLVM_entry_value 1] $r0
	.loc	5 0 40 is_stmt 0                @ ../../../Library/StdDriver/src/spi.c:0:40
	movs	r3, #32
	orrs	r3, r0
.Ltmp469:
.LBB13_18:
	@DEBUG_VALUE: SPI_GetStatus:u32TmpStatus <- $r2
	@DEBUG_VALUE: SPI_GetStatus:u32Mask <- $r1
	@DEBUG_VALUE: SPI_GetStatus:u32Flag <- $r0
	@DEBUG_VALUE: SPI_GetStatus:spi <- [DW_OP_LLVM_entry_value 1] $r0
	.loc	5 1052 40                       @ ../../../Library/StdDriver/src/spi.c:1052:40
	lsls	r4, r1, #26
	bpl	.LBB13_20
.Ltmp470:
@ %bb.19:
	@DEBUG_VALUE: SPI_GetStatus:u32TmpStatus <- $r2
	@DEBUG_VALUE: SPI_GetStatus:u32Mask <- $r1
	@DEBUG_VALUE: SPI_GetStatus:u32Flag <- $r0
	@DEBUG_VALUE: SPI_GetStatus:spi <- [DW_OP_LLVM_entry_value 1] $r0
	mov	r0, r3
.Ltmp471:
.LBB13_20:
	@DEBUG_VALUE: SPI_GetStatus:u32TmpStatus <- $r2
	@DEBUG_VALUE: SPI_GetStatus:u32Mask <- $r1
	@DEBUG_VALUE: SPI_GetStatus:spi <- [DW_OP_LLVM_entry_value 1] $r0
	@DEBUG_VALUE: SPI_GetStatus:u32Flag <- $r0
	.loc	5 1058 39 is_stmt 1             @ ../../../Library/StdDriver/src/spi.c:1058:39
	lsls	r3, r2, #16
	mov	r3, r0
	bpl	.LBB13_22
.Ltmp472:
@ %bb.21:
	@DEBUG_VALUE: SPI_GetStatus:u32TmpStatus <- $r2
	@DEBUG_VALUE: SPI_GetStatus:u32Mask <- $r1
	@DEBUG_VALUE: SPI_GetStatus:u32Flag <- $r0
	@DEBUG_VALUE: SPI_GetStatus:spi <- [DW_OP_LLVM_entry_value 1] $r0
	.loc	5 0 39 is_stmt 0                @ ../../../Library/StdDriver/src/spi.c:0:39
	movs	r3, #64
	orrs	r3, r0
.Ltmp473:
.LBB13_22:
	@DEBUG_VALUE: SPI_GetStatus:u32TmpStatus <- $r2
	@DEBUG_VALUE: SPI_GetStatus:u32Mask <- $r1
	@DEBUG_VALUE: SPI_GetStatus:u32Flag <- $r0
	@DEBUG_VALUE: SPI_GetStatus:spi <- [DW_OP_LLVM_entry_value 1] $r0
	.loc	5 1058 39                       @ ../../../Library/StdDriver/src/spi.c:1058:39
	lsls	r4, r1, #25
	bpl	.LBB13_24
.Ltmp474:
@ %bb.23:
	@DEBUG_VALUE: SPI_GetStatus:u32TmpStatus <- $r2
	@DEBUG_VALUE: SPI_GetStatus:u32Mask <- $r1
	@DEBUG_VALUE: SPI_GetStatus:u32Flag <- $r0
	@DEBUG_VALUE: SPI_GetStatus:spi <- [DW_OP_LLVM_entry_value 1] $r0
	mov	r0, r3
.Ltmp475:
.LBB13_24:
	@DEBUG_VALUE: SPI_GetStatus:u32TmpStatus <- $r2
	@DEBUG_VALUE: SPI_GetStatus:u32Mask <- $r1
	@DEBUG_VALUE: SPI_GetStatus:spi <- [DW_OP_LLVM_entry_value 1] $r0
	@DEBUG_VALUE: SPI_GetStatus:u32Flag <- $r0
	.loc	5 1064 40 is_stmt 1             @ ../../../Library/StdDriver/src/spi.c:1064:40
	lsls	r2, r2, #27
.Ltmp476:
	mov	r2, r0
	bmi	.LBB13_27
.Ltmp477:
@ %bb.25:
	@DEBUG_VALUE: SPI_GetStatus:u32Mask <- $r1
	@DEBUG_VALUE: SPI_GetStatus:u32Flag <- $r0
	@DEBUG_VALUE: SPI_GetStatus:spi <- [DW_OP_LLVM_entry_value 1] $r0
	lsls	r1, r1, #24
.Ltmp478:
	@DEBUG_VALUE: SPI_GetStatus:u32Mask <- [DW_OP_LLVM_entry_value 1] $r1
	bmi	.LBB13_28
.Ltmp479:
.LBB13_26:
	@DEBUG_VALUE: SPI_GetStatus:u32Flag <- $r0
	@DEBUG_VALUE: SPI_GetStatus:u32Mask <- [DW_OP_LLVM_entry_value 1] $r1
	@DEBUG_VALUE: SPI_GetStatus:spi <- [DW_OP_LLVM_entry_value 1] $r0
	@DEBUG_VALUE: SPI_GetStatus:u32Flag <- $r0
	.loc	5 1069 5                        @ ../../../Library/StdDriver/src/spi.c:1069:5
	pop	{r4, pc}
.Ltmp480:
.LBB13_27:
	@DEBUG_VALUE: SPI_GetStatus:u32Mask <- $r1
	@DEBUG_VALUE: SPI_GetStatus:u32Flag <- $r0
	@DEBUG_VALUE: SPI_GetStatus:spi <- [DW_OP_LLVM_entry_value 1] $r0
	.loc	5 0 5 is_stmt 0                 @ ../../../Library/StdDriver/src/spi.c:0:5
	movs	r2, #128
	orrs	r2, r0
.Ltmp481:
	.loc	5 1064 40 is_stmt 1             @ ../../../Library/StdDriver/src/spi.c:1064:40
	lsls	r1, r1, #24
.Ltmp482:
	@DEBUG_VALUE: SPI_GetStatus:u32Mask <- [DW_OP_LLVM_entry_value 1] $r1
	bpl	.LBB13_26
.Ltmp483:
.LBB13_28:
	@DEBUG_VALUE: SPI_GetStatus:u32Flag <- $r0
	@DEBUG_VALUE: SPI_GetStatus:u32Mask <- [DW_OP_LLVM_entry_value 1] $r1
	@DEBUG_VALUE: SPI_GetStatus:spi <- [DW_OP_LLVM_entry_value 1] $r0
	mov	r0, r2
.Ltmp484:
	@DEBUG_VALUE: SPI_GetStatus:u32Flag <- $r0
	.loc	5 1069 5                        @ ../../../Library/StdDriver/src/spi.c:1069:5
	pop	{r4, pc}
.Ltmp485:
.Lfunc_end13:
	.size	SPI_GetStatus, .Lfunc_end13-SPI_GetStatus
	.cfi_endproc
	.cantunwind
	.fnend
                                        @ -- End function
	.section	.text.SPII2S_Open,"ax",%progbits
	.hidden	SPII2S_Open                     @ -- Begin function SPII2S_Open
	.globl	SPII2S_Open
	.p2align	2
	.type	SPII2S_Open,%function
	.code	16                              @ @SPII2S_Open
	.thumb_func
SPII2S_Open:
.Lfunc_begin14:
	.loc	5 1191 0                        @ ../../../Library/StdDriver/src/spi.c:1191:0
	.fnstart
	.cfi_startproc
@ %bb.0:
	@DEBUG_VALUE: SPII2S_Open:i2s <- $r0
	@DEBUG_VALUE: SPII2S_Open:u32MasterSlave <- $r1
	@DEBUG_VALUE: SPII2S_Open:u32SampleRate <- $r2
	@DEBUG_VALUE: SPII2S_Open:u32WordWidth <- $r3
	.save	{r4, r5, r6, r7, lr}
	push	{r4, r5, r6, r7, lr}
	.cfi_def_cfa_offset 20
	.cfi_offset lr, -4
	.cfi_offset r7, -8
	.cfi_offset r6, -12
	.cfi_offset r5, -16
	.cfi_offset r4, -20
	.pad	#12
	sub	sp, #12
	.cfi_def_cfa_offset 32
	mov	r6, r3
	str	r2, [sp, #8]                    @ 4-byte Spill
	mov	r7, r1
	mov	r4, r0
.Ltmp486:
	@DEBUG_VALUE: SPII2S_Open:u32DataFormat <- [DW_OP_plus_uconst 36] [$sp+0]
	@DEBUG_VALUE: SPII2S_Open:u32Channels <- [DW_OP_plus_uconst 32] [$sp+0]
	@DEBUG_VALUE: SPII2S_Open:u32WordWidth <- $r6
	@DEBUG_VALUE: SPII2S_Open:u32SampleRate <- [DW_OP_plus_uconst 8] [$sp+0]
	@DEBUG_VALUE: SPII2S_Open:u32MasterSlave <- $r7
	@DEBUG_VALUE: SPII2S_Open:i2s <- $r4
	.loc	5 1196 10 prologue_end          @ ../../../Library/StdDriver/src/spi.c:1196:10
	bl	__PC
.Ltmp487:
	.loc	5 1196 8 is_stmt 0              @ ../../../Library/StdDriver/src/spi.c:1196:8
	lsls	r0, r0, #3
	ldr	r0, [sp, #36]
	ldr	r1, [sp, #32]
	bmi	.LBB14_9
.Ltmp488:
@ %bb.1:
	@DEBUG_VALUE: SPII2S_Open:u32MasterSlave <- $r7
	@DEBUG_VALUE: SPII2S_Open:u32WordWidth <- $r6
	@DEBUG_VALUE: SPII2S_Open:i2s <- $r4
	@DEBUG_VALUE: SPII2S_Open:u32SampleRate <- [DW_OP_plus_uconst 8] [$sp+0]
	@DEBUG_VALUE: SPII2S_Open:u32Channels <- [DW_OP_plus_uconst 32] [$sp+0]
	@DEBUG_VALUE: SPII2S_Open:u32DataFormat <- [DW_OP_plus_uconst 36] [$sp+0]
	.loc	5 0 8                           @ ../../../Library/StdDriver/src/spi.c:0:8
	ldr	r2, __arm_cp.14_0
.Ltmp489:
	.loc	5 1199 12 is_stmt 1             @ ../../../Library/StdDriver/src/spi.c:1199:12
	cmp	r4, r2
	beq	.LBB14_5
.Ltmp490:
@ %bb.2:
	@DEBUG_VALUE: SPII2S_Open:u32MasterSlave <- $r7
	@DEBUG_VALUE: SPII2S_Open:u32WordWidth <- $r6
	@DEBUG_VALUE: SPII2S_Open:i2s <- $r4
	@DEBUG_VALUE: SPII2S_Open:u32SampleRate <- [DW_OP_plus_uconst 8] [$sp+0]
	@DEBUG_VALUE: SPII2S_Open:u32Channels <- [DW_OP_plus_uconst 32] [$sp+0]
	@DEBUG_VALUE: SPII2S_Open:u32DataFormat <- [DW_OP_plus_uconst 36] [$sp+0]
	.loc	5 0 12 is_stmt 0                @ ../../../Library/StdDriver/src/spi.c:0:12
	ldr	r2, __arm_cp.14_1
	.loc	5 1199 12                       @ ../../../Library/StdDriver/src/spi.c:1199:12
	cmp	r4, r2
	beq	.LBB14_6
.Ltmp491:
@ %bb.3:
	@DEBUG_VALUE: SPII2S_Open:u32MasterSlave <- $r7
	@DEBUG_VALUE: SPII2S_Open:u32WordWidth <- $r6
	@DEBUG_VALUE: SPII2S_Open:i2s <- $r4
	@DEBUG_VALUE: SPII2S_Open:u32SampleRate <- [DW_OP_plus_uconst 8] [$sp+0]
	@DEBUG_VALUE: SPII2S_Open:u32Channels <- [DW_OP_plus_uconst 32] [$sp+0]
	@DEBUG_VALUE: SPII2S_Open:u32DataFormat <- [DW_OP_plus_uconst 36] [$sp+0]
	.loc	5 0 12                          @ ../../../Library/StdDriver/src/spi.c:0:12
	ldr	r2, __arm_cp.14_2
	.loc	5 1199 12                       @ ../../../Library/StdDriver/src/spi.c:1199:12
	cmp	r4, r2
	bne	.LBB14_8
.Ltmp492:
@ %bb.4:
	@DEBUG_VALUE: SPII2S_Open:u32MasterSlave <- $r7
	@DEBUG_VALUE: SPII2S_Open:u32WordWidth <- $r6
	@DEBUG_VALUE: SPII2S_Open:i2s <- $r4
	@DEBUG_VALUE: SPII2S_Open:u32SampleRate <- [DW_OP_plus_uconst 8] [$sp+0]
	@DEBUG_VALUE: SPII2S_Open:u32Channels <- [DW_OP_plus_uconst 32] [$sp+0]
	@DEBUG_VALUE: SPII2S_Open:u32DataFormat <- [DW_OP_plus_uconst 36] [$sp+0]
	.loc	5 0 12                          @ ../../../Library/StdDriver/src/spi.c:0:12
	ldr	r2, __arm_cp.14_3
.Ltmp493:
	.loc	5 1201 25 is_stmt 1             @ ../../../Library/StdDriver/src/spi.c:1201:25
	ldr	r3, [r2]
	movw	r2, #8192
	orrs	r3, r2
	movw	r5, #8192
	ldr	r2, __arm_cp.14_3
	str	r3, [r2]
	.loc	5 1202 25                       @ ../../../Library/StdDriver/src/spi.c:1202:25
	ldr	r3, [r2]
	b	.LBB14_7
.Ltmp494:
.LBB14_5:
	@DEBUG_VALUE: SPII2S_Open:u32MasterSlave <- $r7
	@DEBUG_VALUE: SPII2S_Open:u32WordWidth <- $r6
	@DEBUG_VALUE: SPII2S_Open:i2s <- $r4
	@DEBUG_VALUE: SPII2S_Open:u32SampleRate <- [DW_OP_plus_uconst 8] [$sp+0]
	@DEBUG_VALUE: SPII2S_Open:u32Channels <- [DW_OP_plus_uconst 32] [$sp+0]
	@DEBUG_VALUE: SPII2S_Open:u32DataFormat <- [DW_OP_plus_uconst 36] [$sp+0]
	.loc	5 0 25 is_stmt 0                @ ../../../Library/StdDriver/src/spi.c:0:25
	ldr	r2, __arm_cp.14_3
.Ltmp495:
	.loc	5 1206 25 is_stmt 1             @ ../../../Library/StdDriver/src/spi.c:1206:25
	ldr	r3, [r2]
	mov	r5, r2
	movw	r2, #16384
	orrs	r3, r2
	mov	r2, r5
	str	r3, [r5]
	.loc	5 1207 25                       @ ../../../Library/StdDriver/src/spi.c:1207:25
	ldr	r3, [r5]
	movw	r5, #16384
	b	.LBB14_7
.Ltmp496:
.LBB14_6:
	@DEBUG_VALUE: SPII2S_Open:u32MasterSlave <- $r7
	@DEBUG_VALUE: SPII2S_Open:u32WordWidth <- $r6
	@DEBUG_VALUE: SPII2S_Open:i2s <- $r4
	@DEBUG_VALUE: SPII2S_Open:u32SampleRate <- [DW_OP_plus_uconst 8] [$sp+0]
	@DEBUG_VALUE: SPII2S_Open:u32Channels <- [DW_OP_plus_uconst 32] [$sp+0]
	@DEBUG_VALUE: SPII2S_Open:u32DataFormat <- [DW_OP_plus_uconst 36] [$sp+0]
	.loc	5 0 25 is_stmt 0                @ ../../../Library/StdDriver/src/spi.c:0:25
	ldr	r2, __arm_cp.14_3
.Ltmp497:
	.loc	5 1211 25 is_stmt 1             @ ../../../Library/StdDriver/src/spi.c:1211:25
	ldr	r3, [r2]
	mov	r5, r2
	movw	r2, #32768
	orrs	r3, r2
	mov	r2, r5
	str	r3, [r5]
	.loc	5 1212 25                       @ ../../../Library/StdDriver/src/spi.c:1212:25
	ldr	r3, [r5]
	movw	r5, #32768
.Ltmp498:
.LBB14_7:
	@DEBUG_VALUE: SPII2S_Open:u32MasterSlave <- $r7
	@DEBUG_VALUE: SPII2S_Open:u32WordWidth <- $r6
	@DEBUG_VALUE: SPII2S_Open:i2s <- $r4
	@DEBUG_VALUE: SPII2S_Open:u32SampleRate <- [DW_OP_plus_uconst 8] [$sp+0]
	@DEBUG_VALUE: SPII2S_Open:u32Channels <- [DW_OP_plus_uconst 32] [$sp+0]
	@DEBUG_VALUE: SPII2S_Open:u32DataFormat <- [DW_OP_plus_uconst 36] [$sp+0]
	.loc	5 0 0 is_stmt 0                 @ ../../../Library/StdDriver/src/spi.c:0:0
	bics	r3, r5
	str	r3, [r2]
	b	.LBB14_9
.Ltmp499:
.LBB14_8:
	@DEBUG_VALUE: SPII2S_Open:u32MasterSlave <- $r7
	@DEBUG_VALUE: SPII2S_Open:u32WordWidth <- $r6
	@DEBUG_VALUE: SPII2S_Open:i2s <- $r4
	@DEBUG_VALUE: SPII2S_Open:u32SampleRate <- [DW_OP_plus_uconst 8] [$sp+0]
	@DEBUG_VALUE: SPII2S_Open:u32Channels <- [DW_OP_plus_uconst 32] [$sp+0]
	@DEBUG_VALUE: SPII2S_Open:u32DataFormat <- [DW_OP_plus_uconst 36] [$sp+0]
	ldr	r2, __arm_cp.14_3
.Ltmp500:
	.loc	5 1216 25 is_stmt 1             @ ../../../Library/StdDriver/src/spi.c:1216:25
	ldr	r3, [r2, #4]
	movs	r2, #64
	str	r2, [sp, #4]                    @ 4-byte Spill
	orrs	r3, r2
	ldr	r2, __arm_cp.14_3
	str	r3, [r2, #4]
	ldr	r5, __arm_cp.14_3
	.loc	5 1217 25                       @ ../../../Library/StdDriver/src/spi.c:1217:25
	ldr	r3, [r5, #4]
	ldr	r2, [sp, #4]                    @ 4-byte Reload
	bics	r3, r2
	str	r3, [r5, #4]
.Ltmp501:
.LBB14_9:
	@DEBUG_VALUE: SPII2S_Open:u32MasterSlave <- $r7
	@DEBUG_VALUE: SPII2S_Open:u32WordWidth <- $r6
	@DEBUG_VALUE: SPII2S_Open:i2s <- $r4
	@DEBUG_VALUE: SPII2S_Open:u32SampleRate <- [DW_OP_plus_uconst 8] [$sp+0]
	@DEBUG_VALUE: SPII2S_Open:u32Channels <- [DW_OP_plus_uconst 32] [$sp+0]
	@DEBUG_VALUE: SPII2S_Open:u32DataFormat <- [DW_OP_plus_uconst 36] [$sp+0]
	.loc	5 1222 34                       @ ../../../Library/StdDriver/src/spi.c:1222:34
	mov	r2, r6
	orrs	r2, r7
	.loc	5 1222 49 is_stmt 0             @ ../../../Library/StdDriver/src/spi.c:1222:49
	orrs	r2, r1
	.loc	5 1222 63                       @ ../../../Library/StdDriver/src/spi.c:1222:63
	orrs	r2, r0
	.loc	5 1222 17                       @ ../../../Library/StdDriver/src/spi.c:1222:17
	str	r2, [r4, #96]
	movs	r0, #33
	lsls	r0, r0, #24
	.loc	5 1224 18 is_stmt 1             @ ../../../Library/StdDriver/src/spi.c:1224:18
	str	r0, [r4, #16]
	.loc	5 1226 8                        @ ../../../Library/StdDriver/src/spi.c:1226:8
	cbz	r7, .LBB14_17
.Ltmp502:
@ %bb.10:
	@DEBUG_VALUE: SPII2S_Open:u32MasterSlave <- $r7
	@DEBUG_VALUE: SPII2S_Open:u32WordWidth <- $r6
	@DEBUG_VALUE: SPII2S_Open:i2s <- $r4
	@DEBUG_VALUE: SPII2S_Open:u32SampleRate <- [DW_OP_plus_uconst 8] [$sp+0]
	@DEBUG_VALUE: SPII2S_Open:u32Channels <- [DW_OP_plus_uconst 32] [$sp+0]
	@DEBUG_VALUE: SPII2S_Open:u32DataFormat <- [DW_OP_plus_uconst 36] [$sp+0]
	.loc	5 0 8 is_stmt 0                 @ ../../../Library/StdDriver/src/spi.c:0:8
	movs	r0, #1
	lsls	r7, r0, #28
.Ltmp503:
	.loc	5 1251 21 is_stmt 1             @ ../../../Library/StdDriver/src/spi.c:1251:21
	ldr	r0, [r4, #100]
	ldr	r1, __arm_cp.14_4
	ands	r1, r0
	str	r1, [r4, #100]
	.loc	5 1253 24                       @ ../../../Library/StdDriver/src/spi.c:1253:24
	bl	CLK_GetPCLK0Freq
	mov	r6, r0
.Ltmp504:
	@DEBUG_VALUE: SPII2S_Open:u32PCLK0Freq <- $r6
	.loc	5 1255 24                       @ ../../../Library/StdDriver/src/spi.c:1255:24
	bl	CLK_GetPCLK1Freq
	mov	r5, r0
.Ltmp505:
	@DEBUG_VALUE: SPII2S_Open:u32PCLK1Freq <- $r5
	.loc	5 0 24 is_stmt 0                @ ../../../Library/StdDriver/src/spi.c:0:24
	ldr	r0, __arm_cp.14_0
	.loc	5 1257 12 is_stmt 1             @ ../../../Library/StdDriver/src/spi.c:1257:12
	cmp	r4, r0
	beq	.LBB14_19
.Ltmp506:
@ %bb.11:
	@DEBUG_VALUE: SPII2S_Open:u32PCLK0Freq <- $r6
	@DEBUG_VALUE: SPII2S_Open:u32PCLK1Freq <- $r5
	@DEBUG_VALUE: SPII2S_Open:i2s <- $r4
	@DEBUG_VALUE: SPII2S_Open:u32SampleRate <- [DW_OP_plus_uconst 8] [$sp+0]
	@DEBUG_VALUE: SPII2S_Open:u32Channels <- [DW_OP_plus_uconst 32] [$sp+0]
	@DEBUG_VALUE: SPII2S_Open:u32DataFormat <- [DW_OP_plus_uconst 36] [$sp+0]
	.loc	5 0 12 is_stmt 0                @ ../../../Library/StdDriver/src/spi.c:0:12
	ldr	r0, __arm_cp.14_1
	.loc	5 1257 12                       @ ../../../Library/StdDriver/src/spi.c:1257:12
	cmp	r4, r0
	beq	.LBB14_23
.Ltmp507:
@ %bb.12:
	@DEBUG_VALUE: SPII2S_Open:u32PCLK0Freq <- $r6
	@DEBUG_VALUE: SPII2S_Open:u32PCLK1Freq <- $r5
	@DEBUG_VALUE: SPII2S_Open:i2s <- $r4
	@DEBUG_VALUE: SPII2S_Open:u32SampleRate <- [DW_OP_plus_uconst 8] [$sp+0]
	@DEBUG_VALUE: SPII2S_Open:u32Channels <- [DW_OP_plus_uconst 32] [$sp+0]
	@DEBUG_VALUE: SPII2S_Open:u32DataFormat <- [DW_OP_plus_uconst 36] [$sp+0]
	.loc	5 0 12                          @ ../../../Library/StdDriver/src/spi.c:0:12
	ldr	r0, __arm_cp.14_2
	.loc	5 1257 12                       @ ../../../Library/StdDriver/src/spi.c:1257:12
	cmp	r4, r0
	bne	.LBB14_27
.Ltmp508:
@ %bb.13:
	@DEBUG_VALUE: SPII2S_Open:u32PCLK0Freq <- $r6
	@DEBUG_VALUE: SPII2S_Open:u32PCLK1Freq <- $r5
	@DEBUG_VALUE: SPII2S_Open:i2s <- $r4
	@DEBUG_VALUE: SPII2S_Open:u32SampleRate <- [DW_OP_plus_uconst 8] [$sp+0]
	@DEBUG_VALUE: SPII2S_Open:u32Channels <- [DW_OP_plus_uconst 32] [$sp+0]
	@DEBUG_VALUE: SPII2S_Open:u32DataFormat <- [DW_OP_plus_uconst 36] [$sp+0]
	.loc	5 1259 18 is_stmt 1             @ ../../../Library/StdDriver/src/spi.c:1259:18
	bl	__PC
.Ltmp509:
	.loc	5 1259 16 is_stmt 0             @ ../../../Library/StdDriver/src/spi.c:1259:16
	tst	r0, r7
	beq	.LBB14_31
.Ltmp510:
@ %bb.14:
	@DEBUG_VALUE: SPII2S_Open:u32PCLK0Freq <- $r6
	@DEBUG_VALUE: SPII2S_Open:u32PCLK1Freq <- $r5
	@DEBUG_VALUE: SPII2S_Open:i2s <- $r4
	@DEBUG_VALUE: SPII2S_Open:u32SampleRate <- [DW_OP_plus_uconst 8] [$sp+0]
	@DEBUG_VALUE: SPII2S_Open:u32Channels <- [DW_OP_plus_uconst 32] [$sp+0]
	@DEBUG_VALUE: SPII2S_Open:u32DataFormat <- [DW_OP_plus_uconst 36] [$sp+0]
	.loc	5 0 16                          @ ../../../Library/StdDriver/src/spi.c:0:16
	ldr	r6, __arm_cp.14_11
.Ltmp511:
	.loc	5 1269 21 is_stmt 1             @ ../../../Library/StdDriver/src/spi.c:1269:21
	mov	r0, r6
	bl	CLK_GetModuleClockSource
	.loc	5 1269 87 is_stmt 0             @ ../../../Library/StdDriver/src/spi.c:1269:87
	subs	r7, r7, #1
	ldr	r5, __arm_cp.14_7
.Ltmp512:
	.loc	5 1269 20                       @ ../../../Library/StdDriver/src/spi.c:1269:20
	tst	r0, r7
	beq	.LBB14_18
.Ltmp513:
@ %bb.15:
	@DEBUG_VALUE: SPII2S_Open:i2s <- $r4
	@DEBUG_VALUE: SPII2S_Open:u32SampleRate <- [DW_OP_plus_uconst 8] [$sp+0]
	@DEBUG_VALUE: SPII2S_Open:u32Channels <- [DW_OP_plus_uconst 32] [$sp+0]
	@DEBUG_VALUE: SPII2S_Open:u32DataFormat <- [DW_OP_plus_uconst 36] [$sp+0]
	.loc	5 1273 26 is_stmt 1             @ ../../../Library/StdDriver/src/spi.c:1273:26
	mov	r0, r6
	bl	CLK_GetModuleClockSource
	.loc	5 1273 92 is_stmt 0             @ ../../../Library/StdDriver/src/spi.c:1273:92
	ands	r0, r7
.Ltmp514:
	.loc	5 1273 25                       @ ../../../Library/StdDriver/src/spi.c:1273:25
	cmp	r0, #1
	beq	.LBB14_16
	b	.LBB14_35
.Ltmp515:
.LBB14_16:
	@DEBUG_VALUE: SPII2S_Open:i2s <- $r4
	@DEBUG_VALUE: SPII2S_Open:u32SampleRate <- [DW_OP_plus_uconst 8] [$sp+0]
	@DEBUG_VALUE: SPII2S_Open:u32Channels <- [DW_OP_plus_uconst 32] [$sp+0]
	@DEBUG_VALUE: SPII2S_Open:u32DataFormat <- [DW_OP_plus_uconst 36] [$sp+0]
	.loc	5 1275 35 is_stmt 1             @ ../../../Library/StdDriver/src/spi.c:1275:35
	bl	CLK_GetPLLClockFreq
	mov	r5, r0
.Ltmp516:
	@DEBUG_VALUE: SPII2S_Open:u32RetValue <- $r5
	.loc	5 1276 17                       @ ../../../Library/StdDriver/src/spi.c:1276:17
	b	.LBB14_18
.Ltmp517:
.LBB14_17:
	@DEBUG_VALUE: SPII2S_Open:u32MasterSlave <- $r7
	@DEBUG_VALUE: SPII2S_Open:u32WordWidth <- $r6
	@DEBUG_VALUE: SPII2S_Open:i2s <- $r4
	@DEBUG_VALUE: SPII2S_Open:u32SampleRate <- [DW_OP_plus_uconst 8] [$sp+0]
	@DEBUG_VALUE: SPII2S_Open:u32Channels <- [DW_OP_plus_uconst 32] [$sp+0]
	@DEBUG_VALUE: SPII2S_Open:u32DataFormat <- [DW_OP_plus_uconst 36] [$sp+0]
	.loc	5 1229 21                       @ ../../../Library/StdDriver/src/spi.c:1229:21
	mov	r0, r4
	bl	SPII2S_GetSourceClockFreq
.Ltmp518:
	@DEBUG_VALUE: SPII2S_Open:u32SrcClk <- $r0
	.loc	5 0 21 is_stmt 0                @ ../../../Library/StdDriver/src/spi.c:0:21
	movs	r2, #10
	.loc	5 1233 37 is_stmt 1             @ ../../../Library/StdDriver/src/spi.c:1233:37
	mov	r3, r2
	muls	r3, r0, r3
	.loc	5 1232 53                       @ ../../../Library/StdDriver/src/spi.c:1232:53
	lsrs	r1, r6, #4
	.loc	5 1232 80 is_stmt 0             @ ../../../Library/StdDriver/src/spi.c:1232:80
	adds	r1, r1, #1
	ldr	r5, [sp, #8]                    @ 4-byte Reload
	.loc	5 1232 87                       @ ../../../Library/StdDriver/src/spi.c:1232:87
	muls	r5, r1, r5
	lsls	r5, r5, #4
.Ltmp519:
	@DEBUG_VALUE: SPII2S_Open:u32BitRate <- $r5
	.loc	5 1233 45 is_stmt 1             @ ../../../Library/StdDriver/src/spi.c:1233:45
	udiv	r3, r3, r5
	.loc	5 1233 59 is_stmt 0             @ ../../../Library/StdDriver/src/spi.c:1233:59
	lsrs	r3, r3, #1
	.loc	5 1233 67                       @ ../../../Library/StdDriver/src/spi.c:1233:67
	adds	r3, r3, #5
	.loc	5 1233 74                       @ ../../../Library/StdDriver/src/spi.c:1233:74
	udiv	r2, r3, r2
.Ltmp520:
	@DEBUG_VALUE: SPII2S_Open:u32Divider <- [DW_OP_plus_uconst 16777215, DW_OP_stack_value] $r2
	.loc	5 1235 77 is_stmt 1             @ ../../../Library/StdDriver/src/spi.c:1235:77
	lsls	r3, r2, #8
	movw	r5, #256
.Ltmp521:
	subs	r3, r3, r5
	.loc	5 1235 29 is_stmt 0             @ ../../../Library/StdDriver/src/spi.c:1235:29
	ldr	r5, [r4, #100]
	ldr	r6, __arm_cp.14_4
.Ltmp522:
	.loc	5 1235 36                       @ ../../../Library/StdDriver/src/spi.c:1235:36
	ands	r6, r5
	.loc	5 1235 63                       @ ../../../Library/StdDriver/src/spi.c:1235:63
	orrs	r6, r3
	.loc	5 1235 21                       @ ../../../Library/StdDriver/src/spi.c:1235:21
	str	r6, [r4, #100]
	.loc	5 1238 54 is_stmt 1             @ ../../../Library/StdDriver/src/spi.c:1238:54
	lsls	r2, r2, #1
.Ltmp523:
	.loc	5 1238 32 is_stmt 0             @ ../../../Library/StdDriver/src/spi.c:1238:32
	udiv	r0, r0, r2
.Ltmp524:
	@DEBUG_VALUE: SPII2S_Open:u32BitRate <- $r0
	.loc	5 1240 88 is_stmt 1             @ ../../../Library/StdDriver/src/spi.c:1240:88
	lsls	r1, r1, #4
	.loc	5 1240 36 is_stmt 0             @ ../../../Library/StdDriver/src/spi.c:1240:36
	udiv	r5, r0, r1
.Ltmp525:
	@DEBUG_VALUE: SPII2S_Open:u32RetValue <- $r5
	@DEBUG_VALUE: SPII2S_Open:u32SampleRate <- $r5
.LBB14_18:
	@DEBUG_VALUE: SPII2S_Open:i2s <- $r4
	@DEBUG_VALUE: SPII2S_Open:u32Channels <- [DW_OP_plus_uconst 32] [$sp+0]
	@DEBUG_VALUE: SPII2S_Open:u32DataFormat <- [DW_OP_plus_uconst 36] [$sp+0]
	.loc	5 0 0                           @ ../../../Library/StdDriver/src/spi.c:0:0
	ldr	r0, [r4, #96]
	movs	r1, #7
	orrs	r1, r0
	str	r1, [r4, #96]
.Ltmp526:
	@DEBUG_VALUE: SPII2S_Open:u32RetValue <- $r5
	.loc	5 1387 5 is_stmt 1              @ ../../../Library/StdDriver/src/spi.c:1387:5
	mov	r0, r5
	add	sp, #12
.Ltmp527:
	pop	{r4, r5, r6, r7, pc}
.Ltmp528:
.LBB14_19:
	@DEBUG_VALUE: SPII2S_Open:u32PCLK0Freq <- $r6
	@DEBUG_VALUE: SPII2S_Open:u32PCLK1Freq <- $r5
	@DEBUG_VALUE: SPII2S_Open:i2s <- $r4
	@DEBUG_VALUE: SPII2S_Open:u32SampleRate <- [DW_OP_plus_uconst 8] [$sp+0]
	@DEBUG_VALUE: SPII2S_Open:u32Channels <- [DW_OP_plus_uconst 32] [$sp+0]
	@DEBUG_VALUE: SPII2S_Open:u32DataFormat <- [DW_OP_plus_uconst 36] [$sp+0]
	.loc	5 1291 18                       @ ../../../Library/StdDriver/src/spi.c:1291:18
	bl	__PC
.Ltmp529:
	.loc	5 1291 16 is_stmt 0             @ ../../../Library/StdDriver/src/spi.c:1291:16
	tst	r0, r7
	beq	.LBB14_32
.Ltmp530:
@ %bb.20:
	@DEBUG_VALUE: SPII2S_Open:u32PCLK0Freq <- $r6
	@DEBUG_VALUE: SPII2S_Open:u32PCLK1Freq <- $r5
	@DEBUG_VALUE: SPII2S_Open:i2s <- $r4
	@DEBUG_VALUE: SPII2S_Open:u32SampleRate <- [DW_OP_plus_uconst 8] [$sp+0]
	@DEBUG_VALUE: SPII2S_Open:u32Channels <- [DW_OP_plus_uconst 32] [$sp+0]
	@DEBUG_VALUE: SPII2S_Open:u32DataFormat <- [DW_OP_plus_uconst 36] [$sp+0]
	.loc	5 0 16                          @ ../../../Library/StdDriver/src/spi.c:0:16
	ldr	r6, __arm_cp.14_9
.Ltmp531:
	.loc	5 1301 21 is_stmt 1             @ ../../../Library/StdDriver/src/spi.c:1301:21
	mov	r0, r6
	bl	CLK_GetModuleClockSource
.Ltmp532:
	.loc	5 1301 20 is_stmt 0             @ ../../../Library/StdDriver/src/spi.c:1301:20
	lsls	r0, r0, #6
	ldr	r5, __arm_cp.14_7
.Ltmp533:
	beq	.LBB14_18
.Ltmp534:
@ %bb.21:
	@DEBUG_VALUE: SPII2S_Open:i2s <- $r4
	@DEBUG_VALUE: SPII2S_Open:u32SampleRate <- [DW_OP_plus_uconst 8] [$sp+0]
	@DEBUG_VALUE: SPII2S_Open:u32Channels <- [DW_OP_plus_uconst 32] [$sp+0]
	@DEBUG_VALUE: SPII2S_Open:u32DataFormat <- [DW_OP_plus_uconst 36] [$sp+0]
	.loc	5 0 20                          @ ../../../Library/StdDriver/src/spi.c:0:20
	ldr	r7, __arm_cp.14_10
.Ltmp535:
	.loc	5 1305 26 is_stmt 1             @ ../../../Library/StdDriver/src/spi.c:1305:26
	mov	r0, r6
	bl	CLK_GetModuleClockSource
	.loc	5 1305 92 is_stmt 0             @ ../../../Library/StdDriver/src/spi.c:1305:92
	ands	r0, r7
.Ltmp536:
	.loc	5 1305 25                       @ ../../../Library/StdDriver/src/spi.c:1305:25
	cmp	r0, #1
	bne	.LBB14_37
.Ltmp537:
@ %bb.22:
	@DEBUG_VALUE: SPII2S_Open:i2s <- $r4
	@DEBUG_VALUE: SPII2S_Open:u32SampleRate <- [DW_OP_plus_uconst 8] [$sp+0]
	@DEBUG_VALUE: SPII2S_Open:u32Channels <- [DW_OP_plus_uconst 32] [$sp+0]
	@DEBUG_VALUE: SPII2S_Open:u32DataFormat <- [DW_OP_plus_uconst 36] [$sp+0]
	.loc	5 1307 35 is_stmt 1             @ ../../../Library/StdDriver/src/spi.c:1307:35
	bl	CLK_GetPLLClockFreq
	mov	r5, r0
.Ltmp538:
	@DEBUG_VALUE: SPII2S_Open:u32RetValue <- $r5
	.loc	5 1308 17                       @ ../../../Library/StdDriver/src/spi.c:1308:17
	b	.LBB14_18
.Ltmp539:
.LBB14_23:
	@DEBUG_VALUE: SPII2S_Open:u32PCLK0Freq <- $r6
	@DEBUG_VALUE: SPII2S_Open:u32PCLK1Freq <- $r5
	@DEBUG_VALUE: SPII2S_Open:i2s <- $r4
	@DEBUG_VALUE: SPII2S_Open:u32SampleRate <- [DW_OP_plus_uconst 8] [$sp+0]
	@DEBUG_VALUE: SPII2S_Open:u32Channels <- [DW_OP_plus_uconst 32] [$sp+0]
	@DEBUG_VALUE: SPII2S_Open:u32DataFormat <- [DW_OP_plus_uconst 36] [$sp+0]
	.loc	5 1323 18                       @ ../../../Library/StdDriver/src/spi.c:1323:18
	bl	__PC
.Ltmp540:
	.loc	5 1323 16 is_stmt 0             @ ../../../Library/StdDriver/src/spi.c:1323:16
	tst	r0, r7
	beq	.LBB14_33
.Ltmp541:
@ %bb.24:
	@DEBUG_VALUE: SPII2S_Open:u32PCLK0Freq <- $r6
	@DEBUG_VALUE: SPII2S_Open:u32PCLK1Freq <- $r5
	@DEBUG_VALUE: SPII2S_Open:i2s <- $r4
	@DEBUG_VALUE: SPII2S_Open:u32SampleRate <- [DW_OP_plus_uconst 8] [$sp+0]
	@DEBUG_VALUE: SPII2S_Open:u32Channels <- [DW_OP_plus_uconst 32] [$sp+0]
	@DEBUG_VALUE: SPII2S_Open:u32DataFormat <- [DW_OP_plus_uconst 36] [$sp+0]
	.loc	5 0 16                          @ ../../../Library/StdDriver/src/spi.c:0:16
	ldr	r6, __arm_cp.14_5
.Ltmp542:
	.loc	5 1333 21 is_stmt 1             @ ../../../Library/StdDriver/src/spi.c:1333:21
	mov	r0, r6
	bl	CLK_GetModuleClockSource
.Ltmp543:
	.loc	5 1333 20 is_stmt 0             @ ../../../Library/StdDriver/src/spi.c:1333:20
	lsls	r0, r0, #10
	ldr	r5, __arm_cp.14_7
.Ltmp544:
	beq	.LBB14_18
.Ltmp545:
@ %bb.25:
	@DEBUG_VALUE: SPII2S_Open:i2s <- $r4
	@DEBUG_VALUE: SPII2S_Open:u32SampleRate <- [DW_OP_plus_uconst 8] [$sp+0]
	@DEBUG_VALUE: SPII2S_Open:u32Channels <- [DW_OP_plus_uconst 32] [$sp+0]
	@DEBUG_VALUE: SPII2S_Open:u32DataFormat <- [DW_OP_plus_uconst 36] [$sp+0]
	.loc	5 0 20                          @ ../../../Library/StdDriver/src/spi.c:0:20
	ldr	r7, __arm_cp.14_6
.Ltmp546:
	.loc	5 1337 26 is_stmt 1             @ ../../../Library/StdDriver/src/spi.c:1337:26
	mov	r0, r6
	bl	CLK_GetModuleClockSource
	.loc	5 1337 92 is_stmt 0             @ ../../../Library/StdDriver/src/spi.c:1337:92
	ands	r0, r7
.Ltmp547:
	.loc	5 1337 25                       @ ../../../Library/StdDriver/src/spi.c:1337:25
	cmp	r0, #1
	bne	.LBB14_39
.Ltmp548:
@ %bb.26:
	@DEBUG_VALUE: SPII2S_Open:i2s <- $r4
	@DEBUG_VALUE: SPII2S_Open:u32SampleRate <- [DW_OP_plus_uconst 8] [$sp+0]
	@DEBUG_VALUE: SPII2S_Open:u32Channels <- [DW_OP_plus_uconst 32] [$sp+0]
	@DEBUG_VALUE: SPII2S_Open:u32DataFormat <- [DW_OP_plus_uconst 36] [$sp+0]
	.loc	5 1339 35 is_stmt 1             @ ../../../Library/StdDriver/src/spi.c:1339:35
	bl	CLK_GetPLLClockFreq
	mov	r5, r0
.Ltmp549:
	@DEBUG_VALUE: SPII2S_Open:u32RetValue <- $r5
	.loc	5 1340 17                       @ ../../../Library/StdDriver/src/spi.c:1340:17
	b	.LBB14_18
.Ltmp550:
.LBB14_27:
	@DEBUG_VALUE: SPII2S_Open:u32PCLK0Freq <- $r6
	@DEBUG_VALUE: SPII2S_Open:u32PCLK1Freq <- $r5
	@DEBUG_VALUE: SPII2S_Open:i2s <- $r4
	@DEBUG_VALUE: SPII2S_Open:u32SampleRate <- [DW_OP_plus_uconst 8] [$sp+0]
	@DEBUG_VALUE: SPII2S_Open:u32Channels <- [DW_OP_plus_uconst 32] [$sp+0]
	@DEBUG_VALUE: SPII2S_Open:u32DataFormat <- [DW_OP_plus_uconst 36] [$sp+0]
	.loc	5 1355 18                       @ ../../../Library/StdDriver/src/spi.c:1355:18
	bl	__PC
.Ltmp551:
	.loc	5 1355 16 is_stmt 0             @ ../../../Library/StdDriver/src/spi.c:1355:16
	tst	r0, r7
	beq	.LBB14_34
.Ltmp552:
@ %bb.28:
	@DEBUG_VALUE: SPII2S_Open:u32PCLK0Freq <- $r6
	@DEBUG_VALUE: SPII2S_Open:u32PCLK1Freq <- $r5
	@DEBUG_VALUE: SPII2S_Open:i2s <- $r4
	@DEBUG_VALUE: SPII2S_Open:u32SampleRate <- [DW_OP_plus_uconst 8] [$sp+0]
	@DEBUG_VALUE: SPII2S_Open:u32Channels <- [DW_OP_plus_uconst 32] [$sp+0]
	@DEBUG_VALUE: SPII2S_Open:u32DataFormat <- [DW_OP_plus_uconst 36] [$sp+0]
	.loc	5 0 16                          @ ../../../Library/StdDriver/src/spi.c:0:16
	ldr	r6, __arm_cp.14_12
.Ltmp553:
	.loc	5 1365 21 is_stmt 1             @ ../../../Library/StdDriver/src/spi.c:1365:21
	mov	r0, r6
	bl	CLK_GetModuleClockSource
.Ltmp554:
	.loc	5 1365 20 is_stmt 0             @ ../../../Library/StdDriver/src/spi.c:1365:20
	lsls	r0, r0, #12
	ldr	r5, __arm_cp.14_7
.Ltmp555:
	beq	.LBB14_18
.Ltmp556:
@ %bb.29:
	@DEBUG_VALUE: SPII2S_Open:i2s <- $r4
	@DEBUG_VALUE: SPII2S_Open:u32SampleRate <- [DW_OP_plus_uconst 8] [$sp+0]
	@DEBUG_VALUE: SPII2S_Open:u32Channels <- [DW_OP_plus_uconst 32] [$sp+0]
	@DEBUG_VALUE: SPII2S_Open:u32DataFormat <- [DW_OP_plus_uconst 36] [$sp+0]
	.loc	5 0 20                          @ ../../../Library/StdDriver/src/spi.c:0:20
	ldr	r7, __arm_cp.14_13
.Ltmp557:
	.loc	5 1369 26 is_stmt 1             @ ../../../Library/StdDriver/src/spi.c:1369:26
	mov	r0, r6
	bl	CLK_GetModuleClockSource
	.loc	5 1369 92 is_stmt 0             @ ../../../Library/StdDriver/src/spi.c:1369:92
	ands	r0, r7
.Ltmp558:
	.loc	5 1369 25                       @ ../../../Library/StdDriver/src/spi.c:1369:25
	cmp	r0, #1
	bne	.LBB14_41
.Ltmp559:
@ %bb.30:
	@DEBUG_VALUE: SPII2S_Open:i2s <- $r4
	@DEBUG_VALUE: SPII2S_Open:u32SampleRate <- [DW_OP_plus_uconst 8] [$sp+0]
	@DEBUG_VALUE: SPII2S_Open:u32Channels <- [DW_OP_plus_uconst 32] [$sp+0]
	@DEBUG_VALUE: SPII2S_Open:u32DataFormat <- [DW_OP_plus_uconst 36] [$sp+0]
	.loc	5 1371 35 is_stmt 1             @ ../../../Library/StdDriver/src/spi.c:1371:35
	bl	CLK_GetPLLClockFreq
	mov	r5, r0
.Ltmp560:
	@DEBUG_VALUE: SPII2S_Open:u32RetValue <- $r5
	.loc	5 1372 17                       @ ../../../Library/StdDriver/src/spi.c:1372:17
	b	.LBB14_18
.Ltmp561:
.LBB14_31:
	@DEBUG_VALUE: SPII2S_Open:u32PCLK0Freq <- $r6
	@DEBUG_VALUE: SPII2S_Open:u32PCLK1Freq <- $r5
	@DEBUG_VALUE: SPII2S_Open:i2s <- $r4
	@DEBUG_VALUE: SPII2S_Open:u32SampleRate <- [DW_OP_plus_uconst 8] [$sp+0]
	@DEBUG_VALUE: SPII2S_Open:u32Channels <- [DW_OP_plus_uconst 32] [$sp+0]
	@DEBUG_VALUE: SPII2S_Open:u32DataFormat <- [DW_OP_plus_uconst 36] [$sp+0]
	.loc	5 0 17 is_stmt 0                @ ../../../Library/StdDriver/src/spi.c:0:17
	ldr	r0, __arm_cp.14_8
.Ltmp562:
	.loc	5 1262 38 is_stmt 1             @ ../../../Library/StdDriver/src/spi.c:1262:38
	ldr	r1, [r0]
	movs	r2, #32
	.loc	5 1262 46 is_stmt 0             @ ../../../Library/StdDriver/src/spi.c:1262:46
	orrs	r2, r1
	movs	r1, #16
	.loc	5 1262 76                       @ ../../../Library/StdDriver/src/spi.c:1262:76
	bics	r2, r1
	.loc	5 1262 30                       @ ../../../Library/StdDriver/src/spi.c:1262:30
	str	r2, [r0]
.Ltmp563:
	@DEBUG_VALUE: SPII2S_Open:u32RetValue <- $r5
	.loc	5 1265 13 is_stmt 1             @ ../../../Library/StdDriver/src/spi.c:1265:13
	b	.LBB14_18
.Ltmp564:
.LBB14_32:
	@DEBUG_VALUE: SPII2S_Open:u32PCLK0Freq <- $r6
	@DEBUG_VALUE: SPII2S_Open:u32PCLK1Freq <- $r5
	@DEBUG_VALUE: SPII2S_Open:i2s <- $r4
	@DEBUG_VALUE: SPII2S_Open:u32SampleRate <- [DW_OP_plus_uconst 8] [$sp+0]
	@DEBUG_VALUE: SPII2S_Open:u32Channels <- [DW_OP_plus_uconst 32] [$sp+0]
	@DEBUG_VALUE: SPII2S_Open:u32DataFormat <- [DW_OP_plus_uconst 36] [$sp+0]
	.loc	5 0 13 is_stmt 0                @ ../../../Library/StdDriver/src/spi.c:0:13
	ldr	r0, __arm_cp.14_8
.Ltmp565:
	.loc	5 1294 38 is_stmt 1             @ ../../../Library/StdDriver/src/spi.c:1294:38
	ldr	r1, [r0]
	movs	r2, #128
	.loc	5 1294 46 is_stmt 0             @ ../../../Library/StdDriver/src/spi.c:1294:46
	orrs	r2, r1
	movs	r1, #64
	.loc	5 1294 76                       @ ../../../Library/StdDriver/src/spi.c:1294:76
	bics	r2, r1
	.loc	5 1294 30                       @ ../../../Library/StdDriver/src/spi.c:1294:30
	str	r2, [r0]
.Ltmp566:
	@DEBUG_VALUE: SPII2S_Open:u32RetValue <- $r6
	.loc	5 0 0                           @ ../../../Library/StdDriver/src/spi.c:0:0
	mov	r5, r6
.Ltmp567:
	@DEBUG_VALUE: SPII2S_Open:u32PCLK0Freq <- $r5
	@DEBUG_VALUE: SPII2S_Open:u32RetValue <- $r5
	.loc	5 1297 13 is_stmt 1             @ ../../../Library/StdDriver/src/spi.c:1297:13
	b	.LBB14_18
.Ltmp568:
.LBB14_33:
	@DEBUG_VALUE: SPII2S_Open:u32PCLK0Freq <- $r6
	@DEBUG_VALUE: SPII2S_Open:u32PCLK1Freq <- $r5
	@DEBUG_VALUE: SPII2S_Open:i2s <- $r4
	@DEBUG_VALUE: SPII2S_Open:u32SampleRate <- [DW_OP_plus_uconst 8] [$sp+0]
	@DEBUG_VALUE: SPII2S_Open:u32Channels <- [DW_OP_plus_uconst 32] [$sp+0]
	@DEBUG_VALUE: SPII2S_Open:u32DataFormat <- [DW_OP_plus_uconst 36] [$sp+0]
	.loc	5 0 13 is_stmt 0                @ ../../../Library/StdDriver/src/spi.c:0:13
	ldr	r0, __arm_cp.14_8
.Ltmp569:
	.loc	5 1326 38 is_stmt 1             @ ../../../Library/StdDriver/src/spi.c:1326:38
	ldr	r1, [r0]
	movw	r2, #3072
	.loc	5 1326 46 is_stmt 0             @ ../../../Library/StdDriver/src/spi.c:1326:46
	bics	r1, r2
	movw	r2, #2048
	.loc	5 1326 76                       @ ../../../Library/StdDriver/src/spi.c:1326:76
	adds	r1, r1, r2
	.loc	5 1326 30                       @ ../../../Library/StdDriver/src/spi.c:1326:30
	str	r1, [r0]
.Ltmp570:
	@DEBUG_VALUE: SPII2S_Open:u32RetValue <- $r5
	.loc	5 1329 13 is_stmt 1             @ ../../../Library/StdDriver/src/spi.c:1329:13
	b	.LBB14_18
.Ltmp571:
.LBB14_34:
	@DEBUG_VALUE: SPII2S_Open:u32PCLK0Freq <- $r6
	@DEBUG_VALUE: SPII2S_Open:u32PCLK1Freq <- $r5
	@DEBUG_VALUE: SPII2S_Open:i2s <- $r4
	@DEBUG_VALUE: SPII2S_Open:u32SampleRate <- [DW_OP_plus_uconst 8] [$sp+0]
	@DEBUG_VALUE: SPII2S_Open:u32Channels <- [DW_OP_plus_uconst 32] [$sp+0]
	@DEBUG_VALUE: SPII2S_Open:u32DataFormat <- [DW_OP_plus_uconst 36] [$sp+0]
	.loc	5 0 13 is_stmt 0                @ ../../../Library/StdDriver/src/spi.c:0:13
	ldr	r0, __arm_cp.14_8
.Ltmp572:
	.loc	5 1358 38 is_stmt 1             @ ../../../Library/StdDriver/src/spi.c:1358:38
	ldr	r1, [r0]
	movw	r2, #12288
	.loc	5 1358 46 is_stmt 0             @ ../../../Library/StdDriver/src/spi.c:1358:46
	bics	r1, r2
	movw	r2, #8192
	.loc	5 1358 76                       @ ../../../Library/StdDriver/src/spi.c:1358:76
	adds	r1, r1, r2
	.loc	5 1358 30                       @ ../../../Library/StdDriver/src/spi.c:1358:30
	str	r1, [r0]
.Ltmp573:
	@DEBUG_VALUE: SPII2S_Open:u32RetValue <- $r6
	.loc	5 0 0                           @ ../../../Library/StdDriver/src/spi.c:0:0
	mov	r5, r6
.Ltmp574:
	@DEBUG_VALUE: SPII2S_Open:u32PCLK0Freq <- $r5
	@DEBUG_VALUE: SPII2S_Open:u32RetValue <- $r5
	.loc	5 1361 13 is_stmt 1             @ ../../../Library/StdDriver/src/spi.c:1361:13
	b	.LBB14_18
.Ltmp575:
.LBB14_35:
	@DEBUG_VALUE: SPII2S_Open:i2s <- $r4
	@DEBUG_VALUE: SPII2S_Open:u32SampleRate <- [DW_OP_plus_uconst 8] [$sp+0]
	@DEBUG_VALUE: SPII2S_Open:u32Channels <- [DW_OP_plus_uconst 32] [$sp+0]
	@DEBUG_VALUE: SPII2S_Open:u32DataFormat <- [DW_OP_plus_uconst 36] [$sp+0]
	.loc	5 1277 26                       @ ../../../Library/StdDriver/src/spi.c:1277:26
	mov	r0, r6
	bl	CLK_GetModuleClockSource
	.loc	5 1277 92 is_stmt 0             @ ../../../Library/StdDriver/src/spi.c:1277:92
	ands	r0, r7
.Ltmp576:
	.loc	5 1277 25                       @ ../../../Library/StdDriver/src/spi.c:1277:25
	cmp	r0, #2
	bne	.LBB14_18
.Ltmp577:
@ %bb.36:
	@DEBUG_VALUE: SPII2S_Open:i2s <- $r4
	@DEBUG_VALUE: SPII2S_Open:u32SampleRate <- [DW_OP_plus_uconst 8] [$sp+0]
	@DEBUG_VALUE: SPII2S_Open:u32Channels <- [DW_OP_plus_uconst 32] [$sp+0]
	@DEBUG_VALUE: SPII2S_Open:u32DataFormat <- [DW_OP_plus_uconst 36] [$sp+0]
	.loc	5 1279 35 is_stmt 1             @ ../../../Library/StdDriver/src/spi.c:1279:35
	bl	CLK_GetPCLK1Freq
	mov	r5, r0
.Ltmp578:
	@DEBUG_VALUE: SPII2S_Open:u32RetValue <- $r5
	.loc	5 1280 17                       @ ../../../Library/StdDriver/src/spi.c:1280:17
	b	.LBB14_18
.Ltmp579:
.LBB14_37:
	@DEBUG_VALUE: SPII2S_Open:i2s <- $r4
	@DEBUG_VALUE: SPII2S_Open:u32SampleRate <- [DW_OP_plus_uconst 8] [$sp+0]
	@DEBUG_VALUE: SPII2S_Open:u32Channels <- [DW_OP_plus_uconst 32] [$sp+0]
	@DEBUG_VALUE: SPII2S_Open:u32DataFormat <- [DW_OP_plus_uconst 36] [$sp+0]
	.loc	5 1309 26                       @ ../../../Library/StdDriver/src/spi.c:1309:26
	mov	r0, r6
	bl	CLK_GetModuleClockSource
	.loc	5 1309 92 is_stmt 0             @ ../../../Library/StdDriver/src/spi.c:1309:92
	ands	r0, r7
.Ltmp580:
	.loc	5 1309 25                       @ ../../../Library/StdDriver/src/spi.c:1309:25
	cmp	r0, #2
	beq	.LBB14_38
	b	.LBB14_18
.Ltmp581:
.LBB14_38:
	@DEBUG_VALUE: SPII2S_Open:i2s <- $r4
	@DEBUG_VALUE: SPII2S_Open:u32SampleRate <- [DW_OP_plus_uconst 8] [$sp+0]
	@DEBUG_VALUE: SPII2S_Open:u32Channels <- [DW_OP_plus_uconst 32] [$sp+0]
	@DEBUG_VALUE: SPII2S_Open:u32DataFormat <- [DW_OP_plus_uconst 36] [$sp+0]
	.loc	5 1311 35 is_stmt 1             @ ../../../Library/StdDriver/src/spi.c:1311:35
	bl	CLK_GetPCLK0Freq
	mov	r5, r0
.Ltmp582:
	@DEBUG_VALUE: SPII2S_Open:u32RetValue <- $r5
	.loc	5 1312 17                       @ ../../../Library/StdDriver/src/spi.c:1312:17
	b	.LBB14_18
.Ltmp583:
.LBB14_39:
	@DEBUG_VALUE: SPII2S_Open:i2s <- $r4
	@DEBUG_VALUE: SPII2S_Open:u32SampleRate <- [DW_OP_plus_uconst 8] [$sp+0]
	@DEBUG_VALUE: SPII2S_Open:u32Channels <- [DW_OP_plus_uconst 32] [$sp+0]
	@DEBUG_VALUE: SPII2S_Open:u32DataFormat <- [DW_OP_plus_uconst 36] [$sp+0]
	.loc	5 1341 26                       @ ../../../Library/StdDriver/src/spi.c:1341:26
	mov	r0, r6
	bl	CLK_GetModuleClockSource
	.loc	5 1341 92 is_stmt 0             @ ../../../Library/StdDriver/src/spi.c:1341:92
	ands	r0, r7
.Ltmp584:
	.loc	5 1341 25                       @ ../../../Library/StdDriver/src/spi.c:1341:25
	cmp	r0, #2
	beq	.LBB14_40
	b	.LBB14_18
.Ltmp585:
.LBB14_40:
	@DEBUG_VALUE: SPII2S_Open:i2s <- $r4
	@DEBUG_VALUE: SPII2S_Open:u32SampleRate <- [DW_OP_plus_uconst 8] [$sp+0]
	@DEBUG_VALUE: SPII2S_Open:u32Channels <- [DW_OP_plus_uconst 32] [$sp+0]
	@DEBUG_VALUE: SPII2S_Open:u32DataFormat <- [DW_OP_plus_uconst 36] [$sp+0]
	.loc	5 1343 35 is_stmt 1             @ ../../../Library/StdDriver/src/spi.c:1343:35
	bl	CLK_GetPCLK1Freq
	mov	r5, r0
.Ltmp586:
	@DEBUG_VALUE: SPII2S_Open:u32RetValue <- $r5
	.loc	5 1344 17                       @ ../../../Library/StdDriver/src/spi.c:1344:17
	b	.LBB14_18
.Ltmp587:
.LBB14_41:
	@DEBUG_VALUE: SPII2S_Open:i2s <- $r4
	@DEBUG_VALUE: SPII2S_Open:u32SampleRate <- [DW_OP_plus_uconst 8] [$sp+0]
	@DEBUG_VALUE: SPII2S_Open:u32Channels <- [DW_OP_plus_uconst 32] [$sp+0]
	@DEBUG_VALUE: SPII2S_Open:u32DataFormat <- [DW_OP_plus_uconst 36] [$sp+0]
	.loc	5 1373 26                       @ ../../../Library/StdDriver/src/spi.c:1373:26
	mov	r0, r6
	bl	CLK_GetModuleClockSource
	.loc	5 1373 92 is_stmt 0             @ ../../../Library/StdDriver/src/spi.c:1373:92
	ands	r0, r7
.Ltmp588:
	.loc	5 1373 25                       @ ../../../Library/StdDriver/src/spi.c:1373:25
	cmp	r0, #2
	beq	.LBB14_42
	b	.LBB14_18
.Ltmp589:
.LBB14_42:
	@DEBUG_VALUE: SPII2S_Open:i2s <- $r4
	@DEBUG_VALUE: SPII2S_Open:u32SampleRate <- [DW_OP_plus_uconst 8] [$sp+0]
	@DEBUG_VALUE: SPII2S_Open:u32Channels <- [DW_OP_plus_uconst 32] [$sp+0]
	@DEBUG_VALUE: SPII2S_Open:u32DataFormat <- [DW_OP_plus_uconst 36] [$sp+0]
	.loc	5 1375 35 is_stmt 1             @ ../../../Library/StdDriver/src/spi.c:1375:35
	bl	CLK_GetPCLK0Freq
	mov	r5, r0
.Ltmp590:
	@DEBUG_VALUE: SPII2S_Open:u32RetValue <- $r5
	.loc	5 0 35 is_stmt 0                @ ../../../Library/StdDriver/src/spi.c:0:35
	b	.LBB14_18
.Ltmp591:
	.p2align	2
@ %bb.43:
__arm_cp.14_0:
	.long	1342578688                      @ 0x50062000
.Lcpi_end43:
	.size	__arm_cp.14_0, .Lcpi_end43-__arm_cp.14_0
__arm_cp.14_1:
	.long	1074147328                      @ 0x40063000
.Lcpi_end44:
	.size	__arm_cp.14_1, .Lcpi_end44-__arm_cp.14_1
__arm_cp.14_2:
	.long	1074139136                      @ 0x40061000
.Lcpi_end45:
	.size	__arm_cp.14_2, .Lcpi_end45-__arm_cp.14_2
__arm_cp.14_3:
	.long	1073741836                      @ 0x4000000c
.Lcpi_end46:
	.size	__arm_cp.14_3, .Lcpi_end46-__arm_cp.14_3
__arm_cp.14_4:
	.long	4294705407                      @ 0xfffc00ff
.Lcpi_end47:
	.size	__arm_cp.14_4, .Lcpi_end47-__arm_cp.14_4
__arm_cp.14_5:
	.long	1721761807                      @ 0x66a0000f
.Lcpi_end48:
	.size	__arm_cp.14_5, .Lcpi_end48-__arm_cp.14_5
__arm_cp.14_6:
	.long	4194303                         @ 0x3fffff
.Lcpi_end49:
	.size	__arm_cp.14_6, .Lcpi_end49-__arm_cp.14_6
__arm_cp.14_7:
	.long	12000000                        @ 0xb71b00
.Lcpi_end50:
	.size	__arm_cp.14_7, .Lcpi_end50-__arm_cp.14_7
__arm_cp.14_8:
	.long	1073742360                      @ 0x40000218
.Lcpi_end51:
	.size	__arm_cp.14_8, .Lcpi_end51-__arm_cp.14_8
__arm_cp.14_9:
	.long	1717567502                      @ 0x6660000e
.Lcpi_end52:
	.size	__arm_cp.14_9, .Lcpi_end52-__arm_cp.14_9
__arm_cp.14_10:
	.long	67108863                        @ 0x3ffffff
.Lcpi_end53:
	.size	__arm_cp.14_10, .Lcpi_end53-__arm_cp.14_10
__arm_cp.14_11:
	.long	1715470349                      @ 0x6640000d
.Lcpi_end54:
	.size	__arm_cp.14_11, .Lcpi_end54-__arm_cp.14_11
__arm_cp.14_12:
	.long	2797600774                      @ 0xa6c00006
.Lcpi_end55:
	.size	__arm_cp.14_12, .Lcpi_end55-__arm_cp.14_12
__arm_cp.14_13:
	.long	1048575                         @ 0xfffff
.Lcpi_end56:
	.size	__arm_cp.14_13, .Lcpi_end56-__arm_cp.14_13
.Lfunc_end14:
	.size	SPII2S_Open, .Lfunc_end14-SPII2S_Open
	.cfi_endproc
	.cantunwind
	.fnend
                                        @ -- End function
	.section	.text.SPII2S_GetSourceClockFreq,"ax",%progbits
	.p2align	2                               @ -- Begin function SPII2S_GetSourceClockFreq
	.type	SPII2S_GetSourceClockFreq,%function
	.code	16                              @ @SPII2S_GetSourceClockFreq
	.thumb_func
SPII2S_GetSourceClockFreq:
.Lfunc_begin15:
	.loc	5 1080 0 is_stmt 1              @ ../../../Library/StdDriver/src/spi.c:1080:0
	.fnstart
	.cfi_startproc
@ %bb.0:
	@DEBUG_VALUE: SPII2S_GetSourceClockFreq:i2s <- $r0
	.save	{r4, r5, r6, lr}
	push	{r4, r5, r6, lr}
	.cfi_def_cfa_offset 16
	.cfi_offset lr, -4
	.cfi_offset r6, -8
	.cfi_offset r5, -12
	.cfi_offset r4, -16
	ldr	r4, __arm_cp.15_0
	ldr	r1, __arm_cp.15_1
	@DEBUG_VALUE: SPII2S_GetSourceClockFreq:i2s <- $r0
.Ltmp592:
	.loc	5 1083 8 prologue_end           @ ../../../Library/StdDriver/src/spi.c:1083:8
	cmp	r0, r1
	beq	.LBB15_6
.Ltmp593:
@ %bb.1:
	@DEBUG_VALUE: SPII2S_GetSourceClockFreq:i2s <- $r0
	.loc	5 0 8 is_stmt 0                 @ ../../../Library/StdDriver/src/spi.c:0:8
	ldr	r1, __arm_cp.15_2
	.loc	5 1083 8                        @ ../../../Library/StdDriver/src/spi.c:1083:8
	cmp	r0, r1
	beq	.LBB15_9
.Ltmp594:
@ %bb.2:
	@DEBUG_VALUE: SPII2S_GetSourceClockFreq:i2s <- $r0
	.loc	5 0 8                           @ ../../../Library/StdDriver/src/spi.c:0:8
	ldr	r1, __arm_cp.15_3
	.loc	5 1083 8                        @ ../../../Library/StdDriver/src/spi.c:1083:8
	cmp	r0, r1
	bne	.LBB15_12
.Ltmp595:
@ %bb.3:
	@DEBUG_VALUE: SPII2S_GetSourceClockFreq:i2s <- $r0
	.loc	5 0 8                           @ ../../../Library/StdDriver/src/spi.c:0:8
	ldr	r5, __arm_cp.15_8
.Ltmp596:
	.loc	5 1085 13 is_stmt 1             @ ../../../Library/StdDriver/src/spi.c:1085:13
	mov	r0, r5
.Ltmp597:
	@DEBUG_VALUE: SPII2S_GetSourceClockFreq:i2s <- [DW_OP_LLVM_entry_value 1] $r0
	bl	CLK_GetModuleClockSource
.Ltmp598:
	.loc	5 1085 12 is_stmt 0             @ ../../../Library/StdDriver/src/spi.c:1085:12
	lsls	r0, r0, #4
	beq	.LBB15_23
.Ltmp599:
@ %bb.4:
	@DEBUG_VALUE: SPII2S_GetSourceClockFreq:i2s <- [DW_OP_LLVM_entry_value 1] $r0
	.loc	5 0 12                          @ ../../../Library/StdDriver/src/spi.c:0:12
	ldr	r6, __arm_cp.15_9
.Ltmp600:
	.loc	5 1089 18 is_stmt 1             @ ../../../Library/StdDriver/src/spi.c:1089:18
	mov	r0, r5
	bl	CLK_GetModuleClockSource
	.loc	5 1089 84 is_stmt 0             @ ../../../Library/StdDriver/src/spi.c:1089:84
	ands	r0, r6
.Ltmp601:
	.loc	5 1089 17                       @ ../../../Library/StdDriver/src/spi.c:1089:17
	cmp	r0, #1
	bne	.LBB15_15
.Ltmp602:
@ %bb.5:
	@DEBUG_VALUE: SPII2S_GetSourceClockFreq:i2s <- [DW_OP_LLVM_entry_value 1] $r0
	.loc	5 1091 23 is_stmt 1             @ ../../../Library/StdDriver/src/spi.c:1091:23
	bl	CLK_GetPLLClockFreq
.Ltmp603:
	@DEBUG_VALUE: SPII2S_GetSourceClockFreq:u32Freq <- $r0
	@DEBUG_VALUE: SPII2S_GetSourceClockFreq:u32Freq <- $r0
	.loc	5 1160 5                        @ ../../../Library/StdDriver/src/spi.c:1160:5
	pop	{r4, r5, r6, pc}
.Ltmp604:
.LBB15_6:
	@DEBUG_VALUE: SPII2S_GetSourceClockFreq:i2s <- $r0
	.loc	5 0 5 is_stmt 0                 @ ../../../Library/StdDriver/src/spi.c:0:5
	ldr	r5, __arm_cp.15_6
.Ltmp605:
	.loc	5 1104 13 is_stmt 1             @ ../../../Library/StdDriver/src/spi.c:1104:13
	mov	r0, r5
.Ltmp606:
	@DEBUG_VALUE: SPII2S_GetSourceClockFreq:i2s <- [DW_OP_LLVM_entry_value 1] $r0
	bl	CLK_GetModuleClockSource
.Ltmp607:
	.loc	5 1104 12 is_stmt 0             @ ../../../Library/StdDriver/src/spi.c:1104:12
	lsls	r0, r0, #6
	beq	.LBB15_23
.Ltmp608:
@ %bb.7:
	@DEBUG_VALUE: SPII2S_GetSourceClockFreq:i2s <- [DW_OP_LLVM_entry_value 1] $r0
	.loc	5 0 12                          @ ../../../Library/StdDriver/src/spi.c:0:12
	ldr	r6, __arm_cp.15_7
.Ltmp609:
	.loc	5 1108 18 is_stmt 1             @ ../../../Library/StdDriver/src/spi.c:1108:18
	mov	r0, r5
	bl	CLK_GetModuleClockSource
	.loc	5 1108 84 is_stmt 0             @ ../../../Library/StdDriver/src/spi.c:1108:84
	ands	r0, r6
.Ltmp610:
	.loc	5 1108 17                       @ ../../../Library/StdDriver/src/spi.c:1108:17
	cmp	r0, #1
	bne	.LBB15_17
.Ltmp611:
@ %bb.8:
	@DEBUG_VALUE: SPII2S_GetSourceClockFreq:i2s <- [DW_OP_LLVM_entry_value 1] $r0
	.loc	5 1110 23 is_stmt 1             @ ../../../Library/StdDriver/src/spi.c:1110:23
	bl	CLK_GetPLLClockFreq
.Ltmp612:
	@DEBUG_VALUE: SPII2S_GetSourceClockFreq:u32Freq <- $r0
	@DEBUG_VALUE: SPII2S_GetSourceClockFreq:u32Freq <- $r0
	.loc	5 1160 5                        @ ../../../Library/StdDriver/src/spi.c:1160:5
	pop	{r4, r5, r6, pc}
.Ltmp613:
.LBB15_9:
	@DEBUG_VALUE: SPII2S_GetSourceClockFreq:i2s <- $r0
	.loc	5 0 5 is_stmt 0                 @ ../../../Library/StdDriver/src/spi.c:0:5
	ldr	r5, __arm_cp.15_4
.Ltmp614:
	.loc	5 1123 13 is_stmt 1             @ ../../../Library/StdDriver/src/spi.c:1123:13
	mov	r0, r5
.Ltmp615:
	@DEBUG_VALUE: SPII2S_GetSourceClockFreq:i2s <- [DW_OP_LLVM_entry_value 1] $r0
	bl	CLK_GetModuleClockSource
.Ltmp616:
	.loc	5 1123 12 is_stmt 0             @ ../../../Library/StdDriver/src/spi.c:1123:12
	lsls	r0, r0, #10
	beq	.LBB15_23
.Ltmp617:
@ %bb.10:
	@DEBUG_VALUE: SPII2S_GetSourceClockFreq:i2s <- [DW_OP_LLVM_entry_value 1] $r0
	.loc	5 0 12                          @ ../../../Library/StdDriver/src/spi.c:0:12
	ldr	r6, __arm_cp.15_5
.Ltmp618:
	.loc	5 1127 18 is_stmt 1             @ ../../../Library/StdDriver/src/spi.c:1127:18
	mov	r0, r5
	bl	CLK_GetModuleClockSource
	.loc	5 1127 84 is_stmt 0             @ ../../../Library/StdDriver/src/spi.c:1127:84
	ands	r0, r6
.Ltmp619:
	.loc	5 1127 17                       @ ../../../Library/StdDriver/src/spi.c:1127:17
	cmp	r0, #1
	bne	.LBB15_19
.Ltmp620:
@ %bb.11:
	@DEBUG_VALUE: SPII2S_GetSourceClockFreq:i2s <- [DW_OP_LLVM_entry_value 1] $r0
	.loc	5 1129 23 is_stmt 1             @ ../../../Library/StdDriver/src/spi.c:1129:23
	bl	CLK_GetPLLClockFreq
.Ltmp621:
	@DEBUG_VALUE: SPII2S_GetSourceClockFreq:u32Freq <- $r0
	@DEBUG_VALUE: SPII2S_GetSourceClockFreq:u32Freq <- $r0
	.loc	5 1160 5                        @ ../../../Library/StdDriver/src/spi.c:1160:5
	pop	{r4, r5, r6, pc}
.Ltmp622:
.LBB15_12:
	@DEBUG_VALUE: SPII2S_GetSourceClockFreq:i2s <- $r0
	.loc	5 0 5 is_stmt 0                 @ ../../../Library/StdDriver/src/spi.c:0:5
	ldr	r5, __arm_cp.15_10
.Ltmp623:
	.loc	5 1142 13 is_stmt 1             @ ../../../Library/StdDriver/src/spi.c:1142:13
	mov	r0, r5
.Ltmp624:
	@DEBUG_VALUE: SPII2S_GetSourceClockFreq:i2s <- [DW_OP_LLVM_entry_value 1] $r0
	bl	CLK_GetModuleClockSource
.Ltmp625:
	.loc	5 1142 12 is_stmt 0             @ ../../../Library/StdDriver/src/spi.c:1142:12
	lsls	r0, r0, #12
	beq	.LBB15_23
.Ltmp626:
@ %bb.13:
	@DEBUG_VALUE: SPII2S_GetSourceClockFreq:i2s <- [DW_OP_LLVM_entry_value 1] $r0
	.loc	5 0 12                          @ ../../../Library/StdDriver/src/spi.c:0:12
	ldr	r6, __arm_cp.15_11
.Ltmp627:
	.loc	5 1146 18 is_stmt 1             @ ../../../Library/StdDriver/src/spi.c:1146:18
	mov	r0, r5
	bl	CLK_GetModuleClockSource
	.loc	5 1146 84 is_stmt 0             @ ../../../Library/StdDriver/src/spi.c:1146:84
	ands	r0, r6
.Ltmp628:
	.loc	5 1146 17                       @ ../../../Library/StdDriver/src/spi.c:1146:17
	cmp	r0, #1
	bne	.LBB15_21
.Ltmp629:
@ %bb.14:
	@DEBUG_VALUE: SPII2S_GetSourceClockFreq:i2s <- [DW_OP_LLVM_entry_value 1] $r0
	.loc	5 1148 23 is_stmt 1             @ ../../../Library/StdDriver/src/spi.c:1148:23
	bl	CLK_GetPLLClockFreq
.Ltmp630:
	@DEBUG_VALUE: SPII2S_GetSourceClockFreq:u32Freq <- $r0
	@DEBUG_VALUE: SPII2S_GetSourceClockFreq:u32Freq <- $r0
	.loc	5 1160 5                        @ ../../../Library/StdDriver/src/spi.c:1160:5
	pop	{r4, r5, r6, pc}
.Ltmp631:
.LBB15_15:
	@DEBUG_VALUE: SPII2S_GetSourceClockFreq:i2s <- [DW_OP_LLVM_entry_value 1] $r0
	.loc	5 1093 18                       @ ../../../Library/StdDriver/src/spi.c:1093:18
	mov	r0, r5
	bl	CLK_GetModuleClockSource
	.loc	5 1093 84 is_stmt 0             @ ../../../Library/StdDriver/src/spi.c:1093:84
	ands	r0, r6
.Ltmp632:
	.loc	5 1093 17                       @ ../../../Library/StdDriver/src/spi.c:1093:17
	cmp	r0, #2
	bne	.LBB15_23
.Ltmp633:
@ %bb.16:
	@DEBUG_VALUE: SPII2S_GetSourceClockFreq:i2s <- [DW_OP_LLVM_entry_value 1] $r0
	.loc	5 1095 23 is_stmt 1             @ ../../../Library/StdDriver/src/spi.c:1095:23
	bl	CLK_GetPCLK1Freq
.Ltmp634:
	@DEBUG_VALUE: SPII2S_GetSourceClockFreq:u32Freq <- $r0
	@DEBUG_VALUE: SPII2S_GetSourceClockFreq:u32Freq <- $r0
	.loc	5 1160 5                        @ ../../../Library/StdDriver/src/spi.c:1160:5
	pop	{r4, r5, r6, pc}
.Ltmp635:
.LBB15_17:
	@DEBUG_VALUE: SPII2S_GetSourceClockFreq:i2s <- [DW_OP_LLVM_entry_value 1] $r0
	.loc	5 1112 18                       @ ../../../Library/StdDriver/src/spi.c:1112:18
	mov	r0, r5
	bl	CLK_GetModuleClockSource
	.loc	5 1112 84 is_stmt 0             @ ../../../Library/StdDriver/src/spi.c:1112:84
	ands	r0, r6
.Ltmp636:
	.loc	5 1112 17                       @ ../../../Library/StdDriver/src/spi.c:1112:17
	cmp	r0, #2
	bne	.LBB15_23
.Ltmp637:
@ %bb.18:
	@DEBUG_VALUE: SPII2S_GetSourceClockFreq:i2s <- [DW_OP_LLVM_entry_value 1] $r0
	.loc	5 1114 23 is_stmt 1             @ ../../../Library/StdDriver/src/spi.c:1114:23
	bl	CLK_GetPCLK0Freq
.Ltmp638:
	@DEBUG_VALUE: SPII2S_GetSourceClockFreq:u32Freq <- $r0
	@DEBUG_VALUE: SPII2S_GetSourceClockFreq:u32Freq <- $r0
	.loc	5 1160 5                        @ ../../../Library/StdDriver/src/spi.c:1160:5
	pop	{r4, r5, r6, pc}
.Ltmp639:
.LBB15_19:
	@DEBUG_VALUE: SPII2S_GetSourceClockFreq:i2s <- [DW_OP_LLVM_entry_value 1] $r0
	.loc	5 1131 18                       @ ../../../Library/StdDriver/src/spi.c:1131:18
	mov	r0, r5
	bl	CLK_GetModuleClockSource
	.loc	5 1131 84 is_stmt 0             @ ../../../Library/StdDriver/src/spi.c:1131:84
	ands	r0, r6
.Ltmp640:
	.loc	5 1131 17                       @ ../../../Library/StdDriver/src/spi.c:1131:17
	cmp	r0, #2
	bne	.LBB15_23
.Ltmp641:
@ %bb.20:
	@DEBUG_VALUE: SPII2S_GetSourceClockFreq:i2s <- [DW_OP_LLVM_entry_value 1] $r0
	.loc	5 1133 23 is_stmt 1             @ ../../../Library/StdDriver/src/spi.c:1133:23
	bl	CLK_GetPCLK1Freq
.Ltmp642:
	@DEBUG_VALUE: SPII2S_GetSourceClockFreq:u32Freq <- $r0
	@DEBUG_VALUE: SPII2S_GetSourceClockFreq:u32Freq <- $r0
	.loc	5 1160 5                        @ ../../../Library/StdDriver/src/spi.c:1160:5
	pop	{r4, r5, r6, pc}
.Ltmp643:
.LBB15_21:
	@DEBUG_VALUE: SPII2S_GetSourceClockFreq:i2s <- [DW_OP_LLVM_entry_value 1] $r0
	.loc	5 1150 18                       @ ../../../Library/StdDriver/src/spi.c:1150:18
	mov	r0, r5
	bl	CLK_GetModuleClockSource
	.loc	5 1150 84 is_stmt 0             @ ../../../Library/StdDriver/src/spi.c:1150:84
	ands	r0, r6
.Ltmp644:
	.loc	5 1150 17                       @ ../../../Library/StdDriver/src/spi.c:1150:17
	cmp	r0, #2
	bne	.LBB15_23
.Ltmp645:
@ %bb.22:
	@DEBUG_VALUE: SPII2S_GetSourceClockFreq:i2s <- [DW_OP_LLVM_entry_value 1] $r0
	.loc	5 1152 23 is_stmt 1             @ ../../../Library/StdDriver/src/spi.c:1152:23
	bl	CLK_GetPCLK0Freq
	mov	r4, r0
.Ltmp646:
	@DEBUG_VALUE: SPII2S_GetSourceClockFreq:u32Freq <- $r4
.LBB15_23:
	@DEBUG_VALUE: SPII2S_GetSourceClockFreq:i2s <- [DW_OP_LLVM_entry_value 1] $r0
	@DEBUG_VALUE: SPII2S_GetSourceClockFreq:u32Freq <- $r4
	.loc	5 1160 5                        @ ../../../Library/StdDriver/src/spi.c:1160:5
	mov	r0, r4
	pop	{r4, r5, r6, pc}
.Ltmp647:
	.p2align	2
@ %bb.24:
	.loc	5 0 5 is_stmt 0                 @ ../../../Library/StdDriver/src/spi.c:0:5
__arm_cp.15_0:
	.long	12000000                        @ 0xb71b00
.Lcpi_end57:
	.size	__arm_cp.15_0, .Lcpi_end57-__arm_cp.15_0
__arm_cp.15_1:
	.long	1342578688                      @ 0x50062000
.Lcpi_end58:
	.size	__arm_cp.15_1, .Lcpi_end58-__arm_cp.15_1
__arm_cp.15_2:
	.long	1074147328                      @ 0x40063000
.Lcpi_end59:
	.size	__arm_cp.15_2, .Lcpi_end59-__arm_cp.15_2
__arm_cp.15_3:
	.long	1074139136                      @ 0x40061000
.Lcpi_end60:
	.size	__arm_cp.15_3, .Lcpi_end60-__arm_cp.15_3
__arm_cp.15_4:
	.long	1721761807                      @ 0x66a0000f
.Lcpi_end61:
	.size	__arm_cp.15_4, .Lcpi_end61-__arm_cp.15_4
__arm_cp.15_5:
	.long	4194303                         @ 0x3fffff
.Lcpi_end62:
	.size	__arm_cp.15_5, .Lcpi_end62-__arm_cp.15_5
__arm_cp.15_6:
	.long	1717567502                      @ 0x6660000e
.Lcpi_end63:
	.size	__arm_cp.15_6, .Lcpi_end63-__arm_cp.15_6
__arm_cp.15_7:
	.long	67108863                        @ 0x3ffffff
.Lcpi_end64:
	.size	__arm_cp.15_7, .Lcpi_end64-__arm_cp.15_7
__arm_cp.15_8:
	.long	1715470349                      @ 0x6640000d
.Lcpi_end65:
	.size	__arm_cp.15_8, .Lcpi_end65-__arm_cp.15_8
__arm_cp.15_9:
	.long	268435455                       @ 0xfffffff
.Lcpi_end66:
	.size	__arm_cp.15_9, .Lcpi_end66-__arm_cp.15_9
__arm_cp.15_10:
	.long	2797600774                      @ 0xa6c00006
.Lcpi_end67:
	.size	__arm_cp.15_10, .Lcpi_end67-__arm_cp.15_10
__arm_cp.15_11:
	.long	1048575                         @ 0xfffff
.Lcpi_end68:
	.size	__arm_cp.15_11, .Lcpi_end68-__arm_cp.15_11
.Lfunc_end15:
	.size	SPII2S_GetSourceClockFreq, .Lfunc_end15-SPII2S_GetSourceClockFreq
	.cfi_endproc
	.cantunwind
	.fnend
                                        @ -- End function
	.section	.text.SPII2S_Close,"ax",%progbits
	.hidden	SPII2S_Close                    @ -- Begin function SPII2S_Close
	.globl	SPII2S_Close
	.p2align	1
	.type	SPII2S_Close,%function
	.code	16                              @ @SPII2S_Close
	.thumb_func
SPII2S_Close:
.Lfunc_begin16:
	.loc	5 1397 0 is_stmt 1              @ ../../../Library/StdDriver/src/spi.c:1397:0
	.fnstart
	.cfi_startproc
@ %bb.0:
	@DEBUG_VALUE: SPII2S_Close:i2s <- $r0
	@DEBUG_VALUE: SPII2S_Close:i2s <- $r0
	.loc	5 1398 17 prologue_end          @ ../../../Library/StdDriver/src/spi.c:1398:17
	ldr	r1, [r0, #96]
	movs	r2, #1
	bics	r1, r2
	str	r1, [r0, #96]
	.loc	5 1399 1                        @ ../../../Library/StdDriver/src/spi.c:1399:1
	bx	lr
.Ltmp648:
.Lfunc_end16:
	.size	SPII2S_Close, .Lfunc_end16-SPII2S_Close
	.cfi_endproc
	.cantunwind
	.fnend
                                        @ -- End function
	.section	.text.SPII2S_EnableInt,"ax",%progbits
	.hidden	SPII2S_EnableInt                @ -- Begin function SPII2S_EnableInt
	.globl	SPII2S_EnableInt
	.p2align	1
	.type	SPII2S_EnableInt,%function
	.code	16                              @ @SPII2S_EnableInt
	.thumb_func
SPII2S_EnableInt:
.Lfunc_begin17:
	.loc	5 1417 0                        @ ../../../Library/StdDriver/src/spi.c:1417:0
	.fnstart
	.cfi_startproc
@ %bb.0:
	@DEBUG_VALUE: SPII2S_EnableInt:i2s <- $r0
	@DEBUG_VALUE: SPII2S_EnableInt:i2s <- $r0
	@DEBUG_VALUE: SPII2S_EnableInt:u32Mask <- $r1
	@DEBUG_VALUE: SPII2S_EnableInt:u32Mask <- $r1
	.loc	5 1419 8 prologue_end           @ ../../../Library/StdDriver/src/spi.c:1419:8
	lsls	r2, r1, #31
	bne	.LBB17_8
.Ltmp649:
@ %bb.1:
	@DEBUG_VALUE: SPII2S_EnableInt:u32Mask <- $r1
	@DEBUG_VALUE: SPII2S_EnableInt:i2s <- $r0
	.loc	5 1425 8                        @ ../../../Library/StdDriver/src/spi.c:1425:8
	lsls	r2, r1, #30
	bmi	.LBB17_9
.Ltmp650:
.LBB17_2:
	@DEBUG_VALUE: SPII2S_EnableInt:u32Mask <- $r1
	@DEBUG_VALUE: SPII2S_EnableInt:i2s <- $r0
	.loc	5 1431 8                        @ ../../../Library/StdDriver/src/spi.c:1431:8
	lsls	r2, r1, #29
	bmi	.LBB17_10
.Ltmp651:
.LBB17_3:
	@DEBUG_VALUE: SPII2S_EnableInt:u32Mask <- $r1
	@DEBUG_VALUE: SPII2S_EnableInt:i2s <- $r0
	.loc	5 1437 8                        @ ../../../Library/StdDriver/src/spi.c:1437:8
	lsls	r2, r1, #28
	bmi	.LBB17_11
.Ltmp652:
.LBB17_4:
	@DEBUG_VALUE: SPII2S_EnableInt:u32Mask <- $r1
	@DEBUG_VALUE: SPII2S_EnableInt:i2s <- $r0
	.loc	5 1443 8                        @ ../../../Library/StdDriver/src/spi.c:1443:8
	lsls	r2, r1, #27
	bmi	.LBB17_12
.Ltmp653:
.LBB17_5:
	@DEBUG_VALUE: SPII2S_EnableInt:u32Mask <- $r1
	@DEBUG_VALUE: SPII2S_EnableInt:i2s <- $r0
	.loc	5 1449 8                        @ ../../../Library/StdDriver/src/spi.c:1449:8
	lsls	r2, r1, #26
	bmi	.LBB17_13
.Ltmp654:
.LBB17_6:
	@DEBUG_VALUE: SPII2S_EnableInt:u32Mask <- $r1
	@DEBUG_VALUE: SPII2S_EnableInt:i2s <- $r0
	.loc	5 1455 8                        @ ../../../Library/StdDriver/src/spi.c:1455:8
	lsls	r1, r1, #25
.Ltmp655:
	@DEBUG_VALUE: SPII2S_EnableInt:u32Mask <- [DW_OP_LLVM_entry_value 1] $r1
	bmi	.LBB17_14
.Ltmp656:
.LBB17_7:
	@DEBUG_VALUE: SPII2S_EnableInt:i2s <- $r0
	@DEBUG_VALUE: SPII2S_EnableInt:u32Mask <- [DW_OP_LLVM_entry_value 1] $r1
	.loc	5 1459 1                        @ ../../../Library/StdDriver/src/spi.c:1459:1
	bx	lr
.Ltmp657:
.LBB17_8:
	@DEBUG_VALUE: SPII2S_EnableInt:u32Mask <- $r1
	@DEBUG_VALUE: SPII2S_EnableInt:i2s <- $r0
	.loc	5 1421 22                       @ ../../../Library/StdDriver/src/spi.c:1421:22
	ldr	r2, [r0, #16]
	movs	r3, #8
	orrs	r3, r2
	str	r3, [r0, #16]
.Ltmp658:
	.loc	5 1425 8                        @ ../../../Library/StdDriver/src/spi.c:1425:8
	lsls	r2, r1, #30
	bpl	.LBB17_2
.Ltmp659:
.LBB17_9:
	@DEBUG_VALUE: SPII2S_EnableInt:u32Mask <- $r1
	@DEBUG_VALUE: SPII2S_EnableInt:i2s <- $r0
	.loc	5 1427 22                       @ ../../../Library/StdDriver/src/spi.c:1427:22
	ldr	r2, [r0, #16]
	movs	r3, #4
	orrs	r3, r2
	str	r3, [r0, #16]
.Ltmp660:
	.loc	5 1431 8                        @ ../../../Library/StdDriver/src/spi.c:1431:8
	lsls	r2, r1, #29
	bpl	.LBB17_3
.Ltmp661:
.LBB17_10:
	@DEBUG_VALUE: SPII2S_EnableInt:u32Mask <- $r1
	@DEBUG_VALUE: SPII2S_EnableInt:i2s <- $r0
	.loc	5 1433 22                       @ ../../../Library/StdDriver/src/spi.c:1433:22
	ldr	r2, [r0, #16]
	movs	r3, #32
	orrs	r3, r2
	str	r3, [r0, #16]
.Ltmp662:
	.loc	5 1437 8                        @ ../../../Library/StdDriver/src/spi.c:1437:8
	lsls	r2, r1, #28
	bpl	.LBB17_4
.Ltmp663:
.LBB17_11:
	@DEBUG_VALUE: SPII2S_EnableInt:u32Mask <- $r1
	@DEBUG_VALUE: SPII2S_EnableInt:i2s <- $r0
	.loc	5 1439 22                       @ ../../../Library/StdDriver/src/spi.c:1439:22
	ldr	r2, [r0, #16]
	movs	r3, #16
	orrs	r3, r2
	str	r3, [r0, #16]
.Ltmp664:
	.loc	5 1443 8                        @ ../../../Library/StdDriver/src/spi.c:1443:8
	lsls	r2, r1, #27
	bpl	.LBB17_5
.Ltmp665:
.LBB17_12:
	@DEBUG_VALUE: SPII2S_EnableInt:u32Mask <- $r1
	@DEBUG_VALUE: SPII2S_EnableInt:i2s <- $r0
	.loc	5 1445 22                       @ ../../../Library/StdDriver/src/spi.c:1445:22
	ldr	r2, [r0, #16]
	movs	r3, #128
	orrs	r3, r2
	str	r3, [r0, #16]
.Ltmp666:
	.loc	5 1449 8                        @ ../../../Library/StdDriver/src/spi.c:1449:8
	lsls	r2, r1, #26
	bpl	.LBB17_6
.Ltmp667:
.LBB17_13:
	@DEBUG_VALUE: SPII2S_EnableInt:u32Mask <- $r1
	@DEBUG_VALUE: SPII2S_EnableInt:i2s <- $r0
	.loc	5 0 8 is_stmt 0                 @ ../../../Library/StdDriver/src/spi.c:0:8
	movs	r2, #1
	lsls	r2, r2, #24
.Ltmp668:
	.loc	5 1451 21 is_stmt 1             @ ../../../Library/StdDriver/src/spi.c:1451:21
	ldr	r3, [r0, #96]
	orrs	r3, r2
	str	r3, [r0, #96]
.Ltmp669:
	.loc	5 1455 8                        @ ../../../Library/StdDriver/src/spi.c:1455:8
	lsls	r1, r1, #25
.Ltmp670:
	@DEBUG_VALUE: SPII2S_EnableInt:u32Mask <- [DW_OP_LLVM_entry_value 1] $r1
	bpl	.LBB17_7
.Ltmp671:
.LBB17_14:
	@DEBUG_VALUE: SPII2S_EnableInt:i2s <- $r0
	@DEBUG_VALUE: SPII2S_EnableInt:u32Mask <- [DW_OP_LLVM_entry_value 1] $r1
	.loc	5 0 8 is_stmt 0                 @ ../../../Library/StdDriver/src/spi.c:0:8
	movs	r1, #1
	lsls	r1, r1, #25
.Ltmp672:
	.loc	5 1457 21 is_stmt 1             @ ../../../Library/StdDriver/src/spi.c:1457:21
	ldr	r2, [r0, #96]
	orrs	r2, r1
	str	r2, [r0, #96]
.Ltmp673:
	.loc	5 1459 1                        @ ../../../Library/StdDriver/src/spi.c:1459:1
	bx	lr
.Ltmp674:
.Lfunc_end17:
	.size	SPII2S_EnableInt, .Lfunc_end17-SPII2S_EnableInt
	.cfi_endproc
	.cantunwind
	.fnend
                                        @ -- End function
	.section	.text.SPII2S_DisableInt,"ax",%progbits
	.hidden	SPII2S_DisableInt               @ -- Begin function SPII2S_DisableInt
	.globl	SPII2S_DisableInt
	.p2align	1
	.type	SPII2S_DisableInt,%function
	.code	16                              @ @SPII2S_DisableInt
	.thumb_func
SPII2S_DisableInt:
.Lfunc_begin18:
	.loc	5 1477 0                        @ ../../../Library/StdDriver/src/spi.c:1477:0
	.fnstart
	.cfi_startproc
@ %bb.0:
	@DEBUG_VALUE: SPII2S_DisableInt:i2s <- $r0
	@DEBUG_VALUE: SPII2S_DisableInt:i2s <- $r0
	@DEBUG_VALUE: SPII2S_DisableInt:u32Mask <- $r1
	@DEBUG_VALUE: SPII2S_DisableInt:u32Mask <- $r1
	.loc	5 1479 8 prologue_end           @ ../../../Library/StdDriver/src/spi.c:1479:8
	lsls	r2, r1, #31
	bne	.LBB18_8
.Ltmp675:
@ %bb.1:
	@DEBUG_VALUE: SPII2S_DisableInt:u32Mask <- $r1
	@DEBUG_VALUE: SPII2S_DisableInt:i2s <- $r0
	.loc	5 1485 8                        @ ../../../Library/StdDriver/src/spi.c:1485:8
	lsls	r2, r1, #30
	bmi	.LBB18_9
.Ltmp676:
.LBB18_2:
	@DEBUG_VALUE: SPII2S_DisableInt:u32Mask <- $r1
	@DEBUG_VALUE: SPII2S_DisableInt:i2s <- $r0
	.loc	5 1491 8                        @ ../../../Library/StdDriver/src/spi.c:1491:8
	lsls	r2, r1, #29
	bmi	.LBB18_10
.Ltmp677:
.LBB18_3:
	@DEBUG_VALUE: SPII2S_DisableInt:u32Mask <- $r1
	@DEBUG_VALUE: SPII2S_DisableInt:i2s <- $r0
	.loc	5 1497 8                        @ ../../../Library/StdDriver/src/spi.c:1497:8
	lsls	r2, r1, #28
	bmi	.LBB18_11
.Ltmp678:
.LBB18_4:
	@DEBUG_VALUE: SPII2S_DisableInt:u32Mask <- $r1
	@DEBUG_VALUE: SPII2S_DisableInt:i2s <- $r0
	.loc	5 1503 8                        @ ../../../Library/StdDriver/src/spi.c:1503:8
	lsls	r2, r1, #27
	bmi	.LBB18_12
.Ltmp679:
.LBB18_5:
	@DEBUG_VALUE: SPII2S_DisableInt:u32Mask <- $r1
	@DEBUG_VALUE: SPII2S_DisableInt:i2s <- $r0
	.loc	5 1509 8                        @ ../../../Library/StdDriver/src/spi.c:1509:8
	lsls	r2, r1, #26
	bmi	.LBB18_13
.Ltmp680:
.LBB18_6:
	@DEBUG_VALUE: SPII2S_DisableInt:u32Mask <- $r1
	@DEBUG_VALUE: SPII2S_DisableInt:i2s <- $r0
	.loc	5 1515 8                        @ ../../../Library/StdDriver/src/spi.c:1515:8
	lsls	r1, r1, #25
.Ltmp681:
	@DEBUG_VALUE: SPII2S_DisableInt:u32Mask <- [DW_OP_LLVM_entry_value 1] $r1
	bmi	.LBB18_14
.Ltmp682:
.LBB18_7:
	@DEBUG_VALUE: SPII2S_DisableInt:i2s <- $r0
	@DEBUG_VALUE: SPII2S_DisableInt:u32Mask <- [DW_OP_LLVM_entry_value 1] $r1
	.loc	5 1519 1                        @ ../../../Library/StdDriver/src/spi.c:1519:1
	bx	lr
.Ltmp683:
.LBB18_8:
	@DEBUG_VALUE: SPII2S_DisableInt:u32Mask <- $r1
	@DEBUG_VALUE: SPII2S_DisableInt:i2s <- $r0
	.loc	5 1481 22                       @ ../../../Library/StdDriver/src/spi.c:1481:22
	ldr	r2, [r0, #16]
	movs	r3, #8
	bics	r2, r3
	str	r2, [r0, #16]
.Ltmp684:
	.loc	5 1485 8                        @ ../../../Library/StdDriver/src/spi.c:1485:8
	lsls	r2, r1, #30
	bpl	.LBB18_2
.Ltmp685:
.LBB18_9:
	@DEBUG_VALUE: SPII2S_DisableInt:u32Mask <- $r1
	@DEBUG_VALUE: SPII2S_DisableInt:i2s <- $r0
	.loc	5 1487 22                       @ ../../../Library/StdDriver/src/spi.c:1487:22
	ldr	r2, [r0, #16]
	movs	r3, #4
	bics	r2, r3
	str	r2, [r0, #16]
.Ltmp686:
	.loc	5 1491 8                        @ ../../../Library/StdDriver/src/spi.c:1491:8
	lsls	r2, r1, #29
	bpl	.LBB18_3
.Ltmp687:
.LBB18_10:
	@DEBUG_VALUE: SPII2S_DisableInt:u32Mask <- $r1
	@DEBUG_VALUE: SPII2S_DisableInt:i2s <- $r0
	.loc	5 1493 22                       @ ../../../Library/StdDriver/src/spi.c:1493:22
	ldr	r2, [r0, #16]
	movs	r3, #32
	bics	r2, r3
	str	r2, [r0, #16]
.Ltmp688:
	.loc	5 1497 8                        @ ../../../Library/StdDriver/src/spi.c:1497:8
	lsls	r2, r1, #28
	bpl	.LBB18_4
.Ltmp689:
.LBB18_11:
	@DEBUG_VALUE: SPII2S_DisableInt:u32Mask <- $r1
	@DEBUG_VALUE: SPII2S_DisableInt:i2s <- $r0
	.loc	5 1499 22                       @ ../../../Library/StdDriver/src/spi.c:1499:22
	ldr	r2, [r0, #16]
	movs	r3, #16
	bics	r2, r3
	str	r2, [r0, #16]
.Ltmp690:
	.loc	5 1503 8                        @ ../../../Library/StdDriver/src/spi.c:1503:8
	lsls	r2, r1, #27
	bpl	.LBB18_5
.Ltmp691:
.LBB18_12:
	@DEBUG_VALUE: SPII2S_DisableInt:u32Mask <- $r1
	@DEBUG_VALUE: SPII2S_DisableInt:i2s <- $r0
	.loc	5 1505 22                       @ ../../../Library/StdDriver/src/spi.c:1505:22
	ldr	r2, [r0, #16]
	movs	r3, #128
	bics	r2, r3
	str	r2, [r0, #16]
.Ltmp692:
	.loc	5 1509 8                        @ ../../../Library/StdDriver/src/spi.c:1509:8
	lsls	r2, r1, #26
	bpl	.LBB18_6
.Ltmp693:
.LBB18_13:
	@DEBUG_VALUE: SPII2S_DisableInt:u32Mask <- $r1
	@DEBUG_VALUE: SPII2S_DisableInt:i2s <- $r0
	.loc	5 0 8 is_stmt 0                 @ ../../../Library/StdDriver/src/spi.c:0:8
	movs	r2, #1
	lsls	r2, r2, #24
.Ltmp694:
	.loc	5 1511 21 is_stmt 1             @ ../../../Library/StdDriver/src/spi.c:1511:21
	ldr	r3, [r0, #96]
	bics	r3, r2
	str	r3, [r0, #96]
.Ltmp695:
	.loc	5 1515 8                        @ ../../../Library/StdDriver/src/spi.c:1515:8
	lsls	r1, r1, #25
.Ltmp696:
	@DEBUG_VALUE: SPII2S_DisableInt:u32Mask <- [DW_OP_LLVM_entry_value 1] $r1
	bpl	.LBB18_7
.Ltmp697:
.LBB18_14:
	@DEBUG_VALUE: SPII2S_DisableInt:i2s <- $r0
	@DEBUG_VALUE: SPII2S_DisableInt:u32Mask <- [DW_OP_LLVM_entry_value 1] $r1
	.loc	5 0 8 is_stmt 0                 @ ../../../Library/StdDriver/src/spi.c:0:8
	movs	r1, #1
	lsls	r1, r1, #25
.Ltmp698:
	.loc	5 1517 21 is_stmt 1             @ ../../../Library/StdDriver/src/spi.c:1517:21
	ldr	r2, [r0, #96]
	bics	r2, r1
	str	r2, [r0, #96]
.Ltmp699:
	.loc	5 1519 1                        @ ../../../Library/StdDriver/src/spi.c:1519:1
	bx	lr
.Ltmp700:
.Lfunc_end18:
	.size	SPII2S_DisableInt, .Lfunc_end18-SPII2S_DisableInt
	.cfi_endproc
	.cantunwind
	.fnend
                                        @ -- End function
	.section	.text.SPII2S_EnableMCLK,"ax",%progbits
	.hidden	SPII2S_EnableMCLK               @ -- Begin function SPII2S_EnableMCLK
	.globl	SPII2S_EnableMCLK
	.p2align	1
	.type	SPII2S_EnableMCLK,%function
	.code	16                              @ @SPII2S_EnableMCLK
	.thumb_func
SPII2S_EnableMCLK:
.Lfunc_begin19:
	.loc	5 1530 0                        @ ../../../Library/StdDriver/src/spi.c:1530:0
	.fnstart
	.cfi_startproc
@ %bb.0:
	@DEBUG_VALUE: SPII2S_EnableMCLK:i2s <- $r0
	@DEBUG_VALUE: SPII2S_EnableMCLK:u32BusClock <- $r1
	.save	{r4, r5, r7, lr}
	push	{r4, r5, r7, lr}
	.cfi_def_cfa_offset 16
	.cfi_offset lr, -4
	.cfi_offset r7, -8
	.cfi_offset r5, -12
	.cfi_offset r4, -16
	mov	r5, r1
	mov	r4, r0
.Ltmp701:
	@DEBUG_VALUE: SPII2S_EnableMCLK:u32BusClock <- $r5
	@DEBUG_VALUE: SPII2S_EnableMCLK:i2s <- $r4
	.loc	5 1534 17 prologue_end          @ ../../../Library/StdDriver/src/spi.c:1534:17
	bl	SPII2S_GetSourceClockFreq
.Ltmp702:
	@DEBUG_VALUE: SPII2S_EnableMCLK:u32SrcClk <- $r0
	.loc	5 1535 8                        @ ../../../Library/StdDriver/src/spi.c:1535:8
	cmp	r0, r5
	bne	.LBB19_2
.Ltmp703:
@ %bb.1:
	@DEBUG_VALUE: SPII2S_EnableMCLK:u32BusClock <- $r5
	@DEBUG_VALUE: SPII2S_EnableMCLK:i2s <- $r4
	@DEBUG_VALUE: SPII2S_EnableMCLK:u32SrcClk <- $r0
	.loc	5 0 8 is_stmt 0                 @ ../../../Library/StdDriver/src/spi.c:0:8
	movs	r1, #0
	b	.LBB19_4
.Ltmp704:
.LBB19_2:
	@DEBUG_VALUE: SPII2S_EnableMCLK:u32BusClock <- $r5
	@DEBUG_VALUE: SPII2S_EnableMCLK:i2s <- $r4
	@DEBUG_VALUE: SPII2S_EnableMCLK:u32SrcClk <- $r0
	.loc	5 1541 33 is_stmt 1             @ ../../../Library/StdDriver/src/spi.c:1541:33
	udiv	r1, r0, r5
	.loc	5 1541 48 is_stmt 0             @ ../../../Library/StdDriver/src/spi.c:1541:48
	lsrs	r1, r1, #1
.Ltmp705:
	@DEBUG_VALUE: SPII2S_EnableMCLK:u32Divider <- $r1
	.loc	5 1543 12 is_stmt 1             @ ../../../Library/StdDriver/src/spi.c:1543:12
	cmp	r1, #127
	blo	.LBB19_4
.Ltmp706:
@ %bb.3:
	@DEBUG_VALUE: SPII2S_EnableMCLK:u32BusClock <- $r5
	@DEBUG_VALUE: SPII2S_EnableMCLK:i2s <- $r4
	@DEBUG_VALUE: SPII2S_EnableMCLK:u32Divider <- $r1
	@DEBUG_VALUE: SPII2S_EnableMCLK:u32SrcClk <- $r0
	.loc	5 0 12 is_stmt 0                @ ../../../Library/StdDriver/src/spi.c:0:12
	movs	r1, #127
.Ltmp707:
	@DEBUG_VALUE: SPII2S_EnableMCLK:u32Divider <- $r1
.LBB19_4:
	@DEBUG_VALUE: SPII2S_EnableMCLK:u32BusClock <- $r5
	@DEBUG_VALUE: SPII2S_EnableMCLK:i2s <- $r4
	@DEBUG_VALUE: SPII2S_EnableMCLK:u32SrcClk <- $r0
	@DEBUG_VALUE: SPII2S_EnableMCLK:u32Divider <- $r1
	.loc	5 1550 25 is_stmt 1             @ ../../../Library/StdDriver/src/spi.c:1550:25
	ldr	r2, [r4, #100]
	movs	r3, #127
	.loc	5 1550 32 is_stmt 0             @ ../../../Library/StdDriver/src/spi.c:1550:32
	bics	r2, r3
	.loc	5 1550 59                       @ ../../../Library/StdDriver/src/spi.c:1550:59
	orrs	r2, r1
	.loc	5 1550 17                       @ ../../../Library/StdDriver/src/spi.c:1550:17
	str	r2, [r4, #100]
	.loc	5 1553 17 is_stmt 1             @ ../../../Library/StdDriver/src/spi.c:1553:17
	ldr	r2, [r4, #96]
	movw	r3, #32768
	orrs	r3, r2
	str	r3, [r4, #96]
	.loc	5 1555 8                        @ ../../../Library/StdDriver/src/spi.c:1555:8
	cbz	r1, .LBB19_6
.Ltmp708:
@ %bb.5:
	@DEBUG_VALUE: SPII2S_EnableMCLK:u32BusClock <- $r5
	@DEBUG_VALUE: SPII2S_EnableMCLK:i2s <- $r4
	@DEBUG_VALUE: SPII2S_EnableMCLK:u32Divider <- $r1
	@DEBUG_VALUE: SPII2S_EnableMCLK:u32SrcClk <- $r0
	.loc	5 1561 35                       @ ../../../Library/StdDriver/src/spi.c:1561:35
	lsrs	r0, r0, #1
.Ltmp709:
	.loc	5 1561 43 is_stmt 0             @ ../../../Library/StdDriver/src/spi.c:1561:43
	udiv	r0, r0, r1
.Ltmp710:
	@DEBUG_VALUE: SPII2S_EnableMCLK:u32RetValue <- $r0
.LBB19_6:
	@DEBUG_VALUE: SPII2S_EnableMCLK:u32BusClock <- $r5
	@DEBUG_VALUE: SPII2S_EnableMCLK:i2s <- $r4
	@DEBUG_VALUE: SPII2S_EnableMCLK:u32Divider <- $r1
	@DEBUG_VALUE: SPII2S_EnableMCLK:u32RetValue <- $r0
	.loc	5 1564 5 is_stmt 1              @ ../../../Library/StdDriver/src/spi.c:1564:5
	pop	{r4, r5, r7, pc}
.Ltmp711:
.Lfunc_end19:
	.size	SPII2S_EnableMCLK, .Lfunc_end19-SPII2S_EnableMCLK
	.cfi_endproc
	.cantunwind
	.fnend
                                        @ -- End function
	.section	.text.SPII2S_DisableMCLK,"ax",%progbits
	.hidden	SPII2S_DisableMCLK              @ -- Begin function SPII2S_DisableMCLK
	.globl	SPII2S_DisableMCLK
	.p2align	1
	.type	SPII2S_DisableMCLK,%function
	.code	16                              @ @SPII2S_DisableMCLK
	.thumb_func
SPII2S_DisableMCLK:
.Lfunc_begin20:
	.loc	5 1574 0                        @ ../../../Library/StdDriver/src/spi.c:1574:0
	.fnstart
	.cfi_startproc
@ %bb.0:
	@DEBUG_VALUE: SPII2S_DisableMCLK:i2s <- $r0
	@DEBUG_VALUE: SPII2S_DisableMCLK:i2s <- $r0
	.loc	5 1575 17 prologue_end          @ ../../../Library/StdDriver/src/spi.c:1575:17
	ldr	r1, [r0, #96]
	movw	r2, #32768
	bics	r1, r2
	str	r1, [r0, #96]
	.loc	5 1576 1                        @ ../../../Library/StdDriver/src/spi.c:1576:1
	bx	lr
.Ltmp712:
.Lfunc_end20:
	.size	SPII2S_DisableMCLK, .Lfunc_end20-SPII2S_DisableMCLK
	.cfi_endproc
	.cantunwind
	.fnend
                                        @ -- End function
	.section	.text.SPII2S_SetFIFO,"ax",%progbits
	.hidden	SPII2S_SetFIFO                  @ -- Begin function SPII2S_SetFIFO
	.globl	SPII2S_SetFIFO
	.p2align	1
	.type	SPII2S_SetFIFO,%function
	.code	16                              @ @SPII2S_SetFIFO
	.thumb_func
SPII2S_SetFIFO:
.Lfunc_begin21:
	.loc	5 1587 0                        @ ../../../Library/StdDriver/src/spi.c:1587:0
	.fnstart
	.cfi_startproc
@ %bb.0:
	@DEBUG_VALUE: SPII2S_SetFIFO:i2s <- $r0
	@DEBUG_VALUE: SPII2S_SetFIFO:u32TxThreshold <- $r1
	@DEBUG_VALUE: SPII2S_SetFIFO:u32RxThreshold <- $r2
	.save	{r4, lr}
	push	{r4, lr}
	.cfi_def_cfa_offset 8
	.cfi_offset lr, -4
	.cfi_offset r4, -8
	movs	r3, #119
	lsls	r3, r3, #24
	@DEBUG_VALUE: SPII2S_SetFIFO:u32RxThreshold <- $r2
	@DEBUG_VALUE: SPII2S_SetFIFO:u32TxThreshold <- $r1
	@DEBUG_VALUE: SPII2S_SetFIFO:i2s <- $r0
.Ltmp713:
	.loc	5 1588 26 prologue_end          @ ../../../Library/StdDriver/src/spi.c:1588:26
	ldr	r4, [r0, #16]
	.loc	5 1588 34 is_stmt 0             @ ../../../Library/StdDriver/src/spi.c:1588:34
	bics	r4, r3
	.loc	5 1589 36 is_stmt 1             @ ../../../Library/StdDriver/src/spi.c:1589:36
	lsls	r1, r1, #28
.Ltmp714:
	@DEBUG_VALUE: SPII2S_SetFIFO:u32TxThreshold <- [DW_OP_LLVM_entry_value 1] $r1
	.loc	5 1590 36                       @ ../../../Library/StdDriver/src/spi.c:1590:36
	lsls	r2, r2, #24
.Ltmp715:
	@DEBUG_VALUE: SPII2S_SetFIFO:u32RxThreshold <- [DW_OP_LLVM_entry_value 1] $r2
	.loc	5 1588 84                       @ ../../../Library/StdDriver/src/spi.c:1588:84
	orrs	r2, r1
	.loc	5 1589 61                       @ ../../../Library/StdDriver/src/spi.c:1589:61
	orrs	r2, r4
	.loc	5 1588 18                       @ ../../../Library/StdDriver/src/spi.c:1588:18
	str	r2, [r0, #16]
	.loc	5 1591 1                        @ ../../../Library/StdDriver/src/spi.c:1591:1
	pop	{r4, pc}
.Ltmp716:
.Lfunc_end21:
	.size	SPII2S_SetFIFO, .Lfunc_end21-SPII2S_SetFIFO
	.cfi_endproc
	.cantunwind
	.fnend
                                        @ -- End function
	.section	".note.GNU-stack","",%progbits
	.eabi_attribute	30, 1	@ Tag_ABI_optimization_goals
	.ARM_attribute	16, 1	@ Tag_AV_eba