	.text
	.syntax unified
	.eabi_attribute	67, "2.09"	@ Tag_conformance
	.cpu	cortex-m23
	.eabi_attribute	6, 16	@ Tag_CPU_arch
	.eabi_attribute	7, 77	@ Tag_CPU_arch_profile
	.eabi_attribute	8, 0	@ Tag_ARM_ISA_use
	.eabi_attribute	9, 3	@ Tag_THUMB_ISA_use
	.eabi_attribute	34, 0	@ Tag_CPU_unaligned_access
	.eabi_attribute	17, 1	@ Tag_ABI_PCS_GOT_use
	.eabi_attribute	20, 2	@ Tag_ABI_FP_denormal
	.eabi_attribute	21, 0	@ Tag_ABI_FP_exceptions
	.eabi_attribute	23, 1	@ Tag_ABI_FP_number_model
	.eabi_attribute	24, 1	@ Tag_ABI_align_needed
	.eabi_attribute	25, 1	@ Tag_ABI_align_preserved
	.eabi_attribute	38, 1	@ Tag_ABI_FP_16bit_format
	.eabi_attribute	18, 2	@ Tag_ABI_PCS_wchar_t
	.eabi_attribute	26, 1	@ Tag_ABI_enum_size
	.eabi_attribute	14, 0	@ Tag_ABI_PCS_R9_use
	.file	"ssl_tls.c"
	.file	1 "C:\\Users\\shw26\\OneDrive\\Desktop\\2021\\2021-1\\\354\272\241\354\212\244\355\206\244\353\224\224\354\236\220\354\235\2702\\Nuvoton\\M2351_BSP_v3.00.004\\M2351Series_BSP_CMSIS_V3.00.004\\MyProject\\PulseMonitoring\\Secure" "../../../ThirdParty/mbedTLS/library/ssl_tls.c"
	.file	2 "C:\\Users\\shw26\\OneDrive\\Desktop\\2021\\2021-1\\\354\272\241\354\212\244\355\206\244\353\224\224\354\236\220\354\235\2702\\Nuvoton\\M2351_BSP_v3.00.004\\M2351Series_BSP_CMSIS_V3.00.004\\MyProject\\PulseMonitoring\\Secure" "../../../ThirdParty/mbedTLS/include/mbedtls/ecp.h"
	.file	3 "C:\\Users\\shw26\\OneDrive\\Desktop\\2021\\2021-1\\\354\272\241\354\212\244\355\206\244\353\224\224\354\236\220\354\235\2702\\Nuvoton\\M2351_BSP_v3.00.004\\M2351Series_BSP_CMSIS_V3.00.004\\MyProject\\PulseMonitoring\\Secure" "../../../ThirdParty/mbedTLS/include/mbedtls/md.h"
	.file	4 "C:\\Users\\shw26\\OneDrive\\Desktop\\2021\\2021-1\\\354\272\241\354\212\244\355\206\244\353\224\224\354\236\220\354\235\2702\\Nuvoton\\M2351_BSP_v3.00.004\\M2351Series_BSP_CMSIS_V3.00.004\\MyProject\\PulseMonitoring\\Secure" "../../../ThirdParty/mbedTLS/include/mbedtls/pk.h"
	.file	5 "C:\\Users\\shw26\\OneDrive\\Desktop\\2021\\2021-1\\\354\272\241\354\212\244\355\206\244\353\224\224\354\236\220\354\235\2702\\Nuvoton\\M2351_BSP_v3.00.004\\M2351Series_BSP_CMSIS_V3.00.004\\MyProject\\PulseMonitoring\\Secure" "../../../ThirdParty/mbedTLS/include/mbedtls/cipher.h"
	.file	6 "C:\\Users\\shw26\\OneDrive\\Desktop\\2021\\2021-1\\\354\272\241\354\212\244\355\206\244\353\224\224\354\236\220\354\235\2702\\Nuvoton\\M2351_BSP_v3.00.004\\M2351Series_BSP_CMSIS_V3.00.004\\MyProject\\PulseMonitoring\\Secure" "../../../ThirdParty/mbedTLS/include/mbedtls/ssl_ciphersuites.h"
	.file	7 "C:\\Users\\shw26\\OneDrive\\Desktop\\2021\\2021-1\\\354\272\241\354\212\244\355\206\244\353\224\224\354\236\220\354\235\2702\\Nuvoton\\M2351_BSP_v3.00.004\\M2351Series_BSP_CMSIS_V3.00.004\\MyProject\\PulseMonitoring\\Secure" "../../../ThirdParty/mbedTLS/include/mbedtls\\debug.h"
	.file	8 "C:\\Users\\shw26\\OneDrive\\Desktop\\2021\\2021-1\\\354\272\241\354\212\244\355\206\244\353\224\224\354\236\220\354\235\2702\\Nuvoton\\M2351_BSP_v3.00.004\\M2351Series_BSP_CMSIS_V3.00.004\\MyProject\\PulseMonitoring\\Secure" "../../../ThirdParty/mbedTLS/include/mbedtls\\ssl.h"
	.file	9 "C:\\" "Keil_v5\\ARM\\ARMCLANG\\Bin\\..\\include\\stdio.h"
	.file	10 "C:\\" "Keil_v5\\ARM\\ARMCLANG\\Bin\\..\\include\\stdint.h"
	.file	11 "C:\\Users\\shw26\\OneDrive\\Desktop\\2021\\2021-1\\\354\272\241\354\212\244\355\206\244\353\224\224\354\236\220\354\235\2702\\Nuvoton\\M2351_BSP_v3.00.004\\M2351Series_BSP_CMSIS_V3.00.004\\MyProject\\PulseMonitoring\\Secure" "../../../ThirdParty/mbedTLS/include/mbedtls/bignum.h"
	.section	.text.mbedtls_ssl_session_copy,"ax",%progbits
	.hidden	mbedtls_ssl_session_copy        @ -- Begin function mbedtls_ssl_session_copy
	.globl	mbedtls_ssl_session_copy
	.p2align	2
	.type	mbedtls_ssl_session_copy,%function
	.code	16                              @ @mbedtls_ssl_session_copy
	.thumb_func
mbedtls_ssl_session_copy:
.Lfunc_begin0:
	.loc	1 284 0                         @ ../../../ThirdParty/mbedTLS/library/ssl_tls.c:284:0
	.fnstart
	.cfi_sections .debug_frame
	.cfi_startproc
@ %bb.0:
	@DEBUG_VALUE: mbedtls_ssl_session_copy:dst <- $r0
	@DEBUG_VALUE: mbedtls_ssl_session_copy:src <- $r1
	.save	{r4, r5, r6, r7, lr}
	push	{r4, r5, r6, r7, lr}
	.cfi_def_cfa_offset 20
	.cfi_offset lr, -4
	.cfi_offset r7, -8
	.cfi_offset r6, -12
	.cfi_offset r5, -16
	.cfi_offset r4, -20
	.pad	#4
	sub	sp, #4
	.cfi_def_cfa_offset 24
	mov	r4, r1
	mov	r5, r0
.Ltmp0:
	@DEBUG_VALUE: mbedtls_ssl_session_copy:src <- $r4
	@DEBUG_VALUE: mbedtls_ssl_session_copy:dst <- $r5
	.loc	1 285 5 prologue_end            @ ../../../ThirdParty/mbedTLS/library/ssl_tls.c:285:5
	bl	mbedtls_ssl_session_free
	movs	r2, #132
	.loc	1 286 5                         @ ../../../ThirdParty/mbedTLS/library/ssl_tls.c:286:5
	mov	r0, r5
	mov	r1, r4
	bl	__aeabi_memcpy4
.Ltmp1:
	.loc	1 310 14                        @ ../../../ThirdParty/mbedTLS/library/ssl_tls.c:310:14
	ldr	r0, [r4, #92]
	ldr	r6, __arm_cp.0_0
.Ltmp2:
	.loc	1 310 9 is_stmt 0               @ ../../../ThirdParty/mbedTLS/library/ssl_tls.c:310:9
	cbz	r0, .LBB0_3
.Ltmp3:
@ %bb.1:
	@DEBUG_VALUE: mbedtls_ssl_session_copy:dst <- $r5
	@DEBUG_VALUE: mbedtls_ssl_session_copy:src <- $r4
	.loc	1 313 37 is_stmt 1              @ ../../../ThirdParty/mbedTLS/library/ssl_tls.c:313:37
	ldr	r7, [r4, #96]
	movs	r0, #1
	.loc	1 313 13 is_stmt 0              @ ../../../ThirdParty/mbedTLS/library/ssl_tls.c:313:13
	mov	r1, r7
	bl	calloc
	.loc	1 312 31 is_stmt 1              @ ../../../ThirdParty/mbedTLS/library/ssl_tls.c:312:31
	str	r0, [r5, #92]
	.loc	1 314 13                        @ ../../../ThirdParty/mbedTLS/library/ssl_tls.c:314:13
	cbz	r0, .LBB0_7
.Ltmp4:
@ %bb.2:
	@DEBUG_VALUE: mbedtls_ssl_session_copy:dst <- $r5
	@DEBUG_VALUE: mbedtls_ssl_session_copy:src <- $r4
	.loc	1 317 45                        @ ../../../ThirdParty/mbedTLS/library/ssl_tls.c:317:45
	ldr	r1, [r4, #92]
	.loc	1 317 9 is_stmt 0               @ ../../../ThirdParty/mbedTLS/library/ssl_tls.c:317:9
	mov	r2, r7
	bl	__aeabi_memcpy
	movs	r0, #100
	.loc	1 319 43 is_stmt 1              @ ../../../ThirdParty/mbedTLS/library/ssl_tls.c:319:43
	ldrb	r1, [r4, r0]
	.loc	1 319 36 is_stmt 0              @ ../../../ThirdParty/mbedTLS/library/ssl_tls.c:319:36
	strb	r1, [r5, r0]
	.loc	1 320 35 is_stmt 1              @ ../../../ThirdParty/mbedTLS/library/ssl_tls.c:320:35
	str	r7, [r5, #96]
.Ltmp5:
.LBB0_3:
	@DEBUG_VALUE: mbedtls_ssl_session_copy:dst <- $r5
	@DEBUG_VALUE: mbedtls_ssl_session_copy:src <- $r4
	.loc	1 327 14                        @ ../../../ThirdParty/mbedTLS/library/ssl_tls.c:327:14
	ldr	r0, [r4, #108]
	movs	r1, #0
.Ltmp6:
	.loc	1 327 9 is_stmt 0               @ ../../../ThirdParty/mbedTLS/library/ssl_tls.c:327:9
	cbz	r0, .LBB0_6
.Ltmp7:
@ %bb.4:
	@DEBUG_VALUE: mbedtls_ssl_session_copy:dst <- $r5
	@DEBUG_VALUE: mbedtls_ssl_session_copy:src <- $r4
	.loc	1 0 9                           @ ../../../ThirdParty/mbedTLS/library/ssl_tls.c:0:9
	str	r1, [sp]                        @ 4-byte Spill
.Ltmp8:
	.loc	1 329 47 is_stmt 1              @ ../../../ThirdParty/mbedTLS/library/ssl_tls.c:329:47
	ldr	r7, [r4, #112]
	movs	r0, #1
	.loc	1 329 23 is_stmt 0              @ ../../../ThirdParty/mbedTLS/library/ssl_tls.c:329:23
	mov	r1, r7
	bl	calloc
	.loc	1 329 21                        @ ../../../ThirdParty/mbedTLS/library/ssl_tls.c:329:21
	str	r0, [r5, #108]
	.loc	1 330 13 is_stmt 1              @ ../../../ThirdParty/mbedTLS/library/ssl_tls.c:330:13
	cbz	r0, .LBB0_7
.Ltmp9:
@ %bb.5:
	@DEBUG_VALUE: mbedtls_ssl_session_copy:dst <- $r5
	@DEBUG_VALUE: mbedtls_ssl_session_copy:src <- $r4
	.loc	1 333 35                        @ ../../../ThirdParty/mbedTLS/library/ssl_tls.c:333:35
	ldr	r1, [r4, #108]
	.loc	1 333 9 is_stmt 0               @ ../../../ThirdParty/mbedTLS/library/ssl_tls.c:333:9
	mov	r2, r7
	bl	__aeabi_memcpy
.Ltmp10:
	.loc	1 0 0                           @ ../../../ThirdParty/mbedTLS/library/ssl_tls.c:0:0
	ldr	r6, [sp]                        @ 4-byte Reload
	b	.LBB0_7
.Ltmp11:
.LBB0_6:
	@DEBUG_VALUE: mbedtls_ssl_session_copy:dst <- $r5
	@DEBUG_VALUE: mbedtls_ssl_session_copy:src <- $r4
	mov	r6, r1
.Ltmp12:
.LBB0_7:
	@DEBUG_VALUE: mbedtls_ssl_session_copy:dst <- $r5
	@DEBUG_VALUE: mbedtls_ssl_session_copy:src <- $r4
	.loc	1 338 1 is_stmt 1               @ ../../../ThirdParty/mbedTLS/library/ssl_tls.c:338:1
	mov	r0, r6
	add	sp, #4
	pop	{r4, r5, r6, r7, pc}
.Ltmp13:
	.p2align	2
@ %bb.8:
	.loc	1 0 1 is_stmt 0                 @ ../../../ThirdParty/mbedTLS/library/ssl_tls.c:0:1
__arm_cp.0_0:
	.long	4294934784                      @ 0xffff8100
.Lcpi_end0:
	.size	__arm_cp.0_0, .Lcpi_end0-__arm_cp.0_0
.Lfunc_end0:
	.size	mbedtls_ssl_session_copy, .Lfunc_end0-mbedtls_ssl_session_copy
	.cfi_endproc
	.cantunwind
	.fnend
                                        @ -- End function
	.section	.text.mbedtls_ssl_session_free,"ax",%progbits
	.hidden	mbedtls_ssl_session_free        @ -- Begin function mbedtls_ssl_session_free
	.globl	mbedtls_ssl_session_free
	.p2align	1
	.type	mbedtls_ssl_session_free,%function
	.code	16                              @ @mbedtls_ssl_session_free
	.thumb_func
mbedtls_ssl_session_free:
.Lfunc_begin1:
	.loc	1 9619 0 is_stmt 1              @ ../../../ThirdParty/mbedTLS/library/ssl_tls.c:9619:0
	.fnstart
	.cfi_startproc
@ %bb.0:
	@DEBUG_VALUE: mbedtls_ssl_session_free:session <- $r0
	@DEBUG_VALUE: mbedtls_ssl_session_free:session <- $r0
	.save	{r4, lr}
	push	{r4, lr}
	.cfi_def_cfa_offset 8
	.cfi_offset lr, -4
	.cfi_offset r4, -8
.Ltmp14:
	.loc	1 9620 9 prologue_end           @ ../../../ThirdParty/mbedTLS/library/ssl_tls.c:9620:9
	cbz	r0, .LBB1_2
.Ltmp15:
@ %bb.1:
	@DEBUG_VALUE: mbedtls_ssl_session_free:session <- $r0
	.loc	1 0 9 is_stmt 0                 @ ../../../ThirdParty/mbedTLS/library/ssl_tls.c:0:9
	mov	r4, r0
.Ltmp16:
	@DEBUG_VALUE: mbedtls_ssl_session_free:session <- $r4
	.loc	1 9624 5 is_stmt 1              @ ../../../ThirdParty/mbedTLS/library/ssl_tls.c:9624:5
	bl	ssl_clear_peer_cert
	.loc	1 9628 28                       @ ../../../ThirdParty/mbedTLS/library/ssl_tls.c:9628:28
	ldr	r0, [r4, #108]
	.loc	1 9628 5 is_stmt 0              @ ../../../ThirdParty/mbedTLS/library/ssl_tls.c:9628:5
	bl	free
	movs	r1, #132
	.loc	1 9631 5 is_stmt 1              @ ../../../ThirdParty/mbedTLS/library/ssl_tls.c:9631:5
	mov	r0, r4
	bl	mbedtls_platform_zeroize
.Ltmp17:
.LBB1_2:
	.loc	1 9632 1                        @ ../../../ThirdParty/mbedTLS/library/ssl_tls.c:9632:1
	pop	{r4, pc}
.Ltmp18:
.Lfunc_end1:
	.size	mbedtls_ssl_session_free, .Lfunc_end1-mbedtls_ssl_session_free
	.cfi_endproc
	.cantunwind
	.fnend
                                        @ -- End function
	.section	.text.mbedtls_ssl_derive_keys,"ax",%progbits
	.hidden	mbedtls_ssl_derive_keys         @ -- Begin function mbedtls_ssl_derive_keys
	.globl	mbedtls_ssl_derive_keys
	.p2align	2
	.type	mbedtls_ssl_derive_keys,%function
	.code	16                              @ @mbedtls_ssl_derive_keys
	.thumb_func
mbedtls_ssl_derive_keys:
.Lfunc_begin2:
	.loc	1 728 0                         @ ../../../ThirdParty/mbedTLS/library/ssl_tls.c:728:0
	.fnstart
	.cfi_startproc
@ %bb.0:
	@DEBUG_VALUE: mbedtls_ssl_derive_keys:ssl <- $r0
	.save	{r4, r5, r6, r7, lr}
	push	{r4, r5, r6, r7, lr}
	.cfi_def_cfa_offset 20
	.cfi_offset lr, -4
	.cfi_offset r7, -8
	.cfi_offset r6, -12
	.cfi_offset r5, -16
	.cfi_offset r4, -20
	.pad	#428
	sub	sp, #428
	.cfi_def_cfa_offset 448
	mov	r5, r0
.Ltmp19:
	@DEBUG_VALUE: mbedtls_ssl_derive_keys:session <- undef
	@DEBUG_VALUE: mbedtls_ssl_derive_keys:master_secret_len <- 48
	@DEBUG_VALUE: mbedtls_ssl_derive_keys:taglen <- 0
	@DEBUG_VALUE: mbedtls_ssl_derive_keys:ret <- 0
	@DEBUG_VALUE: mbedtls_ssl_derive_keys:ssl <- $r5
	.loc	1 753 41 prologue_end           @ ../../../ThirdParty/mbedTLS/library/ssl_tls.c:753:41
	ldr	r0, [r0, #56]
	.loc	1 755 52                        @ ../../../ThirdParty/mbedTLS/library/ssl_tls.c:755:52
	str	r0, [sp, #52]                   @ 4-byte Spill
	ldr	r0, [r5, #60]
	.loc	1 754 45                        @ ../../../ThirdParty/mbedTLS/library/ssl_tls.c:754:45
	str	r0, [sp, #56]                   @ 4-byte Spill
	ldr	r6, [r5, #76]
.Ltmp20:
	@DEBUG_VALUE: mbedtls_ssl_derive_keys:handshake <- [DW_OP_plus_uconst 56] [$sp+0]
	@DEBUG_VALUE: mbedtls_ssl_derive_keys:transform <- $r6
	.loc	1 757 5                         @ ../../../ThirdParty/mbedTLS/library/ssl_tls.c:757:5
	adr	r0, .LCPI2_74
	str	r0, [sp]
	movs	r1, #2
	ldr	r2, .LCPI2_75
	ldr	r7, .LCPI2_76
	mov	r0, r5
	mov	r3, r7
	bl	mbedtls_debug_print_msg
	.loc	1 759 61                        @ ../../../ThirdParty/mbedTLS/library/ssl_tls.c:759:61
	ldr	r0, [r6]
	.loc	1 759 79 is_stmt 0              @ ../../../ThirdParty/mbedTLS/library/ssl_tls.c:759:79
	ldrb	r0, [r0, #8]
	.loc	1 759 19                        @ ../../../ThirdParty/mbedTLS/library/ssl_tls.c:759:19
	bl	mbedtls_cipher_info_from_type
	mov	r4, r0
.Ltmp21:
	@DEBUG_VALUE: mbedtls_ssl_derive_keys:cipher_info <- $r4
	.loc	1 0 0                           @ ../../../ThirdParty/mbedTLS/library/ssl_tls.c:0:0
	ldr	r0, [r6]
	.loc	1 760 9 is_stmt 1               @ ../../../ThirdParty/mbedTLS/library/ssl_tls.c:760:9
	cbz	r4, .LBB2_5
.Ltmp22:
@ %bb.1:
	@DEBUG_VALUE: mbedtls_ssl_derive_keys:transform <- $r6
	@DEBUG_VALUE: mbedtls_ssl_derive_keys:ssl <- $r5
	@DEBUG_VALUE: mbedtls_ssl_derive_keys:cipher_info <- $r4
	@DEBUG_VALUE: mbedtls_ssl_derive_keys:handshake <- [DW_OP_plus_uconst 56] [$sp+0]
	@DEBUG_VALUE: mbedtls_ssl_derive_keys:ret <- 0
	@DEBUG_VALUE: mbedtls_ssl_derive_keys:taglen <- 0
	@DEBUG_VALUE: mbedtls_ssl_derive_keys:master_secret_len <- 48
	.loc	1 767 71                        @ ../../../ThirdParty/mbedTLS/library/ssl_tls.c:767:71
	ldrb	r0, [r0, #9]
	.loc	1 767 15 is_stmt 0              @ ../../../ThirdParty/mbedTLS/library/ssl_tls.c:767:15
	bl	mbedtls_md_info_from_type
.Ltmp23:
	@DEBUG_VALUE: mbedtls_ssl_derive_keys:md_info <- $r0
	.loc	1 768 9 is_stmt 1               @ ../../../ThirdParty/mbedTLS/library/ssl_tls.c:768:9
	cbz	r0, .LBB2_6
.Ltmp24:
@ %bb.2:
	@DEBUG_VALUE: mbedtls_ssl_derive_keys:transform <- $r6
	@DEBUG_VALUE: mbedtls_ssl_derive_keys:ssl <- $r5
	@DEBUG_VALUE: mbedtls_ssl_derive_keys:cipher_info <- $r4
	@DEBUG_VALUE: mbedtls_ssl_derive_keys:md_info <- $r0
	@DEBUG_VALUE: mbedtls_ssl_derive_keys:handshake <- [DW_OP_plus_uconst 56] [$sp+0]
	@DEBUG_VALUE: mbedtls_ssl_derive_keys:ret <- 0
	@DEBUG_VALUE: mbedtls_ssl_derive_keys:taglen <- 0
	@DEBUG_VALUE: mbedtls_ssl_derive_keys:master_secret_len <- 48
	.loc	1 779 14                        @ ../../../ThirdParty/mbedTLS/library/ssl_tls.c:779:14
	ldr	r2, [r5, #20]
.Ltmp25:
	.loc	1 779 9 is_stmt 0               @ ../../../ThirdParty/mbedTLS/library/ssl_tls.c:779:9
	str	r4, [sp, #36]                   @ 4-byte Spill
.Ltmp26:
	@DEBUG_VALUE: mbedtls_ssl_derive_keys:cipher_info <- [DW_OP_plus_uconst 36] [$sp+0]
	str	r0, [sp, #32]                   @ 4-byte Spill
.Ltmp27:
	@DEBUG_VALUE: mbedtls_ssl_derive_keys:md_info <- [DW_OP_plus_uconst 32] [$sp+0]
	cbz	r2, .LBB2_7
.Ltmp28:
@ %bb.3:
	@DEBUG_VALUE: mbedtls_ssl_derive_keys:md_info <- [DW_OP_plus_uconst 32] [$sp+0]
	@DEBUG_VALUE: mbedtls_ssl_derive_keys:cipher_info <- [DW_OP_plus_uconst 36] [$sp+0]
	@DEBUG_VALUE: mbedtls_ssl_derive_keys:transform <- $r6
	@DEBUG_VALUE: mbedtls_ssl_derive_keys:ssl <- $r5
	@DEBUG_VALUE: mbedtls_ssl_derive_keys:handshake <- [DW_OP_plus_uconst 56] [$sp+0]
	@DEBUG_VALUE: mbedtls_ssl_derive_keys:ret <- 0
	@DEBUG_VALUE: mbedtls_ssl_derive_keys:taglen <- 0
	@DEBUG_VALUE: mbedtls_ssl_derive_keys:master_secret_len <- 48
	.loc	1 788 13 is_stmt 1              @ ../../../ThirdParty/mbedTLS/library/ssl_tls.c:788:13
	cmp	r2, #3
	bge	.LBB2_12
.Ltmp29:
@ %bb.4:
	@DEBUG_VALUE: mbedtls_ssl_derive_keys:md_info <- [DW_OP_plus_uconst 32] [$sp+0]
	@DEBUG_VALUE: mbedtls_ssl_derive_keys:cipher_info <- [DW_OP_plus_uconst 36] [$sp+0]
	@DEBUG_VALUE: mbedtls_ssl_derive_keys:transform <- $r6
	@DEBUG_VALUE: mbedtls_ssl_derive_keys:ssl <- $r5
	@DEBUG_VALUE: mbedtls_ssl_derive_keys:handshake <- [DW_OP_plus_uconst 56] [$sp+0]
	@DEBUG_VALUE: mbedtls_ssl_derive_keys:ret <- 0
	@DEBUG_VALUE: mbedtls_ssl_derive_keys:taglen <- 0
	@DEBUG_VALUE: mbedtls_ssl_derive_keys:master_secret_len <- 48
	.loc	1 0 13 is_stmt 0                @ ../../../ThirdParty/mbedTLS/library/ssl_tls.c:0:13
	ldr	r1, __arm_cp.2_47
	ldr	r3, __arm_cp.2_48
	ldr	r0, __arm_cp.2_49
	b	.LBB2_8
.Ltmp30:
.LBB2_5:
	@DEBUG_VALUE: mbedtls_ssl_derive_keys:transform <- $r6
	@DEBUG_VALUE: mbedtls_ssl_derive_keys:ssl <- $r5
	@DEBUG_VALUE: mbedtls_ssl_derive_keys:cipher_info <- $r4
	@DEBUG_VALUE: mbedtls_ssl_derive_keys:handshake <- [DW_OP_plus_uconst 56] [$sp+0]
	@DEBUG_VALUE: mbedtls_ssl_derive_keys:ret <- 0
	@DEBUG_VALUE: mbedtls_ssl_derive_keys:taglen <- 0
	@DEBUG_VALUE: mbedtls_ssl_derive_keys:master_secret_len <- 48
	.loc	1 762 9 is_stmt 1               @ ../../../ThirdParty/mbedTLS/library/ssl_tls.c:762:9
	ldrb	r0, [r0, #8]
	str	r0, [sp, #4]
	ldr	r0, __arm_cp.2_50
	str	r0, [sp]
	adds	r3, r7, #6
	movs	r1, #1
	ldr	r2, .LCPI2_45
	mov	r0, r5
	bl	mbedtls_debug_print_msg
	ldr	r6, __arm_cp.2_51
.Ltmp31:
	.loc	1 764 9                         @ ../../../ThirdParty/mbedTLS/library/ssl_tls.c:764:9
	b	.LBB2_118
.Ltmp32:
.LBB2_6:
	@DEBUG_VALUE: mbedtls_ssl_derive_keys:transform <- $r6
	@DEBUG_VALUE: mbedtls_ssl_derive_keys:ssl <- $r5
	@DEBUG_VALUE: mbedtls_ssl_derive_keys:cipher_info <- $r4
	@DEBUG_VALUE: mbedtls_ssl_derive_keys:md_info <- $r0
	@DEBUG_VALUE: mbedtls_ssl_derive_keys:handshake <- [DW_OP_plus_uconst 56] [$sp+0]
	@DEBUG_VALUE: mbedtls_ssl_derive_keys:ret <- 0
	@DEBUG_VALUE: mbedtls_ssl_derive_keys:taglen <- 0
	@DEBUG_VALUE: mbedtls_ssl_derive_keys:master_secret_len <- 48
	.loc	1 770 9                         @ ../../../ThirdParty/mbedTLS/library/ssl_tls.c:770:9
	ldr	r0, [r6]
.Ltmp33:
	ldrb	r0, [r0, #9]
	str	r0, [sp, #4]
	ldr	r0, __arm_cp.2_52
	str	r0, [sp]
	adds	r7, #14
	movs	r1, #1
	ldr	r2, .LCPI2_45
	mov	r0, r5
	mov	r3, r7
	bl	mbedtls_debug_print_msg
	ldr	r6, __arm_cp.2_51
.Ltmp34:
	.loc	1 772 9                         @ ../../../ThirdParty/mbedTLS/library/ssl_tls.c:772:9
	b	.LBB2_118
.Ltmp35:
.LBB2_7:
	@DEBUG_VALUE: mbedtls_ssl_derive_keys:md_info <- [DW_OP_plus_uconst 32] [$sp+0]
	@DEBUG_VALUE: mbedtls_ssl_derive_keys:cipher_info <- [DW_OP_plus_uconst 36] [$sp+0]
	@DEBUG_VALUE: mbedtls_ssl_derive_keys:transform <- $r6
	@DEBUG_VALUE: mbedtls_ssl_derive_keys:ssl <- $r5
	@DEBUG_VALUE: mbedtls_ssl_derive_keys:handshake <- [DW_OP_plus_uconst 56] [$sp+0]
	@DEBUG_VALUE: mbedtls_ssl_derive_keys:ret <- 0
	@DEBUG_VALUE: mbedtls_ssl_derive_keys:taglen <- 0
	@DEBUG_VALUE: mbedtls_ssl_derive_keys:master_secret_len <- 48
	.loc	1 0 9 is_stmt 0                 @ ../../../ThirdParty/mbedTLS/library/ssl_tls.c:0:9
	ldr	r1, __arm_cp.2_53
	ldr	r3, __arm_cp.2_54
	ldr	r0, __arm_cp.2_55
.Ltmp36:
.LBB2_8:
	@DEBUG_VALUE: mbedtls_ssl_derive_keys:md_info <- [DW_OP_plus_uconst 32] [$sp+0]
	@DEBUG_VALUE: mbedtls_ssl_derive_keys:cipher_info <- [DW_OP_plus_uconst 36] [$sp+0]
	@DEBUG_VALUE: mbedtls_ssl_derive_keys:transform <- $r6
	@DEBUG_VALUE: mbedtls_ssl_derive_keys:ssl <- $r5
	@DEBUG_VALUE: mbedtls_ssl_derive_keys:handshake <- [DW_OP_plus_uconst 56] [$sp+0]
	@DEBUG_VALUE: mbedtls_ssl_derive_keys:ret <- 0
	@DEBUG_VALUE: mbedtls_ssl_derive_keys:taglen <- 0
	@DEBUG_VALUE: mbedtls_ssl_derive_keys:master_secret_len <- 48
	ldr	r2, __arm_cp.2_56
	ldr	r7, [sp, #56]                   @ 4-byte Reload
	adds	r4, r7, r2
	ldr	r2, __arm_cp.2_57
	adds	r2, r7, r2
.Ltmp37:
	str	r3, [r4]
	str	r1, [r4, #4]
	str	r4, [sp, #48]                   @ 4-byte Spill
	str	r0, [r4, #8]
.Ltmp38:
	.loc	1 832 20 is_stmt 1              @ ../../../ThirdParty/mbedTLS/library/ssl_tls.c:832:20
	ldr	r0, [r2]
.Ltmp39:
	.loc	1 832 9 is_stmt 0               @ ../../../ThirdParty/mbedTLS/library/ssl_tls.c:832:9
	cmp	r0, #0
	str	r6, [sp, #40]                   @ 4-byte Spill
.Ltmp40:
	@DEBUG_VALUE: mbedtls_ssl_derive_keys:transform <- [DW_OP_plus_uconst 40] [$sp+0]
	.loc	1 0 9                           @ ../../../ThirdParty/mbedTLS/library/ssl_tls.c:0:9
	beq	.LBB2_17
.Ltmp41:
@ %bb.9:
	@DEBUG_VALUE: mbedtls_ssl_derive_keys:transform <- [DW_OP_plus_uconst 40] [$sp+0]
	@DEBUG_VALUE: mbedtls_ssl_derive_keys:md_info <- [DW_OP_plus_uconst 32] [$sp+0]
	@DEBUG_VALUE: mbedtls_ssl_derive_keys:cipher_info <- [DW_OP_plus_uconst 36] [$sp+0]
	@DEBUG_VALUE: mbedtls_ssl_derive_keys:ssl <- $r5
	@DEBUG_VALUE: mbedtls_ssl_derive_keys:handshake <- [DW_OP_plus_uconst 56] [$sp+0]
	@DEBUG_VALUE: mbedtls_ssl_derive_keys:ret <- 0
	@DEBUG_VALUE: mbedtls_ssl_derive_keys:taglen <- 0
	@DEBUG_VALUE: mbedtls_ssl_derive_keys:master_secret_len <- 48
	.loc	1 834 9 is_stmt 1               @ ../../../ThirdParty/mbedTLS/library/ssl_tls.c:834:9
	adr	r0, .LCPI2_58
	str	r0, [sp]
	ldr	r3, .LCPI2_46
	adds	r3, #77
	movs	r1, #3
	ldr	r2, .LCPI2_45
	mov	r0, r5
	bl	mbedtls_debug_print_msg
	ldr	r7, [sp, #56]                   @ 4-byte Reload
.Ltmp42:
.LBB2_10:
	@DEBUG_VALUE: mbedtls_ssl_derive_keys:transform <- [DW_OP_plus_uconst 40] [$sp+0]
	@DEBUG_VALUE: mbedtls_ssl_derive_keys:md_info <- [DW_OP_plus_uconst 32] [$sp+0]
	@DEBUG_VALUE: mbedtls_ssl_derive_keys:cipher_info <- [DW_OP_plus_uconst 36] [$sp+0]
	@DEBUG_VALUE: mbedtls_ssl_derive_keys:ssl <- $r5
	@DEBUG_VALUE: mbedtls_ssl_derive_keys:handshake <- [DW_OP_plus_uconst 56] [$sp+0]
	@DEBUG_VALUE: mbedtls_ssl_derive_keys:taglen <- 0
	@DEBUG_VALUE: mbedtls_ssl_derive_keys:master_secret_len <- 48
	.loc	1 0 9 is_stmt 0                 @ ../../../ThirdParty/mbedTLS/library/ssl_tls.c:0:9
	str	r5, [sp, #44]                   @ 4-byte Spill
.Ltmp43:
	@DEBUG_VALUE: mbedtls_ssl_derive_keys:ssl <- [DW_OP_plus_uconst 44] [$sp+0]
	ldr	r0, __arm_cp.2_59
	.loc	1 957 5 is_stmt 1               @ ../../../ThirdParty/mbedTLS/library/ssl_tls.c:957:5
	adds	r0, r7, r0
	str	r0, [sp, #56]                   @ 4-byte Spill
.Ltmp44:
	@DEBUG_VALUE: mbedtls_ssl_derive_keys:handshake <- [DW_OP_plus_uconst 56, DW_OP_plus_uconst 56] [$sp+0]
	.loc	1 0 5 is_stmt 0                 @ ../../../ThirdParty/mbedTLS/library/ssl_tls.c:0:5
	add	r4, sp, #364
	.loc	1 957 5                         @ ../../../ThirdParty/mbedTLS/library/ssl_tls.c:957:5
	mov	r1, r4
	ldm	r0!, {r2, r3, r5, r6}
	stm	r1!, {r2, r3, r5, r6}
	ldm	r0!, {r2, r3, r5, r6}
	stm	r1!, {r2, r3, r5, r6}
	ldm	r0!, {r2, r3, r5, r6}
	stm	r1!, {r2, r3, r5, r6}
	ldm	r0!, {r2, r3, r5, r6}
	stm	r1!, {r2, r3, r5, r6}
	.loc	1 958 39 is_stmt 1              @ ../../../ThirdParty/mbedTLS/library/ssl_tls.c:958:39
	mov	r0, r4
	adds	r0, #32
	.loc	1 958 5 is_stmt 0               @ ../../../ThirdParty/mbedTLS/library/ssl_tls.c:958:5
	ldr	r1, [sp, #56]                   @ 4-byte Reload
.Ltmp45:
	@DEBUG_VALUE: mbedtls_ssl_derive_keys:handshake <- [DW_OP_plus_uconst 56] [$r1+0]
	ldm	r0!, {r2, r3, r5, r6}
	stm	r1!, {r2, r3, r5, r6}
.Ltmp46:
	ldm	r0!, {r2, r3, r5, r6}
	stm	r1!, {r2, r3, r5, r6}
	ldr	r0, __arm_cp.2_60
	.loc	1 959 34 is_stmt 1              @ ../../../ThirdParty/mbedTLS/library/ssl_tls.c:959:34
	adds	r0, r7, r0
	movs	r2, #32
	.loc	1 959 5 is_stmt 0               @ ../../../ThirdParty/mbedTLS/library/ssl_tls.c:959:5
	mov	r1, r4
	bl	__aeabi_memcpy
	movs	r7, #64
	.loc	1 960 5 is_stmt 1               @ ../../../ThirdParty/mbedTLS/library/ssl_tls.c:960:5
	mov	r0, r4
	mov	r1, r7
	bl	mbedtls_platform_zeroize
	.loc	1 974 22                        @ ../../../ThirdParty/mbedTLS/library/ssl_tls.c:974:22
	ldr	r0, [sp, #48]                   @ 4-byte Reload
	ldr	r6, [r0, #8]
	movw	r0, #256
	.loc	1 974 11 is_stmt 0              @ ../../../ThirdParty/mbedTLS/library/ssl_tls.c:974:11
	str	r0, [sp, #8]
	add	r0, sp, #108
	str	r0, [sp, #4]
	str	r7, [sp]
	ldr	r4, [sp, #52]                   @ 4-byte Reload
	.loc	1 974 31                        @ ../../../ThirdParty/mbedTLS/library/ssl_tls.c:974:31
	mov	r5, r4
	adds	r5, #44
	movs	r1, #48
	.loc	1 974 11                        @ ../../../ThirdParty/mbedTLS/library/ssl_tls.c:974:11
	adr	r2, .LCPI2_61
	mov	r0, r5
	str	r1, [sp, #48]                   @ 4-byte Spill
	ldr	r3, [sp, #56]                   @ 4-byte Reload
	blx	r6
.Ltmp47:
	@DEBUG_VALUE: mbedtls_ssl_derive_keys:ret <- $r0
	.loc	1 976 9 is_stmt 1               @ ../../../ThirdParty/mbedTLS/library/ssl_tls.c:976:9
	cbz	r0, .LBB2_20
.Ltmp48:
@ %bb.11:
	@DEBUG_VALUE: mbedtls_ssl_derive_keys:ssl <- [DW_OP_plus_uconst 44] [$sp+0]
	@DEBUG_VALUE: mbedtls_ssl_derive_keys:transform <- [DW_OP_plus_uconst 40] [$sp+0]
	@DEBUG_VALUE: mbedtls_ssl_derive_keys:md_info <- [DW_OP_plus_uconst 32] [$sp+0]
	@DEBUG_VALUE: mbedtls_ssl_derive_keys:cipher_info <- [DW_OP_plus_uconst 36] [$sp+0]
	@DEBUG_VALUE: mbedtls_ssl_derive_keys:ret <- $r0
	@DEBUG_VALUE: mbedtls_ssl_derive_keys:taglen <- 0
	@DEBUG_VALUE: mbedtls_ssl_derive_keys:master_secret_len <- 48
	.loc	1 0 0 is_stmt 0                 @ ../../../ThirdParty/mbedTLS/library/ssl_tls.c:0:0
	mov	r6, r0
.Ltmp49:
	@DEBUG_VALUE: mbedtls_ssl_derive_keys:ret <- $r6
	.loc	1 978 9 is_stmt 1               @ ../../../ThirdParty/mbedTLS/library/ssl_tls.c:978:9
	str	r0, [sp, #4]
	ldr	r0, .LCPI2_62
	str	r0, [sp]
	ldr	r3, .LCPI2_46
	adds	r3, #221
	movs	r1, #1
	ldr	r2, .LCPI2_45
	ldr	r0, [sp, #44]                   @ 4-byte Reload
.Ltmp50:
	@DEBUG_VALUE: mbedtls_ssl_derive_keys:ssl <- $r0
	bl	mbedtls_debug_print_ret
.Ltmp51:
	.loc	1 979 9                         @ ../../../ThirdParty/mbedTLS/library/ssl_tls.c:979:9
	b	.LBB2_118
.Ltmp52:
.LBB2_12:
	@DEBUG_VALUE: mbedtls_ssl_derive_keys:md_info <- [DW_OP_plus_uconst 32] [$sp+0]
	@DEBUG_VALUE: mbedtls_ssl_derive_keys:cipher_info <- [DW_OP_plus_uconst 36] [$sp+0]
	@DEBUG_VALUE: mbedtls_ssl_derive_keys:transform <- $r6
	@DEBUG_VALUE: mbedtls_ssl_derive_keys:ssl <- $r5
	@DEBUG_VALUE: mbedtls_ssl_derive_keys:handshake <- [DW_OP_plus_uconst 56] [$sp+0]
	@DEBUG_VALUE: mbedtls_ssl_derive_keys:ret <- 0
	@DEBUG_VALUE: mbedtls_ssl_derive_keys:taglen <- 0
	@DEBUG_VALUE: mbedtls_ssl_derive_keys:master_secret_len <- 48
	.loc	1 0 9 is_stmt 0                 @ ../../../ThirdParty/mbedTLS/library/ssl_tls.c:0:9
	beq	.LBB2_13
	b	.LBB2_43
.Ltmp53:
.LBB2_13:
	@DEBUG_VALUE: mbedtls_ssl_derive_keys:md_info <- [DW_OP_plus_uconst 32] [$sp+0]
	@DEBUG_VALUE: mbedtls_ssl_derive_keys:cipher_info <- [DW_OP_plus_uconst 36] [$sp+0]
	@DEBUG_VALUE: mbedtls_ssl_derive_keys:transform <- $r6
	@DEBUG_VALUE: mbedtls_ssl_derive_keys:ssl <- $r5
	@DEBUG_VALUE: mbedtls_ssl_derive_keys:handshake <- [DW_OP_plus_uconst 56] [$sp+0]
	@DEBUG_VALUE: mbedtls_ssl_derive_keys:ret <- 0
	@DEBUG_VALUE: mbedtls_ssl_derive_keys:taglen <- 0
	@DEBUG_VALUE: mbedtls_ssl_derive_keys:master_secret_len <- 48
	.loc	1 799 32 is_stmt 1              @ ../../../ThirdParty/mbedTLS/library/ssl_tls.c:799:32
	ldr	r0, [r6]
	.loc	1 799 50 is_stmt 0              @ ../../../ThirdParty/mbedTLS/library/ssl_tls.c:799:50
	ldrb	r4, [r0, #9]
.Ltmp54:
	.loc	1 798 17 is_stmt 1              @ ../../../ThirdParty/mbedTLS/library/ssl_tls.c:798:17
	cmp	r4, #7
	bne	.LBB2_14
	b	.LBB2_38
.Ltmp55:
.LBB2_14:
	@DEBUG_VALUE: mbedtls_ssl_derive_keys:md_info <- [DW_OP_plus_uconst 32] [$sp+0]
	@DEBUG_VALUE: mbedtls_ssl_derive_keys:cipher_info <- [DW_OP_plus_uconst 36] [$sp+0]
	@DEBUG_VALUE: mbedtls_ssl_derive_keys:transform <- $r6
	@DEBUG_VALUE: mbedtls_ssl_derive_keys:ssl <- $r5
	@DEBUG_VALUE: mbedtls_ssl_derive_keys:handshake <- [DW_OP_plus_uconst 56] [$sp+0]
	@DEBUG_VALUE: mbedtls_ssl_derive_keys:ret <- 0
	@DEBUG_VALUE: mbedtls_ssl_derive_keys:taglen <- 0
	@DEBUG_VALUE: mbedtls_ssl_derive_keys:master_secret_len <- 48
	.loc	1 0 17 is_stmt 0                @ ../../../ThirdParty/mbedTLS/library/ssl_tls.c:0:17
	ldr	r1, __arm_cp.2_63
	.loc	1 798 17                        @ ../../../ThirdParty/mbedTLS/library/ssl_tls.c:798:17
	cmp	r4, #7
	beq	.LBB2_15
	b	.LBB2_39
.Ltmp56:
.LBB2_15:
	@DEBUG_VALUE: mbedtls_ssl_derive_keys:md_info <- [DW_OP_plus_uconst 32] [$sp+0]
	@DEBUG_VALUE: mbedtls_ssl_derive_keys:cipher_info <- [DW_OP_plus_uconst 36] [$sp+0]
	@DEBUG_VALUE: mbedtls_ssl_derive_keys:transform <- $r6
	@DEBUG_VALUE: mbedtls_ssl_derive_keys:ssl <- $r5
	@DEBUG_VALUE: mbedtls_ssl_derive_keys:handshake <- [DW_OP_plus_uconst 56] [$sp+0]
	@DEBUG_VALUE: mbedtls_ssl_derive_keys:ret <- 0
	@DEBUG_VALUE: mbedtls_ssl_derive_keys:taglen <- 0
	@DEBUG_VALUE: mbedtls_ssl_derive_keys:master_secret_len <- 48
	.loc	1 0 17                          @ ../../../ThirdParty/mbedTLS/library/ssl_tls.c:0:17
	ldr	r3, __arm_cp.2_64
	.loc	1 798 17                        @ ../../../ThirdParty/mbedTLS/library/ssl_tls.c:798:17
	cmp	r4, #7
	beq	.LBB2_16
	b	.LBB2_40
.Ltmp57:
.LBB2_16:
	@DEBUG_VALUE: mbedtls_ssl_derive_keys:md_info <- [DW_OP_plus_uconst 32] [$sp+0]
	@DEBUG_VALUE: mbedtls_ssl_derive_keys:cipher_info <- [DW_OP_plus_uconst 36] [$sp+0]
	@DEBUG_VALUE: mbedtls_ssl_derive_keys:transform <- $r6
	@DEBUG_VALUE: mbedtls_ssl_derive_keys:ssl <- $r5
	@DEBUG_VALUE: mbedtls_ssl_derive_keys:handshake <- [DW_OP_plus_uconst 56] [$sp+0]
	@DEBUG_VALUE: mbedtls_ssl_derive_keys:ret <- 0
	@DEBUG_VALUE: mbedtls_ssl_derive_keys:taglen <- 0
	@DEBUG_VALUE: mbedtls_ssl_derive_keys:master_secret_len <- 48
	.loc	1 0 17                          @ ../../../ThirdParty/mbedTLS/library/ssl_tls.c:0:17
	ldr	r0, __arm_cp.2_65
	b	.LBB2_41
.Ltmp58:
.LBB2_17:
	@DEBUG_VALUE: mbedtls_ssl_derive_keys:transform <- [DW_OP_plus_uconst 40] [$sp+0]
	@DEBUG_VALUE: mbedtls_ssl_derive_keys:md_info <- [DW_OP_plus_uconst 32] [$sp+0]
	@DEBUG_VALUE: mbedtls_ssl_derive_keys:cipher_info <- [DW_OP_plus_uconst 36] [$sp+0]
	@DEBUG_VALUE: mbedtls_ssl_derive_keys:ssl <- $r5
	@DEBUG_VALUE: mbedtls_ssl_derive_keys:handshake <- [DW_OP_plus_uconst 56] [$sp+0]
	@DEBUG_VALUE: mbedtls_ssl_derive_keys:ret <- 0
	@DEBUG_VALUE: mbedtls_ssl_derive_keys:taglen <- 0
	@DEBUG_VALUE: mbedtls_ssl_derive_keys:master_secret_len <- 48
	@DEBUG_VALUE: salt <- undef
	@DEBUG_VALUE: salt_len <- 64
	@DEBUG_VALUE: ciphersuite_info <- undef
	@DEBUG_VALUE: md_type <- undef
	ldr	r4, __arm_cp.2_56
.Ltmp59:
	.loc	1 861 18 is_stmt 1              @ ../../../ThirdParty/mbedTLS/library/ssl_tls.c:861:18
	ldr	r0, [r5, #60]
	ldr	r1, __arm_cp.2_66
	.loc	1 861 29 is_stmt 0              @ ../../../ThirdParty/mbedTLS/library/ssl_tls.c:861:29
	ldr	r0, [r0, r1]
.Ltmp60:
	@DEBUG_VALUE: lbl <- undef
	.loc	1 861 13                        @ ../../../ThirdParty/mbedTLS/library/ssl_tls.c:861:13
	cmp	r0, #1
	ldr	r7, .LCPI2_46
	bne	.LBB2_26
.Ltmp61:
@ %bb.18:
	@DEBUG_VALUE: mbedtls_ssl_derive_keys:transform <- [DW_OP_plus_uconst 40] [$sp+0]
	@DEBUG_VALUE: mbedtls_ssl_derive_keys:md_info <- [DW_OP_plus_uconst 32] [$sp+0]
	@DEBUG_VALUE: mbedtls_ssl_derive_keys:cipher_info <- [DW_OP_plus_uconst 36] [$sp+0]
	@DEBUG_VALUE: mbedtls_ssl_derive_keys:ssl <- $r5
	@DEBUG_VALUE: mbedtls_ssl_derive_keys:handshake <- [DW_OP_plus_uconst 56] [$sp+0]
	@DEBUG_VALUE: salt_len <- 64
	@DEBUG_VALUE: mbedtls_ssl_derive_keys:ret <- 0
	@DEBUG_VALUE: mbedtls_ssl_derive_keys:taglen <- 0
	@DEBUG_VALUE: mbedtls_ssl_derive_keys:master_secret_len <- 48
	.loc	1 856 18 is_stmt 1              @ ../../../ThirdParty/mbedTLS/library/ssl_tls.c:856:18
	ldr	r0, [r5, #76]
	.loc	1 856 39 is_stmt 0              @ ../../../ThirdParty/mbedTLS/library/ssl_tls.c:856:39
	ldr	r0, [r0]
.Ltmp62:
	@DEBUG_VALUE: ciphersuite_info <- $r0
	.loc	1 857 61 is_stmt 1              @ ../../../ThirdParty/mbedTLS/library/ssl_tls.c:857:61
	ldrb	r6, [r0, #9]
.Ltmp63:
	@DEBUG_VALUE: md_type <- $r6
	.loc	1 863 13                        @ ../../../ThirdParty/mbedTLS/library/ssl_tls.c:863:13
	adr	r0, .LCPI2_67
.Ltmp64:
	str	r0, [sp]
	mov	r3, r7
	adds	r3, #106
	movs	r1, #3
	ldr	r2, .LCPI2_45
	mov	r0, r5
	str	r1, [sp, #28]                   @ 4-byte Spill
	bl	mbedtls_debug_print_msg
	.loc	1 867 18                        @ ../../../ThirdParty/mbedTLS/library/ssl_tls.c:867:18
	ldr	r0, [r5, #60]
	.loc	1 867 29 is_stmt 0              @ ../../../ThirdParty/mbedTLS/library/ssl_tls.c:867:29
	ldr	r2, [r0, r4]
	add	r4, sp, #60
	.loc	1 867 13                        @ ../../../ThirdParty/mbedTLS/library/ssl_tls.c:867:13
	mov	r0, r5
	mov	r1, r4
	blx	r2
	.loc	1 869 17 is_stmt 1              @ ../../../ThirdParty/mbedTLS/library/ssl_tls.c:869:17
	cmp	r6, #7
	ldr	r6, [sp, #48]                   @ 4-byte Reload
.Ltmp65:
	.loc	1 0 17 is_stmt 0                @ ../../../ThirdParty/mbedTLS/library/ssl_tls.c:0:17
	bne	.LBB2_19
	b	.LBB2_44
.Ltmp66:
.LBB2_19:
	@DEBUG_VALUE: mbedtls_ssl_derive_keys:transform <- [DW_OP_plus_uconst 40] [$sp+0]
	@DEBUG_VALUE: mbedtls_ssl_derive_keys:md_info <- [DW_OP_plus_uconst 32] [$sp+0]
	@DEBUG_VALUE: mbedtls_ssl_derive_keys:cipher_info <- [DW_OP_plus_uconst 36] [$sp+0]
	@DEBUG_VALUE: mbedtls_ssl_derive_keys:ssl <- $r5
	@DEBUG_VALUE: mbedtls_ssl_derive_keys:handshake <- [DW_OP_plus_uconst 56] [$sp+0]
	@DEBUG_VALUE: salt_len <- 64
	@DEBUG_VALUE: mbedtls_ssl_derive_keys:ret <- 0
	@DEBUG_VALUE: mbedtls_ssl_derive_keys:taglen <- 0
	@DEBUG_VALUE: mbedtls_ssl_derive_keys:master_secret_len <- 48
	movs	r1, #32
	b	.LBB2_45
.Ltmp67:
.LBB2_20:
	@DEBUG_VALUE: mbedtls_ssl_derive_keys:ssl <- [DW_OP_plus_uconst 44] [$sp+0]
	@DEBUG_VALUE: mbedtls_ssl_derive_keys:transform <- [DW_OP_plus_uconst 40] [$sp+0]
	@DEBUG_VALUE: mbedtls_ssl_derive_keys:md_info <- [DW_OP_plus_uconst 32] [$sp+0]
	@DEBUG_VALUE: mbedtls_ssl_derive_keys:cipher_info <- [DW_OP_plus_uconst 36] [$sp+0]
	@DEBUG_VALUE: mbedtls_ssl_derive_keys:ret <- $r0
	@DEBUG_VALUE: mbedtls_ssl_derive_keys:taglen <- 0
	@DEBUG_VALUE: mbedtls_ssl_derive_keys:master_secret_len <- 48
	.loc	1 982 5 is_stmt 1               @ ../../../ThirdParty/mbedTLS/library/ssl_tls.c:982:5
	ldr	r0, [r4]
.Ltmp68:
	bl	mbedtls_ssl_get_ciphersuite_name
	str	r0, [sp, #4]
	ldr	r0, __arm_cp.2_68
	str	r0, [sp]
	mov	r4, r7
	str	r7, [sp, #28]                   @ 4-byte Spill
	ldr	r7, .LCPI2_46
	mov	r3, r7
	adds	r3, #226
	movs	r1, #3
	str	r1, [sp, #24]                   @ 4-byte Spill
	ldr	r2, .LCPI2_45
	ldr	r6, [sp, #44]                   @ 4-byte Reload
.Ltmp69:
	@DEBUG_VALUE: mbedtls_ssl_derive_keys:ssl <- $r6
	mov	r0, r6
	bl	mbedtls_debug_print_msg
	.loc	1 984 5                         @ ../../../ThirdParty/mbedTLS/library/ssl_tls.c:984:5
	ldr	r0, [sp, #48]                   @ 4-byte Reload
	str	r0, [sp, #8]
	str	r5, [sp, #4]
	ldr	r0, __arm_cp.2_69
	str	r0, [sp]
	mov	r3, r7
	adds	r3, #227
	mov	r0, r6
	ldr	r1, [sp, #24]                   @ 4-byte Reload
	ldr	r2, .LCPI2_45
	bl	mbedtls_debug_print_buf
	.loc	1 985 5                         @ ../../../ThirdParty/mbedTLS/library/ssl_tls.c:985:5
	str	r4, [sp, #8]
	ldr	r5, [sp, #56]                   @ 4-byte Reload
	str	r5, [sp, #4]
	ldr	r0, __arm_cp.2_70
	str	r0, [sp]
	mov	r3, r7
	adds	r3, #228
	movs	r4, #4
	mov	r0, r6
	mov	r1, r4
	ldr	r2, .LCPI2_45
	bl	mbedtls_debug_print_buf
	.loc	1 986 5                         @ ../../../ThirdParty/mbedTLS/library/ssl_tls.c:986:5
	movw	r0, #256
	str	r0, [sp, #8]
	add	r0, sp, #108
	str	r0, [sp, #4]
	adr	r0, .LCPI2_71
	str	r0, [sp]
	adds	r7, #229
	mov	r0, r6
	mov	r1, r4
	ldr	r2, .LCPI2_45
	mov	r3, r7
	bl	mbedtls_debug_print_buf
	.loc	1 988 5                         @ ../../../ThirdParty/mbedTLS/library/ssl_tls.c:988:5
	mov	r0, r5
	ldr	r1, [sp, #28]                   @ 4-byte Reload
	bl	mbedtls_platform_zeroize
	ldr	r2, [sp, #36]                   @ 4-byte Reload
.Ltmp70:
	@DEBUG_VALUE: mbedtls_ssl_derive_keys:cipher_info <- $r2
	.loc	1 995 38                        @ ../../../ThirdParty/mbedTLS/library/ssl_tls.c:995:38
	ldr	r0, [r2, #4]
	.loc	1 995 49 is_stmt 0              @ ../../../ThirdParty/mbedTLS/library/ssl_tls.c:995:49
	lsrs	r0, r0, #3
	.loc	1 995 23                        @ ../../../ThirdParty/mbedTLS/library/ssl_tls.c:995:23
	ldr	r1, [sp, #40]                   @ 4-byte Reload
.Ltmp71:
	@DEBUG_VALUE: mbedtls_ssl_derive_keys:transform <- $r1
	str	r0, [r1, #4]
.Ltmp72:
	.loc	1 997 22 is_stmt 1              @ ../../../ThirdParty/mbedTLS/library/ssl_tls.c:997:22
	ldrb	r1, [r2, #1]
.Ltmp73:
	.loc	1 997 47 is_stmt 0              @ ../../../ThirdParty/mbedTLS/library/ssl_tls.c:997:47
	cmp	r1, #10
	bls	.LBB2_21
	b	.LBB2_56
.Ltmp74:
.LBB2_21:
	@DEBUG_VALUE: mbedtls_ssl_derive_keys:md_info <- [DW_OP_plus_uconst 32] [$sp+0]
	@DEBUG_VALUE: mbedtls_ssl_derive_keys:ssl <- $r6
	@DEBUG_VALUE: mbedtls_ssl_derive_keys:cipher_info <- $r2
	@DEBUG_VALUE: mbedtls_ssl_derive_keys:taglen <- 0
	@DEBUG_VALUE: mbedtls_ssl_derive_keys:master_secret_len <- 48
	.loc	1 0 47                          @ ../../../ThirdParty/mbedTLS/library/ssl_tls.c:0:47
	movs	r0, #1
	lsls	r0, r1
	movw	r2, #1344
.Ltmp75:
	tst	r0, r2
	bne	.LBB2_22
	b	.LBB2_56
.Ltmp76:
.LBB2_22:
	@DEBUG_VALUE: mbedtls_ssl_derive_keys:md_info <- [DW_OP_plus_uconst 32] [$sp+0]
	@DEBUG_VALUE: mbedtls_ssl_derive_keys:ssl <- $r6
	@DEBUG_VALUE: mbedtls_ssl_derive_keys:taglen <- 0
	@DEBUG_VALUE: mbedtls_ssl_derive_keys:master_secret_len <- 48
	movs	r0, #12
.Ltmp77:
	@DEBUG_VALUE: mbedtls_ssl_derive_keys:mac_key_len <- 0
	ldr	r2, [sp, #40]                   @ 4-byte Reload
.Ltmp78:
	.loc	1 1010 26 is_stmt 1             @ ../../../ThirdParty/mbedTLS/library/ssl_tls.c:1010:26
	str	r0, [r2, #12]
	movs	r5, #0
	.loc	1 1003 27                       @ ../../../ThirdParty/mbedTLS/library/ssl_tls.c:1003:27
	str	r5, [r2, #20]
	.loc	1 1011 13                       @ ../../../ThirdParty/mbedTLS/library/ssl_tls.c:1011:13
	cmp	r1, #10
	beq	.LBB2_24
.Ltmp79:
@ %bb.23:
	@DEBUG_VALUE: mbedtls_ssl_derive_keys:md_info <- [DW_OP_plus_uconst 32] [$sp+0]
	@DEBUG_VALUE: mbedtls_ssl_derive_keys:ssl <- $r6
	@DEBUG_VALUE: mbedtls_ssl_derive_keys:mac_key_len <- 0
	@DEBUG_VALUE: mbedtls_ssl_derive_keys:taglen <- 0
	@DEBUG_VALUE: mbedtls_ssl_derive_keys:master_secret_len <- 48
	mov	r0, r4
.Ltmp80:
.LBB2_24:
	@DEBUG_VALUE: mbedtls_ssl_derive_keys:md_info <- [DW_OP_plus_uconst 32] [$sp+0]
	@DEBUG_VALUE: mbedtls_ssl_derive_keys:ssl <- $r6
	@DEBUG_VALUE: mbedtls_ssl_derive_keys:mac_key_len <- 0
	@DEBUG_VALUE: mbedtls_ssl_derive_keys:taglen <- 0
	@DEBUG_VALUE: mbedtls_ssl_derive_keys:master_secret_len <- 48
	.loc	1 0 13 is_stmt 0                @ ../../../ThirdParty/mbedTLS/library/ssl_tls.c:0:13
	ldr	r6, [sp, #40]                   @ 4-byte Reload
.Ltmp81:
	str	r0, [r6, #16]
.Ltmp82:
	.loc	1 1017 29 is_stmt 1             @ ../../../ThirdParty/mbedTLS/library/ssl_tls.c:1017:29
	ldr	r1, [r6]
	.loc	1 1017 47 is_stmt 0             @ ../../../ThirdParty/mbedTLS/library/ssl_tls.c:1017:47
	ldrb	r1, [r1, #28]
	.loc	1 1017 18                       @ ../../../ThirdParty/mbedTLS/library/ssl_tls.c:1017:18
	lsls	r1, r1, #30
	bpl	.LBB2_27
.Ltmp83:
@ %bb.25:
	@DEBUG_VALUE: mbedtls_ssl_derive_keys:md_info <- [DW_OP_plus_uconst 32] [$sp+0]
	@DEBUG_VALUE: mbedtls_ssl_derive_keys:mac_key_len <- 0
	@DEBUG_VALUE: mbedtls_ssl_derive_keys:taglen <- 0
	@DEBUG_VALUE: mbedtls_ssl_derive_keys:master_secret_len <- 48
	.loc	1 0 18                          @ ../../../ThirdParty/mbedTLS/library/ssl_tls.c:0:18
	movs	r1, #8
	b	.LBB2_28
.Ltmp84:
.LBB2_26:
	@DEBUG_VALUE: mbedtls_ssl_derive_keys:transform <- [DW_OP_plus_uconst 40] [$sp+0]
	@DEBUG_VALUE: mbedtls_ssl_derive_keys:md_info <- [DW_OP_plus_uconst 32] [$sp+0]
	@DEBUG_VALUE: mbedtls_ssl_derive_keys:cipher_info <- [DW_OP_plus_uconst 36] [$sp+0]
	@DEBUG_VALUE: mbedtls_ssl_derive_keys:ssl <- $r5
	@DEBUG_VALUE: mbedtls_ssl_derive_keys:handshake <- [DW_OP_plus_uconst 56] [$sp+0]
	@DEBUG_VALUE: salt_len <- 64
	@DEBUG_VALUE: mbedtls_ssl_derive_keys:ret <- 0
	@DEBUG_VALUE: mbedtls_ssl_derive_keys:taglen <- 0
	@DEBUG_VALUE: mbedtls_ssl_derive_keys:master_secret_len <- 48
	ldr	r0, __arm_cp.2_59
	ldr	r4, [sp, #56]                   @ 4-byte Reload
	adds	r0, r4, r0
	@DEBUG_VALUE: salt <- $r0
	str	r0, [sp, #24]                   @ 4-byte Spill
	@DEBUG_VALUE: salt <- [DW_OP_plus_uconst 24] [$sp+0]
	@DEBUG_VALUE: salt <- [DW_OP_plus_uconst 24] [$sp+0]
	movs	r0, #64
	str	r0, [sp, #20]                   @ 4-byte Spill
	ldr	r2, __arm_cp.2_69
	@DEBUG_VALUE: lbl <- $r2
	ldr	r6, [sp, #48]                   @ 4-byte Reload
	b	.LBB2_48
.Ltmp85:
.LBB2_27:
	@DEBUG_VALUE: mbedtls_ssl_derive_keys:md_info <- [DW_OP_plus_uconst 32] [$sp+0]
	@DEBUG_VALUE: mbedtls_ssl_derive_keys:mac_key_len <- 0
	@DEBUG_VALUE: mbedtls_ssl_derive_keys:taglen <- 0
	@DEBUG_VALUE: mbedtls_ssl_derive_keys:master_secret_len <- 48
	movs	r1, #16
.Ltmp86:
.LBB2_28:
	@DEBUG_VALUE: mbedtls_ssl_derive_keys:md_info <- [DW_OP_plus_uconst 32] [$sp+0]
	@DEBUG_VALUE: mbedtls_ssl_derive_keys:mac_key_len <- 0
	@DEBUG_VALUE: mbedtls_ssl_derive_keys:taglen <- 0
	@DEBUG_VALUE: mbedtls_ssl_derive_keys:master_secret_len <- 48
	@DEBUG_VALUE: mbedtls_ssl_derive_keys:taglen <- $r1
	@DEBUG_VALUE: explicit_ivlen <- undef
	.loc	1 1023 44 is_stmt 1             @ ../../../ThirdParty/mbedTLS/library/ssl_tls.c:1023:44
	subs	r0, r1, r0
	adds	r0, #12
.Ltmp87:
.LBB2_29:
	@DEBUG_VALUE: mbedtls_ssl_derive_keys:master_secret_len <- 48
	.loc	1 0 0 is_stmt 0                 @ ../../../ThirdParty/mbedTLS/library/ssl_tls.c:0:0
	str	r0, [r6, #8]
.Ltmp88:
.LBB2_30:
	@DEBUG_VALUE: mbedtls_ssl_derive_keys:master_secret_len <- 48
	@DEBUG_VALUE: mbedtls_ssl_derive_keys:mac_key_len <- $r5
	.loc	1 1107 5 is_stmt 1              @ ../../../ThirdParty/mbedTLS/library/ssl_tls.c:1107:5
	adds	r2, r6, #4
	ldm	r2, {r0, r1, r2}
	ldr	r3, [r6, #20]
	add	r4, sp, #4
	stm	r4!, {r0, r1, r2, r3}
	ldr	r0, __arm_cp.2_72
	str	r0, [sp]
	ldr	r7, .LCPI2_73
	mov	r3, r7
	adds	r3, #78
	movs	r1, #3
	ldr	r2, .LCPI2_45
	ldr	r4, [sp, #44]                   @ 4-byte Reload
	mov	r0, r4
	bl	mbedtls_debug_print_msg
.Ltmp89:
	.loc	1 1115 14                       @ ../../../ThirdParty/mbedTLS/library/ssl_tls.c:1115:14
	ldr	r0, [r4]
	movs	r1, #172
	.loc	1 1115 20 is_stmt 0             @ ../../../ThirdParty/mbedTLS/library/ssl_tls.c:1115:20
	ldrh	r0, [r0, r1]
.Ltmp90:
	.loc	1 1115 9                        @ ../../../ThirdParty/mbedTLS/library/ssl_tls.c:1115:9
	lsls	r0, r0, #31
	bne	.LBB2_37
.Ltmp91:
@ %bb.31:
	@DEBUG_VALUE: mbedtls_ssl_derive_keys:mac_key_len <- $r5
	@DEBUG_VALUE: mbedtls_ssl_derive_keys:master_secret_len <- 48
	.loc	1 0 9                           @ ../../../ThirdParty/mbedTLS/library/ssl_tls.c:0:9
	add	r0, sp, #108
.Ltmp92:
	@DEBUG_VALUE: mbedtls_ssl_derive_keys:mac_dec <- undef
	.loc	1 1117 37 is_stmt 1             @ ../../../ThirdParty/mbedTLS/library/ssl_tls.c:1117:37
	lsls	r1, r5, #1
	.loc	1 1117 23 is_stmt 0             @ ../../../ThirdParty/mbedTLS/library/ssl_tls.c:1117:23
	adds	r2, r0, r1
.Ltmp93:
	@DEBUG_VALUE: mbedtls_ssl_derive_keys:key1 <- $r2
	.loc	1 1118 54 is_stmt 1             @ ../../../ThirdParty/mbedTLS/library/ssl_tls.c:1118:54
	ldr	r1, [r6, #4]
	str	r2, [sp, #52]                   @ 4-byte Spill
.Ltmp94:
	@DEBUG_VALUE: mbedtls_ssl_derive_keys:key1 <- [DW_OP_plus_uconst 52] [$sp+0]
	.loc	1 1118 41 is_stmt 0             @ ../../../ThirdParty/mbedTLS/library/ssl_tls.c:1118:41
	adds	r2, r2, r1
.Ltmp95:
	@DEBUG_VALUE: mbedtls_ssl_derive_keys:key2 <- $r2
	.loc	1 1126 36 is_stmt 1             @ ../../../ThirdParty/mbedTLS/library/ssl_tls.c:1126:36
	ldr	r4, [r6, #16]
.Ltmp96:
	@DEBUG_VALUE: mbedtls_ssl_derive_keys:mac_enc <- [DW_OP_plus_uconst 108, DW_OP_stack_value] $sp
	.loc	1 1126 23 is_stmt 0             @ ../../../ThirdParty/mbedTLS/library/ssl_tls.c:1126:23
	cbnz	r4, .LBB2_33
.Ltmp97:
@ %bb.32:
	@DEBUG_VALUE: mbedtls_ssl_derive_keys:mac_key_len <- $r5
	@DEBUG_VALUE: mbedtls_ssl_derive_keys:key2 <- $r2
	@DEBUG_VALUE: mbedtls_ssl_derive_keys:mac_enc <- [DW_OP_plus_uconst 108, DW_OP_stack_value] $sp
	@DEBUG_VALUE: mbedtls_ssl_derive_keys:key1 <- [DW_OP_plus_uconst 52] [$sp+0]
	@DEBUG_VALUE: mbedtls_ssl_derive_keys:master_secret_len <- 48
	.loc	1 1127 59 is_stmt 1             @ ../../../ThirdParty/mbedTLS/library/ssl_tls.c:1127:59
	ldr	r4, [r6, #12]
.Ltmp98:
.LBB2_33:
	@DEBUG_VALUE: mbedtls_ssl_derive_keys:mac_key_len <- $r5
	@DEBUG_VALUE: mbedtls_ssl_derive_keys:key2 <- $r2
	@DEBUG_VALUE: mbedtls_ssl_derive_keys:mac_enc <- [DW_OP_plus_uconst 108, DW_OP_stack_value] $sp
	@DEBUG_VALUE: mbedtls_ssl_derive_keys:key1 <- [DW_OP_plus_uconst 52] [$sp+0]
	@DEBUG_VALUE: mbedtls_ssl_derive_keys:master_secret_len <- 48
	.loc	1 0 0 is_stmt 0                 @ ../../../ThirdParty/mbedTLS/library/ssl_tls.c:0:0
	adds	r0, r0, r5
.Ltmp99:
	@DEBUG_VALUE: mbedtls_ssl_derive_keys:iv_copy_len <- $r4
	@DEBUG_VALUE: mbedtls_ssl_derive_keys:mac_dec <- $r0
	str	r0, [sp, #56]                   @ 4-byte Spill
.Ltmp100:
	@DEBUG_VALUE: mbedtls_ssl_derive_keys:mac_dec <- [DW_OP_plus_uconst 56] [$sp+0]
	@DEBUG_VALUE: mbedtls_ssl_derive_keys:mac_dec <- [DW_OP_plus_uconst 56] [$sp+0]
	str	r2, [sp, #48]                   @ 4-byte Spill
.Ltmp101:
	@DEBUG_VALUE: mbedtls_ssl_derive_keys:key2 <- [DW_OP_plus_uconst 48] [$sp+0]
	.loc	1 1128 41 is_stmt 1             @ ../../../ThirdParty/mbedTLS/library/ssl_tls.c:1128:41
	adds	r6, r2, r1
	.loc	1 1128 9 is_stmt 0              @ ../../../ThirdParty/mbedTLS/library/ssl_tls.c:1128:9
	ldr	r0, [sp, #40]                   @ 4-byte Reload
	adds	r0, #24
	mov	r1, r6
	mov	r2, r4
	bl	__aeabi_memcpy
	.loc	1 1129 61 is_stmt 1             @ ../../../ThirdParty/mbedTLS/library/ssl_tls.c:1129:61
	adds	r1, r6, r4
	ldr	r6, [sp, #40]                   @ 4-byte Reload
	.loc	1 1129 9 is_stmt 0              @ ../../../ThirdParty/mbedTLS/library/ssl_tls.c:1129:9
	mov	r0, r6
	adds	r0, #40
	mov	r2, r4
	bl	__aeabi_memcpy
.Ltmp102:
	.loc	1 1160 14 is_stmt 1             @ ../../../ThirdParty/mbedTLS/library/ssl_tls.c:1160:14
	ldr	r0, [sp, #44]                   @ 4-byte Reload
	ldr	r0, [r0, #20]
.Ltmp103:
	.loc	1 1160 9 is_stmt 0              @ ../../../ThirdParty/mbedTLS/library/ssl_tls.c:1160:9
	cmp	r0, #0
	bne	.LBB2_34
	b	.LBB2_89
.Ltmp104:
.LBB2_34:
	@DEBUG_VALUE: mbedtls_ssl_derive_keys:key2 <- [DW_OP_plus_uconst 48] [$sp+0]
	@DEBUG_VALUE: mbedtls_ssl_derive_keys:mac_key_len <- $r5
	@DEBUG_VALUE: mbedtls_ssl_derive_keys:iv_copy_len <- $r4
	@DEBUG_VALUE: mbedtls_ssl_derive_keys:mac_dec <- [DW_OP_plus_uconst 56] [$sp+0]
	@DEBUG_VALUE: mbedtls_ssl_derive_keys:mac_enc <- [DW_OP_plus_uconst 108, DW_OP_stack_value] $sp
	@DEBUG_VALUE: mbedtls_ssl_derive_keys:key1 <- [DW_OP_plus_uconst 52] [$sp+0]
	@DEBUG_VALUE: mbedtls_ssl_derive_keys:master_secret_len <- 48
	.loc	1 1175 13 is_stmt 1             @ ../../../ThirdParty/mbedTLS/library/ssl_tls.c:1175:13
	cmp	r0, #1
	ldr	r4, [sp, #36]                   @ 4-byte Reload
.Ltmp105:
	.loc	1 0 13 is_stmt 0                @ ../../../ThirdParty/mbedTLS/library/ssl_tls.c:0:13
	bge	.LBB2_35
	b	.LBB2_91
.Ltmp106:
.LBB2_35:
	@DEBUG_VALUE: mbedtls_ssl_derive_keys:key2 <- [DW_OP_plus_uconst 48] [$sp+0]
	@DEBUG_VALUE: mbedtls_ssl_derive_keys:mac_key_len <- $r5
	@DEBUG_VALUE: mbedtls_ssl_derive_keys:mac_dec <- [DW_OP_plus_uconst 56] [$sp+0]
	@DEBUG_VALUE: mbedtls_ssl_derive_keys:mac_enc <- [DW_OP_plus_uconst 108, DW_OP_stack_value] $sp
	@DEBUG_VALUE: mbedtls_ssl_derive_keys:key1 <- [DW_OP_plus_uconst 52] [$sp+0]
	@DEBUG_VALUE: mbedtls_ssl_derive_keys:master_secret_len <- 48
	.loc	1 1179 17 is_stmt 1             @ ../../../ThirdParty/mbedTLS/library/ssl_tls.c:1179:17
	cmp	r5, #0
	bne	.LBB2_36
	b	.LBB2_93
.Ltmp107:
.LBB2_36:
	@DEBUG_VALUE: mbedtls_ssl_derive_keys:key2 <- [DW_OP_plus_uconst 48] [$sp+0]
	@DEBUG_VALUE: mbedtls_ssl_derive_keys:mac_key_len <- $r5
	@DEBUG_VALUE: mbedtls_ssl_derive_keys:mac_dec <- [DW_OP_plus_uconst 56] [$sp+0]
	@DEBUG_VALUE: mbedtls_ssl_derive_keys:mac_enc <- [DW_OP_plus_uconst 108, DW_OP_stack_value] $sp
	@DEBUG_VALUE: mbedtls_ssl_derive_keys:key1 <- [DW_OP_plus_uconst 52] [$sp+0]
	@DEBUG_VALUE: mbedtls_ssl_derive_keys:master_secret_len <- 48
	.loc	1 1181 53                       @ ../../../ThirdParty/mbedTLS/library/ssl_tls.c:1181:53
	mov	r0, r6
	adds	r0, #96
	add	r1, sp, #108
	.loc	1 1181 17 is_stmt 0             @ ../../../ThirdParty/mbedTLS/library/ssl_tls.c:1181:17
	mov	r2, r5
	bl	mbedtls_md_hmac_starts
	.loc	1 1182 53 is_stmt 1             @ ../../../ThirdParty/mbedTLS/library/ssl_tls.c:1182:53
	mov	r0, r6
	adds	r0, #108
	.loc	1 1182 17 is_stmt 0             @ ../../../ThirdParty/mbedTLS/library/ssl_tls.c:1182:17
	ldr	r1, [sp, #56]                   @ 4-byte Reload
	mov	r2, r5
	bl	mbedtls_md_hmac_starts
	b	.LBB2_93
.Ltmp108:
.LBB2_37:
	@DEBUG_VALUE: mbedtls_ssl_derive_keys:mac_key_len <- $r5
	@DEBUG_VALUE: mbedtls_ssl_derive_keys:master_secret_len <- 48
	.loc	1 1155 13 is_stmt 1             @ ../../../ThirdParty/mbedTLS/library/ssl_tls.c:1155:13
	ldr	r0, __arm_cp.2_17
	str	r0, [sp]
	adds	r7, #124
	movs	r1, #1
	ldr	r2, __arm_cp.2_1
	mov	r0, r4
	mov	r3, r7
	bl	mbedtls_debug_print_msg
	ldr	r6, __arm_cp.2_18
	.loc	1 1156 13                       @ ../../../ThirdParty/mbedTLS/library/ssl_tls.c:1156:13
	b	.LBB2_118
.Ltmp109:
.LBB2_38:
	@DEBUG_VALUE: mbedtls_ssl_derive_keys:md_info <- [DW_OP_plus_uconst 32] [$sp+0]
	@DEBUG_VALUE: mbedtls_ssl_derive_keys:cipher_info <- [DW_OP_plus_uconst 36] [$sp+0]
	@DEBUG_VALUE: mbedtls_ssl_derive_keys:transform <- $r6
	@DEBUG_VALUE: mbedtls_ssl_derive_keys:ssl <- $r5
	@DEBUG_VALUE: mbedtls_ssl_derive_keys:handshake <- [DW_OP_plus_uconst 56] [$sp+0]
	@DEBUG_VALUE: mbedtls_ssl_derive_keys:ret <- 0
	@DEBUG_VALUE: mbedtls_ssl_derive_keys:taglen <- 0
	@DEBUG_VALUE: mbedtls_ssl_derive_keys:master_secret_len <- 48
	.loc	1 0 13 is_stmt 0                @ ../../../ThirdParty/mbedTLS/library/ssl_tls.c:0:13
	ldr	r1, __arm_cp.2_11
.Ltmp110:
	.loc	1 798 17 is_stmt 1              @ ../../../ThirdParty/mbedTLS/library/ssl_tls.c:798:17
	cmp	r4, #7
	bne	.LBB2_39
	b	.LBB2_15
.Ltmp111:
.LBB2_39:
	@DEBUG_VALUE: mbedtls_ssl_derive_keys:md_info <- [DW_OP_plus_uconst 32] [$sp+0]
	@DEBUG_VALUE: mbedtls_ssl_derive_keys:cipher_info <- [DW_OP_plus_uconst 36] [$sp+0]
	@DEBUG_VALUE: mbedtls_ssl_derive_keys:transform <- $r6
	@DEBUG_VALUE: mbedtls_ssl_derive_keys:ssl <- $r5
	@DEBUG_VALUE: mbedtls_ssl_derive_keys:handshake <- [DW_OP_plus_uconst 56] [$sp+0]
	@DEBUG_VALUE: mbedtls_ssl_derive_keys:ret <- 0
	@DEBUG_VALUE: mbedtls_ssl_derive_keys:taglen <- 0
	@DEBUG_VALUE: mbedtls_ssl_derive_keys:master_secret_len <- 48
	.loc	1 0 17 is_stmt 0                @ ../../../ThirdParty/mbedTLS/library/ssl_tls.c:0:17
	ldr	r3, __arm_cp.2_14
	.loc	1 798 17                        @ ../../../ThirdParty/mbedTLS/library/ssl_tls.c:798:17
	cmp	r4, #7
	bne	.LBB2_40
	b	.LBB2_16
.Ltmp112:
.LBB2_40:
	@DEBUG_VALUE: mbedtls_ssl_derive_keys:md_info <- [DW_OP_plus_uconst 32] [$sp+0]
	@DEBUG_VALUE: mbedtls_ssl_derive_keys:cipher_info <- [DW_OP_plus_uconst 36] [$sp+0]
	@DEBUG_VALUE: mbedtls_ssl_derive_keys:transform <- $r6
	@DEBUG_VALUE: mbedtls_ssl_derive_keys:ssl <- $r5
	@DEBUG_VALUE: mbedtls_ssl_derive_keys:handshake <- [DW_OP_plus_uconst 56] [$sp+0]
	@DEBUG_VALUE: mbedtls_ssl_derive_keys:ret <- 0
	@DEBUG_VALUE: mbedtls_ssl_derive_keys:taglen <- 0
	@DEBUG_VALUE: mbedtls_ssl_derive_keys:master_secret_len <- 48
	.loc	1 0 17                          @ ../../../ThirdParty/mbedTLS/library/ssl_tls.c:0:17
	ldr	r0, __arm_cp.2_16
.Ltmp113:
.LBB2_41:
	@DEBUG_VALUE: mbedtls_ssl_derive_keys:md_info <- [DW_OP_plus_uconst 32] [$sp+0]
	@DEBUG_VALUE: mbedtls_ssl_derive_keys:cipher_info <- [DW_OP_plus_uconst 36] [$sp+0]
	@DEBUG_VALUE: mbedtls_ssl_derive_keys:transform <- $r6
	@DEBUG_VALUE: mbedtls_ssl_derive_keys:ssl <- $r5
	@DEBUG_VALUE: mbedtls_ssl_derive_keys:handshake <- [DW_OP_plus_uconst 56] [$sp+0]
	@DEBUG_VALUE: mbedtls_ssl_derive_keys:ret <- 0
	@DEBUG_VALUE: mbedtls_ssl_derive_keys:taglen <- 0
	@DEBUG_VALUE: mbedtls_ssl_derive_keys:master_secret_len <- 48
	.loc	1 798 17                        @ ../../../ThirdParty/mbedTLS/library/ssl_tls.c:798:17
	cmp	r4, #7
	bne	.LBB2_42
	b	.LBB2_8
.Ltmp114:
.LBB2_42:
	@DEBUG_VALUE: mbedtls_ssl_derive_keys:md_info <- [DW_OP_plus_uconst 32] [$sp+0]
	@DEBUG_VALUE: mbedtls_ssl_derive_keys:cipher_info <- [DW_OP_plus_uconst 36] [$sp+0]
	@DEBUG_VALUE: mbedtls_ssl_derive_keys:transform <- $r6
	@DEBUG_VALUE: mbedtls_ssl_derive_keys:ssl <- $r5
	@DEBUG_VALUE: mbedtls_ssl_derive_keys:handshake <- [DW_OP_plus_uconst 56] [$sp+0]
	@DEBUG_VALUE: mbedtls_ssl_derive_keys:ret <- 0
	@DEBUG_VALUE: mbedtls_ssl_derive_keys:taglen <- 0
	@DEBUG_VALUE: mbedtls_ssl_derive_keys:master_secret_len <- 48
	cmp	r2, #3
	bne	.LBB2_43
	b	.LBB2_8
.Ltmp115:
.LBB2_43:
	@DEBUG_VALUE: mbedtls_ssl_derive_keys:md_info <- [DW_OP_plus_uconst 32] [$sp+0]
	@DEBUG_VALUE: mbedtls_ssl_derive_keys:cipher_info <- [DW_OP_plus_uconst 36] [$sp+0]
	@DEBUG_VALUE: mbedtls_ssl_derive_keys:transform <- $r6
	@DEBUG_VALUE: mbedtls_ssl_derive_keys:ssl <- $r5
	@DEBUG_VALUE: mbedtls_ssl_derive_keys:handshake <- [DW_OP_plus_uconst 56] [$sp+0]
	@DEBUG_VALUE: mbedtls_ssl_derive_keys:ret <- 0
	@DEBUG_VALUE: mbedtls_ssl_derive_keys:taglen <- 0
	@DEBUG_VALUE: mbedtls_ssl_derive_keys:master_secret_len <- 48
	.loc	1 818 21 is_stmt 1              @ ../../../ThirdParty/mbedTLS/library/ssl_tls.c:818:21
	ldr	r0, __arm_cp.2_17
	str	r0, [sp]
	adds	r7, #61
	movs	r1, #1
	ldr	r2, __arm_cp.2_1
	mov	r0, r5
	mov	r3, r7
	bl	mbedtls_debug_print_msg
	ldr	r6, __arm_cp.2_18
.Ltmp116:
	.loc	1 819 21                        @ ../../../ThirdParty/mbedTLS/library/ssl_tls.c:819:21
	b	.LBB2_118
.Ltmp117:
.LBB2_44:
	@DEBUG_VALUE: mbedtls_ssl_derive_keys:transform <- [DW_OP_plus_uconst 40] [$sp+0]
	@DEBUG_VALUE: mbedtls_ssl_derive_keys:md_info <- [DW_OP_plus_uconst 32] [$sp+0]
	@DEBUG_VALUE: mbedtls_ssl_derive_keys:cipher_info <- [DW_OP_plus_uconst 36] [$sp+0]
	@DEBUG_VALUE: mbedtls_ssl_derive_keys:ssl <- $r5
	@DEBUG_VALUE: mbedtls_ssl_derive_keys:handshake <- [DW_OP_plus_uconst 56] [$sp+0]
	@DEBUG_VALUE: salt_len <- 64
	@DEBUG_VALUE: mbedtls_ssl_derive_keys:ret <- 0
	@DEBUG_VALUE: mbedtls_ssl_derive_keys:taglen <- 0
	@DEBUG_VALUE: mbedtls_ssl_derive_keys:master_secret_len <- 48
	.loc	1 0 21 is_stmt 0                @ ../../../ThirdParty/mbedTLS/library/ssl_tls.c:0:21
	movs	r1, #48
.Ltmp118:
.LBB2_45:
	@DEBUG_VALUE: mbedtls_ssl_derive_keys:transform <- [DW_OP_plus_uconst 40] [$sp+0]
	@DEBUG_VALUE: mbedtls_ssl_derive_keys:md_info <- [DW_OP_plus_uconst 32] [$sp+0]
	@DEBUG_VALUE: mbedtls_ssl_derive_keys:cipher_info <- [DW_OP_plus_uconst 36] [$sp+0]
	@DEBUG_VALUE: mbedtls_ssl_derive_keys:ssl <- $r5
	@DEBUG_VALUE: mbedtls_ssl_derive_keys:handshake <- [DW_OP_plus_uconst 56] [$sp+0]
	@DEBUG_VALUE: salt_len <- 64
	@DEBUG_VALUE: mbedtls_ssl_derive_keys:ret <- 0
	@DEBUG_VALUE: mbedtls_ssl_derive_keys:taglen <- 0
	@DEBUG_VALUE: mbedtls_ssl_derive_keys:master_secret_len <- 48
	.loc	1 869 22 is_stmt 1              @ ../../../ThirdParty/mbedTLS/library/ssl_tls.c:869:22
	ldr	r0, [r5, #20]
.Ltmp119:
	.loc	1 869 17 is_stmt 0              @ ../../../ThirdParty/mbedTLS/library/ssl_tls.c:869:17
	cmp	r0, #3
	beq	.LBB2_47
.Ltmp120:
@ %bb.46:
	@DEBUG_VALUE: mbedtls_ssl_derive_keys:transform <- [DW_OP_plus_uconst 40] [$sp+0]
	@DEBUG_VALUE: mbedtls_ssl_derive_keys:md_info <- [DW_OP_plus_uconst 32] [$sp+0]
	@DEBUG_VALUE: mbedtls_ssl_derive_keys:cipher_info <- [DW_OP_plus_uconst 36] [$sp+0]
	@DEBUG_VALUE: mbedtls_ssl_derive_keys:ssl <- $r5
	@DEBUG_VALUE: mbedtls_ssl_derive_keys:handshake <- [DW_OP_plus_uconst 56] [$sp+0]
	@DEBUG_VALUE: salt_len <- 64
	@DEBUG_VALUE: mbedtls_ssl_derive_keys:ret <- 0
	@DEBUG_VALUE: mbedtls_ssl_derive_keys:taglen <- 0
	@DEBUG_VALUE: mbedtls_ssl_derive_keys:master_secret_len <- 48
	.loc	1 0 17                          @ ../../../ThirdParty/mbedTLS/library/ssl_tls.c:0:17
	movs	r1, #36
.Ltmp121:
.LBB2_47:
	@DEBUG_VALUE: mbedtls_ssl_derive_keys:transform <- [DW_OP_plus_uconst 40] [$sp+0]
	@DEBUG_VALUE: mbedtls_ssl_derive_keys:md_info <- [DW_OP_plus_uconst 32] [$sp+0]
	@DEBUG_VALUE: mbedtls_ssl_derive_keys:cipher_info <- [DW_OP_plus_uconst 36] [$sp+0]
	@DEBUG_VALUE: mbedtls_ssl_derive_keys:ssl <- $r5
	@DEBUG_VALUE: mbedtls_ssl_derive_keys:handshake <- [DW_OP_plus_uconst 56] [$sp+0]
	@DEBUG_VALUE: salt_len <- 64
	@DEBUG_VALUE: mbedtls_ssl_derive_keys:ret <- 0
	@DEBUG_VALUE: mbedtls_ssl_derive_keys:taglen <- 0
	@DEBUG_VALUE: mbedtls_ssl_derive_keys:master_secret_len <- 48
	@DEBUG_VALUE: salt_len <- $r1
	.loc	1 882 13 is_stmt 1              @ ../../../ThirdParty/mbedTLS/library/ssl_tls.c:882:13
	str	r1, [sp, #20]                   @ 4-byte Spill
	adr	r0, .LCPI2_24
	str	r0, [sp]
	str	r4, [sp, #4]
	str	r1, [sp, #8]
	mov	r3, r7
	adds	r3, #125
	mov	r0, r5
.Ltmp122:
	@DEBUG_VALUE: salt_len <- [DW_OP_plus_uconst 20] [$sp+0]
	ldr	r1, [sp, #28]                   @ 4-byte Reload
	ldr	r2, __arm_cp.2_1
	bl	mbedtls_debug_print_buf
	ldr	r2, __arm_cp.2_25
.Ltmp123:
	@DEBUG_VALUE: lbl <- $r2
	@DEBUG_VALUE: salt <- [DW_OP_plus_uconst 60, DW_OP_stack_value] $sp
	.loc	1 0 13 is_stmt 0                @ ../../../ThirdParty/mbedTLS/library/ssl_tls.c:0:13
	str	r4, [sp, #24]                   @ 4-byte Spill
	ldr	r4, [sp, #56]                   @ 4-byte Reload
.Ltmp124:
.LBB2_48:
	@DEBUG_VALUE: mbedtls_ssl_derive_keys:transform <- [DW_OP_plus_uconst 40] [$sp+0]
	@DEBUG_VALUE: mbedtls_ssl_derive_keys:md_info <- [DW_OP_plus_uconst 32] [$sp+0]
	@DEBUG_VALUE: mbedtls_ssl_derive_keys:cipher_info <- [DW_OP_plus_uconst 36] [$sp+0]
	@DEBUG_VALUE: mbedtls_ssl_derive_keys:ssl <- $r5
	@DEBUG_VALUE: lbl <- $r2
	@DEBUG_VALUE: mbedtls_ssl_derive_keys:handshake <- [DW_OP_plus_uconst 56] [$sp+0]
	@DEBUG_VALUE: mbedtls_ssl_derive_keys:ret <- 0
	@DEBUG_VALUE: mbedtls_ssl_derive_keys:taglen <- 0
	@DEBUG_VALUE: mbedtls_ssl_derive_keys:master_secret_len <- 48
	@DEBUG_VALUE: salt <- [DW_OP_plus_uconst 24] [$sp+0]
	@DEBUG_VALUE: salt_len <- [DW_OP_plus_uconst 20] [$sp+0]
	@DEBUG_VALUE: lbl <- $r2
	mov	r7, r6
.Ltmp125:
	.loc	1 935 30 is_stmt 1              @ ../../../ThirdParty/mbedTLS/library/ssl_tls.c:935:30
	ldr	r0, [r6, #8]
	.loc	1 935 72 is_stmt 0              @ ../../../ThirdParty/mbedTLS/library/ssl_tls.c:935:72
	str	r0, [sp, #28]                   @ 4-byte Spill
	ldr	r1, [r6, #12]
	movs	r0, #48
	.loc	1 937 39 is_stmt 1              @ ../../../ThirdParty/mbedTLS/library/ssl_tls.c:937:39
	ldr	r3, [sp, #52]                   @ 4-byte Reload
	adds	r3, #44
	.loc	1 935 19                        @ ../../../ThirdParty/mbedTLS/library/ssl_tls.c:935:19
	ldr	r6, [sp, #20]                   @ 4-byte Reload
.Ltmp126:
	@DEBUG_VALUE: salt_len <- $r6
	str	r6, [sp]
	str	r3, [sp, #4]
	str	r0, [sp, #8]
	ldr	r0, __arm_cp.2_26
	.loc	1 935 39 is_stmt 0              @ ../../../ThirdParty/mbedTLS/library/ssl_tls.c:935:39
	adds	r4, r4, r0
	.loc	1 935 19                        @ ../../../ThirdParty/mbedTLS/library/ssl_tls.c:935:19
	mov	r0, r4
	ldr	r3, [sp, #24]                   @ 4-byte Reload
	ldr	r6, [sp, #28]                   @ 4-byte Reload
.Ltmp127:
	blx	r6
.Ltmp128:
	mov	r6, r0
.Ltmp129:
	@DEBUG_VALUE: mbedtls_ssl_derive_keys:ret <- $r6
	.loc	1 939 17 is_stmt 1              @ ../../../ThirdParty/mbedTLS/library/ssl_tls.c:939:17
	cbz	r0, .LBB2_50
.Ltmp130:
@ %bb.49:
	@DEBUG_VALUE: mbedtls_ssl_derive_keys:transform <- [DW_OP_plus_uconst 40] [$sp+0]
	@DEBUG_VALUE: mbedtls_ssl_derive_keys:md_info <- [DW_OP_plus_uconst 32] [$sp+0]
	@DEBUG_VALUE: mbedtls_ssl_derive_keys:cipher_info <- [DW_OP_plus_uconst 36] [$sp+0]
	@DEBUG_VALUE: mbedtls_ssl_derive_keys:ret <- $r6
	@DEBUG_VALUE: mbedtls_ssl_derive_keys:ssl <- $r5
	@DEBUG_VALUE: salt <- [DW_OP_plus_uconst 24] [$sp+0]
	@DEBUG_VALUE: mbedtls_ssl_derive_keys:handshake <- [DW_OP_plus_uconst 56] [$sp+0]
	@DEBUG_VALUE: mbedtls_ssl_derive_keys:taglen <- 0
	@DEBUG_VALUE: mbedtls_ssl_derive_keys:master_secret_len <- 48
	.loc	1 941 17                        @ ../../../ThirdParty/mbedTLS/library/ssl_tls.c:941:17
	str	r6, [sp, #4]
	ldr	r0, __arm_cp.2_27
	str	r0, [sp]
	ldr	r3, __arm_cp.2_2
	adds	r3, #184
	movs	r1, #1
	ldr	r2, __arm_cp.2_1
	mov	r0, r5
	bl	mbedtls_debug_print_ret
	b	.LBB2_51
.Ltmp131:
.LBB2_50:
	@DEBUG_VALUE: mbedtls_ssl_derive_keys:transform <- [DW_OP_plus_uconst 40] [$sp+0]
	@DEBUG_VALUE: mbedtls_ssl_derive_keys:md_info <- [DW_OP_plus_uconst 32] [$sp+0]
	@DEBUG_VALUE: mbedtls_ssl_derive_keys:cipher_info <- [DW_OP_plus_uconst 36] [$sp+0]
	@DEBUG_VALUE: mbedtls_ssl_derive_keys:ret <- $r6
	@DEBUG_VALUE: mbedtls_ssl_derive_keys:ssl <- $r5
	@DEBUG_VALUE: salt <- [DW_OP_plus_uconst 24] [$sp+0]
	@DEBUG_VALUE: mbedtls_ssl_derive_keys:handshake <- [DW_OP_plus_uconst 56] [$sp+0]
	@DEBUG_VALUE: mbedtls_ssl_derive_keys:taglen <- 0
	@DEBUG_VALUE: mbedtls_ssl_derive_keys:master_secret_len <- 48
	.loc	1 945 13                        @ ../../../ThirdParty/mbedTLS/library/ssl_tls.c:945:13
	ldr	r0, [r7, #12]
	adr	r1, .LCPI2_28
	str	r1, [sp]
	str	r4, [sp, #4]
	str	r0, [sp, #8]
	ldr	r3, __arm_cp.2_2
	adds	r3, #190
	movs	r1, #3
	ldr	r2, __arm_cp.2_1
	mov	r0, r5
	bl	mbedtls_debug_print_buf
	ldr	r1, __arm_cp.2_29
	.loc	1 949 13                        @ ../../../ThirdParty/mbedTLS/library/ssl_tls.c:949:13
	adds	r1, #29
	mov	r0, r4
	bl	mbedtls_platform_zeroize
.Ltmp132:
.LBB2_51:
	@DEBUG_VALUE: mbedtls_ssl_derive_keys:transform <- [DW_OP_plus_uconst 40] [$sp+0]
	@DEBUG_VALUE: mbedtls_ssl_derive_keys:md_info <- [DW_OP_plus_uconst 32] [$sp+0]
	@DEBUG_VALUE: mbedtls_ssl_derive_keys:cipher_info <- [DW_OP_plus_uconst 36] [$sp+0]
	@DEBUG_VALUE: mbedtls_ssl_derive_keys:ret <- $r6
	@DEBUG_VALUE: mbedtls_ssl_derive_keys:ssl <- $r5
	@DEBUG_VALUE: salt <- [DW_OP_plus_uconst 24] [$sp+0]
	@DEBUG_VALUE: mbedtls_ssl_derive_keys:handshake <- [DW_OP_plus_uconst 56] [$sp+0]
	@DEBUG_VALUE: mbedtls_ssl_derive_keys:taglen <- 0
	@DEBUG_VALUE: mbedtls_ssl_derive_keys:master_secret_len <- 48
	.loc	1 0 13 is_stmt 0                @ ../../../ThirdParty/mbedTLS/library/ssl_tls.c:0:13
	cmp	r6, #0
	ldr	r7, [sp, #56]                   @ 4-byte Reload
	beq	.LBB2_52
	b	.LBB2_118
.Ltmp133:
.LBB2_52:
	b	.LBB2_10
	.p2align	2
@ %bb.53:
.LCPI2_74:
.L.str.1:
	.asciz	"=> derive keys\000"
	.p2align	2
@ %bb.54:
.LCPI2_75:
	.long	.L.str
	.p2align	2
@ %bb.55:
.LCPI2_76:
	.long	757                             @ 0x2f5
	.p2align	1
.LBB2_56:
.Ltmp134:
	@DEBUG_VALUE: mbedtls_ssl_derive_keys:md_info <- [DW_OP_plus_uconst 32] [$sp+0]
	@DEBUG_VALUE: mbedtls_ssl_derive_keys:ssl <- $r6
	@DEBUG_VALUE: mbedtls_ssl_derive_keys:taglen <- 0
	@DEBUG_VALUE: mbedtls_ssl_derive_keys:master_secret_len <- 48
	ldr	r7, [sp, #40]                   @ 4-byte Reload
.Ltmp135:
	.loc	1 1028 51 is_stmt 1             @ ../../../ThirdParty/mbedTLS/library/ssl_tls.c:1028:51
	mov	r0, r7
	adds	r0, #96
	movs	r2, #1
	ldr	r5, [sp, #32]                   @ 4-byte Reload
.Ltmp136:
	@DEBUG_VALUE: mbedtls_ssl_derive_keys:md_info <- $r5
	.loc	1 1028 21 is_stmt 0             @ ../../../ThirdParty/mbedTLS/library/ssl_tls.c:1028:21
	mov	r1, r5
	bl	mbedtls_md_setup
	mov	r6, r0
.Ltmp137:
	@DEBUG_VALUE: mbedtls_ssl_derive_keys:ret <- $r6
	.loc	1 1028 83                       @ ../../../ThirdParty/mbedTLS/library/ssl_tls.c:1028:83
	cbnz	r0, .LBB2_58
.Ltmp138:
@ %bb.57:
	@DEBUG_VALUE: mbedtls_ssl_derive_keys:ret <- $r6
	@DEBUG_VALUE: mbedtls_ssl_derive_keys:md_info <- $r5
	@DEBUG_VALUE: mbedtls_ssl_derive_keys:taglen <- 0
	@DEBUG_VALUE: mbedtls_ssl_derive_keys:master_secret_len <- 48
	.loc	1 1029 55 is_stmt 1             @ ../../../ThirdParty/mbedTLS/library/ssl_tls.c:1029:55
	mov	r0, r7
	adds	r0, #108
	movs	r2, #1
	.loc	1 1029 25 is_stmt 0             @ ../../../ThirdParty/mbedTLS/library/ssl_tls.c:1029:25
	mov	r1, r5
	bl	mbedtls_md_setup
	mov	r6, r0
.Ltmp139:
	@DEBUG_VALUE: mbedtls_ssl_derive_keys:ret <- $r6
	.loc	1 1028 13 is_stmt 1             @ ../../../ThirdParty/mbedTLS/library/ssl_tls.c:1028:13
	cmp	r0, #0
	bne	.LBB2_58
	b	.LBB2_97
.Ltmp140:
.LBB2_58:
	@DEBUG_VALUE: mbedtls_ssl_derive_keys:ret <- $r6
	@DEBUG_VALUE: mbedtls_ssl_derive_keys:md_info <- $r5
	@DEBUG_VALUE: mbedtls_ssl_derive_keys:taglen <- 0
	@DEBUG_VALUE: mbedtls_ssl_derive_keys:master_secret_len <- 48
	@DEBUG_VALUE: mbedtls_ssl_derive_keys:ret <- $r6
	.loc	1 1031 13                       @ ../../../ThirdParty/mbedTLS/library/ssl_tls.c:1031:13
	str	r6, [sp, #4]
	ldr	r0, __arm_cp.2_35
	str	r0, [sp]
	movs	r1, #1
	ldr	r2, __arm_cp.2_1
	ldr	r3, __arm_cp.2_29
	ldr	r0, [sp, #44]                   @ 4-byte Reload
	bl	mbedtls_debug_print_ret
	.loc	1 1032 13                       @ ../../../ThirdParty/mbedTLS/library/ssl_tls.c:1032:13
	b	.LBB2_118
.Ltmp141:
@ %bb.59:
	.p2align	2
@ %bb.60:
	.loc	1 0 13 is_stmt 0                @ ../../../ThirdParty/mbedTLS/library/ssl_tls.c:0:13
.LCPI2_45:
	.long	.L.str
	.p2align	2
@ %bb.61:
.LCPI2_46:
	.long	757                             @ 0x2f5
	.p2align	2
@ %bb.62:
__arm_cp.2_47:
	.long	ssl_calc_finished_tls
.Lcpi_end1:
	.size	__arm_cp.2_47, .Lcpi_end1-__arm_cp.2_47
	.p2align	2
@ %bb.63:
__arm_cp.2_48:
	.long	ssl_calc_verify_tls
.Lcpi_end2:
	.size	__arm_cp.2_48, .Lcpi_end2-__arm_cp.2_48
	.p2align	2
@ %bb.64:
__arm_cp.2_49:
	.long	tls1_prf
.Lcpi_end3:
	.size	__arm_cp.2_49, .Lcpi_end3-__arm_cp.2_49
	.p2align	2
@ %bb.65:
__arm_cp.2_50:
	.long	.L.str.2
.Lcpi_end4:
	.size	__arm_cp.2_50, .Lcpi_end4-__arm_cp.2_50
	.p2align	2
@ %bb.66:
__arm_cp.2_51:
	.long	4294938368                      @ 0xffff8f00
.Lcpi_end5:
	.size	__arm_cp.2_51, .Lcpi_end5-__arm_cp.2_51
	.p2align	2
@ %bb.67:
__arm_cp.2_52:
	.long	.L.str.3
.Lcpi_end6:
	.size	__arm_cp.2_52, .Lcpi_end6-__arm_cp.2_52
	.p2align	2
@ %bb.68:
__arm_cp.2_53:
	.long	ssl_calc_finished_ssl
.Lcpi_end7:
	.size	__arm_cp.2_53, .Lcpi_end7-__arm_cp.2_53
	.p2align	2
@ %bb.69:
__arm_cp.2_54:
	.long	ssl_calc_verify_ssl
.Lcpi_end8:
	.size	__arm_cp.2_54, .Lcpi_end8-__arm_cp.2_54
	.p2align	2
@ %bb.70:
__arm_cp.2_55:
	.long	ssl3_prf
.Lcpi_end9:
	.size	__arm_cp.2_55, .Lcpi_end9-__arm_cp.2_55
	.p2align	2
@ %bb.71:
__arm_cp.2_56:
	.long	1108                            @ 0x454
.Lcpi_end10:
	.size	__arm_cp.2_56, .Lcpi_end10-__arm_cp.2_56
	.p2align	2
@ %bb.72:
__arm_cp.2_57:
	.long	2248                            @ 0x8c8
.Lcpi_end11:
	.size	__arm_cp.2_57, .Lcpi_end11-__arm_cp.2_57
	.p2align	2
@ %bb.73:
.LCPI2_58:
.L.str.5:
	.asciz	"no premaster (session resumed)\000"
	.p2align	2
@ %bb.74:
__arm_cp.2_59:
	.long	1124                            @ 0x464
.Lcpi_end12:
	.size	__arm_cp.2_59, .Lcpi_end12-__arm_cp.2_59
	.p2align	2
@ %bb.75:
__arm_cp.2_60:
	.long	1156                            @ 0x484
.Lcpi_end13:
	.size	__arm_cp.2_60, .Lcpi_end13-__arm_cp.2_60
	.p2align	2
@ %bb.76:
.LCPI2_61:
.L.str.12:
	.asciz	"key expansion\000\000"
	.p2align	2
@ %bb.77:
.LCPI2_62:
	.long	.L.str.10
	.p2align	2
@ %bb.78:
__arm_cp.2_63:
	.long	ssl_calc_finished_tls_sha256
.Lcpi_end14:
	.size	__arm_cp.2_63, .Lcpi_end14-__arm_cp.2_63
	.p2align	2
@ %bb.79:
__arm_cp.2_64:
	.long	ssl_calc_verify_tls_sha384
.Lcpi_end15:
	.size	__arm_cp.2_64, .Lcpi_end15-__arm_cp.2_64
	.p2align	2
@ %bb.80:
__arm_cp.2_65:
	.long	tls_prf_sha384
.Lcpi_end16:
	.size	__arm_cp.2_65, .Lcpi_end16-__arm_cp.2_65
	.p2align	2
@ %bb.81:
__arm_cp.2_66:
	.long	2268                            @ 0x8dc
.Lcpi_end17:
	.size	__arm_cp.2_66, .Lcpi_end17-__arm_cp.2_66
	.p2align	2
@ %bb.82:
.LCPI2_67:
.L.str.7:
	.asciz	"using extended master secret\000\000\000"
	.p2align	2
@ %bb.83:
__arm_cp.2_68:
	.long	.L.str.13
.Lcpi_end18:
	.size	__arm_cp.2_68, .Lcpi_end18-__arm_cp.2_68
	.p2align	2
@ %bb.84:
__arm_cp.2_69:
	.long	.L.str.6
.Lcpi_end19:
	.size	__arm_cp.2_69, .Lcpi_end19-__arm_cp.2_69
	.p2align	2
@ %bb.85:
__arm_cp.2_70:
	.long	.L.str.14
.Lcpi_end20:
	.size	__arm_cp.2_70, .Lcpi_end20-__arm_cp.2_70
	.p2align	2
@ %bb.86:
.LCPI2_71:
.L.str.15:
	.asciz	"key block\000\000"
	.p2align	2
@ %bb.87:
__arm_cp.2_72:
	.long	.L.str.17
.Lcpi_end21:
	.size	__arm_cp.2_72, .Lcpi_end21-__arm_cp.2_72
	.p2align	2
@ %bb.88:
.LCPI2_73:
	.long	1031                            @ 0x407
	.p2align	1
.LBB2_89:
.Ltmp142:
	@DEBUG_VALUE: mbedtls_ssl_derive_keys:key2 <- [DW_OP_plus_uconst 48] [$sp+0]
	@DEBUG_VALUE: mbedtls_ssl_derive_keys:mac_key_len <- $r5
	@DEBUG_VALUE: mbedtls_ssl_derive_keys:iv_copy_len <- $r4
	@DEBUG_VALUE: mbedtls_ssl_derive_keys:mac_dec <- [DW_OP_plus_uconst 56] [$sp+0]
	@DEBUG_VALUE: mbedtls_ssl_derive_keys:mac_enc <- [DW_OP_plus_uconst 108, DW_OP_stack_value] $sp
	@DEBUG_VALUE: mbedtls_ssl_derive_keys:key1 <- [DW_OP_plus_uconst 52] [$sp+0]
	@DEBUG_VALUE: mbedtls_ssl_derive_keys:master_secret_len <- 48
	.loc	1 1162 13 is_stmt 1             @ ../../../ThirdParty/mbedTLS/library/ssl_tls.c:1162:13
	cmp	r5, #21
	ldr	r4, [sp, #36]                   @ 4-byte Reload
.Ltmp143:
	blo	.LBB2_92
.Ltmp144:
@ %bb.90:
	@DEBUG_VALUE: mbedtls_ssl_derive_keys:key2 <- [DW_OP_plus_uconst 48] [$sp+0]
	@DEBUG_VALUE: mbedtls_ssl_derive_keys:mac_key_len <- $r5
	@DEBUG_VALUE: mbedtls_ssl_derive_keys:mac_dec <- [DW_OP_plus_uconst 56] [$sp+0]
	@DEBUG_VALUE: mbedtls_ssl_derive_keys:mac_enc <- [DW_OP_plus_uconst 108, DW_OP_stack_value] $sp
	@DEBUG_VALUE: mbedtls_ssl_derive_keys:key1 <- [DW_OP_plus_uconst 52] [$sp+0]
	@DEBUG_VALUE: mbedtls_ssl_derive_keys:master_secret_len <- 48
	.loc	1 1164 13                       @ ../../../ThirdParty/mbedTLS/library/ssl_tls.c:1164:13
	ldr	r0, __arm_cp.2_17
	str	r0, [sp]
	adds	r7, #133
	movs	r1, #1
	ldr	r2, __arm_cp.2_1
	ldr	r0, [sp, #44]                   @ 4-byte Reload
	mov	r3, r7
	bl	mbedtls_debug_print_msg
	ldr	r6, __arm_cp.2_18
	.loc	1 1165 13                       @ ../../../ThirdParty/mbedTLS/library/ssl_tls.c:1165:13
	b	.LBB2_118
.Ltmp145:
.LBB2_91:
	@DEBUG_VALUE: mbedtls_ssl_derive_keys:key2 <- [DW_OP_plus_uconst 48] [$sp+0]
	@DEBUG_VALUE: mbedtls_ssl_derive_keys:mac_key_len <- $r5
	@DEBUG_VALUE: mbedtls_ssl_derive_keys:mac_dec <- [DW_OP_plus_uconst 56] [$sp+0]
	@DEBUG_VALUE: mbedtls_ssl_derive_keys:mac_enc <- [DW_OP_plus_uconst 108, DW_OP_stack_value] $sp
	@DEBUG_VALUE: mbedtls_ssl_derive_keys:key1 <- [DW_OP_plus_uconst 52] [$sp+0]
	@DEBUG_VALUE: mbedtls_ssl_derive_keys:master_secret_len <- 48
	.loc	1 1188 13                       @ ../../../ThirdParty/mbedTLS/library/ssl_tls.c:1188:13
	ldr	r0, __arm_cp.2_17
	str	r0, [sp]
	adds	r7, #157
	movs	r1, #1
	ldr	r2, __arm_cp.2_1
	ldr	r0, [sp, #44]                   @ 4-byte Reload
	mov	r3, r7
	bl	mbedtls_debug_print_msg
	ldr	r6, __arm_cp.2_18
	.loc	1 1189 13                       @ ../../../ThirdParty/mbedTLS/library/ssl_tls.c:1189:13
	b	.LBB2_118
.Ltmp146:
.LBB2_92:
	@DEBUG_VALUE: mbedtls_ssl_derive_keys:key2 <- [DW_OP_plus_uconst 48] [$sp+0]
	@DEBUG_VALUE: mbedtls_ssl_derive_keys:mac_key_len <- $r5
	@DEBUG_VALUE: mbedtls_ssl_derive_keys:mac_dec <- [DW_OP_plus_uconst 56] [$sp+0]
	@DEBUG_VALUE: mbedtls_ssl_derive_keys:mac_enc <- [DW_OP_plus_uconst 108, DW_OP_stack_value] $sp
	@DEBUG_VALUE: mbedtls_ssl_derive_keys:key1 <- [DW_OP_plus_uconst 52] [$sp+0]
	@DEBUG_VALUE: mbedtls_ssl_derive_keys:master_secret_len <- 48
	.loc	1 1168 9                        @ ../../../ThirdParty/mbedTLS/library/ssl_tls.c:1168:9
	mov	r0, r6
	adds	r0, #56
	add	r1, sp, #108
	mov	r2, r5
	bl	__aeabi_memcpy4
	.loc	1 1169 9                        @ ../../../ThirdParty/mbedTLS/library/ssl_tls.c:1169:9
	mov	r0, r6
	adds	r0, #76
	ldr	r1, [sp, #56]                   @ 4-byte Reload
	mov	r2, r5
	bl	__aeabi_memcpy
.Ltmp147:
.LBB2_93:
	@DEBUG_VALUE: mbedtls_ssl_derive_keys:key2 <- [DW_OP_plus_uconst 48] [$sp+0]
	@DEBUG_VALUE: mbedtls_ssl_derive_keys:mac_key_len <- $r5
	@DEBUG_VALUE: mbedtls_ssl_derive_keys:mac_dec <- [DW_OP_plus_uconst 56] [$sp+0]
	@DEBUG_VALUE: mbedtls_ssl_derive_keys:mac_enc <- [DW_OP_plus_uconst 108, DW_OP_stack_value] $sp
	@DEBUG_VALUE: mbedtls_ssl_derive_keys:key1 <- [DW_OP_plus_uconst 52] [$sp+0]
	@DEBUG_VALUE: mbedtls_ssl_derive_keys:master_secret_len <- 48
	.loc	1 1258 55                       @ ../../../ThirdParty/mbedTLS/library/ssl_tls.c:1258:55
	mov	r5, r6
.Ltmp148:
	adds	r5, #120
	.loc	1 1258 21 is_stmt 0             @ ../../../ThirdParty/mbedTLS/library/ssl_tls.c:1258:21
	mov	r0, r5
	mov	r1, r4
	bl	mbedtls_cipher_setup
.Ltmp149:
	@DEBUG_VALUE: mbedtls_ssl_derive_keys:ret <- $r0
	.loc	1 1258 13                       @ ../../../ThirdParty/mbedTLS/library/ssl_tls.c:1258:13
	cbz	r0, .LBB2_95
.Ltmp150:
@ %bb.94:
	@DEBUG_VALUE: mbedtls_ssl_derive_keys:key2 <- [DW_OP_plus_uconst 48] [$sp+0]
	@DEBUG_VALUE: mbedtls_ssl_derive_keys:ret <- $r0
	@DEBUG_VALUE: mbedtls_ssl_derive_keys:mac_dec <- [DW_OP_plus_uconst 56] [$sp+0]
	@DEBUG_VALUE: mbedtls_ssl_derive_keys:mac_enc <- [DW_OP_plus_uconst 108, DW_OP_stack_value] $sp
	@DEBUG_VALUE: mbedtls_ssl_derive_keys:key1 <- [DW_OP_plus_uconst 52] [$sp+0]
	@DEBUG_VALUE: mbedtls_ssl_derive_keys:master_secret_len <- 48
	.loc	1 0 0                           @ ../../../ThirdParty/mbedTLS/library/ssl_tls.c:0:0
	mov	r6, r0
.Ltmp151:
	@DEBUG_VALUE: mbedtls_ssl_derive_keys:ret <- $r6
	.loc	1 1261 13 is_stmt 1             @ ../../../ThirdParty/mbedTLS/library/ssl_tls.c:1261:13
	str	r0, [sp, #4]
	ldr	r0, __arm_cp.2_37
	str	r0, [sp]
	adds	r7, #230
	movs	r1, #1
	ldr	r2, __arm_cp.2_1
	ldr	r0, [sp, #44]                   @ 4-byte Reload
	mov	r3, r7
	bl	mbedtls_debug_print_ret
	.loc	1 1262 13                       @ ../../../ThirdParty/mbedTLS/library/ssl_tls.c:1262:13
	b	.LBB2_118
.Ltmp152:
.LBB2_95:
	@DEBUG_VALUE: mbedtls_ssl_derive_keys:key2 <- [DW_OP_plus_uconst 48] [$sp+0]
	@DEBUG_VALUE: mbedtls_ssl_derive_keys:ret <- $r0
	@DEBUG_VALUE: mbedtls_ssl_derive_keys:mac_dec <- [DW_OP_plus_uconst 56] [$sp+0]
	@DEBUG_VALUE: mbedtls_ssl_derive_keys:mac_enc <- [DW_OP_plus_uconst 108, DW_OP_stack_value] $sp
	@DEBUG_VALUE: mbedtls_ssl_derive_keys:key1 <- [DW_OP_plus_uconst 52] [$sp+0]
	@DEBUG_VALUE: mbedtls_ssl_derive_keys:master_secret_len <- 48
	.loc	1 0 13 is_stmt 0                @ ../../../ThirdParty/mbedTLS/library/ssl_tls.c:0:13
	mov	r1, r4
	mov	r4, r6
.Ltmp153:
	.loc	1 1301 55 is_stmt 1             @ ../../../ThirdParty/mbedTLS/library/ssl_tls.c:1301:55
	adds	r4, #184
	.loc	1 1301 21 is_stmt 0             @ ../../../ThirdParty/mbedTLS/library/ssl_tls.c:1301:21
	mov	r0, r4
.Ltmp154:
	.loc	1 0 21                          @ ../../../ThirdParty/mbedTLS/library/ssl_tls.c:0:21
	mov	r7, r1
	.loc	1 1301 21                       @ ../../../ThirdParty/mbedTLS/library/ssl_tls.c:1301:21
	bl	mbedtls_cipher_setup
.Ltmp155:
	@DEBUG_VALUE: mbedtls_ssl_derive_keys:ret <- $r0
	.loc	1 1301 13                       @ ../../../ThirdParty/mbedTLS/library/ssl_tls.c:1301:13
	cbz	r0, .LBB2_99
.Ltmp156:
@ %bb.96:
	@DEBUG_VALUE: mbedtls_ssl_derive_keys:key2 <- [DW_OP_plus_uconst 48] [$sp+0]
	@DEBUG_VALUE: mbedtls_ssl_derive_keys:ret <- $r0
	@DEBUG_VALUE: mbedtls_ssl_derive_keys:mac_dec <- [DW_OP_plus_uconst 56] [$sp+0]
	@DEBUG_VALUE: mbedtls_ssl_derive_keys:mac_enc <- [DW_OP_plus_uconst 108, DW_OP_stack_value] $sp
	@DEBUG_VALUE: mbedtls_ssl_derive_keys:key1 <- [DW_OP_plus_uconst 52] [$sp+0]
	@DEBUG_VALUE: mbedtls_ssl_derive_keys:master_secret_len <- 48
	.loc	1 0 0                           @ ../../../ThirdParty/mbedTLS/library/ssl_tls.c:0:0
	mov	r6, r0
.Ltmp157:
	@DEBUG_VALUE: mbedtls_ssl_derive_keys:ret <- $r6
	.loc	1 1304 13 is_stmt 1             @ ../../../ThirdParty/mbedTLS/library/ssl_tls.c:1304:13
	str	r0, [sp, #4]
	ldr	r0, __arm_cp.2_37
	str	r0, [sp]
	movs	r1, #1
	ldr	r2, __arm_cp.2_1
	ldr	r0, [sp, #44]                   @ 4-byte Reload
	movw	r3, #1304
	bl	mbedtls_debug_print_ret
	.loc	1 1305 13                       @ ../../../ThirdParty/mbedTLS/library/ssl_tls.c:1305:13
	b	.LBB2_118
.Ltmp158:
.LBB2_97:
	@DEBUG_VALUE: mbedtls_ssl_derive_keys:ret <- $r6
	@DEBUG_VALUE: mbedtls_ssl_derive_keys:md_info <- $r5
	@DEBUG_VALUE: mbedtls_ssl_derive_keys:taglen <- 0
	@DEBUG_VALUE: mbedtls_ssl_derive_keys:master_secret_len <- 48
	.loc	1 1036 23                       @ ../../../ThirdParty/mbedTLS/library/ssl_tls.c:1036:23
	mov	r0, r5
	bl	mbedtls_md_get_size
	mov	r5, r0
.Ltmp159:
	@DEBUG_VALUE: mbedtls_ssl_derive_keys:mac_key_len <- $r5
	.loc	1 1037 27                       @ ../../../ThirdParty/mbedTLS/library/ssl_tls.c:1037:27
	str	r0, [r7, #20]
	ldr	r4, [sp, #52]                   @ 4-byte Reload
.Ltmp160:
	.loc	1 1045 22                       @ ../../../ThirdParty/mbedTLS/library/ssl_tls.c:1045:22
	ldr	r0, [r4, #124]
.Ltmp161:
	.loc	1 1045 13 is_stmt 0             @ ../../../ThirdParty/mbedTLS/library/ssl_tls.c:1045:13
	cmp	r0, #1
	mov	r6, r7
.Ltmp162:
	beq	.LBB2_101
.Ltmp163:
@ %bb.98:
	@DEBUG_VALUE: mbedtls_ssl_derive_keys:mac_key_len <- $r5
	@DEBUG_VALUE: mbedtls_ssl_derive_keys:taglen <- 0
	@DEBUG_VALUE: mbedtls_ssl_derive_keys:master_secret_len <- 48
	mov	r1, r5
	b	.LBB2_102
.Ltmp164:
.LBB2_99:
	@DEBUG_VALUE: mbedtls_ssl_derive_keys:key2 <- [DW_OP_plus_uconst 48] [$sp+0]
	@DEBUG_VALUE: mbedtls_ssl_derive_keys:ret <- $r0
	@DEBUG_VALUE: mbedtls_ssl_derive_keys:mac_dec <- [DW_OP_plus_uconst 56] [$sp+0]
	@DEBUG_VALUE: mbedtls_ssl_derive_keys:mac_enc <- [DW_OP_plus_uconst 108, DW_OP_stack_value] $sp
	@DEBUG_VALUE: mbedtls_ssl_derive_keys:key1 <- [DW_OP_plus_uconst 52] [$sp+0]
	@DEBUG_VALUE: mbedtls_ssl_derive_keys:master_secret_len <- 48
	.loc	1 0 13                          @ ../../../ThirdParty/mbedTLS/library/ssl_tls.c:0:13
	str	r4, [sp, #40]                   @ 4-byte Spill
.Ltmp165:
	.loc	1 1309 53 is_stmt 1             @ ../../../ThirdParty/mbedTLS/library/ssl_tls.c:1309:53
	ldr	r2, [r7, #4]
	movs	r3, #1
	.loc	1 1308 17                       @ ../../../ThirdParty/mbedTLS/library/ssl_tls.c:1308:17
	mov	r0, r5
.Ltmp166:
	ldr	r1, [sp, #52]                   @ 4-byte Reload
	bl	mbedtls_cipher_setkey
.Ltmp167:
	@DEBUG_VALUE: mbedtls_ssl_derive_keys:ret <- $r0
	.loc	1 1308 9 is_stmt 0              @ ../../../ThirdParty/mbedTLS/library/ssl_tls.c:1308:9
	cbz	r0, .LBB2_109
.Ltmp168:
@ %bb.100:
	@DEBUG_VALUE: mbedtls_ssl_derive_keys:key2 <- [DW_OP_plus_uconst 48] [$sp+0]
	@DEBUG_VALUE: mbedtls_ssl_derive_keys:ret <- $r0
	@DEBUG_VALUE: mbedtls_ssl_derive_keys:mac_dec <- [DW_OP_plus_uconst 56] [$sp+0]
	@DEBUG_VALUE: mbedtls_ssl_derive_keys:mac_enc <- [DW_OP_plus_uconst 108, DW_OP_stack_value] $sp
	@DEBUG_VALUE: mbedtls_ssl_derive_keys:key1 <- [DW_OP_plus_uconst 52] [$sp+0]
	@DEBUG_VALUE: mbedtls_ssl_derive_keys:master_secret_len <- 48
	.loc	1 0 0                           @ ../../../ThirdParty/mbedTLS/library/ssl_tls.c:0:0
	mov	r6, r0
.Ltmp169:
	@DEBUG_VALUE: mbedtls_ssl_derive_keys:ret <- $r6
	.loc	1 1312 9 is_stmt 1              @ ../../../ThirdParty/mbedTLS/library/ssl_tls.c:1312:9
	str	r0, [sp, #4]
	ldr	r0, __arm_cp.2_38
	str	r0, [sp]
	movw	r3, #1304
	adds	r3, #8
	movs	r1, #1
	ldr	r2, __arm_cp.2_1
	ldr	r0, [sp, #44]                   @ 4-byte Reload
	bl	mbedtls_debug_print_ret
	.loc	1 1313 9                        @ ../../../ThirdParty/mbedTLS/library/ssl_tls.c:1313:9
	b	.LBB2_118
.Ltmp170:
.LBB2_101:
	@DEBUG_VALUE: mbedtls_ssl_derive_keys:mac_key_len <- $r5
	@DEBUG_VALUE: mbedtls_ssl_derive_keys:taglen <- 0
	@DEBUG_VALUE: mbedtls_ssl_derive_keys:master_secret_len <- 48
	.loc	1 0 9 is_stmt 0                 @ ../../../ThirdParty/mbedTLS/library/ssl_tls.c:0:9
	movs	r1, #10
.Ltmp171:
.LBB2_102:
	@DEBUG_VALUE: mbedtls_ssl_derive_keys:mac_key_len <- $r5
	@DEBUG_VALUE: mbedtls_ssl_derive_keys:taglen <- 0
	@DEBUG_VALUE: mbedtls_ssl_derive_keys:master_secret_len <- 48
	ldr	r3, [sp, #36]                   @ 4-byte Reload
.Ltmp172:
	str	r1, [r6, #20]
	.loc	1 1059 41 is_stmt 1             @ ../../../ThirdParty/mbedTLS/library/ssl_tls.c:1059:41
	ldr	r0, [r3, #12]
	.loc	1 1059 26 is_stmt 0             @ ../../../ThirdParty/mbedTLS/library/ssl_tls.c:1059:26
	str	r0, [r6, #12]
.Ltmp173:
	.loc	1 1062 26 is_stmt 1             @ ../../../ThirdParty/mbedTLS/library/ssl_tls.c:1062:26
	ldrb	r2, [r3, #1]
.Ltmp174:
	.loc	1 1062 13 is_stmt 0             @ ../../../ThirdParty/mbedTLS/library/ssl_tls.c:1062:13
	cmp	r2, #7
	bne	.LBB2_104
.Ltmp175:
@ %bb.103:
	@DEBUG_VALUE: mbedtls_ssl_derive_keys:mac_key_len <- $r5
	@DEBUG_VALUE: mbedtls_ssl_derive_keys:taglen <- 0
	@DEBUG_VALUE: mbedtls_ssl_derive_keys:master_secret_len <- 48
	.loc	1 1063 31 is_stmt 1             @ ../../../ThirdParty/mbedTLS/library/ssl_tls.c:1063:31
	str	r1, [r6, #8]
	b	.LBB2_30
.Ltmp176:
.LBB2_104:
	@DEBUG_VALUE: mbedtls_ssl_derive_keys:mac_key_len <- $r5
	@DEBUG_VALUE: mbedtls_ssl_derive_keys:taglen <- 0
	@DEBUG_VALUE: mbedtls_ssl_derive_keys:master_secret_len <- 48
	.loc	1 0 0 is_stmt 0                 @ ../../../ThirdParty/mbedTLS/library/ssl_tls.c:0:0
	ldr	r3, [r3, #20]
	adds	r2, r3, r1
	mov	r7, r4
	movs	r4, #128
	.loc	1 1073 26 is_stmt 1             @ ../../../ThirdParty/mbedTLS/library/ssl_tls.c:1073:26
	ldr	r4, [r7, r4]
.Ltmp177:
	.loc	1 1073 17 is_stmt 0             @ ../../../ThirdParty/mbedTLS/library/ssl_tls.c:1073:17
	cmp	r4, #1
	beq	.LBB2_106
.Ltmp178:
@ %bb.105:
	@DEBUG_VALUE: mbedtls_ssl_derive_keys:mac_key_len <- $r5
	@DEBUG_VALUE: mbedtls_ssl_derive_keys:taglen <- 0
	@DEBUG_VALUE: mbedtls_ssl_derive_keys:master_secret_len <- 48
	.loc	1 1083 57 is_stmt 1             @ ../../../ThirdParty/mbedTLS/library/ssl_tls.c:1083:57
	udiv	r4, r1, r3
	muls	r4, r3, r4
	.loc	1 1083 37 is_stmt 0             @ ../../../ThirdParty/mbedTLS/library/ssl_tls.c:1083:37
	subs	r1, r4, r1
	adds	r2, r2, r1
.Ltmp179:
.LBB2_106:
	@DEBUG_VALUE: mbedtls_ssl_derive_keys:mac_key_len <- $r5
	@DEBUG_VALUE: mbedtls_ssl_derive_keys:taglen <- 0
	@DEBUG_VALUE: mbedtls_ssl_derive_keys:master_secret_len <- 48
	.loc	1 0 0                           @ ../../../ThirdParty/mbedTLS/library/ssl_tls.c:0:0
	str	r2, [r6, #8]
.Ltmp180:
	.loc	1 1087 22 is_stmt 1             @ ../../../ThirdParty/mbedTLS/library/ssl_tls.c:1087:22
	ldr	r1, [sp, #44]                   @ 4-byte Reload
	ldr	r1, [r1, #20]
	.loc	1 1087 63 is_stmt 0             @ ../../../ThirdParty/mbedTLS/library/ssl_tls.c:1087:63
	cmp	r1, #2
	bhs	.LBB2_107
	b	.LBB2_30
.Ltmp181:
.LBB2_107:
	@DEBUG_VALUE: mbedtls_ssl_derive_keys:mac_key_len <- $r5
	@DEBUG_VALUE: mbedtls_ssl_derive_keys:taglen <- 0
	@DEBUG_VALUE: mbedtls_ssl_derive_keys:master_secret_len <- 48
	subs	r1, r1, #2
	cmp	r1, #1
	bhi	.LBB2_114
.Ltmp182:
@ %bb.108:
	@DEBUG_VALUE: mbedtls_ssl_derive_keys:mac_key_len <- $r5
	@DEBUG_VALUE: mbedtls_ssl_derive_keys:taglen <- 0
	@DEBUG_VALUE: mbedtls_ssl_derive_keys:master_secret_len <- 48
	.loc	1 1096 39 is_stmt 1             @ ../../../ThirdParty/mbedTLS/library/ssl_tls.c:1096:39
	ldr	r1, [r6, #8]
	adds	r0, r1, r0
	b	.LBB2_29
.Ltmp183:
.LBB2_109:
	@DEBUG_VALUE: mbedtls_ssl_derive_keys:key2 <- [DW_OP_plus_uconst 48] [$sp+0]
	@DEBUG_VALUE: mbedtls_ssl_derive_keys:ret <- $r0
	@DEBUG_VALUE: mbedtls_ssl_derive_keys:mac_dec <- [DW_OP_plus_uconst 56] [$sp+0]
	@DEBUG_VALUE: mbedtls_ssl_derive_keys:mac_enc <- [DW_OP_plus_uconst 108, DW_OP_stack_value] $sp
	@DEBUG_VALUE: mbedtls_ssl_derive_keys:key1 <- [DW_OP_plus_uconst 52] [$sp+0]
	@DEBUG_VALUE: mbedtls_ssl_derive_keys:master_secret_len <- 48
	.loc	1 1317 53                       @ ../../../ThirdParty/mbedTLS/library/ssl_tls.c:1317:53
	ldr	r2, [r7, #4]
	movs	r6, #0
	.loc	1 1316 17                       @ ../../../ThirdParty/mbedTLS/library/ssl_tls.c:1316:17
	ldr	r0, [sp, #40]                   @ 4-byte Reload
.Ltmp184:
	ldr	r1, [sp, #48]                   @ 4-byte Reload
.Ltmp185:
	@DEBUG_VALUE: mbedtls_ssl_derive_keys:key2 <- $r1
	mov	r3, r6
	bl	mbedtls_cipher_setkey
.Ltmp186:
	@DEBUG_VALUE: mbedtls_ssl_derive_keys:ret <- $r0
	.loc	1 1316 9 is_stmt 0              @ ../../../ThirdParty/mbedTLS/library/ssl_tls.c:1316:9
	cbz	r0, .LBB2_111
.Ltmp187:
@ %bb.110:
	@DEBUG_VALUE: mbedtls_ssl_derive_keys:ret <- $r0
	@DEBUG_VALUE: mbedtls_ssl_derive_keys:mac_dec <- [DW_OP_plus_uconst 56] [$sp+0]
	@DEBUG_VALUE: mbedtls_ssl_derive_keys:mac_enc <- [DW_OP_plus_uconst 108, DW_OP_stack_value] $sp
	@DEBUG_VALUE: mbedtls_ssl_derive_keys:key1 <- [DW_OP_plus_uconst 52] [$sp+0]
	@DEBUG_VALUE: mbedtls_ssl_derive_keys:master_secret_len <- 48
	.loc	1 0 0                           @ ../../../ThirdParty/mbedTLS/library/ssl_tls.c:0:0
	mov	r4, r0
.Ltmp188:
	@DEBUG_VALUE: mbedtls_ssl_derive_keys:ret <- $r4
	.loc	1 1320 9 is_stmt 1              @ ../../../ThirdParty/mbedTLS/library/ssl_tls.c:1320:9
	str	r0, [sp, #4]
	ldr	r0, __arm_cp.2_38
	str	r0, [sp]
	movw	r3, #1304
	adds	r3, #16
	movs	r1, #1
	ldr	r2, __arm_cp.2_1
	ldr	r0, [sp, #44]                   @ 4-byte Reload
	bl	mbedtls_debug_print_ret
.Ltmp189:
	.loc	1 0 0 is_stmt 0                 @ ../../../ThirdParty/mbedTLS/library/ssl_tls.c:0:0
	mov	r6, r4
.Ltmp190:
	@DEBUG_VALUE: mbedtls_ssl_derive_keys:ret <- $r6
	.loc	1 1321 9 is_stmt 1              @ ../../../ThirdParty/mbedTLS/library/ssl_tls.c:1321:9
	b	.LBB2_118
.Ltmp191:
.LBB2_111:
	@DEBUG_VALUE: mbedtls_ssl_derive_keys:ret <- $r0
	@DEBUG_VALUE: mbedtls_ssl_derive_keys:mac_dec <- [DW_OP_plus_uconst 56] [$sp+0]
	@DEBUG_VALUE: mbedtls_ssl_derive_keys:mac_enc <- [DW_OP_plus_uconst 108, DW_OP_stack_value] $sp
	@DEBUG_VALUE: mbedtls_ssl_derive_keys:key1 <- [DW_OP_plus_uconst 52] [$sp+0]
	@DEBUG_VALUE: mbedtls_ssl_derive_keys:master_secret_len <- 48
	.loc	1 1325 22                       @ ../../../ThirdParty/mbedTLS/library/ssl_tls.c:1325:22
	ldrb	r0, [r7, #1]
.Ltmp192:
	.loc	1 1325 9 is_stmt 0              @ ../../../ThirdParty/mbedTLS/library/ssl_tls.c:1325:9
	cmp	r0, #2
	bne	.LBB2_117
.Ltmp193:
@ %bb.112:
	@DEBUG_VALUE: mbedtls_ssl_derive_keys:mac_dec <- [DW_OP_plus_uconst 56] [$sp+0]
	@DEBUG_VALUE: mbedtls_ssl_derive_keys:mac_enc <- [DW_OP_plus_uconst 108, DW_OP_stack_value] $sp
	@DEBUG_VALUE: mbedtls_ssl_derive_keys:key1 <- [DW_OP_plus_uconst 52] [$sp+0]
	@DEBUG_VALUE: mbedtls_ssl_derive_keys:master_secret_len <- 48
	.loc	1 0 9                           @ ../../../ThirdParty/mbedTLS/library/ssl_tls.c:0:9
	movs	r1, #4
.Ltmp194:
	.loc	1 1327 21 is_stmt 1             @ ../../../ThirdParty/mbedTLS/library/ssl_tls.c:1327:21
	mov	r0, r5
	bl	mbedtls_cipher_set_padding_mode
.Ltmp195:
	@DEBUG_VALUE: mbedtls_ssl_derive_keys:ret <- $r0
	.loc	1 1327 13 is_stmt 0             @ ../../../ThirdParty/mbedTLS/library/ssl_tls.c:1327:13
	cbz	r0, .LBB2_115
.Ltmp196:
@ %bb.113:
	@DEBUG_VALUE: mbedtls_ssl_derive_keys:ret <- $r0
	@DEBUG_VALUE: mbedtls_ssl_derive_keys:mac_dec <- [DW_OP_plus_uconst 56] [$sp+0]
	@DEBUG_VALUE: mbedtls_ssl_derive_keys:mac_enc <- [DW_OP_plus_uconst 108, DW_OP_stack_value] $sp
	@DEBUG_VALUE: mbedtls_ssl_derive_keys:key1 <- [DW_OP_plus_uconst 52] [$sp+0]
	@DEBUG_VALUE: mbedtls_ssl_derive_keys:master_secret_len <- 48
	.loc	1 0 0                           @ ../../../ThirdParty/mbedTLS/library/ssl_tls.c:0:0
	mov	r4, r0
.Ltmp197:
	@DEBUG_VALUE: mbedtls_ssl_derive_keys:ret <- $r4
	.loc	1 1330 13 is_stmt 1             @ ../../../ThirdParty/mbedTLS/library/ssl_tls.c:1330:13
	str	r0, [sp, #4]
	ldr	r0, __arm_cp.2_39
	str	r0, [sp]
	movw	r3, #1304
	adds	r3, #26
	movs	r1, #1
	ldr	r2, __arm_cp.2_1
	ldr	r0, [sp, #44]                   @ 4-byte Reload
	bl	mbedtls_debug_print_ret
.Ltmp198:
	.loc	1 0 0 is_stmt 0                 @ ../../../ThirdParty/mbedTLS/library/ssl_tls.c:0:0
	mov	r6, r4
.Ltmp199:
	@DEBUG_VALUE: mbedtls_ssl_derive_keys:ret <- $r6
	.loc	1 1331 13 is_stmt 1             @ ../../../ThirdParty/mbedTLS/library/ssl_tls.c:1331:13
	b	.LBB2_118
.Ltmp200:
.LBB2_114:
	@DEBUG_VALUE: mbedtls_ssl_derive_keys:mac_key_len <- $r5
	@DEBUG_VALUE: mbedtls_ssl_derive_keys:taglen <- 0
	@DEBUG_VALUE: mbedtls_ssl_derive_keys:master_secret_len <- 48
	.loc	1 1101 21                       @ ../../../ThirdParty/mbedTLS/library/ssl_tls.c:1101:21
	ldr	r0, __arm_cp.2_17
	str	r0, [sp]
	ldr	r3, __arm_cp.2_29
	adds	r3, #70
	movs	r1, #1
	ldr	r2, __arm_cp.2_1
	ldr	r0, [sp, #44]                   @ 4-byte Reload
	bl	mbedtls_debug_print_msg
	ldr	r6, __arm_cp.2_18
	.loc	1 1102 21                       @ ../../../ThirdParty/mbedTLS/library/ssl_tls.c:1102:21
	b	.LBB2_118
.Ltmp201:
.LBB2_115:
	@DEBUG_VALUE: mbedtls_ssl_derive_keys:ret <- $r0
	@DEBUG_VALUE: mbedtls_ssl_derive_keys:mac_dec <- [DW_OP_plus_uconst 56] [$sp+0]
	@DEBUG_VALUE: mbedtls_ssl_derive_keys:mac_enc <- [DW_OP_plus_uconst 108, DW_OP_stack_value] $sp
	@DEBUG_VALUE: mbedtls_ssl_derive_keys:key1 <- [DW_OP_plus_uconst 52] [$sp+0]
	@DEBUG_VALUE: mbedtls_ssl_derive_keys:master_secret_len <- 48
	.loc	1 0 21 is_stmt 0                @ ../../../ThirdParty/mbedTLS/library/ssl_tls.c:0:21
	movs	r1, #4
.Ltmp202:
	.loc	1 1334 21 is_stmt 1             @ ../../../ThirdParty/mbedTLS/library/ssl_tls.c:1334:21
	ldr	r0, [sp, #40]                   @ 4-byte Reload
.Ltmp203:
	bl	mbedtls_cipher_set_padding_mode
.Ltmp204:
	@DEBUG_VALUE: mbedtls_ssl_derive_keys:ret <- $r0
	.loc	1 1334 13 is_stmt 0             @ ../../../ThirdParty/mbedTLS/library/ssl_tls.c:1334:13
	cbz	r0, .LBB2_117
.Ltmp205:
@ %bb.116:
	@DEBUG_VALUE: mbedtls_ssl_derive_keys:ret <- $r0
	@DEBUG_VALUE: mbedtls_ssl_derive_keys:mac_dec <- [DW_OP_plus_uconst 56] [$sp+0]
	@DEBUG_VALUE: mbedtls_ssl_derive_keys:mac_enc <- [DW_OP_plus_uconst 108, DW_OP_stack_value] $sp
	@DEBUG_VALUE: mbedtls_ssl_derive_keys:key1 <- [DW_OP_plus_uconst 52] [$sp+0]
	@DEBUG_VALUE: mbedtls_ssl_derive_keys:master_secret_len <- 48
	.loc	1 0 0                           @ ../../../ThirdParty/mbedTLS/library/ssl_tls.c:0:0
	mov	r4, r0
.Ltmp206:
	@DEBUG_VALUE: mbedtls_ssl_derive_keys:ret <- $r4
	.loc	1 1337 13 is_stmt 1             @ ../../../ThirdParty/mbedTLS/library/ssl_tls.c:1337:13
	str	r0, [sp, #4]
	ldr	r0, __arm_cp.2_39
	str	r0, [sp]
	movw	r3, #1304
	adds	r3, #33
	movs	r1, #1
	ldr	r2, __arm_cp.2_1
	ldr	r0, [sp, #44]                   @ 4-byte Reload
	bl	mbedtls_debug_print_ret
.Ltmp207:
	.loc	1 0 0 is_stmt 0                 @ ../../../ThirdParty/mbedTLS/library/ssl_tls.c:0:0
	mov	r6, r4
.Ltmp208:
	@DEBUG_VALUE: mbedtls_ssl_derive_keys:ret <- $r6
	.loc	1 1338 13 is_stmt 1             @ ../../../ThirdParty/mbedTLS/library/ssl_tls.c:1338:13
	b	.LBB2_118
.Ltmp209:
.LBB2_117:
	@DEBUG_VALUE: mbedtls_ssl_derive_keys:mac_dec <- [DW_OP_plus_uconst 56] [$sp+0]
	@DEBUG_VALUE: mbedtls_ssl_derive_keys:mac_enc <- [DW_OP_plus_uconst 108, DW_OP_stack_value] $sp
	@DEBUG_VALUE: mbedtls_ssl_derive_keys:key1 <- [DW_OP_plus_uconst 52] [$sp+0]
	@DEBUG_VALUE: mbedtls_ssl_derive_keys:master_secret_len <- 48
	.loc	1 0 13 is_stmt 0                @ ../../../ThirdParty/mbedTLS/library/ssl_tls.c:0:13
	add	r0, sp, #108
	.loc	1 1343 5 is_stmt 1              @ ../../../ThirdParty/mbedTLS/library/ssl_tls.c:1343:5
	movw	r1, #256
	bl	mbedtls_platform_zeroize
	.loc	1 1377 5                        @ ../../../ThirdParty/mbedTLS/library/ssl_tls.c:1377:5
	ldr	r0, __arm_cp.2_40
	str	r0, [sp]
	movw	r3, #1304
	adds	r3, #73
	movs	r1, #2
	ldr	r2, __arm_cp.2_1
	ldr	r0, [sp, #44]                   @ 4-byte Reload
	bl	mbedtls_debug_print_msg
.Ltmp210:
.LBB2_118:
	@DEBUG_VALUE: mbedtls_ssl_derive_keys:master_secret_len <- 48
	.loc	1 1380 1                        @ ../../../ThirdParty/mbedTLS/library/ssl_tls.c:1380:1
	mov	r0, r6
	add	sp, #428
	pop	{r4, r5, r6, r7, pc}
.Ltmp211:
	.p2align	2
@ %bb.119:
	.loc	1 0 1 is_stmt 0                 @ ../../../ThirdParty/mbedTLS/library/ssl_tls.c:0:1
__arm_cp.2_1:
	.long	.L.str
.Lcpi_end22:
	.size	__arm_cp.2_1, .Lcpi_end22-__arm_cp.2_1
__arm_cp.2_2:
	.long	757                             @ 0x2f5
.Lcpi_end23:
	.size	__arm_cp.2_2, .Lcpi_end23-__arm_cp.2_2
__arm_cp.2_11:
	.long	ssl_calc_finished_tls_sha384
.Lcpi_end24:
	.size	__arm_cp.2_11, .Lcpi_end24-__arm_cp.2_11
__arm_cp.2_14:
	.long	ssl_calc_verify_tls_sha256
.Lcpi_end25:
	.size	__arm_cp.2_14, .Lcpi_end25-__arm_cp.2_14
__arm_cp.2_16:
	.long	tls_prf_sha256
.Lcpi_end26:
	.size	__arm_cp.2_16, .Lcpi_end26-__arm_cp.2_16
__arm_cp.2_17:
	.long	.L.str.4
.Lcpi_end27:
	.size	__arm_cp.2_17, .Lcpi_end27-__arm_cp.2_17
__arm_cp.2_18:
	.long	4294939648                      @ 0xffff9400
.Lcpi_end28:
	.size	__arm_cp.2_18, .Lcpi_end28-__arm_cp.2_18
.LCPI2_24:
.L.str.9:
	.asciz	"session hash\000\000\000"
__arm_cp.2_25:
	.long	.L.str.8
.Lcpi_end29:
	.size	__arm_cp.2_25, .Lcpi_end29-__arm_cp.2_25
__arm_cp.2_26:
	.long	1188                            @ 0x4a4
.Lcpi_end30:
	.size	__arm_cp.2_26, .Lcpi_end30-__arm_cp.2_26
__arm_cp.2_27:
	.long	.L.str.10
.Lcpi_end31:
	.size	__arm_cp.2_27, .Lcpi_end31-__arm_cp.2_27
.LCPI2_28:
.L.str.11:
	.asciz	"premaster secret\000\000\000"
__arm_cp.2_29:
	.long	1031                            @ 0x407
.Lcpi_end32:
	.size	__arm_cp.2_29, .Lcpi_end32-__arm_cp.2_29
__arm_cp.2_35:
	.long	.L.str.16
.Lcpi_end33:
	.size	__arm_cp.2_35, .Lcpi_end33-__arm_cp.2_35
__arm_cp.2_37:
	.long	.L.str.18
.Lcpi_end34:
	.size	__arm_cp.2_37, .Lcpi_end34-__arm_cp.2_37
__arm_cp.2_38:
	.long	.L.str.19
.Lcpi_end35:
	.size	__arm_cp.2_38, .Lcpi_end35-__arm_cp.2_38
__arm_cp.2_39:
	.long	.L.str.20
.Lcpi_end36:
	.size	__arm_cp.2_39, .Lcpi_end36-__arm_cp.2_39
__arm_cp.2_40:
	.long	.L.str.21
.Lcpi_end37:
	.size	__arm_cp.2_40, .Lcpi_end37-__arm_cp.2_40
.Lfunc_end2:
	.size	mbedtls_ssl_derive_keys, .Lfunc_end2-mbedtls_ssl_derive_keys
	.cfi_endproc
	.cantunwind
	.fnend
                                        @ -- End function
	.section	.text.ssl3_prf,"ax",%progbits
	.p2align	1                               @ -- Begin function ssl3_prf
	.type	ssl3_prf,%function
	.code	16                              @ @ssl3_prf
	.thumb_func
ssl3_prf:
.Lfunc_begin3:
	.loc	1 363 0 is_stmt 1               @ ../../../ThirdParty/mbedTLS/library/ssl_tls.c:363:0
	.fnstart
	.cfi_startproc
@ %bb.0:
	@DEBUG_VALUE: ssl3_prf:secret <- $r0
	@DEBUG_VALUE: ssl3_prf:slen <- $r1
	@DEBUG_VALUE: ssl3_prf:label <- $r2
	@DEBUG_VALUE: ssl3_prf:random <- $r3
	.save	{r4, r5, r6, r7, lr}
	push	{r4, r5, r6, r7, lr}
	.cfi_def_cfa_offset 20
	.cfi_offset lr, -4
	.cfi_offset r7, -8
	.cfi_offset r6, -12
	.cfi_offset r5, -16
	.cfi_offset r4, -20
	.pad	#236
	sub	sp, #236
	.cfi_def_cfa_offset 256
	str	r3, [sp, #8]                    @ 4-byte Spill
	str	r1, [sp, #16]                   @ 4-byte Spill
	mov	r6, r0
.Ltmp212:
	@DEBUG_VALUE: ssl3_prf:ret <- 0
	@DEBUG_VALUE: ssl3_prf:dlen <- [DW_OP_plus_uconst 264] [$sp+0]
	@DEBUG_VALUE: ssl3_prf:dstbuf <- [DW_OP_plus_uconst 260] [$sp+0]
	@DEBUG_VALUE: ssl3_prf:rlen <- [DW_OP_plus_uconst 256] [$sp+0]
	@DEBUG_VALUE: ssl3_prf:random <- [DW_OP_plus_uconst 8] [$sp+0]
	@DEBUG_VALUE: ssl3_prf:slen <- [DW_OP_plus_uconst 16] [$sp+0]
	@DEBUG_VALUE: ssl3_prf:secret <- $r6
	add	r0, sp, #148
.Ltmp213:
	.loc	1 372 5 prologue_end            @ ../../../ThirdParty/mbedTLS/library/ssl_tls.c:372:5
	bl	mbedtls_md5_init
.Ltmp214:
	@DEBUG_VALUE: ssl3_prf:label <- [DW_OP_LLVM_entry_value 1] $r2
	.loc	1 0 5 is_stmt 0                 @ ../../../ThirdParty/mbedTLS/library/ssl_tls.c:0:5
	add	r0, sp, #56
	.loc	1 373 5 is_stmt 1               @ ../../../ThirdParty/mbedTLS/library/ssl_tls.c:373:5
	bl	mbedtls_sha1_init
	ldr	r0, [sp, #264]
.Ltmp215:
	@DEBUG_VALUE: ssl3_prf:i <- 0
	.loc	1 0 0 is_stmt 0                 @ ../../../ThirdParty/mbedTLS/library/ssl_tls.c:0:0
	lsrs	r0, r0, #4
	str	r0, [sp, #12]                   @ 4-byte Spill
	movs	r0, #0
	ldr	r7, [sp, #260]
	ldr	r1, [sp, #256]
	str	r1, [sp, #4]                    @ 4-byte Spill
	str	r0, [sp]                        @ 4-byte Spill
.Ltmp216:
.LBB3_1:                                @ =>This Inner Loop Header: Depth=1
	@DEBUG_VALUE: ssl3_prf:secret <- $r6
	@DEBUG_VALUE: ssl3_prf:slen <- [DW_OP_plus_uconst 16] [$sp+0]
	@DEBUG_VALUE: ssl3_prf:random <- [DW_OP_plus_uconst 8] [$sp+0]
	@DEBUG_VALUE: ssl3_prf:rlen <- [DW_OP_plus_uconst 256] [$sp+0]
	@DEBUG_VALUE: ssl3_prf:dstbuf <- [DW_OP_plus_uconst 260] [$sp+0]
	@DEBUG_VALUE: ssl3_prf:dlen <- [DW_OP_plus_uconst 264] [$sp+0]
	@DEBUG_VALUE: ssl3_prf:label <- [DW_OP_LLVM_entry_value 1] $r2
	@DEBUG_VALUE: ssl3_prf:ret <- 0
	@DEBUG_VALUE: ssl3_prf:i <- $r0
	.loc	1 383 5 is_stmt 1               @ ../../../ThirdParty/mbedTLS/library/ssl_tls.c:383:5
	ldr	r1, [sp, #12]                   @ 4-byte Reload
	cmp	r1, r0
	beq	.LBB3_11
.Ltmp217:
@ %bb.2:                                @   in Loop: Header=BB3_1 Depth=1
	@DEBUG_VALUE: ssl3_prf:secret <- $r6
	@DEBUG_VALUE: ssl3_prf:i <- $r0
	@DEBUG_VALUE: ssl3_prf:slen <- [DW_OP_plus_uconst 16] [$sp+0]
	@DEBUG_VALUE: ssl3_prf:random <- [DW_OP_plus_uconst 8] [$sp+0]
	@DEBUG_VALUE: ssl3_prf:rlen <- [DW_OP_plus_uconst 256] [$sp+0]
	@DEBUG_VALUE: ssl3_prf:dstbuf <- [DW_OP_plus_uconst 260] [$sp+0]
	@DEBUG_VALUE: ssl3_prf:dlen <- [DW_OP_plus_uconst 264] [$sp+0]
	@DEBUG_VALUE: ssl3_prf:label <- [DW_OP_LLVM_entry_value 1] $r2
	@DEBUG_VALUE: ssl3_prf:ret <- 0
	.loc	1 385 55                        @ ../../../ThirdParty/mbedTLS/library/ssl_tls.c:385:55
	adds	r4, r0, #1
	.loc	1 385 26 is_stmt 0              @ ../../../ThirdParty/mbedTLS/library/ssl_tls.c:385:26
	adds	r0, #65
.Ltmp218:
	.loc	1 385 9                         @ ../../../ThirdParty/mbedTLS/library/ssl_tls.c:385:9
	uxtb	r2, r0
	add	r0, sp, #40
	mov	r1, r4
	bl	__aeabi_memset4
	add	r0, sp, #56
.Ltmp219:
	.loc	1 387 21 is_stmt 1              @ ../../../ThirdParty/mbedTLS/library/ssl_tls.c:387:21
	bl	mbedtls_sha1_starts_ret
.Ltmp220:
	@DEBUG_VALUE: ssl3_prf:ret <- $r0
	.loc	1 387 13 is_stmt 0              @ ../../../ThirdParty/mbedTLS/library/ssl_tls.c:387:13
	cbnz	r0, .LBB3_12
.Ltmp221:
@ %bb.3:                                @   in Loop: Header=BB3_1 Depth=1
	@DEBUG_VALUE: ssl3_prf:secret <- $r6
	@DEBUG_VALUE: ssl3_prf:ret <- $r0
	@DEBUG_VALUE: ssl3_prf:slen <- [DW_OP_plus_uconst 16] [$sp+0]
	@DEBUG_VALUE: ssl3_prf:random <- [DW_OP_plus_uconst 8] [$sp+0]
	@DEBUG_VALUE: ssl3_prf:rlen <- [DW_OP_plus_uconst 256] [$sp+0]
	@DEBUG_VALUE: ssl3_prf:dstbuf <- [DW_OP_plus_uconst 260] [$sp+0]
	@DEBUG_VALUE: ssl3_prf:dlen <- [DW_OP_plus_uconst 264] [$sp+0]
	@DEBUG_VALUE: ssl3_prf:label <- [DW_OP_LLVM_entry_value 1] $r2
	.loc	1 0 13                          @ ../../../ThirdParty/mbedTLS/library/ssl_tls.c:0:13
	add	r0, sp, #56
.Ltmp222:
	add	r1, sp, #40
.Ltmp223:
	.loc	1 389 21 is_stmt 1              @ ../../../ThirdParty/mbedTLS/library/ssl_tls.c:389:21
	mov	r2, r4
	bl	mbedtls_sha1_update_ret
.Ltmp224:
	@DEBUG_VALUE: ssl3_prf:ret <- $r0
	.loc	1 389 13 is_stmt 0              @ ../../../ThirdParty/mbedTLS/library/ssl_tls.c:389:13
	cbnz	r0, .LBB3_13
.Ltmp225:
@ %bb.4:                                @   in Loop: Header=BB3_1 Depth=1
	@DEBUG_VALUE: ssl3_prf:secret <- $r6
	@DEBUG_VALUE: ssl3_prf:ret <- $r0
	@DEBUG_VALUE: ssl3_prf:slen <- [DW_OP_plus_uconst 16] [$sp+0]
	@DEBUG_VALUE: ssl3_prf:random <- [DW_OP_plus_uconst 8] [$sp+0]
	@DEBUG_VALUE: ssl3_prf:rlen <- [DW_OP_plus_uconst 256] [$sp+0]
	@DEBUG_VALUE: ssl3_prf:dstbuf <- [DW_OP_plus_uconst 260] [$sp+0]
	@DEBUG_VALUE: ssl3_prf:dlen <- [DW_OP_plus_uconst 264] [$sp+0]
	@DEBUG_VALUE: ssl3_prf:label <- [DW_OP_LLVM_entry_value 1] $r2
	.loc	1 0 13                          @ ../../../ThirdParty/mbedTLS/library/ssl_tls.c:0:13
	add	r0, sp, #56
.Ltmp226:
	.loc	1 391 21 is_stmt 1              @ ../../../ThirdParty/mbedTLS/library/ssl_tls.c:391:21
	mov	r1, r6
	ldr	r2, [sp, #16]                   @ 4-byte Reload
	bl	mbedtls_sha1_update_ret
.Ltmp227:
	@DEBUG_VALUE: ssl3_prf:ret <- $r0
	.loc	1 391 13 is_stmt 0              @ ../../../ThirdParty/mbedTLS/library/ssl_tls.c:391:13
	cbnz	r0, .LBB3_14
.Ltmp228:
@ %bb.5:                                @   in Loop: Header=BB3_1 Depth=1
	@DEBUG_VALUE: ssl3_prf:secret <- $r6
	@DEBUG_VALUE: ssl3_prf:ret <- $r0
	@DEBUG_VALUE: ssl3_prf:slen <- [DW_OP_plus_uconst 16] [$sp+0]
	@DEBUG_VALUE: ssl3_prf:random <- [DW_OP_plus_uconst 8] [$sp+0]
	@DEBUG_VALUE: ssl3_prf:rlen <- [DW_OP_plus_uconst 256] [$sp+0]
	@DEBUG_VALUE: ssl3_prf:dstbuf <- [DW_OP_plus_uconst 260] [$sp+0]
	@DEBUG_VALUE: ssl3_prf:dlen <- [DW_OP_plus_uconst 264] [$sp+0]
	@DEBUG_VALUE: ssl3_prf:label <- [DW_OP_LLVM_entry_value 1] $r2
	.loc	1 0 13                          @ ../../../ThirdParty/mbedTLS/library/ssl_tls.c:0:13
	add	r0, sp, #56
.Ltmp229:
	.loc	1 393 21 is_stmt 1              @ ../../../ThirdParty/mbedTLS/library/ssl_tls.c:393:21
	ldr	r1, [sp, #8]                    @ 4-byte Reload
	ldr	r2, [sp, #4]                    @ 4-byte Reload
	bl	mbedtls_sha1_update_ret
.Ltmp230:
	@DEBUG_VALUE: ssl3_prf:ret <- $r0
	.loc	1 393 13 is_stmt 0              @ ../../../ThirdParty/mbedTLS/library/ssl_tls.c:393:13
	cbnz	r0, .LBB3_15
.Ltmp231:
@ %bb.6:                                @   in Loop: Header=BB3_1 Depth=1
	@DEBUG_VALUE: ssl3_prf:secret <- $r6
	@DEBUG_VALUE: ssl3_prf:ret <- $r0
	@DEBUG_VALUE: ssl3_prf:slen <- [DW_OP_plus_uconst 16] [$sp+0]
	@DEBUG_VALUE: ssl3_prf:random <- [DW_OP_plus_uconst 8] [$sp+0]
	@DEBUG_VALUE: ssl3_prf:rlen <- [DW_OP_plus_uconst 256] [$sp+0]
	@DEBUG_VALUE: ssl3_prf:dstbuf <- [DW_OP_plus_uconst 260] [$sp+0]
	@DEBUG_VALUE: ssl3_prf:dlen <- [DW_OP_plus_uconst 264] [$sp+0]
	@DEBUG_VALUE: ssl3_prf:label <- [DW_OP_LLVM_entry_value 1] $r2
	.loc	1 0 13                          @ ../../../ThirdParty/mbedTLS/library/ssl_tls.c:0:13
	add	r0, sp, #56
.Ltmp232:
	add	r1, sp, #20
.Ltmp233:
	.loc	1 395 21 is_stmt 1              @ ../../../ThirdParty/mbedTLS/library/ssl_tls.c:395:21
	bl	mbedtls_sha1_finish_ret
.Ltmp234:
	@DEBUG_VALUE: ssl3_prf:ret <- $r0
	.loc	1 395 13 is_stmt 0              @ ../../../ThirdParty/mbedTLS/library/ssl_tls.c:395:13
	cbnz	r0, .LBB3_16
.Ltmp235:
@ %bb.7:                                @   in Loop: Header=BB3_1 Depth=1
	@DEBUG_VALUE: ssl3_prf:secret <- $r6
	@DEBUG_VALUE: ssl3_prf:ret <- $r0
	@DEBUG_VALUE: ssl3_prf:slen <- [DW_OP_plus_uconst 16] [$sp+0]
	@DEBUG_VALUE: ssl3_prf:random <- [DW_OP_plus_uconst 8] [$sp+0]
	@DEBUG_VALUE: ssl3_prf:rlen <- [DW_OP_plus_uconst 256] [$sp+0]
	@DEBUG_VALUE: ssl3_prf:dstbuf <- [DW_OP_plus_uconst 260] [$sp+0]
	@DEBUG_VALUE: ssl3_prf:dlen <- [DW_OP_plus_uconst 264] [$sp+0]
	@DEBUG_VALUE: ssl3_prf:label <- [DW_OP_LLVM_entry_value 1] $r2
	.loc	1 0 13                          @ ../../../ThirdParty/mbedTLS/library/ssl_tls.c:0:13
	add	r0, sp, #148
.Ltmp236:
	.loc	1 398 21 is_stmt 1              @ ../../../ThirdParty/mbedTLS/library/ssl_tls.c:398:21
	bl	mbedtls_md5_starts_ret
.Ltmp237:
	@DEBUG_VALUE: ssl3_prf:ret <- $r0
	.loc	1 398 13 is_stmt 0              @ ../../../ThirdParty/mbedTLS/library/ssl_tls.c:398:13
	cbnz	r0, .LBB3_17
.Ltmp238:
@ %bb.8:                                @   in Loop: Header=BB3_1 Depth=1
	@DEBUG_VALUE: ssl3_prf:secret <- $r6
	@DEBUG_VALUE: ssl3_prf:ret <- $r0
	@DEBUG_VALUE: ssl3_prf:slen <- [DW_OP_plus_uconst 16] [$sp+0]
	@DEBUG_VALUE: ssl3_prf:random <- [DW_OP_plus_uconst 8] [$sp+0]
	@DEBUG_VALUE: ssl3_prf:rlen <- [DW_OP_plus_uconst 256] [$sp+0]
	@DEBUG_VALUE: ssl3_prf:dstbuf <- [DW_OP_plus_uconst 260] [$sp+0]
	@DEBUG_VALUE: ssl3_prf:dlen <- [DW_OP_plus_uconst 264] [$sp+0]
	@DEBUG_VALUE: ssl3_prf:label <- [DW_OP_LLVM_entry_value 1] $r2
	.loc	1 0 13                          @ ../../../ThirdParty/mbedTLS/library/ssl_tls.c:0:13
	add	r0, sp, #148
.Ltmp239:
	.loc	1 400 21 is_stmt 1              @ ../../../ThirdParty/mbedTLS/library/ssl_tls.c:400:21
	mov	r1, r6
	ldr	r2, [sp, #16]                   @ 4-byte Reload
	bl	mbedtls_md5_update_ret
.Ltmp240:
	@DEBUG_VALUE: ssl3_prf:ret <- $r0
	.loc	1 400 13 is_stmt 0              @ ../../../ThirdParty/mbedTLS/library/ssl_tls.c:400:13
	cbnz	r0, .LBB3_18
.Ltmp241:
@ %bb.9:                                @   in Loop: Header=BB3_1 Depth=1
	@DEBUG_VALUE: ssl3_prf:secret <- $r6
	@DEBUG_VALUE: ssl3_prf:ret <- $r0
	@DEBUG_VALUE: ssl3_prf:slen <- [DW_OP_plus_uconst 16] [$sp+0]
	@DEBUG_VALUE: ssl3_prf:random <- [DW_OP_plus_uconst 8] [$sp+0]
	@DEBUG_VALUE: ssl3_prf:rlen <- [DW_OP_plus_uconst 256] [$sp+0]
	@DEBUG_VALUE: ssl3_prf:dstbuf <- [DW_OP_plus_uconst 260] [$sp+0]
	@DEBUG_VALUE: ssl3_prf:dlen <- [DW_OP_plus_uconst 264] [$sp+0]
	@DEBUG_VALUE: ssl3_prf:label <- [DW_OP_LLVM_entry_value 1] $r2
	.loc	1 0 13                          @ ../../../ThirdParty/mbedTLS/library/ssl_tls.c:0:13
	add	r0, sp, #148
.Ltmp242:
	add	r1, sp, #20
	movs	r2, #20
.Ltmp243:
	.loc	1 402 21 is_stmt 1              @ ../../../ThirdParty/mbedTLS/library/ssl_tls.c:402:21
	bl	mbedtls_md5_update_ret
.Ltmp244:
	@DEBUG_VALUE: ssl3_prf:ret <- $r0
	.loc	1 402 13 is_stmt 0              @ ../../../ThirdParty/mbedTLS/library/ssl_tls.c:402:13
	cbnz	r0, .LBB3_19
.Ltmp245:
@ %bb.10:                               @   in Loop: Header=BB3_1 Depth=1
	@DEBUG_VALUE: ssl3_prf:secret <- $r6
	@DEBUG_VALUE: ssl3_prf:ret <- $r0
	@DEBUG_VALUE: ssl3_prf:slen <- [DW_OP_plus_uconst 16] [$sp+0]
	@DEBUG_VALUE: ssl3_prf:random <- [DW_OP_plus_uconst 8] [$sp+0]
	@DEBUG_VALUE: ssl3_prf:rlen <- [DW_OP_plus_uconst 256] [$sp+0]
	@DEBUG_VALUE: ssl3_prf:dstbuf <- [DW_OP_plus_uconst 260] [$sp+0]
	@DEBUG_VALUE: ssl3_prf:dlen <- [DW_OP_plus_uconst 264] [$sp+0]
	@DEBUG_VALUE: ssl3_prf:label <- [DW_OP_LLVM_entry_value 1] $r2
	.loc	1 0 13                          @ ../../../ThirdParty/mbedTLS/library/ssl_tls.c:0:13
	add	r0, sp, #148
.Ltmp246:
	.loc	1 404 21 is_stmt 1              @ ../../../ThirdParty/mbedTLS/library/ssl_tls.c:404:21
	mov	r1, r7
	bl	mbedtls_md5_finish_ret
	mov	r5, r0
.Ltmp247:
	@DEBUG_VALUE: ssl3_prf:ret <- $r5
	.loc	1 404 13 is_stmt 0              @ ../../../ThirdParty/mbedTLS/library/ssl_tls.c:404:13
	adds	r7, #16
	cmp	r0, #0
.Ltmp248:
	.loc	1 0 0                           @ ../../../ThirdParty/mbedTLS/library/ssl_tls.c:0:0
	mov	r0, r4
.Ltmp249:
	.loc	1 404 13                        @ ../../../ThirdParty/mbedTLS/library/ssl_tls.c:404:13
	beq	.LBB3_1
	b	.LBB3_20
.Ltmp250:
.LBB3_11:
	@DEBUG_VALUE: ssl3_prf:secret <- $r6
	@DEBUG_VALUE: ssl3_prf:i <- $r0
	@DEBUG_VALUE: ssl3_prf:slen <- [DW_OP_plus_uconst 16] [$sp+0]
	@DEBUG_VALUE: ssl3_prf:random <- [DW_OP_plus_uconst 8] [$sp+0]
	@DEBUG_VALUE: ssl3_prf:rlen <- [DW_OP_plus_uconst 256] [$sp+0]
	@DEBUG_VALUE: ssl3_prf:dstbuf <- [DW_OP_plus_uconst 260] [$sp+0]
	@DEBUG_VALUE: ssl3_prf:dlen <- [DW_OP_plus_uconst 264] [$sp+0]
	@DEBUG_VALUE: ssl3_prf:label <- [DW_OP_LLVM_entry_value 1] $r2
	@DEBUG_VALUE: ssl3_prf:ret <- 0
	.loc	1 0 0                           @ ../../../ThirdParty/mbedTLS/library/ssl_tls.c:0:0
	ldr	r5, [sp]                        @ 4-byte Reload
	b	.LBB3_20
.Ltmp251:
.LBB3_12:
	@DEBUG_VALUE: ssl3_prf:secret <- $r6
	@DEBUG_VALUE: ssl3_prf:ret <- $r0
	@DEBUG_VALUE: ssl3_prf:slen <- [DW_OP_plus_uconst 16] [$sp+0]
	@DEBUG_VALUE: ssl3_prf:random <- [DW_OP_plus_uconst 8] [$sp+0]
	@DEBUG_VALUE: ssl3_prf:rlen <- [DW_OP_plus_uconst 256] [$sp+0]
	@DEBUG_VALUE: ssl3_prf:dstbuf <- [DW_OP_plus_uconst 260] [$sp+0]
	@DEBUG_VALUE: ssl3_prf:dlen <- [DW_OP_plus_uconst 264] [$sp+0]
	@DEBUG_VALUE: ssl3_prf:label <- [DW_OP_LLVM_entry_value 1] $r2
	mov	r5, r0
.Ltmp252:
	@DEBUG_VALUE: ssl3_prf:ret <- $r5
	b	.LBB3_20
.Ltmp253:
.LBB3_13:
	@DEBUG_VALUE: ssl3_prf:secret <- $r6
	@DEBUG_VALUE: ssl3_prf:ret <- $r0
	@DEBUG_VALUE: ssl3_prf:slen <- [DW_OP_plus_uconst 16] [$sp+0]
	@DEBUG_VALUE: ssl3_prf:random <- [DW_OP_plus_uconst 8] [$sp+0]
	@DEBUG_VALUE: ssl3_prf:rlen <- [DW_OP_plus_uconst 256] [$sp+0]
	@DEBUG_VALUE: ssl3_prf:dstbuf <- [DW_OP_plus_uconst 260] [$sp+0]
	@DEBUG_VALUE: ssl3_prf:dlen <- [DW_OP_plus_uconst 264] [$sp+0]
	@DEBUG_VALUE: ssl3_prf:label <- [DW_OP_LLVM_entry_value 1] $r2
	mov	r5, r0
.Ltmp254:
	@DEBUG_VALUE: ssl3_prf:ret <- $r5
	b	.LBB3_20
.Ltmp255:
.LBB3_14:
	@DEBUG_VALUE: ssl3_prf:secret <- $r6
	@DEBUG_VALUE: ssl3_prf:ret <- $r0
	@DEBUG_VALUE: ssl3_prf:slen <- [DW_OP_plus_uconst 16] [$sp+0]
	@DEBUG_VALUE: ssl3_prf:random <- [DW_OP_plus_uconst 8] [$sp+0]
	@DEBUG_VALUE: ssl3_prf:rlen <- [DW_OP_plus_uconst 256] [$sp+0]
	@DEBUG_VALUE: ssl3_prf:dstbuf <- [DW_OP_plus_uconst 260] [$sp+0]
	@DEBUG_VALUE: ssl3_prf:dlen <- [DW_OP_plus_uconst 264] [$sp+0]
	@DEBUG_VALUE: ssl3_prf:label <- [DW_OP_LLVM_entry_value 1] $r2
	mov	r5, r0
.Ltmp256:
	@DEBUG_VALUE: ssl3_prf:ret <- $r5
	b	.LBB3_20
.Ltmp257:
.LBB3_15:
	@DEBUG_VALUE: ssl3_prf:secret <- $r6
	@DEBUG_VALUE: ssl3_prf:ret <- $r0
	@DEBUG_VALUE: ssl3_prf:slen <- [DW_OP_plus_uconst 16] [$sp+0]
	@DEBUG_VALUE: ssl3_prf:random <- [DW_OP_plus_uconst 8] [$sp+0]
	@DEBUG_VALUE: ssl3_prf:rlen <- [DW_OP_plus_uconst 256] [$sp+0]
	@DEBUG_VALUE: ssl3_prf:dstbuf <- [DW_OP_plus_uconst 260] [$sp+0]
	@DEBUG_VALUE: ssl3_prf:dlen <- [DW_OP_plus_uconst 264] [$sp+0]
	@DEBUG_VALUE: ssl3_prf:label <- [DW_OP_LLVM_entry_value 1] $r2
	mov	r5, r0
.Ltmp258:
	@DEBUG_VALUE: ssl3_prf:ret <- $r5
	b	.LBB3_20
.Ltmp259:
.LBB3_16:
	@DEBUG_VALUE: ssl3_prf:secret <- $r6
	@DEBUG_VALUE: ssl3_prf:ret <- $r0
	@DEBUG_VALUE: ssl3_prf:slen <- [DW_OP_plus_uconst 16] [$sp+0]
	@DEBUG_VALUE: ssl3_prf:random <- [DW_OP_plus_uconst 8] [$sp+0]
	@DEBUG_VALUE: ssl3_prf:rlen <- [DW_OP_plus_uconst 256] [$sp+0]
	@DEBUG_VALUE: ssl3_prf:dstbuf <- [DW_OP_plus_uconst 260] [$sp+0]
	@DEBUG_VALUE: ssl3_prf:dlen <- [DW_OP_plus_uconst 264] [$sp+0]
	@DEBUG_VALUE: ssl3_prf:label <- [DW_OP_LLVM_entry_value 1] $r2
	mov	r5, r0
.Ltmp260:
	@DEBUG_VALUE: ssl3_prf:ret <- $r5
	b	.LBB3_20
.Ltmp261:
.LBB3_17:
	@DEBUG_VALUE: ssl3_prf:secret <- $r6
	@DEBUG_VALUE: ssl3_prf:ret <- $r0
	@DEBUG_VALUE: ssl3_prf:slen <- [DW_OP_plus_uconst 16] [$sp+0]
	@DEBUG_VALUE: ssl3_prf:random <- [DW_OP_plus_uconst 8] [$sp+0]
	@DEBUG_VALUE: ssl3_prf:rlen <- [DW_OP_plus_uconst 256] [$sp+0]
	@DEBUG_VALUE: ssl3_prf:dstbuf <- [DW_OP_plus_uconst 260] [$sp+0]
	@DEBUG_VALUE: ssl3_prf:dlen <- [DW_OP_plus_uconst 264] [$sp+0]
	@DEBUG_VALUE: ssl3_prf:label <- [DW_OP_LLVM_entry_value 1] $r2
	mov	r5, r0
.Ltmp262:
	@DEBUG_VALUE: ssl3_prf:ret <- $r5
	b	.LBB3_20
.Ltmp263:
.LBB3_18:
	@DEBUG_VALUE: ssl3_prf:secret <- $r6
	@DEBUG_VALUE: ssl3_prf:ret <- $r0
	@DEBUG_VALUE: ssl3_prf:slen <- [DW_OP_plus_uconst 16] [$sp+0]
	@DEBUG_VALUE: ssl3_prf:random <- [DW_OP_plus_uconst 8] [$sp+0]
	@DEBUG_VALUE: ssl3_prf:rlen <- [DW_OP_plus_uconst 256] [$sp+0]
	@DEBUG_VALUE: ssl3_prf:dstbuf <- [DW_OP_plus_uconst 260] [$sp+0]
	@DEBUG_VALUE: ssl3_prf:dlen <- [DW_OP_plus_uconst 264] [$sp+0]
	@DEBUG_VALUE: ssl3_prf:label <- [DW_OP_LLVM_entry_value 1] $r2
	mov	r5, r0
.Ltmp264:
	@DEBUG_VALUE: ssl3_prf:ret <- $r5
	b	.LBB3_20
.Ltmp265:
.LBB3_19:
	@DEBUG_VALUE: ssl3_prf:secret <- $r6
	@DEBUG_VALUE: ssl3_prf:ret <- $r0
	@DEBUG_VALUE: ssl3_prf:slen <- [DW_OP_plus_uconst 16] [$sp+0]
	@DEBUG_VALUE: ssl3_prf:random <- [DW_OP_plus_uconst 8] [$sp+0]
	@DEBUG_VALUE: ssl3_prf:rlen <- [DW_OP_plus_uconst 256] [$sp+0]
	@DEBUG_VALUE: ssl3_prf:dstbuf <- [DW_OP_plus_uconst 260] [$sp+0]
	@DEBUG_VALUE: ssl3_prf:dlen <- [DW_OP_plus_uconst 264] [$sp+0]
	@DEBUG_VALUE: ssl3_prf:label <- [DW_OP_LLVM_entry_value 1] $r2
	mov	r5, r0
.Ltmp266:
	@DEBUG_VALUE: ssl3_prf:ret <- $r5
.LBB3_20:
	@DEBUG_VALUE: ssl3_prf:secret <- $r6
	@DEBUG_VALUE: ssl3_prf:slen <- [DW_OP_plus_uconst 16] [$sp+0]
	@DEBUG_VALUE: ssl3_prf:random <- [DW_OP_plus_uconst 8] [$sp+0]
	@DEBUG_VALUE: ssl3_prf:rlen <- [DW_OP_plus_uconst 256] [$sp+0]
	@DEBUG_VALUE: ssl3_prf:dstbuf <- [DW_OP_plus_uconst 260] [$sp+0]
	@DEBUG_VALUE: ssl3_prf:dlen <- [DW_OP_plus_uconst 264] [$sp+0]
	@DEBUG_VALUE: ssl3_prf:label <- [DW_OP_LLVM_entry_value 1] $r2
	@DEBUG_VALUE: ssl3_prf:ret <- $r5
	@DEBUG_LABEL: ssl3_prf:exit
	add	r0, sp, #148
	.loc	1 409 5 is_stmt 1               @ ../../../ThirdParty/mbedTLS/library/ssl_tls.c:409:5
	bl	mbedtls_md5_free
	add	r0, sp, #56
	.loc	1 410 5                         @ ../../../ThirdParty/mbedTLS/library/ssl_tls.c:410:5
	bl	mbedtls_sha1_free
	add	r0, sp, #40
	movs	r1, #16
	.loc	1 412 5                         @ ../../../ThirdParty/mbedTLS/library/ssl_tls.c:412:5
	bl	mbedtls_platform_zeroize
	add	r0, sp, #20
	movs	r1, #20
	.loc	1 413 5                         @ ../../../ThirdParty/mbedTLS/library/ssl_tls.c:413:5
	bl	mbedtls_platform_zeroize
	.loc	1 415 5                         @ ../../../ThirdParty/mbedTLS/library/ssl_tls.c:415:5
	mov	r0, r5
	add	sp, #236
.Ltmp267:
	pop	{r4, r5, r6, r7, pc}
.Ltmp268:
.Lfunc_end3:
	.size	ssl3_prf, .Lfunc_end3-ssl3_prf
	.cfi_endproc
	.cantunwind
	.fnend
                                        @ -- End function
	.section	.text.ssl_calc_verify_ssl,"ax",%progbits
	.p2align	2                               @ -- Begin function ssl_calc_verify_ssl
	.type	ssl_calc_verify_ssl,%function
	.code	16                              @ @ssl_calc_verify_ssl
	.thumb_func
ssl_calc_verify_ssl:
.Lfunc_begin4:
	.loc	1 1384 0                        @ ../../../ThirdParty/mbedTLS/library/ssl_tls.c:1384:0
	.fnstart
	.cfi_startproc
@ %bb.0:
	@DEBUG_VALUE: ssl_calc_verify_ssl:ssl <- $r0
	@DEBUG_VALUE: ssl_calc_verify_ssl:hash <- $r1
	.save	{r4, r5, r6, r7, lr}
	push	{r4, r5, r6, r7, lr}
	.cfi_def_cfa_offset 20
	.cfi_offset lr, -4
	.cfi_offset r7, -8
	.cfi_offset r6, -12
	.cfi_offset r5, -16
	.cfi_offset r4, -20
	.pad	#316
	sub	sp, #316
	.cfi_def_cfa_offset 336
	str	r1, [sp, #36]                   @ 4-byte Spill
.Ltmp269:
	@DEBUG_VALUE: ssl_calc_verify_ssl:hash <- [DW_OP_plus_uconst 36] [$sp+0]
	@DEBUG_VALUE: ssl_calc_verify_ssl:ssl <- $r0
	.loc	1 1390 5 prologue_end           @ ../../../ThirdParty/mbedTLS/library/ssl_tls.c:1390:5
	adr	r1, .LCPI4_0
	str	r1, [sp]
	movs	r1, #2
	str	r1, [sp, #24]                   @ 4-byte Spill
	ldr	r2, __arm_cp.4_1
	ldr	r3, __arm_cp.4_2
	mov	r7, r0
.Ltmp270:
	@DEBUG_VALUE: ssl_calc_verify_ssl:ssl <- $r7
	bl	mbedtls_debug_print_msg
	add	r5, sp, #228
	.loc	1 1392 5                        @ ../../../ThirdParty/mbedTLS/library/ssl_tls.c:1392:5
	mov	r0, r5
	str	r5, [sp, #20]                   @ 4-byte Spill
	bl	mbedtls_md5_init
	add	r6, sp, #136
	.loc	1 1393 5                        @ ../../../ThirdParty/mbedTLS/library/ssl_tls.c:1393:5
	mov	r0, r6
	str	r6, [sp, #16]                   @ 4-byte Spill
	bl	mbedtls_sha1_init
	.loc	1 1395 36                       @ ../../../ThirdParty/mbedTLS/library/ssl_tls.c:1395:36
	ldr	r0, [r7, #60]
	movw	r1, #600
	.loc	1 1395 47 is_stmt 0             @ ../../../ThirdParty/mbedTLS/library/ssl_tls.c:1395:47
	adds	r1, r0, r1
	.loc	1 1395 5                        @ ../../../ThirdParty/mbedTLS/library/ssl_tls.c:1395:5
	mov	r0, r5
	bl	mbedtls_md5_clone
	.loc	1 1396 38 is_stmt 1             @ ../../../ThirdParty/mbedTLS/library/ssl_tls.c:1396:38
	ldr	r0, [r7, #60]
	@DEBUG_VALUE: ssl_calc_verify_ssl:ssl <- $r7
	movw	r1, #688
	.loc	1 1396 49 is_stmt 0             @ ../../../ThirdParty/mbedTLS/library/ssl_tls.c:1396:49
	adds	r1, r0, r1
	.loc	1 1396 5                        @ ../../../ThirdParty/mbedTLS/library/ssl_tls.c:1396:5
	mov	r0, r6
	bl	mbedtls_sha1_clone
	add	r0, sp, #88
	str	r0, [sp, #28]                   @ 4-byte Spill
	movs	r6, #48
	movs	r2, #54
	.loc	1 1398 5 is_stmt 1              @ ../../../ThirdParty/mbedTLS/library/ssl_tls.c:1398:5
	mov	r1, r6
	bl	__aeabi_memset4
	add	r0, sp, #40
	str	r0, [sp, #32]                   @ 4-byte Spill
	movs	r2, #92
	.loc	1 1399 5                        @ ../../../ThirdParty/mbedTLS/library/ssl_tls.c:1399:5
	mov	r1, r6
	bl	__aeabi_memset4
	.loc	1 1401 40                       @ ../../../ThirdParty/mbedTLS/library/ssl_tls.c:1401:40
	ldr	r1, [r7, #56]
	@DEBUG_VALUE: ssl_calc_verify_ssl:ssl <- $r7
	.loc	1 1401 35 is_stmt 0             @ ../../../ThirdParty/mbedTLS/library/ssl_tls.c:1401:35
	adds	r1, #44
	.loc	1 1401 5                        @ ../../../ThirdParty/mbedTLS/library/ssl_tls.c:1401:5
	mov	r0, r5
	mov	r2, r6
	bl	mbedtls_md5_update_ret
	.loc	1 1402 5 is_stmt 1              @ ../../../ThirdParty/mbedTLS/library/ssl_tls.c:1402:5
	mov	r0, r5
	ldr	r1, [sp, #28]                   @ 4-byte Reload
	mov	r2, r6
	bl	mbedtls_md5_update_ret
	.loc	1 1403 5                        @ ../../../ThirdParty/mbedTLS/library/ssl_tls.c:1403:5
	mov	r0, r5
	ldr	r1, [sp, #36]                   @ 4-byte Reload
	bl	mbedtls_md5_finish_ret
	.loc	1 1405 5                        @ ../../../ThirdParty/mbedTLS/library/ssl_tls.c:1405:5
	mov	r0, r5
	bl	mbedtls_md5_starts_ret
	.loc	1 1406 40                       @ ../../../ThirdParty/mbedTLS/library/ssl_tls.c:1406:40
	ldr	r1, [r7, #56]
	@DEBUG_VALUE: ssl_calc_verify_ssl:ssl <- $r7
	.loc	1 1406 35 is_stmt 0             @ ../../../ThirdParty/mbedTLS/library/ssl_tls.c:1406:35
	adds	r1, #44
	.loc	1 1406 5                        @ ../../../ThirdParty/mbedTLS/library/ssl_tls.c:1406:5
	mov	r0, r5
	mov	r2, r6
	bl	mbedtls_md5_update_ret
	.loc	1 1407 5 is_stmt 1              @ ../../../ThirdParty/mbedTLS/library/ssl_tls.c:1407:5
	mov	r0, r5
	ldr	r1, [sp, #32]                   @ 4-byte Reload
	mov	r2, r6
	bl	mbedtls_md5_update_ret
	movs	r2, #16
	.loc	1 1408 5                        @ ../../../ThirdParty/mbedTLS/library/ssl_tls.c:1408:5
	mov	r0, r5
	ldr	r4, [sp, #36]                   @ 4-byte Reload
.Ltmp271:
	@DEBUG_VALUE: ssl_calc_verify_ssl:hash <- $r4
	mov	r1, r4
	bl	mbedtls_md5_update_ret
	.loc	1 1409 5                        @ ../../../ThirdParty/mbedTLS/library/ssl_tls.c:1409:5
	mov	r0, r5
	@DEBUG_VALUE: ssl_calc_verify_ssl:hash <- $r4
	mov	r1, r4
.Ltmp272:
	@DEBUG_VALUE: ssl_calc_verify_ssl:hash <- [DW_OP_plus_uconst 36] [$sp+0]
	bl	mbedtls_md5_finish_ret
	@DEBUG_VALUE: ssl_calc_verify_ssl:ssl <- $r7
	.loc	1 1411 42                       @ ../../../ThirdParty/mbedTLS/library/ssl_tls.c:1411:42
	ldr	r1, [r7, #56]
	.loc	1 1411 37 is_stmt 0             @ ../../../ThirdParty/mbedTLS/library/ssl_tls.c:1411:37
	adds	r1, #44
	ldr	r5, [sp, #16]                   @ 4-byte Reload
	.loc	1 1411 5                        @ ../../../ThirdParty/mbedTLS/library/ssl_tls.c:1411:5
	mov	r0, r5
	mov	r2, r6
	bl	mbedtls_sha1_update_ret
	movs	r2, #40
	.loc	1 1412 5 is_stmt 1              @ ../../../ThirdParty/mbedTLS/library/ssl_tls.c:1412:5
	str	r2, [sp, #12]                   @ 4-byte Spill
	mov	r0, r5
	ldr	r1, [sp, #28]                   @ 4-byte Reload
	bl	mbedtls_sha1_update_ret
	.loc	1 1413 42                       @ ../../../ThirdParty/mbedTLS/library/ssl_tls.c:1413:42
	ldr	r4, [sp, #36]                   @ 4-byte Reload
.Ltmp273:
	@DEBUG_VALUE: ssl_calc_verify_ssl:hash <- undef
	adds	r4, #16
	.loc	1 1413 5 is_stmt 0              @ ../../../ThirdParty/mbedTLS/library/ssl_tls.c:1413:5
	mov	r0, r5
	mov	r1, r4
	bl	mbedtls_sha1_finish_ret
	.loc	1 1415 5 is_stmt 1              @ ../../../ThirdParty/mbedTLS/library/ssl_tls.c:1415:5
	mov	r0, r5
	bl	mbedtls_sha1_starts_ret
	.loc	1 1416 42                       @ ../../../ThirdParty/mbedTLS/library/ssl_tls.c:1416:42
	ldr	r1, [r7, #56]
	@DEBUG_VALUE: ssl_calc_verify_ssl:ssl <- $r7
	.loc	1 1416 37 is_stmt 0             @ ../../../ThirdParty/mbedTLS/library/ssl_tls.c:1416:37
	adds	r1, #44
	.loc	1 1416 5                        @ ../../../ThirdParty/mbedTLS/library/ssl_tls.c:1416:5
	mov	r0, r5
	mov	r2, r6
	bl	mbedtls_sha1_update_ret
	.loc	1 1417 5 is_stmt 1              @ ../../../ThirdParty/mbedTLS/library/ssl_tls.c:1417:5
	mov	r0, r5
	ldr	r1, [sp, #32]                   @ 4-byte Reload
	ldr	r2, [sp, #12]                   @ 4-byte Reload
	bl	mbedtls_sha1_update_ret
	movs	r2, #20
	.loc	1 1418 5                        @ ../../../ThirdParty/mbedTLS/library/ssl_tls.c:1418:5
	mov	r0, r5
	mov	r1, r4
	bl	mbedtls_sha1_update_ret
	.loc	1 1419 5                        @ ../../../ThirdParty/mbedTLS/library/ssl_tls.c:1419:5
	mov	r0, r5
	mov	r1, r4
	bl	mbedtls_sha1_finish_ret
	movs	r0, #36
	.loc	1 1421 5                        @ ../../../ThirdParty/mbedTLS/library/ssl_tls.c:1421:5
	str	r0, [sp, #8]
	ldr	r0, [sp, #36]                   @ 4-byte Reload
	str	r0, [sp, #4]
	ldr	r0, __arm_cp.4_3
	str	r0, [sp]
	ldr	r4, __arm_cp.4_2
	mov	r3, r4
	adds	r3, #31
	movs	r1, #3
	@DEBUG_VALUE: ssl_calc_verify_ssl:ssl <- $r7
	mov	r0, r7
	ldr	r2, __arm_cp.4_1
	bl	mbedtls_debug_print_buf
	.loc	1 1422 5                        @ ../../../ThirdParty/mbedTLS/library/ssl_tls.c:1422:5
	ldr	r0, __arm_cp.4_4
	str	r0, [sp]
	adds	r4, #32
	mov	r3, r4
	mov	r0, r7
	ldr	r1, [sp, #24]                   @ 4-byte Reload
	ldr	r2, __arm_cp.4_1
	bl	mbedtls_debug_print_msg
	.loc	1 1424 5                        @ ../../../ThirdParty/mbedTLS/library/ssl_tls.c:1424:5
	ldr	r0, [sp, #20]                   @ 4-byte Reload
	bl	mbedtls_md5_free
	.loc	1 1425 5                        @ ../../../ThirdParty/mbedTLS/library/ssl_tls.c:1425:5
	mov	r0, r5
	bl	mbedtls_sha1_free
	.loc	1 1428 1                        @ ../../../ThirdParty/mbedTLS/library/ssl_tls.c:1428:1
	add	sp, #316
	pop	{r4, r5, r6, r7, pc}
.Ltmp274:
	.p2align	2
@ %bb.1:
	.loc	1 0 1 is_stmt 0                 @ ../../../ThirdParty/mbedTLS/library/ssl_tls.c:0:1
.LCPI4_0:
.L.str.169:
	.asciz	"=> calc verify ssl\000"
__arm_cp.4_1:
	.long	.L.str
.Lcpi_end38:
	.size	__arm_cp.4_1, .Lcpi_end38-__arm_cp.4_1
__arm_cp.4_2:
	.long	1390                            @ 0x56e
.Lcpi_end39:
	.size	__arm_cp.4_2, .Lcpi_end39-__arm_cp.4_2
__arm_cp.4_3:
	.long	.L.str.170
.Lcpi_end40:
	.size	__arm_cp.4_3, .Lcpi_end40-__arm_cp.4_3
__arm_cp.4_4:
	.long	.L.str.171
.Lcpi_end41:
	.size	__arm_cp.4_4, .Lcpi_end41-__arm_cp.4_4
.Lfunc_end4:
	.size	ssl_calc_verify_ssl, .Lfunc_end4-ssl_calc_verify_ssl
	.cfi_endproc
	.cantunwind
	.fnend
                                        @ -- End function
	.section	.text.ssl_calc_finished_ssl,"ax",%progbits
	.p2align	2                               @ -- Begin function ssl_calc_finished_ssl
	.type	ssl_calc_finished_ssl,%function
	.code	16                              @ @ssl_calc_finished_ssl
	.thumb_func
ssl_calc_finished_ssl:
.Lfunc_begin5:
	.loc	1 6599 0 is_stmt 1              @ ../../../ThirdParty/mbedTLS/library/ssl_tls.c:6599:0
	.fnstart
	.cfi_startproc
@ %bb.0:
	@DEBUG_VALUE: ssl_calc_finished_ssl:ssl <- $r0
	@DEBUG_VALUE: ssl_calc_finished_ssl:buf <- $r1
	@DEBUG_VALUE: ssl_calc_finished_ssl:from <- $r2
	.save	{r4, r5, r6, r7, lr}
	push	{r4, r5, r6, r7, lr}
	.cfi_def_cfa_offset 20
	.cfi_offset lr, -4
	.cfi_offset r7, -8
	.cfi_offset r6, -12
	.cfi_offset r5, -16
	.cfi_offset r4, -20
	.pad	#332
	sub	sp, #332
	.cfi_def_cfa_offset 352
	str	r2, [sp, #44]                   @ 4-byte Spill
	str	r1, [sp, #32]                   @ 4-byte Spill
	mov	r7, r0
.Ltmp275:
	@DEBUG_VALUE: ssl_calc_finished_ssl:from <- [DW_OP_plus_uconst 44] [$sp+0]
	@DEBUG_VALUE: ssl_calc_finished_ssl:buf <- [DW_OP_plus_uconst 32] [$sp+0]
	@DEBUG_VALUE: ssl_calc_finished_ssl:ssl <- $r7
	.loc	1 6608 41 prologue_end          @ ../../../ThirdParty/mbedTLS/library/ssl_tls.c:6608:41
	ldr	r0, [r0, #56]
.Ltmp276:
	@DEBUG_VALUE: ssl_calc_finished_ssl:session <- $r0
	.loc	1 6609 9                        @ ../../../ThirdParty/mbedTLS/library/ssl_tls.c:6609:9
	cbnz	r0, .LBB5_2
.Ltmp277:
@ %bb.1:
	@DEBUG_VALUE: ssl_calc_finished_ssl:ssl <- $r7
	@DEBUG_VALUE: ssl_calc_finished_ssl:session <- $r0
	@DEBUG_VALUE: ssl_calc_finished_ssl:buf <- [DW_OP_plus_uconst 32] [$sp+0]
	@DEBUG_VALUE: ssl_calc_finished_ssl:from <- [DW_OP_plus_uconst 44] [$sp+0]
	.loc	1 6610 24                       @ ../../../ThirdParty/mbedTLS/library/ssl_tls.c:6610:24
	ldr	r0, [r7, #52]
.Ltmp278:
	@DEBUG_VALUE: ssl_calc_finished_ssl:session <- $r0
.LBB5_2:
	@DEBUG_VALUE: ssl_calc_finished_ssl:ssl <- $r7
	@DEBUG_VALUE: ssl_calc_finished_ssl:session <- $r0
	@DEBUG_VALUE: ssl_calc_finished_ssl:buf <- [DW_OP_plus_uconst 32] [$sp+0]
	@DEBUG_VALUE: ssl_calc_finished_ssl:from <- [DW_OP_plus_uconst 44] [$sp+0]
	@DEBUG_VALUE: ssl_calc_finished_ssl:session <- $r0
	.loc	1 0 24 is_stmt 0                @ ../../../ThirdParty/mbedTLS/library/ssl_tls.c:0:24
	str	r0, [sp, #60]                   @ 4-byte Spill
.Ltmp279:
	@DEBUG_VALUE: ssl_calc_finished_ssl:session <- [DW_OP_plus_uconst 60] [$sp+0]
	@DEBUG_VALUE: ssl_calc_finished_ssl:session <- [DW_OP_plus_uconst 60] [$sp+0]
	.loc	1 6612 5 is_stmt 1              @ ../../../ThirdParty/mbedTLS/library/ssl_tls.c:6612:5
	adr	r0, .LCPI5_0
	str	r0, [sp]
	movs	r1, #2
	ldr	r2, __arm_cp.5_1
	ldr	r3, __arm_cp.5_2
	mov	r0, r7
	str	r1, [sp, #36]                   @ 4-byte Spill
	mov	r4, r3
	bl	mbedtls_debug_print_msg
	add	r5, sp, #244
	.loc	1 6614 5                        @ ../../../ThirdParty/mbedTLS/library/ssl_tls.c:6614:5
	mov	r0, r5
	bl	mbedtls_md5_init
	add	r6, sp, #152
	.loc	1 6615 5                        @ ../../../ThirdParty/mbedTLS/library/ssl_tls.c:6615:5
	mov	r0, r6
	bl	mbedtls_sha1_init
	.loc	1 6617 36                       @ ../../../ThirdParty/mbedTLS/library/ssl_tls.c:6617:36
	ldr	r0, [r7, #60]
	movw	r1, #600
	.loc	1 6617 47 is_stmt 0             @ ../../../ThirdParty/mbedTLS/library/ssl_tls.c:6617:47
	adds	r1, r0, r1
	.loc	1 6617 5                        @ ../../../ThirdParty/mbedTLS/library/ssl_tls.c:6617:5
	mov	r0, r5
	bl	mbedtls_md5_clone
	.loc	1 6618 38 is_stmt 1             @ ../../../ThirdParty/mbedTLS/library/ssl_tls.c:6618:38
	ldr	r0, [r7, #60]
	movw	r1, #688
	.loc	1 6618 49 is_stmt 0             @ ../../../ThirdParty/mbedTLS/library/ssl_tls.c:6618:49
	adds	r1, r0, r1
	.loc	1 6618 5                        @ ../../../ThirdParty/mbedTLS/library/ssl_tls.c:6618:5
	mov	r0, r6
	bl	mbedtls_sha1_clone
	movs	r0, #16
	str	r0, [sp, #48]                   @ 4-byte Spill
	.loc	1 6630 5 is_stmt 1              @ ../../../ThirdParty/mbedTLS/library/ssl_tls.c:6630:5
	str	r0, [sp, #8]
	mov	r0, r5
	adds	r0, #8
	str	r0, [sp, #4]
	ldr	r0, __arm_cp.5_3
	str	r0, [sp]
	mov	r3, r4
	adds	r3, #19
	movs	r4, #4
	mov	r0, r7
	mov	r1, r4
	ldr	r2, __arm_cp.5_1
	bl	mbedtls_debug_print_buf
	movs	r0, #20
	str	r0, [sp, #28]                   @ 4-byte Spill
	.loc	1 6635 5                        @ ../../../ThirdParty/mbedTLS/library/ssl_tls.c:6635:5
	str	r0, [sp, #8]
	str	r6, [sp, #24]                   @ 4-byte Spill
	adds	r6, #8
	str	r6, [sp, #4]
	ldr	r0, __arm_cp.5_4
	str	r0, [sp]
	ldr	r3, __arm_cp.5_2
	adds	r3, #24
	str	r7, [sp, #52]                   @ 4-byte Spill
.Ltmp280:
	@DEBUG_VALUE: ssl_calc_finished_ssl:ssl <- [DW_OP_plus_uconst 52] [$sp+0]
	mov	r0, r7
	mov	r6, r4
	mov	r1, r4
	ldr	r2, __arm_cp.5_1
	bl	mbedtls_debug_print_buf
	add	r7, sp, #104
	movs	r1, #48
	movs	r2, #54
	.loc	1 6642 5                        @ ../../../ThirdParty/mbedTLS/library/ssl_tls.c:6642:5
	mov	r0, r7
	str	r1, [sp, #56]                   @ 4-byte Spill
	bl	__aeabi_memset4
	.loc	1 6639 14                       @ ../../../ThirdParty/mbedTLS/library/ssl_tls.c:6639:14
	ldr	r0, [sp, #44]                   @ 4-byte Reload
	str	r7, [sp, #64]                   @ 4-byte Spill
	cbz	r0, .LBB5_4
.Ltmp281:
@ %bb.3:
	@DEBUG_VALUE: ssl_calc_finished_ssl:ssl <- [DW_OP_plus_uconst 52] [$sp+0]
	@DEBUG_VALUE: ssl_calc_finished_ssl:session <- [DW_OP_plus_uconst 60] [$sp+0]
	@DEBUG_VALUE: ssl_calc_finished_ssl:buf <- [DW_OP_plus_uconst 32] [$sp+0]
	@DEBUG_VALUE: ssl_calc_finished_ssl:from <- [DW_OP_plus_uconst 44] [$sp+0]
	.loc	1 0 14 is_stmt 0                @ ../../../ThirdParty/mbedTLS/library/ssl_tls.c:0:14
	ldr	r1, __arm_cp.5_6
	b	.LBB5_5
.Ltmp282:
.LBB5_4:
	@DEBUG_VALUE: ssl_calc_finished_ssl:ssl <- [DW_OP_plus_uconst 52] [$sp+0]
	@DEBUG_VALUE: ssl_calc_finished_ssl:session <- [DW_OP_plus_uconst 60] [$sp+0]
	@DEBUG_VALUE: ssl_calc_finished_ssl:buf <- [DW_OP_plus_uconst 32] [$sp+0]
	@DEBUG_VALUE: ssl_calc_finished_ssl:from <- [DW_OP_plus_uconst 44] [$sp+0]
	ldr	r1, __arm_cp.5_5
.Ltmp283:
.LBB5_5:
	@DEBUG_VALUE: ssl_calc_finished_ssl:ssl <- [DW_OP_plus_uconst 52] [$sp+0]
	@DEBUG_VALUE: ssl_calc_finished_ssl:session <- [DW_OP_plus_uconst 60] [$sp+0]
	@DEBUG_VALUE: ssl_calc_finished_ssl:buf <- [DW_OP_plus_uconst 32] [$sp+0]
	@DEBUG_VALUE: ssl_calc_finished_ssl:from <- [DW_OP_plus_uconst 44] [$sp+0]
	@DEBUG_VALUE: ssl_calc_finished_ssl:sender <- $r1
	.loc	1 6644 5 is_stmt 1              @ ../../../ThirdParty/mbedTLS/library/ssl_tls.c:6644:5
	mov	r0, r5
	@DEBUG_VALUE: ssl_calc_finished_ssl:sender <- $r1
	str	r1, [sp, #20]                   @ 4-byte Spill
.Ltmp284:
	@DEBUG_VALUE: ssl_calc_finished_ssl:sender <- [DW_OP_plus_uconst 20] [$sp+0]
	mov	r2, r6
	bl	mbedtls_md5_update_ret
	ldr	r7, [sp, #60]                   @ 4-byte Reload
	.loc	1 6645 35                       @ ../../../ThirdParty/mbedTLS/library/ssl_tls.c:6645:35
	adds	r7, #44
	.loc	1 6645 5 is_stmt 0              @ ../../../ThirdParty/mbedTLS/library/ssl_tls.c:6645:5
	mov	r0, r5
	mov	r1, r7
	ldr	r4, [sp, #56]                   @ 4-byte Reload
	mov	r2, r4
	str	r5, [sp, #40]                   @ 4-byte Spill
	bl	mbedtls_md5_update_ret
	.loc	1 6646 5 is_stmt 1              @ ../../../ThirdParty/mbedTLS/library/ssl_tls.c:6646:5
	mov	r0, r5
	ldr	r1, [sp, #64]                   @ 4-byte Reload
	mov	r2, r4
	bl	mbedtls_md5_update_ret
	add	r1, sp, #88
	.loc	1 6647 5                        @ ../../../ThirdParty/mbedTLS/library/ssl_tls.c:6647:5
	str	r1, [sp, #44]                   @ 4-byte Spill
	mov	r0, r5
	bl	mbedtls_md5_finish_ret
	ldr	r5, [sp, #24]                   @ 4-byte Reload
	.loc	1 6649 5                        @ ../../../ThirdParty/mbedTLS/library/ssl_tls.c:6649:5
	mov	r0, r5
	ldr	r1, [sp, #20]                   @ 4-byte Reload
	mov	r2, r6
	bl	mbedtls_sha1_update_ret
	.loc	1 6650 5                        @ ../../../ThirdParty/mbedTLS/library/ssl_tls.c:6650:5
	mov	r0, r5
	mov	r1, r7
	str	r7, [sp, #60]                   @ 4-byte Spill
	mov	r2, r4
	bl	mbedtls_sha1_update_ret
	movs	r2, #40
	.loc	1 6651 5                        @ ../../../ThirdParty/mbedTLS/library/ssl_tls.c:6651:5
	str	r2, [sp, #20]                   @ 4-byte Spill
	mov	r0, r5
	ldr	r6, [sp, #64]                   @ 4-byte Reload
	mov	r1, r6
	bl	mbedtls_sha1_update_ret
	add	r1, sp, #68
	.loc	1 6652 5                        @ ../../../ThirdParty/mbedTLS/library/ssl_tls.c:6652:5
	str	r1, [sp, #16]                   @ 4-byte Spill
	mov	r0, r5
	bl	mbedtls_sha1_finish_ret
	movs	r2, #92
	.loc	1 6654 5                        @ ../../../ThirdParty/mbedTLS/library/ssl_tls.c:6654:5
	mov	r0, r6
	mov	r1, r4
	bl	__aeabi_memset4
	ldr	r6, [sp, #40]                   @ 4-byte Reload
	.loc	1 6656 5                        @ ../../../ThirdParty/mbedTLS/library/ssl_tls.c:6656:5
	mov	r0, r6
	bl	mbedtls_md5_starts_ret
	.loc	1 6657 5                        @ ../../../ThirdParty/mbedTLS/library/ssl_tls.c:6657:5
	mov	r0, r6
	mov	r1, r7
	mov	r2, r4
	bl	mbedtls_md5_update_ret
	.loc	1 6658 5                        @ ../../../ThirdParty/mbedTLS/library/ssl_tls.c:6658:5
	mov	r0, r6
	ldr	r7, [sp, #64]                   @ 4-byte Reload
	mov	r1, r7
	mov	r2, r4
	bl	mbedtls_md5_update_ret
	.loc	1 6659 5                        @ ../../../ThirdParty/mbedTLS/library/ssl_tls.c:6659:5
	mov	r0, r6
	ldr	r1, [sp, #44]                   @ 4-byte Reload
	ldr	r2, [sp, #48]                   @ 4-byte Reload
	bl	mbedtls_md5_update_ret
	.loc	1 6660 5                        @ ../../../ThirdParty/mbedTLS/library/ssl_tls.c:6660:5
	mov	r0, r6
	ldr	r4, [sp, #32]                   @ 4-byte Reload
	mov	r1, r4
	bl	mbedtls_md5_finish_ret
	.loc	1 6662 5                        @ ../../../ThirdParty/mbedTLS/library/ssl_tls.c:6662:5
	mov	r0, r5
	bl	mbedtls_sha1_starts_ret
	.loc	1 6663 5                        @ ../../../ThirdParty/mbedTLS/library/ssl_tls.c:6663:5
	mov	r0, r5
	ldr	r1, [sp, #60]                   @ 4-byte Reload
	ldr	r2, [sp, #56]                   @ 4-byte Reload
	bl	mbedtls_sha1_update_ret
	.loc	1 6664 5                        @ ../../../ThirdParty/mbedTLS/library/ssl_tls.c:6664:5
	mov	r0, r5
	mov	r1, r7
	ldr	r2, [sp, #20]                   @ 4-byte Reload
	bl	mbedtls_sha1_update_ret
	.loc	1 6665 5                        @ ../../../ThirdParty/mbedTLS/library/ssl_tls.c:6665:5
	mov	r0, r5
	ldr	r6, [sp, #16]                   @ 4-byte Reload
	mov	r1, r6
	ldr	r7, [sp, #28]                   @ 4-byte Reload
	mov	r2, r7
	bl	mbedtls_sha1_update_ret
	.loc	1 6666 41                       @ ../../../ThirdParty/mbedTLS/library/ssl_tls.c:6666:41
	mov	r1, r4
	adds	r1, #16
	.loc	1 6666 5 is_stmt 0              @ ../../../ThirdParty/mbedTLS/library/ssl_tls.c:6666:5
	mov	r0, r5
	bl	mbedtls_sha1_finish_ret
	movs	r0, #36
	.loc	1 6668 5 is_stmt 1              @ ../../../ThirdParty/mbedTLS/library/ssl_tls.c:6668:5
	str	r0, [sp, #8]
	str	r4, [sp, #4]
	ldr	r0, __arm_cp.5_7
	str	r0, [sp]
	ldr	r4, __arm_cp.5_2
	mov	r3, r4
	adds	r3, #56
	movs	r1, #3
	ldr	r0, [sp, #52]                   @ 4-byte Reload
.Ltmp285:
	@DEBUG_VALUE: ssl_calc_finished_ssl:ssl <- $r0
	.loc	1 0 5 is_stmt 0                 @ ../../../ThirdParty/mbedTLS/library/ssl_tls.c:0:5
	ldr	r2, __arm_cp.5_1
	.loc	1 6668 5                        @ ../../../ThirdParty/mbedTLS/library/ssl_tls.c:6668:5
	bl	mbedtls_debug_print_buf
.Ltmp286:
	.loc	1 6670 5 is_stmt 1              @ ../../../ThirdParty/mbedTLS/library/ssl_tls.c:6670:5
	ldr	r0, [sp, #40]                   @ 4-byte Reload
	bl	mbedtls_md5_free
	.loc	1 6671 5                        @ ../../../ThirdParty/mbedTLS/library/ssl_tls.c:6671:5
	mov	r0, r5
	bl	mbedtls_sha1_free
	.loc	1 6673 5                        @ ../../../ThirdParty/mbedTLS/library/ssl_tls.c:6673:5
	ldr	r0, [sp, #64]                   @ 4-byte Reload
	ldr	r1, [sp, #56]                   @ 4-byte Reload
	bl	mbedtls_platform_zeroize
	.loc	1 6674 5                        @ ../../../ThirdParty/mbedTLS/library/ssl_tls.c:6674:5
	ldr	r0, [sp, #44]                   @ 4-byte Reload
	ldr	r1, [sp, #48]                   @ 4-byte Reload
	bl	mbedtls_platform_zeroize
	.loc	1 6675 5                        @ ../../../ThirdParty/mbedTLS/library/ssl_tls.c:6675:5
	mov	r0, r6
	mov	r1, r7
	bl	mbedtls_platform_zeroize
	.loc	1 6677 5                        @ ../../../ThirdParty/mbedTLS/library/ssl_tls.c:6677:5
	ldr	r0, __arm_cp.5_8
	str	r0, [sp]
	adds	r4, #65
	ldr	r0, [sp, #52]                   @ 4-byte Reload
	ldr	r1, [sp, #36]                   @ 4-byte Reload
	ldr	r2, __arm_cp.5_1
	mov	r3, r4
	bl	mbedtls_debug_print_msg
	.loc	1 6678 1                        @ ../../../ThirdParty/mbedTLS/library/ssl_tls.c:6678:1
	add	sp, #332
.Ltmp287:
	pop	{r4, r5, r6, r7, pc}
.Ltmp288:
	.p2align	2
@ %bb.6:
	.loc	1 0 1 is_stmt 0                 @ ../../../ThirdParty/mbedTLS/library/ssl_tls.c:0:1
.LCPI5_0:
.L.str.282:
	.asciz	"=> calc  finished ssl\000\000"
__arm_cp.5_1:
	.long	.L.str
.Lcpi_end42:
	.size	__arm_cp.5_1, .Lcpi_end42-__arm_cp.5_1
__arm_cp.5_2:
	.long	6612                            @ 0x19d4
.Lcpi_end43:
	.size	__arm_cp.5_2, .Lcpi_end43-__arm_cp.5_2
__arm_cp.5_3:
	.long	.L.str.283
.Lcpi_end44:
	.size	__arm_cp.5_3, .Lcpi_end44-__arm_cp.5_3
__arm_cp.5_4:
	.long	.L.str.284
.Lcpi_end45:
	.size	__arm_cp.5_4, .Lcpi_end45-__arm_cp.5_4
__arm_cp.5_5:
	.long	.L.str.285
.Lcpi_end46:
	.size	__arm_cp.5_5, .Lcpi_end46-__arm_cp.5_5
__arm_cp.5_6:
	.long	.L.str.286
.Lcpi_end47:
	.size	__arm_cp.5_6, .Lcpi_end47-__arm_cp.5_6
__arm_cp.5_7:
	.long	.L.str.287
.Lcpi_end48:
	.size	__arm_cp.5_7, .Lcpi_end48-__arm_cp.5_7
__arm_cp.5_8:
	.long	.L.str.288
.Lcpi_end49:
	.size	__arm_cp.5_8, .Lcpi_end49-__arm_cp.5_8
.Lfunc_end5:
	.size	ssl_calc_finished_ssl, .Lfunc_end5-ssl_calc_finished_ssl
	.cfi_endproc
	.cantunwind
	.fnend
                                        @ -- End function
	.section	.text.tls1_prf,"ax",%progbits
	.p2align	2                               @ -- Begin function tls1_prf
	.type	tls1_prf,%function
	.code	16                              @ @tls1_prf
	.thumb_func
tls1_prf:
.Lfunc_begin6:
	.loc	1 424 0 is_stmt 1               @ ../../../ThirdParty/mbedTLS/library/ssl_tls.c:424:0
	.fnstart
	.cfi_startproc
@ %bb.0:
	@DEBUG_VALUE: tls1_prf:secret <- $r0
	@DEBUG_VALUE: tls1_prf:slen <- $r1
	@DEBUG_VALUE: tls1_prf:label <- $r2
	@DEBUG_VALUE: tls1_prf:random <- $r3
	.save	{r4, r5, r6, r7, lr}
	push	{r4, r5, r6, r7, lr}
	.cfi_def_cfa_offset 20
	.cfi_offset lr, -4
	.cfi_offset r7, -8
	.cfi_offset r6, -12
	.cfi_offset r5, -16
	.cfi_offset r4, -20
	.pad	#204
	sub	sp, #204
	.cfi_def_cfa_offset 224
	mov	r6, r3
	mov	r5, r2
	str	r1, [sp, #16]                   @ 4-byte Spill
	str	r0, [sp, #12]                   @ 4-byte Spill
.Ltmp289:
	@DEBUG_VALUE: tls1_prf:dlen <- [DW_OP_plus_uconst 232] [$sp+0]
	@DEBUG_VALUE: tls1_prf:dstbuf <- [DW_OP_plus_uconst 228] [$sp+0]
	@DEBUG_VALUE: tls1_prf:rlen <- [DW_OP_plus_uconst 224] [$sp+0]
	@DEBUG_VALUE: tls1_prf:random <- $r6
	@DEBUG_VALUE: tls1_prf:label <- $r5
	@DEBUG_VALUE: tls1_prf:slen <- [DW_OP_plus_uconst 16] [$sp+0]
	@DEBUG_VALUE: tls1_prf:secret <- [DW_OP_plus_uconst 12] [$sp+0]
	add	r0, sp, #44
.Ltmp290:
	.loc	1 434 5 prologue_end            @ ../../../ThirdParty/mbedTLS/library/ssl_tls.c:434:5
	bl	mbedtls_md_init
.Ltmp291:
	.loc	1 436 30                        @ ../../../ThirdParty/mbedTLS/library/ssl_tls.c:436:30
	mov	r0, r5
	bl	strlen
	mov	r4, r0
	ldr	r7, [sp, #224]
	.loc	1 436 28 is_stmt 0              @ ../../../ThirdParty/mbedTLS/library/ssl_tls.c:436:28
	adds	r1, r0, r7
	.loc	1 436 46                        @ ../../../ThirdParty/mbedTLS/library/ssl_tls.c:436:46
	mov	r0, r1
	adds	r0, #20
	str	r0, [sp, #20]                   @ 4-byte Spill
.Ltmp292:
	.loc	1 436 9                         @ ../../../ThirdParty/mbedTLS/library/ssl_tls.c:436:9
	cmp	r0, #128
	bls	.LBB6_2
.Ltmp293:
@ %bb.1:
	@DEBUG_VALUE: tls1_prf:random <- $r6
	@DEBUG_VALUE: tls1_prf:label <- $r5
	@DEBUG_VALUE: tls1_prf:secret <- [DW_OP_plus_uconst 12] [$sp+0]
	@DEBUG_VALUE: tls1_prf:slen <- [DW_OP_plus_uconst 16] [$sp+0]
	@DEBUG_VALUE: tls1_prf:rlen <- [DW_OP_plus_uconst 224] [$sp+0]
	@DEBUG_VALUE: tls1_prf:dstbuf <- [DW_OP_plus_uconst 228] [$sp+0]
	@DEBUG_VALUE: tls1_prf:dlen <- [DW_OP_plus_uconst 232] [$sp+0]
	.loc	1 0 9                           @ ../../../ThirdParty/mbedTLS/library/ssl_tls.c:0:9
	ldr	r0, __arm_cp.6_0
	.loc	1 514 1 is_stmt 1               @ ../../../ThirdParty/mbedTLS/library/ssl_tls.c:514:1
	add	sp, #204
.Ltmp294:
	pop	{r4, r5, r6, r7, pc}
.Ltmp295:
.LBB6_2:
	@DEBUG_VALUE: tls1_prf:random <- $r6
	@DEBUG_VALUE: tls1_prf:label <- $r5
	@DEBUG_VALUE: tls1_prf:secret <- [DW_OP_plus_uconst 12] [$sp+0]
	@DEBUG_VALUE: tls1_prf:slen <- [DW_OP_plus_uconst 16] [$sp+0]
	@DEBUG_VALUE: tls1_prf:rlen <- [DW_OP_plus_uconst 224] [$sp+0]
	@DEBUG_VALUE: tls1_prf:dstbuf <- [DW_OP_plus_uconst 228] [$sp+0]
	@DEBUG_VALUE: tls1_prf:dlen <- [DW_OP_plus_uconst 232] [$sp+0]
	.loc	1 0 1 is_stmt 0                 @ ../../../ThirdParty/mbedTLS/library/ssl_tls.c:0:1
	str	r1, [sp, #8]                    @ 4-byte Spill
	str	r6, [sp, #40]                   @ 4-byte Spill
.Ltmp296:
	@DEBUG_VALUE: tls1_prf:random <- [DW_OP_plus_uconst 40] [$sp+0]
	add	r6, sp, #76
.Ltmp297:
	@DEBUG_VALUE: tls1_prf:nb <- $r4
	.loc	1 444 17 is_stmt 1              @ ../../../ThirdParty/mbedTLS/library/ssl_tls.c:444:17
	adds	r6, #20
	.loc	1 444 5 is_stmt 0               @ ../../../ThirdParty/mbedTLS/library/ssl_tls.c:444:5
	mov	r0, r6
	mov	r1, r5
	mov	r2, r4
	bl	__aeabi_memcpy
	str	r6, [sp, #4]                    @ 4-byte Spill
	.loc	1 445 22 is_stmt 1              @ ../../../ThirdParty/mbedTLS/library/ssl_tls.c:445:22
	adds	r0, r6, r4
	.loc	1 445 5 is_stmt 0               @ ../../../ThirdParty/mbedTLS/library/ssl_tls.c:445:5
	ldr	r1, [sp, #40]                   @ 4-byte Reload
.Ltmp298:
	@DEBUG_VALUE: tls1_prf:random <- $r1
	mov	r2, r7
	bl	__aeabi_memcpy
.Ltmp299:
	@DEBUG_VALUE: tls1_prf:S2 <- undef
	@DEBUG_VALUE: tls1_prf:hs <- undef
	@DEBUG_VALUE: tls1_prf:S1 <- [DW_OP_plus_uconst 12] [$sp+0]
	@DEBUG_VALUE: tls1_prf:nb <- [DW_OP_plus_uconst 8] [$sp+0]
	.loc	1 0 5                           @ ../../../ThirdParty/mbedTLS/library/ssl_tls.c:0:5
	movs	r0, #3
.Ltmp300:
	.loc	1 451 21 is_stmt 1              @ ../../../ThirdParty/mbedTLS/library/ssl_tls.c:451:21
	bl	mbedtls_md_info_from_type
	mov	r1, r0
.Ltmp301:
	@DEBUG_VALUE: tls1_prf:md_info <- $r1
	.loc	1 0 21 is_stmt 0                @ ../../../ThirdParty/mbedTLS/library/ssl_tls.c:0:21
	ldr	r0, __arm_cp.6_1
.Ltmp302:
	.loc	1 451 9                         @ ../../../ThirdParty/mbedTLS/library/ssl_tls.c:451:9
	cbz	r1, .LBB6_4
.Ltmp303:
@ %bb.3:
	@DEBUG_VALUE: tls1_prf:label <- $r5
	@DEBUG_VALUE: tls1_prf:md_info <- $r1
	@DEBUG_VALUE: tls1_prf:nb <- [DW_OP_plus_uconst 8] [$sp+0]
	@DEBUG_VALUE: tls1_prf:S1 <- [DW_OP_plus_uconst 12] [$sp+0]
	@DEBUG_VALUE: tls1_prf:secret <- [DW_OP_plus_uconst 12] [$sp+0]
	@DEBUG_VALUE: tls1_prf:slen <- [DW_OP_plus_uconst 16] [$sp+0]
	@DEBUG_VALUE: tls1_prf:rlen <- [DW_OP_plus_uconst 224] [$sp+0]
	@DEBUG_VALUE: tls1_prf:dstbuf <- [DW_OP_plus_uconst 228] [$sp+0]
	@DEBUG_VALUE: tls1_prf:dlen <- [DW_OP_plus_uconst 232] [$sp+0]
	@DEBUG_VALUE: tls1_prf:hs <- undef
	@DEBUG_VALUE: tls1_prf:S2 <- undef
	.loc	1 0 9                           @ ../../../ThirdParty/mbedTLS/library/ssl_tls.c:0:9
	add	r0, sp, #44
	movs	r2, #1
.Ltmp304:
	.loc	1 454 17 is_stmt 1              @ ../../../ThirdParty/mbedTLS/library/ssl_tls.c:454:17
	bl	mbedtls_md_setup
.Ltmp305:
	@DEBUG_VALUE: tls1_prf:ret <- $r0
	.loc	1 454 9 is_stmt 0               @ ../../../ThirdParty/mbedTLS/library/ssl_tls.c:454:9
	cbz	r0, .LBB6_5
.Ltmp306:
.LBB6_4:
	@DEBUG_VALUE: tls1_prf:nb <- [DW_OP_plus_uconst 8] [$sp+0]
	@DEBUG_VALUE: tls1_prf:S1 <- [DW_OP_plus_uconst 12] [$sp+0]
	@DEBUG_VALUE: tls1_prf:secret <- [DW_OP_plus_uconst 12] [$sp+0]
	@DEBUG_VALUE: tls1_prf:slen <- [DW_OP_plus_uconst 16] [$sp+0]
	@DEBUG_VALUE: tls1_prf:rlen <- [DW_OP_plus_uconst 224] [$sp+0]
	@DEBUG_VALUE: tls1_prf:dstbuf <- [DW_OP_plus_uconst 228] [$sp+0]
	@DEBUG_VALUE: tls1_prf:dlen <- [DW_OP_plus_uconst 232] [$sp+0]
	.loc	1 514 1 is_stmt 1               @ ../../../ThirdParty/mbedTLS/library/ssl_tls.c:514:1
	add	sp, #204
.Ltmp307:
	pop	{r4, r5, r6, r7, pc}
.LBB6_5:
.Ltmp308:
	@DEBUG_VALUE: tls1_prf:label <- $r5
	@DEBUG_VALUE: tls1_prf:ret <- $r0
	@DEBUG_VALUE: tls1_prf:nb <- [DW_OP_plus_uconst 8] [$sp+0]
	@DEBUG_VALUE: tls1_prf:S1 <- [DW_OP_plus_uconst 12] [$sp+0]
	@DEBUG_VALUE: tls1_prf:secret <- [DW_OP_plus_uconst 12] [$sp+0]
	@DEBUG_VALUE: tls1_prf:slen <- [DW_OP_plus_uconst 16] [$sp+0]
	@DEBUG_VALUE: tls1_prf:rlen <- [DW_OP_plus_uconst 224] [$sp+0]
	@DEBUG_VALUE: tls1_prf:dstbuf <- [DW_OP_plus_uconst 228] [$sp+0]
	@DEBUG_VALUE: tls1_prf:dlen <- [DW_OP_plus_uconst 232] [$sp+0]
	.loc	1 0 1 is_stmt 0                 @ ../../../ThirdParty/mbedTLS/library/ssl_tls.c:0:1
	ldr	r5, [sp, #232]
.Ltmp309:
	ldr	r0, [sp, #228]
.Ltmp310:
	str	r0, [sp, #36]                   @ 4-byte Spill
	ldr	r0, [sp, #16]                   @ 4-byte Reload
	adds	r0, r0, #1
	lsrs	r2, r0, #1
.Ltmp311:
	@DEBUG_VALUE: tls1_prf:S2 <- undef
	@DEBUG_VALUE: tls1_prf:hs <- $r2
	add	r4, sp, #44
	.loc	1 457 5 is_stmt 1               @ ../../../ThirdParty/mbedTLS/library/ssl_tls.c:457:5
	mov	r0, r4
	ldr	r1, [sp, #12]                   @ 4-byte Reload
	str	r2, [sp]                        @ 4-byte Spill
.Ltmp312:
	@DEBUG_VALUE: tls1_prf:hs <- [$sp+0]
	bl	mbedtls_md_hmac_starts
	.loc	1 458 5                         @ ../../../ThirdParty/mbedTLS/library/ssl_tls.c:458:5
	mov	r0, r4
	ldr	r1, [sp, #4]                    @ 4-byte Reload
	ldr	r2, [sp, #8]                    @ 4-byte Reload
	bl	mbedtls_md_hmac_update
	add	r0, sp, #76
	.loc	1 459 40                        @ ../../../ThirdParty/mbedTLS/library/ssl_tls.c:459:40
	adds	r6, r0, #4
	.loc	1 459 5 is_stmt 0               @ ../../../ThirdParty/mbedTLS/library/ssl_tls.c:459:5
	mov	r0, r4
	mov	r1, r6
	bl	mbedtls_md_hmac_finish
.Ltmp313:
	@DEBUG_VALUE: tls1_prf:i <- 0
	.loc	1 0 5                           @ ../../../ThirdParty/mbedTLS/library/ssl_tls.c:0:5
	str	r5, [sp, #32]                   @ 4-byte Spill
.Ltmp314:
	.loc	1 461 5 is_stmt 1               @ ../../../ThirdParty/mbedTLS/library/ssl_tls.c:461:5
	cbz	r5, .LBB6_12
.Ltmp315:
@ %bb.6:
	@DEBUG_VALUE: tls1_prf:hs <- [$sp+0]
	@DEBUG_VALUE: tls1_prf:nb <- [DW_OP_plus_uconst 8] [$sp+0]
	@DEBUG_VALUE: tls1_prf:S1 <- [DW_OP_plus_uconst 12] [$sp+0]
	@DEBUG_VALUE: tls1_prf:secret <- [DW_OP_plus_uconst 12] [$sp+0]
	@DEBUG_VALUE: tls1_prf:slen <- [DW_OP_plus_uconst 16] [$sp+0]
	@DEBUG_VALUE: tls1_prf:rlen <- [DW_OP_plus_uconst 224] [$sp+0]
	@DEBUG_VALUE: tls1_prf:dstbuf <- [DW_OP_plus_uconst 228] [$sp+0]
	@DEBUG_VALUE: tls1_prf:dlen <- [DW_OP_plus_uconst 232] [$sp+0]
	@DEBUG_VALUE: tls1_prf:i <- 0
	.loc	1 0 5 is_stmt 0                 @ ../../../ThirdParty/mbedTLS/library/ssl_tls.c:0:5
	movs	r0, #15
	ands	r0, r5
	str	r0, [sp, #28]                   @ 4-byte Spill
.Ltmp316:
	ldr	r0, [sp, #8]                    @ 4-byte Reload
	adds	r0, #16
	str	r0, [sp, #24]                   @ 4-byte Spill
	movs	r7, #0
	b	.LBB6_8
.Ltmp317:
.LBB6_7:                                @   in Loop: Header=BB6_8 Depth=1
	@DEBUG_VALUE: tls1_prf:i <- [DW_OP_plus_uconst 40] [$sp+0]
	@DEBUG_VALUE: tls1_prf:hs <- [$sp+0]
	@DEBUG_VALUE: tls1_prf:nb <- [DW_OP_plus_uconst 8] [$sp+0]
	@DEBUG_VALUE: tls1_prf:S1 <- [DW_OP_plus_uconst 12] [$sp+0]
	@DEBUG_VALUE: tls1_prf:secret <- [DW_OP_plus_uconst 12] [$sp+0]
	@DEBUG_VALUE: tls1_prf:slen <- [DW_OP_plus_uconst 16] [$sp+0]
	@DEBUG_VALUE: tls1_prf:rlen <- [DW_OP_plus_uconst 224] [$sp+0]
	@DEBUG_VALUE: tls1_prf:dstbuf <- [DW_OP_plus_uconst 228] [$sp+0]
	@DEBUG_VALUE: tls1_prf:dlen <- [DW_OP_plus_uconst 232] [$sp+0]
	@DEBUG_VALUE: tls1_prf:i <- $r7
	.loc	1 461 5                         @ ../../../ThirdParty/mbedTLS/library/ssl_tls.c:461:5
	cmp	r7, r5
	bhs	.LBB6_12
.Ltmp318:
.LBB6_8:                                @ =>This Inner Loop Header: Depth=1
	@DEBUG_VALUE: tls1_prf:hs <- [$sp+0]
	@DEBUG_VALUE: tls1_prf:nb <- [DW_OP_plus_uconst 8] [$sp+0]
	@DEBUG_VALUE: tls1_prf:S1 <- [DW_OP_plus_uconst 12] [$sp+0]
	@DEBUG_VALUE: tls1_prf:secret <- [DW_OP_plus_uconst 12] [$sp+0]
	@DEBUG_VALUE: tls1_prf:slen <- [DW_OP_plus_uconst 16] [$sp+0]
	@DEBUG_VALUE: tls1_prf:rlen <- [DW_OP_plus_uconst 224] [$sp+0]
	@DEBUG_VALUE: tls1_prf:dstbuf <- [DW_OP_plus_uconst 228] [$sp+0]
	@DEBUG_VALUE: tls1_prf:dlen <- [DW_OP_plus_uconst 232] [$sp+0]
	.loc	1 0 5                           @ ../../../ThirdParty/mbedTLS/library/ssl_tls.c:0:5
	str	r7, [sp, #40]                   @ 4-byte Spill
.Ltmp319:
	@DEBUG_VALUE: tls1_prf:i <- [DW_OP_plus_uconst 40] [$sp+0]
	add	r5, sp, #44
.Ltmp320:
	.loc	1 463 9 is_stmt 1               @ ../../../ThirdParty/mbedTLS/library/ssl_tls.c:463:9
	mov	r0, r5
	bl	mbedtls_md_hmac_reset
	.loc	1 464 9                         @ ../../../ThirdParty/mbedTLS/library/ssl_tls.c:464:9
	mov	r0, r5
	mov	r1, r6
	ldr	r2, [sp, #24]                   @ 4-byte Reload
	bl	mbedtls_md_hmac_update
	add	r1, sp, #56
	.loc	1 465 9                         @ ../../../ThirdParty/mbedTLS/library/ssl_tls.c:465:9
	mov	r0, r5
	bl	mbedtls_md_hmac_finish
	.loc	1 467 9                         @ ../../../ThirdParty/mbedTLS/library/ssl_tls.c:467:9
	mov	r0, r5
	bl	mbedtls_md_hmac_reset
	movs	r4, #16
	.loc	1 468 9                         @ ../../../ThirdParty/mbedTLS/library/ssl_tls.c:468:9
	mov	r0, r5
	mov	r1, r6
	mov	r2, r4
	bl	mbedtls_md_hmac_update
	.loc	1 469 9                         @ ../../../ThirdParty/mbedTLS/library/ssl_tls.c:469:9
	mov	r0, r5
	ldr	r5, [sp, #32]                   @ 4-byte Reload
	mov	r1, r6
	bl	mbedtls_md_hmac_finish
	.loc	1 471 17                        @ ../../../ThirdParty/mbedTLS/library/ssl_tls.c:471:17
	adds	r7, #16
	.loc	1 471 13 is_stmt 0              @ ../../../ThirdParty/mbedTLS/library/ssl_tls.c:471:13
	cmp	r7, r5
	ldr	r2, [sp, #28]                   @ 4-byte Reload
	bhi	.LBB6_10
.Ltmp321:
@ %bb.9:                                @   in Loop: Header=BB6_8 Depth=1
	@DEBUG_VALUE: tls1_prf:i <- [DW_OP_plus_uconst 40] [$sp+0]
	@DEBUG_VALUE: tls1_prf:hs <- [$sp+0]
	@DEBUG_VALUE: tls1_prf:nb <- [DW_OP_plus_uconst 8] [$sp+0]
	@DEBUG_VALUE: tls1_prf:S1 <- [DW_OP_plus_uconst 12] [$sp+0]
	@DEBUG_VALUE: tls1_prf:secret <- [DW_OP_plus_uconst 12] [$sp+0]
	@DEBUG_VALUE: tls1_prf:slen <- [DW_OP_plus_uconst 16] [$sp+0]
	@DEBUG_VALUE: tls1_prf:rlen <- [DW_OP_plus_uconst 224] [$sp+0]
	@DEBUG_VALUE: tls1_prf:dstbuf <- [DW_OP_plus_uconst 228] [$sp+0]
	@DEBUG_VALUE: tls1_prf:dlen <- [DW_OP_plus_uconst 232] [$sp+0]
	mov	r2, r4
.Ltmp322:
.LBB6_10:                               @   in Loop: Header=BB6_8 Depth=1
	@DEBUG_VALUE: tls1_prf:i <- [DW_OP_plus_uconst 40] [$sp+0]
	@DEBUG_VALUE: tls1_prf:hs <- [$sp+0]
	@DEBUG_VALUE: tls1_prf:nb <- [DW_OP_plus_uconst 8] [$sp+0]
	@DEBUG_VALUE: tls1_prf:S1 <- [DW_OP_plus_uconst 12] [$sp+0]
	@DEBUG_VALUE: tls1_prf:secret <- [DW_OP_plus_uconst 12] [$sp+0]
	@DEBUG_VALUE: tls1_prf:slen <- [DW_OP_plus_uconst 16] [$sp+0]
	@DEBUG_VALUE: tls1_prf:rlen <- [DW_OP_plus_uconst 224] [$sp+0]
	@DEBUG_VALUE: tls1_prf:dstbuf <- [DW_OP_plus_uconst 228] [$sp+0]
	@DEBUG_VALUE: tls1_prf:dlen <- [DW_OP_plus_uconst 232] [$sp+0]
	@DEBUG_VALUE: tls1_prf:k <- $r2
	@DEBUG_VALUE: tls1_prf:j <- 0
	.loc	1 473 9 is_stmt 1               @ ../../../ThirdParty/mbedTLS/library/ssl_tls.c:473:9
	cmp	r2, #0
	beq	.LBB6_7
.Ltmp323:
@ %bb.11:                               @   in Loop: Header=BB6_8 Depth=1
	@DEBUG_VALUE: tls1_prf:k <- $r2
	@DEBUG_VALUE: tls1_prf:i <- [DW_OP_plus_uconst 40] [$sp+0]
	@DEBUG_VALUE: tls1_prf:hs <- [$sp+0]
	@DEBUG_VALUE: tls1_prf:nb <- [DW_OP_plus_uconst 8] [$sp+0]
	@DEBUG_VALUE: tls1_prf:S1 <- [DW_OP_plus_uconst 12] [$sp+0]
	@DEBUG_VALUE: tls1_prf:secret <- [DW_OP_plus_uconst 12] [$sp+0]
	@DEBUG_VALUE: tls1_prf:slen <- [DW_OP_plus_uconst 16] [$sp+0]
	@DEBUG_VALUE: tls1_prf:rlen <- [DW_OP_plus_uconst 224] [$sp+0]
	@DEBUG_VALUE: tls1_prf:dstbuf <- [DW_OP_plus_uconst 228] [$sp+0]
	@DEBUG_VALUE: tls1_prf:dlen <- [DW_OP_plus_uconst 232] [$sp+0]
	@DEBUG_VALUE: tls1_prf:j <- 0
	.loc	1 474 28                        @ ../../../ThirdParty/mbedTLS/library/ssl_tls.c:474:28
	ldr	r0, [sp, #36]                   @ 4-byte Reload
	ldr	r1, [sp, #40]                   @ 4-byte Reload
	adds	r0, r0, r1
	add	r1, sp, #56
	bl	__aeabi_memcpy
.Ltmp324:
	@DEBUG_VALUE: tls1_prf:j <- undef
	.loc	1 0 28 is_stmt 0                @ ../../../ThirdParty/mbedTLS/library/ssl_tls.c:0:28
	b	.LBB6_7
.Ltmp325:
.LBB6_12:
	@DEBUG_VALUE: tls1_prf:hs <- [$sp+0]
	@DEBUG_VALUE: tls1_prf:nb <- [DW_OP_plus_uconst 8] [$sp+0]
	@DEBUG_VALUE: tls1_prf:S1 <- [DW_OP_plus_uconst 12] [$sp+0]
	@DEBUG_VALUE: tls1_prf:secret <- [DW_OP_plus_uconst 12] [$sp+0]
	@DEBUG_VALUE: tls1_prf:slen <- [DW_OP_plus_uconst 16] [$sp+0]
	@DEBUG_VALUE: tls1_prf:rlen <- [DW_OP_plus_uconst 224] [$sp+0]
	@DEBUG_VALUE: tls1_prf:dstbuf <- [DW_OP_plus_uconst 228] [$sp+0]
	@DEBUG_VALUE: tls1_prf:dlen <- [DW_OP_plus_uconst 232] [$sp+0]
	@DEBUG_VALUE: tls1_prf:S2 <- undef
	add	r0, sp, #44
	.loc	1 477 5 is_stmt 1               @ ../../../ThirdParty/mbedTLS/library/ssl_tls.c:477:5
	bl	mbedtls_md_free
	movs	r0, #4
.Ltmp326:
	.loc	1 482 21                        @ ../../../ThirdParty/mbedTLS/library/ssl_tls.c:482:21
	bl	mbedtls_md_info_from_type
	mov	r1, r0
.Ltmp327:
	@DEBUG_VALUE: tls1_prf:md_info <- $r1
	.loc	1 482 9 is_stmt 0               @ ../../../ThirdParty/mbedTLS/library/ssl_tls.c:482:9
	cmp	r0, #0
	.loc	1 0 0                           @ ../../../ThirdParty/mbedTLS/library/ssl_tls.c:0:0
	ldr	r0, __arm_cp.6_1
	.loc	1 482 9                         @ ../../../ThirdParty/mbedTLS/library/ssl_tls.c:482:9
	beq	.LBB6_4
.Ltmp328:
@ %bb.13:
	@DEBUG_VALUE: tls1_prf:md_info <- $r1
	@DEBUG_VALUE: tls1_prf:hs <- [$sp+0]
	@DEBUG_VALUE: tls1_prf:nb <- [DW_OP_plus_uconst 8] [$sp+0]
	@DEBUG_VALUE: tls1_prf:S1 <- [DW_OP_plus_uconst 12] [$sp+0]
	@DEBUG_VALUE: tls1_prf:secret <- [DW_OP_plus_uconst 12] [$sp+0]
	@DEBUG_VALUE: tls1_prf:slen <- [DW_OP_plus_uconst 16] [$sp+0]
	@DEBUG_VALUE: tls1_prf:rlen <- [DW_OP_plus_uconst 224] [$sp+0]
	@DEBUG_VALUE: tls1_prf:dstbuf <- [DW_OP_plus_uconst 228] [$sp+0]
	@DEBUG_VALUE: tls1_prf:dlen <- [DW_OP_plus_uconst 232] [$sp+0]
	@DEBUG_VALUE: tls1_prf:S2 <- undef
	.loc	1 0 9                           @ ../../../ThirdParty/mbedTLS/library/ssl_tls.c:0:9
	add	r0, sp, #44
	movs	r2, #1
.Ltmp329:
	.loc	1 485 17 is_stmt 1              @ ../../../ThirdParty/mbedTLS/library/ssl_tls.c:485:17
	bl	mbedtls_md_setup
.Ltmp330:
	@DEBUG_VALUE: tls1_prf:ret <- $r0
	.loc	1 485 9 is_stmt 0               @ ../../../ThirdParty/mbedTLS/library/ssl_tls.c:485:9
	cmp	r0, #0
	bne	.LBB6_4
.Ltmp331:
@ %bb.14:
	@DEBUG_VALUE: tls1_prf:ret <- $r0
	@DEBUG_VALUE: tls1_prf:hs <- [$sp+0]
	@DEBUG_VALUE: tls1_prf:nb <- [DW_OP_plus_uconst 8] [$sp+0]
	@DEBUG_VALUE: tls1_prf:S1 <- [DW_OP_plus_uconst 12] [$sp+0]
	@DEBUG_VALUE: tls1_prf:secret <- [DW_OP_plus_uconst 12] [$sp+0]
	@DEBUG_VALUE: tls1_prf:slen <- [DW_OP_plus_uconst 16] [$sp+0]
	@DEBUG_VALUE: tls1_prf:rlen <- [DW_OP_plus_uconst 224] [$sp+0]
	@DEBUG_VALUE: tls1_prf:dstbuf <- [DW_OP_plus_uconst 228] [$sp+0]
	@DEBUG_VALUE: tls1_prf:dlen <- [DW_OP_plus_uconst 232] [$sp+0]
	.loc	1 0 0                           @ ../../../ThirdParty/mbedTLS/library/ssl_tls.c:0:0
	ldr	r0, [sp, #16]                   @ 4-byte Reload
.Ltmp332:
	ldr	r1, [sp, #12]                   @ 4-byte Reload
	adds	r0, r1, r0
	ldr	r2, [sp]                        @ 4-byte Reload
	subs	r1, r0, r2
.Ltmp333:
	@DEBUG_VALUE: tls1_prf:S2 <- $r1
	add	r4, sp, #44
	.loc	1 488 5 is_stmt 1               @ ../../../ThirdParty/mbedTLS/library/ssl_tls.c:488:5
	mov	r0, r4
	bl	mbedtls_md_hmac_starts
.Ltmp334:
	.loc	1 489 5                         @ ../../../ThirdParty/mbedTLS/library/ssl_tls.c:489:5
	mov	r0, r4
	ldr	r1, [sp, #4]                    @ 4-byte Reload
	ldr	r2, [sp, #8]                    @ 4-byte Reload
	bl	mbedtls_md_hmac_update
	add	r1, sp, #76
	.loc	1 490 5                         @ ../../../ThirdParty/mbedTLS/library/ssl_tls.c:490:5
	mov	r0, r4
	bl	mbedtls_md_hmac_finish
.Ltmp335:
	@DEBUG_VALUE: tls1_prf:i <- 0
	.loc	1 492 5                         @ ../../../ThirdParty/mbedTLS/library/ssl_tls.c:492:5
	cbz	r5, .LBB6_22
.Ltmp336:
@ %bb.15:
	@DEBUG_VALUE: tls1_prf:hs <- [$sp+0]
	@DEBUG_VALUE: tls1_prf:nb <- [DW_OP_plus_uconst 8] [$sp+0]
	@DEBUG_VALUE: tls1_prf:S1 <- [DW_OP_plus_uconst 12] [$sp+0]
	@DEBUG_VALUE: tls1_prf:secret <- [DW_OP_plus_uconst 12] [$sp+0]
	@DEBUG_VALUE: tls1_prf:slen <- [DW_OP_plus_uconst 16] [$sp+0]
	@DEBUG_VALUE: tls1_prf:rlen <- [DW_OP_plus_uconst 224] [$sp+0]
	@DEBUG_VALUE: tls1_prf:dstbuf <- [DW_OP_plus_uconst 228] [$sp+0]
	@DEBUG_VALUE: tls1_prf:dlen <- [DW_OP_plus_uconst 232] [$sp+0]
	@DEBUG_VALUE: tls1_prf:i <- 0
	.loc	1 0 5 is_stmt 0                 @ ../../../ThirdParty/mbedTLS/library/ssl_tls.c:0:5
	movs	r1, #20
.Ltmp337:
	udiv	r0, r5, r1
	str	r1, [sp, #40]                   @ 4-byte Spill
	muls	r0, r1, r0
	subs	r0, r5, r0
	str	r0, [sp, #28]                   @ 4-byte Spill
	movs	r4, #0
	b	.LBB6_17
.Ltmp338:
.LBB6_16:                               @   in Loop: Header=BB6_17 Depth=1
	@DEBUG_VALUE: tls1_prf:hs <- [$sp+0]
	@DEBUG_VALUE: tls1_prf:nb <- [DW_OP_plus_uconst 8] [$sp+0]
	@DEBUG_VALUE: tls1_prf:S1 <- [DW_OP_plus_uconst 12] [$sp+0]
	@DEBUG_VALUE: tls1_prf:secret <- [DW_OP_plus_uconst 12] [$sp+0]
	@DEBUG_VALUE: tls1_prf:slen <- [DW_OP_plus_uconst 16] [$sp+0]
	@DEBUG_VALUE: tls1_prf:rlen <- [DW_OP_plus_uconst 224] [$sp+0]
	@DEBUG_VALUE: tls1_prf:dstbuf <- [DW_OP_plus_uconst 228] [$sp+0]
	@DEBUG_VALUE: tls1_prf:dlen <- [DW_OP_plus_uconst 232] [$sp+0]
	@DEBUG_VALUE: tls1_prf:i <- $r4
	.loc	1 492 5                         @ ../../../ThirdParty/mbedTLS/library/ssl_tls.c:492:5
	ldr	r0, [sp, #36]                   @ 4-byte Reload
	adds	r0, #20
	str	r0, [sp, #36]                   @ 4-byte Spill
	ldr	r5, [sp, #32]                   @ 4-byte Reload
	cmp	r4, r5
	bhs	.LBB6_22
.Ltmp339:
.LBB6_17:                               @ =>This Loop Header: Depth=1
                                        @     Child Loop BB6_21 Depth 2
	@DEBUG_VALUE: tls1_prf:hs <- [$sp+0]
	@DEBUG_VALUE: tls1_prf:nb <- [DW_OP_plus_uconst 8] [$sp+0]
	@DEBUG_VALUE: tls1_prf:S1 <- [DW_OP_plus_uconst 12] [$sp+0]
	@DEBUG_VALUE: tls1_prf:secret <- [DW_OP_plus_uconst 12] [$sp+0]
	@DEBUG_VALUE: tls1_prf:slen <- [DW_OP_plus_uconst 16] [$sp+0]
	@DEBUG_VALUE: tls1_prf:rlen <- [DW_OP_plus_uconst 224] [$sp+0]
	@DEBUG_VALUE: tls1_prf:dstbuf <- [DW_OP_plus_uconst 228] [$sp+0]
	@DEBUG_VALUE: tls1_prf:dlen <- [DW_OP_plus_uconst 232] [$sp+0]
	@DEBUG_VALUE: tls1_prf:i <- $r4
	.loc	1 0 5                           @ ../../../ThirdParty/mbedTLS/library/ssl_tls.c:0:5
	add	r6, sp, #44
.Ltmp340:
	.loc	1 494 9 is_stmt 1               @ ../../../ThirdParty/mbedTLS/library/ssl_tls.c:494:9
	mov	r0, r6
	bl	mbedtls_md_hmac_reset
	add	r7, sp, #76
	.loc	1 495 9                         @ ../../../ThirdParty/mbedTLS/library/ssl_tls.c:495:9
	mov	r0, r6
	mov	r1, r7
	ldr	r2, [sp, #20]                   @ 4-byte Reload
	bl	mbedtls_md_hmac_update
	add	r1, sp, #56
	.loc	1 496 9                         @ ../../../ThirdParty/mbedTLS/library/ssl_tls.c:496:9
	mov	r0, r6
	bl	mbedtls_md_hmac_finish
	.loc	1 498 9                         @ ../../../ThirdParty/mbedTLS/library/ssl_tls.c:498:9
	mov	r0, r6
	bl	mbedtls_md_hmac_reset
	.loc	1 499 9                         @ ../../../ThirdParty/mbedTLS/library/ssl_tls.c:499:9
	mov	r0, r6
	mov	r1, r7
	ldr	r2, [sp, #40]                   @ 4-byte Reload
	bl	mbedtls_md_hmac_update
	.loc	1 500 9                         @ ../../../ThirdParty/mbedTLS/library/ssl_tls.c:500:9
	mov	r0, r6
	mov	r1, r7
	bl	mbedtls_md_hmac_finish
	.loc	1 502 17                        @ ../../../ThirdParty/mbedTLS/library/ssl_tls.c:502:17
	adds	r4, #20
.Ltmp341:
	.loc	1 502 13 is_stmt 0              @ ../../../ThirdParty/mbedTLS/library/ssl_tls.c:502:13
	cmp	r4, r5
	ldr	r0, [sp, #28]                   @ 4-byte Reload
	bhi	.LBB6_19
.Ltmp342:
@ %bb.18:                               @   in Loop: Header=BB6_17 Depth=1
	@DEBUG_VALUE: tls1_prf:hs <- [$sp+0]
	@DEBUG_VALUE: tls1_prf:nb <- [DW_OP_plus_uconst 8] [$sp+0]
	@DEBUG_VALUE: tls1_prf:S1 <- [DW_OP_plus_uconst 12] [$sp+0]
	@DEBUG_VALUE: tls1_prf:secret <- [DW_OP_plus_uconst 12] [$sp+0]
	@DEBUG_VALUE: tls1_prf:slen <- [DW_OP_plus_uconst 16] [$sp+0]
	@DEBUG_VALUE: tls1_prf:rlen <- [DW_OP_plus_uconst 224] [$sp+0]
	@DEBUG_VALUE: tls1_prf:dstbuf <- [DW_OP_plus_uconst 228] [$sp+0]
	@DEBUG_VALUE: tls1_prf:dlen <- [DW_OP_plus_uconst 232] [$sp+0]
	ldr	r0, [sp, #40]                   @ 4-byte Reload
.Ltmp343:
.LBB6_19:                               @   in Loop: Header=BB6_17 Depth=1
	@DEBUG_VALUE: tls1_prf:hs <- [$sp+0]
	@DEBUG_VALUE: tls1_prf:nb <- [DW_OP_plus_uconst 8] [$sp+0]
	@DEBUG_VALUE: tls1_prf:S1 <- [DW_OP_plus_uconst 12] [$sp+0]
	@DEBUG_VALUE: tls1_prf:secret <- [DW_OP_plus_uconst 12] [$sp+0]
	@DEBUG_VALUE: tls1_prf:slen <- [DW_OP_plus_uconst 16] [$sp+0]
	@DEBUG_VALUE: tls1_prf:rlen <- [DW_OP_plus_uconst 224] [$sp+0]
	@DEBUG_VALUE: tls1_prf:dstbuf <- [DW_OP_plus_uconst 228] [$sp+0]
	@DEBUG_VALUE: tls1_prf:dlen <- [DW_OP_plus_uconst 232] [$sp+0]
	@DEBUG_VALUE: tls1_prf:k <- $r0
	@DEBUG_VALUE: tls1_prf:j <- 0
	.loc	1 504 9 is_stmt 1               @ ../../../ThirdParty/mbedTLS/library/ssl_tls.c:504:9
	cmp	r0, #0
	beq	.LBB6_16
.Ltmp344:
@ %bb.20:                               @   in Loop: Header=BB6_17 Depth=1
	@DEBUG_VALUE: tls1_prf:k <- $r0
	@DEBUG_VALUE: tls1_prf:hs <- [$sp+0]
	@DEBUG_VALUE: tls1_prf:nb <- [DW_OP_plus_uconst 8] [$sp+0]
	@DEBUG_VALUE: tls1_prf:S1 <- [DW_OP_plus_uconst 12] [$sp+0]
	@DEBUG_VALUE: tls1_prf:secret <- [DW_OP_plus_uconst 12] [$sp+0]
	@DEBUG_VALUE: tls1_prf:slen <- [DW_OP_plus_uconst 16] [$sp+0]
	@DEBUG_VALUE: tls1_prf:rlen <- [DW_OP_plus_uconst 224] [$sp+0]
	@DEBUG_VALUE: tls1_prf:dstbuf <- [DW_OP_plus_uconst 228] [$sp+0]
	@DEBUG_VALUE: tls1_prf:dlen <- [DW_OP_plus_uconst 232] [$sp+0]
	@DEBUG_VALUE: tls1_prf:j <- 0
	.loc	1 0 9 is_stmt 0                 @ ../../../ThirdParty/mbedTLS/library/ssl_tls.c:0:9
	add	r1, sp, #56
	ldr	r2, [sp, #36]                   @ 4-byte Reload
.Ltmp345:
.LBB6_21:                               @   Parent Loop BB6_17 Depth=1
                                        @ =>  This Inner Loop Header: Depth=2
	@DEBUG_VALUE: tls1_prf:hs <- [$sp+0]
	@DEBUG_VALUE: tls1_prf:nb <- [DW_OP_plus_uconst 8] [$sp+0]
	@DEBUG_VALUE: tls1_prf:S1 <- [DW_OP_plus_uconst 12] [$sp+0]
	@DEBUG_VALUE: tls1_prf:secret <- [DW_OP_plus_uconst 12] [$sp+0]
	@DEBUG_VALUE: tls1_prf:slen <- [DW_OP_plus_uconst 16] [$sp+0]
	@DEBUG_VALUE: tls1_prf:rlen <- [DW_OP_plus_uconst 224] [$sp+0]
	@DEBUG_VALUE: tls1_prf:dstbuf <- [DW_OP_plus_uconst 228] [$sp+0]
	@DEBUG_VALUE: tls1_prf:dlen <- [DW_OP_plus_uconst 232] [$sp+0]
	@DEBUG_VALUE: tls1_prf:j <- undef
	.loc	1 505 46 is_stmt 1              @ ../../../ThirdParty/mbedTLS/library/ssl_tls.c:505:46
	ldrb	r3, [r2]
	.loc	1 505 62 is_stmt 0              @ ../../../ThirdParty/mbedTLS/library/ssl_tls.c:505:62
	ldrb	r6, [r1]
	.loc	1 505 60                        @ ../../../ThirdParty/mbedTLS/library/ssl_tls.c:505:60
	eors	r6, r3
	.loc	1 505 27                        @ ../../../ThirdParty/mbedTLS/library/ssl_tls.c:505:27
	strb	r6, [r2]
	.loc	1 504 23 is_stmt 1              @ ../../../ThirdParty/mbedTLS/library/ssl_tls.c:504:23
	adds	r2, r2, #1
	adds	r1, r1, #1
.Ltmp346:
	@DEBUG_VALUE: tls1_prf:j <- [DW_OP_plus_uconst 1, DW_OP_stack_value] undef
	subs	r0, r0, #1
.Ltmp347:
	.loc	1 504 9 is_stmt 0               @ ../../../ThirdParty/mbedTLS/library/ssl_tls.c:504:9
	bne	.LBB6_21
	b	.LBB6_16
.Ltmp348:
.LBB6_22:
	@DEBUG_VALUE: tls1_prf:hs <- [$sp+0]
	@DEBUG_VALUE: tls1_prf:nb <- [DW_OP_plus_uconst 8] [$sp+0]
	@DEBUG_VALUE: tls1_prf:S1 <- [DW_OP_plus_uconst 12] [$sp+0]
	@DEBUG_VALUE: tls1_prf:secret <- [DW_OP_plus_uconst 12] [$sp+0]
	@DEBUG_VALUE: tls1_prf:slen <- [DW_OP_plus_uconst 16] [$sp+0]
	@DEBUG_VALUE: tls1_prf:rlen <- [DW_OP_plus_uconst 224] [$sp+0]
	@DEBUG_VALUE: tls1_prf:dstbuf <- [DW_OP_plus_uconst 228] [$sp+0]
	@DEBUG_VALUE: tls1_prf:dlen <- [DW_OP_plus_uconst 232] [$sp+0]
	.loc	1 0 9                           @ ../../../ThirdParty/mbedTLS/library/ssl_tls.c:0:9
	add	r0, sp, #44
	.loc	1 508 5 is_stmt 1               @ ../../../ThirdParty/mbedTLS/library/ssl_tls.c:508:5
	bl	mbedtls_md_free
	add	r0, sp, #76
	movs	r1, #128
	.loc	1 510 5                         @ ../../../ThirdParty/mbedTLS/library/ssl_tls.c:510:5
	bl	mbedtls_platform_zeroize
	add	r0, sp, #56
	movs	r1, #20
	.loc	1 511 5                         @ ../../../ThirdParty/mbedTLS/library/ssl_tls.c:511:5
	bl	mbedtls_platform_zeroize
	movs	r0, #0
	.loc	1 514 1                         @ ../../../ThirdParty/mbedTLS/library/ssl_tls.c:514:1
	add	sp, #204
.Ltmp349:
	pop	{r4, r5, r6, r7, pc}
.Ltmp350:
	.p2align	2
@ %bb.23:
	.loc	1 0 1 is_stmt 0                 @ ../../../ThirdParty/mbedTLS/library/ssl_tls.c:0:1
__arm_cp.6_0:
	.long	4294938368                      @ 0xffff8f00
.Lcpi_end50:
	.size	__arm_cp.6_0, .Lcpi_end50-__arm_cp.6_0
__arm_cp.6_1:
	.long	4294939648                      @ 0xffff9400
.Lcpi_end51:
	.size	__arm_cp.6_1, .Lcpi_end51-__arm_cp.6_1
.Lfunc_end6:
	.size	tls1_prf, .Lfunc_end6-tls1_prf
	.cfi_endproc
	.cantunwind
	.fnend
                                        @ -- End function
	.section	.text.ssl_calc_verify_tls,"ax",%progbits
	.p2align	2                               @ -- Begin function ssl_calc_verify_tls
	.type	ssl_calc_verify_tls,%function
	.code	16                              @ @ssl_calc_verify_tls
	.thumb_func
ssl_calc_verify_tls:
.Lfunc_begin7:
	.loc	1 1433 0 is_stmt 1              @ ../../../ThirdParty/mbedTLS/library/ssl_tls.c:1433:0
	.fnstart
	.cfi_startproc
@ %bb.0:
	@DEBUG_VALUE: ssl_calc_verify_tls:ssl <- $r0
	@DEBUG_VALUE: ssl_calc_verify_tls:hash <- $r1
	.save	{r4, r5, r6, r7, lr}
	push	{r4, r5, r6, r7, lr}
	.cfi_def_cfa_offset 20
	.cfi_offset lr, -4
	.cfi_offset r7, -8
	.cfi_offset r6, -12
	.cfi_offset r5, -16
	.cfi_offset r4, -20
	.pad	#204
	sub	sp, #204
	.cfi_def_cfa_offset 224
	str	r1, [sp, #16]                   @ 4-byte Spill
	mov	r5, r0
.Ltmp351:
	@DEBUG_VALUE: ssl_calc_verify_tls:hash <- [DW_OP_plus_uconst 16] [$sp+0]
	@DEBUG_VALUE: ssl_calc_verify_tls:ssl <- $r5
	.loc	1 1437 5 prologue_end           @ ../../../ThirdParty/mbedTLS/library/ssl_tls.c:1437:5
	adr	r0, .LCPI7_0
	str	r0, [sp]
	movs	r1, #2
	str	r1, [sp, #20]                   @ 4-byte Spill
	ldr	r2, __arm_cp.7_1
	ldr	r7, __arm_cp.7_2
	mov	r0, r5
	mov	r3, r7
	bl	mbedtls_debug_print_msg
	add	r4, sp, #116
	.loc	1 1439 5                        @ ../../../ThirdParty/mbedTLS/library/ssl_tls.c:1439:5
	mov	r0, r4
	str	r4, [sp, #12]                   @ 4-byte Spill
	bl	mbedtls_md5_init
	add	r6, sp, #24
	.loc	1 1440 5                        @ ../../../ThirdParty/mbedTLS/library/ssl_tls.c:1440:5
	mov	r0, r6
	bl	mbedtls_sha1_init
	.loc	1 1442 36                       @ ../../../ThirdParty/mbedTLS/library/ssl_tls.c:1442:36
	ldr	r0, [r5, #60]
	movw	r1, #600
	.loc	1 1442 47 is_stmt 0             @ ../../../ThirdParty/mbedTLS/library/ssl_tls.c:1442:47
	adds	r1, r0, r1
	.loc	1 1442 5                        @ ../../../ThirdParty/mbedTLS/library/ssl_tls.c:1442:5
	mov	r0, r4
	bl	mbedtls_md5_clone
	.loc	1 1443 38 is_stmt 1             @ ../../../ThirdParty/mbedTLS/library/ssl_tls.c:1443:38
	ldr	r0, [r5, #60]
	movw	r1, #688
	.loc	1 1443 49 is_stmt 0             @ ../../../ThirdParty/mbedTLS/library/ssl_tls.c:1443:49
	adds	r1, r0, r1
	.loc	1 1443 5                        @ ../../../ThirdParty/mbedTLS/library/ssl_tls.c:1443:5
	mov	r0, r6
	bl	mbedtls_sha1_clone
	.loc	1 1445 5 is_stmt 1              @ ../../../ThirdParty/mbedTLS/library/ssl_tls.c:1445:5
	mov	r0, r4
	ldr	r4, [sp, #16]                   @ 4-byte Reload
.Ltmp352:
	@DEBUG_VALUE: ssl_calc_verify_tls:hash <- $r4
	mov	r1, r4
	bl	mbedtls_md5_finish_ret
	.loc	1 1446 42                       @ ../../../ThirdParty/mbedTLS/library/ssl_tls.c:1446:42
	mov	r1, r4
	@DEBUG_VALUE: ssl_calc_verify_tls:hash <- $r4
	adds	r1, #16
	.loc	1 1446 5 is_stmt 0              @ ../../../ThirdParty/mbedTLS/library/ssl_tls.c:1446:5
	mov	r0, r6
	bl	mbedtls_sha1_finish_ret
	movs	r0, #36
	.loc	1 1448 5 is_stmt 1              @ ../../../ThirdParty/mbedTLS/library/ssl_tls.c:1448:5
	str	r0, [sp, #8]
	str	r4, [sp, #4]
	ldr	r0, __arm_cp.7_3
	str	r0, [sp]
	mov	r3, r7
	adds	r3, #11
	movs	r1, #3
	mov	r0, r5
	ldr	r2, __arm_cp.7_1
	bl	mbedtls_debug_print_buf
	.loc	1 1449 5                        @ ../../../ThirdParty/mbedTLS/library/ssl_tls.c:1449:5
	ldr	r0, __arm_cp.7_4
	str	r0, [sp]
	adds	r7, #12
	mov	r0, r5
	ldr	r1, [sp, #20]                   @ 4-byte Reload
	ldr	r2, __arm_cp.7_1
	mov	r3, r7
	bl	mbedtls_debug_print_msg
	.loc	1 1451 5                        @ ../../../ThirdParty/mbedTLS/library/ssl_tls.c:1451:5
	ldr	r0, [sp, #12]                   @ 4-byte Reload
	bl	mbedtls_md5_free
	.loc	1 1452 5                        @ ../../../ThirdParty/mbedTLS/library/ssl_tls.c:1452:5
	mov	r0, r6
	bl	mbedtls_sha1_free
	.loc	1 1455 1                        @ ../../../ThirdParty/mbedTLS/library/ssl_tls.c:1455:1
	add	sp, #204
	pop	{r4, r5, r6, r7, pc}
.Ltmp353:
	.p2align	2
@ %bb.1:
	.loc	1 0 1 is_stmt 0                 @ ../../../ThirdParty/mbedTLS/library/ssl_tls.c:0:1
.LCPI7_0:
.L.str.172:
	.asciz	"=> calc verify tls\000"
__arm_cp.7_1:
	.long	.L.str
.Lcpi_end52:
	.size	__arm_cp.7_1, .Lcpi_end52-__arm_cp.7_1
__arm_cp.7_2:
	.long	1437                            @ 0x59d
.Lcpi_end53:
	.size	__arm_cp.7_2, .Lcpi_end53-__arm_cp.7_2
__arm_cp.7_3:
	.long	.L.str.170
.Lcpi_end54:
	.size	__arm_cp.7_3, .Lcpi_end54-__arm_cp.7_3
__arm_cp.7_4:
	.long	.L.str.171
.Lcpi_end55:
	.size	__arm_cp.7_4, .Lcpi_end55-__arm_cp.7_4
.Lfunc_end7:
	.size	ssl_calc_verify_tls, .Lfunc_end7-ssl_calc_verify_tls
	.cfi_endproc
	.cantunwind
	.fnend
                                        @ -- End function
	.section	.text.ssl_calc_finished_tls,"ax",%progbits
	.p2align	2                               @ -- Begin function ssl_calc_finished_tls
	.type	ssl_calc_finished_tls,%function
	.code	16                              @ @ssl_calc_finished_tls
	.thumb_func
ssl_calc_finished_tls:
.Lfunc_begin8:
	.loc	1 6684 0 is_stmt 1              @ ../../../ThirdParty/mbedTLS/library/ssl_tls.c:6684:0
	.fnstart
	.cfi_startproc
@ %bb.0:
	@DEBUG_VALUE: ssl_calc_finished_tls:ssl <- $r0
	@DEBUG_VALUE: ssl_calc_finished_tls:buf <- $r1
	@DEBUG_VALUE: ssl_calc_finished_tls:from <- $r2
	.save	{r4, r5, r6, r7, lr}
	push	{r4, r5, r6, r7, lr}
	.cfi_def_cfa_offset 20
	.cfi_offset lr, -4
	.cfi_offset r7, -8
	.cfi_offset r6, -12
	.cfi_offset r5, -16
	.cfi_offset r4, -20
	.pad	#260
	sub	sp, #260
	.cfi_def_cfa_offset 280
	str	r2, [sp, #24]                   @ 4-byte Spill
	str	r1, [sp, #40]                   @ 4-byte Spill
	mov	r4, r0
.Ltmp354:
	@DEBUG_VALUE: ssl_calc_finished_tls:len <- 12
	@DEBUG_VALUE: ssl_calc_finished_tls:from <- [DW_OP_plus_uconst 24] [$sp+0]
	@DEBUG_VALUE: ssl_calc_finished_tls:buf <- [DW_OP_plus_uconst 40] [$sp+0]
	@DEBUG_VALUE: ssl_calc_finished_tls:ssl <- $r4
	.loc	1 6691 41 prologue_end          @ ../../../ThirdParty/mbedTLS/library/ssl_tls.c:6691:41
	ldr	r0, [r0, #56]
.Ltmp355:
	@DEBUG_VALUE: ssl_calc_finished_tls:session <- $r0
	.loc	1 6692 9                        @ ../../../ThirdParty/mbedTLS/library/ssl_tls.c:6692:9
	cbnz	r0, .LBB8_2
.Ltmp356:
@ %bb.1:
	@DEBUG_VALUE: ssl_calc_finished_tls:ssl <- $r4
	@DEBUG_VALUE: ssl_calc_finished_tls:session <- $r0
	@DEBUG_VALUE: ssl_calc_finished_tls:buf <- [DW_OP_plus_uconst 40] [$sp+0]
	@DEBUG_VALUE: ssl_calc_finished_tls:from <- [DW_OP_plus_uconst 24] [$sp+0]
	@DEBUG_VALUE: ssl_calc_finished_tls:len <- 12
	.loc	1 6693 24                       @ ../../../ThirdParty/mbedTLS/library/ssl_tls.c:6693:24
	ldr	r0, [r4, #52]
.Ltmp357:
	@DEBUG_VALUE: ssl_calc_finished_tls:session <- $r0
.LBB8_2:
	@DEBUG_VALUE: ssl_calc_finished_tls:ssl <- $r4
	@DEBUG_VALUE: ssl_calc_finished_tls:session <- $r0
	@DEBUG_VALUE: ssl_calc_finished_tls:buf <- [DW_OP_plus_uconst 40] [$sp+0]
	@DEBUG_VALUE: ssl_calc_finished_tls:from <- [DW_OP_plus_uconst 24] [$sp+0]
	@DEBUG_VALUE: ssl_calc_finished_tls:len <- 12
	@DEBUG_VALUE: ssl_calc_finished_tls:session <- $r0
	.loc	1 0 24 is_stmt 0                @ ../../../ThirdParty/mbedTLS/library/ssl_tls.c:0:24
	str	r0, [sp, #12]                   @ 4-byte Spill
.Ltmp358:
	@DEBUG_VALUE: ssl_calc_finished_tls:session <- [DW_OP_plus_uconst 12] [$sp+0]
	@DEBUG_VALUE: ssl_calc_finished_tls:session <- [DW_OP_plus_uconst 12] [$sp+0]
	.loc	1 6695 5 is_stmt 1              @ ../../../ThirdParty/mbedTLS/library/ssl_tls.c:6695:5
	adr	r0, .LCPI8_0
	str	r0, [sp]
	movs	r1, #2
	ldr	r2, __arm_cp.8_1
	ldr	r3, __arm_cp.8_2
	mov	r0, r4
	str	r1, [sp, #36]                   @ 4-byte Spill
	mov	r5, r3
	bl	mbedtls_debug_print_msg
	add	r6, sp, #172
	.loc	1 6697 5                        @ ../../../ThirdParty/mbedTLS/library/ssl_tls.c:6697:5
	mov	r0, r6
	bl	mbedtls_md5_init
	add	r7, sp, #80
	.loc	1 6698 5                        @ ../../../ThirdParty/mbedTLS/library/ssl_tls.c:6698:5
	mov	r0, r7
	bl	mbedtls_sha1_init
	.loc	1 6700 36                       @ ../../../ThirdParty/mbedTLS/library/ssl_tls.c:6700:36
	ldr	r0, [r4, #60]
	movw	r1, #600
	.loc	1 6700 47 is_stmt 0             @ ../../../ThirdParty/mbedTLS/library/ssl_tls.c:6700:47
	adds	r1, r0, r1
	.loc	1 6700 5                        @ ../../../ThirdParty/mbedTLS/library/ssl_tls.c:6700:5
	mov	r0, r6
	bl	mbedtls_md5_clone
	.loc	1 6701 38 is_stmt 1             @ ../../../ThirdParty/mbedTLS/library/ssl_tls.c:6701:38
	ldr	r0, [r4, #60]
	movw	r1, #688
	.loc	1 6701 49 is_stmt 0             @ ../../../ThirdParty/mbedTLS/library/ssl_tls.c:6701:49
	adds	r1, r0, r1
	.loc	1 6701 5                        @ ../../../ThirdParty/mbedTLS/library/ssl_tls.c:6701:5
	mov	r0, r7
	bl	mbedtls_sha1_clone
	movs	r0, #16
	.loc	1 6710 5 is_stmt 1              @ ../../../ThirdParty/mbedTLS/library/ssl_tls.c:6710:5
	str	r0, [sp, #8]
	mov	r0, r6
	adds	r0, #8
	str	r0, [sp, #4]
	ldr	r0, __arm_cp.8_3
	str	r0, [sp]
	mov	r3, r5
	adds	r3, #16
	movs	r5, #4
	mov	r0, r4
	mov	r1, r5
	ldr	r2, __arm_cp.8_1
	bl	mbedtls_debug_print_buf
	movs	r0, #20
	.loc	1 6715 5                        @ ../../../ThirdParty/mbedTLS/library/ssl_tls.c:6715:5
	str	r0, [sp, #8]
	mov	r0, r7
	adds	r0, #8
	str	r0, [sp, #4]
	ldr	r0, __arm_cp.8_4
	str	r0, [sp]
	ldr	r3, __arm_cp.8_2
	adds	r3, #21
	mov	r0, r4
	mov	r1, r5
	ldr	r2, __arm_cp.8_1
	bl	mbedtls_debug_print_buf
	add	r5, sp, #44
	str	r6, [sp, #32]                   @ 4-byte Spill
	.loc	1 6723 5                        @ ../../../ThirdParty/mbedTLS/library/ssl_tls.c:6723:5
	mov	r0, r6
	mov	r1, r5
	bl	mbedtls_md5_finish_ret
	.loc	1 6724 44                       @ ../../../ThirdParty/mbedTLS/library/ssl_tls.c:6724:44
	mov	r1, r5
	adds	r1, #16
	str	r7, [sp, #28]                   @ 4-byte Spill
	.loc	1 6724 5 is_stmt 0              @ ../../../ThirdParty/mbedTLS/library/ssl_tls.c:6724:5
	mov	r0, r7
	bl	mbedtls_sha1_finish_ret
	.loc	1 6726 10 is_stmt 1             @ ../../../ThirdParty/mbedTLS/library/ssl_tls.c:6726:10
	ldr	r0, [r4, #60]
	ldr	r1, __arm_cp.8_5
	.loc	1 6726 21 is_stmt 0             @ ../../../ThirdParty/mbedTLS/library/ssl_tls.c:6726:21
	ldr	r2, [r0, r1]
	movs	r6, #12
	movs	r1, #36
	.loc	1 6726 5                        @ ../../../ThirdParty/mbedTLS/library/ssl_tls.c:6726:5
	str	r1, [sp]
	ldr	r0, [sp, #40]                   @ 4-byte Reload
	str	r0, [sp, #4]
	str	r6, [sp, #8]
	.loc	1 6719 14 is_stmt 1             @ ../../../ThirdParty/mbedTLS/library/ssl_tls.c:6719:14
	ldr	r0, [sp, #24]                   @ 4-byte Reload
	str	r1, [sp, #20]                   @ 4-byte Spill
	str	r2, [sp, #16]                   @ 4-byte Spill
	cbz	r0, .LBB8_4
.Ltmp359:
@ %bb.3:
	@DEBUG_VALUE: ssl_calc_finished_tls:ssl <- $r4
	@DEBUG_VALUE: ssl_calc_finished_tls:session <- [DW_OP_plus_uconst 12] [$sp+0]
	@DEBUG_VALUE: ssl_calc_finished_tls:buf <- [DW_OP_plus_uconst 40] [$sp+0]
	@DEBUG_VALUE: ssl_calc_finished_tls:from <- [DW_OP_plus_uconst 24] [$sp+0]
	@DEBUG_VALUE: ssl_calc_finished_tls:len <- 12
	.loc	1 0 14 is_stmt 0                @ ../../../ThirdParty/mbedTLS/library/ssl_tls.c:0:14
	ldr	r2, __arm_cp.8_7
	ldr	r0, [sp, #12]                   @ 4-byte Reload
	ldr	r7, __arm_cp.8_2
	b	.LBB8_5
.Ltmp360:
.LBB8_4:
	@DEBUG_VALUE: ssl_calc_finished_tls:ssl <- $r4
	@DEBUG_VALUE: ssl_calc_finished_tls:session <- [DW_OP_plus_uconst 12] [$sp+0]
	@DEBUG_VALUE: ssl_calc_finished_tls:buf <- [DW_OP_plus_uconst 40] [$sp+0]
	@DEBUG_VALUE: ssl_calc_finished_tls:from <- [DW_OP_plus_uconst 24] [$sp+0]
	@DEBUG_VALUE: ssl_calc_finished_tls:len <- 12
	ldr	r2, __arm_cp.8_6
	ldr	r0, [sp, #12]                   @ 4-byte Reload
	ldr	r7, __arm_cp.8_2
.Ltmp361:
.LBB8_5:
	@DEBUG_VALUE: ssl_calc_finished_tls:ssl <- $r4
	@DEBUG_VALUE: ssl_calc_finished_tls:session <- [DW_OP_plus_uconst 12] [$sp+0]
	@DEBUG_VALUE: ssl_calc_finished_tls:buf <- [DW_OP_plus_uconst 40] [$sp+0]
	@DEBUG_VALUE: ssl_calc_finished_tls:from <- [DW_OP_plus_uconst 24] [$sp+0]
	@DEBUG_VALUE: ssl_calc_finished_tls:len <- 12
	@DEBUG_VALUE: ssl_calc_finished_tls:sender <- $r2
	.loc	1 6726 30 is_stmt 1             @ ../../../ThirdParty/mbedTLS/library/ssl_tls.c:6726:30
	adds	r0, #44
	movs	r1, #48
	.loc	1 6726 5 is_stmt 0              @ ../../../ThirdParty/mbedTLS/library/ssl_tls.c:6726:5
	mov	r3, r5
	str	r5, [sp, #24]                   @ 4-byte Spill
	ldr	r5, [sp, #16]                   @ 4-byte Reload
	blx	r5
.Ltmp362:
	.loc	1 6729 5 is_stmt 1              @ ../../../ThirdParty/mbedTLS/library/ssl_tls.c:6729:5
	str	r6, [sp, #8]
	ldr	r0, [sp, #40]                   @ 4-byte Reload
	str	r0, [sp, #4]
	ldr	r0, __arm_cp.8_8
	str	r0, [sp]
	mov	r3, r7
	adds	r3, #34
	movs	r1, #3
	mov	r0, r4
	ldr	r6, __arm_cp.8_1
	mov	r2, r6
	bl	mbedtls_debug_print_buf
	.loc	1 6731 5                        @ ../../../ThirdParty/mbedTLS/library/ssl_tls.c:6731:5
	ldr	r0, [sp, #32]                   @ 4-byte Reload
	bl	mbedtls_md5_free
	.loc	1 6732 5                        @ ../../../ThirdParty/mbedTLS/library/ssl_tls.c:6732:5
	ldr	r0, [sp, #28]                   @ 4-byte Reload
	bl	mbedtls_sha1_free
	.loc	1 6734 5                        @ ../../../ThirdParty/mbedTLS/library/ssl_tls.c:6734:5
	ldr	r0, [sp, #24]                   @ 4-byte Reload
	ldr	r1, [sp, #20]                   @ 4-byte Reload
	bl	mbedtls_platform_zeroize
	.loc	1 6736 5                        @ ../../../ThirdParty/mbedTLS/library/ssl_tls.c:6736:5
	ldr	r0, __arm_cp.8_9
	str	r0, [sp]
	adds	r7, #41
	mov	r0, r4
	ldr	r1, [sp, #36]                   @ 4-byte Reload
	mov	r2, r6
	mov	r3, r7
	bl	mbedtls_debug_print_msg
	.loc	1 6737 1                        @ ../../../ThirdParty/mbedTLS/library/ssl_tls.c:6737:1
	add	sp, #260
.Ltmp363:
	pop	{r4, r5, r6, r7, pc}
.Ltmp364:
	.p2align	2
@ %bb.6:
	.loc	1 0 1 is_stmt 0                 @ ../../../ThirdParty/mbedTLS/library/ssl_tls.c:0:1
.LCPI8_0:
.L.str.289:
	.asciz	"=> calc  finished tls\000\000"
__arm_cp.8_1:
	.long	.L.str
.Lcpi_end56:
	.size	__arm_cp.8_1, .Lcpi_end56-__arm_cp.8_1
__arm_cp.8_2:
	.long	6695                            @ 0x1a27
.Lcpi_end57:
	.size	__arm_cp.8_2, .Lcpi_end57-__arm_cp.8_2
__arm_cp.8_3:
	.long	.L.str.283
.Lcpi_end58:
	.size	__arm_cp.8_3, .Lcpi_end58-__arm_cp.8_3
__arm_cp.8_4:
	.long	.L.str.284
.Lcpi_end59:
	.size	__arm_cp.8_4, .Lcpi_end59-__arm_cp.8_4
__arm_cp.8_5:
	.long	1116                            @ 0x45c
.Lcpi_end60:
	.size	__arm_cp.8_5, .Lcpi_end60-__arm_cp.8_5
__arm_cp.8_6:
	.long	.L.str.290
.Lcpi_end61:
	.size	__arm_cp.8_6, .Lcpi_end61-__arm_cp.8_6
__arm_cp.8_7:
	.long	.L.str.291
.Lcpi_end62:
	.size	__arm_cp.8_7, .Lcpi_end62-__arm_cp.8_7
__arm_cp.8_8:
	.long	.L.str.287
.Lcpi_end63:
	.size	__arm_cp.8_8, .Lcpi_end63-__arm_cp.8_8
__arm_cp.8_9:
	.long	.L.str.288
.Lcpi_end64:
	.size	__arm_cp.8_9, .Lcpi_end64-__arm_cp.8_9
.Lfunc_end8:
	.size	ssl_calc_finished_tls, .Lfunc_end8-ssl_calc_finished_tls
	.cfi_endproc
	.cantunwind
	.fnend
                                        @ -- End function
	.section	.text.tls_prf_sha384,"ax",%progbits
	.p2align	1                               @ -- Begin function tls_prf_sha384
	.type	tls_prf_sha384,%function
	.code	16                              @ @tls_prf_sha384
	.thumb_func
tls_prf_sha384:
.Lfunc_begin9:
	.loc	1 667 0 is_stmt 1               @ ../../../ThirdParty/mbedTLS/library/ssl_tls.c:667:0
	.fnstart
	.cfi_startproc
@ %bb.0:
	@DEBUG_VALUE: tls_prf_sha384:secret <- $r0
	@DEBUG_VALUE: tls_prf_sha384:slen <- $r1
	@DEBUG_VALUE: tls_prf_sha384:label <- $r2
	@DEBUG_VALUE: tls_prf_sha384:random <- $r3
	.save	{r4, lr}
	push	{r4, lr}
	.cfi_def_cfa_offset 8
	.cfi_offset lr, -4
	.cfi_offset r4, -8
	.pad	#16
	sub	sp, #16
	.cfi_def_cfa_offset 24
	mov	r4, r2
	mov	r2, r1
.Ltmp365:
	@DEBUG_VALUE: tls_prf_sha384:label <- [DW_OP_LLVM_entry_value 1] $r2
	mov	r1, r0
.Ltmp366:
	@DEBUG_VALUE: tls_prf_sha384:slen <- [DW_OP_LLVM_entry_value 1] $r1
	@DEBUG_VALUE: tls_prf_sha384:dlen <- [DW_OP_plus_uconst 32] [$sp+0]
	@DEBUG_VALUE: tls_prf_sha384:dstbuf <- [DW_OP_plus_uconst 28] [$sp+0]
	@DEBUG_VALUE: tls_prf_sha384:rlen <- [DW_OP_plus_uconst 24] [$sp+0]
	@DEBUG_VALUE: tls_prf_sha384:random <- $r3
	@DEBUG_VALUE: tls_prf_sha384:label <- $r4
	@DEBUG_VALUE: tls_prf_sha384:slen <- $r2
	@DEBUG_VALUE: tls_prf_sha384:secret <- $r1
	ldr	r0, [sp, #32]
.Ltmp367:
	.loc	1 668 13 prologue_end           @ ../../../ThirdParty/mbedTLS/library/ssl_tls.c:668:13
	str	r0, [sp, #12]
	ldr	r0, [sp, #28]
	str	r0, [sp, #8]
	ldr	r0, [sp, #24]
	str	r0, [sp, #4]
	str	r3, [sp]
	movs	r0, #7
	@DEBUG_VALUE: tls_prf_sha384:slen <- $r2
	@DEBUG_VALUE: tls_prf_sha384:secret <- $r1
	mov	r3, r4
.Ltmp368:
	@DEBUG_VALUE: tls_prf_sha384:random <- [DW_OP_LLVM_entry_value 1] $r3
	@DEBUG_VALUE: tls_prf_sha384:label <- $r3
	bl	tls_prf_generic
.Ltmp369:
	.loc	1 668 5 is_stmt 0               @ ../../../ThirdParty/mbedTLS/library/ssl_tls.c:668:5
	add	sp, #16
.Ltmp370:
	pop	{r4, pc}
.Ltmp371:
.Lfunc_end9:
	.size	tls_prf_sha384, .Lfunc_end9-tls_prf_sha384
	.cfi_endproc
	.cantunwind
	.fnend
                                        @ -- End function
	.section	.text.ssl_calc_verify_tls_sha384,"ax",%progbits
	.p2align	2                               @ -- Begin function ssl_calc_verify_tls_sha384
	.type	ssl_calc_verify_tls_sha384,%function
	.code	16                              @ @ssl_calc_verify_tls_sha384
	.thumb_func
ssl_calc_verify_tls_sha384:
.Lfunc_begin10:
	.loc	1 1504 0 is_stmt 1              @ ../../../ThirdParty/mbedTLS/library/ssl_tls.c:1504:0
	.fnstart
	.cfi_startproc
@ %bb.0:
	@DEBUG_VALUE: ssl_calc_verify_tls_sha384:ssl <- $r0
	@DEBUG_VALUE: ssl_calc_verify_tls_sha384:hash <- $r1
	.save	{r4, r5, r6, r7, lr}
	push	{r4, r5, r6, r7, lr}
	.cfi_def_cfa_offset 20
	.cfi_offset lr, -4
	.cfi_offset r7, -8
	.cfi_offset r6, -12
	.cfi_offset r5, -16
	.cfi_offset r4, -20
	.pad	#236
	sub	sp, #236
	.cfi_def_cfa_offset 256
	mov	r7, r1
	mov	r5, r0
.Ltmp372:
	@DEBUG_VALUE: ssl_calc_verify_tls_sha384:hash <- $r7
	@DEBUG_VALUE: ssl_calc_verify_tls_sha384:ssl <- $r5
	add	r4, sp, #16
.Ltmp373:
	.loc	1 1529 5 prologue_end           @ ../../../ThirdParty/mbedTLS/library/ssl_tls.c:1529:5
	mov	r0, r4
	bl	mbedtls_sha512_init
	.loc	1 1531 5                        @ ../../../ThirdParty/mbedTLS/library/ssl_tls.c:1531:5
	adr	r0, .LCPI10_0
	str	r0, [sp]
	movs	r6, #2
	ldr	r2, __arm_cp.10_1
	ldr	r3, __arm_cp.10_2
	mov	r0, r5
	mov	r1, r6
	bl	mbedtls_debug_print_msg
	.loc	1 1533 42                       @ ../../../ThirdParty/mbedTLS/library/ssl_tls.c:1533:42
	ldr	r0, [r5, #60]
	movw	r1, #888
	.loc	1 1533 53 is_stmt 0             @ ../../../ThirdParty/mbedTLS/library/ssl_tls.c:1533:53
	adds	r1, r0, r1
	.loc	1 1533 5                        @ ../../../ThirdParty/mbedTLS/library/ssl_tls.c:1533:5
	mov	r0, r4
	bl	mbedtls_sha512_clone
	.loc	1 1534 5 is_stmt 1              @ ../../../ThirdParty/mbedTLS/library/ssl_tls.c:1534:5
	mov	r0, r4
	mov	r1, r7
	bl	mbedtls_sha512_finish_ret
	movs	r0, #48
	.loc	1 1536 5                        @ ../../../ThirdParty/mbedTLS/library/ssl_tls.c:1536:5
	str	r0, [sp, #8]
	str	r7, [sp, #4]
	ldr	r0, __arm_cp.10_3
	str	r0, [sp]
	ldr	r0, __arm_cp.10_2
	adds	r3, r0, #5
	movs	r1, #3
	mov	r0, r5
	ldr	r7, __arm_cp.10_1
.Ltmp374:
	mov	r2, r7
	bl	mbedtls_debug_print_buf
	.loc	1 1537 5                        @ ../../../ThirdParty/mbedTLS/library/ssl_tls.c:1537:5
	ldr	r0, __arm_cp.10_4
	str	r0, [sp]
	ldr	r0, __arm_cp.10_2
	adds	r3, r0, #6
	mov	r0, r5
	mov	r1, r6
	mov	r2, r7
	bl	mbedtls_debug_print_msg
	.loc	1 1539 5                        @ ../../../ThirdParty/mbedTLS/library/ssl_tls.c:1539:5
	mov	r0, r4
	bl	mbedtls_sha512_free
	.loc	1 1542 1                        @ ../../../ThirdParty/mbedTLS/library/ssl_tls.c:1542:1
	add	sp, #236
	pop	{r4, r5, r6, r7, pc}
.Ltmp375:
	.p2align	2
@ %bb.1:
	.loc	1 0 1 is_stmt 0                 @ ../../../ThirdParty/mbedTLS/library/ssl_tls.c:0:1
.LCPI10_0:
.L.str.174:
	.asciz	"=> calc verify sha384\000\000"
__arm_cp.10_1:
	.long	.L.str
.Lcpi_end65:
	.size	__arm_cp.10_1, .Lcpi_end65-__arm_cp.10_1
__arm_cp.10_2:
	.long	1531                            @ 0x5fb
.Lcpi_end66:
	.size	__arm_cp.10_2, .Lcpi_end66-__arm_cp.10_2
__arm_cp.10_3:
	.long	.L.str.170
.Lcpi_end67:
	.size	__arm_cp.10_3, .Lcpi_end67-__arm_cp.10_3
__arm_cp.10_4:
	.long	.L.str.171
.Lcpi_end68:
	.size	__arm_cp.10_4, .Lcpi_end68-__arm_cp.10_4
.Lfunc_end10:
	.size	ssl_calc_verify_tls_sha384, .Lfunc_end10-ssl_calc_verify_tls_sha384
	.cfi_endproc
	.cantunwind
	.fnend
                                        @ -- End function
	.section	.text.ssl_calc_finished_tls_sha384,"ax",%progbits
	.p2align	2                               @ -- Begin function ssl_calc_finished_tls_sha384
	.type	ssl_calc_finished_tls_sha384,%function
	.code	16                              @ @ssl_calc_finished_tls_sha384
	.thumb_func
ssl_calc_finished_tls_sha384:
.Lfunc_begin11:
	.loc	1 6820 0 is_stmt 1              @ ../../../ThirdParty/mbedTLS/library/ssl_tls.c:6820:0
	.fnstart
	.cfi_startproc
@ %bb.0:
	@DEBUG_VALUE: ssl_calc_finished_tls_sha384:ssl <- $r0
	@DEBUG_VALUE: ssl_calc_finished_tls_sha384:buf <- $r1
	@DEBUG_VALUE: ssl_calc_finished_tls_sha384:from <- $r2
	.save	{r4, r5, r6, r7, lr}
	push	{r4, r5, r6, r7, lr}
	.cfi_def_cfa_offset 20
	.cfi_offset lr, -4
	.cfi_offset r7, -8
	.cfi_offset r6, -12
	.cfi_offset r5, -16
	.cfi_offset r4, -20
	.pad	#300
	sub	sp, #300
	.cfi_def_cfa_offset 320
	str	r2, [sp, #20]                   @ 4-byte Spill
	str	r1, [sp, #28]                   @ 4-byte Spill
	mov	r4, r0
.Ltmp376:
	@DEBUG_VALUE: ssl_calc_finished_tls_sha384:len <- 12
	@DEBUG_VALUE: ssl_calc_finished_tls_sha384:from <- [DW_OP_plus_uconst 20] [$sp+0]
	@DEBUG_VALUE: ssl_calc_finished_tls_sha384:buf <- [DW_OP_plus_uconst 28] [$sp+0]
	@DEBUG_VALUE: ssl_calc_finished_tls_sha384:ssl <- $r4
	.loc	1 6832 41 prologue_end          @ ../../../ThirdParty/mbedTLS/library/ssl_tls.c:6832:41
	ldr	r0, [r0, #56]
.Ltmp377:
	@DEBUG_VALUE: ssl_calc_finished_tls_sha384:session <- $r0
	.loc	1 6833 9                        @ ../../../ThirdParty/mbedTLS/library/ssl_tls.c:6833:9
	cbnz	r0, .LBB11_2
.Ltmp378:
@ %bb.1:
	@DEBUG_VALUE: ssl_calc_finished_tls_sha384:ssl <- $r4
	@DEBUG_VALUE: ssl_calc_finished_tls_sha384:session <- $r0
	@DEBUG_VALUE: ssl_calc_finished_tls_sha384:buf <- [DW_OP_plus_uconst 28] [$sp+0]
	@DEBUG_VALUE: ssl_calc_finished_tls_sha384:from <- [DW_OP_plus_uconst 20] [$sp+0]
	@DEBUG_VALUE: ssl_calc_finished_tls_sha384:len <- 12
	.loc	1 6834 24                       @ ../../../ThirdParty/mbedTLS/library/ssl_tls.c:6834:24
	ldr	r0, [r4, #52]
.Ltmp379:
	@DEBUG_VALUE: ssl_calc_finished_tls_sha384:session <- $r0
.LBB11_2:
	@DEBUG_VALUE: ssl_calc_finished_tls_sha384:ssl <- $r4
	@DEBUG_VALUE: ssl_calc_finished_tls_sha384:session <- $r0
	@DEBUG_VALUE: ssl_calc_finished_tls_sha384:buf <- [DW_OP_plus_uconst 28] [$sp+0]
	@DEBUG_VALUE: ssl_calc_finished_tls_sha384:from <- [DW_OP_plus_uconst 20] [$sp+0]
	@DEBUG_VALUE: ssl_calc_finished_tls_sha384:len <- 12
	@DEBUG_VALUE: ssl_calc_finished_tls_sha384:session <- $r0
	.loc	1 0 24 is_stmt 0                @ ../../../ThirdParty/mbedTLS/library/ssl_tls.c:0:24
	str	r0, [sp, #12]                   @ 4-byte Spill
.Ltmp380:
	@DEBUG_VALUE: ssl_calc_finished_tls_sha384:session <- [DW_OP_plus_uconst 12] [$sp+0]
	@DEBUG_VALUE: ssl_calc_finished_tls_sha384:session <- [DW_OP_plus_uconst 12] [$sp+0]
	add	r5, sp, #32
	.loc	1 6860 5 is_stmt 1              @ ../../../ThirdParty/mbedTLS/library/ssl_tls.c:6860:5
	mov	r0, r5
	bl	mbedtls_sha512_init
	.loc	1 6862 5                        @ ../../../ThirdParty/mbedTLS/library/ssl_tls.c:6862:5
	adr	r0, .LCPI11_0
	str	r0, [sp]
	movs	r1, #2
	ldr	r6, __arm_cp.11_1
	ldr	r7, __arm_cp.11_2
	mov	r0, r4
	str	r1, [sp, #24]                   @ 4-byte Spill
	mov	r2, r6
	mov	r3, r7
	bl	mbedtls_debug_print_msg
	.loc	1 6864 42                       @ ../../../ThirdParty/mbedTLS/library/ssl_tls.c:6864:42
	ldr	r0, [r4, #60]
	movw	r1, #888
	.loc	1 6864 53 is_stmt 0             @ ../../../ThirdParty/mbedTLS/library/ssl_tls.c:6864:53
	adds	r1, r0, r1
	.loc	1 6864 5                        @ ../../../ThirdParty/mbedTLS/library/ssl_tls.c:6864:5
	mov	r0, r5
	bl	mbedtls_sha512_clone
	movs	r0, #64
	.loc	1 6873 5 is_stmt 1              @ ../../../ThirdParty/mbedTLS/library/ssl_tls.c:6873:5
	mov	r1, r5
	adds	r1, #16
	adr	r2, .LCPI11_3
	str	r2, [sp]
	str	r1, [sp, #4]
	str	r0, [sp, #8]
	adds	r7, #12
	movs	r1, #4
	mov	r0, r4
	mov	r2, r6
	mov	r3, r7
	bl	mbedtls_debug_print_buf
	add	r1, sp, #252
	.loc	1 6877 5                        @ ../../../ThirdParty/mbedTLS/library/ssl_tls.c:6877:5
	mov	r0, r5
	mov	r7, r1
	bl	mbedtls_sha512_finish_ret
	.loc	1 6878 5                        @ ../../../ThirdParty/mbedTLS/library/ssl_tls.c:6878:5
	mov	r0, r5
	bl	mbedtls_sha512_free
	mov	r5, r4
	.loc	1 6881 10                       @ ../../../ThirdParty/mbedTLS/library/ssl_tls.c:6881:10
	ldr	r0, [r4, #60]
	ldr	r1, __arm_cp.11_4
	.loc	1 6881 21 is_stmt 0             @ ../../../ThirdParty/mbedTLS/library/ssl_tls.c:6881:21
	ldr	r4, [r0, r1]
.Ltmp381:
	.loc	1 0 21                          @ ../../../ThirdParty/mbedTLS/library/ssl_tls.c:0:21
	movs	r6, #12
	movs	r1, #48
	.loc	1 6881 5                        @ ../../../ThirdParty/mbedTLS/library/ssl_tls.c:6881:5
	str	r1, [sp]
	ldr	r0, [sp, #28]                   @ 4-byte Reload
	str	r0, [sp, #4]
	str	r6, [sp, #8]
	.loc	1 6836 14 is_stmt 1             @ ../../../ThirdParty/mbedTLS/library/ssl_tls.c:6836:14
	ldr	r0, [sp, #20]                   @ 4-byte Reload
	cbz	r0, .LBB11_4
.Ltmp382:
@ %bb.3:
	@DEBUG_VALUE: ssl_calc_finished_tls_sha384:session <- [DW_OP_plus_uconst 12] [$sp+0]
	@DEBUG_VALUE: ssl_calc_finished_tls_sha384:buf <- [DW_OP_plus_uconst 28] [$sp+0]
	@DEBUG_VALUE: ssl_calc_finished_tls_sha384:from <- [DW_OP_plus_uconst 20] [$sp+0]
	@DEBUG_VALUE: ssl_calc_finished_tls_sha384:len <- 12
	.loc	1 0 14 is_stmt 0                @ ../../../ThirdParty/mbedTLS/library/ssl_tls.c:0:14
	ldr	r2, __arm_cp.11_6
	ldr	r0, [sp, #12]                   @ 4-byte Reload
	b	.LBB11_5
.Ltmp383:
.LBB11_4:
	@DEBUG_VALUE: ssl_calc_finished_tls_sha384:session <- [DW_OP_plus_uconst 12] [$sp+0]
	@DEBUG_VALUE: ssl_calc_finished_tls_sha384:buf <- [DW_OP_plus_uconst 28] [$sp+0]
	@DEBUG_VALUE: ssl_calc_finished_tls_sha384:from <- [DW_OP_plus_uconst 20] [$sp+0]
	@DEBUG_VALUE: ssl_calc_finished_tls_sha384:len <- 12
	ldr	r2, __arm_cp.11_5
	ldr	r0, [sp, #12]                   @ 4-byte Reload
.Ltmp384:
.LBB11_5:
	@DEBUG_VALUE: ssl_calc_finished_tls_sha384:session <- [DW_OP_plus_uconst 12] [$sp+0]
	@DEBUG_VALUE: ssl_calc_finished_tls_sha384:buf <- [DW_OP_plus_uconst 28] [$sp+0]
	@DEBUG_VALUE: ssl_calc_finished_tls_sha384:from <- [DW_OP_plus_uconst 20] [$sp+0]
	@DEBUG_VALUE: ssl_calc_finished_tls_sha384:len <- 12
	@DEBUG_VALUE: ssl_calc_finished_tls_sha384:sender <- $r2
	.loc	1 6881 30 is_stmt 1             @ ../../../ThirdParty/mbedTLS/library/ssl_tls.c:6881:30
	adds	r0, #44
	.loc	1 6881 5 is_stmt 0              @ ../../../ThirdParty/mbedTLS/library/ssl_tls.c:6881:5
	str	r1, [sp, #16]                   @ 4-byte Spill
	mov	r3, r7
	blx	r4
.Ltmp385:
	.loc	1 6884 5 is_stmt 1              @ ../../../ThirdParty/mbedTLS/library/ssl_tls.c:6884:5
	str	r6, [sp, #8]
	ldr	r0, [sp, #28]                   @ 4-byte Reload
	str	r0, [sp, #4]
	ldr	r0, __arm_cp.11_7
	str	r0, [sp]
	ldr	r4, __arm_cp.11_2
	mov	r3, r4
	adds	r3, #22
	movs	r1, #3
	mov	r0, r5
	ldr	r6, __arm_cp.11_1
	mov	r2, r6
	bl	mbedtls_debug_print_buf
	.loc	1 6886 5                        @ ../../../ThirdParty/mbedTLS/library/ssl_tls.c:6886:5
	mov	r0, r7
	ldr	r1, [sp, #16]                   @ 4-byte Reload
	bl	mbedtls_platform_zeroize
	.loc	1 6888 5                        @ ../../../ThirdParty/mbedTLS/library/ssl_tls.c:6888:5
	ldr	r0, __arm_cp.11_8
	str	r0, [sp]
	adds	r4, #26
	mov	r0, r5
	ldr	r1, [sp, #24]                   @ 4-byte Reload
	mov	r2, r6
	mov	r3, r4
	bl	mbedtls_debug_print_msg
	.loc	1 6889 1                        @ ../../../ThirdParty/mbedTLS/library/ssl_tls.c:6889:1
	add	sp, #300
.Ltmp386:
	pop	{r4, r5, r6, r7, pc}
.Ltmp387:
	.p2align	2
@ %bb.6:
	.loc	1 0 1 is_stmt 0                 @ ../../../ThirdParty/mbedTLS/library/ssl_tls.c:0:1
.LCPI11_0:
.L.str.294:
	.asciz	"=> calc  finished tls sha384\000\000\000"
__arm_cp.11_1:
	.long	.L.str
.Lcpi_end69:
	.size	__arm_cp.11_1, .Lcpi_end69-__arm_cp.11_1
__arm_cp.11_2:
	.long	6862                            @ 0x1ace
.Lcpi_end70:
	.size	__arm_cp.11_2, .Lcpi_end70-__arm_cp.11_2
.LCPI11_3:
.L.str.295:
	.asciz	"finished sha512 state\000\000"
__arm_cp.11_4:
	.long	1116                            @ 0x45c
.Lcpi_end71:
	.size	__arm_cp.11_4, .Lcpi_end71-__arm_cp.11_4
__arm_cp.11_5:
	.long	.L.str.290
.Lcpi_end72:
	.size	__arm_cp.11_5, .Lcpi_end72-__arm_cp.11_5
__arm_cp.11_6:
	.long	.L.str.291
.Lcpi_end73:
	.size	__arm_cp.11_6, .Lcpi_end73-__arm_cp.11_6
__arm_cp.11_7:
	.long	.L.str.287
.Lcpi_end74:
	.size	__arm_cp.11_7, .Lcpi_end74-__arm_cp.11_7
__arm_cp.11_8:
	.long	.L.str.288
.Lcpi_end75:
	.size	__arm_cp.11_8, .Lcpi_end75-__arm_cp.11_8
.Lfunc_end11:
	.size	ssl_calc_finished_tls_sha384, .Lfunc_end11-ssl_calc_finished_tls_sha384
	.cfi_endproc
	.cantunwind
	.fnend
                                        @ -- End function
	.section	.text.tls_prf_sha256,"ax",%progbits
	.p2align	1                               @ -- Begin function tls_prf_sha256
	.type	tls_prf_sha256,%function
	.code	16                              @ @tls_prf_sha256
	.thumb_func
tls_prf_sha256:
.Lfunc_begin12:
	.loc	1 656 0 is_stmt 1               @ ../../../ThirdParty/mbedTLS/library/ssl_tls.c:656:0
	.fnstart
	.cfi_startproc
@ %bb.0:
	@DEBUG_VALUE: tls_prf_sha256:secret <- $r0
	@DEBUG_VALUE: tls_prf_sha256:slen <- $r1
	@DEBUG_VALUE: tls_prf_sha256:label <- $r2
	@DEBUG_VALUE: tls_prf_sha256:random <- $r3
	.save	{r4, lr}
	push	{r4, lr}
	.cfi_def_cfa_offset 8
	.cfi_offset lr, -4
	.cfi_offset r4, -8
	.pad	#16
	sub	sp, #16
	.cfi_def_cfa_offset 24
	mov	r4, r2
	mov	r2, r1
.Ltmp388:
	@DEBUG_VALUE: tls_prf_sha256:label <- [DW_OP_LLVM_entry_value 1] $r2
	mov	r1, r0
.Ltmp389:
	@DEBUG_VALUE: tls_prf_sha256:slen <- [DW_OP_LLVM_entry_value 1] $r1
	@DEBUG_VALUE: tls_prf_sha256:dlen <- [DW_OP_plus_uconst 32] [$sp+0]
	@DEBUG_VALUE: tls_prf_sha256:dstbuf <- [DW_OP_plus_uconst 28] [$sp+0]
	@DEBUG_VALUE: tls_prf_sha256:rlen <- [DW_OP_plus_uconst 24] [$sp+0]
	@DEBUG_VALUE: tls_prf_sha256:random <- $r3
	@DEBUG_VALUE: tls_prf_sha256:label <- $r4
	@DEBUG_VALUE: tls_prf_sha256:slen <- $r2
	@DEBUG_VALUE: tls_prf_sha256:secret <- $r1
	ldr	r0, [sp, #32]
.Ltmp390:
	.loc	1 657 13 prologue_end           @ ../../../ThirdParty/mbedTLS/library/ssl_tls.c:657:13
	str	r0, [sp, #12]
	ldr	r0, [sp, #28]
	str	r0, [sp, #8]
	ldr	r0, [sp, #24]
	str	r0, [sp, #4]
	str	r3, [sp]
	movs	r0, #6
	@DEBUG_VALUE: tls_prf_sha256:slen <- $r2
	@DEBUG_VALUE: tls_prf_sha256:secret <- $r1
	mov	r3, r4
.Ltmp391:
	@DEBUG_VALUE: tls_prf_sha256:random <- [DW_OP_LLVM_entry_value 1] $r3
	@DEBUG_VALUE: tls_prf_sha256:label <- $r3
	bl	tls_prf_generic
.Ltmp392:
	.loc	1 657 5 is_stmt 0               @ ../../../ThirdParty/mbedTLS/library/ssl_tls.c:657:5
	add	sp, #16
.Ltmp393:
	pop	{r4, pc}
.Ltmp394:
.Lfunc_end12:
	.size	tls_prf_sha256, .Lfunc_end12-tls_prf_sha256
	.cfi_endproc
	.cantunwind
	.fnend
                                        @ -- End function
	.section	.text.ssl_calc_verify_tls_sha256,"ax",%progbits
	.p2align	2                               @ -- Begin function ssl_calc_verify_tls_sha256
	.type	ssl_calc_verify_tls_sha256,%function
	.code	16                              @ @ssl_calc_verify_tls_sha256
	.thumb_func
ssl_calc_verify_tls_sha256:
.Lfunc_begin13:
	.loc	1 1461 0 is_stmt 1              @ ../../../ThirdParty/mbedTLS/library/ssl_tls.c:1461:0
	.fnstart
	.cfi_startproc
@ %bb.0:
	@DEBUG_VALUE: ssl_calc_verify_tls_sha256:ssl <- $r0
	@DEBUG_VALUE: ssl_calc_verify_tls_sha256:hash <- $r1
	.save	{r4, r5, r6, r7, lr}
	push	{r4, r5, r6, r7, lr}
	.cfi_def_cfa_offset 20
	.cfi_offset lr, -4
	.cfi_offset r7, -8
	.cfi_offset r6, -12
	.cfi_offset r5, -16
	.cfi_offset r4, -20
	.pad	#124
	sub	sp, #124
	.cfi_def_cfa_offset 144
	mov	r7, r1
	mov	r5, r0
.Ltmp395:
	@DEBUG_VALUE: ssl_calc_verify_tls_sha256:hash <- $r7
	@DEBUG_VALUE: ssl_calc_verify_tls_sha256:ssl <- $r5
	add	r4, sp, #16
.Ltmp396:
	.loc	1 1486 5 prologue_end           @ ../../../ThirdParty/mbedTLS/library/ssl_tls.c:1486:5
	mov	r0, r4
	bl	mbedtls_sha256_init
	.loc	1 1488 5                        @ ../../../ThirdParty/mbedTLS/library/ssl_tls.c:1488:5
	adr	r0, .LCPI13_0
	str	r0, [sp]
	movs	r6, #2
	ldr	r2, __arm_cp.13_1
	mov	r0, r5
	mov	r1, r6
	movw	r3, #1488
	bl	mbedtls_debug_print_msg
	.loc	1 1490 42                       @ ../../../ThirdParty/mbedTLS/library/ssl_tls.c:1490:42
	ldr	r0, [r5, #60]
	movw	r1, #780
	.loc	1 1490 53 is_stmt 0             @ ../../../ThirdParty/mbedTLS/library/ssl_tls.c:1490:53
	adds	r1, r0, r1
	.loc	1 1490 5                        @ ../../../ThirdParty/mbedTLS/library/ssl_tls.c:1490:5
	mov	r0, r4
	bl	mbedtls_sha256_clone
	.loc	1 1491 5 is_stmt 1              @ ../../../ThirdParty/mbedTLS/library/ssl_tls.c:1491:5
	mov	r0, r4
	mov	r1, r7
	bl	mbedtls_sha256_finish_ret
	movs	r0, #32
	.loc	1 1493 5                        @ ../../../ThirdParty/mbedTLS/library/ssl_tls.c:1493:5
	str	r0, [sp, #8]
	str	r7, [sp, #4]
	ldr	r0, __arm_cp.13_2
	str	r0, [sp]
	movw	r0, #1488
	adds	r3, r0, #5
	movs	r1, #3
	mov	r0, r5
	ldr	r7, __arm_cp.13_1
.Ltmp397:
	mov	r2, r7
	bl	mbedtls_debug_print_buf
	.loc	1 1494 5                        @ ../../../ThirdParty/mbedTLS/library/ssl_tls.c:1494:5
	ldr	r0, __arm_cp.13_3
	str	r0, [sp]
	movw	r0, #1488
	adds	r3, r0, #6
	mov	r0, r5
	mov	r1, r6
	mov	r2, r7
	bl	mbedtls_debug_print_msg
	.loc	1 1496 5                        @ ../../../ThirdParty/mbedTLS/library/ssl_tls.c:1496:5
	mov	r0, r4
	bl	mbedtls_sha256_free
	.loc	1 1499 1                        @ ../../../ThirdParty/mbedTLS/library/ssl_tls.c:1499:1
	add	sp, #124
	pop	{r4, r5, r6, r7, pc}
.Ltmp398:
	.p2align	2
@ %bb.1:
	.loc	1 0 1 is_stmt 0                 @ ../../../ThirdParty/mbedTLS/library/ssl_tls.c:0:1
.LCPI13_0:
.L.str.173:
	.asciz	"=> calc verify sha256\000\000"
__arm_cp.13_1:
	.long	.L.str
.Lcpi_end76:
	.size	__arm_cp.13_1, .Lcpi_end76-__arm_cp.13_1
__arm_cp.13_2:
	.long	.L.str.170
.Lcpi_end77:
	.size	__arm_cp.13_2, .Lcpi_end77-__arm_cp.13_2
__arm_cp.13_3:
	.long	.L.str.171
.Lcpi_end78:
	.size	__arm_cp.13_3, .Lcpi_end78-__arm_cp.13_3
.Lfunc_end13:
	.size	ssl_calc_verify_tls_sha256, .Lfunc_end13-ssl_calc_verify_tls_sha256
	.cfi_endproc
	.cantunwind
	.fnend
                                        @ -- End function
	.section	.text.ssl_calc_finished_tls_sha256,"ax",%progbits
	.p2align	2                               @ -- Begin function ssl_calc_finished_tls_sha256
	.type	ssl_calc_finished_tls_sha256,%function
	.code	16                              @ @ssl_calc_finished_tls_sha256
	.thumb_func
ssl_calc_finished_tls_sha256:
.Lfunc_begin14:
	.loc	1 6744 0 is_stmt 1              @ ../../../ThirdParty/mbedTLS/library/ssl_tls.c:6744:0
	.fnstart
	.cfi_startproc
@ %bb.0:
	@DEBUG_VALUE: ssl_calc_finished_tls_sha256:ssl <- $r0
	@DEBUG_VALUE: ssl_calc_finished_tls_sha256:buf <- $r1
	@DEBUG_VALUE: ssl_calc_finished_tls_sha256:from <- $r2
	.save	{r4, r5, r6, r7, lr}
	push	{r4, r5, r6, r7, lr}
	.cfi_def_cfa_offset 20
	.cfi_offset lr, -4
	.cfi_offset r7, -8
	.cfi_offset r6, -12
	.cfi_offset r5, -16
	.cfi_offset r4, -20
	.pad	#180
	sub	sp, #180
	.cfi_def_cfa_offset 200
	str	r2, [sp, #28]                   @ 4-byte Spill
	str	r1, [sp, #36]                   @ 4-byte Spill
	mov	r4, r0
.Ltmp399:
	@DEBUG_VALUE: ssl_calc_finished_tls_sha256:len <- 12
	@DEBUG_VALUE: ssl_calc_finished_tls_sha256:from <- [DW_OP_plus_uconst 28] [$sp+0]
	@DEBUG_VALUE: ssl_calc_finished_tls_sha256:buf <- [DW_OP_plus_uconst 36] [$sp+0]
	@DEBUG_VALUE: ssl_calc_finished_tls_sha256:ssl <- $r4
	.loc	1 6756 41 prologue_end          @ ../../../ThirdParty/mbedTLS/library/ssl_tls.c:6756:41
	ldr	r0, [r0, #56]
.Ltmp400:
	@DEBUG_VALUE: ssl_calc_finished_tls_sha256:session <- $r0
	.loc	1 6757 9                        @ ../../../ThirdParty/mbedTLS/library/ssl_tls.c:6757:9
	cbnz	r0, .LBB14_2
.Ltmp401:
@ %bb.1:
	@DEBUG_VALUE: ssl_calc_finished_tls_sha256:ssl <- $r4
	@DEBUG_VALUE: ssl_calc_finished_tls_sha256:session <- $r0
	@DEBUG_VALUE: ssl_calc_finished_tls_sha256:buf <- [DW_OP_plus_uconst 36] [$sp+0]
	@DEBUG_VALUE: ssl_calc_finished_tls_sha256:from <- [DW_OP_plus_uconst 28] [$sp+0]
	@DEBUG_VALUE: ssl_calc_finished_tls_sha256:len <- 12
	.loc	1 6758 24                       @ ../../../ThirdParty/mbedTLS/library/ssl_tls.c:6758:24
	ldr	r0, [r4, #52]
.Ltmp402:
	@DEBUG_VALUE: ssl_calc_finished_tls_sha256:session <- $r0
.LBB14_2:
	@DEBUG_VALUE: ssl_calc_finished_tls_sha256:ssl <- $r4
	@DEBUG_VALUE: ssl_calc_finished_tls_sha256:session <- $r0
	@DEBUG_VALUE: ssl_calc_finished_tls_sha256:buf <- [DW_OP_plus_uconst 36] [$sp+0]
	@DEBUG_VALUE: ssl_calc_finished_tls_sha256:from <- [DW_OP_plus_uconst 28] [$sp+0]
	@DEBUG_VALUE: ssl_calc_finished_tls_sha256:len <- 12
	@DEBUG_VALUE: ssl_calc_finished_tls_sha256:session <- $r0
	.loc	1 0 24 is_stmt 0                @ ../../../ThirdParty/mbedTLS/library/ssl_tls.c:0:24
	str	r0, [sp, #16]                   @ 4-byte Spill
.Ltmp403:
	@DEBUG_VALUE: ssl_calc_finished_tls_sha256:session <- [DW_OP_plus_uconst 16] [$sp+0]
	@DEBUG_VALUE: ssl_calc_finished_tls_sha256:session <- [DW_OP_plus_uconst 16] [$sp+0]
	add	r5, sp, #40
	.loc	1 6785 5 is_stmt 1              @ ../../../ThirdParty/mbedTLS/library/ssl_tls.c:6785:5
	mov	r0, r5
	bl	mbedtls_sha256_init
	.loc	1 6787 5                        @ ../../../ThirdParty/mbedTLS/library/ssl_tls.c:6787:5
	adr	r0, .LCPI14_0
	str	r0, [sp]
	movs	r1, #2
	ldr	r2, __arm_cp.14_1
	ldr	r7, __arm_cp.14_2
	mov	r0, r4
	str	r1, [sp, #32]                   @ 4-byte Spill
	mov	r3, r7
	bl	mbedtls_debug_print_msg
	.loc	1 6789 42                       @ ../../../ThirdParty/mbedTLS/library/ssl_tls.c:6789:42
	ldr	r0, [r4, #60]
	movw	r1, #780
	.loc	1 6789 53 is_stmt 0             @ ../../../ThirdParty/mbedTLS/library/ssl_tls.c:6789:53
	adds	r1, r0, r1
	.loc	1 6789 5                        @ ../../../ThirdParty/mbedTLS/library/ssl_tls.c:6789:5
	mov	r0, r5
	bl	mbedtls_sha256_clone
	movs	r6, #32
	.loc	1 6798 5 is_stmt 1              @ ../../../ThirdParty/mbedTLS/library/ssl_tls.c:6798:5
	mov	r0, r5
	adds	r0, #8
	adr	r1, .LCPI14_3
	str	r1, [sp]
	str	r0, [sp, #4]
	str	r6, [sp, #8]
	adds	r7, #12
	movs	r1, #4
	mov	r0, r4
	ldr	r2, __arm_cp.14_1
	mov	r3, r7
	bl	mbedtls_debug_print_buf
	add	r1, sp, #148
	.loc	1 6802 5                        @ ../../../ThirdParty/mbedTLS/library/ssl_tls.c:6802:5
	mov	r0, r5
	str	r1, [sp, #12]                   @ 4-byte Spill
	bl	mbedtls_sha256_finish_ret
	.loc	1 6803 5                        @ ../../../ThirdParty/mbedTLS/library/ssl_tls.c:6803:5
	mov	r0, r5
	bl	mbedtls_sha256_free
	.loc	1 6806 10                       @ ../../../ThirdParty/mbedTLS/library/ssl_tls.c:6806:10
	ldr	r0, [r4, #60]
	ldr	r1, __arm_cp.14_4
	.loc	1 6806 21 is_stmt 0             @ ../../../ThirdParty/mbedTLS/library/ssl_tls.c:6806:21
	ldr	r1, [r0, r1]
	movs	r5, #12
	str	r6, [sp, #24]                   @ 4-byte Spill
	.loc	1 6806 5                        @ ../../../ThirdParty/mbedTLS/library/ssl_tls.c:6806:5
	str	r6, [sp]
	ldr	r0, [sp, #36]                   @ 4-byte Reload
	str	r0, [sp, #4]
	str	r5, [sp, #8]
	.loc	1 6760 14 is_stmt 1             @ ../../../ThirdParty/mbedTLS/library/ssl_tls.c:6760:14
	ldr	r0, [sp, #28]                   @ 4-byte Reload
	str	r1, [sp, #20]                   @ 4-byte Spill
	cbz	r0, .LBB14_4
.Ltmp404:
@ %bb.3:
	@DEBUG_VALUE: ssl_calc_finished_tls_sha256:ssl <- $r4
	@DEBUG_VALUE: ssl_calc_finished_tls_sha256:session <- [DW_OP_plus_uconst 16] [$sp+0]
	@DEBUG_VALUE: ssl_calc_finished_tls_sha256:buf <- [DW_OP_plus_uconst 36] [$sp+0]
	@DEBUG_VALUE: ssl_calc_finished_tls_sha256:from <- [DW_OP_plus_uconst 28] [$sp+0]
	@DEBUG_VALUE: ssl_calc_finished_tls_sha256:len <- 12
	.loc	1 0 14 is_stmt 0                @ ../../../ThirdParty/mbedTLS/library/ssl_tls.c:0:14
	ldr	r2, __arm_cp.14_6
	ldr	r0, [sp, #16]                   @ 4-byte Reload
	ldr	r7, [sp, #12]                   @ 4-byte Reload
	b	.LBB14_5
.Ltmp405:
.LBB14_4:
	@DEBUG_VALUE: ssl_calc_finished_tls_sha256:ssl <- $r4
	@DEBUG_VALUE: ssl_calc_finished_tls_sha256:session <- [DW_OP_plus_uconst 16] [$sp+0]
	@DEBUG_VALUE: ssl_calc_finished_tls_sha256:buf <- [DW_OP_plus_uconst 36] [$sp+0]
	@DEBUG_VALUE: ssl_calc_finished_tls_sha256:from <- [DW_OP_plus_uconst 28] [$sp+0]
	@DEBUG_VALUE: ssl_calc_finished_tls_sha256:len <- 12
	ldr	r2, __arm_cp.14_5
	ldr	r0, [sp, #16]                   @ 4-byte Reload
	ldr	r7, [sp, #12]                   @ 4-byte Reload
.Ltmp406:
.LBB14_5:
	@DEBUG_VALUE: ssl_calc_finished_tls_sha256:ssl <- $r4
	@DEBUG_VALUE: ssl_calc_finished_tls_sha256:session <- [DW_OP_plus_uconst 16] [$sp+0]
	@DEBUG_VALUE: ssl_calc_finished_tls_sha256:buf <- [DW_OP_plus_uconst 36] [$sp+0]
	@DEBUG_VALUE: ssl_calc_finished_tls_sha256:from <- [DW_OP_plus_uconst 28] [$sp+0]
	@DEBUG_VALUE: ssl_calc_finished_tls_sha256:len <- 12
	@DEBUG_VALUE: ssl_calc_finished_tls_sha256:sender <- $r2
	.loc	1 6806 30 is_stmt 1             @ ../../../ThirdParty/mbedTLS/library/ssl_tls.c:6806:30
	adds	r0, #44
	movs	r1, #48
	.loc	1 6806 5 is_stmt 0              @ ../../../ThirdParty/mbedTLS/library/ssl_tls.c:6806:5
	mov	r3, r7
	ldr	r6, [sp, #20]                   @ 4-byte Reload
	blx	r6
.Ltmp407:
	.loc	1 6809 5 is_stmt 1              @ ../../../ThirdParty/mbedTLS/library/ssl_tls.c:6809:5
	str	r5, [sp, #8]
	ldr	r0, [sp, #36]                   @ 4-byte Reload
	str	r0, [sp, #4]
	ldr	r0, __arm_cp.14_7
	str	r0, [sp]
	ldr	r6, __arm_cp.14_2
	mov	r3, r6
	adds	r3, #22
	movs	r1, #3
	mov	r0, r4
	ldr	r5, __arm_cp.14_1
	mov	r2, r5
	bl	mbedtls_debug_print_buf
	.loc	1 6811 5                        @ ../../../ThirdParty/mbedTLS/library/ssl_tls.c:6811:5
	mov	r0, r7
	ldr	r1, [sp, #24]                   @ 4-byte Reload
	bl	mbedtls_platform_zeroize
	.loc	1 6813 5                        @ ../../../ThirdParty/mbedTLS/library/ssl_tls.c:6813:5
	ldr	r0, __arm_cp.14_8
	str	r0, [sp]
	adds	r6, #26
	mov	r0, r4
	ldr	r1, [sp, #32]                   @ 4-byte Reload
	mov	r2, r5
	mov	r3, r6
	bl	mbedtls_debug_print_msg
	.loc	1 6814 1                        @ ../../../ThirdParty/mbedTLS/library/ssl_tls.c:6814:1
	add	sp, #180
.Ltmp408:
	pop	{r4, r5, r6, r7, pc}
.Ltmp409:
	.p2align	2
@ %bb.6:
	.loc	1 0 1 is_stmt 0                 @ ../../../ThirdParty/mbedTLS/library/ssl_tls.c:0:1
.LCPI14_0:
.L.str.292:
	.asciz	"=> calc  finished tls sha256\000\000\000"
__arm_cp.14_1:
	.long	.L.str
.Lcpi_end79:
	.size	__arm_cp.14_1, .Lcpi_end79-__arm_cp.14_1
__arm_cp.14_2:
	.long	6787                            @ 0x1a83
.Lcpi_end80:
	.size	__arm_cp.14_2, .Lcpi_end80-__arm_cp.14_2
.LCPI14_3:
.L.str.293:
	.asciz	"finished sha2 state"
__arm_cp.14_4:
	.long	1116                            @ 0x45c
.Lcpi_end81:
	.size	__arm_cp.14_4, .Lcpi_end81-__arm_cp.14_4
__arm_cp.14_5:
	.long	.L.str.290
.Lcpi_end82:
	.size	__arm_cp.14_5, .Lcpi_end82-__arm_cp.14_5
__arm_cp.14_6:
	.long	.L.str.291
.Lcpi_end83:
	.size	__arm_cp.14_6, .Lcpi_end83-__arm_cp.14_6
__arm_cp.14_7:
	.long	.L.str.287
.Lcpi_end84:
	.size	__arm_cp.14_7, .Lcpi_end84-__arm_cp.14_7
__arm_cp.14_8:
	.long	.L.str.288
.Lcpi_end85:
	.size	__arm_cp.14_8, .Lcpi_end85-__arm_cp.14_8
.Lfunc_end14:
	.size	ssl_calc_finished_tls_sha256, .Lfunc_end14-ssl_calc_finished_tls_sha256
	.cfi_endproc
	.cantunwind
	.fnend
                                        @ -- End function
	.section	.text.mbedtls_ssl_psk_derive_premaster,"ax",%progbits
	.hidden	mbedtls_ssl_psk_derive_premaster @ -- Begin function mbedtls_ssl_psk_derive_premaster
	.globl	mbedtls_ssl_psk_derive_premaster
	.p2align	2
	.type	mbedtls_ssl_psk_derive_premaster,%function
	.code	16                              @ @mbedtls_ssl_psk_derive_premaster
	.thumb_func
mbedtls_ssl_psk_derive_premaster:
.Lfunc_begin15:
	.loc	1 1548 0 is_stmt 1              @ ../../../ThirdParty/mbedTLS/library/ssl_tls.c:1548:0
	.fnstart
	.cfi_startproc
@ %bb.0:
	@DEBUG_VALUE: mbedtls_ssl_psk_derive_premaster:ssl <- $r0
	@DEBUG_VALUE: mbedtls_ssl_psk_derive_premaster:key_ex <- $r1
	.save	{r4, r5, r6, r7, lr}
	push	{r4, r5, r6, r7, lr}
	.cfi_def_cfa_offset 20
	.cfi_offset lr, -4
	.cfi_offset r7, -8
	.cfi_offset r6, -12
	.cfi_offset r5, -16
	.cfi_offset r4, -20
	.pad	#36
	sub	sp, #36
	.cfi_def_cfa_offset 56
	mov	r4, r0
	@DEBUG_VALUE: mbedtls_ssl_psk_derive_premaster:key_ex <- $r1
.Ltmp410:
	@DEBUG_VALUE: mbedtls_ssl_psk_derive_premaster:ssl <- $r4
	.loc	1 1549 29 prologue_end          @ ../../../ThirdParty/mbedTLS/library/ssl_tls.c:1549:29
	ldr	r5, [r0, #60]
.Ltmp411:
	@DEBUG_VALUE: mbedtls_ssl_psk_derive_premaster:end <- undef
	@DEBUG_VALUE: mbedtls_ssl_psk_derive_premaster:p <- undef
	.loc	1 0 29 is_stmt 0                @ ../../../ThirdParty/mbedTLS/library/ssl_tls.c:0:29
	movw	r0, #440
	.loc	1 1549 24                       @ ../../../ThirdParty/mbedTLS/library/ssl_tls.c:1549:24
	adds	r2, r5, r0
.Ltmp412:
	@DEBUG_VALUE: mbedtls_ssl_psk_derive_premaster:psk_len <- undef
	.loc	1 1555 25 is_stmt 1             @ ../../../ThirdParty/mbedTLS/library/ssl_tls.c:1555:25
	ldm	r2!, {r3}
.Ltmp413:
	.loc	1 1551 37                       @ ../../../ThirdParty/mbedTLS/library/ssl_tls.c:1551:37
	ldr	r0, [r4]
.Ltmp414:
	@DEBUG_VALUE: mbedtls_ssl_psk_derive_premaster:psk <- undef
	.loc	1 1555 9                        @ ../../../ThirdParty/mbedTLS/library/ssl_tls.c:1555:9
	cbz	r3, .LBB15_2
.Ltmp415:
@ %bb.1:
	@DEBUG_VALUE: mbedtls_ssl_psk_derive_premaster:ssl <- $r4
	@DEBUG_VALUE: mbedtls_ssl_psk_derive_premaster:key_ex <- $r1
	mov	r7, r3
.Ltmp416:
	@DEBUG_VALUE: mbedtls_ssl_psk_derive_premaster:end <- undef
	@DEBUG_VALUE: mbedtls_ssl_psk_derive_premaster:psk <- $r7
	cbz	r3, .LBB15_3
	b	.LBB15_4
.Ltmp417:
.LBB15_2:
	@DEBUG_VALUE: mbedtls_ssl_psk_derive_premaster:ssl <- $r4
	@DEBUG_VALUE: mbedtls_ssl_psk_derive_premaster:key_ex <- $r1
	.loc	1 0 9 is_stmt 0                 @ ../../../ThirdParty/mbedTLS/library/ssl_tls.c:0:9
	ldr	r7, [r0, #116]
.Ltmp418:
	@DEBUG_VALUE: mbedtls_ssl_psk_derive_premaster:psk <- $r7
	@DEBUG_VALUE: mbedtls_ssl_psk_derive_premaster:end <- undef
	@DEBUG_VALUE: mbedtls_ssl_psk_derive_premaster:psk <- $r7
	.loc	1 1555 9                        @ ../../../ThirdParty/mbedTLS/library/ssl_tls.c:1555:9
	cbnz	r3, .LBB15_4
.Ltmp419:
.LBB15_3:
	@DEBUG_VALUE: mbedtls_ssl_psk_derive_premaster:psk <- $r7
	@DEBUG_VALUE: mbedtls_ssl_psk_derive_premaster:ssl <- $r4
	@DEBUG_VALUE: mbedtls_ssl_psk_derive_premaster:key_ex <- $r1
	.loc	1 0 9                           @ ../../../ThirdParty/mbedTLS/library/ssl_tls.c:0:9
	mov	r2, r0
	adds	r2, #120
.Ltmp420:
.LBB15_4:
	@DEBUG_VALUE: mbedtls_ssl_psk_derive_premaster:psk <- $r7
	@DEBUG_VALUE: mbedtls_ssl_psk_derive_premaster:ssl <- $r4
	@DEBUG_VALUE: mbedtls_ssl_psk_derive_premaster:key_ex <- $r1
	@DEBUG_VALUE: mbedtls_ssl_psk_derive_premaster:end <- undef
	@DEBUG_VALUE: mbedtls_ssl_psk_derive_premaster:psk_len <- undef
	.loc	1 1569 9 is_stmt 1              @ ../../../ThirdParty/mbedTLS/library/ssl_tls.c:1569:9
	subs	r1, r1, #5
.Ltmp421:
	@DEBUG_VALUE: mbedtls_ssl_psk_derive_premaster:key_ex <- [DW_OP_LLVM_entry_value 1] $r1
	cmp	r1, #3
	bhi	.LBB15_9
.Ltmp422:
@ %bb.5:
	@DEBUG_VALUE: mbedtls_ssl_psk_derive_premaster:psk <- $r7
	@DEBUG_VALUE: mbedtls_ssl_psk_derive_premaster:ssl <- $r4
	@DEBUG_VALUE: mbedtls_ssl_psk_derive_premaster:key_ex <- [DW_OP_LLVM_entry_value 1] $r1
	.loc	1 0 9 is_stmt 0                 @ ../../../ThirdParty/mbedTLS/library/ssl_tls.c:0:9
	ldr	r3, __arm_cp.15_1
.Ltmp423:
	@DEBUG_VALUE: mbedtls_ssl_psk_derive_premaster:end <- undef
	adds	r6, r5, r3
	ldr	r2, [r2]
.Ltmp424:
	@DEBUG_VALUE: mbedtls_ssl_psk_derive_premaster:psk_len <- $r2
	str	r2, [sp, #24]                   @ 4-byte Spill
.Ltmp425:
	@DEBUG_VALUE: mbedtls_ssl_psk_derive_premaster:psk_len <- [DW_OP_plus_uconst 24] [$sp+0]
	@DEBUG_VALUE: mbedtls_ssl_psk_derive_premaster:psk_len <- [DW_OP_plus_uconst 24] [$sp+0]
	lsls	r2, r1, #2
	adr	r3, .LJTI15_0
	adds	r2, r3, r2
	mov	pc, r2
.Ltmp426:
@ %bb.6:
	.p2align	2
.LJTI15_0:
	b.w	.LBB15_7
	b.w	.LBB15_10
	b.w	.LBB15_12
	b.w	.LBB15_13
.LBB15_7:
.Ltmp427:
	@DEBUG_VALUE: mbedtls_ssl_psk_derive_premaster:psk <- $r7
	@DEBUG_VALUE: mbedtls_ssl_psk_derive_premaster:ssl <- $r4
	@DEBUG_VALUE: mbedtls_ssl_psk_derive_premaster:psk_len <- [DW_OP_plus_uconst 24] [$sp+0]
	@DEBUG_VALUE: mbedtls_ssl_psk_derive_premaster:key_ex <- [DW_OP_LLVM_entry_value 1] $r1
	@DEBUG_VALUE: mbedtls_ssl_psk_derive_premaster:p <- [DW_OP_plus_uconst 1, DW_OP_stack_value] $r6
	ldr	r1, [sp, #24]                   @ 4-byte Reload
.Ltmp428:
	.loc	1 1575 16 is_stmt 1             @ ../../../ThirdParty/mbedTLS/library/ssl_tls.c:1575:16
	strb	r1, [r6, #1]
	.loc	1 1574 43                       @ ../../../ThirdParty/mbedTLS/library/ssl_tls.c:1574:43
	lsrs	r0, r1, #8
	.loc	1 1574 16 is_stmt 0             @ ../../../ThirdParty/mbedTLS/library/ssl_tls.c:1574:16
	strb	r0, [r6]
.Ltmp429:
	@DEBUG_VALUE: mbedtls_ssl_psk_derive_premaster:p <- undef
	.loc	1 0 16                          @ ../../../ThirdParty/mbedTLS/library/ssl_tls.c:0:16
	ldr	r0, __arm_cp.15_3
	.loc	1 1577 13 is_stmt 1             @ ../../../ThirdParty/mbedTLS/library/ssl_tls.c:1577:13
	cmp	r1, r0
	bls	.LBB15_16
.Ltmp430:
@ %bb.8:
	@DEBUG_VALUE: mbedtls_ssl_psk_derive_premaster:psk <- $r7
	@DEBUG_VALUE: mbedtls_ssl_psk_derive_premaster:ssl <- $r4
	@DEBUG_VALUE: mbedtls_ssl_psk_derive_premaster:psk_len <- [DW_OP_plus_uconst 24] [$sp+0]
	@DEBUG_VALUE: mbedtls_ssl_psk_derive_premaster:key_ex <- [DW_OP_LLVM_entry_value 1] $r1
	.loc	1 0 13 is_stmt 0                @ ../../../ThirdParty/mbedTLS/library/ssl_tls.c:0:13
	ldr	r7, __arm_cp.15_10
.Ltmp431:
	b	.LBB15_25
.Ltmp432:
.LBB15_9:
	@DEBUG_VALUE: mbedtls_ssl_psk_derive_premaster:psk <- $r7
	@DEBUG_VALUE: mbedtls_ssl_psk_derive_premaster:ssl <- $r4
	@DEBUG_VALUE: mbedtls_ssl_psk_derive_premaster:key_ex <- [DW_OP_LLVM_entry_value 1] $r1
	.loc	1 1647 21 is_stmt 1             @ ../../../ThirdParty/mbedTLS/library/ssl_tls.c:1647:21
	ldr	r0, __arm_cp.15_11
	str	r0, [sp]
	ldr	r3, __arm_cp.15_5
	adds	r3, #35
	movs	r1, #1
	ldr	r2, __arm_cp.15_6
	mov	r0, r4
	bl	mbedtls_debug_print_msg
	ldr	r7, __arm_cp.15_12
.Ltmp433:
	.loc	1 1648 21                       @ ../../../ThirdParty/mbedTLS/library/ssl_tls.c:1648:21
	b	.LBB15_25
.Ltmp434:
.LBB15_10:
	@DEBUG_VALUE: mbedtls_ssl_psk_derive_premaster:psk <- $r7
	@DEBUG_VALUE: mbedtls_ssl_psk_derive_premaster:ssl <- $r4
	@DEBUG_VALUE: mbedtls_ssl_psk_derive_premaster:psk_len <- [DW_OP_plus_uconst 24] [$sp+0]
	@DEBUG_VALUE: mbedtls_ssl_psk_derive_premaster:key_ex <- [DW_OP_LLVM_entry_value 1] $r1
	@DEBUG_VALUE: len <- [DW_OP_plus_uconst 32, DW_OP_deref] $sp
	.loc	1 0 21 is_stmt 0                @ ../../../ThirdParty/mbedTLS/library/ssl_tls.c:0:21
	str	r7, [sp, #20]                   @ 4-byte Spill
.Ltmp435:
	@DEBUG_VALUE: mbedtls_ssl_psk_derive_premaster:psk <- [DW_OP_plus_uconst 20] [$sp+0]
	.loc	1 1610 65 is_stmt 1             @ ../../../ThirdParty/mbedTLS/library/ssl_tls.c:1610:65
	ldr	r1, [r0, #24]
	.loc	1 1610 83 is_stmt 0             @ ../../../ThirdParty/mbedTLS/library/ssl_tls.c:1610:83
	ldr	r0, [r0, #28]
	.loc	1 1608 29 is_stmt 1             @ ../../../ThirdParty/mbedTLS/library/ssl_tls.c:1608:29
	str	r1, [sp]
	str	r0, [sp, #4]
	ldr	r0, __arm_cp.15_2
	.loc	1 1609 56                       @ ../../../ThirdParty/mbedTLS/library/ssl_tls.c:1609:56
	adds	r1, r5, r0
	.loc	1 1608 71                       @ ../../../ThirdParty/mbedTLS/library/ssl_tls.c:1608:71
	adds	r0, r5, #4
	ldr	r2, __arm_cp.15_3
	add	r3, sp, #32
	str	r1, [sp, #16]                   @ 4-byte Spill
	.loc	1 1608 29 is_stmt 0             @ ../../../ThirdParty/mbedTLS/library/ssl_tls.c:1608:29
	bl	mbedtls_dhm_calc_secret
	mov	r7, r0
.Ltmp436:
	@DEBUG_VALUE: ret <- $r7
	.loc	1 1608 21                       @ ../../../ThirdParty/mbedTLS/library/ssl_tls.c:1608:21
	cbz	r0, .LBB15_17
.Ltmp437:
@ %bb.11:
	@DEBUG_VALUE: mbedtls_ssl_psk_derive_premaster:psk <- [DW_OP_plus_uconst 20] [$sp+0]
	@DEBUG_VALUE: ret <- $r7
	@DEBUG_VALUE: mbedtls_ssl_psk_derive_premaster:ssl <- $r4
	@DEBUG_VALUE: len <- [DW_OP_plus_uconst 32, DW_OP_deref] $sp
	@DEBUG_VALUE: mbedtls_ssl_psk_derive_premaster:psk_len <- [DW_OP_plus_uconst 24] [$sp+0]
	@DEBUG_VALUE: mbedtls_ssl_psk_derive_premaster:key_ex <- [DW_OP_LLVM_entry_value 1] $r1
	.loc	1 1612 21 is_stmt 1             @ ../../../ThirdParty/mbedTLS/library/ssl_tls.c:1612:21
	adr	r0, .LCPI15_7
	str	r0, [sp]
	str	r7, [sp, #4]
	movs	r1, #1
	ldr	r2, __arm_cp.15_6
	ldr	r3, __arm_cp.15_5
	b	.LBB15_15
.Ltmp438:
.LBB15_12:
	@DEBUG_VALUE: mbedtls_ssl_psk_derive_premaster:psk <- $r7
	@DEBUG_VALUE: mbedtls_ssl_psk_derive_premaster:ssl <- $r4
	@DEBUG_VALUE: mbedtls_ssl_psk_derive_premaster:psk_len <- [DW_OP_plus_uconst 24] [$sp+0]
	@DEBUG_VALUE: mbedtls_ssl_psk_derive_premaster:key_ex <- [DW_OP_LLVM_entry_value 1] $r1
	@DEBUG_VALUE: mbedtls_ssl_psk_derive_premaster:p <- [DW_OP_plus_uconst 1, DW_OP_stack_value] $r6
	.loc	1 0 21 is_stmt 0                @ ../../../ThirdParty/mbedTLS/library/ssl_tls.c:0:21
	str	r7, [sp, #20]                   @ 4-byte Spill
.Ltmp439:
	@DEBUG_VALUE: mbedtls_ssl_psk_derive_premaster:psk <- [DW_OP_plus_uconst 20] [$sp+0]
	movs	r0, #48
.Ltmp440:
	@DEBUG_VALUE: mbedtls_ssl_psk_derive_premaster:p <- [DW_OP_plus_uconst 1190, DW_OP_stack_value] $r5
	.loc	1 1596 18 is_stmt 1             @ ../../../ThirdParty/mbedTLS/library/ssl_tls.c:1596:18
	strb	r0, [r6, #1]
	movs	r0, #0
	.loc	1 1595 18                       @ ../../../ThirdParty/mbedTLS/library/ssl_tls.c:1595:18
	strb	r0, [r6]
	ldr	r0, __arm_cp.15_9
	.loc	1 1597 15                       @ ../../../ThirdParty/mbedTLS/library/ssl_tls.c:1597:15
	adds	r6, r5, r0
.Ltmp441:
	@DEBUG_VALUE: mbedtls_ssl_psk_derive_premaster:p <- $r6
	.loc	1 0 15 is_stmt 0                @ ../../../ThirdParty/mbedTLS/library/ssl_tls.c:0:15
	ldr	r2, [sp, #24]                   @ 4-byte Reload
	b	.LBB15_21
.Ltmp442:
.LBB15_13:
	@DEBUG_VALUE: mbedtls_ssl_psk_derive_premaster:psk <- $r7
	@DEBUG_VALUE: mbedtls_ssl_psk_derive_premaster:ssl <- $r4
	@DEBUG_VALUE: mbedtls_ssl_psk_derive_premaster:psk_len <- [DW_OP_plus_uconst 24] [$sp+0]
	@DEBUG_VALUE: mbedtls_ssl_psk_derive_premaster:key_ex <- [DW_OP_LLVM_entry_value 1] $r1
	@DEBUG_VALUE: zlen <- [DW_OP_plus_uconst 28, DW_OP_deref] $sp
	str	r7, [sp, #20]                   @ 4-byte Spill
.Ltmp443:
	@DEBUG_VALUE: mbedtls_ssl_psk_derive_premaster:psk <- [DW_OP_plus_uconst 20] [$sp+0]
	.loc	1 1631 70 is_stmt 1             @ ../../../ThirdParty/mbedTLS/library/ssl_tls.c:1631:70
	ldr	r1, [r0, #24]
	.loc	1 1631 88 is_stmt 0             @ ../../../ThirdParty/mbedTLS/library/ssl_tls.c:1631:88
	ldr	r0, [r0, #28]
	.loc	1 1629 33 is_stmt 1             @ ../../../ThirdParty/mbedTLS/library/ssl_tls.c:1629:33
	str	r1, [sp]
	str	r0, [sp, #4]
	ldr	r0, __arm_cp.15_2
	.loc	1 1630 61                       @ ../../../ThirdParty/mbedTLS/library/ssl_tls.c:1630:61
	adds	r2, r5, r0
	.loc	1 1629 76                       @ ../../../ThirdParty/mbedTLS/library/ssl_tls.c:1629:76
	mov	r0, r5
	adds	r0, #128
	add	r1, sp, #28
	ldr	r3, __arm_cp.15_3
	str	r2, [sp, #16]                   @ 4-byte Spill
	.loc	1 1629 33 is_stmt 0             @ ../../../ThirdParty/mbedTLS/library/ssl_tls.c:1629:33
	bl	mbedtls_ecdh_calc_secret
	mov	r7, r0
.Ltmp444:
	@DEBUG_VALUE: ret <- $r7
	.loc	1 1629 25                       @ ../../../ThirdParty/mbedTLS/library/ssl_tls.c:1629:25
	cbz	r0, .LBB15_18
.Ltmp445:
@ %bb.14:
	@DEBUG_VALUE: mbedtls_ssl_psk_derive_premaster:psk <- [DW_OP_plus_uconst 20] [$sp+0]
	@DEBUG_VALUE: ret <- $r7
	@DEBUG_VALUE: mbedtls_ssl_psk_derive_premaster:ssl <- $r4
	@DEBUG_VALUE: zlen <- [DW_OP_plus_uconst 28, DW_OP_deref] $sp
	@DEBUG_VALUE: mbedtls_ssl_psk_derive_premaster:psk_len <- [DW_OP_plus_uconst 24] [$sp+0]
	@DEBUG_VALUE: mbedtls_ssl_psk_derive_premaster:key_ex <- [DW_OP_LLVM_entry_value 1] $r1
	.loc	1 1633 25 is_stmt 1             @ ../../../ThirdParty/mbedTLS/library/ssl_tls.c:1633:25
	adr	r0, .LCPI15_4
	str	r0, [sp]
	str	r7, [sp, #4]
	ldr	r3, __arm_cp.15_5
	adds	r3, #21
	movs	r1, #1
	ldr	r2, __arm_cp.15_6
.Ltmp446:
.LBB15_15:
	@DEBUG_VALUE: mbedtls_ssl_psk_derive_premaster:psk <- [DW_OP_plus_uconst 20] [$sp+0]
	@DEBUG_VALUE: mbedtls_ssl_psk_derive_premaster:ssl <- $r4
	@DEBUG_VALUE: mbedtls_ssl_psk_derive_premaster:psk_len <- [DW_OP_plus_uconst 24] [$sp+0]
	@DEBUG_VALUE: mbedtls_ssl_psk_derive_premaster:key_ex <- [DW_OP_LLVM_entry_value 1] $r1
	.loc	1 0 0 is_stmt 0                 @ ../../../ThirdParty/mbedTLS/library/ssl_tls.c:0:0
	mov	r0, r4
	bl	mbedtls_debug_print_ret
	b	.LBB15_20
.Ltmp447:
.LBB15_16:
	@DEBUG_VALUE: mbedtls_ssl_psk_derive_premaster:psk <- $r7
	@DEBUG_VALUE: mbedtls_ssl_psk_derive_premaster:ssl <- $r4
	@DEBUG_VALUE: mbedtls_ssl_psk_derive_premaster:psk_len <- [DW_OP_plus_uconst 24] [$sp+0]
	@DEBUG_VALUE: mbedtls_ssl_psk_derive_premaster:key_ex <- [DW_OP_LLVM_entry_value 1] $r1
	str	r7, [sp, #20]                   @ 4-byte Spill
.Ltmp448:
	@DEBUG_VALUE: mbedtls_ssl_psk_derive_premaster:psk <- [DW_OP_plus_uconst 20] [$sp+0]
	ldr	r0, __arm_cp.15_2
.Ltmp449:
	adds	r7, r5, r0
.Ltmp450:
	@DEBUG_VALUE: mbedtls_ssl_psk_derive_premaster:p <- $r7
	.loc	1 1580 9 is_stmt 1              @ ../../../ThirdParty/mbedTLS/library/ssl_tls.c:1580:9
	mov	r0, r7
	bl	__aeabi_memclr
	ldr	r2, [sp, #24]                   @ 4-byte Reload
	.loc	1 1581 11                       @ ../../../ThirdParty/mbedTLS/library/ssl_tls.c:1581:11
	adds	r6, r7, r2
.Ltmp451:
	@DEBUG_VALUE: mbedtls_ssl_psk_derive_premaster:p <- $r6
	.loc	1 0 11 is_stmt 0                @ ../../../ThirdParty/mbedTLS/library/ssl_tls.c:0:11
	b	.LBB15_21
.Ltmp452:
.LBB15_17:
	@DEBUG_VALUE: mbedtls_ssl_psk_derive_premaster:psk <- [DW_OP_plus_uconst 20] [$sp+0]
	@DEBUG_VALUE: ret <- $r7
	@DEBUG_VALUE: mbedtls_ssl_psk_derive_premaster:ssl <- $r4
	@DEBUG_VALUE: len <- [DW_OP_plus_uconst 32, DW_OP_deref] $sp
	@DEBUG_VALUE: mbedtls_ssl_psk_derive_premaster:psk_len <- [DW_OP_plus_uconst 24] [$sp+0]
	@DEBUG_VALUE: mbedtls_ssl_psk_derive_premaster:key_ex <- [DW_OP_LLVM_entry_value 1] $r1
	.loc	1 1615 43 is_stmt 1             @ ../../../ThirdParty/mbedTLS/library/ssl_tls.c:1615:43
	ldr	r0, [sp, #32]
.Ltmp453:
	@DEBUG_VALUE: len <- $r0
	@DEBUG_VALUE: mbedtls_ssl_psk_derive_premaster:p <- [DW_OP_plus_uconst 16] [$sp+0]
	.loc	1 1616 24                       @ ../../../ThirdParty/mbedTLS/library/ssl_tls.c:1616:24
	str	r0, [sp, #12]                   @ 4-byte Spill
	strb	r0, [r6, #1]
	.loc	1 1615 47                       @ ../../../ThirdParty/mbedTLS/library/ssl_tls.c:1615:47
	lsrs	r0, r0, #8
.Ltmp454:
	@DEBUG_VALUE: len <- [DW_OP_plus_uconst 12] [$sp+0]
	@DEBUG_VALUE: len <- $r0
	.loc	1 1615 24 is_stmt 0             @ ../../../ThirdParty/mbedTLS/library/ssl_tls.c:1615:24
	strb	r0, [r6]
	.loc	1 1619 17 is_stmt 1             @ ../../../ThirdParty/mbedTLS/library/ssl_tls.c:1619:17
	ldr	r0, [r4, #60]
.Ltmp455:
	adds	r0, #68
	adr	r1, .LCPI15_8
	str	r1, [sp]
	str	r0, [sp, #4]
	ldr	r0, __arm_cp.15_5
	adds	r3, r0, #7
	movs	r1, #3
	ldr	r2, __arm_cp.15_6
	mov	r0, r4
	bl	mbedtls_debug_print_mpi
	b	.LBB15_19
.Ltmp456:
.LBB15_18:
	@DEBUG_VALUE: mbedtls_ssl_psk_derive_premaster:psk <- [DW_OP_plus_uconst 20] [$sp+0]
	@DEBUG_VALUE: ret <- $r7
	@DEBUG_VALUE: mbedtls_ssl_psk_derive_premaster:ssl <- $r4
	@DEBUG_VALUE: zlen <- [DW_OP_plus_uconst 28, DW_OP_deref] $sp
	@DEBUG_VALUE: mbedtls_ssl_psk_derive_premaster:psk_len <- [DW_OP_plus_uconst 24] [$sp+0]
	@DEBUG_VALUE: mbedtls_ssl_psk_derive_premaster:key_ex <- [DW_OP_LLVM_entry_value 1] $r1
	.loc	1 1637 47                       @ ../../../ThirdParty/mbedTLS/library/ssl_tls.c:1637:47
	ldr	r0, [sp, #28]
.Ltmp457:
	@DEBUG_VALUE: zlen <- $r0
	@DEBUG_VALUE: mbedtls_ssl_psk_derive_premaster:p <- [DW_OP_plus_uconst 16] [$sp+0]
	.loc	1 1638 28                       @ ../../../ThirdParty/mbedTLS/library/ssl_tls.c:1638:28
	str	r0, [sp, #12]                   @ 4-byte Spill
	strb	r0, [r6, #1]
	.loc	1 1637 52                       @ ../../../ThirdParty/mbedTLS/library/ssl_tls.c:1637:52
	lsrs	r0, r0, #8
.Ltmp458:
	@DEBUG_VALUE: zlen <- [DW_OP_plus_uconst 12] [$sp+0]
	@DEBUG_VALUE: zlen <- $r0
	.loc	1 1637 28 is_stmt 0             @ ../../../ThirdParty/mbedTLS/library/ssl_tls.c:1637:28
	strb	r0, [r6]
	.loc	1 1641 21 is_stmt 1             @ ../../../ThirdParty/mbedTLS/library/ssl_tls.c:1641:21
	ldr	r0, [r4, #60]
.Ltmp459:
	.loc	1 0 21 is_stmt 0                @ ../../../ThirdParty/mbedTLS/library/ssl_tls.c:0:21
	movs	r1, #2
	.loc	1 1641 21                       @ ../../../ThirdParty/mbedTLS/library/ssl_tls.c:1641:21
	adds	r0, #128
	str	r0, [sp]
	str	r1, [sp, #4]
	ldr	r3, __arm_cp.15_5
	adds	r3, #30
	movs	r1, #3
	ldr	r2, __arm_cp.15_6
	mov	r0, r4
	bl	mbedtls_debug_printf_ecdh
.Ltmp460:
.LBB15_19:
	@DEBUG_VALUE: mbedtls_ssl_psk_derive_premaster:psk <- [DW_OP_plus_uconst 20] [$sp+0]
	@DEBUG_VALUE: mbedtls_ssl_psk_derive_premaster:ssl <- $r4
	@DEBUG_VALUE: mbedtls_ssl_psk_derive_premaster:p <- [DW_OP_plus_uconst 16] [$sp+0]
	@DEBUG_VALUE: mbedtls_ssl_psk_derive_premaster:psk_len <- [DW_OP_plus_uconst 24] [$sp+0]
	@DEBUG_VALUE: mbedtls_ssl_psk_derive_premaster:key_ex <- [DW_OP_LLVM_entry_value 1] $r1
	.loc	1 0 0                           @ ../../../ThirdParty/mbedTLS/library/ssl_tls.c:0:0
	ldr	r0, [sp, #16]                   @ 4-byte Reload
.Ltmp461:
	@DEBUG_VALUE: mbedtls_ssl_psk_derive_premaster:p <- $r0
	ldr	r1, [sp, #12]                   @ 4-byte Reload
	@DEBUG_VALUE: len <- $r1
	adds	r6, r0, r1
.Ltmp462:
	@DEBUG_VALUE: mbedtls_ssl_psk_derive_premaster:p <- $r6
.LBB15_20:
	@DEBUG_VALUE: mbedtls_ssl_psk_derive_premaster:psk <- [DW_OP_plus_uconst 20] [$sp+0]
	@DEBUG_VALUE: mbedtls_ssl_psk_derive_premaster:ssl <- $r4
	@DEBUG_VALUE: mbedtls_ssl_psk_derive_premaster:psk_len <- [DW_OP_plus_uconst 24] [$sp+0]
	@DEBUG_VALUE: mbedtls_ssl_psk_derive_premaster:key_ex <- [DW_OP_LLVM_entry_value 1] $r1
	ldr	r2, [sp, #24]                   @ 4-byte Reload
.Ltmp463:
	@DEBUG_VALUE: mbedtls_ssl_psk_derive_premaster:p <- $r6
	cbnz	r7, .LBB15_25
.Ltmp464:
.LBB15_21:
	@DEBUG_VALUE: mbedtls_ssl_psk_derive_premaster:psk <- [DW_OP_plus_uconst 20] [$sp+0]
	@DEBUG_VALUE: mbedtls_ssl_psk_derive_premaster:p <- $r6
	@DEBUG_VALUE: mbedtls_ssl_psk_derive_premaster:ssl <- $r4
	@DEBUG_VALUE: mbedtls_ssl_psk_derive_premaster:psk_len <- [DW_OP_plus_uconst 24] [$sp+0]
	@DEBUG_VALUE: mbedtls_ssl_psk_derive_premaster:key_ex <- [DW_OP_LLVM_entry_value 1] $r1
	ldr	r0, __arm_cp.15_0
	adds	r0, r5, r0
.Ltmp465:
	@DEBUG_VALUE: mbedtls_ssl_psk_derive_premaster:end <- $r0
	@DEBUG_VALUE: mbedtls_ssl_psk_derive_premaster:p <- $r6
	.loc	1 1652 13 is_stmt 1             @ ../../../ThirdParty/mbedTLS/library/ssl_tls.c:1652:13
	subs	r1, r0, r6
	ldr	r7, __arm_cp.15_10
.Ltmp466:
	.loc	1 1652 9 is_stmt 0              @ ../../../ThirdParty/mbedTLS/library/ssl_tls.c:1652:9
	cmp	r1, #2
	blt	.LBB15_25
.Ltmp467:
@ %bb.22:
	@DEBUG_VALUE: mbedtls_ssl_psk_derive_premaster:psk <- [DW_OP_plus_uconst 20] [$sp+0]
	@DEBUG_VALUE: mbedtls_ssl_psk_derive_premaster:p <- $r6
	@DEBUG_VALUE: mbedtls_ssl_psk_derive_premaster:ssl <- $r4
	@DEBUG_VALUE: mbedtls_ssl_psk_derive_premaster:end <- $r0
	@DEBUG_VALUE: mbedtls_ssl_psk_derive_premaster:psk_len <- [DW_OP_plus_uconst 24] [$sp+0]
	@DEBUG_VALUE: mbedtls_ssl_psk_derive_premaster:key_ex <- [DW_OP_LLVM_entry_value 1] $r1
	@DEBUG_VALUE: mbedtls_ssl_psk_derive_premaster:p <- [DW_OP_plus_uconst 1, DW_OP_stack_value] $r6
	.loc	1 1656 12 is_stmt 1             @ ../../../ThirdParty/mbedTLS/library/ssl_tls.c:1656:12
	strb	r2, [r6, #1]
	.loc	1 1655 39                       @ ../../../ThirdParty/mbedTLS/library/ssl_tls.c:1655:39
	lsrs	r1, r2, #8
	.loc	1 1655 12 is_stmt 0             @ ../../../ThirdParty/mbedTLS/library/ssl_tls.c:1655:12
	strb	r1, [r6]
	.loc	1 1656 8 is_stmt 1              @ ../../../ThirdParty/mbedTLS/library/ssl_tls.c:1656:8
	adds	r5, r6, #2
.Ltmp468:
	@DEBUG_VALUE: mbedtls_ssl_psk_derive_premaster:p <- $r5
	.loc	1 1658 17                       @ ../../../ThirdParty/mbedTLS/library/ssl_tls.c:1658:17
	cmp	r0, r5
	blo	.LBB15_25
.Ltmp469:
@ %bb.23:
	@DEBUG_VALUE: mbedtls_ssl_psk_derive_premaster:psk <- [DW_OP_plus_uconst 20] [$sp+0]
	@DEBUG_VALUE: mbedtls_ssl_psk_derive_premaster:p <- $r5
	@DEBUG_VALUE: mbedtls_ssl_psk_derive_premaster:ssl <- $r4
	@DEBUG_VALUE: mbedtls_ssl_psk_derive_premaster:end <- $r0
	@DEBUG_VALUE: mbedtls_ssl_psk_derive_premaster:psk_len <- [DW_OP_plus_uconst 24] [$sp+0]
	@DEBUG_VALUE: mbedtls_ssl_psk_derive_premaster:key_ex <- [DW_OP_LLVM_entry_value 1] $r1
	.loc	1 1658 34 is_stmt 0             @ ../../../ThirdParty/mbedTLS/library/ssl_tls.c:1658:34
	subs	r0, r0, r5
.Ltmp470:
	.loc	1 1658 9                        @ ../../../ThirdParty/mbedTLS/library/ssl_tls.c:1658:9
	cmp	r0, r2
	blo	.LBB15_25
.Ltmp471:
@ %bb.24:
	@DEBUG_VALUE: mbedtls_ssl_psk_derive_premaster:psk <- [DW_OP_plus_uconst 20] [$sp+0]
	@DEBUG_VALUE: mbedtls_ssl_psk_derive_premaster:p <- $r5
	@DEBUG_VALUE: mbedtls_ssl_psk_derive_premaster:ssl <- $r4
	@DEBUG_VALUE: mbedtls_ssl_psk_derive_premaster:psk_len <- [DW_OP_plus_uconst 24] [$sp+0]
	@DEBUG_VALUE: mbedtls_ssl_psk_derive_premaster:key_ex <- [DW_OP_LLVM_entry_value 1] $r1
	.loc	1 1661 5 is_stmt 1              @ ../../../ThirdParty/mbedTLS/library/ssl_tls.c:1661:5
	mov	r0, r5
	ldr	r1, [sp, #20]                   @ 4-byte Reload
.Ltmp472:
	@DEBUG_VALUE: mbedtls_ssl_psk_derive_premaster:psk <- $r1
	.loc	1 0 5 is_stmt 0                 @ ../../../ThirdParty/mbedTLS/library/ssl_tls.c:0:5
	mov	r6, r2
	.loc	1 1661 5                        @ ../../../ThirdParty/mbedTLS/library/ssl_tls.c:1661:5
	bl	__aeabi_memcpy
.Ltmp473:
	.loc	1 1662 7 is_stmt 1              @ ../../../ThirdParty/mbedTLS/library/ssl_tls.c:1662:7
	adds	r0, r5, r6
.Ltmp474:
	@DEBUG_VALUE: mbedtls_ssl_psk_derive_premaster:p <- $r0
	.loc	1 1664 39                       @ ../../../ThirdParty/mbedTLS/library/ssl_tls.c:1664:39
	ldr	r1, [r4, #60]
	.loc	1 1664 32 is_stmt 0             @ ../../../ThirdParty/mbedTLS/library/ssl_tls.c:1664:32
	subs	r0, r0, r1
.Ltmp475:
	movw	r2, #1188
	subs	r0, r0, r2
	movw	r2, #1120
	.loc	1 1664 28                       @ ../../../ThirdParty/mbedTLS/library/ssl_tls.c:1664:28
	str	r0, [r1, r2]
	movs	r7, #0
.Ltmp476:
.LBB15_25:
	@DEBUG_VALUE: mbedtls_ssl_psk_derive_premaster:ssl <- $r4
	@DEBUG_VALUE: mbedtls_ssl_psk_derive_premaster:key_ex <- [DW_OP_LLVM_entry_value 1] $r1
	.loc	1 1667 1 is_stmt 1              @ ../../../ThirdParty/mbedTLS/library/ssl_tls.c:1667:1
	mov	r0, r7
	add	sp, #36
	pop	{r4, r5, r6, r7, pc}
.Ltmp477:
	.p2align	2
@ %bb.26:
	.loc	1 0 1 is_stmt 0                 @ ../../../ThirdParty/mbedTLS/library/ssl_tls.c:0:1
__arm_cp.15_0:
	.long	2248                            @ 0x8c8
.Lcpi_end86:
	.size	__arm_cp.15_0, .Lcpi_end86-__arm_cp.15_0
__arm_cp.15_1:
	.long	1188                            @ 0x4a4
.Lcpi_end87:
	.size	__arm_cp.15_1, .Lcpi_end87-__arm_cp.15_1
__arm_cp.15_2:
	.long	1190                            @ 0x4a6
.Lcpi_end88:
	.size	__arm_cp.15_2, .Lcpi_end88-__arm_cp.15_2
__arm_cp.15_3:
	.long	1058                            @ 0x422
.Lcpi_end89:
	.size	__arm_cp.15_3, .Lcpi_end89-__arm_cp.15_3
.LCPI15_4:
.L.str.24:
	.asciz	"mbedtls_ecdh_calc_secret\000\000\000"
__arm_cp.15_5:
	.long	1612                            @ 0x64c
.Lcpi_end90:
	.size	__arm_cp.15_5, .Lcpi_end90-__arm_cp.15_5
__arm_cp.15_6:
	.long	.L.str
.Lcpi_end91:
	.size	__arm_cp.15_6, .Lcpi_end91-__arm_cp.15_6
.LCPI15_7:
.L.str.22:
	.asciz	"mbedtls_dhm_calc_secret"
.LCPI15_8:
.L.str.23:
	.asciz	"DHM: K "
__arm_cp.15_9:
	.long	1238                            @ 0x4d6
.Lcpi_end92:
	.size	__arm_cp.15_9, .Lcpi_end92-__arm_cp.15_9
__arm_cp.15_10:
	.long	4294938368                      @ 0xffff8f00
.Lcpi_end93:
	.size	__arm_cp.15_10, .Lcpi_end93-__arm_cp.15_10
__arm_cp.15_11:
	.long	.L.str.4
.Lcpi_end94:
	.size	__arm_cp.15_11, .Lcpi_end94-__arm_cp.15_11
__arm_cp.15_12:
	.long	4294939648                      @ 0xffff9400
.Lcpi_end95:
	.size	__arm_cp.15_12, .Lcpi_end95-__arm_cp.15_12
.Lfunc_end15:
	.size	mbedtls_ssl_psk_derive_premaster, .Lfunc_end15-mbedtls_ssl_psk_derive_premaster
	.cfi_endproc
	.cantunwind
	.fnend
                                        @ -- End function
	.section	.text.mbedtls_ssl_fetch_input,"ax",%progbits
	.hidden	mbedtls_ssl_fetch_input         @ -- Begin function mbedtls_ssl_fetch_input
	.globl	mbedtls_ssl_fetch_input
	.p2align	2
	.type	mbedtls_ssl_fetch_input,%function
	.code	16                              @ @mbedtls_ssl_fetch_input
	.thumb_func
mbedtls_ssl_fetch_input:
.Lfunc_begin16:
	.loc	1 2837 0 is_stmt 1              @ ../../../ThirdParty/mbedTLS/library/ssl_tls.c:2837:0
	.fnstart
	.cfi_startproc
@ %bb.0:
	@DEBUG_VALUE: mbedtls_ssl_fetch_input:ssl <- $r0
	@DEBUG_VALUE: mbedtls_ssl_fetch_input:nb_want <- $r1
	.save	{r4, r5, r6, r7, lr}
	push	{r4, r5, r6, r7, lr}
	.cfi_def_cfa_offset 20
	.cfi_offset lr, -4
	.cfi_offset r7, -8
	.cfi_offset r6, -12
	.cfi_offset r5, -16
	.cfi_offset r4, -20
	.pad	#28
	sub	sp, #28
	.cfi_def_cfa_offset 48
	mov	r5, r1
	mov	r7, r0
.Ltmp478:
	@DEBUG_VALUE: mbedtls_ssl_fetch_input:nb_want <- $r5
	@DEBUG_VALUE: mbedtls_ssl_fetch_input:ssl <- $r7
	.loc	1 2841 5 prologue_end           @ ../../../ThirdParty/mbedTLS/library/ssl_tls.c:2841:5
	adr	r0, .LCPI16_0
	str	r0, [sp]
	movs	r1, #2
	ldr	r2, __arm_cp.16_1
	ldr	r6, __arm_cp.16_2
	mov	r0, r7
	mov	r3, r6
	bl	mbedtls_debug_print_msg
.Ltmp479:
	.loc	1 2843 14                       @ ../../../ThirdParty/mbedTLS/library/ssl_tls.c:2843:14
	ldr	r0, [r7, #32]
	.loc	1 2843 29 is_stmt 0             @ ../../../ThirdParty/mbedTLS/library/ssl_tls.c:2843:29
	cbnz	r0, .LBB16_2
.Ltmp480:
@ %bb.1:
	@DEBUG_VALUE: mbedtls_ssl_fetch_input:ssl <- $r7
	@DEBUG_VALUE: mbedtls_ssl_fetch_input:nb_want <- $r5
	.loc	1 2843 37                       @ ../../../ThirdParty/mbedTLS/library/ssl_tls.c:2843:37
	ldr	r0, [r7, #36]
.Ltmp481:
	.loc	1 2843 9                        @ ../../../ThirdParty/mbedTLS/library/ssl_tls.c:2843:9
	cmp	r0, #0
	bne	.LBB16_2
	b	.LBB16_21
.Ltmp482:
.LBB16_2:
	@DEBUG_VALUE: mbedtls_ssl_fetch_input:ssl <- $r7
	@DEBUG_VALUE: mbedtls_ssl_fetch_input:nb_want <- $r5
	.loc	1 2850 62 is_stmt 1             @ ../../../ThirdParty/mbedTLS/library/ssl_tls.c:2850:62
	ldr	r0, [r7, #100]
	ldr	r4, __arm_cp.16_3
	.loc	1 2850 69 is_stmt 0             @ ../../../ThirdParty/mbedTLS/library/ssl_tls.c:2850:69
	subs	r0, r4, r0
	.loc	1 2850 76                       @ ../../../ThirdParty/mbedTLS/library/ssl_tls.c:2850:76
	ldr	r1, [r7, #92]
	.loc	1 2850 45                       @ ../../../ThirdParty/mbedTLS/library/ssl_tls.c:2850:45
	adds	r0, r0, r1
.Ltmp483:
	.loc	1 2850 9                        @ ../../../ThirdParty/mbedTLS/library/ssl_tls.c:2850:9
	cmp	r0, r5
	bhs	.LBB16_4
.Ltmp484:
@ %bb.3:
	@DEBUG_VALUE: mbedtls_ssl_fetch_input:ssl <- $r7
	@DEBUG_VALUE: mbedtls_ssl_fetch_input:nb_want <- $r5
	.loc	1 2852 9 is_stmt 1              @ ../../../ThirdParty/mbedTLS/library/ssl_tls.c:2852:9
	ldr	r0, __arm_cp.16_21
	str	r0, [sp]
	adds	r6, #11
	movs	r1, #1
	ldr	r2, __arm_cp.16_1
	mov	r0, r7
	mov	r3, r6
	bl	mbedtls_debug_print_msg
	ldr	r5, __arm_cp.16_19
.Ltmp485:
	.loc	1 2853 9                        @ ../../../ThirdParty/mbedTLS/library/ssl_tls.c:2853:9
	b	.LBB16_54
.Ltmp486:
.LBB16_4:
	@DEBUG_VALUE: mbedtls_ssl_fetch_input:ssl <- $r7
	@DEBUG_VALUE: mbedtls_ssl_fetch_input:nb_want <- $r5
	.loc	1 0 0 is_stmt 0                 @ ../../../ThirdParty/mbedTLS/library/ssl_tls.c:0:0
	mov	r2, r7
	adds	r2, #128
.Ltmp487:
	.loc	1 2857 14 is_stmt 1             @ ../../../ThirdParty/mbedTLS/library/ssl_tls.c:2857:14
	ldr	r0, [r7]
	movs	r1, #172
	.loc	1 2857 20 is_stmt 0             @ ../../../ThirdParty/mbedTLS/library/ssl_tls.c:2857:20
	ldrh	r0, [r0, r1]
.Ltmp488:
	.loc	1 2857 9                        @ ../../../ThirdParty/mbedTLS/library/ssl_tls.c:2857:9
	lsls	r0, r0, #30
	str	r7, [sp, #20]                   @ 4-byte Spill
	bmi	.LBB16_16
.Ltmp489:
@ %bb.5:
	@DEBUG_VALUE: mbedtls_ssl_fetch_input:ssl <- $r7
	@DEBUG_VALUE: mbedtls_ssl_fetch_input:nb_want <- $r5
	.loc	1 3001 9 is_stmt 1              @ ../../../ThirdParty/mbedTLS/library/ssl_tls.c:3001:9
	ldr	r0, [r2]
	str	r5, [sp, #8]
	str	r0, [sp, #4]
	ldr	r0, __arm_cp.16_7
	str	r0, [sp]
	mov	r3, r6
	adds	r3, #161
	movs	r1, #2
	mov	r4, r2
	ldr	r2, __arm_cp.16_1
	mov	r0, r7
	bl	mbedtls_debug_print_msg
	.loc	1 3004 21                       @ ../../../ThirdParty/mbedTLS/library/ssl_tls.c:3004:21
	ldr	r0, [r4]
	.loc	1 3004 9 is_stmt 0              @ ../../../ThirdParty/mbedTLS/library/ssl_tls.c:3004:9
	cmp	r0, r5
	blo	.LBB16_6
	b	.LBB16_53
.Ltmp490:
.LBB16_6:
	@DEBUG_VALUE: mbedtls_ssl_fetch_input:ssl <- $r7
	@DEBUG_VALUE: mbedtls_ssl_fetch_input:nb_want <- $r5
	.loc	1 0 9                           @ ../../../ThirdParty/mbedTLS/library/ssl_tls.c:0:9
	mov	r1, r4
	str	r5, [sp, #16]                   @ 4-byte Spill
.Ltmp491:
.LBB16_7:                               @ =>This Inner Loop Header: Depth=1
	mov	r6, r1
.Ltmp492:
	.loc	1 3006 27 is_stmt 1             @ ../../../ThirdParty/mbedTLS/library/ssl_tls.c:3006:27
	subs	r0, r5, r0
.Ltmp493:
	@DEBUG_VALUE: mbedtls_ssl_fetch_input:len <- $r0
	.loc	1 3008 17                       @ ../../../ThirdParty/mbedTLS/library/ssl_tls.c:3008:17
	str	r0, [sp, #24]                   @ 4-byte Spill
.Ltmp494:
	@DEBUG_VALUE: mbedtls_ssl_fetch_input:len <- [DW_OP_plus_uconst 24] [$sp+0]
	@DEBUG_VALUE: mbedtls_ssl_fetch_input:len <- [DW_OP_plus_uconst 24] [$sp+0]
	@DEBUG_VALUE: mbedtls_ssl_fetch_input:len <- [DW_OP_plus_uconst 24] [$sp+0]
	mov	r0, r7
	bl	ssl_check_timer
	.loc	1 0 0 is_stmt 0                 @ ../../../ThirdParty/mbedTLS/library/ssl_tls.c:0:0
	ldr	r4, __arm_cp.16_9
	mov	r1, r5
.Ltmp495:
	.loc	1 3008 17                       @ ../../../ThirdParty/mbedTLS/library/ssl_tls.c:3008:17
	cbnz	r0, .LBB16_12
.Ltmp496:
@ %bb.8:                                @   in Loop: Header=BB16_7 Depth=1
	@DEBUG_VALUE: mbedtls_ssl_fetch_input:len <- [DW_OP_plus_uconst 24] [$sp+0]
	.loc	1 3012 26 is_stmt 1             @ ../../../ThirdParty/mbedTLS/library/ssl_tls.c:3012:26
	ldr	r4, [r7, #36]
	mov	r2, r6
.Ltmp497:
	.loc	1 3012 21 is_stmt 0             @ ../../../ThirdParty/mbedTLS/library/ssl_tls.c:3012:21
	cbz	r4, .LBB16_10
.Ltmp498:
@ %bb.9:                                @   in Loop: Header=BB16_7 Depth=1
	@DEBUG_VALUE: mbedtls_ssl_fetch_input:len <- [DW_OP_plus_uconst 24] [$sp+0]
	.loc	1 3016 53 is_stmt 1             @ ../../../ThirdParty/mbedTLS/library/ssl_tls.c:3016:53
	ldr	r0, [r7]
	movs	r1, #136
	.loc	1 3016 59 is_stmt 0             @ ../../../ThirdParty/mbedTLS/library/ssl_tls.c:3016:59
	ldr	r3, [r0, r1]
	.loc	1 3015 67 is_stmt 1             @ ../../../ThirdParty/mbedTLS/library/ssl_tls.c:3015:67
	ldr	r0, [r2]
	.loc	1 3015 53 is_stmt 0             @ ../../../ThirdParty/mbedTLS/library/ssl_tls.c:3015:53
	ldr	r1, [r7, #100]
	.loc	1 3015 60                       @ ../../../ThirdParty/mbedTLS/library/ssl_tls.c:3015:60
	adds	r1, r1, r0
	.loc	1 3014 53 is_stmt 1             @ ../../../ThirdParty/mbedTLS/library/ssl_tls.c:3014:53
	ldr	r0, [r7, #40]
	.loc	1 3014 27 is_stmt 0             @ ../../../ThirdParty/mbedTLS/library/ssl_tls.c:3014:27
	ldr	r2, [sp, #24]                   @ 4-byte Reload
	blx	r4
	b	.LBB16_11
.Ltmp499:
.LBB16_10:                              @   in Loop: Header=BB16_7 Depth=1
	@DEBUG_VALUE: mbedtls_ssl_fetch_input:len <- [DW_OP_plus_uconst 24] [$sp+0]
	.loc	1 3021 59 is_stmt 1             @ ../../../ThirdParty/mbedTLS/library/ssl_tls.c:3021:59
	ldr	r0, [r2]
	.loc	1 3021 45 is_stmt 0             @ ../../../ThirdParty/mbedTLS/library/ssl_tls.c:3021:45
	ldr	r1, [r7, #100]
	.loc	1 3021 52                       @ ../../../ThirdParty/mbedTLS/library/ssl_tls.c:3021:52
	adds	r1, r1, r0
	.loc	1 3020 45 is_stmt 1             @ ../../../ThirdParty/mbedTLS/library/ssl_tls.c:3020:45
	ldr	r0, [r7, #40]
	.loc	1 3020 32 is_stmt 0             @ ../../../ThirdParty/mbedTLS/library/ssl_tls.c:3020:32
	ldr	r3, [r7, #32]
	.loc	1 3020 27                       @ ../../../ThirdParty/mbedTLS/library/ssl_tls.c:3020:27
	ldr	r2, [sp, #24]                   @ 4-byte Reload
	blx	r3
.Ltmp500:
.LBB16_11:                              @   in Loop: Header=BB16_7 Depth=1
	@DEBUG_VALUE: mbedtls_ssl_fetch_input:len <- [DW_OP_plus_uconst 24] [$sp+0]
	.loc	1 0 0                           @ ../../../ThirdParty/mbedTLS/library/ssl_tls.c:0:0
	mov	r4, r0
.Ltmp501:
	@DEBUG_VALUE: mbedtls_ssl_fetch_input:ret <- $r4
	ldr	r1, [sp, #16]                   @ 4-byte Reload
.Ltmp502:
.LBB16_12:                              @   in Loop: Header=BB16_7 Depth=1
	@DEBUG_VALUE: mbedtls_ssl_fetch_input:len <- [DW_OP_plus_uconst 24] [$sp+0]
	@DEBUG_VALUE: mbedtls_ssl_fetch_input:ret <- $r4
	mov	r5, r6
	.loc	1 3025 13 is_stmt 1             @ ../../../ThirdParty/mbedTLS/library/ssl_tls.c:3025:13
	ldr	r0, [r6]
	ldr	r2, __arm_cp.16_7
	str	r2, [sp]
	str	r0, [sp, #4]
	str	r1, [sp, #8]
	ldr	r3, __arm_cp.16_2
	adds	r3, #185
	movs	r6, #2
	mov	r0, r7
	mov	r1, r6
	ldr	r2, __arm_cp.16_1
	bl	mbedtls_debug_print_msg
	.loc	1 3027 13                       @ ../../../ThirdParty/mbedTLS/library/ssl_tls.c:3027:13
	ldr	r0, __arm_cp.16_12
	str	r0, [sp]
	str	r4, [sp, #4]
	ldr	r3, __arm_cp.16_2
	adds	r3, #186
	mov	r0, r7
	mov	r1, r6
	ldr	r2, __arm_cp.16_1
	bl	mbedtls_debug_print_ret
	.loc	1 3029 17                       @ ../../../ThirdParty/mbedTLS/library/ssl_tls.c:3029:17
	cmp	r4, #0
	beq	.LBB16_23
.Ltmp503:
@ %bb.13:                               @   in Loop: Header=BB16_7 Depth=1
	@DEBUG_VALUE: mbedtls_ssl_fetch_input:ret <- $r4
	@DEBUG_VALUE: mbedtls_ssl_fetch_input:len <- [DW_OP_plus_uconst 24] [$sp+0]
	.loc	1 3032 17                       @ ../../../ThirdParty/mbedTLS/library/ssl_tls.c:3032:17
	bmi	.LBB16_24
.Ltmp504:
@ %bb.14:                               @   in Loop: Header=BB16_7 Depth=1
	@DEBUG_VALUE: mbedtls_ssl_fetch_input:ret <- $r4
	@DEBUG_VALUE: mbedtls_ssl_fetch_input:len <- [DW_OP_plus_uconst 24] [$sp+0]
	.loc	1 0 17 is_stmt 0                @ ../../../ThirdParty/mbedTLS/library/ssl_tls.c:0:17
	ldr	r0, [sp, #24]                   @ 4-byte Reload
	.loc	1 3035 18 is_stmt 1             @ ../../../ThirdParty/mbedTLS/library/ssl_tls.c:3035:18
	cmp	r4, r0
	bhi	.LBB16_25
.Ltmp505:
@ %bb.15:                               @   in Loop: Header=BB16_7 Depth=1
	@DEBUG_VALUE: mbedtls_ssl_fetch_input:ret <- $r4
	@DEBUG_VALUE: mbedtls_ssl_fetch_input:len <- [DW_OP_plus_uconst 24] [$sp+0]
	.loc	1 0 18 is_stmt 0                @ ../../../ThirdParty/mbedTLS/library/ssl_tls.c:0:18
	mov	r1, r5
	.loc	1 3043 26 is_stmt 1             @ ../../../ThirdParty/mbedTLS/library/ssl_tls.c:3043:26
	ldr	r0, [r5]
	adds	r0, r0, r4
	str	r0, [r5]
	ldr	r5, [sp, #16]                   @ 4-byte Reload
.Ltmp506:
	.loc	1 3004 9                        @ ../../../ThirdParty/mbedTLS/library/ssl_tls.c:3004:9
	cmp	r0, r5
	ldr	r6, __arm_cp.16_2
	ldr	r7, [sp, #20]                   @ 4-byte Reload
	blo	.LBB16_7
	b	.LBB16_53
.Ltmp507:
.LBB16_16:
	@DEBUG_VALUE: mbedtls_ssl_fetch_input:ssl <- $r7
	@DEBUG_VALUE: mbedtls_ssl_fetch_input:nb_want <- $r5
	.loc	1 2862 18                       @ ../../../ThirdParty/mbedTLS/library/ssl_tls.c:2862:18
	ldr	r0, [r7, #84]
	.loc	1 2862 38 is_stmt 0             @ ../../../ThirdParty/mbedTLS/library/ssl_tls.c:2862:38
	cbz	r0, .LBB16_22
.Ltmp508:
@ %bb.17:
	@DEBUG_VALUE: mbedtls_ssl_fetch_input:ssl <- $r7
	@DEBUG_VALUE: mbedtls_ssl_fetch_input:nb_want <- $r5
	.loc	1 2862 46                       @ ../../../ThirdParty/mbedTLS/library/ssl_tls.c:2862:46
	ldr	r0, [r7, #88]
.Ltmp509:
	.loc	1 2862 13                       @ ../../../ThirdParty/mbedTLS/library/ssl_tls.c:2862:13
	cbz	r0, .LBB16_22
.Ltmp510:
@ %bb.18:
	@DEBUG_VALUE: mbedtls_ssl_fetch_input:ssl <- $r7
	@DEBUG_VALUE: mbedtls_ssl_fetch_input:nb_want <- $r5
	.loc	1 2879 18 is_stmt 1             @ ../../../ThirdParty/mbedTLS/library/ssl_tls.c:2879:18
	ldr	r0, [r2, #8]
.Ltmp511:
	.loc	1 2879 13 is_stmt 0             @ ../../../ThirdParty/mbedTLS/library/ssl_tls.c:2879:13
	cmp	r0, #0
	beq	.LBB16_29
.Ltmp512:
@ %bb.19:
	@DEBUG_VALUE: mbedtls_ssl_fetch_input:ssl <- $r7
	@DEBUG_VALUE: mbedtls_ssl_fetch_input:nb_want <- $r5
	.loc	1 2881 22 is_stmt 1             @ ../../../ThirdParty/mbedTLS/library/ssl_tls.c:2881:22
	ldr	r1, [r2]
.Ltmp513:
	.loc	1 2881 17 is_stmt 0             @ ../../../ThirdParty/mbedTLS/library/ssl_tls.c:2881:17
	cmp	r1, r0
	bhs	.LBB16_26
.Ltmp514:
@ %bb.20:
	@DEBUG_VALUE: mbedtls_ssl_fetch_input:ssl <- $r7
	@DEBUG_VALUE: mbedtls_ssl_fetch_input:nb_want <- $r5
	.loc	1 2883 17 is_stmt 1             @ ../../../ThirdParty/mbedTLS/library/ssl_tls.c:2883:17
	ldr	r0, __arm_cp.16_5
	str	r0, [sp]
	mov	r3, r6
	adds	r3, #42
	b	.LBB16_32
.Ltmp515:
.LBB16_21:
	@DEBUG_VALUE: mbedtls_ssl_fetch_input:ssl <- $r7
	@DEBUG_VALUE: mbedtls_ssl_fetch_input:nb_want <- $r5
	.loc	1 2845 9                        @ ../../../ThirdParty/mbedTLS/library/ssl_tls.c:2845:9
	ldr	r0, __arm_cp.16_22
	str	r0, [sp]
	adds	r3, r6, #5
	movs	r1, #1
	ldr	r2, __arm_cp.16_1
	mov	r0, r7
	bl	mbedtls_debug_print_msg
	ldr	r5, __arm_cp.16_19
.Ltmp516:
	.loc	1 2847 9                        @ ../../../ThirdParty/mbedTLS/library/ssl_tls.c:2847:9
	b	.LBB16_54
.Ltmp517:
.LBB16_22:
	@DEBUG_VALUE: mbedtls_ssl_fetch_input:ssl <- $r7
	@DEBUG_VALUE: mbedtls_ssl_fetch_input:nb_want <- $r5
	.loc	1 2864 13                       @ ../../../ThirdParty/mbedTLS/library/ssl_tls.c:2864:13
	ldr	r0, __arm_cp.16_18
	str	r0, [sp]
	mov	r3, r6
	adds	r3, #24
	movs	r1, #1
	ldr	r2, __arm_cp.16_1
	mov	r0, r7
	bl	mbedtls_debug_print_msg
	movs	r7, #0
.Ltmp518:
	.loc	1 0 13 is_stmt 0                @ ../../../ThirdParty/mbedTLS/library/ssl_tls.c:0:13
	ldr	r5, __arm_cp.16_19
.Ltmp519:
	b	.LBB16_52
.Ltmp520:
.LBB16_23:
	@DEBUG_VALUE: mbedtls_ssl_fetch_input:ret <- $r4
	@DEBUG_VALUE: mbedtls_ssl_fetch_input:len <- [DW_OP_plus_uconst 24] [$sp+0]
	ldr	r5, __arm_cp.16_13
	b	.LBB16_54
.Ltmp521:
.LBB16_24:
	@DEBUG_VALUE: mbedtls_ssl_fetch_input:ret <- $r4
	@DEBUG_VALUE: mbedtls_ssl_fetch_input:len <- [DW_OP_plus_uconst 24] [$sp+0]
	mov	r5, r4
.Ltmp522:
	@DEBUG_VALUE: mbedtls_ssl_fetch_input:ret <- $r5
	@DEBUG_VALUE: mbedtls_ssl_fetch_input:ret <- $r5
	b	.LBB16_54
.Ltmp523:
.LBB16_25:
	@DEBUG_VALUE: mbedtls_ssl_fetch_input:ret <- $r4
	@DEBUG_VALUE: mbedtls_ssl_fetch_input:len <- [DW_OP_plus_uconst 24] [$sp+0]
	@DEBUG_VALUE: mbedtls_ssl_fetch_input:ret <- $r4
	.loc	1 3037 17 is_stmt 1             @ ../../../ThirdParty/mbedTLS/library/ssl_tls.c:3037:17
	str	r0, [sp, #8]
	str	r4, [sp, #4]
	ldr	r0, __arm_cp.16_20
	str	r0, [sp]
	ldr	r3, __arm_cp.16_2
	adds	r3, #198
	movs	r1, #1
	ldr	r2, __arm_cp.16_1
	ldr	r0, [sp, #20]                   @ 4-byte Reload
	bl	mbedtls_debug_print_msg
	ldr	r5, __arm_cp.16_6
	.loc	1 3040 17                       @ ../../../ThirdParty/mbedTLS/library/ssl_tls.c:3040:17
	b	.LBB16_54
.Ltmp524:
.LBB16_26:
	@DEBUG_VALUE: mbedtls_ssl_fetch_input:ssl <- $r7
	@DEBUG_VALUE: mbedtls_ssl_fetch_input:nb_want <- $r5
	.loc	1 2887 26                       @ ../../../ThirdParty/mbedTLS/library/ssl_tls.c:2887:26
	subs	r1, r1, r0
	str	r1, [r2]
	.loc	1 2889 17                       @ ../../../ThirdParty/mbedTLS/library/ssl_tls.c:2889:17
	beq	.LBB16_28
.Ltmp525:
@ %bb.27:
	@DEBUG_VALUE: mbedtls_ssl_fetch_input:ssl <- $r7
	@DEBUG_VALUE: mbedtls_ssl_fetch_input:nb_want <- $r5
	.loc	1 2891 17                       @ ../../../ThirdParty/mbedTLS/library/ssl_tls.c:2891:17
	adr	r1, .LCPI16_4
	str	r1, [sp]
	str	r0, [sp, #4]
	mov	r3, r6
	adds	r3, #51
	movs	r1, #2
	mov	r6, r2
	ldr	r2, __arm_cp.16_1
	mov	r0, r7
	bl	mbedtls_debug_print_msg
	.loc	1 2894 45                       @ ../../../ThirdParty/mbedTLS/library/ssl_tls.c:2894:45
	ldr	r1, [r6, #8]
	.loc	1 2893 31                       @ ../../../ThirdParty/mbedTLS/library/ssl_tls.c:2893:31
	ldr	r0, [r7, #100]
	.loc	1 2894 38                       @ ../../../ThirdParty/mbedTLS/library/ssl_tls.c:2894:38
	adds	r1, r0, r1
	.loc	1 2895 31                       @ ../../../ThirdParty/mbedTLS/library/ssl_tls.c:2895:31
	ldr	r2, [r6]
	.loc	1 2893 17                       @ ../../../ThirdParty/mbedTLS/library/ssl_tls.c:2893:17
	bl	__aeabi_memmove
	mov	r2, r6
	ldr	r6, __arm_cp.16_2
.Ltmp526:
.LBB16_28:
	@DEBUG_VALUE: mbedtls_ssl_fetch_input:ssl <- $r7
	@DEBUG_VALUE: mbedtls_ssl_fetch_input:nb_want <- $r5
	.loc	1 0 17 is_stmt 0                @ ../../../ThirdParty/mbedTLS/library/ssl_tls.c:0:17
	movs	r0, #0
	.loc	1 2898 37 is_stmt 1             @ ../../../ThirdParty/mbedTLS/library/ssl_tls.c:2898:37
	str	r0, [r2, #8]
.Ltmp527:
.LBB16_29:
	@DEBUG_VALUE: mbedtls_ssl_fetch_input:ssl <- $r7
	@DEBUG_VALUE: mbedtls_ssl_fetch_input:nb_want <- $r5
	.loc	1 2901 9                        @ ../../../ThirdParty/mbedTLS/library/ssl_tls.c:2901:9
	str	r2, [sp, #12]                   @ 4-byte Spill
	ldr	r0, [r2]
	str	r5, [sp, #8]
	str	r0, [sp, #4]
	ldr	r0, __arm_cp.16_7
	str	r0, [sp]
	mov	r3, r6
	adds	r3, #61
	movs	r1, #2
	ldr	r2, __arm_cp.16_1
	mov	r0, r7
	bl	mbedtls_debug_print_msg
.Ltmp528:
	.loc	1 2907 29                       @ ../../../ThirdParty/mbedTLS/library/ssl_tls.c:2907:29
	ldr	r0, [sp, #12]                   @ 4-byte Reload
	ldr	r0, [r0]
.Ltmp529:
	.loc	1 2907 13 is_stmt 0             @ ../../../ThirdParty/mbedTLS/library/ssl_tls.c:2907:13
	cmp	r0, r5
	bhs	.LBB16_33
.Ltmp530:
@ %bb.30:
	@DEBUG_VALUE: mbedtls_ssl_fetch_input:ssl <- $r7
	@DEBUG_VALUE: mbedtls_ssl_fetch_input:nb_want <- $r5
	.loc	1 2918 13 is_stmt 1             @ ../../../ThirdParty/mbedTLS/library/ssl_tls.c:2918:13
	cbz	r0, .LBB16_34
.Ltmp531:
@ %bb.31:
	@DEBUG_VALUE: mbedtls_ssl_fetch_input:ssl <- $r7
	@DEBUG_VALUE: mbedtls_ssl_fetch_input:nb_want <- $r5
	.loc	1 2920 13                       @ ../../../ThirdParty/mbedTLS/library/ssl_tls.c:2920:13
	ldr	r0, __arm_cp.16_5
	str	r0, [sp]
	mov	r3, r6
	adds	r3, #79
.Ltmp532:
.LBB16_32:
	@DEBUG_VALUE: mbedtls_ssl_fetch_input:ssl <- $r7
	@DEBUG_VALUE: mbedtls_ssl_fetch_input:nb_want <- $r5
	.loc	1 0 13 is_stmt 0                @ ../../../ThirdParty/mbedTLS/library/ssl_tls.c:0:13
	movs	r1, #1
	ldr	r2, __arm_cp.16_1
	mov	r0, r7
	bl	mbedtls_debug_print_msg
	movs	r7, #0
.Ltmp533:
	ldr	r5, __arm_cp.16_6
.Ltmp534:
	b	.LBB16_52
.LBB16_33:
.Ltmp535:
	@DEBUG_VALUE: mbedtls_ssl_fetch_input:ssl <- $r7
	@DEBUG_VALUE: mbedtls_ssl_fetch_input:nb_want <- $r5
	.loc	1 2909 13 is_stmt 1             @ ../../../ThirdParty/mbedTLS/library/ssl_tls.c:2909:13
	ldr	r0, __arm_cp.16_8
	str	r0, [sp]
	mov	r3, r6
	adds	r3, #68
	movs	r1, #2
	ldr	r2, __arm_cp.16_1
	mov	r0, r7
	bl	mbedtls_debug_print_msg
	movs	r5, #0
.Ltmp536:
	.loc	1 0 13 is_stmt 0                @ ../../../ThirdParty/mbedTLS/library/ssl_tls.c:0:13
	mov	r7, r5
.Ltmp537:
	b	.LBB16_52
.Ltmp538:
.LBB16_34:
	@DEBUG_VALUE: mbedtls_ssl_fetch_input:ssl <- $r7
	@DEBUG_VALUE: mbedtls_ssl_fetch_input:nb_want <- $r5
	.loc	1 2929 13 is_stmt 1             @ ../../../ThirdParty/mbedTLS/library/ssl_tls.c:2929:13
	mov	r0, r7
	bl	ssl_check_timer
	ldr	r5, __arm_cp.16_9
.Ltmp539:
	.loc	1 2929 13 is_stmt 0             @ ../../../ThirdParty/mbedTLS/library/ssl_tls.c:2929:13
	cbz	r0, .LBB16_36
.Ltmp540:
@ %bb.35:
	@DEBUG_VALUE: mbedtls_ssl_fetch_input:ssl <- $r7
	.loc	1 2931 13 is_stmt 1             @ ../../../ThirdParty/mbedTLS/library/ssl_tls.c:2931:13
	adr	r0, .LCPI16_10
	str	r0, [sp]
	adds	r6, #90
	movs	r1, #2
	ldr	r2, __arm_cp.16_1
	mov	r0, r7
	mov	r3, r6
	bl	mbedtls_debug_print_msg
.Ltmp541:
	@DEBUG_VALUE: mbedtls_ssl_fetch_input:ret <- -26624
	.loc	1 0 0 is_stmt 0                 @ ../../../ThirdParty/mbedTLS/library/ssl_tls.c:0:0
	mov	r6, r5
	b	.LBB16_43
.Ltmp542:
.LBB16_36:
	@DEBUG_VALUE: mbedtls_ssl_fetch_input:ssl <- $r7
	.loc	1 2936 54 is_stmt 1             @ ../../../ThirdParty/mbedTLS/library/ssl_tls.c:2936:54
	ldr	r0, [r7, #100]
	.loc	1 2936 68 is_stmt 0             @ ../../../ThirdParty/mbedTLS/library/ssl_tls.c:2936:68
	ldr	r1, [r7, #92]
	.loc	1 2936 61                       @ ../../../ThirdParty/mbedTLS/library/ssl_tls.c:2936:61
	subs	r0, r1, r0
.Ltmp543:
	@DEBUG_VALUE: mbedtls_ssl_fetch_input:len <- undef
	.loc	1 2938 22 is_stmt 1             @ ../../../ThirdParty/mbedTLS/library/ssl_tls.c:2938:22
	ldr	r1, [r7, #4]
.Ltmp544:
	.loc	1 2938 17 is_stmt 0             @ ../../../ThirdParty/mbedTLS/library/ssl_tls.c:2938:17
	cmp	r1, #16
	bne	.LBB16_38
.Ltmp545:
@ %bb.37:
	@DEBUG_VALUE: mbedtls_ssl_fetch_input:ssl <- $r7
	.loc	1 2941 32 is_stmt 1             @ ../../../ThirdParty/mbedTLS/library/ssl_tls.c:2941:32
	ldr	r1, [r7]
	.loc	1 2941 38 is_stmt 0             @ ../../../ThirdParty/mbedTLS/library/ssl_tls.c:2941:38
	adds	r1, #136
.Ltmp546:
	@DEBUG_VALUE: timeout <- undef
	.loc	1 0 38                          @ ../../../ThirdParty/mbedTLS/library/ssl_tls.c:0:38
	b	.LBB16_39
.Ltmp547:
.LBB16_38:
	@DEBUG_VALUE: mbedtls_ssl_fetch_input:ssl <- $r7
	.loc	1 2939 32 is_stmt 1             @ ../../../ThirdParty/mbedTLS/library/ssl_tls.c:2939:32
	ldr	r1, [r7, #60]
	movw	r2, #492
	.loc	1 2939 43 is_stmt 0             @ ../../../ThirdParty/mbedTLS/library/ssl_tls.c:2939:43
	adds	r1, r1, r2
.Ltmp548:
	@DEBUG_VALUE: timeout <- undef
.LBB16_39:
	@DEBUG_VALUE: mbedtls_ssl_fetch_input:ssl <- $r7
	.loc	1 0 0                           @ ../../../ThirdParty/mbedTLS/library/ssl_tls.c:0:0
	adds	r4, r0, r4
.Ltmp549:
	@DEBUG_VALUE: mbedtls_ssl_fetch_input:len <- $r4
	ldr	r6, [r1]
.Ltmp550:
	@DEBUG_VALUE: timeout <- $r6
	.loc	1 2943 13 is_stmt 1             @ ../../../ThirdParty/mbedTLS/library/ssl_tls.c:2943:13
	adr	r0, .LCPI16_11
	str	r0, [sp]
	str	r6, [sp, #4]
	ldr	r3, __arm_cp.16_2
	adds	r3, #102
	movs	r1, #3
	ldr	r2, __arm_cp.16_1
	mov	r0, r7
	bl	mbedtls_debug_print_msg
	mov	r5, r7
.Ltmp551:
	.loc	1 2945 22                       @ ../../../ThirdParty/mbedTLS/library/ssl_tls.c:2945:22
	ldr	r7, [r7, #36]
.Ltmp552:
	.loc	1 2945 17 is_stmt 0             @ ../../../ThirdParty/mbedTLS/library/ssl_tls.c:2945:17
	cbz	r7, .LBB16_41
.Ltmp553:
@ %bb.40:
	@DEBUG_VALUE: timeout <- $r6
	@DEBUG_VALUE: mbedtls_ssl_fetch_input:len <- $r4
	.loc	1 2946 61 is_stmt 1             @ ../../../ThirdParty/mbedTLS/library/ssl_tls.c:2946:61
	ldr	r1, [r5, #100]
	.loc	1 2946 49 is_stmt 0             @ ../../../ThirdParty/mbedTLS/library/ssl_tls.c:2946:49
	ldr	r0, [r5, #40]
	.loc	1 2946 23                       @ ../../../ThirdParty/mbedTLS/library/ssl_tls.c:2946:23
	mov	r2, r4
	mov	r3, r6
	blx	r7
	b	.LBB16_42
.Ltmp554:
.LBB16_41:
	@DEBUG_VALUE: timeout <- $r6
