	.text
	.syntax unified
	.eabi_attribute	67, "2.09"	@ Tag_conformance
	.cpu	cortex-m23
	.eabi_attribute	6, 16	@ Tag_CPU_arch
	.eabi_attribute	7, 77	@ Tag_CPU_arch_profile
	.eabi_attribute	8, 0	@ Tag_ARM_ISA_use
	.eabi_attribute	9, 3	@ Tag_THUMB_ISA_use
	.eabi_attribute	34, 0	@ Tag_CPU_unaligned_access
	.eabi_attribute	17, 1	@ Tag_ABI_PCS_GOT_use
	.eabi_attribute	20, 2	@ Tag_ABI_FP_denormal
	.eabi_attribute	21, 0	@ Tag_ABI_FP_exceptions
	.eabi_attribute	23, 1	@ Tag_ABI_FP_number_model
	.eabi_attribute	24, 1	@ Tag_ABI_align_needed
	.eabi_attribute	25, 1	@ Tag_ABI_align_preserved
	.eabi_attribute	38, 1	@ Tag_ABI_FP_16bit_format
	.eabi_attribute	18, 2	@ Tag_ABI_PCS_wchar_t
	.eabi_attribute	26, 1	@ Tag_ABI_enum_size
	.eabi_attribute	14, 0	@ Tag_ABI_PCS_R9_use
	.file	"ssl_cli.c"
	.file	1 "C:\\Users\\shw26\\OneDrive\\Desktop\\2021\\2021-1\\\354\272\241\354\212\244\355\206\244\353\224\224\354\236\220\354\235\2702\\Nuvoton\\M2351_BSP_v3.00.004\\M2351Series_BSP_CMSIS_V3.00.004\\MyProject\\PulseMonitoring\\Secure" "../../../ThirdParty/mbedTLS/include/mbedtls/md.h"
	.file	2 "C:\\Users\\shw26\\OneDrive\\Desktop\\2021\\2021-1\\\354\272\241\354\212\244\355\206\244\353\224\224\354\236\220\354\235\2702\\Nuvoton\\M2351_BSP_v3.00.004\\M2351Series_BSP_CMSIS_V3.00.004\\MyProject\\PulseMonitoring\\Secure" "../../../ThirdParty/mbedTLS/include/mbedtls/pk.h"
	.file	3 "C:\\Users\\shw26\\OneDrive\\Desktop\\2021\\2021-1\\\354\272\241\354\212\244\355\206\244\353\224\224\354\236\220\354\235\2702\\Nuvoton\\M2351_BSP_v3.00.004\\M2351Series_BSP_CMSIS_V3.00.004\\MyProject\\PulseMonitoring\\Secure" "../../../ThirdParty/mbedTLS/include/mbedtls/ecp.h"
	.file	4 "C:\\Users\\shw26\\OneDrive\\Desktop\\2021\\2021-1\\\354\272\241\354\212\244\355\206\244\353\224\224\354\236\220\354\235\2702\\Nuvoton\\M2351_BSP_v3.00.004\\M2351Series_BSP_CMSIS_V3.00.004\\MyProject\\PulseMonitoring\\Secure" "../../../ThirdParty/mbedTLS/include/mbedtls/cipher.h"
	.file	5 "C:\\Users\\shw26\\OneDrive\\Desktop\\2021\\2021-1\\\354\272\241\354\212\244\355\206\244\353\224\224\354\236\220\354\235\2702\\Nuvoton\\M2351_BSP_v3.00.004\\M2351Series_BSP_CMSIS_V3.00.004\\MyProject\\PulseMonitoring\\Secure" "../../../ThirdParty/mbedTLS/include/mbedtls/ssl_ciphersuites.h"
	.file	6 "C:\\Users\\shw26\\OneDrive\\Desktop\\2021\\2021-1\\\354\272\241\354\212\244\355\206\244\353\224\224\354\236\220\354\235\2702\\Nuvoton\\M2351_BSP_v3.00.004\\M2351Series_BSP_CMSIS_V3.00.004\\MyProject\\PulseMonitoring\\Secure" "../../../ThirdParty/mbedTLS/include/mbedtls\\ssl.h"
	.file	7 "C:\\Users\\shw26\\OneDrive\\Desktop\\2021\\2021-1\\\354\272\241\354\212\244\355\206\244\353\224\224\354\236\220\354\235\2702\\Nuvoton\\M2351_BSP_v3.00.004\\M2351Series_BSP_CMSIS_V3.00.004\\MyProject\\PulseMonitoring\\Secure" "../../../ThirdParty/mbedTLS/include/mbedtls/ecdh.h"
	.file	8 "C:\\Users\\shw26\\OneDrive\\Desktop\\2021\\2021-1\\\354\272\241\354\212\244\355\206\244\353\224\224\354\236\220\354\235\2702\\Nuvoton\\M2351_BSP_v3.00.004\\M2351Series_BSP_CMSIS_V3.00.004\\MyProject\\PulseMonitoring\\Secure" "../../../ThirdParty/mbedTLS/include/mbedtls\\debug.h"
	.file	9 "C:\\" "Keil_v5\\ARM\\ARMCLANG\\Bin\\..\\include\\stdio.h"
	.file	10 "C:\\" "Keil_v5\\ARM\\ARMCLANG\\Bin\\..\\include\\stdint.h"
	.file	11 "C:\\Users\\shw26\\OneDrive\\Desktop\\2021\\2021-1\\\354\272\241\354\212\244\355\206\244\353\224\224\354\236\220\354\235\2702\\Nuvoton\\M2351_BSP_v3.00.004\\M2351Series_BSP_CMSIS_V3.00.004\\MyProject\\PulseMonitoring\\Secure" "../../../ThirdParty/mbedTLS/include/mbedtls/bignum.h"
	.section	.text.mbedtls_ssl_handshake_client_step,"ax",%progbits
	.hidden	mbedtls_ssl_handshake_client_step @ -- Begin function mbedtls_ssl_handshake_client_step
	.globl	mbedtls_ssl_handshake_client_step
	.p2align	2
	.type	mbedtls_ssl_handshake_client_step,%function
	.code	16                              @ @mbedtls_ssl_handshake_client_step
	.thumb_func
mbedtls_ssl_handshake_client_step:
.Lfunc_begin0:
	.file	12 "C:\\Users\\shw26\\OneDrive\\Desktop\\2021\\2021-1\\\354\272\241\354\212\244\355\206\244\353\224\224\354\236\220\354\235\2702\\Nuvoton\\M2351_BSP_v3.00.004\\M2351Series_BSP_CMSIS_V3.00.004\\MyProject\\PulseMonitoring\\Secure" "../../../ThirdParty/mbedTLS/library/ssl_cli.c"
	.loc	12 3812 0                       @ ../../../ThirdParty/mbedTLS/library/ssl_cli.c:3812:0
	.fnstart
	.cfi_sections .debug_frame
	.cfi_startproc
@ %bb.0:
	@DEBUG_VALUE: mbedtls_ssl_handshake_client_step:ssl <- $r0
	.save	{r4, r5, r6, lr}
	push	{r4, r5, r6, lr}
	.cfi_def_cfa_offset 16
	.cfi_offset lr, -4
	.cfi_offset r6, -8
	.cfi_offset r5, -12
	.cfi_offset r4, -16
	.pad	#8
	sub	sp, #8
	.cfi_def_cfa_offset 24
	mov	r4, r0
.Ltmp0:
	@DEBUG_VALUE: mbedtls_ssl_handshake_client_step:ret <- 0
	@DEBUG_VALUE: mbedtls_ssl_handshake_client_step:ssl <- $r4
	.loc	12 3815 14 prologue_end         @ ../../../ThirdParty/mbedTLS/library/ssl_cli.c:3815:14
	ldr	r0, [r0, #4]
	ldr	r6, __arm_cp.0_0
	.loc	12 3815 50 is_stmt 0            @ ../../../ThirdParty/mbedTLS/library/ssl_cli.c:3815:50
	cmp	r0, #16
	bne	.LBB0_1
	b	.LBB0_32
.Ltmp1:
.LBB0_1:
	@DEBUG_VALUE: mbedtls_ssl_handshake_client_step:ssl <- $r4
	@DEBUG_VALUE: mbedtls_ssl_handshake_client_step:ret <- 0
	.loc	12 3815 58                      @ ../../../ThirdParty/mbedTLS/library/ssl_cli.c:3815:58
	ldr	r1, [r4, #60]
.Ltmp2:
	.loc	12 3815 9                       @ ../../../ThirdParty/mbedTLS/library/ssl_cli.c:3815:9
	cmp	r1, #0
	bne	.LBB0_2
	b	.LBB0_32
.Ltmp3:
.LBB0_2:
	@DEBUG_VALUE: mbedtls_ssl_handshake_client_step:ssl <- $r4
	@DEBUG_VALUE: mbedtls_ssl_handshake_client_step:ret <- 0
	.loc	12 3818 5 is_stmt 1             @ ../../../ThirdParty/mbedTLS/library/ssl_cli.c:3818:5
	adr	r1, .LCPI0_1
	str	r1, [sp]
	str	r0, [sp, #4]
	movs	r1, #2
	ldr	r2, __arm_cp.0_2
	ldr	r5, __arm_cp.0_3
	mov	r0, r4
	mov	r3, r5
	bl	mbedtls_debug_print_msg
.Ltmp4:
	.loc	12 3820 17                      @ ../../../ThirdParty/mbedTLS/library/ssl_cli.c:3820:17
	mov	r0, r4
	bl	mbedtls_ssl_flush_output
.Ltmp5:
	@DEBUG_VALUE: mbedtls_ssl_handshake_client_step:ret <- $r0
	.loc	12 3820 9 is_stmt 0             @ ../../../ThirdParty/mbedTLS/library/ssl_cli.c:3820:9
	cbz	r0, .LBB0_4
.Ltmp6:
.LBB0_3:
	@DEBUG_VALUE: mbedtls_ssl_handshake_client_step:ssl <- $r4
	@DEBUG_VALUE: mbedtls_ssl_handshake_client_step:ret <- $r0
	.loc	12 3943 1 is_stmt 1             @ ../../../ThirdParty/mbedTLS/library/ssl_cli.c:3943:1
	add	sp, #8
	pop	{r4, r5, r6, pc}
.Ltmp7:
.LBB0_4:
	@DEBUG_VALUE: mbedtls_ssl_handshake_client_step:ssl <- $r4
	@DEBUG_VALUE: mbedtls_ssl_handshake_client_step:ret <- $r0
	.loc	12 3824 14                      @ ../../../ThirdParty/mbedTLS/library/ssl_cli.c:3824:14
	ldr	r0, [r4]
.Ltmp8:
	.loc	12 0 14 is_stmt 0               @ ../../../ThirdParty/mbedTLS/library/ssl_cli.c:0:14
	movs	r1, #172
	.loc	12 3824 20                      @ ../../../ThirdParty/mbedTLS/library/ssl_cli.c:3824:20
	ldrh	r0, [r0, r1]
	.loc	12 3824 64                      @ ../../../ThirdParty/mbedTLS/library/ssl_cli.c:3824:64
	lsls	r0, r0, #30
	bpl	.LBB0_7
.Ltmp9:
@ %bb.5:
	@DEBUG_VALUE: mbedtls_ssl_handshake_client_step:ssl <- $r4
	.loc	12 3825 18 is_stmt 1            @ ../../../ThirdParty/mbedTLS/library/ssl_cli.c:3825:18
	ldr	r0, [r4, #60]
	movw	r1, #496
	.loc	12 3825 29 is_stmt 0            @ ../../../ThirdParty/mbedTLS/library/ssl_cli.c:3825:29
	ldrb	r0, [r0, r1]
.Ltmp10:
	.loc	12 3824 9 is_stmt 1             @ ../../../ThirdParty/mbedTLS/library/ssl_cli.c:3824:9
	cmp	r0, #1
	bne	.LBB0_7
.Ltmp11:
@ %bb.6:
	@DEBUG_VALUE: mbedtls_ssl_handshake_client_step:ssl <- $r4
	.loc	12 3827 21                      @ ../../../ThirdParty/mbedTLS/library/ssl_cli.c:3827:21
	mov	r0, r4
	bl	mbedtls_ssl_flight_transmit
.Ltmp12:
	@DEBUG_VALUE: mbedtls_ssl_handshake_client_step:ret <- $r0
	.loc	12 3827 13 is_stmt 0            @ ../../../ThirdParty/mbedTLS/library/ssl_cli.c:3827:13
	cmp	r0, #0
	bne	.LBB0_3
.Ltmp13:
.LBB0_7:
	@DEBUG_VALUE: mbedtls_ssl_handshake_client_step:ssl <- $r4
	@DEBUG_VALUE: mbedtls_ssl_handshake_client_step:ret <- 0
	.loc	12 3835 14 is_stmt 1            @ ../../../ThirdParty/mbedTLS/library/ssl_cli.c:3835:14
	ldr	r0, [r4, #4]
	.loc	12 3835 61 is_stmt 0            @ ../../../ThirdParty/mbedTLS/library/ssl_cli.c:3835:61
	cmp	r0, #12
	bne	.LBB0_10
.Ltmp14:
@ %bb.8:
	@DEBUG_VALUE: mbedtls_ssl_handshake_client_step:ssl <- $r4
	@DEBUG_VALUE: mbedtls_ssl_handshake_client_step:ret <- 0
	.loc	12 3836 18 is_stmt 1            @ ../../../ThirdParty/mbedTLS/library/ssl_cli.c:3836:18
	ldr	r0, [r4, #60]
	ldr	r1, __arm_cp.0_4
	.loc	12 3836 29 is_stmt 0            @ ../../../ThirdParty/mbedTLS/library/ssl_cli.c:3836:29
	ldr	r0, [r0, r1]
.Ltmp15:
	.loc	12 3835 9 is_stmt 1             @ ../../../ThirdParty/mbedTLS/library/ssl_cli.c:3835:9
	cbz	r0, .LBB0_10
.Ltmp16:
@ %bb.9:
	@DEBUG_VALUE: mbedtls_ssl_handshake_client_step:ssl <- $r4
	@DEBUG_VALUE: mbedtls_ssl_handshake_client_step:ret <- 0
	.loc	12 0 9 is_stmt 0                @ ../../../ThirdParty/mbedTLS/library/ssl_cli.c:0:9
	movs	r0, #17
.Ltmp17:
	.loc	12 3838 20 is_stmt 1            @ ../../../ThirdParty/mbedTLS/library/ssl_cli.c:3838:20
	str	r0, [r4, #4]
.Ltmp18:
.LBB0_10:
	@DEBUG_VALUE: mbedtls_ssl_handshake_client_step:ssl <- $r4
	@DEBUG_VALUE: mbedtls_ssl_handshake_client_step:ret <- 0
	.loc	12 3842 18                      @ ../../../ThirdParty/mbedTLS/library/ssl_cli.c:3842:18
	ldr	r0, [r4, #4]
	.loc	12 3842 5 is_stmt 0             @ ../../../ThirdParty/mbedTLS/library/ssl_cli.c:3842:5
	cmp	r0, #17
	bhi	.LBB0_31
.Ltmp19:
@ %bb.11:
	@DEBUG_VALUE: mbedtls_ssl_handshake_client_step:ssl <- $r4
	@DEBUG_VALUE: mbedtls_ssl_handshake_client_step:ret <- 0
	.loc	12 0 5                          @ ../../../ThirdParty/mbedTLS/library/ssl_cli.c:0:5
	lsls	r1, r0, #2
	adr	r2, .LJTI0_0
	adds	r1, r2, r1
	mov	pc, r1
.Ltmp20:
@ %bb.12:
	.p2align	2
.LJTI0_0:
	b.w	.LBB0_13
	b.w	.LBB0_14
	b.w	.LBB0_15
	b.w	.LBB0_16
	b.w	.LBB0_17
	b.w	.LBB0_18
	b.w	.LBB0_19
	b.w	.LBB0_20
	b.w	.LBB0_21
	b.w	.LBB0_22
	b.w	.LBB0_23
	b.w	.LBB0_24
	b.w	.LBB0_25
	b.w	.LBB0_26
	b.w	.LBB0_27
	b.w	.LBB0_29
	b.w	.LBB0_31
	b.w	.LBB0_33
.LBB0_13:
.Ltmp21:
	@DEBUG_VALUE: mbedtls_ssl_handshake_client_step:ssl <- $r4
	@DEBUG_VALUE: mbedtls_ssl_handshake_client_step:ret <- 0
	movs	r0, #1
	b	.LBB0_28
.Ltmp22:
.LBB0_14:
	@DEBUG_VALUE: mbedtls_ssl_handshake_client_step:ssl <- $r4
	@DEBUG_VALUE: mbedtls_ssl_handshake_client_step:ret <- 0
	.loc	12 3852 15 is_stmt 1            @ ../../../ThirdParty/mbedTLS/library/ssl_cli.c:3852:15
	mov	r0, r4
	bl	ssl_write_client_hello
.Ltmp23:
	@DEBUG_VALUE: mbedtls_ssl_handshake_client_step:ret <- $r0
	.loc	12 3943 1                       @ ../../../ThirdParty/mbedTLS/library/ssl_cli.c:3943:1
	add	sp, #8
	pop	{r4, r5, r6, pc}
.Ltmp24:
.LBB0_15:
	@DEBUG_VALUE: mbedtls_ssl_handshake_client_step:ssl <- $r4
	@DEBUG_VALUE: mbedtls_ssl_handshake_client_step:ret <- 0
	.loc	12 3863 15                      @ ../../../ThirdParty/mbedTLS/library/ssl_cli.c:3863:15
	mov	r0, r4
	bl	ssl_parse_server_hello
.Ltmp25:
	@DEBUG_VALUE: mbedtls_ssl_handshake_client_step:ret <- $r0
	.loc	12 3943 1                       @ ../../../ThirdParty/mbedTLS/library/ssl_cli.c:3943:1
	add	sp, #8
	pop	{r4, r5, r6, pc}
.Ltmp26:
.LBB0_16:
	@DEBUG_VALUE: mbedtls_ssl_handshake_client_step:ssl <- $r4
	@DEBUG_VALUE: mbedtls_ssl_handshake_client_step:ret <- 0
	.loc	12 3867 15                      @ ../../../ThirdParty/mbedTLS/library/ssl_cli.c:3867:15
	mov	r0, r4
	bl	mbedtls_ssl_parse_certificate
.Ltmp27:
	@DEBUG_VALUE: mbedtls_ssl_handshake_client_step:ret <- $r0
	.loc	12 3943 1                       @ ../../../ThirdParty/mbedTLS/library/ssl_cli.c:3943:1
	add	sp, #8
	pop	{r4, r5, r6, pc}
.Ltmp28:
.LBB0_17:
	@DEBUG_VALUE: mbedtls_ssl_handshake_client_step:ssl <- $r4
	@DEBUG_VALUE: mbedtls_ssl_handshake_client_step:ret <- 0
	.loc	12 3871 15                      @ ../../../ThirdParty/mbedTLS/library/ssl_cli.c:3871:15
	mov	r0, r4
	bl	ssl_parse_server_key_exchange
.Ltmp29:
	@DEBUG_VALUE: mbedtls_ssl_handshake_client_step:ret <- $r0
	.loc	12 3943 1                       @ ../../../ThirdParty/mbedTLS/library/ssl_cli.c:3943:1
	add	sp, #8
	pop	{r4, r5, r6, pc}
.Ltmp30:
.LBB0_18:
	@DEBUG_VALUE: mbedtls_ssl_handshake_client_step:ssl <- $r4
	@DEBUG_VALUE: mbedtls_ssl_handshake_client_step:ret <- 0
	.loc	12 3875 15                      @ ../../../ThirdParty/mbedTLS/library/ssl_cli.c:3875:15
	mov	r0, r4
	bl	ssl_parse_certificate_request
.Ltmp31:
	@DEBUG_VALUE: mbedtls_ssl_handshake_client_step:ret <- $r0
	.loc	12 3943 1                       @ ../../../ThirdParty/mbedTLS/library/ssl_cli.c:3943:1
	add	sp, #8
	pop	{r4, r5, r6, pc}
.Ltmp32:
.LBB0_19:
	@DEBUG_VALUE: mbedtls_ssl_handshake_client_step:ssl <- $r4
	@DEBUG_VALUE: mbedtls_ssl_handshake_client_step:ret <- 0
	.loc	12 3879 15                      @ ../../../ThirdParty/mbedTLS/library/ssl_cli.c:3879:15
	mov	r0, r4
	bl	ssl_parse_server_hello_done
.Ltmp33:
	@DEBUG_VALUE: mbedtls_ssl_handshake_client_step:ret <- $r0
	.loc	12 3943 1                       @ ../../../ThirdParty/mbedTLS/library/ssl_cli.c:3943:1
	add	sp, #8
	pop	{r4, r5, r6, pc}
.Ltmp34:
.LBB0_20:
	@DEBUG_VALUE: mbedtls_ssl_handshake_client_step:ssl <- $r4
	@DEBUG_VALUE: mbedtls_ssl_handshake_client_step:ret <- 0
	.loc	12 3890 15                      @ ../../../ThirdParty/mbedTLS/library/ssl_cli.c:3890:15
	mov	r0, r4
	bl	mbedtls_ssl_write_certificate
.Ltmp35:
	@DEBUG_VALUE: mbedtls_ssl_handshake_client_step:ret <- $r0
	.loc	12 3943 1                       @ ../../../ThirdParty/mbedTLS/library/ssl_cli.c:3943:1
	add	sp, #8
	pop	{r4, r5, r6, pc}
.Ltmp36:
.LBB0_21:
	@DEBUG_VALUE: mbedtls_ssl_handshake_client_step:ssl <- $r4
	@DEBUG_VALUE: mbedtls_ssl_handshake_client_step:ret <- 0
	.loc	12 3894 15                      @ ../../../ThirdParty/mbedTLS/library/ssl_cli.c:3894:15
	mov	r0, r4
	bl	ssl_write_client_key_exchange
.Ltmp37:
	@DEBUG_VALUE: mbedtls_ssl_handshake_client_step:ret <- $r0
	.loc	12 3943 1                       @ ../../../ThirdParty/mbedTLS/library/ssl_cli.c:3943:1
	add	sp, #8
	pop	{r4, r5, r6, pc}
.Ltmp38:
.LBB0_22:
	@DEBUG_VALUE: mbedtls_ssl_handshake_client_step:ssl <- $r4
	@DEBUG_VALUE: mbedtls_ssl_handshake_client_step:ret <- 0
	.loc	12 3898 15                      @ ../../../ThirdParty/mbedTLS/library/ssl_cli.c:3898:15
	mov	r0, r4
	bl	ssl_write_certificate_verify
.Ltmp39:
	@DEBUG_VALUE: mbedtls_ssl_handshake_client_step:ret <- $r0
	.loc	12 3943 1                       @ ../../../ThirdParty/mbedTLS/library/ssl_cli.c:3943:1
	add	sp, #8
	pop	{r4, r5, r6, pc}
.Ltmp40:
.LBB0_23:
	@DEBUG_VALUE: mbedtls_ssl_handshake_client_step:ssl <- $r4
	@DEBUG_VALUE: mbedtls_ssl_handshake_client_step:ret <- 0
	.loc	12 3902 15                      @ ../../../ThirdParty/mbedTLS/library/ssl_cli.c:3902:15
	mov	r0, r4
	bl	mbedtls_ssl_write_change_cipher_spec
.Ltmp41:
	@DEBUG_VALUE: mbedtls_ssl_handshake_client_step:ret <- $r0
	.loc	12 3943 1                       @ ../../../ThirdParty/mbedTLS/library/ssl_cli.c:3943:1
	add	sp, #8
	pop	{r4, r5, r6, pc}
.Ltmp42:
.LBB0_24:
	@DEBUG_VALUE: mbedtls_ssl_handshake_client_step:ssl <- $r4
	@DEBUG_VALUE: mbedtls_ssl_handshake_client_step:ret <- 0
	.loc	12 3906 15                      @ ../../../ThirdParty/mbedTLS/library/ssl_cli.c:3906:15
	mov	r0, r4
	bl	mbedtls_ssl_write_finished
.Ltmp43:
	@DEBUG_VALUE: mbedtls_ssl_handshake_client_step:ret <- $r0
	.loc	12 3943 1                       @ ../../../ThirdParty/mbedTLS/library/ssl_cli.c:3943:1
	add	sp, #8
	pop	{r4, r5, r6, pc}
.Ltmp44:
.LBB0_25:
	@DEBUG_VALUE: mbedtls_ssl_handshake_client_step:ssl <- $r4
	@DEBUG_VALUE: mbedtls_ssl_handshake_client_step:ret <- 0
	.loc	12 3921 15                      @ ../../../ThirdParty/mbedTLS/library/ssl_cli.c:3921:15
	mov	r0, r4
	bl	mbedtls_ssl_parse_change_cipher_spec
.Ltmp45:
	@DEBUG_VALUE: mbedtls_ssl_handshake_client_step:ret <- $r0
	.loc	12 3943 1                       @ ../../../ThirdParty/mbedTLS/library/ssl_cli.c:3943:1
	add	sp, #8
	pop	{r4, r5, r6, pc}
.Ltmp46:
.LBB0_26:
	@DEBUG_VALUE: mbedtls_ssl_handshake_client_step:ssl <- $r4
	@DEBUG_VALUE: mbedtls_ssl_handshake_client_step:ret <- 0
	.loc	12 3925 15                      @ ../../../ThirdParty/mbedTLS/library/ssl_cli.c:3925:15
	mov	r0, r4
	bl	mbedtls_ssl_parse_finished
.Ltmp47:
	@DEBUG_VALUE: mbedtls_ssl_handshake_client_step:ret <- $r0
	.loc	12 3943 1                       @ ../../../ThirdParty/mbedTLS/library/ssl_cli.c:3943:1
	add	sp, #8
	pop	{r4, r5, r6, pc}
.Ltmp48:
.LBB0_27:
	@DEBUG_VALUE: mbedtls_ssl_handshake_client_step:ssl <- $r4
	@DEBUG_VALUE: mbedtls_ssl_handshake_client_step:ret <- 0
	.loc	12 3929 9                       @ ../../../ThirdParty/mbedTLS/library/ssl_cli.c:3929:9
	adr	r0, .LCPI0_5
	str	r0, [sp]
	adds	r5, #111
	movs	r1, #2
	ldr	r2, __arm_cp.0_2
	mov	r0, r4
	mov	r3, r5
	bl	mbedtls_debug_print_msg
	movs	r0, #15
.Ltmp49:
.LBB0_28:
	@DEBUG_VALUE: mbedtls_ssl_handshake_client_step:ssl <- $r4
	@DEBUG_VALUE: mbedtls_ssl_handshake_client_step:ret <- 0
	.loc	12 0 0 is_stmt 0                @ ../../../ThirdParty/mbedTLS/library/ssl_cli.c:0:0
	str	r0, [r4, #4]
	b	.LBB0_30
.Ltmp50:
.LBB0_29:
	@DEBUG_VALUE: mbedtls_ssl_handshake_client_step:ssl <- $r4
	@DEBUG_VALUE: mbedtls_ssl_handshake_client_step:ret <- 0
	.loc	12 3934 9 is_stmt 1             @ ../../../ThirdParty/mbedTLS/library/ssl_cli.c:3934:9
	mov	r0, r4
	bl	mbedtls_ssl_handshake_wrapup
.Ltmp51:
.LBB0_30:
	@DEBUG_VALUE: mbedtls_ssl_handshake_client_step:ssl <- $r4
	@DEBUG_VALUE: mbedtls_ssl_handshake_client_step:ret <- 0
	.loc	12 0 9 is_stmt 0                @ ../../../ThirdParty/mbedTLS/library/ssl_cli.c:0:9
	movs	r0, #0
	.loc	12 3943 1 is_stmt 1             @ ../../../ThirdParty/mbedTLS/library/ssl_cli.c:3943:1
	add	sp, #8
	pop	{r4, r5, r6, pc}
.Ltmp52:
.LBB0_31:
	@DEBUG_VALUE: mbedtls_ssl_handshake_client_step:ssl <- $r4
	@DEBUG_VALUE: mbedtls_ssl_handshake_client_step:ret <- 0
	.loc	12 3938 9                       @ ../../../ThirdParty/mbedTLS/library/ssl_cli.c:3938:9
	adr	r1, .LCPI0_6
	str	r1, [sp]
	str	r0, [sp, #4]
	adds	r5, #120
	movs	r1, #1
	ldr	r2, __arm_cp.0_2
	mov	r0, r4
	mov	r3, r5
	bl	mbedtls_debug_print_msg
.Ltmp53:
.LBB0_32:
	@DEBUG_VALUE: mbedtls_ssl_handshake_client_step:ssl <- $r4
	@DEBUG_VALUE: mbedtls_ssl_handshake_client_step:ret <- 0
	.loc	12 0 0 is_stmt 0                @ ../../../ThirdParty/mbedTLS/library/ssl_cli.c:0:0
	mov	r0, r6
	.loc	12 3943 1 is_stmt 1             @ ../../../ThirdParty/mbedTLS/library/ssl_cli.c:3943:1
	add	sp, #8
	pop	{r4, r5, r6, pc}
.Ltmp54:
.LBB0_33:
	@DEBUG_VALUE: mbedtls_ssl_handshake_client_step:ssl <- $r4
	@DEBUG_VALUE: mbedtls_ssl_handshake_client_step:ret <- 0
	.loc	12 3916 15                      @ ../../../ThirdParty/mbedTLS/library/ssl_cli.c:3916:15
	mov	r0, r4
	bl	ssl_parse_new_session_ticket
.Ltmp55:
	@DEBUG_VALUE: mbedtls_ssl_handshake_client_step:ret <- $r0
	.loc	12 3943 1                       @ ../../../ThirdParty/mbedTLS/library/ssl_cli.c:3943:1
	add	sp, #8
	pop	{r4, r5, r6, pc}
.Ltmp56:
	.p2align	2
@ %bb.34:
	.loc	12 0 1 is_stmt 0                @ ../../../ThirdParty/mbedTLS/library/ssl_cli.c:0:1
__arm_cp.0_0:
	.long	4294938368                      @ 0xffff8f00
.Lcpi_end0:
	.size	__arm_cp.0_0, .Lcpi_end0-__arm_cp.0_0
.LCPI0_1:
.L.str.1:
	.asciz	"client state: %d\000\000\000"
__arm_cp.0_2:
	.long	.L.str
.Lcpi_end1:
	.size	__arm_cp.0_2, .Lcpi_end1-__arm_cp.0_2
__arm_cp.0_3:
	.long	3818                            @ 0xeea
.Lcpi_end2:
	.size	__arm_cp.0_3, .Lcpi_end2-__arm_cp.0_3
__arm_cp.0_4:
	.long	2264                            @ 0x8d8
.Lcpi_end3:
	.size	__arm_cp.0_4, .Lcpi_end3-__arm_cp.0_4
.LCPI0_5:
.L.str.2:
	.asciz	"handshake: done"
.LCPI0_6:
.L.str.3:
	.asciz	"invalid state %d\000\000\000"
.Lfunc_end0:
	.size	mbedtls_ssl_handshake_client_step, .Lfunc_end0-mbedtls_ssl_handshake_client_step
	.cfi_endproc
	.cantunwind
	.fnend
                                        @ -- End function
	.section	.text.ssl_write_client_hello,"ax",%progbits
	.p2align	2                               @ -- Begin function ssl_write_client_hello
	.type	ssl_write_client_hello,%function
	.code	16                              @ @ssl_write_client_hello
	.thumb_func
ssl_write_client_hello:
.Lfunc_begin1:
	.loc	12 812 0 is_stmt 1              @ ../../../ThirdParty/mbedTLS/library/ssl_cli.c:812:0
	.fnstart
	.cfi_startproc
@ %bb.0:
	@DEBUG_VALUE: ssl_write_client_hello:ssl <- $r0
	.save	{r4, r5, r6, r7, lr}
	push	{r4, r5, r6, r7, lr}
	.cfi_def_cfa_offset 20
	.cfi_offset lr, -4
	.cfi_offset r7, -8
	.cfi_offset r6, -12
	.cfi_offset r5, -16
	.cfi_offset r4, -20
	.pad	#52
	sub	sp, #52
	.cfi_def_cfa_offset 72
	mov	r5, r0
.Ltmp57:
	@DEBUG_VALUE: ssl_write_client_hello:uses_ec <- 0
	@DEBUG_VALUE: ssl_write_client_hello:ext_len <- 0
	@DEBUG_VALUE: ssl_write_client_hello:ssl <- $r5
	.loc	12 825 5 prologue_end           @ ../../../ThirdParty/mbedTLS/library/ssl_cli.c:825:5
	adr	r0, .LCPI1_39
	str	r0, [sp]
	movs	r1, #2
	ldr	r2, .LCPI1_28
	ldr	r6, .LCPI1_29
	mov	r0, r5
	mov	r3, r6
	bl	mbedtls_debug_print_msg
.Ltmp58:
	.loc	12 827 14                       @ ../../../ThirdParty/mbedTLS/library/ssl_cli.c:827:14
	ldr	r2, [r5]
	.loc	12 827 20 is_stmt 0             @ ../../../ThirdParty/mbedTLS/library/ssl_cli.c:827:20
	ldr	r0, [r2, #24]
.Ltmp59:
	.loc	12 827 9                        @ ../../../ThirdParty/mbedTLS/library/ssl_cli.c:827:9
	cbz	r0, .LBB1_6
.Ltmp60:
@ %bb.1:
	@DEBUG_VALUE: ssl_write_client_hello:ssl <- $r5
	@DEBUG_VALUE: ssl_write_client_hello:ext_len <- 0
	@DEBUG_VALUE: ssl_write_client_hello:uses_ec <- 0
	.loc	12 0 0                          @ ../../../ThirdParty/mbedTLS/library/ssl_cli.c:0:0
	adds	r2, #168
.Ltmp61:
	.loc	12 834 14 is_stmt 1             @ ../../../ThirdParty/mbedTLS/library/ssl_cli.c:834:14
	ldr	r0, [r5, #8]
.Ltmp62:
	.loc	12 834 9 is_stmt 0              @ ../../../ThirdParty/mbedTLS/library/ssl_cli.c:834:9
	cbnz	r0, .LBB1_3
.Ltmp63:
@ %bb.2:
	@DEBUG_VALUE: ssl_write_client_hello:ssl <- $r5
	@DEBUG_VALUE: ssl_write_client_hello:ext_len <- 0
	@DEBUG_VALUE: ssl_write_client_hello:uses_ec <- 0
	.loc	12 837 37 is_stmt 1             @ ../../../ThirdParty/mbedTLS/library/ssl_cli.c:837:37
	ldrb	r0, [r2, #2]
	.loc	12 837 24 is_stmt 0             @ ../../../ThirdParty/mbedTLS/library/ssl_cli.c:837:24
	str	r0, [r5, #16]
	.loc	12 838 37 is_stmt 1             @ ../../../ThirdParty/mbedTLS/library/ssl_cli.c:838:37
	ldrb	r0, [r2, #3]
	.loc	12 838 24 is_stmt 0             @ ../../../ThirdParty/mbedTLS/library/ssl_cli.c:838:24
	str	r0, [r5, #20]
.Ltmp64:
.LBB1_3:
	@DEBUG_VALUE: ssl_write_client_hello:ssl <- $r5
	@DEBUG_VALUE: ssl_write_client_hello:ext_len <- 0
	@DEBUG_VALUE: ssl_write_client_hello:uses_ec <- 0
	.loc	12 841 20 is_stmt 1             @ ../../../ThirdParty/mbedTLS/library/ssl_cli.c:841:20
	ldrb	r0, [r2]
.Ltmp65:
	.loc	12 841 9 is_stmt 0              @ ../../../ThirdParty/mbedTLS/library/ssl_cli.c:841:9
	cbz	r0, .LBB1_7
.Ltmp66:
@ %bb.4:
	@DEBUG_VALUE: ssl_write_client_hello:ssl <- $r5
	@DEBUG_VALUE: ssl_write_client_hello:ext_len <- 0
	@DEBUG_VALUE: ssl_write_client_hello:uses_ec <- 0
	.loc	12 0 9                          @ ../../../ThirdParty/mbedTLS/library/ssl_cli.c:0:9
	mov	r4, r5
	adds	r4, #196
	.loc	12 858 69 is_stmt 1             @ ../../../ThirdParty/mbedTLS/library/ssl_cli.c:858:69
	ldrb	r1, [r2, #1]
	.loc	12 859 43                       @ ../../../ThirdParty/mbedTLS/library/ssl_cli.c:859:43
	ldrh	r2, [r2, #4]
	.loc	12 855 16                       @ ../../../ThirdParty/mbedTLS/library/ssl_cli.c:855:16
	ldr	r7, [r4]
.Ltmp67:
	@DEBUG_VALUE: ssl_write_client_hello:buf <- $r7
	.loc	12 856 13                       @ ../../../ThirdParty/mbedTLS/library/ssl_cli.c:856:13
	adds	r3, r7, #4
.Ltmp68:
	@DEBUG_VALUE: ssl_write_client_hello:p <- $r3
	.loc	12 859 43                       @ ../../../ThirdParty/mbedTLS/library/ssl_cli.c:859:43
	lsls	r2, r2, #30
	lsrs	r2, r2, #31
	.loc	12 858 5                        @ ../../../ThirdParty/mbedTLS/library/ssl_cli.c:858:5
	bl	mbedtls_ssl_write_version
.Ltmp69:
	.loc	12 862 5                        @ ../../../ThirdParty/mbedTLS/library/ssl_cli.c:862:5
	ldrb	r0, [r7, #4]
	ldrb	r1, [r7, #5]
	adr	r2, .LCPI1_30
	str	r2, [sp]
	str	r0, [sp, #4]
	str	r1, [sp, #8]
	mov	r3, r6
	adds	r3, #38
	movs	r1, #3
	ldr	r2, .LCPI1_28
	mov	r0, r5
	bl	mbedtls_debug_print_msg
.Ltmp70:
	@DEBUG_VALUE: ssl_write_client_hello:p <- undef
	.loc	12 0 5 is_stmt 0                @ ../../../ThirdParty/mbedTLS/library/ssl_cli.c:0:5
	str	r5, [sp, #32]                   @ 4-byte Spill
.Ltmp71:
	@DEBUG_VALUE: ssl_write_client_hello:ssl <- [DW_OP_plus_uconst 32] [$sp+0]
	.loc	12 865 17 is_stmt 1             @ ../../../ThirdParty/mbedTLS/library/ssl_cli.c:865:17
	mov	r0, r5
	bl	ssl_generate_random
.Ltmp72:
	@DEBUG_VALUE: ssl_write_client_hello:ret <- $r0
	.loc	12 865 9 is_stmt 0              @ ../../../ThirdParty/mbedTLS/library/ssl_cli.c:865:9
	cbz	r0, .LBB1_8
.Ltmp73:
@ %bb.5:
	@DEBUG_VALUE: ssl_write_client_hello:ssl <- [DW_OP_plus_uconst 32] [$sp+0]
	@DEBUG_VALUE: ssl_write_client_hello:buf <- $r7
	@DEBUG_VALUE: ssl_write_client_hello:ret <- $r0
	@DEBUG_VALUE: ssl_write_client_hello:ext_len <- 0
	@DEBUG_VALUE: ssl_write_client_hello:uses_ec <- 0
	.loc	12 0 0                          @ ../../../ThirdParty/mbedTLS/library/ssl_cli.c:0:0
	mov	r5, r0
.Ltmp74:
	@DEBUG_VALUE: ssl_write_client_hello:ret <- $r5
	.loc	12 867 9 is_stmt 1              @ ../../../ThirdParty/mbedTLS/library/ssl_cli.c:867:9
	adr	r0, .LCPI1_31
	str	r0, [sp]
	str	r5, [sp, #4]
	adds	r6, #42
	movs	r1, #1
	ldr	r2, .LCPI1_28
	ldr	r0, [sp, #32]                   @ 4-byte Reload
.Ltmp75:
	@DEBUG_VALUE: ssl_write_client_hello:ssl <- $r0
	mov	r3, r6
	bl	mbedtls_debug_print_ret
.Ltmp76:
	.loc	12 868 9                        @ ../../../ThirdParty/mbedTLS/library/ssl_cli.c:868:9
	b	.LBB1_64
.Ltmp77:
.LBB1_6:
	@DEBUG_VALUE: ssl_write_client_hello:ssl <- $r5
	@DEBUG_VALUE: ssl_write_client_hello:ext_len <- 0
	@DEBUG_VALUE: ssl_write_client_hello:uses_ec <- 0
	.loc	12 829 9                        @ ../../../ThirdParty/mbedTLS/library/ssl_cli.c:829:9
	ldr	r0, __arm_cp.1_32
	str	r0, [sp]
	adds	r3, r6, #4
	movs	r1, #1
	ldr	r2, .LCPI1_28
	mov	r0, r5
	bl	mbedtls_debug_print_msg
	ldr	r5, __arm_cp.1_33
.Ltmp78:
	.loc	12 830 9                        @ ../../../ThirdParty/mbedTLS/library/ssl_cli.c:830:9
	b	.LBB1_64
.Ltmp79:
.LBB1_7:
	@DEBUG_VALUE: ssl_write_client_hello:ssl <- $r5
	@DEBUG_VALUE: ssl_write_client_hello:ext_len <- 0
	@DEBUG_VALUE: ssl_write_client_hello:uses_ec <- 0
	.loc	12 843 9                        @ ../../../ThirdParty/mbedTLS/library/ssl_cli.c:843:9
	ldr	r0, __arm_cp.1_34
	str	r0, [sp]
	adds	r6, #19
	movs	r1, #1
	ldr	r2, .LCPI1_28
	mov	r0, r5
	mov	r3, r6
	bl	mbedtls_debug_print_msg
	ldr	r5, __arm_cp.1_35
.Ltmp80:
	.loc	12 845 9                        @ ../../../ThirdParty/mbedTLS/library/ssl_cli.c:845:9
	b	.LBB1_64
.Ltmp81:
.LBB1_8:
	@DEBUG_VALUE: ssl_write_client_hello:ssl <- [DW_OP_plus_uconst 32] [$sp+0]
	@DEBUG_VALUE: ssl_write_client_hello:buf <- $r7
	@DEBUG_VALUE: ssl_write_client_hello:ret <- $r0
	@DEBUG_VALUE: ssl_write_client_hello:ext_len <- 0
	@DEBUG_VALUE: ssl_write_client_hello:uses_ec <- 0
	.loc	12 0 9 is_stmt 0                @ ../../../ThirdParty/mbedTLS/library/ssl_cli.c:0:9
	str	r4, [sp, #16]                   @ 4-byte Spill
	str	r7, [sp, #24]                   @ 4-byte Spill
.Ltmp82:
	@DEBUG_VALUE: ssl_write_client_hello:buf <- [DW_OP_plus_uconst 24] [$sp+0]
	adds	r5, r7, #6
.Ltmp83:
	@DEBUG_VALUE: ssl_write_client_hello:p <- $r5
	ldr	r4, [sp, #32]                   @ 4-byte Reload
.Ltmp84:
	@DEBUG_VALUE: ssl_write_client_hello:ssl <- $r4
	.loc	12 871 21 is_stmt 1             @ ../../../ThirdParty/mbedTLS/library/ssl_cli.c:871:21
	ldr	r0, [r4, #60]
.Ltmp85:
	.loc	12 0 21 is_stmt 0               @ ../../../ThirdParty/mbedTLS/library/ssl_cli.c:0:21
	ldr	r1, __arm_cp.1_36
	.loc	12 871 5                        @ ../../../ThirdParty/mbedTLS/library/ssl_cli.c:871:5
	adds	r1, r0, r1
	movs	r7, #32
	mov	r0, r5
	mov	r2, r7
	bl	__aeabi_memcpy
	.loc	12 872 5 is_stmt 1              @ ../../../ThirdParty/mbedTLS/library/ssl_cli.c:872:5
	adr	r0, .LCPI1_37
	add	r1, sp, #0
	stm	r1!, {r0, r5, r7}
	mov	r3, r6
	adds	r3, #47
	movs	r1, #3
	ldr	r2, .LCPI1_28
	mov	r0, r4
	bl	mbedtls_debug_print_buf
.Ltmp86:
	@DEBUG_VALUE: ssl_write_client_hello:p <- undef
	.loc	12 887 14                       @ ../../../ThirdParty/mbedTLS/library/ssl_cli.c:887:14
	ldr	r1, [r4, #56]
	.loc	12 887 33 is_stmt 0             @ ../../../ThirdParty/mbedTLS/library/ssl_cli.c:887:33
	ldr	r7, [r1, #8]
.Ltmp87:
	@DEBUG_VALUE: ssl_write_client_hello:n <- $r7
	.loc	12 889 16 is_stmt 1             @ ../../../ThirdParty/mbedTLS/library/ssl_cli.c:889:16
	mov	r0, r7
	subs	r0, #16
	cmp	r0, #16
	bhi	.LBB1_10
.Ltmp88:
@ %bb.9:
	@DEBUG_VALUE: ssl_write_client_hello:buf <- [DW_OP_plus_uconst 24] [$sp+0]
	@DEBUG_VALUE: ssl_write_client_hello:n <- $r7
	@DEBUG_VALUE: ssl_write_client_hello:ssl <- $r4
	@DEBUG_VALUE: ssl_write_client_hello:ext_len <- 0
	@DEBUG_VALUE: ssl_write_client_hello:uses_ec <- 0
	.loc	12 891 18                       @ ../../../ThirdParty/mbedTLS/library/ssl_cli.c:891:18
	ldr	r0, [sp, #32]                   @ 4-byte Reload
	ldr	r0, [r0, #8]
	.loc	12 891 65 is_stmt 0             @ ../../../ThirdParty/mbedTLS/library/ssl_cli.c:891:65
	cmp	r0, #0
	beq	.LBB1_24
.Ltmp89:
.LBB1_10:
	@DEBUG_VALUE: ssl_write_client_hello:buf <- [DW_OP_plus_uconst 24] [$sp+0]
	@DEBUG_VALUE: ssl_write_client_hello:n <- $r7
	@DEBUG_VALUE: ssl_write_client_hello:ssl <- $r4
	@DEBUG_VALUE: ssl_write_client_hello:ext_len <- 0
	@DEBUG_VALUE: ssl_write_client_hello:uses_ec <- 0
	.loc	12 0 65                         @ ../../../ThirdParty/mbedTLS/library/ssl_cli.c:0:65
	movs	r7, #0
.Ltmp90:
	@DEBUG_VALUE: ssl_write_client_hello:n <- 0
.LBB1_11:
	@DEBUG_VALUE: ssl_write_client_hello:buf <- [DW_OP_plus_uconst 24] [$sp+0]
	@DEBUG_VALUE: ssl_write_client_hello:ssl <- $r4
	@DEBUG_VALUE: ssl_write_client_hello:ext_len <- 0
	@DEBUG_VALUE: ssl_write_client_hello:uses_ec <- 0
	@DEBUG_VALUE: ssl_write_client_hello:p <- undef
	@DEBUG_VALUE: ssl_write_client_hello:n <- $r7
	.loc	12 904 14 is_stmt 1             @ ../../../ThirdParty/mbedTLS/library/ssl_cli.c:904:14
	ldr	r0, [sp, #32]                   @ 4-byte Reload
	ldr	r0, [r0, #8]
.Ltmp91:
	.loc	12 904 9 is_stmt 0              @ ../../../ThirdParty/mbedTLS/library/ssl_cli.c:904:9
	cmp	r0, #0
	beq	.LBB1_20
.Ltmp92:
.LBB1_12:
	@DEBUG_VALUE: ssl_write_client_hello:buf <- [DW_OP_plus_uconst 24] [$sp+0]
	@DEBUG_VALUE: ssl_write_client_hello:ssl <- $r4
	@DEBUG_VALUE: ssl_write_client_hello:ext_len <- 0
	@DEBUG_VALUE: ssl_write_client_hello:uses_ec <- 0
	.loc	12 0 0                          @ ../../../ThirdParty/mbedTLS/library/ssl_cli.c:0:0
	ldr	r0, [sp, #24]                   @ 4-byte Reload
.Ltmp93:
	@DEBUG_VALUE: ssl_write_client_hello:buf <- $r0
	adds	r0, #38
.Ltmp94:
	@DEBUG_VALUE: ssl_write_client_hello:n <- $r7
	@DEBUG_VALUE: ssl_write_client_hello:p <- $r0
	.loc	12 920 10 is_stmt 1             @ ../../../ThirdParty/mbedTLS/library/ssl_cli.c:920:10
	strb	r7, [r0]
	.loc	12 920 7 is_stmt 0              @ ../../../ThirdParty/mbedTLS/library/ssl_cli.c:920:7
	adds	r5, r0, #1
.Ltmp95:
	@DEBUG_VALUE: ssl_write_client_hello:i <- 0
	@DEBUG_VALUE: ssl_write_client_hello:p <- $r5
	.loc	12 0 0                          @ ../../../ThirdParty/mbedTLS/library/ssl_cli.c:0:0
	mov	r0, r5
	ldr	r4, [sp, #32]                   @ 4-byte Reload
.Ltmp96:
	.loc	12 922 5 is_stmt 1              @ ../../../ThirdParty/mbedTLS/library/ssl_cli.c:922:5
	cbz	r7, .LBB1_16
.Ltmp97:
@ %bb.13:
	@DEBUG_VALUE: ssl_write_client_hello:n <- $r7
	@DEBUG_VALUE: ssl_write_client_hello:p <- $r5
	@DEBUG_VALUE: ssl_write_client_hello:i <- 0
	@DEBUG_VALUE: ssl_write_client_hello:ext_len <- 0
	@DEBUG_VALUE: ssl_write_client_hello:uses_ec <- 0
	.loc	12 0 5 is_stmt 0                @ ../../../ThirdParty/mbedTLS/library/ssl_cli.c:0:5
	movs	r0, #0
.Ltmp98:
.LBB1_14:                               @ =>This Inner Loop Header: Depth=1
	@DEBUG_VALUE: ssl_write_client_hello:n <- $r7
	@DEBUG_VALUE: ssl_write_client_hello:ext_len <- 0
	@DEBUG_VALUE: ssl_write_client_hello:uses_ec <- 0
	@DEBUG_VALUE: ssl_write_client_hello:p <- undef
	@DEBUG_VALUE: ssl_write_client_hello:i <- $r0
	.loc	12 923 21 is_stmt 1             @ ../../../ThirdParty/mbedTLS/library/ssl_cli.c:923:21
	ldr	r1, [r4, #56]
	.loc	12 923 16 is_stmt 0             @ ../../../ThirdParty/mbedTLS/library/ssl_cli.c:923:16
	adds	r1, r1, r0
	ldrb	r1, [r1, #12]
.Ltmp99:
	@DEBUG_VALUE: ssl_write_client_hello:p <- [DW_OP_plus_uconst 1, DW_OP_stack_value] undef
	.loc	12 923 14                       @ ../../../ThirdParty/mbedTLS/library/ssl_cli.c:923:14
	strb	r1, [r5, r0]
	.loc	12 922 25 is_stmt 1             @ ../../../ThirdParty/mbedTLS/library/ssl_cli.c:922:25
	adds	r0, r0, #1
.Ltmp100:
	@DEBUG_VALUE: ssl_write_client_hello:i <- $r0
	.loc	12 922 5 is_stmt 0              @ ../../../ThirdParty/mbedTLS/library/ssl_cli.c:922:5
	cmp	r7, r0
	bne	.LBB1_14
.Ltmp101:
@ %bb.15:
	@DEBUG_VALUE: ssl_write_client_hello:n <- $r7
	@DEBUG_VALUE: ssl_write_client_hello:i <- $r0
	@DEBUG_VALUE: ssl_write_client_hello:ext_len <- 0
	@DEBUG_VALUE: ssl_write_client_hello:uses_ec <- 0
	.loc	12 925 5 is_stmt 1              @ ../../../ThirdParty/mbedTLS/library/ssl_cli.c:925:5
	adds	r0, r5, r0
.Ltmp102:
.LBB1_16:
	@DEBUG_VALUE: ssl_write_client_hello:n <- $r7
	@DEBUG_VALUE: ssl_write_client_hello:ext_len <- 0
	@DEBUG_VALUE: ssl_write_client_hello:uses_ec <- 0
	@DEBUG_VALUE: ssl_write_client_hello:p <- $r0
	.loc	12 0 5 is_stmt 0                @ ../../../ThirdParty/mbedTLS/library/ssl_cli.c:0:5
	str	r0, [sp, #28]                   @ 4-byte Spill
.Ltmp103:
	@DEBUG_VALUE: ssl_write_client_hello:p <- [DW_OP_plus_uconst 28] [$sp+0]
	@DEBUG_VALUE: ssl_write_client_hello:p <- [DW_OP_plus_uconst 28] [$sp+0]
	.loc	12 925 5                        @ ../../../ThirdParty/mbedTLS/library/ssl_cli.c:925:5
	str	r7, [sp, #4]
	ldr	r0, __arm_cp.1_38
	str	r0, [sp]
	mov	r3, r6
	adds	r3, #100
	movs	r1, #3
	str	r1, [sp, #44]                   @ 4-byte Spill
	ldr	r2, __arm_cp.1_1
	mov	r0, r4
	bl	mbedtls_debug_print_msg
	.loc	12 926 5 is_stmt 1              @ ../../../ThirdParty/mbedTLS/library/ssl_cli.c:926:5
	adr	r0, .LCPI1_9
	add	r1, sp, #0
	stm	r1!, {r0, r5, r7}
	adds	r6, #101
	mov	r0, r4
	ldr	r1, [sp, #44]                   @ 4-byte Reload
	ldr	r2, __arm_cp.1_1
	mov	r3, r6
	bl	mbedtls_debug_print_buf
.Ltmp104:
	.loc	12 932 14                       @ ../../../ThirdParty/mbedTLS/library/ssl_cli.c:932:14
	ldr	r0, [r4]
	movs	r1, #172
	str	r1, [sp, #20]                   @ 4-byte Spill
	.loc	12 932 20 is_stmt 0             @ ../../../ThirdParty/mbedTLS/library/ssl_cli.c:932:20
	ldrh	r0, [r0, r1]
.Ltmp105:
	.loc	12 932 9                        @ ../../../ThirdParty/mbedTLS/library/ssl_cli.c:932:9
	lsls	r0, r0, #30
	bmi	.LBB1_18
.Ltmp106:
@ %bb.17:
	@DEBUG_VALUE: ssl_write_client_hello:n <- $r7
	@DEBUG_VALUE: ssl_write_client_hello:p <- [DW_OP_plus_uconst 28] [$sp+0]
	@DEBUG_VALUE: ssl_write_client_hello:ext_len <- 0
	@DEBUG_VALUE: ssl_write_client_hello:uses_ec <- 0
	.loc	12 0 9                          @ ../../../ThirdParty/mbedTLS/library/ssl_cli.c:0:9
	ldr	r2, [sp, #28]                   @ 4-byte Reload
	b	.LBB1_26
.Ltmp107:
.LBB1_18:
	@DEBUG_VALUE: ssl_write_client_hello:n <- $r7
	@DEBUG_VALUE: ssl_write_client_hello:p <- [DW_OP_plus_uconst 28] [$sp+0]
	@DEBUG_VALUE: ssl_write_client_hello:ext_len <- 0
	@DEBUG_VALUE: ssl_write_client_hello:uses_ec <- 0
	.loc	12 934 18 is_stmt 1             @ ../../../ThirdParty/mbedTLS/library/ssl_cli.c:934:18
	ldr	r1, [r4, #60]
	movw	r5, #484
	.loc	12 934 29 is_stmt 0             @ ../../../ThirdParty/mbedTLS/library/ssl_cli.c:934:29
	ldr	r0, [r1, r5]
.Ltmp108:
	.loc	12 934 13                       @ ../../../ThirdParty/mbedTLS/library/ssl_cli.c:934:13
	cbz	r0, .LBB1_25
.Ltmp109:
@ %bb.19:
	@DEBUG_VALUE: ssl_write_client_hello:n <- $r7
	@DEBUG_VALUE: ssl_write_client_hello:p <- [DW_OP_plus_uconst 28] [$sp+0]
	@DEBUG_VALUE: ssl_write_client_hello:ext_len <- 0
	@DEBUG_VALUE: ssl_write_client_hello:uses_ec <- 0
	.loc	12 0 0                          @ ../../../ThirdParty/mbedTLS/library/ssl_cli.c:0:0
	adds	r1, r1, r5
.Ltmp110:
	.loc	12 941 13 is_stmt 1             @ ../../../ThirdParty/mbedTLS/library/ssl_cli.c:941:13
	ldrb	r1, [r1, #4]
	str	r1, [sp, #8]
	str	r0, [sp, #4]
	ldr	r0, __arm_cp.1_10
	str	r0, [sp]
	ldr	r3, __arm_cp.1_2
	adds	r3, #118
	movs	r1, #3
	ldr	r2, __arm_cp.1_1
	mov	r0, r4
	bl	mbedtls_debug_print_buf
	.loc	12 945 25                       @ ../../../ThirdParty/mbedTLS/library/ssl_cli.c:945:25
	ldr	r0, [r4, #60]
	movw	r7, #488
.Ltmp111:
	.loc	12 945 36 is_stmt 0             @ ../../../ThirdParty/mbedTLS/library/ssl_cli.c:945:36
	ldrb	r0, [r0, r7]
	ldr	r3, [sp, #28]                   @ 4-byte Reload
	.loc	12 945 18                       @ ../../../ThirdParty/mbedTLS/library/ssl_cli.c:945:18
	strb	r0, [r3]
	.loc	12 946 29 is_stmt 1             @ ../../../ThirdParty/mbedTLS/library/ssl_cli.c:946:29
	ldr	r0, [r4, #60]
	.loc	12 946 40 is_stmt 0             @ ../../../ThirdParty/mbedTLS/library/ssl_cli.c:946:40
	ldr	r1, [r0, r5]
	adds	r0, r0, r5
	.loc	12 947 37 is_stmt 1             @ ../../../ThirdParty/mbedTLS/library/ssl_cli.c:947:37
	ldrb	r2, [r0, #4]
	.loc	12 945 15                       @ ../../../ThirdParty/mbedTLS/library/ssl_cli.c:945:15
	adds	r6, r3, #1
.Ltmp112:
	@DEBUG_VALUE: ssl_write_client_hello:p <- $r6
	.loc	12 946 13                       @ ../../../ThirdParty/mbedTLS/library/ssl_cli.c:946:13
	mov	r0, r6
	bl	__aeabi_memcpy
	.loc	12 948 23                       @ ../../../ThirdParty/mbedTLS/library/ssl_cli.c:948:23
	ldr	r0, [r4, #60]
	.loc	12 948 34 is_stmt 0             @ ../../../ThirdParty/mbedTLS/library/ssl_cli.c:948:34
	ldrb	r0, [r0, r7]
	.loc	12 948 15                       @ ../../../ThirdParty/mbedTLS/library/ssl_cli.c:948:15
	adds	r2, r6, r0
.Ltmp113:
	@DEBUG_VALUE: ssl_write_client_hello:p <- $r2
	.loc	12 0 15                         @ ../../../ThirdParty/mbedTLS/library/ssl_cli.c:0:15
	b	.LBB1_26
.Ltmp114:
.LBB1_20:
	@DEBUG_VALUE: ssl_write_client_hello:buf <- [DW_OP_plus_uconst 24] [$sp+0]
	@DEBUG_VALUE: ssl_write_client_hello:n <- $r7
	@DEBUG_VALUE: ssl_write_client_hello:ssl <- $r4
	@DEBUG_VALUE: ssl_write_client_hello:ext_len <- 0
	@DEBUG_VALUE: ssl_write_client_hello:uses_ec <- 0
	.loc	12 907 37 is_stmt 1             @ ../../../ThirdParty/mbedTLS/library/ssl_cli.c:907:37
	ldr	r0, [r1, #108]
	.loc	12 907 52 is_stmt 0             @ ../../../ThirdParty/mbedTLS/library/ssl_cli.c:907:52
	cmp	r0, #0
	beq	.LBB1_12
.Ltmp115:
@ %bb.21:
	@DEBUG_VALUE: ssl_write_client_hello:buf <- [DW_OP_plus_uconst 24] [$sp+0]
	@DEBUG_VALUE: ssl_write_client_hello:n <- $r7
	@DEBUG_VALUE: ssl_write_client_hello:ssl <- $r4
	@DEBUG_VALUE: ssl_write_client_hello:ext_len <- 0
	@DEBUG_VALUE: ssl_write_client_hello:uses_ec <- 0
	.loc	12 908 41 is_stmt 1             @ ../../../ThirdParty/mbedTLS/library/ssl_cli.c:908:41
	ldr	r0, [r1, #112]
.Ltmp116:
	.loc	12 907 13                       @ ../../../ThirdParty/mbedTLS/library/ssl_cli.c:907:13
	cmp	r0, #0
	beq	.LBB1_12
.Ltmp117:
@ %bb.22:
	@DEBUG_VALUE: ssl_write_client_hello:buf <- [DW_OP_plus_uconst 24] [$sp+0]
	@DEBUG_VALUE: ssl_write_client_hello:n <- $r7
	@DEBUG_VALUE: ssl_write_client_hello:ssl <- $r4
	@DEBUG_VALUE: ssl_write_client_hello:ext_len <- 0
	@DEBUG_VALUE: ssl_write_client_hello:uses_ec <- 0
	.loc	12 0 13 is_stmt 0               @ ../../../ThirdParty/mbedTLS/library/ssl_cli.c:0:13
	ldr	r6, [sp, #32]                   @ 4-byte Reload
.Ltmp118:
	.loc	12 910 24 is_stmt 1             @ ../../../ThirdParty/mbedTLS/library/ssl_cli.c:910:24
	ldr	r0, [r6]
	.loc	12 910 30 is_stmt 0             @ ../../../ThirdParty/mbedTLS/library/ssl_cli.c:910:30
	ldr	r3, [r0, #24]
	.loc	12 910 48                       @ ../../../ThirdParty/mbedTLS/library/ssl_cli.c:910:48
	ldr	r0, [r0, #28]
	.loc	12 910 55                       @ ../../../ThirdParty/mbedTLS/library/ssl_cli.c:910:55
	adds	r1, #12
	movs	r7, #32
.Ltmp119:
	.loc	12 910 19                       @ ../../../ThirdParty/mbedTLS/library/ssl_cli.c:910:19
	mov	r2, r7
	blx	r3
	mov	r5, r0
.Ltmp120:
	@DEBUG_VALUE: ssl_write_client_hello:ret <- $r5
	.loc	12 912 17 is_stmt 1             @ ../../../ThirdParty/mbedTLS/library/ssl_cli.c:912:17
	cmp	r0, #0
	beq	.LBB1_23
	b	.LBB1_64
.Ltmp121:
.LBB1_23:
	@DEBUG_VALUE: ssl_write_client_hello:buf <- [DW_OP_plus_uconst 24] [$sp+0]
	@DEBUG_VALUE: ssl_write_client_hello:ret <- $r5
	@DEBUG_VALUE: ssl_write_client_hello:ssl <- $r4
	@DEBUG_VALUE: ssl_write_client_hello:ext_len <- 0
	@DEBUG_VALUE: ssl_write_client_hello:uses_ec <- 0
	@DEBUG_VALUE: ssl_write_client_hello:n <- 32
	.loc	12 915 18                       @ ../../../ThirdParty/mbedTLS/library/ssl_cli.c:915:18
	ldr	r0, [r6, #56]
	.loc	12 915 44 is_stmt 0             @ ../../../ThirdParty/mbedTLS/library/ssl_cli.c:915:44
	str	r7, [r0, #8]
	ldr	r6, __arm_cp.1_2
	b	.LBB1_12
.Ltmp122:
.LBB1_24:
	@DEBUG_VALUE: ssl_write_client_hello:buf <- [DW_OP_plus_uconst 24] [$sp+0]
	@DEBUG_VALUE: ssl_write_client_hello:n <- $r7
	@DEBUG_VALUE: ssl_write_client_hello:ssl <- $r4
	@DEBUG_VALUE: ssl_write_client_hello:ext_len <- 0
	@DEBUG_VALUE: ssl_write_client_hello:uses_ec <- 0
	.loc	12 893 18 is_stmt 1             @ ../../../ThirdParty/mbedTLS/library/ssl_cli.c:893:18
	ldr	r0, [sp, #32]                   @ 4-byte Reload
	ldr	r0, [r0, #60]
	ldr	r2, __arm_cp.1_7
	.loc	12 893 29 is_stmt 0             @ ../../../ThirdParty/mbedTLS/library/ssl_cli.c:893:29
	ldr	r0, [r0, r2]
.Ltmp123:
	.loc	12 889 9 is_stmt 1              @ ../../../ThirdParty/mbedTLS/library/ssl_cli.c:889:9
	cmp	r0, #0
	bne	.LBB1_11
	b	.LBB1_10
.Ltmp124:
.LBB1_25:
	@DEBUG_VALUE: ssl_write_client_hello:n <- $r7
	@DEBUG_VALUE: ssl_write_client_hello:p <- [DW_OP_plus_uconst 28] [$sp+0]
	@DEBUG_VALUE: ssl_write_client_hello:ext_len <- 0
	@DEBUG_VALUE: ssl_write_client_hello:uses_ec <- 0
	.loc	12 936 13                       @ ../../../ThirdParty/mbedTLS/library/ssl_cli.c:936:13
	ldr	r0, __arm_cp.1_11
	str	r0, [sp]
	ldr	r3, __arm_cp.1_2
	adds	r3, #111
	movs	r1, #3
	ldr	r2, __arm_cp.1_1
	mov	r0, r4
	bl	mbedtls_debug_print_msg
	movs	r0, #0
	ldr	r2, [sp, #28]                   @ 4-byte Reload
	.loc	12 937 18                       @ ../../../ThirdParty/mbedTLS/library/ssl_cli.c:937:18
	strb	r0, [r2]
	.loc	12 937 15 is_stmt 0             @ ../../../ThirdParty/mbedTLS/library/ssl_cli.c:937:15
	adds	r2, r2, #1
.Ltmp125:
	@DEBUG_VALUE: ssl_write_client_hello:p <- $r2
.LBB1_26:
	@DEBUG_VALUE: ssl_write_client_hello:ext_len <- 0
	@DEBUG_VALUE: ssl_write_client_hello:uses_ec <- 0
	@DEBUG_VALUE: ssl_write_client_hello:p <- $r2
	.loc	12 956 25 is_stmt 1             @ ../../../ThirdParty/mbedTLS/library/ssl_cli.c:956:25
	ldr	r0, [r4]
	.loc	12 956 53 is_stmt 0             @ ../../../ThirdParty/mbedTLS/library/ssl_cli.c:956:53
	ldr	r1, [r4, #20]
	.loc	12 956 20                       @ ../../../ThirdParty/mbedTLS/library/ssl_cli.c:956:20
	lsls	r1, r1, #2
	ldr	r5, [r0, r1]
.Ltmp126:
	@DEBUG_VALUE: ssl_write_client_hello:ciphersuites <- $r5
	@DEBUG_VALUE: ssl_write_client_hello:i <- 0
	@DEBUG_VALUE: ssl_write_client_hello:n <- 0
	@DEBUG_VALUE: ssl_write_client_hello:uses_ec <- 0
	.loc	12 963 17 is_stmt 1             @ ../../../ThirdParty/mbedTLS/library/ssl_cli.c:963:17
	ldr	r0, [r5]
.Ltmp127:
	@DEBUG_VALUE: ssl_write_client_hello:q <- $r2
	.loc	12 961 7                        @ ../../../ThirdParty/mbedTLS/library/ssl_cli.c:961:7
	adds	r1, r2, #2
.Ltmp128:
	@DEBUG_VALUE: ssl_write_client_hello:p <- $r1
	.loc	12 963 5                        @ ../../../ThirdParty/mbedTLS/library/ssl_cli.c:963:5
	str	r1, [sp, #44]                   @ 4-byte Spill
.Ltmp129:
	@DEBUG_VALUE: ssl_write_client_hello:p <- [DW_OP_plus_uconst 44] [$sp+0]
	str	r2, [sp, #28]                   @ 4-byte Spill
.Ltmp130:
	@DEBUG_VALUE: ssl_write_client_hello:q <- [DW_OP_plus_uconst 28] [$sp+0]
	cbz	r0, .LBB1_31
.Ltmp131:
@ %bb.27:
	@DEBUG_VALUE: ssl_write_client_hello:q <- [DW_OP_plus_uconst 28] [$sp+0]
	@DEBUG_VALUE: ssl_write_client_hello:p <- [DW_OP_plus_uconst 44] [$sp+0]
	@DEBUG_VALUE: ssl_write_client_hello:ciphersuites <- $r5
	@DEBUG_VALUE: ssl_write_client_hello:i <- 0
	@DEBUG_VALUE: ssl_write_client_hello:n <- 0
	@DEBUG_VALUE: ssl_write_client_hello:ext_len <- 0
	@DEBUG_VALUE: ssl_write_client_hello:uses_ec <- 0
	.loc	12 0 5 is_stmt 0                @ ../../../ThirdParty/mbedTLS/library/ssl_cli.c:0:5
	movs	r1, #0
	movs	r6, #169
	str	r1, [sp, #36]                   @ 4-byte Spill
	str	r1, [sp, #40]                   @ 4-byte Spill
	b	.LBB1_29
.Ltmp132:
.LBB1_28:                               @   in Loop: Header=BB1_29 Depth=1
	@DEBUG_VALUE: ssl_write_client_hello:q <- [DW_OP_plus_uconst 28] [$sp+0]
	@DEBUG_VALUE: ssl_write_client_hello:ciphersuite_info <- $r7
	@DEBUG_VALUE: ssl_write_client_hello:n <- [DW_OP_plus_uconst 40] [$sp+0]
	@DEBUG_VALUE: ssl_write_client_hello:p <- [DW_OP_plus_uconst 44] [$sp+0]
	@DEBUG_VALUE: ssl_write_client_hello:uses_ec <- [DW_OP_plus_uconst 36] [$sp+0]
	@DEBUG_VALUE: ssl_write_client_hello:ext_len <- 0
	@DEBUG_VALUE: ssl_write_client_hello:uses_ec <- [DW_OP_plus_uconst 36] [$sp+0]
	@DEBUG_VALUE: ssl_write_client_hello:p <- [DW_OP_plus_uconst 44] [$sp+0]
	@DEBUG_VALUE: ssl_write_client_hello:n <- [DW_OP_plus_uconst 40] [$sp+0]
	@DEBUG_VALUE: ssl_write_client_hello:i <- [DW_OP_plus_uconst 1, DW_OP_stack_value] undef
	.loc	12 963 17                       @ ../../../ThirdParty/mbedTLS/library/ssl_cli.c:963:17
	adds	r1, r5, #4
	ldr	r0, [r5, #4]
	mov	r5, r1
.Ltmp133:
	.loc	12 963 5                        @ ../../../ThirdParty/mbedTLS/library/ssl_cli.c:963:5
	cbz	r0, .LBB1_32
.Ltmp134:
.LBB1_29:                               @ =>This Inner Loop Header: Depth=1
	@DEBUG_VALUE: ssl_write_client_hello:q <- [DW_OP_plus_uconst 28] [$sp+0]
	@DEBUG_VALUE: ssl_write_client_hello:ext_len <- 0
	@DEBUG_VALUE: ssl_write_client_hello:uses_ec <- [DW_OP_plus_uconst 36] [$sp+0]
	@DEBUG_VALUE: ssl_write_client_hello:p <- [DW_OP_plus_uconst 44] [$sp+0]
	@DEBUG_VALUE: ssl_write_client_hello:n <- [DW_OP_plus_uconst 40] [$sp+0]
	@DEBUG_VALUE: ssl_write_client_hello:i <- undef
	.loc	12 965 28 is_stmt 1             @ ../../../ThirdParty/mbedTLS/library/ssl_cli.c:965:28
	bl	mbedtls_ssl_ciphersuite_from_id
	mov	r7, r0
.Ltmp135:
	@DEBUG_VALUE: ssl_write_client_hello:ciphersuite_info <- $r7
	.loc	12 968 44                       @ ../../../ThirdParty/mbedTLS/library/ssl_cli.c:968:44
	ldr	r0, [r4]
	.loc	12 969 50                       @ ../../../ThirdParty/mbedTLS/library/ssl_cli.c:969:50
	ldrb	r3, [r0, r6]
	.loc	12 968 50                       @ ../../../ThirdParty/mbedTLS/library/ssl_cli.c:968:50
	adds	r0, #169
	ldrb	r2, [r0, #2]
	.loc	12 967 13                       @ ../../../ThirdParty/mbedTLS/library/ssl_cli.c:967:13
	mov	r0, r7
	mov	r1, r4
	bl	ssl_validate_ciphersuite
.Ltmp136:
	.loc	12 967 13 is_stmt 0             @ ../../../ThirdParty/mbedTLS/library/ssl_cli.c:967:13
	cmp	r0, #0
	bne	.LBB1_28
.Ltmp137:
@ %bb.30:                               @   in Loop: Header=BB1_29 Depth=1
	@DEBUG_VALUE: ssl_write_client_hello:q <- [DW_OP_plus_uconst 28] [$sp+0]
	@DEBUG_VALUE: ssl_write_client_hello:ciphersuite_info <- $r7
	@DEBUG_VALUE: ssl_write_client_hello:n <- [DW_OP_plus_uconst 40] [$sp+0]
	@DEBUG_VALUE: ssl_write_client_hello:p <- [DW_OP_plus_uconst 44] [$sp+0]
	@DEBUG_VALUE: ssl_write_client_hello:uses_ec <- [DW_OP_plus_uconst 36] [$sp+0]
	@DEBUG_VALUE: ssl_write_client_hello:ext_len <- 0
	.loc	12 972 9 is_stmt 1              @ ../../../ThirdParty/mbedTLS/library/ssl_cli.c:972:9
	ldr	r0, [r5]
	ldr	r1, __arm_cp.1_12
	str	r1, [sp]
	str	r0, [sp, #4]
	ldr	r3, __arm_cp.1_2
	adds	r3, #148
	movs	r1, #3
	mov	r0, r4
	ldr	r2, __arm_cp.1_1
	bl	mbedtls_debug_print_msg
	.loc	12 977 20                       @ ../../../ThirdParty/mbedTLS/library/ssl_cli.c:977:20
	mov	r0, r7
	bl	mbedtls_ssl_ciphersuite_uses_ec
	.loc	12 981 33                       @ ../../../ThirdParty/mbedTLS/library/ssl_cli.c:981:33
	ldr	r1, [r5]
	.loc	12 981 49 is_stmt 0             @ ../../../ThirdParty/mbedTLS/library/ssl_cli.c:981:49
	lsrs	r1, r1, #8
.Ltmp138:
	@DEBUG_VALUE: ssl_write_client_hello:p <- [DW_OP_plus_uconst 44, DW_OP_deref_size 4, DW_OP_plus_uconst 1, DW_OP_stack_value] $sp
	.loc	12 0 49                         @ ../../../ThirdParty/mbedTLS/library/ssl_cli.c:0:49
	ldr	r2, [sp, #44]                   @ 4-byte Reload
.Ltmp139:
	@DEBUG_VALUE: ssl_write_client_hello:p <- [DW_OP_plus_uconst 1, DW_OP_stack_value] $r2
	.loc	12 981 14                       @ ../../../ThirdParty/mbedTLS/library/ssl_cli.c:981:14
	strb	r1, [r2]
	.loc	12 982 33 is_stmt 1             @ ../../../ThirdParty/mbedTLS/library/ssl_cli.c:982:33
	ldr	r1, [r5]
	.loc	12 982 14 is_stmt 0             @ ../../../ThirdParty/mbedTLS/library/ssl_cli.c:982:14
	strb	r1, [r2, #1]
	.loc	12 977 17 is_stmt 1             @ ../../../ThirdParty/mbedTLS/library/ssl_cli.c:977:17
	ldr	r1, [sp, #36]                   @ 4-byte Reload
	orrs	r1, r0
.Ltmp140:
	@DEBUG_VALUE: ssl_write_client_hello:uses_ec <- $r1
	.loc	12 982 11                       @ ../../../ThirdParty/mbedTLS/library/ssl_cli.c:982:11
	str	r1, [sp, #36]                   @ 4-byte Spill
.Ltmp141:
	@DEBUG_VALUE: ssl_write_client_hello:uses_ec <- [DW_OP_plus_uconst 36] [$sp+0]
	@DEBUG_VALUE: ssl_write_client_hello:uses_ec <- [DW_OP_plus_uconst 36] [$sp+0]
	@DEBUG_VALUE: ssl_write_client_hello:uses_ec <- [DW_OP_plus_uconst 36] [$sp+0]
	adds	r2, r2, #2
.Ltmp142:
	@DEBUG_VALUE: ssl_write_client_hello:p <- $r2
	.loc	12 0 11 is_stmt 0               @ ../../../ThirdParty/mbedTLS/library/ssl_cli.c:0:11
	str	r2, [sp, #44]                   @ 4-byte Spill
.Ltmp143:
	@DEBUG_VALUE: ssl_write_client_hello:p <- [DW_OP_plus_uconst 44] [$sp+0]
	@DEBUG_VALUE: ssl_write_client_hello:p <- [DW_OP_plus_uconst 44] [$sp+0]
	.loc	12 980 10 is_stmt 1             @ ../../../ThirdParty/mbedTLS/library/ssl_cli.c:980:10
	ldr	r0, [sp, #40]                   @ 4-byte Reload
	@DEBUG_VALUE: ssl_write_client_hello:p <- [DW_OP_plus_uconst 44] [$sp+0]
	adds	r0, r0, #1
.Ltmp144:
	@DEBUG_VALUE: ssl_write_client_hello:n <- $r0
	.loc	12 0 10 is_stmt 0               @ ../../../ThirdParty/mbedTLS/library/ssl_cli.c:0:10
	str	r0, [sp, #40]                   @ 4-byte Spill
.Ltmp145:
	@DEBUG_VALUE: ssl_write_client_hello:n <- [DW_OP_plus_uconst 40] [$sp+0]
	@DEBUG_VALUE: ssl_write_client_hello:n <- [DW_OP_plus_uconst 40] [$sp+0]
	@DEBUG_VALUE: ssl_write_client_hello:n <- [DW_OP_plus_uconst 40] [$sp+0]
	b	.LBB1_28
.Ltmp146:
.LBB1_31:
	@DEBUG_VALUE: ssl_write_client_hello:q <- [DW_OP_plus_uconst 28] [$sp+0]
	@DEBUG_VALUE: ssl_write_client_hello:p <- [DW_OP_plus_uconst 44] [$sp+0]
	@DEBUG_VALUE: ssl_write_client_hello:ciphersuites <- $r5
	@DEBUG_VALUE: ssl_write_client_hello:i <- 0
	@DEBUG_VALUE: ssl_write_client_hello:n <- 0
	@DEBUG_VALUE: ssl_write_client_hello:ext_len <- 0
	@DEBUG_VALUE: ssl_write_client_hello:uses_ec <- 0
	movs	r0, #0
	str	r0, [sp, #40]                   @ 4-byte Spill
	.loc	12 822 9 is_stmt 1              @ ../../../ThirdParty/mbedTLS/library/ssl_cli.c:822:9
	str	r0, [sp, #36]                   @ 4-byte Spill
.Ltmp147:
.LBB1_32:
	@DEBUG_VALUE: ssl_write_client_hello:q <- [DW_OP_plus_uconst 28] [$sp+0]
	@DEBUG_VALUE: ssl_write_client_hello:ext_len <- 0
	@DEBUG_VALUE: ssl_write_client_hello:uses_ec <- [DW_OP_plus_uconst 36] [$sp+0]
	@DEBUG_VALUE: ssl_write_client_hello:p <- [DW_OP_plus_uconst 44] [$sp+0]
	@DEBUG_VALUE: ssl_write_client_hello:n <- [DW_OP_plus_uconst 40] [$sp+0]
	.loc	12 0 9 is_stmt 0                @ ../../../ThirdParty/mbedTLS/library/ssl_cli.c:0:9
	ldr	r6, [sp, #40]                   @ 4-byte Reload
	.loc	12 985 5 is_stmt 1              @ ../../../ThirdParty/mbedTLS/library/ssl_cli.c:985:5
	str	r6, [sp, #4]
	ldr	r0, __arm_cp.1_13
	str	r0, [sp]
	ldr	r5, __arm_cp.1_2
	mov	r3, r5
	adds	r3, #160
	movs	r1, #3
	ldr	r2, __arm_cp.1_1
	mov	r0, r4
	bl	mbedtls_debug_print_msg
.Ltmp148:
	.loc	12 991 14                       @ ../../../ThirdParty/mbedTLS/library/ssl_cli.c:991:14
	ldr	r0, [r4, #8]
.Ltmp149:
	.loc	12 991 9 is_stmt 0              @ ../../../ThirdParty/mbedTLS/library/ssl_cli.c:991:9
	cbz	r0, .LBB1_34
.Ltmp150:
@ %bb.33:
	@DEBUG_VALUE: ssl_write_client_hello:q <- [DW_OP_plus_uconst 28] [$sp+0]
	@DEBUG_VALUE: ssl_write_client_hello:n <- [DW_OP_plus_uconst 40] [$sp+0]
	@DEBUG_VALUE: ssl_write_client_hello:p <- [DW_OP_plus_uconst 44] [$sp+0]
	@DEBUG_VALUE: ssl_write_client_hello:uses_ec <- [DW_OP_plus_uconst 36] [$sp+0]
	@DEBUG_VALUE: ssl_write_client_hello:ext_len <- 0
	.loc	12 0 9                          @ ../../../ThirdParty/mbedTLS/library/ssl_cli.c:0:9
	ldr	r6, [sp, #44]                   @ 4-byte Reload
	b	.LBB1_35
.Ltmp151:
.LBB1_34:
	@DEBUG_VALUE: ssl_write_client_hello:q <- [DW_OP_plus_uconst 28] [$sp+0]
	@DEBUG_VALUE: ssl_write_client_hello:n <- [DW_OP_plus_uconst 40] [$sp+0]
	@DEBUG_VALUE: ssl_write_client_hello:p <- [DW_OP_plus_uconst 44] [$sp+0]
	@DEBUG_VALUE: ssl_write_client_hello:uses_ec <- [DW_OP_plus_uconst 36] [$sp+0]
	@DEBUG_VALUE: ssl_write_client_hello:ext_len <- 0
	.loc	12 994 9 is_stmt 1              @ ../../../ThirdParty/mbedTLS/library/ssl_cli.c:994:9
	ldr	r0, __arm_cp.1_14
	str	r0, [sp]
	mov	r3, r5
	adds	r3, #169
	movs	r1, #3
	ldr	r2, __arm_cp.1_1
	mov	r0, r4
	bl	mbedtls_debug_print_msg
.Ltmp152:
	@DEBUG_VALUE: ssl_write_client_hello:p <- [DW_OP_plus_uconst 44, DW_OP_deref_size 4, DW_OP_plus_uconst 1, DW_OP_stack_value] $sp
	.loc	12 0 9 is_stmt 0                @ ../../../ThirdParty/mbedTLS/library/ssl_cli.c:0:9
	movs	r0, #255
	mov	r1, r6
	ldr	r6, [sp, #44]                   @ 4-byte Reload
.Ltmp153:
	@DEBUG_VALUE: ssl_write_client_hello:p <- [DW_OP_plus_uconst 1, DW_OP_stack_value] $r6
	.loc	12 996 14 is_stmt 1             @ ../../../ThirdParty/mbedTLS/library/ssl_cli.c:996:14
	strb	r0, [r6, #1]
	movs	r0, #0
	.loc	12 995 14                       @ ../../../ThirdParty/mbedTLS/library/ssl_cli.c:995:14
	strb	r0, [r6]
	.loc	12 997 10                       @ ../../../ThirdParty/mbedTLS/library/ssl_cli.c:997:10
	adds	r1, r1, #1
.Ltmp154:
	@DEBUG_VALUE: ssl_write_client_hello:n <- $r1
	.loc	12 0 10 is_stmt 0               @ ../../../ThirdParty/mbedTLS/library/ssl_cli.c:0:10
	str	r1, [sp, #40]                   @ 4-byte Spill
.Ltmp155:
	@DEBUG_VALUE: ssl_write_client_hello:n <- [DW_OP_plus_uconst 40] [$sp+0]
	@DEBUG_VALUE: ssl_write_client_hello:n <- [DW_OP_plus_uconst 40] [$sp+0]
	.loc	12 996 11 is_stmt 1             @ ../../../ThirdParty/mbedTLS/library/ssl_cli.c:996:11
	adds	r6, r6, #2
.Ltmp156:
	@DEBUG_VALUE: ssl_write_client_hello:p <- $r6
.LBB1_35:
	@DEBUG_VALUE: ssl_write_client_hello:q <- [DW_OP_plus_uconst 28] [$sp+0]
	@DEBUG_VALUE: ssl_write_client_hello:n <- [DW_OP_plus_uconst 40] [$sp+0]
	@DEBUG_VALUE: ssl_write_client_hello:uses_ec <- [DW_OP_plus_uconst 36] [$sp+0]
	@DEBUG_VALUE: ssl_write_client_hello:ext_len <- 0
	@DEBUG_VALUE: ssl_write_client_hello:p <- $r6
	@DEBUG_VALUE: ssl_write_client_hello:n <- [DW_OP_plus_uconst 40] [$sp+0]
	.loc	12 1002 14                      @ ../../../ThirdParty/mbedTLS/library/ssl_cli.c:1002:14
	ldr	r0, [r4]
	movs	r1, #174
	.loc	12 1002 20 is_stmt 0            @ ../../../ThirdParty/mbedTLS/library/ssl_cli.c:1002:20
	ldrb	r0, [r0, r1]
.Ltmp157:
	.loc	12 1002 9                       @ ../../../ThirdParty/mbedTLS/library/ssl_cli.c:1002:9
	lsls	r0, r0, #30
	bmi	.LBB1_40
.Ltmp158:
@ %bb.36:
	@DEBUG_VALUE: ssl_write_client_hello:q <- [DW_OP_plus_uconst 28] [$sp+0]
	@DEBUG_VALUE: ssl_write_client_hello:p <- $r6
	@DEBUG_VALUE: ssl_write_client_hello:n <- [DW_OP_plus_uconst 40] [$sp+0]
	@DEBUG_VALUE: ssl_write_client_hello:uses_ec <- [DW_OP_plus_uconst 36] [$sp+0]
	@DEBUG_VALUE: ssl_write_client_hello:ext_len <- 0
	.loc	12 0 9                          @ ../../../ThirdParty/mbedTLS/library/ssl_cli.c:0:9
	ldr	r1, [sp, #28]                   @ 4-byte Reload
.Ltmp159:
	@DEBUG_VALUE: ssl_write_client_hello:q <- $r1
	ldr	r2, [sp, #40]                   @ 4-byte Reload
	str	r6, [sp, #44]                   @ 4-byte Spill
.Ltmp160:
	@DEBUG_VALUE: ssl_write_client_hello:p <- [DW_OP_plus_uconst 44] [$sp+0]
	b	.LBB1_41
.Ltmp161:
	.p2align	2
@ %bb.37:
.LCPI1_28:
	.long	.L.str
	.p2align	2
@ %bb.38:
.LCPI1_29:
	.long	825                             @ 0x339
	.p2align	2
@ %bb.39:
.LCPI1_39:
.L.str.4:
	.asciz	"=> write client hello\000\000"
	.p2align	1
.LBB1_40:
.Ltmp162:
	@DEBUG_VALUE: ssl_write_client_hello:q <- [DW_OP_plus_uconst 28] [$sp+0]
	@DEBUG_VALUE: ssl_write_client_hello:p <- $r6
	@DEBUG_VALUE: ssl_write_client_hello:n <- [DW_OP_plus_uconst 40] [$sp+0]
	@DEBUG_VALUE: ssl_write_client_hello:uses_ec <- [DW_OP_plus_uconst 36] [$sp+0]
	@DEBUG_VALUE: ssl_write_client_hello:ext_len <- 0
	.loc	12 1004 9 is_stmt 1             @ ../../../ThirdParty/mbedTLS/library/ssl_cli.c:1004:9
	ldr	r0, __arm_cp.1_15
	str	r0, [sp]
	mov	r3, r5
	adds	r3, #179
	movs	r1, #3
	ldr	r2, __arm_cp.1_1
	mov	r0, r4
	bl	mbedtls_debug_print_msg
.Ltmp163:
	@DEBUG_VALUE: ssl_write_client_hello:p <- [DW_OP_plus_uconst 1, DW_OP_stack_value] $r6
	.loc	12 0 9 is_stmt 0                @ ../../../ThirdParty/mbedTLS/library/ssl_cli.c:0:9
	movs	r0, #0
	.loc	12 1006 14 is_stmt 1            @ ../../../ThirdParty/mbedTLS/library/ssl_cli.c:1006:14
	strb	r0, [r6, #1]
	movs	r0, #86
	.loc	12 1005 14                      @ ../../../ThirdParty/mbedTLS/library/ssl_cli.c:1005:14
	strb	r0, [r6]
	ldr	r2, [sp, #40]                   @ 4-byte Reload
	.loc	12 1007 10                      @ ../../../ThirdParty/mbedTLS/library/ssl_cli.c:1007:10
	adds	r2, r2, #1
.Ltmp164:
	@DEBUG_VALUE: ssl_write_client_hello:n <- $r2
	.loc	12 1006 11                      @ ../../../ThirdParty/mbedTLS/library/ssl_cli.c:1006:11
	adds	r6, r6, #2
.Ltmp165:
	@DEBUG_VALUE: ssl_write_client_hello:p <- $r6
	.loc	12 0 11 is_stmt 0               @ ../../../ThirdParty/mbedTLS/library/ssl_cli.c:0:11
	str	r6, [sp, #44]                   @ 4-byte Spill
.Ltmp166:
	@DEBUG_VALUE: ssl_write_client_hello:p <- [DW_OP_plus_uconst 44] [$sp+0]
	ldr	r1, [sp, #28]                   @ 4-byte Reload
.Ltmp167:
	@DEBUG_VALUE: ssl_write_client_hello:q <- $r1
	@DEBUG_VALUE: ssl_write_client_hello:p <- [DW_OP_plus_uconst 44] [$sp+0]
.LBB1_41:
	@DEBUG_VALUE: ssl_write_client_hello:q <- $r1
	@DEBUG_VALUE: ssl_write_client_hello:uses_ec <- [DW_OP_plus_uconst 36] [$sp+0]
	@DEBUG_VALUE: ssl_write_client_hello:ext_len <- 0
	@DEBUG_VALUE: ssl_write_client_hello:p <- [DW_OP_plus_uconst 44] [$sp+0]
	@DEBUG_VALUE: ssl_write_client_hello:n <- $r2
	.loc	12 1012 12 is_stmt 1            @ ../../../ThirdParty/mbedTLS/library/ssl_cli.c:1012:12
	lsls	r0, r2, #1
.Ltmp168:
	@DEBUG_VALUE: ssl_write_client_hello:q <- [DW_OP_plus_uconst 1, DW_OP_plus_uconst 1, DW_OP_stack_value] $r1
	.loc	12 1012 10 is_stmt 0            @ ../../../ThirdParty/mbedTLS/library/ssl_cli.c:1012:10
	strb	r0, [r1, #1]
	.loc	12 1011 31 is_stmt 1            @ ../../../ThirdParty/mbedTLS/library/ssl_cli.c:1011:31
	lsrs	r0, r2, #7
	.loc	12 1011 10 is_stmt 0            @ ../../../ThirdParty/mbedTLS/library/ssl_cli.c:1011:10
	strb	r0, [r1]
	movs	r6, #1
.Ltmp169:
	.loc	12 1043 9 is_stmt 1             @ ../../../ThirdParty/mbedTLS/library/ssl_cli.c:1043:9
	str	r6, [sp, #4]
	ldr	r0, __arm_cp.1_16
	str	r0, [sp]
.Ltmp170:
	@DEBUG_VALUE: ssl_write_client_hello:offer_compress <- 0
	mov	r3, r5
	adds	r3, #218
	movs	r7, #3
	ldr	r2, __arm_cp.1_1
.Ltmp171:
	mov	r0, r4
	mov	r1, r7
.Ltmp172:
	bl	mbedtls_debug_print_msg
	mov	r3, r5
	movs	r5, #0
	.loc	12 1044 9                       @ ../../../ThirdParty/mbedTLS/library/ssl_cli.c:1044:9
	str	r5, [sp, #4]
	ldr	r0, __arm_cp.1_17
	str	r0, [sp]
	adds	r3, #220
	mov	r0, r4
	mov	r1, r7
	ldr	r2, __arm_cp.1_1
	bl	mbedtls_debug_print_msg
.Ltmp173:
	@DEBUG_VALUE: ssl_write_client_hello:p <- [DW_OP_plus_uconst 44, DW_OP_deref_size 4, DW_OP_plus_uconst 1, DW_OP_stack_value] $sp
	.loc	12 0 9 is_stmt 0                @ ../../../ThirdParty/mbedTLS/library/ssl_cli.c:0:9
	str	r5, [sp, #28]                   @ 4-byte Spill
	ldr	r0, [sp, #44]                   @ 4-byte Reload
.Ltmp174:
	@DEBUG_VALUE: ssl_write_client_hello:p <- [DW_OP_plus_uconst 1, DW_OP_stack_value] $r0
	.loc	12 1048 14 is_stmt 1            @ ../../../ThirdParty/mbedTLS/library/ssl_cli.c:1048:14
	strb	r5, [r0, #1]
	str	r6, [sp, #40]                   @ 4-byte Spill
	.loc	12 1047 14                      @ ../../../ThirdParty/mbedTLS/library/ssl_cli.c:1047:14
	strb	r6, [r0]
.Ltmp175:
	@DEBUG_VALUE: ssl_write_client_hello:olen <- [DW_OP_plus_uconst 48, DW_OP_deref] $sp
	.loc	12 1054 36                      @ ../../../ThirdParty/mbedTLS/library/ssl_cli.c:1054:36
	adds	r6, r0, #4
	add	r7, sp, #48
	.loc	12 1054 5 is_stmt 0             @ ../../../ThirdParty/mbedTLS/library/ssl_cli.c:1054:5
	mov	r0, r4
.Ltmp176:
	@DEBUG_VALUE: ssl_write_client_hello:p <- [DW_OP_plus_uconst 1, DW_OP_stack_value] $r0
	mov	r1, r6
	mov	r2, r7
	bl	ssl_write_hostname_ext
.Ltmp177:
	.loc	12 1055 16 is_stmt 1            @ ../../../ThirdParty/mbedTLS/library/ssl_cli.c:1055:16
	ldr	r5, [sp, #48]
.Ltmp178:
	@DEBUG_VALUE: ssl_write_client_hello:olen <- $r5
	@DEBUG_VALUE: ssl_write_client_hello:ext_len <- $r5
	.loc	12 1061 45                      @ ../../../ThirdParty/mbedTLS/library/ssl_cli.c:1061:45
	adds	r1, r6, r5
.Ltmp179:
	@DEBUG_VALUE: ssl_write_client_hello:olen <- [DW_OP_plus_uconst 48, DW_OP_deref] $sp
	.loc	12 1061 5 is_stmt 0             @ ../../../ThirdParty/mbedTLS/library/ssl_cli.c:1061:5
	mov	r0, r4
.Ltmp180:
	@DEBUG_VALUE: ssl_write_client_hello:p <- [DW_OP_plus_uconst 1, DW_OP_stack_value] $r0
	mov	r2, r7
	bl	ssl_write_renegotiation_ext
.Ltmp181:
	.loc	12 1062 16 is_stmt 1            @ ../../../ThirdParty/mbedTLS/library/ssl_cli.c:1062:16
	ldr	r0, [sp, #48]
.Ltmp182:
	@DEBUG_VALUE: ssl_write_client_hello:olen <- $r0
	@DEBUG_VALUE: ssl_write_client_hello:p <- [DW_OP_plus_uconst 1, DW_OP_stack_value] $r0
	.loc	12 1062 13 is_stmt 0            @ ../../../ThirdParty/mbedTLS/library/ssl_cli.c:1062:13
	adds	r5, r0, r5
.Ltmp183:
	@DEBUG_VALUE: ssl_write_client_hello:ext_len <- $r5
	.loc	12 1067 52 is_stmt 1            @ ../../../ThirdParty/mbedTLS/library/ssl_cli.c:1067:52
	adds	r1, r6, r5
.Ltmp184:
	@DEBUG_VALUE: ssl_write_client_hello:olen <- [DW_OP_plus_uconst 48, DW_OP_deref] $sp
	.loc	12 1067 5 is_stmt 0             @ ../../../ThirdParty/mbedTLS/library/ssl_cli.c:1067:5
	mov	r0, r4
.Ltmp185:
	@DEBUG_VALUE: ssl_write_client_hello:p <- [DW_OP_plus_uconst 1, DW_OP_stack_value] $r0
	mov	r2, r7
	bl	ssl_write_signature_algorithms_ext
.Ltmp186:
	.loc	12 1068 16 is_stmt 1            @ ../../../ThirdParty/mbedTLS/library/ssl_cli.c:1068:16
	ldr	r0, [sp, #48]
.Ltmp187:
	@DEBUG_VALUE: ssl_write_client_hello:olen <- $r0
	@DEBUG_VALUE: ssl_write_client_hello:p <- [DW_OP_plus_uconst 1, DW_OP_stack_value] $r0
	.loc	12 1068 13 is_stmt 0            @ ../../../ThirdParty/mbedTLS/library/ssl_cli.c:1068:13
	adds	r5, r0, r5
.Ltmp188:
	@DEBUG_VALUE: ssl_write_client_hello:p <- undef
	@DEBUG_VALUE: ssl_write_client_hello:ext_len <- $r5
	.loc	12 1073 9 is_stmt 1             @ ../../../ThirdParty/mbedTLS/library/ssl_cli.c:1073:9
	ldr	r0, [sp, #36]                   @ 4-byte Reload
.Ltmp189:
	cbz	r0, .LBB1_43
.Ltmp190:
@ %bb.42:
	@DEBUG_VALUE: ssl_write_client_hello:ext_len <- $r5
	@DEBUG_VALUE: ssl_write_client_hello:uses_ec <- [DW_OP_plus_uconst 36] [$sp+0]
	@DEBUG_VALUE: ssl_write_client_hello:offer_compress <- 0
	.loc	12 1075 61                      @ ../../../ThirdParty/mbedTLS/library/ssl_cli.c:1075:61
	adds	r1, r6, r5
.Ltmp191:
	@DEBUG_VALUE: ssl_write_client_hello:olen <- [DW_OP_plus_uconst 48, DW_OP_deref] $sp
	.loc	12 0 61 is_stmt 0               @ ../../../ThirdParty/mbedTLS/library/ssl_cli.c:0:61
	add	r7, sp, #48
	.loc	12 1075 9                       @ ../../../ThirdParty/mbedTLS/library/ssl_cli.c:1075:9
	mov	r0, r4
	mov	r2, r7
	bl	ssl_write_supported_elliptic_curves_ext
	.loc	12 1076 20 is_stmt 1            @ ../../../ThirdParty/mbedTLS/library/ssl_cli.c:1076:20
	ldr	r0, [sp, #48]
.Ltmp192:
	@DEBUG_VALUE: ssl_write_client_hello:olen <- $r0
	.loc	12 1076 17 is_stmt 0            @ ../../../ThirdParty/mbedTLS/library/ssl_cli.c:1076:17
	adds	r5, r0, r5
.Ltmp193:
	@DEBUG_VALUE: ssl_write_client_hello:ext_len <- $r5
	.loc	12 1078 59 is_stmt 1            @ ../../../ThirdParty/mbedTLS/library/ssl_cli.c:1078:59
	adds	r1, r6, r5
.Ltmp194:
	@DEBUG_VALUE: ssl_write_client_hello:olen <- [DW_OP_plus_uconst 48, DW_OP_deref] $sp
	.loc	12 1078 9 is_stmt 0             @ ../../../ThirdParty/mbedTLS/library/ssl_cli.c:1078:9
	mov	r0, r4
	mov	r2, r7
	bl	ssl_write_supported_point_formats_ext
	.loc	12 1079 20 is_stmt 1            @ ../../../ThirdParty/mbedTLS/library/ssl_cli.c:1079:20
	ldr	r0, [sp, #48]
.Ltmp195:
	@DEBUG_VALUE: ssl_write_client_hello:olen <- $r0
	.loc	12 1079 17 is_stmt 0            @ ../../../ThirdParty/mbedTLS/library/ssl_cli.c:1079:17
	adds	r5, r0, r5
.Ltmp196:
	@DEBUG_VALUE: ssl_write_client_hello:ext_len <- $r5
.LBB1_43:
	@DEBUG_VALUE: ssl_write_client_hello:ext_len <- $r5
	@DEBUG_VALUE: ssl_write_client_hello:uses_ec <- [DW_OP_plus_uconst 36] [$sp+0]
	@DEBUG_VALUE: ssl_write_client_hello:offer_compress <- 0
	@DEBUG_VALUE: ssl_write_client_hello:ext_len <- $r5
	@DEBUG_VALUE: ssl_write_client_hello:p <- undef
	.loc	12 1089 51 is_stmt 1            @ ../../../ThirdParty/mbedTLS/library/ssl_cli.c:1089:51
	adds	r1, r6, r5
.Ltmp197:
	@DEBUG_VALUE: ssl_write_client_hello:olen <- [DW_OP_plus_uconst 48, DW_OP_deref] $sp
	.loc	12 0 51 is_stmt 0               @ ../../../ThirdParty/mbedTLS/library/ssl_cli.c:0:51
	add	r7, sp, #48
	.loc	12 1089 5                       @ ../../../ThirdParty/mbedTLS/library/ssl_cli.c:1089:5
	mov	r0, r4
	mov	r2, r7
	bl	ssl_write_max_fragment_length_ext
	.loc	12 1090 16 is_stmt 1            @ ../../../ThirdParty/mbedTLS/library/ssl_cli.c:1090:16
	ldr	r0, [sp, #48]
.Ltmp198:
	@DEBUG_VALUE: ssl_write_client_hello:olen <- $r0
	.loc	12 1090 13 is_stmt 0            @ ../../../ThirdParty/mbedTLS/library/ssl_cli.c:1090:13
	adds	r5, r0, r5
.Ltmp199:
	@DEBUG_VALUE: ssl_write_client_hello:ext_len <- $r5
	.loc	12 1094 46 is_stmt 1            @ ../../../ThirdParty/mbedTLS/library/ssl_cli.c:1094:46
	adds	r1, r6, r5
.Ltmp200:
	@DEBUG_VALUE: ssl_write_client_hello:olen <- [DW_OP_plus_uconst 48, DW_OP_deref] $sp
	.loc	12 1094 5 is_stmt 0             @ ../../../ThirdParty/mbedTLS/library/ssl_cli.c:1094:5
	mov	r0, r4
	mov	r2, r7
	bl	ssl_write_truncated_hmac_ext
	.loc	12 1095 16 is_stmt 1            @ ../../../ThirdParty/mbedTLS/library/ssl_cli.c:1095:16
	ldr	r0, [sp, #48]
.Ltmp201:
	@DEBUG_VALUE: ssl_write_client_hello:olen <- $r0
	.loc	12 1095 13 is_stmt 0            @ ../../../ThirdParty/mbedTLS/library/ssl_cli.c:1095:13
	adds	r5, r0, r5
.Ltmp202:
	@DEBUG_VALUE: ssl_write_client_hello:ext_len <- $r5
	.loc	12 1099 48 is_stmt 1            @ ../../../ThirdParty/mbedTLS/library/ssl_cli.c:1099:48
	adds	r1, r6, r5
.Ltmp203:
	@DEBUG_VALUE: ssl_write_client_hello:olen <- [DW_OP_plus_uconst 48, DW_OP_deref] $sp
	.loc	12 1099 5 is_stmt 0             @ ../../../ThirdParty/mbedTLS/library/ssl_cli.c:1099:5
	mov	r0, r4
	mov	r2, r7
	bl	ssl_write_encrypt_then_mac_ext
	.loc	12 1100 16 is_stmt 1            @ ../../../ThirdParty/mbedTLS/library/ssl_cli.c:1100:16
	ldr	r0, [sp, #48]
.Ltmp204:
	@DEBUG_VALUE: ssl_write_client_hello:olen <- $r0
	.loc	12 1100 13 is_stmt 0            @ ../../../ThirdParty/mbedTLS/library/ssl_cli.c:1100:13
	adds	r5, r0, r5
.Ltmp205:
	@DEBUG_VALUE: ssl_write_client_hello:ext_len <- $r5
	.loc	12 1104 43 is_stmt 1            @ ../../../ThirdParty/mbedTLS/library/ssl_cli.c:1104:43
	adds	r1, r6, r5
.Ltmp206:
	@DEBUG_VALUE: ssl_write_client_hello:olen <- [DW_OP_plus_uconst 48, DW_OP_deref] $sp
	.loc	12 1104 5 is_stmt 0             @ ../../../ThirdParty/mbedTLS/library/ssl_cli.c:1104:5
	mov	r0, r4
	mov	r2, r7
	bl	ssl_write_extended_ms_ext
	.loc	12 1105 16 is_stmt 1            @ ../../../ThirdParty/mbedTLS/library/ssl_cli.c:1105:16
	ldr	r0, [sp, #48]
.Ltmp207:
	@DEBUG_VALUE: ssl_write_client_hello:olen <- $r0
	.loc	12 1105 13 is_stmt 0            @ ../../../ThirdParty/mbedTLS/library/ssl_cli.c:1105:13
	adds	r5, r0, r5
.Ltmp208:
	@DEBUG_VALUE: ssl_write_client_hello:ext_len <- $r5
	.loc	12 1109 36 is_stmt 1            @ ../../../ThirdParty/mbedTLS/library/ssl_cli.c:1109:36
	adds	r1, r6, r5
.Ltmp209:
	@DEBUG_VALUE: ssl_write_client_hello:olen <- [DW_OP_plus_uconst 48, DW_OP_deref] $sp
	.loc	12 1109 5 is_stmt 0             @ ../../../ThirdParty/mbedTLS/library/ssl_cli.c:1109:5
	mov	r0, r4
	mov	r2, r7
	bl	ssl_write_alpn_ext
	.loc	12 1110 16 is_stmt 1            @ ../../../ThirdParty/mbedTLS/library/ssl_cli.c:1110:16
	ldr	r0, [sp, #48]
.Ltmp210:
	@DEBUG_VALUE: ssl_write_client_hello:olen <- $r0
	.loc	12 1110 13 is_stmt 0            @ ../../../ThirdParty/mbedTLS/library/ssl_cli.c:1110:13
	adds	r5, r0, r5
.Ltmp211:
	@DEBUG_VALUE: ssl_write_client_hello:ext_len <- $r5
	.loc	12 1114 46 is_stmt 1            @ ../../../ThirdParty/mbedTLS/library/ssl_cli.c:1114:46
	adds	r1, r6, r5
.Ltmp212:
	@DEBUG_VALUE: ssl_write_client_hello:olen <- [DW_OP_plus_uconst 48, DW_OP_deref] $sp
	.loc	12 1114 5 is_stmt 0             @ ../../../ThirdParty/mbedTLS/library/ssl_cli.c:1114:5
	mov	r0, r4
	mov	r2, r7
	bl	ssl_write_session_ticket_ext
	.loc	12 1115 16 is_stmt 1            @ ../../../ThirdParty/mbedTLS/library/ssl_cli.c:1115:16
	ldr	r0, [sp, #48]
.Ltmp213:
	@DEBUG_VALUE: ssl_write_client_hello:olen <- $r0
	.loc	12 1115 13 is_stmt 0            @ ../../../ThirdParty/mbedTLS/library/ssl_cli.c:1115:13
	adds	r5, r0, r5
.Ltmp214:
	@DEBUG_VALUE: ssl_write_client_hello:ext_len <- $r5
	.loc	12 1121 5 is_stmt 1             @ ../../../ThirdParty/mbedTLS/library/ssl_cli.c:1121:5
	str	r5, [sp, #4]
	ldr	r0, __arm_cp.1_18
.Ltmp215:
	str	r0, [sp]
	movs	r1, #3
	ldr	r2, __arm_cp.1_1
	ldr	r7, __arm_cp.1_19
	mov	r0, r4
	mov	r3, r7
	bl	mbedtls_debug_print_msg
	.loc	12 1124 9                       @ ../../../ThirdParty/mbedTLS/library/ssl_cli.c:1124:9
	cbz	r5, .LBB1_55
.Ltmp216:
@ %bb.44:
	@DEBUG_VALUE: ssl_write_client_hello:ext_len <- $r5
	@DEBUG_VALUE: ssl_write_client_hello:uses_ec <- [DW_OP_plus_uconst 36] [$sp+0]
	@DEBUG_VALUE: ssl_write_client_hello:offer_compress <- 0
	@DEBUG_VALUE: ssl_write_client_hello:p <- $r6
	.loc	12 0 9 is_stmt 0                @ ../../../ThirdParty/mbedTLS/library/ssl_cli.c:0:9
	ldr	r1, [sp, #44]                   @ 4-byte Reload
.Ltmp217:
	.loc	12 1127 14 is_stmt 1            @ ../../../ThirdParty/mbedTLS/library/ssl_cli.c:1127:14
	strb	r5, [r1, #3]
	.loc	12 1126 43                      @ ../../../ThirdParty/mbedTLS/library/ssl_cli.c:1126:43
	lsrs	r0, r5, #8
	.loc	12 1126 14 is_stmt 0            @ ../../../ThirdParty/mbedTLS/library/ssl_cli.c:1126:14
	strb	r0, [r1, #2]
	.loc	12 1128 11 is_stmt 1            @ ../../../ThirdParty/mbedTLS/library/ssl_cli.c:1128:11
	adds	r0, r6, r5
.Ltmp218:
	@DEBUG_VALUE: ssl_write_client_hello:p <- $r0
	.loc	12 0 11 is_stmt 0               @ ../../../ThirdParty/mbedTLS/library/ssl_cli.c:0:11
	b	.LBB1_56
.Ltmp219:
@ %bb.45:
	.p2align	2
@ %bb.46:
.LCPI1_30:
.L.str.7:
	.asciz	"client hello, max version: [%d:%d]\000"
	.p2align	2
@ %bb.47:
.LCPI1_31:
.L.str.8:
	.asciz	"ssl_generate_random"
	.p2align	2
@ %bb.48:
__arm_cp.1_32:
	.long	.L.str.5
.Lcpi_end4:
	.size	__arm_cp.1_32, .Lcpi_end4-__arm_cp.1_32
	.p2align	2
@ %bb.49:
__arm_cp.1_33:
	.long	4294937600                      @ 0xffff8c00
.Lcpi_end5:
	.size	__arm_cp.1_33, .Lcpi_end5-__arm_cp.1_33
	.p2align	2
@ %bb.50:
__arm_cp.1_34:
	.long	.L.str.6
.Lcpi_end6:
	.size	__arm_cp.1_34, .Lcpi_end6-__arm_cp.1_34
	.p2align	2
@ %bb.51:
__arm_cp.1_35:
	.long	4294938368                      @ 0xffff8f00
.Lcpi_end7:
	.size	__arm_cp.1_35, .Lcpi_end7-__arm_cp.1_35
	.p2align	2
@ %bb.52:
__arm_cp.1_36:
	.long	1124                            @ 0x464
.Lcpi_end8:
	.size	__arm_cp.1_36, .Lcpi_end8-__arm_cp.1_36
	.p2align	2
@ %bb.53:
.LCPI1_37:
.L.str.9:
	.asciz	"client hello, random bytes\000"
	.p2align	2
@ %bb.54:
__arm_cp.1_38:
	.long	.L.str.10
.Lcpi_end9:
	.size	__arm_cp.1_38, .Lcpi_end9-__arm_cp.1_38
	.p2align	1
.LBB1_55:
.Ltmp220:
	@DEBUG_VALUE: ssl_write_client_hello:ext_len <- $r5
	@DEBUG_VALUE: ssl_write_client_hello:uses_ec <- [DW_OP_plus_uconst 36] [$sp+0]
	@DEBUG_VALUE: ssl_write_client_hello:offer_compress <- 0
	ldr	r0, [sp, #44]                   @ 4-byte Reload
	adds	r0, r0, #2
.Ltmp221:
	@DEBUG_VALUE: ssl_write_client_hello:p <- $r0
.LBB1_56:
	@DEBUG_VALUE: ssl_write_client_hello:ext_len <- $r5
	@DEBUG_VALUE: ssl_write_client_hello:p <- $r0
	@DEBUG_VALUE: ssl_write_client_hello:uses_ec <- [DW_OP_plus_uconst 36] [$sp+0]
	@DEBUG_VALUE: ssl_write_client_hello:offer_compress <- 0
	ldr	r2, [sp, #16]                   @ 4-byte Reload
	ldr	r5, [sp, #40]                   @ 4-byte Reload
.Ltmp222:
	@DEBUG_VALUE: ssl_write_client_hello:p <- $r0
	movs	r1, #22
	.loc	12 1131 26 is_stmt 1            @ ../../../ThirdParty/mbedTLS/library/ssl_cli.c:1131:26
	ldr	r3, [sp, #24]                   @ 4-byte Reload
	subs	r0, r0, r3
.Ltmp223:
	.loc	12 1132 22                      @ ../../../ThirdParty/mbedTLS/library/ssl_cli.c:1132:22
	str	r1, [r2, #4]
	.loc	12 1131 22                      @ ../../../ThirdParty/mbedTLS/library/ssl_cli.c:1131:22
	str	r0, [r2, #8]
	.loc	12 1133 10                      @ ../../../ThirdParty/mbedTLS/library/ssl_cli.c:1133:10
	ldr	r0, [r2]
	.loc	12 1133 22 is_stmt 0            @ ../../../ThirdParty/mbedTLS/library/ssl_cli.c:1133:22
	strb	r5, [r0]
	.loc	12 1135 15 is_stmt 1            @ ../../../ThirdParty/mbedTLS/library/ssl_cli.c:1135:15
	ldr	r0, [r4, #4]
	adds	r0, r0, #1
	str	r0, [r4, #4]
.Ltmp224:
	.loc	12 1138 14                      @ ../../../ThirdParty/mbedTLS/library/ssl_cli.c:1138:14
	ldr	r0, [r4]
	.loc	12 1138 20 is_stmt 0            @ ../../../ThirdParty/mbedTLS/library/ssl_cli.c:1138:20
	ldr	r1, [sp, #20]                   @ 4-byte Reload
	ldrh	r0, [r0, r1]
.Ltmp225:
	.loc	12 1138 9                       @ ../../../ThirdParty/mbedTLS/library/ssl_cli.c:1138:9
	lsls	r0, r0, #30
	bpl	.LBB1_58
.Ltmp226:
@ %bb.57:
	@DEBUG_VALUE: ssl_write_client_hello:uses_ec <- [DW_OP_plus_uconst 36] [$sp+0]
	@DEBUG_VALUE: ssl_write_client_hello:offer_compress <- 0
	.loc	12 1139 9 is_stmt 1             @ ../../../ThirdParty/mbedTLS/library/ssl_cli.c:1139:9
	mov	r0, r4
	bl	mbedtls_ssl_send_flight_completed
.Ltmp227:
.LBB1_58:
	@DEBUG_VALUE: ssl_write_client_hello:uses_ec <- [DW_OP_plus_uconst 36] [$sp+0]
	@DEBUG_VALUE: ssl_write_client_hello:offer_compress <- 0
	.loc	12 1142 17                      @ ../../../ThirdParty/mbedTLS/library/ssl_cli.c:1142:17
	mov	r0, r4
	bl	mbedtls_ssl_write_handshake_msg
.Ltmp228:
	@DEBUG_VALUE: ssl_write_client_hello:ret <- $r0
	.loc	12 1142 9 is_stmt 0             @ ../../../ThirdParty/mbedTLS/library/ssl_cli.c:1142:9
	cbz	r0, .LBB1_60
.Ltmp229:
@ %bb.59:
	@DEBUG_VALUE: ssl_write_client_hello:ret <- $r0
	@DEBUG_VALUE: ssl_write_client_hello:uses_ec <- [DW_OP_plus_uconst 36] [$sp+0]
	@DEBUG_VALUE: ssl_write_client_hello:offer_compress <- 0
	.loc	12 0 0                          @ ../../../ThirdParty/mbedTLS/library/ssl_cli.c:0:0
	mov	r5, r0
.Ltmp230:
	@DEBUG_VALUE: ssl_write_client_hello:ret <- $r5
	.loc	12 1144 9 is_stmt 1             @ ../../../ThirdParty/mbedTLS/library/ssl_cli.c:1144:9
	str	r0, [sp, #4]
	ldr	r0, __arm_cp.1_20
	str	r0, [sp]
	adds	r7, #22
	movs	r1, #1
	ldr	r2, __arm_cp.1_1
	mov	r0, r4
	mov	r3, r7
	bl	mbedtls_debug_print_ret
	.loc	12 1145 9                       @ ../../../ThirdParty/mbedTLS/library/ssl_cli.c:1145:9
	b	.LBB1_64
.Ltmp231:
.LBB1_60:
	@DEBUG_VALUE: ssl_write_client_hello:ret <- $r0
	@DEBUG_VALUE: ssl_write_client_hello:uses_ec <- [DW_OP_plus_uconst 36] [$sp+0]
	@DEBUG_VALUE: ssl_write_client_hello:offer_compress <- 0
	.loc	12 1149 14                      @ ../../../ThirdParty/mbedTLS/library/ssl_cli.c:1149:14
	ldr	r0, [r4]
.Ltmp232:
	.loc	12 1149 20 is_stmt 0            @ ../../../ThirdParty/mbedTLS/library/ssl_cli.c:1149:20
	ldr	r1, [sp, #20]                   @ 4-byte Reload
	ldrh	r0, [r0, r1]
	.loc	12 1149 64                      @ ../../../ThirdParty/mbedTLS/library/ssl_cli.c:1149:64
	lsls	r0, r0, #30
	bpl	.LBB1_63
.Ltmp233:
@ %bb.61:
	@DEBUG_VALUE: ssl_write_client_hello:uses_ec <- [DW_OP_plus_uconst 36] [$sp+0]
	@DEBUG_VALUE: ssl_write_client_hello:offer_compress <- 0
	.loc	12 1150 21 is_stmt 1            @ ../../../ThirdParty/mbedTLS/library/ssl_cli.c:1150:21
	mov	r0, r4
	bl	mbedtls_ssl_flight_transmit
.Ltmp234:
	@DEBUG_VALUE: ssl_write_client_hello:ret <- $r0
	.loc	12 1149 9                       @ ../../../ThirdParty/mbedTLS/library/ssl_cli.c:1149:9
	cbz	r0, .LBB1_63
.Ltmp235:
@ %bb.62:
	@DEBUG_VALUE: ssl_write_client_hello:ret <- $r0
	@DEBUG_VALUE: ssl_write_client_hello:uses_ec <- [DW_OP_plus_uconst 36] [$sp+0]
	@DEBUG_VALUE: ssl_write_client_hello:offer_compress <- 0
	.loc	12 0 0 is_stmt 0                @ ../../../ThirdParty/mbedTLS/library/ssl_cli.c:0:0
	mov	r5, r0
.Ltmp236:
	@DEBUG_VALUE: ssl_write_client_hello:ret <- $r5
	.loc	12 1152 9 is_stmt 1             @ ../../../ThirdParty/mbedTLS/library/ssl_cli.c:1152:9
	str	r0, [sp, #4]
	ldr	r0, __arm_cp.1_21
	str	r0, [sp]
	adds	r7, #30
	movs	r1, #1
	ldr	r2, __arm_cp.1_1
	mov	r0, r4
	mov	r3, r7
	bl	mbedtls_debug_print_ret
	.loc	12 1153 9                       @ ../../../ThirdParty/mbedTLS/library/ssl_cli.c:1153:9
	b	.LBB1_64
.Ltmp237:
.LBB1_63:
	@DEBUG_VALUE: ssl_write_client_hello:uses_ec <- [DW_OP_plus_uconst 36] [$sp+0]
	@DEBUG_VALUE: ssl_write_client_hello:offer_compress <- 0
	.loc	12 1157 5                       @ ../../../ThirdParty/mbedTLS/library/ssl_cli.c:1157:5
	ldr	r0, __arm_cp.1_22
	str	r0, [sp]
	adds	r7, #35
	movs	r1, #2
	ldr	r2, __arm_cp.1_1
	mov	r0, r4
	mov	r3, r7
	bl	mbedtls_debug_print_msg
	ldr	r5, [sp, #28]                   @ 4-byte Reload
.Ltmp238:
.LBB1_64:
	.loc	12 1160 1                       @ ../../../ThirdParty/mbedTLS/library/ssl_cli.c:1160:1
	mov	r0, r5
	add	sp, #52
	pop	{r4, r5, r6, r7, pc}
.Ltmp239:
	.p2align	2
@ %bb.65:
	.loc	12 0 1 is_stmt 0                @ ../../../ThirdParty/mbedTLS/library/ssl_cli.c:0:1
__arm_cp.1_1:
	.long	.L.str
.Lcpi_end10:
	.size	__arm_cp.1_1, .Lcpi_end10-__arm_cp.1_1
__arm_cp.1_2:
	.long	825                             @ 0x339
.Lcpi_end11:
	.size	__arm_cp.1_2, .Lcpi_end11-__arm_cp.1_2
__arm_cp.1_7:
	.long	2248                            @ 0x8c8
.Lcpi_end12:
	.size	__arm_cp.1_7, .Lcpi_end12-__arm_cp.1_7
.LCPI1_9:
.L.str.11:
	.asciz	"client hello, session id\000\000\000"
__arm_cp.1_10:
	.long	.L.str.13
.Lcpi_end13:
	.size	__arm_cp.1_10, .Lcpi_end13-__arm_cp.1_10
__arm_cp.1_11:
	.long	.L.str.12
.Lcpi_end14:
	.size	__arm_cp.1_11, .Lcpi_end14-__arm_cp.1_11
__arm_cp.1_12:
	.long	.L.str.14
.Lcpi_end15:
	.size	__arm_cp.1_12, .Lcpi_end15-__arm_cp.1_12
__arm_cp.1_13:
	.long	.L.str.15
.Lcpi_end16:
	.size	__arm_cp.1_13, .Lcpi_end16-__arm_cp.1_13
__arm_cp.1_14:
	.long	.L.str.16
.Lcpi_end17:
	.size	__arm_cp.1_14, .Lcpi_end17-__arm_cp.1_14
__arm_cp.1_15:
	.long	.L.str.17
.Lcpi_end18:
	.size	__arm_cp.1_15, .Lcpi_end18-__arm_cp.1_15
__arm_cp.1_16:
	.long	.L.str.18
.Lcpi_end19:
	.size	__arm_cp.1_16, .Lcpi_end19-__arm_cp.1_16
__arm_cp.1_17:
	.long	.L.str.20
.Lcpi_end20:
	.size	__arm_cp.1_17, .Lcpi_end20-__arm_cp.1_17
__arm_cp.1_18:
	.long	.L.str.21
.Lcpi_end21:
	.size	__arm_cp.1_18, .Lcpi_end21-__arm_cp.1_18
__arm_cp.1_19:
	.long	1122                            @ 0x462
.Lcpi_end22:
	.size	__arm_cp.1_19, .Lcpi_end22-__arm_cp.1_19
__arm_cp.1_20:
	.long	.L.str.22
.Lcpi_end23:
	.size	__arm_cp.1_20, .Lcpi_end23-__arm_cp.1_20
__arm_cp.1_21:
	.long	.L.str.23
.Lcpi_end24:
	.size	__arm_cp.1_21, .Lcpi_end24-__arm_cp.1_21
__arm_cp.1_22:
	.long	.L.str.24
.Lcpi_end25:
	.size	__arm_cp.1_22, .Lcpi_end25-__arm_cp.1_22
.Lfunc_end1:
	.size	ssl_write_client_hello, .Lfunc_end1-ssl_write_client_hello
	.cfi_endproc
	.cantunwind
	.fnend
                                        @ -- End function
	.section	.text.ssl_parse_server_hello,"ax",%progbits
	.p2align	2                               @ -- Begin function ssl_parse_server_hello
	.type	ssl_parse_server_hello,%function
	.code	16                              @ @ssl_parse_server_hello
	.thumb_func
ssl_parse_server_hello:
.Lfunc_begin2:
	.loc	12 1535 0 is_stmt 1             @ ../../../ThirdParty/mbedTLS/library/ssl_cli.c:1535:0
	.fnstart
	.cfi_startproc
@ %bb.0:
	@DEBUG_VALUE: ssl_parse_server_hello:ssl <- $r0
	.save	{r4, r5, r6, r7, lr}
	push	{r4, r5, r6, r7, lr}
	.cfi_def_cfa_offset 20
	.cfi_offset lr, -4
	.cfi_offset r7, -8
	.cfi_offset r6, -12
	.cfi_offset r5, -16
	.cfi_offset r4, -20
	.pad	#68
	sub	sp, #68
	.cfi_def_cfa_offset 88
	mov	r6, r0
.Ltmp240:
	@DEBUG_VALUE: ssl_parse_server_hello:handshake_failure <- 0
	@DEBUG_VALUE: ssl_parse_server_hello:renegotiation_info_seen <- 0
	@DEBUG_VALUE: ssl_parse_server_hello:ssl <- $r6
	.loc	12 1550 5 prologue_end          @ ../../../ThirdParty/mbedTLS/library/ssl_cli.c:1550:5
	adr	r0, .LCPI2_48
	str	r0, [sp]
	movs	r4, #2
	ldr	r2, .LCPI2_79
	ldr	r3, .LCPI2_80
	mov	r0, r6
	mov	r1, r4
	bl	mbedtls_debug_print_msg
	.loc	12 1552 16                      @ ../../../ThirdParty/mbedTLS/library/ssl_cli.c:1552:16
	ldr	r5, [r6, #112]
.Ltmp241:
	@DEBUG_VALUE: ssl_parse_server_hello:buf <- $r5
	.loc	12 0 16 is_stmt 0               @ ../../../ThirdParty/mbedTLS/library/ssl_cli.c:0:16
	movs	r7, #1
.Ltmp242:
	.loc	12 1554 17 is_stmt 1            @ ../../../ThirdParty/mbedTLS/library/ssl_cli.c:1554:17
	mov	r0, r6
	mov	r1, r7
	bl	mbedtls_ssl_read_record
.Ltmp243:
	@DEBUG_VALUE: ssl_parse_server_hello:ret <- $r0
	.loc	12 1554 9 is_stmt 0             @ ../../../ThirdParty/mbedTLS/library/ssl_cli.c:1554:9
	cbz	r0, .LBB2_3
.Ltmp244:
@ %bb.1:
	@DEBUG_VALUE: ssl_parse_server_hello:ssl <- $r6
	@DEBUG_VALUE: ssl_parse_server_hello:buf <- $r5
	@DEBUG_VALUE: ssl_parse_server_hello:ret <- $r0
	@DEBUG_VALUE: ssl_parse_server_hello:renegotiation_info_seen <- 0
	@DEBUG_VALUE: ssl_parse_server_hello:handshake_failure <- 0
	.loc	12 1557 9 is_stmt 1             @ ../../../ThirdParty/mbedTLS/library/ssl_cli.c:1557:9
	str	r0, [sp, #4]
	mov	r5, r0
.Ltmp245:
	@DEBUG_VALUE: ssl_parse_server_hello:ret <- $r5
	ldr	r0, __arm_cp.2_51
	str	r0, [sp]
	ldr	r0, .LCPI2_50
	adds	r3, r0, #7
	movs	r1, #1
	ldr	r2, .LCPI2_49
	mov	r0, r6
	bl	mbedtls_debug_print_ret
.Ltmp246:
.LBB2_2:
	@DEBUG_VALUE: ssl_parse_server_hello:renegotiation_info_seen <- 0
	@DEBUG_VALUE: ssl_parse_server_hello:handshake_failure <- 0
	.loc	12 0 9 is_stmt 0                @ ../../../ThirdParty/mbedTLS/library/ssl_cli.c:0:9
	mov	r0, r5
	.loc	12 2032 1 is_stmt 1             @ ../../../ThirdParty/mbedTLS/library/ssl_cli.c:2032:1
	add	sp, #68
	pop	{r4, r5, r6, r7, pc}
.Ltmp247:
.LBB2_3:
	@DEBUG_VALUE: ssl_parse_server_hello:ssl <- $r6
	@DEBUG_VALUE: ssl_parse_server_hello:buf <- $r5
	@DEBUG_VALUE: ssl_parse_server_hello:ret <- $r0
	@DEBUG_VALUE: ssl_parse_server_hello:renegotiation_info_seen <- 0
	@DEBUG_VALUE: ssl_parse_server_hello:handshake_failure <- 0
	.loc	12 0 1 is_stmt 0                @ ../../../ThirdParty/mbedTLS/library/ssl_cli.c:0:1
	str	r7, [sp, #64]                   @ 4-byte Spill
	mov	r7, r6
	adds	r7, #160
.Ltmp248:
	.loc	12 1561 14 is_stmt 1            @ ../../../ThirdParty/mbedTLS/library/ssl_cli.c:1561:14
	ldr	r0, [r6, #120]
.Ltmp249:
	.loc	12 1561 9 is_stmt 0             @ ../../../ThirdParty/mbedTLS/library/ssl_cli.c:1561:9
	cmp	r0, #22
	bne	.LBB2_7
.Ltmp250:
@ %bb.4:
	@DEBUG_VALUE: ssl_parse_server_hello:ssl <- $r6
	@DEBUG_VALUE: ssl_parse_server_hello:buf <- $r5
	@DEBUG_VALUE: ssl_parse_server_hello:renegotiation_info_seen <- 0
	@DEBUG_VALUE: ssl_parse_server_hello:handshake_failure <- 0
	.loc	12 0 9                          @ ../../../ThirdParty/mbedTLS/library/ssl_cli.c:0:9
	mov	r2, r4
.Ltmp251:
	.loc	12 1590 14 is_stmt 1            @ ../../../ThirdParty/mbedTLS/library/ssl_cli.c:1590:14
	ldr	r0, [r6]
	movs	r1, #172
	str	r1, [sp, #52]                   @ 4-byte Spill
	.loc	12 1590 20 is_stmt 0            @ ../../../ThirdParty/mbedTLS/library/ssl_cli.c:1590:20
	ldrh	r0, [r0, r1]
.Ltmp252:
	.loc	12 1590 9                       @ ../../../ThirdParty/mbedTLS/library/ssl_cli.c:1590:9
	lsls	r0, r0, #30
	mov	r4, r5
.Ltmp253:
	@DEBUG_VALUE: ssl_parse_server_hello:buf <- $r4
	.loc	12 0 9                          @ ../../../ThirdParty/mbedTLS/library/ssl_cli.c:0:9
	mov	r5, r2
	.loc	12 1590 9                       @ ../../../ThirdParty/mbedTLS/library/ssl_cli.c:1590:9
	str	r7, [sp, #56]                   @ 4-byte Spill
	bpl	.LBB2_14
.Ltmp254:
@ %bb.5:
	@DEBUG_VALUE: ssl_parse_server_hello:ssl <- $r6
	@DEBUG_VALUE: ssl_parse_server_hello:buf <- $r4
	@DEBUG_VALUE: ssl_parse_server_hello:renegotiation_info_seen <- 0
	@DEBUG_VALUE: ssl_parse_server_hello:handshake_failure <- 0
	.loc	12 1592 13 is_stmt 1            @ ../../../ThirdParty/mbedTLS/library/ssl_cli.c:1592:13
	ldrb	r0, [r4]
.Ltmp255:
	.loc	12 1592 13 is_stmt 0            @ ../../../ThirdParty/mbedTLS/library/ssl_cli.c:1592:13
	cmp	r0, #3
	bne	.LBB2_13
.Ltmp256:
@ %bb.6:
	@DEBUG_VALUE: ssl_parse_server_hello:ssl <- $r6
	@DEBUG_VALUE: ssl_parse_server_hello:buf <- $r4
	@DEBUG_VALUE: ssl_parse_server_hello:renegotiation_info_seen <- 0
	@DEBUG_VALUE: ssl_parse_server_hello:handshake_failure <- 0
	.loc	12 1594 13 is_stmt 1            @ ../../../ThirdParty/mbedTLS/library/ssl_cli.c:1594:13
	ldr	r0, __arm_cp.2_52
	str	r0, [sp]
	mov	r4, r6
.Ltmp257:
	@DEBUG_VALUE: ssl_parse_server_hello:ssl <- $r4
	.loc	12 0 13 is_stmt 0               @ ../../../ThirdParty/mbedTLS/library/ssl_cli.c:0:13
	ldr	r6, .LCPI2_50
	.loc	12 1594 13                      @ ../../../ThirdParty/mbedTLS/library/ssl_cli.c:1594:13
	mov	r3, r6
	adds	r3, #44
	movs	r5, #2
	ldr	r7, .LCPI2_49
	mov	r0, r4
	mov	r1, r5
	mov	r2, r7
	bl	mbedtls_debug_print_msg
	.loc	12 1595 13 is_stmt 1            @ ../../../ThirdParty/mbedTLS/library/ssl_cli.c:1595:13
	ldr	r0, .LCPI2_53
	str	r0, [sp]
	adds	r6, #45
	mov	r0, r4
	mov	r1, r5
	mov	r2, r7
	mov	r3, r6
	bl	mbedtls_debug_print_msg
	.loc	12 1596 21                      @ ../../../ThirdParty/mbedTLS/library/ssl_cli.c:1596:21
	mov	r0, r4
	bl	ssl_parse_hello_verify_request
.Ltmp258:
	.loc	12 2032 1                       @ ../../../ThirdParty/mbedTLS/library/ssl_cli.c:2032:1
	add	sp, #68
	pop	{r4, r5, r6, r7, pc}
.Ltmp259:
.LBB2_7:
	@DEBUG_VALUE: ssl_parse_server_hello:ssl <- $r6
	@DEBUG_VALUE: ssl_parse_server_hello:buf <- $r5
	@DEBUG_VALUE: ssl_parse_server_hello:renegotiation_info_seen <- 0
	@DEBUG_VALUE: ssl_parse_server_hello:handshake_failure <- 0
	.loc	12 1564 18                      @ ../../../ThirdParty/mbedTLS/library/ssl_cli.c:1564:18
	ldr	r0, [r6, #8]
.Ltmp260:
	.loc	12 1564 13 is_stmt 0            @ ../../../ThirdParty/mbedTLS/library/ssl_cli.c:1564:13
	cmp	r0, #1
	ldr	r4, [sp, #64]                   @ 4-byte Reload
	bne	.LBB2_11
.Ltmp261:
@ %bb.8:
	@DEBUG_VALUE: ssl_parse_server_hello:ssl <- $r6
	@DEBUG_VALUE: ssl_parse_server_hello:buf <- $r5
	@DEBUG_VALUE: ssl_parse_server_hello:renegotiation_info_seen <- 0
	@DEBUG_VALUE: ssl_parse_server_hello:handshake_failure <- 0
	.loc	12 1566 37 is_stmt 1            @ ../../../ThirdParty/mbedTLS/library/ssl_cli.c:1566:37
	ldr	r0, [r6, #12]
	adds	r1, r0, #1
	str	r1, [r6, #12]
.Ltmp262:
	.loc	12 1568 22                      @ ../../../ThirdParty/mbedTLS/library/ssl_cli.c:1568:22
	ldr	r1, [r6]
	movs	r2, #148
	.loc	12 1568 28 is_stmt 0            @ ../../../ThirdParty/mbedTLS/library/ssl_cli.c:1568:28
	ldr	r1, [r1, r2]
	.loc	12 1568 52                      @ ../../../ThirdParty/mbedTLS/library/ssl_cli.c:1568:52
	cmp	r1, #0
	bpl	.LBB2_9
	b	.LBB2_25
.Ltmp263:
.LBB2_9:
	@DEBUG_VALUE: ssl_parse_server_hello:ssl <- $r6
	@DEBUG_VALUE: ssl_parse_server_hello:buf <- $r5
	@DEBUG_VALUE: ssl_parse_server_hello:renegotiation_info_seen <- 0
	@DEBUG_VALUE: ssl_parse_server_hello:handshake_failure <- 0
	cmp	r0, r1
	bge	.LBB2_10
	b	.LBB2_25
.Ltmp264:
.LBB2_10:
	@DEBUG_VALUE: ssl_parse_server_hello:ssl <- $r6
	@DEBUG_VALUE: ssl_parse_server_hello:buf <- $r5
	@DEBUG_VALUE: ssl_parse_server_hello:renegotiation_info_seen <- 0
	@DEBUG_VALUE: ssl_parse_server_hello:handshake_failure <- 0
	.loc	12 1571 17 is_stmt 1            @ ../../../ThirdParty/mbedTLS/library/ssl_cli.c:1571:17
	adr	r0, .LCPI2_54
	str	r0, [sp]
	ldr	r3, .LCPI2_50
	adds	r3, #22
	movs	r1, #1
	ldr	r2, .LCPI2_49
	mov	r0, r6
	bl	mbedtls_debug_print_msg
	b	.LBB2_12
.Ltmp265:
.LBB2_11:
	@DEBUG_VALUE: ssl_parse_server_hello:ssl <- $r6
	@DEBUG_VALUE: ssl_parse_server_hello:buf <- $r5
	@DEBUG_VALUE: ssl_parse_server_hello:renegotiation_info_seen <- 0
	@DEBUG_VALUE: ssl_parse_server_hello:handshake_failure <- 0
	.loc	12 1583 9                       @ ../../../ThirdParty/mbedTLS/library/ssl_cli.c:1583:9
	ldr	r0, .LCPI2_55
	str	r0, [sp]
	ldr	r3, .LCPI2_50
	adds	r3, #33
	movs	r1, #1
	ldr	r2, .LCPI2_49
	mov	r0, r6
	bl	mbedtls_debug_print_msg
	movs	r1, #2
	movs	r2, #10
	.loc	12 1584 9                       @ ../../../ThirdParty/mbedTLS/library/ssl_cli.c:1584:9
	mov	r0, r6
	bl	mbedtls_ssl_send_alert_message
.Ltmp266:
.LBB2_12:
	@DEBUG_VALUE: ssl_parse_server_hello:ssl <- $r6
	@DEBUG_VALUE: ssl_parse_server_hello:buf <- $r5
	@DEBUG_VALUE: ssl_parse_server_hello:renegotiation_info_seen <- 0
	@DEBUG_VALUE: ssl_parse_server_hello:handshake_failure <- 0
	.loc	12 0 9 is_stmt 0                @ ../../../ThirdParty/mbedTLS/library/ssl_cli.c:0:9
	ldr	r0, __arm_cp.2_56
	.loc	12 2032 1 is_stmt 1             @ ../../../ThirdParty/mbedTLS/library/ssl_cli.c:2032:1
	add	sp, #68
	pop	{r4, r5, r6, r7, pc}
.Ltmp267:
.LBB2_13:
	@DEBUG_VALUE: ssl_parse_server_hello:ssl <- $r6
	@DEBUG_VALUE: ssl_parse_server_hello:buf <- $r4
	@DEBUG_VALUE: ssl_parse_server_hello:renegotiation_info_seen <- 0
	@DEBUG_VALUE: ssl_parse_server_hello:handshake_failure <- 0
	.loc	12 1601 32                      @ ../../../ThirdParty/mbedTLS/library/ssl_cli.c:1601:32
	ldr	r0, [r6, #60]
	movw	r7, #484
	.loc	12 1601 43 is_stmt 0            @ ../../../ThirdParty/mbedTLS/library/ssl_cli.c:1601:43
	ldr	r0, [r0, r7]
	.loc	12 1601 13                      @ ../../../ThirdParty/mbedTLS/library/ssl_cli.c:1601:13
	bl	free
	.loc	12 1602 18 is_stmt 1            @ ../../../ThirdParty/mbedTLS/library/ssl_cli.c:1602:18
	ldr	r0, [r6, #60]
	movs	r1, #0
	.loc	12 1602 43 is_stmt 0            @ ../../../ThirdParty/mbedTLS/library/ssl_cli.c:1602:43
	str	r1, [r0, r7]
	.loc	12 1602 29                      @ ../../../ThirdParty/mbedTLS/library/ssl_cli.c:1602:29
	adds	r0, r0, r7
	ldr	r7, [sp, #56]                   @ 4-byte Reload
	.loc	12 1603 47 is_stmt 1            @ ../../../ThirdParty/mbedTLS/library/ssl_cli.c:1603:47
	strb	r1, [r0, #4]
.Ltmp268:
.LBB2_14:
	@DEBUG_VALUE: ssl_parse_server_hello:ssl <- $r6
	@DEBUG_VALUE: ssl_parse_server_hello:buf <- $r4
	@DEBUG_VALUE: ssl_parse_server_hello:renegotiation_info_seen <- 0
	@DEBUG_VALUE: ssl_parse_server_hello:handshake_failure <- 0
	.loc	12 1608 14                      @ ../../../ThirdParty/mbedTLS/library/ssl_cli.c:1608:14
	ldr	r7, [r7]
	str	r6, [sp, #60]                   @ 4-byte Spill
.Ltmp269:
	@DEBUG_VALUE: ssl_parse_server_hello:ssl <- [DW_OP_plus_uconst 60] [$sp+0]
	.loc	12 1608 30 is_stmt 0            @ ../../../ThirdParty/mbedTLS/library/ssl_cli.c:1608:30
	mov	r0, r6
	bl	mbedtls_ssl_hs_hdr_len
	.loc	12 1608 28                      @ ../../../ThirdParty/mbedTLS/library/ssl_cli.c:1608:28
	mov	r1, r0
	adds	r1, #38
	.loc	12 1608 60                      @ ../../../ThirdParty/mbedTLS/library/ssl_cli.c:1608:60
	cmp	r7, r1
	blo	.LBB2_21
.Ltmp270:
@ %bb.15:
	@DEBUG_VALUE: ssl_parse_server_hello:ssl <- [DW_OP_plus_uconst 60] [$sp+0]
	@DEBUG_VALUE: ssl_parse_server_hello:buf <- $r4
	@DEBUG_VALUE: ssl_parse_server_hello:renegotiation_info_seen <- 0
	@DEBUG_VALUE: ssl_parse_server_hello:handshake_failure <- 0
	.loc	12 1609 13 is_stmt 1            @ ../../../ThirdParty/mbedTLS/library/ssl_cli.c:1609:13
	ldrb	r1, [r4]
.Ltmp271:
	.loc	12 1608 9                       @ ../../../ThirdParty/mbedTLS/library/ssl_cli.c:1608:9
	cmp	r1, #2
	bne	.LBB2_21
.Ltmp272:
@ %bb.16:
	@DEBUG_VALUE: ssl_parse_server_hello:ssl <- [DW_OP_plus_uconst 60] [$sp+0]
	@DEBUG_VALUE: ssl_parse_server_hello:buf <- $r4
	@DEBUG_VALUE: ssl_parse_server_hello:renegotiation_info_seen <- 0
	@DEBUG_VALUE: ssl_parse_server_hello:handshake_failure <- 0
	.loc	12 1630 5                       @ ../../../ThirdParty/mbedTLS/library/ssl_cli.c:1630:5
	adr	r1, .LCPI2_57
	.loc	12 1628 9                       @ ../../../ThirdParty/mbedTLS/library/ssl_cli.c:1628:9
	adds	r6, r4, r0
.Ltmp273:
	@DEBUG_VALUE: ssl_parse_server_hello:buf <- $r6
	.loc	12 1630 5                       @ ../../../ThirdParty/mbedTLS/library/ssl_cli.c:1630:5
	str	r1, [sp]
	str	r6, [sp, #4]
	str	r5, [sp, #8]
	ldr	r7, .LCPI2_50
	mov	r3, r7
	adds	r3, #80
	movs	r1, #3
	ldr	r2, .LCPI2_49
	ldr	r4, [sp, #60]                   @ 4-byte Reload
.Ltmp274:
	@DEBUG_VALUE: ssl_parse_server_hello:ssl <- $r4
	mov	r0, r4
	bl	mbedtls_debug_print_buf
	.loc	12 1632 36                      @ ../../../ThirdParty/mbedTLS/library/ssl_cli.c:1632:36
	ldr	r0, [r4]
	.loc	12 1632 42 is_stmt 0            @ ../../../ThirdParty/mbedTLS/library/ssl_cli.c:1632:42
	ldr	r1, [sp, #52]                   @ 4-byte Reload
	ldrh	r0, [r0, r1]
	lsls	r0, r0, #30
	lsrs	r2, r0, #31
	.loc	12 1631 37 is_stmt 1            @ ../../../ThirdParty/mbedTLS/library/ssl_cli.c:1631:37
	mov	r0, r4
	adds	r0, #16
	.loc	12 1631 54 is_stmt 0            @ ../../../ThirdParty/mbedTLS/library/ssl_cli.c:1631:54
	mov	r5, r4
	adds	r5, #20
	.loc	12 1631 5                       @ ../../../ThirdParty/mbedTLS/library/ssl_cli.c:1631:5
	mov	r1, r5
	mov	r3, r6
	bl	mbedtls_ssl_read_version
.Ltmp275:
	.loc	12 1634 31 is_stmt 1            @ ../../../ThirdParty/mbedTLS/library/ssl_cli.c:1634:31
	ldr	r2, [r4]
	movs	r0, #170
	.loc	12 1634 37 is_stmt 0            @ ../../../ThirdParty/mbedTLS/library/ssl_cli.c:1634:37
	ldrb	r0, [r2, r0]
	.loc	12 1634 14                      @ ../../../ThirdParty/mbedTLS/library/ssl_cli.c:1634:14
	ldr	r1, [r4, #16]
	.loc	12 1634 37                      @ ../../../ThirdParty/mbedTLS/library/ssl_cli.c:1634:37
	adds	r2, #168
	.loc	12 1634 51                      @ ../../../ThirdParty/mbedTLS/library/ssl_cli.c:1634:51
	cmp	r1, r0
	blt	.LBB2_20
.Ltmp276:
@ %bb.17:
	@DEBUG_VALUE: ssl_parse_server_hello:buf <- $r6
	@DEBUG_VALUE: ssl_parse_server_hello:ssl <- $r4
	@DEBUG_VALUE: ssl_parse_server_hello:renegotiation_info_seen <- 0
	@DEBUG_VALUE: ssl_parse_server_hello:handshake_failure <- 0
	.loc	12 1635 18 is_stmt 1            @ ../../../ThirdParty/mbedTLS/library/ssl_cli.c:1635:18
	ldr	r3, [r5]
	.loc	12 1635 41 is_stmt 0            @ ../../../ThirdParty/mbedTLS/library/ssl_cli.c:1635:41
	ldrb	r4, [r2, #3]
.Ltmp277:
	.loc	12 1635 55                      @ ../../../ThirdParty/mbedTLS/library/ssl_cli.c:1635:55
	cmp	r3, r4
	blt	.LBB2_20
.Ltmp278:
@ %bb.18:
	@DEBUG_VALUE: ssl_parse_server_hello:buf <- $r6
	@DEBUG_VALUE: ssl_parse_server_hello:renegotiation_info_seen <- 0
	@DEBUG_VALUE: ssl_parse_server_hello:handshake_failure <- 0
	.loc	12 1636 41 is_stmt 1            @ ../../../ThirdParty/mbedTLS/library/ssl_cli.c:1636:41
	ldrb	r4, [r2]
	.loc	12 1636 55 is_stmt 0            @ ../../../ThirdParty/mbedTLS/library/ssl_cli.c:1636:55
	cmp	r1, r4
	bgt	.LBB2_20
.Ltmp279:
@ %bb.19:
	@DEBUG_VALUE: ssl_parse_server_hello:buf <- $r6
	@DEBUG_VALUE: ssl_parse_server_hello:renegotiation_info_seen <- 0
	@DEBUG_VALUE: ssl_parse_server_hello:handshake_failure <- 0
	.loc	12 1637 41 is_stmt 1            @ ../../../ThirdParty/mbedTLS/library/ssl_cli.c:1637:41
	ldrb	r4, [r2, #1]
.Ltmp280:
	.loc	12 1634 9                       @ ../../../ThirdParty/mbedTLS/library/ssl_cli.c:1634:9
	cmp	r3, r4
	ble	.LBB2_26
.Ltmp281:
.LBB2_20:
	@DEBUG_VALUE: ssl_parse_server_hello:buf <- $r6
	@DEBUG_VALUE: ssl_parse_server_hello:renegotiation_info_seen <- 0
	@DEBUG_VALUE: ssl_parse_server_hello:handshake_failure <- 0
	.loc	12 1639 9                       @ ../../../ThirdParty/mbedTLS/library/ssl_cli.c:1639:9
	ldrb	r3, [r2, #3]
	ldr	r6, [sp, #60]                   @ 4-byte Reload
.Ltmp282:
	ldr	r4, [r6, #20]
	ldrb	r5, [r2]
	ldrb	r2, [r2, #1]
	str	r2, [sp, #24]
	add	r2, sp, #12
	stm	r2!, {r1, r4, r5}
	str	r3, [sp, #8]
	str	r0, [sp, #4]
	ldr	r0, __arm_cp.2_58
	str	r0, [sp]
	adds	r7, #93
	movs	r1, #1
	ldr	r2, .LCPI2_49
	mov	r0, r6
	mov	r3, r7
	bl	mbedtls_debug_print_msg
	movs	r1, #2
	movs	r2, #70
	.loc	12 1645 9                       @ ../../../ThirdParty/mbedTLS/library/ssl_cli.c:1645:9
	mov	r0, r6
	bl	mbedtls_ssl_send_alert_message
	ldr	r0, __arm_cp.2_59
.Ltmp283:
	.loc	12 2032 1                       @ ../../../ThirdParty/mbedTLS/library/ssl_cli.c:2032:1
	add	sp, #68
	pop	{r4, r5, r6, r7, pc}
.Ltmp284:
.LBB2_21:
	@DEBUG_VALUE: ssl_parse_server_hello:ssl <- [DW_OP_plus_uconst 60] [$sp+0]
	@DEBUG_VALUE: ssl_parse_server_hello:buf <- $r4
	@DEBUG_VALUE: ssl_parse_server_hello:renegotiation_info_seen <- 0
	@DEBUG_VALUE: ssl_parse_server_hello:handshake_failure <- 0
	.loc	12 1611 9                       @ ../../../ThirdParty/mbedTLS/library/ssl_cli.c:1611:9
	ldr	r0, .LCPI2_55
	str	r0, [sp]
	ldr	r3, .LCPI2_50
	adds	r3, #61
	movs	r1, #1
	ldr	r2, .LCPI2_49
	ldr	r4, [sp, #60]                   @ 4-byte Reload
.Ltmp285:
	@DEBUG_VALUE: ssl_parse_server_hello:ssl <- $r4
	mov	r0, r4
.Ltmp286:
.LBB2_22:
	@DEBUG_VALUE: ssl_parse_server_hello:renegotiation_info_seen <- 0
	@DEBUG_VALUE: ssl_parse_server_hello:handshake_failure <- 0
	.loc	12 0 0 is_stmt 0                @ ../../../ThirdParty/mbedTLS/library/ssl_cli.c:0:0
	bl	mbedtls_debug_print_msg
	movs	r1, #2
	movs	r2, #50
.Ltmp287:
.LBB2_23:
	@DEBUG_VALUE: ssl_parse_server_hello:renegotiation_info_seen <- 0
	@DEBUG_VALUE: ssl_parse_server_hello:handshake_failure <- 0
	mov	r0, r4
.Ltmp288:
.LBB2_24:
	bl	mbedtls_ssl_send_alert_message
	ldr	r0, .LCPI2_60
	.loc	12 2032 1 is_stmt 1             @ ../../../ThirdParty/mbedTLS/library/ssl_cli.c:2032:1
	add	sp, #68
	pop	{r4, r5, r6, r7, pc}
.LBB2_25:
.Ltmp289:
	@DEBUG_VALUE: ssl_parse_server_hello:ssl <- $r6
	@DEBUG_VALUE: ssl_parse_server_hello:buf <- $r5
	@DEBUG_VALUE: ssl_parse_server_hello:renegotiation_info_seen <- 0
	@DEBUG_VALUE: ssl_parse_server_hello:handshake_failure <- 0
	.loc	12 1576 13                      @ ../../../ThirdParty/mbedTLS/library/ssl_cli.c:1576:13
	adr	r0, .LCPI2_61
	str	r0, [sp]
	ldr	r3, .LCPI2_50
	adds	r3, #26
	ldr	r2, .LCPI2_49
	mov	r0, r6
	mov	r1, r4
	bl	mbedtls_debug_print_msg
	.loc	12 1578 39                      @ ../../../ThirdParty/mbedTLS/library/ssl_cli.c:1578:39
	str	r4, [r7, #8]
	ldr	r0, __arm_cp.2_62
.Ltmp290:
	.loc	12 2032 1                       @ ../../../ThirdParty/mbedTLS/library/ssl_cli.c:2032:1
	add	sp, #68
	pop	{r4, r5, r6, r7, pc}
.Ltmp291:
.LBB2_26:
	@DEBUG_VALUE: ssl_parse_server_hello:buf <- $r6
	@DEBUG_VALUE: ssl_parse_server_hello:renegotiation_info_seen <- 0
	@DEBUG_VALUE: ssl_parse_server_hello:handshake_failure <- 0
	.loc	12 1651 5                       @ ../../../ThirdParty/mbedTLS/library/ssl_cli.c:1651:5
	ldrb	r0, [r6, #5]
	ldrb	r1, [r6, #4]
	ldrb	r2, [r6, #3]
	ldrb	r3, [r6, #2]
	ldr	r4, __arm_cp.2_63
	lsls	r3, r3, #24
	lsls	r2, r2, #16
	adds	r2, r2, r3
	lsls	r1, r1, #8
	adds	r1, r2, r1
	adds	r0, r1, r0
	str	r4, [sp]
	str	r0, [sp, #4]
	adds	r7, #105
	movs	r1, #3
	str	r1, [sp, #44]                   @ 4-byte Spill
	ldr	r2, .LCPI2_49
	ldr	r4, [sp, #60]                   @ 4-byte Reload
	mov	r0, r4
	mov	r3, r7
	bl	mbedtls_debug_print_msg
	.loc	12 1657 18                      @ ../../../ThirdParty/mbedTLS/library/ssl_cli.c:1657:18
	ldr	r0, [r4, #60]
	ldr	r1, __arm_cp.2_64
	.loc	12 1657 39 is_stmt 0            @ ../../../ThirdParty/mbedTLS/library/ssl_cli.c:1657:39
	adds	r0, r0, r1
	.loc	12 1651 5 is_stmt 1             @ ../../../ThirdParty/mbedTLS/library/ssl_cli.c:1651:5
	adds	r7, r6, #2
	movs	r5, #32
	.loc	12 1657 5                       @ ../../../ThirdParty/mbedTLS/library/ssl_cli.c:1657:5
	mov	r1, r7
	mov	r2, r5
	bl	__aeabi_memcpy
	movs	r0, #34
	.loc	12 1659 9                       @ ../../../ThirdParty/mbedTLS/library/ssl_cli.c:1659:9
	ldrb	r0, [r6, r0]
	.loc	12 1661 5                       @ ../../../ThirdParty/mbedTLS/library/ssl_cli.c:1661:5
	str	r0, [sp, #48]                   @ 4-byte Spill
	str	r5, [sp, #8]
	str	r7, [sp, #4]
	ldr	r7, .LCPI2_50
	ldr	r0, __arm_cp.2_65
	str	r0, [sp]
.Ltmp292:
	@DEBUG_VALUE: ssl_parse_server_hello:n <- [DW_OP_plus_uconst 48] [$sp+0]
	mov	r3, r7
	adds	r3, #111
	mov	r0, r4
	ldr	r1, [sp, #44]                   @ 4-byte Reload
	ldr	r2, .LCPI2_49
	bl	mbedtls_debug_print_buf
	ldr	r0, [sp, #48]                   @ 4-byte Reload
.Ltmp293:
	@DEBUG_VALUE: ssl_parse_server_hello:n <- $r0
	.loc	12 1663 9                       @ ../../../ThirdParty/mbedTLS/library/ssl_cli.c:1663:9
	cmp	r0, #33
	blo	.LBB2_28
.Ltmp294:
@ %bb.27:
	@DEBUG_VALUE: ssl_parse_server_hello:buf <- $r6
	@DEBUG_VALUE: ssl_parse_server_hello:n <- $r0
	@DEBUG_VALUE: ssl_parse_server_hello:renegotiation_info_seen <- 0
	@DEBUG_VALUE: ssl_parse_server_hello:handshake_failure <- 0
	.loc	12 1665 9                       @ ../../../ThirdParty/mbedTLS/library/ssl_cli.c:1665:9
	ldr	r0, .LCPI2_55
.Ltmp295:
	str	r0, [sp]
	adds	r7, #115
	movs	r1, #1
	ldr	r2, .LCPI2_49
	b	.LBB2_37
.Ltmp296:
.LBB2_28:
	@DEBUG_VALUE: ssl_parse_server_hello:buf <- $r6
	@DEBUG_VALUE: ssl_parse_server_hello:n <- $r0
	@DEBUG_VALUE: ssl_parse_server_hello:renegotiation_info_seen <- 0
	@DEBUG_VALUE: ssl_parse_server_hello:handshake_failure <- 0
	.loc	12 1671 14                      @ ../../../ThirdParty/mbedTLS/library/ssl_cli.c:1671:14
	ldr	r0, [sp, #56]                   @ 4-byte Reload
.Ltmp297:
	ldr	r5, [r0]
	.loc	12 1671 25 is_stmt 0            @ ../../../ThirdParty/mbedTLS/library/ssl_cli.c:1671:25
	mov	r0, r4
	bl	mbedtls_ssl_hs_hdr_len
	ldr	r3, [sp, #48]                   @ 4-byte Reload
	.loc	12 1671 55                      @ ../../../ThirdParty/mbedTLS/library/ssl_cli.c:1671:55
	adds	r4, r0, r3
	.loc	12 1671 60                      @ ../../../ThirdParty/mbedTLS/library/ssl_cli.c:1671:60
	mov	r1, r4
	adds	r1, #39
.Ltmp298:
	.loc	12 1671 9                       @ ../../../ThirdParty/mbedTLS/library/ssl_cli.c:1671:9
	cmp	r5, r1
	bls	.LBB2_32
.Ltmp299:
@ %bb.29:
	@DEBUG_VALUE: ssl_parse_server_hello:buf <- $r6
	@DEBUG_VALUE: ssl_parse_server_hello:renegotiation_info_seen <- 0
	@DEBUG_VALUE: ssl_parse_server_hello:handshake_failure <- 0
	.loc	12 1673 30 is_stmt 1            @ ../../../ThirdParty/mbedTLS/library/ssl_cli.c:1673:30
	adds	r1, r3, r6
	movs	r2, #39
	.loc	12 1674 25                      @ ../../../ThirdParty/mbedTLS/library/ssl_cli.c:1674:25
	ldrb	r2, [r1, r2]
	movs	r3, #38
	.loc	12 1673 23                      @ ../../../ThirdParty/mbedTLS/library/ssl_cli.c:1673:23
	ldrb	r1, [r1, r3]
	ldr	r3, [sp, #48]                   @ 4-byte Reload
	.loc	12 1673 35 is_stmt 0            @ ../../../ThirdParty/mbedTLS/library/ssl_cli.c:1673:35
	lsls	r1, r1, #8
	.loc	12 1674 21 is_stmt 1            @ ../../../ThirdParty/mbedTLS/library/ssl_cli.c:1674:21
	adds	r2, r1, r2
.Ltmp300:
	@DEBUG_VALUE: ssl_parse_server_hello:ext_len <- $r2
	.loc	12 1676 27                      @ ../../../ThirdParty/mbedTLS/library/ssl_cli.c:1676:27
	subs	r1, r2, #1
	cmp	r1, #3
	ldr	r0, [sp, #60]                   @ 4-byte Reload
	blo	.LBB2_31
.Ltmp301:
@ %bb.30:
	@DEBUG_VALUE: ssl_parse_server_hello:buf <- $r6
	@DEBUG_VALUE: ssl_parse_server_hello:ext_len <- $r2
	@DEBUG_VALUE: ssl_parse_server_hello:renegotiation_info_seen <- 0
	@DEBUG_VALUE: ssl_parse_server_hello:handshake_failure <- 0
	.loc	12 1677 69                      @ ../../../ThirdParty/mbedTLS/library/ssl_cli.c:1677:69
	adds	r1, r4, r2
	.loc	12 1677 73 is_stmt 0            @ ../../../ThirdParty/mbedTLS/library/ssl_cli.c:1677:73
	adds	r1, #40
.Ltmp302:
	.loc	12 1676 13 is_stmt 1            @ ../../../ThirdParty/mbedTLS/library/ssl_cli.c:1676:13
	cmp	r5, r1
	beq	.LBB2_34
.Ltmp303:
.LBB2_31:
	@DEBUG_VALUE: ssl_parse_server_hello:buf <- $r6
	@DEBUG_VALUE: ssl_parse_server_hello:ext_len <- $r2
	@DEBUG_VALUE: ssl_parse_server_hello:renegotiation_info_seen <- 0
	@DEBUG_VALUE: ssl_parse_server_hello:handshake_failure <- 0
	.loc	12 1679 13                      @ ../../../ThirdParty/mbedTLS/library/ssl_cli.c:1679:13
	ldr	r1, .LCPI2_55
	str	r1, [sp]
	adds	r7, #129
	movs	r1, #1
	ldr	r2, .LCPI2_49
.Ltmp304:
	.loc	12 0 13 is_stmt 0               @ ../../../ThirdParty/mbedTLS/library/ssl_cli.c:0:13
	mov	r4, r0
	b	.LBB2_38
.Ltmp305:
.LBB2_32:
	@DEBUG_VALUE: ssl_parse_server_hello:buf <- $r6
	@DEBUG_VALUE: ssl_parse_server_hello:renegotiation_info_seen <- 0
	@DEBUG_VALUE: ssl_parse_server_hello:handshake_failure <- 0
	.loc	12 1685 66 is_stmt 1            @ ../../../ThirdParty/mbedTLS/library/ssl_cli.c:1685:66
	adds	r4, #38
.Ltmp306:
	.loc	12 1685 14 is_stmt 0            @ ../../../ThirdParty/mbedTLS/library/ssl_cli.c:1685:14
	cmp	r5, r4
	bne	.LBB2_36
.Ltmp307:
@ %bb.33:
	@DEBUG_VALUE: ssl_parse_server_hello:buf <- $r6
	@DEBUG_VALUE: ssl_parse_server_hello:renegotiation_info_seen <- 0
	@DEBUG_VALUE: ssl_parse_server_hello:handshake_failure <- 0
	.loc	12 0 14                         @ ../../../ThirdParty/mbedTLS/library/ssl_cli.c:0:14
	movs	r2, #0
	ldr	r0, [sp, #60]                   @ 4-byte Reload
.Ltmp308:
.LBB2_34:
	@DEBUG_VALUE: ssl_parse_server_hello:buf <- $r6
	@DEBUG_VALUE: ssl_parse_server_hello:renegotiation_info_seen <- 0
	@DEBUG_VALUE: ssl_parse_server_hello:handshake_failure <- 0
	@DEBUG_VALUE: ssl_parse_server_hello:ext_len <- $r2
	@DEBUG_VALUE: ssl_parse_server_hello:i <- undef
	.loc	12 1703 19 is_stmt 1            @ ../../../ThirdParty/mbedTLS/library/ssl_cli.c:1703:19
	mov	r5, r3
	adds	r5, #37
	.loc	12 1703 12 is_stmt 0            @ ../../../ThirdParty/mbedTLS/library/ssl_cli.c:1703:12
	ldrb	r1, [r6, r5]
.Ltmp309:
	@DEBUG_VALUE: ssl_parse_server_hello:comp <- undef
	.loc	12 1717 9 is_stmt 1             @ ../../../ThirdParty/mbedTLS/library/ssl_cli.c:1717:9
	cbz	r1, .LBB2_39
.Ltmp310:
@ %bb.35:
	@DEBUG_VALUE: ssl_parse_server_hello:buf <- $r6
	@DEBUG_VALUE: ssl_parse_server_hello:ext_len <- $r2
	@DEBUG_VALUE: ssl_parse_server_hello:renegotiation_info_seen <- 0
	@DEBUG_VALUE: ssl_parse_server_hello:handshake_failure <- 0
	.loc	12 1720 9                       @ ../../../ThirdParty/mbedTLS/library/ssl_cli.c:1720:9
	str	r1, [sp, #4]
	ldr	r1, __arm_cp.2_66
	str	r1, [sp]
	adds	r7, #170
	movs	r1, #1
	ldr	r2, .LCPI2_49
.Ltmp311:
	.loc	12 0 9 is_stmt 0                @ ../../../ThirdParty/mbedTLS/library/ssl_cli.c:0:9
	mov	r4, r0
	.loc	12 1720 9                       @ ../../../ThirdParty/mbedTLS/library/ssl_cli.c:1720:9
	mov	r3, r7
	bl	mbedtls_debug_print_msg
	movs	r1, #2
	movs	r2, #47
	.loc	12 1721 9 is_stmt 1             @ ../../../ThirdParty/mbedTLS/library/ssl_cli.c:1721:9
	mov	r0, r4
	bl	mbedtls_ssl_send_alert_message
	ldr	r0, __arm_cp.2_67
.Ltmp312:
	.loc	12 0 0 is_stmt 0                @ ../../../ThirdParty/mbedTLS/library/ssl_cli.c:0:0
	adds	r0, #128
	.loc	12 2032 1 is_stmt 1             @ ../../../ThirdParty/mbedTLS/library/ssl_cli.c:2032:1
	add	sp, #68
	pop	{r4, r5, r6, r7, pc}
.Ltmp313:
.LBB2_36:
	@DEBUG_VALUE: ssl_parse_server_hello:buf <- $r6
	@DEBUG_VALUE: ssl_parse_server_hello:renegotiation_info_seen <- 0
	@DEBUG_VALUE: ssl_parse_server_hello:handshake_failure <- 0
	.loc	12 1691 9                       @ ../../../ThirdParty/mbedTLS/library/ssl_cli.c:1691:9
	ldr	r0, .LCPI2_55
	str	r0, [sp]
	adds	r7, #141
	movs	r1, #1
	ldr	r2, .LCPI2_49
	ldr	r4, [sp, #60]                   @ 4-byte Reload
.Ltmp314:
.LBB2_37:
	@DEBUG_VALUE: ssl_parse_server_hello:buf <- $r6
	@DEBUG_VALUE: ssl_parse_server_hello:renegotiation_info_seen <- 0
	@DEBUG_VALUE: ssl_parse_server_hello:handshake_failure <- 0
	.loc	12 0 0 is_stmt 0                @ ../../../ThirdParty/mbedTLS/library/ssl_cli.c:0:0
	mov	r0, r4
.Ltmp315:
.LBB2_38:
	@DEBUG_VALUE: ssl_parse_server_hello:buf <- $r6
	@DEBUG_VALUE: ssl_parse_server_hello:renegotiation_info_seen <- 0
	@DEBUG_VALUE: ssl_parse_server_hello:handshake_failure <- 0
	mov	r3, r7
	b	.LBB2_22
.Ltmp316:
.LBB2_39:
	@DEBUG_VALUE: ssl_parse_server_hello:buf <- $r6
	@DEBUG_VALUE: ssl_parse_server_hello:ext_len <- $r2
	@DEBUG_VALUE: ssl_parse_server_hello:renegotiation_info_seen <- 0
	@DEBUG_VALUE: ssl_parse_server_hello:handshake_failure <- 0
	str	r2, [sp, #44]                   @ 4-byte Spill
.Ltmp317:
	@DEBUG_VALUE: ssl_parse_server_hello:ext_len <- [DW_OP_plus_uconst 44] [$sp+0]
	adds	r2, r3, r6
	movs	r0, #36
	ldrb	r0, [r2, r0]
	movs	r1, #35
	str	r2, [sp, #40]                   @ 4-byte Spill
	ldrb	r1, [r2, r1]
	lsls	r1, r1, #8
	adds	r0, r1, r0
.Ltmp318:
	@DEBUG_VALUE: ssl_parse_server_hello:i <- $r0
	str	r0, [sp, #36]                   @ 4-byte Spill
.Ltmp319:
	@DEBUG_VALUE: ssl_parse_server_hello:i <- [DW_OP_plus_uconst 36] [$sp+0]
	mov	r4, r3
	.loc	12 1729 50 is_stmt 1            @ ../../../ThirdParty/mbedTLS/library/ssl_cli.c:1729:50
	bl	mbedtls_ssl_ciphersuite_from_id
	ldr	r3, [sp, #60]                   @ 4-byte Reload
	mov	r1, r0
	.loc	12 1729 10 is_stmt 0            @ ../../../ThirdParty/mbedTLS/library/ssl_cli.c:1729:10
	ldr	r0, [r3, #76]
	.loc	12 1729 48                      @ ../../../ThirdParty/mbedTLS/library/ssl_cli.c:1729:48
	str	r1, [r0]
	.loc	12 1731 9 is_stmt 1             @ ../../../ThirdParty/mbedTLS/library/ssl_cli.c:1731:9
	cmp	r1, #0
	beq	.LBB2_52
.Ltmp320:
@ %bb.40:
	@DEBUG_VALUE: ssl_parse_server_hello:ext_len <- [DW_OP_plus_uconst 44] [$sp+0]
	@DEBUG_VALUE: ssl_parse_server_hello:buf <- $r6
	@DEBUG_VALUE: ssl_parse_server_hello:i <- [DW_OP_plus_uconst 36] [$sp+0]
	@DEBUG_VALUE: ssl_parse_server_hello:renegotiation_info_seen <- 0
	@DEBUG_VALUE: ssl_parse_server_hello:handshake_failure <- 0
	.loc	12 1739 5                       @ ../../../ThirdParty/mbedTLS/library/ssl_cli.c:1739:5
	mov	r0, r3
	bl	mbedtls_ssl_optimize_checksum
	.loc	12 1741 5                       @ ../../../ThirdParty/mbedTLS/library/ssl_cli.c:1741:5
	str	r4, [sp, #4]
	ldr	r0, __arm_cp.2_68
	str	r0, [sp]
	mov	r3, r7
	adds	r3, #191
	movs	r7, #3
	ldr	r2, .LCPI2_49
	ldr	r0, [sp, #60]                   @ 4-byte Reload
	mov	r1, r7
	bl	mbedtls_debug_print_msg
	.loc	12 1742 5                       @ ../../../ThirdParty/mbedTLS/library/ssl_cli.c:1742:5
	str	r4, [sp, #8]
	mov	r0, r6
	adds	r0, #35
	str	r0, [sp, #32]                   @ 4-byte Spill
	str	r0, [sp, #4]
	ldr	r0, __arm_cp.2_69
	str	r0, [sp]
	ldr	r3, .LCPI2_50
	adds	r3, #192
	ldr	r0, [sp, #60]                   @ 4-byte Reload
	mov	r1, r7
	ldr	r2, .LCPI2_49
	bl	mbedtls_debug_print_buf
	ldr	r3, [sp, #60]                   @ 4-byte Reload
.Ltmp321:
	.loc	12 1747 14                      @ ../../../ThirdParty/mbedTLS/library/ssl_cli.c:1747:14
	ldr	r7, [r3, #60]
	ldr	r2, __arm_cp.2_70
	.loc	12 1747 37 is_stmt 0            @ ../../../ThirdParty/mbedTLS/library/ssl_cli.c:1747:37
	cbz	r4, .LBB2_47
.Ltmp322:
@ %bb.41:
	@DEBUG_VALUE: ssl_parse_server_hello:ext_len <- [DW_OP_plus_uconst 44] [$sp+0]
	@DEBUG_VALUE: ssl_parse_server_hello:buf <- $r6
	@DEBUG_VALUE: ssl_parse_server_hello:i <- [DW_OP_plus_uconst 36] [$sp+0]
	@DEBUG_VALUE: ssl_parse_server_hello:renegotiation_info_seen <- 0
	@DEBUG_VALUE: ssl_parse_server_hello:handshake_failure <- 0
	.loc	12 0 0                          @ ../../../ThirdParty/mbedTLS/library/ssl_cli.c:0:0
	ldr	r0, [r7, r2]
	.loc	12 1747 37                      @ ../../../ThirdParty/mbedTLS/library/ssl_cli.c:1747:37
	cbz	r0, .LBB2_47
.Ltmp323:
@ %bb.42:
	@DEBUG_VALUE: ssl_parse_server_hello:ext_len <- [DW_OP_plus_uconst 44] [$sp+0]
	@DEBUG_VALUE: ssl_parse_server_hello:buf <- $r6
	@DEBUG_VALUE: ssl_parse_server_hello:i <- [DW_OP_plus_uconst 36] [$sp+0]
	@DEBUG_VALUE: ssl_parse_server_hello:renegotiation_info_seen <- 0
	@DEBUG_VALUE: ssl_parse_server_hello:handshake_failure <- 0
	.loc	12 1749 18 is_stmt 1            @ ../../../ThirdParty/mbedTLS/library/ssl_cli.c:1749:18
	ldr	r0, [r3, #8]
	.loc	12 1749 65 is_stmt 0            @ ../../../ThirdParty/mbedTLS/library/ssl_cli.c:1749:65
	cbnz	r0, .LBB2_47
.Ltmp324:
@ %bb.43:
	@DEBUG_VALUE: ssl_parse_server_hello:ext_len <- [DW_OP_plus_uconst 44] [$sp+0]
	@DEBUG_VALUE: ssl_parse_server_hello:buf <- $r6
	@DEBUG_VALUE: ssl_parse_server_hello:i <- [DW_OP_plus_uconst 36] [$sp+0]
	@DEBUG_VALUE: ssl_parse_server_hello:renegotiation_info_seen <- 0
	@DEBUG_VALUE: ssl_parse_server_hello:handshake_failure <- 0
	.loc	12 1751 18 is_stmt 1            @ ../../../ThirdParty/mbedTLS/library/ssl_cli.c:1751:18
	ldr	r0, [r3, #56]
	.loc	12 1751 37 is_stmt 0            @ ../../../ThirdParty/mbedTLS/library/ssl_cli.c:1751:37
	ldr	r1, [r0]
	mov	r4, r2
	.loc	12 1751 54                      @ ../../../ThirdParty/mbedTLS/library/ssl_cli.c:1751:54
	ldr	r2, [sp, #36]                   @ 4-byte Reload
	cmp	r1, r2
	mov	r2, r4
	bne	.LBB2_47
.Ltmp325:
@ %bb.44:
	@DEBUG_VALUE: ssl_parse_server_hello:ext_len <- [DW_OP_plus_uconst 44] [$sp+0]
	@DEBUG_VALUE: ssl_parse_server_hello:buf <- $r6
	@DEBUG_VALUE: ssl_parse_server_hello:i <- [DW_OP_plus_uconst 36] [$sp+0]
	@DEBUG_VALUE: ssl_parse_server_hello:renegotiation_info_seen <- 0
	@DEBUG_VALUE: ssl_parse_server_hello:handshake_failure <- 0
	.loc	12 1752 37 is_stmt 1            @ ../../../ThirdParty/mbedTLS/library/ssl_cli.c:1752:37
	ldr	r1, [r0, #4]
	.loc	12 1752 57 is_stmt 0            @ ../../../ThirdParty/mbedTLS/library/ssl_cli.c:1752:57
	cbnz	r1, .LBB2_47
.Ltmp326:
@ %bb.45:
	@DEBUG_VALUE: ssl_parse_server_hello:ext_len <- [DW_OP_plus_uconst 44] [$sp+0]
	@DEBUG_VALUE: ssl_parse_server_hello:buf <- $r6
	@DEBUG_VALUE: ssl_parse_server_hello:i <- [DW_OP_plus_uconst 36] [$sp+0]
	@DEBUG_VALUE: ssl_parse_server_hello:renegotiation_info_seen <- 0
	@DEBUG_VALUE: ssl_parse_server_hello:handshake_failure <- 0
	.loc	12 1753 37 is_stmt 1            @ ../../../ThirdParty/mbedTLS/library/ssl_cli.c:1753:37
	ldr	r1, [r0, #8]
	.loc	12 1753 49 is_stmt 0            @ ../../../ThirdParty/mbedTLS/library/ssl_cli.c:1753:49
	ldr	r2, [sp, #48]                   @ 4-byte Reload
	cmp	r1, r2
	mov	r2, r4
	bne	.LBB2_47
.Ltmp327:
@ %bb.46:
	@DEBUG_VALUE: ssl_parse_server_hello:ext_len <- [DW_OP_plus_uconst 44] [$sp+0]
	@DEBUG_VALUE: ssl_parse_server_hello:buf <- $r6
	@DEBUG_VALUE: ssl_parse_server_hello:i <- [DW_OP_plus_uconst 36] [$sp+0]
	@DEBUG_VALUE: ssl_parse_server_hello:renegotiation_info_seen <- 0
	@DEBUG_VALUE: ssl_parse_server_hello:handshake_failure <- 0
	.loc	12 1754 21 is_stmt 1            @ ../../../ThirdParty/mbedTLS/library/ssl_cli.c:1754:21
	adds	r0, #12
	.loc	12 1754 13 is_stmt 0            @ ../../../ThirdParty/mbedTLS/library/ssl_cli.c:1754:13
	ldr	r1, [sp, #32]                   @ 4-byte Reload
	ldr	r2, [sp, #48]                   @ 4-byte Reload
	bl	memcmp
	mov	r2, r4
	ldr	r3, [sp, #60]                   @ 4-byte Reload
.Ltmp328:
	.loc	12 1747 9 is_stmt 1             @ ../../../ThirdParty/mbedTLS/library/ssl_cli.c:1747:9
	cmp	r0, #0
	bne	.LBB2_47
	b	.LBB2_126
.Ltmp329:
.LBB2_47:
	@DEBUG_VALUE: ssl_parse_server_hello:ext_len <- [DW_OP_plus_uconst 44] [$sp+0]
	@DEBUG_VALUE: ssl_parse_server_hello:buf <- $r6
	@DEBUG_VALUE: ssl_parse_server_hello:i <- [DW_OP_plus_uconst 36] [$sp+0]
	@DEBUG_VALUE: ssl_parse_server_hello:renegotiation_info_seen <- 0
	@DEBUG_VALUE: ssl_parse_server_hello:handshake_failure <- 0
	.loc	12 0 9 is_stmt 0                @ ../../../ThirdParty/mbedTLS/library/ssl_cli.c:0:9
	adds	r0, r7, r2
	movs	r1, #0
.Ltmp330:
	.loc	12 1757 32 is_stmt 1            @ ../../../ThirdParty/mbedTLS/library/ssl_cli.c:1757:32
	str	r1, [r0]
	.loc	12 1761 14                      @ ../../../ThirdParty/mbedTLS/library/ssl_cli.c:1761:14
	ldr	r0, [r3, #56]
	mov	r7, r2
	.loc	12 1761 45 is_stmt 0            @ ../../../ThirdParty/mbedTLS/library/ssl_cli.c:1761:45
	ldr	r2, [sp, #36]                   @ 4-byte Reload
	str	r2, [r0]
	.loc	12 1762 45 is_stmt 1            @ ../../../ThirdParty/mbedTLS/library/ssl_cli.c:1762:45
	str	r1, [r0, #4]
	ldr	r2, [sp, #48]                   @ 4-byte Reload
	.loc	12 1763 40                      @ ../../../ThirdParty/mbedTLS/library/ssl_cli.c:1763:40
	str	r2, [r0, #8]
	.loc	12 1756 19                      @ ../../../ThirdParty/mbedTLS/library/ssl_cli.c:1756:19
	ldr	r1, [r3, #4]
	adds	r1, r1, #1
	str	r1, [r3, #4]
	.loc	12 1764 9                       @ ../../../ThirdParty/mbedTLS/library/ssl_cli.c:1764:9
	adds	r0, #12
	ldr	r1, [sp, #32]                   @ 4-byte Reload
	mov	r4, r3
	bl	__aeabi_memcpy
.Ltmp331:
.LBB2_48:
	@DEBUG_VALUE: ssl_parse_server_hello:ext_len <- [DW_OP_plus_uconst 44] [$sp+0]
	@DEBUG_VALUE: ssl_parse_server_hello:buf <- $r6
	@DEBUG_VALUE: ssl_parse_server_hello:i <- [DW_OP_plus_uconst 36] [$sp+0]
	@DEBUG_VALUE: ssl_parse_server_hello:renegotiation_info_seen <- 0
	@DEBUG_VALUE: ssl_parse_server_hello:handshake_failure <- 0
	.loc	12 1779 5                       @ ../../../ThirdParty/mbedTLS/library/ssl_cli.c:1779:5
	ldr	r0, [r4, #60]
	ldr	r0, [r0, r7]
	cmp	r0, #0
	bne	.LBB2_49
	b	.LBB2_78
.Ltmp332:
.LBB2_49:
	@DEBUG_VALUE: ssl_parse_server_hello:ext_len <- [DW_OP_plus_uconst 44] [$sp+0]
	@DEBUG_VALUE: ssl_parse_server_hello:buf <- $r6
	@DEBUG_VALUE: ssl_parse_server_hello:i <- [DW_OP_plus_uconst 36] [$sp+0]
	@DEBUG_VALUE: ssl_parse_server_hello:renegotiation_info_seen <- 0
	@DEBUG_VALUE: ssl_parse_server_hello:handshake_failure <- 0
	.loc	12 0 5 is_stmt 0                @ ../../../ThirdParty/mbedTLS/library/ssl_cli.c:0:5
	ldr	r0, __arm_cp.2_71
	b	.LBB2_79
.Ltmp333:
	.p2align	2
@ %bb.50:
.LCPI2_79:
	.long	.L.str
	.p2align	2
@ %bb.51:
.LCPI2_80:
	.long	1550                            @ 0x60e
	.p2align	1
.LBB2_52:
.Ltmp334:
	@DEBUG_VALUE: ssl_parse_server_hello:ext_len <- [DW_OP_plus_uconst 44] [$sp+0]
	@DEBUG_VALUE: ssl_parse_server_hello:buf <- $r6
	@DEBUG_VALUE: ssl_parse_server_hello:i <- [DW_OP_plus_uconst 36] [$sp+0]
	@DEBUG_VALUE: ssl_parse_server_hello:renegotiation_info_seen <- 0
	@DEBUG_VALUE: ssl_parse_server_hello:handshake_failure <- 0
	.loc	12 1733 9 is_stmt 1             @ ../../../ThirdParty/mbedTLS/library/ssl_cli.c:1733:9
	ldr	r0, [sp, #36]                   @ 4-byte Reload
	str	r0, [sp, #4]
	ldr	r0, __arm_cp.2_72
	str	r0, [sp]
	adds	r7, #183
	movs	r1, #1
	ldr	r2, .LCPI2_49
	mov	r0, r3
	mov	r4, r3
	mov	r3, r7
	bl	mbedtls_debug_print_msg
	movs	r1, #2
	movs	r2, #80
	.loc	12 1734 9                       @ ../../../ThirdParty/mbedTLS/library/ssl_cli.c:1734:9
	mov	r0, r4
	bl	mbedtls_ssl_send_alert_message
	ldr	r0, __arm_cp.2_67
.Ltmp335:
	.loc	12 2032 1                       @ ../../../ThirdParty/mbedTLS/library/ssl_cli.c:2032:1
	add	sp, #68
.Ltmp336:
	pop	{r4, r5, r6, r7, pc}
.Ltmp337:
	.p2align	2
@ %bb.53:
	.loc	12 0 1 is_stmt 0                @ ../../../ThirdParty/mbedTLS/library/ssl_cli.c:0:1
.LCPI2_48:
.L.str.39:
	.asciz	"=> parse server hello\000\000"
	.p2align	2
@ %bb.54:
.LCPI2_49:
	.long	.L.str
	.p2align	2
@ %bb.55:
.LCPI2_50:
	.long	1550                            @ 0x60e
	.p2align	2
@ %bb.56:
__arm_cp.2_51:
	.long	.L.str.40
.Lcpi_end26:
	.size	__arm_cp.2_51, .Lcpi_end26-__arm_cp.2_51
	.p2align	2
@ %bb.57:
__arm_cp.2_52:
	.long	.L.str.44
.Lcpi_end27:
	.size	__arm_cp.2_52, .Lcpi_end27-__arm_cp.2_52
	.p2align	2
@ %bb.58:
.LCPI2_53:
	.long	.L.str.45
	.p2align	2
@ %bb.59:
.LCPI2_54:
.L.str.41:
	.asciz	"renegotiation requested, but not honored by server\000"
	.p2align	2
@ %bb.60:
.LCPI2_55:
	.long	.L.str.43
	.p2align	2
@ %bb.61:
__arm_cp.2_56:
	.long	4294936832                      @ 0xffff8900
.Lcpi_end28:
	.size	__arm_cp.2_56, .Lcpi_end28-__arm_cp.2_56
	.p2align	2
@ %bb.62:
.LCPI2_57:
.L.str.46:
	.asciz	"server hello, version\000\000"
	.p2align	2
@ %bb.63:
__arm_cp.2_58:
	.long	.L.str.47
.Lcpi_end29:
	.size	__arm_cp.2_58, .Lcpi_end29-__arm_cp.2_58
	.p2align	2
@ %bb.64:
__arm_cp.2_59:
	.long	4294939008                      @ 0xffff9180
.Lcpi_end30:
	.size	__arm_cp.2_59, .Lcpi_end30-__arm_cp.2_59
	.p2align	2
@ %bb.65:
.LCPI2_60:
	.long	4294936192                      @ 0xffff8680
	.p2align	2
@ %bb.66:
.LCPI2_61:
.L.str.42:
	.asciz	"non-handshake message during renego"
	.p2align	2
@ %bb.67:
__arm_cp.2_62:
	.long	4294939904                      @ 0xffff9500
.Lcpi_end31:
	.size	__arm_cp.2_62, .Lcpi_end31-__arm_cp.2_62
	.p2align	2
@ %bb.68:
__arm_cp.2_63:
	.long	.L.str.48
.Lcpi_end32:
	.size	__arm_cp.2_63, .Lcpi_end32-__arm_cp.2_63
	.p2align	2
@ %bb.69:
__arm_cp.2_64:
	.long	1156                            @ 0x484
.Lcpi_end33:
	.size	__arm_cp.2_64, .Lcpi_end33-__arm_cp.2_64
	.p2align	2
@ %bb.70:
__arm_cp.2_65:
	.long	.L.str.49
.Lcpi_end34:
	.size	__arm_cp.2_65, .Lcpi_end34-__arm_cp.2_65
	.p2align	2
@ %bb.71:
__arm_cp.2_66:
	.long	.L.str.50
.Lcpi_end35:
	.size	__arm_cp.2_66, .Lcpi_end35-__arm_cp.2_66
	.p2align	2
@ %bb.72:
__arm_cp.2_67:
	.long	4294938368                      @ 0xffff8f00
.Lcpi_end36:
	.size	__arm_cp.2_67, .Lcpi_end36-__arm_cp.2_67
	.p2align	2
@ %bb.73:
__arm_cp.2_68:
	.long	.L.str.52
.Lcpi_end37:
	.size	__arm_cp.2_68, .Lcpi_end37-__arm_cp.2_68
	.p2align	2
@ %bb.74:
__arm_cp.2_69:
	.long	.L.str.53
.Lcpi_end38:
	.size	__arm_cp.2_69, .Lcpi_end38-__arm_cp.2_69
	.p2align	2
@ %bb.75:
__arm_cp.2_70:
	.long	2248                            @ 0x8c8
.Lcpi_end39:
	.size	__arm_cp.2_70, .Lcpi_end39-__arm_cp.2_70
	.p2align	2
@ %bb.76:
__arm_cp.2_71:
	.long	.L.str.56
.Lcpi_end40:
	.size	__arm_cp.2_71, .Lcpi_end40-__arm_cp.2_71
	.p2align	2
@ %bb.77:
__arm_cp.2_72:
	.long	.L.str.51
.Lcpi_end41:
	.size	__arm_cp.2_72, .Lcpi_end41-__arm_cp.2_72
	.p2align	1
.LBB2_78:
.Ltmp338:
	@DEBUG_VALUE: ssl_parse_server_hello:ext_len <- [DW_OP_plus_uconst 44] [$sp+0]
	@DEBUG_VALUE: ssl_parse_server_hello:buf <- $r6
	@DEBUG_VALUE: ssl_parse_server_hello:i <- [DW_OP_plus_uconst 36] [$sp+0]
	@DEBUG_VALUE: ssl_parse_server_hello:renegotiation_info_seen <- 0
	@DEBUG_VALUE: ssl_parse_server_hello:handshake_failure <- 0
	ldr	r0, __arm_cp.2_73
.Ltmp339:
.LBB2_79:
	@DEBUG_VALUE: ssl_parse_server_hello:ext_len <- [DW_OP_plus_uconst 44] [$sp+0]
	@DEBUG_VALUE: ssl_parse_server_hello:buf <- $r6
	@DEBUG_VALUE: ssl_parse_server_hello:i <- [DW_OP_plus_uconst 36] [$sp+0]
	@DEBUG_VALUE: ssl_parse_server_hello:renegotiation_info_seen <- 0
	@DEBUG_VALUE: ssl_parse_server_hello:handshake_failure <- 0
	.loc	12 1779 5 is_stmt 1             @ ../../../ThirdParty/mbedTLS/library/ssl_cli.c:1779:5
	str	r0, [sp, #4]
	ldr	r0, __arm_cp.2_74
	str	r0, [sp]
	ldr	r3, .LCPI2_75
	adds	r3, #230
	movs	r7, #3
	ldr	r2, .LCPI2_76
	ldr	r4, [sp, #60]                   @ 4-byte Reload
	mov	r0, r4
	mov	r1, r7
	bl	mbedtls_debug_print_msg
	.loc	12 1782 5                       @ ../../../ThirdParty/mbedTLS/library/ssl_cli.c:1782:5
	ldr	r0, [sp, #36]                   @ 4-byte Reload
	str	r0, [sp, #4]
	ldr	r0, __arm_cp.2_81
	str	r0, [sp]
	ldr	r3, .LCPI2_75
	adds	r3, #232
	mov	r0, r4
	mov	r1, r7
	ldr	r2, .LCPI2_76
	bl	mbedtls_debug_print_msg
	.loc	12 1783 5                       @ ../../../ThirdParty/mbedTLS/library/ssl_cli.c:1783:5
	ldrb	r0, [r6, r5]
	str	r0, [sp, #4]
	ldr	r0, __arm_cp.2_78
	str	r0, [sp]
	ldr	r3, __arm_cp.2_2
	adds	r3, #233
	mov	r0, r4
	mov	r1, r7
	ldr	r2, __arm_cp.2_1
	bl	mbedtls_debug_print_msg
.Ltmp340:
	@DEBUG_VALUE: ssl_parse_server_hello:i <- 0
	.loc	12 0 0 is_stmt 0                @ ../../../ThirdParty/mbedTLS/library/ssl_cli.c:0:0
	ldr	r0, [r4]
	ldr	r1, [r4, #20]
	lsls	r1, r1, #2
	ldr	r1, [r0, r1]
.Ltmp341:
.LBB2_80:                               @ =>This Inner Loop Header: Depth=1
	@DEBUG_VALUE: ssl_parse_server_hello:ext_len <- [DW_OP_plus_uconst 44] [$sp+0]
	@DEBUG_VALUE: ssl_parse_server_hello:buf <- $r6
	@DEBUG_VALUE: ssl_parse_server_hello:renegotiation_info_seen <- 0
	@DEBUG_VALUE: ssl_parse_server_hello:handshake_failure <- 0
	@DEBUG_VALUE: ssl_parse_server_hello:i <- undef
	.loc	12 1791 13 is_stmt 1            @ ../../../ThirdParty/mbedTLS/library/ssl_cli.c:1791:13
	ldr	r2, [r1]
.Ltmp342:
	.loc	12 1791 13 is_stmt 0            @ ../../../ThirdParty/mbedTLS/library/ssl_cli.c:1791:13
	cbz	r2, .LBB2_84
.Ltmp343:
@ %bb.81:                               @   in Loop: Header=BB2_80 Depth=1
	@DEBUG_VALUE: ssl_parse_server_hello:ext_len <- [DW_OP_plus_uconst 44] [$sp+0]
	@DEBUG_VALUE: ssl_parse_server_hello:buf <- $r6
	@DEBUG_VALUE: ssl_parse_server_hello:renegotiation_info_seen <- 0
	@DEBUG_VALUE: ssl_parse_server_hello:handshake_failure <- 0
	@DEBUG_VALUE: ssl_parse_server_hello:i <- [DW_OP_plus_uconst 1, DW_OP_stack_value] undef
	.loc	12 1799 13 is_stmt 1            @ ../../../ThirdParty/mbedTLS/library/ssl_cli.c:1799:13
	adds	r1, r1, #4
.Ltmp344:
	.loc	12 1800 22                      @ ../../../ThirdParty/mbedTLS/library/ssl_cli.c:1800:22
	ldr	r0, [r4, #56]
	.loc	12 1800 41 is_stmt 0            @ ../../../ThirdParty/mbedTLS/library/ssl_cli.c:1800:41
	ldr	r0, [r0]
.Ltmp345:
	.loc	12 1799 13 is_stmt 1            @ ../../../ThirdParty/mbedTLS/library/ssl_cli.c:1799:13
	cmp	r2, r0
	bne	.LBB2_80
.Ltmp346:
@ %bb.82:
	@DEBUG_VALUE: ssl_parse_server_hello:ext_len <- [DW_OP_plus_uconst 44] [$sp+0]
	@DEBUG_VALUE: ssl_parse_server_hello:buf <- $r6
	@DEBUG_VALUE: ssl_parse_server_hello:renegotiation_info_seen <- 0
	@DEBUG_VALUE: ssl_parse_server_hello:handshake_failure <- 0
	.loc	12 1806 18                      @ ../../../ThirdParty/mbedTLS/library/ssl_cli.c:1806:18
	bl	mbedtls_ssl_ciphersuite_from_id
	mov	r5, r0
.Ltmp347:
	@DEBUG_VALUE: ssl_parse_server_hello:suite_info <- $r5
	.loc	12 1807 57                      @ ../../../ThirdParty/mbedTLS/library/ssl_cli.c:1807:57
	ldr	r2, [r4, #20]
	.loc	12 1807 9 is_stmt 0             @ ../../../ThirdParty/mbedTLS/library/ssl_cli.c:1807:9
	mov	r1, r4
	mov	r3, r2
	bl	ssl_validate_ciphersuite
.Ltmp348:
	.loc	12 1807 9                       @ ../../../ThirdParty/mbedTLS/library/ssl_cli.c:1807:9
	cbz	r0, .LBB2_86
.Ltmp349:
@ %bb.83:
	@DEBUG_VALUE: ssl_parse_server_hello:ext_len <- [DW_OP_plus_uconst 44] [$sp+0]
	@DEBUG_VALUE: ssl_parse_server_hello:buf <- $r6
	@DEBUG_VALUE: ssl_parse_server_hello:suite_info <- $r5
	@DEBUG_VALUE: ssl_parse_server_hello:renegotiation_info_seen <- 0
	@DEBUG_VALUE: ssl_parse_server_hello:handshake_failure <- 0
	.loc	12 1809 9 is_stmt 1             @ ../../../ThirdParty/mbedTLS/library/ssl_cli.c:1809:9
	ldr	r0, __arm_cp.2_4
	str	r0, [sp]
	movs	r1, #1
	ldr	r2, __arm_cp.2_1
	ldr	r4, [sp, #60]                   @ 4-byte Reload
	mov	r0, r4
	ldr	r3, __arm_cp.2_27
	b	.LBB2_85
.Ltmp350:
.LBB2_84:
	@DEBUG_VALUE: ssl_parse_server_hello:ext_len <- [DW_OP_plus_uconst 44] [$sp+0]
	@DEBUG_VALUE: ssl_parse_server_hello:buf <- $r6
	@DEBUG_VALUE: ssl_parse_server_hello:renegotiation_info_seen <- 0
	@DEBUG_VALUE: ssl_parse_server_hello:handshake_failure <- 0
	.loc	12 1793 13                      @ ../../../ThirdParty/mbedTLS/library/ssl_cli.c:1793:13
	ldr	r0, __arm_cp.2_4
	str	r0, [sp]
	ldr	r3, __arm_cp.2_2
	adds	r3, #243
	movs	r1, #1
	ldr	r2, __arm_cp.2_1
	mov	r0, r4
.Ltmp351:
.LBB2_85:
	@DEBUG_VALUE: ssl_parse_server_hello:ext_len <- [DW_OP_plus_uconst 44] [$sp+0]
	@DEBUG_VALUE: ssl_parse_server_hello:buf <- $r6
	@DEBUG_VALUE: ssl_parse_server_hello:renegotiation_info_seen <- 0
	@DEBUG_VALUE: ssl_parse_server_hello:handshake_failure <- 0
	.loc	12 0 0 is_stmt 0                @ ../../../ThirdParty/mbedTLS/library/ssl_cli.c:0:0
	bl	mbedtls_debug_print_msg
	movs	r1, #2
	movs	r2, #47
	b	.LBB2_23
.Ltmp352:
.LBB2_86:
	@DEBUG_VALUE: ssl_parse_server_hello:ext_len <- [DW_OP_plus_uconst 44] [$sp+0]
	@DEBUG_VALUE: ssl_parse_server_hello:buf <- $r6
	@DEBUG_VALUE: ssl_parse_server_hello:suite_info <- $r5
	@DEBUG_VALUE: ssl_parse_server_hello:renegotiation_info_seen <- 0
	@DEBUG_VALUE: ssl_parse_server_hello:handshake_failure <- 0
	.loc	12 1815 5 is_stmt 1             @ ../../../ThirdParty/mbedTLS/library/ssl_cli.c:1815:5
	ldr	r0, [r5, #4]
	str	r0, [sp, #4]
	ldr	r0, __arm_cp.2_28
	str	r0, [sp]
	ldr	r7, __arm_cp.2_27
	adds	r3, r7, #6
	movs	r1, #3
	ldr	r6, __arm_cp.2_1
.Ltmp353:
	.loc	12 0 5 is_stmt 0                @ ../../../ThirdParty/mbedTLS/library/ssl_cli.c:0:5
	ldr	r4, [sp, #60]                   @ 4-byte Reload
	.loc	12 1815 5                       @ ../../../ThirdParty/mbedTLS/library/ssl_cli.c:1815:5
	mov	r0, r4
	mov	r2, r6
	bl	mbedtls_debug_print_msg
	.loc	12 1836 10 is_stmt 1            @ ../../../ThirdParty/mbedTLS/library/ssl_cli.c:1836:10
	ldr	r0, [r4, #56]
	movs	r1, #0
	str	r1, [sp, #48]                   @ 4-byte Spill
	.loc	12 1836 41 is_stmt 0            @ ../../../ThirdParty/mbedTLS/library/ssl_cli.c:1836:41
	str	r1, [r0, #4]
	ldr	r5, [sp, #44]                   @ 4-byte Reload
.Ltmp354:
	@DEBUG_VALUE: ssl_parse_server_hello:ext_len <- $r5
	.loc	12 1840 5 is_stmt 1             @ ../../../ThirdParty/mbedTLS/library/ssl_cli.c:1840:5
	str	r5, [sp, #4]
	ldr	r0, __arm_cp.2_29
	str	r0, [sp]
	mov	r3, r7
	adds	r3, #31
	movs	r1, #2
	mov	r0, r4
	mov	r2, r6
	bl	mbedtls_debug_print_msg
	mov	r2, r5
	.loc	12 1838 20                      @ ../../../ThirdParty/mbedTLS/library/ssl_cli.c:1838:20
	ldr	r0, [sp, #40]                   @ 4-byte Reload
	adds	r0, #40
.Ltmp355:
	@DEBUG_VALUE: ssl_parse_server_hello:ext <- $r0
	.loc	12 0 20 is_stmt 0               @ ../../../ThirdParty/mbedTLS/library/ssl_cli.c:0:20
	str	r0, [sp, #40]                   @ 4-byte Spill
.Ltmp356:
	@DEBUG_VALUE: ssl_parse_server_hello:ext <- [DW_OP_plus_uconst 40] [$sp+0]
	@DEBUG_VALUE: ssl_parse_server_hello:ext <- [DW_OP_plus_uconst 40] [$sp+0]
                                        @ implicit-def: $r0
	b	.LBB2_90
.Ltmp357:
.LBB2_87:                               @   in Loop: Header=BB2_90 Depth=1
	@DEBUG_VALUE: ssl_parse_server_hello:ext_len <- [DW_OP_plus_uconst 44] [$sp+0]
	@DEBUG_VALUE: ext_size <- $r7
	@DEBUG_VALUE: ext_id <- $r0
	@DEBUG_VALUE: ssl_parse_server_hello:renegotiation_info_seen <- [DW_OP_plus_uconst 48] [$sp+0]
	@DEBUG_VALUE: ssl_parse_server_hello:ext <- [DW_OP_plus_uconst 40] [$sp+0]
	@DEBUG_VALUE: ssl_parse_server_hello:handshake_failure <- 0
	.loc	12 1873 13 is_stmt 1            @ ../../../ThirdParty/mbedTLS/library/ssl_cli.c:1873:13
	ldr	r0, __arm_cp.2_37
.Ltmp358:
	str	r0, [sp]
	ldr	r3, __arm_cp.2_27
	adds	r3, #64
	movs	r1, #3
	ldr	r4, [sp, #60]                   @ 4-byte Reload
	mov	r0, r4
	ldr	r2, __arm_cp.2_1
	bl	mbedtls_debug_print_msg
.Ltmp359:
	.loc	12 1876 29                      @ ../../../ThirdParty/mbedTLS/library/ssl_cli.c:1876:29
	ldr	r0, [sp, #40]                   @ 4-byte Reload
	adds	r1, r0, #4
	.loc	12 1875 25                      @ ../../../ThirdParty/mbedTLS/library/ssl_cli.c:1875:25
	mov	r0, r4
	mov	r2, r7
	bl	ssl_parse_max_fragment_length_ext
.Ltmp360:
	@DEBUG_VALUE: ssl_parse_server_hello:ret <- $r0
	.loc	12 1875 17 is_stmt 0            @ ../../../ThirdParty/mbedTLS/library/ssl_cli.c:1875:17
	cmp	r0, #0
	bne	.LBB2_88
	b	.LBB2_107
.Ltmp361:
.LBB2_88:                               @   in Loop: Header=BB2_90 Depth=1
	@DEBUG_VALUE: ssl_parse_server_hello:ext_len <- [DW_OP_plus_uconst 44] [$sp+0]
	@DEBUG_VALUE: ext_size <- $r7
	@DEBUG_VALUE: ssl_parse_server_hello:ret <- $r0
	@DEBUG_VALUE: ssl_parse_server_hello:ext <- [DW_OP_plus_uconst 40] [$sp+0]
	@DEBUG_VALUE: ssl_parse_server_hello:handshake_failure <- 0
	.loc	12 0 17                         @ ../../../ThirdParty/mbedTLS/library/ssl_cli.c:0:17
	movs	r1, #0
.Ltmp362:
.LBB2_89:                               @   in Loop: Header=BB2_90 Depth=1
	@DEBUG_VALUE: ext_size <- $r7
	@DEBUG_VALUE: ssl_parse_server_hello:ext <- [DW_OP_plus_uconst 40] [$sp+0]
	@DEBUG_VALUE: ssl_parse_server_hello:handshake_failure <- 0
	@DEBUG_VALUE: ssl_parse_server_hello:renegotiation_info_seen <- [DW_OP_plus_uconst 48] [$sp+0]
	@DEBUG_VALUE: ssl_parse_server_hello:ext_len <- [DW_OP_plus_uconst 44] [$sp+0]
	@DEBUG_VALUE: ssl_parse_server_hello:ext <- [DW_OP_plus_uconst 40] [$sp+0]
	cmp	r1, #0
	ldr	r2, [sp, #44]                   @ 4-byte Reload
.Ltmp363:
	@DEBUG_VALUE: ssl_parse_server_hello:ext_len <- $r2
	bne	.LBB2_90
	b	.LBB2_125
.Ltmp364:
.LBB2_90:                               @ =>This Inner Loop Header: Depth=1
	@DEBUG_VALUE: ssl_parse_server_hello:ext <- [DW_OP_plus_uconst 40] [$sp+0]
	@DEBUG_VALUE: ssl_parse_server_hello:handshake_failure <- 0
	@DEBUG_VALUE: ssl_parse_server_hello:renegotiation_info_seen <- [DW_OP_plus_uconst 48] [$sp+0]
	@DEBUG_VALUE: ssl_parse_server_hello:ext_len <- $r2
	@DEBUG_VALUE: ssl_parse_server_hello:ext <- [DW_OP_plus_uconst 40] [$sp+0]
	.loc	12 1842 5 is_stmt 1             @ ../../../ThirdParty/mbedTLS/library/ssl_cli.c:1842:5
	cmp	r2, #0
	ldr	r3, [sp, #40]                   @ 4-byte Reload
	bne	.LBB2_91
	b	.LBB2_110
.Ltmp365:
.LBB2_91:                               @   in Loop: Header=BB2_90 Depth=1
	@DEBUG_VALUE: ssl_parse_server_hello:ext_len <- $r2
	@DEBUG_VALUE: ssl_parse_server_hello:renegotiation_info_seen <- [DW_OP_plus_uconst 48] [$sp+0]
	@DEBUG_VALUE: ssl_parse_server_hello:ext <- [DW_OP_plus_uconst 40] [$sp+0]
	@DEBUG_VALUE: ssl_parse_server_hello:handshake_failure <- 0
	.loc	12 0 5 is_stmt 0                @ ../../../ThirdParty/mbedTLS/library/ssl_cli.c:0:5
	mov	r6, r0
.Ltmp366:
	@DEBUG_VALUE: ext_id <- undef
	.loc	12 1847 39 is_stmt 1            @ ../../../ThirdParty/mbedTLS/library/ssl_cli.c:1847:39
	ldrb	r0, [r3, #3]
	.loc	12 1846 37                      @ ../../../ThirdParty/mbedTLS/library/ssl_cli.c:1846:37
	ldrb	r1, [r3, #2]
	.loc	12 1846 44 is_stmt 0            @ ../../../ThirdParty/mbedTLS/library/ssl_cli.c:1846:44
	lsls	r1, r1, #8
	.loc	12 1847 35 is_stmt 1            @ ../../../ThirdParty/mbedTLS/library/ssl_cli.c:1847:35
	adds	r7, r1, r0
.Ltmp367:
	@DEBUG_VALUE: ext_size <- $r7
	.loc	12 1849 22                      @ ../../../ThirdParty/mbedTLS/library/ssl_cli.c:1849:22
	adds	r5, r7, #4
.Ltmp368:
	.loc	12 1849 13 is_stmt 0            @ ../../../ThirdParty/mbedTLS/library/ssl_cli.c:1849:13
	cmp	r2, r5
	str	r2, [sp, #44]                   @ 4-byte Spill
.Ltmp369:
	@DEBUG_VALUE: ssl_parse_server_hello:ext_len <- [DW_OP_plus_uconst 44] [$sp+0]
	bhs	.LBB2_94
.Ltmp370:
@ %bb.92:                               @   in Loop: Header=BB2_90 Depth=1
	@DEBUG_VALUE: ssl_parse_server_hello:ext_len <- [DW_OP_plus_uconst 44] [$sp+0]
	@DEBUG_VALUE: ext_size <- $r7
	@DEBUG_VALUE: ssl_parse_server_hello:renegotiation_info_seen <- [DW_OP_plus_uconst 48] [$sp+0]
	@DEBUG_VALUE: ssl_parse_server_hello:ext <- [DW_OP_plus_uconst 40] [$sp+0]
	@DEBUG_VALUE: ssl_parse_server_hello:handshake_failure <- 0
	.loc	12 1851 13 is_stmt 1            @ ../../../ThirdParty/mbedTLS/library/ssl_cli.c:1851:13
	ldr	r0, __arm_cp.2_4
	str	r0, [sp]
	ldr	r3, __arm_cp.2_27
	adds	r3, #42
	movs	r1, #1
	ldr	r4, [sp, #60]                   @ 4-byte Reload
	mov	r0, r4
	ldr	r2, __arm_cp.2_1
	bl	mbedtls_debug_print_msg
	movs	r1, #2
	movs	r2, #50
	.loc	12 1852 13                      @ ../../../ThirdParty/mbedTLS/library/ssl_cli.c:1852:13
	mov	r0, r4
	bl	mbedtls_ssl_send_alert_message
.Ltmp371:
.LBB2_93:                               @   in Loop: Header=BB2_90 Depth=1
	@DEBUG_VALUE: ext_size <- $r7
	@DEBUG_VALUE: ssl_parse_server_hello:renegotiation_info_seen <- [DW_OP_plus_uconst 48] [$sp+0]
	@DEBUG_VALUE: ssl_parse_server_hello:ext <- [DW_OP_plus_uconst 40] [$sp+0]
	@DEBUG_VALUE: ssl_parse_server_hello:handshake_failure <- 0
	.loc	12 0 13 is_stmt 0               @ ../../../ThirdParty/mbedTLS/library/ssl_cli.c:0:13
	movs	r1, #0
	ldr	r0, __arm_cp.2_15
	b	.LBB2_89
.Ltmp372:
.LBB2_94:                               @   in Loop: Header=BB2_90 Depth=1
	@DEBUG_VALUE: ssl_parse_server_hello:ext_len <- [DW_OP_plus_uconst 44] [$sp+0]
	@DEBUG_VALUE: ext_size <- $r7
	@DEBUG_VALUE: ssl_parse_server_hello:renegotiation_info_seen <- [DW_OP_plus_uconst 48] [$sp+0]
	@DEBUG_VALUE: ssl_parse_server_hello:ext <- [DW_OP_plus_uconst 40] [$sp+0]
	@DEBUG_VALUE: ssl_parse_server_hello:handshake_failure <- 0
	ldrb	r0, [r3, #1]
	ldrb	r1, [r3]
	lsls	r1, r1, #8
	adds	r0, r1, r0
.Ltmp373:
	@DEBUG_VALUE: ext_id <- $r0
	.loc	12 1857 9 is_stmt 1             @ ../../../ThirdParty/mbedTLS/library/ssl_cli.c:1857:9
	subs	r1, r0, #1
	cmp	r1, #34
	bhi	.LBB2_99
.Ltmp374:
@ %bb.95:                               @   in Loop: Header=BB2_90 Depth=1
	@DEBUG_VALUE: ssl_parse_server_hello:ext_len <- [DW_OP_plus_uconst 44] [$sp+0]
	@DEBUG_VALUE: ext_size <- $r7
	@DEBUG_VALUE: ext_id <- $r0
	@DEBUG_VALUE: ssl_parse_server_hello:renegotiation_info_seen <- [DW_OP_plus_uconst 48] [$sp+0]
	@DEBUG_VALUE: ssl_parse_server_hello:ext <- [DW_OP_plus_uconst 40] [$sp+0]
	@DEBUG_VALUE: ssl_parse_server_hello:handshake_failure <- 0
	.loc	12 0 9 is_stmt 0                @ ../../../ThirdParty/mbedTLS/library/ssl_cli.c:0:9
	lsls	r2, r1, #2
	adr	r3, .LJTI2_0
	adds	r2, r3, r2
	mov	pc, r2
.Ltmp375:
@ %bb.96:
	.p2align	2
.LJTI2_0:
	b.w	.LBB2_97
	b.w	.LBB2_101
	b.w	.LBB2_101
	b.w	.LBB2_98
	b.w	.LBB2_101
	b.w	.LBB2_101
	b.w	.LBB2_101
	b.w	.LBB2_101
	b.w	.LBB2_101
	b.w	.LBB2_101
	b.w	.LBB2_102
	b.w	.LBB2_101
	b.w	.LBB2_101
	b.w	.LBB2_101
	b.w	.LBB2_101
	b.w	.LBB2_103
	b.w	.LBB2_101
	b.w	.LBB2_101
	b.w	.LBB2_101
	b.w	.LBB2_101
	b.w	.LBB2_101
	b.w	.LBB2_104
	b.w	.LBB2_105
	b.w	.LBB2_101
	b.w	.LBB2_101
	b.w	.LBB2_101
	b.w	.LBB2_101
	b.w	.LBB2_101
	b.w	.LBB2_101
	b.w	.LBB2_101
	b.w	.LBB2_101
	b.w	.LBB2_101
	b.w	.LBB2_101
	b.w	.LBB2_101
	b.w	.LBB2_106
.LBB2_97:                               @   in Loop: Header=BB2_90 Depth=1
	b	.LBB2_87
.LBB2_98:                               @   in Loop: Header=BB2_90 Depth=1
.Ltmp376:
	@DEBUG_VALUE: ssl_parse_server_hello:ext_len <- [DW_OP_plus_uconst 44] [$sp+0]
	@DEBUG_VALUE: ext_size <- $r7
	@DEBUG_VALUE: ext_id <- $r0
	@DEBUG_VALUE: ssl_parse_server_hello:renegotiation_info_seen <- [DW_OP_plus_uconst 48] [$sp+0]
	@DEBUG_VALUE: ssl_parse_server_hello:ext <- [DW_OP_plus_uconst 40] [$sp+0]
	@DEBUG_VALUE: ssl_parse_server_hello:handshake_failure <- 0
	.loc	12 1886 13 is_stmt 1            @ ../../../ThirdParty/mbedTLS/library/ssl_cli.c:1886:13
	ldr	r0, __arm_cp.2_36
.Ltmp377:
	str	r0, [sp]
	ldr	r3, __arm_cp.2_27
	adds	r3, #77
	movs	r1, #3
	ldr	r4, [sp, #60]                   @ 4-byte Reload
	mov	r0, r4
	ldr	r2, __arm_cp.2_1
	bl	mbedtls_debug_print_msg
.Ltmp378:
	.loc	12 1888 25                      @ ../../../ThirdParty/mbedTLS/library/ssl_cli.c:1888:25
	mov	r0, r4
	mov	r1, r7
	bl	ssl_parse_truncated_hmac_ext
.Ltmp379:
	@DEBUG_VALUE: ssl_parse_server_hello:ret <- $r0
	.loc	12 1888 17 is_stmt 0            @ ../../../ThirdParty/mbedTLS/library/ssl_cli.c:1888:17
	cmp	r0, #0
	beq	.LBB2_107
	b	.LBB2_88
.Ltmp380:
.LBB2_99:                               @   in Loop: Header=BB2_90 Depth=1
	@DEBUG_VALUE: ssl_parse_server_hello:ext_len <- [DW_OP_plus_uconst 44] [$sp+0]
	@DEBUG_VALUE: ext_size <- $r7
	@DEBUG_VALUE: ext_id <- $r0
	@DEBUG_VALUE: ssl_parse_server_hello:renegotiation_info_seen <- [DW_OP_plus_uconst 48] [$sp+0]
	@DEBUG_VALUE: ssl_parse_server_hello:ext <- [DW_OP_plus_uconst 40] [$sp+0]
	@DEBUG_VALUE: ssl_parse_server_hello:handshake_failure <- 0
	.loc	12 1857 9 is_stmt 1             @ ../../../ThirdParty/mbedTLS/library/ssl_cli.c:1857:9
	ldr	r1, __arm_cp.2_30
	cmp	r0, r1
	bne	.LBB2_101
.Ltmp381:
@ %bb.100:                              @   in Loop: Header=BB2_90 Depth=1
	@DEBUG_VALUE: ssl_parse_server_hello:ext_len <- [DW_OP_plus_uconst 44] [$sp+0]
	@DEBUG_VALUE: ext_size <- $r7
	@DEBUG_VALUE: ext_id <- $r0
	@DEBUG_VALUE: ssl_parse_server_hello:renegotiation_info_seen <- [DW_OP_plus_uconst 48] [$sp+0]
	@DEBUG_VALUE: ssl_parse_server_hello:ext <- [DW_OP_plus_uconst 40] [$sp+0]
	@DEBUG_VALUE: ssl_parse_server_hello:handshake_failure <- 0
	.loc	12 1860 13                      @ ../../../ThirdParty/mbedTLS/library/ssl_cli.c:1860:13
	ldr	r0, __arm_cp.2_38
.Ltmp382:
	str	r0, [sp]
	ldr	r3, __arm_cp.2_27
	adds	r3, #51
	movs	r1, #3
	ldr	r4, [sp, #60]                   @ 4-byte Reload
	mov	r0, r4
	ldr	r2, __arm_cp.2_1
	bl	mbedtls_debug_print_msg
.Ltmp383:
	@DEBUG_VALUE: ssl_parse_server_hello:renegotiation_info_seen <- 1
	.loc	12 1865 64                      @ ../../../ThirdParty/mbedTLS/library/ssl_cli.c:1865:64
	ldr	r0, [sp, #40]                   @ 4-byte Reload
	adds	r1, r0, #4
	.loc	12 1865 25 is_stmt 0            @ ../../../ThirdParty/mbedTLS/library/ssl_cli.c:1865:25
	mov	r0, r4
	mov	r2, r7
	bl	ssl_parse_renegotiation_info
.Ltmp384:
	@DEBUG_VALUE: ssl_parse_server_hello:ret <- $r0
	.loc	12 0 25                         @ ../../../ThirdParty/mbedTLS/library/ssl_cli.c:0:25
	movs	r1, #1
.Ltmp385:
	.loc	12 1865 17                      @ ../../../ThirdParty/mbedTLS/library/ssl_cli.c:1865:17
	str	r1, [sp, #48]                   @ 4-byte Spill
	cmp	r0, #0
	beq	.LBB2_107
	b	.LBB2_88
.Ltmp386:
.LBB2_101:                              @   in Loop: Header=BB2_90 Depth=1
	@DEBUG_VALUE: ssl_parse_server_hello:ext_len <- [DW_OP_plus_uconst 44] [$sp+0]
	@DEBUG_VALUE: ext_size <- $r7
	@DEBUG_VALUE: ext_id <- $r0
	@DEBUG_VALUE: ssl_parse_server_hello:renegotiation_info_seen <- [DW_OP_plus_uconst 48] [$sp+0]
	@DEBUG_VALUE: ssl_parse_server_hello:ext <- [DW_OP_plus_uconst 40] [$sp+0]
	@DEBUG_VALUE: ssl_parse_server_hello:handshake_failure <- 0
	.loc	12 1975 13 is_stmt 1            @ ../../../ThirdParty/mbedTLS/library/ssl_cli.c:1975:13
	ldr	r1, __arm_cp.2_39
	str	r1, [sp]
	str	r0, [sp, #4]
	ldr	r3, __arm_cp.2_27
	adds	r3, #167
	movs	r1, #3
	ldr	r0, [sp, #60]                   @ 4-byte Reload
.Ltmp387:
	ldr	r2, __arm_cp.2_1
	bl	mbedtls_debug_print_msg
	b	.LBB2_107
.Ltmp388:
.LBB2_102:                              @   in Loop: Header=BB2_90 Depth=1
	@DEBUG_VALUE: ssl_parse_server_hello:ext_len <- [DW_OP_plus_uconst 44] [$sp+0]
	@DEBUG_VALUE: ext_size <- $r7
	@DEBUG_VALUE: ext_id <- $r0
	@DEBUG_VALUE: ssl_parse_server_hello:renegotiation_info_seen <- [DW_OP_plus_uconst 48] [$sp+0]
	@DEBUG_VALUE: ssl_parse_server_hello:ext <- [DW_OP_plus_uconst 40] [$sp+0]
	@DEBUG_VALUE: ssl_parse_server_hello:handshake_failure <- 0
	.loc	12 1939 13                      @ ../../../ThirdParty/mbedTLS/library/ssl_cli.c:1939:13
	ldr	r0, __arm_cp.2_32
.Ltmp389:
	str	r0, [sp]
	ldr	r3, __arm_cp.2_27
	adds	r3, #130
	movs	r1, #3
	ldr	r4, [sp, #60]                   @ 4-byte Reload
	mov	r0, r4
	ldr	r2, __arm_cp.2_1
	bl	mbedtls_debug_print_msg
.Ltmp390:
	.loc	12 1942 29                      @ ../../../ThirdParty/mbedTLS/library/ssl_cli.c:1942:29
	ldr	r0, [sp, #40]                   @ 4-byte Reload
	adds	r1, r0, #4
	.loc	12 1941 25                      @ ../../../ThirdParty/mbedTLS/library/ssl_cli.c:1941:25
	mov	r0, r4
	mov	r2, r7
	bl	ssl_parse_supported_point_formats_ext
.Ltmp391:
	@DEBUG_VALUE: ssl_parse_server_hello:ret <- $r0
	.loc	12 1941 17 is_stmt 0            @ ../../../ThirdParty/mbedTLS/library/ssl_cli.c:1941:17
	cmp	r0, #0
	beq	.LBB2_107
	b	.LBB2_88
.Ltmp392:
.LBB2_103:                              @   in Loop: Header=BB2_90 Depth=1
	@DEBUG_VALUE: ssl_parse_server_hello:ext_len <- [DW_OP_plus_uconst 44] [$sp+0]
	@DEBUG_VALUE: ext_size <- $r7
	@DEBUG_VALUE: ext_id <- $r0
	@DEBUG_VALUE: ssl_parse_server_hello:renegotiation_info_seen <- [DW_OP_plus_uconst 48] [$sp+0]
	@DEBUG_VALUE: ssl_parse_server_hello:ext <- [DW_OP_plus_uconst 40] [$sp+0]
	@DEBUG_VALUE: ssl_parse_server_hello:handshake_failure <- 0
	.loc	12 1966 13 is_stmt 1            @ ../../../ThirdParty/mbedTLS/library/ssl_cli.c:1966:13
	ldr	r0, __arm_cp.2_31
.Ltmp393:
	str	r0, [sp]
	ldr	r3, __arm_cp.2_27
	adds	r3, #157
	movs	r1, #3
	ldr	r4, [sp, #60]                   @ 4-byte Reload
	mov	r0, r4
	ldr	r2, __arm_cp.2_1
	bl	mbedtls_debug_print_msg
.Ltmp394:
	.loc	12 1968 54                      @ ../../../ThirdParty/mbedTLS/library/ssl_cli.c:1968:54
	ldr	r0, [sp, #40]                   @ 4-byte Reload
	adds	r1, r0, #4
	.loc	12 1968 25 is_stmt 0            @ ../../../ThirdParty/mbedTLS/library/ssl_cli.c:1968:25
	mov	r0, r4
	mov	r2, r7
	bl	ssl_parse_alpn_ext
.Ltmp395:
	@DEBUG_VALUE: ssl_parse_server_hello:ret <- $r0
	.loc	12 1968 17                      @ ../../../ThirdParty/mbedTLS/library/ssl_cli.c:1968:17
	cbz	r0, .LBB2_107
	b	.LBB2_88
.Ltmp396:
.LBB2_104:                              @   in Loop: Header=BB2_90 Depth=1
	@DEBUG_VALUE: ssl_parse_server_hello:ext_len <- [DW_OP_plus_uconst 44] [$sp+0]
	@DEBUG_VALUE: ext_size <- $r7
	@DEBUG_VALUE: ext_id <- $r0
	@DEBUG_VALUE: ssl_parse_server_hello:renegotiation_info_seen <- [DW_OP_plus_uconst 48] [$sp+0]
	@DEBUG_VALUE: ssl_parse_server_hello:ext <- [DW_OP_plus_uconst 40] [$sp+0]
	@DEBUG_VALUE: ssl_parse_server_hello:handshake_failure <- 0
	.loc	12 1899 13 is_stmt 1            @ ../../../ThirdParty/mbedTLS/library/ssl_cli.c:1899:13
	ldr	r0, __arm_cp.2_35
.Ltmp397:
	str	r0, [sp]
	ldr	r3, __arm_cp.2_27
	adds	r3, #90
	movs	r1, #3
	ldr	r4, [sp, #60]                   @ 4-byte Reload
	mov	r0, r4
	ldr	r2, __arm_cp.2_1
	bl	mbedtls_debug_print_msg
.Ltmp398:
	.loc	12 1901 25                      @ ../../../ThirdParty/mbedTLS/library/ssl_cli.c:1901:25
	mov	r0, r4
	mov	r1, r7
	bl	ssl_parse_encrypt_then_mac_ext
.Ltmp399:
	@DEBUG_VALUE: ssl_parse_server_hello:ret <- $r0
	.loc	12 1901 17 is_stmt 0            @ ../../../ThirdParty/mbedTLS/library/ssl_cli.c:1901:17
	cbz	r0, .LBB2_107
	b	.LBB2_88
.Ltmp400:
.LBB2_105:                              @   in Loop: Header=BB2_90 Depth=1
	@DEBUG_VALUE: ssl_parse_server_hello:ext_len <- [DW_OP_plus_uconst 44] [$sp+0]
	@DEBUG_VALUE: ext_size <- $r7
	@DEBUG_VALUE: ext_id <- $r0
	@DEBUG_VALUE: ssl_parse_server_hello:renegotiation_info_seen <- [DW_OP_plus_uconst 48] [$sp+0]
	@DEBUG_VALUE: ssl_parse_server_hello:ext <- [DW_OP_plus_uconst 40] [$sp+0]
	@DEBUG_VALUE: ssl_parse_server_hello:handshake_failure <- 0
	.loc	12 1912 13 is_stmt 1            @ ../../../ThirdParty/mbedTLS/library/ssl_cli.c:1912:13
	ldr	r0, __arm_cp.2_34
.Ltmp401:
	str	r0, [sp]
	ldr	r3, __arm_cp.2_27
	adds	r3, #103
	movs	r1, #3
	ldr	r4, [sp, #60]                   @ 4-byte Reload
	mov	r0, r4
	ldr	r2, __arm_cp.2_1
	bl	mbedtls_debug_print_msg
.Ltmp402:
	.loc	12 1914 25                      @ ../../../ThirdParty/mbedTLS/library/ssl_cli.c:1914:25
	mov	r0, r4
	mov	r1, r7
	bl	ssl_parse_extended_ms_ext
.Ltmp403:
	@DEBUG_VALUE: ssl_parse_server_hello:ret <- $r0
	.loc	12 1914 17 is_stmt 0            @ ../../../ThirdParty/mbedTLS/library/ssl_cli.c:1914:17
	cbz	r0, .LBB2_107
	b	.LBB2_88
.Ltmp404:
.LBB2_106:                              @   in Loop: Header=BB2_90 Depth=1
	@DEBUG_VALUE: ssl_parse_server_hello:ext_len <- [DW_OP_plus_uconst 44] [$sp+0]
	@DEBUG_VALUE: ext_size <- $r7
	@DEBUG_VALUE: ext_id <- $r0
	@DEBUG_VALUE: ssl_parse_server_hello:renegotiation_info_seen <- [DW_OP_plus_uconst 48] [$sp+0]
	@DEBUG_VALUE: ssl_parse_server_hello:ext <- [DW_OP_plus_uconst 40] [$sp+0]
	@DEBUG_VALUE: ssl_parse_server_hello:handshake_failure <- 0
	.loc	12 1925 13 is_stmt 1            @ ../../../ThirdParty/mbedTLS/library/ssl_cli.c:1925:13
	ldr	r0, __arm_cp.2_33
.Ltmp405:
	str	r0, [sp]
	ldr	r3, __arm_cp.2_27
	adds	r3, #116
	movs	r1, #3
	ldr	r4, [sp, #60]                   @ 4-byte Reload
	mov	r0, r4
	ldr	r2, __arm_cp.2_1
	bl	mbedtls_debug_print_msg
.Ltmp406:
	.loc	12 1927 25                      @ ../../../ThirdParty/mbedTLS/library/ssl_cli.c:1927:25
	mov	r0, r4
	mov	r1, r7
	bl	ssl_parse_session_ticket_ext
.Ltmp407:
	@DEBUG_VALUE: ssl_parse_server_hello:ret <- $r0
	.loc	12 1927 17 is_stmt 0            @ ../../../ThirdParty/mbedTLS/library/ssl_cli.c:1927:17
	cmp	r0, #0
	beq	.LBB2_107
	b	.LBB2_88
.Ltmp408:
.LBB2_107:                              @   in Loop: Header=BB2_90 Depth=1
	@DEBUG_VALUE: ssl_parse_server_hello:ext_len <- [DW_OP_plus_uconst 44] [$sp+0]
	@DEBUG_VALUE: ext_size <- $r7
	@DEBUG_VALUE: ssl_parse_server_hello:ext <- [DW_OP_plus_uconst 40] [$sp+0]
	@DEBUG_VALUE: ssl_parse_server_hello:handshake_failure <- 0
	@DEBUG_VALUE: ssl_parse_server_hello:renegotiation_info_seen <- [DW_OP_plus_uconst 48] [$sp+0]
	.loc	12 1980 13 is_stmt 1            @ ../../../ThirdParty/mbedTLS/library/ssl_cli.c:1980:13
	ldr	r0, [sp, #40]                   @ 4-byte Reload
	adds	r0, r0, r5
.Ltmp409:
	@DEBUG_VALUE: ssl_parse_server_hello:ext <- $r0
	.loc	12 0 13 is_stmt 0               @ ../../../ThirdParty/mbedTLS/library/ssl_cli.c:0:13
	str	r0, [sp, #40]                   @ 4-byte Spill
.Ltmp410:
	@DEBUG_VALUE: ssl_parse_server_hello:ext <- [DW_OP_plus_uconst 40] [$sp+0]
	@DEBUG_VALUE: ssl_parse_server_hello:ext <- [DW_OP_plus_uconst 40] [$sp+0]
	ldr	r0, [sp, #44]                   @ 4-byte Reload
.Ltmp411:
	@DEBUG_VALUE: ssl_parse_server_hello:ext_len <- $r0
	.loc	12 1979 17 is_stmt 1            @ ../../../ThirdParty/mbedTLS/library/ssl_cli.c:1979:17
	subs	r0, r0, r5
.Ltmp412:
	@DEBUG_VALUE: ssl_parse_server_hello:ext_len <- $r0
	.loc	12 0 17 is_stmt 0               @ ../../../ThirdParty/mbedTLS/library/ssl_cli.c:0:17
	str	r0, [sp, #44]                   @ 4-byte Spill
.Ltmp413:
	@DEBUG_VALUE: ssl_parse_server_hello:ext_len <- [DW_OP_plus_uconst 44] [$sp+0]
	.loc	12 1982 25 is_stmt 1            @ ../../../ThirdParty/mbedTLS/library/ssl_cli.c:1982:25
	subs	r0, r0, #1
	@DEBUG_VALUE: ssl_parse_server_hello:ext_len <- [DW_OP_plus_uconst 44] [$sp+0]
	cmp	r0, #2
	bhi	.LBB2_109
.Ltmp414:
@ %bb.108:                              @   in Loop: Header=BB2_90 Depth=1
	@DEBUG_VALUE: ext_size <- $r7
	@DEBUG_VALUE: ssl_parse_server_hello:ext_len <- [DW_OP_plus_uconst 44] [$sp+0]
	@DEBUG_VALUE: ssl_parse_server_hello:renegotiation_info_seen <- [DW_OP_plus_uconst 48] [$sp+0]
	@DEBUG_VALUE: ssl_parse_server_hello:ext <- [DW_OP_plus_uconst 40] [$sp+0]
	@DEBUG_VALUE: ssl_parse_server_hello:handshake_failure <- 0
	.loc	12 1984 13                      @ ../../../ThirdParty/mbedTLS/library/ssl_cli.c:1984:13
	ldr	r0, __arm_cp.2_4
	str	r0, [sp]
	ldr	r3, __arm_cp.2_27
	adds	r3, #175
	movs	r1, #1
	ldr	r0, [sp, #60]                   @ 4-byte Reload
	ldr	r2, __arm_cp.2_1
	bl	mbedtls_debug_print_msg
	b	.LBB2_93
.Ltmp415:
.LBB2_109:                              @   in Loop: Header=BB2_90 Depth=1
	@DEBUG_VALUE: ext_size <- $r7
	@DEBUG_VALUE: ssl_parse_server_hello:ext_len <- [DW_OP_plus_uconst 44] [$sp+0]
	@DEBUG_VALUE: ssl_parse_server_hello:renegotiation_info_seen <- [DW_OP_plus_uconst 48] [$sp+0]
	@DEBUG_VALUE: ssl_parse_server_hello:ext <- [DW_OP_plus_uconst 40] [$sp+0]
	@DEBUG_VALUE: ssl_parse_server_hello:handshake_failure <- 0
	.loc	12 0 13 is_stmt 0               @ ../../../ThirdParty/mbedTLS/library/ssl_cli.c:0:13
	ldr	r1, [sp, #64]                   @ 4-byte Reload
	mov	r0, r6
	b	.LBB2_89
.Ltmp416:
.LBB2_110:
	@DEBUG_VALUE: ssl_parse_server_hello:ext_len <- $r2
	@DEBUG_VALUE: ssl_parse_server_hello:renegotiation_info_seen <- [DW_OP_plus_uconst 48] [$sp+0]
	@DEBUG_VALUE: ssl_parse_server_hello:ext <- [DW_OP_plus_uconst 40] [$sp+0]
	@DEBUG_VALUE: ssl_parse_server_hello:handshake_failure <- 0
	@DEBUG_VALUE: ssl_parse_server_hello:renegotiation_info_seen <- [DW_OP_plus_uconst 48] [$sp+0]
	.loc	12 1992 14 is_stmt 1            @ ../../../ThirdParty/mbedTLS/library/ssl_cli.c:1992:14
	ldr	r0, [sp, #56]                   @ 4-byte Reload
	ldr	r0, [r0, #76]
	.loc	12 1992 71 is_stmt 0            @ ../../../ThirdParty/mbedTLS/library/ssl_cli.c:1992:71
	cbnz	r0, .LBB2_113
.Ltmp417:
@ %bb.111:
	@DEBUG_VALUE: ssl_parse_server_hello:ext_len <- $r2
	@DEBUG_VALUE: ssl_parse_server_hello:renegotiation_info_seen <- [DW_OP_plus_uconst 48] [$sp+0]
	@DEBUG_VALUE: ssl_parse_server_hello:ext <- [DW_OP_plus_uconst 40] [$sp+0]
	@DEBUG_VALUE: ssl_parse_server_hello:handshake_failure <- 0
	.loc	12 1993 18 is_stmt 1            @ ../../../ThirdParty/mbedTLS/library/ssl_cli.c:1993:18
	ldr	r1, [sp, #60]                   @ 4-byte Reload
	ldr	r1, [r1]
	.loc	12 1993 24 is_stmt 0            @ ../../../ThirdParty/mbedTLS/library/ssl_cli.c:1993:24
	ldr	r2, [sp, #52]                   @ 4-byte Reload
.Ltmp418:
	ldrh	r1, [r1, r2]
	movs	r2, #48
	.loc	12 1993 51                      @ ../../../ThirdParty/mbedTLS/library/ssl_cli.c:1993:51
	ands	r2, r1
.Ltmp419:
	.loc	12 1992 9 is_stmt 1             @ ../../../ThirdParty/mbedTLS/library/ssl_cli.c:1992:9
	cmp	r2, #32
	bne	.LBB2_113
.Ltmp420:
@ %bb.112:
	@DEBUG_VALUE: ssl_parse_server_hello:renegotiation_info_seen <- [DW_OP_plus_uconst 48] [$sp+0]
	@DEBUG_VALUE: ssl_parse_server_hello:ext <- [DW_OP_plus_uconst 40] [$sp+0]
	@DEBUG_VALUE: ssl_parse_server_hello:handshake_failure <- 0
	.loc	12 1995 9                       @ ../../../ThirdParty/mbedTLS/library/ssl_cli.c:1995:9
	ldr	r0, __arm_cp.2_43
	str	r0, [sp]
	ldr	r3, __arm_cp.2_27
	adds	r3, #186
	b	.LBB2_134
.Ltmp421:
.LBB2_113:
	@DEBUG_VALUE: ssl_parse_server_hello:renegotiation_info_seen <- [DW_OP_plus_uconst 48] [$sp+0]
	@DEBUG_VALUE: ssl_parse_server_hello:ext <- [DW_OP_plus_uconst 40] [$sp+0]
	@DEBUG_VALUE: ssl_parse_server_hello:handshake_failure <- 0
	.loc	12 1999 19                      @ ../../../ThirdParty/mbedTLS/library/ssl_cli.c:1999:19
	ldr	r1, [sp, #60]                   @ 4-byte Reload
	ldr	r1, [r1, #8]
	.loc	12 1999 74 is_stmt 0            @ ../../../ThirdParty/mbedTLS/library/ssl_cli.c:1999:74
	cmp	r1, #1
	bne	.LBB2_124
.Ltmp422:
@ %bb.114:
	@DEBUG_VALUE: ssl_parse_server_hello:renegotiation_info_seen <- [DW_OP_plus_uconst 48] [$sp+0]
	@DEBUG_VALUE: ssl_parse_server_hello:ext <- [DW_OP_plus_uconst 40] [$sp+0]
	@DEBUG_VALUE: ssl_parse_server_hello:handshake_failure <- 0
	.loc	12 2000 76 is_stmt 1            @ ../../../ThirdParty/mbedTLS/library/ssl_cli.c:2000:76
	ldr	r2, [sp, #48]                   @ 4-byte Reload
	cbnz	r2, .LBB2_117
.Ltmp423:
@ %bb.115:
	@DEBUG_VALUE: ssl_parse_server_hello:renegotiation_info_seen <- [DW_OP_plus_uconst 48] [$sp+0]
	@DEBUG_VALUE: ssl_parse_server_hello:ext <- [DW_OP_plus_uconst 40] [$sp+0]
	@DEBUG_VALUE: ssl_parse_server_hello:handshake_failure <- 0
	cmp	r0, #1
	bne	.LBB2_117
.Ltmp424:
@ %bb.116:
	@DEBUG_VALUE: ssl_parse_server_hello:renegotiation_info_seen <- [DW_OP_plus_uconst 48] [$sp+0]
	@DEBUG_VALUE: ssl_parse_server_hello:ext <- [DW_OP_plus_uconst 40] [$sp+0]
	@DEBUG_VALUE: ssl_parse_server_hello:handshake_failure <- 0
	.loc	12 2003 9                       @ ../../../ThirdParty/mbedTLS/library/ssl_cli.c:2003:9
	ldr	r0, __arm_cp.2_42
	str	r0, [sp]
	ldr	r3, __arm_cp.2_27
	adds	r3, #194
	b	.LBB2_134
.Ltmp425:
.LBB2_117:
	@DEBUG_VALUE: ssl_parse_server_hello:renegotiation_info_seen <- [DW_OP_plus_uconst 48] [$sp+0]
	@DEBUG_VALUE: ssl_parse_server_hello:ext <- [DW_OP_plus_uconst 40] [$sp+0]
	@DEBUG_VALUE: ssl_parse_server_hello:handshake_failure <- 0
	.loc	12 2006 74                      @ ../../../ThirdParty/mbedTLS/library/ssl_cli.c:2006:74
	cbnz	r0, .LBB2_120
.Ltmp426:
@ %bb.118:
	@DEBUG_VALUE: ssl_parse_server_hello:renegotiation_info_seen <- [DW_OP_plus_uconst 48] [$sp+0]
	@DEBUG_VALUE: ssl_parse_server_hello:ext <- [DW_OP_plus_uconst 40] [$sp+0]
	@DEBUG_VALUE: ssl_parse_server_hello:handshake_failure <- 0
	cmp	r1, #1
	bne	.LBB2_120
.Ltmp427:
@ %bb.119:
	@DEBUG_VALUE: ssl_parse_server_hello:renegotiation_info_seen <- [DW_OP_plus_uconst 48] [$sp+0]
	@DEBUG_VALUE: ssl_parse_server_hello:ext <- [DW_OP_plus_uconst 40] [$sp+0]
	@DEBUG_VALUE: ssl_parse_server_hello:handshake_failure <- 0
	.loc	12 2008 19                      @ ../../../ThirdParty/mbedTLS/library/ssl_cli.c:2008:19
	ldr	r2, [sp, #60]                   @ 4-byte Reload
	ldr	r2, [r2]
	.loc	12 2008 25 is_stmt 0            @ ../../../ThirdParty/mbedTLS/library/ssl_cli.c:2008:25
	ldr	r3, [sp, #52]                   @ 4-byte Reload
	ldrh	r2, [r2, r3]
.Ltmp428:
	.loc	12 2006 14 is_stmt 1            @ ../../../ThirdParty/mbedTLS/library/ssl_cli.c:2006:14
	lsls	r2, r2, #26
	lsrs	r2, r2, #30
	beq	.LBB2_133
.Ltmp429:
.LBB2_120:
	@DEBUG_VALUE: ssl_parse_server_hello:renegotiation_info_seen <- [DW_OP_plus_uconst 48] [$sp+0]
	@DEBUG_VALUE: ssl_parse_server_hello:ext <- [DW_OP_plus_uconst 40] [$sp+0]
	@DEBUG_VALUE: ssl_parse_server_hello:handshake_failure <- 0
	.loc	12 2013 74                      @ ../../../ThirdParty/mbedTLS/library/ssl_cli.c:2013:74
	ldr	r2, [sp, #48]                   @ 4-byte Reload
	cmp	r2, #1
	bne	.LBB2_124
.Ltmp430:
@ %bb.121:
	@DEBUG_VALUE: ssl_parse_server_hello:renegotiation_info_seen <- [DW_OP_plus_uconst 48] [$sp+0]
	@DEBUG_VALUE: ssl_parse_server_hello:ext <- [DW_OP_plus_uconst 40] [$sp+0]
	@DEBUG_VALUE: ssl_parse_server_hello:handshake_failure <- 0
	cbnz	r0, .LBB2_124
.Ltmp431:
@ %bb.122:
	@DEBUG_VALUE: ssl_parse_server_hello:renegotiation_info_seen <- [DW_OP_plus_uconst 48] [$sp+0]
	@DEBUG_VALUE: ssl_parse_server_hello:ext <- [DW_OP_plus_uconst 40] [$sp+0]
	@DEBUG_VALUE: ssl_parse_server_hello:handshake_failure <- 0
	cmp	r1, #1
	bne	.LBB2_124
.Ltmp432:
@ %bb.123:
	@DEBUG_VALUE: ssl_parse_server_hello:renegotiation_info_seen <- [DW_OP_plus_uconst 48] [$sp+0]
	@DEBUG_VALUE: ssl_parse_server_hello:ext <- [DW_OP_plus_uconst 40] [$sp+0]
	@DEBUG_VALUE: ssl_parse_server_hello:handshake_failure <- 0
	.loc	12 2017 9                       @ ../../../ThirdParty/mbedTLS/library/ssl_cli.c:2017:9
	ldr	r0, __arm_cp.2_40
	str	r0, [sp]
	ldr	r3, __arm_cp.2_27
	adds	r3, #208
	b	.LBB2_134
.Ltmp433:
.LBB2_124:
	@DEBUG_VALUE: ssl_parse_server_hello:renegotiation_info_seen <- [DW_OP_plus_uconst 48] [$sp+0]
	@DEBUG_VALUE: ssl_parse_server_hello:ext <- [DW_OP_plus_uconst 40] [$sp+0]
	@DEBUG_VALUE: ssl_parse_server_hello:handshake_failure <- 0
	.loc	12 2029 5                       @ ../../../ThirdParty/mbedTLS/library/ssl_cli.c:2029:5
	ldr	r0, __arm_cp.2_10
	str	r0, [sp]
	ldr	r3, __arm_cp.2_27
	adds	r3, #220
	movs	r1, #2
	ldr	r2, __arm_cp.2_1
	ldr	r0, [sp, #60]                   @ 4-byte Reload
	bl	mbedtls_debug_print_msg
	movs	r0, #0
.Ltmp434:
.LBB2_125:
	@DEBUG_VALUE: ssl_parse_server_hello:renegotiation_info_seen <- [DW_OP_plus_uconst 48] [$sp+0]
	@DEBUG_VALUE: ssl_parse_server_hello:ext <- [DW_OP_plus_uconst 40] [$sp+0]
	@DEBUG_VALUE: ssl_parse_server_hello:handshake_failure <- 0
	.loc	12 2032 1                       @ ../../../ThirdParty/mbedTLS/library/ssl_cli.c:2032:1
	add	sp, #68
.Ltmp435:
	pop	{r4, r5, r6, r7, pc}
.Ltmp436:
.LBB2_126:
	@DEBUG_VALUE: ssl_parse_server_hello:ext_len <- [DW_OP_plus_uconst 44] [$sp+0]
	@DEBUG_VALUE: ssl_parse_server_hello:buf <- $r6
	@DEBUG_VALUE: ssl_parse_server_hello:i <- [DW_OP_plus_uconst 36] [$sp+0]
	@DEBUG_VALUE: ssl_parse_server_hello:renegotiation_info_seen <- 0
	@DEBUG_VALUE: ssl_parse_server_hello:handshake_failure <- 0
	.loc	12 0 1 is_stmt 0                @ ../../../ThirdParty/mbedTLS/library/ssl_cli.c:0:1
	movs	r0, #12
.Ltmp437:
	.loc	12 1768 20 is_stmt 1            @ ../../../ThirdParty/mbedTLS/library/ssl_cli.c:1768:20
	str	r0, [r3, #4]
.Ltmp438:
	.loc	12 1770 21                      @ ../../../ThirdParty/mbedTLS/library/ssl_cli.c:1770:21
	mov	r0, r3
	mov	r4, r3
	mov	r7, r2
	bl	mbedtls_ssl_derive_keys
.Ltmp439:
	@DEBUG_VALUE: ssl_parse_server_hello:ret <- $r0
	.loc	12 1770 13 is_stmt 0            @ ../../../ThirdParty/mbedTLS/library/ssl_cli.c:1770:13
	cmp	r0, #0
	@DEBUG_VALUE: ssl_parse_server_hello:ret <- $r0
	bne	.LBB2_127
	b	.LBB2_48
.Ltmp440:
.LBB2_127:
	@DEBUG_VALUE: ssl_parse_server_hello:ext_len <- [DW_OP_plus_uconst 44] [$sp+0]
	@DEBUG_VALUE: ssl_parse_server_hello:buf <- $r6
	@DEBUG_VALUE: ssl_parse_server_hello:ret <- $r0
	@DEBUG_VALUE: ssl_parse_server_hello:i <- [DW_OP_plus_uconst 36] [$sp+0]
	@DEBUG_VALUE: ssl_parse_server_hello:renegotiation_info_seen <- 0
	@DEBUG_VALUE: ssl_parse_server_hello:handshake_failure <- 0
	.loc	12 0 13                         @ ../../../ThirdParty/mbedTLS/library/ssl_cli.c:0:13
	mov	r1, r0
.Ltmp441:
	@DEBUG_VALUE: ssl_parse_server_hello:ret <- $r1
	mov	r5, r0
.Ltmp442:
	.loc	12 1772 13 is_stmt 1            @ ../../../ThirdParty/mbedTLS/library/ssl_cli.c:1772:13
	str	r1, [sp, #4]
	ldr	r0, __arm_cp.2_21
	str	r0, [sp]
	ldr	r3, __arm_cp.2_2
	adds	r3, #222
	movs	r1, #1
.Ltmp443:
	ldr	r2, __arm_cp.2_1
	mov	r0, r4
	bl	mbedtls_debug_print_ret
	movs	r1, #2
	movs	r2, #80
	.loc	12 1773 13                      @ ../../../ThirdParty/mbedTLS/library/ssl_cli.c:1773:13
	mov	r0, r4
	bl	mbedtls_ssl_send_alert_message
	bl	.LBB2_2
.Ltmp444:
	.p2align	2
@ %bb.128:
	.loc	12 0 13 is_stmt 0               @ ../../../ThirdParty/mbedTLS/library/ssl_cli.c:0:13
__arm_cp.2_73:
	.long	.L.str.57
.Lcpi_end42:
	.size	__arm_cp.2_73, .Lcpi_end42-__arm_cp.2_73
	.p2align	2
@ %bb.129:
__arm_cp.2_74:
	.long	.L.str.55
.Lcpi_end43:
	.size	__arm_cp.2_74, .Lcpi_end43-__arm_cp.2_74
	.p2align	2
@ %bb.130:
.LCPI2_75:
	.long	1550                            @ 0x60e
	.p2align	2
@ %bb.131:
.LCPI2_76:
	.long	.L.str
	.p2align	2
@ %bb.132:
__arm_cp.2_81:
	.long	.L.str.58
.Lcpi_end44:
	.size	__arm_cp.2_81, .Lcpi_end44-__arm_cp.2_81
	.p2align	1
.LBB2_133:
.Ltmp445:
	@DEBUG_VALUE: ssl_parse_server_hello:renegotiation_info_seen <- [DW_OP_plus_uconst 48] [$sp+0]
	@DEBUG_VALUE: ssl_parse_server_hello:ext <- [DW_OP_plus_uconst 40] [$sp+0]
	@DEBUG_VALUE: ssl_parse_server_hello:handshake_failure <- 0
	.loc	12 2010 9 is_stmt 1             @ ../../../ThirdParty/mbedTLS/library/ssl_cli.c:2010:9
	ldr	r0, __arm_cp.2_41
	str	r0, [sp]
	ldr	r3, __arm_cp.2_27
	adds	r3, #201
.Ltmp446:
.LBB2_134:
	@DEBUG_VALUE: ssl_parse_server_hello:renegotiation_info_seen <- [DW_OP_plus_uconst 48] [$sp+0]
	@DEBUG_VALUE: ssl_parse_server_hello:ext <- [DW_OP_plus_uconst 40] [$sp+0]
	@DEBUG_VALUE: ssl_parse_server_hello:handshake_failure <- 0
	.loc	12 0 9 is_stmt 0                @ ../../../ThirdParty/mbedTLS/library/ssl_cli.c:0:9
	movs	r1, #1
	ldr	r2, __arm_cp.2_1
	ldr	r0, [sp, #60]                   @ 4-byte Reload
	bl	mbedtls_debug_print_msg
.Ltmp447:
	@DEBUG_VALUE: ssl_parse_server_hello:handshake_failure <- 1
	movs	r1, #2
	movs	r2, #40
.Ltmp448:
	.loc	12 2024 9 is_stmt 1             @ ../../../ThirdParty/mbedTLS/library/ssl_cli.c:2024:9
	ldr	r0, [sp, #60]                   @ 4-byte Reload
	b	.LBB2_24
.Ltmp449:
@ %bb.135:
	.p2align	2
@ %bb.136:
	.loc	12 0 9 is_stmt 0                @ ../../../ThirdParty/mbedTLS/library/ssl_cli.c:0:9
__arm_cp.2_78:
	.long	.L.str.59
.Lcpi_end45:
	.size	__arm_cp.2_78, .Lcpi_end45-__arm_cp.2_78
	.p2align	2
@ %bb.137:
__arm_cp.2_1:
	.long	.L.str
.Lcpi_end46:
	.size	__arm_cp.2_1, .Lcpi_end46-__arm_cp.2_1
__arm_cp.2_2:
	.long	1550                            @ 0x60e
.Lcpi_end47:
	.size	__arm_cp.2_2, .Lcpi_end47-__arm_cp.2_2
__arm_cp.2_4:
	.long	.L.str.43
.Lcpi_end48:
	.size	__arm_cp.2_4, .Lcpi_end48-__arm_cp.2_4
__arm_cp.2_10:
	.long	.L.str.45
.Lcpi_end49:
	.size	__arm_cp.2_10, .Lcpi_end49-__arm_cp.2_10
__arm_cp.2_15:
	.long	4294936192                      @ 0xffff8680
.Lcpi_end50:
	.size	__arm_cp.2_15, .Lcpi_end50-__arm_cp.2_15
__arm_cp.2_21:
	.long	.L.str.54
.Lcpi_end51:
	.size	__arm_cp.2_21, .Lcpi_end51-__arm_cp.2_21
__arm_cp.2_27:
	.long	1809                            @ 0x711
.Lcpi_end52:
	.size	__arm_cp.2_27, .Lcpi_end52-__arm_cp.2_27
__arm_cp.2_28:
	.long	.L.str.60
.Lcpi_end53:
	.size	__arm_cp.2_28, .Lcpi_end53-__arm_cp.2_28
__arm_cp.2_29:
	.long	.L.str.61
.Lcpi_end54:
	.size	__arm_cp.2_29, .Lcpi_end54-__arm_cp.2_29
__arm_cp.2_30:
	.long	65281                           @ 0xff01
.Lcpi_end55:
	.size	__arm_cp.2_30, .Lcpi_end55-__arm_cp.2_30
__arm_cp.2_31:
	.long	.L.str.69
.Lcpi_end56:
	.size	__arm_cp.2_31, .Lcpi_end56-__arm_cp.2_31
__arm_cp.2_32:
	.long	.L.str.68
.Lcpi_end57:
	.size	__arm_cp.2_32, .Lcpi_end57-__arm_cp.2_32
__arm_cp.2_33:
	.long	.L.str.67
.Lcpi_end58:
	.size	__arm_cp.2_33, .Lcpi_end58-__arm_cp.2_33
__arm_cp.2_34:
	.long	.L.str.66
.Lcpi_end59:
	.size	__arm_cp.2_34, .Lcpi_end59-__arm_cp.2_34
__arm_cp.2_35:
	.long	.L.str.65
.Lcpi_end60:
	.size	__arm_cp.2_35, .Lcpi_end60-__arm_cp.2_35
__arm_cp.2_36:
	.long	.L.str.64
.Lcpi_end61:
	.size	__arm_cp.2_36, .Lcpi_end61-__arm_cp.2_36
__arm_cp.2_37:
	.long	.L.str.63
.Lcpi_end62:
	.size	__arm_cp.2_37, .Lcpi_end62-__arm_cp.2_37
__arm_cp.2_38:
	.long	.L.str.62
.Lcpi_end63:
	.size	__arm_cp.2_38, .Lcpi_end63-__arm_cp.2_38
__arm_cp.2_39:
	.long	.L.str.70
.Lcpi_end64:
	.size	__arm_cp.2_39, .Lcpi_end64-__arm_cp.2_39
__arm_cp.2_40:
	.long	.L.str.74
.Lcpi_end65:
	.size	__arm_cp.2_40, .Lcpi_end65-__arm_cp.2_40
__arm_cp.2_41:
	.long	.L.str.73
.Lcpi_end66:
	.size	__arm_cp.2_41, .Lcpi_end66-__arm_cp.2_41
__arm_cp.2_42:
	.long	.L.str.72
.Lcpi_end67:
	.size	__arm_cp.2_42, .Lcpi_end67-__arm_cp.2_42
__arm_cp.2_43:
	.long	.L.str.71
.Lcpi_end68:
	.size	__arm_cp.2_43, .Lcpi_end68-__arm_cp.2_43
.Lfunc_end2:
	.size	ssl_parse_server_hello, .Lfunc_end2-ssl_parse_server_hello
	.cfi_endproc
	.cantunwind
	.fnend
                                        @ -- End function
	.section	.text.ssl_parse_server_key_exchange,"ax",%progbits
	.p2align	2                               @ -- Begin function ssl_parse_server_key_exchange
	.type	ssl_parse_server_key_exchange,%function
	.code	16                              @ @ssl_parse_server_key_exchange
	.thumb_func
ssl_parse_server_key_exchange:
.Lfunc_begin3:
	.loc	12 2462 0 is_stmt 1             @ ../../../ThirdParty/mbedTLS/library/ssl_cli.c:2462:0
	.fnstart
	.cfi_startproc
@ %bb.0:
	@DEBUG_VALUE: ssl_parse_server_key_exchange:ssl <- $r0
	.save	{r4, r5, r6, r7, lr}
	push	{r4, r5, r6, r7, lr}
	.cfi_def_cfa_offset 20
	.cfi_offset lr, -4
	.cfi_offset r7, -8
	.cfi_offset r6, -12
	.cfi_offset r5, -16
	.cfi_offset r4, -20
	.pad	#124
	sub	sp, #124
	.cfi_def_cfa_offset 144
	mov	r6, r0
.Ltmp450:
	@DEBUG_VALUE: ssl_parse_server_key_exchange:ssl <- $r6
	.loc	12 2465 14 prologue_end         @ ../../../ThirdParty/mbedTLS/library/ssl_cli.c:2465:14
	ldr	r0, [r0, #76]
	.loc	12 2465 35 is_stmt 0            @ ../../../ThirdParty/mbedTLS/library/ssl_cli.c:2465:35
	ldr	r7, [r0]
.Ltmp451:
	@DEBUG_VALUE: ssl_parse_server_key_exchange:ciphersuite_info <- $r7
	.loc	12 0 35                         @ ../../../ThirdParty/mbedTLS/library/ssl_cli.c:0:35
	movs	r0, #0
.Ltmp452:
	@DEBUG_VALUE: ssl_parse_server_key_exchange:p <- 0
	str	r0, [sp, #40]                   @ 4-byte Spill
	.loc	12 2466 20 is_stmt 1            @ ../../../ThirdParty/mbedTLS/library/ssl_cli.c:2466:20
	str	r0, [sp, #120]
.Ltmp453:
	@DEBUG_VALUE: ssl_parse_server_key_exchange:end <- 0
	.loc	12 2468 5                       @ ../../../ThirdParty/mbedTLS/library/ssl_cli.c:2468:5
	adr	r0, .LCPI3_25
	str	r0, [sp]
	movs	r4, #2
	ldr	r2, .LCPI3_20
	ldr	r5, __arm_cp.3_21
	mov	r0, r6
	mov	r1, r4
	mov	r3, r5
	bl	mbedtls_debug_print_msg
.Ltmp454:
	.loc	12 2471 27                      @ ../../../ThirdParty/mbedTLS/library/ssl_cli.c:2471:27
	ldrb	r0, [r7, #10]
.Ltmp455:
	.loc	12 2471 9 is_stmt 0             @ ../../../ThirdParty/mbedTLS/library/ssl_cli.c:2471:9
	mov	r1, r0
	subs	r1, #9
	cmp	r1, #2
	bhs	.LBB3_3
.Ltmp456:
@ %bb.1:
	@DEBUG_VALUE: ssl_parse_server_key_exchange:ciphersuite_info <- $r7
	@DEBUG_VALUE: ssl_parse_server_key_exchange:ssl <- $r6
	@DEBUG_VALUE: ssl_parse_server_key_exchange:end <- 0
	@DEBUG_VALUE: ssl_parse_server_key_exchange:p <- 0
	.loc	12 2486 21 is_stmt 1            @ ../../../ThirdParty/mbedTLS/library/ssl_cli.c:2486:21
	mov	r0, r6
	bl	ssl_get_ecdh_params_from_cert
	mov	r4, r6
.Ltmp457:
	@DEBUG_VALUE: ssl_parse_server_key_exchange:ssl <- $r4
	@DEBUG_VALUE: ssl_parse_server_key_exchange:ret <- $r0
	.loc	12 2486 13 is_stmt 0            @ ../../../ThirdParty/mbedTLS/library/ssl_cli.c:2486:13
	cbz	r0, .LBB3_7
.Ltmp458:
@ %bb.2:
	@DEBUG_VALUE: ssl_parse_server_key_exchange:ciphersuite_info <- $r7
	@DEBUG_VALUE: ssl_parse_server_key_exchange:ssl <- $r4
	@DEBUG_VALUE: ssl_parse_server_key_exchange:ret <- $r0
	@DEBUG_VALUE: ssl_parse_server_key_exchange:end <- 0
	@DEBUG_VALUE: ssl_parse_server_key_exchange:p <- 0
	.loc	12 0 0                          @ ../../../ThirdParty/mbedTLS/library/ssl_cli.c:0:0
	mov	r6, r0
.Ltmp459:
	@DEBUG_VALUE: ssl_parse_server_key_exchange:ret <- $r6
	.loc	12 2488 13 is_stmt 1            @ ../../../ThirdParty/mbedTLS/library/ssl_cli.c:2488:13
	adr	r0, .LCPI3_22
	str	r0, [sp]
	str	r6, [sp, #4]
	adds	r5, #20
	movs	r1, #1
	ldr	r2, .LCPI3_20
	mov	r0, r4
	mov	r3, r5
	bl	mbedtls_debug_print_ret
	movs	r1, #2
	movs	r2, #40
	.loc	12 2489 13                      @ ../../../ThirdParty/mbedTLS/library/ssl_cli.c:2489:13
	mov	r0, r4
	bl	mbedtls_ssl_send_alert_message
	.loc	12 2491 13                      @ ../../../ThirdParty/mbedTLS/library/ssl_cli.c:2491:13
	b	.LBB3_8
.Ltmp460:
.LBB3_3:
	@DEBUG_VALUE: ssl_parse_server_key_exchange:ciphersuite_info <- $r7
	@DEBUG_VALUE: ssl_parse_server_key_exchange:ssl <- $r6
	@DEBUG_VALUE: ssl_parse_server_key_exchange:end <- 0
	@DEBUG_VALUE: ssl_parse_server_key_exchange:p <- 0
	.loc	12 2471 9                       @ ../../../ThirdParty/mbedTLS/library/ssl_cli.c:2471:9
	cmp	r0, #1
	bne	.LBB3_5
.Ltmp461:
@ %bb.4:
	@DEBUG_VALUE: ssl_parse_server_key_exchange:ciphersuite_info <- $r7
	@DEBUG_VALUE: ssl_parse_server_key_exchange:ssl <- $r6
	@DEBUG_VALUE: ssl_parse_server_key_exchange:end <- 0
	@DEBUG_VALUE: ssl_parse_server_key_exchange:p <- 0
	.loc	12 2473 9                       @ ../../../ThirdParty/mbedTLS/library/ssl_cli.c:2473:9
	ldr	r0, .LCPI3_23
	str	r0, [sp]
	adds	r3, r5, #5
	movs	r1, #2
	ldr	r2, .LCPI3_20
	mov	r0, r6
	bl	mbedtls_debug_print_msg
	.loc	12 2474 19                      @ ../../../ThirdParty/mbedTLS/library/ssl_cli.c:2474:19
	ldr	r0, [r6, #4]
	adds	r0, r0, #1
	str	r0, [r6, #4]
.Ltmp462:
	.loc	12 0 0 is_stmt 0                @ ../../../ThirdParty/mbedTLS/library/ssl_cli.c:0:0
	ldr	r6, [sp, #40]                   @ 4-byte Reload
.Ltmp463:
	@DEBUG_VALUE: ssl_parse_server_key_exchange:ssl <- [DW_OP_LLVM_entry_value 1] $r0
	.loc	12 2475 9 is_stmt 1             @ ../../../ThirdParty/mbedTLS/library/ssl_cli.c:2475:9
	b	.LBB3_8
.Ltmp464:
.LBB3_5:
	@DEBUG_VALUE: ssl_parse_server_key_exchange:ciphersuite_info <- $r7
	@DEBUG_VALUE: ssl_parse_server_key_exchange:ssl <- $r6
	@DEBUG_VALUE: ssl_parse_server_key_exchange:end <- 0
	@DEBUG_VALUE: ssl_parse_server_key_exchange:p <- 0
	.loc	12 0 9 is_stmt 0                @ ../../../ThirdParty/mbedTLS/library/ssl_cli.c:0:9
	str	r7, [sp, #36]                   @ 4-byte Spill
.Ltmp465:
	@DEBUG_VALUE: ssl_parse_server_key_exchange:ciphersuite_info <- [DW_OP_plus_uconst 36] [$sp+0]
	movs	r7, #1
.Ltmp466:
	.loc	12 2511 17 is_stmt 1            @ ../../../ThirdParty/mbedTLS/library/ssl_cli.c:2511:17
	mov	r0, r6
	mov	r1, r7
	bl	mbedtls_ssl_read_record
	mov	r3, r6
.Ltmp467:
	@DEBUG_VALUE: ssl_parse_server_key_exchange:ret <- $r0
	.loc	12 2511 9 is_stmt 0             @ ../../../ThirdParty/mbedTLS/library/ssl_cli.c:2511:9
	cbz	r0, .LBB3_9
.Ltmp468:
@ %bb.6:
	@DEBUG_VALUE: ssl_parse_server_key_exchange:ciphersuite_info <- [DW_OP_plus_uconst 36] [$sp+0]
	@DEBUG_VALUE: ssl_parse_server_key_exchange:ssl <- $r6
	@DEBUG_VALUE: ssl_parse_server_key_exchange:ret <- $r0
	@DEBUG_VALUE: ssl_parse_server_key_exchange:end <- 0
	@DEBUG_VALUE: ssl_parse_server_key_exchange:p <- 0
	.loc	12 0 0                          @ ../../../ThirdParty/mbedTLS/library/ssl_cli.c:0:0
	mov	r6, r0
.Ltmp469:
	@DEBUG_VALUE: ssl_parse_server_key_exchange:ssl <- [DW_OP_LLVM_entry_value 1] $r0
	@DEBUG_VALUE: ssl_parse_server_key_exchange:ret <- $r6
	.loc	12 2513 9 is_stmt 1             @ ../../../ThirdParty/mbedTLS/library/ssl_cli.c:2513:9
	str	r0, [sp, #4]
	ldr	r0, __arm_cp.3_24
	str	r0, [sp]
	adds	r5, #45
	movs	r1, #1
	ldr	r2, __arm_cp.3_1
	mov	r0, r3
	mov	r3, r5
	bl	mbedtls_debug_print_ret
	.loc	12 2514 9                       @ ../../../ThirdParty/mbedTLS/library/ssl_cli.c:2514:9
	b	.LBB3_8
.Ltmp470:
.LBB3_7:
	@DEBUG_VALUE: ssl_parse_server_key_exchange:ciphersuite_info <- $r7
	@DEBUG_VALUE: ssl_parse_server_key_exchange:ssl <- $r4
	@DEBUG_VALUE: ssl_parse_server_key_exchange:ret <- $r0
	@DEBUG_VALUE: ssl_parse_server_key_exchange:end <- 0
	@DEBUG_VALUE: ssl_parse_server_key_exchange:p <- 0
	.loc	12 2494 9                       @ ../../../ThirdParty/mbedTLS/library/ssl_cli.c:2494:9
	ldr	r0, __arm_cp.3_4
.Ltmp471:
	str	r0, [sp]
	adds	r5, #26
	movs	r1, #2
	ldr	r2, __arm_cp.3_1
	mov	r0, r4
	mov	r3, r5
	bl	mbedtls_debug_print_msg
	.loc	12 2495 19                      @ ../../../ThirdParty/mbedTLS/library/ssl_cli.c:2495:19
	ldr	r0, [r4, #4]
	adds	r0, r0, #1
	str	r0, [r4, #4]
.Ltmp472:
	.loc	12 0 0 is_stmt 0                @ ../../../ThirdParty/mbedTLS/library/ssl_cli.c:0:0
	ldr	r6, [sp, #40]                   @ 4-byte Reload
.Ltmp473:
.LBB3_8:
	.loc	12 2829 1 is_stmt 1             @ ../../../ThirdParty/mbedTLS/library/ssl_cli.c:2829:1
	mov	r0, r6
	add	sp, #124
	pop	{r4, r5, r6, r7, pc}
.LBB3_9:
.Ltmp474:
	@DEBUG_VALUE: ssl_parse_server_key_exchange:ciphersuite_info <- [DW_OP_plus_uconst 36] [$sp+0]
	@DEBUG_VALUE: ssl_parse_server_key_exchange:ssl <- $r6
	@DEBUG_VALUE: ssl_parse_server_key_exchange:ret <- $r0
	@DEBUG_VALUE: ssl_parse_server_key_exchange:end <- 0
	@DEBUG_VALUE: ssl_parse_server_key_exchange:p <- 0
	.loc	12 0 1 is_stmt 0                @ ../../../ThirdParty/mbedTLS/library/ssl_cli.c:0:1
	str	r7, [sp, #32]                   @ 4-byte Spill
.Ltmp475:
	.loc	12 2517 14 is_stmt 1            @ ../../../ThirdParty/mbedTLS/library/ssl_cli.c:2517:14
	ldr	r0, [r3, #120]
.Ltmp476:
	.loc	12 2517 9 is_stmt 0             @ ../../../ThirdParty/mbedTLS/library/ssl_cli.c:2517:9
	cmp	r0, #22
	mov	r6, r3
.Ltmp477:
	@DEBUG_VALUE: ssl_parse_server_key_exchange:ssl <- [DW_OP_LLVM_entry_value 1] $r0
	bne	.LBB3_14
.Ltmp478:
@ %bb.10:
	@DEBUG_VALUE: ssl_parse_server_key_exchange:ciphersuite_info <- [DW_OP_plus_uconst 36] [$sp+0]
	@DEBUG_VALUE: ssl_parse_server_key_exchange:ssl <- [DW_OP_LLVM_entry_value 1] $r0
	@DEBUG_VALUE: ssl_parse_server_key_exchange:end <- 0
	@DEBUG_VALUE: ssl_parse_server_key_exchange:p <- 0
	.loc	12 0 9                          @ ../../../ThirdParty/mbedTLS/library/ssl_cli.c:0:9
	mov	r7, r6
	adds	r7, #160
.Ltmp479:
	.loc	12 2529 14 is_stmt 1            @ ../../../ThirdParty/mbedTLS/library/ssl_cli.c:2529:14
	ldr	r2, [r6, #112]
	.loc	12 2529 9 is_stmt 0             @ ../../../ThirdParty/mbedTLS/library/ssl_cli.c:2529:9
	ldrb	r0, [r2]
.Ltmp480:
	.loc	12 2529 9                       @ ../../../ThirdParty/mbedTLS/library/ssl_cli.c:2529:9
	cmp	r0, #12
	bne	.LBB3_15
.Ltmp481:
@ %bb.11:
	@DEBUG_VALUE: ssl_parse_server_key_exchange:ciphersuite_info <- [DW_OP_plus_uconst 36] [$sp+0]
	@DEBUG_VALUE: ssl_parse_server_key_exchange:ssl <- [DW_OP_LLVM_entry_value 1] $r0
	@DEBUG_VALUE: ssl_parse_server_key_exchange:end <- 0
	@DEBUG_VALUE: ssl_parse_server_key_exchange:p <- 0
	.loc	12 2554 25 is_stmt 1            @ ../../../ThirdParty/mbedTLS/library/ssl_cli.c:2554:25
	mov	r0, r6
	mov	r4, r2
	bl	mbedtls_ssl_hs_hdr_len
	.loc	12 2554 23 is_stmt 0            @ ../../../ThirdParty/mbedTLS/library/ssl_cli.c:2554:23
	adds	r0, r4, r0
.Ltmp482:
	@DEBUG_VALUE: ssl_parse_server_key_exchange:p <- $r0
	.loc	12 2554 9                       @ ../../../ThirdParty/mbedTLS/library/ssl_cli.c:2554:9
	str	r0, [sp, #120]
	.loc	12 2555 30 is_stmt 1            @ ../../../ThirdParty/mbedTLS/library/ssl_cli.c:2555:30
	ldr	r1, [r7]
	.loc	12 2555 23 is_stmt 0            @ ../../../ThirdParty/mbedTLS/library/ssl_cli.c:2555:23
	adds	r4, r4, r1
.Ltmp483:
	@DEBUG_VALUE: ssl_parse_server_key_exchange:end <- $r4
	.loc	12 2556 5 is_stmt 1             @ ../../../ThirdParty/mbedTLS/library/ssl_cli.c:2556:5
	subs	r1, r4, r0
	adr	r2, .LCPI3_9
	str	r2, [sp]
	str	r0, [sp, #4]
	str	r1, [sp, #8]
	mov	r3, r5
	adds	r3, #88
	movs	r1, #3
	ldr	r2, __arm_cp.3_1
	mov	r0, r6
.Ltmp484:
	bl	mbedtls_debug_print_buf
.Ltmp485:
	.loc	12 2559 27                      @ ../../../ThirdParty/mbedTLS/library/ssl_cli.c:2559:27
	ldr	r0, [sp, #36]                   @ 4-byte Reload
.Ltmp486:
	@DEBUG_VALUE: ssl_parse_server_key_exchange:ciphersuite_info <- $r0
	ldrb	r0, [r0, #10]
.Ltmp487:
	.loc	12 2559 68 is_stmt 0            @ ../../../ThirdParty/mbedTLS/library/ssl_cli.c:2559:68
	subs	r0, r0, #5
	cmp	r0, #3
	@DEBUG_VALUE: ssl_parse_server_key_exchange:end <- $r4
	bhi	.LBB3_18
.Ltmp488:
@ %bb.12:
	@DEBUG_VALUE: ssl_parse_server_key_exchange:end <- $r4
	@DEBUG_VALUE: ssl_parse_server_key_exchange:ssl <- [DW_OP_LLVM_entry_value 1] $r0
	@DEBUG_VALUE: ssl_parse_server_key_exchange:p <- [DW_OP_plus_uconst 120, DW_OP_deref] $sp
	.loc	12 0 68                         @ ../../../ThirdParty/mbedTLS/library/ssl_cli.c:0:68
	add	r1, sp, #120
.Ltmp489:
	.loc	12 2564 13 is_stmt 1            @ ../../../ThirdParty/mbedTLS/library/ssl_cli.c:2564:13
	mov	r0, r6
	mov	r2, r4
	bl	ssl_parse_server_psk_hint
.Ltmp490:
	.loc	12 2564 13 is_stmt 0            @ ../../../ThirdParty/mbedTLS/library/ssl_cli.c:2564:13
	cbz	r0, .LBB3_18
.Ltmp491:
@ %bb.13:
	@DEBUG_VALUE: ssl_parse_server_key_exchange:end <- $r4
	@DEBUG_VALUE: ssl_parse_server_key_exchange:p <- [DW_OP_plus_uconst 120, DW_OP_deref] $sp
	@DEBUG_VALUE: ssl_parse_server_key_exchange:ssl <- [DW_OP_LLVM_entry_value 1] $r0
	.loc	12 2566 13 is_stmt 1            @ ../../../ThirdParty/mbedTLS/library/ssl_cli.c:2566:13
	ldr	r0, __arm_cp.3_6
	str	r0, [sp]
	adds	r5, #98
	movs	r1, #1
	ldr	r2, __arm_cp.3_1
	mov	r0, r6
	mov	r3, r5
	bl	mbedtls_debug_print_msg
	movs	r1, #2
	movs	r2, #47
	.loc	12 2567 13                      @ ../../../ThirdParty/mbedTLS/library/ssl_cli.c:2567:13
	mov	r0, r6
	bl	mbedtls_ssl_send_alert_message
	ldr	r6, __arm_cp.3_10
	.loc	12 2569 13                      @ ../../../ThirdParty/mbedTLS/library/ssl_cli.c:2569:13
	b	.LBB3_8
.Ltmp492:
.LBB3_14:
	@DEBUG_VALUE: ssl_parse_server_key_exchange:ciphersuite_info <- [DW_OP_plus_uconst 36] [$sp+0]
	@DEBUG_VALUE: ssl_parse_server_key_exchange:ssl <- [DW_OP_LLVM_entry_value 1] $r0
	@DEBUG_VALUE: ssl_parse_server_key_exchange:end <- 0
	@DEBUG_VALUE: ssl_parse_server_key_exchange:p <- 0
	.loc	12 2519 9                       @ ../../../ThirdParty/mbedTLS/library/ssl_cli.c:2519:9
	ldr	r0, __arm_cp.3_6
	str	r0, [sp]
	adds	r5, #51
	movs	r1, #1
	ldr	r2, __arm_cp.3_1
	mov	r0, r6
	mov	r3, r5
	bl	mbedtls_debug_print_msg
	movs	r1, #2
	movs	r2, #10
	.loc	12 2520 9                       @ ../../../ThirdParty/mbedTLS/library/ssl_cli.c:2520:9
	mov	r0, r6
	bl	mbedtls_ssl_send_alert_message
	ldr	r6, __arm_cp.3_7
	.loc	12 2522 9                       @ ../../../ThirdParty/mbedTLS/library/ssl_cli.c:2522:9
	b	.LBB3_8
.Ltmp493:
.LBB3_15:
	@DEBUG_VALUE: ssl_parse_server_key_exchange:ciphersuite_info <- [DW_OP_plus_uconst 36] [$sp+0]
	@DEBUG_VALUE: ssl_parse_server_key_exchange:ssl <- [DW_OP_LLVM_entry_value 1] $r0
	@DEBUG_VALUE: ssl_parse_server_key_exchange:end <- 0
	@DEBUG_VALUE: ssl_parse_server_key_exchange:p <- 0
	.loc	12 0 9 is_stmt 0                @ ../../../ThirdParty/mbedTLS/library/ssl_cli.c:0:9
	str	r6, [sp, #28]                   @ 4-byte Spill
.Ltmp494:
	.loc	12 2531 31 is_stmt 1            @ ../../../ThirdParty/mbedTLS/library/ssl_cli.c:2531:31
	ldr	r0, [sp, #36]                   @ 4-byte Reload
.Ltmp495:
	@DEBUG_VALUE: ssl_parse_server_key_exchange:ciphersuite_info <- $r0
	ldrb	r0, [r0, #10]
.Ltmp496:
	.loc	12 2531 72 is_stmt 0            @ ../../../ThirdParty/mbedTLS/library/ssl_cli.c:2531:72
	orrs	r0, r4
	cmp	r0, #7
	bne	.LBB3_23
.Ltmp497:
@ %bb.16:
	@DEBUG_VALUE: ssl_parse_server_key_exchange:ssl <- [DW_OP_LLVM_entry_value 1] $r0
	@DEBUG_VALUE: ssl_parse_server_key_exchange:end <- 0
	@DEBUG_VALUE: ssl_parse_server_key_exchange:p <- 0
	.loc	12 2536 39 is_stmt 1            @ ../../../ThirdParty/mbedTLS/library/ssl_cli.c:2536:39
	ldr	r0, [sp, #32]                   @ 4-byte Reload
	str	r0, [r7, #8]
.Ltmp498:
.LBB3_17:
	@DEBUG_VALUE: ssl_parse_server_key_exchange:ssl <- [DW_OP_LLVM_entry_value 1] $r0
	@DEBUG_LABEL: ssl_parse_server_key_exchange:exit
	.loc	12 0 39 is_stmt 0               @ ../../../ThirdParty/mbedTLS/library/ssl_cli.c:0:39
	ldr	r0, [sp, #28]                   @ 4-byte Reload
	.loc	12 2824 15 is_stmt 1            @ ../../../ThirdParty/mbedTLS/library/ssl_cli.c:2824:15
	ldr	r1, [r0, #4]
	adds	r1, r1, #1
	str	r1, [r0, #4]
	.loc	12 2826 5                       @ ../../../ThirdParty/mbedTLS/library/ssl_cli.c:2826:5
	ldr	r1, __arm_cp.3_18
	str	r1, [sp]
	ldr	r3, __arm_cp.3_13
	adds	r3, #100
	movs	r1, #2
	ldr	r2, __arm_cp.3_1
	bl	mbedtls_debug_print_msg
	.loc	12 0 0 is_stmt 0                @ ../../../ThirdParty/mbedTLS/library/ssl_cli.c:0:0
	ldr	r6, [sp, #40]                   @ 4-byte Reload
	b	.LBB3_8
.Ltmp499:
.LBB3_18:
	@DEBUG_VALUE: ssl_parse_server_key_exchange:end <- $r4
	@DEBUG_VALUE: ssl_parse_server_key_exchange:ssl <- [DW_OP_LLVM_entry_value 1] $r0
	.loc	12 2576 27 is_stmt 1            @ ../../../ThirdParty/mbedTLS/library/ssl_cli.c:2576:27
	ldr	r0, [sp, #36]                   @ 4-byte Reload
	ldrb	r1, [r0, #10]
	.loc	12 2576 68 is_stmt 0            @ ../../../ThirdParty/mbedTLS/library/ssl_cli.c:2576:68
	cmp	r1, #8
	ldr	r0, [sp, #32]                   @ 4-byte Reload
	bhi	.LBB3_22
.Ltmp500:
@ %bb.19:
	@DEBUG_VALUE: ssl_parse_server_key_exchange:end <- $r4
	@DEBUG_VALUE: ssl_parse_server_key_exchange:ssl <- [DW_OP_LLVM_entry_value 1] $r0
	.loc	12 0 68                         @ ../../../ThirdParty/mbedTLS/library/ssl_cli.c:0:68
	lsls	r0, r1
	movw	r1, #280
	tst	r0, r1
	bne	.LBB3_24
.Ltmp501:
@ %bb.20:
	@DEBUG_VALUE: ssl_parse_server_key_exchange:end <- $r4
	@DEBUG_VALUE: ssl_parse_server_key_exchange:ssl <- [DW_OP_LLVM_entry_value 1] $r0
	movs	r1, #68
	tst	r0, r1
	bne	.LBB3_26
.Ltmp502:
@ %bb.21:
	@DEBUG_VALUE: ssl_parse_server_key_exchange:end <- $r4
	@DEBUG_VALUE: ssl_parse_server_key_exchange:ssl <- [DW_OP_LLVM_entry_value 1] $r0
	movs	r1, #160
	tst	r0, r1
	bne	.LBB3_28
.Ltmp503:
.LBB3_22:
	@DEBUG_VALUE: ssl_parse_server_key_exchange:end <- $r4
	@DEBUG_VALUE: ssl_parse_server_key_exchange:ssl <- [DW_OP_LLVM_entry_value 1] $r0
	.loc	12 2651 25 is_stmt 1            @ ../../../ThirdParty/mbedTLS/library/ssl_cli.c:2651:25
	ldr	r0, __arm_cp.3_11
	str	r0, [sp]
	adds	r5, #183
	movs	r1, #1
	ldr	r2, __arm_cp.3_1
	mov	r0, r6
	mov	r3, r5
	bl	mbedtls_debug_print_msg
	ldr	r6, __arm_cp.3_12
	.loc	12 2652 25                      @ ../../../ThirdParty/mbedTLS/library/ssl_cli.c:2652:25
	b	.LBB3_8
.Ltmp504:
.LBB3_23:
	@DEBUG_VALUE: ssl_parse_server_key_exchange:ssl <- [DW_OP_LLVM_entry_value 1] $r0
	@DEBUG_VALUE: ssl_parse_server_key_exchange:end <- 0
	@DEBUG_VALUE: ssl_parse_server_key_exchange:p <- 0
	.loc	12 2540 9                       @ ../../../ThirdParty/mbedTLS/library/ssl_cli.c:2540:9
	adr	r0, .LCPI3_8
	str	r0, [sp]
	adds	r5, #73
	movs	r1, #1
	ldr	r2, __arm_cp.3_1
	ldr	r4, [sp, #28]                   @ 4-byte Reload
	mov	r0, r4
	mov	r3, r5
	bl	mbedtls_debug_print_msg
	movs	r1, #2
	movs	r2, #10
	.loc	12 2542 9                       @ ../../../ThirdParty/mbedTLS/library/ssl_cli.c:2542:9
	mov	r0, r4
	bl	mbedtls_ssl_send_alert_message
	ldr	r6, __arm_cp.3_7
	.loc	12 2545 9                       @ ../../../ThirdParty/mbedTLS/library/ssl_cli.c:2545:9
	b	.LBB3_8
.Ltmp505:
.LBB3_24:
	@DEBUG_VALUE: ssl_parse_server_key_exchange:end <- $r4
	@DEBUG_VALUE: ssl_parse_server_key_exchange:ssl <- [DW_OP_LLVM_entry_value 1] $r0
	@DEBUG_VALUE: ssl_parse_server_key_exchange:p <- [DW_OP_plus_uconst 120, DW_OP_deref] $sp
	.loc	12 0 9 is_stmt 0                @ ../../../ThirdParty/mbedTLS/library/ssl_cli.c:0:9
	add	r1, sp, #120
.Ltmp506:
	.loc	12 2623 25 is_stmt 1            @ ../../../ThirdParty/mbedTLS/library/ssl_cli.c:2623:25
	mov	r0, r6
	mov	r2, r4
	bl	ssl_parse_server_ecdh_params
.Ltmp507:
	.loc	12 2623 25 is_stmt 0            @ ../../../ThirdParty/mbedTLS/library/ssl_cli.c:2623:25
	cbz	r0, .LBB3_28
.Ltmp508:
@ %bb.25:
	@DEBUG_VALUE: ssl_parse_server_key_exchange:end <- $r4
	@DEBUG_VALUE: ssl_parse_server_key_exchange:p <- [DW_OP_plus_uconst 120, DW_OP_deref] $sp
	@DEBUG_VALUE: ssl_parse_server_key_exchange:ssl <- [DW_OP_LLVM_entry_value 1] $r0
	.loc	12 2625 25 is_stmt 1            @ ../../../ThirdParty/mbedTLS/library/ssl_cli.c:2625:25
	ldr	r0, __arm_cp.3_6
	str	r0, [sp]
	adds	r5, #157
	movs	r1, #1
	ldr	r2, __arm_cp.3_1
	mov	r0, r6
	mov	r3, r5
	bl	mbedtls_debug_print_msg
	movs	r1, #2
	movs	r2, #47
	.loc	12 2626 25                      @ ../../../ThirdParty/mbedTLS/library/ssl_cli.c:2626:25
	mov	r0, r6
	bl	mbedtls_ssl_send_alert_message
	ldr	r6, __arm_cp.3_10
	.loc	12 2628 25                      @ ../../../ThirdParty/mbedTLS/library/ssl_cli.c:2628:25
	b	.LBB3_8
.Ltmp509:
.LBB3_26:
	@DEBUG_VALUE: ssl_parse_server_key_exchange:end <- $r4
	@DEBUG_VALUE: ssl_parse_server_key_exchange:ssl <- [DW_OP_LLVM_entry_value 1] $r0
	@DEBUG_VALUE: ssl_parse_server_key_exchange:p <- [DW_OP_plus_uconst 120, DW_OP_deref] $sp
	.loc	12 0 25 is_stmt 0               @ ../../../ThirdParty/mbedTLS/library/ssl_cli.c:0:25
	add	r1, sp, #120
.Ltmp510:
	.loc	12 2587 17 is_stmt 1            @ ../../../ThirdParty/mbedTLS/library/ssl_cli.c:2587:17
	mov	r0, r6
	mov	r2, r4
	bl	ssl_parse_server_dh_params
.Ltmp511:
	.loc	12 2587 17 is_stmt 0            @ ../../../ThirdParty/mbedTLS/library/ssl_cli.c:2587:17
	cbz	r0, .LBB3_28
.Ltmp512:
@ %bb.27:
	@DEBUG_VALUE: ssl_parse_server_key_exchange:end <- $r4
	@DEBUG_VALUE: ssl_parse_server_key_exchange:p <- [DW_OP_plus_uconst 120, DW_OP_deref] $sp
	@DEBUG_VALUE: ssl_parse_server_key_exchange:ssl <- [DW_OP_LLVM_entry_value 1] $r0
	.loc	12 2589 17 is_stmt 1            @ ../../../ThirdParty/mbedTLS/library/ssl_cli.c:2589:17
	ldr	r0, __arm_cp.3_6
	str	r0, [sp]
	adds	r5, #121
	movs	r1, #1
	ldr	r2, __arm_cp.3_1
	mov	r0, r6
	mov	r3, r5
	bl	mbedtls_debug_print_msg
	movs	r1, #2
	movs	r2, #47
	.loc	12 2590 17                      @ ../../../ThirdParty/mbedTLS/library/ssl_cli.c:2590:17
	mov	r0, r6
	bl	mbedtls_ssl_send_alert_message
	ldr	r6, __arm_cp.3_10
	.loc	12 2592 17                      @ ../../../ThirdParty/mbedTLS/library/ssl_cli.c:2592:17
	b	.LBB3_8
.Ltmp513:
.LBB3_28:
	@DEBUG_VALUE: ssl_parse_server_key_exchange:end <- $r4
	@DEBUG_VALUE: ssl_parse_server_key_exchange:ssl <- [DW_OP_LLVM_entry_value 1] $r0
	.loc	12 0 17 is_stmt 0               @ ../../../ThirdParty/mbedTLS/library/ssl_cli.c:0:17
	str	r6, [sp, #28]                   @ 4-byte Spill
.Ltmp514:
	.loc	12 2656 9 is_stmt 1             @ ../../../ThirdParty/mbedTLS/library/ssl_cli.c:2656:9
	ldr	r0, [sp, #36]                   @ 4-byte Reload
	bl	mbedtls_ssl_ciphersuite_uses_server_signature
.Ltmp515:
	.loc	12 2656 9 is_stmt 0             @ ../../../ThirdParty/mbedTLS/library/ssl_cli.c:2656:9
	cmp	r0, #0
	beq	.LBB3_17
.Ltmp516:
@ %bb.29:
	@DEBUG_VALUE: ssl_parse_server_key_exchange:end <- $r4
	@DEBUG_VALUE: ssl_parse_server_key_exchange:ssl <- [DW_OP_LLVM_entry_value 1] $r0
	.loc	12 0 9                          @ ../../../ThirdParty/mbedTLS/library/ssl_cli.c:0:9
	mov	r6, r4
.Ltmp517:
	@DEBUG_VALUE: ssl_parse_server_key_exchange:end <- $r6
	add	r0, sp, #48
	movs	r1, #0
.Ltmp518:
	@DEBUG_VALUE: md_alg <- 0
	.loc	12 2660 27 is_stmt 1            @ ../../../ThirdParty/mbedTLS/library/ssl_cli.c:2660:27
	strb	r1, [r0]
	add	r0, sp, #44
.Ltmp519:
	@DEBUG_VALUE: pk_alg <- 0
	.loc	12 0 27 is_stmt 0               @ ../../../ThirdParty/mbedTLS/library/ssl_cli.c:0:27
	str	r1, [sp, #24]                   @ 4-byte Spill
	.loc	12 2661 27 is_stmt 1            @ ../../../ThirdParty/mbedTLS/library/ssl_cli.c:2661:27
	strb	r1, [r0]
	ldr	r4, [sp, #28]                   @ 4-byte Reload
	.loc	12 2662 38                      @ ../../../ThirdParty/mbedTLS/library/ssl_cli.c:2662:38
	ldr	r0, [r4, #112]
	.loc	12 2662 47 is_stmt 0            @ ../../../ThirdParty/mbedTLS/library/ssl_cli.c:2662:47
	str	r0, [sp, #20]                   @ 4-byte Spill
	mov	r0, r4
	bl	mbedtls_ssl_hs_hdr_len
.Ltmp520:
	@DEBUG_VALUE: params <- undef
	.loc	12 2663 29 is_stmt 1            @ ../../../ThirdParty/mbedTLS/library/ssl_cli.c:2663:29
	ldr	r2, [sp, #120]
.Ltmp521:
	@DEBUG_VALUE: rs_ctx <- 0
	@DEBUG_VALUE: params_len <- undef
	@DEBUG_VALUE: ssl_parse_server_key_exchange:p <- undef
	.loc	12 2672 18                      @ ../../../ThirdParty/mbedTLS/library/ssl_cli.c:2672:18
	ldr	r1, [r4, #20]
.Ltmp522:
	.loc	12 2672 13 is_stmt 0            @ ../../../ThirdParty/mbedTLS/library/ssl_cli.c:2672:13
	cmp	r1, #3
	bne	.LBB3_32
.Ltmp523:
@ %bb.30:
	@DEBUG_VALUE: ssl_parse_server_key_exchange:end <- $r6
	@DEBUG_VALUE: rs_ctx <- 0
	@DEBUG_VALUE: pk_alg <- 0
	@DEBUG_VALUE: md_alg <- 0
	@DEBUG_VALUE: ssl_parse_server_key_exchange:ssl <- [DW_OP_LLVM_entry_value 1] $r0
	@DEBUG_VALUE: ssl_parse_server_key_exchange:p <- [DW_OP_plus_uconst 120, DW_OP_deref] $sp
	@DEBUG_VALUE: md_alg <- [DW_OP_plus_uconst 48, DW_OP_deref] $sp
	@DEBUG_VALUE: pk_alg <- [DW_OP_plus_uconst 44, DW_OP_deref] $sp
	.loc	12 0 13                         @ ../../../ThirdParty/mbedTLS/library/ssl_cli.c:0:13
	str	r2, [sp, #12]                   @ 4-byte Spill
	str	r0, [sp, #16]                   @ 4-byte Spill
	add	r0, sp, #44
.Ltmp524:
	.loc	12 2674 17 is_stmt 1            @ ../../../ThirdParty/mbedTLS/library/ssl_cli.c:2674:17
	str	r0, [sp]
	add	r1, sp, #120
	add	r3, sp, #48
	mov	r0, r4
	mov	r2, r6
	bl	ssl_parse_signature_algorithm
.Ltmp525:
	.loc	12 2674 17 is_stmt 0            @ ../../../ThirdParty/mbedTLS/library/ssl_cli.c:2674:17
	cbz	r0, .LBB3_36
.Ltmp526:
@ %bb.31:
	@DEBUG_VALUE: ssl_parse_server_key_exchange:end <- $r6
	@DEBUG_VALUE: pk_alg <- [DW_OP_plus_uconst 44, DW_OP_deref] $sp
	@DEBUG_VALUE: md_alg <- [DW_OP_plus_uconst 48, DW_OP_deref] $sp
	@DEBUG_VALUE: ssl_parse_server_key_exchange:p <- [DW_OP_plus_uconst 120, DW_OP_deref] $sp
	@DEBUG_VALUE: rs_ctx <- 0
	@DEBUG_VALUE: ssl_parse_server_key_exchange:ssl <- [DW_OP_LLVM_entry_value 1] $r0
	.loc	12 2677 17 is_stmt 1            @ ../../../ThirdParty/mbedTLS/library/ssl_cli.c:2677:17
	ldr	r0, __arm_cp.3_6
	str	r0, [sp]
	adds	r5, #209
	movs	r1, #1
	ldr	r2, __arm_cp.3_1
	b	.LBB3_43
.Ltmp527:
.LBB3_32:
	@DEBUG_VALUE: ssl_parse_server_key_exchange:end <- $r6
	@DEBUG_VALUE: rs_ctx <- 0
	@DEBUG_VALUE: pk_alg <- 0
	@DEBUG_VALUE: md_alg <- 0
	@DEBUG_VALUE: ssl_parse_server_key_exchange:ssl <- [DW_OP_LLVM_entry_value 1] $r0
	.loc	12 2695 17                      @ ../../../ThirdParty/mbedTLS/library/ssl_cli.c:2695:17
	cmp	r1, #2
	bgt	.LBB3_35
.Ltmp528:
@ %bb.33:
	@DEBUG_VALUE: ssl_parse_server_key_exchange:end <- $r6
	@DEBUG_VALUE: rs_ctx <- 0
	@DEBUG_VALUE: pk_alg <- 0
	@DEBUG_VALUE: md_alg <- 0
	@DEBUG_VALUE: ssl_parse_server_key_exchange:ssl <- [DW_OP_LLVM_entry_value 1] $r0
	.loc	12 0 17 is_stmt 0               @ ../../../ThirdParty/mbedTLS/library/ssl_cli.c:0:17
	str	r2, [sp, #12]                   @ 4-byte Spill
	str	r0, [sp, #16]                   @ 4-byte Spill
.Ltmp529:
	.loc	12 2697 26 is_stmt 1            @ ../../../ThirdParty/mbedTLS/library/ssl_cli.c:2697:26
	ldr	r0, [sp, #36]                   @ 4-byte Reload
	bl	mbedtls_ssl_get_ciphersuite_sig_pk_alg
.Ltmp530:
	@DEBUG_VALUE: pk_alg <- $r0
	.loc	12 0 26 is_stmt 0               @ ../../../ThirdParty/mbedTLS/library/ssl_cli.c:0:26
	add	r1, sp, #44
	.loc	12 2697 24                      @ ../../../ThirdParty/mbedTLS/library/ssl_cli.c:2697:24
	strb	r0, [r1]
	@DEBUG_VALUE: md_alg <- 0
.Ltmp531:
	.loc	12 2700 48 is_stmt 1            @ ../../../ThirdParty/mbedTLS/library/ssl_cli.c:2700:48
	cmp	r0, #4
	bne	.LBB3_37
.Ltmp532:
@ %bb.34:
	@DEBUG_VALUE: ssl_parse_server_key_exchange:end <- $r6
	@DEBUG_VALUE: pk_alg <- $r0
	@DEBUG_VALUE: rs_ctx <- 0
	@DEBUG_VALUE: md_alg <- 0
	@DEBUG_VALUE: ssl_parse_server_key_exchange:ssl <- [DW_OP_LLVM_entry_value 1] $r0
	@DEBUG_VALUE: md_alg <- 4
	.loc	12 0 48 is_stmt 0               @ ../../../ThirdParty/mbedTLS/library/ssl_cli.c:0:48
	add	r0, sp, #48
.Ltmp533:
	movs	r1, #4
	.loc	12 2701 28 is_stmt 1            @ ../../../ThirdParty/mbedTLS/library/ssl_cli.c:2701:28
	strb	r1, [r0]
	b	.LBB3_37
.Ltmp534:
.LBB3_35:
	@DEBUG_VALUE: ssl_parse_server_key_exchange:end <- $r6
	@DEBUG_VALUE: rs_ctx <- 0
	@DEBUG_VALUE: pk_alg <- 0
	@DEBUG_VALUE: md_alg <- 0
	@DEBUG_VALUE: ssl_parse_server_key_exchange:ssl <- [DW_OP_LLVM_entry_value 1] $r0
	.loc	12 2706 17                      @ ../../../ThirdParty/mbedTLS/library/ssl_cli.c:2706:17
	ldr	r0, __arm_cp.3_11
	str	r0, [sp]
	adds	r5, #238
	movs	r1, #1
	ldr	r2, __arm_cp.3_1
	ldr	r0, [sp, #28]                   @ 4-byte Reload
	mov	r3, r5
	bl	mbedtls_debug_print_msg
	ldr	r6, __arm_cp.3_12
.Ltmp535:
	.loc	12 0 17 is_stmt 0               @ ../../../ThirdParty/mbedTLS/library/ssl_cli.c:0:17
	b	.LBB3_45
.Ltmp536:
.LBB3_36:
	@DEBUG_VALUE: ssl_parse_server_key_exchange:end <- $r6
	@DEBUG_VALUE: pk_alg <- [DW_OP_plus_uconst 44, DW_OP_deref] $sp
	@DEBUG_VALUE: md_alg <- [DW_OP_plus_uconst 48, DW_OP_deref] $sp
	@DEBUG_VALUE: ssl_parse_server_key_exchange:p <- [DW_OP_plus_uconst 120, DW_OP_deref] $sp
	@DEBUG_VALUE: rs_ctx <- 0
	@DEBUG_VALUE: ssl_parse_server_key_exchange:ssl <- [DW_OP_LLVM_entry_value 1] $r0
	add	r0, sp, #44
.Ltmp537:
	.loc	12 2683 17 is_stmt 1            @ ../../../ThirdParty/mbedTLS/library/ssl_cli.c:2683:17
	ldrb	r4, [r0]
.Ltmp538:
	@DEBUG_VALUE: pk_alg <- $r4
	.loc	12 2683 27 is_stmt 0            @ ../../../ThirdParty/mbedTLS/library/ssl_cli.c:2683:27
	ldr	r0, [sp, #36]                   @ 4-byte Reload
	bl	mbedtls_ssl_get_ciphersuite_sig_pk_alg
.Ltmp539:
	.loc	12 2683 17                      @ ../../../ThirdParty/mbedTLS/library/ssl_cli.c:2683:17
	cmp	r4, r0
	bne	.LBB3_42
.Ltmp540:
.LBB3_37:
	@DEBUG_VALUE: ssl_parse_server_key_exchange:end <- $r6
	@DEBUG_VALUE: rs_ctx <- 0
	@DEBUG_VALUE: ssl_parse_server_key_exchange:ssl <- [DW_OP_LLVM_entry_value 1] $r0
	@DEBUG_VALUE: params <- undef
	@DEBUG_VALUE: params_len <- undef
	.loc	12 2714 21 is_stmt 1            @ ../../../ThirdParty/mbedTLS/library/ssl_cli.c:2714:21
	subs	r1, r6, #2
	.loc	12 2714 13 is_stmt 0            @ ../../../ThirdParty/mbedTLS/library/ssl_cli.c:2714:13
	ldr	r0, [sp, #120]
.Ltmp541:
	@DEBUG_VALUE: ssl_parse_server_key_exchange:p <- $r0
	.loc	12 2714 13                      @ ../../../ThirdParty/mbedTLS/library/ssl_cli.c:2714:13
	cmp	r0, r1
	bls	.LBB3_39
.Ltmp542:
@ %bb.38:
	@DEBUG_VALUE: ssl_parse_server_key_exchange:end <- $r6
	@DEBUG_VALUE: ssl_parse_server_key_exchange:p <- $r0
	@DEBUG_VALUE: rs_ctx <- 0
	@DEBUG_VALUE: ssl_parse_server_key_exchange:ssl <- [DW_OP_LLVM_entry_value 1] $r0
	.loc	12 2716 13 is_stmt 1            @ ../../../ThirdParty/mbedTLS/library/ssl_cli.c:2716:13
	ldr	r0, __arm_cp.3_6
.Ltmp543:
	str	r0, [sp]
	adds	r5, #248
	movs	r1, #1
	ldr	r2, __arm_cp.3_1
	ldr	r4, [sp, #28]                   @ 4-byte Reload
	mov	r0, r4
	mov	r3, r5
	b	.LBB3_41
.Ltmp544:
.LBB3_39:
	@DEBUG_VALUE: ssl_parse_server_key_exchange:end <- $r6
	@DEBUG_VALUE: ssl_parse_server_key_exchange:p <- $r0
	@DEBUG_VALUE: rs_ctx <- 0
	@DEBUG_VALUE: ssl_parse_server_key_exchange:ssl <- [DW_OP_LLVM_entry_value 1] $r0
	@DEBUG_VALUE: params <- undef
	@DEBUG_VALUE: params_len <- undef
	.loc	12 2721 35                      @ ../../../ThirdParty/mbedTLS/library/ssl_cli.c:2721:35
	ldrb	r1, [r0, #1]
	.loc	12 2721 21 is_stmt 0            @ ../../../ThirdParty/mbedTLS/library/ssl_cli.c:2721:21
	ldrb	r2, [r0]
	.loc	12 2722 11 is_stmt 1            @ ../../../ThirdParty/mbedTLS/library/ssl_cli.c:2722:11
	adds	r0, r0, #2
.Ltmp545:
	@DEBUG_VALUE: ssl_parse_server_key_exchange:p <- $r0
	str	r0, [sp, #120]
	.loc	12 2721 26                      @ ../../../ThirdParty/mbedTLS/library/ssl_cli.c:2721:26
	lsls	r2, r2, #8
	.loc	12 2721 33 is_stmt 0            @ ../../../ThirdParty/mbedTLS/library/ssl_cli.c:2721:33
	adds	r5, r2, r1
.Ltmp546:
	@DEBUG_VALUE: sig_len <- $r5
	.loc	12 2724 22 is_stmt 1            @ ../../../ThirdParty/mbedTLS/library/ssl_cli.c:2724:22
	subs	r1, r6, r5
	ldr	r3, __arm_cp.3_13
.Ltmp547:
	.loc	12 2724 13 is_stmt 0            @ ../../../ThirdParty/mbedTLS/library/ssl_cli.c:2724:13
	cmp	r0, r1
	beq	.LBB3_47
.Ltmp548:
@ %bb.40:
	@DEBUG_VALUE: ssl_parse_server_key_exchange:end <- $r6
	@DEBUG_VALUE: sig_len <- $r5
	@DEBUG_VALUE: ssl_parse_server_key_exchange:p <- $r0
	@DEBUG_VALUE: rs_ctx <- 0
	@DEBUG_VALUE: ssl_parse_server_key_exchange:ssl <- [DW_OP_LLVM_entry_value 1] $r0
	.loc	12 2726 13 is_stmt 1            @ ../../../ThirdParty/mbedTLS/library/ssl_cli.c:2726:13
	ldr	r0, __arm_cp.3_6
.Ltmp549:
	str	r0, [sp]
	movs	r1, #1
	ldr	r2, __arm_cp.3_1
	ldr	r4, [sp, #28]                   @ 4-byte Reload
	mov	r0, r4
.Ltmp550:
.LBB3_41:
	@DEBUG_VALUE: ssl_parse_server_key_exchange:end <- $r6
	@DEBUG_VALUE: rs_ctx <- 0
	@DEBUG_VALUE: ssl_parse_server_key_exchange:ssl <- [DW_OP_LLVM_entry_value 1] $r0
	.loc	12 0 0 is_stmt 0                @ ../../../ThirdParty/mbedTLS/library/ssl_cli.c:0:0
	bl	mbedtls_debug_print_msg
	movs	r1, #2
	movs	r2, #50
	b	.LBB3_44
.Ltmp551:
.LBB3_42:
	@DEBUG_VALUE: ssl_parse_server_key_exchange:end <- $r6
	@DEBUG_VALUE: pk_alg <- $r4
	@DEBUG_VALUE: md_alg <- [DW_OP_plus_uconst 48, DW_OP_deref] $sp
	@DEBUG_VALUE: ssl_parse_server_key_exchange:p <- [DW_OP_plus_uconst 120, DW_OP_deref] $sp
	@DEBUG_VALUE: rs_ctx <- 0
	@DEBUG_VALUE: ssl_parse_server_key_exchange:ssl <- [DW_OP_LLVM_entry_value 1] $r0
	.loc	12 2685 17 is_stmt 1            @ ../../../ThirdParty/mbedTLS/library/ssl_cli.c:2685:17
	ldr	r0, __arm_cp.3_6
	str	r0, [sp]
	adds	r5, #217
	movs	r1, #1
	ldr	r2, __arm_cp.3_1
	ldr	r4, [sp, #28]                   @ 4-byte Reload
.Ltmp552:
.LBB3_43:
	@DEBUG_VALUE: ssl_parse_server_key_exchange:end <- $r6
	@DEBUG_VALUE: md_alg <- [DW_OP_plus_uconst 48, DW_OP_deref] $sp
	@DEBUG_VALUE: ssl_parse_server_key_exchange:p <- [DW_OP_plus_uconst 120, DW_OP_deref] $sp
	@DEBUG_VALUE: rs_ctx <- 0
	@DEBUG_VALUE: ssl_parse_server_key_exchange:ssl <- [DW_OP_LLVM_entry_value 1] $r0
	.loc	12 0 0 is_stmt 0                @ ../../../ThirdParty/mbedTLS/library/ssl_cli.c:0:0
	mov	r0, r4
	mov	r3, r5
	bl	mbedtls_debug_print_msg
	movs	r1, #2
	movs	r2, #47
.Ltmp553:
.LBB3_44:
	@DEBUG_VALUE: ssl_parse_server_key_exchange:end <- $r6
	@DEBUG_VALUE: rs_ctx <- 0
	@DEBUG_VALUE: ssl_parse_server_key_exchange:ssl <- [DW_OP_LLVM_entry_value 1] $r0
	mov	r0, r4
	bl	mbedtls_ssl_send_alert_message
	ldr	r6, __arm_cp.3_10
.Ltmp554:
.LBB3_45:
	@DEBUG_VALUE: rs_ctx <- 0
	@DEBUG_VALUE: ssl_parse_server_key_exchange:ssl <- [DW_OP_LLVM_entry_value 1] $r0
	ldr	r0, [sp, #24]                   @ 4-byte Reload
	cmp	r0, #0
	bne	.LBB3_46
	b	.LBB3_8
.Ltmp555:
.LBB3_46:
	b	.LBB3_17
.LBB3_47:
.Ltmp556:
	@DEBUG_VALUE: ssl_parse_server_key_exchange:end <- $r6
	@DEBUG_VALUE: sig_len <- $r5
	@DEBUG_VALUE: ssl_parse_server_key_exchange:p <- $r0
	@DEBUG_VALUE: rs_ctx <- 0
	@DEBUG_VALUE: ssl_parse_server_key_exchange:ssl <- [DW_OP_LLVM_entry_value 1] $r0
	ldr	r1, [sp, #20]                   @ 4-byte Reload
	ldr	r2, [sp, #16]                   @ 4-byte Reload
	adds	r6, r1, r2
.Ltmp557:
	@DEBUG_VALUE: params <- $r6
	ldr	r1, [sp, #12]                   @ 4-byte Reload
	subs	r1, r1, r6
.Ltmp558:
	@DEBUG_VALUE: params_len <- $r1
	.loc	12 2732 9 is_stmt 1             @ ../../../ThirdParty/mbedTLS/library/ssl_cli.c:2732:9
	str	r1, [sp, #36]                   @ 4-byte Spill
.Ltmp559:
	@DEBUG_VALUE: params_len <- [DW_OP_plus_uconst 36] [$sp+0]
	@DEBUG_VALUE: params_len <- [DW_OP_plus_uconst 36] [$sp+0]
	adr	r1, .LCPI3_14
	str	r1, [sp]
	str	r0, [sp, #4]
	str	r5, [sp, #8]
	adds	r3, r3, #6
	movs	r1, #3
	ldr	r2, __arm_cp.3_1
	ldr	r4, [sp, #28]                   @ 4-byte Reload
	mov	r0, r4
.Ltmp560:
	bl	mbedtls_debug_print_buf
	add	r0, sp, #48
.Ltmp561:
	.loc	12 2739 13                      @ ../../../ThirdParty/mbedTLS/library/ssl_cli.c:2739:13
	ldrb	r0, [r0]
.Ltmp562:
	@DEBUG_VALUE: md_alg <- undef
	.loc	12 2739 13 is_stmt 0            @ ../../../ThirdParty/mbedTLS/library/ssl_cli.c:2739:13
	str	r0, [sp, #20]                   @ 4-byte Spill
	cbz	r0, .LBB3_53
.Ltmp563:
@ %bb.48:
	@DEBUG_VALUE: params <- $r6
	@DEBUG_VALUE: sig_len <- $r5
	@DEBUG_VALUE: params_len <- [DW_OP_plus_uconst 36] [$sp+0]
	@DEBUG_VALUE: rs_ctx <- 0
	@DEBUG_VALUE: ssl_parse_server_key_exchange:ssl <- [DW_OP_LLVM_entry_value 1] $r0
	@DEBUG_VALUE: hashlen <- [DW_OP_plus_uconst 116, DW_OP_deref] $sp
	.loc	12 2754 23 is_stmt 1            @ ../../../ThirdParty/mbedTLS/library/ssl_cli.c:2754:23
	ldr	r1, [sp, #36]                   @ 4-byte Reload
	str	r1, [sp]
	str	r0, [sp, #4]
	add	r1, sp, #52
	add	r2, sp, #116
	mov	r0, r4
	mov	r3, r6
	bl	mbedtls_ssl_get_key_exchange_md_tls1_2
.Ltmp564:
	@DEBUG_VALUE: ssl_parse_server_key_exchange:ret <- $r0
	.loc	12 2757 21                      @ ../../../ThirdParty/mbedTLS/library/ssl_cli.c:2757:21
	cbz	r0, .LBB3_54
.Ltmp565:
.LBB3_49:
	@DEBUG_VALUE: params <- $r6
	@DEBUG_VALUE: sig_len <- $r5
	@DEBUG_VALUE: ssl_parse_server_key_exchange:ret <- $r0
	@DEBUG_VALUE: params_len <- [DW_OP_plus_uconst 36] [$sp+0]
	@DEBUG_VALUE: rs_ctx <- 0
	@DEBUG_VALUE: ssl_parse_server_key_exchange:ssl <- [DW_OP_LLVM_entry_value 1] $r0
	.loc	12 0 21 is_stmt 0               @ ../../../ThirdParty/mbedTLS/library/ssl_cli.c:0:21
	mov	r6, r0
.Ltmp566:
	@DEBUG_VALUE: ssl_parse_server_key_exchange:ret <- $r6
	b	.LBB3_45
.Ltmp567:
	.p2align	2
@ %bb.50:
.LCPI3_20:
	.long	.L.str
	.p2align	2
@ %bb.51:
__arm_cp.3_21:
	.long	2468                            @ 0x9a4
.Lcpi_end69:
	.size	__arm_cp.3_21, .Lcpi_end69-__arm_cp.3_21
	.p2align	2
@ %bb.52:
.LCPI3_25:
.L.str.93:
	.asciz	"=> parse server key exchange\000\000\000"
	.p2align	1
.LBB3_53:
.Ltmp568:
	@DEBUG_VALUE: params <- $r6
	@DEBUG_VALUE: sig_len <- $r5
	@DEBUG_VALUE: params_len <- [DW_OP_plus_uconst 36] [$sp+0]
	@DEBUG_VALUE: rs_ctx <- 0
	@DEBUG_VALUE: ssl_parse_server_key_exchange:ssl <- [DW_OP_LLVM_entry_value 1] $r0
	@DEBUG_VALUE: hashlen <- 36
	movs	r0, #36
.Ltmp569:
	.loc	12 2741 21 is_stmt 1            @ ../../../ThirdParty/mbedTLS/library/ssl_cli.c:2741:21
	str	r0, [sp, #116]
	add	r1, sp, #52
	.loc	12 2742 19                      @ ../../../ThirdParty/mbedTLS/library/ssl_cli.c:2742:19
	mov	r0, r4
	mov	r2, r6
	ldr	r3, [sp, #36]                   @ 4-byte Reload
	bl	mbedtls_ssl_get_key_exchange_md_ssl_tls
.Ltmp570:
	@DEBUG_VALUE: ssl_parse_server_key_exchange:ret <- $r0
	.loc	12 2744 17                      @ ../../../ThirdParty/mbedTLS/library/ssl_cli.c:2744:17
	cmp	r0, #0
	bne	.LBB3_49
.Ltmp571:
.LBB3_54:
	@DEBUG_VALUE: params <- $r6
	@DEBUG_VALUE: sig_len <- $r5
	@DEBUG_VALUE: ssl_parse_server_key_exchange:ret <- $r0
	@DEBUG_VALUE: params_len <- [DW_OP_plus_uconst 36] [$sp+0]
	@DEBUG_VALUE: rs_ctx <- 0
	@DEBUG_VALUE: ssl_parse_server_key_exchange:ssl <- [DW_OP_LLVM_entry_value 1] $r0
	.loc	12 2768 9                       @ ../../../ThirdParty/mbedTLS/library/ssl_cli.c:2768:9
	ldr	r0, [sp, #116]
.Ltmp572:
	@DEBUG_VALUE: hashlen <- $r0
	str	r0, [sp, #8]
	add	r0, sp, #52
.Ltmp573:
	str	r0, [sp, #4]
	ldr	r0, __arm_cp.3_15
	str	r0, [sp]
	ldr	r3, __arm_cp.3_13
	adds	r3, #42
	movs	r1, #3
	ldr	r2, __arm_cp.3_1
	ldr	r4, [sp, #28]                   @ 4-byte Reload
	mov	r0, r4
	bl	mbedtls_debug_print_buf
	.loc	12 2771 25                      @ ../../../ThirdParty/mbedTLS/library/ssl_cli.c:2771:25
	ldr	r0, [r4, #60]
	movw	r1, #468
	.loc	12 2771 36 is_stmt 0            @ ../../../ThirdParty/mbedTLS/library/ssl_cli.c:2771:36
	adds	r4, r0, r1
.Ltmp574:
	@DEBUG_VALUE: peer_pk <- $r4
	.loc	12 0 36                         @ ../../../ThirdParty/mbedTLS/library/ssl_cli.c:0:36
	add	r0, sp, #44
.Ltmp575:
	.loc	12 2785 42 is_stmt 1            @ ../../../ThirdParty/mbedTLS/library/ssl_cli.c:2785:42
	ldrb	r1, [r0]
.Ltmp576:
	@DEBUG_VALUE: pk_alg <- undef
	.loc	12 2785 14 is_stmt 0            @ ../../../ThirdParty/mbedTLS/library/ssl_cli.c:2785:14
	mov	r0, r4
	bl	mbedtls_pk_can_do
	cbz	r0, .LBB3_61
.Ltmp577:
@ %bb.55:
	@DEBUG_VALUE: params <- $r6
	@DEBUG_VALUE: sig_len <- $r5
	@DEBUG_VALUE: peer_pk <- $r4
	@DEBUG_VALUE: params_len <- [DW_OP_plus_uconst 36] [$sp+0]
	@DEBUG_VALUE: rs_ctx <- 0
	@DEBUG_VALUE: ssl_parse_server_key_exchange:ssl <- [DW_OP_LLVM_entry_value 1] $r0
	@DEBUG_VALUE: md_alg <- [DW_OP_plus_uconst 20] [$sp+0]
	.loc	12 2799 35 is_stmt 1            @ ../../../ThirdParty/mbedTLS/library/ssl_cli.c:2799:35
	ldr	r3, [sp, #116]
.Ltmp578:
	@DEBUG_VALUE: hashlen <- $r3
	.loc	12 2799 44 is_stmt 0            @ ../../../ThirdParty/mbedTLS/library/ssl_cli.c:2799:44
	ldr	r0, [sp, #120]
.Ltmp579:
	@DEBUG_VALUE: ssl_parse_server_key_exchange:p <- $r0
	.loc	12 0 44                         @ ../../../ThirdParty/mbedTLS/library/ssl_cli.c:0:44
	movs	r1, #0
	.loc	12 2798 21 is_stmt 1            @ ../../../ThirdParty/mbedTLS/library/ssl_cli.c:2798:21
	str	r0, [sp]
	str	r5, [sp, #4]
	str	r1, [sp, #24]                   @ 4-byte Spill
	str	r1, [sp, #8]
	add	r2, sp, #52
	mov	r0, r4
.Ltmp580:
	ldr	r1, [sp, #20]                   @ 4-byte Reload
	bl	mbedtls_pk_verify_restartable
.Ltmp581:
	@DEBUG_VALUE: ssl_parse_server_key_exchange:ret <- $r0
	.loc	12 0 21 is_stmt 0               @ ../../../ThirdParty/mbedTLS/library/ssl_cli.c:0:21
	cbz	r0, .LBB3_62
.Ltmp582:
@ %bb.56:
	@DEBUG_VALUE: params <- $r6
	@DEBUG_VALUE: sig_len <- $r5
	@DEBUG_VALUE: peer_pk <- $r4
	@DEBUG_VALUE: ssl_parse_server_key_exchange:ret <- $r0
	@DEBUG_VALUE: md_alg <- [DW_OP_plus_uconst 20] [$sp+0]
	@DEBUG_VALUE: params_len <- [DW_OP_plus_uconst 36] [$sp+0]
	@DEBUG_VALUE: rs_ctx <- 0
	@DEBUG_VALUE: ssl_parse_server_key_exchange:ssl <- [DW_OP_LLVM_entry_value 1] $r0
	mov	r6, r0
.Ltmp583:
	@DEBUG_VALUE: ssl_parse_server_key_exchange:ret <- $r6
	movs	r1, #2
	movs	r2, #51
	ldr	r4, [sp, #28]                   @ 4-byte Reload
.Ltmp584:
	.loc	12 2804 17 is_stmt 1            @ ../../../ThirdParty/mbedTLS/library/ssl_cli.c:2804:17
	mov	r0, r4
	bl	mbedtls_ssl_send_alert_message
	.loc	12 2806 13                      @ ../../../ThirdParty/mbedTLS/library/ssl_cli.c:2806:13
	str	r6, [sp, #4]
	ldr	r0, __arm_cp.3_16
	str	r0, [sp]
	ldr	r3, __arm_cp.3_13
	adds	r3, #80
	movs	r1, #1
	ldr	r2, __arm_cp.3_1
	mov	r0, r4
	bl	mbedtls_debug_print_ret
	b	.LBB3_45
.Ltmp585:
@ %bb.57:
	.p2align	2
@ %bb.58:
	.loc	12 0 13 is_stmt 0               @ ../../../ThirdParty/mbedTLS/library/ssl_cli.c:0:13
.LCPI3_22:
.L.str.95:
	.asciz	"ssl_get_ecdh_params_from_cert\000\000"
	.p2align	2
@ %bb.59:
.LCPI3_23:
	.long	.L.str.94
	.p2align	2
@ %bb.60:
__arm_cp.3_24:
	.long	.L.str.40
.Lcpi_end70:
	.size	__arm_cp.3_24, .Lcpi_end70-__arm_cp.3_24
	.p2align	1
.LBB3_61:
.Ltmp586:
	@DEBUG_VALUE: params <- $r6
	@DEBUG_VALUE: sig_len <- $r5
	@DEBUG_VALUE: peer_pk <- $r4
	@DEBUG_VALUE: params_len <- [DW_OP_plus_uconst 36] [$sp+0]
	@DEBUG_VALUE: rs_ctx <- 0
	@DEBUG_VALUE: ssl_parse_server_key_exchange:ssl <- [DW_OP_LLVM_entry_value 1] $r0
	.loc	12 2787 13 is_stmt 1            @ ../../../ThirdParty/mbedTLS/library/ssl_cli.c:2787:13
	ldr	r0, __arm_cp.3_6
	str	r0, [sp]
	ldr	r3, __arm_cp.3_13
	adds	r3, #61
	movs	r1, #1
	ldr	r2, __arm_cp.3_1
	ldr	r4, [sp, #28]                   @ 4-byte Reload
.Ltmp587:
	mov	r0, r4
	bl	mbedtls_debug_print_msg
	movs	r1, #2
	movs	r2, #40
	.loc	12 2788 13                      @ ../../../ThirdParty/mbedTLS/library/ssl_cli.c:2788:13
	mov	r0, r4
	bl	mbedtls_ssl_send_alert_message
	ldr	r6, __arm_cp.3_17
.Ltmp588:
	.loc	12 0 13 is_stmt 0               @ ../../../ThirdParty/mbedTLS/library/ssl_cli.c:0:13
	b	.LBB3_45
.Ltmp589:
.LBB3_62:
	@DEBUG_VALUE: params <- $r6
	@DEBUG_VALUE: sig_len <- $r5
	@DEBUG_VALUE: peer_pk <- $r4
	@DEBUG_VALUE: ssl_parse_server_key_exchange:ret <- $r0
	@DEBUG_VALUE: md_alg <- [DW_OP_plus_uconst 20] [$sp+0]
	@DEBUG_VALUE: params_len <- [DW_OP_plus_uconst 36] [$sp+0]
	@DEBUG_VALUE: rs_ctx <- 0
	@DEBUG_VALUE: ssl_parse_server_key_exchange:ssl <- [DW_OP_LLVM_entry_value 1] $r0
	.loc	12 2818 9 is_stmt 1             @ ../../../ThirdParty/mbedTLS/library/ssl_cli.c:2818:9
	mov	r0, r4
.Ltmp590:
	bl	mbedtls_pk_free
	ldr	r0, [sp, #32]                   @ 4-byte Reload
	str	r0, [sp, #24]                   @ 4-byte Spill
                                        @ implicit-def: $r6
	b	.LBB3_45
.Ltmp591:
	.p2align	2
@ %bb.63:
	.loc	12 0 9 is_stmt 0                @ ../../../ThirdParty/mbedTLS/library/ssl_cli.c:0:9
__arm_cp.3_1:
	.long	.L.str
.Lcpi_end71:
	.size	__arm_cp.3_1, .Lcpi_end71-__arm_cp.3_1
__arm_cp.3_4:
	.long	.L.str.94
.Lcpi_end72:
	.size	__arm_cp.3_4, .Lcpi_end72-__arm_cp.3_4
__arm_cp.3_6:
	.long	.L.str.96
.Lcpi_end73:
	.size	__arm_cp.3_6, .Lcpi_end73-__arm_cp.3_6
__arm_cp.3_7:
	.long	4294936832                      @ 0xffff8900
.Lcpi_end74:
	.size	__arm_cp.3_7, .Lcpi_end74-__arm_cp.3_7
.LCPI3_8:
.L.str.97:
	.asciz	"server key exchange message must not be skipped"
.LCPI3_9:
.L.str.98:
	.asciz	"server key exchange"
__arm_cp.3_10:
	.long	4294935808                      @ 0xffff8500
.Lcpi_end75:
	.size	__arm_cp.3_10, .Lcpi_end75-__arm_cp.3_10
__arm_cp.3_11:
	.long	.L.str.99
.Lcpi_end76:
	.size	__arm_cp.3_11, .Lcpi_end76-__arm_cp.3_11
__arm_cp.3_12:
	.long	4294939648                      @ 0xffff9400
.Lcpi_end77:
	.size	__arm_cp.3_12, .Lcpi_end77-__arm_cp.3_12
__arm_cp.3_13:
	.long	2726                            @ 0xaa6
.Lcpi_end78:
	.size	__arm_cp.3_13, .Lcpi_end78-__arm_cp.3_13
.LCPI3_14:
.L.str.100:
	.asciz	"signature\000\000"
__arm_cp.3_15:
	.long	.L.str.101
.Lcpi_end79:
	.size	__arm_cp.3_15, .Lcpi_end79-__arm_cp.3_15
__arm_cp.3_16:
	.long	.L.str.102
.Lcpi_end80:
	.size	__arm_cp.3_16, .Lcpi_end80-__arm_cp.3_16
__arm_cp.3_17:
	.long	4294939392                      @ 0xffff9300
.Lcpi_end81:
	.size	__arm_cp.3_17, .Lcpi_end81-__arm_cp.3_17
__arm_cp.3_18:
	.long	.L.str.103
.Lcpi_end82:
	.size	__arm_cp.3_18, .Lcpi_end82-__arm_cp.3_18
.Lfunc_end3:
	.size	ssl_parse_server_key_exchange, .Lfunc_end3-ssl_parse_server_key_exchange
	.cfi_endproc
	.cantunwind
	.fnend
                                        @ -- End function
	.section	.text.ssl_parse_certificate_request,"ax",%progbits
	.p2align	2                               @ -- Begin function ssl_parse_certificate_request
	.type	ssl_parse_certificate_request,%function
	.code	16                              @ @ssl_parse_certificate_request
	.thumb_func
ssl_parse_certificate_request:
.Lfunc_begin4:
	.loc	12 2851 0 is_stmt 1             @ ../../../ThirdParty/mbedTLS/library/ssl_cli.c:2851:0
	.fnstart
	.cfi_startproc
@ %bb.0:
	@DEBUG_VALUE: ssl_parse_certificate_request:ssl <- $r0
	.save	{r4, r5, r6, r7, lr}
	push	{r4, r5, r6, r7, lr}
	.cfi_def_cfa_offset 20
	.cfi_offset lr, -4
	.cfi_offset r7, -8
	.cfi_offset r6, -12
	.cfi_offset r5, -16
	.cfi_offset r4, -20
	.pad	#44
	sub	sp, #44
	.cfi_def_cfa_offset 64
	mov	r4, r0
.Ltmp592:
	@DEBUG_VALUE: ssl_parse_certificate_request:dn_len <- 0
	@DEBUG_VALUE: ssl_parse_certificate_request:cert_type_len <- 0
	@DEBUG_VALUE: ssl_parse_certificate_request:n <- 0
	@DEBUG_VALUE: ssl_parse_certificate_request:ssl <- $r4
	.loc	12 2857 14 prologue_end         @ ../../../ThirdParty/mbedTLS/library/ssl_cli.c:2857:14
	ldr	r0, [r0, #76]
	.loc	12 2857 35 is_stmt 0            @ ../../../ThirdParty/mbedTLS/library/ssl_cli.c:2857:35
	ldr	r6, [r0]
.Ltmp593:
	@DEBUG_VALUE: ssl_parse_certificate_request:ciphersuite_info <- $r6
	.loc	12 2859 5 is_stmt 1             @ ../../../ThirdParty/mbedTLS/library/ssl_cli.c:2859:5
	adr	r0, .LCPI4_0
	str	r0, [sp]
	movs	r1, #2
	ldr	r2, __arm_cp.4_1
	ldr	r5, __arm_cp.4_2
	mov	r0, r4
	mov	r3, r5
	bl	mbedtls_debug_print_msg
.Ltmp594:
	.loc	12 2861 11                      @ ../../../ThirdParty/mbedTLS/library/ssl_cli.c:2861:11
	mov	r0, r6
	bl	mbedtls_ssl_ciphersuite_cert_req_allowed
.Ltmp595:
	.loc	12 2861 9 is_stmt 0             @ ../../../ThirdParty/mbedTLS/library/ssl_cli.c:2861:9
	cbz	r0, .LBB4_3
.Ltmp596:
@ %bb.1:
	@DEBUG_VALUE: ssl_parse_certificate_request:ciphersuite_info <- $r6
	@DEBUG_VALUE: ssl_parse_certificate_request:ssl <- $r4
	@DEBUG_VALUE: ssl_parse_certificate_request:n <- 0
	@DEBUG_VALUE: ssl_parse_certificate_request:cert_type_len <- 0
	@DEBUG_VALUE: ssl_parse_certificate_request:dn_len <- 0
	.loc	12 0 9                          @ ../../../ThirdParty/mbedTLS/library/ssl_cli.c:0:9
	movs	r6, #1
.Ltmp597:
	.loc	12 2868 17 is_stmt 1            @ ../../../ThirdParty/mbedTLS/library/ssl_cli.c:2868:17
	mov	r0, r4
	mov	r1, r6
	bl	mbedtls_ssl_read_record
.Ltmp598:
	@DEBUG_VALUE: ssl_parse_certificate_request:ret <- $r0
	.loc	12 2868 9 is_stmt 0             @ ../../../ThirdParty/mbedTLS/library/ssl_cli.c:2868:9
	cbz	r0, .LBB4_4
.Ltmp599:
@ %bb.2:
	@DEBUG_VALUE: ssl_parse_certificate_request:ssl <- $r4
	@DEBUG_VALUE: ssl_parse_certificate_request:ret <- $r0
	@DEBUG_VALUE: ssl_parse_certificate_request:n <- 0
	@DEBUG_VALUE: ssl_parse_certificate_request:cert_type_len <- 0
	@DEBUG_VALUE: ssl_parse_certificate_request:dn_len <- 0
	.loc	12 0 0                          @ ../../../ThirdParty/mbedTLS/library/ssl_cli.c:0:0
	mov	r7, r0
.Ltmp600:
	@DEBUG_VALUE: ssl_parse_certificate_request:ret <- $r7
	.loc	12 2870 9 is_stmt 1             @ ../../../ThirdParty/mbedTLS/library/ssl_cli.c:2870:9
	str	r0, [sp, #4]
	ldr	r0, __arm_cp.4_3
	str	r0, [sp]
	adds	r5, #11
	movs	r1, #1
	ldr	r2, __arm_cp.4_1
	mov	r0, r4
	mov	r3, r5
	bl	mbedtls_debug_print_ret
	.loc	12 2871 9                       @ ../../../ThirdParty/mbedTLS/library/ssl_cli.c:2871:9
	b	.LBB4_27
.Ltmp601:
.LBB4_3:
	@DEBUG_VALUE: ssl_parse_certificate_request:ciphersuite_info <- $r6
	@DEBUG_VALUE: ssl_parse_certificate_request:ssl <- $r4
	@DEBUG_VALUE: ssl_parse_certificate_request:n <- 0
	@DEBUG_VALUE: ssl_parse_certificate_request:cert_type_len <- 0
	@DEBUG_VALUE: ssl_parse_certificate_request:dn_len <- 0
	.loc	12 2863 9                       @ ../../../ThirdParty/mbedTLS/library/ssl_cli.c:2863:9
	ldr	r0, __arm_cp.4_12
	str	r0, [sp]
	adds	r3, r5, #4
	movs	r1, #2
	ldr	r2, __arm_cp.4_1
	mov	r0, r4
	bl	mbedtls_debug_print_msg
	.loc	12 2864 19                      @ ../../../ThirdParty/mbedTLS/library/ssl_cli.c:2864:19
	ldr	r0, [r4, #4]
	adds	r0, r0, #1
	str	r0, [r4, #4]
	movs	r7, #0
	.loc	12 2865 9                       @ ../../../ThirdParty/mbedTLS/library/ssl_cli.c:2865:9
	b	.LBB4_27
.Ltmp602:
.LBB4_4:
	@DEBUG_VALUE: ssl_parse_certificate_request:ssl <- $r4
	@DEBUG_VALUE: ssl_parse_certificate_request:ret <- $r0
	@DEBUG_VALUE: ssl_parse_certificate_request:n <- 0
	@DEBUG_VALUE: ssl_parse_certificate_request:cert_type_len <- 0
	@DEBUG_VALUE: ssl_parse_certificate_request:dn_len <- 0
	.loc	12 2874 14                      @ ../../../ThirdParty/mbedTLS/library/ssl_cli.c:2874:14
	ldr	r0, [r4, #120]
.Ltmp603:
	.loc	12 2874 9 is_stmt 0             @ ../../../ThirdParty/mbedTLS/library/ssl_cli.c:2874:9
	cmp	r0, #22
	bne	.LBB4_7
.Ltmp604:
@ %bb.5:
	@DEBUG_VALUE: ssl_parse_certificate_request:ssl <- $r4
	@DEBUG_VALUE: ssl_parse_certificate_request:n <- 0
	@DEBUG_VALUE: ssl_parse_certificate_request:cert_type_len <- 0
	@DEBUG_VALUE: ssl_parse_certificate_request:dn_len <- 0
	.loc	12 0 0                          @ ../../../ThirdParty/mbedTLS/library/ssl_cli.c:0:0
	mov	r7, r4
	adds	r7, #160
	.loc	12 2882 15 is_stmt 1            @ ../../../ThirdParty/mbedTLS/library/ssl_cli.c:2882:15
	ldr	r0, [r4, #4]
	adds	r0, r0, #1
	str	r0, [r4, #4]
	.loc	12 2883 31                      @ ../../../ThirdParty/mbedTLS/library/ssl_cli.c:2883:31
	ldr	r0, [r4, #112]
	.loc	12 2883 26 is_stmt 0            @ ../../../ThirdParty/mbedTLS/library/ssl_cli.c:2883:26
	ldrb	r0, [r0]
	.loc	12 2883 41                      @ ../../../ThirdParty/mbedTLS/library/ssl_cli.c:2883:41
	mov	r1, r0
	subs	r1, #13
	rsbs	r2, r1, #0
	adcs	r2, r1
	.loc	12 2883 22                      @ ../../../ThirdParty/mbedTLS/library/ssl_cli.c:2883:22
	str	r2, [r7, #64]
	.loc	12 2885 5 is_stmt 1             @ ../../../ThirdParty/mbedTLS/library/ssl_cli.c:2885:5
	cmp	r0, #13
	beq	.LBB4_8
.Ltmp605:
@ %bb.6:
	@DEBUG_VALUE: ssl_parse_certificate_request:ssl <- $r4
	@DEBUG_VALUE: ssl_parse_certificate_request:n <- 0
	@DEBUG_VALUE: ssl_parse_certificate_request:cert_type_len <- 0
	@DEBUG_VALUE: ssl_parse_certificate_request:dn_len <- 0
	.loc	12 0 5 is_stmt 0                @ ../../../ThirdParty/mbedTLS/library/ssl_cli.c:0:5
	ldr	r0, __arm_cp.4_7
	b	.LBB4_9
.Ltmp606:
.LBB4_7:
	@DEBUG_VALUE: ssl_parse_certificate_request:ssl <- $r4
	@DEBUG_VALUE: ssl_parse_certificate_request:n <- 0
	@DEBUG_VALUE: ssl_parse_certificate_request:cert_type_len <- 0
	@DEBUG_VALUE: ssl_parse_certificate_request:dn_len <- 0
	.loc	12 2876 9 is_stmt 1             @ ../../../ThirdParty/mbedTLS/library/ssl_cli.c:2876:9
	ldr	r0, __arm_cp.4_4
	str	r0, [sp]
	adds	r5, #17
	movs	r1, #1
	ldr	r2, __arm_cp.4_1
	mov	r0, r4
	mov	r3, r5
	bl	mbedtls_debug_print_msg
	movs	r1, #2
	movs	r2, #10
	.loc	12 2877 9                       @ ../../../ThirdParty/mbedTLS/library/ssl_cli.c:2877:9
	mov	r0, r4
	bl	mbedtls_ssl_send_alert_message
	ldr	r7, __arm_cp.4_5
	.loc	12 2879 9                       @ ../../../ThirdParty/mbedTLS/library/ssl_cli.c:2879:9
	b	.LBB4_27
.Ltmp607:
.LBB4_8:
	@DEBUG_VALUE: ssl_parse_certificate_request:ssl <- $r4
	@DEBUG_VALUE: ssl_parse_certificate_request:n <- 0
	@DEBUG_VALUE: ssl_parse_certificate_request:cert_type_len <- 0
	@DEBUG_VALUE: ssl_parse_certificate_request:dn_len <- 0
	.loc	12 0 9 is_stmt 0                @ ../../../ThirdParty/mbedTLS/library/ssl_cli.c:0:9
	ldr	r0, __arm_cp.4_6
.Ltmp608:
.LBB4_9:
	@DEBUG_VALUE: ssl_parse_certificate_request:ssl <- $r4
	@DEBUG_VALUE: ssl_parse_certificate_request:n <- 0
	@DEBUG_VALUE: ssl_parse_certificate_request:cert_type_len <- 0
	@DEBUG_VALUE: ssl_parse_certificate_request:dn_len <- 0
	.loc	12 2885 5 is_stmt 1             @ ../../../ThirdParty/mbedTLS/library/ssl_cli.c:2885:5
	adr	r1, .LCPI4_8
	str	r1, [sp]
	str	r0, [sp, #4]
	mov	r3, r5
	adds	r3, #27
	movs	r1, #3
	ldr	r2, __arm_cp.4_1
	mov	r0, r4
	bl	mbedtls_debug_print_msg
.Ltmp609:
	.loc	12 2888 14                      @ ../../../ThirdParty/mbedTLS/library/ssl_cli.c:2888:14
	ldr	r0, [r7, #64]
.Ltmp610:
	.loc	12 2888 9 is_stmt 0             @ ../../../ThirdParty/mbedTLS/library/ssl_cli.c:2888:9
	cmp	r0, #0
	beq	.LBB4_18
.Ltmp611:
@ %bb.10:
	@DEBUG_VALUE: ssl_parse_certificate_request:ssl <- $r4
	@DEBUG_VALUE: ssl_parse_certificate_request:n <- 0
	@DEBUG_VALUE: ssl_parse_certificate_request:cert_type_len <- 0
	@DEBUG_VALUE: ssl_parse_certificate_request:dn_len <- 0
	.loc	12 2922 14 is_stmt 1            @ ../../../ThirdParty/mbedTLS/library/ssl_cli.c:2922:14
	ldr	r6, [r7]
.Ltmp612:
	.loc	12 2919 16                      @ ../../../ThirdParty/mbedTLS/library/ssl_cli.c:2919:16
	ldr	r0, [r4, #112]
.Ltmp613:
	@DEBUG_VALUE: ssl_parse_certificate_request:buf <- $r0
	.loc	12 2922 26                      @ ../../../ThirdParty/mbedTLS/library/ssl_cli.c:2922:26
	str	r0, [sp, #40]                   @ 4-byte Spill
.Ltmp614:
	@DEBUG_VALUE: ssl_parse_certificate_request:buf <- [DW_OP_plus_uconst 40] [$sp+0]
	@DEBUG_VALUE: ssl_parse_certificate_request:buf <- [DW_OP_plus_uconst 40] [$sp+0]
	mov	r0, r4
	bl	mbedtls_ssl_hs_hdr_len
.Ltmp615:
	.loc	12 2922 9 is_stmt 0             @ ../../../ThirdParty/mbedTLS/library/ssl_cli.c:2922:9
	cmp	r6, r0
	bls	.LBB4_20
.Ltmp616:
@ %bb.11:
	@DEBUG_VALUE: ssl_parse_certificate_request:ssl <- $r4
	@DEBUG_VALUE: ssl_parse_certificate_request:buf <- [DW_OP_plus_uconst 40] [$sp+0]
	@DEBUG_VALUE: ssl_parse_certificate_request:n <- 0
	@DEBUG_VALUE: ssl_parse_certificate_request:cert_type_len <- 0
	@DEBUG_VALUE: ssl_parse_certificate_request:dn_len <- 0
	.loc	12 0 9                          @ ../../../ThirdParty/mbedTLS/library/ssl_cli.c:0:9
	mov	r3, r6
	ldr	r1, [sp, #40]                   @ 4-byte Reload
	.loc	12 2929 21 is_stmt 1            @ ../../../ThirdParty/mbedTLS/library/ssl_cli.c:2929:21
	ldrb	r6, [r1, r0]
.Ltmp617:
	@DEBUG_VALUE: ssl_parse_certificate_request:cert_type_len <- $r6
	@DEBUG_VALUE: ssl_parse_certificate_request:n <- $r6
	.loc	12 2942 56                      @ ../../../ThirdParty/mbedTLS/library/ssl_cli.c:2942:56
	adds	r0, r0, r6
	.loc	12 2942 60 is_stmt 0            @ ../../../ThirdParty/mbedTLS/library/ssl_cli.c:2942:60
	adds	r1, r0, #2
.Ltmp618:
	.loc	12 2942 9                       @ ../../../ThirdParty/mbedTLS/library/ssl_cli.c:2942:9
	cmp	r3, r1
	bls	.LBB4_21
.Ltmp619:
@ %bb.12:
	@DEBUG_VALUE: ssl_parse_certificate_request:n <- $r6
	@DEBUG_VALUE: ssl_parse_certificate_request:cert_type_len <- $r6
	@DEBUG_VALUE: ssl_parse_certificate_request:ssl <- $r4
	@DEBUG_VALUE: ssl_parse_certificate_request:buf <- [DW_OP_plus_uconst 40] [$sp+0]
	@DEBUG_VALUE: ssl_parse_certificate_request:dn_len <- 0
	.loc	12 2952 14 is_stmt 1            @ ../../../ThirdParty/mbedTLS/library/ssl_cli.c:2952:14
	ldr	r2, [r4, #20]
.Ltmp620:
	.loc	12 2952 9 is_stmt 0             @ ../../../ThirdParty/mbedTLS/library/ssl_cli.c:2952:9
	cmp	r2, #3
	bne	.LBB4_24
.Ltmp621:
@ %bb.13:
	@DEBUG_VALUE: ssl_parse_certificate_request:n <- $r6
	@DEBUG_VALUE: ssl_parse_certificate_request:cert_type_len <- $r6
	@DEBUG_VALUE: ssl_parse_certificate_request:ssl <- $r4
	@DEBUG_VALUE: ssl_parse_certificate_request:buf <- [DW_OP_plus_uconst 40] [$sp+0]
	@DEBUG_VALUE: ssl_parse_certificate_request:dn_len <- 0
	.loc	12 0 9                          @ ../../../ThirdParty/mbedTLS/library/ssl_cli.c:0:9
	ldr	r2, [sp, #40]                   @ 4-byte Reload
.Ltmp622:
	.loc	12 2955 36 is_stmt 1            @ ../../../ThirdParty/mbedTLS/library/ssl_cli.c:2955:36
	ldrb	r1, [r2, r1]
	.loc	12 2954 72                      @ ../../../ThirdParty/mbedTLS/library/ssl_cli.c:2954:72
	adds	r2, r0, r2
	str	r2, [sp, #36]                   @ 4-byte Spill
	.loc	12 2954 34 is_stmt 0            @ ../../../ThirdParty/mbedTLS/library/ssl_cli.c:2954:34
	ldrb	r2, [r2, #1]
	.loc	12 2954 77                      @ ../../../ThirdParty/mbedTLS/library/ssl_cli.c:2954:77
	lsls	r2, r2, #8
	.loc	12 2955 32 is_stmt 1            @ ../../../ThirdParty/mbedTLS/library/ssl_cli.c:2955:32
	adds	r2, r2, r1
.Ltmp623:
	@DEBUG_VALUE: sig_alg_len <- $r2
	.loc	12 2973 64                      @ ../../../ThirdParty/mbedTLS/library/ssl_cli.c:2973:64
	adds	r0, r0, r2
	.loc	12 2973 68 is_stmt 0            @ ../../../ThirdParty/mbedTLS/library/ssl_cli.c:2973:68
	adds	r1, r0, #3
.Ltmp624:
	.loc	12 2973 13                      @ ../../../ThirdParty/mbedTLS/library/ssl_cli.c:2973:13
	cmp	r3, r1
	str	r3, [sp, #24]                   @ 4-byte Spill
	str	r1, [sp, #20]                   @ 4-byte Spill
	bls	.LBB4_22
.Ltmp625:
@ %bb.14:
	@DEBUG_VALUE: ssl_parse_certificate_request:n <- $r6
	@DEBUG_VALUE: ssl_parse_certificate_request:cert_type_len <- $r6
	@DEBUG_VALUE: ssl_parse_certificate_request:ssl <- $r4
	@DEBUG_VALUE: sig_alg_len <- $r2
	@DEBUG_VALUE: ssl_parse_certificate_request:buf <- [DW_OP_plus_uconst 40] [$sp+0]
	@DEBUG_VALUE: ssl_parse_certificate_request:dn_len <- 0
	@DEBUG_VALUE: sig_alg <- undef
	@DEBUG_VALUE: i <- 0
	.loc	12 0 13                         @ ../../../ThirdParty/mbedTLS/library/ssl_cli.c:0:13
	str	r7, [sp, #12]                   @ 4-byte Spill
	str	r6, [sp, #16]                   @ 4-byte Spill
.Ltmp626:
	@DEBUG_VALUE: ssl_parse_certificate_request:cert_type_len <- [DW_OP_plus_uconst 16] [$sp+0]
	.loc	12 2983 9 is_stmt 1             @ ../../../ThirdParty/mbedTLS/library/ssl_cli.c:2983:9
	cbz	r2, .LBB4_17
.Ltmp627:
@ %bb.15:
	@DEBUG_VALUE: ssl_parse_certificate_request:cert_type_len <- [DW_OP_plus_uconst 16] [$sp+0]
	@DEBUG_VALUE: ssl_parse_certificate_request:n <- $r6
	@DEBUG_VALUE: ssl_parse_certificate_request:ssl <- $r4
	@DEBUG_VALUE: sig_alg_len <- $r2
	@DEBUG_VALUE: ssl_parse_certificate_request:buf <- [DW_OP_plus_uconst 40] [$sp+0]
	@DEBUG_VALUE: i <- 0
	@DEBUG_VALUE: ssl_parse_certificate_request:dn_len <- 0
	.loc	12 0 9 is_stmt 0                @ ../../../ThirdParty/mbedTLS/library/ssl_cli.c:0:9
	movs	r6, #0
.Ltmp628:
	mov	r0, r5
	adds	r0, #127
	str	r0, [sp, #32]                   @ 4-byte Spill
	movs	r0, #3
	str	r0, [sp, #28]                   @ 4-byte Spill
.Ltmp629:
.LBB4_16:                               @ =>This Inner Loop Header: Depth=1
	@DEBUG_VALUE: ssl_parse_certificate_request:cert_type_len <- [DW_OP_plus_uconst 16] [$sp+0]
	@DEBUG_VALUE: ssl_parse_certificate_request:ssl <- $r4
	@DEBUG_VALUE: ssl_parse_certificate_request:buf <- [DW_OP_plus_uconst 40] [$sp+0]
	@DEBUG_VALUE: ssl_parse_certificate_request:dn_len <- 0
	@DEBUG_VALUE: i <- $r6
	.loc	12 2985 13 is_stmt 1            @ ../../../ThirdParty/mbedTLS/library/ssl_cli.c:2985:13
	ldr	r0, [sp, #36]                   @ 4-byte Reload
	adds	r0, r0, r6
	ldrb	r1, [r0, #3]
	ldrb	r0, [r0, #4]
	adr	r3, .LCPI4_10
	str	r3, [sp]
	str	r1, [sp, #4]
	str	r0, [sp, #8]
	mov	r0, r4
	ldr	r1, [sp, #28]                   @ 4-byte Reload
	mov	r7, r2
.Ltmp630:
	@DEBUG_VALUE: sig_alg_len <- $r7
	ldr	r2, __arm_cp.4_1
	ldr	r3, [sp, #32]                   @ 4-byte Reload
	bl	mbedtls_debug_print_msg
	mov	r2, r7
.Ltmp631:
	.loc	12 2983 40                      @ ../../../ThirdParty/mbedTLS/library/ssl_cli.c:2983:40
	adds	r6, r6, #2
.Ltmp632:
	@DEBUG_VALUE: i <- $r6
	.loc	12 2983 9 is_stmt 0             @ ../../../ThirdParty/mbedTLS/library/ssl_cli.c:2983:9
	cmp	r6, r7
	blo	.LBB4_16
.Ltmp633:
.LBB4_17:
	@DEBUG_VALUE: ssl_parse_certificate_request:cert_type_len <- [DW_OP_plus_uconst 16] [$sp+0]
	@DEBUG_VALUE: ssl_parse_certificate_request:ssl <- $r4
	@DEBUG_VALUE: ssl_parse_certificate_request:buf <- [DW_OP_plus_uconst 40] [$sp+0]
	@DEBUG_VALUE: ssl_parse_certificate_request:dn_len <- 0
	.loc	12 2990 16 is_stmt 1            @ ../../../ThirdParty/mbedTLS/library/ssl_cli.c:2990:16
	ldr	r0, [sp, #16]                   @ 4-byte Reload
.Ltmp634:
	@DEBUG_VALUE: ssl_parse_certificate_request:cert_type_len <- $r0
	adds	r0, r0, r2
.Ltmp635:
	.loc	12 2990 11 is_stmt 0            @ ../../../ThirdParty/mbedTLS/library/ssl_cli.c:2990:11
	adds	r6, r0, #2
.Ltmp636:
	@DEBUG_VALUE: ssl_parse_certificate_request:n <- $r6
	.loc	12 0 11                         @ ../../../ThirdParty/mbedTLS/library/ssl_cli.c:0:11
	ldr	r0, [sp, #24]                   @ 4-byte Reload
	ldr	r1, [sp, #20]                   @ 4-byte Reload
	ldr	r7, [sp, #12]                   @ 4-byte Reload
	b	.LBB4_23
.Ltmp637:
.LBB4_18:
	@DEBUG_VALUE: ssl_parse_certificate_request:ssl <- $r4
	@DEBUG_VALUE: ssl_parse_certificate_request:n <- 0
	@DEBUG_VALUE: ssl_parse_certificate_request:cert_type_len <- 0
	@DEBUG_VALUE: ssl_parse_certificate_request:dn_len <- 0
	.loc	12 2891 35 is_stmt 1            @ ../../../ThirdParty/mbedTLS/library/ssl_cli.c:2891:35
	str	r6, [r7, #8]
.Ltmp638:
.LBB4_19:
	@DEBUG_VALUE: ssl_parse_certificate_request:ssl <- $r4
	@DEBUG_LABEL: ssl_parse_certificate_request:exit
	.loc	12 3008 5                       @ ../../../ThirdParty/mbedTLS/library/ssl_cli.c:3008:5
	adr	r0, .LCPI4_11
	str	r0, [sp]
	adds	r5, #149
	movs	r1, #2
	ldr	r2, __arm_cp.4_1
	mov	r0, r4
	mov	r3, r5
	bl	mbedtls_debug_print_msg
	movs	r7, #0
	b	.LBB4_27
.Ltmp639:
.LBB4_20:
	@DEBUG_VALUE: ssl_parse_certificate_request:ssl <- $r4
	@DEBUG_VALUE: ssl_parse_certificate_request:buf <- [DW_OP_plus_uconst 40] [$sp+0]
	@DEBUG_VALUE: ssl_parse_certificate_request:n <- 0
	@DEBUG_VALUE: ssl_parse_certificate_request:cert_type_len <- 0
	@DEBUG_VALUE: ssl_parse_certificate_request:dn_len <- 0
	.loc	12 2924 9                       @ ../../../ThirdParty/mbedTLS/library/ssl_cli.c:2924:9
	ldr	r0, __arm_cp.4_4
	str	r0, [sp]
	adds	r5, #65
	movs	r1, #1
	ldr	r2, __arm_cp.4_1
	mov	r0, r4
	mov	r3, r5
	bl	mbedtls_debug_print_msg
	movs	r1, #2
	movs	r2, #50
	.loc	12 2925 9                       @ ../../../ThirdParty/mbedTLS/library/ssl_cli.c:2925:9
	mov	r0, r4
	bl	mbedtls_ssl_send_alert_message
	ldr	r7, __arm_cp.4_9
	.loc	12 2927 9                       @ ../../../ThirdParty/mbedTLS/library/ssl_cli.c:2927:9
	b	.LBB4_27
.Ltmp640:
.LBB4_21:
	@DEBUG_VALUE: ssl_parse_certificate_request:n <- $r6
	@DEBUG_VALUE: ssl_parse_certificate_request:cert_type_len <- $r6
	@DEBUG_VALUE: ssl_parse_certificate_request:ssl <- $r4
	@DEBUG_VALUE: ssl_parse_certificate_request:buf <- [DW_OP_plus_uconst 40] [$sp+0]
	@DEBUG_VALUE: ssl_parse_certificate_request:dn_len <- 0
	.loc	12 2944 9                       @ ../../../ThirdParty/mbedTLS/library/ssl_cli.c:2944:9
	ldr	r0, __arm_cp.4_4
	str	r0, [sp]
	adds	r5, #85
	movs	r1, #1
	ldr	r2, __arm_cp.4_1
	mov	r0, r4
	mov	r3, r5
	bl	mbedtls_debug_print_msg
	movs	r1, #2
	movs	r2, #50
	.loc	12 2945 9                       @ ../../../ThirdParty/mbedTLS/library/ssl_cli.c:2945:9
	mov	r0, r4
	bl	mbedtls_ssl_send_alert_message
	ldr	r7, __arm_cp.4_9
	.loc	12 2947 9                       @ ../../../ThirdParty/mbedTLS/library/ssl_cli.c:2947:9
	b	.LBB4_27
.Ltmp641:
.LBB4_22:
	@DEBUG_VALUE: ssl_parse_certificate_request:n <- $r6
	@DEBUG_VALUE: ssl_parse_certificate_request:cert_type_len <- $r6
	@DEBUG_VALUE: ssl_parse_certificate_request:ssl <- $r4
	@DEBUG_VALUE: sig_alg_len <- $r2
	@DEBUG_VALUE: ssl_parse_certificate_request:buf <- [DW_OP_plus_uconst 40] [$sp+0]
	@DEBUG_VALUE: ssl_parse_certificate_request:dn_len <- 0
	.loc	12 2975 13                      @ ../../../ThirdParty/mbedTLS/library/ssl_cli.c:2975:13
	ldr	r0, __arm_cp.4_4
	str	r0, [sp]
	mov	r3, r5
	adds	r3, #116
	movs	r1, #1
	ldr	r2, __arm_cp.4_1
.Ltmp642:
	mov	r0, r4
	bl	mbedtls_debug_print_msg
	movs	r1, #2
	movs	r2, #50
	.loc	12 2976 13                      @ ../../../ThirdParty/mbedTLS/library/ssl_cli.c:2976:13
	mov	r0, r4
	bl	mbedtls_ssl_send_alert_message
	ldr	r1, [sp, #20]                   @ 4-byte Reload
	ldr	r0, [sp, #24]                   @ 4-byte Reload
.Ltmp643:
.LBB4_23:
	@DEBUG_VALUE: ssl_parse_certificate_request:n <- $r6
	@DEBUG_VALUE: ssl_parse_certificate_request:ssl <- $r4
	@DEBUG_VALUE: ssl_parse_certificate_request:buf <- [DW_OP_plus_uconst 40] [$sp+0]
	@DEBUG_VALUE: ssl_parse_certificate_request:dn_len <- 0
	@DEBUG_VALUE: ssl_parse_certificate_request:n <- $r6
	.loc	12 0 13 is_stmt 0               @ ../../../ThirdParty/mbedTLS/library/ssl_cli.c:0:13
	cmp	r0, r1
	bls	.LBB4_26
.Ltmp644:
.LBB4_24:
	@DEBUG_VALUE: ssl_parse_certificate_request:n <- $r6
	@DEBUG_VALUE: ssl_parse_certificate_request:ssl <- $r4
	@DEBUG_VALUE: ssl_parse_certificate_request:buf <- [DW_OP_plus_uconst 40] [$sp+0]
	@DEBUG_VALUE: ssl_parse_certificate_request:dn_len <- 0
	@DEBUG_VALUE: ssl_parse_certificate_request:n <- $r6
	.loc	12 2995 22 is_stmt 1            @ ../../../ThirdParty/mbedTLS/library/ssl_cli.c:2995:22
	mov	r0, r4
	bl	mbedtls_ssl_hs_hdr_len
	.loc	12 2995 52 is_stmt 0            @ ../../../ThirdParty/mbedTLS/library/ssl_cli.c:2995:52
	adds	r0, r0, r6
	.loc	12 2995 56                      @ ../../../ThirdParty/mbedTLS/library/ssl_cli.c:2995:56
	ldr	r1, [sp, #40]                   @ 4-byte Reload
	adds	r1, r0, r1
	.loc	12 2996 20 is_stmt 1            @ ../../../ThirdParty/mbedTLS/library/ssl_cli.c:2996:20
	ldrb	r2, [r1, #2]
	.loc	12 2995 18                      @ ../../../ThirdParty/mbedTLS/library/ssl_cli.c:2995:18
	ldrb	r1, [r1, #1]
	.loc	12 2995 61 is_stmt 0            @ ../../../ThirdParty/mbedTLS/library/ssl_cli.c:2995:61
	lsls	r1, r1, #8
	.loc	12 2996 16 is_stmt 1            @ ../../../ThirdParty/mbedTLS/library/ssl_cli.c:2996:16
	adds	r1, r1, r2
.Ltmp645:
	@DEBUG_VALUE: ssl_parse_certificate_request:dn_len <- $r1
	.loc	12 2999 56                      @ ../../../ThirdParty/mbedTLS/library/ssl_cli.c:2999:56
	adds	r0, r0, r1
	.loc	12 2999 60 is_stmt 0            @ ../../../ThirdParty/mbedTLS/library/ssl_cli.c:2999:60
	adds	r0, r0, #3
.Ltmp646:
	@DEBUG_VALUE: ssl_parse_certificate_request:n <- undef
	.loc	12 2999 14                      @ ../../../ThirdParty/mbedTLS/library/ssl_cli.c:2999:14
	ldr	r1, [r7]
.Ltmp647:
	.loc	12 2999 9                       @ ../../../ThirdParty/mbedTLS/library/ssl_cli.c:2999:9
	cmp	r1, r0
	beq	.LBB4_19
.Ltmp648:
@ %bb.25:
	@DEBUG_VALUE: ssl_parse_certificate_request:ssl <- $r4
	@DEBUG_VALUE: ssl_parse_certificate_request:buf <- [DW_OP_plus_uconst 40] [$sp+0]
	.loc	12 3001 9 is_stmt 1             @ ../../../ThirdParty/mbedTLS/library/ssl_cli.c:3001:9
	ldr	r0, __arm_cp.4_4
	str	r0, [sp]
	adds	r5, #142
	movs	r1, #1
	ldr	r2, __arm_cp.4_1
	mov	r0, r4
	mov	r3, r5
	bl	mbedtls_debug_print_msg
	movs	r1, #2
	movs	r2, #50
	.loc	12 3002 9                       @ ../../../ThirdParty/mbedTLS/library/ssl_cli.c:3002:9
	mov	r0, r4
	bl	mbedtls_ssl_send_alert_message
	ldr	r7, __arm_cp.4_9
	b	.LBB4_27
.Ltmp649:
.LBB4_26:
	@DEBUG_VALUE: ssl_parse_certificate_request:n <- $r6
	@DEBUG_VALUE: ssl_parse_certificate_request:ssl <- $r4
	@DEBUG_VALUE: ssl_parse_certificate_request:buf <- [DW_OP_plus_uconst 40] [$sp+0]
	@DEBUG_VALUE: ssl_parse_certificate_request:dn_len <- 0
	.loc	12 0 9 is_stmt 0                @ ../../../ThirdParty/mbedTLS/library/ssl_cli.c:0:9
	ldr	r7, __arm_cp.4_9
.Ltmp650:
.LBB4_27:
	@DEBUG_VALUE: ssl_parse_certificate_request:ssl <- $r4
	.loc	12 3011 1 is_stmt 1             @ ../../../ThirdParty/mbedTLS/library/ssl_cli.c:3011:1
	mov	r0, r7
	add	sp, #44
	pop	{r4, r5, r6, r7, pc}
.Ltmp651:
	.p2align	2
@ %bb.28:
	.loc	12 0 1 is_stmt 0                @ ../../../ThirdParty/mbedTLS/library/ssl_cli.c:0:1
.LCPI4_0:
.L.str.121:
	.asciz	"=> parse certificate request\000\000\000"
__arm_cp.4_1:
	.long	.L.str
.Lcpi_end83:
	.size	__arm_cp.4_1, .Lcpi_end83-__arm_cp.4_1
__arm_cp.4_2:
	.long	2859                            @ 0xb2b
.Lcpi_end84:
	.size	__arm_cp.4_2, .Lcpi_end84-__arm_cp.4_2
__arm_cp.4_3:
	.long	.L.str.40
.Lcpi_end85:
	.size	__arm_cp.4_3, .Lcpi_end85-__arm_cp.4_3
__arm_cp.4_4:
	.long	.L.str.123
.Lcpi_end86:
	.size	__arm_cp.4_4, .Lcpi_end86-__arm_cp.4_4
__arm_cp.4_5:
	.long	4294936832                      @ 0xffff8900
.Lcpi_end87:
	.size	__arm_cp.4_5, .Lcpi_end87-__arm_cp.4_5
__arm_cp.4_6:
	.long	.L.str.56
.Lcpi_end88:
	.size	__arm_cp.4_6, .Lcpi_end88-__arm_cp.4_6
__arm_cp.4_7:
	.long	.L.str.57
.Lcpi_end89:
	.size	__arm_cp.4_7, .Lcpi_end89-__arm_cp.4_7
.LCPI4_8:
.L.str.124:
	.asciz	"got %s certificate request\000"
__arm_cp.4_9:
	.long	4294935936                      @ 0xffff8580
.Lcpi_end90:
	.size	__arm_cp.4_9, .Lcpi_end90-__arm_cp.4_9
.LCPI4_10:
.L.str.125:
	.asciz	"Supported Signature Algorithm found: %d,%d\000"
.LCPI4_11:
.L.str.126:
	.asciz	"<= parse certificate request\000\000\000"
__arm_cp.4_12:
	.long	.L.str.122
.Lcpi_end91:
	.size	__arm_cp.4_12, .Lcpi_end91-__arm_cp.4_12
.Lfunc_end4:
	.size	ssl_parse_certificate_request, .Lfunc_end4-ssl_parse_certificate_request
	.cfi_endproc
	.cantunwind
	.fnend
                                        @ -- End function
	.section	.text.ssl_parse_server_hello_done,"ax",%progbits
	.p2align	2                               @ -- Begin function ssl_parse_server_hello_done
	.type	ssl_parse_server_hello_done,%function
	.code	16                              @ @ssl_parse_server_hello_done
	.thumb_func
ssl_parse_server_hello_done:
.Lfunc_begin5:
	.loc	12 3015 0 is_stmt 1             @ ../../../ThirdParty/mbedTLS/library/ssl_cli.c:3015:0
	.fnstart
	.cfi_startproc
@ %bb.0:
	@DEBUG_VALUE: ssl_parse_server_hello_done:ssl <- $r0
	.save	{r4, r5, r6, lr}
	push	{r4, r5, r6, lr}
	.cfi_def_cfa_offset 16
	.cfi_offset lr, -4
	.cfi_offset r6, -8
	.cfi_offset r5, -12
	.cfi_offset r4, -16
	.pad	#8
	sub	sp, #8
	.cfi_def_cfa_offset 24
	mov	r4, r0
.Ltmp652:
	@DEBUG_VALUE: ssl_parse_server_hello_done:ssl <- $r4
	.loc	12 3018 5 prologue_end          @ ../../../ThirdParty/mbedTLS/library/ssl_cli.c:3018:5
	adr	r0, .LCPI5_0
	str	r0, [sp]
	movs	r1, #2
	ldr	r2, __arm_cp.5_1
	ldr	r5, __arm_cp.5_2
	mov	r0, r4
	mov	r3, r5
	bl	mbedtls_debug_print_msg
	movs	r1, #1
.Ltmp653:
	.loc	12 3020 17                      @ ../../../ThirdParty/mbedTLS/library/ssl_cli.c:3020:17
	mov	r0, r4
	bl	mbedtls_ssl_read_record
.Ltmp654:
	@DEBUG_VALUE: ssl_parse_server_hello_done:ret <- $r0
	.loc	12 3020 9 is_stmt 0             @ ../../../ThirdParty/mbedTLS/library/ssl_cli.c:3020:9
	cbz	r0, .LBB5_2
.Ltmp655:
@ %bb.1:
	@DEBUG_VALUE: ssl_parse_server_hello_done:ssl <- $r4
	@DEBUG_VALUE: ssl_parse_server_hello_done:ret <- $r0
	.loc	12 0 0                          @ ../../../ThirdParty/mbedTLS/library/ssl_cli.c:0:0
	mov	r6, r0
.Ltmp656:
	@DEBUG_VALUE: ssl_parse_server_hello_done:ret <- $r6
	.loc	12 3022 9 is_stmt 1             @ ../../../ThirdParty/mbedTLS/library/ssl_cli.c:3022:9
	str	r0, [sp, #4]
	ldr	r0, __arm_cp.5_3
	str	r0, [sp]
	adds	r3, r5, #4
	movs	r1, #1
	ldr	r2, __arm_cp.5_1
	mov	r0, r4
	bl	mbedtls_debug_print_ret
	.loc	12 3023 9                       @ ../../../ThirdParty/mbedTLS/library/ssl_cli.c:3023:9
	b	.LBB5_10
.Ltmp657:
.LBB5_2:
	@DEBUG_VALUE: ssl_parse_server_hello_done:ssl <- $r4
	@DEBUG_VALUE: ssl_parse_server_hello_done:ret <- $r0
	.loc	12 3026 14                      @ ../../../ThirdParty/mbedTLS/library/ssl_cli.c:3026:14
	ldr	r0, [r4, #120]
.Ltmp658:
	.loc	12 3026 9 is_stmt 0             @ ../../../ThirdParty/mbedTLS/library/ssl_cli.c:3026:9
	cmp	r0, #22
	bne	.LBB5_8
.Ltmp659:
@ %bb.3:
	@DEBUG_VALUE: ssl_parse_server_hello_done:ssl <- $r4
	.loc	12 0 9                          @ ../../../ThirdParty/mbedTLS/library/ssl_cli.c:0:9
	movs	r0, #160
.Ltmp660:
	.loc	12 3032 14 is_stmt 1            @ ../../../ThirdParty/mbedTLS/library/ssl_cli.c:3032:14
	ldr	r6, [r4, r0]
	.loc	12 3032 27 is_stmt 0            @ ../../../ThirdParty/mbedTLS/library/ssl_cli.c:3032:27
	mov	r0, r4
	bl	mbedtls_ssl_hs_hdr_len
	.loc	12 3032 57                      @ ../../../ThirdParty/mbedTLS/library/ssl_cli.c:3032:57
	cmp	r6, r0
	bne	.LBB5_9
.Ltmp661:
@ %bb.4:
	@DEBUG_VALUE: ssl_parse_server_hello_done:ssl <- $r4
	.loc	12 3033 18 is_stmt 1            @ ../../../ThirdParty/mbedTLS/library/ssl_cli.c:3033:18
	ldr	r0, [r4, #112]
	.loc	12 3033 13 is_stmt 0            @ ../../../ThirdParty/mbedTLS/library/ssl_cli.c:3033:13
	ldrb	r0, [r0]
.Ltmp662:
	.loc	12 3032 9 is_stmt 1             @ ../../../ThirdParty/mbedTLS/library/ssl_cli.c:3032:9
	cmp	r0, #14
	bne	.LBB5_9
.Ltmp663:
@ %bb.5:
	@DEBUG_VALUE: ssl_parse_server_hello_done:ssl <- $r4
	.loc	12 3041 15                      @ ../../../ThirdParty/mbedTLS/library/ssl_cli.c:3041:15
	ldr	r0, [r4, #4]
	adds	r0, r0, #1
	str	r0, [r4, #4]
.Ltmp664:
	.loc	12 3044 14                      @ ../../../ThirdParty/mbedTLS/library/ssl_cli.c:3044:14
	ldr	r0, [r4]
	movs	r1, #172
	.loc	12 3044 20 is_stmt 0            @ ../../../ThirdParty/mbedTLS/library/ssl_cli.c:3044:20
	ldrh	r0, [r0, r1]
.Ltmp665:
	.loc	12 3044 9                       @ ../../../ThirdParty/mbedTLS/library/ssl_cli.c:3044:9
	lsls	r0, r0, #30
	bpl	.LBB5_7
.Ltmp666:
@ %bb.6:
	@DEBUG_VALUE: ssl_parse_server_hello_done:ssl <- $r4
	.loc	12 3045 9 is_stmt 1             @ ../../../ThirdParty/mbedTLS/library/ssl_cli.c:3045:9
	mov	r0, r4
	bl	mbedtls_ssl_recv_flight_completed
.Ltmp667:
.LBB5_7:
	@DEBUG_VALUE: ssl_parse_server_hello_done:ssl <- $r4
	.loc	12 3048 5                       @ ../../../ThirdParty/mbedTLS/library/ssl_cli.c:3048:5
	adr	r0, .LCPI5_7
	str	r0, [sp]
	adds	r5, #30
	movs	r1, #2
	ldr	r2, __arm_cp.5_1
	mov	r0, r4
	mov	r3, r5
	bl	mbedtls_debug_print_msg
	movs	r6, #0
	b	.LBB5_10
.Ltmp668:
.LBB5_8:
	@DEBUG_VALUE: ssl_parse_server_hello_done:ssl <- $r4
	.loc	12 3028 9                       @ ../../../ThirdParty/mbedTLS/library/ssl_cli.c:3028:9
	ldr	r0, __arm_cp.5_4
	str	r0, [sp]
	adds	r5, #10
	movs	r1, #1
	ldr	r2, __arm_cp.5_1
	mov	r0, r4
	mov	r3, r5
	bl	mbedtls_debug_print_msg
	ldr	r6, __arm_cp.5_5
	.loc	12 3029 9                       @ ../../../ThirdParty/mbedTLS/library/ssl_cli.c:3029:9
	b	.LBB5_10
.Ltmp669:
.LBB5_9:
	@DEBUG_VALUE: ssl_parse_server_hello_done:ssl <- $r4
	.loc	12 3035 9                       @ ../../../ThirdParty/mbedTLS/library/ssl_cli.c:3035:9
	ldr	r0, __arm_cp.5_4
	str	r0, [sp]
	adds	r5, #17
	movs	r1, #1
	ldr	r2, __arm_cp.5_1
	mov	r0, r4
	mov	r3, r5
	bl	mbedtls_debug_print_msg
	movs	r1, #2
	movs	r2, #50
	.loc	12 3036 9                       @ ../../../ThirdParty/mbedTLS/library/ssl_cli.c:3036:9
	mov	r0, r4
	bl	mbedtls_ssl_send_alert_message
	ldr	r6, __arm_cp.5_6
.Ltmp670:
.LBB5_10:
	@DEBUG_VALUE: ssl_parse_server_hello_done:ssl <- $r4
	.loc	12 3051 1                       @ ../../../ThirdParty/mbedTLS/library/ssl_cli.c:3051:1
	mov	r0, r6
	add	sp, #8
	pop	{r4, r5, r6, pc}
.Ltmp671:
	.p2align	2
@ %bb.11:
	.loc	12 0 1 is_stmt 0                @ ../../../ThirdParty/mbedTLS/library/ssl_cli.c:0:1
.LCPI5_0:
.L.str.127:
	.asciz	"=> parse server hello done\000"
__arm_cp.5_1:
	.long	.L.str
.Lcpi_end92:
	.size	__arm_cp.5_1, .Lcpi_end92-__arm_cp.5_1
__arm_cp.5_2:
	.long	3018                            @ 0xbca
.Lcpi_end93:
	.size	__arm_cp.5_2, .Lcpi_end93-__arm_cp.5_2
__arm_cp.5_3:
	.long	.L.str.40
.Lcpi_end94:
	.size	__arm_cp.5_3, .Lcpi_end94-__arm_cp.5_3
__arm_cp.5_4:
	.long	.L.str.128
.Lcpi_end95:
	.size	__arm_cp.5_4, .Lcpi_end95-__arm_cp.5_4
__arm_cp.5_5:
	.long	4294936832                      @ 0xffff8900
.Lcpi_end96:
	.size	__arm_cp.5_5, .Lcpi_end96-__arm_cp.5_5
__arm_cp.5_6:
	.long	4294935680                      @ 0xffff8480
.Lcpi_end97:
	.size	__arm_cp.5_6, .Lcpi_end97-__arm_cp.5_6
.LCPI5_7:
.L.str.129:
	.asciz	"<= parse server hello done\000"
.Lfunc_end5:
	.size	ssl_parse_server_hello_done, .Lfunc_end5-ssl_parse_server_hello_done
	.cfi_endproc
	.cantunwind
	.fnend
                                        @ -- End function
	.section	.text.ssl_write_client_key_exchange,"ax",%progbits
	.p2align	2                               @ -- Begin function ssl_write_client_key_exchange
	.type	ssl_write_client_key_exchange,%function
	.code	16                              @ @ssl_write_client_key_exchange
	.thumb_func
ssl_write_client_key_exchange:
.Lfunc_begin6:
	.loc	12 3054 0 is_stmt 1             @ ../../../ThirdParty/mbedTLS/library/ssl_cli.c:3054:0
	.fnstart
	.cfi_startproc
@ %bb.0:
	@DEBUG_VALUE: ssl_write_client_key_exchange:ssl <- $r0
	.save	{r4, r5, r6, r7, lr}
	push	{r4, r5, r6, r7, lr}
	.cfi_def_cfa_offset 20
	.cfi_offset lr, -4
	.cfi_offset r7, -8
	.cfi_offset r6, -12
	.cfi_offset r5, -16
	.cfi_offset r4, -20
	.pad	#28
	sub	sp, #28
	.cfi_def_cfa_offset 48
	mov	r4, r0
.Ltmp672:
	@DEBUG_VALUE: ssl_write_client_key_exchange:ssl <- $r4
	.loc	12 3060 14 prologue_end         @ ../../../ThirdParty/mbedTLS/library/ssl_cli.c:3060:14
	ldr	r0, [r0, #76]
	.loc	12 3060 35 is_stmt 0            @ ../../../ThirdParty/mbedTLS/library/ssl_cli.c:3060:35
	ldr	r7, [r0]
.Ltmp673:
	@DEBUG_VALUE: ssl_write_client_key_exchange:ciphersuite_info <- $r7
	.loc	12 3062 5 is_stmt 1             @ ../../../ThirdParty/mbedTLS/library/ssl_cli.c:3062:5
	adr	r0, .LCPI6_23
	str	r0, [sp]
	movs	r6, #2
	ldr	r2, .LCPI6_24
	ldr	r3, .LCPI6_25
	mov	r0, r4
	mov	r1, r6
	bl	mbedtls_debug_print_msg
	mov	r5, r4
	adds	r5, #196
.Ltmp674:
	.loc	12 3065 27                      @ ../../../ThirdParty/mbedTLS/library/ssl_cli.c:3065:27
	ldrb	r0, [r7, #10]
.Ltmp675:
	.loc	12 3065 9 is_stmt 0             @ ../../../ThirdParty/mbedTLS/library/ssl_cli.c:3065:9
	cmp	r0, #10
	bhi	.LBB6_9
.Ltmp676:
@ %bb.1:
	@DEBUG_VALUE: ssl_write_client_key_exchange:ciphersuite_info <- $r7
	@DEBUG_VALUE: ssl_write_client_key_exchange:ssl <- $r4
	.loc	12 0 9                          @ ../../../ThirdParty/mbedTLS/library/ssl_cli.c:0:9
	movs	r1, #1
	lsls	r1, r0
	movw	r2, #1560
	tst	r1, r2
	beq	.LBB6_4
.Ltmp677:
@ %bb.2:
	@DEBUG_VALUE: ssl_write_client_key_exchange:ciphersuite_info <- $r7
	@DEBUG_VALUE: ssl_write_client_key_exchange:ssl <- $r4
	@DEBUG_VALUE: ssl_write_client_key_exchange:header_len <- 4
	str	r6, [sp, #20]                   @ 4-byte Spill
.Ltmp678:
	.loc	12 3242 55 is_stmt 1            @ ../../../ThirdParty/mbedTLS/library/ssl_cli.c:3242:55
	ldr	r1, [r5]
	.loc	12 3240 55                      @ ../../../ThirdParty/mbedTLS/library/ssl_cli.c:3240:55
	ldr	r0, [r4, #60]
	.loc	12 3243 54                      @ ../../../ThirdParty/mbedTLS/library/ssl_cli.c:3243:54
	ldr	r2, [r4]
.Ltmp679:
	@DEBUG_VALUE: ssl_write_client_key_exchange:content_len <- [DW_OP_plus_uconst 24, DW_OP_deref] $sp
	.loc	12 3243 60 is_stmt 0            @ ../../../ThirdParty/mbedTLS/library/ssl_cli.c:3243:60
	ldr	r3, [r2, #24]
	.loc	12 3243 78                      @ ../../../ThirdParty/mbedTLS/library/ssl_cli.c:3243:78
	ldr	r2, [r2, #28]
	.loc	12 3240 23 is_stmt 1            @ ../../../ThirdParty/mbedTLS/library/ssl_cli.c:3240:23
	str	r3, [sp]
	str	r2, [sp, #4]
	.loc	12 3240 66 is_stmt 0            @ ../../../ThirdParty/mbedTLS/library/ssl_cli.c:3240:66
	adds	r0, #128
	.loc	12 3242 50 is_stmt 1            @ ../../../ThirdParty/mbedTLS/library/ssl_cli.c:3242:50
	adds	r2, r1, #4
	add	r1, sp, #24
	movw	r7, #1000
.Ltmp680:
	.loc	12 3240 23                      @ ../../../ThirdParty/mbedTLS/library/ssl_cli.c:3240:23
	movw	r3, #1000
	bl	mbedtls_ecdh_make_public
.Ltmp681:
	@DEBUG_VALUE: ssl_write_client_key_exchange:ret <- $r0
	.loc	12 3244 21                      @ ../../../ThirdParty/mbedTLS/library/ssl_cli.c:3244:21
	cbz	r0, .LBB6_7
.Ltmp682:
@ %bb.3:
	@DEBUG_VALUE: ssl_write_client_key_exchange:ssl <- $r4
	@DEBUG_VALUE: ssl_write_client_key_exchange:ret <- $r0
	@DEBUG_VALUE: ssl_write_client_key_exchange:content_len <- [DW_OP_plus_uconst 24, DW_OP_deref] $sp
	@DEBUG_VALUE: ssl_write_client_key_exchange:header_len <- 4
	.loc	12 0 0 is_stmt 0                @ ../../../ThirdParty/mbedTLS/library/ssl_cli.c:0:0
	mov	r6, r0
.Ltmp683:
	@DEBUG_VALUE: ssl_write_client_key_exchange:ret <- $r6
	.loc	12 3246 21 is_stmt 1            @ ../../../ThirdParty/mbedTLS/library/ssl_cli.c:3246:21
	str	r0, [sp, #4]
	ldr	r0, __arm_cp.6_3
	str	r0, [sp]
	ldr	r3, __arm_cp.6_2
	adds	r3, #184
	movs	r1, #1
	ldr	r2, __arm_cp.6_1
	mov	r0, r4
	bl	mbedtls_debug_print_ret
	.loc	12 3251 21                      @ ../../../ThirdParty/mbedTLS/library/ssl_cli.c:3251:21
	b	.LBB6_27
.Ltmp684:
.LBB6_4:
	@DEBUG_VALUE: ssl_write_client_key_exchange:ciphersuite_info <- $r7
	@DEBUG_VALUE: ssl_write_client_key_exchange:ssl <- $r4
	.loc	12 0 21 is_stmt 0               @ ../../../ThirdParty/mbedTLS/library/ssl_cli.c:0:21
	cmp	r0, #2
	bne	.LBB6_9
.Ltmp685:
@ %bb.5:
	@DEBUG_VALUE: ssl_write_client_key_exchange:ciphersuite_info <- $r7
	@DEBUG_VALUE: ssl_write_client_key_exchange:ssl <- $r4
	.loc	12 3072 14 is_stmt 1            @ ../../../ThirdParty/mbedTLS/library/ssl_cli.c:3072:14
	ldr	r0, [r5]
	.loc	12 3070 28                      @ ../../../ThirdParty/mbedTLS/library/ssl_cli.c:3070:28
	ldr	r1, [r4, #60]
	.loc	12 3070 47 is_stmt 0            @ ../../../ThirdParty/mbedTLS/library/ssl_cli.c:3070:47
	ldr	r1, [r1, #4]
.Ltmp686:
	@DEBUG_VALUE: ssl_write_client_key_exchange:content_len <- $r1
	.loc	12 3072 56 is_stmt 1            @ ../../../ThirdParty/mbedTLS/library/ssl_cli.c:3072:56
	lsrs	r2, r1, #8
	.loc	12 3072 25 is_stmt 0            @ ../../../ThirdParty/mbedTLS/library/ssl_cli.c:3072:25
	strb	r2, [r0, #4]
	.loc	12 3073 14 is_stmt 1            @ ../../../ThirdParty/mbedTLS/library/ssl_cli.c:3073:14
	ldr	r0, [r5]
	.loc	12 3073 25 is_stmt 0            @ ../../../ThirdParty/mbedTLS/library/ssl_cli.c:3073:25
	strb	r1, [r0, #5]
	.loc	12 3070 21 is_stmt 1            @ ../../../ThirdParty/mbedTLS/library/ssl_cli.c:3070:21
	str	r1, [sp, #24]
.Ltmp687:
	@DEBUG_VALUE: ssl_write_client_key_exchange:header_len <- 6
	.loc	12 0 21 is_stmt 0               @ ../../../ThirdParty/mbedTLS/library/ssl_cli.c:0:21
	mov	r7, r4
.Ltmp688:
	.loc	12 3076 46 is_stmt 1            @ ../../../ThirdParty/mbedTLS/library/ssl_cli.c:3076:46
	ldr	r4, [r4, #60]
.Ltmp689:
	@DEBUG_VALUE: ssl_write_client_key_exchange:ssl <- [DW_OP_LLVM_entry_value 1] $r0
	.loc	12 3077 89                      @ ../../../ThirdParty/mbedTLS/library/ssl_cli.c:3077:89
	mov	r0, r4
	adds	r0, #8
	.loc	12 3077 46 is_stmt 0            @ ../../../ThirdParty/mbedTLS/library/ssl_cli.c:3077:46
	bl	mbedtls_mpi_size
.Ltmp690:
	mov	r1, r0
	.loc	12 3078 46 is_stmt 1            @ ../../../ThirdParty/mbedTLS/library/ssl_cli.c:3078:46
	ldr	r2, [r5]
	.loc	12 3079 45                      @ ../../../ThirdParty/mbedTLS/library/ssl_cli.c:3079:45
	ldr	r0, [r7]
	.loc	12 3079 51 is_stmt 0            @ ../../../ThirdParty/mbedTLS/library/ssl_cli.c:3079:51
	ldr	r6, [r0, #24]
	.loc	12 3079 69                      @ ../../../ThirdParty/mbedTLS/library/ssl_cli.c:3079:69
	ldr	r0, [r0, #28]
	.loc	12 3078 67 is_stmt 1            @ ../../../ThirdParty/mbedTLS/library/ssl_cli.c:3078:67
	ldr	r3, [sp, #24]
.Ltmp691:
	@DEBUG_VALUE: ssl_write_client_key_exchange:content_len <- $r3
	.loc	12 3076 15                      @ ../../../ThirdParty/mbedTLS/library/ssl_cli.c:3076:15
	str	r6, [sp]
	str	r0, [sp, #4]
	.loc	12 3076 57 is_stmt 0            @ ../../../ThirdParty/mbedTLS/library/ssl_cli.c:3076:57
	adds	r0, r4, #4
	.loc	12 3078 41 is_stmt 1            @ ../../../ThirdParty/mbedTLS/library/ssl_cli.c:3078:41
	adds	r2, r2, #6
	.loc	12 3076 15                      @ ../../../ThirdParty/mbedTLS/library/ssl_cli.c:3076:15
	bl	mbedtls_dhm_make_public
.Ltmp692:
	@DEBUG_VALUE: ssl_write_client_key_exchange:ret <- $r0
	.loc	12 3080 13                      @ ../../../ThirdParty/mbedTLS/library/ssl_cli.c:3080:13
	cmp	r0, #0
	beq	.LBB6_14
.Ltmp693:
@ %bb.6:
	@DEBUG_VALUE: ssl_write_client_key_exchange:ret <- $r0
	@DEBUG_VALUE: ssl_write_client_key_exchange:ssl <- [DW_OP_LLVM_entry_value 1] $r0
	@DEBUG_VALUE: ssl_write_client_key_exchange:header_len <- 6
	.loc	12 0 0 is_stmt 0                @ ../../../ThirdParty/mbedTLS/library/ssl_cli.c:0:0
	mov	r6, r0
.Ltmp694:
	@DEBUG_VALUE: ssl_write_client_key_exchange:ret <- $r6
	.loc	12 3082 13 is_stmt 1            @ ../../../ThirdParty/mbedTLS/library/ssl_cli.c:3082:13
	str	r0, [sp, #4]
	ldr	r0, __arm_cp.6_6
	str	r0, [sp]
	ldr	r3, __arm_cp.6_2
	adds	r3, #20
	movs	r1, #1
	ldr	r2, __arm_cp.6_1
	mov	r0, r7
	bl	mbedtls_debug_print_ret
	.loc	12 3083 13                      @ ../../../ThirdParty/mbedTLS/library/ssl_cli.c:3083:13
	b	.LBB6_27
.Ltmp695:
.LBB6_7:
	@DEBUG_VALUE: ssl_write_client_key_exchange:ssl <- $r4
	@DEBUG_VALUE: ssl_write_client_key_exchange:ret <- $r0
	@DEBUG_VALUE: ssl_write_client_key_exchange:content_len <- [DW_OP_plus_uconst 24, DW_OP_deref] $sp
	@DEBUG_VALUE: ssl_write_client_key_exchange:header_len <- 4
	.loc	12 0 13 is_stmt 0               @ ../../../ThirdParty/mbedTLS/library/ssl_cli.c:0:13
	str	r5, [sp, #16]                   @ 4-byte Spill
.Ltmp696:
	.loc	12 3254 17 is_stmt 1            @ ../../../ThirdParty/mbedTLS/library/ssl_cli.c:3254:17
	ldr	r0, [r4, #60]
.Ltmp697:
	.loc	12 0 17 is_stmt 0               @ ../../../ThirdParty/mbedTLS/library/ssl_cli.c:0:17
	movs	r1, #0
	.loc	12 3254 17                      @ ../../../ThirdParty/mbedTLS/library/ssl_cli.c:3254:17
	adds	r0, #128
	str	r0, [sp]
	str	r1, [sp, #4]
	ldr	r5, __arm_cp.6_2
	mov	r3, r5
	adds	r3, #193
	movs	r1, #3
	ldr	r2, __arm_cp.6_1
	mov	r0, r4
	bl	mbedtls_debug_printf_ecdh
.Ltmp698:
	.loc	12 3268 61 is_stmt 1            @ ../../../ThirdParty/mbedTLS/library/ssl_cli.c:3268:61
	ldr	r0, [r4, #60]
	.loc	12 3272 60                      @ ../../../ThirdParty/mbedTLS/library/ssl_cli.c:3272:60
	ldr	r1, [r4]
	.loc	12 3272 66 is_stmt 0            @ ../../../ThirdParty/mbedTLS/library/ssl_cli.c:3272:66
	ldr	r2, [r1, #24]
	.loc	12 3272 84                      @ ../../../ThirdParty/mbedTLS/library/ssl_cli.c:3272:84
	ldr	r1, [r1, #28]
	.loc	12 3268 29 is_stmt 1            @ ../../../ThirdParty/mbedTLS/library/ssl_cli.c:3268:29
	str	r2, [sp]
	str	r1, [sp, #4]
	movw	r1, #1120
	.loc	12 3269 72                      @ ../../../ThirdParty/mbedTLS/library/ssl_cli.c:3269:72
	adds	r1, r0, r1
	ldr	r2, __arm_cp.6_4
	.loc	12 3270 55                      @ ../../../ThirdParty/mbedTLS/library/ssl_cli.c:3270:55
	adds	r2, r0, r2
	.loc	12 3268 29                      @ ../../../ThirdParty/mbedTLS/library/ssl_cli.c:3268:29
	adds	r7, #24
	.loc	12 3268 72 is_stmt 0            @ ../../../ThirdParty/mbedTLS/library/ssl_cli.c:3268:72
	adds	r0, #128
	.loc	12 3268 29                      @ ../../../ThirdParty/mbedTLS/library/ssl_cli.c:3268:29
	mov	r3, r7
	bl	mbedtls_ecdh_calc_secret
.Ltmp699:
	@DEBUG_VALUE: ssl_write_client_key_exchange:ret <- $r0
	.loc	12 3268 21                      @ ../../../ThirdParty/mbedTLS/library/ssl_cli.c:3268:21
	cbz	r0, .LBB6_13
.Ltmp700:
@ %bb.8:
	@DEBUG_VALUE: ssl_write_client_key_exchange:ssl <- $r4
	@DEBUG_VALUE: ssl_write_client_key_exchange:ret <- $r0
	@DEBUG_VALUE: ssl_write_client_key_exchange:content_len <- [DW_OP_plus_uconst 24, DW_OP_deref] $sp
	@DEBUG_VALUE: ssl_write_client_key_exchange:header_len <- 4
	.loc	12 0 0                          @ ../../../ThirdParty/mbedTLS/library/ssl_cli.c:0:0
	mov	r6, r0
.Ltmp701:
	@DEBUG_VALUE: ssl_write_client_key_exchange:ret <- $r6
	.loc	12 3274 21 is_stmt 1            @ ../../../ThirdParty/mbedTLS/library/ssl_cli.c:3274:21
	adr	r0, .LCPI6_5
	str	r0, [sp]
	str	r6, [sp, #4]
	adds	r5, #212
	movs	r1, #1
	ldr	r2, __arm_cp.6_1
	mov	r0, r4
	mov	r3, r5
	bl	mbedtls_debug_print_ret
