	.text
	.syntax unified
	.eabi_attribute	67, "2.09"	@ Tag_conformance
	.cpu	cortex-m23
	.eabi_attribute	6, 16	@ Tag_CPU_arch
	.eabi_attribute	7, 77	@ Tag_CPU_arch_profile
	.eabi_attribute	8, 0	@ Tag_ARM_ISA_use
	.eabi_attribute	9, 3	@ Tag_THUMB_ISA_use
	.eabi_attribute	34, 0	@ Tag_CPU_unaligned_access
	.eabi_attribute	17, 1	@ Tag_ABI_PCS_GOT_use
	.eabi_attribute	20, 2	@ Tag_ABI_FP_denormal
	.eabi_attribute	21, 0	@ Tag_ABI_FP_exceptions
	.eabi_attribute	23, 1	@ Tag_ABI_FP_number_model
	.eabi_attribute	24, 1	@ Tag_ABI_align_needed
	.eabi_attribute	25, 1	@ Tag_ABI_align_preserved
	.eabi_attribute	38, 1	@ Tag_ABI_FP_16bit_format
	.eabi_attribute	18, 2	@ Tag_ABI_PCS_wchar_t
	.eabi_attribute	26, 1	@ Tag_ABI_enum_size
	.eabi_attribute	14, 0	@ Tag_ABI_PCS_R9_use
	.file	"ssl_cache.c"
	.file	1 "C:\\Users\\shw26\\OneDrive\\Desktop\\2021\\2021-1\\\354\272\241\354\212\244\355\206\244\353\224\224\354\236\220\354\235\2702\\Nuvoton\\M2351_BSP_v3.00.004\\M2351Series_BSP_CMSIS_V3.00.004\\MyProject\\PulseMonitoring\\Secure" "../../../ThirdParty/mbedTLS/include/mbedtls/md.h"
	.file	2 "C:\\Users\\shw26\\OneDrive\\Desktop\\2021\\2021-1\\\354\272\241\354\212\244\355\206\244\353\224\224\354\236\220\354\235\2702\\Nuvoton\\M2351_BSP_v3.00.004\\M2351Series_BSP_CMSIS_V3.00.004\\MyProject\\PulseMonitoring\\Secure" "../../../ThirdParty/mbedTLS/include/mbedtls/ssl.h"
	.file	3 "C:\\" "Keil_v5\\ARM\\ARMCLANG\\Bin\\..\\include\\stdio.h"
	.file	4 "C:\\" "Keil_v5\\ARM\\ARMCLANG\\Bin\\..\\include\\stdint.h"
	.file	5 "C:\\Users\\shw26\\OneDrive\\Desktop\\2021\\2021-1\\\354\272\241\354\212\244\355\206\244\353\224\224\354\236\220\354\235\2702\\Nuvoton\\M2351_BSP_v3.00.004\\M2351Series_BSP_CMSIS_V3.00.004\\MyProject\\PulseMonitoring\\Secure" "../../../ThirdParty/mbedTLS/include/mbedtls\\ssl_cache.h"
	.section	.text.mbedtls_ssl_cache_init,"ax",%progbits
	.hidden	mbedtls_ssl_cache_init          @ -- Begin function mbedtls_ssl_cache_init
	.globl	mbedtls_ssl_cache_init
	.p2align	2
	.type	mbedtls_ssl_cache_init,%function
	.code	16                              @ @mbedtls_ssl_cache_init
	.thumb_func
mbedtls_ssl_cache_init:
.Lfunc_begin0:
	.file	6 "C:\\Users\\shw26\\OneDrive\\Desktop\\2021\\2021-1\\\354\272\241\354\212\244\355\206\244\353\224\224\354\236\220\354\235\2702\\Nuvoton\\M2351_BSP_v3.00.004\\M2351Series_BSP_CMSIS_V3.00.004\\MyProject\\PulseMonitoring\\Secure" "../../../ThirdParty/mbedTLS/library/ssl_cache.c"
	.loc	6 48 0                          @ ../../../ThirdParty/mbedTLS/library/ssl_cache.c:48:0
	.fnstart
	.cfi_sections .debug_frame
	.cfi_startproc
@ %bb.0:
	@DEBUG_VALUE: mbedtls_ssl_cache_init:cache <- $r0
	movs	r1, #0
	movs	r2, #50
	ldr	r3, __arm_cp.0_0
	@DEBUG_VALUE: mbedtls_ssl_cache_init:cache <- $r0
.Ltmp0:
	.loc	6 49 5 prologue_end             @ ../../../ThirdParty/mbedTLS/library/ssl_cache.c:49:5
	stm	r0!, {r1, r3}
.Ltmp1:
	@DEBUG_VALUE: mbedtls_ssl_cache_init:cache <- [DW_OP_LLVM_entry_value 1] $r0
	.loc	6 52 24                         @ ../../../ThirdParty/mbedTLS/library/ssl_cache.c:52:24
	str	r2, [r0]
	.loc	6 57 1                          @ ../../../ThirdParty/mbedTLS/library/ssl_cache.c:57:1
	bx	lr
.Ltmp2:
	.p2align	2
@ %bb.1:
	.loc	6 0 1 is_stmt 0                 @ ../../../ThirdParty/mbedTLS/library/ssl_cache.c:0:1
__arm_cp.0_0:
	.long	86400                           @ 0x15180
.Lcpi_end0:
	.size	__arm_cp.0_0, .Lcpi_end0-__arm_cp.0_0
.Lfunc_end0:
	.size	mbedtls_ssl_cache_init, .Lfunc_end0-mbedtls_ssl_cache_init
	.cfi_endproc
	.cantunwind
	.fnend
                                        @ -- End function
	.section	.text.mbedtls_ssl_cache_get,"ax",%progbits
	.hidden	mbedtls_ssl_cache_get           @ -- Begin function mbedtls_ssl_cache_get
	.globl	mbedtls_ssl_cache_get
	.p2align	1
	.type	mbedtls_ssl_cache_get,%function
	.code	16                              @ @mbedtls_ssl_cache_get
	.thumb_func
mbedtls_ssl_cache_get:
.Lfunc_begin1:
	.loc	6 60 0 is_stmt 1                @ ../../../ThirdParty/mbedTLS/library/ssl_cache.c:60:0
	.fnstart
	.cfi_startproc
@ %bb.0:
	@DEBUG_VALUE: mbedtls_ssl_cache_get:data <- $r0
	@DEBUG_VALUE: mbedtls_ssl_cache_get:session <- $r1
	@DEBUG_VALUE: mbedtls_ssl_cache_get:session <- $r1
	@DEBUG_VALUE: mbedtls_ssl_cache_get:data <- $r0
	.save	{r4, r5, r6, r7, lr}
	push	{r4, r5, r6, r7, lr}
	.cfi_def_cfa_offset 20
	.cfi_offset lr, -4
	.cfi_offset r7, -8
	.cfi_offset r6, -12
	.cfi_offset r5, -16
	.cfi_offset r4, -20
	.pad	#12
	sub	sp, #12
	.cfi_def_cfa_offset 32
.Ltmp3:
	@DEBUG_VALUE: mbedtls_ssl_cache_get:cache <- $r0
	@DEBUG_VALUE: mbedtls_ssl_cache_get:ret <- 1
	@DEBUG_VALUE: mbedtls_ssl_cache_get:cache <- $r0
	.loc	6 73 18 prologue_end            @ ../../../ThirdParty/mbedTLS/library/ssl_cache.c:73:18
	ldr	r7, [r0]
.Ltmp4:
	@DEBUG_VALUE: mbedtls_ssl_cache_get:entry <- 0
	@DEBUG_VALUE: mbedtls_ssl_cache_get:cur <- $r7
	.loc	6 76 5                          @ ../../../ThirdParty/mbedTLS/library/ssl_cache.c:76:5
	cbz	r7, .LBB1_8
.Ltmp5:
@ %bb.1:
	@DEBUG_VALUE: mbedtls_ssl_cache_get:cur <- $r7
	@DEBUG_VALUE: mbedtls_ssl_cache_get:session <- $r1
	@DEBUG_VALUE: mbedtls_ssl_cache_get:cache <- $r0
	@DEBUG_VALUE: mbedtls_ssl_cache_get:data <- $r0
	@DEBUG_VALUE: mbedtls_ssl_cache_get:entry <- 0
	@DEBUG_VALUE: mbedtls_ssl_cache_get:ret <- 1
	.loc	6 0 5 is_stmt 0                 @ ../../../ThirdParty/mbedTLS/library/ssl_cache.c:0:5
	mov	r3, r1
.Ltmp6:
	@DEBUG_VALUE: mbedtls_ssl_cache_get:session <- $r3
	mov	r0, r1
.Ltmp7:
	@DEBUG_VALUE: mbedtls_ssl_cache_get:data <- [DW_OP_LLVM_entry_value 1] $r0
	adds	r0, #12
	str	r0, [sp, #4]                    @ 4-byte Spill
.Ltmp8:
	ldr	r5, [r1]
	movs	r4, #132
	str	r1, [sp, #8]                    @ 4-byte Spill
	b	.LBB1_3
.Ltmp9:
.LBB1_2:                                @   in Loop: Header=BB1_3 Depth=1
	@DEBUG_VALUE: mbedtls_ssl_cache_get:cur <- $r7
	@DEBUG_VALUE: mbedtls_ssl_cache_get:entry <- $r6
	@DEBUG_VALUE: mbedtls_ssl_cache_get:data <- [DW_OP_LLVM_entry_value 1] $r0
	@DEBUG_VALUE: mbedtls_ssl_cache_get:ret <- 1
	@DEBUG_VALUE: mbedtls_ssl_cache_get:cur <- $r7
	.loc	6 76 5                          @ ../../../ThirdParty/mbedTLS/library/ssl_cache.c:76:5
	cbz	r7, .LBB1_8
.Ltmp10:
.LBB1_3:                                @ =>This Inner Loop Header: Depth=1
	@DEBUG_VALUE: mbedtls_ssl_cache_get:cur <- $r7
	@DEBUG_VALUE: mbedtls_ssl_cache_get:data <- [DW_OP_LLVM_entry_value 1] $r0
	@DEBUG_VALUE: mbedtls_ssl_cache_get:ret <- 1
	.loc	6 0 5                           @ ../../../ThirdParty/mbedTLS/library/ssl_cache.c:0:5
	mov	r6, r7
.Ltmp11:
	@DEBUG_VALUE: mbedtls_ssl_cache_get:entry <- $r6
	@DEBUG_VALUE: mbedtls_ssl_cache_get:cur <- $r6
	.loc	6 79 20 is_stmt 1               @ ../../../ThirdParty/mbedTLS/library/ssl_cache.c:79:20
	ldr	r7, [r7, r4]
.Ltmp12:
	@DEBUG_VALUE: mbedtls_ssl_cache_get:cur <- $r7
	.loc	6 87 52                         @ ../../../ThirdParty/mbedTLS/library/ssl_cache.c:87:52
	ldr	r0, [r6]
	.loc	6 87 64 is_stmt 0               @ ../../../ThirdParty/mbedTLS/library/ssl_cache.c:87:64
	cmp	r5, r0
	bne	.LBB1_2
.Ltmp13:
@ %bb.4:                                @   in Loop: Header=BB1_3 Depth=1
	@DEBUG_VALUE: mbedtls_ssl_cache_get:cur <- $r7
	@DEBUG_VALUE: mbedtls_ssl_cache_get:entry <- $r6
	@DEBUG_VALUE: mbedtls_ssl_cache_get:data <- [DW_OP_LLVM_entry_value 1] $r0
	@DEBUG_VALUE: mbedtls_ssl_cache_get:ret <- 1
	.loc	6 88 56 is_stmt 1               @ ../../../ThirdParty/mbedTLS/library/ssl_cache.c:88:56
	ldr	r0, [r6, #4]
	.loc	6 88 26 is_stmt 0               @ ../../../ThirdParty/mbedTLS/library/ssl_cache.c:88:26
	ldr	r1, [r3, #4]
	.loc	6 88 68                         @ ../../../ThirdParty/mbedTLS/library/ssl_cache.c:88:68
	cmp	r1, r0
	bne	.LBB1_2
.Ltmp14:
@ %bb.5:                                @   in Loop: Header=BB1_3 Depth=1
	@DEBUG_VALUE: mbedtls_ssl_cache_get:cur <- $r7
	@DEBUG_VALUE: mbedtls_ssl_cache_get:entry <- $r6
	@DEBUG_VALUE: mbedtls_ssl_cache_get:data <- [DW_OP_LLVM_entry_value 1] $r0
	@DEBUG_VALUE: mbedtls_ssl_cache_get:ret <- 1
	.loc	6 89 51 is_stmt 1               @ ../../../ThirdParty/mbedTLS/library/ssl_cache.c:89:51
	ldr	r2, [r6, #8]
	.loc	6 89 26 is_stmt 0               @ ../../../ThirdParty/mbedTLS/library/ssl_cache.c:89:26
	ldr	r0, [r3, #8]
.Ltmp15:
	.loc	6 87 13 is_stmt 1               @ ../../../ThirdParty/mbedTLS/library/ssl_cache.c:87:13
	cmp	r0, r2
	bne	.LBB1_2
.Ltmp16:
@ %bb.6:                                @   in Loop: Header=BB1_3 Depth=1
	@DEBUG_VALUE: mbedtls_ssl_cache_get:cur <- $r7
	@DEBUG_VALUE: mbedtls_ssl_cache_get:entry <- $r6
	@DEBUG_VALUE: mbedtls_ssl_cache_get:data <- [DW_OP_LLVM_entry_value 1] $r0
	@DEBUG_VALUE: mbedtls_ssl_cache_get:ret <- 1
	.loc	6 92 34                         @ ../../../ThirdParty/mbedTLS/library/ssl_cache.c:92:34
	mov	r1, r6
	adds	r1, #12
	.loc	6 92 13 is_stmt 0               @ ../../../ThirdParty/mbedTLS/library/ssl_cache.c:92:13
	ldr	r0, [sp, #4]                    @ 4-byte Reload
	bl	memcmp
	ldr	r3, [sp, #8]                    @ 4-byte Reload
.Ltmp17:
	.loc	6 92 13                         @ ../../../ThirdParty/mbedTLS/library/ssl_cache.c:92:13
	cmp	r0, #0
	bne	.LBB1_2
.Ltmp18:
@ %bb.7:
	@DEBUG_VALUE: mbedtls_ssl_cache_get:cur <- $r7
	@DEBUG_VALUE: mbedtls_ssl_cache_get:entry <- $r6
	@DEBUG_VALUE: mbedtls_ssl_cache_get:data <- [DW_OP_LLVM_entry_value 1] $r0
	@DEBUG_VALUE: mbedtls_ssl_cache_get:ret <- 1
	@DEBUG_VALUE: mbedtls_ssl_cache_get:cur <- $r6
	.loc	6 96 15 is_stmt 1               @ ../../../ThirdParty/mbedTLS/library/ssl_cache.c:96:15
	mov	r0, r3
	mov	r1, r6
	bl	mbedtls_ssl_session_copy
.Ltmp19:
	@DEBUG_VALUE: mbedtls_ssl_cache_get:ret <- $r0
	.loc	6 97 17                         @ ../../../ThirdParty/mbedTLS/library/ssl_cache.c:97:17
	subs	r1, r0, #1
	sbcs	r0, r1
.Ltmp20:
	.loc	6 97 13 is_stmt 0               @ ../../../ThirdParty/mbedTLS/library/ssl_cache.c:97:13
	add	sp, #12
	pop	{r4, r5, r6, r7, pc}
.Ltmp21:
.LBB1_8:
	@DEBUG_VALUE: mbedtls_ssl_cache_get:cur <- $r7
	@DEBUG_VALUE: mbedtls_ssl_cache_get:ret <- 1
	@DEBUG_VALUE: mbedtls_ssl_cache_get:ret <- 1
	@DEBUG_LABEL: mbedtls_ssl_cache_get:exit
	.loc	6 0 13                          @ ../../../ThirdParty/mbedTLS/library/ssl_cache.c:0:13
	movs	r0, #1
	.loc	6 143 5 is_stmt 1               @ ../../../ThirdParty/mbedTLS/library/ssl_cache.c:143:5
	add	sp, #12
	pop	{r4, r5, r6, r7, pc}
.Ltmp22:
.Lfunc_end1:
	.size	mbedtls_ssl_cache_get, .Lfunc_end1-mbedtls_ssl_cache_get
	.cfi_endproc
	.cantunwind
	.fnend
                                        @ -- End function
	.section	.text.mbedtls_ssl_cache_set,"ax",%progbits
	.hidden	mbedtls_ssl_cache_set           @ -- Begin function mbedtls_ssl_cache_set
	.globl	mbedtls_ssl_cache_set
	.p2align	1
	.type	mbedtls_ssl_cache_set,%function
	.code	16                              @ @mbedtls_ssl_cache_set
	.thumb_func
mbedtls_ssl_cache_set:
.Lfunc_begin2:
	.loc	6 147 0                         @ ../../../ThirdParty/mbedTLS/library/ssl_cache.c:147:0
	.fnstart
	.cfi_startproc
@ %bb.0:
	@DEBUG_VALUE: mbedtls_ssl_cache_set:data <- $r0
	@DEBUG_VALUE: mbedtls_ssl_cache_set:session <- $r1
	.save	{r4, r5, r6, r7, lr}
	push	{r4, r5, r6, r7, lr}
	.cfi_def_cfa_offset 20
	.cfi_offset lr, -4
	.cfi_offset r7, -8
	.cfi_offset r6, -12
	.cfi_offset r5, -16
	.cfi_offset r4, -20
	.pad	#20
	sub	sp, #20
	.cfi_def_cfa_offset 40
.Ltmp23:
	@DEBUG_VALUE: mbedtls_ssl_cache_set:cache <- $r0
	@DEBUG_VALUE: mbedtls_ssl_cache_set:cur <- undef
	str	r0, [sp, #4]                    @ 4-byte Spill
.Ltmp24:
	@DEBUG_VALUE: mbedtls_ssl_cache_set:prv <- 0
	@DEBUG_VALUE: mbedtls_ssl_cache_set:count <- 0
	@DEBUG_VALUE: mbedtls_ssl_cache_set:ret <- 1
	@DEBUG_VALUE: mbedtls_ssl_cache_set:cache <- [DW_OP_plus_uconst 4] [$sp+0]
	@DEBUG_VALUE: mbedtls_ssl_cache_set:session <- $r1
	@DEBUG_VALUE: mbedtls_ssl_cache_set:data <- [DW_OP_plus_uconst 4] [$sp+0]
	.loc	6 0 0 prologue_end              @ ../../../ThirdParty/mbedTLS/library/ssl_cache.c:0:0
	ldr	r6, [r0]
.Ltmp25:
	@DEBUG_VALUE: mbedtls_ssl_cache_set:cur <- $r6
	.loc	6 165 16                        @ ../../../ThirdParty/mbedTLS/library/ssl_cache.c:165:16
	rsbs	r5, r6, #0
	adcs	r5, r6
	.loc	6 165 5 is_stmt 0               @ ../../../ThirdParty/mbedTLS/library/ssl_cache.c:165:5
	str	r1, [sp, #8]                    @ 4-byte Spill
	cbz	r6, .LBB2_5
.Ltmp26:
@ %bb.1:
	@DEBUG_VALUE: mbedtls_ssl_cache_set:cur <- $r6
	@DEBUG_VALUE: mbedtls_ssl_cache_set:session <- $r1
	@DEBUG_VALUE: mbedtls_ssl_cache_set:data <- [DW_OP_plus_uconst 4] [$sp+0]
	@DEBUG_VALUE: mbedtls_ssl_cache_set:cache <- [DW_OP_plus_uconst 4] [$sp+0]
	@DEBUG_VALUE: mbedtls_ssl_cache_set:ret <- 1
	@DEBUG_VALUE: mbedtls_ssl_cache_set:count <- 0
	@DEBUG_VALUE: mbedtls_ssl_cache_set:prv <- 0
	.loc	6 0 5                           @ ../../../ThirdParty/mbedTLS/library/ssl_cache.c:0:5
	mov	r4, r1
.Ltmp27:
	@DEBUG_VALUE: mbedtls_ssl_cache_set:session <- $r4
	.loc	6 178 64 is_stmt 1              @ ../../../ThirdParty/mbedTLS/library/ssl_cache.c:178:64
	ldr	r2, [r6, #8]
	.loc	6 0 0 is_stmt 0                 @ ../../../ThirdParty/mbedTLS/library/ssl_cache.c:0:0
	mov	r0, r1
	adds	r0, #12
	@DEBUG_VALUE: mbedtls_ssl_cache_set:prv <- 0
.Ltmp28:
	@DEBUG_VALUE: mbedtls_ssl_cache_set:count <- 1
	.loc	6 178 34                        @ ../../../ThirdParty/mbedTLS/library/ssl_cache.c:178:34
	mov	r1, r6
	adds	r1, #12
	str	r0, [sp, #16]                   @ 4-byte Spill
	.loc	6 178 13                        @ ../../../ThirdParty/mbedTLS/library/ssl_cache.c:178:13
	bl	memcmp
	movs	r4, #1
.Ltmp29:
	@DEBUG_VALUE: mbedtls_ssl_cache_set:session <- [DW_OP_LLVM_entry_value 1] $r1
	.loc	6 178 13                        @ ../../../ThirdParty/mbedTLS/library/ssl_cache.c:178:13
	cbz	r0, .LBB2_13
.Ltmp30:
@ %bb.2:
	@DEBUG_VALUE: mbedtls_ssl_cache_set:cur <- $r6
	@DEBUG_VALUE: mbedtls_ssl_cache_set:data <- [DW_OP_plus_uconst 4] [$sp+0]
	@DEBUG_VALUE: mbedtls_ssl_cache_set:cache <- [DW_OP_plus_uconst 4] [$sp+0]
	@DEBUG_VALUE: mbedtls_ssl_cache_set:session <- [DW_OP_LLVM_entry_value 1] $r1
	@DEBUG_VALUE: mbedtls_ssl_cache_set:count <- 1
	@DEBUG_VALUE: mbedtls_ssl_cache_set:ret <- 1
	@DEBUG_VALUE: mbedtls_ssl_cache_set:prv <- 0
	.loc	6 0 13                          @ ../../../ThirdParty/mbedTLS/library/ssl_cache.c:0:13
	movs	r0, #132
	.loc	6 165 5 is_stmt 1               @ ../../../ThirdParty/mbedTLS/library/ssl_cache.c:165:5
	str	r0, [sp, #12]                   @ 4-byte Spill
.Ltmp31:
.LBB2_3:                                @ =>This Inner Loop Header: Depth=1
	@DEBUG_VALUE: mbedtls_ssl_cache_set:cur <- $r6
	@DEBUG_VALUE: mbedtls_ssl_cache_set:data <- [DW_OP_plus_uconst 4] [$sp+0]
	@DEBUG_VALUE: mbedtls_ssl_cache_set:cache <- [DW_OP_plus_uconst 4] [$sp+0]
	@DEBUG_VALUE: mbedtls_ssl_cache_set:session <- [DW_OP_LLVM_entry_value 1] $r1
	@DEBUG_VALUE: mbedtls_ssl_cache_set:ret <- 1
	.loc	6 0 5 is_stmt 0                 @ ../../../ThirdParty/mbedTLS/library/ssl_cache.c:0:5
	mov	r7, r6
.Ltmp32:
	@DEBUG_VALUE: mbedtls_ssl_cache_set:prv <- $r7
	@DEBUG_VALUE: mbedtls_ssl_cache_set:cur <- undef
	ldr	r0, [sp, #12]                   @ 4-byte Reload
	ldr	r6, [r6, r0]
.Ltmp33:
	@DEBUG_VALUE: mbedtls_ssl_cache_set:cur <- $r6
	@DEBUG_VALUE: mbedtls_ssl_cache_set:count <- $r4
	.loc	6 165 16                        @ ../../../ThirdParty/mbedTLS/library/ssl_cache.c:165:16
	rsbs	r5, r6, #0
	adcs	r5, r6
	.loc	6 165 5                         @ ../../../ThirdParty/mbedTLS/library/ssl_cache.c:165:5
	cbz	r6, .LBB2_6
.Ltmp34:
@ %bb.4:                                @   in Loop: Header=BB2_3 Depth=1
	@DEBUG_VALUE: mbedtls_ssl_cache_set:prv <- $r7
	@DEBUG_VALUE: mbedtls_ssl_cache_set:cur <- $r6
	@DEBUG_VALUE: mbedtls_ssl_cache_set:count <- $r4
	@DEBUG_VALUE: mbedtls_ssl_cache_set:data <- [DW_OP_plus_uconst 4] [$sp+0]
	@DEBUG_VALUE: mbedtls_ssl_cache_set:cache <- [DW_OP_plus_uconst 4] [$sp+0]
	@DEBUG_VALUE: mbedtls_ssl_cache_set:session <- [DW_OP_LLVM_entry_value 1] $r1
	@DEBUG_VALUE: mbedtls_ssl_cache_set:ret <- 1
	@DEBUG_VALUE: mbedtls_ssl_cache_set:count <- $r4
	@DEBUG_VALUE: mbedtls_ssl_cache_set:prv <- $r7
	.loc	6 178 64 is_stmt 1              @ ../../../ThirdParty/mbedTLS/library/ssl_cache.c:178:64
	ldr	r2, [r6, #8]
	.loc	6 178 34 is_stmt 0              @ ../../../ThirdParty/mbedTLS/library/ssl_cache.c:178:34
	mov	r1, r6
	adds	r1, #12
	.loc	6 178 13                        @ ../../../ThirdParty/mbedTLS/library/ssl_cache.c:178:13
	ldr	r0, [sp, #16]                   @ 4-byte Reload
	bl	memcmp
.Ltmp35:
	.loc	6 167 14 is_stmt 1              @ ../../../ThirdParty/mbedTLS/library/ssl_cache.c:167:14
	adds	r4, r4, #1
.Ltmp36:
	@DEBUG_VALUE: mbedtls_ssl_cache_set:count <- $r4
	.loc	6 178 13                        @ ../../../ThirdParty/mbedTLS/library/ssl_cache.c:178:13
	cmp	r0, #0
	bne	.LBB2_3
	b	.LBB2_6
.Ltmp37:
.LBB2_5:
	@DEBUG_VALUE: mbedtls_ssl_cache_set:cur <- $r6
	@DEBUG_VALUE: mbedtls_ssl_cache_set:session <- $r1
	@DEBUG_VALUE: mbedtls_ssl_cache_set:data <- [DW_OP_plus_uconst 4] [$sp+0]
	@DEBUG_VALUE: mbedtls_ssl_cache_set:cache <- [DW_OP_plus_uconst 4] [$sp+0]
	@DEBUG_VALUE: mbedtls_ssl_cache_set:ret <- 1
	@DEBUG_VALUE: mbedtls_ssl_cache_set:count <- 0
	@DEBUG_VALUE: mbedtls_ssl_cache_set:prv <- 0
	.loc	6 0 13 is_stmt 0                @ ../../../ThirdParty/mbedTLS/library/ssl_cache.c:0:13
	movs	r7, #0
	mov	r4, r7
.Ltmp38:
.LBB2_6:
	@DEBUG_VALUE: mbedtls_ssl_cache_set:cur <- $r6
	@DEBUG_VALUE: mbedtls_ssl_cache_set:data <- [DW_OP_plus_uconst 4] [$sp+0]
	@DEBUG_VALUE: mbedtls_ssl_cache_set:cache <- [DW_OP_plus_uconst 4] [$sp+0]
	@DEBUG_VALUE: mbedtls_ssl_cache_set:ret <- 1
	@DEBUG_VALUE: mbedtls_ssl_cache_set:count <- $r4
	@DEBUG_VALUE: mbedtls_ssl_cache_set:prv <- $r7
	.loc	6 193 9 is_stmt 1               @ ../../../ThirdParty/mbedTLS/library/ssl_cache.c:193:9
	cbz	r5, .LBB2_16
.Ltmp39:
.LBB2_7:
	@DEBUG_VALUE: mbedtls_ssl_cache_set:prv <- $r7
	@DEBUG_VALUE: mbedtls_ssl_cache_set:cur <- $r6
	@DEBUG_VALUE: mbedtls_ssl_cache_set:count <- $r4
	@DEBUG_VALUE: mbedtls_ssl_cache_set:data <- [DW_OP_plus_uconst 4] [$sp+0]
	@DEBUG_VALUE: mbedtls_ssl_cache_set:cache <- [DW_OP_plus_uconst 4] [$sp+0]
	@DEBUG_VALUE: mbedtls_ssl_cache_set:ret <- 1
	.loc	6 0 9 is_stmt 0                 @ ../../../ThirdParty/mbedTLS/library/ssl_cache.c:0:9
	ldr	r5, [sp, #4]                    @ 4-byte Reload
.Ltmp40:
	.loc	6 214 29 is_stmt 1              @ ../../../ThirdParty/mbedTLS/library/ssl_cache.c:214:29
	ldr	r0, [r5, #8]
.Ltmp41:
	.loc	6 214 13 is_stmt 0              @ ../../../ThirdParty/mbedTLS/library/ssl_cache.c:214:13
	cmp	r4, r0
	bge	.LBB2_11
.Ltmp42:
@ %bb.8:
	@DEBUG_VALUE: mbedtls_ssl_cache_set:prv <- $r7
	@DEBUG_VALUE: mbedtls_ssl_cache_set:cur <- $r6
	@DEBUG_VALUE: mbedtls_ssl_cache_set:count <- $r4
	@DEBUG_VALUE: mbedtls_ssl_cache_set:data <- [DW_OP_plus_uconst 4] [$sp+0]
	@DEBUG_VALUE: mbedtls_ssl_cache_set:cache <- [DW_OP_plus_uconst 4] [$sp+0]
	@DEBUG_VALUE: mbedtls_ssl_cache_set:ret <- 1
	.loc	6 0 13                          @ ../../../ThirdParty/mbedTLS/library/ssl_cache.c:0:13
	movs	r0, #1
	movs	r1, #136
.Ltmp43:
	.loc	6 233 19 is_stmt 1              @ ../../../ThirdParty/mbedTLS/library/ssl_cache.c:233:19
	bl	calloc
.Ltmp44:
	@DEBUG_VALUE: mbedtls_ssl_cache_set:cur <- $r0
	.loc	6 234 17                        @ ../../../ThirdParty/mbedTLS/library/ssl_cache.c:234:17
	cbz	r0, .LBB2_14
.Ltmp45:
@ %bb.9:
	@DEBUG_VALUE: mbedtls_ssl_cache_set:prv <- $r7
	@DEBUG_VALUE: mbedtls_ssl_cache_set:count <- $r4
	@DEBUG_VALUE: mbedtls_ssl_cache_set:cur <- $r0
	@DEBUG_VALUE: mbedtls_ssl_cache_set:data <- [DW_OP_plus_uconst 4] [$sp+0]
	@DEBUG_VALUE: mbedtls_ssl_cache_set:cache <- [DW_OP_plus_uconst 4] [$sp+0]
	@DEBUG_VALUE: mbedtls_ssl_cache_set:ret <- 1
	.loc	6 0 0 is_stmt 0                 @ ../../../ThirdParty/mbedTLS/library/ssl_cache.c:0:0
	mov	r6, r0
.Ltmp46:
	@DEBUG_VALUE: mbedtls_ssl_cache_set:cur <- $r6
	.loc	6 240 17 is_stmt 1              @ ../../../ThirdParty/mbedTLS/library/ssl_cache.c:240:17
	cbz	r7, .LBB2_15
.Ltmp47:
@ %bb.10:
	@DEBUG_VALUE: mbedtls_ssl_cache_set:prv <- $r7
	@DEBUG_VALUE: mbedtls_ssl_cache_set:cur <- $r6
	@DEBUG_VALUE: mbedtls_ssl_cache_set:count <- $r4
	@DEBUG_VALUE: mbedtls_ssl_cache_set:data <- [DW_OP_plus_uconst 4] [$sp+0]
	@DEBUG_VALUE: mbedtls_ssl_cache_set:cache <- [DW_OP_plus_uconst 4] [$sp+0]
	@DEBUG_VALUE: mbedtls_ssl_cache_set:ret <- 1
	.loc	6 0 17 is_stmt 0                @ ../../../ThirdParty/mbedTLS/library/ssl_cache.c:0:17
	movs	r0, #132
.Ltmp48:
	.loc	6 243 27 is_stmt 1              @ ../../../ThirdParty/mbedTLS/library/ssl_cache.c:243:27
	str	r6, [r7, r0]
	b	.LBB2_16
.Ltmp49:
.LBB2_11:
	@DEBUG_VALUE: mbedtls_ssl_cache_set:prv <- $r7
	@DEBUG_VALUE: mbedtls_ssl_cache_set:cur <- $r6
	@DEBUG_VALUE: mbedtls_ssl_cache_set:count <- $r4
	@DEBUG_VALUE: mbedtls_ssl_cache_set:data <- [DW_OP_plus_uconst 4] [$sp+0]
	@DEBUG_VALUE: mbedtls_ssl_cache_set:cache <- [DW_OP_plus_uconst 4] [$sp+0]
	@DEBUG_VALUE: mbedtls_ssl_cache_set:ret <- 1
	.loc	6 216 24                        @ ../../../ThirdParty/mbedTLS/library/ssl_cache.c:216:24
	ldr	r6, [r5]
.Ltmp50:
	.loc	6 216 17 is_stmt 0              @ ../../../ThirdParty/mbedTLS/library/ssl_cache.c:216:17
	cbz	r6, .LBB2_14
.Ltmp51:
@ %bb.12:
	@DEBUG_VALUE: mbedtls_ssl_cache_set:prv <- $r7
	@DEBUG_VALUE: mbedtls_ssl_cache_set:count <- $r4
	@DEBUG_VALUE: mbedtls_ssl_cache_set:data <- [DW_OP_plus_uconst 4] [$sp+0]
	@DEBUG_VALUE: mbedtls_ssl_cache_set:cache <- [DW_OP_plus_uconst 4] [$sp+0]
	@DEBUG_VALUE: mbedtls_ssl_cache_set:ret <- 1
	@DEBUG_VALUE: mbedtls_ssl_cache_set:cur <- $r6
	.loc	6 0 17                          @ ../../../ThirdParty/mbedTLS/library/ssl_cache.c:0:17
	movs	r0, #132
	.loc	6 223 33 is_stmt 1              @ ../../../ThirdParty/mbedTLS/library/ssl_cache.c:223:33
	ldr	r1, [r6, r0]
	movs	r2, #0
	.loc	6 224 23                        @ ../../../ThirdParty/mbedTLS/library/ssl_cache.c:224:23
	str	r2, [r6, r0]
	.loc	6 225 23                        @ ../../../ThirdParty/mbedTLS/library/ssl_cache.c:225:23
	str	r6, [r7, r0]
	.loc	6 223 26                        @ ../../../ThirdParty/mbedTLS/library/ssl_cache.c:223:26
	str	r1, [r5]
	.loc	6 226 9                         @ ../../../ThirdParty/mbedTLS/library/ssl_cache.c:226:9
	b	.LBB2_16
.Ltmp52:
.LBB2_13:
	@DEBUG_VALUE: mbedtls_ssl_cache_set:cur <- $r6
	@DEBUG_VALUE: mbedtls_ssl_cache_set:data <- [DW_OP_plus_uconst 4] [$sp+0]
	@DEBUG_VALUE: mbedtls_ssl_cache_set:cache <- [DW_OP_plus_uconst 4] [$sp+0]
	@DEBUG_VALUE: mbedtls_ssl_cache_set:session <- [DW_OP_LLVM_entry_value 1] $r1
	@DEBUG_VALUE: mbedtls_ssl_cache_set:count <- 1
	@DEBUG_VALUE: mbedtls_ssl_cache_set:ret <- 1
	@DEBUG_VALUE: mbedtls_ssl_cache_set:prv <- 0
	.loc	6 0 9 is_stmt 0                 @ ../../../ThirdParty/mbedTLS/library/ssl_cache.c:0:9
	movs	r7, #0
.Ltmp53:
	@DEBUG_VALUE: mbedtls_ssl_cache_set:count <- $r4
	@DEBUG_VALUE: mbedtls_ssl_cache_set:prv <- $r7
	.loc	6 193 9 is_stmt 1               @ ../../../ThirdParty/mbedTLS/library/ssl_cache.c:193:9
	cbz	r5, .LBB2_16
	b	.LBB2_7
.Ltmp54:
.LBB2_14:
	@DEBUG_VALUE: mbedtls_ssl_cache_set:prv <- $r7
	@DEBUG_VALUE: mbedtls_ssl_cache_set:count <- $r4
	@DEBUG_VALUE: mbedtls_ssl_cache_set:data <- [DW_OP_plus_uconst 4] [$sp+0]
	@DEBUG_VALUE: mbedtls_ssl_cache_set:cache <- [DW_OP_plus_uconst 4] [$sp+0]
	@DEBUG_VALUE: mbedtls_ssl_cache_set:ret <- 1
	@DEBUG_VALUE: mbedtls_ssl_cache_set:ret <- 1
	@DEBUG_LABEL: mbedtls_ssl_cache_set:exit
	.loc	6 0 9 is_stmt 0                 @ ../../../ThirdParty/mbedTLS/library/ssl_cache.c:0:9
	movs	r0, #1
	.loc	6 307 5 is_stmt 1               @ ../../../ThirdParty/mbedTLS/library/ssl_cache.c:307:5
	add	sp, #20
.Ltmp55:
	pop	{r4, r5, r6, r7, pc}
.Ltmp56:
.LBB2_15:
	@DEBUG_VALUE: mbedtls_ssl_cache_set:prv <- $r7
	@DEBUG_VALUE: mbedtls_ssl_cache_set:cur <- $r6
	@DEBUG_VALUE: mbedtls_ssl_cache_set:count <- $r4
	@DEBUG_VALUE: mbedtls_ssl_cache_set:data <- [DW_OP_plus_uconst 4] [$sp+0]
	@DEBUG_VALUE: mbedtls_ssl_cache_set:cache <- [DW_OP_plus_uconst 4] [$sp+0]
	@DEBUG_VALUE: mbedtls_ssl_cache_set:ret <- 1
	.loc	6 241 30                        @ ../../../ThirdParty/mbedTLS/library/ssl_cache.c:241:30
	str	r6, [r5]
.Ltmp57:
.LBB2_16:
	@DEBUG_VALUE: mbedtls_ssl_cache_set:prv <- $r7
	@DEBUG_VALUE: mbedtls_ssl_cache_set:cur <- $r6
	@DEBUG_VALUE: mbedtls_ssl_cache_set:count <- $r4
	@DEBUG_VALUE: mbedtls_ssl_cache_set:data <- [DW_OP_plus_uconst 4] [$sp+0]
	@DEBUG_VALUE: mbedtls_ssl_cache_set:cache <- [DW_OP_plus_uconst 4] [$sp+0]
	@DEBUG_VALUE: mbedtls_ssl_cache_set:ret <- 1
	@DEBUG_VALUE: mbedtls_ssl_cache_set:cur <- $r6
	.loc	6 268 11                        @ ../../../ThirdParty/mbedTLS/library/ssl_cache.c:268:11
	mov	r0, r6
	ldr	r1, [sp, #8]                    @ 4-byte Reload
	bl	mbedtls_ssl_session_copy
.Ltmp58:
	@DEBUG_VALUE: mbedtls_ssl_cache_set:ret <- $r0
	.loc	6 269 13                        @ ../../../ThirdParty/mbedTLS/library/ssl_cache.c:269:13
	subs	r1, r0, #1
	sbcs	r0, r1
.Ltmp59:
	.loc	6 269 9 is_stmt 0               @ ../../../ThirdParty/mbedTLS/library/ssl_cache.c:269:9
	add	sp, #20
.Ltmp60:
	pop	{r4, r5, r6, r7, pc}
.Ltmp61:
.Lfunc_end2:
	.size	mbedtls_ssl_cache_set, .Lfunc_end2-mbedtls_ssl_cache_set
	.cfi_endproc
	.cantunwind
	.fnend
                                        @ -- End function
	.section	.text.mbedtls_ssl_cache_set_max_entries,"ax",%progbits
	.hidden	mbedtls_ssl_cache_set_max_entries @ -- Begin function mbedtls_ssl_cache_set_max_entries
	.globl	mbedtls_ssl_cache_set_max_entries
	.p2align	1
	.type	mbedtls_ssl_cache_set_max_entries,%function
	.code	16                              @ @mbedtls_ssl_cache_set_max_entries
	.thumb_func
mbedtls_ssl_cache_set_max_entries:
.Lfunc_begin3:
	.loc	6 320 0 is_stmt 1               @ ../../../ThirdParty/mbedTLS/library/ssl_cache.c:320:0
	.fnstart
	.cfi_startproc
@ %bb.0:
	@DEBUG_VALUE: mbedtls_ssl_cache_set_max_entries:cache <- $r0
	@DEBUG_VALUE: mbedtls_ssl_cache_set_max_entries:cache <- $r0
	@DEBUG_VALUE: mbedtls_ssl_cache_set_max_entries:max <- $r1
	@DEBUG_VALUE: mbedtls_ssl_cache_set_max_entries:max <- $r1
	.loc	6 321 9 prologue_end            @ ../../../ThirdParty/mbedTLS/library/ssl_cache.c:321:9
	asrs	r2, r1, #31
	bics	r1, r2
.Ltmp62:
	@DEBUG_VALUE: mbedtls_ssl_cache_set_max_entries:max <- [DW_OP_LLVM_entry_value 1] $r1
	@DEBUG_VALUE: mbedtls_ssl_cache_set_max_entries:max <- $r1
	.loc	6 323 24                        @ ../../../ThirdParty/mbedTLS/library/ssl_cache.c:323:24
	str	r1, [r0, #8]
	.loc	6 324 1                         @ ../../../ThirdParty/mbedTLS/library/ssl_cache.c:324:1
	bx	lr
.Ltmp63:
.Lfunc_end3:
	.size	mbedtls_ssl_cache_set_max_entries, .Lfunc_end3-mbedtls_ssl_cache_set_max_entries
	.cfi_endproc
	.cantunwind
	.fnend
                                        @ -- End function
	.section	.text.mbedtls_ssl_cache_free,"ax",%progbits
	.hidden	mbedtls_ssl_cache_free          @ -- Begin function mbedtls_ssl_cache_free
	.globl	mbedtls_ssl_cache_free
	.p2align	1
	.type	mbedtls_ssl_cache_free,%function
	.code	16                              @ @mbedtls_ssl_cache_free
	.thumb_func
mbedtls_ssl_cache_free:
.Lfunc_begin4:
	.loc	6 327 0                         @ ../../../ThirdParty/mbedTLS/library/ssl_cache.c:327:0
	.fnstart
	.cfi_startproc
@ %bb.0:
	@DEBUG_VALUE: mbedtls_ssl_cache_free:cache <- $r0
	.save	{r4, r5, r6, r7, lr}
	push	{r4, r5, r6, r7, lr}
	.cfi_def_cfa_offset 20
	.cfi_offset lr, -4
	.cfi_offset r7, -8
	.cfi_offset r6, -12
	.cfi_offset r5, -16
	.cfi_offset r4, -20
	.pad	#4
	sub	sp, #4
	.cfi_def_cfa_offset 24
	mov	r4, r0
.Ltmp64:
	@DEBUG_VALUE: mbedtls_ssl_cache_free:cache <- $r4
	.loc	6 330 18 prologue_end           @ ../../../ThirdParty/mbedTLS/library/ssl_cache.c:330:18
	ldr	r5, [r0]
.Ltmp65:
	@DEBUG_VALUE: mbedtls_ssl_cache_free:cur <- $r5
	.loc	6 332 5                         @ ../../../ThirdParty/mbedTLS/library/ssl_cache.c:332:5
	cbz	r5, .LBB4_3
.Ltmp66:
@ %bb.1:
	@DEBUG_VALUE: mbedtls_ssl_cache_free:cur <- $r5
	@DEBUG_VALUE: mbedtls_ssl_cache_free:cache <- $r4
	.loc	6 0 5 is_stmt 0                 @ ../../../ThirdParty/mbedTLS/library/ssl_cache.c:0:5
	movs	r6, #132
.Ltmp67:
.LBB4_2:                                @ =>This Inner Loop Header: Depth=1
	@DEBUG_VALUE: mbedtls_ssl_cache_free:cur <- $r5
	@DEBUG_VALUE: mbedtls_ssl_cache_free:cache <- $r4
	@DEBUG_VALUE: mbedtls_ssl_cache_free:cur <- $r5
	@DEBUG_VALUE: mbedtls_ssl_cache_free:prv <- $r5
	.loc	6 335 20 is_stmt 1              @ ../../../ThirdParty/mbedTLS/library/ssl_cache.c:335:20
	ldr	r7, [r5, r6]
.Ltmp68:
	@DEBUG_VALUE: mbedtls_ssl_cache_free:cur <- $r7
	.loc	6 337 9                         @ ../../../ThirdParty/mbedTLS/library/ssl_cache.c:337:9
	mov	r0, r5
	bl	mbedtls_ssl_session_free
	.loc	6 344 9                         @ ../../../ThirdParty/mbedTLS/library/ssl_cache.c:344:9
	mov	r0, r5
	bl	free
.Ltmp69:
	.loc	6 332 5                         @ ../../../ThirdParty/mbedTLS/library/ssl_cache.c:332:5
	cmp	r7, #0
	mov	r5, r7
.Ltmp70:
	@DEBUG_VALUE: mbedtls_ssl_cache_free:cur <- $r5
	@DEBUG_VALUE: mbedtls_ssl_cache_free:cur <- $r5
	bne	.LBB4_2
.Ltmp71:
.LBB4_3:
	@DEBUG_VALUE: mbedtls_ssl_cache_free:cur <- $r5
	@DEBUG_VALUE: mbedtls_ssl_cache_free:cache <- $r4
	.loc	6 0 5 is_stmt 0                 @ ../../../ThirdParty/mbedTLS/library/ssl_cache.c:0:5
	movs	r0, #0
	.loc	6 350 18 is_stmt 1              @ ../../../ThirdParty/mbedTLS/library/ssl_cache.c:350:18
	str	r0, [r4]
	.loc	6 351 1                         @ ../../../ThirdParty/mbedTLS/library/ssl_cache.c:351:1
	add	sp, #4
	pop	{r4, r5, r6, r7, pc}
.Ltmp72:
.Lfunc_end4:
	.size	mbedtls_ssl_cache_free, .Lfunc_end4-mbedtls_ssl_cache_free
	.cfi_endproc
	.cantunwind
	.fnend
                                        @ -- End function
	.section	".note.GNU-stack","",%progbits
	.eabi_attribute	30, 1	@ Tag_ABI_optimization_goals
	.ARM_attribute	16, 1	@ Tag_AV_eba