	.text
	.syntax unified
	.eabi_attribute	67, "2.09"	@ Tag_conformance
	.cpu	cortex-m23
	.eabi_attribute	6, 16	@ Tag_CPU_arch
	.eabi_attribute	7, 77	@ Tag_CPU_arch_profile
	.eabi_attribute	8, 0	@ Tag_ARM_ISA_use
	.eabi_attribute	9, 3	@ Tag_THUMB_ISA_use
	.eabi_attribute	34, 0	@ Tag_CPU_unaligned_access
	.eabi_attribute	17, 1	@ Tag_ABI_PCS_GOT_use
	.eabi_attribute	20, 2	@ Tag_ABI_FP_denormal
	.eabi_attribute	21, 0	@ Tag_ABI_FP_exceptions
	.eabi_attribute	23, 1	@ Tag_ABI_FP_number_model
	.eabi_attribute	24, 1	@ Tag_ABI_align_needed
	.eabi_attribute	25, 1	@ Tag_ABI_align_preserved
	.eabi_attribute	38, 1	@ Tag_ABI_FP_16bit_format
	.eabi_attribute	18, 2	@ Tag_ABI_PCS_wchar_t
	.eabi_attribute	26, 1	@ Tag_ABI_enum_size
	.eabi_attribute	14, 0	@ Tag_ABI_PCS_R9_use
	.file	"ssl_ticket.c"
	.file	1 "C:\\Users\\shw26\\OneDrive\\Desktop\\2021\\2021-1\\\354\272\241\354\212\244\355\206\244\353\224\224\354\236\220\354\235\2702\\Nuvoton\\M2351_BSP_v3.00.004\\M2351Series_BSP_CMSIS_V3.00.004\\MyProject\\PulseMonitoring\\Secure" "../../../ThirdParty/mbedTLS/include/mbedtls/cipher.h"
	.file	2 "C:\\Users\\shw26\\OneDrive\\Desktop\\2021\\2021-1\\\354\272\241\354\212\244\355\206\244\353\224\224\354\236\220\354\235\2702\\Nuvoton\\M2351_BSP_v3.00.004\\M2351Series_BSP_CMSIS_V3.00.004\\MyProject\\PulseMonitoring\\Secure" "../../../ThirdParty/mbedTLS/include/mbedtls/md.h"
	.file	3 "C:\\" "Keil_v5\\ARM\\ARMCLANG\\Bin\\..\\include\\stdio.h"
	.section	.text.mbedtls_ssl_ticket_init,"ax",%progbits
	.hidden	mbedtls_ssl_ticket_init         @ -- Begin function mbedtls_ssl_ticket_init
	.globl	mbedtls_ssl_ticket_init
	.p2align	1
	.type	mbedtls_ssl_ticket_init,%function
	.code	16                              @ @mbedtls_ssl_ticket_init
	.thumb_func
mbedtls_ssl_ticket_init:
.Lfunc_begin0:
	.file	4 "C:\\Users\\shw26\\OneDrive\\Desktop\\2021\\2021-1\\\354\272\241\354\212\244\355\206\244\353\224\224\354\236\220\354\235\2702\\Nuvoton\\M2351_BSP_v3.00.004\\M2351Series_BSP_CMSIS_V3.00.004\\MyProject\\PulseMonitoring\\Secure" "../../../ThirdParty/mbedTLS/library/ssl_ticket.c"
	.loc	4 47 0                          @ ../../../ThirdParty/mbedTLS/library/ssl_ticket.c:47:0
	.fnstart
	.cfi_sections .debug_frame
	.cfi_startproc
@ %bb.0:
	@DEBUG_VALUE: mbedtls_ssl_ticket_init:ctx <- $r0
	@DEBUG_VALUE: mbedtls_ssl_ticket_init:ctx <- $r0
	.save	{r7, lr}
	push	{r7, lr}
	.cfi_def_cfa_offset 8
	.cfi_offset lr, -4
	.cfi_offset r7, -8
	movs	r1, #160
	@DEBUG_VALUE: mbedtls_ssl_ticket_init:ctx <- $r0
.Ltmp0:
	.loc	4 48 5 prologue_end             @ ../../../ThirdParty/mbedTLS/library/ssl_ticket.c:48:5
	bl	__aeabi_memclr4
.Ltmp1:
	@DEBUG_VALUE: mbedtls_ssl_ticket_init:ctx <- [DW_OP_LLVM_entry_value 1] $r0
	.loc	4 53 1                          @ ../../../ThirdParty/mbedTLS/library/ssl_ticket.c:53:1
	pop	{r7, pc}
.Ltmp2:
.Lfunc_end0:
	.size	mbedtls_ssl_ticket_init, .Lfunc_end0-mbedtls_ssl_ticket_init
	.cfi_endproc
	.cantunwind
	.fnend
                                        @ -- End function
	.section	.text.mbedtls_ssl_ticket_setup,"ax",%progbits
	.hidden	mbedtls_ssl_ticket_setup        @ -- Begin function mbedtls_ssl_ticket_setup
	.globl	mbedtls_ssl_ticket_setup
	.p2align	2
	.type	mbedtls_ssl_ticket_setup,%function
	.code	16                              @ @mbedtls_ssl_ticket_setup
	.thumb_func
mbedtls_ssl_ticket_setup:
.Lfunc_begin1:
	.loc	4 135 0                         @ ../../../ThirdParty/mbedTLS/library/ssl_ticket.c:135:0
	.fnstart
	.cfi_startproc
@ %bb.0:
	@DEBUG_VALUE: mbedtls_ssl_ticket_setup:ctx <- $r0
	@DEBUG_VALUE: mbedtls_ssl_ticket_setup:f_rng <- $r1
	@DEBUG_VALUE: mbedtls_ssl_ticket_setup:p_rng <- $r2
	@DEBUG_VALUE: mbedtls_ssl_ticket_setup:cipher <- $r3
	.save	{r4, r5, r7, lr}
	push	{r4, r5, r7, lr}
	.cfi_def_cfa_offset 16
	.cfi_offset lr, -4
	.cfi_offset r7, -8
	.cfi_offset r5, -12
	.cfi_offset r4, -16
	mov	r4, r0
	movs	r0, #148
.Ltmp3:
	@DEBUG_VALUE: mbedtls_ssl_ticket_setup:ctx <- [DW_OP_LLVM_entry_value 1] $r0
	ldr	r5, [sp, #16]
.Ltmp4:
	@DEBUG_VALUE: mbedtls_ssl_ticket_setup:lifetime <- [DW_OP_plus_uconst 16] [$sp+0]
	@DEBUG_VALUE: mbedtls_ssl_ticket_setup:cipher <- $r3
	@DEBUG_VALUE: mbedtls_ssl_ticket_setup:p_rng <- $r2
	@DEBUG_VALUE: mbedtls_ssl_ticket_setup:f_rng <- $r1
	@DEBUG_VALUE: mbedtls_ssl_ticket_setup:ctx <- $r4
	.loc	4 142 26 prologue_end           @ ../../../ThirdParty/mbedTLS/library/ssl_ticket.c:142:26
	str	r5, [r4, r0]
	.loc	4 0 0 is_stmt 0                 @ ../../../ThirdParty/mbedTLS/library/ssl_ticket.c:0:0
	mov	r0, r4
	adds	r0, #148
	.loc	4 139 16 is_stmt 1              @ ../../../ThirdParty/mbedTLS/library/ssl_ticket.c:139:16
	str	r1, [r0, #4]
	.loc	4 140 16                        @ ../../../ThirdParty/mbedTLS/library/ssl_ticket.c:140:16
	str	r2, [r0, #8]
	.loc	4 144 19                        @ ../../../ThirdParty/mbedTLS/library/ssl_ticket.c:144:19
	mov	r0, r3
.Ltmp5:
	@DEBUG_VALUE: mbedtls_ssl_ticket_setup:cipher <- $r0
	bl	mbedtls_cipher_info_from_type
.Ltmp6:
	@DEBUG_VALUE: mbedtls_ssl_ticket_setup:p_rng <- [DW_OP_LLVM_entry_value 1] $r2
	@DEBUG_VALUE: mbedtls_ssl_ticket_setup:f_rng <- [DW_OP_LLVM_entry_value 1] $r1
	mov	r5, r0
.Ltmp7:
	@DEBUG_VALUE: mbedtls_ssl_ticket_setup:cipher_info <- $r5
	.loc	4 0 19 is_stmt 0                @ ../../../ThirdParty/mbedTLS/library/ssl_ticket.c:0:19
	ldr	r0, __arm_cp.1_0
	.loc	4 145 9 is_stmt 1               @ ../../../ThirdParty/mbedTLS/library/ssl_ticket.c:145:9
	cbz	r5, .LBB1_5
.Ltmp8:
@ %bb.1:
	@DEBUG_VALUE: mbedtls_ssl_ticket_setup:cipher_info <- $r5
	@DEBUG_VALUE: mbedtls_ssl_ticket_setup:ctx <- $r4
	@DEBUG_VALUE: mbedtls_ssl_ticket_setup:lifetime <- [DW_OP_plus_uconst 16] [$sp+0]
	@DEBUG_VALUE: mbedtls_ssl_ticket_setup:p_rng <- [DW_OP_LLVM_entry_value 1] $r2
	@DEBUG_VALUE: mbedtls_ssl_ticket_setup:f_rng <- [DW_OP_LLVM_entry_value 1] $r1
	.loc	4 148 22                        @ ../../../ThirdParty/mbedTLS/library/ssl_ticket.c:148:22
	ldrb	r1, [r5, #1]
	.loc	4 148 47 is_stmt 0              @ ../../../ThirdParty/mbedTLS/library/ssl_ticket.c:148:47
	cmp	r1, #8
	beq	.LBB1_3
.Ltmp9:
@ %bb.2:
	@DEBUG_VALUE: mbedtls_ssl_ticket_setup:cipher_info <- $r5
	@DEBUG_VALUE: mbedtls_ssl_ticket_setup:ctx <- $r4
	@DEBUG_VALUE: mbedtls_ssl_ticket_setup:lifetime <- [DW_OP_plus_uconst 16] [$sp+0]
	@DEBUG_VALUE: mbedtls_ssl_ticket_setup:p_rng <- [DW_OP_LLVM_entry_value 1] $r2
	@DEBUG_VALUE: mbedtls_ssl_ticket_setup:f_rng <- [DW_OP_LLVM_entry_value 1] $r1
	cmp	r1, #6
	bne	.LBB1_5
.Ltmp10:
.LBB1_3:
	@DEBUG_VALUE: mbedtls_ssl_ticket_setup:cipher_info <- $r5
	@DEBUG_VALUE: mbedtls_ssl_ticket_setup:ctx <- $r4
	@DEBUG_VALUE: mbedtls_ssl_ticket_setup:lifetime <- [DW_OP_plus_uconst 16] [$sp+0]
	@DEBUG_VALUE: mbedtls_ssl_ticket_setup:p_rng <- [DW_OP_LLVM_entry_value 1] $r2
	@DEBUG_VALUE: mbedtls_ssl_ticket_setup:f_rng <- [DW_OP_LLVM_entry_value 1] $r1
	.loc	4 154 22 is_stmt 1              @ ../../../ThirdParty/mbedTLS/library/ssl_ticket.c:154:22
	ldr	r1, [r5, #4]
	movw	r2, #256
.Ltmp11:
	.loc	4 154 9 is_stmt 0               @ ../../../ThirdParty/mbedTLS/library/ssl_ticket.c:154:9
	cmp	r1, r2
	bhi	.LBB1_5
.Ltmp12:
@ %bb.4:
	@DEBUG_VALUE: mbedtls_ssl_ticket_setup:cipher_info <- $r5
	@DEBUG_VALUE: mbedtls_ssl_ticket_setup:ctx <- $r4
	@DEBUG_VALUE: mbedtls_ssl_ticket_setup:lifetime <- [DW_OP_plus_uconst 16] [$sp+0]
	@DEBUG_VALUE: mbedtls_ssl_ticket_setup:p_rng <- [DW_OP_LLVM_entry_value 1] $r2
	@DEBUG_VALUE: mbedtls_ssl_ticket_setup:f_rng <- [DW_OP_LLVM_entry_value 1] $r1
	.loc	4 166 57 is_stmt 1              @ ../../../ThirdParty/mbedTLS/library/ssl_ticket.c:166:57
	mov	r0, r4
	adds	r0, #8
	.loc	4 166 21 is_stmt 0              @ ../../../ThirdParty/mbedTLS/library/ssl_ticket.c:166:21
	mov	r1, r5
	bl	mbedtls_cipher_setup
.Ltmp13:
	@DEBUG_VALUE: mbedtls_ssl_ticket_setup:ret <- $r0
	.loc	4 166 13                        @ ../../../ThirdParty/mbedTLS/library/ssl_ticket.c:166:13
	cbz	r0, .LBB1_6
.Ltmp14:
.LBB1_5:
	@DEBUG_VALUE: mbedtls_ssl_ticket_setup:cipher_info <- $r5
	@DEBUG_VALUE: mbedtls_ssl_ticket_setup:ctx <- $r4
	@DEBUG_VALUE: mbedtls_ssl_ticket_setup:lifetime <- [DW_OP_plus_uconst 16] [$sp+0]
	@DEBUG_VALUE: mbedtls_ssl_ticket_setup:p_rng <- [DW_OP_LLVM_entry_value 1] $r2
	@DEBUG_VALUE: mbedtls_ssl_ticket_setup:f_rng <- [DW_OP_LLVM_entry_value 1] $r1
	.loc	4 0 0                           @ ../../../ThirdParty/mbedTLS/library/ssl_ticket.c:0:0
	pop	{r4, r5, r7, pc}
.Ltmp15:
.LBB1_6:
	@DEBUG_VALUE: mbedtls_ssl_ticket_setup:cipher_info <- $r5
	@DEBUG_VALUE: mbedtls_ssl_ticket_setup:ctx <- $r4
	@DEBUG_VALUE: mbedtls_ssl_ticket_setup:ret <- $r0
	@DEBUG_VALUE: mbedtls_ssl_ticket_setup:lifetime <- [DW_OP_plus_uconst 16] [$sp+0]
	@DEBUG_VALUE: mbedtls_ssl_ticket_setup:p_rng <- [DW_OP_LLVM_entry_value 1] $r2
	@DEBUG_VALUE: mbedtls_ssl_ticket_setup:f_rng <- [DW_OP_LLVM_entry_value 1] $r1
	.loc	4 176 57 is_stmt 1              @ ../../../ThirdParty/mbedTLS/library/ssl_ticket.c:176:57
	mov	r0, r4
.Ltmp16:
	adds	r0, #80
	.loc	4 176 21 is_stmt 0              @ ../../../ThirdParty/mbedTLS/library/ssl_ticket.c:176:21
	mov	r1, r5
	bl	mbedtls_cipher_setup
.Ltmp17:
	@DEBUG_VALUE: mbedtls_ssl_ticket_setup:ret <- $r0
	.loc	4 176 13                        @ ../../../ThirdParty/mbedTLS/library/ssl_ticket.c:176:13
	cmp	r0, #0
	bne	.LBB1_5
.Ltmp18:
@ %bb.7:
	@DEBUG_VALUE: mbedtls_ssl_ticket_setup:cipher_info <- $r5
	@DEBUG_VALUE: mbedtls_ssl_ticket_setup:ctx <- $r4
	@DEBUG_VALUE: mbedtls_ssl_ticket_setup:ret <- $r0
	@DEBUG_VALUE: mbedtls_ssl_ticket_setup:lifetime <- [DW_OP_plus_uconst 16] [$sp+0]
	@DEBUG_VALUE: mbedtls_ssl_ticket_setup:p_rng <- [DW_OP_LLVM_entry_value 1] $r2
	@DEBUG_VALUE: mbedtls_ssl_ticket_setup:f_rng <- [DW_OP_LLVM_entry_value 1] $r1
	.loc	4 0 13                          @ ../../../ThirdParty/mbedTLS/library/ssl_ticket.c:0:13
	movs	r1, #0
.Ltmp19:
	.loc	4 179 17 is_stmt 1              @ ../../../ThirdParty/mbedTLS/library/ssl_ticket.c:179:17
	mov	r0, r4
.Ltmp20:
	bl	ssl_ticket_gen_key
.Ltmp21:
	@DEBUG_VALUE: mbedtls_ssl_ticket_setup:ret <- $r0
	.loc	4 179 53 is_stmt 0              @ ../../../ThirdParty/mbedTLS/library/ssl_ticket.c:179:53
	cmp	r0, #0
	bne	.LBB1_5
.Ltmp22:
@ %bb.8:
	@DEBUG_VALUE: mbedtls_ssl_ticket_setup:cipher_info <- $r5
	@DEBUG_VALUE: mbedtls_ssl_ticket_setup:ctx <- $r4
	@DEBUG_VALUE: mbedtls_ssl_ticket_setup:ret <- $r0
	@DEBUG_VALUE: mbedtls_ssl_ticket_setup:lifetime <- [DW_OP_plus_uconst 16] [$sp+0]
	@DEBUG_VALUE: mbedtls_ssl_ticket_setup:p_rng <- [DW_OP_LLVM_entry_value 1] $r2
	@DEBUG_VALUE: mbedtls_ssl_ticket_setup:f_rng <- [DW_OP_LLVM_entry_value 1] $r1
	.loc	4 0 53                          @ ../../../ThirdParty/mbedTLS/library/ssl_ticket.c:0:53
	movs	r1, #1
	.loc	4 180 21 is_stmt 1              @ ../../../ThirdParty/mbedTLS/library/ssl_ticket.c:180:21
	mov	r0, r4
.Ltmp23:
	bl	ssl_ticket_gen_key
.Ltmp24:
	@DEBUG_VALUE: mbedtls_ssl_ticket_setup:ret <- $r0
	.loc	4 0 0 is_stmt 0                 @ ../../../ThirdParty/mbedTLS/library/ssl_ticket.c:0:0
	pop	{r4, r5, r7, pc}
.Ltmp25:
	.p2align	2
@ %bb.9:
__arm_cp.1_0:
	.long	4294938368                      @ 0xffff8f00
.Lcpi_end0:
	.size	__arm_cp.1_0, .Lcpi_end0-__arm_cp.1_0
.Lfunc_end1:
	.size	mbedtls_ssl_ticket_setup, .Lfunc_end1-mbedtls_ssl_ticket_setup
	.cfi_endproc
	.cantunwind
	.fnend
                                        @ -- End function
	.section	.text.ssl_ticket_gen_key,"ax",%progbits
	.p2align	1                               @ -- Begin function ssl_ticket_gen_key
	.type	ssl_ticket_gen_key,%function
	.code	16                              @ @ssl_ticket_gen_key
	.thumb_func
ssl_ticket_gen_key:
.Lfunc_begin2:
	.loc	4 75 0 is_stmt 1                @ ../../../ThirdParty/mbedTLS/library/ssl_ticket.c:75:0
	.fnstart
	.cfi_startproc
@ %bb.0:
	@DEBUG_VALUE: ssl_ticket_gen_key:ctx <- $r0
	@DEBUG_VALUE: ssl_ticket_gen_key:index <- $r1
	.save	{r4, r5, r6, lr}
	push	{r4, r5, r6, lr}
	.cfi_def_cfa_offset 16
	.cfi_offset lr, -4
	.cfi_offset r6, -8
	.cfi_offset r5, -12
	.cfi_offset r4, -16
	.pad	#32
	sub	sp, #32
	.cfi_def_cfa_offset 48
	mov	r5, r0
	movs	r0, #152
.Ltmp26:
	@DEBUG_VALUE: ssl_ticket_gen_key:ctx <- [DW_OP_LLVM_entry_value 1] $r0
	@DEBUG_VALUE: ssl_ticket_gen_key:key <- undef
	@DEBUG_VALUE: ssl_ticket_gen_key:index <- $r1
	@DEBUG_VALUE: ssl_ticket_gen_key:ctx <- $r5
	.loc	4 84 22 prologue_end            @ ../../../ThirdParty/mbedTLS/library/ssl_ticket.c:84:22
	ldr	r3, [r5, r0]
	movs	r0, #72
	.loc	4 84 41 is_stmt 0               @ ../../../ThirdParty/mbedTLS/library/ssl_ticket.c:84:41
	muls	r0, r1, r0
	adds	r4, r5, r0
	adds	r5, #152
.Ltmp27:
	.loc	4 84 34                         @ ../../../ThirdParty/mbedTLS/library/ssl_ticket.c:84:34
	ldr	r0, [r5, #4]
	movs	r2, #4
	.loc	4 84 17                         @ ../../../ThirdParty/mbedTLS/library/ssl_ticket.c:84:17
	mov	r1, r4
.Ltmp28:
	@DEBUG_VALUE: ssl_ticket_gen_key:index <- [DW_OP_LLVM_entry_value 1] $r1
	blx	r3
	mov	r6, r0
.Ltmp29:
	@DEBUG_VALUE: ssl_ticket_gen_key:ret <- $r6
	.loc	4 84 9                          @ ../../../ThirdParty/mbedTLS/library/ssl_ticket.c:84:9
	cbnz	r0, .LBB2_3
.Ltmp30:
@ %bb.1:
	@DEBUG_VALUE: ssl_ticket_gen_key:ret <- $r6
	@DEBUG_VALUE: ssl_ticket_gen_key:index <- [DW_OP_LLVM_entry_value 1] $r1
	.loc	4 87 22 is_stmt 1               @ ../../../ThirdParty/mbedTLS/library/ssl_ticket.c:87:22
	ldr	r3, [r5]
	.loc	4 87 34 is_stmt 0               @ ../../../ThirdParty/mbedTLS/library/ssl_ticket.c:87:34
	ldr	r0, [r5, #4]
	mov	r1, sp
	movs	r2, #32
	.loc	4 87 17                         @ ../../../ThirdParty/mbedTLS/library/ssl_ticket.c:87:17
	blx	r3
	mov	r6, r0
.Ltmp31:
	@DEBUG_VALUE: ssl_ticket_gen_key:ret <- $r6
	.loc	4 87 9                          @ ../../../ThirdParty/mbedTLS/library/ssl_ticket.c:87:9
	cbnz	r0, .LBB2_3
.Ltmp32:
@ %bb.2:
	@DEBUG_VALUE: ssl_ticket_gen_key:ret <- $r6
	@DEBUG_VALUE: ssl_ticket_gen_key:index <- [DW_OP_LLVM_entry_value 1] $r1
	.loc	4 91 40 is_stmt 1               @ ../../../ThirdParty/mbedTLS/library/ssl_ticket.c:91:40
	adds	r4, #8
	.loc	4 92 34                         @ ../../../ThirdParty/mbedTLS/library/ssl_ticket.c:92:34
	mov	r0, r4
	bl	mbedtls_cipher_get_key_bitlen
	mov	r2, r0
	mov	r5, sp
	movs	r3, #1
	.loc	4 91 11                         @ ../../../ThirdParty/mbedTLS/library/ssl_ticket.c:91:11
	mov	r0, r4
	mov	r1, r5
	bl	mbedtls_cipher_setkey
	mov	r6, r0
.Ltmp33:
	@DEBUG_VALUE: ssl_ticket_gen_key:ret <- $r6
	.loc	4 0 11 is_stmt 0                @ ../../../ThirdParty/mbedTLS/library/ssl_ticket.c:0:11
	movs	r1, #32
	.loc	4 95 5 is_stmt 1                @ ../../../ThirdParty/mbedTLS/library/ssl_ticket.c:95:5
	mov	r0, r5
	bl	mbedtls_platform_zeroize
.Ltmp34:
.LBB2_3:
	@DEBUG_VALUE: ssl_ticket_gen_key:ret <- $r6
	@DEBUG_VALUE: ssl_ticket_gen_key:index <- [DW_OP_LLVM_entry_value 1] $r1
	.loc	4 98 1                          @ ../../../ThirdParty/mbedTLS/library/ssl_ticket.c:98:1
	mov	r0, r6
	add	sp, #32
	pop	{r4, r5, r6, pc}
.Ltmp35:
.Lfunc_end2:
	.size	ssl_ticket_gen_key, .Lfunc_end2-ssl_ticket_gen_key
	.cfi_endproc
	.cantunwind
	.fnend
                                        @ -- End function
	.section	.text.mbedtls_ssl_ticket_write,"ax",%progbits
	.hidden	mbedtls_ssl_ticket_write        @ -- Begin function mbedtls_ssl_ticket_write
	.globl	mbedtls_ssl_ticket_write
	.p2align	2
	.type	mbedtls_ssl_ticket_write,%function
	.code	16                              @ @mbedtls_ssl_ticket_write
	.thumb_func
mbedtls_ssl_ticket_write:
.Lfunc_begin3:
	.loc	4 391 0                         @ ../../../ThirdParty/mbedTLS/library/ssl_ticket.c:391:0
	.fnstart
	.cfi_startproc
@ %bb.0:
	@DEBUG_VALUE: mbedtls_ssl_ticket_write:p_ticket <- $r0
	@DEBUG_VALUE: mbedtls_ssl_ticket_write:session <- $r1
	@DEBUG_VALUE: mbedtls_ssl_ticket_write:start <- $r2
	@DEBUG_VALUE: mbedtls_ssl_ticket_write:end <- $r3
	.save	{r4, r5, r6, r7, lr}
	push	{r4, r5, r6, r7, lr}
	.cfi_def_cfa_offset 20
	.cfi_offset lr, -4
	.cfi_offset r7, -8
	.cfi_offset r6, -12
	.cfi_offset r5, -16
	.cfi_offset r4, -20
	.pad	#52
	sub	sp, #52
	.cfi_def_cfa_offset 72
	mov	r6, r3
	mov	r5, r0
	ldr	r3, [sp, #72]
.Ltmp36:
	@DEBUG_VALUE: mbedtls_ssl_ticket_write:end <- [DW_OP_LLVM_entry_value 1] $r3
	movs	r7, #0
.Ltmp37:
	@DEBUG_VALUE: mbedtls_ssl_ticket_write:ticket_lifetime <- [DW_OP_plus_uconst 76] [$sp+0]
	@DEBUG_VALUE: mbedtls_ssl_ticket_write:tlen <- [DW_OP_plus_uconst 72] [$sp+0]
	@DEBUG_VALUE: mbedtls_ssl_ticket_write:end <- $r6
	@DEBUG_VALUE: mbedtls_ssl_ticket_write:start <- $r2
	@DEBUG_VALUE: mbedtls_ssl_ticket_write:session <- $r1
	@DEBUG_VALUE: mbedtls_ssl_ticket_write:p_ticket <- $r5
	.loc	4 402 11 prologue_end           @ ../../../ThirdParty/mbedTLS/library/ssl_ticket.c:402:11
	str	r7, [r3]
.Ltmp38:
	@DEBUG_VALUE: mbedtls_ssl_ticket_write:ctx <- $r5
	@DEBUG_VALUE: mbedtls_ssl_ticket_write:iv <- undef
	@DEBUG_VALUE: mbedtls_ssl_ticket_write:state <- undef
	@DEBUG_VALUE: mbedtls_ssl_ticket_write:state_len_bytes <- [DW_OP_plus_uconst 16, DW_OP_stack_value] $r2
	@DEBUG_VALUE: mbedtls_ssl_ticket_write:key_name <- $r2
	.loc	4 0 11 is_stmt 0                @ ../../../ThirdParty/mbedTLS/library/ssl_ticket.c:0:11
	ldr	r0, __arm_cp.3_0
.Ltmp39:
	.loc	4 404 21 is_stmt 1              @ ../../../ThirdParty/mbedTLS/library/ssl_ticket.c:404:21
	cbz	r5, .LBB3_5
.Ltmp40:
@ %bb.1:
	@DEBUG_VALUE: mbedtls_ssl_ticket_write:end <- $r6
	@DEBUG_VALUE: mbedtls_ssl_ticket_write:ctx <- $r5
	@DEBUG_VALUE: mbedtls_ssl_ticket_write:p_ticket <- $r5
	@DEBUG_VALUE: mbedtls_ssl_ticket_write:key_name <- $r2
	@DEBUG_VALUE: mbedtls_ssl_ticket_write:state_len_bytes <- [DW_OP_plus_uconst 16, DW_OP_stack_value] $r2
	@DEBUG_VALUE: mbedtls_ssl_ticket_write:start <- $r2
	@DEBUG_VALUE: mbedtls_ssl_ticket_write:session <- $r1
	@DEBUG_VALUE: mbedtls_ssl_ticket_write:tlen <- [DW_OP_plus_uconst 72] [$sp+0]
	@DEBUG_VALUE: mbedtls_ssl_ticket_write:ticket_lifetime <- [DW_OP_plus_uconst 76] [$sp+0]
	.loc	4 0 21 is_stmt 0                @ ../../../ThirdParty/mbedTLS/library/ssl_ticket.c:0:21
	mov	r4, r2
.Ltmp41:
	@DEBUG_VALUE: mbedtls_ssl_ticket_write:key_name <- $r4
	@DEBUG_VALUE: mbedtls_ssl_ticket_write:state_len_bytes <- [DW_OP_plus_uconst 16, DW_OP_stack_value] $r4
	@DEBUG_VALUE: mbedtls_ssl_ticket_write:start <- $r4
	@DEBUG_VALUE: mbedtls_ssl_ticket_write:state <- undef
	@DEBUG_VALUE: mbedtls_ssl_ticket_write:iv <- undef
	str	r1, [sp, #40]                   @ 4-byte Spill
.Ltmp42:
	@DEBUG_VALUE: mbedtls_ssl_ticket_write:session <- [DW_OP_plus_uconst 40] [$sp+0]
	mov	r1, r5
	adds	r1, #144
	.loc	4 404 29                        @ ../../../ThirdParty/mbedTLS/library/ssl_ticket.c:404:29
	ldr	r2, [r1, #8]
.Ltmp43:
	.loc	4 404 9                         @ ../../../ThirdParty/mbedTLS/library/ssl_ticket.c:404:9
	cbz	r2, .LBB3_5
.Ltmp44:
@ %bb.2:
	@DEBUG_VALUE: mbedtls_ssl_ticket_write:session <- [DW_OP_plus_uconst 40] [$sp+0]
	@DEBUG_VALUE: mbedtls_ssl_ticket_write:end <- $r6
	@DEBUG_VALUE: mbedtls_ssl_ticket_write:ctx <- $r5
	@DEBUG_VALUE: mbedtls_ssl_ticket_write:p_ticket <- $r5
	@DEBUG_VALUE: mbedtls_ssl_ticket_write:start <- $r4
	@DEBUG_VALUE: mbedtls_ssl_ticket_write:state_len_bytes <- [DW_OP_plus_uconst 16, DW_OP_stack_value] $r4
	@DEBUG_VALUE: mbedtls_ssl_ticket_write:key_name <- $r4
	@DEBUG_VALUE: mbedtls_ssl_ticket_write:tlen <- [DW_OP_plus_uconst 72] [$sp+0]
	@DEBUG_VALUE: mbedtls_ssl_ticket_write:ticket_lifetime <- [DW_OP_plus_uconst 76] [$sp+0]
	@DEBUG_VALUE: mbedtls_ssl_ticket_write:state <- undef
	@DEBUG_VALUE: mbedtls_ssl_ticket_write:iv <- undef
	.loc	4 409 13 is_stmt 1              @ ../../../ThirdParty/mbedTLS/library/ssl_ticket.c:409:13
	subs	r0, r6, r4
.Ltmp45:
	.loc	4 409 9 is_stmt 0               @ ../../../ThirdParty/mbedTLS/library/ssl_ticket.c:409:9
	cmp	r0, #34
	bge	.LBB3_4
.Ltmp46:
@ %bb.3:
	@DEBUG_VALUE: mbedtls_ssl_ticket_write:session <- [DW_OP_plus_uconst 40] [$sp+0]
	@DEBUG_VALUE: mbedtls_ssl_ticket_write:end <- $r6
	@DEBUG_VALUE: mbedtls_ssl_ticket_write:ctx <- $r5
	@DEBUG_VALUE: mbedtls_ssl_ticket_write:p_ticket <- $r5
	@DEBUG_VALUE: mbedtls_ssl_ticket_write:start <- $r4
	@DEBUG_VALUE: mbedtls_ssl_ticket_write:state_len_bytes <- [DW_OP_plus_uconst 16, DW_OP_stack_value] $r4
	@DEBUG_VALUE: mbedtls_ssl_ticket_write:key_name <- $r4
	@DEBUG_VALUE: mbedtls_ssl_ticket_write:tlen <- [DW_OP_plus_uconst 72] [$sp+0]
	@DEBUG_VALUE: mbedtls_ssl_ticket_write:ticket_lifetime <- [DW_OP_plus_uconst 76] [$sp+0]
	.loc	4 0 9                           @ ../../../ThirdParty/mbedTLS/library/ssl_ticket.c:0:9
	ldr	r0, __arm_cp.3_1
	.loc	4 465 1 is_stmt 1               @ ../../../ThirdParty/mbedTLS/library/ssl_ticket.c:465:1
	add	sp, #52
.Ltmp47:
	pop	{r4, r5, r6, r7, pc}
.Ltmp48:
.LBB3_4:
	@DEBUG_VALUE: mbedtls_ssl_ticket_write:session <- [DW_OP_plus_uconst 40] [$sp+0]
	@DEBUG_VALUE: mbedtls_ssl_ticket_write:end <- $r6
	@DEBUG_VALUE: mbedtls_ssl_ticket_write:ctx <- $r5
	@DEBUG_VALUE: mbedtls_ssl_ticket_write:p_ticket <- $r5
	@DEBUG_VALUE: mbedtls_ssl_ticket_write:start <- $r4
	@DEBUG_VALUE: mbedtls_ssl_ticket_write:state_len_bytes <- [DW_OP_plus_uconst 16, DW_OP_stack_value] $r4
	@DEBUG_VALUE: mbedtls_ssl_ticket_write:key_name <- $r4
	@DEBUG_VALUE: mbedtls_ssl_ticket_write:tlen <- [DW_OP_plus_uconst 72] [$sp+0]
	@DEBUG_VALUE: mbedtls_ssl_ticket_write:ticket_lifetime <- [DW_OP_plus_uconst 76] [$sp+0]
	@DEBUG_VALUE: mbedtls_ssl_ticket_write:state <- undef
	.loc	4 0 1 is_stmt 0                 @ ../../../ThirdParty/mbedTLS/library/ssl_ticket.c:0:1
	adds	r0, r4, #4
.Ltmp49:
	@DEBUG_VALUE: mbedtls_ssl_ticket_write:iv <- $r0
	str	r0, [sp, #36]                   @ 4-byte Spill
.Ltmp50:
	@DEBUG_VALUE: mbedtls_ssl_ticket_write:iv <- [DW_OP_plus_uconst 36] [$sp+0]
	@DEBUG_VALUE: mbedtls_ssl_ticket_write:iv <- [DW_OP_plus_uconst 36] [$sp+0]
	ldr	r0, [sp, #76]
.Ltmp51:
	@DEBUG_VALUE: mbedtls_ssl_ticket_write:key <- undef
	@DEBUG_VALUE: mbedtls_ssl_ticket_write:ret <- 0
	.loc	4 422 29 is_stmt 1              @ ../../../ThirdParty/mbedTLS/library/ssl_ticket.c:422:29
	ldr	r2, [r1, #4]
	.loc	4 422 22 is_stmt 0              @ ../../../ThirdParty/mbedTLS/library/ssl_ticket.c:422:22
	str	r2, [r0]
	.loc	4 420 27 is_stmt 1              @ ../../../ThirdParty/mbedTLS/library/ssl_ticket.c:420:27
	ldrb	r0, [r1]
	movs	r2, #72
	.loc	4 420 12 is_stmt 0              @ ../../../ThirdParty/mbedTLS/library/ssl_ticket.c:420:12
	muls	r2, r0, r2
	str	r2, [sp, #28]                   @ 4-byte Spill
	.loc	4 424 5 is_stmt 1               @ ../../../ThirdParty/mbedTLS/library/ssl_ticket.c:424:5
	ldr	r0, [r5, r2]
	strb	r0, [r4]
	lsrs	r2, r0, #24
	strb	r2, [r4, #3]
	lsrs	r2, r0, #16
	strb	r2, [r4, #2]
	lsrs	r0, r0, #8
	strb	r0, [r4, #1]
.Ltmp52:
	.loc	4 426 34                        @ ../../../ThirdParty/mbedTLS/library/ssl_ticket.c:426:34
	ldr	r0, [r1, #12]
	str	r3, [sp, #32]                   @ 4-byte Spill
	.loc	4 426 22 is_stmt 0              @ ../../../ThirdParty/mbedTLS/library/ssl_ticket.c:426:22
	ldr	r3, [r1, #8]
	movs	r2, #12
	@DEBUG_VALUE: mbedtls_ssl_ticket_write:iv <- [DW_OP_plus_uconst 36] [$sp+0]
.Ltmp53:
	@DEBUG_VALUE: mbedtls_ssl_ticket_write:iv <- undef
	.loc	4 426 17                        @ ../../../ThirdParty/mbedTLS/library/ssl_ticket.c:426:17
	ldr	r1, [sp, #36]                   @ 4-byte Reload
	blx	r3
.Ltmp54:
	@DEBUG_VALUE: mbedtls_ssl_ticket_write:ret <- $r0
	.loc	4 426 9                         @ ../../../ThirdParty/mbedTLS/library/ssl_ticket.c:426:9
	cbz	r0, .LBB3_6
.Ltmp55:
.LBB3_5:
	@DEBUG_VALUE: mbedtls_ssl_ticket_write:ctx <- $r5
	@DEBUG_VALUE: mbedtls_ssl_ticket_write:p_ticket <- $r5
	@DEBUG_VALUE: mbedtls_ssl_ticket_write:tlen <- [DW_OP_plus_uconst 72] [$sp+0]
	@DEBUG_VALUE: mbedtls_ssl_ticket_write:ticket_lifetime <- [DW_OP_plus_uconst 76] [$sp+0]
	.loc	4 465 1 is_stmt 1               @ ../../../ThirdParty/mbedTLS/library/ssl_ticket.c:465:1
	add	sp, #52
.Ltmp56:
	pop	{r4, r5, r6, r7, pc}
.Ltmp57:
.LBB3_6:
	@DEBUG_VALUE: mbedtls_ssl_ticket_write:session <- [DW_OP_plus_uconst 40] [$sp+0]
	@DEBUG_VALUE: mbedtls_ssl_ticket_write:end <- $r6
	@DEBUG_VALUE: mbedtls_ssl_ticket_write:ctx <- $r5
	@DEBUG_VALUE: mbedtls_ssl_ticket_write:p_ticket <- $r5
	@DEBUG_VALUE: mbedtls_ssl_ticket_write:start <- $r4
	@DEBUG_VALUE: mbedtls_ssl_ticket_write:state_len_bytes <- [DW_OP_plus_uconst 16, DW_OP_stack_value] $r4
	@DEBUG_VALUE: mbedtls_ssl_ticket_write:key_name <- $r4
	@DEBUG_VALUE: mbedtls_ssl_ticket_write:ret <- $r0
	@DEBUG_VALUE: mbedtls_ssl_ticket_write:tlen <- [DW_OP_plus_uconst 72] [$sp+0]
	@DEBUG_VALUE: mbedtls_ssl_ticket_write:ticket_lifetime <- [DW_OP_plus_uconst 76] [$sp+0]
	.loc	4 0 1 is_stmt 0                 @ ../../../ThirdParty/mbedTLS/library/ssl_ticket.c:0:1
	mov	r1, r4
	adds	r1, #18
.Ltmp58:
	@DEBUG_VALUE: mbedtls_ssl_ticket_write:state <- $r1
	.loc	4 431 46 is_stmt 1              @ ../../../ThirdParty/mbedTLS/library/ssl_ticket.c:431:46
	subs	r2, r6, r1
.Ltmp59:
	@DEBUG_VALUE: mbedtls_ssl_ticket_write:clear_len <- [DW_OP_plus_uconst 48, DW_OP_deref] $sp
	.loc	4 0 46 is_stmt 0                @ ../../../ThirdParty/mbedTLS/library/ssl_ticket.c:0:46
	add	r3, sp, #48
	.loc	4 430 17 is_stmt 1              @ ../../../ThirdParty/mbedTLS/library/ssl_ticket.c:430:17
	ldr	r0, [sp, #40]                   @ 4-byte Reload
.Ltmp60:
	@DEBUG_VALUE: mbedtls_ssl_ticket_write:session <- $r0
	.loc	4 0 17 is_stmt 0                @ ../../../ThirdParty/mbedTLS/library/ssl_ticket.c:0:17
	str	r1, [sp, #40]                   @ 4-byte Spill
.Ltmp61:
	@DEBUG_VALUE: mbedtls_ssl_ticket_write:state <- [DW_OP_plus_uconst 40] [$sp+0]
	.loc	4 430 17                        @ ../../../ThirdParty/mbedTLS/library/ssl_ticket.c:430:17
	bl	ssl_save_session
.Ltmp62:
	@DEBUG_VALUE: mbedtls_ssl_ticket_write:session <- [DW_OP_LLVM_entry_value 1] $r1
	@DEBUG_VALUE: mbedtls_ssl_ticket_write:clear_len <- undef
	@DEBUG_VALUE: mbedtls_ssl_ticket_write:ret <- $r0
	.loc	4 431 75 is_stmt 1              @ ../../../ThirdParty/mbedTLS/library/ssl_ticket.c:431:75
	cmp	r0, #0
	bne	.LBB3_5
.Ltmp63:
@ %bb.7:
	@DEBUG_VALUE: mbedtls_ssl_ticket_write:end <- $r6
	@DEBUG_VALUE: mbedtls_ssl_ticket_write:ctx <- $r5
	@DEBUG_VALUE: mbedtls_ssl_ticket_write:p_ticket <- $r5
	@DEBUG_VALUE: mbedtls_ssl_ticket_write:start <- $r4
	@DEBUG_VALUE: mbedtls_ssl_ticket_write:state_len_bytes <- [DW_OP_plus_uconst 16, DW_OP_stack_value] $r4
	@DEBUG_VALUE: mbedtls_ssl_ticket_write:key_name <- $r4
	@DEBUG_VALUE: mbedtls_ssl_ticket_write:ret <- $r0
	@DEBUG_VALUE: mbedtls_ssl_ticket_write:state <- [DW_OP_plus_uconst 40] [$sp+0]
	@DEBUG_VALUE: mbedtls_ssl_ticket_write:tlen <- [DW_OP_plus_uconst 72] [$sp+0]
	@DEBUG_VALUE: mbedtls_ssl_ticket_write:ticket_lifetime <- [DW_OP_plus_uconst 76] [$sp+0]
	@DEBUG_VALUE: mbedtls_ssl_ticket_write:session <- [DW_OP_LLVM_entry_value 1] $r1
	.loc	4 0 75 is_stmt 0                @ ../../../ThirdParty/mbedTLS/library/ssl_ticket.c:0:75
	ldr	r6, [sp, #48]
.Ltmp64:
	@DEBUG_VALUE: mbedtls_ssl_ticket_write:clear_len <- $r6
	.loc	4 431 75                        @ ../../../ThirdParty/mbedTLS/library/ssl_ticket.c:431:75
	lsrs	r1, r6, #16
	bne	.LBB3_5
.Ltmp65:
@ %bb.8:
	@DEBUG_VALUE: mbedtls_ssl_ticket_write:clear_len <- $r6
	@DEBUG_VALUE: mbedtls_ssl_ticket_write:ctx <- $r5
	@DEBUG_VALUE: mbedtls_ssl_ticket_write:p_ticket <- $r5
	@DEBUG_VALUE: mbedtls_ssl_ticket_write:start <- $r4
	@DEBUG_VALUE: mbedtls_ssl_ticket_write:state_len_bytes <- [DW_OP_plus_uconst 16, DW_OP_stack_value] $r4
	@DEBUG_VALUE: mbedtls_ssl_ticket_write:key_name <- $r4
	@DEBUG_VALUE: mbedtls_ssl_ticket_write:ret <- $r0
	@DEBUG_VALUE: mbedtls_ssl_ticket_write:state <- [DW_OP_plus_uconst 40] [$sp+0]
	@DEBUG_VALUE: mbedtls_ssl_ticket_write:tlen <- [DW_OP_plus_uconst 72] [$sp+0]
	@DEBUG_VALUE: mbedtls_ssl_ticket_write:ticket_lifetime <- [DW_OP_plus_uconst 76] [$sp+0]
	@DEBUG_VALUE: mbedtls_ssl_ticket_write:session <- [DW_OP_LLVM_entry_value 1] $r1
	@DEBUG_VALUE: mbedtls_ssl_ticket_write:clear_len <- $r6
	.loc	4 437 24 is_stmt 1              @ ../../../ThirdParty/mbedTLS/library/ssl_ticket.c:437:24
	strb	r6, [r4, #17]
	.loc	4 436 38                        @ ../../../ThirdParty/mbedTLS/library/ssl_ticket.c:436:38
	lsrs	r0, r6, #8
.Ltmp66:
	.loc	4 436 24 is_stmt 0              @ ../../../ThirdParty/mbedTLS/library/ssl_ticket.c:436:24
	strb	r0, [r4, #16]
.Ltmp67:
	@DEBUG_VALUE: mbedtls_ssl_ticket_write:ciph_len <- [DW_OP_plus_uconst 44, DW_OP_deref] $sp
	.loc	4 0 24                          @ ../../../ThirdParty/mbedTLS/library/ssl_ticket.c:0:24
	movs	r0, #16
.Ltmp68:
	.loc	4 441 17 is_stmt 1              @ ../../../ThirdParty/mbedTLS/library/ssl_ticket.c:441:17
	str	r0, [sp, #24]
	ldr	r1, [sp, #40]                   @ 4-byte Reload
.Ltmp69:
	.loc	4 440 17                        @ ../../../ThirdParty/mbedTLS/library/ssl_ticket.c:440:17
	adds	r0, r1, r6
.Ltmp70:
	@DEBUG_VALUE: mbedtls_ssl_ticket_write:tag <- $r0
	.loc	4 441 17                        @ ../../../ThirdParty/mbedTLS/library/ssl_ticket.c:441:17
	str	r0, [sp, #20]
	add	r0, sp, #44
.Ltmp71:
	str	r0, [sp, #16]
	str	r1, [sp, #12]
	str	r6, [sp, #8]
	str	r1, [sp, #4]
	movs	r0, #18
	str	r0, [sp]
	.loc	4 441 52 is_stmt 0              @ ../../../ThirdParty/mbedTLS/library/ssl_ticket.c:441:52
	ldr	r0, [sp, #28]                   @ 4-byte Reload
	adds	r0, r5, r0
	adds	r0, #8
	movs	r2, #12
	.loc	4 441 17                        @ ../../../ThirdParty/mbedTLS/library/ssl_ticket.c:441:17
	ldr	r1, [sp, #36]                   @ 4-byte Reload
	mov	r3, r4
	bl	mbedtls_cipher_auth_encrypt
	ldr	r1, [sp, #32]                   @ 4-byte Reload
.Ltmp72:
	@DEBUG_VALUE: mbedtls_ssl_ticket_write:ret <- $r0
	.loc	4 441 9                         @ ../../../ThirdParty/mbedTLS/library/ssl_ticket.c:441:9
	cmp	r0, #0
	bne	.LBB3_5
.Ltmp73:
@ %bb.9:
	@DEBUG_VALUE: mbedtls_ssl_ticket_write:clear_len <- $r6
	@DEBUG_VALUE: mbedtls_ssl_ticket_write:ctx <- $r5
	@DEBUG_VALUE: mbedtls_ssl_ticket_write:p_ticket <- $r5
	@DEBUG_VALUE: mbedtls_ssl_ticket_write:start <- $r4
	@DEBUG_VALUE: mbedtls_ssl_ticket_write:state_len_bytes <- [DW_OP_plus_uconst 16, DW_OP_stack_value] $r4
	@DEBUG_VALUE: mbedtls_ssl_ticket_write:key_name <- $r4
	@DEBUG_VALUE: mbedtls_ssl_ticket_write:ret <- $r0
	@DEBUG_VALUE: mbedtls_ssl_ticket_write:ciph_len <- [DW_OP_plus_uconst 44, DW_OP_deref] $sp
	@DEBUG_VALUE: mbedtls_ssl_ticket_write:state <- [DW_OP_plus_uconst 40] [$sp+0]
	@DEBUG_VALUE: mbedtls_ssl_ticket_write:tlen <- [DW_OP_plus_uconst 72] [$sp+0]
	@DEBUG_VALUE: mbedtls_ssl_ticket_write:ticket_lifetime <- [DW_OP_plus_uconst 76] [$sp+0]
	@DEBUG_VALUE: mbedtls_ssl_ticket_write:session <- [DW_OP_LLVM_entry_value 1] $r1
	.loc	4 450 9 is_stmt 1               @ ../../../ThirdParty/mbedTLS/library/ssl_ticket.c:450:9
	ldr	r0, [sp, #44]
.Ltmp74:
	@DEBUG_VALUE: mbedtls_ssl_ticket_write:ciph_len <- $r0
	@DEBUG_VALUE: mbedtls_ssl_ticket_write:clear_len <- $r6
	.loc	4 450 9 is_stmt 0               @ ../../../ThirdParty/mbedTLS/library/ssl_ticket.c:450:9
	cmp	r0, r6
	bne	.LBB3_11
.Ltmp75:
@ %bb.10:
	@DEBUG_VALUE: mbedtls_ssl_ticket_write:clear_len <- $r6
	@DEBUG_VALUE: mbedtls_ssl_ticket_write:ctx <- $r5
	@DEBUG_VALUE: mbedtls_ssl_ticket_write:p_ticket <- $r5
	@DEBUG_VALUE: mbedtls_ssl_ticket_write:start <- $r4
	@DEBUG_VALUE: mbedtls_ssl_ticket_write:state_len_bytes <- [DW_OP_plus_uconst 16, DW_OP_stack_value] $r4
	@DEBUG_VALUE: mbedtls_ssl_ticket_write:key_name <- $r4
	@DEBUG_VALUE: mbedtls_ssl_ticket_write:ciph_len <- $r0
	@DEBUG_VALUE: mbedtls_ssl_ticket_write:state <- [DW_OP_plus_uconst 40] [$sp+0]
	@DEBUG_VALUE: mbedtls_ssl_ticket_write:tlen <- [DW_OP_plus_uconst 72] [$sp+0]
	@DEBUG_VALUE: mbedtls_ssl_ticket_write:ticket_lifetime <- [DW_OP_plus_uconst 76] [$sp+0]
	@DEBUG_VALUE: mbedtls_ssl_ticket_write:session <- [DW_OP_LLVM_entry_value 1] $r1
	.loc	4 456 28 is_stmt 1              @ ../../../ThirdParty/mbedTLS/library/ssl_ticket.c:456:28
	adds	r0, #34
.Ltmp76:
	.loc	4 456 11 is_stmt 0              @ ../../../ThirdParty/mbedTLS/library/ssl_ticket.c:456:11
	str	r0, [r1]
	.loc	4 0 0                           @ ../../../ThirdParty/mbedTLS/library/ssl_ticket.c:0:0
	mov	r0, r7
	.loc	4 465 1 is_stmt 1               @ ../../../ThirdParty/mbedTLS/library/ssl_ticket.c:465:1
	add	sp, #52
.Ltmp77:
	pop	{r4, r5, r6, r7, pc}
.Ltmp78:
.LBB3_11:
	@DEBUG_VALUE: mbedtls_ssl_ticket_write:clear_len <- $r6
	@DEBUG_VALUE: mbedtls_ssl_ticket_write:ctx <- $r5
	@DEBUG_VALUE: mbedtls_ssl_ticket_write:p_ticket <- $r5
	@DEBUG_VALUE: mbedtls_ssl_ticket_write:start <- $r4
	@DEBUG_VALUE: mbedtls_ssl_ticket_write:state_len_bytes <- [DW_OP_plus_uconst 16, DW_OP_stack_value] $r4
	@DEBUG_VALUE: mbedtls_ssl_ticket_write:key_name <- $r4
	@DEBUG_VALUE: mbedtls_ssl_ticket_write:ciph_len <- $r0
	@DEBUG_VALUE: mbedtls_ssl_ticket_write:state <- [DW_OP_plus_uconst 40] [$sp+0]
	@DEBUG_VALUE: mbedtls_ssl_ticket_write:tlen <- [DW_OP_plus_uconst 72] [$sp+0]
	@DEBUG_VALUE: mbedtls_ssl_ticket_write:ticket_lifetime <- [DW_OP_plus_uconst 76] [$sp+0]
	@DEBUG_VALUE: mbedtls_ssl_ticket_write:session <- [DW_OP_LLVM_entry_value 1] $r1
	.loc	4 0 1 is_stmt 0                 @ ../../../ThirdParty/mbedTLS/library/ssl_ticket.c:0:1
	ldr	r0, __arm_cp.3_2
.Ltmp79:
	.loc	4 465 1                         @ ../../../ThirdParty/mbedTLS/library/ssl_ticket.c:465:1
	add	sp, #52
.Ltmp80:
	pop	{r4, r5, r6, r7, pc}
.Ltmp81:
	.p2align	2
@ %bb.12:
	.loc	4 0 1                           @ ../../../ThirdParty/mbedTLS/library/ssl_ticket.c:0:1
__arm_cp.3_0:
	.long	4294938368                      @ 0xffff8f00
.Lcpi_end1:
	.size	__arm_cp.3_0, .Lcpi_end1-__arm_cp.3_0
__arm_cp.3_1:
	.long	4294940160                      @ 0xffff9600
.Lcpi_end2:
	.size	__arm_cp.3_1, .Lcpi_end2-__arm_cp.3_1
__arm_cp.3_2:
	.long	4294939648                      @ 0xffff9400
.Lcpi_end3:
	.size	__arm_cp.3_2, .Lcpi_end3-__arm_cp.3_2
.Lfunc_end3:
	.size	mbedtls_ssl_ticket_write, .Lfunc_end3-mbedtls_ssl_ticket_write
	.cfi_endproc
	.cantunwind
	.fnend
                                        @ -- End function
	.section	.text.ssl_save_session,"ax",%progbits
	.p2align	2                               @ -- Begin function ssl_save_session
	.type	ssl_save_session,%function
	.code	16                              @ @ssl_save_session
	.thumb_func
ssl_save_session:
.Lfunc_begin4:
	.loc	4 204 0 is_stmt 1               @ ../../../ThirdParty/mbedTLS/library/ssl_ticket.c:204:0
	.fnstart
	.cfi_startproc
@ %bb.0:
	@DEBUG_VALUE: ssl_save_session:session <- $r0
	@DEBUG_VALUE: ssl_save_session:buf <- $r1
	@DEBUG_VALUE: ssl_save_session:buf_len <- $r2
	@DEBUG_VALUE: ssl_save_session:olen <- $r3
	.save	{r4, r5, r6, r7, lr}
	push	{r4, r5, r6, r7, lr}
	.cfi_def_cfa_offset 20
	.cfi_offset lr, -4
	.cfi_offset r7, -8
	.cfi_offset r6, -12
	.cfi_offset r5, -16
	.cfi_offset r4, -20
	.pad	#12
	sub	sp, #12
	.cfi_def_cfa_offset 32
.Ltmp82:
	@DEBUG_VALUE: ssl_save_session:p <- undef
	ldr	r7, __arm_cp.4_0
.Ltmp83:
	@DEBUG_VALUE: ssl_save_session:left <- $r2
	@DEBUG_VALUE: ssl_save_session:olen <- $r3
	@DEBUG_VALUE: ssl_save_session:buf_len <- $r2
	@DEBUG_VALUE: ssl_save_session:buf <- $r1
	@DEBUG_VALUE: ssl_save_session:session <- $r0
	.loc	4 215 9 prologue_end            @ ../../../ThirdParty/mbedTLS/library/ssl_ticket.c:215:9
	cmp	r2, #132
	blo	.LBB4_8
.Ltmp84:
@ %bb.1:
	@DEBUG_VALUE: ssl_save_session:olen <- $r3
	@DEBUG_VALUE: ssl_save_session:left <- $r2
	@DEBUG_VALUE: ssl_save_session:buf_len <- $r2
	@DEBUG_VALUE: ssl_save_session:buf <- $r1
	@DEBUG_VALUE: ssl_save_session:session <- $r0
	.loc	4 0 9 is_stmt 0                 @ ../../../ThirdParty/mbedTLS/library/ssl_ticket.c:0:9
	mov	r5, r2
.Ltmp85:
	@DEBUG_VALUE: ssl_save_session:buf_len <- $r5
	@DEBUG_VALUE: ssl_save_session:left <- $r5
	mov	r6, r0
.Ltmp86:
	@DEBUG_VALUE: ssl_save_session:session <- $r6
	str	r3, [sp, #4]                    @ 4-byte Spill
.Ltmp87:
	@DEBUG_VALUE: ssl_save_session:olen <- [DW_OP_plus_uconst 4] [$sp+0]
	movs	r2, #132
	str	r1, [sp, #8]                    @ 4-byte Spill
.Ltmp88:
	@DEBUG_VALUE: ssl_save_session:buf <- [DW_OP_plus_uconst 8] [$sp+0]
	.loc	4 221 5 is_stmt 1               @ ../../../ThirdParty/mbedTLS/library/ssl_ticket.c:221:5
	mov	r0, r1
	mov	r1, r6
	bl	__aeabi_memcpy
	.loc	4 223 10                        @ ../../../ThirdParty/mbedTLS/library/ssl_ticket.c:223:10
	subs	r5, #132
.Ltmp89:
	@DEBUG_VALUE: ssl_save_session:buf_len <- [DW_OP_LLVM_entry_value 1] $r2
	@DEBUG_VALUE: ssl_save_session:left <- $r5
	@DEBUG_VALUE: ssl_save_session:p <- undef
	.loc	4 246 18                        @ ../../../ThirdParty/mbedTLS/library/ssl_ticket.c:246:18
	ldr	r0, [r6, #92]
.Ltmp90:
	.loc	4 246 9 is_stmt 0               @ ../../../ThirdParty/mbedTLS/library/ssl_ticket.c:246:9
	cbz	r0, .LBB4_3
.Ltmp91:
@ %bb.2:
	@DEBUG_VALUE: ssl_save_session:buf <- [DW_OP_plus_uconst 8] [$sp+0]
	@DEBUG_VALUE: ssl_save_session:olen <- [DW_OP_plus_uconst 4] [$sp+0]
	@DEBUG_VALUE: ssl_save_session:session <- $r6
	@DEBUG_VALUE: ssl_save_session:left <- $r5
	@DEBUG_VALUE: ssl_save_session:buf_len <- [DW_OP_LLVM_entry_value 1] $r2
	.loc	4 0 9                           @ ../../../ThirdParty/mbedTLS/library/ssl_ticket.c:0:9
	movs	r4, #0
	b	.LBB4_4
.Ltmp92:
.LBB4_3:
	@DEBUG_VALUE: ssl_save_session:buf <- [DW_OP_plus_uconst 8] [$sp+0]
	@DEBUG_VALUE: ssl_save_session:olen <- [DW_OP_plus_uconst 4] [$sp+0]
	@DEBUG_VALUE: ssl_save_session:session <- $r6
	@DEBUG_VALUE: ssl_save_session:left <- $r5
	@DEBUG_VALUE: ssl_save_session:buf_len <- [DW_OP_LLVM_entry_value 1] $r2
	.loc	4 249 36 is_stmt 1              @ ../../../ThirdParty/mbedTLS/library/ssl_ticket.c:249:36
	ldr	r4, [r6, #96]
.Ltmp93:
	@DEBUG_VALUE: ssl_save_session:cert_digest_len <- $r4
.LBB4_4:
	@DEBUG_VALUE: ssl_save_session:buf <- [DW_OP_plus_uconst 8] [$sp+0]
	@DEBUG_VALUE: ssl_save_session:olen <- [DW_OP_plus_uconst 4] [$sp+0]
	@DEBUG_VALUE: ssl_save_session:session <- $r6
	@DEBUG_VALUE: ssl_save_session:left <- $r5
	@DEBUG_VALUE: ssl_save_session:buf_len <- [DW_OP_LLVM_entry_value 1] $r2
	@DEBUG_VALUE: ssl_save_session:p <- undef
	@DEBUG_VALUE: ssl_save_session:cert_digest_len <- $r4
	.loc	4 251 18                        @ ../../../ThirdParty/mbedTLS/library/ssl_ticket.c:251:18
	adds	r0, r4, #1
.Ltmp94:
	.loc	4 251 9 is_stmt 0               @ ../../../ThirdParty/mbedTLS/library/ssl_ticket.c:251:9
	cmp	r5, r0
	blo	.LBB4_8
.Ltmp95:
@ %bb.5:
	@DEBUG_VALUE: ssl_save_session:buf <- [DW_OP_plus_uconst 8] [$sp+0]
	@DEBUG_VALUE: ssl_save_session:olen <- [DW_OP_plus_uconst 4] [$sp+0]
	@DEBUG_VALUE: ssl_save_session:session <- $r6
	@DEBUG_VALUE: ssl_save_session:left <- $r5
	@DEBUG_VALUE: ssl_save_session:cert_digest_len <- $r4
	@DEBUG_VALUE: ssl_save_session:buf_len <- [DW_OP_LLVM_entry_value 1] $r2
	.loc	4 0 9                           @ ../../../ThirdParty/mbedTLS/library/ssl_ticket.c:0:9
	ldr	r5, [sp, #8]                    @ 4-byte Reload
.Ltmp96:
	@DEBUG_VALUE: ssl_save_session:buf <- $r5
	mov	r0, r5
	adds	r0, #132
.Ltmp97:
	@DEBUG_VALUE: ssl_save_session:p <- $r0
	.loc	4 254 10 is_stmt 1              @ ../../../ThirdParty/mbedTLS/library/ssl_ticket.c:254:10
	strb	r4, [r0]
	.loc	4 254 7 is_stmt 0               @ ../../../ThirdParty/mbedTLS/library/ssl_ticket.c:254:7
	adds	r5, #133
.Ltmp98:
	@DEBUG_VALUE: ssl_save_session:buf <- [DW_OP_LLVM_entry_value 1] $r1
	@DEBUG_VALUE: ssl_save_session:left <- [DW_OP_constu 1, DW_OP_minus, DW_OP_stack_value] undef
	@DEBUG_VALUE: ssl_save_session:p <- $r5
	.loc	4 257 18 is_stmt 1              @ ../../../ThirdParty/mbedTLS/library/ssl_ticket.c:257:18
	ldr	r1, [r6, #92]
.Ltmp99:
	.loc	4 257 9 is_stmt 0               @ ../../../ThirdParty/mbedTLS/library/ssl_ticket.c:257:9
	cbz	r1, .LBB4_7
.Ltmp100:
@ %bb.6:
	@DEBUG_VALUE: ssl_save_session:olen <- [DW_OP_plus_uconst 4] [$sp+0]
	@DEBUG_VALUE: ssl_save_session:session <- $r6
	@DEBUG_VALUE: ssl_save_session:p <- $r5
	@DEBUG_VALUE: ssl_save_session:cert_digest_len <- $r4
	@DEBUG_VALUE: ssl_save_session:buf <- [DW_OP_LLVM_entry_value 1] $r1
	@DEBUG_VALUE: ssl_save_session:buf_len <- [DW_OP_LLVM_entry_value 1] $r2
	.loc	4 258 9 is_stmt 1               @ ../../../ThirdParty/mbedTLS/library/ssl_ticket.c:258:9
	mov	r0, r5
	mov	r2, r4
	bl	__aeabi_memcpy
.Ltmp101:
.LBB4_7:
	@DEBUG_VALUE: ssl_save_session:olen <- [DW_OP_plus_uconst 4] [$sp+0]
	@DEBUG_VALUE: ssl_save_session:session <- $r6
	@DEBUG_VALUE: ssl_save_session:p <- $r5
	@DEBUG_VALUE: ssl_save_session:cert_digest_len <- $r4
	@DEBUG_VALUE: ssl_save_session:buf <- [DW_OP_LLVM_entry_value 1] $r1
	@DEBUG_VALUE: ssl_save_session:buf_len <- [DW_OP_LLVM_entry_value 1] $r2
	.loc	4 260 10                        @ ../../../ThirdParty/mbedTLS/library/ssl_ticket.c:260:10
	adds	r0, r5, r4
.Ltmp102:
	@DEBUG_VALUE: ssl_save_session:left <- undef
	@DEBUG_VALUE: ssl_save_session:p <- $r0
	.loc	4 265 15                        @ ../../../ThirdParty/mbedTLS/library/ssl_ticket.c:265:15
	ldr	r1, [sp, #8]                    @ 4-byte Reload
	subs	r0, r0, r1
.Ltmp103:
	.loc	4 265 11 is_stmt 0              @ ../../../ThirdParty/mbedTLS/library/ssl_ticket.c:265:11
	ldr	r1, [sp, #4]                    @ 4-byte Reload
.Ltmp104:
	@DEBUG_VALUE: ssl_save_session:olen <- $r1
	str	r0, [r1]
	movs	r7, #0
.Ltmp105:
.LBB4_8:
	.loc	4 268 1 is_stmt 1               @ ../../../ThirdParty/mbedTLS/library/ssl_ticket.c:268:1
	mov	r0, r7
	add	sp, #12
	pop	{r4, r5, r6, r7, pc}
.Ltmp106:
	.p2align	2
@ %bb.9:
	.loc	4 0 1 is_stmt 0                 @ ../../../ThirdParty/mbedTLS/library/ssl_ticket.c:0:1
__arm_cp.4_0:
	.long	4294940160                      @ 0xffff9600
.Lcpi_end4:
	.size	__arm_cp.4_0, .Lcpi_end4-__arm_cp.4_0
.Lfunc_end4:
	.size	ssl_save_session, .Lfunc_end4-ssl_save_session
	.cfi_endproc
	.cantunwind
	.fnend
                                        @ -- End function
	.section	.text.mbedtls_ssl_ticket_parse,"ax",%progbits
	.hidden	mbedtls_ssl_ticket_parse        @ -- Begin function mbedtls_ssl_ticket_parse
	.globl	mbedtls_ssl_ticket_parse
	.p2align	2
	.type	mbedtls_ssl_ticket_parse,%function
	.code	16                              @ @mbedtls_ssl_ticket_parse
	.thumb_func
mbedtls_ssl_ticket_parse:
.Lfunc_begin5:
	.loc	4 490 0 is_stmt 1               @ ../../../ThirdParty/mbedTLS/library/ssl_ticket.c:490:0
	.fnstart
	.cfi_startproc
@ %bb.0:
	@DEBUG_VALUE: mbedtls_ssl_ticket_parse:p_ticket <- $r0
	@DEBUG_VALUE: mbedtls_ssl_ticket_parse:session <- $r1
	@DEBUG_VALUE: mbedtls_ssl_ticket_parse:buf <- $r2
	@DEBUG_VALUE: mbedtls_ssl_ticket_parse:len <- $r3
	.save	{r4, r5, r6, r7, lr}
	push	{r4, r5, r6, r7, lr}
	.cfi_def_cfa_offset 20
	.cfi_offset lr, -4
	.cfi_offset r7, -8
	.cfi_offset r6, -12
	.cfi_offset r5, -16
	.cfi_offset r4, -20
	.pad	#36
	sub	sp, #36
	.cfi_def_cfa_offset 56
.Ltmp107:
	@DEBUG_VALUE: mbedtls_ssl_ticket_parse:iv <- undef
	@DEBUG_VALUE: mbedtls_ssl_ticket_parse:ticket <- undef
	ldr	r7, __arm_cp.5_0
.Ltmp108:
	@DEBUG_VALUE: mbedtls_ssl_ticket_parse:enc_len_p <- [DW_OP_plus_uconst 16, DW_OP_stack_value] $r2
	@DEBUG_VALUE: mbedtls_ssl_ticket_parse:key_name <- $r2
	@DEBUG_VALUE: mbedtls_ssl_ticket_parse:ctx <- $r0
	@DEBUG_VALUE: mbedtls_ssl_ticket_parse:len <- $r3
	@DEBUG_VALUE: mbedtls_ssl_ticket_parse:buf <- $r2
	@DEBUG_VALUE: mbedtls_ssl_ticket_parse:session <- $r1
	@DEBUG_VALUE: mbedtls_ssl_ticket_parse:p_ticket <- $r0
	.loc	4 501 21 prologue_end           @ ../../../ThirdParty/mbedTLS/library/ssl_ticket.c:501:21
	cbz	r0, .LBB5_8
.Ltmp109:
@ %bb.1:
	@DEBUG_VALUE: mbedtls_ssl_ticket_parse:len <- $r3
	@DEBUG_VALUE: mbedtls_ssl_ticket_parse:key_name <- $r2
	@DEBUG_VALUE: mbedtls_ssl_ticket_parse:enc_len_p <- [DW_OP_plus_uconst 16, DW_OP_stack_value] $r2
	@DEBUG_VALUE: mbedtls_ssl_ticket_parse:buf <- $r2
	@DEBUG_VALUE: mbedtls_ssl_ticket_parse:session <- $r1
	@DEBUG_VALUE: mbedtls_ssl_ticket_parse:ctx <- $r0
	@DEBUG_VALUE: mbedtls_ssl_ticket_parse:p_ticket <- $r0
	@DEBUG_VALUE: mbedtls_ssl_ticket_parse:buf <- $r2
	@DEBUG_VALUE: mbedtls_ssl_ticket_parse:key_name <- $r2
	@DEBUG_VALUE: mbedtls_ssl_ticket_parse:enc_len_p <- [DW_OP_plus_uconst 16, DW_OP_stack_value] $r2
	@DEBUG_VALUE: mbedtls_ssl_ticket_parse:session <- $r1
	@DEBUG_VALUE: mbedtls_ssl_ticket_parse:ticket <- undef
	@DEBUG_VALUE: mbedtls_ssl_ticket_parse:iv <- undef
	.loc	4 501 9 is_stmt 0               @ ../../../ThirdParty/mbedTLS/library/ssl_ticket.c:501:9
	cmp	r3, #34
	blo	.LBB5_8
.Ltmp110:
@ %bb.2:
	@DEBUG_VALUE: mbedtls_ssl_ticket_parse:len <- $r3
	@DEBUG_VALUE: mbedtls_ssl_ticket_parse:key_name <- $r2
	@DEBUG_VALUE: mbedtls_ssl_ticket_parse:enc_len_p <- [DW_OP_plus_uconst 16, DW_OP_stack_value] $r2
	@DEBUG_VALUE: mbedtls_ssl_ticket_parse:buf <- $r2
	@DEBUG_VALUE: mbedtls_ssl_ticket_parse:session <- $r1
	@DEBUG_VALUE: mbedtls_ssl_ticket_parse:ctx <- $r0
	@DEBUG_VALUE: mbedtls_ssl_ticket_parse:p_ticket <- $r0
	@DEBUG_VALUE: mbedtls_ssl_ticket_parse:enc_len_p <- [DW_OP_plus_uconst 16, DW_OP_stack_value] $r2
	@DEBUG_VALUE: mbedtls_ssl_ticket_parse:key_name <- $r2
	@DEBUG_VALUE: mbedtls_ssl_ticket_parse:buf <- $r2
	.loc	4 0 9                           @ ../../../ThirdParty/mbedTLS/library/ssl_ticket.c:0:9
	mov	r4, r1
.Ltmp111:
	@DEBUG_VALUE: mbedtls_ssl_ticket_parse:session <- $r4
	@DEBUG_VALUE: mbedtls_ssl_ticket_parse:ticket <- undef
	@DEBUG_VALUE: mbedtls_ssl_ticket_parse:iv <- undef
	movs	r1, #152
	ldr	r1, [r0, r1]
	.loc	4 501 9                         @ ../../../ThirdParty/mbedTLS/library/ssl_ticket.c:501:9
	cbz	r1, .LBB5_8
.Ltmp112:
@ %bb.3:
	@DEBUG_VALUE: mbedtls_ssl_ticket_parse:session <- $r4
	@DEBUG_VALUE: mbedtls_ssl_ticket_parse:len <- $r3
	@DEBUG_VALUE: mbedtls_ssl_ticket_parse:key_name <- $r2
	@DEBUG_VALUE: mbedtls_ssl_ticket_parse:enc_len_p <- [DW_OP_plus_uconst 16, DW_OP_stack_value] $r2
	@DEBUG_VALUE: mbedtls_ssl_ticket_parse:buf <- $r2
	@DEBUG_VALUE: mbedtls_ssl_ticket_parse:ctx <- $r0
	@DEBUG_VALUE: mbedtls_ssl_ticket_parse:p_ticket <- $r0
	.loc	4 0 9                           @ ../../../ThirdParty/mbedTLS/library/ssl_ticket.c:0:9
	mov	r5, r2
.Ltmp113:
	@DEBUG_VALUE: mbedtls_ssl_ticket_parse:buf <- $r5
	@DEBUG_VALUE: mbedtls_ssl_ticket_parse:key_name <- $r5
	@DEBUG_VALUE: mbedtls_ssl_ticket_parse:enc_len_p <- [DW_OP_plus_uconst 16, DW_OP_stack_value] $r5
	@DEBUG_VALUE: mbedtls_ssl_ticket_parse:ticket <- undef
	@DEBUG_VALUE: mbedtls_ssl_ticket_parse:iv <- undef
	@DEBUG_VALUE: mbedtls_ssl_ticket_parse:ret <- 0
	.loc	4 515 39 is_stmt 1              @ ../../../ThirdParty/mbedTLS/library/ssl_ticket.c:515:39
	ldrb	r1, [r2, #17]
	.loc	4 515 17 is_stmt 0              @ ../../../ThirdParty/mbedTLS/library/ssl_ticket.c:515:17
	ldrb	r2, [r2, #16]
	.loc	4 515 30                        @ ../../../ThirdParty/mbedTLS/library/ssl_ticket.c:515:30
	lsls	r2, r2, #8
	.loc	4 515 37                        @ ../../../ThirdParty/mbedTLS/library/ssl_ticket.c:515:37
	adds	r6, r2, r1
.Ltmp114:
	@DEBUG_VALUE: mbedtls_ssl_ticket_parse:tag <- undef
	@DEBUG_VALUE: mbedtls_ssl_ticket_parse:enc_len <- $r6
	.loc	4 518 31 is_stmt 1              @ ../../../ThirdParty/mbedTLS/library/ssl_ticket.c:518:31
	mov	r1, r6
	adds	r1, #34
.Ltmp115:
	.loc	4 518 9 is_stmt 0               @ ../../../ThirdParty/mbedTLS/library/ssl_ticket.c:518:9
	cmp	r1, r3
	bne	.LBB5_8
.Ltmp116:
@ %bb.4:
	@DEBUG_VALUE: mbedtls_ssl_ticket_parse:enc_len <- $r6
	@DEBUG_VALUE: mbedtls_ssl_ticket_parse:enc_len_p <- [DW_OP_plus_uconst 16, DW_OP_stack_value] $r5
	@DEBUG_VALUE: mbedtls_ssl_ticket_parse:key_name <- $r5
	@DEBUG_VALUE: mbedtls_ssl_ticket_parse:buf <- $r5
	@DEBUG_VALUE: mbedtls_ssl_ticket_parse:session <- $r4
	@DEBUG_VALUE: mbedtls_ssl_ticket_parse:len <- $r3
	@DEBUG_VALUE: mbedtls_ssl_ticket_parse:ctx <- $r0
	@DEBUG_VALUE: mbedtls_ssl_ticket_parse:p_ticket <- $r0
	@DEBUG_VALUE: mbedtls_ssl_ticket_parse:ret <- 0
	@DEBUG_VALUE: mbedtls_ssl_ticket_parse:ticket <- undef
	@DEBUG_VALUE: mbedtls_ssl_ticket_parse:iv <- undef
	@DEBUG_VALUE: mbedtls_ssl_ticket_parse:tag <- undef
	.loc	4 525 17 is_stmt 1              @ ../../../ThirdParty/mbedTLS/library/ssl_ticket.c:525:17
	mov	r1, r5
	bl	ssl_ticket_select_key
.Ltmp117:
	@DEBUG_VALUE: mbedtls_ssl_ticket_parse:len <- [DW_OP_LLVM_entry_value 1] $r3
	@DEBUG_VALUE: mbedtls_ssl_ticket_parse:p_ticket <- [DW_OP_LLVM_entry_value 1] $r0
	@DEBUG_VALUE: mbedtls_ssl_ticket_parse:key <- $r0
	.loc	4 525 9 is_stmt 0               @ ../../../ThirdParty/mbedTLS/library/ssl_ticket.c:525:9
	cbz	r0, .LBB5_9
.Ltmp118:
@ %bb.5:
	@DEBUG_VALUE: mbedtls_ssl_ticket_parse:enc_len <- $r6
	@DEBUG_VALUE: mbedtls_ssl_ticket_parse:enc_len_p <- [DW_OP_plus_uconst 16, DW_OP_stack_value] $r5
	@DEBUG_VALUE: mbedtls_ssl_ticket_parse:key_name <- $r5
	@DEBUG_VALUE: mbedtls_ssl_ticket_parse:buf <- $r5
	@DEBUG_VALUE: mbedtls_ssl_ticket_parse:session <- $r4
	@DEBUG_VALUE: mbedtls_ssl_ticket_parse:key <- $r0
	@DEBUG_VALUE: mbedtls_ssl_ticket_parse:len <- [DW_OP_LLVM_entry_value 1] $r3
	@DEBUG_VALUE: mbedtls_ssl_ticket_parse:p_ticket <- [DW_OP_LLVM_entry_value 1] $r0
	@DEBUG_VALUE: mbedtls_ssl_ticket_parse:ret <- 0
	.loc	4 0 9                           @ ../../../ThirdParty/mbedTLS/library/ssl_ticket.c:0:9
	str	r4, [sp, #28]                   @ 4-byte Spill
.Ltmp119:
	@DEBUG_VALUE: mbedtls_ssl_ticket_parse:session <- [DW_OP_plus_uconst 28] [$sp+0]
	mov	r4, r5
	adds	r4, #18
.Ltmp120:
	@DEBUG_VALUE: mbedtls_ssl_ticket_parse:ticket <- $r4
	adds	r1, r5, #4
.Ltmp121:
	@DEBUG_VALUE: mbedtls_ssl_ticket_parse:iv <- $r1
	adds	r2, r4, r6
.Ltmp122:
	@DEBUG_VALUE: mbedtls_ssl_ticket_parse:clear_len <- [DW_OP_plus_uconst 32, DW_OP_deref] $sp
	@DEBUG_VALUE: mbedtls_ssl_ticket_parse:tag <- $r2
	movs	r3, #16
.Ltmp123:
	.loc	4 534 17 is_stmt 1              @ ../../../ThirdParty/mbedTLS/library/ssl_ticket.c:534:17
	str	r3, [sp, #24]
	str	r2, [sp, #20]
	add	r2, sp, #32
.Ltmp124:
	str	r2, [sp, #16]
	str	r4, [sp, #12]
	str	r6, [sp, #8]
	str	r4, [sp, #4]
	movs	r2, #18
	str	r2, [sp]
	.loc	4 534 52 is_stmt 0              @ ../../../ThirdParty/mbedTLS/library/ssl_ticket.c:534:52
	adds	r0, #8
.Ltmp125:
	.loc	4 0 52                          @ ../../../ThirdParty/mbedTLS/library/ssl_ticket.c:0:52
	movs	r2, #12
	.loc	4 534 17                        @ ../../../ThirdParty/mbedTLS/library/ssl_ticket.c:534:17
	mov	r3, r5
	bl	mbedtls_cipher_auth_decrypt
.Ltmp126:
	@DEBUG_VALUE: mbedtls_ssl_ticket_parse:ret <- $r0
	.loc	4 534 9                         @ ../../../ThirdParty/mbedTLS/library/ssl_ticket.c:534:9
	cbz	r0, .LBB5_10
.Ltmp127:
@ %bb.6:
	@DEBUG_VALUE: mbedtls_ssl_ticket_parse:session <- [DW_OP_plus_uconst 28] [$sp+0]
	@DEBUG_VALUE: mbedtls_ssl_ticket_parse:enc_len <- $r6
	@DEBUG_VALUE: mbedtls_ssl_ticket_parse:enc_len_p <- [DW_OP_plus_uconst 16, DW_OP_stack_value] $r5
	@DEBUG_VALUE: mbedtls_ssl_ticket_parse:key_name <- $r5
	@DEBUG_VALUE: mbedtls_ssl_ticket_parse:buf <- $r5
	@DEBUG_VALUE: mbedtls_ssl_ticket_parse:ticket <- $r4
	@DEBUG_VALUE: mbedtls_ssl_ticket_parse:ret <- $r0
	@DEBUG_VALUE: mbedtls_ssl_ticket_parse:clear_len <- [DW_OP_plus_uconst 32, DW_OP_deref] $sp
	@DEBUG_VALUE: mbedtls_ssl_ticket_parse:len <- [DW_OP_LLVM_entry_value 1] $r3
	@DEBUG_VALUE: mbedtls_ssl_ticket_parse:p_ticket <- [DW_OP_LLVM_entry_value 1] $r0
	.loc	4 0 9                           @ ../../../ThirdParty/mbedTLS/library/ssl_ticket.c:0:9
	ldr	r1, __arm_cp.5_2
	.loc	4 534 9                         @ ../../../ThirdParty/mbedTLS/library/ssl_ticket.c:534:9
	cmp	r0, r1
	bne	.LBB5_12
.Ltmp128:
@ %bb.7:
	@DEBUG_VALUE: mbedtls_ssl_ticket_parse:session <- [DW_OP_plus_uconst 28] [$sp+0]
	@DEBUG_VALUE: mbedtls_ssl_ticket_parse:enc_len <- $r6
	@DEBUG_VALUE: mbedtls_ssl_ticket_parse:enc_len_p <- [DW_OP_plus_uconst 16, DW_OP_stack_value] $r5
	@DEBUG_VALUE: mbedtls_ssl_ticket_parse:key_name <- $r5
	@DEBUG_VALUE: mbedtls_ssl_ticket_parse:buf <- $r5
	@DEBUG_VALUE: mbedtls_ssl_ticket_parse:ticket <- $r4
	@DEBUG_VALUE: mbedtls_ssl_ticket_parse:ret <- $r0
	@DEBUG_VALUE: mbedtls_ssl_ticket_parse:clear_len <- [DW_OP_plus_uconst 32, DW_OP_deref] $sp
	@DEBUG_VALUE: mbedtls_ssl_ticket_parse:len <- [DW_OP_LLVM_entry_value 1] $r3
	@DEBUG_VALUE: mbedtls_ssl_ticket_parse:p_ticket <- [DW_OP_LLVM_entry_value 1] $r0
	@DEBUG_VALUE: mbedtls_ssl_ticket_parse:ret <- -29056
	.loc	4 0 0                           @ ../../../ThirdParty/mbedTLS/library/ssl_ticket.c:0:0
	subs	r7, #128
.Ltmp129:
.LBB5_8:
	mov	r0, r7
	.loc	4 578 1 is_stmt 1               @ ../../../ThirdParty/mbedTLS/library/ssl_ticket.c:578:1
	add	sp, #36
	pop	{r4, r5, r6, r7, pc}
.LBB5_9:
.Ltmp130:
	@DEBUG_VALUE: mbedtls_ssl_ticket_parse:enc_len <- $r6
	@DEBUG_VALUE: mbedtls_ssl_ticket_parse:enc_len_p <- [DW_OP_plus_uconst 16, DW_OP_stack_value] $r5
	@DEBUG_VALUE: mbedtls_ssl_ticket_parse:key_name <- $r5
	@DEBUG_VALUE: mbedtls_ssl_ticket_parse:buf <- $r5
	@DEBUG_VALUE: mbedtls_ssl_ticket_parse:session <- $r4
	@DEBUG_VALUE: mbedtls_ssl_ticket_parse:key <- $r0
	@DEBUG_VALUE: mbedtls_ssl_ticket_parse:len <- [DW_OP_LLVM_entry_value 1] $r3
	@DEBUG_VALUE: mbedtls_ssl_ticket_parse:p_ticket <- [DW_OP_LLVM_entry_value 1] $r0
	@DEBUG_VALUE: mbedtls_ssl_ticket_parse:ret <- 0
	.loc	4 0 1 is_stmt 0                 @ ../../../ThirdParty/mbedTLS/library/ssl_ticket.c:0:1
	ldr	r0, __arm_cp.5_1
.Ltmp131:
	.loc	4 578 1                         @ ../../../ThirdParty/mbedTLS/library/ssl_ticket.c:578:1
	add	sp, #36
	pop	{r4, r5, r6, r7, pc}
.Ltmp132:
.LBB5_10:
	@DEBUG_VALUE: mbedtls_ssl_ticket_parse:session <- [DW_OP_plus_uconst 28] [$sp+0]
	@DEBUG_VALUE: mbedtls_ssl_ticket_parse:enc_len <- $r6
	@DEBUG_VALUE: mbedtls_ssl_ticket_parse:enc_len_p <- [DW_OP_plus_uconst 16, DW_OP_stack_value] $r5
	@DEBUG_VALUE: mbedtls_ssl_ticket_parse:key_name <- $r5
	@DEBUG_VALUE: mbedtls_ssl_ticket_parse:buf <- $r5
	@DEBUG_VALUE: mbedtls_ssl_ticket_parse:ticket <- $r4
	@DEBUG_VALUE: mbedtls_ssl_ticket_parse:ret <- $r0
	@DEBUG_VALUE: mbedtls_ssl_ticket_parse:clear_len <- [DW_OP_plus_uconst 32, DW_OP_deref] $sp
	@DEBUG_VALUE: mbedtls_ssl_ticket_parse:len <- [DW_OP_LLVM_entry_value 1] $r3
	@DEBUG_VALUE: mbedtls_ssl_ticket_parse:p_ticket <- [DW_OP_LLVM_entry_value 1] $r0
	.loc	4 547 9 is_stmt 1               @ ../../../ThirdParty/mbedTLS/library/ssl_ticket.c:547:9
	ldr	r2, [sp, #32]
.Ltmp133:
	@DEBUG_VALUE: mbedtls_ssl_ticket_parse:clear_len <- $r2
	.loc	4 547 9 is_stmt 0               @ ../../../ThirdParty/mbedTLS/library/ssl_ticket.c:547:9
	cmp	r2, r6
	bne	.LBB5_13
.Ltmp134:
@ %bb.11:
	@DEBUG_VALUE: mbedtls_ssl_ticket_parse:session <- [DW_OP_plus_uconst 28] [$sp+0]
	@DEBUG_VALUE: mbedtls_ssl_ticket_parse:enc_len <- $r6
	@DEBUG_VALUE: mbedtls_ssl_ticket_parse:enc_len_p <- [DW_OP_plus_uconst 16, DW_OP_stack_value] $r5
	@DEBUG_VALUE: mbedtls_ssl_ticket_parse:key_name <- $r5
	@DEBUG_VALUE: mbedtls_ssl_ticket_parse:buf <- $r5
	@DEBUG_VALUE: mbedtls_ssl_ticket_parse:ticket <- $r4
	@DEBUG_VALUE: mbedtls_ssl_ticket_parse:clear_len <- $r2
	@DEBUG_VALUE: mbedtls_ssl_ticket_parse:ret <- $r0
	@DEBUG_VALUE: mbedtls_ssl_ticket_parse:len <- [DW_OP_LLVM_entry_value 1] $r3
	@DEBUG_VALUE: mbedtls_ssl_ticket_parse:p_ticket <- [DW_OP_LLVM_entry_value 1] $r0
	.loc	4 554 17 is_stmt 1              @ ../../../ThirdParty/mbedTLS/library/ssl_ticket.c:554:17
	ldr	r0, [sp, #28]                   @ 4-byte Reload
.Ltmp135:
	@DEBUG_VALUE: mbedtls_ssl_ticket_parse:session <- $r0
	mov	r1, r4
	bl	ssl_load_session
.Ltmp136:
	@DEBUG_VALUE: mbedtls_ssl_ticket_parse:session <- [DW_OP_LLVM_entry_value 1] $r1
	@DEBUG_VALUE: mbedtls_ssl_ticket_parse:ret <- $r0
.LBB5_12:
	@DEBUG_VALUE: mbedtls_ssl_ticket_parse:enc_len <- $r6
	@DEBUG_VALUE: mbedtls_ssl_ticket_parse:enc_len_p <- [DW_OP_plus_uconst 16, DW_OP_stack_value] $r5
	@DEBUG_VALUE: mbedtls_ssl_ticket_parse:key_name <- $r5
	@DEBUG_VALUE: mbedtls_ssl_ticket_parse:buf <- $r5
	@DEBUG_VALUE: mbedtls_ssl_ticket_parse:ticket <- $r4
	@DEBUG_VALUE: mbedtls_ssl_ticket_parse:ret <- $r0
	@DEBUG_VALUE: mbedtls_ssl_ticket_parse:len <- [DW_OP_LLVM_entry_value 1] $r3
	@DEBUG_VALUE: mbedtls_ssl_ticket_parse:p_ticket <- [DW_OP_LLVM_entry_value 1] $r0
	.loc	4 578 1                         @ ../../../ThirdParty/mbedTLS/library/ssl_ticket.c:578:1
	add	sp, #36
	pop	{r4, r5, r6, r7, pc}
.Ltmp137:
.LBB5_13:
	@DEBUG_VALUE: mbedtls_ssl_ticket_parse:session <- [DW_OP_plus_uconst 28] [$sp+0]
	@DEBUG_VALUE: mbedtls_ssl_ticket_parse:enc_len <- $r6
	@DEBUG_VALUE: mbedtls_ssl_ticket_parse:enc_len_p <- [DW_OP_plus_uconst 16, DW_OP_stack_value] $r5
	@DEBUG_VALUE: mbedtls_ssl_ticket_parse:key_name <- $r5
	@DEBUG_VALUE: mbedtls_ssl_ticket_parse:buf <- $r5
	@DEBUG_VALUE: mbedtls_ssl_ticket_parse:ticket <- $r4
	@DEBUG_VALUE: mbedtls_ssl_ticket_parse:clear_len <- $r2
	@DEBUG_VALUE: mbedtls_ssl_ticket_parse:ret <- $r0
	@DEBUG_VALUE: mbedtls_ssl_ticket_parse:len <- [DW_OP_LLVM_entry_value 1] $r3
	@DEBUG_VALUE: mbedtls_ssl_ticket_parse:p_ticket <- [DW_OP_LLVM_entry_value 1] $r0
	.loc	4 0 1 is_stmt 0                 @ ../../../ThirdParty/mbedTLS/library/ssl_ticket.c:0:1
	ldr	r0, __arm_cp.5_3
.Ltmp138:
	.loc	4 578 1                         @ ../../../ThirdParty/mbedTLS/library/ssl_ticket.c:578:1
	add	sp, #36
.Ltmp139:
	pop	{r4, r5, r6, r7, pc}
.Ltmp140:
	.p2align	2
@ %bb.14:
	.loc	4 0 1                           @ ../../../ThirdParty/mbedTLS/library/ssl_ticket.c:0:1
__arm_cp.5_0:
	.long	4294938368                      @ 0xffff8f00
.Lcpi_end5:
	.size	__arm_cp.5_0, .Lcpi_end5-__arm_cp.5_0
__arm_cp.5_1:
	.long	4294939264                      @ 0xffff9280
.Lcpi_end6:
	.size	__arm_cp.5_1, .Lcpi_end6-__arm_cp.5_1
__arm_cp.5_2:
	.long	4294941952                      @ 0xffff9d00
.Lcpi_end7:
	.size	__arm_cp.5_2, .Lcpi_end7-__arm_cp.5_2
__arm_cp.5_3:
	.long	4294939648                      @ 0xffff9400
.Lcpi_end8:
	.size	__arm_cp.5_3, .Lcpi_end8-__arm_cp.5_3
.Lfunc_end5:
	.size	mbedtls_ssl_ticket_parse, .Lfunc_end5-mbedtls_ssl_ticket_parse
	.cfi_endproc
	.cantunwind
	.fnend
                                        @ -- End function
	.section	.text.ssl_ticket_select_key,"ax",%progbits
	.p2align	1                               @ -- Begin function ssl_ticket_select_key
	.type	ssl_ticket_select_key,%function
	.code	16                              @ @ssl_ticket_select_key
	.thumb_func
ssl_ticket_select_key:
.Lfunc_begin6:
	.loc	4 473 0 is_stmt 1               @ ../../../ThirdParty/mbedTLS/library/ssl_ticket.c:473:0
	.fnstart
	.cfi_startproc
@ %bb.0:
	@DEBUG_VALUE: ssl_ticket_select_key:ctx <- $r0
	@DEBUG_VALUE: ssl_ticket_select_key:name <- $r1
	.save	{r4, r5, r6, r7, lr}
	push	{r4, r5, r6, r7, lr}
	.cfi_def_cfa_offset 20
	.cfi_offset lr, -4
	.cfi_offset r7, -8
	.cfi_offset r6, -12
	.cfi_offset r5, -16
	.cfi_offset r4, -20
	.pad	#4
	sub	sp, #4
	.cfi_def_cfa_offset 24
	movs	r4, #0
	str	r4, [sp]                        @ 4-byte Spill
.Ltmp141:
	@DEBUG_VALUE: ssl_ticket_select_key:i <- 0
	@DEBUG_VALUE: ssl_ticket_select_key:name <- $r1
	@DEBUG_VALUE: ssl_ticket_select_key:ctx <- $r0
.LBB6_1:                                @ =>This Inner Loop Header: Depth=1
	@DEBUG_VALUE: ssl_ticket_select_key:name <- $r1
	@DEBUG_VALUE: ssl_ticket_select_key:ctx <- $r0
	@DEBUG_VALUE: ssl_ticket_select_key:i <- undef
	.loc	4 477 13 prologue_end           @ ../../../ThirdParty/mbedTLS/library/ssl_ticket.c:477:13
	ldrb	r5, [r0, r4]
	adds	r2, r0, r4
	ldrb	r6, [r2, #1]
	lsls	r6, r6, #8
	adds	r5, r6, r5
	ldrb	r6, [r2, #2]
	ldrb	r7, [r2, #3]
	lsls	r7, r7, #8
	adds	r6, r7, r6
	lsls	r6, r6, #16
	adds	r5, r6, r5
	ldrb	r6, [r1]
	ldrb	r7, [r1, #1]
	lsls	r7, r7, #8
	adds	r6, r7, r6
	ldrb	r7, [r1, #2]
	ldrb	r3, [r1, #3]
	lsls	r3, r3, #8
	adds	r3, r3, r7
	lsls	r3, r3, #16
	adds	r3, r3, r6
.Ltmp142:
	@DEBUG_VALUE: ssl_ticket_select_key:i <- [DW_OP_plus_uconst 1, DW_OP_stack_value] undef
	.loc	4 477 13 is_stmt 0              @ ../../../ThirdParty/mbedTLS/library/ssl_ticket.c:477:13
	cmp	r3, r5
	beq	.LBB6_4
.Ltmp143:
@ %bb.2:                                @   in Loop: Header=BB6_1 Depth=1
	@DEBUG_VALUE: ssl_ticket_select_key:name <- $r1
	@DEBUG_VALUE: ssl_ticket_select_key:ctx <- $r0
	@DEBUG_VALUE: ssl_ticket_select_key:i <- [DW_OP_plus_uconst 1, DW_OP_stack_value] undef
	.loc	4 476 19 is_stmt 1              @ ../../../ThirdParty/mbedTLS/library/ssl_ticket.c:476:19
	adds	r4, #72
.Ltmp144:
	.loc	4 476 5 is_stmt 0               @ ../../../ThirdParty/mbedTLS/library/ssl_ticket.c:476:5
	cmp	r4, #144
	bne	.LBB6_1
.Ltmp145:
@ %bb.3:
	@DEBUG_VALUE: ssl_ticket_select_key:name <- $r1
	@DEBUG_VALUE: ssl_ticket_select_key:ctx <- $r0
	.loc	4 0 0                           @ ../../../ThirdParty/mbedTLS/library/ssl_ticket.c:0:0
	ldr	r2, [sp]                        @ 4-byte Reload
.Ltmp146:
.LBB6_4:
	@DEBUG_VALUE: ssl_ticket_select_key:name <- $r1
	@DEBUG_VALUE: ssl_ticket_select_key:ctx <- $r0
	.loc	4 481 1 is_stmt 1               @ ../../../ThirdParty/mbedTLS/library/ssl_ticket.c:481:1
	mov	r0, r2
.Ltmp147:
	@DEBUG_VALUE: ssl_ticket_select_key:ctx <- [DW_OP_LLVM_entry_value 1] $r0
	add	sp, #4
	pop	{r4, r5, r6, r7, pc}
.Ltmp148:
.Lfunc_end6:
	.size	ssl_ticket_select_key, .Lfunc_end6-ssl_ticket_select_key
	.cfi_endproc
	.cantunwind
	.fnend
                                        @ -- End function
	.section	.text.ssl_load_session,"ax",%progbits
	.p2align	2                               @ -- Begin function ssl_load_session
	.type	ssl_load_session,%function
	.code	16                              @ @ssl_load_session
	.thumb_func
ssl_load_session:
.Lfunc_begin7:
	.loc	4 275 0                         @ ../../../ThirdParty/mbedTLS/library/ssl_ticket.c:275:0
	.fnstart
	.cfi_startproc
@ %bb.0:
	@DEBUG_VALUE: ssl_load_session:session <- $r0
	@DEBUG_VALUE: ssl_load_session:buf <- $r1
	@DEBUG_VALUE: ssl_load_session:len <- $r2
	.save	{r4, r5, r6, r7, lr}
	push	{r4, r5, r6, r7, lr}
	.cfi_def_cfa_offset 20
	.cfi_offset lr, -4
	.cfi_offset r7, -8
	.cfi_offset r6, -12
	.cfi_offset r5, -16
	.cfi_offset r4, -20
	.pad	#12
	sub	sp, #12
	.cfi_def_cfa_offset 32
	mov	r4, r0
.Ltmp149:
	@DEBUG_VALUE: ssl_load_session:end <- undef
	@DEBUG_VALUE: ssl_load_session:p <- undef
	ldr	r0, __arm_cp.7_0
.Ltmp150:
	@DEBUG_VALUE: ssl_load_session:session <- [DW_OP_LLVM_entry_value 1] $r0
	@DEBUG_VALUE: ssl_load_session:len <- $r2
	@DEBUG_VALUE: ssl_load_session:buf <- $r1
	@DEBUG_VALUE: ssl_load_session:session <- $r4
	.loc	4 286 9 prologue_end            @ ../../../ThirdParty/mbedTLS/library/ssl_ticket.c:286:9
	cmp	r2, #132
	bhs	.LBB7_2
.Ltmp151:
.LBB7_1:
	.loc	4 0 0 is_stmt 0                 @ ../../../ThirdParty/mbedTLS/library/ssl_ticket.c:0:0
	add	sp, #12
	pop	{r4, r5, r6, r7, pc}
.LBB7_2:
.Ltmp152:
	@DEBUG_VALUE: ssl_load_session:session <- $r4
	@DEBUG_VALUE: ssl_load_session:len <- $r2
	@DEBUG_VALUE: ssl_load_session:buf <- $r1
	mov	r5, r2
.Ltmp153:
	@DEBUG_VALUE: ssl_load_session:len <- $r5
	mov	r6, r1
.Ltmp154:
	@DEBUG_VALUE: ssl_load_session:buf <- $r6
	movs	r7, #132
	.loc	4 289 5 is_stmt 1               @ ../../../ThirdParty/mbedTLS/library/ssl_ticket.c:289:5
	mov	r0, r4
	mov	r2, r7
	bl	__aeabi_memcpy
	movs	r0, #0
	.loc	4 302 21                        @ ../../../ThirdParty/mbedTLS/library/ssl_ticket.c:302:21
	str	r0, [r4, #108]
.Ltmp155:
	@DEBUG_VALUE: ssl_load_session:p <- [DW_OP_plus_uconst 132, DW_OP_stack_value] $r6
	.loc	4 298 31                        @ ../../../ThirdParty/mbedTLS/library/ssl_ticket.c:298:31
	str	r0, [r4, #92]
	.loc	4 341 9                         @ ../../../ThirdParty/mbedTLS/library/ssl_ticket.c:341:9
	cmp	r5, #132
	beq	.LBB7_9
.Ltmp156:
@ %bb.3:
	@DEBUG_VALUE: ssl_load_session:p <- [DW_OP_plus_uconst 132, DW_OP_stack_value] $r6
	@DEBUG_VALUE: ssl_load_session:buf <- $r6
	@DEBUG_VALUE: ssl_load_session:len <- $r5
	@DEBUG_VALUE: ssl_load_session:session <- $r4
	@DEBUG_VALUE: ssl_load_session:p <- [DW_OP_plus_uconst 132, DW_OP_stack_value] $r6
	.loc	4 344 32                        @ ../../../ThirdParty/mbedTLS/library/ssl_ticket.c:344:32
	ldrb	r1, [r6, r7]
.Ltmp157:
	@DEBUG_VALUE: ssl_load_session:cert_digest_len <- $r1
	.loc	4 345 6                         @ ../../../ThirdParty/mbedTLS/library/ssl_ticket.c:345:6
	mov	r2, r6
	adds	r2, #133
.Ltmp158:
	@DEBUG_VALUE: ssl_load_session:p <- $r2
	.loc	4 347 9                         @ ../../../ThirdParty/mbedTLS/library/ssl_ticket.c:347:9
	cbz	r1, .LBB7_8
.Ltmp159:
@ %bb.4:
	@DEBUG_VALUE: ssl_load_session:buf <- $r6
	@DEBUG_VALUE: ssl_load_session:len <- $r5
	@DEBUG_VALUE: ssl_load_session:session <- $r4
	@DEBUG_VALUE: ssl_load_session:p <- $r2
	@DEBUG_VALUE: ssl_load_session:cert_digest_len <- $r1
	.loc	4 349 45                        @ ../../../ThirdParty/mbedTLS/library/ssl_ticket.c:349:45
	mov	r3, r5
	subs	r3, #133
	.loc	4 349 51 is_stmt 0              @ ../../../ThirdParty/mbedTLS/library/ssl_ticket.c:349:51
	cmp	r3, r1
	blo	.LBB7_9
.Ltmp160:
@ %bb.5:
	@DEBUG_VALUE: ssl_load_session:buf <- $r6
	@DEBUG_VALUE: ssl_load_session:len <- $r5
	@DEBUG_VALUE: ssl_load_session:session <- $r4
	@DEBUG_VALUE: ssl_load_session:p <- $r2
	@DEBUG_VALUE: ssl_load_session:cert_digest_len <- $r1
	.loc	4 350 45 is_stmt 1              @ ../../../ThirdParty/mbedTLS/library/ssl_ticket.c:350:45
	ldr	r3, [r4, #96]
.Ltmp161:
	.loc	4 349 13                        @ ../../../ThirdParty/mbedTLS/library/ssl_ticket.c:349:13
	cmp	r3, r1
	bne	.LBB7_9
.Ltmp162:
@ %bb.6:
	@DEBUG_VALUE: ssl_load_session:buf <- $r6
	@DEBUG_VALUE: ssl_load_session:len <- $r5
	@DEBUG_VALUE: ssl_load_session:session <- $r4
	@DEBUG_VALUE: ssl_load_session:p <- $r2
	@DEBUG_VALUE: ssl_load_session:cert_digest_len <- $r1
	.loc	4 0 13 is_stmt 0                @ ../../../ThirdParty/mbedTLS/library/ssl_ticket.c:0:13
	str	r2, [sp, #4]                    @ 4-byte Spill
.Ltmp163:
	@DEBUG_VALUE: ssl_load_session:p <- [DW_OP_plus_uconst 4] [$sp+0]
	str	r0, [sp, #8]                    @ 4-byte Spill
	movs	r0, #1
	mov	r7, r1
	.loc	4 355 37 is_stmt 1              @ ../../../ThirdParty/mbedTLS/library/ssl_ticket.c:355:37
	bl	calloc
.Ltmp164:
	.loc	4 355 35 is_stmt 0              @ ../../../ThirdParty/mbedTLS/library/ssl_ticket.c:355:35
	str	r0, [r4, #92]
	.loc	4 356 13 is_stmt 1              @ ../../../ThirdParty/mbedTLS/library/ssl_ticket.c:356:13
	cbz	r0, .LBB7_10
.Ltmp165:
@ %bb.7:
	@DEBUG_VALUE: ssl_load_session:p <- [DW_OP_plus_uconst 4] [$sp+0]
	@DEBUG_VALUE: ssl_load_session:buf <- $r6
	@DEBUG_VALUE: ssl_load_session:len <- $r5
	@DEBUG_VALUE: ssl_load_session:session <- $r4
	.loc	4 0 13 is_stmt 0                @ ../../../ThirdParty/mbedTLS/library/ssl_ticket.c:0:13
	ldr	r4, [sp, #4]                    @ 4-byte Reload
.Ltmp166:
	@DEBUG_VALUE: ssl_load_session:p <- $r4
	.loc	4 359 9 is_stmt 1               @ ../../../ThirdParty/mbedTLS/library/ssl_ticket.c:359:9
	mov	r1, r4
	mov	r2, r7
	bl	__aeabi_memcpy
	mov	r2, r4
	.loc	4 360 11                        @ ../../../ThirdParty/mbedTLS/library/ssl_ticket.c:360:11
	adds	r2, r4, r7
.Ltmp167:
	@DEBUG_VALUE: ssl_load_session:p <- $r2
	.loc	4 0 11 is_stmt 0                @ ../../../ThirdParty/mbedTLS/library/ssl_ticket.c:0:11
	ldr	r0, [sp, #8]                    @ 4-byte Reload
.Ltmp168:
.LBB7_8:
	@DEBUG_VALUE: ssl_load_session:buf <- $r6
	@DEBUG_VALUE: ssl_load_session:len <- $r5
	@DEBUG_VALUE: ssl_load_session:p <- $r2
	.loc	4 277 43 is_stmt 1              @ ../../../ThirdParty/mbedTLS/library/ssl_ticket.c:277:43
	adds	r1, r6, r5
.Ltmp169:
	@DEBUG_VALUE: ssl_load_session:end <- $r1
	@DEBUG_VALUE: ssl_load_session:p <- $r2
	.loc	4 365 9                         @ ../../../ThirdParty/mbedTLS/library/ssl_ticket.c:365:9
	cmp	r2, r1
	beq	.LBB7_1
.Ltmp170:
.LBB7_9:
	@DEBUG_VALUE: ssl_load_session:buf <- $r6
	@DEBUG_VALUE: ssl_load_session:len <- $r5
	.loc	4 0 9 is_stmt 0                 @ ../../../ThirdParty/mbedTLS/library/ssl_ticket.c:0:9
	ldr	r0, __arm_cp.7_0
	add	sp, #12
	pop	{r4, r5, r6, r7, pc}
.Ltmp171:
.LBB7_10:
	@DEBUG_VALUE: ssl_load_session:p <- [DW_OP_plus_uconst 4] [$sp+0]
	@DEBUG_VALUE: ssl_load_session:buf <- $r6
	@DEBUG_VALUE: ssl_load_session:len <- $r5
	@DEBUG_VALUE: ssl_load_session:session <- $r4
	ldr	r0, __arm_cp.7_1
	add	sp, #12
.Ltmp172:
	pop	{r4, r5, r6, r7, pc}
.Ltmp173:
	.p2align	2
@ %bb.11:
__arm_cp.7_0:
	.long	4294938368                      @ 0xffff8f00
.Lcpi_end9:
	.size	__arm_cp.7_0, .Lcpi_end9-__arm_cp.7_0
__arm_cp.7_1:
	.long	4294934784                      @ 0xffff8100
.Lcpi_end10:
	.size	__arm_cp.7_1, .Lcpi_end10-__arm_cp.7_1
.Lfunc_end7:
	.size	ssl_load_session, .Lfunc_end7-ssl_load_session
	.cfi_endproc
	.cantunwind
	.fnend
                                        @ -- End function
	.section	.text.mbedtls_ssl_ticket_free,"ax",%progbits
	.hidden	mbedtls_ssl_ticket_free         @ -- Begin function mbedtls_ssl_ticket_free
	.globl	mbedtls_ssl_ticket_free
	.p2align	1
	.type	mbedtls_ssl_ticket_free,%function
	.code	16                              @ @mbedtls_ssl_ticket_free
	.thumb_func
mbedtls_ssl_ticket_free:
.Lfunc_begin8:
	.loc	4 584 0 is_stmt 1               @ ../../../ThirdParty/mbedTLS/library/ssl_ticket.c:584:0
	.fnstart
	.cfi_startproc
@ %bb.0:
	@DEBUG_VALUE: mbedtls_ssl_ticket_free:ctx <- $r0
	.save	{r4, lr}
	push	{r4, lr}
	.cfi_def_cfa_offset 8
	.cfi_offset lr, -4
	.cfi_offset r4, -8
	mov	r4, r0
.Ltmp174:
	@DEBUG_VALUE: mbedtls_ssl_ticket_free:ctx <- $r4
	.loc	4 585 40 prologue_end           @ ../../../ThirdParty/mbedTLS/library/ssl_ticket.c:585:40
	adds	r0, #8
	.loc	4 585 5 is_stmt 0               @ ../../../ThirdParty/mbedTLS/library/ssl_ticket.c:585:5
	bl	mbedtls_cipher_free
	.loc	4 586 40 is_stmt 1              @ ../../../ThirdParty/mbedTLS/library/ssl_ticket.c:586:40
	mov	r0, r4
	adds	r0, #80
	.loc	4 586 5 is_stmt 0               @ ../../../ThirdParty/mbedTLS/library/ssl_ticket.c:586:5
	bl	mbedtls_cipher_free
	movs	r1, #160
	.loc	4 592 5 is_stmt 1               @ ../../../ThirdParty/mbedTLS/library/ssl_ticket.c:592:5
	mov	r0, r4
	bl	mbedtls_platform_zeroize
	.loc	4 593 1                         @ ../../../ThirdParty/mbedTLS/library/ssl_ticket.c:593:1
	pop	{r4, pc}
.Ltmp175:
.Lfunc_end8:
	.size	mbedtls_ssl_ticket_free, .Lfunc_end8-mbedtls_ssl_ticket_free
	.cfi_endproc
	.cantunwind
	.fnend
                                        @ -- End function
	.section	.text.mbedtls_cipher_get_key_bitlen,"ax",%progbits
	.p2align	1                               @ -- Begin function mbedtls_cipher_get_key_bitlen
	.type	mbedtls_cipher_get_key_bitlen,%function
	.code	16                              @ @mbedtls_cipher_get_key_bitlen
	.thumb_func
mbedtls_cipher_get_key_bitlen:
.Lfunc_begin9:
	.loc	1 572 0                         @ ../../../ThirdParty/mbedTLS/include/mbedtls/cipher.h:572:0
	.fnstart
	.cfi_startproc
@ %bb.0:
	@DEBUG_VALUE: mbedtls_cipher_get_key_bitlen:ctx <- $r0
	@DEBUG_VALUE: mbedtls_cipher_get_key_bitlen:ctx <- $r0
	.loc	1 575 14 prologue_end           @ ../../../ThirdParty/mbedTLS/include/mbedtls/cipher.h:575:14
	ldr	r0, [r0]
.Ltmp176:
	@DEBUG_VALUE: mbedtls_cipher_get_key_bitlen:ctx <- [DW_OP_LLVM_entry_value 1] $r0
	.loc	1 575 9 is_stmt 0               @ ../../../ThirdParty/mbedTLS/include/mbedtls/cipher.h:575:9
	cbz	r0, .LBB9_2
.Ltmp177:
@ %bb.1:
	@DEBUG_VALUE: mbedtls_cipher_get_key_bitlen:ctx <- [DW_OP_LLVM_entry_value 1] $r0
	.loc	1 578 36 is_stmt 1              @ ../../../ThirdParty/mbedTLS/include/mbedtls/cipher.h:578:36
	ldr	r0, [r0, #4]
	.loc	1 579 1                         @ ../../../ThirdParty/mbedTLS/include/mbedtls/cipher.h:579:1
	bx	lr
.Ltmp178:
.LBB9_2:
	@DEBUG_VALUE: mbedtls_cipher_get_key_bitlen:ctx <- [DW_OP_LLVM_entry_value 1] $r0
	.loc	1 0 1 is_stmt 0                 @ ../../../ThirdParty/mbedTLS/include/mbedtls/cipher.h:0:1
	movs	r0, #0
	.loc	1 579 1                         @ ../../../ThirdParty/mbedTLS/include/mbedtls/cipher.h:579:1
	bx	lr
.Ltmp179:
.Lfunc_end9:
	.size	mbedtls_cipher_get_key_bitlen, .Lfunc_end9-mbedtls_cipher_get_key_bitlen
	.cfi_endproc
	.cantunwind
	.fnend
                                        @ -- End function
	.file	5 "C:\\Users\\shw26\\OneDrive\\Desktop\\2021\\2021-1\\\354\272\241\354\212\244\355\206\244\353\224\224\354\236\220\354\235\2702\\Nuvoton\\M2351_BSP_v3.00.004\\M2351Series_BSP_CMSIS_V3.00.004\\MyProject\\PulseMonitoring\\Secure" "../../../ThirdParty/mbedTLS/include/mbedtls\\ssl_ticket.h"
	.file	6 "C:\\" "Keil_v5\\ARM\\ARMCLANG\\Bin\\..\\include\\stdint.h"
	.file	7 "C:\\Users\\shw26\\OneDrive\\Desktop\\2021\\2021-1\\\354\272\241\354\212\244\355\206\244\353\224\224\354\236\220\354\235\2702\\Nuvoton\\M2351_BSP_v3.00.004\\M2351Series_BSP_CMSIS_V3.00.004\\MyProject\\PulseMonitoring\\Secure" "../../../ThirdParty/mbedTLS/include/mbedtls/ssl.h"
	.section	".note.GNU-stack","",%progbits
	.eabi_attribute	30, 1	@ Tag_ABI_optimization_goals
	.ARM_attribute	16, 1	@ Tag_AV_eba