	.text
	.syntax unified
	.eabi_attribute	67, "2.09"	@ Tag_conformance
	.cpu	cortex-m23
	.eabi_attribute	6, 16	@ Tag_CPU_arch
	.eabi_attribute	7, 77	@ Tag_CPU_arch_profile
	.eabi_attribute	8, 0	@ Tag_ARM_ISA_use
	.eabi_attribute	9, 3	@ Tag_THUMB_ISA_use
	.eabi_attribute	34, 0	@ Tag_CPU_unaligned_access
	.eabi_attribute	17, 1	@ Tag_ABI_PCS_GOT_use
	.eabi_attribute	20, 2	@ Tag_ABI_FP_denormal
	.eabi_attribute	21, 0	@ Tag_ABI_FP_exceptions
	.eabi_attribute	23, 1	@ Tag_ABI_FP_number_model
	.eabi_attribute	24, 1	@ Tag_ABI_align_needed
	.eabi_attribute	25, 1	@ Tag_ABI_align_preserved
	.eabi_attribute	38, 1	@ Tag_ABI_FP_16bit_format
	.eabi_attribute	18, 2	@ Tag_ABI_PCS_wchar_t
	.eabi_attribute	26, 1	@ Tag_ABI_enum_size
	.eabi_attribute	14, 0	@ Tag_ABI_PCS_R9_use
	.file	"ssl_cookie.c"
	.file	1 "C:\\Users\\shw26\\OneDrive\\Desktop\\2021\\2021-1\\\354\272\241\354\212\244\355\206\244\353\224\224\354\236\220\354\235\2702\\Nuvoton\\M2351_BSP_v3.00.004\\M2351Series_BSP_CMSIS_V3.00.004\\MyProject\\PulseMonitoring\\Secure" "../../../ThirdParty/mbedTLS/include/mbedtls/md.h"
	.file	2 "C:\\Users\\shw26\\OneDrive\\Desktop\\2021\\2021-1\\\354\272\241\354\212\244\355\206\244\353\224\224\354\236\220\354\235\2702\\Nuvoton\\M2351_BSP_v3.00.004\\M2351Series_BSP_CMSIS_V3.00.004\\MyProject\\PulseMonitoring\\Secure" "../../../ThirdParty/mbedTLS/include/mbedtls\\ssl_cookie.h"
	.file	3 "C:\\" "Keil_v5\\ARM\\ARMCLANG\\Bin\\..\\include\\stdio.h"
	.section	.text.mbedtls_ssl_cookie_init,"ax",%progbits
	.hidden	mbedtls_ssl_cookie_init         @ -- Begin function mbedtls_ssl_cookie_init
	.globl	mbedtls_ssl_cookie_init
	.p2align	1
	.type	mbedtls_ssl_cookie_init,%function
	.code	16                              @ @mbedtls_ssl_cookie_init
	.thumb_func
mbedtls_ssl_cookie_init:
.Lfunc_begin0:
	.file	4 "C:\\Users\\shw26\\OneDrive\\Desktop\\2021\\2021-1\\\354\272\241\354\212\244\355\206\244\353\224\224\354\236\220\354\235\2702\\Nuvoton\\M2351_BSP_v3.00.004\\M2351Series_BSP_CMSIS_V3.00.004\\MyProject\\PulseMonitoring\\Secure" "../../../ThirdParty/mbedTLS/library/ssl_cookie.c"
	.loc	4 75 0                          @ ../../../ThirdParty/mbedTLS/library/ssl_cookie.c:75:0
	.fnstart
	.cfi_sections .debug_frame
	.cfi_startproc
@ %bb.0:
	@DEBUG_VALUE: mbedtls_ssl_cookie_init:ctx <- $r0
	.save	{r4, lr}
	push	{r4, lr}
	.cfi_def_cfa_offset 8
	.cfi_offset lr, -4
	.cfi_offset r4, -8
	mov	r4, r0
.Ltmp0:
	@DEBUG_VALUE: mbedtls_ssl_cookie_init:ctx <- $r4
	.loc	4 76 5 prologue_end             @ ../../../ThirdParty/mbedTLS/library/ssl_cookie.c:76:5
	bl	mbedtls_md_init
	movs	r0, #60
	movs	r1, #0
	.loc	4 78 17                         @ ../../../ThirdParty/mbedTLS/library/ssl_cookie.c:78:17
	str	r1, [r4, #12]
	.loc	4 80 18                         @ ../../../ThirdParty/mbedTLS/library/ssl_cookie.c:80:18
	str	r0, [r4, #16]
	.loc	4 85 1                          @ ../../../ThirdParty/mbedTLS/library/ssl_cookie.c:85:1
	pop	{r4, pc}
.Ltmp1:
.Lfunc_end0:
	.size	mbedtls_ssl_cookie_init, .Lfunc_end0-mbedtls_ssl_cookie_init
	.cfi_endproc
	.cantunwind
	.fnend
                                        @ -- End function
	.section	.text.mbedtls_ssl_cookie_set_timeout,"ax",%progbits
	.hidden	mbedtls_ssl_cookie_set_timeout  @ -- Begin function mbedtls_ssl_cookie_set_timeout
	.globl	mbedtls_ssl_cookie_set_timeout
	.p2align	1
	.type	mbedtls_ssl_cookie_set_timeout,%function
	.code	16                              @ @mbedtls_ssl_cookie_set_timeout
	.thumb_func
mbedtls_ssl_cookie_set_timeout:
.Lfunc_begin1:
	.loc	4 88 0                          @ ../../../ThirdParty/mbedTLS/library/ssl_cookie.c:88:0
	.fnstart
	.cfi_startproc
@ %bb.0:
	@DEBUG_VALUE: mbedtls_ssl_cookie_set_timeout:ctx <- $r0
	@DEBUG_VALUE: mbedtls_ssl_cookie_set_timeout:ctx <- $r0
	@DEBUG_VALUE: mbedtls_ssl_cookie_set_timeout:delay <- $r1
	@DEBUG_VALUE: mbedtls_ssl_cookie_set_timeout:delay <- $r1
	.loc	4 89 18 prologue_end            @ ../../../ThirdParty/mbedTLS/library/ssl_cookie.c:89:18
	str	r1, [r0, #16]
	.loc	4 90 1                          @ ../../../ThirdParty/mbedTLS/library/ssl_cookie.c:90:1
	bx	lr
.Ltmp2:
.Lfunc_end1:
	.size	mbedtls_ssl_cookie_set_timeout, .Lfunc_end1-mbedtls_ssl_cookie_set_timeout
	.cfi_endproc
	.cantunwind
	.fnend
                                        @ -- End function
	.section	.text.mbedtls_ssl_cookie_free,"ax",%progbits
	.hidden	mbedtls_ssl_cookie_free         @ -- Begin function mbedtls_ssl_cookie_free
	.globl	mbedtls_ssl_cookie_free
	.p2align	1
	.type	mbedtls_ssl_cookie_free,%function
	.code	16                              @ @mbedtls_ssl_cookie_free
	.thumb_func
mbedtls_ssl_cookie_free:
.Lfunc_begin2:
	.loc	4 93 0                          @ ../../../ThirdParty/mbedTLS/library/ssl_cookie.c:93:0
	.fnstart
	.cfi_startproc
@ %bb.0:
	@DEBUG_VALUE: mbedtls_ssl_cookie_free:ctx <- $r0
	.save	{r4, lr}
	push	{r4, lr}
	.cfi_def_cfa_offset 8
	.cfi_offset lr, -4
	.cfi_offset r4, -8
	mov	r4, r0
.Ltmp3:
	@DEBUG_VALUE: mbedtls_ssl_cookie_free:ctx <- $r4
	.loc	4 94 5 prologue_end             @ ../../../ThirdParty/mbedTLS/library/ssl_cookie.c:94:5
	bl	mbedtls_md_free
	movs	r1, #20
	.loc	4 100 5                         @ ../../../ThirdParty/mbedTLS/library/ssl_cookie.c:100:5
	mov	r0, r4
	bl	mbedtls_platform_zeroize
	.loc	4 101 1                         @ ../../../ThirdParty/mbedTLS/library/ssl_cookie.c:101:1
	pop	{r4, pc}
.Ltmp4:
.Lfunc_end2:
	.size	mbedtls_ssl_cookie_free, .Lfunc_end2-mbedtls_ssl_cookie_free
	.cfi_endproc
	.cantunwind
	.fnend
                                        @ -- End function
	.section	.text.mbedtls_ssl_cookie_setup,"ax",%progbits
	.hidden	mbedtls_ssl_cookie_setup        @ -- Begin function mbedtls_ssl_cookie_setup
	.globl	mbedtls_ssl_cookie_setup
	.p2align	1
	.type	mbedtls_ssl_cookie_setup,%function
	.code	16                              @ @mbedtls_ssl_cookie_setup
	.thumb_func
mbedtls_ssl_cookie_setup:
.Lfunc_begin3:
	.loc	4 106 0                         @ ../../../ThirdParty/mbedTLS/library/ssl_cookie.c:106:0
	.fnstart
	.cfi_startproc
@ %bb.0:
	@DEBUG_VALUE: mbedtls_ssl_cookie_setup:ctx <- $r0
	@DEBUG_VALUE: mbedtls_ssl_cookie_setup:f_rng <- $r1
	@DEBUG_VALUE: mbedtls_ssl_cookie_setup:p_rng <- $r2
	.save	{r4, r5, r7, lr}
	push	{r4, r5, r7, lr}
	.cfi_def_cfa_offset 16
	.cfi_offset lr, -4
	.cfi_offset r7, -8
	.cfi_offset r5, -12
	.cfi_offset r4, -16
	.pad	#32
	sub	sp, #32
	.cfi_def_cfa_offset 48
	mov	r5, r2
	mov	r3, r1
	mov	r4, r0
.Ltmp5:
	@DEBUG_VALUE: mbedtls_ssl_cookie_setup:p_rng <- $r5
	@DEBUG_VALUE: mbedtls_ssl_cookie_setup:f_rng <- $r3
	@DEBUG_VALUE: mbedtls_ssl_cookie_setup:ctx <- $r4
	mov	r1, sp
	movs	r2, #32
.Ltmp6:
	.loc	4 110 17 prologue_end           @ ../../../ThirdParty/mbedTLS/library/ssl_cookie.c:110:17
	mov	r0, r5
.Ltmp7:
	@DEBUG_VALUE: mbedtls_ssl_cookie_setup:p_rng <- $r0
	blx	r3
.Ltmp8:
	@DEBUG_VALUE: mbedtls_ssl_cookie_setup:ret <- $r0
	.loc	4 110 9 is_stmt 0               @ ../../../ThirdParty/mbedTLS/library/ssl_cookie.c:110:9
	cbz	r0, .LBB3_2
.Ltmp9:
.LBB3_1:
	@DEBUG_VALUE: mbedtls_ssl_cookie_setup:ctx <- $r4
	@DEBUG_VALUE: mbedtls_ssl_cookie_setup:ret <- $r0
	.loc	4 124 1 is_stmt 1               @ ../../../ThirdParty/mbedTLS/library/ssl_cookie.c:124:1
	add	sp, #32
	pop	{r4, r5, r7, pc}
.Ltmp10:
.LBB3_2:
	@DEBUG_VALUE: mbedtls_ssl_cookie_setup:ctx <- $r4
	@DEBUG_VALUE: mbedtls_ssl_cookie_setup:ret <- $r0
	.loc	4 0 1 is_stmt 0                 @ ../../../ThirdParty/mbedTLS/library/ssl_cookie.c:0:1
	movs	r0, #5
.Ltmp11:
	.loc	4 113 45 is_stmt 1              @ ../../../ThirdParty/mbedTLS/library/ssl_cookie.c:113:45
	bl	mbedtls_md_info_from_type
	mov	r1, r0
	movs	r2, #1
	.loc	4 113 11 is_stmt 0              @ ../../../ThirdParty/mbedTLS/library/ssl_cookie.c:113:11
	mov	r0, r4
	bl	mbedtls_md_setup
.Ltmp12:
	@DEBUG_VALUE: mbedtls_ssl_cookie_setup:ret <- $r0
	.loc	4 114 9 is_stmt 1               @ ../../../ThirdParty/mbedTLS/library/ssl_cookie.c:114:9
	cmp	r0, #0
	bne	.LBB3_1
.Ltmp13:
@ %bb.3:
	@DEBUG_VALUE: mbedtls_ssl_cookie_setup:ctx <- $r4
	@DEBUG_VALUE: mbedtls_ssl_cookie_setup:ret <- $r0
	.loc	4 0 9 is_stmt 0                 @ ../../../ThirdParty/mbedTLS/library/ssl_cookie.c:0:9
	mov	r1, sp
	movs	r2, #32
	.loc	4 117 11 is_stmt 1              @ ../../../ThirdParty/mbedTLS/library/ssl_cookie.c:117:11
	mov	r0, r4
.Ltmp14:
	bl	mbedtls_md_hmac_starts
.Ltmp15:
	@DEBUG_VALUE: mbedtls_ssl_cookie_setup:ret <- $r0
	.loc	4 118 9                         @ ../../../ThirdParty/mbedTLS/library/ssl_cookie.c:118:9
	cmp	r0, #0
	bne	.LBB3_1
.Ltmp16:
@ %bb.4:
	@DEBUG_VALUE: mbedtls_ssl_cookie_setup:ctx <- $r4
	@DEBUG_VALUE: mbedtls_ssl_cookie_setup:ret <- $r0
	.loc	4 0 9 is_stmt 0                 @ ../../../ThirdParty/mbedTLS/library/ssl_cookie.c:0:9
	mov	r0, sp
.Ltmp17:
	movs	r1, #32
	.loc	4 121 5 is_stmt 1               @ ../../../ThirdParty/mbedTLS/library/ssl_cookie.c:121:5
	bl	mbedtls_platform_zeroize
	movs	r0, #0
	.loc	4 124 1                         @ ../../../ThirdParty/mbedTLS/library/ssl_cookie.c:124:1
	add	sp, #32
	pop	{r4, r5, r7, pc}
.Ltmp18:
.Lfunc_end3:
	.size	mbedtls_ssl_cookie_setup, .Lfunc_end3-mbedtls_ssl_cookie_setup
	.cfi_endproc
	.cantunwind
	.fnend
                                        @ -- End function
	.section	.text.mbedtls_ssl_cookie_write,"ax",%progbits
	.hidden	mbedtls_ssl_cookie_write        @ -- Begin function mbedtls_ssl_cookie_write
	.globl	mbedtls_ssl_cookie_write
	.p2align	2
	.type	mbedtls_ssl_cookie_write,%function
	.code	16                              @ @mbedtls_ssl_cookie_write
	.thumb_func
mbedtls_ssl_cookie_write:
.Lfunc_begin4:
	.loc	4 159 0                         @ ../../../ThirdParty/mbedTLS/library/ssl_cookie.c:159:0
	.fnstart
	.cfi_startproc
@ %bb.0:
	@DEBUG_VALUE: mbedtls_ssl_cookie_write:p_ctx <- $r0
	@DEBUG_VALUE: mbedtls_ssl_cookie_write:p <- $r1
	@DEBUG_VALUE: mbedtls_ssl_cookie_write:end <- $r2
	@DEBUG_VALUE: mbedtls_ssl_cookie_write:cli_id <- $r3
	.save	{r4, r5, r6, r7, lr}
	push	{r4, r5, r6, r7, lr}
	.cfi_def_cfa_offset 20
	.cfi_offset lr, -4
	.cfi_offset r7, -8
	.cfi_offset r6, -12
	.cfi_offset r5, -16
	.cfi_offset r4, -20
	.pad	#12
	sub	sp, #12
	.cfi_def_cfa_offset 32
.Ltmp19:
	@DEBUG_VALUE: mbedtls_ssl_cookie_write:ctx <- $r0
	mov	r4, r2
	mov	r2, r1
.Ltmp20:
	@DEBUG_VALUE: mbedtls_ssl_cookie_write:end <- [DW_OP_LLVM_entry_value 1] $r2
	ldr	r1, __arm_cp.4_0
.Ltmp21:
	@DEBUG_VALUE: mbedtls_ssl_cookie_write:p <- [DW_OP_LLVM_entry_value 1] $r1
	@DEBUG_VALUE: mbedtls_ssl_cookie_write:ctx <- $r0
	@DEBUG_VALUE: mbedtls_ssl_cookie_write:cli_id_len <- [DW_OP_plus_uconst 32] [$sp+0]
	@DEBUG_VALUE: mbedtls_ssl_cookie_write:cli_id <- $r3
	@DEBUG_VALUE: mbedtls_ssl_cookie_write:end <- $r4
	@DEBUG_VALUE: mbedtls_ssl_cookie_write:p <- $r2
	@DEBUG_VALUE: mbedtls_ssl_cookie_write:p_ctx <- $r0
	.loc	4 164 21 prologue_end           @ ../../../ThirdParty/mbedTLS/library/ssl_cookie.c:164:21
	cbz	r0, .LBB4_5
.Ltmp22:
@ %bb.1:
	@DEBUG_VALUE: mbedtls_ssl_cookie_write:end <- $r4
	@DEBUG_VALUE: mbedtls_ssl_cookie_write:cli_id <- $r3
	@DEBUG_VALUE: mbedtls_ssl_cookie_write:p <- $r2
	@DEBUG_VALUE: mbedtls_ssl_cookie_write:ctx <- $r0
	@DEBUG_VALUE: mbedtls_ssl_cookie_write:p_ctx <- $r0
	@DEBUG_VALUE: mbedtls_ssl_cookie_write:cli_id_len <- [DW_OP_plus_uconst 32] [$sp+0]
	cbz	r3, .LBB4_5
.Ltmp23:
@ %bb.2:
	@DEBUG_VALUE: mbedtls_ssl_cookie_write:end <- $r4
	@DEBUG_VALUE: mbedtls_ssl_cookie_write:cli_id <- $r3
	@DEBUG_VALUE: mbedtls_ssl_cookie_write:p <- $r2
	@DEBUG_VALUE: mbedtls_ssl_cookie_write:ctx <- $r0
	@DEBUG_VALUE: mbedtls_ssl_cookie_write:p_ctx <- $r0
	@DEBUG_VALUE: mbedtls_ssl_cookie_write:cli_id_len <- [DW_OP_plus_uconst 32] [$sp+0]
	.loc	4 167 25                        @ ../../../ThirdParty/mbedTLS/library/ssl_cookie.c:167:25
	ldr	r1, [r2]
	.loc	4 167 23 is_stmt 0              @ ../../../ThirdParty/mbedTLS/library/ssl_cookie.c:167:23
	subs	r1, r4, r1
.Ltmp24:
	.loc	4 167 9                         @ ../../../ThirdParty/mbedTLS/library/ssl_cookie.c:167:9
	cmp	r1, #32
	bhs	.LBB4_4
.Ltmp25:
@ %bb.3:
	@DEBUG_VALUE: mbedtls_ssl_cookie_write:end <- $r4
	@DEBUG_VALUE: mbedtls_ssl_cookie_write:cli_id <- $r3
	@DEBUG_VALUE: mbedtls_ssl_cookie_write:p <- $r2
	@DEBUG_VALUE: mbedtls_ssl_cookie_write:ctx <- $r0
	@DEBUG_VALUE: mbedtls_ssl_cookie_write:p_ctx <- $r0
	@DEBUG_VALUE: mbedtls_ssl_cookie_write:cli_id_len <- [DW_OP_plus_uconst 32] [$sp+0]
	.loc	4 0 9                           @ ../../../ThirdParty/mbedTLS/library/ssl_cookie.c:0:9
	ldr	r1, __arm_cp.4_1
	b	.LBB4_5
.Ltmp26:
.LBB4_4:
	@DEBUG_VALUE: mbedtls_ssl_cookie_write:end <- $r4
	@DEBUG_VALUE: mbedtls_ssl_cookie_write:cli_id <- $r3
	@DEBUG_VALUE: mbedtls_ssl_cookie_write:p <- $r2
	@DEBUG_VALUE: mbedtls_ssl_cookie_write:ctx <- $r0
	@DEBUG_VALUE: mbedtls_ssl_cookie_write:p_ctx <- $r0
	@DEBUG_VALUE: mbedtls_ssl_cookie_write:cli_id_len <- [DW_OP_plus_uconst 32] [$sp+0]
	ldr	r5, [sp, #32]
	.loc	4 173 20 is_stmt 1              @ ../../../ThirdParty/mbedTLS/library/ssl_cookie.c:173:20
	ldr	r1, [r0, #12]
	adds	r6, r1, #1
	str	r6, [r0, #12]
	.loc	4 176 6                         @ ../../../ThirdParty/mbedTLS/library/ssl_cookie.c:176:6
	ldr	r6, [r2]
.Ltmp27:
	@DEBUG_VALUE: mbedtls_ssl_cookie_write:t <- $r1
	.loc	4 176 34 is_stmt 0              @ ../../../ThirdParty/mbedTLS/library/ssl_cookie.c:176:34
	lsrs	r7, r1, #24
	.loc	4 176 13                        @ ../../../ThirdParty/mbedTLS/library/ssl_cookie.c:176:13
	strb	r7, [r6]
	.loc	4 177 34 is_stmt 1              @ ../../../ThirdParty/mbedTLS/library/ssl_cookie.c:177:34
	lsrs	r6, r1, #16
	.loc	4 177 6 is_stmt 0               @ ../../../ThirdParty/mbedTLS/library/ssl_cookie.c:177:6
	ldr	r7, [r2]
	.loc	4 177 13                        @ ../../../ThirdParty/mbedTLS/library/ssl_cookie.c:177:13
	strb	r6, [r7, #1]
	.loc	4 178 34 is_stmt 1              @ ../../../ThirdParty/mbedTLS/library/ssl_cookie.c:178:34
	lsrs	r6, r1, #8
	.loc	4 178 6 is_stmt 0               @ ../../../ThirdParty/mbedTLS/library/ssl_cookie.c:178:6
	ldr	r7, [r2]
	.loc	4 178 13                        @ ../../../ThirdParty/mbedTLS/library/ssl_cookie.c:178:13
	strb	r6, [r7, #2]
	.loc	4 179 6 is_stmt 1               @ ../../../ThirdParty/mbedTLS/library/ssl_cookie.c:179:6
	ldr	r6, [r2]
	.loc	4 179 13 is_stmt 0              @ ../../../ThirdParty/mbedTLS/library/ssl_cookie.c:179:13
	strb	r1, [r6, #3]
	.loc	4 180 8 is_stmt 1               @ ../../../ThirdParty/mbedTLS/library/ssl_cookie.c:180:8
	ldr	r1, [r2]
.Ltmp28:
	adds	r6, r1, #4
	str	r6, [r2]
	.loc	4 187 11                        @ ../../../ThirdParty/mbedTLS/library/ssl_cookie.c:187:11
	str	r3, [sp]
	str	r5, [sp, #4]
	mov	r3, r4
.Ltmp29:
	@DEBUG_VALUE: mbedtls_ssl_cookie_write:cli_id <- [DW_OP_LLVM_entry_value 1] $r3
	bl	ssl_cookie_hmac
.Ltmp30:
	@DEBUG_VALUE: mbedtls_ssl_cookie_write:p_ctx <- [DW_OP_LLVM_entry_value 1] $r0
	mov	r1, r0
.Ltmp31:
	@DEBUG_VALUE: mbedtls_ssl_cookie_write:ret <- $r1
.LBB4_5:
	@DEBUG_VALUE: mbedtls_ssl_cookie_write:end <- $r4
	@DEBUG_VALUE: mbedtls_ssl_cookie_write:cli_id_len <- [DW_OP_plus_uconst 32] [$sp+0]
	.loc	4 197 1                         @ ../../../ThirdParty/mbedTLS/library/ssl_cookie.c:197:1
	mov	r0, r1
	add	sp, #12
.Ltmp32:
	pop	{r4, r5, r6, r7, pc}
.Ltmp33:
	.p2align	2
@ %bb.6:
	.loc	4 0 1 is_stmt 0                 @ ../../../ThirdParty/mbedTLS/library/ssl_cookie.c:0:1
__arm_cp.4_0:
	.long	4294938368                      @ 0xffff8f00
.Lcpi_end0:
	.size	__arm_cp.4_0, .Lcpi_end0-__arm_cp.4_0
__arm_cp.4_1:
	.long	4294940160                      @ 0xffff9600
.Lcpi_end1:
	.size	__arm_cp.4_1, .Lcpi_end1-__arm_cp.4_1
.Lfunc_end4:
	.size	mbedtls_ssl_cookie_write, .Lfunc_end4-mbedtls_ssl_cookie_write
	.cfi_endproc
	.cantunwind
	.fnend
                                        @ -- End function
	.section	.text.ssl_cookie_hmac,"ax",%progbits
	.p2align	2                               @ -- Begin function ssl_cookie_hmac
	.type	ssl_cookie_hmac,%function
	.code	16                              @ @ssl_cookie_hmac
	.thumb_func
ssl_cookie_hmac:
.Lfunc_begin5:
	.loc	4 133 0 is_stmt 1               @ ../../../ThirdParty/mbedTLS/library/ssl_cookie.c:133:0
	.fnstart
	.cfi_startproc
@ %bb.0:
	@DEBUG_VALUE: ssl_cookie_hmac:hmac_ctx <- $r0
	@DEBUG_VALUE: ssl_cookie_hmac:time <- $r1
	@DEBUG_VALUE: ssl_cookie_hmac:p <- $r2
	@DEBUG_VALUE: ssl_cookie_hmac:end <- $r3
	.save	{r4, r5, r6, r7, lr}
	push	{r4, r5, r6, r7, lr}
	.cfi_def_cfa_offset 20
	.cfi_offset lr, -4
	.cfi_offset r7, -8
	.cfi_offset r6, -12
	.cfi_offset r5, -16
	.cfi_offset r4, -20
	.pad	#36
	sub	sp, #36
	.cfi_def_cfa_offset 56
	mov	r6, r0
.Ltmp34:
	@DEBUG_VALUE: ssl_cookie_hmac:cli_id_len <- [DW_OP_plus_uconst 60] [$sp+0]
	@DEBUG_VALUE: ssl_cookie_hmac:cli_id <- [DW_OP_plus_uconst 56] [$sp+0]
	@DEBUG_VALUE: ssl_cookie_hmac:end <- $r3
	@DEBUG_VALUE: ssl_cookie_hmac:p <- $r2
	@DEBUG_VALUE: ssl_cookie_hmac:time <- $r1
	@DEBUG_VALUE: ssl_cookie_hmac:hmac_ctx <- $r6
	.loc	4 136 25 prologue_end           @ ../../../ThirdParty/mbedTLS/library/ssl_cookie.c:136:25
	ldr	r0, [r2]
	.loc	4 136 23 is_stmt 0              @ ../../../ThirdParty/mbedTLS/library/ssl_cookie.c:136:23
	subs	r0, r3, r0
.Ltmp35:
	.loc	4 136 9                         @ ../../../ThirdParty/mbedTLS/library/ssl_cookie.c:136:9
	cmp	r0, #28
	bhs	.LBB5_2
.Ltmp36:
@ %bb.1:
	@DEBUG_VALUE: ssl_cookie_hmac:hmac_ctx <- $r6
	@DEBUG_VALUE: ssl_cookie_hmac:end <- $r3
	@DEBUG_VALUE: ssl_cookie_hmac:p <- $r2
	@DEBUG_VALUE: ssl_cookie_hmac:time <- $r1
	@DEBUG_VALUE: ssl_cookie_hmac:cli_id <- [DW_OP_plus_uconst 56] [$sp+0]
	@DEBUG_VALUE: ssl_cookie_hmac:cli_id_len <- [DW_OP_plus_uconst 60] [$sp+0]
	.loc	4 0 9                           @ ../../../ThirdParty/mbedTLS/library/ssl_cookie.c:0:9
	ldr	r5, __arm_cp.5_0
	b	.LBB5_7
.Ltmp37:
.LBB5_2:
	@DEBUG_VALUE: ssl_cookie_hmac:hmac_ctx <- $r6
	@DEBUG_VALUE: ssl_cookie_hmac:end <- $r3
	@DEBUG_VALUE: ssl_cookie_hmac:p <- $r2
	@DEBUG_VALUE: ssl_cookie_hmac:time <- $r1
	@DEBUG_VALUE: ssl_cookie_hmac:cli_id <- [DW_OP_plus_uconst 56] [$sp+0]
	@DEBUG_VALUE: ssl_cookie_hmac:cli_id_len <- [DW_OP_plus_uconst 60] [$sp+0]
	mov	r4, r2
.Ltmp38:
	@DEBUG_VALUE: ssl_cookie_hmac:p <- $r4
	mov	r7, r1
.Ltmp39:
	@DEBUG_VALUE: ssl_cookie_hmac:time <- $r7
	.loc	4 139 9 is_stmt 1               @ ../../../ThirdParty/mbedTLS/library/ssl_cookie.c:139:9
	mov	r0, r6
	bl	mbedtls_md_hmac_reset
.Ltmp40:
	@DEBUG_VALUE: ssl_cookie_hmac:end <- [DW_OP_LLVM_entry_value 1] $r3
	.loc	4 0 9 is_stmt 0                 @ ../../../ThirdParty/mbedTLS/library/ssl_cookie.c:0:9
	ldr	r5, __arm_cp.5_1
	.loc	4 139 49                        @ ../../../ThirdParty/mbedTLS/library/ssl_cookie.c:139:49
	cbnz	r0, .LBB5_7
.Ltmp41:
@ %bb.3:
	@DEBUG_VALUE: ssl_cookie_hmac:time <- $r7
	@DEBUG_VALUE: ssl_cookie_hmac:hmac_ctx <- $r6
	@DEBUG_VALUE: ssl_cookie_hmac:p <- $r4
	@DEBUG_VALUE: ssl_cookie_hmac:cli_id <- [DW_OP_plus_uconst 56] [$sp+0]
	@DEBUG_VALUE: ssl_cookie_hmac:cli_id_len <- [DW_OP_plus_uconst 60] [$sp+0]
	@DEBUG_VALUE: ssl_cookie_hmac:end <- [DW_OP_LLVM_entry_value 1] $r3
	.loc	4 0 49                          @ ../../../ThirdParty/mbedTLS/library/ssl_cookie.c:0:49
	movs	r2, #4
	.loc	4 140 13 is_stmt 1              @ ../../../ThirdParty/mbedTLS/library/ssl_cookie.c:140:13
	mov	r0, r6
	mov	r1, r7
	bl	mbedtls_md_hmac_update
	.loc	4 140 62 is_stmt 0              @ ../../../ThirdParty/mbedTLS/library/ssl_cookie.c:140:62
	cbnz	r0, .LBB5_7
.Ltmp42:
@ %bb.4:
	@DEBUG_VALUE: ssl_cookie_hmac:time <- $r7
	@DEBUG_VALUE: ssl_cookie_hmac:hmac_ctx <- $r6
	@DEBUG_VALUE: ssl_cookie_hmac:p <- $r4
	@DEBUG_VALUE: ssl_cookie_hmac:cli_id <- [DW_OP_plus_uconst 56] [$sp+0]
	@DEBUG_VALUE: ssl_cookie_hmac:cli_id_len <- [DW_OP_plus_uconst 60] [$sp+0]
	@DEBUG_VALUE: ssl_cookie_hmac:end <- [DW_OP_LLVM_entry_value 1] $r3
	.loc	4 0 62                          @ ../../../ThirdParty/mbedTLS/library/ssl_cookie.c:0:62
	ldr	r2, [sp, #60]
	ldr	r1, [sp, #56]
	.loc	4 141 13 is_stmt 1              @ ../../../ThirdParty/mbedTLS/library/ssl_cookie.c:141:13
	mov	r0, r6
	bl	mbedtls_md_hmac_update
	.loc	4 141 73 is_stmt 0              @ ../../../ThirdParty/mbedTLS/library/ssl_cookie.c:141:73
	cbnz	r0, .LBB5_7
.Ltmp43:
@ %bb.5:
	@DEBUG_VALUE: ssl_cookie_hmac:time <- $r7
	@DEBUG_VALUE: ssl_cookie_hmac:hmac_ctx <- $r6
	@DEBUG_VALUE: ssl_cookie_hmac:p <- $r4
	@DEBUG_VALUE: ssl_cookie_hmac:cli_id <- [DW_OP_plus_uconst 56] [$sp+0]
	@DEBUG_VALUE: ssl_cookie_hmac:cli_id_len <- [DW_OP_plus_uconst 60] [$sp+0]
	@DEBUG_VALUE: ssl_cookie_hmac:end <- [DW_OP_LLVM_entry_value 1] $r3
	.loc	4 0 73                          @ ../../../ThirdParty/mbedTLS/library/ssl_cookie.c:0:73
	add	r1, sp, #4
	.loc	4 142 13 is_stmt 1              @ ../../../ThirdParty/mbedTLS/library/ssl_cookie.c:142:13
	mov	r0, r6
	bl	mbedtls_md_hmac_finish
.Ltmp44:
	.loc	4 139 9                         @ ../../../ThirdParty/mbedTLS/library/ssl_cookie.c:139:9
	cbnz	r0, .LBB5_7
.Ltmp45:
@ %bb.6:
	@DEBUG_VALUE: ssl_cookie_hmac:time <- $r7
	@DEBUG_VALUE: ssl_cookie_hmac:hmac_ctx <- $r6
	@DEBUG_VALUE: ssl_cookie_hmac:p <- $r4
	@DEBUG_VALUE: ssl_cookie_hmac:cli_id <- [DW_OP_plus_uconst 56] [$sp+0]
	@DEBUG_VALUE: ssl_cookie_hmac:cli_id_len <- [DW_OP_plus_uconst 60] [$sp+0]
	@DEBUG_VALUE: ssl_cookie_hmac:end <- [DW_OP_LLVM_entry_value 1] $r3
	.loc	4 147 13                        @ ../../../ThirdParty/mbedTLS/library/ssl_cookie.c:147:13
	ldr	r0, [r4]
	add	r1, sp, #4
	movs	r2, #28
	.loc	4 147 5 is_stmt 0               @ ../../../ThirdParty/mbedTLS/library/ssl_cookie.c:147:5
	bl	__aeabi_memcpy
	.loc	4 148 8 is_stmt 1               @ ../../../ThirdParty/mbedTLS/library/ssl_cookie.c:148:8
	ldr	r0, [r4]
	adds	r0, #28
	str	r0, [r4]
	movs	r5, #0
.Ltmp46:
.LBB5_7:
	@DEBUG_VALUE: ssl_cookie_hmac:hmac_ctx <- $r6
	@DEBUG_VALUE: ssl_cookie_hmac:cli_id <- [DW_OP_plus_uconst 56] [$sp+0]
	@DEBUG_VALUE: ssl_cookie_hmac:cli_id_len <- [DW_OP_plus_uconst 60] [$sp+0]
	.loc	4 151 1                         @ ../../../ThirdParty/mbedTLS/library/ssl_cookie.c:151:1
	mov	r0, r5
	add	sp, #36
.Ltmp47:
	pop	{r4, r5, r6, r7, pc}
.Ltmp48:
	.p2align	2
@ %bb.8:
	.loc	4 0 1 is_stmt 0                 @ ../../../ThirdParty/mbedTLS/library/ssl_cookie.c:0:1
__arm_cp.5_0:
	.long	4294940160                      @ 0xffff9600
.Lcpi_end2:
	.size	__arm_cp.5_0, .Lcpi_end2-__arm_cp.5_0
__arm_cp.5_1:
	.long	4294939648                      @ 0xffff9400
.Lcpi_end3:
	.size	__arm_cp.5_1, .Lcpi_end3-__arm_cp.5_1
.Lfunc_end5:
	.size	ssl_cookie_hmac, .Lfunc_end5-ssl_cookie_hmac
	.cfi_endproc
	.cantunwind
	.fnend
                                        @ -- End function
	.section	.text.mbedtls_ssl_cookie_check,"ax",%progbits
	.hidden	mbedtls_ssl_cookie_check        @ -- Begin function mbedtls_ssl_cookie_check
	.globl	mbedtls_ssl_cookie_check
	.p2align	2
	.type	mbedtls_ssl_cookie_check,%function
	.code	16                              @ @mbedtls_ssl_cookie_check
	.thumb_func
mbedtls_ssl_cookie_check:
.Lfunc_begin6:
	.loc	4 205 0 is_stmt 1               @ ../../../ThirdParty/mbedTLS/library/ssl_cookie.c:205:0
	.fnstart
	.cfi_startproc
@ %bb.0:
	@DEBUG_VALUE: mbedtls_ssl_cookie_check:p_ctx <- $r0
	@DEBUG_VALUE: mbedtls_ssl_cookie_check:cookie <- $r1
	@DEBUG_VALUE: mbedtls_ssl_cookie_check:cookie_len <- $r2
	@DEBUG_VALUE: mbedtls_ssl_cookie_check:cli_id <- $r3
	.save	{r4, r5, r6, r7, lr}
	push	{r4, r5, r6, r7, lr}
	.cfi_def_cfa_offset 20
	.cfi_offset lr, -4
	.cfi_offset r7, -8
	.cfi_offset r6, -12
	.cfi_offset r5, -16
	.cfi_offset r4, -20
	.pad	#44
	sub	sp, #44
	.cfi_def_cfa_offset 64
	mov	r5, r0
	add	r0, sp, #16
.Ltmp49:
	@DEBUG_VALUE: mbedtls_ssl_cookie_check:p_ctx <- [DW_OP_LLVM_entry_value 1] $r0
	@DEBUG_VALUE: mbedtls_ssl_cookie_check:p <- [DW_OP_plus_uconst 16, DW_OP_stack_value] $sp
	@DEBUG_VALUE: mbedtls_ssl_cookie_check:ret <- 0
	@DEBUG_VALUE: mbedtls_ssl_cookie_check:cli_id_len <- [DW_OP_plus_uconst 64] [$sp+0]
	@DEBUG_VALUE: mbedtls_ssl_cookie_check:cli_id <- $r3
	@DEBUG_VALUE: mbedtls_ssl_cookie_check:cookie_len <- $r2
	@DEBUG_VALUE: mbedtls_ssl_cookie_check:cookie <- $r1
	@DEBUG_VALUE: mbedtls_ssl_cookie_check:p_ctx <- $r5
	.loc	4 208 20 prologue_end           @ ../../../ThirdParty/mbedTLS/library/ssl_cookie.c:208:20
	str	r0, [sp, #12]
	ldr	r4, __arm_cp.6_0
.Ltmp50:
	@DEBUG_VALUE: mbedtls_ssl_cookie_check:ctx <- $r5
	.loc	4 212 21                        @ ../../../ThirdParty/mbedTLS/library/ssl_cookie.c:212:21
	cbz	r5, .LBB6_8
.Ltmp51:
@ %bb.1:
	@DEBUG_VALUE: mbedtls_ssl_cookie_check:ctx <- $r5
	@DEBUG_VALUE: mbedtls_ssl_cookie_check:p_ctx <- $r5
	@DEBUG_VALUE: mbedtls_ssl_cookie_check:cli_id <- $r3
	@DEBUG_VALUE: mbedtls_ssl_cookie_check:cookie_len <- $r2
	@DEBUG_VALUE: mbedtls_ssl_cookie_check:cookie <- $r1
	@DEBUG_VALUE: mbedtls_ssl_cookie_check:cli_id_len <- [DW_OP_plus_uconst 64] [$sp+0]
	@DEBUG_VALUE: mbedtls_ssl_cookie_check:p <- [DW_OP_plus_uconst 16, DW_OP_stack_value] $sp
	@DEBUG_VALUE: mbedtls_ssl_cookie_check:ret <- 0
	@DEBUG_VALUE: mbedtls_ssl_cookie_check:cookie <- $r1
	cbz	r3, .LBB6_8
.Ltmp52:
@ %bb.2:
	@DEBUG_VALUE: mbedtls_ssl_cookie_check:ctx <- $r5
	@DEBUG_VALUE: mbedtls_ssl_cookie_check:p_ctx <- $r5
	@DEBUG_VALUE: mbedtls_ssl_cookie_check:cli_id <- $r3
	@DEBUG_VALUE: mbedtls_ssl_cookie_check:cookie_len <- $r2
	@DEBUG_VALUE: mbedtls_ssl_cookie_check:cookie <- $r1
	@DEBUG_VALUE: mbedtls_ssl_cookie_check:cli_id_len <- [DW_OP_plus_uconst 64] [$sp+0]
	@DEBUG_VALUE: mbedtls_ssl_cookie_check:p <- [DW_OP_plus_uconst 16, DW_OP_stack_value] $sp
	@DEBUG_VALUE: mbedtls_ssl_cookie_check:ret <- 0
	@DEBUG_VALUE: mbedtls_ssl_cookie_check:cookie <- $r1
	.loc	4 0 21 is_stmt 0                @ ../../../ThirdParty/mbedTLS/library/ssl_cookie.c:0:21
	movs	r7, #0
	mvns	r4, r7
	.loc	4 215 9 is_stmt 1               @ ../../../ThirdParty/mbedTLS/library/ssl_cookie.c:215:9
	cmp	r2, #32
	bne	.LBB6_8
.Ltmp53:
@ %bb.3:
	@DEBUG_VALUE: mbedtls_ssl_cookie_check:ctx <- $r5
	@DEBUG_VALUE: mbedtls_ssl_cookie_check:p_ctx <- $r5
	@DEBUG_VALUE: mbedtls_ssl_cookie_check:cli_id <- $r3
	@DEBUG_VALUE: mbedtls_ssl_cookie_check:cookie_len <- $r2
	@DEBUG_VALUE: mbedtls_ssl_cookie_check:cookie <- $r1
	@DEBUG_VALUE: mbedtls_ssl_cookie_check:cli_id_len <- [DW_OP_plus_uconst 64] [$sp+0]
	@DEBUG_VALUE: mbedtls_ssl_cookie_check:p <- [DW_OP_plus_uconst 16, DW_OP_stack_value] $sp
	@DEBUG_VALUE: mbedtls_ssl_cookie_check:ret <- 0
	.loc	4 0 9 is_stmt 0                 @ ../../../ThirdParty/mbedTLS/library/ssl_cookie.c:0:9
	mov	r6, r1
.Ltmp54:
	@DEBUG_VALUE: mbedtls_ssl_cookie_check:cookie <- $r6
	ldr	r0, [sp, #64]
.Ltmp55:
	@DEBUG_VALUE: mbedtls_ssl_cookie_check:p <- [DW_OP_plus_uconst 12, DW_OP_deref] $sp
	.loc	4 223 9 is_stmt 1               @ ../../../ThirdParty/mbedTLS/library/ssl_cookie.c:223:9
	str	r3, [sp]
	str	r0, [sp, #4]
	add	r3, sp, #16
.Ltmp56:
	@DEBUG_VALUE: mbedtls_ssl_cookie_check:cli_id <- [DW_OP_LLVM_entry_value 1] $r3
	.loc	4 224 32                        @ ../../../ThirdParty/mbedTLS/library/ssl_cookie.c:224:32
	adds	r3, #28
	add	r2, sp, #12
.Ltmp57:
	@DEBUG_VALUE: mbedtls_ssl_cookie_check:cookie_len <- [DW_OP_LLVM_entry_value 1] $r2
	.loc	4 223 9                         @ ../../../ThirdParty/mbedTLS/library/ssl_cookie.c:223:9
	mov	r0, r5
	bl	ssl_cookie_hmac
.Ltmp58:
	@DEBUG_VALUE: mbedtls_ssl_cookie_check:ret <- undef
	.loc	4 234 9                         @ ../../../ThirdParty/mbedTLS/library/ssl_cookie.c:234:9
	cbnz	r0, .LBB6_8
.Ltmp59:
@ %bb.4:
	@DEBUG_VALUE: mbedtls_ssl_cookie_check:cookie <- $r6
	@DEBUG_VALUE: mbedtls_ssl_cookie_check:ctx <- $r5
	@DEBUG_VALUE: mbedtls_ssl_cookie_check:p_ctx <- $r5
	@DEBUG_VALUE: mbedtls_ssl_cookie_check:p <- [DW_OP_plus_uconst 12, DW_OP_deref] $sp
	@DEBUG_VALUE: mbedtls_ssl_cookie_check:cli_id_len <- [DW_OP_plus_uconst 64] [$sp+0]
	@DEBUG_VALUE: mbedtls_ssl_cookie_check:cookie_len <- [DW_OP_LLVM_entry_value 1] $r2
	@DEBUG_VALUE: mbedtls_ssl_cookie_check:cli_id <- [DW_OP_LLVM_entry_value 1] $r3
	.loc	4 237 42                        @ ../../../ThirdParty/mbedTLS/library/ssl_cookie.c:237:42
	adds	r0, r6, #4
	add	r1, sp, #16
	.loc	4 237 9 is_stmt 0               @ ../../../ThirdParty/mbedTLS/library/ssl_cookie.c:237:9
	bl	mbedtls_ssl_safer_memcmp
.Ltmp60:
	.loc	4 237 9                         @ ../../../ThirdParty/mbedTLS/library/ssl_cookie.c:237:9
	cbnz	r0, .LBB6_8
.Ltmp61:
@ %bb.5:
	@DEBUG_VALUE: mbedtls_ssl_cookie_check:cookie <- $r6
	@DEBUG_VALUE: mbedtls_ssl_cookie_check:ctx <- $r5
	@DEBUG_VALUE: mbedtls_ssl_cookie_check:p_ctx <- $r5
	@DEBUG_VALUE: mbedtls_ssl_cookie_check:p <- [DW_OP_plus_uconst 12, DW_OP_deref] $sp
	@DEBUG_VALUE: mbedtls_ssl_cookie_check:cli_id_len <- [DW_OP_plus_uconst 64] [$sp+0]
	@DEBUG_VALUE: mbedtls_ssl_cookie_check:cookie_len <- [DW_OP_LLVM_entry_value 1] $r2
	@DEBUG_VALUE: mbedtls_ssl_cookie_check:cli_id <- [DW_OP_LLVM_entry_value 1] $r3
	@DEBUG_VALUE: mbedtls_ssl_cookie_check:cur_time <- undef
	@DEBUG_VALUE: mbedtls_ssl_cookie_check:cookie_time <- undef
	.loc	4 251 14 is_stmt 1              @ ../../../ThirdParty/mbedTLS/library/ssl_cookie.c:251:14
	ldr	r0, [r5, #16]
	.loc	4 251 27 is_stmt 0              @ ../../../ThirdParty/mbedTLS/library/ssl_cookie.c:251:27
	cbz	r0, .LBB6_7
.Ltmp62:
@ %bb.6:
	@DEBUG_VALUE: mbedtls_ssl_cookie_check:cookie <- $r6
	@DEBUG_VALUE: mbedtls_ssl_cookie_check:ctx <- $r5
	@DEBUG_VALUE: mbedtls_ssl_cookie_check:p_ctx <- $r5
	@DEBUG_VALUE: mbedtls_ssl_cookie_check:p <- [DW_OP_plus_uconst 12, DW_OP_deref] $sp
	@DEBUG_VALUE: mbedtls_ssl_cookie_check:cli_id_len <- [DW_OP_plus_uconst 64] [$sp+0]
	@DEBUG_VALUE: mbedtls_ssl_cookie_check:cookie_len <- [DW_OP_LLVM_entry_value 1] $r2
	@DEBUG_VALUE: mbedtls_ssl_cookie_check:cli_id <- [DW_OP_LLVM_entry_value 1] $r3
	.loc	4 246 21 is_stmt 1              @ ../../../ThirdParty/mbedTLS/library/ssl_cookie.c:246:21
	ldrb	r1, [r6]
	.loc	4 246 47 is_stmt 0              @ ../../../ThirdParty/mbedTLS/library/ssl_cookie.c:246:47
	lsls	r1, r1, #24
	.loc	4 247 37 is_stmt 1              @ ../../../ThirdParty/mbedTLS/library/ssl_cookie.c:247:37
	ldrb	r2, [r6, #1]
	.loc	4 247 47 is_stmt 0              @ ../../../ThirdParty/mbedTLS/library/ssl_cookie.c:247:47
	lsls	r2, r2, #16
	.loc	4 246 55 is_stmt 1              @ ../../../ThirdParty/mbedTLS/library/ssl_cookie.c:246:55
	adds	r1, r2, r1
	.loc	4 248 37                        @ ../../../ThirdParty/mbedTLS/library/ssl_cookie.c:248:37
	ldrb	r2, [r6, #2]
	.loc	4 248 47 is_stmt 0              @ ../../../ThirdParty/mbedTLS/library/ssl_cookie.c:248:47
	lsls	r2, r2, #8
	.loc	4 247 55 is_stmt 1              @ ../../../ThirdParty/mbedTLS/library/ssl_cookie.c:247:55
	adds	r1, r1, r2
	.loc	4 249 37                        @ ../../../ThirdParty/mbedTLS/library/ssl_cookie.c:249:37
	ldrb	r2, [r6, #3]
	.loc	4 248 55                        @ ../../../ThirdParty/mbedTLS/library/ssl_cookie.c:248:55
	adds	r1, r1, r2
.Ltmp63:
	@DEBUG_VALUE: mbedtls_ssl_cookie_check:cookie_time <- $r1
	.loc	4 243 21                        @ ../../../ThirdParty/mbedTLS/library/ssl_cookie.c:243:21
	ldr	r2, [r5, #12]
.Ltmp64:
	@DEBUG_VALUE: mbedtls_ssl_cookie_check:cur_time <- $r2
	.loc	4 251 39                        @ ../../../ThirdParty/mbedTLS/library/ssl_cookie.c:251:39
	subs	r1, r2, r1
.Ltmp65:
	.loc	4 251 9 is_stmt 0               @ ../../../ThirdParty/mbedTLS/library/ssl_cookie.c:251:9
	cmp	r1, r0
	bhi	.LBB6_8
.Ltmp66:
.LBB6_7:
	@DEBUG_VALUE: mbedtls_ssl_cookie_check:cookie <- $r6
	@DEBUG_VALUE: mbedtls_ssl_cookie_check:ctx <- $r5
	@DEBUG_VALUE: mbedtls_ssl_cookie_check:p_ctx <- $r5
	@DEBUG_VALUE: mbedtls_ssl_cookie_check:p <- [DW_OP_plus_uconst 12, DW_OP_deref] $sp
	@DEBUG_VALUE: mbedtls_ssl_cookie_check:cli_id_len <- [DW_OP_plus_uconst 64] [$sp+0]
	@DEBUG_VALUE: mbedtls_ssl_cookie_check:cookie_len <- [DW_OP_LLVM_entry_value 1] $r2
	@DEBUG_VALUE: mbedtls_ssl_cookie_check:cli_id <- [DW_OP_LLVM_entry_value 1] $r3
	.loc	4 0 0                           @ ../../../ThirdParty/mbedTLS/library/ssl_cookie.c:0:0
	mov	r4, r7
.Ltmp67:
.LBB6_8:
	@DEBUG_VALUE: mbedtls_ssl_cookie_check:ctx <- $r5
	@DEBUG_VALUE: mbedtls_ssl_cookie_check:p_ctx <- $r5
	@DEBUG_VALUE: mbedtls_ssl_cookie_check:cli_id_len <- [DW_OP_plus_uconst 64] [$sp+0]
	.loc	4 255 1 is_stmt 1               @ ../../../ThirdParty/mbedTLS/library/ssl_cookie.c:255:1
	mov	r0, r4
	add	sp, #44
.Ltmp68:
	pop	{r4, r5, r6, r7, pc}
.Ltmp69:
	.p2align	2
@ %bb.9:
	.loc	4 0 1 is_stmt 0                 @ ../../../ThirdParty/mbedTLS/library/ssl_cookie.c:0:1
__arm_cp.6_0:
	.long	4294938368                      @ 0xffff8f00
.Lcpi_end4:
	.size	__arm_cp.6_0, .Lcpi_end4-__arm_cp.6_0
.Lfunc_end6:
	.size	mbedtls_ssl_cookie_check, .Lfunc_end6-mbedtls_ssl_cookie_check
	.cfi_endproc
	.cantunwind
	.fnend
                                        @ -- End function
	.section	.text.mbedtls_ssl_safer_memcmp,"ax",%progbits
	.p2align	1                               @ -- Begin function mbedtls_ssl_safer_memcmp
	.type	mbedtls_ssl_safer_memcmp,%function
	.code	16                              @ @mbedtls_ssl_safer_memcmp
	.thumb_func
mbedtls_ssl_safer_memcmp:
.Lfunc_begin7:
	.file	5 "C:\\Users\\shw26\\OneDrive\\Desktop\\2021\\2021-1\\\354\272\241\354\212\244\355\206\244\353\224\224\354\236\220\354\235\2702\\Nuvoton\\M2351_BSP_v3.00.004\\M2351Series_BSP_CMSIS_V3.00.004\\MyProject\\PulseMonitoring\\Secure" "../../../ThirdParty/mbedTLS/include/mbedtls\\ssl_internal.h"
	.loc	5 779 0 is_stmt 1               @ ../../../ThirdParty/mbedTLS/include/mbedtls\ssl_internal.h:779:0
	.fnstart
	.cfi_startproc
@ %bb.0:
	@DEBUG_VALUE: mbedtls_ssl_safer_memcmp:a <- $r0
	@DEBUG_VALUE: mbedtls_ssl_safer_memcmp:b <- $r1
	.save	{r4, lr}
	push	{r4, lr}
	.cfi_def_cfa_offset 8
	.cfi_offset lr, -4
	.cfi_offset r4, -8
	.pad	#4
	sub	sp, #4
	.cfi_def_cfa_offset 12
.Ltmp70:
	@DEBUG_VALUE: mbedtls_ssl_safer_memcmp:A <- undef
	@DEBUG_VALUE: mbedtls_ssl_safer_memcmp:B <- undef
	mov	r3, sp
	movs	r2, #0
	@DEBUG_VALUE: mbedtls_ssl_safer_memcmp:n <- 28
	@DEBUG_VALUE: mbedtls_ssl_safer_memcmp:b <- $r1
	@DEBUG_VALUE: mbedtls_ssl_safer_memcmp:a <- $r0
.Ltmp71:
	.loc	5 783 28 prologue_end           @ ../../../ThirdParty/mbedTLS/include/mbedtls\ssl_internal.h:783:28
	strb	r2, [r3]
.Ltmp72:
	@DEBUG_VALUE: mbedtls_ssl_safer_memcmp:i <- 0
.LBB7_1:                                @ =>This Inner Loop Header: Depth=1
	@DEBUG_VALUE: mbedtls_ssl_safer_memcmp:b <- $r1
	@DEBUG_VALUE: mbedtls_ssl_safer_memcmp:a <- $r0
	@DEBUG_VALUE: mbedtls_ssl_safer_memcmp:n <- 28
	@DEBUG_VALUE: mbedtls_ssl_safer_memcmp:i <- $r2
	.loc	5 790 27                        @ ../../../ThirdParty/mbedTLS/include/mbedtls\ssl_internal.h:790:27
	ldrb	r3, [r0, r2]
.Ltmp73:
	@DEBUG_VALUE: x <- $r3
	.loc	5 790 37 is_stmt 0              @ ../../../ThirdParty/mbedTLS/include/mbedtls\ssl_internal.h:790:37
	ldrb	r4, [r1, r2]
.Ltmp74:
	@DEBUG_VALUE: y <- $r4
	.loc	5 791 19 is_stmt 1              @ ../../../ThirdParty/mbedTLS/include/mbedtls\ssl_internal.h:791:19
	eors	r4, r3
.Ltmp75:
	.loc	5 791 14 is_stmt 0              @ ../../../ThirdParty/mbedTLS/include/mbedtls\ssl_internal.h:791:14
	ldr	r3, [sp]
.Ltmp76:
	orrs	r3, r4
	mov	r4, sp
	strb	r3, [r4]
.Ltmp77:
	.loc	5 785 25 is_stmt 1              @ ../../../ThirdParty/mbedTLS/include/mbedtls\ssl_internal.h:785:25
	adds	r2, r2, #1
.Ltmp78:
	@DEBUG_VALUE: mbedtls_ssl_safer_memcmp:i <- $r2
	.loc	5 785 5 is_stmt 0               @ ../../../ThirdParty/mbedTLS/include/mbedtls\ssl_internal.h:785:5
	cmp	r2, #28
	bne	.LBB7_1
.Ltmp79:
@ %bb.2:
	@DEBUG_VALUE: mbedtls_ssl_safer_memcmp:i <- $r2
	@DEBUG_VALUE: mbedtls_ssl_safer_memcmp:b <- $r1
	@DEBUG_VALUE: mbedtls_ssl_safer_memcmp:a <- $r0
	@DEBUG_VALUE: mbedtls_ssl_safer_memcmp:n <- 28
	.loc	5 0 5                           @ ../../../ThirdParty/mbedTLS/include/mbedtls\ssl_internal.h:0:5
	mov	r0, sp
.Ltmp80:
	@DEBUG_VALUE: mbedtls_ssl_safer_memcmp:a <- [DW_OP_LLVM_entry_value 1] $r0
	.loc	5 794 13 is_stmt 1              @ ../../../ThirdParty/mbedTLS/include/mbedtls\ssl_internal.h:794:13
	ldrb	r0, [r0]
	.loc	5 794 5 is_stmt 0               @ ../../../ThirdParty/mbedTLS/include/mbedtls\ssl_internal.h:794:5
	add	sp, #4
	pop	{r4, pc}
.Ltmp81:
.Lfunc_end7:
	.size	mbedtls_ssl_safer_memcmp, .Lfunc_end7-mbedtls_ssl_safer_memcmp
	.cfi_endproc
	.cantunwind
	.fnend
                                        @ -- End function
	.section	".note.GNU-stack","",%progbits
	.eabi_attribute	30, 1	@ Tag_ABI_optimization_goals
	.ARM_attribute	16, 1	@ Tag_AV_eba