	.text
	.syntax unified
	.eabi_attribute	67, "2.09"	@ Tag_conformance
	.cpu	cortex-m23
	.eabi_attribute	6, 16	@ Tag_CPU_arch
	.eabi_attribute	7, 77	@ Tag_CPU_arch_profile
	.eabi_attribute	8, 0	@ Tag_ARM_ISA_use
	.eabi_attribute	9, 3	@ Tag_THUMB_ISA_use
	.eabi_attribute	34, 0	@ Tag_CPU_unaligned_access
	.eabi_attribute	17, 1	@ Tag_ABI_PCS_GOT_use
	.eabi_attribute	20, 2	@ Tag_ABI_FP_denormal
	.eabi_attribute	21, 0	@ Tag_ABI_FP_exceptions
	.eabi_attribute	23, 1	@ Tag_ABI_FP_number_model
	.eabi_attribute	24, 1	@ Tag_ABI_align_needed
	.eabi_attribute	25, 1	@ Tag_ABI_align_preserved
	.eabi_attribute	38, 1	@ Tag_ABI_FP_16bit_format
	.eabi_attribute	18, 2	@ Tag_ABI_PCS_wchar_t
	.eabi_attribute	26, 1	@ Tag_ABI_enum_size
	.eabi_attribute	14, 0	@ Tag_ABI_PCS_R9_use
	.file	"ssl_client1.c"
	.file	1 "C:\\Users\\shw26\\OneDrive\\Desktop\\2021\\2021-1\\\354\272\241\354\212\244\355\206\244\353\224\224\354\236\220\354\235\2702\\Nuvoton\\M2351_BSP_v3.00.004\\M2351Series_BSP_CMSIS_V3.00.004\\MyProject\\PulseMonitoring\\Secure" "../../../ThirdParty/mbedTLS/include/mbedtls/md.h"
	.file	2 "C:\\Users\\shw26\\OneDrive\\Desktop\\2021\\2021-1\\\354\272\241\354\212\244\355\206\244\353\224\224\354\236\220\354\235\2702\\Nuvoton\\M2351_BSP_v3.00.004\\M2351Series_BSP_CMSIS_V3.00.004\\MyProject\\PulseMonitoring\\Secure" "../../../ThirdParty/mbedTLS/include/mbedtls/pk.h"
	.file	3 "C:\\Users\\shw26\\OneDrive\\Desktop\\2021\\2021-1\\\354\272\241\354\212\244\355\206\244\353\224\224\354\236\220\354\235\2702\\Nuvoton\\M2351_BSP_v3.00.004\\M2351Series_BSP_CMSIS_V3.00.004\\MyProject\\PulseMonitoring\\Secure" "../../../ThirdParty/mbedTLS/include/mbedtls/ecp.h"
	.file	4 "C:\\" "Keil_v5\\ARM\\ARMCLANG\\Bin\\..\\include\\stdio.h"
	.section	.text.ssl_client1,"ax",%progbits
	.hidden	ssl_client1                     @ -- Begin function ssl_client1
	.globl	ssl_client1
	.p2align	2
	.type	ssl_client1,%function
	.code	16                              @ @ssl_client1
	.thumb_func
ssl_client1:
.Lfunc_begin0:
	.file	5 "C:\\Users\\shw26\\OneDrive\\Desktop\\2021\\2021-1\\\354\272\241\354\212\244\355\206\244\353\224\224\354\236\220\354\235\2702\\Nuvoton\\M2351_BSP_v3.00.004\\M2351Series_BSP_CMSIS_V3.00.004\\MyProject\\PulseMonitoring\\Secure" "ssl_client1.c"
	.loc	5 86 0                          @ ssl_client1.c:86:0
	.fnstart
	.cfi_sections .debug_frame
	.cfi_startproc
@ %bb.0:
	.save	{r4, r5, r6, lr}
	push	{r4, r5, r6, lr}
	.cfi_def_cfa_offset 16
	.cfi_offset lr, -4
	.cfi_offset r6, -8
	.cfi_offset r5, -12
	.cfi_offset r4, -16
	ldr	r6, __arm_cp.0_40
	.pad	#2920
	add	sp, r6
	.cfi_def_cfa_offset 2936
.Ltmp0:
	@DEBUG_VALUE: ssl_client1:ret <- 1
	@DEBUG_VALUE: ssl_client1:exit_code <- 1
	movs	r4, #1
.Ltmp1:
	.loc	5 101 5 prologue_end            @ ssl_client1.c:101:5
	mov	r0, r4
	bl	mbedtls_debug_set_threshold
	ldr	r0, __arm_cp.0_41
	add	r0, sp
	.loc	5 107 5                         @ ssl_client1.c:107:5
	bl	mbedtls_net_init
	add	r0, sp, #616
	.loc	5 108 5                         @ ssl_client1.c:108:5
	bl	mbedtls_ssl_init
	add	r0, sp, #440
	.loc	5 109 5                         @ ssl_client1.c:109:5
	bl	mbedtls_ssl_config_init
	add	r0, sp, #116
	.loc	5 110 5                         @ ssl_client1.c:110:5
	bl	mbedtls_x509_crt_init
	add	r5, sp, #936
	.loc	5 111 5                         @ ssl_client1.c:111:5
	mov	r0, r5
	bl	mbedtls_ctr_drbg_init
	.loc	5 113 5                         @ ssl_client1.c:113:5
	adr	r0, .LCPI0_0
	bl	__2printf
	.loc	5 114 5                         @ ssl_client1.c:114:5
	ldr	r0, __arm_cp.0_1
	bl	fflush
	add	r6, sp, #1020
	adds	r6, #236
	.loc	5 116 5                         @ ssl_client1.c:116:5
	mov	r0, r6
	bl	mbedtls_entropy_init
	movs	r0, #11
.Ltmp2:
	.loc	5 117 17                        @ ssl_client1.c:117:17
	str	r0, [sp]
	ldr	r1, __arm_cp.0_2
	adr	r3, .LCPI0_3
.Ltmp3:
	@DEBUG_VALUE: ssl_client1:pers <- $r3
	mov	r0, r5
	mov	r2, r6
	bl	mbedtls_ctr_drbg_seed
.Ltmp4:
	@DEBUG_VALUE: ssl_client1:ret <- $r0
	.loc	5 117 9 is_stmt 0               @ ssl_client1.c:117:9
	cbnz	r0, .LBB0_3
.Ltmp5:
@ %bb.1:
	@DEBUG_VALUE: ssl_client1:ret <- $r0
	@DEBUG_VALUE: ssl_client1:exit_code <- 1
	.loc	5 125 5 is_stmt 1               @ ssl_client1.c:125:5
	adr	r0, .LCPI0_5
.Ltmp6:
	bl	puts
	.loc	5 130 5                         @ ssl_client1.c:130:5
	ldr	r0, __arm_cp.0_6
	bl	__2printf
	.loc	5 131 5                         @ ssl_client1.c:131:5
	ldr	r0, __arm_cp.0_1
	bl	fflush
	.loc	5 134 27                        @ ssl_client1.c:134:27
	ldr	r0, __arm_cp.0_7
	ldr	r2, [r0]
	add	r0, sp, #116
	.loc	5 133 11                        @ ssl_client1.c:133:11
	ldr	r1, __arm_cp.0_8
	bl	mbedtls_x509_crt_parse
	mov	r6, r0
.Ltmp7:
	@DEBUG_VALUE: ssl_client1:ret <- $r6
	.loc	5 135 9                         @ ssl_client1.c:135:9
	cmp	r0, #0
	bpl	.LBB0_7
.Ltmp8:
@ %bb.2:
	@DEBUG_VALUE: ssl_client1:ret <- $r6
	@DEBUG_VALUE: ssl_client1:exit_code <- 1
	.loc	5 137 99                        @ ssl_client1.c:137:99
	rsbs	r1, r6, #0
	.loc	5 137 9 is_stmt 0               @ ssl_client1.c:137:9
	ldr	r0, __arm_cp.0_38
	b	.LBB0_4
.Ltmp9:
.LBB0_3:
	@DEBUG_VALUE: ssl_client1:ret <- $r0
	@DEBUG_VALUE: ssl_client1:exit_code <- 1
	.loc	5 0 0                           @ ssl_client1.c:0:0
	mov	r6, r0
.Ltmp10:
	@DEBUG_VALUE: ssl_client1:ret <- $r6
	.loc	5 121 9 is_stmt 1               @ ssl_client1.c:121:9
	adr	r0, .LCPI0_4
	mov	r1, r6
.Ltmp11:
.LBB0_4:
	@DEBUG_VALUE: ssl_client1:ret <- $r6
	@DEBUG_VALUE: ssl_client1:exit_code <- 1
	.loc	5 0 0 is_stmt 0                 @ ssl_client1.c:0:0
	bl	__2printf
	movs	r5, #0
	@DEBUG_VALUE: ssl_client1:ret <- $r6
.Ltmp12:
	@DEBUG_VALUE: ssl_client1:exit_code <- $r4
	@DEBUG_LABEL: ssl_client1:exit
	.loc	5 294 9 is_stmt 1               @ ssl_client1.c:294:9
	cbnz	r5, .LBB0_6
.Ltmp13:
.LBB0_5:
	@DEBUG_VALUE: ssl_client1:ret <- $r6
	@DEBUG_VALUE: ssl_client1:exit_code <- $r4
	.loc	5 0 9 is_stmt 0                 @ ssl_client1.c:0:9
	add	r5, sp, #16
	movs	r2, #100
.Ltmp14:
	.loc	5 297 9 is_stmt 1               @ ssl_client1.c:297:9
	mov	r0, r6
	mov	r1, r5
	bl	mbedtls_strerror
	.loc	5 298 9                         @ ssl_client1.c:298:9
	ldr	r0, __arm_cp.0_39
	mov	r1, r6
	mov	r2, r5
	bl	__2printf
.Ltmp15:
.LBB0_6:
	@DEBUG_VALUE: ssl_client1:ret <- $r6
	@DEBUG_VALUE: ssl_client1:exit_code <- $r4
	.loc	5 0 9 is_stmt 0                 @ ssl_client1.c:0:9
	ldr	r0, __arm_cp.0_41
	add	r0, sp
	.loc	5 302 5 is_stmt 1               @ ssl_client1.c:302:5
	bl	mbedtls_net_free
	add	r0, sp, #116
	.loc	5 304 5                         @ ssl_client1.c:304:5
	bl	mbedtls_x509_crt_free
	add	r0, sp, #616
	.loc	5 305 5                         @ ssl_client1.c:305:5
	bl	mbedtls_ssl_free
	add	r0, sp, #440
	.loc	5 306 5                         @ ssl_client1.c:306:5
	bl	mbedtls_ssl_config_free
	add	r0, sp, #936
	.loc	5 307 5                         @ ssl_client1.c:307:5
	bl	mbedtls_ctr_drbg_free
	add	r0, sp, #1020
	adds	r0, #236
	.loc	5 308 5                         @ ssl_client1.c:308:5
	bl	mbedtls_entropy_free
	.loc	5 315 5                         @ ssl_client1.c:315:5
	mov	r0, r4
	bl	exit
.Ltmp16:
.LBB0_7:
	@DEBUG_VALUE: ssl_client1:ret <- $r6
	@DEBUG_VALUE: ssl_client1:exit_code <- 1
	.loc	5 141 5                         @ ssl_client1.c:141:5
	ldr	r0, __arm_cp.0_9
	mov	r1, r6
	bl	__2printf
	.loc	5 146 5                         @ ssl_client1.c:146:5
	adr	r0, .LCPI0_10
	ldr	r6, __arm_cp.0_11
.Ltmp17:
	ldr	r7, __arm_cp.0_12
	mov	r1, r6
	mov	r2, r7
	bl	__2printf
	.loc	5 147 5                         @ ssl_client1.c:147:5
	ldr	r0, __arm_cp.0_1
	bl	fflush
	ldr	r0, __arm_cp.0_41
	add	r0, sp
	movs	r5, #0
.Ltmp18:
	.loc	5 149 17                        @ ssl_client1.c:149:17
	mov	r1, r6
	mov	r2, r7
	mov	r3, r5
	bl	mbedtls_net_connect
.Ltmp19:
	@DEBUG_VALUE: ssl_client1:ret <- $r0
	.loc	5 149 9 is_stmt 0               @ ssl_client1.c:149:9
	cmp	r0, #0
	bne	.LBB0_15
.Ltmp20:
@ %bb.8:
	@DEBUG_VALUE: ssl_client1:ret <- $r0
	@DEBUG_VALUE: ssl_client1:exit_code <- 1
	.loc	5 156 5 is_stmt 1               @ ssl_client1.c:156:5
	adr	r0, .LCPI0_5
.Ltmp21:
	bl	puts
	.loc	5 161 5                         @ ssl_client1.c:161:5
	ldr	r0, __arm_cp.0_14
	bl	__2printf
	.loc	5 162 5                         @ ssl_client1.c:162:5
	ldr	r0, __arm_cp.0_1
	bl	fflush
	add	r0, sp, #440
	movs	r5, #0
.Ltmp22:
	.loc	5 164 17                        @ ssl_client1.c:164:17
	mov	r1, r5
	mov	r2, r5
	mov	r3, r5
	bl	mbedtls_ssl_config_defaults
.Ltmp23:
	@DEBUG_VALUE: ssl_client1:ret <- $r0
	.loc	5 164 9 is_stmt 0               @ ssl_client1.c:164:9
	cmp	r0, #0
	bne	.LBB0_16
.Ltmp24:
@ %bb.9:
	@DEBUG_VALUE: ssl_client1:ret <- $r0
	@DEBUG_VALUE: ssl_client1:exit_code <- 1
	.loc	5 173 5 is_stmt 1               @ ssl_client1.c:173:5
	adr	r0, .LCPI0_5
.Ltmp25:
	bl	puts
	add	r6, sp, #440
	movs	r4, #1
	.loc	5 177 5                         @ ssl_client1.c:177:5
	mov	r0, r6
	mov	r1, r4
	bl	mbedtls_ssl_conf_authmode
	add	r1, sp, #116
	movs	r5, #0
	.loc	5 178 5                         @ ssl_client1.c:178:5
	mov	r0, r6
	mov	r2, r5
	bl	mbedtls_ssl_conf_ca_chain
	.loc	5 179 5                         @ ssl_client1.c:179:5
	ldr	r1, __arm_cp.0_16
	add	r2, sp, #936
	mov	r0, r6
	bl	mbedtls_ssl_conf_rng
	.loc	5 180 5                         @ ssl_client1.c:180:5
	ldr	r1, __arm_cp.0_17
	ldr	r2, __arm_cp.0_1
	mov	r0, r6
	bl	mbedtls_ssl_conf_dbg
	add	r0, sp, #616
.Ltmp26:
	.loc	5 182 17                        @ ssl_client1.c:182:17
	mov	r1, r6
	bl	mbedtls_ssl_setup
.Ltmp27:
	@DEBUG_VALUE: ssl_client1:ret <- $r0
	.loc	5 182 9 is_stmt 0               @ ssl_client1.c:182:9
	cbnz	r0, .LBB0_17
.Ltmp28:
@ %bb.10:
	@DEBUG_VALUE: ssl_client1:ret <- $r0
	@DEBUG_VALUE: ssl_client1:exit_code <- 1
	.loc	5 0 9                           @ ssl_client1.c:0:9
	add	r0, sp, #616
.Ltmp29:
	.loc	5 188 17 is_stmt 1              @ ssl_client1.c:188:17
	ldr	r1, __arm_cp.0_11
	bl	mbedtls_ssl_set_hostname
.Ltmp30:
	@DEBUG_VALUE: ssl_client1:ret <- $r0
	.loc	5 188 9 is_stmt 0               @ ssl_client1.c:188:9
	cbnz	r0, .LBB0_18
.Ltmp31:
@ %bb.11:
	@DEBUG_VALUE: ssl_client1:ret <- $r0
	@DEBUG_VALUE: ssl_client1:exit_code <- 1
	.loc	5 0 9                           @ ssl_client1.c:0:9
	movs	r5, #0
	.loc	5 194 5 is_stmt 1               @ ssl_client1.c:194:5
	str	r5, [sp]
	add	r0, sp, #616
.Ltmp32:
	.loc	5 0 5 is_stmt 0                 @ ssl_client1.c:0:5
	ldr	r1, __arm_cp.0_41
	add	r1, sp
	.loc	5 194 5                         @ ssl_client1.c:194:5
	ldr	r2, __arm_cp.0_20
	ldr	r3, __arm_cp.0_21
	bl	mbedtls_ssl_set_bio
	.loc	5 199 5 is_stmt 1               @ ssl_client1.c:199:5
	ldr	r0, __arm_cp.0_22
	bl	__2printf
	.loc	5 200 5                         @ ssl_client1.c:200:5
	ldr	r0, __arm_cp.0_1
	bl	fflush
	movs	r0, #128
	str	r0, [sp, #12]                   @ 4-byte Spill
.Ltmp33:
.LBB0_12:                               @ =>This Inner Loop Header: Depth=1
	@DEBUG_VALUE: ssl_client1:exit_code <- 1
	.loc	5 0 5 is_stmt 0                 @ ssl_client1.c:0:5
	add	r0, sp, #616
	.loc	5 202 20 is_stmt 1              @ ssl_client1.c:202:20
	bl	mbedtls_ssl_handshake
.Ltmp34:
	@DEBUG_VALUE: ssl_client1:ret <- $r0
	.loc	5 202 5 is_stmt 0               @ ssl_client1.c:202:5
	cbz	r0, .LBB0_22
.Ltmp35:
@ %bb.13:                               @   in Loop: Header=BB0_12 Depth=1
	@DEBUG_VALUE: ssl_client1:ret <- $r0
	@DEBUG_VALUE: ssl_client1:exit_code <- 1
	.loc	5 0 0                           @ ssl_client1.c:0:0
	mov	r6, r0
.Ltmp36:
	@DEBUG_VALUE: ssl_client1:ret <- $r6
	.loc	5 204 46 is_stmt 1              @ ssl_client1.c:204:46
	ldr	r1, [sp, #12]                   @ 4-byte Reload
	bics	r0, r1
	ldr	r1, __arm_cp.0_23
	cmp	r0, r1
	beq	.LBB0_12
.Ltmp37:
@ %bb.14:
	@DEBUG_VALUE: ssl_client1:ret <- $r6
	@DEBUG_VALUE: ssl_client1:exit_code <- 1
	.loc	5 206 101                       @ ssl_client1.c:206:101
	rsbs	r1, r6, #0
	.loc	5 206 13 is_stmt 0              @ ssl_client1.c:206:13
	ldr	r0, __arm_cp.0_24
	b	.LBB0_20
.Ltmp38:
.LBB0_15:
	@DEBUG_VALUE: ssl_client1:ret <- $r0
	@DEBUG_VALUE: ssl_client1:exit_code <- 1
	.loc	5 0 0                           @ ssl_client1.c:0:0
	mov	r6, r0
.Ltmp39:
	@DEBUG_VALUE: ssl_client1:ret <- $r6
	.loc	5 152 9 is_stmt 1               @ ssl_client1.c:152:9
	ldr	r0, __arm_cp.0_13
	b	.LBB0_19
.Ltmp40:
.LBB0_16:
	@DEBUG_VALUE: ssl_client1:ret <- $r0
	@DEBUG_VALUE: ssl_client1:exit_code <- 1
	.loc	5 0 0 is_stmt 0                 @ ssl_client1.c:0:0
	mov	r6, r0
.Ltmp41:
	@DEBUG_VALUE: ssl_client1:ret <- $r6
	.loc	5 169 9 is_stmt 1               @ ssl_client1.c:169:9
	ldr	r0, __arm_cp.0_15
	b	.LBB0_19
.Ltmp42:
.LBB0_17:
	@DEBUG_VALUE: ssl_client1:ret <- $r0
	@DEBUG_VALUE: ssl_client1:exit_code <- 1
	.loc	5 0 0 is_stmt 0                 @ ssl_client1.c:0:0
	mov	r6, r0
.Ltmp43:
	@DEBUG_VALUE: ssl_client1:ret <- $r6
	.loc	5 184 9 is_stmt 1               @ ssl_client1.c:184:9
	ldr	r0, __arm_cp.0_18
	b	.LBB0_19
.Ltmp44:
.LBB0_18:
	@DEBUG_VALUE: ssl_client1:ret <- $r0
	@DEBUG_VALUE: ssl_client1:exit_code <- 1
	.loc	5 0 0 is_stmt 0                 @ ssl_client1.c:0:0
	mov	r6, r0
.Ltmp45:
	@DEBUG_VALUE: ssl_client1:ret <- $r6
	.loc	5 190 9 is_stmt 1               @ ssl_client1.c:190:9
	ldr	r0, __arm_cp.0_19
.Ltmp46:
.LBB0_19:
	@DEBUG_VALUE: ssl_client1:ret <- $r6
	@DEBUG_VALUE: ssl_client1:exit_code <- 1
	.loc	5 0 0 is_stmt 0                 @ ssl_client1.c:0:0
	mov	r1, r6
.Ltmp47:
.LBB0_20:
	@DEBUG_VALUE: ssl_client1:ret <- $r6
	@DEBUG_VALUE: ssl_client1:exit_code <- 1
	bl	__2printf
	@DEBUG_VALUE: ssl_client1:ret <- $r6
.Ltmp48:
	@DEBUG_VALUE: ssl_client1:exit_code <- $r4
	@DEBUG_LABEL: ssl_client1:exit
	.loc	5 294 9 is_stmt 1               @ ssl_client1.c:294:9
	cmp	r5, #0
	beq	.LBB0_21
	b	.LBB0_6
.Ltmp49:
.LBB0_21:
	b	.LBB0_5
.LBB0_22:
.Ltmp50:
	@DEBUG_VALUE: ssl_client1:ret <- $r0
	@DEBUG_VALUE: ssl_client1:exit_code <- 1
	.loc	5 211 5                         @ ssl_client1.c:211:5
	adr	r0, .LCPI0_5
.Ltmp51:
	bl	puts
	.loc	5 216 5                         @ ssl_client1.c:216:5
	ldr	r0, __arm_cp.0_25
	bl	__2printf
	add	r0, sp, #616
.Ltmp52:
	.loc	5 219 19                        @ ssl_client1.c:219:19
	bl	mbedtls_ssl_get_verify_result
.Ltmp53:
	@DEBUG_VALUE: ssl_client1:flags <- $r0
	.loc	5 219 9 is_stmt 0               @ ssl_client1.c:219:9
	cbnz	r0, .LBB0_24
.Ltmp54:
@ %bb.23:
	@DEBUG_VALUE: ssl_client1:flags <- $r0
	@DEBUG_VALUE: ssl_client1:exit_code <- 1
	.loc	5 230 9 is_stmt 1               @ ssl_client1.c:230:9
	adr	r0, .LCPI0_5
.Ltmp55:
	.loc	5 0 9 is_stmt 0                 @ ssl_client1.c:0:9
	b	.LBB0_25
.Ltmp56:
.LBB0_24:
	@DEBUG_VALUE: ssl_client1:flags <- $r0
	@DEBUG_VALUE: ssl_client1:exit_code <- 1
	mov	r6, r0
.Ltmp57:
	@DEBUG_VALUE: ssl_client1:flags <- $r6
	.loc	5 223 9 is_stmt 1               @ ssl_client1.c:223:9
	ldr	r0, __arm_cp.0_26
	bl	puts
	ldr	r7, __arm_cp.0_42
	add	r7, sp
	.loc	5 225 9                         @ ssl_client1.c:225:9
	adr	r2, .LCPI0_27
	mov	r0, r7
	movw	r1, #512
	mov	r3, r6
	bl	mbedtls_x509_crt_verify_info
	.loc	5 227 9                         @ ssl_client1.c:227:9
	mov	r0, r7
.Ltmp58:
.LBB0_25:
	@DEBUG_VALUE: ssl_client1:exit_code <- 1
	.loc	5 0 0 is_stmt 0                 @ ssl_client1.c:0:0
	bl	puts
.Ltmp59:
	.loc	5 235 5 is_stmt 1               @ ssl_client1.c:235:5
	ldr	r0, __arm_cp.0_28
	bl	__2printf
	.loc	5 236 5                         @ ssl_client1.c:236:5
	ldr	r0, __arm_cp.0_1
	bl	fflush
	.loc	5 238 11                        @ ssl_client1.c:238:11
	ldr	r0, __arm_cp.0_29
	ldr	r1, __arm_cp.0_42
	add	r1, sp
	ldm	r0!, {r2, r3, r6, r7}
	stm	r1!, {r2, r3, r6, r7}
	ldrh	r2, [r0]
	strh	r2, [r1]
	ldrb	r0, [r0, #2]
	strb	r0, [r1, #2]
.Ltmp60:
	@DEBUG_VALUE: ssl_client1:len <- 18
	.loc	5 0 11 is_stmt 0                @ ssl_client1.c:0:11
	movs	r7, #18
.Ltmp61:
.LBB0_26:                               @ =>This Inner Loop Header: Depth=1
	@DEBUG_VALUE: ssl_client1:len <- 18
	@DEBUG_VALUE: ssl_client1:exit_code <- 1
	add	r0, sp, #616
	ldr	r1, __arm_cp.0_42
	add	r1, sp
	.loc	5 240 20 is_stmt 1              @ ssl_client1.c:240:20
	mov	r2, r7
	bl	mbedtls_ssl_write
	mov	r6, r0
.Ltmp62:
	@DEBUG_VALUE: ssl_client1:ret <- $r6
	.loc	5 240 5 is_stmt 0               @ ssl_client1.c:240:5
	cmp	r0, #0
	bgt	.LBB0_29
.Ltmp63:
@ %bb.27:                               @   in Loop: Header=BB0_26 Depth=1
	@DEBUG_VALUE: ssl_client1:ret <- $r6
	@DEBUG_VALUE: ssl_client1:len <- 18
	@DEBUG_VALUE: ssl_client1:exit_code <- 1
	.loc	5 242 46 is_stmt 1              @ ssl_client1.c:242:46
	mov	r0, r6
	ldr	r1, [sp, #12]                   @ 4-byte Reload
	bics	r0, r1
	ldr	r1, __arm_cp.0_23
	cmp	r0, r1
	beq	.LBB0_26
.Ltmp64:
@ %bb.28:
	@DEBUG_VALUE: ssl_client1:ret <- $r6
	@DEBUG_VALUE: ssl_client1:len <- 18
	@DEBUG_VALUE: ssl_client1:exit_code <- 1
	.loc	5 244 13                        @ ssl_client1.c:244:13
	ldr	r0, __arm_cp.0_37
	b	.LBB0_19
.Ltmp65:
.LBB0_29:
	@DEBUG_VALUE: ssl_client1:ret <- $r6
	@DEBUG_VALUE: ssl_client1:len <- 18
	@DEBUG_VALUE: ssl_client1:exit_code <- 1
	@DEBUG_VALUE: ssl_client1:len <- $r6
	.loc	5 250 5                         @ ssl_client1.c:250:5
	ldr	r0, __arm_cp.0_30
	ldr	r2, __arm_cp.0_42
	add	r2, sp
	mov	r1, r6
	bl	__2printf
	.loc	5 255 5                         @ ssl_client1.c:255:5
	ldr	r0, __arm_cp.0_31
	bl	__2printf
	.loc	5 256 5                         @ ssl_client1.c:256:5
	ldr	r0, __arm_cp.0_1
	bl	fflush
	ldr	r4, __arm_cp.0_32
	ldr	r7, __arm_cp.0_33
	ldr	r5, __arm_cp.0_34
.Ltmp66:
.LBB0_30:                               @ =>This Inner Loop Header: Depth=1
	@DEBUG_VALUE: ssl_client1:ret <- $r6
	@DEBUG_VALUE: ssl_client1:exit_code <- 1
	@DEBUG_VALUE: ssl_client1:len <- 1023
	.loc	5 0 5 is_stmt 0                 @ ssl_client1.c:0:5
	ldr	r6, __arm_cp.0_42
.Ltmp67:
	add	r6, sp
.Ltmp68:
	.loc	5 261 9 is_stmt 1               @ ssl_client1.c:261:9
	mov	r0, r6
	movw	r1, #1024
	bl	__aeabi_memclr4
	add	r0, sp, #616
	.loc	5 262 15                        @ ssl_client1.c:262:15
	mov	r1, r6
	mov	r2, r4
	bl	mbedtls_ssl_read
	mov	r6, r0
.Ltmp69:
	@DEBUG_VALUE: ssl_client1:ret <- $r6
	.loc	5 264 46                        @ ssl_client1.c:264:46
	ldr	r1, [sp, #12]                   @ 4-byte Reload
	bics	r0, r1
	ldr	r1, __arm_cp.0_23
	cmp	r0, r1
	beq	.LBB0_30
.Ltmp70:
@ %bb.31:                               @   in Loop: Header=BB0_30 Depth=1
	@DEBUG_VALUE: ssl_client1:ret <- $r6
	@DEBUG_VALUE: ssl_client1:len <- 1023
	@DEBUG_VALUE: ssl_client1:exit_code <- 1
	.loc	5 267 13                        @ ssl_client1.c:267:13
	cmp	r6, r7
	beq	.LBB0_37
.Ltmp71:
@ %bb.32:                               @   in Loop: Header=BB0_30 Depth=1
	@DEBUG_VALUE: ssl_client1:ret <- $r6
	@DEBUG_VALUE: ssl_client1:len <- 1023
	@DEBUG_VALUE: ssl_client1:exit_code <- 1
	.loc	5 270 13                        @ ssl_client1.c:270:13
	cmp	r6, #0
	bmi	.LBB0_35
.Ltmp72:
@ %bb.33:                               @   in Loop: Header=BB0_30 Depth=1
	@DEBUG_VALUE: ssl_client1:ret <- $r6
	@DEBUG_VALUE: ssl_client1:len <- 1023
	@DEBUG_VALUE: ssl_client1:exit_code <- 1
	.loc	5 276 13                        @ ssl_client1.c:276:13
	beq	.LBB0_36
.Ltmp73:
@ %bb.34:                               @   in Loop: Header=BB0_30 Depth=1
	@DEBUG_VALUE: ssl_client1:ret <- $r6
	@DEBUG_VALUE: ssl_client1:len <- 1023
	@DEBUG_VALUE: ssl_client1:exit_code <- 1
	@DEBUG_VALUE: ssl_client1:len <- $r6
	.loc	5 0 13 is_stmt 0                @ ssl_client1.c:0:13
	ldr	r2, __arm_cp.0_42
	add	r2, sp
	.loc	5 283 9 is_stmt 1               @ ssl_client1.c:283:9
	mov	r0, r5
	mov	r1, r6
	bl	__2printf
	b	.LBB0_30
.Ltmp74:
.LBB0_35:
	@DEBUG_VALUE: ssl_client1:ret <- $r6
	@DEBUG_VALUE: ssl_client1:len <- 1023
	@DEBUG_VALUE: ssl_client1:exit_code <- 1
	.loc	5 272 13                        @ ssl_client1.c:272:13
	ldr	r0, __arm_cp.0_36
	mov	r1, r6
	bl	__2printf
	b	.LBB0_37
.Ltmp75:
.LBB0_36:
	@DEBUG_VALUE: ssl_client1:ret <- $r6
	@DEBUG_VALUE: ssl_client1:len <- 1023
	@DEBUG_VALUE: ssl_client1:exit_code <- 1
	.loc	5 278 13                        @ ssl_client1.c:278:13
	ldr	r0, __arm_cp.0_35
	bl	puts
.Ltmp76:
.LBB0_37:
	@DEBUG_VALUE: ssl_client1:ret <- $r6
	@DEBUG_VALUE: ssl_client1:len <- 1023
	@DEBUG_VALUE: ssl_client1:exit_code <- 1
	.loc	5 0 13 is_stmt 0                @ ssl_client1.c:0:13
	add	r0, sp, #616
	.loc	5 287 5 is_stmt 1               @ ssl_client1.c:287:5
	bl	mbedtls_ssl_close_notify
	movs	r4, #0
	movs	r5, #1
.Ltmp77:
	@DEBUG_VALUE: ssl_client1:exit_code <- 0
	@DEBUG_VALUE: ssl_client1:ret <- $r6
	@DEBUG_VALUE: ssl_client1:exit_code <- $r4
	@DEBUG_LABEL: ssl_client1:exit
	.loc	5 294 9                         @ ssl_client1.c:294:9
	cmp	r5, #0
	bne	.LBB0_38
	b	.LBB0_5
.Ltmp78:
.LBB0_38:
	b	.LBB0_6
.Ltmp79:
	.p2align	2
@ %bb.39:
	.loc	5 0 9 is_stmt 0                 @ ssl_client1.c:0:9
.LCPI0_0:
.L.str.1:
	.asciz	"\n  . Seeding the random number generator..."
__arm_cp.0_1:
	.long	__stdout
.Lcpi_end0:
	.size	__arm_cp.0_1, .Lcpi_end0-__arm_cp.0_1
__arm_cp.0_2:
	.long	mbedtls_entropy_func
.Lcpi_end1:
	.size	__arm_cp.0_2, .Lcpi_end1-__arm_cp.0_2
.LCPI0_3:
.L.str:
	.asciz	"ssl_client1"
.LCPI0_4:
.L.str.2:
	.asciz	" failed\n  ! mbedtls_ctr_drbg_seed returned %d\n\000"
.LCPI0_5:
.Lstr.34:
.Lstr.32:
.Lstr:
.Lstr.33:
.Lstr.31:
	.asciz	" ok"
__arm_cp.0_6:
	.long	.L.str.4
.Lcpi_end2:
	.size	__arm_cp.0_6, .Lcpi_end2-__arm_cp.0_6
__arm_cp.0_7:
	.long	mbedtls_test_cas_pem_len
.Lcpi_end3:
	.size	__arm_cp.0_7, .Lcpi_end3-__arm_cp.0_7
__arm_cp.0_8:
	.long	mbedtls_test_cas_pem
.Lcpi_end4:
	.size	__arm_cp.0_8, .Lcpi_end4-__arm_cp.0_8
__arm_cp.0_9:
	.long	.L.str.6
.Lcpi_end5:
	.size	__arm_cp.0_9, .Lcpi_end5-__arm_cp.0_9
.LCPI0_10:
.L.str.7:
	.asciz	"  . Connecting to tcp/%s/%s...\000"
__arm_cp.0_11:
	.long	.L.str.8
.Lcpi_end6:
	.size	__arm_cp.0_11, .Lcpi_end6-__arm_cp.0_11
__arm_cp.0_12:
	.long	.L.str.9
.Lcpi_end7:
	.size	__arm_cp.0_12, .Lcpi_end7-__arm_cp.0_12
__arm_cp.0_13:
	.long	.L.str.10
.Lcpi_end8:
	.size	__arm_cp.0_13, .Lcpi_end8-__arm_cp.0_13
__arm_cp.0_14:
	.long	.L.str.11
.Lcpi_end9:
	.size	__arm_cp.0_14, .Lcpi_end9-__arm_cp.0_14
__arm_cp.0_15:
	.long	.L.str.12
.Lcpi_end10:
	.size	__arm_cp.0_15, .Lcpi_end10-__arm_cp.0_15
__arm_cp.0_16:
	.long	mbedtls_ctr_drbg_random
.Lcpi_end11:
	.size	__arm_cp.0_16, .Lcpi_end11-__arm_cp.0_16
__arm_cp.0_17:
	.long	my_debug
.Lcpi_end12:
	.size	__arm_cp.0_17, .Lcpi_end12-__arm_cp.0_17
__arm_cp.0_18:
	.long	.L.str.13
.Lcpi_end13:
	.size	__arm_cp.0_18, .Lcpi_end13-__arm_cp.0_18
__arm_cp.0_19:
	.long	.L.str.14
.Lcpi_end14:
	.size	__arm_cp.0_19, .Lcpi_end14-__arm_cp.0_19
__arm_cp.0_20:
	.long	mbedtls_net_send
.Lcpi_end15:
	.size	__arm_cp.0_20, .Lcpi_end15-__arm_cp.0_20
__arm_cp.0_21:
	.long	mbedtls_net_recv
.Lcpi_end16:
	.size	__arm_cp.0_21, .Lcpi_end16-__arm_cp.0_21
__arm_cp.0_22:
	.long	.L.str.15
.Lcpi_end17:
	.size	__arm_cp.0_22, .Lcpi_end17-__arm_cp.0_22
__arm_cp.0_23:
	.long	4294940416                      @ 0xffff9700
.Lcpi_end18:
	.size	__arm_cp.0_23, .Lcpi_end18-__arm_cp.0_23
__arm_cp.0_24:
	.long	.L.str.16
.Lcpi_end19:
	.size	__arm_cp.0_24, .Lcpi_end19-__arm_cp.0_24
__arm_cp.0_25:
	.long	.L.str.17
.Lcpi_end20:
	.size	__arm_cp.0_25, .Lcpi_end20-__arm_cp.0_25
__arm_cp.0_26:
	.long	.Lstr.36
.Lcpi_end21:
	.size	__arm_cp.0_26, .Lcpi_end21-__arm_cp.0_26
.LCPI0_27:
.L.str.19:
	.asciz	"  ! \000\000\000"
__arm_cp.0_28:
	.long	.L.str.21
.Lcpi_end22:
	.size	__arm_cp.0_28, .Lcpi_end22-__arm_cp.0_28
__arm_cp.0_29:
	.long	.L.str.22
.Lcpi_end23:
	.size	__arm_cp.0_29, .Lcpi_end23-__arm_cp.0_29
__arm_cp.0_30:
	.long	.L.str.24
.Lcpi_end24:
	.size	__arm_cp.0_30, .Lcpi_end24-__arm_cp.0_30
__arm_cp.0_31:
	.long	.L.str.25
.Lcpi_end25:
	.size	__arm_cp.0_31, .Lcpi_end25-__arm_cp.0_31
__arm_cp.0_32:
	.long	1023                            @ 0x3ff
.Lcpi_end26:
	.size	__arm_cp.0_32, .Lcpi_end26-__arm_cp.0_32
__arm_cp.0_33:
	.long	4294936448                      @ 0xffff8780
.Lcpi_end27:
	.size	__arm_cp.0_33, .Lcpi_end27-__arm_cp.0_33
__arm_cp.0_34:
	.long	.L.str.28
.Lcpi_end28:
	.size	__arm_cp.0_34, .Lcpi_end28-__arm_cp.0_34
__arm_cp.0_35:
	.long	.Lstr.35
.Lcpi_end29:
	.size	__arm_cp.0_35, .Lcpi_end29-__arm_cp.0_35
__arm_cp.0_36:
	.long	.L.str.26
.Lcpi_end30:
	.size	__arm_cp.0_36, .Lcpi_end30-__arm_cp.0_36
__arm_cp.0_37:
	.long	.L.str.23
.Lcpi_end31:
	.size	__arm_cp.0_37, .Lcpi_end31-__arm_cp.0_37
__arm_cp.0_38:
	.long	.L.str.5
.Lcpi_end32:
	.size	__arm_cp.0_38, .Lcpi_end32-__arm_cp.0_38
__arm_cp.0_39:
	.long	.L.str.29
.Lcpi_end33:
	.size	__arm_cp.0_39, .Lcpi_end33-__arm_cp.0_39
__arm_cp.0_40:
	.long	4294964376                      @ 0xfffff498
.Lcpi_end34:
	.size	__arm_cp.0_40, .Lcpi_end34-__arm_cp.0_40
__arm_cp.0_41:
	.long	2916                            @ 0xb64
.Lcpi_end35:
	.size	__arm_cp.0_41, .Lcpi_end35-__arm_cp.0_41
__arm_cp.0_42:
	.long	1892                            @ 0x764
.Lcpi_end36:
	.size	__arm_cp.0_42, .Lcpi_end36-__arm_cp.0_42
.Lfunc_end0:
	.size	ssl_client1, .Lfunc_end0-ssl_client1
	.cfi_endproc
	.cantunwind
	.fnend
                                        @ -- End function
	.section	.text.my_debug,"ax",%progbits
	.p2align	2                               @ -- Begin function my_debug
	.type	my_debug,%function
	.code	16                              @ @my_debug
	.thumb_func
my_debug:
.Lfunc_begin1:
	.loc	5 78 0 is_stmt 1                @ ssl_client1.c:78:0
	.fnstart
	.cfi_startproc
@ %bb.0:
	@DEBUG_VALUE: my_debug:ctx <- $r0
	@DEBUG_VALUE: my_debug:level <- $r1
	@DEBUG_VALUE: my_debug:file <- $r2
	@DEBUG_VALUE: my_debug:line <- $r3
	.save	{r4, lr}
	push	{r4, lr}
	.cfi_def_cfa_offset 8
	.cfi_offset lr, -4
	.cfi_offset r4, -8
	.pad	#8
	sub	sp, #8
	.cfi_def_cfa_offset 16
	mov	r4, r0
.Ltmp80:
	@DEBUG_VALUE: my_debug:str <- [DW_OP_plus_uconst 16] [$sp+0]
	@DEBUG_VALUE: my_debug:line <- $r3
	@DEBUG_VALUE: my_debug:file <- $r2
	@DEBUG_VALUE: my_debug:ctx <- $r4
	ldr	r0, [sp, #16]
.Ltmp81:
	.loc	5 81 5 prologue_end             @ ssl_client1.c:81:5
	str	r0, [sp]
	adr	r1, .LCPI1_0
.Ltmp82:
	@DEBUG_VALUE: my_debug:level <- [DW_OP_LLVM_entry_value 1] $r1
	mov	r0, r4
	@DEBUG_VALUE: my_debug:line <- $r3
	@DEBUG_VALUE: my_debug:file <- $r2
	bl	__2fprintf
.Ltmp83:
	@DEBUG_VALUE: my_debug:line <- [DW_OP_LLVM_entry_value 1] $r3
	@DEBUG_VALUE: my_debug:file <- [DW_OP_LLVM_entry_value 1] $r2
	.loc	5 82 5                          @ ssl_client1.c:82:5
	mov	r0, r4
	bl	fflush
	.loc	5 83 1                          @ ssl_client1.c:83:1
	add	sp, #8
.Ltmp84:
	pop	{r4, pc}
.Ltmp85:
	.p2align	2
@ %bb.1:
	.loc	5 0 1 is_stmt 0                 @ ssl_client1.c:0:1
.LCPI1_0:
.L.str.30:
	.asciz	"%s:%04d: %s"
.Lfunc_end1:
	.size	my_debug, .Lfunc_end1-my_debug
	.cfi_endproc
	.cantunwind
	.fnend
                                        @ -- End function
	.type	.L.str.4,%object                @ @.str.4
	.section	.rodata.str1.1,"aMS",%progbits,1
.L.str.4:
	.asciz	"  . Loading the CA root certificate ..."
	.size	.L.str.4, 40

	.type	.L.str.5,%object                @ @.str.5
.L.str.5:
	.asciz	" failed\n  !  mbedtls_x509_crt_parse returned -0x%x\n\n"
	.size	.L.str.5, 53

	.type	.L.str.6,%object                @ @.str.6
.L.str.6:
	.asciz	" ok (%d skipped)\n"
	.size	.L.str.6, 18

	.type	.L.str.8,%object                @ @.str.8
.L.str.8:
	.asciz	"172.27.145.87"
	.size	.L.str.8, 14

	.type	.L.str.9,%object                @ @.str.9
.L.str.9:
	.asciz	"4433"
	.size	.L.str.9, 5

	.type	.L.str.10,%object               @ @.str.10
.L.str.10:
	.asciz	" failed\n  ! mbedtls_net_connect returned %d\n\n"
	.size	.L.str.10, 46

	.type	.L.str.11,%object               @ @.str.11
.L.str.11:
	.asciz	"  . Setting up the SSL/TLS structure..."
	.size	.L.str.11, 40

	.type	.L.str.12,%object               @ @.str.12
.L.str.12:
	.asciz	" failed\n  ! mbedtls_ssl_config_defaults returned %d\n\n"
	.size	.L.str.12, 54

	.type	.L.str.13,%object               @ @.str.13
.L.str.13:
	.asciz	" failed\n  ! mbedtls_ssl_setup returned %d\n\n"
	.size	.L.str.13, 44

	.type	.L.str.14,%object               @ @.str.14
.L.str.14:
	.asciz	" failed\n  ! mbedtls_ssl_set_hostname returned %d\n\n"
	.size	.L.str.14, 51

	.type	.L.str.15,%object               @ @.str.15
.L.str.15:
	.asciz	"  . Performing the SSL/TLS handshake..."
	.size	.L.str.15, 40

	.type	.L.str.16,%object               @ @.str.16
.L.str.16:
	.asciz	" failed\n  ! mbedtls_ssl_handshake returned -0x%x\n\n"
	.size	.L.str.16, 51

	.type	.L.str.17,%object               @ @.str.17
.L.str.17:
	.asciz	"  . Verifying peer X.509 certificate..."
	.size	.L.str.17, 40

	.type	.L.str.21,%object               @ @.str.21
.L.str.21:
	.asciz	"  > Write to server:"
	.size	.L.str.21, 21

	.type	.L.str.22,%object               @ @.str.22
	.section	.rodata.str1.4,"aMS",%progbits,1
	.p2align	2
.L.str.22:
	.asciz	"GET / HTTP/1.0\r\n\r\n"
	.size	.L.str.22, 19

	.type	.L.str.23,%object               @ @.str.23
	.section	.rodata.str1.1,"aMS",%progbits,1
.L.str.23:
	.asciz	" failed\n  ! mbedtls_ssl_write returned %d\n\n"
	.size	.L.str.23, 44

	.type	.L.str.24,%object               @ @.str.24
.L.str.24:
	.asciz	" %d bytes written\n\n%s"
	.size	.L.str.24, 22

	.type	.L.str.25,%object               @ @.str.25
.L.str.25:
	.asciz	"  < Read from server:"
	.size	.L.str.25, 22

	.type	.L.str.26,%object               @ @.str.26
.L.str.26:
	.asciz	"failed\n  ! mbedtls_ssl_read returned %d\n\n"
	.size	.L.str.26, 42

	.type	.L.str.28,%object               @ @.str.28
.L.str.28:
	.asciz	" %d bytes read\n\n%s"
	.size	.L.str.28, 19

	.type	.L.str.29,%object               @ @.str.29
.L.str.29:
	.asciz	"Last error was: %d - %s\n\n"
	.size	.L.str.29, 26

	.type	.Lstr.35,%object                @ @str.35
.Lstr.35:
	.asciz	"\n\nEOF\n"
	.size	.Lstr.35, 7

	.type	.Lstr.36,%object                @ @str.36
.Lstr.36:
	.asciz	" failed"
	.size	.Lstr.36, 8

	.globl	_printf_percent
	.globl	_printf_flags
	.globl	_printf_widthprec
	.globl	_printf_pre_padding
	.globl	_printf_s
	.globl	_printf_x
	.globl	_printf_d
	.globl	_printf_int_dec
	.globl	_printf_longlong_hex
	.globl	_printf_str
	.hidden	_printf_percent
	.hidden	_printf_flags
	.hidden	_printf_widthprec
	.hidden	_printf_pre_padding
	.hidden	_printf_s
	.hidden	_printf_x
	.hidden	_printf_d
	.hidden	_printf_int_dec
	.hidden	_printf_longlong_hex
	.hidden	_printf_str
	.file	6 "C:\\Users\\shw26\\OneDrive\\Desktop\\2021\\2021-1\\\354\272\241\354\212\244\355\206\244\353\224\224\354\236\220\354\235\2702\\Nuvoton\\M2351_BSP_v3.00.004\\M2351Series_BSP_CMSIS_V3.00.004\\MyProject\\PulseMonitoring\\Secure" "../../../ThirdParty/mbedTLS/include\\mbedtls/net_sockets.h"
	.file	7 "C:\\Users\\shw26\\OneDrive\\Desktop\\2021\\2021-1\\\354\272\241\354\212\244\355\206\244\353\224\224\354\236\220\354\235\2702\\Nuvoton\\M2351_BSP_v3.00.004\\M2351Series_BSP_CMSIS_V3.00.004\\MyProject\\PulseMonitoring\\Secure" "../../../ThirdParty/mbedTLS/include\\mbedtls/entropy.h"
	.file	8 "C:\\" "Keil_v5\\ARM\\ARMCLANG\\Bin\\..\\include\\stdint.h"
	.file	9 "C:\\Users\\shw26\\OneDrive\\Desktop\\2021\\2021-1\\\354\272\241\354\212\244\355\206\244\353\224\224\354\236\220\354\235\2702\\Nuvoton\\M2351_BSP_v3.00.004\\M2351Series_BSP_CMSIS_V3.00.004\\MyProject\\PulseMonitoring\\Secure" "../../../ThirdParty/mbedTLS/include/mbedtls/sha512.h"
	.file	10 "C:\\Users\\shw26\\OneDrive\\Desktop\\2021\\2021-1\\\354\272\241\354\212\244\355\206\244\353\224\224\354\236\220\354\235\2702\\Nuvoton\\M2351_BSP_v3.00.004\\M2351Series_BSP_CMSIS_V3.00.004\\MyProject\\PulseMonitoring\\Secure" "../../../ThirdParty/mbedTLS/include\\mbedtls/ctr_drbg.h"
	.file	11 "C:\\Users\\shw26\\OneDrive\\Desktop\\2021\\2021-1\\\354\272\241\354\212\244\355\206\244\353\224\224\354\236\220\354\235\2702\\Nuvoton\\M2351_BSP_v3.00.004\\M2351Series_BSP_CMSIS_V3.00.004\\MyProject\\PulseMonitoring\\Secure" "../../../ThirdParty/mbedTLS/include/mbedtls/aes.h"
	.file	12 "C:\\Users\\shw26\\OneDrive\\Desktop\\2021\\2021-1\\\354\272\241\354\212\244\355\206\244\353\224\224\354\236\220\354\235\2702\\Nuvoton\\M2351_BSP_v3.00.004\\M2351Series_BSP_CMSIS_V3.00.004\\MyProject\\PulseMonitoring\\Secure" "../../../ThirdParty/mbedTLS/include\\mbedtls/ssl.h"
	.file	13 "C:\\Users\\shw26\\OneDrive\\Desktop\\2021\\2021-1\\\354\272\241\354\212\244\355\206\244\353\224\224\354\236\220\354\235\2702\\Nuvoton\\M2351_BSP_v3.00.004\\M2351Series_BSP_CMSIS_V3.00.004\\MyProject\\PulseMonitoring\\Secure" "../../../ThirdParty/mbedTLS/include/mbedtls/x509_crt.h"
	.file	14 "C:\\Users\\shw26\\OneDrive\\Desktop\\2021\\2021-1\\\354\272\241\354\212\244\355\206\244\353\224\224\354\236\220\354\235\2702\\Nuvoton\\M2351_BSP_v3.00.004\\M2351Series_BSP_CMSIS_V3.00.004\\MyProject\\PulseMonitoring\\Secure" "../../../ThirdParty/mbedTLS/include/mbedtls/asn1.h"
	.file	15 "C:\\Users\\shw26\\OneDrive\\Desktop\\2021\\2021-1\\\354\272\241\354\212\244\355\206\244\353\224\224\354\236\220\354\235\2702\\Nuvoton\\M2351_BSP_v3.00.004\\M2351Series_BSP_CMSIS_V3.00.004\\MyProject\\PulseMonitoring\\Secure" "../../../ThirdParty/mbedTLS/include/mbedtls/x509.h"
	.file	16 "C:\\Users\\shw26\\OneDrive\\Desktop\\2021\\2021-1\\\354\272\241\354\212\244\355\206\244\353\224\224\354\236\220\354\235\2702\\Nuvoton\\M2351_BSP_v3.00.004\\M2351Series_BSP_CMSIS_V3.00.004\\MyProject\\PulseMonitoring\\Secure" "../../../ThirdParty/mbedTLS/include/mbedtls/x509_crl.h"
	.file	17 "C:\\Users\\shw26\\OneDrive\\Desktop\\2021\\2021-1\\\354\272\241\354\212\244\355\206\244\353\224\224\354\236\220\354\235\2702\\Nuvoton\\M2351_BSP_v3.00.004\\M2351Series_BSP_CMSIS_V3.00.004\\MyProject\\PulseMonitoring\\Secure" "../../../ThirdParty/mbedTLS/include/mbedtls/bignum.h"
	.section	".note.GNU-stack","",%progbits
	.eabi_attribute	30, 1	@ Tag_ABI_optimization_goals
	.ARM_attribute	16, 1	@ Tag_AV_eba