	.text
	.syntax unified
	.eabi_attribute	67, "2.09"	@ Tag_conformance
	.cpu	cortex-m23
	.eabi_attribute	6, 16	@ Tag_CPU_arch
	.eabi_attribute	7, 77	@ Tag_CPU_arch_profile
	.eabi_attribute	8, 0	@ Tag_ARM_ISA_use
	.eabi_attribute	9, 3	@ Tag_THUMB_ISA_use
	.eabi_attribute	34, 0	@ Tag_CPU_unaligned_access
	.eabi_attribute	17, 1	@ Tag_ABI_PCS_GOT_use
	.eabi_attribute	20, 2	@ Tag_ABI_FP_denormal
	.eabi_attribute	21, 0	@ Tag_ABI_FP_exceptions
	.eabi_attribute	23, 1	@ Tag_ABI_FP_number_model
	.eabi_attribute	24, 1	@ Tag_ABI_align_needed
	.eabi_attribute	25, 1	@ Tag_ABI_align_preserved
	.eabi_attribute	38, 1	@ Tag_ABI_FP_16bit_format
	.eabi_attribute	18, 2	@ Tag_ABI_PCS_wchar_t
	.eabi_attribute	26, 1	@ Tag_ABI_enum_size
	.eabi_attribute	14, 0	@ Tag_ABI_PCS_R9_use
	.file	"sys.c"
	.file	1 "C:\\" "Keil_v5\\ARM\\ARMCLANG\\Bin\\..\\include\\stdint.h"
	.file	2 "C:\\Users\\shw26\\OneDrive\\Desktop\\2021\\2021-1\\\354\272\241\354\212\244\355\206\244\353\224\224\354\236\220\354\235\2702\\Nuvoton\\M2351_BSP_v3.00.004\\M2351Series_BSP_CMSIS_V3.00.004\\MyProject\\PulseMonitoring\\Secure" "../../../Library/Device/Nuvoton/M2351/Include/sys_reg.h"
	.section	.text.SYS_ClearResetSrc,"ax",%progbits
	.hidden	SYS_ClearResetSrc               @ -- Begin function SYS_ClearResetSrc
	.globl	SYS_ClearResetSrc
	.p2align	2
	.type	SYS_ClearResetSrc,%function
	.code	16                              @ @SYS_ClearResetSrc
	.thumb_func
SYS_ClearResetSrc:
.Lfunc_begin0:
	.file	3 "C:\\Users\\shw26\\OneDrive\\Desktop\\2021\\2021-1\\\354\272\241\354\212\244\355\206\244\353\224\224\354\236\220\354\235\2702\\Nuvoton\\M2351_BSP_v3.00.004\\M2351Series_BSP_CMSIS_V3.00.004\\MyProject\\PulseMonitoring\\Secure" "../../../Library/StdDriver/src/sys.c"
	.loc	3 38 0                          @ ../../../Library/StdDriver/src/sys.c:38:0
	.fnstart
	.cfi_sections .debug_frame
	.cfi_startproc
@ %bb.0:
	@DEBUG_VALUE: SYS_ClearResetSrc:u32Src <- $r0
	ldr	r1, __arm_cp.0_0
	@DEBUG_VALUE: SYS_ClearResetSrc:u32Src <- $r0
.Ltmp0:
	.loc	3 39 17 prologue_end            @ ../../../Library/StdDriver/src/sys.c:39:17
	str	r0, [r1]
	.loc	3 40 1                          @ ../../../Library/StdDriver/src/sys.c:40:1
	bx	lr
.Ltmp1:
	.p2align	2
@ %bb.1:
	.loc	3 0 1 is_stmt 0                 @ ../../../Library/StdDriver/src/sys.c:0:1
__arm_cp.0_0:
	.long	1073741828                      @ 0x40000004
.Lcpi_end0:
	.size	__arm_cp.0_0, .Lcpi_end0-__arm_cp.0_0
.Lfunc_end0:
	.size	SYS_ClearResetSrc, .Lfunc_end0-SYS_ClearResetSrc
	.cfi_endproc
	.cantunwind
	.fnend
                                        @ -- End function
	.section	.text.SYS_GetBODStatus,"ax",%progbits
	.hidden	SYS_GetBODStatus                @ -- Begin function SYS_GetBODStatus
	.globl	SYS_GetBODStatus
	.p2align	2
	.type	SYS_GetBODStatus,%function
	.code	16                              @ @SYS_GetBODStatus
	.thumb_func
SYS_GetBODStatus:
.Lfunc_begin1:
	.loc	3 50 0 is_stmt 1                @ ../../../Library/StdDriver/src/sys.c:50:0
	.fnstart
	.cfi_startproc
@ %bb.0:
	ldr	r0, __arm_cp.1_0
.Ltmp2:
	.loc	3 51 19 prologue_end            @ ../../../Library/StdDriver/src/sys.c:51:19
	ldr	r0, [r0]
	.loc	3 51 51 is_stmt 0               @ ../../../Library/StdDriver/src/sys.c:51:51
	lsls	r0, r0, #25
	lsrs	r0, r0, #31
	.loc	3 51 5                          @ ../../../Library/StdDriver/src/sys.c:51:5
	bx	lr
.Ltmp3:
	.p2align	2
@ %bb.1:
	.loc	3 0 5                           @ ../../../Library/StdDriver/src/sys.c:0:5
__arm_cp.1_0:
	.long	1073741848                      @ 0x40000018
.Lcpi_end1:
	.size	__arm_cp.1_0, .Lcpi_end1-__arm_cp.1_0
.Lfunc_end1:
	.size	SYS_GetBODStatus, .Lfunc_end1-SYS_GetBODStatus
	.cfi_endproc
	.cantunwind
	.fnend
                                        @ -- End function
	.section	.text.SYS_GetResetSrc,"ax",%progbits
	.hidden	SYS_GetResetSrc                 @ -- Begin function SYS_GetResetSrc
	.globl	SYS_GetResetSrc
	.p2align	2
	.type	SYS_GetResetSrc,%function
	.code	16                              @ @SYS_GetResetSrc
	.thumb_func
SYS_GetResetSrc:
.Lfunc_begin2:
	.loc	3 61 0 is_stmt 1                @ ../../../Library/StdDriver/src/sys.c:61:0
	.fnstart
	.cfi_startproc
@ %bb.0:
	ldr	r0, __arm_cp.2_0
.Ltmp4:
	.loc	3 62 18 prologue_end            @ ../../../Library/StdDriver/src/sys.c:62:18
	ldr	r0, [r0]
	.loc	3 62 5 is_stmt 0                @ ../../../Library/StdDriver/src/sys.c:62:5
	bx	lr
.Ltmp5:
	.p2align	2
@ %bb.1:
	.loc	3 0 5                           @ ../../../Library/StdDriver/src/sys.c:0:5
__arm_cp.2_0:
	.long	1073741828                      @ 0x40000004
.Lcpi_end2:
	.size	__arm_cp.2_0, .Lcpi_end2-__arm_cp.2_0
.Lfunc_end2:
	.size	SYS_GetResetSrc, .Lfunc_end2-SYS_GetResetSrc
	.cfi_endproc
	.cantunwind
	.fnend
                                        @ -- End function
	.section	.text.SYS_IsRegLocked,"ax",%progbits
	.hidden	SYS_IsRegLocked                 @ -- Begin function SYS_IsRegLocked
	.globl	SYS_IsRegLocked
	.p2align	2
	.type	SYS_IsRegLocked,%function
	.code	16                              @ @SYS_IsRegLocked
	.thumb_func
SYS_IsRegLocked:
.Lfunc_begin3:
	.loc	3 73 0 is_stmt 1                @ ../../../Library/StdDriver/src/sys.c:73:0
	.fnstart
	.cfi_startproc
@ %bb.0:
	ldr	r0, __arm_cp.3_0
.Ltmp6:
	.loc	3 74 17 prologue_end            @ ../../../Library/StdDriver/src/sys.c:74:17
	ldr	r1, [r0]
	movs	r0, #1
	.loc	3 74 12 is_stmt 0               @ ../../../Library/StdDriver/src/sys.c:74:12
	bics	r0, r1
	.loc	3 74 5                          @ ../../../Library/StdDriver/src/sys.c:74:5
	bx	lr
.Ltmp7:
	.p2align	2
@ %bb.1:
	.loc	3 0 5                           @ ../../../Library/StdDriver/src/sys.c:0:5
__arm_cp.3_0:
	.long	1073742080                      @ 0x40000100
.Lcpi_end3:
	.size	__arm_cp.3_0, .Lcpi_end3-__arm_cp.3_0
.Lfunc_end3:
	.size	SYS_IsRegLocked, .Lfunc_end3-SYS_IsRegLocked
	.cfi_endproc
	.cantunwind
	.fnend
                                        @ -- End function
	.section	.text.SYS_ReadPDID,"ax",%progbits
	.hidden	SYS_ReadPDID                    @ -- Begin function SYS_ReadPDID
	.globl	SYS_ReadPDID
	.p2align	1
	.type	SYS_ReadPDID,%function
	.code	16                              @ @SYS_ReadPDID
	.thumb_func
SYS_ReadPDID:
.Lfunc_begin4:
	.loc	3 84 0 is_stmt 1                @ ../../../Library/StdDriver/src/sys.c:84:0
	.fnstart
	.cfi_startproc
@ %bb.0:
	movs	r0, #1
	lsls	r0, r0, #30
.Ltmp8:
	.loc	3 85 17 prologue_end            @ ../../../Library/StdDriver/src/sys.c:85:17
	ldr	r0, [r0]
	.loc	3 85 5 is_stmt 0                @ ../../../Library/StdDriver/src/sys.c:85:5
	bx	lr
.Ltmp9:
.Lfunc_end4:
	.size	SYS_ReadPDID, .Lfunc_end4-SYS_ReadPDID
	.cfi_endproc
	.cantunwind
	.fnend
                                        @ -- End function
	.section	.text.SYS_ResetChip,"ax",%progbits
	.hidden	SYS_ResetChip                   @ -- Begin function SYS_ResetChip
	.globl	SYS_ResetChip
	.p2align	2
	.type	SYS_ResetChip,%function
	.code	16                              @ @SYS_ResetChip
	.thumb_func
SYS_ResetChip:
.Lfunc_begin5:
	.loc	3 96 0 is_stmt 1                @ ../../../Library/StdDriver/src/sys.c:96:0
	.fnstart
	.cfi_startproc
@ %bb.0:
	ldr	r0, __arm_cp.5_0
.Ltmp10:
	.loc	3 97 17 prologue_end            @ ../../../Library/StdDriver/src/sys.c:97:17
	ldr	r1, [r0]
	movs	r2, #1
	orrs	r2, r1
	str	r2, [r0]
	.loc	3 98 1                          @ ../../../Library/StdDriver/src/sys.c:98:1
	bx	lr
.Ltmp11:
	.p2align	2
@ %bb.1:
	.loc	3 0 1 is_stmt 0                 @ ../../../Library/StdDriver/src/sys.c:0:1
__arm_cp.5_0:
	.long	1073741832                      @ 0x40000008
.Lcpi_end4:
	.size	__arm_cp.5_0, .Lcpi_end4-__arm_cp.5_0
.Lfunc_end5:
	.size	SYS_ResetChip, .Lfunc_end5-SYS_ResetChip
	.cfi_endproc
	.cantunwind
	.fnend
                                        @ -- End function
	.section	.text.SYS_ResetCPU,"ax",%progbits
	.hidden	SYS_ResetCPU                    @ -- Begin function SYS_ResetCPU
	.globl	SYS_ResetCPU
	.p2align	2
	.type	SYS_ResetCPU,%function
	.code	16                              @ @SYS_ResetCPU
	.thumb_func
SYS_ResetCPU:
.Lfunc_begin6:
	.loc	3 108 0 is_stmt 1               @ ../../../Library/StdDriver/src/sys.c:108:0
	.fnstart
	.cfi_startproc
@ %bb.0:
	ldr	r0, __arm_cp.6_0
.Ltmp12:
	.loc	3 109 17 prologue_end           @ ../../../Library/StdDriver/src/sys.c:109:17
	ldr	r1, [r0]
	movs	r2, #2
	orrs	r2, r1
	str	r2, [r0]
	.loc	3 110 1                         @ ../../../Library/StdDriver/src/sys.c:110:1
	bx	lr
.Ltmp13:
	.p2align	2
@ %bb.1:
	.loc	3 0 1 is_stmt 0                 @ ../../../Library/StdDriver/src/sys.c:0:1
__arm_cp.6_0:
	.long	1073741832                      @ 0x40000008
.Lcpi_end5:
	.size	__arm_cp.6_0, .Lcpi_end5-__arm_cp.6_0
.Lfunc_end6:
	.size	SYS_ResetCPU, .Lfunc_end6-SYS_ResetCPU
	.cfi_endproc
	.cantunwind
	.fnend
                                        @ -- End function
	.section	.text.SYS_ResetModule,"ax",%progbits
	.hidden	SYS_ResetModule                 @ -- Begin function SYS_ResetModule
	.globl	SYS_ResetModule
	.p2align	2
	.type	SYS_ResetModule,%function
	.code	16                              @ @SYS_ResetModule
	.thumb_func
SYS_ResetModule:
.Lfunc_begin7:
	.loc	3 166 0 is_stmt 1               @ ../../../Library/StdDriver/src/sys.c:166:0
	.fnstart
	.cfi_startproc
@ %bb.0:
	@DEBUG_VALUE: SYS_ResetModule:u32ModuleIndex <- $r0
	@DEBUG_VALUE: SYS_ResetModule:u32ModuleIndex <- $r0
	.save	{r4, lr}
	push	{r4, lr}
	.cfi_def_cfa_offset 8
	.cfi_offset lr, -4
	.cfi_offset r4, -8
.Ltmp14:
	@DEBUG_VALUE: SYS_ResetModule:u32TmpVal <- 0
	@DEBUG_VALUE: SYS_ResetModule:u32TmpAddr <- 0
	.loc	3 171 60 prologue_end           @ ../../../Library/StdDriver/src/sys.c:171:60
	lsrs	r1, r0, #24
	ldr	r2, __arm_cp.7_0
.Ltmp15:
	@DEBUG_VALUE: SYS_ResetModule:u32TmpAddr <- [DW_OP_plus_uconst 1073741832, DW_OP_stack_value] $r1
	.loc	3 172 29                        @ ../../../Library/StdDriver/src/sys.c:172:29
	ldr	r3, [r1, r2]
	movs	r4, #255
	lsls	r4, r4, #24
	.loc	3 170 41                        @ ../../../Library/StdDriver/src/sys.c:170:41
	bics	r0, r4
.Ltmp16:
	@DEBUG_VALUE: SYS_ResetModule:u32ModuleIndex <- [DW_OP_LLVM_entry_value 1] $r0
	.loc	3 0 41 is_stmt 0                @ ../../../Library/StdDriver/src/sys.c:0:41
	movs	r4, #1
	.loc	3 170 22                        @ ../../../Library/StdDriver/src/sys.c:170:22
	lsls	r4, r0
.Ltmp17:
	@DEBUG_VALUE: SYS_ResetModule:u32TmpVal <- undef
	.loc	3 176 29 is_stmt 1              @ ../../../Library/StdDriver/src/sys.c:176:29
	bics	r3, r4
	str	r3, [r1, r2]
	.loc	3 177 1                         @ ../../../Library/StdDriver/src/sys.c:177:1
	pop	{r4, pc}
.Ltmp18:
	.p2align	2
@ %bb.1:
	.loc	3 0 1 is_stmt 0                 @ ../../../Library/StdDriver/src/sys.c:0:1
__arm_cp.7_0:
	.long	1073741832                      @ 0x40000008
.Lcpi_end6:
	.size	__arm_cp.7_0, .Lcpi_end6-__arm_cp.7_0
.Lfunc_end7:
	.size	SYS_ResetModule, .Lfunc_end7-SYS_ResetModule
	.cfi_endproc
	.cantunwind
	.fnend
                                        @ -- End function
	.section	.text.SYS_EnableBOD,"ax",%progbits
	.hidden	SYS_EnableBOD                   @ -- Begin function SYS_EnableBOD
	.globl	SYS_EnableBOD
	.p2align	2
	.type	SYS_EnableBOD,%function
	.code	16                              @ @SYS_EnableBOD
	.thumb_func
SYS_EnableBOD:
.Lfunc_begin8:
	.loc	3 198 0 is_stmt 1               @ ../../../Library/StdDriver/src/sys.c:198:0
	.fnstart
	.cfi_startproc
@ %bb.0:
	@DEBUG_VALUE: SYS_EnableBOD:i32Mode <- $r0
	@DEBUG_VALUE: SYS_EnableBOD:u32BODLevel <- $r1
	.save	{r4, lr}
	push	{r4, lr}
	.cfi_def_cfa_offset 8
	.cfi_offset lr, -4
	.cfi_offset r4, -8
	ldr	r2, __arm_cp.8_0
	@DEBUG_VALUE: SYS_EnableBOD:u32BODLevel <- $r1
	@DEBUG_VALUE: SYS_EnableBOD:i32Mode <- $r0
.Ltmp19:
	.loc	3 200 17 prologue_end           @ ../../../Library/StdDriver/src/sys.c:200:17
	ldr	r3, [r2]
	movs	r4, #1
	orrs	r4, r3
	str	r4, [r2]
	.loc	3 203 25                        @ ../../../Library/StdDriver/src/sys.c:203:25
	ldr	r3, [r2]
	movs	r4, #8
	.loc	3 203 32 is_stmt 0              @ ../../../Library/StdDriver/src/sys.c:203:32
	bics	r3, r4
	.loc	3 203 60                        @ ../../../Library/StdDriver/src/sys.c:203:60
	orrs	r3, r0
	.loc	3 203 17                        @ ../../../Library/StdDriver/src/sys.c:203:17
	str	r3, [r2]
	movs	r0, #7
.Ltmp20:
	@DEBUG_VALUE: SYS_EnableBOD:i32Mode <- [DW_OP_LLVM_entry_value 1] $r0
	.loc	3 0 17                          @ ../../../Library/StdDriver/src/sys.c:0:17
	lsls	r0, r0, #16
	.loc	3 206 25 is_stmt 1              @ ../../../Library/StdDriver/src/sys.c:206:25
	ldr	r3, [r2]
	.loc	3 206 32 is_stmt 0              @ ../../../Library/StdDriver/src/sys.c:206:32
	bics	r3, r0
	.loc	3 206 57                        @ ../../../Library/StdDriver/src/sys.c:206:57
	orrs	r3, r1
	.loc	3 206 17                        @ ../../../Library/StdDriver/src/sys.c:206:17
	str	r3, [r2]
	.loc	3 207 1 is_stmt 1               @ ../../../Library/StdDriver/src/sys.c:207:1
	pop	{r4, pc}
.Ltmp21:
	.p2align	2
@ %bb.1:
	.loc	3 0 1 is_stmt 0                 @ ../../../Library/StdDriver/src/sys.c:0:1
__arm_cp.8_0:
	.long	1073741848                      @ 0x40000018
.Lcpi_end7:
	.size	__arm_cp.8_0, .Lcpi_end7-__arm_cp.8_0
.Lfunc_end8:
	.size	SYS_EnableBOD, .Lfunc_end8-SYS_EnableBOD
	.cfi_endproc
	.cantunwind
	.fnend
                                        @ -- End function
	.section	.text.SYS_DisableBOD,"ax",%progbits
	.hidden	SYS_DisableBOD                  @ -- Begin function SYS_DisableBOD
	.globl	SYS_DisableBOD
	.p2align	2
	.type	SYS_DisableBOD,%function
	.code	16                              @ @SYS_DisableBOD
	.thumb_func
SYS_DisableBOD:
.Lfunc_begin9:
	.loc	3 217 0 is_stmt 1               @ ../../../Library/StdDriver/src/sys.c:217:0
	.fnstart
	.cfi_startproc
@ %bb.0:
	ldr	r0, __arm_cp.9_0
.Ltmp22:
	.loc	3 218 17 prologue_end           @ ../../../Library/StdDriver/src/sys.c:218:17
	ldr	r1, [r0]
	movs	r2, #1
	bics	r1, r2
	str	r1, [r0]
	.loc	3 219 1                         @ ../../../Library/StdDriver/src/sys.c:219:1
	bx	lr
.Ltmp23:
	.p2align	2
@ %bb.1:
	.loc	3 0 1 is_stmt 0                 @ ../../../Library/StdDriver/src/sys.c:0:1
__arm_cp.9_0:
	.long	1073741848                      @ 0x40000018
.Lcpi_end8:
	.size	__arm_cp.9_0, .Lcpi_end8-__arm_cp.9_0
.Lfunc_end9:
	.size	SYS_DisableBOD, .Lfunc_end9-SYS_DisableBOD
	.cfi_endproc
	.cantunwind
	.fnend
                                        @ -- End function
	.section	.text.SYS_SetPowerLevel,"ax",%progbits
	.hidden	SYS_SetPowerLevel               @ -- Begin function SYS_SetPowerLevel
	.globl	SYS_SetPowerLevel
	.p2align	2
	.type	SYS_SetPowerLevel,%function
	.code	16                              @ @SYS_SetPowerLevel
	.thumb_func
SYS_SetPowerLevel:
.Lfunc_begin10:
	.loc	3 232 0 is_stmt 1               @ ../../../Library/StdDriver/src/sys.c:232:0
	.fnstart
	.cfi_startproc
@ %bb.0:
	@DEBUG_VALUE: SYS_SetPowerLevel:u32PowerLevel <- $r0
	ldr	r1, __arm_cp.10_0
	@DEBUG_VALUE: SYS_SetPowerLevel:u32PowerLevel <- $r0
.Ltmp24:
	.loc	3 234 24 prologue_end           @ ../../../Library/StdDriver/src/sys.c:234:24
	ldr	r2, [r1]
	movs	r3, #3
	.loc	3 234 30 is_stmt 0              @ ../../../Library/StdDriver/src/sys.c:234:30
	bics	r2, r3
	.loc	3 234 56                        @ ../../../Library/StdDriver/src/sys.c:234:56
	orrs	r2, r0
	.loc	3 234 16                        @ ../../../Library/StdDriver/src/sys.c:234:16
	str	r2, [r1]
	.loc	3 235 1 is_stmt 1               @ ../../../Library/StdDriver/src/sys.c:235:1
	bx	lr
.Ltmp25:
	.p2align	2
@ %bb.1:
	.loc	3 0 1 is_stmt 0                 @ ../../../Library/StdDriver/src/sys.c:0:1
__arm_cp.10_0:
	.long	1073742328                      @ 0x400001f8
.Lcpi_end9:
	.size	__arm_cp.10_0, .Lcpi_end9-__arm_cp.10_0
.Lfunc_end10:
	.size	SYS_SetPowerLevel, .Lfunc_end10-SYS_SetPowerLevel
	.cfi_endproc
	.cantunwind
	.fnend
                                        @ -- End function
	.section	.text.SYS_SetPowerRegulator,"ax",%progbits
	.hidden	SYS_SetPowerRegulator           @ -- Begin function SYS_SetPowerRegulator
	.globl	SYS_SetPowerRegulator
	.p2align	2
	.type	SYS_SetPowerRegulator,%function
	.code	16                              @ @SYS_SetPowerRegulator
	.thumb_func
SYS_SetPowerRegulator:
.Lfunc_begin11:
	.loc	3 250 0 is_stmt 1               @ ../../../Library/StdDriver/src/sys.c:250:0
	.fnstart
	.cfi_startproc
@ %bb.0:
	@DEBUG_VALUE: SYS_SetPowerRegulator:u32PowerRegulator <- $r0
	.save	{r4, r5, r7, lr}
	push	{r4, r5, r7, lr}
	.cfi_def_cfa_offset 16
	.cfi_offset lr, -4
	.cfi_offset r7, -8
	.cfi_offset r5, -12
	.cfi_offset r4, -16
	mov	r1, r0
	ldr	r2, __arm_cp.11_0
.Ltmp26:
	@DEBUG_VALUE: SYS_SetPowerRegulator:u32Ret <- 1
	@DEBUG_VALUE: SYS_SetPowerRegulator:i32TimeOutCnt <- 400
	@DEBUG_VALUE: SYS_SetPowerRegulator:u32PowerRegulator <- $r1
	.loc	3 256 30 prologue_end           @ ../../../Library/StdDriver/src/sys.c:256:30
	ldr	r0, [r2]
	movw	r3, #4096
.Ltmp27:
	@DEBUG_VALUE: SYS_SetPowerRegulator:u32PowerRegStatus <- undef
	.loc	3 259 51                        @ ../../../Library/StdDriver/src/sys.c:259:51
	cmp	r1, #16
	bne	.LBB11_6
.Ltmp28:
@ %bb.1:
	@DEBUG_VALUE: SYS_SetPowerRegulator:u32PowerRegulator <- $r1
	@DEBUG_VALUE: SYS_SetPowerRegulator:i32TimeOutCnt <- 400
	@DEBUG_VALUE: SYS_SetPowerRegulator:u32Ret <- 1
	.loc	3 0 0 is_stmt 0                 @ ../../../Library/StdDriver/src/sys.c:0:0
	ands	r0, r3
.Ltmp29:
	@DEBUG_VALUE: SYS_SetPowerRegulator:u32PowerRegStatus <- $r0
	.loc	3 259 51                        @ ../../../Library/StdDriver/src/sys.c:259:51
	bne	.LBB11_6
.Ltmp30:
@ %bb.2:
	@DEBUG_VALUE: SYS_SetPowerRegulator:u32PowerRegulator <- $r1
	@DEBUG_VALUE: SYS_SetPowerRegulator:u32PowerRegStatus <- $r0
	@DEBUG_VALUE: SYS_SetPowerRegulator:i32TimeOutCnt <- 400
	@DEBUG_VALUE: SYS_SetPowerRegulator:u32Ret <- 1
	.loc	3 263 20 is_stmt 1              @ ../../../Library/StdDriver/src/sys.c:263:20
	subs	r0, r2, #4
.Ltmp31:
	ldr	r1, [r0]
.Ltmp32:
	.loc	3 0 20 is_stmt 0                @ ../../../Library/StdDriver/src/sys.c:0:20
	movs	r4, #16
	.loc	3 263 20                        @ ../../../Library/StdDriver/src/sys.c:263:20
	orrs	r4, r1
	str	r4, [r0]
	ldr	r1, __arm_cp.11_1
	movs	r0, #1
	movs	r4, #0
.Ltmp33:
.LBB11_3:                               @ =>This Inner Loop Header: Depth=1
	@DEBUG_VALUE: SYS_SetPowerRegulator:u32Ret <- 1
	@DEBUG_VALUE: SYS_SetPowerRegulator:i32TimeOutCnt <- undef
	.loc	3 266 21 is_stmt 1              @ ../../../Library/StdDriver/src/sys.c:266:21
	ldr	r5, [r2]
	.loc	3 266 9 is_stmt 0               @ ../../../Library/StdDriver/src/sys.c:266:9
	tst	r5, r3
	bne	.LBB11_11
.Ltmp34:
@ %bb.4:                                @   in Loop: Header=BB11_3 Depth=1
	@DEBUG_VALUE: SYS_SetPowerRegulator:u32Ret <- 1
	@DEBUG_VALUE: SYS_SetPowerRegulator:i32TimeOutCnt <- [DW_OP_constu 1, DW_OP_minus, DW_OP_stack_value] undef
	.loc	3 268 32 is_stmt 1              @ ../../../Library/StdDriver/src/sys.c:268:32
	adds	r1, r1, #1
.Ltmp35:
	.loc	3 268 16 is_stmt 0              @ ../../../Library/StdDriver/src/sys.c:268:16
	blo	.LBB11_3
.Ltmp36:
@ %bb.5:
	@DEBUG_VALUE: SYS_SetPowerRegulator:u32Ret <- 1
	.loc	3 0 0                           @ ../../../Library/StdDriver/src/sys.c:0:0
	mov	r0, r4
	b	.LBB11_11
.Ltmp37:
.LBB11_6:
	@DEBUG_VALUE: SYS_SetPowerRegulator:u32PowerRegulator <- $r1
	@DEBUG_VALUE: SYS_SetPowerRegulator:i32TimeOutCnt <- 400
	@DEBUG_VALUE: SYS_SetPowerRegulator:u32Ret <- 1
	movs	r0, #1
.Ltmp38:
	.loc	3 276 13 is_stmt 1              @ ../../../Library/StdDriver/src/sys.c:276:13
	cbnz	r1, .LBB11_11
.Ltmp39:
@ %bb.7:
	@DEBUG_VALUE: SYS_SetPowerRegulator:u32PowerRegulator <- $r1
	@DEBUG_VALUE: SYS_SetPowerRegulator:i32TimeOutCnt <- 400
	@DEBUG_VALUE: SYS_SetPowerRegulator:u32Ret <- 1
	.loc	3 280 20                        @ ../../../Library/StdDriver/src/sys.c:280:20
	subs	r1, r2, #4
.Ltmp40:
	ldr	r4, [r1]
	movs	r5, #16
	bics	r4, r5
	str	r4, [r1]
	ldr	r4, __arm_cp.11_1
	movs	r1, #0
.Ltmp41:
.LBB11_8:                               @ =>This Inner Loop Header: Depth=1
	@DEBUG_VALUE: SYS_SetPowerRegulator:u32Ret <- 1
	@DEBUG_VALUE: SYS_SetPowerRegulator:i32TimeOutCnt <- undef
	.loc	3 283 21                        @ ../../../Library/StdDriver/src/sys.c:283:21
	ldr	r5, [r2]
	.loc	3 283 9 is_stmt 0               @ ../../../Library/StdDriver/src/sys.c:283:9
	tst	r5, r3
	beq	.LBB11_11
.Ltmp42:
@ %bb.9:                                @   in Loop: Header=BB11_8 Depth=1
	@DEBUG_VALUE: SYS_SetPowerRegulator:u32Ret <- 1
	@DEBUG_VALUE: SYS_SetPowerRegulator:i32TimeOutCnt <- [DW_OP_constu 1, DW_OP_minus, DW_OP_stack_value] undef
	.loc	3 285 32 is_stmt 1              @ ../../../Library/StdDriver/src/sys.c:285:32
	adds	r4, r4, #1
.Ltmp43:
	.loc	3 285 16 is_stmt 0              @ ../../../Library/StdDriver/src/sys.c:285:16
	blo	.LBB11_8
.Ltmp44:
@ %bb.10:
	@DEBUG_VALUE: SYS_SetPowerRegulator:u32Ret <- 1
	.loc	3 0 0                           @ ../../../Library/StdDriver/src/sys.c:0:0
	mov	r0, r1
.Ltmp45:
.LBB11_11:
	@DEBUG_VALUE: SYS_SetPowerRegulator:u32Ret <- 1
	@DEBUG_VALUE: SYS_SetPowerRegulator:u32Ret <- $r0
	.loc	3 295 13 is_stmt 1              @ ../../../Library/StdDriver/src/sys.c:295:13
	ldr	r1, [r2]
.Ltmp46:
	.loc	3 295 8 is_stmt 0               @ ../../../Library/StdDriver/src/sys.c:295:8
	lsls	r1, r1, #29
	bpl	.LBB11_13
.Ltmp47:
@ %bb.12:
	@DEBUG_VALUE: SYS_SetPowerRegulator:u32Ret <- $r0
	.loc	3 0 8                           @ ../../../Library/StdDriver/src/sys.c:0:8
	movs	r0, #4
.Ltmp48:
	.loc	3 297 20 is_stmt 1              @ ../../../Library/StdDriver/src/sys.c:297:20
	str	r0, [r2]
	movs	r0, #0
.Ltmp49:
	@DEBUG_VALUE: SYS_SetPowerRegulator:u32Ret <- 0
.LBB11_13:
	@DEBUG_VALUE: SYS_SetPowerRegulator:u32Ret <- $r0
	.loc	3 301 5                         @ ../../../Library/StdDriver/src/sys.c:301:5
	pop	{r4, r5, r7, pc}
.Ltmp50:
	.p2align	2
@ %bb.14:
	.loc	3 0 5 is_stmt 0                 @ ../../../Library/StdDriver/src/sys.c:0:5
__arm_cp.11_0:
	.long	1073742332                      @ 0x400001fc
.Lcpi_end10:
	.size	__arm_cp.11_0, .Lcpi_end10-__arm_cp.11_0
__arm_cp.11_1:
	.long	4294966895                      @ 0xfffffe6f
.Lcpi_end11:
	.size	__arm_cp.11_1, .Lcpi_end11-__arm_cp.11_1
.Lfunc_end11:
	.size	SYS_SetPowerRegulator, .Lfunc_end11-SYS_SetPowerRegulator
	.cfi_endproc
	.cantunwind
	.fnend
                                        @ -- End function
	.section	.text.SYS_SetSSRAMPowerMode,"ax",%progbits
	.hidden	SYS_SetSSRAMPowerMode           @ -- Begin function SYS_SetSSRAMPowerMode
	.globl	SYS_SetSSRAMPowerMode
	.p2align	2
	.type	SYS_SetSSRAMPowerMode,%function
	.code	16                              @ @SYS_SetSSRAMPowerMode
	.thumb_func
SYS_SetSSRAMPowerMode:
.Lfunc_begin12:
	.loc	3 324 0 is_stmt 1               @ ../../../Library/StdDriver/src/sys.c:324:0
	.fnstart
	.cfi_startproc
@ %bb.0:
	@DEBUG_VALUE: SYS_SetSSRAMPowerMode:u32SRAMSel <- $r0
	@DEBUG_VALUE: SYS_SetSSRAMPowerMode:u32SRAMSel <- $r0
	@DEBUG_VALUE: SYS_SetSSRAMPowerMode:u32PowerMode <- $r1
	@DEBUG_VALUE: SYS_SetSSRAMPowerMode:u32PowerMode <- $r1
	.save	{r4, lr}
	push	{r4, lr}
	.cfi_def_cfa_offset 8
	.cfi_offset lr, -4
	.cfi_offset r4, -8
	movs	r2, #8
.Ltmp51:
	@DEBUG_VALUE: SYS_SetSSRAMPowerMode:u32SRAMSelPos <- 8
	movs	r3, #24
.Ltmp52:
.LBB12_1:                               @ =>This Inner Loop Header: Depth=1
	@DEBUG_VALUE: SYS_SetSSRAMPowerMode:u32PowerMode <- $r1
	@DEBUG_VALUE: SYS_SetSSRAMPowerMode:u32SRAMSel <- $r0
	@DEBUG_VALUE: SYS_SetSSRAMPowerMode:u32SRAMSelPos <- $r2
	.loc	3 330 12 prologue_end           @ ../../../Library/StdDriver/src/sys.c:330:12
	mov	r4, r0
	lsrs	r4, r2
	lsls	r4, r4, #31
	bne	.LBB12_4
.Ltmp53:
@ %bb.2:                                @   in Loop: Header=BB12_1 Depth=1
	@DEBUG_VALUE: SYS_SetSSRAMPowerMode:u32SRAMSelPos <- $r2
	@DEBUG_VALUE: SYS_SetSSRAMPowerMode:u32PowerMode <- $r1
	@DEBUG_VALUE: SYS_SetSSRAMPowerMode:u32SRAMSel <- $r0
	.loc	3 336 26                        @ ../../../Library/StdDriver/src/sys.c:336:26
	adds	r2, r2, #1
.Ltmp54:
	@DEBUG_VALUE: SYS_SetSSRAMPowerMode:u32SRAMSelPos <- $r2
	.loc	3 328 5                         @ ../../../Library/StdDriver/src/sys.c:328:5
	cmp	r2, #24
	bne	.LBB12_1
.Ltmp55:
@ %bb.3:
	@DEBUG_VALUE: SYS_SetSSRAMPowerMode:u32SRAMSelPos <- $r2
	@DEBUG_VALUE: SYS_SetSSRAMPowerMode:u32PowerMode <- $r1
	@DEBUG_VALUE: SYS_SetSSRAMPowerMode:u32SRAMSel <- $r0
	.loc	3 0 0 is_stmt 0                 @ ../../../Library/StdDriver/src/sys.c:0:0
	mov	r2, r3
.Ltmp56:
.LBB12_4:
	@DEBUG_VALUE: SYS_SetSSRAMPowerMode:u32PowerMode <- $r1
	@DEBUG_VALUE: SYS_SetSSRAMPowerMode:u32SRAMSel <- $r0
	@DEBUG_VALUE: SYS_SetSSRAMPowerMode:u32SRAMSelPos <- $r2
	.loc	3 341 69 is_stmt 1              @ ../../../Library/StdDriver/src/sys.c:341:69
	lsls	r1, r2
.Ltmp57:
	@DEBUG_VALUE: SYS_SetSSRAMPowerMode:u32PowerMode <- [DW_OP_LLVM_entry_value 1] $r1
	@DEBUG_VALUE: SYS_SetSSRAMPowerMode:u32PowerMode <- [DW_OP_LLVM_entry_value 1] $r1
	.loc	3 0 69 is_stmt 0                @ ../../../Library/StdDriver/src/sys.c:0:69
	ldr	r2, __arm_cp.12_0
.Ltmp58:
	.loc	3 341 27                        @ ../../../Library/StdDriver/src/sys.c:341:27
	ldr	r3, [r2]
	.loc	3 341 36                        @ ../../../Library/StdDriver/src/sys.c:341:36
	bics	r3, r0
	.loc	3 341 53                        @ ../../../Library/StdDriver/src/sys.c:341:53
	orrs	r3, r1
	.loc	3 341 19                        @ ../../../Library/StdDriver/src/sys.c:341:19
	str	r3, [r2]
	.loc	3 342 1 is_stmt 1               @ ../../../Library/StdDriver/src/sys.c:342:1
	pop	{r4, pc}
.Ltmp59:
	.p2align	2
@ %bb.5:
	.loc	3 0 1 is_stmt 0                 @ ../../../Library/StdDriver/src/sys.c:0:1
__arm_cp.12_0:
	.long	1073742044                      @ 0x400000dc
.Lcpi_end12:
	.size	__arm_cp.12_0, .Lcpi_end12-__arm_cp.12_0
.Lfunc_end12:
	.size	SYS_SetSSRAMPowerMode, .Lfunc_end12-SYS_SetSSRAMPowerMode
	.cfi_endproc
	.cantunwind
	.fnend
                                        @ -- End function
	.section	.text.SYS_SetPSRAMPowerMode,"ax",%progbits
	.hidden	SYS_SetPSRAMPowerMode           @ -- Begin function SYS_SetPSRAMPowerMode
	.globl	SYS_SetPSRAMPowerMode
	.p2align	2
	.type	SYS_SetPSRAMPowerMode,%function
	.code	16                              @ @SYS_SetPSRAMPowerMode
	.thumb_func
SYS_SetPSRAMPowerMode:
.Lfunc_begin13:
	.loc	3 361 0 is_stmt 1               @ ../../../Library/StdDriver/src/sys.c:361:0
	.fnstart
	.cfi_startproc
@ %bb.0:
	@DEBUG_VALUE: SYS_SetPSRAMPowerMode:u32SRAMSel <- $r0
	@DEBUG_VALUE: SYS_SetPSRAMPowerMode:u32SRAMSel <- $r0
	@DEBUG_VALUE: SYS_SetPSRAMPowerMode:u32PowerMode <- $r1
	@DEBUG_VALUE: SYS_SetPSRAMPowerMode:u32PowerMode <- $r1
	.save	{r4, lr}
	push	{r4, lr}
	.cfi_def_cfa_offset 8
	.cfi_offset lr, -4
	.cfi_offset r4, -8
	movs	r2, #0
.Ltmp60:
	@DEBUG_VALUE: SYS_SetPSRAMPowerMode:u32SRAMSelPos <- 0
	movs	r3, #10
.Ltmp61:
.LBB13_1:                               @ =>This Inner Loop Header: Depth=1
	@DEBUG_VALUE: SYS_SetPSRAMPowerMode:u32PowerMode <- $r1
	@DEBUG_VALUE: SYS_SetPSRAMPowerMode:u32SRAMSel <- $r0
	@DEBUG_VALUE: SYS_SetPSRAMPowerMode:u32SRAMSelPos <- $r2
	.loc	3 367 12 prologue_end           @ ../../../Library/StdDriver/src/sys.c:367:12
	mov	r4, r0
	lsrs	r4, r2
	lsls	r4, r4, #31
	bne	.LBB13_4
.Ltmp62:
@ %bb.2:                                @   in Loop: Header=BB13_1 Depth=1
	@DEBUG_VALUE: SYS_SetPSRAMPowerMode:u32SRAMSelPos <- $r2
	@DEBUG_VALUE: SYS_SetPSRAMPowerMode:u32PowerMode <- $r1
	@DEBUG_VALUE: SYS_SetPSRAMPowerMode:u32SRAMSel <- $r0
	.loc	3 373 26                        @ ../../../Library/StdDriver/src/sys.c:373:26
	adds	r2, r2, #1
.Ltmp63:
	@DEBUG_VALUE: SYS_SetPSRAMPowerMode:u32SRAMSelPos <- $r2
	.loc	3 365 5                         @ ../../../Library/StdDriver/src/sys.c:365:5
	cmp	r2, #10
	bne	.LBB13_1
.Ltmp64:
@ %bb.3:
	@DEBUG_VALUE: SYS_SetPSRAMPowerMode:u32SRAMSelPos <- $r2
	@DEBUG_VALUE: SYS_SetPSRAMPowerMode:u32PowerMode <- $r1
	@DEBUG_VALUE: SYS_SetPSRAMPowerMode:u32SRAMSel <- $r0
	.loc	3 0 0 is_stmt 0                 @ ../../../Library/StdDriver/src/sys.c:0:0
	mov	r2, r3
.Ltmp65:
.LBB13_4:
	@DEBUG_VALUE: SYS_SetPSRAMPowerMode:u32PowerMode <- $r1
	@DEBUG_VALUE: SYS_SetPSRAMPowerMode:u32SRAMSel <- $r0
	@DEBUG_VALUE: SYS_SetPSRAMPowerMode:u32SRAMSelPos <- $r2
	.loc	3 378 69 is_stmt 1              @ ../../../Library/StdDriver/src/sys.c:378:69
	lsls	r1, r2
.Ltmp66:
	@DEBUG_VALUE: SYS_SetPSRAMPowerMode:u32PowerMode <- [DW_OP_LLVM_entry_value 1] $r1
	@DEBUG_VALUE: SYS_SetPSRAMPowerMode:u32PowerMode <- [DW_OP_LLVM_entry_value 1] $r1
	.loc	3 0 69 is_stmt 0                @ ../../../Library/StdDriver/src/sys.c:0:69
	ldr	r2, __arm_cp.13_0
.Ltmp67:
	.loc	3 378 27                        @ ../../../Library/StdDriver/src/sys.c:378:27
	ldr	r3, [r2]
	.loc	3 378 36                        @ ../../../Library/StdDriver/src/sys.c:378:36
	bics	r3, r0
	.loc	3 378 53                        @ ../../../Library/StdDriver/src/sys.c:378:53
	orrs	r3, r1
	.loc	3 378 19                        @ ../../../Library/StdDriver/src/sys.c:378:19
	str	r3, [r2]
	.loc	3 379 1 is_stmt 1               @ ../../../Library/StdDriver/src/sys.c:379:1
	pop	{r4, pc}
.Ltmp68:
	.p2align	2
@ %bb.5:
	.loc	3 0 1 is_stmt 0                 @ ../../../Library/StdDriver/src/sys.c:0:1
__arm_cp.13_0:
	.long	1073742048                      @ 0x400000e0
.Lcpi_end13:
	.size	__arm_cp.13_0, .Lcpi_end13-__arm_cp.13_0
.Lfunc_end13:
	.size	SYS_SetPSRAMPowerMode, .Lfunc_end13-SYS_SetPSRAMPowerMode
	.cfi_endproc
	.cantunwind
	.fnend
                                        @ -- End function
	.section	".note.GNU-stack","",%progbits
	.eabi_attribute	30, 1	@ Tag_ABI_optimization_goals
	.ARM_attribute	16, 1	@ Tag_AV_eba