	.text
	.syntax unified
	.eabi_attribute	67, "2.09"	@ Tag_conformance
	.cpu	cortex-m23
	.eabi_attribute	6, 16	@ Tag_CPU_arch
	.eabi_attribute	7, 77	@ Tag_CPU_arch_profile
	.eabi_attribute	8, 0	@ Tag_ARM_ISA_use
	.eabi_attribute	9, 3	@ Tag_THUMB_ISA_use
	.eabi_attribute	34, 0	@ Tag_CPU_unaligned_access
	.eabi_attribute	17, 1	@ Tag_ABI_PCS_GOT_use
	.eabi_attribute	20, 2	@ Tag_ABI_FP_denormal
	.eabi_attribute	21, 0	@ Tag_ABI_FP_exceptions
	.eabi_attribute	23, 1	@ Tag_ABI_FP_number_model
	.eabi_attribute	24, 1	@ Tag_ABI_align_needed
	.eabi_attribute	25, 1	@ Tag_ABI_align_preserved
	.eabi_attribute	38, 1	@ Tag_ABI_FP_16bit_format
	.eabi_attribute	18, 2	@ Tag_ABI_PCS_wchar_t
	.eabi_attribute	26, 1	@ Tag_ABI_enum_size
	.eabi_attribute	14, 0	@ Tag_ABI_PCS_R9_use
	.file	"system_M2351.c"
	.file	1 "C:\\" "Keil_v5\\ARM\\ARMCLANG\\Bin\\..\\include\\stdint.h"
	.file	2 "C:\\Users\\shw26\\OneDrive\\Desktop\\2021\\2021-1\\\354\272\241\354\212\244\355\206\244\353\224\224\354\236\220\354\235\2702\\Nuvoton\\M2351_BSP_v3.00.004\\M2351Series_BSP_CMSIS_V3.00.004\\MyProject\\PulseMonitoring\\Secure" "../../../Library/Device/Nuvoton/M2351/Source/system_M2351.c"
	.file	3 "C:\\Users\\shw26\\OneDrive\\Desktop\\2021\\2021-1\\\354\272\241\354\212\244\355\206\244\353\224\224\354\236\220\354\235\2702\\Nuvoton\\M2351_BSP_v3.00.004\\M2351Series_BSP_CMSIS_V3.00.004\\MyProject\\PulseMonitoring\\Secure" "../../../Library/Device/Nuvoton/M2351/Include\\M2351.h"
	.file	4 "C:\\Users\\shw26\\OneDrive\\Desktop\\2021\\2021-1\\\354\272\241\354\212\244\355\206\244\353\224\224\354\236\220\354\235\2702\\Nuvoton\\M2351_BSP_v3.00.004\\M2351Series_BSP_CMSIS_V3.00.004\\MyProject\\PulseMonitoring\\Secure" "../../../Library/Device/Nuvoton/M2351/Include/scu_reg.h"
	.file	5 "C:\\Users\\shw26\\OneDrive\\Desktop\\2021\\2021-1\\\354\272\241\354\212\244\355\206\244\353\224\224\354\236\220\354\235\2702\\Nuvoton\\M2351_BSP_v3.00.004\\M2351Series_BSP_CMSIS_V3.00.004\\MyProject\\PulseMonitoring\\Secure" "../../../Library/Device/Nuvoton/M2351/Include/fmc_reg.h"
	.file	6 "C:\\Users\\shw26\\OneDrive\\Desktop\\2021\\2021-1\\\354\272\241\354\212\244\355\206\244\353\224\224\354\236\220\354\235\2702\\Nuvoton\\M2351_BSP_v3.00.004\\M2351Series_BSP_CMSIS_V3.00.004\\MyProject\\PulseMonitoring\\Secure" "../../../Library/Device/Nuvoton/M2351/Include/sys_reg.h"
	.file	7 "C:\\Users\\shw26\\OneDrive\\Desktop\\2021\\2021-1\\\354\272\241\354\212\244\355\206\244\353\224\224\354\236\220\354\235\2702\\Nuvoton\\M2351_BSP_v3.00.004\\M2351Series_BSP_CMSIS_V3.00.004\\MyProject\\PulseMonitoring\\Secure" "../../../Library/CMSIS/Include\\core_armv8mbl.h"
	.section	.text.FMC_NSBA_Setup,"ax",%progbits
	.hidden	FMC_NSBA_Setup                  @ -- Begin function FMC_NSBA_Setup
	.globl	FMC_NSBA_Setup
	.p2align	2
	.type	FMC_NSBA_Setup,%function
	.code	16                              @ @FMC_NSBA_Setup
	.thumb_func
FMC_NSBA_Setup:
.Lfunc_begin0:
	.loc	2 47 0                          @ ../../../Library/Device/Nuvoton/M2351/Source/system_M2351.c:47:0
	.fnstart
	.cfi_sections .debug_frame
	.cfi_startproc
@ %bb.0:
	.save	{r4, r5, r7, lr}
	push	{r4, r5, r7, lr}
	.cfi_def_cfa_offset 16
	.cfi_offset lr, -4
	.cfi_offset r7, -8
	.cfi_offset r5, -12
	.cfi_offset r4, -16
	movs	r4, #1
	lsls	r5, r4, #18
	ldr	r0, __arm_cp.0_0
.Ltmp0:
	.loc	2 53 13 prologue_end            @ ../../../Library/Device/Nuvoton/M2351/Source/system_M2351.c:53:13
	ldr	r0, [r0]
.Ltmp1:
	.loc	2 53 8 is_stmt 0                @ ../../../Library/Device/Nuvoton/M2351/Source/system_M2351.c:53:8
	cmp	r0, r5
	beq	.LBB0_9
@ %bb.1:
.Ltmp2:
	.loc	2 56 9 is_stmt 1                @ ../../../Library/Device/Nuvoton/M2351/Source/system_M2351.c:56:9
	bl	SYS_UnlockReg
	ldr	r0, __arm_cp.0_1
	.loc	2 59 21                         @ ../../../Library/Device/Nuvoton/M2351/Source/system_M2351.c:59:21
	mov	r1, r0
	subs	r1, #16
	movs	r2, #17
	str	r2, [r1]
	.loc	2 62 22                         @ ../../../Library/Device/Nuvoton/M2351/Source/system_M2351.c:62:22
	mov	r1, r0
	subs	r1, #12
	ldr	r2, __arm_cp.0_2
	str	r2, [r1]
	.loc	2 65 21                         @ ../../../Library/Device/Nuvoton/M2351/Source/system_M2351.c:65:21
	subs	r1, r0, #4
	movs	r2, #0
	str	r2, [r1]
	.loc	2 66 21                         @ ../../../Library/Device/Nuvoton/M2351/Source/system_M2351.c:66:21
	str	r4, [r0]
.LBB0_2:                                @ =>This Inner Loop Header: Depth=1
	.loc	2 67 20                         @ ../../../Library/Device/Nuvoton/M2351/Source/system_M2351.c:67:20
	ldr	r2, [r0]
	.loc	2 67 9 is_stmt 0                @ ../../../Library/Device/Nuvoton/M2351/Source/system_M2351.c:67:9
	cmp	r2, #0
	bne	.LBB0_2
@ %bb.3:
.Ltmp3:
	.loc	2 70 17 is_stmt 1               @ ../../../Library/Device/Nuvoton/M2351/Source/system_M2351.c:70:17
	mov	r2, r0
	subs	r2, #8
	ldr	r3, [r2]
.Ltmp4:
	.loc	2 70 12 is_stmt 0               @ ../../../Library/Device/Nuvoton/M2351/Source/system_M2351.c:70:12
	adds	r3, r3, #1
	beq	.LBB0_6
@ %bb.4:
	.loc	2 0 12                          @ ../../../Library/Device/Nuvoton/M2351/Source/system_M2351.c:0:12
	movs	r3, #34
.Ltmp5:
	.loc	2 73 25 is_stmt 1               @ ../../../Library/Device/Nuvoton/M2351/Source/system_M2351.c:73:25
	str	r3, [r1]
	.loc	2 74 25                         @ ../../../Library/Device/Nuvoton/M2351/Source/system_M2351.c:74:25
	str	r4, [r0]
.LBB0_5:                                @ =>This Inner Loop Header: Depth=1
	.loc	2 75 24                         @ ../../../Library/Device/Nuvoton/M2351/Source/system_M2351.c:75:24
	ldr	r3, [r0]
	.loc	2 75 13 is_stmt 0               @ ../../../Library/Device/Nuvoton/M2351/Source/system_M2351.c:75:13
	cmp	r3, #0
	bne	.LBB0_5
.Ltmp6:
.LBB0_6:
	.loc	2 79 21 is_stmt 1               @ ../../../Library/Device/Nuvoton/M2351/Source/system_M2351.c:79:21
	str	r5, [r2]
	movs	r2, #33
	.loc	2 80 21                         @ ../../../Library/Device/Nuvoton/M2351/Source/system_M2351.c:80:21
	str	r2, [r1]
	.loc	2 81 21                         @ ../../../Library/Device/Nuvoton/M2351/Source/system_M2351.c:81:21
	str	r4, [r0]
.LBB0_7:                                @ =>This Inner Loop Header: Depth=1
	.loc	2 82 20                         @ ../../../Library/Device/Nuvoton/M2351/Source/system_M2351.c:82:20
	ldr	r1, [r0]
	.loc	2 82 9 is_stmt 0                @ ../../../Library/Device/Nuvoton/M2351/Source/system_M2351.c:82:9
	cmp	r1, #0
	bne	.LBB0_7
@ %bb.8:
	.loc	2 0 9                           @ ../../../Library/Device/Nuvoton/M2351/Source/system_M2351.c:0:9
	ldr	r0, __arm_cp.0_3
	.loc	2 85 21 is_stmt 1               @ ../../../Library/Device/Nuvoton/M2351/Source/system_M2351.c:85:21
	str	r4, [r0]
.Ltmp7:
.LBB0_9:
	.loc	2 90 1                          @ ../../../Library/Device/Nuvoton/M2351/Source/system_M2351.c:90:1
	pop	{r4, r5, r7, pc}
.Ltmp8:
	.p2align	2
@ %bb.10:
	.loc	2 0 1 is_stmt 0                 @ ../../../Library/Device/Nuvoton/M2351/Source/system_M2351.c:0:1
__arm_cp.0_0:
	.long	1073934376                      @ 0x4002f028
.Lcpi_end0:
	.size	__arm_cp.0_0, .Lcpi_end0-__arm_cp.0_0
__arm_cp.0_1:
	.long	1073790992                      @ 0x4000c010
.Lcpi_end1:
	.size	__arm_cp.0_1, .Lcpi_end1-__arm_cp.0_1
__arm_cp.0_2:
	.long	2099200                         @ 0x200800
.Lcpi_end2:
	.size	__arm_cp.0_2, .Lcpi_end2-__arm_cp.0_2
__arm_cp.0_3:
	.long	1073741832                      @ 0x40000008
.Lcpi_end3:
	.size	__arm_cp.0_3, .Lcpi_end3-__arm_cp.0_3
.Lfunc_end0:
	.size	FMC_NSBA_Setup, .Lfunc_end0-FMC_NSBA_Setup
	.cfi_endproc
	.cantunwind
	.fnend
                                        @ -- End function
	.section	.text.SYS_UnlockReg,"ax",%progbits
	.p2align	2                               @ -- Begin function SYS_UnlockReg
	.type	SYS_UnlockReg,%function
	.code	16                              @ @SYS_UnlockReg
	.thumb_func
SYS_UnlockReg:
.Lfunc_begin1:
	.file	8 "C:\\Users\\shw26\\OneDrive\\Desktop\\2021\\2021-1\\\354\272\241\354\212\244\355\206\244\353\224\224\354\236\220\354\235\2702\\Nuvoton\\M2351_BSP_v3.00.004\\M2351Series_BSP_CMSIS_V3.00.004\\MyProject\\PulseMonitoring\\Secure" "../../../Library/StdDriver/inc\\sys.h"
	.loc	8 3042 0 is_stmt 1              @ ../../../Library/StdDriver/inc\sys.h:3042:0
	.fnstart
	.cfi_startproc
@ %bb.0:
	.save	{r4, lr}
	push	{r4, lr}
	.cfi_def_cfa_offset 8
	.cfi_offset lr, -4
	.cfi_offset r4, -8
	ldr	r0, __arm_cp.1_0
	movs	r1, #89
	movs	r2, #22
	movs	r3, #136
.LBB1_1:                                @ =>This Inner Loop Header: Depth=1
.Ltmp9:
	.loc	8 3045 22 prologue_end          @ ../../../Library/StdDriver/inc\sys.h:3045:22
	str	r1, [r0]
	.loc	8 3046 22                       @ ../../../Library/StdDriver/inc\sys.h:3046:22
	str	r2, [r0]
	.loc	8 3047 22                       @ ../../../Library/StdDriver/inc\sys.h:3047:22
	str	r3, [r0]
.Ltmp10:
	.loc	8 3049 16                       @ ../../../Library/StdDriver/inc\sys.h:3049:16
	ldr	r4, [r0]
.Ltmp11:
	.loc	8 3048 5                        @ ../../../Library/StdDriver/inc\sys.h:3048:5
	cmp	r4, #0
	beq	.LBB1_1
.Ltmp12:
@ %bb.2:
	.loc	8 3050 1                        @ ../../../Library/StdDriver/inc\sys.h:3050:1
	pop	{r4, pc}
.Ltmp13:
	.p2align	2
@ %bb.3:
	.loc	8 0 1 is_stmt 0                 @ ../../../Library/StdDriver/inc\sys.h:0:1
__arm_cp.1_0:
	.long	1073742080                      @ 0x40000100
.Lcpi_end4:
	.size	__arm_cp.1_0, .Lcpi_end4-__arm_cp.1_0
.Lfunc_end1:
	.size	SYS_UnlockReg, .Lfunc_end1-SYS_UnlockReg
	.cfi_endproc
	.cantunwind
	.fnend
                                        @ -- End function
	.section	.text.SCU_Setup,"ax",%progbits
	.hidden	SCU_Setup                       @ -- Begin function SCU_Setup
	.globl	SCU_Setup
	.p2align	2
	.type	SCU_Setup,%function
	.code	16                              @ @SCU_Setup
	.thumb_func
SCU_Setup:
.Lfunc_begin2:
	.loc	2 99 0 is_stmt 1                @ ../../../Library/Device/Nuvoton/M2351/Source/system_M2351.c:99:0
	.fnstart
	.cfi_startproc
@ %bb.0:
	.save	{r4, r5, r6, lr}
	push	{r4, r5, r6, lr}
	.cfi_def_cfa_offset 16
	.cfi_offset lr, -4
	.cfi_offset r6, -8
	.cfi_offset r5, -12
	.cfi_offset r4, -16
	ldr	r0, __arm_cp.2_0
.Ltmp14:
	.loc	2 102 20 prologue_end           @ ../../../Library/Device/Nuvoton/M2351/Source/system_M2351.c:102:20
	mov	r2, r0
	subs	r2, #36
	movs	r1, #0
	str	r1, [r2]
	.loc	2 103 20                        @ ../../../Library/Device/Nuvoton/M2351/Source/system_M2351.c:103:20
	mov	r2, r0
	subs	r2, #32
	str	r1, [r2]
	.loc	2 104 20                        @ ../../../Library/Device/Nuvoton/M2351/Source/system_M2351.c:104:20
	mov	r2, r0
	subs	r2, #28
	str	r1, [r2]
	.loc	2 105 20                        @ ../../../Library/Device/Nuvoton/M2351/Source/system_M2351.c:105:20
	mov	r2, r0
	subs	r2, #24
	ldr	r3, __arm_cp.2_1
	str	r3, [r2]
	.loc	2 106 20                        @ ../../../Library/Device/Nuvoton/M2351/Source/system_M2351.c:106:20
	mov	r2, r0
	subs	r2, #20
	str	r1, [r2]
	.loc	2 107 20                        @ ../../../Library/Device/Nuvoton/M2351/Source/system_M2351.c:107:20
	mov	r2, r0
	subs	r2, #16
	str	r1, [r2]
	.loc	2 108 20                        @ ../../../Library/Device/Nuvoton/M2351/Source/system_M2351.c:108:20
	mov	r2, r0
	subs	r2, #12
	str	r1, [r2]
	.loc	2 111 18                        @ ../../../Library/Device/Nuvoton/M2351/Source/system_M2351.c:111:18
	subs	r2, r0, #4
	movs	r3, #158
	str	r3, [r2]
	movs	r3, #12
.Ltmp15:
	@DEBUG_VALUE: SCU_Setup:i <- 11
	.loc	2 0 18 is_stmt 0                @ ../../../Library/Device/Nuvoton/M2351/Source/system_M2351.c:0:18
	movs	r2, #1
.Ltmp16:
.LBB2_1:                                @ =>This Inner Loop Header: Depth=1
	@DEBUG_VALUE: SCU_Setup:i <- undef
	.loc	2 116 31 is_stmt 1              @ ../../../Library/Device/Nuvoton/M2351/Source/system_M2351.c:116:31
	subs	r3, r3, #1
	mov	r4, r2
	lsls	r4, r3
	.loc	2 116 24 is_stmt 0              @ ../../../Library/Device/Nuvoton/M2351/Source/system_M2351.c:116:24
	ldr	r5, [r0]
	orrs	r5, r4
	str	r5, [r0]
.Ltmp17:
	@DEBUG_VALUE: SCU_Setup:i <- [DW_OP_constu 1, DW_OP_minus, DW_OP_stack_value] undef
	.loc	2 114 5 is_stmt 1               @ ../../../Library/Device/Nuvoton/M2351/Source/system_M2351.c:114:5
	cmp	r3, #4
	bhi	.LBB2_1
.Ltmp18:
@ %bb.2:
	.loc	2 0 5 is_stmt 0                 @ ../../../Library/Device/Nuvoton/M2351/Source/system_M2351.c:0:5
	lsls	r4, r2, #19
	ldr	r3, __arm_cp.2_2
.Ltmp19:
	.loc	2 146 52 is_stmt 1              @ ../../../Library/Device/Nuvoton/M2351/Source/system_M2351.c:146:52
	ldr	r5, [r3, #4]
	orrs	r5, r4
	str	r5, [r3, #4]
.Ltmp20:
	.loc	2 149 52                        @ ../../../Library/Device/Nuvoton/M2351/Source/system_M2351.c:149:52
	ldr	r5, [r3, #4]
	movs	r6, #16
	orrs	r6, r5
	str	r6, [r3, #4]
	lsls	r5, r2, #17
.Ltmp21:
	.loc	2 152 52                        @ ../../../Library/Device/Nuvoton/M2351/Source/system_M2351.c:152:52
	ldr	r6, [r3, #4]
	orrs	r6, r5
	str	r6, [r3, #4]
.Ltmp22:
	.loc	2 173 52                        @ ../../../Library/Device/Nuvoton/M2351/Source/system_M2351.c:173:52
	ldr	r6, [r3]
	orrs	r6, r5
	str	r6, [r3]
	lsls	r5, r2, #18
.Ltmp23:
	.loc	2 174 52                        @ ../../../Library/Device/Nuvoton/M2351/Source/system_M2351.c:174:52
	ldr	r6, [r3]
	orrs	r6, r5
	str	r6, [r3]
.Ltmp24:
	.loc	2 175 52                        @ ../../../Library/Device/Nuvoton/M2351/Source/system_M2351.c:175:52
	ldr	r5, [r3]
	orrs	r5, r4
	str	r5, [r3]
	lsls	r4, r2, #20
.Ltmp25:
	.loc	2 176 52                        @ ../../../Library/Device/Nuvoton/M2351/Source/system_M2351.c:176:52
	ldr	r5, [r3]
	orrs	r5, r4
	str	r5, [r3]
	lsls	r2, r2, #24
.Ltmp26:
	.loc	2 179 52                        @ ../../../Library/Device/Nuvoton/M2351/Source/system_M2351.c:179:52
	ldr	r4, [r3, #8]
	orrs	r4, r2
	str	r4, [r3, #8]
	mvns	r1, r1
.Ltmp27:
	.loc	2 183 18                        @ ../../../Library/Device/Nuvoton/M2351/Source/system_M2351.c:183:18
	str	r1, [r0, #8]
	.loc	2 184 5                         @ ../../../Library/Device/Nuvoton/M2351/Source/system_M2351.c:184:5
	bl	__NVIC_EnableIRQ
	.loc	2 186 1                         @ ../../../Library/Device/Nuvoton/M2351/Source/system_M2351.c:186:1
	pop	{r4, r5, r6, pc}
.Ltmp28:
	.p2align	2
@ %bb.3:
	.loc	2 0 1 is_stmt 0                 @ ../../../Library/Device/Nuvoton/M2351/Source/system_M2351.c:0:1
__arm_cp.2_0:
	.long	1073934372                      @ 0x4002f024
.Lcpi_end5:
	.size	__arm_cp.2_0, .Lcpi_end5-__arm_cp.2_0
__arm_cp.2_1:
	.long	589828                          @ 0x90004
.Lcpi_end6:
	.size	__arm_cp.2_1, .Lcpi_end6-__arm_cp.2_1
__arm_cp.2_2:
	.long	3758154624                      @ 0xe000e380
.Lcpi_end7:
	.size	__arm_cp.2_2, .Lcpi_end7-__arm_cp.2_2
.Lfunc_end2:
	.size	SCU_Setup, .Lfunc_end2-SCU_Setup
	.cfi_endproc
	.cantunwind
	.fnend
                                        @ -- End function
	.section	.text.__NVIC_EnableIRQ,"ax",%progbits
	.p2align	2                               @ -- Begin function __NVIC_EnableIRQ
	.type	__NVIC_EnableIRQ,%function
	.code	16                              @ @__NVIC_EnableIRQ
	.thumb_func
__NVIC_EnableIRQ:
.Lfunc_begin3:
	.loc	7 1276 0 is_stmt 1              @ ../../../Library/CMSIS/Include\core_armv8mbl.h:1276:0
	.fnstart
	.cfi_startproc
@ %bb.0:
	ldr	r0, __arm_cp.3_0
	movs	r1, #8
	@DEBUG_VALUE: __NVIC_EnableIRQ:IRQn <- 99
.Ltmp29:
	.loc	7 1279 52 prologue_end          @ ../../../Library/CMSIS/Include\core_armv8mbl.h:1279:52
	str	r1, [r0]
.Ltmp30:
	.loc	7 1281 1                        @ ../../../Library/CMSIS/Include\core_armv8mbl.h:1281:1
	bx	lr
.Ltmp31:
	.p2align	2
@ %bb.1:
	.loc	7 0 1 is_stmt 0                 @ ../../../Library/CMSIS/Include\core_armv8mbl.h:0:1
__arm_cp.3_0:
	.long	3758153996                      @ 0xe000e10c
.Lcpi_end8:
	.size	__arm_cp.3_0, .Lcpi_end8-__arm_cp.3_0
.Lfunc_end3:
	.size	__NVIC_EnableIRQ, .Lfunc_end3-__NVIC_EnableIRQ
	.cfi_endproc
	.cantunwind
	.fnend
                                        @ -- End function
	.section	.text.SCU_IRQHandler,"ax",%progbits
	.hidden	SCU_IRQHandler                  @ -- Begin function SCU_IRQHandler
	.weak	SCU_IRQHandler
	.p2align	2
	.type	SCU_IRQHandler,%function
	.code	16                              @ @SCU_IRQHandler
	.thumb_func
SCU_IRQHandler:
.Lfunc_begin4:
	.loc	2 195 0 is_stmt 1               @ ../../../Library/Device/Nuvoton/M2351/Source/system_M2351.c:195:0
	.fnstart
	.cfi_startproc
@ %bb.0:
	.save	{r4, r5, r7, lr}
	push	{r4, r5, r7, lr}
	.cfi_def_cfa_offset 16
	.cfi_offset lr, -4
	.cfi_offset r7, -8
	.cfi_offset r5, -12
	.cfi_offset r4, -16
	.pad	#48
	sub	sp, #48
	.cfi_def_cfa_offset 64
	mov	r0, sp
	movs	r1, #48
.Ltmp32:
	.loc	2 196 17 prologue_end           @ ../../../Library/Device/Nuvoton/M2351/Source/system_M2351.c:196:17
	bl	__aeabi_memclr4
	ldr	r0, __arm_cp.4_0
	str	r0, [sp, #44]
	ldr	r0, __arm_cp.4_1
	str	r0, [sp, #24]
	ldr	r0, __arm_cp.4_2
	str	r0, [sp, #20]
	ldr	r0, __arm_cp.4_3
	str	r0, [sp, #16]
	ldr	r0, __arm_cp.4_4
	str	r0, [sp, #12]
	ldr	r0, __arm_cp.4_5
	str	r0, [sp]
	ldr	r4, __arm_cp.4_6
	.loc	2 205 19                        @ ../../../Library/Device/Nuvoton/M2351/Source/system_M2351.c:205:19
	ldr	r1, [r4]
.Ltmp33:
	@DEBUG_VALUE: SCU_IRQHandler:u32Reg <- $r1
	.loc	2 206 8                         @ ../../../Library/Device/Nuvoton/M2351/Source/system_M2351.c:206:8
	cbz	r1, .LBB4_4
.Ltmp34:
@ %bb.1:
	@DEBUG_VALUE: SCU_IRQHandler:u32Reg <- $r1
	.loc	2 0 8 is_stmt 0                 @ ../../../Library/Device/Nuvoton/M2351/Source/system_M2351.c:0:8
	movs	r2, #0
	ldr	r0, __arm_cp.4_7
	movs	r3, #1
.Ltmp35:
.LBB4_2:                                @ =>This Inner Loop Header: Depth=1
	@DEBUG_VALUE: SCU_IRQHandler:u32Reg <- $r1
	@DEBUG_VALUE: SCU_IRQHandler:i <- $r2
	.loc	2 212 28 is_stmt 1              @ ../../../Library/Device/Nuvoton/M2351/Source/system_M2351.c:212:28
	mov	r5, r3
	lsls	r5, r2
.Ltmp36:
	.loc	2 212 16 is_stmt 0              @ ../../../Library/Device/Nuvoton/M2351/Source/system_M2351.c:212:16
	tst	r5, r1
	bne	.LBB4_5
.Ltmp37:
@ %bb.3:                                @   in Loop: Header=BB4_2 Depth=1
	@DEBUG_VALUE: SCU_IRQHandler:i <- $r2
	@DEBUG_VALUE: SCU_IRQHandler:u32Reg <- $r1
	.loc	2 210 18 is_stmt 1              @ ../../../Library/Device/Nuvoton/M2351/Source/system_M2351.c:210:18
	adds	r0, r0, #4
	.loc	2 210 36 is_stmt 0              @ ../../../Library/Device/Nuvoton/M2351/Source/system_M2351.c:210:36
	adds	r2, r2, #1
.Ltmp38:
	@DEBUG_VALUE: SCU_IRQHandler:i <- $r2
	.loc	2 210 9                         @ ../../../Library/Device/Nuvoton/M2351/Source/system_M2351.c:210:9
	cmp	r2, #76
	bne	.LBB4_2
.Ltmp39:
.LBB4_4:
	@DEBUG_VALUE: SCU_IRQHandler:u32Reg <- $r1
	.loc	2 223 1 is_stmt 1               @ ../../../Library/Device/Nuvoton/M2351/Source/system_M2351.c:223:1
	add	sp, #48
	pop	{r4, r5, r7, pc}
.Ltmp40:
.LBB4_5:
	@DEBUG_VALUE: SCU_IRQHandler:i <- $r2
	@DEBUG_VALUE: SCU_IRQHandler:u32Reg <- $r1
	@DEBUG_VALUE: SCU_IRQHandler:i <- $r2
	.loc	2 214 27                        @ ../../../Library/Device/Nuvoton/M2351/Source/system_M2351.c:214:27
	adr	r1, .LCPI4_8
.Ltmp41:
	ldrb	r1, [r1, r2]
	mov	r3, r4
	subs	r3, #48
	orrs	r3, r1
	ldr	r2, [r3, #4]
.Ltmp42:
	@DEBUG_VALUE: SCU_IRQHandler:u32Addr <- $r2
	.loc	2 215 95                        @ ../../../Library/Device/Nuvoton/M2351/Source/system_M2351.c:215:95
	ldr	r1, [r3]
	.loc	2 215 88 is_stmt 0              @ ../../../Library/Device/Nuvoton/M2351/Source/system_M2351.c:215:88
	lsls	r1, r1, #2
	mov	r3, sp
	ldr	r3, [r3, r1]
	.loc	2 215 69                        @ ../../../Library/Device/Nuvoton/M2351/Source/system_M2351.c:215:69
	ldr	r1, [r0]
	.loc	2 215 17                        @ ../../../Library/Device/Nuvoton/M2351/Source/system_M2351.c:215:17
	adr	r0, .LCPI4_9
	bl	__2printf
.Ltmp43:
	.loc	2 216 31 is_stmt 1              @ ../../../Library/Device/Nuvoton/M2351/Source/system_M2351.c:216:31
	str	r5, [r4]
.Ltmp44:
	.loc	2 223 1                         @ ../../../Library/Device/Nuvoton/M2351/Source/system_M2351.c:223:1
	add	sp, #48
	pop	{r4, r5, r7, pc}
.Ltmp45:
	.p2align	2
@ %bb.6:
	.loc	2 0 1 is_stmt 0                 @ ../../../Library/Device/Nuvoton/M2351/Source/system_M2351.c:0:1
__arm_cp.4_0:
	.long	.L.str.5
.Lcpi_end9:
	.size	__arm_cp.4_0, .Lcpi_end9-__arm_cp.4_0
__arm_cp.4_1:
	.long	.L.str.4
.Lcpi_end10:
	.size	__arm_cp.4_1, .Lcpi_end10-__arm_cp.4_1
__arm_cp.4_2:
	.long	.L.str.3
.Lcpi_end11:
	.size	__arm_cp.4_2, .Lcpi_end11-__arm_cp.4_2
__arm_cp.4_3:
	.long	.L.str.2
.Lcpi_end12:
	.size	__arm_cp.4_3, .Lcpi_end12-__arm_cp.4_3
__arm_cp.4_4:
	.long	.L.str.1
.Lcpi_end13:
	.size	__arm_cp.4_4, .Lcpi_end13-__arm_cp.4_4
__arm_cp.4_5:
	.long	.L.str
.Lcpi_end14:
	.size	__arm_cp.4_5, .Lcpi_end14-__arm_cp.4_5
__arm_cp.4_6:
	.long	1073934384                      @ 0x4002f030
.Lcpi_end15:
	.size	__arm_cp.4_6, .Lcpi_end15-__arm_cp.4_6
__arm_cp.4_7:
	.long	.L__const.SCU_IRQHandler.ipname
.Lcpi_end16:
	.size	__arm_cp.4_7, .Lcpi_end16-__arm_cp.4_7
.LCPI4_8:
.L__const.SCU_IRQHandler.info:
	.asciz	"4<\000\000DLT\\d\000t|\204\214\224\234\244\254\264"
.LCPI4_9:
.L.str.17:
	.asciz	"  %s(0x%08x) Alarm! illegal access by %s\n\000\000"
.Lfunc_end4:
	.size	SCU_IRQHandler, .Lfunc_end4-SCU_IRQHandler
	.cfi_endproc
	.cantunwind
	.fnend
                                        @ -- End function
	.section	.text.NSC_Init,"ax",%progbits
	.hidden	NSC_Init                        @ -- Begin function NSC_Init
	.globl	NSC_Init
	.p2align	2
	.type	NSC_Init,%function
	.code	16                              @ @NSC_Init
	.thumb_func
NSC_Init:
.Lfunc_begin5:
	.loc	2 232 0 is_stmt 1               @ ../../../Library/Device/Nuvoton/M2351/Source/system_M2351.c:232:0
	.fnstart
	.cfi_startproc
@ %bb.0:
	ldr	r0, __arm_cp.5_0
	movs	r1, #3
.Ltmp46:
	@DEBUG_VALUE: NSC_Init:i32Region <- 3
	.loc	2 254 15 prologue_end           @ ../../../Library/Device/Nuvoton/M2351/Source/system_M2351.c:254:15
	str	r1, [r0]
	movs	r2, #31
	.loc	2 255 15                        @ ../../../Library/Device/Nuvoton/M2351/Source/system_M2351.c:255:15
	ldr	r3, __arm_cp.5_1
.Ltmp47:
	@DEBUG_VALUE: NSC_Init:u32Base <- $r3
	bics	r3, r2
.Ltmp48:
	str	r3, [r0, #4]
	.loc	2 256 15                        @ ../../../Library/Device/Nuvoton/M2351/Source/system_M2351.c:256:15
	ldr	r2, __arm_cp.5_2
.Ltmp49:
	@DEBUG_VALUE: NSC_Init:u32Limit <- $r2
	orrs	r2, r1
.Ltmp50:
	.loc	2 0 15 is_stmt 0                @ ../../../Library/Device/Nuvoton/M2351/Source/system_M2351.c:0:15
	movs	r1, #28
	.loc	2 256 15                        @ ../../../Library/Device/Nuvoton/M2351/Source/system_M2351.c:256:15
	bics	r2, r1
	str	r2, [r0, #8]
	.loc	2 259 1 is_stmt 1               @ ../../../Library/Device/Nuvoton/M2351/Source/system_M2351.c:259:1
	bx	lr
.Ltmp51:
	.p2align	2
@ %bb.1:
	.loc	2 0 1 is_stmt 0                 @ ../../../Library/Device/Nuvoton/M2351/Source/system_M2351.c:0:1
__arm_cp.5_0:
	.long	3758157272                      @ 0xe000edd8
.Lcpi_end17:
	.size	__arm_cp.5_0, .Lcpi_end17-__arm_cp.5_0
__arm_cp.5_1:
	.long	Image$$NSC_ROM$$XO$$Base
.Lcpi_end18:
	.size	__arm_cp.5_1, .Lcpi_end18-__arm_cp.5_1
__arm_cp.5_2:
	.long	Image$$NSC_ROM$$XO$$Limit
.Lcpi_end19:
	.size	__arm_cp.5_2, .Lcpi_end19-__arm_cp.5_2
.Lfunc_end5:
	.size	NSC_Init, .Lfunc_end5-NSC_Init
	.cfi_endproc
	.cantunwind
	.fnend
                                        @ -- End function
	.section	.text.TZ_SAU_Setup,"ax",%progbits
	.hidden	TZ_SAU_Setup                    @ -- Begin function TZ_SAU_Setup
	.globl	TZ_SAU_Setup
	.p2align	2
	.type	TZ_SAU_Setup,%function
	.code	16                              @ @TZ_SAU_Setup
	.thumb_func
TZ_SAU_Setup:
.Lfunc_begin6:
	.loc	2 268 0 is_stmt 1               @ ../../../Library/Device/Nuvoton/M2351/Source/system_M2351.c:268:0
	.fnstart
	.cfi_startproc
@ %bb.0:
	.save	{r7, lr}
	push	{r7, lr}
	.cfi_def_cfa_offset 8
	.cfi_offset lr, -4
	.cfi_offset r7, -8
	ldr	r0, __arm_cp.6_0
	movs	r1, #0
.Ltmp52:
	.loc	2 273 5 prologue_end            @ ../../../Library/Device/Nuvoton/M2351/Source/system_M2351.c:273:5
	str	r1, [r0]
	movs	r1, #63
	lsls	r1, r1, #12
	str	r1, [r0, #4]
	ldr	r1, __arm_cp.6_1
	str	r1, [r0, #8]
	movs	r1, #4
	.loc	2 289 5                         @ ../../../Library/Device/Nuvoton/M2351/Source/system_M2351.c:289:5
	str	r1, [r0]
	ldr	r1, __arm_cp.6_2
	str	r1, [r0, #4]
	ldr	r1, __arm_cp.6_3
	str	r1, [r0, #8]
	movs	r1, #5
	.loc	2 293 5                         @ ../../../Library/Device/Nuvoton/M2351/Source/system_M2351.c:293:5
	str	r1, [r0]
	ldr	r2, __arm_cp.6_4
	str	r2, [r0, #4]
	ldr	r2, __arm_cp.6_5
	str	r2, [r0, #8]
	movs	r2, #6
	.loc	2 297 5                         @ ../../../Library/Device/Nuvoton/M2351/Source/system_M2351.c:297:5
	str	r2, [r0]
	ldr	r2, __arm_cp.6_6
	str	r2, [r0, #4]
	ldr	r2, __arm_cp.6_7
	str	r2, [r0, #8]
	movs	r2, #7
	.loc	2 301 5                         @ ../../../Library/Device/Nuvoton/M2351/Source/system_M2351.c:301:5
	str	r2, [r0]
	lsls	r1, r1, #28
	str	r1, [r0, #4]
	ldr	r1, __arm_cp.6_8
	str	r1, [r0, #8]
	.loc	2 308 15                        @ ../../../Library/Device/Nuvoton/M2351/Source/system_M2351.c:308:15
	subs	r0, #8
	movs	r1, #1
	str	r1, [r0]
	ldr	r0, __arm_cp.6_9
	.loc	2 315 24                        @ ../../../Library/Device/Nuvoton/M2351/Source/system_M2351.c:315:24
	ldr	r1, [r0]
	movs	r2, #8
	.loc	2 315 30 is_stmt 0              @ ../../../Library/Device/Nuvoton/M2351/Source/system_M2351.c:315:30
	bics	r1, r2
	.loc	2 315 16                        @ ../../../Library/Device/Nuvoton/M2351/Source/system_M2351.c:315:16
	str	r1, [r0]
	.loc	2 318 16 is_stmt 1              @ ../../../Library/Device/Nuvoton/M2351/Source/system_M2351.c:318:16
	subs	r0, r0, #4
	ldr	r1, __arm_cp.6_10
	str	r1, [r0]
	.loc	2 335 5                         @ ../../../Library/Device/Nuvoton/M2351/Source/system_M2351.c:335:5
	bl	NSC_Init
	.loc	2 338 1                         @ ../../../Library/Device/Nuvoton/M2351/Source/system_M2351.c:338:1
	pop	{r7, pc}
.Ltmp53:
	.p2align	2
@ %bb.1:
	.loc	2 0 1 is_stmt 0                 @ ../../../Library/Device/Nuvoton/M2351/Source/system_M2351.c:0:1
__arm_cp.6_0:
	.long	3758157272                      @ 0xe000edd8
.Lcpi_end20:
	.size	__arm_cp.6_0, .Lcpi_end20-__arm_cp.6_0
__arm_cp.6_1:
	.long	262115                          @ 0x3ffe3
.Lcpi_end21:
	.size	__arm_cp.6_1, .Lcpi_end21-__arm_cp.6_1
__arm_cp.6_2:
	.long	268697600                       @ 0x10040000
.Lcpi_end22:
	.size	__arm_cp.6_2, .Lcpi_end22-__arm_cp.6_2
__arm_cp.6_3:
	.long	268959713                       @ 0x1007ffe1
.Lcpi_end23:
	.size	__arm_cp.6_3, .Lcpi_end23-__arm_cp.6_3
__arm_cp.6_4:
	.long	8420864                         @ 0x807e00
.Lcpi_end24:
	.size	__arm_cp.6_4, .Lcpi_end24-__arm_cp.6_4
__arm_cp.6_5:
	.long	8421347                         @ 0x807fe3
.Lcpi_end25:
	.size	__arm_cp.6_5, .Lcpi_end25-__arm_cp.6_5
__arm_cp.6_6:
	.long	805339136                       @ 0x30008000
.Lcpi_end26:
	.size	__arm_cp.6_6, .Lcpi_end26-__arm_cp.6_6
__arm_cp.6_7:
	.long	805404641                       @ 0x30017fe1
.Lcpi_end27:
	.size	__arm_cp.6_7, .Lcpi_end27-__arm_cp.6_7
__arm_cp.6_8:
	.long	1610612705                      @ 0x5fffffe1
.Lcpi_end28:
	.size	__arm_cp.6_8, .Lcpi_end28-__arm_cp.6_8
__arm_cp.6_9:
	.long	3758157072                      @ 0xe000ed10
.Lcpi_end29:
	.size	__arm_cp.6_9, .Lcpi_end29-__arm_cp.6_9
__arm_cp.6_10:
	.long	100270080                       @ 0x5fa0000
.Lcpi_end30:
	.size	__arm_cp.6_10, .Lcpi_end30-__arm_cp.6_10
.Lfunc_end6:
	.size	TZ_SAU_Setup, .Lfunc_end6-TZ_SAU_Setup
	.cfi_endproc
	.cantunwind
	.fnend
                                        @ -- End function
	.section	.text.SystemCoreClockUpdate,"ax",%progbits
	.hidden	SystemCoreClockUpdate           @ -- Begin function SystemCoreClockUpdate
	.globl	SystemCoreClockUpdate
	.p2align	2
	.type	SystemCoreClockUpdate,%function
	.code	16                              @ @SystemCoreClockUpdate
	.thumb_func
SystemCoreClockUpdate:
.Lfunc_begin7:
	.loc	2 358 0 is_stmt 1               @ ../../../Library/Device/Nuvoton/M2351/Source/system_M2351.c:358:0
	.fnstart
	.cfi_startproc
@ %bb.0:
	.save	{r7, lr}
	push	{r7, lr}
	.cfi_def_cfa_offset 8
	.cfi_offset lr, -4
	.cfi_offset r7, -8
.Ltmp54:
	.loc	2 360 16 prologue_end           @ ../../../Library/Device/Nuvoton/M2351/Source/system_M2351.c:360:16
	bl	CLK_GetPLLClockFreq
	.loc	2 360 14 is_stmt 0              @ ../../../Library/Device/Nuvoton/M2351/Source/system_M2351.c:360:14
	ldr	r1, __arm_cp.7_0
	str	r0, [r1]
	.loc	2 363 23 is_stmt 1              @ ../../../Library/Device/Nuvoton/M2351/Source/system_M2351.c:363:23
	bl	CLK_GetCPUFreq
	.loc	2 363 21 is_stmt 0              @ ../../../Library/Device/Nuvoton/M2351/Source/system_M2351.c:363:21
	ldr	r1, __arm_cp.7_1
	str	r0, [r1]
	ldr	r1, __arm_cp.7_2
	.loc	2 366 36 is_stmt 1              @ ../../../Library/Device/Nuvoton/M2351/Source/system_M2351.c:366:36
	adds	r0, r0, r1
	ldr	r1, __arm_cp.7_3
	.loc	2 366 48 is_stmt 0              @ ../../../Library/Device/Nuvoton/M2351/Source/system_M2351.c:366:48
	udiv	r0, r0, r1
	.loc	2 366 17                        @ ../../../Library/Device/Nuvoton/M2351/Source/system_M2351.c:366:17
	ldr	r1, __arm_cp.7_4
	str	r0, [r1]
	.loc	2 367 1 is_stmt 1               @ ../../../Library/Device/Nuvoton/M2351/Source/system_M2351.c:367:1
	pop	{r7, pc}
.Ltmp55:
	.p2align	2
@ %bb.1:
	.loc	2 0 1 is_stmt 0                 @ ../../../Library/Device/Nuvoton/M2351/Source/system_M2351.c:0:1
__arm_cp.7_0:
	.long	PllClock
.Lcpi_end31:
	.size	__arm_cp.7_0, .Lcpi_end31-__arm_cp.7_0
__arm_cp.7_1:
	.long	SystemCoreClock
.Lcpi_end32:
	.size	__arm_cp.7_1, .Lcpi_end32-__arm_cp.7_1
__arm_cp.7_2:
	.long	500000                          @ 0x7a120
.Lcpi_end33:
	.size	__arm_cp.7_2, .Lcpi_end33-__arm_cp.7_2
__arm_cp.7_3:
	.long	1000000                         @ 0xf4240
.Lcpi_end34:
	.size	__arm_cp.7_3, .Lcpi_end34-__arm_cp.7_3
__arm_cp.7_4:
	.long	CyclesPerUs
.Lcpi_end35:
	.size	__arm_cp.7_4, .Lcpi_end35-__arm_cp.7_4
.Lfunc_end7:
	.size	SystemCoreClockUpdate, .Lfunc_end7-SystemCoreClockUpdate
	.cfi_endproc
	.cantunwind
	.fnend
                                        @ -- End function
	.section	.text.SystemInit,"ax",%progbits
	.hidden	SystemInit                      @ -- Begin function SystemInit
	.globl	SystemInit
	.p2align	2
	.type	SystemInit,%function
	.code	16                              @ @SystemInit
	.thumb_func
SystemInit:
.Lfunc_begin8:
	.loc	2 381 0 is_stmt 1               @ ../../../Library/Device/Nuvoton/M2351/Source/system_M2351.c:381:0
	.fnstart
	.cfi_startproc
@ %bb.0:
	.save	{r7, lr}
	push	{r7, lr}
	.cfi_def_cfa_offset 8
	.cfi_offset lr, -4
	.cfi_offset r7, -8
	ldr	r0, __arm_cp.8_0
.Ltmp56:
	.loc	2 383 15 prologue_end           @ ../../../Library/Device/Nuvoton/M2351/Source/system_M2351.c:383:15
	ldr	r1, __arm_cp.8_1
	str	r1, [r0]
	.loc	2 387 5                         @ ../../../Library/Device/Nuvoton/M2351/Source/system_M2351.c:387:5
	bl	TZ_SAU_Setup
	.loc	2 388 5                         @ ../../../Library/Device/Nuvoton/M2351/Source/system_M2351.c:388:5
	bl	SCU_Setup
	.loc	2 389 5                         @ ../../../Library/Device/Nuvoton/M2351/Source/system_M2351.c:389:5
	bl	FMC_NSBA_Setup
	.loc	2 396 1                         @ ../../../Library/Device/Nuvoton/M2351/Source/system_M2351.c:396:1
	pop	{r7, pc}
.Ltmp57:
	.p2align	2
@ %bb.1:
	.loc	2 0 1 is_stmt 0                 @ ../../../Library/Device/Nuvoton/M2351/Source/system_M2351.c:0:1
__arm_cp.8_0:
	.long	3758157064                      @ 0xe000ed08
.Lcpi_end36:
	.size	__arm_cp.8_0, .Lcpi_end36-__arm_cp.8_0
__arm_cp.8_1:
	.long	__Vectors
.Lcpi_end37:
	.size	__arm_cp.8_1, .Lcpi_end37-__arm_cp.8_1
.Lfunc_end8:
	.size	SystemInit, .Lfunc_end8-SystemInit
	.cfi_endproc
	.cantunwind
	.fnend
                                        @ -- End function
	.hidden	SystemCoreClock                 @ @SystemCoreClock
	.type	SystemCoreClock,%object
	.section	.data.SystemCoreClock,"aw",%progbits
	.globl	SystemCoreClock
	.p2align	2
SystemCoreClock:
	.long	48000000                        @ 0x2dc6c00
	.size	SystemCoreClock, 4

	.hidden	CyclesPerUs                     @ @CyclesPerUs
	.type	CyclesPerUs,%object
	.section	.data.CyclesPerUs,"aw",%progbits
	.globl	CyclesPerUs
	.p2align	2
CyclesPerUs:
	.long	48                              @ 0x30
	.size	CyclesPerUs, 4

	.hidden	PllClock                        @ @PllClock
	.type	PllClock,%object
	.section	.data.PllClock,"aw",%progbits
	.globl	PllClock
	.p2align	2
PllClock:
	.long	48000000                        @ 0x2dc6c00
	.size	PllClock, 4

	.hidden	gau32ClkSrcTbl                  @ @gau32ClkSrcTbl
	.type	gau32ClkSrcTbl,%object
	.section	.rodata.gau32ClkSrcTbl,"a",%progbits
	.globl	gau32ClkSrcTbl
	.p2align	2
gau32ClkSrcTbl:
	.long	12000000                        @ 0xb71b00
	.long	32768                           @ 0x8000
	.long	0                               @ 0x0
	.long	10000                           @ 0x2710
	.long	0                               @ 0x0
	.long	48000000                        @ 0x2dc6c00
	.long	0                               @ 0x0
	.long	12000000                        @ 0xb71b00
	.size	gau32ClkSrcTbl, 32

	.type	.L.str,%object                  @ @.str
	.section	.rodata.str1.1,"aMS",%progbits,1
.L.str:
	.asciz	"CPU"
	.size	.L.str, 4

	.type	.L.str.1,%object                @ @.str.1
.L.str.1:
	.asciz	"PDMA0"
	.size	.L.str.1, 6

	.type	.L.str.2,%object                @ @.str.2
.L.str.2:
	.asciz	"SDH0"
	.size	.L.str.2, 5

	.type	.L.str.3,%object                @ @.str.3
.L.str.3:
	.asciz	"CRPT"
	.size	.L.str.3, 5

	.type	.L.str.4,%object                @ @.str.4
.L.str.4:
	.asciz	"USBH"
	.size	.L.str.4, 5

	.type	.L.str.5,%object                @ @.str.5
.L.str.5:
	.asciz	"PDMA1"
	.size	.L.str.5, 6

	.type	.L.str.6,%object                @ @.str.6
.L.str.6:
	.asciz	"APB0"
	.size	.L.str.6, 5

	.type	.L.str.7,%object                @ @.str.7
.L.str.7:
	.asciz	"APB1"
	.size	.L.str.7, 5

	.type	.L.str.8,%object                @ @.str.8
.L.str.8:
	.asciz	"GPIO"
	.size	.L.str.8, 5

	.type	.L.str.9,%object                @ @.str.9
.L.str.9:
	.asciz	"EBI"
	.size	.L.str.9, 4

	.type	.L.str.10,%object               @ @.str.10
.L.str.10:
	.asciz	"CRC"
	.size	.L.str.10, 4

	.type	.L.str.11,%object               @ @.str.11
.L.str.11:
	.asciz	"SRAM0"
	.size	.L.str.11, 6

	.type	.L.str.12,%object               @ @.str.12
.L.str.12:
	.asciz	"SRAM1"
	.size	.L.str.12, 6

	.type	.L.str.13,%object               @ @.str.13
.L.str.13:
	.asciz	"FMC"
	.size	.L.str.13, 4

	.type	.L.str.14,%object               @ @.str.14
.L.str.14:
	.asciz	"FLASH"
	.size	.L.str.14, 6

	.type	.L.str.15,%object               @ @.str.15
.L.str.15:
	.asciz	"SCU"
	.size	.L.str.15, 4

	.type	.L.str.16,%object               @ @.str.16
.L.str.16:
	.asciz	"SYS"
	.size	.L.str.16, 4

	.type	.L__const.SCU_IRQHandler.ipname,%object @ @__const.SCU_IRQHandler.ipname
	.section	.rodata..L__const.SCU_IRQHandler.ipname,"a",%progbits
	.p2align	2
.L__const.SCU_IRQHandler.ipname:
	.long	.L.str.6
	.long	.L.str.7
	.long	0
	.long	0
	.long	.L.str.8
	.long	.L.str.9
	.long	.L.str.4
	.long	.L.str.10
	.long	.L.str.2
	.long	0
	.long	.L.str.1
	.long	.L.str.5
	.long	.L.str.11
	.long	.L.str.12
	.long	.L.str.13
	.long	.L.str.14
	.long	.L.str.15
	.long	.L.str.16
	.long	.L.str.3
	.size	.L__const.SCU_IRQHandler.ipname, 76

	.globl	_printf_percent
	.globl	_printf_flags
	.globl	_printf_widthprec
	.globl	_printf_pre_padding
	.globl	_printf_s
	.globl	_printf_x
	.globl	_printf_longlong_hex
	.globl	_printf_str
	.hidden	_printf_percent
	.hidden	_printf_flags
	.hidden	_printf_widthprec
	.hidden	_printf_pre_padding
	.hidden	_printf_s
	.hidden	_printf_x
	.hidden	_printf_longlong_hex
	.hidden	_printf_str
	.section	".note.GNU-stack","",%progbits
	.eabi_attribute	30, 1	@ Tag_ABI_optimization_goals
	.ARM_attribute	16, 1	@ Tag_AV_eba