	.text
	.syntax unified
	.eabi_attribute	67, "2.09"	@ Tag_conformance
	.cpu	cortex-m23
	.eabi_attribute	6, 16	@ Tag_CPU_arch
	.eabi_attribute	7, 77	@ Tag_CPU_arch_profile
	.eabi_attribute	8, 0	@ Tag_ARM_ISA_use
	.eabi_attribute	9, 3	@ Tag_THUMB_ISA_use
	.eabi_attribute	34, 0	@ Tag_CPU_unaligned_access
	.eabi_attribute	17, 1	@ Tag_ABI_PCS_GOT_use
	.eabi_attribute	20, 2	@ Tag_ABI_FP_denormal
	.eabi_attribute	21, 0	@ Tag_ABI_FP_exceptions
	.eabi_attribute	23, 1	@ Tag_ABI_FP_number_model
	.eabi_attribute	24, 1	@ Tag_ABI_align_needed
	.eabi_attribute	25, 1	@ Tag_ABI_align_preserved
	.eabi_attribute	38, 1	@ Tag_ABI_FP_16bit_format
	.eabi_attribute	18, 2	@ Tag_ABI_PCS_wchar_t
	.eabi_attribute	26, 1	@ Tag_ABI_enum_size
	.eabi_attribute	14, 0	@ Tag_ABI_PCS_R9_use
	.file	"uart.c"
	.file	1 "C:\\Users\\shw26\\OneDrive\\Desktop\\2021\\2021-1\\\354\272\241\354\212\244\355\206\244\353\224\224\354\236\220\354\235\2702\\Nuvoton\\M2351_BSP_v3.00.004\\M2351Series_BSP_CMSIS_V3.00.004\\MyProject\\PulseMonitoring\\Secure" "../../../Library/Device/Nuvoton/M2351/Include\\M2351.h"
	.file	2 "C:\\" "Keil_v5\\ARM\\ARMCLANG\\Bin\\..\\include\\stdint.h"
	.file	3 "C:\\Users\\shw26\\OneDrive\\Desktop\\2021\\2021-1\\\354\272\241\354\212\244\355\206\244\353\224\224\354\236\220\354\235\2702\\Nuvoton\\M2351_BSP_v3.00.004\\M2351Series_BSP_CMSIS_V3.00.004\\MyProject\\PulseMonitoring\\Secure" "../../../Library/Device/Nuvoton/M2351/Include/uart_reg.h"
	.file	4 "C:\\Users\\shw26\\OneDrive\\Desktop\\2021\\2021-1\\\354\272\241\354\212\244\355\206\244\353\224\224\354\236\220\354\235\2702\\Nuvoton\\M2351_BSP_v3.00.004\\M2351Series_BSP_CMSIS_V3.00.004\\MyProject\\PulseMonitoring\\Secure" "../../../Library/CMSIS/Include\\core_armv8mbl.h"
	.section	.text.UART_ClearIntFlag,"ax",%progbits
	.hidden	UART_ClearIntFlag               @ -- Begin function UART_ClearIntFlag
	.globl	UART_ClearIntFlag
	.p2align	2
	.type	UART_ClearIntFlag,%function
	.code	16                              @ @UART_ClearIntFlag
	.thumb_func
UART_ClearIntFlag:
.Lfunc_begin0:
	.file	5 "C:\\Users\\shw26\\OneDrive\\Desktop\\2021\\2021-1\\\354\272\241\354\212\244\355\206\244\353\224\224\354\236\220\354\235\2702\\Nuvoton\\M2351_BSP_v3.00.004\\M2351Series_BSP_CMSIS_V3.00.004\\MyProject\\PulseMonitoring\\Secure" "../../../Library/StdDriver/src/uart.c"
	.loc	5 42 0                          @ ../../../Library/StdDriver/src/uart.c:42:0
	.fnstart
	.cfi_sections .debug_frame
	.cfi_startproc
@ %bb.0:
	@DEBUG_VALUE: UART_ClearIntFlag:uart <- $r0
	@DEBUG_VALUE: UART_ClearIntFlag:u32InterruptFlag <- $r1
	.save	{r4, lr}
	push	{r4, lr}
	.cfi_def_cfa_offset 8
	.cfi_offset lr, -4
	.cfi_offset r4, -8
	ldr	r2, __arm_cp.0_0
	@DEBUG_VALUE: UART_ClearIntFlag:u32InterruptFlag <- $r1
	@DEBUG_VALUE: UART_ClearIntFlag:uart <- $r0
.Ltmp0:
	.loc	5 44 25 prologue_end            @ ../../../Library/StdDriver/src/uart.c:44:25
	mov	r3, r2
	adds	r3, #241
.Ltmp1:
	.loc	5 44 8 is_stmt 0                @ ../../../Library/StdDriver/src/uart.c:44:8
	tst	r1, r3
	beq	.LBB0_2
.Ltmp2:
@ %bb.1:
	@DEBUG_VALUE: UART_ClearIntFlag:u32InterruptFlag <- $r1
	@DEBUG_VALUE: UART_ClearIntFlag:uart <- $r0
	.loc	5 0 8                           @ ../../../Library/StdDriver/src/uart.c:0:8
	movs	r3, #104
.Ltmp3:
	.loc	5 46 23 is_stmt 1               @ ../../../Library/StdDriver/src/uart.c:46:23
	str	r3, [r0, #24]
.Ltmp4:
.LBB0_2:
	@DEBUG_VALUE: UART_ClearIntFlag:u32InterruptFlag <- $r1
	@DEBUG_VALUE: UART_ClearIntFlag:uart <- $r0
	.loc	5 49 8                          @ ../../../Library/StdDriver/src/uart.c:49:8
	lsls	r3, r1, #20
	bmi	.LBB0_7
.Ltmp5:
@ %bb.3:
	@DEBUG_VALUE: UART_ClearIntFlag:u32InterruptFlag <- $r1
	@DEBUG_VALUE: UART_ClearIntFlag:uart <- $r0
	.loc	5 54 8                          @ ../../../Library/StdDriver/src/uart.c:54:8
	lsls	r3, r1, #18
	bmi	.LBB0_8
.Ltmp6:
.LBB0_4:
	@DEBUG_VALUE: UART_ClearIntFlag:u32InterruptFlag <- $r1
	@DEBUG_VALUE: UART_ClearIntFlag:uart <- $r0
	.loc	5 59 8                          @ ../../../Library/StdDriver/src/uart.c:59:8
	lsls	r3, r1, #17
	bmi	.LBB0_9
.Ltmp7:
.LBB0_5:
	@DEBUG_VALUE: UART_ClearIntFlag:u32InterruptFlag <- $r1
	@DEBUG_VALUE: UART_ClearIntFlag:uart <- $r0
	.loc	5 66 8                          @ ../../../Library/StdDriver/src/uart.c:66:8
	lsls	r1, r1, #16
.Ltmp8:
	@DEBUG_VALUE: UART_ClearIntFlag:u32InterruptFlag <- [DW_OP_LLVM_entry_value 1] $r1
	bmi	.LBB0_10
.Ltmp9:
.LBB0_6:
	@DEBUG_VALUE: UART_ClearIntFlag:uart <- $r0
	@DEBUG_VALUE: UART_ClearIntFlag:u32InterruptFlag <- [DW_OP_LLVM_entry_value 1] $r1
	.loc	5 74 1                          @ ../../../Library/StdDriver/src/uart.c:74:1
	pop	{r4, pc}
.Ltmp10:
.LBB0_7:
	@DEBUG_VALUE: UART_ClearIntFlag:u32InterruptFlag <- $r1
	@DEBUG_VALUE: UART_ClearIntFlag:uart <- $r0
	.loc	5 51 24                         @ ../../../Library/StdDriver/src/uart.c:51:24
	ldr	r3, [r0, #20]
	movs	r4, #1
	orrs	r4, r3
	str	r4, [r0, #20]
.Ltmp11:
	.loc	5 54 8                          @ ../../../Library/StdDriver/src/uart.c:54:8
	lsls	r3, r1, #18
	bpl	.LBB0_4
.Ltmp12:
.LBB0_8:
	@DEBUG_VALUE: UART_ClearIntFlag:u32InterruptFlag <- $r1
	@DEBUG_VALUE: UART_ClearIntFlag:uart <- $r0
	.loc	5 0 8 is_stmt 0                 @ ../../../Library/StdDriver/src/uart.c:0:8
	ldr	r3, __arm_cp.0_1
.Ltmp13:
	.loc	5 56 23 is_stmt 1               @ ../../../Library/StdDriver/src/uart.c:56:23
	str	r3, [r0, #24]
.Ltmp14:
	.loc	5 59 8                          @ ../../../Library/StdDriver/src/uart.c:59:8
	lsls	r3, r1, #17
	bpl	.LBB0_5
.Ltmp15:
.LBB0_9:
	@DEBUG_VALUE: UART_ClearIntFlag:u32InterruptFlag <- $r1
	@DEBUG_VALUE: UART_ClearIntFlag:uart <- $r0
	.loc	5 0 8 is_stmt 0                 @ ../../../Library/StdDriver/src/uart.c:0:8
	movs	r3, #31
.Ltmp16:
	.loc	5 61 21 is_stmt 1               @ ../../../Library/StdDriver/src/uart.c:61:21
	str	r3, [r0, #68]
.Ltmp17:
	.loc	5 66 8                          @ ../../../Library/StdDriver/src/uart.c:66:8
	lsls	r1, r1, #16
.Ltmp18:
	@DEBUG_VALUE: UART_ClearIntFlag:u32InterruptFlag <- [DW_OP_LLVM_entry_value 1] $r1
	bpl	.LBB0_6
.Ltmp19:
.LBB0_10:
	@DEBUG_VALUE: UART_ClearIntFlag:uart <- $r0
	@DEBUG_VALUE: UART_ClearIntFlag:u32InterruptFlag <- [DW_OP_LLVM_entry_value 1] $r1
	.loc	5 0 8 is_stmt 0                 @ ../../../Library/StdDriver/src/uart.c:0:8
	movs	r1, #128
.Ltmp20:
	.loc	5 68 22 is_stmt 1               @ ../../../Library/StdDriver/src/uart.c:68:22
	str	r1, [r0, #28]
	.loc	5 69 22                         @ ../../../Library/StdDriver/src/uart.c:69:22
	str	r2, [r0, #56]
.Ltmp21:
	.loc	5 74 1                          @ ../../../Library/StdDriver/src/uart.c:74:1
	pop	{r4, pc}
.Ltmp22:
	.p2align	2
@ %bb.11:
	.loc	5 0 1 is_stmt 0                 @ ../../../Library/StdDriver/src/uart.c:0:1
__arm_cp.0_0:
	.long	783                             @ 0x30f
.Lcpi_end0:
	.size	__arm_cp.0_0, .Lcpi_end0-__arm_cp.0_0
__arm_cp.0_1:
	.long	16777217                        @ 0x1000001
.Lcpi_end1:
	.size	__arm_cp.0_1, .Lcpi_end1-__arm_cp.0_1
.Lfunc_end0:
	.size	UART_ClearIntFlag, .Lfunc_end0-UART_ClearIntFlag
	.cfi_endproc
	.cantunwind
	.fnend
                                        @ -- End function
	.section	.text.UART_Close,"ax",%progbits
	.hidden	UART_Close                      @ -- Begin function UART_Close
	.globl	UART_Close
	.p2align	1
	.type	UART_Close,%function
	.code	16                              @ @UART_Close
	.thumb_func
UART_Close:
.Lfunc_begin1:
	.loc	5 87 0 is_stmt 1                @ ../../../Library/StdDriver/src/uart.c:87:0
	.fnstart
	.cfi_startproc
@ %bb.0:
	@DEBUG_VALUE: UART_Close:uart <- $r0
	movs	r1, #0
	@DEBUG_VALUE: UART_Close:uart <- $r0
.Ltmp23:
	.loc	5 88 17 prologue_end            @ ../../../Library/StdDriver/src/uart.c:88:17
	str	r1, [r0, #4]
	.loc	5 89 1                          @ ../../../Library/StdDriver/src/uart.c:89:1
	bx	lr
.Ltmp24:
.Lfunc_end1:
	.size	UART_Close, .Lfunc_end1-UART_Close
	.cfi_endproc
	.cantunwind
	.fnend
                                        @ -- End function
	.section	.text.UART_DisableFlowCtrl,"ax",%progbits
	.hidden	UART_DisableFlowCtrl            @ -- Begin function UART_DisableFlowCtrl
	.globl	UART_DisableFlowCtrl
	.p2align	1
	.type	UART_DisableFlowCtrl,%function
	.code	16                              @ @UART_DisableFlowCtrl
	.thumb_func
UART_DisableFlowCtrl:
.Lfunc_begin2:
	.loc	5 102 0                         @ ../../../Library/StdDriver/src/uart.c:102:0
	.fnstart
	.cfi_startproc
@ %bb.0:
	@DEBUG_VALUE: UART_DisableFlowCtrl:uart <- $r0
	@DEBUG_VALUE: UART_DisableFlowCtrl:uart <- $r0
	.loc	5 103 17 prologue_end           @ ../../../Library/StdDriver/src/uart.c:103:17
	ldr	r1, [r0, #4]
	movw	r2, #12288
	bics	r1, r2
	str	r1, [r0, #4]
	.loc	5 104 1                         @ ../../../Library/StdDriver/src/uart.c:104:1
	bx	lr
.Ltmp25:
.Lfunc_end2:
	.size	UART_DisableFlowCtrl, .Lfunc_end2-UART_DisableFlowCtrl
	.cfi_endproc
	.cantunwind
	.fnend
                                        @ -- End function
	.section	.text.UART_DisableInt,"ax",%progbits
	.hidden	UART_DisableInt                 @ -- Begin function UART_DisableInt
	.globl	UART_DisableInt
	.p2align	2
	.type	UART_DisableInt,%function
	.code	16                              @ @UART_DisableInt
	.thumb_func
UART_DisableInt:
.Lfunc_begin3:
	.loc	5 128 0                         @ ../../../Library/StdDriver/src/uart.c:128:0
	.fnstart
	.cfi_startproc
@ %bb.0:
	@DEBUG_VALUE: UART_DisableInt:uart <- $r0
	@DEBUG_VALUE: UART_DisableInt:uart <- $r0
	@DEBUG_VALUE: UART_DisableInt:u32InterruptFlag <- $r1
	@DEBUG_VALUE: UART_DisableInt:u32InterruptFlag <- $r1
	.save	{r7, lr}
	push	{r7, lr}
	.cfi_def_cfa_offset 8
	.cfi_offset lr, -4
	.cfi_offset r7, -8
.Ltmp26:
	.loc	5 130 5 prologue_end            @ ../../../Library/StdDriver/src/uart.c:130:5
	ldr	r2, [r0, #4]
	bics	r2, r1
	str	r2, [r0, #4]
	movs	r1, #36
.Ltmp27:
	@DEBUG_VALUE: UART_DisableInt:u32InterruptFlag <- [DW_OP_LLVM_entry_value 1] $r1
	.loc	5 0 5 is_stmt 0                 @ ../../../Library/StdDriver/src/uart.c:0:5
	ldr	r2, __arm_cp.3_0
	.loc	5 133 5 is_stmt 1               @ ../../../Library/StdDriver/src/uart.c:133:5
	cmp	r0, r2
	bgt	.LBB3_5
.Ltmp28:
@ %bb.1:
	@DEBUG_VALUE: UART_DisableInt:uart <- $r0
	@DEBUG_VALUE: UART_DisableInt:u32InterruptFlag <- [DW_OP_LLVM_entry_value 1] $r1
	.loc	5 0 5 is_stmt 0                 @ ../../../Library/StdDriver/src/uart.c:0:5
	ldr	r2, __arm_cp.3_8
	.loc	5 133 5                         @ ../../../Library/StdDriver/src/uart.c:133:5
	cmp	r0, r2
	bgt	.LBB3_11
.Ltmp29:
@ %bb.2:
	@DEBUG_VALUE: UART_DisableInt:uart <- $r0
	@DEBUG_VALUE: UART_DisableInt:u32InterruptFlag <- [DW_OP_LLVM_entry_value 1] $r1
	.loc	5 0 5                           @ ../../../Library/StdDriver/src/uart.c:0:5
	ldr	r2, __arm_cp.3_12
	.loc	5 133 5                         @ ../../../Library/StdDriver/src/uart.c:133:5
	cmp	r0, r2
	beq	.LBB3_22
.Ltmp30:
@ %bb.3:
	@DEBUG_VALUE: UART_DisableInt:uart <- $r0
	@DEBUG_VALUE: UART_DisableInt:u32InterruptFlag <- [DW_OP_LLVM_entry_value 1] $r1
	.loc	5 0 5                           @ ../../../Library/StdDriver/src/uart.c:0:5
	ldr	r1, __arm_cp.3_13
	.loc	5 133 5                         @ ../../../Library/StdDriver/src/uart.c:133:5
	cmp	r0, r1
	beq	.LBB3_19
.Ltmp31:
@ %bb.4:
	@DEBUG_VALUE: UART_DisableInt:uart <- $r0
	@DEBUG_VALUE: UART_DisableInt:u32InterruptFlag <- [DW_OP_LLVM_entry_value 1] $r1
	.loc	5 0 5                           @ ../../../Library/StdDriver/src/uart.c:0:5
	ldr	r1, __arm_cp.3_14
	b	.LBB3_9
.Ltmp32:
.LBB3_5:
	@DEBUG_VALUE: UART_DisableInt:uart <- $r0
	@DEBUG_VALUE: UART_DisableInt:u32InterruptFlag <- [DW_OP_LLVM_entry_value 1] $r1
	ldr	r2, __arm_cp.3_1
	.loc	5 133 5                         @ ../../../Library/StdDriver/src/uart.c:133:5
	cmp	r0, r2
	bgt	.LBB3_14
.Ltmp33:
@ %bb.6:
	@DEBUG_VALUE: UART_DisableInt:uart <- $r0
	@DEBUG_VALUE: UART_DisableInt:u32InterruptFlag <- [DW_OP_LLVM_entry_value 1] $r1
	.loc	5 0 5                           @ ../../../Library/StdDriver/src/uart.c:0:5
	ldr	r2, __arm_cp.3_5
	.loc	5 133 5                         @ ../../../Library/StdDriver/src/uart.c:133:5
	cmp	r0, r2
	beq	.LBB3_22
.Ltmp34:
@ %bb.7:
	@DEBUG_VALUE: UART_DisableInt:uart <- $r0
	@DEBUG_VALUE: UART_DisableInt:u32InterruptFlag <- [DW_OP_LLVM_entry_value 1] $r1
	.loc	5 0 5                           @ ../../../Library/StdDriver/src/uart.c:0:5
	ldr	r1, __arm_cp.3_6
	.loc	5 133 5                         @ ../../../Library/StdDriver/src/uart.c:133:5
	cmp	r0, r1
	beq	.LBB3_19
.Ltmp35:
@ %bb.8:
	@DEBUG_VALUE: UART_DisableInt:uart <- $r0
	@DEBUG_VALUE: UART_DisableInt:u32InterruptFlag <- [DW_OP_LLVM_entry_value 1] $r1
	.loc	5 0 5                           @ ../../../Library/StdDriver/src/uart.c:0:5
	ldr	r1, __arm_cp.3_7
.Ltmp36:
.LBB3_9:
	@DEBUG_VALUE: UART_DisableInt:uart <- $r0
	@DEBUG_VALUE: UART_DisableInt:u32InterruptFlag <- [DW_OP_LLVM_entry_value 1] $r1
	.loc	5 133 5                         @ ../../../Library/StdDriver/src/uart.c:133:5
	cmp	r0, r1
	bne	.LBB3_23
.Ltmp37:
@ %bb.10:
	@DEBUG_VALUE: UART_DisableInt:uart <- $r0
	@DEBUG_VALUE: UART_DisableInt:u32InterruptFlag <- [DW_OP_LLVM_entry_value 1] $r1
	.loc	5 0 5                           @ ../../../Library/StdDriver/src/uart.c:0:5
	movs	r1, #48
	b	.LBB3_22
.Ltmp38:
.LBB3_11:
	@DEBUG_VALUE: UART_DisableInt:uart <- $r0
	@DEBUG_VALUE: UART_DisableInt:u32InterruptFlag <- [DW_OP_LLVM_entry_value 1] $r1
	ldr	r1, __arm_cp.3_9
	.loc	5 133 5                         @ ../../../Library/StdDriver/src/uart.c:133:5
	cmp	r0, r1
	beq	.LBB3_20
.Ltmp39:
@ %bb.12:
	@DEBUG_VALUE: UART_DisableInt:uart <- $r0
	@DEBUG_VALUE: UART_DisableInt:u32InterruptFlag <- [DW_OP_LLVM_entry_value 1] $r1
	.loc	5 0 5                           @ ../../../Library/StdDriver/src/uart.c:0:5
	ldr	r1, __arm_cp.3_10
	.loc	5 133 5                         @ ../../../Library/StdDriver/src/uart.c:133:5
	cmp	r0, r1
	beq	.LBB3_21
.Ltmp40:
@ %bb.13:
	@DEBUG_VALUE: UART_DisableInt:uart <- $r0
	@DEBUG_VALUE: UART_DisableInt:u32InterruptFlag <- [DW_OP_LLVM_entry_value 1] $r1
	.loc	5 0 5                           @ ../../../Library/StdDriver/src/uart.c:0:5
	ldr	r1, __arm_cp.3_11
	b	.LBB3_17
.Ltmp41:
.LBB3_14:
	@DEBUG_VALUE: UART_DisableInt:uart <- $r0
	@DEBUG_VALUE: UART_DisableInt:u32InterruptFlag <- [DW_OP_LLVM_entry_value 1] $r1
	ldr	r1, __arm_cp.3_2
	.loc	5 133 5                         @ ../../../Library/StdDriver/src/uart.c:133:5
	cmp	r0, r1
	beq	.LBB3_20
.Ltmp42:
@ %bb.15:
	@DEBUG_VALUE: UART_DisableInt:uart <- $r0
	@DEBUG_VALUE: UART_DisableInt:u32InterruptFlag <- [DW_OP_LLVM_entry_value 1] $r1
	.loc	5 0 5                           @ ../../../Library/StdDriver/src/uart.c:0:5
	ldr	r1, __arm_cp.3_3
	.loc	5 133 5                         @ ../../../Library/StdDriver/src/uart.c:133:5
	cmp	r0, r1
	beq	.LBB3_21
.Ltmp43:
@ %bb.16:
	@DEBUG_VALUE: UART_DisableInt:uart <- $r0
	@DEBUG_VALUE: UART_DisableInt:u32InterruptFlag <- [DW_OP_LLVM_entry_value 1] $r1
	.loc	5 0 5                           @ ../../../Library/StdDriver/src/uart.c:0:5
	ldr	r1, __arm_cp.3_4
.Ltmp44:
.LBB3_17:
	@DEBUG_VALUE: UART_DisableInt:uart <- $r0
	@DEBUG_VALUE: UART_DisableInt:u32InterruptFlag <- [DW_OP_LLVM_entry_value 1] $r1
	.loc	5 133 5                         @ ../../../Library/StdDriver/src/uart.c:133:5
	cmp	r0, r1
	bne	.LBB3_23
.Ltmp45:
@ %bb.18:
	@DEBUG_VALUE: UART_DisableInt:uart <- $r0
	@DEBUG_VALUE: UART_DisableInt:u32InterruptFlag <- [DW_OP_LLVM_entry_value 1] $r1
	.loc	5 0 5                           @ ../../../Library/StdDriver/src/uart.c:0:5
	movs	r1, #75
	b	.LBB3_22
.Ltmp46:
.LBB3_19:
	@DEBUG_VALUE: UART_DisableInt:uart <- $r0
	@DEBUG_VALUE: UART_DisableInt:u32InterruptFlag <- [DW_OP_LLVM_entry_value 1] $r1
	movs	r1, #37
	b	.LBB3_22
.Ltmp47:
.LBB3_20:
	@DEBUG_VALUE: UART_DisableInt:uart <- $r0
	@DEBUG_VALUE: UART_DisableInt:u32InterruptFlag <- [DW_OP_LLVM_entry_value 1] $r1
	movs	r1, #49
	b	.LBB3_22
.Ltmp48:
.LBB3_21:
	@DEBUG_VALUE: UART_DisableInt:uart <- $r0
	@DEBUG_VALUE: UART_DisableInt:u32InterruptFlag <- [DW_OP_LLVM_entry_value 1] $r1
	movs	r1, #74
.Ltmp49:
.LBB3_22:
	@DEBUG_VALUE: UART_DisableInt:uart <- $r0
	@DEBUG_VALUE: UART_DisableInt:u32InterruptFlag <- [DW_OP_LLVM_entry_value 1] $r1
	mov	r0, r1
.Ltmp50:
	@DEBUG_VALUE: UART_DisableInt:uart <- [DW_OP_LLVM_entry_value 1] $r0
	bl	__NVIC_DisableIRQ
.Ltmp51:
.LBB3_23:
	@DEBUG_VALUE: UART_DisableInt:u32InterruptFlag <- [DW_OP_LLVM_entry_value 1] $r1
	.loc	5 162 1 is_stmt 1               @ ../../../Library/StdDriver/src/uart.c:162:1
	pop	{r7, pc}
.Ltmp52:
	.p2align	2
@ %bb.24:
	.loc	5 0 1 is_stmt 0                 @ ../../../Library/StdDriver/src/uart.c:0:1
__arm_cp.3_0:
	.long	1342636031                      @ 0x5006ffff
.Lcpi_end2:
	.size	__arm_cp.3_0, .Lcpi_end2-__arm_cp.3_0
__arm_cp.3_1:
	.long	1342648319                      @ 0x50072fff
.Lcpi_end3:
	.size	__arm_cp.3_1, .Lcpi_end3-__arm_cp.3_1
__arm_cp.3_2:
	.long	1342648320                      @ 0x50073000
.Lcpi_end4:
	.size	__arm_cp.3_2, .Lcpi_end4-__arm_cp.3_2
__arm_cp.3_3:
	.long	1342652416                      @ 0x50074000
.Lcpi_end5:
	.size	__arm_cp.3_3, .Lcpi_end5-__arm_cp.3_3
__arm_cp.3_4:
	.long	1342656512                      @ 0x50075000
.Lcpi_end6:
	.size	__arm_cp.3_4, .Lcpi_end6-__arm_cp.3_4
__arm_cp.3_5:
	.long	1342636032                      @ 0x50070000
.Lcpi_end7:
	.size	__arm_cp.3_5, .Lcpi_end7-__arm_cp.3_5
__arm_cp.3_6:
	.long	1342640128                      @ 0x50071000
.Lcpi_end8:
	.size	__arm_cp.3_6, .Lcpi_end8-__arm_cp.3_6
__arm_cp.3_7:
	.long	1342644224                      @ 0x50072000
.Lcpi_end9:
	.size	__arm_cp.3_7, .Lcpi_end9-__arm_cp.3_7
__arm_cp.3_8:
	.long	1074212863                      @ 0x40072fff
.Lcpi_end10:
	.size	__arm_cp.3_8, .Lcpi_end10-__arm_cp.3_8
__arm_cp.3_9:
	.long	1074212864                      @ 0x40073000
.Lcpi_end11:
	.size	__arm_cp.3_9, .Lcpi_end11-__arm_cp.3_9
__arm_cp.3_10:
	.long	1074216960                      @ 0x40074000
.Lcpi_end12:
	.size	__arm_cp.3_10, .Lcpi_end12-__arm_cp.3_10
__arm_cp.3_11:
	.long	1074221056                      @ 0x40075000
.Lcpi_end13:
	.size	__arm_cp.3_11, .Lcpi_end13-__arm_cp.3_11
__arm_cp.3_12:
	.long	1074200576                      @ 0x40070000
.Lcpi_end14:
	.size	__arm_cp.3_12, .Lcpi_end14-__arm_cp.3_12
__arm_cp.3_13:
	.long	1074204672                      @ 0x40071000
.Lcpi_end15:
	.size	__arm_cp.3_13, .Lcpi_end15-__arm_cp.3_13
__arm_cp.3_14:
	.long	1074208768                      @ 0x40072000
.Lcpi_end16:
	.size	__arm_cp.3_14, .Lcpi_end16-__arm_cp.3_14
.Lfunc_end3:
	.size	UART_DisableInt, .Lfunc_end3-UART_DisableInt
	.cfi_endproc
	.cantunwind
	.fnend
                                        @ -- End function
	.section	.text.__NVIC_DisableIRQ,"ax",%progbits
	.p2align	2                               @ -- Begin function __NVIC_DisableIRQ
	.type	__NVIC_DisableIRQ,%function
	.code	16                              @ @__NVIC_DisableIRQ
	.thumb_func
__NVIC_DisableIRQ:
.Lfunc_begin4:
	.loc	4 1312 0 is_stmt 1              @ ../../../Library/CMSIS/Include\core_armv8mbl.h:1312:0
	.fnstart
	.cfi_startproc
@ %bb.0:
	@DEBUG_VALUE: __NVIC_DisableIRQ:IRQn <- $r0
	movs	r1, #31
	@DEBUG_VALUE: __NVIC_DisableIRQ:IRQn <- $r0
.Ltmp53:
	.loc	4 1315 99 prologue_end          @ ../../../Library/CMSIS/Include\core_armv8mbl.h:1315:99
	ands	r1, r0
	movs	r2, #1
	.loc	4 1315 69 is_stmt 0             @ ../../../Library/CMSIS/Include\core_armv8mbl.h:1315:69
	lsls	r2, r1
	uxtb	r0, r0
.Ltmp54:
	@DEBUG_VALUE: __NVIC_DisableIRQ:IRQn <- [DW_OP_LLVM_entry_value 1] $r0
	.loc	4 1315 5                        @ ../../../Library/CMSIS/Include\core_armv8mbl.h:1315:5
	lsrs	r0, r0, #3
	ldr	r1, __arm_cp.4_0
	.loc	4 1315 43                       @ ../../../Library/CMSIS/Include\core_armv8mbl.h:1315:43
	adds	r0, r0, r1
	movs	r1, #3
	.loc	4 1315 5                        @ ../../../Library/CMSIS/Include\core_armv8mbl.h:1315:5
	bics	r0, r1
	.loc	4 1315 52                       @ ../../../Library/CMSIS/Include\core_armv8mbl.h:1315:52
	str	r2, [r0]
	.loc	4 1316 5 is_stmt 1              @ ../../../Library/CMSIS/Include\core_armv8mbl.h:1316:5
	dsb	sy
	.loc	4 1317 5                        @ ../../../Library/CMSIS/Include\core_armv8mbl.h:1317:5
	isb	sy
.Ltmp55:
	.loc	4 1319 1                        @ ../../../Library/CMSIS/Include\core_armv8mbl.h:1319:1
	bx	lr
.Ltmp56:
	.p2align	2
@ %bb.1:
	.loc	4 0 1 is_stmt 0                 @ ../../../Library/CMSIS/Include\core_armv8mbl.h:0:1
__arm_cp.4_0:
	.long	3758154112                      @ 0xe000e180
.Lcpi_end17:
	.size	__arm_cp.4_0, .Lcpi_end17-__arm_cp.4_0
.Lfunc_end4:
	.size	__NVIC_DisableIRQ, .Lfunc_end4-__NVIC_DisableIRQ
	.cfi_endproc
	.cantunwind
	.fnend
                                        @ -- End function
	.section	.text.UART_EnableFlowCtrl,"ax",%progbits
	.hidden	UART_EnableFlowCtrl             @ -- Begin function UART_EnableFlowCtrl
	.globl	UART_EnableFlowCtrl
	.p2align	1
	.type	UART_EnableFlowCtrl,%function
	.code	16                              @ @UART_EnableFlowCtrl
	.thumb_func
UART_EnableFlowCtrl:
.Lfunc_begin5:
	.loc	5 184 0 is_stmt 1               @ ../../../Library/StdDriver/src/uart.c:184:0
	.fnstart
	.cfi_startproc
@ %bb.0:
	@DEBUG_VALUE: UART_EnableFlowCtrl:uart <- $r0
	@DEBUG_VALUE: UART_EnableFlowCtrl:uart <- $r0
	.loc	5 186 17 prologue_end           @ ../../../Library/StdDriver/src/uart.c:186:17
	ldr	r1, [r0, #16]
	movw	r2, #512
	orrs	r2, r1
	str	r2, [r0, #16]
	.loc	5 189 20                        @ ../../../Library/StdDriver/src/uart.c:189:20
	ldr	r1, [r0, #20]
	movw	r2, #256
	orrs	r2, r1
	str	r2, [r0, #20]
	.loc	5 192 17                        @ ../../../Library/StdDriver/src/uart.c:192:17
	ldr	r1, [r0, #4]
	movw	r2, #12288
	orrs	r2, r1
	str	r2, [r0, #4]
	.loc	5 193 1                         @ ../../../Library/StdDriver/src/uart.c:193:1
	bx	lr
.Ltmp57:
.Lfunc_end5:
	.size	UART_EnableFlowCtrl, .Lfunc_end5-UART_EnableFlowCtrl
	.cfi_endproc
	.cantunwind
	.fnend
                                        @ -- End function
	.section	.text.UART_EnableInt,"ax",%progbits
	.hidden	UART_EnableInt                  @ -- Begin function UART_EnableInt
	.globl	UART_EnableInt
	.p2align	2
	.type	UART_EnableInt,%function
	.code	16                              @ @UART_EnableInt
	.thumb_func
UART_EnableInt:
.Lfunc_begin6:
	.loc	5 217 0                         @ ../../../Library/StdDriver/src/uart.c:217:0
	.fnstart
	.cfi_startproc
@ %bb.0:
	@DEBUG_VALUE: UART_EnableInt:uart <- $r0
	@DEBUG_VALUE: UART_EnableInt:uart <- $r0
	@DEBUG_VALUE: UART_EnableInt:u32InterruptFlag <- $r1
	@DEBUG_VALUE: UART_EnableInt:u32InterruptFlag <- $r1
	.save	{r7, lr}
	push	{r7, lr}
	.cfi_def_cfa_offset 8
	.cfi_offset lr, -4
	.cfi_offset r7, -8
.Ltmp58:
	.loc	5 220 5 prologue_end            @ ../../../Library/StdDriver/src/uart.c:220:5
	ldr	r2, [r0, #4]
	orrs	r2, r1
	str	r2, [r0, #4]
	movs	r1, #36
.Ltmp59:
	@DEBUG_VALUE: UART_EnableInt:u32InterruptFlag <- [DW_OP_LLVM_entry_value 1] $r1
	.loc	5 0 5 is_stmt 0                 @ ../../../Library/StdDriver/src/uart.c:0:5
	ldr	r2, __arm_cp.6_0
	.loc	5 223 5 is_stmt 1               @ ../../../Library/StdDriver/src/uart.c:223:5
	cmp	r0, r2
	bgt	.LBB6_5
.Ltmp60:
@ %bb.1:
	@DEBUG_VALUE: UART_EnableInt:uart <- $r0
	@DEBUG_VALUE: UART_EnableInt:u32InterruptFlag <- [DW_OP_LLVM_entry_value 1] $r1
	.loc	5 0 5 is_stmt 0                 @ ../../../Library/StdDriver/src/uart.c:0:5
	ldr	r2, __arm_cp.6_8
	.loc	5 223 5                         @ ../../../Library/StdDriver/src/uart.c:223:5
	cmp	r0, r2
	bgt	.LBB6_11
.Ltmp61:
@ %bb.2:
	@DEBUG_VALUE: UART_EnableInt:uart <- $r0
	@DEBUG_VALUE: UART_EnableInt:u32InterruptFlag <- [DW_OP_LLVM_entry_value 1] $r1
	.loc	5 0 5                           @ ../../../Library/StdDriver/src/uart.c:0:5
	ldr	r2, __arm_cp.6_12
	.loc	5 223 5                         @ ../../../Library/StdDriver/src/uart.c:223:5
	cmp	r0, r2
	beq	.LBB6_22
.Ltmp62:
@ %bb.3:
	@DEBUG_VALUE: UART_EnableInt:uart <- $r0
	@DEBUG_VALUE: UART_EnableInt:u32InterruptFlag <- [DW_OP_LLVM_entry_value 1] $r1
	.loc	5 0 5                           @ ../../../Library/StdDriver/src/uart.c:0:5
	ldr	r1, __arm_cp.6_13
	.loc	5 223 5                         @ ../../../Library/StdDriver/src/uart.c:223:5
	cmp	r0, r1
	beq	.LBB6_19
.Ltmp63:
@ %bb.4:
	@DEBUG_VALUE: UART_EnableInt:uart <- $r0
	@DEBUG_VALUE: UART_EnableInt:u32InterruptFlag <- [DW_OP_LLVM_entry_value 1] $r1
	.loc	5 0 5                           @ ../../../Library/StdDriver/src/uart.c:0:5
	ldr	r1, __arm_cp.6_14
	b	.LBB6_9
.Ltmp64:
.LBB6_5:
	@DEBUG_VALUE: UART_EnableInt:uart <- $r0
	@DEBUG_VALUE: UART_EnableInt:u32InterruptFlag <- [DW_OP_LLVM_entry_value 1] $r1
	ldr	r2, __arm_cp.6_1
	.loc	5 223 5                         @ ../../../Library/StdDriver/src/uart.c:223:5
	cmp	r0, r2
	bgt	.LBB6_14
.Ltmp65:
@ %bb.6:
	@DEBUG_VALUE: UART_EnableInt:uart <- $r0
	@DEBUG_VALUE: UART_EnableInt:u32InterruptFlag <- [DW_OP_LLVM_entry_value 1] $r1
	.loc	5 0 5                           @ ../../../Library/StdDriver/src/uart.c:0:5
	ldr	r2, __arm_cp.6_5
	.loc	5 223 5                         @ ../../../Library/StdDriver/src/uart.c:223:5
	cmp	r0, r2
	beq	.LBB6_22
.Ltmp66:
@ %bb.7:
	@DEBUG_VALUE: UART_EnableInt:uart <- $r0
	@DEBUG_VALUE: UART_EnableInt:u32InterruptFlag <- [DW_OP_LLVM_entry_value 1] $r1
	.loc	5 0 5                           @ ../../../Library/StdDriver/src/uart.c:0:5
	ldr	r1, __arm_cp.6_6
	.loc	5 223 5                         @ ../../../Library/StdDriver/src/uart.c:223:5
	cmp	r0, r1
	beq	.LBB6_19
.Ltmp67:
@ %bb.8:
	@DEBUG_VALUE: UART_EnableInt:uart <- $r0
	@DEBUG_VALUE: UART_EnableInt:u32InterruptFlag <- [DW_OP_LLVM_entry_value 1] $r1
	.loc	5 0 5                           @ ../../../Library/StdDriver/src/uart.c:0:5
	ldr	r1, __arm_cp.6_7
.Ltmp68:
.LBB6_9:
	@DEBUG_VALUE: UART_EnableInt:uart <- $r0
	@DEBUG_VALUE: UART_EnableInt:u32InterruptFlag <- [DW_OP_LLVM_entry_value 1] $r1
	.loc	5 223 5                         @ ../../../Library/StdDriver/src/uart.c:223:5
	cmp	r0, r1
	bne	.LBB6_23
.Ltmp69:
@ %bb.10:
	@DEBUG_VALUE: UART_EnableInt:uart <- $r0
	@DEBUG_VALUE: UART_EnableInt:u32InterruptFlag <- [DW_OP_LLVM_entry_value 1] $r1
	.loc	5 0 5                           @ ../../../Library/StdDriver/src/uart.c:0:5
	movs	r1, #48
	b	.LBB6_22
.Ltmp70:
.LBB6_11:
	@DEBUG_VALUE: UART_EnableInt:uart <- $r0
	@DEBUG_VALUE: UART_EnableInt:u32InterruptFlag <- [DW_OP_LLVM_entry_value 1] $r1
	ldr	r1, __arm_cp.6_9
	.loc	5 223 5                         @ ../../../Library/StdDriver/src/uart.c:223:5
	cmp	r0, r1
	beq	.LBB6_20
.Ltmp71:
@ %bb.12:
	@DEBUG_VALUE: UART_EnableInt:uart <- $r0
	@DEBUG_VALUE: UART_EnableInt:u32InterruptFlag <- [DW_OP_LLVM_entry_value 1] $r1
	.loc	5 0 5                           @ ../../../Library/StdDriver/src/uart.c:0:5
	ldr	r1, __arm_cp.6_10
	.loc	5 223 5                         @ ../../../Library/StdDriver/src/uart.c:223:5
	cmp	r0, r1
	beq	.LBB6_21
.Ltmp72:
@ %bb.13:
	@DEBUG_VALUE: UART_EnableInt:uart <- $r0
	@DEBUG_VALUE: UART_EnableInt:u32InterruptFlag <- [DW_OP_LLVM_entry_value 1] $r1
	.loc	5 0 5                           @ ../../../Library/StdDriver/src/uart.c:0:5
	ldr	r1, __arm_cp.6_11
	b	.LBB6_17
.Ltmp73:
.LBB6_14:
	@DEBUG_VALUE: UART_EnableInt:uart <- $r0
	@DEBUG_VALUE: UART_EnableInt:u32InterruptFlag <- [DW_OP_LLVM_entry_value 1] $r1
	ldr	r1, __arm_cp.6_2
	.loc	5 223 5                         @ ../../../Library/StdDriver/src/uart.c:223:5
	cmp	r0, r1
	beq	.LBB6_20
.Ltmp74:
@ %bb.15:
	@DEBUG_VALUE: UART_EnableInt:uart <- $r0
	@DEBUG_VALUE: UART_EnableInt:u32InterruptFlag <- [DW_OP_LLVM_entry_value 1] $r1
	.loc	5 0 5                           @ ../../../Library/StdDriver/src/uart.c:0:5
	ldr	r1, __arm_cp.6_3
	.loc	5 223 5                         @ ../../../Library/StdDriver/src/uart.c:223:5
	cmp	r0, r1
	beq	.LBB6_21
.Ltmp75:
@ %bb.16:
	@DEBUG_VALUE: UART_EnableInt:uart <- $r0
	@DEBUG_VALUE: UART_EnableInt:u32InterruptFlag <- [DW_OP_LLVM_entry_value 1] $r1
	.loc	5 0 5                           @ ../../../Library/StdDriver/src/uart.c:0:5
	ldr	r1, __arm_cp.6_4
.Ltmp76:
.LBB6_17:
	@DEBUG_VALUE: UART_EnableInt:uart <- $r0
	@DEBUG_VALUE: UART_EnableInt:u32InterruptFlag <- [DW_OP_LLVM_entry_value 1] $r1
	.loc	5 223 5                         @ ../../../Library/StdDriver/src/uart.c:223:5
	cmp	r0, r1
	bne	.LBB6_23
.Ltmp77:
@ %bb.18:
	@DEBUG_VALUE: UART_EnableInt:uart <- $r0
	@DEBUG_VALUE: UART_EnableInt:u32InterruptFlag <- [DW_OP_LLVM_entry_value 1] $r1
	.loc	5 0 5                           @ ../../../Library/StdDriver/src/uart.c:0:5
	movs	r1, #75
	b	.LBB6_22
.Ltmp78:
.LBB6_19:
	@DEBUG_VALUE: UART_EnableInt:uart <- $r0
	@DEBUG_VALUE: UART_EnableInt:u32InterruptFlag <- [DW_OP_LLVM_entry_value 1] $r1
	movs	r1, #37
	b	.LBB6_22
.Ltmp79:
.LBB6_20:
	@DEBUG_VALUE: UART_EnableInt:uart <- $r0
	@DEBUG_VALUE: UART_EnableInt:u32InterruptFlag <- [DW_OP_LLVM_entry_value 1] $r1
	movs	r1, #49
	b	.LBB6_22
.Ltmp80:
.LBB6_21:
	@DEBUG_VALUE: UART_EnableInt:uart <- $r0
	@DEBUG_VALUE: UART_EnableInt:u32InterruptFlag <- [DW_OP_LLVM_entry_value 1] $r1
	movs	r1, #74
.Ltmp81:
.LBB6_22:
	@DEBUG_VALUE: UART_EnableInt:uart <- $r0
	@DEBUG_VALUE: UART_EnableInt:u32InterruptFlag <- [DW_OP_LLVM_entry_value 1] $r1
	mov	r0, r1
.Ltmp82:
	@DEBUG_VALUE: UART_EnableInt:uart <- [DW_OP_LLVM_entry_value 1] $r0
	bl	__NVIC_EnableIRQ
.Ltmp83:
.LBB6_23:
	@DEBUG_VALUE: UART_EnableInt:u32InterruptFlag <- [DW_OP_LLVM_entry_value 1] $r1
	.loc	5 253 1 is_stmt 1               @ ../../../Library/StdDriver/src/uart.c:253:1
	pop	{r7, pc}
.Ltmp84:
	.p2align	2
@ %bb.24:
	.loc	5 0 1 is_stmt 0                 @ ../../../Library/StdDriver/src/uart.c:0:1
__arm_cp.6_0:
	.long	1342636031                      @ 0x5006ffff
.Lcpi_end18:
	.size	__arm_cp.6_0, .Lcpi_end18-__arm_cp.6_0
__arm_cp.6_1:
	.long	1342648319                      @ 0x50072fff
.Lcpi_end19:
	.size	__arm_cp.6_1, .Lcpi_end19-__arm_cp.6_1
__arm_cp.6_2:
	.long	1342648320                      @ 0x50073000
.Lcpi_end20:
	.size	__arm_cp.6_2, .Lcpi_end20-__arm_cp.6_2
__arm_cp.6_3:
	.long	1342652416                      @ 0x50074000
.Lcpi_end21:
	.size	__arm_cp.6_3, .Lcpi_end21-__arm_cp.6_3
__arm_cp.6_4:
	.long	1342656512                      @ 0x50075000
.Lcpi_end22:
	.size	__arm_cp.6_4, .Lcpi_end22-__arm_cp.6_4
__arm_cp.6_5:
	.long	1342636032                      @ 0x50070000
.Lcpi_end23:
	.size	__arm_cp.6_5, .Lcpi_end23-__arm_cp.6_5
__arm_cp.6_6:
	.long	1342640128                      @ 0x50071000
.Lcpi_end24:
	.size	__arm_cp.6_6, .Lcpi_end24-__arm_cp.6_6
__arm_cp.6_7:
	.long	1342644224                      @ 0x50072000
.Lcpi_end25:
	.size	__arm_cp.6_7, .Lcpi_end25-__arm_cp.6_7
__arm_cp.6_8:
	.long	1074212863                      @ 0x40072fff
.Lcpi_end26:
	.size	__arm_cp.6_8, .Lcpi_end26-__arm_cp.6_8
__arm_cp.6_9:
	.long	1074212864                      @ 0x40073000
.Lcpi_end27:
	.size	__arm_cp.6_9, .Lcpi_end27-__arm_cp.6_9
__arm_cp.6_10:
	.long	1074216960                      @ 0x40074000
.Lcpi_end28:
	.size	__arm_cp.6_10, .Lcpi_end28-__arm_cp.6_10
__arm_cp.6_11:
	.long	1074221056                      @ 0x40075000
.Lcpi_end29:
	.size	__arm_cp.6_11, .Lcpi_end29-__arm_cp.6_11
__arm_cp.6_12:
	.long	1074200576                      @ 0x40070000
.Lcpi_end30:
	.size	__arm_cp.6_12, .Lcpi_end30-__arm_cp.6_12
__arm_cp.6_13:
	.long	1074204672                      @ 0x40071000
.Lcpi_end31:
	.size	__arm_cp.6_13, .Lcpi_end31-__arm_cp.6_13
__arm_cp.6_14:
	.long	1074208768                      @ 0x40072000
.Lcpi_end32:
	.size	__arm_cp.6_14, .Lcpi_end32-__arm_cp.6_14
.Lfunc_end6:
	.size	UART_EnableInt, .Lfunc_end6-UART_EnableInt
	.cfi_endproc
	.cantunwind
	.fnend
                                        @ -- End function
	.section	.text.__NVIC_EnableIRQ,"ax",%progbits
	.p2align	2                               @ -- Begin function __NVIC_EnableIRQ
	.type	__NVIC_EnableIRQ,%function
	.code	16                              @ @__NVIC_EnableIRQ
	.thumb_func
__NVIC_EnableIRQ:
.Lfunc_begin7:
	.loc	4 1276 0 is_stmt 1              @ ../../../Library/CMSIS/Include\core_armv8mbl.h:1276:0
	.fnstart
	.cfi_startproc
@ %bb.0:
	@DEBUG_VALUE: __NVIC_EnableIRQ:IRQn <- $r0
	movs	r1, #31
	@DEBUG_VALUE: __NVIC_EnableIRQ:IRQn <- $r0
.Ltmp85:
	.loc	4 1279 99 prologue_end          @ ../../../Library/CMSIS/Include\core_armv8mbl.h:1279:99
	ands	r1, r0
	movs	r2, #1
	.loc	4 1279 69 is_stmt 0             @ ../../../Library/CMSIS/Include\core_armv8mbl.h:1279:69
	lsls	r2, r1
	uxtb	r0, r0
.Ltmp86:
	@DEBUG_VALUE: __NVIC_EnableIRQ:IRQn <- [DW_OP_LLVM_entry_value 1] $r0
	.loc	4 1279 5                        @ ../../../Library/CMSIS/Include\core_armv8mbl.h:1279:5
	lsrs	r0, r0, #3
	ldr	r1, __arm_cp.7_0
	.loc	4 1279 43                       @ ../../../Library/CMSIS/Include\core_armv8mbl.h:1279:43
	adds	r0, r0, r1
	movs	r1, #3
	.loc	4 1279 5                        @ ../../../Library/CMSIS/Include\core_armv8mbl.h:1279:5
	bics	r0, r1
	.loc	4 1279 52                       @ ../../../Library/CMSIS/Include\core_armv8mbl.h:1279:52
	str	r2, [r0]
.Ltmp87:
	.loc	4 1281 1 is_stmt 1              @ ../../../Library/CMSIS/Include\core_armv8mbl.h:1281:1
	bx	lr
.Ltmp88:
	.p2align	2
@ %bb.1:
	.loc	4 0 1 is_stmt 0                 @ ../../../Library/CMSIS/Include\core_armv8mbl.h:0:1
__arm_cp.7_0:
	.long	3758153984                      @ 0xe000e100
.Lcpi_end33:
	.size	__arm_cp.7_0, .Lcpi_end33-__arm_cp.7_0
.Lfunc_end7:
	.size	__NVIC_EnableIRQ, .Lfunc_end7-__NVIC_EnableIRQ
	.cfi_endproc
	.cantunwind
	.fnend
                                        @ -- End function
	.section	.text.UART_Open,"ax",%progbits
	.hidden	UART_Open                       @ -- Begin function UART_Open
	.globl	UART_Open
	.p2align	2
	.type	UART_Open,%function
	.code	16                              @ @UART_Open
	.thumb_func
UART_Open:
.Lfunc_begin8:
	.loc	5 267 0 is_stmt 1               @ ../../../Library/StdDriver/src/uart.c:267:0
	.fnstart
	.cfi_startproc
@ %bb.0:
	@DEBUG_VALUE: UART_Open:uart <- $r0
	@DEBUG_VALUE: UART_Open:u32baudrate <- $r1
	.save	{r4, r5, r6, r7, lr}
	push	{r4, r5, r6, r7, lr}
	.cfi_def_cfa_offset 20
	.cfi_offset lr, -4
	.cfi_offset r7, -8
	.cfi_offset r6, -12
	.cfi_offset r5, -16
	.cfi_offset r4, -20
	.pad	#20
	sub	sp, #20
	.cfi_def_cfa_offset 40
	str	r1, [sp]                        @ 4-byte Spill
	mov	r4, r0
.Ltmp89:
	@DEBUG_VALUE: UART_Open:u32baudrate <- [$sp+0]
	@DEBUG_VALUE: UART_Open:uart <- $r4
	.loc	5 269 14 prologue_end           @ ../../../Library/StdDriver/src/uart.c:269:14
	ldr	r0, __arm_cp.8_0
	ldm	r0!, {r1, r2, r3}
	ldr	r0, [r0]
	str	r0, [sp, #16]
	add	r0, sp, #4
	stm	r0!, {r1, r2, r3}
.Ltmp90:
	@DEBUG_VALUE: UART_Open:u32BaudDiv <- 0
	.loc	5 0 14 is_stmt 0                @ ../../../Library/StdDriver/src/uart.c:0:14
	ldr	r7, __arm_cp.8_1
	ldr	r0, __arm_cp.8_2
	.loc	5 273 5 is_stmt 1               @ ../../../Library/StdDriver/src/uart.c:273:5
	cmp	r4, r0
	bgt	.LBB8_5
.Ltmp91:
@ %bb.1:
	@DEBUG_VALUE: UART_Open:uart <- $r4
	@DEBUG_VALUE: UART_Open:u32baudrate <- [$sp+0]
	@DEBUG_VALUE: UART_Open:u32BaudDiv <- 0
	.loc	5 0 5 is_stmt 0                 @ ../../../Library/StdDriver/src/uart.c:0:5
	ldr	r0, __arm_cp.8_10
	.loc	5 273 5                         @ ../../../Library/StdDriver/src/uart.c:273:5
	cmp	r4, r0
	bgt	.LBB8_11
.Ltmp92:
@ %bb.2:
	@DEBUG_VALUE: UART_Open:uart <- $r4
	@DEBUG_VALUE: UART_Open:u32baudrate <- [$sp+0]
	@DEBUG_VALUE: UART_Open:u32BaudDiv <- 0
	.loc	5 0 5                           @ ../../../Library/StdDriver/src/uart.c:0:5
	ldr	r0, __arm_cp.8_14
	.loc	5 273 5                         @ ../../../Library/StdDriver/src/uart.c:273:5
	cmp	r4, r0
	beq	.LBB8_22
.Ltmp93:
@ %bb.3:
	@DEBUG_VALUE: UART_Open:uart <- $r4
	@DEBUG_VALUE: UART_Open:u32baudrate <- [$sp+0]
	@DEBUG_VALUE: UART_Open:u32BaudDiv <- 0
	.loc	5 0 5                           @ ../../../Library/StdDriver/src/uart.c:0:5
	ldr	r0, __arm_cp.8_15
	.loc	5 273 5                         @ ../../../Library/StdDriver/src/uart.c:273:5
	cmp	r4, r0
	beq	.LBB8_19
.Ltmp94:
@ %bb.4:
	@DEBUG_VALUE: UART_Open:uart <- $r4
	@DEBUG_VALUE: UART_Open:u32baudrate <- [$sp+0]
	@DEBUG_VALUE: UART_Open:u32BaudDiv <- 0
	.loc	5 0 5                           @ ../../../Library/StdDriver/src/uart.c:0:5
	ldr	r0, __arm_cp.8_16
	b	.LBB8_9
.Ltmp95:
.LBB8_5:
	@DEBUG_VALUE: UART_Open:uart <- $r4
	@DEBUG_VALUE: UART_Open:u32baudrate <- [$sp+0]
	@DEBUG_VALUE: UART_Open:u32BaudDiv <- 0
	ldr	r0, __arm_cp.8_3
	.loc	5 273 5                         @ ../../../Library/StdDriver/src/uart.c:273:5
	cmp	r4, r0
	bgt	.LBB8_14
.Ltmp96:
@ %bb.6:
	@DEBUG_VALUE: UART_Open:uart <- $r4
	@DEBUG_VALUE: UART_Open:u32baudrate <- [$sp+0]
	@DEBUG_VALUE: UART_Open:u32BaudDiv <- 0
	.loc	5 0 5                           @ ../../../Library/StdDriver/src/uart.c:0:5
	ldr	r0, __arm_cp.8_7
	.loc	5 273 5                         @ ../../../Library/StdDriver/src/uart.c:273:5
	cmp	r4, r0
	beq	.LBB8_22
.Ltmp97:
@ %bb.7:
	@DEBUG_VALUE: UART_Open:uart <- $r4
	@DEBUG_VALUE: UART_Open:u32baudrate <- [$sp+0]
	@DEBUG_VALUE: UART_Open:u32BaudDiv <- 0
	.loc	5 0 5                           @ ../../../Library/StdDriver/src/uart.c:0:5
	ldr	r0, __arm_cp.8_8
	.loc	5 273 5                         @ ../../../Library/StdDriver/src/uart.c:273:5
	cmp	r4, r0
	beq	.LBB8_19
.Ltmp98:
@ %bb.8:
	@DEBUG_VALUE: UART_Open:uart <- $r4
	@DEBUG_VALUE: UART_Open:u32baudrate <- [$sp+0]
	@DEBUG_VALUE: UART_Open:u32BaudDiv <- 0
	.loc	5 0 5                           @ ../../../Library/StdDriver/src/uart.c:0:5
	ldr	r0, __arm_cp.8_9
.Ltmp99:
.LBB8_9:
	@DEBUG_VALUE: UART_Open:uart <- $r4
	@DEBUG_VALUE: UART_Open:u32baudrate <- [$sp+0]
	@DEBUG_VALUE: UART_Open:u32BaudDiv <- 0
	.loc	5 273 5                         @ ../../../Library/StdDriver/src/uart.c:273:5
	cmp	r4, r0
                                        @ implicit-def: $r6
                                        @ implicit-def: $r7
	bne	.LBB8_23
.Ltmp100:
@ %bb.10:
	@DEBUG_VALUE: UART_Open:uart <- $r4
	@DEBUG_VALUE: UART_Open:u32baudrate <- [$sp+0]
	@DEBUG_VALUE: UART_Open:u32BaudDiv <- 0
	@DEBUG_VALUE: UART_Open:u32UartClkSrcSel <- undef
	@DEBUG_VALUE: UART_Open:u32UartClkDivNum <- undef
	.loc	5 0 5                           @ ../../../Library/StdDriver/src/uart.c:0:5
	ldr	r7, __arm_cp.8_20
	b	.LBB8_22
.Ltmp101:
.LBB8_11:
	@DEBUG_VALUE: UART_Open:uart <- $r4
	@DEBUG_VALUE: UART_Open:u32baudrate <- [$sp+0]
	@DEBUG_VALUE: UART_Open:u32BaudDiv <- 0
	ldr	r0, __arm_cp.8_11
	.loc	5 273 5                         @ ../../../Library/StdDriver/src/uart.c:273:5
	cmp	r4, r0
	beq	.LBB8_20
.Ltmp102:
@ %bb.12:
	@DEBUG_VALUE: UART_Open:uart <- $r4
	@DEBUG_VALUE: UART_Open:u32baudrate <- [$sp+0]
	@DEBUG_VALUE: UART_Open:u32BaudDiv <- 0
	.loc	5 0 5                           @ ../../../Library/StdDriver/src/uart.c:0:5
	ldr	r0, __arm_cp.8_12
	.loc	5 273 5                         @ ../../../Library/StdDriver/src/uart.c:273:5
	cmp	r4, r0
	beq	.LBB8_21
.Ltmp103:
@ %bb.13:
	@DEBUG_VALUE: UART_Open:uart <- $r4
	@DEBUG_VALUE: UART_Open:u32baudrate <- [$sp+0]
	@DEBUG_VALUE: UART_Open:u32BaudDiv <- 0
	.loc	5 0 5                           @ ../../../Library/StdDriver/src/uart.c:0:5
	ldr	r0, __arm_cp.8_13
	b	.LBB8_17
.Ltmp104:
.LBB8_14:
	@DEBUG_VALUE: UART_Open:uart <- $r4
	@DEBUG_VALUE: UART_Open:u32baudrate <- [$sp+0]
	@DEBUG_VALUE: UART_Open:u32BaudDiv <- 0
	ldr	r0, __arm_cp.8_4
	.loc	5 273 5                         @ ../../../Library/StdDriver/src/uart.c:273:5
	cmp	r4, r0
	beq	.LBB8_20
.Ltmp105:
@ %bb.15:
	@DEBUG_VALUE: UART_Open:uart <- $r4
	@DEBUG_VALUE: UART_Open:u32baudrate <- [$sp+0]
	@DEBUG_VALUE: UART_Open:u32BaudDiv <- 0
	.loc	5 0 5                           @ ../../../Library/StdDriver/src/uart.c:0:5
	ldr	r0, __arm_cp.8_5
	.loc	5 273 5                         @ ../../../Library/StdDriver/src/uart.c:273:5
	cmp	r4, r0
	beq	.LBB8_21
.Ltmp106:
@ %bb.16:
	@DEBUG_VALUE: UART_Open:uart <- $r4
	@DEBUG_VALUE: UART_Open:u32baudrate <- [$sp+0]
	@DEBUG_VALUE: UART_Open:u32BaudDiv <- 0
	.loc	5 0 5                           @ ../../../Library/StdDriver/src/uart.c:0:5
	ldr	r0, __arm_cp.8_6
.Ltmp107:
.LBB8_17:
	@DEBUG_VALUE: UART_Open:uart <- $r4
	@DEBUG_VALUE: UART_Open:u32baudrate <- [$sp+0]
	@DEBUG_VALUE: UART_Open:u32BaudDiv <- 0
	.loc	5 273 5                         @ ../../../Library/StdDriver/src/uart.c:273:5
	cmp	r4, r0
                                        @ implicit-def: $r6
                                        @ implicit-def: $r7
	bne	.LBB8_23
.Ltmp108:
@ %bb.18:
	@DEBUG_VALUE: UART_Open:uart <- $r4
	@DEBUG_VALUE: UART_Open:u32baudrate <- [$sp+0]
	@DEBUG_VALUE: UART_Open:u32BaudDiv <- 0
	.loc	5 0 5                           @ ../../../Library/StdDriver/src/uart.c:0:5
	ldr	r7, __arm_cp.8_17
	b	.LBB8_22
.Ltmp109:
.LBB8_19:
	@DEBUG_VALUE: UART_Open:uart <- $r4
	@DEBUG_VALUE: UART_Open:u32baudrate <- [$sp+0]
	@DEBUG_VALUE: UART_Open:u32BaudDiv <- 0
	@DEBUG_VALUE: UART_Open:u32UartClkSrcSel <- undef
	@DEBUG_VALUE: UART_Open:u32UartClkDivNum <- undef
	ldr	r7, __arm_cp.8_21
	b	.LBB8_22
.Ltmp110:
.LBB8_20:
	@DEBUG_VALUE: UART_Open:uart <- $r4
	@DEBUG_VALUE: UART_Open:u32baudrate <- [$sp+0]
	@DEBUG_VALUE: UART_Open:u32BaudDiv <- 0
	@DEBUG_VALUE: UART_Open:u32UartClkSrcSel <- undef
	@DEBUG_VALUE: UART_Open:u32UartClkDivNum <- undef
	ldr	r7, __arm_cp.8_19
	b	.LBB8_22
.Ltmp111:
.LBB8_21:
	@DEBUG_VALUE: UART_Open:uart <- $r4
	@DEBUG_VALUE: UART_Open:u32baudrate <- [$sp+0]
	@DEBUG_VALUE: UART_Open:u32BaudDiv <- 0
	@DEBUG_VALUE: UART_Open:u32UartClkSrcSel <- undef
	@DEBUG_VALUE: UART_Open:u32UartClkDivNum <- undef
	ldr	r7, __arm_cp.8_18
.Ltmp112:
.LBB8_22:
	@DEBUG_VALUE: UART_Open:uart <- $r4
	@DEBUG_VALUE: UART_Open:u32baudrate <- [$sp+0]
	@DEBUG_VALUE: UART_Open:u32BaudDiv <- 0
	mov	r0, r7
	bl	CLK_GetModuleClockSource
	mov	r6, r0
.Ltmp113:
	@DEBUG_VALUE: UART_Open:u32UartClkSrcSel <- $r6
	mov	r0, r7
	bl	CLK_GetModuleClockDivider
.Ltmp114:
	@DEBUG_VALUE: UART_Open:u32UartClkDivNum <- $r0
	.loc	5 310 11 is_stmt 1              @ ../../../Library/StdDriver/src/uart.c:310:11
	adds	r7, r0, #1
.Ltmp115:
.LBB8_23:
	@DEBUG_VALUE: UART_Open:uart <- $r4
	@DEBUG_VALUE: UART_Open:u32baudrate <- [$sp+0]
	@DEBUG_VALUE: UART_Open:u32BaudDiv <- 0
	@DEBUG_VALUE: UART_Open:u32UartClkSrcSel <- $r6
	@DEBUG_VALUE: UART_Open:u32UartClkDivNum <- undef
	.loc	5 0 11 is_stmt 0                @ ../../../Library/StdDriver/src/uart.c:0:11
	movs	r0, #0
	.loc	5 310 19                        @ ../../../Library/StdDriver/src/uart.c:310:19
	str	r0, [r4, #48]
	movs	r5, #3
	.loc	5 313 16 is_stmt 1              @ ../../../Library/StdDriver/src/uart.c:313:16
	str	r5, [r4, #12]
	.loc	5 316 16                        @ ../../../Library/StdDriver/src/uart.c:316:16
	ldr	r0, [r4, #8]
	ldr	r1, __arm_cp.8_22
	ands	r1, r0
	str	r1, [r4, #8]
	.loc	5 319 8                         @ ../../../Library/StdDriver/src/uart.c:319:8
	cmp	r6, #1
	bne	.LBB8_25
.Ltmp116:
@ %bb.24:
	@DEBUG_VALUE: UART_Open:u32UartClkSrcSel <- $r6
	@DEBUG_VALUE: UART_Open:uart <- $r4
	@DEBUG_VALUE: UART_Open:u32baudrate <- [$sp+0]
	@DEBUG_VALUE: UART_Open:u32BaudDiv <- 0
	.loc	5 321 40                        @ ../../../Library/StdDriver/src/uart.c:321:40
	bl	CLK_GetPLLClockFreq
	.loc	5 321 38 is_stmt 0              @ ../../../Library/StdDriver/src/uart.c:321:38
	str	r0, [sp, #8]
.Ltmp117:
.LBB8_25:
	@DEBUG_VALUE: UART_Open:u32UartClkSrcSel <- $r6
	@DEBUG_VALUE: UART_Open:uart <- $r4
	@DEBUG_VALUE: UART_Open:u32baudrate <- [$sp+0]
	@DEBUG_VALUE: UART_Open:u32BaudDiv <- 0
	.loc	5 0 38                          @ ../../../Library/StdDriver/src/uart.c:0:38
	ldr	r3, [sp]                        @ 4-byte Reload
	.loc	5 325 8 is_stmt 1               @ ../../../Library/StdDriver/src/uart.c:325:8
	cbz	r3, .LBB8_30
.Ltmp118:
@ %bb.26:
	@DEBUG_VALUE: UART_Open:u32UartClkSrcSel <- $r6
	@DEBUG_VALUE: UART_Open:uart <- $r4
	@DEBUG_VALUE: UART_Open:u32baudrate <- [$sp+0]
	@DEBUG_VALUE: UART_Open:u32BaudDiv <- 0
	.loc	5 327 22                        @ ../../../Library/StdDriver/src/uart.c:327:22
	lsls	r0, r6, #2
	add	r1, sp, #4
	ldr	r0, [r1, r0]
	udiv	r1, r0, r7
	lsrs	r0, r3, #1
	adds	r0, r1, r0
	udiv	r0, r0, r3
	subs	r0, r0, #2
.Ltmp119:
	@DEBUG_VALUE: UART_Open:u32BaudDiv <- $r0
	.loc	5 329 12                        @ ../../../Library/StdDriver/src/uart.c:329:12
	lsrs	r2, r0, #16
	beq	.LBB8_28
.Ltmp120:
@ %bb.27:
	@DEBUG_VALUE: UART_Open:u32UartClkSrcSel <- $r6
	@DEBUG_VALUE: UART_Open:uart <- $r4
	@DEBUG_VALUE: UART_Open:u32BaudDiv <- $r0
	@DEBUG_VALUE: UART_Open:u32baudrate <- [$sp+0]
	.loc	5 331 45                        @ ../../../Library/StdDriver/src/uart.c:331:45
	lsls	r0, r3, #3
.Ltmp121:
	adds	r0, r1, r0
	udiv	r0, r0, r3
	lsrs	r0, r0, #4
	subs	r0, r0, #2
	b	.LBB8_29
.Ltmp122:
.LBB8_28:
	@DEBUG_VALUE: UART_Open:u32UartClkSrcSel <- $r6
	@DEBUG_VALUE: UART_Open:uart <- $r4
	@DEBUG_VALUE: UART_Open:u32BaudDiv <- $r0
	@DEBUG_VALUE: UART_Open:u32baudrate <- [$sp+0]
	.loc	5 0 45 is_stmt 0                @ ../../../Library/StdDriver/src/uart.c:0:45
	lsls	r1, r5, #28
.Ltmp123:
	.loc	5 335 43 is_stmt 1              @ ../../../Library/StdDriver/src/uart.c:335:43
	orrs	r0, r1
.Ltmp124:
.LBB8_29:
	@DEBUG_VALUE: UART_Open:u32UartClkSrcSel <- $r6
	@DEBUG_VALUE: UART_Open:uart <- $r4
	@DEBUG_VALUE: UART_Open:u32baudrate <- [$sp+0]
	.loc	5 0 0 is_stmt 0                 @ ../../../Library/StdDriver/src/uart.c:0:0
	str	r0, [r4, #36]
.Ltmp125:
.LBB8_30:
	@DEBUG_VALUE: UART_Open:u32UartClkSrcSel <- $r6
	@DEBUG_VALUE: UART_Open:uart <- $r4
	@DEBUG_VALUE: UART_Open:u32baudrate <- [$sp+0]
	.loc	5 338 1 is_stmt 1               @ ../../../Library/StdDriver/src/uart.c:338:1
	add	sp, #20
.Ltmp126:
	pop	{r4, r5, r6, r7, pc}
.Ltmp127:
	.p2align	2
@ %bb.31:
	.loc	5 0 1 is_stmt 0                 @ ../../../Library/StdDriver/src/uart.c:0:1
__arm_cp.8_0:
	.long	.L__const.UART_Open.au32ClkTbl
.Lcpi_end34:
	.size	__arm_cp.8_0, .Lcpi_end34-__arm_cp.8_0
__arm_cp.8_1:
	.long	1468022032                      @ 0x57803d10
.Lcpi_end35:
	.size	__arm_cp.8_1, .Lcpi_end35-__arm_cp.8_1
__arm_cp.8_2:
	.long	1342636031                      @ 0x5006ffff
.Lcpi_end36:
	.size	__arm_cp.8_2, .Lcpi_end36-__arm_cp.8_2
__arm_cp.8_3:
	.long	1342648319                      @ 0x50072fff
.Lcpi_end37:
	.size	__arm_cp.8_3, .Lcpi_end37-__arm_cp.8_3
__arm_cp.8_4:
	.long	1342648320                      @ 0x50073000
.Lcpi_end38:
	.size	__arm_cp.8_4, .Lcpi_end38-__arm_cp.8_4
__arm_cp.8_5:
	.long	1342652416                      @ 0x50074000
.Lcpi_end39:
	.size	__arm_cp.8_5, .Lcpi_end39-__arm_cp.8_5
__arm_cp.8_6:
	.long	1342656512                      @ 0x50075000
.Lcpi_end40:
	.size	__arm_cp.8_6, .Lcpi_end40-__arm_cp.8_6
__arm_cp.8_7:
	.long	1342636032                      @ 0x50070000
.Lcpi_end41:
	.size	__arm_cp.8_7, .Lcpi_end41-__arm_cp.8_7
__arm_cp.8_8:
	.long	1342640128                      @ 0x50071000
.Lcpi_end42:
	.size	__arm_cp.8_8, .Lcpi_end42-__arm_cp.8_8
__arm_cp.8_9:
	.long	1342644224                      @ 0x50072000
.Lcpi_end43:
	.size	__arm_cp.8_9, .Lcpi_end43-__arm_cp.8_9
__arm_cp.8_10:
	.long	1074212863                      @ 0x40072fff
.Lcpi_end44:
	.size	__arm_cp.8_10, .Lcpi_end44-__arm_cp.8_10
__arm_cp.8_11:
	.long	1074212864                      @ 0x40073000
.Lcpi_end45:
	.size	__arm_cp.8_11, .Lcpi_end45-__arm_cp.8_11
__arm_cp.8_12:
	.long	1074216960                      @ 0x40074000
.Lcpi_end46:
	.size	__arm_cp.8_12, .Lcpi_end46-__arm_cp.8_12
__arm_cp.8_13:
	.long	1074221056                      @ 0x40075000
.Lcpi_end47:
	.size	__arm_cp.8_13, .Lcpi_end47-__arm_cp.8_13
__arm_cp.8_14:
	.long	1074200576                      @ 0x40070000
.Lcpi_end48:
	.size	__arm_cp.8_14, .Lcpi_end48-__arm_cp.8_14
__arm_cp.8_15:
	.long	1074204672                      @ 0x40071000
.Lcpi_end49:
	.size	__arm_cp.8_15, .Lcpi_end49-__arm_cp.8_15
__arm_cp.8_16:
	.long	1074208768                      @ 0x40072000
.Lcpi_end50:
	.size	__arm_cp.8_16, .Lcpi_end50-__arm_cp.8_16
__arm_cp.8_17:
	.long	2011970965                      @ 0x77ec3d95
.Lcpi_end51:
	.size	__arm_cp.8_17, .Lcpi_end51-__arm_cp.8_17
__arm_cp.8_18:
	.long	2009873684                      @ 0x77cc3d14
.Lcpi_end52:
	.size	__arm_cp.8_18, .Lcpi_end52-__arm_cp.8_18
__arm_cp.8_19:
	.long	2007776403                      @ 0x77ac3c93
.Lcpi_end53:
	.size	__arm_cp.8_19, .Lcpi_end53-__arm_cp.8_19
__arm_cp.8_20:
	.long	2005679122                      @ 0x778c3c12
.Lcpi_end54:
	.size	__arm_cp.8_20, .Lcpi_end54-__arm_cp.8_20
__arm_cp.8_21:
	.long	1470119313                      @ 0x57a03d91
.Lcpi_end55:
	.size	__arm_cp.8_21, .Lcpi_end55-__arm_cp.8_21
__arm_cp.8_22:
	.long	4293984015                      @ 0xfff0ff0f
.Lcpi_end56:
	.size	__arm_cp.8_22, .Lcpi_end56-__arm_cp.8_22
.Lfunc_end8:
	.size	UART_Open, .Lfunc_end8-UART_Open
	.cfi_endproc
	.cantunwind
	.fnend
                                        @ -- End function
	.section	.text.UART_Read,"ax",%progbits
	.hidden	UART_Read                       @ -- Begin function UART_Read
	.globl	UART_Read
	.p2align	1
	.type	UART_Read,%function
	.code	16                              @ @UART_Read
	.thumb_func
UART_Read:
.Lfunc_begin9:
	.loc	5 353 0 is_stmt 1               @ ../../../Library/StdDriver/src/uart.c:353:0
	.fnstart
	.cfi_startproc
@ %bb.0:
	@DEBUG_VALUE: UART_Read:uart <- $r0
	@DEBUG_VALUE: UART_Read:pu8RxBuf <- $r1
	@DEBUG_VALUE: UART_Read:u32ReadBytes <- $r2
	@DEBUG_VALUE: UART_Read:u32ReadBytes <- $r2
	@DEBUG_VALUE: UART_Read:pu8RxBuf <- $r1
	@DEBUG_VALUE: UART_Read:uart <- $r0
	.save	{r4, r5, r6, lr}
	push	{r4, r5, r6, lr}
	.cfi_def_cfa_offset 16
	.cfi_offset lr, -4
	.cfi_offset r6, -8
	.cfi_offset r5, -12
	.cfi_offset r4, -16
.Ltmp128:
	@DEBUG_VALUE: UART_Read:u32Count <- 0
	@DEBUG_VALUE: UART_Read:u32Exit <- 0
	.loc	5 357 5 prologue_end            @ ../../../Library/StdDriver/src/uart.c:357:5
	cbz	r2, .LBB9_8
.Ltmp129:
@ %bb.1:
	@DEBUG_VALUE: UART_Read:u32ReadBytes <- $r2
	@DEBUG_VALUE: UART_Read:pu8RxBuf <- $r1
	@DEBUG_VALUE: UART_Read:uart <- $r0
	@DEBUG_VALUE: UART_Read:u32Exit <- 0
	@DEBUG_VALUE: UART_Read:u32Count <- 0
	.loc	5 0 5 is_stmt 0                 @ ../../../Library/StdDriver/src/uart.c:0:5
	mov	r3, r0
.Ltmp130:
	@DEBUG_VALUE: UART_Read:uart <- $r3
	movs	r0, #0
	movs	r4, #1
	lsls	r4, r4, #30
.Ltmp131:
.LBB9_2:                                @ =>This Loop Header: Depth=1
                                        @     Child Loop BB9_3 Depth 2
	@DEBUG_VALUE: UART_Read:uart <- $r3
	@DEBUG_VALUE: UART_Read:u32ReadBytes <- $r2
	@DEBUG_VALUE: UART_Read:pu8RxBuf <- $r1
	@DEBUG_VALUE: UART_Read:u32Exit <- 0
	@DEBUG_VALUE: UART_Read:u32Count <- $r0
	mov	r5, r4
.Ltmp132:
.LBB9_3:                                @   Parent Loop BB9_2 Depth=1
                                        @ =>  This Inner Loop Header: Depth=2
	@DEBUG_VALUE: UART_Read:uart <- $r3
	@DEBUG_VALUE: UART_Read:u32ReadBytes <- $r2
	@DEBUG_VALUE: UART_Read:pu8RxBuf <- $r1
	@DEBUG_VALUE: UART_Read:u32Count <- $r0
	@DEBUG_VALUE: UART_Read:u32Exit <- 0
	@DEBUG_VALUE: UART_Read:u32delayno <- undef
	.loc	5 361 21 is_stmt 1              @ ../../../Library/StdDriver/src/uart.c:361:21
	ldr	r6, [r3, #24]
	.loc	5 361 9 is_stmt 0               @ ../../../Library/StdDriver/src/uart.c:361:9
	lsls	r6, r6, #17
	bpl	.LBB9_5
.Ltmp133:
@ %bb.4:                                @   in Loop: Header=BB9_3 Depth=2
	@DEBUG_VALUE: UART_Read:uart <- $r3
	@DEBUG_VALUE: UART_Read:u32ReadBytes <- $r2
	@DEBUG_VALUE: UART_Read:pu8RxBuf <- $r1
	@DEBUG_VALUE: UART_Read:u32Count <- $r0
	@DEBUG_VALUE: UART_Read:u32Exit <- 0
	@DEBUG_VALUE: UART_Read:u32delayno <- [DW_OP_plus_uconst 1, DW_OP_stack_value] undef
	.loc	5 364 27 is_stmt 1              @ ../../../Library/StdDriver/src/uart.c:364:27
	subs	r5, r5, #1
	bne	.LBB9_3
	b	.LBB9_7
.Ltmp134:
.LBB9_5:                                @   in Loop: Header=BB9_2 Depth=1
	@DEBUG_VALUE: UART_Read:uart <- $r3
	@DEBUG_VALUE: UART_Read:u32ReadBytes <- $r2
	@DEBUG_VALUE: UART_Read:pu8RxBuf <- $r1
	@DEBUG_VALUE: UART_Read:u32Count <- $r0
	@DEBUG_VALUE: UART_Read:u32Exit <- 0
	.loc	5 380 49                        @ ../../../Library/StdDriver/src/uart.c:380:49
	ldr	r5, [r3]
	.loc	5 380 32 is_stmt 0              @ ../../../Library/StdDriver/src/uart.c:380:32
	strb	r5, [r1, r0]
.Ltmp135:
	.loc	5 357 58 is_stmt 1              @ ../../../Library/StdDriver/src/uart.c:357:58
	adds	r0, r0, #1
.Ltmp136:
	@DEBUG_VALUE: UART_Read:u32Count <- $r0
	@DEBUG_VALUE: UART_Read:u32Exit <- 0
	.loc	5 357 5 is_stmt 0               @ ../../../Library/StdDriver/src/uart.c:357:5
	cmp	r0, r2
	bne	.LBB9_2
.Ltmp137:
@ %bb.6:
	@DEBUG_VALUE: UART_Read:uart <- $r3
	@DEBUG_VALUE: UART_Read:u32ReadBytes <- $r2
	@DEBUG_VALUE: UART_Read:pu8RxBuf <- $r1
	@DEBUG_VALUE: UART_Read:u32Count <- $r0
	@DEBUG_VALUE: UART_Read:u32Exit <- 0
	.loc	5 0 5                           @ ../../../Library/StdDriver/src/uart.c:0:5
	mov	r0, r2
.Ltmp138:
.LBB9_7:
	@DEBUG_VALUE: UART_Read:uart <- $r3
	@DEBUG_VALUE: UART_Read:u32ReadBytes <- $r2
	@DEBUG_VALUE: UART_Read:pu8RxBuf <- $r1
	@DEBUG_VALUE: UART_Read:u32Exit <- 0
	.loc	5 384 5 is_stmt 1               @ ../../../Library/StdDriver/src/uart.c:384:5
	pop	{r4, r5, r6, pc}
.Ltmp139:
.LBB9_8:
	@DEBUG_VALUE: UART_Read:u32ReadBytes <- $r2
	@DEBUG_VALUE: UART_Read:pu8RxBuf <- $r1
	@DEBUG_VALUE: UART_Read:uart <- $r0
	@DEBUG_VALUE: UART_Read:u32Exit <- 0
	@DEBUG_VALUE: UART_Read:u32Count <- 0
	.loc	5 0 5 is_stmt 0                 @ ../../../Library/StdDriver/src/uart.c:0:5
	movs	r0, #0
.Ltmp140:
	@DEBUG_VALUE: UART_Read:uart <- [DW_OP_LLVM_entry_value 1] $r0
	.loc	5 384 5                         @ ../../../Library/StdDriver/src/uart.c:384:5
	pop	{r4, r5, r6, pc}
.Ltmp141:
.Lfunc_end9:
	.size	UART_Read, .Lfunc_end9-UART_Read
	.cfi_endproc
	.cantunwind
	.fnend
                                        @ -- End function
	.section	.text.UART_SetLineConfig,"ax",%progbits
	.hidden	UART_SetLineConfig              @ -- Begin function UART_SetLineConfig
	.globl	UART_SetLineConfig
	.p2align	2
	.type	UART_SetLineConfig,%function
	.code	16                              @ @UART_SetLineConfig
	.thumb_func
UART_SetLineConfig:
.Lfunc_begin10:
	.loc	5 415 0 is_stmt 1               @ ../../../Library/StdDriver/src/uart.c:415:0
	.fnstart
	.cfi_startproc
@ %bb.0:
	@DEBUG_VALUE: UART_SetLineConfig:uart <- $r0
	@DEBUG_VALUE: UART_SetLineConfig:u32baudrate <- $r1
	@DEBUG_VALUE: UART_SetLineConfig:u32data_width <- $r2
	@DEBUG_VALUE: UART_SetLineConfig:u32parity <- $r3
	.save	{r4, r5, r6, r7, lr}
	push	{r4, r5, r6, r7, lr}
	.cfi_def_cfa_offset 20
	.cfi_offset lr, -4
	.cfi_offset r7, -8
	.cfi_offset r6, -12
	.cfi_offset r5, -16
	.cfi_offset r4, -20
	.pad	#28
	sub	sp, #28
	.cfi_def_cfa_offset 48
	mov	r4, r3
	str	r1, [sp, #4]                    @ 4-byte Spill
	mov	r5, r0
.Ltmp142:
	@DEBUG_VALUE: UART_SetLineConfig:u32stop_bits <- [DW_OP_plus_uconst 48] [$sp+0]
	@DEBUG_VALUE: UART_SetLineConfig:u32parity <- $r4
	@DEBUG_VALUE: UART_SetLineConfig:u32data_width <- $r2
	@DEBUG_VALUE: UART_SetLineConfig:u32baudrate <- [DW_OP_plus_uconst 4] [$sp+0]
	@DEBUG_VALUE: UART_SetLineConfig:uart <- $r5
	.loc	5 417 14 prologue_end           @ ../../../Library/StdDriver/src/uart.c:417:14
	ldr	r0, __arm_cp.10_0
	ldm	r0!, {r1, r6}
	ldr	r3, [r0]
	ldr	r0, [r0, #4]
	str	r0, [sp, #24]
	str	r3, [sp, #20]
	str	r6, [sp, #16]
	str	r1, [sp, #12]
.Ltmp143:
	@DEBUG_VALUE: UART_SetLineConfig:u32BaudDiv <- 0
	.loc	5 0 14 is_stmt 0                @ ../../../Library/StdDriver/src/uart.c:0:14
	ldr	r6, __arm_cp.10_1
	ldr	r0, __arm_cp.10_2
	.loc	5 421 5 is_stmt 1               @ ../../../Library/StdDriver/src/uart.c:421:5
	cmp	r5, r0
	str	r2, [sp, #8]                    @ 4-byte Spill
.Ltmp144:
	@DEBUG_VALUE: UART_SetLineConfig:u32data_width <- [DW_OP_plus_uconst 8] [$sp+0]
	bgt	.LBB10_5
.Ltmp145:
@ %bb.1:
	@DEBUG_VALUE: UART_SetLineConfig:u32data_width <- [DW_OP_plus_uconst 8] [$sp+0]
	@DEBUG_VALUE: UART_SetLineConfig:uart <- $r5
	@DEBUG_VALUE: UART_SetLineConfig:u32parity <- $r4
	@DEBUG_VALUE: UART_SetLineConfig:u32baudrate <- [DW_OP_plus_uconst 4] [$sp+0]
	@DEBUG_VALUE: UART_SetLineConfig:u32stop_bits <- [DW_OP_plus_uconst 48] [$sp+0]
	@DEBUG_VALUE: UART_SetLineConfig:u32BaudDiv <- 0
	.loc	5 0 5 is_stmt 0                 @ ../../../Library/StdDriver/src/uart.c:0:5
	ldr	r0, __arm_cp.10_10
	.loc	5 421 5                         @ ../../../Library/StdDriver/src/uart.c:421:5
	cmp	r5, r0
	bgt	.LBB10_11
.Ltmp146:
@ %bb.2:
	@DEBUG_VALUE: UART_SetLineConfig:u32data_width <- [DW_OP_plus_uconst 8] [$sp+0]
	@DEBUG_VALUE: UART_SetLineConfig:uart <- $r5
	@DEBUG_VALUE: UART_SetLineConfig:u32parity <- $r4
	@DEBUG_VALUE: UART_SetLineConfig:u32baudrate <- [DW_OP_plus_uconst 4] [$sp+0]
	@DEBUG_VALUE: UART_SetLineConfig:u32stop_bits <- [DW_OP_plus_uconst 48] [$sp+0]
	@DEBUG_VALUE: UART_SetLineConfig:u32BaudDiv <- 0
	.loc	5 0 5                           @ ../../../Library/StdDriver/src/uart.c:0:5
	ldr	r0, __arm_cp.10_14
	.loc	5 421 5                         @ ../../../Library/StdDriver/src/uart.c:421:5
	cmp	r5, r0
	beq	.LBB10_22
.Ltmp147:
@ %bb.3:
	@DEBUG_VALUE: UART_SetLineConfig:u32data_width <- [DW_OP_plus_uconst 8] [$sp+0]
	@DEBUG_VALUE: UART_SetLineConfig:uart <- $r5
	@DEBUG_VALUE: UART_SetLineConfig:u32parity <- $r4
	@DEBUG_VALUE: UART_SetLineConfig:u32baudrate <- [DW_OP_plus_uconst 4] [$sp+0]
	@DEBUG_VALUE: UART_SetLineConfig:u32stop_bits <- [DW_OP_plus_uconst 48] [$sp+0]
	@DEBUG_VALUE: UART_SetLineConfig:u32BaudDiv <- 0
	.loc	5 0 5                           @ ../../../Library/StdDriver/src/uart.c:0:5
	ldr	r0, __arm_cp.10_15
	.loc	5 421 5                         @ ../../../Library/StdDriver/src/uart.c:421:5
	cmp	r5, r0
	beq	.LBB10_19
.Ltmp148:
@ %bb.4:
	@DEBUG_VALUE: UART_SetLineConfig:u32data_width <- [DW_OP_plus_uconst 8] [$sp+0]
	@DEBUG_VALUE: UART_SetLineConfig:uart <- $r5
	@DEBUG_VALUE: UART_SetLineConfig:u32parity <- $r4
	@DEBUG_VALUE: UART_SetLineConfig:u32baudrate <- [DW_OP_plus_uconst 4] [$sp+0]
	@DEBUG_VALUE: UART_SetLineConfig:u32stop_bits <- [DW_OP_plus_uconst 48] [$sp+0]
	@DEBUG_VALUE: UART_SetLineConfig:u32BaudDiv <- 0
	.loc	5 0 5                           @ ../../../Library/StdDriver/src/uart.c:0:5
	ldr	r0, __arm_cp.10_16
	b	.LBB10_9
.Ltmp149:
.LBB10_5:
	@DEBUG_VALUE: UART_SetLineConfig:u32data_width <- [DW_OP_plus_uconst 8] [$sp+0]
	@DEBUG_VALUE: UART_SetLineConfig:uart <- $r5
	@DEBUG_VALUE: UART_SetLineConfig:u32parity <- $r4
	@DEBUG_VALUE: UART_SetLineConfig:u32baudrate <- [DW_OP_plus_uconst 4] [$sp+0]
	@DEBUG_VALUE: UART_SetLineConfig:u32stop_bits <- [DW_OP_plus_uconst 48] [$sp+0]
	@DEBUG_VALUE: UART_SetLineConfig:u32BaudDiv <- 0
	ldr	r0, __arm_cp.10_3
	.loc	5 421 5                         @ ../../../Library/StdDriver/src/uart.c:421:5
	cmp	r5, r0
	bgt	.LBB10_14
.Ltmp150:
@ %bb.6:
	@DEBUG_VALUE: UART_SetLineConfig:u32data_width <- [DW_OP_plus_uconst 8] [$sp+0]
	@DEBUG_VALUE: UART_SetLineConfig:uart <- $r5
	@DEBUG_VALUE: UART_SetLineConfig:u32parity <- $r4
	@DEBUG_VALUE: UART_SetLineConfig:u32baudrate <- [DW_OP_plus_uconst 4] [$sp+0]
	@DEBUG_VALUE: UART_SetLineConfig:u32stop_bits <- [DW_OP_plus_uconst 48] [$sp+0]
	@DEBUG_VALUE: UART_SetLineConfig:u32BaudDiv <- 0
	.loc	5 0 5                           @ ../../../Library/StdDriver/src/uart.c:0:5
	ldr	r0, __arm_cp.10_7
	.loc	5 421 5                         @ ../../../Library/StdDriver/src/uart.c:421:5
	cmp	r5, r0
	beq	.LBB10_22
.Ltmp151:
@ %bb.7:
	@DEBUG_VALUE: UART_SetLineConfig:u32data_width <- [DW_OP_plus_uconst 8] [$sp+0]
	@DEBUG_VALUE: UART_SetLineConfig:uart <- $r5
	@DEBUG_VALUE: UART_SetLineConfig:u32parity <- $r4
	@DEBUG_VALUE: UART_SetLineConfig:u32baudrate <- [DW_OP_plus_uconst 4] [$sp+0]
	@DEBUG_VALUE: UART_SetLineConfig:u32stop_bits <- [DW_OP_plus_uconst 48] [$sp+0]
	@DEBUG_VALUE: UART_SetLineConfig:u32BaudDiv <- 0
	.loc	5 0 5                           @ ../../../Library/StdDriver/src/uart.c:0:5
	ldr	r0, __arm_cp.10_8
	.loc	5 421 5                         @ ../../../Library/StdDriver/src/uart.c:421:5
	cmp	r5, r0
	beq	.LBB10_19
.Ltmp152:
@ %bb.8:
	@DEBUG_VALUE: UART_SetLineConfig:u32data_width <- [DW_OP_plus_uconst 8] [$sp+0]
	@DEBUG_VALUE: UART_SetLineConfig:uart <- $r5
	@DEBUG_VALUE: UART_SetLineConfig:u32parity <- $r4
	@DEBUG_VALUE: UART_SetLineConfig:u32baudrate <- [DW_OP_plus_uconst 4] [$sp+0]
	@DEBUG_VALUE: UART_SetLineConfig:u32stop_bits <- [DW_OP_plus_uconst 48] [$sp+0]
	@DEBUG_VALUE: UART_SetLineConfig:u32BaudDiv <- 0
	.loc	5 0 5                           @ ../../../Library/StdDriver/src/uart.c:0:5
	ldr	r0, __arm_cp.10_9
.Ltmp153:
.LBB10_9:
	@DEBUG_VALUE: UART_SetLineConfig:u32data_width <- [DW_OP_plus_uconst 8] [$sp+0]
	@DEBUG_VALUE: UART_SetLineConfig:uart <- $r5
	@DEBUG_VALUE: UART_SetLineConfig:u32parity <- $r4
	@DEBUG_VALUE: UART_SetLineConfig:u32baudrate <- [DW_OP_plus_uconst 4] [$sp+0]
	@DEBUG_VALUE: UART_SetLineConfig:u32stop_bits <- [DW_OP_plus_uconst 48] [$sp+0]
	@DEBUG_VALUE: UART_SetLineConfig:u32BaudDiv <- 0
	.loc	5 421 5                         @ ../../../Library/StdDriver/src/uart.c:421:5
	cmp	r5, r0
                                        @ implicit-def: $r7
                                        @ implicit-def: $r6
	bne	.LBB10_23
.Ltmp154:
@ %bb.10:
	@DEBUG_VALUE: UART_SetLineConfig:u32data_width <- [DW_OP_plus_uconst 8] [$sp+0]
	@DEBUG_VALUE: UART_SetLineConfig:uart <- $r5
	@DEBUG_VALUE: UART_SetLineConfig:u32parity <- $r4
	@DEBUG_VALUE: UART_SetLineConfig:u32baudrate <- [DW_OP_plus_uconst 4] [$sp+0]
	@DEBUG_VALUE: UART_SetLineConfig:u32stop_bits <- [DW_OP_plus_uconst 48] [$sp+0]
	@DEBUG_VALUE: UART_SetLineConfig:u32BaudDiv <- 0
	@DEBUG_VALUE: UART_SetLineConfig:u32UartClkSrcSel <- undef
	@DEBUG_VALUE: UART_SetLineConfig:u32UartClkDivNum <- undef
	.loc	5 0 5                           @ ../../../Library/StdDriver/src/uart.c:0:5
	ldr	r6, __arm_cp.10_20
	b	.LBB10_22
.Ltmp155:
.LBB10_11:
	@DEBUG_VALUE: UART_SetLineConfig:u32data_width <- [DW_OP_plus_uconst 8] [$sp+0]
	@DEBUG_VALUE: UART_SetLineConfig:uart <- $r5
	@DEBUG_VALUE: UART_SetLineConfig:u32parity <- $r4
	@DEBUG_VALUE: UART_SetLineConfig:u32baudrate <- [DW_OP_plus_uconst 4] [$sp+0]
	@DEBUG_VALUE: UART_SetLineConfig:u32stop_bits <- [DW_OP_plus_uconst 48] [$sp+0]
	@DEBUG_VALUE: UART_SetLineConfig:u32BaudDiv <- 0
	ldr	r0, __arm_cp.10_11
	.loc	5 421 5                         @ ../../../Library/StdDriver/src/uart.c:421:5
	cmp	r5, r0
	beq	.LBB10_20
.Ltmp156:
@ %bb.12:
	@DEBUG_VALUE: UART_SetLineConfig:u32data_width <- [DW_OP_plus_uconst 8] [$sp+0]
	@DEBUG_VALUE: UART_SetLineConfig:uart <- $r5
	@DEBUG_VALUE: UART_SetLineConfig:u32parity <- $r4
	@DEBUG_VALUE: UART_SetLineConfig:u32baudrate <- [DW_OP_plus_uconst 4] [$sp+0]
	@DEBUG_VALUE: UART_SetLineConfig:u32stop_bits <- [DW_OP_plus_uconst 48] [$sp+0]
	@DEBUG_VALUE: UART_SetLineConfig:u32BaudDiv <- 0
	.loc	5 0 5                           @ ../../../Library/StdDriver/src/uart.c:0:5
	ldr	r0, __arm_cp.10_12
	.loc	5 421 5                         @ ../../../Library/StdDriver/src/uart.c:421:5
	cmp	r5, r0
	beq	.LBB10_21
.Ltmp157:
@ %bb.13:
	@DEBUG_VALUE: UART_SetLineConfig:u32data_width <- [DW_OP_plus_uconst 8] [$sp+0]
	@DEBUG_VALUE: UART_SetLineConfig:uart <- $r5
	@DEBUG_VALUE: UART_SetLineConfig:u32parity <- $r4
	@DEBUG_VALUE: UART_SetLineConfig:u32baudrate <- [DW_OP_plus_uconst 4] [$sp+0]
	@DEBUG_VALUE: UART_SetLineConfig:u32stop_bits <- [DW_OP_plus_uconst 48] [$sp+0]
	@DEBUG_VALUE: UART_SetLineConfig:u32BaudDiv <- 0
	.loc	5 0 5                           @ ../../../Library/StdDriver/src/uart.c:0:5
	ldr	r0, __arm_cp.10_13
	b	.LBB10_17
.Ltmp158:
.LBB10_14:
	@DEBUG_VALUE: UART_SetLineConfig:u32data_width <- [DW_OP_plus_uconst 8] [$sp+0]
	@DEBUG_VALUE: UART_SetLineConfig:uart <- $r5
	@DEBUG_VALUE: UART_SetLineConfig:u32parity <- $r4
	@DEBUG_VALUE: UART_SetLineConfig:u32baudrate <- [DW_OP_plus_uconst 4] [$sp+0]
	@DEBUG_VALUE: UART_SetLineConfig:u32stop_bits <- [DW_OP_plus_uconst 48] [$sp+0]
	@DEBUG_VALUE: UART_SetLineConfig:u32BaudDiv <- 0
	ldr	r0, __arm_cp.10_4
	.loc	5 421 5                         @ ../../../Library/StdDriver/src/uart.c:421:5
	cmp	r5, r0
	beq	.LBB10_20
.Ltmp159:
@ %bb.15:
	@DEBUG_VALUE: UART_SetLineConfig:u32data_width <- [DW_OP_plus_uconst 8] [$sp+0]
	@DEBUG_VALUE: UART_SetLineConfig:uart <- $r5
	@DEBUG_VALUE: UART_SetLineConfig:u32parity <- $r4
	@DEBUG_VALUE: UART_SetLineConfig:u32baudrate <- [DW_OP_plus_uconst 4] [$sp+0]
	@DEBUG_VALUE: UART_SetLineConfig:u32stop_bits <- [DW_OP_plus_uconst 48] [$sp+0]
	@DEBUG_VALUE: UART_SetLineConfig:u32BaudDiv <- 0
	.loc	5 0 5                           @ ../../../Library/StdDriver/src/uart.c:0:5
	ldr	r0, __arm_cp.10_5
	.loc	5 421 5                         @ ../../../Library/StdDriver/src/uart.c:421:5
	cmp	r5, r0
	beq	.LBB10_21
.Ltmp160:
@ %bb.16:
	@DEBUG_VALUE: UART_SetLineConfig:u32data_width <- [DW_OP_plus_uconst 8] [$sp+0]
	@DEBUG_VALUE: UART_SetLineConfig:uart <- $r5
	@DEBUG_VALUE: UART_SetLineConfig:u32parity <- $r4
	@DEBUG_VALUE: UART_SetLineConfig:u32baudrate <- [DW_OP_plus_uconst 4] [$sp+0]
	@DEBUG_VALUE: UART_SetLineConfig:u32stop_bits <- [DW_OP_plus_uconst 48] [$sp+0]
	@DEBUG_VALUE: UART_SetLineConfig:u32BaudDiv <- 0
	.loc	5 0 5                           @ ../../../Library/StdDriver/src/uart.c:0:5
	ldr	r0, __arm_cp.10_6
.Ltmp161:
.LBB10_17:
	@DEBUG_VALUE: UART_SetLineConfig:u32data_width <- [DW_OP_plus_uconst 8] [$sp+0]
	@DEBUG_VALUE: UART_SetLineConfig:uart <- $r5
	@DEBUG_VALUE: UART_SetLineConfig:u32parity <- $r4
	@DEBUG_VALUE: UART_SetLineConfig:u32baudrate <- [DW_OP_plus_uconst 4] [$sp+0]
	@DEBUG_VALUE: UART_SetLineConfig:u32stop_bits <- [DW_OP_plus_uconst 48] [$sp+0]
	@DEBUG_VALUE: UART_SetLineConfig:u32BaudDiv <- 0
	.loc	5 421 5                         @ ../../../Library/StdDriver/src/uart.c:421:5
	cmp	r5, r0
                                        @ implicit-def: $r7
                                        @ implicit-def: $r6
	bne	.LBB10_23
.Ltmp162:
@ %bb.18:
	@DEBUG_VALUE: UART_SetLineConfig:u32data_width <- [DW_OP_plus_uconst 8] [$sp+0]
	@DEBUG_VALUE: UART_SetLineConfig:uart <- $r5
	@DEBUG_VALUE: UART_SetLineConfig:u32parity <- $r4
	@DEBUG_VALUE: UART_SetLineConfig:u32baudrate <- [DW_OP_plus_uconst 4] [$sp+0]
	@DEBUG_VALUE: UART_SetLineConfig:u32stop_bits <- [DW_OP_plus_uconst 48] [$sp+0]
	@DEBUG_VALUE: UART_SetLineConfig:u32BaudDiv <- 0
	.loc	5 0 5                           @ ../../../Library/StdDriver/src/uart.c:0:5
	ldr	r6, __arm_cp.10_17
	b	.LBB10_22
.Ltmp163:
.LBB10_19:
	@DEBUG_VALUE: UART_SetLineConfig:u32data_width <- [DW_OP_plus_uconst 8] [$sp+0]
	@DEBUG_VALUE: UART_SetLineConfig:uart <- $r5
	@DEBUG_VALUE: UART_SetLineConfig:u32parity <- $r4
	@DEBUG_VALUE: UART_SetLineConfig:u32baudrate <- [DW_OP_plus_uconst 4] [$sp+0]
	@DEBUG_VALUE: UART_SetLineConfig:u32stop_bits <- [DW_OP_plus_uconst 48] [$sp+0]
	@DEBUG_VALUE: UART_SetLineConfig:u32BaudDiv <- 0
	@DEBUG_VALUE: UART_SetLineConfig:u32UartClkSrcSel <- undef
	@DEBUG_VALUE: UART_SetLineConfig:u32UartClkDivNum <- undef
	ldr	r6, __arm_cp.10_21
	b	.LBB10_22
.Ltmp164:
.LBB10_20:
	@DEBUG_VALUE: UART_SetLineConfig:u32data_width <- [DW_OP_plus_uconst 8] [$sp+0]
	@DEBUG_VALUE: UART_SetLineConfig:uart <- $r5
	@DEBUG_VALUE: UART_SetLineConfig:u32parity <- $r4
	@DEBUG_VALUE: UART_SetLineConfig:u32baudrate <- [DW_OP_plus_uconst 4] [$sp+0]
	@DEBUG_VALUE: UART_SetLineConfig:u32stop_bits <- [DW_OP_plus_uconst 48] [$sp+0]
	@DEBUG_VALUE: UART_SetLineConfig:u32BaudDiv <- 0
	@DEBUG_VALUE: UART_SetLineConfig:u32UartClkSrcSel <- undef
	@DEBUG_VALUE: UART_SetLineConfig:u32UartClkDivNum <- undef
	ldr	r6, __arm_cp.10_19
	b	.LBB10_22
.Ltmp165:
.LBB10_21:
	@DEBUG_VALUE: UART_SetLineConfig:u32data_width <- [DW_OP_plus_uconst 8] [$sp+0]
	@DEBUG_VALUE: UART_SetLineConfig:uart <- $r5
	@DEBUG_VALUE: UART_SetLineConfig:u32parity <- $r4
	@DEBUG_VALUE: UART_SetLineConfig:u32baudrate <- [DW_OP_plus_uconst 4] [$sp+0]
	@DEBUG_VALUE: UART_SetLineConfig:u32stop_bits <- [DW_OP_plus_uconst 48] [$sp+0]
	@DEBUG_VALUE: UART_SetLineConfig:u32BaudDiv <- 0
	@DEBUG_VALUE: UART_SetLineConfig:u32UartClkSrcSel <- undef
	@DEBUG_VALUE: UART_SetLineConfig:u32UartClkDivNum <- undef
	ldr	r6, __arm_cp.10_18
.Ltmp166:
.LBB10_22:
	@DEBUG_VALUE: UART_SetLineConfig:u32data_width <- [DW_OP_plus_uconst 8] [$sp+0]
	@DEBUG_VALUE: UART_SetLineConfig:uart <- $r5
	@DEBUG_VALUE: UART_SetLineConfig:u32parity <- $r4
	@DEBUG_VALUE: UART_SetLineConfig:u32baudrate <- [DW_OP_plus_uconst 4] [$sp+0]
	@DEBUG_VALUE: UART_SetLineConfig:u32stop_bits <- [DW_OP_plus_uconst 48] [$sp+0]
	@DEBUG_VALUE: UART_SetLineConfig:u32BaudDiv <- 0
	mov	r0, r6
	bl	CLK_GetModuleClockSource
	mov	r7, r0
.Ltmp167:
	@DEBUG_VALUE: UART_SetLineConfig:u32UartClkSrcSel <- $r7
	mov	r0, r6
	bl	CLK_GetModuleClockDivider
.Ltmp168:
	@DEBUG_VALUE: UART_SetLineConfig:u32UartClkDivNum <- $r0
	.loc	5 458 25 is_stmt 1              @ ../../../Library/StdDriver/src/uart.c:458:25
	adds	r6, r0, #1
.Ltmp169:
.LBB10_23:
	@DEBUG_VALUE: UART_SetLineConfig:u32data_width <- [DW_OP_plus_uconst 8] [$sp+0]
	@DEBUG_VALUE: UART_SetLineConfig:uart <- $r5
	@DEBUG_VALUE: UART_SetLineConfig:u32parity <- $r4
	@DEBUG_VALUE: UART_SetLineConfig:u32baudrate <- [DW_OP_plus_uconst 4] [$sp+0]
	@DEBUG_VALUE: UART_SetLineConfig:u32stop_bits <- [DW_OP_plus_uconst 48] [$sp+0]
	@DEBUG_VALUE: UART_SetLineConfig:u32BaudDiv <- 0
	@DEBUG_VALUE: UART_SetLineConfig:u32UartClkSrcSel <- $r7
	@DEBUG_VALUE: UART_SetLineConfig:u32UartClkDivNum <- undef
	.loc	5 458 8 is_stmt 0               @ ../../../Library/StdDriver/src/uart.c:458:8
	cmp	r7, #1
	bne	.LBB10_25
.Ltmp170:
@ %bb.24:
	@DEBUG_VALUE: UART_SetLineConfig:u32data_width <- [DW_OP_plus_uconst 8] [$sp+0]
	@DEBUG_VALUE: UART_SetLineConfig:u32UartClkSrcSel <- $r7
	@DEBUG_VALUE: UART_SetLineConfig:uart <- $r5
	@DEBUG_VALUE: UART_SetLineConfig:u32parity <- $r4
	@DEBUG_VALUE: UART_SetLineConfig:u32baudrate <- [DW_OP_plus_uconst 4] [$sp+0]
	@DEBUG_VALUE: UART_SetLineConfig:u32stop_bits <- [DW_OP_plus_uconst 48] [$sp+0]
	@DEBUG_VALUE: UART_SetLineConfig:u32BaudDiv <- 0
	.loc	5 460 40 is_stmt 1              @ ../../../Library/StdDriver/src/uart.c:460:40
	bl	CLK_GetPLLClockFreq
	.loc	5 460 38 is_stmt 0              @ ../../../Library/StdDriver/src/uart.c:460:38
	str	r0, [sp, #16]
.Ltmp171:
.LBB10_25:
	@DEBUG_VALUE: UART_SetLineConfig:u32data_width <- [DW_OP_plus_uconst 8] [$sp+0]
	@DEBUG_VALUE: UART_SetLineConfig:u32UartClkSrcSel <- $r7
	@DEBUG_VALUE: UART_SetLineConfig:uart <- $r5
	@DEBUG_VALUE: UART_SetLineConfig:u32parity <- $r4
	@DEBUG_VALUE: UART_SetLineConfig:u32baudrate <- [DW_OP_plus_uconst 4] [$sp+0]
	@DEBUG_VALUE: UART_SetLineConfig:u32stop_bits <- [DW_OP_plus_uconst 48] [$sp+0]
	@DEBUG_VALUE: UART_SetLineConfig:u32BaudDiv <- 0
	.loc	5 0 38                          @ ../../../Library/StdDriver/src/uart.c:0:38
	ldr	r0, [sp, #48]
	ldr	r3, [sp, #4]                    @ 4-byte Reload
	.loc	5 464 8 is_stmt 1               @ ../../../Library/StdDriver/src/uart.c:464:8
	cbz	r3, .LBB10_30
.Ltmp172:
@ %bb.26:
	@DEBUG_VALUE: UART_SetLineConfig:u32data_width <- [DW_OP_plus_uconst 8] [$sp+0]
	@DEBUG_VALUE: UART_SetLineConfig:u32UartClkSrcSel <- $r7
	@DEBUG_VALUE: UART_SetLineConfig:uart <- $r5
	@DEBUG_VALUE: UART_SetLineConfig:u32parity <- $r4
	@DEBUG_VALUE: UART_SetLineConfig:u32baudrate <- [DW_OP_plus_uconst 4] [$sp+0]
	@DEBUG_VALUE: UART_SetLineConfig:u32stop_bits <- [DW_OP_plus_uconst 48] [$sp+0]
	@DEBUG_VALUE: UART_SetLineConfig:u32BaudDiv <- 0
	.loc	5 466 22                        @ ../../../Library/StdDriver/src/uart.c:466:22
	lsls	r1, r7, #2
	add	r2, sp, #12
	ldr	r1, [r2, r1]
	udiv	r2, r1, r6
	lsrs	r1, r3, #1
	adds	r1, r2, r1
	udiv	r1, r1, r3
	subs	r1, r1, #2
.Ltmp173:
	@DEBUG_VALUE: UART_SetLineConfig:u32BaudDiv <- $r1
	.loc	5 0 22 is_stmt 0                @ ../../../Library/StdDriver/src/uart.c:0:22
	mov	r6, r3
	.loc	5 468 12 is_stmt 1              @ ../../../Library/StdDriver/src/uart.c:468:12
	lsrs	r3, r1, #16
	beq	.LBB10_28
.Ltmp174:
@ %bb.27:
	@DEBUG_VALUE: UART_SetLineConfig:u32data_width <- [DW_OP_plus_uconst 8] [$sp+0]
	@DEBUG_VALUE: UART_SetLineConfig:u32UartClkSrcSel <- $r7
	@DEBUG_VALUE: UART_SetLineConfig:uart <- $r5
	@DEBUG_VALUE: UART_SetLineConfig:u32parity <- $r4
	@DEBUG_VALUE: UART_SetLineConfig:u32BaudDiv <- $r1
	@DEBUG_VALUE: UART_SetLineConfig:u32baudrate <- [DW_OP_plus_uconst 4] [$sp+0]
	@DEBUG_VALUE: UART_SetLineConfig:u32stop_bits <- [DW_OP_plus_uconst 48] [$sp+0]
	.loc	5 470 45                        @ ../../../Library/StdDriver/src/uart.c:470:45
	lsls	r1, r6, #3
.Ltmp175:
	adds	r1, r2, r1
	udiv	r1, r1, r6
	lsrs	r1, r1, #4
	subs	r1, r1, #2
	b	.LBB10_29
.Ltmp176:
.LBB10_28:
	@DEBUG_VALUE: UART_SetLineConfig:u32data_width <- [DW_OP_plus_uconst 8] [$sp+0]
	@DEBUG_VALUE: UART_SetLineConfig:u32UartClkSrcSel <- $r7
	@DEBUG_VALUE: UART_SetLineConfig:uart <- $r5
	@DEBUG_VALUE: UART_SetLineConfig:u32parity <- $r4
	@DEBUG_VALUE: UART_SetLineConfig:u32BaudDiv <- $r1
	@DEBUG_VALUE: UART_SetLineConfig:u32baudrate <- [DW_OP_plus_uconst 4] [$sp+0]
	@DEBUG_VALUE: UART_SetLineConfig:u32stop_bits <- [DW_OP_plus_uconst 48] [$sp+0]
	.loc	5 0 45 is_stmt 0                @ ../../../Library/StdDriver/src/uart.c:0:45
	movs	r2, #3
	lsls	r2, r2, #28
.Ltmp177:
	.loc	5 474 43 is_stmt 1              @ ../../../Library/StdDriver/src/uart.c:474:43
	orrs	r1, r2
.Ltmp178:
.LBB10_29:
	@DEBUG_VALUE: UART_SetLineConfig:u32data_width <- [DW_OP_plus_uconst 8] [$sp+0]
	@DEBUG_VALUE: UART_SetLineConfig:u32UartClkSrcSel <- $r7
	@DEBUG_VALUE: UART_SetLineConfig:uart <- $r5
	@DEBUG_VALUE: UART_SetLineConfig:u32parity <- $r4
	@DEBUG_VALUE: UART_SetLineConfig:u32baudrate <- [DW_OP_plus_uconst 4] [$sp+0]
	@DEBUG_VALUE: UART_SetLineConfig:u32stop_bits <- [DW_OP_plus_uconst 48] [$sp+0]
	.loc	5 0 0 is_stmt 0                 @ ../../../Library/StdDriver/src/uart.c:0:0
	str	r1, [r5, #36]
.Ltmp179:
.LBB10_30:
	@DEBUG_VALUE: UART_SetLineConfig:u32data_width <- [DW_OP_plus_uconst 8] [$sp+0]
	@DEBUG_VALUE: UART_SetLineConfig:u32UartClkSrcSel <- $r7
	@DEBUG_VALUE: UART_SetLineConfig:uart <- $r5
	@DEBUG_VALUE: UART_SetLineConfig:u32parity <- $r4
	@DEBUG_VALUE: UART_SetLineConfig:u32baudrate <- [DW_OP_plus_uconst 4] [$sp+0]
	@DEBUG_VALUE: UART_SetLineConfig:u32stop_bits <- [DW_OP_plus_uconst 48] [$sp+0]
	.loc	5 479 32 is_stmt 1              @ ../../../Library/StdDriver/src/uart.c:479:32
	ldr	r1, [sp, #8]                    @ 4-byte Reload
.Ltmp180:
	@DEBUG_VALUE: UART_SetLineConfig:u32data_width <- $r1
	orrs	r4, r1
.Ltmp181:
	.loc	5 479 44 is_stmt 0              @ ../../../Library/StdDriver/src/uart.c:479:44
	orrs	r4, r0
	.loc	5 479 16                        @ ../../../Library/StdDriver/src/uart.c:479:16
	str	r4, [r5, #12]
	.loc	5 480 1 is_stmt 1               @ ../../../Library/StdDriver/src/uart.c:480:1
	add	sp, #28
.Ltmp182:
	pop	{r4, r5, r6, r7, pc}
.Ltmp183:
	.p2align	2
@ %bb.31:
	.loc	5 0 1 is_stmt 0                 @ ../../../Library/StdDriver/src/uart.c:0:1
__arm_cp.10_0:
	.long	.L__const.UART_SetLineConfig.au32ClkTbl
.Lcpi_end57:
	.size	__arm_cp.10_0, .Lcpi_end57-__arm_cp.10_0
__arm_cp.10_1:
	.long	1468022032                      @ 0x57803d10
.Lcpi_end58:
	.size	__arm_cp.10_1, .Lcpi_end58-__arm_cp.10_1
__arm_cp.10_2:
	.long	1342636031                      @ 0x5006ffff
.Lcpi_end59:
	.size	__arm_cp.10_2, .Lcpi_end59-__arm_cp.10_2
__arm_cp.10_3:
	.long	1342648319                      @ 0x50072fff
.Lcpi_end60:
	.size	__arm_cp.10_3, .Lcpi_end60-__arm_cp.10_3
__arm_cp.10_4:
	.long	1342648320                      @ 0x50073000
.Lcpi_end61:
	.size	__arm_cp.10_4, .Lcpi_end61-__arm_cp.10_4
__arm_cp.10_5:
	.long	1342652416                      @ 0x50074000
.Lcpi_end62:
	.size	__arm_cp.10_5, .Lcpi_end62-__arm_cp.10_5
__arm_cp.10_6:
	.long	1342656512                      @ 0x50075000
.Lcpi_end63:
	.size	__arm_cp.10_6, .Lcpi_end63-__arm_cp.10_6
__arm_cp.10_7:
	.long	1342636032                      @ 0x50070000
.Lcpi_end64:
	.size	__arm_cp.10_7, .Lcpi_end64-__arm_cp.10_7
__arm_cp.10_8:
	.long	1342640128                      @ 0x50071000
.Lcpi_end65:
	.size	__arm_cp.10_8, .Lcpi_end65-__arm_cp.10_8
__arm_cp.10_9:
	.long	1342644224                      @ 0x50072000
.Lcpi_end66:
	.size	__arm_cp.10_9, .Lcpi_end66-__arm_cp.10_9
__arm_cp.10_10:
	.long	1074212863                      @ 0x40072fff
.Lcpi_end67:
	.size	__arm_cp.10_10, .Lcpi_end67-__arm_cp.10_10
__arm_cp.10_11:
	.long	1074212864                      @ 0x40073000
.Lcpi_end68:
	.size	__arm_cp.10_11, .Lcpi_end68-__arm_cp.10_11
__arm_cp.10_12:
	.long	1074216960                      @ 0x40074000
.Lcpi_end69:
	.size	__arm_cp.10_12, .Lcpi_end69-__arm_cp.10_12
__arm_cp.10_13:
	.long	1074221056                      @ 0x40075000
.Lcpi_end70:
	.size	__arm_cp.10_13, .Lcpi_end70-__arm_cp.10_13
__arm_cp.10_14:
	.long	1074200576                      @ 0x40070000
.Lcpi_end71:
	.size	__arm_cp.10_14, .Lcpi_end71-__arm_cp.10_14
__arm_cp.10_15:
	.long	1074204672                      @ 0x40071000
.Lcpi_end72:
	.size	__arm_cp.10_15, .Lcpi_end72-__arm_cp.10_15
__arm_cp.10_16:
	.long	1074208768                      @ 0x40072000
.Lcpi_end73:
	.size	__arm_cp.10_16, .Lcpi_end73-__arm_cp.10_16
__arm_cp.10_17:
	.long	2011970965                      @ 0x77ec3d95
.Lcpi_end74:
	.size	__arm_cp.10_17, .Lcpi_end74-__arm_cp.10_17
__arm_cp.10_18:
	.long	2009873684                      @ 0x77cc3d14
.Lcpi_end75:
	.size	__arm_cp.10_18, .Lcpi_end75-__arm_cp.10_18
__arm_cp.10_19:
	.long	2007776403                      @ 0x77ac3c93
.Lcpi_end76:
	.size	__arm_cp.10_19, .Lcpi_end76-__arm_cp.10_19
__arm_cp.10_20:
	.long	2005679122                      @ 0x778c3c12
.Lcpi_end77:
	.size	__arm_cp.10_20, .Lcpi_end77-__arm_cp.10_20
__arm_cp.10_21:
	.long	1470119313                      @ 0x57a03d91
.Lcpi_end78:
	.size	__arm_cp.10_21, .Lcpi_end78-__arm_cp.10_21
.Lfunc_end10:
	.size	UART_SetLineConfig, .Lfunc_end10-UART_SetLineConfig
	.cfi_endproc
	.cantunwind
	.fnend
                                        @ -- End function
	.section	.text.UART_SetTimeoutCnt,"ax",%progbits
	.hidden	UART_SetTimeoutCnt              @ -- Begin function UART_SetTimeoutCnt
	.globl	UART_SetTimeoutCnt
	.p2align	1
	.type	UART_SetTimeoutCnt,%function
	.code	16                              @ @UART_SetTimeoutCnt
	.thumb_func
UART_SetTimeoutCnt:
.Lfunc_begin11:
	.loc	5 494 0 is_stmt 1               @ ../../../Library/StdDriver/src/uart.c:494:0
	.fnstart
	.cfi_startproc
@ %bb.0:
	@DEBUG_VALUE: UART_SetTimeoutCnt:uart <- $r0
	@DEBUG_VALUE: UART_SetTimeoutCnt:uart <- $r0
	@DEBUG_VALUE: UART_SetTimeoutCnt:u32TOC <- $r1
	@DEBUG_VALUE: UART_SetTimeoutCnt:u32TOC <- $r1
	.loc	5 496 25 prologue_end           @ ../../../Library/StdDriver/src/uart.c:496:25
	ldr	r2, [r0, #32]
	movs	r3, #255
	.loc	5 496 30 is_stmt 0              @ ../../../Library/StdDriver/src/uart.c:496:30
	bics	r2, r3
	.loc	5 496 53                        @ ../../../Library/StdDriver/src/uart.c:496:53
	orrs	r2, r1
	.loc	5 496 16                        @ ../../../Library/StdDriver/src/uart.c:496:16
	str	r2, [r0, #32]
	.loc	5 499 17 is_stmt 1              @ ../../../Library/StdDriver/src/uart.c:499:17
	ldr	r1, [r0, #4]
.Ltmp184:
	@DEBUG_VALUE: UART_SetTimeoutCnt:u32TOC <- [DW_OP_LLVM_entry_value 1] $r1
	.loc	5 0 17 is_stmt 0                @ ../../../Library/StdDriver/src/uart.c:0:17
	movw	r2, #2048
	.loc	5 499 17                        @ ../../../Library/StdDriver/src/uart.c:499:17
	orrs	r2, r1
	str	r2, [r0, #4]
	.loc	5 500 1 is_stmt 1               @ ../../../Library/StdDriver/src/uart.c:500:1
	bx	lr
.Ltmp185:
.Lfunc_end11:
	.size	UART_SetTimeoutCnt, .Lfunc_end11-UART_SetTimeoutCnt
	.cfi_endproc
	.cantunwind
	.fnend
                                        @ -- End function
	.section	.text.UART_SelectIrDAMode,"ax",%progbits
	.hidden	UART_SelectIrDAMode             @ -- Begin function UART_SelectIrDAMode
	.globl	UART_SelectIrDAMode
	.p2align	2
	.type	UART_SelectIrDAMode,%function
	.code	16                              @ @UART_SelectIrDAMode
	.thumb_func
UART_SelectIrDAMode:
.Lfunc_begin12:
	.loc	5 517 0                         @ ../../../Library/StdDriver/src/uart.c:517:0
	.fnstart
	.cfi_startproc
@ %bb.0:
	@DEBUG_VALUE: UART_SelectIrDAMode:uart <- $r0
	@DEBUG_VALUE: UART_SelectIrDAMode:u32Buadrate <- $r1
	@DEBUG_VALUE: UART_SelectIrDAMode:u32Direction <- $r2
	.save	{r4, r5, r6, r7, lr}
	push	{r4, r5, r6, r7, lr}
	.cfi_def_cfa_offset 20
	.cfi_offset lr, -4
	.cfi_offset r7, -8
	.cfi_offset r6, -12
	.cfi_offset r5, -16
	.cfi_offset r4, -20
	.pad	#28
	sub	sp, #28
	.cfi_def_cfa_offset 48
	str	r2, [sp, #4]                    @ 4-byte Spill
	mov	r6, r1
	mov	r4, r0
	movs	r5, #2
.Ltmp186:
	@DEBUG_VALUE: UART_SelectIrDAMode:u32Direction <- [DW_OP_plus_uconst 4] [$sp+0]
	@DEBUG_VALUE: UART_SelectIrDAMode:u32Buadrate <- $r6
	@DEBUG_VALUE: UART_SelectIrDAMode:uart <- $r4
	.loc	5 523 19 prologue_end           @ ../../../Library/StdDriver/src/uart.c:523:19
	str	r5, [r0, #48]
	.loc	5 519 14                        @ ../../../Library/StdDriver/src/uart.c:519:14
	ldr	r0, __arm_cp.12_0
	ldm	r0!, {r1, r2, r3}
	ldr	r0, [r0]
	str	r0, [sp, #24]
	add	r0, sp, #12
	stm	r0!, {r1, r2, r3}
	ldr	r7, __arm_cp.12_1
	ldr	r0, __arm_cp.12_2
	.loc	5 526 5                         @ ../../../Library/StdDriver/src/uart.c:526:5
	cmp	r4, r0
	str	r5, [sp, #8]                    @ 4-byte Spill
	bgt	.LBB12_5
.Ltmp187:
@ %bb.1:
	@DEBUG_VALUE: UART_SelectIrDAMode:u32Buadrate <- $r6
	@DEBUG_VALUE: UART_SelectIrDAMode:uart <- $r4
	@DEBUG_VALUE: UART_SelectIrDAMode:u32Direction <- [DW_OP_plus_uconst 4] [$sp+0]
	.loc	5 0 5 is_stmt 0                 @ ../../../Library/StdDriver/src/uart.c:0:5
	ldr	r0, __arm_cp.12_10
	.loc	5 526 5                         @ ../../../Library/StdDriver/src/uart.c:526:5
	cmp	r4, r0
	bgt	.LBB12_11
.Ltmp188:
@ %bb.2:
	@DEBUG_VALUE: UART_SelectIrDAMode:u32Buadrate <- $r6
	@DEBUG_VALUE: UART_SelectIrDAMode:uart <- $r4
	@DEBUG_VALUE: UART_SelectIrDAMode:u32Direction <- [DW_OP_plus_uconst 4] [$sp+0]
	.loc	5 0 5                           @ ../../../Library/StdDriver/src/uart.c:0:5
	ldr	r0, __arm_cp.12_14
	.loc	5 526 5                         @ ../../../Library/StdDriver/src/uart.c:526:5
	cmp	r4, r0
	beq	.LBB12_22
.Ltmp189:
@ %bb.3:
	@DEBUG_VALUE: UART_SelectIrDAMode:u32Buadrate <- $r6
	@DEBUG_VALUE: UART_SelectIrDAMode:uart <- $r4
	@DEBUG_VALUE: UART_SelectIrDAMode:u32Direction <- [DW_OP_plus_uconst 4] [$sp+0]
	.loc	5 0 5                           @ ../../../Library/StdDriver/src/uart.c:0:5
	ldr	r0, __arm_cp.12_15
	.loc	5 526 5                         @ ../../../Library/StdDriver/src/uart.c:526:5
	cmp	r4, r0
	beq	.LBB12_19
.Ltmp190:
@ %bb.4:
	@DEBUG_VALUE: UART_SelectIrDAMode:u32Buadrate <- $r6
	@DEBUG_VALUE: UART_SelectIrDAMode:uart <- $r4
	@DEBUG_VALUE: UART_SelectIrDAMode:u32Direction <- [DW_OP_plus_uconst 4] [$sp+0]
	.loc	5 0 5                           @ ../../../Library/StdDriver/src/uart.c:0:5
	ldr	r0, __arm_cp.12_16
	b	.LBB12_9
.Ltmp191:
.LBB12_5:
	@DEBUG_VALUE: UART_SelectIrDAMode:u32Buadrate <- $r6
	@DEBUG_VALUE: UART_SelectIrDAMode:uart <- $r4
	@DEBUG_VALUE: UART_SelectIrDAMode:u32Direction <- [DW_OP_plus_uconst 4] [$sp+0]
	ldr	r0, __arm_cp.12_3
	.loc	5 526 5                         @ ../../../Library/StdDriver/src/uart.c:526:5
	cmp	r4, r0
	bgt	.LBB12_14
.Ltmp192:
@ %bb.6:
	@DEBUG_VALUE: UART_SelectIrDAMode:u32Buadrate <- $r6
	@DEBUG_VALUE: UART_SelectIrDAMode:uart <- $r4
	@DEBUG_VALUE: UART_SelectIrDAMode:u32Direction <- [DW_OP_plus_uconst 4] [$sp+0]
	.loc	5 0 5                           @ ../../../Library/StdDriver/src/uart.c:0:5
	ldr	r0, __arm_cp.12_7
	.loc	5 526 5                         @ ../../../Library/StdDriver/src/uart.c:526:5
	cmp	r4, r0
	beq	.LBB12_22
.Ltmp193:
@ %bb.7:
	@DEBUG_VALUE: UART_SelectIrDAMode:u32Buadrate <- $r6
	@DEBUG_VALUE: UART_SelectIrDAMode:uart <- $r4
	@DEBUG_VALUE: UART_SelectIrDAMode:u32Direction <- [DW_OP_plus_uconst 4] [$sp+0]
	.loc	5 0 5                           @ ../../../Library/StdDriver/src/uart.c:0:5
	ldr	r0, __arm_cp.12_8
	.loc	5 526 5                         @ ../../../Library/StdDriver/src/uart.c:526:5
	cmp	r4, r0
	beq	.LBB12_19
.Ltmp194:
@ %bb.8:
	@DEBUG_VALUE: UART_SelectIrDAMode:u32Buadrate <- $r6
	@DEBUG_VALUE: UART_SelectIrDAMode:uart <- $r4
	@DEBUG_VALUE: UART_SelectIrDAMode:u32Direction <- [DW_OP_plus_uconst 4] [$sp+0]
	.loc	5 0 5                           @ ../../../Library/StdDriver/src/uart.c:0:5
	ldr	r0, __arm_cp.12_9
.Ltmp195:
.LBB12_9:
	@DEBUG_VALUE: UART_SelectIrDAMode:u32Buadrate <- $r6
	@DEBUG_VALUE: UART_SelectIrDAMode:uart <- $r4
	@DEBUG_VALUE: UART_SelectIrDAMode:u32Direction <- [DW_OP_plus_uconst 4] [$sp+0]
	.loc	5 526 5                         @ ../../../Library/StdDriver/src/uart.c:526:5
	cmp	r4, r0
                                        @ implicit-def: $r7
                                        @ implicit-def: $r5
	bne	.LBB12_23
.Ltmp196:
@ %bb.10:
	@DEBUG_VALUE: UART_SelectIrDAMode:u32Buadrate <- $r6
	@DEBUG_VALUE: UART_SelectIrDAMode:uart <- $r4
	@DEBUG_VALUE: UART_SelectIrDAMode:u32Direction <- [DW_OP_plus_uconst 4] [$sp+0]
	@DEBUG_VALUE: UART_SelectIrDAMode:u32UartClkSrcSel <- undef
	@DEBUG_VALUE: UART_SelectIrDAMode:u32UartClkDivNum <- undef
	.loc	5 0 5                           @ ../../../Library/StdDriver/src/uart.c:0:5
	ldr	r7, __arm_cp.12_20
	b	.LBB12_22
.Ltmp197:
.LBB12_11:
	@DEBUG_VALUE: UART_SelectIrDAMode:u32Buadrate <- $r6
	@DEBUG_VALUE: UART_SelectIrDAMode:uart <- $r4
	@DEBUG_VALUE: UART_SelectIrDAMode:u32Direction <- [DW_OP_plus_uconst 4] [$sp+0]
	ldr	r0, __arm_cp.12_11
	.loc	5 526 5                         @ ../../../Library/StdDriver/src/uart.c:526:5
	cmp	r4, r0
	beq	.LBB12_20
.Ltmp198:
@ %bb.12:
	@DEBUG_VALUE: UART_SelectIrDAMode:u32Buadrate <- $r6
	@DEBUG_VALUE: UART_SelectIrDAMode:uart <- $r4
	@DEBUG_VALUE: UART_SelectIrDAMode:u32Direction <- [DW_OP_plus_uconst 4] [$sp+0]
	.loc	5 0 5                           @ ../../../Library/StdDriver/src/uart.c:0:5
	ldr	r0, __arm_cp.12_12
	.loc	5 526 5                         @ ../../../Library/StdDriver/src/uart.c:526:5
	cmp	r4, r0
	beq	.LBB12_21
.Ltmp199:
@ %bb.13:
	@DEBUG_VALUE: UART_SelectIrDAMode:u32Buadrate <- $r6
	@DEBUG_VALUE: UART_SelectIrDAMode:uart <- $r4
	@DEBUG_VALUE: UART_SelectIrDAMode:u32Direction <- [DW_OP_plus_uconst 4] [$sp+0]
	.loc	5 0 5                           @ ../../../Library/StdDriver/src/uart.c:0:5
	ldr	r0, __arm_cp.12_13
	b	.LBB12_17
.Ltmp200:
.LBB12_14:
	@DEBUG_VALUE: UART_SelectIrDAMode:u32Buadrate <- $r6
	@DEBUG_VALUE: UART_SelectIrDAMode:uart <- $r4
	@DEBUG_VALUE: UART_SelectIrDAMode:u32Direction <- [DW_OP_plus_uconst 4] [$sp+0]
	ldr	r0, __arm_cp.12_4
	.loc	5 526 5                         @ ../../../Library/StdDriver/src/uart.c:526:5
	cmp	r4, r0
	beq	.LBB12_20
.Ltmp201:
@ %bb.15:
	@DEBUG_VALUE: UART_SelectIrDAMode:u32Buadrate <- $r6
	@DEBUG_VALUE: UART_SelectIrDAMode:uart <- $r4
	@DEBUG_VALUE: UART_SelectIrDAMode:u32Direction <- [DW_OP_plus_uconst 4] [$sp+0]
	.loc	5 0 5                           @ ../../../Library/StdDriver/src/uart.c:0:5
	ldr	r0, __arm_cp.12_5
	.loc	5 526 5                         @ ../../../Library/StdDriver/src/uart.c:526:5
	cmp	r4, r0
	beq	.LBB12_21
.Ltmp202:
@ %bb.16:
	@DEBUG_VALUE: UART_SelectIrDAMode:u32Buadrate <- $r6
	@DEBUG_VALUE: UART_SelectIrDAMode:uart <- $r4
	@DEBUG_VALUE: UART_SelectIrDAMode:u32Direction <- [DW_OP_plus_uconst 4] [$sp+0]
	.loc	5 0 5                           @ ../../../Library/StdDriver/src/uart.c:0:5
	ldr	r0, __arm_cp.12_6
.Ltmp203:
.LBB12_17:
	@DEBUG_VALUE: UART_SelectIrDAMode:u32Buadrate <- $r6
	@DEBUG_VALUE: UART_SelectIrDAMode:uart <- $r4
	@DEBUG_VALUE: UART_SelectIrDAMode:u32Direction <- [DW_OP_plus_uconst 4] [$sp+0]
	.loc	5 526 5                         @ ../../../Library/StdDriver/src/uart.c:526:5
	cmp	r4, r0
                                        @ implicit-def: $r7
                                        @ implicit-def: $r5
	bne	.LBB12_23
.Ltmp204:
@ %bb.18:
	@DEBUG_VALUE: UART_SelectIrDAMode:u32Buadrate <- $r6
	@DEBUG_VALUE: UART_SelectIrDAMode:uart <- $r4
	@DEBUG_VALUE: UART_SelectIrDAMode:u32Direction <- [DW_OP_plus_uconst 4] [$sp+0]
	.loc	5 0 5                           @ ../../../Library/StdDriver/src/uart.c:0:5
	ldr	r7, __arm_cp.12_17
	b	.LBB12_22
.Ltmp205:
.LBB12_19:
	@DEBUG_VALUE: UART_SelectIrDAMode:u32Buadrate <- $r6
	@DEBUG_VALUE: UART_SelectIrDAMode:uart <- $r4
	@DEBUG_VALUE: UART_SelectIrDAMode:u32Direction <- [DW_OP_plus_uconst 4] [$sp+0]
	@DEBUG_VALUE: UART_SelectIrDAMode:u32UartClkSrcSel <- undef
	@DEBUG_VALUE: UART_SelectIrDAMode:u32UartClkDivNum <- undef
	ldr	r7, __arm_cp.12_21
	b	.LBB12_22
.Ltmp206:
.LBB12_20:
	@DEBUG_VALUE: UART_SelectIrDAMode:u32Buadrate <- $r6
	@DEBUG_VALUE: UART_SelectIrDAMode:uart <- $r4
	@DEBUG_VALUE: UART_SelectIrDAMode:u32Direction <- [DW_OP_plus_uconst 4] [$sp+0]
	@DEBUG_VALUE: UART_SelectIrDAMode:u32UartClkSrcSel <- undef
	@DEBUG_VALUE: UART_SelectIrDAMode:u32UartClkDivNum <- undef
	ldr	r7, __arm_cp.12_19
	b	.LBB12_22
.Ltmp207:
.LBB12_21:
	@DEBUG_VALUE: UART_SelectIrDAMode:u32Buadrate <- $r6
	@DEBUG_VALUE: UART_SelectIrDAMode:uart <- $r4
	@DEBUG_VALUE: UART_SelectIrDAMode:u32Direction <- [DW_OP_plus_uconst 4] [$sp+0]
	@DEBUG_VALUE: UART_SelectIrDAMode:u32UartClkSrcSel <- undef
	@DEBUG_VALUE: UART_SelectIrDAMode:u32UartClkDivNum <- undef
	ldr	r7, __arm_cp.12_18
.Ltmp208:
.LBB12_22:
	@DEBUG_VALUE: UART_SelectIrDAMode:u32Buadrate <- $r6
	@DEBUG_VALUE: UART_SelectIrDAMode:uart <- $r4
	@DEBUG_VALUE: UART_SelectIrDAMode:u32Direction <- [DW_OP_plus_uconst 4] [$sp+0]
	mov	r0, r7
	bl	CLK_GetModuleClockSource
	mov	r5, r0
.Ltmp209:
	@DEBUG_VALUE: UART_SelectIrDAMode:u32UartClkSrcSel <- $r5
	mov	r0, r7
	bl	CLK_GetModuleClockDivider
.Ltmp210:
	@DEBUG_VALUE: UART_SelectIrDAMode:u32UartClkDivNum <- $r0
	.loc	5 563 25 is_stmt 1              @ ../../../Library/StdDriver/src/uart.c:563:25
	adds	r7, r0, #1
.Ltmp211:
.LBB12_23:
	@DEBUG_VALUE: UART_SelectIrDAMode:u32Buadrate <- $r6
	@DEBUG_VALUE: UART_SelectIrDAMode:uart <- $r4
	@DEBUG_VALUE: UART_SelectIrDAMode:u32Direction <- [DW_OP_plus_uconst 4] [$sp+0]
	@DEBUG_VALUE: UART_SelectIrDAMode:u32UartClkSrcSel <- $r5
	@DEBUG_VALUE: UART_SelectIrDAMode:u32UartClkDivNum <- undef
	.loc	5 563 8 is_stmt 0               @ ../../../Library/StdDriver/src/uart.c:563:8
	cmp	r5, #1
	bne	.LBB12_25
.Ltmp212:
@ %bb.24:
	@DEBUG_VALUE: UART_SelectIrDAMode:u32Buadrate <- $r6
	@DEBUG_VALUE: UART_SelectIrDAMode:u32UartClkSrcSel <- $r5
	@DEBUG_VALUE: UART_SelectIrDAMode:uart <- $r4
	@DEBUG_VALUE: UART_SelectIrDAMode:u32Direction <- [DW_OP_plus_uconst 4] [$sp+0]
	.loc	5 565 40 is_stmt 1              @ ../../../Library/StdDriver/src/uart.c:565:40
	bl	CLK_GetPLLClockFreq
	.loc	5 565 38 is_stmt 0              @ ../../../Library/StdDriver/src/uart.c:565:38
	str	r0, [sp, #16]
.Ltmp213:
.LBB12_25:
	@DEBUG_VALUE: UART_SelectIrDAMode:u32Buadrate <- $r6
	@DEBUG_VALUE: UART_SelectIrDAMode:u32UartClkSrcSel <- $r5
	@DEBUG_VALUE: UART_SelectIrDAMode:uart <- $r4
	@DEBUG_VALUE: UART_SelectIrDAMode:u32Direction <- [DW_OP_plus_uconst 4] [$sp+0]
	.loc	5 569 8 is_stmt 1               @ ../../../Library/StdDriver/src/uart.c:569:8
	cbz	r6, .LBB12_28
.Ltmp214:
@ %bb.26:
	@DEBUG_VALUE: UART_SelectIrDAMode:u32Buadrate <- $r6
	@DEBUG_VALUE: UART_SelectIrDAMode:u32UartClkSrcSel <- $r5
	@DEBUG_VALUE: UART_SelectIrDAMode:uart <- $r4
	@DEBUG_VALUE: UART_SelectIrDAMode:u32Direction <- [DW_OP_plus_uconst 4] [$sp+0]
	.loc	5 571 22                        @ ../../../Library/StdDriver/src/uart.c:571:22
	lsls	r0, r5, #2
	add	r1, sp, #12
	ldr	r0, [r1, r0]
	udiv	r0, r0, r7
	lsls	r1, r6, #3
	adds	r0, r0, r1
	udiv	r0, r0, r6
	lsrs	r0, r0, #4
	subs	r0, r0, #2
.Ltmp215:
	@DEBUG_VALUE: UART_SelectIrDAMode:u32BaudDiv <- $r0
	.loc	5 0 22 is_stmt 0                @ ../../../Library/StdDriver/src/uart.c:0:22
	ldr	r1, __arm_cp.12_22
	.loc	5 573 12 is_stmt 1              @ ../../../Library/StdDriver/src/uart.c:573:12
	cmp	r0, r1
	bhi	.LBB12_28
.Ltmp216:
@ %bb.27:
	@DEBUG_VALUE: UART_SelectIrDAMode:u32Buadrate <- $r6
	@DEBUG_VALUE: UART_SelectIrDAMode:u32UartClkSrcSel <- $r5
	@DEBUG_VALUE: UART_SelectIrDAMode:uart <- $r4
	@DEBUG_VALUE: UART_SelectIrDAMode:u32BaudDiv <- $r0
	@DEBUG_VALUE: UART_SelectIrDAMode:u32Direction <- [DW_OP_plus_uconst 4] [$sp+0]
	.loc	5 575 24                        @ ../../../Library/StdDriver/src/uart.c:575:24
	str	r0, [r4, #36]
.Ltmp217:
.LBB12_28:
	@DEBUG_VALUE: UART_SelectIrDAMode:u32Buadrate <- $r6
	@DEBUG_VALUE: UART_SelectIrDAMode:u32UartClkSrcSel <- $r5
	@DEBUG_VALUE: UART_SelectIrDAMode:uart <- $r4
	@DEBUG_VALUE: UART_SelectIrDAMode:u32Direction <- [DW_OP_plus_uconst 4] [$sp+0]
	.loc	5 0 0 is_stmt 0                 @ ../../../Library/StdDriver/src/uart.c:0:0
	ldr	r0, [r4, #40]
.Ltmp218:
	.loc	5 580 8 is_stmt 1               @ ../../../Library/StdDriver/src/uart.c:580:8
	ldr	r1, [sp, #4]                    @ 4-byte Reload
	cbz	r1, .LBB12_30
.Ltmp219:
@ %bb.29:
	@DEBUG_VALUE: UART_SelectIrDAMode:u32Buadrate <- $r6
	@DEBUG_VALUE: UART_SelectIrDAMode:u32UartClkSrcSel <- $r5
	@DEBUG_VALUE: UART_SelectIrDAMode:uart <- $r4
	@DEBUG_VALUE: UART_SelectIrDAMode:u32Direction <- [DW_OP_plus_uconst 4] [$sp+0]
	.loc	5 0 8 is_stmt 0                 @ ../../../Library/StdDriver/src/uart.c:0:8
	movs	r1, #32
.Ltmp220:
	.loc	5 587 20 is_stmt 1              @ ../../../Library/StdDriver/src/uart.c:587:20
	bics	r0, r1
	str	r0, [r4, #40]
	.loc	5 588 20                        @ ../../../Library/StdDriver/src/uart.c:588:20
	ldr	r0, [r4, #40]
	ldr	r1, [sp, #8]                    @ 4-byte Reload
	orrs	r0, r1
	b	.LBB12_31
.Ltmp221:
.LBB12_30:
	@DEBUG_VALUE: UART_SelectIrDAMode:u32Buadrate <- $r6
	@DEBUG_VALUE: UART_SelectIrDAMode:u32UartClkSrcSel <- $r5
	@DEBUG_VALUE: UART_SelectIrDAMode:uart <- $r4
	@DEBUG_VALUE: UART_SelectIrDAMode:u32Direction <- [DW_OP_plus_uconst 4] [$sp+0]
	.loc	5 0 20 is_stmt 0                @ ../../../Library/StdDriver/src/uart.c:0:20
	movs	r1, #64
.Ltmp222:
	.loc	5 582 20 is_stmt 1              @ ../../../Library/StdDriver/src/uart.c:582:20
	orrs	r0, r1
	str	r0, [r4, #40]
	.loc	5 583 20                        @ ../../../Library/StdDriver/src/uart.c:583:20
	ldr	r0, [r4, #40]
	ldr	r1, [sp, #8]                    @ 4-byte Reload
	bics	r0, r1
.Ltmp223:
.LBB12_31:
	@DEBUG_VALUE: UART_SelectIrDAMode:u32Buadrate <- $r6
	@DEBUG_VALUE: UART_SelectIrDAMode:u32UartClkSrcSel <- $r5
	@DEBUG_VALUE: UART_SelectIrDAMode:uart <- $r4
	@DEBUG_VALUE: UART_SelectIrDAMode:u32Direction <- [DW_OP_plus_uconst 4] [$sp+0]
	.loc	5 0 0 is_stmt 0                 @ ../../../Library/StdDriver/src/uart.c:0:0
	str	r0, [r4, #40]
.Ltmp224:
	.loc	5 591 1 is_stmt 1               @ ../../../Library/StdDriver/src/uart.c:591:1
	add	sp, #28
.Ltmp225:
	pop	{r4, r5, r6, r7, pc}
.Ltmp226:
	.p2align	2
@ %bb.32:
	.loc	5 0 1 is_stmt 0                 @ ../../../Library/StdDriver/src/uart.c:0:1
__arm_cp.12_0:
	.long	.L__const.UART_SelectIrDAMode.au32ClkTbl
.Lcpi_end79:
	.size	__arm_cp.12_0, .Lcpi_end79-__arm_cp.12_0
__arm_cp.12_1:
	.long	1468022032                      @ 0x57803d10
.Lcpi_end80:
	.size	__arm_cp.12_1, .Lcpi_end80-__arm_cp.12_1
__arm_cp.12_2:
	.long	1342636031                      @ 0x5006ffff
.Lcpi_end81:
	.size	__arm_cp.12_2, .Lcpi_end81-__arm_cp.12_2
__arm_cp.12_3:
	.long	1342648319                      @ 0x50072fff
.Lcpi_end82:
	.size	__arm_cp.12_3, .Lcpi_end82-__arm_cp.12_3
__arm_cp.12_4:
	.long	1342648320                      @ 0x50073000
.Lcpi_end83:
	.size	__arm_cp.12_4, .Lcpi_end83-__arm_cp.12_4
__arm_cp.12_5:
	.long	1342652416                      @ 0x50074000
.Lcpi_end84:
	.size	__arm_cp.12_5, .Lcpi_end84-__arm_cp.12_5
__arm_cp.12_6:
	.long	1342656512                      @ 0x50075000
.Lcpi_end85:
	.size	__arm_cp.12_6, .Lcpi_end85-__arm_cp.12_6
__arm_cp.12_7:
	.long	1342636032                      @ 0x50070000
.Lcpi_end86:
	.size	__arm_cp.12_7, .Lcpi_end86-__arm_cp.12_7
__arm_cp.12_8:
	.long	1342640128                      @ 0x50071000
.Lcpi_end87:
	.size	__arm_cp.12_8, .Lcpi_end87-__arm_cp.12_8
__arm_cp.12_9:
	.long	1342644224                      @ 0x50072000
.Lcpi_end88:
	.size	__arm_cp.12_9, .Lcpi_end88-__arm_cp.12_9
__arm_cp.12_10:
	.long	1074212863                      @ 0x40072fff
.Lcpi_end89:
	.size	__arm_cp.12_10, .Lcpi_end89-__arm_cp.12_10
__arm_cp.12_11:
	.long	1074212864                      @ 0x40073000
.Lcpi_end90:
	.size	__arm_cp.12_11, .Lcpi_end90-__arm_cp.12_11
__arm_cp.12_12:
	.long	1074216960                      @ 0x40074000
.Lcpi_end91:
	.size	__arm_cp.12_12, .Lcpi_end91-__arm_cp.12_12
__arm_cp.12_13:
	.long	1074221056                      @ 0x40075000
.Lcpi_end92:
	.size	__arm_cp.12_13, .Lcpi_end92-__arm_cp.12_13
__arm_cp.12_14:
	.long	1074200576                      @ 0x40070000
.Lcpi_end93:
	.size	__arm_cp.12_14, .Lcpi_end93-__arm_cp.12_14
__arm_cp.12_15:
	.long	1074204672                      @ 0x40071000
.Lcpi_end94:
	.size	__arm_cp.12_15, .Lcpi_end94-__arm_cp.12_15
__arm_cp.12_16:
	.long	1074208768                      @ 0x40072000
.Lcpi_end95:
	.size	__arm_cp.12_16, .Lcpi_end95-__arm_cp.12_16
__arm_cp.12_17:
	.long	2011970965                      @ 0x77ec3d95
.Lcpi_end96:
	.size	__arm_cp.12_17, .Lcpi_end96-__arm_cp.12_17
__arm_cp.12_18:
	.long	2009873684                      @ 0x77cc3d14
.Lcpi_end97:
	.size	__arm_cp.12_18, .Lcpi_end97-__arm_cp.12_18
__arm_cp.12_19:
	.long	2007776403                      @ 0x77ac3c93
.Lcpi_end98:
	.size	__arm_cp.12_19, .Lcpi_end98-__arm_cp.12_19
__arm_cp.12_20:
	.long	2005679122                      @ 0x778c3c12
.Lcpi_end99:
	.size	__arm_cp.12_20, .Lcpi_end99-__arm_cp.12_20
__arm_cp.12_21:
	.long	1470119313                      @ 0x57a03d91
.Lcpi_end100:
	.size	__arm_cp.12_21, .Lcpi_end100-__arm_cp.12_21
__arm_cp.12_22:
	.long	65534                           @ 0xfffe
.Lcpi_end101:
	.size	__arm_cp.12_22, .Lcpi_end101-__arm_cp.12_22
.Lfunc_end12:
	.size	UART_SelectIrDAMode, .Lfunc_end12-UART_SelectIrDAMode
	.cfi_endproc
	.cantunwind
	.fnend
                                        @ -- End function
	.section	.text.UART_SelectRS485Mode,"ax",%progbits
	.hidden	UART_SelectRS485Mode            @ -- Begin function UART_SelectRS485Mode
	.globl	UART_SelectRS485Mode
	.p2align	2
	.type	UART_SelectRS485Mode,%function
	.code	16                              @ @UART_SelectRS485Mode
	.thumb_func
UART_SelectRS485Mode:
.Lfunc_begin13:
	.loc	5 609 0 is_stmt 1               @ ../../../Library/StdDriver/src/uart.c:609:0
	.fnstart
	.cfi_startproc
@ %bb.0:
	@DEBUG_VALUE: UART_SelectRS485Mode:uart <- $r0
	@DEBUG_VALUE: UART_SelectRS485Mode:u32Mode <- $r1
	@DEBUG_VALUE: UART_SelectRS485Mode:u32Addr <- $r2
	.save	{r4, lr}
	push	{r4, lr}
	.cfi_def_cfa_offset 8
	.cfi_offset lr, -4
	.cfi_offset r4, -8
	movs	r3, #3
	@DEBUG_VALUE: UART_SelectRS485Mode:u32Addr <- $r2
	@DEBUG_VALUE: UART_SelectRS485Mode:u32Mode <- $r1
	@DEBUG_VALUE: UART_SelectRS485Mode:uart <- $r0
.Ltmp227:
	.loc	5 611 19 prologue_end           @ ../../../Library/StdDriver/src/uart.c:611:19
	str	r3, [r0, #48]
	.loc	5 614 18                        @ ../../../Library/StdDriver/src/uart.c:614:18
	ldr	r3, [r0, #44]
	ldr	r4, __arm_cp.13_0
	ands	r4, r3
	str	r4, [r0, #44]
	.loc	5 615 41                        @ ../../../Library/StdDriver/src/uart.c:615:41
	lsls	r2, r2, #24
.Ltmp228:
	@DEBUG_VALUE: UART_SelectRS485Mode:u32Addr <- [DW_OP_LLVM_entry_value 1] $r2
	.loc	5 615 30 is_stmt 0              @ ../../../Library/StdDriver/src/uart.c:615:30
	orrs	r2, r1
	.loc	5 615 18                        @ ../../../Library/StdDriver/src/uart.c:615:18
	ldr	r1, [r0, #44]
.Ltmp229:
	@DEBUG_VALUE: UART_SelectRS485Mode:u32Mode <- [DW_OP_LLVM_entry_value 1] $r1
	orrs	r1, r2
	str	r1, [r0, #44]
	.loc	5 616 1 is_stmt 1               @ ../../../Library/StdDriver/src/uart.c:616:1
	pop	{r4, pc}
.Ltmp230:
	.p2align	2
@ %bb.1:
	.loc	5 0 1 is_stmt 0                 @ ../../../Library/StdDriver/src/uart.c:0:1
__arm_cp.13_0:
	.long	16775423                        @ 0xfff8ff
.Lcpi_end102:
	.size	__arm_cp.13_0, .Lcpi_end102-__arm_cp.13_0
.Lfunc_end13:
	.size	UART_SelectRS485Mode, .Lfunc_end13-UART_SelectRS485Mode
	.cfi_endproc
	.cantunwind
	.fnend
                                        @ -- End function
	.section	.text.UART_SelectLINMode,"ax",%progbits
	.hidden	UART_SelectLINMode              @ -- Begin function UART_SelectLINMode
	.globl	UART_SelectLINMode
	.p2align	1
	.type	UART_SelectLINMode,%function
	.code	16                              @ @UART_SelectLINMode
	.thumb_func
UART_SelectLINMode:
.Lfunc_begin14:
	.loc	5 633 0 is_stmt 1               @ ../../../Library/StdDriver/src/uart.c:633:0
	.fnstart
	.cfi_startproc
@ %bb.0:
	@DEBUG_VALUE: UART_SelectLINMode:uart <- $r0
	@DEBUG_VALUE: UART_SelectLINMode:u32Mode <- $r1
	@DEBUG_VALUE: UART_SelectLINMode:u32BreakLength <- $r2
	.save	{r4, lr}
	push	{r4, lr}
	.cfi_def_cfa_offset 8
	.cfi_offset lr, -4
	.cfi_offset r4, -8
	movs	r3, #1
	@DEBUG_VALUE: UART_SelectLINMode:u32BreakLength <- $r2
	@DEBUG_VALUE: UART_SelectLINMode:u32Mode <- $r1
	@DEBUG_VALUE: UART_SelectLINMode:uart <- $r0
.Ltmp231:
	.loc	5 635 19 prologue_end           @ ../../../Library/StdDriver/src/uart.c:635:19
	str	r3, [r0, #48]
	.loc	5 638 18                        @ ../../../Library/StdDriver/src/uart.c:638:18
	ldr	r3, [r0, #44]
	movs	r4, #207
	bics	r3, r4
	str	r3, [r0, #44]
	.loc	5 639 30                        @ ../../../Library/StdDriver/src/uart.c:639:30
	orrs	r1, r2
.Ltmp232:
	@DEBUG_VALUE: UART_SelectLINMode:u32Mode <- [DW_OP_LLVM_entry_value 1] $r1
	.loc	5 639 18 is_stmt 0              @ ../../../Library/StdDriver/src/uart.c:639:18
	ldr	r2, [r0, #44]
.Ltmp233:
	@DEBUG_VALUE: UART_SelectLINMode:u32BreakLength <- [DW_OP_LLVM_entry_value 1] $r2
	orrs	r2, r1
	str	r2, [r0, #44]
	.loc	5 640 1 is_stmt 1               @ ../../../Library/StdDriver/src/uart.c:640:1
	pop	{r4, pc}
.Ltmp234:
.Lfunc_end14:
	.size	UART_SelectLINMode, .Lfunc_end14-UART_SelectLINMode
	.cfi_endproc
	.cantunwind
	.fnend
                                        @ -- End function
	.section	.text.UART_Write,"ax",%progbits
	.hidden	UART_Write                      @ -- Begin function UART_Write
	.globl	UART_Write
	.p2align	2
	.type	UART_Write,%function
	.code	16                              @ @UART_Write
	.thumb_func
UART_Write:
.Lfunc_begin15:
	.loc	5 655 0                         @ ../../../Library/StdDriver/src/uart.c:655:0
	.fnstart
	.cfi_startproc
@ %bb.0:
	@DEBUG_VALUE: UART_Write:uart <- $r0
	@DEBUG_VALUE: UART_Write:pu8TxBuf <- $r1
	@DEBUG_VALUE: UART_Write:u32WriteBytes <- $r2
	@DEBUG_VALUE: UART_Write:u32WriteBytes <- $r2
	@DEBUG_VALUE: UART_Write:pu8TxBuf <- $r1
	@DEBUG_VALUE: UART_Write:uart <- $r0
	.save	{r4, r5, r6, r7, lr}
	push	{r4, r5, r6, r7, lr}
	.cfi_def_cfa_offset 20
	.cfi_offset lr, -4
	.cfi_offset r7, -8
	.cfi_offset r6, -12
	.cfi_offset r5, -16
	.cfi_offset r4, -20
.Ltmp235:
	@DEBUG_VALUE: UART_Write:u32Count <- 0
	@DEBUG_VALUE: UART_Write:u32Exit <- 0
	.loc	5 659 5 prologue_end            @ ../../../Library/StdDriver/src/uart.c:659:5
	cbz	r2, .LBB15_8
.Ltmp236:
@ %bb.1:
	@DEBUG_VALUE: UART_Write:u32WriteBytes <- $r2
	@DEBUG_VALUE: UART_Write:pu8TxBuf <- $r1
	@DEBUG_VALUE: UART_Write:uart <- $r0
	@DEBUG_VALUE: UART_Write:u32Exit <- 0
	@DEBUG_VALUE: UART_Write:u32Count <- 0
	.loc	5 0 5 is_stmt 0                 @ ../../../Library/StdDriver/src/uart.c:0:5
	mov	r3, r0
.Ltmp237:
	@DEBUG_VALUE: UART_Write:uart <- $r3
	movs	r0, #0
	movs	r4, #1
	lsls	r4, r4, #30
	ldr	r5, __arm_cp.15_0
.Ltmp238:
.LBB15_2:                               @ =>This Loop Header: Depth=1
                                        @     Child Loop BB15_3 Depth 2
	@DEBUG_VALUE: UART_Write:uart <- $r3
	@DEBUG_VALUE: UART_Write:u32WriteBytes <- $r2
	@DEBUG_VALUE: UART_Write:pu8TxBuf <- $r1
	@DEBUG_VALUE: UART_Write:u32Exit <- 0
	@DEBUG_VALUE: UART_Write:u32Count <- $r0
	mov	r6, r4
.Ltmp239:
.LBB15_3:                               @   Parent Loop BB15_2 Depth=1
                                        @ =>  This Inner Loop Header: Depth=2
	@DEBUG_VALUE: UART_Write:uart <- $r3
	@DEBUG_VALUE: UART_Write:u32WriteBytes <- $r2
	@DEBUG_VALUE: UART_Write:pu8TxBuf <- $r1
	@DEBUG_VALUE: UART_Write:u32Count <- $r0
	@DEBUG_VALUE: UART_Write:u32Exit <- 0
	@DEBUG_VALUE: UART_Write:u32delayno <- undef
	.loc	5 662 16 is_stmt 1              @ ../../../Library/StdDriver/src/uart.c:662:16
	ldr	r7, [r5]
	.loc	5 662 9 is_stmt 0               @ ../../../Library/StdDriver/src/uart.c:662:9
	lsls	r7, r7, #8
	bpl	.LBB15_5
.Ltmp240:
@ %bb.4:                                @   in Loop: Header=BB15_3 Depth=2
	@DEBUG_VALUE: UART_Write:uart <- $r3
	@DEBUG_VALUE: UART_Write:u32WriteBytes <- $r2
	@DEBUG_VALUE: UART_Write:pu8TxBuf <- $r1
	@DEBUG_VALUE: UART_Write:u32Count <- $r0
	@DEBUG_VALUE: UART_Write:u32Exit <- 0
	@DEBUG_VALUE: UART_Write:u32delayno <- [DW_OP_plus_uconst 1, DW_OP_stack_value] undef
	.loc	5 665 27 is_stmt 1              @ ../../../Library/StdDriver/src/uart.c:665:27
	subs	r6, r6, #1
	bne	.LBB15_3
	b	.LBB15_7
.Ltmp241:
.LBB15_5:                               @   in Loop: Header=BB15_2 Depth=1
	@DEBUG_VALUE: UART_Write:uart <- $r3
	@DEBUG_VALUE: UART_Write:u32WriteBytes <- $r2
	@DEBUG_VALUE: UART_Write:pu8TxBuf <- $r1
	@DEBUG_VALUE: UART_Write:u32Count <- $r0
	@DEBUG_VALUE: UART_Write:u32Exit <- 0
	.loc	5 681 25                        @ ../../../Library/StdDriver/src/uart.c:681:25
	ldrb	r6, [r1, r0]
	.loc	5 681 23 is_stmt 0              @ ../../../Library/StdDriver/src/uart.c:681:23
	str	r6, [r3]
.Ltmp242:
	.loc	5 659 60 is_stmt 1              @ ../../../Library/StdDriver/src/uart.c:659:60
	adds	r0, r0, #1
.Ltmp243:
	@DEBUG_VALUE: UART_Write:u32Count <- $r0
	@DEBUG_VALUE: UART_Write:u32Exit <- 0
	.loc	5 659 5 is_stmt 0               @ ../../../Library/StdDriver/src/uart.c:659:5
	cmp	r0, r2
	bne	.LBB15_2
.Ltmp244:
@ %bb.6:
	@DEBUG_VALUE: UART_Write:uart <- $r3
	@DEBUG_VALUE: UART_Write:u32WriteBytes <- $r2
	@DEBUG_VALUE: UART_Write:pu8TxBuf <- $r1
	@DEBUG_VALUE: UART_Write:u32Count <- $r0
	@DEBUG_VALUE: UART_Write:u32Exit <- 0
	.loc	5 0 5                           @ ../../../Library/StdDriver/src/uart.c:0:5
	mov	r0, r2
.Ltmp245:
.LBB15_7:
	@DEBUG_VALUE: UART_Write:uart <- $r3
	@DEBUG_VALUE: UART_Write:u32WriteBytes <- $r2
	@DEBUG_VALUE: UART_Write:pu8TxBuf <- $r1
	@DEBUG_VALUE: UART_Write:u32Exit <- 0
	.loc	5 685 5 is_stmt 1               @ ../../../Library/StdDriver/src/uart.c:685:5
	pop	{r4, r5, r6, r7, pc}
.Ltmp246:
.LBB15_8:
	@DEBUG_VALUE: UART_Write:u32WriteBytes <- $r2
	@DEBUG_VALUE: UART_Write:pu8TxBuf <- $r1
	@DEBUG_VALUE: UART_Write:uart <- $r0
	@DEBUG_VALUE: UART_Write:u32Exit <- 0
	@DEBUG_VALUE: UART_Write:u32Count <- 0
	.loc	5 0 5 is_stmt 0                 @ ../../../Library/StdDriver/src/uart.c:0:5
	movs	r0, #0
.Ltmp247:
	@DEBUG_VALUE: UART_Write:uart <- [DW_OP_LLVM_entry_value 1] $r0
	.loc	5 685 5                         @ ../../../Library/StdDriver/src/uart.c:685:5
	pop	{r4, r5, r6, r7, pc}
.Ltmp248:
	.p2align	2
@ %bb.9:
	.loc	5 0 5                           @ ../../../Library/StdDriver/src/uart.c:0:5
__arm_cp.15_0:
	.long	1342636056                      @ 0x50070018
.Lcpi_end103:
	.size	__arm_cp.15_0, .Lcpi_end103-__arm_cp.15_0
.Lfunc_end15:
	.size	UART_Write, .Lfunc_end15-UART_Write
	.cfi_endproc
	.cantunwind
	.fnend
                                        @ -- End function
	.type	.L__const.UART_Open.au32ClkTbl,%object @ @__const.UART_Open.au32ClkTbl
	.section	.rodata.cst16,"aM",%progbits,16
	.p2align	2
.L__const.UART_Open.au32ClkTbl:
	.long	12000000                        @ 0xb71b00
	.long	0                               @ 0x0
	.long	32768                           @ 0x8000
	.long	12000000                        @ 0xb71b00
	.size	.L__const.UART_Open.au32ClkTbl, 16

	.type	.L__const.UART_SetLineConfig.au32ClkTbl,%object @ @__const.UART_SetLineConfig.au32ClkTbl
	.p2align	2
.L__const.UART_SetLineConfig.au32ClkTbl:
	.long	12000000                        @ 0xb71b00
	.long	0                               @ 0x0
	.long	32768                           @ 0x8000
	.long	12000000                        @ 0xb71b00
	.size	.L__const.UART_SetLineConfig.au32ClkTbl, 16

	.type	.L__const.UART_SelectIrDAMode.au32ClkTbl,%object @ @__const.UART_SelectIrDAMode.au32ClkTbl
	.p2align	2
.L__const.UART_SelectIrDAMode.au32ClkTbl:
	.long	12000000                        @ 0xb71b00
	.long	0                               @ 0x0
	.long	32768                           @ 0x8000
	.long	12000000                        @ 0xb71b00
	.size	.L__const.UART_SelectIrDAMode.au32ClkTbl, 16

	.section	".note.GNU-stack","",%progbits
	.eabi_attribute	30, 1	@ Tag_ABI_optimization_goals
	.ARM_attribute	16, 1	@ Tag_AV_eba