	.text
	.syntax unified
	.eabi_attribute	67, "2.09"	@ Tag_conformance
	.cpu	cortex-m23
	.eabi_attribute	6, 16	@ Tag_CPU_arch
	.eabi_attribute	7, 77	@ Tag_CPU_arch_profile
	.eabi_attribute	8, 0	@ Tag_ARM_ISA_use
	.eabi_attribute	9, 3	@ Tag_THUMB_ISA_use
	.eabi_attribute	34, 0	@ Tag_CPU_unaligned_access
	.eabi_attribute	17, 1	@ Tag_ABI_PCS_GOT_use
	.eabi_attribute	20, 2	@ Tag_ABI_FP_denormal
	.eabi_attribute	21, 0	@ Tag_ABI_FP_exceptions
	.eabi_attribute	23, 1	@ Tag_ABI_FP_number_model
	.eabi_attribute	24, 1	@ Tag_ABI_align_needed
	.eabi_attribute	25, 1	@ Tag_ABI_align_preserved
	.eabi_attribute	38, 1	@ Tag_ABI_FP_16bit_format
	.eabi_attribute	18, 2	@ Tag_ABI_PCS_wchar_t
	.eabi_attribute	26, 1	@ Tag_ABI_enum_size
	.eabi_attribute	14, 0	@ Tag_ABI_PCS_R9_use
	.file	"version.c"
	.section	.text.mbedtls_version_get_number,"ax",%progbits
	.hidden	mbedtls_version_get_number      @ -- Begin function mbedtls_version_get_number
	.globl	mbedtls_version_get_number
	.p2align	2
	.type	mbedtls_version_get_number,%function
	.code	16                              @ @mbedtls_version_get_number
	.thumb_func
mbedtls_version_get_number:
.Lfunc_begin0:
	.file	1 "C:\\Users\\shw26\\OneDrive\\Desktop\\2021\\2021-1\\\354\272\241\354\212\244\355\206\244\353\224\224\354\236\220\354\235\2702\\Nuvoton\\M2351_BSP_v3.00.004\\M2351Series_BSP_CMSIS_V3.00.004\\MyProject\\PulseMonitoring\\Secure" "../../../ThirdParty/mbedTLS/library/version.c"
	.loc	1 34 0                          @ ../../../ThirdParty/mbedTLS/library/version.c:34:0
	.fnstart
	.cfi_sections .debug_frame
	.cfi_startproc
@ %bb.0:
	ldr	r0, __arm_cp.0_0
.Ltmp0:
	.loc	1 35 5 prologue_end             @ ../../../ThirdParty/mbedTLS/library/version.c:35:5
	bx	lr
.Ltmp1:
	.p2align	2
@ %bb.1:
	.loc	1 0 5 is_stmt 0                 @ ../../../ThirdParty/mbedTLS/library/version.c:0:5
__arm_cp.0_0:
	.long	34668544                        @ 0x2110000
.Lcpi_end0:
	.size	__arm_cp.0_0, .Lcpi_end0-__arm_cp.0_0
.Lfunc_end0:
	.size	mbedtls_version_get_number, .Lfunc_end0-mbedtls_version_get_number
	.cfi_endproc
	.cantunwind
	.fnend
                                        @ -- End function
	.section	.text.mbedtls_version_get_string,"ax",%progbits
	.hidden	mbedtls_version_get_string      @ -- Begin function mbedtls_version_get_string
	.globl	mbedtls_version_get_string
	.p2align	2
	.type	mbedtls_version_get_string,%function
	.code	16                              @ @mbedtls_version_get_string
	.thumb_func
mbedtls_version_get_string:
.Lfunc_begin1:
	.loc	1 39 0 is_stmt 1                @ ../../../ThirdParty/mbedTLS/library/version.c:39:0
	.fnstart
	.cfi_startproc
@ %bb.0:
	@DEBUG_VALUE: mbedtls_version_get_string:string <- $r0
	@DEBUG_VALUE: mbedtls_version_get_string:string <- $r0
	.save	{r7, lr}
	push	{r7, lr}
	.cfi_def_cfa_offset 8
	.cfi_offset lr, -4
	.cfi_offset r7, -8
.Ltmp2:
	.loc	1 40 5 prologue_end             @ ../../../ThirdParty/mbedTLS/library/version.c:40:5
	ldr	r1, __arm_cp.1_0
	movs	r2, #7
	@DEBUG_VALUE: mbedtls_version_get_string:string <- $r0
	bl	__aeabi_memcpy
.Ltmp3:
	@DEBUG_VALUE: mbedtls_version_get_string:string <- [DW_OP_LLVM_entry_value 1] $r0
	.loc	1 42 1                          @ ../../../ThirdParty/mbedTLS/library/version.c:42:1
	pop	{r7, pc}
.Ltmp4:
	.p2align	2
@ %bb.1:
	.loc	1 0 1 is_stmt 0                 @ ../../../ThirdParty/mbedTLS/library/version.c:0:1
__arm_cp.1_0:
	.long	.L.str
.Lcpi_end1:
	.size	__arm_cp.1_0, .Lcpi_end1-__arm_cp.1_0
.Lfunc_end1:
	.size	mbedtls_version_get_string, .Lfunc_end1-mbedtls_version_get_string
	.cfi_endproc
	.cantunwind
	.fnend
                                        @ -- End function
	.section	.text.mbedtls_version_get_string_full,"ax",%progbits
	.hidden	mbedtls_version_get_string_full @ -- Begin function mbedtls_version_get_string_full
	.globl	mbedtls_version_get_string_full
	.p2align	2
	.type	mbedtls_version_get_string_full,%function
	.code	16                              @ @mbedtls_version_get_string_full
	.thumb_func
mbedtls_version_get_string_full:
.Lfunc_begin2:
	.loc	1 45 0 is_stmt 1                @ ../../../ThirdParty/mbedTLS/library/version.c:45:0
	.fnstart
	.cfi_startproc
@ %bb.0:
	@DEBUG_VALUE: mbedtls_version_get_string_full:string <- $r0
	@DEBUG_VALUE: mbedtls_version_get_string_full:string <- $r0
	.save	{r7, lr}
	push	{r7, lr}
	.cfi_def_cfa_offset 8
	.cfi_offset lr, -4
	.cfi_offset r7, -8
.Ltmp5:
	.loc	1 46 5 prologue_end             @ ../../../ThirdParty/mbedTLS/library/version.c:46:5
	ldr	r1, __arm_cp.2_0
	movs	r2, #16
	@DEBUG_VALUE: mbedtls_version_get_string_full:string <- $r0
	bl	__aeabi_memcpy
.Ltmp6:
	@DEBUG_VALUE: mbedtls_version_get_string_full:string <- [DW_OP_LLVM_entry_value 1] $r0
	.loc	1 48 1                          @ ../../../ThirdParty/mbedTLS/library/version.c:48:1
	pop	{r7, pc}
.Ltmp7:
	.p2align	2
@ %bb.1:
	.loc	1 0 1 is_stmt 0                 @ ../../../ThirdParty/mbedTLS/library/version.c:0:1
__arm_cp.2_0:
	.long	.L.str.1
.Lcpi_end2:
	.size	__arm_cp.2_0, .Lcpi_end2-__arm_cp.2_0
.Lfunc_end2:
	.size	mbedtls_version_get_string_full, .Lfunc_end2-mbedtls_version_get_string_full
	.cfi_endproc
	.cantunwind
	.fnend
                                        @ -- End function
	.type	.L.str,%object                  @ @.str
	.section	.rodata.str1.1,"aMS",%progbits,1
.L.str:
	.asciz	"2.17.0"
	.size	.L.str, 7

	.type	.L.str.1,%object                @ @.str.1
	.section	.rodata.str1.4,"aMS",%progbits,1
	.p2align	2
.L.str.1:
	.asciz	"mbed TLS 2.17.0"
	.size	.L.str.1, 16

	.section	".note.GNU-stack","",%progbits
	.eabi_attribute	30, 1	@ Tag_ABI_optimization_goals
	.ARM_attribute	16, 1	@ Tag_AV_eba