	.text
	.syntax unified
	.eabi_attribute	67, "2.09"	@ Tag_conformance
	.cpu	cortex-m23
	.eabi_attribute	6, 16	@ Tag_CPU_arch
	.eabi_attribute	7, 77	@ Tag_CPU_arch_profile
	.eabi_attribute	8, 0	@ Tag_ARM_ISA_use
	.eabi_attribute	9, 3	@ Tag_THUMB_ISA_use
	.eabi_attribute	34, 0	@ Tag_CPU_unaligned_access
	.eabi_attribute	17, 1	@ Tag_ABI_PCS_GOT_use
	.eabi_attribute	20, 2	@ Tag_ABI_FP_denormal
	.eabi_attribute	21, 0	@ Tag_ABI_FP_exceptions
	.eabi_attribute	23, 1	@ Tag_ABI_FP_number_model
	.eabi_attribute	24, 1	@ Tag_ABI_align_needed
	.eabi_attribute	25, 1	@ Tag_ABI_align_preserved
	.eabi_attribute	38, 1	@ Tag_ABI_FP_16bit_format
	.eabi_attribute	18, 2	@ Tag_ABI_PCS_wchar_t
	.eabi_attribute	26, 1	@ Tag_ABI_enum_size
	.eabi_attribute	14, 0	@ Tag_ABI_PCS_R9_use
	.file	"WiFi_ESP8266.c"
	.file	1 "C:\\" "Keil_v5\\ARM\\ARMCLANG\\Bin\\..\\include\\stdint.h"
	.file	2 "C:/Users/shw26/AppData/Local/Arm/Packs/ARM/CMSIS-Driver/2.6.1/WiFi/ESP8266" "WiFi_ESP8266.c"
	.file	3 "C:/Users/shw26/AppData/Local/Arm/Packs/ARM/CMSIS/5.7.0/CMSIS/Driver/Include" "Driver_Common.h"
	.file	4 "C:/Users/shw26/AppData/Local/Arm/Packs/ARM/CMSIS/5.7.0/CMSIS/Driver/Include" "Driver_WiFi.h"
	.file	5 "C:/Users/shw26/AppData/Local/Arm/Packs/ARM/CMSIS-Driver/2.6.1/WiFi/ESP8266/BufList" "LinkList.h"
	.file	6 "C:/Users/shw26/AppData/Local/Arm/Packs/ARM/CMSIS-Driver/2.6.1/WiFi/ESP8266/BufList" "BufList.h"
	.file	7 "C:/Users/shw26/AppData/Local/Arm/Packs/ARM/CMSIS-Driver/2.6.1/WiFi/ESP8266" "WiFi_ESP8266.h"
	.file	8 "C:/Users/shw26/AppData/Local/Arm/Packs/ARM/CMSIS/5.7.0/CMSIS/RTOS2/Include" "cmsis_os2.h"
	.file	9 "C:\\Users\\shw26\\OneDrive\\Desktop\\2021\\2021-1\\\354\272\241\354\212\244\355\206\244\353\224\224\354\236\220\354\235\2702\\Nuvoton\\M2351_BSP_v3.00.004\\M2351Series_BSP_CMSIS_V3.00.004\\MyProject\\PulseMonitoring\\Secure" "../../../Library/CMSIS/Include/cmsis_armclang.h"
	.section	.text.AT_Notify,"ax",%progbits
	.hidden	AT_Notify                       @ -- Begin function AT_Notify
	.globl	AT_Notify
	.p2align	2
	.type	AT_Notify,%function
	.code	16                              @ @AT_Notify
	.thumb_func
AT_Notify:
.Lfunc_begin0:
	.loc	2 85 0                          @ C:/Users/shw26/AppData/Local/Arm/Packs/ARM/CMSIS-Driver/2.6.1/WiFi/ESP8266/WiFi_ESP8266.c:85:0
	.fnstart
	.cfi_sections .debug_frame
	.cfi_startproc
@ %bb.0:
	@DEBUG_VALUE: AT_Notify:event <- $r0
	@DEBUG_VALUE: AT_Notify:arg <- $r1
	@DEBUG_VALUE: AT_Notify:arg <- $r1
	@DEBUG_VALUE: AT_Notify:event <- $r0
	.save	{r4, r5, r6, r7, lr}
	push	{r4, r5, r6, r7, lr}
	.cfi_def_cfa_offset 20
	.cfi_offset lr, -4
	.cfi_offset r7, -8
	.cfi_offset r6, -12
	.cfi_offset r5, -16
	.cfi_offset r4, -20
	.pad	#20
	sub	sp, #20
	.cfi_def_cfa_offset 40
.Ltmp0:
	.loc	2 98 7 prologue_end             @ C:/Users/shw26/AppData/Local/Arm/Packs/ARM/CMSIS-Driver/2.6.1/WiFi/ESP8266/WiFi_ESP8266.c:98:7
	cmp	r0, #15
	bls	.LBB0_1
	b	.LBB0_83
.Ltmp1:
.LBB0_1:
	@DEBUG_VALUE: AT_Notify:arg <- $r1
	@DEBUG_VALUE: AT_Notify:event <- $r0
	.loc	2 0 7 is_stmt 0                 @ C:/Users/shw26/AppData/Local/Arm/Packs/ARM/CMSIS-Driver/2.6.1/WiFi/ESP8266/WiFi_ESP8266.c:0:7
	mov	r4, r1
.Ltmp2:
	@DEBUG_VALUE: AT_Notify:arg <- $r4
	lsls	r1, r0, #2
	adr	r2, .LJTI0_0
	adds	r1, r2, r1
	mov	pc, r1
.Ltmp3:
@ %bb.2:
	.p2align	2
.LJTI0_0:
	b.w	.LBB0_4
	b.w	.LBB0_5
	b.w	.LBB0_6
	b.w	.LBB0_8
	b.w	.LBB0_9
	b.w	.LBB0_16
	b.w	.LBB0_21
	b.w	.LBB0_22
	b.w	.LBB0_24
	b.w	.LBB0_30
	b.w	.LBB0_32
	b.w	.LBB0_3
	b.w	.LBB0_33
	b.w	.LBB0_34
	b.w	.LBB0_36
	b.w	.LBB0_3
.LBB0_3:
.Ltmp4:
	@DEBUG_VALUE: AT_Notify:arg <- $r4
	@DEBUG_VALUE: AT_Notify:event <- $r0
	ldr	r0, __arm_cp.0_0
.Ltmp5:
	@DEBUG_VALUE: AT_Notify:event <- [DW_OP_LLVM_entry_value 1] $r0
	ldr	r0, [r0, #8]
	movs	r1, #1
	b	.LBB0_86
.Ltmp6:
.LBB0_4:
	@DEBUG_VALUE: AT_Notify:arg <- $r4
	@DEBUG_VALUE: AT_Notify:event <- $r0
	.loc	2 100 30 is_stmt 1              @ C:/Users/shw26/AppData/Local/Arm/Packs/ARM/CMSIS-Driver/2.6.1/WiFi/ESP8266/WiFi_ESP8266.c:100:30
	ldr	r0, __arm_cp.0_0
.Ltmp7:
	@DEBUG_VALUE: AT_Notify:event <- [DW_OP_LLVM_entry_value 1] $r0
	ldr	r0, [r0, #4]
	movs	r1, #1
	.loc	2 100 5 is_stmt 0               @ C:/Users/shw26/AppData/Local/Arm/Packs/ARM/CMSIS-Driver/2.6.1/WiFi/ESP8266/WiFi_ESP8266.c:100:5
	bl	osThreadFlagsSet
.Ltmp8:
	.loc	2 401 1 is_stmt 1               @ C:/Users/shw26/AppData/Local/Arm/Packs/ARM/CMSIS-Driver/2.6.1/WiFi/ESP8266/WiFi_ESP8266.c:401:1
	add	sp, #20
	pop	{r4, r5, r6, r7, pc}
.Ltmp9:
.LBB0_5:
	@DEBUG_VALUE: AT_Notify:arg <- $r4
	@DEBUG_VALUE: AT_Notify:event <- $r0
	.loc	2 0 1 is_stmt 0                 @ C:/Users/shw26/AppData/Local/Arm/Packs/ARM/CMSIS-Driver/2.6.1/WiFi/ESP8266/WiFi_ESP8266.c:0:1
	movs	r0, #114
.Ltmp10:
	@DEBUG_VALUE: AT_Notify:event <- [DW_OP_LLVM_entry_value 1] $r0
	.loc	2 370 18 is_stmt 1              @ C:/Users/shw26/AppData/Local/Arm/Packs/ARM/CMSIS-Driver/2.6.1/WiFi/ESP8266/WiFi_ESP8266.c:370:18
	ldr	r1, __arm_cp.0_0
	ldrh	r2, [r1, r0]
	movs	r3, #32
	b	.LBB0_7
.Ltmp11:
.LBB0_6:
	@DEBUG_VALUE: AT_Notify:arg <- $r4
	@DEBUG_VALUE: AT_Notify:event <- $r0
	.loc	2 0 18 is_stmt 0                @ C:/Users/shw26/AppData/Local/Arm/Packs/ARM/CMSIS-Driver/2.6.1/WiFi/ESP8266/WiFi_ESP8266.c:0:18
	movs	r0, #114
.Ltmp12:
	@DEBUG_VALUE: AT_Notify:event <- [DW_OP_LLVM_entry_value 1] $r0
	.loc	2 374 18 is_stmt 1              @ C:/Users/shw26/AppData/Local/Arm/Packs/ARM/CMSIS-Driver/2.6.1/WiFi/ESP8266/WiFi_ESP8266.c:374:18
	ldr	r1, __arm_cp.0_0
	ldrh	r2, [r1, r0]
	movs	r3, #64
.Ltmp13:
.LBB0_7:
	@DEBUG_VALUE: AT_Notify:arg <- $r4
	@DEBUG_VALUE: AT_Notify:event <- [DW_OP_LLVM_entry_value 1] $r0
	.loc	2 0 0 is_stmt 0                 @ C:/Users/shw26/AppData/Local/Arm/Packs/ARM/CMSIS-Driver/2.6.1/WiFi/ESP8266/WiFi_ESP8266.c:0:0
	orrs	r3, r2
	strh	r3, [r1, r0]
.Ltmp14:
	.loc	2 401 1 is_stmt 1               @ C:/Users/shw26/AppData/Local/Arm/Packs/ARM/CMSIS-Driver/2.6.1/WiFi/ESP8266/WiFi_ESP8266.c:401:1
	add	sp, #20
	pop	{r4, r5, r6, r7, pc}
.Ltmp15:
.LBB0_8:
	@DEBUG_VALUE: AT_Notify:arg <- $r4
	@DEBUG_VALUE: AT_Notify:event <- $r0
	.loc	2 0 1 is_stmt 0                 @ C:/Users/shw26/AppData/Local/Arm/Packs/ARM/CMSIS-Driver/2.6.1/WiFi/ESP8266/WiFi_ESP8266.c:0:1
	movs	r0, #114
.Ltmp16:
	@DEBUG_VALUE: AT_Notify:event <- [DW_OP_LLVM_entry_value 1] $r0
	.loc	2 378 18 is_stmt 1              @ C:/Users/shw26/AppData/Local/Arm/Packs/ARM/CMSIS-Driver/2.6.1/WiFi/ESP8266/WiFi_ESP8266.c:378:18
	ldr	r1, __arm_cp.0_0
	ldrh	r2, [r1, r0]
	movs	r3, #96
	bics	r2, r3
	b	.LBB0_48
.Ltmp17:
.LBB0_9:
	@DEBUG_VALUE: AT_Notify:arg <- $r4
	@DEBUG_VALUE: AT_Notify:event <- $r0
	.loc	2 0 18 is_stmt 0                @ C:/Users/shw26/AppData/Local/Arm/Packs/ARM/CMSIS-Driver/2.6.1/WiFi/ESP8266/WiFi_ESP8266.c:0:18
	movs	r0, #114
.Ltmp18:
	@DEBUG_VALUE: AT_Notify:event <- [DW_OP_LLVM_entry_value 1] $r0
	.loc	2 192 17 is_stmt 1              @ C:/Users/shw26/AppData/Local/Arm/Packs/ARM/CMSIS-Driver/2.6.1/WiFi/ESP8266/WiFi_ESP8266.c:192:17
	ldr	r7, __arm_cp.0_0
	ldrh	r0, [r7, r0]
.Ltmp19:
	.loc	2 192 9 is_stmt 0               @ C:/Users/shw26/AppData/Local/Arm/Packs/ARM/CMSIS-Driver/2.6.1/WiFi/ESP8266/WiFi_ESP8266.c:192:9
	lsls	r0, r0, #29
	bpl	.LBB0_10
	b	.LBB0_37
.Ltmp20:
.LBB0_10:
	@DEBUG_VALUE: AT_Notify:arg <- $r4
	@DEBUG_VALUE: AT_Notify:event <- [DW_OP_LLVM_entry_value 1] $r0
	@DEBUG_VALUE: AT_Notify:stat <- [DW_OP_plus_uconst 16, DW_OP_deref] $sp
	.loc	2 0 9                           @ C:/Users/shw26/AppData/Local/Arm/Packs/ARM/CMSIS-Driver/2.6.1/WiFi/ESP8266/WiFi_ESP8266.c:0:9
	add	r0, sp, #16
	mov	r1, sp
.Ltmp21:
	.loc	2 194 12 is_stmt 1              @ C:/Users/shw26/AppData/Local/Arm/Packs/ARM/CMSIS-Driver/2.6.1/WiFi/ESP8266/WiFi_ESP8266.c:194:12
	bl	AT_Resp_LinkConn
.Ltmp22:
	@DEBUG_VALUE: AT_Notify:ex <- $r0
	.loc	2 196 11                        @ C:/Users/shw26/AppData/Local/Arm/Packs/ARM/CMSIS-Driver/2.6.1/WiFi/ESP8266/WiFi_ESP8266.c:196:11
	cmp	r0, #0
	beq	.LBB0_11
	b	.LBB0_83
.Ltmp23:
.LBB0_11:
	@DEBUG_VALUE: AT_Notify:arg <- $r4
	@DEBUG_VALUE: AT_Notify:ex <- $r0
	@DEBUG_VALUE: AT_Notify:stat <- [DW_OP_plus_uconst 16, DW_OP_deref] $sp
	@DEBUG_VALUE: AT_Notify:event <- [DW_OP_LLVM_entry_value 1] $r0
	.loc	2 0 11 is_stmt 0                @ C:/Users/shw26/AppData/Local/Arm/Packs/ARM/CMSIS-Driver/2.6.1/WiFi/ESP8266/WiFi_ESP8266.c:0:11
	mov	r4, sp
.Ltmp24:
	@DEBUG_VALUE: AT_Notify:stat <- [DW_OP_plus_uconst 16, DW_OP_deref] $r4
	@DEBUG_VALUE: AT_Notify:arg <- [DW_OP_LLVM_entry_value 1] $r1
	.loc	2 198 29 is_stmt 1              @ C:/Users/shw26/AppData/Local/Arm/Packs/ARM/CMSIS-Driver/2.6.1/WiFi/ESP8266/WiFi_ESP8266.c:198:29
	ldrb	r0, [r4]
.Ltmp25:
	.loc	2 198 9 is_stmt 0               @ C:/Users/shw26/AppData/Local/Arm/Packs/ARM/CMSIS-Driver/2.6.1/WiFi/ESP8266/WiFi_ESP8266.c:198:9
	bl	ConnId_Accept
.Ltmp26:
	.loc	2 200 18 is_stmt 1              @ C:/Users/shw26/AppData/Local/Arm/Packs/ARM/CMSIS-Driver/2.6.1/WiFi/ESP8266/WiFi_ESP8266.c:200:18
	ldrb	r0, [r4, #5]
.Ltmp27:
	.loc	2 200 13 is_stmt 0              @ C:/Users/shw26/AppData/Local/Arm/Packs/ARM/CMSIS-Driver/2.6.1/WiFi/ESP8266/WiFi_ESP8266.c:200:13
	cmp	r0, #1
	beq	.LBB0_12
	b	.LBB0_62
.Ltmp28:
.LBB0_12:
	@DEBUG_VALUE: AT_Notify:stat <- [DW_OP_plus_uconst 16, DW_OP_deref] $r4
	@DEBUG_VALUE: AT_Notify:arg <- [DW_OP_LLVM_entry_value 1] $r1
	@DEBUG_VALUE: AT_Notify:event <- [DW_OP_LLVM_entry_value 1] $r0
	.loc	2 0 13                          @ C:/Users/shw26/AppData/Local/Arm/Packs/ARM/CMSIS-Driver/2.6.1/WiFi/ESP8266/WiFi_ESP8266.c:0:13
	movs	r0, #0
	movs	r1, #60
	ldr	r2, __arm_cp.0_1
	movs	r3, #36
	movs	r6, #5
.Ltmp29:
.LBB0_13:                               @ =>This Inner Loop Header: Depth=1
	@DEBUG_VALUE: AT_Notify:arg <- [DW_OP_LLVM_entry_value 1] $r1
	@DEBUG_VALUE: AT_Notify:event <- [DW_OP_LLVM_entry_value 1] $r0
	@DEBUG_VALUE: AT_Notify:n <- $r0
	.loc	2 203 27 is_stmt 1              @ C:/Users/shw26/AppData/Local/Arm/Packs/ARM/CMSIS-Driver/2.6.1/WiFi/ESP8266/WiFi_ESP8266.c:203:27
	mov	r4, r1
	muls	r4, r0, r4
	adds	r5, r2, r4
	ldrb	r4, [r5, r3]
.Ltmp30:
	.loc	2 203 17 is_stmt 0              @ C:/Users/shw26/AppData/Local/Arm/Packs/ARM/CMSIS-Driver/2.6.1/WiFi/ESP8266/WiFi_ESP8266.c:203:17
	cmp	r4, #8
	bne	.LBB0_14
	b	.LBB0_74
.Ltmp31:
.LBB0_14:                               @   in Loop: Header=BB0_13 Depth=1
	@DEBUG_VALUE: AT_Notify:n <- $r0
	@DEBUG_VALUE: AT_Notify:arg <- [DW_OP_LLVM_entry_value 1] $r1
	@DEBUG_VALUE: AT_Notify:event <- [DW_OP_LLVM_entry_value 1] $r0
	.loc	2 202 46 is_stmt 1              @ C:/Users/shw26/AppData/Local/Arm/Packs/ARM/CMSIS-Driver/2.6.1/WiFi/ESP8266/WiFi_ESP8266.c:202:46
	adds	r4, r0, #1
.Ltmp32:
	@DEBUG_VALUE: AT_Notify:n <- $r4
	.loc	2 202 11 is_stmt 0              @ C:/Users/shw26/AppData/Local/Arm/Packs/ARM/CMSIS-Driver/2.6.1/WiFi/ESP8266/WiFi_ESP8266.c:202:11
	cmp	r0, #4
	mov	r0, r4
.Ltmp33:
	@DEBUG_VALUE: AT_Notify:n <- $r0
	blo	.LBB0_13
.Ltmp34:
@ %bb.15:
	@DEBUG_VALUE: AT_Notify:n <- $r0
	@DEBUG_VALUE: AT_Notify:arg <- [DW_OP_LLVM_entry_value 1] $r1
	@DEBUG_VALUE: AT_Notify:event <- [DW_OP_LLVM_entry_value 1] $r0
	.loc	2 0 0                           @ C:/Users/shw26/AppData/Local/Arm/Packs/ARM/CMSIS-Driver/2.6.1/WiFi/ESP8266/WiFi_ESP8266.c:0:0
	mov	r0, r6
.Ltmp35:
	b	.LBB0_88
.Ltmp36:
.LBB0_16:
	@DEBUG_VALUE: AT_Notify:arg <- $r4
	@DEBUG_VALUE: AT_Notify:event <- $r0
	@DEBUG_VALUE: AT_Notify:conn_id <- [DW_OP_plus_uconst 16, DW_OP_deref] $sp
	add	r0, sp, #16
.Ltmp37:
	@DEBUG_VALUE: AT_Notify:event <- [DW_OP_LLVM_entry_value 1] $r0
	.loc	2 321 10 is_stmt 1              @ C:/Users/shw26/AppData/Local/Arm/Packs/ARM/CMSIS-Driver/2.6.1/WiFi/ESP8266/WiFi_ESP8266.c:321:10
	bl	AT_Resp_CtrlConn
.Ltmp38:
	@DEBUG_VALUE: AT_Notify:ex <- $r0
	.loc	2 323 9                         @ C:/Users/shw26/AppData/Local/Arm/Packs/ARM/CMSIS-Driver/2.6.1/WiFi/ESP8266/WiFi_ESP8266.c:323:9
	cmp	r0, #0
	beq	.LBB0_17
	b	.LBB0_83
.Ltmp39:
.LBB0_17:
	@DEBUG_VALUE: AT_Notify:arg <- $r4
	@DEBUG_VALUE: AT_Notify:ex <- $r0
	@DEBUG_VALUE: AT_Notify:conn_id <- [DW_OP_plus_uconst 16, DW_OP_deref] $sp
	@DEBUG_VALUE: AT_Notify:event <- [DW_OP_LLVM_entry_value 1] $r0
	.loc	2 325 20                        @ C:/Users/shw26/AppData/Local/Arm/Packs/ARM/CMSIS-Driver/2.6.1/WiFi/ESP8266/WiFi_ESP8266.c:325:20
	ldr	r0, [sp, #16]
.Ltmp40:
	@DEBUG_VALUE: AT_Notify:conn_id <- $r0
	.loc	2 325 7 is_stmt 0               @ C:/Users/shw26/AppData/Local/Arm/Packs/ARM/CMSIS-Driver/2.6.1/WiFi/ESP8266/WiFi_ESP8266.c:325:7
	bl	ConnId_Free
.Ltmp41:
	@DEBUG_VALUE: AT_Notify:n <- 0
	.loc	2 0 7                           @ C:/Users/shw26/AppData/Local/Arm/Packs/ARM/CMSIS-Driver/2.6.1/WiFi/ESP8266/WiFi_ESP8266.c:0:7
	ldr	r1, __arm_cp.0_1
	adds	r1, #36
	movs	r0, #0
.Ltmp42:
	ldr	r4, [sp, #16]
.Ltmp43:
	@DEBUG_VALUE: AT_Notify:arg <- [DW_OP_LLVM_entry_value 1] $r1
	movs	r3, #5
	mov	r2, r0
.Ltmp44:
.LBB0_18:                               @ =>This Inner Loop Header: Depth=1
	@DEBUG_VALUE: AT_Notify:arg <- [DW_OP_LLVM_entry_value 1] $r1
	@DEBUG_VALUE: AT_Notify:event <- [DW_OP_LLVM_entry_value 1] $r0
	@DEBUG_VALUE: AT_Notify:n <- $r2
	.loc	2 329 23 is_stmt 1              @ C:/Users/shw26/AppData/Local/Arm/Packs/ARM/CMSIS-Driver/2.6.1/WiFi/ESP8266/WiFi_ESP8266.c:329:23
	ldr	r5, [r1, #4]
.Ltmp45:
	@DEBUG_VALUE: AT_Notify:conn_id <- $r4
	.loc	2 329 13 is_stmt 0              @ C:/Users/shw26/AppData/Local/Arm/Packs/ARM/CMSIS-Driver/2.6.1/WiFi/ESP8266/WiFi_ESP8266.c:329:13
	cmp	r5, r4
	bne	.LBB0_19
	b	.LBB0_54
.Ltmp46:
.LBB0_19:                               @   in Loop: Header=BB0_18 Depth=1
	@DEBUG_VALUE: AT_Notify:conn_id <- $r4
	@DEBUG_VALUE: AT_Notify:n <- $r2
	@DEBUG_VALUE: AT_Notify:arg <- [DW_OP_LLVM_entry_value 1] $r1
	@DEBUG_VALUE: AT_Notify:event <- [DW_OP_LLVM_entry_value 1] $r0
	.loc	2 328 7 is_stmt 1               @ C:/Users/shw26/AppData/Local/Arm/Packs/ARM/CMSIS-Driver/2.6.1/WiFi/ESP8266/WiFi_ESP8266.c:328:7
	adds	r1, #60
	adds	r0, r0, #1
.Ltmp47:
	.loc	2 328 42 is_stmt 0              @ C:/Users/shw26/AppData/Local/Arm/Packs/ARM/CMSIS-Driver/2.6.1/WiFi/ESP8266/WiFi_ESP8266.c:328:42
	adds	r5, r2, #1
.Ltmp48:
	@DEBUG_VALUE: AT_Notify:n <- $r5
	.loc	2 328 7                         @ C:/Users/shw26/AppData/Local/Arm/Packs/ARM/CMSIS-Driver/2.6.1/WiFi/ESP8266/WiFi_ESP8266.c:328:7
	cmp	r2, #4
	mov	r2, r5
	blo	.LBB0_18
.Ltmp49:
@ %bb.20:
	@DEBUG_VALUE: AT_Notify:n <- $r5
	@DEBUG_VALUE: AT_Notify:conn_id <- $r4
	@DEBUG_VALUE: AT_Notify:arg <- [DW_OP_LLVM_entry_value 1] $r1
	@DEBUG_VALUE: AT_Notify:event <- [DW_OP_LLVM_entry_value 1] $r0
	.loc	2 0 7                           @ C:/Users/shw26/AppData/Local/Arm/Packs/ARM/CMSIS-Driver/2.6.1/WiFi/ESP8266/WiFi_ESP8266.c:0:7
	mov	r2, r3
	mov	r0, r5
	b	.LBB0_82
.Ltmp50:
.LBB0_21:
	@DEBUG_VALUE: AT_Notify:arg <- $r4
	@DEBUG_VALUE: AT_Notify:event <- $r0
	mov	r4, sp
.Ltmp51:
	@DEBUG_VALUE: AT_Notify:arg <- [DW_OP_LLVM_entry_value 1] $r1
	.loc	2 358 10 is_stmt 1              @ C:/Users/shw26/AppData/Local/Arm/Packs/ARM/CMSIS-Driver/2.6.1/WiFi/ESP8266/WiFi_ESP8266.c:358:10
	mov	r0, r4
.Ltmp52:
	@DEBUG_VALUE: AT_Notify:event <- [DW_OP_LLVM_entry_value 1] $r0
	bl	AT_Resp_StaMac
.Ltmp53:
	@DEBUG_VALUE: AT_Notify:ex <- undef
	.loc	2 360 12                        @ C:/Users/shw26/AppData/Local/Arm/Packs/ARM/CMSIS-Driver/2.6.1/WiFi/ESP8266/WiFi_ESP8266.c:360:12
	ldr	r0, __arm_cp.0_0
	ldr	r2, [r0]
	movs	r0, #1
	b	.LBB0_23
.Ltmp54:
.LBB0_22:
	@DEBUG_VALUE: AT_Notify:arg <- $r4
	@DEBUG_VALUE: AT_Notify:event <- $r0
	.loc	2 0 12 is_stmt 0                @ C:/Users/shw26/AppData/Local/Arm/Packs/ARM/CMSIS-Driver/2.6.1/WiFi/ESP8266/WiFi_ESP8266.c:0:12
	mov	r4, sp
.Ltmp55:
	@DEBUG_VALUE: AT_Notify:arg <- [DW_OP_LLVM_entry_value 1] $r1
	.loc	2 364 10 is_stmt 1              @ C:/Users/shw26/AppData/Local/Arm/Packs/ARM/CMSIS-Driver/2.6.1/WiFi/ESP8266/WiFi_ESP8266.c:364:10
	mov	r0, r4
.Ltmp56:
	@DEBUG_VALUE: AT_Notify:event <- [DW_OP_LLVM_entry_value 1] $r0
	bl	AT_Resp_StaMac
.Ltmp57:
	@DEBUG_VALUE: AT_Notify:ex <- undef
	.loc	2 366 12                        @ C:/Users/shw26/AppData/Local/Arm/Packs/ARM/CMSIS-Driver/2.6.1/WiFi/ESP8266/WiFi_ESP8266.c:366:12
	ldr	r0, __arm_cp.0_0
	ldr	r2, [r0]
	movs	r0, #2
.Ltmp58:
.LBB0_23:
	@DEBUG_VALUE: AT_Notify:arg <- [DW_OP_LLVM_entry_value 1] $r1
	@DEBUG_VALUE: AT_Notify:event <- [DW_OP_LLVM_entry_value 1] $r0
	.loc	2 0 0 is_stmt 0                 @ C:/Users/shw26/AppData/Local/Arm/Packs/ARM/CMSIS-Driver/2.6.1/WiFi/ESP8266/WiFi_ESP8266.c:0:0
	mov	r1, r4
	blx	r2
.Ltmp59:
	.loc	2 401 1 is_stmt 1               @ C:/Users/shw26/AppData/Local/Arm/Packs/ARM/CMSIS-Driver/2.6.1/WiFi/ESP8266/WiFi_ESP8266.c:401:1
	add	sp, #20
	pop	{r4, r5, r6, r7, pc}
.Ltmp60:
.LBB0_24:
	@DEBUG_VALUE: AT_Notify:arg <- $r4
	@DEBUG_VALUE: AT_Notify:event <- $r0
	@DEBUG_VALUE: AT_Notify:u32 <- $r4
	.loc	2 0 1 is_stmt 0                 @ C:/Users/shw26/AppData/Local/Arm/Packs/ARM/CMSIS-Driver/2.6.1/WiFi/ESP8266/WiFi_ESP8266.c:0:1
	movs	r5, #0
.Ltmp61:
	.loc	2 115 10 is_stmt 1              @ C:/Users/shw26/AppData/Local/Arm/Packs/ARM/CMSIS-Driver/2.6.1/WiFi/ESP8266/WiFi_ESP8266.c:115:10
	str	r5, [r4]
	.loc	2 118 13                        @ C:/Users/shw26/AppData/Local/Arm/Packs/ARM/CMSIS-Driver/2.6.1/WiFi/ESP8266/WiFi_ESP8266.c:118:13
	ldr	r1, __arm_cp.0_2
	movs	r0, #255
.Ltmp62:
	@DEBUG_VALUE: AT_Notify:event <- [DW_OP_LLVM_entry_value 1] $r0
	strb	r0, [r1]
	.loc	2 119 13                        @ C:/Users/shw26/AppData/Local/Arm/Packs/ARM/CMSIS-Driver/2.6.1/WiFi/ESP8266/WiFi_ESP8266.c:119:13
	ldr	r6, __arm_cp.0_3
	str	r5, [r6]
.Ltmp63:
	@DEBUG_VALUE: AT_Notify:len <- [DW_OP_deref] $sp
	@DEBUG_VALUE: AT_Notify:conn_id <- [DW_OP_plus_uconst 16, DW_OP_deref] $sp
	.loc	2 0 13 is_stmt 0                @ C:/Users/shw26/AppData/Local/Arm/Packs/ARM/CMSIS-Driver/2.6.1/WiFi/ESP8266/WiFi_ESP8266.c:0:13
	add	r0, sp, #16
	mov	r1, sp
	.loc	2 121 10 is_stmt 1              @ C:/Users/shw26/AppData/Local/Arm/Packs/ARM/CMSIS-Driver/2.6.1/WiFi/ESP8266/WiFi_ESP8266.c:121:10
	mov	r2, r5
	mov	r3, r5
	bl	AT_Resp_IPD
.Ltmp64:
	@DEBUG_VALUE: AT_Notify:ex <- $r0
	.loc	2 123 9                         @ C:/Users/shw26/AppData/Local/Arm/Packs/ARM/CMSIS-Driver/2.6.1/WiFi/ESP8266/WiFi_ESP8266.c:123:9
	cmp	r0, #0
	beq	.LBB0_25
	b	.LBB0_83
.Ltmp65:
.LBB0_25:
	@DEBUG_VALUE: AT_Notify:u32 <- $r4
	@DEBUG_VALUE: AT_Notify:arg <- $r4
	@DEBUG_VALUE: AT_Notify:ex <- $r0
	@DEBUG_VALUE: AT_Notify:conn_id <- [DW_OP_plus_uconst 16, DW_OP_deref] $sp
	@DEBUG_VALUE: AT_Notify:len <- [DW_OP_deref] $sp
	@DEBUG_VALUE: AT_Notify:event <- [DW_OP_LLVM_entry_value 1] $r0
	@DEBUG_VALUE: AT_Notify:n <- 0
	.loc	2 0 9 is_stmt 0                 @ C:/Users/shw26/AppData/Local/Arm/Packs/ARM/CMSIS-Driver/2.6.1/WiFi/ESP8266/WiFi_ESP8266.c:0:9
	ldr	r1, __arm_cp.0_1
	adds	r1, #40
	movs	r2, #3
	mvns	r2, r2
.Ltmp66:
	ldr	r3, [sp, #16]
	movs	r7, #5
	b	.LBB0_27
.Ltmp67:
.LBB0_26:                               @   in Loop: Header=BB0_27 Depth=1
	@DEBUG_VALUE: AT_Notify:n <- $r5
	@DEBUG_VALUE: AT_Notify:u32 <- $r4
	@DEBUG_VALUE: AT_Notify:arg <- $r4
	@DEBUG_VALUE: AT_Notify:len <- [DW_OP_deref] $sp
	@DEBUG_VALUE: AT_Notify:event <- [DW_OP_LLVM_entry_value 1] $r0
	.loc	2 125 22 is_stmt 1              @ C:/Users/shw26/AppData/Local/Arm/Packs/ARM/CMSIS-Driver/2.6.1/WiFi/ESP8266/WiFi_ESP8266.c:125:22
	adds	r1, #60
	.loc	2 125 42 is_stmt 0              @ C:/Users/shw26/AppData/Local/Arm/Packs/ARM/CMSIS-Driver/2.6.1/WiFi/ESP8266/WiFi_ESP8266.c:125:42
	adds	r5, r5, #1
.Ltmp68:
	@DEBUG_VALUE: AT_Notify:n <- $r5
	.loc	2 125 7                         @ C:/Users/shw26/AppData/Local/Arm/Packs/ARM/CMSIS-Driver/2.6.1/WiFi/ESP8266/WiFi_ESP8266.c:125:7
	cmp	r5, #5
	beq	.LBB0_49
.Ltmp69:
.LBB0_27:                               @ =>This Inner Loop Header: Depth=1
	@DEBUG_VALUE: AT_Notify:u32 <- $r4
	@DEBUG_VALUE: AT_Notify:arg <- $r4
	@DEBUG_VALUE: AT_Notify:len <- [DW_OP_deref] $sp
	@DEBUG_VALUE: AT_Notify:event <- [DW_OP_LLVM_entry_value 1] $r0
	@DEBUG_VALUE: AT_Notify:n <- $r5
	.loc	2 126 23 is_stmt 1              @ C:/Users/shw26/AppData/Local/Arm/Packs/ARM/CMSIS-Driver/2.6.1/WiFi/ESP8266/WiFi_ESP8266.c:126:23
	ldrb	r0, [r1, r2]
.Ltmp70:
	.loc	2 126 13 is_stmt 0              @ C:/Users/shw26/AppData/Local/Arm/Packs/ARM/CMSIS-Driver/2.6.1/WiFi/ESP8266/WiFi_ESP8266.c:126:13
	cmp	r0, #5
	bne	.LBB0_26
.Ltmp71:
@ %bb.28:                               @   in Loop: Header=BB0_27 Depth=1
	@DEBUG_VALUE: AT_Notify:n <- $r5
	@DEBUG_VALUE: AT_Notify:u32 <- $r4
	@DEBUG_VALUE: AT_Notify:arg <- $r4
	@DEBUG_VALUE: AT_Notify:len <- [DW_OP_deref] $sp
	@DEBUG_VALUE: AT_Notify:event <- [DW_OP_LLVM_entry_value 1] $r0
	@DEBUG_VALUE: AT_Notify:conn_id <- $r3
	.loc	2 127 25 is_stmt 1              @ C:/Users/shw26/AppData/Local/Arm/Packs/ARM/CMSIS-Driver/2.6.1/WiFi/ESP8266/WiFi_ESP8266.c:127:25
	ldr	r0, [r1]
.Ltmp72:
	.loc	2 127 15 is_stmt 0              @ C:/Users/shw26/AppData/Local/Arm/Packs/ARM/CMSIS-Driver/2.6.1/WiFi/ESP8266/WiFi_ESP8266.c:127:15
	cmp	r0, r3
	bne	.LBB0_26
.Ltmp73:
@ %bb.29:
	@DEBUG_VALUE: AT_Notify:n <- $r5
	@DEBUG_VALUE: AT_Notify:u32 <- $r4
	@DEBUG_VALUE: AT_Notify:arg <- $r4
	@DEBUG_VALUE: AT_Notify:conn_id <- $r3
	@DEBUG_VALUE: AT_Notify:len <- [DW_OP_deref] $sp
	@DEBUG_VALUE: AT_Notify:event <- [DW_OP_LLVM_entry_value 1] $r0
	.loc	2 0 15                          @ C:/Users/shw26/AppData/Local/Arm/Packs/ARM/CMSIS-Driver/2.6.1/WiFi/ESP8266/WiFi_ESP8266.c:0:15
	uxtb	r7, r5
	b	.LBB0_50
.Ltmp74:
.LBB0_30:
	@DEBUG_VALUE: AT_Notify:arg <- $r4
	@DEBUG_VALUE: AT_Notify:event <- $r0
	.loc	2 163 9 is_stmt 1               @ C:/Users/shw26/AppData/Local/Arm/Packs/ARM/CMSIS-Driver/2.6.1/WiFi/ESP8266/WiFi_ESP8266.c:163:9
	ldr	r5, __arm_cp.0_2
	ldrb	r0, [r5]
.Ltmp75:
	@DEBUG_VALUE: AT_Notify:event <- [DW_OP_LLVM_entry_value 1] $r0
	@DEBUG_VALUE: AT_Notify:u32 <- $r4
	.loc	2 160 12                        @ C:/Users/shw26/AppData/Local/Arm/Packs/ARM/CMSIS-Driver/2.6.1/WiFi/ESP8266/WiFi_ESP8266.c:160:12
	ldr	r1, [r4]
.Ltmp76:
	@DEBUG_VALUE: AT_Notify:addr <- $r1
	.loc	2 163 9                         @ C:/Users/shw26/AppData/Local/Arm/Packs/ARM/CMSIS-Driver/2.6.1/WiFi/ESP8266/WiFi_ESP8266.c:163:9
	cmp	r0, #255
	beq	.LBB0_43
.Ltmp77:
@ %bb.31:
	@DEBUG_VALUE: AT_Notify:u32 <- $r4
	@DEBUG_VALUE: AT_Notify:arg <- $r4
	@DEBUG_VALUE: AT_Notify:addr <- $r1
	@DEBUG_VALUE: AT_Notify:event <- [DW_OP_LLVM_entry_value 1] $r0
	@DEBUG_VALUE: AT_Notify:sock <- undef
	.loc	2 0 9 is_stmt 0                 @ C:/Users/shw26/AppData/Local/Arm/Packs/ARM/CMSIS-Driver/2.6.1/WiFi/ESP8266/WiFi_ESP8266.c:0:9
	movs	r2, #60
.Ltmp78:
	.loc	2 167 29 is_stmt 1              @ C:/Users/shw26/AppData/Local/Arm/Packs/ARM/CMSIS-Driver/2.6.1/WiFi/ESP8266/WiFi_ESP8266.c:167:29
	muls	r2, r0, r2
	ldr	r0, __arm_cp.0_1
	adds	r0, r0, r2
	.loc	2 167 52 is_stmt 0              @ C:/Users/shw26/AppData/Local/Arm/Packs/ARM/CMSIS-Driver/2.6.1/WiFi/ESP8266/WiFi_ESP8266.c:167:52
	ldr	r2, __arm_cp.0_3
	ldr	r2, [r2]
	.loc	2 167 13                        @ C:/Users/shw26/AppData/Local/Arm/Packs/ARM/CMSIS-Driver/2.6.1/WiFi/ESP8266/WiFi_ESP8266.c:167:13
	bl	BufCopy
.Ltmp79:
	@DEBUG_VALUE: AT_Notify:len <- $r0
	.loc	2 0 13                          @ C:/Users/shw26/AppData/Local/Arm/Packs/ARM/CMSIS-Driver/2.6.1/WiFi/ESP8266/WiFi_ESP8266.c:0:13
	b	.LBB0_44
.Ltmp80:
.LBB0_32:
	@DEBUG_VALUE: AT_Notify:arg <- $r4
	@DEBUG_VALUE: AT_Notify:event <- $r0
	.loc	2 188 29 is_stmt 1              @ C:/Users/shw26/AppData/Local/Arm/Packs/ARM/CMSIS-Driver/2.6.1/WiFi/ESP8266/WiFi_ESP8266.c:188:29
	ldr	r0, __arm_cp.0_0
.Ltmp81:
	@DEBUG_VALUE: AT_Notify:event <- [DW_OP_LLVM_entry_value 1] $r0
	ldr	r0, [r0, #8]
	movs	r1, #2
	.loc	2 188 5 is_stmt 0               @ C:/Users/shw26/AppData/Local/Arm/Packs/ARM/CMSIS-Driver/2.6.1/WiFi/ESP8266/WiFi_ESP8266.c:188:5
	b	.LBB0_86
.Ltmp82:
.LBB0_33:
	@DEBUG_VALUE: AT_Notify:arg <- $r4
	@DEBUG_VALUE: AT_Notify:event <- $r0
	.loc	2 104 29 is_stmt 1              @ C:/Users/shw26/AppData/Local/Arm/Packs/ARM/CMSIS-Driver/2.6.1/WiFi/ESP8266/WiFi_ESP8266.c:104:29
	ldr	r0, __arm_cp.0_0
.Ltmp83:
	@DEBUG_VALUE: AT_Notify:event <- [DW_OP_LLVM_entry_value 1] $r0
	ldr	r0, [r0, #8]
	movs	r1, #8
	.loc	2 104 5 is_stmt 0               @ C:/Users/shw26/AppData/Local/Arm/Packs/ARM/CMSIS-Driver/2.6.1/WiFi/ESP8266/WiFi_ESP8266.c:104:5
	b	.LBB0_86
.Ltmp84:
.LBB0_34:
	@DEBUG_VALUE: AT_Notify:arg <- $r4
	@DEBUG_VALUE: AT_Notify:event <- $r0
	.loc	2 391 11 is_stmt 1              @ C:/Users/shw26/AppData/Local/Arm/Packs/ARM/CMSIS-Driver/2.6.1/WiFi/ESP8266/WiFi_ESP8266.c:391:11
	cbz	r4, .LBB0_47
.Ltmp85:
@ %bb.35:
	@DEBUG_VALUE: AT_Notify:arg <- $r4
	@DEBUG_VALUE: AT_Notify:event <- $r0
	.loc	2 397 9                         @ C:/Users/shw26/AppData/Local/Arm/Packs/ARM/CMSIS-Driver/2.6.1/WiFi/ESP8266/WiFi_ESP8266.c:397:9
	@APP
	bkpt	#0
	@NO_APP
	b	.LBB0_83
.Ltmp86:
.LBB0_36:
	@DEBUG_VALUE: AT_Notify:arg <- $r4
	@DEBUG_VALUE: AT_Notify:event <- $r0
	@DEBUG_VALUE: AT_Notify:stat <- [DW_OP_plus_uconst 16, DW_OP_deref] $sp
	.loc	2 0 9 is_stmt 0                 @ C:/Users/shw26/AppData/Local/Arm/Packs/ARM/CMSIS-Driver/2.6.1/WiFi/ESP8266/WiFi_ESP8266.c:0:9
	add	r0, sp, #16
.Ltmp87:
	@DEBUG_VALUE: AT_Notify:event <- [DW_OP_LLVM_entry_value 1] $r0
	.loc	2 386 10 is_stmt 1              @ C:/Users/shw26/AppData/Local/Arm/Packs/ARM/CMSIS-Driver/2.6.1/WiFi/ESP8266/WiFi_ESP8266.c:386:10
	bl	AT_Resp_ErrCode
.Ltmp88:
	@DEBUG_VALUE: AT_Notify:ex <- undef
	.loc	2 401 1                         @ C:/Users/shw26/AppData/Local/Arm/Packs/ARM/CMSIS-Driver/2.6.1/WiFi/ESP8266/WiFi_ESP8266.c:401:1
	add	sp, #20
.Ltmp89:
	pop	{r4, r5, r6, r7, pc}
.Ltmp90:
.LBB0_37:
	@DEBUG_VALUE: AT_Notify:arg <- $r4
	@DEBUG_VALUE: AT_Notify:event <- [DW_OP_LLVM_entry_value 1] $r0
	@DEBUG_VALUE: AT_Notify:conn_id <- [DW_OP_plus_uconst 16, DW_OP_deref] $sp
	.loc	2 0 1 is_stmt 0                 @ C:/Users/shw26/AppData/Local/Arm/Packs/ARM/CMSIS-Driver/2.6.1/WiFi/ESP8266/WiFi_ESP8266.c:0:1
	add	r0, sp, #16
.Ltmp91:
	.loc	2 263 12 is_stmt 1              @ C:/Users/shw26/AppData/Local/Arm/Packs/ARM/CMSIS-Driver/2.6.1/WiFi/ESP8266/WiFi_ESP8266.c:263:12
	bl	AT_Resp_CtrlConn
.Ltmp92:
	@DEBUG_VALUE: AT_Notify:ex <- $r0
	.loc	2 265 11                        @ C:/Users/shw26/AppData/Local/Arm/Packs/ARM/CMSIS-Driver/2.6.1/WiFi/ESP8266/WiFi_ESP8266.c:265:11
	cmp	r0, #0
	beq	.LBB0_38
	b	.LBB0_83
.Ltmp93:
.LBB0_38:
	@DEBUG_VALUE: AT_Notify:arg <- $r4
	@DEBUG_VALUE: AT_Notify:ex <- $r0
	@DEBUG_VALUE: AT_Notify:conn_id <- [DW_OP_plus_uconst 16, DW_OP_deref] $sp
	@DEBUG_VALUE: AT_Notify:event <- [DW_OP_LLVM_entry_value 1] $r0
	.loc	2 267 24                        @ C:/Users/shw26/AppData/Local/Arm/Packs/ARM/CMSIS-Driver/2.6.1/WiFi/ESP8266/WiFi_ESP8266.c:267:24
	ldr	r0, [sp, #16]
.Ltmp94:
	@DEBUG_VALUE: AT_Notify:conn_id <- $r0
	.loc	2 267 9 is_stmt 0               @ C:/Users/shw26/AppData/Local/Arm/Packs/ARM/CMSIS-Driver/2.6.1/WiFi/ESP8266/WiFi_ESP8266.c:267:9
	bl	ConnId_Accept
.Ltmp95:
	.loc	2 0 9                           @ C:/Users/shw26/AppData/Local/Arm/Packs/ARM/CMSIS-Driver/2.6.1/WiFi/ESP8266/WiFi_ESP8266.c:0:9
	mov	r0, sp
	.loc	2 269 33 is_stmt 1              @ C:/Users/shw26/AppData/Local/Arm/Packs/ARM/CMSIS-Driver/2.6.1/WiFi/ESP8266/WiFi_ESP8266.c:269:33
	ldr	r1, [sp, #16]
	.loc	2 269 22 is_stmt 0              @ C:/Users/shw26/AppData/Local/Arm/Packs/ARM/CMSIS-Driver/2.6.1/WiFi/ESP8266/WiFi_ESP8266.c:269:22
	strb	r1, [r0]
	ldr	r3, __arm_cp.0_1
	adds	r3, #40
	movs	r2, #3
	mvns	r5, r2
.Ltmp96:
	.loc	2 0 0                           @ C:/Users/shw26/AppData/Local/Arm/Packs/ARM/CMSIS-Driver/2.6.1/WiFi/ESP8266/WiFi_ESP8266.c:0:0
	uxtb	r1, r1
.Ltmp97:
	@DEBUG_VALUE: AT_Notify:conn_id <- $r1
	movs	r2, #0
.Ltmp98:
	@DEBUG_VALUE: AT_Notify:n <- 0
	b	.LBB0_40
.Ltmp99:
.LBB0_39:                               @   in Loop: Header=BB0_40 Depth=1
	@DEBUG_VALUE: AT_Notify:n <- $r2
	@DEBUG_VALUE: AT_Notify:conn_id <- $r1
	@DEBUG_VALUE: AT_Notify:event <- [DW_OP_LLVM_entry_value 1] $r0
	.loc	2 272 24 is_stmt 1              @ C:/Users/shw26/AppData/Local/Arm/Packs/ARM/CMSIS-Driver/2.6.1/WiFi/ESP8266/WiFi_ESP8266.c:272:24
	adds	r3, #60
	.loc	2 272 44 is_stmt 0              @ C:/Users/shw26/AppData/Local/Arm/Packs/ARM/CMSIS-Driver/2.6.1/WiFi/ESP8266/WiFi_ESP8266.c:272:44
	adds	r2, r2, #1
.Ltmp100:
	@DEBUG_VALUE: AT_Notify:n <- $r2
	.loc	2 272 9                         @ C:/Users/shw26/AppData/Local/Arm/Packs/ARM/CMSIS-Driver/2.6.1/WiFi/ESP8266/WiFi_ESP8266.c:272:9
	cmp	r2, #5
	beq	.LBB0_56
.Ltmp101:
.LBB0_40:                               @ =>This Inner Loop Header: Depth=1
	@DEBUG_VALUE: AT_Notify:conn_id <- $r1
	@DEBUG_VALUE: AT_Notify:event <- [DW_OP_LLVM_entry_value 1] $r0
	@DEBUG_VALUE: AT_Notify:n <- $r2
	.loc	2 273 25 is_stmt 1              @ C:/Users/shw26/AppData/Local/Arm/Packs/ARM/CMSIS-Driver/2.6.1/WiFi/ESP8266/WiFi_ESP8266.c:273:25
	ldrb	r4, [r3, r5]
.Ltmp102:
	@DEBUG_VALUE: AT_Notify:arg <- [DW_OP_LLVM_entry_value 1] $r1
	.loc	2 273 15 is_stmt 0              @ C:/Users/shw26/AppData/Local/Arm/Packs/ARM/CMSIS-Driver/2.6.1/WiFi/ESP8266/WiFi_ESP8266.c:273:15
	cmp	r4, #4
	bne	.LBB0_39
.Ltmp103:
@ %bb.41:                               @   in Loop: Header=BB0_40 Depth=1
	@DEBUG_VALUE: AT_Notify:n <- $r2
	@DEBUG_VALUE: AT_Notify:conn_id <- $r1
	@DEBUG_VALUE: AT_Notify:event <- [DW_OP_LLVM_entry_value 1] $r0
	.loc	2 275 27 is_stmt 1              @ C:/Users/shw26/AppData/Local/Arm/Packs/ARM/CMSIS-Driver/2.6.1/WiFi/ESP8266/WiFi_ESP8266.c:275:27
	ldr	r4, [r3]
.Ltmp104:
	.loc	2 275 17 is_stmt 0              @ C:/Users/shw26/AppData/Local/Arm/Packs/ARM/CMSIS-Driver/2.6.1/WiFi/ESP8266/WiFi_ESP8266.c:275:17
	cmp	r4, r1
	bne	.LBB0_39
.Ltmp105:
@ %bb.42:
	@DEBUG_VALUE: AT_Notify:n <- $r2
	@DEBUG_VALUE: AT_Notify:conn_id <- $r1
	@DEBUG_VALUE: AT_Notify:event <- [DW_OP_LLVM_entry_value 1] $r0
	@DEBUG_VALUE: AT_Notify:n <- $r2
	.loc	2 0 17                          @ C:/Users/shw26/AppData/Local/Arm/Packs/ARM/CMSIS-Driver/2.6.1/WiFi/ESP8266/WiFi_ESP8266.c:0:17
	movs	r4, #5
.Ltmp106:
	.loc	2 277 31 is_stmt 1              @ C:/Users/shw26/AppData/Local/Arm/Packs/ARM/CMSIS-Driver/2.6.1/WiFi/ESP8266/WiFi_ESP8266.c:277:31
	strb	r4, [r3, r5]
.Ltmp107:
	.loc	2 0 0 is_stmt 0                 @ C:/Users/shw26/AppData/Local/Arm/Packs/ARM/CMSIS-Driver/2.6.1/WiFi/ESP8266/WiFi_ESP8266.c:0:0
	uxtb	r3, r2
.Ltmp108:
	.loc	2 278 15 is_stmt 1              @ C:/Users/shw26/AppData/Local/Arm/Packs/ARM/CMSIS-Driver/2.6.1/WiFi/ESP8266/WiFi_ESP8266.c:278:15
	subs	r4, r3, #5
	rsbs	r3, r4, #0
	adcs	r3, r4
	b	.LBB0_57
.Ltmp109:
.LBB0_43:
	@DEBUG_VALUE: AT_Notify:u32 <- $r4
	@DEBUG_VALUE: AT_Notify:arg <- $r4
	@DEBUG_VALUE: AT_Notify:addr <- $r1
	@DEBUG_VALUE: AT_Notify:event <- [DW_OP_LLVM_entry_value 1] $r0
	.loc	2 170 23                        @ C:/Users/shw26/AppData/Local/Arm/Packs/ARM/CMSIS-Driver/2.6.1/WiFi/ESP8266/WiFi_ESP8266.c:170:23
	ldr	r0, __arm_cp.0_3
	ldr	r0, [r0]
	.loc	2 170 13 is_stmt 0              @ C:/Users/shw26/AppData/Local/Arm/Packs/ARM/CMSIS-Driver/2.6.1/WiFi/ESP8266/WiFi_ESP8266.c:170:13
	bl	BufFlush
.Ltmp110:
	@DEBUG_VALUE: AT_Notify:len <- $r0
.LBB0_44:
	@DEBUG_VALUE: AT_Notify:u32 <- $r4
	@DEBUG_VALUE: AT_Notify:arg <- $r4
	@DEBUG_VALUE: AT_Notify:len <- $r0
	@DEBUG_VALUE: AT_Notify:event <- [DW_OP_LLVM_entry_value 1] $r0
	.loc	2 0 0                           @ C:/Users/shw26/AppData/Local/Arm/Packs/ARM/CMSIS-Driver/2.6.1/WiFi/ESP8266/WiFi_ESP8266.c:0:0
	str	r0, [sp]
.Ltmp111:
	@DEBUG_VALUE: AT_Notify:len <- $r0
	.loc	2 173 12 is_stmt 1              @ C:/Users/shw26/AppData/Local/Arm/Packs/ARM/CMSIS-Driver/2.6.1/WiFi/ESP8266/WiFi_ESP8266.c:173:12
	ldr	r1, __arm_cp.0_3
	ldr	r2, [r1]
	subs	r0, r2, r0
.Ltmp112:
	str	r0, [r1]
	.loc	2 176 10                        @ C:/Users/shw26/AppData/Local/Arm/Packs/ARM/CMSIS-Driver/2.6.1/WiFi/ESP8266/WiFi_ESP8266.c:176:10
	str	r0, [r4]
	beq	.LBB0_45
	b	.LBB0_83
.Ltmp113:
.LBB0_45:
	@DEBUG_VALUE: AT_Notify:u32 <- $r4
	@DEBUG_VALUE: AT_Notify:arg <- $r4
	@DEBUG_VALUE: AT_Notify:event <- [DW_OP_LLVM_entry_value 1] $r0
	.loc	2 0 0 is_stmt 0                 @ C:/Users/shw26/AppData/Local/Arm/Packs/ARM/CMSIS-Driver/2.6.1/WiFi/ESP8266/WiFi_ESP8266.c:0:0
	ldrb	r0, [r5]
	.loc	2 178 9 is_stmt 1               @ C:/Users/shw26/AppData/Local/Arm/Packs/ARM/CMSIS-Driver/2.6.1/WiFi/ESP8266/WiFi_ESP8266.c:178:9
	cmp	r0, #255
	bne	.LBB0_46
	b	.LBB0_83
.Ltmp114:
.LBB0_46:
	@DEBUG_VALUE: AT_Notify:u32 <- $r4
	@DEBUG_VALUE: AT_Notify:arg <- $r4
	@DEBUG_VALUE: AT_Notify:event <- [DW_OP_LLVM_entry_value 1] $r0
	.loc	2 0 9 is_stmt 0                 @ C:/Users/shw26/AppData/Local/Arm/Packs/ARM/CMSIS-Driver/2.6.1/WiFi/ESP8266/WiFi_ESP8266.c:0:9
	movs	r1, #16
	b	.LBB0_85
.Ltmp115:
.LBB0_47:
	@DEBUG_VALUE: AT_Notify:arg <- $r4
	@DEBUG_VALUE: AT_Notify:event <- $r0
	movs	r0, #112
.Ltmp116:
	@DEBUG_VALUE: AT_Notify:event <- [DW_OP_LLVM_entry_value 1] $r0
	.loc	2 393 24 is_stmt 1              @ C:/Users/shw26/AppData/Local/Arm/Packs/ARM/CMSIS-Driver/2.6.1/WiFi/ESP8266/WiFi_ESP8266.c:393:24
	ldr	r1, __arm_cp.0_0
	ldrh	r2, [r1, r0]
	adds	r2, r2, #1
.Ltmp117:
.LBB0_48:
	@DEBUG_VALUE: AT_Notify:arg <- $r4
	@DEBUG_VALUE: AT_Notify:event <- [DW_OP_LLVM_entry_value 1] $r0
	.loc	2 0 0 is_stmt 0                 @ C:/Users/shw26/AppData/Local/Arm/Packs/ARM/CMSIS-Driver/2.6.1/WiFi/ESP8266/WiFi_ESP8266.c:0:0
	strh	r2, [r1, r0]
.Ltmp118:
	.loc	2 401 1 is_stmt 1               @ C:/Users/shw26/AppData/Local/Arm/Packs/ARM/CMSIS-Driver/2.6.1/WiFi/ESP8266/WiFi_ESP8266.c:401:1
	add	sp, #20
	pop	{r4, r5, r6, r7, pc}
.Ltmp119:
.LBB0_49:
	@DEBUG_VALUE: AT_Notify:n <- $r5
	@DEBUG_VALUE: AT_Notify:u32 <- $r4
	@DEBUG_VALUE: AT_Notify:arg <- $r4
	@DEBUG_VALUE: AT_Notify:len <- [DW_OP_deref] $sp
	@DEBUG_VALUE: AT_Notify:event <- [DW_OP_LLVM_entry_value 1] $r0
	.loc	2 125 20                        @ C:/Users/shw26/AppData/Local/Arm/Packs/ARM/CMSIS-Driver/2.6.1/WiFi/ESP8266/WiFi_ESP8266.c:125:20
	mov	r5, r7
.Ltmp120:
.LBB0_50:
	@DEBUG_VALUE: AT_Notify:u32 <- $r4
	@DEBUG_VALUE: AT_Notify:arg <- $r4
	@DEBUG_VALUE: AT_Notify:len <- [DW_OP_deref] $sp
	@DEBUG_VALUE: AT_Notify:event <- [DW_OP_LLVM_entry_value 1] $r0
	@DEBUG_VALUE: AT_Notify:n <- $r7
	.loc	2 134 11                        @ C:/Users/shw26/AppData/Local/Arm/Packs/ARM/CMSIS-Driver/2.6.1/WiFi/ESP8266/WiFi_ESP8266.c:134:11
	cmp	r7, #5
	bne	.LBB0_51
	b	.LBB0_83
.Ltmp121:
.LBB0_51:
	@DEBUG_VALUE: AT_Notify:n <- $r7
	@DEBUG_VALUE: AT_Notify:u32 <- $r4
	@DEBUG_VALUE: AT_Notify:arg <- $r4
	@DEBUG_VALUE: AT_Notify:len <- [DW_OP_deref] $sp
	@DEBUG_VALUE: AT_Notify:event <- [DW_OP_LLVM_entry_value 1] $r0
	@DEBUG_VALUE: AT_Notify:sock <- undef
	.loc	2 0 11 is_stmt 0                @ C:/Users/shw26/AppData/Local/Arm/Packs/ARM/CMSIS-Driver/2.6.1/WiFi/ESP8266/WiFi_ESP8266.c:0:11
	movs	r0, #60
.Ltmp122:
	.loc	2 139 36 is_stmt 1              @ C:/Users/shw26/AppData/Local/Arm/Packs/ARM/CMSIS-Driver/2.6.1/WiFi/ESP8266/WiFi_ESP8266.c:139:36
	muls	r0, r5, r0
	ldr	r1, __arm_cp.0_1
	adds	r5, r1, r0
	.loc	2 139 18 is_stmt 0              @ C:/Users/shw26/AppData/Local/Arm/Packs/ARM/CMSIS-Driver/2.6.1/WiFi/ESP8266/WiFi_ESP8266.c:139:18
	mov	r0, r5
	bl	BufGetFree
	.loc	2 139 16                        @ C:/Users/shw26/AppData/Local/Arm/Packs/ARM/CMSIS-Driver/2.6.1/WiFi/ESP8266/WiFi_ESP8266.c:139:16
	str	r0, [r6]
.Ltmp123:
	.loc	2 141 24 is_stmt 1              @ C:/Users/shw26/AppData/Local/Arm/Packs/ARM/CMSIS-Driver/2.6.1/WiFi/ESP8266/WiFi_ESP8266.c:141:24
	ldr	r1, [sp]
.Ltmp124:
	@DEBUG_VALUE: AT_Notify:len <- $r1
	.loc	2 141 28 is_stmt 0              @ C:/Users/shw26/AppData/Local/Arm/Packs/ARM/CMSIS-Driver/2.6.1/WiFi/ESP8266/WiFi_ESP8266.c:141:28
	adds	r1, r1, #2
.Ltmp125:
	.loc	2 141 13                        @ C:/Users/shw26/AppData/Local/Arm/Packs/ARM/CMSIS-Driver/2.6.1/WiFi/ESP8266/WiFi_ESP8266.c:141:13
	cmp	r0, r1
	blo	.LBB0_53
.Ltmp126:
@ %bb.52:
	@DEBUG_VALUE: AT_Notify:n <- $r7
	@DEBUG_VALUE: AT_Notify:u32 <- $r4
	@DEBUG_VALUE: AT_Notify:arg <- $r4
	@DEBUG_VALUE: AT_Notify:event <- [DW_OP_LLVM_entry_value 1] $r0
	.loc	2 143 19 is_stmt 1              @ C:/Users/shw26/AppData/Local/Arm/Packs/ARM/CMSIS-Driver/2.6.1/WiFi/ESP8266/WiFi_ESP8266.c:143:19
	ldr	r0, __arm_cp.0_2
	strb	r7, [r0]
.Ltmp127:
	@DEBUG_VALUE: AT_Notify:len <- [DW_OP_deref] $sp
	.loc	2 0 19 is_stmt 0                @ C:/Users/shw26/AppData/Local/Arm/Packs/ARM/CMSIS-Driver/2.6.1/WiFi/ESP8266/WiFi_ESP8266.c:0:19
	mov	r0, sp
	movs	r1, #2
	.loc	2 146 11 is_stmt 1              @ C:/Users/shw26/AppData/Local/Arm/Packs/ARM/CMSIS-Driver/2.6.1/WiFi/ESP8266/WiFi_ESP8266.c:146:11
	mov	r2, r5
	bl	BufWrite
	.loc	2 149 18                        @ C:/Users/shw26/AppData/Local/Arm/Packs/ARM/CMSIS-Driver/2.6.1/WiFi/ESP8266/WiFi_ESP8266.c:149:18
	ldr	r0, [sp]
.Ltmp128:
	@DEBUG_VALUE: AT_Notify:len <- $r0
	.loc	2 149 16 is_stmt 0              @ C:/Users/shw26/AppData/Local/Arm/Packs/ARM/CMSIS-Driver/2.6.1/WiFi/ESP8266/WiFi_ESP8266.c:149:16
	str	r0, [r4]
.Ltmp129:
.LBB0_53:
	@DEBUG_VALUE: AT_Notify:n <- $r7
	@DEBUG_VALUE: AT_Notify:u32 <- $r4
	@DEBUG_VALUE: AT_Notify:arg <- $r4
	@DEBUG_VALUE: AT_Notify:event <- [DW_OP_LLVM_entry_value 1] $r0
	.loc	2 153 18 is_stmt 1              @ C:/Users/shw26/AppData/Local/Arm/Packs/ARM/CMSIS-Driver/2.6.1/WiFi/ESP8266/WiFi_ESP8266.c:153:18
	ldr	r0, [sp]
.Ltmp130:
	@DEBUG_VALUE: AT_Notify:len <- $r0
	.loc	2 153 16 is_stmt 0              @ C:/Users/shw26/AppData/Local/Arm/Packs/ARM/CMSIS-Driver/2.6.1/WiFi/ESP8266/WiFi_ESP8266.c:153:16
	str	r0, [r6]
.Ltmp131:
	.loc	2 401 1 is_stmt 1               @ C:/Users/shw26/AppData/Local/Arm/Packs/ARM/CMSIS-Driver/2.6.1/WiFi/ESP8266/WiFi_ESP8266.c:401:1
	add	sp, #20
	pop	{r4, r5, r6, r7, pc}
.Ltmp132:
.LBB0_54:
	@DEBUG_VALUE: AT_Notify:conn_id <- $r4
	@DEBUG_VALUE: AT_Notify:n <- $r2
	@DEBUG_VALUE: AT_Notify:arg <- [DW_OP_LLVM_entry_value 1] $r1
	@DEBUG_VALUE: AT_Notify:event <- [DW_OP_LLVM_entry_value 1] $r0
	@DEBUG_VALUE: AT_Notify:n <- $r2
	.loc	2 0 1 is_stmt 0                 @ C:/Users/shw26/AppData/Local/Arm/Packs/ARM/CMSIS-Driver/2.6.1/WiFi/ESP8266/WiFi_ESP8266.c:0:1
	movs	r3, #5
.Ltmp133:
	.loc	2 331 29 is_stmt 1              @ C:/Users/shw26/AppData/Local/Arm/Packs/ARM/CMSIS-Driver/2.6.1/WiFi/ESP8266/WiFi_ESP8266.c:331:29
	str	r3, [r1, #4]
.Ltmp134:
	.loc	2 333 25                        @ C:/Users/shw26/AppData/Local/Arm/Packs/ARM/CMSIS-Driver/2.6.1/WiFi/ESP8266/WiFi_ESP8266.c:333:25
	ldrb	r3, [r1, #3]
.Ltmp135:
	.loc	2 333 15 is_stmt 0              @ C:/Users/shw26/AppData/Local/Arm/Packs/ARM/CMSIS-Driver/2.6.1/WiFi/ESP8266/WiFi_ESP8266.c:333:15
	cmp	r3, #255
	beq	.LBB0_68
.Ltmp136:
@ %bb.55:
	@DEBUG_VALUE: AT_Notify:conn_id <- $r4
	@DEBUG_VALUE: AT_Notify:n <- $r2
	@DEBUG_VALUE: AT_Notify:arg <- [DW_OP_LLVM_entry_value 1] $r1
	@DEBUG_VALUE: AT_Notify:event <- [DW_OP_LLVM_entry_value 1] $r0
	.loc	2 0 15                          @ C:/Users/shw26/AppData/Local/Arm/Packs/ARM/CMSIS-Driver/2.6.1/WiFi/ESP8266/WiFi_ESP8266.c:0:15
	movs	r3, #3
	b	.LBB0_81
.Ltmp137:
.LBB0_56:
	@DEBUG_VALUE: AT_Notify:n <- $r2
	@DEBUG_VALUE: AT_Notify:conn_id <- $r1
	@DEBUG_VALUE: AT_Notify:event <- [DW_OP_LLVM_entry_value 1] $r0
	movs	r2, #5
.Ltmp138:
	movs	r3, #1
.Ltmp139:
.LBB0_57:
	@DEBUG_VALUE: AT_Notify:conn_id <- $r1
	@DEBUG_VALUE: AT_Notify:event <- [DW_OP_LLVM_entry_value 1] $r0
	.loc	2 283 13 is_stmt 1              @ C:/Users/shw26/AppData/Local/Arm/Packs/ARM/CMSIS-Driver/2.6.1/WiFi/ESP8266/WiFi_ESP8266.c:283:13
	cbz	r3, .LBB0_67
.Ltmp140:
@ %bb.58:
	@DEBUG_VALUE: AT_Notify:conn_id <- $r1
	@DEBUG_VALUE: AT_Notify:event <- [DW_OP_LLVM_entry_value 1] $r0
	.loc	2 0 13 is_stmt 0                @ C:/Users/shw26/AppData/Local/Arm/Packs/ARM/CMSIS-Driver/2.6.1/WiFi/ESP8266/WiFi_ESP8266.c:0:13
	movs	r2, #0
	movs	r3, #60
	movs	r5, #36
	movs	r7, #5
.Ltmp141:
.LBB0_59:                               @ =>This Inner Loop Header: Depth=1
	@DEBUG_VALUE: AT_Notify:conn_id <- $r1
	@DEBUG_VALUE: AT_Notify:event <- [DW_OP_LLVM_entry_value 1] $r0
	@DEBUG_VALUE: AT_Notify:n <- $r2
	.loc	2 290 27 is_stmt 1              @ C:/Users/shw26/AppData/Local/Arm/Packs/ARM/CMSIS-Driver/2.6.1/WiFi/ESP8266/WiFi_ESP8266.c:290:27
	mov	r4, r3
	muls	r4, r2, r4
	ldr	r0, __arm_cp.0_1
	adds	r6, r0, r4
	ldrb	r4, [r6, r5]
.Ltmp142:
	.loc	2 290 17 is_stmt 0              @ C:/Users/shw26/AppData/Local/Arm/Packs/ARM/CMSIS-Driver/2.6.1/WiFi/ESP8266/WiFi_ESP8266.c:290:17
	cmp	r4, #8
	beq	.LBB0_77
.Ltmp143:
@ %bb.60:                               @   in Loop: Header=BB0_59 Depth=1
	@DEBUG_VALUE: AT_Notify:n <- $r2
	@DEBUG_VALUE: AT_Notify:conn_id <- $r1
	@DEBUG_VALUE: AT_Notify:event <- [DW_OP_LLVM_entry_value 1] $r0
	.loc	2 289 46 is_stmt 1              @ C:/Users/shw26/AppData/Local/Arm/Packs/ARM/CMSIS-Driver/2.6.1/WiFi/ESP8266/WiFi_ESP8266.c:289:46
	adds	r0, r2, #1
.Ltmp144:
	@DEBUG_VALUE: AT_Notify:n <- $r0
	.loc	2 289 11 is_stmt 0              @ C:/Users/shw26/AppData/Local/Arm/Packs/ARM/CMSIS-Driver/2.6.1/WiFi/ESP8266/WiFi_ESP8266.c:289:11
	cmp	r2, #4
	mov	r2, r0
.Ltmp145:
	@DEBUG_VALUE: AT_Notify:n <- $r2
	blo	.LBB0_59
.Ltmp146:
@ %bb.61:
	@DEBUG_VALUE: AT_Notify:n <- $r2
	@DEBUG_VALUE: AT_Notify:conn_id <- $r1
	@DEBUG_VALUE: AT_Notify:event <- [DW_OP_LLVM_entry_value 1] $r0
	.loc	2 0 0                           @ C:/Users/shw26/AppData/Local/Arm/Packs/ARM/CMSIS-Driver/2.6.1/WiFi/ESP8266/WiFi_ESP8266.c:0:0
	mov	r2, r7
.Ltmp147:
	b	.LBB0_90
.Ltmp148:
.LBB0_62:
	@DEBUG_VALUE: AT_Notify:stat <- [DW_OP_plus_uconst 16, DW_OP_deref] $r4
	@DEBUG_VALUE: AT_Notify:arg <- [DW_OP_LLVM_entry_value 1] $r1
	@DEBUG_VALUE: AT_Notify:event <- [DW_OP_LLVM_entry_value 1] $r0
	@DEBUG_VALUE: AT_Notify:n <- 0
	ldr	r1, __arm_cp.0_1
	adds	r1, #52
	mov	r0, sp
.Ltmp149:
	ldrb	r2, [r0]
	movs	r0, #3
	mvns	r3, r0
	movs	r0, #0
	lsls	r5, r3, #2
	b	.LBB0_64
.Ltmp150:
.LBB0_63:                               @   in Loop: Header=BB0_64 Depth=1
	@DEBUG_VALUE: AT_Notify:n <- $r0
	@DEBUG_VALUE: AT_Notify:arg <- [DW_OP_LLVM_entry_value 1] $r1
	@DEBUG_VALUE: AT_Notify:event <- [DW_OP_LLVM_entry_value 1] $r0
	.loc	2 237 26 is_stmt 1              @ C:/Users/shw26/AppData/Local/Arm/Packs/ARM/CMSIS-Driver/2.6.1/WiFi/ESP8266/WiFi_ESP8266.c:237:26
	adds	r1, #60
	.loc	2 237 46 is_stmt 0              @ C:/Users/shw26/AppData/Local/Arm/Packs/ARM/CMSIS-Driver/2.6.1/WiFi/ESP8266/WiFi_ESP8266.c:237:46
	adds	r0, r0, #1
.Ltmp151:
	@DEBUG_VALUE: AT_Notify:n <- $r0
	.loc	2 237 11                        @ C:/Users/shw26/AppData/Local/Arm/Packs/ARM/CMSIS-Driver/2.6.1/WiFi/ESP8266/WiFi_ESP8266.c:237:11
	cmp	r0, #5
	beq	.LBB0_70
.Ltmp152:
.LBB0_64:                               @ =>This Inner Loop Header: Depth=1
	@DEBUG_VALUE: AT_Notify:arg <- [DW_OP_LLVM_entry_value 1] $r1
	@DEBUG_VALUE: AT_Notify:event <- [DW_OP_LLVM_entry_value 1] $r0
	@DEBUG_VALUE: AT_Notify:n <- $r0
	.loc	2 238 27 is_stmt 1              @ C:/Users/shw26/AppData/Local/Arm/Packs/ARM/CMSIS-Driver/2.6.1/WiFi/ESP8266/WiFi_ESP8266.c:238:27
	adds	r6, r3, r1
	subs	r6, #12
	ldrb	r4, [r6]
.Ltmp153:
	.loc	2 238 17 is_stmt 0              @ C:/Users/shw26/AppData/Local/Arm/Packs/ARM/CMSIS-Driver/2.6.1/WiFi/ESP8266/WiFi_ESP8266.c:238:17
	cmp	r4, #4
	bne	.LBB0_63
.Ltmp154:
@ %bb.65:                               @   in Loop: Header=BB0_64 Depth=1
	@DEBUG_VALUE: AT_Notify:n <- $r0
	@DEBUG_VALUE: AT_Notify:arg <- [DW_OP_LLVM_entry_value 1] $r1
	@DEBUG_VALUE: AT_Notify:event <- [DW_OP_LLVM_entry_value 1] $r0
	.loc	2 240 29 is_stmt 1              @ C:/Users/shw26/AppData/Local/Arm/Packs/ARM/CMSIS-Driver/2.6.1/WiFi/ESP8266/WiFi_ESP8266.c:240:29
	adds	r4, r5, r1
	ldr	r4, [r4, #4]
.Ltmp155:
	.loc	2 240 19 is_stmt 0              @ C:/Users/shw26/AppData/Local/Arm/Packs/ARM/CMSIS-Driver/2.6.1/WiFi/ESP8266/WiFi_ESP8266.c:240:19
	cmp	r4, r2
	bne	.LBB0_63
.Ltmp156:
@ %bb.66:
	@DEBUG_VALUE: AT_Notify:n <- $r0
	@DEBUG_VALUE: AT_Notify:arg <- [DW_OP_LLVM_entry_value 1] $r1
	@DEBUG_VALUE: AT_Notify:event <- [DW_OP_LLVM_entry_value 1] $r0
	@DEBUG_VALUE: AT_Notify:n <- $r0
	.loc	2 242 34 is_stmt 1              @ C:/Users/shw26/AppData/Local/Arm/Packs/ARM/CMSIS-Driver/2.6.1/WiFi/ESP8266/WiFi_ESP8266.c:242:34
	lsls	r2, r3, #1
	adds	r2, r2, r1
	.loc	2 242 41 is_stmt 0              @ C:/Users/shw26/AppData/Local/Arm/Packs/ARM/CMSIS-Driver/2.6.1/WiFi/ESP8266/WiFi_ESP8266.c:242:41
	ldr	r3, [sp, #12]
	.loc	2 242 34                        @ C:/Users/shw26/AppData/Local/Arm/Packs/ARM/CMSIS-Driver/2.6.1/WiFi/ESP8266/WiFi_ESP8266.c:242:34
	strh	r3, [r2, #6]
	mov	r3, sp
	.loc	2 243 41 is_stmt 1              @ C:/Users/shw26/AppData/Local/Arm/Packs/ARM/CMSIS-Driver/2.6.1/WiFi/ESP8266/WiFi_ESP8266.c:243:41
	ldrh	r4, [r3, #10]
	.loc	2 243 34 is_stmt 0              @ C:/Users/shw26/AppData/Local/Arm/Packs/ARM/CMSIS-Driver/2.6.1/WiFi/ESP8266/WiFi_ESP8266.c:243:34
	strh	r4, [r2, #4]
	.loc	2 246 17 is_stmt 1              @ C:/Users/shw26/AppData/Local/Arm/Packs/ARM/CMSIS-Driver/2.6.1/WiFi/ESP8266/WiFi_ESP8266.c:246:17
	ldrh	r2, [r3, #6]
	ldrh	r3, [r3, #8]
	lsls	r3, r3, #16
	adds	r2, r3, r2
	str	r2, [r1]
	movs	r1, #5
	.loc	2 249 33                        @ C:/Users/shw26/AppData/Local/Arm/Packs/ARM/CMSIS-Driver/2.6.1/WiFi/ESP8266/WiFi_ESP8266.c:249:33
	strb	r1, [r6]
.Ltmp157:
	.loc	2 0 0 is_stmt 0                 @ C:/Users/shw26/AppData/Local/Arm/Packs/ARM/CMSIS-Driver/2.6.1/WiFi/ESP8266/WiFi_ESP8266.c:0:0
	uxtb	r1, r0
.Ltmp158:
	.loc	2 250 17 is_stmt 1              @ C:/Users/shw26/AppData/Local/Arm/Packs/ARM/CMSIS-Driver/2.6.1/WiFi/ESP8266/WiFi_ESP8266.c:250:17
	subs	r2, r1, #5
	rsbs	r1, r2, #0
	adcs	r1, r2
	b	.LBB0_71
.Ltmp159:
.LBB0_67:
	@DEBUG_VALUE: AT_Notify:conn_id <- $r1
	@DEBUG_VALUE: AT_Notify:event <- [DW_OP_LLVM_entry_value 1] $r0
	.loc	2 0 17 is_stmt 0                @ C:/Users/shw26/AppData/Local/Arm/Packs/ARM/CMSIS-Driver/2.6.1/WiFi/ESP8266/WiFi_ESP8266.c:0:17
	movw	r1, #512
.Ltmp160:
	.loc	2 285 47 is_stmt 1              @ C:/Users/shw26/AppData/Local/Arm/Packs/ARM/CMSIS-Driver/2.6.1/WiFi/ESP8266/WiFi_ESP8266.c:285:47
	lsls	r1, r2
	b	.LBB0_73
.Ltmp161:
.LBB0_68:
	@DEBUG_VALUE: AT_Notify:conn_id <- $r4
	@DEBUG_VALUE: AT_Notify:n <- $r2
	@DEBUG_VALUE: AT_Notify:arg <- [DW_OP_LLVM_entry_value 1] $r1
	@DEBUG_VALUE: AT_Notify:event <- [DW_OP_LLVM_entry_value 1] $r0
	.loc	2 335 27                        @ C:/Users/shw26/AppData/Local/Arm/Packs/ARM/CMSIS-Driver/2.6.1/WiFi/ESP8266/WiFi_ESP8266.c:335:27
	ldrb	r3, [r1]
	cmp	r3, #6
	beq	.LBB0_80
.Ltmp162:
@ %bb.69:
	@DEBUG_VALUE: AT_Notify:conn_id <- $r4
	@DEBUG_VALUE: AT_Notify:n <- $r2
	@DEBUG_VALUE: AT_Notify:arg <- [DW_OP_LLVM_entry_value 1] $r1
	@DEBUG_VALUE: AT_Notify:event <- [DW_OP_LLVM_entry_value 1] $r0
	.loc	2 0 27 is_stmt 0                @ C:/Users/shw26/AppData/Local/Arm/Packs/ARM/CMSIS-Driver/2.6.1/WiFi/ESP8266/WiFi_ESP8266.c:0:27
	movs	r3, #7
	b	.LBB0_81
.Ltmp163:
.LBB0_70:
	@DEBUG_VALUE: AT_Notify:n <- $r0
	@DEBUG_VALUE: AT_Notify:arg <- [DW_OP_LLVM_entry_value 1] $r1
	@DEBUG_VALUE: AT_Notify:event <- [DW_OP_LLVM_entry_value 1] $r0
	movs	r0, #5
.Ltmp164:
	movs	r1, #1
.Ltmp165:
.LBB0_71:
	@DEBUG_VALUE: AT_Notify:arg <- [DW_OP_LLVM_entry_value 1] $r1
	@DEBUG_VALUE: AT_Notify:event <- [DW_OP_LLVM_entry_value 1] $r0
	.loc	2 255 15 is_stmt 1              @ C:/Users/shw26/AppData/Local/Arm/Packs/ARM/CMSIS-Driver/2.6.1/WiFi/ESP8266/WiFi_ESP8266.c:255:15
	cbnz	r1, .LBB0_83
.Ltmp166:
@ %bb.72:
	@DEBUG_VALUE: AT_Notify:arg <- [DW_OP_LLVM_entry_value 1] $r1
	@DEBUG_VALUE: AT_Notify:event <- [DW_OP_LLVM_entry_value 1] $r0
	.loc	2 0 15 is_stmt 0                @ C:/Users/shw26/AppData/Local/Arm/Packs/ARM/CMSIS-Driver/2.6.1/WiFi/ESP8266/WiFi_ESP8266.c:0:15
	movw	r1, #512
.Ltmp167:
	.loc	2 257 49 is_stmt 1              @ C:/Users/shw26/AppData/Local/Arm/Packs/ARM/CMSIS-Driver/2.6.1/WiFi/ESP8266/WiFi_ESP8266.c:257:49
	lsls	r1, r0
.Ltmp168:
.LBB0_73:
	@DEBUG_VALUE: AT_Notify:event <- [DW_OP_LLVM_entry_value 1] $r0
	.loc	2 0 0 is_stmt 0                 @ C:/Users/shw26/AppData/Local/Arm/Packs/ARM/CMSIS-Driver/2.6.1/WiFi/ESP8266/WiFi_ESP8266.c:0:0
	ldr	r0, [r7, #8]
	b	.LBB0_86
.Ltmp169:
.LBB0_74:
	@DEBUG_VALUE: AT_Notify:n <- $r0
	@DEBUG_VALUE: AT_Notify:arg <- [DW_OP_LLVM_entry_value 1] $r1
	@DEBUG_VALUE: AT_Notify:event <- [DW_OP_LLVM_entry_value 1] $r0
	@DEBUG_VALUE: AT_Notify:n <- $r0
	adds	r5, #39
	movs	r6, #39
.Ltmp170:
.LBB0_75:                               @ =>This Inner Loop Header: Depth=1
	@DEBUG_VALUE: AT_Notify:arg <- [DW_OP_LLVM_entry_value 1] $r1
	@DEBUG_VALUE: AT_Notify:event <- [DW_OP_LLVM_entry_value 1] $r0
	@DEBUG_VALUE: AT_Notify:n <- $r0
	.loc	2 209 31 is_stmt 1              @ C:/Users/shw26/AppData/Local/Arm/Packs/ARM/CMSIS-Driver/2.6.1/WiFi/ESP8266/WiFi_ESP8266.c:209:31
	muls	r0, r1, r0
.Ltmp171:
	adds	r0, r2, r0
	ldrb	r0, [r0, r6]
.Ltmp172:
	.loc	2 211 31                        @ C:/Users/shw26/AppData/Local/Arm/Packs/ARM/CMSIS-Driver/2.6.1/WiFi/ESP8266/WiFi_ESP8266.c:211:31
	mov	r4, r1
	muls	r4, r0, r4
	adds	r7, r2, r4
	ldrb	r4, [r7, r3]
.Ltmp173:
	@DEBUG_VALUE: AT_Notify:n <- undef
	.loc	2 211 21 is_stmt 0              @ C:/Users/shw26/AppData/Local/Arm/Packs/ARM/CMSIS-Driver/2.6.1/WiFi/ESP8266/WiFi_ESP8266.c:211:21
	cmp	r4, #3
	beq	.LBB0_87
.Ltmp174:
@ %bb.76:                               @   in Loop: Header=BB0_75 Depth=1
	@DEBUG_VALUE: AT_Notify:arg <- [DW_OP_LLVM_entry_value 1] $r1
	@DEBUG_VALUE: AT_Notify:event <- [DW_OP_LLVM_entry_value 1] $r0
	.loc	2 224 32 is_stmt 1              @ C:/Users/shw26/AppData/Local/Arm/Packs/ARM/CMSIS-Driver/2.6.1/WiFi/ESP8266/WiFi_ESP8266.c:224:32
	ldrb	r4, [r7, r6]
	.loc	2 224 49 is_stmt 0              @ C:/Users/shw26/AppData/Local/Arm/Packs/ARM/CMSIS-Driver/2.6.1/WiFi/ESP8266/WiFi_ESP8266.c:224:49
	ldrb	r7, [r5]
.Ltmp175:
	.loc	2 223 15 is_stmt 1              @ C:/Users/shw26/AppData/Local/Arm/Packs/ARM/CMSIS-Driver/2.6.1/WiFi/ESP8266/WiFi_ESP8266.c:223:15
	cmp	r4, r7
	bne	.LBB0_75
	b	.LBB0_88
.Ltmp176:
.LBB0_77:
	@DEBUG_VALUE: AT_Notify:n <- $r2
	@DEBUG_VALUE: AT_Notify:conn_id <- $r1
	@DEBUG_VALUE: AT_Notify:event <- [DW_OP_LLVM_entry_value 1] $r0
	@DEBUG_VALUE: AT_Notify:n <- $r2
	.loc	2 0 0 is_stmt 0                 @ C:/Users/shw26/AppData/Local/Arm/Packs/ARM/CMSIS-Driver/2.6.1/WiFi/ESP8266/WiFi_ESP8266.c:0:0
	adds	r6, #39
	movs	r7, #39
.Ltmp177:
.LBB0_78:                               @ =>This Inner Loop Header: Depth=1
	@DEBUG_VALUE: AT_Notify:conn_id <- $r1
	@DEBUG_VALUE: AT_Notify:event <- [DW_OP_LLVM_entry_value 1] $r0
	@DEBUG_VALUE: AT_Notify:n <- $r2
	.loc	2 296 31 is_stmt 1              @ C:/Users/shw26/AppData/Local/Arm/Packs/ARM/CMSIS-Driver/2.6.1/WiFi/ESP8266/WiFi_ESP8266.c:296:31
	muls	r2, r3, r2
.Ltmp178:
	.loc	2 0 31 is_stmt 0                @ C:/Users/shw26/AppData/Local/Arm/Packs/ARM/CMSIS-Driver/2.6.1/WiFi/ESP8266/WiFi_ESP8266.c:0:31
	ldr	r0, __arm_cp.0_1
	.loc	2 296 31                        @ C:/Users/shw26/AppData/Local/Arm/Packs/ARM/CMSIS-Driver/2.6.1/WiFi/ESP8266/WiFi_ESP8266.c:296:31
	adds	r2, r0, r2
	ldrb	r2, [r2, r7]
.Ltmp179:
	.loc	2 298 31 is_stmt 1              @ C:/Users/shw26/AppData/Local/Arm/Packs/ARM/CMSIS-Driver/2.6.1/WiFi/ESP8266/WiFi_ESP8266.c:298:31
	mov	r4, r3
	muls	r4, r2, r4
	adds	r4, r0, r4
	ldrb	r0, [r4, r5]
.Ltmp180:
	@DEBUG_VALUE: AT_Notify:n <- undef
	.loc	2 298 21 is_stmt 0              @ C:/Users/shw26/AppData/Local/Arm/Packs/ARM/CMSIS-Driver/2.6.1/WiFi/ESP8266/WiFi_ESP8266.c:298:21
	cmp	r0, #3
	beq	.LBB0_89
.Ltmp181:
@ %bb.79:                               @   in Loop: Header=BB0_78 Depth=1
	@DEBUG_VALUE: AT_Notify:conn_id <- $r1
	@DEBUG_VALUE: AT_Notify:event <- [DW_OP_LLVM_entry_value 1] $r0
	.loc	2 305 32 is_stmt 1              @ C:/Users/shw26/AppData/Local/Arm/Packs/ARM/CMSIS-Driver/2.6.1/WiFi/ESP8266/WiFi_ESP8266.c:305:32
	ldrb	r0, [r4, r7]
	.loc	2 305 49 is_stmt 0              @ C:/Users/shw26/AppData/Local/Arm/Packs/ARM/CMSIS-Driver/2.6.1/WiFi/ESP8266/WiFi_ESP8266.c:305:49
	ldrb	r4, [r6]
.Ltmp182:
	.loc	2 304 15 is_stmt 1              @ C:/Users/shw26/AppData/Local/Arm/Packs/ARM/CMSIS-Driver/2.6.1/WiFi/ESP8266/WiFi_ESP8266.c:304:15
	cmp	r0, r4
	bne	.LBB0_78
	b	.LBB0_90
.Ltmp183:
.LBB0_80:
	@DEBUG_VALUE: AT_Notify:conn_id <- $r4
	@DEBUG_VALUE: AT_Notify:n <- $r2
	@DEBUG_VALUE: AT_Notify:arg <- [DW_OP_LLVM_entry_value 1] $r1
	@DEBUG_VALUE: AT_Notify:event <- [DW_OP_LLVM_entry_value 1] $r0
	.loc	2 0 15 is_stmt 0                @ C:/Users/shw26/AppData/Local/Arm/Packs/ARM/CMSIS-Driver/2.6.1/WiFi/ESP8266/WiFi_ESP8266.c:0:15
	movs	r3, #0
.Ltmp184:
.LBB0_81:
	@DEBUG_VALUE: AT_Notify:conn_id <- $r4
	@DEBUG_VALUE: AT_Notify:n <- $r2
	@DEBUG_VALUE: AT_Notify:arg <- [DW_OP_LLVM_entry_value 1] $r1
	@DEBUG_VALUE: AT_Notify:event <- [DW_OP_LLVM_entry_value 1] $r0
	strb	r3, [r1]
.Ltmp185:
.LBB0_82:
	@DEBUG_VALUE: AT_Notify:conn_id <- $r4
	@DEBUG_VALUE: AT_Notify:arg <- [DW_OP_LLVM_entry_value 1] $r1
	@DEBUG_VALUE: AT_Notify:event <- [DW_OP_LLVM_entry_value 1] $r0
	.loc	2 350 11 is_stmt 1              @ C:/Users/shw26/AppData/Local/Arm/Packs/ARM/CMSIS-Driver/2.6.1/WiFi/ESP8266/WiFi_ESP8266.c:350:11
	cmp	r2, #5
	bne	.LBB0_84
.Ltmp186:
.LBB0_83:
	.loc	2 401 1                         @ C:/Users/shw26/AppData/Local/Arm/Packs/ARM/CMSIS-Driver/2.6.1/WiFi/ESP8266/WiFi_ESP8266.c:401:1
	add	sp, #20
	pop	{r4, r5, r6, r7, pc}
.LBB0_84:
.Ltmp187:
	@DEBUG_VALUE: AT_Notify:conn_id <- $r4
	@DEBUG_VALUE: AT_Notify:arg <- [DW_OP_LLVM_entry_value 1] $r1
	@DEBUG_VALUE: AT_Notify:event <- [DW_OP_LLVM_entry_value 1] $r0
	.loc	2 0 1 is_stmt 0                 @ C:/Users/shw26/AppData/Local/Arm/Packs/ARM/CMSIS-Driver/2.6.1/WiFi/ESP8266/WiFi_ESP8266.c:0:1
	movw	r1, #16384
.Ltmp188:
.LBB0_85:
	@DEBUG_VALUE: AT_Notify:event <- [DW_OP_LLVM_entry_value 1] $r0
	lsls	r1, r0
	ldr	r0, __arm_cp.0_0
	ldr	r0, [r0, #8]
.Ltmp189:
.LBB0_86:
	@DEBUG_VALUE: AT_Notify:event <- [DW_OP_LLVM_entry_value 1] $r0
	bl	osEventFlagsSet
.Ltmp190:
	.loc	2 401 1                         @ C:/Users/shw26/AppData/Local/Arm/Packs/ARM/CMSIS-Driver/2.6.1/WiFi/ESP8266/WiFi_ESP8266.c:401:1
	add	sp, #20
	pop	{r4, r5, r6, r7, pc}
.Ltmp191:
.LBB0_87:
	@DEBUG_VALUE: AT_Notify:arg <- [DW_OP_LLVM_entry_value 1] $r1
	@DEBUG_VALUE: AT_Notify:event <- [DW_OP_LLVM_entry_value 1] $r0
	.loc	2 0 1                           @ C:/Users/shw26/AppData/Local/Arm/Packs/ARM/CMSIS-Driver/2.6.1/WiFi/ESP8266/WiFi_ESP8266.c:0:1
	mov	r1, r7
	adds	r1, #36
	mov	r2, sp
.Ltmp192:
	.loc	2 213 44 is_stmt 1              @ C:/Users/shw26/AppData/Local/Arm/Packs/ARM/CMSIS-Driver/2.6.1/WiFi/ESP8266/WiFi_ESP8266.c:213:44
	ldrb	r3, [r2]
	.loc	2 213 37 is_stmt 0              @ C:/Users/shw26/AppData/Local/Arm/Packs/ARM/CMSIS-Driver/2.6.1/WiFi/ESP8266/WiFi_ESP8266.c:213:37
	str	r3, [r7, #40]
	.loc	2 217 43 is_stmt 1              @ C:/Users/shw26/AppData/Local/Arm/Packs/ARM/CMSIS-Driver/2.6.1/WiFi/ESP8266/WiFi_ESP8266.c:217:43
	ldr	r3, [sp, #12]
	.loc	2 217 36 is_stmt 0              @ C:/Users/shw26/AppData/Local/Arm/Packs/ARM/CMSIS-Driver/2.6.1/WiFi/ESP8266/WiFi_ESP8266.c:217:36
	strh	r3, [r7, #50]
	.loc	2 218 43 is_stmt 1              @ C:/Users/shw26/AppData/Local/Arm/Packs/ARM/CMSIS-Driver/2.6.1/WiFi/ESP8266/WiFi_ESP8266.c:218:43
	ldrh	r3, [r2, #10]
	.loc	2 218 36 is_stmt 0              @ C:/Users/shw26/AppData/Local/Arm/Packs/ARM/CMSIS-Driver/2.6.1/WiFi/ESP8266/WiFi_ESP8266.c:218:36
	strh	r3, [r7, #48]
	movs	r3, #5
	.loc	2 214 37 is_stmt 1              @ C:/Users/shw26/AppData/Local/Arm/Packs/ARM/CMSIS-Driver/2.6.1/WiFi/ESP8266/WiFi_ESP8266.c:214:37
	strb	r3, [r1]
	.loc	2 220 19                        @ C:/Users/shw26/AppData/Local/Arm/Packs/ARM/CMSIS-Driver/2.6.1/WiFi/ESP8266/WiFi_ESP8266.c:220:19
	ldrh	r1, [r2, #6]
	ldrh	r2, [r2, #8]
	lsls	r2, r2, #16
	adds	r1, r2, r1
	str	r1, [r7, #52]
.Ltmp193:
.LBB0_88:
	@DEBUG_VALUE: AT_Notify:arg <- [DW_OP_LLVM_entry_value 1] $r1
	@DEBUG_VALUE: AT_Notify:event <- [DW_OP_LLVM_entry_value 1] $r0
	@DEBUG_VALUE: AT_Notify:n <- $r0
	.loc	2 230 15                        @ C:/Users/shw26/AppData/Local/Arm/Packs/ARM/CMSIS-Driver/2.6.1/WiFi/ESP8266/WiFi_ESP8266.c:230:15
	cmp	r0, #5
	ldr	r0, __arm_cp.0_0
.Ltmp194:
	beq	.LBB0_83
	b	.LBB0_91
.Ltmp195:
.LBB0_89:
	@DEBUG_VALUE: AT_Notify:conn_id <- $r1
	@DEBUG_VALUE: AT_Notify:event <- [DW_OP_LLVM_entry_value 1] $r0
	.loc	2 300 37                        @ C:/Users/shw26/AppData/Local/Arm/Packs/ARM/CMSIS-Driver/2.6.1/WiFi/ESP8266/WiFi_ESP8266.c:300:37
	str	r1, [r4, #40]
.Ltmp196:
	.loc	2 0 0 is_stmt 0                 @ C:/Users/shw26/AppData/Local/Arm/Packs/ARM/CMSIS-Driver/2.6.1/WiFi/ESP8266/WiFi_ESP8266.c:0:0
	adds	r4, #36
	movs	r0, #5
.Ltmp197:
	.loc	2 301 37 is_stmt 1              @ C:/Users/shw26/AppData/Local/Arm/Packs/ARM/CMSIS-Driver/2.6.1/WiFi/ESP8266/WiFi_ESP8266.c:301:37
	strb	r0, [r4]
.Ltmp198:
.LBB0_90:
	@DEBUG_VALUE: AT_Notify:conn_id <- $r1
	@DEBUG_VALUE: AT_Notify:event <- [DW_OP_LLVM_entry_value 1] $r0
	@DEBUG_VALUE: AT_Notify:n <- $r2
	.loc	2 311 15                        @ C:/Users/shw26/AppData/Local/Arm/Packs/ARM/CMSIS-Driver/2.6.1/WiFi/ESP8266/WiFi_ESP8266.c:311:15
	cmp	r2, #5
	ldr	r0, __arm_cp.0_0
	beq	.LBB0_83
.Ltmp199:
.LBB0_91:
	@DEBUG_VALUE: AT_Notify:event <- [DW_OP_LLVM_entry_value 1] $r0
	.loc	2 0 0 is_stmt 0                 @ C:/Users/shw26/AppData/Local/Arm/Packs/ARM/CMSIS-Driver/2.6.1/WiFi/ESP8266/WiFi_ESP8266.c:0:0
	ldr	r0, [r0, #8]
	movs	r1, #4
	b	.LBB0_86
.Ltmp200:
	.p2align	2
@ %bb.92:
__arm_cp.0_0:
	.long	WIFI_Ctrl
.Lcpi_end0:
	.size	__arm_cp.0_0, .Lcpi_end0-__arm_cp.0_0
__arm_cp.0_1:
	.long	Socket
.Lcpi_end1:
	.size	__arm_cp.0_1, .Lcpi_end1-__arm_cp.0_1
__arm_cp.0_2:
	.long	AT_Notify.rx_sock
.Lcpi_end2:
	.size	__arm_cp.0_2, .Lcpi_end2-__arm_cp.0_2
__arm_cp.0_3:
	.long	AT_Notify.rx_num
.Lcpi_end3:
	.size	__arm_cp.0_3, .Lcpi_end3-__arm_cp.0_3
.Lfunc_end0:
	.size	AT_Notify, .Lfunc_end0-AT_Notify
	.cfi_endproc
	.cantunwind
	.fnend
                                        @ -- End function
	.section	.text.ConnId_Accept,"ax",%progbits
	.p2align	2                               @ -- Begin function ConnId_Accept
	.type	ConnId_Accept,%function
	.code	16                              @ @ConnId_Accept
	.thumb_func
ConnId_Accept:
.Lfunc_begin1:
	.loc	2 4622 0 is_stmt 1              @ C:/Users/shw26/AppData/Local/Arm/Packs/ARM/CMSIS-Driver/2.6.1/WiFi/ESP8266/WiFi_ESP8266.c:4622:0
	.fnstart
	.cfi_startproc
@ %bb.0:
	@DEBUG_VALUE: ConnId_Accept:conn_id <- $r0
	movs	r1, #1
	@DEBUG_VALUE: ConnId_Accept:conn_id <- $r0
.Ltmp201:
	.loc	2 4623 25 prologue_end          @ C:/Users/shw26/AppData/Local/Arm/Packs/ARM/CMSIS-Driver/2.6.1/WiFi/ESP8266/WiFi_ESP8266.c:4623:25
	lsls	r1, r0
	movs	r0, #77
.Ltmp202:
	@DEBUG_VALUE: ConnId_Accept:conn_id <- [DW_OP_LLVM_entry_value 1] $r0
	.loc	2 4623 18 is_stmt 0             @ C:/Users/shw26/AppData/Local/Arm/Packs/ARM/CMSIS-Driver/2.6.1/WiFi/ESP8266/WiFi_ESP8266.c:4623:18
	ldr	r2, __arm_cp.1_0
	ldrb	r3, [r2, r0]
	orrs	r3, r1
	strb	r3, [r2, r0]
	.loc	2 4624 1 is_stmt 1              @ C:/Users/shw26/AppData/Local/Arm/Packs/ARM/CMSIS-Driver/2.6.1/WiFi/ESP8266/WiFi_ESP8266.c:4624:1
	bx	lr
.Ltmp203:
	.p2align	2
@ %bb.1:
	.loc	2 0 1 is_stmt 0                 @ C:/Users/shw26/AppData/Local/Arm/Packs/ARM/CMSIS-Driver/2.6.1/WiFi/ESP8266/WiFi_ESP8266.c:0:1
__arm_cp.1_0:
	.long	WIFI_Ctrl
.Lcpi_end4:
	.size	__arm_cp.1_0, .Lcpi_end4-__arm_cp.1_0
.Lfunc_end1:
	.size	ConnId_Accept, .Lfunc_end1-ConnId_Accept
	.cfi_endproc
	.cantunwind
	.fnend
                                        @ -- End function
	.section	.text.ConnId_Free,"ax",%progbits
	.p2align	2                               @ -- Begin function ConnId_Free
	.type	ConnId_Free,%function
	.code	16                              @ @ConnId_Free
	.thumb_func
ConnId_Free:
.Lfunc_begin2:
	.loc	2 4617 0 is_stmt 1              @ C:/Users/shw26/AppData/Local/Arm/Packs/ARM/CMSIS-Driver/2.6.1/WiFi/ESP8266/WiFi_ESP8266.c:4617:0
	.fnstart
	.cfi_startproc
@ %bb.0:
	@DEBUG_VALUE: ConnId_Free:conn_id <- $r0
	movs	r1, #1
	@DEBUG_VALUE: ConnId_Free:conn_id <- $r0
.Ltmp204:
	.loc	2 4618 26 prologue_end          @ C:/Users/shw26/AppData/Local/Arm/Packs/ARM/CMSIS-Driver/2.6.1/WiFi/ESP8266/WiFi_ESP8266.c:4618:26
	lsls	r1, r0
	movs	r0, #77
.Ltmp205:
	@DEBUG_VALUE: ConnId_Free:conn_id <- [DW_OP_LLVM_entry_value 1] $r0
	.loc	2 4618 18 is_stmt 0             @ C:/Users/shw26/AppData/Local/Arm/Packs/ARM/CMSIS-Driver/2.6.1/WiFi/ESP8266/WiFi_ESP8266.c:4618:18
	ldr	r2, __arm_cp.2_0
	ldrb	r3, [r2, r0]
	bics	r3, r1
	strb	r3, [r2, r0]
	.loc	2 4619 1 is_stmt 1              @ C:/Users/shw26/AppData/Local/Arm/Packs/ARM/CMSIS-Driver/2.6.1/WiFi/ESP8266/WiFi_ESP8266.c:4619:1
	bx	lr
.Ltmp206:
	.p2align	2
@ %bb.1:
	.loc	2 0 1 is_stmt 0                 @ C:/Users/shw26/AppData/Local/Arm/Packs/ARM/CMSIS-Driver/2.6.1/WiFi/ESP8266/WiFi_ESP8266.c:0:1
__arm_cp.2_0:
	.long	WIFI_Ctrl
.Lcpi_end5:
	.size	__arm_cp.2_0, .Lcpi_end5-__arm_cp.2_0
.Lfunc_end2:
	.size	ConnId_Free, .Lfunc_end2-ConnId_Free
	.cfi_endproc
	.cantunwind
	.fnend
                                        @ -- End function
	.section	.text.ARM_WIFI_GetVersion,"ax",%progbits
	.p2align	2                               @ -- Begin function ARM_WIFI_GetVersion
	.type	ARM_WIFI_GetVersion,%function
	.code	16                              @ @ARM_WIFI_GetVersion
	.thumb_func
ARM_WIFI_GetVersion:
.Lfunc_begin3:
	.loc	2 489 0 is_stmt 1               @ C:/Users/shw26/AppData/Local/Arm/Packs/ARM/CMSIS-Driver/2.6.1/WiFi/ESP8266/WiFi_ESP8266.c:489:0
	.fnstart
	.cfi_startproc
@ %bb.0:
	ldr	r0, __arm_cp.3_0
.Ltmp207:
	@DEBUG_VALUE: ARM_WIFI_GetVersion:ver <- 17039617
	.loc	2 491 3 prologue_end            @ C:/Users/shw26/AppData/Local/Arm/Packs/ARM/CMSIS-Driver/2.6.1/WiFi/ESP8266/WiFi_ESP8266.c:491:3
	bx	lr
.Ltmp208:
	.p2align	2
@ %bb.1:
	.loc	2 0 3 is_stmt 0                 @ C:/Users/shw26/AppData/Local/Arm/Packs/ARM/CMSIS-Driver/2.6.1/WiFi/ESP8266/WiFi_ESP8266.c:0:3
__arm_cp.3_0:
	.long	17039617                        @ 0x1040101
.Lcpi_end6:
	.size	__arm_cp.3_0, .Lcpi_end6-__arm_cp.3_0
.Lfunc_end3:
	.size	ARM_WIFI_GetVersion, .Lfunc_end3-ARM_WIFI_GetVersion
	.cfi_endproc
	.cantunwind
	.fnend
                                        @ -- End function
	.section	.text.ARM_WIFI_GetCapabilities,"ax",%progbits
	.p2align	2                               @ -- Begin function ARM_WIFI_GetCapabilities
	.type	ARM_WIFI_GetCapabilities,%function
	.code	16                              @ @ARM_WIFI_GetCapabilities
	.thumb_func
ARM_WIFI_GetCapabilities:
.Lfunc_begin4:
	.loc	2 500 0 is_stmt 1               @ C:/Users/shw26/AppData/Local/Arm/Packs/ARM/CMSIS-Driver/2.6.1/WiFi/ESP8266/WiFi_ESP8266.c:500:0
	.fnstart
	.cfi_startproc
@ %bb.0:
	ldr	r0, __arm_cp.4_0
.Ltmp209:
	.loc	2 501 3 prologue_end            @ C:/Users/shw26/AppData/Local/Arm/Packs/ARM/CMSIS-Driver/2.6.1/WiFi/ESP8266/WiFi_ESP8266.c:501:3
	bx	lr
.Ltmp210:
	.p2align	2
@ %bb.1:
	.loc	2 0 3 is_stmt 0                 @ C:/Users/shw26/AppData/Local/Arm/Packs/ARM/CMSIS-Driver/2.6.1/WiFi/ESP8266/WiFi_ESP8266.c:0:3
__arm_cp.4_0:
	.long	2663                            @ 0xa67
.Lcpi_end7:
	.size	__arm_cp.4_0, .Lcpi_end7-__arm_cp.4_0
.Lfunc_end4:
	.size	ARM_WIFI_GetCapabilities, .Lfunc_end4-ARM_WIFI_GetCapabilities
	.cfi_endproc
	.cantunwind
	.fnend
                                        @ -- End function
	.section	.text.ARM_WIFI_Initialize,"ax",%progbits
	.p2align	2                               @ -- Begin function ARM_WIFI_Initialize
	.type	ARM_WIFI_Initialize,%function
	.code	16                              @ @ARM_WIFI_Initialize
	.thumb_func
ARM_WIFI_Initialize:
.Lfunc_begin5:
	.loc	2 513 0 is_stmt 1               @ C:/Users/shw26/AppData/Local/Arm/Packs/ARM/CMSIS-Driver/2.6.1/WiFi/ESP8266/WiFi_ESP8266.c:513:0
	.fnstart
	.cfi_startproc
@ %bb.0:
	@DEBUG_VALUE: ARM_WIFI_Initialize:cb_event <- $r0
	@DEBUG_VALUE: ARM_WIFI_Initialize:cb_event <- $r0
	.save	{r4, r5, r6, r7, lr}
	push	{r4, r5, r6, r7, lr}
	.cfi_def_cfa_offset 20
	.cfi_offset lr, -4
	.cfi_offset r7, -8
	.cfi_offset r6, -12
	.cfi_offset r5, -16
	.cfi_offset r4, -20
	.pad	#92
	sub	sp, #92
	.cfi_def_cfa_offset 112
.Ltmp211:
	@DEBUG_VALUE: ARM_WIFI_Initialize:rval <- 0
	.loc	2 523 19 prologue_end           @ C:/Users/shw26/AppData/Local/Arm/Packs/ARM/CMSIS-Driver/2.6.1/WiFi/ESP8266/WiFi_ESP8266.c:523:19
	ldr	r5, __arm_cp.5_0
	str	r0, [r5]
	movs	r6, #114
	.loc	2 525 7                         @ C:/Users/shw26/AppData/Local/Arm/Packs/ARM/CMSIS-Driver/2.6.1/WiFi/ESP8266/WiFi_ESP8266.c:525:7
	ldrb	r0, [r5, r6]
.Ltmp212:
	@DEBUG_VALUE: ARM_WIFI_Initialize:cb_event <- [DW_OP_LLVM_entry_value 1] $r0
	lsls	r0, r0, #31
	bne	.LBB5_7
.Ltmp213:
@ %bb.1:
	@DEBUG_VALUE: ARM_WIFI_Initialize:cb_event <- [DW_OP_LLVM_entry_value 1] $r0
	@DEBUG_VALUE: ARM_WIFI_Initialize:rval <- 0
	.loc	2 527 15                        @ C:/Users/shw26/AppData/Local/Arm/Packs/ARM/CMSIS-Driver/2.6.1/WiFi/ESP8266/WiFi_ESP8266.c:527:15
	ldr	r0, __arm_cp.5_1
	mov	r2, sp
	mov	r1, r2
	ldm	r0!, {r3, r4, r7}
	stm	r1!, {r3, r4, r7}
	ldm	r0!, {r3, r4, r7}
	stm	r1!, {r3, r4, r7}
	movs	r0, #8
	.loc	2 528 25                        @ C:/Users/shw26/AppData/Local/Arm/Packs/ARM/CMSIS-Driver/2.6.1/WiFi/ESP8266/WiFi_ESP8266.c:528:25
	movw	r1, #512
	bl	osMemoryPoolNew
	.loc	2 528 23 is_stmt 0              @ C:/Users/shw26/AppData/Local/Arm/Packs/ARM/CMSIS-Driver/2.6.1/WiFi/ESP8266/WiFi_ESP8266.c:528:23
	str	r0, [r5, #12]
	.loc	2 531 15 is_stmt 1              @ C:/Users/shw26/AppData/Local/Arm/Packs/ARM/CMSIS-Driver/2.6.1/WiFi/ESP8266/WiFi_ESP8266.c:531:15
	ldr	r0, __arm_cp.5_2
	ldm	r0!, {r1, r2, r3}
	ldr	r0, [r0]
	add	r4, sp, #40
	stm	r4!, {r1, r2, r3}
	str	r0, [sp, #52]
	add	r0, sp, #40
	.loc	2 532 25                        @ C:/Users/shw26/AppData/Local/Arm/Packs/ARM/CMSIS-Driver/2.6.1/WiFi/ESP8266/WiFi_ESP8266.c:532:25
	bl	osEventFlagsNew
	.loc	2 532 23 is_stmt 0              @ C:/Users/shw26/AppData/Local/Arm/Packs/ARM/CMSIS-Driver/2.6.1/WiFi/ESP8266/WiFi_ESP8266.c:532:23
	str	r0, [r5, #8]
	.loc	2 535 16 is_stmt 1              @ C:/Users/shw26/AppData/Local/Arm/Packs/ARM/CMSIS-Driver/2.6.1/WiFi/ESP8266/WiFi_ESP8266.c:535:16
	ldr	r0, __arm_cp.5_3
	ldm	r0!, {r1, r2, r3}
	ldr	r0, [r0]
	add	r4, sp, #24
	stm	r4!, {r1, r2, r3}
	str	r0, [sp, #36]
	add	r4, sp, #24
	.loc	2 536 23                        @ C:/Users/shw26/AppData/Local/Arm/Packs/ARM/CMSIS-Driver/2.6.1/WiFi/ESP8266/WiFi_ESP8266.c:536:23
	mov	r0, r4
	bl	osMutexNew
	.loc	2 536 21 is_stmt 0              @ C:/Users/shw26/AppData/Local/Arm/Packs/ARM/CMSIS-Driver/2.6.1/WiFi/ESP8266/WiFi_ESP8266.c:536:21
	str	r0, [r5, #16]
	.loc	2 539 16 is_stmt 1              @ C:/Users/shw26/AppData/Local/Arm/Packs/ARM/CMSIS-Driver/2.6.1/WiFi/ESP8266/WiFi_ESP8266.c:539:16
	ldr	r0, __arm_cp.5_4
	ldm	r0!, {r1, r2, r3}
	ldr	r0, [r0]
	add	r7, sp, #24
	stm	r7!, {r1, r2, r3}
	str	r0, [sp, #36]
	.loc	2 540 24                        @ C:/Users/shw26/AppData/Local/Arm/Packs/ARM/CMSIS-Driver/2.6.1/WiFi/ESP8266/WiFi_ESP8266.c:540:24
	mov	r0, r4
	bl	osMutexNew
	.loc	2 540 22 is_stmt 0              @ C:/Users/shw26/AppData/Local/Arm/Packs/ARM/CMSIS-Driver/2.6.1/WiFi/ESP8266/WiFi_ESP8266.c:540:22
	str	r0, [r5, #20]
.Ltmp214:
	@DEBUG_VALUE: ARM_WIFI_Initialize:rval <- undef
	.loc	2 550 9 is_stmt 1               @ C:/Users/shw26/AppData/Local/Arm/Packs/ARM/CMSIS-Driver/2.6.1/WiFi/ESP8266/WiFi_ESP8266.c:550:9
	cbz	r0, .LBB5_8
.Ltmp215:
@ %bb.2:
	@DEBUG_VALUE: ARM_WIFI_Initialize:cb_event <- [DW_OP_LLVM_entry_value 1] $r0
	.loc	2 0 0 is_stmt 0                 @ C:/Users/shw26/AppData/Local/Arm/Packs/ARM/CMSIS-Driver/2.6.1/WiFi/ESP8266/WiFi_ESP8266.c:0:0
	ldr	r0, [r5, #12]
	.loc	2 550 9                         @ C:/Users/shw26/AppData/Local/Arm/Packs/ARM/CMSIS-Driver/2.6.1/WiFi/ESP8266/WiFi_ESP8266.c:550:9
	cbz	r0, .LBB5_8
.Ltmp216:
@ %bb.3:
	@DEBUG_VALUE: ARM_WIFI_Initialize:cb_event <- [DW_OP_LLVM_entry_value 1] $r0
	.loc	2 0 9                           @ C:/Users/shw26/AppData/Local/Arm/Packs/ARM/CMSIS-Driver/2.6.1/WiFi/ESP8266/WiFi_ESP8266.c:0:9
	ldr	r0, [r5, #8]
	.loc	2 550 9                         @ C:/Users/shw26/AppData/Local/Arm/Packs/ARM/CMSIS-Driver/2.6.1/WiFi/ESP8266/WiFi_ESP8266.c:550:9
	cbz	r0, .LBB5_8
.Ltmp217:
@ %bb.4:
	@DEBUG_VALUE: ARM_WIFI_Initialize:cb_event <- [DW_OP_LLVM_entry_value 1] $r0
	.loc	2 0 9                           @ C:/Users/shw26/AppData/Local/Arm/Packs/ARM/CMSIS-Driver/2.6.1/WiFi/ESP8266/WiFi_ESP8266.c:0:9
	ldr	r0, [r5, #16]
	.loc	2 550 9                         @ C:/Users/shw26/AppData/Local/Arm/Packs/ARM/CMSIS-Driver/2.6.1/WiFi/ESP8266/WiFi_ESP8266.c:550:9
	cbz	r0, .LBB5_8
.Ltmp218:
@ %bb.5:
	@DEBUG_VALUE: ARM_WIFI_Initialize:cb_event <- [DW_OP_LLVM_entry_value 1] $r0
	.loc	2 552 17 is_stmt 1              @ C:/Users/shw26/AppData/Local/Arm/Packs/ARM/CMSIS-Driver/2.6.1/WiFi/ESP8266/WiFi_ESP8266.c:552:17
	ldr	r0, __arm_cp.5_5
	add	r2, sp, #56
	mov	r1, r2
	ldm	r0!, {r3, r4, r7}
	stm	r1!, {r3, r4, r7}
	ldm	r0!, {r3, r4, r7}
	stm	r1!, {r3, r4, r7}
	ldm	r0!, {r3, r4, r7}
	stm	r1!, {r3, r4, r7}
	.loc	2 553 26                        @ C:/Users/shw26/AppData/Local/Arm/Packs/ARM/CMSIS-Driver/2.6.1/WiFi/ESP8266/WiFi_ESP8266.c:553:26
	ldr	r0, __arm_cp.5_6
	movs	r4, #0
	mov	r1, r4
	bl	osThreadNew
	.loc	2 553 24 is_stmt 0              @ C:/Users/shw26/AppData/Local/Arm/Packs/ARM/CMSIS-Driver/2.6.1/WiFi/ESP8266/WiFi_ESP8266.c:553:24
	str	r0, [r5, #4]
.Ltmp219:
	.loc	2 556 11 is_stmt 1              @ C:/Users/shw26/AppData/Local/Arm/Packs/ARM/CMSIS-Driver/2.6.1/WiFi/ESP8266/WiFi_ESP8266.c:556:11
	bl	osThreadGetState
.Ltmp220:
	@DEBUG_VALUE: ARM_WIFI_Initialize:rval <- undef
	.loc	2 562 9                         @ C:/Users/shw26/AppData/Local/Arm/Packs/ARM/CMSIS-Driver/2.6.1/WiFi/ESP8266/WiFi_ESP8266.c:562:9
	cmp	r0, #3
	bne	.LBB5_8
.Ltmp221:
@ %bb.6:
	@DEBUG_VALUE: ARM_WIFI_Initialize:cb_event <- [DW_OP_LLVM_entry_value 1] $r0
	.loc	2 0 9 is_stmt 0                 @ C:/Users/shw26/AppData/Local/Arm/Packs/ARM/CMSIS-Driver/2.6.1/WiFi/ESP8266/WiFi_ESP8266.c:0:9
	movs	r0, #1
.Ltmp222:
	.loc	2 588 20 is_stmt 1              @ C:/Users/shw26/AppData/Local/Arm/Packs/ARM/CMSIS-Driver/2.6.1/WiFi/ESP8266/WiFi_ESP8266.c:588:20
	strh	r0, [r5, r6]
	b	.LBB5_18
.Ltmp223:
.LBB5_7:
	@DEBUG_VALUE: ARM_WIFI_Initialize:cb_event <- [DW_OP_LLVM_entry_value 1] $r0
	@DEBUG_VALUE: ARM_WIFI_Initialize:rval <- 0
	.loc	2 0 20 is_stmt 0                @ C:/Users/shw26/AppData/Local/Arm/Packs/ARM/CMSIS-Driver/2.6.1/WiFi/ESP8266/WiFi_ESP8266.c:0:20
	movs	r4, #0
	b	.LBB5_18
.Ltmp224:
.LBB5_8:
	@DEBUG_VALUE: ARM_WIFI_Initialize:cb_event <- [DW_OP_LLVM_entry_value 1] $r0
	.loc	2 564 18 is_stmt 1              @ C:/Users/shw26/AppData/Local/Arm/Packs/ARM/CMSIS-Driver/2.6.1/WiFi/ESP8266/WiFi_ESP8266.c:564:18
	ldr	r0, [r5, #4]
.Ltmp225:
	.loc	2 564 11 is_stmt 0              @ C:/Users/shw26/AppData/Local/Arm/Packs/ARM/CMSIS-Driver/2.6.1/WiFi/ESP8266/WiFi_ESP8266.c:564:11
	cbz	r0, .LBB5_10
.Ltmp226:
@ %bb.9:
	@DEBUG_VALUE: ARM_WIFI_Initialize:cb_event <- [DW_OP_LLVM_entry_value 1] $r0
	.loc	2 0 11                          @ C:/Users/shw26/AppData/Local/Arm/Packs/ARM/CMSIS-Driver/2.6.1/WiFi/ESP8266/WiFi_ESP8266.c:0:11
	movs	r1, #8
.Ltmp227:
	.loc	2 566 9 is_stmt 1               @ C:/Users/shw26/AppData/Local/Arm/Packs/ARM/CMSIS-Driver/2.6.1/WiFi/ESP8266/WiFi_ESP8266.c:566:9
	bl	osThreadFlagsSet
.Ltmp228:
.LBB5_10:
	@DEBUG_VALUE: ARM_WIFI_Initialize:cb_event <- [DW_OP_LLVM_entry_value 1] $r0
	.loc	2 570 18                        @ C:/Users/shw26/AppData/Local/Arm/Packs/ARM/CMSIS-Driver/2.6.1/WiFi/ESP8266/WiFi_ESP8266.c:570:18
	ldr	r0, [r5, #12]
.Ltmp229:
	.loc	2 570 11 is_stmt 0              @ C:/Users/shw26/AppData/Local/Arm/Packs/ARM/CMSIS-Driver/2.6.1/WiFi/ESP8266/WiFi_ESP8266.c:570:11
	cbz	r0, .LBB5_12
.Ltmp230:
@ %bb.11:
	@DEBUG_VALUE: ARM_WIFI_Initialize:cb_event <- [DW_OP_LLVM_entry_value 1] $r0
	.loc	2 571 15 is_stmt 1              @ C:/Users/shw26/AppData/Local/Arm/Packs/ARM/CMSIS-Driver/2.6.1/WiFi/ESP8266/WiFi_ESP8266.c:571:15
	bl	osMemoryPoolDelete
.Ltmp231:
.LBB5_12:
	@DEBUG_VALUE: ARM_WIFI_Initialize:cb_event <- [DW_OP_LLVM_entry_value 1] $r0
	.loc	2 574 18                        @ C:/Users/shw26/AppData/Local/Arm/Packs/ARM/CMSIS-Driver/2.6.1/WiFi/ESP8266/WiFi_ESP8266.c:574:18
	ldr	r0, [r5, #8]
.Ltmp232:
	.loc	2 574 11 is_stmt 0              @ C:/Users/shw26/AppData/Local/Arm/Packs/ARM/CMSIS-Driver/2.6.1/WiFi/ESP8266/WiFi_ESP8266.c:574:11
	cbz	r0, .LBB5_14
.Ltmp233:
@ %bb.13:
	@DEBUG_VALUE: ARM_WIFI_Initialize:cb_event <- [DW_OP_LLVM_entry_value 1] $r0
	.loc	2 575 15 is_stmt 1              @ C:/Users/shw26/AppData/Local/Arm/Packs/ARM/CMSIS-Driver/2.6.1/WiFi/ESP8266/WiFi_ESP8266.c:575:15
	bl	osEventFlagsDelete
.Ltmp234:
.LBB5_14:
	@DEBUG_VALUE: ARM_WIFI_Initialize:cb_event <- [DW_OP_LLVM_entry_value 1] $r0
	.loc	2 578 18                        @ C:/Users/shw26/AppData/Local/Arm/Packs/ARM/CMSIS-Driver/2.6.1/WiFi/ESP8266/WiFi_ESP8266.c:578:18
	ldr	r0, [r5, #16]
.Ltmp235:
	.loc	2 578 11 is_stmt 0              @ C:/Users/shw26/AppData/Local/Arm/Packs/ARM/CMSIS-Driver/2.6.1/WiFi/ESP8266/WiFi_ESP8266.c:578:11
	cbz	r0, .LBB5_16
.Ltmp236:
@ %bb.15:
	@DEBUG_VALUE: ARM_WIFI_Initialize:cb_event <- [DW_OP_LLVM_entry_value 1] $r0
	.loc	2 579 15 is_stmt 1              @ C:/Users/shw26/AppData/Local/Arm/Packs/ARM/CMSIS-Driver/2.6.1/WiFi/ESP8266/WiFi_ESP8266.c:579:15
	bl	osMutexDelete
.Ltmp237:
.LBB5_16:
	@DEBUG_VALUE: ARM_WIFI_Initialize:cb_event <- [DW_OP_LLVM_entry_value 1] $r0
	.loc	2 582 18                        @ C:/Users/shw26/AppData/Local/Arm/Packs/ARM/CMSIS-Driver/2.6.1/WiFi/ESP8266/WiFi_ESP8266.c:582:18
	ldr	r0, [r5, #20]
	movs	r1, #0
	mvns	r4, r1
.Ltmp238:
	.loc	2 582 11 is_stmt 0              @ C:/Users/shw26/AppData/Local/Arm/Packs/ARM/CMSIS-Driver/2.6.1/WiFi/ESP8266/WiFi_ESP8266.c:582:11
	cbz	r0, .LBB5_18
.Ltmp239:
@ %bb.17:
	@DEBUG_VALUE: ARM_WIFI_Initialize:cb_event <- [DW_OP_LLVM_entry_value 1] $r0
	.loc	2 583 15 is_stmt 1              @ C:/Users/shw26/AppData/Local/Arm/Packs/ARM/CMSIS-Driver/2.6.1/WiFi/ESP8266/WiFi_ESP8266.c:583:15
	bl	osMutexDelete
.Ltmp240:
.LBB5_18:
	@DEBUG_VALUE: ARM_WIFI_Initialize:cb_event <- [DW_OP_LLVM_entry_value 1] $r0
	@DEBUG_VALUE: ARM_WIFI_Initialize:rval <- $r4
	.loc	2 592 3                         @ C:/Users/shw26/AppData/Local/Arm/Packs/ARM/CMSIS-Driver/2.6.1/WiFi/ESP8266/WiFi_ESP8266.c:592:3
	mov	r0, r4
	add	sp, #92
	pop	{r4, r5, r6, r7, pc}
.Ltmp241:
	.p2align	2
@ %bb.19:
	.loc	2 0 3 is_stmt 0                 @ C:/Users/shw26/AppData/Local/Arm/Packs/ARM/CMSIS-Driver/2.6.1/WiFi/ESP8266/WiFi_ESP8266.c:0:3
__arm_cp.5_0:
	.long	WIFI_Ctrl
.Lcpi_end8:
	.size	__arm_cp.5_0, .Lcpi_end8-__arm_cp.5_0
__arm_cp.5_1:
	.long	Socket_MemPool_Attr
.Lcpi_end9:
	.size	__arm_cp.5_1, .Lcpi_end9-__arm_cp.5_1
__arm_cp.5_2:
	.long	WiFi_EventFlags_Attr
.Lcpi_end10:
	.size	__arm_cp.5_2, .Lcpi_end10-__arm_cp.5_2
__arm_cp.5_3:
	.long	Socket_Mutex_Attr
.Lcpi_end11:
	.size	__arm_cp.5_3, .Lcpi_end11-__arm_cp.5_3
__arm_cp.5_4:
	.long	BufList_Mutex_Attr
.Lcpi_end12:
	.size	__arm_cp.5_4, .Lcpi_end12-__arm_cp.5_4
__arm_cp.5_5:
	.long	WiFi_Thread_Attr
.Lcpi_end13:
	.size	__arm_cp.5_5, .Lcpi_end13-__arm_cp.5_5
__arm_cp.5_6:
	.long	WiFi_Thread
.Lcpi_end14:
	.size	__arm_cp.5_6, .Lcpi_end14-__arm_cp.5_6
.Lfunc_end5:
	.size	ARM_WIFI_Initialize, .Lfunc_end5-ARM_WIFI_Initialize
	.cfi_endproc
	.cantunwind
	.fnend
                                        @ -- End function
	.section	.text.ARM_WIFI_Uninitialize,"ax",%progbits
	.p2align	2                               @ -- Begin function ARM_WIFI_Uninitialize
	.type	ARM_WIFI_Uninitialize,%function
	.code	16                              @ @ARM_WIFI_Uninitialize
	.thumb_func
ARM_WIFI_Uninitialize:
.Lfunc_begin6:
	.loc	2 603 0 is_stmt 1               @ C:/Users/shw26/AppData/Local/Arm/Packs/ARM/CMSIS-Driver/2.6.1/WiFi/ESP8266/WiFi_ESP8266.c:603:0
	.fnstart
	.cfi_startproc
@ %bb.0:
	.save	{r4, r5, r6, lr}
	push	{r4, r5, r6, lr}
	.cfi_def_cfa_offset 16
	.cfi_offset lr, -4
	.cfi_offset r6, -8
	.cfi_offset r5, -12
	.cfi_offset r4, -16
.Ltmp242:
	@DEBUG_VALUE: ARM_WIFI_Uninitialize:rval <- 0
	.loc	2 609 14 prologue_end           @ C:/Users/shw26/AppData/Local/Arm/Packs/ARM/CMSIS-Driver/2.6.1/WiFi/ESP8266/WiFi_ESP8266.c:609:14
	ldr	r5, __arm_cp.6_0
	ldr	r0, [r5, #4]
	movs	r6, #0
.Ltmp243:
	.loc	2 0 0 is_stmt 0                 @ C:/Users/shw26/AppData/Local/Arm/Packs/ARM/CMSIS-Driver/2.6.1/WiFi/ESP8266/WiFi_ESP8266.c:0:0
	mov	r4, r6
	.loc	2 609 7                         @ C:/Users/shw26/AppData/Local/Arm/Packs/ARM/CMSIS-Driver/2.6.1/WiFi/ESP8266/WiFi_ESP8266.c:609:7
	cbz	r0, .LBB6_2
.Ltmp244:
@ %bb.1:
	@DEBUG_VALUE: ARM_WIFI_Uninitialize:rval <- 0
	.loc	2 0 7                           @ C:/Users/shw26/AppData/Local/Arm/Packs/ARM/CMSIS-Driver/2.6.1/WiFi/ESP8266/WiFi_ESP8266.c:0:7
	movs	r1, #8
.Ltmp245:
	.loc	2 610 13 is_stmt 1              @ C:/Users/shw26/AppData/Local/Arm/Packs/ARM/CMSIS-Driver/2.6.1/WiFi/ESP8266/WiFi_ESP8266.c:610:13
	bl	osThreadFlagsSet
.Ltmp246:
	@DEBUG_VALUE: ARM_WIFI_Uninitialize:flags <- $r0
	.loc	2 612 9                         @ C:/Users/shw26/AppData/Local/Arm/Packs/ARM/CMSIS-Driver/2.6.1/WiFi/ESP8266/WiFi_ESP8266.c:612:9
	asrs	r4, r0, #31
.Ltmp247:
.LBB6_2:
	@DEBUG_VALUE: ARM_WIFI_Uninitialize:rval <- 0
	@DEBUG_VALUE: ARM_WIFI_Uninitialize:rval <- $r4
	.loc	2 618 14                        @ C:/Users/shw26/AppData/Local/Arm/Packs/ARM/CMSIS-Driver/2.6.1/WiFi/ESP8266/WiFi_ESP8266.c:618:14
	ldr	r0, [r5, #8]
	mvns	r6, r6
.Ltmp248:
	.loc	2 618 7 is_stmt 0               @ C:/Users/shw26/AppData/Local/Arm/Packs/ARM/CMSIS-Driver/2.6.1/WiFi/ESP8266/WiFi_ESP8266.c:618:7
	cbz	r0, .LBB6_5
.Ltmp249:
@ %bb.3:
	@DEBUG_VALUE: ARM_WIFI_Uninitialize:rval <- $r4
	.loc	2 619 9 is_stmt 1               @ C:/Users/shw26/AppData/Local/Arm/Packs/ARM/CMSIS-Driver/2.6.1/WiFi/ESP8266/WiFi_ESP8266.c:619:9
	bl	osEventFlagsDelete
.Ltmp250:
	.loc	2 619 9 is_stmt 0               @ C:/Users/shw26/AppData/Local/Arm/Packs/ARM/CMSIS-Driver/2.6.1/WiFi/ESP8266/WiFi_ESP8266.c:619:9
	cbz	r0, .LBB6_5
.Ltmp251:
@ %bb.4:
	@DEBUG_VALUE: ARM_WIFI_Uninitialize:rval <- $r4
	mov	r4, r6
.Ltmp252:
.LBB6_5:
	@DEBUG_VALUE: ARM_WIFI_Uninitialize:rval <- $r4
	.loc	2 625 14 is_stmt 1              @ C:/Users/shw26/AppData/Local/Arm/Packs/ARM/CMSIS-Driver/2.6.1/WiFi/ESP8266/WiFi_ESP8266.c:625:14
	ldr	r0, [r5, #16]
.Ltmp253:
	.loc	2 625 7 is_stmt 0               @ C:/Users/shw26/AppData/Local/Arm/Packs/ARM/CMSIS-Driver/2.6.1/WiFi/ESP8266/WiFi_ESP8266.c:625:7
	cbz	r0, .LBB6_8
.Ltmp254:
@ %bb.6:
	@DEBUG_VALUE: ARM_WIFI_Uninitialize:rval <- $r4
	.loc	2 626 9 is_stmt 1               @ C:/Users/shw26/AppData/Local/Arm/Packs/ARM/CMSIS-Driver/2.6.1/WiFi/ESP8266/WiFi_ESP8266.c:626:9
	bl	osMutexDelete
.Ltmp255:
	.loc	2 626 9 is_stmt 0               @ C:/Users/shw26/AppData/Local/Arm/Packs/ARM/CMSIS-Driver/2.6.1/WiFi/ESP8266/WiFi_ESP8266.c:626:9
	cbz	r0, .LBB6_8
.Ltmp256:
@ %bb.7:
	@DEBUG_VALUE: ARM_WIFI_Uninitialize:rval <- $r4
	mov	r4, r6
.Ltmp257:
.LBB6_8:
	@DEBUG_VALUE: ARM_WIFI_Uninitialize:rval <- $r4
	.loc	2 632 14 is_stmt 1              @ C:/Users/shw26/AppData/Local/Arm/Packs/ARM/CMSIS-Driver/2.6.1/WiFi/ESP8266/WiFi_ESP8266.c:632:14
	ldr	r0, [r5, #20]
.Ltmp258:
	.loc	2 632 7 is_stmt 0               @ C:/Users/shw26/AppData/Local/Arm/Packs/ARM/CMSIS-Driver/2.6.1/WiFi/ESP8266/WiFi_ESP8266.c:632:7
	cbz	r0, .LBB6_11
.Ltmp259:
@ %bb.9:
	@DEBUG_VALUE: ARM_WIFI_Uninitialize:rval <- $r4
	.loc	2 633 9 is_stmt 1               @ C:/Users/shw26/AppData/Local/Arm/Packs/ARM/CMSIS-Driver/2.6.1/WiFi/ESP8266/WiFi_ESP8266.c:633:9
	bl	osMutexDelete
.Ltmp260:
	.loc	2 633 9 is_stmt 0               @ C:/Users/shw26/AppData/Local/Arm/Packs/ARM/CMSIS-Driver/2.6.1/WiFi/ESP8266/WiFi_ESP8266.c:633:9
	cbz	r0, .LBB6_11
.Ltmp261:
@ %bb.10:
	@DEBUG_VALUE: ARM_WIFI_Uninitialize:rval <- $r4
	mov	r4, r6
.Ltmp262:
.LBB6_11:
	@DEBUG_VALUE: ARM_WIFI_Uninitialize:rval <- $r4
	.loc	2 639 14 is_stmt 1              @ C:/Users/shw26/AppData/Local/Arm/Packs/ARM/CMSIS-Driver/2.6.1/WiFi/ESP8266/WiFi_ESP8266.c:639:14
	ldr	r0, [r5, #12]
.Ltmp263:
	.loc	2 639 7 is_stmt 0               @ C:/Users/shw26/AppData/Local/Arm/Packs/ARM/CMSIS-Driver/2.6.1/WiFi/ESP8266/WiFi_ESP8266.c:639:7
	cbz	r0, .LBB6_14
.Ltmp264:
@ %bb.12:
	@DEBUG_VALUE: ARM_WIFI_Uninitialize:rval <- $r4
	.loc	2 640 9 is_stmt 1               @ C:/Users/shw26/AppData/Local/Arm/Packs/ARM/CMSIS-Driver/2.6.1/WiFi/ESP8266/WiFi_ESP8266.c:640:9
	bl	osMemoryPoolDelete
.Ltmp265:
	.loc	2 640 9 is_stmt 0               @ C:/Users/shw26/AppData/Local/Arm/Packs/ARM/CMSIS-Driver/2.6.1/WiFi/ESP8266/WiFi_ESP8266.c:640:9
	cbz	r0, .LBB6_14
.Ltmp266:
@ %bb.13:
	@DEBUG_VALUE: ARM_WIFI_Uninitialize:rval <- $r4
	mov	r4, r6
.Ltmp267:
.LBB6_14:
	@DEBUG_VALUE: ARM_WIFI_Uninitialize:rval <- $r4
	.loc	2 646 7 is_stmt 1               @ C:/Users/shw26/AppData/Local/Arm/Packs/ARM/CMSIS-Driver/2.6.1/WiFi/ESP8266/WiFi_ESP8266.c:646:7
	cbz	r4, .LBB6_16
.Ltmp268:
@ %bb.15:
	@DEBUG_VALUE: ARM_WIFI_Uninitialize:rval <- $r4
	.loc	2 654 3                         @ C:/Users/shw26/AppData/Local/Arm/Packs/ARM/CMSIS-Driver/2.6.1/WiFi/ESP8266/WiFi_ESP8266.c:654:3
	mov	r0, r4
	pop	{r4, r5, r6, pc}
.Ltmp269:
.LBB6_16:
	@DEBUG_VALUE: ARM_WIFI_Uninitialize:rval <- $r4
	.loc	2 0 3 is_stmt 0                 @ C:/Users/shw26/AppData/Local/Arm/Packs/ARM/CMSIS-Driver/2.6.1/WiFi/ESP8266/WiFi_ESP8266.c:0:3
	movs	r0, #114
	movs	r1, #0
.Ltmp270:
	.loc	2 648 22 is_stmt 1              @ C:/Users/shw26/AppData/Local/Arm/Packs/ARM/CMSIS-Driver/2.6.1/WiFi/ESP8266/WiFi_ESP8266.c:648:22
	strh	r1, [r5, r0]
	.loc	2 651 22                        @ C:/Users/shw26/AppData/Local/Arm/Packs/ARM/CMSIS-Driver/2.6.1/WiFi/ESP8266/WiFi_ESP8266.c:651:22
	str	r1, [r5, #16]
	.loc	2 649 22                        @ C:/Users/shw26/AppData/Local/Arm/Packs/ARM/CMSIS-Driver/2.6.1/WiFi/ESP8266/WiFi_ESP8266.c:649:22
	str	r1, [r5]
	.loc	2 650 22                        @ C:/Users/shw26/AppData/Local/Arm/Packs/ARM/CMSIS-Driver/2.6.1/WiFi/ESP8266/WiFi_ESP8266.c:650:22
	str	r1, [r5, #4]
.Ltmp271:
	.loc	2 654 3                         @ C:/Users/shw26/AppData/Local/Arm/Packs/ARM/CMSIS-Driver/2.6.1/WiFi/ESP8266/WiFi_ESP8266.c:654:3
	mov	r0, r4
	pop	{r4, r5, r6, pc}
.Ltmp272:
	.p2align	2
@ %bb.17:
	.loc	2 0 3 is_stmt 0                 @ C:/Users/shw26/AppData/Local/Arm/Packs/ARM/CMSIS-Driver/2.6.1/WiFi/ESP8266/WiFi_ESP8266.c:0:3
__arm_cp.6_0:
	.long	WIFI_Ctrl
.Lcpi_end15:
	.size	__arm_cp.6_0, .Lcpi_end15-__arm_cp.6_0
.Lfunc_end6:
	.size	ARM_WIFI_Uninitialize, .Lfunc_end6-ARM_WIFI_Uninitialize
	.cfi_endproc
	.cantunwind
	.fnend
                                        @ -- End function
	.section	.text.ARM_WIFI_PowerControl,"ax",%progbits
	.p2align	2                               @ -- Begin function ARM_WIFI_PowerControl
	.type	ARM_WIFI_PowerControl,%function
	.code	16                              @ @ARM_WIFI_PowerControl
	.thumb_func
ARM_WIFI_PowerControl:
.Lfunc_begin7:
	.loc	2 671 0 is_stmt 1               @ C:/Users/shw26/AppData/Local/Arm/Packs/ARM/CMSIS-Driver/2.6.1/WiFi/ESP8266/WiFi_ESP8266.c:671:0
	.fnstart
	.cfi_startproc
@ %bb.0:
	@DEBUG_VALUE: ARM_WIFI_PowerControl:state <- $r0
	.save	{r4, r5, r6, r7, lr}
	push	{r4, r5, r6, r7, lr}
	.cfi_def_cfa_offset 20
	.cfi_offset lr, -4
	.cfi_offset r7, -8
	.cfi_offset r6, -12
	.cfi_offset r5, -16
	.cfi_offset r4, -20
	.pad	#4
	sub	sp, #4
	.cfi_def_cfa_offset 24
	movs	r5, #0
	mvns	r4, r5
	@DEBUG_VALUE: ARM_WIFI_PowerControl:state <- $r0
.Ltmp273:
	.loc	2 676 33 prologue_end           @ C:/Users/shw26/AppData/Local/Arm/Packs/ARM/CMSIS-Driver/2.6.1/WiFi/ESP8266/WiFi_ESP8266.c:676:33
	cmp	r0, #2
	beq	.LBB7_12
.Ltmp274:
@ %bb.1:
	@DEBUG_VALUE: ARM_WIFI_PowerControl:state <- $r0
	cmp	r0, #1
	beq	.LBB7_32
.Ltmp275:
@ %bb.2:
	@DEBUG_VALUE: ARM_WIFI_PowerControl:state <- $r0
	cmp	r0, #0
	bne	.LBB7_33
.Ltmp276:
@ %bb.3:
	@DEBUG_VALUE: ARM_WIFI_PowerControl:state <- $r0
	.loc	2 0 33 is_stmt 0                @ C:/Users/shw26/AppData/Local/Arm/Packs/ARM/CMSIS-Driver/2.6.1/WiFi/ESP8266/WiFi_ESP8266.c:0:33
	movs	r0, #114
.Ltmp277:
	@DEBUG_VALUE: ARM_WIFI_PowerControl:state <- [DW_OP_LLVM_entry_value 1] $r0
	.loc	2 682 21 is_stmt 1              @ C:/Users/shw26/AppData/Local/Arm/Packs/ARM/CMSIS-Driver/2.6.1/WiFi/ESP8266/WiFi_ESP8266.c:682:21
	ldr	r6, __arm_cp.7_0
	ldrh	r1, [r6, r0]
.Ltmp278:
	.loc	2 682 13 is_stmt 0              @ C:/Users/shw26/AppData/Local/Arm/Packs/ARM/CMSIS-Driver/2.6.1/WiFi/ESP8266/WiFi_ESP8266.c:682:13
	lsls	r2, r1, #31
	beq	.LBB7_34
.Ltmp279:
@ %bb.4:
	@DEBUG_VALUE: ARM_WIFI_PowerControl:state <- [DW_OP_LLVM_entry_value 1] $r0
	.loc	2 0 13                          @ C:/Users/shw26/AppData/Local/Arm/Packs/ARM/CMSIS-Driver/2.6.1/WiFi/ESP8266/WiFi_ESP8266.c:0:13
	movs	r2, #2
.Ltmp280:
	.loc	2 688 24 is_stmt 1              @ C:/Users/shw26/AppData/Local/Arm/Packs/ARM/CMSIS-Driver/2.6.1/WiFi/ESP8266/WiFi_ESP8266.c:688:24
	bics	r1, r2
	strh	r1, [r6, r0]
.Ltmp281:
	@DEBUG_VALUE: ARM_WIFI_PowerControl:rval <- 0
	.loc	2 693 39                        @ C:/Users/shw26/AppData/Local/Arm/Packs/ARM/CMSIS-Driver/2.6.1/WiFi/ESP8266/WiFi_ESP8266.c:693:39
	ldr	r0, [r6, #16]
	.loc	2 693 16 is_stmt 0              @ C:/Users/shw26/AppData/Local/Arm/Packs/ARM/CMSIS-Driver/2.6.1/WiFi/ESP8266/WiFi_ESP8266.c:693:16
	bl	osMutexGetOwner
.Ltmp282:
	@DEBUG_VALUE: ARM_WIFI_PowerControl:id <- $r0
	.loc	2 0 0                           @ C:/Users/shw26/AppData/Local/Arm/Packs/ARM/CMSIS-Driver/2.6.1/WiFi/ESP8266/WiFi_ESP8266.c:0:0
	mov	r1, r5
	.loc	2 695 15 is_stmt 1              @ C:/Users/shw26/AppData/Local/Arm/Packs/ARM/CMSIS-Driver/2.6.1/WiFi/ESP8266/WiFi_ESP8266.c:695:15
	cbz	r0, .LBB7_9
.Ltmp283:
@ %bb.5:
	@DEBUG_VALUE: ARM_WIFI_PowerControl:id <- $r0
	@DEBUG_VALUE: ARM_WIFI_PowerControl:rval <- 0
	@DEBUG_VALUE: ARM_WIFI_PowerControl:state <- [DW_OP_LLVM_entry_value 1] $r0
	.loc	2 697 40                        @ C:/Users/shw26/AppData/Local/Arm/Packs/ARM/CMSIS-Driver/2.6.1/WiFi/ESP8266/WiFi_ESP8266.c:697:40
	ldr	r0, [r6, #16]
.Ltmp284:
	.loc	2 697 17 is_stmt 0              @ C:/Users/shw26/AppData/Local/Arm/Packs/ARM/CMSIS-Driver/2.6.1/WiFi/ESP8266/WiFi_ESP8266.c:697:17
	bl	osMutexRelease
.Ltmp285:
	.loc	2 0 0                           @ C:/Users/shw26/AppData/Local/Arm/Packs/ARM/CMSIS-Driver/2.6.1/WiFi/ESP8266/WiFi_ESP8266.c:0:0
	mov	r1, r5
.Ltmp286:
	.loc	2 697 17                        @ C:/Users/shw26/AppData/Local/Arm/Packs/ARM/CMSIS-Driver/2.6.1/WiFi/ESP8266/WiFi_ESP8266.c:697:17
	cbz	r0, .LBB7_9
.Ltmp287:
@ %bb.6:
	@DEBUG_VALUE: ARM_WIFI_PowerControl:rval <- 0
	@DEBUG_VALUE: ARM_WIFI_PowerControl:state <- [DW_OP_LLVM_entry_value 1] $r0
	.loc	2 699 41 is_stmt 1              @ C:/Users/shw26/AppData/Local/Arm/Packs/ARM/CMSIS-Driver/2.6.1/WiFi/ESP8266/WiFi_ESP8266.c:699:41
	ldr	r0, [r6, #16]
	.loc	2 699 19 is_stmt 0              @ C:/Users/shw26/AppData/Local/Arm/Packs/ARM/CMSIS-Driver/2.6.1/WiFi/ESP8266/WiFi_ESP8266.c:699:19
	bl	osMutexDelete
.Ltmp288:
	.loc	2 0 0                           @ C:/Users/shw26/AppData/Local/Arm/Packs/ARM/CMSIS-Driver/2.6.1/WiFi/ESP8266/WiFi_ESP8266.c:0:0
	mov	r1, r4
.Ltmp289:
	.loc	2 699 19                        @ C:/Users/shw26/AppData/Local/Arm/Packs/ARM/CMSIS-Driver/2.6.1/WiFi/ESP8266/WiFi_ESP8266.c:699:19
	cbnz	r0, .LBB7_9
.Ltmp290:
@ %bb.7:
	@DEBUG_VALUE: ARM_WIFI_PowerControl:rval <- 0
	@DEBUG_VALUE: ARM_WIFI_PowerControl:state <- [DW_OP_LLVM_entry_value 1] $r0
	.loc	2 704 35 is_stmt 1              @ C:/Users/shw26/AppData/Local/Arm/Packs/ARM/CMSIS-Driver/2.6.1/WiFi/ESP8266/WiFi_ESP8266.c:704:35
	ldr	r0, __arm_cp.7_2
	bl	osMutexNew
	.loc	2 704 33 is_stmt 0              @ C:/Users/shw26/AppData/Local/Arm/Packs/ARM/CMSIS-Driver/2.6.1/WiFi/ESP8266/WiFi_ESP8266.c:704:33
	str	r0, [r6, #16]
	movs	r1, #0
	.loc	2 706 21 is_stmt 1              @ C:/Users/shw26/AppData/Local/Arm/Packs/ARM/CMSIS-Driver/2.6.1/WiFi/ESP8266/WiFi_ESP8266.c:706:21
	cbnz	r0, .LBB7_9
.Ltmp291:
@ %bb.8:
	@DEBUG_VALUE: ARM_WIFI_PowerControl:rval <- 0
	@DEBUG_VALUE: ARM_WIFI_PowerControl:state <- [DW_OP_LLVM_entry_value 1] $r0
	.loc	2 0 21 is_stmt 0                @ C:/Users/shw26/AppData/Local/Arm/Packs/ARM/CMSIS-Driver/2.6.1/WiFi/ESP8266/WiFi_ESP8266.c:0:21
	mvns	r1, r1
.Ltmp292:
.LBB7_9:
	@DEBUG_VALUE: ARM_WIFI_PowerControl:rval <- 0
	@DEBUG_VALUE: ARM_WIFI_PowerControl:state <- [DW_OP_LLVM_entry_value 1] $r0
	ldr	r0, __arm_cp.7_3
	adds	r0, #36
	movs	r2, #5
.Ltmp293:
	@DEBUG_VALUE: ARM_WIFI_PowerControl:n <- 0
	@DEBUG_VALUE: ARM_WIFI_PowerControl:rval <- $r1
.LBB7_10:                               @ =>This Inner Loop Header: Depth=1
	@DEBUG_VALUE: ARM_WIFI_PowerControl:rval <- $r1
	@DEBUG_VALUE: ARM_WIFI_PowerControl:state <- [DW_OP_LLVM_entry_value 1] $r0
	@DEBUG_VALUE: ARM_WIFI_PowerControl:n <- undef
	.loc	2 715 29 is_stmt 1              @ C:/Users/shw26/AppData/Local/Arm/Packs/ARM/CMSIS-Driver/2.6.1/WiFi/ESP8266/WiFi_ESP8266.c:715:29
	strb	r5, [r0]
.Ltmp294:
	.loc	2 714 26                        @ C:/Users/shw26/AppData/Local/Arm/Packs/ARM/CMSIS-Driver/2.6.1/WiFi/ESP8266/WiFi_ESP8266.c:714:26
	adds	r0, #60
.Ltmp295:
	@DEBUG_VALUE: ARM_WIFI_PowerControl:n <- [DW_OP_plus_uconst 1, DW_OP_stack_value] undef
	subs	r2, r2, #1
.Ltmp296:
	.loc	2 714 11 is_stmt 0              @ C:/Users/shw26/AppData/Local/Arm/Packs/ARM/CMSIS-Driver/2.6.1/WiFi/ESP8266/WiFi_ESP8266.c:714:11
	bne	.LBB7_10
.Ltmp297:
@ %bb.11:
	@DEBUG_VALUE: ARM_WIFI_PowerControl:rval <- $r1
	@DEBUG_VALUE: ARM_WIFI_PowerControl:state <- [DW_OP_LLVM_entry_value 1] $r0
	.loc	2 0 11                          @ C:/Users/shw26/AppData/Local/Arm/Packs/ARM/CMSIS-Driver/2.6.1/WiFi/ESP8266/WiFi_ESP8266.c:0:11
	mov	r4, r1
.Ltmp298:
	@DEBUG_VALUE: ARM_WIFI_PowerControl:rval <- $r4
	b	.LBB7_34
.Ltmp299:
.LBB7_12:
	@DEBUG_VALUE: ARM_WIFI_PowerControl:state <- $r0
	movs	r7, #114
.Ltmp300:
	.loc	2 725 21 is_stmt 1              @ C:/Users/shw26/AppData/Local/Arm/Packs/ARM/CMSIS-Driver/2.6.1/WiFi/ESP8266/WiFi_ESP8266.c:725:21
	ldr	r6, __arm_cp.7_0
	ldrh	r0, [r6, r7]
.Ltmp301:
	@DEBUG_VALUE: ARM_WIFI_PowerControl:state <- [DW_OP_LLVM_entry_value 1] $r0
	.loc	2 725 13 is_stmt 0              @ C:/Users/shw26/AppData/Local/Arm/Packs/ARM/CMSIS-Driver/2.6.1/WiFi/ESP8266/WiFi_ESP8266.c:725:13
	lsls	r1, r0, #31
	beq	.LBB7_34
.Ltmp302:
@ %bb.13:
	@DEBUG_VALUE: ARM_WIFI_PowerControl:state <- [DW_OP_LLVM_entry_value 1] $r0
	.loc	2 729 18 is_stmt 1              @ C:/Users/shw26/AppData/Local/Arm/Packs/ARM/CMSIS-Driver/2.6.1/WiFi/ESP8266/WiFi_ESP8266.c:729:18
	lsls	r0, r0, #30
	bmi	.LBB7_35
.Ltmp303:
@ %bb.14:
	@DEBUG_VALUE: ARM_WIFI_PowerControl:state <- [DW_OP_LLVM_entry_value 1] $r0
	.loc	2 733 41                        @ C:/Users/shw26/AppData/Local/Arm/Packs/ARM/CMSIS-Driver/2.6.1/WiFi/ESP8266/WiFi_ESP8266.c:733:41
	ldr	r0, [r6, #16]
	.loc	2 733 18 is_stmt 0              @ C:/Users/shw26/AppData/Local/Arm/Packs/ARM/CMSIS-Driver/2.6.1/WiFi/ESP8266/WiFi_ESP8266.c:733:18
	mov	r1, r4
	bl	osMutexAcquire
.Ltmp304:
	.loc	2 733 18                        @ C:/Users/shw26/AppData/Local/Arm/Packs/ARM/CMSIS-Driver/2.6.1/WiFi/ESP8266/WiFi_ESP8266.c:733:18
	cbnz	r0, .LBB7_34
.Ltmp305:
@ %bb.15:
	@DEBUG_VALUE: ARM_WIFI_PowerControl:state <- [DW_OP_LLVM_entry_value 1] $r0
	.loc	2 739 16 is_stmt 1              @ C:/Users/shw26/AppData/Local/Arm/Packs/ARM/CMSIS-Driver/2.6.1/WiFi/ESP8266/WiFi_ESP8266.c:739:16
	bl	SetupCommunication
.Ltmp306:
	@DEBUG_VALUE: ARM_WIFI_PowerControl:ex <- $r0
	.loc	2 741 15                        @ C:/Users/shw26/AppData/Local/Arm/Packs/ARM/CMSIS-Driver/2.6.1/WiFi/ESP8266/WiFi_ESP8266.c:741:15
	cbnz	r0, .LBB7_17
.Ltmp307:
@ %bb.16:
	@DEBUG_VALUE: ARM_WIFI_PowerControl:ex <- $r0
	@DEBUG_VALUE: ARM_WIFI_PowerControl:state <- [DW_OP_LLVM_entry_value 1] $r0
	.loc	2 742 18                        @ C:/Users/shw26/AppData/Local/Arm/Packs/ARM/CMSIS-Driver/2.6.1/WiFi/ESP8266/WiFi_ESP8266.c:742:18
	bl	ResetModule
.Ltmp308:
	@DEBUG_VALUE: ARM_WIFI_PowerControl:ex <- undef
.LBB7_17:
	@DEBUG_VALUE: ARM_WIFI_PowerControl:state <- [DW_OP_LLVM_entry_value 1] $r0
	.loc	2 745 16                        @ C:/Users/shw26/AppData/Local/Arm/Packs/ARM/CMSIS-Driver/2.6.1/WiFi/ESP8266/WiFi_ESP8266.c:745:16
	bl	SetupCommunication
.Ltmp309:
	@DEBUG_VALUE: ARM_WIFI_PowerControl:ex <- $r0
	.loc	2 747 15                        @ C:/Users/shw26/AppData/Local/Arm/Packs/ARM/CMSIS-Driver/2.6.1/WiFi/ESP8266/WiFi_ESP8266.c:747:15
	cmp	r0, #0
	.loc	2 0 0 is_stmt 0                 @ C:/Users/shw26/AppData/Local/Arm/Packs/ARM/CMSIS-Driver/2.6.1/WiFi/ESP8266/WiFi_ESP8266.c:0:0
	mov	r0, r4
.Ltmp310:
	.loc	2 747 15                        @ C:/Users/shw26/AppData/Local/Arm/Packs/ARM/CMSIS-Driver/2.6.1/WiFi/ESP8266/WiFi_ESP8266.c:747:15
	bne	.LBB7_21
.Ltmp311:
@ %bb.18:
	@DEBUG_VALUE: ARM_WIFI_PowerControl:state <- [DW_OP_LLVM_entry_value 1] $r0
	.loc	2 0 15                          @ C:/Users/shw26/AppData/Local/Arm/Packs/ARM/CMSIS-Driver/2.6.1/WiFi/ESP8266/WiFi_ESP8266.c:0:15
	movs	r0, #1
	movs	r1, #3
.Ltmp312:
	.loc	2 749 18 is_stmt 1              @ C:/Users/shw26/AppData/Local/Arm/Packs/ARM/CMSIS-Driver/2.6.1/WiFi/ESP8266/WiFi_ESP8266.c:749:18
	bl	AT_Cmd_CurrentMode
.Ltmp313:
	@DEBUG_VALUE: ARM_WIFI_PowerControl:ex <- $r0
	.loc	2 751 17                        @ C:/Users/shw26/AppData/Local/Arm/Packs/ARM/CMSIS-Driver/2.6.1/WiFi/ESP8266/WiFi_ESP8266.c:751:17
	cbnz	r0, .LBB7_21
.Ltmp314:
@ %bb.19:
	@DEBUG_VALUE: ARM_WIFI_PowerControl:ex <- $r0
	@DEBUG_VALUE: ARM_WIFI_PowerControl:state <- [DW_OP_LLVM_entry_value 1] $r0
	.loc	2 0 17 is_stmt 0                @ C:/Users/shw26/AppData/Local/Arm/Packs/ARM/CMSIS-Driver/2.6.1/WiFi/ESP8266/WiFi_ESP8266.c:0:17
	movs	r0, #1
.Ltmp315:
	ldr	r1, __arm_cp.7_1
.Ltmp316:
	.loc	2 753 20 is_stmt 1              @ C:/Users/shw26/AppData/Local/Arm/Packs/ARM/CMSIS-Driver/2.6.1/WiFi/ESP8266/WiFi_ESP8266.c:753:20
	bl	WiFi_Wait
.Ltmp317:
	@DEBUG_VALUE: ARM_WIFI_PowerControl:ex <- $r0
	.loc	2 755 19                        @ C:/Users/shw26/AppData/Local/Arm/Packs/ARM/CMSIS-Driver/2.6.1/WiFi/ESP8266/WiFi_ESP8266.c:755:19
	cbnz	r0, .LBB7_21
.Ltmp318:
@ %bb.20:
	@DEBUG_VALUE: ARM_WIFI_PowerControl:ex <- $r0
	@DEBUG_VALUE: ARM_WIFI_PowerControl:state <- [DW_OP_LLVM_entry_value 1] $r0
	.loc	2 757 22                        @ C:/Users/shw26/AppData/Local/Arm/Packs/ARM/CMSIS-Driver/2.6.1/WiFi/ESP8266/WiFi_ESP8266.c:757:22
	bl	AT_Resp_Generic
.Ltmp319:
	@DEBUG_VALUE: ARM_WIFI_PowerControl:ex <- $r0
.LBB7_21:
	@DEBUG_VALUE: ARM_WIFI_PowerControl:state <- [DW_OP_LLVM_entry_value 1] $r0
	@DEBUG_VALUE: ARM_WIFI_PowerControl:ex <- $r0
	.loc	2 762 15                        @ C:/Users/shw26/AppData/Local/Arm/Packs/ARM/CMSIS-Driver/2.6.1/WiFi/ESP8266/WiFi_ESP8266.c:762:15
	cbnz	r0, .LBB7_23
.Ltmp320:
@ %bb.22:
	@DEBUG_VALUE: ARM_WIFI_PowerControl:ex <- $r0
	@DEBUG_VALUE: ARM_WIFI_PowerControl:state <- [DW_OP_LLVM_entry_value 1] $r0
	.loc	2 764 18                        @ C:/Users/shw26/AppData/Local/Arm/Packs/ARM/CMSIS-Driver/2.6.1/WiFi/ESP8266/WiFi_ESP8266.c:764:18
	bl	LoadOptions
.Ltmp321:
	@DEBUG_VALUE: ARM_WIFI_PowerControl:ex <- $r0
.LBB7_23:
	@DEBUG_VALUE: ARM_WIFI_PowerControl:ex <- $r0
	@DEBUG_VALUE: ARM_WIFI_PowerControl:state <- [DW_OP_LLVM_entry_value 1] $r0
	@DEBUG_VALUE: ARM_WIFI_PowerControl:ex <- $r0
	.loc	2 767 15                        @ C:/Users/shw26/AppData/Local/Arm/Packs/ARM/CMSIS-Driver/2.6.1/WiFi/ESP8266/WiFi_ESP8266.c:767:15
	cbnz	r0, .LBB7_27
.Ltmp322:
@ %bb.24:
	@DEBUG_VALUE: ARM_WIFI_PowerControl:ex <- $r0
	@DEBUG_VALUE: ARM_WIFI_PowerControl:state <- [DW_OP_LLVM_entry_value 1] $r0
	.loc	2 0 15 is_stmt 0                @ C:/Users/shw26/AppData/Local/Arm/Packs/ARM/CMSIS-Driver/2.6.1/WiFi/ESP8266/WiFi_ESP8266.c:0:15
	movs	r0, #1
.Ltmp323:
	.loc	2 769 18 is_stmt 1              @ C:/Users/shw26/AppData/Local/Arm/Packs/ARM/CMSIS-Driver/2.6.1/WiFi/ESP8266/WiFi_ESP8266.c:769:18
	mov	r1, r0
	bl	AT_Cmd_CurrentMode
.Ltmp324:
	@DEBUG_VALUE: ARM_WIFI_PowerControl:ex <- $r0
	.loc	2 771 17                        @ C:/Users/shw26/AppData/Local/Arm/Packs/ARM/CMSIS-Driver/2.6.1/WiFi/ESP8266/WiFi_ESP8266.c:771:17
	cbnz	r0, .LBB7_27
.Ltmp325:
@ %bb.25:
	@DEBUG_VALUE: ARM_WIFI_PowerControl:ex <- $r0
	@DEBUG_VALUE: ARM_WIFI_PowerControl:state <- [DW_OP_LLVM_entry_value 1] $r0
	.loc	2 0 17 is_stmt 0                @ C:/Users/shw26/AppData/Local/Arm/Packs/ARM/CMSIS-Driver/2.6.1/WiFi/ESP8266/WiFi_ESP8266.c:0:17
	movs	r0, #1
.Ltmp326:
	ldr	r1, __arm_cp.7_1
.Ltmp327:
	.loc	2 773 20 is_stmt 1              @ C:/Users/shw26/AppData/Local/Arm/Packs/ARM/CMSIS-Driver/2.6.1/WiFi/ESP8266/WiFi_ESP8266.c:773:20
	bl	WiFi_Wait
.Ltmp328:
	@DEBUG_VALUE: ARM_WIFI_PowerControl:ex <- $r0
	.loc	2 775 19                        @ C:/Users/shw26/AppData/Local/Arm/Packs/ARM/CMSIS-Driver/2.6.1/WiFi/ESP8266/WiFi_ESP8266.c:775:19
	cbnz	r0, .LBB7_27
.Ltmp329:
@ %bb.26:
	@DEBUG_VALUE: ARM_WIFI_PowerControl:ex <- $r0
	@DEBUG_VALUE: ARM_WIFI_PowerControl:state <- [DW_OP_LLVM_entry_value 1] $r0
	.loc	2 777 22                        @ C:/Users/shw26/AppData/Local/Arm/Packs/ARM/CMSIS-Driver/2.6.1/WiFi/ESP8266/WiFi_ESP8266.c:777:22
	bl	AT_Resp_Generic
.Ltmp330:
	@DEBUG_VALUE: ARM_WIFI_PowerControl:ex <- $r0
.LBB7_27:
	@DEBUG_VALUE: ARM_WIFI_PowerControl:ex <- $r0
	@DEBUG_VALUE: ARM_WIFI_PowerControl:state <- [DW_OP_LLVM_entry_value 1] $r0
	@DEBUG_VALUE: ARM_WIFI_PowerControl:ex <- $r0
	.loc	2 782 15                        @ C:/Users/shw26/AppData/Local/Arm/Packs/ARM/CMSIS-Driver/2.6.1/WiFi/ESP8266/WiFi_ESP8266.c:782:15
	cbnz	r0, .LBB7_38
.Ltmp331:
@ %bb.28:
	@DEBUG_VALUE: ARM_WIFI_PowerControl:ex <- $r0
	@DEBUG_VALUE: ARM_WIFI_PowerControl:state <- [DW_OP_LLVM_entry_value 1] $r0
	.loc	2 0 15 is_stmt 0                @ C:/Users/shw26/AppData/Local/Arm/Packs/ARM/CMSIS-Driver/2.6.1/WiFi/ESP8266/WiFi_ESP8266.c:0:15
	movs	r0, #3
.Ltmp332:
	.loc	2 784 18 is_stmt 1              @ C:/Users/shw26/AppData/Local/Arm/Packs/ARM/CMSIS-Driver/2.6.1/WiFi/ESP8266/WiFi_ESP8266.c:784:18
	bl	AT_Cmd_SysMessages
.Ltmp333:
	@DEBUG_VALUE: ARM_WIFI_PowerControl:ex <- $r0
	.loc	2 786 17                        @ C:/Users/shw26/AppData/Local/Arm/Packs/ARM/CMSIS-Driver/2.6.1/WiFi/ESP8266/WiFi_ESP8266.c:786:17
	cbnz	r0, .LBB7_38
.Ltmp334:
@ %bb.29:
	@DEBUG_VALUE: ARM_WIFI_PowerControl:ex <- $r0
	@DEBUG_VALUE: ARM_WIFI_PowerControl:state <- [DW_OP_LLVM_entry_value 1] $r0
	.loc	2 0 17 is_stmt 0                @ C:/Users/shw26/AppData/Local/Arm/Packs/ARM/CMSIS-Driver/2.6.1/WiFi/ESP8266/WiFi_ESP8266.c:0:17
	movs	r0, #1
.Ltmp335:
	ldr	r1, __arm_cp.7_1
.Ltmp336:
	.loc	2 788 20 is_stmt 1              @ C:/Users/shw26/AppData/Local/Arm/Packs/ARM/CMSIS-Driver/2.6.1/WiFi/ESP8266/WiFi_ESP8266.c:788:20
	bl	WiFi_Wait
.Ltmp337:
	@DEBUG_VALUE: ARM_WIFI_PowerControl:ex <- $r0
	.loc	2 790 19                        @ C:/Users/shw26/AppData/Local/Arm/Packs/ARM/CMSIS-Driver/2.6.1/WiFi/ESP8266/WiFi_ESP8266.c:790:19
	cbnz	r0, .LBB7_38
.Ltmp338:
@ %bb.30:
	@DEBUG_VALUE: ARM_WIFI_PowerControl:ex <- $r0
	@DEBUG_VALUE: ARM_WIFI_PowerControl:state <- [DW_OP_LLVM_entry_value 1] $r0
	.loc	2 792 22                        @ C:/Users/shw26/AppData/Local/Arm/Packs/ARM/CMSIS-Driver/2.6.1/WiFi/ESP8266/WiFi_ESP8266.c:792:22
	bl	AT_Resp_Generic
.Ltmp339:
	@DEBUG_VALUE: ARM_WIFI_PowerControl:ex <- $r0
	.loc	2 0 0 is_stmt 0                 @ C:/Users/shw26/AppData/Local/Arm/Packs/ARM/CMSIS-Driver/2.6.1/WiFi/ESP8266/WiFi_ESP8266.c:0:0
	ldrh	r1, [r6, r7]
.Ltmp340:
	.loc	2 794 21 is_stmt 1              @ C:/Users/shw26/AppData/Local/Arm/Packs/ARM/CMSIS-Driver/2.6.1/WiFi/ESP8266/WiFi_ESP8266.c:794:21
	cbz	r0, .LBB7_36
.Ltmp341:
@ %bb.31:
	@DEBUG_VALUE: ARM_WIFI_PowerControl:ex <- $r0
	@DEBUG_VALUE: ARM_WIFI_PowerControl:state <- [DW_OP_LLVM_entry_value 1] $r0
	@DEBUG_VALUE: ARM_WIFI_PowerControl:ex <- 0
	.loc	2 0 21 is_stmt 0                @ C:/Users/shw26/AppData/Local/Arm/Packs/ARM/CMSIS-Driver/2.6.1/WiFi/ESP8266/WiFi_ESP8266.c:0:21
	movs	r0, #4
.Ltmp342:
	.loc	2 798 32 is_stmt 1              @ C:/Users/shw26/AppData/Local/Arm/Packs/ARM/CMSIS-Driver/2.6.1/WiFi/ESP8266/WiFi_ESP8266.c:798:32
	orrs	r1, r0
	b	.LBB7_37
.Ltmp343:
.LBB7_32:
	@DEBUG_VALUE: ARM_WIFI_PowerControl:state <- $r0
	@DEBUG_VALUE: ARM_WIFI_PowerControl:rval <- -4
	.loc	2 0 32 is_stmt 0                @ C:/Users/shw26/AppData/Local/Arm/Packs/ARM/CMSIS-Driver/2.6.1/WiFi/ESP8266/WiFi_ESP8266.c:0:32
	subs	r4, r4, #3
	b	.LBB7_34
.Ltmp344:
.LBB7_33:
	@DEBUG_VALUE: ARM_WIFI_PowerControl:state <- $r0
	subs	r4, r4, #4
.Ltmp345:
.LBB7_34:
	@DEBUG_VALUE: ARM_WIFI_PowerControl:rval <- $r4
	.loc	2 877 3 is_stmt 1               @ C:/Users/shw26/AppData/Local/Arm/Packs/ARM/CMSIS-Driver/2.6.1/WiFi/ESP8266/WiFi_ESP8266.c:877:3
	mov	r0, r4
	add	sp, #4
	pop	{r4, r5, r6, r7, pc}
.Ltmp346:
.LBB7_35:
	@DEBUG_VALUE: ARM_WIFI_PowerControl:state <- [DW_OP_LLVM_entry_value 1] $r0
	.loc	2 0 3 is_stmt 0                 @ C:/Users/shw26/AppData/Local/Arm/Packs/ARM/CMSIS-Driver/2.6.1/WiFi/ESP8266/WiFi_ESP8266.c:0:3
	movs	r4, #0
	b	.LBB7_34
.Ltmp347:
.LBB7_36:
	@DEBUG_VALUE: ARM_WIFI_PowerControl:ex <- $r0
	@DEBUG_VALUE: ARM_WIFI_PowerControl:state <- [DW_OP_LLVM_entry_value 1] $r0
	movs	r0, #4
.Ltmp348:
	.loc	2 800 32 is_stmt 1              @ C:/Users/shw26/AppData/Local/Arm/Packs/ARM/CMSIS-Driver/2.6.1/WiFi/ESP8266/WiFi_ESP8266.c:800:32
	bics	r1, r0
.Ltmp349:
.LBB7_37:
	@DEBUG_VALUE: ARM_WIFI_PowerControl:state <- [DW_OP_LLVM_entry_value 1] $r0
	.loc	2 0 0 is_stmt 0                 @ C:/Users/shw26/AppData/Local/Arm/Packs/ARM/CMSIS-Driver/2.6.1/WiFi/ESP8266/WiFi_ESP8266.c:0:0
	strh	r1, [r6, r7]
	movs	r0, #0
.Ltmp350:
.LBB7_38:
	@DEBUG_VALUE: ARM_WIFI_PowerControl:state <- [DW_OP_LLVM_entry_value 1] $r0
	@DEBUG_VALUE: ARM_WIFI_PowerControl:ex <- $r0
	.loc	2 806 15 is_stmt 1              @ C:/Users/shw26/AppData/Local/Arm/Packs/ARM/CMSIS-Driver/2.6.1/WiFi/ESP8266/WiFi_ESP8266.c:806:15
	cbnz	r0, .LBB7_43
.Ltmp351:
@ %bb.39:
	@DEBUG_VALUE: ARM_WIFI_PowerControl:ex <- $r0
	@DEBUG_VALUE: ARM_WIFI_PowerControl:state <- [DW_OP_LLVM_entry_value 1] $r0
	.loc	2 0 15 is_stmt 0                @ C:/Users/shw26/AppData/Local/Arm/Packs/ARM/CMSIS-Driver/2.6.1/WiFi/ESP8266/WiFi_ESP8266.c:0:15
	movs	r0, #1
.Ltmp352:
	movs	r5, #0
.Ltmp353:
	.loc	2 808 18 is_stmt 1              @ C:/Users/shw26/AppData/Local/Arm/Packs/ARM/CMSIS-Driver/2.6.1/WiFi/ESP8266/WiFi_ESP8266.c:808:18
	mov	r1, r5
	bl	AT_Cmd_Sleep
.Ltmp354:
	@DEBUG_VALUE: ARM_WIFI_PowerControl:ex <- $r0
	.loc	2 810 17                        @ C:/Users/shw26/AppData/Local/Arm/Packs/ARM/CMSIS-Driver/2.6.1/WiFi/ESP8266/WiFi_ESP8266.c:810:17
	cbnz	r0, .LBB7_43
.Ltmp355:
@ %bb.40:
	@DEBUG_VALUE: ARM_WIFI_PowerControl:ex <- $r0
	@DEBUG_VALUE: ARM_WIFI_PowerControl:state <- [DW_OP_LLVM_entry_value 1] $r0
	.loc	2 0 17 is_stmt 0                @ C:/Users/shw26/AppData/Local/Arm/Packs/ARM/CMSIS-Driver/2.6.1/WiFi/ESP8266/WiFi_ESP8266.c:0:17
	movs	r0, #1
.Ltmp356:
	ldr	r1, __arm_cp.7_1
.Ltmp357:
	.loc	2 812 20 is_stmt 1              @ C:/Users/shw26/AppData/Local/Arm/Packs/ARM/CMSIS-Driver/2.6.1/WiFi/ESP8266/WiFi_ESP8266.c:812:20
	bl	WiFi_Wait
.Ltmp358:
	@DEBUG_VALUE: ARM_WIFI_PowerControl:ex <- $r0
	.loc	2 814 19                        @ C:/Users/shw26/AppData/Local/Arm/Packs/ARM/CMSIS-Driver/2.6.1/WiFi/ESP8266/WiFi_ESP8266.c:814:19
	cbnz	r0, .LBB7_43
.Ltmp359:
@ %bb.41:
	@DEBUG_VALUE: ARM_WIFI_PowerControl:ex <- $r0
	@DEBUG_VALUE: ARM_WIFI_PowerControl:state <- [DW_OP_LLVM_entry_value 1] $r0
	.loc	2 816 22                        @ C:/Users/shw26/AppData/Local/Arm/Packs/ARM/CMSIS-Driver/2.6.1/WiFi/ESP8266/WiFi_ESP8266.c:816:22
	bl	AT_Resp_Generic
.Ltmp360:
	@DEBUG_VALUE: ARM_WIFI_PowerControl:ex <- $r0
	.loc	2 818 21                        @ C:/Users/shw26/AppData/Local/Arm/Packs/ARM/CMSIS-Driver/2.6.1/WiFi/ESP8266/WiFi_ESP8266.c:818:21
	cbnz	r0, .LBB7_43
.Ltmp361:
@ %bb.42:
	@DEBUG_VALUE: ARM_WIFI_PowerControl:ex <- $r0
	@DEBUG_VALUE: ARM_WIFI_PowerControl:state <- [DW_OP_LLVM_entry_value 1] $r0
	.loc	2 820 19                        @ C:/Users/shw26/AppData/Local/Arm/Packs/ARM/CMSIS-Driver/2.6.1/WiFi/ESP8266/WiFi_ESP8266.c:820:19
	movw	r0, #500
.Ltmp362:
	bl	osDelay
.Ltmp363:
	.loc	2 0 0 is_stmt 0                 @ C:/Users/shw26/AppData/Local/Arm/Packs/ARM/CMSIS-Driver/2.6.1/WiFi/ESP8266/WiFi_ESP8266.c:0:0
	mov	r0, r5
.Ltmp364:
.LBB7_43:
	@DEBUG_VALUE: ARM_WIFI_PowerControl:state <- [DW_OP_LLVM_entry_value 1] $r0
	@DEBUG_VALUE: ARM_WIFI_PowerControl:ex <- $r0
	.loc	2 826 15 is_stmt 1              @ C:/Users/shw26/AppData/Local/Arm/Packs/ARM/CMSIS-Driver/2.6.1/WiFi/ESP8266/WiFi_ESP8266.c:826:15
	cbnz	r0, .LBB7_47
.Ltmp365:
@ %bb.44:
	@DEBUG_VALUE: ARM_WIFI_PowerControl:ex <- $r0
	@DEBUG_VALUE: ARM_WIFI_PowerControl:state <- [DW_OP_LLVM_entry_value 1] $r0
	.loc	2 0 15 is_stmt 0                @ C:/Users/shw26/AppData/Local/Arm/Packs/ARM/CMSIS-Driver/2.6.1/WiFi/ESP8266/WiFi_ESP8266.c:0:15
	movs	r0, #1
.Ltmp366:
	.loc	2 828 18 is_stmt 1              @ C:/Users/shw26/AppData/Local/Arm/Packs/ARM/CMSIS-Driver/2.6.1/WiFi/ESP8266/WiFi_ESP8266.c:828:18
	mov	r1, r0
	bl	AT_Cmd_ConnectionMux
.Ltmp367:
	@DEBUG_VALUE: ARM_WIFI_PowerControl:ex <- $r0
	.loc	2 830 17                        @ C:/Users/shw26/AppData/Local/Arm/Packs/ARM/CMSIS-Driver/2.6.1/WiFi/ESP8266/WiFi_ESP8266.c:830:17
	cbnz	r0, .LBB7_47
.Ltmp368:
@ %bb.45:
	@DEBUG_VALUE: ARM_WIFI_PowerControl:ex <- $r0
	@DEBUG_VALUE: ARM_WIFI_PowerControl:state <- [DW_OP_LLVM_entry_value 1] $r0
	.loc	2 0 17 is_stmt 0                @ C:/Users/shw26/AppData/Local/Arm/Packs/ARM/CMSIS-Driver/2.6.1/WiFi/ESP8266/WiFi_ESP8266.c:0:17
	movs	r0, #1
.Ltmp369:
	ldr	r1, __arm_cp.7_1
.Ltmp370:
	.loc	2 832 20 is_stmt 1              @ C:/Users/shw26/AppData/Local/Arm/Packs/ARM/CMSIS-Driver/2.6.1/WiFi/ESP8266/WiFi_ESP8266.c:832:20
	bl	WiFi_Wait
.Ltmp371:
	@DEBUG_VALUE: ARM_WIFI_PowerControl:ex <- $r0
	.loc	2 834 19                        @ C:/Users/shw26/AppData/Local/Arm/Packs/ARM/CMSIS-Driver/2.6.1/WiFi/ESP8266/WiFi_ESP8266.c:834:19
	cbnz	r0, .LBB7_47
.Ltmp372:
@ %bb.46:
	@DEBUG_VALUE: ARM_WIFI_PowerControl:ex <- $r0
	@DEBUG_VALUE: ARM_WIFI_PowerControl:state <- [DW_OP_LLVM_entry_value 1] $r0
	.loc	2 836 22                        @ C:/Users/shw26/AppData/Local/Arm/Packs/ARM/CMSIS-Driver/2.6.1/WiFi/ESP8266/WiFi_ESP8266.c:836:22
	bl	AT_Resp_Generic
.Ltmp373:
	@DEBUG_VALUE: ARM_WIFI_PowerControl:ex <- $r0
.LBB7_47:
	@DEBUG_VALUE: ARM_WIFI_PowerControl:ex <- $r0
	@DEBUG_VALUE: ARM_WIFI_PowerControl:state <- [DW_OP_LLVM_entry_value 1] $r0
	@DEBUG_VALUE: ARM_WIFI_PowerControl:ex <- $r0
	.loc	2 841 15                        @ C:/Users/shw26/AppData/Local/Arm/Packs/ARM/CMSIS-Driver/2.6.1/WiFi/ESP8266/WiFi_ESP8266.c:841:15
	cbnz	r0, .LBB7_51
.Ltmp374:
@ %bb.48:
	@DEBUG_VALUE: ARM_WIFI_PowerControl:ex <- $r0
	@DEBUG_VALUE: ARM_WIFI_PowerControl:state <- [DW_OP_LLVM_entry_value 1] $r0
	.loc	2 0 15 is_stmt 0                @ C:/Users/shw26/AppData/Local/Arm/Packs/ARM/CMSIS-Driver/2.6.1/WiFi/ESP8266/WiFi_ESP8266.c:0:15
	movs	r0, #0
.Ltmp375:
	.loc	2 843 18 is_stmt 1              @ C:/Users/shw26/AppData/Local/Arm/Packs/ARM/CMSIS-Driver/2.6.1/WiFi/ESP8266/WiFi_ESP8266.c:843:18
	bl	AT_Cmd_Echo
.Ltmp376:
	@DEBUG_VALUE: ARM_WIFI_PowerControl:ex <- $r0
	.loc	2 845 17                        @ C:/Users/shw26/AppData/Local/Arm/Packs/ARM/CMSIS-Driver/2.6.1/WiFi/ESP8266/WiFi_ESP8266.c:845:17
	cbnz	r0, .LBB7_51
.Ltmp377:
@ %bb.49:
	@DEBUG_VALUE: ARM_WIFI_PowerControl:ex <- $r0
	@DEBUG_VALUE: ARM_WIFI_PowerControl:state <- [DW_OP_LLVM_entry_value 1] $r0
	.loc	2 0 17 is_stmt 0                @ C:/Users/shw26/AppData/Local/Arm/Packs/ARM/CMSIS-Driver/2.6.1/WiFi/ESP8266/WiFi_ESP8266.c:0:17
	movs	r0, #1
.Ltmp378:
	ldr	r1, __arm_cp.7_1
.Ltmp379:
	.loc	2 847 20 is_stmt 1              @ C:/Users/shw26/AppData/Local/Arm/Packs/ARM/CMSIS-Driver/2.6.1/WiFi/ESP8266/WiFi_ESP8266.c:847:20
	bl	WiFi_Wait
.Ltmp380:
	@DEBUG_VALUE: ARM_WIFI_PowerControl:ex <- $r0
	.loc	2 849 19                        @ C:/Users/shw26/AppData/Local/Arm/Packs/ARM/CMSIS-Driver/2.6.1/WiFi/ESP8266/WiFi_ESP8266.c:849:19
	cbnz	r0, .LBB7_51
.Ltmp381:
@ %bb.50:
	@DEBUG_VALUE: ARM_WIFI_PowerControl:ex <- $r0
	@DEBUG_VALUE: ARM_WIFI_PowerControl:state <- [DW_OP_LLVM_entry_value 1] $r0
	.loc	2 851 22                        @ C:/Users/shw26/AppData/Local/Arm/Packs/ARM/CMSIS-Driver/2.6.1/WiFi/ESP8266/WiFi_ESP8266.c:851:22
	bl	AT_Resp_Generic
.Ltmp382:
	@DEBUG_VALUE: ARM_WIFI_PowerControl:ex <- $r0
.LBB7_51:
	@DEBUG_VALUE: ARM_WIFI_PowerControl:ex <- $r0
	@DEBUG_VALUE: ARM_WIFI_PowerControl:state <- [DW_OP_LLVM_entry_value 1] $r0
	@DEBUG_VALUE: ARM_WIFI_PowerControl:ex <- $r0
	.loc	2 0 0 is_stmt 0                 @ C:/Users/shw26/AppData/Local/Arm/Packs/ARM/CMSIS-Driver/2.6.1/WiFi/ESP8266/WiFi_ESP8266.c:0:0
	mov	r5, r4
.Ltmp383:
	.loc	2 856 15 is_stmt 1              @ C:/Users/shw26/AppData/Local/Arm/Packs/ARM/CMSIS-Driver/2.6.1/WiFi/ESP8266/WiFi_ESP8266.c:856:15
	cbnz	r0, .LBB7_53
.Ltmp384:
@ %bb.52:
	@DEBUG_VALUE: ARM_WIFI_PowerControl:ex <- $r0
	@DEBUG_VALUE: ARM_WIFI_PowerControl:state <- [DW_OP_LLVM_entry_value 1] $r0
	.loc	2 0 15 is_stmt 0                @ C:/Users/shw26/AppData/Local/Arm/Packs/ARM/CMSIS-Driver/2.6.1/WiFi/ESP8266/WiFi_ESP8266.c:0:15
	movs	r0, #77
.Ltmp385:
	movs	r5, #0
.Ltmp386:
	.loc	2 861 28 is_stmt 1              @ C:/Users/shw26/AppData/Local/Arm/Packs/ARM/CMSIS-Driver/2.6.1/WiFi/ESP8266/WiFi_ESP8266.c:861:28
	strb	r5, [r6, r0]
	.loc	2 858 26                        @ C:/Users/shw26/AppData/Local/Arm/Packs/ARM/CMSIS-Driver/2.6.1/WiFi/ESP8266/WiFi_ESP8266.c:858:26
	ldrh	r0, [r6, r7]
	movs	r1, #2
	orrs	r1, r0
	strh	r1, [r6, r7]
.Ltmp387:
	@DEBUG_VALUE: ARM_WIFI_PowerControl:rval <- 0
.LBB7_53:
	@DEBUG_VALUE: ARM_WIFI_PowerControl:state <- [DW_OP_LLVM_entry_value 1] $r0
	@DEBUG_VALUE: ARM_WIFI_PowerControl:rval <- $r5
	.loc	2 868 38                        @ C:/Users/shw26/AppData/Local/Arm/Packs/ARM/CMSIS-Driver/2.6.1/WiFi/ESP8266/WiFi_ESP8266.c:868:38
	ldr	r0, [r6, #16]
	.loc	2 868 15 is_stmt 0              @ C:/Users/shw26/AppData/Local/Arm/Packs/ARM/CMSIS-Driver/2.6.1/WiFi/ESP8266/WiFi_ESP8266.c:868:15
	bl	osMutexRelease
.Ltmp388:
	.loc	2 868 15                        @ C:/Users/shw26/AppData/Local/Arm/Packs/ARM/CMSIS-Driver/2.6.1/WiFi/ESP8266/WiFi_ESP8266.c:868:15
	cbz	r0, .LBB7_55
.Ltmp389:
@ %bb.54:
	@DEBUG_VALUE: ARM_WIFI_PowerControl:rval <- $r5
	@DEBUG_VALUE: ARM_WIFI_PowerControl:state <- [DW_OP_LLVM_entry_value 1] $r0
	mov	r5, r4
.Ltmp390:
.LBB7_55:
	@DEBUG_VALUE: ARM_WIFI_PowerControl:state <- [DW_OP_LLVM_entry_value 1] $r0
	mov	r0, r5
	add	sp, #4
	pop	{r4, r5, r6, r7, pc}
.Ltmp391:
	.p2align	2
@ %bb.56:
	.loc	2 0 15                          @ C:/Users/shw26/AppData/Local/Arm/Packs/ARM/CMSIS-Driver/2.6.1/WiFi/ESP8266/WiFi_ESP8266.c:0:15
__arm_cp.7_0:
	.long	WIFI_Ctrl
.Lcpi_end16:
	.size	__arm_cp.7_0, .Lcpi_end16-__arm_cp.7_0
__arm_cp.7_1:
	.long	5000                            @ 0x1388
.Lcpi_end17:
	.size	__arm_cp.7_1, .Lcpi_end17-__arm_cp.7_1
__arm_cp.7_2:
	.long	Socket_Mutex_Attr
.Lcpi_end18:
	.size	__arm_cp.7_2, .Lcpi_end18-__arm_cp.7_2
__arm_cp.7_3:
	.long	Socket
.Lcpi_end19:
	.size	__arm_cp.7_3, .Lcpi_end19-__arm_cp.7_3
.Lfunc_end7:
	.size	ARM_WIFI_PowerControl, .Lfunc_end7-ARM_WIFI_PowerControl
	.cfi_endproc
	.cantunwind
	.fnend
                                        @ -- End function
	.section	.text.ARM_WIFI_GetModuleInfo,"ax",%progbits
	.p2align	2                               @ -- Begin function ARM_WIFI_GetModuleInfo
	.type	ARM_WIFI_GetModuleInfo,%function
	.code	16                              @ @ARM_WIFI_GetModuleInfo
	.thumb_func
ARM_WIFI_GetModuleInfo:
.Lfunc_begin8:
	.loc	2 892 0 is_stmt 1               @ C:/Users/shw26/AppData/Local/Arm/Packs/ARM/CMSIS-Driver/2.6.1/WiFi/ESP8266/WiFi_ESP8266.c:892:0
	.fnstart
	.cfi_startproc
@ %bb.0:
	@DEBUG_VALUE: ARM_WIFI_GetModuleInfo:module_info <- $r0
	@DEBUG_VALUE: ARM_WIFI_GetModuleInfo:max_len <- $r1
	.save	{r4, r5, r6, r7, lr}
	push	{r4, r5, r6, r7, lr}
	.cfi_def_cfa_offset 20
	.cfi_offset lr, -4
	.cfi_offset r7, -8
	.cfi_offset r6, -12
	.cfi_offset r5, -16
	.cfi_offset r4, -20
	.pad	#4
	sub	sp, #4
	.cfi_def_cfa_offset 24
	mov	r5, r0
	movs	r7, #0
	mvns	r6, r7
	@DEBUG_VALUE: ARM_WIFI_GetModuleInfo:max_len <- $r1
.Ltmp392:
	@DEBUG_VALUE: ARM_WIFI_GetModuleInfo:module_info <- $r5
	.loc	2 0 0 prologue_end              @ C:/Users/shw26/AppData/Local/Arm/Packs/ARM/CMSIS-Driver/2.6.1/WiFi/ESP8266/WiFi_ESP8266.c:0:0
	subs	r0, r6, #4
	.loc	2 895 29                        @ C:/Users/shw26/AppData/Local/Arm/Packs/ARM/CMSIS-Driver/2.6.1/WiFi/ESP8266/WiFi_ESP8266.c:895:29
	cbz	r5, .LBB8_3
.Ltmp393:
@ %bb.1:
	@DEBUG_VALUE: ARM_WIFI_GetModuleInfo:module_info <- $r5
	@DEBUG_VALUE: ARM_WIFI_GetModuleInfo:max_len <- $r1
	.loc	2 0 29 is_stmt 0                @ C:/Users/shw26/AppData/Local/Arm/Packs/ARM/CMSIS-Driver/2.6.1/WiFi/ESP8266/WiFi_ESP8266.c:0:29
	mov	r4, r1
.Ltmp394:
	@DEBUG_VALUE: ARM_WIFI_GetModuleInfo:max_len <- $r4
	.loc	2 895 29                        @ C:/Users/shw26/AppData/Local/Arm/Packs/ARM/CMSIS-Driver/2.6.1/WiFi/ESP8266/WiFi_ESP8266.c:895:29
	cbz	r1, .LBB8_3
.Ltmp395:
@ %bb.2:
	@DEBUG_VALUE: ARM_WIFI_GetModuleInfo:module_info <- $r5
	@DEBUG_VALUE: ARM_WIFI_GetModuleInfo:max_len <- $r4
	.loc	2 898 35 is_stmt 1              @ C:/Users/shw26/AppData/Local/Arm/Packs/ARM/CMSIS-Driver/2.6.1/WiFi/ESP8266/WiFi_ESP8266.c:898:35
	ldr	r0, __arm_cp.8_0
	ldr	r0, [r0, #16]
	.loc	2 898 12 is_stmt 0              @ C:/Users/shw26/AppData/Local/Arm/Packs/ARM/CMSIS-Driver/2.6.1/WiFi/ESP8266/WiFi_ESP8266.c:898:12
	mov	r1, r6
	bl	osMutexAcquire
.Ltmp396:
	.loc	2 898 12                        @ C:/Users/shw26/AppData/Local/Arm/Packs/ARM/CMSIS-Driver/2.6.1/WiFi/ESP8266/WiFi_ESP8266.c:898:12
	cmp	r0, #0
	.loc	2 0 0                           @ C:/Users/shw26/AppData/Local/Arm/Packs/ARM/CMSIS-Driver/2.6.1/WiFi/ESP8266/WiFi_ESP8266.c:0:0
	mov	r0, r6
	.loc	2 898 12                        @ C:/Users/shw26/AppData/Local/Arm/Packs/ARM/CMSIS-Driver/2.6.1/WiFi/ESP8266/WiFi_ESP8266.c:898:12
	beq	.LBB8_4
.Ltmp397:
.LBB8_3:
	@DEBUG_VALUE: ARM_WIFI_GetModuleInfo:module_info <- $r5
	@DEBUG_VALUE: ARM_WIFI_GetModuleInfo:rval <- $r0
	.loc	2 0 0                           @ C:/Users/shw26/AppData/Local/Arm/Packs/ARM/CMSIS-Driver/2.6.1/WiFi/ESP8266/WiFi_ESP8266.c:0:0
	add	sp, #4
	pop	{r4, r5, r6, r7, pc}
.Ltmp398:
.LBB8_4:
	@DEBUG_VALUE: ARM_WIFI_GetModuleInfo:module_info <- $r5
	@DEBUG_VALUE: ARM_WIFI_GetModuleInfo:max_len <- $r4
	@DEBUG_VALUE: ARM_WIFI_GetModuleInfo:rval <- 0
	ldr	r6, __arm_cp.8_0
.Ltmp399:
	.loc	2 905 10 is_stmt 1              @ C:/Users/shw26/AppData/Local/Arm/Packs/ARM/CMSIS-Driver/2.6.1/WiFi/ESP8266/WiFi_ESP8266.c:905:10
	bl	AT_Cmd_GetVersion
.Ltmp400:
	@DEBUG_VALUE: ARM_WIFI_GetModuleInfo:ex <- $r0
	.loc	2 907 9                         @ C:/Users/shw26/AppData/Local/Arm/Packs/ARM/CMSIS-Driver/2.6.1/WiFi/ESP8266/WiFi_ESP8266.c:907:9
	cbnz	r0, .LBB8_8
.Ltmp401:
@ %bb.5:
	@DEBUG_VALUE: ARM_WIFI_GetModuleInfo:module_info <- $r5
	@DEBUG_VALUE: ARM_WIFI_GetModuleInfo:max_len <- $r4
	@DEBUG_VALUE: ARM_WIFI_GetModuleInfo:ex <- $r0
	@DEBUG_VALUE: ARM_WIFI_GetModuleInfo:rval <- 0
	.loc	2 0 9 is_stmt 0                 @ C:/Users/shw26/AppData/Local/Arm/Packs/ARM/CMSIS-Driver/2.6.1/WiFi/ESP8266/WiFi_ESP8266.c:0:9
	movs	r0, #1
.Ltmp402:
	ldr	r1, __arm_cp.8_1
.Ltmp403:
	.loc	2 909 12 is_stmt 1              @ C:/Users/shw26/AppData/Local/Arm/Packs/ARM/CMSIS-Driver/2.6.1/WiFi/ESP8266/WiFi_ESP8266.c:909:12
	bl	WiFi_Wait
.Ltmp404:
	@DEBUG_VALUE: ARM_WIFI_GetModuleInfo:ex <- $r0
	.loc	2 911 11                        @ C:/Users/shw26/AppData/Local/Arm/Packs/ARM/CMSIS-Driver/2.6.1/WiFi/ESP8266/WiFi_ESP8266.c:911:11
	cbnz	r0, .LBB8_8
.Ltmp405:
@ %bb.6:
	@DEBUG_VALUE: ARM_WIFI_GetModuleInfo:module_info <- $r5
	@DEBUG_VALUE: ARM_WIFI_GetModuleInfo:max_len <- $r4
	@DEBUG_VALUE: ARM_WIFI_GetModuleInfo:ex <- $r0
	@DEBUG_VALUE: ARM_WIFI_GetModuleInfo:rval <- 0
	.loc	2 913 14                        @ C:/Users/shw26/AppData/Local/Arm/Packs/ARM/CMSIS-Driver/2.6.1/WiFi/ESP8266/WiFi_ESP8266.c:913:14
	bl	AT_Resp_Generic
.Ltmp406:
	@DEBUG_VALUE: ARM_WIFI_GetModuleInfo:ex <- $r0
	.loc	2 915 13                        @ C:/Users/shw26/AppData/Local/Arm/Packs/ARM/CMSIS-Driver/2.6.1/WiFi/ESP8266/WiFi_ESP8266.c:915:13
	cbnz	r0, .LBB8_8
.Ltmp407:
@ %bb.7:
	@DEBUG_VALUE: ARM_WIFI_GetModuleInfo:module_info <- $r5
	@DEBUG_VALUE: ARM_WIFI_GetModuleInfo:max_len <- $r4
	@DEBUG_VALUE: ARM_WIFI_GetModuleInfo:ex <- $r0
	@DEBUG_VALUE: ARM_WIFI_GetModuleInfo:rval <- 0
	.loc	2 916 16                        @ C:/Users/shw26/AppData/Local/Arm/Packs/ARM/CMSIS-Driver/2.6.1/WiFi/ESP8266/WiFi_ESP8266.c:916:16
	mov	r0, r5
.Ltmp408:
	mov	r1, r4
	bl	AT_Resp_GetVersion
.Ltmp409:
	@DEBUG_VALUE: ARM_WIFI_GetModuleInfo:ex <- undef
	.loc	2 919 30                        @ C:/Users/shw26/AppData/Local/Arm/Packs/ARM/CMSIS-Driver/2.6.1/WiFi/ESP8266/WiFi_ESP8266.c:919:30
	adds	r0, r4, r5
	.loc	2 919 11 is_stmt 0              @ C:/Users/shw26/AppData/Local/Arm/Packs/ARM/CMSIS-Driver/2.6.1/WiFi/ESP8266/WiFi_ESP8266.c:919:11
	subs	r0, r0, #1
	.loc	2 919 34                        @ C:/Users/shw26/AppData/Local/Arm/Packs/ARM/CMSIS-Driver/2.6.1/WiFi/ESP8266/WiFi_ESP8266.c:919:34
	strb	r7, [r0]
.Ltmp410:
.LBB8_8:
	@DEBUG_VALUE: ARM_WIFI_GetModuleInfo:module_info <- $r5
	@DEBUG_VALUE: ARM_WIFI_GetModuleInfo:max_len <- $r4
	@DEBUG_VALUE: ARM_WIFI_GetModuleInfo:rval <- 0
	.loc	2 924 32 is_stmt 1              @ C:/Users/shw26/AppData/Local/Arm/Packs/ARM/CMSIS-Driver/2.6.1/WiFi/ESP8266/WiFi_ESP8266.c:924:32
	ldr	r0, [r6, #16]
	.loc	2 924 9 is_stmt 0               @ C:/Users/shw26/AppData/Local/Arm/Packs/ARM/CMSIS-Driver/2.6.1/WiFi/ESP8266/WiFi_ESP8266.c:924:9
	bl	osMutexRelease
.Ltmp411:
	.loc	2 924 9                         @ C:/Users/shw26/AppData/Local/Arm/Packs/ARM/CMSIS-Driver/2.6.1/WiFi/ESP8266/WiFi_ESP8266.c:924:9
	cmp	r0, #0
	beq	.LBB8_3
.Ltmp412:
@ %bb.9:
	@DEBUG_VALUE: ARM_WIFI_GetModuleInfo:module_info <- $r5
	@DEBUG_VALUE: ARM_WIFI_GetModuleInfo:max_len <- $r4
	@DEBUG_VALUE: ARM_WIFI_GetModuleInfo:rval <- 0
	.loc	2 0 9                           @ C:/Users/shw26/AppData/Local/Arm/Packs/ARM/CMSIS-Driver/2.6.1/WiFi/ESP8266/WiFi_ESP8266.c:0:9
	mvns	r0, r7
.Ltmp413:
	@DEBUG_VALUE: ARM_WIFI_GetModuleInfo:rval <- $r0
	add	sp, #4
	pop	{r4, r5, r6, r7, pc}
.Ltmp414:
	.p2align	2
@ %bb.10:
__arm_cp.8_0:
	.long	WIFI_Ctrl
.Lcpi_end20:
	.size	__arm_cp.8_0, .Lcpi_end20-__arm_cp.8_0
__arm_cp.8_1:
	.long	5000                            @ 0x1388
.Lcpi_end21:
	.size	__arm_cp.8_1, .Lcpi_end21-__arm_cp.8_1
.Lfunc_end8:
	.size	ARM_WIFI_GetModuleInfo, .Lfunc_end8-ARM_WIFI_GetModuleInfo
	.cfi_endproc
	.cantunwind
	.fnend
                                        @ -- End function
	.section	.text.ARM_WIFI_SetOption,"ax",%progbits
	.p2align	2                               @ -- Begin function ARM_WIFI_SetOption
	.type	ARM_WIFI_SetOption,%function
	.code	16                              @ @ARM_WIFI_SetOption
	.thumb_func
ARM_WIFI_SetOption:
.Lfunc_begin9:
	.loc	2 947 0 is_stmt 1               @ C:/Users/shw26/AppData/Local/Arm/Packs/ARM/CMSIS-Driver/2.6.1/WiFi/ESP8266/WiFi_ESP8266.c:947:0
	.fnstart
	.cfi_startproc
@ %bb.0:
	@DEBUG_VALUE: ARM_WIFI_SetOption:interface <- $r0
	@DEBUG_VALUE: ARM_WIFI_SetOption:option <- $r1
	@DEBUG_VALUE: ARM_WIFI_SetOption:data <- $r2
	@DEBUG_VALUE: ARM_WIFI_SetOption:len <- $r3
	.save	{r4, r5, r6, r7, lr}
	push	{r4, r5, r6, r7, lr}
	.cfi_def_cfa_offset 20
	.cfi_offset lr, -4
	.cfi_offset r7, -8
	.cfi_offset r6, -12
	.cfi_offset r5, -16
	.cfi_offset r4, -20
	.pad	#28
	sub	sp, #28
	.cfi_def_cfa_offset 48
	mov	r5, r3
	mov	r6, r1
	movs	r3, #0
.Ltmp415:
	@DEBUG_VALUE: ARM_WIFI_SetOption:len <- [DW_OP_LLVM_entry_value 1] $r3
	mvns	r1, r3
.Ltmp416:
	@DEBUG_VALUE: ARM_WIFI_SetOption:option <- [DW_OP_LLVM_entry_value 1] $r1
	@DEBUG_VALUE: ARM_WIFI_SetOption:len <- $r5
	@DEBUG_VALUE: ARM_WIFI_SetOption:data <- $r2
	@DEBUG_VALUE: ARM_WIFI_SetOption:option <- $r6
	@DEBUG_VALUE: ARM_WIFI_SetOption:interface <- $r0
	.loc	2 0 0 prologue_end              @ C:/Users/shw26/AppData/Local/Arm/Packs/ARM/CMSIS-Driver/2.6.1/WiFi/ESP8266/WiFi_ESP8266.c:0:0
	subs	r7, r1, #4
	.loc	2 952 24                        @ C:/Users/shw26/AppData/Local/Arm/Packs/ARM/CMSIS-Driver/2.6.1/WiFi/ESP8266/WiFi_ESP8266.c:952:24
	cmp	r0, #1
	bls	.LBB9_1
	b	.LBB9_58
.Ltmp417:
.LBB9_1:
	@DEBUG_VALUE: ARM_WIFI_SetOption:option <- $r6
	@DEBUG_VALUE: ARM_WIFI_SetOption:len <- $r5
	@DEBUG_VALUE: ARM_WIFI_SetOption:data <- $r2
	@DEBUG_VALUE: ARM_WIFI_SetOption:interface <- $r0
	@DEBUG_VALUE: ARM_WIFI_SetOption:interface <- $r0
	cmp	r2, #0
	bne	.LBB9_2
	b	.LBB9_58
.Ltmp418:
.LBB9_2:
	@DEBUG_VALUE: ARM_WIFI_SetOption:option <- $r6
	@DEBUG_VALUE: ARM_WIFI_SetOption:len <- $r5
	@DEBUG_VALUE: ARM_WIFI_SetOption:data <- $r2
	@DEBUG_VALUE: ARM_WIFI_SetOption:interface <- $r0
	@DEBUG_VALUE: ARM_WIFI_SetOption:interface <- $r0
	cmp	r5, #4
	bhs	.LBB9_3
	b	.LBB9_58
.Ltmp419:
.LBB9_3:
	@DEBUG_VALUE: ARM_WIFI_SetOption:option <- $r6
	@DEBUG_VALUE: ARM_WIFI_SetOption:len <- $r5
	@DEBUG_VALUE: ARM_WIFI_SetOption:data <- $r2
	@DEBUG_VALUE: ARM_WIFI_SetOption:interface <- $r0
	.loc	2 0 24 is_stmt 0                @ C:/Users/shw26/AppData/Local/Arm/Packs/ARM/CMSIS-Driver/2.6.1/WiFi/ESP8266/WiFi_ESP8266.c:0:24
	mov	r4, r0
.Ltmp420:
	@DEBUG_VALUE: ARM_WIFI_SetOption:interface <- $r4
	str	r6, [sp, #16]                   @ 4-byte Spill
.Ltmp421:
	@DEBUG_VALUE: ARM_WIFI_SetOption:option <- [DW_OP_plus_uconst 16] [$sp+0]
	movs	r7, #114
.Ltmp422:
	.loc	2 955 19 is_stmt 1              @ C:/Users/shw26/AppData/Local/Arm/Packs/ARM/CMSIS-Driver/2.6.1/WiFi/ESP8266/WiFi_ESP8266.c:955:19
	ldr	r6, __arm_cp.9_0
	ldrh	r0, [r6, r7]
.Ltmp423:
	.loc	2 955 12 is_stmt 0              @ C:/Users/shw26/AppData/Local/Arm/Packs/ARM/CMSIS-Driver/2.6.1/WiFi/ESP8266/WiFi_ESP8266.c:955:12
	cbz	r0, .LBB9_6
.Ltmp424:
@ %bb.4:
	@DEBUG_VALUE: ARM_WIFI_SetOption:option <- [DW_OP_plus_uconst 16] [$sp+0]
	@DEBUG_VALUE: ARM_WIFI_SetOption:len <- $r5
	@DEBUG_VALUE: ARM_WIFI_SetOption:interface <- $r4
	@DEBUG_VALUE: ARM_WIFI_SetOption:data <- $r2
	.loc	2 0 12                          @ C:/Users/shw26/AppData/Local/Arm/Packs/ARM/CMSIS-Driver/2.6.1/WiFi/ESP8266/WiFi_ESP8266.c:0:12
	str	r2, [sp, #12]                   @ 4-byte Spill
.Ltmp425:
	@DEBUG_VALUE: ARM_WIFI_SetOption:data <- [DW_OP_plus_uconst 12] [$sp+0]
	str	r3, [sp, #8]                    @ 4-byte Spill
.Ltmp426:
	.loc	2 959 35 is_stmt 1              @ C:/Users/shw26/AppData/Local/Arm/Packs/ARM/CMSIS-Driver/2.6.1/WiFi/ESP8266/WiFi_ESP8266.c:959:35
	ldr	r0, [r6, #16]
	mov	r6, r1
	.loc	2 959 12 is_stmt 0              @ C:/Users/shw26/AppData/Local/Arm/Packs/ARM/CMSIS-Driver/2.6.1/WiFi/ESP8266/WiFi_ESP8266.c:959:12
	bl	osMutexAcquire
.Ltmp427:
	.loc	2 959 12                        @ C:/Users/shw26/AppData/Local/Arm/Packs/ARM/CMSIS-Driver/2.6.1/WiFi/ESP8266/WiFi_ESP8266.c:959:12
	cbz	r0, .LBB9_7
.Ltmp428:
@ %bb.5:
	@DEBUG_VALUE: ARM_WIFI_SetOption:data <- [DW_OP_plus_uconst 12] [$sp+0]
	@DEBUG_VALUE: ARM_WIFI_SetOption:option <- [DW_OP_plus_uconst 16] [$sp+0]
	@DEBUG_VALUE: ARM_WIFI_SetOption:len <- $r5
	@DEBUG_VALUE: ARM_WIFI_SetOption:interface <- $r4
	.loc	2 0 0                           @ C:/Users/shw26/AppData/Local/Arm/Packs/ARM/CMSIS-Driver/2.6.1/WiFi/ESP8266/WiFi_ESP8266.c:0:0
	mov	r7, r6
	b	.LBB9_58
.Ltmp429:
.LBB9_6:
	@DEBUG_VALUE: ARM_WIFI_SetOption:option <- [DW_OP_plus_uconst 16] [$sp+0]
	@DEBUG_VALUE: ARM_WIFI_SetOption:len <- $r5
	@DEBUG_VALUE: ARM_WIFI_SetOption:interface <- $r4
	@DEBUG_VALUE: ARM_WIFI_SetOption:data <- $r2
	mov	r7, r1
	b	.LBB9_58
.Ltmp430:
.LBB9_7:
	@DEBUG_VALUE: ARM_WIFI_SetOption:data <- [DW_OP_plus_uconst 12] [$sp+0]
	@DEBUG_VALUE: ARM_WIFI_SetOption:option <- [DW_OP_plus_uconst 16] [$sp+0]
	@DEBUG_VALUE: ARM_WIFI_SetOption:len <- $r5
	@DEBUG_VALUE: ARM_WIFI_SetOption:interface <- $r4
	@DEBUG_VALUE: ARM_WIFI_SetOption:rval <- -1
	@DEBUG_VALUE: ARM_WIFI_SetOption:ex <- -1
	mov	r3, r7
.Ltmp431:
	subs	r7, r6, #3
	.loc	2 967 5 is_stmt 1               @ C:/Users/shw26/AppData/Local/Arm/Packs/ARM/CMSIS-Driver/2.6.1/WiFi/ESP8266/WiFi_ESP8266.c:967:5
	ldr	r0, [sp, #16]                   @ 4-byte Reload
.Ltmp432:
	@DEBUG_VALUE: ARM_WIFI_SetOption:option <- $r0
	subs	r1, r0, #1
	cmp	r1, #14
	str	r6, [sp, #4]                    @ 4-byte Spill
	bls	.LBB9_8
	b	.LBB9_49
.Ltmp433:
.LBB9_8:
	@DEBUG_VALUE: ARM_WIFI_SetOption:data <- [DW_OP_plus_uconst 12] [$sp+0]
	@DEBUG_VALUE: ARM_WIFI_SetOption:len <- $r5
	@DEBUG_VALUE: ARM_WIFI_SetOption:interface <- $r4
	@DEBUG_VALUE: ARM_WIFI_SetOption:option <- $r0
	@DEBUG_VALUE: ARM_WIFI_SetOption:ex <- -1
	@DEBUG_VALUE: ARM_WIFI_SetOption:rval <- -1
	.loc	2 0 5 is_stmt 0                 @ C:/Users/shw26/AppData/Local/Arm/Packs/ARM/CMSIS-Driver/2.6.1/WiFi/ESP8266/WiFi_ESP8266.c:0:5
	lsls	r0, r1, #2
.Ltmp434:
	adr	r2, .LJTI9_0
	adds	r2, r2, r0
	mov	r0, r6
	mov	pc, r2
.Ltmp435:
@ %bb.9:
	.p2align	2
.LJTI9_0:
	b.w	.LBB9_26
	b.w	.LBB9_29
	b.w	.LBB9_30
	b.w	.LBB9_50
	b.w	.LBB9_50
	b.w	.LBB9_32
	b.w	.LBB9_10
	b.w	.LBB9_10
	b.w	.LBB9_10
	b.w	.LBB9_19
	b.w	.LBB9_19
	b.w	.LBB9_34
	b.w	.LBB9_15
	b.w	.LBB9_15
	b.w	.LBB9_15
.LBB9_10:
.Ltmp436:
	@DEBUG_VALUE: ARM_WIFI_SetOption:data <- [DW_OP_plus_uconst 12] [$sp+0]
	@DEBUG_VALUE: ARM_WIFI_SetOption:len <- $r5
	@DEBUG_VALUE: ARM_WIFI_SetOption:interface <- $r4
	@DEBUG_VALUE: ARM_WIFI_SetOption:ex <- -1
	@DEBUG_VALUE: ARM_WIFI_SetOption:rval <- -1
	.loc	2 1054 13 is_stmt 1             @ C:/Users/shw26/AppData/Local/Arm/Packs/ARM/CMSIS-Driver/2.6.1/WiFi/ESP8266/WiFi_ESP8266.c:1054:13
	cmp	r4, #0
	beq	.LBB9_22
.Ltmp437:
@ %bb.11:
	@DEBUG_VALUE: ARM_WIFI_SetOption:data <- [DW_OP_plus_uconst 12] [$sp+0]
	@DEBUG_VALUE: ARM_WIFI_SetOption:len <- $r5
	@DEBUG_VALUE: ARM_WIFI_SetOption:interface <- $r4
	@DEBUG_VALUE: ARM_WIFI_SetOption:ex <- -1
	@DEBUG_VALUE: ARM_WIFI_SetOption:rval <- -1
	.loc	2 0 13 is_stmt 0                @ C:/Users/shw26/AppData/Local/Arm/Packs/ARM/CMSIS-Driver/2.6.1/WiFi/ESP8266/WiFi_ESP8266.c:0:13
	ldr	r0, [sp, #16]                   @ 4-byte Reload
.Ltmp438:
	.loc	2 1060 20 is_stmt 1             @ C:/Users/shw26/AppData/Local/Arm/Packs/ARM/CMSIS-Driver/2.6.1/WiFi/ESP8266/WiFi_ESP8266.c:1060:20
	cmp	r0, #9
	ldr	r4, __arm_cp.9_0
.Ltmp439:
	@DEBUG_VALUE: ARM_WIFI_SetOption:interface <- [DW_OP_LLVM_entry_value 1] $r0
	.loc	2 0 20 is_stmt 0                @ C:/Users/shw26/AppData/Local/Arm/Packs/ARM/CMSIS-Driver/2.6.1/WiFi/ESP8266/WiFi_ESP8266.c:0:20
	ldr	r2, [sp, #12]                   @ 4-byte Reload
.Ltmp440:
	@DEBUG_VALUE: ARM_WIFI_SetOption:data <- $r2
	bne	.LBB9_12
	b	.LBB9_41
.Ltmp441:
.LBB9_12:
	@DEBUG_VALUE: ARM_WIFI_SetOption:len <- $r5
	@DEBUG_VALUE: ARM_WIFI_SetOption:data <- $r2
	@DEBUG_VALUE: ARM_WIFI_SetOption:interface <- [DW_OP_LLVM_entry_value 1] $r0
	@DEBUG_VALUE: ARM_WIFI_SetOption:ex <- -1
	@DEBUG_VALUE: ARM_WIFI_SetOption:rval <- -1
	.loc	2 1060 20                       @ C:/Users/shw26/AppData/Local/Arm/Packs/ARM/CMSIS-Driver/2.6.1/WiFi/ESP8266/WiFi_ESP8266.c:1060:20
	cmp	r0, #8
	bne	.LBB9_13
	b	.LBB9_42
.Ltmp442:
.LBB9_13:
	@DEBUG_VALUE: ARM_WIFI_SetOption:len <- $r5
	@DEBUG_VALUE: ARM_WIFI_SetOption:data <- $r2
	@DEBUG_VALUE: ARM_WIFI_SetOption:interface <- [DW_OP_LLVM_entry_value 1] $r0
	@DEBUG_VALUE: ARM_WIFI_SetOption:ex <- -1
	@DEBUG_VALUE: ARM_WIFI_SetOption:rval <- -1
	cmp	r0, #7
	beq	.LBB9_14
	b	.LBB9_48
.Ltmp443:
.LBB9_14:
	@DEBUG_VALUE: ARM_WIFI_SetOption:len <- $r5
	@DEBUG_VALUE: ARM_WIFI_SetOption:data <- $r2
	@DEBUG_VALUE: ARM_WIFI_SetOption:interface <- [DW_OP_LLVM_entry_value 1] $r0
	@DEBUG_VALUE: ARM_WIFI_SetOption:ex <- -1
	@DEBUG_VALUE: ARM_WIFI_SetOption:rval <- -1
	.loc	2 1060 57                       @ C:/Users/shw26/AppData/Local/Arm/Packs/ARM/CMSIS-Driver/2.6.1/WiFi/ESP8266/WiFi_ESP8266.c:1060:57
	ldrb	r0, [r2]
	ldrb	r1, [r2, #1]
	lsls	r1, r1, #8
	adds	r0, r1, r0
	ldrb	r1, [r2, #2]
	ldrb	r2, [r2, #3]
.Ltmp444:
	@DEBUG_VALUE: ARM_WIFI_SetOption:data <- [DW_OP_LLVM_entry_value 1] $r2
	lsls	r2, r2, #8
	adds	r1, r2, r1
	lsls	r1, r1, #16
	adds	r0, r1, r0
	str	r0, [r4, #48]
	b	.LBB9_48
.Ltmp445:
.LBB9_15:
	@DEBUG_VALUE: ARM_WIFI_SetOption:data <- [DW_OP_plus_uconst 12] [$sp+0]
	@DEBUG_VALUE: ARM_WIFI_SetOption:len <- $r5
	@DEBUG_VALUE: ARM_WIFI_SetOption:interface <- $r4
	@DEBUG_VALUE: ARM_WIFI_SetOption:ex <- -1
	@DEBUG_VALUE: ARM_WIFI_SetOption:rval <- -1
	.loc	2 1110 13 is_stmt 1             @ C:/Users/shw26/AppData/Local/Arm/Packs/ARM/CMSIS-Driver/2.6.1/WiFi/ESP8266/WiFi_ESP8266.c:1110:13
	cmp	r4, #0
.Ltmp446:
	.loc	2 0 0 is_stmt 0                 @ C:/Users/shw26/AppData/Local/Arm/Packs/ARM/CMSIS-Driver/2.6.1/WiFi/ESP8266/WiFi_ESP8266.c:0:0
	mov	r0, r6
	bne	.LBB9_16
	b	.LBB9_50
.Ltmp447:
.LBB9_16:
	@DEBUG_VALUE: ARM_WIFI_SetOption:data <- [DW_OP_plus_uconst 12] [$sp+0]
	@DEBUG_VALUE: ARM_WIFI_SetOption:len <- $r5
	@DEBUG_VALUE: ARM_WIFI_SetOption:interface <- $r4
	@DEBUG_VALUE: ARM_WIFI_SetOption:ex <- -1
	@DEBUG_VALUE: ARM_WIFI_SetOption:rval <- -1
	ldr	r0, [sp, #16]                   @ 4-byte Reload
.Ltmp448:
	.loc	2 1114 15 is_stmt 1             @ C:/Users/shw26/AppData/Local/Arm/Packs/ARM/CMSIS-Driver/2.6.1/WiFi/ESP8266/WiFi_ESP8266.c:1114:15
	cmp	r0, #14
	beq	.LBB9_36
.Ltmp449:
@ %bb.17:
	@DEBUG_VALUE: ARM_WIFI_SetOption:data <- [DW_OP_plus_uconst 12] [$sp+0]
	@DEBUG_VALUE: ARM_WIFI_SetOption:len <- $r5
	@DEBUG_VALUE: ARM_WIFI_SetOption:interface <- $r4
	@DEBUG_VALUE: ARM_WIFI_SetOption:ex <- -1
	@DEBUG_VALUE: ARM_WIFI_SetOption:rval <- -1
	cmp	r0, #13
	bne	.LBB9_37
.Ltmp450:
@ %bb.18:
	@DEBUG_VALUE: ARM_WIFI_SetOption:data <- [DW_OP_plus_uconst 12] [$sp+0]
	@DEBUG_VALUE: ARM_WIFI_SetOption:len <- $r5
	@DEBUG_VALUE: ARM_WIFI_SetOption:interface <- $r4
	@DEBUG_VALUE: ARM_WIFI_SetOption:ex <- -1
	@DEBUG_VALUE: ARM_WIFI_SetOption:rval <- -1
	.loc	2 0 15 is_stmt 0                @ C:/Users/shw26/AppData/Local/Arm/Packs/ARM/CMSIS-Driver/2.6.1/WiFi/ESP8266/WiFi_ESP8266.c:0:15
	ldr	r2, [sp, #12]                   @ 4-byte Reload
.Ltmp451:
	@DEBUG_VALUE: ARM_WIFI_SetOption:data <- $r2
	.loc	2 1115 13 is_stmt 1             @ C:/Users/shw26/AppData/Local/Arm/Packs/ARM/CMSIS-Driver/2.6.1/WiFi/ESP8266/WiFi_ESP8266.c:1115:13
	ldrb	r0, [r2]
	ldrb	r1, [r2, #1]
	lsls	r1, r1, #8
	adds	r0, r1, r0
	ldrb	r1, [r2, #2]
	ldrb	r2, [r2, #3]
.Ltmp452:
	@DEBUG_VALUE: ARM_WIFI_SetOption:data <- [DW_OP_LLVM_entry_value 1] $r2
	lsls	r2, r2, #8
	adds	r1, r2, r1
	lsls	r1, r1, #16
	adds	r0, r1, r0
	ldr	r1, __arm_cp.9_0
	str	r0, [r1, #60]
	b	.LBB9_48
.Ltmp453:
.LBB9_19:
	@DEBUG_VALUE: ARM_WIFI_SetOption:data <- [DW_OP_plus_uconst 12] [$sp+0]
	@DEBUG_VALUE: ARM_WIFI_SetOption:len <- $r5
	@DEBUG_VALUE: ARM_WIFI_SetOption:interface <- $r4
	@DEBUG_VALUE: ARM_WIFI_SetOption:ex <- -1
	@DEBUG_VALUE: ARM_WIFI_SetOption:rval <- -1
	@DEBUG_VALUE: ARM_WIFI_SetOption:ip_0 <- [DW_OP_plus_uconst 24, DW_OP_deref] $sp
	@DEBUG_VALUE: ARM_WIFI_SetOption:ip_1 <- [DW_OP_plus_uconst 20, DW_OP_deref] $sp
	.loc	2 0 13 is_stmt 0                @ C:/Users/shw26/AppData/Local/Arm/Packs/ARM/CMSIS-Driver/2.6.1/WiFi/ESP8266/WiFi_ESP8266.c:0:13
	add	r0, sp, #24
	add	r1, sp, #20
	.loc	2 1069 14 is_stmt 1             @ C:/Users/shw26/AppData/Local/Arm/Packs/ARM/CMSIS-Driver/2.6.1/WiFi/ESP8266/WiFi_ESP8266.c:1069:14
	bl	GetCurrentDnsAddr
.Ltmp454:
	@DEBUG_VALUE: ARM_WIFI_SetOption:ex <- $r0
	.loc	2 1071 13                       @ C:/Users/shw26/AppData/Local/Arm/Packs/ARM/CMSIS-Driver/2.6.1/WiFi/ESP8266/WiFi_ESP8266.c:1071:13
	cmp	r0, #0
.Ltmp455:
	.loc	2 0 0 is_stmt 0                 @ C:/Users/shw26/AppData/Local/Arm/Packs/ARM/CMSIS-Driver/2.6.1/WiFi/ESP8266/WiFi_ESP8266.c:0:0
	ldr	r7, [sp, #4]                    @ 4-byte Reload
	beq	.LBB9_20
	b	.LBB9_50
.Ltmp456:
.LBB9_20:
	@DEBUG_VALUE: ARM_WIFI_SetOption:data <- [DW_OP_plus_uconst 12] [$sp+0]
	@DEBUG_VALUE: ARM_WIFI_SetOption:len <- $r5
	@DEBUG_VALUE: ARM_WIFI_SetOption:interface <- $r4
	@DEBUG_VALUE: ARM_WIFI_SetOption:ex <- $r0
	@DEBUG_VALUE: ARM_WIFI_SetOption:ip_1 <- [DW_OP_plus_uconst 20, DW_OP_deref] $sp
	@DEBUG_VALUE: ARM_WIFI_SetOption:ip_0 <- [DW_OP_plus_uconst 24, DW_OP_deref] $sp
	@DEBUG_VALUE: ARM_WIFI_SetOption:rval <- -1
	ldr	r2, [sp, #12]                   @ 4-byte Reload
.Ltmp457:
	@DEBUG_VALUE: ARM_WIFI_SetOption:data <- $r2
	ldrb	r0, [r2]
.Ltmp458:
	ldrb	r1, [r2, #1]
	lsls	r1, r1, #8
	adds	r0, r1, r0
	ldrb	r1, [r2, #2]
	ldrb	r2, [r2, #3]
.Ltmp459:
	@DEBUG_VALUE: ARM_WIFI_SetOption:data <- [DW_OP_LLVM_entry_value 1] $r2
	lsls	r2, r2, #8
	adds	r1, r2, r1
	lsls	r1, r1, #16
	adds	r0, r1, r0
.Ltmp460:
	.loc	2 1072 15 is_stmt 1             @ C:/Users/shw26/AppData/Local/Arm/Packs/ARM/CMSIS-Driver/2.6.1/WiFi/ESP8266/WiFi_ESP8266.c:1072:15
	ldr	r1, [sp, #16]                   @ 4-byte Reload
	cmp	r1, #10
	bne	.LBB9_43
.Ltmp461:
@ %bb.21:
	@DEBUG_VALUE: ARM_WIFI_SetOption:len <- $r5
	@DEBUG_VALUE: ARM_WIFI_SetOption:interface <- $r4
	@DEBUG_VALUE: ARM_WIFI_SetOption:ip_1 <- [DW_OP_plus_uconst 20, DW_OP_deref] $sp
	@DEBUG_VALUE: ARM_WIFI_SetOption:ip_0 <- [DW_OP_plus_uconst 24, DW_OP_deref] $sp
	@DEBUG_VALUE: ARM_WIFI_SetOption:data <- [DW_OP_LLVM_entry_value 1] $r2
	@DEBUG_VALUE: ARM_WIFI_SetOption:rval <- -1
	@DEBUG_VALUE: ARM_WIFI_SetOption:ip_0 <- $r0
	.loc	2 1072 45 is_stmt 0             @ C:/Users/shw26/AppData/Local/Arm/Packs/ARM/CMSIS-Driver/2.6.1/WiFi/ESP8266/WiFi_ESP8266.c:1072:45
	str	r0, [sp, #24]
	b	.LBB9_44
.Ltmp462:
.LBB9_22:
	@DEBUG_VALUE: ARM_WIFI_SetOption:data <- [DW_OP_plus_uconst 12] [$sp+0]
	@DEBUG_VALUE: ARM_WIFI_SetOption:len <- $r5
	@DEBUG_VALUE: ARM_WIFI_SetOption:interface <- $r4
	@DEBUG_VALUE: ARM_WIFI_SetOption:ex <- -1
	@DEBUG_VALUE: ARM_WIFI_SetOption:rval <- -1
	.loc	2 0 45                          @ C:/Users/shw26/AppData/Local/Arm/Packs/ARM/CMSIS-Driver/2.6.1/WiFi/ESP8266/WiFi_ESP8266.c:0:45
	ldr	r0, [sp, #16]                   @ 4-byte Reload
.Ltmp463:
	.loc	2 1055 20 is_stmt 1             @ C:/Users/shw26/AppData/Local/Arm/Packs/ARM/CMSIS-Driver/2.6.1/WiFi/ESP8266/WiFi_ESP8266.c:1055:20
	cmp	r0, #9
	ldr	r4, __arm_cp.9_0
.Ltmp464:
	@DEBUG_VALUE: ARM_WIFI_SetOption:interface <- [DW_OP_LLVM_entry_value 1] $r0
	.loc	2 0 20 is_stmt 0                @ C:/Users/shw26/AppData/Local/Arm/Packs/ARM/CMSIS-Driver/2.6.1/WiFi/ESP8266/WiFi_ESP8266.c:0:20
	ldr	r2, [sp, #12]                   @ 4-byte Reload
.Ltmp465:
	@DEBUG_VALUE: ARM_WIFI_SetOption:data <- $r2
	bne	.LBB9_23
	b	.LBB9_46
.Ltmp466:
.LBB9_23:
	@DEBUG_VALUE: ARM_WIFI_SetOption:len <- $r5
	@DEBUG_VALUE: ARM_WIFI_SetOption:data <- $r2
	@DEBUG_VALUE: ARM_WIFI_SetOption:interface <- [DW_OP_LLVM_entry_value 1] $r0
	@DEBUG_VALUE: ARM_WIFI_SetOption:ex <- -1
	@DEBUG_VALUE: ARM_WIFI_SetOption:rval <- -1
	.loc	2 1055 20                       @ C:/Users/shw26/AppData/Local/Arm/Packs/ARM/CMSIS-Driver/2.6.1/WiFi/ESP8266/WiFi_ESP8266.c:1055:20
	cmp	r0, #8
	bne	.LBB9_24
	b	.LBB9_47
.Ltmp467:
.LBB9_24:
	@DEBUG_VALUE: ARM_WIFI_SetOption:len <- $r5
	@DEBUG_VALUE: ARM_WIFI_SetOption:data <- $r2
	@DEBUG_VALUE: ARM_WIFI_SetOption:interface <- [DW_OP_LLVM_entry_value 1] $r0
	@DEBUG_VALUE: ARM_WIFI_SetOption:ex <- -1
	@DEBUG_VALUE: ARM_WIFI_SetOption:rval <- -1
	cmp	r0, #7
	beq	.LBB9_25
	b	.LBB9_48
.Ltmp468:
.LBB9_25:
	@DEBUG_VALUE: ARM_WIFI_SetOption:len <- $r5
	@DEBUG_VALUE: ARM_WIFI_SetOption:data <- $r2
	@DEBUG_VALUE: ARM_WIFI_SetOption:interface <- [DW_OP_LLVM_entry_value 1] $r0
	@DEBUG_VALUE: ARM_WIFI_SetOption:ex <- -1
	@DEBUG_VALUE: ARM_WIFI_SetOption:rval <- -1
	.loc	2 1055 57                       @ C:/Users/shw26/AppData/Local/Arm/Packs/ARM/CMSIS-Driver/2.6.1/WiFi/ESP8266/WiFi_ESP8266.c:1055:57
	ldrb	r0, [r2]
	ldrb	r1, [r2, #1]
	lsls	r1, r1, #8
	adds	r0, r1, r0
	ldrb	r1, [r2, #2]
	ldrb	r2, [r2, #3]
.Ltmp469:
	@DEBUG_VALUE: ARM_WIFI_SetOption:data <- [DW_OP_LLVM_entry_value 1] $r2
	lsls	r2, r2, #8
	adds	r1, r2, r1
	lsls	r1, r1, #16
	adds	r0, r1, r0
	str	r0, [r4, #24]
	b	.LBB9_48
.Ltmp470:
.LBB9_26:
	@DEBUG_VALUE: ARM_WIFI_SetOption:data <- [DW_OP_plus_uconst 12] [$sp+0]
	@DEBUG_VALUE: ARM_WIFI_SetOption:len <- $r5
	@DEBUG_VALUE: ARM_WIFI_SetOption:interface <- $r4
	@DEBUG_VALUE: ARM_WIFI_SetOption:ex <- -1
	@DEBUG_VALUE: ARM_WIFI_SetOption:rval <- -1
	.loc	2 981 13 is_stmt 1              @ C:/Users/shw26/AppData/Local/Arm/Packs/ARM/CMSIS-Driver/2.6.1/WiFi/ESP8266/WiFi_ESP8266.c:981:13
	cmp	r5, #6
	blo	.LBB9_33
.Ltmp471:
@ %bb.27:
	@DEBUG_VALUE: ARM_WIFI_SetOption:data <- [DW_OP_plus_uconst 12] [$sp+0]
	@DEBUG_VALUE: ARM_WIFI_SetOption:len <- $r5
	@DEBUG_VALUE: ARM_WIFI_SetOption:interface <- $r4
	@DEBUG_VALUE: ARM_WIFI_SetOption:ex <- -1
	@DEBUG_VALUE: ARM_WIFI_SetOption:rval <- -1
	.loc	2 985 15                        @ C:/Users/shw26/AppData/Local/Arm/Packs/ARM/CMSIS-Driver/2.6.1/WiFi/ESP8266/WiFi_ESP8266.c:985:15
	cmp	r4, #0
.Ltmp472:
	.loc	2 0 0 is_stmt 0                 @ C:/Users/shw26/AppData/Local/Arm/Packs/ARM/CMSIS-Driver/2.6.1/WiFi/ESP8266/WiFi_ESP8266.c:0:0
	mov	r0, r6
	beq	.LBB9_28
	b	.LBB9_50
.Ltmp473:
.LBB9_28:
	@DEBUG_VALUE: ARM_WIFI_SetOption:data <- [DW_OP_plus_uconst 12] [$sp+0]
	@DEBUG_VALUE: ARM_WIFI_SetOption:len <- $r5
	@DEBUG_VALUE: ARM_WIFI_SetOption:interface <- $r4
	@DEBUG_VALUE: ARM_WIFI_SetOption:ex <- -1
	@DEBUG_VALUE: ARM_WIFI_SetOption:rval <- -1
	.loc	2 987 13 is_stmt 1              @ C:/Users/shw26/AppData/Local/Arm/Packs/ARM/CMSIS-Driver/2.6.1/WiFi/ESP8266/WiFi_ESP8266.c:987:13
	ldr	r0, __arm_cp.9_0
	adds	r0, #36
	b	.LBB9_40
.Ltmp474:
.LBB9_29:
	@DEBUG_VALUE: ARM_WIFI_SetOption:data <- [DW_OP_plus_uconst 12] [$sp+0]
	@DEBUG_VALUE: ARM_WIFI_SetOption:len <- $r5
	@DEBUG_VALUE: ARM_WIFI_SetOption:interface <- $r4
	@DEBUG_VALUE: ARM_WIFI_SetOption:ex <- -1
	@DEBUG_VALUE: ARM_WIFI_SetOption:rval <- -1
	.loc	2 999 17                        @ C:/Users/shw26/AppData/Local/Arm/Packs/ARM/CMSIS-Driver/2.6.1/WiFi/ESP8266/WiFi_ESP8266.c:999:17
	ldr	r0, [sp, #12]                   @ 4-byte Reload
.Ltmp475:
	@DEBUG_VALUE: ARM_WIFI_SetOption:data <- $r0
	ldr	r0, [r0]
.Ltmp476:
	@DEBUG_VALUE: ARM_WIFI_SetOption:data <- [DW_OP_LLVM_entry_value 1] $r2
	@DEBUG_VALUE: ARM_WIFI_SetOption:u32 <- $r0
	.loc	2 0 17 is_stmt 0                @ C:/Users/shw26/AppData/Local/Arm/Packs/ARM/CMSIS-Driver/2.6.1/WiFi/ESP8266/WiFi_ESP8266.c:0:17
	movs	r1, #76
	.loc	2 1002 27 is_stmt 1             @ C:/Users/shw26/AppData/Local/Arm/Packs/ARM/CMSIS-Driver/2.6.1/WiFi/ESP8266/WiFi_ESP8266.c:1002:27
	ldr	r2, __arm_cp.9_0
	strb	r0, [r2, r1]
	.loc	2 1008 36                       @ C:/Users/shw26/AppData/Local/Arm/Packs/ARM/CMSIS-Driver/2.6.1/WiFi/ESP8266/WiFi_ESP8266.c:1008:36
	lsls	r0, r0, #2
.Ltmp477:
	.loc	2 1008 16 is_stmt 0             @ C:/Users/shw26/AppData/Local/Arm/Packs/ARM/CMSIS-Driver/2.6.1/WiFi/ESP8266/WiFi_ESP8266.c:1008:16
	bl	AT_Cmd_TxPower
.Ltmp478:
	@DEBUG_VALUE: ARM_WIFI_SetOption:ex <- $r0
	.loc	2 0 16                          @ C:/Users/shw26/AppData/Local/Arm/Packs/ARM/CMSIS-Driver/2.6.1/WiFi/ESP8266/WiFi_ESP8266.c:0:16
	b	.LBB9_55
.Ltmp479:
.LBB9_30:
	@DEBUG_VALUE: ARM_WIFI_SetOption:data <- [DW_OP_plus_uconst 12] [$sp+0]
	@DEBUG_VALUE: ARM_WIFI_SetOption:len <- $r5
	@DEBUG_VALUE: ARM_WIFI_SetOption:interface <- $r4
	@DEBUG_VALUE: ARM_WIFI_SetOption:ex <- -1
	@DEBUG_VALUE: ARM_WIFI_SetOption:rval <- -1
	.loc	2 1014 13 is_stmt 1             @ C:/Users/shw26/AppData/Local/Arm/Packs/ARM/CMSIS-Driver/2.6.1/WiFi/ESP8266/WiFi_ESP8266.c:1014:13
	cmp	r4, #0
.Ltmp480:
	.loc	2 0 0 is_stmt 0                 @ C:/Users/shw26/AppData/Local/Arm/Packs/ARM/CMSIS-Driver/2.6.1/WiFi/ESP8266/WiFi_ESP8266.c:0:0
	mov	r0, r6
.Ltmp481:
	.loc	2 1014 13                       @ C:/Users/shw26/AppData/Local/Arm/Packs/ARM/CMSIS-Driver/2.6.1/WiFi/ESP8266/WiFi_ESP8266.c:1014:13
	bne	.LBB9_50
.Ltmp482:
@ %bb.31:
	@DEBUG_VALUE: ARM_WIFI_SetOption:data <- [DW_OP_plus_uconst 12] [$sp+0]
	@DEBUG_VALUE: ARM_WIFI_SetOption:len <- $r5
	@DEBUG_VALUE: ARM_WIFI_SetOption:interface <- $r4
	@DEBUG_VALUE: ARM_WIFI_SetOption:ex <- -1
	@DEBUG_VALUE: ARM_WIFI_SetOption:rval <- -1
	.loc	2 1018 17 is_stmt 1             @ C:/Users/shw26/AppData/Local/Arm/Packs/ARM/CMSIS-Driver/2.6.1/WiFi/ESP8266/WiFi_ESP8266.c:1018:17
	ldr	r0, [sp, #12]                   @ 4-byte Reload
.Ltmp483:
	@DEBUG_VALUE: ARM_WIFI_SetOption:data <- $r0
	ldr	r0, [r0]
.Ltmp484:
	@DEBUG_VALUE: ARM_WIFI_SetOption:data <- [DW_OP_LLVM_entry_value 1] $r2
	@DEBUG_VALUE: ARM_WIFI_SetOption:u32 <- $r0
	.loc	2 1020 27                       @ C:/Users/shw26/AppData/Local/Arm/Packs/ARM/CMSIS-Driver/2.6.1/WiFi/ESP8266/WiFi_ESP8266.c:1020:27
	ldr	r1, __arm_cp.9_0
	str	r0, [r1, #72]
.Ltmp485:
	@DEBUG_VALUE: ARM_WIFI_SetOption:rval <- 0
	.loc	2 0 27 is_stmt 0                @ C:/Users/shw26/AppData/Local/Arm/Packs/ARM/CMSIS-Driver/2.6.1/WiFi/ESP8266/WiFi_ESP8266.c:0:27
	b	.LBB9_48
.Ltmp486:
.LBB9_32:
	@DEBUG_VALUE: ARM_WIFI_SetOption:data <- [DW_OP_plus_uconst 12] [$sp+0]
	@DEBUG_VALUE: ARM_WIFI_SetOption:len <- $r5
	@DEBUG_VALUE: ARM_WIFI_SetOption:interface <- $r4
	@DEBUG_VALUE: ARM_WIFI_SetOption:ex <- -1
	@DEBUG_VALUE: ARM_WIFI_SetOption:rval <- -1
	.loc	2 1035 13 is_stmt 1             @ C:/Users/shw26/AppData/Local/Arm/Packs/ARM/CMSIS-Driver/2.6.1/WiFi/ESP8266/WiFi_ESP8266.c:1035:13
	cmp	r5, #6
	bhs	.LBB9_38
.Ltmp487:
.LBB9_33:
	@DEBUG_VALUE: ARM_WIFI_SetOption:data <- [DW_OP_plus_uconst 12] [$sp+0]
	@DEBUG_VALUE: ARM_WIFI_SetOption:len <- $r5
	@DEBUG_VALUE: ARM_WIFI_SetOption:interface <- $r4
	@DEBUG_VALUE: ARM_WIFI_SetOption:ex <- -1
	@DEBUG_VALUE: ARM_WIFI_SetOption:rval <- -1
	.loc	2 0 13 is_stmt 0                @ C:/Users/shw26/AppData/Local/Arm/Packs/ARM/CMSIS-Driver/2.6.1/WiFi/ESP8266/WiFi_ESP8266.c:0:13
	subs	r7, r6, #4
	b	.LBB9_49
.Ltmp488:
.LBB9_34:
	@DEBUG_VALUE: ARM_WIFI_SetOption:data <- [DW_OP_plus_uconst 12] [$sp+0]
	@DEBUG_VALUE: ARM_WIFI_SetOption:len <- $r5
	@DEBUG_VALUE: ARM_WIFI_SetOption:interface <- $r4
	@DEBUG_VALUE: ARM_WIFI_SetOption:ex <- -1
	@DEBUG_VALUE: ARM_WIFI_SetOption:rval <- -1
	ldr	r5, __arm_cp.9_0
.Ltmp489:
	mov	r7, r3
.Ltmp490:
	ldrh	r0, [r5, r3]
.Ltmp491:
	.loc	2 1080 15 is_stmt 1             @ C:/Users/shw26/AppData/Local/Arm/Packs/ARM/CMSIS-Driver/2.6.1/WiFi/ESP8266/WiFi_ESP8266.c:1080:15
	ldr	r1, [sp, #12]                   @ 4-byte Reload
.Ltmp492:
	@DEBUG_VALUE: ARM_WIFI_SetOption:data <- $r1
	ldr	r2, [r1]
.Ltmp493:
	@DEBUG_VALUE: ARM_WIFI_SetOption:u32 <- $r2
	.loc	2 1082 13                       @ C:/Users/shw26/AppData/Local/Arm/Packs/ARM/CMSIS-Driver/2.6.1/WiFi/ESP8266/WiFi_ESP8266.c:1082:13
	cmp	r4, #0
	beq	.LBB9_45
.Ltmp494:
@ %bb.35:
	@DEBUG_VALUE: ARM_WIFI_SetOption:interface <- $r4
	@DEBUG_VALUE: ARM_WIFI_SetOption:u32 <- $r2
	@DEBUG_VALUE: ARM_WIFI_SetOption:data <- $r1
	@DEBUG_VALUE: ARM_WIFI_SetOption:ex <- -1
	@DEBUG_VALUE: ARM_WIFI_SetOption:rval <- -1
	.loc	2 0 0 is_stmt 0                 @ C:/Users/shw26/AppData/Local/Arm/Packs/ARM/CMSIS-Driver/2.6.1/WiFi/ESP8266/WiFi_ESP8266.c:0:0
	rsbs	r1, r2, #0
.Ltmp495:
	@DEBUG_VALUE: ARM_WIFI_SetOption:data <- [DW_OP_LLVM_entry_value 1] $r2
	adcs	r1, r2
.Ltmp496:
	.loc	2 1096 15 is_stmt 1             @ C:/Users/shw26/AppData/Local/Arm/Packs/ARM/CMSIS-Driver/2.6.1/WiFi/ESP8266/WiFi_ESP8266.c:1096:15
	lsls	r1, r1, #8
	ldr	r2, __arm_cp.9_1
.Ltmp497:
	ands	r0, r2
	adds	r0, r0, r1
.Ltmp498:
	.loc	2 0 0 is_stmt 0                 @ C:/Users/shw26/AppData/Local/Arm/Packs/ARM/CMSIS-Driver/2.6.1/WiFi/ESP8266/WiFi_ESP8266.c:0:0
	strh	r0, [r5, r7]
.Ltmp499:
	@DEBUG_VALUE: ARM_WIFI_SetOption:rval <- 0
	b	.LBB9_48
.Ltmp500:
.LBB9_36:
	@DEBUG_VALUE: ARM_WIFI_SetOption:data <- [DW_OP_plus_uconst 12] [$sp+0]
	@DEBUG_VALUE: ARM_WIFI_SetOption:len <- $r5
	@DEBUG_VALUE: ARM_WIFI_SetOption:interface <- $r4
	@DEBUG_VALUE: ARM_WIFI_SetOption:ex <- -1
	@DEBUG_VALUE: ARM_WIFI_SetOption:rval <- -1
	ldr	r2, [sp, #12]                   @ 4-byte Reload
.Ltmp501:
	@DEBUG_VALUE: ARM_WIFI_SetOption:data <- $r2
	.loc	2 1118 13 is_stmt 1             @ C:/Users/shw26/AppData/Local/Arm/Packs/ARM/CMSIS-Driver/2.6.1/WiFi/ESP8266/WiFi_ESP8266.c:1118:13
	ldrb	r0, [r2]
	ldrb	r1, [r2, #1]
	lsls	r1, r1, #8
	adds	r0, r1, r0
	ldrb	r1, [r2, #2]
	ldrb	r2, [r2, #3]
.Ltmp502:
	@DEBUG_VALUE: ARM_WIFI_SetOption:data <- [DW_OP_LLVM_entry_value 1] $r2
	lsls	r2, r2, #8
	adds	r1, r2, r1
	lsls	r1, r1, #16
	adds	r0, r1, r0
	ldr	r1, __arm_cp.9_0
	str	r0, [r1, #64]
	b	.LBB9_48
.Ltmp503:
.LBB9_37:
	@DEBUG_VALUE: ARM_WIFI_SetOption:data <- [DW_OP_plus_uconst 12] [$sp+0]
	@DEBUG_VALUE: ARM_WIFI_SetOption:len <- $r5
	@DEBUG_VALUE: ARM_WIFI_SetOption:interface <- $r4
	@DEBUG_VALUE: ARM_WIFI_SetOption:ex <- -1
	@DEBUG_VALUE: ARM_WIFI_SetOption:rval <- -1
	.loc	2 1121 20                       @ C:/Users/shw26/AppData/Local/Arm/Packs/ARM/CMSIS-Driver/2.6.1/WiFi/ESP8266/WiFi_ESP8266.c:1121:20
	ldr	r0, [sp, #12]                   @ 4-byte Reload
.Ltmp504:
	@DEBUG_VALUE: ARM_WIFI_SetOption:data <- $r0
	ldr	r0, [r0]
.Ltmp505:
	@DEBUG_VALUE: ARM_WIFI_SetOption:data <- [DW_OP_LLVM_entry_value 1] $r2
	@DEBUG_VALUE: ARM_WIFI_SetOption:u32 <- $r0
	.loc	2 1123 42                       @ C:/Users/shw26/AppData/Local/Arm/Packs/ARM/CMSIS-Driver/2.6.1/WiFi/ESP8266/WiFi_ESP8266.c:1123:42
	ldr	r1, __arm_cp.9_0
	str	r0, [r1, #68]
	b	.LBB9_48
.Ltmp506:
.LBB9_38:
	@DEBUG_VALUE: ARM_WIFI_SetOption:data <- [DW_OP_plus_uconst 12] [$sp+0]
	@DEBUG_VALUE: ARM_WIFI_SetOption:len <- $r5
	@DEBUG_VALUE: ARM_WIFI_SetOption:interface <- $r4
	@DEBUG_VALUE: ARM_WIFI_SetOption:ex <- -1
	@DEBUG_VALUE: ARM_WIFI_SetOption:rval <- -1
	.loc	2 1039 15                       @ C:/Users/shw26/AppData/Local/Arm/Packs/ARM/CMSIS-Driver/2.6.1/WiFi/ESP8266/WiFi_ESP8266.c:1039:15
	cmp	r4, #0
	beq	.LBB9_54
.Ltmp507:
@ %bb.39:
	@DEBUG_VALUE: ARM_WIFI_SetOption:data <- [DW_OP_plus_uconst 12] [$sp+0]
	@DEBUG_VALUE: ARM_WIFI_SetOption:len <- $r5
	@DEBUG_VALUE: ARM_WIFI_SetOption:interface <- $r4
	@DEBUG_VALUE: ARM_WIFI_SetOption:ex <- -1
	@DEBUG_VALUE: ARM_WIFI_SetOption:rval <- -1
	.loc	2 1044 13                       @ C:/Users/shw26/AppData/Local/Arm/Packs/ARM/CMSIS-Driver/2.6.1/WiFi/ESP8266/WiFi_ESP8266.c:1044:13
	ldr	r0, __arm_cp.9_0
	adds	r0, #42
.Ltmp508:
.LBB9_40:
	@DEBUG_VALUE: ARM_WIFI_SetOption:data <- [DW_OP_plus_uconst 12] [$sp+0]
	@DEBUG_VALUE: ARM_WIFI_SetOption:len <- $r5
	@DEBUG_VALUE: ARM_WIFI_SetOption:interface <- $r4
	@DEBUG_VALUE: ARM_WIFI_SetOption:ex <- -1
	@DEBUG_VALUE: ARM_WIFI_SetOption:rval <- -1
	.loc	2 0 13 is_stmt 0                @ C:/Users/shw26/AppData/Local/Arm/Packs/ARM/CMSIS-Driver/2.6.1/WiFi/ESP8266/WiFi_ESP8266.c:0:13
	movs	r2, #6
	ldr	r1, [sp, #12]                   @ 4-byte Reload
.Ltmp509:
	@DEBUG_VALUE: ARM_WIFI_SetOption:data <- $r1
	bl	__aeabi_memcpy
.Ltmp510:
	@DEBUG_VALUE: ARM_WIFI_SetOption:data <- [DW_OP_LLVM_entry_value 1] $r2
	@DEBUG_VALUE: ARM_WIFI_SetOption:rval <- 0
	ldr	r7, [sp, #8]                    @ 4-byte Reload
	ldr	r0, [sp, #4]                    @ 4-byte Reload
.Ltmp511:
	@DEBUG_VALUE: ARM_WIFI_SetOption:rval <- $r7
	@DEBUG_VALUE: ARM_WIFI_SetOption:ex <- $r0
	.loc	2 1130 9 is_stmt 1              @ C:/Users/shw26/AppData/Local/Arm/Packs/ARM/CMSIS-Driver/2.6.1/WiFi/ESP8266/WiFi_ESP8266.c:1130:9
	cmp	r0, #0
	bne	.LBB9_56
	b	.LBB9_51
.Ltmp512:
.LBB9_41:
	@DEBUG_VALUE: ARM_WIFI_SetOption:len <- $r5
	@DEBUG_VALUE: ARM_WIFI_SetOption:data <- $r2
	@DEBUG_VALUE: ARM_WIFI_SetOption:interface <- [DW_OP_LLVM_entry_value 1] $r0
	@DEBUG_VALUE: ARM_WIFI_SetOption:ex <- -1
	@DEBUG_VALUE: ARM_WIFI_SetOption:rval <- -1
	.loc	2 1062 57                       @ C:/Users/shw26/AppData/Local/Arm/Packs/ARM/CMSIS-Driver/2.6.1/WiFi/ESP8266/WiFi_ESP8266.c:1062:57
	ldrb	r0, [r2]
	ldrb	r1, [r2, #1]
	lsls	r1, r1, #8
	adds	r0, r1, r0
	ldrb	r1, [r2, #2]
	ldrb	r2, [r2, #3]
.Ltmp513:
	@DEBUG_VALUE: ARM_WIFI_SetOption:data <- [DW_OP_LLVM_entry_value 1] $r2
	lsls	r2, r2, #8
	adds	r1, r2, r1
	lsls	r1, r1, #16
	adds	r0, r1, r0
	str	r0, [r4, #52]
	b	.LBB9_48
.Ltmp514:
.LBB9_42:
	@DEBUG_VALUE: ARM_WIFI_SetOption:len <- $r5
	@DEBUG_VALUE: ARM_WIFI_SetOption:data <- $r2
	@DEBUG_VALUE: ARM_WIFI_SetOption:interface <- [DW_OP_LLVM_entry_value 1] $r0
	@DEBUG_VALUE: ARM_WIFI_SetOption:ex <- -1
	@DEBUG_VALUE: ARM_WIFI_SetOption:rval <- -1
	.loc	2 1061 57                       @ C:/Users/shw26/AppData/Local/Arm/Packs/ARM/CMSIS-Driver/2.6.1/WiFi/ESP8266/WiFi_ESP8266.c:1061:57
	ldrb	r0, [r2]
	ldrb	r1, [r2, #1]
	lsls	r1, r1, #8
	adds	r0, r1, r0
	ldrb	r1, [r2, #2]
	ldrb	r2, [r2, #3]
.Ltmp515:
	@DEBUG_VALUE: ARM_WIFI_SetOption:data <- [DW_OP_LLVM_entry_value 1] $r2
	lsls	r2, r2, #8
	adds	r1, r2, r1
	lsls	r1, r1, #16
	adds	r0, r1, r0
	str	r0, [r4, #56]
	b	.LBB9_48
.Ltmp516:
.LBB9_43:
	@DEBUG_VALUE: ARM_WIFI_SetOption:len <- $r5
	@DEBUG_VALUE: ARM_WIFI_SetOption:interface <- $r4
	@DEBUG_VALUE: ARM_WIFI_SetOption:ip_1 <- [DW_OP_plus_uconst 20, DW_OP_deref] $sp
	@DEBUG_VALUE: ARM_WIFI_SetOption:ip_0 <- [DW_OP_plus_uconst 24, DW_OP_deref] $sp
	@DEBUG_VALUE: ARM_WIFI_SetOption:data <- [DW_OP_LLVM_entry_value 1] $r2
	@DEBUG_VALUE: ARM_WIFI_SetOption:rval <- -1
	@DEBUG_VALUE: ARM_WIFI_SetOption:ip_1 <- $r0
	.loc	2 1073 45                       @ C:/Users/shw26/AppData/Local/Arm/Packs/ARM/CMSIS-Driver/2.6.1/WiFi/ESP8266/WiFi_ESP8266.c:1073:45
	str	r0, [sp, #20]
.Ltmp517:
.LBB9_44:
	@DEBUG_VALUE: ARM_WIFI_SetOption:len <- $r5
	@DEBUG_VALUE: ARM_WIFI_SetOption:interface <- $r4
	@DEBUG_VALUE: ARM_WIFI_SetOption:data <- [DW_OP_LLVM_entry_value 1] $r2
	@DEBUG_VALUE: ARM_WIFI_SetOption:rval <- -1
	@DEBUG_VALUE: ARM_WIFI_SetOption:ip_0 <- [DW_OP_plus_uconst 24, DW_OP_deref] $sp
	@DEBUG_VALUE: ARM_WIFI_SetOption:ip_1 <- [DW_OP_plus_uconst 20, DW_OP_deref] $sp
	.loc	2 0 45 is_stmt 0                @ C:/Users/shw26/AppData/Local/Arm/Packs/ARM/CMSIS-Driver/2.6.1/WiFi/ESP8266/WiFi_ESP8266.c:0:45
	movs	r0, #1
	add	r2, sp, #24
	add	r3, sp, #20
	.loc	2 1075 16 is_stmt 1             @ C:/Users/shw26/AppData/Local/Arm/Packs/ARM/CMSIS-Driver/2.6.1/WiFi/ESP8266/WiFi_ESP8266.c:1075:16
	mov	r1, r0
	bl	AT_Cmd_DNS
.Ltmp518:
	@DEBUG_VALUE: ARM_WIFI_SetOption:ex <- $r0
	.loc	2 0 16 is_stmt 0                @ C:/Users/shw26/AppData/Local/Arm/Packs/ARM/CMSIS-Driver/2.6.1/WiFi/ESP8266/WiFi_ESP8266.c:0:16
	b	.LBB9_55
.Ltmp519:
.LBB9_45:
	@DEBUG_VALUE: ARM_WIFI_SetOption:interface <- $r4
	@DEBUG_VALUE: ARM_WIFI_SetOption:u32 <- $r2
	@DEBUG_VALUE: ARM_WIFI_SetOption:data <- $r1
	@DEBUG_VALUE: ARM_WIFI_SetOption:ex <- -1
	@DEBUG_VALUE: ARM_WIFI_SetOption:rval <- -1
	rsbs	r1, r2, #0
.Ltmp520:
	@DEBUG_VALUE: ARM_WIFI_SetOption:data <- [DW_OP_LLVM_entry_value 1] $r2
	adcs	r1, r2
.Ltmp521:
	.loc	2 1083 15 is_stmt 1             @ C:/Users/shw26/AppData/Local/Arm/Packs/ARM/CMSIS-Driver/2.6.1/WiFi/ESP8266/WiFi_ESP8266.c:1083:15
	lsls	r1, r1, #7
	movs	r3, #128
	bics	r0, r3
	adds	r0, r0, r1
.Ltmp522:
	.loc	2 0 0 is_stmt 0                 @ C:/Users/shw26/AppData/Local/Arm/Packs/ARM/CMSIS-Driver/2.6.1/WiFi/ESP8266/WiFi_ESP8266.c:0:0
	strh	r0, [r5, r7]
.Ltmp523:
	.loc	2 1093 51 is_stmt 1             @ C:/Users/shw26/AppData/Local/Arm/Packs/ARM/CMSIS-Driver/2.6.1/WiFi/ESP8266/WiFi_ESP8266.c:1093:51
	subs	r0, r2, #1
	sbcs	r2, r0
.Ltmp524:
	.loc	2 0 51 is_stmt 0                @ C:/Users/shw26/AppData/Local/Arm/Packs/ARM/CMSIS-Driver/2.6.1/WiFi/ESP8266/WiFi_ESP8266.c:0:51
	movs	r0, #1
	.loc	2 1093 16                       @ C:/Users/shw26/AppData/Local/Arm/Packs/ARM/CMSIS-Driver/2.6.1/WiFi/ESP8266/WiFi_ESP8266.c:1093:16
	mov	r1, r0
	bl	AT_Cmd_DHCP
.Ltmp525:
	@DEBUG_VALUE: ARM_WIFI_SetOption:ex <- $r0
	.loc	2 0 16                          @ C:/Users/shw26/AppData/Local/Arm/Packs/ARM/CMSIS-Driver/2.6.1/WiFi/ESP8266/WiFi_ESP8266.c:0:16
	b	.LBB9_55
.Ltmp526:
.LBB9_46:
	@DEBUG_VALUE: ARM_WIFI_SetOption:len <- $r5
	@DEBUG_VALUE: ARM_WIFI_SetOption:data <- $r2
	@DEBUG_VALUE: ARM_WIFI_SetOption:interface <- [DW_OP_LLVM_entry_value 1] $r0
	@DEBUG_VALUE: ARM_WIFI_SetOption:ex <- -1
	@DEBUG_VALUE: ARM_WIFI_SetOption:rval <- -1
	.loc	2 1057 57 is_stmt 1             @ C:/Users/shw26/AppData/Local/Arm/Packs/ARM/CMSIS-Driver/2.6.1/WiFi/ESP8266/WiFi_ESP8266.c:1057:57
	ldrb	r0, [r2]
	ldrb	r1, [r2, #1]
	lsls	r1, r1, #8
	adds	r0, r1, r0
	ldrb	r1, [r2, #2]
	ldrb	r2, [r2, #3]
.Ltmp527:
	@DEBUG_VALUE: ARM_WIFI_SetOption:data <- [DW_OP_LLVM_entry_value 1] $r2
	lsls	r2, r2, #8
	adds	r1, r2, r1
	lsls	r1, r1, #16
	adds	r0, r1, r0
	str	r0, [r4, #28]
	b	.LBB9_48
.Ltmp528:
.LBB9_47:
	@DEBUG_VALUE: ARM_WIFI_SetOption:len <- $r5
	@DEBUG_VALUE: ARM_WIFI_SetOption:data <- $r2
	@DEBUG_VALUE: ARM_WIFI_SetOption:interface <- [DW_OP_LLVM_entry_value 1] $r0
	@DEBUG_VALUE: ARM_WIFI_SetOption:ex <- -1
	@DEBUG_VALUE: ARM_WIFI_SetOption:rval <- -1
	.loc	2 1056 57                       @ C:/Users/shw26/AppData/Local/Arm/Packs/ARM/CMSIS-Driver/2.6.1/WiFi/ESP8266/WiFi_ESP8266.c:1056:57
	ldrb	r0, [r2]
	ldrb	r1, [r2, #1]
	lsls	r1, r1, #8
	adds	r0, r1, r0
	ldrb	r1, [r2, #2]
	ldrb	r2, [r2, #3]
.Ltmp529:
	@DEBUG_VALUE: ARM_WIFI_SetOption:data <- [DW_OP_LLVM_entry_value 1] $r2
	lsls	r2, r2, #8
	adds	r1, r2, r1
	lsls	r1, r1, #16
	adds	r0, r1, r0
	str	r0, [r4, #32]
.Ltmp530:
.LBB9_48:
	@DEBUG_VALUE: ARM_WIFI_SetOption:ex <- -1
	.loc	2 0 0 is_stmt 0                 @ C:/Users/shw26/AppData/Local/Arm/Packs/ARM/CMSIS-Driver/2.6.1/WiFi/ESP8266/WiFi_ESP8266.c:0:0
	ldr	r7, [sp, #8]                    @ 4-byte Reload
.Ltmp531:
.LBB9_49:
	@DEBUG_VALUE: ARM_WIFI_SetOption:ex <- -1
	mov	r0, r6
.Ltmp532:
.LBB9_50:
	@DEBUG_VALUE: ARM_WIFI_SetOption:rval <- $r7
	@DEBUG_VALUE: ARM_WIFI_SetOption:ex <- $r0
	.loc	2 1130 9 is_stmt 1              @ C:/Users/shw26/AppData/Local/Arm/Packs/ARM/CMSIS-Driver/2.6.1/WiFi/ESP8266/WiFi_ESP8266.c:1130:9
	cbnz	r0, .LBB9_56
.Ltmp533:
.LBB9_51:
	@DEBUG_VALUE: ARM_WIFI_SetOption:rval <- $r7
	@DEBUG_VALUE: ARM_WIFI_SetOption:ex <- $r0
	.loc	2 0 9 is_stmt 0                 @ C:/Users/shw26/AppData/Local/Arm/Packs/ARM/CMSIS-Driver/2.6.1/WiFi/ESP8266/WiFi_ESP8266.c:0:9
	movs	r0, #1
.Ltmp534:
	ldr	r1, __arm_cp.9_2
.Ltmp535:
	.loc	2 1132 12 is_stmt 1             @ C:/Users/shw26/AppData/Local/Arm/Packs/ARM/CMSIS-Driver/2.6.1/WiFi/ESP8266/WiFi_ESP8266.c:1132:12
	bl	WiFi_Wait
.Ltmp536:
	@DEBUG_VALUE: ARM_WIFI_SetOption:ex <- $r0
	.loc	2 1134 11                       @ C:/Users/shw26/AppData/Local/Arm/Packs/ARM/CMSIS-Driver/2.6.1/WiFi/ESP8266/WiFi_ESP8266.c:1134:11
	cbnz	r0, .LBB9_56
.Ltmp537:
@ %bb.52:
	@DEBUG_VALUE: ARM_WIFI_SetOption:rval <- $r7
	@DEBUG_VALUE: ARM_WIFI_SetOption:ex <- $r0
	.loc	2 1136 14                       @ C:/Users/shw26/AppData/Local/Arm/Packs/ARM/CMSIS-Driver/2.6.1/WiFi/ESP8266/WiFi_ESP8266.c:1136:14
	bl	AT_Resp_Generic
.Ltmp538:
	@DEBUG_VALUE: ARM_WIFI_SetOption:ex <- $r0
	.loc	2 1138 13                       @ C:/Users/shw26/AppData/Local/Arm/Packs/ARM/CMSIS-Driver/2.6.1/WiFi/ESP8266/WiFi_ESP8266.c:1138:13
	cbnz	r0, .LBB9_56
.Ltmp539:
@ %bb.53:
	@DEBUG_VALUE: ARM_WIFI_SetOption:rval <- $r7
	@DEBUG_VALUE: ARM_WIFI_SetOption:ex <- $r0
	mov	r7, r0
.Ltmp540:
	@DEBUG_VALUE: ARM_WIFI_SetOption:ex <- $r7
	.loc	2 0 13 is_stmt 0                @ C:/Users/shw26/AppData/Local/Arm/Packs/ARM/CMSIS-Driver/2.6.1/WiFi/ESP8266/WiFi_ESP8266.c:0:13
	b	.LBB9_56
.Ltmp541:
.LBB9_54:
	@DEBUG_VALUE: ARM_WIFI_SetOption:data <- [DW_OP_plus_uconst 12] [$sp+0]
	@DEBUG_VALUE: ARM_WIFI_SetOption:len <- $r5
	@DEBUG_VALUE: ARM_WIFI_SetOption:interface <- $r4
	@DEBUG_VALUE: ARM_WIFI_SetOption:ex <- -1
	@DEBUG_VALUE: ARM_WIFI_SetOption:rval <- -1
	movs	r0, #1
.Ltmp542:
	.loc	2 1041 18 is_stmt 1             @ C:/Users/shw26/AppData/Local/Arm/Packs/ARM/CMSIS-Driver/2.6.1/WiFi/ESP8266/WiFi_ESP8266.c:1041:18
	ldr	r1, [sp, #12]                   @ 4-byte Reload
.Ltmp543:
	@DEBUG_VALUE: ARM_WIFI_SetOption:data <- $r1
	bl	AT_Cmd_StationMAC
.Ltmp544:
	@DEBUG_VALUE: ARM_WIFI_SetOption:data <- [DW_OP_LLVM_entry_value 1] $r2
	@DEBUG_VALUE: ARM_WIFI_SetOption:ex <- $r0
.LBB9_55:
	@DEBUG_VALUE: ARM_WIFI_SetOption:interface <- $r4
	@DEBUG_VALUE: ARM_WIFI_SetOption:ex <- $r0
	@DEBUG_VALUE: ARM_WIFI_SetOption:data <- [DW_OP_LLVM_entry_value 1] $r2
	@DEBUG_VALUE: ARM_WIFI_SetOption:rval <- -1
	.loc	2 0 0 is_stmt 0                 @ C:/Users/shw26/AppData/Local/Arm/Packs/ARM/CMSIS-Driver/2.6.1/WiFi/ESP8266/WiFi_ESP8266.c:0:0
	ldr	r7, [sp, #4]                    @ 4-byte Reload
.Ltmp545:
	@DEBUG_VALUE: ARM_WIFI_SetOption:rval <- $r7
	@DEBUG_VALUE: ARM_WIFI_SetOption:ex <- $r0
	.loc	2 1130 9 is_stmt 1              @ C:/Users/shw26/AppData/Local/Arm/Packs/ARM/CMSIS-Driver/2.6.1/WiFi/ESP8266/WiFi_ESP8266.c:1130:9
	cmp	r0, #0
	beq	.LBB9_51
.Ltmp546:
.LBB9_56:
	@DEBUG_VALUE: ARM_WIFI_SetOption:rval <- $r7
	.loc	2 1145 32                       @ C:/Users/shw26/AppData/Local/Arm/Packs/ARM/CMSIS-Driver/2.6.1/WiFi/ESP8266/WiFi_ESP8266.c:1145:32
	ldr	r0, __arm_cp.9_0
	ldr	r0, [r0, #16]
	.loc	2 1145 9 is_stmt 0              @ C:/Users/shw26/AppData/Local/Arm/Packs/ARM/CMSIS-Driver/2.6.1/WiFi/ESP8266/WiFi_ESP8266.c:1145:9
	bl	osMutexRelease
.Ltmp547:
	.loc	2 1145 9                        @ C:/Users/shw26/AppData/Local/Arm/Packs/ARM/CMSIS-Driver/2.6.1/WiFi/ESP8266/WiFi_ESP8266.c:1145:9
	cbz	r0, .LBB9_58
.Ltmp548:
@ %bb.57:
	@DEBUG_VALUE: ARM_WIFI_SetOption:rval <- $r7
	ldr	r7, [sp, #4]                    @ 4-byte Reload
.Ltmp549:
.LBB9_58:
	@DEBUG_VALUE: ARM_WIFI_SetOption:rval <- $r7
	.loc	2 1151 3 is_stmt 1              @ C:/Users/shw26/AppData/Local/Arm/Packs/ARM/CMSIS-Driver/2.6.1/WiFi/ESP8266/WiFi_ESP8266.c:1151:3
	mov	r0, r7
	add	sp, #28
	pop	{r4, r5, r6, r7, pc}
.Ltmp550:
	.p2align	2
@ %bb.59:
	.loc	2 0 3 is_stmt 0                 @ C:/Users/shw26/AppData/Local/Arm/Packs/ARM/CMSIS-Driver/2.6.1/WiFi/ESP8266/WiFi_ESP8266.c:0:3
__arm_cp.9_0:
	.long	WIFI_Ctrl
.Lcpi_end22:
	.size	__arm_cp.9_0, .Lcpi_end22-__arm_cp.9_0
__arm_cp.9_1:
	.long	65279                           @ 0xfeff
.Lcpi_end23:
	.size	__arm_cp.9_1, .Lcpi_end23-__arm_cp.9_1
__arm_cp.9_2:
	.long	5000                            @ 0x1388
.Lcpi_end24:
	.size	__arm_cp.9_2, .Lcpi_end24-__arm_cp.9_2
.Lfunc_end9:
	.size	ARM_WIFI_SetOption, .Lfunc_end9-ARM_WIFI_SetOption
	.cfi_endproc
	.cantunwind
	.fnend
                                        @ -- End function
	.section	.text.ARM_WIFI_GetOption,"ax",%progbits
	.p2align	2                               @ -- Begin function ARM_WIFI_GetOption
	.type	ARM_WIFI_GetOption,%function
	.code	16                              @ @ARM_WIFI_GetOption
	.thumb_func
ARM_WIFI_GetOption:
.Lfunc_begin10:
	.loc	2 1170 0 is_stmt 1              @ C:/Users/shw26/AppData/Local/Arm/Packs/ARM/CMSIS-Driver/2.6.1/WiFi/ESP8266/WiFi_ESP8266.c:1170:0
	.fnstart
	.cfi_startproc
@ %bb.0:
	@DEBUG_VALUE: ARM_WIFI_GetOption:interface <- $r0
	@DEBUG_VALUE: ARM_WIFI_GetOption:option <- $r1
	@DEBUG_VALUE: ARM_WIFI_GetOption:data <- $r2
	@DEBUG_VALUE: ARM_WIFI_GetOption:len <- $r3
	.save	{r4, r5, r6, r7, lr}
	push	{r4, r5, r6, r7, lr}
	.cfi_def_cfa_offset 20
	.cfi_offset lr, -4
	.cfi_offset r7, -8
	.cfi_offset r6, -12
	.cfi_offset r5, -16
	.cfi_offset r4, -20
	.pad	#36
	sub	sp, #36
	.cfi_def_cfa_offset 56
	mov	r6, r3
	mov	r3, r1
.Ltmp551:
	@DEBUG_VALUE: ARM_WIFI_GetOption:len <- [DW_OP_LLVM_entry_value 1] $r3
	movs	r5, #0
	mvns	r1, r5
.Ltmp552:
	@DEBUG_VALUE: ARM_WIFI_GetOption:option <- [DW_OP_LLVM_entry_value 1] $r1
	@DEBUG_VALUE: ARM_WIFI_GetOption:len <- $r6
	@DEBUG_VALUE: ARM_WIFI_GetOption:data <- $r2
	@DEBUG_VALUE: ARM_WIFI_GetOption:option <- $r3
	@DEBUG_VALUE: ARM_WIFI_GetOption:interface <- $r0
	.loc	2 0 0 prologue_end              @ C:/Users/shw26/AppData/Local/Arm/Packs/ARM/CMSIS-Driver/2.6.1/WiFi/ESP8266/WiFi_ESP8266.c:0:0
	subs	r4, r1, #4
	.loc	2 1176 24                       @ C:/Users/shw26/AppData/Local/Arm/Packs/ARM/CMSIS-Driver/2.6.1/WiFi/ESP8266/WiFi_ESP8266.c:1176:24
	cmp	r0, #1
	bls	.LBB10_1
	b	.LBB10_55
.Ltmp553:
.LBB10_1:
	@DEBUG_VALUE: ARM_WIFI_GetOption:len <- $r6
	@DEBUG_VALUE: ARM_WIFI_GetOption:option <- $r3
	@DEBUG_VALUE: ARM_WIFI_GetOption:data <- $r2
	@DEBUG_VALUE: ARM_WIFI_GetOption:interface <- $r0
	@DEBUG_VALUE: ARM_WIFI_GetOption:interface <- $r0
	cmp	r2, #0
	bne	.LBB10_2
	b	.LBB10_55
.Ltmp554:
.LBB10_2:
	@DEBUG_VALUE: ARM_WIFI_GetOption:len <- $r6
	@DEBUG_VALUE: ARM_WIFI_GetOption:option <- $r3
	@DEBUG_VALUE: ARM_WIFI_GetOption:data <- $r2
	@DEBUG_VALUE: ARM_WIFI_GetOption:interface <- $r0
	.loc	2 0 24 is_stmt 0                @ C:/Users/shw26/AppData/Local/Arm/Packs/ARM/CMSIS-Driver/2.6.1/WiFi/ESP8266/WiFi_ESP8266.c:0:24
	mov	r7, r0
.Ltmp555:
	@DEBUG_VALUE: ARM_WIFI_GetOption:interface <- $r7
	.loc	2 1176 46                       @ C:/Users/shw26/AppData/Local/Arm/Packs/ARM/CMSIS-Driver/2.6.1/WiFi/ESP8266/WiFi_ESP8266.c:1176:46
	ldr	r0, [r6]
.Ltmp556:
	.loc	2 1176 7                        @ C:/Users/shw26/AppData/Local/Arm/Packs/ARM/CMSIS-Driver/2.6.1/WiFi/ESP8266/WiFi_ESP8266.c:1176:7
	cmp	r0, #4
	bhs	.LBB10_3
	b	.LBB10_55
.Ltmp557:
.LBB10_3:
	@DEBUG_VALUE: ARM_WIFI_GetOption:interface <- $r7
	@DEBUG_VALUE: ARM_WIFI_GetOption:len <- $r6
	@DEBUG_VALUE: ARM_WIFI_GetOption:option <- $r3
	@DEBUG_VALUE: ARM_WIFI_GetOption:data <- $r2
	.loc	2 0 7                           @ C:/Users/shw26/AppData/Local/Arm/Packs/ARM/CMSIS-Driver/2.6.1/WiFi/ESP8266/WiFi_ESP8266.c:0:7
	str	r3, [sp, #20]                   @ 4-byte Spill
.Ltmp558:
	@DEBUG_VALUE: ARM_WIFI_GetOption:option <- [DW_OP_plus_uconst 20] [$sp+0]
	movs	r0, #114
.Ltmp559:
	.loc	2 1179 19 is_stmt 1             @ C:/Users/shw26/AppData/Local/Arm/Packs/ARM/CMSIS-Driver/2.6.1/WiFi/ESP8266/WiFi_ESP8266.c:1179:19
	ldr	r3, __arm_cp.10_0
	ldrh	r0, [r3, r0]
.Ltmp560:
	.loc	2 1179 12 is_stmt 0             @ C:/Users/shw26/AppData/Local/Arm/Packs/ARM/CMSIS-Driver/2.6.1/WiFi/ESP8266/WiFi_ESP8266.c:1179:12
	cmp	r0, #0
	beq	.LBB10_12
.Ltmp561:
@ %bb.4:
	@DEBUG_VALUE: ARM_WIFI_GetOption:option <- [DW_OP_plus_uconst 20] [$sp+0]
	@DEBUG_VALUE: ARM_WIFI_GetOption:interface <- $r7
	@DEBUG_VALUE: ARM_WIFI_GetOption:len <- $r6
	@DEBUG_VALUE: ARM_WIFI_GetOption:data <- $r2
	.loc	2 0 12                          @ C:/Users/shw26/AppData/Local/Arm/Packs/ARM/CMSIS-Driver/2.6.1/WiFi/ESP8266/WiFi_ESP8266.c:0:12
	str	r2, [sp, #16]                   @ 4-byte Spill
.Ltmp562:
	@DEBUG_VALUE: ARM_WIFI_GetOption:data <- [DW_OP_plus_uconst 16] [$sp+0]
	.loc	2 1183 35 is_stmt 1             @ C:/Users/shw26/AppData/Local/Arm/Packs/ARM/CMSIS-Driver/2.6.1/WiFi/ESP8266/WiFi_ESP8266.c:1183:35
	ldr	r0, [r3, #16]
	mov	r4, r1
	.loc	2 1183 12 is_stmt 0             @ C:/Users/shw26/AppData/Local/Arm/Packs/ARM/CMSIS-Driver/2.6.1/WiFi/ESP8266/WiFi_ESP8266.c:1183:12
	bl	osMutexAcquire
.Ltmp563:
	.loc	2 1183 12                       @ C:/Users/shw26/AppData/Local/Arm/Packs/ARM/CMSIS-Driver/2.6.1/WiFi/ESP8266/WiFi_ESP8266.c:1183:12
	cmp	r0, #0
	beq	.LBB10_5
	b	.LBB10_55
.Ltmp564:
.LBB10_5:
	@DEBUG_VALUE: ARM_WIFI_GetOption:data <- [DW_OP_plus_uconst 16] [$sp+0]
	@DEBUG_VALUE: ARM_WIFI_GetOption:option <- [DW_OP_plus_uconst 20] [$sp+0]
	@DEBUG_VALUE: ARM_WIFI_GetOption:interface <- $r7
	@DEBUG_VALUE: ARM_WIFI_GetOption:len <- $r6
	@DEBUG_VALUE: ARM_WIFI_GetOption:rval <- -1
	@DEBUG_VALUE: ARM_WIFI_GetOption:ex <- -1
	.loc	2 0 0                           @ C:/Users/shw26/AppData/Local/Arm/Packs/ARM/CMSIS-Driver/2.6.1/WiFi/ESP8266/WiFi_ESP8266.c:0:0
	subs	r0, r4, #3
	.loc	2 1191 5 is_stmt 1              @ C:/Users/shw26/AppData/Local/Arm/Packs/ARM/CMSIS-Driver/2.6.1/WiFi/ESP8266/WiFi_ESP8266.c:1191:5
	str	r0, [sp, #12]                   @ 4-byte Spill
	ldr	r0, [sp, #20]                   @ 4-byte Reload
.Ltmp565:
	@DEBUG_VALUE: ARM_WIFI_GetOption:option <- $r0
	subs	r3, r0, #1
	cmp	r3, #14
	mov	r2, r4
	str	r4, [sp, #8]                    @ 4-byte Spill
	str	r3, [sp, #4]                    @ 4-byte Spill
	bls	.LBB10_6
	b	.LBB10_49
.Ltmp566:
.LBB10_6:
	@DEBUG_VALUE: ARM_WIFI_GetOption:data <- [DW_OP_plus_uconst 16] [$sp+0]
	@DEBUG_VALUE: ARM_WIFI_GetOption:interface <- $r7
	@DEBUG_VALUE: ARM_WIFI_GetOption:len <- $r6
	@DEBUG_VALUE: ARM_WIFI_GetOption:option <- $r0
	@DEBUG_VALUE: ARM_WIFI_GetOption:ex <- -1
	@DEBUG_VALUE: ARM_WIFI_GetOption:rval <- -1
	.loc	2 0 5 is_stmt 0                 @ C:/Users/shw26/AppData/Local/Arm/Packs/ARM/CMSIS-Driver/2.6.1/WiFi/ESP8266/WiFi_ESP8266.c:0:5
	lsls	r0, r3, #2
.Ltmp567:
	adr	r1, .LJTI10_0
	adds	r1, r1, r0
	mov	r0, r2
	ldr	r4, [sp, #16]                   @ 4-byte Reload
.Ltmp568:
	@DEBUG_VALUE: ARM_WIFI_GetOption:data <- $r4
	mov	pc, r1
.Ltmp569:
@ %bb.7:
	.p2align	2
.LJTI10_0:
	b.w	.LBB10_24
	b.w	.LBB10_27
	b.w	.LBB10_28
	b.w	.LBB10_50
	b.w	.LBB10_50
	b.w	.LBB10_31
	b.w	.LBB10_8
	b.w	.LBB10_8
	b.w	.LBB10_8
	b.w	.LBB10_17
	b.w	.LBB10_17
	b.w	.LBB10_33
	b.w	.LBB10_13
	b.w	.LBB10_13
	b.w	.LBB10_13
.LBB10_8:
.Ltmp570:
	@DEBUG_VALUE: ARM_WIFI_GetOption:interface <- $r7
	@DEBUG_VALUE: ARM_WIFI_GetOption:len <- $r6
	@DEBUG_VALUE: ARM_WIFI_GetOption:data <- $r4
	@DEBUG_VALUE: ARM_WIFI_GetOption:ex <- -1
	@DEBUG_VALUE: ARM_WIFI_GetOption:rval <- -1
	@DEBUG_VALUE: ARM_WIFI_GetOption:pu8 <- [DW_OP_plus_uconst 16] [$sp+0]
	.loc	2 1280 13 is_stmt 1             @ C:/Users/shw26/AppData/Local/Arm/Packs/ARM/CMSIS-Driver/2.6.1/WiFi/ESP8266/WiFi_ESP8266.c:1280:13
	cbz	r7, .LBB10_20
.Ltmp571:
@ %bb.9:
	@DEBUG_VALUE: ARM_WIFI_GetOption:interface <- $r7
	@DEBUG_VALUE: ARM_WIFI_GetOption:len <- $r6
	@DEBUG_VALUE: ARM_WIFI_GetOption:data <- $r4
	@DEBUG_VALUE: ARM_WIFI_GetOption:pu8 <- [DW_OP_plus_uconst 16] [$sp+0]
	@DEBUG_VALUE: ARM_WIFI_GetOption:ex <- -1
	@DEBUG_VALUE: ARM_WIFI_GetOption:rval <- -1
	.loc	2 0 13 is_stmt 0                @ C:/Users/shw26/AppData/Local/Arm/Packs/ARM/CMSIS-Driver/2.6.1/WiFi/ESP8266/WiFi_ESP8266.c:0:13
	ldr	r0, [sp, #20]                   @ 4-byte Reload
.Ltmp572:
	.loc	2 1290 20 is_stmt 1             @ C:/Users/shw26/AppData/Local/Arm/Packs/ARM/CMSIS-Driver/2.6.1/WiFi/ESP8266/WiFi_ESP8266.c:1290:20
	cmp	r0, #9
	beq	.LBB10_35
.Ltmp573:
@ %bb.10:
	@DEBUG_VALUE: ARM_WIFI_GetOption:interface <- $r7
	@DEBUG_VALUE: ARM_WIFI_GetOption:len <- $r6
	@DEBUG_VALUE: ARM_WIFI_GetOption:data <- $r4
	@DEBUG_VALUE: ARM_WIFI_GetOption:pu8 <- [DW_OP_plus_uconst 16] [$sp+0]
	@DEBUG_VALUE: ARM_WIFI_GetOption:ex <- -1
	@DEBUG_VALUE: ARM_WIFI_GetOption:rval <- -1
	cmp	r0, #7
	bne	.LBB10_36
.Ltmp574:
@ %bb.11:
	@DEBUG_VALUE: ARM_WIFI_GetOption:interface <- $r7
	@DEBUG_VALUE: ARM_WIFI_GetOption:len <- $r6
	@DEBUG_VALUE: ARM_WIFI_GetOption:data <- $r4
	@DEBUG_VALUE: ARM_WIFI_GetOption:pu8 <- [DW_OP_plus_uconst 16] [$sp+0]
	@DEBUG_VALUE: ARM_WIFI_GetOption:ex <- -1
	@DEBUG_VALUE: ARM_WIFI_GetOption:rval <- -1
	.loc	2 1290 53 is_stmt 0             @ C:/Users/shw26/AppData/Local/Arm/Packs/ARM/CMSIS-Driver/2.6.1/WiFi/ESP8266/WiFi_ESP8266.c:1290:53
	ldr	r0, __arm_cp.10_0
	ldr	r0, [r0, #48]
	b	.LBB10_47
.Ltmp575:
.LBB10_12:
	@DEBUG_VALUE: ARM_WIFI_GetOption:option <- [DW_OP_plus_uconst 20] [$sp+0]
	@DEBUG_VALUE: ARM_WIFI_GetOption:interface <- $r7
	@DEBUG_VALUE: ARM_WIFI_GetOption:len <- $r6
	@DEBUG_VALUE: ARM_WIFI_GetOption:data <- $r2
	.loc	2 0 0                           @ C:/Users/shw26/AppData/Local/Arm/Packs/ARM/CMSIS-Driver/2.6.1/WiFi/ESP8266/WiFi_ESP8266.c:0:0
	mov	r4, r1
	b	.LBB10_55
.Ltmp576:
.LBB10_13:
	@DEBUG_VALUE: ARM_WIFI_GetOption:interface <- $r7
	@DEBUG_VALUE: ARM_WIFI_GetOption:len <- $r6
	@DEBUG_VALUE: ARM_WIFI_GetOption:data <- $r4
	@DEBUG_VALUE: ARM_WIFI_GetOption:ex <- -1
	@DEBUG_VALUE: ARM_WIFI_GetOption:rval <- -1
	movs	r0, #4
.Ltmp577:
	.loc	2 1341 14 is_stmt 1             @ C:/Users/shw26/AppData/Local/Arm/Packs/ARM/CMSIS-Driver/2.6.1/WiFi/ESP8266/WiFi_ESP8266.c:1341:14
	str	r0, [r6]
	.loc	2 1343 13                       @ C:/Users/shw26/AppData/Local/Arm/Packs/ARM/CMSIS-Driver/2.6.1/WiFi/ESP8266/WiFi_ESP8266.c:1343:13
	cmp	r7, #0
.Ltmp578:
	.loc	2 0 0 is_stmt 0                 @ C:/Users/shw26/AppData/Local/Arm/Packs/ARM/CMSIS-Driver/2.6.1/WiFi/ESP8266/WiFi_ESP8266.c:0:0
	mov	r0, r2
	bne	.LBB10_14
	b	.LBB10_50
.Ltmp579:
.LBB10_14:
	@DEBUG_VALUE: ARM_WIFI_GetOption:interface <- $r7
	@DEBUG_VALUE: ARM_WIFI_GetOption:len <- $r6
	@DEBUG_VALUE: ARM_WIFI_GetOption:data <- $r4
	@DEBUG_VALUE: ARM_WIFI_GetOption:ex <- -1
	@DEBUG_VALUE: ARM_WIFI_GetOption:rval <- -1
	ldr	r0, [sp, #20]                   @ 4-byte Reload
.Ltmp580:
	.loc	2 1347 15 is_stmt 1             @ C:/Users/shw26/AppData/Local/Arm/Packs/ARM/CMSIS-Driver/2.6.1/WiFi/ESP8266/WiFi_ESP8266.c:1347:15
	cmp	r0, #14
	beq	.LBB10_37
.Ltmp581:
@ %bb.15:
	@DEBUG_VALUE: ARM_WIFI_GetOption:interface <- $r7
	@DEBUG_VALUE: ARM_WIFI_GetOption:len <- $r6
	@DEBUG_VALUE: ARM_WIFI_GetOption:data <- $r4
	@DEBUG_VALUE: ARM_WIFI_GetOption:ex <- -1
	@DEBUG_VALUE: ARM_WIFI_GetOption:rval <- -1
	cmp	r0, #13
	bne	.LBB10_38
.Ltmp582:
@ %bb.16:
	@DEBUG_VALUE: ARM_WIFI_GetOption:interface <- $r7
	@DEBUG_VALUE: ARM_WIFI_GetOption:len <- $r6
	@DEBUG_VALUE: ARM_WIFI_GetOption:data <- $r4
	@DEBUG_VALUE: ARM_WIFI_GetOption:ex <- -1
	@DEBUG_VALUE: ARM_WIFI_GetOption:rval <- -1
	.loc	2 1348 13                       @ C:/Users/shw26/AppData/Local/Arm/Packs/ARM/CMSIS-Driver/2.6.1/WiFi/ESP8266/WiFi_ESP8266.c:1348:13
	ldr	r0, __arm_cp.10_0
	ldr	r0, [r0, #60]
	b	.LBB10_47
.Ltmp583:
.LBB10_17:
	@DEBUG_VALUE: ARM_WIFI_GetOption:interface <- $r7
	@DEBUG_VALUE: ARM_WIFI_GetOption:len <- $r6
	@DEBUG_VALUE: ARM_WIFI_GetOption:data <- $r4
	@DEBUG_VALUE: ARM_WIFI_GetOption:ex <- -1
	@DEBUG_VALUE: ARM_WIFI_GetOption:rval <- -1
	.loc	2 0 13 is_stmt 0                @ C:/Users/shw26/AppData/Local/Arm/Packs/ARM/CMSIS-Driver/2.6.1/WiFi/ESP8266/WiFi_ESP8266.c:0:13
	movs	r0, #4
	.loc	2 1301 14 is_stmt 1             @ C:/Users/shw26/AppData/Local/Arm/Packs/ARM/CMSIS-Driver/2.6.1/WiFi/ESP8266/WiFi_ESP8266.c:1301:14
	str	r0, [r6]
.Ltmp584:
	@DEBUG_VALUE: ARM_WIFI_GetOption:ip_1 <- [DW_OP_plus_uconst 24, DW_OP_deref] $sp
	@DEBUG_VALUE: ARM_WIFI_GetOption:ip_0 <- [DW_OP_plus_uconst 28, DW_OP_deref] $sp
	.loc	2 0 14 is_stmt 0                @ C:/Users/shw26/AppData/Local/Arm/Packs/ARM/CMSIS-Driver/2.6.1/WiFi/ESP8266/WiFi_ESP8266.c:0:14
	add	r0, sp, #28
	add	r1, sp, #24
	.loc	2 1303 14 is_stmt 1             @ C:/Users/shw26/AppData/Local/Arm/Packs/ARM/CMSIS-Driver/2.6.1/WiFi/ESP8266/WiFi_ESP8266.c:1303:14
	bl	GetCurrentDnsAddr
	ldr	r3, [sp, #16]                   @ 4-byte Reload
	ldr	r2, [sp, #8]                    @ 4-byte Reload
.Ltmp585:
	@DEBUG_VALUE: ARM_WIFI_GetOption:ex <- $r0
	.loc	2 1305 13                       @ C:/Users/shw26/AppData/Local/Arm/Packs/ARM/CMSIS-Driver/2.6.1/WiFi/ESP8266/WiFi_ESP8266.c:1305:13
	cmp	r0, #0
.Ltmp586:
	.loc	2 0 0 is_stmt 0                 @ C:/Users/shw26/AppData/Local/Arm/Packs/ARM/CMSIS-Driver/2.6.1/WiFi/ESP8266/WiFi_ESP8266.c:0:0
	str	r2, [sp, #12]                   @ 4-byte Spill
.Ltmp587:
	.loc	2 1305 13                       @ C:/Users/shw26/AppData/Local/Arm/Packs/ARM/CMSIS-Driver/2.6.1/WiFi/ESP8266/WiFi_ESP8266.c:1305:13
	bne	.LBB10_50
.Ltmp588:
@ %bb.18:
	@DEBUG_VALUE: ARM_WIFI_GetOption:interface <- $r7
	@DEBUG_VALUE: ARM_WIFI_GetOption:len <- $r6
	@DEBUG_VALUE: ARM_WIFI_GetOption:data <- $r4
	@DEBUG_VALUE: ARM_WIFI_GetOption:ex <- $r0
	@DEBUG_VALUE: ARM_WIFI_GetOption:ip_0 <- [DW_OP_plus_uconst 28, DW_OP_deref] $sp
	@DEBUG_VALUE: ARM_WIFI_GetOption:ip_1 <- [DW_OP_plus_uconst 24, DW_OP_deref] $sp
	@DEBUG_VALUE: ARM_WIFI_GetOption:rval <- -1
	.loc	2 1306 15 is_stmt 1             @ C:/Users/shw26/AppData/Local/Arm/Packs/ARM/CMSIS-Driver/2.6.1/WiFi/ESP8266/WiFi_ESP8266.c:1306:15
	ldr	r0, [sp, #20]                   @ 4-byte Reload
.Ltmp589:
	cmp	r0, #10
	bne	.LBB10_42
.Ltmp590:
@ %bb.19:
	@DEBUG_VALUE: ARM_WIFI_GetOption:interface <- $r7
	@DEBUG_VALUE: ARM_WIFI_GetOption:len <- $r6
	@DEBUG_VALUE: ARM_WIFI_GetOption:data <- $r4
	@DEBUG_VALUE: ARM_WIFI_GetOption:ip_0 <- [DW_OP_plus_uconst 28, DW_OP_deref] $sp
	@DEBUG_VALUE: ARM_WIFI_GetOption:ip_1 <- [DW_OP_plus_uconst 24, DW_OP_deref] $sp
	@DEBUG_VALUE: ARM_WIFI_GetOption:rval <- -1
	.loc	2 1306 45 is_stmt 0             @ C:/Users/shw26/AppData/Local/Arm/Packs/ARM/CMSIS-Driver/2.6.1/WiFi/ESP8266/WiFi_ESP8266.c:1306:45
	ldr	r0, [sp, #28]
.Ltmp591:
	@DEBUG_VALUE: ARM_WIFI_GetOption:ip_0 <- $r0
	.loc	2 0 45                          @ C:/Users/shw26/AppData/Local/Arm/Packs/ARM/CMSIS-Driver/2.6.1/WiFi/ESP8266/WiFi_ESP8266.c:0:45
	b	.LBB10_43
.Ltmp592:
.LBB10_20:
	@DEBUG_VALUE: ARM_WIFI_GetOption:interface <- $r7
	@DEBUG_VALUE: ARM_WIFI_GetOption:len <- $r6
	@DEBUG_VALUE: ARM_WIFI_GetOption:data <- $r4
	@DEBUG_VALUE: ARM_WIFI_GetOption:pu8 <- [DW_OP_plus_uconst 16] [$sp+0]
	@DEBUG_VALUE: ARM_WIFI_GetOption:ex <- -1
	@DEBUG_VALUE: ARM_WIFI_GetOption:rval <- -1
	ldr	r0, [sp, #20]                   @ 4-byte Reload
.Ltmp593:
	.loc	2 1283 20 is_stmt 1             @ C:/Users/shw26/AppData/Local/Arm/Packs/ARM/CMSIS-Driver/2.6.1/WiFi/ESP8266/WiFi_ESP8266.c:1283:20
	cmp	r0, #9
	beq	.LBB10_45
.Ltmp594:
@ %bb.21:
	@DEBUG_VALUE: ARM_WIFI_GetOption:interface <- $r7
	@DEBUG_VALUE: ARM_WIFI_GetOption:len <- $r6
	@DEBUG_VALUE: ARM_WIFI_GetOption:data <- $r4
	@DEBUG_VALUE: ARM_WIFI_GetOption:pu8 <- [DW_OP_plus_uconst 16] [$sp+0]
	@DEBUG_VALUE: ARM_WIFI_GetOption:ex <- -1
	@DEBUG_VALUE: ARM_WIFI_GetOption:rval <- -1
	cmp	r0, #8
	beq	.LBB10_46
.Ltmp595:
@ %bb.22:
	@DEBUG_VALUE: ARM_WIFI_GetOption:interface <- $r7
	@DEBUG_VALUE: ARM_WIFI_GetOption:len <- $r6
	@DEBUG_VALUE: ARM_WIFI_GetOption:data <- $r4
	@DEBUG_VALUE: ARM_WIFI_GetOption:pu8 <- [DW_OP_plus_uconst 16] [$sp+0]
	@DEBUG_VALUE: ARM_WIFI_GetOption:ex <- -1
	@DEBUG_VALUE: ARM_WIFI_GetOption:rval <- -1
	cmp	r0, #7
	bne	.LBB10_48
.Ltmp596:
@ %bb.23:
	@DEBUG_VALUE: ARM_WIFI_GetOption:interface <- $r7
	@DEBUG_VALUE: ARM_WIFI_GetOption:len <- $r6
	@DEBUG_VALUE: ARM_WIFI_GetOption:data <- $r4
	@DEBUG_VALUE: ARM_WIFI_GetOption:pu8 <- [DW_OP_plus_uconst 16] [$sp+0]
	@DEBUG_VALUE: ARM_WIFI_GetOption:ex <- -1
	@DEBUG_VALUE: ARM_WIFI_GetOption:rval <- -1
	.loc	2 1283 57 is_stmt 0             @ C:/Users/shw26/AppData/Local/Arm/Packs/ARM/CMSIS-Driver/2.6.1/WiFi/ESP8266/WiFi_ESP8266.c:1283:57
	ldr	r0, __arm_cp.10_0
	ldr	r0, [r0, #24]
	b	.LBB10_47
.Ltmp597:
.LBB10_24:
	@DEBUG_VALUE: ARM_WIFI_GetOption:interface <- $r7
	@DEBUG_VALUE: ARM_WIFI_GetOption:len <- $r6
	@DEBUG_VALUE: ARM_WIFI_GetOption:data <- $r4
	@DEBUG_VALUE: ARM_WIFI_GetOption:ex <- -1
	@DEBUG_VALUE: ARM_WIFI_GetOption:rval <- -1
	.loc	2 1205 13 is_stmt 1             @ C:/Users/shw26/AppData/Local/Arm/Packs/ARM/CMSIS-Driver/2.6.1/WiFi/ESP8266/WiFi_ESP8266.c:1205:13
	ldr	r0, [r6]
.Ltmp598:
	.loc	2 1205 13 is_stmt 0             @ C:/Users/shw26/AppData/Local/Arm/Packs/ARM/CMSIS-Driver/2.6.1/WiFi/ESP8266/WiFi_ESP8266.c:1205:13
	cmp	r0, #6
	blo	.LBB10_32
.Ltmp599:
@ %bb.25:
	@DEBUG_VALUE: ARM_WIFI_GetOption:interface <- $r7
	@DEBUG_VALUE: ARM_WIFI_GetOption:len <- $r6
	@DEBUG_VALUE: ARM_WIFI_GetOption:data <- $r4
	@DEBUG_VALUE: ARM_WIFI_GetOption:ex <- -1
	@DEBUG_VALUE: ARM_WIFI_GetOption:rval <- -1
	.loc	2 1209 15 is_stmt 1             @ C:/Users/shw26/AppData/Local/Arm/Packs/ARM/CMSIS-Driver/2.6.1/WiFi/ESP8266/WiFi_ESP8266.c:1209:15
	cmp	r7, #0
.Ltmp600:
	.loc	2 0 0 is_stmt 0                 @ C:/Users/shw26/AppData/Local/Arm/Packs/ARM/CMSIS-Driver/2.6.1/WiFi/ESP8266/WiFi_ESP8266.c:0:0
	mov	r0, r2
.Ltmp601:
	.loc	2 1209 15                       @ C:/Users/shw26/AppData/Local/Arm/Packs/ARM/CMSIS-Driver/2.6.1/WiFi/ESP8266/WiFi_ESP8266.c:1209:15
	bne	.LBB10_50
.Ltmp602:
@ %bb.26:
	@DEBUG_VALUE: ARM_WIFI_GetOption:interface <- $r7
	@DEBUG_VALUE: ARM_WIFI_GetOption:len <- $r6
	@DEBUG_VALUE: ARM_WIFI_GetOption:data <- $r4
	@DEBUG_VALUE: ARM_WIFI_GetOption:ex <- -1
	@DEBUG_VALUE: ARM_WIFI_GetOption:rval <- -1
	@DEBUG_VALUE: ARM_WIFI_GetOption:pu8 <- [DW_OP_plus_uconst 16] [$sp+0]
	.loc	2 1213 13 is_stmt 1             @ C:/Users/shw26/AppData/Local/Arm/Packs/ARM/CMSIS-Driver/2.6.1/WiFi/ESP8266/WiFi_ESP8266.c:1213:13
	ldr	r1, __arm_cp.10_0
	adds	r1, #36
	movs	r2, #6
	mov	r0, r4
	mov	r4, r2
.Ltmp603:
	@DEBUG_VALUE: ARM_WIFI_GetOption:data <- [DW_OP_LLVM_entry_value 1] $r2
	bl	__aeabi_memcpy
	.loc	2 1214 18                       @ C:/Users/shw26/AppData/Local/Arm/Packs/ARM/CMSIS-Driver/2.6.1/WiFi/ESP8266/WiFi_ESP8266.c:1214:18
	str	r4, [r6]
.Ltmp604:
	@DEBUG_VALUE: ARM_WIFI_GetOption:rval <- 0
	.loc	2 0 18 is_stmt 0                @ C:/Users/shw26/AppData/Local/Arm/Packs/ARM/CMSIS-Driver/2.6.1/WiFi/ESP8266/WiFi_ESP8266.c:0:18
	b	.LBB10_41
.Ltmp605:
.LBB10_27:
	@DEBUG_VALUE: ARM_WIFI_GetOption:interface <- $r7
	@DEBUG_VALUE: ARM_WIFI_GetOption:len <- $r6
	@DEBUG_VALUE: ARM_WIFI_GetOption:data <- $r4
	@DEBUG_VALUE: ARM_WIFI_GetOption:ex <- -1
	@DEBUG_VALUE: ARM_WIFI_GetOption:rval <- -1
	movs	r0, #76
	.loc	2 1229 24 is_stmt 1             @ C:/Users/shw26/AppData/Local/Arm/Packs/ARM/CMSIS-Driver/2.6.1/WiFi/ESP8266/WiFi_ESP8266.c:1229:24
	ldr	r1, __arm_cp.10_0
	ldrb	r0, [r1, r0]
.Ltmp606:
	@DEBUG_VALUE: ARM_WIFI_GetOption:pu32 <- [DW_OP_plus_uconst 16] [$sp+0]
	.loc	2 0 24 is_stmt 0                @ C:/Users/shw26/AppData/Local/Arm/Packs/ARM/CMSIS-Driver/2.6.1/WiFi/ESP8266/WiFi_ESP8266.c:0:24
	b	.LBB10_30
.Ltmp607:
.LBB10_28:
	@DEBUG_VALUE: ARM_WIFI_GetOption:interface <- $r7
	@DEBUG_VALUE: ARM_WIFI_GetOption:len <- $r6
	@DEBUG_VALUE: ARM_WIFI_GetOption:data <- $r4
	@DEBUG_VALUE: ARM_WIFI_GetOption:ex <- -1
	@DEBUG_VALUE: ARM_WIFI_GetOption:rval <- -1
	.loc	2 1237 13 is_stmt 1             @ C:/Users/shw26/AppData/Local/Arm/Packs/ARM/CMSIS-Driver/2.6.1/WiFi/ESP8266/WiFi_ESP8266.c:1237:13
	cmp	r7, #0
.Ltmp608:
	.loc	2 0 0 is_stmt 0                 @ C:/Users/shw26/AppData/Local/Arm/Packs/ARM/CMSIS-Driver/2.6.1/WiFi/ESP8266/WiFi_ESP8266.c:0:0
	mov	r0, r2
.Ltmp609:
	.loc	2 1237 13                       @ C:/Users/shw26/AppData/Local/Arm/Packs/ARM/CMSIS-Driver/2.6.1/WiFi/ESP8266/WiFi_ESP8266.c:1237:13
	bne	.LBB10_50
.Ltmp610:
@ %bb.29:
	@DEBUG_VALUE: ARM_WIFI_GetOption:interface <- $r7
	@DEBUG_VALUE: ARM_WIFI_GetOption:len <- $r6
	@DEBUG_VALUE: ARM_WIFI_GetOption:data <- $r4
	@DEBUG_VALUE: ARM_WIFI_GetOption:ex <- -1
	@DEBUG_VALUE: ARM_WIFI_GetOption:rval <- -1
	.loc	2 1244 26 is_stmt 1             @ C:/Users/shw26/AppData/Local/Arm/Packs/ARM/CMSIS-Driver/2.6.1/WiFi/ESP8266/WiFi_ESP8266.c:1244:26
	ldr	r0, __arm_cp.10_0
	ldr	r0, [r0, #72]
.Ltmp611:
	@DEBUG_VALUE: ARM_WIFI_GetOption:pu32 <- [DW_OP_plus_uconst 16] [$sp+0]
.LBB10_30:
	@DEBUG_VALUE: ARM_WIFI_GetOption:interface <- $r7
	@DEBUG_VALUE: ARM_WIFI_GetOption:len <- $r6
	@DEBUG_VALUE: ARM_WIFI_GetOption:data <- $r4
	@DEBUG_VALUE: ARM_WIFI_GetOption:pu32 <- [DW_OP_plus_uconst 16] [$sp+0]
	@DEBUG_VALUE: ARM_WIFI_GetOption:ex <- -1
	@DEBUG_VALUE: ARM_WIFI_GetOption:rval <- -1
	.loc	2 0 0 is_stmt 0                 @ C:/Users/shw26/AppData/Local/Arm/Packs/ARM/CMSIS-Driver/2.6.1/WiFi/ESP8266/WiFi_ESP8266.c:0:0
	str	r0, [r4]
	movs	r0, #4
	str	r0, [r6]
.Ltmp612:
	@DEBUG_VALUE: ARM_WIFI_GetOption:rval <- 0
	b	.LBB10_48
.Ltmp613:
.LBB10_31:
	@DEBUG_VALUE: ARM_WIFI_GetOption:interface <- $r7
	@DEBUG_VALUE: ARM_WIFI_GetOption:len <- $r6
	@DEBUG_VALUE: ARM_WIFI_GetOption:data <- $r4
	@DEBUG_VALUE: ARM_WIFI_GetOption:ex <- -1
	@DEBUG_VALUE: ARM_WIFI_GetOption:rval <- -1
	.loc	2 1261 13 is_stmt 1             @ C:/Users/shw26/AppData/Local/Arm/Packs/ARM/CMSIS-Driver/2.6.1/WiFi/ESP8266/WiFi_ESP8266.c:1261:13
	ldr	r0, [r6]
.Ltmp614:
	.loc	2 1261 13 is_stmt 0             @ C:/Users/shw26/AppData/Local/Arm/Packs/ARM/CMSIS-Driver/2.6.1/WiFi/ESP8266/WiFi_ESP8266.c:1261:13
	cmp	r0, #6
	bhs	.LBB10_39
.Ltmp615:
.LBB10_32:
	@DEBUG_VALUE: ARM_WIFI_GetOption:interface <- $r7
	@DEBUG_VALUE: ARM_WIFI_GetOption:len <- $r6
	@DEBUG_VALUE: ARM_WIFI_GetOption:data <- $r4
	@DEBUG_VALUE: ARM_WIFI_GetOption:ex <- -1
	@DEBUG_VALUE: ARM_WIFI_GetOption:rval <- -1
	.loc	2 0 13                          @ C:/Users/shw26/AppData/Local/Arm/Packs/ARM/CMSIS-Driver/2.6.1/WiFi/ESP8266/WiFi_ESP8266.c:0:13
	subs	r0, r2, #4
	str	r0, [sp, #12]                   @ 4-byte Spill
	b	.LBB10_49
.Ltmp616:
.LBB10_33:
	@DEBUG_VALUE: ARM_WIFI_GetOption:interface <- $r7
	@DEBUG_VALUE: ARM_WIFI_GetOption:len <- $r6
	@DEBUG_VALUE: ARM_WIFI_GetOption:data <- $r4
	@DEBUG_VALUE: ARM_WIFI_GetOption:ex <- -1
	@DEBUG_VALUE: ARM_WIFI_GetOption:rval <- -1
	movs	r0, #4
.Ltmp617:
	.loc	2 1316 14 is_stmt 1             @ C:/Users/shw26/AppData/Local/Arm/Packs/ARM/CMSIS-Driver/2.6.1/WiFi/ESP8266/WiFi_ESP8266.c:1316:14
	str	r0, [r6]
	.loc	2 1318 13                       @ C:/Users/shw26/AppData/Local/Arm/Packs/ARM/CMSIS-Driver/2.6.1/WiFi/ESP8266/WiFi_ESP8266.c:1318:13
	cbz	r7, .LBB10_44
.Ltmp618:
@ %bb.34:
	@DEBUG_VALUE: ARM_WIFI_GetOption:interface <- $r7
	@DEBUG_VALUE: ARM_WIFI_GetOption:len <- $r6
	@DEBUG_VALUE: ARM_WIFI_GetOption:data <- $r4
	@DEBUG_VALUE: ARM_WIFI_GetOption:ex <- -1
	@DEBUG_VALUE: ARM_WIFI_GetOption:rval <- -1
	.loc	2 0 13 is_stmt 0                @ C:/Users/shw26/AppData/Local/Arm/Packs/ARM/CMSIS-Driver/2.6.1/WiFi/ESP8266/WiFi_ESP8266.c:0:13
	movs	r0, #115
.Ltmp619:
	.loc	2 1324 23 is_stmt 1             @ C:/Users/shw26/AppData/Local/Arm/Packs/ARM/CMSIS-Driver/2.6.1/WiFi/ESP8266/WiFi_ESP8266.c:1324:23
	ldr	r1, __arm_cp.10_0
	ldrb	r0, [r1, r0]
	movs	r1, #1
.Ltmp620:
	.loc	2 1324 15 is_stmt 0             @ C:/Users/shw26/AppData/Local/Arm/Packs/ARM/CMSIS-Driver/2.6.1/WiFi/ESP8266/WiFi_ESP8266.c:1324:15
	bics	r1, r0
.Ltmp621:
	@DEBUG_VALUE: ARM_WIFI_GetOption:pu32 <- [DW_OP_plus_uconst 16] [$sp+0]
	.loc	2 0 0                           @ C:/Users/shw26/AppData/Local/Arm/Packs/ARM/CMSIS-Driver/2.6.1/WiFi/ESP8266/WiFi_ESP8266.c:0:0
	str	r1, [r4]
	@DEBUG_VALUE: ARM_WIFI_GetOption:ex <- -1
.Ltmp622:
	@DEBUG_VALUE: ARM_WIFI_GetOption:rval <- 0
	b	.LBB10_48
.Ltmp623:
.LBB10_35:
	@DEBUG_VALUE: ARM_WIFI_GetOption:interface <- $r7
	@DEBUG_VALUE: ARM_WIFI_GetOption:len <- $r6
	@DEBUG_VALUE: ARM_WIFI_GetOption:data <- $r4
	@DEBUG_VALUE: ARM_WIFI_GetOption:pu8 <- [DW_OP_plus_uconst 16] [$sp+0]
	@DEBUG_VALUE: ARM_WIFI_GetOption:ex <- -1
	@DEBUG_VALUE: ARM_WIFI_GetOption:rval <- -1
	.loc	2 1291 53 is_stmt 1             @ C:/Users/shw26/AppData/Local/Arm/Packs/ARM/CMSIS-Driver/2.6.1/WiFi/ESP8266/WiFi_ESP8266.c:1291:53
	ldr	r0, __arm_cp.10_0
	ldr	r0, [r0, #52]
	b	.LBB10_47
.Ltmp624:
.LBB10_36:
	@DEBUG_VALUE: ARM_WIFI_GetOption:interface <- $r7
	@DEBUG_VALUE: ARM_WIFI_GetOption:len <- $r6
	@DEBUG_VALUE: ARM_WIFI_GetOption:data <- $r4
	@DEBUG_VALUE: ARM_WIFI_GetOption:pu8 <- [DW_OP_plus_uconst 16] [$sp+0]
	@DEBUG_VALUE: ARM_WIFI_GetOption:ex <- -1
	@DEBUG_VALUE: ARM_WIFI_GetOption:rval <- -1
	.loc	2 1292 53                       @ C:/Users/shw26/AppData/Local/Arm/Packs/ARM/CMSIS-Driver/2.6.1/WiFi/ESP8266/WiFi_ESP8266.c:1292:53
	ldr	r0, __arm_cp.10_0
	ldr	r0, [r0, #56]
	b	.LBB10_47
.Ltmp625:
.LBB10_37:
	@DEBUG_VALUE: ARM_WIFI_GetOption:interface <- $r7
	@DEBUG_VALUE: ARM_WIFI_GetOption:len <- $r6
	@DEBUG_VALUE: ARM_WIFI_GetOption:data <- $r4
	@DEBUG_VALUE: ARM_WIFI_GetOption:ex <- -1
	@DEBUG_VALUE: ARM_WIFI_GetOption:rval <- -1
	.loc	2 1351 13                       @ C:/Users/shw26/AppData/Local/Arm/Packs/ARM/CMSIS-Driver/2.6.1/WiFi/ESP8266/WiFi_ESP8266.c:1351:13
	ldr	r0, __arm_cp.10_0
	ldr	r0, [r0, #64]
	b	.LBB10_47
.Ltmp626:
.LBB10_38:
	@DEBUG_VALUE: ARM_WIFI_GetOption:interface <- $r7
	@DEBUG_VALUE: ARM_WIFI_GetOption:len <- $r6
	@DEBUG_VALUE: ARM_WIFI_GetOption:data <- $r4
	@DEBUG_VALUE: ARM_WIFI_GetOption:ex <- -1
	@DEBUG_VALUE: ARM_WIFI_GetOption:rval <- -1
	.loc	2 1355 36                       @ C:/Users/shw26/AppData/Local/Arm/Packs/ARM/CMSIS-Driver/2.6.1/WiFi/ESP8266/WiFi_ESP8266.c:1355:36
	ldr	r0, __arm_cp.10_0
	ldr	r0, [r0, #68]
.Ltmp627:
	@DEBUG_VALUE: ARM_WIFI_GetOption:pu32 <- [DW_OP_plus_uconst 16] [$sp+0]
	.loc	2 1355 19 is_stmt 0             @ C:/Users/shw26/AppData/Local/Arm/Packs/ARM/CMSIS-Driver/2.6.1/WiFi/ESP8266/WiFi_ESP8266.c:1355:19
	str	r0, [r4]
	b	.LBB10_48
.Ltmp628:
.LBB10_39:
	@DEBUG_VALUE: ARM_WIFI_GetOption:interface <- $r7
	@DEBUG_VALUE: ARM_WIFI_GetOption:len <- $r6
	@DEBUG_VALUE: ARM_WIFI_GetOption:data <- $r4
	@DEBUG_VALUE: ARM_WIFI_GetOption:ex <- -1
	@DEBUG_VALUE: ARM_WIFI_GetOption:rval <- -1
	.loc	2 0 19                          @ C:/Users/shw26/AppData/Local/Arm/Packs/ARM/CMSIS-Driver/2.6.1/WiFi/ESP8266/WiFi_ESP8266.c:0:19
	movs	r0, #6
.Ltmp629:
	.loc	2 1265 16 is_stmt 1             @ C:/Users/shw26/AppData/Local/Arm/Packs/ARM/CMSIS-Driver/2.6.1/WiFi/ESP8266/WiFi_ESP8266.c:1265:16
	str	r0, [r6]
	.loc	2 1267 15                       @ C:/Users/shw26/AppData/Local/Arm/Packs/ARM/CMSIS-Driver/2.6.1/WiFi/ESP8266/WiFi_ESP8266.c:1267:15
	cmp	r7, #0
	bne	.LBB10_40
	b	.LBB10_70
.Ltmp630:
.LBB10_40:
	@DEBUG_VALUE: ARM_WIFI_GetOption:interface <- $r7
	@DEBUG_VALUE: ARM_WIFI_GetOption:len <- $r6
	@DEBUG_VALUE: ARM_WIFI_GetOption:data <- $r4
	@DEBUG_VALUE: ARM_WIFI_GetOption:ex <- -1
	@DEBUG_VALUE: ARM_WIFI_GetOption:rval <- -1
	.loc	2 1270 13                       @ C:/Users/shw26/AppData/Local/Arm/Packs/ARM/CMSIS-Driver/2.6.1/WiFi/ESP8266/WiFi_ESP8266.c:1270:13
	ldr	r1, __arm_cp.10_0
	adds	r1, #42
	movs	r2, #6
	mov	r0, r4
	bl	__aeabi_memcpy
.Ltmp631:
	@DEBUG_VALUE: ARM_WIFI_GetOption:rval <- 0
.LBB10_41:
	@DEBUG_VALUE: ARM_WIFI_GetOption:interface <- $r7
	@DEBUG_VALUE: ARM_WIFI_GetOption:len <- $r6
	@DEBUG_VALUE: ARM_WIFI_GetOption:rval <- 0
	@DEBUG_VALUE: ARM_WIFI_GetOption:ex <- -1
	.loc	2 0 0 is_stmt 0                 @ C:/Users/shw26/AppData/Local/Arm/Packs/ARM/CMSIS-Driver/2.6.1/WiFi/ESP8266/WiFi_ESP8266.c:0:0
	str	r5, [sp, #12]                   @ 4-byte Spill
	ldr	r0, [sp, #8]                    @ 4-byte Reload
.Ltmp632:
	@DEBUG_VALUE: ARM_WIFI_GetOption:rval <- [DW_OP_plus_uconst 12] [$sp+0]
	@DEBUG_VALUE: ARM_WIFI_GetOption:ex <- $r0
	cbnz	r0, .LBB10_52
	b	.LBB10_51
.Ltmp633:
.LBB10_42:
	@DEBUG_VALUE: ARM_WIFI_GetOption:interface <- $r7
	@DEBUG_VALUE: ARM_WIFI_GetOption:len <- $r6
	@DEBUG_VALUE: ARM_WIFI_GetOption:data <- $r4
	@DEBUG_VALUE: ARM_WIFI_GetOption:ip_0 <- [DW_OP_plus_uconst 28, DW_OP_deref] $sp
	@DEBUG_VALUE: ARM_WIFI_GetOption:ip_1 <- [DW_OP_plus_uconst 24, DW_OP_deref] $sp
	@DEBUG_VALUE: ARM_WIFI_GetOption:rval <- -1
	.loc	2 1307 45 is_stmt 1             @ C:/Users/shw26/AppData/Local/Arm/Packs/ARM/CMSIS-Driver/2.6.1/WiFi/ESP8266/WiFi_ESP8266.c:1307:45
	ldr	r0, [sp, #24]
.Ltmp634:
	@DEBUG_VALUE: ARM_WIFI_GetOption:ip_1 <- $r0
.LBB10_43:
	@DEBUG_VALUE: ARM_WIFI_GetOption:interface <- $r7
	@DEBUG_VALUE: ARM_WIFI_GetOption:len <- $r6
	@DEBUG_VALUE: ARM_WIFI_GetOption:data <- $r4
	@DEBUG_VALUE: ARM_WIFI_GetOption:rval <- -1
	.loc	2 0 0 is_stmt 0                 @ C:/Users/shw26/AppData/Local/Arm/Packs/ARM/CMSIS-Driver/2.6.1/WiFi/ESP8266/WiFi_ESP8266.c:0:0
	strb	r0, [r3]
	lsrs	r1, r0, #24
	strb	r1, [r3, #3]
	lsrs	r1, r0, #16
	strb	r1, [r3, #2]
	lsrs	r0, r0, #8
	strb	r0, [r3, #1]
	b	.LBB10_48
.Ltmp635:
.LBB10_44:
	@DEBUG_VALUE: ARM_WIFI_GetOption:interface <- $r7
	@DEBUG_VALUE: ARM_WIFI_GetOption:len <- $r6
	@DEBUG_VALUE: ARM_WIFI_GetOption:data <- $r4
	@DEBUG_VALUE: ARM_WIFI_GetOption:ex <- -1
	@DEBUG_VALUE: ARM_WIFI_GetOption:rval <- -1
	movs	r0, #0
.Ltmp636:
	.loc	2 1320 16 is_stmt 1             @ C:/Users/shw26/AppData/Local/Arm/Packs/ARM/CMSIS-Driver/2.6.1/WiFi/ESP8266/WiFi_ESP8266.c:1320:16
	mov	r1, r0
	mov	r2, r0
	bl	AT_Cmd_DHCP
.Ltmp637:
	@DEBUG_VALUE: ARM_WIFI_GetOption:ex <- $r0
	.loc	2 0 16 is_stmt 0                @ C:/Users/shw26/AppData/Local/Arm/Packs/ARM/CMSIS-Driver/2.6.1/WiFi/ESP8266/WiFi_ESP8266.c:0:16
	b	.LBB10_71
.Ltmp638:
.LBB10_45:
	@DEBUG_VALUE: ARM_WIFI_GetOption:interface <- $r7
	@DEBUG_VALUE: ARM_WIFI_GetOption:len <- $r6
	@DEBUG_VALUE: ARM_WIFI_GetOption:data <- $r4
	@DEBUG_VALUE: ARM_WIFI_GetOption:pu8 <- [DW_OP_plus_uconst 16] [$sp+0]
	@DEBUG_VALUE: ARM_WIFI_GetOption:ex <- -1
	@DEBUG_VALUE: ARM_WIFI_GetOption:rval <- -1
	.loc	2 1285 57 is_stmt 1             @ C:/Users/shw26/AppData/Local/Arm/Packs/ARM/CMSIS-Driver/2.6.1/WiFi/ESP8266/WiFi_ESP8266.c:1285:57
	ldr	r0, __arm_cp.10_0
	ldr	r0, [r0, #28]
	b	.LBB10_47
.Ltmp639:
.LBB10_46:
	@DEBUG_VALUE: ARM_WIFI_GetOption:interface <- $r7
	@DEBUG_VALUE: ARM_WIFI_GetOption:len <- $r6
	@DEBUG_VALUE: ARM_WIFI_GetOption:data <- $r4
	@DEBUG_VALUE: ARM_WIFI_GetOption:pu8 <- [DW_OP_plus_uconst 16] [$sp+0]
	@DEBUG_VALUE: ARM_WIFI_GetOption:ex <- -1
	@DEBUG_VALUE: ARM_WIFI_GetOption:rval <- -1
	.loc	2 1284 57                       @ C:/Users/shw26/AppData/Local/Arm/Packs/ARM/CMSIS-Driver/2.6.1/WiFi/ESP8266/WiFi_ESP8266.c:1284:57
	ldr	r0, __arm_cp.10_0
	ldr	r0, [r0, #32]
.Ltmp640:
.LBB10_47:
	@DEBUG_VALUE: ARM_WIFI_GetOption:interface <- $r7
	@DEBUG_VALUE: ARM_WIFI_GetOption:len <- $r6
	@DEBUG_VALUE: ARM_WIFI_GetOption:data <- $r4
	@DEBUG_VALUE: ARM_WIFI_GetOption:ex <- -1
	@DEBUG_VALUE: ARM_WIFI_GetOption:rval <- -1
	.loc	2 0 0 is_stmt 0                 @ C:/Users/shw26/AppData/Local/Arm/Packs/ARM/CMSIS-Driver/2.6.1/WiFi/ESP8266/WiFi_ESP8266.c:0:0
	strb	r0, [r4]
	lsrs	r1, r0, #24
	strb	r1, [r4, #3]
	lsrs	r1, r0, #16
	strb	r1, [r4, #2]
	lsrs	r0, r0, #8
	strb	r0, [r4, #1]
.Ltmp641:
.LBB10_48:
	@DEBUG_VALUE: ARM_WIFI_GetOption:interface <- $r7
	@DEBUG_VALUE: ARM_WIFI_GetOption:len <- $r6
	@DEBUG_VALUE: ARM_WIFI_GetOption:data <- $r4
	str	r5, [sp, #12]                   @ 4-byte Spill
.Ltmp642:
.LBB10_49:
	@DEBUG_VALUE: ARM_WIFI_GetOption:interface <- $r7
	@DEBUG_VALUE: ARM_WIFI_GetOption:len <- $r6
	mov	r0, r2
.Ltmp643:
.LBB10_50:
	@DEBUG_VALUE: ARM_WIFI_GetOption:interface <- $r7
	@DEBUG_VALUE: ARM_WIFI_GetOption:len <- $r6
	@DEBUG_VALUE: ARM_WIFI_GetOption:rval <- [DW_OP_plus_uconst 12] [$sp+0]
	@DEBUG_VALUE: ARM_WIFI_GetOption:ex <- $r0
	.loc	2 1365 9 is_stmt 1              @ C:/Users/shw26/AppData/Local/Arm/Packs/ARM/CMSIS-Driver/2.6.1/WiFi/ESP8266/WiFi_ESP8266.c:1365:9
	cbnz	r0, .LBB10_52
.Ltmp644:
.LBB10_51:
	@DEBUG_VALUE: ARM_WIFI_GetOption:interface <- $r7
	@DEBUG_VALUE: ARM_WIFI_GetOption:len <- $r6
	@DEBUG_VALUE: ARM_WIFI_GetOption:ex <- $r0
	@DEBUG_VALUE: ARM_WIFI_GetOption:rval <- [DW_OP_plus_uconst 12] [$sp+0]
	.loc	2 0 9 is_stmt 0                 @ C:/Users/shw26/AppData/Local/Arm/Packs/ARM/CMSIS-Driver/2.6.1/WiFi/ESP8266/WiFi_ESP8266.c:0:9
	movs	r6, #1
.Ltmp645:
	ldr	r1, __arm_cp.10_1
.Ltmp646:
	.loc	2 1367 12 is_stmt 1             @ C:/Users/shw26/AppData/Local/Arm/Packs/ARM/CMSIS-Driver/2.6.1/WiFi/ESP8266/WiFi_ESP8266.c:1367:12
	mov	r0, r6
.Ltmp647:
	bl	WiFi_Wait
.Ltmp648:
	@DEBUG_VALUE: ARM_WIFI_GetOption:ex <- $r0
	.loc	2 1369 11                       @ C:/Users/shw26/AppData/Local/Arm/Packs/ARM/CMSIS-Driver/2.6.1/WiFi/ESP8266/WiFi_ESP8266.c:1369:11
	cbz	r0, .LBB10_56
.Ltmp649:
.LBB10_52:
	@DEBUG_VALUE: ARM_WIFI_GetOption:interface <- $r7
	@DEBUG_VALUE: ARM_WIFI_GetOption:ex <- $r0
	@DEBUG_VALUE: ARM_WIFI_GetOption:rval <- [DW_OP_plus_uconst 12] [$sp+0]
	.loc	2 0 0 is_stmt 0                 @ C:/Users/shw26/AppData/Local/Arm/Packs/ARM/CMSIS-Driver/2.6.1/WiFi/ESP8266/WiFi_ESP8266.c:0:0
	ldr	r4, [sp, #12]                   @ 4-byte Reload
	ldr	r2, __arm_cp.10_0
.Ltmp650:
.LBB10_53:
	@DEBUG_VALUE: ARM_WIFI_GetOption:interface <- $r7
	@DEBUG_VALUE: ARM_WIFI_GetOption:rval <- $r4
	.loc	2 1441 32 is_stmt 1             @ C:/Users/shw26/AppData/Local/Arm/Packs/ARM/CMSIS-Driver/2.6.1/WiFi/ESP8266/WiFi_ESP8266.c:1441:32
	ldr	r0, [r2, #16]
	.loc	2 1441 9 is_stmt 0              @ C:/Users/shw26/AppData/Local/Arm/Packs/ARM/CMSIS-Driver/2.6.1/WiFi/ESP8266/WiFi_ESP8266.c:1441:9
	bl	osMutexRelease
.Ltmp651:
	.loc	2 1441 9                        @ C:/Users/shw26/AppData/Local/Arm/Packs/ARM/CMSIS-Driver/2.6.1/WiFi/ESP8266/WiFi_ESP8266.c:1441:9
	cbz	r0, .LBB10_55
.Ltmp652:
@ %bb.54:
	@DEBUG_VALUE: ARM_WIFI_GetOption:interface <- $r7
	@DEBUG_VALUE: ARM_WIFI_GetOption:rval <- $r4
	ldr	r4, [sp, #8]                    @ 4-byte Reload
.Ltmp653:
.LBB10_55:
	@DEBUG_VALUE: ARM_WIFI_GetOption:rval <- $r4
	.loc	2 1447 3 is_stmt 1              @ C:/Users/shw26/AppData/Local/Arm/Packs/ARM/CMSIS-Driver/2.6.1/WiFi/ESP8266/WiFi_ESP8266.c:1447:3
	mov	r0, r4
	add	sp, #36
	pop	{r4, r5, r6, r7, pc}
.Ltmp654:
.LBB10_56:
	@DEBUG_VALUE: ARM_WIFI_GetOption:interface <- $r7
	@DEBUG_VALUE: ARM_WIFI_GetOption:ex <- $r0
	@DEBUG_VALUE: ARM_WIFI_GetOption:rval <- [DW_OP_plus_uconst 12] [$sp+0]
	.loc	2 0 3 is_stmt 0                 @ C:/Users/shw26/AppData/Local/Arm/Packs/ARM/CMSIS-Driver/2.6.1/WiFi/ESP8266/WiFi_ESP8266.c:0:3
	movs	r0, #0
.Ltmp655:
	str	r0, [sp]                        @ 4-byte Spill
	ldr	r5, [sp, #4]                    @ 4-byte Reload
.Ltmp656:
	.loc	2 1371 9 is_stmt 1              @ C:/Users/shw26/AppData/Local/Arm/Packs/ARM/CMSIS-Driver/2.6.1/WiFi/ESP8266/WiFi_ESP8266.c:1371:9
	cmp	r5, #14
	ldr	r2, __arm_cp.10_0
	ldr	r0, [sp, #16]                   @ 4-byte Reload
	bhi	.LBB10_72
.Ltmp657:
@ %bb.57:
	@DEBUG_VALUE: ARM_WIFI_GetOption:interface <- $r7
	@DEBUG_VALUE: ARM_WIFI_GetOption:rval <- [DW_OP_plus_uconst 12] [$sp+0]
	.loc	2 0 9 is_stmt 0                 @ C:/Users/shw26/AppData/Local/Arm/Packs/ARM/CMSIS-Driver/2.6.1/WiFi/ESP8266/WiFi_ESP8266.c:0:9
	lsls	r3, r5, #2
	adr	r1, .LJTI10_1
	adds	r3, r1, r3
	ldr	r1, [sp, #8]                    @ 4-byte Reload
	mov	r4, r1
	mov	pc, r3
.Ltmp658:
@ %bb.58:
	.p2align	2
.LJTI10_1:
	b.w	.LBB10_65
	b.w	.LBB10_83
	b.w	.LBB10_83
	b.w	.LBB10_83
	b.w	.LBB10_83
	b.w	.LBB10_66
	b.w	.LBB10_83
	b.w	.LBB10_83
	b.w	.LBB10_83
	b.w	.LBB10_83
	b.w	.LBB10_83
	b.w	.LBB10_68
	b.w	.LBB10_59
	b.w	.LBB10_59
	b.w	.LBB10_59
.LBB10_59:
.Ltmp659:
	@DEBUG_VALUE: ARM_WIFI_GetOption:interface <- $r7
	@DEBUG_VALUE: ARM_WIFI_GetOption:rval <- [DW_OP_plus_uconst 12] [$sp+0]
	@DEBUG_VALUE: ARM_WIFI_GetOption:pu8 <- [DW_OP_plus_uconst 16] [$sp+0]
	@DEBUG_VALUE: ARM_WIFI_GetOption:pu32 <- [DW_OP_plus_uconst 16] [$sp+0]
	.loc	2 1419 17 is_stmt 1             @ C:/Users/shw26/AppData/Local/Arm/Packs/ARM/CMSIS-Driver/2.6.1/WiFi/ESP8266/WiFi_ESP8266.c:1419:17
	cbz	r7, .LBB10_64
.Ltmp660:
@ %bb.60:
	@DEBUG_VALUE: ARM_WIFI_GetOption:interface <- $r7
	@DEBUG_VALUE: ARM_WIFI_GetOption:rval <- [DW_OP_plus_uconst 12] [$sp+0]
	@DEBUG_VALUE: ARM_WIFI_GetOption:pu8 <- [DW_OP_plus_uconst 16] [$sp+0]
	@DEBUG_VALUE: ARM_WIFI_GetOption:pu32 <- [DW_OP_plus_uconst 16] [$sp+0]
	@DEBUG_VALUE: ARM_WIFI_GetOption:ip_0 <- [DW_OP_plus_uconst 28, DW_OP_deref] $sp
	@DEBUG_VALUE: ARM_WIFI_GetOption:ip_1 <- [DW_OP_plus_uconst 24, DW_OP_deref] $sp
	@DEBUG_VALUE: ARM_WIFI_GetOption:u32 <- [DW_OP_plus_uconst 32, DW_OP_deref] $sp
	.loc	2 0 17 is_stmt 0                @ C:/Users/shw26/AppData/Local/Arm/Packs/ARM/CMSIS-Driver/2.6.1/WiFi/ESP8266/WiFi_ESP8266.c:0:17
	add	r0, sp, #32
	add	r1, sp, #28
	add	r2, sp, #24
.Ltmp661:
	.loc	2 1423 20 is_stmt 1             @ C:/Users/shw26/AppData/Local/Arm/Packs/ARM/CMSIS-Driver/2.6.1/WiFi/ESP8266/WiFi_ESP8266.c:1423:20
	bl	AT_Resp_RangeDHCP
.Ltmp662:
	@DEBUG_VALUE: ARM_WIFI_GetOption:ex <- $r0
	.loc	2 1425 19                       @ C:/Users/shw26/AppData/Local/Arm/Packs/ARM/CMSIS-Driver/2.6.1/WiFi/ESP8266/WiFi_ESP8266.c:1425:19
	cbnz	r0, .LBB10_69
.Ltmp663:
@ %bb.61:
	@DEBUG_VALUE: ARM_WIFI_GetOption:interface <- $r7
	@DEBUG_VALUE: ARM_WIFI_GetOption:ex <- $r0
	@DEBUG_VALUE: ARM_WIFI_GetOption:u32 <- [DW_OP_plus_uconst 32, DW_OP_deref] $sp
	@DEBUG_VALUE: ARM_WIFI_GetOption:rval <- [DW_OP_plus_uconst 12] [$sp+0]
	@DEBUG_VALUE: ARM_WIFI_GetOption:pu8 <- [DW_OP_plus_uconst 16] [$sp+0]
	@DEBUG_VALUE: ARM_WIFI_GetOption:ip_0 <- [DW_OP_plus_uconst 28, DW_OP_deref] $sp
	@DEBUG_VALUE: ARM_WIFI_GetOption:ip_1 <- [DW_OP_plus_uconst 24, DW_OP_deref] $sp
	@DEBUG_VALUE: ARM_WIFI_GetOption:pu32 <- [DW_OP_plus_uconst 16] [$sp+0]
	.loc	2 0 19 is_stmt 0                @ C:/Users/shw26/AppData/Local/Arm/Packs/ARM/CMSIS-Driver/2.6.1/WiFi/ESP8266/WiFi_ESP8266.c:0:19
	ldr	r0, [sp, #20]                   @ 4-byte Reload
.Ltmp664:
	.loc	2 1426 21 is_stmt 1             @ C:/Users/shw26/AppData/Local/Arm/Packs/ARM/CMSIS-Driver/2.6.1/WiFi/ESP8266/WiFi_ESP8266.c:1426:21
	cmp	r0, #14
	ldr	r2, __arm_cp.10_0
	beq	.LBB10_77
.Ltmp665:
@ %bb.62:
	@DEBUG_VALUE: ARM_WIFI_GetOption:interface <- $r7
	@DEBUG_VALUE: ARM_WIFI_GetOption:u32 <- [DW_OP_plus_uconst 32, DW_OP_deref] $sp
	@DEBUG_VALUE: ARM_WIFI_GetOption:rval <- [DW_OP_plus_uconst 12] [$sp+0]
	@DEBUG_VALUE: ARM_WIFI_GetOption:pu8 <- [DW_OP_plus_uconst 16] [$sp+0]
	@DEBUG_VALUE: ARM_WIFI_GetOption:ip_0 <- [DW_OP_plus_uconst 28, DW_OP_deref] $sp
	@DEBUG_VALUE: ARM_WIFI_GetOption:ip_1 <- [DW_OP_plus_uconst 24, DW_OP_deref] $sp
	@DEBUG_VALUE: ARM_WIFI_GetOption:pu32 <- [DW_OP_plus_uconst 16] [$sp+0]
	cmp	r0, #13
	ldr	r3, [sp, #16]                   @ 4-byte Reload
	bne	.LBB10_79
.Ltmp666:
@ %bb.63:
	@DEBUG_VALUE: ARM_WIFI_GetOption:interface <- $r7
	@DEBUG_VALUE: ARM_WIFI_GetOption:u32 <- [DW_OP_plus_uconst 32, DW_OP_deref] $sp
	@DEBUG_VALUE: ARM_WIFI_GetOption:rval <- [DW_OP_plus_uconst 12] [$sp+0]
	@DEBUG_VALUE: ARM_WIFI_GetOption:pu8 <- [DW_OP_plus_uconst 16] [$sp+0]
	@DEBUG_VALUE: ARM_WIFI_GetOption:ip_0 <- [DW_OP_plus_uconst 28, DW_OP_deref] $sp
	@DEBUG_VALUE: ARM_WIFI_GetOption:ip_1 <- [DW_OP_plus_uconst 24, DW_OP_deref] $sp
	@DEBUG_VALUE: ARM_WIFI_GetOption:pu32 <- [DW_OP_plus_uconst 16] [$sp+0]
	.loc	2 1426 65 is_stmt 0             @ C:/Users/shw26/AppData/Local/Arm/Packs/ARM/CMSIS-Driver/2.6.1/WiFi/ESP8266/WiFi_ESP8266.c:1426:65
	ldr	r0, [sp, #28]
.Ltmp667:
	@DEBUG_VALUE: ARM_WIFI_GetOption:ip_0 <- $r0
	.loc	2 0 65                          @ C:/Users/shw26/AppData/Local/Arm/Packs/ARM/CMSIS-Driver/2.6.1/WiFi/ESP8266/WiFi_ESP8266.c:0:65
	b	.LBB10_78
.Ltmp668:
.LBB10_64:
	@DEBUG_VALUE: ARM_WIFI_GetOption:interface <- $r7
	@DEBUG_VALUE: ARM_WIFI_GetOption:rval <- [DW_OP_plus_uconst 12] [$sp+0]
	@DEBUG_VALUE: ARM_WIFI_GetOption:pu8 <- [DW_OP_plus_uconst 16] [$sp+0]
	@DEBUG_VALUE: ARM_WIFI_GetOption:pu32 <- [DW_OP_plus_uconst 16] [$sp+0]
	subs	r4, r1, #4
	b	.LBB10_83
.Ltmp669:
.LBB10_65:
	@DEBUG_VALUE: ARM_WIFI_GetOption:interface <- $r7
	@DEBUG_VALUE: ARM_WIFI_GetOption:rval <- [DW_OP_plus_uconst 12] [$sp+0]
	@DEBUG_VALUE: ARM_WIFI_GetOption:pu8 <- $r0
	.loc	2 1380 18 is_stmt 1             @ C:/Users/shw26/AppData/Local/Arm/Packs/ARM/CMSIS-Driver/2.6.1/WiFi/ESP8266/WiFi_ESP8266.c:1380:18
	bl	AT_Resp_AccessPointMAC
.Ltmp670:
	.loc	2 0 18 is_stmt 0                @ C:/Users/shw26/AppData/Local/Arm/Packs/ARM/CMSIS-Driver/2.6.1/WiFi/ESP8266/WiFi_ESP8266.c:0:18
	ldr	r2, __arm_cp.10_0
	.loc	2 1380 18                       @ C:/Users/shw26/AppData/Local/Arm/Packs/ARM/CMSIS-Driver/2.6.1/WiFi/ESP8266/WiFi_ESP8266.c:1380:18
	str	r0, [sp]                        @ 4-byte Spill
.Ltmp671:
	@DEBUG_VALUE: ARM_WIFI_GetOption:ex <- [$sp+0]
	.loc	2 0 18                          @ C:/Users/shw26/AppData/Local/Arm/Packs/ARM/CMSIS-Driver/2.6.1/WiFi/ESP8266/WiFi_ESP8266.c:0:18
	b	.LBB10_82
.Ltmp672:
.LBB10_66:
	@DEBUG_VALUE: ARM_WIFI_GetOption:interface <- $r7
	@DEBUG_VALUE: ARM_WIFI_GetOption:rval <- [DW_OP_plus_uconst 12] [$sp+0]
	@DEBUG_VALUE: ARM_WIFI_GetOption:pu8 <- $r0
	.loc	2 1386 17 is_stmt 1             @ C:/Users/shw26/AppData/Local/Arm/Packs/ARM/CMSIS-Driver/2.6.1/WiFi/ESP8266/WiFi_ESP8266.c:1386:17
	cbz	r7, .LBB10_73
.Ltmp673:
@ %bb.67:
	@DEBUG_VALUE: ARM_WIFI_GetOption:interface <- $r7
	@DEBUG_VALUE: ARM_WIFI_GetOption:pu8 <- $r0
	@DEBUG_VALUE: ARM_WIFI_GetOption:rval <- [DW_OP_plus_uconst 12] [$sp+0]
	.loc	2 1389 20                       @ C:/Users/shw26/AppData/Local/Arm/Packs/ARM/CMSIS-Driver/2.6.1/WiFi/ESP8266/WiFi_ESP8266.c:1389:20
	bl	AT_Resp_AccessPointMAC
.Ltmp674:
	.loc	2 0 20 is_stmt 0                @ C:/Users/shw26/AppData/Local/Arm/Packs/ARM/CMSIS-Driver/2.6.1/WiFi/ESP8266/WiFi_ESP8266.c:0:20
	b	.LBB10_74
.Ltmp675:
.LBB10_68:
	@DEBUG_VALUE: ARM_WIFI_GetOption:interface <- $r7
	@DEBUG_VALUE: ARM_WIFI_GetOption:rval <- [DW_OP_plus_uconst 12] [$sp+0]
	@DEBUG_VALUE: ARM_WIFI_GetOption:pu32 <- [DW_OP_plus_uconst 16] [$sp+0]
	@DEBUG_VALUE: ARM_WIFI_GetOption:u32 <- [DW_OP_plus_uconst 32, DW_OP_deref] $sp
	add	r0, sp, #32
	.loc	2 1396 18 is_stmt 1             @ C:/Users/shw26/AppData/Local/Arm/Packs/ARM/CMSIS-Driver/2.6.1/WiFi/ESP8266/WiFi_ESP8266.c:1396:18
	bl	AT_Resp_DHCP
.Ltmp676:
	@DEBUG_VALUE: ARM_WIFI_GetOption:ex <- $r0
	.loc	2 1398 17                       @ C:/Users/shw26/AppData/Local/Arm/Packs/ARM/CMSIS-Driver/2.6.1/WiFi/ESP8266/WiFi_ESP8266.c:1398:17
	cbz	r0, .LBB10_75
.Ltmp677:
.LBB10_69:
	@DEBUG_VALUE: ARM_WIFI_GetOption:interface <- $r7
	@DEBUG_VALUE: ARM_WIFI_GetOption:ex <- $r0
	@DEBUG_VALUE: ARM_WIFI_GetOption:u32 <- [DW_OP_plus_uconst 32, DW_OP_deref] $sp
	@DEBUG_VALUE: ARM_WIFI_GetOption:rval <- [DW_OP_plus_uconst 12] [$sp+0]
	@DEBUG_VALUE: ARM_WIFI_GetOption:pu32 <- [DW_OP_plus_uconst 16] [$sp+0]
	.loc	2 0 0 is_stmt 0                 @ C:/Users/shw26/AppData/Local/Arm/Packs/ARM/CMSIS-Driver/2.6.1/WiFi/ESP8266/WiFi_ESP8266.c:0:0
	ldr	r4, [sp, #12]                   @ 4-byte Reload
.Ltmp678:
	str	r0, [sp]                        @ 4-byte Spill
.Ltmp679:
	@DEBUG_VALUE: ARM_WIFI_GetOption:ex <- [$sp+0]
	ldr	r2, __arm_cp.10_0
	b	.LBB10_83
.Ltmp680:
.LBB10_70:
	@DEBUG_VALUE: ARM_WIFI_GetOption:interface <- $r7
	@DEBUG_VALUE: ARM_WIFI_GetOption:len <- $r6
	@DEBUG_VALUE: ARM_WIFI_GetOption:data <- $r4
	@DEBUG_VALUE: ARM_WIFI_GetOption:ex <- -1
	@DEBUG_VALUE: ARM_WIFI_GetOption:rval <- -1
	movs	r0, #0
.Ltmp681:
	.loc	2 1268 18 is_stmt 1             @ C:/Users/shw26/AppData/Local/Arm/Packs/ARM/CMSIS-Driver/2.6.1/WiFi/ESP8266/WiFi_ESP8266.c:1268:18
	mov	r1, r0
	bl	AT_Cmd_StationMAC
.Ltmp682:
	@DEBUG_VALUE: ARM_WIFI_GetOption:ex <- $r0
.LBB10_71:
	@DEBUG_VALUE: ARM_WIFI_GetOption:interface <- $r7
	@DEBUG_VALUE: ARM_WIFI_GetOption:len <- $r6
	@DEBUG_VALUE: ARM_WIFI_GetOption:data <- $r4
	@DEBUG_VALUE: ARM_WIFI_GetOption:ex <- $r0
	@DEBUG_VALUE: ARM_WIFI_GetOption:rval <- -1
	.loc	2 0 0 is_stmt 0                 @ C:/Users/shw26/AppData/Local/Arm/Packs/ARM/CMSIS-Driver/2.6.1/WiFi/ESP8266/WiFi_ESP8266.c:0:0
	ldr	r1, [sp, #8]                    @ 4-byte Reload
.Ltmp683:
	str	r1, [sp, #12]                   @ 4-byte Spill
.Ltmp684:
	@DEBUG_VALUE: ARM_WIFI_GetOption:rval <- [DW_OP_plus_uconst 12] [$sp+0]
	@DEBUG_VALUE: ARM_WIFI_GetOption:ex <- $r0
	.loc	2 1365 9 is_stmt 1              @ C:/Users/shw26/AppData/Local/Arm/Packs/ARM/CMSIS-Driver/2.6.1/WiFi/ESP8266/WiFi_ESP8266.c:1365:9
	cmp	r0, #0
	bne	.LBB10_52
	b	.LBB10_51
.Ltmp685:
.LBB10_72:
	@DEBUG_VALUE: ARM_WIFI_GetOption:interface <- $r7
	@DEBUG_VALUE: ARM_WIFI_GetOption:rval <- [DW_OP_plus_uconst 12] [$sp+0]
	.loc	2 0 0 is_stmt 0                 @ C:/Users/shw26/AppData/Local/Arm/Packs/ARM/CMSIS-Driver/2.6.1/WiFi/ESP8266/WiFi_ESP8266.c:0:0
	ldr	r4, [sp, #8]                    @ 4-byte Reload
	b	.LBB10_83
.Ltmp686:
.LBB10_73:
	@DEBUG_VALUE: ARM_WIFI_GetOption:interface <- $r7
	@DEBUG_VALUE: ARM_WIFI_GetOption:pu8 <- $r0
	@DEBUG_VALUE: ARM_WIFI_GetOption:rval <- [DW_OP_plus_uconst 12] [$sp+0]
	.loc	2 1387 20 is_stmt 1             @ C:/Users/shw26/AppData/Local/Arm/Packs/ARM/CMSIS-Driver/2.6.1/WiFi/ESP8266/WiFi_ESP8266.c:1387:20
	bl	AT_Resp_StationMAC
.Ltmp687:
.LBB10_74:
	@DEBUG_VALUE: ARM_WIFI_GetOption:interface <- $r7
	@DEBUG_VALUE: ARM_WIFI_GetOption:rval <- [DW_OP_plus_uconst 12] [$sp+0]
	.loc	2 0 0 is_stmt 0                 @ C:/Users/shw26/AppData/Local/Arm/Packs/ARM/CMSIS-Driver/2.6.1/WiFi/ESP8266/WiFi_ESP8266.c:0:0
	str	r0, [sp]                        @ 4-byte Spill
.Ltmp688:
	@DEBUG_VALUE: ARM_WIFI_GetOption:ex <- [$sp+0]
	ldr	r4, [sp, #12]                   @ 4-byte Reload
	ldr	r2, __arm_cp.10_0
	b	.LBB10_83
.Ltmp689:
.LBB10_75:
	@DEBUG_VALUE: ARM_WIFI_GetOption:interface <- $r7
	@DEBUG_VALUE: ARM_WIFI_GetOption:ex <- $r0
	@DEBUG_VALUE: ARM_WIFI_GetOption:u32 <- [DW_OP_plus_uconst 32, DW_OP_deref] $sp
	@DEBUG_VALUE: ARM_WIFI_GetOption:rval <- [DW_OP_plus_uconst 12] [$sp+0]
	@DEBUG_VALUE: ARM_WIFI_GetOption:pu32 <- [DW_OP_plus_uconst 16] [$sp+0]
	.loc	2 1405 19 is_stmt 1             @ C:/Users/shw26/AppData/Local/Arm/Packs/ARM/CMSIS-Driver/2.6.1/WiFi/ESP8266/WiFi_ESP8266.c:1405:19
	ldr	r0, [sp, #32]
.Ltmp690:
	cbz	r7, .LBB10_80
.Ltmp691:
@ %bb.76:
	@DEBUG_VALUE: ARM_WIFI_GetOption:interface <- $r7
	@DEBUG_VALUE: ARM_WIFI_GetOption:u32 <- [DW_OP_plus_uconst 32, DW_OP_deref] $sp
	@DEBUG_VALUE: ARM_WIFI_GetOption:rval <- [DW_OP_plus_uconst 12] [$sp+0]
	@DEBUG_VALUE: ARM_WIFI_GetOption:pu32 <- [DW_OP_plus_uconst 16] [$sp+0]
	.loc	2 0 19 is_stmt 0                @ C:/Users/shw26/AppData/Local/Arm/Packs/ARM/CMSIS-Driver/2.6.1/WiFi/ESP8266/WiFi_ESP8266.c:0:19
	ands	r0, r6
	b	.LBB10_81
.Ltmp692:
.LBB10_77:
	@DEBUG_VALUE: ARM_WIFI_GetOption:interface <- $r7
	@DEBUG_VALUE: ARM_WIFI_GetOption:u32 <- [DW_OP_plus_uconst 32, DW_OP_deref] $sp
	@DEBUG_VALUE: ARM_WIFI_GetOption:rval <- [DW_OP_plus_uconst 12] [$sp+0]
	@DEBUG_VALUE: ARM_WIFI_GetOption:pu8 <- [DW_OP_plus_uconst 16] [$sp+0]
	@DEBUG_VALUE: ARM_WIFI_GetOption:ip_0 <- [DW_OP_plus_uconst 28, DW_OP_deref] $sp
	@DEBUG_VALUE: ARM_WIFI_GetOption:ip_1 <- [DW_OP_plus_uconst 24, DW_OP_deref] $sp
	@DEBUG_VALUE: ARM_WIFI_GetOption:pu32 <- [DW_OP_plus_uconst 16] [$sp+0]
	.loc	2 1427 65 is_stmt 1             @ C:/Users/shw26/AppData/Local/Arm/Packs/ARM/CMSIS-Driver/2.6.1/WiFi/ESP8266/WiFi_ESP8266.c:1427:65
	ldr	r0, [sp, #24]
.Ltmp693:
	@DEBUG_VALUE: ARM_WIFI_GetOption:ip_1 <- $r0
	.loc	2 0 65 is_stmt 0                @ C:/Users/shw26/AppData/Local/Arm/Packs/ARM/CMSIS-Driver/2.6.1/WiFi/ESP8266/WiFi_ESP8266.c:0:65
	ldr	r3, [sp, #16]                   @ 4-byte Reload
.Ltmp694:
.LBB10_78:
	@DEBUG_VALUE: ARM_WIFI_GetOption:interface <- $r7
	@DEBUG_VALUE: ARM_WIFI_GetOption:u32 <- [DW_OP_plus_uconst 32, DW_OP_deref] $sp
	@DEBUG_VALUE: ARM_WIFI_GetOption:rval <- [DW_OP_plus_uconst 12] [$sp+0]
	@DEBUG_VALUE: ARM_WIFI_GetOption:pu8 <- [DW_OP_plus_uconst 16] [$sp+0]
	@DEBUG_VALUE: ARM_WIFI_GetOption:pu32 <- [DW_OP_plus_uconst 16] [$sp+0]
	strb	r0, [r3]
	lsrs	r1, r0, #24
	strb	r1, [r3, #3]
	lsrs	r1, r0, #16
	strb	r1, [r3, #2]
	lsrs	r0, r0, #8
	strb	r0, [r3, #1]
	b	.LBB10_82
.Ltmp695:
.LBB10_79:
	@DEBUG_VALUE: ARM_WIFI_GetOption:interface <- $r7
	@DEBUG_VALUE: ARM_WIFI_GetOption:u32 <- [DW_OP_plus_uconst 32, DW_OP_deref] $sp
	@DEBUG_VALUE: ARM_WIFI_GetOption:rval <- [DW_OP_plus_uconst 12] [$sp+0]
	@DEBUG_VALUE: ARM_WIFI_GetOption:pu8 <- [DW_OP_plus_uconst 16] [$sp+0]
	@DEBUG_VALUE: ARM_WIFI_GetOption:ip_0 <- [DW_OP_plus_uconst 28, DW_OP_deref] $sp
	@DEBUG_VALUE: ARM_WIFI_GetOption:ip_1 <- [DW_OP_plus_uconst 24, DW_OP_deref] $sp
	@DEBUG_VALUE: ARM_WIFI_GetOption:pu32 <- [DW_OP_plus_uconst 16] [$sp+0]
	.loc	2 1428 73 is_stmt 1             @ C:/Users/shw26/AppData/Local/Arm/Packs/ARM/CMSIS-Driver/2.6.1/WiFi/ESP8266/WiFi_ESP8266.c:1428:73
	ldr	r0, [sp, #32]
.Ltmp696:
	@DEBUG_VALUE: ARM_WIFI_GetOption:u32 <- $r0
	.loc	2 1428 71 is_stmt 0             @ C:/Users/shw26/AppData/Local/Arm/Packs/ARM/CMSIS-Driver/2.6.1/WiFi/ESP8266/WiFi_ESP8266.c:1428:71
	str	r0, [r3]
	b	.LBB10_82
.Ltmp697:
.LBB10_80:
	@DEBUG_VALUE: ARM_WIFI_GetOption:interface <- $r7
	@DEBUG_VALUE: ARM_WIFI_GetOption:u32 <- [DW_OP_plus_uconst 32, DW_OP_deref] $sp
	@DEBUG_VALUE: ARM_WIFI_GetOption:rval <- [DW_OP_plus_uconst 12] [$sp+0]
	@DEBUG_VALUE: ARM_WIFI_GetOption:pu32 <- [DW_OP_plus_uconst 16] [$sp+0]
	.loc	2 0 71                          @ C:/Users/shw26/AppData/Local/Arm/Packs/ARM/CMSIS-Driver/2.6.1/WiFi/ESP8266/WiFi_ESP8266.c:0:71
	lsrs	r0, r0, #1
.Ltmp698:
.LBB10_81:
	@DEBUG_VALUE: ARM_WIFI_GetOption:interface <- $r7
	@DEBUG_VALUE: ARM_WIFI_GetOption:u32 <- [DW_OP_plus_uconst 32, DW_OP_deref] $sp
	@DEBUG_VALUE: ARM_WIFI_GetOption:rval <- [DW_OP_plus_uconst 12] [$sp+0]
	@DEBUG_VALUE: ARM_WIFI_GetOption:pu32 <- [DW_OP_plus_uconst 16] [$sp+0]
	ldr	r2, __arm_cp.10_0
	ldr	r1, [sp, #16]                   @ 4-byte Reload
.Ltmp699:
	@DEBUG_VALUE: ARM_WIFI_GetOption:pu32 <- $r1
	@DEBUG_VALUE: ARM_WIFI_GetOption:u32 <- $r0
	.loc	2 1409 21 is_stmt 1             @ C:/Users/shw26/AppData/Local/Arm/Packs/ARM/CMSIS-Driver/2.6.1/WiFi/ESP8266/WiFi_ESP8266.c:1409:21
	str	r0, [r1]
.Ltmp700:
	.loc	2 0 0 is_stmt 0                 @ C:/Users/shw26/AppData/Local/Arm/Packs/ARM/CMSIS-Driver/2.6.1/WiFi/ESP8266/WiFi_ESP8266.c:0:0
	str	r0, [sp, #32]
.Ltmp701:
.LBB10_82:
	@DEBUG_VALUE: ARM_WIFI_GetOption:interface <- $r7
	@DEBUG_VALUE: ARM_WIFI_GetOption:rval <- [DW_OP_plus_uconst 12] [$sp+0]
	ldr	r4, [sp, #12]                   @ 4-byte Reload
.Ltmp702:
.LBB10_83:
	@DEBUG_VALUE: ARM_WIFI_GetOption:interface <- $r7
	@DEBUG_VALUE: ARM_WIFI_GetOption:rval <- [DW_OP_plus_uconst 12] [$sp+0]
	@DEBUG_VALUE: ARM_WIFI_GetOption:rval <- $r4
	@DEBUG_VALUE: ARM_WIFI_GetOption:ex <- [$sp+0]
	ldr	r0, [sp]                        @ 4-byte Reload
.Ltmp703:
	@DEBUG_VALUE: ARM_WIFI_GetOption:ex <- $r0
	.loc	2 1434 13 is_stmt 1             @ C:/Users/shw26/AppData/Local/Arm/Packs/ARM/CMSIS-Driver/2.6.1/WiFi/ESP8266/WiFi_ESP8266.c:1434:13
	cmp	r0, #0
	beq	.LBB10_84
	b	.LBB10_53
.Ltmp704:
.LBB10_84:
	@DEBUG_VALUE: ARM_WIFI_GetOption:interface <- $r7
	@DEBUG_VALUE: ARM_WIFI_GetOption:rval <- $r4
	@DEBUG_VALUE: ARM_WIFI_GetOption:ex <- $r0
	mov	r4, r0
.Ltmp705:
	@DEBUG_VALUE: ARM_WIFI_GetOption:ex <- $r4
	.loc	2 0 13 is_stmt 0                @ C:/Users/shw26/AppData/Local/Arm/Packs/ARM/CMSIS-Driver/2.6.1/WiFi/ESP8266/WiFi_ESP8266.c:0:13
	b	.LBB10_53
.Ltmp706:
	.p2align	2
@ %bb.85:
__arm_cp.10_0:
	.long	WIFI_Ctrl
.Lcpi_end25:
	.size	__arm_cp.10_0, .Lcpi_end25-__arm_cp.10_0
__arm_cp.10_1:
	.long	5000                            @ 0x1388
.Lcpi_end26:
	.size	__arm_cp.10_1, .Lcpi_end26-__arm_cp.10_1
.Lfunc_end10:
	.size	ARM_WIFI_GetOption, .Lfunc_end10-ARM_WIFI_GetOption
	.cfi_endproc
	.cantunwind
	.fnend
                                        @ -- End function
	.section	.text.ARM_WIFI_Scan,"ax",%progbits
	.p2align	2                               @ -- Begin function ARM_WIFI_Scan
	.type	ARM_WIFI_Scan,%function
	.code	16                              @ @ARM_WIFI_Scan
	.thumb_func
ARM_WIFI_Scan:
.Lfunc_begin11:
	.loc	2 1461 0 is_stmt 1              @ C:/Users/shw26/AppData/Local/Arm/Packs/ARM/CMSIS-Driver/2.6.1/WiFi/ESP8266/WiFi_ESP8266.c:1461:0
	.fnstart
	.cfi_startproc
@ %bb.0:
	@DEBUG_VALUE: ARM_WIFI_Scan:scan_info <- $r0
	@DEBUG_VALUE: ARM_WIFI_Scan:max_num <- $r1
	.save	{r4, r5, r6, r7, lr}
	push	{r4, r5, r6, r7, lr}
	.cfi_def_cfa_offset 20
	.cfi_offset lr, -4
	.cfi_offset r7, -8
	.cfi_offset r6, -12
	.cfi_offset r5, -16
	.cfi_offset r4, -20
	.pad	#68
	sub	sp, #68
	.cfi_def_cfa_offset 88
	mov	r7, r0
	add	r0, sp, #24
.Ltmp707:
	@DEBUG_VALUE: ARM_WIFI_Scan:scan_info <- [DW_OP_LLVM_entry_value 1] $r0
	str	r0, [sp, #20]                   @ 4-byte Spill
	movs	r4, #0
	mvns	r6, r4
	@DEBUG_VALUE: ARM_WIFI_Scan:max_num <- $r1
.Ltmp708:
	@DEBUG_VALUE: ARM_WIFI_Scan:scan_info <- $r7
	.loc	2 0 0 prologue_end              @ C:/Users/shw26/AppData/Local/Arm/Packs/ARM/CMSIS-Driver/2.6.1/WiFi/ESP8266/WiFi_ESP8266.c:0:0
	subs	r0, r6, #4
	.loc	2 1467 27                       @ C:/Users/shw26/AppData/Local/Arm/Packs/ARM/CMSIS-Driver/2.6.1/WiFi/ESP8266/WiFi_ESP8266.c:1467:27
	cbz	r7, .LBB11_10
.Ltmp709:
@ %bb.1:
	@DEBUG_VALUE: ARM_WIFI_Scan:scan_info <- $r7
	@DEBUG_VALUE: ARM_WIFI_Scan:max_num <- $r1
	.loc	2 0 27 is_stmt 0                @ C:/Users/shw26/AppData/Local/Arm/Packs/ARM/CMSIS-Driver/2.6.1/WiFi/ESP8266/WiFi_ESP8266.c:0:27
	mov	r5, r1
.Ltmp710:
	@DEBUG_VALUE: ARM_WIFI_Scan:max_num <- $r5
	.loc	2 1467 27                       @ C:/Users/shw26/AppData/Local/Arm/Packs/ARM/CMSIS-Driver/2.6.1/WiFi/ESP8266/WiFi_ESP8266.c:1467:27
	cbz	r1, .LBB11_10
.Ltmp711:
@ %bb.2:
	@DEBUG_VALUE: ARM_WIFI_Scan:scan_info <- $r7
	@DEBUG_VALUE: ARM_WIFI_Scan:max_num <- $r5
	.loc	2 1470 35 is_stmt 1             @ C:/Users/shw26/AppData/Local/Arm/Packs/ARM/CMSIS-Driver/2.6.1/WiFi/ESP8266/WiFi_ESP8266.c:1470:35
	ldr	r0, __arm_cp.11_0
	ldr	r0, [r0, #16]
	.loc	2 1470 12 is_stmt 0             @ C:/Users/shw26/AppData/Local/Arm/Packs/ARM/CMSIS-Driver/2.6.1/WiFi/ESP8266/WiFi_ESP8266.c:1470:12
	mov	r1, r6
	bl	osMutexAcquire
.Ltmp712:
	.loc	2 1470 12                       @ C:/Users/shw26/AppData/Local/Arm/Packs/ARM/CMSIS-Driver/2.6.1/WiFi/ESP8266/WiFi_ESP8266.c:1470:12
	cbz	r0, .LBB11_4
.Ltmp713:
@ %bb.3:
	@DEBUG_VALUE: ARM_WIFI_Scan:scan_info <- $r7
	@DEBUG_VALUE: ARM_WIFI_Scan:max_num <- $r5
	.loc	2 0 0                           @ C:/Users/shw26/AppData/Local/Arm/Packs/ARM/CMSIS-Driver/2.6.1/WiFi/ESP8266/WiFi_ESP8266.c:0:0
	mov	r0, r6
.Ltmp714:
	@DEBUG_VALUE: ARM_WIFI_Scan:rval <- $r0
	.loc	2 1532 3 is_stmt 1              @ C:/Users/shw26/AppData/Local/Arm/Packs/ARM/CMSIS-Driver/2.6.1/WiFi/ESP8266/WiFi_ESP8266.c:1532:3
	add	sp, #68
	pop	{r4, r5, r6, r7, pc}
.Ltmp715:
.LBB11_4:
	@DEBUG_VALUE: ARM_WIFI_Scan:scan_info <- $r7
	@DEBUG_VALUE: ARM_WIFI_Scan:max_num <- $r5
	@DEBUG_VALUE: ARM_WIFI_Scan:i <- 0
	.loc	2 0 3 is_stmt 0                 @ C:/Users/shw26/AppData/Local/Arm/Packs/ARM/CMSIS-Driver/2.6.1/WiFi/ESP8266/WiFi_ESP8266.c:0:3
	str	r7, [sp, #16]                   @ 4-byte Spill
.Ltmp716:
	@DEBUG_VALUE: ARM_WIFI_Scan:scan_info <- [DW_OP_plus_uconst 16] [$sp+0]
	str	r6, [sp]                        @ 4-byte Spill
.Ltmp717:
	.loc	2 1477 10 is_stmt 1             @ C:/Users/shw26/AppData/Local/Arm/Packs/ARM/CMSIS-Driver/2.6.1/WiFi/ESP8266/WiFi_ESP8266.c:1477:10
	bl	AT_Cmd_ListAP
.Ltmp718:
	@DEBUG_VALUE: ARM_WIFI_Scan:ex <- $r0
	.loc	2 1479 9                        @ C:/Users/shw26/AppData/Local/Arm/Packs/ARM/CMSIS-Driver/2.6.1/WiFi/ESP8266/WiFi_ESP8266.c:1479:9
	cbz	r0, .LBB11_6
.Ltmp719:
@ %bb.5:
	@DEBUG_VALUE: ARM_WIFI_Scan:scan_info <- [DW_OP_plus_uconst 16] [$sp+0]
	@DEBUG_VALUE: ARM_WIFI_Scan:max_num <- $r5
	@DEBUG_VALUE: ARM_WIFI_Scan:ex <- $r0
	@DEBUG_VALUE: ARM_WIFI_Scan:i <- 0
	.loc	2 0 9 is_stmt 0                 @ C:/Users/shw26/AppData/Local/Arm/Packs/ARM/CMSIS-Driver/2.6.1/WiFi/ESP8266/WiFi_ESP8266.c:0:9
	mov	r7, r0
.Ltmp720:
	@DEBUG_VALUE: ARM_WIFI_Scan:ex <- $r7
	ldr	r6, __arm_cp.11_0
	b	.LBB11_7
.Ltmp721:
.LBB11_6:
	@DEBUG_VALUE: ARM_WIFI_Scan:scan_info <- [DW_OP_plus_uconst 16] [$sp+0]
	@DEBUG_VALUE: ARM_WIFI_Scan:max_num <- $r5
	@DEBUG_VALUE: ARM_WIFI_Scan:ex <- $r0
	@DEBUG_VALUE: ARM_WIFI_Scan:i <- 0
	movs	r0, #1
.Ltmp722:
	ldr	r1, __arm_cp.11_1
.Ltmp723:
	.loc	2 1481 12 is_stmt 1             @ C:/Users/shw26/AppData/Local/Arm/Packs/ARM/CMSIS-Driver/2.6.1/WiFi/ESP8266/WiFi_ESP8266.c:1481:12
	bl	WiFi_Wait
	mov	r7, r0
.Ltmp724:
	@DEBUG_VALUE: ARM_WIFI_Scan:ex <- $r7
	.loc	2 0 12 is_stmt 0                @ C:/Users/shw26/AppData/Local/Arm/Packs/ARM/CMSIS-Driver/2.6.1/WiFi/ESP8266/WiFi_ESP8266.c:0:12
	ldr	r6, __arm_cp.11_0
	.loc	2 1483 11 is_stmt 1             @ C:/Users/shw26/AppData/Local/Arm/Packs/ARM/CMSIS-Driver/2.6.1/WiFi/ESP8266/WiFi_ESP8266.c:1483:11
	cbz	r0, .LBB11_11
.Ltmp725:
.LBB11_7:
	@DEBUG_VALUE: ARM_WIFI_Scan:ex <- $r7
	@DEBUG_VALUE: ARM_WIFI_Scan:max_num <- $r5
	@DEBUG_VALUE: ARM_WIFI_Scan:i <- $r4
	@DEBUG_VALUE: ARM_WIFI_Scan:ex <- $r7
	@DEBUG_VALUE: ARM_WIFI_Scan:rval <- undef
	.loc	2 1526 32                       @ C:/Users/shw26/AppData/Local/Arm/Packs/ARM/CMSIS-Driver/2.6.1/WiFi/ESP8266/WiFi_ESP8266.c:1526:32
	ldr	r0, [r6, #16]
	.loc	2 1526 9 is_stmt 0              @ C:/Users/shw26/AppData/Local/Arm/Packs/ARM/CMSIS-Driver/2.6.1/WiFi/ESP8266/WiFi_ESP8266.c:1526:9
	bl	osMutexRelease
.Ltmp726:
	.loc	2 1526 9                        @ C:/Users/shw26/AppData/Local/Arm/Packs/ARM/CMSIS-Driver/2.6.1/WiFi/ESP8266/WiFi_ESP8266.c:1526:9
	orrs	r0, r7
	beq	.LBB11_9
.Ltmp727:
@ %bb.8:
	@DEBUG_VALUE: ARM_WIFI_Scan:ex <- $r7
	@DEBUG_VALUE: ARM_WIFI_Scan:max_num <- $r5
	@DEBUG_VALUE: ARM_WIFI_Scan:i <- $r4
	ldr	r4, [sp]                        @ 4-byte Reload
.Ltmp728:
.LBB11_9:
	@DEBUG_VALUE: ARM_WIFI_Scan:ex <- $r7
	@DEBUG_VALUE: ARM_WIFI_Scan:max_num <- $r5
	.loc	2 0 0                           @ C:/Users/shw26/AppData/Local/Arm/Packs/ARM/CMSIS-Driver/2.6.1/WiFi/ESP8266/WiFi_ESP8266.c:0:0
	mov	r0, r4
.Ltmp729:
.LBB11_10:
	@DEBUG_VALUE: ARM_WIFI_Scan:rval <- $r0
	.loc	2 1532 3 is_stmt 1              @ C:/Users/shw26/AppData/Local/Arm/Packs/ARM/CMSIS-Driver/2.6.1/WiFi/ESP8266/WiFi_ESP8266.c:1532:3
	add	sp, #68
	pop	{r4, r5, r6, r7, pc}
.Ltmp730:
.LBB11_11:
	@DEBUG_VALUE: ARM_WIFI_Scan:scan_info <- [DW_OP_plus_uconst 16] [$sp+0]
	@DEBUG_VALUE: ARM_WIFI_Scan:ex <- $r7
	@DEBUG_VALUE: ARM_WIFI_Scan:max_num <- $r5
	@DEBUG_VALUE: ARM_WIFI_Scan:i <- 0
	.loc	2 0 3 is_stmt 0                 @ C:/Users/shw26/AppData/Local/Arm/Packs/ARM/CMSIS-Driver/2.6.1/WiFi/ESP8266/WiFi_ESP8266.c:0:3
	ldr	r0, [sp, #20]                   @ 4-byte Reload
	adds	r0, #34
	str	r0, [sp, #20]                   @ 4-byte Spill
	add	r0, sp, #24
.Ltmp731:
	adds	r1, r0, #1
	str	r1, [sp, #8]                    @ 4-byte Spill
	adds	r0, #35
	str	r0, [sp, #12]                   @ 4-byte Spill
	movs	r4, #0
	movs	r0, #42
	str	r0, [sp, #4]                    @ 4-byte Spill
	b	.LBB11_15
.Ltmp732:
.LBB11_12:                              @   in Loop: Header=BB11_15 Depth=1
	@DEBUG_VALUE: ARM_WIFI_Scan:ex <- $r7
	@DEBUG_VALUE: ARM_WIFI_Scan:max_num <- $r5
	@DEBUG_VALUE: ARM_WIFI_Scan:i <- $r4
	@DEBUG_VALUE: ARM_WIFI_Scan:ecn <- 3
	movs	r0, #3
.Ltmp733:
.LBB11_13:                              @   in Loop: Header=BB11_15 Depth=1
	@DEBUG_VALUE: ARM_WIFI_Scan:ex <- $r7
	@DEBUG_VALUE: ARM_WIFI_Scan:max_num <- $r5
	@DEBUG_VALUE: ARM_WIFI_Scan:i <- $r4
	@DEBUG_VALUE: ARM_WIFI_Scan:ecn <- $r0
	movs	r1, #39
	.loc	2 1507 37 is_stmt 1             @ C:/Users/shw26/AppData/Local/Arm/Packs/ARM/CMSIS-Driver/2.6.1/WiFi/ESP8266/WiFi_ESP8266.c:1507:37
	strb	r0, [r6, r1]
	ldr	r2, [sp, #20]                   @ 4-byte Reload
	.loc	2 1508 42                       @ C:/Users/shw26/AppData/Local/Arm/Packs/ARM/CMSIS-Driver/2.6.1/WiFi/ESP8266/WiFi_ESP8266.c:1508:42
	ldrb	r0, [r2, #7]
.Ltmp734:
	.loc	2 0 42 is_stmt 0                @ C:/Users/shw26/AppData/Local/Arm/Packs/ARM/CMSIS-Driver/2.6.1/WiFi/ESP8266/WiFi_ESP8266.c:0:42
	movs	r1, #40
	.loc	2 1508 37                       @ C:/Users/shw26/AppData/Local/Arm/Packs/ARM/CMSIS-Driver/2.6.1/WiFi/ESP8266/WiFi_ESP8266.c:1508:37
	strb	r0, [r6, r1]
	.loc	2 1509 51 is_stmt 1             @ C:/Users/shw26/AppData/Local/Arm/Packs/ARM/CMSIS-Driver/2.6.1/WiFi/ESP8266/WiFi_ESP8266.c:1509:51
	ldrb	r0, [r2]
	movs	r1, #41
	.loc	2 1509 37 is_stmt 0             @ C:/Users/shw26/AppData/Local/Arm/Packs/ARM/CMSIS-Driver/2.6.1/WiFi/ESP8266/WiFi_ESP8266.c:1509:37
	strb	r0, [r6, r1]
	.loc	2 1511 16 is_stmt 1             @ C:/Users/shw26/AppData/Local/Arm/Packs/ARM/CMSIS-Driver/2.6.1/WiFi/ESP8266/WiFi_ESP8266.c:1511:16
	adds	r4, r4, #1
.Ltmp735:
	@DEBUG_VALUE: ARM_WIFI_Scan:i <- $r4
	.loc	2 0 16 is_stmt 0                @ C:/Users/shw26/AppData/Local/Arm/Packs/ARM/CMSIS-Driver/2.6.1/WiFi/ESP8266/WiFi_ESP8266.c:0:16
	ldr	r6, __arm_cp.11_0
.Ltmp736:
.LBB11_14:                              @   in Loop: Header=BB11_15 Depth=1
	@DEBUG_VALUE: ARM_WIFI_Scan:ex <- $r7
	@DEBUG_VALUE: ARM_WIFI_Scan:max_num <- $r5
	@DEBUG_VALUE: ARM_WIFI_Scan:i <- $r4
	@DEBUG_VALUE: ARM_WIFI_Scan:i <- $r4
	.loc	2 1514 9 is_stmt 1              @ C:/Users/shw26/AppData/Local/Arm/Packs/ARM/CMSIS-Driver/2.6.1/WiFi/ESP8266/WiFi_ESP8266.c:1514:9
	cmp	r7, #0
	ble	.LBB11_7
.Ltmp737:
.LBB11_15:                              @ =>This Inner Loop Header: Depth=1
	@DEBUG_VALUE: ARM_WIFI_Scan:ex <- $r7
	@DEBUG_VALUE: ARM_WIFI_Scan:max_num <- $r5
	@DEBUG_VALUE: ARM_WIFI_Scan:i <- $r4
	.loc	2 0 9 is_stmt 0                 @ C:/Users/shw26/AppData/Local/Arm/Packs/ARM/CMSIS-Driver/2.6.1/WiFi/ESP8266/WiFi_ESP8266.c:0:9
	add	r0, sp, #24
	.loc	2 1487 16 is_stmt 1             @ C:/Users/shw26/AppData/Local/Arm/Packs/ARM/CMSIS-Driver/2.6.1/WiFi/ESP8266/WiFi_ESP8266.c:1487:16
	bl	AT_Resp_ListAP
	mov	r7, r0
.Ltmp738:
	@DEBUG_VALUE: ARM_WIFI_Scan:ex <- $r7
	.loc	2 1489 15                       @ C:/Users/shw26/AppData/Local/Arm/Packs/ARM/CMSIS-Driver/2.6.1/WiFi/ESP8266/WiFi_ESP8266.c:1489:15
	cmp	r4, r5
	bhs	.LBB11_14
.Ltmp739:
@ %bb.16:                               @   in Loop: Header=BB11_15 Depth=1
	@DEBUG_VALUE: ARM_WIFI_Scan:ex <- $r7
	@DEBUG_VALUE: ARM_WIFI_Scan:max_num <- $r5
	@DEBUG_VALUE: ARM_WIFI_Scan:i <- $r4
	cmp	r7, #0
	bmi	.LBB11_14
.Ltmp740:
@ %bb.17:                               @   in Loop: Header=BB11_15 Depth=1
	@DEBUG_VALUE: ARM_WIFI_Scan:ex <- $r7
	@DEBUG_VALUE: ARM_WIFI_Scan:max_num <- $r5
	@DEBUG_VALUE: ARM_WIFI_Scan:i <- $r4
	.loc	2 1493 23                       @ C:/Users/shw26/AppData/Local/Arm/Packs/ARM/CMSIS-Driver/2.6.1/WiFi/ESP8266/WiFi_ESP8266.c:1493:23
	ldr	r0, [sp, #4]                    @ 4-byte Reload
	muls	r0, r4, r0
	ldr	r1, [sp, #16]                   @ 4-byte Reload
.Ltmp741:
	@DEBUG_VALUE: ARM_WIFI_Scan:scan_info <- $r1
	adds	r6, r1, r0
	.loc	2 1493 15 is_stmt 0             @ C:/Users/shw26/AppData/Local/Arm/Packs/ARM/CMSIS-Driver/2.6.1/WiFi/ESP8266/WiFi_ESP8266.c:1493:15
	mov	r0, r6
	ldr	r1, [sp, #8]                    @ 4-byte Reload
.Ltmp742:
	bl	strcpy
	.loc	2 1494 15 is_stmt 1             @ C:/Users/shw26/AppData/Local/Arm/Packs/ARM/CMSIS-Driver/2.6.1/WiFi/ESP8266/WiFi_ESP8266.c:1494:15
	adds	r0, #33
	movs	r2, #6
	ldr	r1, [sp, #12]                   @ 4-byte Reload
	bl	__aeabi_memcpy
	add	r0, sp, #24
	.loc	2 1497 26                       @ C:/Users/shw26/AppData/Local/Arm/Packs/ARM/CMSIS-Driver/2.6.1/WiFi/ESP8266/WiFi_ESP8266.c:1497:26
	ldrb	r0, [r0]
	.loc	2 1497 15 is_stmt 0             @ C:/Users/shw26/AppData/Local/Arm/Packs/ARM/CMSIS-Driver/2.6.1/WiFi/ESP8266/WiFi_ESP8266.c:1497:15
	cmp	r0, #3
	blo	.LBB11_13
.Ltmp743:
@ %bb.18:                               @   in Loop: Header=BB11_15 Depth=1
	@DEBUG_VALUE: ARM_WIFI_Scan:ex <- $r7
	@DEBUG_VALUE: ARM_WIFI_Scan:max_num <- $r5
	@DEBUG_VALUE: ARM_WIFI_Scan:i <- $r4
	subs	r0, r0, #3
	cmp	r0, #1
	bls	.LBB11_12
.Ltmp744:
@ %bb.19:                               @   in Loop: Header=BB11_15 Depth=1
	@DEBUG_VALUE: ARM_WIFI_Scan:ex <- $r7
	@DEBUG_VALUE: ARM_WIFI_Scan:max_num <- $r5
	@DEBUG_VALUE: ARM_WIFI_Scan:i <- $r4
	.loc	2 0 15                          @ C:/Users/shw26/AppData/Local/Arm/Packs/ARM/CMSIS-Driver/2.6.1/WiFi/ESP8266/WiFi_ESP8266.c:0:15
	movs	r0, #255
.Ltmp745:
	@DEBUG_VALUE: ARM_WIFI_Scan:ecn <- -1
	b	.LBB11_13
.Ltmp746:
	.p2align	2
@ %bb.20:
__arm_cp.11_0:
	.long	WIFI_Ctrl
.Lcpi_end27:
	.size	__arm_cp.11_0, .Lcpi_end27-__arm_cp.11_0
__arm_cp.11_1:
	.long	25000                           @ 0x61a8
.Lcpi_end28:
	.size	__arm_cp.11_1, .Lcpi_end28-__arm_cp.11_1
.Lfunc_end11:
	.size	ARM_WIFI_Scan, .Lfunc_end11-ARM_WIFI_Scan
	.cfi_endproc
	.cantunwind
	.fnend
                                        @ -- End function
	.section	.text.ARM_WIFI_Activate,"ax",%progbits
	.p2align	2                               @ -- Begin function ARM_WIFI_Activate
	.type	ARM_WIFI_Activate,%function
	.code	16                              @ @ARM_WIFI_Activate
	.thumb_func
ARM_WIFI_Activate:
.Lfunc_begin12:
	.loc	2 1548 0 is_stmt 1              @ C:/Users/shw26/AppData/Local/Arm/Packs/ARM/CMSIS-Driver/2.6.1/WiFi/ESP8266/WiFi_ESP8266.c:1548:0
	.fnstart
	.cfi_startproc
@ %bb.0:
	@DEBUG_VALUE: ARM_WIFI_Activate:interface <- $r0
	@DEBUG_VALUE: ARM_WIFI_Activate:config <- $r1
	.save	{r4, r5, r6, r7, lr}
	push	{r4, r5, r6, r7, lr}
	.cfi_def_cfa_offset 20
	.cfi_offset lr, -4
	.cfi_offset r7, -8
	.cfi_offset r6, -12
	.cfi_offset r5, -16
	.cfi_offset r4, -20
	.pad	#36
	sub	sp, #36
	.cfi_def_cfa_offset 56
	mov	r5, r1
	movs	r4, #0
	mvns	r1, r4
.Ltmp747:
	@DEBUG_VALUE: ARM_WIFI_Activate:config <- [DW_OP_LLVM_entry_value 1] $r1
	@DEBUG_VALUE: ARM_WIFI_Activate:config <- $r5
	@DEBUG_VALUE: ARM_WIFI_Activate:interface <- $r0
	.loc	2 0 0 prologue_end              @ C:/Users/shw26/AppData/Local/Arm/Packs/ARM/CMSIS-Driver/2.6.1/WiFi/ESP8266/WiFi_ESP8266.c:0:0
	subs	r6, r1, #4
	.loc	2 1554 24                       @ C:/Users/shw26/AppData/Local/Arm/Packs/ARM/CMSIS-Driver/2.6.1/WiFi/ESP8266/WiFi_ESP8266.c:1554:24
	cmp	r0, #1
	bhi	.LBB12_4
.Ltmp748:
@ %bb.1:
	@DEBUG_VALUE: ARM_WIFI_Activate:config <- $r5
	@DEBUG_VALUE: ARM_WIFI_Activate:interface <- $r0
	@DEBUG_VALUE: ARM_WIFI_Activate:interface <- $r0
	cbz	r5, .LBB12_4
.Ltmp749:
@ %bb.2:
	@DEBUG_VALUE: ARM_WIFI_Activate:config <- $r5
	@DEBUG_VALUE: ARM_WIFI_Activate:interface <- $r0
	.loc	2 0 24 is_stmt 0                @ C:/Users/shw26/AppData/Local/Arm/Packs/ARM/CMSIS-Driver/2.6.1/WiFi/ESP8266/WiFi_ESP8266.c:0:24
	mov	r7, r0
.Ltmp750:
	@DEBUG_VALUE: ARM_WIFI_Activate:interface <- $r7
	.loc	2 1557 20 is_stmt 1             @ C:/Users/shw26/AppData/Local/Arm/Packs/ARM/CMSIS-Driver/2.6.1/WiFi/ESP8266/WiFi_ESP8266.c:1557:20
	ldrb	r0, [r5, #11]
.Ltmp751:
	.loc	2 1557 12 is_stmt 0             @ C:/Users/shw26/AppData/Local/Arm/Packs/ARM/CMSIS-Driver/2.6.1/WiFi/ESP8266/WiFi_ESP8266.c:1557:12
	cbz	r0, .LBB12_5
.Ltmp752:
@ %bb.3:
	@DEBUG_VALUE: ARM_WIFI_Activate:interface <- $r7
	@DEBUG_VALUE: ARM_WIFI_Activate:config <- $r5
	.loc	2 0 12                          @ C:/Users/shw26/AppData/Local/Arm/Packs/ARM/CMSIS-Driver/2.6.1/WiFi/ESP8266/WiFi_ESP8266.c:0:12
	subs	r6, r1, #3
.Ltmp753:
.LBB12_4:
	@DEBUG_VALUE: ARM_WIFI_Activate:rval <- $r6
	.loc	2 1849 3 is_stmt 1              @ C:/Users/shw26/AppData/Local/Arm/Packs/ARM/CMSIS-Driver/2.6.1/WiFi/ESP8266/WiFi_ESP8266.c:1849:3
	mov	r0, r6
	add	sp, #36
	pop	{r4, r5, r6, r7, pc}
.Ltmp754:
.LBB12_5:
	@DEBUG_VALUE: ARM_WIFI_Activate:interface <- $r7
	@DEBUG_VALUE: ARM_WIFI_Activate:config <- $r5
	.loc	2 1560 21                       @ C:/Users/shw26/AppData/Local/Arm/Packs/ARM/CMSIS-Driver/2.6.1/WiFi/ESP8266/WiFi_ESP8266.c:1560:21
	ldr	r0, [r5]
	.loc	2 1560 35 is_stmt 0             @ C:/Users/shw26/AppData/Local/Arm/Packs/ARM/CMSIS-Driver/2.6.1/WiFi/ESP8266/WiFi_ESP8266.c:1560:35
	cmp	r0, #0
	beq	.LBB12_4
.Ltmp755:
@ %bb.6:
	@DEBUG_VALUE: ARM_WIFI_Activate:interface <- $r7
	@DEBUG_VALUE: ARM_WIFI_Activate:config <- $r5
	.loc	2 1560 47                       @ C:/Users/shw26/AppData/Local/Arm/Packs/ARM/CMSIS-Driver/2.6.1/WiFi/ESP8266/WiFi_ESP8266.c:1560:47
	ldr	r0, [r5, #4]
.Ltmp756:
	.loc	2 1560 12                       @ C:/Users/shw26/AppData/Local/Arm/Packs/ARM/CMSIS-Driver/2.6.1/WiFi/ESP8266/WiFi_ESP8266.c:1560:12
	cmp	r0, #0
	beq	.LBB12_4
.Ltmp757:
@ %bb.7:
	@DEBUG_VALUE: ARM_WIFI_Activate:interface <- $r7
	@DEBUG_VALUE: ARM_WIFI_Activate:config <- $r5
	.loc	2 1563 20 is_stmt 1             @ C:/Users/shw26/AppData/Local/Arm/Packs/ARM/CMSIS-Driver/2.6.1/WiFi/ESP8266/WiFi_ESP8266.c:1563:20
	ldrb	r0, [r5, #8]
.Ltmp758:
	.loc	2 1563 12 is_stmt 0             @ C:/Users/shw26/AppData/Local/Arm/Packs/ARM/CMSIS-Driver/2.6.1/WiFi/ESP8266/WiFi_ESP8266.c:1563:12
	cmp	r0, #255
	beq	.LBB12_4
.Ltmp759:
@ %bb.8:
	@DEBUG_VALUE: ARM_WIFI_Activate:interface <- $r7
	@DEBUG_VALUE: ARM_WIFI_Activate:config <- $r5
	.loc	2 1566 20 is_stmt 1             @ C:/Users/shw26/AppData/Local/Arm/Packs/ARM/CMSIS-Driver/2.6.1/WiFi/ESP8266/WiFi_ESP8266.c:1566:20
	ldrb	r0, [r5, #9]
.Ltmp760:
	.loc	2 1566 12 is_stmt 0             @ C:/Users/shw26/AppData/Local/Arm/Packs/ARM/CMSIS-Driver/2.6.1/WiFi/ESP8266/WiFi_ESP8266.c:1566:12
	cmp	r0, #255
	beq	.LBB12_4
.Ltmp761:
@ %bb.9:
	@DEBUG_VALUE: ARM_WIFI_Activate:interface <- $r7
	@DEBUG_VALUE: ARM_WIFI_Activate:config <- $r5
	.loc	2 1569 35 is_stmt 1             @ C:/Users/shw26/AppData/Local/Arm/Packs/ARM/CMSIS-Driver/2.6.1/WiFi/ESP8266/WiFi_ESP8266.c:1569:35
	ldr	r0, __arm_cp.12_0
	ldr	r0, [r0, #16]
	mov	r6, r1
	.loc	2 1569 12 is_stmt 0             @ C:/Users/shw26/AppData/Local/Arm/Packs/ARM/CMSIS-Driver/2.6.1/WiFi/ESP8266/WiFi_ESP8266.c:1569:12
	bl	osMutexAcquire
.Ltmp762:
	.loc	2 1569 12                       @ C:/Users/shw26/AppData/Local/Arm/Packs/ARM/CMSIS-Driver/2.6.1/WiFi/ESP8266/WiFi_ESP8266.c:1569:12
	cmp	r0, #0
	bne	.LBB12_4
.Ltmp763:
@ %bb.10:
	@DEBUG_VALUE: ARM_WIFI_Activate:interface <- $r7
	@DEBUG_VALUE: ARM_WIFI_Activate:config <- $r5
	@DEBUG_VALUE: ARM_WIFI_Activate:rval <- -1
	@DEBUG_VALUE: ARM_WIFI_Activate:ex <- -1
	.loc	2 0 12                          @ C:/Users/shw26/AppData/Local/Arm/Packs/ARM/CMSIS-Driver/2.6.1/WiFi/ESP8266/WiFi_ESP8266.c:0:12
	str	r6, [sp, #16]                   @ 4-byte Spill
.Ltmp764:
	.loc	2 1578 9 is_stmt 1              @ C:/Users/shw26/AppData/Local/Arm/Packs/ARM/CMSIS-Driver/2.6.1/WiFi/ESP8266/WiFi_ESP8266.c:1578:9
	cbz	r7, .LBB12_13
.Ltmp765:
@ %bb.11:
	@DEBUG_VALUE: ARM_WIFI_Activate:interface <- $r7
	@DEBUG_VALUE: ARM_WIFI_Activate:config <- $r5
	@DEBUG_VALUE: ARM_WIFI_Activate:ex <- -1
	@DEBUG_VALUE: ARM_WIFI_Activate:rval <- -1
	.loc	2 1719 19                       @ C:/Users/shw26/AppData/Local/Arm/Packs/ARM/CMSIS-Driver/2.6.1/WiFi/ESP8266/WiFi_ESP8266.c:1719:19
	ldrb	r0, [r5, #8]
.Ltmp766:
	.loc	2 1719 11 is_stmt 0             @ C:/Users/shw26/AppData/Local/Arm/Packs/ARM/CMSIS-Driver/2.6.1/WiFi/ESP8266/WiFi_ESP8266.c:1719:11
	cmp	r0, #1
	ldr	r7, __arm_cp.12_0
.Ltmp767:
	@DEBUG_VALUE: ARM_WIFI_Activate:interface <- [DW_OP_LLVM_entry_value 1] $r0
	bne	.LBB12_32
.Ltmp768:
@ %bb.12:
	@DEBUG_VALUE: ARM_WIFI_Activate:config <- $r5
	@DEBUG_VALUE: ARM_WIFI_Activate:interface <- [DW_OP_LLVM_entry_value 1] $r0
	@DEBUG_VALUE: ARM_WIFI_Activate:ex <- -1
	@DEBUG_VALUE: ARM_WIFI_Activate:rval <- -1
	.loc	2 0 11                          @ C:/Users/shw26/AppData/Local/Arm/Packs/ARM/CMSIS-Driver/2.6.1/WiFi/ESP8266/WiFi_ESP8266.c:0:11
	ldr	r0, [sp, #16]                   @ 4-byte Reload
	subs	r6, r0, #3
	b	.LBB12_72
.Ltmp769:
.LBB12_13:
	@DEBUG_VALUE: ARM_WIFI_Activate:interface <- $r7
	@DEBUG_VALUE: ARM_WIFI_Activate:config <- $r5
	@DEBUG_VALUE: ARM_WIFI_Activate:ex <- -1
	@DEBUG_VALUE: ARM_WIFI_Activate:rval <- -1
	.loc	2 1581 39 is_stmt 1             @ C:/Users/shw26/AppData/Local/Arm/Packs/ARM/CMSIS-Driver/2.6.1/WiFi/ESP8266/WiFi_ESP8266.c:1581:39
	ldr	r1, [r5, #4]
	ldr	r4, __arm_cp.12_0
	.loc	2 1581 7 is_stmt 0              @ C:/Users/shw26/AppData/Local/Arm/Packs/ARM/CMSIS-Driver/2.6.1/WiFi/ESP8266/WiFi_ESP8266.c:1581:7
	mov	r0, r4
	adds	r0, #79
	movs	r2, #33
	bl	__aeabi_memcpy
	.loc	2 1584 31 is_stmt 1             @ C:/Users/shw26/AppData/Local/Arm/Packs/ARM/CMSIS-Driver/2.6.1/WiFi/ESP8266/WiFi_ESP8266.c:1584:31
	ldrb	r0, [r5, #8]
	movs	r1, #78
	.loc	2 1584 21 is_stmt 0             @ C:/Users/shw26/AppData/Local/Arm/Packs/ARM/CMSIS-Driver/2.6.1/WiFi/ESP8266/WiFi_ESP8266.c:1584:21
	strb	r0, [r4, r1]
	movs	r0, #114
	str	r0, [sp, #4]                    @ 4-byte Spill
.Ltmp770:
	.loc	2 1586 19 is_stmt 1             @ C:/Users/shw26/AppData/Local/Arm/Packs/ARM/CMSIS-Driver/2.6.1/WiFi/ESP8266/WiFi_ESP8266.c:1586:19
	ldrh	r0, [r4, r0]
.Ltmp771:
	.loc	2 1586 11 is_stmt 0             @ C:/Users/shw26/AppData/Local/Arm/Packs/ARM/CMSIS-Driver/2.6.1/WiFi/ESP8266/WiFi_ESP8266.c:1586:11
	lsrs	r1, r0, #7
	movs	r0, #1
	mov	r7, r0
.Ltmp772:
	@DEBUG_VALUE: ARM_WIFI_Activate:interface <- [DW_OP_LLVM_entry_value 1] $r0
	bics	r7, r1
.Ltmp773:
	@DEBUG_VALUE: ARM_WIFI_Activate:state <- $r7
	.loc	2 1596 12 is_stmt 1             @ C:/Users/shw26/AppData/Local/Arm/Packs/ARM/CMSIS-Driver/2.6.1/WiFi/ESP8266/WiFi_ESP8266.c:1596:12
	mov	r1, r0
	mov	r2, r7
	bl	AT_Cmd_DHCP
.Ltmp774:
	@DEBUG_VALUE: ARM_WIFI_Activate:ex <- $r0
	.loc	2 1598 11                       @ C:/Users/shw26/AppData/Local/Arm/Packs/ARM/CMSIS-Driver/2.6.1/WiFi/ESP8266/WiFi_ESP8266.c:1598:11
	cbnz	r0, .LBB12_17
.Ltmp775:
@ %bb.14:
	@DEBUG_VALUE: ARM_WIFI_Activate:state <- $r7
	@DEBUG_VALUE: ARM_WIFI_Activate:config <- $r5
	@DEBUG_VALUE: ARM_WIFI_Activate:ex <- $r0
	@DEBUG_VALUE: ARM_WIFI_Activate:interface <- [DW_OP_LLVM_entry_value 1] $r0
	@DEBUG_VALUE: ARM_WIFI_Activate:rval <- -1
	.loc	2 0 11 is_stmt 0                @ C:/Users/shw26/AppData/Local/Arm/Packs/ARM/CMSIS-Driver/2.6.1/WiFi/ESP8266/WiFi_ESP8266.c:0:11
	movs	r0, #1
.Ltmp776:
	ldr	r1, __arm_cp.12_1
.Ltmp777:
	.loc	2 1600 14 is_stmt 1             @ C:/Users/shw26/AppData/Local/Arm/Packs/ARM/CMSIS-Driver/2.6.1/WiFi/ESP8266/WiFi_ESP8266.c:1600:14
	bl	WiFi_Wait
.Ltmp778:
	@DEBUG_VALUE: ARM_WIFI_Activate:ex <- $r0
	.loc	2 1602 13                       @ C:/Users/shw26/AppData/Local/Arm/Packs/ARM/CMSIS-Driver/2.6.1/WiFi/ESP8266/WiFi_ESP8266.c:1602:13
	cbnz	r0, .LBB12_17
.Ltmp779:
@ %bb.15:
	@DEBUG_VALUE: ARM_WIFI_Activate:state <- $r7
	@DEBUG_VALUE: ARM_WIFI_Activate:config <- $r5
	@DEBUG_VALUE: ARM_WIFI_Activate:ex <- $r0
	@DEBUG_VALUE: ARM_WIFI_Activate:interface <- [DW_OP_LLVM_entry_value 1] $r0
	@DEBUG_VALUE: ARM_WIFI_Activate:rval <- -1
	.loc	2 1604 16                       @ C:/Users/shw26/AppData/Local/Arm/Packs/ARM/CMSIS-Driver/2.6.1/WiFi/ESP8266/WiFi_ESP8266.c:1604:16
	bl	AT_Resp_Generic
.Ltmp780:
	@DEBUG_VALUE: ARM_WIFI_Activate:ex <- $r0
	.loc	2 1606 15                       @ C:/Users/shw26/AppData/Local/Arm/Packs/ARM/CMSIS-Driver/2.6.1/WiFi/ESP8266/WiFi_ESP8266.c:1606:15
	cbz	r0, .LBB12_17
.Ltmp781:
@ %bb.16:
	@DEBUG_VALUE: ARM_WIFI_Activate:state <- $r7
	@DEBUG_VALUE: ARM_WIFI_Activate:config <- $r5
	@DEBUG_VALUE: ARM_WIFI_Activate:ex <- $r0
	@DEBUG_VALUE: ARM_WIFI_Activate:interface <- [DW_OP_LLVM_entry_value 1] $r0
	@DEBUG_VALUE: ARM_WIFI_Activate:rval <- -1
	.loc	2 0 15 is_stmt 0                @ C:/Users/shw26/AppData/Local/Arm/Packs/ARM/CMSIS-Driver/2.6.1/WiFi/ESP8266/WiFi_ESP8266.c:0:15
	movs	r7, #2
.Ltmp782:
.LBB12_17:
	@DEBUG_VALUE: ARM_WIFI_Activate:config <- $r5
	@DEBUG_VALUE: ARM_WIFI_Activate:ex <- $r0
	@DEBUG_VALUE: ARM_WIFI_Activate:interface <- [DW_OP_LLVM_entry_value 1] $r0
	@DEBUG_VALUE: ARM_WIFI_Activate:rval <- -1
	ldr	r6, [sp, #16]                   @ 4-byte Reload
	movs	r1, #1
	str	r1, [sp, #12]                   @ 4-byte Spill
	movs	r1, #0
	str	r1, [sp, #8]                    @ 4-byte Spill
	adr	r4, .LCPI12_3
	b	.LBB12_20
.Ltmp783:
.LBB12_18:                              @   in Loop: Header=BB12_20 Depth=1
	@DEBUG_VALUE: ARM_WIFI_Activate:state <- $r7
	@DEBUG_VALUE: ARM_WIFI_Activate:rval <- $r6
	@DEBUG_VALUE: ARM_WIFI_Activate:ex <- $r0
	@DEBUG_VALUE: ARM_WIFI_Activate:interface <- [DW_OP_LLVM_entry_value 1] $r0
	.loc	2 1645 19 is_stmt 1             @ C:/Users/shw26/AppData/Local/Arm/Packs/ARM/CMSIS-Driver/2.6.1/WiFi/ESP8266/WiFi_ESP8266.c:1645:19
	lsls	r1, r1, #2
	ldr	r6, [r4, r1]
.Ltmp784:
.LBB12_19:                              @   in Loop: Header=BB12_20 Depth=1
	@DEBUG_VALUE: ARM_WIFI_Activate:state <- $r7
	@DEBUG_VALUE: ARM_WIFI_Activate:ex <- $r0
	@DEBUG_VALUE: ARM_WIFI_Activate:interface <- [DW_OP_LLVM_entry_value 1] $r0
	@DEBUG_VALUE: ARM_WIFI_Activate:rval <- $r6
	@DEBUG_VALUE: ARM_WIFI_Activate:ex <- $r0
	@DEBUG_VALUE: ARM_WIFI_Activate:state <- [DW_OP_plus_uconst 1, DW_OP_stack_value] $r7
	.loc	2 1667 7                        @ C:/Users/shw26/AppData/Local/Arm/Packs/ARM/CMSIS-Driver/2.6.1/WiFi/ESP8266/WiFi_ESP8266.c:1667:7
	cmp	r7, #1
.Ltmp785:
	.loc	2 0 0 is_stmt 0                 @ C:/Users/shw26/AppData/Local/Arm/Packs/ARM/CMSIS-Driver/2.6.1/WiFi/ESP8266/WiFi_ESP8266.c:0:0
	ldr	r7, [sp, #12]                   @ 4-byte Reload
.Ltmp786:
	.loc	2 1667 7                        @ C:/Users/shw26/AppData/Local/Arm/Packs/ARM/CMSIS-Driver/2.6.1/WiFi/ESP8266/WiFi_ESP8266.c:1667:7
	bge	.LBB12_30
.Ltmp787:
.LBB12_20:                              @ =>This Inner Loop Header: Depth=1
	@DEBUG_VALUE: ARM_WIFI_Activate:ex <- $r0
	@DEBUG_VALUE: ARM_WIFI_Activate:interface <- [DW_OP_LLVM_entry_value 1] $r0
	@DEBUG_VALUE: ARM_WIFI_Activate:rval <- $r6
	@DEBUG_VALUE: ARM_WIFI_Activate:ex <- $r0
	@DEBUG_VALUE: ARM_WIFI_Activate:state <- $r7
	.loc	2 1613 9 is_stmt 1              @ C:/Users/shw26/AppData/Local/Arm/Packs/ARM/CMSIS-Driver/2.6.1/WiFi/ESP8266/WiFi_ESP8266.c:1613:9
	cmp	r7, #1
	beq	.LBB12_23
.Ltmp788:
@ %bb.21:                               @   in Loop: Header=BB12_20 Depth=1
	@DEBUG_VALUE: ARM_WIFI_Activate:state <- $r7
	@DEBUG_VALUE: ARM_WIFI_Activate:rval <- $r6
	@DEBUG_VALUE: ARM_WIFI_Activate:ex <- $r0
	@DEBUG_VALUE: ARM_WIFI_Activate:interface <- [DW_OP_LLVM_entry_value 1] $r0
	cbnz	r7, .LBB12_24
.Ltmp789:
@ %bb.22:                               @   in Loop: Header=BB12_20 Depth=1
	@DEBUG_VALUE: ARM_WIFI_Activate:state <- $r7
	@DEBUG_VALUE: ARM_WIFI_Activate:rval <- $r6
	@DEBUG_VALUE: ARM_WIFI_Activate:ex <- $r0
	@DEBUG_VALUE: ARM_WIFI_Activate:interface <- [DW_OP_LLVM_entry_value 1] $r0
	.loc	2 0 9 is_stmt 0                 @ C:/Users/shw26/AppData/Local/Arm/Packs/ARM/CMSIS-Driver/2.6.1/WiFi/ESP8266/WiFi_ESP8266.c:0:9
	ldr	r3, __arm_cp.12_0
.Ltmp790:
	.loc	2 1620 18 is_stmt 1             @ C:/Users/shw26/AppData/Local/Arm/Packs/ARM/CMSIS-Driver/2.6.1/WiFi/ESP8266/WiFi_ESP8266.c:1620:18
	mov	r1, r3
	adds	r1, #24
.Ltmp791:
	@DEBUG_VALUE: ARM_WIFI_Activate:ip_0 <- $r1
	mov	r2, r3
	adds	r2, #28
.Ltmp792:
	@DEBUG_VALUE: ARM_WIFI_Activate:ip_1 <- $r2
	adds	r3, #32
.Ltmp793:
	@DEBUG_VALUE: ARM_WIFI_Activate:ip_2 <- $r3
	.loc	2 0 18 is_stmt 0                @ C:/Users/shw26/AppData/Local/Arm/Packs/ARM/CMSIS-Driver/2.6.1/WiFi/ESP8266/WiFi_ESP8266.c:0:18
	movs	r0, #1
.Ltmp794:
	.loc	2 1620 18                       @ C:/Users/shw26/AppData/Local/Arm/Packs/ARM/CMSIS-Driver/2.6.1/WiFi/ESP8266/WiFi_ESP8266.c:1620:18
	bl	AT_Cmd_StationIP
.Ltmp795:
	@DEBUG_VALUE: ARM_WIFI_Activate:ex <- $r0
	.loc	2 0 18                          @ C:/Users/shw26/AppData/Local/Arm/Packs/ARM/CMSIS-Driver/2.6.1/WiFi/ESP8266/WiFi_ESP8266.c:0:18
	b	.LBB12_24
.Ltmp796:
.LBB12_23:                              @   in Loop: Header=BB12_20 Depth=1
	@DEBUG_VALUE: ARM_WIFI_Activate:state <- $r7
	@DEBUG_VALUE: ARM_WIFI_Activate:rval <- $r6
	@DEBUG_VALUE: ARM_WIFI_Activate:ex <- $r0
	@DEBUG_VALUE: ARM_WIFI_Activate:interface <- [DW_OP_LLVM_entry_value 1] $r0
	.loc	2 1625 58 is_stmt 1             @ C:/Users/shw26/AppData/Local/Arm/Packs/ARM/CMSIS-Driver/2.6.1/WiFi/ESP8266/WiFi_ESP8266.c:1625:58
	ldm	r5!, {r1, r2}
	.loc	2 1625 18 is_stmt 0             @ C:/Users/shw26/AppData/Local/Arm/Packs/ARM/CMSIS-Driver/2.6.1/WiFi/ESP8266/WiFi_ESP8266.c:1625:18
	ldr	r0, [sp, #12]                   @ 4-byte Reload
.Ltmp797:
	ldr	r3, [sp, #8]                    @ 4-byte Reload
	.loc	2 1625 58                       @ C:/Users/shw26/AppData/Local/Arm/Packs/ARM/CMSIS-Driver/2.6.1/WiFi/ESP8266/WiFi_ESP8266.c:1625:58
	subs	r5, #8
	.loc	2 1625 18                       @ C:/Users/shw26/AppData/Local/Arm/Packs/ARM/CMSIS-Driver/2.6.1/WiFi/ESP8266/WiFi_ESP8266.c:1625:18
	bl	AT_Cmd_ConnectAP
.Ltmp798:
	@DEBUG_VALUE: ARM_WIFI_Activate:ex <- $r0
.LBB12_24:                              @   in Loop: Header=BB12_20 Depth=1
	@DEBUG_VALUE: ARM_WIFI_Activate:state <- $r7
	@DEBUG_VALUE: ARM_WIFI_Activate:rval <- $r6
	@DEBUG_VALUE: ARM_WIFI_Activate:ex <- $r0
	@DEBUG_VALUE: ARM_WIFI_Activate:interface <- [DW_OP_LLVM_entry_value 1] $r0
	@DEBUG_VALUE: ARM_WIFI_Activate:ex <- $r0
	.loc	2 1629 13 is_stmt 1             @ C:/Users/shw26/AppData/Local/Arm/Packs/ARM/CMSIS-Driver/2.6.1/WiFi/ESP8266/WiFi_ESP8266.c:1629:13
	cbnz	r0, .LBB12_30
.Ltmp799:
@ %bb.25:                               @   in Loop: Header=BB12_20 Depth=1
	@DEBUG_VALUE: ARM_WIFI_Activate:state <- $r7
	@DEBUG_VALUE: ARM_WIFI_Activate:rval <- $r6
	@DEBUG_VALUE: ARM_WIFI_Activate:ex <- $r0
	@DEBUG_VALUE: ARM_WIFI_Activate:interface <- [DW_OP_LLVM_entry_value 1] $r0
	.loc	2 1635 16                       @ C:/Users/shw26/AppData/Local/Arm/Packs/ARM/CMSIS-Driver/2.6.1/WiFi/ESP8266/WiFi_ESP8266.c:1635:16
	ldr	r0, [sp, #12]                   @ 4-byte Reload
.Ltmp800:
	ldr	r1, __arm_cp.12_2
	bl	WiFi_Wait
.Ltmp801:
	@DEBUG_VALUE: ARM_WIFI_Activate:ex <- $r0
	.loc	2 1637 15                       @ C:/Users/shw26/AppData/Local/Arm/Packs/ARM/CMSIS-Driver/2.6.1/WiFi/ESP8266/WiFi_ESP8266.c:1637:15
	cmp	r0, #0
	bne	.LBB12_19
.Ltmp802:
@ %bb.26:                               @   in Loop: Header=BB12_20 Depth=1
	@DEBUG_VALUE: ARM_WIFI_Activate:state <- $r7
	@DEBUG_VALUE: ARM_WIFI_Activate:rval <- $r6
	@DEBUG_VALUE: ARM_WIFI_Activate:ex <- $r0
	@DEBUG_VALUE: ARM_WIFI_Activate:interface <- [DW_OP_LLVM_entry_value 1] $r0
	.loc	2 1639 18                       @ C:/Users/shw26/AppData/Local/Arm/Packs/ARM/CMSIS-Driver/2.6.1/WiFi/ESP8266/WiFi_ESP8266.c:1639:18
	bl	AT_Resp_Generic
.Ltmp803:
	@DEBUG_VALUE: ARM_WIFI_Activate:ex <- $r0
	.loc	2 1641 36                       @ C:/Users/shw26/AppData/Local/Arm/Packs/ARM/CMSIS-Driver/2.6.1/WiFi/ESP8266/WiFi_ESP8266.c:1641:36
	cmp	r7, #1
	bne	.LBB12_19
.Ltmp804:
@ %bb.27:                               @   in Loop: Header=BB12_20 Depth=1
	@DEBUG_VALUE: ARM_WIFI_Activate:state <- $r7
	@DEBUG_VALUE: ARM_WIFI_Activate:rval <- $r6
	@DEBUG_VALUE: ARM_WIFI_Activate:ex <- $r0
	@DEBUG_VALUE: ARM_WIFI_Activate:interface <- [DW_OP_LLVM_entry_value 1] $r0
	cmp	r0, #0
	beq	.LBB12_19
.Ltmp805:
@ %bb.28:                               @   in Loop: Header=BB12_20 Depth=1
	@DEBUG_VALUE: ARM_WIFI_Activate:state <- $r7
	@DEBUG_VALUE: ARM_WIFI_Activate:rval <- $r6
	@DEBUG_VALUE: ARM_WIFI_Activate:ex <- $r0
	@DEBUG_VALUE: ARM_WIFI_Activate:interface <- [DW_OP_LLVM_entry_value 1] $r0
	.loc	2 0 36 is_stmt 0                @ C:/Users/shw26/AppData/Local/Arm/Packs/ARM/CMSIS-Driver/2.6.1/WiFi/ESP8266/WiFi_ESP8266.c:0:36
	movs	r0, #0
.Ltmp806:
	.loc	2 1643 20 is_stmt 1             @ C:/Users/shw26/AppData/Local/Arm/Packs/ARM/CMSIS-Driver/2.6.1/WiFi/ESP8266/WiFi_ESP8266.c:1643:20
	bl	AT_Resp_ConnectAP
.Ltmp807:
	@DEBUG_VALUE: ARM_WIFI_Activate:ex <- $r0
	.loc	2 1645 19                       @ C:/Users/shw26/AppData/Local/Arm/Packs/ARM/CMSIS-Driver/2.6.1/WiFi/ESP8266/WiFi_ESP8266.c:1645:19
	subs	r1, r0, #1
	cmp	r1, #2
	bls	.LBB12_18
.Ltmp808:
@ %bb.29:                               @   in Loop: Header=BB12_20 Depth=1
	@DEBUG_VALUE: ARM_WIFI_Activate:state <- $r7
	@DEBUG_VALUE: ARM_WIFI_Activate:rval <- $r6
	@DEBUG_VALUE: ARM_WIFI_Activate:ex <- $r0
	@DEBUG_VALUE: ARM_WIFI_Activate:interface <- [DW_OP_LLVM_entry_value 1] $r0
	.loc	2 0 0 is_stmt 0                 @ C:/Users/shw26/AppData/Local/Arm/Packs/ARM/CMSIS-Driver/2.6.1/WiFi/ESP8266/WiFi_ESP8266.c:0:0
	ldr	r6, [sp, #16]                   @ 4-byte Reload
.Ltmp809:
	b	.LBB12_19
.Ltmp810:
.LBB12_30:
	@DEBUG_VALUE: ARM_WIFI_Activate:rval <- $r6
	@DEBUG_VALUE: ARM_WIFI_Activate:ex <- $r0
	@DEBUG_VALUE: ARM_WIFI_Activate:interface <- [DW_OP_LLVM_entry_value 1] $r0
	@DEBUG_VALUE: ARM_WIFI_Activate:rval <- $r6
	@DEBUG_VALUE: ARM_WIFI_Activate:ex <- $r0
	.loc	2 1670 11 is_stmt 1             @ C:/Users/shw26/AppData/Local/Arm/Packs/ARM/CMSIS-Driver/2.6.1/WiFi/ESP8266/WiFi_ESP8266.c:1670:11
	cmp	r0, #0
	bne	.LBB12_31
	b	.LBB12_65
.Ltmp811:
.LBB12_31:
	@DEBUG_VALUE: ARM_WIFI_Activate:rval <- $r6
	@DEBUG_VALUE: ARM_WIFI_Activate:ex <- $r0
	@DEBUG_VALUE: ARM_WIFI_Activate:interface <- [DW_OP_LLVM_entry_value 1] $r0
	.loc	2 0 11 is_stmt 0                @ C:/Users/shw26/AppData/Local/Arm/Packs/ARM/CMSIS-Driver/2.6.1/WiFi/ESP8266/WiFi_ESP8266.c:0:11
	ldr	r7, __arm_cp.12_0
	b	.LBB12_72
.Ltmp812:
.LBB12_32:
	@DEBUG_VALUE: ARM_WIFI_Activate:config <- $r5
	@DEBUG_VALUE: ARM_WIFI_Activate:interface <- [DW_OP_LLVM_entry_value 1] $r0
	@DEBUG_VALUE: ARM_WIFI_Activate:ex <- -1
	@DEBUG_VALUE: ARM_WIFI_Activate:rval <- -1
	ldr	r6, __arm_cp.12_1
	ldr	r1, [sp, #16]                   @ 4-byte Reload
	mov	r0, r1
	b	.LBB12_34
.Ltmp813:
.LBB12_33:                              @   in Loop: Header=BB12_34 Depth=1
	@DEBUG_VALUE: ARM_WIFI_Activate:state <- $r4
	@DEBUG_VALUE: ARM_WIFI_Activate:ex <- $r0
	@DEBUG_VALUE: ARM_WIFI_Activate:interface <- [DW_OP_LLVM_entry_value 1] $r0
	@DEBUG_VALUE: ARM_WIFI_Activate:rval <- -1
	@DEBUG_VALUE: ARM_WIFI_Activate:ex <- $r0
	.loc	2 1832 16 is_stmt 1             @ C:/Users/shw26/AppData/Local/Arm/Packs/ARM/CMSIS-Driver/2.6.1/WiFi/ESP8266/WiFi_ESP8266.c:1832:16
	adds	r4, r4, #1
.Ltmp814:
	@DEBUG_VALUE: ARM_WIFI_Activate:state <- $r4
	.loc	2 1833 9                        @ C:/Users/shw26/AppData/Local/Arm/Packs/ARM/CMSIS-Driver/2.6.1/WiFi/ESP8266/WiFi_ESP8266.c:1833:9
	cmp	r4, #6
	bne	.LBB12_34
	b	.LBB12_64
.Ltmp815:
.LBB12_34:                              @ =>This Inner Loop Header: Depth=1
	@DEBUG_VALUE: ARM_WIFI_Activate:interface <- [DW_OP_LLVM_entry_value 1] $r0
	@DEBUG_VALUE: ARM_WIFI_Activate:rval <- -1
	@DEBUG_VALUE: ARM_WIFI_Activate:ex <- $r0
	@DEBUG_VALUE: ARM_WIFI_Activate:state <- $r4
	.loc	2 1727 11                       @ C:/Users/shw26/AppData/Local/Arm/Packs/ARM/CMSIS-Driver/2.6.1/WiFi/ESP8266/WiFi_ESP8266.c:1727:11
	cmp	r4, #5
	bhi	.LBB12_61
.Ltmp816:
@ %bb.35:                               @   in Loop: Header=BB12_34 Depth=1
	@DEBUG_VALUE: ARM_WIFI_Activate:state <- $r4
	@DEBUG_VALUE: ARM_WIFI_Activate:ex <- $r0
	@DEBUG_VALUE: ARM_WIFI_Activate:interface <- [DW_OP_LLVM_entry_value 1] $r0
	@DEBUG_VALUE: ARM_WIFI_Activate:rval <- -1
	.loc	2 0 11 is_stmt 0                @ C:/Users/shw26/AppData/Local/Arm/Packs/ARM/CMSIS-Driver/2.6.1/WiFi/ESP8266/WiFi_ESP8266.c:0:11
	lsls	r0, r4, #2
.Ltmp817:
	adr	r1, .LJTI12_0
	adds	r0, r1, r0
	mov	pc, r0
.Ltmp818:
@ %bb.36:
	.p2align	2
.LJTI12_0:
	b.w	.LBB12_37
	b.w	.LBB12_39
	b.w	.LBB12_41
	b.w	.LBB12_42
	b.w	.LBB12_43
	b.w	.LBB12_44
.LBB12_37:                              @   in Loop: Header=BB12_34 Depth=1
.Ltmp819:
	@DEBUG_VALUE: ARM_WIFI_Activate:state <- $r4
	@DEBUG_VALUE: ARM_WIFI_Activate:interface <- [DW_OP_LLVM_entry_value 1] $r0
	@DEBUG_VALUE: ARM_WIFI_Activate:rval <- -1
	movs	r0, #114
.Ltmp820:
	.loc	2 1730 27 is_stmt 1             @ C:/Users/shw26/AppData/Local/Arm/Packs/ARM/CMSIS-Driver/2.6.1/WiFi/ESP8266/WiFi_ESP8266.c:1730:27
	ldrh	r0, [r7, r0]
.Ltmp821:
	.loc	2 1730 19 is_stmt 0             @ C:/Users/shw26/AppData/Local/Arm/Packs/ARM/CMSIS-Driver/2.6.1/WiFi/ESP8266/WiFi_ESP8266.c:1730:19
	lsls	r0, r0, #27
	bpl	.LBB12_48
.Ltmp822:
@ %bb.38:                               @   in Loop: Header=BB12_34 Depth=1
	@DEBUG_VALUE: ARM_WIFI_Activate:state <- $r4
	@DEBUG_VALUE: ARM_WIFI_Activate:interface <- [DW_OP_LLVM_entry_value 1] $r0
	@DEBUG_VALUE: ARM_WIFI_Activate:rval <- -1
	.loc	2 0 19                          @ C:/Users/shw26/AppData/Local/Arm/Packs/ARM/CMSIS-Driver/2.6.1/WiFi/ESP8266/WiFi_ESP8266.c:0:19
	movs	r1, #3
	b	.LBB12_49
.Ltmp823:
.LBB12_39:                              @   in Loop: Header=BB12_34 Depth=1
	@DEBUG_VALUE: ARM_WIFI_Activate:state <- $r4
	@DEBUG_VALUE: ARM_WIFI_Activate:interface <- [DW_OP_LLVM_entry_value 1] $r0
	@DEBUG_VALUE: ARM_WIFI_Activate:rval <- -1
	.loc	2 1743 55 is_stmt 1             @ C:/Users/shw26/AppData/Local/Arm/Packs/ARM/CMSIS-Driver/2.6.1/WiFi/ESP8266/WiFi_ESP8266.c:1743:55
	ldm	r5!, {r0, r1}
	.loc	2 1743 27 is_stmt 0             @ C:/Users/shw26/AppData/Local/Arm/Packs/ARM/CMSIS-Driver/2.6.1/WiFi/ESP8266/WiFi_ESP8266.c:1743:27
	str	r0, [sp, #20]
	.loc	2 1744 27 is_stmt 1             @ C:/Users/shw26/AppData/Local/Arm/Packs/ARM/CMSIS-Driver/2.6.1/WiFi/ESP8266/WiFi_ESP8266.c:1744:27
	str	r1, [sp, #24]
.Ltmp824:
	.loc	2 1746 27                       @ C:/Users/shw26/AppData/Local/Arm/Packs/ARM/CMSIS-Driver/2.6.1/WiFi/ESP8266/WiFi_ESP8266.c:1746:27
	ldrb	r0, [r5, #1]
.Ltmp825:
	.loc	2 1743 55                       @ C:/Users/shw26/AppData/Local/Arm/Packs/ARM/CMSIS-Driver/2.6.1/WiFi/ESP8266/WiFi_ESP8266.c:1743:55
	subs	r5, #8
	.loc	2 1746 19                       @ C:/Users/shw26/AppData/Local/Arm/Packs/ARM/CMSIS-Driver/2.6.1/WiFi/ESP8266/WiFi_ESP8266.c:1746:19
	cmp	r0, #0
	beq	.LBB12_58
.Ltmp826:
@ %bb.40:                               @   in Loop: Header=BB12_34 Depth=1
	@DEBUG_VALUE: ARM_WIFI_Activate:state <- $r4
	@DEBUG_VALUE: ARM_WIFI_Activate:interface <- [DW_OP_LLVM_entry_value 1] $r0
	@DEBUG_VALUE: ARM_WIFI_Activate:rval <- -1
	.loc	2 0 19 is_stmt 0                @ C:/Users/shw26/AppData/Local/Arm/Packs/ARM/CMSIS-Driver/2.6.1/WiFi/ESP8266/WiFi_ESP8266.c:0:19
	add	r1, sp, #20
.Ltmp827:
	.loc	2 1748 29 is_stmt 1             @ C:/Users/shw26/AppData/Local/Arm/Packs/ARM/CMSIS-Driver/2.6.1/WiFi/ESP8266/WiFi_ESP8266.c:1748:29
	strb	r0, [r1, #8]
	b	.LBB12_59
.Ltmp828:
.LBB12_41:                              @   in Loop: Header=BB12_34 Depth=1
	@DEBUG_VALUE: ARM_WIFI_Activate:state <- $r4
	@DEBUG_VALUE: ARM_WIFI_Activate:interface <- [DW_OP_LLVM_entry_value 1] $r0
	@DEBUG_VALUE: ARM_WIFI_Activate:rval <- -1
	.loc	2 1765 20                       @ C:/Users/shw26/AppData/Local/Arm/Packs/ARM/CMSIS-Driver/2.6.1/WiFi/ESP8266/WiFi_ESP8266.c:1765:20
	mov	r1, r7
	adds	r1, #42
	movs	r0, #1
	bl	AT_Cmd_AccessPointMAC
	b	.LBB12_60
.Ltmp829:
.LBB12_42:                              @   in Loop: Header=BB12_34 Depth=1
	@DEBUG_VALUE: ARM_WIFI_Activate:state <- $r4
	@DEBUG_VALUE: ARM_WIFI_Activate:interface <- [DW_OP_LLVM_entry_value 1] $r0
	@DEBUG_VALUE: ARM_WIFI_Activate:rval <- -1
	.loc	2 1774 20                       @ C:/Users/shw26/AppData/Local/Arm/Packs/ARM/CMSIS-Driver/2.6.1/WiFi/ESP8266/WiFi_ESP8266.c:1774:20
	mov	r1, r7
	adds	r1, #48
.Ltmp830:
	@DEBUG_VALUE: ARM_WIFI_Activate:ip_0 <- $r1
	mov	r2, r7
	adds	r2, #52
.Ltmp831:
	@DEBUG_VALUE: ARM_WIFI_Activate:ip_1 <- $r2
	mov	r3, r7
	adds	r3, #56
.Ltmp832:
	@DEBUG_VALUE: ARM_WIFI_Activate:ip_2 <- $r3
	.loc	2 0 20 is_stmt 0                @ C:/Users/shw26/AppData/Local/Arm/Packs/ARM/CMSIS-Driver/2.6.1/WiFi/ESP8266/WiFi_ESP8266.c:0:20
	movs	r0, #1
	.loc	2 1774 20                       @ C:/Users/shw26/AppData/Local/Arm/Packs/ARM/CMSIS-Driver/2.6.1/WiFi/ESP8266/WiFi_ESP8266.c:1774:20
	bl	AT_Cmd_AccessPointIP
.Ltmp833:
	.loc	2 0 20                          @ C:/Users/shw26/AppData/Local/Arm/Packs/ARM/CMSIS-Driver/2.6.1/WiFi/ESP8266/WiFi_ESP8266.c:0:20
	b	.LBB12_60
.Ltmp834:
.LBB12_43:                              @   in Loop: Header=BB12_34 Depth=1
	@DEBUG_VALUE: ARM_WIFI_Activate:state <- $r4
	@DEBUG_VALUE: ARM_WIFI_Activate:interface <- [DW_OP_LLVM_entry_value 1] $r0
	@DEBUG_VALUE: ARM_WIFI_Activate:rval <- -1
	movs	r0, #115
.Ltmp835:
	.loc	2 1779 27 is_stmt 1             @ C:/Users/shw26/AppData/Local/Arm/Packs/ARM/CMSIS-Driver/2.6.1/WiFi/ESP8266/WiFi_ESP8266.c:1779:27
	ldrb	r1, [r7, r0]
	movs	r0, #1
.Ltmp836:
	.loc	2 1779 19 is_stmt 0             @ C:/Users/shw26/AppData/Local/Arm/Packs/ARM/CMSIS-Driver/2.6.1/WiFi/ESP8266/WiFi_ESP8266.c:1779:19
	mov	r2, r0
	bics	r2, r1
.Ltmp837:
	.loc	2 0 0                           @ C:/Users/shw26/AppData/Local/Arm/Packs/ARM/CMSIS-Driver/2.6.1/WiFi/ESP8266/WiFi_ESP8266.c:0:0
	str	r2, [sp, #32]
.Ltmp838:
	@DEBUG_VALUE: ARM_WIFI_Activate:mode <- $r2
	movs	r1, #0
.Ltmp839:
	.loc	2 1790 20 is_stmt 1             @ C:/Users/shw26/AppData/Local/Arm/Packs/ARM/CMSIS-Driver/2.6.1/WiFi/ESP8266/WiFi_ESP8266.c:1790:20
	bl	AT_Cmd_DHCP
.Ltmp840:
	.loc	2 0 20 is_stmt 0                @ C:/Users/shw26/AppData/Local/Arm/Packs/ARM/CMSIS-Driver/2.6.1/WiFi/ESP8266/WiFi_ESP8266.c:0:20
	b	.LBB12_60
.Ltmp841:
.LBB12_44:                              @   in Loop: Header=BB12_34 Depth=1
	@DEBUG_VALUE: ARM_WIFI_Activate:state <- $r4
	@DEBUG_VALUE: ARM_WIFI_Activate:interface <- [DW_OP_LLVM_entry_value 1] $r0
	@DEBUG_VALUE: ARM_WIFI_Activate:rval <- -1
	movs	r0, #114
	mov	r1, r7
.Ltmp842:
	.loc	2 1795 27 is_stmt 1             @ C:/Users/shw26/AppData/Local/Arm/Packs/ARM/CMSIS-Driver/2.6.1/WiFi/ESP8266/WiFi_ESP8266.c:1795:27
	ldrh	r7, [r7, r0]
	.loc	2 1795 33 is_stmt 0             @ C:/Users/shw26/AppData/Local/Arm/Packs/ARM/CMSIS-Driver/2.6.1/WiFi/ESP8266/WiFi_ESP8266.c:1795:33
	movw	r0, #256
	ands	r7, r0
.Ltmp843:
	.loc	2 1795 19                       @ C:/Users/shw26/AppData/Local/Arm/Packs/ARM/CMSIS-Driver/2.6.1/WiFi/ESP8266/WiFi_ESP8266.c:1795:19
	ldr	r1, [r1, #68]
	movw	r0, #2880
	cmp	r1, r0
	blo	.LBB12_46
.Ltmp844:
@ %bb.45:                               @   in Loop: Header=BB12_34 Depth=1
	@DEBUG_VALUE: ARM_WIFI_Activate:state <- $r4
	@DEBUG_VALUE: ARM_WIFI_Activate:interface <- [DW_OP_LLVM_entry_value 1] $r0
	@DEBUG_VALUE: ARM_WIFI_Activate:rval <- -1
	movw	r1, #2880
.Ltmp845:
.LBB12_46:                              @   in Loop: Header=BB12_34 Depth=1
	@DEBUG_VALUE: ARM_WIFI_Activate:state <- $r4
	@DEBUG_VALUE: ARM_WIFI_Activate:interface <- [DW_OP_LLVM_entry_value 1] $r0
	@DEBUG_VALUE: ARM_WIFI_Activate:rval <- -1
	.loc	2 0 19                          @ C:/Users/shw26/AppData/Local/Arm/Packs/ARM/CMSIS-Driver/2.6.1/WiFi/ESP8266/WiFi_ESP8266.c:0:19
	movs	r0, #1
	movs	r3, #0
	.loc	2 1795 19                       @ C:/Users/shw26/AppData/Local/Arm/Packs/ARM/CMSIS-Driver/2.6.1/WiFi/ESP8266/WiFi_ESP8266.c:1795:19
	cbz	r7, .LBB12_50
.Ltmp846:
@ %bb.47:                               @   in Loop: Header=BB12_34 Depth=1
	@DEBUG_VALUE: ARM_WIFI_Activate:state <- $r4
	@DEBUG_VALUE: ARM_WIFI_Activate:interface <- [DW_OP_LLVM_entry_value 1] $r0
	@DEBUG_VALUE: ARM_WIFI_Activate:rval <- -1
	mov	r1, r3
	b	.LBB12_51
.Ltmp847:
.LBB12_48:                              @   in Loop: Header=BB12_34 Depth=1
	@DEBUG_VALUE: ARM_WIFI_Activate:state <- $r4
