	.text
	.syntax unified
	.eabi_attribute	67, "2.09"	@ Tag_conformance
	.cpu	cortex-m23
	.eabi_attribute	6, 16	@ Tag_CPU_arch
	.eabi_attribute	7, 77	@ Tag_CPU_arch_profile
	.eabi_attribute	8, 0	@ Tag_ARM_ISA_use
	.eabi_attribute	9, 3	@ Tag_THUMB_ISA_use
	.eabi_attribute	34, 0	@ Tag_CPU_unaligned_access
	.eabi_attribute	17, 1	@ Tag_ABI_PCS_GOT_use
	.eabi_attribute	20, 2	@ Tag_ABI_FP_denormal
	.eabi_attribute	21, 0	@ Tag_ABI_FP_exceptions
	.eabi_attribute	23, 1	@ Tag_ABI_FP_number_model
	.eabi_attribute	24, 1	@ Tag_ABI_align_needed
	.eabi_attribute	25, 1	@ Tag_ABI_align_preserved
	.eabi_attribute	38, 1	@ Tag_ABI_FP_16bit_format
	.eabi_attribute	18, 2	@ Tag_ABI_PCS_wchar_t
	.eabi_attribute	26, 1	@ Tag_ABI_enum_size
	.eabi_attribute	14, 0	@ Tag_ABI_PCS_R9_use
	.file	"x509_crl.c"
	.file	1 "C:\\Users\\shw26\\OneDrive\\Desktop\\2021\\2021-1\\\354\272\241\354\212\244\355\206\244\353\224\224\354\236\220\354\235\2702\\Nuvoton\\M2351_BSP_v3.00.004\\M2351Series_BSP_CMSIS_V3.00.004\\MyProject\\PulseMonitoring\\Secure" "../../../ThirdParty/mbedTLS/include/mbedtls/md.h"
	.file	2 "C:\\Users\\shw26\\OneDrive\\Desktop\\2021\\2021-1\\\354\272\241\354\212\244\355\206\244\353\224\224\354\236\220\354\235\2702\\Nuvoton\\M2351_BSP_v3.00.004\\M2351Series_BSP_CMSIS_V3.00.004\\MyProject\\PulseMonitoring\\Secure" "../../../ThirdParty/mbedTLS/include/mbedtls/pk.h"
	.file	3 "C:\\" "Keil_v5\\ARM\\ARMCLANG\\Bin\\..\\include\\stddef.h"
	.section	.text.mbedtls_x509_crl_parse_der,"ax",%progbits
	.hidden	mbedtls_x509_crl_parse_der      @ -- Begin function mbedtls_x509_crl_parse_der
	.globl	mbedtls_x509_crl_parse_der
	.p2align	2
	.type	mbedtls_x509_crl_parse_der,%function
	.code	16                              @ @mbedtls_x509_crl_parse_der
	.thumb_func
mbedtls_x509_crl_parse_der:
.Lfunc_begin0:
	.file	4 "C:\\Users\\shw26\\OneDrive\\Desktop\\2021\\2021-1\\\354\272\241\354\212\244\355\206\244\353\224\224\354\236\220\354\235\2702\\Nuvoton\\M2351_BSP_v3.00.004\\M2351Series_BSP_CMSIS_V3.00.004\\MyProject\\PulseMonitoring\\Secure" "../../../ThirdParty/mbedTLS/library/x509_crl.c"
	.loc	4 302 0                         @ ../../../ThirdParty/mbedTLS/library/x509_crl.c:302:0
	.fnstart
	.cfi_sections .debug_frame
	.cfi_startproc
@ %bb.0:
	@DEBUG_VALUE: mbedtls_x509_crl_parse_der:chain <- $r0
	@DEBUG_VALUE: mbedtls_x509_crl_parse_der:buf <- $r1
	@DEBUG_VALUE: mbedtls_x509_crl_parse_der:buflen <- $r2
	.save	{r4, r5, r6, r7, lr}
	push	{r4, r5, r6, r7, lr}
	.cfi_def_cfa_offset 20
	.cfi_offset lr, -4
	.cfi_offset r7, -8
	.cfi_offset r6, -12
	.cfi_offset r5, -16
	.cfi_offset r4, -20
	.pad	#60
	sub	sp, #60
	.cfi_def_cfa_offset 80
	movs	r3, #0
.Ltmp0:
	@DEBUG_VALUE: mbedtls_x509_crl_parse_der:p <- 0
	@DEBUG_VALUE: mbedtls_x509_crl_parse_der:buflen <- $r2
	@DEBUG_VALUE: mbedtls_x509_crl_parse_der:buf <- $r1
	@DEBUG_VALUE: mbedtls_x509_crl_parse_der:chain <- $r0
	.loc	4 305 20 prologue_end           @ ../../../ThirdParty/mbedTLS/library/x509_crl.c:305:20
	str	r3, [sp, #52]
.Ltmp1:
	@DEBUG_VALUE: mbedtls_x509_crl_parse_der:end <- 0
	.loc	4 0 20 is_stmt 0                @ ../../../ThirdParty/mbedTLS/library/x509_crl.c:0:20
	ldr	r6, __arm_cp.0_0
.Ltmp2:
	@DEBUG_VALUE: mbedtls_x509_crl_parse_der:crl <- $r0
	adds	r6, #128
.Ltmp3:
	.loc	4 312 21 is_stmt 1              @ ../../../ThirdParty/mbedTLS/library/x509_crl.c:312:21
	cmp	r0, #0
	bne	.LBB0_1
	b	.LBB0_21
.Ltmp4:
.LBB0_1:
	@DEBUG_VALUE: mbedtls_x509_crl_parse_der:buflen <- $r2
	@DEBUG_VALUE: mbedtls_x509_crl_parse_der:buf <- $r1
	@DEBUG_VALUE: mbedtls_x509_crl_parse_der:crl <- $r0
	@DEBUG_VALUE: mbedtls_x509_crl_parse_der:chain <- $r0
	@DEBUG_VALUE: mbedtls_x509_crl_parse_der:end <- 0
	@DEBUG_VALUE: mbedtls_x509_crl_parse_der:p <- 0
	@DEBUG_VALUE: mbedtls_x509_crl_parse_der:buflen <- $r2
	.loc	4 0 21 is_stmt 0                @ ../../../ThirdParty/mbedTLS/library/x509_crl.c:0:21
	mov	r7, r1
.Ltmp5:
	@DEBUG_VALUE: mbedtls_x509_crl_parse_der:buf <- $r7
	.loc	4 312 21                        @ ../../../ThirdParty/mbedTLS/library/x509_crl.c:312:21
	cmp	r1, #0
	bne	.LBB0_2
	b	.LBB0_21
.Ltmp6:
.LBB0_2:
	@DEBUG_VALUE: mbedtls_x509_crl_parse_der:buf <- $r7
	@DEBUG_VALUE: mbedtls_x509_crl_parse_der:buflen <- $r2
	@DEBUG_VALUE: mbedtls_x509_crl_parse_der:crl <- $r0
	@DEBUG_VALUE: mbedtls_x509_crl_parse_der:chain <- $r0
	@DEBUG_VALUE: mbedtls_x509_crl_parse_der:end <- 0
	@DEBUG_VALUE: mbedtls_x509_crl_parse_der:p <- 0
	.loc	4 0 21                          @ ../../../ThirdParty/mbedTLS/library/x509_crl.c:0:21
	mov	r5, r2
.Ltmp7:
	@DEBUG_VALUE: mbedtls_x509_crl_parse_der:buflen <- $r5
	.loc	4 315 5 is_stmt 1               @ ../../../ThirdParty/mbedTLS/library/x509_crl.c:315:5
	str	r3, [sp, #48]
	str	r3, [sp, #44]
	str	r3, [sp, #40]
	.loc	4 316 5                         @ ../../../ThirdParty/mbedTLS/library/x509_crl.c:316:5
	str	r3, [sp, #28]
	str	r3, [sp, #32]
	str	r3, [sp, #36]
	.loc	4 317 5                         @ ../../../ThirdParty/mbedTLS/library/x509_crl.c:317:5
	str	r3, [sp, #16]
	str	r3, [sp, #20]
	str	r3, [sp, #24]
	movs	r1, #240
.Ltmp8:
.LBB0_3:                                @ =>This Inner Loop Header: Depth=1
	@DEBUG_VALUE: mbedtls_x509_crl_parse_der:buf <- $r7
	@DEBUG_VALUE: mbedtls_x509_crl_parse_der:buflen <- $r5
	@DEBUG_VALUE: mbedtls_x509_crl_parse_der:end <- 0
	@DEBUG_VALUE: mbedtls_x509_crl_parse_der:p <- 0
	.loc	4 0 0 is_stmt 0                 @ ../../../ThirdParty/mbedTLS/library/x509_crl.c:0:0
	mov	r4, r0
.Ltmp9:
	@DEBUG_VALUE: mbedtls_x509_crl_parse_der:crl <- $r4
	.loc	4 322 17 is_stmt 1              @ ../../../ThirdParty/mbedTLS/library/x509_crl.c:322:17
	ldr	r2, [r0, #24]
	.loc	4 322 30 is_stmt 0              @ ../../../ThirdParty/mbedTLS/library/x509_crl.c:322:30
	cbz	r2, .LBB0_9
.Ltmp10:
@ %bb.4:                                @   in Loop: Header=BB0_3 Depth=1
	@DEBUG_VALUE: mbedtls_x509_crl_parse_der:buf <- $r7
	@DEBUG_VALUE: mbedtls_x509_crl_parse_der:buflen <- $r5
	@DEBUG_VALUE: mbedtls_x509_crl_parse_der:crl <- $r4
	@DEBUG_VALUE: mbedtls_x509_crl_parse_der:end <- 0
	@DEBUG_VALUE: mbedtls_x509_crl_parse_der:p <- 0
	.loc	4 322 38                        @ ../../../ThirdParty/mbedTLS/library/x509_crl.c:322:38
	ldr	r0, [r4, r1]
.Ltmp11:
	@DEBUG_VALUE: mbedtls_x509_crl_parse_der:chain <- [DW_OP_LLVM_entry_value 1] $r0
	.loc	4 322 5                         @ ../../../ThirdParty/mbedTLS/library/x509_crl.c:322:5
	cmp	r0, #0
	bne	.LBB0_3
.Ltmp12:
@ %bb.5:
	@DEBUG_VALUE: mbedtls_x509_crl_parse_der:buf <- $r7
	@DEBUG_VALUE: mbedtls_x509_crl_parse_der:buflen <- $r5
	@DEBUG_VALUE: mbedtls_x509_crl_parse_der:crl <- $r4
	@DEBUG_VALUE: mbedtls_x509_crl_parse_der:end <- 0
	@DEBUG_VALUE: mbedtls_x509_crl_parse_der:p <- 0
	@DEBUG_VALUE: mbedtls_x509_crl_parse_der:crl <- $r4
	.loc	4 325 27 is_stmt 1              @ ../../../ThirdParty/mbedTLS/library/x509_crl.c:325:27
	cbz	r2, .LBB0_9
.Ltmp13:
@ %bb.6:
	@DEBUG_VALUE: mbedtls_x509_crl_parse_der:buf <- $r7
	@DEBUG_VALUE: mbedtls_x509_crl_parse_der:buflen <- $r5
	@DEBUG_VALUE: mbedtls_x509_crl_parse_der:crl <- $r4
	@DEBUG_VALUE: mbedtls_x509_crl_parse_der:end <- 0
	@DEBUG_VALUE: mbedtls_x509_crl_parse_der:p <- 0
	.loc	4 325 35 is_stmt 0              @ ../../../ThirdParty/mbedTLS/library/x509_crl.c:325:35
	ldr	r0, [r4, r1]
.Ltmp14:
	.loc	4 325 9                         @ ../../../ThirdParty/mbedTLS/library/x509_crl.c:325:9
	cbnz	r0, .LBB0_9
.Ltmp15:
@ %bb.7:
	@DEBUG_VALUE: mbedtls_x509_crl_parse_der:buf <- $r7
	@DEBUG_VALUE: mbedtls_x509_crl_parse_der:buflen <- $r5
	@DEBUG_VALUE: mbedtls_x509_crl_parse_der:crl <- $r4
	@DEBUG_VALUE: mbedtls_x509_crl_parse_der:end <- 0
	@DEBUG_VALUE: mbedtls_x509_crl_parse_der:p <- 0
	.loc	4 0 9                           @ ../../../ThirdParty/mbedTLS/library/x509_crl.c:0:9
	str	r3, [sp, #12]                   @ 4-byte Spill
.Ltmp16:
	mov	r6, r4
	adds	r6, #240
	movs	r0, #1
	movs	r1, #244
.Ltmp17:
	.loc	4 327 21 is_stmt 1              @ ../../../ThirdParty/mbedTLS/library/x509_crl.c:327:21
	bl	calloc
	.loc	4 327 19 is_stmt 0              @ ../../../ThirdParty/mbedTLS/library/x509_crl.c:327:19
	str	r0, [r6]
	.loc	4 329 13 is_stmt 1              @ ../../../ThirdParty/mbedTLS/library/x509_crl.c:329:13
	cbz	r0, .LBB0_17
.Ltmp18:
@ %bb.8:
	@DEBUG_VALUE: mbedtls_x509_crl_parse_der:buf <- $r7
	@DEBUG_VALUE: mbedtls_x509_crl_parse_der:buflen <- $r5
	@DEBUG_VALUE: mbedtls_x509_crl_parse_der:crl <- $r4
	@DEBUG_VALUE: mbedtls_x509_crl_parse_der:end <- 0
	@DEBUG_VALUE: mbedtls_x509_crl_parse_der:p <- 0
	.loc	4 335 9                         @ ../../../ThirdParty/mbedTLS/library/x509_crl.c:335:9
	bl	mbedtls_x509_crl_init
	.loc	4 336 20                        @ ../../../ThirdParty/mbedTLS/library/x509_crl.c:336:20
	ldr	r4, [r6]
.Ltmp19:
	@DEBUG_VALUE: mbedtls_x509_crl_parse_der:crl <- $r4
	.loc	4 0 20 is_stmt 0                @ ../../../ThirdParty/mbedTLS/library/x509_crl.c:0:20
	ldr	r3, [sp, #12]                   @ 4-byte Reload
.Ltmp20:
.LBB0_9:
	@DEBUG_VALUE: mbedtls_x509_crl_parse_der:buf <- $r7
	@DEBUG_VALUE: mbedtls_x509_crl_parse_der:buflen <- $r5
	@DEBUG_VALUE: mbedtls_x509_crl_parse_der:crl <- $r4
	@DEBUG_VALUE: mbedtls_x509_crl_parse_der:end <- 0
	@DEBUG_VALUE: mbedtls_x509_crl_parse_der:p <- 0
	@DEBUG_VALUE: mbedtls_x509_crl_parse_der:crl <- $r4
	ldr	r6, __arm_cp.0_1
	.loc	4 342 9 is_stmt 1               @ ../../../ThirdParty/mbedTLS/library/x509_crl.c:342:9
	cmp	r5, #0
	beq	.LBB0_21
.Ltmp21:
@ %bb.10:
	@DEBUG_VALUE: mbedtls_x509_crl_parse_der:buf <- $r7
	@DEBUG_VALUE: mbedtls_x509_crl_parse_der:buflen <- $r5
	@DEBUG_VALUE: mbedtls_x509_crl_parse_der:crl <- $r4
	@DEBUG_VALUE: mbedtls_x509_crl_parse_der:end <- 0
	@DEBUG_VALUE: mbedtls_x509_crl_parse_der:p <- 0
	.loc	4 0 9 is_stmt 0                 @ ../../../ThirdParty/mbedTLS/library/x509_crl.c:0:9
	movs	r0, #1
	.loc	4 345 9 is_stmt 1               @ ../../../ThirdParty/mbedTLS/library/x509_crl.c:345:9
	mov	r1, r5
	str	r3, [sp, #12]                   @ 4-byte Spill
	bl	calloc
.Ltmp22:
	@DEBUG_VALUE: mbedtls_x509_crl_parse_der:p <- $r0
	.loc	4 345 7 is_stmt 0               @ ../../../ThirdParty/mbedTLS/library/x509_crl.c:345:7
	str	r0, [sp, #52]
	.loc	4 346 9 is_stmt 1               @ ../../../ThirdParty/mbedTLS/library/x509_crl.c:346:9
	cmp	r0, #0
	.loc	4 0 0 is_stmt 0                 @ ../../../ThirdParty/mbedTLS/library/x509_crl.c:0:0
	ldr	r6, __arm_cp.0_0
	.loc	4 346 9                         @ ../../../ThirdParty/mbedTLS/library/x509_crl.c:346:9
	beq	.LBB0_21
.Ltmp23:
@ %bb.11:
	@DEBUG_VALUE: mbedtls_x509_crl_parse_der:buf <- $r7
	@DEBUG_VALUE: mbedtls_x509_crl_parse_der:buflen <- $r5
	@DEBUG_VALUE: mbedtls_x509_crl_parse_der:crl <- $r4
	@DEBUG_VALUE: mbedtls_x509_crl_parse_der:p <- $r0
	@DEBUG_VALUE: mbedtls_x509_crl_parse_der:end <- 0
	.loc	4 349 5 is_stmt 1               @ ../../../ThirdParty/mbedTLS/library/x509_crl.c:349:5
	mov	r1, r7
	mov	r2, r5
	bl	__aeabi_memcpy
.Ltmp24:
	.loc	4 351 18                        @ ../../../ThirdParty/mbedTLS/library/x509_crl.c:351:18
	ldr	r0, [sp, #52]
.Ltmp25:
	@DEBUG_VALUE: mbedtls_x509_crl_parse_der:p <- $r0
	.loc	4 352 18                        @ ../../../ThirdParty/mbedTLS/library/x509_crl.c:352:18
	str	r5, [r4, #4]
	.loc	4 351 16                        @ ../../../ThirdParty/mbedTLS/library/x509_crl.c:351:16
	str	r0, [r4, #8]
	.loc	4 354 13                        @ ../../../ThirdParty/mbedTLS/library/x509_crl.c:354:13
	adds	r5, r0, r5
.Ltmp26:
	@DEBUG_VALUE: mbedtls_x509_crl_parse_der:buflen <- [DW_OP_LLVM_entry_value 1] $r2
	@DEBUG_VALUE: mbedtls_x509_crl_parse_der:buflen <- [DW_OP_LLVM_entry_value 1] $r2
	@DEBUG_VALUE: mbedtls_x509_crl_parse_der:len <- [DW_OP_plus_uconst 56, DW_OP_deref] $sp
	@DEBUG_VALUE: mbedtls_x509_crl_parse_der:end <- $r5
	@DEBUG_VALUE: mbedtls_x509_crl_parse_der:p <- [DW_OP_plus_uconst 52, DW_OP_deref] $sp
	.loc	4 0 13 is_stmt 0                @ ../../../ThirdParty/mbedTLS/library/x509_crl.c:0:13
	add	r0, sp, #52
	add	r2, sp, #56
	movs	r3, #48
.Ltmp27:
	.loc	4 362 17 is_stmt 1              @ ../../../ThirdParty/mbedTLS/library/x509_crl.c:362:17
	mov	r1, r5
	bl	mbedtls_asn1_get_tag
.Ltmp28:
	@DEBUG_VALUE: mbedtls_x509_crl_parse_der:ret <- $r0
	.loc	4 362 9 is_stmt 0               @ ../../../ThirdParty/mbedTLS/library/x509_crl.c:362:9
	cbz	r0, .LBB0_13
.Ltmp29:
@ %bb.12:
	@DEBUG_VALUE: mbedtls_x509_crl_parse_der:buf <- $r7
	@DEBUG_VALUE: mbedtls_x509_crl_parse_der:end <- $r5
	@DEBUG_VALUE: mbedtls_x509_crl_parse_der:crl <- $r4
	@DEBUG_VALUE: mbedtls_x509_crl_parse_der:ret <- $r0
	@DEBUG_VALUE: mbedtls_x509_crl_parse_der:p <- [DW_OP_plus_uconst 52, DW_OP_deref] $sp
	@DEBUG_VALUE: mbedtls_x509_crl_parse_der:len <- [DW_OP_plus_uconst 56, DW_OP_deref] $sp
	@DEBUG_VALUE: mbedtls_x509_crl_parse_der:buflen <- [DW_OP_LLVM_entry_value 1] $r2
	.loc	4 365 9 is_stmt 1               @ ../../../ThirdParty/mbedTLS/library/x509_crl.c:365:9
	mov	r0, r4
.Ltmp30:
	bl	mbedtls_x509_crl_free
.Ltmp31:
	.loc	4 0 0 is_stmt 0                 @ ../../../ThirdParty/mbedTLS/library/x509_crl.c:0:0
	ldr	r6, __arm_cp.0_1
.Ltmp32:
	.loc	4 366 9 is_stmt 1               @ ../../../ThirdParty/mbedTLS/library/x509_crl.c:366:9
	b	.LBB0_21
.Ltmp33:
.LBB0_13:
	@DEBUG_VALUE: mbedtls_x509_crl_parse_der:buf <- $r7
	@DEBUG_VALUE: mbedtls_x509_crl_parse_der:end <- $r5
	@DEBUG_VALUE: mbedtls_x509_crl_parse_der:crl <- $r4
	@DEBUG_VALUE: mbedtls_x509_crl_parse_der:ret <- $r0
	@DEBUG_VALUE: mbedtls_x509_crl_parse_der:p <- [DW_OP_plus_uconst 52, DW_OP_deref] $sp
	@DEBUG_VALUE: mbedtls_x509_crl_parse_der:len <- [DW_OP_plus_uconst 56, DW_OP_deref] $sp
	@DEBUG_VALUE: mbedtls_x509_crl_parse_der:buflen <- [DW_OP_LLVM_entry_value 1] $r2
	.loc	4 369 33                        @ ../../../ThirdParty/mbedTLS/library/x509_crl.c:369:33
	ldr	r0, [sp, #52]
.Ltmp34:
	@DEBUG_VALUE: mbedtls_x509_crl_parse_der:p <- $r0
	.loc	4 369 31 is_stmt 0              @ ../../../ThirdParty/mbedTLS/library/x509_crl.c:369:31
	subs	r1, r5, r0
	.loc	4 369 9                         @ ../../../ThirdParty/mbedTLS/library/x509_crl.c:369:9
	ldr	r2, [sp, #56]
.Ltmp35:
	@DEBUG_VALUE: mbedtls_x509_crl_parse_der:len <- $r2
	.loc	4 369 9                         @ ../../../ThirdParty/mbedTLS/library/x509_crl.c:369:9
	cmp	r2, r1
	bne	.LBB0_16
.Ltmp36:
@ %bb.14:
	@DEBUG_VALUE: mbedtls_x509_crl_parse_der:buf <- $r7
	@DEBUG_VALUE: mbedtls_x509_crl_parse_der:end <- $r5
	@DEBUG_VALUE: mbedtls_x509_crl_parse_der:crl <- $r4
	@DEBUG_VALUE: mbedtls_x509_crl_parse_der:len <- $r2
	@DEBUG_VALUE: mbedtls_x509_crl_parse_der:p <- $r0
	@DEBUG_VALUE: mbedtls_x509_crl_parse_der:buflen <- [DW_OP_LLVM_entry_value 1] $r2
	.loc	4 379 16 is_stmt 1              @ ../../../ThirdParty/mbedTLS/library/x509_crl.c:379:16
	str	r0, [r4, #20]
.Ltmp37:
	@DEBUG_VALUE: mbedtls_x509_crl_parse_der:len <- [DW_OP_plus_uconst 56, DW_OP_deref] $sp
	@DEBUG_VALUE: mbedtls_x509_crl_parse_der:p <- [DW_OP_plus_uconst 52, DW_OP_deref] $sp
	.loc	4 0 16 is_stmt 0                @ ../../../ThirdParty/mbedTLS/library/x509_crl.c:0:16
	add	r0, sp, #52
	add	r2, sp, #56
	movs	r3, #48
.Ltmp38:
	.loc	4 381 17 is_stmt 1              @ ../../../ThirdParty/mbedTLS/library/x509_crl.c:381:17
	mov	r1, r5
	bl	mbedtls_asn1_get_tag
.Ltmp39:
	@DEBUG_VALUE: mbedtls_x509_crl_parse_der:ret <- $r0
	.loc	4 381 9 is_stmt 0               @ ../../../ThirdParty/mbedTLS/library/x509_crl.c:381:9
	cbz	r0, .LBB0_18
.Ltmp40:
@ %bb.15:
	@DEBUG_VALUE: mbedtls_x509_crl_parse_der:buf <- $r7
	@DEBUG_VALUE: mbedtls_x509_crl_parse_der:end <- $r5
	@DEBUG_VALUE: mbedtls_x509_crl_parse_der:crl <- $r4
	@DEBUG_VALUE: mbedtls_x509_crl_parse_der:ret <- $r0
	@DEBUG_VALUE: mbedtls_x509_crl_parse_der:p <- [DW_OP_plus_uconst 52, DW_OP_deref] $sp
	@DEBUG_VALUE: mbedtls_x509_crl_parse_der:len <- [DW_OP_plus_uconst 56, DW_OP_deref] $sp
	@DEBUG_VALUE: mbedtls_x509_crl_parse_der:buflen <- [DW_OP_LLVM_entry_value 1] $r2
	.loc	4 0 0                           @ ../../../ThirdParty/mbedTLS/library/x509_crl.c:0:0
	mov	r5, r0
.Ltmp41:
	@DEBUG_VALUE: mbedtls_x509_crl_parse_der:ret <- $r5
	.loc	4 384 9 is_stmt 1               @ ../../../ThirdParty/mbedTLS/library/x509_crl.c:384:9
	mov	r0, r4
	bl	mbedtls_x509_crl_free
	.loc	4 385 49                        @ ../../../ThirdParty/mbedTLS/library/x509_crl.c:385:49
	ldr	r0, __arm_cp.0_1
	adds	r6, r5, r0
	.loc	4 385 9 is_stmt 0               @ ../../../ThirdParty/mbedTLS/library/x509_crl.c:385:9
	b	.LBB0_21
.Ltmp42:
.LBB0_16:
	@DEBUG_VALUE: mbedtls_x509_crl_parse_der:buf <- $r7
	@DEBUG_VALUE: mbedtls_x509_crl_parse_der:end <- $r5
	@DEBUG_VALUE: mbedtls_x509_crl_parse_der:crl <- $r4
	@DEBUG_VALUE: mbedtls_x509_crl_parse_der:len <- $r2
	@DEBUG_VALUE: mbedtls_x509_crl_parse_der:p <- $r0
	@DEBUG_VALUE: mbedtls_x509_crl_parse_der:buflen <- [DW_OP_LLVM_entry_value 1] $r2
	.loc	4 371 9 is_stmt 1               @ ../../../ThirdParty/mbedTLS/library/x509_crl.c:371:9
	mov	r0, r4
.Ltmp43:
	bl	mbedtls_x509_crl_free
.Ltmp44:
	.loc	4 0 9 is_stmt 0                 @ ../../../ThirdParty/mbedTLS/library/x509_crl.c:0:9
	ldr	r6, __arm_cp.0_1
.Ltmp45:
	subs	r6, #102
.Ltmp46:
	.loc	4 372 9 is_stmt 1               @ ../../../ThirdParty/mbedTLS/library/x509_crl.c:372:9
	b	.LBB0_21
.Ltmp47:
.LBB0_17:
	@DEBUG_VALUE: mbedtls_x509_crl_parse_der:buf <- $r7
	@DEBUG_VALUE: mbedtls_x509_crl_parse_der:buflen <- $r5
	@DEBUG_VALUE: mbedtls_x509_crl_parse_der:crl <- $r4
	@DEBUG_VALUE: mbedtls_x509_crl_parse_der:end <- 0
	@DEBUG_VALUE: mbedtls_x509_crl_parse_der:p <- 0
	.loc	4 331 13                        @ ../../../ThirdParty/mbedTLS/library/x509_crl.c:331:13
	mov	r0, r4
	bl	mbedtls_x509_crl_free
.Ltmp48:
	.loc	4 0 0 is_stmt 0                 @ ../../../ThirdParty/mbedTLS/library/x509_crl.c:0:0
	ldr	r6, __arm_cp.0_0
.Ltmp49:
	.loc	4 332 13 is_stmt 1              @ ../../../ThirdParty/mbedTLS/library/x509_crl.c:332:13
	b	.LBB0_21
.Ltmp50:
.LBB0_18:
	@DEBUG_VALUE: mbedtls_x509_crl_parse_der:buf <- $r7
	@DEBUG_VALUE: mbedtls_x509_crl_parse_der:end <- $r5
	@DEBUG_VALUE: mbedtls_x509_crl_parse_der:crl <- $r4
	@DEBUG_VALUE: mbedtls_x509_crl_parse_der:ret <- $r0
	@DEBUG_VALUE: mbedtls_x509_crl_parse_der:p <- [DW_OP_plus_uconst 52, DW_OP_deref] $sp
	@DEBUG_VALUE: mbedtls_x509_crl_parse_der:len <- [DW_OP_plus_uconst 56, DW_OP_deref] $sp
	@DEBUG_VALUE: mbedtls_x509_crl_parse_der:buflen <- [DW_OP_LLVM_entry_value 1] $r2
	.loc	4 388 15                        @ ../../../ThirdParty/mbedTLS/library/x509_crl.c:388:15
	ldr	r0, [sp, #56]
.Ltmp51:
	@DEBUG_VALUE: mbedtls_x509_crl_parse_der:len <- $r0
	.loc	4 388 11 is_stmt 0              @ ../../../ThirdParty/mbedTLS/library/x509_crl.c:388:11
	ldr	r1, [sp, #52]
.Ltmp52:
	@DEBUG_VALUE: mbedtls_x509_crl_parse_der:p <- $r1
	.loc	4 388 13                        @ ../../../ThirdParty/mbedTLS/library/x509_crl.c:388:13
	adds	r7, r1, r0
.Ltmp53:
	@DEBUG_VALUE: mbedtls_x509_crl_parse_der:buf <- [DW_OP_LLVM_entry_value 1] $r1
	@DEBUG_VALUE: mbedtls_x509_crl_parse_der:buf <- [DW_OP_LLVM_entry_value 1] $r1
	@DEBUG_VALUE: mbedtls_x509_crl_parse_der:end <- $r7
	.loc	4 389 35 is_stmt 1              @ ../../../ThirdParty/mbedTLS/library/x509_crl.c:389:35
	ldr	r0, [r4, #20]
.Ltmp54:
	.loc	4 389 24 is_stmt 0              @ ../../../ThirdParty/mbedTLS/library/x509_crl.c:389:24
	subs	r0, r7, r0
	.loc	4 389 18                        @ ../../../ThirdParty/mbedTLS/library/x509_crl.c:389:18
	str	r0, [r4, #16]
.Ltmp55:
	@DEBUG_VALUE: mbedtls_x509_crl_parse_der:p <- [DW_OP_plus_uconst 52, DW_OP_deref] $sp
	.loc	4 397 54 is_stmt 1              @ ../../../ThirdParty/mbedTLS/library/x509_crl.c:397:54
	mov	r2, r4
	adds	r2, #24
	add	r0, sp, #52
	.loc	4 397 17 is_stmt 0              @ ../../../ThirdParty/mbedTLS/library/x509_crl.c:397:17
	mov	r1, r7
	str	r2, [sp, #8]                    @ 4-byte Spill
	bl	x509_crl_get_version
	mov	r6, r0
.Ltmp56:
	@DEBUG_VALUE: mbedtls_x509_crl_parse_der:ret <- $r6
	.loc	4 397 71                        @ ../../../ThirdParty/mbedTLS/library/x509_crl.c:397:71
	cbnz	r0, .LBB0_20
.Ltmp57:
@ %bb.19:
	@DEBUG_VALUE: mbedtls_x509_crl_parse_der:end <- $r7
	@DEBUG_VALUE: mbedtls_x509_crl_parse_der:ret <- $r6
	@DEBUG_VALUE: mbedtls_x509_crl_parse_der:crl <- $r4
	@DEBUG_VALUE: mbedtls_x509_crl_parse_der:p <- [DW_OP_plus_uconst 52, DW_OP_deref] $sp
	@DEBUG_VALUE: mbedtls_x509_crl_parse_der:buf <- [DW_OP_LLVM_entry_value 1] $r1
	@DEBUG_VALUE: mbedtls_x509_crl_parse_der:buflen <- [DW_OP_LLVM_entry_value 1] $r2
	@DEBUG_VALUE: mbedtls_x509_crl_parse_der:p <- [DW_OP_plus_uconst 52, DW_OP_deref] $sp
	.loc	4 398 58 is_stmt 1              @ ../../../ThirdParty/mbedTLS/library/x509_crl.c:398:58
	mov	r5, r4
	adds	r5, #28
	add	r0, sp, #52
	add	r3, sp, #40
	.loc	4 398 21 is_stmt 0              @ ../../../ThirdParty/mbedTLS/library/x509_crl.c:398:21
	mov	r1, r7
	mov	r2, r5
	bl	mbedtls_x509_get_alg
	mov	r6, r0
.Ltmp58:
	@DEBUG_VALUE: mbedtls_x509_crl_parse_der:ret <- $r6
	.loc	4 397 9 is_stmt 1               @ ../../../ThirdParty/mbedTLS/library/x509_crl.c:397:9
	cbz	r0, .LBB0_22
.Ltmp59:
.LBB0_20:
	@DEBUG_VALUE: mbedtls_x509_crl_parse_der:end <- $r7
	@DEBUG_VALUE: mbedtls_x509_crl_parse_der:ret <- $r6
	@DEBUG_VALUE: mbedtls_x509_crl_parse_der:crl <- $r4
	@DEBUG_VALUE: mbedtls_x509_crl_parse_der:p <- [DW_OP_plus_uconst 52, DW_OP_deref] $sp
	@DEBUG_VALUE: mbedtls_x509_crl_parse_der:buf <- [DW_OP_LLVM_entry_value 1] $r1
	@DEBUG_VALUE: mbedtls_x509_crl_parse_der:buflen <- [DW_OP_LLVM_entry_value 1] $r2
	@DEBUG_VALUE: mbedtls_x509_crl_parse_der:ret <- $r6
	.loc	4 400 9                         @ ../../../ThirdParty/mbedTLS/library/x509_crl.c:400:9
	mov	r0, r4
	bl	mbedtls_x509_crl_free
.Ltmp60:
.LBB0_21:
	.loc	4 534 1                         @ ../../../ThirdParty/mbedTLS/library/x509_crl.c:534:1
	mov	r0, r6
	add	sp, #60
	pop	{r4, r5, r6, r7, pc}
.LBB0_22:
.Ltmp61:
	@DEBUG_VALUE: mbedtls_x509_crl_parse_der:end <- $r7
	@DEBUG_VALUE: mbedtls_x509_crl_parse_der:ret <- $r6
	@DEBUG_VALUE: mbedtls_x509_crl_parse_der:crl <- $r4
	@DEBUG_VALUE: mbedtls_x509_crl_parse_der:p <- [DW_OP_plus_uconst 52, DW_OP_deref] $sp
	@DEBUG_VALUE: mbedtls_x509_crl_parse_der:buf <- [DW_OP_LLVM_entry_value 1] $r1
	@DEBUG_VALUE: mbedtls_x509_crl_parse_der:buflen <- [DW_OP_LLVM_entry_value 1] $r2
	.loc	4 0 1 is_stmt 0                 @ ../../../ThirdParty/mbedTLS/library/x509_crl.c:0:1
	str	r7, [sp, #4]                    @ 4-byte Spill
.Ltmp62:
	@DEBUG_VALUE: mbedtls_x509_crl_parse_der:end <- [DW_OP_plus_uconst 4] [$sp+0]
	@DEBUG_VALUE: mbedtls_x509_crl_parse_der:end <- [DW_OP_plus_uconst 4] [$sp+0]
	.loc	4 404 14 is_stmt 1              @ ../../../ThirdParty/mbedTLS/library/x509_crl.c:404:14
	ldr	r0, [sp, #8]                    @ 4-byte Reload
	ldr	r0, [r0]
	.loc	4 404 26 is_stmt 0              @ ../../../ThirdParty/mbedTLS/library/x509_crl.c:404:26
	cmp	r0, #2
	blo	.LBB0_24
.Ltmp63:
@ %bb.23:
	@DEBUG_VALUE: mbedtls_x509_crl_parse_der:end <- [DW_OP_plus_uconst 4] [$sp+0]
	@DEBUG_VALUE: mbedtls_x509_crl_parse_der:ret <- $r6
	@DEBUG_VALUE: mbedtls_x509_crl_parse_der:crl <- $r4
	@DEBUG_VALUE: mbedtls_x509_crl_parse_der:p <- [DW_OP_plus_uconst 52, DW_OP_deref] $sp
	@DEBUG_VALUE: mbedtls_x509_crl_parse_der:buf <- [DW_OP_LLVM_entry_value 1] $r1
	@DEBUG_VALUE: mbedtls_x509_crl_parse_der:buflen <- [DW_OP_LLVM_entry_value 1] $r2
	.loc	4 406 9 is_stmt 1               @ ../../../ThirdParty/mbedTLS/library/x509_crl.c:406:9
	mov	r0, r4
	bl	mbedtls_x509_crl_free
	ldr	r6, __arm_cp.0_5
.Ltmp64:
	.loc	4 407 9                         @ ../../../ThirdParty/mbedTLS/library/x509_crl.c:407:9
	b	.LBB0_21
.Ltmp65:
.LBB0_24:
	@DEBUG_VALUE: mbedtls_x509_crl_parse_der:end <- [DW_OP_plus_uconst 4] [$sp+0]
	@DEBUG_VALUE: mbedtls_x509_crl_parse_der:ret <- $r6
	@DEBUG_VALUE: mbedtls_x509_crl_parse_der:crl <- $r4
	@DEBUG_VALUE: mbedtls_x509_crl_parse_der:p <- [DW_OP_plus_uconst 52, DW_OP_deref] $sp
	@DEBUG_VALUE: mbedtls_x509_crl_parse_der:buf <- [DW_OP_LLVM_entry_value 1] $r1
	@DEBUG_VALUE: mbedtls_x509_crl_parse_der:buflen <- [DW_OP_LLVM_entry_value 1] $r2
	.loc	4 410 17                        @ ../../../ThirdParty/mbedTLS/library/x509_crl.c:410:17
	adds	r0, r0, #1
	str	r0, [r4, #24]
.Ltmp66:
	.loc	4 414 49                        @ ../../../ThirdParty/mbedTLS/library/x509_crl.c:414:49
	mov	r0, r4
	adds	r0, #236
	.loc	4 412 17                        @ ../../../ThirdParty/mbedTLS/library/x509_crl.c:412:17
	str	r0, [sp]
	.loc	4 413 49                        @ ../../../ThirdParty/mbedTLS/library/x509_crl.c:413:49
	mov	r2, r4
	adds	r2, #232
	.loc	4 413 63 is_stmt 0              @ ../../../ThirdParty/mbedTLS/library/x509_crl.c:413:63
	mov	r3, r4
	adds	r3, #233
	add	r1, sp, #40
	.loc	4 412 17 is_stmt 1              @ ../../../ThirdParty/mbedTLS/library/x509_crl.c:412:17
	mov	r0, r5
	bl	mbedtls_x509_get_sig_alg
.Ltmp67:
	@DEBUG_VALUE: mbedtls_x509_crl_parse_der:ret <- $r0
	.loc	4 412 9 is_stmt 0               @ ../../../ThirdParty/mbedTLS/library/x509_crl.c:412:9
	cbz	r0, .LBB0_26
.Ltmp68:
@ %bb.25:
	@DEBUG_VALUE: mbedtls_x509_crl_parse_der:end <- [DW_OP_plus_uconst 4] [$sp+0]
	@DEBUG_VALUE: mbedtls_x509_crl_parse_der:crl <- $r4
	@DEBUG_VALUE: mbedtls_x509_crl_parse_der:ret <- $r0
	@DEBUG_VALUE: mbedtls_x509_crl_parse_der:p <- [DW_OP_plus_uconst 52, DW_OP_deref] $sp
	@DEBUG_VALUE: mbedtls_x509_crl_parse_der:buf <- [DW_OP_LLVM_entry_value 1] $r1
	@DEBUG_VALUE: mbedtls_x509_crl_parse_der:buflen <- [DW_OP_LLVM_entry_value 1] $r2
	.loc	4 416 9 is_stmt 1               @ ../../../ThirdParty/mbedTLS/library/x509_crl.c:416:9
	mov	r0, r4
.Ltmp69:
	bl	mbedtls_x509_crl_free
	ldr	r6, __arm_cp.0_2
.Ltmp70:
	.loc	4 0 0 is_stmt 0                 @ ../../../ThirdParty/mbedTLS/library/x509_crl.c:0:0
	adds	r6, #128
.Ltmp71:
	.loc	4 417 9 is_stmt 1               @ ../../../ThirdParty/mbedTLS/library/x509_crl.c:417:9
	b	.LBB0_21
.Ltmp72:
.LBB0_26:
	@DEBUG_VALUE: mbedtls_x509_crl_parse_der:end <- [DW_OP_plus_uconst 4] [$sp+0]
	@DEBUG_VALUE: mbedtls_x509_crl_parse_der:crl <- $r4
	@DEBUG_VALUE: mbedtls_x509_crl_parse_der:ret <- $r0
	@DEBUG_VALUE: mbedtls_x509_crl_parse_der:p <- [DW_OP_plus_uconst 52, DW_OP_deref] $sp
	@DEBUG_VALUE: mbedtls_x509_crl_parse_der:buf <- [DW_OP_LLVM_entry_value 1] $r1
	@DEBUG_VALUE: mbedtls_x509_crl_parse_der:buflen <- [DW_OP_LLVM_entry_value 1] $r2
	.loc	4 423 25                        @ ../../../ThirdParty/mbedTLS/library/x509_crl.c:423:25
	ldr	r0, [sp, #52]
.Ltmp73:
	@DEBUG_VALUE: mbedtls_x509_crl_parse_der:p <- undef
	.loc	4 423 23 is_stmt 0              @ ../../../ThirdParty/mbedTLS/library/x509_crl.c:423:23
	str	r0, [r4, #48]
.Ltmp74:
	@DEBUG_VALUE: mbedtls_x509_crl_parse_der:len <- [DW_OP_plus_uconst 56, DW_OP_deref] $sp
	@DEBUG_VALUE: mbedtls_x509_crl_parse_der:p <- [DW_OP_plus_uconst 52, DW_OP_deref] $sp
	.loc	4 0 23                          @ ../../../ThirdParty/mbedTLS/library/x509_crl.c:0:23
	add	r0, sp, #52
	add	r2, sp, #56
	movs	r3, #48
.Ltmp75:
	.loc	4 425 17 is_stmt 1              @ ../../../ThirdParty/mbedTLS/library/x509_crl.c:425:17
	ldr	r1, [sp, #4]                    @ 4-byte Reload
.Ltmp76:
	@DEBUG_VALUE: mbedtls_x509_crl_parse_der:end <- $r1
	@DEBUG_VALUE: mbedtls_x509_crl_parse_der:end <- $r1
	bl	mbedtls_asn1_get_tag
.Ltmp77:
	@DEBUG_VALUE: mbedtls_x509_crl_parse_der:ret <- $r0
	.loc	4 425 9 is_stmt 0               @ ../../../ThirdParty/mbedTLS/library/x509_crl.c:425:9
	cbz	r0, .LBB0_28
.Ltmp78:
@ %bb.27:
	@DEBUG_VALUE: mbedtls_x509_crl_parse_der:crl <- $r4
	@DEBUG_VALUE: mbedtls_x509_crl_parse_der:ret <- $r0
	@DEBUG_VALUE: mbedtls_x509_crl_parse_der:p <- [DW_OP_plus_uconst 52, DW_OP_deref] $sp
	@DEBUG_VALUE: mbedtls_x509_crl_parse_der:len <- [DW_OP_plus_uconst 56, DW_OP_deref] $sp
	@DEBUG_VALUE: mbedtls_x509_crl_parse_der:buf <- [DW_OP_LLVM_entry_value 1] $r1
	@DEBUG_VALUE: mbedtls_x509_crl_parse_der:buflen <- [DW_OP_LLVM_entry_value 1] $r2
	.loc	4 0 0                           @ ../../../ThirdParty/mbedTLS/library/x509_crl.c:0:0
	mov	r5, r0
.Ltmp79:
	@DEBUG_VALUE: mbedtls_x509_crl_parse_der:ret <- $r5
	.loc	4 428 9 is_stmt 1               @ ../../../ThirdParty/mbedTLS/library/x509_crl.c:428:9
	mov	r0, r4
	bl	mbedtls_x509_crl_free
	.loc	4 429 49                        @ ../../../ThirdParty/mbedTLS/library/x509_crl.c:429:49
	ldr	r0, __arm_cp.0_1
	adds	r6, r5, r0
	.loc	4 429 9 is_stmt 0               @ ../../../ThirdParty/mbedTLS/library/x509_crl.c:429:9
	b	.LBB0_21
.Ltmp80:
.LBB0_28:
	@DEBUG_VALUE: mbedtls_x509_crl_parse_der:crl <- $r4
	@DEBUG_VALUE: mbedtls_x509_crl_parse_der:ret <- $r0
	@DEBUG_VALUE: mbedtls_x509_crl_parse_der:p <- [DW_OP_plus_uconst 52, DW_OP_deref] $sp
	@DEBUG_VALUE: mbedtls_x509_crl_parse_der:len <- [DW_OP_plus_uconst 56, DW_OP_deref] $sp
	@DEBUG_VALUE: mbedtls_x509_crl_parse_der:buf <- [DW_OP_LLVM_entry_value 1] $r1
	@DEBUG_VALUE: mbedtls_x509_crl_parse_der:buflen <- [DW_OP_LLVM_entry_value 1] $r2
	.loc	4 432 48 is_stmt 1              @ ../../../ThirdParty/mbedTLS/library/x509_crl.c:432:48
	ldr	r0, [sp, #56]
.Ltmp81:
	@DEBUG_VALUE: mbedtls_x509_crl_parse_der:len <- $r0
	.loc	4 432 44 is_stmt 0              @ ../../../ThirdParty/mbedTLS/library/x509_crl.c:432:44
	ldr	r1, [sp, #52]
.Ltmp82:
	@DEBUG_VALUE: mbedtls_x509_crl_parse_der:p <- $r1
	.loc	4 432 46                        @ ../../../ThirdParty/mbedTLS/library/x509_crl.c:432:46
	adds	r1, r1, r0
.Ltmp83:
	@DEBUG_VALUE: mbedtls_x509_crl_parse_der:p <- [DW_OP_plus_uconst 52, DW_OP_deref] $sp
	.loc	4 432 59                        @ ../../../ThirdParty/mbedTLS/library/x509_crl.c:432:59
	mov	r2, r4
	adds	r2, #52
	add	r0, sp, #52
.Ltmp84:
	.loc	4 432 17                        @ ../../../ThirdParty/mbedTLS/library/x509_crl.c:432:17
	bl	mbedtls_x509_get_name
.Ltmp85:
	@DEBUG_VALUE: mbedtls_x509_crl_parse_der:ret <- $r0
	.loc	4 432 9                         @ ../../../ThirdParty/mbedTLS/library/x509_crl.c:432:9
	cbz	r0, .LBB0_30
.Ltmp86:
@ %bb.29:
	@DEBUG_VALUE: mbedtls_x509_crl_parse_der:crl <- $r4
	@DEBUG_VALUE: mbedtls_x509_crl_parse_der:ret <- $r0
	@DEBUG_VALUE: mbedtls_x509_crl_parse_der:p <- [DW_OP_plus_uconst 52, DW_OP_deref] $sp
	@DEBUG_VALUE: mbedtls_x509_crl_parse_der:buf <- [DW_OP_LLVM_entry_value 1] $r1
	@DEBUG_VALUE: mbedtls_x509_crl_parse_der:buflen <- [DW_OP_LLVM_entry_value 1] $r2
	.loc	4 0 0                           @ ../../../ThirdParty/mbedTLS/library/x509_crl.c:0:0
	mov	r6, r0
.Ltmp87:
	@DEBUG_VALUE: mbedtls_x509_crl_parse_der:ret <- $r6
	.loc	4 434 9 is_stmt 1               @ ../../../ThirdParty/mbedTLS/library/x509_crl.c:434:9
	mov	r0, r4
	bl	mbedtls_x509_crl_free
	.loc	4 435 9                         @ ../../../ThirdParty/mbedTLS/library/x509_crl.c:435:9
	b	.LBB0_21
.Ltmp88:
.LBB0_30:
	@DEBUG_VALUE: mbedtls_x509_crl_parse_der:crl <- $r4
	@DEBUG_VALUE: mbedtls_x509_crl_parse_der:ret <- $r0
	@DEBUG_VALUE: mbedtls_x509_crl_parse_der:p <- [DW_OP_plus_uconst 52, DW_OP_deref] $sp
	@DEBUG_VALUE: mbedtls_x509_crl_parse_der:buf <- [DW_OP_LLVM_entry_value 1] $r1
	@DEBUG_VALUE: mbedtls_x509_crl_parse_der:buflen <- [DW_OP_LLVM_entry_value 1] $r2
	@DEBUG_VALUE: mbedtls_x509_crl_parse_der:p <- undef
	.loc	4 438 47                        @ ../../../ThirdParty/mbedTLS/library/x509_crl.c:438:47
	ldr	r0, [r4, #48]
.Ltmp89:
	.loc	4 438 27 is_stmt 0              @ ../../../ThirdParty/mbedTLS/library/x509_crl.c:438:27
	ldr	r1, [sp, #52]
	.loc	4 438 29                        @ ../../../ThirdParty/mbedTLS/library/x509_crl.c:438:29
	subs	r0, r1, r0
	.loc	4 438 25                        @ ../../../ThirdParty/mbedTLS/library/x509_crl.c:438:25
	str	r0, [r4, #44]
.Ltmp90:
	@DEBUG_VALUE: mbedtls_x509_crl_parse_der:p <- [DW_OP_plus_uconst 52, DW_OP_deref] $sp
	.loc	4 444 55 is_stmt 1              @ ../../../ThirdParty/mbedTLS/library/x509_crl.c:444:55
	mov	r2, r4
	adds	r2, #84
	add	r0, sp, #52
	.loc	4 444 17 is_stmt 0              @ ../../../ThirdParty/mbedTLS/library/x509_crl.c:444:17
	ldr	r1, [sp, #4]                    @ 4-byte Reload
	bl	mbedtls_x509_get_time
.Ltmp91:
	@DEBUG_VALUE: mbedtls_x509_crl_parse_der:ret <- $r0
	.loc	4 444 9                         @ ../../../ThirdParty/mbedTLS/library/x509_crl.c:444:9
	cbz	r0, .LBB0_32
.Ltmp92:
@ %bb.31:
	@DEBUG_VALUE: mbedtls_x509_crl_parse_der:crl <- $r4
	@DEBUG_VALUE: mbedtls_x509_crl_parse_der:ret <- $r0
	@DEBUG_VALUE: mbedtls_x509_crl_parse_der:p <- [DW_OP_plus_uconst 52, DW_OP_deref] $sp
	@DEBUG_VALUE: mbedtls_x509_crl_parse_der:buf <- [DW_OP_LLVM_entry_value 1] $r1
	@DEBUG_VALUE: mbedtls_x509_crl_parse_der:buflen <- [DW_OP_LLVM_entry_value 1] $r2
	.loc	4 0 0                           @ ../../../ThirdParty/mbedTLS/library/x509_crl.c:0:0
	mov	r6, r0
.Ltmp93:
	@DEBUG_VALUE: mbedtls_x509_crl_parse_der:ret <- $r6
	.loc	4 446 9 is_stmt 1               @ ../../../ThirdParty/mbedTLS/library/x509_crl.c:446:9
	mov	r0, r4
	bl	mbedtls_x509_crl_free
	.loc	4 447 9                         @ ../../../ThirdParty/mbedTLS/library/x509_crl.c:447:9
	b	.LBB0_21
.Ltmp94:
.LBB0_32:
	@DEBUG_VALUE: mbedtls_x509_crl_parse_der:crl <- $r4
	@DEBUG_VALUE: mbedtls_x509_crl_parse_der:ret <- $r0
	@DEBUG_VALUE: mbedtls_x509_crl_parse_der:p <- [DW_OP_plus_uconst 52, DW_OP_deref] $sp
	@DEBUG_VALUE: mbedtls_x509_crl_parse_der:buf <- [DW_OP_LLVM_entry_value 1] $r1
	@DEBUG_VALUE: mbedtls_x509_crl_parse_der:buflen <- [DW_OP_LLVM_entry_value 1] $r2
	@DEBUG_VALUE: mbedtls_x509_crl_parse_der:p <- [DW_OP_plus_uconst 52, DW_OP_deref] $sp
	.loc	4 450 55                        @ ../../../ThirdParty/mbedTLS/library/x509_crl.c:450:55
	mov	r2, r4
	adds	r2, #108
	add	r0, sp, #52
.Ltmp95:
	.loc	4 450 17 is_stmt 0              @ ../../../ThirdParty/mbedTLS/library/x509_crl.c:450:17
	ldr	r1, [sp, #4]                    @ 4-byte Reload
	bl	mbedtls_x509_get_time
	mov	r6, r0
.Ltmp96:
	@DEBUG_VALUE: mbedtls_x509_crl_parse_der:ret <- $r6
	.loc	4 0 17                          @ ../../../ThirdParty/mbedTLS/library/x509_crl.c:0:17
	ldr	r0, __arm_cp.0_3
.Ltmp97:
	.loc	4 450 9                         @ ../../../ThirdParty/mbedTLS/library/x509_crl.c:450:9
	cmp	r6, r0
	beq	.LBB0_35
.Ltmp98:
@ %bb.33:
	@DEBUG_VALUE: mbedtls_x509_crl_parse_der:ret <- $r6
	@DEBUG_VALUE: mbedtls_x509_crl_parse_der:crl <- $r4
	@DEBUG_VALUE: mbedtls_x509_crl_parse_der:p <- [DW_OP_plus_uconst 52, DW_OP_deref] $sp
	@DEBUG_VALUE: mbedtls_x509_crl_parse_der:buf <- [DW_OP_LLVM_entry_value 1] $r1
	@DEBUG_VALUE: mbedtls_x509_crl_parse_der:buflen <- [DW_OP_LLVM_entry_value 1] $r2
	.loc	4 0 9                           @ ../../../ThirdParty/mbedTLS/library/x509_crl.c:0:9
	ldr	r0, __arm_cp.0_4
	.loc	4 450 9                         @ ../../../ThirdParty/mbedTLS/library/x509_crl.c:450:9
	cmp	r6, r0
	beq	.LBB0_35
.Ltmp99:
@ %bb.34:
	@DEBUG_VALUE: mbedtls_x509_crl_parse_der:ret <- $r6
	@DEBUG_VALUE: mbedtls_x509_crl_parse_der:crl <- $r4
	@DEBUG_VALUE: mbedtls_x509_crl_parse_der:p <- [DW_OP_plus_uconst 52, DW_OP_deref] $sp
	@DEBUG_VALUE: mbedtls_x509_crl_parse_der:buf <- [DW_OP_LLVM_entry_value 1] $r1
	@DEBUG_VALUE: mbedtls_x509_crl_parse_der:buflen <- [DW_OP_LLVM_entry_value 1] $r2
	cbnz	r6, .LBB0_40
.Ltmp100:
.LBB0_35:
	@DEBUG_VALUE: mbedtls_x509_crl_parse_der:ret <- $r6
	@DEBUG_VALUE: mbedtls_x509_crl_parse_der:crl <- $r4
	@DEBUG_VALUE: mbedtls_x509_crl_parse_der:p <- [DW_OP_plus_uconst 52, DW_OP_deref] $sp
	@DEBUG_VALUE: mbedtls_x509_crl_parse_der:buf <- [DW_OP_LLVM_entry_value 1] $r1
	@DEBUG_VALUE: mbedtls_x509_crl_parse_der:buflen <- [DW_OP_LLVM_entry_value 1] $r2
	@DEBUG_VALUE: mbedtls_x509_crl_parse_der:p <- [DW_OP_plus_uconst 52, DW_OP_deref] $sp
	.loc	4 470 50 is_stmt 1              @ ../../../ThirdParty/mbedTLS/library/x509_crl.c:470:50
	mov	r2, r4
	adds	r2, #132
	add	r0, sp, #52
	.loc	4 470 17 is_stmt 0              @ ../../../ThirdParty/mbedTLS/library/x509_crl.c:470:17
	ldr	r1, [sp, #4]                    @ 4-byte Reload
	bl	x509_get_entries
.Ltmp101:
	@DEBUG_VALUE: mbedtls_x509_crl_parse_der:ret <- $r0
	.loc	4 470 9                         @ ../../../ThirdParty/mbedTLS/library/x509_crl.c:470:9
	cbz	r0, .LBB0_37
.Ltmp102:
@ %bb.36:
	@DEBUG_VALUE: mbedtls_x509_crl_parse_der:crl <- $r4
	@DEBUG_VALUE: mbedtls_x509_crl_parse_der:ret <- $r0
	@DEBUG_VALUE: mbedtls_x509_crl_parse_der:p <- [DW_OP_plus_uconst 52, DW_OP_deref] $sp
	@DEBUG_VALUE: mbedtls_x509_crl_parse_der:buf <- [DW_OP_LLVM_entry_value 1] $r1
	@DEBUG_VALUE: mbedtls_x509_crl_parse_der:buflen <- [DW_OP_LLVM_entry_value 1] $r2
	.loc	4 0 0                           @ ../../../ThirdParty/mbedTLS/library/x509_crl.c:0:0
	mov	r6, r0
.Ltmp103:
	@DEBUG_VALUE: mbedtls_x509_crl_parse_der:ret <- $r6
	.loc	4 472 9 is_stmt 1               @ ../../../ThirdParty/mbedTLS/library/x509_crl.c:472:9
	mov	r0, r4
	bl	mbedtls_x509_crl_free
	.loc	4 473 9                         @ ../../../ThirdParty/mbedTLS/library/x509_crl.c:473:9
	b	.LBB0_21
.Ltmp104:
.LBB0_37:
	@DEBUG_VALUE: mbedtls_x509_crl_parse_der:crl <- $r4
	@DEBUG_VALUE: mbedtls_x509_crl_parse_der:ret <- $r0
	@DEBUG_VALUE: mbedtls_x509_crl_parse_der:p <- [DW_OP_plus_uconst 52, DW_OP_deref] $sp
	@DEBUG_VALUE: mbedtls_x509_crl_parse_der:buf <- [DW_OP_LLVM_entry_value 1] $r1
	@DEBUG_VALUE: mbedtls_x509_crl_parse_der:buflen <- [DW_OP_LLVM_entry_value 1] $r2
	.loc	4 480 14                        @ ../../../ThirdParty/mbedTLS/library/x509_crl.c:480:14
	ldr	r0, [sp, #8]                    @ 4-byte Reload
.Ltmp105:
	ldr	r0, [r0]
.Ltmp106:
	.loc	4 480 9 is_stmt 0               @ ../../../ThirdParty/mbedTLS/library/x509_crl.c:480:9
	cmp	r0, #2
	bne	.LBB0_41
.Ltmp107:
@ %bb.38:
	@DEBUG_VALUE: mbedtls_x509_crl_parse_der:crl <- $r4
	@DEBUG_VALUE: mbedtls_x509_crl_parse_der:p <- [DW_OP_plus_uconst 52, DW_OP_deref] $sp
	@DEBUG_VALUE: mbedtls_x509_crl_parse_der:buf <- [DW_OP_LLVM_entry_value 1] $r1
	@DEBUG_VALUE: mbedtls_x509_crl_parse_der:buflen <- [DW_OP_LLVM_entry_value 1] $r2
	@DEBUG_VALUE: mbedtls_x509_crl_parse_der:p <- [DW_OP_plus_uconst 52, DW_OP_deref] $sp
	.loc	4 482 48 is_stmt 1              @ ../../../ThirdParty/mbedTLS/library/x509_crl.c:482:48
	mov	r2, r4
	adds	r2, #196
	add	r0, sp, #52
	.loc	4 482 15 is_stmt 0              @ ../../../ThirdParty/mbedTLS/library/x509_crl.c:482:15
	ldr	r1, [sp, #4]                    @ 4-byte Reload
	bl	x509_get_crl_ext
.Ltmp108:
	@DEBUG_VALUE: mbedtls_x509_crl_parse_der:ret <- $r0
	.loc	4 484 13 is_stmt 1              @ ../../../ThirdParty/mbedTLS/library/x509_crl.c:484:13
	cbz	r0, .LBB0_41
.Ltmp109:
@ %bb.39:
	@DEBUG_VALUE: mbedtls_x509_crl_parse_der:crl <- $r4
	@DEBUG_VALUE: mbedtls_x509_crl_parse_der:ret <- $r0
	@DEBUG_VALUE: mbedtls_x509_crl_parse_der:p <- [DW_OP_plus_uconst 52, DW_OP_deref] $sp
	@DEBUG_VALUE: mbedtls_x509_crl_parse_der:buf <- [DW_OP_LLVM_entry_value 1] $r1
	@DEBUG_VALUE: mbedtls_x509_crl_parse_der:buflen <- [DW_OP_LLVM_entry_value 1] $r2
	.loc	4 0 0 is_stmt 0                 @ ../../../ThirdParty/mbedTLS/library/x509_crl.c:0:0
	mov	r6, r0
.Ltmp110:
	@DEBUG_VALUE: mbedtls_x509_crl_parse_der:ret <- $r6
	.loc	4 486 13 is_stmt 1              @ ../../../ThirdParty/mbedTLS/library/x509_crl.c:486:13
	mov	r0, r4
	bl	mbedtls_x509_crl_free
	.loc	4 487 13                        @ ../../../ThirdParty/mbedTLS/library/x509_crl.c:487:13
	b	.LBB0_21
.Ltmp111:
.LBB0_40:
	@DEBUG_VALUE: mbedtls_x509_crl_parse_der:ret <- $r6
	@DEBUG_VALUE: mbedtls_x509_crl_parse_der:crl <- $r4
	@DEBUG_VALUE: mbedtls_x509_crl_parse_der:p <- [DW_OP_plus_uconst 52, DW_OP_deref] $sp
	@DEBUG_VALUE: mbedtls_x509_crl_parse_der:buf <- [DW_OP_LLVM_entry_value 1] $r1
	@DEBUG_VALUE: mbedtls_x509_crl_parse_der:buflen <- [DW_OP_LLVM_entry_value 1] $r2
	.loc	4 457 13                        @ ../../../ThirdParty/mbedTLS/library/x509_crl.c:457:13
	mov	r0, r4
	bl	mbedtls_x509_crl_free
	.loc	4 458 13                        @ ../../../ThirdParty/mbedTLS/library/x509_crl.c:458:13
	b	.LBB0_21
.Ltmp112:
.LBB0_41:
	@DEBUG_VALUE: mbedtls_x509_crl_parse_der:crl <- $r4
	@DEBUG_VALUE: mbedtls_x509_crl_parse_der:p <- [DW_OP_plus_uconst 52, DW_OP_deref] $sp
	@DEBUG_VALUE: mbedtls_x509_crl_parse_der:buf <- [DW_OP_LLVM_entry_value 1] $r1
	@DEBUG_VALUE: mbedtls_x509_crl_parse_der:buflen <- [DW_OP_LLVM_entry_value 1] $r2
	.loc	4 491 9                         @ ../../../ThirdParty/mbedTLS/library/x509_crl.c:491:9
	ldr	r0, [sp, #52]
.Ltmp113:
	@DEBUG_VALUE: mbedtls_x509_crl_parse_der:p <- $r0
	.loc	4 491 9 is_stmt 0               @ ../../../ThirdParty/mbedTLS/library/x509_crl.c:491:9
	ldr	r1, [sp, #4]                    @ 4-byte Reload
	cmp	r0, r1
	beq	.LBB0_43
.Ltmp114:
@ %bb.42:
	@DEBUG_VALUE: mbedtls_x509_crl_parse_der:crl <- $r4
	@DEBUG_VALUE: mbedtls_x509_crl_parse_der:p <- $r0
	@DEBUG_VALUE: mbedtls_x509_crl_parse_der:buf <- [DW_OP_LLVM_entry_value 1] $r1
	@DEBUG_VALUE: mbedtls_x509_crl_parse_der:buflen <- [DW_OP_LLVM_entry_value 1] $r2
	.loc	4 493 9 is_stmt 1               @ ../../../ThirdParty/mbedTLS/library/x509_crl.c:493:9
	mov	r0, r4
.Ltmp115:
	bl	mbedtls_x509_crl_free
	ldr	r6, __arm_cp.0_1
.Ltmp116:
	.loc	4 0 0 is_stmt 0                 @ ../../../ThirdParty/mbedTLS/library/x509_crl.c:0:0
	subs	r6, #102
.Ltmp117:
	.loc	4 494 9 is_stmt 1               @ ../../../ThirdParty/mbedTLS/library/x509_crl.c:494:9
	b	.LBB0_21
.Ltmp118:
.LBB0_43:
	@DEBUG_VALUE: mbedtls_x509_crl_parse_der:crl <- $r4
	@DEBUG_VALUE: mbedtls_x509_crl_parse_der:p <- $r0
	@DEBUG_VALUE: mbedtls_x509_crl_parse_der:buf <- [DW_OP_LLVM_entry_value 1] $r1
	@DEBUG_VALUE: mbedtls_x509_crl_parse_der:buflen <- [DW_OP_LLVM_entry_value 1] $r2
	.loc	4 498 33                        @ ../../../ThirdParty/mbedTLS/library/x509_crl.c:498:33
	ldr	r0, [r4, #4]
.Ltmp119:
	.loc	4 498 20 is_stmt 0              @ ../../../ThirdParty/mbedTLS/library/x509_crl.c:498:20
	ldr	r1, [r4, #8]
	.loc	4 498 22                        @ ../../../ThirdParty/mbedTLS/library/x509_crl.c:498:22
	adds	r5, r1, r0
.Ltmp120:
	@DEBUG_VALUE: mbedtls_x509_crl_parse_der:end <- $r5
	@DEBUG_VALUE: mbedtls_x509_crl_parse_der:p <- [DW_OP_plus_uconst 52, DW_OP_deref] $sp
	.loc	4 0 22                          @ ../../../ThirdParty/mbedTLS/library/x509_crl.c:0:22
	add	r0, sp, #52
	add	r2, sp, #16
	add	r3, sp, #28
.Ltmp121:
	.loc	4 504 17 is_stmt 1              @ ../../../ThirdParty/mbedTLS/library/x509_crl.c:504:17
	mov	r1, r5
	bl	mbedtls_x509_get_alg
.Ltmp122:
	@DEBUG_VALUE: mbedtls_x509_crl_parse_der:ret <- $r0
	.loc	4 504 9 is_stmt 0               @ ../../../ThirdParty/mbedTLS/library/x509_crl.c:504:9
	cbz	r0, .LBB0_45
.Ltmp123:
@ %bb.44:
	@DEBUG_VALUE: mbedtls_x509_crl_parse_der:end <- $r5
	@DEBUG_VALUE: mbedtls_x509_crl_parse_der:crl <- $r4
	@DEBUG_VALUE: mbedtls_x509_crl_parse_der:ret <- $r0
	@DEBUG_VALUE: mbedtls_x509_crl_parse_der:p <- [DW_OP_plus_uconst 52, DW_OP_deref] $sp
	@DEBUG_VALUE: mbedtls_x509_crl_parse_der:buf <- [DW_OP_LLVM_entry_value 1] $r1
	@DEBUG_VALUE: mbedtls_x509_crl_parse_der:buflen <- [DW_OP_LLVM_entry_value 1] $r2
	.loc	4 0 0                           @ ../../../ThirdParty/mbedTLS/library/x509_crl.c:0:0
	mov	r6, r0
.Ltmp124:
	@DEBUG_VALUE: mbedtls_x509_crl_parse_der:ret <- $r6
	.loc	4 506 9 is_stmt 1               @ ../../../ThirdParty/mbedTLS/library/x509_crl.c:506:9
	mov	r0, r4
	bl	mbedtls_x509_crl_free
	.loc	4 507 9                         @ ../../../ThirdParty/mbedTLS/library/x509_crl.c:507:9
	b	.LBB0_21
.Ltmp125:
.LBB0_45:
	@DEBUG_VALUE: mbedtls_x509_crl_parse_der:end <- $r5
	@DEBUG_VALUE: mbedtls_x509_crl_parse_der:crl <- $r4
	@DEBUG_VALUE: mbedtls_x509_crl_parse_der:ret <- $r0
	@DEBUG_VALUE: mbedtls_x509_crl_parse_der:p <- [DW_OP_plus_uconst 52, DW_OP_deref] $sp
	@DEBUG_VALUE: mbedtls_x509_crl_parse_der:buf <- [DW_OP_LLVM_entry_value 1] $r1
	@DEBUG_VALUE: mbedtls_x509_crl_parse_der:buflen <- [DW_OP_LLVM_entry_value 1] $r2
	.loc	4 510 22                        @ ../../../ThirdParty/mbedTLS/library/x509_crl.c:510:22
	ldr	r2, [r4, #32]
	.loc	4 510 38 is_stmt 0              @ ../../../ThirdParty/mbedTLS/library/x509_crl.c:510:38
	ldr	r0, [sp, #20]
.Ltmp126:
	.loc	4 510 42                        @ ../../../ThirdParty/mbedTLS/library/x509_crl.c:510:42
	cmp	r2, r0
	bne	.LBB0_50
.Ltmp127:
@ %bb.46:
	@DEBUG_VALUE: mbedtls_x509_crl_parse_der:end <- $r5
	@DEBUG_VALUE: mbedtls_x509_crl_parse_der:crl <- $r4
	@DEBUG_VALUE: mbedtls_x509_crl_parse_der:p <- [DW_OP_plus_uconst 52, DW_OP_deref] $sp
	@DEBUG_VALUE: mbedtls_x509_crl_parse_der:buf <- [DW_OP_LLVM_entry_value 1] $r1
	@DEBUG_VALUE: mbedtls_x509_crl_parse_der:buflen <- [DW_OP_LLVM_entry_value 1] $r2
	.loc	4 511 34 is_stmt 1              @ ../../../ThirdParty/mbedTLS/library/x509_crl.c:511:34
	ldr	r0, [r4, #36]
	.loc	4 511 46 is_stmt 0              @ ../../../ThirdParty/mbedTLS/library/x509_crl.c:511:46
	ldr	r1, [sp, #24]
	.loc	4 511 13                        @ ../../../ThirdParty/mbedTLS/library/x509_crl.c:511:13
	bl	memcmp
	.loc	4 511 73                        @ ../../../ThirdParty/mbedTLS/library/x509_crl.c:511:73
	cbnz	r0, .LBB0_50
.Ltmp128:
@ %bb.47:
	@DEBUG_VALUE: mbedtls_x509_crl_parse_der:end <- $r5
	@DEBUG_VALUE: mbedtls_x509_crl_parse_der:crl <- $r4
	@DEBUG_VALUE: mbedtls_x509_crl_parse_der:p <- [DW_OP_plus_uconst 52, DW_OP_deref] $sp
	@DEBUG_VALUE: mbedtls_x509_crl_parse_der:buf <- [DW_OP_LLVM_entry_value 1] $r1
	@DEBUG_VALUE: mbedtls_x509_crl_parse_der:buflen <- [DW_OP_LLVM_entry_value 1] $r2
	.loc	4 512 25 is_stmt 1              @ ../../../ThirdParty/mbedTLS/library/x509_crl.c:512:25
	ldr	r2, [sp, #44]
	.loc	4 512 44 is_stmt 0              @ ../../../ThirdParty/mbedTLS/library/x509_crl.c:512:44
	ldr	r0, [sp, #32]
	.loc	4 512 48                        @ ../../../ThirdParty/mbedTLS/library/x509_crl.c:512:48
	cmp	r2, r0
	bne	.LBB0_50
.Ltmp129:
@ %bb.48:
	@DEBUG_VALUE: mbedtls_x509_crl_parse_der:end <- $r5
	@DEBUG_VALUE: mbedtls_x509_crl_parse_der:crl <- $r4
	@DEBUG_VALUE: mbedtls_x509_crl_parse_der:p <- [DW_OP_plus_uconst 52, DW_OP_deref] $sp
	@DEBUG_VALUE: mbedtls_x509_crl_parse_der:buf <- [DW_OP_LLVM_entry_value 1] $r1
	@DEBUG_VALUE: mbedtls_x509_crl_parse_der:buflen <- [DW_OP_LLVM_entry_value 1] $r2
	.loc	4 513 36 is_stmt 1              @ ../../../ThirdParty/mbedTLS/library/x509_crl.c:513:36
	cbz	r2, .LBB0_51
.Ltmp130:
@ %bb.49:
	@DEBUG_VALUE: mbedtls_x509_crl_parse_der:end <- $r5
	@DEBUG_VALUE: mbedtls_x509_crl_parse_der:crl <- $r4
	@DEBUG_VALUE: mbedtls_x509_crl_parse_der:p <- [DW_OP_plus_uconst 52, DW_OP_deref] $sp
	@DEBUG_VALUE: mbedtls_x509_crl_parse_der:buf <- [DW_OP_LLVM_entry_value 1] $r1
	@DEBUG_VALUE: mbedtls_x509_crl_parse_der:buflen <- [DW_OP_LLVM_entry_value 1] $r2
	.loc	4 514 50                        @ ../../../ThirdParty/mbedTLS/library/x509_crl.c:514:50
	ldr	r1, [sp, #36]
	.loc	4 514 35 is_stmt 0              @ ../../../ThirdParty/mbedTLS/library/x509_crl.c:514:35
	ldr	r0, [sp, #48]
	.loc	4 514 15                        @ ../../../ThirdParty/mbedTLS/library/x509_crl.c:514:15
	bl	memcmp
.Ltmp131:
	.loc	4 510 9 is_stmt 1               @ ../../../ThirdParty/mbedTLS/library/x509_crl.c:510:9
	cbz	r0, .LBB0_51
.Ltmp132:
.LBB0_50:
	@DEBUG_VALUE: mbedtls_x509_crl_parse_der:end <- $r5
	@DEBUG_VALUE: mbedtls_x509_crl_parse_der:crl <- $r4
	@DEBUG_VALUE: mbedtls_x509_crl_parse_der:p <- [DW_OP_plus_uconst 52, DW_OP_deref] $sp
	@DEBUG_VALUE: mbedtls_x509_crl_parse_der:buf <- [DW_OP_LLVM_entry_value 1] $r1
	@DEBUG_VALUE: mbedtls_x509_crl_parse_der:buflen <- [DW_OP_LLVM_entry_value 1] $r2
	.loc	4 516 9                         @ ../../../ThirdParty/mbedTLS/library/x509_crl.c:516:9
	mov	r0, r4
	bl	mbedtls_x509_crl_free
	ldr	r6, __arm_cp.0_2
	.loc	4 517 9                         @ ../../../ThirdParty/mbedTLS/library/x509_crl.c:517:9
	b	.LBB0_21
.Ltmp133:
.LBB0_51:
	@DEBUG_VALUE: mbedtls_x509_crl_parse_der:end <- $r5
	@DEBUG_VALUE: mbedtls_x509_crl_parse_der:crl <- $r4
	@DEBUG_VALUE: mbedtls_x509_crl_parse_der:p <- [DW_OP_plus_uconst 52, DW_OP_deref] $sp
	@DEBUG_VALUE: mbedtls_x509_crl_parse_der:buf <- [DW_OP_LLVM_entry_value 1] $r1
	@DEBUG_VALUE: mbedtls_x509_crl_parse_der:buflen <- [DW_OP_LLVM_entry_value 1] $r2
	@DEBUG_VALUE: mbedtls_x509_crl_parse_der:p <- [DW_OP_plus_uconst 52, DW_OP_deref] $sp
	.loc	4 520 54                        @ ../../../ThirdParty/mbedTLS/library/x509_crl.c:520:54
	mov	r2, r4
	adds	r2, #220
	add	r0, sp, #52
	.loc	4 520 17 is_stmt 0              @ ../../../ThirdParty/mbedTLS/library/x509_crl.c:520:17
	mov	r1, r5
	bl	mbedtls_x509_get_sig
.Ltmp134:
	@DEBUG_VALUE: mbedtls_x509_crl_parse_der:ret <- $r0
	.loc	4 520 9                         @ ../../../ThirdParty/mbedTLS/library/x509_crl.c:520:9
	cbz	r0, .LBB0_53
.Ltmp135:
@ %bb.52:
	@DEBUG_VALUE: mbedtls_x509_crl_parse_der:end <- $r5
	@DEBUG_VALUE: mbedtls_x509_crl_parse_der:crl <- $r4
	@DEBUG_VALUE: mbedtls_x509_crl_parse_der:ret <- $r0
	@DEBUG_VALUE: mbedtls_x509_crl_parse_der:p <- [DW_OP_plus_uconst 52, DW_OP_deref] $sp
	@DEBUG_VALUE: mbedtls_x509_crl_parse_der:buf <- [DW_OP_LLVM_entry_value 1] $r1
	@DEBUG_VALUE: mbedtls_x509_crl_parse_der:buflen <- [DW_OP_LLVM_entry_value 1] $r2
	.loc	4 0 0                           @ ../../../ThirdParty/mbedTLS/library/x509_crl.c:0:0
	mov	r6, r0
.Ltmp136:
	@DEBUG_VALUE: mbedtls_x509_crl_parse_der:ret <- $r6
	.loc	4 522 9 is_stmt 1               @ ../../../ThirdParty/mbedTLS/library/x509_crl.c:522:9
	mov	r0, r4
	bl	mbedtls_x509_crl_free
	.loc	4 523 9                         @ ../../../ThirdParty/mbedTLS/library/x509_crl.c:523:9
	b	.LBB0_21
.Ltmp137:
.LBB0_53:
	@DEBUG_VALUE: mbedtls_x509_crl_parse_der:end <- $r5
	@DEBUG_VALUE: mbedtls_x509_crl_parse_der:crl <- $r4
	@DEBUG_VALUE: mbedtls_x509_crl_parse_der:ret <- $r0
	@DEBUG_VALUE: mbedtls_x509_crl_parse_der:p <- [DW_OP_plus_uconst 52, DW_OP_deref] $sp
	@DEBUG_VALUE: mbedtls_x509_crl_parse_der:buf <- [DW_OP_LLVM_entry_value 1] $r1
	@DEBUG_VALUE: mbedtls_x509_crl_parse_der:buflen <- [DW_OP_LLVM_entry_value 1] $r2
	.loc	4 526 9                         @ ../../../ThirdParty/mbedTLS/library/x509_crl.c:526:9
	ldr	r0, [sp, #52]
.Ltmp138:
	@DEBUG_VALUE: mbedtls_x509_crl_parse_der:p <- $r0
	.loc	4 526 9 is_stmt 0               @ ../../../ThirdParty/mbedTLS/library/x509_crl.c:526:9
	cmp	r0, r5
	.loc	4 0 0                           @ ../../../ThirdParty/mbedTLS/library/x509_crl.c:0:0
	ldr	r6, [sp, #12]                   @ 4-byte Reload
	bne	.LBB0_54
	b	.LBB0_21
.Ltmp139:
.LBB0_54:
	@DEBUG_VALUE: mbedtls_x509_crl_parse_der:end <- $r5
	@DEBUG_VALUE: mbedtls_x509_crl_parse_der:crl <- $r4
	@DEBUG_VALUE: mbedtls_x509_crl_parse_der:p <- $r0
	@DEBUG_VALUE: mbedtls_x509_crl_parse_der:buf <- [DW_OP_LLVM_entry_value 1] $r1
	@DEBUG_VALUE: mbedtls_x509_crl_parse_der:buflen <- [DW_OP_LLVM_entry_value 1] $r2
	.loc	4 528 9 is_stmt 1               @ ../../../ThirdParty/mbedTLS/library/x509_crl.c:528:9
	mov	r0, r4
.Ltmp140:
	bl	mbedtls_x509_crl_free
	ldr	r6, __arm_cp.0_1
.Ltmp141:
	.loc	4 0 0 is_stmt 0                 @ ../../../ThirdParty/mbedTLS/library/x509_crl.c:0:0
	subs	r6, #102
	b	.LBB0_21
.Ltmp142:
	.p2align	2
@ %bb.55:
__arm_cp.0_0:
	.long	4294956928                      @ 0xffffd780
.Lcpi_end0:
	.size	__arm_cp.0_0, .Lcpi_end0-__arm_cp.0_0
__arm_cp.0_1:
	.long	4294958720                      @ 0xffffde80
.Lcpi_end1:
	.size	__arm_cp.0_1, .Lcpi_end1-__arm_cp.0_1
__arm_cp.0_2:
	.long	4294957440                      @ 0xffffd980
.Lcpi_end2:
	.size	__arm_cp.0_2, .Lcpi_end2-__arm_cp.0_2
__arm_cp.0_3:
	.long	4294957982                      @ 0xffffdb9e
.Lcpi_end3:
	.size	__arm_cp.0_3, .Lcpi_end3-__arm_cp.0_3
__arm_cp.0_4:
	.long	4294957984                      @ 0xffffdba0
.Lcpi_end4:
	.size	__arm_cp.0_4, .Lcpi_end4-__arm_cp.0_4
__arm_cp.0_5:
	.long	4294957696                      @ 0xffffda80
.Lcpi_end5:
	.size	__arm_cp.0_5, .Lcpi_end5-__arm_cp.0_5
.Lfunc_end0:
	.size	mbedtls_x509_crl_parse_der, .Lfunc_end0-mbedtls_x509_crl_parse_der
	.cfi_endproc
	.cantunwind
	.fnend
                                        @ -- End function
	.section	.text.mbedtls_x509_crl_free,"ax",%progbits
	.hidden	mbedtls_x509_crl_free           @ -- Begin function mbedtls_x509_crl_free
	.globl	mbedtls_x509_crl_free
	.p2align	1
	.type	mbedtls_x509_crl_free,%function
	.code	16                              @ @mbedtls_x509_crl_free
	.thumb_func
mbedtls_x509_crl_free:
.Lfunc_begin1:
	.loc	4 714 0 is_stmt 1               @ ../../../ThirdParty/mbedTLS/library/x509_crl.c:714:0
	.fnstart
	.cfi_startproc
@ %bb.0:
	@DEBUG_VALUE: mbedtls_x509_crl_free:crl <- $r0
	.save	{r4, r5, r6, r7, lr}
	push	{r4, r5, r6, r7, lr}
	.cfi_def_cfa_offset 20
	.cfi_offset lr, -4
	.cfi_offset r7, -8
	.cfi_offset r6, -12
	.cfi_offset r5, -16
	.cfi_offset r4, -20
	.pad	#20
	sub	sp, #20
	.cfi_def_cfa_offset 40
.Ltmp143:
	@DEBUG_VALUE: mbedtls_x509_crl_free:crl_cur <- $r0
	str	r0, [sp, #8]                    @ 4-byte Spill
.Ltmp144:
	@DEBUG_VALUE: mbedtls_x509_crl_free:crl_cur <- [DW_OP_plus_uconst 8] [$sp+0]
	@DEBUG_VALUE: mbedtls_x509_crl_free:crl <- [DW_OP_plus_uconst 8] [$sp+0]
	.loc	4 722 9 prologue_end            @ ../../../ThirdParty/mbedTLS/library/x509_crl.c:722:9
	cmp	r0, #0
	beq	.LBB1_13
.Ltmp145:
@ %bb.1:
	@DEBUG_VALUE: mbedtls_x509_crl_free:crl <- [DW_OP_plus_uconst 8] [$sp+0]
	@DEBUG_VALUE: mbedtls_x509_crl_free:crl_cur <- [DW_OP_plus_uconst 8] [$sp+0]
	.loc	4 0 9 is_stmt 0                 @ ../../../ThirdParty/mbedTLS/library/x509_crl.c:0:9
	movs	r0, #236
	str	r0, [sp, #4]                    @ 4-byte Spill
	movs	r5, #64
	movs	r6, #32
	ldr	r4, [sp, #8]                    @ 4-byte Reload
	b	.LBB1_3
.Ltmp146:
.LBB1_2:                                @   in Loop: Header=BB1_3 Depth=1
	@DEBUG_VALUE: mbedtls_x509_crl_free:entry_cur <- $r7
	@DEBUG_VALUE: mbedtls_x509_crl_free:crl_cur <- [DW_OP_plus_uconst 12] [$sp+0]
	@DEBUG_VALUE: mbedtls_x509_crl_free:crl <- [DW_OP_plus_uconst 8] [$sp+0]
	.loc	4 756 28 is_stmt 1              @ ../../../ThirdParty/mbedTLS/library/x509_crl.c:756:28
	ldr	r0, [sp, #16]                   @ 4-byte Reload
	ldr	r4, [r0, #48]
.Ltmp147:
	@DEBUG_VALUE: mbedtls_x509_crl_free:crl_cur <- $r4
	.loc	4 757 5                         @ ../../../ThirdParty/mbedTLS/library/x509_crl.c:757:5
	cbz	r4, .LBB1_9
.Ltmp148:
.LBB1_3:                                @ =>This Loop Header: Depth=1
                                        @     Child Loop BB1_4 Depth 2
                                        @     Child Loop BB1_6 Depth 2
	@DEBUG_VALUE: mbedtls_x509_crl_free:crl <- [DW_OP_plus_uconst 8] [$sp+0]
	@DEBUG_VALUE: mbedtls_x509_crl_free:crl_cur <- $r4
	.loc	4 728 32                        @ ../../../ThirdParty/mbedTLS/library/x509_crl.c:728:32
	ldr	r0, [sp, #4]                    @ 4-byte Reload
	ldr	r0, [r4, r0]
	.loc	4 728 9 is_stmt 0               @ ../../../ThirdParty/mbedTLS/library/x509_crl.c:728:9
	bl	free
.Ltmp149:
	.loc	4 0 0                           @ ../../../ThirdParty/mbedTLS/library/x509_crl.c:0:0
	mov	r0, r4
	adds	r0, #192
	str	r0, [sp, #16]                   @ 4-byte Spill
	str	r4, [sp, #12]                   @ 4-byte Spill
.Ltmp150:
	@DEBUG_VALUE: mbedtls_x509_crl_free:crl_cur <- [DW_OP_plus_uconst 12] [$sp+0]
	.loc	4 731 36 is_stmt 1              @ ../../../ThirdParty/mbedTLS/library/x509_crl.c:731:36
	ldr	r7, [r4, #76]
.Ltmp151:
	@DEBUG_VALUE: mbedtls_x509_crl_free:name_cur <- $r7
	.loc	4 732 9                         @ ../../../ThirdParty/mbedTLS/library/x509_crl.c:732:9
	cbz	r7, .LBB1_5
.Ltmp152:
.LBB1_4:                                @   Parent Loop BB1_3 Depth=1
                                        @ =>  This Inner Loop Header: Depth=2
	@DEBUG_VALUE: mbedtls_x509_crl_free:name_cur <- $r7
	@DEBUG_VALUE: mbedtls_x509_crl_free:crl_cur <- [DW_OP_plus_uconst 12] [$sp+0]
	@DEBUG_VALUE: mbedtls_x509_crl_free:crl <- [DW_OP_plus_uconst 8] [$sp+0]
	@DEBUG_VALUE: mbedtls_x509_crl_free:name_cur <- $r7
	@DEBUG_VALUE: mbedtls_x509_crl_free:name_prv <- $r7
	.loc	4 735 34                        @ ../../../ThirdParty/mbedTLS/library/x509_crl.c:735:34
	ldr	r4, [r7, #24]
.Ltmp153:
	@DEBUG_VALUE: mbedtls_x509_crl_free:name_cur <- $r4
	.loc	4 736 13                        @ ../../../ThirdParty/mbedTLS/library/x509_crl.c:736:13
	mov	r0, r7
	mov	r1, r6
	bl	mbedtls_platform_zeroize
	.loc	4 737 13                        @ ../../../ThirdParty/mbedTLS/library/x509_crl.c:737:13
	mov	r0, r7
	bl	free
.Ltmp154:
	.loc	4 732 9                         @ ../../../ThirdParty/mbedTLS/library/x509_crl.c:732:9
	cmp	r4, #0
	mov	r7, r4
.Ltmp155:
	@DEBUG_VALUE: mbedtls_x509_crl_free:name_cur <- $r7
	@DEBUG_VALUE: mbedtls_x509_crl_free:name_cur <- $r7
	bne	.LBB1_4
.Ltmp156:
.LBB1_5:                                @   in Loop: Header=BB1_3 Depth=1
	@DEBUG_VALUE: mbedtls_x509_crl_free:name_cur <- $r7
	@DEBUG_VALUE: mbedtls_x509_crl_free:crl_cur <- [DW_OP_plus_uconst 12] [$sp+0]
	@DEBUG_VALUE: mbedtls_x509_crl_free:crl <- [DW_OP_plus_uconst 8] [$sp+0]
	.loc	4 740 36                        @ ../../../ThirdParty/mbedTLS/library/x509_crl.c:740:36
	ldr	r0, [sp, #16]                   @ 4-byte Reload
	ldr	r7, [r0]
.Ltmp157:
	@DEBUG_VALUE: mbedtls_x509_crl_free:entry_cur <- $r7
	.loc	4 741 9                         @ ../../../ThirdParty/mbedTLS/library/x509_crl.c:741:9
	cbz	r7, .LBB1_7
.Ltmp158:
.LBB1_6:                                @   Parent Loop BB1_3 Depth=1
                                        @ =>  This Inner Loop Header: Depth=2
	@DEBUG_VALUE: mbedtls_x509_crl_free:entry_cur <- $r7
	@DEBUG_VALUE: mbedtls_x509_crl_free:crl_cur <- [DW_OP_plus_uconst 12] [$sp+0]
	@DEBUG_VALUE: mbedtls_x509_crl_free:crl <- [DW_OP_plus_uconst 8] [$sp+0]
	@DEBUG_VALUE: mbedtls_x509_crl_free:entry_cur <- $r7
	@DEBUG_VALUE: mbedtls_x509_crl_free:entry_prv <- $r7
	.loc	4 744 36                        @ ../../../ThirdParty/mbedTLS/library/x509_crl.c:744:36
	ldr	r4, [r7, #60]
.Ltmp159:
	@DEBUG_VALUE: mbedtls_x509_crl_free:entry_cur <- $r4
	.loc	4 745 13                        @ ../../../ThirdParty/mbedTLS/library/x509_crl.c:745:13
	mov	r0, r7
	mov	r1, r5
	bl	mbedtls_platform_zeroize
	.loc	4 747 13                        @ ../../../ThirdParty/mbedTLS/library/x509_crl.c:747:13
	mov	r0, r7
	bl	free
.Ltmp160:
	.loc	4 741 9                         @ ../../../ThirdParty/mbedTLS/library/x509_crl.c:741:9
	cmp	r4, #0
	mov	r7, r4
.Ltmp161:
	@DEBUG_VALUE: mbedtls_x509_crl_free:entry_cur <- $r7
	@DEBUG_VALUE: mbedtls_x509_crl_free:entry_cur <- $r7
	bne	.LBB1_6
.Ltmp162:
.LBB1_7:                                @   in Loop: Header=BB1_3 Depth=1
	@DEBUG_VALUE: mbedtls_x509_crl_free:entry_cur <- $r7
	@DEBUG_VALUE: mbedtls_x509_crl_free:crl_cur <- [DW_OP_plus_uconst 12] [$sp+0]
	@DEBUG_VALUE: mbedtls_x509_crl_free:crl <- [DW_OP_plus_uconst 8] [$sp+0]
	.loc	4 0 9 is_stmt 0                 @ ../../../ThirdParty/mbedTLS/library/x509_crl.c:0:9
	ldr	r4, [sp, #12]                   @ 4-byte Reload
.Ltmp163:
	.loc	4 750 26 is_stmt 1              @ ../../../ThirdParty/mbedTLS/library/x509_crl.c:750:26
	ldr	r0, [r4, #8]
.Ltmp164:
	.loc	4 750 13 is_stmt 0              @ ../../../ThirdParty/mbedTLS/library/x509_crl.c:750:13
	cmp	r0, #0
	beq	.LBB1_2
.Ltmp165:
@ %bb.8:                                @   in Loop: Header=BB1_3 Depth=1
	@DEBUG_VALUE: mbedtls_x509_crl_free:entry_cur <- $r7
	@DEBUG_VALUE: mbedtls_x509_crl_free:crl_cur <- [DW_OP_plus_uconst 12] [$sp+0]
	@DEBUG_VALUE: mbedtls_x509_crl_free:crl <- [DW_OP_plus_uconst 8] [$sp+0]
	.loc	4 752 68 is_stmt 1              @ ../../../ThirdParty/mbedTLS/library/x509_crl.c:752:68
	ldr	r1, [r4, #4]
	.loc	4 752 13 is_stmt 0              @ ../../../ThirdParty/mbedTLS/library/x509_crl.c:752:13
	bl	mbedtls_platform_zeroize
	.loc	4 753 40 is_stmt 1              @ ../../../ThirdParty/mbedTLS/library/x509_crl.c:753:40
	ldr	r0, [r4, #8]
	.loc	4 753 13 is_stmt 0              @ ../../../ThirdParty/mbedTLS/library/x509_crl.c:753:13
	bl	free
	b	.LBB1_2
.Ltmp166:
.LBB1_9:
	@DEBUG_VALUE: mbedtls_x509_crl_free:entry_cur <- $r7
	@DEBUG_VALUE: mbedtls_x509_crl_free:crl_cur <- $r4
	@DEBUG_VALUE: mbedtls_x509_crl_free:crl <- [DW_OP_plus_uconst 8] [$sp+0]
	.loc	4 0 13                          @ ../../../ThirdParty/mbedTLS/library/x509_crl.c:0:13
	movs	r4, #240
.Ltmp167:
	movs	r5, #244
	ldr	r6, [sp, #8]                    @ 4-byte Reload
	b	.LBB1_11
.Ltmp168:
.LBB1_10:                               @   in Loop: Header=BB1_11 Depth=1
	@DEBUG_VALUE: mbedtls_x509_crl_free:crl_cur <- $r7
	@DEBUG_VALUE: mbedtls_x509_crl_free:crl_prv <- $r6
	@DEBUG_VALUE: mbedtls_x509_crl_free:crl <- [DW_OP_plus_uconst 8] [$sp+0]
	mov	r6, r7
.Ltmp169:
	@DEBUG_VALUE: mbedtls_x509_crl_free:crl_cur <- $r6
	.loc	4 769 5 is_stmt 1               @ ../../../ThirdParty/mbedTLS/library/x509_crl.c:769:5
	cbz	r7, .LBB1_13
.Ltmp170:
.LBB1_11:                               @ =>This Inner Loop Header: Depth=1
	@DEBUG_VALUE: mbedtls_x509_crl_free:crl <- [DW_OP_plus_uconst 8] [$sp+0]
	@DEBUG_VALUE: mbedtls_x509_crl_free:crl_cur <- $r6
	@DEBUG_VALUE: mbedtls_x509_crl_free:crl_prv <- $r6
	.loc	4 764 28                        @ ../../../ThirdParty/mbedTLS/library/x509_crl.c:764:28
	ldr	r7, [r6, r4]
.Ltmp171:
	@DEBUG_VALUE: mbedtls_x509_crl_free:crl_cur <- $r7
	.loc	4 766 9                         @ ../../../ThirdParty/mbedTLS/library/x509_crl.c:766:9
	mov	r0, r6
	mov	r1, r5
	bl	mbedtls_platform_zeroize
	.loc	4 767 13                        @ ../../../ThirdParty/mbedTLS/library/x509_crl.c:767:13
	ldr	r0, [sp, #8]                    @ 4-byte Reload
	cmp	r6, r0
	beq	.LBB1_10
.Ltmp172:
@ %bb.12:                               @   in Loop: Header=BB1_11 Depth=1
	@DEBUG_VALUE: mbedtls_x509_crl_free:crl_cur <- $r7
	@DEBUG_VALUE: mbedtls_x509_crl_free:crl_prv <- $r6
	@DEBUG_VALUE: mbedtls_x509_crl_free:crl <- [DW_OP_plus_uconst 8] [$sp+0]
	.loc	4 768 13                        @ ../../../ThirdParty/mbedTLS/library/x509_crl.c:768:13
	mov	r0, r6
	bl	free
	b	.LBB1_10
.Ltmp173:
.LBB1_13:
	@DEBUG_VALUE: mbedtls_x509_crl_free:crl <- [DW_OP_plus_uconst 8] [$sp+0]
	.loc	4 771 1                         @ ../../../ThirdParty/mbedTLS/library/x509_crl.c:771:1
	add	sp, #20
.Ltmp174:
	pop	{r4, r5, r6, r7, pc}
.Ltmp175:
.Lfunc_end1:
	.size	mbedtls_x509_crl_free, .Lfunc_end1-mbedtls_x509_crl_free
	.cfi_endproc
	.cantunwind
	.fnend
                                        @ -- End function
	.section	.text.mbedtls_x509_crl_init,"ax",%progbits
	.hidden	mbedtls_x509_crl_init           @ -- Begin function mbedtls_x509_crl_init
	.globl	mbedtls_x509_crl_init
	.p2align	1
	.type	mbedtls_x509_crl_init,%function
	.code	16                              @ @mbedtls_x509_crl_init
	.thumb_func
mbedtls_x509_crl_init:
.Lfunc_begin2:
	.loc	4 706 0                         @ ../../../ThirdParty/mbedTLS/library/x509_crl.c:706:0
	.fnstart
	.cfi_startproc
@ %bb.0:
	@DEBUG_VALUE: mbedtls_x509_crl_init:crl <- $r0
	@DEBUG_VALUE: mbedtls_x509_crl_init:crl <- $r0
	.save	{r7, lr}
	push	{r7, lr}
	.cfi_def_cfa_offset 8
	.cfi_offset lr, -4
	.cfi_offset r7, -8
	movs	r1, #244
	@DEBUG_VALUE: mbedtls_x509_crl_init:crl <- $r0
.Ltmp176:
	.loc	4 707 5 prologue_end            @ ../../../ThirdParty/mbedTLS/library/x509_crl.c:707:5
	bl	__aeabi_memclr4
.Ltmp177:
	@DEBUG_VALUE: mbedtls_x509_crl_init:crl <- [DW_OP_LLVM_entry_value 1] $r0
	.loc	4 708 1                         @ ../../../ThirdParty/mbedTLS/library/x509_crl.c:708:1
	pop	{r7, pc}
.Ltmp178:
.Lfunc_end2:
	.size	mbedtls_x509_crl_init, .Lfunc_end2-mbedtls_x509_crl_init
	.cfi_endproc
	.cantunwind
	.fnend
                                        @ -- End function
	.section	.text.x509_crl_get_version,"ax",%progbits
	.p2align	1                               @ -- Begin function x509_crl_get_version
	.type	x509_crl_get_version,%function
	.code	16                              @ @x509_crl_get_version
	.thumb_func
x509_crl_get_version:
.Lfunc_begin3:
	.loc	4 76 0                          @ ../../../ThirdParty/mbedTLS/library/x509_crl.c:76:0
	.fnstart
	.cfi_startproc
@ %bb.0:
	@DEBUG_VALUE: x509_crl_get_version:p <- $r0
	@DEBUG_VALUE: x509_crl_get_version:end <- $r1
	@DEBUG_VALUE: x509_crl_get_version:ver <- $r2
	.save	{r4, lr}
	push	{r4, lr}
	.cfi_def_cfa_offset 8
	.cfi_offset lr, -4
	.cfi_offset r4, -8
	mov	r4, r2
.Ltmp179:
	@DEBUG_VALUE: x509_crl_get_version:ver <- $r4
	@DEBUG_VALUE: x509_crl_get_version:end <- $r1
	@DEBUG_VALUE: x509_crl_get_version:p <- $r0
	@DEBUG_VALUE: x509_crl_get_version:end <- $r1
	@DEBUG_VALUE: x509_crl_get_version:p <- $r0
	.loc	4 79 17 prologue_end            @ ../../../ThirdParty/mbedTLS/library/x509_crl.c:79:17
	bl	mbedtls_asn1_get_int
.Ltmp180:
	@DEBUG_VALUE: x509_crl_get_version:end <- [DW_OP_LLVM_entry_value 1] $r1
	@DEBUG_VALUE: x509_crl_get_version:p <- [DW_OP_LLVM_entry_value 1] $r0
	@DEBUG_VALUE: x509_crl_get_version:ret <- $r0
	.loc	4 79 9 is_stmt 0                @ ../../../ThirdParty/mbedTLS/library/x509_crl.c:79:9
	cbz	r0, .LBB3_4
.Ltmp181:
@ %bb.1:
	@DEBUG_VALUE: x509_crl_get_version:ver <- $r4
	@DEBUG_VALUE: x509_crl_get_version:ret <- $r0
	@DEBUG_VALUE: x509_crl_get_version:end <- [DW_OP_LLVM_entry_value 1] $r1
	@DEBUG_VALUE: x509_crl_get_version:p <- [DW_OP_LLVM_entry_value 1] $r0
	mov	r1, r0
	adds	r1, #98
	bne	.LBB3_3
.Ltmp182:
@ %bb.2:
	@DEBUG_VALUE: x509_crl_get_version:ver <- $r4
	@DEBUG_VALUE: x509_crl_get_version:ret <- $r0
	@DEBUG_VALUE: x509_crl_get_version:end <- [DW_OP_LLVM_entry_value 1] $r1
	@DEBUG_VALUE: x509_crl_get_version:p <- [DW_OP_LLVM_entry_value 1] $r0
	.loc	4 0 9                           @ ../../../ThirdParty/mbedTLS/library/x509_crl.c:0:9
	movs	r0, #0
.Ltmp183:
	.loc	4 83 18 is_stmt 1               @ ../../../ThirdParty/mbedTLS/library/x509_crl.c:83:18
	str	r0, [r4]
.Ltmp184:
	.loc	4 91 1                          @ ../../../ThirdParty/mbedTLS/library/x509_crl.c:91:1
	pop	{r4, pc}
.Ltmp185:
.LBB3_3:
	@DEBUG_VALUE: x509_crl_get_version:ver <- $r4
	@DEBUG_VALUE: x509_crl_get_version:ret <- $r0
	@DEBUG_VALUE: x509_crl_get_version:end <- [DW_OP_LLVM_entry_value 1] $r1
	@DEBUG_VALUE: x509_crl_get_version:p <- [DW_OP_LLVM_entry_value 1] $r0
	.loc	4 87 50                         @ ../../../ThirdParty/mbedTLS/library/x509_crl.c:87:50
	movw	r1, #8704
	subs	r0, r0, r1
.Ltmp186:
.LBB3_4:
	@DEBUG_VALUE: x509_crl_get_version:ver <- $r4
	@DEBUG_VALUE: x509_crl_get_version:end <- [DW_OP_LLVM_entry_value 1] $r1
	@DEBUG_VALUE: x509_crl_get_version:p <- [DW_OP_LLVM_entry_value 1] $r0
	.loc	4 91 1                          @ ../../../ThirdParty/mbedTLS/library/x509_crl.c:91:1
	pop	{r4, pc}
.Ltmp187:
.Lfunc_end3:
	.size	x509_crl_get_version, .Lfunc_end3-x509_crl_get_version
	.cfi_endproc
	.cantunwind
	.fnend
                                        @ -- End function
	.section	.text.x509_get_entries,"ax",%progbits
	.p2align	2                               @ -- Begin function x509_get_entries
	.type	x509_get_entries,%function
	.code	16                              @ @x509_get_entries
	.thumb_func
x509_get_entries:
.Lfunc_begin4:
	.loc	4 237 0                         @ ../../../ThirdParty/mbedTLS/library/x509_crl.c:237:0
	.fnstart
	.cfi_startproc
@ %bb.0:
	@DEBUG_VALUE: x509_get_entries:p <- $r0
	@DEBUG_VALUE: x509_get_entries:end <- $r1
	@DEBUG_VALUE: x509_get_entries:entry <- $r2
	.save	{r4, r5, r6, r7, lr}
	push	{r4, r5, r6, r7, lr}
	.cfi_def_cfa_offset 20
	.cfi_offset lr, -4
	.cfi_offset r7, -8
	.cfi_offset r6, -12
	.cfi_offset r5, -16
	.cfi_offset r4, -20
	.pad	#28
	sub	sp, #28
	.cfi_def_cfa_offset 48
	mov	r4, r0
.Ltmp188:
	@DEBUG_VALUE: x509_get_entries:cur_entry <- undef
	@DEBUG_VALUE: x509_get_entries:entry <- $r2
	@DEBUG_VALUE: x509_get_entries:end <- $r1
	@DEBUG_VALUE: x509_get_entries:p <- $r4
	.loc	4 242 9 prologue_end            @ ../../../ThirdParty/mbedTLS/library/x509_crl.c:242:9
	ldr	r0, [r0]
	movs	r7, #0
.Ltmp189:
	.loc	4 242 9 is_stmt 0               @ ../../../ThirdParty/mbedTLS/library/x509_crl.c:242:9
	cmp	r0, r1
	beq	.LBB4_16
.Ltmp190:
@ %bb.1:
	@DEBUG_VALUE: x509_get_entries:p <- $r4
	@DEBUG_VALUE: x509_get_entries:entry <- $r2
	@DEBUG_VALUE: x509_get_entries:end <- $r1
	@DEBUG_VALUE: x509_get_entries:entry_len <- [DW_OP_plus_uconst 24, DW_OP_deref] $sp
	.loc	4 0 9                           @ ../../../ThirdParty/mbedTLS/library/x509_crl.c:0:9
	str	r2, [sp, #4]                    @ 4-byte Spill
.Ltmp191:
	@DEBUG_VALUE: x509_get_entries:entry <- [DW_OP_plus_uconst 4] [$sp+0]
	add	r2, sp, #24
	movs	r3, #48
.Ltmp192:
	.loc	4 245 17 is_stmt 1              @ ../../../ThirdParty/mbedTLS/library/x509_crl.c:245:17
	mov	r0, r4
	bl	mbedtls_asn1_get_tag
.Ltmp193:
	@DEBUG_VALUE: x509_get_entries:end <- [DW_OP_LLVM_entry_value 1] $r1
	@DEBUG_VALUE: x509_get_entries:ret <- $r0
	.loc	4 245 9 is_stmt 0               @ ../../../ThirdParty/mbedTLS/library/x509_crl.c:245:9
	mov	r1, r0
	adds	r1, #98
	beq	.LBB4_16
.Ltmp194:
@ %bb.2:
	@DEBUG_VALUE: x509_get_entries:entry <- [DW_OP_plus_uconst 4] [$sp+0]
	@DEBUG_VALUE: x509_get_entries:p <- $r4
	@DEBUG_VALUE: x509_get_entries:ret <- $r0
	@DEBUG_VALUE: x509_get_entries:entry_len <- [DW_OP_plus_uconst 24, DW_OP_deref] $sp
	@DEBUG_VALUE: x509_get_entries:end <- [DW_OP_LLVM_entry_value 1] $r1
	cmp	r0, #0
	.loc	4 0 0                           @ ../../../ThirdParty/mbedTLS/library/x509_crl.c:0:0
	mov	r7, r0
.Ltmp195:
	@DEBUG_VALUE: x509_get_entries:ret <- $r7
	.loc	4 245 9                         @ ../../../ThirdParty/mbedTLS/library/x509_crl.c:245:9
	bne	.LBB4_16
.Ltmp196:
@ %bb.3:
	@DEBUG_VALUE: x509_get_entries:entry <- [DW_OP_plus_uconst 4] [$sp+0]
	@DEBUG_VALUE: x509_get_entries:ret <- $r7
	@DEBUG_VALUE: x509_get_entries:p <- $r4
	@DEBUG_VALUE: x509_get_entries:entry_len <- [DW_OP_plus_uconst 24, DW_OP_deref] $sp
	@DEBUG_VALUE: x509_get_entries:end <- [DW_OP_LLVM_entry_value 1] $r1
	.loc	4 254 11 is_stmt 1              @ ../../../ThirdParty/mbedTLS/library/x509_crl.c:254:11
	ldr	r0, [r4]
	.loc	4 254 16 is_stmt 0              @ ../../../ThirdParty/mbedTLS/library/x509_crl.c:254:16
	ldr	r1, [sp, #24]
.Ltmp197:
	@DEBUG_VALUE: x509_get_entries:entry_len <- $r1
	.loc	4 254 14                        @ ../../../ThirdParty/mbedTLS/library/x509_crl.c:254:14
	adds	r3, r0, r1
.Ltmp198:
	@DEBUG_VALUE: x509_get_entries:end <- $r3
	.loc	4 0 14                          @ ../../../ThirdParty/mbedTLS/library/x509_crl.c:0:14
	movs	r0, #0
	str	r0, [sp, #16]                   @ 4-byte Spill
	movs	r0, #48
	str	r0, [sp, #8]                    @ 4-byte Spill
                                        @ implicit-def: $r7
	str	r3, [sp, #12]                   @ 4-byte Spill
.Ltmp199:
.LBB4_4:                                @ =>This Inner Loop Header: Depth=1
	@DEBUG_VALUE: x509_get_entries:p <- $r4
	@DEBUG_VALUE: x509_get_entries:cur_entry <- [DW_OP_plus_uconst 4] [$sp+0]
	.loc	4 256 12 is_stmt 1              @ ../../../ThirdParty/mbedTLS/library/x509_crl.c:256:12
	ldr	r0, [r4]
	.loc	4 256 5 is_stmt 0               @ ../../../ThirdParty/mbedTLS/library/x509_crl.c:256:5
	cmp	r0, r3
	bhs	.LBB4_15
.Ltmp200:
@ %bb.5:                                @   in Loop: Header=BB4_4 Depth=1
	@DEBUG_VALUE: x509_get_entries:p <- $r4
	@DEBUG_VALUE: x509_get_entries:cur_entry <- [DW_OP_plus_uconst 4] [$sp+0]
	.loc	4 0 5                           @ ../../../ThirdParty/mbedTLS/library/x509_crl.c:0:5
	mov	r6, r7
.Ltmp201:
	@DEBUG_VALUE: x509_get_entries:ret <- $r6
	@DEBUG_VALUE: len2 <- [DW_OP_plus_uconst 20, DW_OP_deref] $sp
	add	r2, sp, #20
.Ltmp202:
	.loc	4 261 21 is_stmt 1              @ ../../../ThirdParty/mbedTLS/library/x509_crl.c:261:21
	mov	r0, r4
	mov	r1, r3
	ldr	r3, [sp, #8]                    @ 4-byte Reload
	bl	mbedtls_asn1_get_tag
.Ltmp203:
	@DEBUG_VALUE: x509_get_entries:ret <- $r0
	.loc	4 261 13 is_stmt 0              @ ../../../ThirdParty/mbedTLS/library/x509_crl.c:261:13
	cbnz	r0, .LBB4_9
.Ltmp204:
@ %bb.6:                                @   in Loop: Header=BB4_4 Depth=1
	@DEBUG_VALUE: x509_get_entries:p <- $r4
	@DEBUG_VALUE: x509_get_entries:ret <- $r0
	@DEBUG_VALUE: len2 <- [DW_OP_plus_uconst 20, DW_OP_deref] $sp
	@DEBUG_VALUE: x509_get_entries:cur_entry <- [DW_OP_plus_uconst 4] [$sp+0]
	.loc	4 267 31 is_stmt 1              @ ../../../ThirdParty/mbedTLS/library/x509_crl.c:267:31
	ldr	r0, [r4]
.Ltmp205:
	.loc	4 267 30 is_stmt 0              @ ../../../ThirdParty/mbedTLS/library/x509_crl.c:267:30
	ldrb	r1, [r0]
	ldr	r5, [sp, #4]                    @ 4-byte Reload
.Ltmp206:
	@DEBUG_VALUE: x509_get_entries:entry <- $r5
	.loc	4 267 28                        @ ../../../ThirdParty/mbedTLS/library/x509_crl.c:267:28
	str	r1, [r5]
	.loc	4 268 26 is_stmt 1              @ ../../../ThirdParty/mbedTLS/library/x509_crl.c:268:26
	str	r0, [r5, #8]
	.loc	4 269 30                        @ ../../../ThirdParty/mbedTLS/library/x509_crl.c:269:30
	ldr	r0, [sp, #20]
.Ltmp207:
	@DEBUG_VALUE: len2 <- $r0
	.loc	4 269 28 is_stmt 0              @ ../../../ThirdParty/mbedTLS/library/x509_crl.c:269:28
	str	r0, [r5, #4]
	.loc	4 270 16 is_stmt 1              @ ../../../ThirdParty/mbedTLS/library/x509_crl.c:270:16
	ldr	r1, [r4]
	.loc	4 270 19 is_stmt 0              @ ../../../ThirdParty/mbedTLS/library/x509_crl.c:270:19
	adds	r1, r1, r0
.Ltmp208:
	@DEBUG_VALUE: end2 <- $r1
	.loc	4 272 67 is_stmt 1              @ ../../../ThirdParty/mbedTLS/library/x509_crl.c:272:67
	mov	r2, r5
	adds	r2, #12
	.loc	4 272 21 is_stmt 0              @ ../../../ThirdParty/mbedTLS/library/x509_crl.c:272:21
	mov	r0, r4
.Ltmp209:
	.loc	4 0 21                          @ ../../../ThirdParty/mbedTLS/library/x509_crl.c:0:21
	str	r1, [sp]                        @ 4-byte Spill
.Ltmp210:
	@DEBUG_VALUE: end2 <- [$sp+0]
	.loc	4 272 21                        @ ../../../ThirdParty/mbedTLS/library/x509_crl.c:272:21
	bl	mbedtls_x509_get_serial
.Ltmp211:
	@DEBUG_VALUE: x509_get_entries:ret <- $r0
	.loc	4 272 13                        @ ../../../ThirdParty/mbedTLS/library/x509_crl.c:272:13
	cbnz	r0, .LBB4_9
.Ltmp212:
@ %bb.7:                                @   in Loop: Header=BB4_4 Depth=1
	@DEBUG_VALUE: x509_get_entries:p <- $r4
	@DEBUG_VALUE: x509_get_entries:ret <- $r0
	@DEBUG_VALUE: end2 <- [$sp+0]
	@DEBUG_VALUE: x509_get_entries:cur_entry <- [DW_OP_plus_uconst 4] [$sp+0]
	.loc	4 276 56 is_stmt 1              @ ../../../ThirdParty/mbedTLS/library/x509_crl.c:276:56
	mov	r2, r5
	adds	r2, #24
	.loc	4 275 21                        @ ../../../ThirdParty/mbedTLS/library/x509_crl.c:275:21
	mov	r0, r4
.Ltmp213:
	ldr	r1, [sp]                        @ 4-byte Reload
	bl	mbedtls_x509_get_time
.Ltmp214:
	@DEBUG_VALUE: x509_get_entries:ret <- $r0
	.loc	4 275 13 is_stmt 0              @ ../../../ThirdParty/mbedTLS/library/x509_crl.c:275:13
	cbnz	r0, .LBB4_9
.Ltmp215:
@ %bb.8:                                @   in Loop: Header=BB4_4 Depth=1
	@DEBUG_VALUE: x509_get_entries:p <- $r4
	@DEBUG_VALUE: x509_get_entries:ret <- $r0
	@DEBUG_VALUE: end2 <- [$sp+0]
	@DEBUG_VALUE: x509_get_entries:cur_entry <- [DW_OP_plus_uconst 4] [$sp+0]
	.loc	4 280 57 is_stmt 1              @ ../../../ThirdParty/mbedTLS/library/x509_crl.c:280:57
	adds	r5, #48
.Ltmp216:
	@DEBUG_VALUE: x509_get_entries:entry <- [DW_OP_LLVM_entry_value 1] $r2
	.loc	4 279 21                        @ ../../../ThirdParty/mbedTLS/library/x509_crl.c:279:21
	mov	r0, r4
.Ltmp217:
	ldr	r1, [sp]                        @ 4-byte Reload
	mov	r2, r5
	bl	x509_get_crl_entry_ext
.Ltmp218:
	@DEBUG_VALUE: x509_get_entries:ret <- $r0
	.loc	4 279 13 is_stmt 0              @ ../../../ThirdParty/mbedTLS/library/x509_crl.c:279:13
	cbz	r0, .LBB4_11
.Ltmp219:
.LBB4_9:                                @   in Loop: Header=BB4_4 Depth=1
	@DEBUG_VALUE: x509_get_entries:p <- $r4
	@DEBUG_VALUE: x509_get_entries:ret <- $r0
	@DEBUG_VALUE: x509_get_entries:cur_entry <- [DW_OP_plus_uconst 4] [$sp+0]
	.loc	4 0 13                          @ ../../../ThirdParty/mbedTLS/library/x509_crl.c:0:13
	mov	r7, r0
.Ltmp220:
	@DEBUG_VALUE: x509_get_entries:ret <- $r7
	ldr	r1, [sp, #16]                   @ 4-byte Reload
	ldr	r3, [sp, #12]                   @ 4-byte Reload
.Ltmp221:
.LBB4_10:                               @   in Loop: Header=BB4_4 Depth=1
	@DEBUG_VALUE: x509_get_entries:p <- $r4
	@DEBUG_VALUE: x509_get_entries:cur_entry <- [DW_OP_plus_uconst 4] [$sp+0]
	@DEBUG_VALUE: x509_get_entries:cur_entry <- [DW_OP_plus_uconst 4] [$sp+0]
	cmp	r1, #0
	bne	.LBB4_4
	b	.LBB4_16
.Ltmp222:
.LBB4_11:                               @   in Loop: Header=BB4_4 Depth=1
	@DEBUG_VALUE: x509_get_entries:p <- $r4
	@DEBUG_VALUE: x509_get_entries:ret <- $r0
	@DEBUG_VALUE: end2 <- [$sp+0]
	@DEBUG_VALUE: x509_get_entries:cur_entry <- [DW_OP_plus_uconst 4] [$sp+0]
	.loc	4 283 13 is_stmt 1              @ ../../../ThirdParty/mbedTLS/library/x509_crl.c:283:13
	ldr	r0, [r4]
.Ltmp223:
	.loc	4 0 13 is_stmt 0                @ ../../../ThirdParty/mbedTLS/library/x509_crl.c:0:13
	movs	r5, #1
	ldr	r3, [sp, #12]                   @ 4-byte Reload
.Ltmp224:
	.loc	4 283 13                        @ ../../../ThirdParty/mbedTLS/library/x509_crl.c:283:13
	cmp	r0, r3
	bhs	.LBB4_14
.Ltmp225:
@ %bb.12:                               @   in Loop: Header=BB4_4 Depth=1
	@DEBUG_VALUE: x509_get_entries:p <- $r4
	@DEBUG_VALUE: end2 <- [$sp+0]
	@DEBUG_VALUE: x509_get_entries:cur_entry <- [DW_OP_plus_uconst 4] [$sp+0]
	.loc	4 0 13                          @ ../../../ThirdParty/mbedTLS/library/x509_crl.c:0:13
	movs	r0, #1
	movs	r1, #64
.Ltmp226:
	.loc	4 285 31 is_stmt 1              @ ../../../ThirdParty/mbedTLS/library/x509_crl.c:285:31
	bl	calloc
	ldr	r3, [sp, #12]                   @ 4-byte Reload
	.loc	4 285 29 is_stmt 0              @ ../../../ThirdParty/mbedTLS/library/x509_crl.c:285:29
	ldr	r1, [sp, #4]                    @ 4-byte Reload
	str	r0, [r1, #60]
	.loc	4 287 17 is_stmt 1              @ ../../../ThirdParty/mbedTLS/library/x509_crl.c:287:17
	cmp	r0, #0
	ldr	r1, [sp, #16]                   @ 4-byte Reload
	ldr	r7, __arm_cp.4_0
	beq	.LBB4_10
.Ltmp227:
@ %bb.13:                               @   in Loop: Header=BB4_4 Depth=1
	@DEBUG_VALUE: x509_get_entries:p <- $r4
	@DEBUG_VALUE: end2 <- [$sp+0]
	@DEBUG_VALUE: x509_get_entries:cur_entry <- [DW_OP_plus_uconst 4] [$sp+0]
	@DEBUG_VALUE: x509_get_entries:cur_entry <- $r0
	.loc	4 0 0 is_stmt 0                 @ ../../../ThirdParty/mbedTLS/library/x509_crl.c:0:0
	str	r0, [sp, #4]                    @ 4-byte Spill
.Ltmp228:
	@DEBUG_VALUE: x509_get_entries:cur_entry <- [DW_OP_plus_uconst 4] [$sp+0]
	@DEBUG_VALUE: x509_get_entries:cur_entry <- [DW_OP_plus_uconst 4] [$sp+0]
	@DEBUG_VALUE: x509_get_entries:cur_entry <- [DW_OP_plus_uconst 4] [$sp+0]
.LBB4_14:                               @   in Loop: Header=BB4_4 Depth=1
	@DEBUG_VALUE: x509_get_entries:p <- $r4
	@DEBUG_VALUE: end2 <- [$sp+0]
	@DEBUG_VALUE: x509_get_entries:cur_entry <- [DW_OP_plus_uconst 4] [$sp+0]
	mov	r1, r5
	mov	r7, r6
	b	.LBB4_10
.Ltmp229:
.LBB4_15:
	@DEBUG_VALUE: x509_get_entries:p <- $r4
	@DEBUG_VALUE: x509_get_entries:cur_entry <- [DW_OP_plus_uconst 4] [$sp+0]
	ldr	r7, [sp, #16]                   @ 4-byte Reload
.Ltmp230:
.LBB4_16:
	@DEBUG_VALUE: x509_get_entries:p <- $r4
	.loc	4 295 1 is_stmt 1               @ ../../../ThirdParty/mbedTLS/library/x509_crl.c:295:1
	mov	r0, r7
	add	sp, #28
	pop	{r4, r5, r6, r7, pc}
.Ltmp231:
	.p2align	2
@ %bb.17:
	.loc	4 0 1 is_stmt 0                 @ ../../../ThirdParty/mbedTLS/library/x509_crl.c:0:1
__arm_cp.4_0:
	.long	4294956928                      @ 0xffffd780
.Lcpi_end6:
	.size	__arm_cp.4_0, .Lcpi_end6-__arm_cp.4_0
.Lfunc_end4:
	.size	x509_get_entries, .Lfunc_end4-x509_get_entries
	.cfi_endproc
	.cantunwind
	.fnend
                                        @ -- End function
	.section	.text.x509_get_crl_ext,"ax",%progbits
	.p2align	2                               @ -- Begin function x509_get_crl_ext
	.type	x509_get_crl_ext,%function
	.code	16                              @ @x509_get_crl_ext
	.thumb_func
x509_get_crl_ext:
.Lfunc_begin5:
	.loc	4 103 0 is_stmt 1               @ ../../../ThirdParty/mbedTLS/library/x509_crl.c:103:0
	.fnstart
	.cfi_startproc
@ %bb.0:
	@DEBUG_VALUE: x509_get_crl_ext:p <- $r0
	@DEBUG_VALUE: x509_get_crl_ext:end <- $r1
	@DEBUG_VALUE: x509_get_crl_ext:ext <- $r2
	.save	{r4, r5, r6, r7, lr}
	push	{r4, r5, r6, r7, lr}
	.cfi_def_cfa_offset 20
	.cfi_offset lr, -4
	.cfi_offset r7, -8
	.cfi_offset r6, -12
	.cfi_offset r5, -16
	.cfi_offset r4, -20
	.pad	#20
	sub	sp, #20
	.cfi_def_cfa_offset 40
	mov	r4, r1
	mov	r5, r0
	@DEBUG_VALUE: x509_get_crl_ext:ext <- $r2
.Ltmp232:
	@DEBUG_VALUE: x509_get_crl_ext:end <- $r4
	@DEBUG_VALUE: x509_get_crl_ext:p <- $r5
	movs	r6, #0
	@DEBUG_VALUE: x509_get_crl_ext:ext <- $r2
.Ltmp233:
	.loc	4 110 17 prologue_end           @ ../../../ThirdParty/mbedTLS/library/x509_crl.c:110:17
	mov	r3, r6
	bl	mbedtls_x509_get_ext
.Ltmp234:
	@DEBUG_VALUE: x509_get_crl_ext:ext <- [DW_OP_LLVM_entry_value 1] $r2
	@DEBUG_VALUE: x509_get_crl_ext:ret <- $r0
	.loc	4 110 9 is_stmt 0               @ ../../../ThirdParty/mbedTLS/library/x509_crl.c:110:9
	mov	r1, r0
	adds	r1, #98
	beq	.LBB5_17
.Ltmp235:
@ %bb.1:
	@DEBUG_VALUE: x509_get_crl_ext:p <- $r5
	@DEBUG_VALUE: x509_get_crl_ext:end <- $r4
	@DEBUG_VALUE: x509_get_crl_ext:ret <- $r0
	@DEBUG_VALUE: x509_get_crl_ext:ext <- [DW_OP_LLVM_entry_value 1] $r2
	cmp	r0, #0
	.loc	4 0 0                           @ ../../../ThirdParty/mbedTLS/library/x509_crl.c:0:0
	mov	r6, r0
.Ltmp236:
	@DEBUG_VALUE: x509_get_crl_ext:ret <- $r6
	.loc	4 110 9                         @ ../../../ThirdParty/mbedTLS/library/x509_crl.c:110:9
	bne	.LBB5_17
.Ltmp237:
@ %bb.2:
	@DEBUG_VALUE: x509_get_crl_ext:ret <- $r6
	@DEBUG_VALUE: x509_get_crl_ext:p <- $r5
	@DEBUG_VALUE: x509_get_crl_ext:end <- $r4
	@DEBUG_VALUE: x509_get_crl_ext:ext <- [DW_OP_LLVM_entry_value 1] $r2
	.loc	4 0 9                           @ ../../../ThirdParty/mbedTLS/library/x509_crl.c:0:9
	ldr	r7, __arm_cp.5_0
	movs	r0, #0
	str	r0, [sp, #8]                    @ 4-byte Spill
	movs	r0, #48
	str	r0, [sp, #4]                    @ 4-byte Spill
	movs	r0, #6
	str	r0, [sp]                        @ 4-byte Spill
                                        @ implicit-def: $r6
.Ltmp238:
.LBB5_3:                                @ =>This Inner Loop Header: Depth=1
	@DEBUG_VALUE: x509_get_crl_ext:p <- $r5
	@DEBUG_VALUE: x509_get_crl_ext:end <- $r4
	@DEBUG_VALUE: x509_get_crl_ext:ext <- [DW_OP_LLVM_entry_value 1] $r2
	.loc	4 118 12 is_stmt 1              @ ../../../ThirdParty/mbedTLS/library/x509_crl.c:118:12
	ldr	r0, [r5]
	.loc	4 118 5 is_stmt 0               @ ../../../ThirdParty/mbedTLS/library/x509_crl.c:118:5
	cmp	r0, r4
	bhs	.LBB5_18
.Ltmp239:
@ %bb.4:                                @   in Loop: Header=BB5_3 Depth=1
	@DEBUG_VALUE: x509_get_crl_ext:p <- $r5
	@DEBUG_VALUE: x509_get_crl_ext:end <- $r4
	@DEBUG_VALUE: x509_get_crl_ext:ext <- [DW_OP_LLVM_entry_value 1] $r2
	@DEBUG_VALUE: is_critical <- 0
	.loc	4 126 13 is_stmt 1              @ ../../../ThirdParty/mbedTLS/library/x509_crl.c:126:13
	ldr	r0, [sp, #8]                    @ 4-byte Reload
	str	r0, [sp, #16]
.Ltmp240:
	@DEBUG_VALUE: len <- [DW_OP_plus_uconst 12, DW_OP_deref] $sp
	.loc	4 0 13 is_stmt 0                @ ../../../ThirdParty/mbedTLS/library/x509_crl.c:0:13
	add	r2, sp, #12
.Ltmp241:
	.loc	4 131 21 is_stmt 1              @ ../../../ThirdParty/mbedTLS/library/x509_crl.c:131:21
	mov	r0, r5
	mov	r1, r4
	ldr	r3, [sp, #4]                    @ 4-byte Reload
	bl	mbedtls_asn1_get_tag
.Ltmp242:
	@DEBUG_VALUE: x509_get_crl_ext:ret <- $r0
	.loc	4 131 13 is_stmt 0              @ ../../../ThirdParty/mbedTLS/library/x509_crl.c:131:13
	cbnz	r0, .LBB5_7
.Ltmp243:
@ %bb.5:                                @   in Loop: Header=BB5_3 Depth=1
	@DEBUG_VALUE: x509_get_crl_ext:p <- $r5
	@DEBUG_VALUE: x509_get_crl_ext:end <- $r4
	@DEBUG_VALUE: x509_get_crl_ext:ret <- $r0
	@DEBUG_VALUE: len <- [DW_OP_plus_uconst 12, DW_OP_deref] $sp
	@DEBUG_VALUE: is_critical <- 0
	@DEBUG_VALUE: x509_get_crl_ext:ext <- [DW_OP_LLVM_entry_value 1] $r2
	.loc	4 135 24 is_stmt 1              @ ../../../ThirdParty/mbedTLS/library/x509_crl.c:135:24
	ldr	r0, [r5]
.Ltmp244:
	.loc	4 135 29 is_stmt 0              @ ../../../ThirdParty/mbedTLS/library/x509_crl.c:135:29
	ldr	r1, [sp, #12]
.Ltmp245:
	@DEBUG_VALUE: len <- $r1
	.loc	4 135 27                        @ ../../../ThirdParty/mbedTLS/library/x509_crl.c:135:27
	adds	r7, r0, r1
.Ltmp246:
	@DEBUG_VALUE: end_ext_data <- $r7
	@DEBUG_VALUE: len <- [DW_OP_plus_uconst 12, DW_OP_deref] $sp
	.loc	4 0 27                          @ ../../../ThirdParty/mbedTLS/library/x509_crl.c:0:27
	add	r2, sp, #12
.Ltmp247:
	.loc	4 138 21 is_stmt 1              @ ../../../ThirdParty/mbedTLS/library/x509_crl.c:138:21
	mov	r0, r5
	mov	r1, r7
	ldr	r3, [sp]                        @ 4-byte Reload
	bl	mbedtls_asn1_get_tag
.Ltmp248:
	@DEBUG_VALUE: x509_get_crl_ext:ret <- $r0
	.loc	4 138 13 is_stmt 0              @ ../../../ThirdParty/mbedTLS/library/x509_crl.c:138:13
	cbz	r0, .LBB5_9
.Ltmp249:
.LBB5_6:                                @   in Loop: Header=BB5_3 Depth=1
	@DEBUG_VALUE: end_ext_data <- $r7
	@DEBUG_VALUE: x509_get_crl_ext:p <- $r5
	@DEBUG_VALUE: x509_get_crl_ext:end <- $r4
	@DEBUG_VALUE: x509_get_crl_ext:ret <- $r0
	@DEBUG_VALUE: x509_get_crl_ext:ext <- [DW_OP_LLVM_entry_value 1] $r2
	.loc	4 0 13                          @ ../../../ThirdParty/mbedTLS/library/x509_crl.c:0:13
	ldr	r7, __arm_cp.5_0
.Ltmp250:
.LBB5_7:                                @   in Loop: Header=BB5_3 Depth=1
	@DEBUG_VALUE: x509_get_crl_ext:p <- $r5
	@DEBUG_VALUE: x509_get_crl_ext:end <- $r4
	@DEBUG_VALUE: x509_get_crl_ext:ret <- $r0
	@DEBUG_VALUE: x509_get_crl_ext:ext <- [DW_OP_LLVM_entry_value 1] $r2
	adds	r6, r0, r7
.Ltmp251:
.LBB5_8:                                @   in Loop: Header=BB5_3 Depth=1
	@DEBUG_VALUE: x509_get_crl_ext:p <- $r5
	@DEBUG_VALUE: x509_get_crl_ext:end <- $r4
	@DEBUG_VALUE: x509_get_crl_ext:ext <- [DW_OP_LLVM_entry_value 1] $r2
	movs	r0, #0
	cmp	r0, #0
	bne	.LBB5_3
	b	.LBB5_17
.Ltmp252:
.LBB5_9:                                @   in Loop: Header=BB5_3 Depth=1
	@DEBUG_VALUE: end_ext_data <- $r7
	@DEBUG_VALUE: x509_get_crl_ext:p <- $r5
	@DEBUG_VALUE: x509_get_crl_ext:end <- $r4
	@DEBUG_VALUE: x509_get_crl_ext:ret <- $r0
	@DEBUG_VALUE: len <- [DW_OP_plus_uconst 12, DW_OP_deref] $sp
	@DEBUG_VALUE: is_critical <- 0
	@DEBUG_VALUE: x509_get_crl_ext:ext <- [DW_OP_LLVM_entry_value 1] $r2
	.loc	4 143 12 is_stmt 1              @ ../../../ThirdParty/mbedTLS/library/x509_crl.c:143:12
	ldr	r0, [r5]
.Ltmp253:
	.loc	4 143 15 is_stmt 0              @ ../../../ThirdParty/mbedTLS/library/x509_crl.c:143:15
	ldr	r1, [sp, #12]
.Ltmp254:
	@DEBUG_VALUE: len <- $r1
	.loc	4 143 12                        @ ../../../ThirdParty/mbedTLS/library/x509_crl.c:143:12
	adds	r0, r0, r1
	str	r0, [r5]
.Ltmp255:
	@DEBUG_VALUE: is_critical <- [DW_OP_plus_uconst 16, DW_OP_deref] $sp
	.loc	4 0 12                          @ ../../../ThirdParty/mbedTLS/library/x509_crl.c:0:12
	add	r2, sp, #16
.Ltmp256:
	.loc	4 146 21 is_stmt 1              @ ../../../ThirdParty/mbedTLS/library/x509_crl.c:146:21
	mov	r0, r5
	mov	r1, r7
.Ltmp257:
	bl	mbedtls_asn1_get_bool
.Ltmp258:
	@DEBUG_VALUE: x509_get_crl_ext:ret <- $r0
	.loc	4 147 66                        @ ../../../ThirdParty/mbedTLS/library/x509_crl.c:147:66
	mov	r1, r0
	adds	r1, #98
	beq	.LBB5_11
.Ltmp259:
@ %bb.10:                               @   in Loop: Header=BB5_3 Depth=1
	@DEBUG_VALUE: end_ext_data <- $r7
	@DEBUG_VALUE: x509_get_crl_ext:p <- $r5
	@DEBUG_VALUE: x509_get_crl_ext:end <- $r4
	@DEBUG_VALUE: x509_get_crl_ext:ret <- $r0
	@DEBUG_VALUE: is_critical <- [DW_OP_plus_uconst 16, DW_OP_deref] $sp
	@DEBUG_VALUE: x509_get_crl_ext:ext <- [DW_OP_LLVM_entry_value 1] $r2
	cmp	r0, #0
	bne	.LBB5_6
.Ltmp260:
.LBB5_11:                               @   in Loop: Header=BB5_3 Depth=1
	@DEBUG_VALUE: end_ext_data <- $r7
	@DEBUG_VALUE: x509_get_crl_ext:p <- $r5
	@DEBUG_VALUE: x509_get_crl_ext:end <- $r4
	@DEBUG_VALUE: x509_get_crl_ext:ret <- $r0
	@DEBUG_VALUE: is_critical <- [DW_OP_plus_uconst 16, DW_OP_deref] $sp
	@DEBUG_VALUE: x509_get_crl_ext:ext <- [DW_OP_LLVM_entry_value 1] $r2
	@DEBUG_VALUE: len <- [DW_OP_plus_uconst 12, DW_OP_deref] $sp
	.loc	4 0 66 is_stmt 0                @ ../../../ThirdParty/mbedTLS/library/x509_crl.c:0:66
	add	r2, sp, #12
	movs	r3, #4
.Ltmp261:
	.loc	4 154 21 is_stmt 1              @ ../../../ThirdParty/mbedTLS/library/x509_crl.c:154:21
	mov	r0, r5
.Ltmp262:
	mov	r1, r7
	bl	mbedtls_asn1_get_tag
.Ltmp263:
	@DEBUG_VALUE: x509_get_crl_ext:ret <- $r0
	.loc	4 154 13 is_stmt 0              @ ../../../ThirdParty/mbedTLS/library/x509_crl.c:154:13
	cmp	r0, #0
	bne	.LBB5_6
.Ltmp264:
@ %bb.12:                               @   in Loop: Header=BB5_3 Depth=1
	@DEBUG_VALUE: end_ext_data <- $r7
	@DEBUG_VALUE: x509_get_crl_ext:p <- $r5
	@DEBUG_VALUE: x509_get_crl_ext:end <- $r4
	@DEBUG_VALUE: x509_get_crl_ext:ret <- $r0
	@DEBUG_VALUE: is_critical <- [DW_OP_plus_uconst 16, DW_OP_deref] $sp
	@DEBUG_VALUE: len <- [DW_OP_plus_uconst 12, DW_OP_deref] $sp
	@DEBUG_VALUE: x509_get_crl_ext:ext <- [DW_OP_LLVM_entry_value 1] $r2
	.loc	4 159 12 is_stmt 1              @ ../../../ThirdParty/mbedTLS/library/x509_crl.c:159:12
	ldr	r0, [r5]
.Ltmp265:
	.loc	4 159 15 is_stmt 0              @ ../../../ThirdParty/mbedTLS/library/x509_crl.c:159:15
	ldr	r1, [sp, #12]
.Ltmp266:
	@DEBUG_VALUE: len <- $r1
	.loc	4 159 12                        @ ../../../ThirdParty/mbedTLS/library/x509_crl.c:159:12
	adds	r0, r0, r1
	str	r0, [r5]
	.loc	4 160 13 is_stmt 1              @ ../../../ThirdParty/mbedTLS/library/x509_crl.c:160:13
	cmp	r0, r7
	beq	.LBB5_14
.Ltmp267:
@ %bb.13:                               @   in Loop: Header=BB5_3 Depth=1
	@DEBUG_VALUE: end_ext_data <- $r7
	@DEBUG_VALUE: x509_get_crl_ext:p <- $r5
	@DEBUG_VALUE: x509_get_crl_ext:end <- $r4
	@DEBUG_VALUE: len <- $r1
	@DEBUG_VALUE: is_critical <- [DW_OP_plus_uconst 16, DW_OP_deref] $sp
	@DEBUG_VALUE: x509_get_crl_ext:ext <- [DW_OP_LLVM_entry_value 1] $r2
	.loc	4 0 13 is_stmt 0                @ ../../../ThirdParty/mbedTLS/library/x509_crl.c:0:13
	ldr	r7, __arm_cp.5_0
.Ltmp268:
	mov	r6, r7
	subs	r6, #102
	b	.LBB5_8
.Ltmp269:
.LBB5_14:                               @   in Loop: Header=BB5_3 Depth=1
	@DEBUG_VALUE: end_ext_data <- $r7
	@DEBUG_VALUE: x509_get_crl_ext:p <- $r5
	@DEBUG_VALUE: x509_get_crl_ext:end <- $r4
	@DEBUG_VALUE: len <- $r1
	@DEBUG_VALUE: is_critical <- [DW_OP_plus_uconst 16, DW_OP_deref] $sp
	@DEBUG_VALUE: x509_get_crl_ext:ext <- [DW_OP_LLVM_entry_value 1] $r2
	.loc	4 165 13 is_stmt 1              @ ../../../ThirdParty/mbedTLS/library/x509_crl.c:165:13
	ldr	r1, [sp, #16]
.Ltmp270:
	@DEBUG_VALUE: is_critical <- $r1
	.loc	4 0 13 is_stmt 0                @ ../../../ThirdParty/mbedTLS/library/x509_crl.c:0:13
	ldr	r7, __arm_cp.5_0
.Ltmp271:
	.loc	4 165 13                        @ ../../../ThirdParty/mbedTLS/library/x509_crl.c:165:13
	cbz	r1, .LBB5_16
.Ltmp272:
@ %bb.15:                               @   in Loop: Header=BB5_3 Depth=1
	@DEBUG_VALUE: x509_get_crl_ext:p <- $r5
	@DEBUG_VALUE: x509_get_crl_ext:end <- $r4
	@DEBUG_VALUE: is_critical <- $r1
	@DEBUG_VALUE: x509_get_crl_ext:ext <- [DW_OP_LLVM_entry_value 1] $r2
	.loc	4 0 13                          @ ../../../ThirdParty/mbedTLS/library/x509_crl.c:0:13
	mov	r6, r7
	subs	r6, #98
.Ltmp273:
.LBB5_16:                               @   in Loop: Header=BB5_3 Depth=1
	@DEBUG_VALUE: x509_get_crl_ext:p <- $r5
	@DEBUG_VALUE: x509_get_crl_ext:end <- $r4
	@DEBUG_VALUE: is_critical <- $r1
	@DEBUG_VALUE: x509_get_crl_ext:ext <- [DW_OP_LLVM_entry_value 1] $r2
	.loc	4 165 13                        @ ../../../ThirdParty/mbedTLS/library/x509_crl.c:165:13
	rsbs	r0, r1, #0
	adcs	r0, r1
	cmp	r0, #0
	bne	.LBB5_3
.Ltmp274:
.LBB5_17:
	@DEBUG_VALUE: x509_get_crl_ext:p <- $r5
	@DEBUG_VALUE: x509_get_crl_ext:end <- $r4
	@DEBUG_VALUE: x509_get_crl_ext:ext <- [DW_OP_LLVM_entry_value 1] $r2
	.loc	4 175 1 is_stmt 1               @ ../../../ThirdParty/mbedTLS/library/x509_crl.c:175:1
	mov	r0, r6
	add	sp, #20
	pop	{r4, r5, r6, r7, pc}
.Ltmp275:
.LBB5_18:
	@DEBUG_VALUE: x509_get_crl_ext:p <- $r5
	@DEBUG_VALUE: x509_get_crl_ext:end <- $r4
	@DEBUG_VALUE: x509_get_crl_ext:ext <- [DW_OP_LLVM_entry_value 1] $r2
	.loc	4 170 9                         @ ../../../ThirdParty/mbedTLS/library/x509_crl.c:170:9
	cmp	r0, r4
	beq	.LBB5_20
.Ltmp276:
@ %bb.19:
	@DEBUG_VALUE: x509_get_crl_ext:p <- $r5
	@DEBUG_VALUE: x509_get_crl_ext:end <- $r4
	@DEBUG_VALUE: x509_get_crl_ext:ext <- [DW_OP_LLVM_entry_value 1] $r2
	.loc	4 0 9 is_stmt 0                 @ ../../../ThirdParty/mbedTLS/library/x509_crl.c:0:9
	subs	r7, #102
	.loc	4 170 9                         @ ../../../ThirdParty/mbedTLS/library/x509_crl.c:170:9
	str	r7, [sp, #8]                    @ 4-byte Spill
.Ltmp277:
.LBB5_20:
	@DEBUG_VALUE: x509_get_crl_ext:p <- $r5
	@DEBUG_VALUE: x509_get_crl_ext:end <- $r4
	@DEBUG_VALUE: x509_get_crl_ext:ext <- [DW_OP_LLVM_entry_value 1] $r2
	ldr	r0, [sp, #8]                    @ 4-byte Reload
	add	sp, #20
	pop	{r4, r5, r6, r7, pc}
.Ltmp278:
	.p2align	2
@ %bb.21:
	.loc	4 0 9                           @ ../../../ThirdParty/mbedTLS/library/x509_crl.c:0:9
__arm_cp.5_0:
	.long	4294957824                      @ 0xffffdb00
.Lcpi_end7:
	.size	__arm_cp.5_0, .Lcpi_end7-__arm_cp.5_0
.Lfunc_end5:
	.size	x509_get_crl_ext, .Lfunc_end5-x509_get_crl_ext
	.cfi_endproc
	.cantunwind
	.fnend
                                        @ -- End function
	.section	.text.mbedtls_x509_crl_parse,"ax",%progbits
	.hidden	mbedtls_x509_crl_parse          @ -- Begin function mbedtls_x509_crl_parse
	.globl	mbedtls_x509_crl_parse
	.p2align	2
	.type	mbedtls_x509_crl_parse,%function
	.code	16                              @ @mbedtls_x509_crl_parse
	.thumb_func
mbedtls_x509_crl_parse:
.Lfunc_begin6:
	.loc	4 540 0 is_stmt 1               @ ../../../ThirdParty/mbedTLS/library/x509_crl.c:540:0
	.fnstart
	.cfi_startproc
@ %bb.0:
	@DEBUG_VALUE: mbedtls_x509_crl_parse:chain <- $r0
	@DEBUG_VALUE: mbedtls_x509_crl_parse:buf <- $r1
	@DEBUG_VALUE: mbedtls_x509_crl_parse:buflen <- $r2
	.save	{r4, r5, r6, r7, lr}
	push	{r4, r5, r6, r7, lr}
	.cfi_def_cfa_offset 20
	.cfi_offset lr, -4
	.cfi_offset r7, -8
	.cfi_offset r6, -12
	.cfi_offset r5, -16
	.cfi_offset r4, -20
	.pad	#36
	sub	sp, #36
	.cfi_def_cfa_offset 56
	ldr	r7, __arm_cp.6_0
	str	r0, [sp, #16]                   @ 4-byte Spill
.Ltmp279:
	@DEBUG_VALUE: mbedtls_x509_crl_parse:is_pem <- 0
	@DEBUG_VALUE: mbedtls_x509_crl_parse:buflen <- $r2
	@DEBUG_VALUE: mbedtls_x509_crl_parse:buf <- $r1
	@DEBUG_VALUE: mbedtls_x509_crl_parse:chain <- [DW_OP_plus_uconst 16] [$sp+0]
	.loc	4 547 23 prologue_end           @ ../../../ThirdParty/mbedTLS/library/x509_crl.c:547:23
	cmp	r0, #0
	beq	.LBB6_18
.Ltmp280:
@ %bb.1:
	@DEBUG_VALUE: mbedtls_x509_crl_parse:buflen <- $r2
	@DEBUG_VALUE: mbedtls_x509_crl_parse:buf <- $r1
	@DEBUG_VALUE: mbedtls_x509_crl_parse:chain <- [DW_OP_plus_uconst 16] [$sp+0]
	@DEBUG_VALUE: mbedtls_x509_crl_parse:is_pem <- 0
	@DEBUG_VALUE: mbedtls_x509_crl_parse:buflen <- $r2
	.loc	4 0 23 is_stmt 0                @ ../../../ThirdParty/mbedTLS/library/x509_crl.c:0:23
	mov	r5, r1
.Ltmp281:
	@DEBUG_VALUE: mbedtls_x509_crl_parse:buf <- $r5
	.loc	4 547 23                        @ ../../../ThirdParty/mbedTLS/library/x509_crl.c:547:23
	cmp	r1, #0
	beq	.LBB6_18
.Ltmp282:
@ %bb.2:
	@DEBUG_VALUE: mbedtls_x509_crl_parse:buf <- $r5
	@DEBUG_VALUE: mbedtls_x509_crl_parse:buflen <- $r2
	@DEBUG_VALUE: mbedtls_x509_crl_parse:chain <- [DW_OP_plus_uconst 16] [$sp+0]
	@DEBUG_VALUE: mbedtls_x509_crl_parse:is_pem <- 0
	.loc	4 0 23                          @ ../../../ThirdParty/mbedTLS/library/x509_crl.c:0:23
	mov	r4, r2
.Ltmp283:
	@DEBUG_VALUE: mbedtls_x509_crl_parse:buflen <- $r4
	movs	r6, #0
	movs	r0, #1
	str	r0, [sp, #12]                   @ 4-byte Spill
.Ltmp284:
.LBB6_3:                                @ =>This Inner Loop Header: Depth=1
	@DEBUG_VALUE: mbedtls_x509_crl_parse:buf <- $r5
	@DEBUG_VALUE: mbedtls_x509_crl_parse:buflen <- $r4
	@DEBUG_VALUE: mbedtls_x509_crl_parse:chain <- [DW_OP_plus_uconst 16] [$sp+0]
	@DEBUG_VALUE: mbedtls_x509_crl_parse:buf <- $r5
	@DEBUG_VALUE: mbedtls_x509_crl_parse:buflen <- $r4
	@DEBUG_VALUE: mbedtls_x509_crl_parse:is_pem <- $r6
	add	r0, sp, #20
.Ltmp285:
	.loc	4 552 9 is_stmt 1               @ ../../../ThirdParty/mbedTLS/library/x509_crl.c:552:9
	bl	mbedtls_pem_init
.Ltmp286:
	.loc	4 0 0 is_stmt 0                 @ ../../../ThirdParty/mbedTLS/library/x509_crl.c:0:0
	ldr	r7, __arm_cp.6_1
	.loc	4 556 25 is_stmt 1              @ ../../../ThirdParty/mbedTLS/library/x509_crl.c:556:25
	cbz	r4, .LBB6_5
.Ltmp287:
@ %bb.4:                                @   in Loop: Header=BB6_3 Depth=1
	@DEBUG_VALUE: mbedtls_x509_crl_parse:is_pem <- $r6
	@DEBUG_VALUE: mbedtls_x509_crl_parse:buf <- $r5
	@DEBUG_VALUE: mbedtls_x509_crl_parse:buflen <- $r4
	@DEBUG_VALUE: mbedtls_x509_crl_parse:chain <- [DW_OP_plus_uconst 16] [$sp+0]
	.loc	4 556 39 is_stmt 0              @ ../../../ThirdParty/mbedTLS/library/x509_crl.c:556:39
	adds	r0, r4, r5
	.loc	4 556 28                        @ ../../../ThirdParty/mbedTLS/library/x509_crl.c:556:28
	subs	r0, r0, #1
	ldrb	r0, [r0]
	.loc	4 0 0                           @ ../../../ThirdParty/mbedTLS/library/x509_crl.c:0:0
	ldr	r7, __arm_cp.6_1
.Ltmp288:
	.loc	4 556 13                        @ ../../../ThirdParty/mbedTLS/library/x509_crl.c:556:13
	cbz	r0, .LBB6_8
.Ltmp289:
.LBB6_5:                                @   in Loop: Header=BB6_3 Depth=1
	@DEBUG_VALUE: mbedtls_x509_crl_parse:is_pem <- $r6
	@DEBUG_VALUE: mbedtls_x509_crl_parse:buf <- $r5
	@DEBUG_VALUE: mbedtls_x509_crl_parse:buflen <- $r4
	@DEBUG_VALUE: mbedtls_x509_crl_parse:chain <- [DW_OP_plus_uconst 16] [$sp+0]
	@DEBUG_VALUE: mbedtls_x509_crl_parse:ret <- $r7
	.loc	4 564 13 is_stmt 1              @ ../../../ThirdParty/mbedTLS/library/x509_crl.c:564:13
	cbz	r7, .LBB6_9
.Ltmp290:
.LBB6_6:                                @   in Loop: Header=BB6_3 Depth=1
	@DEBUG_VALUE: mbedtls_x509_crl_parse:ret <- $r7
	@DEBUG_VALUE: mbedtls_x509_crl_parse:is_pem <- $r6
	@DEBUG_VALUE: mbedtls_x509_crl_parse:buf <- $r5
	@DEBUG_VALUE: mbedtls_x509_crl_parse:buflen <- $r4
	@DEBUG_VALUE: mbedtls_x509_crl_parse:chain <- [DW_OP_plus_uconst 16] [$sp+0]
	.loc	4 581 18                        @ ../../../ThirdParty/mbedTLS/library/x509_crl.c:581:18
	cbnz	r6, .LBB6_15
.Ltmp291:
@ %bb.7:                                @   in Loop: Header=BB6_3 Depth=1
	@DEBUG_VALUE: mbedtls_x509_crl_parse:ret <- $r7
	@DEBUG_VALUE: mbedtls_x509_crl_parse:is_pem <- $r6
	@DEBUG_VALUE: mbedtls_x509_crl_parse:buf <- $r5
	@DEBUG_VALUE: mbedtls_x509_crl_parse:buflen <- $r4
	@DEBUG_VALUE: mbedtls_x509_crl_parse:chain <- [DW_OP_plus_uconst 16] [$sp+0]
	.loc	4 0 18 is_stmt 0                @ ../../../ThirdParty/mbedTLS/library/x509_crl.c:0:18
	movs	r6, #0
.Ltmp292:
	b	.LBB6_11
.Ltmp293:
.LBB6_8:                                @   in Loop: Header=BB6_3 Depth=1
	@DEBUG_VALUE: mbedtls_x509_crl_parse:is_pem <- $r6
	@DEBUG_VALUE: mbedtls_x509_crl_parse:buf <- $r5
	@DEBUG_VALUE: mbedtls_x509_crl_parse:buflen <- $r4
	@DEBUG_VALUE: mbedtls_x509_crl_parse:chain <- [DW_OP_plus_uconst 16] [$sp+0]
	@DEBUG_VALUE: mbedtls_x509_crl_parse:use_len <- [DW_OP_plus_uconst 32, DW_OP_deref] $sp
	add	r0, sp, #32
	movs	r1, #0
.Ltmp294:
	.loc	4 559 19 is_stmt 1              @ ../../../ThirdParty/mbedTLS/library/x509_crl.c:559:19
	str	r1, [sp]
	str	r1, [sp, #4]
	str	r0, [sp, #8]
	add	r0, sp, #20
	adr	r1, .LCPI6_2
	adr	r2, .LCPI6_3
	mov	r3, r5
	bl	mbedtls_pem_read_buffer
	mov	r7, r0
.Ltmp295:
	@DEBUG_VALUE: mbedtls_x509_crl_parse:ret <- $r7
	@DEBUG_VALUE: mbedtls_x509_crl_parse:ret <- $r7
	.loc	4 564 13                        @ ../../../ThirdParty/mbedTLS/library/x509_crl.c:564:13
	cmp	r7, #0
	bne	.LBB6_6
.Ltmp296:
.LBB6_9:                                @   in Loop: Header=BB6_3 Depth=1
	@DEBUG_VALUE: mbedtls_x509_crl_parse:ret <- $r7
	@DEBUG_VALUE: mbedtls_x509_crl_parse:is_pem <- $r6
	@DEBUG_VALUE: mbedtls_x509_crl_parse:buf <- $r5
	@DEBUG_VALUE: mbedtls_x509_crl_parse:buflen <- $r4
	@DEBUG_VALUE: mbedtls_x509_crl_parse:chain <- [DW_OP_plus_uconst 16] [$sp+0]
	@DEBUG_VALUE: mbedtls_x509_crl_parse:is_pem <- 1
	.loc	4 0 13 is_stmt 0                @ ../../../ThirdParty/mbedTLS/library/x509_crl.c:0:13
	mov	r6, r4
.Ltmp297:
	@DEBUG_VALUE: mbedtls_x509_crl_parse:buflen <- $r6
	mov	r4, r5
.Ltmp298:
	@DEBUG_VALUE: mbedtls_x509_crl_parse:buf <- $r4
	.loc	4 571 23 is_stmt 1              @ ../../../ThirdParty/mbedTLS/library/x509_crl.c:571:23
	ldr	r5, [sp, #32]
.Ltmp299:
	@DEBUG_VALUE: mbedtls_x509_crl_parse:use_len <- $r5
	.loc	4 574 25                        @ ../../../ThirdParty/mbedTLS/library/x509_crl.c:574:25
	add	r2, sp, #16
	ldm	r2, {r0, r1, r2}                @ 4-byte Reload
	bl	mbedtls_x509_crl_parse_der
.Ltmp300:
	@DEBUG_VALUE: mbedtls_x509_crl_parse:ret <- $r0
	@DEBUG_VALUE: mbedtls_x509_crl_parse:buflen <- undef
	@DEBUG_VALUE: mbedtls_x509_crl_parse:buf <- undef
	.loc	4 574 17 is_stmt 0              @ ../../../ThirdParty/mbedTLS/library/x509_crl.c:574:17
	cbnz	r0, .LBB6_16
.Ltmp301:
@ %bb.10:                               @   in Loop: Header=BB6_3 Depth=1
	@DEBUG_VALUE: mbedtls_x509_crl_parse:use_len <- $r5
	@DEBUG_VALUE: mbedtls_x509_crl_parse:ret <- $r0
	@DEBUG_VALUE: mbedtls_x509_crl_parse:chain <- [DW_OP_plus_uconst 16] [$sp+0]
	@DEBUG_VALUE: mbedtls_x509_crl_parse:is_pem <- 1
	.loc	4 0 17                          @ ../../../ThirdParty/mbedTLS/library/x509_crl.c:0:17
	adds	r4, r4, r5
.Ltmp302:
	@DEBUG_VALUE: mbedtls_x509_crl_parse:buf <- $r4
	subs	r6, r6, r5
.Ltmp303:
	@DEBUG_VALUE: mbedtls_x509_crl_parse:buflen <- $r6
	mov	r5, r4
.Ltmp304:
	@DEBUG_VALUE: mbedtls_x509_crl_parse:buf <- $r5
	@DEBUG_VALUE: mbedtls_x509_crl_parse:buf <- $r5
	mov	r4, r6
.Ltmp305:
	@DEBUG_VALUE: mbedtls_x509_crl_parse:buflen <- $r4
	@DEBUG_VALUE: mbedtls_x509_crl_parse:buflen <- $r4
	ldr	r6, [sp, #12]                   @ 4-byte Reload
.Ltmp306:
.LBB6_11:                               @   in Loop: Header=BB6_3 Depth=1
	@DEBUG_VALUE: mbedtls_x509_crl_parse:buf <- $r5
	@DEBUG_VALUE: mbedtls_x509_crl_parse:buflen <- $r4
	@DEBUG_VALUE: mbedtls_x509_crl_parse:chain <- [DW_OP_plus_uconst 16] [$sp+0]
	@DEBUG_VALUE: mbedtls_x509_crl_parse:buf <- $r5
	@DEBUG_VALUE: mbedtls_x509_crl_parse:buflen <- $r4
	@DEBUG_VALUE: mbedtls_x509_crl_parse:is_pem <- $r6
	add	r0, sp, #20
.Ltmp307:
	.loc	4 587 9 is_stmt 1               @ ../../../ThirdParty/mbedTLS/library/x509_crl.c:587:9
	bl	mbedtls_pem_free
	.loc	4 588 5                         @ ../../../ThirdParty/mbedTLS/library/x509_crl.c:588:5
	cbnz	r7, .LBB6_13
.Ltmp308:
@ %bb.12:                               @   in Loop: Header=BB6_3 Depth=1
	@DEBUG_VALUE: mbedtls_x509_crl_parse:is_pem <- $r6
	@DEBUG_VALUE: mbedtls_x509_crl_parse:buf <- $r5
	@DEBUG_VALUE: mbedtls_x509_crl_parse:buflen <- $r4
	@DEBUG_VALUE: mbedtls_x509_crl_parse:chain <- [DW_OP_plus_uconst 16] [$sp+0]
	cmp	r4, #1
	bhi	.LBB6_3
.Ltmp309:
.LBB6_13:
	@DEBUG_VALUE: mbedtls_x509_crl_parse:is_pem <- $r6
	@DEBUG_VALUE: mbedtls_x509_crl_parse:buf <- $r5
	@DEBUG_VALUE: mbedtls_x509_crl_parse:buflen <- $r4
	@DEBUG_VALUE: mbedtls_x509_crl_parse:chain <- [DW_OP_plus_uconst 16] [$sp+0]
	@DEBUG_VALUE: mbedtls_x509_crl_parse:buf <- $r5
	@DEBUG_VALUE: mbedtls_x509_crl_parse:buflen <- $r4
	.loc	4 593 9                         @ ../../../ThirdParty/mbedTLS/library/x509_crl.c:593:9
	cbz	r7, .LBB6_17
.Ltmp310:
@ %bb.14:
	@DEBUG_VALUE: mbedtls_x509_crl_parse:is_pem <- $r6
	@DEBUG_VALUE: mbedtls_x509_crl_parse:buf <- $r5
	@DEBUG_VALUE: mbedtls_x509_crl_parse:buflen <- $r4
	@DEBUG_VALUE: mbedtls_x509_crl_parse:chain <- [DW_OP_plus_uconst 16] [$sp+0]
	.loc	4 597 17                        @ ../../../ThirdParty/mbedTLS/library/x509_crl.c:597:17
	ldr	r0, [sp, #16]                   @ 4-byte Reload
	mov	r1, r5
	mov	r2, r4
	bl	mbedtls_x509_crl_parse_der
	mov	r7, r0
	b	.LBB6_18
.Ltmp311:
.LBB6_15:
	@DEBUG_VALUE: mbedtls_x509_crl_parse:ret <- $r7
	@DEBUG_VALUE: mbedtls_x509_crl_parse:is_pem <- $r6
	@DEBUG_VALUE: mbedtls_x509_crl_parse:buf <- $r5
	@DEBUG_VALUE: mbedtls_x509_crl_parse:buflen <- $r4
	@DEBUG_VALUE: mbedtls_x509_crl_parse:chain <- [DW_OP_plus_uconst 16] [$sp+0]
	@DEBUG_VALUE: mbedtls_x509_crl_parse:ret <- $r7
	.loc	4 0 17 is_stmt 0                @ ../../../ThirdParty/mbedTLS/library/x509_crl.c:0:17
	add	r0, sp, #20
.Ltmp312:
	.loc	4 583 13 is_stmt 1              @ ../../../ThirdParty/mbedTLS/library/x509_crl.c:583:13
	bl	mbedtls_pem_free
	@DEBUG_VALUE: mbedtls_x509_crl_parse:ret <- $r7
	.loc	4 584 13                        @ ../../../ThirdParty/mbedTLS/library/x509_crl.c:584:13
	b	.LBB6_18
.Ltmp313:
.LBB6_16:
	@DEBUG_VALUE: mbedtls_x509_crl_parse:use_len <- $r5
	@DEBUG_VALUE: mbedtls_x509_crl_parse:ret <- $r0
	@DEBUG_VALUE: mbedtls_x509_crl_parse:chain <- [DW_OP_plus_uconst 16] [$sp+0]
	@DEBUG_VALUE: mbedtls_x509_crl_parse:is_pem <- 1
	.loc	4 0 0 is_stmt 0                 @ ../../../ThirdParty/mbedTLS/library/x509_crl.c:0:0
	mov	r1, r0
.Ltmp314:
	@DEBUG_VALUE: mbedtls_x509_crl_parse:ret <- $r1
	add	r0, sp, #20
	mov	r7, r1
.Ltmp315:
	@DEBUG_VALUE: mbedtls_x509_crl_parse:ret <- $r7
	.loc	4 577 17 is_stmt 1              @ ../../../ThirdParty/mbedTLS/library/x509_crl.c:577:17
	bl	mbedtls_pem_free
	.loc	4 578 17                        @ ../../../ThirdParty/mbedTLS/library/x509_crl.c:578:17
	b	.LBB6_18
.Ltmp316:
.LBB6_17:
	@DEBUG_VALUE: mbedtls_x509_crl_parse:is_pem <- $r6
	@DEBUG_VALUE: mbedtls_x509_crl_parse:buf <- $r5
	@DEBUG_VALUE: mbedtls_x509_crl_parse:buflen <- $r4
	@DEBUG_VALUE: mbedtls_x509_crl_parse:chain <- [DW_OP_plus_uconst 16] [$sp+0]
	.loc	4 0 17 is_stmt 0                @ ../../../ThirdParty/mbedTLS/library/x509_crl.c:0:17
	movs	r7, #0
.Ltmp317:
.LBB6_18:
	@DEBUG_VALUE: mbedtls_x509_crl_parse:chain <- [DW_OP_plus_uconst 16] [$sp+0]
	.loc	4 598 1 is_stmt 1               @ ../../../ThirdParty/mbedTLS/library/x509_crl.c:598:1
	mov	r0, r7
	add	sp, #36
.Ltmp318:
	pop	{r4, r5, r6, r7, pc}
.Ltmp319:
	.p2align	2
@ %bb.19:
	.loc	4 0 1 is_stmt 0                 @ ../../../ThirdParty/mbedTLS/library/x509_crl.c:0:1
__arm_cp.6_0:
	.long	4294957056                      @ 0xffffd800
.Lcpi_end8:
	.size	__arm_cp.6_0, .Lcpi_end8-__arm_cp.6_0
__arm_cp.6_1:
	.long	4294963072                      @ 0xffffef80
.Lcpi_end9:
	.size	__arm_cp.6_1, .Lcpi_end9-__arm_cp.6_1
.LCPI6_2:
.L.str:
	.asciz	"-----BEGIN X509 CRL-----\000\000\000"
.LCPI6_3:
.L.str.1:
	.asciz	"-----END X509 CRL-----\000"
.Lfunc_end6:
	.size	mbedtls_x509_crl_parse, .Lfunc_end6-mbedtls_x509_crl_parse
	.cfi_endproc
	.cantunwind
	.fnend
                                        @ -- End function
	.section	.text.mbedtls_x509_crl_info,"ax",%progbits
	.hidden	mbedtls_x509_crl_info           @ -- Begin function mbedtls_x509_crl_info
	.globl	mbedtls_x509_crl_info
	.p2align	2
	.type	mbedtls_x509_crl_info,%function
	.code	16                              @ @mbedtls_x509_crl_info
	.thumb_func
mbedtls_x509_crl_info:
.Lfunc_begin7:
	.loc	4 632 0 is_stmt 1               @ ../../../ThirdParty/mbedTLS/library/x509_crl.c:632:0
	.fnstart
	.cfi_startproc
@ %bb.0:
	@DEBUG_VALUE: mbedtls_x509_crl_info:buf <- $r0
	@DEBUG_VALUE: mbedtls_x509_crl_info:size <- $r1
	@DEBUG_VALUE: mbedtls_x509_crl_info:prefix <- $r2
	@DEBUG_VALUE: mbedtls_x509_crl_info:crl <- $r3
	.save	{r4, r5, r6, r7, lr}
	push	{r4, r5, r6, r7, lr}
	.cfi_def_cfa_offset 20
	.cfi_offset lr, -4
	.cfi_offset r7, -8
	.cfi_offset r6, -12
	.cfi_offset r5, -16
	.cfi_offset r4, -20
	.pad	#52
	sub	sp, #52
	.cfi_def_cfa_offset 72
	mov	r7, r3
	mov	r3, r2
.Ltmp320:
	@DEBUG_VALUE: mbedtls_x509_crl_info:crl <- [DW_OP_LLVM_entry_value 1] $r3
	mov	r5, r1
	mov	r4, r0
.Ltmp321:
	@DEBUG_VALUE: mbedtls_x509_crl_info:n <- $r5
	@DEBUG_VALUE: mbedtls_x509_crl_info:p <- $r4
	@DEBUG_VALUE: mbedtls_x509_crl_info:crl <- $r7
	@DEBUG_VALUE: mbedtls_x509_crl_info:prefix <- $r3
	@DEBUG_VALUE: mbedtls_x509_crl_info:size <- $r5
	@DEBUG_VALUE: mbedtls_x509_crl_info:buf <- $r4
	.loc	4 642 42 prologue_end           @ ../../../ThirdParty/mbedTLS/library/x509_crl.c:642:42
	ldr	r0, [r7, #24]
	.loc	4 641 11                        @ ../../../ThirdParty/mbedTLS/library/x509_crl.c:641:11
	str	r0, [sp]
	adr	r2, .LCPI7_0
	mov	r0, r4
	str	r3, [sp, #48]                   @ 4-byte Spill
.Ltmp322:
	@DEBUG_VALUE: mbedtls_x509_crl_info:prefix <- [DW_OP_plus_uconst 48] [$sp+0]
	bl	__2snprintf
.Ltmp323:
	@DEBUG_VALUE: mbedtls_x509_crl_info:ret <- $r0
	.loc	4 0 11 is_stmt 0                @ ../../../ThirdParty/mbedTLS/library/x509_crl.c:0:11
	ldr	r6, __arm_cp.7_1
.Ltmp324:
	.loc	4 643 5 is_stmt 1               @ ../../../ThirdParty/mbedTLS/library/x509_crl.c:643:5
	cmp	r0, #0
	bpl	.LBB7_1
	b	.LBB7_31
.Ltmp325:
.LBB7_1:
	@DEBUG_VALUE: mbedtls_x509_crl_info:crl <- $r7
	@DEBUG_VALUE: mbedtls_x509_crl_info:size <- $r5
	@DEBUG_VALUE: mbedtls_x509_crl_info:n <- $r5
	@DEBUG_VALUE: mbedtls_x509_crl_info:buf <- $r4
	@DEBUG_VALUE: mbedtls_x509_crl_info:p <- $r4
	@DEBUG_VALUE: mbedtls_x509_crl_info:ret <- $r0
	@DEBUG_VALUE: mbedtls_x509_crl_info:prefix <- [DW_OP_plus_uconst 48] [$sp+0]
	cmp	r0, r5
	blo	.LBB7_2
	b	.LBB7_31
.Ltmp326:
.LBB7_2:
	@DEBUG_VALUE: mbedtls_x509_crl_info:crl <- $r7
	@DEBUG_VALUE: mbedtls_x509_crl_info:size <- $r5
	@DEBUG_VALUE: mbedtls_x509_crl_info:n <- $r5
	@DEBUG_VALUE: mbedtls_x509_crl_info:buf <- $r4
	@DEBUG_VALUE: mbedtls_x509_crl_info:p <- $r4
	@DEBUG_VALUE: mbedtls_x509_crl_info:ret <- $r0
	@DEBUG_VALUE: mbedtls_x509_crl_info:prefix <- [DW_OP_plus_uconst 48] [$sp+0]
	.loc	4 0 5 is_stmt 0                 @ ../../../ThirdParty/mbedTLS/library/x509_crl.c:0:5
	mov	r1, r5
	.loc	4 643 5                         @ ../../../ThirdParty/mbedTLS/library/x509_crl.c:643:5
	adds	r5, r4, r0
.Ltmp327:
	@DEBUG_VALUE: mbedtls_x509_crl_info:p <- $r5
	.loc	4 0 5                           @ ../../../ThirdParty/mbedTLS/library/x509_crl.c:0:5
	str	r1, [sp, #44]                   @ 4-byte Spill
	.loc	4 643 5                         @ ../../../ThirdParty/mbedTLS/library/x509_crl.c:643:5
	subs	r4, r1, r0
.Ltmp328:
	@DEBUG_VALUE: mbedtls_x509_crl_info:n <- $r4
	.loc	4 645 11 is_stmt 1              @ ../../../ThirdParty/mbedTLS/library/x509_crl.c:645:11
	adr	r2, .LCPI7_2
	mov	r0, r5
.Ltmp329:
	mov	r1, r4
	ldr	r3, [sp, #48]                   @ 4-byte Reload
	bl	__2snprintf
.Ltmp330:
	@DEBUG_VALUE: mbedtls_x509_crl_info:ret <- $r0
	.loc	4 646 5                         @ ../../../ThirdParty/mbedTLS/library/x509_crl.c:646:5
	cmp	r0, #0
	bpl	.LBB7_3
	b	.LBB7_31
.Ltmp331:
.LBB7_3:
	@DEBUG_VALUE: mbedtls_x509_crl_info:crl <- $r7
	@DEBUG_VALUE: mbedtls_x509_crl_info:p <- $r5
	@DEBUG_VALUE: mbedtls_x509_crl_info:n <- $r4
	@DEBUG_VALUE: mbedtls_x509_crl_info:ret <- $r0
	@DEBUG_VALUE: mbedtls_x509_crl_info:prefix <- [DW_OP_plus_uconst 48] [$sp+0]
	cmp	r4, r0
	bhi	.LBB7_4
	b	.LBB7_31
.Ltmp332:
.LBB7_4:
	@DEBUG_VALUE: mbedtls_x509_crl_info:crl <- $r7
	@DEBUG_VALUE: mbedtls_x509_crl_info:p <- $r5
	@DEBUG_VALUE: mbedtls_x509_crl_info:n <- $r4
	@DEBUG_VALUE: mbedtls_x509_crl_info:ret <- $r0
	@DEBUG_VALUE: mbedtls_x509_crl_info:prefix <- [DW_OP_plus_uconst 48] [$sp+0]
	.loc	4 646 5 is_stmt 0               @ ../../../ThirdParty/mbedTLS/library/x509_crl.c:646:5
	adds	r5, r5, r0
.Ltmp333:
	@DEBUG_VALUE: mbedtls_x509_crl_info:p <- $r5
	subs	r4, r4, r0
.Ltmp334:
	@DEBUG_VALUE: mbedtls_x509_crl_info:n <- $r4
	.loc	4 647 45 is_stmt 1              @ ../../../ThirdParty/mbedTLS/library/x509_crl.c:647:45
	mov	r2, r7
	adds	r2, #52
	.loc	4 647 11 is_stmt 0              @ ../../../ThirdParty/mbedTLS/library/x509_crl.c:647:11
	mov	r0, r5
.Ltmp335:
	mov	r1, r4
	bl	mbedtls_x509_dn_gets
.Ltmp336:
	@DEBUG_VALUE: mbedtls_x509_crl_info:ret <- $r0
	.loc	4 648 5 is_stmt 1               @ ../../../ThirdParty/mbedTLS/library/x509_crl.c:648:5
	cmp	r0, #0
	bpl	.LBB7_5
	b	.LBB7_31
.Ltmp337:
.LBB7_5:
	@DEBUG_VALUE: mbedtls_x509_crl_info:crl <- $r7
	@DEBUG_VALUE: mbedtls_x509_crl_info:p <- $r5
	@DEBUG_VALUE: mbedtls_x509_crl_info:n <- $r4
	@DEBUG_VALUE: mbedtls_x509_crl_info:ret <- $r0
	@DEBUG_VALUE: mbedtls_x509_crl_info:prefix <- [DW_OP_plus_uconst 48] [$sp+0]
	cmp	r4, r0
	bhi	.LBB7_6
	b	.LBB7_31
.Ltmp338:
.LBB7_6:
	@DEBUG_VALUE: mbedtls_x509_crl_info:crl <- $r7
	@DEBUG_VALUE: mbedtls_x509_crl_info:p <- $r5
	@DEBUG_VALUE: mbedtls_x509_crl_info:n <- $r4
	@DEBUG_VALUE: mbedtls_x509_crl_info:ret <- $r0
	@DEBUG_VALUE: mbedtls_x509_crl_info:prefix <- [DW_OP_plus_uconst 48] [$sp+0]
	.loc	4 652 46                        @ ../../../ThirdParty/mbedTLS/library/x509_crl.c:652:46
	ldr	r1, [r7, #84]
	.loc	4 652 69 is_stmt 0              @ ../../../ThirdParty/mbedTLS/library/x509_crl.c:652:69
	str	r1, [sp, #36]                   @ 4-byte Spill
	mov	r6, r7
	adds	r6, #88
	ldm	r6, {r2, r3, r6}
	.loc	4 654 46 is_stmt 1              @ ../../../ThirdParty/mbedTLS/library/x509_crl.c:654:46
	ldr	r1, [r7, #100]
	.loc	4 654 69 is_stmt 0              @ ../../../ThirdParty/mbedTLS/library/x509_crl.c:654:69
	str	r1, [sp, #40]                   @ 4-byte Spill
	ldr	r1, [r7, #104]
	.loc	4 650 11 is_stmt 1              @ ../../../ThirdParty/mbedTLS/library/x509_crl.c:650:11
	str	r1, [sp, #32]                   @ 4-byte Spill
	ldr	r1, [sp, #36]                   @ 4-byte Reload
	str	r1, [sp]
	str	r2, [sp, #4]
	str	r3, [sp, #8]
	str	r6, [sp, #12]
	ldr	r1, [sp, #40]                   @ 4-byte Reload
	str	r1, [sp, #16]
	ldr	r1, [sp, #32]                   @ 4-byte Reload
	str	r1, [sp, #20]
.Ltmp339:
	.loc	4 648 5                         @ ../../../ThirdParty/mbedTLS/library/x509_crl.c:648:5
	adds	r5, r5, r0
.Ltmp340:
	@DEBUG_VALUE: mbedtls_x509_crl_info:p <- $r5
	subs	r4, r4, r0
.Ltmp341:
	@DEBUG_VALUE: mbedtls_x509_crl_info:n <- $r4
	.loc	4 650 11                        @ ../../../ThirdParty/mbedTLS/library/x509_crl.c:650:11
	adr	r2, .LCPI7_3
	mov	r0, r5
.Ltmp342:
	mov	r1, r4
	ldr	r3, [sp, #48]                   @ 4-byte Reload
	bl	__2snprintf
.Ltmp343:
	@DEBUG_VALUE: mbedtls_x509_crl_info:ret <- $r0
	.loc	4 655 5                         @ ../../../ThirdParty/mbedTLS/library/x509_crl.c:655:5
	cmp	r0, #0
	bpl	.LBB7_7
	b	.LBB7_28
.Ltmp344:
.LBB7_7:
	@DEBUG_VALUE: mbedtls_x509_crl_info:crl <- $r7
	@DEBUG_VALUE: mbedtls_x509_crl_info:p <- $r5
	@DEBUG_VALUE: mbedtls_x509_crl_info:n <- $r4
	@DEBUG_VALUE: mbedtls_x509_crl_info:ret <- $r0
	@DEBUG_VALUE: mbedtls_x509_crl_info:prefix <- [DW_OP_plus_uconst 48] [$sp+0]
	cmp	r4, r0
	bhi	.LBB7_8
	b	.LBB7_29
.Ltmp345:
.LBB7_8:
	@DEBUG_VALUE: mbedtls_x509_crl_info:crl <- $r7
	@DEBUG_VALUE: mbedtls_x509_crl_info:p <- $r5
	@DEBUG_VALUE: mbedtls_x509_crl_info:n <- $r4
	@DEBUG_VALUE: mbedtls_x509_crl_info:ret <- $r0
	@DEBUG_VALUE: mbedtls_x509_crl_info:prefix <- [DW_OP_plus_uconst 48] [$sp+0]
	.loc	4 0 0 is_stmt 0                 @ ../../../ThirdParty/mbedTLS/library/x509_crl.c:0:0
	mov	r1, r7
	adds	r1, #128
	.loc	4 659 46 is_stmt 1              @ ../../../ThirdParty/mbedTLS/library/x509_crl.c:659:46
	ldr	r2, [r7, #108]
	.loc	4 659 69 is_stmt 0              @ ../../../ThirdParty/mbedTLS/library/x509_crl.c:659:69
	str	r2, [sp, #32]                   @ 4-byte Spill
	ldr	r3, [r7, #112]
	str	r5, [sp, #40]                   @ 4-byte Spill
.Ltmp346:
	@DEBUG_VALUE: mbedtls_x509_crl_info:p <- [DW_OP_plus_uconst 40] [$sp+0]
	.loc	4 660 46 is_stmt 1              @ ../../../ThirdParty/mbedTLS/library/x509_crl.c:660:46
	ldr	r5, [r7, #116]
	.loc	4 660 69 is_stmt 0              @ ../../../ThirdParty/mbedTLS/library/x509_crl.c:660:69
	ldr	r6, [r7, #120]
	.loc	4 661 46 is_stmt 1              @ ../../../ThirdParty/mbedTLS/library/x509_crl.c:661:46
	ldr	r2, [r7, #124]
	.loc	4 661 69 is_stmt 0              @ ../../../ThirdParty/mbedTLS/library/x509_crl.c:661:69
	str	r2, [sp, #36]                   @ 4-byte Spill
	ldr	r1, [r1]
	.loc	4 657 11 is_stmt 1              @ ../../../ThirdParty/mbedTLS/library/x509_crl.c:657:11
	ldr	r2, [sp, #32]                   @ 4-byte Reload
	str	r2, [sp]
	str	r3, [sp, #4]
	str	r5, [sp, #8]
	str	r6, [sp, #12]
	ldr	r2, [sp, #36]                   @ 4-byte Reload
	str	r2, [sp, #16]
	str	r1, [sp, #20]
.Ltmp347:
	.loc	4 655 5                         @ ../../../ThirdParty/mbedTLS/library/x509_crl.c:655:5
	ldr	r1, [sp, #40]                   @ 4-byte Reload
.Ltmp348:
	@DEBUG_VALUE: mbedtls_x509_crl_info:p <- $r1
	adds	r5, r1, r0
.Ltmp349:
	@DEBUG_VALUE: mbedtls_x509_crl_info:p <- $r5
	subs	r4, r4, r0
.Ltmp350:
	@DEBUG_VALUE: mbedtls_x509_crl_info:n <- $r4
	.loc	4 657 11                        @ ../../../ThirdParty/mbedTLS/library/x509_crl.c:657:11
	ldr	r2, __arm_cp.7_4
	mov	r0, r5
.Ltmp351:
	mov	r1, r4
	ldr	r3, [sp, #48]                   @ 4-byte Reload
	bl	__2snprintf
.Ltmp352:
	@DEBUG_VALUE: mbedtls_x509_crl_info:ret <- $r0
	.loc	4 662 5                         @ ../../../ThirdParty/mbedTLS/library/x509_crl.c:662:5
	cmp	r0, #0
	bpl	.LBB7_9
	b	.LBB7_30
.Ltmp353:
.LBB7_9:
	@DEBUG_VALUE: mbedtls_x509_crl_info:crl <- $r7
	@DEBUG_VALUE: mbedtls_x509_crl_info:p <- $r5
	@DEBUG_VALUE: mbedtls_x509_crl_info:n <- $r4
	@DEBUG_VALUE: mbedtls_x509_crl_info:ret <- $r0
	@DEBUG_VALUE: mbedtls_x509_crl_info:prefix <- [DW_OP_plus_uconst 48] [$sp+0]
	cmp	r4, r0
	ldr	r6, __arm_cp.7_1
	bls	.LBB7_31
.Ltmp354:
@ %bb.10:
	@DEBUG_VALUE: mbedtls_x509_crl_info:crl <- $r7
	@DEBUG_VALUE: mbedtls_x509_crl_info:p <- $r5
	@DEBUG_VALUE: mbedtls_x509_crl_info:n <- $r4
	@DEBUG_VALUE: mbedtls_x509_crl_info:ret <- $r0
	@DEBUG_VALUE: mbedtls_x509_crl_info:prefix <- [DW_OP_plus_uconst 48] [$sp+0]
	.loc	4 662 5 is_stmt 0               @ ../../../ThirdParty/mbedTLS/library/x509_crl.c:662:5
	adds	r5, r5, r0
.Ltmp355:
	@DEBUG_VALUE: mbedtls_x509_crl_info:p <- $r5
	subs	r4, r4, r0
.Ltmp356:
	@DEBUG_VALUE: mbedtls_x509_crl_info:entry <- [DW_OP_plus_uconst 132, DW_OP_stack_value] $r7
	@DEBUG_VALUE: mbedtls_x509_crl_info:n <- $r4
	.loc	4 666 11 is_stmt 1              @ ../../../ThirdParty/mbedTLS/library/x509_crl.c:666:11
	adr	r2, .LCPI7_5
	mov	r0, r5
.Ltmp357:
	mov	r1, r4
	ldr	r3, [sp, #48]                   @ 4-byte Reload
	bl	__2snprintf
.Ltmp358:
	@DEBUG_VALUE: mbedtls_x509_crl_info:ret <- $r0
	.loc	4 668 5                         @ ../../../ThirdParty/mbedTLS/library/x509_crl.c:668:5
	cmp	r0, #0
	bmi	.LBB7_31
.Ltmp359:
@ %bb.11:
	@DEBUG_VALUE: mbedtls_x509_crl_info:entry <- [DW_OP_plus_uconst 132, DW_OP_stack_value] $r7
	@DEBUG_VALUE: mbedtls_x509_crl_info:crl <- $r7
	@DEBUG_VALUE: mbedtls_x509_crl_info:p <- $r5
	@DEBUG_VALUE: mbedtls_x509_crl_info:n <- $r4
	@DEBUG_VALUE: mbedtls_x509_crl_info:ret <- $r0
	@DEBUG_VALUE: mbedtls_x509_crl_info:prefix <- [DW_OP_plus_uconst 48] [$sp+0]
	cmp	r4, r0
	bls	.LBB7_31
.Ltmp360:
@ %bb.12:
	@DEBUG_VALUE: mbedtls_x509_crl_info:entry <- [DW_OP_plus_uconst 132, DW_OP_stack_value] $r7
	@DEBUG_VALUE: mbedtls_x509_crl_info:crl <- $r7
	@DEBUG_VALUE: mbedtls_x509_crl_info:p <- $r5
	@DEBUG_VALUE: mbedtls_x509_crl_info:n <- $r4
	@DEBUG_VALUE: mbedtls_x509_crl_info:ret <- $r0
	@DEBUG_VALUE: mbedtls_x509_crl_info:prefix <- [DW_OP_plus_uconst 48] [$sp+0]
	.loc	4 0 0 is_stmt 0                 @ ../../../ThirdParty/mbedTLS/library/x509_crl.c:0:0
	mov	r1, r7
	adds	r1, #232
	str	r1, [sp, #24]                   @ 4-byte Spill
.Ltmp361:
	.loc	4 668 5                         @ ../../../ThirdParty/mbedTLS/library/x509_crl.c:668:5
	adds	r5, r5, r0
.Ltmp362:
	@DEBUG_VALUE: mbedtls_x509_crl_info:p <- $r5
	subs	r4, r4, r0
.Ltmp363:
	@DEBUG_VALUE: mbedtls_x509_crl_info:n <- $r4
	.loc	4 664 19 is_stmt 1              @ ../../../ThirdParty/mbedTLS/library/x509_crl.c:664:19
	mov	r6, r7
	adds	r6, #132
.Ltmp364:
	@DEBUG_VALUE: mbedtls_x509_crl_info:entry <- $r6
.LBB7_13:                               @ =>This Inner Loop Header: Depth=1
	@DEBUG_VALUE: mbedtls_x509_crl_info:crl <- $r7
	@DEBUG_VALUE: mbedtls_x509_crl_info:entry <- $r6
	@DEBUG_VALUE: mbedtls_x509_crl_info:p <- $r5
	@DEBUG_VALUE: mbedtls_x509_crl_info:n <- $r4
	@DEBUG_VALUE: mbedtls_x509_crl_info:ret <- $r0
	@DEBUG_VALUE: mbedtls_x509_crl_info:prefix <- [DW_OP_plus_uconst 48] [$sp+0]
	@DEBUG_VALUE: mbedtls_x509_crl_info:p <- $r5
	@DEBUG_VALUE: mbedtls_x509_crl_info:n <- $r4
	@DEBUG_VALUE: mbedtls_x509_crl_info:entry <- $r6
	.loc	4 670 40                        @ ../../../ThirdParty/mbedTLS/library/x509_crl.c:670:40
	ldr	r0, [r6, #4]
.Ltmp365:
	.loc	4 670 5 is_stmt 0               @ ../../../ThirdParty/mbedTLS/library/x509_crl.c:670:5
	cbz	r0, .LBB7_21
.Ltmp366:
@ %bb.14:                               @   in Loop: Header=BB7_13 Depth=1
	@DEBUG_VALUE: mbedtls_x509_crl_info:crl <- $r7
	@DEBUG_VALUE: mbedtls_x509_crl_info:entry <- $r6
	@DEBUG_VALUE: mbedtls_x509_crl_info:p <- $r5
	@DEBUG_VALUE: mbedtls_x509_crl_info:n <- $r4
	@DEBUG_VALUE: mbedtls_x509_crl_info:prefix <- [DW_OP_plus_uconst 48] [$sp+0]
	.loc	4 672 15 is_stmt 1              @ ../../../ThirdParty/mbedTLS/library/x509_crl.c:672:15
	mov	r0, r5
	mov	r1, r4
	adr	r2, .LCPI7_6
	ldr	r3, [sp, #48]                   @ 4-byte Reload
	bl	__2snprintf
.Ltmp367:
	@DEBUG_VALUE: mbedtls_x509_crl_info:ret <- $r0
	.loc	4 674 9                         @ ../../../ThirdParty/mbedTLS/library/x509_crl.c:674:9
	cmp	r0, #0
	bmi	.LBB7_32
.Ltmp368:
@ %bb.15:                               @   in Loop: Header=BB7_13 Depth=1
	@DEBUG_VALUE: mbedtls_x509_crl_info:crl <- $r7
	@DEBUG_VALUE: mbedtls_x509_crl_info:entry <- $r6
	@DEBUG_VALUE: mbedtls_x509_crl_info:p <- $r5
	@DEBUG_VALUE: mbedtls_x509_crl_info:n <- $r4
	@DEBUG_VALUE: mbedtls_x509_crl_info:ret <- $r0
	@DEBUG_VALUE: mbedtls_x509_crl_info:prefix <- [DW_OP_plus_uconst 48] [$sp+0]
	cmp	r4, r0
	bls	.LBB7_33
.Ltmp369:
@ %bb.16:                               @   in Loop: Header=BB7_13 Depth=1
	@DEBUG_VALUE: mbedtls_x509_crl_info:crl <- $r7
	@DEBUG_VALUE: mbedtls_x509_crl_info:entry <- $r6
	@DEBUG_VALUE: mbedtls_x509_crl_info:p <- $r5
	@DEBUG_VALUE: mbedtls_x509_crl_info:n <- $r4
	@DEBUG_VALUE: mbedtls_x509_crl_info:ret <- $r0
	@DEBUG_VALUE: mbedtls_x509_crl_info:prefix <- [DW_OP_plus_uconst 48] [$sp+0]
	.loc	4 674 9 is_stmt 0               @ ../../../ThirdParty/mbedTLS/library/x509_crl.c:674:9
	adds	r5, r5, r0
.Ltmp370:
	@DEBUG_VALUE: mbedtls_x509_crl_info:p <- $r5
	subs	r4, r4, r0
.Ltmp371:
	@DEBUG_VALUE: mbedtls_x509_crl_info:n <- $r4
	.loc	4 676 55 is_stmt 1              @ ../../../ThirdParty/mbedTLS/library/x509_crl.c:676:55
	mov	r2, r6
	adds	r2, #12
	.loc	4 676 15 is_stmt 0              @ ../../../ThirdParty/mbedTLS/library/x509_crl.c:676:15
	mov	r0, r5
.Ltmp372:
	mov	r1, r4
	bl	mbedtls_x509_serial_gets
.Ltmp373:
	@DEBUG_VALUE: mbedtls_x509_crl_info:ret <- $r0
	.loc	4 677 9 is_stmt 1               @ ../../../ThirdParty/mbedTLS/library/x509_crl.c:677:9
	cmp	r0, #0
	bmi	.LBB7_34
.Ltmp374:
@ %bb.17:                               @   in Loop: Header=BB7_13 Depth=1
	@DEBUG_VALUE: mbedtls_x509_crl_info:crl <- $r7
	@DEBUG_VALUE: mbedtls_x509_crl_info:entry <- $r6
	@DEBUG_VALUE: mbedtls_x509_crl_info:p <- $r5
	@DEBUG_VALUE: mbedtls_x509_crl_info:n <- $r4
	@DEBUG_VALUE: mbedtls_x509_crl_info:ret <- $r0
	@DEBUG_VALUE: mbedtls_x509_crl_info:prefix <- [DW_OP_plus_uconst 48] [$sp+0]
	cmp	r4, r0
	bls	.LBB7_35
.Ltmp375:
@ %bb.18:                               @   in Loop: Header=BB7_13 Depth=1
	@DEBUG_VALUE: mbedtls_x509_crl_info:crl <- $r7
	@DEBUG_VALUE: mbedtls_x509_crl_info:entry <- $r6
	@DEBUG_VALUE: mbedtls_x509_crl_info:p <- $r5
	@DEBUG_VALUE: mbedtls_x509_crl_info:n <- $r4
	@DEBUG_VALUE: mbedtls_x509_crl_info:ret <- $r0
	@DEBUG_VALUE: mbedtls_x509_crl_info:prefix <- [DW_OP_plus_uconst 48] [$sp+0]
	.loc	4 681 56                        @ ../../../ThirdParty/mbedTLS/library/x509_crl.c:681:56
	ldr	r1, [r6, #24]
	.loc	4 681 85 is_stmt 0              @ ../../../ThirdParty/mbedTLS/library/x509_crl.c:681:85
	str	r1, [sp, #40]                   @ 4-byte Spill
	ldr	r1, [r6, #28]
	.loc	4 682 56 is_stmt 1              @ ../../../ThirdParty/mbedTLS/library/x509_crl.c:682:56
	str	r1, [sp, #32]                   @ 4-byte Spill
	ldr	r2, [r6, #32]
	.loc	4 682 85 is_stmt 0              @ ../../../ThirdParty/mbedTLS/library/x509_crl.c:682:85
	ldr	r3, [r6, #36]
	.loc	4 683 56 is_stmt 1              @ ../../../ThirdParty/mbedTLS/library/x509_crl.c:683:56
	ldr	r1, [r6, #40]
	.loc	4 683 85 is_stmt 0              @ ../../../ThirdParty/mbedTLS/library/x509_crl.c:683:85
	str	r1, [sp, #36]                   @ 4-byte Spill
	ldr	r1, [r6, #44]
	.loc	4 679 15 is_stmt 1              @ ../../../ThirdParty/mbedTLS/library/x509_crl.c:679:15
	str	r1, [sp, #28]                   @ 4-byte Spill
	ldr	r1, [sp, #32]                   @ 4-byte Reload
	str	r1, [sp]
	str	r2, [sp, #4]
	str	r3, [sp, #8]
	ldr	r1, [sp, #36]                   @ 4-byte Reload
	str	r1, [sp, #12]
	ldr	r1, [sp, #28]                   @ 4-byte Reload
	str	r1, [sp, #16]
.Ltmp376:
	.loc	4 677 9                         @ ../../../ThirdParty/mbedTLS/library/x509_crl.c:677:9
	adds	r5, r5, r0
.Ltmp377:
	@DEBUG_VALUE: mbedtls_x509_crl_info:p <- $r5
	subs	r4, r4, r0
.Ltmp378:
	@DEBUG_VALUE: mbedtls_x509_crl_info:n <- $r4
	.loc	4 679 15                        @ ../../../ThirdParty/mbedTLS/library/x509_crl.c:679:15
	mov	r0, r5
.Ltmp379:
	mov	r1, r4
	ldr	r2, __arm_cp.7_7
	ldr	r3, [sp, #40]                   @ 4-byte Reload
	bl	__2snprintf
.Ltmp380:
	@DEBUG_VALUE: mbedtls_x509_crl_info:ret <- $r0
	.loc	4 684 9                         @ ../../../ThirdParty/mbedTLS/library/x509_crl.c:684:9
	cmp	r0, #0
	bmi	.LBB7_36
.Ltmp381:
@ %bb.19:                               @   in Loop: Header=BB7_13 Depth=1
	@DEBUG_VALUE: mbedtls_x509_crl_info:crl <- $r7
	@DEBUG_VALUE: mbedtls_x509_crl_info:entry <- $r6
	@DEBUG_VALUE: mbedtls_x509_crl_info:p <- $r5
	@DEBUG_VALUE: mbedtls_x509_crl_info:n <- $r4
	@DEBUG_VALUE: mbedtls_x509_crl_info:ret <- $r0
	@DEBUG_VALUE: mbedtls_x509_crl_info:prefix <- [DW_OP_plus_uconst 48] [$sp+0]
	cmp	r4, r0
	bls	.LBB7_37
.Ltmp382:
@ %bb.20:                               @   in Loop: Header=BB7_13 Depth=1
	@DEBUG_VALUE: mbedtls_x509_crl_info:crl <- $r7
	@DEBUG_VALUE: mbedtls_x509_crl_info:entry <- $r6
	@DEBUG_VALUE: mbedtls_x509_crl_info:p <- $r5
	@DEBUG_VALUE: mbedtls_x509_crl_info:n <- $r4
	@DEBUG_VALUE: mbedtls_x509_crl_info:ret <- $r0
	@DEBUG_VALUE: mbedtls_x509_crl_info:prefix <- [DW_OP_plus_uconst 48] [$sp+0]
	.loc	4 684 9 is_stmt 0               @ ../../../ThirdParty/mbedTLS/library/x509_crl.c:684:9
	adds	r5, r5, r0
.Ltmp383:
	@DEBUG_VALUE: mbedtls_x509_crl_info:p <- $r5
	subs	r4, r4, r0
.Ltmp384:
	@DEBUG_VALUE: mbedtls_x509_crl_info:n <- $r4
	.loc	4 686 24 is_stmt 1              @ ../../../ThirdParty/mbedTLS/library/x509_crl.c:686:24
	ldr	r6, [r6, #60]
.Ltmp385:
	@DEBUG_VALUE: mbedtls_x509_crl_info:entry <- $r6
	.loc	4 670 26                        @ ../../../ThirdParty/mbedTLS/library/x509_crl.c:670:26
	cmp	r6, #0
	bne	.LBB7_13
.Ltmp386:
.LBB7_21:
	@DEBUG_VALUE: mbedtls_x509_crl_info:crl <- $r7
	@DEBUG_VALUE: mbedtls_x509_crl_info:entry <- $r6
	@DEBUG_VALUE: mbedtls_x509_crl_info:p <- $r5
	@DEBUG_VALUE: mbedtls_x509_crl_info:n <- $r4
	@DEBUG_VALUE: mbedtls_x509_crl_info:prefix <- [DW_OP_plus_uconst 48] [$sp+0]
	@DEBUG_VALUE: mbedtls_x509_crl_info:p <- $r5
	@DEBUG_VALUE: mbedtls_x509_crl_info:n <- $r4
	.loc	4 689 11                        @ ../../../ThirdParty/mbedTLS/library/x509_crl.c:689:11
	ldr	r2, __arm_cp.7_8
	mov	r0, r5
	mov	r1, r4
	ldr	r3, [sp, #48]                   @ 4-byte Reload
	bl	__2snprintf
.Ltmp387:
	@DEBUG_VALUE: mbedtls_x509_crl_info:ret <- $r0
	.loc	4 690 5                         @ ../../../ThirdParty/mbedTLS/library/x509_crl.c:690:5
	cmp	r0, #0
	ldr	r6, __arm_cp.7_1
.Ltmp388:
	bmi	.LBB7_31
.Ltmp389:
@ %bb.22:
	@DEBUG_VALUE: mbedtls_x509_crl_info:crl <- $r7
	@DEBUG_VALUE: mbedtls_x509_crl_info:p <- $r5
	@DEBUG_VALUE: mbedtls_x509_crl_info:n <- $r4
	@DEBUG_VALUE: mbedtls_x509_crl_info:ret <- $r0
	@DEBUG_VALUE: mbedtls_x509_crl_info:prefix <- [DW_OP_plus_uconst 48] [$sp+0]
	cmp	r4, r0
	bls	.LBB7_31
.Ltmp390:
@ %bb.23:
	@DEBUG_VALUE: mbedtls_x509_crl_info:crl <- $r7
	@DEBUG_VALUE: mbedtls_x509_crl_info:p <- $r5
	@DEBUG_VALUE: mbedtls_x509_crl_info:n <- $r4
	@DEBUG_VALUE: mbedtls_x509_crl_info:ret <- $r0
	@DEBUG_VALUE: mbedtls_x509_crl_info:prefix <- [DW_OP_plus_uconst 48] [$sp+0]
	.loc	4 0 5 is_stmt 0                 @ ../../../ThirdParty/mbedTLS/library/x509_crl.c:0:5
	ldr	r2, [sp, #24]                   @ 4-byte Reload
	.loc	4 692 64 is_stmt 1              @ ../../../ThirdParty/mbedTLS/library/x509_crl.c:692:64
	ldrb	r3, [r2, #1]
	.loc	4 692 77 is_stmt 0              @ ../../../ThirdParty/mbedTLS/library/x509_crl.c:692:77
	ldrb	r1, [r2]
	.loc	4 693 43 is_stmt 1              @ ../../../ThirdParty/mbedTLS/library/x509_crl.c:693:43
	ldr	r2, [r2, #4]
	.loc	4 692 11                        @ ../../../ThirdParty/mbedTLS/library/x509_crl.c:692:11
	str	r1, [sp]
	str	r2, [sp, #4]
.Ltmp391:
	.loc	4 690 5                         @ ../../../ThirdParty/mbedTLS/library/x509_crl.c:690:5
	adds	r5, r5, r0
.Ltmp392:
	@DEBUG_VALUE: mbedtls_x509_crl_info:p <- $r5
	subs	r4, r4, r0
.Ltmp393:
	@DEBUG_VALUE: mbedtls_x509_crl_info:n <- $r4
	.loc	4 692 50                        @ ../../../ThirdParty/mbedTLS/library/x509_crl.c:692:50
	adds	r7, #28
.Ltmp394:
	.loc	4 692 11 is_stmt 0              @ ../../../ThirdParty/mbedTLS/library/x509_crl.c:692:11
	mov	r0, r5
.Ltmp395:
	mov	r1, r4
	mov	r2, r7
	bl	mbedtls_x509_sig_alg_gets
.Ltmp396:
	@DEBUG_VALUE: mbedtls_x509_crl_info:ret <- $r0
	.loc	4 694 5 is_stmt 1               @ ../../../ThirdParty/mbedTLS/library/x509_crl.c:694:5
	cmp	r0, #0
	bmi	.LBB7_31
.Ltmp397:
@ %bb.24:
	@DEBUG_VALUE: mbedtls_x509_crl_info:p <- $r5
	@DEBUG_VALUE: mbedtls_x509_crl_info:n <- $r4
	@DEBUG_VALUE: mbedtls_x509_crl_info:ret <- $r0
	@DEBUG_VALUE: mbedtls_x509_crl_info:prefix <- [DW_OP_plus_uconst 48] [$sp+0]
	cmp	r4, r0
	bls	.LBB7_31
.Ltmp398:
@ %bb.25:
	@DEBUG_VALUE: mbedtls_x509_crl_info:p <- $r5
	@DEBUG_VALUE: mbedtls_x509_crl_info:n <- $r4
	@DEBUG_VALUE: mbedtls_x509_crl_info:ret <- $r0
	@DEBUG_VALUE: mbedtls_x509_crl_info:prefix <- [DW_OP_plus_uconst 48] [$sp+0]
	.loc	4 694 5 is_stmt 0               @ ../../../ThirdParty/mbedTLS/library/x509_crl.c:694:5
	adds	r1, r5, r0
.Ltmp399:
	@DEBUG_VALUE: mbedtls_x509_crl_info:p <- $r1
	subs	r4, r4, r0
.Ltmp400:
	@DEBUG_VALUE: mbedtls_x509_crl_info:n <- $r4
	.loc	4 696 11 is_stmt 1              @ ../../../ThirdParty/mbedTLS/library/x509_crl.c:696:11
	adr	r2, .LCPI7_9
	mov	r0, r1
.Ltmp401:
	mov	r1, r4
.Ltmp402:
	bl	__2snprintf
.Ltmp403:
	@DEBUG_VALUE: mbedtls_x509_crl_info:ret <- $r0
	.loc	4 697 5                         @ ../../../ThirdParty/mbedTLS/library/x509_crl.c:697:5
	cmp	r0, #0
	bmi	.LBB7_31
.Ltmp404:
@ %bb.26:
	@DEBUG_VALUE: mbedtls_x509_crl_info:n <- $r4
	@DEBUG_VALUE: mbedtls_x509_crl_info:ret <- $r0
	@DEBUG_VALUE: mbedtls_x509_crl_info:prefix <- [DW_OP_plus_uconst 48] [$sp+0]
	cmp	r0, r4
	bhs	.LBB7_31
.Ltmp405:
@ %bb.27:
	@DEBUG_VALUE: mbedtls_x509_crl_info:n <- $r4
	@DEBUG_VALUE: mbedtls_x509_crl_info:ret <- $r0
	@DEBUG_VALUE: mbedtls_x509_crl_info:prefix <- [DW_OP_plus_uconst 48] [$sp+0]
	@DEBUG_VALUE: mbedtls_x509_crl_info:p <- undef
	@DEBUG_VALUE: mbedtls_x509_crl_info:n <- undef
	.loc	4 697 5 is_stmt 0               @ ../../../ThirdParty/mbedTLS/library/x509_crl.c:697:5
	ldr	r1, [sp, #44]                   @ 4-byte Reload
	subs	r1, r1, r4
.Ltmp406:
	.loc	4 699 26 is_stmt 1              @ ../../../ThirdParty/mbedTLS/library/x509_crl.c:699:26
	adds	r6, r1, r0
	b	.LBB7_31
.Ltmp407:
.LBB7_28:
	@DEBUG_VALUE: mbedtls_x509_crl_info:crl <- $r7
	@DEBUG_VALUE: mbedtls_x509_crl_info:p <- $r5
	@DEBUG_VALUE: mbedtls_x509_crl_info:n <- $r4
	@DEBUG_VALUE: mbedtls_x509_crl_info:ret <- $r0
	@DEBUG_VALUE: mbedtls_x509_crl_info:prefix <- [DW_OP_plus_uconst 48] [$sp+0]
	.loc	4 0 26 is_stmt 0                @ ../../../ThirdParty/mbedTLS/library/x509_crl.c:0:26
	ldr	r6, __arm_cp.7_1
	b	.LBB7_31
.Ltmp408:
.LBB7_29:
	@DEBUG_VALUE: mbedtls_x509_crl_info:crl <- $r7
	@DEBUG_VALUE: mbedtls_x509_crl_info:p <- $r5
	@DEBUG_VALUE: mbedtls_x509_crl_info:n <- $r4
	@DEBUG_VALUE: mbedtls_x509_crl_info:ret <- $r0
	@DEBUG_VALUE: mbedtls_x509_crl_info:prefix <- [DW_OP_plus_uconst 48] [$sp+0]
	ldr	r6, __arm_cp.7_1
	b	.LBB7_31
.Ltmp409:
.LBB7_30:
	@DEBUG_VALUE: mbedtls_x509_crl_info:crl <- $r7
	@DEBUG_VALUE: mbedtls_x509_crl_info:p <- $r5
	@DEBUG_VALUE: mbedtls_x509_crl_info:n <- $r4
	@DEBUG_VALUE: mbedtls_x509_crl_info:ret <- $r0
	@DEBUG_VALUE: mbedtls_x509_crl_info:prefix <- [DW_OP_plus_uconst 48] [$sp+0]
	ldr	r6, __arm_cp.7_1
.Ltmp410:
.LBB7_31:
	@DEBUG_VALUE: mbedtls_x509_crl_info:ret <- $r0
	@DEBUG_VALUE: mbedtls_x509_crl_info:prefix <- [DW_OP_plus_uconst 48] [$sp+0]
	.loc	4 700 1 is_stmt 1               @ ../../../ThirdParty/mbedTLS/library/x509_crl.c:700:1
	mov	r0, r6
.Ltmp411:
	add	sp, #52
.Ltmp412:
	pop	{r4, r5, r6, r7, pc}
.Ltmp413:
.LBB7_32:
	@DEBUG_VALUE: mbedtls_x509_crl_info:crl <- $r7
	@DEBUG_VALUE: mbedtls_x509_crl_info:entry <- $r6
	@DEBUG_VALUE: mbedtls_x509_crl_info:p <- $r5
	@DEBUG_VALUE: mbedtls_x509_crl_info:n <- $r4
	@DEBUG_VALUE: mbedtls_x509_crl_info:ret <- $r0
	@DEBUG_VALUE: mbedtls_x509_crl_info:prefix <- [DW_OP_plus_uconst 48] [$sp+0]
	.loc	4 0 1 is_stmt 0                 @ ../../../ThirdParty/mbedTLS/library/x509_crl.c:0:1
	ldr	r6, __arm_cp.7_1
.Ltmp414:
	b	.LBB7_31
.Ltmp415:
.LBB7_33:
	@DEBUG_VALUE: mbedtls_x509_crl_info:crl <- $r7
	@DEBUG_VALUE: mbedtls_x509_crl_info:entry <- $r6
	@DEBUG_VALUE: mbedtls_x509_crl_info:p <- $r5
	@DEBUG_VALUE: mbedtls_x509_crl_info:n <- $r4
	@DEBUG_VALUE: mbedtls_x509_crl_info:ret <- $r0
	@DEBUG_VALUE: mbedtls_x509_crl_info:prefix <- [DW_OP_plus_uconst 48] [$sp+0]
	ldr	r6, __arm_cp.7_1
.Ltmp416:
	b	.LBB7_31
.Ltmp417:
.LBB7_34:
	@DEBUG_VALUE: mbedtls_x509_crl_info:crl <- $r7
	@DEBUG_VALUE: mbedtls_x509_crl_info:entry <- $r6
	@DEBUG_VALUE: mbedtls_x509_crl_info:p <- $r5
	@DEBUG_VALUE: mbedtls_x509_crl_info:n <- $r4
	@DEBUG_VALUE: mbedtls_x509_crl_info:ret <- $r0
	@DEBUG_VALUE: mbedtls_x509_crl_info:prefix <- [DW_OP_plus_uconst 48] [$sp+0]
	ldr	r6, __arm_cp.7_1
.Ltmp418:
	b	.LBB7_31
.Ltmp419:
.LBB7_35:
	@DEBUG_VALUE: mbedtls_x509_crl_info:crl <- $r7
	@DEBUG_VALUE: mbedtls_x509_crl_info:entry <- $r6
	@DEBUG_VALUE: mbedtls_x509_crl_info:p <- $r5
	@DEBUG_VALUE: mbedtls_x509_crl_info:n <- $r4
	@DEBUG_VALUE: mbedtls_x509_crl_info:ret <- $r0
	@DEBUG_VALUE: mbedtls_x509_crl_info:prefix <- [DW_OP_plus_uconst 48] [$sp+0]
	ldr	r6, __arm_cp.7_1
.Ltmp420:
	b	.LBB7_31
.Ltmp421:
.LBB7_36:
	@DEBUG_VALUE: mbedtls_x509_crl_info:crl <- $r7
	@DEBUG_VALUE: mbedtls_x509_crl_info:entry <- $r6
	@DEBUG_VALUE: mbedtls_x509_crl_info:p <- $r5
	@DEBUG_VALUE: mbedtls_x509_crl_info:n <- $r4
	@DEBUG_VALUE: mbedtls_x509_crl_info:ret <- $r0
	@DEBUG_VALUE: mbedtls_x509_crl_info:prefix <- [DW_OP_plus_uconst 48] [$sp+0]
	ldr	r6, __arm_cp.7_1
.Ltmp422:
	b	.LBB7_31
.Ltmp423:
.LBB7_37:
	@DEBUG_VALUE: mbedtls_x509_crl_info:crl <- $r7
	@DEBUG_VALUE: mbedtls_x509_crl_info:entry <- $r6
	@DEBUG_VALUE: mbedtls_x509_crl_info:p <- $r5
	@DEBUG_VALUE: mbedtls_x509_crl_info:n <- $r4
	@DEBUG_VALUE: mbedtls_x509_crl_info:ret <- $r0
	@DEBUG_VALUE: mbedtls_x509_crl_info:prefix <- [DW_OP_plus_uconst 48] [$sp+0]
	ldr	r6, __arm_cp.7_1
.Ltmp424:
	b	.LBB7_31
.Ltmp425:
	.p2align	2
@ %bb.38:
.LCPI7_0:
.L.str.2:
	.asciz	"%sCRL version   : %d\000\000\000"
__arm_cp.7_1:
	.long	4294956672                      @ 0xffffd680
.Lcpi_end10:
	.size	__arm_cp.7_1, .Lcpi_end10-__arm_cp.7_1
.LCPI7_2:
.L.str.3:
	.asciz	"\n%sissuer name   : "
.LCPI7_3:
.L.str.4:
	.asciz	"\n%sthis update   : %04d-%02d-%02d %02d:%02d:%02d\000\000\000"
__arm_cp.7_4:
	.long	.L.str.5
.Lcpi_end11:
	.size	__arm_cp.7_4, .Lcpi_end11-__arm_cp.7_4
.LCPI7_5:
.L.str.6:
	.asciz	"\n%sRevoked certificates:\000\000\000"
.LCPI7_6:
.L.str.7:
	.asciz	"\n%sserial number: \000"
__arm_cp.7_7:
	.long	.L.str.8
.Lcpi_end12:
	.size	__arm_cp.7_7, .Lcpi_end12-__arm_cp.7_7
__arm_cp.7_8:
	.long	.L.str.9
.Lcpi_end13:
	.size	__arm_cp.7_8, .Lcpi_end13-__arm_cp.7_8
.LCPI7_9:
.L.str.10:
	.asciz	"\n\000\000"
.Lfunc_end7:
	.size	mbedtls_x509_crl_info, .Lfunc_end7-mbedtls_x509_crl_info
	.cfi_endproc
	.cantunwind
	.fnend
                                        @ -- End function
	.section	.text.x509_get_crl_entry_ext,"ax",%progbits
	.p2align	2                               @ -- Begin function x509_get_crl_entry_ext
	.type	x509_get_crl_entry_ext,%function
	.code	16                              @ @x509_get_crl_entry_ext
	.thumb_func
x509_get_crl_entry_ext:
.Lfunc_begin8:
	.loc	4 183 0 is_stmt 1               @ ../../../ThirdParty/mbedTLS/library/x509_crl.c:183:0
	.fnstart
	.cfi_startproc
@ %bb.0:
	@DEBUG_VALUE: x509_get_crl_entry_ext:p <- $r0
	@DEBUG_VALUE: x509_get_crl_entry_ext:end <- $r1
	@DEBUG_VALUE: x509_get_crl_entry_ext:ext <- $r2
	.save	{r4, r5, r6, lr}
	push	{r4, r5, r6, lr}
	.cfi_def_cfa_offset 16
	.cfi_offset lr, -4
	.cfi_offset r6, -8
	.cfi_offset r5, -12
	.cfi_offset r4, -16
	.pad	#8
	sub	sp, #8
	.cfi_def_cfa_offset 24
	mov	r5, r2
	mov	r4, r0
	movs	r0, #0
.Ltmp426:
	@DEBUG_VALUE: x509_get_crl_entry_ext:p <- [DW_OP_LLVM_entry_value 1] $r0
	@DEBUG_VALUE: x509_get_crl_entry_ext:len <- 0
	@DEBUG_VALUE: x509_get_crl_entry_ext:ext <- $r5
	@DEBUG_VALUE: x509_get_crl_entry_ext:end <- $r1
	@DEBUG_VALUE: x509_get_crl_entry_ext:p <- $r4
	.loc	4 185 12 prologue_end           @ ../../../ThirdParty/mbedTLS/library/x509_crl.c:185:12
	str	r0, [sp, #4]
.Ltmp427:
	.loc	4 188 16                        @ ../../../ThirdParty/mbedTLS/library/x509_crl.c:188:16
	ldr	r2, [r4]
.Ltmp428:
	.loc	4 188 9 is_stmt 0               @ ../../../ThirdParty/mbedTLS/library/x509_crl.c:188:9
	cmp	r2, r1
	bhs	.LBB8_10
.Ltmp429:
@ %bb.1:
	@DEBUG_VALUE: x509_get_crl_entry_ext:ext <- $r5
	@DEBUG_VALUE: x509_get_crl_entry_ext:p <- $r4
	@DEBUG_VALUE: x509_get_crl_entry_ext:end <- $r1
	@DEBUG_VALUE: x509_get_crl_entry_ext:len <- 0
	.loc	4 191 16 is_stmt 1              @ ../../../ThirdParty/mbedTLS/library/x509_crl.c:191:16
	ldrb	r0, [r2]
	.loc	4 191 14 is_stmt 0              @ ../../../ThirdParty/mbedTLS/library/x509_crl.c:191:14
	str	r0, [r5]
	.loc	4 192 14 is_stmt 1              @ ../../../ThirdParty/mbedTLS/library/x509_crl.c:192:14
	ldr	r0, [r4]
	.loc	4 192 12 is_stmt 0              @ ../../../ThirdParty/mbedTLS/library/x509_crl.c:192:12
	str	r0, [r5, #8]
.Ltmp430:
	.loc	4 198 53 is_stmt 1              @ ../../../ThirdParty/mbedTLS/library/x509_crl.c:198:53
	adds	r6, r5, #4
	movs	r3, #48
	.loc	4 198 17 is_stmt 0              @ ../../../ThirdParty/mbedTLS/library/x509_crl.c:198:17
	mov	r0, r4
	mov	r2, r6
	bl	mbedtls_asn1_get_tag
.Ltmp431:
	@DEBUG_VALUE: x509_get_crl_entry_ext:end <- [DW_OP_LLVM_entry_value 1] $r1
	@DEBUG_VALUE: x509_get_crl_entry_ext:ret <- $r0
	.loc	4 198 9                         @ ../../../ThirdParty/mbedTLS/library/x509_crl.c:198:9
	cbz	r0, .LBB8_4
.Ltmp432:
@ %bb.2:
	@DEBUG_VALUE: x509_get_crl_entry_ext:ext <- $r5
	@DEBUG_VALUE: x509_get_crl_entry_ext:p <- $r4
	@DEBUG_VALUE: x509_get_crl_entry_ext:ret <- $r0
	@DEBUG_VALUE: x509_get_crl_entry_ext:end <- [DW_OP_LLVM_entry_value 1] $r1
	@DEBUG_VALUE: x509_get_crl_entry_ext:len <- 0
	mov	r1, r0
	adds	r1, #98
	bne	.LBB8_11
.Ltmp433:
@ %bb.3:
	@DEBUG_VALUE: x509_get_crl_entry_ext:ext <- $r5
	@DEBUG_VALUE: x509_get_crl_entry_ext:p <- $r4
	@DEBUG_VALUE: x509_get_crl_entry_ext:ret <- $r0
	@DEBUG_VALUE: x509_get_crl_entry_ext:end <- [DW_OP_LLVM_entry_value 1] $r1
	@DEBUG_VALUE: x509_get_crl_entry_ext:len <- 0
	.loc	4 0 9                           @ ../../../ThirdParty/mbedTLS/library/x509_crl.c:0:9
	movs	r0, #0
.Ltmp434:
	.loc	4 203 20 is_stmt 1              @ ../../../ThirdParty/mbedTLS/library/x509_crl.c:203:20
	str	r0, [r5, #8]
.Ltmp435:
	.loc	4 229 1                         @ ../../../ThirdParty/mbedTLS/library/x509_crl.c:229:1
	add	sp, #8
	pop	{r4, r5, r6, pc}
.Ltmp436:
.LBB8_4:
	@DEBUG_VALUE: x509_get_crl_entry_ext:ext <- $r5
	@DEBUG_VALUE: x509_get_crl_entry_ext:p <- $r4
	@DEBUG_VALUE: x509_get_crl_entry_ext:ret <- $r0
	@DEBUG_VALUE: x509_get_crl_entry_ext:end <- [DW_OP_LLVM_entry_value 1] $r1
	@DEBUG_VALUE: x509_get_crl_entry_ext:len <- 0
	.loc	4 209 21                        @ ../../../ThirdParty/mbedTLS/library/x509_crl.c:209:21
	ldr	r1, [r6]
	.loc	4 209 11 is_stmt 0              @ ../../../ThirdParty/mbedTLS/library/x509_crl.c:209:11
	ldr	r0, [r4]
.Ltmp437:
	.loc	4 209 14                        @ ../../../ThirdParty/mbedTLS/library/x509_crl.c:209:14
	adds	r5, r0, r1
.Ltmp438:
	@DEBUG_VALUE: x509_get_crl_entry_ext:end <- $r5
	.loc	4 215 5 is_stmt 1               @ ../../../ThirdParty/mbedTLS/library/x509_crl.c:215:5
	cmp	r1, #1
	blt	.LBB8_8
.Ltmp439:
@ %bb.5:
	@DEBUG_VALUE: x509_get_crl_entry_ext:end <- $r5
	@DEBUG_VALUE: x509_get_crl_entry_ext:p <- $r4
	@DEBUG_VALUE: x509_get_crl_entry_ext:len <- 0
	.loc	4 0 5 is_stmt 0                 @ ../../../ThirdParty/mbedTLS/library/x509_crl.c:0:5
	movs	r6, #48
.Ltmp440:
.LBB8_6:                                @ =>This Inner Loop Header: Depth=1
	@DEBUG_VALUE: x509_get_crl_entry_ext:end <- $r5
	@DEBUG_VALUE: x509_get_crl_entry_ext:p <- $r4
	@DEBUG_VALUE: x509_get_crl_entry_ext:len <- [DW_OP_plus_uconst 4, DW_OP_deref] $sp
	add	r2, sp, #4
.Ltmp441:
	.loc	4 217 21 is_stmt 1              @ ../../../ThirdParty/mbedTLS/library/x509_crl.c:217:21
	mov	r0, r4
	mov	r1, r5
	mov	r3, r6
	bl	mbedtls_asn1_get_tag
.Ltmp442:
	@DEBUG_VALUE: x509_get_crl_entry_ext:ret <- $r0
	.loc	4 217 13 is_stmt 0              @ ../../../ThirdParty/mbedTLS/library/x509_crl.c:217:13
	cbnz	r0, .LBB8_11
.Ltmp443:
@ %bb.7:                                @   in Loop: Header=BB8_6 Depth=1
	@DEBUG_VALUE: x509_get_crl_entry_ext:end <- $r5
	@DEBUG_VALUE: x509_get_crl_entry_ext:p <- $r4
	@DEBUG_VALUE: x509_get_crl_entry_ext:ret <- $r0
	@DEBUG_VALUE: x509_get_crl_entry_ext:len <- [DW_OP_plus_uconst 4, DW_OP_deref] $sp
	.loc	4 221 12 is_stmt 1              @ ../../../ThirdParty/mbedTLS/library/x509_crl.c:221:12
	ldr	r0, [r4]
.Ltmp444:
	.loc	4 221 15 is_stmt 0              @ ../../../ThirdParty/mbedTLS/library/x509_crl.c:221:15
	ldr	r1, [sp, #4]
.Ltmp445:
	@DEBUG_VALUE: x509_get_crl_entry_ext:len <- $r1
	.loc	4 221 12                        @ ../../../ThirdParty/mbedTLS/library/x509_crl.c:221:12
	adds	r0, r0, r1
	str	r0, [r4]
.Ltmp446:
	.loc	4 215 5 is_stmt 1               @ ../../../ThirdParty/mbedTLS/library/x509_crl.c:215:5
	cmp	r0, r5
	blo	.LBB8_6
.Ltmp447:
.LBB8_8:
	@DEBUG_VALUE: x509_get_crl_entry_ext:end <- $r5
	@DEBUG_VALUE: x509_get_crl_entry_ext:p <- $r4
	.loc	4 224 9                         @ ../../../ThirdParty/mbedTLS/library/x509_crl.c:224:9
	cmp	r0, r5
	beq	.LBB8_12
.Ltmp448:
@ %bb.9:
	@DEBUG_VALUE: x509_get_crl_entry_ext:end <- $r5
	@DEBUG_VALUE: x509_get_crl_entry_ext:p <- $r4
	.loc	4 0 9 is_stmt 0                 @ ../../../ThirdParty/mbedTLS/library/x509_crl.c:0:9
	ldr	r0, __arm_cp.8_0
	subs	r0, #102
.Ltmp449:
.LBB8_10:
	@DEBUG_VALUE: x509_get_crl_entry_ext:p <- $r4
	.loc	4 229 1 is_stmt 1               @ ../../../ThirdParty/mbedTLS/library/x509_crl.c:229:1
	add	sp, #8
	pop	{r4, r5, r6, pc}
.Ltmp450:
.LBB8_11:
	@DEBUG_VALUE: x509_get_crl_entry_ext:p <- $r4
	@DEBUG_VALUE: x509_get_crl_entry_ext:ret <- $r0
	.loc	4 0 0 is_stmt 0                 @ ../../../ThirdParty/mbedTLS/library/x509_crl.c:0:0
	movw	r1, #9472
	subs	r0, r0, r1
.Ltmp451:
	.loc	4 229 1                         @ ../../../ThirdParty/mbedTLS/library/x509_crl.c:229:1
	add	sp, #8
	pop	{r4, r5, r6, pc}
.Ltmp452:
.LBB8_12:
	@DEBUG_VALUE: x509_get_crl_entry_ext:end <- $r5
	@DEBUG_VALUE: x509_get_crl_entry_ext:p <- $r4
	.loc	4 0 1                           @ ../../../ThirdParty/mbedTLS/library/x509_crl.c:0:1
	movs	r0, #0
	.loc	4 229 1                         @ ../../../ThirdParty/mbedTLS/library/x509_crl.c:229:1
	add	sp, #8
	pop	{r4, r5, r6, pc}
.Ltmp453:
	.p2align	2
@ %bb.13:
	.loc	4 0 1                           @ ../../../ThirdParty/mbedTLS/library/x509_crl.c:0:1
__arm_cp.8_0:
	.long	4294957824                      @ 0xffffdb00
.Lcpi_end14:
	.size	__arm_cp.8_0, .Lcpi_end14-__arm_cp.8_0
.Lfunc_end8:
	.size	x509_get_crl_entry_ext, .Lfunc_end8-x509_get_crl_entry_ext
	.cfi_endproc
	.cantunwind
	.fnend
                                        @ -- End function
	.type	.L.str.5,%object                @ @.str.5
	.section	.rodata.str1.1,"aMS",%progbits,1
.L.str.5:
	.asciz	"\n%snext update   : %04d-%02d-%02d %02d:%02d:%02d"
	.size	.L.str.5, 49

	.type	.L.str.8,%object                @ @.str.8
.L.str.8:
	.asciz	" revocation date: %04d-%02d-%02d %02d:%02d:%02d"
	.size	.L.str.8, 48

	.type	.L.str.9,%object                @ @.str.9
.L.str.9:
	.asciz	"\n%ssigned using  : "
	.size	.L.str.9, 20

	.globl	_printf_percent
	.globl	_printf_flags
	.globl	_printf_widthprec
	.globl	_printf_pre_padding
	.globl	_printf_return_value
	.globl	_printf_s
	.globl	_printf_d
	.globl	_printf_int_dec
	.globl	_printf_str
	.hidden	_printf_percent
	.hidden	_printf_flags
	.hidden	_printf_widthprec
	.hidden	_printf_pre_padding
	.hidden	_printf_return_value
	.hidden	_printf_s
	.hidden	_printf_d
	.hidden	_printf_int_dec
	.hidden	_printf_str
	.file	5 "C:\\Users\\shw26\\OneDrive\\Desktop\\2021\\2021-1\\\354\272\241\354\212\244\355\206\244\353\224\224\354\236\220\354\235\2702\\Nuvoton\\M2351_BSP_v3.00.004\\M2351Series_BSP_CMSIS_V3.00.004\\MyProject\\PulseMonitoring\\Secure" "../../../ThirdParty/mbedTLS/include/mbedtls/asn1.h"
	.file	6 "C:\\Users\\shw26\\OneDrive\\Desktop\\2021\\2021-1\\\354\272\241\354\212\244\355\206\244\353\224\224\354\236\220\354\235\2702\\Nuvoton\\M2351_BSP_v3.00.004\\M2351Series_BSP_CMSIS_V3.00.004\\MyProject\\PulseMonitoring\\Secure" "../../../ThirdParty/mbedTLS/include/mbedtls/x509.h"
	.file	7 "C:\\Users\\shw26\\OneDrive\\Desktop\\2021\\2021-1\\\354\272\241\354\212\244\355\206\244\353\224\224\354\236\220\354\235\2702\\Nuvoton\\M2351_BSP_v3.00.004\\M2351Series_BSP_CMSIS_V3.00.004\\MyProject\\PulseMonitoring\\Secure" "../../../ThirdParty/mbedTLS/include/mbedtls\\x509_crl.h"
	.file	8 "C:\\Users\\shw26\\OneDrive\\Desktop\\2021\\2021-1\\\354\272\241\354\212\244\355\206\244\353\224\224\354\236\220\354\235\2702\\Nuvoton\\M2351_BSP_v3.00.004\\M2351Series_BSP_CMSIS_V3.00.004\\MyProject\\PulseMonitoring\\Secure" "../../../ThirdParty/mbedTLS/include/mbedtls\\pem.h"
	.section	".note.GNU-stack","",%progbits
	.eabi_attribute	30, 1	@ Tag_ABI_optimization_goals
	.ARM_attribute	16, 1	@ Tag_AV_eba