	.text
	.syntax unified
	.eabi_attribute	67, "2.09"	@ Tag_conformance
	.cpu	cortex-m23
	.eabi_attribute	6, 16	@ Tag_CPU_arch
	.eabi_attribute	7, 77	@ Tag_CPU_arch_profile
	.eabi_attribute	8, 0	@ Tag_ARM_ISA_use
	.eabi_attribute	9, 3	@ Tag_THUMB_ISA_use
	.eabi_attribute	34, 0	@ Tag_CPU_unaligned_access
	.eabi_attribute	17, 1	@ Tag_ABI_PCS_GOT_use
	.eabi_attribute	20, 2	@ Tag_ABI_FP_denormal
	.eabi_attribute	21, 0	@ Tag_ABI_FP_exceptions
	.eabi_attribute	23, 1	@ Tag_ABI_FP_number_model
	.eabi_attribute	24, 1	@ Tag_ABI_align_needed
	.eabi_attribute	25, 1	@ Tag_ABI_align_preserved
	.eabi_attribute	38, 1	@ Tag_ABI_FP_16bit_format
	.eabi_attribute	18, 2	@ Tag_ABI_PCS_wchar_t
	.eabi_attribute	26, 1	@ Tag_ABI_enum_size
	.eabi_attribute	14, 0	@ Tag_ABI_PCS_R9_use
	.file	"x509_csr.c"
	.file	1 "C:\\Users\\shw26\\OneDrive\\Desktop\\2021\\2021-1\\\354\272\241\354\212\244\355\206\244\353\224\224\354\236\220\354\235\2702\\Nuvoton\\M2351_BSP_v3.00.004\\M2351Series_BSP_CMSIS_V3.00.004\\MyProject\\PulseMonitoring\\Secure" "../../../ThirdParty/mbedTLS/include/mbedtls/md.h"
	.file	2 "C:\\Users\\shw26\\OneDrive\\Desktop\\2021\\2021-1\\\354\272\241\354\212\244\355\206\244\353\224\224\354\236\220\354\235\2702\\Nuvoton\\M2351_BSP_v3.00.004\\M2351Series_BSP_CMSIS_V3.00.004\\MyProject\\PulseMonitoring\\Secure" "../../../ThirdParty/mbedTLS/include/mbedtls/pk.h"
	.file	3 "C:\\" "Keil_v5\\ARM\\ARMCLANG\\Bin\\..\\include\\stddef.h"
	.section	.text.mbedtls_x509_csr_parse_der,"ax",%progbits
	.hidden	mbedtls_x509_csr_parse_der      @ -- Begin function mbedtls_x509_csr_parse_der
	.globl	mbedtls_x509_csr_parse_der
	.p2align	2
	.type	mbedtls_x509_csr_parse_der,%function
	.code	16                              @ @mbedtls_x509_csr_parse_der
	.thumb_func
mbedtls_x509_csr_parse_der:
.Lfunc_begin0:
	.file	4 "C:\\Users\\shw26\\OneDrive\\Desktop\\2021\\2021-1\\\354\272\241\354\212\244\355\206\244\353\224\224\354\236\220\354\235\2702\\Nuvoton\\M2351_BSP_v3.00.004\\M2351Series_BSP_CMSIS_V3.00.004\\MyProject\\PulseMonitoring\\Secure" "../../../ThirdParty/mbedTLS/library/x509_csr.c"
	.loc	4 92 0                          @ ../../../ThirdParty/mbedTLS/library/x509_csr.c:92:0
	.fnstart
	.cfi_sections .debug_frame
	.cfi_startproc
@ %bb.0:
	@DEBUG_VALUE: mbedtls_x509_csr_parse_der:csr <- $r0
	@DEBUG_VALUE: mbedtls_x509_csr_parse_der:buf <- $r1
	@DEBUG_VALUE: mbedtls_x509_csr_parse_der:buflen <- $r2
	.save	{r4, r5, r6, r7, lr}
	push	{r4, r5, r6, r7, lr}
	.cfi_def_cfa_offset 20
	.cfi_offset lr, -4
	.cfi_offset r7, -8
	.cfi_offset r6, -12
	.cfi_offset r5, -16
	.cfi_offset r4, -20
	.pad	#36
	sub	sp, #36
	.cfi_def_cfa_offset 56
	mov	r7, r2
	mov	r6, r1
	movs	r1, #0
.Ltmp0:
	@DEBUG_VALUE: mbedtls_x509_csr_parse_der:buf <- [DW_OP_LLVM_entry_value 1] $r1
	@DEBUG_VALUE: mbedtls_x509_csr_parse_der:buflen <- $r7
	@DEBUG_VALUE: mbedtls_x509_csr_parse_der:buf <- $r6
	@DEBUG_VALUE: mbedtls_x509_csr_parse_der:csr <- $r0
	.loc	4 98 5 prologue_end             @ ../../../ThirdParty/mbedTLS/library/x509_csr.c:98:5
	str	r1, [sp, #24]
	str	r1, [sp, #20]
	str	r1, [sp, #16]
	ldr	r2, __arm_cp.0_0
	.loc	4 0 0 is_stmt 0                 @ ../../../ThirdParty/mbedTLS/library/x509_csr.c:0:0
	mov	r5, r2
	adds	r5, #128
	str	r0, [sp, #12]                   @ 4-byte Spill
.Ltmp1:
	@DEBUG_VALUE: mbedtls_x509_csr_parse_der:csr <- [DW_OP_plus_uconst 12] [$sp+0]
	.loc	4 103 21 is_stmt 1              @ ../../../ThirdParty/mbedTLS/library/x509_csr.c:103:21
	cbz	r0, .LBB0_10
.Ltmp2:
@ %bb.1:
	@DEBUG_VALUE: mbedtls_x509_csr_parse_der:buflen <- $r7
	@DEBUG_VALUE: mbedtls_x509_csr_parse_der:buf <- $r6
	@DEBUG_VALUE: mbedtls_x509_csr_parse_der:csr <- [DW_OP_plus_uconst 12] [$sp+0]
	cbz	r6, .LBB0_10
.Ltmp3:
@ %bb.2:
	@DEBUG_VALUE: mbedtls_x509_csr_parse_der:buflen <- $r7
	@DEBUG_VALUE: mbedtls_x509_csr_parse_der:buf <- $r6
	@DEBUG_VALUE: mbedtls_x509_csr_parse_der:csr <- [DW_OP_plus_uconst 12] [$sp+0]
	.loc	4 0 21 is_stmt 0                @ ../../../ThirdParty/mbedTLS/library/x509_csr.c:0:21
	str	r1, [sp, #8]                    @ 4-byte Spill
	.loc	4 103 21                        @ ../../../ThirdParty/mbedTLS/library/x509_csr.c:103:21
	cbz	r7, .LBB0_10
.Ltmp4:
@ %bb.3:
	@DEBUG_VALUE: mbedtls_x509_csr_parse_der:buflen <- $r7
	@DEBUG_VALUE: mbedtls_x509_csr_parse_der:buf <- $r6
	@DEBUG_VALUE: mbedtls_x509_csr_parse_der:csr <- [DW_OP_plus_uconst 12] [$sp+0]
	.loc	4 106 5 is_stmt 1               @ ../../../ThirdParty/mbedTLS/library/x509_csr.c:106:5
	ldr	r0, [sp, #12]                   @ 4-byte Reload
	mov	r5, r2
	bl	mbedtls_x509_csr_init
.Ltmp5:
	@DEBUG_VALUE: mbedtls_x509_csr_parse_der:len <- $r7
	.loc	4 111 32                        @ ../../../ThirdParty/mbedTLS/library/x509_csr.c:111:32
	str	r7, [sp, #32]
	movs	r0, #1
	str	r0, [sp, #4]                    @ 4-byte Spill
	.loc	4 111 9 is_stmt 0               @ ../../../ThirdParty/mbedTLS/library/x509_csr.c:111:9
	mov	r1, r7
	bl	calloc
.Ltmp6:
	@DEBUG_VALUE: mbedtls_x509_csr_parse_der:p <- $r0
	.loc	4 111 7                         @ ../../../ThirdParty/mbedTLS/library/x509_csr.c:111:7
	str	r0, [sp, #28]
	.loc	4 113 9 is_stmt 1               @ ../../../ThirdParty/mbedTLS/library/x509_csr.c:113:9
	cbz	r0, .LBB0_10
.Ltmp7:
@ %bb.4:
	@DEBUG_VALUE: mbedtls_x509_csr_parse_der:len <- $r7
	@DEBUG_VALUE: mbedtls_x509_csr_parse_der:buflen <- $r7
	@DEBUG_VALUE: mbedtls_x509_csr_parse_der:buf <- $r6
	@DEBUG_VALUE: mbedtls_x509_csr_parse_der:p <- $r0
	@DEBUG_VALUE: mbedtls_x509_csr_parse_der:csr <- [DW_OP_plus_uconst 12] [$sp+0]
	.loc	4 0 0 is_stmt 0                 @ ../../../ThirdParty/mbedTLS/library/x509_csr.c:0:0
	mov	r4, r0
.Ltmp8:
	@DEBUG_VALUE: mbedtls_x509_csr_parse_der:p <- $r4
	.loc	4 116 5 is_stmt 1               @ ../../../ThirdParty/mbedTLS/library/x509_csr.c:116:5
	mov	r1, r6
	mov	r2, r7
	bl	__aeabi_memcpy
	@DEBUG_VALUE: mbedtls_x509_csr_parse_der:len <- $r7
	.loc	4 118 18                        @ ../../../ThirdParty/mbedTLS/library/x509_csr.c:118:18
	ldr	r0, [sp, #28]
.Ltmp9:
	@DEBUG_VALUE: mbedtls_x509_csr_parse_der:p <- undef
	.loc	4 0 18 is_stmt 0                @ ../../../ThirdParty/mbedTLS/library/x509_csr.c:0:18
	ldr	r6, [sp, #12]                   @ 4-byte Reload
.Ltmp10:
	.loc	4 119 18 is_stmt 1              @ ../../../ThirdParty/mbedTLS/library/x509_csr.c:119:18
	str	r7, [r6, #4]
	.loc	4 118 16                        @ ../../../ThirdParty/mbedTLS/library/x509_csr.c:118:16
	str	r0, [r6, #8]
	.loc	4 120 13                        @ ../../../ThirdParty/mbedTLS/library/x509_csr.c:120:13
	adds	r5, r4, r7
.Ltmp11:
	@DEBUG_VALUE: mbedtls_x509_csr_parse_der:end <- $r5
	@DEBUG_VALUE: mbedtls_x509_csr_parse_der:p <- [DW_OP_plus_uconst 28, DW_OP_deref] $sp
	@DEBUG_VALUE: mbedtls_x509_csr_parse_der:len <- [DW_OP_plus_uconst 32, DW_OP_deref] $sp
	.loc	4 0 13 is_stmt 0                @ ../../../ThirdParty/mbedTLS/library/x509_csr.c:0:13
	add	r0, sp, #28
	add	r2, sp, #32
	movs	r3, #48
.Ltmp12:
	.loc	4 129 17 is_stmt 1              @ ../../../ThirdParty/mbedTLS/library/x509_csr.c:129:17
	mov	r1, r5
	bl	mbedtls_asn1_get_tag
.Ltmp13:
	@DEBUG_VALUE: mbedtls_x509_csr_parse_der:ret <- $r0
	.loc	4 129 9 is_stmt 0               @ ../../../ThirdParty/mbedTLS/library/x509_csr.c:129:9
	cbz	r0, .LBB0_6
.Ltmp14:
@ %bb.5:
	@DEBUG_VALUE: mbedtls_x509_csr_parse_der:buflen <- $r7
	@DEBUG_VALUE: mbedtls_x509_csr_parse_der:end <- $r5
	@DEBUG_VALUE: mbedtls_x509_csr_parse_der:ret <- $r0
	@DEBUG_VALUE: mbedtls_x509_csr_parse_der:len <- [DW_OP_plus_uconst 32, DW_OP_deref] $sp
	@DEBUG_VALUE: mbedtls_x509_csr_parse_der:p <- [DW_OP_plus_uconst 28, DW_OP_deref] $sp
	@DEBUG_VALUE: mbedtls_x509_csr_parse_der:csr <- [DW_OP_plus_uconst 12] [$sp+0]
	.loc	4 132 9 is_stmt 1               @ ../../../ThirdParty/mbedTLS/library/x509_csr.c:132:9
	mov	r0, r6
.Ltmp15:
	bl	mbedtls_x509_csr_free
	ldr	r5, __arm_cp.0_1
.Ltmp16:
	.loc	4 133 9                         @ ../../../ThirdParty/mbedTLS/library/x509_csr.c:133:9
	b	.LBB0_10
.Ltmp17:
.LBB0_6:
	@DEBUG_VALUE: mbedtls_x509_csr_parse_der:buflen <- $r7
	@DEBUG_VALUE: mbedtls_x509_csr_parse_der:end <- $r5
	@DEBUG_VALUE: mbedtls_x509_csr_parse_der:ret <- $r0
	@DEBUG_VALUE: mbedtls_x509_csr_parse_der:len <- [DW_OP_plus_uconst 32, DW_OP_deref] $sp
	@DEBUG_VALUE: mbedtls_x509_csr_parse_der:p <- [DW_OP_plus_uconst 28, DW_OP_deref] $sp
	@DEBUG_VALUE: mbedtls_x509_csr_parse_der:csr <- [DW_OP_plus_uconst 12] [$sp+0]
	.loc	4 136 33                        @ ../../../ThirdParty/mbedTLS/library/x509_csr.c:136:33
	ldr	r0, [sp, #28]
.Ltmp18:
	@DEBUG_VALUE: mbedtls_x509_csr_parse_der:p <- $r0
	.loc	4 136 31 is_stmt 0              @ ../../../ThirdParty/mbedTLS/library/x509_csr.c:136:31
	subs	r1, r5, r0
	.loc	4 136 9                         @ ../../../ThirdParty/mbedTLS/library/x509_csr.c:136:9
	ldr	r2, [sp, #32]
.Ltmp19:
	@DEBUG_VALUE: mbedtls_x509_csr_parse_der:len <- $r2
	.loc	4 136 9                         @ ../../../ThirdParty/mbedTLS/library/x509_csr.c:136:9
	cmp	r2, r1
	bne	.LBB0_9
.Ltmp20:
@ %bb.7:
	@DEBUG_VALUE: mbedtls_x509_csr_parse_der:buflen <- $r7
	@DEBUG_VALUE: mbedtls_x509_csr_parse_der:end <- $r5
	@DEBUG_VALUE: mbedtls_x509_csr_parse_der:len <- $r2
	@DEBUG_VALUE: mbedtls_x509_csr_parse_der:p <- $r0
	@DEBUG_VALUE: mbedtls_x509_csr_parse_der:csr <- [DW_OP_plus_uconst 12] [$sp+0]
	.loc	4 146 16 is_stmt 1              @ ../../../ThirdParty/mbedTLS/library/x509_csr.c:146:16
	str	r0, [r6, #20]
.Ltmp21:
	@DEBUG_VALUE: mbedtls_x509_csr_parse_der:p <- [DW_OP_plus_uconst 28, DW_OP_deref] $sp
	@DEBUG_VALUE: mbedtls_x509_csr_parse_der:len <- [DW_OP_plus_uconst 32, DW_OP_deref] $sp
	.loc	4 0 16 is_stmt 0                @ ../../../ThirdParty/mbedTLS/library/x509_csr.c:0:16
	add	r0, sp, #28
	add	r2, sp, #32
	movs	r3, #48
.Ltmp22:
	.loc	4 148 17 is_stmt 1              @ ../../../ThirdParty/mbedTLS/library/x509_csr.c:148:17
	mov	r1, r5
	bl	mbedtls_asn1_get_tag
.Ltmp23:
	@DEBUG_VALUE: mbedtls_x509_csr_parse_der:ret <- $r0
	.loc	4 148 9 is_stmt 0               @ ../../../ThirdParty/mbedTLS/library/x509_csr.c:148:9
	cbz	r0, .LBB0_11
.Ltmp24:
@ %bb.8:
	@DEBUG_VALUE: mbedtls_x509_csr_parse_der:buflen <- $r7
	@DEBUG_VALUE: mbedtls_x509_csr_parse_der:end <- $r5
	@DEBUG_VALUE: mbedtls_x509_csr_parse_der:ret <- $r0
	@DEBUG_VALUE: mbedtls_x509_csr_parse_der:len <- [DW_OP_plus_uconst 32, DW_OP_deref] $sp
	@DEBUG_VALUE: mbedtls_x509_csr_parse_der:p <- [DW_OP_plus_uconst 28, DW_OP_deref] $sp
	@DEBUG_VALUE: mbedtls_x509_csr_parse_der:csr <- [DW_OP_plus_uconst 12] [$sp+0]
	.loc	4 0 0                           @ ../../../ThirdParty/mbedTLS/library/x509_csr.c:0:0
	mov	r4, r0
.Ltmp25:
	@DEBUG_VALUE: mbedtls_x509_csr_parse_der:ret <- $r4
	.loc	4 151 9 is_stmt 1               @ ../../../ThirdParty/mbedTLS/library/x509_csr.c:151:9
	mov	r0, r6
	bl	mbedtls_x509_csr_free
	.loc	4 152 49                        @ ../../../ThirdParty/mbedTLS/library/x509_csr.c:152:49
	movw	r0, #8576
	subs	r5, r4, r0
.Ltmp26:
	.loc	4 152 9 is_stmt 0               @ ../../../ThirdParty/mbedTLS/library/x509_csr.c:152:9
	b	.LBB0_10
.Ltmp27:
.LBB0_9:
	@DEBUG_VALUE: mbedtls_x509_csr_parse_der:buflen <- $r7
	@DEBUG_VALUE: mbedtls_x509_csr_parse_der:end <- $r5
	@DEBUG_VALUE: mbedtls_x509_csr_parse_der:len <- $r2
	@DEBUG_VALUE: mbedtls_x509_csr_parse_der:p <- $r0
	@DEBUG_VALUE: mbedtls_x509_csr_parse_der:csr <- [DW_OP_plus_uconst 12] [$sp+0]
	.loc	4 138 9 is_stmt 1               @ ../../../ThirdParty/mbedTLS/library/x509_csr.c:138:9
	mov	r0, r6
.Ltmp28:
	bl	mbedtls_x509_csr_free
.Ltmp29:
	.loc	4 0 9 is_stmt 0                 @ ../../../ThirdParty/mbedTLS/library/x509_csr.c:0:9
	ldr	r5, __arm_cp.0_1
.Ltmp30:
	subs	r5, #102
.Ltmp31:
.LBB0_10:
	@DEBUG_VALUE: mbedtls_x509_csr_parse_der:csr <- [DW_OP_plus_uconst 12] [$sp+0]
	.loc	4 257 1 is_stmt 1               @ ../../../ThirdParty/mbedTLS/library/x509_csr.c:257:1
	mov	r0, r5
	add	sp, #36
.Ltmp32:
	pop	{r4, r5, r6, r7, pc}
.LBB0_11:
.Ltmp33:
	@DEBUG_VALUE: mbedtls_x509_csr_parse_der:buflen <- $r7
	@DEBUG_VALUE: mbedtls_x509_csr_parse_der:end <- $r5
	@DEBUG_VALUE: mbedtls_x509_csr_parse_der:ret <- $r0
	@DEBUG_VALUE: mbedtls_x509_csr_parse_der:len <- [DW_OP_plus_uconst 32, DW_OP_deref] $sp
	@DEBUG_VALUE: mbedtls_x509_csr_parse_der:p <- [DW_OP_plus_uconst 28, DW_OP_deref] $sp
	@DEBUG_VALUE: mbedtls_x509_csr_parse_der:csr <- [DW_OP_plus_uconst 12] [$sp+0]
	.loc	4 155 15                        @ ../../../ThirdParty/mbedTLS/library/x509_csr.c:155:15
	ldr	r0, [sp, #32]
.Ltmp34:
	@DEBUG_VALUE: mbedtls_x509_csr_parse_der:len <- $r0
	.loc	4 155 11 is_stmt 0              @ ../../../ThirdParty/mbedTLS/library/x509_csr.c:155:11
	ldr	r1, [sp, #28]
.Ltmp35:
	@DEBUG_VALUE: mbedtls_x509_csr_parse_der:p <- $r1
	.loc	4 155 13                        @ ../../../ThirdParty/mbedTLS/library/x509_csr.c:155:13
	adds	r7, r1, r0
.Ltmp36:
	@DEBUG_VALUE: mbedtls_x509_csr_parse_der:end <- $r7
	.loc	4 156 35 is_stmt 1              @ ../../../ThirdParty/mbedTLS/library/x509_csr.c:156:35
	ldr	r0, [r6, #20]
.Ltmp37:
	.loc	4 156 24 is_stmt 0              @ ../../../ThirdParty/mbedTLS/library/x509_csr.c:156:24
	subs	r0, r7, r0
	.loc	4 156 18                        @ ../../../ThirdParty/mbedTLS/library/x509_csr.c:156:18
	str	r0, [r6, #16]
.Ltmp38:
	@DEBUG_VALUE: mbedtls_x509_csr_parse_der:p <- [DW_OP_plus_uconst 28, DW_OP_deref] $sp
	.loc	4 161 54 is_stmt 1              @ ../../../ThirdParty/mbedTLS/library/x509_csr.c:161:54
	mov	r4, r6
	adds	r4, #24
	add	r0, sp, #28
	.loc	4 161 17 is_stmt 0              @ ../../../ThirdParty/mbedTLS/library/x509_csr.c:161:17
	mov	r1, r7
	mov	r2, r4
	bl	x509_csr_get_version
.Ltmp39:
	@DEBUG_VALUE: mbedtls_x509_csr_parse_der:ret <- $r0
	.loc	4 161 9                         @ ../../../ThirdParty/mbedTLS/library/x509_csr.c:161:9
	cbz	r0, .LBB0_13
.Ltmp40:
@ %bb.12:
	@DEBUG_VALUE: mbedtls_x509_csr_parse_der:end <- $r7
	@DEBUG_VALUE: mbedtls_x509_csr_parse_der:ret <- $r0
	@DEBUG_VALUE: mbedtls_x509_csr_parse_der:p <- [DW_OP_plus_uconst 28, DW_OP_deref] $sp
	@DEBUG_VALUE: mbedtls_x509_csr_parse_der:csr <- [DW_OP_plus_uconst 12] [$sp+0]
	.loc	4 0 0                           @ ../../../ThirdParty/mbedTLS/library/x509_csr.c:0:0
	mov	r5, r0
.Ltmp41:
	@DEBUG_VALUE: mbedtls_x509_csr_parse_der:ret <- $r5
	.loc	4 163 9 is_stmt 1               @ ../../../ThirdParty/mbedTLS/library/x509_csr.c:163:9
	mov	r0, r6
	bl	mbedtls_x509_csr_free
	.loc	4 164 9                         @ ../../../ThirdParty/mbedTLS/library/x509_csr.c:164:9
	b	.LBB0_10
.Ltmp42:
.LBB0_13:
	@DEBUG_VALUE: mbedtls_x509_csr_parse_der:end <- $r7
	@DEBUG_VALUE: mbedtls_x509_csr_parse_der:ret <- $r0
	@DEBUG_VALUE: mbedtls_x509_csr_parse_der:p <- [DW_OP_plus_uconst 28, DW_OP_deref] $sp
	@DEBUG_VALUE: mbedtls_x509_csr_parse_der:csr <- [DW_OP_plus_uconst 12] [$sp+0]
	.loc	4 167 14                        @ ../../../ThirdParty/mbedTLS/library/x509_csr.c:167:14
	ldr	r0, [r4]
.Ltmp43:
	.loc	4 167 9 is_stmt 0               @ ../../../ThirdParty/mbedTLS/library/x509_csr.c:167:9
	cbz	r0, .LBB0_15
.Ltmp44:
@ %bb.14:
	@DEBUG_VALUE: mbedtls_x509_csr_parse_der:end <- $r7
	@DEBUG_VALUE: mbedtls_x509_csr_parse_der:p <- [DW_OP_plus_uconst 28, DW_OP_deref] $sp
	@DEBUG_VALUE: mbedtls_x509_csr_parse_der:csr <- [DW_OP_plus_uconst 12] [$sp+0]
	.loc	4 169 9 is_stmt 1               @ ../../../ThirdParty/mbedTLS/library/x509_csr.c:169:9
	mov	r0, r6
	bl	mbedtls_x509_csr_free
	ldr	r5, __arm_cp.0_2
.Ltmp45:
	.loc	4 0 0 is_stmt 0                 @ ../../../ThirdParty/mbedTLS/library/x509_csr.c:0:0
	adds	r5, #128
.Ltmp46:
	.loc	4 170 9 is_stmt 1               @ ../../../ThirdParty/mbedTLS/library/x509_csr.c:170:9
	b	.LBB0_10
.Ltmp47:
.LBB0_15:
	@DEBUG_VALUE: mbedtls_x509_csr_parse_der:end <- $r7
	@DEBUG_VALUE: mbedtls_x509_csr_parse_der:p <- [DW_OP_plus_uconst 28, DW_OP_deref] $sp
	@DEBUG_VALUE: mbedtls_x509_csr_parse_der:csr <- [DW_OP_plus_uconst 12] [$sp+0]
	.loc	4 173 17                        @ ../../../ThirdParty/mbedTLS/library/x509_csr.c:173:17
	ldr	r0, [sp, #4]                    @ 4-byte Reload
	str	r0, [r6, #24]
	.loc	4 178 26                        @ ../../../ThirdParty/mbedTLS/library/x509_csr.c:178:26
	ldr	r0, [sp, #28]
.Ltmp48:
	@DEBUG_VALUE: mbedtls_x509_csr_parse_der:p <- undef
	.loc	4 178 24 is_stmt 0              @ ../../../ThirdParty/mbedTLS/library/x509_csr.c:178:24
	str	r0, [r6, #36]
.Ltmp49:
	@DEBUG_VALUE: mbedtls_x509_csr_parse_der:p <- [DW_OP_plus_uconst 28, DW_OP_deref] $sp
	@DEBUG_VALUE: mbedtls_x509_csr_parse_der:len <- [DW_OP_plus_uconst 32, DW_OP_deref] $sp
	.loc	4 0 24                          @ ../../../ThirdParty/mbedTLS/library/x509_csr.c:0:24
	add	r0, sp, #28
	add	r2, sp, #32
	movs	r3, #48
.Ltmp50:
	.loc	4 180 17 is_stmt 1              @ ../../../ThirdParty/mbedTLS/library/x509_csr.c:180:17
	mov	r1, r7
	bl	mbedtls_asn1_get_tag
.Ltmp51:
	@DEBUG_VALUE: mbedtls_x509_csr_parse_der:ret <- $r0
	.loc	4 180 9 is_stmt 0               @ ../../../ThirdParty/mbedTLS/library/x509_csr.c:180:9
	cbz	r0, .LBB0_17
.Ltmp52:
@ %bb.16:
	@DEBUG_VALUE: mbedtls_x509_csr_parse_der:end <- $r7
	@DEBUG_VALUE: mbedtls_x509_csr_parse_der:ret <- $r0
	@DEBUG_VALUE: mbedtls_x509_csr_parse_der:len <- [DW_OP_plus_uconst 32, DW_OP_deref] $sp
	@DEBUG_VALUE: mbedtls_x509_csr_parse_der:p <- [DW_OP_plus_uconst 28, DW_OP_deref] $sp
	@DEBUG_VALUE: mbedtls_x509_csr_parse_der:csr <- [DW_OP_plus_uconst 12] [$sp+0]
	.loc	4 0 0                           @ ../../../ThirdParty/mbedTLS/library/x509_csr.c:0:0
	mov	r4, r0
.Ltmp53:
	@DEBUG_VALUE: mbedtls_x509_csr_parse_der:ret <- $r4
	.loc	4 183 9 is_stmt 1               @ ../../../ThirdParty/mbedTLS/library/x509_csr.c:183:9
	mov	r0, r6
	bl	mbedtls_x509_csr_free
	.loc	4 184 49                        @ ../../../ThirdParty/mbedTLS/library/x509_csr.c:184:49
	movw	r0, #8576
	subs	r5, r4, r0
	.loc	4 184 9 is_stmt 0               @ ../../../ThirdParty/mbedTLS/library/x509_csr.c:184:9
	b	.LBB0_10
.Ltmp54:
.LBB0_17:
	@DEBUG_VALUE: mbedtls_x509_csr_parse_der:end <- $r7
	@DEBUG_VALUE: mbedtls_x509_csr_parse_der:ret <- $r0
	@DEBUG_VALUE: mbedtls_x509_csr_parse_der:len <- [DW_OP_plus_uconst 32, DW_OP_deref] $sp
	@DEBUG_VALUE: mbedtls_x509_csr_parse_der:p <- [DW_OP_plus_uconst 28, DW_OP_deref] $sp
	@DEBUG_VALUE: mbedtls_x509_csr_parse_der:csr <- [DW_OP_plus_uconst 12] [$sp+0]
	.loc	4 187 48 is_stmt 1              @ ../../../ThirdParty/mbedTLS/library/x509_csr.c:187:48
	ldr	r0, [sp, #32]
.Ltmp55:
	@DEBUG_VALUE: mbedtls_x509_csr_parse_der:len <- $r0
	.loc	4 187 44 is_stmt 0              @ ../../../ThirdParty/mbedTLS/library/x509_csr.c:187:44
	ldr	r1, [sp, #28]
.Ltmp56:
	@DEBUG_VALUE: mbedtls_x509_csr_parse_der:p <- $r1
	.loc	4 187 46                        @ ../../../ThirdParty/mbedTLS/library/x509_csr.c:187:46
	adds	r1, r1, r0
.Ltmp57:
	@DEBUG_VALUE: mbedtls_x509_csr_parse_der:p <- [DW_OP_plus_uconst 28, DW_OP_deref] $sp
	.loc	4 187 59                        @ ../../../ThirdParty/mbedTLS/library/x509_csr.c:187:59
	mov	r2, r6
	adds	r2, #40
	add	r0, sp, #28
.Ltmp58:
	.loc	4 187 17                        @ ../../../ThirdParty/mbedTLS/library/x509_csr.c:187:17
	bl	mbedtls_x509_get_name
.Ltmp59:
	@DEBUG_VALUE: mbedtls_x509_csr_parse_der:ret <- $r0
	.loc	4 187 9                         @ ../../../ThirdParty/mbedTLS/library/x509_csr.c:187:9
	cbz	r0, .LBB0_19
.Ltmp60:
@ %bb.18:
	@DEBUG_VALUE: mbedtls_x509_csr_parse_der:end <- $r7
	@DEBUG_VALUE: mbedtls_x509_csr_parse_der:ret <- $r0
	@DEBUG_VALUE: mbedtls_x509_csr_parse_der:p <- [DW_OP_plus_uconst 28, DW_OP_deref] $sp
	@DEBUG_VALUE: mbedtls_x509_csr_parse_der:csr <- [DW_OP_plus_uconst 12] [$sp+0]
	.loc	4 0 0                           @ ../../../ThirdParty/mbedTLS/library/x509_csr.c:0:0
	mov	r5, r0
.Ltmp61:
	@DEBUG_VALUE: mbedtls_x509_csr_parse_der:ret <- $r5
	.loc	4 189 9 is_stmt 1               @ ../../../ThirdParty/mbedTLS/library/x509_csr.c:189:9
	mov	r0, r6
	bl	mbedtls_x509_csr_free
	.loc	4 190 9                         @ ../../../ThirdParty/mbedTLS/library/x509_csr.c:190:9
	b	.LBB0_10
.Ltmp62:
.LBB0_19:
	@DEBUG_VALUE: mbedtls_x509_csr_parse_der:end <- $r7
	@DEBUG_VALUE: mbedtls_x509_csr_parse_der:ret <- $r0
	@DEBUG_VALUE: mbedtls_x509_csr_parse_der:p <- [DW_OP_plus_uconst 28, DW_OP_deref] $sp
	@DEBUG_VALUE: mbedtls_x509_csr_parse_der:csr <- [DW_OP_plus_uconst 12] [$sp+0]
	@DEBUG_VALUE: mbedtls_x509_csr_parse_der:p <- undef
	.loc	4 193 49                        @ ../../../ThirdParty/mbedTLS/library/x509_csr.c:193:49
	ldr	r0, [r6, #36]
.Ltmp63:
	.loc	4 193 28 is_stmt 0              @ ../../../ThirdParty/mbedTLS/library/x509_csr.c:193:28
	ldr	r1, [sp, #28]
	.loc	4 193 30                        @ ../../../ThirdParty/mbedTLS/library/x509_csr.c:193:30
	subs	r0, r1, r0
	.loc	4 193 26                        @ ../../../ThirdParty/mbedTLS/library/x509_csr.c:193:26
	str	r0, [r6, #32]
.Ltmp64:
	@DEBUG_VALUE: mbedtls_x509_csr_parse_der:p <- [DW_OP_plus_uconst 28, DW_OP_deref] $sp
	.loc	4 198 60 is_stmt 1              @ ../../../ThirdParty/mbedTLS/library/x509_csr.c:198:60
	mov	r2, r6
	adds	r2, #72
	add	r0, sp, #28
	.loc	4 198 17 is_stmt 0              @ ../../../ThirdParty/mbedTLS/library/x509_csr.c:198:17
	mov	r1, r7
	bl	mbedtls_pk_parse_subpubkey
.Ltmp65:
	@DEBUG_VALUE: mbedtls_x509_csr_parse_der:ret <- $r0
	.loc	4 198 9                         @ ../../../ThirdParty/mbedTLS/library/x509_csr.c:198:9
	cbz	r0, .LBB0_21
.Ltmp66:
@ %bb.20:
	@DEBUG_VALUE: mbedtls_x509_csr_parse_der:end <- $r7
	@DEBUG_VALUE: mbedtls_x509_csr_parse_der:ret <- $r0
	@DEBUG_VALUE: mbedtls_x509_csr_parse_der:p <- [DW_OP_plus_uconst 28, DW_OP_deref] $sp
	@DEBUG_VALUE: mbedtls_x509_csr_parse_der:csr <- [DW_OP_plus_uconst 12] [$sp+0]
	.loc	4 0 0                           @ ../../../ThirdParty/mbedTLS/library/x509_csr.c:0:0
	mov	r5, r0
.Ltmp67:
	@DEBUG_VALUE: mbedtls_x509_csr_parse_der:ret <- $r5
	.loc	4 200 9 is_stmt 1               @ ../../../ThirdParty/mbedTLS/library/x509_csr.c:200:9
	mov	r0, r6
	bl	mbedtls_x509_csr_free
	.loc	4 201 9                         @ ../../../ThirdParty/mbedTLS/library/x509_csr.c:201:9
	b	.LBB0_10
.Ltmp68:
.LBB0_21:
	@DEBUG_VALUE: mbedtls_x509_csr_parse_der:end <- $r7
	@DEBUG_VALUE: mbedtls_x509_csr_parse_der:ret <- $r0
	@DEBUG_VALUE: mbedtls_x509_csr_parse_der:p <- [DW_OP_plus_uconst 28, DW_OP_deref] $sp
	@DEBUG_VALUE: mbedtls_x509_csr_parse_der:csr <- [DW_OP_plus_uconst 12] [$sp+0]
	@DEBUG_VALUE: mbedtls_x509_csr_parse_der:len <- [DW_OP_plus_uconst 32, DW_OP_deref] $sp
	@DEBUG_VALUE: mbedtls_x509_csr_parse_der:p <- [DW_OP_plus_uconst 28, DW_OP_deref] $sp
	.loc	4 0 9 is_stmt 0                 @ ../../../ThirdParty/mbedTLS/library/x509_csr.c:0:9
	add	r0, sp, #28
.Ltmp69:
	add	r2, sp, #32
	movs	r3, #160
.Ltmp70:
	.loc	4 214 17 is_stmt 1              @ ../../../ThirdParty/mbedTLS/library/x509_csr.c:214:17
	mov	r1, r7
	bl	mbedtls_asn1_get_tag
.Ltmp71:
	@DEBUG_VALUE: mbedtls_x509_csr_parse_der:ret <- $r0
	.loc	4 214 9 is_stmt 0               @ ../../../ThirdParty/mbedTLS/library/x509_csr.c:214:9
	cbz	r0, .LBB0_23
.Ltmp72:
@ %bb.22:
	@DEBUG_VALUE: mbedtls_x509_csr_parse_der:end <- $r7
	@DEBUG_VALUE: mbedtls_x509_csr_parse_der:ret <- $r0
	@DEBUG_VALUE: mbedtls_x509_csr_parse_der:len <- [DW_OP_plus_uconst 32, DW_OP_deref] $sp
	@DEBUG_VALUE: mbedtls_x509_csr_parse_der:p <- [DW_OP_plus_uconst 28, DW_OP_deref] $sp
	@DEBUG_VALUE: mbedtls_x509_csr_parse_der:csr <- [DW_OP_plus_uconst 12] [$sp+0]
	.loc	4 0 0                           @ ../../../ThirdParty/mbedTLS/library/x509_csr.c:0:0
	mov	r4, r0
.Ltmp73:
	@DEBUG_VALUE: mbedtls_x509_csr_parse_der:ret <- $r4
	.loc	4 217 9 is_stmt 1               @ ../../../ThirdParty/mbedTLS/library/x509_csr.c:217:9
	mov	r0, r6
	bl	mbedtls_x509_csr_free
	.loc	4 218 49                        @ ../../../ThirdParty/mbedTLS/library/x509_csr.c:218:49
	movw	r0, #8576
	subs	r5, r4, r0
	.loc	4 218 9 is_stmt 0               @ ../../../ThirdParty/mbedTLS/library/x509_csr.c:218:9
	b	.LBB0_10
.Ltmp74:
.LBB0_23:
	@DEBUG_VALUE: mbedtls_x509_csr_parse_der:end <- $r7
	@DEBUG_VALUE: mbedtls_x509_csr_parse_der:ret <- $r0
	@DEBUG_VALUE: mbedtls_x509_csr_parse_der:len <- [DW_OP_plus_uconst 32, DW_OP_deref] $sp
	@DEBUG_VALUE: mbedtls_x509_csr_parse_der:p <- [DW_OP_plus_uconst 28, DW_OP_deref] $sp
	@DEBUG_VALUE: mbedtls_x509_csr_parse_der:csr <- [DW_OP_plus_uconst 12] [$sp+0]
	.loc	4 221 10 is_stmt 1              @ ../../../ThirdParty/mbedTLS/library/x509_csr.c:221:10
	ldr	r0, [sp, #32]
.Ltmp75:
	@DEBUG_VALUE: mbedtls_x509_csr_parse_der:len <- $r0
	.loc	4 221 7 is_stmt 0               @ ../../../ThirdParty/mbedTLS/library/x509_csr.c:221:7
	ldr	r1, [sp, #28]
.Ltmp76:
	@DEBUG_VALUE: mbedtls_x509_csr_parse_der:p <- $r1
	adds	r0, r1, r0
.Ltmp77:
	@DEBUG_VALUE: mbedtls_x509_csr_parse_der:p <- $r0
	str	r0, [sp, #28]
	.loc	4 223 33 is_stmt 1              @ ../../../ThirdParty/mbedTLS/library/x509_csr.c:223:33
	ldr	r0, [r6, #4]
.Ltmp78:
	.loc	4 223 20 is_stmt 0              @ ../../../ThirdParty/mbedTLS/library/x509_csr.c:223:20
	ldr	r1, [r6, #8]
	mov	r7, r6
.Ltmp79:
	.loc	4 223 22                        @ ../../../ThirdParty/mbedTLS/library/x509_csr.c:223:22
	adds	r6, r1, r0
.Ltmp80:
	@DEBUG_VALUE: mbedtls_x509_csr_parse_der:end <- $r6
	@DEBUG_VALUE: mbedtls_x509_csr_parse_der:p <- [DW_OP_plus_uconst 28, DW_OP_deref] $sp
	.loc	4 229 54 is_stmt 1              @ ../../../ThirdParty/mbedTLS/library/x509_csr.c:229:54
	adds	r7, #80
	add	r0, sp, #28
	add	r3, sp, #16
	.loc	4 229 17 is_stmt 0              @ ../../../ThirdParty/mbedTLS/library/x509_csr.c:229:17
	mov	r1, r6
	mov	r2, r7
	bl	mbedtls_x509_get_alg
.Ltmp81:
	@DEBUG_VALUE: mbedtls_x509_csr_parse_der:ret <- $r0
	.loc	4 229 9                         @ ../../../ThirdParty/mbedTLS/library/x509_csr.c:229:9
	cbz	r0, .LBB0_25
.Ltmp82:
@ %bb.24:
	@DEBUG_VALUE: mbedtls_x509_csr_parse_der:end <- $r6
	@DEBUG_VALUE: mbedtls_x509_csr_parse_der:ret <- $r0
	@DEBUG_VALUE: mbedtls_x509_csr_parse_der:p <- [DW_OP_plus_uconst 28, DW_OP_deref] $sp
	@DEBUG_VALUE: mbedtls_x509_csr_parse_der:csr <- [DW_OP_plus_uconst 12] [$sp+0]
	.loc	4 0 0                           @ ../../../ThirdParty/mbedTLS/library/x509_csr.c:0:0
	mov	r5, r0
.Ltmp83:
	@DEBUG_VALUE: mbedtls_x509_csr_parse_der:ret <- $r5
	.loc	4 231 9 is_stmt 1               @ ../../../ThirdParty/mbedTLS/library/x509_csr.c:231:9
	ldr	r0, [sp, #12]                   @ 4-byte Reload
	bl	mbedtls_x509_csr_free
	.loc	4 232 9                         @ ../../../ThirdParty/mbedTLS/library/x509_csr.c:232:9
	b	.LBB0_10
.Ltmp84:
.LBB0_25:
	@DEBUG_VALUE: mbedtls_x509_csr_parse_der:end <- $r6
	@DEBUG_VALUE: mbedtls_x509_csr_parse_der:ret <- $r0
	@DEBUG_VALUE: mbedtls_x509_csr_parse_der:p <- [DW_OP_plus_uconst 28, DW_OP_deref] $sp
	@DEBUG_VALUE: mbedtls_x509_csr_parse_der:csr <- [DW_OP_plus_uconst 12] [$sp+0]
	.loc	4 0 9 is_stmt 0                 @ ../../../ThirdParty/mbedTLS/library/x509_csr.c:0:9
	ldr	r3, [sp, #12]                   @ 4-byte Reload
.Ltmp85:
	.loc	4 237 49 is_stmt 1              @ ../../../ThirdParty/mbedTLS/library/x509_csr.c:237:49
	mov	r0, r3
.Ltmp86:
	adds	r0, #108
	.loc	4 235 17                        @ ../../../ThirdParty/mbedTLS/library/x509_csr.c:235:17
	str	r0, [sp]
	.loc	4 236 49                        @ ../../../ThirdParty/mbedTLS/library/x509_csr.c:236:49
	mov	r2, r3
	adds	r2, #104
	.loc	4 236 63 is_stmt 0              @ ../../../ThirdParty/mbedTLS/library/x509_csr.c:236:63
	adds	r3, #105
	add	r1, sp, #16
	.loc	4 235 17 is_stmt 1              @ ../../../ThirdParty/mbedTLS/library/x509_csr.c:235:17
	mov	r0, r7
	bl	mbedtls_x509_get_sig_alg
.Ltmp87:
	@DEBUG_VALUE: mbedtls_x509_csr_parse_der:ret <- $r0
	.loc	4 235 9 is_stmt 0               @ ../../../ThirdParty/mbedTLS/library/x509_csr.c:235:9
	cbz	r0, .LBB0_27
.Ltmp88:
@ %bb.26:
	@DEBUG_VALUE: mbedtls_x509_csr_parse_der:end <- $r6
	@DEBUG_VALUE: mbedtls_x509_csr_parse_der:ret <- $r0
	@DEBUG_VALUE: mbedtls_x509_csr_parse_der:p <- [DW_OP_plus_uconst 28, DW_OP_deref] $sp
	@DEBUG_VALUE: mbedtls_x509_csr_parse_der:csr <- [DW_OP_plus_uconst 12] [$sp+0]
	.loc	4 239 9 is_stmt 1               @ ../../../ThirdParty/mbedTLS/library/x509_csr.c:239:9
	ldr	r0, [sp, #12]                   @ 4-byte Reload
.Ltmp89:
	bl	mbedtls_x509_csr_free
	ldr	r5, __arm_cp.0_2
	.loc	4 240 9                         @ ../../../ThirdParty/mbedTLS/library/x509_csr.c:240:9
	b	.LBB0_10
.Ltmp90:
.LBB0_27:
	@DEBUG_VALUE: mbedtls_x509_csr_parse_der:end <- $r6
	@DEBUG_VALUE: mbedtls_x509_csr_parse_der:ret <- $r0
	@DEBUG_VALUE: mbedtls_x509_csr_parse_der:p <- [DW_OP_plus_uconst 28, DW_OP_deref] $sp
	@DEBUG_VALUE: mbedtls_x509_csr_parse_der:csr <- [DW_OP_plus_uconst 12] [$sp+0]
	@DEBUG_VALUE: mbedtls_x509_csr_parse_der:p <- [DW_OP_plus_uconst 28, DW_OP_deref] $sp
	.loc	4 243 54                        @ ../../../ThirdParty/mbedTLS/library/x509_csr.c:243:54
	ldr	r2, [sp, #12]                   @ 4-byte Reload
	adds	r2, #92
	add	r0, sp, #28
.Ltmp91:
	.loc	4 243 17 is_stmt 0              @ ../../../ThirdParty/mbedTLS/library/x509_csr.c:243:17
	mov	r1, r6
	bl	mbedtls_x509_get_sig
.Ltmp92:
	@DEBUG_VALUE: mbedtls_x509_csr_parse_der:ret <- $r0
	.loc	4 243 9                         @ ../../../ThirdParty/mbedTLS/library/x509_csr.c:243:9
	cbz	r0, .LBB0_29
.Ltmp93:
@ %bb.28:
	@DEBUG_VALUE: mbedtls_x509_csr_parse_der:end <- $r6
	@DEBUG_VALUE: mbedtls_x509_csr_parse_der:ret <- $r0
	@DEBUG_VALUE: mbedtls_x509_csr_parse_der:p <- [DW_OP_plus_uconst 28, DW_OP_deref] $sp
	@DEBUG_VALUE: mbedtls_x509_csr_parse_der:csr <- [DW_OP_plus_uconst 12] [$sp+0]
	.loc	4 0 0                           @ ../../../ThirdParty/mbedTLS/library/x509_csr.c:0:0
	mov	r5, r0
.Ltmp94:
	@DEBUG_VALUE: mbedtls_x509_csr_parse_der:ret <- $r5
	.loc	4 245 9 is_stmt 1               @ ../../../ThirdParty/mbedTLS/library/x509_csr.c:245:9
	ldr	r0, [sp, #12]                   @ 4-byte Reload
	bl	mbedtls_x509_csr_free
	.loc	4 246 9                         @ ../../../ThirdParty/mbedTLS/library/x509_csr.c:246:9
	b	.LBB0_10
.Ltmp95:
.LBB0_29:
	@DEBUG_VALUE: mbedtls_x509_csr_parse_der:end <- $r6
	@DEBUG_VALUE: mbedtls_x509_csr_parse_der:ret <- $r0
	@DEBUG_VALUE: mbedtls_x509_csr_parse_der:p <- [DW_OP_plus_uconst 28, DW_OP_deref] $sp
	@DEBUG_VALUE: mbedtls_x509_csr_parse_der:csr <- [DW_OP_plus_uconst 12] [$sp+0]
	.loc	4 249 9                         @ ../../../ThirdParty/mbedTLS/library/x509_csr.c:249:9
	ldr	r0, [sp, #28]
.Ltmp96:
	@DEBUG_VALUE: mbedtls_x509_csr_parse_der:p <- $r0
	.loc	4 249 9 is_stmt 0               @ ../../../ThirdParty/mbedTLS/library/x509_csr.c:249:9
	cmp	r0, r6
	.loc	4 0 0                           @ ../../../ThirdParty/mbedTLS/library/x509_csr.c:0:0
	ldr	r5, [sp, #8]                    @ 4-byte Reload
	bne	.LBB0_30
	b	.LBB0_10
.Ltmp97:
.LBB0_30:
	@DEBUG_VALUE: mbedtls_x509_csr_parse_der:end <- $r6
	@DEBUG_VALUE: mbedtls_x509_csr_parse_der:p <- $r0
	@DEBUG_VALUE: mbedtls_x509_csr_parse_der:csr <- [DW_OP_plus_uconst 12] [$sp+0]
	.loc	4 251 9 is_stmt 1               @ ../../../ThirdParty/mbedTLS/library/x509_csr.c:251:9
	ldr	r0, [sp, #12]                   @ 4-byte Reload
.Ltmp98:
	bl	mbedtls_x509_csr_free
	ldr	r5, __arm_cp.0_1
.Ltmp99:
	.loc	4 0 0 is_stmt 0                 @ ../../../ThirdParty/mbedTLS/library/x509_csr.c:0:0
	subs	r5, #102
	b	.LBB0_10
.Ltmp100:
	.p2align	2
@ %bb.31:
__arm_cp.0_0:
	.long	4294956928                      @ 0xffffd780
.Lcpi_end0:
	.size	__arm_cp.0_0, .Lcpi_end0-__arm_cp.0_0
__arm_cp.0_1:
	.long	4294958720                      @ 0xffffde80
.Lcpi_end1:
	.size	__arm_cp.0_1, .Lcpi_end1-__arm_cp.0_1
__arm_cp.0_2:
	.long	4294957568                      @ 0xffffda00
.Lcpi_end2:
	.size	__arm_cp.0_2, .Lcpi_end2-__arm_cp.0_2
.Lfunc_end0:
	.size	mbedtls_x509_csr_parse_der, .Lfunc_end0-mbedtls_x509_csr_parse_der
	.cfi_endproc
	.cantunwind
	.fnend
                                        @ -- End function
	.section	.text.mbedtls_x509_csr_init,"ax",%progbits
	.hidden	mbedtls_x509_csr_init           @ -- Begin function mbedtls_x509_csr_init
	.globl	mbedtls_x509_csr_init
	.p2align	1
	.type	mbedtls_x509_csr_init,%function
	.code	16                              @ @mbedtls_x509_csr_init
	.thumb_func
mbedtls_x509_csr_init:
.Lfunc_begin1:
	.loc	4 380 0 is_stmt 1               @ ../../../ThirdParty/mbedTLS/library/x509_csr.c:380:0
	.fnstart
	.cfi_startproc
@ %bb.0:
	@DEBUG_VALUE: mbedtls_x509_csr_init:csr <- $r0
	@DEBUG_VALUE: mbedtls_x509_csr_init:csr <- $r0
	.save	{r7, lr}
	push	{r7, lr}
	.cfi_def_cfa_offset 8
	.cfi_offset lr, -4
	.cfi_offset r7, -8
	movs	r1, #112
	@DEBUG_VALUE: mbedtls_x509_csr_init:csr <- $r0
.Ltmp101:
	.loc	4 381 5 prologue_end            @ ../../../ThirdParty/mbedTLS/library/x509_csr.c:381:5
	bl	__aeabi_memclr4
.Ltmp102:
	@DEBUG_VALUE: mbedtls_x509_csr_init:csr <- [DW_OP_LLVM_entry_value 1] $r0
	.loc	4 382 1                         @ ../../../ThirdParty/mbedTLS/library/x509_csr.c:382:1
	pop	{r7, pc}
.Ltmp103:
.Lfunc_end1:
	.size	mbedtls_x509_csr_init, .Lfunc_end1-mbedtls_x509_csr_init
	.cfi_endproc
	.cantunwind
	.fnend
                                        @ -- End function
	.section	.text.mbedtls_x509_csr_free,"ax",%progbits
	.hidden	mbedtls_x509_csr_free           @ -- Begin function mbedtls_x509_csr_free
	.globl	mbedtls_x509_csr_free
	.p2align	1
	.type	mbedtls_x509_csr_free,%function
	.code	16                              @ @mbedtls_x509_csr_free
	.thumb_func
mbedtls_x509_csr_free:
.Lfunc_begin2:
	.loc	4 388 0                         @ ../../../ThirdParty/mbedTLS/library/x509_csr.c:388:0
	.fnstart
	.cfi_startproc
@ %bb.0:
	@DEBUG_VALUE: mbedtls_x509_csr_free:csr <- $r0
	@DEBUG_VALUE: mbedtls_x509_csr_free:csr <- $r0
	.save	{r4, r5, r6, r7, lr}
	push	{r4, r5, r6, r7, lr}
	.cfi_def_cfa_offset 20
	.cfi_offset lr, -4
	.cfi_offset r7, -8
	.cfi_offset r6, -12
	.cfi_offset r5, -16
	.cfi_offset r4, -20
	.pad	#4
	sub	sp, #4
	.cfi_def_cfa_offset 24
.Ltmp104:
	.loc	4 392 9 prologue_end            @ ../../../ThirdParty/mbedTLS/library/x509_csr.c:392:9
	cbz	r0, .LBB2_7
.Ltmp105:
@ %bb.1:
	@DEBUG_VALUE: mbedtls_x509_csr_free:csr <- $r0
	.loc	4 0 9 is_stmt 0                 @ ../../../ThirdParty/mbedTLS/library/x509_csr.c:0:9
	mov	r4, r0
.Ltmp106:
	@DEBUG_VALUE: mbedtls_x509_csr_free:csr <- $r4
	.loc	4 395 28 is_stmt 1              @ ../../../ThirdParty/mbedTLS/library/x509_csr.c:395:28
	adds	r0, #72
	.loc	4 395 5 is_stmt 0               @ ../../../ThirdParty/mbedTLS/library/x509_csr.c:395:5
	bl	mbedtls_pk_free
	.loc	4 398 24 is_stmt 1              @ ../../../ThirdParty/mbedTLS/library/x509_csr.c:398:24
	ldr	r0, [r4, #108]
	.loc	4 398 5 is_stmt 0               @ ../../../ThirdParty/mbedTLS/library/x509_csr.c:398:5
	bl	free
	.loc	4 401 29 is_stmt 1              @ ../../../ThirdParty/mbedTLS/library/x509_csr.c:401:29
	ldr	r5, [r4, #64]
.Ltmp107:
	@DEBUG_VALUE: mbedtls_x509_csr_free:name_cur <- $r5
	.loc	4 402 5                         @ ../../../ThirdParty/mbedTLS/library/x509_csr.c:402:5
	cbz	r5, .LBB2_4
.Ltmp108:
@ %bb.2:
	@DEBUG_VALUE: mbedtls_x509_csr_free:name_cur <- $r5
	@DEBUG_VALUE: mbedtls_x509_csr_free:csr <- $r4
	.loc	4 0 5 is_stmt 0                 @ ../../../ThirdParty/mbedTLS/library/x509_csr.c:0:5
	movs	r6, #32
.Ltmp109:
.LBB2_3:                                @ =>This Inner Loop Header: Depth=1
	@DEBUG_VALUE: mbedtls_x509_csr_free:name_cur <- $r5
	@DEBUG_VALUE: mbedtls_x509_csr_free:csr <- $r4
	@DEBUG_VALUE: mbedtls_x509_csr_free:name_cur <- $r5
	@DEBUG_VALUE: mbedtls_x509_csr_free:name_prv <- $r5
	.loc	4 405 30 is_stmt 1              @ ../../../ThirdParty/mbedTLS/library/x509_csr.c:405:30
	ldr	r7, [r5, #24]
.Ltmp110:
	@DEBUG_VALUE: mbedtls_x509_csr_free:name_cur <- $r7
	.loc	4 406 9                         @ ../../../ThirdParty/mbedTLS/library/x509_csr.c:406:9
	mov	r0, r5
	mov	r1, r6
	bl	mbedtls_platform_zeroize
	.loc	4 407 9                         @ ../../../ThirdParty/mbedTLS/library/x509_csr.c:407:9
	mov	r0, r5
	bl	free
.Ltmp111:
	.loc	4 402 5                         @ ../../../ThirdParty/mbedTLS/library/x509_csr.c:402:5
	cmp	r7, #0
	mov	r5, r7
.Ltmp112:
	@DEBUG_VALUE: mbedtls_x509_csr_free:name_cur <- $r5
	@DEBUG_VALUE: mbedtls_x509_csr_free:name_cur <- $r5
	bne	.LBB2_3
.Ltmp113:
.LBB2_4:
	@DEBUG_VALUE: mbedtls_x509_csr_free:name_cur <- $r5
	@DEBUG_VALUE: mbedtls_x509_csr_free:csr <- $r4
	.loc	4 410 18                        @ ../../../ThirdParty/mbedTLS/library/x509_csr.c:410:18
	ldr	r0, [r4, #8]
.Ltmp114:
	.loc	4 410 9 is_stmt 0               @ ../../../ThirdParty/mbedTLS/library/x509_csr.c:410:9
	cbz	r0, .LBB2_6
.Ltmp115:
@ %bb.5:
	@DEBUG_VALUE: mbedtls_x509_csr_free:name_cur <- $r5
	@DEBUG_VALUE: mbedtls_x509_csr_free:csr <- $r4
	.loc	4 412 56 is_stmt 1              @ ../../../ThirdParty/mbedTLS/library/x509_csr.c:412:56
	ldr	r1, [r4, #4]
	.loc	4 412 9 is_stmt 0               @ ../../../ThirdParty/mbedTLS/library/x509_csr.c:412:9
	bl	mbedtls_platform_zeroize
	.loc	4 413 32 is_stmt 1              @ ../../../ThirdParty/mbedTLS/library/x509_csr.c:413:32
	ldr	r0, [r4, #8]
	.loc	4 413 9 is_stmt 0               @ ../../../ThirdParty/mbedTLS/library/x509_csr.c:413:9
	bl	free
.Ltmp116:
.LBB2_6:
	@DEBUG_VALUE: mbedtls_x509_csr_free:name_cur <- $r5
	@DEBUG_VALUE: mbedtls_x509_csr_free:csr <- $r4
	.loc	4 0 9                           @ ../../../ThirdParty/mbedTLS/library/x509_csr.c:0:9
	movs	r1, #112
	.loc	4 416 5 is_stmt 1               @ ../../../ThirdParty/mbedTLS/library/x509_csr.c:416:5
	mov	r0, r4
	bl	mbedtls_platform_zeroize
.Ltmp117:
.LBB2_7:
	.loc	4 417 1                         @ ../../../ThirdParty/mbedTLS/library/x509_csr.c:417:1
	add	sp, #4
	pop	{r4, r5, r6, r7, pc}
.Ltmp118:
.Lfunc_end2:
	.size	mbedtls_x509_csr_free, .Lfunc_end2-mbedtls_x509_csr_free
	.cfi_endproc
	.cantunwind
	.fnend
                                        @ -- End function
	.section	.text.x509_csr_get_version,"ax",%progbits
	.p2align	1                               @ -- Begin function x509_csr_get_version
	.type	x509_csr_get_version,%function
	.code	16                              @ @x509_csr_get_version
	.thumb_func
x509_csr_get_version:
.Lfunc_begin3:
	.loc	4 70 0                          @ ../../../ThirdParty/mbedTLS/library/x509_csr.c:70:0
	.fnstart
	.cfi_startproc
@ %bb.0:
	@DEBUG_VALUE: x509_csr_get_version:p <- $r0
	@DEBUG_VALUE: x509_csr_get_version:end <- $r1
	@DEBUG_VALUE: x509_csr_get_version:ver <- $r2
	.save	{r4, lr}
	push	{r4, lr}
	.cfi_def_cfa_offset 8
	.cfi_offset lr, -4
	.cfi_offset r4, -8
	mov	r4, r2
.Ltmp119:
	@DEBUG_VALUE: x509_csr_get_version:ver <- $r4
	@DEBUG_VALUE: x509_csr_get_version:end <- $r1
	@DEBUG_VALUE: x509_csr_get_version:p <- $r0
	@DEBUG_VALUE: x509_csr_get_version:end <- $r1
	@DEBUG_VALUE: x509_csr_get_version:p <- $r0
	.loc	4 73 17 prologue_end            @ ../../../ThirdParty/mbedTLS/library/x509_csr.c:73:17
	bl	mbedtls_asn1_get_int
.Ltmp120:
	@DEBUG_VALUE: x509_csr_get_version:end <- [DW_OP_LLVM_entry_value 1] $r1
	@DEBUG_VALUE: x509_csr_get_version:p <- [DW_OP_LLVM_entry_value 1] $r0
	@DEBUG_VALUE: x509_csr_get_version:ret <- $r0
	.loc	4 73 9 is_stmt 0                @ ../../../ThirdParty/mbedTLS/library/x509_csr.c:73:9
	cbz	r0, .LBB3_4
.Ltmp121:
@ %bb.1:
	@DEBUG_VALUE: x509_csr_get_version:ver <- $r4
	@DEBUG_VALUE: x509_csr_get_version:ret <- $r0
	@DEBUG_VALUE: x509_csr_get_version:end <- [DW_OP_LLVM_entry_value 1] $r1
	@DEBUG_VALUE: x509_csr_get_version:p <- [DW_OP_LLVM_entry_value 1] $r0
	mov	r1, r0
	adds	r1, #98
	bne	.LBB3_3
.Ltmp122:
@ %bb.2:
	@DEBUG_VALUE: x509_csr_get_version:ver <- $r4
	@DEBUG_VALUE: x509_csr_get_version:ret <- $r0
	@DEBUG_VALUE: x509_csr_get_version:end <- [DW_OP_LLVM_entry_value 1] $r1
	@DEBUG_VALUE: x509_csr_get_version:p <- [DW_OP_LLVM_entry_value 1] $r0
	.loc	4 0 9                           @ ../../../ThirdParty/mbedTLS/library/x509_csr.c:0:9
	movs	r0, #0
.Ltmp123:
	.loc	4 77 18 is_stmt 1               @ ../../../ThirdParty/mbedTLS/library/x509_csr.c:77:18
	str	r0, [r4]
.Ltmp124:
	.loc	4 85 1                          @ ../../../ThirdParty/mbedTLS/library/x509_csr.c:85:1
	pop	{r4, pc}
.Ltmp125:
.LBB3_3:
	@DEBUG_VALUE: x509_csr_get_version:ver <- $r4
	@DEBUG_VALUE: x509_csr_get_version:ret <- $r0
	@DEBUG_VALUE: x509_csr_get_version:end <- [DW_OP_LLVM_entry_value 1] $r1
	@DEBUG_VALUE: x509_csr_get_version:p <- [DW_OP_LLVM_entry_value 1] $r0
	.loc	4 81 50                         @ ../../../ThirdParty/mbedTLS/library/x509_csr.c:81:50
	movw	r1, #8704
	subs	r0, r0, r1
.Ltmp126:
.LBB3_4:
	@DEBUG_VALUE: x509_csr_get_version:ver <- $r4
	@DEBUG_VALUE: x509_csr_get_version:end <- [DW_OP_LLVM_entry_value 1] $r1
	@DEBUG_VALUE: x509_csr_get_version:p <- [DW_OP_LLVM_entry_value 1] $r0
	.loc	4 85 1                          @ ../../../ThirdParty/mbedTLS/library/x509_csr.c:85:1
	pop	{r4, pc}
.Ltmp127:
.Lfunc_end3:
	.size	x509_csr_get_version, .Lfunc_end3-x509_csr_get_version
	.cfi_endproc
	.cantunwind
	.fnend
                                        @ -- End function
	.section	.text.mbedtls_x509_csr_parse,"ax",%progbits
	.hidden	mbedtls_x509_csr_parse          @ -- Begin function mbedtls_x509_csr_parse
	.globl	mbedtls_x509_csr_parse
	.p2align	2
	.type	mbedtls_x509_csr_parse,%function
	.code	16                              @ @mbedtls_x509_csr_parse
	.thumb_func
mbedtls_x509_csr_parse:
.Lfunc_begin4:
	.loc	4 263 0                         @ ../../../ThirdParty/mbedTLS/library/x509_csr.c:263:0
	.fnstart
	.cfi_startproc
@ %bb.0:
	@DEBUG_VALUE: mbedtls_x509_csr_parse:csr <- $r0
	@DEBUG_VALUE: mbedtls_x509_csr_parse:buf <- $r1
	@DEBUG_VALUE: mbedtls_x509_csr_parse:buflen <- $r2
	.save	{r4, r5, r6, r7, lr}
	push	{r4, r5, r6, r7, lr}
	.cfi_def_cfa_offset 20
	.cfi_offset lr, -4
	.cfi_offset r7, -8
	.cfi_offset r6, -12
	.cfi_offset r5, -16
	.cfi_offset r4, -20
	.pad	#36
	sub	sp, #36
	.cfi_def_cfa_offset 56
	ldr	r7, __arm_cp.4_0
	@DEBUG_VALUE: mbedtls_x509_csr_parse:buflen <- $r2
	@DEBUG_VALUE: mbedtls_x509_csr_parse:buf <- $r1
	@DEBUG_VALUE: mbedtls_x509_csr_parse:csr <- $r0
.Ltmp128:
	.loc	4 273 21 prologue_end           @ ../../../ThirdParty/mbedTLS/library/x509_csr.c:273:21
	cbz	r0, .LBB4_10
.Ltmp129:
@ %bb.1:
	@DEBUG_VALUE: mbedtls_x509_csr_parse:buflen <- $r2
	@DEBUG_VALUE: mbedtls_x509_csr_parse:buf <- $r1
	@DEBUG_VALUE: mbedtls_x509_csr_parse:csr <- $r0
	@DEBUG_VALUE: mbedtls_x509_csr_parse:buflen <- $r2
	.loc	4 0 21 is_stmt 0                @ ../../../ThirdParty/mbedTLS/library/x509_csr.c:0:21
	mov	r5, r1
.Ltmp130:
	@DEBUG_VALUE: mbedtls_x509_csr_parse:buf <- $r5
	@DEBUG_VALUE: mbedtls_x509_csr_parse:csr <- $r0
	.loc	4 273 21                        @ ../../../ThirdParty/mbedTLS/library/x509_csr.c:273:21
	cbz	r1, .LBB4_10
.Ltmp131:
@ %bb.2:
	@DEBUG_VALUE: mbedtls_x509_csr_parse:buf <- $r5
	@DEBUG_VALUE: mbedtls_x509_csr_parse:buflen <- $r2
	@DEBUG_VALUE: mbedtls_x509_csr_parse:csr <- $r0
	.loc	4 0 21                          @ ../../../ThirdParty/mbedTLS/library/x509_csr.c:0:21
	mov	r4, r2
.Ltmp132:
	@DEBUG_VALUE: mbedtls_x509_csr_parse:buflen <- $r4
	@DEBUG_VALUE: mbedtls_x509_csr_parse:csr <- $r0
	.loc	4 273 21                        @ ../../../ThirdParty/mbedTLS/library/x509_csr.c:273:21
	cbz	r2, .LBB4_10
.Ltmp133:
@ %bb.3:
	@DEBUG_VALUE: mbedtls_x509_csr_parse:buf <- $r5
	@DEBUG_VALUE: mbedtls_x509_csr_parse:buflen <- $r4
	@DEBUG_VALUE: mbedtls_x509_csr_parse:csr <- $r0
	.loc	4 0 21                          @ ../../../ThirdParty/mbedTLS/library/x509_csr.c:0:21
	mov	r6, r0
.Ltmp134:
	@DEBUG_VALUE: mbedtls_x509_csr_parse:csr <- $r6
	.loc	4 278 20 is_stmt 1              @ ../../../ThirdParty/mbedTLS/library/x509_csr.c:278:20
	adds	r0, r4, r5
	.loc	4 278 9 is_stmt 0               @ ../../../ThirdParty/mbedTLS/library/x509_csr.c:278:9
	subs	r0, r0, #1
	ldrb	r0, [r0]
.Ltmp135:
	.loc	4 278 9                         @ ../../../ThirdParty/mbedTLS/library/x509_csr.c:278:9
	cbnz	r0, .LBB4_9
.Ltmp136:
@ %bb.4:
	@DEBUG_VALUE: mbedtls_x509_csr_parse:csr <- $r6
	@DEBUG_VALUE: mbedtls_x509_csr_parse:buf <- $r5
	@DEBUG_VALUE: mbedtls_x509_csr_parse:buflen <- $r4
	.loc	4 0 9                           @ ../../../ThirdParty/mbedTLS/library/x509_csr.c:0:9
	add	r7, sp, #20
.Ltmp137:
	.loc	4 280 9 is_stmt 1               @ ../../../ThirdParty/mbedTLS/library/x509_csr.c:280:9
	mov	r0, r7
	bl	mbedtls_pem_init
.Ltmp138:
	@DEBUG_VALUE: mbedtls_x509_csr_parse:use_len <- [DW_OP_plus_uconst 32, DW_OP_deref] $sp
	.loc	4 0 9 is_stmt 0                 @ ../../../ThirdParty/mbedTLS/library/x509_csr.c:0:9
	add	r0, sp, #32
	movs	r1, #0
	.loc	4 281 15 is_stmt 1              @ ../../../ThirdParty/mbedTLS/library/x509_csr.c:281:15
	str	r1, [sp]
	str	r1, [sp, #16]                   @ 4-byte Spill
	str	r1, [sp, #4]
	str	r0, [sp, #8]
	adr	r1, .LCPI4_1
	adr	r2, .LCPI4_2
	mov	r0, r7
	mov	r3, r5
	bl	mbedtls_pem_read_buffer
	mov	r7, r0
.Ltmp139:
	@DEBUG_VALUE: mbedtls_x509_csr_parse:ret <- $r7
	.loc	4 0 15 is_stmt 0                @ ../../../ThirdParty/mbedTLS/library/x509_csr.c:0:15
	ldr	r0, __arm_cp.4_3
	.loc	4 285 13 is_stmt 1              @ ../../../ThirdParty/mbedTLS/library/x509_csr.c:285:13
	cmp	r7, r0
	bne	.LBB4_6
.Ltmp140:
@ %bb.5:
	@DEBUG_VALUE: mbedtls_x509_csr_parse:ret <- $r7
	@DEBUG_VALUE: mbedtls_x509_csr_parse:csr <- $r6
	@DEBUG_VALUE: mbedtls_x509_csr_parse:buf <- $r5
	@DEBUG_VALUE: mbedtls_x509_csr_parse:buflen <- $r4
	@DEBUG_VALUE: mbedtls_x509_csr_parse:use_len <- [DW_OP_plus_uconst 32, DW_OP_deref] $sp
	@DEBUG_VALUE: mbedtls_x509_csr_parse:use_len <- [DW_OP_plus_uconst 32, DW_OP_deref] $sp
	.loc	4 0 13 is_stmt 0                @ ../../../ThirdParty/mbedTLS/library/x509_csr.c:0:13
	add	r0, sp, #32
	ldr	r1, [sp, #16]                   @ 4-byte Reload
.Ltmp141:
	.loc	4 287 19 is_stmt 1              @ ../../../ThirdParty/mbedTLS/library/x509_csr.c:287:19
	str	r1, [sp]
	str	r1, [sp, #4]
	str	r0, [sp, #8]
	add	r0, sp, #20
	ldr	r1, __arm_cp.4_4
	adr	r2, .LCPI4_5
	mov	r3, r5
	bl	mbedtls_pem_read_buffer
	mov	r7, r0
.Ltmp142:
	@DEBUG_VALUE: mbedtls_x509_csr_parse:ret <- $r7
.LBB4_6:
	@DEBUG_VALUE: mbedtls_x509_csr_parse:ret <- $r7
	@DEBUG_VALUE: mbedtls_x509_csr_parse:csr <- $r6
	@DEBUG_VALUE: mbedtls_x509_csr_parse:buf <- $r5
	@DEBUG_VALUE: mbedtls_x509_csr_parse:buflen <- $r4
	@DEBUG_VALUE: mbedtls_x509_csr_parse:use_len <- [DW_OP_plus_uconst 32, DW_OP_deref] $sp
	@DEBUG_VALUE: mbedtls_x509_csr_parse:ret <- $r7
	.loc	4 293 13                        @ ../../../ThirdParty/mbedTLS/library/x509_csr.c:293:13
	cbnz	r7, .LBB4_8
.Ltmp143:
@ %bb.7:
	@DEBUG_VALUE: mbedtls_x509_csr_parse:ret <- $r7
	@DEBUG_VALUE: mbedtls_x509_csr_parse:csr <- $r6
	@DEBUG_VALUE: mbedtls_x509_csr_parse:buf <- $r5
	@DEBUG_VALUE: mbedtls_x509_csr_parse:buflen <- $r4
	@DEBUG_VALUE: mbedtls_x509_csr_parse:use_len <- [DW_OP_plus_uconst 32, DW_OP_deref] $sp
	.loc	4 298 65                        @ ../../../ThirdParty/mbedTLS/library/x509_csr.c:298:65
	ldr	r2, [sp, #24]
	.loc	4 298 56 is_stmt 0              @ ../../../ThirdParty/mbedTLS/library/x509_csr.c:298:56
	ldr	r1, [sp, #20]
	.loc	4 298 19                        @ ../../../ThirdParty/mbedTLS/library/x509_csr.c:298:19
	mov	r0, r6
	bl	mbedtls_x509_csr_parse_der
	mov	r7, r0
.Ltmp144:
	@DEBUG_VALUE: mbedtls_x509_csr_parse:ret <- $r7
.LBB4_8:
	@DEBUG_VALUE: mbedtls_x509_csr_parse:ret <- $r7
	@DEBUG_VALUE: mbedtls_x509_csr_parse:csr <- $r6
	@DEBUG_VALUE: mbedtls_x509_csr_parse:buf <- $r5
	@DEBUG_VALUE: mbedtls_x509_csr_parse:buflen <- $r4
	@DEBUG_VALUE: mbedtls_x509_csr_parse:use_len <- [DW_OP_plus_uconst 32, DW_OP_deref] $sp
	@DEBUG_VALUE: mbedtls_x509_csr_parse:ret <- $r7
	.loc	4 0 19                          @ ../../../ThirdParty/mbedTLS/library/x509_csr.c:0:19
	add	r0, sp, #20
	.loc	4 301 9 is_stmt 1               @ ../../../ThirdParty/mbedTLS/library/x509_csr.c:301:9
	bl	mbedtls_pem_free
	.loc	4 302 13                        @ ../../../ThirdParty/mbedTLS/library/x509_csr.c:302:13
	ldr	r0, __arm_cp.4_3
	cmp	r7, r0
	bne	.LBB4_10
.Ltmp145:
.LBB4_9:
	@DEBUG_VALUE: mbedtls_x509_csr_parse:csr <- $r6
	@DEBUG_VALUE: mbedtls_x509_csr_parse:buf <- $r5
	@DEBUG_VALUE: mbedtls_x509_csr_parse:buflen <- $r4
	.loc	4 306 13                        @ ../../../ThirdParty/mbedTLS/library/x509_csr.c:306:13
	mov	r0, r6
	mov	r1, r5
	mov	r2, r4
	bl	mbedtls_x509_csr_parse_der
	mov	r7, r0
.Ltmp146:
.LBB4_10:
	.loc	4 307 1                         @ ../../../ThirdParty/mbedTLS/library/x509_csr.c:307:1
	mov	r0, r7
	add	sp, #36
	pop	{r4, r5, r6, r7, pc}
.Ltmp147:
	.p2align	2
@ %bb.11:
	.loc	4 0 1 is_stmt 0                 @ ../../../ThirdParty/mbedTLS/library/x509_csr.c:0:1
__arm_cp.4_0:
	.long	4294957056                      @ 0xffffd800
.Lcpi_end3:
	.size	__arm_cp.4_0, .Lcpi_end3-__arm_cp.4_0
.LCPI4_1:
.L.str:
	.asciz	"-----BEGIN CERTIFICATE REQUEST-----"
.LCPI4_2:
.L.str.1:
	.asciz	"-----END CERTIFICATE REQUEST-----\000\000"
__arm_cp.4_3:
	.long	4294963072                      @ 0xffffef80
.Lcpi_end4:
	.size	__arm_cp.4_3, .Lcpi_end4-__arm_cp.4_3
__arm_cp.4_4:
	.long	.L.str.2
.Lcpi_end5:
	.size	__arm_cp.4_4, .Lcpi_end5-__arm_cp.4_4
.LCPI4_5:
.L.str.3:
	.asciz	"-----END NEW CERTIFICATE REQUEST-----\000\000"
.Lfunc_end4:
	.size	mbedtls_x509_csr_parse, .Lfunc_end4-mbedtls_x509_csr_parse
	.cfi_endproc
	.cantunwind
	.fnend
                                        @ -- End function
	.section	.text.mbedtls_x509_csr_info,"ax",%progbits
	.hidden	mbedtls_x509_csr_info           @ -- Begin function mbedtls_x509_csr_info
	.globl	mbedtls_x509_csr_info
	.p2align	2
	.type	mbedtls_x509_csr_info,%function
	.code	16                              @ @mbedtls_x509_csr_info
	.thumb_func
mbedtls_x509_csr_info:
.Lfunc_begin5:
	.loc	4 338 0 is_stmt 1               @ ../../../ThirdParty/mbedTLS/library/x509_csr.c:338:0
	.fnstart
	.cfi_startproc
@ %bb.0:
	@DEBUG_VALUE: mbedtls_x509_csr_info:buf <- $r0
	@DEBUG_VALUE: mbedtls_x509_csr_info:size <- $r1
	@DEBUG_VALUE: mbedtls_x509_csr_info:prefix <- $r2
	@DEBUG_VALUE: mbedtls_x509_csr_info:csr <- $r3
	.save	{r4, r5, r6, r7, lr}
	push	{r4, r5, r6, r7, lr}
	.cfi_def_cfa_offset 20
	.cfi_offset lr, -4
	.cfi_offset r7, -8
	.cfi_offset r6, -12
	.cfi_offset r5, -16
	.cfi_offset r4, -20
	.pad	#36
	sub	sp, #36
	.cfi_def_cfa_offset 56
	mov	r6, r3
	mov	r5, r2
	mov	r4, r1
	mov	r7, r0
.Ltmp148:
	@DEBUG_VALUE: mbedtls_x509_csr_info:n <- $r4
	@DEBUG_VALUE: mbedtls_x509_csr_info:p <- $r7
	@DEBUG_VALUE: mbedtls_x509_csr_info:csr <- $r6
	@DEBUG_VALUE: mbedtls_x509_csr_info:prefix <- $r5
	@DEBUG_VALUE: mbedtls_x509_csr_info:size <- $r4
	@DEBUG_VALUE: mbedtls_x509_csr_info:buf <- $r7
	.loc	4 348 42 prologue_end           @ ../../../ThirdParty/mbedTLS/library/x509_csr.c:348:42
	ldr	r0, [r3, #24]
	.loc	4 347 11                        @ ../../../ThirdParty/mbedTLS/library/x509_csr.c:347:11
	str	r0, [sp]
	adr	r2, .LCPI5_0
	mov	r0, r7
	mov	r3, r5
	bl	__2snprintf
.Ltmp149:
	@DEBUG_VALUE: mbedtls_x509_csr_info:ret <- $r0
	.loc	4 0 11 is_stmt 0                @ ../../../ThirdParty/mbedTLS/library/x509_csr.c:0:11
	ldr	r1, __arm_cp.5_1
.Ltmp150:
	.loc	4 349 5 is_stmt 1               @ ../../../ThirdParty/mbedTLS/library/x509_csr.c:349:5
	cmp	r0, #0
	bmi	.LBB5_15
.Ltmp151:
@ %bb.1:
	@DEBUG_VALUE: mbedtls_x509_csr_info:buf <- $r7
	@DEBUG_VALUE: mbedtls_x509_csr_info:p <- $r7
	@DEBUG_VALUE: mbedtls_x509_csr_info:csr <- $r6
	@DEBUG_VALUE: mbedtls_x509_csr_info:prefix <- $r5
	@DEBUG_VALUE: mbedtls_x509_csr_info:size <- $r4
	@DEBUG_VALUE: mbedtls_x509_csr_info:n <- $r4
	@DEBUG_VALUE: mbedtls_x509_csr_info:ret <- $r0
	cmp	r0, r4
	bhs	.LBB5_15
.Ltmp152:
@ %bb.2:
	@DEBUG_VALUE: mbedtls_x509_csr_info:buf <- $r7
	@DEBUG_VALUE: mbedtls_x509_csr_info:p <- $r7
	@DEBUG_VALUE: mbedtls_x509_csr_info:csr <- $r6
	@DEBUG_VALUE: mbedtls_x509_csr_info:prefix <- $r5
	@DEBUG_VALUE: mbedtls_x509_csr_info:size <- $r4
	@DEBUG_VALUE: mbedtls_x509_csr_info:n <- $r4
	@DEBUG_VALUE: mbedtls_x509_csr_info:ret <- $r0
	.loc	4 0 5 is_stmt 0                 @ ../../../ThirdParty/mbedTLS/library/x509_csr.c:0:5
	mov	r3, r5
	.loc	4 349 5                         @ ../../../ThirdParty/mbedTLS/library/x509_csr.c:349:5
	adds	r5, r7, r0
.Ltmp153:
	@DEBUG_VALUE: mbedtls_x509_csr_info:p <- $r5
	subs	r7, r4, r0
.Ltmp154:
	@DEBUG_VALUE: mbedtls_x509_csr_info:n <- $r7
	.loc	4 351 11 is_stmt 1              @ ../../../ThirdParty/mbedTLS/library/x509_csr.c:351:11
	adr	r2, .LCPI5_2
	mov	r0, r5
.Ltmp155:
	mov	r1, r7
	str	r3, [sp, #16]                   @ 4-byte Spill
	bl	__2snprintf
.Ltmp156:
	@DEBUG_VALUE: mbedtls_x509_csr_info:ret <- $r0
	.loc	4 352 5                         @ ../../../ThirdParty/mbedTLS/library/x509_csr.c:352:5
	cmp	r0, #0
	bmi	.LBB5_16
.Ltmp157:
@ %bb.3:
	@DEBUG_VALUE: mbedtls_x509_csr_info:n <- $r7
	@DEBUG_VALUE: mbedtls_x509_csr_info:csr <- $r6
	@DEBUG_VALUE: mbedtls_x509_csr_info:p <- $r5
	@DEBUG_VALUE: mbedtls_x509_csr_info:size <- $r4
	@DEBUG_VALUE: mbedtls_x509_csr_info:ret <- $r0
	cmp	r7, r0
	bls	.LBB5_16
.Ltmp158:
@ %bb.4:
	@DEBUG_VALUE: mbedtls_x509_csr_info:n <- $r7
	@DEBUG_VALUE: mbedtls_x509_csr_info:csr <- $r6
	@DEBUG_VALUE: mbedtls_x509_csr_info:p <- $r5
	@DEBUG_VALUE: mbedtls_x509_csr_info:size <- $r4
	@DEBUG_VALUE: mbedtls_x509_csr_info:ret <- $r0
	.loc	4 352 5 is_stmt 0               @ ../../../ThirdParty/mbedTLS/library/x509_csr.c:352:5
	adds	r1, r5, r0
.Ltmp159:
	@DEBUG_VALUE: mbedtls_x509_csr_info:p <- $r1
	subs	r5, r7, r0
.Ltmp160:
	@DEBUG_VALUE: mbedtls_x509_csr_info:n <- $r5
	.loc	4 0 5                           @ ../../../ThirdParty/mbedTLS/library/x509_csr.c:0:5
	mov	r7, r1
.Ltmp161:
	@DEBUG_VALUE: mbedtls_x509_csr_info:p <- $r7
	.loc	4 353 45 is_stmt 1              @ ../../../ThirdParty/mbedTLS/library/x509_csr.c:353:45
	mov	r2, r6
	adds	r2, #40
	.loc	4 353 11 is_stmt 0              @ ../../../ThirdParty/mbedTLS/library/x509_csr.c:353:11
	mov	r0, r1
.Ltmp162:
	mov	r1, r5
	bl	mbedtls_x509_dn_gets
.Ltmp163:
	@DEBUG_VALUE: mbedtls_x509_csr_info:ret <- $r0
	.loc	4 354 5 is_stmt 1               @ ../../../ThirdParty/mbedTLS/library/x509_csr.c:354:5
	cmp	r0, #0
	bmi	.LBB5_16
.Ltmp164:
@ %bb.5:
	@DEBUG_VALUE: mbedtls_x509_csr_info:p <- $r7
	@DEBUG_VALUE: mbedtls_x509_csr_info:csr <- $r6
	@DEBUG_VALUE: mbedtls_x509_csr_info:n <- $r5
	@DEBUG_VALUE: mbedtls_x509_csr_info:size <- $r4
	@DEBUG_VALUE: mbedtls_x509_csr_info:ret <- $r0
	cmp	r5, r0
	bls	.LBB5_16
.Ltmp165:
@ %bb.6:
	@DEBUG_VALUE: mbedtls_x509_csr_info:p <- $r7
	@DEBUG_VALUE: mbedtls_x509_csr_info:csr <- $r6
	@DEBUG_VALUE: mbedtls_x509_csr_info:n <- $r5
	@DEBUG_VALUE: mbedtls_x509_csr_info:size <- $r4
	@DEBUG_VALUE: mbedtls_x509_csr_info:ret <- $r0
	.loc	4 354 5 is_stmt 0               @ ../../../ThirdParty/mbedTLS/library/x509_csr.c:354:5
	adds	r1, r7, r0
.Ltmp166:
	@DEBUG_VALUE: mbedtls_x509_csr_info:p <- $r1
	subs	r7, r5, r0
.Ltmp167:
	@DEBUG_VALUE: mbedtls_x509_csr_info:n <- $r7
	.loc	4 356 11 is_stmt 1              @ ../../../ThirdParty/mbedTLS/library/x509_csr.c:356:11
	adr	r2, .LCPI5_3
	str	r1, [sp, #12]                   @ 4-byte Spill
.Ltmp168:
	@DEBUG_VALUE: mbedtls_x509_csr_info:p <- [DW_OP_plus_uconst 12] [$sp+0]
	mov	r0, r1
.Ltmp169:
	mov	r1, r7
	ldr	r3, [sp, #16]                   @ 4-byte Reload
	bl	__2snprintf
.Ltmp170:
	@DEBUG_VALUE: mbedtls_x509_csr_info:ret <- $r0
	.loc	4 357 5                         @ ../../../ThirdParty/mbedTLS/library/x509_csr.c:357:5
	cmp	r0, #0
	bmi	.LBB5_16
.Ltmp171:
@ %bb.7:
	@DEBUG_VALUE: mbedtls_x509_csr_info:n <- $r7
	@DEBUG_VALUE: mbedtls_x509_csr_info:csr <- $r6
	@DEBUG_VALUE: mbedtls_x509_csr_info:size <- $r4
	@DEBUG_VALUE: mbedtls_x509_csr_info:ret <- $r0
	@DEBUG_VALUE: mbedtls_x509_csr_info:p <- [DW_OP_plus_uconst 12] [$sp+0]
	cmp	r7, r0
	bls	.LBB5_16
.Ltmp172:
@ %bb.8:
	@DEBUG_VALUE: mbedtls_x509_csr_info:n <- $r7
	@DEBUG_VALUE: mbedtls_x509_csr_info:csr <- $r6
	@DEBUG_VALUE: mbedtls_x509_csr_info:size <- $r4
	@DEBUG_VALUE: mbedtls_x509_csr_info:ret <- $r0
	@DEBUG_VALUE: mbedtls_x509_csr_info:p <- [DW_OP_plus_uconst 12] [$sp+0]
	.loc	4 0 5 is_stmt 0                 @ ../../../ThirdParty/mbedTLS/library/x509_csr.c:0:5
	mov	r1, r6
	adds	r1, #104
	.loc	4 359 64 is_stmt 1              @ ../../../ThirdParty/mbedTLS/library/x509_csr.c:359:64
	ldrb	r3, [r1, #1]
	.loc	4 359 77 is_stmt 0              @ ../../../ThirdParty/mbedTLS/library/x509_csr.c:359:77
	ldrb	r1, [r1]
	.loc	4 360 43 is_stmt 1              @ ../../../ThirdParty/mbedTLS/library/x509_csr.c:360:43
	ldr	r2, [r6, #108]
	.loc	4 359 11                        @ ../../../ThirdParty/mbedTLS/library/x509_csr.c:359:11
	str	r1, [sp]
	str	r2, [sp, #4]
.Ltmp173:
	.loc	4 357 5                         @ ../../../ThirdParty/mbedTLS/library/x509_csr.c:357:5
	ldr	r1, [sp, #12]                   @ 4-byte Reload
	adds	r1, r1, r0
.Ltmp174:
	@DEBUG_VALUE: mbedtls_x509_csr_info:p <- $r1
	subs	r5, r7, r0
.Ltmp175:
	@DEBUG_VALUE: mbedtls_x509_csr_info:n <- $r5
	.loc	4 359 50                        @ ../../../ThirdParty/mbedTLS/library/x509_csr.c:359:50
	mov	r2, r6
	adds	r2, #80
	str	r1, [sp, #12]                   @ 4-byte Spill
.Ltmp176:
	@DEBUG_VALUE: mbedtls_x509_csr_info:p <- [DW_OP_plus_uconst 12] [$sp+0]
	.loc	4 359 11 is_stmt 0              @ ../../../ThirdParty/mbedTLS/library/x509_csr.c:359:11
	mov	r0, r1
.Ltmp177:
	mov	r1, r5
	bl	mbedtls_x509_sig_alg_gets
.Ltmp178:
	@DEBUG_VALUE: mbedtls_x509_csr_info:ret <- $r0
	.loc	4 361 5 is_stmt 1               @ ../../../ThirdParty/mbedTLS/library/x509_csr.c:361:5
	cmp	r0, #0
	bmi	.LBB5_16
.Ltmp179:
@ %bb.9:
	@DEBUG_VALUE: mbedtls_x509_csr_info:csr <- $r6
	@DEBUG_VALUE: mbedtls_x509_csr_info:n <- $r5
	@DEBUG_VALUE: mbedtls_x509_csr_info:size <- $r4
	@DEBUG_VALUE: mbedtls_x509_csr_info:ret <- $r0
	@DEBUG_VALUE: mbedtls_x509_csr_info:p <- [DW_OP_plus_uconst 12] [$sp+0]
	.loc	4 0 0 is_stmt 0                 @ ../../../ThirdParty/mbedTLS/library/x509_csr.c:0:0
	mov	r7, r0
.Ltmp180:
	@DEBUG_VALUE: mbedtls_x509_csr_info:ret <- $r7
	.loc	4 361 5                         @ ../../../ThirdParty/mbedTLS/library/x509_csr.c:361:5
	cmp	r5, r0
	bls	.LBB5_16
.Ltmp181:
@ %bb.10:
	@DEBUG_VALUE: mbedtls_x509_csr_info:ret <- $r7
	@DEBUG_VALUE: mbedtls_x509_csr_info:csr <- $r6
	@DEBUG_VALUE: mbedtls_x509_csr_info:n <- $r5
	@DEBUG_VALUE: mbedtls_x509_csr_info:size <- $r4
	@DEBUG_VALUE: mbedtls_x509_csr_info:p <- [DW_OP_plus_uconst 12] [$sp+0]
	@DEBUG_VALUE: mbedtls_x509_csr_info:p <- undef
	.loc	4 364 44 is_stmt 1              @ ../../../ThirdParty/mbedTLS/library/x509_csr.c:364:44
	adds	r6, #72
.Ltmp182:
	.loc	4 364 17 is_stmt 0              @ ../../../ThirdParty/mbedTLS/library/x509_csr.c:364:17
	mov	r0, r6
	bl	mbedtls_pk_get_name
	mov	r2, r0
	add	r0, sp, #20
	movs	r1, #14
	.loc	4 363 17 is_stmt 1              @ ../../../ThirdParty/mbedTLS/library/x509_csr.c:363:17
	bl	mbedtls_x509_key_size_helper
.Ltmp183:
	@DEBUG_VALUE: mbedtls_x509_csr_info:ret <- $r0
	@DEBUG_VALUE: mbedtls_x509_csr_info:n <- undef
	.loc	4 363 9 is_stmt 0               @ ../../../ThirdParty/mbedTLS/library/x509_csr.c:363:9
	cbnz	r0, .LBB5_14
.Ltmp184:
@ %bb.11:
	@DEBUG_VALUE: mbedtls_x509_csr_info:size <- $r4
	@DEBUG_VALUE: mbedtls_x509_csr_info:ret <- $r0
	.loc	4 0 0                           @ ../../../ThirdParty/mbedTLS/library/x509_csr.c:0:0
	subs	r5, r5, r7
.Ltmp185:
	@DEBUG_VALUE: mbedtls_x509_csr_info:n <- $r5
	.loc	4 370 35 is_stmt 1              @ ../../../ThirdParty/mbedTLS/library/x509_csr.c:370:35
	mov	r0, r6
.Ltmp186:
	bl	mbedtls_pk_get_bitlen
	.loc	4 369 11                        @ ../../../ThirdParty/mbedTLS/library/x509_csr.c:369:11
	str	r0, [sp, #4]
	add	r0, sp, #20
	str	r0, [sp]
.Ltmp187:
	.loc	4 361 5                         @ ../../../ThirdParty/mbedTLS/library/x509_csr.c:361:5
	ldr	r0, [sp, #12]                   @ 4-byte Reload
	adds	r0, r0, r7
.Ltmp188:
	@DEBUG_VALUE: mbedtls_x509_csr_info:p <- $r0
	.loc	4 369 11                        @ ../../../ThirdParty/mbedTLS/library/x509_csr.c:369:11
	adr	r2, .LCPI5_4
	mov	r1, r5
	ldr	r3, [sp, #16]                   @ 4-byte Reload
	bl	__2snprintf
.Ltmp189:
	@DEBUG_VALUE: mbedtls_x509_csr_info:ret <- $r0
	.loc	4 371 5                         @ ../../../ThirdParty/mbedTLS/library/x509_csr.c:371:5
	cmp	r0, #0
	bmi	.LBB5_16
.Ltmp190:
@ %bb.12:
	@DEBUG_VALUE: mbedtls_x509_csr_info:n <- $r5
	@DEBUG_VALUE: mbedtls_x509_csr_info:size <- $r4
	@DEBUG_VALUE: mbedtls_x509_csr_info:ret <- $r0
	.loc	4 0 0 is_stmt 0                 @ ../../../ThirdParty/mbedTLS/library/x509_csr.c:0:0
	mov	r1, r0
.Ltmp191:
	@DEBUG_VALUE: mbedtls_x509_csr_info:ret <- $r1
	.loc	4 371 5                         @ ../../../ThirdParty/mbedTLS/library/x509_csr.c:371:5
	cmp	r0, r5
.Ltmp192:
	.loc	4 0 0                           @ ../../../ThirdParty/mbedTLS/library/x509_csr.c:0:0
	ldr	r0, __arm_cp.5_1
.Ltmp193:
	.loc	4 371 5                         @ ../../../ThirdParty/mbedTLS/library/x509_csr.c:371:5
	bhs	.LBB5_14
.Ltmp194:
@ %bb.13:
	@DEBUG_VALUE: mbedtls_x509_csr_info:n <- $r5
	@DEBUG_VALUE: mbedtls_x509_csr_info:size <- $r4
	@DEBUG_VALUE: mbedtls_x509_csr_info:ret <- $r1
	@DEBUG_VALUE: mbedtls_x509_csr_info:p <- undef
	@DEBUG_VALUE: mbedtls_x509_csr_info:n <- undef
	.loc	4 371 5                         @ ../../../ThirdParty/mbedTLS/library/x509_csr.c:371:5
	subs	r0, r4, r5
.Ltmp195:
	.loc	4 373 26 is_stmt 1              @ ../../../ThirdParty/mbedTLS/library/x509_csr.c:373:26
	adds	r0, r0, r1
.Ltmp196:
.LBB5_14:
	@DEBUG_VALUE: mbedtls_x509_csr_info:size <- $r4
	.loc	4 374 1                         @ ../../../ThirdParty/mbedTLS/library/x509_csr.c:374:1
	add	sp, #36
	pop	{r4, r5, r6, r7, pc}
.Ltmp197:
.LBB5_15:
	@DEBUG_VALUE: mbedtls_x509_csr_info:buf <- $r7
	@DEBUG_VALUE: mbedtls_x509_csr_info:p <- $r7
	@DEBUG_VALUE: mbedtls_x509_csr_info:csr <- $r6
	@DEBUG_VALUE: mbedtls_x509_csr_info:prefix <- $r5
	@DEBUG_VALUE: mbedtls_x509_csr_info:size <- $r4
	@DEBUG_VALUE: mbedtls_x509_csr_info:n <- $r4
	@DEBUG_VALUE: mbedtls_x509_csr_info:ret <- $r0
	.loc	4 0 0 is_stmt 0                 @ ../../../ThirdParty/mbedTLS/library/x509_csr.c:0:0
	mov	r0, r1
.Ltmp198:
	.loc	4 374 1                         @ ../../../ThirdParty/mbedTLS/library/x509_csr.c:374:1
	add	sp, #36
	pop	{r4, r5, r6, r7, pc}
.Ltmp199:
.LBB5_16:
	@DEBUG_VALUE: mbedtls_x509_csr_info:size <- $r4
	.loc	4 0 0                           @ ../../../ThirdParty/mbedTLS/library/x509_csr.c:0:0
	ldr	r0, __arm_cp.5_1
	.loc	4 374 1                         @ ../../../ThirdParty/mbedTLS/library/x509_csr.c:374:1
	add	sp, #36
	pop	{r4, r5, r6, r7, pc}
.Ltmp200:
	.p2align	2
@ %bb.17:
	.loc	4 0 1                           @ ../../../ThirdParty/mbedTLS/library/x509_csr.c:0:1
.LCPI5_0:
.L.str.4:
	.asciz	"%sCSR version   : %d\000\000\000"
__arm_cp.5_1:
	.long	4294956672                      @ 0xffffd680
.Lcpi_end6:
	.size	__arm_cp.5_1, .Lcpi_end6-__arm_cp.5_1
.LCPI5_2:
.L.str.5:
	.asciz	"\n%ssubject name  : "
.LCPI5_3:
.L.str.6:
	.asciz	"\n%ssigned using  : "
.LCPI5_4:
.L.str.7:
	.asciz	"\n%s%-14s: %d bits\n\000"
.Lfunc_end5:
	.size	mbedtls_x509_csr_info, .Lfunc_end5-mbedtls_x509_csr_info
	.cfi_endproc
	.cantunwind
	.fnend
                                        @ -- End function
	.type	.L.str.2,%object                @ @.str.2
	.section	.rodata.str1.1,"aMS",%progbits,1
.L.str.2:
	.asciz	"-----BEGIN NEW CERTIFICATE REQUEST-----"
	.size	.L.str.2, 40

	.globl	_printf_percent
	.globl	_printf_flags
	.globl	_printf_widthprec
	.globl	_printf_pre_padding
	.globl	_printf_return_value
	.globl	_printf_s
	.globl	_printf_d
	.globl	_printf_int_dec
	.globl	_printf_str
	.hidden	_printf_percent
	.hidden	_printf_flags
	.hidden	_printf_widthprec
	.hidden	_printf_pre_padding
	.hidden	_printf_return_value
	.hidden	_printf_s
	.hidden	_printf_d
	.hidden	_printf_int_dec
	.hidden	_printf_str
	.file	5 "C:\\Users\\shw26\\OneDrive\\Desktop\\2021\\2021-1\\\354\272\241\354\212\244\355\206\244\353\224\224\354\236\220\354\235\2702\\Nuvoton\\M2351_BSP_v3.00.004\\M2351Series_BSP_CMSIS_V3.00.004\\MyProject\\PulseMonitoring\\Secure" "../../../ThirdParty/mbedTLS/include/mbedtls/asn1.h"
	.file	6 "C:\\Users\\shw26\\OneDrive\\Desktop\\2021\\2021-1\\\354\272\241\354\212\244\355\206\244\353\224\224\354\236\220\354\235\2702\\Nuvoton\\M2351_BSP_v3.00.004\\M2351Series_BSP_CMSIS_V3.00.004\\MyProject\\PulseMonitoring\\Secure" "../../../ThirdParty/mbedTLS/include/mbedtls/x509.h"
	.file	7 "C:\\Users\\shw26\\OneDrive\\Desktop\\2021\\2021-1\\\354\272\241\354\212\244\355\206\244\353\224\224\354\236\220\354\235\2702\\Nuvoton\\M2351_BSP_v3.00.004\\M2351Series_BSP_CMSIS_V3.00.004\\MyProject\\PulseMonitoring\\Secure" "../../../ThirdParty/mbedTLS/include/mbedtls\\x509_csr.h"
	.file	8 "C:\\Users\\shw26\\OneDrive\\Desktop\\2021\\2021-1\\\354\272\241\354\212\244\355\206\244\353\224\224\354\236\220\354\235\2702\\Nuvoton\\M2351_BSP_v3.00.004\\M2351Series_BSP_CMSIS_V3.00.004\\MyProject\\PulseMonitoring\\Secure" "../../../ThirdParty/mbedTLS/include/mbedtls\\pem.h"
	.section	".note.GNU-stack","",%progbits
	.eabi_attribute	30, 1	@ Tag_ABI_optimization_goals
	.ARM_attribute	16, 1	@ Tag_AV_eba