	.text
	.syntax unified
	.eabi_attribute	67, "2.09"	@ Tag_conformance
	.cpu	cortex-m23
	.eabi_attribute	6, 16	@ Tag_CPU_arch
	.eabi_attribute	7, 77	@ Tag_CPU_arch_profile
	.eabi_attribute	8, 0	@ Tag_ARM_ISA_use
	.eabi_attribute	9, 3	@ Tag_THUMB_ISA_use
	.eabi_attribute	34, 0	@ Tag_CPU_unaligned_access
	.eabi_attribute	17, 1	@ Tag_ABI_PCS_GOT_use
	.eabi_attribute	20, 2	@ Tag_ABI_FP_denormal
	.eabi_attribute	21, 0	@ Tag_ABI_FP_exceptions
	.eabi_attribute	23, 1	@ Tag_ABI_FP_number_model
	.eabi_attribute	24, 1	@ Tag_ABI_align_needed
	.eabi_attribute	25, 1	@ Tag_ABI_align_preserved
	.eabi_attribute	38, 1	@ Tag_ABI_FP_16bit_format
	.eabi_attribute	18, 2	@ Tag_ABI_PCS_wchar_t
	.eabi_attribute	26, 1	@ Tag_ABI_enum_size
	.eabi_attribute	14, 0	@ Tag_ABI_PCS_R9_use
	.file	"x509write_csr.c"
	.file	1 "C:\\Users\\shw26\\OneDrive\\Desktop\\2021\\2021-1\\\354\272\241\354\212\244\355\206\244\353\224\224\354\236\220\354\235\2702\\Nuvoton\\M2351_BSP_v3.00.004\\M2351Series_BSP_CMSIS_V3.00.004\\MyProject\\PulseMonitoring\\Secure" "../../../ThirdParty/mbedTLS/include/mbedtls/md.h"
	.file	2 "C:\\Users\\shw26\\OneDrive\\Desktop\\2021\\2021-1\\\354\272\241\354\212\244\355\206\244\353\224\224\354\236\220\354\235\2702\\Nuvoton\\M2351_BSP_v3.00.004\\M2351Series_BSP_CMSIS_V3.00.004\\MyProject\\PulseMonitoring\\Secure" "../../../ThirdParty/mbedTLS/include/mbedtls/pk.h"
	.file	3 "C:\\" "Keil_v5\\ARM\\ARMCLANG\\Bin\\..\\include\\stddef.h"
	.section	.text.mbedtls_x509write_csr_init,"ax",%progbits
	.hidden	mbedtls_x509write_csr_init      @ -- Begin function mbedtls_x509write_csr_init
	.globl	mbedtls_x509write_csr_init
	.p2align	1
	.type	mbedtls_x509write_csr_init,%function
	.code	16                              @ @mbedtls_x509write_csr_init
	.thumb_func
mbedtls_x509write_csr_init:
.Lfunc_begin0:
	.file	4 "C:\\Users\\shw26\\OneDrive\\Desktop\\2021\\2021-1\\\354\272\241\354\212\244\355\206\244\353\224\224\354\236\220\354\235\2702\\Nuvoton\\M2351_BSP_v3.00.004\\M2351Series_BSP_CMSIS_V3.00.004\\MyProject\\PulseMonitoring\\Secure" "../../../ThirdParty/mbedTLS/library/x509write_csr.c"
	.loc	4 53 0                          @ ../../../ThirdParty/mbedTLS/library/x509write_csr.c:53:0
	.fnstart
	.cfi_sections .debug_frame
	.cfi_startproc
@ %bb.0:
	@DEBUG_VALUE: mbedtls_x509write_csr_init:ctx <- $r0
	movs	r1, #0
	@DEBUG_VALUE: mbedtls_x509write_csr_init:ctx <- $r0
.Ltmp0:
	.loc	4 54 5 prologue_end             @ ../../../ThirdParty/mbedTLS/library/x509write_csr.c:54:5
	str	r1, [r0]
	str	r1, [r0, #4]
	str	r1, [r0, #8]
	str	r1, [r0, #12]
	.loc	4 55 1                          @ ../../../ThirdParty/mbedTLS/library/x509write_csr.c:55:1
	bx	lr
.Ltmp1:
.Lfunc_end0:
	.size	mbedtls_x509write_csr_init, .Lfunc_end0-mbedtls_x509write_csr_init
	.cfi_endproc
	.cantunwind
	.fnend
                                        @ -- End function
	.section	.text.mbedtls_x509write_csr_free,"ax",%progbits
	.hidden	mbedtls_x509write_csr_free      @ -- Begin function mbedtls_x509write_csr_free
	.globl	mbedtls_x509write_csr_free
	.p2align	1
	.type	mbedtls_x509write_csr_free,%function
	.code	16                              @ @mbedtls_x509write_csr_free
	.thumb_func
mbedtls_x509write_csr_free:
.Lfunc_begin1:
	.loc	4 58 0                          @ ../../../ThirdParty/mbedTLS/library/x509write_csr.c:58:0
	.fnstart
	.cfi_startproc
@ %bb.0:
	@DEBUG_VALUE: mbedtls_x509write_csr_free:ctx <- $r0
	.save	{r4, lr}
	push	{r4, lr}
	.cfi_def_cfa_offset 8
	.cfi_offset lr, -4
	.cfi_offset r4, -8
	mov	r4, r0
.Ltmp2:
	@DEBUG_VALUE: mbedtls_x509write_csr_free:ctx <- $r4
	.loc	4 59 46 prologue_end            @ ../../../ThirdParty/mbedTLS/library/x509write_csr.c:59:46
	adds	r0, r0, #4
	.loc	4 59 5 is_stmt 0                @ ../../../ThirdParty/mbedTLS/library/x509write_csr.c:59:5
	bl	mbedtls_asn1_free_named_data_list
	.loc	4 60 46 is_stmt 1               @ ../../../ThirdParty/mbedTLS/library/x509write_csr.c:60:46
	mov	r0, r4
	adds	r0, #12
	.loc	4 60 5 is_stmt 0                @ ../../../ThirdParty/mbedTLS/library/x509write_csr.c:60:5
	bl	mbedtls_asn1_free_named_data_list
	movs	r1, #16
	.loc	4 62 5 is_stmt 1                @ ../../../ThirdParty/mbedTLS/library/x509write_csr.c:62:5
	mov	r0, r4
	bl	mbedtls_platform_zeroize
	.loc	4 63 1                          @ ../../../ThirdParty/mbedTLS/library/x509write_csr.c:63:1
	pop	{r4, pc}
.Ltmp3:
.Lfunc_end1:
	.size	mbedtls_x509write_csr_free, .Lfunc_end1-mbedtls_x509write_csr_free
	.cfi_endproc
	.cantunwind
	.fnend
                                        @ -- End function
	.section	.text.mbedtls_x509write_csr_set_md_alg,"ax",%progbits
	.hidden	mbedtls_x509write_csr_set_md_alg @ -- Begin function mbedtls_x509write_csr_set_md_alg
	.globl	mbedtls_x509write_csr_set_md_alg
	.p2align	1
	.type	mbedtls_x509write_csr_set_md_alg,%function
	.code	16                              @ @mbedtls_x509write_csr_set_md_alg
	.thumb_func
mbedtls_x509write_csr_set_md_alg:
.Lfunc_begin2:
	.loc	4 66 0                          @ ../../../ThirdParty/mbedTLS/library/x509write_csr.c:66:0
	.fnstart
	.cfi_startproc
@ %bb.0:
	@DEBUG_VALUE: mbedtls_x509write_csr_set_md_alg:ctx <- $r0
	@DEBUG_VALUE: mbedtls_x509write_csr_set_md_alg:ctx <- $r0
	@DEBUG_VALUE: mbedtls_x509write_csr_set_md_alg:md_alg <- $r1
	@DEBUG_VALUE: mbedtls_x509write_csr_set_md_alg:md_alg <- $r1
	.loc	4 67 17 prologue_end            @ ../../../ThirdParty/mbedTLS/library/x509write_csr.c:67:17
	strb	r1, [r0, #8]
	.loc	4 68 1                          @ ../../../ThirdParty/mbedTLS/library/x509write_csr.c:68:1
	bx	lr
.Ltmp4:
.Lfunc_end2:
	.size	mbedtls_x509write_csr_set_md_alg, .Lfunc_end2-mbedtls_x509write_csr_set_md_alg
	.cfi_endproc
	.cantunwind
	.fnend
                                        @ -- End function
	.section	.text.mbedtls_x509write_csr_set_key,"ax",%progbits
	.hidden	mbedtls_x509write_csr_set_key   @ -- Begin function mbedtls_x509write_csr_set_key
	.globl	mbedtls_x509write_csr_set_key
	.p2align	1
	.type	mbedtls_x509write_csr_set_key,%function
	.code	16                              @ @mbedtls_x509write_csr_set_key
	.thumb_func
mbedtls_x509write_csr_set_key:
.Lfunc_begin3:
	.loc	4 71 0                          @ ../../../ThirdParty/mbedTLS/library/x509write_csr.c:71:0
	.fnstart
	.cfi_startproc
@ %bb.0:
	@DEBUG_VALUE: mbedtls_x509write_csr_set_key:ctx <- $r0
	@DEBUG_VALUE: mbedtls_x509write_csr_set_key:ctx <- $r0
	@DEBUG_VALUE: mbedtls_x509write_csr_set_key:key <- $r1
	@DEBUG_VALUE: mbedtls_x509write_csr_set_key:key <- $r1
	.loc	4 72 14 prologue_end            @ ../../../ThirdParty/mbedTLS/library/x509write_csr.c:72:14
	str	r1, [r0]
	.loc	4 73 1                          @ ../../../ThirdParty/mbedTLS/library/x509write_csr.c:73:1
	bx	lr
.Ltmp5:
.Lfunc_end3:
	.size	mbedtls_x509write_csr_set_key, .Lfunc_end3-mbedtls_x509write_csr_set_key
	.cfi_endproc
	.cantunwind
	.fnend
                                        @ -- End function
	.section	.text.mbedtls_x509write_csr_set_subject_name,"ax",%progbits
	.hidden	mbedtls_x509write_csr_set_subject_name @ -- Begin function mbedtls_x509write_csr_set_subject_name
	.globl	mbedtls_x509write_csr_set_subject_name
	.p2align	1
	.type	mbedtls_x509write_csr_set_subject_name,%function
	.code	16                              @ @mbedtls_x509write_csr_set_subject_name
	.thumb_func
mbedtls_x509write_csr_set_subject_name:
.Lfunc_begin4:
	.loc	4 77 0                          @ ../../../ThirdParty/mbedTLS/library/x509write_csr.c:77:0
	.fnstart
	.cfi_startproc
@ %bb.0:
	@DEBUG_VALUE: mbedtls_x509write_csr_set_subject_name:ctx <- $r0
	@DEBUG_VALUE: mbedtls_x509write_csr_set_subject_name:ctx <- $r0
	@DEBUG_VALUE: mbedtls_x509write_csr_set_subject_name:subject_name <- $r1
	@DEBUG_VALUE: mbedtls_x509write_csr_set_subject_name:subject_name <- $r1
	.save	{r7, lr}
	push	{r7, lr}
	.cfi_def_cfa_offset 8
	.cfi_offset lr, -4
	.cfi_offset r7, -8
.Ltmp6:
	.loc	4 78 48 prologue_end            @ ../../../ThirdParty/mbedTLS/library/x509write_csr.c:78:48
	adds	r0, r0, #4
.Ltmp7:
	@DEBUG_VALUE: mbedtls_x509write_csr_set_subject_name:ctx <- [DW_OP_LLVM_entry_value 1] $r0
	@DEBUG_VALUE: mbedtls_x509write_csr_set_subject_name:subject_name <- $r1
	.loc	4 78 12 is_stmt 0               @ ../../../ThirdParty/mbedTLS/library/x509write_csr.c:78:12
	bl	mbedtls_x509_string_to_names
.Ltmp8:
	@DEBUG_VALUE: mbedtls_x509write_csr_set_subject_name:subject_name <- [DW_OP_LLVM_entry_value 1] $r1
	.loc	4 78 5                          @ ../../../ThirdParty/mbedTLS/library/x509write_csr.c:78:5
	pop	{r7, pc}
.Ltmp9:
.Lfunc_end4:
	.size	mbedtls_x509write_csr_set_subject_name, .Lfunc_end4-mbedtls_x509write_csr_set_subject_name
	.cfi_endproc
	.cantunwind
	.fnend
                                        @ -- End function
	.section	.text.mbedtls_x509write_csr_set_extension,"ax",%progbits
	.hidden	mbedtls_x509write_csr_set_extension @ -- Begin function mbedtls_x509write_csr_set_extension
	.globl	mbedtls_x509write_csr_set_extension
	.p2align	1
	.type	mbedtls_x509write_csr_set_extension,%function
	.code	16                              @ @mbedtls_x509write_csr_set_extension
	.thumb_func
mbedtls_x509write_csr_set_extension:
.Lfunc_begin5:
	.loc	4 84 0 is_stmt 1                @ ../../../ThirdParty/mbedTLS/library/x509write_csr.c:84:0
	.fnstart
	.cfi_startproc
@ %bb.0:
	@DEBUG_VALUE: mbedtls_x509write_csr_set_extension:ctx <- $r0
	@DEBUG_VALUE: mbedtls_x509write_csr_set_extension:ctx <- $r0
	@DEBUG_VALUE: mbedtls_x509write_csr_set_extension:oid <- $r1
	@DEBUG_VALUE: mbedtls_x509write_csr_set_extension:oid <- $r1
	@DEBUG_VALUE: mbedtls_x509write_csr_set_extension:oid_len <- $r2
	@DEBUG_VALUE: mbedtls_x509write_csr_set_extension:oid_len <- $r2
	@DEBUG_VALUE: mbedtls_x509write_csr_set_extension:val <- $r3
	@DEBUG_VALUE: mbedtls_x509write_csr_set_extension:val <- $r3
	.save	{r4, lr}
	push	{r4, lr}
	.cfi_def_cfa_offset 8
	.cfi_offset lr, -4
	.cfi_offset r4, -8
	.pad	#8
	sub	sp, #8
	.cfi_def_cfa_offset 16
.Ltmp10:
	@DEBUG_VALUE: mbedtls_x509write_csr_set_extension:val_len <- [DW_OP_plus_uconst 16] [$sp+0]
	ldr	r4, [sp, #16]
.Ltmp11:
	.loc	4 85 12 prologue_end            @ ../../../ThirdParty/mbedTLS/library/x509write_csr.c:85:12
	str	r3, [sp]
	str	r4, [sp, #4]
	.loc	4 85 46 is_stmt 0               @ ../../../ThirdParty/mbedTLS/library/x509write_csr.c:85:46
	adds	r0, #12
.Ltmp12:
	@DEBUG_VALUE: mbedtls_x509write_csr_set_extension:ctx <- [DW_OP_LLVM_entry_value 1] $r0
	.loc	4 0 46                          @ ../../../ThirdParty/mbedTLS/library/x509write_csr.c:0:46
	movs	r3, #0
.Ltmp13:
	@DEBUG_VALUE: mbedtls_x509write_csr_set_extension:val <- [DW_OP_LLVM_entry_value 1] $r3
	@DEBUG_VALUE: mbedtls_x509write_csr_set_extension:oid_len <- $r2
	@DEBUG_VALUE: mbedtls_x509write_csr_set_extension:oid <- $r1
	.loc	4 85 12                         @ ../../../ThirdParty/mbedTLS/library/x509write_csr.c:85:12
	bl	mbedtls_x509_set_extension
.Ltmp14:
	@DEBUG_VALUE: mbedtls_x509write_csr_set_extension:oid_len <- [DW_OP_LLVM_entry_value 1] $r2
	@DEBUG_VALUE: mbedtls_x509write_csr_set_extension:oid <- [DW_OP_LLVM_entry_value 1] $r1
	.loc	4 85 5                          @ ../../../ThirdParty/mbedTLS/library/x509write_csr.c:85:5
	add	sp, #8
.Ltmp15:
	pop	{r4, pc}
.Ltmp16:
.Lfunc_end5:
	.size	mbedtls_x509write_csr_set_extension, .Lfunc_end5-mbedtls_x509write_csr_set_extension
	.cfi_endproc
	.cantunwind
	.fnend
                                        @ -- End function
	.section	.text.mbedtls_x509write_csr_set_key_usage,"ax",%progbits
	.hidden	mbedtls_x509write_csr_set_key_usage @ -- Begin function mbedtls_x509write_csr_set_key_usage
	.globl	mbedtls_x509write_csr_set_key_usage
	.p2align	2
	.type	mbedtls_x509write_csr_set_key_usage,%function
	.code	16                              @ @mbedtls_x509write_csr_set_key_usage
	.thumb_func
mbedtls_x509write_csr_set_key_usage:
.Lfunc_begin6:
	.loc	4 90 0 is_stmt 1                @ ../../../ThirdParty/mbedTLS/library/x509write_csr.c:90:0
	.fnstart
	.cfi_startproc
@ %bb.0:
	@DEBUG_VALUE: mbedtls_x509write_csr_set_key_usage:ctx <- $r0
	@DEBUG_VALUE: mbedtls_x509write_csr_set_key_usage:key_usage <- $r1
	@DEBUG_VALUE: mbedtls_x509write_csr_set_key_usage:key_usage <- $r1
	.save	{r4, lr}
	push	{r4, lr}
	.cfi_def_cfa_offset 8
	.cfi_offset lr, -4
	.cfi_offset r4, -8
	.pad	#16
	sub	sp, #16
	.cfi_def_cfa_offset 24
	mov	r4, r0
	add	r2, sp, #12
	strb	r1, [r2]
	add	r1, sp, #8
.Ltmp17:
	@DEBUG_VALUE: mbedtls_x509write_csr_set_key_usage:key_usage <- [DW_OP_LLVM_entry_value 1] $r1
	@DEBUG_VALUE: mbedtls_x509write_csr_set_key_usage:ctx <- $r4
	.loc	4 95 13 prologue_end            @ ../../../ThirdParty/mbedTLS/library/x509write_csr.c:95:13
	adds	r0, r1, #4
.Ltmp18:
	@DEBUG_VALUE: mbedtls_x509write_csr_set_key_usage:c <- $r0
	.loc	4 95 7 is_stmt 0                @ ../../../ThirdParty/mbedTLS/library/x509write_csr.c:95:7
	str	r0, [sp, #4]
.Ltmp19:
	@DEBUG_VALUE: mbedtls_x509write_csr_set_key_usage:c <- [DW_OP_plus_uconst 4, DW_OP_deref] $sp
	@DEBUG_VALUE: mbedtls_x509write_csr_set_key_usage:key_usage <- [DW_OP_plus_uconst 12, DW_OP_deref] $sp
	.loc	4 0 7                           @ ../../../ThirdParty/mbedTLS/library/x509write_csr.c:0:7
	add	r0, sp, #4
	movs	r3, #8
	.loc	4 97 11 is_stmt 1               @ ../../../ThirdParty/mbedTLS/library/x509write_csr.c:97:11
	bl	mbedtls_asn1_write_named_bitstring
.Ltmp20:
	@DEBUG_VALUE: mbedtls_x509write_csr_set_key_usage:ret <- $r0
	.loc	4 98 17                         @ ../../../ThirdParty/mbedTLS/library/x509write_csr.c:98:17
	subs	r1, r0, #3
	cmp	r1, #1
	bhi	.LBB6_2
.Ltmp21:
@ %bb.1:
	@DEBUG_VALUE: mbedtls_x509write_csr_set_key_usage:ctx <- $r4
	@DEBUG_VALUE: mbedtls_x509write_csr_set_key_usage:ret <- $r0
	@DEBUG_VALUE: mbedtls_x509write_csr_set_key_usage:key_usage <- [DW_OP_plus_uconst 12, DW_OP_deref] $sp
	@DEBUG_VALUE: mbedtls_x509write_csr_set_key_usage:c <- [DW_OP_plus_uconst 4, DW_OP_deref] $sp
	.loc	4 103 13                        @ ../../../ThirdParty/mbedTLS/library/x509write_csr.c:103:13
	ldr	r3, [sp, #4]
.Ltmp22:
	@DEBUG_VALUE: mbedtls_x509write_csr_set_key_usage:c <- $r3
	.loc	4 101 11                        @ ../../../ThirdParty/mbedTLS/library/x509write_csr.c:101:11
	str	r0, [sp]
	adr	r1, .LCPI6_0
	movs	r2, #3
	mov	r0, r4
.Ltmp23:
	bl	mbedtls_x509write_csr_set_extension
.Ltmp24:
	@DEBUG_VALUE: mbedtls_x509write_csr_set_key_usage:ret <- $r0
.LBB6_2:
	@DEBUG_VALUE: mbedtls_x509write_csr_set_key_usage:ctx <- $r4
	@DEBUG_VALUE: mbedtls_x509write_csr_set_key_usage:ret <- $r0
	@DEBUG_VALUE: mbedtls_x509write_csr_set_key_usage:key_usage <- [DW_OP_plus_uconst 12, DW_OP_deref] $sp
	.loc	4 108 1                         @ ../../../ThirdParty/mbedTLS/library/x509write_csr.c:108:1
	add	sp, #16
.Ltmp25:
	pop	{r4, pc}
.Ltmp26:
	.p2align	2
@ %bb.3:
	.loc	4 0 1 is_stmt 0                 @ ../../../ThirdParty/mbedTLS/library/x509write_csr.c:0:1
.LCPI6_0:
.L.str:
	.asciz	"U\035\017"
.Lfunc_end6:
	.size	mbedtls_x509write_csr_set_key_usage, .Lfunc_end6-mbedtls_x509write_csr_set_key_usage
	.cfi_endproc
	.cantunwind
	.fnend
                                        @ -- End function
	.section	.text.mbedtls_x509write_csr_set_ns_cert_type,"ax",%progbits
	.hidden	mbedtls_x509write_csr_set_ns_cert_type @ -- Begin function mbedtls_x509write_csr_set_ns_cert_type
	.globl	mbedtls_x509write_csr_set_ns_cert_type
	.p2align	2
	.type	mbedtls_x509write_csr_set_ns_cert_type,%function
	.code	16                              @ @mbedtls_x509write_csr_set_ns_cert_type
	.thumb_func
mbedtls_x509write_csr_set_ns_cert_type:
.Lfunc_begin7:
	.loc	4 112 0 is_stmt 1               @ ../../../ThirdParty/mbedTLS/library/x509write_csr.c:112:0
	.fnstart
	.cfi_startproc
@ %bb.0:
	@DEBUG_VALUE: mbedtls_x509write_csr_set_ns_cert_type:ctx <- $r0
	@DEBUG_VALUE: mbedtls_x509write_csr_set_ns_cert_type:ns_cert_type <- $r1
	@DEBUG_VALUE: mbedtls_x509write_csr_set_ns_cert_type:ns_cert_type <- $r1
	.save	{r4, lr}
	push	{r4, lr}
	.cfi_def_cfa_offset 8
	.cfi_offset lr, -4
	.cfi_offset r4, -8
	.pad	#16
	sub	sp, #16
	.cfi_def_cfa_offset 24
	mov	r4, r0
	add	r2, sp, #12
	strb	r1, [r2]
	add	r1, sp, #8
.Ltmp27:
	@DEBUG_VALUE: mbedtls_x509write_csr_set_ns_cert_type:ns_cert_type <- [DW_OP_LLVM_entry_value 1] $r1
	@DEBUG_VALUE: mbedtls_x509write_csr_set_ns_cert_type:ctx <- $r4
	.loc	4 117 13 prologue_end           @ ../../../ThirdParty/mbedTLS/library/x509write_csr.c:117:13
	adds	r0, r1, #4
.Ltmp28:
	@DEBUG_VALUE: mbedtls_x509write_csr_set_ns_cert_type:c <- $r0
	.loc	4 117 7 is_stmt 0               @ ../../../ThirdParty/mbedTLS/library/x509write_csr.c:117:7
	str	r0, [sp, #4]
.Ltmp29:
	@DEBUG_VALUE: mbedtls_x509write_csr_set_ns_cert_type:c <- [DW_OP_plus_uconst 4, DW_OP_deref] $sp
	@DEBUG_VALUE: mbedtls_x509write_csr_set_ns_cert_type:ns_cert_type <- [DW_OP_plus_uconst 12, DW_OP_deref] $sp
	.loc	4 0 7                           @ ../../../ThirdParty/mbedTLS/library/x509write_csr.c:0:7
	add	r0, sp, #4
	movs	r3, #8
	.loc	4 119 11 is_stmt 1              @ ../../../ThirdParty/mbedTLS/library/x509write_csr.c:119:11
	bl	mbedtls_asn1_write_named_bitstring
.Ltmp30:
	@DEBUG_VALUE: mbedtls_x509write_csr_set_ns_cert_type:ret <- $r0
	.loc	4 120 17                        @ ../../../ThirdParty/mbedTLS/library/x509write_csr.c:120:17
	subs	r1, r0, #3
	cmp	r1, #1
	bhi	.LBB7_2
.Ltmp31:
@ %bb.1:
	@DEBUG_VALUE: mbedtls_x509write_csr_set_ns_cert_type:ctx <- $r4
	@DEBUG_VALUE: mbedtls_x509write_csr_set_ns_cert_type:ret <- $r0
	@DEBUG_VALUE: mbedtls_x509write_csr_set_ns_cert_type:ns_cert_type <- [DW_OP_plus_uconst 12, DW_OP_deref] $sp
	@DEBUG_VALUE: mbedtls_x509write_csr_set_ns_cert_type:c <- [DW_OP_plus_uconst 4, DW_OP_deref] $sp
	.loc	4 125 13                        @ ../../../ThirdParty/mbedTLS/library/x509write_csr.c:125:13
	ldr	r3, [sp, #4]
.Ltmp32:
	@DEBUG_VALUE: mbedtls_x509write_csr_set_ns_cert_type:c <- $r3
	.loc	4 123 11                        @ ../../../ThirdParty/mbedTLS/library/x509write_csr.c:123:11
	str	r0, [sp]
	adr	r1, .LCPI7_0
	movs	r2, #9
	mov	r0, r4
.Ltmp33:
	bl	mbedtls_x509write_csr_set_extension
.Ltmp34:
	@DEBUG_VALUE: mbedtls_x509write_csr_set_ns_cert_type:ret <- $r0
.LBB7_2:
	@DEBUG_VALUE: mbedtls_x509write_csr_set_ns_cert_type:ctx <- $r4
	@DEBUG_VALUE: mbedtls_x509write_csr_set_ns_cert_type:ret <- $r0
	@DEBUG_VALUE: mbedtls_x509write_csr_set_ns_cert_type:ns_cert_type <- [DW_OP_plus_uconst 12, DW_OP_deref] $sp
	.loc	4 130 1                         @ ../../../ThirdParty/mbedTLS/library/x509write_csr.c:130:1
	add	sp, #16
.Ltmp35:
	pop	{r4, pc}
.Ltmp36:
	.p2align	2
@ %bb.3:
	.loc	4 0 1 is_stmt 0                 @ ../../../ThirdParty/mbedTLS/library/x509write_csr.c:0:1
.LCPI7_0:
.L.str.1:
	.asciz	"`\206H\001\206\370B\001\001\000\000"
.Lfunc_end7:
	.size	mbedtls_x509write_csr_set_ns_cert_type, .Lfunc_end7-mbedtls_x509write_csr_set_ns_cert_type
	.cfi_endproc
	.cantunwind
	.fnend
                                        @ -- End function
	.section	.text.mbedtls_x509write_csr_der,"ax",%progbits
	.hidden	mbedtls_x509write_csr_der       @ -- Begin function mbedtls_x509write_csr_der
	.globl	mbedtls_x509write_csr_der
	.p2align	2
	.type	mbedtls_x509write_csr_der,%function
	.code	16                              @ @mbedtls_x509write_csr_der
	.thumb_func
mbedtls_x509write_csr_der:
.Lfunc_begin8:
	.loc	4 135 0 is_stmt 1               @ ../../../ThirdParty/mbedTLS/library/x509write_csr.c:135:0
	.fnstart
	.cfi_startproc
@ %bb.0:
	.save	{r4, r5, r6, r7, lr}
	push	{r4, r5, r6, r7, lr}
	.cfi_def_cfa_offset 20
	.cfi_offset lr, -4
	.cfi_offset r7, -8
	.cfi_offset r6, -12
	.cfi_offset r5, -16
	.cfi_offset r4, -20
	ldr	r7, __arm_cp.8_2
	.pad	#3204
	add	sp, r7
	.cfi_def_cfa_offset 3224
.Ltmp37:
	.loc	4 0 0 prologue_end              @ ../../../ThirdParty/mbedTLS/library/x509write_csr.c:0:0
	ldr	r6, __arm_cp.8_4
	add	r6, sp
.Ltmp38:
	@DEBUG_VALUE: mbedtls_x509write_csr_der:p_rng <- [DW_OP_plus_uconst 3224] [$sp+0]
	@DEBUG_VALUE: mbedtls_x509write_csr_der:f_rng <- $r3
	@DEBUG_VALUE: mbedtls_x509write_csr_der:size <- $r2
	@DEBUG_VALUE: mbedtls_x509write_csr_der:buf <- $r1
	@DEBUG_VALUE: mbedtls_x509write_csr_der:ctx <- $r0
	str	r3, [sp, #40]                   @ 4-byte Spill
.Ltmp39:
	@DEBUG_VALUE: mbedtls_x509write_csr_der:f_rng <- [DW_OP_plus_uconst 40] [$sp+0]
	str	r2, [sp, #36]                   @ 4-byte Spill
.Ltmp40:
	@DEBUG_VALUE: mbedtls_x509write_csr_der:size <- [DW_OP_plus_uconst 36] [$sp+0]
	mov	r7, r1
.Ltmp41:
	@DEBUG_VALUE: mbedtls_x509write_csr_der:buf <- $r7
	@DEBUG_VALUE: mbedtls_x509write_csr_der:ctx <- $r0
	movs	r5, #0
.Ltmp42:
	@DEBUG_VALUE: mbedtls_x509write_csr_der:sig_oid_len <- 0
	.loc	4 138 12                        @ ../../../ThirdParty/mbedTLS/library/x509write_csr.c:138:12
	str	r5, [r6, #8]
	movw	r2, #2048
	add	r1, sp, #52
.Ltmp43:
	@DEBUG_VALUE: mbedtls_x509write_csr_der:len <- 0
	.loc	4 154 17                        @ ../../../ThirdParty/mbedTLS/library/x509write_csr.c:154:17
	adds	r2, r1, r2
.Ltmp44:
	@DEBUG_VALUE: mbedtls_x509write_csr_der:c <- $r2
	.loc	4 154 7 is_stmt 0               @ ../../../ThirdParty/mbedTLS/library/x509write_csr.c:154:7
	str	r2, [r6, #4]
.Ltmp45:
	@DEBUG_VALUE: mbedtls_x509write_csr_der:sig_and_oid_len <- 0
	@DEBUG_VALUE: mbedtls_x509write_csr_der:pub_len <- 0
	.loc	4 0 7                           @ ../../../ThirdParty/mbedTLS/library/x509write_csr.c:0:7
	str	r0, [sp, #44]                   @ 4-byte Spill
.Ltmp46:
	@DEBUG_VALUE: mbedtls_x509write_csr_der:ctx <- [DW_OP_plus_uconst 44] [$sp+0]
	.loc	4 156 5 is_stmt 1               @ ../../../ThirdParty/mbedTLS/library/x509write_csr.c:156:5
	ldr	r2, [r0, #12]
.Ltmp47:
	@DEBUG_VALUE: mbedtls_x509write_csr_der:c <- [DW_OP_plus_uconst 3192, DW_OP_deref] $sp
	.loc	4 0 5 is_stmt 0                 @ ../../../ThirdParty/mbedTLS/library/x509write_csr.c:0:5
	ldr	r0, __arm_cp.8_5
	add	r0, sp
	.loc	4 156 5                         @ ../../../ThirdParty/mbedTLS/library/x509write_csr.c:156:5
	bl	mbedtls_x509_write_extensions
	mov	r4, r0
.Ltmp48:
	@DEBUG_VALUE: mbedtls_x509write_csr_der:ret <- $r4
	.loc	4 156 5                         @ ../../../ThirdParty/mbedTLS/library/x509write_csr.c:156:5
	cmp	r0, #0
	bpl	.LBB8_1
	b	.LBB8_24
.Ltmp49:
.LBB8_1:
	@DEBUG_VALUE: mbedtls_x509write_csr_der:buf <- $r7
	@DEBUG_VALUE: mbedtls_x509write_csr_der:ret <- $r4
	@DEBUG_VALUE: mbedtls_x509write_csr_der:c <- [DW_OP_plus_uconst 3192, DW_OP_deref] $sp
	@DEBUG_VALUE: mbedtls_x509write_csr_der:ctx <- [DW_OP_plus_uconst 44] [$sp+0]
	@DEBUG_VALUE: mbedtls_x509write_csr_der:size <- [DW_OP_plus_uconst 36] [$sp+0]
	@DEBUG_VALUE: mbedtls_x509write_csr_der:f_rng <- [DW_OP_plus_uconst 40] [$sp+0]
	@DEBUG_VALUE: mbedtls_x509write_csr_der:p_rng <- [DW_OP_plus_uconst 3224] [$sp+0]
	@DEBUG_VALUE: mbedtls_x509write_csr_der:pub_len <- 0
	@DEBUG_VALUE: mbedtls_x509write_csr_der:sig_and_oid_len <- 0
	@DEBUG_VALUE: mbedtls_x509write_csr_der:len <- 0
	@DEBUG_VALUE: mbedtls_x509write_csr_der:sig_oid_len <- 0
	@DEBUG_VALUE: mbedtls_x509write_csr_der:len <- $r4
	.loc	4 0 5                           @ ../../../ThirdParty/mbedTLS/library/x509write_csr.c:0:5
	str	r7, [sp, #32]                   @ 4-byte Spill
.Ltmp50:
	@DEBUG_VALUE: mbedtls_x509write_csr_der:buf <- [DW_OP_plus_uconst 32] [$sp+0]
	.loc	4 158 9 is_stmt 1               @ ../../../ThirdParty/mbedTLS/library/x509write_csr.c:158:9
	beq	.LBB8_10
.Ltmp51:
@ %bb.2:
	@DEBUG_VALUE: mbedtls_x509write_csr_der:buf <- [DW_OP_plus_uconst 32] [$sp+0]
	@DEBUG_VALUE: mbedtls_x509write_csr_der:len <- $r4
	@DEBUG_VALUE: mbedtls_x509write_csr_der:ret <- $r4
	@DEBUG_VALUE: mbedtls_x509write_csr_der:c <- [DW_OP_plus_uconst 3192, DW_OP_deref] $sp
	@DEBUG_VALUE: mbedtls_x509write_csr_der:ctx <- [DW_OP_plus_uconst 44] [$sp+0]
	@DEBUG_VALUE: mbedtls_x509write_csr_der:size <- [DW_OP_plus_uconst 36] [$sp+0]
	@DEBUG_VALUE: mbedtls_x509write_csr_der:f_rng <- [DW_OP_plus_uconst 40] [$sp+0]
	@DEBUG_VALUE: mbedtls_x509write_csr_der:p_rng <- [DW_OP_plus_uconst 3224] [$sp+0]
	@DEBUG_VALUE: mbedtls_x509write_csr_der:pub_len <- 0
	@DEBUG_VALUE: mbedtls_x509write_csr_der:sig_and_oid_len <- 0
	@DEBUG_VALUE: mbedtls_x509write_csr_der:sig_oid_len <- 0
	@DEBUG_VALUE: mbedtls_x509write_csr_der:c <- [DW_OP_plus_uconst 3192, DW_OP_deref] $sp
	.loc	4 0 9 is_stmt 0                 @ ../../../ThirdParty/mbedTLS/library/x509write_csr.c:0:9
	ldr	r0, __arm_cp.8_5
	add	r0, sp
	add	r1, sp, #52
.Ltmp52:
	.loc	4 160 9 is_stmt 1               @ ../../../ThirdParty/mbedTLS/library/x509write_csr.c:160:9
	mov	r2, r4
	bl	mbedtls_asn1_write_len
	mov	r7, r0
.Ltmp53:
	@DEBUG_VALUE: mbedtls_x509write_csr_der:ret <- $r7
	.loc	4 160 9 is_stmt 0               @ ../../../ThirdParty/mbedTLS/library/x509write_csr.c:160:9
	cmp	r0, #0
	bpl	.LBB8_3
	b	.LBB8_25
.Ltmp54:
.LBB8_3:
	@DEBUG_VALUE: mbedtls_x509write_csr_der:buf <- [DW_OP_plus_uconst 32] [$sp+0]
	@DEBUG_VALUE: mbedtls_x509write_csr_der:ret <- $r7
	@DEBUG_VALUE: mbedtls_x509write_csr_der:len <- $r4
	@DEBUG_VALUE: mbedtls_x509write_csr_der:c <- [DW_OP_plus_uconst 3192, DW_OP_deref] $sp
	@DEBUG_VALUE: mbedtls_x509write_csr_der:ctx <- [DW_OP_plus_uconst 44] [$sp+0]
	@DEBUG_VALUE: mbedtls_x509write_csr_der:size <- [DW_OP_plus_uconst 36] [$sp+0]
	@DEBUG_VALUE: mbedtls_x509write_csr_der:f_rng <- [DW_OP_plus_uconst 40] [$sp+0]
	@DEBUG_VALUE: mbedtls_x509write_csr_der:p_rng <- [DW_OP_plus_uconst 3224] [$sp+0]
	@DEBUG_VALUE: mbedtls_x509write_csr_der:pub_len <- 0
	@DEBUG_VALUE: mbedtls_x509write_csr_der:sig_and_oid_len <- 0
	@DEBUG_VALUE: mbedtls_x509write_csr_der:sig_oid_len <- 0
	@DEBUG_VALUE: mbedtls_x509write_csr_der:len <- undef
	@DEBUG_VALUE: mbedtls_x509write_csr_der:c <- [DW_OP_plus_uconst 3192, DW_OP_deref] $sp
	.loc	4 0 9                           @ ../../../ThirdParty/mbedTLS/library/x509write_csr.c:0:9
	ldr	r0, __arm_cp.8_5
	add	r0, sp
	add	r1, sp, #52
	movs	r2, #48
.Ltmp55:
	.loc	4 161 9 is_stmt 1               @ ../../../ThirdParty/mbedTLS/library/x509write_csr.c:161:9
	bl	mbedtls_asn1_write_tag
.Ltmp56:
	@DEBUG_VALUE: mbedtls_x509write_csr_der:ret <- $r0
	.loc	4 161 9 is_stmt 0               @ ../../../ThirdParty/mbedTLS/library/x509write_csr.c:161:9
	cmp	r0, #0
	bpl	.LBB8_4
	b	.LBB8_26
.Ltmp57:
.LBB8_4:
	@DEBUG_VALUE: mbedtls_x509write_csr_der:buf <- [DW_OP_plus_uconst 32] [$sp+0]
	@DEBUG_VALUE: mbedtls_x509write_csr_der:ret <- $r0
	@DEBUG_VALUE: mbedtls_x509write_csr_der:c <- [DW_OP_plus_uconst 3192, DW_OP_deref] $sp
	@DEBUG_VALUE: mbedtls_x509write_csr_der:ctx <- [DW_OP_plus_uconst 44] [$sp+0]
	@DEBUG_VALUE: mbedtls_x509write_csr_der:size <- [DW_OP_plus_uconst 36] [$sp+0]
	@DEBUG_VALUE: mbedtls_x509write_csr_der:f_rng <- [DW_OP_plus_uconst 40] [$sp+0]
	@DEBUG_VALUE: mbedtls_x509write_csr_der:p_rng <- [DW_OP_plus_uconst 3224] [$sp+0]
	@DEBUG_VALUE: mbedtls_x509write_csr_der:pub_len <- 0
	@DEBUG_VALUE: mbedtls_x509write_csr_der:sig_and_oid_len <- 0
	@DEBUG_VALUE: mbedtls_x509write_csr_der:sig_oid_len <- 0
	.loc	4 160 9 is_stmt 1               @ ../../../ThirdParty/mbedTLS/library/x509write_csr.c:160:9
	adds	r1, r7, r4
.Ltmp58:
	@DEBUG_VALUE: mbedtls_x509write_csr_der:len <- $r1
	.loc	4 161 9                         @ ../../../ThirdParty/mbedTLS/library/x509write_csr.c:161:9
	adds	r4, r1, r0
	@DEBUG_VALUE: mbedtls_x509write_csr_der:c <- [DW_OP_plus_uconst 3192, DW_OP_deref] $sp
.Ltmp59:
	@DEBUG_VALUE: mbedtls_x509write_csr_der:len <- $r4
	.loc	4 0 9 is_stmt 0                 @ ../../../ThirdParty/mbedTLS/library/x509write_csr.c:0:9
	ldr	r0, __arm_cp.8_5
.Ltmp60:
	add	r0, sp
	add	r1, sp, #52
.Ltmp61:
	.loc	4 164 9 is_stmt 1               @ ../../../ThirdParty/mbedTLS/library/x509write_csr.c:164:9
	mov	r2, r4
	bl	mbedtls_asn1_write_len
	mov	r7, r0
.Ltmp62:
	@DEBUG_VALUE: mbedtls_x509write_csr_der:ret <- $r7
	.loc	4 164 9 is_stmt 0               @ ../../../ThirdParty/mbedTLS/library/x509write_csr.c:164:9
	cmp	r0, #0
	bpl	.LBB8_5
	b	.LBB8_25
.Ltmp63:
.LBB8_5:
	@DEBUG_VALUE: mbedtls_x509write_csr_der:buf <- [DW_OP_plus_uconst 32] [$sp+0]
	@DEBUG_VALUE: mbedtls_x509write_csr_der:ret <- $r7
	@DEBUG_VALUE: mbedtls_x509write_csr_der:len <- $r4
	@DEBUG_VALUE: mbedtls_x509write_csr_der:c <- [DW_OP_plus_uconst 3192, DW_OP_deref] $sp
	@DEBUG_VALUE: mbedtls_x509write_csr_der:ctx <- [DW_OP_plus_uconst 44] [$sp+0]
	@DEBUG_VALUE: mbedtls_x509write_csr_der:size <- [DW_OP_plus_uconst 36] [$sp+0]
	@DEBUG_VALUE: mbedtls_x509write_csr_der:f_rng <- [DW_OP_plus_uconst 40] [$sp+0]
	@DEBUG_VALUE: mbedtls_x509write_csr_der:p_rng <- [DW_OP_plus_uconst 3224] [$sp+0]
	@DEBUG_VALUE: mbedtls_x509write_csr_der:pub_len <- 0
	@DEBUG_VALUE: mbedtls_x509write_csr_der:sig_and_oid_len <- 0
	@DEBUG_VALUE: mbedtls_x509write_csr_der:sig_oid_len <- 0
	@DEBUG_VALUE: mbedtls_x509write_csr_der:len <- undef
	@DEBUG_VALUE: mbedtls_x509write_csr_der:c <- [DW_OP_plus_uconst 3192, DW_OP_deref] $sp
	.loc	4 0 9                           @ ../../../ThirdParty/mbedTLS/library/x509write_csr.c:0:9
	ldr	r0, __arm_cp.8_5
	add	r0, sp
	add	r1, sp, #52
	movs	r2, #49
.Ltmp64:
	.loc	4 165 9 is_stmt 1               @ ../../../ThirdParty/mbedTLS/library/x509write_csr.c:165:9
	bl	mbedtls_asn1_write_tag
	mov	r5, r0
.Ltmp65:
	@DEBUG_VALUE: mbedtls_x509write_csr_der:ret <- $r5
	.loc	4 165 9 is_stmt 0               @ ../../../ThirdParty/mbedTLS/library/x509write_csr.c:165:9
	cmp	r0, #0
	bpl	.LBB8_6
	b	.LBB8_29
.Ltmp66:
.LBB8_6:
	@DEBUG_VALUE: mbedtls_x509write_csr_der:buf <- [DW_OP_plus_uconst 32] [$sp+0]
	@DEBUG_VALUE: mbedtls_x509write_csr_der:ret <- $r5
	@DEBUG_VALUE: mbedtls_x509write_csr_der:c <- [DW_OP_plus_uconst 3192, DW_OP_deref] $sp
	@DEBUG_VALUE: mbedtls_x509write_csr_der:ctx <- [DW_OP_plus_uconst 44] [$sp+0]
	@DEBUG_VALUE: mbedtls_x509write_csr_der:size <- [DW_OP_plus_uconst 36] [$sp+0]
	@DEBUG_VALUE: mbedtls_x509write_csr_der:f_rng <- [DW_OP_plus_uconst 40] [$sp+0]
	@DEBUG_VALUE: mbedtls_x509write_csr_der:p_rng <- [DW_OP_plus_uconst 3224] [$sp+0]
	@DEBUG_VALUE: mbedtls_x509write_csr_der:pub_len <- 0
	@DEBUG_VALUE: mbedtls_x509write_csr_der:sig_and_oid_len <- 0
	@DEBUG_VALUE: mbedtls_x509write_csr_der:sig_oid_len <- 0
	@DEBUG_VALUE: mbedtls_x509write_csr_der:len <- undef
	@DEBUG_VALUE: mbedtls_x509write_csr_der:c <- [DW_OP_plus_uconst 3192, DW_OP_deref] $sp
	.loc	4 0 9                           @ ../../../ThirdParty/mbedTLS/library/x509write_csr.c:0:9
	ldr	r0, __arm_cp.8_5
	add	r0, sp
	add	r1, sp, #52
.Ltmp67:
	.loc	4 168 9 is_stmt 1               @ ../../../ThirdParty/mbedTLS/library/x509write_csr.c:168:9
	adr	r2, .LCPI8_0
	movs	r3, #9
	bl	mbedtls_asn1_write_oid
.Ltmp68:
	@DEBUG_VALUE: mbedtls_x509write_csr_der:ret <- $r0
	.loc	4 168 9 is_stmt 0               @ ../../../ThirdParty/mbedTLS/library/x509write_csr.c:168:9
	cmp	r0, #0
	bpl	.LBB8_7
	b	.LBB8_31
.Ltmp69:
.LBB8_7:
	@DEBUG_VALUE: mbedtls_x509write_csr_der:buf <- [DW_OP_plus_uconst 32] [$sp+0]
	@DEBUG_VALUE: mbedtls_x509write_csr_der:ret <- $r0
	@DEBUG_VALUE: mbedtls_x509write_csr_der:c <- [DW_OP_plus_uconst 3192, DW_OP_deref] $sp
	@DEBUG_VALUE: mbedtls_x509write_csr_der:ctx <- [DW_OP_plus_uconst 44] [$sp+0]
	@DEBUG_VALUE: mbedtls_x509write_csr_der:size <- [DW_OP_plus_uconst 36] [$sp+0]
	@DEBUG_VALUE: mbedtls_x509write_csr_der:f_rng <- [DW_OP_plus_uconst 40] [$sp+0]
	@DEBUG_VALUE: mbedtls_x509write_csr_der:p_rng <- [DW_OP_plus_uconst 3224] [$sp+0]
	@DEBUG_VALUE: mbedtls_x509write_csr_der:pub_len <- 0
	@DEBUG_VALUE: mbedtls_x509write_csr_der:sig_and_oid_len <- 0
	@DEBUG_VALUE: mbedtls_x509write_csr_der:sig_oid_len <- 0
	.loc	4 164 9 is_stmt 1               @ ../../../ThirdParty/mbedTLS/library/x509write_csr.c:164:9
	adds	r1, r7, r4
.Ltmp70:
	@DEBUG_VALUE: mbedtls_x509write_csr_der:len <- $r1
	.loc	4 165 9                         @ ../../../ThirdParty/mbedTLS/library/x509write_csr.c:165:9
	adds	r1, r1, r5
.Ltmp71:
	@DEBUG_VALUE: mbedtls_x509write_csr_der:len <- $r1
	.loc	4 168 9                         @ ../../../ThirdParty/mbedTLS/library/x509write_csr.c:168:9
	adds	r4, r1, r0
	@DEBUG_VALUE: mbedtls_x509write_csr_der:c <- [DW_OP_plus_uconst 3192, DW_OP_deref] $sp
.Ltmp72:
	@DEBUG_VALUE: mbedtls_x509write_csr_der:len <- $r4
	.loc	4 0 9 is_stmt 0                 @ ../../../ThirdParty/mbedTLS/library/x509write_csr.c:0:9
	ldr	r0, __arm_cp.8_5
.Ltmp73:
	add	r0, sp
	add	r1, sp, #52
.Ltmp74:
	.loc	4 171 9 is_stmt 1               @ ../../../ThirdParty/mbedTLS/library/x509write_csr.c:171:9
	mov	r2, r4
	bl	mbedtls_asn1_write_len
	mov	r7, r0
.Ltmp75:
	@DEBUG_VALUE: mbedtls_x509write_csr_der:ret <- $r7
	.loc	4 171 9 is_stmt 0               @ ../../../ThirdParty/mbedTLS/library/x509write_csr.c:171:9
	cmp	r0, #0
	bpl	.LBB8_8
	b	.LBB8_25
.Ltmp76:
.LBB8_8:
	@DEBUG_VALUE: mbedtls_x509write_csr_der:buf <- [DW_OP_plus_uconst 32] [$sp+0]
	@DEBUG_VALUE: mbedtls_x509write_csr_der:ret <- $r7
	@DEBUG_VALUE: mbedtls_x509write_csr_der:len <- $r4
	@DEBUG_VALUE: mbedtls_x509write_csr_der:c <- [DW_OP_plus_uconst 3192, DW_OP_deref] $sp
	@DEBUG_VALUE: mbedtls_x509write_csr_der:ctx <- [DW_OP_plus_uconst 44] [$sp+0]
	@DEBUG_VALUE: mbedtls_x509write_csr_der:size <- [DW_OP_plus_uconst 36] [$sp+0]
	@DEBUG_VALUE: mbedtls_x509write_csr_der:f_rng <- [DW_OP_plus_uconst 40] [$sp+0]
	@DEBUG_VALUE: mbedtls_x509write_csr_der:p_rng <- [DW_OP_plus_uconst 3224] [$sp+0]
	@DEBUG_VALUE: mbedtls_x509write_csr_der:pub_len <- 0
	@DEBUG_VALUE: mbedtls_x509write_csr_der:sig_and_oid_len <- 0
	@DEBUG_VALUE: mbedtls_x509write_csr_der:sig_oid_len <- 0
	@DEBUG_VALUE: mbedtls_x509write_csr_der:len <- undef
	@DEBUG_VALUE: mbedtls_x509write_csr_der:c <- [DW_OP_plus_uconst 3192, DW_OP_deref] $sp
	.loc	4 0 9                           @ ../../../ThirdParty/mbedTLS/library/x509write_csr.c:0:9
	ldr	r0, __arm_cp.8_5
	add	r0, sp
	add	r1, sp, #52
	movs	r2, #48
.Ltmp77:
	.loc	4 172 9 is_stmt 1               @ ../../../ThirdParty/mbedTLS/library/x509write_csr.c:172:9
	bl	mbedtls_asn1_write_tag
.Ltmp78:
	@DEBUG_VALUE: mbedtls_x509write_csr_der:ret <- $r0
	.loc	4 172 9 is_stmt 0               @ ../../../ThirdParty/mbedTLS/library/x509write_csr.c:172:9
	cmp	r0, #0
	bpl	.LBB8_9
	b	.LBB8_33
.Ltmp79:
.LBB8_9:
	@DEBUG_VALUE: mbedtls_x509write_csr_der:buf <- [DW_OP_plus_uconst 32] [$sp+0]
	@DEBUG_VALUE: mbedtls_x509write_csr_der:ret <- $r0
	@DEBUG_VALUE: mbedtls_x509write_csr_der:c <- [DW_OP_plus_uconst 3192, DW_OP_deref] $sp
	@DEBUG_VALUE: mbedtls_x509write_csr_der:ctx <- [DW_OP_plus_uconst 44] [$sp+0]
	@DEBUG_VALUE: mbedtls_x509write_csr_der:size <- [DW_OP_plus_uconst 36] [$sp+0]
	@DEBUG_VALUE: mbedtls_x509write_csr_der:f_rng <- [DW_OP_plus_uconst 40] [$sp+0]
	@DEBUG_VALUE: mbedtls_x509write_csr_der:p_rng <- [DW_OP_plus_uconst 3224] [$sp+0]
	@DEBUG_VALUE: mbedtls_x509write_csr_der:pub_len <- 0
	@DEBUG_VALUE: mbedtls_x509write_csr_der:sig_and_oid_len <- 0
	@DEBUG_VALUE: mbedtls_x509write_csr_der:sig_oid_len <- 0
	.loc	4 171 9 is_stmt 1               @ ../../../ThirdParty/mbedTLS/library/x509write_csr.c:171:9
	adds	r1, r7, r4
.Ltmp80:
	@DEBUG_VALUE: mbedtls_x509write_csr_der:len <- $r1
	.loc	4 172 9                         @ ../../../ThirdParty/mbedTLS/library/x509write_csr.c:172:9
	adds	r5, r1, r0
.Ltmp81:
	@DEBUG_VALUE: mbedtls_x509write_csr_der:len <- $r5
.LBB8_10:
	@DEBUG_VALUE: mbedtls_x509write_csr_der:buf <- [DW_OP_plus_uconst 32] [$sp+0]
	@DEBUG_VALUE: mbedtls_x509write_csr_der:c <- [DW_OP_plus_uconst 3192, DW_OP_deref] $sp
	@DEBUG_VALUE: mbedtls_x509write_csr_der:ctx <- [DW_OP_plus_uconst 44] [$sp+0]
	@DEBUG_VALUE: mbedtls_x509write_csr_der:size <- [DW_OP_plus_uconst 36] [$sp+0]
	@DEBUG_VALUE: mbedtls_x509write_csr_der:f_rng <- [DW_OP_plus_uconst 40] [$sp+0]
	@DEBUG_VALUE: mbedtls_x509write_csr_der:p_rng <- [DW_OP_plus_uconst 3224] [$sp+0]
	@DEBUG_VALUE: mbedtls_x509write_csr_der:pub_len <- 0
	@DEBUG_VALUE: mbedtls_x509write_csr_der:sig_and_oid_len <- 0
	@DEBUG_VALUE: mbedtls_x509write_csr_der:sig_oid_len <- 0
	@DEBUG_VALUE: mbedtls_x509write_csr_der:len <- $r5
	@DEBUG_VALUE: mbedtls_x509write_csr_der:c <- [DW_OP_plus_uconst 3192, DW_OP_deref] $sp
	.loc	4 0 9 is_stmt 0                 @ ../../../ThirdParty/mbedTLS/library/x509write_csr.c:0:9
	ldr	r0, __arm_cp.8_5
	add	r0, sp
	add	r1, sp, #52
.Ltmp82:
	.loc	4 176 5 is_stmt 1               @ ../../../ThirdParty/mbedTLS/library/x509write_csr.c:176:5
	mov	r2, r5
	bl	mbedtls_asn1_write_len
	mov	r7, r0
.Ltmp83:
	@DEBUG_VALUE: mbedtls_x509write_csr_der:ret <- $r7
	.loc	4 176 5 is_stmt 0               @ ../../../ThirdParty/mbedTLS/library/x509write_csr.c:176:5
	cmp	r0, #0
	bpl	.LBB8_11
	b	.LBB8_25
.Ltmp84:
.LBB8_11:
	@DEBUG_VALUE: mbedtls_x509write_csr_der:buf <- [DW_OP_plus_uconst 32] [$sp+0]
	@DEBUG_VALUE: mbedtls_x509write_csr_der:ret <- $r7
	@DEBUG_VALUE: mbedtls_x509write_csr_der:len <- $r5
	@DEBUG_VALUE: mbedtls_x509write_csr_der:c <- [DW_OP_plus_uconst 3192, DW_OP_deref] $sp
	@DEBUG_VALUE: mbedtls_x509write_csr_der:ctx <- [DW_OP_plus_uconst 44] [$sp+0]
	@DEBUG_VALUE: mbedtls_x509write_csr_der:size <- [DW_OP_plus_uconst 36] [$sp+0]
	@DEBUG_VALUE: mbedtls_x509write_csr_der:f_rng <- [DW_OP_plus_uconst 40] [$sp+0]
	@DEBUG_VALUE: mbedtls_x509write_csr_der:p_rng <- [DW_OP_plus_uconst 3224] [$sp+0]
	@DEBUG_VALUE: mbedtls_x509write_csr_der:pub_len <- 0
	@DEBUG_VALUE: mbedtls_x509write_csr_der:sig_and_oid_len <- 0
	@DEBUG_VALUE: mbedtls_x509write_csr_der:sig_oid_len <- 0
	@DEBUG_VALUE: mbedtls_x509write_csr_der:len <- undef
	@DEBUG_VALUE: mbedtls_x509write_csr_der:c <- [DW_OP_plus_uconst 3192, DW_OP_deref] $sp
	.loc	4 0 5                           @ ../../../ThirdParty/mbedTLS/library/x509write_csr.c:0:5
	ldr	r0, __arm_cp.8_5
	add	r0, sp
	add	r1, sp, #52
	movs	r2, #160
.Ltmp85:
	.loc	4 177 5 is_stmt 1               @ ../../../ThirdParty/mbedTLS/library/x509write_csr.c:177:5
	bl	mbedtls_asn1_write_tag
.Ltmp86:
	@DEBUG_VALUE: mbedtls_x509write_csr_der:ret <- $r0
	.loc	4 177 5 is_stmt 0               @ ../../../ThirdParty/mbedTLS/library/x509write_csr.c:177:5
	cmp	r0, #0
	bpl	.LBB8_12
	b	.LBB8_27
.Ltmp87:
.LBB8_12:
	@DEBUG_VALUE: mbedtls_x509write_csr_der:buf <- [DW_OP_plus_uconst 32] [$sp+0]
	@DEBUG_VALUE: mbedtls_x509write_csr_der:ret <- $r0
	@DEBUG_VALUE: mbedtls_x509write_csr_der:c <- [DW_OP_plus_uconst 3192, DW_OP_deref] $sp
	@DEBUG_VALUE: mbedtls_x509write_csr_der:ctx <- [DW_OP_plus_uconst 44] [$sp+0]
	@DEBUG_VALUE: mbedtls_x509write_csr_der:size <- [DW_OP_plus_uconst 36] [$sp+0]
	@DEBUG_VALUE: mbedtls_x509write_csr_der:f_rng <- [DW_OP_plus_uconst 40] [$sp+0]
	@DEBUG_VALUE: mbedtls_x509write_csr_der:p_rng <- [DW_OP_plus_uconst 3224] [$sp+0]
	@DEBUG_VALUE: mbedtls_x509write_csr_der:pub_len <- 0
	@DEBUG_VALUE: mbedtls_x509write_csr_der:sig_and_oid_len <- 0
	@DEBUG_VALUE: mbedtls_x509write_csr_der:sig_oid_len <- 0
	@DEBUG_VALUE: mbedtls_x509write_csr_der:len <- undef
	.loc	4 0 5                           @ ../../../ThirdParty/mbedTLS/library/x509write_csr.c:0:5
	str	r0, [sp, #28]                   @ 4-byte Spill
.Ltmp88:
	@DEBUG_VALUE: mbedtls_x509write_csr_der:ret <- [DW_OP_plus_uconst 28] [$sp+0]
	add	r1, sp, #52
.Ltmp89:
	.loc	4 180 5 is_stmt 1               @ ../../../ThirdParty/mbedTLS/library/x509write_csr.c:180:5
	ldr	r0, [r6, #4]
.Ltmp90:
	@DEBUG_VALUE: mbedtls_x509write_csr_der:c <- undef
	subs	r2, r0, r1
	ldr	r4, [sp, #44]                   @ 4-byte Reload
	ldr	r0, [r4]
	bl	mbedtls_pk_write_pubkey_der
.Ltmp91:
	@DEBUG_VALUE: mbedtls_x509write_csr_der:ret <- $r0
	.loc	4 180 5 is_stmt 0               @ ../../../ThirdParty/mbedTLS/library/x509write_csr.c:180:5
	cmp	r0, #0
	bpl	.LBB8_13
	b	.LBB8_28
.Ltmp92:
.LBB8_13:
	@DEBUG_VALUE: mbedtls_x509write_csr_der:buf <- [DW_OP_plus_uconst 32] [$sp+0]
	@DEBUG_VALUE: mbedtls_x509write_csr_der:ret <- $r0
	@DEBUG_VALUE: mbedtls_x509write_csr_der:ctx <- [DW_OP_plus_uconst 44] [$sp+0]
	@DEBUG_VALUE: mbedtls_x509write_csr_der:size <- [DW_OP_plus_uconst 36] [$sp+0]
	@DEBUG_VALUE: mbedtls_x509write_csr_der:f_rng <- [DW_OP_plus_uconst 40] [$sp+0]
	@DEBUG_VALUE: mbedtls_x509write_csr_der:p_rng <- [DW_OP_plus_uconst 3224] [$sp+0]
	@DEBUG_VALUE: mbedtls_x509write_csr_der:pub_len <- 0
	@DEBUG_VALUE: mbedtls_x509write_csr_der:sig_and_oid_len <- 0
	@DEBUG_VALUE: mbedtls_x509write_csr_der:sig_oid_len <- 0
	@DEBUG_VALUE: mbedtls_x509write_csr_der:len <- undef
	@DEBUG_VALUE: mbedtls_x509write_csr_der:pub_len <- $r0
	.loc	4 182 7 is_stmt 1               @ ../../../ThirdParty/mbedTLS/library/x509write_csr.c:182:7
	ldr	r1, [r6, #4]
.Ltmp93:
	@DEBUG_VALUE: mbedtls_x509write_csr_der:c <- $r1
	.loc	4 0 7 is_stmt 0                 @ ../../../ThirdParty/mbedTLS/library/x509write_csr.c:0:7
	str	r0, [sp, #24]                   @ 4-byte Spill
.Ltmp94:
	@DEBUG_VALUE: mbedtls_x509write_csr_der:pub_len <- [DW_OP_plus_uconst 24] [$sp+0]
	.loc	4 182 7                         @ ../../../ThirdParty/mbedTLS/library/x509write_csr.c:182:7
	subs	r0, r1, r0
.Ltmp95:
	@DEBUG_VALUE: mbedtls_x509write_csr_der:c <- $r0
	str	r0, [r6, #4]
	@DEBUG_VALUE: mbedtls_x509write_csr_der:len <- undef
.Ltmp96:
	.loc	4 188 5 is_stmt 1               @ ../../../ThirdParty/mbedTLS/library/x509write_csr.c:188:5
	ldr	r2, [r4, #4]
.Ltmp97:
	@DEBUG_VALUE: mbedtls_x509write_csr_der:c <- [DW_OP_plus_uconst 3192, DW_OP_deref] $sp
	.loc	4 0 5 is_stmt 0                 @ ../../../ThirdParty/mbedTLS/library/x509write_csr.c:0:5
	ldr	r0, __arm_cp.8_5
	add	r0, sp
	add	r1, sp, #52
	.loc	4 188 5                         @ ../../../ThirdParty/mbedTLS/library/x509write_csr.c:188:5
	bl	mbedtls_x509_write_names
	mov	r4, r0
.Ltmp98:
	@DEBUG_VALUE: mbedtls_x509write_csr_der:ret <- $r4
	.loc	4 188 5                         @ ../../../ThirdParty/mbedTLS/library/x509write_csr.c:188:5
	cmp	r0, #0
	bpl	.LBB8_14
	b	.LBB8_30
.Ltmp99:
.LBB8_14:
	@DEBUG_VALUE: mbedtls_x509write_csr_der:buf <- [DW_OP_plus_uconst 32] [$sp+0]
	@DEBUG_VALUE: mbedtls_x509write_csr_der:ret <- $r4
	@DEBUG_VALUE: mbedtls_x509write_csr_der:pub_len <- [DW_OP_plus_uconst 24] [$sp+0]
	@DEBUG_VALUE: mbedtls_x509write_csr_der:c <- [DW_OP_plus_uconst 3192, DW_OP_deref] $sp
	@DEBUG_VALUE: mbedtls_x509write_csr_der:ctx <- [DW_OP_plus_uconst 44] [$sp+0]
	@DEBUG_VALUE: mbedtls_x509write_csr_der:size <- [DW_OP_plus_uconst 36] [$sp+0]
	@DEBUG_VALUE: mbedtls_x509write_csr_der:f_rng <- [DW_OP_plus_uconst 40] [$sp+0]
	@DEBUG_VALUE: mbedtls_x509write_csr_der:p_rng <- [DW_OP_plus_uconst 3224] [$sp+0]
	@DEBUG_VALUE: mbedtls_x509write_csr_der:sig_and_oid_len <- 0
	@DEBUG_VALUE: mbedtls_x509write_csr_der:sig_oid_len <- 0
	@DEBUG_VALUE: mbedtls_x509write_csr_der:len <- undef
	@DEBUG_VALUE: mbedtls_x509write_csr_der:c <- [DW_OP_plus_uconst 3192, DW_OP_deref] $sp
	.loc	4 0 5                           @ ../../../ThirdParty/mbedTLS/library/x509write_csr.c:0:5
	ldr	r0, __arm_cp.8_5
	add	r0, sp
	add	r1, sp, #52
	movs	r2, #0
.Ltmp100:
	.loc	4 193 5 is_stmt 1               @ ../../../ThirdParty/mbedTLS/library/x509write_csr.c:193:5
	bl	mbedtls_asn1_write_int
.Ltmp101:
	@DEBUG_VALUE: mbedtls_x509write_csr_der:ret <- $r0
	.loc	4 193 5 is_stmt 0               @ ../../../ThirdParty/mbedTLS/library/x509write_csr.c:193:5
	cmp	r0, #0
	bpl	.LBB8_15
	b	.LBB8_32
.Ltmp102:
.LBB8_15:
	@DEBUG_VALUE: mbedtls_x509write_csr_der:buf <- [DW_OP_plus_uconst 32] [$sp+0]
	@DEBUG_VALUE: mbedtls_x509write_csr_der:ret <- $r0
	@DEBUG_VALUE: mbedtls_x509write_csr_der:pub_len <- [DW_OP_plus_uconst 24] [$sp+0]
	@DEBUG_VALUE: mbedtls_x509write_csr_der:c <- [DW_OP_plus_uconst 3192, DW_OP_deref] $sp
	@DEBUG_VALUE: mbedtls_x509write_csr_der:ctx <- [DW_OP_plus_uconst 44] [$sp+0]
	@DEBUG_VALUE: mbedtls_x509write_csr_der:size <- [DW_OP_plus_uconst 36] [$sp+0]
	@DEBUG_VALUE: mbedtls_x509write_csr_der:f_rng <- [DW_OP_plus_uconst 40] [$sp+0]
	@DEBUG_VALUE: mbedtls_x509write_csr_der:p_rng <- [DW_OP_plus_uconst 3224] [$sp+0]
	@DEBUG_VALUE: mbedtls_x509write_csr_der:sig_and_oid_len <- 0
	@DEBUG_VALUE: mbedtls_x509write_csr_der:sig_oid_len <- 0
	.loc	4 176 5 is_stmt 1               @ ../../../ThirdParty/mbedTLS/library/x509write_csr.c:176:5
	adds	r1, r7, r5
.Ltmp103:
	@DEBUG_VALUE: mbedtls_x509write_csr_der:len <- $r1
	.loc	4 177 5                         @ ../../../ThirdParty/mbedTLS/library/x509write_csr.c:177:5
	ldr	r2, [sp, #28]                   @ 4-byte Reload
	adds	r1, r1, r2
.Ltmp104:
	@DEBUG_VALUE: mbedtls_x509write_csr_der:len <- $r1
	.loc	4 183 9                         @ ../../../ThirdParty/mbedTLS/library/x509write_csr.c:183:9
	ldr	r2, [sp, #24]                   @ 4-byte Reload
	adds	r1, r1, r2
.Ltmp105:
	@DEBUG_VALUE: mbedtls_x509write_csr_der:len <- $r1
	.loc	4 188 5                         @ ../../../ThirdParty/mbedTLS/library/x509write_csr.c:188:5
	adds	r1, r1, r4
.Ltmp106:
	@DEBUG_VALUE: mbedtls_x509write_csr_der:len <- $r1
	.loc	4 193 5                         @ ../../../ThirdParty/mbedTLS/library/x509write_csr.c:193:5
	adds	r4, r1, r0
	@DEBUG_VALUE: mbedtls_x509write_csr_der:c <- [DW_OP_plus_uconst 3192, DW_OP_deref] $sp
.Ltmp107:
	@DEBUG_VALUE: mbedtls_x509write_csr_der:len <- $r4
	.loc	4 0 5 is_stmt 0                 @ ../../../ThirdParty/mbedTLS/library/x509write_csr.c:0:5
	ldr	r0, __arm_cp.8_5
.Ltmp108:
	add	r0, sp
	add	r1, sp, #52
.Ltmp109:
	.loc	4 195 5 is_stmt 1               @ ../../../ThirdParty/mbedTLS/library/x509write_csr.c:195:5
	mov	r2, r4
	bl	mbedtls_asn1_write_len
	mov	r7, r0
.Ltmp110:
	@DEBUG_VALUE: mbedtls_x509write_csr_der:ret <- $r7
	.loc	4 195 5 is_stmt 0               @ ../../../ThirdParty/mbedTLS/library/x509write_csr.c:195:5
	cmp	r0, #0
	bmi	.LBB8_25
.Ltmp111:
@ %bb.16:
	@DEBUG_VALUE: mbedtls_x509write_csr_der:buf <- [DW_OP_plus_uconst 32] [$sp+0]
	@DEBUG_VALUE: mbedtls_x509write_csr_der:ret <- $r7
	@DEBUG_VALUE: mbedtls_x509write_csr_der:len <- $r4
	@DEBUG_VALUE: mbedtls_x509write_csr_der:pub_len <- [DW_OP_plus_uconst 24] [$sp+0]
	@DEBUG_VALUE: mbedtls_x509write_csr_der:c <- [DW_OP_plus_uconst 3192, DW_OP_deref] $sp
	@DEBUG_VALUE: mbedtls_x509write_csr_der:ctx <- [DW_OP_plus_uconst 44] [$sp+0]
	@DEBUG_VALUE: mbedtls_x509write_csr_der:size <- [DW_OP_plus_uconst 36] [$sp+0]
	@DEBUG_VALUE: mbedtls_x509write_csr_der:f_rng <- [DW_OP_plus_uconst 40] [$sp+0]
	@DEBUG_VALUE: mbedtls_x509write_csr_der:p_rng <- [DW_OP_plus_uconst 3224] [$sp+0]
	@DEBUG_VALUE: mbedtls_x509write_csr_der:sig_and_oid_len <- 0
	@DEBUG_VALUE: mbedtls_x509write_csr_der:sig_oid_len <- 0
	@DEBUG_VALUE: mbedtls_x509write_csr_der:len <- undef
	@DEBUG_VALUE: mbedtls_x509write_csr_der:c <- [DW_OP_plus_uconst 3192, DW_OP_deref] $sp
	.loc	4 0 5                           @ ../../../ThirdParty/mbedTLS/library/x509write_csr.c:0:5
	ldr	r0, __arm_cp.8_5
	add	r0, sp
	add	r1, sp, #52
	movs	r2, #48
.Ltmp112:
	.loc	4 196 5 is_stmt 1               @ ../../../ThirdParty/mbedTLS/library/x509write_csr.c:196:5
	bl	mbedtls_asn1_write_tag
.Ltmp113:
	@DEBUG_VALUE: mbedtls_x509write_csr_der:ret <- $r0
	.loc	4 196 5 is_stmt 0               @ ../../../ThirdParty/mbedTLS/library/x509write_csr.c:196:5
	cmp	r0, #0
	bmi	.LBB8_34
.Ltmp114:
@ %bb.17:
	@DEBUG_VALUE: mbedtls_x509write_csr_der:buf <- [DW_OP_plus_uconst 32] [$sp+0]
	@DEBUG_VALUE: mbedtls_x509write_csr_der:ret <- $r0
	@DEBUG_VALUE: mbedtls_x509write_csr_der:pub_len <- [DW_OP_plus_uconst 24] [$sp+0]
	@DEBUG_VALUE: mbedtls_x509write_csr_der:c <- [DW_OP_plus_uconst 3192, DW_OP_deref] $sp
	@DEBUG_VALUE: mbedtls_x509write_csr_der:ctx <- [DW_OP_plus_uconst 44] [$sp+0]
	@DEBUG_VALUE: mbedtls_x509write_csr_der:size <- [DW_OP_plus_uconst 36] [$sp+0]
	@DEBUG_VALUE: mbedtls_x509write_csr_der:f_rng <- [DW_OP_plus_uconst 40] [$sp+0]
	@DEBUG_VALUE: mbedtls_x509write_csr_der:p_rng <- [DW_OP_plus_uconst 3224] [$sp+0]
	@DEBUG_VALUE: mbedtls_x509write_csr_der:sig_and_oid_len <- 0
	@DEBUG_VALUE: mbedtls_x509write_csr_der:sig_oid_len <- 0
	.loc	4 0 5                           @ ../../../ThirdParty/mbedTLS/library/x509write_csr.c:0:5
	ldr	r1, __arm_cp.8_6
	add	r1, sp
	ldr	r1, [r1]
.Ltmp115:
	.loc	4 195 5 is_stmt 1               @ ../../../ThirdParty/mbedTLS/library/x509write_csr.c:195:5
	str	r1, [sp, #28]                   @ 4-byte Spill
	adds	r1, r7, r4
.Ltmp116:
	@DEBUG_VALUE: mbedtls_x509write_csr_der:len <- $r1
	.loc	4 196 5                         @ ../../../ThirdParty/mbedTLS/library/x509write_csr.c:196:5
	adds	r7, r1, r0
.Ltmp117:
	@DEBUG_VALUE: mbedtls_x509write_csr_der:len <- $r7
	.loc	4 0 5 is_stmt 0                 @ ../../../ThirdParty/mbedTLS/library/x509write_csr.c:0:5
	ldr	r5, [sp, #44]                   @ 4-byte Reload
.Ltmp118:
	.loc	4 216 49 is_stmt 1              @ ../../../ThirdParty/mbedTLS/library/x509write_csr.c:216:49
	ldrb	r0, [r5, #8]
.Ltmp119:
	.loc	4 216 17 is_stmt 0              @ ../../../ThirdParty/mbedTLS/library/x509write_csr.c:216:17
	bl	mbedtls_md_info_from_type
	.loc	4 216 59                        @ ../../../ThirdParty/mbedTLS/library/x509write_csr.c:216:59
	ldr	r1, [r6, #4]
.Ltmp120:
	@DEBUG_VALUE: mbedtls_x509write_csr_der:c <- $r1
	.loc	4 0 59                          @ ../../../ThirdParty/mbedTLS/library/x509write_csr.c:0:59
	ldr	r4, __arm_cp.8_7
	add	r4, sp
	str	r7, [sp, #24]                   @ 4-byte Spill
.Ltmp121:
	@DEBUG_VALUE: mbedtls_x509write_csr_der:len <- [DW_OP_plus_uconst 24] [$sp+0]
	.loc	4 216 5                         @ ../../../ThirdParty/mbedTLS/library/x509write_csr.c:216:5
	mov	r2, r7
	mov	r3, r4
	bl	mbedtls_md
.Ltmp122:
	.loc	4 218 39 is_stmt 1              @ ../../../ThirdParty/mbedTLS/library/x509write_csr.c:218:39
	ldr	r0, [r5]
	.loc	4 218 49 is_stmt 0              @ ../../../ThirdParty/mbedTLS/library/x509write_csr.c:218:49
	ldrb	r1, [r5, #8]
.Ltmp123:
	@DEBUG_VALUE: mbedtls_x509write_csr_der:sig_len <- [DW_OP_plus_uconst 48, DW_OP_deref] $sp
	.loc	4 218 17                        @ ../../../ThirdParty/mbedTLS/library/x509write_csr.c:218:17
	ldr	r2, [sp, #28]                   @ 4-byte Reload
	str	r2, [sp, #12]
	ldr	r2, [sp, #40]                   @ 4-byte Reload
	str	r2, [sp, #8]
	add	r2, sp, #48
	str	r2, [sp, #4]
	ldr	r2, __arm_cp.8_8
	add	r2, sp
	str	r2, [sp]
	movs	r3, #0
	mov	r2, r4
	bl	mbedtls_pk_sign
	mov	r7, r0
.Ltmp124:
	@DEBUG_VALUE: mbedtls_x509write_csr_der:ret <- $r7
	.loc	4 218 9                         @ ../../../ThirdParty/mbedTLS/library/x509write_csr.c:218:9
	cbnz	r0, .LBB8_25
.Ltmp125:
@ %bb.18:
	@DEBUG_VALUE: mbedtls_x509write_csr_der:buf <- [DW_OP_plus_uconst 32] [$sp+0]
	@DEBUG_VALUE: mbedtls_x509write_csr_der:ret <- $r7
	@DEBUG_VALUE: mbedtls_x509write_csr_der:sig_len <- [DW_OP_plus_uconst 48, DW_OP_deref] $sp
	@DEBUG_VALUE: mbedtls_x509write_csr_der:len <- [DW_OP_plus_uconst 24] [$sp+0]
	@DEBUG_VALUE: mbedtls_x509write_csr_der:pub_len <- [DW_OP_plus_uconst 24] [$sp+0]
	@DEBUG_VALUE: mbedtls_x509write_csr_der:ctx <- [DW_OP_plus_uconst 44] [$sp+0]
	@DEBUG_VALUE: mbedtls_x509write_csr_der:size <- [DW_OP_plus_uconst 36] [$sp+0]
	@DEBUG_VALUE: mbedtls_x509write_csr_der:f_rng <- [DW_OP_plus_uconst 40] [$sp+0]
	@DEBUG_VALUE: mbedtls_x509write_csr_der:p_rng <- [DW_OP_plus_uconst 3224] [$sp+0]
	@DEBUG_VALUE: mbedtls_x509write_csr_der:sig_and_oid_len <- 0
	@DEBUG_VALUE: mbedtls_x509write_csr_der:sig_oid_len <- 0
	.loc	4 224 33 is_stmt 1              @ ../../../ThirdParty/mbedTLS/library/x509write_csr.c:224:33
	ldr	r0, [r5]
	movs	r4, #1
	.loc	4 224 9 is_stmt 0               @ ../../../ThirdParty/mbedTLS/library/x509write_csr.c:224:9
	mov	r1, r4
	bl	mbedtls_pk_can_do
.Ltmp126:
	.loc	4 224 9                         @ ../../../ThirdParty/mbedTLS/library/x509write_csr.c:224:9
	cbnz	r0, .LBB8_20
.Ltmp127:
@ %bb.19:
	@DEBUG_VALUE: mbedtls_x509write_csr_der:buf <- [DW_OP_plus_uconst 32] [$sp+0]
	@DEBUG_VALUE: mbedtls_x509write_csr_der:ret <- $r7
	@DEBUG_VALUE: mbedtls_x509write_csr_der:sig_len <- [DW_OP_plus_uconst 48, DW_OP_deref] $sp
	@DEBUG_VALUE: mbedtls_x509write_csr_der:len <- [DW_OP_plus_uconst 24] [$sp+0]
	@DEBUG_VALUE: mbedtls_x509write_csr_der:pub_len <- [DW_OP_plus_uconst 24] [$sp+0]
	@DEBUG_VALUE: mbedtls_x509write_csr_der:ctx <- [DW_OP_plus_uconst 44] [$sp+0]
	@DEBUG_VALUE: mbedtls_x509write_csr_der:size <- [DW_OP_plus_uconst 36] [$sp+0]
	@DEBUG_VALUE: mbedtls_x509write_csr_der:f_rng <- [DW_OP_plus_uconst 40] [$sp+0]
	@DEBUG_VALUE: mbedtls_x509write_csr_der:p_rng <- [DW_OP_plus_uconst 3224] [$sp+0]
	@DEBUG_VALUE: mbedtls_x509write_csr_der:sig_and_oid_len <- 0
	@DEBUG_VALUE: mbedtls_x509write_csr_der:sig_oid_len <- 0
	.loc	4 226 38 is_stmt 1              @ ../../../ThirdParty/mbedTLS/library/x509write_csr.c:226:38
	ldr	r0, [r5]
	movs	r4, #4
	.loc	4 226 14 is_stmt 0              @ ../../../ThirdParty/mbedTLS/library/x509write_csr.c:226:14
	mov	r1, r4
	bl	mbedtls_pk_can_do
.Ltmp128:
	.loc	4 226 14                        @ ../../../ThirdParty/mbedTLS/library/x509write_csr.c:226:14
	cbz	r0, .LBB8_35
.Ltmp129:
.LBB8_20:
	@DEBUG_VALUE: mbedtls_x509write_csr_der:buf <- [DW_OP_plus_uconst 32] [$sp+0]
	@DEBUG_VALUE: mbedtls_x509write_csr_der:ret <- $r7
	@DEBUG_VALUE: mbedtls_x509write_csr_der:sig_len <- [DW_OP_plus_uconst 48, DW_OP_deref] $sp
	@DEBUG_VALUE: mbedtls_x509write_csr_der:len <- [DW_OP_plus_uconst 24] [$sp+0]
	@DEBUG_VALUE: mbedtls_x509write_csr_der:pub_len <- [DW_OP_plus_uconst 24] [$sp+0]
	@DEBUG_VALUE: mbedtls_x509write_csr_der:ctx <- [DW_OP_plus_uconst 44] [$sp+0]
	@DEBUG_VALUE: mbedtls_x509write_csr_der:size <- [DW_OP_plus_uconst 36] [$sp+0]
	@DEBUG_VALUE: mbedtls_x509write_csr_der:f_rng <- [DW_OP_plus_uconst 40] [$sp+0]
	@DEBUG_VALUE: mbedtls_x509write_csr_der:p_rng <- [DW_OP_plus_uconst 3224] [$sp+0]
	@DEBUG_VALUE: mbedtls_x509write_csr_der:sig_and_oid_len <- 0
	@DEBUG_VALUE: mbedtls_x509write_csr_der:sig_oid_len <- 0
	@DEBUG_VALUE: mbedtls_x509write_csr_der:pk_alg <- $r4
	.loc	4 231 62 is_stmt 1              @ ../../../ThirdParty/mbedTLS/library/x509write_csr.c:231:62
	ldrb	r1, [r5, #8]
.Ltmp130:
	@DEBUG_VALUE: mbedtls_x509write_csr_der:sig_oid <- [DW_OP_plus_uconst 3200, DW_OP_deref] $sp
	@DEBUG_VALUE: mbedtls_x509write_csr_der:sig_oid_len <- [DW_OP_plus_uconst 3196, DW_OP_deref] $sp
	.loc	4 0 62 is_stmt 0                @ ../../../ThirdParty/mbedTLS/library/x509write_csr.c:0:62
	ldr	r2, __arm_cp.8_9
	add	r2, sp
	ldr	r3, __arm_cp.8_10
	add	r3, sp
	.loc	4 231 17                        @ ../../../ThirdParty/mbedTLS/library/x509write_csr.c:231:17
	mov	r0, r4
	bl	mbedtls_oid_get_oid_by_sig_alg
	mov	r7, r0
.Ltmp131:
	@DEBUG_VALUE: mbedtls_x509write_csr_der:ret <- $r7
	.loc	4 231 9                         @ ../../../ThirdParty/mbedTLS/library/x509write_csr.c:231:9
	cbnz	r0, .LBB8_25
.Ltmp132:
@ %bb.21:
	@DEBUG_VALUE: mbedtls_x509write_csr_der:buf <- [DW_OP_plus_uconst 32] [$sp+0]
	@DEBUG_VALUE: mbedtls_x509write_csr_der:ret <- $r7
	@DEBUG_VALUE: mbedtls_x509write_csr_der:pk_alg <- $r4
	@DEBUG_VALUE: mbedtls_x509write_csr_der:sig_oid_len <- [DW_OP_plus_uconst 3196, DW_OP_deref] $sp
	@DEBUG_VALUE: mbedtls_x509write_csr_der:sig_oid <- [DW_OP_plus_uconst 3200, DW_OP_deref] $sp
	@DEBUG_VALUE: mbedtls_x509write_csr_der:sig_len <- [DW_OP_plus_uconst 48, DW_OP_deref] $sp
	@DEBUG_VALUE: mbedtls_x509write_csr_der:len <- [DW_OP_plus_uconst 24] [$sp+0]
	@DEBUG_VALUE: mbedtls_x509write_csr_der:pub_len <- [DW_OP_plus_uconst 24] [$sp+0]
	@DEBUG_VALUE: mbedtls_x509write_csr_der:ctx <- [DW_OP_plus_uconst 44] [$sp+0]
	@DEBUG_VALUE: mbedtls_x509write_csr_der:size <- [DW_OP_plus_uconst 36] [$sp+0]
	@DEBUG_VALUE: mbedtls_x509write_csr_der:f_rng <- [DW_OP_plus_uconst 40] [$sp+0]
	@DEBUG_VALUE: mbedtls_x509write_csr_der:p_rng <- [DW_OP_plus_uconst 3224] [$sp+0]
	@DEBUG_VALUE: mbedtls_x509write_csr_der:sig_and_oid_len <- 0
	.loc	4 0 9                           @ ../../../ThirdParty/mbedTLS/library/x509write_csr.c:0:9
	ldr	r5, [sp, #32]                   @ 4-byte Reload
.Ltmp133:
	@DEBUG_VALUE: mbedtls_x509write_csr_der:buf <- $r5
	.loc	4 240 14 is_stmt 1              @ ../../../ThirdParty/mbedTLS/library/x509write_csr.c:240:14
	ldr	r0, [sp, #36]                   @ 4-byte Reload
	adds	r0, r5, r0
.Ltmp134:
	@DEBUG_VALUE: mbedtls_x509write_csr_der:c2 <- $r0
	.loc	4 240 8 is_stmt 0               @ ../../../ThirdParty/mbedTLS/library/x509write_csr.c:240:8
	str	r0, [r6]
.Ltmp135:
	@DEBUG_VALUE: mbedtls_x509write_csr_der:sig_oid <- undef
	@DEBUG_VALUE: mbedtls_x509write_csr_der:sig_oid_len <- undef
	.loc	4 241 5 is_stmt 1               @ ../../../ThirdParty/mbedTLS/library/x509write_csr.c:241:5
	ldr	r3, [r6, #8]
	ldr	r2, [r6, #12]
	ldr	r0, [sp, #48]
.Ltmp136:
	@DEBUG_VALUE: mbedtls_x509write_csr_der:c2 <- [DW_OP_plus_uconst 3188, DW_OP_deref] $sp
	@DEBUG_VALUE: mbedtls_x509write_csr_der:sig_len <- $r0
	str	r0, [sp, #4]
	ldr	r0, __arm_cp.8_8
.Ltmp137:
	.loc	4 0 5 is_stmt 0                 @ ../../../ThirdParty/mbedTLS/library/x509write_csr.c:0:5
	add	r0, sp
	.loc	4 241 5                         @ ../../../ThirdParty/mbedTLS/library/x509write_csr.c:241:5
	str	r0, [sp]
	ldr	r0, __arm_cp.8_4
	add	r0, sp
	mov	r1, r5
	bl	mbedtls_x509_write_sig
	mov	r7, r0
.Ltmp138:
	@DEBUG_VALUE: mbedtls_x509write_csr_der:ret <- $r7
	.loc	4 241 5                         @ ../../../ThirdParty/mbedTLS/library/x509write_csr.c:241:5
	cmp	r0, #0
	bmi	.LBB8_25
.Ltmp139:
@ %bb.22:
	@DEBUG_VALUE: mbedtls_x509write_csr_der:ret <- $r7
	@DEBUG_VALUE: mbedtls_x509write_csr_der:buf <- $r5
	@DEBUG_VALUE: mbedtls_x509write_csr_der:pk_alg <- $r4
	@DEBUG_VALUE: mbedtls_x509write_csr_der:c2 <- [DW_OP_plus_uconst 3188, DW_OP_deref] $sp
	@DEBUG_VALUE: mbedtls_x509write_csr_der:len <- [DW_OP_plus_uconst 24] [$sp+0]
	@DEBUG_VALUE: mbedtls_x509write_csr_der:pub_len <- [DW_OP_plus_uconst 24] [$sp+0]
	@DEBUG_VALUE: mbedtls_x509write_csr_der:ctx <- [DW_OP_plus_uconst 44] [$sp+0]
	@DEBUG_VALUE: mbedtls_x509write_csr_der:size <- [DW_OP_plus_uconst 36] [$sp+0]
	@DEBUG_VALUE: mbedtls_x509write_csr_der:f_rng <- [DW_OP_plus_uconst 40] [$sp+0]
	@DEBUG_VALUE: mbedtls_x509write_csr_der:p_rng <- [DW_OP_plus_uconst 3224] [$sp+0]
	@DEBUG_VALUE: mbedtls_x509write_csr_der:sig_and_oid_len <- 0
	@DEBUG_VALUE: mbedtls_x509write_csr_der:sig_and_oid_len <- $r7
	.loc	4 244 25 is_stmt 1              @ ../../../ThirdParty/mbedTLS/library/x509write_csr.c:244:25
	ldr	r0, [r6]
.Ltmp140:
	@DEBUG_VALUE: mbedtls_x509write_csr_der:c2 <- $r0
	.loc	4 244 28 is_stmt 0              @ ../../../ThirdParty/mbedTLS/library/x509write_csr.c:244:28
	subs	r1, r0, r5
	ldr	r4, [sp, #24]                   @ 4-byte Reload
.Ltmp141:
	.loc	4 244 9                         @ ../../../ThirdParty/mbedTLS/library/x509write_csr.c:244:9
	cmp	r4, r1
	bls	.LBB8_36
.Ltmp142:
@ %bb.23:
	@DEBUG_VALUE: mbedtls_x509write_csr_der:sig_and_oid_len <- $r7
	@DEBUG_VALUE: mbedtls_x509write_csr_der:ret <- $r7
	@DEBUG_VALUE: mbedtls_x509write_csr_der:buf <- $r5
	@DEBUG_VALUE: mbedtls_x509write_csr_der:c2 <- $r0
	@DEBUG_VALUE: mbedtls_x509write_csr_der:len <- [DW_OP_plus_uconst 24] [$sp+0]
	@DEBUG_VALUE: mbedtls_x509write_csr_der:pub_len <- [DW_OP_plus_uconst 24] [$sp+0]
	@DEBUG_VALUE: mbedtls_x509write_csr_der:ctx <- [DW_OP_plus_uconst 44] [$sp+0]
	@DEBUG_VALUE: mbedtls_x509write_csr_der:size <- [DW_OP_plus_uconst 36] [$sp+0]
	@DEBUG_VALUE: mbedtls_x509write_csr_der:f_rng <- [DW_OP_plus_uconst 40] [$sp+0]
	@DEBUG_VALUE: mbedtls_x509write_csr_der:p_rng <- [DW_OP_plus_uconst 3224] [$sp+0]
	.loc	4 0 9                           @ ../../../ThirdParty/mbedTLS/library/x509write_csr.c:0:9
	movs	r0, #107
.Ltmp143:
	mvns	r7, r0
.Ltmp144:
	b	.LBB8_25
.Ltmp145:
.LBB8_24:
	@DEBUG_VALUE: mbedtls_x509write_csr_der:buf <- $r7
	@DEBUG_VALUE: mbedtls_x509write_csr_der:ret <- $r4
	@DEBUG_VALUE: mbedtls_x509write_csr_der:c <- [DW_OP_plus_uconst 3192, DW_OP_deref] $sp
	@DEBUG_VALUE: mbedtls_x509write_csr_der:ctx <- [DW_OP_plus_uconst 44] [$sp+0]
	@DEBUG_VALUE: mbedtls_x509write_csr_der:size <- [DW_OP_plus_uconst 36] [$sp+0]
	@DEBUG_VALUE: mbedtls_x509write_csr_der:f_rng <- [DW_OP_plus_uconst 40] [$sp+0]
	@DEBUG_VALUE: mbedtls_x509write_csr_der:p_rng <- [DW_OP_plus_uconst 3224] [$sp+0]
	@DEBUG_VALUE: mbedtls_x509write_csr_der:pub_len <- 0
	@DEBUG_VALUE: mbedtls_x509write_csr_der:sig_and_oid_len <- 0
	@DEBUG_VALUE: mbedtls_x509write_csr_der:len <- 0
	@DEBUG_VALUE: mbedtls_x509write_csr_der:sig_oid_len <- 0
	mov	r7, r4
.Ltmp146:
	@DEBUG_VALUE: mbedtls_x509write_csr_der:ret <- $r7
	@DEBUG_VALUE: mbedtls_x509write_csr_der:buf <- [DW_OP_LLVM_entry_value 1] $r1
.LBB8_25:
	@DEBUG_VALUE: mbedtls_x509write_csr_der:ctx <- [DW_OP_plus_uconst 44] [$sp+0]
	@DEBUG_VALUE: mbedtls_x509write_csr_der:size <- [DW_OP_plus_uconst 36] [$sp+0]
	@DEBUG_VALUE: mbedtls_x509write_csr_der:f_rng <- [DW_OP_plus_uconst 40] [$sp+0]
	@DEBUG_VALUE: mbedtls_x509write_csr_der:p_rng <- [DW_OP_plus_uconst 3224] [$sp+0]
	.loc	4 256 1 is_stmt 1               @ ../../../ThirdParty/mbedTLS/library/x509write_csr.c:256:1
	mov	r0, r7
	ldr	r7, __arm_cp.8_3
	add	sp, r7
.Ltmp147:
	pop	{r4, r5, r6, r7, pc}
.LBB8_26:
.Ltmp148:
	@DEBUG_VALUE: mbedtls_x509write_csr_der:buf <- [DW_OP_plus_uconst 32] [$sp+0]
	@DEBUG_VALUE: mbedtls_x509write_csr_der:ret <- $r0
	@DEBUG_VALUE: mbedtls_x509write_csr_der:c <- [DW_OP_plus_uconst 3192, DW_OP_deref] $sp
	@DEBUG_VALUE: mbedtls_x509write_csr_der:ctx <- [DW_OP_plus_uconst 44] [$sp+0]
	@DEBUG_VALUE: mbedtls_x509write_csr_der:size <- [DW_OP_plus_uconst 36] [$sp+0]
	@DEBUG_VALUE: mbedtls_x509write_csr_der:f_rng <- [DW_OP_plus_uconst 40] [$sp+0]
	@DEBUG_VALUE: mbedtls_x509write_csr_der:p_rng <- [DW_OP_plus_uconst 3224] [$sp+0]
	@DEBUG_VALUE: mbedtls_x509write_csr_der:pub_len <- 0
	@DEBUG_VALUE: mbedtls_x509write_csr_der:sig_and_oid_len <- 0
	@DEBUG_VALUE: mbedtls_x509write_csr_der:sig_oid_len <- 0
	.loc	4 0 0 is_stmt 0                 @ ../../../ThirdParty/mbedTLS/library/x509write_csr.c:0:0
	mov	r7, r0
.Ltmp149:
	@DEBUG_VALUE: mbedtls_x509write_csr_der:ret <- $r7
	b	.LBB8_25
.Ltmp150:
.LBB8_27:
	@DEBUG_VALUE: mbedtls_x509write_csr_der:buf <- [DW_OP_plus_uconst 32] [$sp+0]
	@DEBUG_VALUE: mbedtls_x509write_csr_der:ret <- $r0
	@DEBUG_VALUE: mbedtls_x509write_csr_der:c <- [DW_OP_plus_uconst 3192, DW_OP_deref] $sp
	@DEBUG_VALUE: mbedtls_x509write_csr_der:ctx <- [DW_OP_plus_uconst 44] [$sp+0]
	@DEBUG_VALUE: mbedtls_x509write_csr_der:size <- [DW_OP_plus_uconst 36] [$sp+0]
	@DEBUG_VALUE: mbedtls_x509write_csr_der:f_rng <- [DW_OP_plus_uconst 40] [$sp+0]
	@DEBUG_VALUE: mbedtls_x509write_csr_der:p_rng <- [DW_OP_plus_uconst 3224] [$sp+0]
	@DEBUG_VALUE: mbedtls_x509write_csr_der:pub_len <- 0
	@DEBUG_VALUE: mbedtls_x509write_csr_der:sig_and_oid_len <- 0
	@DEBUG_VALUE: mbedtls_x509write_csr_der:sig_oid_len <- 0
	mov	r7, r0
.Ltmp151:
	@DEBUG_VALUE: mbedtls_x509write_csr_der:ret <- $r7
	b	.LBB8_25
.Ltmp152:
.LBB8_28:
	@DEBUG_VALUE: mbedtls_x509write_csr_der:buf <- [DW_OP_plus_uconst 32] [$sp+0]
	@DEBUG_VALUE: mbedtls_x509write_csr_der:ret <- $r0
	@DEBUG_VALUE: mbedtls_x509write_csr_der:ctx <- [DW_OP_plus_uconst 44] [$sp+0]
	@DEBUG_VALUE: mbedtls_x509write_csr_der:size <- [DW_OP_plus_uconst 36] [$sp+0]
	@DEBUG_VALUE: mbedtls_x509write_csr_der:f_rng <- [DW_OP_plus_uconst 40] [$sp+0]
	@DEBUG_VALUE: mbedtls_x509write_csr_der:p_rng <- [DW_OP_plus_uconst 3224] [$sp+0]
	@DEBUG_VALUE: mbedtls_x509write_csr_der:pub_len <- 0
	@DEBUG_VALUE: mbedtls_x509write_csr_der:sig_and_oid_len <- 0
	@DEBUG_VALUE: mbedtls_x509write_csr_der:sig_oid_len <- 0
	mov	r7, r0
.Ltmp153:
	@DEBUG_VALUE: mbedtls_x509write_csr_der:ret <- $r7
	b	.LBB8_25
.Ltmp154:
.LBB8_29:
	@DEBUG_VALUE: mbedtls_x509write_csr_der:buf <- [DW_OP_plus_uconst 32] [$sp+0]
	@DEBUG_VALUE: mbedtls_x509write_csr_der:ret <- $r5
	@DEBUG_VALUE: mbedtls_x509write_csr_der:c <- [DW_OP_plus_uconst 3192, DW_OP_deref] $sp
	@DEBUG_VALUE: mbedtls_x509write_csr_der:ctx <- [DW_OP_plus_uconst 44] [$sp+0]
	@DEBUG_VALUE: mbedtls_x509write_csr_der:size <- [DW_OP_plus_uconst 36] [$sp+0]
	@DEBUG_VALUE: mbedtls_x509write_csr_der:f_rng <- [DW_OP_plus_uconst 40] [$sp+0]
	@DEBUG_VALUE: mbedtls_x509write_csr_der:p_rng <- [DW_OP_plus_uconst 3224] [$sp+0]
	@DEBUG_VALUE: mbedtls_x509write_csr_der:pub_len <- 0
	@DEBUG_VALUE: mbedtls_x509write_csr_der:sig_and_oid_len <- 0
	@DEBUG_VALUE: mbedtls_x509write_csr_der:sig_oid_len <- 0
	mov	r7, r5
.Ltmp155:
	@DEBUG_VALUE: mbedtls_x509write_csr_der:ret <- $r7
	b	.LBB8_25
.Ltmp156:
.LBB8_30:
	@DEBUG_VALUE: mbedtls_x509write_csr_der:buf <- [DW_OP_plus_uconst 32] [$sp+0]
	@DEBUG_VALUE: mbedtls_x509write_csr_der:ret <- $r4
	@DEBUG_VALUE: mbedtls_x509write_csr_der:pub_len <- [DW_OP_plus_uconst 24] [$sp+0]
	@DEBUG_VALUE: mbedtls_x509write_csr_der:c <- [DW_OP_plus_uconst 3192, DW_OP_deref] $sp
	@DEBUG_VALUE: mbedtls_x509write_csr_der:ctx <- [DW_OP_plus_uconst 44] [$sp+0]
	@DEBUG_VALUE: mbedtls_x509write_csr_der:size <- [DW_OP_plus_uconst 36] [$sp+0]
	@DEBUG_VALUE: mbedtls_x509write_csr_der:f_rng <- [DW_OP_plus_uconst 40] [$sp+0]
	@DEBUG_VALUE: mbedtls_x509write_csr_der:p_rng <- [DW_OP_plus_uconst 3224] [$sp+0]
	@DEBUG_VALUE: mbedtls_x509write_csr_der:sig_and_oid_len <- 0
	@DEBUG_VALUE: mbedtls_x509write_csr_der:sig_oid_len <- 0
	mov	r7, r4
.Ltmp157:
	@DEBUG_VALUE: mbedtls_x509write_csr_der:ret <- $r7
	b	.LBB8_25
.Ltmp158:
.LBB8_31:
	@DEBUG_VALUE: mbedtls_x509write_csr_der:buf <- [DW_OP_plus_uconst 32] [$sp+0]
	@DEBUG_VALUE: mbedtls_x509write_csr_der:ret <- $r0
	@DEBUG_VALUE: mbedtls_x509write_csr_der:c <- [DW_OP_plus_uconst 3192, DW_OP_deref] $sp
	@DEBUG_VALUE: mbedtls_x509write_csr_der:ctx <- [DW_OP_plus_uconst 44] [$sp+0]
	@DEBUG_VALUE: mbedtls_x509write_csr_der:size <- [DW_OP_plus_uconst 36] [$sp+0]
	@DEBUG_VALUE: mbedtls_x509write_csr_der:f_rng <- [DW_OP_plus_uconst 40] [$sp+0]
	@DEBUG_VALUE: mbedtls_x509write_csr_der:p_rng <- [DW_OP_plus_uconst 3224] [$sp+0]
	@DEBUG_VALUE: mbedtls_x509write_csr_der:pub_len <- 0
	@DEBUG_VALUE: mbedtls_x509write_csr_der:sig_and_oid_len <- 0
	@DEBUG_VALUE: mbedtls_x509write_csr_der:sig_oid_len <- 0
	mov	r7, r0
.Ltmp159:
	@DEBUG_VALUE: mbedtls_x509write_csr_der:ret <- $r7
	b	.LBB8_25
.Ltmp160:
.LBB8_32:
	@DEBUG_VALUE: mbedtls_x509write_csr_der:buf <- [DW_OP_plus_uconst 32] [$sp+0]
	@DEBUG_VALUE: mbedtls_x509write_csr_der:ret <- $r0
	@DEBUG_VALUE: mbedtls_x509write_csr_der:pub_len <- [DW_OP_plus_uconst 24] [$sp+0]
	@DEBUG_VALUE: mbedtls_x509write_csr_der:c <- [DW_OP_plus_uconst 3192, DW_OP_deref] $sp
	@DEBUG_VALUE: mbedtls_x509write_csr_der:ctx <- [DW_OP_plus_uconst 44] [$sp+0]
	@DEBUG_VALUE: mbedtls_x509write_csr_der:size <- [DW_OP_plus_uconst 36] [$sp+0]
	@DEBUG_VALUE: mbedtls_x509write_csr_der:f_rng <- [DW_OP_plus_uconst 40] [$sp+0]
	@DEBUG_VALUE: mbedtls_x509write_csr_der:p_rng <- [DW_OP_plus_uconst 3224] [$sp+0]
	@DEBUG_VALUE: mbedtls_x509write_csr_der:sig_and_oid_len <- 0
	@DEBUG_VALUE: mbedtls_x509write_csr_der:sig_oid_len <- 0
	mov	r7, r0
.Ltmp161:
	@DEBUG_VALUE: mbedtls_x509write_csr_der:ret <- $r7
	b	.LBB8_25
.Ltmp162:
.LBB8_33:
	@DEBUG_VALUE: mbedtls_x509write_csr_der:buf <- [DW_OP_plus_uconst 32] [$sp+0]
	@DEBUG_VALUE: mbedtls_x509write_csr_der:ret <- $r0
	@DEBUG_VALUE: mbedtls_x509write_csr_der:c <- [DW_OP_plus_uconst 3192, DW_OP_deref] $sp
	@DEBUG_VALUE: mbedtls_x509write_csr_der:ctx <- [DW_OP_plus_uconst 44] [$sp+0]
	@DEBUG_VALUE: mbedtls_x509write_csr_der:size <- [DW_OP_plus_uconst 36] [$sp+0]
	@DEBUG_VALUE: mbedtls_x509write_csr_der:f_rng <- [DW_OP_plus_uconst 40] [$sp+0]
	@DEBUG_VALUE: mbedtls_x509write_csr_der:p_rng <- [DW_OP_plus_uconst 3224] [$sp+0]
	@DEBUG_VALUE: mbedtls_x509write_csr_der:pub_len <- 0
	@DEBUG_VALUE: mbedtls_x509write_csr_der:sig_and_oid_len <- 0
	@DEBUG_VALUE: mbedtls_x509write_csr_der:sig_oid_len <- 0
	mov	r7, r0
.Ltmp163:
	@DEBUG_VALUE: mbedtls_x509write_csr_der:ret <- $r7
	b	.LBB8_25
.Ltmp164:
.LBB8_34:
	@DEBUG_VALUE: mbedtls_x509write_csr_der:buf <- [DW_OP_plus_uconst 32] [$sp+0]
	@DEBUG_VALUE: mbedtls_x509write_csr_der:ret <- $r0
	@DEBUG_VALUE: mbedtls_x509write_csr_der:pub_len <- [DW_OP_plus_uconst 24] [$sp+0]
	@DEBUG_VALUE: mbedtls_x509write_csr_der:c <- [DW_OP_plus_uconst 3192, DW_OP_deref] $sp
	@DEBUG_VALUE: mbedtls_x509write_csr_der:ctx <- [DW_OP_plus_uconst 44] [$sp+0]
	@DEBUG_VALUE: mbedtls_x509write_csr_der:size <- [DW_OP_plus_uconst 36] [$sp+0]
	@DEBUG_VALUE: mbedtls_x509write_csr_der:f_rng <- [DW_OP_plus_uconst 40] [$sp+0]
	@DEBUG_VALUE: mbedtls_x509write_csr_der:p_rng <- [DW_OP_plus_uconst 3224] [$sp+0]
	@DEBUG_VALUE: mbedtls_x509write_csr_der:sig_and_oid_len <- 0
	@DEBUG_VALUE: mbedtls_x509write_csr_der:sig_oid_len <- 0
	mov	r7, r0
.Ltmp165:
	@DEBUG_VALUE: mbedtls_x509write_csr_der:ret <- $r7
	b	.LBB8_25
.Ltmp166:
.LBB8_35:
	@DEBUG_VALUE: mbedtls_x509write_csr_der:buf <- [DW_OP_plus_uconst 32] [$sp+0]
	@DEBUG_VALUE: mbedtls_x509write_csr_der:ret <- $r7
	@DEBUG_VALUE: mbedtls_x509write_csr_der:sig_len <- [DW_OP_plus_uconst 48, DW_OP_deref] $sp
	@DEBUG_VALUE: mbedtls_x509write_csr_der:len <- [DW_OP_plus_uconst 24] [$sp+0]
	@DEBUG_VALUE: mbedtls_x509write_csr_der:pub_len <- [DW_OP_plus_uconst 24] [$sp+0]
	@DEBUG_VALUE: mbedtls_x509write_csr_der:ctx <- [DW_OP_plus_uconst 44] [$sp+0]
	@DEBUG_VALUE: mbedtls_x509write_csr_der:size <- [DW_OP_plus_uconst 36] [$sp+0]
	@DEBUG_VALUE: mbedtls_x509write_csr_der:f_rng <- [DW_OP_plus_uconst 40] [$sp+0]
	@DEBUG_VALUE: mbedtls_x509write_csr_der:p_rng <- [DW_OP_plus_uconst 3224] [$sp+0]
	@DEBUG_VALUE: mbedtls_x509write_csr_der:sig_and_oid_len <- 0
	@DEBUG_VALUE: mbedtls_x509write_csr_der:sig_oid_len <- 0
	ldr	r7, __arm_cp.8_1
.Ltmp167:
	b	.LBB8_25
.Ltmp168:
.LBB8_36:
	@DEBUG_VALUE: mbedtls_x509write_csr_der:sig_and_oid_len <- $r7
	@DEBUG_VALUE: mbedtls_x509write_csr_der:ret <- $r7
	@DEBUG_VALUE: mbedtls_x509write_csr_der:buf <- $r5
	@DEBUG_VALUE: mbedtls_x509write_csr_der:c2 <- $r0
	@DEBUG_VALUE: mbedtls_x509write_csr_der:len <- [DW_OP_plus_uconst 24] [$sp+0]
	@DEBUG_VALUE: mbedtls_x509write_csr_der:pub_len <- [DW_OP_plus_uconst 24] [$sp+0]
	@DEBUG_VALUE: mbedtls_x509write_csr_der:ctx <- [DW_OP_plus_uconst 44] [$sp+0]
	@DEBUG_VALUE: mbedtls_x509write_csr_der:size <- [DW_OP_plus_uconst 36] [$sp+0]
	@DEBUG_VALUE: mbedtls_x509write_csr_der:f_rng <- [DW_OP_plus_uconst 40] [$sp+0]
	@DEBUG_VALUE: mbedtls_x509write_csr_der:p_rng <- [DW_OP_plus_uconst 3224] [$sp+0]
	.loc	4 247 8 is_stmt 1               @ ../../../ThirdParty/mbedTLS/library/x509write_csr.c:247:8
	subs	r0, r0, r4
.Ltmp169:
	@DEBUG_VALUE: mbedtls_x509write_csr_der:c2 <- $r0
	str	r0, [r6]
	.loc	4 248 17                        @ ../../../ThirdParty/mbedTLS/library/x509write_csr.c:248:17
	ldr	r1, [r6, #4]
.Ltmp170:
	@DEBUG_VALUE: mbedtls_x509write_csr_der:c <- $r1
	.loc	4 248 5 is_stmt 0               @ ../../../ThirdParty/mbedTLS/library/x509write_csr.c:248:5
	mov	r2, r4
	bl	__aeabi_memcpy
.Ltmp171:
	.loc	4 250 9 is_stmt 1               @ ../../../ThirdParty/mbedTLS/library/x509write_csr.c:250:9
	adds	r4, r7, r4
.Ltmp172:
	@DEBUG_VALUE: mbedtls_x509write_csr_der:c2 <- [DW_OP_plus_uconst 3188, DW_OP_deref] $sp
	@DEBUG_VALUE: mbedtls_x509write_csr_der:len <- $r4
	.loc	4 0 9 is_stmt 0                 @ ../../../ThirdParty/mbedTLS/library/x509write_csr.c:0:9
	ldr	r0, __arm_cp.8_4
	add	r0, sp
.Ltmp173:
	.loc	4 251 5 is_stmt 1               @ ../../../ThirdParty/mbedTLS/library/x509write_csr.c:251:5
	mov	r1, r5
	mov	r2, r4
	bl	mbedtls_asn1_write_len
	mov	r7, r0
.Ltmp174:
	@DEBUG_VALUE: mbedtls_x509write_csr_der:ret <- $r7
	.loc	4 251 5 is_stmt 0               @ ../../../ThirdParty/mbedTLS/library/x509write_csr.c:251:5
	cmp	r0, #0
	bmi	.LBB8_25
.Ltmp175:
@ %bb.37:
	@DEBUG_VALUE: mbedtls_x509write_csr_der:ret <- $r7
	@DEBUG_VALUE: mbedtls_x509write_csr_der:buf <- $r5
	@DEBUG_VALUE: mbedtls_x509write_csr_der:len <- $r4
	@DEBUG_VALUE: mbedtls_x509write_csr_der:c2 <- [DW_OP_plus_uconst 3188, DW_OP_deref] $sp
	@DEBUG_VALUE: mbedtls_x509write_csr_der:pub_len <- [DW_OP_plus_uconst 24] [$sp+0]
	@DEBUG_VALUE: mbedtls_x509write_csr_der:ctx <- [DW_OP_plus_uconst 44] [$sp+0]
	@DEBUG_VALUE: mbedtls_x509write_csr_der:size <- [DW_OP_plus_uconst 36] [$sp+0]
	@DEBUG_VALUE: mbedtls_x509write_csr_der:f_rng <- [DW_OP_plus_uconst 40] [$sp+0]
	@DEBUG_VALUE: mbedtls_x509write_csr_der:p_rng <- [DW_OP_plus_uconst 3224] [$sp+0]
	@DEBUG_VALUE: mbedtls_x509write_csr_der:len <- undef
	@DEBUG_VALUE: mbedtls_x509write_csr_der:c2 <- [DW_OP_plus_uconst 3188, DW_OP_deref] $sp
	.loc	4 0 5                           @ ../../../ThirdParty/mbedTLS/library/x509write_csr.c:0:5
	ldr	r0, __arm_cp.8_4
	add	r0, sp
	movs	r2, #48
.Ltmp176:
	.loc	4 252 5 is_stmt 1               @ ../../../ThirdParty/mbedTLS/library/x509write_csr.c:252:5
	mov	r1, r5
	bl	mbedtls_asn1_write_tag
.Ltmp177:
	@DEBUG_VALUE: mbedtls_x509write_csr_der:ret <- $r0
	.loc	4 252 5 is_stmt 0               @ ../../../ThirdParty/mbedTLS/library/x509write_csr.c:252:5
	cmp	r0, #0
	bmi	.LBB8_39
.Ltmp178:
@ %bb.38:
	@DEBUG_VALUE: mbedtls_x509write_csr_der:buf <- $r5
	@DEBUG_VALUE: mbedtls_x509write_csr_der:ret <- $r0
	@DEBUG_VALUE: mbedtls_x509write_csr_der:c2 <- [DW_OP_plus_uconst 3188, DW_OP_deref] $sp
	@DEBUG_VALUE: mbedtls_x509write_csr_der:pub_len <- [DW_OP_plus_uconst 24] [$sp+0]
	@DEBUG_VALUE: mbedtls_x509write_csr_der:ctx <- [DW_OP_plus_uconst 44] [$sp+0]
	@DEBUG_VALUE: mbedtls_x509write_csr_der:size <- [DW_OP_plus_uconst 36] [$sp+0]
	@DEBUG_VALUE: mbedtls_x509write_csr_der:f_rng <- [DW_OP_plus_uconst 40] [$sp+0]
	@DEBUG_VALUE: mbedtls_x509write_csr_der:p_rng <- [DW_OP_plus_uconst 3224] [$sp+0]
	.loc	4 251 5 is_stmt 1               @ ../../../ThirdParty/mbedTLS/library/x509write_csr.c:251:5
	adds	r1, r7, r4
.Ltmp179:
	@DEBUG_VALUE: mbedtls_x509write_csr_der:len <- $r1
	.loc	4 252 5                         @ ../../../ThirdParty/mbedTLS/library/x509write_csr.c:252:5
	adds	r7, r1, r0
.Ltmp180:
	@DEBUG_VALUE: mbedtls_x509write_csr_der:len <- $r7
	.loc	4 0 5 is_stmt 0                 @ ../../../ThirdParty/mbedTLS/library/x509write_csr.c:0:5
	b	.LBB8_25
.Ltmp181:
.LBB8_39:
	@DEBUG_VALUE: mbedtls_x509write_csr_der:buf <- $r5
	@DEBUG_VALUE: mbedtls_x509write_csr_der:ret <- $r0
	@DEBUG_VALUE: mbedtls_x509write_csr_der:c2 <- [DW_OP_plus_uconst 3188, DW_OP_deref] $sp
	@DEBUG_VALUE: mbedtls_x509write_csr_der:pub_len <- [DW_OP_plus_uconst 24] [$sp+0]
	@DEBUG_VALUE: mbedtls_x509write_csr_der:ctx <- [DW_OP_plus_uconst 44] [$sp+0]
	@DEBUG_VALUE: mbedtls_x509write_csr_der:size <- [DW_OP_plus_uconst 36] [$sp+0]
	@DEBUG_VALUE: mbedtls_x509write_csr_der:f_rng <- [DW_OP_plus_uconst 40] [$sp+0]
	@DEBUG_VALUE: mbedtls_x509write_csr_der:p_rng <- [DW_OP_plus_uconst 3224] [$sp+0]
	mov	r7, r0
.Ltmp182:
	@DEBUG_VALUE: mbedtls_x509write_csr_der:ret <- $r7
	b	.LBB8_25
.Ltmp183:
	.p2align	2
@ %bb.40:
.LCPI8_0:
.L.str.2:
	.asciz	"*\206H\206\367\r\001\t\016\000\000"
__arm_cp.8_1:
	.long	4294958336                      @ 0xffffdd00
.Lcpi_end0:
	.size	__arm_cp.8_1, .Lcpi_end0-__arm_cp.8_1
__arm_cp.8_2:
	.long	4294964092                      @ 0xfffff37c
.Lcpi_end1:
	.size	__arm_cp.8_2, .Lcpi_end1-__arm_cp.8_2
__arm_cp.8_3:
	.long	3204                            @ 0xc84
.Lcpi_end2:
	.size	__arm_cp.8_3, .Lcpi_end2-__arm_cp.8_3
__arm_cp.8_4:
	.long	3188                            @ 0xc74
.Lcpi_end3:
	.size	__arm_cp.8_4, .Lcpi_end3-__arm_cp.8_4
__arm_cp.8_5:
	.long	3192                            @ 0xc78
.Lcpi_end4:
	.size	__arm_cp.8_5, .Lcpi_end4-__arm_cp.8_5
__arm_cp.8_6:
	.long	3224                            @ 0xc98
.Lcpi_end5:
	.size	__arm_cp.8_6, .Lcpi_end5-__arm_cp.8_6
__arm_cp.8_7:
	.long	3124                            @ 0xc34
.Lcpi_end6:
	.size	__arm_cp.8_7, .Lcpi_end6-__arm_cp.8_7
__arm_cp.8_8:
	.long	2100                            @ 0x834
.Lcpi_end7:
	.size	__arm_cp.8_8, .Lcpi_end7-__arm_cp.8_8
__arm_cp.8_9:
	.long	3200                            @ 0xc80
.Lcpi_end8:
	.size	__arm_cp.8_9, .Lcpi_end8-__arm_cp.8_9
__arm_cp.8_10:
	.long	3196                            @ 0xc7c
.Lcpi_end9:
	.size	__arm_cp.8_10, .Lcpi_end9-__arm_cp.8_10
.Lfunc_end8:
	.size	mbedtls_x509write_csr_der, .Lfunc_end8-mbedtls_x509write_csr_der
	.cfi_endproc
	.cantunwind
	.fnend
                                        @ -- End function
	.section	.text.mbedtls_x509write_csr_pem,"ax",%progbits
	.hidden	mbedtls_x509write_csr_pem       @ -- Begin function mbedtls_x509write_csr_pem
	.globl	mbedtls_x509write_csr_pem
	.p2align	2
	.type	mbedtls_x509write_csr_pem,%function
	.code	16                              @ @mbedtls_x509write_csr_pem
	.thumb_func
mbedtls_x509write_csr_pem:
.Lfunc_begin9:
	.loc	4 265 0 is_stmt 1               @ ../../../ThirdParty/mbedTLS/library/x509write_csr.c:265:0
	.fnstart
	.cfi_startproc
@ %bb.0:
	@DEBUG_VALUE: mbedtls_x509write_csr_pem:ctx <- $r0
	@DEBUG_VALUE: mbedtls_x509write_csr_pem:buf <- $r1
	@DEBUG_VALUE: mbedtls_x509write_csr_pem:size <- $r2
	@DEBUG_VALUE: mbedtls_x509write_csr_pem:f_rng <- $r3
	.save	{r4, r5, r6, lr}
	push	{r4, r5, r6, lr}
	.cfi_def_cfa_offset 16
	.cfi_offset lr, -4
	.cfi_offset r6, -8
	.cfi_offset r5, -12
	.cfi_offset r4, -16
	ldr	r6, __arm_cp.9_2
	.pad	#4120
	add	sp, r6
	.cfi_def_cfa_offset 4136
	mov	r4, r2
	mov	r5, r1
	movs	r1, #0
.Ltmp184:
	@DEBUG_VALUE: mbedtls_x509write_csr_pem:buf <- [DW_OP_LLVM_entry_value 1] $r1
	@DEBUG_VALUE: mbedtls_x509write_csr_pem:olen <- 0
	@DEBUG_VALUE: mbedtls_x509write_csr_pem:p_rng <- [DW_OP_plus_uconst 4136] [$sp+0]
	@DEBUG_VALUE: mbedtls_x509write_csr_pem:f_rng <- $r3
	@DEBUG_VALUE: mbedtls_x509write_csr_pem:size <- $r4
	@DEBUG_VALUE: mbedtls_x509write_csr_pem:buf <- $r5
	@DEBUG_VALUE: mbedtls_x509write_csr_pem:ctx <- $r0
	.loc	4 268 12 prologue_end           @ ../../../ThirdParty/mbedTLS/library/x509write_csr.c:268:12
	str	r1, [sp, #20]
	ldr	r1, __arm_cp.9_4
	add	r1, sp
	ldr	r1, [r1]
.Ltmp185:
	.loc	4 270 17                        @ ../../../ThirdParty/mbedTLS/library/x509write_csr.c:270:17
	str	r1, [sp]
	add	r1, sp, #24
	movw	r6, #4096
	@DEBUG_VALUE: mbedtls_x509write_csr_pem:ctx <- $r0
	movw	r2, #4096
	@DEBUG_VALUE: mbedtls_x509write_csr_pem:f_rng <- $r3
	bl	mbedtls_x509write_csr_der
.Ltmp186:
	@DEBUG_VALUE: mbedtls_x509write_csr_pem:f_rng <- [DW_OP_LLVM_entry_value 1] $r3
	@DEBUG_VALUE: mbedtls_x509write_csr_pem:ctx <- [DW_OP_LLVM_entry_value 1] $r0
	mov	r3, r0
.Ltmp187:
	@DEBUG_VALUE: mbedtls_x509write_csr_pem:ret <- $r3
	.loc	4 270 9 is_stmt 0               @ ../../../ThirdParty/mbedTLS/library/x509write_csr.c:270:9
	cmp	r0, #0
	bmi	.LBB9_2
.Ltmp188:
@ %bb.1:
	@DEBUG_VALUE: mbedtls_x509write_csr_pem:buf <- $r5
	@DEBUG_VALUE: mbedtls_x509write_csr_pem:size <- $r4
	@DEBUG_VALUE: mbedtls_x509write_csr_pem:ret <- $r3
	@DEBUG_VALUE: mbedtls_x509write_csr_pem:p_rng <- [DW_OP_plus_uconst 4136] [$sp+0]
	@DEBUG_VALUE: mbedtls_x509write_csr_pem:f_rng <- [DW_OP_LLVM_entry_value 1] $r3
	@DEBUG_VALUE: mbedtls_x509write_csr_pem:ctx <- [DW_OP_LLVM_entry_value 1] $r0
	@DEBUG_VALUE: mbedtls_x509write_csr_pem:olen <- 0
	@DEBUG_VALUE: mbedtls_x509write_csr_pem:olen <- [DW_OP_plus_uconst 20, DW_OP_deref] $sp
	.loc	4 0 9                           @ ../../../ThirdParty/mbedTLS/library/x509write_csr.c:0:9
	add	r0, sp, #20
.Ltmp189:
	.loc	4 276 17 is_stmt 1              @ ../../../ThirdParty/mbedTLS/library/x509write_csr.c:276:17
	str	r5, [sp]
	str	r4, [sp, #4]
	str	r0, [sp, #8]
	add	r0, sp, #24
	.loc	4 277 54                        @ ../../../ThirdParty/mbedTLS/library/x509write_csr.c:277:54
	adds	r0, r0, r6
	.loc	4 277 75 is_stmt 0              @ ../../../ThirdParty/mbedTLS/library/x509write_csr.c:277:75
	subs	r2, r0, r3
	.loc	4 276 17 is_stmt 1              @ ../../../ThirdParty/mbedTLS/library/x509write_csr.c:276:17
	adr	r0, .LCPI9_0
	adr	r1, .LCPI9_1
	bl	mbedtls_pem_write_buffer
.Ltmp190:
	mov	r3, r0
.Ltmp191:
	@DEBUG_VALUE: mbedtls_x509write_csr_pem:ret <- $r3
.LBB9_2:
	@DEBUG_VALUE: mbedtls_x509write_csr_pem:buf <- $r5
	@DEBUG_VALUE: mbedtls_x509write_csr_pem:size <- $r4
	@DEBUG_VALUE: mbedtls_x509write_csr_pem:ret <- $r3
	@DEBUG_VALUE: mbedtls_x509write_csr_pem:p_rng <- [DW_OP_plus_uconst 4136] [$sp+0]
	@DEBUG_VALUE: mbedtls_x509write_csr_pem:f_rng <- [DW_OP_LLVM_entry_value 1] $r3
	@DEBUG_VALUE: mbedtls_x509write_csr_pem:ctx <- [DW_OP_LLVM_entry_value 1] $r0
	.loc	4 284 1                         @ ../../../ThirdParty/mbedTLS/library/x509write_csr.c:284:1
	mov	r0, r3
	ldr	r6, __arm_cp.9_3
	add	sp, r6
.Ltmp192:
	pop	{r4, r5, r6, pc}
.Ltmp193:
	.p2align	2
@ %bb.3:
	.loc	4 0 1 is_stmt 0                 @ ../../../ThirdParty/mbedTLS/library/x509write_csr.c:0:1
.LCPI9_0:
.L.str.3:
	.asciz	"-----BEGIN CERTIFICATE REQUEST-----\n\000\000\000"
.LCPI9_1:
.L.str.4:
	.asciz	"-----END CERTIFICATE REQUEST-----\n\000"
__arm_cp.9_2:
	.long	4294963176                      @ 0xffffefe8
.Lcpi_end10:
	.size	__arm_cp.9_2, .Lcpi_end10-__arm_cp.9_2
__arm_cp.9_3:
	.long	4120                            @ 0x1018
.Lcpi_end11:
	.size	__arm_cp.9_3, .Lcpi_end11-__arm_cp.9_3
__arm_cp.9_4:
	.long	4136                            @ 0x1028
.Lcpi_end12:
	.size	__arm_cp.9_4, .Lcpi_end12-__arm_cp.9_4
.Lfunc_end9:
	.size	mbedtls_x509write_csr_pem, .Lfunc_end9-mbedtls_x509write_csr_pem
	.cfi_endproc
	.cantunwind
	.fnend
                                        @ -- End function
	.file	5 "C:\\Users\\shw26\\OneDrive\\Desktop\\2021\\2021-1\\\354\272\241\354\212\244\355\206\244\353\224\224\354\236\220\354\235\2702\\Nuvoton\\M2351_BSP_v3.00.004\\M2351Series_BSP_CMSIS_V3.00.004\\MyProject\\PulseMonitoring\\Secure" "../../../ThirdParty/mbedTLS/include/mbedtls\\x509_csr.h"
	.file	6 "C:\\Users\\shw26\\OneDrive\\Desktop\\2021\\2021-1\\\354\272\241\354\212\244\355\206\244\353\224\224\354\236\220\354\235\2702\\Nuvoton\\M2351_BSP_v3.00.004\\M2351Series_BSP_CMSIS_V3.00.004\\MyProject\\PulseMonitoring\\Secure" "../../../ThirdParty/mbedTLS/include/mbedtls/asn1.h"
	.section	".note.GNU-stack","",%progbits
	.eabi_attribute	30, 1	@ Tag_ABI_optimization_goals
	.ARM_attribute	16, 1	@ Tag_AV_eba