	.text
	.syntax unified
	.eabi_attribute	67, "2.09"	@ Tag_conformance
	.cpu	cortex-m23
	.eabi_attribute	6, 16	@ Tag_CPU_arch
	.eabi_attribute	7, 77	@ Tag_CPU_arch_profile
	.eabi_attribute	8, 0	@ Tag_ARM_ISA_use
	.eabi_attribute	9, 3	@ Tag_THUMB_ISA_use
	.eabi_attribute	34, 0	@ Tag_CPU_unaligned_access
	.eabi_attribute	17, 1	@ Tag_ABI_PCS_GOT_use
	.eabi_attribute	20, 2	@ Tag_ABI_FP_denormal
	.eabi_attribute	21, 0	@ Tag_ABI_FP_exceptions
	.eabi_attribute	23, 1	@ Tag_ABI_FP_number_model
	.eabi_attribute	24, 1	@ Tag_ABI_align_needed
	.eabi_attribute	25, 1	@ Tag_ABI_align_preserved
	.eabi_attribute	38, 1	@ Tag_ABI_FP_16bit_format
	.eabi_attribute	18, 2	@ Tag_ABI_PCS_wchar_t
	.eabi_attribute	26, 1	@ Tag_ABI_enum_size
	.eabi_attribute	14, 0	@ Tag_ABI_PCS_R9_use
	.file	"x509_crt.c"
	.file	1 "C:\\" "Keil_v5\\ARM\\ARMCLANG\\Bin\\..\\include\\stdint.h"
	.file	2 "C:\\Users\\shw26\\OneDrive\\Desktop\\2021\\2021-1\\\354\272\241\354\212\244\355\206\244\353\224\224\354\236\220\354\235\2702\\Nuvoton\\M2351_BSP_v3.00.004\\M2351Series_BSP_CMSIS_V3.00.004\\MyProject\\PulseMonitoring\\Secure" "../../../ThirdParty/mbedTLS/include/mbedtls\\x509_crt.h"
	.file	3 "C:\\Users\\shw26\\OneDrive\\Desktop\\2021\\2021-1\\\354\272\241\354\212\244\355\206\244\353\224\224\354\236\220\354\235\2702\\Nuvoton\\M2351_BSP_v3.00.004\\M2351Series_BSP_CMSIS_V3.00.004\\MyProject\\PulseMonitoring\\Secure" "../../../ThirdParty/mbedTLS/library/x509_crt.c"
	.file	4 "C:\\Users\\shw26\\OneDrive\\Desktop\\2021\\2021-1\\\354\272\241\354\212\244\355\206\244\353\224\224\354\236\220\354\235\2702\\Nuvoton\\M2351_BSP_v3.00.004\\M2351Series_BSP_CMSIS_V3.00.004\\MyProject\\PulseMonitoring\\Secure" "../../../ThirdParty/mbedTLS/include/mbedtls/md.h"
	.file	5 "C:\\Users\\shw26\\OneDrive\\Desktop\\2021\\2021-1\\\354\272\241\354\212\244\355\206\244\353\224\224\354\236\220\354\235\2702\\Nuvoton\\M2351_BSP_v3.00.004\\M2351Series_BSP_CMSIS_V3.00.004\\MyProject\\PulseMonitoring\\Secure" "../../../ThirdParty/mbedTLS/include/mbedtls/pk.h"
	.file	6 "C:\\Users\\shw26\\OneDrive\\Desktop\\2021\\2021-1\\\354\272\241\354\212\244\355\206\244\353\224\224\354\236\220\354\235\2702\\Nuvoton\\M2351_BSP_v3.00.004\\M2351Series_BSP_CMSIS_V3.00.004\\MyProject\\PulseMonitoring\\Secure" "../../../ThirdParty/mbedTLS/include/mbedtls/ecp.h"
	.file	7 "C:\\" "Keil_v5\\ARM\\ARMCLANG\\Bin\\..\\include\\stddef.h"
	.file	8 "C:\\Users\\shw26\\OneDrive\\Desktop\\2021\\2021-1\\\354\272\241\354\212\244\355\206\244\353\224\224\354\236\220\354\235\2702\\Nuvoton\\M2351_BSP_v3.00.004\\M2351Series_BSP_CMSIS_V3.00.004\\MyProject\\PulseMonitoring\\Secure" "../../../ThirdParty/mbedTLS/include/mbedtls/bignum.h"
	.section	.text.mbedtls_x509_crt_parse_der_nocopy,"ax",%progbits
	.hidden	mbedtls_x509_crt_parse_der_nocopy @ -- Begin function mbedtls_x509_crt_parse_der_nocopy
	.globl	mbedtls_x509_crt_parse_der_nocopy
	.p2align	1
	.type	mbedtls_x509_crt_parse_der_nocopy,%function
	.code	16                              @ @mbedtls_x509_crt_parse_der_nocopy
	.thumb_func
mbedtls_x509_crt_parse_der_nocopy:
.Lfunc_begin0:
	.loc	3 1151 0                        @ ../../../ThirdParty/mbedTLS/library/x509_crt.c:1151:0
	.fnstart
	.cfi_sections .debug_frame
	.cfi_startproc
@ %bb.0:
	@DEBUG_VALUE: mbedtls_x509_crt_parse_der_nocopy:chain <- $r0
	@DEBUG_VALUE: mbedtls_x509_crt_parse_der_nocopy:chain <- $r0
	@DEBUG_VALUE: mbedtls_x509_crt_parse_der_nocopy:buf <- $r1
	@DEBUG_VALUE: mbedtls_x509_crt_parse_der_nocopy:buf <- $r1
	@DEBUG_VALUE: mbedtls_x509_crt_parse_der_nocopy:buflen <- $r2
	@DEBUG_VALUE: mbedtls_x509_crt_parse_der_nocopy:buflen <- $r2
	.save	{r7, lr}
	push	{r7, lr}
	.cfi_def_cfa_offset 8
	.cfi_offset lr, -4
	.cfi_offset r7, -8
	movs	r3, #0
	@DEBUG_VALUE: mbedtls_x509_crt_parse_der_nocopy:buflen <- $r2
	@DEBUG_VALUE: mbedtls_x509_crt_parse_der_nocopy:buf <- $r1
	@DEBUG_VALUE: mbedtls_x509_crt_parse_der_nocopy:chain <- $r0
.Ltmp0:
	.loc	3 1152 13 prologue_end          @ ../../../ThirdParty/mbedTLS/library/x509_crt.c:1152:13
	bl	mbedtls_x509_crt_parse_der_internal
.Ltmp1:
	@DEBUG_VALUE: mbedtls_x509_crt_parse_der_nocopy:buflen <- [DW_OP_LLVM_entry_value 1] $r2
	@DEBUG_VALUE: mbedtls_x509_crt_parse_der_nocopy:buf <- [DW_OP_LLVM_entry_value 1] $r1
	@DEBUG_VALUE: mbedtls_x509_crt_parse_der_nocopy:chain <- [DW_OP_LLVM_entry_value 1] $r0
	.loc	3 1152 5 is_stmt 0              @ ../../../ThirdParty/mbedTLS/library/x509_crt.c:1152:5
	pop	{r7, pc}
.Ltmp2:
.Lfunc_end0:
	.size	mbedtls_x509_crt_parse_der_nocopy, .Lfunc_end0-mbedtls_x509_crt_parse_der_nocopy
	.cfi_endproc
	.cantunwind
	.fnend
                                        @ -- End function
	.section	.text.mbedtls_x509_crt_parse_der_internal,"ax",%progbits
	.p2align	2                               @ -- Begin function mbedtls_x509_crt_parse_der_internal
	.type	mbedtls_x509_crt_parse_der_internal,%function
	.code	16                              @ @mbedtls_x509_crt_parse_der_internal
	.thumb_func
mbedtls_x509_crt_parse_der_internal:
.Lfunc_begin1:
	.loc	3 1103 0 is_stmt 1              @ ../../../ThirdParty/mbedTLS/library/x509_crt.c:1103:0
	.fnstart
	.cfi_startproc
@ %bb.0:
	@DEBUG_VALUE: mbedtls_x509_crt_parse_der_internal:chain <- $r0
	@DEBUG_VALUE: mbedtls_x509_crt_parse_der_internal:buf <- $r1
	@DEBUG_VALUE: mbedtls_x509_crt_parse_der_internal:buflen <- $r2
	@DEBUG_VALUE: mbedtls_x509_crt_parse_der_internal:make_copy <- $r3
	.save	{r4, r5, r6, r7, lr}
	push	{r4, r5, r6, r7, lr}
	.cfi_def_cfa_offset 20
	.cfi_offset lr, -4
	.cfi_offset r7, -8
	.cfi_offset r6, -12
	.cfi_offset r5, -16
	.cfi_offset r4, -20
	.pad	#20
	sub	sp, #20
	.cfi_def_cfa_offset 40
	ldr	r7, __arm_cp.1_0
.Ltmp3:
	@DEBUG_VALUE: mbedtls_x509_crt_parse_der_internal:prev <- 0
	@DEBUG_VALUE: mbedtls_x509_crt_parse_der_internal:crt <- $r0
	@DEBUG_VALUE: mbedtls_x509_crt_parse_der_internal:make_copy <- $r3
	@DEBUG_VALUE: mbedtls_x509_crt_parse_der_internal:buflen <- $r2
	@DEBUG_VALUE: mbedtls_x509_crt_parse_der_internal:buf <- $r1
	@DEBUG_VALUE: mbedtls_x509_crt_parse_der_internal:chain <- $r0
	.loc	3 0 0 prologue_end              @ ../../../ThirdParty/mbedTLS/library/x509_crt.c:0:0
	mov	r5, r7
	adds	r5, #128
.Ltmp4:
	.loc	3 1110 21                       @ ../../../ThirdParty/mbedTLS/library/x509_crt.c:1110:21
	cbz	r0, .LBB1_16
.Ltmp5:
@ %bb.1:
	@DEBUG_VALUE: mbedtls_x509_crt_parse_der_internal:make_copy <- $r3
	@DEBUG_VALUE: mbedtls_x509_crt_parse_der_internal:buflen <- $r2
	@DEBUG_VALUE: mbedtls_x509_crt_parse_der_internal:buf <- $r1
	@DEBUG_VALUE: mbedtls_x509_crt_parse_der_internal:crt <- $r0
	@DEBUG_VALUE: mbedtls_x509_crt_parse_der_internal:chain <- $r0
	@DEBUG_VALUE: mbedtls_x509_crt_parse_der_internal:prev <- 0
	@DEBUG_VALUE: mbedtls_x509_crt_parse_der_internal:chain <- $r0
	@DEBUG_VALUE: mbedtls_x509_crt_parse_der_internal:crt <- $r0
	cbz	r1, .LBB1_16
.Ltmp6:
@ %bb.2:
	@DEBUG_VALUE: mbedtls_x509_crt_parse_der_internal:make_copy <- $r3
	@DEBUG_VALUE: mbedtls_x509_crt_parse_der_internal:buflen <- $r2
	@DEBUG_VALUE: mbedtls_x509_crt_parse_der_internal:buf <- $r1
	@DEBUG_VALUE: mbedtls_x509_crt_parse_der_internal:crt <- $r0
	@DEBUG_VALUE: mbedtls_x509_crt_parse_der_internal:chain <- $r0
	@DEBUG_VALUE: mbedtls_x509_crt_parse_der_internal:prev <- 0
	.loc	3 0 21 is_stmt 0                @ ../../../ThirdParty/mbedTLS/library/x509_crt.c:0:21
	mov	r4, r0
.Ltmp7:
	@DEBUG_VALUE: mbedtls_x509_crt_parse_der_internal:crt <- $r4
	@DEBUG_VALUE: mbedtls_x509_crt_parse_der_internal:chain <- $r4
	add	r5, sp, #8
	stm	r5!, {r1, r2, r3}               @ 12-byte Folded Spill
	movs	r6, #0
	movw	r1, #320
.Ltmp8:
	@DEBUG_VALUE: mbedtls_x509_crt_parse_der_internal:buf <- [DW_OP_LLVM_entry_value 1] $r1
	mov	r3, r0
.Ltmp9:
	@DEBUG_VALUE: mbedtls_x509_crt_parse_der_internal:make_copy <- [DW_OP_LLVM_entry_value 1] $r3
.LBB1_3:                                @ =>This Inner Loop Header: Depth=1
	@DEBUG_VALUE: mbedtls_x509_crt_parse_der_internal:chain <- $r4
	@DEBUG_VALUE: mbedtls_x509_crt_parse_der_internal:make_copy <- [DW_OP_LLVM_entry_value 1] $r3
	@DEBUG_VALUE: mbedtls_x509_crt_parse_der_internal:buf <- [DW_OP_LLVM_entry_value 1] $r1
	mov	r0, r6
	mov	r6, r3
.Ltmp10:
	@DEBUG_VALUE: mbedtls_x509_crt_parse_der_internal:prev <- $r0
	@DEBUG_VALUE: mbedtls_x509_crt_parse_der_internal:crt <- $r6
	.loc	3 1113 17 is_stmt 1             @ ../../../ThirdParty/mbedTLS/library/x509_crt.c:1113:17
	ldr	r2, [r3, #28]
.Ltmp11:
	@DEBUG_VALUE: mbedtls_x509_crt_parse_der_internal:buflen <- [DW_OP_LLVM_entry_value 1] $r2
	.loc	3 1113 30 is_stmt 0             @ ../../../ThirdParty/mbedTLS/library/x509_crt.c:1113:30
	cbz	r2, .LBB1_8
.Ltmp12:
@ %bb.4:                                @   in Loop: Header=BB1_3 Depth=1
	@DEBUG_VALUE: mbedtls_x509_crt_parse_der_internal:crt <- $r6
	@DEBUG_VALUE: mbedtls_x509_crt_parse_der_internal:chain <- $r4
	@DEBUG_VALUE: mbedtls_x509_crt_parse_der_internal:prev <- $r0
	@DEBUG_VALUE: mbedtls_x509_crt_parse_der_internal:make_copy <- [DW_OP_LLVM_entry_value 1] $r3
	@DEBUG_VALUE: mbedtls_x509_crt_parse_der_internal:buf <- [DW_OP_LLVM_entry_value 1] $r1
	.loc	3 1113 38                       @ ../../../ThirdParty/mbedTLS/library/x509_crt.c:1113:38
	ldr	r3, [r6, r1]
	.loc	3 1113 5                        @ ../../../ThirdParty/mbedTLS/library/x509_crt.c:1113:5
	cmp	r3, #0
	bne	.LBB1_3
.Ltmp13:
@ %bb.5:
	@DEBUG_VALUE: mbedtls_x509_crt_parse_der_internal:crt <- $r6
	@DEBUG_VALUE: mbedtls_x509_crt_parse_der_internal:chain <- $r4
	@DEBUG_VALUE: mbedtls_x509_crt_parse_der_internal:prev <- $r0
	@DEBUG_VALUE: mbedtls_x509_crt_parse_der_internal:make_copy <- [DW_OP_LLVM_entry_value 1] $r3
	@DEBUG_VALUE: mbedtls_x509_crt_parse_der_internal:buf <- [DW_OP_LLVM_entry_value 1] $r1
	@DEBUG_VALUE: mbedtls_x509_crt_parse_der_internal:crt <- $r6
	@DEBUG_VALUE: mbedtls_x509_crt_parse_der_internal:prev <- $r0
	.loc	3 0 5                           @ ../../../ThirdParty/mbedTLS/library/x509_crt.c:0:5
	ldr	r3, [sp, #16]                   @ 4-byte Reload
.Ltmp14:
	.loc	3 1122 27 is_stmt 1             @ ../../../ThirdParty/mbedTLS/library/x509_crt.c:1122:27
	cbz	r2, .LBB1_7
.Ltmp15:
@ %bb.6:
	@DEBUG_VALUE: mbedtls_x509_crt_parse_der_internal:crt <- $r6
	@DEBUG_VALUE: mbedtls_x509_crt_parse_der_internal:chain <- $r4
	@DEBUG_VALUE: mbedtls_x509_crt_parse_der_internal:prev <- $r0
	@DEBUG_VALUE: mbedtls_x509_crt_parse_der_internal:make_copy <- [DW_OP_LLVM_entry_value 1] $r3
	@DEBUG_VALUE: mbedtls_x509_crt_parse_der_internal:buf <- [DW_OP_LLVM_entry_value 1] $r1
	.loc	3 0 27 is_stmt 0                @ ../../../ThirdParty/mbedTLS/library/x509_crt.c:0:27
	movw	r1, #320
	.loc	3 1122 35                       @ ../../../ThirdParty/mbedTLS/library/x509_crt.c:1122:35
	ldr	r2, [r6, r1]
.Ltmp16:
	.loc	3 1122 9                        @ ../../../ThirdParty/mbedTLS/library/x509_crt.c:1122:9
	cbz	r2, .LBB1_17
.Ltmp17:
.LBB1_7:
	@DEBUG_VALUE: mbedtls_x509_crt_parse_der_internal:crt <- $r6
	@DEBUG_VALUE: mbedtls_x509_crt_parse_der_internal:chain <- $r4
	@DEBUG_VALUE: mbedtls_x509_crt_parse_der_internal:prev <- $r0
	@DEBUG_VALUE: mbedtls_x509_crt_parse_der_internal:make_copy <- [DW_OP_LLVM_entry_value 1] $r3
	@DEBUG_VALUE: mbedtls_x509_crt_parse_der_internal:buf <- [DW_OP_LLVM_entry_value 1] $r1
	.loc	3 0 0                           @ ../../../ThirdParty/mbedTLS/library/x509_crt.c:0:0
	mov	r7, r6
.Ltmp18:
	@DEBUG_VALUE: mbedtls_x509_crt_parse_der_internal:crt <- $r7
	@DEBUG_VALUE: mbedtls_x509_crt_parse_der_internal:crt <- $r7
	mov	r6, r0
.Ltmp19:
	@DEBUG_VALUE: mbedtls_x509_crt_parse_der_internal:prev <- $r6
	@DEBUG_VALUE: mbedtls_x509_crt_parse_der_internal:prev <- $r6
	b	.LBB1_9
.Ltmp20:
.LBB1_8:
	@DEBUG_VALUE: mbedtls_x509_crt_parse_der_internal:crt <- $r6
	@DEBUG_VALUE: mbedtls_x509_crt_parse_der_internal:chain <- $r4
	@DEBUG_VALUE: mbedtls_x509_crt_parse_der_internal:prev <- $r0
	@DEBUG_VALUE: mbedtls_x509_crt_parse_der_internal:make_copy <- [DW_OP_LLVM_entry_value 1] $r3
	@DEBUG_VALUE: mbedtls_x509_crt_parse_der_internal:buf <- [DW_OP_LLVM_entry_value 1] $r1
	mov	r7, r6
.Ltmp21:
	@DEBUG_VALUE: mbedtls_x509_crt_parse_der_internal:crt <- $r7
	@DEBUG_VALUE: mbedtls_x509_crt_parse_der_internal:crt <- $r7
	mov	r6, r0
.Ltmp22:
	@DEBUG_VALUE: mbedtls_x509_crt_parse_der_internal:prev <- $r6
	@DEBUG_VALUE: mbedtls_x509_crt_parse_der_internal:prev <- $r6
	ldr	r3, [sp, #16]                   @ 4-byte Reload
.Ltmp23:
.LBB1_9:
	@DEBUG_VALUE: mbedtls_x509_crt_parse_der_internal:crt <- $r7
	@DEBUG_VALUE: mbedtls_x509_crt_parse_der_internal:prev <- $r6
	@DEBUG_VALUE: mbedtls_x509_crt_parse_der_internal:chain <- $r4
	@DEBUG_VALUE: mbedtls_x509_crt_parse_der_internal:make_copy <- [DW_OP_LLVM_entry_value 1] $r3
	@DEBUG_VALUE: mbedtls_x509_crt_parse_der_internal:buf <- [DW_OP_LLVM_entry_value 1] $r1
	ldr	r2, [sp, #12]                   @ 4-byte Reload
	ldr	r1, [sp, #8]                    @ 4-byte Reload
.Ltmp24:
.LBB1_10:
	@DEBUG_VALUE: mbedtls_x509_crt_parse_der_internal:crt <- $r7
	@DEBUG_VALUE: mbedtls_x509_crt_parse_der_internal:prev <- $r6
	@DEBUG_VALUE: mbedtls_x509_crt_parse_der_internal:chain <- $r4
	@DEBUG_VALUE: mbedtls_x509_crt_parse_der_internal:make_copy <- [DW_OP_LLVM_entry_value 1] $r3
	@DEBUG_VALUE: mbedtls_x509_crt_parse_der_internal:buf <- [DW_OP_LLVM_entry_value 1] $r1
	@DEBUG_VALUE: mbedtls_x509_crt_parse_der_internal:crt <- $r7
	@DEBUG_VALUE: mbedtls_x509_crt_parse_der_internal:prev <- $r6
	.loc	3 1134 17 is_stmt 1             @ ../../../ThirdParty/mbedTLS/library/x509_crt.c:1134:17
	mov	r0, r7
	bl	x509_crt_parse_der_core
.Ltmp25:
	@DEBUG_VALUE: mbedtls_x509_crt_parse_der_internal:ret <- $r0
	.loc	3 1134 9 is_stmt 0              @ ../../../ThirdParty/mbedTLS/library/x509_crt.c:1134:9
	cbz	r0, .LBB1_15
.Ltmp26:
@ %bb.11:
	@DEBUG_VALUE: mbedtls_x509_crt_parse_der_internal:crt <- $r7
	@DEBUG_VALUE: mbedtls_x509_crt_parse_der_internal:prev <- $r6
	@DEBUG_VALUE: mbedtls_x509_crt_parse_der_internal:chain <- $r4
	@DEBUG_VALUE: mbedtls_x509_crt_parse_der_internal:ret <- $r0
	@DEBUG_VALUE: mbedtls_x509_crt_parse_der_internal:make_copy <- [DW_OP_LLVM_entry_value 1] $r3
	@DEBUG_VALUE: mbedtls_x509_crt_parse_der_internal:buf <- [DW_OP_LLVM_entry_value 1] $r1
	.loc	3 0 0                           @ ../../../ThirdParty/mbedTLS/library/x509_crt.c:0:0
	mov	r5, r0
.Ltmp27:
	@DEBUG_VALUE: mbedtls_x509_crt_parse_der_internal:ret <- $r5
	.loc	3 1136 13 is_stmt 1             @ ../../../ThirdParty/mbedTLS/library/x509_crt.c:1136:13
	cbz	r6, .LBB1_13
.Ltmp28:
@ %bb.12:
	@DEBUG_VALUE: mbedtls_x509_crt_parse_der_internal:crt <- $r7
	@DEBUG_VALUE: mbedtls_x509_crt_parse_der_internal:prev <- $r6
	@DEBUG_VALUE: mbedtls_x509_crt_parse_der_internal:ret <- $r5
	@DEBUG_VALUE: mbedtls_x509_crt_parse_der_internal:chain <- $r4
	@DEBUG_VALUE: mbedtls_x509_crt_parse_der_internal:make_copy <- [DW_OP_LLVM_entry_value 1] $r3
	@DEBUG_VALUE: mbedtls_x509_crt_parse_der_internal:buf <- [DW_OP_LLVM_entry_value 1] $r1
	.loc	3 0 13 is_stmt 0                @ ../../../ThirdParty/mbedTLS/library/x509_crt.c:0:13
	movw	r0, #320
	movs	r1, #0
.Ltmp29:
	.loc	3 1137 24 is_stmt 1             @ ../../../ThirdParty/mbedTLS/library/x509_crt.c:1137:24
	str	r1, [r6, r0]
.Ltmp30:
.LBB1_13:
	@DEBUG_VALUE: mbedtls_x509_crt_parse_der_internal:crt <- $r7
	@DEBUG_VALUE: mbedtls_x509_crt_parse_der_internal:prev <- $r6
	@DEBUG_VALUE: mbedtls_x509_crt_parse_der_internal:ret <- $r5
	@DEBUG_VALUE: mbedtls_x509_crt_parse_der_internal:chain <- $r4
	@DEBUG_VALUE: mbedtls_x509_crt_parse_der_internal:make_copy <- [DW_OP_LLVM_entry_value 1] $r3
	@DEBUG_VALUE: mbedtls_x509_crt_parse_der_internal:buf <- [DW_OP_LLVM_entry_value 1] $r1
	.loc	3 1139 13                       @ ../../../ThirdParty/mbedTLS/library/x509_crt.c:1139:13
	cmp	r7, r4
	beq	.LBB1_16
.Ltmp31:
@ %bb.14:
	@DEBUG_VALUE: mbedtls_x509_crt_parse_der_internal:crt <- $r7
	@DEBUG_VALUE: mbedtls_x509_crt_parse_der_internal:prev <- $r6
	@DEBUG_VALUE: mbedtls_x509_crt_parse_der_internal:ret <- $r5
	@DEBUG_VALUE: mbedtls_x509_crt_parse_der_internal:chain <- $r4
	@DEBUG_VALUE: mbedtls_x509_crt_parse_der_internal:make_copy <- [DW_OP_LLVM_entry_value 1] $r3
	@DEBUG_VALUE: mbedtls_x509_crt_parse_der_internal:buf <- [DW_OP_LLVM_entry_value 1] $r1
	.loc	3 1140 13                       @ ../../../ThirdParty/mbedTLS/library/x509_crt.c:1140:13
	mov	r0, r7
	bl	free
	b	.LBB1_16
.Ltmp32:
.LBB1_15:
	@DEBUG_VALUE: mbedtls_x509_crt_parse_der_internal:crt <- $r7
	@DEBUG_VALUE: mbedtls_x509_crt_parse_der_internal:prev <- $r6
	@DEBUG_VALUE: mbedtls_x509_crt_parse_der_internal:chain <- $r4
	@DEBUG_VALUE: mbedtls_x509_crt_parse_der_internal:ret <- $r0
	@DEBUG_VALUE: mbedtls_x509_crt_parse_der_internal:make_copy <- [DW_OP_LLVM_entry_value 1] $r3
	@DEBUG_VALUE: mbedtls_x509_crt_parse_der_internal:buf <- [DW_OP_LLVM_entry_value 1] $r1
	.loc	3 0 13 is_stmt 0                @ ../../../ThirdParty/mbedTLS/library/x509_crt.c:0:13
	movs	r5, #0
.Ltmp33:
.LBB1_16:
	.loc	3 1146 1 is_stmt 1              @ ../../../ThirdParty/mbedTLS/library/x509_crt.c:1146:1
	mov	r0, r5
	add	sp, #20
	pop	{r4, r5, r6, r7, pc}
.LBB1_17:
.Ltmp34:
	@DEBUG_VALUE: mbedtls_x509_crt_parse_der_internal:crt <- $r6
	@DEBUG_VALUE: mbedtls_x509_crt_parse_der_internal:chain <- $r4
	@DEBUG_VALUE: mbedtls_x509_crt_parse_der_internal:prev <- $r0
	@DEBUG_VALUE: mbedtls_x509_crt_parse_der_internal:make_copy <- [DW_OP_LLVM_entry_value 1] $r3
	@DEBUG_VALUE: mbedtls_x509_crt_parse_der_internal:buf <- [DW_OP_LLVM_entry_value 1] $r1
	.loc	3 0 0 is_stmt 0                 @ ../../../ThirdParty/mbedTLS/library/x509_crt.c:0:0
	adds	r5, r6, r1
	movs	r0, #1
.Ltmp35:
	.loc	3 1124 21 is_stmt 1             @ ../../../ThirdParty/mbedTLS/library/x509_crt.c:1124:21
	movw	r1, #324
	bl	calloc
	str	r5, [sp, #4]                    @ 4-byte Spill
	.loc	3 1124 19 is_stmt 0             @ ../../../ThirdParty/mbedTLS/library/x509_crt.c:1124:19
	str	r0, [r5]
	.loc	3 1126 13 is_stmt 1             @ ../../../ThirdParty/mbedTLS/library/x509_crt.c:1126:13
	cmp	r0, #0
.Ltmp36:
	.loc	3 0 0 is_stmt 0                 @ ../../../ThirdParty/mbedTLS/library/x509_crt.c:0:0
	mov	r5, r7
.Ltmp37:
	.loc	3 1126 13                       @ ../../../ThirdParty/mbedTLS/library/x509_crt.c:1126:13
	beq	.LBB1_16
.Ltmp38:
@ %bb.18:
	@DEBUG_VALUE: mbedtls_x509_crt_parse_der_internal:crt <- $r6
	@DEBUG_VALUE: mbedtls_x509_crt_parse_der_internal:chain <- $r4
	@DEBUG_VALUE: mbedtls_x509_crt_parse_der_internal:make_copy <- [DW_OP_LLVM_entry_value 1] $r3
	@DEBUG_VALUE: mbedtls_x509_crt_parse_der_internal:buf <- [DW_OP_LLVM_entry_value 1] $r1
	@DEBUG_VALUE: mbedtls_x509_crt_parse_der_internal:prev <- $r6
	.loc	3 1130 9 is_stmt 1              @ ../../../ThirdParty/mbedTLS/library/x509_crt.c:1130:9
	bl	mbedtls_x509_crt_init
	.loc	3 1131 20                       @ ../../../ThirdParty/mbedTLS/library/x509_crt.c:1131:20
	add	r3, sp, #4
	ldm	r3, {r0, r1, r2, r3}            @ 16-byte Folded Reload
	ldr	r7, [r0]
.Ltmp39:
	@DEBUG_VALUE: mbedtls_x509_crt_parse_der_internal:crt <- $r7
	.loc	3 0 20 is_stmt 0                @ ../../../ThirdParty/mbedTLS/library/x509_crt.c:0:20
	b	.LBB1_10
.Ltmp40:
	.p2align	2
@ %bb.19:
__arm_cp.1_0:
	.long	4294956928                      @ 0xffffd780
.Lcpi_end0:
	.size	__arm_cp.1_0, .Lcpi_end0-__arm_cp.1_0
.Lfunc_end1:
	.size	mbedtls_x509_crt_parse_der_internal, .Lfunc_end1-mbedtls_x509_crt_parse_der_internal
	.cfi_endproc
	.cantunwind
	.fnend
                                        @ -- End function
	.section	.text.mbedtls_x509_crt_parse_der,"ax",%progbits
	.hidden	mbedtls_x509_crt_parse_der      @ -- Begin function mbedtls_x509_crt_parse_der
	.globl	mbedtls_x509_crt_parse_der
	.p2align	1
	.type	mbedtls_x509_crt_parse_der,%function
	.code	16                              @ @mbedtls_x509_crt_parse_der
	.thumb_func
mbedtls_x509_crt_parse_der:
.Lfunc_begin2:
	.loc	3 1158 0 is_stmt 1              @ ../../../ThirdParty/mbedTLS/library/x509_crt.c:1158:0
	.fnstart
	.cfi_startproc
@ %bb.0:
	@DEBUG_VALUE: mbedtls_x509_crt_parse_der:chain <- $r0
	@DEBUG_VALUE: mbedtls_x509_crt_parse_der:chain <- $r0
	@DEBUG_VALUE: mbedtls_x509_crt_parse_der:buf <- $r1
	@DEBUG_VALUE: mbedtls_x509_crt_parse_der:buf <- $r1
	@DEBUG_VALUE: mbedtls_x509_crt_parse_der:buflen <- $r2
	@DEBUG_VALUE: mbedtls_x509_crt_parse_der:buflen <- $r2
	.save	{r7, lr}
	push	{r7, lr}
	.cfi_def_cfa_offset 8
	.cfi_offset lr, -4
	.cfi_offset r7, -8
	movs	r3, #1
	@DEBUG_VALUE: mbedtls_x509_crt_parse_der:buflen <- $r2
	@DEBUG_VALUE: mbedtls_x509_crt_parse_der:buf <- $r1
	@DEBUG_VALUE: mbedtls_x509_crt_parse_der:chain <- $r0
.Ltmp41:
	.loc	3 1159 13 prologue_end          @ ../../../ThirdParty/mbedTLS/library/x509_crt.c:1159:13
	bl	mbedtls_x509_crt_parse_der_internal
.Ltmp42:
	@DEBUG_VALUE: mbedtls_x509_crt_parse_der:buflen <- [DW_OP_LLVM_entry_value 1] $r2
	@DEBUG_VALUE: mbedtls_x509_crt_parse_der:buf <- [DW_OP_LLVM_entry_value 1] $r1
	@DEBUG_VALUE: mbedtls_x509_crt_parse_der:chain <- [DW_OP_LLVM_entry_value 1] $r0
	.loc	3 1159 5 is_stmt 0              @ ../../../ThirdParty/mbedTLS/library/x509_crt.c:1159:5
	pop	{r7, pc}
.Ltmp43:
.Lfunc_end2:
	.size	mbedtls_x509_crt_parse_der, .Lfunc_end2-mbedtls_x509_crt_parse_der
	.cfi_endproc
	.cantunwind
	.fnend
                                        @ -- End function
	.section	.text.mbedtls_x509_crt_parse,"ax",%progbits
	.hidden	mbedtls_x509_crt_parse          @ -- Begin function mbedtls_x509_crt_parse
	.globl	mbedtls_x509_crt_parse
	.p2align	2
	.type	mbedtls_x509_crt_parse,%function
	.code	16                              @ @mbedtls_x509_crt_parse
	.thumb_func
mbedtls_x509_crt_parse:
.Lfunc_begin3:
	.loc	3 1169 0 is_stmt 1              @ ../../../ThirdParty/mbedTLS/library/x509_crt.c:1169:0
	.fnstart
	.cfi_startproc
@ %bb.0:
	@DEBUG_VALUE: mbedtls_x509_crt_parse:chain <- $r0
	@DEBUG_VALUE: mbedtls_x509_crt_parse:buf <- $r1
	@DEBUG_VALUE: mbedtls_x509_crt_parse:buflen <- $r2
	.save	{r4, r5, r6, r7, lr}
	push	{r4, r5, r6, r7, lr}
	.cfi_def_cfa_offset 20
	.cfi_offset lr, -4
	.cfi_offset r7, -8
	.cfi_offset r6, -12
	.cfi_offset r5, -16
	.cfi_offset r4, -20
	.pad	#60
	sub	sp, #60
	.cfi_def_cfa_offset 80
	mov	r7, r0
	ldr	r0, __arm_cp.3_0
.Ltmp44:
	@DEBUG_VALUE: mbedtls_x509_crt_parse:chain <- [DW_OP_LLVM_entry_value 1] $r0
	@DEBUG_VALUE: mbedtls_x509_crt_parse:buf_format <- 1
	@DEBUG_VALUE: mbedtls_x509_crt_parse:total_failed <- 0
	@DEBUG_VALUE: mbedtls_x509_crt_parse:first_error <- 0
	@DEBUG_VALUE: mbedtls_x509_crt_parse:success <- 0
	@DEBUG_VALUE: mbedtls_x509_crt_parse:buflen <- $r2
	@DEBUG_VALUE: mbedtls_x509_crt_parse:buf <- $r1
	@DEBUG_VALUE: mbedtls_x509_crt_parse:chain <- $r7
	.loc	3 1178 23 prologue_end          @ ../../../ThirdParty/mbedTLS/library/x509_crt.c:1178:23
	cmp	r7, #0
	bne	.LBB3_1
	b	.LBB3_33
.Ltmp45:
.LBB3_1:
	@DEBUG_VALUE: mbedtls_x509_crt_parse:chain <- $r7
	@DEBUG_VALUE: mbedtls_x509_crt_parse:buflen <- $r2
	@DEBUG_VALUE: mbedtls_x509_crt_parse:buf <- $r1
	@DEBUG_VALUE: mbedtls_x509_crt_parse:success <- 0
	@DEBUG_VALUE: mbedtls_x509_crt_parse:first_error <- 0
	@DEBUG_VALUE: mbedtls_x509_crt_parse:total_failed <- 0
	@DEBUG_VALUE: mbedtls_x509_crt_parse:buf_format <- 1
	@DEBUG_VALUE: mbedtls_x509_crt_parse:buflen <- $r2
	.loc	3 0 23 is_stmt 0                @ ../../../ThirdParty/mbedTLS/library/x509_crt.c:0:23
	mov	r6, r1
.Ltmp46:
	@DEBUG_VALUE: mbedtls_x509_crt_parse:buf <- $r6
	.loc	3 1178 23                       @ ../../../ThirdParty/mbedTLS/library/x509_crt.c:1178:23
	cmp	r1, #0
	bne	.LBB3_2
	b	.LBB3_33
.Ltmp47:
.LBB3_2:
	@DEBUG_VALUE: mbedtls_x509_crt_parse:chain <- $r7
	@DEBUG_VALUE: mbedtls_x509_crt_parse:buf <- $r6
	@DEBUG_VALUE: mbedtls_x509_crt_parse:buflen <- $r2
	@DEBUG_VALUE: mbedtls_x509_crt_parse:success <- 0
	@DEBUG_VALUE: mbedtls_x509_crt_parse:first_error <- 0
	@DEBUG_VALUE: mbedtls_x509_crt_parse:total_failed <- 0
	@DEBUG_VALUE: mbedtls_x509_crt_parse:buf_format <- 1
	.loc	3 0 23                          @ ../../../ThirdParty/mbedTLS/library/x509_crt.c:0:23
	mov	r5, r2
.Ltmp48:
	@DEBUG_VALUE: mbedtls_x509_crt_parse:buflen <- $r5
	.loc	3 1186 21 is_stmt 1             @ ../../../ThirdParty/mbedTLS/library/x509_crt.c:1186:21
	cbz	r2, .LBB3_4
.Ltmp49:
@ %bb.3:
	@DEBUG_VALUE: mbedtls_x509_crt_parse:chain <- $r7
	@DEBUG_VALUE: mbedtls_x509_crt_parse:buf <- $r6
	@DEBUG_VALUE: mbedtls_x509_crt_parse:buflen <- $r5
	@DEBUG_VALUE: mbedtls_x509_crt_parse:success <- 0
	@DEBUG_VALUE: mbedtls_x509_crt_parse:first_error <- 0
	@DEBUG_VALUE: mbedtls_x509_crt_parse:total_failed <- 0
	@DEBUG_VALUE: mbedtls_x509_crt_parse:buf_format <- 1
	.loc	3 1186 35 is_stmt 0             @ ../../../ThirdParty/mbedTLS/library/x509_crt.c:1186:35
	adds	r0, r5, r6
	.loc	3 1186 24                       @ ../../../ThirdParty/mbedTLS/library/x509_crt.c:1186:24
	subs	r0, r0, #1
	ldrb	r0, [r0]
	.loc	3 1186 48                       @ ../../../ThirdParty/mbedTLS/library/x509_crt.c:1186:48
	cbz	r0, .LBB3_5
.Ltmp50:
.LBB3_4:
	@DEBUG_VALUE: mbedtls_x509_crt_parse:chain <- $r7
	@DEBUG_VALUE: mbedtls_x509_crt_parse:buf <- $r6
	@DEBUG_VALUE: mbedtls_x509_crt_parse:buflen <- $r5
	@DEBUG_VALUE: mbedtls_x509_crt_parse:success <- 0
	@DEBUG_VALUE: mbedtls_x509_crt_parse:first_error <- 0
	@DEBUG_VALUE: mbedtls_x509_crt_parse:total_failed <- 0
	.loc	3 1193 16 is_stmt 1             @ ../../../ThirdParty/mbedTLS/library/x509_crt.c:1193:16
	mov	r0, r7
	mov	r1, r6
	mov	r2, r5
	bl	mbedtls_x509_crt_parse_der
.Ltmp51:
	.loc	3 0 0 is_stmt 0                 @ ../../../ThirdParty/mbedTLS/library/x509_crt.c:0:0
	add	sp, #60
	pop	{r4, r5, r6, r7, pc}
.Ltmp52:
.LBB3_5:
	@DEBUG_VALUE: mbedtls_x509_crt_parse:chain <- $r7
	@DEBUG_VALUE: mbedtls_x509_crt_parse:buf <- $r6
	@DEBUG_VALUE: mbedtls_x509_crt_parse:buflen <- $r5
	@DEBUG_VALUE: mbedtls_x509_crt_parse:success <- 0
	@DEBUG_VALUE: mbedtls_x509_crt_parse:first_error <- 0
	@DEBUG_VALUE: mbedtls_x509_crt_parse:total_failed <- 0
	@DEBUG_VALUE: mbedtls_x509_crt_parse:buf_format <- 1
	.loc	3 1187 13 is_stmt 1             @ ../../../ThirdParty/mbedTLS/library/x509_crt.c:1187:13
	ldr	r1, __arm_cp.3_1
	mov	r0, r6
	bl	strstr
.Ltmp53:
	@DEBUG_VALUE: mbedtls_x509_crt_parse:buf_format <- undef
	.loc	3 1192 9                        @ ../../../ThirdParty/mbedTLS/library/x509_crt.c:1192:9
	cmp	r0, #0
	beq	.LBB3_4
.Ltmp54:
@ %bb.6:
	@DEBUG_VALUE: mbedtls_x509_crt_parse:chain <- $r7
	@DEBUG_VALUE: mbedtls_x509_crt_parse:buf <- $r6
	@DEBUG_VALUE: mbedtls_x509_crt_parse:buflen <- $r5
	@DEBUG_VALUE: mbedtls_x509_crt_parse:success <- 0
	@DEBUG_VALUE: mbedtls_x509_crt_parse:first_error <- 0
	@DEBUG_VALUE: mbedtls_x509_crt_parse:total_failed <- 0
	@DEBUG_VALUE: mbedtls_x509_crt_parse:buflen <- $r5
	@DEBUG_VALUE: mbedtls_x509_crt_parse:success <- 0
	@DEBUG_VALUE: mbedtls_x509_crt_parse:first_error <- 0
	@DEBUG_VALUE: mbedtls_x509_crt_parse:total_failed <- 0
	.loc	3 1205 9                        @ ../../../ThirdParty/mbedTLS/library/x509_crt.c:1205:9
	cmp	r5, #2
.Ltmp55:
	@DEBUG_VALUE: mbedtls_x509_crt_parse:buf <- undef
	blo	.LBB3_28
.Ltmp56:
@ %bb.7:
	@DEBUG_VALUE: mbedtls_x509_crt_parse:chain <- $r7
	@DEBUG_VALUE: mbedtls_x509_crt_parse:buflen <- $r5
	@DEBUG_VALUE: mbedtls_x509_crt_parse:success <- 0
	@DEBUG_VALUE: mbedtls_x509_crt_parse:first_error <- 0
	@DEBUG_VALUE: mbedtls_x509_crt_parse:total_failed <- 0
	.loc	3 0 9 is_stmt 0                 @ ../../../ThirdParty/mbedTLS/library/x509_crt.c:0:9
	movs	r0, #0
	movs	r1, #1
	str	r1, [sp, #20]                   @ 4-byte Spill
	str	r0, [sp, #36]                   @ 4-byte Spill
	str	r0, [sp, #32]                   @ 4-byte Spill
	str	r0, [sp, #40]                   @ 4-byte Spill
	str	r0, [sp, #16]                   @ 4-byte Spill
                                        @ implicit-def: $r0
                                        @ kill: killed $r0
	b	.LBB3_9
.Ltmp57:
.LBB3_8:                                @   in Loop: Header=BB3_9 Depth=1
	@DEBUG_VALUE: mbedtls_x509_crt_parse:chain <- $r7
	@DEBUG_VALUE: mbedtls_x509_crt_parse:buf <- $r6
	@DEBUG_VALUE: mbedtls_x509_crt_parse:buflen <- $r5
	@DEBUG_VALUE: mbedtls_x509_crt_parse:total_failed <- [DW_OP_plus_uconst 36] [$sp+0]
	@DEBUG_VALUE: mbedtls_x509_crt_parse:first_error <- [DW_OP_plus_uconst 32] [$sp+0]
	@DEBUG_VALUE: mbedtls_x509_crt_parse:success <- [DW_OP_plus_uconst 16] [$sp+0]
	@DEBUG_VALUE: mbedtls_x509_crt_parse:buf <- $r6
	@DEBUG_VALUE: mbedtls_x509_crt_parse:buflen <- $r5
	@DEBUG_VALUE: mbedtls_x509_crt_parse:success <- [DW_OP_plus_uconst 16] [$sp+0]
	@DEBUG_VALUE: mbedtls_x509_crt_parse:first_error <- [DW_OP_plus_uconst 32] [$sp+0]
	@DEBUG_VALUE: mbedtls_x509_crt_parse:total_failed <- [DW_OP_plus_uconst 36] [$sp+0]
	.loc	3 1205 9                        @ ../../../ThirdParty/mbedTLS/library/x509_crt.c:1205:9
	cmp	r5, #1
	bls	.LBB3_29
.Ltmp58:
.LBB3_9:                                @ =>This Inner Loop Header: Depth=1
	@DEBUG_VALUE: mbedtls_x509_crt_parse:chain <- $r7
	@DEBUG_VALUE: mbedtls_x509_crt_parse:buflen <- $r5
	@DEBUG_VALUE: mbedtls_x509_crt_parse:buf <- $r6
	@DEBUG_VALUE: mbedtls_x509_crt_parse:buflen <- $r5
	@DEBUG_VALUE: mbedtls_x509_crt_parse:success <- [DW_OP_plus_uconst 16] [$sp+0]
	@DEBUG_VALUE: mbedtls_x509_crt_parse:first_error <- [DW_OP_plus_uconst 32] [$sp+0]
	@DEBUG_VALUE: mbedtls_x509_crt_parse:total_failed <- [DW_OP_plus_uconst 36] [$sp+0]
	.loc	3 0 9                           @ ../../../ThirdParty/mbedTLS/library/x509_crt.c:0:9
	add	r4, sp, #48
.Ltmp59:
	.loc	3 1208 13 is_stmt 1             @ ../../../ThirdParty/mbedTLS/library/x509_crt.c:1208:13
	mov	r0, r4
	bl	mbedtls_pem_init
.Ltmp60:
	@DEBUG_VALUE: use_len <- [DW_OP_plus_uconst 44, DW_OP_deref] $sp
	.loc	3 0 13 is_stmt 0                @ ../../../ThirdParty/mbedTLS/library/x509_crt.c:0:13
	add	r0, sp, #44
	ldr	r1, [sp, #40]                   @ 4-byte Reload
	.loc	3 1211 19 is_stmt 1             @ ../../../ThirdParty/mbedTLS/library/x509_crt.c:1211:19
	str	r1, [sp]
	str	r1, [sp, #4]
	str	r0, [sp, #8]
	mov	r0, r4
	ldr	r1, __arm_cp.3_1
	adr	r2, .LCPI3_2
	mov	r3, r6
	bl	mbedtls_pem_read_buffer
	mov	r4, r0
.Ltmp61:
	@DEBUG_VALUE: ret <- $r4
	.loc	3 1216 17                       @ ../../../ThirdParty/mbedTLS/library/x509_crt.c:1216:17
	ldr	r0, __arm_cp.3_3
	cmp	r4, r0
	beq	.LBB3_15
.Ltmp62:
@ %bb.10:                               @   in Loop: Header=BB3_9 Depth=1
	@DEBUG_VALUE: mbedtls_x509_crt_parse:chain <- $r7
	@DEBUG_VALUE: mbedtls_x509_crt_parse:buf <- $r6
	@DEBUG_VALUE: mbedtls_x509_crt_parse:buflen <- $r5
	@DEBUG_VALUE: ret <- $r4
	@DEBUG_VALUE: use_len <- [DW_OP_plus_uconst 44, DW_OP_deref] $sp
	@DEBUG_VALUE: mbedtls_x509_crt_parse:total_failed <- [DW_OP_plus_uconst 36] [$sp+0]
	@DEBUG_VALUE: mbedtls_x509_crt_parse:first_error <- [DW_OP_plus_uconst 32] [$sp+0]
	@DEBUG_VALUE: mbedtls_x509_crt_parse:success <- [DW_OP_plus_uconst 16] [$sp+0]
	ldr	r0, __arm_cp.3_4
	cmp	r4, r0
	beq	.LBB3_16
.Ltmp63:
@ %bb.11:                               @   in Loop: Header=BB3_9 Depth=1
	@DEBUG_VALUE: mbedtls_x509_crt_parse:chain <- $r7
	@DEBUG_VALUE: mbedtls_x509_crt_parse:buf <- $r6
	@DEBUG_VALUE: mbedtls_x509_crt_parse:buflen <- $r5
	@DEBUG_VALUE: ret <- $r4
	@DEBUG_VALUE: use_len <- [DW_OP_plus_uconst 44, DW_OP_deref] $sp
	@DEBUG_VALUE: mbedtls_x509_crt_parse:total_failed <- [DW_OP_plus_uconst 36] [$sp+0]
	@DEBUG_VALUE: mbedtls_x509_crt_parse:first_error <- [DW_OP_plus_uconst 32] [$sp+0]
	@DEBUG_VALUE: mbedtls_x509_crt_parse:success <- [DW_OP_plus_uconst 16] [$sp+0]
	cbnz	r4, .LBB3_17
.Ltmp64:
@ %bb.12:                               @   in Loop: Header=BB3_9 Depth=1
	@DEBUG_VALUE: mbedtls_x509_crt_parse:chain <- $r7
	@DEBUG_VALUE: mbedtls_x509_crt_parse:buf <- $r6
	@DEBUG_VALUE: mbedtls_x509_crt_parse:buflen <- $r5
	@DEBUG_VALUE: ret <- $r4
	@DEBUG_VALUE: use_len <- [DW_OP_plus_uconst 44, DW_OP_deref] $sp
	@DEBUG_VALUE: mbedtls_x509_crt_parse:total_failed <- [DW_OP_plus_uconst 36] [$sp+0]
	@DEBUG_VALUE: mbedtls_x509_crt_parse:first_error <- [DW_OP_plus_uconst 32] [$sp+0]
	@DEBUG_VALUE: mbedtls_x509_crt_parse:success <- [DW_OP_plus_uconst 16] [$sp+0]
	.loc	3 1221 27                       @ ../../../ThirdParty/mbedTLS/library/x509_crt.c:1221:27
	ldr	r4, [sp, #44]
.Ltmp65:
	@DEBUG_VALUE: use_len <- $r4
	.loc	3 1247 67                       @ ../../../ThirdParty/mbedTLS/library/x509_crt.c:1247:67
	ldr	r2, [sp, #52]
	.loc	3 1247 58 is_stmt 0             @ ../../../ThirdParty/mbedTLS/library/x509_crt.c:1247:58
	ldr	r1, [sp, #48]
	.loc	3 1247 19                       @ ../../../ThirdParty/mbedTLS/library/x509_crt.c:1247:19
	mov	r0, r7
	bl	mbedtls_x509_crt_parse_der
	str	r0, [sp, #28]                   @ 4-byte Spill
.Ltmp66:
	@DEBUG_VALUE: ret <- [DW_OP_plus_uconst 28] [$sp+0]
	.loc	3 0 19                          @ ../../../ThirdParty/mbedTLS/library/x509_crt.c:0:19
	add	r0, sp, #48
	.loc	3 1249 13 is_stmt 1             @ ../../../ThirdParty/mbedTLS/library/x509_crt.c:1249:13
	bl	mbedtls_pem_free
	ldr	r1, [sp, #28]                   @ 4-byte Reload
.Ltmp67:
	@DEBUG_VALUE: ret <- $r1
	.loc	3 1222 21                       @ ../../../ThirdParty/mbedTLS/library/x509_crt.c:1222:21
	adds	r6, r6, r4
.Ltmp68:
	@DEBUG_VALUE: mbedtls_x509_crt_parse:buf <- $r6
	.loc	3 1221 24                       @ ../../../ThirdParty/mbedTLS/library/x509_crt.c:1221:24
	subs	r5, r5, r4
.Ltmp69:
	@DEBUG_VALUE: mbedtls_x509_crt_parse:buflen <- $r5
	.loc	3 1251 17                       @ ../../../ThirdParty/mbedTLS/library/x509_crt.c:1251:17
	ldr	r0, __arm_cp.3_5
	cmp	r1, r0
	beq	.LBB3_20
.Ltmp70:
@ %bb.13:                               @   in Loop: Header=BB3_9 Depth=1
	@DEBUG_VALUE: mbedtls_x509_crt_parse:chain <- $r7
	@DEBUG_VALUE: mbedtls_x509_crt_parse:buf <- $r6
	@DEBUG_VALUE: mbedtls_x509_crt_parse:buflen <- $r5
	@DEBUG_VALUE: use_len <- $r4
	@DEBUG_VALUE: ret <- $r1
	@DEBUG_VALUE: mbedtls_x509_crt_parse:total_failed <- [DW_OP_plus_uconst 36] [$sp+0]
	@DEBUG_VALUE: mbedtls_x509_crt_parse:first_error <- [DW_OP_plus_uconst 32] [$sp+0]
	@DEBUG_VALUE: mbedtls_x509_crt_parse:success <- [DW_OP_plus_uconst 16] [$sp+0]
	cbnz	r1, .LBB3_21
.Ltmp71:
@ %bb.14:                               @   in Loop: Header=BB3_9 Depth=1
	@DEBUG_VALUE: mbedtls_x509_crt_parse:chain <- $r7
	@DEBUG_VALUE: mbedtls_x509_crt_parse:buf <- $r6
	@DEBUG_VALUE: mbedtls_x509_crt_parse:buflen <- $r5
	@DEBUG_VALUE: use_len <- $r4
	@DEBUG_VALUE: ret <- $r1
	@DEBUG_VALUE: mbedtls_x509_crt_parse:total_failed <- [DW_OP_plus_uconst 36] [$sp+0]
	@DEBUG_VALUE: mbedtls_x509_crt_parse:first_error <- [DW_OP_plus_uconst 32] [$sp+0]
	@DEBUG_VALUE: mbedtls_x509_crt_parse:success <- [DW_OP_plus_uconst 16] [$sp+0]
	.loc	3 0 17 is_stmt 0                @ ../../../ThirdParty/mbedTLS/library/x509_crt.c:0:17
	movs	r0, #0
	movs	r1, #1
.Ltmp72:
	@DEBUG_VALUE: mbedtls_x509_crt_parse:success <- 1
	str	r1, [sp, #16]                   @ 4-byte Spill
	b	.LBB3_24
.Ltmp73:
.LBB3_15:                               @   in Loop: Header=BB3_9 Depth=1
	@DEBUG_VALUE: mbedtls_x509_crt_parse:chain <- $r7
	@DEBUG_VALUE: mbedtls_x509_crt_parse:buf <- $r6
	@DEBUG_VALUE: mbedtls_x509_crt_parse:buflen <- $r5
	@DEBUG_VALUE: ret <- $r4
	@DEBUG_VALUE: use_len <- [DW_OP_plus_uconst 44, DW_OP_deref] $sp
	@DEBUG_VALUE: mbedtls_x509_crt_parse:total_failed <- [DW_OP_plus_uconst 36] [$sp+0]
	@DEBUG_VALUE: mbedtls_x509_crt_parse:first_error <- [DW_OP_plus_uconst 32] [$sp+0]
	@DEBUG_VALUE: mbedtls_x509_crt_parse:success <- [DW_OP_plus_uconst 16] [$sp+0]
	str	r4, [sp, #24]                   @ 4-byte Spill
.Ltmp74:
	@DEBUG_VALUE: ret <- [DW_OP_plus_uconst 24] [$sp+0]
	ldr	r0, [sp, #20]                   @ 4-byte Reload
	b	.LBB3_24
.Ltmp75:
.LBB3_16:                               @   in Loop: Header=BB3_9 Depth=1
	@DEBUG_VALUE: mbedtls_x509_crt_parse:chain <- $r7
	@DEBUG_VALUE: mbedtls_x509_crt_parse:buf <- $r6
	@DEBUG_VALUE: mbedtls_x509_crt_parse:buflen <- $r5
	@DEBUG_VALUE: ret <- $r4
	@DEBUG_VALUE: use_len <- [DW_OP_plus_uconst 44, DW_OP_deref] $sp
	@DEBUG_VALUE: mbedtls_x509_crt_parse:total_failed <- [DW_OP_plus_uconst 36] [$sp+0]
	@DEBUG_VALUE: mbedtls_x509_crt_parse:first_error <- [DW_OP_plus_uconst 32] [$sp+0]
	@DEBUG_VALUE: mbedtls_x509_crt_parse:success <- [DW_OP_plus_uconst 16] [$sp+0]
	movs	r0, #3
	b	.LBB3_24
.Ltmp76:
.LBB3_17:                               @   in Loop: Header=BB3_9 Depth=1
	@DEBUG_VALUE: mbedtls_x509_crt_parse:chain <- $r7
	@DEBUG_VALUE: mbedtls_x509_crt_parse:buf <- $r6
	@DEBUG_VALUE: mbedtls_x509_crt_parse:buflen <- $r5
	@DEBUG_VALUE: ret <- $r4
	@DEBUG_VALUE: use_len <- [DW_OP_plus_uconst 44, DW_OP_deref] $sp
	@DEBUG_VALUE: mbedtls_x509_crt_parse:total_failed <- [DW_OP_plus_uconst 36] [$sp+0]
	@DEBUG_VALUE: mbedtls_x509_crt_parse:first_error <- [DW_OP_plus_uconst 32] [$sp+0]
	@DEBUG_VALUE: mbedtls_x509_crt_parse:success <- [DW_OP_plus_uconst 16] [$sp+0]
	add	r0, sp, #48
.Ltmp77:
	.loc	3 1230 17 is_stmt 1             @ ../../../ThirdParty/mbedTLS/library/x509_crt.c:1230:17
	bl	mbedtls_pem_free
	ldr	r0, [sp, #32]                   @ 4-byte Reload
	.loc	3 1238 21                       @ ../../../ThirdParty/mbedTLS/library/x509_crt.c:1238:21
	cbz	r0, .LBB3_19
.Ltmp78:
@ %bb.18:                               @   in Loop: Header=BB3_9 Depth=1
	@DEBUG_VALUE: mbedtls_x509_crt_parse:chain <- $r7
	@DEBUG_VALUE: mbedtls_x509_crt_parse:buf <- $r6
	@DEBUG_VALUE: mbedtls_x509_crt_parse:buflen <- $r5
	@DEBUG_VALUE: ret <- $r4
	@DEBUG_VALUE: use_len <- [DW_OP_plus_uconst 44, DW_OP_deref] $sp
	@DEBUG_VALUE: mbedtls_x509_crt_parse:total_failed <- [DW_OP_plus_uconst 36] [$sp+0]
	@DEBUG_VALUE: mbedtls_x509_crt_parse:first_error <- [DW_OP_plus_uconst 32] [$sp+0]
	@DEBUG_VALUE: mbedtls_x509_crt_parse:success <- [DW_OP_plus_uconst 16] [$sp+0]
	mov	r4, r0
.Ltmp79:
.LBB3_19:                               @   in Loop: Header=BB3_9 Depth=1
	@DEBUG_VALUE: mbedtls_x509_crt_parse:chain <- $r7
	@DEBUG_VALUE: mbedtls_x509_crt_parse:buf <- $r6
	@DEBUG_VALUE: mbedtls_x509_crt_parse:buflen <- $r5
	@DEBUG_VALUE: use_len <- [DW_OP_plus_uconst 44, DW_OP_deref] $sp
	@DEBUG_VALUE: mbedtls_x509_crt_parse:total_failed <- [DW_OP_plus_uconst 36] [$sp+0]
	@DEBUG_VALUE: mbedtls_x509_crt_parse:first_error <- [DW_OP_plus_uconst 32] [$sp+0]
	@DEBUG_VALUE: mbedtls_x509_crt_parse:success <- [DW_OP_plus_uconst 16] [$sp+0]
	@DEBUG_VALUE: mbedtls_x509_crt_parse:first_error <- $r4
	.loc	3 1235 27                       @ ../../../ThirdParty/mbedTLS/library/x509_crt.c:1235:27
	ldr	r0, [sp, #44]
.Ltmp80:
	@DEBUG_VALUE: use_len <- $r0
	.loc	3 1236 21                       @ ../../../ThirdParty/mbedTLS/library/x509_crt.c:1236:21
	adds	r6, r6, r0
.Ltmp81:
	@DEBUG_VALUE: mbedtls_x509_crt_parse:buf <- $r6
	.loc	3 1235 24                       @ ../../../ThirdParty/mbedTLS/library/x509_crt.c:1235:24
	subs	r5, r5, r0
.Ltmp82:
	@DEBUG_VALUE: mbedtls_x509_crt_parse:buflen <- $r5
	.loc	3 1241 29                       @ ../../../ThirdParty/mbedTLS/library/x509_crt.c:1241:29
	ldr	r0, [sp, #36]                   @ 4-byte Reload
.Ltmp83:
	adds	r0, r0, #1
.Ltmp84:
	@DEBUG_VALUE: mbedtls_x509_crt_parse:total_failed <- $r0
	.loc	3 0 29 is_stmt 0                @ ../../../ThirdParty/mbedTLS/library/x509_crt.c:0:29
	str	r0, [sp, #36]                   @ 4-byte Spill
.Ltmp85:
	@DEBUG_VALUE: mbedtls_x509_crt_parse:total_failed <- [DW_OP_plus_uconst 36] [$sp+0]
	@DEBUG_VALUE: mbedtls_x509_crt_parse:total_failed <- [DW_OP_plus_uconst 36] [$sp+0]
	movs	r0, #2
.Ltmp86:
	str	r4, [sp, #32]                   @ 4-byte Spill
.Ltmp87:
	@DEBUG_VALUE: mbedtls_x509_crt_parse:first_error <- [DW_OP_plus_uconst 32] [$sp+0]
	@DEBUG_VALUE: mbedtls_x509_crt_parse:first_error <- [DW_OP_plus_uconst 32] [$sp+0]
	b	.LBB3_24
.Ltmp88:
.LBB3_20:                               @   in Loop: Header=BB3_9 Depth=1
	@DEBUG_VALUE: mbedtls_x509_crt_parse:chain <- $r7
	@DEBUG_VALUE: mbedtls_x509_crt_parse:buf <- $r6
	@DEBUG_VALUE: mbedtls_x509_crt_parse:buflen <- $r5
	@DEBUG_VALUE: use_len <- $r4
	@DEBUG_VALUE: ret <- $r1
	@DEBUG_VALUE: mbedtls_x509_crt_parse:total_failed <- [DW_OP_plus_uconst 36] [$sp+0]
	@DEBUG_VALUE: mbedtls_x509_crt_parse:first_error <- [DW_OP_plus_uconst 32] [$sp+0]
	@DEBUG_VALUE: mbedtls_x509_crt_parse:success <- [DW_OP_plus_uconst 16] [$sp+0]
	str	r1, [sp, #24]                   @ 4-byte Spill
	@DEBUG_VALUE: ret <- [DW_OP_plus_uconst 24] [$sp+0]
	ldr	r0, [sp, #20]                   @ 4-byte Reload
	b	.LBB3_24
.Ltmp89:
.LBB3_21:                               @   in Loop: Header=BB3_9 Depth=1
	@DEBUG_VALUE: mbedtls_x509_crt_parse:chain <- $r7
	@DEBUG_VALUE: mbedtls_x509_crt_parse:buf <- $r6
	@DEBUG_VALUE: mbedtls_x509_crt_parse:buflen <- $r5
	@DEBUG_VALUE: use_len <- $r4
	@DEBUG_VALUE: ret <- $r1
	@DEBUG_VALUE: mbedtls_x509_crt_parse:total_failed <- [DW_OP_plus_uconst 36] [$sp+0]
	@DEBUG_VALUE: mbedtls_x509_crt_parse:first_error <- [DW_OP_plus_uconst 32] [$sp+0]
	@DEBUG_VALUE: mbedtls_x509_crt_parse:success <- [DW_OP_plus_uconst 16] [$sp+0]
	ldr	r0, [sp, #32]                   @ 4-byte Reload
.Ltmp90:
	.loc	3 1259 21 is_stmt 1             @ ../../../ThirdParty/mbedTLS/library/x509_crt.c:1259:21
	cbz	r0, .LBB3_23
.Ltmp91:
@ %bb.22:                               @   in Loop: Header=BB3_9 Depth=1
	@DEBUG_VALUE: mbedtls_x509_crt_parse:chain <- $r7
	@DEBUG_VALUE: mbedtls_x509_crt_parse:buf <- $r6
	@DEBUG_VALUE: mbedtls_x509_crt_parse:buflen <- $r5
	@DEBUG_VALUE: use_len <- $r4
	@DEBUG_VALUE: ret <- $r1
	@DEBUG_VALUE: mbedtls_x509_crt_parse:total_failed <- [DW_OP_plus_uconst 36] [$sp+0]
	@DEBUG_VALUE: mbedtls_x509_crt_parse:first_error <- [DW_OP_plus_uconst 32] [$sp+0]
	@DEBUG_VALUE: mbedtls_x509_crt_parse:success <- [DW_OP_plus_uconst 16] [$sp+0]
	mov	r1, r0
.Ltmp92:
.LBB3_23:                               @   in Loop: Header=BB3_9 Depth=1
	@DEBUG_VALUE: mbedtls_x509_crt_parse:chain <- $r7
	@DEBUG_VALUE: mbedtls_x509_crt_parse:buf <- $r6
	@DEBUG_VALUE: mbedtls_x509_crt_parse:buflen <- $r5
	@DEBUG_VALUE: use_len <- $r4
	@DEBUG_VALUE: mbedtls_x509_crt_parse:total_failed <- [DW_OP_plus_uconst 36] [$sp+0]
	@DEBUG_VALUE: mbedtls_x509_crt_parse:first_error <- [DW_OP_plus_uconst 32] [$sp+0]
	@DEBUG_VALUE: mbedtls_x509_crt_parse:success <- [DW_OP_plus_uconst 16] [$sp+0]
	@DEBUG_VALUE: mbedtls_x509_crt_parse:first_error <- $r1
	.loc	3 1262 29                       @ ../../../ThirdParty/mbedTLS/library/x509_crt.c:1262:29
	ldr	r0, [sp, #36]                   @ 4-byte Reload
	adds	r0, r0, #1
.Ltmp93:
	@DEBUG_VALUE: mbedtls_x509_crt_parse:total_failed <- $r0
	.loc	3 0 29 is_stmt 0                @ ../../../ThirdParty/mbedTLS/library/x509_crt.c:0:29
	str	r0, [sp, #36]                   @ 4-byte Spill
.Ltmp94:
	@DEBUG_VALUE: mbedtls_x509_crt_parse:total_failed <- [DW_OP_plus_uconst 36] [$sp+0]
	@DEBUG_VALUE: mbedtls_x509_crt_parse:total_failed <- [DW_OP_plus_uconst 36] [$sp+0]
	movs	r0, #2
.Ltmp95:
	str	r1, [sp, #32]                   @ 4-byte Spill
.Ltmp96:
	@DEBUG_VALUE: mbedtls_x509_crt_parse:first_error <- [DW_OP_plus_uconst 32] [$sp+0]
	@DEBUG_VALUE: mbedtls_x509_crt_parse:first_error <- [DW_OP_plus_uconst 32] [$sp+0]
.LBB3_24:                               @   in Loop: Header=BB3_9 Depth=1
	@DEBUG_VALUE: mbedtls_x509_crt_parse:chain <- $r7
	@DEBUG_VALUE: mbedtls_x509_crt_parse:buf <- $r6
	@DEBUG_VALUE: mbedtls_x509_crt_parse:buflen <- $r5
	@DEBUG_VALUE: mbedtls_x509_crt_parse:total_failed <- [DW_OP_plus_uconst 36] [$sp+0]
	@DEBUG_VALUE: mbedtls_x509_crt_parse:first_error <- [DW_OP_plus_uconst 32] [$sp+0]
	@DEBUG_VALUE: mbedtls_x509_crt_parse:buf <- $r6
	@DEBUG_VALUE: mbedtls_x509_crt_parse:buflen <- $r5
	@DEBUG_VALUE: mbedtls_x509_crt_parse:success <- [DW_OP_plus_uconst 16] [$sp+0]
	@DEBUG_VALUE: mbedtls_x509_crt_parse:first_error <- [DW_OP_plus_uconst 32] [$sp+0]
	@DEBUG_VALUE: mbedtls_x509_crt_parse:total_failed <- [DW_OP_plus_uconst 36] [$sp+0]
	movs	r1, #0
	cmp	r0, #0
	beq	.LBB3_8
.Ltmp97:
@ %bb.25:                               @   in Loop: Header=BB3_9 Depth=1
	@DEBUG_VALUE: mbedtls_x509_crt_parse:chain <- $r7
	@DEBUG_VALUE: mbedtls_x509_crt_parse:buf <- $r6
	@DEBUG_VALUE: mbedtls_x509_crt_parse:buflen <- $r5
	@DEBUG_VALUE: mbedtls_x509_crt_parse:total_failed <- [DW_OP_plus_uconst 36] [$sp+0]
	@DEBUG_VALUE: mbedtls_x509_crt_parse:first_error <- [DW_OP_plus_uconst 32] [$sp+0]
	@DEBUG_VALUE: mbedtls_x509_crt_parse:success <- [DW_OP_plus_uconst 16] [$sp+0]
	cmp	r0, #2
	beq	.LBB3_8
.Ltmp98:
@ %bb.26:
	@DEBUG_VALUE: mbedtls_x509_crt_parse:chain <- $r7
	@DEBUG_VALUE: mbedtls_x509_crt_parse:buf <- $r6
	@DEBUG_VALUE: mbedtls_x509_crt_parse:buflen <- $r5
	@DEBUG_VALUE: mbedtls_x509_crt_parse:total_failed <- [DW_OP_plus_uconst 36] [$sp+0]
	@DEBUG_VALUE: mbedtls_x509_crt_parse:first_error <- [DW_OP_plus_uconst 32] [$sp+0]
	@DEBUG_VALUE: mbedtls_x509_crt_parse:success <- [DW_OP_plus_uconst 16] [$sp+0]
	cmp	r0, #3
	beq	.LBB3_29
.Ltmp99:
@ %bb.27:
	@DEBUG_VALUE: mbedtls_x509_crt_parse:chain <- $r7
	@DEBUG_VALUE: mbedtls_x509_crt_parse:buf <- $r6
	@DEBUG_VALUE: mbedtls_x509_crt_parse:buflen <- $r5
	@DEBUG_VALUE: mbedtls_x509_crt_parse:total_failed <- [DW_OP_plus_uconst 36] [$sp+0]
	@DEBUG_VALUE: mbedtls_x509_crt_parse:first_error <- [DW_OP_plus_uconst 32] [$sp+0]
	@DEBUG_VALUE: mbedtls_x509_crt_parse:success <- [DW_OP_plus_uconst 16] [$sp+0]
	mov	r1, r0
	b	.LBB3_29
.Ltmp100:
.LBB3_28:
	@DEBUG_VALUE: mbedtls_x509_crt_parse:chain <- $r7
	@DEBUG_VALUE: mbedtls_x509_crt_parse:buflen <- $r5
	@DEBUG_VALUE: mbedtls_x509_crt_parse:success <- 0
	@DEBUG_VALUE: mbedtls_x509_crt_parse:first_error <- 0
	@DEBUG_VALUE: mbedtls_x509_crt_parse:total_failed <- 0
	movs	r1, #0
                                        @ implicit-def: $r0
                                        @ kill: killed $r0
	.loc	3 1171 22 is_stmt 1             @ ../../../ThirdParty/mbedTLS/library/x509_crt.c:1171:22
	str	r1, [sp, #32]                   @ 4-byte Spill
	.loc	3 1171 39 is_stmt 0             @ ../../../ThirdParty/mbedTLS/library/x509_crt.c:1171:39
	str	r1, [sp, #36]                   @ 4-byte Spill
	str	r1, [sp, #16]                   @ 4-byte Spill
.Ltmp101:
.LBB3_29:
	@DEBUG_VALUE: mbedtls_x509_crt_parse:chain <- $r7
	@DEBUG_VALUE: mbedtls_x509_crt_parse:buflen <- $r5
	@DEBUG_VALUE: mbedtls_x509_crt_parse:success <- [DW_OP_plus_uconst 16] [$sp+0]
	@DEBUG_VALUE: mbedtls_x509_crt_parse:first_error <- [DW_OP_plus_uconst 32] [$sp+0]
	@DEBUG_VALUE: mbedtls_x509_crt_parse:total_failed <- [DW_OP_plus_uconst 36] [$sp+0]
	.loc	3 0 39                          @ ../../../ThirdParty/mbedTLS/library/x509_crt.c:0:39
	ldr	r0, [sp, #24]                   @ 4-byte Reload
	cbnz	r1, .LBB3_33
.Ltmp102:
@ %bb.30:
	@DEBUG_VALUE: mbedtls_x509_crt_parse:chain <- $r7
	@DEBUG_VALUE: mbedtls_x509_crt_parse:buflen <- $r5
	@DEBUG_VALUE: mbedtls_x509_crt_parse:total_failed <- [DW_OP_plus_uconst 36] [$sp+0]
	@DEBUG_VALUE: mbedtls_x509_crt_parse:first_error <- [DW_OP_plus_uconst 32] [$sp+0]
	@DEBUG_VALUE: mbedtls_x509_crt_parse:success <- [DW_OP_plus_uconst 16] [$sp+0]
	@DEBUG_VALUE: mbedtls_x509_crt_parse:success <- [DW_OP_plus_uconst 16] [$sp+0]
	@DEBUG_VALUE: mbedtls_x509_crt_parse:first_error <- [DW_OP_plus_uconst 32] [$sp+0]
	@DEBUG_VALUE: mbedtls_x509_crt_parse:total_failed <- [DW_OP_plus_uconst 36] [$sp+0]
	.loc	3 1270 9 is_stmt 1              @ ../../../ThirdParty/mbedTLS/library/x509_crt.c:1270:9
	ldr	r0, [sp, #16]                   @ 4-byte Reload
.Ltmp103:
	@DEBUG_VALUE: mbedtls_x509_crt_parse:success <- $r0
	cmp	r0, #0
	.loc	3 0 0 is_stmt 0                 @ ../../../ThirdParty/mbedTLS/library/x509_crt.c:0:0
	ldr	r0, [sp, #36]                   @ 4-byte Reload
.Ltmp104:
	@DEBUG_VALUE: mbedtls_x509_crt_parse:total_failed <- $r0
	.loc	3 1270 9                        @ ../../../ThirdParty/mbedTLS/library/x509_crt.c:1270:9
	bne	.LBB3_33
.Ltmp105:
@ %bb.31:
	@DEBUG_VALUE: mbedtls_x509_crt_parse:chain <- $r7
	@DEBUG_VALUE: mbedtls_x509_crt_parse:buflen <- $r5
	@DEBUG_VALUE: mbedtls_x509_crt_parse:total_failed <- $r0
	@DEBUG_VALUE: mbedtls_x509_crt_parse:first_error <- [DW_OP_plus_uconst 32] [$sp+0]
	.loc	3 0 9                           @ ../../../ThirdParty/mbedTLS/library/x509_crt.c:0:9
	ldr	r0, [sp, #32]                   @ 4-byte Reload
.Ltmp106:
	.loc	3 1272 14 is_stmt 1             @ ../../../ThirdParty/mbedTLS/library/x509_crt.c:1272:14
	cbnz	r0, .LBB3_33
.Ltmp107:
@ %bb.32:
	@DEBUG_VALUE: mbedtls_x509_crt_parse:chain <- $r7
	@DEBUG_VALUE: mbedtls_x509_crt_parse:buflen <- $r5
	@DEBUG_VALUE: mbedtls_x509_crt_parse:first_error <- [DW_OP_plus_uconst 32] [$sp+0]
	.loc	3 0 14 is_stmt 0                @ ../../../ThirdParty/mbedTLS/library/x509_crt.c:0:14
	ldr	r0, __arm_cp.3_0
	adds	r0, #128
.Ltmp108:
.LBB3_33:
	@DEBUG_VALUE: mbedtls_x509_crt_parse:chain <- $r7
	add	sp, #60
	pop	{r4, r5, r6, r7, pc}
.Ltmp109:
	.p2align	2
@ %bb.34:
__arm_cp.3_0:
	.long	4294957056                      @ 0xffffd800
.Lcpi_end1:
	.size	__arm_cp.3_0, .Lcpi_end1-__arm_cp.3_0
__arm_cp.3_1:
	.long	.L.str
.Lcpi_end2:
	.size	__arm_cp.3_1, .Lcpi_end2-__arm_cp.3_1
.LCPI3_2:
.L.str.1:
	.asciz	"-----END CERTIFICATE-----\000\000"
__arm_cp.3_3:
	.long	4294962048                      @ 0xffffeb80
.Lcpi_end3:
	.size	__arm_cp.3_3, .Lcpi_end3-__arm_cp.3_3
__arm_cp.3_4:
	.long	4294963072                      @ 0xffffef80
.Lcpi_end4:
	.size	__arm_cp.3_4, .Lcpi_end4-__arm_cp.3_4
__arm_cp.3_5:
	.long	4294956928                      @ 0xffffd780
.Lcpi_end5:
	.size	__arm_cp.3_5, .Lcpi_end5-__arm_cp.3_5
.Lfunc_end3:
	.size	mbedtls_x509_crt_parse, .Lfunc_end3-mbedtls_x509_crt_parse
	.cfi_endproc
	.cantunwind
	.fnend
                                        @ -- End function
	.section	.text.mbedtls_x509_crt_info,"ax",%progbits
	.hidden	mbedtls_x509_crt_info           @ -- Begin function mbedtls_x509_crt_info
	.globl	mbedtls_x509_crt_info
	.p2align	2
	.type	mbedtls_x509_crt_info,%function
	.code	16                              @ @mbedtls_x509_crt_info
	.thumb_func
mbedtls_x509_crt_info:
.Lfunc_begin4:
	.loc	3 1562 0 is_stmt 1              @ ../../../ThirdParty/mbedTLS/library/x509_crt.c:1562:0
	.fnstart
	.cfi_startproc
@ %bb.0:
	@DEBUG_VALUE: mbedtls_x509_crt_info:buf <- $r0
	@DEBUG_VALUE: mbedtls_x509_crt_info:size <- $r1
	@DEBUG_VALUE: mbedtls_x509_crt_info:prefix <- $r2
	@DEBUG_VALUE: mbedtls_x509_crt_info:crt <- $r3
	.save	{r4, r5, r6, r7, lr}
	push	{r4, r5, r6, r7, lr}
	.cfi_def_cfa_offset 20
	.cfi_offset lr, -4
	.cfi_offset r7, -8
	.cfi_offset r6, -12
	.cfi_offset r5, -16
	.cfi_offset r4, -20
	.pad	#76
	sub	sp, #76
	.cfi_def_cfa_offset 96
	mov	r4, r1
.Ltmp110:
	@DEBUG_VALUE: mbedtls_x509_crt_info:n <- $r4
	@DEBUG_VALUE: mbedtls_x509_crt_info:crt <- $r3
	@DEBUG_VALUE: mbedtls_x509_crt_info:prefix <- $r2
	@DEBUG_VALUE: mbedtls_x509_crt_info:size <- $r4
	@DEBUG_VALUE: mbedtls_x509_crt_info:buf <- $r0
	.loc	3 1569 7 prologue_end           @ ../../../ThirdParty/mbedTLS/library/x509_crt.c:1569:7
	str	r1, [sp, #72]
.Ltmp111:
	@DEBUG_VALUE: mbedtls_x509_crt_info:p <- $r0
	.loc	3 1568 7                        @ ../../../ThirdParty/mbedTLS/library/x509_crt.c:1568:7
	str	r0, [sp, #68]
	ldr	r7, __arm_cp.4_19
	.loc	3 1571 9                        @ ../../../ThirdParty/mbedTLS/library/x509_crt.c:1571:9
	cmp	r3, #0
	bne	.LBB4_1
	b	.LBB4_34
.Ltmp112:
.LBB4_1:
	@DEBUG_VALUE: mbedtls_x509_crt_info:size <- $r4
	@DEBUG_VALUE: mbedtls_x509_crt_info:n <- $r4
	@DEBUG_VALUE: mbedtls_x509_crt_info:crt <- $r3
	@DEBUG_VALUE: mbedtls_x509_crt_info:prefix <- $r2
	@DEBUG_VALUE: mbedtls_x509_crt_info:p <- $r0
	@DEBUG_VALUE: mbedtls_x509_crt_info:buf <- $r0
	.loc	3 0 9 is_stmt 0                 @ ../../../ThirdParty/mbedTLS/library/x509_crt.c:0:9
	mov	r5, r3
.Ltmp113:
	@DEBUG_VALUE: mbedtls_x509_crt_info:crt <- $r5
	mov	r6, r2
.Ltmp114:
	@DEBUG_VALUE: mbedtls_x509_crt_info:prefix <- $r6
	.loc	3 1580 42 is_stmt 1             @ ../../../ThirdParty/mbedTLS/library/x509_crt.c:1580:42
	ldr	r1, [r3, #28]
	.loc	3 1579 11                       @ ../../../ThirdParty/mbedTLS/library/x509_crt.c:1579:11
	str	r1, [sp]
	adr	r2, .LCPI4_1
	mov	r1, r4
	mov	r3, r6
	bl	__2snprintf
.Ltmp115:
	@DEBUG_VALUE: mbedtls_x509_crt_info:buf <- [DW_OP_LLVM_entry_value 1] $r0
	@DEBUG_VALUE: mbedtls_x509_crt_info:ret <- $r0
	.loc	3 1581 5                        @ ../../../ThirdParty/mbedTLS/library/x509_crt.c:1581:5
	cmp	r0, #0
	bpl	.LBB4_2
	b	.LBB4_60
.Ltmp116:
.LBB4_2:
	@DEBUG_VALUE: mbedtls_x509_crt_info:prefix <- $r6
	@DEBUG_VALUE: mbedtls_x509_crt_info:crt <- $r5
	@DEBUG_VALUE: mbedtls_x509_crt_info:size <- $r4
	@DEBUG_VALUE: mbedtls_x509_crt_info:n <- $r4
	@DEBUG_VALUE: mbedtls_x509_crt_info:ret <- $r0
	@DEBUG_VALUE: mbedtls_x509_crt_info:buf <- [DW_OP_LLVM_entry_value 1] $r0
	ldr	r1, [sp, #72]
.Ltmp117:
	@DEBUG_VALUE: mbedtls_x509_crt_info:n <- $r1
	.loc	3 1581 5 is_stmt 0              @ ../../../ThirdParty/mbedTLS/library/x509_crt.c:1581:5
	cmp	r1, r0
	bhi	.LBB4_3
	b	.LBB4_60
.Ltmp118:
.LBB4_3:
	@DEBUG_VALUE: mbedtls_x509_crt_info:prefix <- $r6
	@DEBUG_VALUE: mbedtls_x509_crt_info:crt <- $r5
	@DEBUG_VALUE: mbedtls_x509_crt_info:size <- $r4
	@DEBUG_VALUE: mbedtls_x509_crt_info:n <- $r1
	@DEBUG_VALUE: mbedtls_x509_crt_info:ret <- $r0
	@DEBUG_VALUE: mbedtls_x509_crt_info:buf <- [DW_OP_LLVM_entry_value 1] $r0
	subs	r1, r1, r0
.Ltmp119:
	@DEBUG_VALUE: mbedtls_x509_crt_info:n <- $r1
	str	r1, [sp, #72]
	ldr	r2, [sp, #68]
.Ltmp120:
	@DEBUG_VALUE: mbedtls_x509_crt_info:p <- $r2
	adds	r0, r2, r0
.Ltmp121:
	@DEBUG_VALUE: mbedtls_x509_crt_info:p <- $r0
	str	r0, [sp, #68]
.Ltmp122:
	.loc	3 1582 11 is_stmt 1             @ ../../../ThirdParty/mbedTLS/library/x509_crt.c:1582:11
	adr	r2, .LCPI4_2
	mov	r3, r6
	bl	__2snprintf
.Ltmp123:
	@DEBUG_VALUE: mbedtls_x509_crt_info:ret <- $r0
	.loc	3 1584 5                        @ ../../../ThirdParty/mbedTLS/library/x509_crt.c:1584:5
	cmp	r0, #0
	bpl	.LBB4_4
	b	.LBB4_60
.Ltmp124:
.LBB4_4:
	@DEBUG_VALUE: mbedtls_x509_crt_info:prefix <- $r6
	@DEBUG_VALUE: mbedtls_x509_crt_info:crt <- $r5
	@DEBUG_VALUE: mbedtls_x509_crt_info:size <- $r4
	@DEBUG_VALUE: mbedtls_x509_crt_info:ret <- $r0
	@DEBUG_VALUE: mbedtls_x509_crt_info:buf <- [DW_OP_LLVM_entry_value 1] $r0
	ldr	r1, [sp, #72]
.Ltmp125:
	@DEBUG_VALUE: mbedtls_x509_crt_info:n <- $r1
	.loc	3 1584 5 is_stmt 0              @ ../../../ThirdParty/mbedTLS/library/x509_crt.c:1584:5
	cmp	r1, r0
	bhi	.LBB4_5
	b	.LBB4_60
.Ltmp126:
.LBB4_5:
	@DEBUG_VALUE: mbedtls_x509_crt_info:prefix <- $r6
	@DEBUG_VALUE: mbedtls_x509_crt_info:crt <- $r5
	@DEBUG_VALUE: mbedtls_x509_crt_info:size <- $r4
	@DEBUG_VALUE: mbedtls_x509_crt_info:n <- $r1
	@DEBUG_VALUE: mbedtls_x509_crt_info:ret <- $r0
	@DEBUG_VALUE: mbedtls_x509_crt_info:buf <- [DW_OP_LLVM_entry_value 1] $r0
	subs	r1, r1, r0
.Ltmp127:
	@DEBUG_VALUE: mbedtls_x509_crt_info:n <- $r1
	str	r1, [sp, #72]
	ldr	r2, [sp, #68]
.Ltmp128:
	@DEBUG_VALUE: mbedtls_x509_crt_info:p <- $r2
	adds	r0, r2, r0
.Ltmp129:
	@DEBUG_VALUE: mbedtls_x509_crt_info:p <- $r0
	str	r0, [sp, #68]
.Ltmp130:
	.loc	3 1586 49 is_stmt 1             @ ../../../ThirdParty/mbedTLS/library/x509_crt.c:1586:49
	mov	r2, r5
	adds	r2, #32
	.loc	3 1586 11 is_stmt 0             @ ../../../ThirdParty/mbedTLS/library/x509_crt.c:1586:11
	bl	mbedtls_x509_serial_gets
.Ltmp131:
	@DEBUG_VALUE: mbedtls_x509_crt_info:ret <- $r0
	.loc	3 1587 5 is_stmt 1              @ ../../../ThirdParty/mbedTLS/library/x509_crt.c:1587:5
	cmp	r0, #0
	bpl	.LBB4_6
	b	.LBB4_60
.Ltmp132:
.LBB4_6:
	@DEBUG_VALUE: mbedtls_x509_crt_info:prefix <- $r6
	@DEBUG_VALUE: mbedtls_x509_crt_info:crt <- $r5
	@DEBUG_VALUE: mbedtls_x509_crt_info:size <- $r4
	@DEBUG_VALUE: mbedtls_x509_crt_info:ret <- $r0
	@DEBUG_VALUE: mbedtls_x509_crt_info:buf <- [DW_OP_LLVM_entry_value 1] $r0
	ldr	r1, [sp, #72]
.Ltmp133:
	@DEBUG_VALUE: mbedtls_x509_crt_info:n <- $r1
	.loc	3 1587 5 is_stmt 0              @ ../../../ThirdParty/mbedTLS/library/x509_crt.c:1587:5
	cmp	r1, r0
	bhi	.LBB4_7
	b	.LBB4_60
.Ltmp134:
.LBB4_7:
	@DEBUG_VALUE: mbedtls_x509_crt_info:prefix <- $r6
	@DEBUG_VALUE: mbedtls_x509_crt_info:crt <- $r5
	@DEBUG_VALUE: mbedtls_x509_crt_info:size <- $r4
	@DEBUG_VALUE: mbedtls_x509_crt_info:n <- $r1
	@DEBUG_VALUE: mbedtls_x509_crt_info:ret <- $r0
	@DEBUG_VALUE: mbedtls_x509_crt_info:buf <- [DW_OP_LLVM_entry_value 1] $r0
	subs	r1, r1, r0
.Ltmp135:
	@DEBUG_VALUE: mbedtls_x509_crt_info:n <- $r1
	str	r1, [sp, #72]
	ldr	r2, [sp, #68]
.Ltmp136:
	@DEBUG_VALUE: mbedtls_x509_crt_info:p <- $r2
	adds	r0, r2, r0
.Ltmp137:
	@DEBUG_VALUE: mbedtls_x509_crt_info:p <- $r0
	str	r0, [sp, #68]
.Ltmp138:
	.loc	3 1589 11 is_stmt 1             @ ../../../ThirdParty/mbedTLS/library/x509_crt.c:1589:11
	adr	r2, .LCPI4_3
	mov	r3, r6
	bl	__2snprintf
.Ltmp139:
	@DEBUG_VALUE: mbedtls_x509_crt_info:ret <- $r0
	.loc	3 1590 5                        @ ../../../ThirdParty/mbedTLS/library/x509_crt.c:1590:5
	cmp	r0, #0
	bpl	.LBB4_8
	b	.LBB4_60
.Ltmp140:
.LBB4_8:
	@DEBUG_VALUE: mbedtls_x509_crt_info:prefix <- $r6
	@DEBUG_VALUE: mbedtls_x509_crt_info:crt <- $r5
	@DEBUG_VALUE: mbedtls_x509_crt_info:size <- $r4
	@DEBUG_VALUE: mbedtls_x509_crt_info:ret <- $r0
	@DEBUG_VALUE: mbedtls_x509_crt_info:buf <- [DW_OP_LLVM_entry_value 1] $r0
	ldr	r1, [sp, #72]
.Ltmp141:
	@DEBUG_VALUE: mbedtls_x509_crt_info:n <- $r1
	.loc	3 1590 5 is_stmt 0              @ ../../../ThirdParty/mbedTLS/library/x509_crt.c:1590:5
	cmp	r1, r0
	bhi	.LBB4_9
	b	.LBB4_60
.Ltmp142:
.LBB4_9:
	@DEBUG_VALUE: mbedtls_x509_crt_info:prefix <- $r6
	@DEBUG_VALUE: mbedtls_x509_crt_info:crt <- $r5
	@DEBUG_VALUE: mbedtls_x509_crt_info:size <- $r4
	@DEBUG_VALUE: mbedtls_x509_crt_info:n <- $r1
	@DEBUG_VALUE: mbedtls_x509_crt_info:ret <- $r0
	@DEBUG_VALUE: mbedtls_x509_crt_info:buf <- [DW_OP_LLVM_entry_value 1] $r0
	subs	r1, r1, r0
.Ltmp143:
	@DEBUG_VALUE: mbedtls_x509_crt_info:n <- $r1
	str	r1, [sp, #72]
	ldr	r2, [sp, #68]
.Ltmp144:
	@DEBUG_VALUE: mbedtls_x509_crt_info:p <- $r2
	adds	r0, r2, r0
.Ltmp145:
	@DEBUG_VALUE: mbedtls_x509_crt_info:p <- $r0
	str	r0, [sp, #68]
.Ltmp146:
	.loc	3 1591 45 is_stmt 1             @ ../../../ThirdParty/mbedTLS/library/x509_crt.c:1591:45
	mov	r2, r5
	adds	r2, #80
	.loc	3 1591 11 is_stmt 0             @ ../../../ThirdParty/mbedTLS/library/x509_crt.c:1591:11
	bl	mbedtls_x509_dn_gets
.Ltmp147:
	@DEBUG_VALUE: mbedtls_x509_crt_info:ret <- $r0
	.loc	3 1592 5 is_stmt 1              @ ../../../ThirdParty/mbedTLS/library/x509_crt.c:1592:5
	cmp	r0, #0
	bpl	.LBB4_10
	b	.LBB4_60
.Ltmp148:
.LBB4_10:
	@DEBUG_VALUE: mbedtls_x509_crt_info:prefix <- $r6
	@DEBUG_VALUE: mbedtls_x509_crt_info:crt <- $r5
	@DEBUG_VALUE: mbedtls_x509_crt_info:size <- $r4
	@DEBUG_VALUE: mbedtls_x509_crt_info:ret <- $r0
	@DEBUG_VALUE: mbedtls_x509_crt_info:buf <- [DW_OP_LLVM_entry_value 1] $r0
	ldr	r1, [sp, #72]
.Ltmp149:
	@DEBUG_VALUE: mbedtls_x509_crt_info:n <- $r1
	.loc	3 1592 5 is_stmt 0              @ ../../../ThirdParty/mbedTLS/library/x509_crt.c:1592:5
	cmp	r1, r0
	bhi	.LBB4_11
	b	.LBB4_60
.Ltmp150:
.LBB4_11:
	@DEBUG_VALUE: mbedtls_x509_crt_info:prefix <- $r6
	@DEBUG_VALUE: mbedtls_x509_crt_info:crt <- $r5
	@DEBUG_VALUE: mbedtls_x509_crt_info:size <- $r4
	@DEBUG_VALUE: mbedtls_x509_crt_info:n <- $r1
	@DEBUG_VALUE: mbedtls_x509_crt_info:ret <- $r0
	@DEBUG_VALUE: mbedtls_x509_crt_info:buf <- [DW_OP_LLVM_entry_value 1] $r0
	subs	r1, r1, r0
.Ltmp151:
	@DEBUG_VALUE: mbedtls_x509_crt_info:n <- $r1
	str	r1, [sp, #72]
	ldr	r2, [sp, #68]
.Ltmp152:
	@DEBUG_VALUE: mbedtls_x509_crt_info:p <- $r2
	adds	r0, r2, r0
.Ltmp153:
	@DEBUG_VALUE: mbedtls_x509_crt_info:p <- $r0
	str	r0, [sp, #68]
.Ltmp154:
	.loc	3 1594 11 is_stmt 1             @ ../../../ThirdParty/mbedTLS/library/x509_crt.c:1594:11
	adr	r2, .LCPI4_4
	mov	r3, r6
	bl	__2snprintf
.Ltmp155:
	@DEBUG_VALUE: mbedtls_x509_crt_info:ret <- $r0
	.loc	3 1595 5                        @ ../../../ThirdParty/mbedTLS/library/x509_crt.c:1595:5
	cmp	r0, #0
	bpl	.LBB4_12
	b	.LBB4_60
.Ltmp156:
.LBB4_12:
	@DEBUG_VALUE: mbedtls_x509_crt_info:prefix <- $r6
	@DEBUG_VALUE: mbedtls_x509_crt_info:crt <- $r5
	@DEBUG_VALUE: mbedtls_x509_crt_info:size <- $r4
	@DEBUG_VALUE: mbedtls_x509_crt_info:ret <- $r0
	@DEBUG_VALUE: mbedtls_x509_crt_info:buf <- [DW_OP_LLVM_entry_value 1] $r0
	ldr	r1, [sp, #72]
.Ltmp157:
	@DEBUG_VALUE: mbedtls_x509_crt_info:n <- $r1
	.loc	3 1595 5 is_stmt 0              @ ../../../ThirdParty/mbedTLS/library/x509_crt.c:1595:5
	cmp	r1, r0
	bhi	.LBB4_13
	b	.LBB4_60
.Ltmp158:
.LBB4_13:
	@DEBUG_VALUE: mbedtls_x509_crt_info:prefix <- $r6
	@DEBUG_VALUE: mbedtls_x509_crt_info:crt <- $r5
	@DEBUG_VALUE: mbedtls_x509_crt_info:size <- $r4
	@DEBUG_VALUE: mbedtls_x509_crt_info:n <- $r1
	@DEBUG_VALUE: mbedtls_x509_crt_info:ret <- $r0
	@DEBUG_VALUE: mbedtls_x509_crt_info:buf <- [DW_OP_LLVM_entry_value 1] $r0
	subs	r1, r1, r0
.Ltmp159:
	@DEBUG_VALUE: mbedtls_x509_crt_info:n <- $r1
	str	r1, [sp, #72]
	ldr	r2, [sp, #68]
.Ltmp160:
	@DEBUG_VALUE: mbedtls_x509_crt_info:p <- $r2
	adds	r0, r2, r0
.Ltmp161:
	@DEBUG_VALUE: mbedtls_x509_crt_info:p <- $r0
	str	r0, [sp, #68]
.Ltmp162:
	.loc	3 1596 45 is_stmt 1             @ ../../../ThirdParty/mbedTLS/library/x509_crt.c:1596:45
	mov	r2, r5
	adds	r2, #112
	.loc	3 1596 11 is_stmt 0             @ ../../../ThirdParty/mbedTLS/library/x509_crt.c:1596:11
	bl	mbedtls_x509_dn_gets
.Ltmp163:
	@DEBUG_VALUE: mbedtls_x509_crt_info:ret <- $r0
	.loc	3 1597 5 is_stmt 1              @ ../../../ThirdParty/mbedTLS/library/x509_crt.c:1597:5
	cmp	r0, #0
	bpl	.LBB4_14
	b	.LBB4_60
.Ltmp164:
.LBB4_14:
	@DEBUG_VALUE: mbedtls_x509_crt_info:prefix <- $r6
	@DEBUG_VALUE: mbedtls_x509_crt_info:crt <- $r5
	@DEBUG_VALUE: mbedtls_x509_crt_info:size <- $r4
	@DEBUG_VALUE: mbedtls_x509_crt_info:ret <- $r0
	@DEBUG_VALUE: mbedtls_x509_crt_info:buf <- [DW_OP_LLVM_entry_value 1] $r0
	ldr	r2, [sp, #72]
.Ltmp165:
	@DEBUG_VALUE: mbedtls_x509_crt_info:n <- $r2
	.loc	3 1597 5 is_stmt 0              @ ../../../ThirdParty/mbedTLS/library/x509_crt.c:1597:5
	cmp	r2, r0
	bhi	.LBB4_15
	b	.LBB4_60
.Ltmp166:
.LBB4_15:
	@DEBUG_VALUE: mbedtls_x509_crt_info:prefix <- $r6
	@DEBUG_VALUE: mbedtls_x509_crt_info:crt <- $r5
	@DEBUG_VALUE: mbedtls_x509_crt_info:size <- $r4
	@DEBUG_VALUE: mbedtls_x509_crt_info:n <- $r2
	@DEBUG_VALUE: mbedtls_x509_crt_info:ret <- $r0
	@DEBUG_VALUE: mbedtls_x509_crt_info:buf <- [DW_OP_LLVM_entry_value 1] $r0
	.loc	3 0 5                           @ ../../../ThirdParty/mbedTLS/library/x509_crt.c:0:5
	mov	r1, r5
	adds	r1, #144
	.loc	3 1597 5                        @ ../../../ThirdParty/mbedTLS/library/x509_crt.c:1597:5
	subs	r3, r2, r0
.Ltmp167:
	@DEBUG_VALUE: mbedtls_x509_crt_info:n <- $r3
	str	r3, [sp, #72]
	ldr	r2, [sp, #68]
.Ltmp168:
	@DEBUG_VALUE: mbedtls_x509_crt_info:p <- $r2
	adds	r0, r2, r0
.Ltmp169:
	@DEBUG_VALUE: mbedtls_x509_crt_info:p <- $r0
	str	r0, [sp, #68]
.Ltmp170:
	.loc	3 1601 45 is_stmt 1             @ ../../../ThirdParty/mbedTLS/library/x509_crt.c:1601:45
	ldr	r2, [r1]
	.loc	3 1601 67 is_stmt 0             @ ../../../ThirdParty/mbedTLS/library/x509_crt.c:1601:67
	str	r2, [sp, #40]                   @ 4-byte Spill
	ldr	r2, [r1, #4]
	.loc	3 1602 45 is_stmt 1             @ ../../../ThirdParty/mbedTLS/library/x509_crt.c:1602:45
	str	r2, [sp, #44]                   @ 4-byte Spill
	ldr	r2, [r1, #8]
	.loc	3 1602 67 is_stmt 0             @ ../../../ThirdParty/mbedTLS/library/x509_crt.c:1602:67
	str	r2, [sp, #32]                   @ 4-byte Spill
	ldr	r2, [r1, #12]
	.loc	3 1603 45 is_stmt 1             @ ../../../ThirdParty/mbedTLS/library/x509_crt.c:1603:45
	str	r2, [sp, #36]                   @ 4-byte Spill
	ldr	r2, [r1, #16]
	str	r1, [sp, #24]                   @ 4-byte Spill
	.loc	3 1603 67 is_stmt 0             @ ../../../ThirdParty/mbedTLS/library/x509_crt.c:1603:67
	ldr	r1, [r1, #20]
	.loc	3 1599 11 is_stmt 1             @ ../../../ThirdParty/mbedTLS/library/x509_crt.c:1599:11
	str	r1, [sp, #28]                   @ 4-byte Spill
	ldr	r1, [sp, #40]                   @ 4-byte Reload
	str	r1, [sp]
	ldr	r1, [sp, #44]                   @ 4-byte Reload
	str	r1, [sp, #4]
	ldr	r1, [sp, #32]                   @ 4-byte Reload
	str	r1, [sp, #8]
	ldr	r1, [sp, #36]                   @ 4-byte Reload
	str	r1, [sp, #12]
	str	r2, [sp, #16]
	ldr	r1, [sp, #28]                   @ 4-byte Reload
	str	r1, [sp, #20]
	ldr	r2, __arm_cp.4_5
	mov	r1, r3
	mov	r3, r6
.Ltmp171:
	bl	__2snprintf
.Ltmp172:
	@DEBUG_VALUE: mbedtls_x509_crt_info:ret <- $r0
	.loc	3 1604 5                        @ ../../../ThirdParty/mbedTLS/library/x509_crt.c:1604:5
	cmp	r0, #0
	bpl	.LBB4_16
	b	.LBB4_60
.Ltmp173:
.LBB4_16:
	@DEBUG_VALUE: mbedtls_x509_crt_info:prefix <- $r6
	@DEBUG_VALUE: mbedtls_x509_crt_info:crt <- $r5
	@DEBUG_VALUE: mbedtls_x509_crt_info:size <- $r4
	@DEBUG_VALUE: mbedtls_x509_crt_info:ret <- $r0
	@DEBUG_VALUE: mbedtls_x509_crt_info:buf <- [DW_OP_LLVM_entry_value 1] $r0
	ldr	r1, [sp, #72]
.Ltmp174:
	@DEBUG_VALUE: mbedtls_x509_crt_info:n <- $r1
	.loc	3 1604 5 is_stmt 0              @ ../../../ThirdParty/mbedTLS/library/x509_crt.c:1604:5
	cmp	r1, r0
	bhi	.LBB4_17
	b	.LBB4_60
.Ltmp175:
.LBB4_17:
	@DEBUG_VALUE: mbedtls_x509_crt_info:prefix <- $r6
	@DEBUG_VALUE: mbedtls_x509_crt_info:crt <- $r5
	@DEBUG_VALUE: mbedtls_x509_crt_info:size <- $r4
	@DEBUG_VALUE: mbedtls_x509_crt_info:n <- $r1
	@DEBUG_VALUE: mbedtls_x509_crt_info:ret <- $r0
	@DEBUG_VALUE: mbedtls_x509_crt_info:buf <- [DW_OP_LLVM_entry_value 1] $r0
	subs	r3, r1, r0
.Ltmp176:
	@DEBUG_VALUE: mbedtls_x509_crt_info:n <- $r3
	str	r3, [sp, #72]
	ldr	r2, [sp, #68]
.Ltmp177:
	@DEBUG_VALUE: mbedtls_x509_crt_info:p <- $r2
	adds	r1, r2, r0
.Ltmp178:
	@DEBUG_VALUE: mbedtls_x509_crt_info:p <- $r1
	str	r1, [sp, #68]
	ldr	r0, [sp, #24]                   @ 4-byte Reload
.Ltmp179:
	.loc	3 1608 43 is_stmt 1             @ ../../../ThirdParty/mbedTLS/library/x509_crt.c:1608:43
	ldr	r2, [r0, #24]
	.loc	3 1608 63 is_stmt 0             @ ../../../ThirdParty/mbedTLS/library/x509_crt.c:1608:63
	str	r2, [sp, #40]                   @ 4-byte Spill
	ldr	r2, [r0, #28]
	.loc	3 1609 43 is_stmt 1             @ ../../../ThirdParty/mbedTLS/library/x509_crt.c:1609:43
	str	r2, [sp, #44]                   @ 4-byte Spill
	ldr	r2, [r0, #32]
	.loc	3 1609 63 is_stmt 0             @ ../../../ThirdParty/mbedTLS/library/x509_crt.c:1609:63
	str	r2, [sp, #32]                   @ 4-byte Spill
	ldr	r2, [r0, #36]
	.loc	3 1610 43 is_stmt 1             @ ../../../ThirdParty/mbedTLS/library/x509_crt.c:1610:43
	str	r2, [sp, #36]                   @ 4-byte Spill
	ldr	r2, [r0, #40]
	.loc	3 1610 63 is_stmt 0             @ ../../../ThirdParty/mbedTLS/library/x509_crt.c:1610:63
	ldr	r0, [r0, #44]
	.loc	3 1606 11 is_stmt 1             @ ../../../ThirdParty/mbedTLS/library/x509_crt.c:1606:11
	str	r0, [sp, #28]                   @ 4-byte Spill
	ldr	r0, [sp, #40]                   @ 4-byte Reload
	str	r0, [sp]
	ldr	r0, [sp, #44]                   @ 4-byte Reload
	str	r0, [sp, #4]
	ldr	r0, [sp, #32]                   @ 4-byte Reload
	str	r0, [sp, #8]
	ldr	r0, [sp, #36]                   @ 4-byte Reload
	str	r0, [sp, #12]
	str	r2, [sp, #16]
	ldr	r0, [sp, #28]                   @ 4-byte Reload
	str	r0, [sp, #20]
	ldr	r2, __arm_cp.4_6
	mov	r0, r1
	mov	r1, r3
.Ltmp180:
	mov	r3, r6
.Ltmp181:
	bl	__2snprintf
.Ltmp182:
	@DEBUG_VALUE: mbedtls_x509_crt_info:ret <- $r0
	.loc	3 1611 5                        @ ../../../ThirdParty/mbedTLS/library/x509_crt.c:1611:5
	cmp	r0, #0
	bpl	.LBB4_18
	b	.LBB4_60
.Ltmp183:
.LBB4_18:
	@DEBUG_VALUE: mbedtls_x509_crt_info:prefix <- $r6
	@DEBUG_VALUE: mbedtls_x509_crt_info:crt <- $r5
	@DEBUG_VALUE: mbedtls_x509_crt_info:size <- $r4
	@DEBUG_VALUE: mbedtls_x509_crt_info:ret <- $r0
	@DEBUG_VALUE: mbedtls_x509_crt_info:buf <- [DW_OP_LLVM_entry_value 1] $r0
	ldr	r1, [sp, #72]
.Ltmp184:
	@DEBUG_VALUE: mbedtls_x509_crt_info:n <- $r1
	.loc	3 1611 5 is_stmt 0              @ ../../../ThirdParty/mbedTLS/library/x509_crt.c:1611:5
	cmp	r1, r0
	bhi	.LBB4_19
	b	.LBB4_60
.Ltmp185:
.LBB4_19:
	@DEBUG_VALUE: mbedtls_x509_crt_info:prefix <- $r6
	@DEBUG_VALUE: mbedtls_x509_crt_info:crt <- $r5
	@DEBUG_VALUE: mbedtls_x509_crt_info:size <- $r4
	@DEBUG_VALUE: mbedtls_x509_crt_info:n <- $r1
	@DEBUG_VALUE: mbedtls_x509_crt_info:ret <- $r0
	@DEBUG_VALUE: mbedtls_x509_crt_info:buf <- [DW_OP_LLVM_entry_value 1] $r0
	subs	r1, r1, r0
.Ltmp186:
	@DEBUG_VALUE: mbedtls_x509_crt_info:n <- $r1
	str	r1, [sp, #72]
	ldr	r2, [sp, #68]
.Ltmp187:
	@DEBUG_VALUE: mbedtls_x509_crt_info:p <- $r2
	adds	r0, r2, r0
.Ltmp188:
	@DEBUG_VALUE: mbedtls_x509_crt_info:p <- $r0
	str	r0, [sp, #68]
.Ltmp189:
	.loc	3 1613 11 is_stmt 1             @ ../../../ThirdParty/mbedTLS/library/x509_crt.c:1613:11
	adr	r2, .LCPI4_7
	mov	r3, r6
	bl	__2snprintf
.Ltmp190:
	@DEBUG_VALUE: mbedtls_x509_crt_info:ret <- $r0
	.loc	3 1614 5                        @ ../../../ThirdParty/mbedTLS/library/x509_crt.c:1614:5
	cmp	r0, #0
	bpl	.LBB4_20
	b	.LBB4_60
.Ltmp191:
.LBB4_20:
	@DEBUG_VALUE: mbedtls_x509_crt_info:prefix <- $r6
	@DEBUG_VALUE: mbedtls_x509_crt_info:crt <- $r5
	@DEBUG_VALUE: mbedtls_x509_crt_info:size <- $r4
	@DEBUG_VALUE: mbedtls_x509_crt_info:ret <- $r0
	@DEBUG_VALUE: mbedtls_x509_crt_info:buf <- [DW_OP_LLVM_entry_value 1] $r0
	ldr	r1, [sp, #72]
.Ltmp192:
	@DEBUG_VALUE: mbedtls_x509_crt_info:n <- $r1
	.loc	3 1614 5 is_stmt 0              @ ../../../ThirdParty/mbedTLS/library/x509_crt.c:1614:5
	cmp	r1, r0
	bhi	.LBB4_21
	b	.LBB4_60
.Ltmp193:
.LBB4_21:
	@DEBUG_VALUE: mbedtls_x509_crt_info:prefix <- $r6
	@DEBUG_VALUE: mbedtls_x509_crt_info:crt <- $r5
	@DEBUG_VALUE: mbedtls_x509_crt_info:size <- $r4
	@DEBUG_VALUE: mbedtls_x509_crt_info:n <- $r1
	@DEBUG_VALUE: mbedtls_x509_crt_info:ret <- $r0
	@DEBUG_VALUE: mbedtls_x509_crt_info:buf <- [DW_OP_LLVM_entry_value 1] $r0
	.loc	3 0 5                           @ ../../../ThirdParty/mbedTLS/library/x509_crt.c:0:5
	movw	r2, #312
	adds	r2, r5, r2
	.loc	3 1614 5                        @ ../../../ThirdParty/mbedTLS/library/x509_crt.c:1614:5
	subs	r1, r1, r0
.Ltmp194:
	@DEBUG_VALUE: mbedtls_x509_crt_info:n <- $r1
	str	r1, [sp, #72]
	ldr	r3, [sp, #68]
.Ltmp195:
	@DEBUG_VALUE: mbedtls_x509_crt_info:p <- $r3
	adds	r0, r3, r0
.Ltmp196:
	@DEBUG_VALUE: mbedtls_x509_crt_info:p <- $r0
	str	r0, [sp, #68]
.Ltmp197:
	.loc	3 1616 64 is_stmt 1             @ ../../../ThirdParty/mbedTLS/library/x509_crt.c:1616:64
	ldrb	r3, [r2, #1]
	.loc	3 1617 43                       @ ../../../ThirdParty/mbedTLS/library/x509_crt.c:1617:43
	str	r3, [sp, #44]                   @ 4-byte Spill
	ldrb	r3, [r2]
	.loc	3 1617 56 is_stmt 0             @ ../../../ThirdParty/mbedTLS/library/x509_crt.c:1617:56
	ldr	r2, [r2, #4]
	.loc	3 1616 11 is_stmt 1             @ ../../../ThirdParty/mbedTLS/library/x509_crt.c:1616:11
	str	r3, [sp]
	str	r2, [sp, #4]
	.loc	3 1616 50 is_stmt 0             @ ../../../ThirdParty/mbedTLS/library/x509_crt.c:1616:50
	mov	r2, r5
	adds	r2, #44
	.loc	3 1616 11                       @ ../../../ThirdParty/mbedTLS/library/x509_crt.c:1616:11
	ldr	r3, [sp, #44]                   @ 4-byte Reload
	bl	mbedtls_x509_sig_alg_gets
.Ltmp198:
	@DEBUG_VALUE: mbedtls_x509_crt_info:ret <- $r0
	.loc	3 1618 5 is_stmt 1              @ ../../../ThirdParty/mbedTLS/library/x509_crt.c:1618:5
	cmp	r0, #0
	bpl	.LBB4_22
	b	.LBB4_60
.Ltmp199:
.LBB4_22:
	@DEBUG_VALUE: mbedtls_x509_crt_info:prefix <- $r6
	@DEBUG_VALUE: mbedtls_x509_crt_info:crt <- $r5
	@DEBUG_VALUE: mbedtls_x509_crt_info:size <- $r4
	@DEBUG_VALUE: mbedtls_x509_crt_info:ret <- $r0
	@DEBUG_VALUE: mbedtls_x509_crt_info:buf <- [DW_OP_LLVM_entry_value 1] $r0
	ldr	r1, [sp, #72]
.Ltmp200:
	@DEBUG_VALUE: mbedtls_x509_crt_info:n <- $r1
	.loc	3 1618 5 is_stmt 0              @ ../../../ThirdParty/mbedTLS/library/x509_crt.c:1618:5
	cmp	r1, r0
	bhi	.LBB4_23
	b	.LBB4_60
.Ltmp201:
.LBB4_23:
	@DEBUG_VALUE: mbedtls_x509_crt_info:prefix <- $r6
	@DEBUG_VALUE: mbedtls_x509_crt_info:crt <- $r5
	@DEBUG_VALUE: mbedtls_x509_crt_info:size <- $r4
	@DEBUG_VALUE: mbedtls_x509_crt_info:n <- $r1
	@DEBUG_VALUE: mbedtls_x509_crt_info:ret <- $r0
	@DEBUG_VALUE: mbedtls_x509_crt_info:buf <- [DW_OP_LLVM_entry_value 1] $r0
	subs	r1, r1, r0
.Ltmp202:
	@DEBUG_VALUE: mbedtls_x509_crt_info:n <- $r1
	str	r1, [sp, #72]
	ldr	r1, [sp, #68]
.Ltmp203:
	@DEBUG_VALUE: mbedtls_x509_crt_info:p <- $r1
	adds	r0, r1, r0
.Ltmp204:
	@DEBUG_VALUE: mbedtls_x509_crt_info:p <- $r0
	str	r0, [sp, #68]
.Ltmp205:
	.loc	3 1622 44 is_stmt 1             @ ../../../ThirdParty/mbedTLS/library/x509_crt.c:1622:44
	mov	r0, r5
.Ltmp206:
	adds	r0, #204
	str	r0, [sp, #44]                   @ 4-byte Spill
	.loc	3 1622 17 is_stmt 0             @ ../../../ThirdParty/mbedTLS/library/x509_crt.c:1622:17
	bl	mbedtls_pk_get_name
	mov	r2, r0
	add	r0, sp, #48
	movs	r1, #18
	.loc	3 1621 17 is_stmt 1             @ ../../../ThirdParty/mbedTLS/library/x509_crt.c:1621:17
	bl	mbedtls_x509_key_size_helper
.Ltmp207:
	@DEBUG_VALUE: mbedtls_x509_crt_info:ret <- $r0
	.loc	3 1621 9 is_stmt 0              @ ../../../ThirdParty/mbedTLS/library/x509_crt.c:1621:9
	cmp	r0, #0
	beq	.LBB4_24
	b	.LBB4_58
.Ltmp208:
.LBB4_24:
	@DEBUG_VALUE: mbedtls_x509_crt_info:prefix <- $r6
	@DEBUG_VALUE: mbedtls_x509_crt_info:crt <- $r5
	@DEBUG_VALUE: mbedtls_x509_crt_info:size <- $r4
	@DEBUG_VALUE: mbedtls_x509_crt_info:ret <- $r0
	@DEBUG_VALUE: mbedtls_x509_crt_info:buf <- [DW_OP_LLVM_entry_value 1] $r0
	.loc	3 1627 32 is_stmt 1             @ ../../../ThirdParty/mbedTLS/library/x509_crt.c:1627:32
	ldr	r0, [sp, #72]
.Ltmp209:
	@DEBUG_VALUE: mbedtls_x509_crt_info:n <- $r0
	.loc	3 1627 29 is_stmt 0             @ ../../../ThirdParty/mbedTLS/library/x509_crt.c:1627:29
	str	r0, [sp, #40]                   @ 4-byte Spill
.Ltmp210:
	@DEBUG_VALUE: mbedtls_x509_crt_info:n <- [DW_OP_plus_uconst 40] [$sp+0]
	@DEBUG_VALUE: mbedtls_x509_crt_info:n <- [DW_OP_plus_uconst 40] [$sp+0]
	ldr	r0, [sp, #68]
.Ltmp211:
	@DEBUG_VALUE: mbedtls_x509_crt_info:p <- $r0
	.loc	3 1628 35 is_stmt 1             @ ../../../ThirdParty/mbedTLS/library/x509_crt.c:1628:35
	str	r0, [sp, #36]                   @ 4-byte Spill
.Ltmp212:
	@DEBUG_VALUE: mbedtls_x509_crt_info:p <- [DW_OP_plus_uconst 36] [$sp+0]
	@DEBUG_VALUE: mbedtls_x509_crt_info:p <- [DW_OP_plus_uconst 36] [$sp+0]
	ldr	r0, [sp, #44]                   @ 4-byte Reload
	bl	mbedtls_pk_get_bitlen
	.loc	3 1627 11                       @ ../../../ThirdParty/mbedTLS/library/x509_crt.c:1627:11
	str	r0, [sp, #4]
	add	r0, sp, #48
	str	r0, [sp]
	adr	r2, .LCPI4_8
	ldr	r0, [sp, #36]                   @ 4-byte Reload
	ldr	r1, [sp, #40]                   @ 4-byte Reload
	mov	r3, r6
	bl	__2snprintf
.Ltmp213:
	@DEBUG_VALUE: mbedtls_x509_crt_info:ret <- $r0
	.loc	3 1629 5                        @ ../../../ThirdParty/mbedTLS/library/x509_crt.c:1629:5
	cmp	r0, #0
	bpl	.LBB4_25
	b	.LBB4_60
.Ltmp214:
.LBB4_25:
	@DEBUG_VALUE: mbedtls_x509_crt_info:prefix <- $r6
	@DEBUG_VALUE: mbedtls_x509_crt_info:crt <- $r5
	@DEBUG_VALUE: mbedtls_x509_crt_info:size <- $r4
	@DEBUG_VALUE: mbedtls_x509_crt_info:ret <- $r0
	@DEBUG_VALUE: mbedtls_x509_crt_info:p <- [DW_OP_plus_uconst 36] [$sp+0]
	@DEBUG_VALUE: mbedtls_x509_crt_info:n <- [DW_OP_plus_uconst 40] [$sp+0]
	@DEBUG_VALUE: mbedtls_x509_crt_info:buf <- [DW_OP_LLVM_entry_value 1] $r0
	ldr	r1, [sp, #72]
.Ltmp215:
	@DEBUG_VALUE: mbedtls_x509_crt_info:n <- $r1
	.loc	3 1629 5 is_stmt 0              @ ../../../ThirdParty/mbedTLS/library/x509_crt.c:1629:5
	cmp	r1, r0
	bhi	.LBB4_26
	b	.LBB4_60
.Ltmp216:
.LBB4_26:
	@DEBUG_VALUE: mbedtls_x509_crt_info:prefix <- $r6
	@DEBUG_VALUE: mbedtls_x509_crt_info:crt <- $r5
	@DEBUG_VALUE: mbedtls_x509_crt_info:size <- $r4
	@DEBUG_VALUE: mbedtls_x509_crt_info:n <- $r1
	@DEBUG_VALUE: mbedtls_x509_crt_info:ret <- $r0
	@DEBUG_VALUE: mbedtls_x509_crt_info:p <- [DW_OP_plus_uconst 36] [$sp+0]
	@DEBUG_VALUE: mbedtls_x509_crt_info:buf <- [DW_OP_LLVM_entry_value 1] $r0
	.loc	3 0 5                           @ ../../../ThirdParty/mbedTLS/library/x509_crt.c:0:5
	movw	r2, #272
	adds	r2, r5, r2
	.loc	3 1629 5                        @ ../../../ThirdParty/mbedTLS/library/x509_crt.c:1629:5
	str	r2, [sp, #44]                   @ 4-byte Spill
	subs	r1, r1, r0
.Ltmp217:
	@DEBUG_VALUE: mbedtls_x509_crt_info:n <- $r1
	str	r1, [sp, #72]
	ldr	r2, [sp, #68]
.Ltmp218:
	@DEBUG_VALUE: mbedtls_x509_crt_info:p <- $r2
	adds	r0, r2, r0
.Ltmp219:
	@DEBUG_VALUE: mbedtls_x509_crt_info:p <- $r0
	str	r0, [sp, #68]
	movs	r3, #121
.Ltmp220:
	.loc	3 1635 9 is_stmt 1              @ ../../../ThirdParty/mbedTLS/library/x509_crt.c:1635:9
	ldr	r2, [sp, #24]                   @ 4-byte Reload
	str	r3, [sp, #40]                   @ 4-byte Spill
	ldrb	r2, [r2, r3]
	lsls	r2, r2, #31
	bne	.LBB4_37
.Ltmp221:
.LBB4_27:
	@DEBUG_VALUE: mbedtls_x509_crt_info:prefix <- $r6
	@DEBUG_VALUE: mbedtls_x509_crt_info:crt <- $r5
	@DEBUG_VALUE: mbedtls_x509_crt_info:size <- $r4
	@DEBUG_VALUE: mbedtls_x509_crt_info:p <- $r0
	@DEBUG_VALUE: mbedtls_x509_crt_info:buf <- [DW_OP_LLVM_entry_value 1] $r0
	.loc	3 0 9 is_stmt 0                 @ ../../../ThirdParty/mbedTLS/library/x509_crt.c:0:9
	movs	r1, #120
	.loc	3 1648 9 is_stmt 1              @ ../../../ThirdParty/mbedTLS/library/x509_crt.c:1648:9
	ldr	r0, [sp, #24]                   @ 4-byte Reload
.Ltmp222:
	.loc	3 0 9 is_stmt 0                 @ ../../../ThirdParty/mbedTLS/library/x509_crt.c:0:9
	str	r1, [sp, #36]                   @ 4-byte Spill
	.loc	3 1648 9                        @ ../../../ThirdParty/mbedTLS/library/x509_crt.c:1648:9
	ldrb	r0, [r0, r1]
	lsls	r0, r0, #26
	bmi	.LBB4_39
.Ltmp223:
.LBB4_28:
	@DEBUG_VALUE: mbedtls_x509_crt_info:prefix <- $r6
	@DEBUG_VALUE: mbedtls_x509_crt_info:crt <- $r5
	@DEBUG_VALUE: mbedtls_x509_crt_info:size <- $r4
	@DEBUG_VALUE: mbedtls_x509_crt_info:buf <- [DW_OP_LLVM_entry_value 1] $r0
	.loc	3 0 9                           @ ../../../ThirdParty/mbedTLS/library/x509_crt.c:0:9
	movs	r0, #122
	.loc	3 1658 9 is_stmt 1              @ ../../../ThirdParty/mbedTLS/library/x509_crt.c:1658:9
	ldr	r1, [sp, #24]                   @ 4-byte Reload
	ldrb	r0, [r1, r0]
	lsls	r0, r0, #31
	bne	.LBB4_49
.Ltmp224:
.LBB4_29:
	@DEBUG_VALUE: mbedtls_x509_crt_info:prefix <- $r6
	@DEBUG_VALUE: mbedtls_x509_crt_info:crt <- $r5
	@DEBUG_VALUE: mbedtls_x509_crt_info:size <- $r4
	@DEBUG_VALUE: mbedtls_x509_crt_info:buf <- [DW_OP_LLVM_entry_value 1] $r0
	.loc	3 1667 9                        @ ../../../ThirdParty/mbedTLS/library/x509_crt.c:1667:9
	ldr	r0, [sp, #24]                   @ 4-byte Reload
	ldr	r1, [sp, #36]                   @ 4-byte Reload
	ldrb	r0, [r0, r1]
	lsls	r0, r0, #29
	bpl	.LBB4_30
	b	.LBB4_52
.Ltmp225:
.LBB4_30:
	@DEBUG_VALUE: mbedtls_x509_crt_info:prefix <- $r6
	@DEBUG_VALUE: mbedtls_x509_crt_info:crt <- $r5
	@DEBUG_VALUE: mbedtls_x509_crt_info:size <- $r4
	@DEBUG_VALUE: mbedtls_x509_crt_info:buf <- [DW_OP_LLVM_entry_value 1] $r0
	.loc	3 1676 9                        @ ../../../ThirdParty/mbedTLS/library/x509_crt.c:1676:9
	ldr	r0, [sp, #24]                   @ 4-byte Reload
	ldr	r1, [sp, #40]                   @ 4-byte Reload
	ldrb	r0, [r0, r1]
	lsls	r0, r0, #28
	bpl	.LBB4_31
	b	.LBB4_55
.Ltmp226:
.LBB4_31:
	@DEBUG_VALUE: mbedtls_x509_crt_info:prefix <- $r6
	@DEBUG_VALUE: mbedtls_x509_crt_info:crt <- $r5
	@DEBUG_VALUE: mbedtls_x509_crt_info:size <- $r4
	@DEBUG_VALUE: mbedtls_x509_crt_info:buf <- [DW_OP_LLVM_entry_value 1] $r0
	.loc	3 1686 32                       @ ../../../ThirdParty/mbedTLS/library/x509_crt.c:1686:32
	ldr	r1, [sp, #72]
.Ltmp227:
	@DEBUG_VALUE: mbedtls_x509_crt_info:n <- $r1
	.loc	3 1686 29 is_stmt 0             @ ../../../ThirdParty/mbedTLS/library/x509_crt.c:1686:29
	ldr	r0, [sp, #68]
.Ltmp228:
	@DEBUG_VALUE: mbedtls_x509_crt_info:p <- $r0
	.loc	3 1686 11                       @ ../../../ThirdParty/mbedTLS/library/x509_crt.c:1686:11
	adr	r2, .LCPI4_17
	bl	__2snprintf
.Ltmp229:
	@DEBUG_VALUE: mbedtls_x509_crt_info:ret <- $r0
	.loc	3 1687 5 is_stmt 1              @ ../../../ThirdParty/mbedTLS/library/x509_crt.c:1687:5
	cmp	r0, #0
	bpl	.LBB4_32
	b	.LBB4_60
.Ltmp230:
.LBB4_32:
	@DEBUG_VALUE: mbedtls_x509_crt_info:prefix <- $r6
	@DEBUG_VALUE: mbedtls_x509_crt_info:crt <- $r5
	@DEBUG_VALUE: mbedtls_x509_crt_info:size <- $r4
	@DEBUG_VALUE: mbedtls_x509_crt_info:ret <- $r0
	@DEBUG_VALUE: mbedtls_x509_crt_info:buf <- [DW_OP_LLVM_entry_value 1] $r0
	.loc	3 0 0 is_stmt 0                 @ ../../../ThirdParty/mbedTLS/library/x509_crt.c:0:0
	mov	r1, r0
.Ltmp231:
	@DEBUG_VALUE: mbedtls_x509_crt_info:ret <- $r1
	.loc	3 1687 5                        @ ../../../ThirdParty/mbedTLS/library/x509_crt.c:1687:5
	ldr	r2, [sp, #72]
.Ltmp232:
	@DEBUG_VALUE: mbedtls_x509_crt_info:n <- $r2
	.loc	3 1687 5                        @ ../../../ThirdParty/mbedTLS/library/x509_crt.c:1687:5
	cmp	r2, r0
.Ltmp233:
	.loc	3 0 0                           @ ../../../ThirdParty/mbedTLS/library/x509_crt.c:0:0
	mov	r0, r7
	bhi	.LBB4_33
	b	.LBB4_58
.Ltmp234:
.LBB4_33:
	@DEBUG_VALUE: mbedtls_x509_crt_info:prefix <- $r6
	@DEBUG_VALUE: mbedtls_x509_crt_info:crt <- $r5
	@DEBUG_VALUE: mbedtls_x509_crt_info:size <- $r4
	@DEBUG_VALUE: mbedtls_x509_crt_info:n <- $r2
	@DEBUG_VALUE: mbedtls_x509_crt_info:ret <- $r1
	@DEBUG_VALUE: mbedtls_x509_crt_info:buf <- [DW_OP_LLVM_entry_value 1] $r0
	.loc	3 1687 5                        @ ../../../ThirdParty/mbedTLS/library/x509_crt.c:1687:5
	ldr	r0, [sp, #68]
.Ltmp235:
	@DEBUG_VALUE: mbedtls_x509_crt_info:p <- $r0
	adds	r0, r0, r1
.Ltmp236:
	@DEBUG_VALUE: mbedtls_x509_crt_info:p <- $r0
	str	r0, [sp, #68]
	subs	r0, r2, r1
.Ltmp237:
	@DEBUG_VALUE: mbedtls_x509_crt_info:n <- $r0
	str	r0, [sp, #72]
.Ltmp238:
	.loc	3 1689 26 is_stmt 1             @ ../../../ThirdParty/mbedTLS/library/x509_crt.c:1689:26
	subs	r0, r4, r0
.Ltmp239:
	.loc	3 0 26 is_stmt 0                @ ../../../ThirdParty/mbedTLS/library/x509_crt.c:0:26
	b	.LBB4_58
.Ltmp240:
.LBB4_34:
	@DEBUG_VALUE: mbedtls_x509_crt_info:size <- $r4
	@DEBUG_VALUE: mbedtls_x509_crt_info:n <- $r4
	@DEBUG_VALUE: mbedtls_x509_crt_info:crt <- $r3
	@DEBUG_VALUE: mbedtls_x509_crt_info:prefix <- $r2
	@DEBUG_VALUE: mbedtls_x509_crt_info:p <- $r0
	@DEBUG_VALUE: mbedtls_x509_crt_info:buf <- $r0
	.loc	3 1573 15 is_stmt 1             @ ../../../ThirdParty/mbedTLS/library/x509_crt.c:1573:15
	ldr	r2, __arm_cp.4_18
.Ltmp241:
	@DEBUG_VALUE: mbedtls_x509_crt_info:prefix <- [DW_OP_LLVM_entry_value 1] $r2
	mov	r1, r4
	bl	__2snprintf
.Ltmp242:
	@DEBUG_VALUE: mbedtls_x509_crt_info:crt <- [DW_OP_LLVM_entry_value 1] $r3
	@DEBUG_VALUE: mbedtls_x509_crt_info:buf <- [DW_OP_LLVM_entry_value 1] $r0
	@DEBUG_VALUE: mbedtls_x509_crt_info:ret <- $r0
	.loc	3 1574 9                        @ ../../../ThirdParty/mbedTLS/library/x509_crt.c:1574:9
	cmp	r0, #0
	bpl	.LBB4_35
	b	.LBB4_60
.Ltmp243:
.LBB4_35:
	@DEBUG_VALUE: mbedtls_x509_crt_info:size <- $r4
	@DEBUG_VALUE: mbedtls_x509_crt_info:n <- $r4
	@DEBUG_VALUE: mbedtls_x509_crt_info:ret <- $r0
	@DEBUG_VALUE: mbedtls_x509_crt_info:crt <- [DW_OP_LLVM_entry_value 1] $r3
	@DEBUG_VALUE: mbedtls_x509_crt_info:prefix <- [DW_OP_LLVM_entry_value 1] $r2
	@DEBUG_VALUE: mbedtls_x509_crt_info:buf <- [DW_OP_LLVM_entry_value 1] $r0
	.loc	3 0 0 is_stmt 0                 @ ../../../ThirdParty/mbedTLS/library/x509_crt.c:0:0
	mov	r1, r0
.Ltmp244:
	@DEBUG_VALUE: mbedtls_x509_crt_info:ret <- $r1
	.loc	3 1574 9                        @ ../../../ThirdParty/mbedTLS/library/x509_crt.c:1574:9
	ldr	r2, [sp, #72]
.Ltmp245:
	@DEBUG_VALUE: mbedtls_x509_crt_info:n <- $r2
	.loc	3 1574 9                        @ ../../../ThirdParty/mbedTLS/library/x509_crt.c:1574:9
	cmp	r2, r0
.Ltmp246:
	.loc	3 0 0                           @ ../../../ThirdParty/mbedTLS/library/x509_crt.c:0:0
	mov	r0, r7
	bhi	.LBB4_36
	b	.LBB4_58
.Ltmp247:
.LBB4_36:
	@DEBUG_VALUE: mbedtls_x509_crt_info:size <- $r4
	@DEBUG_VALUE: mbedtls_x509_crt_info:n <- $r2
	@DEBUG_VALUE: mbedtls_x509_crt_info:ret <- $r1
	@DEBUG_VALUE: mbedtls_x509_crt_info:crt <- [DW_OP_LLVM_entry_value 1] $r3
	@DEBUG_VALUE: mbedtls_x509_crt_info:prefix <- [DW_OP_LLVM_entry_value 1] $r2
	@DEBUG_VALUE: mbedtls_x509_crt_info:buf <- [DW_OP_LLVM_entry_value 1] $r0
	.loc	3 1574 9                        @ ../../../ThirdParty/mbedTLS/library/x509_crt.c:1574:9
	ldr	r0, [sp, #68]
.Ltmp248:
	@DEBUG_VALUE: mbedtls_x509_crt_info:p <- $r0
	adds	r0, r0, r1
.Ltmp249:
	@DEBUG_VALUE: mbedtls_x509_crt_info:p <- $r0
	str	r0, [sp, #68]
	subs	r0, r2, r1
.Ltmp250:
	@DEBUG_VALUE: mbedtls_x509_crt_info:n <- $r0
	str	r0, [sp, #72]
.Ltmp251:
	.loc	3 1576 30 is_stmt 1             @ ../../../ThirdParty/mbedTLS/library/x509_crt.c:1576:30
	subs	r0, r4, r0
.Ltmp252:
	.loc	3 1690 1                        @ ../../../ThirdParty/mbedTLS/library/x509_crt.c:1690:1
	add	sp, #76
	pop	{r4, r5, r6, r7, pc}
.Ltmp253:
.LBB4_37:
	@DEBUG_VALUE: mbedtls_x509_crt_info:prefix <- $r6
	@DEBUG_VALUE: mbedtls_x509_crt_info:crt <- $r5
	@DEBUG_VALUE: mbedtls_x509_crt_info:size <- $r4
	@DEBUG_VALUE: mbedtls_x509_crt_info:n <- $r1
	@DEBUG_VALUE: mbedtls_x509_crt_info:p <- $r0
	@DEBUG_VALUE: mbedtls_x509_crt_info:buf <- [DW_OP_LLVM_entry_value 1] $r0
	@DEBUG_VALUE: mbedtls_x509_crt_info:n <- $r1
	.loc	3 1638 38                       @ ../../../ThirdParty/mbedTLS/library/x509_crt.c:1638:38
	ldr	r2, [sp, #24]                   @ 4-byte Reload
	ldr	r2, [r2, #124]
	.loc	3 1638 33 is_stmt 0             @ ../../../ThirdParty/mbedTLS/library/x509_crt.c:1638:33
	cbz	r2, .LBB4_42
.Ltmp254:
@ %bb.38:
	@DEBUG_VALUE: mbedtls_x509_crt_info:prefix <- $r6
	@DEBUG_VALUE: mbedtls_x509_crt_info:crt <- $r5
	@DEBUG_VALUE: mbedtls_x509_crt_info:size <- $r4
	@DEBUG_VALUE: mbedtls_x509_crt_info:n <- $r1
	@DEBUG_VALUE: mbedtls_x509_crt_info:p <- $r0
	@DEBUG_VALUE: mbedtls_x509_crt_info:buf <- [DW_OP_LLVM_entry_value 1] $r0
	.loc	3 0 33                          @ ../../../ThirdParty/mbedTLS/library/x509_crt.c:0:33
	ldr	r2, __arm_cp.4_10
	b	.LBB4_43
.Ltmp255:
.LBB4_39:
	@DEBUG_VALUE: mbedtls_x509_crt_info:prefix <- $r6
	@DEBUG_VALUE: mbedtls_x509_crt_info:crt <- $r5
	@DEBUG_VALUE: mbedtls_x509_crt_info:size <- $r4
	@DEBUG_VALUE: mbedtls_x509_crt_info:buf <- [DW_OP_LLVM_entry_value 1] $r0
	.loc	3 1650 36 is_stmt 1             @ ../../../ThirdParty/mbedTLS/library/x509_crt.c:1650:36
	ldr	r1, [sp, #72]
.Ltmp256:
	@DEBUG_VALUE: mbedtls_x509_crt_info:n <- $r1
	.loc	3 1650 33 is_stmt 0             @ ../../../ThirdParty/mbedTLS/library/x509_crt.c:1650:33
	ldr	r0, [sp, #68]
.Ltmp257:
	@DEBUG_VALUE: mbedtls_x509_crt_info:p <- $r0
	.loc	3 1650 15                       @ ../../../ThirdParty/mbedTLS/library/x509_crt.c:1650:15
	ldr	r2, __arm_cp.4_13
	mov	r3, r6
	bl	__2snprintf
.Ltmp258:
	@DEBUG_VALUE: mbedtls_x509_crt_info:ret <- $r0
	.loc	3 1651 9 is_stmt 1              @ ../../../ThirdParty/mbedTLS/library/x509_crt.c:1651:9
	cmp	r0, #0
	bpl	.LBB4_40
	b	.LBB4_60
.Ltmp259:
.LBB4_40:
	@DEBUG_VALUE: mbedtls_x509_crt_info:prefix <- $r6
	@DEBUG_VALUE: mbedtls_x509_crt_info:crt <- $r5
	@DEBUG_VALUE: mbedtls_x509_crt_info:size <- $r4
	@DEBUG_VALUE: mbedtls_x509_crt_info:ret <- $r0
	@DEBUG_VALUE: mbedtls_x509_crt_info:buf <- [DW_OP_LLVM_entry_value 1] $r0
	ldr	r1, [sp, #72]
.Ltmp260:
	@DEBUG_VALUE: mbedtls_x509_crt_info:n <- $r1
	.loc	3 1651 9 is_stmt 0              @ ../../../ThirdParty/mbedTLS/library/x509_crt.c:1651:9
	cmp	r1, r0
	bhi	.LBB4_41
	b	.LBB4_60
.Ltmp261:
.LBB4_41:
	@DEBUG_VALUE: mbedtls_x509_crt_info:prefix <- $r6
	@DEBUG_VALUE: mbedtls_x509_crt_info:crt <- $r5
	@DEBUG_VALUE: mbedtls_x509_crt_info:size <- $r4
	@DEBUG_VALUE: mbedtls_x509_crt_info:n <- $r1
	@DEBUG_VALUE: mbedtls_x509_crt_info:ret <- $r0
	@DEBUG_VALUE: mbedtls_x509_crt_info:buf <- [DW_OP_LLVM_entry_value 1] $r0
	subs	r1, r1, r0
.Ltmp262:
	@DEBUG_VALUE: mbedtls_x509_crt_info:n <- $r1
	str	r1, [sp, #72]
	ldr	r1, [sp, #68]
.Ltmp263:
	@DEBUG_VALUE: mbedtls_x509_crt_info:p <- $r1
	adds	r0, r1, r0
.Ltmp264:
	@DEBUG_VALUE: mbedtls_x509_crt_info:p <- $r0
	str	r0, [sp, #68]
.Ltmp265:
	@DEBUG_VALUE: mbedtls_x509_crt_info:p <- [DW_OP_plus_uconst 68, DW_OP_deref] $sp
	@DEBUG_VALUE: mbedtls_x509_crt_info:n <- [DW_OP_plus_uconst 72, DW_OP_deref] $sp
	.loc	3 1654 55 is_stmt 1             @ ../../../ThirdParty/mbedTLS/library/x509_crt.c:1654:55
	mov	r2, r5
	adds	r2, #248
	add	r0, sp, #68
	add	r1, sp, #72
	.loc	3 1653 21                       @ ../../../ThirdParty/mbedTLS/library/x509_crt.c:1653:21
	bl	x509_info_subject_alt_name
.Ltmp266:
	@DEBUG_VALUE: mbedtls_x509_crt_info:ret <- $r0
	.loc	3 1653 13 is_stmt 0             @ ../../../ThirdParty/mbedTLS/library/x509_crt.c:1653:13
	cmp	r0, #0
	bne	.LBB4_58
	b	.LBB4_28
.Ltmp267:
.LBB4_42:
	@DEBUG_VALUE: mbedtls_x509_crt_info:prefix <- $r6
	@DEBUG_VALUE: mbedtls_x509_crt_info:crt <- $r5
	@DEBUG_VALUE: mbedtls_x509_crt_info:size <- $r4
	@DEBUG_VALUE: mbedtls_x509_crt_info:n <- $r1
	@DEBUG_VALUE: mbedtls_x509_crt_info:p <- $r0
	@DEBUG_VALUE: mbedtls_x509_crt_info:buf <- [DW_OP_LLVM_entry_value 1] $r0
	.loc	3 0 13                          @ ../../../ThirdParty/mbedTLS/library/x509_crt.c:0:13
	ldr	r2, __arm_cp.4_9
.Ltmp268:
.LBB4_43:
	@DEBUG_VALUE: mbedtls_x509_crt_info:prefix <- $r6
	@DEBUG_VALUE: mbedtls_x509_crt_info:crt <- $r5
	@DEBUG_VALUE: mbedtls_x509_crt_info:size <- $r4
	@DEBUG_VALUE: mbedtls_x509_crt_info:n <- $r1
	@DEBUG_VALUE: mbedtls_x509_crt_info:p <- $r0
	@DEBUG_VALUE: mbedtls_x509_crt_info:buf <- [DW_OP_LLVM_entry_value 1] $r0
	.loc	3 1637 15 is_stmt 1             @ ../../../ThirdParty/mbedTLS/library/x509_crt.c:1637:15
	str	r2, [sp]
	ldr	r2, __arm_cp.4_11
	mov	r3, r6
	bl	__2snprintf
.Ltmp269:
	@DEBUG_VALUE: mbedtls_x509_crt_info:ret <- $r0
	.loc	3 1639 9                        @ ../../../ThirdParty/mbedTLS/library/x509_crt.c:1639:9
	cmp	r0, #0
	bmi	.LBB4_60
.Ltmp270:
@ %bb.44:
	@DEBUG_VALUE: mbedtls_x509_crt_info:prefix <- $r6
	@DEBUG_VALUE: mbedtls_x509_crt_info:crt <- $r5
	@DEBUG_VALUE: mbedtls_x509_crt_info:size <- $r4
	@DEBUG_VALUE: mbedtls_x509_crt_info:ret <- $r0
	@DEBUG_VALUE: mbedtls_x509_crt_info:buf <- [DW_OP_LLVM_entry_value 1] $r0
	ldr	r1, [sp, #72]
.Ltmp271:
	@DEBUG_VALUE: mbedtls_x509_crt_info:n <- $r1
	.loc	3 1639 9 is_stmt 0              @ ../../../ThirdParty/mbedTLS/library/x509_crt.c:1639:9
	cmp	r1, r0
	bls	.LBB4_60
.Ltmp272:
@ %bb.45:
	@DEBUG_VALUE: mbedtls_x509_crt_info:prefix <- $r6
	@DEBUG_VALUE: mbedtls_x509_crt_info:crt <- $r5
	@DEBUG_VALUE: mbedtls_x509_crt_info:size <- $r4
	@DEBUG_VALUE: mbedtls_x509_crt_info:n <- $r1
	@DEBUG_VALUE: mbedtls_x509_crt_info:ret <- $r0
	@DEBUG_VALUE: mbedtls_x509_crt_info:buf <- [DW_OP_LLVM_entry_value 1] $r0
	subs	r1, r1, r0
.Ltmp273:
	@DEBUG_VALUE: mbedtls_x509_crt_info:n <- $r1
	str	r1, [sp, #72]
	ldr	r2, [sp, #68]
.Ltmp274:
	@DEBUG_VALUE: mbedtls_x509_crt_info:p <- $r2
	adds	r0, r2, r0
.Ltmp275:
	@DEBUG_VALUE: mbedtls_x509_crt_info:p <- $r0
	str	r0, [sp, #68]
.Ltmp276:
	.loc	3 1641 18 is_stmt 1             @ ../../../ThirdParty/mbedTLS/library/x509_crt.c:1641:18
	ldr	r2, [sp, #44]                   @ 4-byte Reload
	ldr	r2, [r2]
.Ltmp277:
	.loc	3 1641 13 is_stmt 0             @ ../../../ThirdParty/mbedTLS/library/x509_crt.c:1641:13
	cmp	r2, #1
	blt	.LBB4_27
.Ltmp278:
@ %bb.46:
	@DEBUG_VALUE: mbedtls_x509_crt_info:prefix <- $r6
	@DEBUG_VALUE: mbedtls_x509_crt_info:crt <- $r5
	@DEBUG_VALUE: mbedtls_x509_crt_info:size <- $r4
	@DEBUG_VALUE: mbedtls_x509_crt_info:n <- $r1
	@DEBUG_VALUE: mbedtls_x509_crt_info:p <- $r0
	@DEBUG_VALUE: mbedtls_x509_crt_info:buf <- [DW_OP_LLVM_entry_value 1] $r0
	@DEBUG_VALUE: mbedtls_x509_crt_info:n <- $r1
	.loc	3 1643 80 is_stmt 1             @ ../../../ThirdParty/mbedTLS/library/x509_crt.c:1643:80
	subs	r3, r2, #1
	.loc	3 1643 19 is_stmt 0             @ ../../../ThirdParty/mbedTLS/library/x509_crt.c:1643:19
	ldr	r2, __arm_cp.4_12
	bl	__2snprintf
.Ltmp279:
	@DEBUG_VALUE: mbedtls_x509_crt_info:ret <- $r0
	.loc	3 1644 13 is_stmt 1             @ ../../../ThirdParty/mbedTLS/library/x509_crt.c:1644:13
	cmp	r0, #0
	bmi	.LBB4_60
.Ltmp280:
@ %bb.47:
	@DEBUG_VALUE: mbedtls_x509_crt_info:prefix <- $r6
	@DEBUG_VALUE: mbedtls_x509_crt_info:crt <- $r5
	@DEBUG_VALUE: mbedtls_x509_crt_info:size <- $r4
	@DEBUG_VALUE: mbedtls_x509_crt_info:ret <- $r0
	@DEBUG_VALUE: mbedtls_x509_crt_info:buf <- [DW_OP_LLVM_entry_value 1] $r0
	ldr	r1, [sp, #72]
.Ltmp281:
	@DEBUG_VALUE: mbedtls_x509_crt_info:n <- $r1
	.loc	3 1644 13 is_stmt 0             @ ../../../ThirdParty/mbedTLS/library/x509_crt.c:1644:13
	cmp	r1, r0
	bls	.LBB4_60
.Ltmp282:
@ %bb.48:
	@DEBUG_VALUE: mbedtls_x509_crt_info:prefix <- $r6
	@DEBUG_VALUE: mbedtls_x509_crt_info:crt <- $r5
	@DEBUG_VALUE: mbedtls_x509_crt_info:size <- $r4
	@DEBUG_VALUE: mbedtls_x509_crt_info:n <- $r1
	@DEBUG_VALUE: mbedtls_x509_crt_info:ret <- $r0
	@DEBUG_VALUE: mbedtls_x509_crt_info:buf <- [DW_OP_LLVM_entry_value 1] $r0
	subs	r1, r1, r0
.Ltmp283:
	@DEBUG_VALUE: mbedtls_x509_crt_info:n <- $r1
	str	r1, [sp, #72]
	ldr	r1, [sp, #68]
.Ltmp284:
	@DEBUG_VALUE: mbedtls_x509_crt_info:p <- $r1
	adds	r0, r1, r0
.Ltmp285:
	@DEBUG_VALUE: mbedtls_x509_crt_info:p <- $r0
	str	r0, [sp, #68]
	b	.LBB4_27
.Ltmp286:
.LBB4_49:
	@DEBUG_VALUE: mbedtls_x509_crt_info:prefix <- $r6
	@DEBUG_VALUE: mbedtls_x509_crt_info:crt <- $r5
	@DEBUG_VALUE: mbedtls_x509_crt_info:size <- $r4
	@DEBUG_VALUE: mbedtls_x509_crt_info:buf <- [DW_OP_LLVM_entry_value 1] $r0
	.loc	3 1660 36 is_stmt 1             @ ../../../ThirdParty/mbedTLS/library/x509_crt.c:1660:36
	ldr	r1, [sp, #72]
.Ltmp287:
	@DEBUG_VALUE: mbedtls_x509_crt_info:n <- $r1
	.loc	3 1660 33 is_stmt 0             @ ../../../ThirdParty/mbedTLS/library/x509_crt.c:1660:33
	ldr	r0, [sp, #68]
.Ltmp288:
	@DEBUG_VALUE: mbedtls_x509_crt_info:p <- $r0
	.loc	3 1660 15                       @ ../../../ThirdParty/mbedTLS/library/x509_crt.c:1660:15
	ldr	r2, __arm_cp.4_14
	mov	r3, r6
	bl	__2snprintf
.Ltmp289:
	@DEBUG_VALUE: mbedtls_x509_crt_info:ret <- $r0
	.loc	3 1661 9 is_stmt 1              @ ../../../ThirdParty/mbedTLS/library/x509_crt.c:1661:9
	cmp	r0, #0
	bmi	.LBB4_60
.Ltmp290:
@ %bb.50:
	@DEBUG_VALUE: mbedtls_x509_crt_info:prefix <- $r6
	@DEBUG_VALUE: mbedtls_x509_crt_info:crt <- $r5
	@DEBUG_VALUE: mbedtls_x509_crt_info:size <- $r4
	@DEBUG_VALUE: mbedtls_x509_crt_info:ret <- $r0
	@DEBUG_VALUE: mbedtls_x509_crt_info:buf <- [DW_OP_LLVM_entry_value 1] $r0
	ldr	r1, [sp, #72]
.Ltmp291:
	@DEBUG_VALUE: mbedtls_x509_crt_info:n <- $r1
	.loc	3 1661 9 is_stmt 0              @ ../../../ThirdParty/mbedTLS/library/x509_crt.c:1661:9
	cmp	r1, r0
	bls	.LBB4_60
.Ltmp292:
@ %bb.51:
	@DEBUG_VALUE: mbedtls_x509_crt_info:prefix <- $r6
	@DEBUG_VALUE: mbedtls_x509_crt_info:crt <- $r5
	@DEBUG_VALUE: mbedtls_x509_crt_info:size <- $r4
	@DEBUG_VALUE: mbedtls_x509_crt_info:n <- $r1
	@DEBUG_VALUE: mbedtls_x509_crt_info:ret <- $r0
	@DEBUG_VALUE: mbedtls_x509_crt_info:buf <- [DW_OP_LLVM_entry_value 1] $r0
	subs	r1, r1, r0
.Ltmp293:
	@DEBUG_VALUE: mbedtls_x509_crt_info:n <- $r1
	str	r1, [sp, #72]
	ldr	r1, [sp, #68]
.Ltmp294:
	@DEBUG_VALUE: mbedtls_x509_crt_info:p <- $r1
	adds	r0, r1, r0
.Ltmp295:
	@DEBUG_VALUE: mbedtls_x509_crt_info:p <- $r0
	str	r0, [sp, #68]
.Ltmp296:
	.loc	3 1663 55 is_stmt 1             @ ../../../ThirdParty/mbedTLS/library/x509_crt.c:1663:55
	ldr	r0, [sp, #44]                   @ 4-byte Reload
.Ltmp297:
	ldrb	r2, [r0, #24]
.Ltmp298:
	@DEBUG_VALUE: mbedtls_x509_crt_info:p <- [DW_OP_plus_uconst 68, DW_OP_deref] $sp
	@DEBUG_VALUE: mbedtls_x509_crt_info:n <- [DW_OP_plus_uconst 72, DW_OP_deref] $sp
	.loc	3 0 55 is_stmt 0                @ ../../../ThirdParty/mbedTLS/library/x509_crt.c:0:55
	add	r0, sp, #68
	add	r1, sp, #72
	.loc	3 1663 21                       @ ../../../ThirdParty/mbedTLS/library/x509_crt.c:1663:21
	bl	x509_info_cert_type
.Ltmp299:
	@DEBUG_VALUE: mbedtls_x509_crt_info:ret <- $r0
	.loc	3 1663 13                       @ ../../../ThirdParty/mbedTLS/library/x509_crt.c:1663:13
	cbnz	r0, .LBB4_58
	b	.LBB4_29
.Ltmp300:
.LBB4_52:
	@DEBUG_VALUE: mbedtls_x509_crt_info:prefix <- $r6
	@DEBUG_VALUE: mbedtls_x509_crt_info:crt <- $r5
	@DEBUG_VALUE: mbedtls_x509_crt_info:size <- $r4
	@DEBUG_VALUE: mbedtls_x509_crt_info:buf <- [DW_OP_LLVM_entry_value 1] $r0
	.loc	3 1669 36 is_stmt 1             @ ../../../ThirdParty/mbedTLS/library/x509_crt.c:1669:36
	ldr	r1, [sp, #72]
.Ltmp301:
	@DEBUG_VALUE: mbedtls_x509_crt_info:n <- $r1
	.loc	3 1669 33 is_stmt 0             @ ../../../ThirdParty/mbedTLS/library/x509_crt.c:1669:33
	ldr	r0, [sp, #68]
.Ltmp302:
	@DEBUG_VALUE: mbedtls_x509_crt_info:p <- $r0
	.loc	3 1669 15                       @ ../../../ThirdParty/mbedTLS/library/x509_crt.c:1669:15
	ldr	r2, __arm_cp.4_15
	mov	r3, r6
	bl	__2snprintf
.Ltmp303:
	@DEBUG_VALUE: mbedtls_x509_crt_info:ret <- $r0
	.loc	3 1670 9 is_stmt 1              @ ../../../ThirdParty/mbedTLS/library/x509_crt.c:1670:9
	cmp	r0, #0
	bmi	.LBB4_60
.Ltmp304:
@ %bb.53:
	@DEBUG_VALUE: mbedtls_x509_crt_info:prefix <- $r6
	@DEBUG_VALUE: mbedtls_x509_crt_info:crt <- $r5
	@DEBUG_VALUE: mbedtls_x509_crt_info:size <- $r4
	@DEBUG_VALUE: mbedtls_x509_crt_info:ret <- $r0
	@DEBUG_VALUE: mbedtls_x509_crt_info:buf <- [DW_OP_LLVM_entry_value 1] $r0
	ldr	r1, [sp, #72]
.Ltmp305:
	@DEBUG_VALUE: mbedtls_x509_crt_info:n <- $r1
	.loc	3 1670 9 is_stmt 0              @ ../../../ThirdParty/mbedTLS/library/x509_crt.c:1670:9
	cmp	r1, r0
	bls	.LBB4_60
.Ltmp306:
@ %bb.54:
	@DEBUG_VALUE: mbedtls_x509_crt_info:prefix <- $r6
	@DEBUG_VALUE: mbedtls_x509_crt_info:crt <- $r5
	@DEBUG_VALUE: mbedtls_x509_crt_info:size <- $r4
	@DEBUG_VALUE: mbedtls_x509_crt_info:n <- $r1
	@DEBUG_VALUE: mbedtls_x509_crt_info:ret <- $r0
	@DEBUG_VALUE: mbedtls_x509_crt_info:buf <- [DW_OP_LLVM_entry_value 1] $r0
	subs	r1, r1, r0
.Ltmp307:
	@DEBUG_VALUE: mbedtls_x509_crt_info:n <- $r1
	str	r1, [sp, #72]
	ldr	r1, [sp, #68]
.Ltmp308:
	@DEBUG_VALUE: mbedtls_x509_crt_info:p <- $r1
	adds	r0, r1, r0
.Ltmp309:
	@DEBUG_VALUE: mbedtls_x509_crt_info:p <- $r0
	str	r0, [sp, #68]
.Ltmp310:
	.loc	3 1672 55 is_stmt 1             @ ../../../ThirdParty/mbedTLS/library/x509_crt.c:1672:55
	ldr	r0, [sp, #44]                   @ 4-byte Reload
.Ltmp311:
	ldr	r2, [r0, #4]
.Ltmp312:
	@DEBUG_VALUE: mbedtls_x509_crt_info:p <- [DW_OP_plus_uconst 68, DW_OP_deref] $sp
	@DEBUG_VALUE: mbedtls_x509_crt_info:n <- [DW_OP_plus_uconst 72, DW_OP_deref] $sp
	.loc	3 0 55 is_stmt 0                @ ../../../ThirdParty/mbedTLS/library/x509_crt.c:0:55
	add	r0, sp, #68
	add	r1, sp, #72
	.loc	3 1672 21                       @ ../../../ThirdParty/mbedTLS/library/x509_crt.c:1672:21
	bl	x509_info_key_usage
.Ltmp313:
	@DEBUG_VALUE: mbedtls_x509_crt_info:ret <- $r0
	.loc	3 1672 13                       @ ../../../ThirdParty/mbedTLS/library/x509_crt.c:1672:13
	cbnz	r0, .LBB4_58
	b	.LBB4_30
.Ltmp314:
.LBB4_55:
	@DEBUG_VALUE: mbedtls_x509_crt_info:prefix <- $r6
	@DEBUG_VALUE: mbedtls_x509_crt_info:crt <- $r5
	@DEBUG_VALUE: mbedtls_x509_crt_info:size <- $r4
	@DEBUG_VALUE: mbedtls_x509_crt_info:buf <- [DW_OP_LLVM_entry_value 1] $r0
	.loc	3 1678 36 is_stmt 1             @ ../../../ThirdParty/mbedTLS/library/x509_crt.c:1678:36
	ldr	r1, [sp, #72]
.Ltmp315:
	@DEBUG_VALUE: mbedtls_x509_crt_info:n <- $r1
	.loc	3 1678 33 is_stmt 0             @ ../../../ThirdParty/mbedTLS/library/x509_crt.c:1678:33
	ldr	r0, [sp, #68]
.Ltmp316:
	@DEBUG_VALUE: mbedtls_x509_crt_info:p <- $r0
	.loc	3 1678 15                       @ ../../../ThirdParty/mbedTLS/library/x509_crt.c:1678:15
	ldr	r2, __arm_cp.4_16
	mov	r3, r6
	bl	__2snprintf
.Ltmp317:
	@DEBUG_VALUE: mbedtls_x509_crt_info:ret <- $r0
	.loc	3 1679 9 is_stmt 1              @ ../../../ThirdParty/mbedTLS/library/x509_crt.c:1679:9
	cmp	r0, #0
	bmi	.LBB4_60
.Ltmp318:
@ %bb.56:
	@DEBUG_VALUE: mbedtls_x509_crt_info:prefix <- $r6
	@DEBUG_VALUE: mbedtls_x509_crt_info:crt <- $r5
	@DEBUG_VALUE: mbedtls_x509_crt_info:size <- $r4
	@DEBUG_VALUE: mbedtls_x509_crt_info:ret <- $r0
	@DEBUG_VALUE: mbedtls_x509_crt_info:buf <- [DW_OP_LLVM_entry_value 1] $r0
	ldr	r1, [sp, #72]
.Ltmp319:
	@DEBUG_VALUE: mbedtls_x509_crt_info:n <- $r1
	.loc	3 1679 9 is_stmt 0              @ ../../../ThirdParty/mbedTLS/library/x509_crt.c:1679:9
	cmp	r1, r0
	bls	.LBB4_60
.Ltmp320:
@ %bb.57:
	@DEBUG_VALUE: mbedtls_x509_crt_info:prefix <- $r6
	@DEBUG_VALUE: mbedtls_x509_crt_info:crt <- $r5
	@DEBUG_VALUE: mbedtls_x509_crt_info:size <- $r4
	@DEBUG_VALUE: mbedtls_x509_crt_info:n <- $r1
	@DEBUG_VALUE: mbedtls_x509_crt_info:ret <- $r0
	@DEBUG_VALUE: mbedtls_x509_crt_info:buf <- [DW_OP_LLVM_entry_value 1] $r0
	subs	r1, r1, r0
.Ltmp321:
	@DEBUG_VALUE: mbedtls_x509_crt_info:n <- $r1
	str	r1, [sp, #72]
	ldr	r1, [sp, #68]
.Ltmp322:
	@DEBUG_VALUE: mbedtls_x509_crt_info:p <- $r1
	adds	r0, r1, r0
.Ltmp323:
	@DEBUG_VALUE: mbedtls_x509_crt_info:p <- $r0
	str	r0, [sp, #68]
	movw	r0, #280
.Ltmp324:
	.loc	3 1682 52 is_stmt 1             @ ../../../ThirdParty/mbedTLS/library/x509_crt.c:1682:52
	adds	r2, r5, r0
.Ltmp325:
	@DEBUG_VALUE: mbedtls_x509_crt_info:p <- [DW_OP_plus_uconst 68, DW_OP_deref] $sp
	@DEBUG_VALUE: mbedtls_x509_crt_info:n <- [DW_OP_plus_uconst 72, DW_OP_deref] $sp
	.loc	3 0 52 is_stmt 0                @ ../../../ThirdParty/mbedTLS/library/x509_crt.c:0:52
	add	r0, sp, #68
	add	r1, sp, #72
	.loc	3 1681 21 is_stmt 1             @ ../../../ThirdParty/mbedTLS/library/x509_crt.c:1681:21
	bl	x509_info_ext_key_usage
.Ltmp326:
	@DEBUG_VALUE: mbedtls_x509_crt_info:ret <- $r0
	.loc	3 1681 13 is_stmt 0             @ ../../../ThirdParty/mbedTLS/library/x509_crt.c:1681:13
	cmp	r0, #0
	bne	.LBB4_58
	b	.LBB4_31
.Ltmp327:
.LBB4_58:
	@DEBUG_VALUE: mbedtls_x509_crt_info:size <- $r4
	@DEBUG_VALUE: mbedtls_x509_crt_info:buf <- [DW_OP_LLVM_entry_value 1] $r0
	.loc	3 1690 1 is_stmt 1              @ ../../../ThirdParty/mbedTLS/library/x509_crt.c:1690:1
	add	sp, #76
	pop	{r4, r5, r6, r7, pc}
.Ltmp328:
	.p2align	2
@ %bb.59:
	.loc	3 0 1 is_stmt 0                 @ ../../../ThirdParty/mbedTLS/library/x509_crt.c:0:1
__arm_cp.4_19:
	.long	4294956672                      @ 0xffffd680
.Lcpi_end6:
	.size	__arm_cp.4_19, .Lcpi_end6-__arm_cp.4_19
	.p2align	1
.LBB4_60:
.Ltmp329:
	@DEBUG_VALUE: mbedtls_x509_crt_info:size <- $r4
	@DEBUG_VALUE: mbedtls_x509_crt_info:ret <- $r0
	@DEBUG_VALUE: mbedtls_x509_crt_info:buf <- [DW_OP_LLVM_entry_value 1] $r0
	mov	r0, r7
.Ltmp330:
	.loc	3 1690 1                        @ ../../../ThirdParty/mbedTLS/library/x509_crt.c:1690:1
	add	sp, #76
	pop	{r4, r5, r6, r7, pc}
.Ltmp331:
	.p2align	2
@ %bb.61:
	.loc	3 0 1                           @ ../../../ThirdParty/mbedTLS/library/x509_crt.c:0:1
.LCPI4_1:
.L.str.3:
	.asciz	"%scert. version     : %d\n\000\000"
.LCPI4_2:
.L.str.4:
	.asciz	"%sserial number     : \000"
.LCPI4_3:
.L.str.5:
	.asciz	"\n%sissuer name       : "
.LCPI4_4:
.L.str.6:
	.asciz	"\n%ssubject name      : "
__arm_cp.4_5:
	.long	.L.str.7
.Lcpi_end7:
	.size	__arm_cp.4_5, .Lcpi_end7-__arm_cp.4_5
__arm_cp.4_6:
	.long	.L.str.8
.Lcpi_end8:
	.size	__arm_cp.4_6, .Lcpi_end8-__arm_cp.4_6
.LCPI4_7:
.L.str.9:
	.asciz	"\n%ssigned using      : "
.LCPI4_8:
.L.str.10:
	.asciz	"\n%s%-18s: %d bits\000\000"
__arm_cp.4_9:
	.long	.L.str.13
.Lcpi_end9:
	.size	__arm_cp.4_9, .Lcpi_end9-__arm_cp.4_9
__arm_cp.4_10:
	.long	.L.str.12
.Lcpi_end10:
	.size	__arm_cp.4_10, .Lcpi_end10-__arm_cp.4_10
__arm_cp.4_11:
	.long	.L.str.11
.Lcpi_end11:
	.size	__arm_cp.4_11, .Lcpi_end11-__arm_cp.4_11
__arm_cp.4_12:
	.long	.L.str.14
.Lcpi_end12:
	.size	__arm_cp.4_12, .Lcpi_end12-__arm_cp.4_12
__arm_cp.4_13:
	.long	.L.str.15
.Lcpi_end13:
	.size	__arm_cp.4_13, .Lcpi_end13-__arm_cp.4_13
__arm_cp.4_14:
	.long	.L.str.16
.Lcpi_end14:
	.size	__arm_cp.4_14, .Lcpi_end14-__arm_cp.4_14
__arm_cp.4_15:
	.long	.L.str.17
.Lcpi_end15:
	.size	__arm_cp.4_15, .Lcpi_end15-__arm_cp.4_15
__arm_cp.4_16:
	.long	.L.str.18
.Lcpi_end16:
	.size	__arm_cp.4_16, .Lcpi_end16-__arm_cp.4_16
.LCPI4_17:
.L.str.19:
	.asciz	"\n\000\000"
__arm_cp.4_18:
	.long	.L.str.2
.Lcpi_end17:
	.size	__arm_cp.4_18, .Lcpi_end17-__arm_cp.4_18
.Lfunc_end4:
	.size	mbedtls_x509_crt_info, .Lfunc_end4-mbedtls_x509_crt_info
	.cfi_endproc
	.cantunwind
	.fnend
                                        @ -- End function
	.section	.text.x509_info_subject_alt_name,"ax",%progbits
	.p2align	2                               @ -- Begin function x509_info_subject_alt_name
	.type	x509_info_subject_alt_name,%function
	.code	16                              @ @x509_info_subject_alt_name
	.thumb_func
x509_info_subject_alt_name:
.Lfunc_begin5:
	.loc	3 1428 0 is_stmt 1              @ ../../../ThirdParty/mbedTLS/library/x509_crt.c:1428:0
	.fnstart
	.cfi_startproc
@ %bb.0:
	@DEBUG_VALUE: x509_info_subject_alt_name:buf <- $r0
	@DEBUG_VALUE: x509_info_subject_alt_name:buf <- $r0
	@DEBUG_VALUE: x509_info_subject_alt_name:size <- $r1
	@DEBUG_VALUE: x509_info_subject_alt_name:size <- $r1
	@DEBUG_VALUE: x509_info_subject_alt_name:subject_alt_name <- $r2
	@DEBUG_VALUE: x509_info_subject_alt_name:subject_alt_name <- $r2
	.save	{r4, r5, r6, r7, lr}
	push	{r4, r5, r6, r7, lr}
	.cfi_def_cfa_offset 20
	.cfi_offset lr, -4
	.cfi_offset r7, -8
	.cfi_offset r6, -12
	.cfi_offset r5, -16
	.cfi_offset r4, -20
	.pad	#8
	sub	sp, #8
	.cfi_def_cfa_offset 28
.Ltmp332:
	.loc	3 1431 15 prologue_end          @ ../../../ThirdParty/mbedTLS/library/x509_crt.c:1431:15
	ldr	r3, [r0]
.Ltmp333:
	@DEBUG_VALUE: x509_info_subject_alt_name:p <- $r3
	.loc	3 1430 16                       @ ../../../ThirdParty/mbedTLS/library/x509_crt.c:1430:16
	ldr	r4, [r1]
.Ltmp334:
	@DEBUG_VALUE: x509_info_subject_alt_name:sep_len <- 0
	@DEBUG_VALUE: x509_info_subject_alt_name:cur <- $r2
	@DEBUG_VALUE: x509_info_subject_alt_name:n <- $r4
	@DEBUG_VALUE: x509_info_subject_alt_name:sep <- undef
	.loc	3 1436 5                        @ ../../../ThirdParty/mbedTLS/library/x509_crt.c:1436:5
	str	r1, [sp, #4]                    @ 4-byte Spill
.Ltmp335:
	@DEBUG_VALUE: x509_info_subject_alt_name:size <- [DW_OP_plus_uconst 4] [$sp+0]
	str	r0, [sp]                        @ 4-byte Spill
.Ltmp336:
	@DEBUG_VALUE: x509_info_subject_alt_name:buf <- [$sp+0]
	cbz	r2, .LBB5_10
.Ltmp337:
@ %bb.1:
	@DEBUG_VALUE: x509_info_subject_alt_name:buf <- [$sp+0]
	@DEBUG_VALUE: x509_info_subject_alt_name:size <- [DW_OP_plus_uconst 4] [$sp+0]
	@DEBUG_VALUE: x509_info_subject_alt_name:n <- $r4
	@DEBUG_VALUE: x509_info_subject_alt_name:p <- $r3
	@DEBUG_VALUE: x509_info_subject_alt_name:cur <- $r2
	@DEBUG_VALUE: x509_info_subject_alt_name:subject_alt_name <- $r2
	@DEBUG_VALUE: x509_info_subject_alt_name:sep_len <- 0
	.loc	3 0 5 is_stmt 0                 @ ../../../ThirdParty/mbedTLS/library/x509_crt.c:0:5
	ldr	r5, __arm_cp.5_0
	movs	r1, #0
	ldr	r0, __arm_cp.5_2
	mov	r7, r1
	b	.LBB5_3
.Ltmp338:
.LBB5_2:                                @   in Loop: Header=BB5_3 Depth=1
	@DEBUG_VALUE: x509_info_subject_alt_name:buf <- [$sp+0]
	@DEBUG_VALUE: x509_info_subject_alt_name:size <- [DW_OP_plus_uconst 4] [$sp+0]
	@DEBUG_VALUE: x509_info_subject_alt_name:cur <- $r2
	subs	r4, r4, r6
.Ltmp339:
	@DEBUG_VALUE: x509_info_subject_alt_name:sep_len <- 2
	@DEBUG_VALUE: x509_info_subject_alt_name:n <- $r4
	@DEBUG_VALUE: x509_info_subject_alt_name:p <- $r3
	.loc	3 1453 20 is_stmt 1             @ ../../../ThirdParty/mbedTLS/library/x509_crt.c:1453:20
	ldr	r2, [r2, #12]
.Ltmp340:
	@DEBUG_VALUE: x509_info_subject_alt_name:subject_alt_name <- [DW_OP_LLVM_entry_value 1] $r2
	@DEBUG_VALUE: x509_info_subject_alt_name:sep <- $r0
	@DEBUG_VALUE: x509_info_subject_alt_name:cur <- $r2
	.loc	3 0 20 is_stmt 0                @ ../../../ThirdParty/mbedTLS/library/x509_crt.c:0:20
	movs	r7, #2
	movs	r1, #1
	mov	r5, r0
.Ltmp341:
	.loc	3 1436 5 is_stmt 1              @ ../../../ThirdParty/mbedTLS/library/x509_crt.c:1436:5
	cbz	r2, .LBB5_10
.Ltmp342:
.LBB5_3:                                @ =>This Loop Header: Depth=1
                                        @     Child Loop BB5_5 Depth 2
                                        @     Child Loop BB5_8 Depth 2
	@DEBUG_VALUE: x509_info_subject_alt_name:buf <- [$sp+0]
	@DEBUG_VALUE: x509_info_subject_alt_name:size <- [DW_OP_plus_uconst 4] [$sp+0]
	@DEBUG_VALUE: x509_info_subject_alt_name:n <- $r4
	@DEBUG_VALUE: x509_info_subject_alt_name:p <- $r3
	@DEBUG_VALUE: x509_info_subject_alt_name:cur <- $r2
	@DEBUG_VALUE: x509_info_subject_alt_name:p <- $r3
	@DEBUG_VALUE: x509_info_subject_alt_name:n <- $r4
	@DEBUG_VALUE: x509_info_subject_alt_name:cur <- $r2
	@DEBUG_VALUE: x509_info_subject_alt_name:sep_len <- $r7
	@DEBUG_VALUE: x509_info_subject_alt_name:sep <- $r5
	.loc	3 1438 22                       @ ../../../ThirdParty/mbedTLS/library/x509_crt.c:1438:22
	ldr	r6, [r2, #4]
	.loc	3 1438 26 is_stmt 0             @ ../../../ThirdParty/mbedTLS/library/x509_crt.c:1438:26
	adds	r6, r6, r7
.Ltmp343:
	.loc	3 1438 13                       @ ../../../ThirdParty/mbedTLS/library/x509_crt.c:1438:13
	cmp	r4, r6
	bls	.LBB5_11
.Ltmp344:
@ %bb.4:                                @   in Loop: Header=BB5_3 Depth=1
	@DEBUG_VALUE: x509_info_subject_alt_name:buf <- [$sp+0]
	@DEBUG_VALUE: x509_info_subject_alt_name:size <- [DW_OP_plus_uconst 4] [$sp+0]
	@DEBUG_VALUE: x509_info_subject_alt_name:sep_len <- $r7
	@DEBUG_VALUE: x509_info_subject_alt_name:sep <- $r5
	@DEBUG_VALUE: x509_info_subject_alt_name:n <- $r4
	@DEBUG_VALUE: x509_info_subject_alt_name:p <- $r3
	@DEBUG_VALUE: x509_info_subject_alt_name:cur <- $r2
	@DEBUG_VALUE: x509_info_subject_alt_name:p <- $r3
	@DEBUG_VALUE: x509_info_subject_alt_name:n <- undef
	@DEBUG_VALUE: x509_info_subject_alt_name:i <- 0
	.loc	3 1445 9 is_stmt 1              @ ../../../ThirdParty/mbedTLS/library/x509_crt.c:1445:9
	lsls	r1, r1, #31
	beq	.LBB5_6
.Ltmp345:
.LBB5_5:                                @   Parent Loop BB5_3 Depth=1
                                        @ =>  This Inner Loop Header: Depth=2
	@DEBUG_VALUE: x509_info_subject_alt_name:buf <- [$sp+0]
	@DEBUG_VALUE: x509_info_subject_alt_name:size <- [DW_OP_plus_uconst 4] [$sp+0]
	@DEBUG_VALUE: x509_info_subject_alt_name:p <- $r3
	@DEBUG_VALUE: x509_info_subject_alt_name:cur <- $r2
	@DEBUG_VALUE: x509_info_subject_alt_name:p <- $r3
	@DEBUG_VALUE: x509_info_subject_alt_name:i <- undef
	.loc	3 1446 20                       @ ../../../ThirdParty/mbedTLS/library/x509_crt.c:1446:20
	ldrb	r1, [r5]
	.loc	3 1446 18 is_stmt 0             @ ../../../ThirdParty/mbedTLS/library/x509_crt.c:1446:18
	strb	r1, [r3]
	.loc	3 1445 23 is_stmt 1             @ ../../../ThirdParty/mbedTLS/library/x509_crt.c:1445:23
	adds	r5, r5, #1
.Ltmp346:
	@DEBUG_VALUE: x509_info_subject_alt_name:i <- [DW_OP_plus_uconst 1, DW_OP_stack_value] undef
	subs	r7, r7, #1
	.loc	3 1446 15                       @ ../../../ThirdParty/mbedTLS/library/x509_crt.c:1446:15
	adds	r3, r3, #1
.Ltmp347:
	@DEBUG_VALUE: x509_info_subject_alt_name:p <- $r3
	.loc	3 1445 9                        @ ../../../ThirdParty/mbedTLS/library/x509_crt.c:1445:9
	cmp	r7, #0
	bne	.LBB5_5
.Ltmp348:
.LBB5_6:                                @   in Loop: Header=BB5_3 Depth=1
	@DEBUG_VALUE: x509_info_subject_alt_name:buf <- [$sp+0]
	@DEBUG_VALUE: x509_info_subject_alt_name:size <- [DW_OP_plus_uconst 4] [$sp+0]
	@DEBUG_VALUE: x509_info_subject_alt_name:p <- $r3
	@DEBUG_VALUE: x509_info_subject_alt_name:cur <- $r2
	@DEBUG_VALUE: x509_info_subject_alt_name:p <- $r3
	@DEBUG_VALUE: x509_info_subject_alt_name:n <- undef
	@DEBUG_VALUE: x509_info_subject_alt_name:i <- 0
	.loc	3 1447 34                       @ ../../../ThirdParty/mbedTLS/library/x509_crt.c:1447:34
	ldr	r1, [r2, #4]
.Ltmp349:
	.loc	3 1447 9 is_stmt 0              @ ../../../ThirdParty/mbedTLS/library/x509_crt.c:1447:9
	cmp	r1, #0
	beq	.LBB5_2
.Ltmp350:
@ %bb.7:                                @   in Loop: Header=BB5_3 Depth=1
	@DEBUG_VALUE: x509_info_subject_alt_name:buf <- [$sp+0]
	@DEBUG_VALUE: x509_info_subject_alt_name:size <- [DW_OP_plus_uconst 4] [$sp+0]
	@DEBUG_VALUE: x509_info_subject_alt_name:p <- $r3
	@DEBUG_VALUE: x509_info_subject_alt_name:cur <- $r2
	@DEBUG_VALUE: x509_info_subject_alt_name:i <- 0
	.loc	3 0 9                           @ ../../../ThirdParty/mbedTLS/library/x509_crt.c:0:9
	movs	r1, #0
.Ltmp351:
.LBB5_8:                                @   Parent Loop BB5_3 Depth=1
                                        @ =>  This Inner Loop Header: Depth=2
	@DEBUG_VALUE: x509_info_subject_alt_name:buf <- [$sp+0]
	@DEBUG_VALUE: x509_info_subject_alt_name:size <- [DW_OP_plus_uconst 4] [$sp+0]
	@DEBUG_VALUE: x509_info_subject_alt_name:cur <- $r2
	@DEBUG_VALUE: x509_info_subject_alt_name:p <- undef
	@DEBUG_VALUE: x509_info_subject_alt_name:i <- $r1
	.loc	3 1448 29 is_stmt 1             @ ../../../ThirdParty/mbedTLS/library/x509_crt.c:1448:29
	ldr	r5, [r2, #8]
	.loc	3 1448 20 is_stmt 0             @ ../../../ThirdParty/mbedTLS/library/x509_crt.c:1448:20
	ldrb	r5, [r5, r1]
.Ltmp352:
	@DEBUG_VALUE: x509_info_subject_alt_name:p <- [DW_OP_plus_uconst 1, DW_OP_stack_value] undef
	.loc	3 1448 18                       @ ../../../ThirdParty/mbedTLS/library/x509_crt.c:1448:18
	strb	r5, [r3, r1]
	.loc	3 1447 40 is_stmt 1             @ ../../../ThirdParty/mbedTLS/library/x509_crt.c:1447:40
	adds	r1, r1, #1
.Ltmp353:
	@DEBUG_VALUE: x509_info_subject_alt_name:i <- $r1
	.loc	3 1447 34 is_stmt 0             @ ../../../ThirdParty/mbedTLS/library/x509_crt.c:1447:34
	ldr	r5, [r2, #4]
.Ltmp354:
	.loc	3 1447 9                        @ ../../../ThirdParty/mbedTLS/library/x509_crt.c:1447:9
	cmp	r1, r5
	blo	.LBB5_8
.Ltmp355:
@ %bb.9:                                @   in Loop: Header=BB5_3 Depth=1
	@DEBUG_VALUE: x509_info_subject_alt_name:buf <- [$sp+0]
	@DEBUG_VALUE: x509_info_subject_alt_name:size <- [DW_OP_plus_uconst 4] [$sp+0]
	@DEBUG_VALUE: x509_info_subject_alt_name:cur <- $r2
	@DEBUG_VALUE: x509_info_subject_alt_name:i <- $r1
	.loc	3 1453 20 is_stmt 1             @ ../../../ThirdParty/mbedTLS/library/x509_crt.c:1453:20
	adds	r3, r3, r1
	b	.LBB5_2
.Ltmp356:
.LBB5_10:
	@DEBUG_VALUE: x509_info_subject_alt_name:buf <- [$sp+0]
	@DEBUG_VALUE: x509_info_subject_alt_name:size <- [DW_OP_plus_uconst 4] [$sp+0]
	@DEBUG_VALUE: x509_info_subject_alt_name:n <- $r4
	@DEBUG_VALUE: x509_info_subject_alt_name:p <- $r3
	@DEBUG_VALUE: x509_info_subject_alt_name:cur <- $r2
	@DEBUG_VALUE: x509_info_subject_alt_name:p <- $r3
	@DEBUG_VALUE: x509_info_subject_alt_name:n <- $r4
	.loc	3 0 20 is_stmt 0                @ ../../../ThirdParty/mbedTLS/library/x509_crt.c:0:20
	movs	r2, #0
.Ltmp357:
	.loc	3 1456 8 is_stmt 1              @ ../../../ThirdParty/mbedTLS/library/x509_crt.c:1456:8
	strb	r2, [r3]
	.loc	3 1459 10                       @ ../../../ThirdParty/mbedTLS/library/x509_crt.c:1459:10
	ldr	r0, [sp]                        @ 4-byte Reload
.Ltmp358:
	@DEBUG_VALUE: x509_info_subject_alt_name:buf <- $r0
	str	r3, [r0]
	.loc	3 1458 11                       @ ../../../ThirdParty/mbedTLS/library/x509_crt.c:1458:11
	ldr	r0, [sp, #4]                    @ 4-byte Reload
.Ltmp359:
	@DEBUG_VALUE: x509_info_subject_alt_name:size <- $r0
	str	r4, [r0]
	b	.LBB5_12
.Ltmp360:
.LBB5_11:
	@DEBUG_VALUE: x509_info_subject_alt_name:buf <- [$sp+0]
	@DEBUG_VALUE: x509_info_subject_alt_name:size <- [DW_OP_plus_uconst 4] [$sp+0]
	@DEBUG_VALUE: x509_info_subject_alt_name:sep_len <- $r7
	@DEBUG_VALUE: x509_info_subject_alt_name:sep <- $r5
	@DEBUG_VALUE: x509_info_subject_alt_name:n <- $r4
	@DEBUG_VALUE: x509_info_subject_alt_name:p <- $r3
	@DEBUG_VALUE: x509_info_subject_alt_name:cur <- $r2
	@DEBUG_VALUE: x509_info_subject_alt_name:p <- $r3
	.loc	3 0 11 is_stmt 0                @ ../../../ThirdParty/mbedTLS/library/x509_crt.c:0:11
	movs	r0, #0
.Ltmp361:
	.loc	3 1440 16 is_stmt 1             @ ../../../ThirdParty/mbedTLS/library/x509_crt.c:1440:16
	strb	r0, [r3]
	ldr	r2, __arm_cp.5_1
.Ltmp362:
	@DEBUG_VALUE: x509_info_subject_alt_name:subject_alt_name <- [DW_OP_LLVM_entry_value 1] $r2
.LBB5_12:
	@DEBUG_VALUE: x509_info_subject_alt_name:n <- $r4
	@DEBUG_VALUE: x509_info_subject_alt_name:p <- $r3
	.loc	3 1462 1                        @ ../../../ThirdParty/mbedTLS/library/x509_crt.c:1462:1
	mov	r0, r2
	add	sp, #8
	pop	{r4, r5, r6, r7, pc}
.Ltmp363:
	.p2align	2
@ %bb.13:
	.loc	3 0 1 is_stmt 0                 @ ../../../ThirdParty/mbedTLS/library/x509_crt.c:0:1
__arm_cp.5_0:
	.long	.L.str.23
.Lcpi_end18:
	.size	__arm_cp.5_0, .Lcpi_end18-__arm_cp.5_0
__arm_cp.5_1:
	.long	4294956672                      @ 0xffffd680
.Lcpi_end19:
	.size	__arm_cp.5_1, .Lcpi_end19-__arm_cp.5_1
__arm_cp.5_2:
	.long	.L.str.24
.Lcpi_end20:
	.size	__arm_cp.5_2, .Lcpi_end20-__arm_cp.5_2
.Lfunc_end5:
	.size	x509_info_subject_alt_name, .Lfunc_end5-x509_info_subject_alt_name
	.cfi_endproc
	.cantunwind
	.fnend
                                        @ -- End function
	.section	.text.x509_info_cert_type,"ax",%progbits
	.p2align	2                               @ -- Begin function x509_info_cert_type
	.type	x509_info_cert_type,%function
	.code	16                              @ @x509_info_cert_type
	.thumb_func
x509_info_cert_type:
.Lfunc_begin6:
	.loc	3 1477 0 is_stmt 1              @ ../../../ThirdParty/mbedTLS/library/x509_crt.c:1477:0
	.fnstart
	.cfi_startproc
@ %bb.0:
	@DEBUG_VALUE: x509_info_cert_type:buf <- $r0
	@DEBUG_VALUE: x509_info_cert_type:size <- $r1
	@DEBUG_VALUE: x509_info_cert_type:ns_cert_type <- $r2
	.save	{r4, r5, r6, r7, lr}
	push	{r4, r5, r6, r7, lr}
	.cfi_def_cfa_offset 20
	.cfi_offset lr, -4
	.cfi_offset r7, -8
	.cfi_offset r6, -12
	.cfi_offset r5, -16
	.cfi_offset r4, -20
	.pad	#4
	sub	sp, #4
	.cfi_def_cfa_offset 24
	mov	r5, r2
	mov	r6, r0
.Ltmp364:
	@DEBUG_VALUE: x509_info_cert_type:ns_cert_type <- $r5
	@DEBUG_VALUE: x509_info_cert_type:size <- $r1
	@DEBUG_VALUE: x509_info_cert_type:buf <- $r6
	.loc	3 1480 15 prologue_end          @ ../../../ThirdParty/mbedTLS/library/x509_crt.c:1480:15
	ldr	r4, [r0]
.Ltmp365:
	@DEBUG_VALUE: x509_info_cert_type:p <- $r4
	.loc	3 0 15 is_stmt 0                @ ../../../ThirdParty/mbedTLS/library/x509_crt.c:0:15
	str	r1, [sp]                        @ 4-byte Spill
.Ltmp366:
	@DEBUG_VALUE: x509_info_cert_type:size <- [$sp+0]
	.loc	3 1479 16 is_stmt 1             @ ../../../ThirdParty/mbedTLS/library/x509_crt.c:1479:16
	ldr	r7, [r1]
.Ltmp367:
	@DEBUG_VALUE: x509_info_cert_type:n <- $r7
	.loc	3 1483 5                        @ ../../../ThirdParty/mbedTLS/library/x509_crt.c:1483:5
	lsls	r0, r2, #24
.Ltmp368:
	@DEBUG_VALUE: x509_info_cert_type:sep <- undef
	bmi	.LBB6_8
.Ltmp369:
@ %bb.1:
	@DEBUG_VALUE: x509_info_cert_type:n <- $r7
	@DEBUG_VALUE: x509_info_cert_type:buf <- $r6
	@DEBUG_VALUE: x509_info_cert_type:ns_cert_type <- $r5
	@DEBUG_VALUE: x509_info_cert_type:p <- $r4
	@DEBUG_VALUE: x509_info_cert_type:size <- [$sp+0]
	.loc	3 0 5 is_stmt 0                 @ ../../../ThirdParty/mbedTLS/library/x509_crt.c:0:5
	ldr	r3, __arm_cp.6_0
.Ltmp370:
	@DEBUG_VALUE: x509_info_cert_type:sep <- $r3
	@DEBUG_VALUE: x509_info_cert_type:p <- $r4
	@DEBUG_VALUE: x509_info_cert_type:n <- $r7
	@DEBUG_VALUE: x509_info_cert_type:sep <- $r3
	.loc	3 1484 5 is_stmt 1              @ ../../../ThirdParty/mbedTLS/library/x509_crt.c:1484:5
	lsls	r0, r5, #25
	bmi	.LBB6_11
.Ltmp371:
.LBB6_2:
	@DEBUG_VALUE: x509_info_cert_type:n <- $r7
	@DEBUG_VALUE: x509_info_cert_type:buf <- $r6
	@DEBUG_VALUE: x509_info_cert_type:ns_cert_type <- $r5
	@DEBUG_VALUE: x509_info_cert_type:p <- $r4
	@DEBUG_VALUE: x509_info_cert_type:sep <- $r3
	@DEBUG_VALUE: x509_info_cert_type:size <- [$sp+0]
	@DEBUG_VALUE: x509_info_cert_type:p <- $r4
	@DEBUG_VALUE: x509_info_cert_type:n <- $r7
	@DEBUG_VALUE: x509_info_cert_type:sep <- $r3
	.loc	3 1485 5                        @ ../../../ThirdParty/mbedTLS/library/x509_crt.c:1485:5
	lsls	r0, r5, #26
	bmi	.LBB6_14
.Ltmp372:
.LBB6_3:
	@DEBUG_VALUE: x509_info_cert_type:n <- $r7
	@DEBUG_VALUE: x509_info_cert_type:buf <- $r6
	@DEBUG_VALUE: x509_info_cert_type:ns_cert_type <- $r5
	@DEBUG_VALUE: x509_info_cert_type:p <- $r4
	@DEBUG_VALUE: x509_info_cert_type:sep <- $r3
	@DEBUG_VALUE: x509_info_cert_type:size <- [$sp+0]
	@DEBUG_VALUE: x509_info_cert_type:p <- $r4
	@DEBUG_VALUE: x509_info_cert_type:n <- $r7
	@DEBUG_VALUE: x509_info_cert_type:sep <- $r3
	.loc	3 1486 5                        @ ../../../ThirdParty/mbedTLS/library/x509_crt.c:1486:5
	lsls	r0, r5, #27
	bmi	.LBB6_17
.Ltmp373:
.LBB6_4:
	@DEBUG_VALUE: x509_info_cert_type:n <- $r7
	@DEBUG_VALUE: x509_info_cert_type:buf <- $r6
	@DEBUG_VALUE: x509_info_cert_type:ns_cert_type <- $r5
	@DEBUG_VALUE: x509_info_cert_type:p <- $r4
	@DEBUG_VALUE: x509_info_cert_type:sep <- $r3
	@DEBUG_VALUE: x509_info_cert_type:size <- [$sp+0]
	@DEBUG_VALUE: x509_info_cert_type:p <- $r4
	@DEBUG_VALUE: x509_info_cert_type:n <- $r7
	@DEBUG_VALUE: x509_info_cert_type:sep <- $r3
	.loc	3 1487 5                        @ ../../../ThirdParty/mbedTLS/library/x509_crt.c:1487:5
	lsls	r0, r5, #28
	bmi	.LBB6_20
.Ltmp374:
.LBB6_5:
	@DEBUG_VALUE: x509_info_cert_type:n <- $r7
	@DEBUG_VALUE: x509_info_cert_type:buf <- $r6
	@DEBUG_VALUE: x509_info_cert_type:ns_cert_type <- $r5
	@DEBUG_VALUE: x509_info_cert_type:p <- $r4
	@DEBUG_VALUE: x509_info_cert_type:sep <- $r3
	@DEBUG_VALUE: x509_info_cert_type:size <- [$sp+0]
	@DEBUG_VALUE: x509_info_cert_type:p <- $r4
	@DEBUG_VALUE: x509_info_cert_type:n <- $r7
	@DEBUG_VALUE: x509_info_cert_type:sep <- $r3
	.loc	3 1488 5                        @ ../../../ThirdParty/mbedTLS/library/x509_crt.c:1488:5
	lsls	r0, r5, #29
	bmi	.LBB6_23
.Ltmp375:
.LBB6_6:
	@DEBUG_VALUE: x509_info_cert_type:n <- $r7
	@DEBUG_VALUE: x509_info_cert_type:buf <- $r6
	@DEBUG_VALUE: x509_info_cert_type:ns_cert_type <- $r5
	@DEBUG_VALUE: x509_info_cert_type:p <- $r4
	@DEBUG_VALUE: x509_info_cert_type:sep <- $r3
	@DEBUG_VALUE: x509_info_cert_type:size <- [$sp+0]
	@DEBUG_VALUE: x509_info_cert_type:p <- $r4
	@DEBUG_VALUE: x509_info_cert_type:n <- $r7
	@DEBUG_VALUE: x509_info_cert_type:sep <- $r3
	.loc	3 1489 5                        @ ../../../ThirdParty/mbedTLS/library/x509_crt.c:1489:5
	lsls	r0, r5, #30
	bmi	.LBB6_26
.Ltmp376:
.LBB6_7:
	@DEBUG_VALUE: x509_info_cert_type:n <- $r7
	@DEBUG_VALUE: x509_info_cert_type:buf <- $r6
	@DEBUG_VALUE: x509_info_cert_type:ns_cert_type <- $r5
	@DEBUG_VALUE: x509_info_cert_type:p <- $r4
	@DEBUG_VALUE: x509_info_cert_type:sep <- $r3
	@DEBUG_VALUE: x509_info_cert_type:size <- [$sp+0]
	@DEBUG_VALUE: x509_info_cert_type:p <- $r4
	@DEBUG_VALUE: x509_info_cert_type:n <- $r7
	@DEBUG_VALUE: x509_info_cert_type:sep <- $r3
	.loc	3 1490 5                        @ ../../../ThirdParty/mbedTLS/library/x509_crt.c:1490:5
	lsls	r0, r5, #31
	bne	.LBB6_29
	b	.LBB6_32
.Ltmp377:
.LBB6_8:
	@DEBUG_VALUE: x509_info_cert_type:n <- $r7
	@DEBUG_VALUE: x509_info_cert_type:buf <- $r6
	@DEBUG_VALUE: x509_info_cert_type:ns_cert_type <- $r5
	@DEBUG_VALUE: x509_info_cert_type:p <- $r4
	@DEBUG_VALUE: x509_info_cert_type:size <- [$sp+0]
	.loc	3 1483 5                        @ ../../../ThirdParty/mbedTLS/library/x509_crt.c:1483:5
	adr	r2, .LCPI6_2
	ldr	r3, __arm_cp.6_0
	mov	r0, r4
	mov	r1, r7
	bl	__2snprintf
.Ltmp378:
	@DEBUG_VALUE: x509_info_cert_type:ret <- $r0
	.loc	3 1483 5 is_stmt 0              @ ../../../ThirdParty/mbedTLS/library/x509_crt.c:1483:5
	cmp	r0, #0
	bmi	.LBB6_33
.Ltmp379:
@ %bb.9:
	@DEBUG_VALUE: x509_info_cert_type:n <- $r7
	@DEBUG_VALUE: x509_info_cert_type:buf <- $r6
	@DEBUG_VALUE: x509_info_cert_type:ns_cert_type <- $r5
	@DEBUG_VALUE: x509_info_cert_type:p <- $r4
	@DEBUG_VALUE: x509_info_cert_type:ret <- $r0
	@DEBUG_VALUE: x509_info_cert_type:size <- [$sp+0]
	cmp	r7, r0
	bls	.LBB6_34
.Ltmp380:
@ %bb.10:
	@DEBUG_VALUE: x509_info_cert_type:n <- $r7
	@DEBUG_VALUE: x509_info_cert_type:buf <- $r6
	@DEBUG_VALUE: x509_info_cert_type:ns_cert_type <- $r5
	@DEBUG_VALUE: x509_info_cert_type:p <- $r4
	@DEBUG_VALUE: x509_info_cert_type:ret <- $r0
	@DEBUG_VALUE: x509_info_cert_type:size <- [$sp+0]
	.loc	3 1483 5                        @ ../../../ThirdParty/mbedTLS/library/x509_crt.c:1483:5
	adds	r4, r4, r0
.Ltmp381:
	@DEBUG_VALUE: x509_info_cert_type:p <- $r4
	subs	r7, r7, r0
.Ltmp382:
	@DEBUG_VALUE: x509_info_cert_type:n <- $r7
	.loc	3 0 5                           @ ../../../ThirdParty/mbedTLS/library/x509_crt.c:0:5
	ldr	r3, __arm_cp.6_3
.Ltmp383:
	@DEBUG_VALUE: x509_info_cert_type:sep <- $r3
	@DEBUG_VALUE: x509_info_cert_type:p <- $r4
	@DEBUG_VALUE: x509_info_cert_type:n <- $r7
	@DEBUG_VALUE: x509_info_cert_type:sep <- $r3
	.loc	3 1484 5 is_stmt 1              @ ../../../ThirdParty/mbedTLS/library/x509_crt.c:1484:5
	lsls	r0, r5, #25
.Ltmp384:
	bpl	.LBB6_2
.Ltmp385:
.LBB6_11:
	@DEBUG_VALUE: x509_info_cert_type:n <- $r7
	@DEBUG_VALUE: x509_info_cert_type:buf <- $r6
	@DEBUG_VALUE: x509_info_cert_type:ns_cert_type <- $r5
	@DEBUG_VALUE: x509_info_cert_type:p <- $r4
	@DEBUG_VALUE: x509_info_cert_type:sep <- $r3
	@DEBUG_VALUE: x509_info_cert_type:size <- [$sp+0]
	.loc	3 1484 5 is_stmt 0              @ ../../../ThirdParty/mbedTLS/library/x509_crt.c:1484:5
	adr	r2, .LCPI6_4
	mov	r0, r4
	mov	r1, r7
	bl	__2snprintf
.Ltmp386:
	@DEBUG_VALUE: x509_info_cert_type:ret <- $r0
	.loc	3 1484 5                        @ ../../../ThirdParty/mbedTLS/library/x509_crt.c:1484:5
	cmp	r0, #0
	bmi	.LBB6_35
.Ltmp387:
@ %bb.12:
	@DEBUG_VALUE: x509_info_cert_type:n <- $r7
	@DEBUG_VALUE: x509_info_cert_type:buf <- $r6
	@DEBUG_VALUE: x509_info_cert_type:ns_cert_type <- $r5
	@DEBUG_VALUE: x509_info_cert_type:p <- $r4
	@DEBUG_VALUE: x509_info_cert_type:ret <- $r0
	@DEBUG_VALUE: x509_info_cert_type:size <- [$sp+0]
	cmp	r7, r0
	bls	.LBB6_36
.Ltmp388:
@ %bb.13:
	@DEBUG_VALUE: x509_info_cert_type:n <- $r7
	@DEBUG_VALUE: x509_info_cert_type:buf <- $r6
	@DEBUG_VALUE: x509_info_cert_type:ns_cert_type <- $r5
	@DEBUG_VALUE: x509_info_cert_type:p <- $r4
	@DEBUG_VALUE: x509_info_cert_type:ret <- $r0
	@DEBUG_VALUE: x509_info_cert_type:size <- [$sp+0]
	.loc	3 1484 5                        @ ../../../ThirdParty/mbedTLS/library/x509_crt.c:1484:5
	adds	r4, r4, r0
.Ltmp389:
	@DEBUG_VALUE: x509_info_cert_type:p <- $r4
	subs	r7, r7, r0
.Ltmp390:
	@DEBUG_VALUE: x509_info_cert_type:n <- $r7
	.loc	3 0 5                           @ ../../../ThirdParty/mbedTLS/library/x509_crt.c:0:5
	ldr	r3, __arm_cp.6_3
.Ltmp391:
	@DEBUG_VALUE: x509_info_cert_type:sep <- $r3
	@DEBUG_VALUE: x509_info_cert_type:p <- $r4
	@DEBUG_VALUE: x509_info_cert_type:n <- $r7
	@DEBUG_VALUE: x509_info_cert_type:sep <- $r3
	.loc	3 1485 5 is_stmt 1              @ ../../../ThirdParty/mbedTLS/library/x509_crt.c:1485:5
	lsls	r0, r5, #26
.Ltmp392:
	bpl	.LBB6_3
.Ltmp393:
.LBB6_14:
	@DEBUG_VALUE: x509_info_cert_type:n <- $r7
	@DEBUG_VALUE: x509_info_cert_type:buf <- $r6
	@DEBUG_VALUE: x509_info_cert_type:ns_cert_type <- $r5
	@DEBUG_VALUE: x509_info_cert_type:p <- $r4
	@DEBUG_VALUE: x509_info_cert_type:sep <- $r3
	@DEBUG_VALUE: x509_info_cert_type:size <- [$sp+0]
	.loc	3 1485 5 is_stmt 0              @ ../../../ThirdParty/mbedTLS/library/x509_crt.c:1485:5
	adr	r2, .LCPI6_5
	mov	r0, r4
	mov	r1, r7
	bl	__2snprintf
.Ltmp394:
	@DEBUG_VALUE: x509_info_cert_type:ret <- $r0
	.loc	3 1485 5                        @ ../../../ThirdParty/mbedTLS/library/x509_crt.c:1485:5
	cmp	r0, #0
	bmi	.LBB6_37
.Ltmp395:
@ %bb.15:
	@DEBUG_VALUE: x509_info_cert_type:n <- $r7
	@DEBUG_VALUE: x509_info_cert_type:buf <- $r6
	@DEBUG_VALUE: x509_info_cert_type:ns_cert_type <- $r5
	@DEBUG_VALUE: x509_info_cert_type:p <- $r4
	@DEBUG_VALUE: x509_info_cert_type:ret <- $r0
	@DEBUG_VALUE: x509_info_cert_type:size <- [$sp+0]
	cmp	r7, r0
	bls	.LBB6_38
.Ltmp396:
@ %bb.16:
	@DEBUG_VALUE: x509_info_cert_type:n <- $r7
	@DEBUG_VALUE: x509_info_cert_type:buf <- $r6
	@DEBUG_VALUE: x509_info_cert_type:ns_cert_type <- $r5
	@DEBUG_VALUE: x509_info_cert_type:p <- $r4
	@DEBUG_VALUE: x509_info_cert_type:ret <- $r0
	@DEBUG_VALUE: x509_info_cert_type:size <- [$sp+0]
	.loc	3 1485 5                        @ ../../../ThirdParty/mbedTLS/library/x509_crt.c:1485:5
	adds	r4, r4, r0
.Ltmp397:
	@DEBUG_VALUE: x509_info_cert_type:p <- $r4
	subs	r7, r7, r0
.Ltmp398:
	@DEBUG_VALUE: x509_info_cert_type:n <- $r7
	.loc	3 0 5                           @ ../../../ThirdParty/mbedTLS/library/x509_crt.c:0:5
	ldr	r3, __arm_cp.6_3
.Ltmp399:
	@DEBUG_VALUE: x509_info_cert_type:sep <- $r3
	@DEBUG_VALUE: x509_info_cert_type:p <- $r4
	@DEBUG_VALUE: x509_info_cert_type:n <- $r7
	@DEBUG_VALUE: x509_info_cert_type:sep <- $r3
	.loc	3 1486 5 is_stmt 1              @ ../../../ThirdParty/mbedTLS/library/x509_crt.c:1486:5
	lsls	r0, r5, #27
.Ltmp400:
	bpl	.LBB6_4
.Ltmp401:
.LBB6_17:
	@DEBUG_VALUE: x509_info_cert_type:n <- $r7
	@DEBUG_VALUE: x509_info_cert_type:buf <- $r6
	@DEBUG_VALUE: x509_info_cert_type:ns_cert_type <- $r5
	@DEBUG_VALUE: x509_info_cert_type:p <- $r4
	@DEBUG_VALUE: x509_info_cert_type:sep <- $r3
	@DEBUG_VALUE: x509_info_cert_type:size <- [$sp+0]
	.loc	3 1486 5 is_stmt 0              @ ../../../ThirdParty/mbedTLS/library/x509_crt.c:1486:5
	adr	r2, .LCPI6_6
	mov	r0, r4
	mov	r1, r7
	bl	__2snprintf
.Ltmp402:
	@DEBUG_VALUE: x509_info_cert_type:ret <- $r0
	.loc	3 1486 5                        @ ../../../ThirdParty/mbedTLS/library/x509_crt.c:1486:5
	cmp	r0, #0
	bmi	.LBB6_39
.Ltmp403:
@ %bb.18:
	@DEBUG_VALUE: x509_info_cert_type:n <- $r7
	@DEBUG_VALUE: x509_info_cert_type:buf <- $r6
	@DEBUG_VALUE: x509_info_cert_type:ns_cert_type <- $r5
	@DEBUG_VALUE: x509_info_cert_type:p <- $r4
	@DEBUG_VALUE: x509_info_cert_type:ret <- $r0
	@DEBUG_VALUE: x509_info_cert_type:size <- [$sp+0]
	cmp	r7, r0
	bls	.LBB6_40
.Ltmp404:
@ %bb.19:
	@DEBUG_VALUE: x509_info_cert_type:n <- $r7
	@DEBUG_VALUE: x509_info_cert_type:buf <- $r6
	@DEBUG_VALUE: x509_info_cert_type:ns_cert_type <- $r5
	@DEBUG_VALUE: x509_info_cert_type:p <- $r4
	@DEBUG_VALUE: x509_info_cert_type:ret <- $r0
	@DEBUG_VALUE: x509_info_cert_type:size <- [$sp+0]
	.loc	3 1486 5                        @ ../../../ThirdParty/mbedTLS/library/x509_crt.c:1486:5
	adds	r4, r4, r0
.Ltmp405:
	@DEBUG_VALUE: x509_info_cert_type:p <- $r4
	subs	r7, r7, r0
.Ltmp406:
	@DEBUG_VALUE: x509_info_cert_type:n <- $r7
	.loc	3 0 5                           @ ../../../ThirdParty/mbedTLS/library/x509_crt.c:0:5
	ldr	r3, __arm_cp.6_3
.Ltmp407:
	@DEBUG_VALUE: x509_info_cert_type:sep <- $r3
	@DEBUG_VALUE: x509_info_cert_type:p <- $r4
	@DEBUG_VALUE: x509_info_cert_type:n <- $r7
	@DEBUG_VALUE: x509_info_cert_type:sep <- $r3
	.loc	3 1487 5 is_stmt 1              @ ../../../ThirdParty/mbedTLS/library/x509_crt.c:1487:5
	lsls	r0, r5, #28
.Ltmp408:
	bpl	.LBB6_5
.Ltmp409:
.LBB6_20:
	@DEBUG_VALUE: x509_info_cert_type:n <- $r7
	@DEBUG_VALUE: x509_info_cert_type:buf <- $r6
	@DEBUG_VALUE: x509_info_cert_type:ns_cert_type <- $r5
	@DEBUG_VALUE: x509_info_cert_type:p <- $r4
	@DEBUG_VALUE: x509_info_cert_type:sep <- $r3
	@DEBUG_VALUE: x509_info_cert_type:size <- [$sp+0]
	.loc	3 1487 5 is_stmt 0              @ ../../../ThirdParty/mbedTLS/library/x509_crt.c:1487:5
	adr	r2, .LCPI6_7
	mov	r0, r4
	mov	r1, r7
	bl	__2snprintf
.Ltmp410:
	@DEBUG_VALUE: x509_info_cert_type:ret <- $r0
	.loc	3 1487 5                        @ ../../../ThirdParty/mbedTLS/library/x509_crt.c:1487:5
	cmp	r0, #0
	bmi	.LBB6_41
.Ltmp411:
@ %bb.21:
	@DEBUG_VALUE: x509_info_cert_type:n <- $r7
	@DEBUG_VALUE: x509_info_cert_type:buf <- $r6
	@DEBUG_VALUE: x509_info_cert_type:ns_cert_type <- $r5
	@DEBUG_VALUE: x509_info_cert_type:p <- $r4
	@DEBUG_VALUE: x509_info_cert_type:ret <- $r0
	@DEBUG_VALUE: x509_info_cert_type:size <- [$sp+0]
	cmp	r7, r0
	bls	.LBB6_42
.Ltmp412:
@ %bb.22:
	@DEBUG_VALUE: x509_info_cert_type:n <- $r7
	@DEBUG_VALUE: x509_info_cert_type:buf <- $r6
	@DEBUG_VALUE: x509_info_cert_type:ns_cert_type <- $r5
	@DEBUG_VALUE: x509_info_cert_type:p <- $r4
	@DEBUG_VALUE: x509_info_cert_type:ret <- $r0
	@DEBUG_VALUE: x509_info_cert_type:size <- [$sp+0]
	.loc	3 1487 5                        @ ../../../ThirdParty/mbedTLS/library/x509_crt.c:1487:5
	adds	r4, r4, r0
.Ltmp413:
	@DEBUG_VALUE: x509_info_cert_type:p <- $r4
	subs	r7, r7, r0
.Ltmp414:
	@DEBUG_VALUE: x509_info_cert_type:n <- $r7
	.loc	3 0 5                           @ ../../../ThirdParty/mbedTLS/library/x509_crt.c:0:5
	ldr	r3, __arm_cp.6_3
.Ltmp415:
	@DEBUG_VALUE: x509_info_cert_type:sep <- $r3
	@DEBUG_VALUE: x509_info_cert_type:p <- $r4
	@DEBUG_VALUE: x509_info_cert_type:n <- $r7
	@DEBUG_VALUE: x509_info_cert_type:sep <- $r3
	.loc	3 1488 5 is_stmt 1              @ ../../../ThirdParty/mbedTLS/library/x509_crt.c:1488:5
	lsls	r0, r5, #29
.Ltmp416:
	bpl	.LBB6_6
.Ltmp417:
.LBB6_23:
	@DEBUG_VALUE: x509_info_cert_type:n <- $r7
	@DEBUG_VALUE: x509_info_cert_type:buf <- $r6
	@DEBUG_VALUE: x509_info_cert_type:ns_cert_type <- $r5
	@DEBUG_VALUE: x509_info_cert_type:p <- $r4
	@DEBUG_VALUE: x509_info_cert_type:sep <- $r3
	@DEBUG_VALUE: x509_info_cert_type:size <- [$sp+0]
	.loc	3 1488 5 is_stmt 0              @ ../../../ThirdParty/mbedTLS/library/x509_crt.c:1488:5
	adr	r2, .LCPI6_8
	mov	r0, r4
	mov	r1, r7
	bl	__2snprintf
.Ltmp418:
	@DEBUG_VALUE: x509_info_cert_type:ret <- $r0
	.loc	3 1488 5                        @ ../../../ThirdParty/mbedTLS/library/x509_crt.c:1488:5
	cmp	r0, #0
	bmi	.LBB6_43
.Ltmp419:
@ %bb.24:
	@DEBUG_VALUE: x509_info_cert_type:n <- $r7
	@DEBUG_VALUE: x509_info_cert_type:buf <- $r6
	@DEBUG_VALUE: x509_info_cert_type:ns_cert_type <- $r5
	@DEBUG_VALUE: x509_info_cert_type:p <- $r4
	@DEBUG_VALUE: x509_info_cert_type:ret <- $r0
	@DEBUG_VALUE: x509_info_cert_type:size <- [$sp+0]
	cmp	r7, r0
	bls	.LBB6_44
.Ltmp420:
@ %bb.25:
	@DEBUG_VALUE: x509_info_cert_type:n <- $r7
	@DEBUG_VALUE: x509_info_cert_type:buf <- $r6
	@DEBUG_VALUE: x509_info_cert_type:ns_cert_type <- $r5
	@DEBUG_VALUE: x509_info_cert_type:p <- $r4
	@DEBUG_VALUE: x509_info_cert_type:ret <- $r0
	@DEBUG_VALUE: x509_info_cert_type:size <- [$sp+0]
	.loc	3 1488 5                        @ ../../../ThirdParty/mbedTLS/library/x509_crt.c:1488:5
	adds	r4, r4, r0
.Ltmp421:
	@DEBUG_VALUE: x509_info_cert_type:p <- $r4
	subs	r7, r7, r0
.Ltmp422:
	@DEBUG_VALUE: x509_info_cert_type:n <- $r7
	.loc	3 0 5                           @ ../../../ThirdParty/mbedTLS/library/x509_crt.c:0:5
	ldr	r3, __arm_cp.6_3
.Ltmp423:
	@DEBUG_VALUE: x509_info_cert_type:sep <- $r3
	@DEBUG_VALUE: x509_info_cert_type:p <- $r4
	@DEBUG_VALUE: x509_info_cert_type:n <- $r7
	@DEBUG_VALUE: x509_info_cert_type:sep <- $r3
	.loc	3 1489 5 is_stmt 1              @ ../../../ThirdParty/mbedTLS/library/x509_crt.c:1489:5
	lsls	r0, r5, #30
.Ltmp424:
	bpl	.LBB6_7
.Ltmp425:
.LBB6_26:
	@DEBUG_VALUE: x509_info_cert_type:n <- $r7
	@DEBUG_VALUE: x509_info_cert_type:buf <- $r6
	@DEBUG_VALUE: x509_info_cert_type:ns_cert_type <- $r5
	@DEBUG_VALUE: x509_info_cert_type:p <- $r4
	@DEBUG_VALUE: x509_info_cert_type:sep <- $r3
	@DEBUG_VALUE: x509_info_cert_type:size <- [$sp+0]
	.loc	3 1489 5 is_stmt 0              @ ../../../ThirdParty/mbedTLS/library/x509_crt.c:1489:5
	adr	r2, .LCPI6_9
	mov	r0, r4
	mov	r1, r7
	bl	__2snprintf
.Ltmp426:
	@DEBUG_VALUE: x509_info_cert_type:ret <- $r0
	.loc	3 1489 5                        @ ../../../ThirdParty/mbedTLS/library/x509_crt.c:1489:5
	cmp	r0, #0
	bmi	.LBB6_45
.Ltmp427:
@ %bb.27:
	@DEBUG_VALUE: x509_info_cert_type:n <- $r7
	@DEBUG_VALUE: x509_info_cert_type:buf <- $r6
	@DEBUG_VALUE: x509_info_cert_type:ns_cert_type <- $r5
	@DEBUG_VALUE: x509_info_cert_type:p <- $r4
	@DEBUG_VALUE: x509_info_cert_type:ret <- $r0
	@DEBUG_VALUE: x509_info_cert_type:size <- [$sp+0]
	cmp	r7, r0
	bls	.LBB6_46
.Ltmp428:
@ %bb.28:
	@DEBUG_VALUE: x509_info_cert_type:n <- $r7
	@DEBUG_VALUE: x509_info_cert_type:buf <- $r6
	@DEBUG_VALUE: x509_info_cert_type:ns_cert_type <- $r5
	@DEBUG_VALUE: x509_info_cert_type:p <- $r4
	@DEBUG_VALUE: x509_info_cert_type:ret <- $r0
	@DEBUG_VALUE: x509_info_cert_type:size <- [$sp+0]
	.loc	3 1489 5                        @ ../../../ThirdParty/mbedTLS/library/x509_crt.c:1489:5
	adds	r4, r4, r0
.Ltmp429:
	@DEBUG_VALUE: x509_info_cert_type:p <- $r4
	subs	r7, r7, r0
.Ltmp430:
	@DEBUG_VALUE: x509_info_cert_type:n <- $r7
	.loc	3 0 5                           @ ../../../ThirdParty/mbedTLS/library/x509_crt.c:0:5
	ldr	r3, __arm_cp.6_3
.Ltmp431:
	@DEBUG_VALUE: x509_info_cert_type:sep <- $r3
	@DEBUG_VALUE: x509_info_cert_type:p <- $r4
	@DEBUG_VALUE: x509_info_cert_type:n <- $r7
	@DEBUG_VALUE: x509_info_cert_type:sep <- $r3
	.loc	3 1490 5 is_stmt 1              @ ../../../ThirdParty/mbedTLS/library/x509_crt.c:1490:5
	lsls	r0, r5, #31
.Ltmp432:
	beq	.LBB6_32
.Ltmp433:
.LBB6_29:
	@DEBUG_VALUE: x509_info_cert_type:n <- $r7
	@DEBUG_VALUE: x509_info_cert_type:buf <- $r6
	@DEBUG_VALUE: x509_info_cert_type:ns_cert_type <- $r5
	@DEBUG_VALUE: x509_info_cert_type:p <- $r4
	@DEBUG_VALUE: x509_info_cert_type:sep <- $r3
	@DEBUG_VALUE: x509_info_cert_type:size <- [$sp+0]
	.loc	3 1490 5 is_stmt 0              @ ../../../ThirdParty/mbedTLS/library/x509_crt.c:1490:5
	adr	r2, .LCPI6_10
	mov	r0, r4
	mov	r1, r7
	bl	__2snprintf
.Ltmp434:
	@DEBUG_VALUE: x509_info_cert_type:ret <- $r0
	.loc	3 1490 5                        @ ../../../ThirdParty/mbedTLS/library/x509_crt.c:1490:5
	cmp	r0, #0
	bmi	.LBB6_47
.Ltmp435:
@ %bb.30:
	@DEBUG_VALUE: x509_info_cert_type:n <- $r7
	@DEBUG_VALUE: x509_info_cert_type:buf <- $r6
	@DEBUG_VALUE: x509_info_cert_type:ns_cert_type <- $r5
	@DEBUG_VALUE: x509_info_cert_type:p <- $r4
	@DEBUG_VALUE: x509_info_cert_type:ret <- $r0
	@DEBUG_VALUE: x509_info_cert_type:size <- [$sp+0]
	cmp	r7, r0
	ldr	r1, __arm_cp.6_1
	bls	.LBB6_48
.Ltmp436:
@ %bb.31:
	@DEBUG_VALUE: x509_info_cert_type:n <- $r7
	@DEBUG_VALUE: x509_info_cert_type:buf <- $r6
	@DEBUG_VALUE: x509_info_cert_type:ns_cert_type <- $r5
	@DEBUG_VALUE: x509_info_cert_type:p <- $r4
	@DEBUG_VALUE: x509_info_cert_type:ret <- $r0
	@DEBUG_VALUE: x509_info_cert_type:size <- [$sp+0]
	.loc	3 1490 5                        @ ../../../ThirdParty/mbedTLS/library/x509_crt.c:1490:5
	adds	r4, r4, r0
.Ltmp437:
	@DEBUG_VALUE: x509_info_cert_type:p <- $r4
	subs	r7, r7, r0
.Ltmp438:
	@DEBUG_VALUE: x509_info_cert_type:sep <- undef
	@DEBUG_VALUE: x509_info_cert_type:n <- $r7
.LBB6_32:
	@DEBUG_VALUE: x509_info_cert_type:n <- $r7
	@DEBUG_VALUE: x509_info_cert_type:buf <- $r6
	@DEBUG_VALUE: x509_info_cert_type:ns_cert_type <- $r5
	@DEBUG_VALUE: x509_info_cert_type:p <- $r4
	@DEBUG_VALUE: x509_info_cert_type:size <- [$sp+0]
	.loc	3 0 5                           @ ../../../ThirdParty/mbedTLS/library/x509_crt.c:0:5
	ldr	r0, [sp]                        @ 4-byte Reload
	@DEBUG_VALUE: x509_info_cert_type:p <- $r4
	@DEBUG_VALUE: x509_info_cert_type:n <- $r7
	.loc	3 1493 10 is_stmt 1             @ ../../../ThirdParty/mbedTLS/library/x509_crt.c:1493:10
	str	r4, [r6]
	.loc	3 1492 11                       @ ../../../ThirdParty/mbedTLS/library/x509_crt.c:1492:11
	str	r7, [r0]
	movs	r1, #0
	b	.LBB6_48
.Ltmp439:
.LBB6_33:
	@DEBUG_VALUE: x509_info_cert_type:n <- $r7
	@DEBUG_VALUE: x509_info_cert_type:buf <- $r6
	@DEBUG_VALUE: x509_info_cert_type:ns_cert_type <- $r5
	@DEBUG_VALUE: x509_info_cert_type:p <- $r4
	@DEBUG_VALUE: x509_info_cert_type:ret <- $r0
	@DEBUG_VALUE: x509_info_cert_type:size <- [$sp+0]
	.loc	3 0 11 is_stmt 0                @ ../../../ThirdParty/mbedTLS/library/x509_crt.c:0:11
	ldr	r1, __arm_cp.6_1
	b	.LBB6_48
.Ltmp440:
.LBB6_34:
	@DEBUG_VALUE: x509_info_cert_type:n <- $r7
	@DEBUG_VALUE: x509_info_cert_type:buf <- $r6
	@DEBUG_VALUE: x509_info_cert_type:ns_cert_type <- $r5
	@DEBUG_VALUE: x509_info_cert_type:p <- $r4
	@DEBUG_VALUE: x509_info_cert_type:ret <- $r0
	@DEBUG_VALUE: x509_info_cert_type:size <- [$sp+0]
	ldr	r1, __arm_cp.6_1
	b	.LBB6_48
.Ltmp441:
.LBB6_35:
	@DEBUG_VALUE: x509_info_cert_type:n <- $r7
	@DEBUG_VALUE: x509_info_cert_type:buf <- $r6
	@DEBUG_VALUE: x509_info_cert_type:ns_cert_type <- $r5
	@DEBUG_VALUE: x509_info_cert_type:p <- $r4
	@DEBUG_VALUE: x509_info_cert_type:ret <- $r0
	@DEBUG_VALUE: x509_info_cert_type:size <- [$sp+0]
	ldr	r1, __arm_cp.6_1
	b	.LBB6_48
.Ltmp442:
.LBB6_36:
	@DEBUG_VALUE: x509_info_cert_type:n <- $r7
	@DEBUG_VALUE: x509_info_cert_type:buf <- $r6
	@DEBUG_VALUE: x509_info_cert_type:ns_cert_type <- $r5
	@DEBUG_VALUE: x509_info_cert_type:p <- $r4
	@DEBUG_VALUE: x509_info_cert_type:ret <- $r0
	@DEBUG_VALUE: x509_info_cert_type:size <- [$sp+0]
	ldr	r1, __arm_cp.6_1
	b	.LBB6_48
.Ltmp443:
.LBB6_37:
	@DEBUG_VALUE: x509_info_cert_type:n <- $r7
	@DEBUG_VALUE: x509_info_cert_type:buf <- $r6
	@DEBUG_VALUE: x509_info_cert_type:ns_cert_type <- $r5
	@DEBUG_VALUE: x509_info_cert_type:p <- $r4
	@DEBUG_VALUE: x509_info_cert_type:ret <- $r0
	@DEBUG_VALUE: x509_info_cert_type:size <- [$sp+0]
	ldr	r1, __arm_cp.6_1
	b	.LBB6_48
.Ltmp444:
.LBB6_38:
	@DEBUG_VALUE: x509_info_cert_type:n <- $r7
	@DEBUG_VALUE: x509_info_cert_type:buf <- $r6
	@DEBUG_VALUE: x509_info_cert_type:ns_cert_type <- $r5
	@DEBUG_VALUE: x509_info_cert_type:p <- $r4
	@DEBUG_VALUE: x509_info_cert_type:ret <- $r0
	@DEBUG_VALUE: x509_info_cert_type:size <- [$sp+0]
	ldr	r1, __arm_cp.6_1
	b	.LBB6_48
.Ltmp445:
.LBB6_39:
	@DEBUG_VALUE: x509_info_cert_type:n <- $r7
	@DEBUG_VALUE: x509_info_cert_type:buf <- $r6
	@DEBUG_VALUE: x509_info_cert_type:ns_cert_type <- $r5
	@DEBUG_VALUE: x509_info_cert_type:p <- $r4
	@DEBUG_VALUE: x509_info_cert_type:ret <- $r0
	@DEBUG_VALUE: x509_info_cert_type:size <- [$sp+0]
	ldr	r1, __arm_cp.6_1
	b	.LBB6_48
.Ltmp446:
.LBB6_40:
	@DEBUG_VALUE: x509_info_cert_type:n <- $r7
	@DEBUG_VALUE: x509_info_cert_type:buf <- $r6
	@DEBUG_VALUE: x509_info_cert_type:ns_cert_type <- $r5
	@DEBUG_VALUE: x509_info_cert_type:p <- $r4
	@DEBUG_VALUE: x509_info_cert_type:ret <- $r0
	@DEBUG_VALUE: x509_info_cert_type:size <- [$sp+0]
	ldr	r1, __arm_cp.6_1
	b	.LBB6_48
.Ltmp447:
.LBB6_41:
	@DEBUG_VALUE: x509_info_cert_type:n <- $r7
	@DEBUG_VALUE: x509_info_cert_type:buf <- $r6
	@DEBUG_VALUE: x509_info_cert_type:ns_cert_type <- $r5
	@DEBUG_VALUE: x509_info_cert_type:p <- $r4
	@DEBUG_VALUE: x509_info_cert_type:ret <- $r0
	@DEBUG_VALUE: x509_info_cert_type:size <- [$sp+0]
	ldr	r1, __arm_cp.6_1
	b	.LBB6_48
.Ltmp448:
.LBB6_42:
	@DEBUG_VALUE: x509_info_cert_type:n <- $r7
	@DEBUG_VALUE: x509_info_cert_type:buf <- $r6
	@DEBUG_VALUE: x509_info_cert_type:ns_cert_type <- $r5
	@DEBUG_VALUE: x509_info_cert_type:p <- $r4
	@DEBUG_VALUE: x509_info_cert_type:ret <- $r0
	@DEBUG_VALUE: x509_info_cert_type:size <- [$sp+0]
	ldr	r1, __arm_cp.6_1
	b	.LBB6_48
.Ltmp449:
.LBB6_43:
	@DEBUG_VALUE: x509_info_cert_type:n <- $r7
	@DEBUG_VALUE: x509_info_cert_type:buf <- $r6
	@DEBUG_VALUE: x509_info_cert_type:ns_cert_type <- $r5
	@DEBUG_VALUE: x509_info_cert_type:p <- $r4
	@DEBUG_VALUE: x509_info_cert_type:ret <- $r0
	@DEBUG_VALUE: x509_info_cert_type:size <- [$sp+0]
	ldr	r1, __arm_cp.6_1
	b	.LBB6_48
.Ltmp450:
.LBB6_44:
	@DEBUG_VALUE: x509_info_cert_type:n <- $r7
	@DEBUG_VALUE: x509_info_cert_type:buf <- $r6
	@DEBUG_VALUE: x509_info_cert_type:ns_cert_type <- $r5
	@DEBUG_VALUE: x509_info_cert_type:p <- $r4
	@DEBUG_VALUE: x509_info_cert_type:ret <- $r0
	@DEBUG_VALUE: x509_info_cert_type:size <- [$sp+0]
	ldr	r1, __arm_cp.6_1
	b	.LBB6_48
.Ltmp451:
.LBB6_45:
	@DEBUG_VALUE: x509_info_cert_type:n <- $r7
	@DEBUG_VALUE: x509_info_cert_type:buf <- $r6
	@DEBUG_VALUE: x509_info_cert_type:ns_cert_type <- $r5
	@DEBUG_VALUE: x509_info_cert_type:p <- $r4
	@DEBUG_VALUE: x509_info_cert_type:ret <- $r0
	@DEBUG_VALUE: x509_info_cert_type:size <- [$sp+0]
	ldr	r1, __arm_cp.6_1
	b	.LBB6_48
.Ltmp452:
.LBB6_46:
	@DEBUG_VALUE: x509_info_cert_type:n <- $r7
	@DEBUG_VALUE: x509_info_cert_type:buf <- $r6
	@DEBUG_VALUE: x509_info_cert_type:ns_cert_type <- $r5
	@DEBUG_VALUE: x509_info_cert_type:p <- $r4
	@DEBUG_VALUE: x509_info_cert_type:ret <- $r0
	@DEBUG_VALUE: x509_info_cert_type:size <- [$sp+0]
	ldr	r1, __arm_cp.6_1
	b	.LBB6_48
.Ltmp453:
.LBB6_47:
	@DEBUG_VALUE: x509_info_cert_type:n <- $r7
	@DEBUG_VALUE: x509_info_cert_type:buf <- $r6
	@DEBUG_VALUE: x509_info_cert_type:ns_cert_type <- $r5
	@DEBUG_VALUE: x509_info_cert_type:p <- $r4
	@DEBUG_VALUE: x509_info_cert_type:ret <- $r0
	@DEBUG_VALUE: x509_info_cert_type:size <- [$sp+0]
	ldr	r1, __arm_cp.6_1
.Ltmp454:
.LBB6_48:
	@DEBUG_VALUE: x509_info_cert_type:n <- $r7
	@DEBUG_VALUE: x509_info_cert_type:buf <- $r6
	@DEBUG_VALUE: x509_info_cert_type:ns_cert_type <- $r5
	@DEBUG_VALUE: x509_info_cert_type:p <- $r4
	@DEBUG_VALUE: x509_info_cert_type:size <- [$sp+0]
	.loc	3 1496 1 is_stmt 1              @ ../../../ThirdParty/mbedTLS/library/x509_crt.c:1496:1
	mov	r0, r1
	add	sp, #4
.Ltmp455:
	pop	{r4, r5, r6, r7, pc}
.Ltmp456:
	.p2align	2
@ %bb.49:
	.loc	3 0 1 is_stmt 0                 @ ../../../ThirdParty/mbedTLS/library/x509_crt.c:0:1
__arm_cp.6_0:
	.long	.L.str.23
.Lcpi_end21:
	.size	__arm_cp.6_0, .Lcpi_end21-__arm_cp.6_0
__arm_cp.6_1:
	.long	4294956672                      @ 0xffffd680
.Lcpi_end22:
	.size	__arm_cp.6_1, .Lcpi_end22-__arm_cp.6_1
.LCPI6_2:
.L.str.25:
	.asciz	"%sSSL Client\000\000\000"
__arm_cp.6_3:
	.long	.L.str.24
.Lcpi_end23:
	.size	__arm_cp.6_3, .Lcpi_end23-__arm_cp.6_3
.LCPI6_4:
.L.str.26:
	.asciz	"%sSSL Server\000\000\000"
.LCPI6_5:
.L.str.27:
	.asciz	"%sEmail"
.LCPI6_6:
.L.str.28:
	.asciz	"%sObject Signing\000\000\000"
.LCPI6_7:
.L.str.29:
	.asciz	"%sReserved\000"
.LCPI6_8:
.L.str.30:
	.asciz	"%sSSL CA\000\000\000"
.LCPI6_9:
.L.str.31:
	.asciz	"%sEmail CA\000"
.LCPI6_10:
.L.str.32:
	.asciz	"%sObject Signing CA"
.Lfunc_end6:
	.size	x509_info_cert_type, .Lfunc_end6-x509_info_cert_type
	.cfi_endproc
	.cantunwind
	.fnend
                                        @ -- End function
	.section	.text.x509_info_key_usage,"ax",%progbits
	.p2align	2                               @ -- Begin function x509_info_key_usage
	.type	x509_info_key_usage,%function
	.code	16                              @ @x509_info_key_usage
	.thumb_func
x509_info_key_usage:
.Lfunc_begin7:
	.loc	3 1504 0 is_stmt 1              @ ../../../ThirdParty/mbedTLS/library/x509_crt.c:1504:0
	.fnstart
	.cfi_startproc
@ %bb.0:
	@DEBUG_VALUE: x509_info_key_usage:buf <- $r0
	@DEBUG_VALUE: x509_info_key_usage:size <- $r1
	@DEBUG_VALUE: x509_info_key_usage:key_usage <- $r2
	.save	{r4, r5, r6, r7, lr}
	push	{r4, r5, r6, r7, lr}
	.cfi_def_cfa_offset 20
	.cfi_offset lr, -4
	.cfi_offset r7, -8
	.cfi_offset r6, -12
	.cfi_offset r5, -16
	.cfi_offset r4, -20
	.pad	#4
	sub	sp, #4
	.cfi_def_cfa_offset 24
	mov	r5, r2
	mov	r6, r0
.Ltmp457:
	@DEBUG_VALUE: x509_info_key_usage:key_usage <- $r5
	@DEBUG_VALUE: x509_info_key_usage:size <- $r1
	@DEBUG_VALUE: x509_info_key_usage:buf <- $r6
	.loc	3 1507 15 prologue_end          @ ../../../ThirdParty/mbedTLS/library/x509_crt.c:1507:15
	ldr	r4, [r0]
.Ltmp458:
	@DEBUG_VALUE: x509_info_key_usage:p <- $r4
	.loc	3 0 15 is_stmt 0                @ ../../../ThirdParty/mbedTLS/library/x509_crt.c:0:15
	str	r1, [sp]                        @ 4-byte Spill
.Ltmp459:
	@DEBUG_VALUE: x509_info_key_usage:size <- [$sp+0]
	.loc	3 1506 16 is_stmt 1             @ ../../../ThirdParty/mbedTLS/library/x509_crt.c:1506:16
	ldr	r7, [r1]
.Ltmp460:
	@DEBUG_VALUE: x509_info_key_usage:n <- $r7
	.loc	3 1510 5                        @ ../../../ThirdParty/mbedTLS/library/x509_crt.c:1510:5
	lsls	r0, r2, #24
.Ltmp461:
	@DEBUG_VALUE: x509_info_key_usage:sep <- undef
	bmi	.LBB7_9
.Ltmp462:
@ %bb.1:
	@DEBUG_VALUE: x509_info_key_usage:n <- $r7
	@DEBUG_VALUE: x509_info_key_usage:buf <- $r6
	@DEBUG_VALUE: x509_info_key_usage:key_usage <- $r5
	@DEBUG_VALUE: x509_info_key_usage:p <- $r4
	@DEBUG_VALUE: x509_info_key_usage:size <- [$sp+0]
	.loc	3 0 5 is_stmt 0                 @ ../../../ThirdParty/mbedTLS/library/x509_crt.c:0:5
	ldr	r3, __arm_cp.7_0
.Ltmp463:
	@DEBUG_VALUE: x509_info_key_usage:sep <- $r3
	@DEBUG_VALUE: x509_info_key_usage:p <- $r4
	@DEBUG_VALUE: x509_info_key_usage:n <- $r7
	@DEBUG_VALUE: x509_info_key_usage:sep <- $r3
	.loc	3 1511 5 is_stmt 1              @ ../../../ThirdParty/mbedTLS/library/x509_crt.c:1511:5
	lsls	r0, r5, #25
	bmi	.LBB7_12
.Ltmp464:
.LBB7_2:
	@DEBUG_VALUE: x509_info_key_usage:n <- $r7
	@DEBUG_VALUE: x509_info_key_usage:buf <- $r6
	@DEBUG_VALUE: x509_info_key_usage:key_usage <- $r5
	@DEBUG_VALUE: x509_info_key_usage:p <- $r4
	@DEBUG_VALUE: x509_info_key_usage:sep <- $r3
	@DEBUG_VALUE: x509_info_key_usage:size <- [$sp+0]
	@DEBUG_VALUE: x509_info_key_usage:p <- $r4
	@DEBUG_VALUE: x509_info_key_usage:n <- $r7
	@DEBUG_VALUE: x509_info_key_usage:sep <- $r3
	.loc	3 1512 5                        @ ../../../ThirdParty/mbedTLS/library/x509_crt.c:1512:5
	lsls	r0, r5, #26
	bmi	.LBB7_15
.Ltmp465:
.LBB7_3:
	@DEBUG_VALUE: x509_info_key_usage:n <- $r7
	@DEBUG_VALUE: x509_info_key_usage:buf <- $r6
	@DEBUG_VALUE: x509_info_key_usage:key_usage <- $r5
	@DEBUG_VALUE: x509_info_key_usage:p <- $r4
	@DEBUG_VALUE: x509_info_key_usage:sep <- $r3
	@DEBUG_VALUE: x509_info_key_usage:size <- [$sp+0]
	@DEBUG_VALUE: x509_info_key_usage:p <- $r4
	@DEBUG_VALUE: x509_info_key_usage:n <- $r7
	@DEBUG_VALUE: x509_info_key_usage:sep <- $r3
	.loc	3 1513 5                        @ ../../../ThirdParty/mbedTLS/library/x509_crt.c:1513:5
	lsls	r0, r5, #27
	bmi	.LBB7_18
.Ltmp466:
.LBB7_4:
	@DEBUG_VALUE: x509_info_key_usage:n <- $r7
	@DEBUG_VALUE: x509_info_key_usage:buf <- $r6
	@DEBUG_VALUE: x509_info_key_usage:key_usage <- $r5
	@DEBUG_VALUE: x509_info_key_usage:p <- $r4
	@DEBUG_VALUE: x509_info_key_usage:sep <- $r3
	@DEBUG_VALUE: x509_info_key_usage:size <- [$sp+0]
	@DEBUG_VALUE: x509_info_key_usage:p <- $r4
	@DEBUG_VALUE: x509_info_key_usage:n <- $r7
	@DEBUG_VALUE: x509_info_key_usage:sep <- $r3
	.loc	3 1514 5                        @ ../../../ThirdParty/mbedTLS/library/x509_crt.c:1514:5
	lsls	r0, r5, #28
	bmi	.LBB7_21
.Ltmp467:
.LBB7_5:
	@DEBUG_VALUE: x509_info_key_usage:n <- $r7
	@DEBUG_VALUE: x509_info_key_usage:buf <- $r6
	@DEBUG_VALUE: x509_info_key_usage:key_usage <- $r5
	@DEBUG_VALUE: x509_info_key_usage:p <- $r4
	@DEBUG_VALUE: x509_info_key_usage:sep <- $r3
	@DEBUG_VALUE: x509_info_key_usage:size <- [$sp+0]
	@DEBUG_VALUE: x509_info_key_usage:p <- $r4
	@DEBUG_VALUE: x509_info_key_usage:n <- $r7
	@DEBUG_VALUE: x509_info_key_usage:sep <- $r3
	.loc	3 1515 5                        @ ../../../ThirdParty/mbedTLS/library/x509_crt.c:1515:5
	lsls	r0, r5, #29
	bmi	.LBB7_24
.Ltmp468:
.LBB7_6:
	@DEBUG_VALUE: x509_info_key_usage:n <- $r7
	@DEBUG_VALUE: x509_info_key_usage:buf <- $r6
	@DEBUG_VALUE: x509_info_key_usage:key_usage <- $r5
	@DEBUG_VALUE: x509_info_key_usage:p <- $r4
	@DEBUG_VALUE: x509_info_key_usage:sep <- $r3
	@DEBUG_VALUE: x509_info_key_usage:size <- [$sp+0]
	@DEBUG_VALUE: x509_info_key_usage:p <- $r4
	@DEBUG_VALUE: x509_info_key_usage:n <- $r7
	@DEBUG_VALUE: x509_info_key_usage:sep <- $r3
	.loc	3 1516 5                        @ ../../../ThirdParty/mbedTLS/library/x509_crt.c:1516:5
	lsls	r0, r5, #30
	bmi	.LBB7_27
.Ltmp469:
.LBB7_7:
	@DEBUG_VALUE: x509_info_key_usage:n <- $r7
	@DEBUG_VALUE: x509_info_key_usage:buf <- $r6
	@DEBUG_VALUE: x509_info_key_usage:key_usage <- $r5
	@DEBUG_VALUE: x509_info_key_usage:p <- $r4
	@DEBUG_VALUE: x509_info_key_usage:sep <- $r3
	@DEBUG_VALUE: x509_info_key_usage:size <- [$sp+0]
	@DEBUG_VALUE: x509_info_key_usage:p <- $r4
	@DEBUG_VALUE: x509_info_key_usage:n <- $r7
	@DEBUG_VALUE: x509_info_key_usage:sep <- $r3
	.loc	3 1517 5                        @ ../../../ThirdParty/mbedTLS/library/x509_crt.c:1517:5
	lsls	r0, r5, #31
	bne	.LBB7_30
.Ltmp470:
.LBB7_8:
	@DEBUG_VALUE: x509_info_key_usage:n <- $r7
	@DEBUG_VALUE: x509_info_key_usage:buf <- $r6
	@DEBUG_VALUE: x509_info_key_usage:key_usage <- $r5
	@DEBUG_VALUE: x509_info_key_usage:p <- $r4
	@DEBUG_VALUE: x509_info_key_usage:sep <- $r3
	@DEBUG_VALUE: x509_info_key_usage:size <- [$sp+0]
	@DEBUG_VALUE: x509_info_key_usage:p <- $r4
	@DEBUG_VALUE: x509_info_key_usage:n <- $r7
	@DEBUG_VALUE: x509_info_key_usage:sep <- $r3
	.loc	3 1518 5                        @ ../../../ThirdParty/mbedTLS/library/x509_crt.c:1518:5
	lsls	r0, r5, #16
	bmi	.LBB7_33
	b	.LBB7_36
.Ltmp471:
.LBB7_9:
	@DEBUG_VALUE: x509_info_key_usage:n <- $r7
	@DEBUG_VALUE: x509_info_key_usage:buf <- $r6
	@DEBUG_VALUE: x509_info_key_usage:key_usage <- $r5
	@DEBUG_VALUE: x509_info_key_usage:p <- $r4
	@DEBUG_VALUE: x509_info_key_usage:size <- [$sp+0]
	.loc	3 1510 5                        @ ../../../ThirdParty/mbedTLS/library/x509_crt.c:1510:5
	adr	r2, .LCPI7_2
	ldr	r3, __arm_cp.7_0
	mov	r0, r4
	mov	r1, r7
	bl	__2snprintf
.Ltmp472:
	@DEBUG_VALUE: x509_info_key_usage:ret <- $r0
	.loc	3 1510 5 is_stmt 0              @ ../../../ThirdParty/mbedTLS/library/x509_crt.c:1510:5
	cmp	r0, #0
	bmi	.LBB7_37
.Ltmp473:
@ %bb.10:
	@DEBUG_VALUE: x509_info_key_usage:n <- $r7
	@DEBUG_VALUE: x509_info_key_usage:buf <- $r6
	@DEBUG_VALUE: x509_info_key_usage:key_usage <- $r5
	@DEBUG_VALUE: x509_info_key_usage:p <- $r4
	@DEBUG_VALUE: x509_info_key_usage:ret <- $r0
	@DEBUG_VALUE: x509_info_key_usage:size <- [$sp+0]
	cmp	r7, r0
	bls	.LBB7_38
.Ltmp474:
@ %bb.11:
	@DEBUG_VALUE: x509_info_key_usage:n <- $r7
	@DEBUG_VALUE: x509_info_key_usage:buf <- $r6
	@DEBUG_VALUE: x509_info_key_usage:key_usage <- $r5
	@DEBUG_VALUE: x509_info_key_usage:p <- $r4
	@DEBUG_VALUE: x509_info_key_usage:ret <- $r0
	@DEBUG_VALUE: x509_info_key_usage:size <- [$sp+0]
	.loc	3 1510 5                        @ ../../../ThirdParty/mbedTLS/library/x509_crt.c:1510:5
	adds	r4, r4, r0
.Ltmp475:
	@DEBUG_VALUE: x509_info_key_usage:p <- $r4
	subs	r7, r7, r0
.Ltmp476:
	@DEBUG_VALUE: x509_info_key_usage:n <- $r7
	.loc	3 0 5                           @ ../../../ThirdParty/mbedTLS/library/x509_crt.c:0:5
	ldr	r3, __arm_cp.7_3
.Ltmp477:
	@DEBUG_VALUE: x509_info_key_usage:sep <- $r3
	@DEBUG_VALUE: x509_info_key_usage:p <- $r4
	@DEBUG_VALUE: x509_info_key_usage:n <- $r7
	@DEBUG_VALUE: x509_info_key_usage:sep <- $r3
	.loc	3 1511 5 is_stmt 1              @ ../../../ThirdParty/mbedTLS/library/x509_crt.c:1511:5
	lsls	r0, r5, #25
.Ltmp478:
	bpl	.LBB7_2
.Ltmp479:
.LBB7_12:
	@DEBUG_VALUE: x509_info_key_usage:n <- $r7
	@DEBUG_VALUE: x509_info_key_usage:buf <- $r6
	@DEBUG_VALUE: x509_info_key_usage:key_usage <- $r5
	@DEBUG_VALUE: x509_info_key_usage:p <- $r4
	@DEBUG_VALUE: x509_info_key_usage:sep <- $r3
	@DEBUG_VALUE: x509_info_key_usage:size <- [$sp+0]
	.loc	3 1511 5 is_stmt 0              @ ../../../ThirdParty/mbedTLS/library/x509_crt.c:1511:5
	adr	r2, .LCPI7_4
	mov	r0, r4
	mov	r1, r7
	bl	__2snprintf
.Ltmp480:
	@DEBUG_VALUE: x509_info_key_usage:ret <- $r0
	.loc	3 1511 5                        @ ../../../ThirdParty/mbedTLS/library/x509_crt.c:1511:5
	cmp	r0, #0
	bmi	.LBB7_39
.Ltmp481:
@ %bb.13:
	@DEBUG_VALUE: x509_info_key_usage:n <- $r7
	@DEBUG_VALUE: x509_info_key_usage:buf <- $r6
	@DEBUG_VALUE: x509_info_key_usage:key_usage <- $r5
	@DEBUG_VALUE: x509_info_key_usage:p <- $r4
	@DEBUG_VALUE: x509_info_key_usage:ret <- $r0
	@DEBUG_VALUE: x509_info_key_usage:size <- [$sp+0]
	cmp	r7, r0
	bls	.LBB7_40
.Ltmp482:
@ %bb.14:
	@DEBUG_VALUE: x509_info_key_usage:n <- $r7
	@DEBUG_VALUE: x509_info_key_usage:buf <- $r6
	@DEBUG_VALUE: x509_info_key_usage:key_usage <- $r5
	@DEBUG_VALUE: x509_info_key_usage:p <- $r4
	@DEBUG_VALUE: x509_info_key_usage:ret <- $r0
	@DEBUG_VALUE: x509_info_key_usage:size <- [$sp+0]
	.loc	3 1511 5                        @ ../../../ThirdParty/mbedTLS/library/x509_crt.c:1511:5
	adds	r4, r4, r0
.Ltmp483:
	@DEBUG_VALUE: x509_info_key_usage:p <- $r4
	subs	r7, r7, r0
.Ltmp484:
	@DEBUG_VALUE: x509_info_key_usage:n <- $r7
	.loc	3 0 5                           @ ../../../ThirdParty/mbedTLS/library/x509_crt.c:0:5
	ldr	r3, __arm_cp.7_3
.Ltmp485:
	@DEBUG_VALUE: x509_info_key_usage:sep <- $r3
	@DEBUG_VALUE: x509_info_key_usage:p <- $r4
	@DEBUG_VALUE: x509_info_key_usage:n <- $r7
	@DEBUG_VALUE: x509_info_key_usage:sep <- $r3
	.loc	3 1512 5 is_stmt 1              @ ../../../ThirdParty/mbedTLS/library/x509_crt.c:1512:5
	lsls	r0, r5, #26
.Ltmp486:
	bpl	.LBB7_3
.Ltmp487:
.LBB7_15:
	@DEBUG_VALUE: x509_info_key_usage:n <- $r7
	@DEBUG_VALUE: x509_info_key_usage:buf <- $r6
	@DEBUG_VALUE: x509_info_key_usage:key_usage <- $r5
	@DEBUG_VALUE: x509_info_key_usage:p <- $r4
	@DEBUG_VALUE: x509_info_key_usage:sep <- $r3
	@DEBUG_VALUE: x509_info_key_usage:size <- [$sp+0]
	.loc	3 1512 5 is_stmt 0              @ ../../../ThirdParty/mbedTLS/library/x509_crt.c:1512:5
	adr	r2, .LCPI7_5
	mov	r0, r4
	mov	r1, r7
	bl	__2snprintf
.Ltmp488:
	@DEBUG_VALUE: x509_info_key_usage:ret <- $r0
	.loc	3 1512 5                        @ ../../../ThirdParty/mbedTLS/library/x509_crt.c:1512:5
	cmp	r0, #0
	bmi	.LBB7_41
.Ltmp489:
@ %bb.16:
	@DEBUG_VALUE: x509_info_key_usage:n <- $r7
	@DEBUG_VALUE: x509_info_key_usage:buf <- $r6
	@DEBUG_VALUE: x509_info_key_usage:key_usage <- $r5
	@DEBUG_VALUE: x509_info_key_usage:p <- $r4
	@DEBUG_VALUE: x509_info_key_usage:ret <- $r0
	@DEBUG_VALUE: x509_info_key_usage:size <- [$sp+0]
	cmp	r7, r0
	bls	.LBB7_42
.Ltmp490:
@ %bb.17:
	@DEBUG_VALUE: x509_info_key_usage:n <- $r7
	@DEBUG_VALUE: x509_info_key_usage:buf <- $r6
	@DEBUG_VALUE: x509_info_key_usage:key_usage <- $r5
	@DEBUG_VALUE: x509_info_key_usage:p <- $r4
	@DEBUG_VALUE: x509_info_key_usage:ret <- $r0
	@DEBUG_VALUE: x509_info_key_usage:size <- [$sp+0]
	.loc	3 1512 5                        @ ../../../ThirdParty/mbedTLS/library/x509_crt.c:1512:5
	adds	r4, r4, r0
.Ltmp491:
	@DEBUG_VALUE: x509_info_key_usage:p <- $r4
	subs	r7, r7, r0
.Ltmp492:
	@DEBUG_VALUE: x509_info_key_usage:n <- $r7
	.loc	3 0 5                           @ ../../../ThirdParty/mbedTLS/library/x509_crt.c:0:5
	ldr	r3, __arm_cp.7_3
.Ltmp493:
	@DEBUG_VALUE: x509_info_key_usage:sep <- $r3
	@DEBUG_VALUE: x509_info_key_usage:p <- $r4
	@DEBUG_VALUE: x509_info_key_usage:n <- $r7
	@DEBUG_VALUE: x509_info_key_usage:sep <- $r3
	.loc	3 1513 5 is_stmt 1              @ ../../../ThirdParty/mbedTLS/library/x509_crt.c:1513:5
	lsls	r0, r5, #27
.Ltmp494:
	bpl	.LBB7_4
.Ltmp495:
.LBB7_18:
	@DEBUG_VALUE: x509_info_key_usage:n <- $r7
	@DEBUG_VALUE: x509_info_key_usage:buf <- $r6
	@DEBUG_VALUE: x509_info_key_usage:key_usage <- $r5
	@DEBUG_VALUE: x509_info_key_usage:p <- $r4
	@DEBUG_VALUE: x509_info_key_usage:sep <- $r3
	@DEBUG_VALUE: x509_info_key_usage:size <- [$sp+0]
	.loc	3 1513 5 is_stmt 0              @ ../../../ThirdParty/mbedTLS/library/x509_crt.c:1513:5
	adr	r2, .LCPI7_6
	mov	r0, r4
	mov	r1, r7
	bl	__2snprintf
.Ltmp496:
	@DEBUG_VALUE: x509_info_key_usage:ret <- $r0
	.loc	3 1513 5                        @ ../../../ThirdParty/mbedTLS/library/x509_crt.c:1513:5
	cmp	r0, #0
	bmi	.LBB7_43
.Ltmp497:
@ %bb.19:
	@DEBUG_VALUE: x509_info_key_usage:n <- $r7
	@DEBUG_VALUE: x509_info_key_usage:buf <- $r6
	@DEBUG_VALUE: x509_info_key_usage:key_usage <- $r5
	@DEBUG_VALUE: x509_info_key_usage:p <- $r4
	@DEBUG_VALUE: x509_info_key_usage:ret <- $r0
	@DEBUG_VALUE: x509_info_key_usage:size <- [$sp+0]
	cmp	r7, r0
	bls	.LBB7_44
.Ltmp498:
@ %bb.20:
	@DEBUG_VALUE: x509_info_key_usage:n <- $r7
	@DEBUG_VALUE: x509_info_key_usage:buf <- $r6
	@DEBUG_VALUE: x509_info_key_usage:key_usage <- $r5
	@DEBUG_VALUE: x509_info_key_usage:p <- $r4
	@DEBUG_VALUE: x509_info_key_usage:ret <- $r0
	@DEBUG_VALUE: x509_info_key_usage:size <- [$sp+0]
	.loc	3 1513 5                        @ ../../../ThirdParty/mbedTLS/library/x509_crt.c:1513:5
	adds	r4, r4, r0
.Ltmp499:
	@DEBUG_VALUE: x509_info_key_usage:p <- $r4
	subs	r7, r7, r0
.Ltmp500:
	@DEBUG_VALUE: x509_info_key_usage:n <- $r7
	.loc	3 0 5                           @ ../../../ThirdParty/mbedTLS/library/x509_crt.c:0:5
	ldr	r3, __arm_cp.7_3
.Ltmp501:
	@DEBUG_VALUE: x509_info_key_usage:sep <- $r3
	@DEBUG_VALUE: x509_info_key_usage:p <- $r4
	@DEBUG_VALUE: x509_info_key_usage:n <- $r7
	@DEBUG_VALUE: x509_info_key_usage:sep <- $r3
	.loc	3 1514 5 is_stmt 1              @ ../../../ThirdParty/mbedTLS/library/x509_crt.c:1514:5
	lsls	r0, r5, #28
.Ltmp502:
	bpl	.LBB7_5
.Ltmp503:
.LBB7_21:
	@DEBUG_VALUE: x509_info_key_usage:n <- $r7
	@DEBUG_VALUE: x509_info_key_usage:buf <- $r6
	@DEBUG_VALUE: x509_info_key_usage:key_usage <- $r5
	@DEBUG_VALUE: x509_info_key_usage:p <- $r4
	@DEBUG_VALUE: x509_info_key_usage:sep <- $r3
	@DEBUG_VALUE: x509_info_key_usage:size <- [$sp+0]
	.loc	3 1514 5 is_stmt 0              @ ../../../ThirdParty/mbedTLS/library/x509_crt.c:1514:5
	adr	r2, .LCPI7_7
	mov	r0, r4
	mov	r1, r7
	bl	__2snprintf
.Ltmp504:
	@DEBUG_VALUE: x509_info_key_usage:ret <- $r0
	.loc	3 1514 5                        @ ../../../ThirdParty/mbedTLS/library/x509_crt.c:1514:5
	cmp	r0, #0
	bmi	.LBB7_45
.Ltmp505:
@ %bb.22:
	@DEBUG_VALUE: x509_info_key_usage:n <- $r7
	@DEBUG_VALUE: x509_info_key_usage:buf <- $r6
	@DEBUG_VALUE: x509_info_key_usage:key_usage <- $r5
	@DEBUG_VALUE: x509_info_key_usage:p <- $r4
	@DEBUG_VALUE: x509_info_key_usage:ret <- $r0
	@DEBUG_VALUE: x509_info_key_usage:size <- [$sp+0]
	cmp	r7, r0
	bls	.LBB7_46
.Ltmp506:
@ %bb.23:
	@DEBUG_VALUE: x509_info_key_usage:n <- $r7
	@DEBUG_VALUE: x509_info_key_usage:buf <- $r6
	@DEBUG_VALUE: x509_info_key_usage:key_usage <- $r5
	@DEBUG_VALUE: x509_info_key_usage:p <- $r4
	@DEBUG_VALUE: x509_info_key_usage:ret <- $r0
	@DEBUG_VALUE: x509_info_key_usage:size <- [$sp+0]
	.loc	3 1514 5                        @ ../../../ThirdParty/mbedTLS/library/x509_crt.c:1514:5
	adds	r4, r4, r0
.Ltmp507:
	@DEBUG_VALUE: x509_info_key_usage:p <- $r4
	subs	r7, r7, r0
.Ltmp508:
	@DEBUG_VALUE: x509_info_key_usage:n <- $r7
	.loc	3 0 5                           @ ../../../ThirdParty/mbedTLS/library/x509_crt.c:0:5
	ldr	r3, __arm_cp.7_3
.Ltmp509:
	@DEBUG_VALUE: x509_info_key_usage:sep <- $r3
	@DEBUG_VALUE: x509_info_key_usage:p <- $r4
	@DEBUG_VALUE: x509_info_key_usage:n <- $r7
	@DEBUG_VALUE: x509_info_key_usage:sep <- $r3
	.loc	3 1515 5 is_stmt 1              @ ../../../ThirdParty/mbedTLS/library/x509_crt.c:1515:5
	lsls	r0, r5, #29
.Ltmp510:
	bpl	.LBB7_6
.Ltmp511:
.LBB7_24:
	@DEBUG_VALUE: x509_info_key_usage:n <- $r7
	@DEBUG_VALUE: x509_info_key_usage:buf <- $r6
	@DEBUG_VALUE: x509_info_key_usage:key_usage <- $r5
	@DEBUG_VALUE: x509_info_key_usage:p <- $r4
	@DEBUG_VALUE: x509_info_key_usage:sep <- $r3
	@DEBUG_VALUE: x509_info_key_usage:size <- [$sp+0]
	.loc	3 1515 5 is_stmt 0              @ ../../../ThirdParty/mbedTLS/library/x509_crt.c:1515:5
	adr	r2, .LCPI7_8
	mov	r0, r4
	mov	r1, r7
	bl	__2snprintf
.Ltmp512:
	@DEBUG_VALUE: x509_info_key_usage:ret <- $r0
	.loc	3 1515 5                        @ ../../../ThirdParty/mbedTLS/library/x509_crt.c:1515:5
	cmp	r0, #0
	bmi	.LBB7_47
.Ltmp513:
@ %bb.25:
	@DEBUG_VALUE: x509_info_key_usage:n <- $r7
	@DEBUG_VALUE: x509_info_key_usage:buf <- $r6
	@DEBUG_VALUE: x509_info_key_usage:key_usage <- $r5
	@DEBUG_VALUE: x509_info_key_usage:p <- $r4
	@DEBUG_VALUE: x509_info_key_usage:ret <- $r0
	@DEBUG_VALUE: x509_info_key_usage:size <- [$sp+0]
	cmp	r7, r0
	bls	.LBB7_48
.Ltmp514:
@ %bb.26:
	@DEBUG_VALUE: x509_info_key_usage:n <- $r7
	@DEBUG_VALUE: x509_info_key_usage:buf <- $r6
	@DEBUG_VALUE: x509_info_key_usage:key_usage <- $r5
	@DEBUG_VALUE: x509_info_key_usage:p <- $r4
	@DEBUG_VALUE: x509_info_key_usage:ret <- $r0
	@DEBUG_VALUE: x509_info_key_usage:size <- [$sp+0]
	.loc	3 1515 5                        @ ../../../ThirdParty/mbedTLS/library/x509_crt.c:1515:5
	adds	r4, r4, r0
.Ltmp515:
	@DEBUG_VALUE: x509_info_key_usage:p <- $r4
	subs	r7, r7, r0
.Ltmp516:
	@DEBUG_VALUE: x509_info_key_usage:n <- $r7
	.loc	3 0 5                           @ ../../../ThirdParty/mbedTLS/library/x509_crt.c:0:5
	ldr	r3, __arm_cp.7_3
.Ltmp517:
	@DEBUG_VALUE: x509_info_key_usage:sep <- $r3
	@DEBUG_VALUE: x509_info_key_usage:p <- $r4
	@DEBUG_VALUE: x509_info_key_usage:n <- $r7
	@DEBUG_VALUE: x509_info_key_usage:sep <- $r3
	.loc	3 1516 5 is_stmt 1              @ ../../../ThirdParty/mbedTLS/library/x509_crt.c:1516:5
	lsls	r0, r5, #30
.Ltmp518:
	bpl	.LBB7_7
.Ltmp519:
.LBB7_27:
	@DEBUG_VALUE: x509_info_key_usage:n <- $r7
	@DEBUG_VALUE: x509_info_key_usage:buf <- $r6
	@DEBUG_VALUE: x509_info_key_usage:key_usage <- $r5
	@DEBUG_VALUE: x509_info_key_usage:p <- $r4
	@DEBUG_VALUE: x509_info_key_usage:sep <- $r3
	@DEBUG_VALUE: x509_info_key_usage:size <- [$sp+0]
	.loc	3 1516 5 is_stmt 0              @ ../../../ThirdParty/mbedTLS/library/x509_crt.c:1516:5
	adr	r2, .LCPI7_9
	mov	r0, r4
	mov	r1, r7
	bl	__2snprintf
.Ltmp520:
	@DEBUG_VALUE: x509_info_key_usage:ret <- $r0
	.loc	3 1516 5                        @ ../../../ThirdParty/mbedTLS/library/x509_crt.c:1516:5
	cmp	r0, #0
	bmi	.LBB7_49
.Ltmp521:
@ %bb.28:
	@DEBUG_VALUE: x509_info_key_usage:n <- $r7
	@DEBUG_VALUE: x509_info_key_usage:buf <- $r6
	@DEBUG_VALUE: x509_info_key_usage:key_usage <- $r5
	@DEBUG_VALUE: x509_info_key_usage:p <- $r4
	@DEBUG_VALUE: x509_info_key_usage:ret <- $r0
	@DEBUG_VALUE: x509_info_key_usage:size <- [$sp+0]
	cmp	r7, r0
	bls	.LBB7_50
.Ltmp522:
@ %bb.29:
	@DEBUG_VALUE: x509_info_key_usage:n <- $r7
	@DEBUG_VALUE: x509_info_key_usage:buf <- $r6
	@DEBUG_VALUE: x509_info_key_usage:key_usage <- $r5
	@DEBUG_VALUE: x509_info_key_usage:p <- $r4
	@DEBUG_VALUE: x509_info_key_usage:ret <- $r0
	@DEBUG_VALUE: x509_info_key_usage:size <- [$sp+0]
	.loc	3 1516 5                        @ ../../../ThirdParty/mbedTLS/library/x509_crt.c:1516:5
	adds	r4, r4, r0
.Ltmp523:
	@DEBUG_VALUE: x509_info_key_usage:p <- $r4
	subs	r7, r7, r0
.Ltmp524:
	@DEBUG_VALUE: x509_info_key_usage:n <- $r7
	.loc	3 0 5                           @ ../../../ThirdParty/mbedTLS/library/x509_crt.c:0:5
	ldr	r3, __arm_cp.7_3
.Ltmp525:
	@DEBUG_VALUE: x509_info_key_usage:sep <- $r3
	@DEBUG_VALUE: x509_info_key_usage:p <- $r4
	@DEBUG_VALUE: x509_info_key_usage:n <- $r7
	@DEBUG_VALUE: x509_info_key_usage:sep <- $r3
	.loc	3 1517 5 is_stmt 1              @ ../../../ThirdParty/mbedTLS/library/x509_crt.c:1517:5
	lsls	r0, r5, #31
.Ltmp526:
	beq	.LBB7_8
.Ltmp527:
.LBB7_30:
	@DEBUG_VALUE: x509_info_key_usage:n <- $r7
	@DEBUG_VALUE: x509_info_key_usage:buf <- $r6
	@DEBUG_VALUE: x509_info_key_usage:key_usage <- $r5
	@DEBUG_VALUE: x509_info_key_usage:p <- $r4
	@DEBUG_VALUE: x509_info_key_usage:sep <- $r3
	@DEBUG_VALUE: x509_info_key_usage:size <- [$sp+0]
	.loc	3 1517 5 is_stmt 0              @ ../../../ThirdParty/mbedTLS/library/x509_crt.c:1517:5
	adr	r2, .LCPI7_10
	mov	r0, r4
	mov	r1, r7
	bl	__2snprintf
.Ltmp528:
	@DEBUG_VALUE: x509_info_key_usage:ret <- $r0
	.loc	3 1517 5                        @ ../../../ThirdParty/mbedTLS/library/x509_crt.c:1517:5
	cmp	r0, #0
	bmi	.LBB7_51
.Ltmp529:
@ %bb.31:
	@DEBUG_VALUE: x509_info_key_usage:n <- $r7
	@DEBUG_VALUE: x509_info_key_usage:buf <- $r6
	@DEBUG_VALUE: x509_info_key_usage:key_usage <- $r5
	@DEBUG_VALUE: x509_info_key_usage:p <- $r4
	@DEBUG_VALUE: x509_info_key_usage:ret <- $r0
	@DEBUG_VALUE: x509_info_key_usage:size <- [$sp+0]
	cmp	r7, r0
	bls	.LBB7_52
.Ltmp530:
@ %bb.32:
	@DEBUG_VALUE: x509_info_key_usage:n <- $r7
	@DEBUG_VALUE: x509_info_key_usage:buf <- $r6
	@DEBUG_VALUE: x509_info_key_usage:key_usage <- $r5
	@DEBUG_VALUE: x509_info_key_usage:p <- $r4
	@DEBUG_VALUE: x509_info_key_usage:ret <- $r0
	@DEBUG_VALUE: x509_info_key_usage:size <- [$sp+0]
	.loc	3 1517 5                        @ ../../../ThirdParty/mbedTLS/library/x509_crt.c:1517:5
	adds	r4, r4, r0
.Ltmp531:
	@DEBUG_VALUE: x509_info_key_usage:p <- $r4
	subs	r7, r7, r0
.Ltmp532:
	@DEBUG_VALUE: x509_info_key_usage:n <- $r7
	.loc	3 0 5                           @ ../../../ThirdParty/mbedTLS/library/x509_crt.c:0:5
	ldr	r3, __arm_cp.7_3
.Ltmp533:
	@DEBUG_VALUE: x509_info_key_usage:sep <- $r3
	@DEBUG_VALUE: x509_info_key_usage:p <- $r4
	@DEBUG_VALUE: x509_info_key_usage:n <- $r7
	@DEBUG_VALUE: x509_info_key_usage:sep <- $r3
	.loc	3 1518 5 is_stmt 1              @ ../../../ThirdParty/mbedTLS/library/x509_crt.c:1518:5
	lsls	r0, r5, #16
.Ltmp534:
	bpl	.LBB7_36
.Ltmp535:
.LBB7_33:
	@DEBUG_VALUE: x509_info_key_usage:n <- $r7
	@DEBUG_VALUE: x509_info_key_usage:buf <- $r6
	@DEBUG_VALUE: x509_info_key_usage:key_usage <- $r5
	@DEBUG_VALUE: x509_info_key_usage:p <- $r4
	@DEBUG_VALUE: x509_info_key_usage:sep <- $r3
	@DEBUG_VALUE: x509_info_key_usage:size <- [$sp+0]
	.loc	3 1518 5 is_stmt 0              @ ../../../ThirdParty/mbedTLS/library/x509_crt.c:1518:5
	adr	r2, .LCPI7_11
	mov	r0, r4
	mov	r1, r7
	bl	__2snprintf
.Ltmp536:
	@DEBUG_VALUE: x509_info_key_usage:ret <- $r0
	.loc	3 1518 5                        @ ../../../ThirdParty/mbedTLS/library/x509_crt.c:1518:5
	cmp	r0, #0
	bmi	.LBB7_53
.Ltmp537:
@ %bb.34:
	@DEBUG_VALUE: x509_info_key_usage:n <- $r7
	@DEBUG_VALUE: x509_info_key_usage:buf <- $r6
	@DEBUG_VALUE: x509_info_key_usage:key_usage <- $r5
	@DEBUG_VALUE: x509_info_key_usage:p <- $r4
	@DEBUG_VALUE: x509_info_key_usage:ret <- $r0
	@DEBUG_VALUE: x509_info_key_usage:size <- [$sp+0]
	cmp	r7, r0
	ldr	r1, __arm_cp.7_1
	bls	.LBB7_54
.Ltmp538:
@ %bb.35:
	@DEBUG_VALUE: x509_info_key_usage:n <- $r7
	@DEBUG_VALUE: x509_info_key_usage:buf <- $r6
	@DEBUG_VALUE: x509_info_key_usage:key_usage <- $r5
	@DEBUG_VALUE: x509_info_key_usage:p <- $r4
	@DEBUG_VALUE: x509_info_key_usage:ret <- $r0
	@DEBUG_VALUE: x509_info_key_usage:size <- [$sp+0]
	.loc	3 1518 5                        @ ../../../ThirdParty/mbedTLS/library/x509_crt.c:1518:5
	adds	r4, r4, r0
.Ltmp539:
	@DEBUG_VALUE: x509_info_key_usage:p <- $r4
	subs	r7, r7, r0
.Ltmp540:
	@DEBUG_VALUE: x509_info_key_usage:sep <- undef
	@DEBUG_VALUE: x509_info_key_usage:n <- $r7
.LBB7_36:
	@DEBUG_VALUE: x509_info_key_usage:n <- $r7
	@DEBUG_VALUE: x509_info_key_usage:buf <- $r6
	@DEBUG_VALUE: x509_info_key_usage:key_usage <- $r5
	@DEBUG_VALUE: x509_info_key_usage:p <- $r4
	@DEBUG_VALUE: x509_info_key_usage:size <- [$sp+0]
	.loc	3 0 5                           @ ../../../ThirdParty/mbedTLS/library/x509_crt.c:0:5
	ldr	r0, [sp]                        @ 4-byte Reload
	@DEBUG_VALUE: x509_info_key_usage:p <- $r4
	@DEBUG_VALUE: x509_info_key_usage:n <- $r7
	.loc	3 1521 10 is_stmt 1             @ ../../../ThirdParty/mbedTLS/library/x509_crt.c:1521:10
	str	r4, [r6]
	.loc	3 1520 11                       @ ../../../ThirdParty/mbedTLS/library/x509_crt.c:1520:11
	str	r7, [r0]
	movs	r1, #0
	b	.LBB7_54
.Ltmp541:
.LBB7_37:
	@DEBUG_VALUE: x509_info_key_usage:n <- $r7
	@DEBUG_VALUE: x509_info_key_usage:buf <- $r6
	@DEBUG_VALUE: x509_info_key_usage:key_usage <- $r5
	@DEBUG_VALUE: x509_info_key_usage:p <- $r4
	@DEBUG_VALUE: x509_info_key_usage:ret <- $r0
	@DEBUG_VALUE: x509_info_key_usage:size <- [$sp+0]
	.loc	3 0 11 is_stmt 0                @ ../../../ThirdParty/mbedTLS/library/x509_crt.c:0:11
	ldr	r1, __arm_cp.7_1
	b	.LBB7_54
.Ltmp542:
.LBB7_38:
	@DEBUG_VALUE: x509_info_key_usage:n <- $r7
	@DEBUG_VALUE: x509_info_key_usage:buf <- $r6
	@DEBUG_VALUE: x509_info_key_usage:key_usage <- $r5
	@DEBUG_VALUE: x509_info_key_usage:p <- $r4
	@DEBUG_VALUE: x509_info_key_usage:ret <- $r0
	@DEBUG_VALUE: x509_info_key_usage:size <- [$sp+0]
	ldr	r1, __arm_cp.7_1
	b	.LBB7_54
.Ltmp543:
.LBB7_39:
	@DEBUG_VALUE: x509_info_key_usage:n <- $r7
	@DEBUG_VALUE: x509_info_key_usage:buf <- $r6
	@DEBUG_VALUE: x509_info_key_usage:key_usage <- $r5
	@DEBUG_VALUE: x509_info_key_usage:p <- $r4
	@DEBUG_VALUE: x509_info_key_usage:ret <- $r0
	@DEBUG_VALUE: x509_info_key_usage:size <- [$sp+0]
	ldr	r1, __arm_cp.7_1
	b	.LBB7_54
.Ltmp544:
.LBB7_40:
	@DEBUG_VALUE: x509_info_key_usage:n <- $r7
	@DEBUG_VALUE: x509_info_key_usage:buf <- $r6
	@DEBUG_VALUE: x509_info_key_usage:key_usage <- $r5
	@DEBUG_VALUE: x509_info_key_usage:p <- $r4
	@DEBUG_VALUE: x509_info_key_usage:ret <- $r0
	@DEBUG_VALUE: x509_info_key_usage:size <- [$sp+0]
	ldr	r1, __arm_cp.7_1
	b	.LBB7_54
.Ltmp545:
.LBB7_41:
	@DEBUG_VALUE: x509_info_key_usage:n <- $r7
	@DEBUG_VALUE: x509_info_key_usage:buf <- $r6
	@DEBUG_VALUE: x509_info_key_usage:key_usage <- $r5
	@DEBUG_VALUE: x509_info_key_usage:p <- $r4
	@DEBUG_VALUE: x509_info_key_usage:ret <- $r0
	@DEBUG_VALUE: x509_info_key_usage:size <- [$sp+0]
	ldr	r1, __arm_cp.7_1
	b	.LBB7_54
.Ltmp546:
.LBB7_42:
	@DEBUG_VALUE: x509_info_key_usage:n <- $r7
	@DEBUG_VALUE: x509_info_key_usage:buf <- $r6
	@DEBUG_VALUE: x509_info_key_usage:key_usage <- $r5
	@DEBUG_VALUE: x509_info_key_usage:p <- $r4
	@DEBUG_VALUE: x509_info_key_usage:ret <- $r0
	@DEBUG_VALUE: x509_info_key_usage:size <- [$sp+0]
	ldr	r1, __arm_cp.7_1
	b	.LBB7_54
.Ltmp547:
.LBB7_43:
	@DEBUG_VALUE: x509_info_key_usage:n <- $r7
	@DEBUG_VALUE: x509_info_key_usage:buf <- $r6
	@DEBUG_VALUE: x509_info_key_usage:key_usage <- $r5
	@DEBUG_VALUE: x509_info_key_usage:p <- $r4
	@DEBUG_VALUE: x509_info_key_usage:ret <- $r0
	@DEBUG_VALUE: x509_info_key_usage:size <- [$sp+0]
	ldr	r1, __arm_cp.7_1
	b	.LBB7_54
.Ltmp548:
.LBB7_44:
	@DEBUG_VALUE: x509_info_key_usage:n <- $r7
	@DEBUG_VALUE: x509_info_key_usage:buf <- $r6
	@DEBUG_VALUE: x509_info_key_usage:key_usage <- $r5
	@DEBUG_VALUE: x509_info_key_usage:p <- $r4
	@DEBUG_VALUE: x509_info_key_usage:ret <- $r0
	@DEBUG_VALUE: x509_info_key_usage:size <- [$sp+0]
	ldr	r1, __arm_cp.7_1
	b	.LBB7_54
.Ltmp549:
.LBB7_45:
	@DEBUG_VALUE: x509_info_key_usage:n <- $r7
	@DEBUG_VALUE: x509_info_key_usage:buf <- $r6
	@DEBUG_VALUE: x509_info_key_usage:key_usage <- $r5
	@DEBUG_VALUE: x509_info_key_usage:p <- $r4
	@DEBUG_VALUE: x509_info_key_usage:ret <- $r0
	@DEBUG_VALUE: x509_info_key_usage:size <- [$sp+0]
	ldr	r1, __arm_cp.7_1
	b	.LBB7_54
.Ltmp550:
.LBB7_46:
	@DEBUG_VALUE: x509_info_key_usage:n <- $r7
	@DEBUG_VALUE: x509_info_key_usage:buf <- $r6
	@DEBUG_VALUE: x509_info_key_usage:key_usage <- $r5
	@DEBUG_VALUE: x509_info_key_usage:p <- $r4
	@DEBUG_VALUE: x509_info_key_usage:ret <- $r0
	@DEBUG_VALUE: x509_info_key_usage:size <- [$sp+0]
	ldr	r1, __arm_cp.7_1
	b	.LBB7_54
.Ltmp551:
.LBB7_47:
	@DEBUG_VALUE: x509_info_key_usage:n <- $r7
	@DEBUG_VALUE: x509_info_key_usage:buf <- $r6
	@DEBUG_VALUE: x509_info_key_usage:key_usage <- $r5
	@DEBUG_VALUE: x509_info_key_usage:p <- $r4
	@DEBUG_VALUE: x509_info_key_usage:ret <- $r0
	@DEBUG_VALUE: x509_info_key_usage:size <- [$sp+0]
	ldr	r1, __arm_cp.7_1
	b	.LBB7_54
.Ltmp552:
.LBB7_48:
	@DEBUG_VALUE: x509_info_key_usage:n <- $r7
	@DEBUG_VALUE: x509_info_key_usage:buf <- $r6
	@DEBUG_VALUE: x509_info_key_usage:key_usage <- $r5
	@DEBUG_VALUE: x509_info_key_usage:p <- $r4
	@DEBUG_VALUE: x509_info_key_usage:ret <- $r0
	@DEBUG_VALUE: x509_info_key_usage:size <- [$sp+0]
	ldr	r1, __arm_cp.7_1
	b	.LBB7_54
.Ltmp553:
.LBB7_49:
	@DEBUG_VALUE: x509_info_key_usage:n <- $r7
	@DEBUG_VALUE: x509_info_key_usage:buf <- $r6
	@DEBUG_VALUE: x509_info_key_usage:key_usage <- $r5
	@DEBUG_VALUE: x509_info_key_usage:p <- $r4
	@DEBUG_VALUE: x509_info_key_usage:ret <- $r0
	@DEBUG_VALUE: x509_info_key_usage:size <- [$sp+0]
	ldr	r1, __arm_cp.7_1
	b	.LBB7_54
.Ltmp554:
.LBB7_50:
	@DEBUG_VALUE: x509_info_key_usage:n <- $r7
	@DEBUG_VALUE: x509_info_key_usage:buf <- $r6
	@DEBUG_VALUE: x509_info_key_usage:key_usage <- $r5
	@DEBUG_VALUE: x509_info_key_usage:p <- $r4
	@DEBUG_VALUE: x509_info_key_usage:ret <- $r0
	@DEBUG_VALUE: x509_info_key_usage:size <- [$sp+0]
	ldr	r1, __arm_cp.7_1
	b	.LBB7_54
.Ltmp555:
.LBB7_51:
	@DEBUG_VALUE: x509_info_key_usage:n <- $r7
	@DEBUG_VALUE: x509_info_key_usage:buf <- $r6
	@DEBUG_VALUE: x509_info_key_usage:key_usage <- $r5
	@DEBUG_VALUE: x509_info_key_usage:p <- $r4
	@DEBUG_VALUE: x509_info_key_usage:ret <- $r0
	@DEBUG_VALUE: x509_info_key_usage:size <- [$sp+0]
	ldr	r1, __arm_cp.7_1
	b	.LBB7_54
.Ltmp556:
.LBB7_52:
	@DEBUG_VALUE: x509_info_key_usage:n <- $r7
	@DEBUG_VALUE: x509_info_key_usage:buf <- $r6
	@DEBUG_VALUE: x509_info_key_usage:key_usage <- $r5
	@DEBUG_VALUE: x509_info_key_usage:p <- $r4
	@DEBUG_VALUE: x509_info_key_usage:ret <- $r0
	@DEBUG_VALUE: x509_info_key_usage:size <- [$sp+0]
	ldr	r1, __arm_cp.7_1
	b	.LBB7_54
.Ltmp557:
.LBB7_53:
	@DEBUG_VALUE: x509_info_key_usage:n <- $r7
	@DEBUG_VALUE: x509_info_key_usage:buf <- $r6
	@DEBUG_VALUE: x509_info_key_usage:key_usage <- $r5
	@DEBUG_VALUE: x509_info_key_usage:p <- $r4
	@DEBUG_VALUE: x509_info_key_usage:ret <- $r0
	@DEBUG_VALUE: x509_info_key_usage:size <- [$sp+0]
	ldr	r1, __arm_cp.7_1
.Ltmp558:
.LBB7_54:
	@DEBUG_VALUE: x509_info_key_usage:n <- $r7
	@DEBUG_VALUE: x509_info_key_usage:buf <- $r6
	@DEBUG_VALUE: x509_info_key_usage:key_usage <- $r5
	@DEBUG_VALUE: x509_info_key_usage:p <- $r4
	@DEBUG_VALUE: x509_info_key_usage:size <- [$sp+0]
	.loc	3 1524 1 is_stmt 1              @ ../../../ThirdParty/mbedTLS/library/x509_crt.c:1524:1
	mov	r0, r1
	add	sp, #4
.Ltmp559:
	pop	{r4, r5, r6, r7, pc}
.Ltmp560:
	.p2align	2
@ %bb.55:
	.loc	3 0 1 is_stmt 0                 @ ../../../ThirdParty/mbedTLS/library/x509_crt.c:0:1
__arm_cp.7_0:
	.long	.L.str.23
.Lcpi_end24:
	.size	__arm_cp.7_0, .Lcpi_end24-__arm_cp.7_0
__arm_cp.7_1:
	.long	4294956672                      @ 0xffffd680
.Lcpi_end25:
	.size	__arm_cp.7_1, .Lcpi_end25-__arm_cp.7_1
.LCPI7_2:
.L.str.33:
	.asciz	"%sDigital Signature"
__arm_cp.7_3:
	.long	.L.str.24
.Lcpi_end26:
	.size	__arm_cp.7_3, .Lcpi_end26-__arm_cp.7_3
.LCPI7_4:
.L.str.34:
	.asciz	"%sNon Repudiation\000\000"
.LCPI7_5:
.L.str.35:
	.asciz	"%sKey Encipherment\000"
.LCPI7_6:
.L.str.36:
	.asciz	"%sData Encipherment"
.LCPI7_7:
.L.str.37:
	.asciz	"%sKey Agreement"
.LCPI7_8:
.L.str.38:
	.asciz	"%sKey Cert Sign"
.LCPI7_9:
.L.str.39:
	.asciz	"%sCRL Sign\000"
.LCPI7_10:
.L.str.40:
	.asciz	"%sEncipher Only"
.LCPI7_11:
.L.str.41:
	.asciz	"%sDecipher Only"
.Lfunc_end7:
	.size	x509_info_key_usage, .Lfunc_end7-x509_info_key_usage
	.cfi_endproc
	.cantunwind
	.fnend
                                        @ -- End function
	.section	.text.x509_info_ext_key_usage,"ax",%progbits
	.p2align	2                               @ -- Begin function x509_info_ext_key_usage
	.type	x509_info_ext_key_usage,%function
	.code	16                              @ @x509_info_ext_key_usage
	.thumb_func
x509_info_ext_key_usage:
.Lfunc_begin8:
	.loc	3 1528 0 is_stmt 1              @ ../../../ThirdParty/mbedTLS/library/x509_crt.c:1528:0
	.fnstart
	.cfi_startproc
@ %bb.0:
	@DEBUG_VALUE: x509_info_ext_key_usage:buf <- $r0
	@DEBUG_VALUE: x509_info_ext_key_usage:size <- $r1
	@DEBUG_VALUE: x509_info_ext_key_usage:extended_key_usage <- $r2
	@DEBUG_VALUE: x509_info_ext_key_usage:extended_key_usage <- $r2
	@DEBUG_VALUE: x509_info_ext_key_usage:size <- $r1
	@DEBUG_VALUE: x509_info_ext_key_usage:buf <- $r0
	.save	{r4, r5, r6, r7, lr}
	push	{r4, r5, r6, r7, lr}
	.cfi_def_cfa_offset 20
	.cfi_offset lr, -4
	.cfi_offset r7, -8
	.cfi_offset r6, -12
	.cfi_offset r5, -16
	.cfi_offset r4, -20
	.pad	#20
	sub	sp, #20
	.cfi_def_cfa_offset 40
.Ltmp561:
	.loc	3 1532 15 prologue_end          @ ../../../ThirdParty/mbedTLS/library/x509_crt.c:1532:15
	ldr	r6, [r0]
.Ltmp562:
	@DEBUG_VALUE: x509_info_ext_key_usage:p <- $r6
	.loc	3 1531 16                       @ ../../../ThirdParty/mbedTLS/library/x509_crt.c:1531:16
	ldr	r7, [r1]
.Ltmp563:
	@DEBUG_VALUE: x509_info_ext_key_usage:cur <- $r2
	@DEBUG_VALUE: x509_info_ext_key_usage:n <- $r7
	@DEBUG_VALUE: x509_info_ext_key_usage:sep <- undef
	.loc	3 1536 5                        @ ../../../ThirdParty/mbedTLS/library/x509_crt.c:1536:5
	str	r1, [sp, #12]                   @ 4-byte Spill
.Ltmp564:
	@DEBUG_VALUE: x509_info_ext_key_usage:size <- [DW_OP_plus_uconst 12] [$sp+0]
	str	r0, [sp, #8]                    @ 4-byte Spill
.Ltmp565:
	@DEBUG_VALUE: x509_info_ext_key_usage:buf <- [DW_OP_plus_uconst 8] [$sp+0]
	cbz	r2, .LBB8_7
.Ltmp566:
@ %bb.1:
	@DEBUG_VALUE: x509_info_ext_key_usage:buf <- [DW_OP_plus_uconst 8] [$sp+0]
	@DEBUG_VALUE: x509_info_ext_key_usage:size <- [DW_OP_plus_uconst 12] [$sp+0]
	@DEBUG_VALUE: x509_info_ext_key_usage:n <- $r7
	@DEBUG_VALUE: x509_info_ext_key_usage:p <- $r6
	@DEBUG_VALUE: x509_info_ext_key_usage:cur <- $r2
	@DEBUG_VALUE: x509_info_ext_key_usage:extended_key_usage <- $r2
	.loc	3 0 5 is_stmt 0                 @ ../../../ThirdParty/mbedTLS/library/x509_crt.c:0:5
	mov	r4, r2
.Ltmp567:
	@DEBUG_VALUE: x509_info_ext_key_usage:cur <- $r4
	@DEBUG_VALUE: x509_info_ext_key_usage:extended_key_usage <- $r4
	ldr	r5, __arm_cp.8_0
.Ltmp568:
.LBB8_2:                                @ =>This Inner Loop Header: Depth=1
	@DEBUG_VALUE: x509_info_ext_key_usage:buf <- [DW_OP_plus_uconst 8] [$sp+0]
	@DEBUG_VALUE: x509_info_ext_key_usage:size <- [DW_OP_plus_uconst 12] [$sp+0]
	@DEBUG_VALUE: x509_info_ext_key_usage:n <- $r7
	@DEBUG_VALUE: x509_info_ext_key_usage:p <- $r6
	@DEBUG_VALUE: x509_info_ext_key_usage:cur <- $r4
	@DEBUG_VALUE: x509_info_ext_key_usage:p <- $r6
	@DEBUG_VALUE: x509_info_ext_key_usage:n <- $r7
	@DEBUG_VALUE: x509_info_ext_key_usage:cur <- $r4
	@DEBUG_VALUE: x509_info_ext_key_usage:sep <- $r5
	@DEBUG_VALUE: x509_info_ext_key_usage:desc <- [DW_OP_plus_uconst 16, DW_OP_deref] $sp
	add	r1, sp, #16
.Ltmp569:
	.loc	3 1538 13 is_stmt 1             @ ../../../ThirdParty/mbedTLS/library/x509_crt.c:1538:13
	mov	r0, r4
	bl	mbedtls_oid_get_extended_key_usage
.Ltmp570:
	.loc	3 1538 13 is_stmt 0             @ ../../../ThirdParty/mbedTLS/library/x509_crt.c:1538:13
	cbz	r0, .LBB8_4
.Ltmp571:
@ %bb.3:                                @   in Loop: Header=BB8_2 Depth=1
	@DEBUG_VALUE: x509_info_ext_key_usage:buf <- [DW_OP_plus_uconst 8] [$sp+0]
	@DEBUG_VALUE: x509_info_ext_key_usage:size <- [DW_OP_plus_uconst 12] [$sp+0]
	@DEBUG_VALUE: x509_info_ext_key_usage:n <- $r7
	@DEBUG_VALUE: x509_info_ext_key_usage:p <- $r6
	@DEBUG_VALUE: x509_info_ext_key_usage:sep <- $r5
	@DEBUG_VALUE: x509_info_ext_key_usage:cur <- $r4
	@DEBUG_VALUE: x509_info_ext_key_usage:desc <- [DW_OP_plus_uconst 16, DW_OP_deref] $sp
	@DEBUG_VALUE: x509_info_ext_key_usage:desc <- undef
	.loc	3 1539 18 is_stmt 1             @ ../../../ThirdParty/mbedTLS/library/x509_crt.c:1539:18
	adr	r0, .LCPI8_1
.Ltmp572:
	@DEBUG_VALUE: x509_info_ext_key_usage:desc <- $r0
	str	r0, [sp, #16]
.Ltmp573:
	@DEBUG_VALUE: x509_info_ext_key_usage:desc <- undef
.LBB8_4:                                @   in Loop: Header=BB8_2 Depth=1
	@DEBUG_VALUE: x509_info_ext_key_usage:buf <- [DW_OP_plus_uconst 8] [$sp+0]
	@DEBUG_VALUE: x509_info_ext_key_usage:size <- [DW_OP_plus_uconst 12] [$sp+0]
	@DEBUG_VALUE: x509_info_ext_key_usage:n <- $r7
	@DEBUG_VALUE: x509_info_ext_key_usage:p <- $r6
	@DEBUG_VALUE: x509_info_ext_key_usage:sep <- $r5
	@DEBUG_VALUE: x509_info_ext_key_usage:cur <- $r4
	.loc	3 1541 52                       @ ../../../ThirdParty/mbedTLS/library/x509_crt.c:1541:52
	ldr	r0, [sp, #16]
.Ltmp574:
	@DEBUG_VALUE: x509_info_ext_key_usage:desc <- $r0
	.loc	3 1541 15 is_stmt 0             @ ../../../ThirdParty/mbedTLS/library/x509_crt.c:1541:15
	str	r0, [sp]
	mov	r0, r6
.Ltmp575:
	mov	r1, r7
	adr	r2, .LCPI8_2
	mov	r3, r5
	bl	__2snprintf
.Ltmp576:
	@DEBUG_VALUE: x509_info_ext_key_usage:ret <- $r0
	.loc	3 1542 9 is_stmt 1              @ ../../../ThirdParty/mbedTLS/library/x509_crt.c:1542:9
	cmp	r0, #0
	bmi	.LBB8_8
.Ltmp577:
@ %bb.5:                                @   in Loop: Header=BB8_2 Depth=1
	@DEBUG_VALUE: x509_info_ext_key_usage:buf <- [DW_OP_plus_uconst 8] [$sp+0]
	@DEBUG_VALUE: x509_info_ext_key_usage:size <- [DW_OP_plus_uconst 12] [$sp+0]
	@DEBUG_VALUE: x509_info_ext_key_usage:n <- $r7
	@DEBUG_VALUE: x509_info_ext_key_usage:p <- $r6
	@DEBUG_VALUE: x509_info_ext_key_usage:sep <- $r5
	@DEBUG_VALUE: x509_info_ext_key_usage:cur <- $r4
	@DEBUG_VALUE: x509_info_ext_key_usage:ret <- $r0
	cmp	r7, r0
	bls	.LBB8_8
.Ltmp578:
@ %bb.6:                                @   in Loop: Header=BB8_2 Depth=1
	@DEBUG_VALUE: x509_info_ext_key_usage:buf <- [DW_OP_plus_uconst 8] [$sp+0]
	@DEBUG_VALUE: x509_info_ext_key_usage:size <- [DW_OP_plus_uconst 12] [$sp+0]
	@DEBUG_VALUE: x509_info_ext_key_usage:n <- $r7
	@DEBUG_VALUE: x509_info_ext_key_usage:p <- $r6
	@DEBUG_VALUE: x509_info_ext_key_usage:sep <- $r5
	@DEBUG_VALUE: x509_info_ext_key_usage:cur <- $r4
	@DEBUG_VALUE: x509_info_ext_key_usage:ret <- $r0
	.loc	3 1542 9 is_stmt 0              @ ../../../ThirdParty/mbedTLS/library/x509_crt.c:1542:9
	adds	r6, r6, r0
.Ltmp579:
	@DEBUG_VALUE: x509_info_ext_key_usage:p <- $r6
	subs	r7, r7, r0
.Ltmp580:
	@DEBUG_VALUE: x509_info_ext_key_usage:n <- $r7
	.loc	3 1546 20 is_stmt 1             @ ../../../ThirdParty/mbedTLS/library/x509_crt.c:1546:20
	ldr	r4, [r4, #12]
.Ltmp581:
	@DEBUG_VALUE: x509_info_ext_key_usage:sep <- undef
	@DEBUG_VALUE: x509_info_ext_key_usage:cur <- $r4
	.loc	3 1536 5                        @ ../../../ThirdParty/mbedTLS/library/x509_crt.c:1536:5
	cmp	r4, #0
	ldr	r5, __arm_cp.8_4
	@DEBUG_VALUE: x509_info_ext_key_usage:sep <- undef
.Ltmp582:
	@DEBUG_VALUE: x509_info_ext_key_usage:sep <- $r5
	bne	.LBB8_2
.Ltmp583:
.LBB8_7:
	@DEBUG_VALUE: x509_info_ext_key_usage:buf <- [DW_OP_plus_uconst 8] [$sp+0]
	@DEBUG_VALUE: x509_info_ext_key_usage:size <- [DW_OP_plus_uconst 12] [$sp+0]
	@DEBUG_VALUE: x509_info_ext_key_usage:n <- $r7
	@DEBUG_VALUE: x509_info_ext_key_usage:p <- $r6
	@DEBUG_VALUE: x509_info_ext_key_usage:p <- $r6
	@DEBUG_VALUE: x509_info_ext_key_usage:n <- $r7
	.loc	3 1550 10                       @ ../../../ThirdParty/mbedTLS/library/x509_crt.c:1550:10
	ldr	r0, [sp, #8]                    @ 4-byte Reload
.Ltmp584:
	@DEBUG_VALUE: x509_info_ext_key_usage:buf <- $r0
	str	r6, [r0]
	.loc	3 1549 11                       @ ../../../ThirdParty/mbedTLS/library/x509_crt.c:1549:11
	ldr	r0, [sp, #12]                   @ 4-byte Reload
.Ltmp585:
	@DEBUG_VALUE: x509_info_ext_key_usage:size <- $r0
	@DEBUG_VALUE: x509_info_ext_key_usage:buf <- [DW_OP_LLVM_entry_value 1] $r0
	str	r7, [r0]
	movs	r0, #0
.Ltmp586:
	@DEBUG_VALUE: x509_info_ext_key_usage:size <- [DW_OP_LLVM_entry_value 1] $r1
	.loc	3 1553 1                        @ ../../../ThirdParty/mbedTLS/library/x509_crt.c:1553:1
	add	sp, #20
	pop	{r4, r5, r6, r7, pc}
.Ltmp587:
.LBB8_8:
	@DEBUG_VALUE: x509_info_ext_key_usage:buf <- [DW_OP_plus_uconst 8] [$sp+0]
	@DEBUG_VALUE: x509_info_ext_key_usage:size <- [DW_OP_plus_uconst 12] [$sp+0]
	@DEBUG_VALUE: x509_info_ext_key_usage:n <- $r7
	@DEBUG_VALUE: x509_info_ext_key_usage:p <- $r6
	@DEBUG_VALUE: x509_info_ext_key_usage:sep <- $r5
	@DEBUG_VALUE: x509_info_ext_key_usage:cur <- $r4
	@DEBUG_VALUE: x509_info_ext_key_usage:ret <- $r0
	.loc	3 0 1 is_stmt 0                 @ ../../../ThirdParty/mbedTLS/library/x509_crt.c:0:1
	ldr	r0, __arm_cp.8_3
.Ltmp588:
	.loc	3 1553 1                        @ ../../../ThirdParty/mbedTLS/library/x509_crt.c:1553:1
	add	sp, #20
.Ltmp589:
	pop	{r4, r5, r6, r7, pc}
.Ltmp590:
	.p2align	2
@ %bb.9:
	.loc	3 0 1                           @ ../../../ThirdParty/mbedTLS/library/x509_crt.c:0:1
__arm_cp.8_0:
	.long	.L.str.23
.Lcpi_end27:
	.size	__arm_cp.8_0, .Lcpi_end27-__arm_cp.8_0
.LCPI8_1:
.L.str.42:
	.asciz	"???"
.LCPI8_2:
.L.str.43:
	.asciz	"%s%s\000\000\000"
__arm_cp.8_3:
	.long	4294956672                      @ 0xffffd680
.Lcpi_end28:
	.size	__arm_cp.8_3, .Lcpi_end28-__arm_cp.8_3
__arm_cp.8_4:
	.long	.L.str.24
.Lcpi_end29:
	.size	__arm_cp.8_4, .Lcpi_end29-__arm_cp.8_4
.Lfunc_end8:
	.size	x509_info_ext_key_usage, .Lfunc_end8-x509_info_ext_key_usage
	.cfi_endproc
	.cantunwind
	.fnend
                                        @ -- End function
	.section	.text.mbedtls_x509_crt_verify_info,"ax",%progbits
	.hidden	mbedtls_x509_crt_verify_info    @ -- Begin function mbedtls_x509_crt_verify_info
	.globl	mbedtls_x509_crt_verify_info
	.p2align	2
	.type	mbedtls_x509_crt_verify_info,%function
	.code	16                              @ @mbedtls_x509_crt_verify_info
	.thumb_func
mbedtls_x509_crt_verify_info:
.Lfunc_begin9:
	.loc	3 1723 0 is_stmt 1              @ ../../../ThirdParty/mbedTLS/library/x509_crt.c:1723:0
	.fnstart
	.cfi_startproc
@ %bb.0:
	@DEBUG_VALUE: mbedtls_x509_crt_verify_info:buf <- $r0
	@DEBUG_VALUE: mbedtls_x509_crt_verify_info:size <- $r1
	@DEBUG_VALUE: mbedtls_x509_crt_verify_info:prefix <- $r2
	@DEBUG_VALUE: mbedtls_x509_crt_verify_info:flags <- $r3
	.save	{r4, r5, r6, r7, lr}
	push	{r4, r5, r6, r7, lr}
	.cfi_def_cfa_offset 20
	.cfi_offset lr, -4
	.cfi_offset r7, -8
	.cfi_offset r6, -12
	.cfi_offset r5, -16
	.cfi_offset r4, -20
	.pad	#12
	sub	sp, #12
	.cfi_def_cfa_offset 32
.Ltmp591:
	@DEBUG_VALUE: mbedtls_x509_crt_verify_info:p <- $r0
	@DEBUG_VALUE: mbedtls_x509_crt_verify_info:n <- $r1
	mov	r4, r3
	str	r2, [sp, #8]                    @ 4-byte Spill
.Ltmp592:
	@DEBUG_VALUE: mbedtls_x509_crt_verify_info:prefix <- [DW_OP_plus_uconst 8] [$sp+0]
	mov	r5, r1
.Ltmp593:
	@DEBUG_VALUE: mbedtls_x509_crt_verify_info:n <- $r5
	@DEBUG_VALUE: mbedtls_x509_crt_verify_info:size <- $r5
	mov	r7, r0
.Ltmp594:
	@DEBUG_VALUE: mbedtls_x509_crt_verify_info:buf <- $r7
	ldr	r6, __arm_cp.9_0
	ldr	r0, __arm_cp.9_1
.Ltmp595:
	str	r1, [sp, #4]                    @ 4-byte Spill
.Ltmp596:
	@DEBUG_VALUE: mbedtls_x509_crt_verify_info:cur <- $r6
	@DEBUG_VALUE: mbedtls_x509_crt_verify_info:n <- [DW_OP_plus_uconst 4] [$sp+0]
	@DEBUG_VALUE: mbedtls_x509_crt_verify_info:p <- $r7
	@DEBUG_VALUE: mbedtls_x509_crt_verify_info:flags <- $r4
	@DEBUG_VALUE: mbedtls_x509_crt_verify_info:size <- [DW_OP_plus_uconst 4] [$sp+0]
	b	.LBB9_2
.Ltmp597:
.LBB9_1:                                @   in Loop: Header=BB9_2 Depth=1
	@DEBUG_VALUE: mbedtls_x509_crt_verify_info:p <- $r7
	@DEBUG_VALUE: mbedtls_x509_crt_verify_info:cur <- $r6
	@DEBUG_VALUE: mbedtls_x509_crt_verify_info:n <- $r5
	@DEBUG_VALUE: mbedtls_x509_crt_verify_info:flags <- $r4
	@DEBUG_VALUE: mbedtls_x509_crt_verify_info:size <- [DW_OP_plus_uconst 4] [$sp+0]
	@DEBUG_VALUE: mbedtls_x509_crt_verify_info:prefix <- [DW_OP_plus_uconst 8] [$sp+0]
	@DEBUG_VALUE: mbedtls_x509_crt_verify_info:flags <- $r4
	@DEBUG_VALUE: mbedtls_x509_crt_verify_info:p <- $r7
	@DEBUG_VALUE: mbedtls_x509_crt_verify_info:n <- $r5
	.loc	3 1729 46 prologue_end          @ ../../../ThirdParty/mbedTLS/library/x509_crt.c:1729:46
	ldr	r0, [r6, #12]
	.loc	3 1729 66 is_stmt 0             @ ../../../ThirdParty/mbedTLS/library/x509_crt.c:1729:66
	adds	r6, #8
.Ltmp598:
	@DEBUG_VALUE: mbedtls_x509_crt_verify_info:cur <- $r6
	.loc	3 1729 5                        @ ../../../ThirdParty/mbedTLS/library/x509_crt.c:1729:5
	cbz	r0, .LBB9_6
.Ltmp599:
.LBB9_2:                                @ =>This Inner Loop Header: Depth=1
	@DEBUG_VALUE: mbedtls_x509_crt_verify_info:p <- $r7
	@DEBUG_VALUE: mbedtls_x509_crt_verify_info:cur <- $r6
	@DEBUG_VALUE: mbedtls_x509_crt_verify_info:flags <- $r4
	@DEBUG_VALUE: mbedtls_x509_crt_verify_info:size <- [DW_OP_plus_uconst 4] [$sp+0]
	@DEBUG_VALUE: mbedtls_x509_crt_verify_info:prefix <- [DW_OP_plus_uconst 8] [$sp+0]
	@DEBUG_VALUE: mbedtls_x509_crt_verify_info:flags <- $r4
	@DEBUG_VALUE: mbedtls_x509_crt_verify_info:p <- $r7
	@DEBUG_VALUE: mbedtls_x509_crt_verify_info:n <- $r5
	@DEBUG_VALUE: mbedtls_x509_crt_verify_info:cur <- $r6
	.loc	3 1731 28 is_stmt 1             @ ../../../ThirdParty/mbedTLS/library/x509_crt.c:1731:28
	ldr	r1, [r6]
.Ltmp600:
	.loc	3 1731 13 is_stmt 0             @ ../../../ThirdParty/mbedTLS/library/x509_crt.c:1731:13
	tst	r1, r4
	beq	.LBB9_1
.Ltmp601:
@ %bb.3:                                @   in Loop: Header=BB9_2 Depth=1
	@DEBUG_VALUE: mbedtls_x509_crt_verify_info:p <- $r7
	@DEBUG_VALUE: mbedtls_x509_crt_verify_info:cur <- $r6
	@DEBUG_VALUE: mbedtls_x509_crt_verify_info:n <- $r5
	@DEBUG_VALUE: mbedtls_x509_crt_verify_info:flags <- $r4
	@DEBUG_VALUE: mbedtls_x509_crt_verify_info:size <- [DW_OP_plus_uconst 4] [$sp+0]
	@DEBUG_VALUE: mbedtls_x509_crt_verify_info:prefix <- [DW_OP_plus_uconst 8] [$sp+0]
	.loc	3 1734 15 is_stmt 1             @ ../../../ThirdParty/mbedTLS/library/x509_crt.c:1734:15
	str	r0, [sp]
	mov	r0, r7
	mov	r1, r5
	adr	r2, .LCPI9_2
	ldr	r3, [sp, #8]                    @ 4-byte Reload
	bl	__2snprintf
.Ltmp602:
	@DEBUG_VALUE: mbedtls_x509_crt_verify_info:ret <- $r0
	.loc	3 1735 9                        @ ../../../ThirdParty/mbedTLS/library/x509_crt.c:1735:9
	cmp	r0, #0
	bmi	.LBB9_11
.Ltmp603:
@ %bb.4:                                @   in Loop: Header=BB9_2 Depth=1
	@DEBUG_VALUE: mbedtls_x509_crt_verify_info:p <- $r7
	@DEBUG_VALUE: mbedtls_x509_crt_verify_info:cur <- $r6
	@DEBUG_VALUE: mbedtls_x509_crt_verify_info:n <- $r5
	@DEBUG_VALUE: mbedtls_x509_crt_verify_info:flags <- $r4
	@DEBUG_VALUE: mbedtls_x509_crt_verify_info:ret <- $r0
	@DEBUG_VALUE: mbedtls_x509_crt_verify_info:size <- [DW_OP_plus_uconst 4] [$sp+0]
	@DEBUG_VALUE: mbedtls_x509_crt_verify_info:prefix <- [DW_OP_plus_uconst 8] [$sp+0]
	cmp	r5, r0
	bls	.LBB9_11
.Ltmp604:
@ %bb.5:                                @   in Loop: Header=BB9_2 Depth=1
	@DEBUG_VALUE: mbedtls_x509_crt_verify_info:p <- $r7
	@DEBUG_VALUE: mbedtls_x509_crt_verify_info:cur <- $r6
	@DEBUG_VALUE: mbedtls_x509_crt_verify_info:n <- $r5
	@DEBUG_VALUE: mbedtls_x509_crt_verify_info:flags <- $r4
	@DEBUG_VALUE: mbedtls_x509_crt_verify_info:ret <- $r0
	@DEBUG_VALUE: mbedtls_x509_crt_verify_info:size <- [DW_OP_plus_uconst 4] [$sp+0]
	@DEBUG_VALUE: mbedtls_x509_crt_verify_info:prefix <- [DW_OP_plus_uconst 8] [$sp+0]
	.loc	3 1735 9 is_stmt 0              @ ../../../ThirdParty/mbedTLS/library/x509_crt.c:1735:9
	adds	r7, r7, r0
.Ltmp605:
	@DEBUG_VALUE: mbedtls_x509_crt_verify_info:buf <- [DW_OP_LLVM_entry_value 1] $r0
	@DEBUG_VALUE: mbedtls_x509_crt_verify_info:p <- $r7
	subs	r5, r5, r0
.Ltmp606:
	@DEBUG_VALUE: mbedtls_x509_crt_verify_info:n <- $r5
	.loc	3 1736 23 is_stmt 1             @ ../../../ThirdParty/mbedTLS/library/x509_crt.c:1736:23
	ldr	r0, [r6]
.Ltmp607:
	.loc	3 1736 15 is_stmt 0             @ ../../../ThirdParty/mbedTLS/library/x509_crt.c:1736:15
	eors	r4, r0
.Ltmp608:
	@DEBUG_VALUE: mbedtls_x509_crt_verify_info:flags <- $r4
	.loc	3 0 15                          @ ../../../ThirdParty/mbedTLS/library/x509_crt.c:0:15
	b	.LBB9_1
.Ltmp609:
.LBB9_6:
	@DEBUG_VALUE: mbedtls_x509_crt_verify_info:p <- $r7
	@DEBUG_VALUE: mbedtls_x509_crt_verify_info:cur <- $r6
	@DEBUG_VALUE: mbedtls_x509_crt_verify_info:n <- $r5
	@DEBUG_VALUE: mbedtls_x509_crt_verify_info:flags <- $r4
	@DEBUG_VALUE: mbedtls_x509_crt_verify_info:size <- [DW_OP_plus_uconst 4] [$sp+0]
	@DEBUG_VALUE: mbedtls_x509_crt_verify_info:prefix <- [DW_OP_plus_uconst 8] [$sp+0]
	@DEBUG_VALUE: mbedtls_x509_crt_verify_info:flags <- $r4
	@DEBUG_VALUE: mbedtls_x509_crt_verify_info:p <- $r7
	@DEBUG_VALUE: mbedtls_x509_crt_verify_info:n <- $r5
	.loc	3 1739 9 is_stmt 1              @ ../../../ThirdParty/mbedTLS/library/x509_crt.c:1739:9
	cbz	r4, .LBB9_10
.Ltmp610:
@ %bb.7:
	@DEBUG_VALUE: mbedtls_x509_crt_verify_info:p <- $r7
	@DEBUG_VALUE: mbedtls_x509_crt_verify_info:cur <- $r6
	@DEBUG_VALUE: mbedtls_x509_crt_verify_info:n <- $r5
	@DEBUG_VALUE: mbedtls_x509_crt_verify_info:flags <- $r4
	@DEBUG_VALUE: mbedtls_x509_crt_verify_info:size <- [DW_OP_plus_uconst 4] [$sp+0]
	@DEBUG_VALUE: mbedtls_x509_crt_verify_info:prefix <- [DW_OP_plus_uconst 8] [$sp+0]
	.loc	3 1741 15                       @ ../../../ThirdParty/mbedTLS/library/x509_crt.c:1741:15
	adr	r2, .LCPI9_4
	mov	r0, r7
	mov	r1, r5
	ldr	r3, [sp, #8]                    @ 4-byte Reload
	bl	__2snprintf
	mov	r1, r0
.Ltmp611:
	@DEBUG_VALUE: mbedtls_x509_crt_verify_info:ret <- $r1
	.loc	3 0 15 is_stmt 0                @ ../../../ThirdParty/mbedTLS/library/x509_crt.c:0:15
	ldr	r0, __arm_cp.9_3
.Ltmp612:
	.loc	3 1743 9 is_stmt 1              @ ../../../ThirdParty/mbedTLS/library/x509_crt.c:1743:9
	cmp	r1, #0
	bmi	.LBB9_12
.Ltmp613:
@ %bb.8:
	@DEBUG_VALUE: mbedtls_x509_crt_verify_info:p <- $r7
	@DEBUG_VALUE: mbedtls_x509_crt_verify_info:cur <- $r6
	@DEBUG_VALUE: mbedtls_x509_crt_verify_info:n <- $r5
	@DEBUG_VALUE: mbedtls_x509_crt_verify_info:flags <- $r4
	@DEBUG_VALUE: mbedtls_x509_crt_verify_info:ret <- $r1
	@DEBUG_VALUE: mbedtls_x509_crt_verify_info:size <- [DW_OP_plus_uconst 4] [$sp+0]
	@DEBUG_VALUE: mbedtls_x509_crt_verify_info:prefix <- [DW_OP_plus_uconst 8] [$sp+0]
	cmp	r5, r1
	bls	.LBB9_12
.Ltmp614:
@ %bb.9:
	@DEBUG_VALUE: mbedtls_x509_crt_verify_info:p <- $r7
	@DEBUG_VALUE: mbedtls_x509_crt_verify_info:cur <- $r6
	@DEBUG_VALUE: mbedtls_x509_crt_verify_info:n <- $r5
	@DEBUG_VALUE: mbedtls_x509_crt_verify_info:flags <- $r4
	@DEBUG_VALUE: mbedtls_x509_crt_verify_info:ret <- $r1
	@DEBUG_VALUE: mbedtls_x509_crt_verify_info:size <- [DW_OP_plus_uconst 4] [$sp+0]
	@DEBUG_VALUE: mbedtls_x509_crt_verify_info:prefix <- [DW_OP_plus_uconst 8] [$sp+0]
	.loc	3 1743 9 is_stmt 0              @ ../../../ThirdParty/mbedTLS/library/x509_crt.c:1743:9
	subs	r5, r5, r1
.Ltmp615:
	@DEBUG_VALUE: mbedtls_x509_crt_verify_info:n <- $r5
	@DEBUG_VALUE: mbedtls_x509_crt_verify_info:p <- undef
.LBB9_10:
	@DEBUG_VALUE: mbedtls_x509_crt_verify_info:cur <- $r6
	@DEBUG_VALUE: mbedtls_x509_crt_verify_info:n <- $r5
	@DEBUG_VALUE: mbedtls_x509_crt_verify_info:flags <- $r4
	@DEBUG_VALUE: mbedtls_x509_crt_verify_info:size <- [DW_OP_plus_uconst 4] [$sp+0]
	@DEBUG_VALUE: mbedtls_x509_crt_verify_info:prefix <- [DW_OP_plus_uconst 8] [$sp+0]
	.loc	3 0 9                           @ ../../../ThirdParty/mbedTLS/library/x509_crt.c:0:9
	ldr	r0, [sp, #4]                    @ 4-byte Reload
	@DEBUG_VALUE: mbedtls_x509_crt_verify_info:n <- $r5
	.loc	3 1746 26 is_stmt 1             @ ../../../ThirdParty/mbedTLS/library/x509_crt.c:1746:26
	subs	r0, r0, r5
	.loc	3 1747 1                        @ ../../../ThirdParty/mbedTLS/library/x509_crt.c:1747:1
	add	sp, #12
.Ltmp616:
	pop	{r4, r5, r6, r7, pc}
.Ltmp617:
.LBB9_11:
	@DEBUG_VALUE: mbedtls_x509_crt_verify_info:p <- $r7
	@DEBUG_VALUE: mbedtls_x509_crt_verify_info:cur <- $r6
	@DEBUG_VALUE: mbedtls_x509_crt_verify_info:n <- $r5
	@DEBUG_VALUE: mbedtls_x509_crt_verify_info:flags <- $r4
	@DEBUG_VALUE: mbedtls_x509_crt_verify_info:ret <- $r0
	@DEBUG_VALUE: mbedtls_x509_crt_verify_info:size <- [DW_OP_plus_uconst 4] [$sp+0]
	@DEBUG_VALUE: mbedtls_x509_crt_verify_info:prefix <- [DW_OP_plus_uconst 8] [$sp+0]
	.loc	3 0 1 is_stmt 0                 @ ../../../ThirdParty/mbedTLS/library/x509_crt.c:0:1
	ldr	r0, __arm_cp.9_3
.Ltmp618:
.LBB9_12:
	@DEBUG_VALUE: mbedtls_x509_crt_verify_info:p <- $r7
	@DEBUG_VALUE: mbedtls_x509_crt_verify_info:cur <- $r6
	@DEBUG_VALUE: mbedtls_x509_crt_verify_info:n <- $r5
	@DEBUG_VALUE: mbedtls_x509_crt_verify_info:flags <- $r4
	@DEBUG_VALUE: mbedtls_x509_crt_verify_info:size <- [DW_OP_plus_uconst 4] [$sp+0]
	@DEBUG_VALUE: mbedtls_x509_crt_verify_info:prefix <- [DW_OP_plus_uconst 8] [$sp+0]
	.loc	3 1747 1                        @ ../../../ThirdParty/mbedTLS/library/x509_crt.c:1747:1
	add	sp, #12
.Ltmp619:
	pop	{r4, r5, r6, r7, pc}
.Ltmp620:
	.p2align	2
@ %bb.13:
	.loc	3 0 1                           @ ../../../ThirdParty/mbedTLS/library/x509_crt.c:0:1
__arm_cp.9_0:
	.long	x509_crt_verify_strings
.Lcpi_end30:
	.size	__arm_cp.9_0, .Lcpi_end30-__arm_cp.9_0
__arm_cp.9_1:
	.long	.L.str.44
.Lcpi_end31:
	.size	__arm_cp.9_1, .Lcpi_end31-__arm_cp.9_1
.LCPI9_2:
.L.str.20:
	.asciz	"%s%s\n\000\000"
__arm_cp.9_3:
	.long	4294956672                      @ 0xffffd680
.Lcpi_end32:
	.size	__arm_cp.9_3, .Lcpi_end32-__arm_cp.9_3
.LCPI9_4:
.L.str.21:
	.asciz	"%sUnknown reason (this should not happen)\n\000"
.Lfunc_end9:
	.size	mbedtls_x509_crt_verify_info, .Lfunc_end9-mbedtls_x509_crt_verify_info
	.cfi_endproc
	.cantunwind
	.fnend
                                        @ -- End function
	.section	.text.mbedtls_x509_crt_check_key_usage,"ax",%progbits
	.hidden	mbedtls_x509_crt_check_key_usage @ -- Begin function mbedtls_x509_crt_check_key_usage
	.globl	mbedtls_x509_crt_check_key_usage
	.p2align	2
	.type	mbedtls_x509_crt_check_key_usage,%function
	.code	16                              @ @mbedtls_x509_crt_check_key_usage
	.thumb_func
mbedtls_x509_crt_check_key_usage:
.Lfunc_begin10:
	.loc	3 1752 0 is_stmt 1              @ ../../../ThirdParty/mbedTLS/library/x509_crt.c:1752:0
	.fnstart
	.cfi_startproc
@ %bb.0:
	@DEBUG_VALUE: mbedtls_x509_crt_check_key_usage:crt <- $r0
	@DEBUG_VALUE: mbedtls_x509_crt_check_key_usage:usage <- $r1
	.save	{r4, lr}
	push	{r4, lr}
	.cfi_def_cfa_offset 8
	.cfi_offset lr, -4
	.cfi_offset r4, -8
	movw	r2, #264
.Ltmp621:
	@DEBUG_VALUE: mbedtls_x509_crt_check_key_usage:may_mask <- 32769
	@DEBUG_VALUE: mbedtls_x509_crt_check_key_usage:usage <- $r1
	@DEBUG_VALUE: mbedtls_x509_crt_check_key_usage:crt <- $r0
	.loc	3 1757 9 prologue_end           @ ../../../ThirdParty/mbedTLS/library/x509_crt.c:1757:9
	ldrb	r3, [r0, r2]
	lsls	r3, r3, #29
	bmi	.LBB10_2
.Ltmp622:
@ %bb.1:
	@DEBUG_VALUE: mbedtls_x509_crt_check_key_usage:usage <- $r1
	@DEBUG_VALUE: mbedtls_x509_crt_check_key_usage:crt <- $r0
	@DEBUG_VALUE: mbedtls_x509_crt_check_key_usage:may_mask <- 32769
	.loc	3 0 9 is_stmt 0                 @ ../../../ThirdParty/mbedTLS/library/x509_crt.c:0:9
	movs	r0, #0
.Ltmp623:
	@DEBUG_VALUE: mbedtls_x509_crt_check_key_usage:crt <- [DW_OP_LLVM_entry_value 1] $r0
	pop	{r4, pc}
.Ltmp624:
.LBB10_2:
	@DEBUG_VALUE: mbedtls_x509_crt_check_key_usage:usage <- $r1
	@DEBUG_VALUE: mbedtls_x509_crt_check_key_usage:crt <- $r0
	@DEBUG_VALUE: mbedtls_x509_crt_check_key_usage:may_mask <- 32769
	adds	r0, r0, r2
.Ltmp625:
	@DEBUG_VALUE: mbedtls_x509_crt_check_key_usage:crt <- [DW_OP_LLVM_entry_value 1] $r0
	ldr	r3, __arm_cp.10_0
	.loc	3 1760 24 is_stmt 1             @ ../../../ThirdParty/mbedTLS/library/x509_crt.c:1760:24
	ands	r3, r1
.Ltmp626:
	@DEBUG_VALUE: mbedtls_x509_crt_check_key_usage:usage_must <- $r3
	.loc	3 1762 18                       @ ../../../ThirdParty/mbedTLS/library/x509_crt.c:1762:18
	ldr	r2, [r0, #12]
	.loc	3 1762 42 is_stmt 0             @ ../../../ThirdParty/mbedTLS/library/x509_crt.c:1762:42
	mov	r4, r2
	ands	r4, r3
	ldr	r0, __arm_cp.10_1
.Ltmp627:
	.loc	3 1762 9                        @ ../../../ThirdParty/mbedTLS/library/x509_crt.c:1762:9
	cmp	r4, r3
	bne	.LBB10_5
.Ltmp628:
@ %bb.3:
	@DEBUG_VALUE: mbedtls_x509_crt_check_key_usage:usage_must <- $r3
	@DEBUG_VALUE: mbedtls_x509_crt_check_key_usage:usage <- $r1
	@DEBUG_VALUE: mbedtls_x509_crt_check_key_usage:crt <- [DW_OP_LLVM_entry_value 1] $r0
	@DEBUG_VALUE: mbedtls_x509_crt_check_key_usage:may_mask <- 32769
	.loc	3 0 9                           @ ../../../ThirdParty/mbedTLS/library/x509_crt.c:0:9
	ldr	r3, __arm_cp.10_2
.Ltmp629:
	.loc	3 1765 23 is_stmt 1             @ ../../../ThirdParty/mbedTLS/library/x509_crt.c:1765:23
	ands	r1, r3
.Ltmp630:
	@DEBUG_VALUE: mbedtls_x509_crt_check_key_usage:usage <- [DW_OP_LLVM_entry_value 1] $r1
	@DEBUG_VALUE: mbedtls_x509_crt_check_key_usage:usage_may <- $r1
	.loc	3 1767 28                       @ ../../../ThirdParty/mbedTLS/library/x509_crt.c:1767:28
	ands	r2, r3
	.loc	3 1767 41 is_stmt 0             @ ../../../ThirdParty/mbedTLS/library/x509_crt.c:1767:41
	orrs	r2, r1
.Ltmp631:
	.loc	3 1767 9                        @ ../../../ThirdParty/mbedTLS/library/x509_crt.c:1767:9
	cmp	r2, r1
	bne	.LBB10_5
.Ltmp632:
@ %bb.4:
	@DEBUG_VALUE: mbedtls_x509_crt_check_key_usage:usage_may <- $r1
	@DEBUG_VALUE: mbedtls_x509_crt_check_key_usage:usage <- [DW_OP_LLVM_entry_value 1] $r1
	@DEBUG_VALUE: mbedtls_x509_crt_check_key_usage:crt <- [DW_OP_LLVM_entry_value 1] $r0
	@DEBUG_VALUE: mbedtls_x509_crt_check_key_usage:may_mask <- 32769
	.loc	3 0 9                           @ ../../../ThirdParty/mbedTLS/library/x509_crt.c:0:9
	movs	r0, #0
.Ltmp633:
.LBB10_5:
	@DEBUG_VALUE: mbedtls_x509_crt_check_key_usage:crt <- [DW_OP_LLVM_entry_value 1] $r0
	@DEBUG_VALUE: mbedtls_x509_crt_check_key_usage:may_mask <- 32769
	pop	{r4, pc}
.Ltmp634:
	.p2align	2
@ %bb.6:
__arm_cp.10_0:
	.long	4294934526                      @ 0xffff7ffe
.Lcpi_end33:
	.size	__arm_cp.10_0, .Lcpi_end33-__arm_cp.10_0
__arm_cp.10_1:
	.long	4294957056                      @ 0xffffd800
.Lcpi_end34:
	.size	__arm_cp.10_1, .Lcpi_end34-__arm_cp.10_1
__arm_cp.10_2:
	.long	32769                           @ 0x8001
.Lcpi_end35:
	.size	__arm_cp.10_2, .Lcpi_end35-__arm_cp.10_2
.Lfunc_end10:
	.size	mbedtls_x509_crt_check_key_usage, .Lfunc_end10-mbedtls_x509_crt_check_key_usage
	.cfi_endproc
	.cantunwind
	.fnend
                                        @ -- End function
	.section	.text.mbedtls_x509_crt_check_extended_key_usage,"ax",%progbits
	.hidden	mbedtls_x509_crt_check_extended_key_usage @ -- Begin function mbedtls_x509_crt_check_extended_key_usage
	.globl	mbedtls_x509_crt_check_extended_key_usage
	.p2align	2
	.type	mbedtls_x509_crt_check_extended_key_usage,%function
	.code	16                              @ @mbedtls_x509_crt_check_extended_key_usage
	.thumb_func
mbedtls_x509_crt_check_extended_key_usage:
.Lfunc_begin11:
	.loc	3 1778 0 is_stmt 1              @ ../../../ThirdParty/mbedTLS/library/x509_crt.c:1778:0
	.fnstart
	.cfi_startproc
@ %bb.0:
	@DEBUG_VALUE: mbedtls_x509_crt_check_extended_key_usage:crt <- $r0
	@DEBUG_VALUE: mbedtls_x509_crt_check_extended_key_usage:usage_oid <- $r1
	@DEBUG_VALUE: mbedtls_x509_crt_check_extended_key_usage:usage_len <- $r2
	.save	{r4, r5, r6, r7, lr}
	push	{r4, r5, r6, r7, lr}
	.cfi_def_cfa_offset 20
	.cfi_offset lr, -4
	.cfi_offset r7, -8
	.cfi_offset r6, -12
	.cfi_offset r5, -16
	.cfi_offset r4, -20
	.pad	#4
	sub	sp, #4
	.cfi_def_cfa_offset 24
	mov	r5, r2
	mov	r6, r1
	movw	r1, #265
.Ltmp635:
	@DEBUG_VALUE: mbedtls_x509_crt_check_extended_key_usage:usage_oid <- [DW_OP_LLVM_entry_value 1] $r1
	@DEBUG_VALUE: mbedtls_x509_crt_check_extended_key_usage:usage_len <- $r5
	@DEBUG_VALUE: mbedtls_x509_crt_check_extended_key_usage:usage_oid <- $r6
	@DEBUG_VALUE: mbedtls_x509_crt_check_extended_key_usage:crt <- $r0
	.loc	3 1782 9 prologue_end           @ ../../../ThirdParty/mbedTLS/library/x509_crt.c:1782:9
	ldrb	r1, [r0, r1]
	movs	r2, #0
	lsls	r1, r1, #28
	bpl	.LBB11_10
.Ltmp636:
@ %bb.1:
	@DEBUG_VALUE: mbedtls_x509_crt_check_extended_key_usage:usage_oid <- $r6
	@DEBUG_VALUE: mbedtls_x509_crt_check_extended_key_usage:usage_len <- $r5
	@DEBUG_VALUE: mbedtls_x509_crt_check_extended_key_usage:crt <- $r0
	.loc	3 0 9 is_stmt 0                 @ ../../../ThirdParty/mbedTLS/library/x509_crt.c:0:9
	str	r2, [sp]                        @ 4-byte Spill
	movw	r1, #280
.Ltmp637:
	.loc	3 1788 22 is_stmt 1             @ ../../../ThirdParty/mbedTLS/library/x509_crt.c:1788:22
	adds	r7, r0, r1
.Ltmp638:
	@DEBUG_VALUE: mbedtls_x509_crt_check_extended_key_usage:cur <- $r7
	.loc	3 0 22 is_stmt 0                @ ../../../ThirdParty/mbedTLS/library/x509_crt.c:0:22
	b	.LBB11_3
.Ltmp639:
.LBB11_2:                               @   in Loop: Header=BB11_3 Depth=1
	@DEBUG_VALUE: mbedtls_x509_crt_check_extended_key_usage:cur <- $r7
	@DEBUG_VALUE: mbedtls_x509_crt_check_extended_key_usage:usage_oid <- $r6
	@DEBUG_VALUE: mbedtls_x509_crt_check_extended_key_usage:usage_len <- $r5
	.loc	3 1788 61                       @ ../../../ThirdParty/mbedTLS/library/x509_crt.c:1788:61
	ldr	r7, [r7, #12]
.Ltmp640:
	@DEBUG_VALUE: mbedtls_x509_crt_check_extended_key_usage:cur <- $r7
	.loc	3 1788 5                        @ ../../../ThirdParty/mbedTLS/library/x509_crt.c:1788:5
	cbz	r7, .LBB11_8
.Ltmp641:
.LBB11_3:                               @ =>This Inner Loop Header: Depth=1
	@DEBUG_VALUE: mbedtls_x509_crt_check_extended_key_usage:cur <- $r7
	@DEBUG_VALUE: mbedtls_x509_crt_check_extended_key_usage:usage_oid <- $r6
	@DEBUG_VALUE: mbedtls_x509_crt_check_extended_key_usage:usage_len <- $r5
	@DEBUG_VALUE: mbedtls_x509_crt_check_extended_key_usage:cur <- $r7
	@DEBUG_VALUE: cur_oid <- $r7
	.loc	3 1792 22 is_stmt 1             @ ../../../ThirdParty/mbedTLS/library/x509_crt.c:1792:22
	ldr	r4, [r7, #4]
	.loc	3 1792 39 is_stmt 0             @ ../../../ThirdParty/mbedTLS/library/x509_crt.c:1792:39
	cmp	r4, r5
	bne	.LBB11_5
.Ltmp642:
@ %bb.4:                                @   in Loop: Header=BB11_3 Depth=1
	@DEBUG_VALUE: cur_oid <- $r7
	@DEBUG_VALUE: mbedtls_x509_crt_check_extended_key_usage:cur <- $r7
	@DEBUG_VALUE: mbedtls_x509_crt_check_extended_key_usage:usage_oid <- $r6
	@DEBUG_VALUE: mbedtls_x509_crt_check_extended_key_usage:usage_len <- $r5
	@DEBUG_VALUE: cur_oid <- $r7
	.loc	3 1793 34 is_stmt 1             @ ../../../ThirdParty/mbedTLS/library/x509_crt.c:1793:34
	ldr	r0, [r7, #8]
.Ltmp643:
	@DEBUG_VALUE: mbedtls_x509_crt_check_extended_key_usage:crt <- [DW_OP_LLVM_entry_value 1] $r0
	.loc	3 1793 17 is_stmt 0             @ ../../../ThirdParty/mbedTLS/library/x509_crt.c:1793:17
	mov	r1, r6
	mov	r2, r5
	bl	memcmp
.Ltmp644:
	.loc	3 1792 13 is_stmt 1             @ ../../../ThirdParty/mbedTLS/library/x509_crt.c:1792:13
	cbz	r0, .LBB11_9
.Ltmp645:
.LBB11_5:                               @   in Loop: Header=BB11_3 Depth=1
	@DEBUG_VALUE: cur_oid <- $r7
	@DEBUG_VALUE: mbedtls_x509_crt_check_extended_key_usage:cur <- $r7
	@DEBUG_VALUE: mbedtls_x509_crt_check_extended_key_usage:usage_oid <- $r6
	@DEBUG_VALUE: mbedtls_x509_crt_check_extended_key_usage:usage_len <- $r5
	.loc	3 1798 13                       @ ../../../ThirdParty/mbedTLS/library/x509_crt.c:1798:13
	cmp	r4, #4
	bne	.LBB11_2
.Ltmp646:
@ %bb.6:                                @   in Loop: Header=BB11_3 Depth=1
	@DEBUG_VALUE: cur_oid <- $r7
	@DEBUG_VALUE: mbedtls_x509_crt_check_extended_key_usage:cur <- $r7
	@DEBUG_VALUE: mbedtls_x509_crt_check_extended_key_usage:usage_oid <- $r6
	@DEBUG_VALUE: mbedtls_x509_crt_check_extended_key_usage:usage_len <- $r5
	ldr	r0, [r7, #8]
	ldrb	r1, [r0]
	ldrb	r2, [r0, #1]
	lsls	r2, r2, #8
	adds	r1, r2, r1
	ldrb	r2, [r0, #2]
	ldrb	r0, [r0, #3]
	lsls	r0, r0, #8
	adds	r0, r0, r2
	lsls	r0, r0, #16
	adds	r0, r0, r1
.Ltmp647:
	.loc	3 1798 13 is_stmt 0             @ ../../../ThirdParty/mbedTLS/library/x509_crt.c:1798:13
	ldr	r1, __arm_cp.11_0
	cmp	r0, r1
	bne	.LBB11_2
.Ltmp648:
@ %bb.7:
	@DEBUG_VALUE: cur_oid <- $r7
	@DEBUG_VALUE: mbedtls_x509_crt_check_extended_key_usage:cur <- $r7
	@DEBUG_VALUE: mbedtls_x509_crt_check_extended_key_usage:usage_oid <- $r6
	@DEBUG_VALUE: mbedtls_x509_crt_check_extended_key_usage:usage_len <- $r5
	.loc	3 0 13                          @ ../../../ThirdParty/mbedTLS/library/x509_crt.c:0:13
	ldr	r2, [sp]                        @ 4-byte Reload
	b	.LBB11_10
.Ltmp649:
.LBB11_8:
	@DEBUG_VALUE: mbedtls_x509_crt_check_extended_key_usage:cur <- $r7
	@DEBUG_VALUE: mbedtls_x509_crt_check_extended_key_usage:usage_oid <- $r6
	@DEBUG_VALUE: mbedtls_x509_crt_check_extended_key_usage:usage_len <- $r5
	ldr	r2, __arm_cp.11_1
	b	.LBB11_10
.Ltmp650:
.LBB11_9:
	@DEBUG_VALUE: cur_oid <- $r7
	@DEBUG_VALUE: mbedtls_x509_crt_check_extended_key_usage:cur <- $r7
	@DEBUG_VALUE: mbedtls_x509_crt_check_extended_key_usage:usage_oid <- $r6
	@DEBUG_VALUE: mbedtls_x509_crt_check_extended_key_usage:usage_len <- $r5
	ldr	r2, [sp]                        @ 4-byte Reload
.Ltmp651:
.LBB11_10:
	@DEBUG_VALUE: mbedtls_x509_crt_check_extended_key_usage:usage_oid <- $r6
	@DEBUG_VALUE: mbedtls_x509_crt_check_extended_key_usage:usage_len <- $r5
	.loc	3 1803 1 is_stmt 1              @ ../../../ThirdParty/mbedTLS/library/x509_crt.c:1803:1
	mov	r0, r2
	add	sp, #4
	pop	{r4, r5, r6, r7, pc}
.Ltmp652:
	.p2align	2
@ %bb.11:
	.loc	3 0 1 is_stmt 0                 @ ../../../ThirdParty/mbedTLS/library/x509_crt.c:0:1
__arm_cp.11_0:
	.long	2432341                         @ 0x251d55
.Lcpi_end36:
	.size	__arm_cp.11_0, .Lcpi_end36-__arm_cp.11_0
__arm_cp.11_1:
	.long	4294957056                      @ 0xffffd800
.Lcpi_end37:
	.size	__arm_cp.11_1, .Lcpi_end37-__arm_cp.11_1
.Lfunc_end11:
	.size	mbedtls_x509_crt_check_extended_key_usage, .Lfunc_end11-mbedtls_x509_crt_check_extended_key_usage
	.cfi_endproc
	.cantunwind
	.fnend
                                        @ -- End function
	.section	.text.mbedtls_x509_crt_is_revoked,"ax",%progbits
	.hidden	mbedtls_x509_crt_is_revoked     @ -- Begin function mbedtls_x509_crt_is_revoked
	.globl	mbedtls_x509_crt_is_revoked
	.p2align	1
	.type	mbedtls_x509_crt_is_revoked,%function
	.code	16                              @ @mbedtls_x509_crt_is_revoked
	.thumb_func
mbedtls_x509_crt_is_revoked:
.Lfunc_begin12:
	.loc	3 1811 0 is_stmt 1              @ ../../../ThirdParty/mbedTLS/library/x509_crt.c:1811:0
	.fnstart
	.cfi_startproc
@ %bb.0:
	@DEBUG_VALUE: mbedtls_x509_crt_is_revoked:crt <- $r0
	@DEBUG_VALUE: mbedtls_x509_crt_is_revoked:crl <- $r1
	.save	{r4, r5, r6, r7, lr}
	push	{r4, r5, r6, r7, lr}
	.cfi_def_cfa_offset 20
	.cfi_offset lr, -4
	.cfi_offset r7, -8
	.cfi_offset r6, -12
	.cfi_offset r5, -16
	.cfi_offset r4, -20
	.pad	#4
	sub	sp, #4
	.cfi_def_cfa_offset 24
	mov	r5, r1
	mov	r6, r0
.Ltmp653:
	@DEBUG_VALUE: mbedtls_x509_crt_is_revoked:crl <- $r5
	@DEBUG_VALUE: mbedtls_x509_crt_is_revoked:crt <- $r6
	.loc	3 1812 47 prologue_end          @ ../../../ThirdParty/mbedTLS/library/x509_crt.c:1812:47
	adds	r5, #132
.Ltmp654:
	@DEBUG_VALUE: mbedtls_x509_crt_is_revoked:cur <- $r5
	.loc	3 0 47 is_stmt 0                @ ../../../ThirdParty/mbedTLS/library/x509_crt.c:0:47
	movs	r4, #0
	movs	r7, #1
	b	.LBB12_2
.Ltmp655:
.LBB12_1:                               @   in Loop: Header=BB12_2 Depth=1
	@DEBUG_VALUE: mbedtls_x509_crt_is_revoked:crt <- $r6
	@DEBUG_VALUE: mbedtls_x509_crt_is_revoked:cur <- $r5
	.loc	3 1823 20 is_stmt 1             @ ../../../ThirdParty/mbedTLS/library/x509_crt.c:1823:20
	ldr	r5, [r5, #60]
.Ltmp656:
	@DEBUG_VALUE: mbedtls_x509_crt_is_revoked:cur <- $r5
	.loc	3 1814 24                       @ ../../../ThirdParty/mbedTLS/library/x509_crt.c:1814:24
	cbz	r5, .LBB12_7
.Ltmp657:
.LBB12_2:                               @ =>This Inner Loop Header: Depth=1
	@DEBUG_VALUE: mbedtls_x509_crt_is_revoked:crt <- $r6
	@DEBUG_VALUE: mbedtls_x509_crt_is_revoked:cur <- $r5
	@DEBUG_VALUE: mbedtls_x509_crt_is_revoked:cur <- $r5
	.loc	3 1814 39 is_stmt 0             @ ../../../ThirdParty/mbedTLS/library/x509_crt.c:1814:39
	ldr	r0, [r5, #16]
	.loc	3 1814 5                        @ ../../../ThirdParty/mbedTLS/library/x509_crt.c:1814:5
	cbz	r0, .LBB12_7
.Ltmp658:
@ %bb.3:                                @   in Loop: Header=BB12_2 Depth=1
	@DEBUG_VALUE: mbedtls_x509_crt_is_revoked:crt <- $r6
	@DEBUG_VALUE: mbedtls_x509_crt_is_revoked:cur <- $r5
	.loc	3 1816 25 is_stmt 1             @ ../../../ThirdParty/mbedTLS/library/x509_crt.c:1816:25
	ldr	r2, [r6, #36]
	.loc	3 1816 48 is_stmt 0             @ ../../../ThirdParty/mbedTLS/library/x509_crt.c:1816:48
	cmp	r2, r0
	bne	.LBB12_1
.Ltmp659:
@ %bb.4:                                @   in Loop: Header=BB12_2 Depth=1
	@DEBUG_VALUE: mbedtls_x509_crt_is_revoked:crt <- $r6
	@DEBUG_VALUE: mbedtls_x509_crt_is_revoked:cur <- $r5
	.loc	3 1817 52 is_stmt 1             @ ../../../ThirdParty/mbedTLS/library/x509_crt.c:1817:52
	ldr	r1, [r5, #20]
	.loc	3 1817 37 is_stmt 0             @ ../../../ThirdParty/mbedTLS/library/x509_crt.c:1817:37
	ldr	r0, [r6, #40]
	.loc	3 1817 17                       @ ../../../ThirdParty/mbedTLS/library/x509_crt.c:1817:17
	bl	memcmp
.Ltmp660:
	.loc	3 1816 13 is_stmt 1             @ ../../../ThirdParty/mbedTLS/library/x509_crt.c:1816:13
	cmp	r0, #0
	bne	.LBB12_1
.Ltmp661:
@ %bb.5:                                @   in Loop: Header=BB12_2 Depth=1
	@DEBUG_VALUE: mbedtls_x509_crt_is_revoked:crt <- $r6
	@DEBUG_VALUE: mbedtls_x509_crt_is_revoked:cur <- $r5
	.loc	3 1819 50                       @ ../../../ThirdParty/mbedTLS/library/x509_crt.c:1819:50
	mov	r0, r5
	adds	r0, #24
	.loc	3 1819 17 is_stmt 0             @ ../../../ThirdParty/mbedTLS/library/x509_crt.c:1819:17
	bl	mbedtls_x509_time_is_past
.Ltmp662:
	.loc	3 1819 17                       @ ../../../ThirdParty/mbedTLS/library/x509_crt.c:1819:17
	cmp	r0, #0
	beq	.LBB12_1
.Ltmp663:
@ %bb.6:
	@DEBUG_VALUE: mbedtls_x509_crt_is_revoked:crt <- $r6
	@DEBUG_VALUE: mbedtls_x509_crt_is_revoked:cur <- $r5
	.loc	3 0 0                           @ ../../../ThirdParty/mbedTLS/library/x509_crt.c:0:0
	mov	r4, r7
.Ltmp664:
.LBB12_7:
	@DEBUG_VALUE: mbedtls_x509_crt_is_revoked:crt <- $r6
	@DEBUG_VALUE: mbedtls_x509_crt_is_revoked:cur <- $r5
	.loc	3 1827 1 is_stmt 1              @ ../../../ThirdParty/mbedTLS/library/x509_crt.c:1827:1
	mov	r0, r4
	add	sp, #4
	pop	{r4, r5, r6, r7, pc}
.Ltmp665:
.Lfunc_end12:
	.size	mbedtls_x509_crt_is_revoked, .Lfunc_end12-mbedtls_x509_crt_is_revoked
	.cfi_endproc
	.cantunwind
	.fnend
                                        @ -- End function
	.section	.text.mbedtls_x509_crt_verify,"ax",%progbits
	.hidden	mbedtls_x509_crt_verify         @ -- Begin function mbedtls_x509_crt_verify
	.globl	mbedtls_x509_crt_verify
	.p2align	2
	.type	mbedtls_x509_crt_verify,%function
	.code	16                              @ @mbedtls_x509_crt_verify
	.thumb_func
mbedtls_x509_crt_verify:
.Lfunc_begin13:
	.loc	3 2553 0                        @ ../../../ThirdParty/mbedTLS/library/x509_crt.c:2553:0
	.fnstart
	.cfi_startproc
@ %bb.0:
	@DEBUG_VALUE: mbedtls_x509_crt_verify:crt <- $r0
	@DEBUG_VALUE: mbedtls_x509_crt_verify:crt <- $r0
	@DEBUG_VALUE: mbedtls_x509_crt_verify:trust_ca <- $r1
	@DEBUG_VALUE: mbedtls_x509_crt_verify:trust_ca <- $r1
	@DEBUG_VALUE: mbedtls_x509_crt_verify:ca_crl <- $r2
	@DEBUG_VALUE: mbedtls_x509_crt_verify:ca_crl <- $r2
	@DEBUG_VALUE: mbedtls_x509_crt_verify:cn <- $r3
	@DEBUG_VALUE: mbedtls_x509_crt_verify:cn <- $r3
	.save	{r4, lr}
	push	{r4, lr}
	.cfi_def_cfa_offset 8
	.cfi_offset lr, -4
	.cfi_offset r4, -8
	.pad	#24
	sub	sp, #24
	.cfi_def_cfa_offset 32
.Ltmp666:
	@DEBUG_VALUE: mbedtls_x509_crt_verify:flags <- [DW_OP_plus_uconst 32] [$sp+0]
	@DEBUG_VALUE: mbedtls_x509_crt_verify:f_vrfy <- [DW_OP_plus_uconst 36] [$sp+0]
	@DEBUG_VALUE: mbedtls_x509_crt_verify:p_vrfy <- [DW_OP_plus_uconst 40] [$sp+0]
	ldr	r4, [sp, #40]
.Ltmp667:
	.loc	3 2554 13 prologue_end          @ ../../../ThirdParty/mbedTLS/library/x509_crt.c:2554:13
	str	r4, [sp, #12]
	ldr	r4, [sp, #36]
	str	r4, [sp, #8]
	ldr	r4, [sp, #32]
	str	r4, [sp, #4]
	str	r3, [sp]
	ldr	r3, __arm_cp.13_0
.Ltmp668:
	@DEBUG_VALUE: mbedtls_x509_crt_verify:cn <- [DW_OP_LLVM_entry_value 1] $r3
	@DEBUG_VALUE: mbedtls_x509_crt_verify:ca_crl <- $r2
	@DEBUG_VALUE: mbedtls_x509_crt_verify:trust_ca <- $r1
	@DEBUG_VALUE: mbedtls_x509_crt_verify:crt <- $r0
	bl	mbedtls_x509_crt_verify_restartable
.Ltmp669:
	@DEBUG_VALUE: mbedtls_x509_crt_verify:ca_crl <- [DW_OP_LLVM_entry_value 1] $r2
	@DEBUG_VALUE: mbedtls_x509_crt_verify:trust_ca <- [DW_OP_LLVM_entry_value 1] $r1
	@DEBUG_VALUE: mbedtls_x509_crt_verify:crt <- [DW_OP_LLVM_entry_value 1] $r0
	.loc	3 2554 5 is_stmt 0              @ ../../../ThirdParty/mbedTLS/library/x509_crt.c:2554:5
	add	sp, #24
.Ltmp670:
	pop	{r4, pc}
.Ltmp671:
	.p2align	2
@ %bb.1:
	.loc	3 0 5                           @ ../../../ThirdParty/mbedTLS/library/x509_crt.c:0:5
__arm_cp.13_0:
	.long	mbedtls_x509_crt_profile_default
.Lcpi_end38:
	.size	__arm_cp.13_0, .Lcpi_end38-__arm_cp.13_0
.Lfunc_end13:
	.size	mbedtls_x509_crt_verify, .Lfunc_end13-mbedtls_x509_crt_verify
	.cfi_endproc
	.cantunwind
	.fnend
                                        @ -- End function
	.section	.text.mbedtls_x509_crt_verify_restartable,"ax",%progbits
	.hidden	mbedtls_x509_crt_verify_restartable @ -- Begin function mbedtls_x509_crt_verify_restartable
	.globl	mbedtls_x509_crt_verify_restartable
	.p2align	2
	.type	mbedtls_x509_crt_verify_restartable,%function
	.code	16                              @ @mbedtls_x509_crt_verify_restartable
	.thumb_func
mbedtls_x509_crt_verify_restartable:
.Lfunc_begin14:
	.loc	3 2592 0 is_stmt 1              @ ../../../ThirdParty/mbedTLS/library/x509_crt.c:2592:0
	.fnstart
	.cfi_startproc
@ %bb.0:
	@DEBUG_VALUE: mbedtls_x509_crt_verify_restartable:crt <- $r0
	@DEBUG_VALUE: mbedtls_x509_crt_verify_restartable:trust_ca <- $r1
	@DEBUG_VALUE: mbedtls_x509_crt_verify_restartable:ca_crl <- $r2
	@DEBUG_VALUE: mbedtls_x509_crt_verify_restartable:profile <- $r3
	.save	{r4, r5, r6, r7, lr}
	push	{r4, r5, r6, r7, lr}
	.cfi_def_cfa_offset 20
	.cfi_offset lr, -4
	.cfi_offset r7, -8
	.cfi_offset r6, -12
	.cfi_offset r5, -16
	.cfi_offset r4, -20
	.pad	#108
	sub	sp, #108
	.cfi_def_cfa_offset 128
	mov	r5, r3
	str	r2, [sp, #16]                   @ 4-byte Spill
	str	r1, [sp, #12]                   @ 4-byte Spill
	mov	r7, r0
	@DEBUG_VALUE: mbedtls_x509_crt_verify_restartable:rs_ctx <- undef
	ldr	r6, [sp, #132]
	movs	r4, #0
.Ltmp672:
	@DEBUG_VALUE: mbedtls_x509_crt_verify_restartable:p_vrfy <- [DW_OP_plus_uconst 140] [$sp+0]
	@DEBUG_VALUE: mbedtls_x509_crt_verify_restartable:f_vrfy <- [DW_OP_plus_uconst 136] [$sp+0]
	@DEBUG_VALUE: mbedtls_x509_crt_verify_restartable:flags <- [DW_OP_plus_uconst 132] [$sp+0]
	@DEBUG_VALUE: mbedtls_x509_crt_verify_restartable:cn <- [DW_OP_plus_uconst 128] [$sp+0]
	@DEBUG_VALUE: mbedtls_x509_crt_verify_restartable:profile <- $r5
	@DEBUG_VALUE: mbedtls_x509_crt_verify_restartable:ca_crl <- [DW_OP_plus_uconst 16] [$sp+0]
	@DEBUG_VALUE: mbedtls_x509_crt_verify_restartable:trust_ca <- [DW_OP_plus_uconst 12] [$sp+0]
	@DEBUG_VALUE: mbedtls_x509_crt_verify_restartable:crt <- $r7
	.loc	3 2598 12 prologue_end          @ ../../../ThirdParty/mbedTLS/library/x509_crt.c:2598:12
	str	r4, [r6]
.Ltmp673:
	@DEBUG_VALUE: mbedtls_x509_crt_verify_restartable:ee_flags <- 0
	.loc	3 2599 14                       @ ../../../ThirdParty/mbedTLS/library/x509_crt.c:2599:14
	str	r4, [sp, #20]
	add	r0, sp, #24
	.loc	3 2600 5                        @ ../../../ThirdParty/mbedTLS/library/x509_crt.c:2600:5
	bl	x509_crt_verify_chain_reset
	.loc	3 2602 9                        @ ../../../ThirdParty/mbedTLS/library/x509_crt.c:2602:9
	cbz	r5, .LBB14_9
.Ltmp674:
@ %bb.1:
	@DEBUG_VALUE: mbedtls_x509_crt_verify_restartable:crt <- $r7
	@DEBUG_VALUE: mbedtls_x509_crt_verify_restartable:profile <- $r5
	@DEBUG_VALUE: mbedtls_x509_crt_verify_restartable:trust_ca <- [DW_OP_plus_uconst 12] [$sp+0]
	@DEBUG_VALUE: mbedtls_x509_crt_verify_restartable:ca_crl <- [DW_OP_plus_uconst 16] [$sp+0]
	@DEBUG_VALUE: mbedtls_x509_crt_verify_restartable:cn <- [DW_OP_plus_uconst 128] [$sp+0]
	@DEBUG_VALUE: mbedtls_x509_crt_verify_restartable:flags <- [DW_OP_plus_uconst 132] [$sp+0]
	@DEBUG_VALUE: mbedtls_x509_crt_verify_restartable:f_vrfy <- [DW_OP_plus_uconst 136] [$sp+0]
	@DEBUG_VALUE: mbedtls_x509_crt_verify_restartable:p_vrfy <- [DW_OP_plus_uconst 140] [$sp+0]
	@DEBUG_VALUE: mbedtls_x509_crt_verify_restartable:ee_flags <- 0
	.loc	3 0 9 is_stmt 0                 @ ../../../ThirdParty/mbedTLS/library/x509_crt.c:0:9
	str	r6, [sp, #8]                    @ 4-byte Spill
	ldr	r1, [sp, #128]
	.loc	3 2609 9 is_stmt 1              @ ../../../ThirdParty/mbedTLS/library/x509_crt.c:2609:9
	cbz	r1, .LBB14_3
.Ltmp675:
@ %bb.2:
	@DEBUG_VALUE: mbedtls_x509_crt_verify_restartable:crt <- $r7
	@DEBUG_VALUE: mbedtls_x509_crt_verify_restartable:profile <- $r5
	@DEBUG_VALUE: mbedtls_x509_crt_verify_restartable:trust_ca <- [DW_OP_plus_uconst 12] [$sp+0]
	@DEBUG_VALUE: mbedtls_x509_crt_verify_restartable:ca_crl <- [DW_OP_plus_uconst 16] [$sp+0]
	@DEBUG_VALUE: mbedtls_x509_crt_verify_restartable:cn <- [DW_OP_plus_uconst 128] [$sp+0]
	@DEBUG_VALUE: mbedtls_x509_crt_verify_restartable:flags <- [DW_OP_plus_uconst 132] [$sp+0]
	@DEBUG_VALUE: mbedtls_x509_crt_verify_restartable:f_vrfy <- [DW_OP_plus_uconst 136] [$sp+0]
	@DEBUG_VALUE: mbedtls_x509_crt_verify_restartable:p_vrfy <- [DW_OP_plus_uconst 140] [$sp+0]
	@DEBUG_VALUE: mbedtls_x509_crt_verify_restartable:ee_flags <- 0
	@DEBUG_VALUE: mbedtls_x509_crt_verify_restartable:ee_flags <- [DW_OP_plus_uconst 20, DW_OP_deref] $sp
	.loc	3 0 9 is_stmt 0                 @ ../../../ThirdParty/mbedTLS/library/x509_crt.c:0:9
	add	r2, sp, #20
.Ltmp676:
	.loc	3 2610 9 is_stmt 1              @ ../../../ThirdParty/mbedTLS/library/x509_crt.c:2610:9
	mov	r0, r7
	bl	x509_crt_verify_name
.Ltmp677:
.LBB14_3:
	@DEBUG_VALUE: mbedtls_x509_crt_verify_restartable:crt <- $r7
	@DEBUG_VALUE: mbedtls_x509_crt_verify_restartable:profile <- $r5
	@DEBUG_VALUE: mbedtls_x509_crt_verify_restartable:trust_ca <- [DW_OP_plus_uconst 12] [$sp+0]
	@DEBUG_VALUE: mbedtls_x509_crt_verify_restartable:ca_crl <- [DW_OP_plus_uconst 16] [$sp+0]
	@DEBUG_VALUE: mbedtls_x509_crt_verify_restartable:cn <- [DW_OP_plus_uconst 128] [$sp+0]
	@DEBUG_VALUE: mbedtls_x509_crt_verify_restartable:flags <- [DW_OP_plus_uconst 132] [$sp+0]
	@DEBUG_VALUE: mbedtls_x509_crt_verify_restartable:f_vrfy <- [DW_OP_plus_uconst 136] [$sp+0]
	@DEBUG_VALUE: mbedtls_x509_crt_verify_restartable:p_vrfy <- [DW_OP_plus_uconst 140] [$sp+0]
	.loc	3 2613 42                       @ ../../../ThirdParty/mbedTLS/library/x509_crt.c:2613:42
	mov	r6, r7
	adds	r6, #204
	.loc	3 2613 15 is_stmt 0             @ ../../../ThirdParty/mbedTLS/library/x509_crt.c:2613:15
	mov	r0, r6
	bl	mbedtls_pk_get_type
	mov	r1, r0
.Ltmp678:
	@DEBUG_VALUE: mbedtls_x509_crt_verify_restartable:pk_type <- undef
	.loc	3 2615 9 is_stmt 1              @ ../../../ThirdParty/mbedTLS/library/x509_crt.c:2615:9
	mov	r0, r5
	bl	x509_profile_check_pk_alg
.Ltmp679:
	.loc	3 2615 9 is_stmt 0              @ ../../../ThirdParty/mbedTLS/library/x509_crt.c:2615:9
	cbz	r0, .LBB14_5
.Ltmp680:
@ %bb.4:
	@DEBUG_VALUE: mbedtls_x509_crt_verify_restartable:crt <- $r7
	@DEBUG_VALUE: mbedtls_x509_crt_verify_restartable:profile <- $r5
	@DEBUG_VALUE: mbedtls_x509_crt_verify_restartable:trust_ca <- [DW_OP_plus_uconst 12] [$sp+0]
	@DEBUG_VALUE: mbedtls_x509_crt_verify_restartable:ca_crl <- [DW_OP_plus_uconst 16] [$sp+0]
	@DEBUG_VALUE: mbedtls_x509_crt_verify_restartable:cn <- [DW_OP_plus_uconst 128] [$sp+0]
	@DEBUG_VALUE: mbedtls_x509_crt_verify_restartable:flags <- [DW_OP_plus_uconst 132] [$sp+0]
	@DEBUG_VALUE: mbedtls_x509_crt_verify_restartable:f_vrfy <- [DW_OP_plus_uconst 136] [$sp+0]
	@DEBUG_VALUE: mbedtls_x509_crt_verify_restartable:p_vrfy <- [DW_OP_plus_uconst 140] [$sp+0]
	.loc	3 0 9                           @ ../../../ThirdParty/mbedTLS/library/x509_crt.c:0:9
	movw	r0, #32768
.Ltmp681:
	.loc	3 2616 18 is_stmt 1             @ ../../../ThirdParty/mbedTLS/library/x509_crt.c:2616:18
	ldr	r1, [sp, #20]
.Ltmp682:
	@DEBUG_VALUE: mbedtls_x509_crt_verify_restartable:ee_flags <- $r1
	orrs	r1, r0
.Ltmp683:
	@DEBUG_VALUE: mbedtls_x509_crt_verify_restartable:ee_flags <- $r1
	str	r1, [sp, #20]
.Ltmp684:
.LBB14_5:
	@DEBUG_VALUE: mbedtls_x509_crt_verify_restartable:crt <- $r7
	@DEBUG_VALUE: mbedtls_x509_crt_verify_restartable:profile <- $r5
	@DEBUG_VALUE: mbedtls_x509_crt_verify_restartable:trust_ca <- [DW_OP_plus_uconst 12] [$sp+0]
	@DEBUG_VALUE: mbedtls_x509_crt_verify_restartable:ca_crl <- [DW_OP_plus_uconst 16] [$sp+0]
	@DEBUG_VALUE: mbedtls_x509_crt_verify_restartable:cn <- [DW_OP_plus_uconst 128] [$sp+0]
	@DEBUG_VALUE: mbedtls_x509_crt_verify_restartable:flags <- [DW_OP_plus_uconst 132] [$sp+0]
	@DEBUG_VALUE: mbedtls_x509_crt_verify_restartable:f_vrfy <- [DW_OP_plus_uconst 136] [$sp+0]
	@DEBUG_VALUE: mbedtls_x509_crt_verify_restartable:p_vrfy <- [DW_OP_plus_uconst 140] [$sp+0]
	.loc	3 2618 9                        @ ../../../ThirdParty/mbedTLS/library/x509_crt.c:2618:9
	mov	r0, r5
	mov	r1, r6
	bl	x509_profile_check_key
.Ltmp685:
	.loc	3 2618 9 is_stmt 0              @ ../../../ThirdParty/mbedTLS/library/x509_crt.c:2618:9
	cbz	r0, .LBB14_7
.Ltmp686:
@ %bb.6:
	@DEBUG_VALUE: mbedtls_x509_crt_verify_restartable:crt <- $r7
	@DEBUG_VALUE: mbedtls_x509_crt_verify_restartable:profile <- $r5
	@DEBUG_VALUE: mbedtls_x509_crt_verify_restartable:trust_ca <- [DW_OP_plus_uconst 12] [$sp+0]
	@DEBUG_VALUE: mbedtls_x509_crt_verify_restartable:ca_crl <- [DW_OP_plus_uconst 16] [$sp+0]
	@DEBUG_VALUE: mbedtls_x509_crt_verify_restartable:cn <- [DW_OP_plus_uconst 128] [$sp+0]
	@DEBUG_VALUE: mbedtls_x509_crt_verify_restartable:flags <- [DW_OP_plus_uconst 132] [$sp+0]
	@DEBUG_VALUE: mbedtls_x509_crt_verify_restartable:f_vrfy <- [DW_OP_plus_uconst 136] [$sp+0]
	@DEBUG_VALUE: mbedtls_x509_crt_verify_restartable:p_vrfy <- [DW_OP_plus_uconst 140] [$sp+0]
	.loc	3 0 9                           @ ../../../ThirdParty/mbedTLS/library/x509_crt.c:0:9
	movs	r0, #1
	lsls	r0, r0, #16
.Ltmp687:
	.loc	3 2619 18 is_stmt 1             @ ../../../ThirdParty/mbedTLS/library/x509_crt.c:2619:18
	ldr	r1, [sp, #20]
.Ltmp688:
	@DEBUG_VALUE: mbedtls_x509_crt_verify_restartable:ee_flags <- $r1
	orrs	r1, r0
.Ltmp689:
	@DEBUG_VALUE: mbedtls_x509_crt_verify_restartable:ee_flags <- $r1
	str	r1, [sp, #20]
.Ltmp690:
.LBB14_7:
	@DEBUG_VALUE: mbedtls_x509_crt_verify_restartable:crt <- $r7
	@DEBUG_VALUE: mbedtls_x509_crt_verify_restartable:profile <- $r5
	@DEBUG_VALUE: mbedtls_x509_crt_verify_restartable:trust_ca <- [DW_OP_plus_uconst 12] [$sp+0]
	@DEBUG_VALUE: mbedtls_x509_crt_verify_restartable:ca_crl <- [DW_OP_plus_uconst 16] [$sp+0]
	@DEBUG_VALUE: mbedtls_x509_crt_verify_restartable:cn <- [DW_OP_plus_uconst 128] [$sp+0]
	@DEBUG_VALUE: mbedtls_x509_crt_verify_restartable:flags <- [DW_OP_plus_uconst 132] [$sp+0]
	@DEBUG_VALUE: mbedtls_x509_crt_verify_restartable:f_vrfy <- [DW_OP_plus_uconst 136] [$sp+0]
	@DEBUG_VALUE: mbedtls_x509_crt_verify_restartable:p_vrfy <- [DW_OP_plus_uconst 140] [$sp+0]
	.loc	3 0 18 is_stmt 0                @ ../../../ThirdParty/mbedTLS/library/x509_crt.c:0:18
	add	r0, sp, #24
	.loc	3 2622 11 is_stmt 1             @ ../../../ThirdParty/mbedTLS/library/x509_crt.c:2622:11
	str	r0, [sp]
	mov	r0, r7
	ldr	r1, [sp, #12]                   @ 4-byte Reload
	ldr	r2, [sp, #16]                   @ 4-byte Reload
	mov	r3, r5
	bl	x509_crt_verify_chain
.Ltmp691:
	@DEBUG_VALUE: mbedtls_x509_crt_verify_restartable:ret <- $r0
	.loc	3 0 11 is_stmt 0                @ ../../../ThirdParty/mbedTLS/library/x509_crt.c:0:11
	ldr	r6, [sp, #8]                    @ 4-byte Reload
	.loc	3 2625 9 is_stmt 1              @ ../../../ThirdParty/mbedTLS/library/x509_crt.c:2625:9
	cbnz	r0, .LBB14_10
.Ltmp692:
@ %bb.8:
	@DEBUG_VALUE: mbedtls_x509_crt_verify_restartable:crt <- $r7
	@DEBUG_VALUE: mbedtls_x509_crt_verify_restartable:profile <- $r5
	@DEBUG_VALUE: mbedtls_x509_crt_verify_restartable:ret <- $r0
	@DEBUG_VALUE: mbedtls_x509_crt_verify_restartable:trust_ca <- [DW_OP_plus_uconst 12] [$sp+0]
	@DEBUG_VALUE: mbedtls_x509_crt_verify_restartable:ca_crl <- [DW_OP_plus_uconst 16] [$sp+0]
	@DEBUG_VALUE: mbedtls_x509_crt_verify_restartable:cn <- [DW_OP_plus_uconst 128] [$sp+0]
	@DEBUG_VALUE: mbedtls_x509_crt_verify_restartable:flags <- [DW_OP_plus_uconst 132] [$sp+0]
	@DEBUG_VALUE: mbedtls_x509_crt_verify_restartable:f_vrfy <- [DW_OP_plus_uconst 136] [$sp+0]
	@DEBUG_VALUE: mbedtls_x509_crt_verify_restartable:p_vrfy <- [DW_OP_plus_uconst 140] [$sp+0]
	.loc	3 0 9 is_stmt 0                 @ ../../../ThirdParty/mbedTLS/library/x509_crt.c:0:9
	ldr	r3, [sp, #140]
	ldr	r2, [sp, #136]
	.loc	3 2629 33 is_stmt 1             @ ../../../ThirdParty/mbedTLS/library/x509_crt.c:2629:33
	ldr	r0, [sp, #20]
.Ltmp693:
	@DEBUG_VALUE: mbedtls_x509_crt_verify_restartable:ee_flags <- $r0
	.loc	3 2629 30 is_stmt 0             @ ../../../ThirdParty/mbedTLS/library/x509_crt.c:2629:30
	ldr	r1, [sp, #28]
	orrs	r1, r0
	str	r1, [sp, #28]
	add	r1, sp, #24
	.loc	3 2632 11 is_stmt 1             @ ../../../ThirdParty/mbedTLS/library/x509_crt.c:2632:11
	mov	r0, r6
.Ltmp694:
	bl	x509_crt_merge_flags_with_cb
.Ltmp695:
	@DEBUG_VALUE: mbedtls_x509_crt_verify_restartable:ret <- $r0
	.loc	3 0 11 is_stmt 0                @ ../../../ThirdParty/mbedTLS/library/x509_crt.c:0:11
	b	.LBB14_10
.Ltmp696:
.LBB14_9:
	@DEBUG_VALUE: mbedtls_x509_crt_verify_restartable:crt <- $r7
	@DEBUG_VALUE: mbedtls_x509_crt_verify_restartable:profile <- $r5
	@DEBUG_VALUE: mbedtls_x509_crt_verify_restartable:trust_ca <- [DW_OP_plus_uconst 12] [$sp+0]
	@DEBUG_VALUE: mbedtls_x509_crt_verify_restartable:ca_crl <- [DW_OP_plus_uconst 16] [$sp+0]
	@DEBUG_VALUE: mbedtls_x509_crt_verify_restartable:cn <- [DW_OP_plus_uconst 128] [$sp+0]
	@DEBUG_VALUE: mbedtls_x509_crt_verify_restartable:flags <- [DW_OP_plus_uconst 132] [$sp+0]
	@DEBUG_VALUE: mbedtls_x509_crt_verify_restartable:f_vrfy <- [DW_OP_plus_uconst 136] [$sp+0]
	@DEBUG_VALUE: mbedtls_x509_crt_verify_restartable:p_vrfy <- [DW_OP_plus_uconst 140] [$sp+0]
	@DEBUG_VALUE: mbedtls_x509_crt_verify_restartable:ee_flags <- 0
	ldr	r0, __arm_cp.14_0
.Ltmp697:
.LBB14_10:
	@DEBUG_VALUE: mbedtls_x509_crt_verify_restartable:crt <- $r7
	@DEBUG_VALUE: mbedtls_x509_crt_verify_restartable:profile <- $r5
	@DEBUG_VALUE: mbedtls_x509_crt_verify_restartable:trust_ca <- [DW_OP_plus_uconst 12] [$sp+0]
	@DEBUG_VALUE: mbedtls_x509_crt_verify_restartable:ca_crl <- [DW_OP_plus_uconst 16] [$sp+0]
	@DEBUG_VALUE: mbedtls_x509_crt_verify_restartable:cn <- [DW_OP_plus_uconst 128] [$sp+0]
	@DEBUG_VALUE: mbedtls_x509_crt_verify_restartable:flags <- [DW_OP_plus_uconst 132] [$sp+0]
	@DEBUG_VALUE: mbedtls_x509_crt_verify_restartable:f_vrfy <- [DW_OP_plus_uconst 136] [$sp+0]
	@DEBUG_VALUE: mbedtls_x509_crt_verify_restartable:p_vrfy <- [DW_OP_plus_uconst 140] [$sp+0]
	@DEBUG_VALUE: mbedtls_x509_crt_verify_restartable:ret <- $r0
	@DEBUG_LABEL: mbedtls_x509_crt_verify_restartable:exit
	ldr	r1, __arm_cp.14_1
	.loc	3 2643 9 is_stmt 1              @ ../../../ThirdParty/mbedTLS/library/x509_crt.c:2643:9
	cmp	r0, r1
	bne	.LBB14_12
.Ltmp698:
@ %bb.11:
	@DEBUG_VALUE: mbedtls_x509_crt_verify_restartable:crt <- $r7
	@DEBUG_VALUE: mbedtls_x509_crt_verify_restartable:profile <- $r5
	@DEBUG_VALUE: mbedtls_x509_crt_verify_restartable:ret <- $r0
	@DEBUG_VALUE: mbedtls_x509_crt_verify_restartable:trust_ca <- [DW_OP_plus_uconst 12] [$sp+0]
	@DEBUG_VALUE: mbedtls_x509_crt_verify_restartable:ca_crl <- [DW_OP_plus_uconst 16] [$sp+0]
	@DEBUG_VALUE: mbedtls_x509_crt_verify_restartable:cn <- [DW_OP_plus_uconst 128] [$sp+0]
	@DEBUG_VALUE: mbedtls_x509_crt_verify_restartable:flags <- [DW_OP_plus_uconst 132] [$sp+0]
	@DEBUG_VALUE: mbedtls_x509_crt_verify_restartable:f_vrfy <- [DW_OP_plus_uconst 136] [$sp+0]
	@DEBUG_VALUE: mbedtls_x509_crt_verify_restartable:p_vrfy <- [DW_OP_plus_uconst 140] [$sp+0]
	.loc	3 0 9 is_stmt 0                 @ ../../../ThirdParty/mbedTLS/library/x509_crt.c:0:9
	ldr	r0, __arm_cp.14_2
.Ltmp699:
.LBB14_12:
	@DEBUG_VALUE: mbedtls_x509_crt_verify_restartable:crt <- $r7
	@DEBUG_VALUE: mbedtls_x509_crt_verify_restartable:profile <- $r5
	@DEBUG_VALUE: mbedtls_x509_crt_verify_restartable:trust_ca <- [DW_OP_plus_uconst 12] [$sp+0]
	@DEBUG_VALUE: mbedtls_x509_crt_verify_restartable:ca_crl <- [DW_OP_plus_uconst 16] [$sp+0]
	@DEBUG_VALUE: mbedtls_x509_crt_verify_restartable:cn <- [DW_OP_plus_uconst 128] [$sp+0]
	@DEBUG_VALUE: mbedtls_x509_crt_verify_restartable:flags <- [DW_OP_plus_uconst 132] [$sp+0]
	@DEBUG_VALUE: mbedtls_x509_crt_verify_restartable:f_vrfy <- [DW_OP_plus_uconst 136] [$sp+0]
	@DEBUG_VALUE: mbedtls_x509_crt_verify_restartable:p_vrfy <- [DW_OP_plus_uconst 140] [$sp+0]
	@DEBUG_VALUE: mbedtls_x509_crt_verify_restartable:ret <- $r0
	.loc	3 2646 9 is_stmt 1              @ ../../../ThirdParty/mbedTLS/library/x509_crt.c:2646:9
	cbz	r0, .LBB14_14
.Ltmp700:
@ %bb.13:
	@DEBUG_VALUE: mbedtls_x509_crt_verify_restartable:crt <- $r7
	@DEBUG_VALUE: mbedtls_x509_crt_verify_restartable:profile <- $r5
	@DEBUG_VALUE: mbedtls_x509_crt_verify_restartable:ret <- $r0
	@DEBUG_VALUE: mbedtls_x509_crt_verify_restartable:trust_ca <- [DW_OP_plus_uconst 12] [$sp+0]
	@DEBUG_VALUE: mbedtls_x509_crt_verify_restartable:ca_crl <- [DW_OP_plus_uconst 16] [$sp+0]
	@DEBUG_VALUE: mbedtls_x509_crt_verify_restartable:cn <- [DW_OP_plus_uconst 128] [$sp+0]
	@DEBUG_VALUE: mbedtls_x509_crt_verify_restartable:flags <- [DW_OP_plus_uconst 132] [$sp+0]
	@DEBUG_VALUE: mbedtls_x509_crt_verify_restartable:f_vrfy <- [DW_OP_plus_uconst 136] [$sp+0]
	@DEBUG_VALUE: mbedtls_x509_crt_verify_restartable:p_vrfy <- [DW_OP_plus_uconst 140] [$sp+0]
	.loc	3 0 9 is_stmt 0                 @ ../../../ThirdParty/mbedTLS/library/x509_crt.c:0:9
	mvns	r1, r4
.Ltmp701:
	.loc	3 2648 16 is_stmt 1             @ ../../../ThirdParty/mbedTLS/library/x509_crt.c:2648:16
	str	r1, [r6]
.Ltmp702:
	.loc	3 0 0 is_stmt 0                 @ ../../../ThirdParty/mbedTLS/library/x509_crt.c:0:0
	mov	r1, r0
.Ltmp703:
	.loc	3 2649 9 is_stmt 1              @ ../../../ThirdParty/mbedTLS/library/x509_crt.c:2649:9
	b	.LBB14_16
.Ltmp704:
.LBB14_14:
	@DEBUG_VALUE: mbedtls_x509_crt_verify_restartable:crt <- $r7
	@DEBUG_VALUE: mbedtls_x509_crt_verify_restartable:profile <- $r5
	@DEBUG_VALUE: mbedtls_x509_crt_verify_restartable:ret <- $r0
	@DEBUG_VALUE: mbedtls_x509_crt_verify_restartable:trust_ca <- [DW_OP_plus_uconst 12] [$sp+0]
	@DEBUG_VALUE: mbedtls_x509_crt_verify_restartable:ca_crl <- [DW_OP_plus_uconst 16] [$sp+0]
	@DEBUG_VALUE: mbedtls_x509_crt_verify_restartable:cn <- [DW_OP_plus_uconst 128] [$sp+0]
	@DEBUG_VALUE: mbedtls_x509_crt_verify_restartable:flags <- [DW_OP_plus_uconst 132] [$sp+0]
	@DEBUG_VALUE: mbedtls_x509_crt_verify_restartable:f_vrfy <- [DW_OP_plus_uconst 136] [$sp+0]
	@DEBUG_VALUE: mbedtls_x509_crt_verify_restartable:p_vrfy <- [DW_OP_plus_uconst 140] [$sp+0]
	.loc	3 2652 9                        @ ../../../ThirdParty/mbedTLS/library/x509_crt.c:2652:9
	ldr	r0, [r6]
.Ltmp705:
	.loc	3 2652 9 is_stmt 0              @ ../../../ThirdParty/mbedTLS/library/x509_crt.c:2652:9
	cbnz	r0, .LBB14_16
.Ltmp706:
@ %bb.15:
	@DEBUG_VALUE: mbedtls_x509_crt_verify_restartable:crt <- $r7
	@DEBUG_VALUE: mbedtls_x509_crt_verify_restartable:profile <- $r5
	@DEBUG_VALUE: mbedtls_x509_crt_verify_restartable:trust_ca <- [DW_OP_plus_uconst 12] [$sp+0]
	@DEBUG_VALUE: mbedtls_x509_crt_verify_restartable:ca_crl <- [DW_OP_plus_uconst 16] [$sp+0]
	@DEBUG_VALUE: mbedtls_x509_crt_verify_restartable:cn <- [DW_OP_plus_uconst 128] [$sp+0]
	@DEBUG_VALUE: mbedtls_x509_crt_verify_restartable:flags <- [DW_OP_plus_uconst 132] [$sp+0]
	@DEBUG_VALUE: mbedtls_x509_crt_verify_restartable:f_vrfy <- [DW_OP_plus_uconst 136] [$sp+0]
	@DEBUG_VALUE: mbedtls_x509_crt_verify_restartable:p_vrfy <- [DW_OP_plus_uconst 140] [$sp+0]
	mov	r1, r0
.Ltmp707:
.LBB14_16:
	@DEBUG_VALUE: mbedtls_x509_crt_verify_restartable:crt <- $r7
	@DEBUG_VALUE: mbedtls_x509_crt_verify_restartable:profile <- $r5
	@DEBUG_VALUE: mbedtls_x509_crt_verify_restartable:trust_ca <- [DW_OP_plus_uconst 12] [$sp+0]
	@DEBUG_VALUE: mbedtls_x509_crt_verify_restartable:ca_crl <- [DW_OP_plus_uconst 16] [$sp+0]
	@DEBUG_VALUE: mbedtls_x509_crt_verify_restartable:cn <- [DW_OP_plus_uconst 128] [$sp+0]
	@DEBUG_VALUE: mbedtls_x509_crt_verify_restartable:flags <- [DW_OP_plus_uconst 132] [$sp+0]
	@DEBUG_VALUE: mbedtls_x509_crt_verify_restartable:f_vrfy <- [DW_OP_plus_uconst 136] [$sp+0]
	@DEBUG_VALUE: mbedtls_x509_crt_verify_restartable:p_vrfy <- [DW_OP_plus_uconst 140] [$sp+0]
	.loc	3 2656 1 is_stmt 1              @ ../../../ThirdParty/mbedTLS/library/x509_crt.c:2656:1
	mov	r0, r1
	add	sp, #108
.Ltmp708:
	pop	{r4, r5, r6, r7, pc}
.Ltmp709:
	.p2align	2
@ %bb.17:
	.loc	3 0 1 is_stmt 0                 @ ../../../ThirdParty/mbedTLS/library/x509_crt.c:0:1
__arm_cp.14_0:
	.long	4294957056                      @ 0xffffd800
.Lcpi_end39:
	.size	__arm_cp.14_0, .Lcpi_end39-__arm_cp.14_0
__arm_cp.14_1:
	.long	4294957312                      @ 0xffffd900
.Lcpi_end40:
	.size	__arm_cp.14_1, .Lcpi_end40-__arm_cp.14_1
__arm_cp.14_2:
	.long	4294955008                      @ 0xffffd000
.Lcpi_end41:
	.size	__arm_cp.14_2, .Lcpi_end41-__arm_cp.14_2
.Lfunc_end14:
	.size	mbedtls_x509_crt_verify_restartable, .Lfunc_end14-mbedtls_x509_crt_verify_restartable
	.cfi_endproc
	.cantunwind
	.fnend
                                        @ -- End function
	.section	.text.mbedtls_x509_crt_verify_with_profile,"ax",%progbits
	.hidden	mbedtls_x509_crt_verify_with_profile @ -- Begin function mbedtls_x509_crt_verify_with_profile
	.globl	mbedtls_x509_crt_verify_with_profile
	.p2align	1
	.type	mbedtls_x509_crt_verify_with_profile,%function
	.code	16                              @ @mbedtls_x509_crt_verify_with_profile
	.thumb_func
mbedtls_x509_crt_verify_with_profile:
.Lfunc_begin15:
	.loc	3 2569 0 is_stmt 1              @ ../../../ThirdParty/mbedTLS/library/x509_crt.c:2569:0
	.fnstart
	.cfi_startproc
@ %bb.0:
	@DEBUG_VALUE: mbedtls_x509_crt_verify_with_profile:crt <- $r0
	@DEBUG_VALUE: mbedtls_x509_crt_verify_with_profile:crt <- $r0
	@DEBUG_VALUE: mbedtls_x509_crt_verify_with_profile:trust_ca <- $r1
	@DEBUG_VALUE: mbedtls_x509_crt_verify_with_profile:trust_ca <- $r1
	@DEBUG_VALUE: mbedtls_x509_crt_verify_with_profile:ca_crl <- $r2
	@DEBUG_VALUE: mbedtls_x509_crt_verify_with_profile:ca_crl <- $r2
	@DEBUG_VALUE: mbedtls_x509_crt_verify_with_profile:profile <- $r3
	@DEBUG_VALUE: mbedtls_x509_crt_verify_with_profile:profile <- $r3
	.save	{r4, lr}
	push	{r4, lr}
	.cfi_def_cfa_offset 8
	.cfi_offset lr, -4
	.cfi_offset r4, -8
	.pad	#24
	sub	sp, #24
	.cfi_def_cfa_offset 32
.Ltmp710:
	@DEBUG_VALUE: mbedtls_x509_crt_verify_with_profile:cn <- [DW_OP_plus_uconst 32] [$sp+0]
	@DEBUG_VALUE: mbedtls_x509_crt_verify_with_profile:flags <- [DW_OP_plus_uconst 36] [$sp+0]
	@DEBUG_VALUE: mbedtls_x509_crt_verify_with_profile:f_vrfy <- [DW_OP_plus_uconst 40] [$sp+0]
	@DEBUG_VALUE: mbedtls_x509_crt_verify_with_profile:p_vrfy <- [DW_OP_plus_uconst 44] [$sp+0]
	ldr	r4, [sp, #44]
.Ltmp711:
	.loc	3 2570 13 prologue_end          @ ../../../ThirdParty/mbedTLS/library/x509_crt.c:2570:13
	str	r4, [sp, #12]
	ldr	r4, [sp, #40]
	str	r4, [sp, #8]
	ldr	r4, [sp, #36]
	str	r4, [sp, #4]
	ldr	r4, [sp, #32]
	str	r4, [sp]
	@DEBUG_VALUE: mbedtls_x509_crt_verify_with_profile:profile <- $r3
	@DEBUG_VALUE: mbedtls_x509_crt_verify_with_profile:ca_crl <- $r2
	@DEBUG_VALUE: mbedtls_x509_crt_verify_with_profile:trust_ca <- $r1
	@DEBUG_VALUE: mbedtls_x509_crt_verify_with_profile:crt <- $r0
	bl	mbedtls_x509_crt_verify_restartable
.Ltmp712:
	@DEBUG_VALUE: mbedtls_x509_crt_verify_with_profile:profile <- [DW_OP_LLVM_entry_value 1] $r3
	@DEBUG_VALUE: mbedtls_x509_crt_verify_with_profile:ca_crl <- [DW_OP_LLVM_entry_value 1] $r2
	@DEBUG_VALUE: mbedtls_x509_crt_verify_with_profile:trust_ca <- [DW_OP_LLVM_entry_value 1] $r1
	@DEBUG_VALUE: mbedtls_x509_crt_verify_with_profile:crt <- [DW_OP_LLVM_entry_value 1] $r0
	.loc	3 2570 5 is_stmt 0              @ ../../../ThirdParty/mbedTLS/library/x509_crt.c:2570:5
	add	sp, #24
.Ltmp713:
	pop	{r4, pc}
.Ltmp714:
.Lfunc_end15:
	.size	mbedtls_x509_crt_verify_with_profile, .Lfunc_end15-mbedtls_x509_crt_verify_with_profile
	.cfi_endproc
	.cantunwind
	.fnend
                                        @ -- End function
	.section	.text.x509_crt_verify_chain_reset,"ax",%progbits
	.p2align	1                               @ -- Begin function x509_crt_verify_chain_reset
	.type	x509_crt_verify_chain_reset,%function
	.code	16                              @ @x509_crt_verify_chain_reset
	.thumb_func
x509_crt_verify_chain_reset:
.Lfunc_begin16:
	.loc	3 370 0 is_stmt 1               @ ../../../ThirdParty/mbedTLS/library/x509_crt.c:370:0
	.fnstart
	.cfi_startproc
@ %bb.0:
	@DEBUG_VALUE: x509_crt_verify_chain_reset:ver_chain <- $r0
	@DEBUG_VALUE: x509_crt_verify_chain_reset:ver_chain <- $r0
	.save	{r4, lr}
	push	{r4, lr}
	.cfi_def_cfa_offset 8
	.cfi_offset lr, -4
	.cfi_offset r4, -8
	movs	r1, #0
.Ltmp715:
	@DEBUG_VALUE: x509_crt_verify_chain_reset:i <- 0
	mvns	r2, r1
	mov	r3, r1
.Ltmp716:
.LBB16_1:                               @ =>This Inner Loop Header: Depth=1
	@DEBUG_VALUE: x509_crt_verify_chain_reset:ver_chain <- $r0
	@DEBUG_VALUE: x509_crt_verify_chain_reset:i <- undef
	.loc	3 375 33 prologue_end           @ ../../../ThirdParty/mbedTLS/library/x509_crt.c:375:33
	str	r1, [r0, r3]
	adds	r4, r0, r3
	.loc	3 376 35                        @ ../../../ThirdParty/mbedTLS/library/x509_crt.c:376:35
	str	r2, [r4, #4]
.Ltmp717:
	@DEBUG_VALUE: x509_crt_verify_chain_reset:i <- [DW_OP_plus_uconst 1, DW_OP_stack_value] undef
	.loc	3 373 19                        @ ../../../ThirdParty/mbedTLS/library/x509_crt.c:373:19
	adds	r3, #8
.Ltmp718:
	.loc	3 373 5 is_stmt 0               @ ../../../ThirdParty/mbedTLS/library/x509_crt.c:373:5
	cmp	r3, #80
	bne	.LBB16_1
.Ltmp719:
@ %bb.2:
	@DEBUG_VALUE: x509_crt_verify_chain_reset:ver_chain <- $r0
	.loc	3 0 5                           @ ../../../ThirdParty/mbedTLS/library/x509_crt.c:0:5
	movs	r1, #0
	.loc	3 379 20 is_stmt 1              @ ../../../ThirdParty/mbedTLS/library/x509_crt.c:379:20
	str	r1, [r0, #80]
	.loc	3 380 1                         @ ../../../ThirdParty/mbedTLS/library/x509_crt.c:380:1
	pop	{r4, pc}
.Ltmp720:
.Lfunc_end16:
	.size	x509_crt_verify_chain_reset, .Lfunc_end16-x509_crt_verify_chain_reset
	.cfi_endproc
	.cantunwind
	.fnend
                                        @ -- End function
	.section	.text.x509_crt_verify_name,"ax",%progbits
	.p2align	2                               @ -- Begin function x509_crt_verify_name
	.type	x509_crt_verify_name,%function
	.code	16                              @ @x509_crt_verify_name
	.thumb_func
x509_crt_verify_name:
.Lfunc_begin17:
	.loc	3 2483 0                        @ ../../../ThirdParty/mbedTLS/library/x509_crt.c:2483:0
	.fnstart
	.cfi_startproc
@ %bb.0:
	@DEBUG_VALUE: x509_crt_verify_name:crt <- $r0
	@DEBUG_VALUE: x509_crt_verify_name:cn <- $r1
	@DEBUG_VALUE: x509_crt_verify_name:flags <- $r2
	.save	{r4, r5, r6, r7, lr}
	push	{r4, r5, r6, r7, lr}
	.cfi_def_cfa_offset 20
	.cfi_offset lr, -4
	.cfi_offset r7, -8
	.cfi_offset r6, -12
	.cfi_offset r5, -16
	.cfi_offset r4, -20
	.pad	#4
	sub	sp, #4
	.cfi_def_cfa_offset 24
	str	r2, [sp]                        @ 4-byte Spill
	mov	r5, r1
	mov	r6, r0
.Ltmp721:
	@DEBUG_VALUE: x509_crt_verify_name:flags <- [$sp+0]
	@DEBUG_VALUE: x509_crt_verify_name:cn <- $r5
	@DEBUG_VALUE: x509_crt_verify_name:crt <- $r6
	.loc	3 2486 21 prologue_end          @ ../../../ThirdParty/mbedTLS/library/x509_crt.c:2486:21
	mov	r0, r1
	bl	strlen
	mov	r7, r0
.Ltmp722:
	@DEBUG_VALUE: x509_crt_verify_name:cn_len <- $r7
	.loc	3 0 21 is_stmt 0                @ ../../../ThirdParty/mbedTLS/library/x509_crt.c:0:21
	movw	r0, #264
	.loc	3 2488 9 is_stmt 1              @ ../../../ThirdParty/mbedTLS/library/x509_crt.c:2488:9
	ldrb	r0, [r6, r0]
	lsls	r0, r0, #26
	bmi	.LBB17_7
.Ltmp723:
@ %bb.1:
	@DEBUG_VALUE: x509_crt_verify_name:cn_len <- $r7
	@DEBUG_VALUE: x509_crt_verify_name:crt <- $r6
	@DEBUG_VALUE: x509_crt_verify_name:cn <- $r5
	@DEBUG_VALUE: x509_crt_verify_name:flags <- [$sp+0]
	.loc	3 2501 27                       @ ../../../ThirdParty/mbedTLS/library/x509_crt.c:2501:27
	adds	r6, #112
.Ltmp724:
	@DEBUG_VALUE: x509_crt_verify_name:name <- $r6
	.loc	3 0 27 is_stmt 0                @ ../../../ThirdParty/mbedTLS/library/x509_crt.c:0:27
	movs	r4, #3
	b	.LBB17_3
.Ltmp725:
.LBB17_2:                               @   in Loop: Header=BB17_3 Depth=1
	@DEBUG_VALUE: x509_crt_verify_name:cn_len <- $r7
	@DEBUG_VALUE: x509_crt_verify_name:name <- $r6
	@DEBUG_VALUE: x509_crt_verify_name:cn <- $r5
	@DEBUG_VALUE: x509_crt_verify_name:flags <- [$sp+0]
	.loc	3 2501 63                       @ ../../../ThirdParty/mbedTLS/library/x509_crt.c:2501:63
	ldr	r6, [r6, #24]
.Ltmp726:
	@DEBUG_VALUE: x509_crt_verify_name:name <- $r6
	.loc	3 2501 9                        @ ../../../ThirdParty/mbedTLS/library/x509_crt.c:2501:9
	cbz	r6, .LBB17_10
.Ltmp727:
.LBB17_3:                               @ =>This Inner Loop Header: Depth=1
	@DEBUG_VALUE: x509_crt_verify_name:cn_len <- $r7
	@DEBUG_VALUE: x509_crt_verify_name:name <- $r6
	@DEBUG_VALUE: x509_crt_verify_name:cn <- $r5
	@DEBUG_VALUE: x509_crt_verify_name:flags <- [$sp+0]
	@DEBUG_VALUE: x509_crt_verify_name:name <- $r6
	.loc	3 2503 17 is_stmt 1             @ ../../../ThirdParty/mbedTLS/library/x509_crt.c:2503:17
	ldr	r0, [r6, #4]
	cmp	r0, #3
	bne	.LBB17_2
.Ltmp728:
@ %bb.4:                                @   in Loop: Header=BB17_3 Depth=1
	@DEBUG_VALUE: x509_crt_verify_name:cn_len <- $r7
	@DEBUG_VALUE: x509_crt_verify_name:name <- $r6
	@DEBUG_VALUE: x509_crt_verify_name:cn <- $r5
	@DEBUG_VALUE: x509_crt_verify_name:flags <- [$sp+0]
	ldr	r1, [r6, #8]
	adr	r0, .LCPI17_0
	mov	r2, r4
	bl	memcmp
	.loc	3 2503 71 is_stmt 0             @ ../../../ThirdParty/mbedTLS/library/x509_crt.c:2503:71
	cmp	r0, #0
	bne	.LBB17_2
.Ltmp729:
@ %bb.5:                                @   in Loop: Header=BB17_3 Depth=1
	@DEBUG_VALUE: x509_crt_verify_name:cn_len <- $r7
	@DEBUG_VALUE: x509_crt_verify_name:name <- $r6
	@DEBUG_VALUE: x509_crt_verify_name:cn <- $r5
	@DEBUG_VALUE: x509_crt_verify_name:flags <- [$sp+0]
	.loc	3 2504 47 is_stmt 1             @ ../../../ThirdParty/mbedTLS/library/x509_crt.c:2504:47
	mov	r0, r6
	adds	r0, #12
	.loc	3 2504 21 is_stmt 0             @ ../../../ThirdParty/mbedTLS/library/x509_crt.c:2504:21
	mov	r1, r5
	mov	r2, r7
	bl	x509_crt_check_cn
.Ltmp730:
	.loc	3 2503 17 is_stmt 1             @ ../../../ThirdParty/mbedTLS/library/x509_crt.c:2503:17
	cmp	r0, #0
	bne	.LBB17_2
.Ltmp731:
.LBB17_6:
	@DEBUG_VALUE: x509_crt_verify_name:cn_len <- $r7
	@DEBUG_VALUE: x509_crt_verify_name:cn <- $r5
	@DEBUG_VALUE: x509_crt_verify_name:flags <- [$sp+0]
	.loc	3 2513 1                        @ ../../../ThirdParty/mbedTLS/library/x509_crt.c:2513:1
	add	sp, #4
.Ltmp732:
	pop	{r4, r5, r6, r7, pc}
.Ltmp733:
.LBB17_7:
	@DEBUG_VALUE: x509_crt_verify_name:cn_len <- $r7
	@DEBUG_VALUE: x509_crt_verify_name:crt <- $r6
	@DEBUG_VALUE: x509_crt_verify_name:cn <- $r5
	@DEBUG_VALUE: x509_crt_verify_name:flags <- [$sp+0]
	.loc	3 2490 26                       @ ../../../ThirdParty/mbedTLS/library/x509_crt.c:2490:26
	adds	r6, #248
.Ltmp734:
	@DEBUG_VALUE: x509_crt_verify_name:cur <- $r6
.LBB17_8:                               @ =>This Inner Loop Header: Depth=1
	@DEBUG_VALUE: x509_crt_verify_name:cn_len <- $r7
	@DEBUG_VALUE: x509_crt_verify_name:cur <- $r6
	@DEBUG_VALUE: x509_crt_verify_name:cn <- $r5
	@DEBUG_VALUE: x509_crt_verify_name:flags <- [$sp+0]
	@DEBUG_VALUE: x509_crt_verify_name:cur <- $r6
	.loc	3 2492 17                       @ ../../../ThirdParty/mbedTLS/library/x509_crt.c:2492:17
	mov	r0, r6
	mov	r1, r5
	mov	r2, r7
	bl	x509_crt_check_cn
.Ltmp735:
	.loc	3 2492 17 is_stmt 0             @ ../../../ThirdParty/mbedTLS/library/x509_crt.c:2492:17
	cmp	r0, #0
	beq	.LBB17_6
.Ltmp736:
@ %bb.9:                                @   in Loop: Header=BB17_8 Depth=1
	@DEBUG_VALUE: x509_crt_verify_name:cn_len <- $r7
	@DEBUG_VALUE: x509_crt_verify_name:cur <- $r6
	@DEBUG_VALUE: x509_crt_verify_name:cn <- $r5
	@DEBUG_VALUE: x509_crt_verify_name:flags <- [$sp+0]
	.loc	3 2490 69 is_stmt 1             @ ../../../ThirdParty/mbedTLS/library/x509_crt.c:2490:69
	ldr	r6, [r6, #12]
.Ltmp737:
	@DEBUG_VALUE: x509_crt_verify_name:cur <- $r6
	.loc	3 2490 9 is_stmt 0              @ ../../../ThirdParty/mbedTLS/library/x509_crt.c:2490:9
	cmp	r6, #0
	bne	.LBB17_8
.Ltmp738:
.LBB17_10:
	@DEBUG_VALUE: x509_crt_verify_name:cn_len <- $r7
	@DEBUG_VALUE: x509_crt_verify_name:cn <- $r5
	@DEBUG_VALUE: x509_crt_verify_name:flags <- [$sp+0]
	.loc	3 0 9                           @ ../../../ThirdParty/mbedTLS/library/x509_crt.c:0:9
	ldr	r2, [sp]                        @ 4-byte Reload
	ldr	r0, [r2]
	movs	r1, #4
	orrs	r1, r0
	str	r1, [r2]
.Ltmp739:
	.loc	3 2513 1 is_stmt 1              @ ../../../ThirdParty/mbedTLS/library/x509_crt.c:2513:1
	add	sp, #4
.Ltmp740:
	pop	{r4, r5, r6, r7, pc}
.Ltmp741:
	.p2align	2
@ %bb.11:
	.loc	3 0 1 is_stmt 0                 @ ../../../ThirdParty/mbedTLS/library/x509_crt.c:0:1
.LCPI17_0:
.L.str.64:
	.asciz	"U\004\003"
.Lfunc_end17:
	.size	x509_crt_verify_name, .Lfunc_end17-x509_crt_verify_name
	.cfi_endproc
	.cantunwind
	.fnend
                                        @ -- End function
	.section	.text.x509_profile_check_pk_alg,"ax",%progbits
	.p2align	1                               @ -- Begin function x509_profile_check_pk_alg
	.type	x509_profile_check_pk_alg,%function
	.code	16                              @ @x509_profile_check_pk_alg
	.thumb_func
x509_profile_check_pk_alg:
.Lfunc_begin18:
	.loc	3 186 0 is_stmt 1               @ ../../../ThirdParty/mbedTLS/library/x509_crt.c:186:0
	.fnstart
	.cfi_startproc
@ %bb.0:
	@DEBUG_VALUE: x509_profile_check_pk_alg:profile <- $r0
	@DEBUG_VALUE: x509_profile_check_pk_alg:profile <- $r0
	@DEBUG_VALUE: x509_profile_check_pk_alg:pk_alg <- $r1
	@DEBUG_VALUE: x509_profile_check_pk_alg:pk_alg <- $r1
	.loc	3 187 9 prologue_end            @ ../../../ThirdParty/mbedTLS/library/x509_crt.c:187:9
	cbz	r1, .LBB18_4
.Ltmp742:
@ %bb.1:
	@DEBUG_VALUE: x509_profile_check_pk_alg:pk_alg <- $r1
	@DEBUG_VALUE: x509_profile_check_pk_alg:profile <- $r0
	.loc	3 190 34                        @ ../../../ThirdParty/mbedTLS/library/x509_crt.c:190:34
	subs	r1, r1, #1
.Ltmp743:
	@DEBUG_VALUE: x509_profile_check_pk_alg:pk_alg <- [DW_OP_LLVM_entry_value 1] $r1
	.loc	3 190 20 is_stmt 0              @ ../../../ThirdParty/mbedTLS/library/x509_crt.c:190:20
	ldr	r2, [r0, #4]
.Ltmp744:
	.loc	3 190 9                         @ ../../../ThirdParty/mbedTLS/library/x509_crt.c:190:9
	lsrs	r2, r1
	movs	r0, #0
.Ltmp745:
	@DEBUG_VALUE: x509_profile_check_pk_alg:profile <- [DW_OP_LLVM_entry_value 1] $r0
	lsls	r1, r2, #31
	bne	.LBB18_3
.Ltmp746:
@ %bb.2:
	@DEBUG_VALUE: x509_profile_check_pk_alg:profile <- [DW_OP_LLVM_entry_value 1] $r0
	@DEBUG_VALUE: x509_profile_check_pk_alg:pk_alg <- [DW_OP_LLVM_entry_value 1] $r1
	.loc	3 0 9                           @ ../../../ThirdParty/mbedTLS/library/x509_crt.c:0:9
	mvns	r0, r0
.Ltmp747:
.LBB18_3:
	@DEBUG_VALUE: x509_profile_check_pk_alg:profile <- [DW_OP_LLVM_entry_value 1] $r0
	@DEBUG_VALUE: x509_profile_check_pk_alg:pk_alg <- [DW_OP_LLVM_entry_value 1] $r1
	.loc	3 190 9                         @ ../../../ThirdParty/mbedTLS/library/x509_crt.c:190:9
	bx	lr
.Ltmp748:
.LBB18_4:
	@DEBUG_VALUE: x509_profile_check_pk_alg:pk_alg <- $r1
	@DEBUG_VALUE: x509_profile_check_pk_alg:profile <- $r0
	.loc	3 0 9                           @ ../../../ThirdParty/mbedTLS/library/x509_crt.c:0:9
	movs	r0, #0
.Ltmp749:
	@DEBUG_VALUE: x509_profile_check_pk_alg:profile <- [DW_OP_LLVM_entry_value 1] $r0
	mvns	r0, r0
	.loc	3 194 1 is_stmt 1               @ ../../../ThirdParty/mbedTLS/library/x509_crt.c:194:1
	bx	lr
.Ltmp750:
.Lfunc_end18:
	.size	x509_profile_check_pk_alg, .Lfunc_end18-x509_profile_check_pk_alg
	.cfi_endproc
	.cantunwind
	.fnend
