	.text
	.syntax unified
	.eabi_attribute	67, "2.09"	@ Tag_conformance
	.cpu	cortex-m23
	.eabi_attribute	6, 16	@ Tag_CPU_arch
	.eabi_attribute	7, 77	@ Tag_CPU_arch_profile
	.eabi_attribute	8, 0	@ Tag_ARM_ISA_use
	.eabi_attribute	9, 3	@ Tag_THUMB_ISA_use
	.eabi_attribute	34, 0	@ Tag_CPU_unaligned_access
	.eabi_attribute	17, 1	@ Tag_ABI_PCS_GOT_use
	.eabi_attribute	20, 2	@ Tag_ABI_FP_denormal
	.eabi_attribute	21, 0	@ Tag_ABI_FP_exceptions
	.eabi_attribute	23, 1	@ Tag_ABI_FP_number_model
	.eabi_attribute	24, 1	@ Tag_ABI_align_needed
	.eabi_attribute	25, 1	@ Tag_ABI_align_preserved
	.eabi_attribute	38, 1	@ Tag_ABI_FP_16bit_format
	.eabi_attribute	18, 2	@ Tag_ABI_PCS_wchar_t
	.eabi_attribute	26, 1	@ Tag_ABI_enum_size
	.eabi_attribute	14, 0	@ Tag_ABI_PCS_R9_use
	.file	"x509_create.c"
	.file	1 "C:\\Users\\shw26\\OneDrive\\Desktop\\2021\\2021-1\\\354\272\241\354\212\244\355\206\244\353\224\224\354\236\220\354\235\2702\\Nuvoton\\M2351_BSP_v3.00.004\\M2351Series_BSP_CMSIS_V3.00.004\\MyProject\\PulseMonitoring\\Secure" "../../../ThirdParty/mbedTLS/library/x509_create.c"
	.file	2 "C:\\" "Keil_v5\\ARM\\ARMCLANG\\Bin\\..\\include\\stddef.h"
	.section	.text.mbedtls_x509_string_to_names,"ax",%progbits
	.hidden	mbedtls_x509_string_to_names    @ -- Begin function mbedtls_x509_string_to_names
	.globl	mbedtls_x509_string_to_names
	.p2align	2
	.type	mbedtls_x509_string_to_names,%function
	.code	16                              @ @mbedtls_x509_string_to_names
	.thumb_func
mbedtls_x509_string_to_names:
.Lfunc_begin0:
	.loc	1 157 0                         @ ../../../ThirdParty/mbedTLS/library/x509_create.c:157:0
	.fnstart
	.cfi_sections .debug_frame
	.cfi_startproc
@ %bb.0:
	@DEBUG_VALUE: mbedtls_x509_string_to_names:head <- $r0
	@DEBUG_VALUE: mbedtls_x509_string_to_names:name <- $r1
	.save	{r4, r5, r6, r7, lr}
	push	{r4, r5, r6, r7, lr}
	.cfi_def_cfa_offset 20
	.cfi_offset lr, -4
	.cfi_offset r7, -8
	.cfi_offset r6, -12
	.cfi_offset r5, -16
	.cfi_offset r4, -20
	.pad	#284
	sub	sp, #284
	.cfi_def_cfa_offset 304
	mov	r4, r1
	mov	r6, r0
.Ltmp0:
	@DEBUG_VALUE: mbedtls_x509_string_to_names:c <- $r4
	@DEBUG_VALUE: mbedtls_x509_string_to_names:s <- $r4
	@DEBUG_VALUE: mbedtls_x509_string_to_names:ret <- 0
	@DEBUG_VALUE: mbedtls_x509_string_to_names:name <- $r4
	@DEBUG_VALUE: mbedtls_x509_string_to_names:head <- $r6
	.loc	1 160 27 prologue_end           @ ../../../ThirdParty/mbedTLS/library/x509_create.c:160:27
	mov	r0, r1
	bl	strlen
	mov	r5, r0
.Ltmp1:
	@DEBUG_VALUE: mbedtls_x509_string_to_names:d <- undef
	@DEBUG_VALUE: mbedtls_x509_string_to_names:in_tag <- 1
	@DEBUG_VALUE: mbedtls_x509_string_to_names:attr_descr <- 0
	@DEBUG_VALUE: mbedtls_x509_string_to_names:oid <- 0
	.loc	1 0 27 is_stmt 0                @ ../../../ThirdParty/mbedTLS/library/x509_create.c:0:27
	str	r6, [sp, #12]                   @ 4-byte Spill
.Ltmp2:
	@DEBUG_VALUE: mbedtls_x509_string_to_names:head <- [DW_OP_plus_uconst 12] [$sp+0]
	.loc	1 168 5 is_stmt 1               @ ../../../ThirdParty/mbedTLS/library/x509_create.c:168:5
	mov	r0, r6
	bl	mbedtls_asn1_free_named_data_list
.Ltmp3:
	@DEBUG_VALUE: mbedtls_x509_string_to_names:end <- undef
	@DEBUG_VALUE: mbedtls_x509_string_to_names:d <- undef
	.loc	1 170 5                         @ ../../../ThirdParty/mbedTLS/library/x509_create.c:170:5
	cmp	r5, #0
	bmi	.LBB0_31
.Ltmp4:
@ %bb.1:
	@DEBUG_VALUE: mbedtls_x509_string_to_names:name <- $r4
	@DEBUG_VALUE: mbedtls_x509_string_to_names:s <- $r4
	@DEBUG_VALUE: mbedtls_x509_string_to_names:c <- $r4
	@DEBUG_VALUE: mbedtls_x509_string_to_names:head <- [DW_OP_plus_uconst 12] [$sp+0]
	@DEBUG_VALUE: mbedtls_x509_string_to_names:oid <- 0
	@DEBUG_VALUE: mbedtls_x509_string_to_names:attr_descr <- 0
	@DEBUG_VALUE: mbedtls_x509_string_to_names:in_tag <- 1
	@DEBUG_VALUE: mbedtls_x509_string_to_names:ret <- 0
	.loc	1 0 5 is_stmt 0                 @ ../../../ThirdParty/mbedTLS/library/x509_create.c:0:5
	adds	r7, r4, r5
.Ltmp5:
	@DEBUG_VALUE: mbedtls_x509_string_to_names:end <- $r7
	movs	r0, #0
	movs	r1, #1
	add	r6, sp, #28
	str	r1, [sp, #24]                   @ 4-byte Spill
	str	r0, [sp, #16]                   @ 4-byte Spill
	str	r0, [sp, #20]                   @ 4-byte Spill
	mov	r5, r4
	b	.LBB0_3
.Ltmp6:
.LBB0_2:                                @   in Loop: Header=BB0_3 Depth=1
	@DEBUG_VALUE: mbedtls_x509_string_to_names:end <- $r7
	@DEBUG_VALUE: mbedtls_x509_string_to_names:d <- $r6
	@DEBUG_VALUE: mbedtls_x509_string_to_names:s <- $r5
	@DEBUG_VALUE: mbedtls_x509_string_to_names:in_tag <- $r1
	@DEBUG_VALUE: mbedtls_x509_string_to_names:attr_descr <- [DW_OP_plus_uconst 16] [$sp+0]
	@DEBUG_VALUE: mbedtls_x509_string_to_names:oid <- [DW_OP_plus_uconst 20] [$sp+0]
	@DEBUG_VALUE: mbedtls_x509_string_to_names:head <- [DW_OP_plus_uconst 12] [$sp+0]
	@DEBUG_VALUE: mbedtls_x509_string_to_names:ret <- 0
	@DEBUG_VALUE: mbedtls_x509_string_to_names:s <- $r5
	@DEBUG_VALUE: mbedtls_x509_string_to_names:c <- $r4
	@DEBUG_VALUE: mbedtls_x509_string_to_names:oid <- [DW_OP_plus_uconst 20] [$sp+0]
	@DEBUG_VALUE: mbedtls_x509_string_to_names:attr_descr <- [DW_OP_plus_uconst 16] [$sp+0]
	@DEBUG_VALUE: mbedtls_x509_string_to_names:in_tag <- $r1
	@DEBUG_VALUE: mbedtls_x509_string_to_names:d <- $r6
	.loc	1 170 5                         @ ../../../ThirdParty/mbedTLS/library/x509_create.c:170:5
	cmp	r4, r7
	bhi	.LBB0_31
.Ltmp7:
.LBB0_3:                                @ =>This Loop Header: Depth=1
                                        @     Child Loop BB0_25 Depth 2
	@DEBUG_VALUE: mbedtls_x509_string_to_names:end <- $r7
	@DEBUG_VALUE: mbedtls_x509_string_to_names:c <- $r4
	@DEBUG_VALUE: mbedtls_x509_string_to_names:head <- [DW_OP_plus_uconst 12] [$sp+0]
	@DEBUG_VALUE: mbedtls_x509_string_to_names:ret <- 0
	@DEBUG_VALUE: mbedtls_x509_string_to_names:s <- $r5
	@DEBUG_VALUE: mbedtls_x509_string_to_names:c <- $r4
	@DEBUG_VALUE: mbedtls_x509_string_to_names:oid <- [DW_OP_plus_uconst 20] [$sp+0]
	@DEBUG_VALUE: mbedtls_x509_string_to_names:attr_descr <- [DW_OP_plus_uconst 16] [$sp+0]
	@DEBUG_VALUE: mbedtls_x509_string_to_names:in_tag <- $r1
	@DEBUG_VALUE: mbedtls_x509_string_to_names:d <- $r6
	.loc	1 172 20 is_stmt 1              @ ../../../ThirdParty/mbedTLS/library/x509_create.c:172:20
	cbz	r1, .LBB0_7
.Ltmp8:
@ %bb.4:                                @   in Loop: Header=BB0_3 Depth=1
	@DEBUG_VALUE: mbedtls_x509_string_to_names:end <- $r7
	@DEBUG_VALUE: mbedtls_x509_string_to_names:d <- $r6
	@DEBUG_VALUE: mbedtls_x509_string_to_names:s <- $r5
	@DEBUG_VALUE: mbedtls_x509_string_to_names:c <- $r4
	@DEBUG_VALUE: mbedtls_x509_string_to_names:in_tag <- $r1
	@DEBUG_VALUE: mbedtls_x509_string_to_names:attr_descr <- [DW_OP_plus_uconst 16] [$sp+0]
	@DEBUG_VALUE: mbedtls_x509_string_to_names:oid <- [DW_OP_plus_uconst 20] [$sp+0]
	@DEBUG_VALUE: mbedtls_x509_string_to_names:head <- [DW_OP_plus_uconst 12] [$sp+0]
	@DEBUG_VALUE: mbedtls_x509_string_to_names:ret <- 0
	.loc	1 172 23 is_stmt 0              @ ../../../ThirdParty/mbedTLS/library/x509_create.c:172:23
	ldrb	r0, [r4]
.Ltmp9:
	.loc	1 172 13                        @ ../../../ThirdParty/mbedTLS/library/x509_create.c:172:13
	cmp	r0, #61
	bne	.LBB0_8
.Ltmp10:
@ %bb.5:                                @   in Loop: Header=BB0_3 Depth=1
	@DEBUG_VALUE: mbedtls_x509_string_to_names:end <- $r7
	@DEBUG_VALUE: mbedtls_x509_string_to_names:d <- $r6
	@DEBUG_VALUE: mbedtls_x509_string_to_names:s <- $r5
	@DEBUG_VALUE: mbedtls_x509_string_to_names:c <- $r4
	@DEBUG_VALUE: mbedtls_x509_string_to_names:in_tag <- $r1
	@DEBUG_VALUE: mbedtls_x509_string_to_names:attr_descr <- [DW_OP_plus_uconst 16] [$sp+0]
	@DEBUG_VALUE: mbedtls_x509_string_to_names:oid <- [DW_OP_plus_uconst 20] [$sp+0]
	@DEBUG_VALUE: mbedtls_x509_string_to_names:head <- [DW_OP_plus_uconst 12] [$sp+0]
	@DEBUG_VALUE: mbedtls_x509_string_to_names:ret <- 0
	.loc	1 174 64 is_stmt 1              @ ../../../ThirdParty/mbedTLS/library/x509_create.c:174:64
	subs	r1, r4, r5
.Ltmp11:
	.loc	1 174 32 is_stmt 0              @ ../../../ThirdParty/mbedTLS/library/x509_create.c:174:32
	mov	r0, r5
	bl	x509_attr_descr_from_name
.Ltmp12:
	@DEBUG_VALUE: mbedtls_x509_string_to_names:attr_descr <- $r0
	.loc	1 174 17                        @ ../../../ThirdParty/mbedTLS/library/x509_create.c:174:17
	cmp	r0, #0
	beq	.LBB0_33
.Ltmp13:
@ %bb.6:                                @   in Loop: Header=BB0_3 Depth=1
	@DEBUG_VALUE: mbedtls_x509_string_to_names:end <- $r7
	@DEBUG_VALUE: mbedtls_x509_string_to_names:d <- $r6
	@DEBUG_VALUE: mbedtls_x509_string_to_names:s <- $r5
	@DEBUG_VALUE: mbedtls_x509_string_to_names:c <- $r4
	@DEBUG_VALUE: mbedtls_x509_string_to_names:attr_descr <- $r0
	@DEBUG_VALUE: mbedtls_x509_string_to_names:oid <- [DW_OP_plus_uconst 20] [$sp+0]
	@DEBUG_VALUE: mbedtls_x509_string_to_names:head <- [DW_OP_plus_uconst 12] [$sp+0]
	@DEBUG_VALUE: mbedtls_x509_string_to_names:ret <- 0
	.loc	1 181 19 is_stmt 1              @ ../../../ThirdParty/mbedTLS/library/x509_create.c:181:19
	adds	r5, r4, #1
.Ltmp14:
	@DEBUG_VALUE: mbedtls_x509_string_to_names:s <- $r5
	.loc	1 0 19 is_stmt 0                @ ../../../ThirdParty/mbedTLS/library/x509_create.c:0:19
	str	r0, [sp, #16]                   @ 4-byte Spill
.Ltmp15:
	@DEBUG_VALUE: mbedtls_x509_string_to_names:attr_descr <- [DW_OP_plus_uconst 16] [$sp+0]
	@DEBUG_VALUE: mbedtls_x509_string_to_names:attr_descr <- [DW_OP_plus_uconst 16] [$sp+0]
	.loc	1 180 31 is_stmt 1              @ ../../../ThirdParty/mbedTLS/library/x509_create.c:180:31
	ldr	r0, [r0, #8]
.Ltmp16:
	@DEBUG_VALUE: mbedtls_x509_string_to_names:oid <- $r0
	.loc	1 0 31 is_stmt 0                @ ../../../ThirdParty/mbedTLS/library/x509_create.c:0:31
	str	r0, [sp, #20]                   @ 4-byte Spill
.Ltmp17:
	@DEBUG_VALUE: mbedtls_x509_string_to_names:oid <- [DW_OP_plus_uconst 20] [$sp+0]
	@DEBUG_VALUE: mbedtls_x509_string_to_names:oid <- [DW_OP_plus_uconst 20] [$sp+0]
	@DEBUG_VALUE: mbedtls_x509_string_to_names:oid <- [DW_OP_plus_uconst 20] [$sp+0]
	add	r6, sp, #28
.Ltmp18:
	@DEBUG_VALUE: mbedtls_x509_string_to_names:d <- [DW_OP_plus_uconst 28, DW_OP_stack_value] $sp
	@DEBUG_VALUE: mbedtls_x509_string_to_names:in_tag <- 0
.LBB0_7:                                @   in Loop: Header=BB0_3 Depth=1
	@DEBUG_VALUE: mbedtls_x509_string_to_names:end <- $r7
	@DEBUG_VALUE: mbedtls_x509_string_to_names:s <- $r5
	@DEBUG_VALUE: mbedtls_x509_string_to_names:c <- $r4
	@DEBUG_VALUE: mbedtls_x509_string_to_names:oid <- [DW_OP_plus_uconst 20] [$sp+0]
	@DEBUG_VALUE: mbedtls_x509_string_to_names:head <- [DW_OP_plus_uconst 12] [$sp+0]
	@DEBUG_VALUE: mbedtls_x509_string_to_names:ret <- 0
	ldr	r0, [sp, #24]                   @ 4-byte Reload
	@DEBUG_VALUE: mbedtls_x509_string_to_names:s <- $r5
	@DEBUG_VALUE: mbedtls_x509_string_to_names:oid <- [DW_OP_plus_uconst 20] [$sp+0]
.Ltmp19:
	@DEBUG_VALUE: mbedtls_x509_string_to_names:attr_descr <- [DW_OP_plus_uconst 16] [$sp+0]
	@DEBUG_VALUE: mbedtls_x509_string_to_names:in_tag <- undef
	@DEBUG_VALUE: mbedtls_x509_string_to_names:d <- $r6
	.loc	1 186 21 is_stmt 1              @ ../../../ThirdParty/mbedTLS/library/x509_create.c:186:21
	cbnz	r0, .LBB0_9
	b	.LBB0_18
.Ltmp20:
.LBB0_8:                                @   in Loop: Header=BB0_3 Depth=1
	@DEBUG_VALUE: mbedtls_x509_string_to_names:end <- $r7
	@DEBUG_VALUE: mbedtls_x509_string_to_names:d <- $r6
	@DEBUG_VALUE: mbedtls_x509_string_to_names:s <- $r5
	@DEBUG_VALUE: mbedtls_x509_string_to_names:c <- $r4
	@DEBUG_VALUE: mbedtls_x509_string_to_names:in_tag <- $r1
	@DEBUG_VALUE: mbedtls_x509_string_to_names:attr_descr <- [DW_OP_plus_uconst 16] [$sp+0]
	@DEBUG_VALUE: mbedtls_x509_string_to_names:oid <- [DW_OP_plus_uconst 20] [$sp+0]
	@DEBUG_VALUE: mbedtls_x509_string_to_names:head <- [DW_OP_plus_uconst 12] [$sp+0]
	@DEBUG_VALUE: mbedtls_x509_string_to_names:ret <- 0
	.loc	1 0 21 is_stmt 0                @ ../../../ThirdParty/mbedTLS/library/x509_create.c:0:21
	movs	r0, #0
	@DEBUG_VALUE: mbedtls_x509_string_to_names:s <- $r5
	@DEBUG_VALUE: mbedtls_x509_string_to_names:oid <- [DW_OP_plus_uconst 20] [$sp+0]
	@DEBUG_VALUE: mbedtls_x509_string_to_names:attr_descr <- [DW_OP_plus_uconst 16] [$sp+0]
.Ltmp21:
	@DEBUG_VALUE: mbedtls_x509_string_to_names:in_tag <- undef
	@DEBUG_VALUE: mbedtls_x509_string_to_names:d <- $r6
	.loc	1 186 21                        @ ../../../ThirdParty/mbedTLS/library/x509_create.c:186:21
	cbz	r0, .LBB0_18
.Ltmp22:
.LBB0_9:                                @   in Loop: Header=BB0_3 Depth=1
	@DEBUG_VALUE: mbedtls_x509_string_to_names:end <- $r7
	@DEBUG_VALUE: mbedtls_x509_string_to_names:d <- $r6
	@DEBUG_VALUE: mbedtls_x509_string_to_names:s <- $r5
	@DEBUG_VALUE: mbedtls_x509_string_to_names:c <- $r4
	@DEBUG_VALUE: mbedtls_x509_string_to_names:attr_descr <- [DW_OP_plus_uconst 16] [$sp+0]
	@DEBUG_VALUE: mbedtls_x509_string_to_names:oid <- [DW_OP_plus_uconst 20] [$sp+0]
	@DEBUG_VALUE: mbedtls_x509_string_to_names:head <- [DW_OP_plus_uconst 12] [$sp+0]
	@DEBUG_VALUE: mbedtls_x509_string_to_names:ret <- 0
	.loc	1 186 24                        @ ../../../ThirdParty/mbedTLS/library/x509_create.c:186:24
	ldrb	r1, [r4]
	.loc	1 186 35                        @ ../../../ThirdParty/mbedTLS/library/x509_create.c:186:35
	cmp	r4, r7
	beq	.LBB0_14
.Ltmp23:
@ %bb.10:                               @   in Loop: Header=BB0_3 Depth=1
	@DEBUG_VALUE: mbedtls_x509_string_to_names:end <- $r7
	@DEBUG_VALUE: mbedtls_x509_string_to_names:d <- $r6
	@DEBUG_VALUE: mbedtls_x509_string_to_names:s <- $r5
	@DEBUG_VALUE: mbedtls_x509_string_to_names:c <- $r4
	@DEBUG_VALUE: mbedtls_x509_string_to_names:attr_descr <- [DW_OP_plus_uconst 16] [$sp+0]
	@DEBUG_VALUE: mbedtls_x509_string_to_names:oid <- [DW_OP_plus_uconst 20] [$sp+0]
	@DEBUG_VALUE: mbedtls_x509_string_to_names:head <- [DW_OP_plus_uconst 12] [$sp+0]
	@DEBUG_VALUE: mbedtls_x509_string_to_names:ret <- 0
	cmp	r1, #92
	bne	.LBB0_14
.Ltmp24:
@ %bb.11:                               @   in Loop: Header=BB0_3 Depth=1
	@DEBUG_VALUE: mbedtls_x509_string_to_names:end <- $r7
	@DEBUG_VALUE: mbedtls_x509_string_to_names:d <- $r6
	@DEBUG_VALUE: mbedtls_x509_string_to_names:s <- $r5
	@DEBUG_VALUE: mbedtls_x509_string_to_names:c <- $r4
	@DEBUG_VALUE: mbedtls_x509_string_to_names:attr_descr <- [DW_OP_plus_uconst 16] [$sp+0]
	@DEBUG_VALUE: mbedtls_x509_string_to_names:oid <- [DW_OP_plus_uconst 20] [$sp+0]
	@DEBUG_VALUE: mbedtls_x509_string_to_names:head <- [DW_OP_plus_uconst 12] [$sp+0]
	@DEBUG_VALUE: mbedtls_x509_string_to_names:ret <- 0
	.loc	1 188 14 is_stmt 1              @ ../../../ThirdParty/mbedTLS/library/x509_create.c:188:14
	adds	r2, r4, #1
.Ltmp25:
	@DEBUG_VALUE: mbedtls_x509_string_to_names:c <- $r2
	.loc	1 191 26                        @ ../../../ThirdParty/mbedTLS/library/x509_create.c:191:26
	cmp	r2, r7
	beq	.LBB0_32
.Ltmp26:
@ %bb.12:                               @   in Loop: Header=BB0_3 Depth=1
	@DEBUG_VALUE: mbedtls_x509_string_to_names:end <- $r7
	@DEBUG_VALUE: mbedtls_x509_string_to_names:d <- $r6
	@DEBUG_VALUE: mbedtls_x509_string_to_names:s <- $r5
	@DEBUG_VALUE: mbedtls_x509_string_to_names:c <- $r2
	@DEBUG_VALUE: mbedtls_x509_string_to_names:attr_descr <- [DW_OP_plus_uconst 16] [$sp+0]
	@DEBUG_VALUE: mbedtls_x509_string_to_names:oid <- [DW_OP_plus_uconst 20] [$sp+0]
	@DEBUG_VALUE: mbedtls_x509_string_to_names:head <- [DW_OP_plus_uconst 12] [$sp+0]
	@DEBUG_VALUE: mbedtls_x509_string_to_names:ret <- 0
	.loc	1 191 29 is_stmt 0              @ ../../../ThirdParty/mbedTLS/library/x509_create.c:191:29
	ldrb	r0, [r2]
.Ltmp27:
	.loc	1 191 17                        @ ../../../ThirdParty/mbedTLS/library/x509_create.c:191:17
	cmp	r0, #44
	bne	.LBB0_32
.Ltmp28:
@ %bb.13:                               @   in Loop: Header=BB0_3 Depth=1
	@DEBUG_VALUE: mbedtls_x509_string_to_names:end <- $r7
	@DEBUG_VALUE: mbedtls_x509_string_to_names:d <- $r6
	@DEBUG_VALUE: mbedtls_x509_string_to_names:s <- $r5
	@DEBUG_VALUE: mbedtls_x509_string_to_names:c <- $r2
	@DEBUG_VALUE: mbedtls_x509_string_to_names:attr_descr <- [DW_OP_plus_uconst 16] [$sp+0]
	@DEBUG_VALUE: mbedtls_x509_string_to_names:oid <- [DW_OP_plus_uconst 20] [$sp+0]
	@DEBUG_VALUE: mbedtls_x509_string_to_names:head <- [DW_OP_plus_uconst 12] [$sp+0]
	@DEBUG_VALUE: mbedtls_x509_string_to_names:ret <- 0
	.loc	1 0 17                          @ ../../../ThirdParty/mbedTLS/library/x509_create.c:0:17
	movs	r1, #0
	b	.LBB0_19
.Ltmp29:
.LBB0_14:                               @   in Loop: Header=BB0_3 Depth=1
	@DEBUG_VALUE: mbedtls_x509_string_to_names:end <- $r7
	@DEBUG_VALUE: mbedtls_x509_string_to_names:d <- $r6
	@DEBUG_VALUE: mbedtls_x509_string_to_names:s <- $r5
	@DEBUG_VALUE: mbedtls_x509_string_to_names:c <- $r4
	@DEBUG_VALUE: mbedtls_x509_string_to_names:attr_descr <- [DW_OP_plus_uconst 16] [$sp+0]
	@DEBUG_VALUE: mbedtls_x509_string_to_names:oid <- [DW_OP_plus_uconst 20] [$sp+0]
	@DEBUG_VALUE: mbedtls_x509_string_to_names:head <- [DW_OP_plus_uconst 12] [$sp+0]
	@DEBUG_VALUE: mbedtls_x509_string_to_names:ret <- 0
	.loc	1 197 26 is_stmt 1              @ ../../../ThirdParty/mbedTLS/library/x509_create.c:197:26
	cbz	r0, .LBB0_18
.Ltmp30:
@ %bb.15:                               @   in Loop: Header=BB0_3 Depth=1
	@DEBUG_VALUE: mbedtls_x509_string_to_names:end <- $r7
	@DEBUG_VALUE: mbedtls_x509_string_to_names:d <- $r6
	@DEBUG_VALUE: mbedtls_x509_string_to_names:s <- $r5
	@DEBUG_VALUE: mbedtls_x509_string_to_names:c <- $r4
	@DEBUG_VALUE: mbedtls_x509_string_to_names:attr_descr <- [DW_OP_plus_uconst 16] [$sp+0]
	@DEBUG_VALUE: mbedtls_x509_string_to_names:oid <- [DW_OP_plus_uconst 20] [$sp+0]
	@DEBUG_VALUE: mbedtls_x509_string_to_names:head <- [DW_OP_plus_uconst 12] [$sp+0]
	@DEBUG_VALUE: mbedtls_x509_string_to_names:ret <- 0
	.loc	1 197 41 is_stmt 0              @ ../../../ThirdParty/mbedTLS/library/x509_create.c:197:41
	cmp	r4, r7
	beq	.LBB0_22
.Ltmp31:
@ %bb.16:                               @   in Loop: Header=BB0_3 Depth=1
	@DEBUG_VALUE: mbedtls_x509_string_to_names:end <- $r7
	@DEBUG_VALUE: mbedtls_x509_string_to_names:d <- $r6
	@DEBUG_VALUE: mbedtls_x509_string_to_names:s <- $r5
	@DEBUG_VALUE: mbedtls_x509_string_to_names:c <- $r4
	@DEBUG_VALUE: mbedtls_x509_string_to_names:attr_descr <- [DW_OP_plus_uconst 16] [$sp+0]
	@DEBUG_VALUE: mbedtls_x509_string_to_names:oid <- [DW_OP_plus_uconst 20] [$sp+0]
	@DEBUG_VALUE: mbedtls_x509_string_to_names:head <- [DW_OP_plus_uconst 12] [$sp+0]
	@DEBUG_VALUE: mbedtls_x509_string_to_names:ret <- 0
	cmp	r1, #44
	beq	.LBB0_22
.Ltmp32:
@ %bb.17:                               @   in Loop: Header=BB0_3 Depth=1
	@DEBUG_VALUE: mbedtls_x509_string_to_names:end <- $r7
	@DEBUG_VALUE: mbedtls_x509_string_to_names:d <- $r6
	@DEBUG_VALUE: mbedtls_x509_string_to_names:s <- $r5
	@DEBUG_VALUE: mbedtls_x509_string_to_names:c <- $r4
	@DEBUG_VALUE: mbedtls_x509_string_to_names:attr_descr <- [DW_OP_plus_uconst 16] [$sp+0]
	@DEBUG_VALUE: mbedtls_x509_string_to_names:oid <- [DW_OP_plus_uconst 20] [$sp+0]
	@DEBUG_VALUE: mbedtls_x509_string_to_names:head <- [DW_OP_plus_uconst 12] [$sp+0]
	@DEBUG_VALUE: mbedtls_x509_string_to_names:ret <- 0
	.loc	1 0 41                          @ ../../../ThirdParty/mbedTLS/library/x509_create.c:0:41
	movs	r1, #0
	mov	r2, r4
	b	.LBB0_19
.Ltmp33:
.LBB0_18:                               @   in Loop: Header=BB0_3 Depth=1
	@DEBUG_VALUE: mbedtls_x509_string_to_names:end <- $r7
	@DEBUG_VALUE: mbedtls_x509_string_to_names:d <- $r6
	@DEBUG_VALUE: mbedtls_x509_string_to_names:s <- $r5
	@DEBUG_VALUE: mbedtls_x509_string_to_names:c <- $r4
	@DEBUG_VALUE: mbedtls_x509_string_to_names:attr_descr <- [DW_OP_plus_uconst 16] [$sp+0]
	@DEBUG_VALUE: mbedtls_x509_string_to_names:oid <- [DW_OP_plus_uconst 20] [$sp+0]
	@DEBUG_VALUE: mbedtls_x509_string_to_names:head <- [DW_OP_plus_uconst 12] [$sp+0]
	@DEBUG_VALUE: mbedtls_x509_string_to_names:ret <- 0
	mov	r2, r4
.Ltmp34:
	.loc	1 182 20 is_stmt 1              @ ../../../ThirdParty/mbedTLS/library/x509_create.c:182:20
	ldr	r1, [sp, #24]                   @ 4-byte Reload
.Ltmp35:
.LBB0_19:                               @   in Loop: Header=BB0_3 Depth=1
	@DEBUG_VALUE: mbedtls_x509_string_to_names:end <- $r7
	@DEBUG_VALUE: mbedtls_x509_string_to_names:d <- $r6
	@DEBUG_VALUE: mbedtls_x509_string_to_names:s <- $r5
	@DEBUG_VALUE: mbedtls_x509_string_to_names:attr_descr <- [DW_OP_plus_uconst 16] [$sp+0]
	@DEBUG_VALUE: mbedtls_x509_string_to_names:oid <- [DW_OP_plus_uconst 20] [$sp+0]
	@DEBUG_VALUE: mbedtls_x509_string_to_names:head <- [DW_OP_plus_uconst 12] [$sp+0]
	@DEBUG_VALUE: mbedtls_x509_string_to_names:ret <- 0
	@DEBUG_VALUE: mbedtls_x509_string_to_names:s <- $r5
	@DEBUG_VALUE: mbedtls_x509_string_to_names:c <- $r2
	@DEBUG_VALUE: mbedtls_x509_string_to_names:in_tag <- $r1
	.loc	1 0 20 is_stmt 0                @ ../../../ThirdParty/mbedTLS/library/x509_create.c:0:20
	adds	r4, r2, #1
.Ltmp36:
	.loc	1 219 21 is_stmt 1              @ ../../../ThirdParty/mbedTLS/library/x509_create.c:219:21
	cmp	r1, #0
	bne	.LBB0_2
.Ltmp37:
@ %bb.20:                               @   in Loop: Header=BB0_3 Depth=1
	@DEBUG_VALUE: mbedtls_x509_string_to_names:end <- $r7
	@DEBUG_VALUE: mbedtls_x509_string_to_names:d <- $r6
	@DEBUG_VALUE: mbedtls_x509_string_to_names:s <- $r5
	@DEBUG_VALUE: mbedtls_x509_string_to_names:c <- $r2
	@DEBUG_VALUE: mbedtls_x509_string_to_names:in_tag <- $r1
	@DEBUG_VALUE: mbedtls_x509_string_to_names:attr_descr <- [DW_OP_plus_uconst 16] [$sp+0]
	@DEBUG_VALUE: mbedtls_x509_string_to_names:oid <- [DW_OP_plus_uconst 20] [$sp+0]
	@DEBUG_VALUE: mbedtls_x509_string_to_names:head <- [DW_OP_plus_uconst 12] [$sp+0]
	@DEBUG_VALUE: mbedtls_x509_string_to_names:ret <- 0
	cmp	r5, r4
	beq	.LBB0_2
.Ltmp38:
@ %bb.21:                               @   in Loop: Header=BB0_3 Depth=1
	@DEBUG_VALUE: mbedtls_x509_string_to_names:end <- $r7
	@DEBUG_VALUE: mbedtls_x509_string_to_names:d <- $r6
	@DEBUG_VALUE: mbedtls_x509_string_to_names:s <- $r5
	@DEBUG_VALUE: mbedtls_x509_string_to_names:c <- $r2
	@DEBUG_VALUE: mbedtls_x509_string_to_names:in_tag <- $r1
	@DEBUG_VALUE: mbedtls_x509_string_to_names:attr_descr <- [DW_OP_plus_uconst 16] [$sp+0]
	@DEBUG_VALUE: mbedtls_x509_string_to_names:oid <- [DW_OP_plus_uconst 20] [$sp+0]
	@DEBUG_VALUE: mbedtls_x509_string_to_names:head <- [DW_OP_plus_uconst 12] [$sp+0]
	@DEBUG_VALUE: mbedtls_x509_string_to_names:ret <- 0
	.loc	1 221 22                        @ ../../../ThirdParty/mbedTLS/library/x509_create.c:221:22
	ldrb	r0, [r2]
	.loc	1 221 20 is_stmt 0              @ ../../../ThirdParty/mbedTLS/library/x509_create.c:221:20
	strb	r0, [r6]
	.loc	1 221 16                        @ ../../../ThirdParty/mbedTLS/library/x509_create.c:221:16
	adds	r6, r6, #1
.Ltmp39:
	@DEBUG_VALUE: mbedtls_x509_string_to_names:d <- $r6
	.loc	1 0 16                          @ ../../../ThirdParty/mbedTLS/library/x509_create.c:0:16
	add	r0, sp, #28
.Ltmp40:
	.loc	1 223 19 is_stmt 1              @ ../../../ThirdParty/mbedTLS/library/x509_create.c:223:19
	subs	r0, r6, r0
.Ltmp41:
	.loc	1 223 17 is_stmt 0              @ ../../../ThirdParty/mbedTLS/library/x509_create.c:223:17
	movw	r2, #256
.Ltmp42:
	cmp	r0, r2
	bne	.LBB0_2
	b	.LBB0_32
.Ltmp43:
.LBB0_22:                               @   in Loop: Header=BB0_3 Depth=1
	@DEBUG_VALUE: mbedtls_x509_string_to_names:end <- $r7
	@DEBUG_VALUE: mbedtls_x509_string_to_names:d <- $r6
	@DEBUG_VALUE: mbedtls_x509_string_to_names:s <- $r5
	@DEBUG_VALUE: mbedtls_x509_string_to_names:c <- $r4
	@DEBUG_VALUE: mbedtls_x509_string_to_names:attr_descr <- [DW_OP_plus_uconst 16] [$sp+0]
	@DEBUG_VALUE: mbedtls_x509_string_to_names:oid <- [DW_OP_plus_uconst 20] [$sp+0]
	@DEBUG_VALUE: mbedtls_x509_string_to_names:head <- [DW_OP_plus_uconst 12] [$sp+0]
	@DEBUG_VALUE: mbedtls_x509_string_to_names:ret <- 0
	.loc	1 0 17                          @ ../../../ThirdParty/mbedTLS/library/x509_create.c:0:17
	add	r0, sp, #28
.Ltmp44:
	.loc	1 202 50 is_stmt 1              @ ../../../ThirdParty/mbedTLS/library/x509_create.c:202:50
	str	r0, [sp, #8]                    @ 4-byte Spill
	subs	r0, r6, r0
	.loc	1 200 59                        @ ../../../ThirdParty/mbedTLS/library/x509_create.c:200:59
	str	r0, [sp, #4]                    @ 4-byte Spill
	ldr	r0, [sp, #20]                   @ 4-byte Reload
	bl	strlen
	mov	r2, r0
	.loc	1 200 17 is_stmt 0              @ ../../../ThirdParty/mbedTLS/library/x509_create.c:200:17
	ldr	r0, [sp, #4]                    @ 4-byte Reload
	str	r0, [sp]
	ldr	r0, [sp, #12]                   @ 4-byte Reload
	ldr	r1, [sp, #20]                   @ 4-byte Reload
	ldr	r3, [sp, #8]                    @ 4-byte Reload
	bl	mbedtls_asn1_store_named_data
.Ltmp45:
	@DEBUG_VALUE: cur <- $r0
	.loc	1 204 16 is_stmt 1              @ ../../../ThirdParty/mbedTLS/library/x509_create.c:204:16
	cbz	r0, .LBB0_29
.Ltmp46:
@ %bb.23:                               @   in Loop: Header=BB0_3 Depth=1
	@DEBUG_VALUE: mbedtls_x509_string_to_names:end <- $r7
	@DEBUG_VALUE: mbedtls_x509_string_to_names:d <- $r6
	@DEBUG_VALUE: mbedtls_x509_string_to_names:s <- $r5
	@DEBUG_VALUE: mbedtls_x509_string_to_names:c <- $r4
	@DEBUG_VALUE: cur <- $r0
	@DEBUG_VALUE: mbedtls_x509_string_to_names:attr_descr <- [DW_OP_plus_uconst 16] [$sp+0]
	@DEBUG_VALUE: mbedtls_x509_string_to_names:oid <- [DW_OP_plus_uconst 20] [$sp+0]
	@DEBUG_VALUE: mbedtls_x509_string_to_names:head <- [DW_OP_plus_uconst 12] [$sp+0]
	@DEBUG_VALUE: mbedtls_x509_string_to_names:ret <- 0
	.loc	1 210 40                        @ ../../../ThirdParty/mbedTLS/library/x509_create.c:210:40
	ldr	r1, [sp, #16]                   @ 4-byte Reload
	ldr	r1, [r1, #12]
	.loc	1 210 26 is_stmt 0              @ ../../../ThirdParty/mbedTLS/library/x509_create.c:210:26
	str	r1, [r0, #12]
	.loc	1 212 13 is_stmt 1              @ ../../../ThirdParty/mbedTLS/library/x509_create.c:212:13
	cmp	r4, r7
	mov	r2, r4
	bhi	.LBB0_25
.Ltmp47:
@ %bb.24:                               @   in Loop: Header=BB0_3 Depth=1
	@DEBUG_VALUE: mbedtls_x509_string_to_names:end <- $r7
	@DEBUG_VALUE: mbedtls_x509_string_to_names:d <- $r6
	@DEBUG_VALUE: mbedtls_x509_string_to_names:s <- $r5
	@DEBUG_VALUE: mbedtls_x509_string_to_names:c <- $r4
	@DEBUG_VALUE: cur <- $r0
	@DEBUG_VALUE: mbedtls_x509_string_to_names:attr_descr <- [DW_OP_plus_uconst 16] [$sp+0]
	@DEBUG_VALUE: mbedtls_x509_string_to_names:oid <- [DW_OP_plus_uconst 20] [$sp+0]
	@DEBUG_VALUE: mbedtls_x509_string_to_names:head <- [DW_OP_plus_uconst 12] [$sp+0]
	@DEBUG_VALUE: mbedtls_x509_string_to_names:ret <- 0
	mov	r2, r7
.Ltmp48:
.LBB0_25:                               @   Parent Loop BB0_3 Depth=1
                                        @ =>  This Inner Loop Header: Depth=2
	@DEBUG_VALUE: mbedtls_x509_string_to_names:end <- $r7
	@DEBUG_VALUE: mbedtls_x509_string_to_names:d <- $r6
	@DEBUG_VALUE: mbedtls_x509_string_to_names:s <- $r5
	@DEBUG_VALUE: cur <- $r0
	@DEBUG_VALUE: mbedtls_x509_string_to_names:attr_descr <- [DW_OP_plus_uconst 16] [$sp+0]
	@DEBUG_VALUE: mbedtls_x509_string_to_names:oid <- [DW_OP_plus_uconst 20] [$sp+0]
	@DEBUG_VALUE: mbedtls_x509_string_to_names:head <- [DW_OP_plus_uconst 12] [$sp+0]
	@DEBUG_VALUE: mbedtls_x509_string_to_names:ret <- 0
	@DEBUG_VALUE: mbedtls_x509_string_to_names:c <- $r4
	.loc	1 212 28 is_stmt 0              @ ../../../ThirdParty/mbedTLS/library/x509_create.c:212:28
	cmp	r4, r7
	bhs	.LBB0_28
.Ltmp49:
@ %bb.26:                               @   in Loop: Header=BB0_25 Depth=2
	@DEBUG_VALUE: mbedtls_x509_string_to_names:end <- $r7
	@DEBUG_VALUE: mbedtls_x509_string_to_names:d <- $r6
	@DEBUG_VALUE: mbedtls_x509_string_to_names:s <- $r5
	@DEBUG_VALUE: mbedtls_x509_string_to_names:c <- $r4
	@DEBUG_VALUE: cur <- $r0
	@DEBUG_VALUE: mbedtls_x509_string_to_names:attr_descr <- [DW_OP_plus_uconst 16] [$sp+0]
	@DEBUG_VALUE: mbedtls_x509_string_to_names:oid <- [DW_OP_plus_uconst 20] [$sp+0]
	@DEBUG_VALUE: mbedtls_x509_string_to_names:head <- [DW_OP_plus_uconst 12] [$sp+0]
	@DEBUG_VALUE: mbedtls_x509_string_to_names:ret <- 0
	.loc	1 212 35                        @ ../../../ThirdParty/mbedTLS/library/x509_create.c:212:35
	adds	r1, r4, #1
	.loc	1 212 31                        @ ../../../ThirdParty/mbedTLS/library/x509_create.c:212:31
	ldrb	r3, [r4, #1]
	.loc	1 212 13                        @ ../../../ThirdParty/mbedTLS/library/x509_create.c:212:13
	cmp	r3, #32
.Ltmp50:
	.loc	1 0 0                           @ ../../../ThirdParty/mbedTLS/library/x509_create.c:0:0
	mov	r4, r1
.Ltmp51:
	.loc	1 212 13                        @ ../../../ThirdParty/mbedTLS/library/x509_create.c:212:13
	beq	.LBB0_25
.Ltmp52:
@ %bb.27:                               @   in Loop: Header=BB0_3 Depth=1
	@DEBUG_VALUE: mbedtls_x509_string_to_names:end <- $r7
	@DEBUG_VALUE: mbedtls_x509_string_to_names:d <- $r6
	@DEBUG_VALUE: mbedtls_x509_string_to_names:s <- $r5
	@DEBUG_VALUE: cur <- $r0
	@DEBUG_VALUE: mbedtls_x509_string_to_names:attr_descr <- [DW_OP_plus_uconst 16] [$sp+0]
	@DEBUG_VALUE: mbedtls_x509_string_to_names:oid <- [DW_OP_plus_uconst 20] [$sp+0]
	@DEBUG_VALUE: mbedtls_x509_string_to_names:head <- [DW_OP_plus_uconst 12] [$sp+0]
	@DEBUG_VALUE: mbedtls_x509_string_to_names:ret <- 0
	subs	r2, r1, #1
.Ltmp53:
.LBB0_28:                               @   in Loop: Header=BB0_3 Depth=1
	@DEBUG_VALUE: mbedtls_x509_string_to_names:end <- $r7
	@DEBUG_VALUE: mbedtls_x509_string_to_names:d <- $r6
	@DEBUG_VALUE: mbedtls_x509_string_to_names:s <- $r5
	@DEBUG_VALUE: cur <- $r0
	@DEBUG_VALUE: mbedtls_x509_string_to_names:attr_descr <- [DW_OP_plus_uconst 16] [$sp+0]
	@DEBUG_VALUE: mbedtls_x509_string_to_names:oid <- [DW_OP_plus_uconst 20] [$sp+0]
	@DEBUG_VALUE: mbedtls_x509_string_to_names:head <- [DW_OP_plus_uconst 12] [$sp+0]
	@DEBUG_VALUE: mbedtls_x509_string_to_names:ret <- 0
	@DEBUG_VALUE: mbedtls_x509_string_to_names:c <- $r2
	.loc	1 215 19 is_stmt 1              @ ../../../ThirdParty/mbedTLS/library/x509_create.c:215:19
	adds	r5, r2, #1
.Ltmp54:
	@DEBUG_VALUE: mbedtls_x509_string_to_names:s <- $r5
	.loc	1 0 19 is_stmt 0                @ ../../../ThirdParty/mbedTLS/library/x509_create.c:0:19
	movs	r1, #1
.Ltmp55:
	@DEBUG_VALUE: mbedtls_x509_string_to_names:in_tag <- 1
	@DEBUG_VALUE: mbedtls_x509_string_to_names:s <- $r5
	@DEBUG_VALUE: mbedtls_x509_string_to_names:c <- $r2
	@DEBUG_VALUE: mbedtls_x509_string_to_names:in_tag <- $r1
	cmp	r0, #0
	bne	.LBB0_19
	b	.LBB0_30
.Ltmp56:
.LBB0_29:                               @   in Loop: Header=BB0_3 Depth=1
	@DEBUG_VALUE: mbedtls_x509_string_to_names:end <- $r7
	@DEBUG_VALUE: mbedtls_x509_string_to_names:d <- $r6
	@DEBUG_VALUE: mbedtls_x509_string_to_names:s <- $r5
	@DEBUG_VALUE: mbedtls_x509_string_to_names:c <- $r4
	@DEBUG_VALUE: mbedtls_x509_string_to_names:attr_descr <- [DW_OP_plus_uconst 16] [$sp+0]
	@DEBUG_VALUE: mbedtls_x509_string_to_names:oid <- [DW_OP_plus_uconst 20] [$sp+0]
	@DEBUG_VALUE: mbedtls_x509_string_to_names:head <- [DW_OP_plus_uconst 12] [$sp+0]
	@DEBUG_VALUE: mbedtls_x509_string_to_names:ret <- 0
	movs	r1, #0
	.loc	1 159 28 is_stmt 1              @ ../../../ThirdParty/mbedTLS/library/x509_create.c:159:28
	mov	r2, r4
	@DEBUG_VALUE: mbedtls_x509_string_to_names:s <- $r5
.Ltmp57:
	@DEBUG_VALUE: mbedtls_x509_string_to_names:c <- $r2
	@DEBUG_VALUE: mbedtls_x509_string_to_names:in_tag <- $r1
	.loc	1 0 28 is_stmt 0                @ ../../../ThirdParty/mbedTLS/library/x509_create.c:0:28
	cmp	r0, #0
	bne	.LBB0_19
.Ltmp58:
.LBB0_30:
	@DEBUG_VALUE: mbedtls_x509_string_to_names:end <- $r7
	@DEBUG_VALUE: mbedtls_x509_string_to_names:d <- $r6
	@DEBUG_VALUE: mbedtls_x509_string_to_names:s <- $r5
	@DEBUG_VALUE: mbedtls_x509_string_to_names:c <- $r2
	@DEBUG_VALUE: mbedtls_x509_string_to_names:in_tag <- $r1
	@DEBUG_VALUE: mbedtls_x509_string_to_names:attr_descr <- [DW_OP_plus_uconst 16] [$sp+0]
	@DEBUG_VALUE: mbedtls_x509_string_to_names:oid <- [DW_OP_plus_uconst 20] [$sp+0]
	@DEBUG_VALUE: mbedtls_x509_string_to_names:head <- [DW_OP_plus_uconst 12] [$sp+0]
	@DEBUG_VALUE: mbedtls_x509_string_to_names:ret <- 0
	ldr	r0, __arm_cp.0_2
	.loc	1 236 1 is_stmt 1               @ ../../../ThirdParty/mbedTLS/library/x509_create.c:236:1
	add	sp, #284
.Ltmp59:
	pop	{r4, r5, r6, r7, pc}
.Ltmp60:
.LBB0_31:
	@DEBUG_VALUE: mbedtls_x509_string_to_names:c <- $r4
	@DEBUG_VALUE: mbedtls_x509_string_to_names:head <- [DW_OP_plus_uconst 12] [$sp+0]
	@DEBUG_VALUE: mbedtls_x509_string_to_names:ret <- 0
	.loc	1 0 1 is_stmt 0                 @ ../../../ThirdParty/mbedTLS/library/x509_create.c:0:1
	movs	r0, #0
	.loc	1 236 1                         @ ../../../ThirdParty/mbedTLS/library/x509_create.c:236:1
	add	sp, #284
.Ltmp61:
	pop	{r4, r5, r6, r7, pc}
.Ltmp62:
.LBB0_32:
	@DEBUG_VALUE: mbedtls_x509_string_to_names:end <- $r7
	@DEBUG_VALUE: mbedtls_x509_string_to_names:d <- $r6
	@DEBUG_VALUE: mbedtls_x509_string_to_names:s <- $r5
	@DEBUG_VALUE: mbedtls_x509_string_to_names:attr_descr <- [DW_OP_plus_uconst 16] [$sp+0]
	@DEBUG_VALUE: mbedtls_x509_string_to_names:oid <- [DW_OP_plus_uconst 20] [$sp+0]
	@DEBUG_VALUE: mbedtls_x509_string_to_names:head <- [DW_OP_plus_uconst 12] [$sp+0]
	@DEBUG_VALUE: mbedtls_x509_string_to_names:ret <- 0
	.loc	1 0 0                           @ ../../../ThirdParty/mbedTLS/library/x509_create.c:0:0
	ldr	r0, __arm_cp.0_0
	.loc	1 236 1                         @ ../../../ThirdParty/mbedTLS/library/x509_create.c:236:1
	add	sp, #284
.Ltmp63:
	pop	{r4, r5, r6, r7, pc}
.Ltmp64:
.LBB0_33:
	@DEBUG_VALUE: mbedtls_x509_string_to_names:end <- $r7
	@DEBUG_VALUE: mbedtls_x509_string_to_names:d <- $r6
	@DEBUG_VALUE: mbedtls_x509_string_to_names:s <- $r5
	@DEBUG_VALUE: mbedtls_x509_string_to_names:c <- $r4
	@DEBUG_VALUE: mbedtls_x509_string_to_names:attr_descr <- $r0
	@DEBUG_VALUE: mbedtls_x509_string_to_names:oid <- [DW_OP_plus_uconst 20] [$sp+0]
	@DEBUG_VALUE: mbedtls_x509_string_to_names:head <- [DW_OP_plus_uconst 12] [$sp+0]
	@DEBUG_VALUE: mbedtls_x509_string_to_names:ret <- 0
	.loc	1 0 1                           @ ../../../ThirdParty/mbedTLS/library/x509_create.c:0:1
	ldr	r0, __arm_cp.0_1
.Ltmp65:
	.loc	1 236 1                         @ ../../../ThirdParty/mbedTLS/library/x509_create.c:236:1
	add	sp, #284
.Ltmp66:
	pop	{r4, r5, r6, r7, pc}
.Ltmp67:
	.p2align	2
@ %bb.34:
	.loc	1 0 1                           @ ../../../ThirdParty/mbedTLS/library/x509_create.c:0:1
__arm_cp.0_0:
	.long	4294958208                      @ 0xffffdc80
.Lcpi_end0:
	.size	__arm_cp.0_0, .Lcpi_end0-__arm_cp.0_0
__arm_cp.0_1:
	.long	4294958848                      @ 0xffffdf00
.Lcpi_end1:
	.size	__arm_cp.0_1, .Lcpi_end1-__arm_cp.0_1
__arm_cp.0_2:
	.long	4294956928                      @ 0xffffd780
.Lcpi_end2:
	.size	__arm_cp.0_2, .Lcpi_end2-__arm_cp.0_2
.Lfunc_end0:
	.size	mbedtls_x509_string_to_names, .Lfunc_end0-mbedtls_x509_string_to_names
	.cfi_endproc
	.cantunwind
	.fnend
                                        @ -- End function
	.section	.text.x509_attr_descr_from_name,"ax",%progbits
	.p2align	2                               @ -- Begin function x509_attr_descr_from_name
	.type	x509_attr_descr_from_name,%function
	.code	16                              @ @x509_attr_descr_from_name
	.thumb_func
x509_attr_descr_from_name:
.Lfunc_begin1:
	.loc	1 142 0 is_stmt 1               @ ../../../ThirdParty/mbedTLS/library/x509_create.c:142:0
	.fnstart
	.cfi_startproc
@ %bb.0:
	@DEBUG_VALUE: x509_attr_descr_from_name:name <- $r0
	@DEBUG_VALUE: x509_attr_descr_from_name:name_len <- $r1
	.save	{r4, r5, r6, r7, lr}
	push	{r4, r5, r6, r7, lr}
	.cfi_def_cfa_offset 20
	.cfi_offset lr, -4
	.cfi_offset r7, -8
	.cfi_offset r6, -12
	.cfi_offset r5, -16
	.cfi_offset r4, -20
	.pad	#4
	sub	sp, #4
	.cfi_def_cfa_offset 24
	mov	r5, r1
.Ltmp68:
	@DEBUG_VALUE: x509_attr_descr_from_name:name_len <- $r5
	mov	r6, r0
.Ltmp69:
	@DEBUG_VALUE: x509_attr_descr_from_name:name <- $r6
	ldr	r4, __arm_cp.1_0
	ldr	r0, __arm_cp.1_1
	movs	r7, #0
.Ltmp70:
	@DEBUG_VALUE: x509_attr_descr_from_name:cur <- $r4
	b	.LBB1_2
.Ltmp71:
.LBB1_1:                                @   in Loop: Header=BB1_2 Depth=1
	@DEBUG_VALUE: x509_attr_descr_from_name:name <- $r6
	@DEBUG_VALUE: x509_attr_descr_from_name:name_len <- $r5
	@DEBUG_VALUE: x509_attr_descr_from_name:cur <- $r4
	.loc	1 145 33 prologue_end           @ ../../../ThirdParty/mbedTLS/library/x509_create.c:145:33
	ldr	r0, [r4, #16]
	.loc	1 145 50 is_stmt 0              @ ../../../ThirdParty/mbedTLS/library/x509_create.c:145:50
	adds	r4, #16
.Ltmp72:
	@DEBUG_VALUE: x509_attr_descr_from_name:cur <- $r4
	.loc	1 145 5                         @ ../../../ThirdParty/mbedTLS/library/x509_create.c:145:5
	cbz	r0, .LBB1_4
.Ltmp73:
.LBB1_2:                                @ =>This Inner Loop Header: Depth=1
	@DEBUG_VALUE: x509_attr_descr_from_name:name <- $r6
	@DEBUG_VALUE: x509_attr_descr_from_name:name_len <- $r5
	@DEBUG_VALUE: x509_attr_descr_from_name:cur <- $r4
	@DEBUG_VALUE: x509_attr_descr_from_name:cur <- $r4
	.loc	1 146 18 is_stmt 1              @ ../../../ThirdParty/mbedTLS/library/x509_create.c:146:18
	ldr	r1, [r4, #4]
	.loc	1 146 39 is_stmt 0              @ ../../../ThirdParty/mbedTLS/library/x509_create.c:146:39
	cmp	r1, r5
	bne	.LBB1_1
.Ltmp74:
@ %bb.3:                                @   in Loop: Header=BB1_2 Depth=1
	@DEBUG_VALUE: x509_attr_descr_from_name:name <- $r6
	@DEBUG_VALUE: x509_attr_descr_from_name:name_len <- $r5
	@DEBUG_VALUE: x509_attr_descr_from_name:cur <- $r4
	.loc	1 147 17 is_stmt 1              @ ../../../ThirdParty/mbedTLS/library/x509_create.c:147:17
	mov	r1, r6
	mov	r2, r5
	bl	strncmp
.Ltmp75:
	.loc	1 146 13                        @ ../../../ThirdParty/mbedTLS/library/x509_create.c:146:13
	cmp	r0, #0
	bne	.LBB1_1
	b	.LBB1_5
.Ltmp76:
.LBB1_4:
	@DEBUG_VALUE: x509_attr_descr_from_name:name <- $r6
	@DEBUG_VALUE: x509_attr_descr_from_name:name_len <- $r5
	@DEBUG_VALUE: x509_attr_descr_from_name:cur <- $r4
	.loc	1 150 10                        @ ../../../ThirdParty/mbedTLS/library/x509_create.c:150:10
	mov	r4, r7
.Ltmp77:
.LBB1_5:
	@DEBUG_VALUE: x509_attr_descr_from_name:name <- $r6
	@DEBUG_VALUE: x509_attr_descr_from_name:name_len <- $r5
	.loc	1 154 1                         @ ../../../ThirdParty/mbedTLS/library/x509_create.c:154:1
	mov	r0, r4
	add	sp, #4
	pop	{r4, r5, r6, r7, pc}
.Ltmp78:
	.p2align	2
@ %bb.6:
	.loc	1 0 1 is_stmt 0                 @ ../../../ThirdParty/mbedTLS/library/x509_create.c:0:1
__arm_cp.1_0:
	.long	x509_attrs
.Lcpi_end3:
	.size	__arm_cp.1_0, .Lcpi_end3-__arm_cp.1_0
__arm_cp.1_1:
	.long	.L.str
.Lcpi_end4:
	.size	__arm_cp.1_1, .Lcpi_end4-__arm_cp.1_1
.Lfunc_end1:
	.size	x509_attr_descr_from_name, .Lfunc_end1-x509_attr_descr_from_name
	.cfi_endproc
	.cantunwind
	.fnend
                                        @ -- End function
	.section	.text.mbedtls_x509_set_extension,"ax",%progbits
	.hidden	mbedtls_x509_set_extension      @ -- Begin function mbedtls_x509_set_extension
	.globl	mbedtls_x509_set_extension
	.p2align	2
	.type	mbedtls_x509_set_extension,%function
	.code	16                              @ @mbedtls_x509_set_extension
	.thumb_func
mbedtls_x509_set_extension:
.Lfunc_begin2:
	.loc	1 243 0 is_stmt 1               @ ../../../ThirdParty/mbedTLS/library/x509_create.c:243:0
	.fnstart
	.cfi_startproc
@ %bb.0:
	@DEBUG_VALUE: mbedtls_x509_set_extension:head <- $r0
	@DEBUG_VALUE: mbedtls_x509_set_extension:oid <- $r1
	@DEBUG_VALUE: mbedtls_x509_set_extension:oid_len <- $r2
	@DEBUG_VALUE: mbedtls_x509_set_extension:critical <- $r3
	.save	{r4, r5, r6, lr}
	push	{r4, r5, r6, lr}
	.cfi_def_cfa_offset 16
	.cfi_offset lr, -4
	.cfi_offset r6, -8
	.cfi_offset r5, -12
	.cfi_offset r4, -16
	.pad	#8
	sub	sp, #8
	.cfi_def_cfa_offset 24
	mov	r6, r3
.Ltmp79:
	@DEBUG_VALUE: mbedtls_x509_set_extension:val_len <- [DW_OP_plus_uconst 28] [$sp+0]
	@DEBUG_VALUE: mbedtls_x509_set_extension:val <- [DW_OP_plus_uconst 24] [$sp+0]
	@DEBUG_VALUE: mbedtls_x509_set_extension:critical <- $r6
	@DEBUG_VALUE: mbedtls_x509_set_extension:oid_len <- $r2
	@DEBUG_VALUE: mbedtls_x509_set_extension:oid <- $r1
	@DEBUG_VALUE: mbedtls_x509_set_extension:head <- $r0
	ldr	r5, [sp, #28]
.Ltmp80:
	.loc	1 247 31 prologue_end           @ ../../../ThirdParty/mbedTLS/library/x509_create.c:247:31
	adds	r3, r5, #1
	.loc	1 246 17                        @ ../../../ThirdParty/mbedTLS/library/x509_create.c:246:17
	str	r3, [sp]
	movs	r4, #0
	@DEBUG_VALUE: mbedtls_x509_set_extension:oid_len <- $r2
	@DEBUG_VALUE: mbedtls_x509_set_extension:oid <- $r1
	@DEBUG_VALUE: mbedtls_x509_set_extension:head <- $r0
	mov	r3, r4
	bl	mbedtls_asn1_store_named_data
.Ltmp81:
	@DEBUG_VALUE: mbedtls_x509_set_extension:oid_len <- [DW_OP_LLVM_entry_value 1] $r2
	@DEBUG_VALUE: mbedtls_x509_set_extension:oid <- [DW_OP_LLVM_entry_value 1] $r1
	@DEBUG_VALUE: mbedtls_x509_set_extension:head <- [DW_OP_LLVM_entry_value 1] $r0
	@DEBUG_VALUE: mbedtls_x509_set_extension:cur <- $r0
	.loc	1 246 9 is_stmt 0               @ ../../../ThirdParty/mbedTLS/library/x509_create.c:246:9
	cbz	r0, .LBB2_2
.Ltmp82:
@ %bb.1:
	@DEBUG_VALUE: mbedtls_x509_set_extension:critical <- $r6
	@DEBUG_VALUE: mbedtls_x509_set_extension:cur <- $r0
	@DEBUG_VALUE: mbedtls_x509_set_extension:val <- [DW_OP_plus_uconst 24] [$sp+0]
	@DEBUG_VALUE: mbedtls_x509_set_extension:val_len <- [DW_OP_plus_uconst 28] [$sp+0]
	@DEBUG_VALUE: mbedtls_x509_set_extension:oid_len <- [DW_OP_LLVM_entry_value 1] $r2
	@DEBUG_VALUE: mbedtls_x509_set_extension:oid <- [DW_OP_LLVM_entry_value 1] $r1
	@DEBUG_VALUE: mbedtls_x509_set_extension:head <- [DW_OP_LLVM_entry_value 1] $r0
	.loc	1 0 9                           @ ../../../ThirdParty/mbedTLS/library/x509_create.c:0:9
	ldr	r1, [sp, #24]
	.loc	1 252 14 is_stmt 1              @ ../../../ThirdParty/mbedTLS/library/x509_create.c:252:14
	ldr	r2, [r0, #20]
	.loc	1 252 19 is_stmt 0              @ ../../../ThirdParty/mbedTLS/library/x509_create.c:252:19
	strb	r6, [r2]
	.loc	1 253 22 is_stmt 1              @ ../../../ThirdParty/mbedTLS/library/x509_create.c:253:22
	ldr	r0, [r0, #20]
.Ltmp83:
	.loc	1 253 24 is_stmt 0              @ ../../../ThirdParty/mbedTLS/library/x509_create.c:253:24
	adds	r0, r0, #1
	.loc	1 253 5                         @ ../../../ThirdParty/mbedTLS/library/x509_create.c:253:5
	mov	r2, r5
	bl	__aeabi_memcpy
	b	.LBB2_3
.Ltmp84:
.LBB2_2:
	@DEBUG_VALUE: mbedtls_x509_set_extension:critical <- $r6
	@DEBUG_VALUE: mbedtls_x509_set_extension:cur <- $r0
	@DEBUG_VALUE: mbedtls_x509_set_extension:val <- [DW_OP_plus_uconst 24] [$sp+0]
	@DEBUG_VALUE: mbedtls_x509_set_extension:val_len <- [DW_OP_plus_uconst 28] [$sp+0]
	@DEBUG_VALUE: mbedtls_x509_set_extension:oid_len <- [DW_OP_LLVM_entry_value 1] $r2
	@DEBUG_VALUE: mbedtls_x509_set_extension:oid <- [DW_OP_LLVM_entry_value 1] $r1
	@DEBUG_VALUE: mbedtls_x509_set_extension:head <- [DW_OP_LLVM_entry_value 1] $r0
	.loc	1 0 5                           @ ../../../ThirdParty/mbedTLS/library/x509_create.c:0:5
	ldr	r4, __arm_cp.2_0
.Ltmp85:
.LBB2_3:
	@DEBUG_VALUE: mbedtls_x509_set_extension:critical <- $r6
	@DEBUG_VALUE: mbedtls_x509_set_extension:val <- [DW_OP_plus_uconst 24] [$sp+0]
	@DEBUG_VALUE: mbedtls_x509_set_extension:val_len <- [DW_OP_plus_uconst 28] [$sp+0]
	@DEBUG_VALUE: mbedtls_x509_set_extension:oid_len <- [DW_OP_LLVM_entry_value 1] $r2
	@DEBUG_VALUE: mbedtls_x509_set_extension:oid <- [DW_OP_LLVM_entry_value 1] $r1
	@DEBUG_VALUE: mbedtls_x509_set_extension:head <- [DW_OP_LLVM_entry_value 1] $r0
	.loc	1 256 1 is_stmt 1               @ ../../../ThirdParty/mbedTLS/library/x509_create.c:256:1
	mov	r0, r4
	add	sp, #8
.Ltmp86:
	pop	{r4, r5, r6, pc}
.Ltmp87:
	.p2align	2
@ %bb.4:
	.loc	1 0 1 is_stmt 0                 @ ../../../ThirdParty/mbedTLS/library/x509_create.c:0:1
__arm_cp.2_0:
	.long	4294956928                      @ 0xffffd780
.Lcpi_end5:
	.size	__arm_cp.2_0, .Lcpi_end5-__arm_cp.2_0
.Lfunc_end2:
	.size	mbedtls_x509_set_extension, .Lfunc_end2-mbedtls_x509_set_extension
	.cfi_endproc
	.cantunwind
	.fnend
                                        @ -- End function
	.section	.text.mbedtls_x509_write_names,"ax",%progbits
	.hidden	mbedtls_x509_write_names        @ -- Begin function mbedtls_x509_write_names
	.globl	mbedtls_x509_write_names
	.p2align	1
	.type	mbedtls_x509_write_names,%function
	.code	16                              @ @mbedtls_x509_write_names
	.thumb_func
mbedtls_x509_write_names:
.Lfunc_begin3:
	.loc	1 304 0 is_stmt 1               @ ../../../ThirdParty/mbedTLS/library/x509_create.c:304:0
	.fnstart
	.cfi_startproc
@ %bb.0:
	@DEBUG_VALUE: mbedtls_x509_write_names:p <- $r0
	@DEBUG_VALUE: mbedtls_x509_write_names:start <- $r1
	@DEBUG_VALUE: mbedtls_x509_write_names:first <- $r2
	.save	{r4, r5, r6, r7, lr}
	push	{r4, r5, r6, r7, lr}
	.cfi_def_cfa_offset 20
	.cfi_offset lr, -4
	.cfi_offset r7, -8
	.cfi_offset r6, -12
	.cfi_offset r5, -16
	.cfi_offset r4, -20
	.pad	#4
	sub	sp, #4
	.cfi_def_cfa_offset 24
.Ltmp88:
	@DEBUG_VALUE: mbedtls_x509_write_names:cur <- $r2
	mov	r6, r0
.Ltmp89:
	@DEBUG_VALUE: mbedtls_x509_write_names:len <- 0
	@DEBUG_VALUE: mbedtls_x509_write_names:cur <- $r2
	@DEBUG_VALUE: mbedtls_x509_write_names:first <- $r2
	@DEBUG_VALUE: mbedtls_x509_write_names:start <- $r1
	@DEBUG_VALUE: mbedtls_x509_write_names:p <- $r6
	.loc	1 309 5 prologue_end            @ ../../../ThirdParty/mbedTLS/library/x509_create.c:309:5
	cbz	r2, .LBB3_4
.Ltmp90:
@ %bb.1:
	@DEBUG_VALUE: mbedtls_x509_write_names:p <- $r6
	@DEBUG_VALUE: mbedtls_x509_write_names:cur <- $r2
	@DEBUG_VALUE: mbedtls_x509_write_names:first <- $r2
	@DEBUG_VALUE: mbedtls_x509_write_names:start <- $r1
	@DEBUG_VALUE: mbedtls_x509_write_names:len <- 0
	.loc	1 0 5 is_stmt 0                 @ ../../../ThirdParty/mbedTLS/library/x509_create.c:0:5
	mov	r5, r2
.Ltmp91:
	@DEBUG_VALUE: mbedtls_x509_write_names:first <- $r5
	@DEBUG_VALUE: mbedtls_x509_write_names:cur <- $r5
	movs	r7, #0
.Ltmp92:
.LBB3_2:                                @ =>This Inner Loop Header: Depth=1
	@DEBUG_VALUE: mbedtls_x509_write_names:cur <- $r5
	@DEBUG_VALUE: mbedtls_x509_write_names:cur <- $r5
	@DEBUG_VALUE: mbedtls_x509_write_names:len <- $r7
	@DEBUG_VALUE: mbedtls_x509_write_names:len <- $r7
	mov	r4, r6
.Ltmp93:
	.loc	1 311 9 is_stmt 1               @ ../../../ThirdParty/mbedTLS/library/x509_create.c:311:9
	mov	r0, r6
	mov	r6, r1
	mov	r2, r5
	bl	x509_write_name
.Ltmp94:
	@DEBUG_VALUE: mbedtls_x509_write_names:start <- [DW_OP_LLVM_entry_value 1] $r1
	@DEBUG_VALUE: mbedtls_x509_write_names:ret <- $r0
	.loc	1 311 9 is_stmt 0               @ ../../../ThirdParty/mbedTLS/library/x509_create.c:311:9
	cmp	r0, #0
	bmi	.LBB3_8
.Ltmp95:
@ %bb.3:                                @   in Loop: Header=BB3_2 Depth=1
	@DEBUG_VALUE: mbedtls_x509_write_names:len <- $r7
	@DEBUG_VALUE: mbedtls_x509_write_names:cur <- $r5
	@DEBUG_VALUE: mbedtls_x509_write_names:ret <- $r0
	.loc	1 311 9                         @ ../../../ThirdParty/mbedTLS/library/x509_create.c:311:9
	adds	r7, r0, r7
.Ltmp96:
	@DEBUG_VALUE: mbedtls_x509_write_names:len <- $r7
	.loc	1 312 20 is_stmt 1              @ ../../../ThirdParty/mbedTLS/library/x509_create.c:312:20
	ldr	r5, [r5, #24]
.Ltmp97:
	@DEBUG_VALUE: mbedtls_x509_write_names:first <- [DW_OP_LLVM_entry_value 1] $r2
	@DEBUG_VALUE: mbedtls_x509_write_names:cur <- $r5
	.loc	1 309 5                         @ ../../../ThirdParty/mbedTLS/library/x509_create.c:309:5
	cmp	r5, #0
	mov	r1, r6
	mov	r6, r4
	bne	.LBB3_2
	b	.LBB3_5
.Ltmp98:
.LBB3_4:
	@DEBUG_VALUE: mbedtls_x509_write_names:p <- $r6
	@DEBUG_VALUE: mbedtls_x509_write_names:cur <- $r2
	@DEBUG_VALUE: mbedtls_x509_write_names:first <- $r2
	@DEBUG_VALUE: mbedtls_x509_write_names:start <- $r1
	@DEBUG_VALUE: mbedtls_x509_write_names:len <- 0
	.loc	1 0 5 is_stmt 0                 @ ../../../ThirdParty/mbedTLS/library/x509_create.c:0:5
	movs	r7, #0
.Ltmp99:
.LBB3_5:
	@DEBUG_VALUE: mbedtls_x509_write_names:len <- $r7
	.loc	1 315 5 is_stmt 1               @ ../../../ThirdParty/mbedTLS/library/x509_create.c:315:5
	mov	r0, r6
	mov	r5, r1
	mov	r4, r7
	@DEBUG_VALUE: mbedtls_x509_write_names:len <- $r7
	mov	r2, r7
.Ltmp100:
	@DEBUG_VALUE: mbedtls_x509_write_names:len <- $r4
	bl	mbedtls_asn1_write_len
.Ltmp101:
	@DEBUG_VALUE: mbedtls_x509_write_names:ret <- $r0
	.loc	1 315 5 is_stmt 0               @ ../../../ThirdParty/mbedTLS/library/x509_create.c:315:5
	cmp	r0, #0
	bmi	.LBB3_8
.Ltmp102:
@ %bb.6:
	@DEBUG_VALUE: mbedtls_x509_write_names:len <- $r4
	@DEBUG_VALUE: mbedtls_x509_write_names:ret <- $r0
	@DEBUG_VALUE: mbedtls_x509_write_names:len <- undef
	.loc	1 0 5                           @ ../../../ThirdParty/mbedTLS/library/x509_create.c:0:5
	mov	r7, r0
.Ltmp103:
	@DEBUG_VALUE: mbedtls_x509_write_names:ret <- $r7
	movs	r2, #48
.Ltmp104:
	.loc	1 316 5 is_stmt 1               @ ../../../ThirdParty/mbedTLS/library/x509_create.c:316:5
	mov	r0, r6
	mov	r1, r5
	bl	mbedtls_asn1_write_tag
.Ltmp105:
	@DEBUG_VALUE: mbedtls_x509_write_names:ret <- $r0
	.loc	1 316 5 is_stmt 0               @ ../../../ThirdParty/mbedTLS/library/x509_create.c:316:5
	cmp	r0, #0
	bmi	.LBB3_8
.Ltmp106:
@ %bb.7:
	@DEBUG_VALUE: mbedtls_x509_write_names:ret <- $r0
	.loc	1 315 5 is_stmt 1               @ ../../../ThirdParty/mbedTLS/library/x509_create.c:315:5
	adds	r1, r7, r4
.Ltmp107:
	@DEBUG_VALUE: mbedtls_x509_write_names:len <- $r1
	.loc	1 316 5                         @ ../../../ThirdParty/mbedTLS/library/x509_create.c:316:5
	adds	r0, r1, r0
.Ltmp108:
	@DEBUG_VALUE: mbedtls_x509_write_names:len <- $r0
.LBB3_8:
	.loc	1 320 1                         @ ../../../ThirdParty/mbedTLS/library/x509_create.c:320:1
	add	sp, #4
	pop	{r4, r5, r6, r7, pc}
.Ltmp109:
.Lfunc_end3:
	.size	mbedtls_x509_write_names, .Lfunc_end3-mbedtls_x509_write_names
	.cfi_endproc
	.cantunwind
	.fnend
                                        @ -- End function
	.section	.text.x509_write_name,"ax",%progbits
	.p2align	1                               @ -- Begin function x509_write_name
	.type	x509_write_name,%function
	.code	16                              @ @x509_write_name
	.thumb_func
x509_write_name:
.Lfunc_begin4:
	.loc	1 271 0                         @ ../../../ThirdParty/mbedTLS/library/x509_create.c:271:0
	.fnstart
	.cfi_startproc
@ %bb.0:
	@DEBUG_VALUE: x509_write_name:p <- $r0
	@DEBUG_VALUE: x509_write_name:start <- $r1
	@DEBUG_VALUE: x509_write_name:cur_name <- $r2
	.save	{r4, r5, r6, r7, lr}
	push	{r4, r5, r6, r7, lr}
	.cfi_def_cfa_offset 20
	.cfi_offset lr, -4
	.cfi_offset r7, -8
	.cfi_offset r6, -12
	.cfi_offset r5, -16
	.cfi_offset r4, -20
	.pad	#12
	sub	sp, #12
	.cfi_def_cfa_offset 32
	mov	r4, r1
	mov	r6, r0
.Ltmp110:
	@DEBUG_VALUE: x509_write_name:name_len <- undef
	@DEBUG_VALUE: x509_write_name:name <- undef
	@DEBUG_VALUE: x509_write_name:oid <- undef
	@DEBUG_VALUE: x509_write_name:oid_len <- undef
	@DEBUG_VALUE: x509_write_name:len <- 0
	@DEBUG_VALUE: x509_write_name:cur_name <- $r2
	@DEBUG_VALUE: x509_write_name:start <- $r4
	@DEBUG_VALUE: x509_write_name:p <- $r6
	.loc	1 275 49 prologue_end           @ ../../../ThirdParty/mbedTLS/library/x509_create.c:275:49
	ldr	r0, [r2, #4]
	.loc	1 274 62                        @ ../../../ThirdParty/mbedTLS/library/x509_create.c:274:62
	str	r0, [sp, #8]                    @ 4-byte Spill
	ldr	r7, [r2, #8]
.Ltmp111:
	.loc	1 280 5                         @ ../../../ThirdParty/mbedTLS/library/x509_create.c:280:5
	ldr	r5, [r2, #12]
.Ltmp112:
	.loc	1 277 49                        @ ../../../ThirdParty/mbedTLS/library/x509_create.c:277:49
	ldr	r0, [r2, #16]
	.loc	1 276 49                        @ ../../../ThirdParty/mbedTLS/library/x509_create.c:276:49
	ldr	r3, [r2, #20]
.Ltmp113:
	.loc	1 280 5                         @ ../../../ThirdParty/mbedTLS/library/x509_create.c:280:5
	str	r0, [sp]
	mov	r0, r6
	mov	r2, r5
.Ltmp114:
	@DEBUG_VALUE: x509_write_name:cur_name <- [DW_OP_LLVM_entry_value 1] $r2
	bl	mbedtls_asn1_write_tagged_string
	mov	r5, r0
.Ltmp115:
	@DEBUG_VALUE: x509_write_name:ret <- $r5
	.loc	1 280 5 is_stmt 0               @ ../../../ThirdParty/mbedTLS/library/x509_create.c:280:5
	cmp	r0, #0
	bmi	.LBB4_10
.Ltmp116:
@ %bb.1:
	@DEBUG_VALUE: x509_write_name:p <- $r6
	@DEBUG_VALUE: x509_write_name:ret <- $r5
	@DEBUG_VALUE: x509_write_name:start <- $r4
	@DEBUG_VALUE: x509_write_name:cur_name <- [DW_OP_LLVM_entry_value 1] $r2
	@DEBUG_VALUE: x509_write_name:len <- 0
	@DEBUG_VALUE: x509_write_name:len <- $r5
	.loc	1 286 5 is_stmt 1               @ ../../../ThirdParty/mbedTLS/library/x509_create.c:286:5
	mov	r0, r6
	mov	r1, r4
	mov	r2, r7
	ldr	r3, [sp, #8]                    @ 4-byte Reload
	bl	mbedtls_asn1_write_oid
.Ltmp117:
	@DEBUG_VALUE: x509_write_name:ret <- $r0
	.loc	1 286 5 is_stmt 0               @ ../../../ThirdParty/mbedTLS/library/x509_create.c:286:5
	cmp	r0, #0
	bmi	.LBB4_7
.Ltmp118:
@ %bb.2:
	@DEBUG_VALUE: x509_write_name:p <- $r6
	@DEBUG_VALUE: x509_write_name:len <- $r5
	@DEBUG_VALUE: x509_write_name:start <- $r4
	@DEBUG_VALUE: x509_write_name:ret <- $r0
	@DEBUG_VALUE: x509_write_name:cur_name <- [DW_OP_LLVM_entry_value 1] $r2
	.loc	1 286 5                         @ ../../../ThirdParty/mbedTLS/library/x509_create.c:286:5
	adds	r7, r0, r5
.Ltmp119:
	@DEBUG_VALUE: x509_write_name:len <- $r7
	.loc	1 289 5 is_stmt 1               @ ../../../ThirdParty/mbedTLS/library/x509_create.c:289:5
	mov	r0, r6
.Ltmp120:
	mov	r1, r4
	mov	r2, r7
	bl	mbedtls_asn1_write_len
	mov	r5, r0
.Ltmp121:
	@DEBUG_VALUE: x509_write_name:ret <- $r5
	.loc	1 289 5 is_stmt 0               @ ../../../ThirdParty/mbedTLS/library/x509_create.c:289:5
	cmp	r0, #0
	bmi	.LBB4_10
.Ltmp122:
@ %bb.3:
	@DEBUG_VALUE: x509_write_name:len <- $r7
	@DEBUG_VALUE: x509_write_name:p <- $r6
	@DEBUG_VALUE: x509_write_name:ret <- $r5
	@DEBUG_VALUE: x509_write_name:start <- $r4
	@DEBUG_VALUE: x509_write_name:cur_name <- [DW_OP_LLVM_entry_value 1] $r2
	@DEBUG_VALUE: x509_write_name:len <- undef
	.loc	1 0 5                           @ ../../../ThirdParty/mbedTLS/library/x509_create.c:0:5
	movs	r2, #48
.Ltmp123:
	.loc	1 290 5 is_stmt 1               @ ../../../ThirdParty/mbedTLS/library/x509_create.c:290:5
	mov	r0, r6
	mov	r1, r4
	bl	mbedtls_asn1_write_tag
.Ltmp124:
	@DEBUG_VALUE: x509_write_name:ret <- $r0
	.loc	1 290 5 is_stmt 0               @ ../../../ThirdParty/mbedTLS/library/x509_create.c:290:5
	cmp	r0, #0
	bmi	.LBB4_8
.Ltmp125:
@ %bb.4:
	@DEBUG_VALUE: x509_write_name:p <- $r6
	@DEBUG_VALUE: x509_write_name:start <- $r4
	@DEBUG_VALUE: x509_write_name:ret <- $r0
	@DEBUG_VALUE: x509_write_name:cur_name <- [DW_OP_LLVM_entry_value 1] $r2
	.loc	1 289 5 is_stmt 1               @ ../../../ThirdParty/mbedTLS/library/x509_create.c:289:5
	adds	r1, r5, r7
.Ltmp126:
	@DEBUG_VALUE: x509_write_name:len <- $r1
	.loc	1 290 5                         @ ../../../ThirdParty/mbedTLS/library/x509_create.c:290:5
	adds	r7, r1, r0
.Ltmp127:
	@DEBUG_VALUE: x509_write_name:len <- $r7
	.loc	1 294 5                         @ ../../../ThirdParty/mbedTLS/library/x509_create.c:294:5
	mov	r0, r6
.Ltmp128:
	mov	r1, r4
	mov	r2, r7
	bl	mbedtls_asn1_write_len
	mov	r5, r0
.Ltmp129:
	@DEBUG_VALUE: x509_write_name:ret <- $r5
	.loc	1 294 5 is_stmt 0               @ ../../../ThirdParty/mbedTLS/library/x509_create.c:294:5
	cmp	r0, #0
	bmi	.LBB4_10
.Ltmp130:
@ %bb.5:
	@DEBUG_VALUE: x509_write_name:len <- $r7
	@DEBUG_VALUE: x509_write_name:p <- $r6
	@DEBUG_VALUE: x509_write_name:ret <- $r5
	@DEBUG_VALUE: x509_write_name:start <- $r4
	@DEBUG_VALUE: x509_write_name:cur_name <- [DW_OP_LLVM_entry_value 1] $r2
	@DEBUG_VALUE: x509_write_name:len <- undef
	.loc	1 0 5                           @ ../../../ThirdParty/mbedTLS/library/x509_create.c:0:5
	movs	r2, #49
.Ltmp131:
	.loc	1 295 5 is_stmt 1               @ ../../../ThirdParty/mbedTLS/library/x509_create.c:295:5
	mov	r0, r6
	mov	r1, r4
	bl	mbedtls_asn1_write_tag
.Ltmp132:
	@DEBUG_VALUE: x509_write_name:ret <- $r0
	.loc	1 295 5 is_stmt 0               @ ../../../ThirdParty/mbedTLS/library/x509_create.c:295:5
	cmp	r0, #0
	bmi	.LBB4_9
.Ltmp133:
@ %bb.6:
	@DEBUG_VALUE: x509_write_name:p <- $r6
	@DEBUG_VALUE: x509_write_name:start <- $r4
	@DEBUG_VALUE: x509_write_name:ret <- $r0
	@DEBUG_VALUE: x509_write_name:cur_name <- [DW_OP_LLVM_entry_value 1] $r2
	.loc	1 294 5 is_stmt 1               @ ../../../ThirdParty/mbedTLS/library/x509_create.c:294:5
	adds	r1, r5, r7
.Ltmp134:
	@DEBUG_VALUE: x509_write_name:len <- $r1
	.loc	1 295 5                         @ ../../../ThirdParty/mbedTLS/library/x509_create.c:295:5
	adds	r5, r1, r0
.Ltmp135:
	@DEBUG_VALUE: x509_write_name:len <- $r5
	.loc	1 0 5 is_stmt 0                 @ ../../../ThirdParty/mbedTLS/library/x509_create.c:0:5
	b	.LBB4_10
.Ltmp136:
.LBB4_7:
	@DEBUG_VALUE: x509_write_name:p <- $r6
	@DEBUG_VALUE: x509_write_name:len <- $r5
	@DEBUG_VALUE: x509_write_name:start <- $r4
	@DEBUG_VALUE: x509_write_name:ret <- $r0
	@DEBUG_VALUE: x509_write_name:cur_name <- [DW_OP_LLVM_entry_value 1] $r2
	mov	r5, r0
.Ltmp137:
	@DEBUG_VALUE: x509_write_name:ret <- $r5
	b	.LBB4_10
.Ltmp138:
.LBB4_8:
	@DEBUG_VALUE: x509_write_name:p <- $r6
	@DEBUG_VALUE: x509_write_name:start <- $r4
	@DEBUG_VALUE: x509_write_name:ret <- $r0
	@DEBUG_VALUE: x509_write_name:cur_name <- [DW_OP_LLVM_entry_value 1] $r2
	mov	r5, r0
.Ltmp139:
	@DEBUG_VALUE: x509_write_name:ret <- $r5
	b	.LBB4_10
.Ltmp140:
.LBB4_9:
	@DEBUG_VALUE: x509_write_name:p <- $r6
	@DEBUG_VALUE: x509_write_name:start <- $r4
	@DEBUG_VALUE: x509_write_name:ret <- $r0
	@DEBUG_VALUE: x509_write_name:cur_name <- [DW_OP_LLVM_entry_value 1] $r2
	mov	r5, r0
.Ltmp141:
	@DEBUG_VALUE: x509_write_name:ret <- $r5
.LBB4_10:
	@DEBUG_VALUE: x509_write_name:p <- $r6
	@DEBUG_VALUE: x509_write_name:start <- $r4
	@DEBUG_VALUE: x509_write_name:cur_name <- [DW_OP_LLVM_entry_value 1] $r2
	.loc	1 300 1 is_stmt 1               @ ../../../ThirdParty/mbedTLS/library/x509_create.c:300:1
	mov	r0, r5
	add	sp, #12
	pop	{r4, r5, r6, r7, pc}
.Ltmp142:
.Lfunc_end4:
	.size	x509_write_name, .Lfunc_end4-x509_write_name
	.cfi_endproc
	.cantunwind
	.fnend
                                        @ -- End function
	.section	.text.mbedtls_x509_write_sig,"ax",%progbits
	.hidden	mbedtls_x509_write_sig          @ -- Begin function mbedtls_x509_write_sig
	.globl	mbedtls_x509_write_sig
	.p2align	1
	.type	mbedtls_x509_write_sig,%function
	.code	16                              @ @mbedtls_x509_write_sig
	.thumb_func
mbedtls_x509_write_sig:
.Lfunc_begin5:
	.loc	1 325 0                         @ ../../../ThirdParty/mbedTLS/library/x509_create.c:325:0
	.fnstart
	.cfi_startproc
@ %bb.0:
	@DEBUG_VALUE: mbedtls_x509_write_sig:p <- $r0
	@DEBUG_VALUE: mbedtls_x509_write_sig:start <- $r1
	@DEBUG_VALUE: mbedtls_x509_write_sig:oid <- $r2
	@DEBUG_VALUE: mbedtls_x509_write_sig:oid_len <- $r3
	.save	{r4, r5, r6, r7, lr}
	push	{r4, r5, r6, r7, lr}
	.cfi_def_cfa_offset 20
	.cfi_offset lr, -4
	.cfi_offset r7, -8
	.cfi_offset r6, -12
	.cfi_offset r5, -16
	.cfi_offset r4, -20
	.pad	#20
	sub	sp, #20
	.cfi_def_cfa_offset 40
	mov	r5, r0
.Ltmp143:
	@DEBUG_VALUE: mbedtls_x509_write_sig:len <- 0
	@DEBUG_VALUE: mbedtls_x509_write_sig:size <- [DW_OP_plus_uconst 44] [$sp+0]
	@DEBUG_VALUE: mbedtls_x509_write_sig:sig <- [DW_OP_plus_uconst 40] [$sp+0]
	@DEBUG_VALUE: mbedtls_x509_write_sig:oid_len <- $r3
	@DEBUG_VALUE: mbedtls_x509_write_sig:oid <- $r2
	@DEBUG_VALUE: mbedtls_x509_write_sig:start <- $r1
	@DEBUG_VALUE: mbedtls_x509_write_sig:p <- $r5
	.loc	1 329 9 prologue_end            @ ../../../ThirdParty/mbedTLS/library/x509_create.c:329:9
	ldr	r6, [r0]
	movs	r4, #107
	mvns	r0, r4
	.loc	1 329 20 is_stmt 0              @ ../../../ThirdParty/mbedTLS/library/x509_create.c:329:20
	cmp	r6, r1
	blo	.LBB5_2
.Ltmp144:
@ %bb.1:
	@DEBUG_VALUE: mbedtls_x509_write_sig:p <- $r5
	@DEBUG_VALUE: mbedtls_x509_write_sig:oid_len <- $r3
	@DEBUG_VALUE: mbedtls_x509_write_sig:oid <- $r2
	@DEBUG_VALUE: mbedtls_x509_write_sig:start <- $r1
	@DEBUG_VALUE: mbedtls_x509_write_sig:sig <- [DW_OP_plus_uconst 40] [$sp+0]
	@DEBUG_VALUE: mbedtls_x509_write_sig:size <- [DW_OP_plus_uconst 44] [$sp+0]
	@DEBUG_VALUE: mbedtls_x509_write_sig:len <- 0
	.loc	1 0 20                          @ ../../../ThirdParty/mbedTLS/library/x509_create.c:0:20
	mov	r7, r1
.Ltmp145:
	@DEBUG_VALUE: mbedtls_x509_write_sig:start <- $r7
	str	r2, [sp, #16]                   @ 4-byte Spill
.Ltmp146:
	@DEBUG_VALUE: mbedtls_x509_write_sig:oid <- [DW_OP_plus_uconst 16] [$sp+0]
	ldr	r2, [sp, #44]
	.loc	1 329 36                        @ ../../../ThirdParty/mbedTLS/library/x509_create.c:329:36
	subs	r1, r6, r1
.Ltmp147:
	.loc	1 329 9                         @ ../../../ThirdParty/mbedTLS/library/x509_create.c:329:9
	cmp	r1, r2
	bhs	.LBB5_3
.Ltmp148:
.LBB5_2:
	@DEBUG_VALUE: mbedtls_x509_write_sig:p <- $r5
	@DEBUG_VALUE: mbedtls_x509_write_sig:sig <- [DW_OP_plus_uconst 40] [$sp+0]
	@DEBUG_VALUE: mbedtls_x509_write_sig:size <- [DW_OP_plus_uconst 44] [$sp+0]
	.loc	1 351 1 is_stmt 1               @ ../../../ThirdParty/mbedTLS/library/x509_create.c:351:1
	add	sp, #20
.Ltmp149:
	pop	{r4, r5, r6, r7, pc}
.Ltmp150:
.LBB5_3:
	@DEBUG_VALUE: mbedtls_x509_write_sig:oid <- [DW_OP_plus_uconst 16] [$sp+0]
	@DEBUG_VALUE: mbedtls_x509_write_sig:start <- $r7
	@DEBUG_VALUE: mbedtls_x509_write_sig:p <- $r5
	@DEBUG_VALUE: mbedtls_x509_write_sig:oid_len <- $r3
	@DEBUG_VALUE: mbedtls_x509_write_sig:sig <- [DW_OP_plus_uconst 40] [$sp+0]
	@DEBUG_VALUE: mbedtls_x509_write_sig:size <- [DW_OP_plus_uconst 44] [$sp+0]
	@DEBUG_VALUE: mbedtls_x509_write_sig:len <- 0
	.loc	1 0 1 is_stmt 0                 @ ../../../ThirdParty/mbedTLS/library/x509_create.c:0:1
	str	r3, [sp, #8]                    @ 4-byte Spill
.Ltmp151:
	@DEBUG_VALUE: mbedtls_x509_write_sig:oid_len <- [DW_OP_plus_uconst 8] [$sp+0]
	str	r0, [sp, #12]                   @ 4-byte Spill
	ldr	r1, [sp, #40]
.Ltmp152:
	@DEBUG_VALUE: mbedtls_x509_write_sig:len <- $r2
	.loc	1 333 10 is_stmt 1              @ ../../../ThirdParty/mbedTLS/library/x509_create.c:333:10
	subs	r0, r6, r2
	str	r0, [r5]
	mov	r6, r2
.Ltmp153:
	@DEBUG_VALUE: mbedtls_x509_write_sig:len <- $r6
	.loc	1 334 5                         @ ../../../ThirdParty/mbedTLS/library/x509_create.c:334:5
	bl	__aeabi_memcpy
.Ltmp154:
	.loc	1 336 9                         @ ../../../ThirdParty/mbedTLS/library/x509_create.c:336:9
	ldr	r0, [r5]
	.loc	1 336 12 is_stmt 0              @ ../../../ThirdParty/mbedTLS/library/x509_create.c:336:12
	subs	r1, r0, r7
.Ltmp155:
	.loc	1 336 9                         @ ../../../ThirdParty/mbedTLS/library/x509_create.c:336:9
	cmp	r1, #1
	blt	.LBB5_8
.Ltmp156:
@ %bb.4:
	@DEBUG_VALUE: mbedtls_x509_write_sig:oid_len <- [DW_OP_plus_uconst 8] [$sp+0]
	@DEBUG_VALUE: mbedtls_x509_write_sig:oid <- [DW_OP_plus_uconst 16] [$sp+0]
	@DEBUG_VALUE: mbedtls_x509_write_sig:start <- $r7
	@DEBUG_VALUE: mbedtls_x509_write_sig:len <- $r6
	@DEBUG_VALUE: mbedtls_x509_write_sig:p <- $r5
	@DEBUG_VALUE: mbedtls_x509_write_sig:sig <- [DW_OP_plus_uconst 40] [$sp+0]
	@DEBUG_VALUE: mbedtls_x509_write_sig:size <- [DW_OP_plus_uconst 44] [$sp+0]
	.loc	1 339 6 is_stmt 1               @ ../../../ThirdParty/mbedTLS/library/x509_create.c:339:6
	ldr	r1, [sp, #12]                   @ 4-byte Reload
	adds	r0, r1, r0
	mov	r1, r0
	adds	r1, #107
	str	r1, [r5]
	movs	r1, #0
	str	r1, [sp, #12]                   @ 4-byte Spill
	.loc	1 339 13 is_stmt 0              @ ../../../ThirdParty/mbedTLS/library/x509_create.c:339:13
	strb	r1, [r0, r4]
	.loc	1 340 9 is_stmt 1               @ ../../../ThirdParty/mbedTLS/library/x509_create.c:340:9
	adds	r4, r6, #1
.Ltmp157:
	@DEBUG_VALUE: mbedtls_x509_write_sig:len <- $r4
	.loc	1 342 5                         @ ../../../ThirdParty/mbedTLS/library/x509_create.c:342:5
	mov	r0, r5
	mov	r1, r7
	mov	r2, r4
	bl	mbedtls_asn1_write_len
.Ltmp158:
	@DEBUG_VALUE: mbedtls_x509_write_sig:ret <- $r0
	.loc	1 342 5 is_stmt 0               @ ../../../ThirdParty/mbedTLS/library/x509_create.c:342:5
	cmp	r0, #0
	bmi	.LBB5_2
.Ltmp159:
@ %bb.5:
	@DEBUG_VALUE: mbedtls_x509_write_sig:oid_len <- [DW_OP_plus_uconst 8] [$sp+0]
	@DEBUG_VALUE: mbedtls_x509_write_sig:oid <- [DW_OP_plus_uconst 16] [$sp+0]
	@DEBUG_VALUE: mbedtls_x509_write_sig:start <- $r7
	@DEBUG_VALUE: mbedtls_x509_write_sig:p <- $r5
	@DEBUG_VALUE: mbedtls_x509_write_sig:len <- $r4
	@DEBUG_VALUE: mbedtls_x509_write_sig:ret <- $r0
	@DEBUG_VALUE: mbedtls_x509_write_sig:sig <- [DW_OP_plus_uconst 40] [$sp+0]
	@DEBUG_VALUE: mbedtls_x509_write_sig:size <- [DW_OP_plus_uconst 44] [$sp+0]
	@DEBUG_VALUE: mbedtls_x509_write_sig:len <- undef
	.loc	1 0 5                           @ ../../../ThirdParty/mbedTLS/library/x509_create.c:0:5
	str	r4, [sp, #4]                    @ 4-byte Spill
	mov	r4, r0
.Ltmp160:
	@DEBUG_VALUE: mbedtls_x509_write_sig:ret <- $r4
	movs	r2, #3
.Ltmp161:
	.loc	1 343 5 is_stmt 1               @ ../../../ThirdParty/mbedTLS/library/x509_create.c:343:5
	mov	r0, r5
	mov	r1, r7
	bl	mbedtls_asn1_write_tag
	mov	r6, r0
.Ltmp162:
	@DEBUG_VALUE: mbedtls_x509_write_sig:ret <- $r6
	.loc	1 343 5 is_stmt 0               @ ../../../ThirdParty/mbedTLS/library/x509_create.c:343:5
	cmp	r0, #0
	bmi	.LBB5_9
.Ltmp163:
@ %bb.6:
	@DEBUG_VALUE: mbedtls_x509_write_sig:oid_len <- [DW_OP_plus_uconst 8] [$sp+0]
	@DEBUG_VALUE: mbedtls_x509_write_sig:oid <- [DW_OP_plus_uconst 16] [$sp+0]
	@DEBUG_VALUE: mbedtls_x509_write_sig:start <- $r7
	@DEBUG_VALUE: mbedtls_x509_write_sig:ret <- $r6
	@DEBUG_VALUE: mbedtls_x509_write_sig:p <- $r5
	@DEBUG_VALUE: mbedtls_x509_write_sig:sig <- [DW_OP_plus_uconst 40] [$sp+0]
	@DEBUG_VALUE: mbedtls_x509_write_sig:size <- [DW_OP_plus_uconst 44] [$sp+0]
	@DEBUG_VALUE: mbedtls_x509_write_sig:len <- undef
	.loc	1 347 5 is_stmt 1               @ ../../../ThirdParty/mbedTLS/library/x509_create.c:347:5
	ldr	r0, [sp, #12]                   @ 4-byte Reload
	str	r0, [sp]
	mov	r0, r5
	mov	r1, r7
	ldr	r2, [sp, #16]                   @ 4-byte Reload
.Ltmp164:
	@DEBUG_VALUE: mbedtls_x509_write_sig:oid <- $r2
	ldr	r3, [sp, #8]                    @ 4-byte Reload
.Ltmp165:
	@DEBUG_VALUE: mbedtls_x509_write_sig:oid_len <- $r3
	bl	mbedtls_asn1_write_algorithm_identifier
.Ltmp166:
	@DEBUG_VALUE: mbedtls_x509_write_sig:oid_len <- [DW_OP_LLVM_entry_value 1] $r3
	@DEBUG_VALUE: mbedtls_x509_write_sig:oid <- [DW_OP_LLVM_entry_value 1] $r2
	@DEBUG_VALUE: mbedtls_x509_write_sig:ret <- $r0
	.loc	1 347 5 is_stmt 0               @ ../../../ThirdParty/mbedTLS/library/x509_create.c:347:5
	cmp	r0, #0
	bmi	.LBB5_2
.Ltmp167:
@ %bb.7:
	@DEBUG_VALUE: mbedtls_x509_write_sig:start <- $r7
	@DEBUG_VALUE: mbedtls_x509_write_sig:p <- $r5
	@DEBUG_VALUE: mbedtls_x509_write_sig:ret <- $r0
	@DEBUG_VALUE: mbedtls_x509_write_sig:sig <- [DW_OP_plus_uconst 40] [$sp+0]
	@DEBUG_VALUE: mbedtls_x509_write_sig:size <- [DW_OP_plus_uconst 44] [$sp+0]
	@DEBUG_VALUE: mbedtls_x509_write_sig:oid_len <- [DW_OP_LLVM_entry_value 1] $r3
	@DEBUG_VALUE: mbedtls_x509_write_sig:oid <- [DW_OP_LLVM_entry_value 1] $r2
	.loc	1 342 5 is_stmt 1               @ ../../../ThirdParty/mbedTLS/library/x509_create.c:342:5
	ldr	r1, [sp, #4]                    @ 4-byte Reload
	adds	r1, r4, r1
.Ltmp168:
	@DEBUG_VALUE: mbedtls_x509_write_sig:len <- $r1
	.loc	1 343 5                         @ ../../../ThirdParty/mbedTLS/library/x509_create.c:343:5
	adds	r1, r1, r6
.Ltmp169:
	@DEBUG_VALUE: mbedtls_x509_write_sig:len <- $r1
	.loc	1 347 5                         @ ../../../ThirdParty/mbedTLS/library/x509_create.c:347:5
	adds	r0, r1, r0
.Ltmp170:
	@DEBUG_VALUE: mbedtls_x509_write_sig:len <- $r0
	.loc	1 351 1                         @ ../../../ThirdParty/mbedTLS/library/x509_create.c:351:1
	add	sp, #20
.Ltmp171:
	pop	{r4, r5, r6, r7, pc}
.Ltmp172:
.LBB5_8:
	@DEBUG_VALUE: mbedtls_x509_write_sig:oid_len <- [DW_OP_plus_uconst 8] [$sp+0]
	@DEBUG_VALUE: mbedtls_x509_write_sig:oid <- [DW_OP_plus_uconst 16] [$sp+0]
	@DEBUG_VALUE: mbedtls_x509_write_sig:start <- $r7
	@DEBUG_VALUE: mbedtls_x509_write_sig:len <- $r6
	@DEBUG_VALUE: mbedtls_x509_write_sig:p <- $r5
	@DEBUG_VALUE: mbedtls_x509_write_sig:sig <- [DW_OP_plus_uconst 40] [$sp+0]
	@DEBUG_VALUE: mbedtls_x509_write_sig:size <- [DW_OP_plus_uconst 44] [$sp+0]
	.loc	1 0 1 is_stmt 0                 @ ../../../ThirdParty/mbedTLS/library/x509_create.c:0:1
	ldr	r0, [sp, #12]                   @ 4-byte Reload
	.loc	1 351 1                         @ ../../../ThirdParty/mbedTLS/library/x509_create.c:351:1
	add	sp, #20
.Ltmp173:
	pop	{r4, r5, r6, r7, pc}
.Ltmp174:
.LBB5_9:
	@DEBUG_VALUE: mbedtls_x509_write_sig:oid_len <- [DW_OP_plus_uconst 8] [$sp+0]
	@DEBUG_VALUE: mbedtls_x509_write_sig:oid <- [DW_OP_plus_uconst 16] [$sp+0]
	@DEBUG_VALUE: mbedtls_x509_write_sig:start <- $r7
	@DEBUG_VALUE: mbedtls_x509_write_sig:ret <- $r6
	@DEBUG_VALUE: mbedtls_x509_write_sig:p <- $r5
	@DEBUG_VALUE: mbedtls_x509_write_sig:sig <- [DW_OP_plus_uconst 40] [$sp+0]
	@DEBUG_VALUE: mbedtls_x509_write_sig:size <- [DW_OP_plus_uconst 44] [$sp+0]
	.loc	1 0 0                           @ ../../../ThirdParty/mbedTLS/library/x509_create.c:0:0
	mov	r0, r6
	.loc	1 351 1                         @ ../../../ThirdParty/mbedTLS/library/x509_create.c:351:1
	add	sp, #20
.Ltmp175:
	pop	{r4, r5, r6, r7, pc}
.Ltmp176:
.Lfunc_end5:
	.size	mbedtls_x509_write_sig, .Lfunc_end5-mbedtls_x509_write_sig
	.cfi_endproc
	.cantunwind
	.fnend
                                        @ -- End function
	.section	.text.mbedtls_x509_write_extensions,"ax",%progbits
	.hidden	mbedtls_x509_write_extensions   @ -- Begin function mbedtls_x509_write_extensions
	.globl	mbedtls_x509_write_extensions
	.p2align	1
	.type	mbedtls_x509_write_extensions,%function
	.code	16                              @ @mbedtls_x509_write_extensions
	.thumb_func
mbedtls_x509_write_extensions:
.Lfunc_begin6:
	.loc	1 393 0 is_stmt 1               @ ../../../ThirdParty/mbedTLS/library/x509_create.c:393:0
	.fnstart
	.cfi_startproc
@ %bb.0:
	@DEBUG_VALUE: mbedtls_x509_write_extensions:p <- $r0
	@DEBUG_VALUE: mbedtls_x509_write_extensions:start <- $r1
	@DEBUG_VALUE: mbedtls_x509_write_extensions:first <- $r2
	@DEBUG_VALUE: mbedtls_x509_write_extensions:first <- $r2
	@DEBUG_VALUE: mbedtls_x509_write_extensions:start <- $r1
	@DEBUG_VALUE: mbedtls_x509_write_extensions:p <- $r0
	.save	{r4, r5, r6, r7, lr}
	push	{r4, r5, r6, r7, lr}
	.cfi_def_cfa_offset 20
	.cfi_offset lr, -4
	.cfi_offset r7, -8
	.cfi_offset r6, -12
	.cfi_offset r5, -16
	.cfi_offset r4, -20
	.pad	#4
	sub	sp, #4
	.cfi_def_cfa_offset 24
.Ltmp177:
	@DEBUG_VALUE: mbedtls_x509_write_extensions:cur_ext <- $r2
	@DEBUG_VALUE: mbedtls_x509_write_extensions:len <- 0
	@DEBUG_VALUE: mbedtls_x509_write_extensions:cur_ext <- $r2
	.loc	1 398 5 prologue_end            @ ../../../ThirdParty/mbedTLS/library/x509_create.c:398:5
	cbz	r2, .LBB6_4
.Ltmp178:
@ %bb.1:
	@DEBUG_VALUE: mbedtls_x509_write_extensions:cur_ext <- $r2
	@DEBUG_VALUE: mbedtls_x509_write_extensions:first <- $r2
	@DEBUG_VALUE: mbedtls_x509_write_extensions:start <- $r1
	@DEBUG_VALUE: mbedtls_x509_write_extensions:p <- $r0
	@DEBUG_VALUE: mbedtls_x509_write_extensions:len <- 0
	.loc	1 0 5 is_stmt 0                 @ ../../../ThirdParty/mbedTLS/library/x509_create.c:0:5
	mov	r5, r2
.Ltmp179:
	@DEBUG_VALUE: mbedtls_x509_write_extensions:first <- $r5
	@DEBUG_VALUE: mbedtls_x509_write_extensions:cur_ext <- $r5
	mov	r6, r1
.Ltmp180:
	@DEBUG_VALUE: mbedtls_x509_write_extensions:start <- $r6
	mov	r7, r0
.Ltmp181:
	@DEBUG_VALUE: mbedtls_x509_write_extensions:p <- $r7
	movs	r4, #0
.Ltmp182:
.LBB6_2:                                @ =>This Inner Loop Header: Depth=1
	@DEBUG_VALUE: mbedtls_x509_write_extensions:p <- $r7
	@DEBUG_VALUE: mbedtls_x509_write_extensions:start <- $r6
	@DEBUG_VALUE: mbedtls_x509_write_extensions:cur_ext <- $r5
	@DEBUG_VALUE: mbedtls_x509_write_extensions:cur_ext <- $r5
	@DEBUG_VALUE: mbedtls_x509_write_extensions:len <- $r4
	.loc	1 400 9 is_stmt 1               @ ../../../ThirdParty/mbedTLS/library/x509_create.c:400:9
	mov	r0, r7
	mov	r1, r6
	mov	r2, r5
	bl	x509_write_extension
.Ltmp183:
	@DEBUG_VALUE: mbedtls_x509_write_extensions:ret <- $r0
	.loc	1 400 9 is_stmt 0               @ ../../../ThirdParty/mbedTLS/library/x509_create.c:400:9
	cmp	r0, #0
	bmi	.LBB6_5
.Ltmp184:
@ %bb.3:                                @   in Loop: Header=BB6_2 Depth=1
	@DEBUG_VALUE: mbedtls_x509_write_extensions:p <- $r7
	@DEBUG_VALUE: mbedtls_x509_write_extensions:start <- $r6
	@DEBUG_VALUE: mbedtls_x509_write_extensions:cur_ext <- $r5
	@DEBUG_VALUE: mbedtls_x509_write_extensions:len <- $r4
	@DEBUG_VALUE: mbedtls_x509_write_extensions:ret <- $r0
	.loc	1 400 9                         @ ../../../ThirdParty/mbedTLS/library/x509_create.c:400:9
	adds	r4, r0, r4
.Ltmp185:
	@DEBUG_VALUE: mbedtls_x509_write_extensions:len <- $r4
	.loc	1 401 28 is_stmt 1              @ ../../../ThirdParty/mbedTLS/library/x509_create.c:401:28
	ldr	r5, [r5, #24]
.Ltmp186:
	@DEBUG_VALUE: mbedtls_x509_write_extensions:first <- [DW_OP_LLVM_entry_value 1] $r2
	@DEBUG_VALUE: mbedtls_x509_write_extensions:cur_ext <- $r5
	.loc	1 398 5                         @ ../../../ThirdParty/mbedTLS/library/x509_create.c:398:5
	cmp	r5, #0
	bne	.LBB6_2
	b	.LBB6_6
.Ltmp187:
.LBB6_4:
	@DEBUG_VALUE: mbedtls_x509_write_extensions:cur_ext <- $r2
	@DEBUG_VALUE: mbedtls_x509_write_extensions:first <- $r2
	@DEBUG_VALUE: mbedtls_x509_write_extensions:start <- $r1
	@DEBUG_VALUE: mbedtls_x509_write_extensions:p <- $r0
	@DEBUG_VALUE: mbedtls_x509_write_extensions:len <- 0
	.loc	1 0 5 is_stmt 0                 @ ../../../ThirdParty/mbedTLS/library/x509_create.c:0:5
	movs	r4, #0
	b	.LBB6_6
.Ltmp188:
.LBB6_5:
	@DEBUG_VALUE: mbedtls_x509_write_extensions:p <- $r7
	@DEBUG_VALUE: mbedtls_x509_write_extensions:start <- $r6
	@DEBUG_VALUE: mbedtls_x509_write_extensions:cur_ext <- $r5
	@DEBUG_VALUE: mbedtls_x509_write_extensions:len <- $r4
	@DEBUG_VALUE: mbedtls_x509_write_extensions:ret <- $r0
	mov	r4, r0
.Ltmp189:
	@DEBUG_VALUE: mbedtls_x509_write_extensions:ret <- $r4
	@DEBUG_VALUE: mbedtls_x509_write_extensions:ret <- $r4
.LBB6_6:
	.loc	1 405 1 is_stmt 1               @ ../../../ThirdParty/mbedTLS/library/x509_create.c:405:1
	mov	r0, r4
	add	sp, #4
	pop	{r4, r5, r6, r7, pc}
.Ltmp190:
.Lfunc_end6:
	.size	mbedtls_x509_write_extensions, .Lfunc_end6-mbedtls_x509_write_extensions
	.cfi_endproc
	.cantunwind
	.fnend
                                        @ -- End function
	.section	.text.x509_write_extension,"ax",%progbits
	.p2align	1                               @ -- Begin function x509_write_extension
	.type	x509_write_extension,%function
	.code	16                              @ @x509_write_extension
	.thumb_func
x509_write_extension:
.Lfunc_begin7:
	.loc	1 355 0                         @ ../../../ThirdParty/mbedTLS/library/x509_create.c:355:0
	.fnstart
	.cfi_startproc
@ %bb.0:
	@DEBUG_VALUE: x509_write_extension:p <- $r0
	@DEBUG_VALUE: x509_write_extension:start <- $r1
	@DEBUG_VALUE: x509_write_extension:ext <- $r2
	.save	{r4, r5, r6, r7, lr}
	push	{r4, r5, r6, r7, lr}
	.cfi_def_cfa_offset 20
	.cfi_offset lr, -4
	.cfi_offset r7, -8
	.cfi_offset r6, -12
	.cfi_offset r5, -16
	.cfi_offset r4, -20
	.pad	#12
	sub	sp, #12
	.cfi_def_cfa_offset 32
	mov	r7, r2
	mov	r6, r1
	mov	r5, r0
.Ltmp191:
	@DEBUG_VALUE: x509_write_extension:len <- 0
	@DEBUG_VALUE: x509_write_extension:ext <- $r7
	@DEBUG_VALUE: x509_write_extension:start <- $r6
	@DEBUG_VALUE: x509_write_extension:p <- $r5
	.loc	1 359 5 prologue_end            @ ../../../ThirdParty/mbedTLS/library/x509_create.c:359:5
	ldr	r0, [r2, #16]
	ldr	r1, [r2, #20]
	adds	r2, r1, #1
	subs	r3, r0, #1
	mov	r0, r5
	mov	r1, r6
	bl	mbedtls_asn1_write_raw_buffer
	mov	r4, r0
.Ltmp192:
	@DEBUG_VALUE: x509_write_extension:ret <- $r4
	.loc	1 359 5 is_stmt 0               @ ../../../ThirdParty/mbedTLS/library/x509_create.c:359:5
	cmp	r0, #0
	bmi	.LBB7_17
.Ltmp193:
@ %bb.1:
	@DEBUG_VALUE: x509_write_extension:ext <- $r7
	@DEBUG_VALUE: x509_write_extension:start <- $r6
	@DEBUG_VALUE: x509_write_extension:p <- $r5
	@DEBUG_VALUE: x509_write_extension:ret <- $r4
	@DEBUG_VALUE: x509_write_extension:len <- 0
	@DEBUG_VALUE: x509_write_extension:len <- $r4
	.loc	1 361 5 is_stmt 1               @ ../../../ThirdParty/mbedTLS/library/x509_create.c:361:5
	ldr	r0, [r7, #16]
	subs	r2, r0, #1
	mov	r0, r5
	mov	r1, r6
	bl	mbedtls_asn1_write_len
	mov	r1, r6
	mov	r6, r0
.Ltmp194:
	@DEBUG_VALUE: x509_write_extension:ret <- $r6
	.loc	1 361 5 is_stmt 0               @ ../../../ThirdParty/mbedTLS/library/x509_create.c:361:5
	cmp	r0, #0
	bmi	.LBB7_12
.Ltmp195:
@ %bb.2:
	@DEBUG_VALUE: x509_write_extension:ext <- $r7
	@DEBUG_VALUE: x509_write_extension:ret <- $r6
	@DEBUG_VALUE: x509_write_extension:p <- $r5
	@DEBUG_VALUE: x509_write_extension:len <- $r4
	@DEBUG_VALUE: x509_write_extension:len <- undef
	.loc	1 0 5                           @ ../../../ThirdParty/mbedTLS/library/x509_create.c:0:5
	movs	r2, #4
.Ltmp196:
	.loc	1 362 5 is_stmt 1               @ ../../../ThirdParty/mbedTLS/library/x509_create.c:362:5
	mov	r0, r5
	str	r1, [sp, #8]                    @ 4-byte Spill
	bl	mbedtls_asn1_write_tag
.Ltmp197:
	@DEBUG_VALUE: x509_write_extension:ret <- $r0
	.loc	1 362 5 is_stmt 0               @ ../../../ThirdParty/mbedTLS/library/x509_create.c:362:5
	cmp	r0, #0
	bmi	.LBB7_13
.Ltmp198:
@ %bb.3:
	@DEBUG_VALUE: x509_write_extension:ext <- $r7
	@DEBUG_VALUE: x509_write_extension:p <- $r5
	@DEBUG_VALUE: x509_write_extension:ret <- $r0
	.loc	1 361 5 is_stmt 1               @ ../../../ThirdParty/mbedTLS/library/x509_create.c:361:5
	adds	r1, r6, r4
.Ltmp199:
	@DEBUG_VALUE: x509_write_extension:len <- $r1
	.loc	1 362 5                         @ ../../../ThirdParty/mbedTLS/library/x509_create.c:362:5
	adds	r6, r1, r0
.Ltmp200:
	@DEBUG_VALUE: x509_write_extension:len <- $r6
	.loc	1 364 18                        @ ../../../ThirdParty/mbedTLS/library/x509_create.c:364:18
	ldr	r0, [r7, #20]
.Ltmp201:
	.loc	1 364 9 is_stmt 0               @ ../../../ThirdParty/mbedTLS/library/x509_create.c:364:9
	ldrb	r0, [r0]
.Ltmp202:
	.loc	1 364 9                         @ ../../../ThirdParty/mbedTLS/library/x509_create.c:364:9
	cbz	r0, .LBB7_6
.Ltmp203:
@ %bb.4:
	@DEBUG_VALUE: x509_write_extension:ext <- $r7
	@DEBUG_VALUE: x509_write_extension:len <- $r6
	@DEBUG_VALUE: x509_write_extension:p <- $r5
	.loc	1 0 9                           @ ../../../ThirdParty/mbedTLS/library/x509_create.c:0:9
	movs	r2, #1
.Ltmp204:
	.loc	1 366 9 is_stmt 1               @ ../../../ThirdParty/mbedTLS/library/x509_create.c:366:9
	mov	r0, r5
	ldr	r1, [sp, #8]                    @ 4-byte Reload
	bl	mbedtls_asn1_write_bool
	mov	r4, r0
.Ltmp205:
	@DEBUG_VALUE: x509_write_extension:ret <- $r4
	.loc	1 366 9 is_stmt 0               @ ../../../ThirdParty/mbedTLS/library/x509_create.c:366:9
	cmp	r0, #0
	bmi	.LBB7_17
.Ltmp206:
@ %bb.5:
	@DEBUG_VALUE: x509_write_extension:ext <- $r7
	@DEBUG_VALUE: x509_write_extension:len <- $r6
	@DEBUG_VALUE: x509_write_extension:p <- $r5
	@DEBUG_VALUE: x509_write_extension:ret <- $r4
	.loc	1 366 9                         @ ../../../ThirdParty/mbedTLS/library/x509_create.c:366:9
	adds	r6, r4, r6
.Ltmp207:
	@DEBUG_VALUE: x509_write_extension:len <- $r6
.LBB7_6:
	@DEBUG_VALUE: x509_write_extension:ext <- $r7
	@DEBUG_VALUE: x509_write_extension:len <- $r6
	@DEBUG_VALUE: x509_write_extension:p <- $r5
	.loc	1 0 9                           @ ../../../ThirdParty/mbedTLS/library/x509_create.c:0:9
	str	r6, [sp, #4]                    @ 4-byte Spill
.Ltmp208:
	@DEBUG_VALUE: x509_write_extension:len <- [DW_OP_plus_uconst 4] [$sp+0]
	@DEBUG_VALUE: x509_write_extension:len <- [DW_OP_plus_uconst 4] [$sp+0]
	.loc	1 369 5 is_stmt 1               @ ../../../ThirdParty/mbedTLS/library/x509_create.c:369:5
	ldr	r3, [r7, #4]
	ldr	r2, [r7, #8]
	mov	r0, r5
	ldr	r6, [sp, #8]                    @ 4-byte Reload
	mov	r1, r6
	bl	mbedtls_asn1_write_raw_buffer
	mov	r4, r0
.Ltmp209:
	@DEBUG_VALUE: x509_write_extension:ret <- $r4
	.loc	1 369 5 is_stmt 0               @ ../../../ThirdParty/mbedTLS/library/x509_create.c:369:5
	cmp	r0, #0
	bmi	.LBB7_17
.Ltmp210:
@ %bb.7:
	@DEBUG_VALUE: x509_write_extension:ext <- $r7
	@DEBUG_VALUE: x509_write_extension:p <- $r5
	@DEBUG_VALUE: x509_write_extension:ret <- $r4
	@DEBUG_VALUE: x509_write_extension:len <- [DW_OP_plus_uconst 4] [$sp+0]
	@DEBUG_VALUE: x509_write_extension:len <- undef
	.loc	1 371 5 is_stmt 1               @ ../../../ThirdParty/mbedTLS/library/x509_create.c:371:5
	ldr	r2, [r7, #4]
	mov	r0, r5
	mov	r1, r6
	bl	mbedtls_asn1_write_len
	mov	r7, r0
.Ltmp211:
	@DEBUG_VALUE: x509_write_extension:ret <- $r7
	.loc	1 371 5 is_stmt 0               @ ../../../ThirdParty/mbedTLS/library/x509_create.c:371:5
	cmp	r0, #0
	bmi	.LBB7_14
.Ltmp212:
@ %bb.8:
	@DEBUG_VALUE: x509_write_extension:ret <- $r7
	@DEBUG_VALUE: x509_write_extension:p <- $r5
	@DEBUG_VALUE: x509_write_extension:len <- undef
	.loc	1 0 5                           @ ../../../ThirdParty/mbedTLS/library/x509_create.c:0:5
	movs	r2, #6
.Ltmp213:
	.loc	1 372 5 is_stmt 1               @ ../../../ThirdParty/mbedTLS/library/x509_create.c:372:5
	mov	r0, r5
	mov	r1, r6
	bl	mbedtls_asn1_write_tag
.Ltmp214:
	@DEBUG_VALUE: x509_write_extension:ret <- $r0
	.loc	1 372 5 is_stmt 0               @ ../../../ThirdParty/mbedTLS/library/x509_create.c:372:5
	cmp	r0, #0
	bmi	.LBB7_15
.Ltmp215:
@ %bb.9:
	@DEBUG_VALUE: x509_write_extension:p <- $r5
	@DEBUG_VALUE: x509_write_extension:ret <- $r0
	.loc	1 369 5 is_stmt 1               @ ../../../ThirdParty/mbedTLS/library/x509_create.c:369:5
	ldr	r1, [sp, #4]                    @ 4-byte Reload
	adds	r1, r4, r1
.Ltmp216:
	@DEBUG_VALUE: x509_write_extension:len <- $r1
	.loc	1 371 5                         @ ../../../ThirdParty/mbedTLS/library/x509_create.c:371:5
	adds	r1, r1, r7
.Ltmp217:
	@DEBUG_VALUE: x509_write_extension:len <- $r1
	.loc	1 372 5                         @ ../../../ThirdParty/mbedTLS/library/x509_create.c:372:5
	adds	r7, r1, r0
.Ltmp218:
	@DEBUG_VALUE: x509_write_extension:len <- $r7
	.loc	1 374 5                         @ ../../../ThirdParty/mbedTLS/library/x509_create.c:374:5
	mov	r0, r5
.Ltmp219:
	mov	r1, r6
	mov	r2, r7
	bl	mbedtls_asn1_write_len
	mov	r4, r0
.Ltmp220:
	@DEBUG_VALUE: x509_write_extension:ret <- $r4
	.loc	1 374 5 is_stmt 0               @ ../../../ThirdParty/mbedTLS/library/x509_create.c:374:5
	cmp	r0, #0
	bmi	.LBB7_17
.Ltmp221:
@ %bb.10:
	@DEBUG_VALUE: x509_write_extension:len <- $r7
	@DEBUG_VALUE: x509_write_extension:p <- $r5
	@DEBUG_VALUE: x509_write_extension:ret <- $r4
	@DEBUG_VALUE: x509_write_extension:len <- undef
	.loc	1 0 5                           @ ../../../ThirdParty/mbedTLS/library/x509_create.c:0:5
	movs	r2, #48
.Ltmp222:
	.loc	1 375 5 is_stmt 1               @ ../../../ThirdParty/mbedTLS/library/x509_create.c:375:5
	mov	r0, r5
	mov	r1, r6
	bl	mbedtls_asn1_write_tag
.Ltmp223:
	@DEBUG_VALUE: x509_write_extension:ret <- $r0
	.loc	1 375 5 is_stmt 0               @ ../../../ThirdParty/mbedTLS/library/x509_create.c:375:5
	cmp	r0, #0
	bmi	.LBB7_16
.Ltmp224:
@ %bb.11:
	@DEBUG_VALUE: x509_write_extension:p <- $r5
	@DEBUG_VALUE: x509_write_extension:ret <- $r0
	.loc	1 374 5 is_stmt 1               @ ../../../ThirdParty/mbedTLS/library/x509_create.c:374:5
	adds	r1, r4, r7
.Ltmp225:
	@DEBUG_VALUE: x509_write_extension:len <- $r1
	.loc	1 375 5                         @ ../../../ThirdParty/mbedTLS/library/x509_create.c:375:5
	adds	r4, r1, r0
.Ltmp226:
	@DEBUG_VALUE: x509_write_extension:len <- $r4
	.loc	1 0 5 is_stmt 0                 @ ../../../ThirdParty/mbedTLS/library/x509_create.c:0:5
	b	.LBB7_17
.Ltmp227:
.LBB7_12:
	@DEBUG_VALUE: x509_write_extension:ext <- $r7
	@DEBUG_VALUE: x509_write_extension:ret <- $r6
	@DEBUG_VALUE: x509_write_extension:p <- $r5
	@DEBUG_VALUE: x509_write_extension:len <- $r4
	mov	r4, r6
.Ltmp228:
	@DEBUG_VALUE: x509_write_extension:ret <- $r4
	b	.LBB7_17
.Ltmp229:
.LBB7_13:
	@DEBUG_VALUE: x509_write_extension:ext <- $r7
	@DEBUG_VALUE: x509_write_extension:p <- $r5
	@DEBUG_VALUE: x509_write_extension:ret <- $r0
	mov	r4, r0
.Ltmp230:
	@DEBUG_VALUE: x509_write_extension:ret <- $r4
	b	.LBB7_17
.Ltmp231:
.LBB7_14:
	@DEBUG_VALUE: x509_write_extension:ret <- $r7
	@DEBUG_VALUE: x509_write_extension:p <- $r5
	mov	r4, r7
.Ltmp232:
	@DEBUG_VALUE: x509_write_extension:ret <- $r4
	b	.LBB7_17
.Ltmp233:
.LBB7_15:
	@DEBUG_VALUE: x509_write_extension:p <- $r5
	@DEBUG_VALUE: x509_write_extension:ret <- $r0
	mov	r4, r0
.Ltmp234:
	@DEBUG_VALUE: x509_write_extension:ret <- $r4
	b	.LBB7_17
.Ltmp235:
.LBB7_16:
	@DEBUG_VALUE: x509_write_extension:p <- $r5
	@DEBUG_VALUE: x509_write_extension:ret <- $r0
	mov	r4, r0
.Ltmp236:
	@DEBUG_VALUE: x509_write_extension:ret <- $r4
.LBB7_17:
	@DEBUG_VALUE: x509_write_extension:p <- $r5
	.loc	1 379 1 is_stmt 1               @ ../../../ThirdParty/mbedTLS/library/x509_create.c:379:1
	mov	r0, r4
	add	sp, #12
	pop	{r4, r5, r6, r7, pc}
.Ltmp237:
.Lfunc_end7:
	.size	x509_write_extension, .Lfunc_end7-x509_write_extension
	.cfi_endproc
	.cantunwind
	.fnend
                                        @ -- End function
	.type	x509_attrs,%object              @ @x509_attrs
	.section	.rodata.x509_attrs,"a",%progbits
	.p2align	2
x509_attrs:
	.long	.L.str
	.long	2                               @ 0x2
	.long	.L.str.1
	.long	12                              @ 0xc
	.long	.L.str.2
	.long	10                              @ 0xa
	.long	.L.str.1
	.long	12                              @ 0xc
	.long	.L.str.3
	.long	1                               @ 0x1
	.long	.L.str.4
	.long	19                              @ 0x13
	.long	.L.str.5
	.long	11                              @ 0xb
	.long	.L.str.4
	.long	19                              @ 0x13
	.long	.L.str.6
	.long	1                               @ 0x1
	.long	.L.str.7
	.long	12                              @ 0xc
	.long	.L.str.8
	.long	16                              @ 0x10
	.long	.L.str.7
	.long	12                              @ 0xc
	.long	.L.str.9
	.long	1                               @ 0x1
	.long	.L.str.10
	.long	12                              @ 0xc
	.long	.L.str.11
	.long	8                               @ 0x8
	.long	.L.str.10
	.long	12                              @ 0xc
	.long	.L.str.12
	.long	1                               @ 0x1
	.long	.L.str.13
	.long	22                              @ 0x16
	.long	.L.str.14
	.long	2                               @ 0x2
	.long	.L.str.15
	.long	12                              @ 0xc
	.long	.L.str.16
	.long	22                              @ 0x16
	.long	.L.str.15
	.long	12                              @ 0xc
	.long	.L.str.17
	.long	2                               @ 0x2
	.long	.L.str.18
	.long	12                              @ 0xc
	.long	.L.str.19
	.long	19                              @ 0x13
	.long	.L.str.18
	.long	12                              @ 0xc
	.long	.L.str.20
	.long	12                              @ 0xc
	.long	.L.str.13
	.long	22                              @ 0x16
	.long	.L.str.21
	.long	12                              @ 0xc
	.long	.L.str.22
	.long	19                              @ 0x13
	.long	.L.str.23
	.long	13                              @ 0xd
	.long	.L.str.24
	.long	19                              @ 0x13
	.long	.L.str.25
	.long	10                              @ 0xa
	.long	.L.str.26
	.long	19                              @ 0x13
	.long	.L.str.27
	.long	11                              @ 0xb
	.long	.L.str.28
	.long	19                              @ 0x13
	.long	.L.str.29
	.long	5                               @ 0x5
	.long	.L.str.30
	.long	12                              @ 0xc
	.long	.L.str.31
	.long	7                               @ 0x7
	.long	.L.str.32
	.long	12                              @ 0xc
	.long	.L.str.33
	.long	2                               @ 0x2
	.long	.L.str.32
	.long	12                              @ 0xc
	.long	.L.str.34
	.long	9                               @ 0x9
	.long	.L.str.35
	.long	12                              @ 0xc
	.long	.L.str.36
	.long	2                               @ 0x2
	.long	.L.str.35
	.long	12                              @ 0xc
	.long	.L.str.37
	.long	8                               @ 0x8
	.long	.L.str.38
	.long	12                              @ 0xc
	.long	.L.str.39
	.long	9                               @ 0x9
	.long	.L.str.40
	.long	12                              @ 0xc
	.long	.L.str.41
	.long	19                              @ 0x13
	.long	.L.str.42
	.long	12                              @ 0xc
	.long	.L.str.43
	.long	15                              @ 0xf
	.long	.L.str.44
	.long	22                              @ 0x16
	.long	.L.str.45
	.long	2                               @ 0x2
	.long	.L.str.44
	.long	22                              @ 0x16
	.long	0
	.long	0                               @ 0x0
	.long	0
	.long	5                               @ 0x5
	.size	x509_attrs, 464

	.type	.L.str,%object                  @ @.str
	.section	.rodata.str1.1,"aMS",%progbits,1
.L.str:
	.asciz	"CN"
	.size	.L.str, 3

	.type	.L.str.1,%object                @ @.str.1
.L.str.1:
	.asciz	"U\004\003"
	.size	.L.str.1, 4

	.type	.L.str.2,%object                @ @.str.2
.L.str.2:
	.asciz	"commonName"
	.size	.L.str.2, 11

	.type	.L.str.3,%object                @ @.str.3
.L.str.3:
	.asciz	"C"
	.size	.L.str.3, 2

	.type	.L.str.4,%object                @ @.str.4
.L.str.4:
	.asciz	"U\004\006"
	.size	.L.str.4, 4

	.type	.L.str.5,%object                @ @.str.5
.L.str.5:
	.asciz	"countryName"
	.size	.L.str.5, 12

	.type	.L.str.6,%object                @ @.str.6
.L.str.6:
	.asciz	"O"
	.size	.L.str.6, 2

	.type	.L.str.7,%object                @ @.str.7
.L.str.7:
	.asciz	"U\004\n"
	.size	.L.str.7, 4

	.type	.L.str.8,%object                @ @.str.8
.L.str.8:
	.asciz	"organizationName"
	.size	.L.str.8, 17

	.type	.L.str.9,%object                @ @.str.9
.L.str.9:
	.asciz	"L"
	.size	.L.str.9, 2

	.type	.L.str.10,%object               @ @.str.10
.L.str.10:
	.asciz	"U\004\007"
	.size	.L.str.10, 4

	.type	.L.str.11,%object               @ @.str.11
.L.str.11:
	.asciz	"locality"
	.size	.L.str.11, 9

	.type	.L.str.12,%object               @ @.str.12
.L.str.12:
	.asciz	"R"
	.size	.L.str.12, 2

	.type	.L.str.13,%object               @ @.str.13
.L.str.13:
	.asciz	"*\206H\206\367\r\001\t\001"
	.size	.L.str.13, 10

	.type	.L.str.14,%object               @ @.str.14
.L.str.14:
	.asciz	"OU"
	.size	.L.str.14, 3

	.type	.L.str.15,%object               @ @.str.15
.L.str.15:
	.asciz	"U\004\013"
	.size	.L.str.15, 4

	.type	.L.str.16,%object               @ @.str.16
.L.str.16:
	.asciz	"organizationalUnitName"
	.size	.L.str.16, 23

	.type	.L.str.17,%object               @ @.str.17
.L.str.17:
	.asciz	"ST"
	.size	.L.str.17, 3

	.type	.L.str.18,%object               @ @.str.18
.L.str.18:
	.asciz	"U\004\b"
	.size	.L.str.18, 4

	.type	.L.str.19,%object               @ @.str.19
.L.str.19:
	.asciz	"stateOrProvinceName"
	.size	.L.str.19, 20

	.type	.L.str.20,%object               @ @.str.20
.L.str.20:
	.asciz	"emailAddress"
	.size	.L.str.20, 13

	.type	.L.str.21,%object               @ @.str.21
.L.str.21:
	.asciz	"serialNumber"
	.size	.L.str.21, 13

	.type	.L.str.22,%object               @ @.str.22
.L.str.22:
	.asciz	"U\004\005"
	.size	.L.str.22, 4

	.type	.L.str.23,%object               @ @.str.23
.L.str.23:
	.asciz	"postalAddress"
	.size	.L.str.23, 14

	.type	.L.str.24,%object               @ @.str.24
.L.str.24:
	.asciz	"U\004\020"
	.size	.L.str.24, 4

	.type	.L.str.25,%object               @ @.str.25
.L.str.25:
	.asciz	"postalCode"
	.size	.L.str.25, 11

	.type	.L.str.26,%object               @ @.str.26
.L.str.26:
	.asciz	"U\004\021"
	.size	.L.str.26, 4

	.type	.L.str.27,%object               @ @.str.27
.L.str.27:
	.asciz	"dnQualifier"
	.size	.L.str.27, 12

	.type	.L.str.28,%object               @ @.str.28
.L.str.28:
	.asciz	"U\004."
	.size	.L.str.28, 4

	.type	.L.str.29,%object               @ @.str.29
.L.str.29:
	.asciz	"title"
	.size	.L.str.29, 6

	.type	.L.str.30,%object               @ @.str.30
.L.str.30:
	.asciz	"U\004\f"
	.size	.L.str.30, 4

	.type	.L.str.31,%object               @ @.str.31
.L.str.31:
	.asciz	"surName"
	.size	.L.str.31, 8

	.type	.L.str.32,%object               @ @.str.32
.L.str.32:
	.asciz	"U\004\004"
	.size	.L.str.32, 4

	.type	.L.str.33,%object               @ @.str.33
.L.str.33:
	.asciz	"SN"
	.size	.L.str.33, 3

	.type	.L.str.34,%object               @ @.str.34
.L.str.34:
	.asciz	"givenName"
	.size	.L.str.34, 10

	.type	.L.str.35,%object               @ @.str.35
.L.str.35:
	.asciz	"U\004*"
	.size	.L.str.35, 4

	.type	.L.str.36,%object               @ @.str.36
.L.str.36:
	.asciz	"GN"
	.size	.L.str.36, 3

	.type	.L.str.37,%object               @ @.str.37
.L.str.37:
	.asciz	"initials"
	.size	.L.str.37, 9

	.type	.L.str.38,%object               @ @.str.38
.L.str.38:
	.asciz	"U\004+"
	.size	.L.str.38, 4

	.type	.L.str.39,%object               @ @.str.39
.L.str.39:
	.asciz	"pseudonym"
	.size	.L.str.39, 10

	.type	.L.str.40,%object               @ @.str.40
.L.str.40:
	.asciz	"U\004A"
	.size	.L.str.40, 4

	.type	.L.str.41,%object               @ @.str.41
.L.str.41:
	.asciz	"generationQualifier"
	.size	.L.str.41, 20

	.type	.L.str.42,%object               @ @.str.42
.L.str.42:
	.asciz	"U\004,"
	.size	.L.str.42, 4

	.type	.L.str.43,%object               @ @.str.43
.L.str.43:
	.asciz	"domainComponent"
	.size	.L.str.43, 16

	.type	.L.str.44,%object               @ @.str.44
.L.str.44:
	.asciz	"\t\222&\211\223\362,d\001\031"
	.size	.L.str.44, 11

	.type	.L.str.45,%object               @ @.str.45
.L.str.45:
	.asciz	"DC"
	.size	.L.str.45, 3

	.file	3 "C:\\Users\\shw26\\OneDrive\\Desktop\\2021\\2021-1\\\354\272\241\354\212\244\355\206\244\353\224\224\354\236\220\354\235\2702\\Nuvoton\\M2351_BSP_v3.00.004\\M2351Series_BSP_CMSIS_V3.00.004\\MyProject\\PulseMonitoring\\Secure" "../../../ThirdParty/mbedTLS/include/mbedtls/asn1.h"
	.section	".note.GNU-stack","",%progbits
	.eabi_attribute	30, 1	@ Tag_ABI_optimization_goals
	.ARM_attribute	16, 1	@ Tag_AV_eba