	.text
	.syntax unified
	.eabi_attribute	67, "2.09"	@ Tag_conformance
	.cpu	cortex-m23
	.eabi_attribute	6, 16	@ Tag_CPU_arch
	.eabi_attribute	7, 77	@ Tag_CPU_arch_profile
	.eabi_attribute	8, 0	@ Tag_ARM_ISA_use
	.eabi_attribute	9, 3	@ Tag_THUMB_ISA_use
	.eabi_attribute	34, 0	@ Tag_CPU_unaligned_access
	.eabi_attribute	17, 1	@ Tag_ABI_PCS_GOT_use
	.eabi_attribute	20, 2	@ Tag_ABI_FP_denormal
	.eabi_attribute	21, 0	@ Tag_ABI_FP_exceptions
	.eabi_attribute	23, 1	@ Tag_ABI_FP_number_model
	.eabi_attribute	24, 1	@ Tag_ABI_align_needed
	.eabi_attribute	25, 1	@ Tag_ABI_align_preserved
	.eabi_attribute	38, 1	@ Tag_ABI_FP_16bit_format
	.eabi_attribute	18, 2	@ Tag_ABI_PCS_wchar_t
	.eabi_attribute	26, 1	@ Tag_ABI_enum_size
	.eabi_attribute	14, 0	@ Tag_ABI_PCS_R9_use
	.file	"x509.c"
	.file	1 "C:\\Users\\shw26\\OneDrive\\Desktop\\2021\\2021-1\\\354\272\241\354\212\244\355\206\244\353\224\224\354\236\220\354\235\2702\\Nuvoton\\M2351_BSP_v3.00.004\\M2351Series_BSP_CMSIS_V3.00.004\\MyProject\\PulseMonitoring\\Secure" "../../../ThirdParty/mbedTLS/include/mbedtls/md.h"
	.file	2 "C:\\Users\\shw26\\OneDrive\\Desktop\\2021\\2021-1\\\354\272\241\354\212\244\355\206\244\353\224\224\354\236\220\354\235\2702\\Nuvoton\\M2351_BSP_v3.00.004\\M2351Series_BSP_CMSIS_V3.00.004\\MyProject\\PulseMonitoring\\Secure" "../../../ThirdParty/mbedTLS/include/mbedtls/pk.h"
	.file	3 "C:\\" "Keil_v5\\ARM\\ARMCLANG\\Bin\\..\\include\\stddef.h"
	.section	.text.mbedtls_x509_get_serial,"ax",%progbits
	.hidden	mbedtls_x509_get_serial         @ -- Begin function mbedtls_x509_get_serial
	.globl	mbedtls_x509_get_serial
	.p2align	2
	.type	mbedtls_x509_get_serial,%function
	.code	16                              @ @mbedtls_x509_get_serial
	.thumb_func
mbedtls_x509_get_serial:
.Lfunc_begin0:
	.file	4 "C:\\Users\\shw26\\OneDrive\\Desktop\\2021\\2021-1\\\354\272\241\354\212\244\355\206\244\353\224\224\354\236\220\354\235\2702\\Nuvoton\\M2351_BSP_v3.00.004\\M2351Series_BSP_CMSIS_V3.00.004\\MyProject\\PulseMonitoring\\Secure" "../../../ThirdParty/mbedTLS/library/x509.c"
	.loc	4 78 0                          @ ../../../ThirdParty/mbedTLS/library/x509.c:78:0
	.fnstart
	.cfi_sections .debug_frame
	.cfi_startproc
@ %bb.0:
	@DEBUG_VALUE: mbedtls_x509_get_serial:p <- $r0
	@DEBUG_VALUE: mbedtls_x509_get_serial:end <- $r1
	@DEBUG_VALUE: mbedtls_x509_get_serial:serial <- $r2
	.save	{r4, r5, r6, lr}
	push	{r4, r5, r6, lr}
	.cfi_def_cfa_offset 16
	.cfi_offset lr, -4
	.cfi_offset r6, -8
	.cfi_offset r5, -12
	.cfi_offset r4, -16
	mov	r6, r2
	mov	r5, r0
.Ltmp0:
	@DEBUG_VALUE: mbedtls_x509_get_serial:serial <- $r6
	@DEBUG_VALUE: mbedtls_x509_get_serial:end <- $r1
	@DEBUG_VALUE: mbedtls_x509_get_serial:p <- $r5
	.loc	4 81 17 prologue_end            @ ../../../ThirdParty/mbedTLS/library/x509.c:81:17
	ldr	r0, [r0]
	.loc	4 81 15 is_stmt 0               @ ../../../ThirdParty/mbedTLS/library/x509.c:81:15
	subs	r2, r1, r0
	ldr	r4, __arm_cp.0_0
.Ltmp1:
	.loc	4 81 9                          @ ../../../ThirdParty/mbedTLS/library/x509.c:81:9
	cmp	r2, #1
	blt	.LBB0_4
.Ltmp2:
@ %bb.1:
	@DEBUG_VALUE: mbedtls_x509_get_serial:serial <- $r6
	@DEBUG_VALUE: mbedtls_x509_get_serial:p <- $r5
	@DEBUG_VALUE: mbedtls_x509_get_serial:end <- $r1
	.loc	4 85 9 is_stmt 1                @ ../../../ThirdParty/mbedTLS/library/x509.c:85:9
	ldrb	r2, [r0]
	movs	r3, #128
	.loc	4 85 79 is_stmt 0               @ ../../../ThirdParty/mbedTLS/library/x509.c:85:79
	orrs	r3, r2
	cmp	r3, #130
	bne	.LBB0_6
.Ltmp3:
@ %bb.2:
	@DEBUG_VALUE: mbedtls_x509_get_serial:serial <- $r6
	@DEBUG_VALUE: mbedtls_x509_get_serial:p <- $r5
	@DEBUG_VALUE: mbedtls_x509_get_serial:end <- $r1
	.loc	4 90 24 is_stmt 1               @ ../../../ThirdParty/mbedTLS/library/x509.c:90:24
	adds	r2, r0, #1
	str	r2, [r5]
	.loc	4 90 19 is_stmt 0               @ ../../../ThirdParty/mbedTLS/library/x509.c:90:19
	ldrb	r0, [r0]
	.loc	4 90 17                         @ ../../../ThirdParty/mbedTLS/library/x509.c:90:17
	mov	r2, r6
	stm	r2!, {r0}
.Ltmp4:
	.loc	4 92 17 is_stmt 1               @ ../../../ThirdParty/mbedTLS/library/x509.c:92:17
	mov	r0, r5
	bl	mbedtls_asn1_get_len
.Ltmp5:
	@DEBUG_VALUE: mbedtls_x509_get_serial:end <- [DW_OP_LLVM_entry_value 1] $r1
	@DEBUG_VALUE: mbedtls_x509_get_serial:ret <- $r0
	.loc	4 92 9 is_stmt 0                @ ../../../ThirdParty/mbedTLS/library/x509.c:92:9
	cbz	r0, .LBB0_5
.Ltmp6:
@ %bb.3:
	@DEBUG_VALUE: mbedtls_x509_get_serial:serial <- $r6
	@DEBUG_VALUE: mbedtls_x509_get_serial:p <- $r5
	@DEBUG_VALUE: mbedtls_x509_get_serial:ret <- $r0
	@DEBUG_VALUE: mbedtls_x509_get_serial:end <- [DW_OP_LLVM_entry_value 1] $r1
	.loc	4 93 49 is_stmt 1               @ ../../../ThirdParty/mbedTLS/library/x509.c:93:49
	adds	r4, r4, r0
	adds	r4, #98
.Ltmp7:
	.loc	4 99 1                          @ ../../../ThirdParty/mbedTLS/library/x509.c:99:1
	mov	r0, r4
.Ltmp8:
	pop	{r4, r5, r6, pc}
.Ltmp9:
.LBB0_4:
	@DEBUG_VALUE: mbedtls_x509_get_serial:serial <- $r6
	@DEBUG_VALUE: mbedtls_x509_get_serial:p <- $r5
	@DEBUG_VALUE: mbedtls_x509_get_serial:end <- $r1
	.loc	4 0 1 is_stmt 0                 @ ../../../ThirdParty/mbedTLS/library/x509.c:0:1
	adds	r0, r4, #2
	.loc	4 99 1                          @ ../../../ThirdParty/mbedTLS/library/x509.c:99:1
	pop	{r4, r5, r6, pc}
.Ltmp10:
.LBB0_5:
	@DEBUG_VALUE: mbedtls_x509_get_serial:serial <- $r6
	@DEBUG_VALUE: mbedtls_x509_get_serial:p <- $r5
	@DEBUG_VALUE: mbedtls_x509_get_serial:ret <- $r0
	@DEBUG_VALUE: mbedtls_x509_get_serial:end <- [DW_OP_LLVM_entry_value 1] $r1
	.loc	4 95 17 is_stmt 1               @ ../../../ThirdParty/mbedTLS/library/x509.c:95:17
	ldr	r0, [r5]
.Ltmp11:
	.loc	4 95 15 is_stmt 0               @ ../../../ThirdParty/mbedTLS/library/x509.c:95:15
	str	r0, [r6, #8]
	.loc	4 96 19 is_stmt 1               @ ../../../ThirdParty/mbedTLS/library/x509.c:96:19
	ldr	r0, [r6, #4]
	.loc	4 96 8 is_stmt 0                @ ../../../ThirdParty/mbedTLS/library/x509.c:96:8
	ldr	r1, [r5]
	adds	r0, r1, r0
	str	r0, [r5]
	movs	r4, #0
.Ltmp12:
.LBB0_6:
	@DEBUG_VALUE: mbedtls_x509_get_serial:serial <- $r6
	@DEBUG_VALUE: mbedtls_x509_get_serial:p <- $r5
	.loc	4 99 1 is_stmt 1                @ ../../../ThirdParty/mbedTLS/library/x509.c:99:1
	mov	r0, r4
	pop	{r4, r5, r6, pc}
.Ltmp13:
	.p2align	2
@ %bb.7:
	.loc	4 0 1 is_stmt 0                 @ ../../../ThirdParty/mbedTLS/library/x509.c:0:1
__arm_cp.0_0:
	.long	4294958366                      @ 0xffffdd1e
.Lcpi_end0:
	.size	__arm_cp.0_0, .Lcpi_end0-__arm_cp.0_0
.Lfunc_end0:
	.size	mbedtls_x509_get_serial, .Lfunc_end0-mbedtls_x509_get_serial
	.cfi_endproc
	.cantunwind
	.fnend
                                        @ -- End function
	.section	.text.mbedtls_x509_get_alg_null,"ax",%progbits
	.hidden	mbedtls_x509_get_alg_null       @ -- Begin function mbedtls_x509_get_alg_null
	.globl	mbedtls_x509_get_alg_null
	.p2align	1
	.type	mbedtls_x509_get_alg_null,%function
	.code	16                              @ @mbedtls_x509_get_alg_null
	.thumb_func
mbedtls_x509_get_alg_null:
.Lfunc_begin1:
	.loc	4 109 0 is_stmt 1               @ ../../../ThirdParty/mbedTLS/library/x509.c:109:0
	.fnstart
	.cfi_startproc
@ %bb.0:
	@DEBUG_VALUE: mbedtls_x509_get_alg_null:p <- $r0
	@DEBUG_VALUE: mbedtls_x509_get_alg_null:p <- $r0
	@DEBUG_VALUE: mbedtls_x509_get_alg_null:end <- $r1
	@DEBUG_VALUE: mbedtls_x509_get_alg_null:end <- $r1
	@DEBUG_VALUE: mbedtls_x509_get_alg_null:alg <- $r2
	@DEBUG_VALUE: mbedtls_x509_get_alg_null:alg <- $r2
	@DEBUG_VALUE: mbedtls_x509_get_alg_null:alg <- $r2
	@DEBUG_VALUE: mbedtls_x509_get_alg_null:end <- $r1
	@DEBUG_VALUE: mbedtls_x509_get_alg_null:p <- $r0
	.save	{r7, lr}
	push	{r7, lr}
	.cfi_def_cfa_offset 8
	.cfi_offset lr, -4
	.cfi_offset r7, -8
.Ltmp14:
	.loc	4 112 17 prologue_end           @ ../../../ThirdParty/mbedTLS/library/x509.c:112:17
	bl	mbedtls_asn1_get_alg_null
.Ltmp15:
	@DEBUG_VALUE: mbedtls_x509_get_alg_null:alg <- [DW_OP_LLVM_entry_value 1] $r2
	@DEBUG_VALUE: mbedtls_x509_get_alg_null:end <- [DW_OP_LLVM_entry_value 1] $r1
	@DEBUG_VALUE: mbedtls_x509_get_alg_null:p <- [DW_OP_LLVM_entry_value 1] $r0
	@DEBUG_VALUE: mbedtls_x509_get_alg_null:ret <- $r0
	.loc	4 112 9 is_stmt 0               @ ../../../ThirdParty/mbedTLS/library/x509.c:112:9
	cbz	r0, .LBB1_2
.Ltmp16:
@ %bb.1:
	@DEBUG_VALUE: mbedtls_x509_get_alg_null:ret <- $r0
	@DEBUG_VALUE: mbedtls_x509_get_alg_null:alg <- [DW_OP_LLVM_entry_value 1] $r2
	@DEBUG_VALUE: mbedtls_x509_get_alg_null:end <- [DW_OP_LLVM_entry_value 1] $r1
	@DEBUG_VALUE: mbedtls_x509_get_alg_null:p <- [DW_OP_LLVM_entry_value 1] $r0
	.loc	4 0 9                           @ ../../../ThirdParty/mbedTLS/library/x509.c:0:9
	movw	r1, #8960
	subs	r0, r0, r1
.Ltmp17:
.LBB1_2:
	@DEBUG_VALUE: mbedtls_x509_get_alg_null:alg <- [DW_OP_LLVM_entry_value 1] $r2
	@DEBUG_VALUE: mbedtls_x509_get_alg_null:end <- [DW_OP_LLVM_entry_value 1] $r1
	@DEBUG_VALUE: mbedtls_x509_get_alg_null:p <- [DW_OP_LLVM_entry_value 1] $r0
	.loc	4 116 1 is_stmt 1               @ ../../../ThirdParty/mbedTLS/library/x509.c:116:1
	pop	{r7, pc}
.Ltmp18:
.Lfunc_end1:
	.size	mbedtls_x509_get_alg_null, .Lfunc_end1-mbedtls_x509_get_alg_null
	.cfi_endproc
	.cantunwind
	.fnend
                                        @ -- End function
	.section	.text.mbedtls_x509_get_alg,"ax",%progbits
	.hidden	mbedtls_x509_get_alg            @ -- Begin function mbedtls_x509_get_alg
	.globl	mbedtls_x509_get_alg
	.p2align	1
	.type	mbedtls_x509_get_alg,%function
	.code	16                              @ @mbedtls_x509_get_alg
	.thumb_func
mbedtls_x509_get_alg:
.Lfunc_begin2:
	.loc	4 123 0                         @ ../../../ThirdParty/mbedTLS/library/x509.c:123:0
	.fnstart
	.cfi_startproc
@ %bb.0:
	@DEBUG_VALUE: mbedtls_x509_get_alg:p <- $r0
	@DEBUG_VALUE: mbedtls_x509_get_alg:p <- $r0
	@DEBUG_VALUE: mbedtls_x509_get_alg:end <- $r1
	@DEBUG_VALUE: mbedtls_x509_get_alg:end <- $r1
	@DEBUG_VALUE: mbedtls_x509_get_alg:alg <- $r2
	@DEBUG_VALUE: mbedtls_x509_get_alg:alg <- $r2
	@DEBUG_VALUE: mbedtls_x509_get_alg:params <- $r3
	@DEBUG_VALUE: mbedtls_x509_get_alg:params <- $r3
	@DEBUG_VALUE: mbedtls_x509_get_alg:params <- $r3
	@DEBUG_VALUE: mbedtls_x509_get_alg:alg <- $r2
	@DEBUG_VALUE: mbedtls_x509_get_alg:end <- $r1
	@DEBUG_VALUE: mbedtls_x509_get_alg:p <- $r0
	.save	{r7, lr}
	push	{r7, lr}
	.cfi_def_cfa_offset 8
	.cfi_offset lr, -4
	.cfi_offset r7, -8
.Ltmp19:
	.loc	4 126 17 prologue_end           @ ../../../ThirdParty/mbedTLS/library/x509.c:126:17
	bl	mbedtls_asn1_get_alg
.Ltmp20:
	@DEBUG_VALUE: mbedtls_x509_get_alg:params <- [DW_OP_LLVM_entry_value 1] $r3
	@DEBUG_VALUE: mbedtls_x509_get_alg:alg <- [DW_OP_LLVM_entry_value 1] $r2
	@DEBUG_VALUE: mbedtls_x509_get_alg:end <- [DW_OP_LLVM_entry_value 1] $r1
	@DEBUG_VALUE: mbedtls_x509_get_alg:p <- [DW_OP_LLVM_entry_value 1] $r0
	@DEBUG_VALUE: mbedtls_x509_get_alg:ret <- $r0
	.loc	4 126 9 is_stmt 0               @ ../../../ThirdParty/mbedTLS/library/x509.c:126:9
	cbz	r0, .LBB2_2
.Ltmp21:
@ %bb.1:
	@DEBUG_VALUE: mbedtls_x509_get_alg:ret <- $r0
	@DEBUG_VALUE: mbedtls_x509_get_alg:params <- [DW_OP_LLVM_entry_value 1] $r3
	@DEBUG_VALUE: mbedtls_x509_get_alg:alg <- [DW_OP_LLVM_entry_value 1] $r2
	@DEBUG_VALUE: mbedtls_x509_get_alg:end <- [DW_OP_LLVM_entry_value 1] $r1
	@DEBUG_VALUE: mbedtls_x509_get_alg:p <- [DW_OP_LLVM_entry_value 1] $r0
	.loc	4 0 9                           @ ../../../ThirdParty/mbedTLS/library/x509.c:0:9
	movw	r1, #8960
	subs	r0, r0, r1
.Ltmp22:
.LBB2_2:
	@DEBUG_VALUE: mbedtls_x509_get_alg:params <- [DW_OP_LLVM_entry_value 1] $r3
	@DEBUG_VALUE: mbedtls_x509_get_alg:alg <- [DW_OP_LLVM_entry_value 1] $r2
	@DEBUG_VALUE: mbedtls_x509_get_alg:end <- [DW_OP_LLVM_entry_value 1] $r1
	@DEBUG_VALUE: mbedtls_x509_get_alg:p <- [DW_OP_LLVM_entry_value 1] $r0
	.loc	4 130 1 is_stmt 1               @ ../../../ThirdParty/mbedTLS/library/x509.c:130:1
	pop	{r7, pc}
.Ltmp23:
.Lfunc_end2:
	.size	mbedtls_x509_get_alg, .Lfunc_end2-mbedtls_x509_get_alg
	.cfi_endproc
	.cantunwind
	.fnend
                                        @ -- End function
	.section	.text.mbedtls_x509_get_rsassa_pss_params,"ax",%progbits
	.hidden	mbedtls_x509_get_rsassa_pss_params @ -- Begin function mbedtls_x509_get_rsassa_pss_params
	.globl	mbedtls_x509_get_rsassa_pss_params
	.p2align	2
	.type	mbedtls_x509_get_rsassa_pss_params,%function
	.code	16                              @ @mbedtls_x509_get_rsassa_pss_params
	.thumb_func
mbedtls_x509_get_rsassa_pss_params:
.Lfunc_begin3:
	.loc	4 204 0                         @ ../../../ThirdParty/mbedTLS/library/x509.c:204:0
	.fnstart
	.cfi_startproc
@ %bb.0:
	@DEBUG_VALUE: mbedtls_x509_get_rsassa_pss_params:params <- $r0
	@DEBUG_VALUE: mbedtls_x509_get_rsassa_pss_params:md_alg <- $r1
	@DEBUG_VALUE: mbedtls_x509_get_rsassa_pss_params:mgf_md <- $r2
	@DEBUG_VALUE: mbedtls_x509_get_rsassa_pss_params:salt_len <- $r3
	.save	{r4, r5, r6, r7, lr}
	push	{r4, r5, r6, r7, lr}
	.cfi_def_cfa_offset 20
	.cfi_offset lr, -4
	.cfi_offset r7, -8
	.cfi_offset r6, -12
	.cfi_offset r5, -16
	.cfi_offset r4, -20
	.pad	#52
	sub	sp, #52
	.cfi_def_cfa_offset 72
	mov	r4, r1
	movs	r1, #4
.Ltmp24:
	@DEBUG_VALUE: mbedtls_x509_get_rsassa_pss_params:md_alg <- [DW_OP_LLVM_entry_value 1] $r1
	@DEBUG_VALUE: mbedtls_x509_get_rsassa_pss_params:salt_len <- $r3
	@DEBUG_VALUE: mbedtls_x509_get_rsassa_pss_params:mgf_md <- $r2
	@DEBUG_VALUE: mbedtls_x509_get_rsassa_pss_params:md_alg <- $r4
	@DEBUG_VALUE: mbedtls_x509_get_rsassa_pss_params:params <- $r0
	.loc	4 212 13 prologue_end           @ ../../../ThirdParty/mbedTLS/library/x509.c:212:13
	strb	r1, [r4]
	.loc	4 213 13                        @ ../../../ThirdParty/mbedTLS/library/x509.c:213:13
	strb	r1, [r2]
	movs	r1, #20
	.loc	4 214 15                        @ ../../../ThirdParty/mbedTLS/library/x509.c:214:15
	str	r1, [r3]
	ldr	r7, __arm_cp.3_0
.Ltmp25:
	.loc	4 217 17                        @ ../../../ThirdParty/mbedTLS/library/x509.c:217:17
	ldr	r1, [r0]
.Ltmp26:
	.loc	4 217 9 is_stmt 0               @ ../../../ThirdParty/mbedTLS/library/x509.c:217:9
	cmp	r1, #48
	bne	.LBB3_7
.Ltmp27:
@ %bb.1:
	@DEBUG_VALUE: mbedtls_x509_get_rsassa_pss_params:md_alg <- $r4
	@DEBUG_VALUE: mbedtls_x509_get_rsassa_pss_params:salt_len <- $r3
	@DEBUG_VALUE: mbedtls_x509_get_rsassa_pss_params:mgf_md <- $r2
	@DEBUG_VALUE: mbedtls_x509_get_rsassa_pss_params:params <- $r0
	@DEBUG_VALUE: mbedtls_x509_get_rsassa_pss_params:salt_len <- $r3
	.loc	4 0 9                           @ ../../../ThirdParty/mbedTLS/library/x509.c:0:9
	mov	r6, r2
.Ltmp28:
	@DEBUG_VALUE: mbedtls_x509_get_rsassa_pss_params:mgf_md <- $r6
	@DEBUG_VALUE: mbedtls_x509_get_rsassa_pss_params:p <- undef
	.loc	4 222 23 is_stmt 1              @ ../../../ThirdParty/mbedTLS/library/x509.c:222:23
	ldr	r1, [r0, #4]
	.loc	4 221 35                        @ ../../../ThirdParty/mbedTLS/library/x509.c:221:35
	ldr	r0, [r0, #8]
.Ltmp29:
	@DEBUG_VALUE: mbedtls_x509_get_rsassa_pss_params:params <- [DW_OP_LLVM_entry_value 1] $r0
	.loc	4 221 7 is_stmt 0               @ ../../../ThirdParty/mbedTLS/library/x509.c:221:7
	str	r0, [sp, #48]
.Ltmp30:
	@DEBUG_VALUE: mbedtls_x509_get_rsassa_pss_params:end <- undef
	.loc	4 0 7                           @ ../../../ThirdParty/mbedTLS/library/x509.c:0:7
	movs	r2, #0
	.loc	4 224 9 is_stmt 1               @ ../../../ThirdParty/mbedTLS/library/x509.c:224:9
	cbz	r1, .LBB3_8
.Ltmp31:
@ %bb.2:
	@DEBUG_VALUE: mbedtls_x509_get_rsassa_pss_params:mgf_md <- $r6
	@DEBUG_VALUE: mbedtls_x509_get_rsassa_pss_params:md_alg <- $r4
	@DEBUG_VALUE: mbedtls_x509_get_rsassa_pss_params:salt_len <- $r3
	@DEBUG_VALUE: mbedtls_x509_get_rsassa_pss_params:params <- [DW_OP_LLVM_entry_value 1] $r0
	.loc	4 0 9 is_stmt 0                 @ ../../../ThirdParty/mbedTLS/library/x509.c:0:9
	mov	r5, r3
.Ltmp32:
	@DEBUG_VALUE: mbedtls_x509_get_rsassa_pss_params:salt_len <- $r5
	str	r2, [sp, #8]                    @ 4-byte Spill
	adds	r1, r0, r1
.Ltmp33:
	@DEBUG_VALUE: mbedtls_x509_get_rsassa_pss_params:len <- [DW_OP_plus_uconst 44, DW_OP_deref] $sp
	@DEBUG_VALUE: mbedtls_x509_get_rsassa_pss_params:end <- $r1
	@DEBUG_VALUE: mbedtls_x509_get_rsassa_pss_params:p <- [DW_OP_plus_uconst 48, DW_OP_deref] $sp
	add	r0, sp, #48
	add	r2, sp, #44
	movs	r3, #160
	str	r1, [sp, #12]                   @ 4-byte Spill
.Ltmp34:
	@DEBUG_VALUE: mbedtls_x509_get_rsassa_pss_params:end <- [DW_OP_plus_uconst 12] [$sp+0]
	.loc	4 230 17 is_stmt 1              @ ../../../ThirdParty/mbedTLS/library/x509.c:230:17
	bl	mbedtls_asn1_get_tag
.Ltmp35:
	@DEBUG_VALUE: mbedtls_x509_get_rsassa_pss_params:ret <- $r0
	.loc	4 230 9 is_stmt 0               @ ../../../ThirdParty/mbedTLS/library/x509.c:230:9
	mov	r1, r0
	adds	r1, #98
	beq	.LBB3_12
.Ltmp36:
@ %bb.3:
	@DEBUG_VALUE: mbedtls_x509_get_rsassa_pss_params:mgf_md <- $r6
	@DEBUG_VALUE: mbedtls_x509_get_rsassa_pss_params:salt_len <- $r5
	@DEBUG_VALUE: mbedtls_x509_get_rsassa_pss_params:md_alg <- $r4
	@DEBUG_VALUE: mbedtls_x509_get_rsassa_pss_params:ret <- $r0
	@DEBUG_VALUE: mbedtls_x509_get_rsassa_pss_params:end <- [DW_OP_plus_uconst 12] [$sp+0]
	@DEBUG_VALUE: mbedtls_x509_get_rsassa_pss_params:p <- [DW_OP_plus_uconst 48, DW_OP_deref] $sp
	@DEBUG_VALUE: mbedtls_x509_get_rsassa_pss_params:len <- [DW_OP_plus_uconst 44, DW_OP_deref] $sp
	@DEBUG_VALUE: mbedtls_x509_get_rsassa_pss_params:params <- [DW_OP_LLVM_entry_value 1] $r0
	cbnz	r0, .LBB3_9
.Ltmp37:
@ %bb.4:
	@DEBUG_VALUE: mbedtls_x509_get_rsassa_pss_params:mgf_md <- $r6
	@DEBUG_VALUE: mbedtls_x509_get_rsassa_pss_params:salt_len <- $r5
	@DEBUG_VALUE: mbedtls_x509_get_rsassa_pss_params:md_alg <- $r4
	@DEBUG_VALUE: mbedtls_x509_get_rsassa_pss_params:ret <- $r0
	@DEBUG_VALUE: mbedtls_x509_get_rsassa_pss_params:end <- [DW_OP_plus_uconst 12] [$sp+0]
	@DEBUG_VALUE: mbedtls_x509_get_rsassa_pss_params:p <- [DW_OP_plus_uconst 48, DW_OP_deref] $sp
	@DEBUG_VALUE: mbedtls_x509_get_rsassa_pss_params:len <- [DW_OP_plus_uconst 44, DW_OP_deref] $sp
	@DEBUG_VALUE: mbedtls_x509_get_rsassa_pss_params:params <- [DW_OP_LLVM_entry_value 1] $r0
	.loc	4 233 20 is_stmt 1              @ ../../../ThirdParty/mbedTLS/library/x509.c:233:20
	ldr	r0, [sp, #44]
.Ltmp38:
	@DEBUG_VALUE: mbedtls_x509_get_rsassa_pss_params:len <- $r0
	.loc	4 233 16 is_stmt 0              @ ../../../ThirdParty/mbedTLS/library/x509.c:233:16
	ldr	r1, [sp, #48]
.Ltmp39:
	@DEBUG_VALUE: mbedtls_x509_get_rsassa_pss_params:p <- $r1
	.loc	4 233 18                        @ ../../../ThirdParty/mbedTLS/library/x509.c:233:18
	adds	r1, r1, r0
.Ltmp40:
	@DEBUG_VALUE: mbedtls_x509_get_rsassa_pss_params:end2 <- $r1
	@DEBUG_VALUE: mbedtls_x509_get_rsassa_pss_params:p <- [DW_OP_plus_uconst 48, DW_OP_deref] $sp
	.loc	4 0 18                          @ ../../../ThirdParty/mbedTLS/library/x509.c:0:18
	add	r0, sp, #48
.Ltmp41:
	add	r2, sp, #32
	str	r1, [sp, #4]                    @ 4-byte Spill
.Ltmp42:
	@DEBUG_VALUE: mbedtls_x509_get_rsassa_pss_params:end2 <- [DW_OP_plus_uconst 4] [$sp+0]
	.loc	4 236 21 is_stmt 1              @ ../../../ThirdParty/mbedTLS/library/x509.c:236:21
	bl	mbedtls_x509_get_alg_null
	mov	r7, r0
.Ltmp43:
	@DEBUG_VALUE: mbedtls_x509_get_rsassa_pss_params:ret <- $r7
	.loc	4 236 13 is_stmt 0              @ ../../../ThirdParty/mbedTLS/library/x509.c:236:13
	cmp	r0, #0
	beq	.LBB3_5
	b	.LBB3_45
.Ltmp44:
.LBB3_5:
	@DEBUG_VALUE: mbedtls_x509_get_rsassa_pss_params:ret <- $r7
	@DEBUG_VALUE: mbedtls_x509_get_rsassa_pss_params:mgf_md <- $r6
	@DEBUG_VALUE: mbedtls_x509_get_rsassa_pss_params:salt_len <- $r5
	@DEBUG_VALUE: mbedtls_x509_get_rsassa_pss_params:md_alg <- $r4
	@DEBUG_VALUE: mbedtls_x509_get_rsassa_pss_params:end2 <- [DW_OP_plus_uconst 4] [$sp+0]
	@DEBUG_VALUE: mbedtls_x509_get_rsassa_pss_params:end <- [DW_OP_plus_uconst 12] [$sp+0]
	@DEBUG_VALUE: mbedtls_x509_get_rsassa_pss_params:p <- [DW_OP_plus_uconst 48, DW_OP_deref] $sp
	@DEBUG_VALUE: mbedtls_x509_get_rsassa_pss_params:params <- [DW_OP_LLVM_entry_value 1] $r0
	.loc	4 0 13                          @ ../../../ThirdParty/mbedTLS/library/x509.c:0:13
	ldr	r7, [sp, #4]                    @ 4-byte Reload
.Ltmp45:
	add	r0, sp, #32
.Ltmp46:
	.loc	4 239 21 is_stmt 1              @ ../../../ThirdParty/mbedTLS/library/x509.c:239:21
	mov	r1, r4
	bl	mbedtls_oid_get_md_alg
.Ltmp47:
	@DEBUG_VALUE: mbedtls_x509_get_rsassa_pss_params:ret <- $r0
	.loc	4 239 13 is_stmt 0              @ ../../../ThirdParty/mbedTLS/library/x509.c:239:13
	cbz	r0, .LBB3_10
.Ltmp48:
@ %bb.6:
	@DEBUG_VALUE: mbedtls_x509_get_rsassa_pss_params:mgf_md <- $r6
	@DEBUG_VALUE: mbedtls_x509_get_rsassa_pss_params:salt_len <- $r5
	@DEBUG_VALUE: mbedtls_x509_get_rsassa_pss_params:md_alg <- $r4
	@DEBUG_VALUE: mbedtls_x509_get_rsassa_pss_params:ret <- $r0
	@DEBUG_VALUE: mbedtls_x509_get_rsassa_pss_params:end2 <- [DW_OP_plus_uconst 4] [$sp+0]
	@DEBUG_VALUE: mbedtls_x509_get_rsassa_pss_params:end <- [DW_OP_plus_uconst 12] [$sp+0]
	@DEBUG_VALUE: mbedtls_x509_get_rsassa_pss_params:p <- [DW_OP_plus_uconst 48, DW_OP_deref] $sp
	@DEBUG_VALUE: mbedtls_x509_get_rsassa_pss_params:params <- [DW_OP_LLVM_entry_value 1] $r0
	.loc	4 240 50 is_stmt 1              @ ../../../ThirdParty/mbedTLS/library/x509.c:240:50
	ldr	r1, __arm_cp.3_0
	adds	r7, r0, r1
	.loc	4 240 13 is_stmt 0              @ ../../../ThirdParty/mbedTLS/library/x509.c:240:13
	b	.LBB3_45
.Ltmp49:
.LBB3_7:
	@DEBUG_VALUE: mbedtls_x509_get_rsassa_pss_params:md_alg <- $r4
	@DEBUG_VALUE: mbedtls_x509_get_rsassa_pss_params:salt_len <- $r3
	@DEBUG_VALUE: mbedtls_x509_get_rsassa_pss_params:mgf_md <- $r2
	@DEBUG_VALUE: mbedtls_x509_get_rsassa_pss_params:params <- $r0
	.loc	4 0 13                          @ ../../../ThirdParty/mbedTLS/library/x509.c:0:13
	subs	r7, #98
	b	.LBB3_45
.Ltmp50:
.LBB3_8:
	@DEBUG_VALUE: mbedtls_x509_get_rsassa_pss_params:mgf_md <- $r6
	@DEBUG_VALUE: mbedtls_x509_get_rsassa_pss_params:md_alg <- $r4
	@DEBUG_VALUE: mbedtls_x509_get_rsassa_pss_params:salt_len <- $r3
	@DEBUG_VALUE: mbedtls_x509_get_rsassa_pss_params:params <- [DW_OP_LLVM_entry_value 1] $r0
	mov	r7, r2
	b	.LBB3_45
.Ltmp51:
.LBB3_9:
	@DEBUG_VALUE: mbedtls_x509_get_rsassa_pss_params:mgf_md <- $r6
	@DEBUG_VALUE: mbedtls_x509_get_rsassa_pss_params:salt_len <- $r5
	@DEBUG_VALUE: mbedtls_x509_get_rsassa_pss_params:md_alg <- $r4
	@DEBUG_VALUE: mbedtls_x509_get_rsassa_pss_params:ret <- $r0
	@DEBUG_VALUE: mbedtls_x509_get_rsassa_pss_params:end <- [DW_OP_plus_uconst 12] [$sp+0]
	@DEBUG_VALUE: mbedtls_x509_get_rsassa_pss_params:p <- [DW_OP_plus_uconst 48, DW_OP_deref] $sp
	@DEBUG_VALUE: mbedtls_x509_get_rsassa_pss_params:len <- [DW_OP_plus_uconst 44, DW_OP_deref] $sp
	@DEBUG_VALUE: mbedtls_x509_get_rsassa_pss_params:params <- [DW_OP_LLVM_entry_value 1] $r0
	.loc	4 247 46 is_stmt 1              @ ../../../ThirdParty/mbedTLS/library/x509.c:247:46
	adds	r7, r0, r7
	.loc	4 247 9 is_stmt 0               @ ../../../ThirdParty/mbedTLS/library/x509.c:247:9
	b	.LBB3_45
.Ltmp52:
.LBB3_10:
	@DEBUG_VALUE: mbedtls_x509_get_rsassa_pss_params:mgf_md <- $r6
	@DEBUG_VALUE: mbedtls_x509_get_rsassa_pss_params:salt_len <- $r5
	@DEBUG_VALUE: mbedtls_x509_get_rsassa_pss_params:md_alg <- $r4
	@DEBUG_VALUE: mbedtls_x509_get_rsassa_pss_params:ret <- $r0
	@DEBUG_VALUE: mbedtls_x509_get_rsassa_pss_params:end2 <- [DW_OP_plus_uconst 4] [$sp+0]
	@DEBUG_VALUE: mbedtls_x509_get_rsassa_pss_params:end <- [DW_OP_plus_uconst 12] [$sp+0]
	@DEBUG_VALUE: mbedtls_x509_get_rsassa_pss_params:p <- [DW_OP_plus_uconst 48, DW_OP_deref] $sp
	@DEBUG_VALUE: mbedtls_x509_get_rsassa_pss_params:params <- [DW_OP_LLVM_entry_value 1] $r0
	.loc	4 242 13 is_stmt 1              @ ../../../ThirdParty/mbedTLS/library/x509.c:242:13
	ldr	r0, [sp, #48]
.Ltmp53:
	@DEBUG_VALUE: mbedtls_x509_get_rsassa_pss_params:p <- $r0
	.loc	4 242 13 is_stmt 0              @ ../../../ThirdParty/mbedTLS/library/x509.c:242:13
	cmp	r0, r7
	ldr	r7, __arm_cp.3_0
	beq	.LBB3_12
.Ltmp54:
@ %bb.11:
	@DEBUG_VALUE: mbedtls_x509_get_rsassa_pss_params:mgf_md <- $r6
	@DEBUG_VALUE: mbedtls_x509_get_rsassa_pss_params:salt_len <- $r5
	@DEBUG_VALUE: mbedtls_x509_get_rsassa_pss_params:md_alg <- $r4
	@DEBUG_VALUE: mbedtls_x509_get_rsassa_pss_params:p <- $r0
	@DEBUG_VALUE: mbedtls_x509_get_rsassa_pss_params:end2 <- [DW_OP_plus_uconst 4] [$sp+0]
	@DEBUG_VALUE: mbedtls_x509_get_rsassa_pss_params:end <- [DW_OP_plus_uconst 12] [$sp+0]
	@DEBUG_VALUE: mbedtls_x509_get_rsassa_pss_params:params <- [DW_OP_LLVM_entry_value 1] $r0
	.loc	4 0 13                          @ ../../../ThirdParty/mbedTLS/library/x509.c:0:13
	subs	r7, #102
	b	.LBB3_45
.Ltmp55:
.LBB3_12:
	@DEBUG_VALUE: mbedtls_x509_get_rsassa_pss_params:mgf_md <- $r6
	@DEBUG_VALUE: mbedtls_x509_get_rsassa_pss_params:salt_len <- $r5
	@DEBUG_VALUE: mbedtls_x509_get_rsassa_pss_params:md_alg <- $r4
	@DEBUG_VALUE: mbedtls_x509_get_rsassa_pss_params:end <- [DW_OP_plus_uconst 12] [$sp+0]
	@DEBUG_VALUE: mbedtls_x509_get_rsassa_pss_params:params <- [DW_OP_LLVM_entry_value 1] $r0
	.loc	4 249 9 is_stmt 1               @ ../../../ThirdParty/mbedTLS/library/x509.c:249:9
	ldr	r0, [sp, #48]
.Ltmp56:
	@DEBUG_VALUE: mbedtls_x509_get_rsassa_pss_params:p <- $r0
	.loc	4 0 9 is_stmt 0                 @ ../../../ThirdParty/mbedTLS/library/x509.c:0:9
	ldr	r4, [sp, #12]                   @ 4-byte Reload
.Ltmp57:
	.loc	4 249 9                         @ ../../../ThirdParty/mbedTLS/library/x509.c:249:9
	cmp	r0, r4
	beq	.LBB3_21
.Ltmp58:
@ %bb.13:
	@DEBUG_VALUE: mbedtls_x509_get_rsassa_pss_params:mgf_md <- $r6
	@DEBUG_VALUE: mbedtls_x509_get_rsassa_pss_params:salt_len <- $r5
	@DEBUG_VALUE: mbedtls_x509_get_rsassa_pss_params:p <- $r0
	@DEBUG_VALUE: mbedtls_x509_get_rsassa_pss_params:end <- [DW_OP_plus_uconst 12] [$sp+0]
	@DEBUG_VALUE: mbedtls_x509_get_rsassa_pss_params:params <- [DW_OP_LLVM_entry_value 1] $r0
	@DEBUG_VALUE: mbedtls_x509_get_rsassa_pss_params:p <- [DW_OP_plus_uconst 48, DW_OP_deref] $sp
	@DEBUG_VALUE: mbedtls_x509_get_rsassa_pss_params:len <- [DW_OP_plus_uconst 44, DW_OP_deref] $sp
	.loc	4 0 9                           @ ../../../ThirdParty/mbedTLS/library/x509.c:0:9
	add	r0, sp, #48
	add	r2, sp, #44
	movs	r3, #161
.Ltmp59:
	.loc	4 255 17 is_stmt 1              @ ../../../ThirdParty/mbedTLS/library/x509.c:255:17
	mov	r1, r4
	bl	mbedtls_asn1_get_tag
.Ltmp60:
	@DEBUG_VALUE: mbedtls_x509_get_rsassa_pss_params:ret <- $r0
	.loc	4 255 9 is_stmt 0               @ ../../../ThirdParty/mbedTLS/library/x509.c:255:9
	mov	r1, r0
	adds	r1, #98
	beq	.LBB3_22
.Ltmp61:
@ %bb.14:
	@DEBUG_VALUE: mbedtls_x509_get_rsassa_pss_params:mgf_md <- $r6
	@DEBUG_VALUE: mbedtls_x509_get_rsassa_pss_params:salt_len <- $r5
	@DEBUG_VALUE: mbedtls_x509_get_rsassa_pss_params:ret <- $r0
	@DEBUG_VALUE: mbedtls_x509_get_rsassa_pss_params:end <- [DW_OP_plus_uconst 12] [$sp+0]
	@DEBUG_VALUE: mbedtls_x509_get_rsassa_pss_params:p <- [DW_OP_plus_uconst 48, DW_OP_deref] $sp
	@DEBUG_VALUE: mbedtls_x509_get_rsassa_pss_params:len <- [DW_OP_plus_uconst 44, DW_OP_deref] $sp
	@DEBUG_VALUE: mbedtls_x509_get_rsassa_pss_params:params <- [DW_OP_LLVM_entry_value 1] $r0
	cbnz	r0, .LBB3_27
.Ltmp62:
@ %bb.15:
	@DEBUG_VALUE: mbedtls_x509_get_rsassa_pss_params:mgf_md <- $r6
	@DEBUG_VALUE: mbedtls_x509_get_rsassa_pss_params:salt_len <- $r5
	@DEBUG_VALUE: mbedtls_x509_get_rsassa_pss_params:ret <- $r0
	@DEBUG_VALUE: mbedtls_x509_get_rsassa_pss_params:end <- [DW_OP_plus_uconst 12] [$sp+0]
	@DEBUG_VALUE: mbedtls_x509_get_rsassa_pss_params:p <- [DW_OP_plus_uconst 48, DW_OP_deref] $sp
	@DEBUG_VALUE: mbedtls_x509_get_rsassa_pss_params:len <- [DW_OP_plus_uconst 44, DW_OP_deref] $sp
	@DEBUG_VALUE: mbedtls_x509_get_rsassa_pss_params:params <- [DW_OP_LLVM_entry_value 1] $r0
	.loc	4 258 20 is_stmt 1              @ ../../../ThirdParty/mbedTLS/library/x509.c:258:20
	ldr	r0, [sp, #44]
.Ltmp63:
	@DEBUG_VALUE: mbedtls_x509_get_rsassa_pss_params:len <- $r0
	.loc	4 258 16 is_stmt 0              @ ../../../ThirdParty/mbedTLS/library/x509.c:258:16
	ldr	r1, [sp, #48]
.Ltmp64:
	@DEBUG_VALUE: mbedtls_x509_get_rsassa_pss_params:p <- $r1
	.loc	4 258 18                        @ ../../../ThirdParty/mbedTLS/library/x509.c:258:18
	adds	r4, r1, r0
.Ltmp65:
	@DEBUG_VALUE: mbedtls_x509_get_rsassa_pss_params:end2 <- $r4
	@DEBUG_VALUE: mbedtls_x509_get_rsassa_pss_params:p <- [DW_OP_plus_uconst 48, DW_OP_deref] $sp
	.loc	4 0 18                          @ ../../../ThirdParty/mbedTLS/library/x509.c:0:18
	add	r0, sp, #48
.Ltmp66:
	add	r2, sp, #32
	add	r3, sp, #20
.Ltmp67:
	.loc	4 261 21 is_stmt 1              @ ../../../ThirdParty/mbedTLS/library/x509.c:261:21
	mov	r1, r4
	bl	mbedtls_x509_get_alg
	mov	r7, r0
.Ltmp68:
	@DEBUG_VALUE: mbedtls_x509_get_rsassa_pss_params:ret <- $r7
	.loc	4 261 13 is_stmt 0              @ ../../../ThirdParty/mbedTLS/library/x509.c:261:13
	cmp	r0, #0
	bne	.LBB3_45
.Ltmp69:
@ %bb.16:
	@DEBUG_VALUE: mbedtls_x509_get_rsassa_pss_params:ret <- $r7
	@DEBUG_VALUE: mbedtls_x509_get_rsassa_pss_params:mgf_md <- $r6
	@DEBUG_VALUE: mbedtls_x509_get_rsassa_pss_params:salt_len <- $r5
	@DEBUG_VALUE: mbedtls_x509_get_rsassa_pss_params:end2 <- $r4
	@DEBUG_VALUE: mbedtls_x509_get_rsassa_pss_params:end <- [DW_OP_plus_uconst 12] [$sp+0]
	@DEBUG_VALUE: mbedtls_x509_get_rsassa_pss_params:p <- [DW_OP_plus_uconst 48, DW_OP_deref] $sp
	@DEBUG_VALUE: mbedtls_x509_get_rsassa_pss_params:params <- [DW_OP_LLVM_entry_value 1] $r0
	.loc	4 0 13                          @ ../../../ThirdParty/mbedTLS/library/x509.c:0:13
	ldr	r7, __arm_cp.3_1
.Ltmp70:
	.loc	4 265 13 is_stmt 1              @ ../../../ThirdParty/mbedTLS/library/x509.c:265:13
	ldr	r0, [sp, #36]
	cmp	r0, #9
	bne	.LBB3_45
.Ltmp71:
@ %bb.17:
	@DEBUG_VALUE: mbedtls_x509_get_rsassa_pss_params:mgf_md <- $r6
	@DEBUG_VALUE: mbedtls_x509_get_rsassa_pss_params:salt_len <- $r5
	@DEBUG_VALUE: mbedtls_x509_get_rsassa_pss_params:end2 <- $r4
	@DEBUG_VALUE: mbedtls_x509_get_rsassa_pss_params:end <- [DW_OP_plus_uconst 12] [$sp+0]
	@DEBUG_VALUE: mbedtls_x509_get_rsassa_pss_params:p <- [DW_OP_plus_uconst 48, DW_OP_deref] $sp
	@DEBUG_VALUE: mbedtls_x509_get_rsassa_pss_params:params <- [DW_OP_LLVM_entry_value 1] $r0
	ldr	r1, [sp, #40]
	adr	r0, .LCPI3_2
	movs	r2, #9
	bl	memcmp
.Ltmp72:
	.loc	4 265 13 is_stmt 0              @ ../../../ThirdParty/mbedTLS/library/x509.c:265:13
	cmp	r0, #0
	bne	.LBB3_45
.Ltmp73:
@ %bb.18:
	@DEBUG_VALUE: mbedtls_x509_get_rsassa_pss_params:mgf_md <- $r6
	@DEBUG_VALUE: mbedtls_x509_get_rsassa_pss_params:salt_len <- $r5
	@DEBUG_VALUE: mbedtls_x509_get_rsassa_pss_params:end2 <- $r4
	@DEBUG_VALUE: mbedtls_x509_get_rsassa_pss_params:end <- [DW_OP_plus_uconst 12] [$sp+0]
	@DEBUG_VALUE: mbedtls_x509_get_rsassa_pss_params:p <- [DW_OP_plus_uconst 48, DW_OP_deref] $sp
	@DEBUG_VALUE: mbedtls_x509_get_rsassa_pss_params:params <- [DW_OP_LLVM_entry_value 1] $r0
	.loc	4 0 13                          @ ../../../ThirdParty/mbedTLS/library/x509.c:0:13
	add	r0, sp, #20
.Ltmp74:
	.loc	4 270 21 is_stmt 1              @ ../../../ThirdParty/mbedTLS/library/x509.c:270:21
	mov	r1, r6
	bl	x509_get_hash_alg
	mov	r7, r0
.Ltmp75:
	@DEBUG_VALUE: mbedtls_x509_get_rsassa_pss_params:ret <- $r7
	.loc	4 270 13 is_stmt 0              @ ../../../ThirdParty/mbedTLS/library/x509.c:270:13
	cmp	r0, #0
	bne	.LBB3_45
.Ltmp76:
@ %bb.19:
	@DEBUG_VALUE: mbedtls_x509_get_rsassa_pss_params:ret <- $r7
	@DEBUG_VALUE: mbedtls_x509_get_rsassa_pss_params:mgf_md <- $r6
	@DEBUG_VALUE: mbedtls_x509_get_rsassa_pss_params:salt_len <- $r5
	@DEBUG_VALUE: mbedtls_x509_get_rsassa_pss_params:end2 <- $r4
	@DEBUG_VALUE: mbedtls_x509_get_rsassa_pss_params:end <- [DW_OP_plus_uconst 12] [$sp+0]
	@DEBUG_VALUE: mbedtls_x509_get_rsassa_pss_params:p <- [DW_OP_plus_uconst 48, DW_OP_deref] $sp
	@DEBUG_VALUE: mbedtls_x509_get_rsassa_pss_params:params <- [DW_OP_LLVM_entry_value 1] $r0
	.loc	4 273 13 is_stmt 1              @ ../../../ThirdParty/mbedTLS/library/x509.c:273:13
	ldr	r0, [sp, #48]
.Ltmp77:
	@DEBUG_VALUE: mbedtls_x509_get_rsassa_pss_params:p <- $r0
	.loc	4 273 13 is_stmt 0              @ ../../../ThirdParty/mbedTLS/library/x509.c:273:13
	cmp	r0, r4
	ldr	r7, __arm_cp.3_0
.Ltmp78:
	.loc	4 0 13                          @ ../../../ThirdParty/mbedTLS/library/x509.c:0:13
	ldr	r4, [sp, #12]                   @ 4-byte Reload
.Ltmp79:
	.loc	4 273 13                        @ ../../../ThirdParty/mbedTLS/library/x509.c:273:13
	beq	.LBB3_22
.Ltmp80:
@ %bb.20:
	@DEBUG_VALUE: mbedtls_x509_get_rsassa_pss_params:mgf_md <- $r6
	@DEBUG_VALUE: mbedtls_x509_get_rsassa_pss_params:salt_len <- $r5
	@DEBUG_VALUE: mbedtls_x509_get_rsassa_pss_params:p <- $r0
	@DEBUG_VALUE: mbedtls_x509_get_rsassa_pss_params:end <- [DW_OP_plus_uconst 12] [$sp+0]
	@DEBUG_VALUE: mbedtls_x509_get_rsassa_pss_params:params <- [DW_OP_LLVM_entry_value 1] $r0
	.loc	4 0 13                          @ ../../../ThirdParty/mbedTLS/library/x509.c:0:13
	subs	r7, #102
	b	.LBB3_45
.Ltmp81:
.LBB3_21:
	@DEBUG_VALUE: mbedtls_x509_get_rsassa_pss_params:mgf_md <- $r6
	@DEBUG_VALUE: mbedtls_x509_get_rsassa_pss_params:salt_len <- $r5
	@DEBUG_VALUE: mbedtls_x509_get_rsassa_pss_params:p <- $r0
	@DEBUG_VALUE: mbedtls_x509_get_rsassa_pss_params:end <- [DW_OP_plus_uconst 12] [$sp+0]
	@DEBUG_VALUE: mbedtls_x509_get_rsassa_pss_params:params <- [DW_OP_LLVM_entry_value 1] $r0
	ldr	r7, [sp, #8]                    @ 4-byte Reload
	b	.LBB3_45
.Ltmp82:
.LBB3_22:
	@DEBUG_VALUE: mbedtls_x509_get_rsassa_pss_params:mgf_md <- $r6
	@DEBUG_VALUE: mbedtls_x509_get_rsassa_pss_params:salt_len <- $r5
	@DEBUG_VALUE: mbedtls_x509_get_rsassa_pss_params:end <- [DW_OP_plus_uconst 12] [$sp+0]
	@DEBUG_VALUE: mbedtls_x509_get_rsassa_pss_params:params <- [DW_OP_LLVM_entry_value 1] $r0
	.loc	4 280 9 is_stmt 1               @ ../../../ThirdParty/mbedTLS/library/x509.c:280:9
	ldr	r0, [sp, #48]
.Ltmp83:
	@DEBUG_VALUE: mbedtls_x509_get_rsassa_pss_params:p <- $r0
	.loc	4 280 9 is_stmt 0               @ ../../../ThirdParty/mbedTLS/library/x509.c:280:9
	cmp	r0, r4
	beq	.LBB3_28
.Ltmp84:
@ %bb.23:
	@DEBUG_VALUE: mbedtls_x509_get_rsassa_pss_params:mgf_md <- $r6
	@DEBUG_VALUE: mbedtls_x509_get_rsassa_pss_params:salt_len <- $r5
	@DEBUG_VALUE: mbedtls_x509_get_rsassa_pss_params:p <- $r0
	@DEBUG_VALUE: mbedtls_x509_get_rsassa_pss_params:end <- [DW_OP_plus_uconst 12] [$sp+0]
	@DEBUG_VALUE: mbedtls_x509_get_rsassa_pss_params:params <- [DW_OP_LLVM_entry_value 1] $r0
	@DEBUG_VALUE: mbedtls_x509_get_rsassa_pss_params:p <- [DW_OP_plus_uconst 48, DW_OP_deref] $sp
	@DEBUG_VALUE: mbedtls_x509_get_rsassa_pss_params:len <- [DW_OP_plus_uconst 44, DW_OP_deref] $sp
	.loc	4 0 9                           @ ../../../ThirdParty/mbedTLS/library/x509.c:0:9
	add	r0, sp, #48
	add	r2, sp, #44
	movs	r3, #162
.Ltmp85:
	.loc	4 286 17 is_stmt 1              @ ../../../ThirdParty/mbedTLS/library/x509.c:286:17
	mov	r1, r4
	bl	mbedtls_asn1_get_tag
.Ltmp86:
	@DEBUG_VALUE: mbedtls_x509_get_rsassa_pss_params:ret <- $r0
	.loc	4 286 9 is_stmt 0               @ ../../../ThirdParty/mbedTLS/library/x509.c:286:9
	mov	r1, r0
	adds	r1, #98
	beq	.LBB3_32
.Ltmp87:
@ %bb.24:
	@DEBUG_VALUE: mbedtls_x509_get_rsassa_pss_params:mgf_md <- $r6
	@DEBUG_VALUE: mbedtls_x509_get_rsassa_pss_params:salt_len <- $r5
	@DEBUG_VALUE: mbedtls_x509_get_rsassa_pss_params:ret <- $r0
	@DEBUG_VALUE: mbedtls_x509_get_rsassa_pss_params:end <- [DW_OP_plus_uconst 12] [$sp+0]
	@DEBUG_VALUE: mbedtls_x509_get_rsassa_pss_params:p <- [DW_OP_plus_uconst 48, DW_OP_deref] $sp
	@DEBUG_VALUE: mbedtls_x509_get_rsassa_pss_params:len <- [DW_OP_plus_uconst 44, DW_OP_deref] $sp
	@DEBUG_VALUE: mbedtls_x509_get_rsassa_pss_params:params <- [DW_OP_LLVM_entry_value 1] $r0
	cbnz	r0, .LBB3_29
.Ltmp88:
@ %bb.25:
	@DEBUG_VALUE: mbedtls_x509_get_rsassa_pss_params:mgf_md <- $r6
	@DEBUG_VALUE: mbedtls_x509_get_rsassa_pss_params:salt_len <- $r5
	@DEBUG_VALUE: mbedtls_x509_get_rsassa_pss_params:ret <- $r0
	@DEBUG_VALUE: mbedtls_x509_get_rsassa_pss_params:end <- [DW_OP_plus_uconst 12] [$sp+0]
	@DEBUG_VALUE: mbedtls_x509_get_rsassa_pss_params:p <- [DW_OP_plus_uconst 48, DW_OP_deref] $sp
	@DEBUG_VALUE: mbedtls_x509_get_rsassa_pss_params:len <- [DW_OP_plus_uconst 44, DW_OP_deref] $sp
	@DEBUG_VALUE: mbedtls_x509_get_rsassa_pss_params:params <- [DW_OP_LLVM_entry_value 1] $r0
	.loc	4 289 20 is_stmt 1              @ ../../../ThirdParty/mbedTLS/library/x509.c:289:20
	ldr	r0, [sp, #44]
.Ltmp89:
	@DEBUG_VALUE: mbedtls_x509_get_rsassa_pss_params:len <- $r0
	.loc	4 289 16 is_stmt 0              @ ../../../ThirdParty/mbedTLS/library/x509.c:289:16
	ldr	r1, [sp, #48]
.Ltmp90:
	@DEBUG_VALUE: mbedtls_x509_get_rsassa_pss_params:p <- $r1
	.loc	4 289 18                        @ ../../../ThirdParty/mbedTLS/library/x509.c:289:18
	adds	r4, r1, r0
.Ltmp91:
	@DEBUG_VALUE: mbedtls_x509_get_rsassa_pss_params:end2 <- $r4
	@DEBUG_VALUE: mbedtls_x509_get_rsassa_pss_params:p <- [DW_OP_plus_uconst 48, DW_OP_deref] $sp
	.loc	4 0 18                          @ ../../../ThirdParty/mbedTLS/library/x509.c:0:18
	add	r0, sp, #48
.Ltmp92:
	.loc	4 291 21 is_stmt 1              @ ../../../ThirdParty/mbedTLS/library/x509.c:291:21
	mov	r1, r4
	mov	r2, r5
	bl	mbedtls_asn1_get_int
.Ltmp93:
	@DEBUG_VALUE: mbedtls_x509_get_rsassa_pss_params:ret <- $r0
	.loc	4 291 13 is_stmt 0              @ ../../../ThirdParty/mbedTLS/library/x509.c:291:13
	cbz	r0, .LBB3_30
.Ltmp94:
@ %bb.26:
	@DEBUG_VALUE: mbedtls_x509_get_rsassa_pss_params:mgf_md <- $r6
	@DEBUG_VALUE: mbedtls_x509_get_rsassa_pss_params:salt_len <- $r5
	@DEBUG_VALUE: mbedtls_x509_get_rsassa_pss_params:end2 <- $r4
	@DEBUG_VALUE: mbedtls_x509_get_rsassa_pss_params:ret <- $r0
	@DEBUG_VALUE: mbedtls_x509_get_rsassa_pss_params:end <- [DW_OP_plus_uconst 12] [$sp+0]
	@DEBUG_VALUE: mbedtls_x509_get_rsassa_pss_params:p <- [DW_OP_plus_uconst 48, DW_OP_deref] $sp
	@DEBUG_VALUE: mbedtls_x509_get_rsassa_pss_params:params <- [DW_OP_LLVM_entry_value 1] $r0
	.loc	4 292 50 is_stmt 1              @ ../../../ThirdParty/mbedTLS/library/x509.c:292:50
	adds	r7, r0, r7
	.loc	4 292 13 is_stmt 0              @ ../../../ThirdParty/mbedTLS/library/x509.c:292:13
	b	.LBB3_45
.Ltmp95:
.LBB3_27:
	@DEBUG_VALUE: mbedtls_x509_get_rsassa_pss_params:mgf_md <- $r6
	@DEBUG_VALUE: mbedtls_x509_get_rsassa_pss_params:salt_len <- $r5
	@DEBUG_VALUE: mbedtls_x509_get_rsassa_pss_params:ret <- $r0
	@DEBUG_VALUE: mbedtls_x509_get_rsassa_pss_params:end <- [DW_OP_plus_uconst 12] [$sp+0]
	@DEBUG_VALUE: mbedtls_x509_get_rsassa_pss_params:p <- [DW_OP_plus_uconst 48, DW_OP_deref] $sp
	@DEBUG_VALUE: mbedtls_x509_get_rsassa_pss_params:len <- [DW_OP_plus_uconst 44, DW_OP_deref] $sp
	@DEBUG_VALUE: mbedtls_x509_get_rsassa_pss_params:params <- [DW_OP_LLVM_entry_value 1] $r0
	.loc	4 278 46 is_stmt 1              @ ../../../ThirdParty/mbedTLS/library/x509.c:278:46
	adds	r7, r0, r7
	.loc	4 278 9 is_stmt 0               @ ../../../ThirdParty/mbedTLS/library/x509.c:278:9
	b	.LBB3_45
.Ltmp96:
.LBB3_28:
	@DEBUG_VALUE: mbedtls_x509_get_rsassa_pss_params:mgf_md <- $r6
	@DEBUG_VALUE: mbedtls_x509_get_rsassa_pss_params:salt_len <- $r5
	@DEBUG_VALUE: mbedtls_x509_get_rsassa_pss_params:p <- $r0
	@DEBUG_VALUE: mbedtls_x509_get_rsassa_pss_params:end <- [DW_OP_plus_uconst 12] [$sp+0]
	@DEBUG_VALUE: mbedtls_x509_get_rsassa_pss_params:params <- [DW_OP_LLVM_entry_value 1] $r0
	.loc	4 0 0                           @ ../../../ThirdParty/mbedTLS/library/x509.c:0:0
	ldr	r7, [sp, #8]                    @ 4-byte Reload
	b	.LBB3_45
.Ltmp97:
.LBB3_29:
	@DEBUG_VALUE: mbedtls_x509_get_rsassa_pss_params:mgf_md <- $r6
	@DEBUG_VALUE: mbedtls_x509_get_rsassa_pss_params:salt_len <- $r5
	@DEBUG_VALUE: mbedtls_x509_get_rsassa_pss_params:ret <- $r0
	@DEBUG_VALUE: mbedtls_x509_get_rsassa_pss_params:end <- [DW_OP_plus_uconst 12] [$sp+0]
	@DEBUG_VALUE: mbedtls_x509_get_rsassa_pss_params:p <- [DW_OP_plus_uconst 48, DW_OP_deref] $sp
	@DEBUG_VALUE: mbedtls_x509_get_rsassa_pss_params:len <- [DW_OP_plus_uconst 44, DW_OP_deref] $sp
	@DEBUG_VALUE: mbedtls_x509_get_rsassa_pss_params:params <- [DW_OP_LLVM_entry_value 1] $r0
	.loc	4 299 46 is_stmt 1              @ ../../../ThirdParty/mbedTLS/library/x509.c:299:46
	adds	r7, r0, r7
	.loc	4 299 9 is_stmt 0               @ ../../../ThirdParty/mbedTLS/library/x509.c:299:9
	b	.LBB3_45
.Ltmp98:
.LBB3_30:
	@DEBUG_VALUE: mbedtls_x509_get_rsassa_pss_params:mgf_md <- $r6
	@DEBUG_VALUE: mbedtls_x509_get_rsassa_pss_params:salt_len <- $r5
	@DEBUG_VALUE: mbedtls_x509_get_rsassa_pss_params:end2 <- $r4
	@DEBUG_VALUE: mbedtls_x509_get_rsassa_pss_params:ret <- $r0
	@DEBUG_VALUE: mbedtls_x509_get_rsassa_pss_params:end <- [DW_OP_plus_uconst 12] [$sp+0]
	@DEBUG_VALUE: mbedtls_x509_get_rsassa_pss_params:p <- [DW_OP_plus_uconst 48, DW_OP_deref] $sp
	@DEBUG_VALUE: mbedtls_x509_get_rsassa_pss_params:params <- [DW_OP_LLVM_entry_value 1] $r0
	.loc	4 294 13 is_stmt 1              @ ../../../ThirdParty/mbedTLS/library/x509.c:294:13
	ldr	r0, [sp, #48]
.Ltmp99:
	@DEBUG_VALUE: mbedtls_x509_get_rsassa_pss_params:p <- $r0
	.loc	4 294 13 is_stmt 0              @ ../../../ThirdParty/mbedTLS/library/x509.c:294:13
	cmp	r0, r4
	ldr	r4, [sp, #12]                   @ 4-byte Reload
.Ltmp100:
	beq	.LBB3_32
.Ltmp101:
@ %bb.31:
	@DEBUG_VALUE: mbedtls_x509_get_rsassa_pss_params:mgf_md <- $r6
	@DEBUG_VALUE: mbedtls_x509_get_rsassa_pss_params:salt_len <- $r5
	@DEBUG_VALUE: mbedtls_x509_get_rsassa_pss_params:p <- $r0
	@DEBUG_VALUE: mbedtls_x509_get_rsassa_pss_params:end <- [DW_OP_plus_uconst 12] [$sp+0]
	@DEBUG_VALUE: mbedtls_x509_get_rsassa_pss_params:params <- [DW_OP_LLVM_entry_value 1] $r0
	.loc	4 0 13                          @ ../../../ThirdParty/mbedTLS/library/x509.c:0:13
	subs	r7, #102
	b	.LBB3_45
.Ltmp102:
.LBB3_32:
	@DEBUG_VALUE: mbedtls_x509_get_rsassa_pss_params:mgf_md <- $r6
	@DEBUG_VALUE: mbedtls_x509_get_rsassa_pss_params:salt_len <- $r5
	@DEBUG_VALUE: mbedtls_x509_get_rsassa_pss_params:end <- [DW_OP_plus_uconst 12] [$sp+0]
	@DEBUG_VALUE: mbedtls_x509_get_rsassa_pss_params:params <- [DW_OP_LLVM_entry_value 1] $r0
	mov	r5, r7
.Ltmp103:
	@DEBUG_VALUE: mbedtls_x509_get_rsassa_pss_params:salt_len <- [DW_OP_LLVM_entry_value 1] $r3
	.loc	4 301 9 is_stmt 1               @ ../../../ThirdParty/mbedTLS/library/x509.c:301:9
	ldr	r0, [sp, #48]
.Ltmp104:
	@DEBUG_VALUE: mbedtls_x509_get_rsassa_pss_params:p <- $r0
	.loc	4 301 9 is_stmt 0               @ ../../../ThirdParty/mbedTLS/library/x509.c:301:9
	cmp	r0, r4
	.loc	4 0 0                           @ ../../../ThirdParty/mbedTLS/library/x509.c:0:0
	ldr	r7, [sp, #8]                    @ 4-byte Reload
	.loc	4 301 9                         @ ../../../ThirdParty/mbedTLS/library/x509.c:301:9
	beq	.LBB3_45
.Ltmp105:
@ %bb.33:
	@DEBUG_VALUE: mbedtls_x509_get_rsassa_pss_params:mgf_md <- $r6
	@DEBUG_VALUE: mbedtls_x509_get_rsassa_pss_params:p <- $r0
	@DEBUG_VALUE: mbedtls_x509_get_rsassa_pss_params:end <- [DW_OP_plus_uconst 12] [$sp+0]
	@DEBUG_VALUE: mbedtls_x509_get_rsassa_pss_params:salt_len <- [DW_OP_LLVM_entry_value 1] $r3
	@DEBUG_VALUE: mbedtls_x509_get_rsassa_pss_params:params <- [DW_OP_LLVM_entry_value 1] $r0
	@DEBUG_VALUE: mbedtls_x509_get_rsassa_pss_params:p <- [DW_OP_plus_uconst 48, DW_OP_deref] $sp
	@DEBUG_VALUE: mbedtls_x509_get_rsassa_pss_params:len <- [DW_OP_plus_uconst 44, DW_OP_deref] $sp
	.loc	4 0 9                           @ ../../../ThirdParty/mbedTLS/library/x509.c:0:9
	add	r0, sp, #48
	add	r2, sp, #44
	movs	r3, #163
.Ltmp106:
	.loc	4 307 17 is_stmt 1              @ ../../../ThirdParty/mbedTLS/library/x509.c:307:17
	ldr	r1, [sp, #12]                   @ 4-byte Reload
	bl	mbedtls_asn1_get_tag
.Ltmp107:
	@DEBUG_VALUE: mbedtls_x509_get_rsassa_pss_params:ret <- $r0
	.loc	4 307 9 is_stmt 0               @ ../../../ThirdParty/mbedTLS/library/x509.c:307:9
	mov	r1, r0
	adds	r1, #98
	beq	.LBB3_42
.Ltmp108:
@ %bb.34:
	@DEBUG_VALUE: mbedtls_x509_get_rsassa_pss_params:mgf_md <- $r6
	@DEBUG_VALUE: mbedtls_x509_get_rsassa_pss_params:ret <- $r0
	@DEBUG_VALUE: mbedtls_x509_get_rsassa_pss_params:end <- [DW_OP_plus_uconst 12] [$sp+0]
	@DEBUG_VALUE: mbedtls_x509_get_rsassa_pss_params:p <- [DW_OP_plus_uconst 48, DW_OP_deref] $sp
	@DEBUG_VALUE: mbedtls_x509_get_rsassa_pss_params:len <- [DW_OP_plus_uconst 44, DW_OP_deref] $sp
	@DEBUG_VALUE: mbedtls_x509_get_rsassa_pss_params:salt_len <- [DW_OP_LLVM_entry_value 1] $r3
	@DEBUG_VALUE: mbedtls_x509_get_rsassa_pss_params:params <- [DW_OP_LLVM_entry_value 1] $r0
	cbnz	r0, .LBB3_37
.Ltmp109:
@ %bb.35:
	@DEBUG_VALUE: mbedtls_x509_get_rsassa_pss_params:mgf_md <- $r6
	@DEBUG_VALUE: mbedtls_x509_get_rsassa_pss_params:ret <- $r0
	@DEBUG_VALUE: mbedtls_x509_get_rsassa_pss_params:end <- [DW_OP_plus_uconst 12] [$sp+0]
	@DEBUG_VALUE: mbedtls_x509_get_rsassa_pss_params:p <- [DW_OP_plus_uconst 48, DW_OP_deref] $sp
	@DEBUG_VALUE: mbedtls_x509_get_rsassa_pss_params:len <- [DW_OP_plus_uconst 44, DW_OP_deref] $sp
	@DEBUG_VALUE: mbedtls_x509_get_rsassa_pss_params:salt_len <- [DW_OP_LLVM_entry_value 1] $r3
	@DEBUG_VALUE: mbedtls_x509_get_rsassa_pss_params:params <- [DW_OP_LLVM_entry_value 1] $r0
	.loc	4 312 20 is_stmt 1              @ ../../../ThirdParty/mbedTLS/library/x509.c:312:20
	ldr	r0, [sp, #44]
.Ltmp110:
	@DEBUG_VALUE: mbedtls_x509_get_rsassa_pss_params:len <- $r0
	.loc	4 312 16 is_stmt 0              @ ../../../ThirdParty/mbedTLS/library/x509.c:312:16
	ldr	r1, [sp, #48]
.Ltmp111:
	@DEBUG_VALUE: mbedtls_x509_get_rsassa_pss_params:p <- $r1
	.loc	4 312 18                        @ ../../../ThirdParty/mbedTLS/library/x509.c:312:18
	adds	r4, r1, r0
.Ltmp112:
	@DEBUG_VALUE: trailer_field <- [DW_OP_plus_uconst 16, DW_OP_deref] $sp
	@DEBUG_VALUE: mbedtls_x509_get_rsassa_pss_params:end2 <- $r4
	@DEBUG_VALUE: mbedtls_x509_get_rsassa_pss_params:p <- [DW_OP_plus_uconst 48, DW_OP_deref] $sp
	.loc	4 0 18                          @ ../../../ThirdParty/mbedTLS/library/x509.c:0:18
	add	r0, sp, #48
.Ltmp113:
	add	r2, sp, #16
.Ltmp114:
	.loc	4 314 21 is_stmt 1              @ ../../../ThirdParty/mbedTLS/library/x509.c:314:21
	mov	r1, r4
	bl	mbedtls_asn1_get_int
.Ltmp115:
	@DEBUG_VALUE: mbedtls_x509_get_rsassa_pss_params:ret <- $r0
	.loc	4 0 21 is_stmt 0                @ ../../../ThirdParty/mbedTLS/library/x509.c:0:21
	mov	r7, r5
.Ltmp116:
	.loc	4 314 13                        @ ../../../ThirdParty/mbedTLS/library/x509.c:314:13
	cbz	r0, .LBB3_38
.Ltmp117:
@ %bb.36:
	@DEBUG_VALUE: mbedtls_x509_get_rsassa_pss_params:mgf_md <- $r6
	@DEBUG_VALUE: mbedtls_x509_get_rsassa_pss_params:end2 <- $r4
	@DEBUG_VALUE: mbedtls_x509_get_rsassa_pss_params:ret <- $r0
	@DEBUG_VALUE: trailer_field <- [DW_OP_plus_uconst 16, DW_OP_deref] $sp
	@DEBUG_VALUE: mbedtls_x509_get_rsassa_pss_params:end <- [DW_OP_plus_uconst 12] [$sp+0]
	@DEBUG_VALUE: mbedtls_x509_get_rsassa_pss_params:p <- [DW_OP_plus_uconst 48, DW_OP_deref] $sp
	@DEBUG_VALUE: mbedtls_x509_get_rsassa_pss_params:salt_len <- [DW_OP_LLVM_entry_value 1] $r3
	@DEBUG_VALUE: mbedtls_x509_get_rsassa_pss_params:params <- [DW_OP_LLVM_entry_value 1] $r0
	.loc	4 315 50 is_stmt 1              @ ../../../ThirdParty/mbedTLS/library/x509.c:315:50
	adds	r7, r0, r7
	movs	r0, #0
.Ltmp118:
	.loc	4 0 50 is_stmt 0                @ ../../../ThirdParty/mbedTLS/library/x509.c:0:50
	b	.LBB3_41
.Ltmp119:
.LBB3_37:
	@DEBUG_VALUE: mbedtls_x509_get_rsassa_pss_params:mgf_md <- $r6
	@DEBUG_VALUE: mbedtls_x509_get_rsassa_pss_params:ret <- $r0
	@DEBUG_VALUE: mbedtls_x509_get_rsassa_pss_params:end <- [DW_OP_plus_uconst 12] [$sp+0]
	@DEBUG_VALUE: mbedtls_x509_get_rsassa_pss_params:p <- [DW_OP_plus_uconst 48, DW_OP_deref] $sp
	@DEBUG_VALUE: mbedtls_x509_get_rsassa_pss_params:len <- [DW_OP_plus_uconst 44, DW_OP_deref] $sp
	@DEBUG_VALUE: mbedtls_x509_get_rsassa_pss_params:salt_len <- [DW_OP_LLVM_entry_value 1] $r3
	@DEBUG_VALUE: mbedtls_x509_get_rsassa_pss_params:params <- [DW_OP_LLVM_entry_value 1] $r0
	.loc	4 325 46 is_stmt 1              @ ../../../ThirdParty/mbedTLS/library/x509.c:325:46
	adds	r7, r0, r5
	.loc	4 325 9 is_stmt 0               @ ../../../ThirdParty/mbedTLS/library/x509.c:325:9
	b	.LBB3_45
.Ltmp120:
.LBB3_38:
	@DEBUG_VALUE: mbedtls_x509_get_rsassa_pss_params:mgf_md <- $r6
	@DEBUG_VALUE: mbedtls_x509_get_rsassa_pss_params:end2 <- $r4
	@DEBUG_VALUE: mbedtls_x509_get_rsassa_pss_params:ret <- $r0
	@DEBUG_VALUE: trailer_field <- [DW_OP_plus_uconst 16, DW_OP_deref] $sp
	@DEBUG_VALUE: mbedtls_x509_get_rsassa_pss_params:end <- [DW_OP_plus_uconst 12] [$sp+0]
	@DEBUG_VALUE: mbedtls_x509_get_rsassa_pss_params:p <- [DW_OP_plus_uconst 48, DW_OP_deref] $sp
	@DEBUG_VALUE: mbedtls_x509_get_rsassa_pss_params:salt_len <- [DW_OP_LLVM_entry_value 1] $r3
	@DEBUG_VALUE: mbedtls_x509_get_rsassa_pss_params:params <- [DW_OP_LLVM_entry_value 1] $r0
	.loc	4 317 13 is_stmt 1              @ ../../../ThirdParty/mbedTLS/library/x509.c:317:13
	ldr	r0, [sp, #48]
.Ltmp121:
	@DEBUG_VALUE: mbedtls_x509_get_rsassa_pss_params:p <- $r0
	.loc	4 317 13 is_stmt 0              @ ../../../ThirdParty/mbedTLS/library/x509.c:317:13
	cmp	r0, r4
	beq	.LBB3_40
.Ltmp122:
@ %bb.39:
	@DEBUG_VALUE: mbedtls_x509_get_rsassa_pss_params:mgf_md <- $r6
	@DEBUG_VALUE: mbedtls_x509_get_rsassa_pss_params:end2 <- $r4
	@DEBUG_VALUE: mbedtls_x509_get_rsassa_pss_params:p <- $r0
	@DEBUG_VALUE: trailer_field <- [DW_OP_plus_uconst 16, DW_OP_deref] $sp
	@DEBUG_VALUE: mbedtls_x509_get_rsassa_pss_params:end <- [DW_OP_plus_uconst 12] [$sp+0]
	@DEBUG_VALUE: mbedtls_x509_get_rsassa_pss_params:salt_len <- [DW_OP_LLVM_entry_value 1] $r3
	@DEBUG_VALUE: mbedtls_x509_get_rsassa_pss_params:params <- [DW_OP_LLVM_entry_value 1] $r0
	.loc	4 0 13                          @ ../../../ThirdParty/mbedTLS/library/x509.c:0:13
	subs	r7, #102
	movs	r0, #0
.Ltmp123:
	b	.LBB3_41
.Ltmp124:
.LBB3_40:
	@DEBUG_VALUE: mbedtls_x509_get_rsassa_pss_params:mgf_md <- $r6
	@DEBUG_VALUE: mbedtls_x509_get_rsassa_pss_params:end2 <- $r4
	@DEBUG_VALUE: mbedtls_x509_get_rsassa_pss_params:p <- $r0
	@DEBUG_VALUE: trailer_field <- [DW_OP_plus_uconst 16, DW_OP_deref] $sp
	@DEBUG_VALUE: mbedtls_x509_get_rsassa_pss_params:end <- [DW_OP_plus_uconst 12] [$sp+0]
	@DEBUG_VALUE: mbedtls_x509_get_rsassa_pss_params:salt_len <- [DW_OP_LLVM_entry_value 1] $r3
	@DEBUG_VALUE: mbedtls_x509_get_rsassa_pss_params:params <- [DW_OP_LLVM_entry_value 1] $r0
	.loc	4 321 13 is_stmt 1              @ ../../../ThirdParty/mbedTLS/library/x509.c:321:13
	ldr	r0, [sp, #16]
.Ltmp125:
	@DEBUG_VALUE: trailer_field <- $r0
	.loc	4 321 27 is_stmt 0              @ ../../../ThirdParty/mbedTLS/library/x509.c:321:27
	subs	r1, r0, #1
	rsbs	r0, r1, #0
.Ltmp126:
	adcs	r0, r1
.Ltmp127:
.LBB3_41:
	@DEBUG_VALUE: mbedtls_x509_get_rsassa_pss_params:mgf_md <- $r6
	@DEBUG_VALUE: mbedtls_x509_get_rsassa_pss_params:end2 <- $r4
	@DEBUG_VALUE: mbedtls_x509_get_rsassa_pss_params:end <- [DW_OP_plus_uconst 12] [$sp+0]
	@DEBUG_VALUE: mbedtls_x509_get_rsassa_pss_params:salt_len <- [DW_OP_LLVM_entry_value 1] $r3
	@DEBUG_VALUE: mbedtls_x509_get_rsassa_pss_params:params <- [DW_OP_LLVM_entry_value 1] $r0
	.loc	4 0 27                          @ ../../../ThirdParty/mbedTLS/library/x509.c:0:27
	cbz	r0, .LBB3_45
.Ltmp128:
.LBB3_42:
	@DEBUG_VALUE: mbedtls_x509_get_rsassa_pss_params:mgf_md <- $r6
	@DEBUG_VALUE: mbedtls_x509_get_rsassa_pss_params:end <- [DW_OP_plus_uconst 12] [$sp+0]
	@DEBUG_VALUE: mbedtls_x509_get_rsassa_pss_params:salt_len <- [DW_OP_LLVM_entry_value 1] $r3
	@DEBUG_VALUE: mbedtls_x509_get_rsassa_pss_params:params <- [DW_OP_LLVM_entry_value 1] $r0
	.loc	4 327 9 is_stmt 1               @ ../../../ThirdParty/mbedTLS/library/x509.c:327:9
	ldr	r0, [sp, #48]
.Ltmp129:
	@DEBUG_VALUE: mbedtls_x509_get_rsassa_pss_params:p <- $r0
	.loc	4 327 9 is_stmt 0               @ ../../../ThirdParty/mbedTLS/library/x509.c:327:9
	ldr	r1, [sp, #12]                   @ 4-byte Reload
	cmp	r0, r1
	beq	.LBB3_44
.Ltmp130:
@ %bb.43:
	@DEBUG_VALUE: mbedtls_x509_get_rsassa_pss_params:mgf_md <- $r6
	@DEBUG_VALUE: mbedtls_x509_get_rsassa_pss_params:p <- $r0
	@DEBUG_VALUE: mbedtls_x509_get_rsassa_pss_params:end <- [DW_OP_plus_uconst 12] [$sp+0]
	@DEBUG_VALUE: mbedtls_x509_get_rsassa_pss_params:salt_len <- [DW_OP_LLVM_entry_value 1] $r3
	@DEBUG_VALUE: mbedtls_x509_get_rsassa_pss_params:params <- [DW_OP_LLVM_entry_value 1] $r0
	.loc	4 0 9                           @ ../../../ThirdParty/mbedTLS/library/x509.c:0:9
	mov	r7, r5
	subs	r7, #102
	b	.LBB3_45
.Ltmp131:
.LBB3_44:
	@DEBUG_VALUE: mbedtls_x509_get_rsassa_pss_params:mgf_md <- $r6
	@DEBUG_VALUE: mbedtls_x509_get_rsassa_pss_params:p <- $r0
	@DEBUG_VALUE: mbedtls_x509_get_rsassa_pss_params:end <- [DW_OP_plus_uconst 12] [$sp+0]
	@DEBUG_VALUE: mbedtls_x509_get_rsassa_pss_params:salt_len <- [DW_OP_LLVM_entry_value 1] $r3
	@DEBUG_VALUE: mbedtls_x509_get_rsassa_pss_params:params <- [DW_OP_LLVM_entry_value 1] $r0
	movs	r7, #0
.Ltmp132:
.LBB3_45:
	.loc	4 332 1 is_stmt 1               @ ../../../ThirdParty/mbedTLS/library/x509.c:332:1
	mov	r0, r7
	add	sp, #52
	pop	{r4, r5, r6, r7, pc}
.Ltmp133:
	.p2align	2
@ %bb.46:
	.loc	4 0 1 is_stmt 0                 @ ../../../ThirdParty/mbedTLS/library/x509.c:0:1
__arm_cp.3_0:
	.long	4294958336                      @ 0xffffdd00
.Lcpi_end1:
	.size	__arm_cp.3_0, .Lcpi_end1-__arm_cp.3_0
__arm_cp.3_1:
	.long	4294958930                      @ 0xffffdf52
.Lcpi_end2:
	.size	__arm_cp.3_1, .Lcpi_end2-__arm_cp.3_1
.LCPI3_2:
.L.str:
	.asciz	"*\206H\206\367\r\001\001\b\000\000"
.Lfunc_end3:
	.size	mbedtls_x509_get_rsassa_pss_params, .Lfunc_end3-mbedtls_x509_get_rsassa_pss_params
	.cfi_endproc
	.cantunwind
	.fnend
                                        @ -- End function
	.section	.text.x509_get_hash_alg,"ax",%progbits
	.p2align	2                               @ -- Begin function x509_get_hash_alg
	.type	x509_get_hash_alg,%function
	.code	16                              @ @x509_get_hash_alg
	.thumb_func
x509_get_hash_alg:
.Lfunc_begin4:
	.loc	4 143 0 is_stmt 1               @ ../../../ThirdParty/mbedTLS/library/x509.c:143:0
	.fnstart
	.cfi_startproc
@ %bb.0:
	@DEBUG_VALUE: x509_get_hash_alg:alg <- $r0
	@DEBUG_VALUE: x509_get_hash_alg:md_alg <- $r1
	.save	{r4, r5, r6, lr}
	push	{r4, r5, r6, lr}
	.cfi_def_cfa_offset 16
	.cfi_offset lr, -4
	.cfi_offset r6, -8
	.cfi_offset r5, -12
	.cfi_offset r4, -16
	.pad	#24
	sub	sp, #24
	.cfi_def_cfa_offset 40
	mov	r6, r1
	ldr	r4, __arm_cp.4_0
.Ltmp134:
	@DEBUG_VALUE: x509_get_hash_alg:md_alg <- $r6
	@DEBUG_VALUE: x509_get_hash_alg:alg <- $r0
	.loc	4 151 14 prologue_end           @ ../../../ThirdParty/mbedTLS/library/x509.c:151:14
	ldr	r1, [r0]
.Ltmp135:
	.loc	4 151 9 is_stmt 0               @ ../../../ThirdParty/mbedTLS/library/x509.c:151:9
	cmp	r1, #48
	bne	.LBB4_4
.Ltmp136:
@ %bb.1:
	@DEBUG_VALUE: x509_get_hash_alg:md_alg <- $r6
	@DEBUG_VALUE: x509_get_hash_alg:alg <- $r0
	@DEBUG_VALUE: x509_get_hash_alg:p <- undef
	.loc	4 156 20 is_stmt 1              @ ../../../ThirdParty/mbedTLS/library/x509.c:156:20
	ldr	r1, [r0, #4]
	.loc	4 155 32                        @ ../../../ThirdParty/mbedTLS/library/x509.c:155:32
	ldr	r0, [r0, #8]
.Ltmp137:
	@DEBUG_VALUE: x509_get_hash_alg:alg <- [DW_OP_LLVM_entry_value 1] $r0
	.loc	4 155 7 is_stmt 0               @ ../../../ThirdParty/mbedTLS/library/x509.c:155:7
	str	r0, [sp, #20]
.Ltmp138:
	@DEBUG_VALUE: x509_get_hash_alg:end <- undef
	.loc	4 158 9 is_stmt 1               @ ../../../ThirdParty/mbedTLS/library/x509.c:158:9
	cmp	r1, #1
	blt	.LBB4_5
.Ltmp139:
@ %bb.2:
	@DEBUG_VALUE: x509_get_hash_alg:md_alg <- $r6
	@DEBUG_VALUE: x509_get_hash_alg:alg <- [DW_OP_LLVM_entry_value 1] $r0
	.loc	4 0 0 is_stmt 0                 @ ../../../ThirdParty/mbedTLS/library/x509.c:0:0
	adds	r5, r0, r1
.Ltmp140:
	@DEBUG_VALUE: x509_get_hash_alg:end <- $r5
	.loc	4 163 18 is_stmt 1              @ ../../../ThirdParty/mbedTLS/library/x509.c:163:18
	ldrb	r0, [r0]
	.loc	4 163 16 is_stmt 0              @ ../../../ThirdParty/mbedTLS/library/x509.c:163:16
	str	r0, [sp, #8]
.Ltmp141:
	@DEBUG_VALUE: x509_get_hash_alg:p <- [DW_OP_plus_uconst 20, DW_OP_deref] $sp
	.loc	4 0 16                          @ ../../../ThirdParty/mbedTLS/library/x509.c:0:16
	add	r0, sp, #8
.Ltmp142:
	.loc	4 165 56 is_stmt 1              @ ../../../ThirdParty/mbedTLS/library/x509.c:165:56
	adds	r2, r0, #4
	add	r0, sp, #20
	movs	r3, #6
	.loc	4 165 17 is_stmt 0              @ ../../../ThirdParty/mbedTLS/library/x509.c:165:17
	mov	r1, r5
	bl	mbedtls_asn1_get_tag
.Ltmp143:
	@DEBUG_VALUE: x509_get_hash_alg:ret <- $r0
	.loc	4 165 9                         @ ../../../ThirdParty/mbedTLS/library/x509.c:165:9
	cbz	r0, .LBB4_6
.Ltmp144:
@ %bb.3:
	@DEBUG_VALUE: x509_get_hash_alg:md_alg <- $r6
	@DEBUG_VALUE: x509_get_hash_alg:end <- $r5
	@DEBUG_VALUE: x509_get_hash_alg:ret <- $r0
	@DEBUG_VALUE: x509_get_hash_alg:p <- [DW_OP_plus_uconst 20, DW_OP_deref] $sp
	@DEBUG_VALUE: x509_get_hash_alg:alg <- [DW_OP_LLVM_entry_value 1] $r0
	.loc	4 166 46 is_stmt 1              @ ../../../ThirdParty/mbedTLS/library/x509.c:166:46
	adds	r4, r0, r4
	.loc	4 166 9 is_stmt 0               @ ../../../ThirdParty/mbedTLS/library/x509.c:166:9
	b	.LBB4_8
.Ltmp145:
.LBB4_4:
	@DEBUG_VALUE: x509_get_hash_alg:md_alg <- $r6
	@DEBUG_VALUE: x509_get_hash_alg:alg <- $r0
	.loc	4 0 9                           @ ../../../ThirdParty/mbedTLS/library/x509.c:0:9
	subs	r4, #98
	b	.LBB4_8
.Ltmp146:
.LBB4_5:
	@DEBUG_VALUE: x509_get_hash_alg:md_alg <- $r6
	@DEBUG_VALUE: x509_get_hash_alg:alg <- [DW_OP_LLVM_entry_value 1] $r0
	subs	r4, #96
	b	.LBB4_8
.Ltmp147:
.LBB4_6:
	@DEBUG_VALUE: x509_get_hash_alg:md_alg <- $r6
	@DEBUG_VALUE: x509_get_hash_alg:end <- $r5
	@DEBUG_VALUE: x509_get_hash_alg:ret <- $r0
	@DEBUG_VALUE: x509_get_hash_alg:p <- [DW_OP_plus_uconst 20, DW_OP_deref] $sp
	@DEBUG_VALUE: x509_get_hash_alg:alg <- [DW_OP_LLVM_entry_value 1] $r0
	.loc	4 168 16 is_stmt 1              @ ../../../ThirdParty/mbedTLS/library/x509.c:168:16
	ldr	r0, [sp, #20]
.Ltmp148:
	@DEBUG_VALUE: x509_get_hash_alg:p <- undef
	.loc	4 168 14 is_stmt 0              @ ../../../ThirdParty/mbedTLS/library/x509.c:168:14
	str	r0, [sp, #16]
	.loc	4 169 17 is_stmt 1              @ ../../../ThirdParty/mbedTLS/library/x509.c:169:17
	ldr	r1, [sp, #12]
.Ltmp149:
	@DEBUG_VALUE: x509_get_hash_alg:p <- $r0
	.loc	4 169 7 is_stmt 0               @ ../../../ThirdParty/mbedTLS/library/x509.c:169:7
	adds	r0, r0, r1
.Ltmp150:
	@DEBUG_VALUE: x509_get_hash_alg:p <- $r0
	str	r0, [sp, #20]
	add	r0, sp, #8
.Ltmp151:
	.loc	4 172 17 is_stmt 1              @ ../../../ThirdParty/mbedTLS/library/x509.c:172:17
	mov	r1, r6
	bl	mbedtls_oid_get_md_alg
.Ltmp152:
	@DEBUG_VALUE: x509_get_hash_alg:ret <- $r0
	.loc	4 172 9 is_stmt 0               @ ../../../ThirdParty/mbedTLS/library/x509.c:172:9
	cbz	r0, .LBB4_9
.Ltmp153:
@ %bb.7:
	@DEBUG_VALUE: x509_get_hash_alg:md_alg <- $r6
	@DEBUG_VALUE: x509_get_hash_alg:end <- $r5
	@DEBUG_VALUE: x509_get_hash_alg:ret <- $r0
	@DEBUG_VALUE: x509_get_hash_alg:alg <- [DW_OP_LLVM_entry_value 1] $r0
	.loc	4 173 46 is_stmt 1              @ ../../../ThirdParty/mbedTLS/library/x509.c:173:46
	adds	r4, r0, r4
.Ltmp154:
.LBB4_8:
	@DEBUG_VALUE: x509_get_hash_alg:md_alg <- $r6
	.loc	4 187 1                         @ ../../../ThirdParty/mbedTLS/library/x509.c:187:1
	mov	r0, r4
	add	sp, #24
	pop	{r4, r5, r6, pc}
.Ltmp155:
.LBB4_9:
	@DEBUG_VALUE: x509_get_hash_alg:md_alg <- $r6
	@DEBUG_VALUE: x509_get_hash_alg:end <- $r5
	@DEBUG_VALUE: x509_get_hash_alg:ret <- $r0
	@DEBUG_VALUE: x509_get_hash_alg:alg <- [DW_OP_LLVM_entry_value 1] $r0
	.loc	4 176 9                         @ ../../../ThirdParty/mbedTLS/library/x509.c:176:9
	ldr	r0, [sp, #20]
.Ltmp156:
	@DEBUG_VALUE: x509_get_hash_alg:p <- $r0
	.loc	4 176 9 is_stmt 0               @ ../../../ThirdParty/mbedTLS/library/x509.c:176:9
	cmp	r0, r5
	beq	.LBB4_12
.Ltmp157:
@ %bb.10:
	@DEBUG_VALUE: x509_get_hash_alg:md_alg <- $r6
	@DEBUG_VALUE: x509_get_hash_alg:end <- $r5
	@DEBUG_VALUE: x509_get_hash_alg:p <- $r0
	@DEBUG_VALUE: x509_get_hash_alg:alg <- [DW_OP_LLVM_entry_value 1] $r0
	@DEBUG_VALUE: x509_get_hash_alg:p <- [DW_OP_plus_uconst 20, DW_OP_deref] $sp
	@DEBUG_VALUE: x509_get_hash_alg:len <- [DW_OP_plus_uconst 4, DW_OP_deref] $sp
	.loc	4 0 9                           @ ../../../ThirdParty/mbedTLS/library/x509.c:0:9
	add	r0, sp, #20
	add	r2, sp, #4
	movs	r3, #5
.Ltmp158:
	.loc	4 179 17 is_stmt 1              @ ../../../ThirdParty/mbedTLS/library/x509.c:179:17
	mov	r1, r5
	bl	mbedtls_asn1_get_tag
.Ltmp159:
	@DEBUG_VALUE: x509_get_hash_alg:ret <- $r0
	.loc	4 0 17 is_stmt 0                @ ../../../ThirdParty/mbedTLS/library/x509.c:0:17
	ldr	r1, [sp, #4]
.Ltmp160:
	@DEBUG_VALUE: x509_get_hash_alg:len <- $r1
	.loc	4 179 81                        @ ../../../ThirdParty/mbedTLS/library/x509.c:179:81
	orrs	r1, r0
.Ltmp161:
	beq	.LBB4_13
.Ltmp162:
@ %bb.11:
	@DEBUG_VALUE: x509_get_hash_alg:md_alg <- $r6
	@DEBUG_VALUE: x509_get_hash_alg:end <- $r5
	@DEBUG_VALUE: x509_get_hash_alg:ret <- $r0
	@DEBUG_VALUE: x509_get_hash_alg:p <- [DW_OP_plus_uconst 20, DW_OP_deref] $sp
	@DEBUG_VALUE: x509_get_hash_alg:alg <- [DW_OP_LLVM_entry_value 1] $r0
	.loc	4 180 46 is_stmt 1              @ ../../../ThirdParty/mbedTLS/library/x509.c:180:46
	adds	r4, r0, r4
	.loc	4 180 9 is_stmt 0               @ ../../../ThirdParty/mbedTLS/library/x509.c:180:9
	b	.LBB4_8
.Ltmp163:
.LBB4_12:
	@DEBUG_VALUE: x509_get_hash_alg:md_alg <- $r6
	@DEBUG_VALUE: x509_get_hash_alg:end <- $r5
	@DEBUG_VALUE: x509_get_hash_alg:p <- $r0
	@DEBUG_VALUE: x509_get_hash_alg:alg <- [DW_OP_LLVM_entry_value 1] $r0
	.loc	4 0 9                           @ ../../../ThirdParty/mbedTLS/library/x509.c:0:9
	movs	r4, #0
	b	.LBB4_8
.Ltmp164:
.LBB4_13:
	@DEBUG_VALUE: x509_get_hash_alg:md_alg <- $r6
	@DEBUG_VALUE: x509_get_hash_alg:end <- $r5
	@DEBUG_VALUE: x509_get_hash_alg:ret <- $r0
	@DEBUG_VALUE: x509_get_hash_alg:p <- [DW_OP_plus_uconst 20, DW_OP_deref] $sp
	@DEBUG_VALUE: x509_get_hash_alg:alg <- [DW_OP_LLVM_entry_value 1] $r0
	.loc	4 182 9 is_stmt 1               @ ../../../ThirdParty/mbedTLS/library/x509.c:182:9
	ldr	r0, [sp, #20]
.Ltmp165:
	@DEBUG_VALUE: x509_get_hash_alg:p <- $r0
	.loc	4 182 9 is_stmt 0               @ ../../../ThirdParty/mbedTLS/library/x509.c:182:9
	cmp	r0, r5
	beq	.LBB4_15
.Ltmp166:
@ %bb.14:
	@DEBUG_VALUE: x509_get_hash_alg:md_alg <- $r6
	@DEBUG_VALUE: x509_get_hash_alg:end <- $r5
	@DEBUG_VALUE: x509_get_hash_alg:p <- $r0
	@DEBUG_VALUE: x509_get_hash_alg:alg <- [DW_OP_LLVM_entry_value 1] $r0
	.loc	4 0 9                           @ ../../../ThirdParty/mbedTLS/library/x509.c:0:9
	subs	r4, #102
	b	.LBB4_8
.Ltmp167:
.LBB4_15:
	@DEBUG_VALUE: x509_get_hash_alg:md_alg <- $r6
	@DEBUG_VALUE: x509_get_hash_alg:end <- $r5
	@DEBUG_VALUE: x509_get_hash_alg:p <- $r0
	@DEBUG_VALUE: x509_get_hash_alg:alg <- [DW_OP_LLVM_entry_value 1] $r0
	movs	r4, #0
	b	.LBB4_8
.Ltmp168:
	.p2align	2
@ %bb.16:
__arm_cp.4_0:
	.long	4294958336                      @ 0xffffdd00
.Lcpi_end3:
	.size	__arm_cp.4_0, .Lcpi_end3-__arm_cp.4_0
.Lfunc_end4:
	.size	x509_get_hash_alg, .Lfunc_end4-x509_get_hash_alg
	.cfi_endproc
	.cantunwind
	.fnend
                                        @ -- End function
	.section	.text.mbedtls_x509_get_name,"ax",%progbits
	.hidden	mbedtls_x509_get_name           @ -- Begin function mbedtls_x509_get_name
	.globl	mbedtls_x509_get_name
	.p2align	2
	.type	mbedtls_x509_get_name,%function
	.code	16                              @ @mbedtls_x509_get_name
	.thumb_func
mbedtls_x509_get_name:
.Lfunc_begin5:
	.loc	4 420 0 is_stmt 1               @ ../../../ThirdParty/mbedTLS/library/x509.c:420:0
	.fnstart
	.cfi_startproc
@ %bb.0:
	@DEBUG_VALUE: mbedtls_x509_get_name:p <- $r0
	@DEBUG_VALUE: mbedtls_x509_get_name:end <- $r1
	@DEBUG_VALUE: mbedtls_x509_get_name:cur <- $r2
	.save	{r4, r5, r6, r7, lr}
	push	{r4, r5, r6, r7, lr}
	.cfi_def_cfa_offset 20
	.cfi_offset lr, -4
	.cfi_offset r7, -8
	.cfi_offset r6, -12
	.cfi_offset r5, -16
	.cfi_offset r4, -20
	.pad	#12
	sub	sp, #12
	.cfi_def_cfa_offset 32
	mov	r6, r2
.Ltmp169:
	@DEBUG_VALUE: mbedtls_x509_get_name:cur <- $r6
	mov	r7, r1
	mov	r5, r0
.Ltmp170:
	@DEBUG_VALUE: mbedtls_x509_get_name:set_len <- [DW_OP_plus_uconst 8, DW_OP_deref] $sp
	@DEBUG_VALUE: mbedtls_x509_get_name:cur <- undef
	@DEBUG_VALUE: mbedtls_x509_get_name:end <- $r7
	@DEBUG_VALUE: mbedtls_x509_get_name:p <- $r5
	add	r2, sp, #8
	movs	r3, #49
.Ltmp171:
	.loc	4 431 21 prologue_end           @ ../../../ThirdParty/mbedTLS/library/x509.c:431:21
	bl	mbedtls_asn1_get_tag
.Ltmp172:
	@DEBUG_VALUE: mbedtls_x509_get_name:ret <- $r0
	.loc	4 431 13 is_stmt 0              @ ../../../ThirdParty/mbedTLS/library/x509.c:431:13
	cbz	r0, .LBB5_3
.Ltmp173:
.LBB5_1:
	@DEBUG_VALUE: mbedtls_x509_get_name:p <- $r5
	@DEBUG_VALUE: mbedtls_x509_get_name:ret <- $r0
	@DEBUG_VALUE: mbedtls_x509_get_name:set_len <- [DW_OP_plus_uconst 8, DW_OP_deref] $sp
	.loc	4 433 51 is_stmt 1              @ ../../../ThirdParty/mbedTLS/library/x509.c:433:51
	movw	r1, #9088
	subs	r0, r0, r1
.Ltmp174:
.LBB5_2:
	@DEBUG_VALUE: mbedtls_x509_get_name:p <- $r5
	.loc	4 469 1                         @ ../../../ThirdParty/mbedTLS/library/x509.c:469:1
	add	sp, #12
	pop	{r4, r5, r6, r7, pc}
.Ltmp175:
.LBB5_3:
	@DEBUG_VALUE: mbedtls_x509_get_name:end <- $r7
	@DEBUG_VALUE: mbedtls_x509_get_name:p <- $r5
	@DEBUG_VALUE: mbedtls_x509_get_name:ret <- $r0
	@DEBUG_VALUE: mbedtls_x509_get_name:set_len <- [DW_OP_plus_uconst 8, DW_OP_deref] $sp
	.loc	4 426 5                         @ ../../../ThirdParty/mbedTLS/library/x509.c:426:5
	str	r7, [sp, #4]                    @ 4-byte Spill
.Ltmp176:
	@DEBUG_VALUE: mbedtls_x509_get_name:end <- [DW_OP_plus_uconst 4] [$sp+0]
.LBB5_4:                                @ =>This Loop Header: Depth=1
                                        @     Child Loop BB5_6 Depth 2
	@DEBUG_VALUE: mbedtls_x509_get_name:p <- $r5
	@DEBUG_VALUE: mbedtls_x509_get_name:ret <- $r0
	@DEBUG_VALUE: mbedtls_x509_get_name:set_len <- [DW_OP_plus_uconst 8, DW_OP_deref] $sp
	@DEBUG_VALUE: mbedtls_x509_get_name:cur <- $r6
	.loc	4 435 20                        @ ../../../ThirdParty/mbedTLS/library/x509.c:435:20
	ldr	r0, [r5]
.Ltmp177:
	.loc	4 435 25 is_stmt 0              @ ../../../ThirdParty/mbedTLS/library/x509.c:435:25
	ldr	r1, [sp, #8]
.Ltmp178:
	@DEBUG_VALUE: mbedtls_x509_get_name:set_len <- $r1
	.loc	4 435 23                        @ ../../../ThirdParty/mbedTLS/library/x509.c:435:23
	adds	r7, r0, r1
.Ltmp179:
	@DEBUG_VALUE: mbedtls_x509_get_name:end_set <- $r7
	.loc	4 439 25 is_stmt 1              @ ../../../ThirdParty/mbedTLS/library/x509.c:439:25
	mov	r0, r5
	mov	r1, r7
.Ltmp180:
	mov	r2, r6
	bl	x509_get_attr_type_value
.Ltmp181:
	@DEBUG_VALUE: mbedtls_x509_get_name:ret <- $r0
	.loc	4 439 17 is_stmt 0              @ ../../../ThirdParty/mbedTLS/library/x509.c:439:17
	cmp	r0, #0
	bne	.LBB5_2
.Ltmp182:
@ %bb.5:                                @   in Loop: Header=BB5_4 Depth=1
	@DEBUG_VALUE: mbedtls_x509_get_name:end_set <- $r7
	@DEBUG_VALUE: mbedtls_x509_get_name:cur <- $r6
	@DEBUG_VALUE: mbedtls_x509_get_name:p <- $r5
	@DEBUG_VALUE: mbedtls_x509_get_name:ret <- $r0
	.loc	4 0 17                          @ ../../../ThirdParty/mbedTLS/library/x509.c:0:17
	mov	r4, r6
.Ltmp183:
	@DEBUG_VALUE: mbedtls_x509_get_name:cur <- $r4
	@DEBUG_VALUE: mbedtls_x509_get_name:cur <- $r4
.LBB5_6:                                @   Parent Loop BB5_4 Depth=1
                                        @ =>  This Inner Loop Header: Depth=2
	@DEBUG_VALUE: mbedtls_x509_get_name:end_set <- $r7
	@DEBUG_VALUE: mbedtls_x509_get_name:p <- $r5
	@DEBUG_VALUE: mbedtls_x509_get_name:cur <- $r4
	@DEBUG_VALUE: mbedtls_x509_get_name:ret <- $r0
	@DEBUG_VALUE: mbedtls_x509_get_name:cur <- $r4
	.loc	4 442 17 is_stmt 1              @ ../../../ThirdParty/mbedTLS/library/x509.c:442:17
	ldr	r0, [r5]
.Ltmp184:
	.loc	4 442 17 is_stmt 0              @ ../../../ThirdParty/mbedTLS/library/x509.c:442:17
	cmp	r0, r7
	beq	.LBB5_9
.Ltmp185:
@ %bb.7:                                @   in Loop: Header=BB5_6 Depth=2
	@DEBUG_VALUE: mbedtls_x509_get_name:end_set <- $r7
	@DEBUG_VALUE: mbedtls_x509_get_name:p <- $r5
	@DEBUG_VALUE: mbedtls_x509_get_name:cur <- $r4
	.loc	4 0 17                          @ ../../../ThirdParty/mbedTLS/library/x509.c:0:17
	movs	r0, #1
	.loc	4 446 30 is_stmt 1              @ ../../../ThirdParty/mbedTLS/library/x509.c:446:30
	strb	r0, [r4, #28]
	movs	r1, #32
	.loc	4 448 25                        @ ../../../ThirdParty/mbedTLS/library/x509.c:448:25
	bl	calloc
	.loc	4 448 23 is_stmt 0              @ ../../../ThirdParty/mbedTLS/library/x509.c:448:23
	str	r0, [r4, #24]
	.loc	4 450 17 is_stmt 1              @ ../../../ThirdParty/mbedTLS/library/x509.c:450:17
	cbz	r0, .LBB5_12
.Ltmp186:
@ %bb.8:                                @   in Loop: Header=BB5_6 Depth=2
	@DEBUG_VALUE: mbedtls_x509_get_name:end_set <- $r7
	@DEBUG_VALUE: mbedtls_x509_get_name:p <- $r5
	@DEBUG_VALUE: mbedtls_x509_get_name:cur <- $r4
	.loc	4 0 0 is_stmt 0                 @ ../../../ThirdParty/mbedTLS/library/x509.c:0:0
	mov	r6, r0
.Ltmp187:
	@DEBUG_VALUE: mbedtls_x509_get_name:cur <- $r6
	.loc	4 439 25 is_stmt 1              @ ../../../ThirdParty/mbedTLS/library/x509.c:439:25
	mov	r0, r5
	mov	r1, r7
	mov	r2, r6
	bl	x509_get_attr_type_value
.Ltmp188:
	@DEBUG_VALUE: mbedtls_x509_get_name:ret <- $r0
	.loc	4 439 17 is_stmt 0              @ ../../../ThirdParty/mbedTLS/library/x509.c:439:17
	cmp	r0, #0
	mov	r4, r6
.Ltmp189:
	@DEBUG_VALUE: mbedtls_x509_get_name:cur <- $r4
	@DEBUG_VALUE: mbedtls_x509_get_name:cur <- $r4
	@DEBUG_VALUE: mbedtls_x509_get_name:cur <- $r4
	.loc	4 0 17                          @ ../../../ThirdParty/mbedTLS/library/x509.c:0:17
	beq	.LBB5_6
	b	.LBB5_2
.Ltmp190:
.LBB5_9:                                @   in Loop: Header=BB5_4 Depth=1
	@DEBUG_VALUE: mbedtls_x509_get_name:end_set <- $r7
	@DEBUG_VALUE: mbedtls_x509_get_name:p <- $r5
	@DEBUG_VALUE: mbedtls_x509_get_name:cur <- $r4
	@DEBUG_VALUE: mbedtls_x509_get_name:cur <- $r4
	ldr	r7, [sp, #4]                    @ 4-byte Reload
.Ltmp191:
	@DEBUG_VALUE: mbedtls_x509_get_name:end <- $r7
	.loc	4 459 13 is_stmt 1              @ ../../../ThirdParty/mbedTLS/library/x509.c:459:13
	cmp	r0, r7
	beq	.LBB5_13
.Ltmp192:
@ %bb.10:                               @   in Loop: Header=BB5_4 Depth=1
	@DEBUG_VALUE: mbedtls_x509_get_name:p <- $r5
	@DEBUG_VALUE: mbedtls_x509_get_name:cur <- $r4
	.loc	4 0 13 is_stmt 0                @ ../../../ThirdParty/mbedTLS/library/x509.c:0:13
	movs	r0, #1
	movs	r1, #32
	.loc	4 462 21 is_stmt 1              @ ../../../ThirdParty/mbedTLS/library/x509.c:462:21
	bl	calloc
	.loc	4 462 19 is_stmt 0              @ ../../../ThirdParty/mbedTLS/library/x509.c:462:19
	str	r0, [r4, #24]
	.loc	4 464 13 is_stmt 1              @ ../../../ThirdParty/mbedTLS/library/x509.c:464:13
	cbz	r0, .LBB5_12
.Ltmp193:
@ %bb.11:                               @   in Loop: Header=BB5_4 Depth=1
	@DEBUG_VALUE: mbedtls_x509_get_name:p <- $r5
	@DEBUG_VALUE: mbedtls_x509_get_name:cur <- $r4
	.loc	4 0 0 is_stmt 0                 @ ../../../ThirdParty/mbedTLS/library/x509.c:0:0
	mov	r6, r0
.Ltmp194:
	@DEBUG_VALUE: mbedtls_x509_get_name:set_len <- [DW_OP_plus_uconst 8, DW_OP_deref] $sp
	add	r2, sp, #8
	movs	r3, #49
.Ltmp195:
	.loc	4 431 21 is_stmt 1              @ ../../../ThirdParty/mbedTLS/library/x509.c:431:21
	mov	r0, r5
	mov	r1, r7
	bl	mbedtls_asn1_get_tag
.Ltmp196:
	@DEBUG_VALUE: mbedtls_x509_get_name:ret <- $r0
	@DEBUG_VALUE: mbedtls_x509_get_name:cur <- $r6
	.loc	4 431 13 is_stmt 0              @ ../../../ThirdParty/mbedTLS/library/x509.c:431:13
	cmp	r0, #0
	beq	.LBB5_4
	b	.LBB5_1
.Ltmp197:
.LBB5_12:
	@DEBUG_VALUE: mbedtls_x509_get_name:p <- $r5
	@DEBUG_VALUE: mbedtls_x509_get_name:cur <- $r4
	.loc	4 0 0                           @ ../../../ThirdParty/mbedTLS/library/x509.c:0:0
	ldr	r0, __arm_cp.5_0
.Ltmp198:
	.loc	4 469 1 is_stmt 1               @ ../../../ThirdParty/mbedTLS/library/x509.c:469:1
	add	sp, #12
	pop	{r4, r5, r6, r7, pc}
.Ltmp199:
.LBB5_13:
	@DEBUG_VALUE: mbedtls_x509_get_name:p <- $r5
	@DEBUG_VALUE: mbedtls_x509_get_name:cur <- $r4
	.loc	4 0 1 is_stmt 0                 @ ../../../ThirdParty/mbedTLS/library/x509.c:0:1
	movs	r0, #0
	.loc	4 469 1                         @ ../../../ThirdParty/mbedTLS/library/x509.c:469:1
	add	sp, #12
	pop	{r4, r5, r6, r7, pc}
.Ltmp200:
	.p2align	2
@ %bb.14:
	.loc	4 0 1                           @ ../../../ThirdParty/mbedTLS/library/x509.c:0:1
__arm_cp.5_0:
	.long	4294956928                      @ 0xffffd780
.Lcpi_end4:
	.size	__arm_cp.5_0, .Lcpi_end4-__arm_cp.5_0
.Lfunc_end5:
	.size	mbedtls_x509_get_name, .Lfunc_end5-mbedtls_x509_get_name
	.cfi_endproc
	.cantunwind
	.fnend
                                        @ -- End function
	.section	.text.x509_get_attr_type_value,"ax",%progbits
	.p2align	2                               @ -- Begin function x509_get_attr_type_value
	.type	x509_get_attr_type_value,%function
	.code	16                              @ @x509_get_attr_type_value
	.thumb_func
x509_get_attr_type_value:
.Lfunc_begin6:
	.loc	4 347 0 is_stmt 1               @ ../../../ThirdParty/mbedTLS/library/x509.c:347:0
	.fnstart
	.cfi_startproc
@ %bb.0:
	@DEBUG_VALUE: x509_get_attr_type_value:p <- $r0
	@DEBUG_VALUE: x509_get_attr_type_value:end <- $r1
	@DEBUG_VALUE: x509_get_attr_type_value:cur <- $r2
	.save	{r4, r5, r6, r7, lr}
	push	{r4, r5, r6, r7, lr}
	.cfi_def_cfa_offset 20
	.cfi_offset lr, -4
	.cfi_offset r7, -8
	.cfi_offset r6, -12
	.cfi_offset r5, -16
	.cfi_offset r4, -20
	.pad	#4
	sub	sp, #4
	.cfi_def_cfa_offset 24
	mov	r4, r2
	mov	r6, r1
	mov	r5, r0
.Ltmp201:
	@DEBUG_VALUE: x509_get_attr_type_value:len <- [DW_OP_deref] $sp
	@DEBUG_VALUE: x509_get_attr_type_value:cur <- $r4
	@DEBUG_VALUE: x509_get_attr_type_value:end <- $r6
	@DEBUG_VALUE: x509_get_attr_type_value:p <- $r5
	mov	r2, sp
	movs	r3, #48
.Ltmp202:
	.loc	4 353 17 prologue_end           @ ../../../ThirdParty/mbedTLS/library/x509.c:353:17
	bl	mbedtls_asn1_get_tag
.Ltmp203:
	@DEBUG_VALUE: x509_get_attr_type_value:ret <- $r0
	.loc	4 0 17 is_stmt 0                @ ../../../ThirdParty/mbedTLS/library/x509.c:0:17
	ldr	r7, __arm_cp.6_0
.Ltmp204:
	.loc	4 353 9                         @ ../../../ThirdParty/mbedTLS/library/x509.c:353:9
	cbz	r0, .LBB6_2
.Ltmp205:
.LBB6_1:
	@DEBUG_VALUE: x509_get_attr_type_value:end <- $r6
	@DEBUG_VALUE: x509_get_attr_type_value:p <- $r5
	@DEBUG_VALUE: x509_get_attr_type_value:cur <- $r4
	@DEBUG_VALUE: x509_get_attr_type_value:ret <- $r0
	@DEBUG_VALUE: x509_get_attr_type_value:len <- [DW_OP_deref] $sp
	.loc	4 0 0                           @ ../../../ThirdParty/mbedTLS/library/x509.c:0:0
	adds	r0, r7, r0
.Ltmp206:
	adds	r0, #96
	.loc	4 393 1 is_stmt 1               @ ../../../ThirdParty/mbedTLS/library/x509.c:393:1
	add	sp, #4
.Ltmp207:
	pop	{r4, r5, r6, r7, pc}
.Ltmp208:
.LBB6_2:
	@DEBUG_VALUE: x509_get_attr_type_value:end <- $r6
	@DEBUG_VALUE: x509_get_attr_type_value:p <- $r5
	@DEBUG_VALUE: x509_get_attr_type_value:cur <- $r4
	@DEBUG_VALUE: x509_get_attr_type_value:ret <- $r0
	@DEBUG_VALUE: x509_get_attr_type_value:len <- [DW_OP_deref] $sp
	.loc	4 357 17                        @ ../../../ThirdParty/mbedTLS/library/x509.c:357:17
	ldr	r0, [r5]
.Ltmp209:
	.loc	4 357 15 is_stmt 0              @ ../../../ThirdParty/mbedTLS/library/x509.c:357:15
	subs	r1, r6, r0
.Ltmp210:
	.loc	4 357 9                         @ ../../../ThirdParty/mbedTLS/library/x509.c:357:9
	cmp	r1, #1
	blt	.LBB6_10
.Ltmp211:
@ %bb.3:
	@DEBUG_VALUE: x509_get_attr_type_value:end <- $r6
	@DEBUG_VALUE: x509_get_attr_type_value:p <- $r5
	@DEBUG_VALUE: x509_get_attr_type_value:cur <- $r4
	@DEBUG_VALUE: x509_get_attr_type_value:len <- [DW_OP_deref] $sp
	@DEBUG_VALUE: x509_get_attr_type_value:oid <- $r4
	.loc	4 362 16 is_stmt 1              @ ../../../ThirdParty/mbedTLS/library/x509.c:362:16
	ldrb	r0, [r0]
	.loc	4 362 14 is_stmt 0              @ ../../../ThirdParty/mbedTLS/library/x509.c:362:14
	mov	r2, r4
	stm	r2!, {r0}
	movs	r3, #6
.Ltmp212:
	.loc	4 364 17 is_stmt 1              @ ../../../ThirdParty/mbedTLS/library/x509.c:364:17
	mov	r0, r5
	mov	r1, r6
	bl	mbedtls_asn1_get_tag
.Ltmp213:
	@DEBUG_VALUE: x509_get_attr_type_value:ret <- $r0
	.loc	4 364 9 is_stmt 0               @ ../../../ThirdParty/mbedTLS/library/x509.c:364:9
	cmp	r0, #0
	bne	.LBB6_1
.Ltmp214:
@ %bb.4:
	@DEBUG_VALUE: x509_get_attr_type_value:end <- $r6
	@DEBUG_VALUE: x509_get_attr_type_value:p <- $r5
	@DEBUG_VALUE: x509_get_attr_type_value:oid <- $r4
	@DEBUG_VALUE: x509_get_attr_type_value:cur <- $r4
	@DEBUG_VALUE: x509_get_attr_type_value:ret <- $r0
	@DEBUG_VALUE: x509_get_attr_type_value:len <- [DW_OP_deref] $sp
	@DEBUG_VALUE: x509_get_attr_type_value:oid <- $r4
	.loc	4 367 14 is_stmt 1              @ ../../../ThirdParty/mbedTLS/library/x509.c:367:14
	ldr	r0, [r5]
.Ltmp215:
	.loc	4 367 12 is_stmt 0              @ ../../../ThirdParty/mbedTLS/library/x509.c:367:12
	str	r0, [r4, #8]
	.loc	4 368 16 is_stmt 1              @ ../../../ThirdParty/mbedTLS/library/x509.c:368:16
	ldr	r0, [r4, #4]
	.loc	4 368 8 is_stmt 0               @ ../../../ThirdParty/mbedTLS/library/x509.c:368:8
	ldr	r1, [r5]
	adds	r1, r1, r0
	str	r1, [r5]
.Ltmp216:
	.loc	4 370 15 is_stmt 1              @ ../../../ThirdParty/mbedTLS/library/x509.c:370:15
	subs	r0, r6, r1
.Ltmp217:
	.loc	4 370 9 is_stmt 0               @ ../../../ThirdParty/mbedTLS/library/x509.c:370:9
	cmp	r0, #1
	blt	.LBB6_10
.Ltmp218:
@ %bb.5:
	@DEBUG_VALUE: x509_get_attr_type_value:end <- $r6
	@DEBUG_VALUE: x509_get_attr_type_value:p <- $r5
	@DEBUG_VALUE: x509_get_attr_type_value:oid <- $r4
	@DEBUG_VALUE: x509_get_attr_type_value:cur <- $r4
	@DEBUG_VALUE: x509_get_attr_type_value:len <- [DW_OP_deref] $sp
	.loc	4 0 0                           @ ../../../ThirdParty/mbedTLS/library/x509.c:0:0
	subs	r0, r7, #2
.Ltmp219:
	.loc	4 374 9 is_stmt 1               @ ../../../ThirdParty/mbedTLS/library/x509.c:374:9
	ldrb	r2, [r1]
	.loc	4 374 40 is_stmt 0              @ ../../../ThirdParty/mbedTLS/library/x509.c:374:40
	cmp	r2, #30
	bhi	.LBB6_9
.Ltmp220:
@ %bb.6:
	@DEBUG_VALUE: x509_get_attr_type_value:end <- $r6
	@DEBUG_VALUE: x509_get_attr_type_value:p <- $r5
	@DEBUG_VALUE: x509_get_attr_type_value:oid <- $r4
	@DEBUG_VALUE: x509_get_attr_type_value:cur <- $r4
	@DEBUG_VALUE: x509_get_attr_type_value:len <- [DW_OP_deref] $sp
	.loc	4 0 40                          @ ../../../ThirdParty/mbedTLS/library/x509.c:0:40
	movs	r3, #1
	lsls	r3, r2
	ldr	r2, __arm_cp.6_1
	tst	r3, r2
	beq	.LBB6_9
.Ltmp221:
@ %bb.7:
	@DEBUG_VALUE: x509_get_attr_type_value:end <- $r6
	@DEBUG_VALUE: x509_get_attr_type_value:p <- $r5
	@DEBUG_VALUE: x509_get_attr_type_value:oid <- $r4
	@DEBUG_VALUE: x509_get_attr_type_value:cur <- $r4
	@DEBUG_VALUE: x509_get_attr_type_value:len <- [DW_OP_deref] $sp
	@DEBUG_VALUE: x509_get_attr_type_value:val <- [DW_OP_plus_uconst 12, DW_OP_stack_value] $r4
	.loc	4 382 21 is_stmt 1              @ ../../../ThirdParty/mbedTLS/library/x509.c:382:21
	adds	r0, r1, #1
	str	r0, [r5]
	.loc	4 382 16 is_stmt 0              @ ../../../ThirdParty/mbedTLS/library/x509.c:382:16
	ldrb	r0, [r1]
	.loc	4 382 14                        @ ../../../ThirdParty/mbedTLS/library/x509.c:382:14
	str	r0, [r4, #12]
.Ltmp222:
	.loc	4 384 53 is_stmt 1              @ ../../../ThirdParty/mbedTLS/library/x509.c:384:53
	mov	r2, r4
	adds	r2, #16
	.loc	4 384 17 is_stmt 0              @ ../../../ThirdParty/mbedTLS/library/x509.c:384:17
	mov	r0, r5
	mov	r1, r6
	bl	mbedtls_asn1_get_len
.Ltmp223:
	@DEBUG_VALUE: x509_get_attr_type_value:ret <- $r0
	.loc	4 384 9                         @ ../../../ThirdParty/mbedTLS/library/x509.c:384:9
	cmp	r0, #0
	bne	.LBB6_1
.Ltmp224:
@ %bb.8:
	@DEBUG_VALUE: x509_get_attr_type_value:end <- $r6
	@DEBUG_VALUE: x509_get_attr_type_value:p <- $r5
	@DEBUG_VALUE: x509_get_attr_type_value:val <- [DW_OP_plus_uconst 12, DW_OP_stack_value] $r4
	@DEBUG_VALUE: x509_get_attr_type_value:oid <- $r4
	@DEBUG_VALUE: x509_get_attr_type_value:cur <- $r4
	@DEBUG_VALUE: x509_get_attr_type_value:ret <- $r0
	@DEBUG_VALUE: x509_get_attr_type_value:len <- [DW_OP_deref] $sp
	.loc	4 387 14 is_stmt 1              @ ../../../ThirdParty/mbedTLS/library/x509.c:387:14
	ldr	r0, [r5]
.Ltmp225:
	.loc	4 387 12 is_stmt 0              @ ../../../ThirdParty/mbedTLS/library/x509.c:387:12
	str	r0, [r4, #20]
	.loc	4 388 16 is_stmt 1              @ ../../../ThirdParty/mbedTLS/library/x509.c:388:16
	ldr	r0, [r4, #16]
	.loc	4 388 8 is_stmt 0               @ ../../../ThirdParty/mbedTLS/library/x509.c:388:8
	ldr	r1, [r5]
	adds	r0, r1, r0
	str	r0, [r5]
	movs	r0, #0
	.loc	4 390 15 is_stmt 1              @ ../../../ThirdParty/mbedTLS/library/x509.c:390:15
	str	r0, [r4, #24]
.Ltmp226:
.LBB6_9:
	@DEBUG_VALUE: x509_get_attr_type_value:end <- $r6
	@DEBUG_VALUE: x509_get_attr_type_value:p <- $r5
	@DEBUG_VALUE: x509_get_attr_type_value:oid <- $r4
	@DEBUG_VALUE: x509_get_attr_type_value:cur <- $r4
	@DEBUG_VALUE: x509_get_attr_type_value:len <- [DW_OP_deref] $sp
	.loc	4 393 1                         @ ../../../ThirdParty/mbedTLS/library/x509.c:393:1
	add	sp, #4
.Ltmp227:
	pop	{r4, r5, r6, r7, pc}
.Ltmp228:
.LBB6_10:
	@DEBUG_VALUE: x509_get_attr_type_value:end <- $r6
	@DEBUG_VALUE: x509_get_attr_type_value:p <- $r5
	@DEBUG_VALUE: x509_get_attr_type_value:cur <- $r4
	@DEBUG_VALUE: x509_get_attr_type_value:len <- [DW_OP_deref] $sp
	.loc	4 0 0 is_stmt 0                 @ ../../../ThirdParty/mbedTLS/library/x509.c:0:0
	mov	r0, r7
	.loc	4 393 1                         @ ../../../ThirdParty/mbedTLS/library/x509.c:393:1
	add	sp, #4
.Ltmp229:
	pop	{r4, r5, r6, r7, pc}
.Ltmp230:
	.p2align	2
@ %bb.11:
	.loc	4 0 1                           @ ../../../ThirdParty/mbedTLS/library/x509.c:0:1
__arm_cp.6_0:
	.long	4294958112                      @ 0xffffdc20
.Lcpi_end5:
	.size	__arm_cp.6_0, .Lcpi_end5-__arm_cp.6_0
__arm_cp.6_1:
	.long	1347948552                      @ 0x50581008
.Lcpi_end6:
	.size	__arm_cp.6_1, .Lcpi_end6-__arm_cp.6_1
.Lfunc_end6:
	.size	x509_get_attr_type_value, .Lfunc_end6-x509_get_attr_type_value
	.cfi_endproc
	.cantunwind
	.fnend
                                        @ -- End function
	.section	.text.mbedtls_x509_get_time,"ax",%progbits
	.hidden	mbedtls_x509_get_time           @ -- Begin function mbedtls_x509_get_time
	.globl	mbedtls_x509_get_time
	.p2align	2
	.type	mbedtls_x509_get_time,%function
	.code	16                              @ @mbedtls_x509_get_time
	.thumb_func
mbedtls_x509_get_time:
.Lfunc_begin7:
	.loc	4 600 0 is_stmt 1               @ ../../../ThirdParty/mbedTLS/library/x509.c:600:0
	.fnstart
	.cfi_startproc
@ %bb.0:
	@DEBUG_VALUE: mbedtls_x509_get_time:p <- $r0
	@DEBUG_VALUE: mbedtls_x509_get_time:end <- $r1
	@DEBUG_VALUE: mbedtls_x509_get_time:tm <- $r2
	.save	{r4, r5, r6, r7, lr}
	push	{r4, r5, r6, r7, lr}
	.cfi_def_cfa_offset 20
	.cfi_offset lr, -4
	.cfi_offset r7, -8
	.cfi_offset r6, -12
	.cfi_offset r5, -16
	.cfi_offset r4, -20
	.pad	#4
	sub	sp, #4
	.cfi_def_cfa_offset 24
	mov	r5, r2
	mov	r6, r0
.Ltmp231:
	@DEBUG_VALUE: mbedtls_x509_get_time:tm <- $r5
	@DEBUG_VALUE: mbedtls_x509_get_time:end <- $r1
	@DEBUG_VALUE: mbedtls_x509_get_time:p <- $r6
	.loc	4 605 17 prologue_end           @ ../../../ThirdParty/mbedTLS/library/x509.c:605:17
	ldr	r0, [r0]
	.loc	4 605 15 is_stmt 0              @ ../../../ThirdParty/mbedTLS/library/x509.c:605:15
	subs	r2, r1, r0
	ldr	r4, __arm_cp.7_0
.Ltmp232:
	.loc	4 605 9                         @ ../../../ThirdParty/mbedTLS/library/x509.c:605:9
	cmp	r2, #1
	blt	.LBB7_4
.Ltmp233:
@ %bb.1:
	@DEBUG_VALUE: mbedtls_x509_get_time:p <- $r6
	@DEBUG_VALUE: mbedtls_x509_get_time:tm <- $r5
	@DEBUG_VALUE: mbedtls_x509_get_time:end <- $r1
	.loc	4 609 11 is_stmt 1              @ ../../../ThirdParty/mbedTLS/library/x509.c:609:11
	ldrb	r2, [r0]
.Ltmp234:
	@DEBUG_VALUE: mbedtls_x509_get_time:tag <- $r2
	.loc	4 611 9                         @ ../../../ThirdParty/mbedTLS/library/x509.c:611:9
	cmp	r2, #23
	beq	.LBB7_5
.Ltmp235:
@ %bb.2:
	@DEBUG_VALUE: mbedtls_x509_get_time:p <- $r6
	@DEBUG_VALUE: mbedtls_x509_get_time:tm <- $r5
	@DEBUG_VALUE: mbedtls_x509_get_time:tag <- $r2
	@DEBUG_VALUE: mbedtls_x509_get_time:end <- $r1
	cmp	r2, #24
	bne	.LBB7_9
.Ltmp236:
@ %bb.3:
	@DEBUG_VALUE: mbedtls_x509_get_time:p <- $r6
	@DEBUG_VALUE: mbedtls_x509_get_time:tm <- $r5
	@DEBUG_VALUE: mbedtls_x509_get_time:tag <- $r2
	@DEBUG_VALUE: mbedtls_x509_get_time:end <- $r1
	.loc	4 0 9 is_stmt 0                 @ ../../../ThirdParty/mbedTLS/library/x509.c:0:9
	movs	r7, #4
.Ltmp237:
	@DEBUG_VALUE: mbedtls_x509_get_time:year_len <- 4
	b	.LBB7_6
.Ltmp238:
.LBB7_4:
	@DEBUG_VALUE: mbedtls_x509_get_time:p <- $r6
	@DEBUG_VALUE: mbedtls_x509_get_time:tm <- $r5
	@DEBUG_VALUE: mbedtls_x509_get_time:end <- $r1
	adds	r4, r4, #2
	b	.LBB7_9
.Ltmp239:
.LBB7_5:
	@DEBUG_VALUE: mbedtls_x509_get_time:p <- $r6
	@DEBUG_VALUE: mbedtls_x509_get_time:tm <- $r5
	@DEBUG_VALUE: mbedtls_x509_get_time:tag <- $r2
	@DEBUG_VALUE: mbedtls_x509_get_time:end <- $r1
	movs	r7, #2
.Ltmp240:
.LBB7_6:
	@DEBUG_VALUE: mbedtls_x509_get_time:p <- $r6
	@DEBUG_VALUE: mbedtls_x509_get_time:tm <- $r5
	@DEBUG_VALUE: mbedtls_x509_get_time:tag <- $r2
	@DEBUG_VALUE: mbedtls_x509_get_time:end <- $r1
	@DEBUG_VALUE: mbedtls_x509_get_time:year_len <- $r7
	.loc	4 619 9 is_stmt 1               @ ../../../ThirdParty/mbedTLS/library/x509.c:619:9
	adds	r0, r0, #1
	str	r0, [r6]
.Ltmp241:
	@DEBUG_VALUE: mbedtls_x509_get_time:len <- [DW_OP_deref] $sp
	.loc	4 0 9 is_stmt 0                 @ ../../../ThirdParty/mbedTLS/library/x509.c:0:9
	mov	r2, sp
.Ltmp242:
	.loc	4 620 11 is_stmt 1              @ ../../../ThirdParty/mbedTLS/library/x509.c:620:11
	mov	r0, r6
	bl	mbedtls_asn1_get_len
.Ltmp243:
	@DEBUG_VALUE: mbedtls_x509_get_time:end <- [DW_OP_LLVM_entry_value 1] $r1
	@DEBUG_VALUE: mbedtls_x509_get_time:ret <- $r0
	.loc	4 622 9                         @ ../../../ThirdParty/mbedTLS/library/x509.c:622:9
	cbz	r0, .LBB7_8
.Ltmp244:
@ %bb.7:
	@DEBUG_VALUE: mbedtls_x509_get_time:year_len <- $r7
	@DEBUG_VALUE: mbedtls_x509_get_time:p <- $r6
	@DEBUG_VALUE: mbedtls_x509_get_time:tm <- $r5
	@DEBUG_VALUE: mbedtls_x509_get_time:ret <- $r0
	@DEBUG_VALUE: mbedtls_x509_get_time:len <- [DW_OP_deref] $sp
	@DEBUG_VALUE: mbedtls_x509_get_time:end <- [DW_OP_LLVM_entry_value 1] $r1
	.loc	4 623 47                        @ ../../../ThirdParty/mbedTLS/library/x509.c:623:47
	adds	r4, r4, r0
	adds	r4, #98
	.loc	4 623 9 is_stmt 0               @ ../../../ThirdParty/mbedTLS/library/x509.c:623:9
	b	.LBB7_9
.Ltmp245:
.LBB7_8:
	@DEBUG_VALUE: mbedtls_x509_get_time:year_len <- $r7
	@DEBUG_VALUE: mbedtls_x509_get_time:p <- $r6
	@DEBUG_VALUE: mbedtls_x509_get_time:tm <- $r5
	@DEBUG_VALUE: mbedtls_x509_get_time:ret <- $r0
	@DEBUG_VALUE: mbedtls_x509_get_time:len <- [DW_OP_deref] $sp
	@DEBUG_VALUE: mbedtls_x509_get_time:end <- [DW_OP_LLVM_entry_value 1] $r1
	.loc	4 625 32 is_stmt 1              @ ../../../ThirdParty/mbedTLS/library/x509.c:625:32
	ldr	r1, [sp]
.Ltmp246:
	@DEBUG_VALUE: mbedtls_x509_get_time:len <- $r1
	.loc	4 625 12 is_stmt 0              @ ../../../ThirdParty/mbedTLS/library/x509.c:625:12
	mov	r0, r6
.Ltmp247:
	mov	r2, r7
	mov	r3, r5
	bl	x509_parse_time
.Ltmp248:
	mov	r4, r0
.Ltmp249:
.LBB7_9:
	@DEBUG_VALUE: mbedtls_x509_get_time:p <- $r6
	@DEBUG_VALUE: mbedtls_x509_get_time:tm <- $r5
	.loc	4 626 1 is_stmt 1               @ ../../../ThirdParty/mbedTLS/library/x509.c:626:1
	mov	r0, r4
	add	sp, #4
	pop	{r4, r5, r6, r7, pc}
.Ltmp250:
	.p2align	2
@ %bb.10:
	.loc	4 0 1 is_stmt 0                 @ ../../../ThirdParty/mbedTLS/library/x509.c:0:1
__arm_cp.7_0:
	.long	4294957982                      @ 0xffffdb9e
.Lcpi_end7:
	.size	__arm_cp.7_0, .Lcpi_end7-__arm_cp.7_0
.Lfunc_end7:
	.size	mbedtls_x509_get_time, .Lfunc_end7-mbedtls_x509_get_time
	.cfi_endproc
	.cantunwind
	.fnend
                                        @ -- End function
	.section	.text.x509_parse_time,"ax",%progbits
	.p2align	2                               @ -- Begin function x509_parse_time
	.type	x509_parse_time,%function
	.code	16                              @ @x509_parse_time
	.thumb_func
x509_parse_time:
.Lfunc_begin8:
	.loc	4 535 0 is_stmt 1               @ ../../../ThirdParty/mbedTLS/library/x509.c:535:0
	.fnstart
	.cfi_startproc
@ %bb.0:
	@DEBUG_VALUE: x509_parse_time:p <- $r0
	@DEBUG_VALUE: x509_parse_time:len <- $r1
	@DEBUG_VALUE: x509_parse_time:yearlen <- $r2
	@DEBUG_VALUE: x509_parse_time:tm <- $r3
	.save	{r4, r5, r6, r7, lr}
	push	{r4, r5, r6, r7, lr}
	.cfi_def_cfa_offset 20
	.cfi_offset lr, -4
	.cfi_offset r7, -8
	.cfi_offset r6, -12
	.cfi_offset r5, -16
	.cfi_offset r4, -20
	.pad	#12
	sub	sp, #12
	.cfi_def_cfa_offset 32
	mov	r4, r0
	@DEBUG_VALUE: x509_parse_time:tm <- $r3
	@DEBUG_VALUE: x509_parse_time:yearlen <- $r2
	@DEBUG_VALUE: x509_parse_time:len <- $r1
.Ltmp251:
	@DEBUG_VALUE: x509_parse_time:p <- $r4
	.loc	4 541 24 prologue_end           @ ../../../ThirdParty/mbedTLS/library/x509.c:541:24
	mov	r5, r2
	adds	r5, #8
	ldr	r0, __arm_cp.8_0
.Ltmp252:
	.loc	4 541 10 is_stmt 0              @ ../../../ThirdParty/mbedTLS/library/x509.c:541:10
	cmp	r5, r1
	bhi	.LBB8_2
.Ltmp253:
@ %bb.1:
	@DEBUG_VALUE: x509_parse_time:p <- $r4
	@DEBUG_VALUE: x509_parse_time:tm <- $r3
	@DEBUG_VALUE: x509_parse_time:yearlen <- $r2
	@DEBUG_VALUE: x509_parse_time:len <- $r1
	.loc	4 0 10                          @ ../../../ThirdParty/mbedTLS/library/x509.c:0:10
	mov	r7, r2
.Ltmp254:
	@DEBUG_VALUE: x509_parse_time:yearlen <- $r7
	str	r1, [sp, #8]                    @ 4-byte Spill
.Ltmp255:
	@DEBUG_VALUE: x509_parse_time:len <- [DW_OP_plus_uconst 8] [$sp+0]
	.loc	4 548 5 is_stmt 1               @ ../../../ThirdParty/mbedTLS/library/x509.c:548:5
	mov	r0, r4
	mov	r1, r2
	mov	r2, r3
	mov	r6, r3
.Ltmp256:
	@DEBUG_VALUE: x509_parse_time:tm <- $r6
	bl	x509_parse_int
.Ltmp257:
	@DEBUG_VALUE: x509_parse_time:ret <- $r0
	@DEBUG_VALUE: x509_parse_time:len <- undef
	.loc	4 548 5 is_stmt 0               @ ../../../ThirdParty/mbedTLS/library/x509.c:548:5
	cbz	r0, .LBB8_3
.Ltmp258:
.LBB8_2:
	.loc	4 0 0                           @ ../../../ThirdParty/mbedTLS/library/x509.c:0:0
	add	sp, #12
	pop	{r4, r5, r6, r7, pc}
.LBB8_3:
.Ltmp259:
	@DEBUG_VALUE: x509_parse_time:yearlen <- $r7
	@DEBUG_VALUE: x509_parse_time:tm <- $r6
	@DEBUG_VALUE: x509_parse_time:p <- $r4
	@DEBUG_VALUE: x509_parse_time:ret <- $r0
	@DEBUG_VALUE: x509_parse_time:len <- undef
	str	r4, [sp, #4]                    @ 4-byte Spill
.Ltmp260:
	@DEBUG_VALUE: x509_parse_time:p <- [DW_OP_plus_uconst 4] [$sp+0]
	.loc	4 549 10 is_stmt 1              @ ../../../ThirdParty/mbedTLS/library/x509.c:549:10
	cmp	r7, #2
	bne	.LBB8_7
.Ltmp261:
@ %bb.4:
	@DEBUG_VALUE: x509_parse_time:p <- [DW_OP_plus_uconst 4] [$sp+0]
	@DEBUG_VALUE: x509_parse_time:yearlen <- $r7
	@DEBUG_VALUE: x509_parse_time:tm <- $r6
	@DEBUG_VALUE: x509_parse_time:ret <- $r0
	.loc	4 551 18                        @ ../../../ThirdParty/mbedTLS/library/x509.c:551:18
	ldr	r0, [r6]
.Ltmp262:
	.loc	4 551 14 is_stmt 0              @ ../../../ThirdParty/mbedTLS/library/x509.c:551:14
	cmp	r0, #49
	bgt	.LBB8_6
.Ltmp263:
@ %bb.5:
	@DEBUG_VALUE: x509_parse_time:p <- [DW_OP_plus_uconst 4] [$sp+0]
	@DEBUG_VALUE: x509_parse_time:yearlen <- $r7
	@DEBUG_VALUE: x509_parse_time:tm <- $r6
	.loc	4 552 22 is_stmt 1              @ ../../../ThirdParty/mbedTLS/library/x509.c:552:22
	adds	r0, #100
	str	r0, [r6]
.Ltmp264:
.LBB8_6:
	@DEBUG_VALUE: x509_parse_time:p <- [DW_OP_plus_uconst 4] [$sp+0]
	@DEBUG_VALUE: x509_parse_time:yearlen <- $r7
	@DEBUG_VALUE: x509_parse_time:tm <- $r6
	.loc	4 554 18                        @ ../../../ThirdParty/mbedTLS/library/x509.c:554:18
	ldr	r0, [r6]
	ldr	r1, __arm_cp.8_1
	adds	r0, r0, r1
	str	r0, [r6]
.Ltmp265:
.LBB8_7:
	@DEBUG_VALUE: x509_parse_time:p <- [DW_OP_plus_uconst 4] [$sp+0]
	@DEBUG_VALUE: x509_parse_time:yearlen <- $r7
	@DEBUG_VALUE: x509_parse_time:tm <- $r6
	@DEBUG_VALUE: x509_parse_time:len <- undef
	.loc	4 557 5                         @ ../../../ThirdParty/mbedTLS/library/x509.c:557:5
	adds	r2, r6, #4
	movs	r1, #2
	ldr	r7, [sp, #4]                    @ 4-byte Reload
.Ltmp266:
	@DEBUG_VALUE: x509_parse_time:p <- $r7
	mov	r0, r7
	bl	x509_parse_int
.Ltmp267:
	@DEBUG_VALUE: x509_parse_time:ret <- $r0
	.loc	4 557 5 is_stmt 0               @ ../../../ThirdParty/mbedTLS/library/x509.c:557:5
	cmp	r0, #0
	bne	.LBB8_2
.Ltmp268:
@ %bb.8:
	@DEBUG_VALUE: x509_parse_time:p <- $r7
	@DEBUG_VALUE: x509_parse_time:tm <- $r6
	@DEBUG_VALUE: x509_parse_time:ret <- $r0
	@DEBUG_VALUE: x509_parse_time:len <- undef
	.loc	4 558 5 is_stmt 1               @ ../../../ThirdParty/mbedTLS/library/x509.c:558:5
	mov	r2, r6
	adds	r2, #8
	movs	r1, #2
	mov	r0, r7
.Ltmp269:
	bl	x509_parse_int
.Ltmp270:
	@DEBUG_VALUE: x509_parse_time:ret <- $r0
	.loc	4 558 5 is_stmt 0               @ ../../../ThirdParty/mbedTLS/library/x509.c:558:5
	cmp	r0, #0
	bne	.LBB8_2
.Ltmp271:
@ %bb.9:
	@DEBUG_VALUE: x509_parse_time:p <- $r7
	@DEBUG_VALUE: x509_parse_time:tm <- $r6
	@DEBUG_VALUE: x509_parse_time:ret <- $r0
	@DEBUG_VALUE: x509_parse_time:len <- undef
	.loc	4 559 5 is_stmt 1               @ ../../../ThirdParty/mbedTLS/library/x509.c:559:5
	mov	r2, r6
	adds	r2, #12
	movs	r1, #2
	mov	r0, r7
.Ltmp272:
	bl	x509_parse_int
.Ltmp273:
	@DEBUG_VALUE: x509_parse_time:ret <- $r0
	.loc	4 559 5 is_stmt 0               @ ../../../ThirdParty/mbedTLS/library/x509.c:559:5
	cmp	r0, #0
	bne	.LBB8_2
.Ltmp274:
@ %bb.10:
	@DEBUG_VALUE: x509_parse_time:p <- $r7
	@DEBUG_VALUE: x509_parse_time:tm <- $r6
	@DEBUG_VALUE: x509_parse_time:ret <- $r0
	@DEBUG_VALUE: x509_parse_time:len <- undef
	.loc	4 560 5 is_stmt 1               @ ../../../ThirdParty/mbedTLS/library/x509.c:560:5
	mov	r2, r6
	adds	r2, #16
	movs	r1, #2
	mov	r0, r7
.Ltmp275:
	bl	x509_parse_int
.Ltmp276:
	@DEBUG_VALUE: x509_parse_time:ret <- $r0
	.loc	4 560 5 is_stmt 0               @ ../../../ThirdParty/mbedTLS/library/x509.c:560:5
	cmp	r0, #0
	bne	.LBB8_2
.Ltmp277:
@ %bb.11:
	@DEBUG_VALUE: x509_parse_time:p <- $r7
	@DEBUG_VALUE: x509_parse_time:tm <- $r6
	@DEBUG_VALUE: x509_parse_time:ret <- $r0
	.loc	4 0 0                           @ ../../../ThirdParty/mbedTLS/library/x509.c:0:0
	ldr	r0, [sp, #8]                    @ 4-byte Reload
.Ltmp278:
	subs	r5, r0, r5
.Ltmp279:
	@DEBUG_VALUE: x509_parse_time:len <- $r5
	.loc	4 565 10 is_stmt 1              @ ../../../ThirdParty/mbedTLS/library/x509.c:565:10
	cmp	r5, #2
	blo	.LBB8_16
.Ltmp280:
@ %bb.12:
	@DEBUG_VALUE: x509_parse_time:p <- $r7
	@DEBUG_VALUE: x509_parse_time:tm <- $r6
	@DEBUG_VALUE: x509_parse_time:len <- $r5
	.loc	4 0 10 is_stmt 0                @ ../../../ThirdParty/mbedTLS/library/x509.c:0:10
	mov	r2, r6
.Ltmp281:
	.loc	4 567 9 is_stmt 1               @ ../../../ThirdParty/mbedTLS/library/x509.c:567:9
	adds	r2, #20
	movs	r1, #2
	ldr	r0, [sp, #4]                    @ 4-byte Reload
	bl	x509_parse_int
.Ltmp282:
	@DEBUG_VALUE: x509_parse_time:ret <- $r0
	.loc	4 567 9 is_stmt 0               @ ../../../ThirdParty/mbedTLS/library/x509.c:567:9
	cmp	r0, #0
	bne	.LBB8_2
.Ltmp283:
@ %bb.13:
	@DEBUG_VALUE: x509_parse_time:p <- $r7
	@DEBUG_VALUE: x509_parse_time:tm <- $r6
	@DEBUG_VALUE: x509_parse_time:len <- $r5
	@DEBUG_VALUE: x509_parse_time:ret <- $r0
	.loc	4 568 13 is_stmt 1              @ ../../../ThirdParty/mbedTLS/library/x509.c:568:13
	subs	r0, r5, #2
.Ltmp284:
	@DEBUG_VALUE: x509_parse_time:len <- $r0
	.loc	4 576 19                        @ ../../../ThirdParty/mbedTLS/library/x509.c:576:19
	cmp	r0, #1
	bne	.LBB8_18
.Ltmp285:
@ %bb.14:
	@DEBUG_VALUE: x509_parse_time:p <- $r7
	@DEBUG_VALUE: x509_parse_time:tm <- $r6
	@DEBUG_VALUE: x509_parse_time:len <- $r0
	.loc	4 0 19 is_stmt 0                @ ../../../ThirdParty/mbedTLS/library/x509.c:0:19
	ldr	r2, [sp, #4]                    @ 4-byte Reload
	.loc	4 576 30                        @ ../../../ThirdParty/mbedTLS/library/x509.c:576:30
	ldr	r0, [r2]
.Ltmp286:
	.loc	4 576 29                        @ ../../../ThirdParty/mbedTLS/library/x509.c:576:29
	ldrb	r1, [r0]
.Ltmp287:
	.loc	4 576 10                        @ ../../../ThirdParty/mbedTLS/library/x509.c:576:10
	cmp	r1, #90
	bne	.LBB8_17
.Ltmp288:
@ %bb.15:
	@DEBUG_VALUE: x509_parse_time:p <- $r7
	@DEBUG_VALUE: x509_parse_time:tm <- $r6
	.loc	4 578 13 is_stmt 1              @ ../../../ThirdParty/mbedTLS/library/x509.c:578:13
	adds	r0, r0, #1
	str	r0, [r2]
	movs	r0, #0
.Ltmp289:
	@DEBUG_VALUE: x509_parse_time:len <- 0
	.loc	4 0 13 is_stmt 0                @ ../../../ThirdParty/mbedTLS/library/x509.c:0:13
	b	.LBB8_18
.Ltmp290:
.LBB8_16:
	@DEBUG_VALUE: x509_parse_time:p <- $r7
	@DEBUG_VALUE: x509_parse_time:tm <- $r6
	@DEBUG_VALUE: x509_parse_time:len <- $r5
	ldr	r0, __arm_cp.8_0
	add	sp, #12
	pop	{r4, r5, r6, r7, pc}
.Ltmp291:
.LBB8_17:
	@DEBUG_VALUE: x509_parse_time:p <- $r7
	@DEBUG_VALUE: x509_parse_time:tm <- $r6
	movs	r0, #1
.Ltmp292:
.LBB8_18:
	@DEBUG_VALUE: x509_parse_time:p <- $r7
	@DEBUG_VALUE: x509_parse_time:tm <- $r6
	@DEBUG_VALUE: x509_parse_time:len <- $r0
	.loc	4 585 10 is_stmt 1              @ ../../../ThirdParty/mbedTLS/library/x509.c:585:10
	cmp	r0, #0
	.loc	4 0 0 is_stmt 0                 @ ../../../ThirdParty/mbedTLS/library/x509.c:0:0
	ldr	r0, __arm_cp.8_0
.Ltmp293:
	.loc	4 585 10                        @ ../../../ThirdParty/mbedTLS/library/x509.c:585:10
	bne	.LBB8_2
.Ltmp294:
@ %bb.19:
	@DEBUG_VALUE: x509_parse_time:p <- $r7
	@DEBUG_VALUE: x509_parse_time:tm <- $r6
	.loc	4 588 5 is_stmt 1               @ ../../../ThirdParty/mbedTLS/library/x509.c:588:5
	mov	r0, r6
	bl	x509_date_is_valid
.Ltmp295:
	@DEBUG_VALUE: x509_parse_time:ret <- $r0
	.loc	4 0 0 is_stmt 0                 @ ../../../ThirdParty/mbedTLS/library/x509.c:0:0
	add	sp, #12
	pop	{r4, r5, r6, r7, pc}
.Ltmp296:
	.p2align	2
@ %bb.20:
__arm_cp.8_0:
	.long	4294958080                      @ 0xffffdc00
.Lcpi_end8:
	.size	__arm_cp.8_0, .Lcpi_end8-__arm_cp.8_0
__arm_cp.8_1:
	.long	1900                            @ 0x76c
.Lcpi_end9:
	.size	__arm_cp.8_1, .Lcpi_end9-__arm_cp.8_1
.Lfunc_end8:
	.size	x509_parse_time, .Lfunc_end8-x509_parse_time
	.cfi_endproc
	.cantunwind
	.fnend
                                        @ -- End function
	.section	.text.mbedtls_x509_get_sig,"ax",%progbits
	.hidden	mbedtls_x509_get_sig            @ -- Begin function mbedtls_x509_get_sig
	.globl	mbedtls_x509_get_sig
	.p2align	2
	.type	mbedtls_x509_get_sig,%function
	.code	16                              @ @mbedtls_x509_get_sig
	.thumb_func
mbedtls_x509_get_sig:
.Lfunc_begin9:
	.loc	4 629 0 is_stmt 1               @ ../../../ThirdParty/mbedTLS/library/x509.c:629:0
	.fnstart
	.cfi_startproc
@ %bb.0:
	@DEBUG_VALUE: mbedtls_x509_get_sig:p <- $r0
	@DEBUG_VALUE: mbedtls_x509_get_sig:end <- $r1
	@DEBUG_VALUE: mbedtls_x509_get_sig:sig <- $r2
	.save	{r4, r5, r6, r7, lr}
	push	{r4, r5, r6, r7, lr}
	.cfi_def_cfa_offset 20
	.cfi_offset lr, -4
	.cfi_offset r7, -8
	.cfi_offset r6, -12
	.cfi_offset r5, -16
	.cfi_offset r4, -20
	.pad	#4
	sub	sp, #4
	.cfi_def_cfa_offset 24
	mov	r6, r2
	mov	r5, r0
.Ltmp297:
	@DEBUG_VALUE: mbedtls_x509_get_sig:sig <- $r6
	@DEBUG_VALUE: mbedtls_x509_get_sig:end <- $r1
	@DEBUG_VALUE: mbedtls_x509_get_sig:p <- $r5
	.loc	4 634 17 prologue_end           @ ../../../ThirdParty/mbedTLS/library/x509.c:634:17
	ldr	r0, [r0]
	.loc	4 634 15 is_stmt 0              @ ../../../ThirdParty/mbedTLS/library/x509.c:634:15
	subs	r2, r1, r0
	ldr	r4, __arm_cp.9_0
.Ltmp298:
	.loc	4 634 9                         @ ../../../ThirdParty/mbedTLS/library/x509.c:634:9
	cmp	r2, #1
	blt	.LBB9_4
.Ltmp299:
@ %bb.1:
	@DEBUG_VALUE: mbedtls_x509_get_sig:sig <- $r6
	@DEBUG_VALUE: mbedtls_x509_get_sig:p <- $r5
	@DEBUG_VALUE: mbedtls_x509_get_sig:end <- $r1
	.loc	4 638 16 is_stmt 1              @ ../../../ThirdParty/mbedTLS/library/x509.c:638:16
	ldrb	r7, [r0]
.Ltmp300:
	@DEBUG_VALUE: mbedtls_x509_get_sig:len <- [DW_OP_deref] $sp
	@DEBUG_VALUE: mbedtls_x509_get_sig:tag_type <- [DW_OP_LLVM_convert 8 7, DW_OP_LLVM_convert 32 7, DW_OP_stack_value] undef
	.loc	4 0 16 is_stmt 0                @ ../../../ThirdParty/mbedTLS/library/x509.c:0:16
	mov	r2, sp
.Ltmp301:
	.loc	4 640 17 is_stmt 1              @ ../../../ThirdParty/mbedTLS/library/x509.c:640:17
	mov	r0, r5
	bl	mbedtls_asn1_get_bitstring_null
.Ltmp302:
	@DEBUG_VALUE: mbedtls_x509_get_sig:end <- [DW_OP_LLVM_entry_value 1] $r1
	@DEBUG_VALUE: mbedtls_x509_get_sig:ret <- $r0
	.loc	4 640 9 is_stmt 0               @ ../../../ThirdParty/mbedTLS/library/x509.c:640:9
	cbz	r0, .LBB9_3
.Ltmp303:
@ %bb.2:
	@DEBUG_VALUE: mbedtls_x509_get_sig:sig <- $r6
	@DEBUG_VALUE: mbedtls_x509_get_sig:p <- $r5
	@DEBUG_VALUE: mbedtls_x509_get_sig:ret <- $r0
	@DEBUG_VALUE: mbedtls_x509_get_sig:len <- [DW_OP_deref] $sp
	@DEBUG_VALUE: mbedtls_x509_get_sig:end <- [DW_OP_LLVM_entry_value 1] $r1
	.loc	4 641 52 is_stmt 1              @ ../../../ThirdParty/mbedTLS/library/x509.c:641:52
	adds	r4, r4, r0
	adds	r4, #96
	.loc	4 641 9 is_stmt 0               @ ../../../ThirdParty/mbedTLS/library/x509.c:641:9
	b	.LBB9_4
.Ltmp304:
.LBB9_3:
	@DEBUG_VALUE: mbedtls_x509_get_sig:sig <- $r6
	@DEBUG_VALUE: mbedtls_x509_get_sig:p <- $r5
	@DEBUG_VALUE: mbedtls_x509_get_sig:ret <- $r0
	@DEBUG_VALUE: mbedtls_x509_get_sig:len <- [DW_OP_deref] $sp
	@DEBUG_VALUE: mbedtls_x509_get_sig:end <- [DW_OP_LLVM_entry_value 1] $r1
	@DEBUG_VALUE: mbedtls_x509_get_sig:tag_type <- $r7
	.loc	4 645 14 is_stmt 1              @ ../../../ThirdParty/mbedTLS/library/x509.c:645:14
	ldr	r0, [r5]
.Ltmp305:
	.loc	4 644 16                        @ ../../../ThirdParty/mbedTLS/library/x509.c:644:16
	ldr	r1, [sp]
.Ltmp306:
	@DEBUG_VALUE: mbedtls_x509_get_sig:len <- $r1
	.loc	4 643 14                        @ ../../../ThirdParty/mbedTLS/library/x509.c:643:14
	str	r7, [r6]
	.loc	4 644 14                        @ ../../../ThirdParty/mbedTLS/library/x509.c:644:14
	str	r1, [r6, #4]
	.loc	4 645 12                        @ ../../../ThirdParty/mbedTLS/library/x509.c:645:12
	str	r0, [r6, #8]
	.loc	4 647 8                         @ ../../../ThirdParty/mbedTLS/library/x509.c:647:8
	ldr	r0, [r5]
	adds	r0, r0, r1
	str	r0, [r5]
	movs	r4, #0
.Ltmp307:
.LBB9_4:
	@DEBUG_VALUE: mbedtls_x509_get_sig:sig <- $r6
	@DEBUG_VALUE: mbedtls_x509_get_sig:p <- $r5
	.loc	4 650 1                         @ ../../../ThirdParty/mbedTLS/library/x509.c:650:1
	mov	r0, r4
	add	sp, #4
	pop	{r4, r5, r6, r7, pc}
.Ltmp308:
	.p2align	2
@ %bb.5:
	.loc	4 0 1 is_stmt 0                 @ ../../../ThirdParty/mbedTLS/library/x509.c:0:1
__arm_cp.9_0:
	.long	4294957856                      @ 0xffffdb20
.Lcpi_end10:
	.size	__arm_cp.9_0, .Lcpi_end10-__arm_cp.9_0
.Lfunc_end9:
	.size	mbedtls_x509_get_sig, .Lfunc_end9-mbedtls_x509_get_sig
	.cfi_endproc
	.cantunwind
	.fnend
                                        @ -- End function
	.section	.text.mbedtls_x509_get_sig_alg,"ax",%progbits
	.hidden	mbedtls_x509_get_sig_alg        @ -- Begin function mbedtls_x509_get_sig_alg
	.globl	mbedtls_x509_get_sig_alg
	.p2align	2
	.type	mbedtls_x509_get_sig_alg,%function
	.code	16                              @ @mbedtls_x509_get_sig_alg
	.thumb_func
mbedtls_x509_get_sig_alg:
.Lfunc_begin10:
	.loc	4 658 0 is_stmt 1               @ ../../../ThirdParty/mbedTLS/library/x509.c:658:0
	.fnstart
	.cfi_startproc
@ %bb.0:
	@DEBUG_VALUE: mbedtls_x509_get_sig_alg:sig_oid <- $r0
	@DEBUG_VALUE: mbedtls_x509_get_sig_alg:sig_params <- $r1
	@DEBUG_VALUE: mbedtls_x509_get_sig_alg:md_alg <- $r2
	@DEBUG_VALUE: mbedtls_x509_get_sig_alg:pk_alg <- $r3
	.save	{r4, r5, r6, r7, lr}
	push	{r4, r5, r6, r7, lr}
	.cfi_def_cfa_offset 20
	.cfi_offset lr, -4
	.cfi_offset r7, -8
	.cfi_offset r6, -12
	.cfi_offset r5, -16
	.cfi_offset r4, -20
	.pad	#12
	sub	sp, #12
	.cfi_def_cfa_offset 32
	mov	r6, r2
	ldr	r4, __arm_cp.10_0
	ldr	r5, [sp, #32]
.Ltmp309:
	@DEBUG_VALUE: mbedtls_x509_get_sig_alg:sig_opts <- [DW_OP_plus_uconst 32] [$sp+0]
	@DEBUG_VALUE: mbedtls_x509_get_sig_alg:pk_alg <- $r3
	@DEBUG_VALUE: mbedtls_x509_get_sig_alg:md_alg <- $r6
	@DEBUG_VALUE: mbedtls_x509_get_sig_alg:sig_params <- $r1
	@DEBUG_VALUE: mbedtls_x509_get_sig_alg:sig_oid <- $r0
	.loc	4 661 9 prologue_end            @ ../../../ThirdParty/mbedTLS/library/x509.c:661:9
	ldr	r2, [r5]
.Ltmp310:
	.loc	4 661 9 is_stmt 0               @ ../../../ThirdParty/mbedTLS/library/x509.c:661:9
	cbz	r2, .LBB10_2
.Ltmp311:
@ %bb.1:
	@DEBUG_VALUE: mbedtls_x509_get_sig_alg:md_alg <- $r6
	@DEBUG_VALUE: mbedtls_x509_get_sig_alg:pk_alg <- $r3
	@DEBUG_VALUE: mbedtls_x509_get_sig_alg:sig_params <- $r1
	@DEBUG_VALUE: mbedtls_x509_get_sig_alg:sig_oid <- $r0
	@DEBUG_VALUE: mbedtls_x509_get_sig_alg:sig_opts <- [DW_OP_plus_uconst 32] [$sp+0]
	.loc	4 0 9                           @ ../../../ThirdParty/mbedTLS/library/x509.c:0:9
	adds	r4, #128
	b	.LBB10_4
.Ltmp312:
.LBB10_2:
	@DEBUG_VALUE: mbedtls_x509_get_sig_alg:md_alg <- $r6
	@DEBUG_VALUE: mbedtls_x509_get_sig_alg:pk_alg <- $r3
	@DEBUG_VALUE: mbedtls_x509_get_sig_alg:sig_params <- $r1
	@DEBUG_VALUE: mbedtls_x509_get_sig_alg:sig_oid <- $r0
	@DEBUG_VALUE: mbedtls_x509_get_sig_alg:sig_opts <- [DW_OP_plus_uconst 32] [$sp+0]
	mov	r7, r3
.Ltmp313:
	@DEBUG_VALUE: mbedtls_x509_get_sig_alg:pk_alg <- $r7
	str	r1, [sp, #8]                    @ 4-byte Spill
.Ltmp314:
	@DEBUG_VALUE: mbedtls_x509_get_sig_alg:sig_params <- [DW_OP_plus_uconst 8] [$sp+0]
	.loc	4 664 17 is_stmt 1              @ ../../../ThirdParty/mbedTLS/library/x509.c:664:17
	mov	r1, r6
	mov	r2, r3
	bl	mbedtls_oid_get_sig_alg
.Ltmp315:
	@DEBUG_VALUE: mbedtls_x509_get_sig_alg:sig_oid <- [DW_OP_LLVM_entry_value 1] $r0
	@DEBUG_VALUE: mbedtls_x509_get_sig_alg:ret <- $r0
	.loc	4 664 9 is_stmt 0               @ ../../../ThirdParty/mbedTLS/library/x509.c:664:9
	cbz	r0, .LBB10_5
.Ltmp316:
@ %bb.3:
	@DEBUG_VALUE: mbedtls_x509_get_sig_alg:sig_params <- [DW_OP_plus_uconst 8] [$sp+0]
	@DEBUG_VALUE: mbedtls_x509_get_sig_alg:pk_alg <- $r7
	@DEBUG_VALUE: mbedtls_x509_get_sig_alg:md_alg <- $r6
	@DEBUG_VALUE: mbedtls_x509_get_sig_alg:ret <- $r0
	@DEBUG_VALUE: mbedtls_x509_get_sig_alg:sig_opts <- [DW_OP_plus_uconst 32] [$sp+0]
	@DEBUG_VALUE: mbedtls_x509_get_sig_alg:sig_oid <- [DW_OP_LLVM_entry_value 1] $r0
	.loc	4 665 50 is_stmt 1              @ ../../../ThirdParty/mbedTLS/library/x509.c:665:50
	movw	r1, #9728
	subs	r4, r0, r1
.Ltmp317:
.LBB10_4:
	@DEBUG_VALUE: mbedtls_x509_get_sig_alg:md_alg <- $r6
	@DEBUG_VALUE: mbedtls_x509_get_sig_alg:sig_opts <- [DW_OP_plus_uconst 32] [$sp+0]
	.loc	4 698 1                         @ ../../../ThirdParty/mbedTLS/library/x509.c:698:1
	mov	r0, r4
	add	sp, #12
.Ltmp318:
	pop	{r4, r5, r6, r7, pc}
.Ltmp319:
.LBB10_5:
	@DEBUG_VALUE: mbedtls_x509_get_sig_alg:sig_params <- [DW_OP_plus_uconst 8] [$sp+0]
	@DEBUG_VALUE: mbedtls_x509_get_sig_alg:pk_alg <- $r7
	@DEBUG_VALUE: mbedtls_x509_get_sig_alg:md_alg <- $r6
	@DEBUG_VALUE: mbedtls_x509_get_sig_alg:ret <- $r0
	@DEBUG_VALUE: mbedtls_x509_get_sig_alg:sig_opts <- [DW_OP_plus_uconst 32] [$sp+0]
	@DEBUG_VALUE: mbedtls_x509_get_sig_alg:sig_oid <- [DW_OP_LLVM_entry_value 1] $r0
	.loc	4 668 9                         @ ../../../ThirdParty/mbedTLS/library/x509.c:668:9
	ldrb	r0, [r7]
.Ltmp320:
	.loc	4 668 9 is_stmt 0               @ ../../../ThirdParty/mbedTLS/library/x509.c:668:9
	cmp	r0, #6
	bne	.LBB10_9
.Ltmp321:
@ %bb.6:
	@DEBUG_VALUE: mbedtls_x509_get_sig_alg:sig_params <- [DW_OP_plus_uconst 8] [$sp+0]
	@DEBUG_VALUE: mbedtls_x509_get_sig_alg:pk_alg <- $r7
	@DEBUG_VALUE: mbedtls_x509_get_sig_alg:md_alg <- $r6
	@DEBUG_VALUE: mbedtls_x509_get_sig_alg:sig_opts <- [DW_OP_plus_uconst 32] [$sp+0]
	@DEBUG_VALUE: mbedtls_x509_get_sig_alg:sig_oid <- [DW_OP_LLVM_entry_value 1] $r0
	.loc	4 0 9                           @ ../../../ThirdParty/mbedTLS/library/x509.c:0:9
	movs	r0, #1
	movs	r1, #8
	str	r0, [sp, #4]                    @ 4-byte Spill
.Ltmp322:
	.loc	4 672 20 is_stmt 1              @ ../../../ThirdParty/mbedTLS/library/x509.c:672:20
	bl	calloc
	mov	r7, r0
.Ltmp323:
	@DEBUG_VALUE: mbedtls_x509_get_sig_alg:pk_alg <- [DW_OP_LLVM_entry_value 1] $r3
	@DEBUG_VALUE: pss_opts <- $r7
	.loc	4 0 20 is_stmt 0                @ ../../../ThirdParty/mbedTLS/library/x509.c:0:20
	movs	r0, #0
	.loc	4 673 13 is_stmt 1              @ ../../../ThirdParty/mbedTLS/library/x509.c:673:13
	cbz	r7, .LBB10_13
.Ltmp324:
@ %bb.7:
	@DEBUG_VALUE: mbedtls_x509_get_sig_alg:sig_params <- [DW_OP_plus_uconst 8] [$sp+0]
	@DEBUG_VALUE: pss_opts <- $r7
	@DEBUG_VALUE: mbedtls_x509_get_sig_alg:md_alg <- $r6
	@DEBUG_VALUE: mbedtls_x509_get_sig_alg:sig_opts <- [DW_OP_plus_uconst 32] [$sp+0]
	@DEBUG_VALUE: mbedtls_x509_get_sig_alg:pk_alg <- [DW_OP_LLVM_entry_value 1] $r3
	@DEBUG_VALUE: mbedtls_x509_get_sig_alg:sig_oid <- [DW_OP_LLVM_entry_value 1] $r0
	@DEBUG_VALUE: pss_opts <- $r7
	.loc	4 0 13 is_stmt 0                @ ../../../ThirdParty/mbedTLS/library/x509.c:0:13
	str	r0, [sp]                        @ 4-byte Spill
	.loc	4 679 28 is_stmt 1              @ ../../../ThirdParty/mbedTLS/library/x509.c:679:28
	adds	r3, r7, #4
	.loc	4 676 15                        @ ../../../ThirdParty/mbedTLS/library/x509.c:676:15
	ldr	r0, [sp, #8]                    @ 4-byte Reload
.Ltmp325:
	@DEBUG_VALUE: mbedtls_x509_get_sig_alg:sig_params <- $r0
	mov	r1, r6
	mov	r2, r7
	bl	mbedtls_x509_get_rsassa_pss_params
.Ltmp326:
	@DEBUG_VALUE: mbedtls_x509_get_sig_alg:sig_params <- [DW_OP_LLVM_entry_value 1] $r1
	@DEBUG_VALUE: mbedtls_x509_get_sig_alg:ret <- $r0
	.loc	4 680 13                        @ ../../../ThirdParty/mbedTLS/library/x509.c:680:13
	cbz	r0, .LBB10_12
.Ltmp327:
@ %bb.8:
	@DEBUG_VALUE: pss_opts <- $r7
	@DEBUG_VALUE: mbedtls_x509_get_sig_alg:md_alg <- $r6
	@DEBUG_VALUE: mbedtls_x509_get_sig_alg:ret <- $r0
	@DEBUG_VALUE: mbedtls_x509_get_sig_alg:sig_opts <- [DW_OP_plus_uconst 32] [$sp+0]
	@DEBUG_VALUE: mbedtls_x509_get_sig_alg:sig_params <- [DW_OP_LLVM_entry_value 1] $r1
	@DEBUG_VALUE: mbedtls_x509_get_sig_alg:pk_alg <- [DW_OP_LLVM_entry_value 1] $r3
	@DEBUG_VALUE: mbedtls_x509_get_sig_alg:sig_oid <- [DW_OP_LLVM_entry_value 1] $r0
	.loc	4 0 0 is_stmt 0                 @ ../../../ThirdParty/mbedTLS/library/x509.c:0:0
	mov	r4, r0
.Ltmp328:
	@DEBUG_VALUE: mbedtls_x509_get_sig_alg:ret <- $r4
	.loc	4 682 13 is_stmt 1              @ ../../../ThirdParty/mbedTLS/library/x509.c:682:13
	mov	r0, r7
	bl	free
	ldr	r0, [sp]                        @ 4-byte Reload
	b	.LBB10_13
.Ltmp329:
.LBB10_9:
	@DEBUG_VALUE: mbedtls_x509_get_sig_alg:sig_params <- [DW_OP_plus_uconst 8] [$sp+0]
	@DEBUG_VALUE: mbedtls_x509_get_sig_alg:pk_alg <- $r7
	@DEBUG_VALUE: mbedtls_x509_get_sig_alg:md_alg <- $r6
	@DEBUG_VALUE: mbedtls_x509_get_sig_alg:sig_opts <- [DW_OP_plus_uconst 32] [$sp+0]
	@DEBUG_VALUE: mbedtls_x509_get_sig_alg:sig_oid <- [DW_OP_LLVM_entry_value 1] $r0
	.loc	4 0 13 is_stmt 0                @ ../../../ThirdParty/mbedTLS/library/x509.c:0:13
	ldr	r1, [sp, #8]                    @ 4-byte Reload
.Ltmp330:
	@DEBUG_VALUE: mbedtls_x509_get_sig_alg:sig_params <- $r1
	.loc	4 692 27 is_stmt 1              @ ../../../ThirdParty/mbedTLS/library/x509.c:692:27
	ldr	r0, [r1]
	ldr	r4, __arm_cp.10_1
	.loc	4 692 52 is_stmt 0              @ ../../../ThirdParty/mbedTLS/library/x509.c:692:52
	cmp	r0, #5
	beq	.LBB10_11
.Ltmp331:
@ %bb.10:
	@DEBUG_VALUE: mbedtls_x509_get_sig_alg:pk_alg <- $r7
	@DEBUG_VALUE: mbedtls_x509_get_sig_alg:md_alg <- $r6
	@DEBUG_VALUE: mbedtls_x509_get_sig_alg:sig_params <- $r1
	@DEBUG_VALUE: mbedtls_x509_get_sig_alg:sig_opts <- [DW_OP_plus_uconst 32] [$sp+0]
	@DEBUG_VALUE: mbedtls_x509_get_sig_alg:sig_oid <- [DW_OP_LLVM_entry_value 1] $r0
	cmp	r0, #0
	bne	.LBB10_4
.Ltmp332:
.LBB10_11:
	@DEBUG_VALUE: mbedtls_x509_get_sig_alg:pk_alg <- $r7
	@DEBUG_VALUE: mbedtls_x509_get_sig_alg:md_alg <- $r6
	@DEBUG_VALUE: mbedtls_x509_get_sig_alg:sig_params <- $r1
	@DEBUG_VALUE: mbedtls_x509_get_sig_alg:sig_opts <- [DW_OP_plus_uconst 32] [$sp+0]
	@DEBUG_VALUE: mbedtls_x509_get_sig_alg:sig_oid <- [DW_OP_LLVM_entry_value 1] $r0
	.loc	4 693 29 is_stmt 1              @ ../../../ThirdParty/mbedTLS/library/x509.c:693:29
	ldr	r0, [r1, #4]
.Ltmp333:
	.loc	4 692 13                        @ ../../../ThirdParty/mbedTLS/library/x509.c:692:13
	cmp	r0, #0
	bne	.LBB10_4
	b	.LBB10_14
.Ltmp334:
.LBB10_12:
	@DEBUG_VALUE: pss_opts <- $r7
	@DEBUG_VALUE: mbedtls_x509_get_sig_alg:md_alg <- $r6
	@DEBUG_VALUE: mbedtls_x509_get_sig_alg:ret <- $r0
	@DEBUG_VALUE: mbedtls_x509_get_sig_alg:sig_opts <- [DW_OP_plus_uconst 32] [$sp+0]
	@DEBUG_VALUE: mbedtls_x509_get_sig_alg:sig_params <- [DW_OP_LLVM_entry_value 1] $r1
	@DEBUG_VALUE: mbedtls_x509_get_sig_alg:pk_alg <- [DW_OP_LLVM_entry_value 1] $r3
	@DEBUG_VALUE: mbedtls_x509_get_sig_alg:sig_oid <- [DW_OP_LLVM_entry_value 1] $r0
	.loc	4 686 19                        @ ../../../ThirdParty/mbedTLS/library/x509.c:686:19
	str	r7, [r5]
	ldr	r0, [sp, #4]                    @ 4-byte Reload
.Ltmp335:
                                        @ implicit-def: $r4
.LBB10_13:
	@DEBUG_VALUE: pss_opts <- $r7
	@DEBUG_VALUE: mbedtls_x509_get_sig_alg:md_alg <- $r6
	@DEBUG_VALUE: mbedtls_x509_get_sig_alg:sig_opts <- [DW_OP_plus_uconst 32] [$sp+0]
	@DEBUG_VALUE: mbedtls_x509_get_sig_alg:pk_alg <- [DW_OP_LLVM_entry_value 1] $r3
	@DEBUG_VALUE: mbedtls_x509_get_sig_alg:sig_oid <- [DW_OP_LLVM_entry_value 1] $r0
	.loc	4 0 19 is_stmt 0                @ ../../../ThirdParty/mbedTLS/library/x509.c:0:19
	cmp	r0, #0
	beq	.LBB10_4
.Ltmp336:
.LBB10_14:
	@DEBUG_VALUE: mbedtls_x509_get_sig_alg:md_alg <- $r6
	@DEBUG_VALUE: mbedtls_x509_get_sig_alg:sig_opts <- [DW_OP_plus_uconst 32] [$sp+0]
	@DEBUG_VALUE: mbedtls_x509_get_sig_alg:sig_oid <- [DW_OP_LLVM_entry_value 1] $r0
	movs	r4, #0
	b	.LBB10_4
.Ltmp337:
	.p2align	2
@ %bb.15:
__arm_cp.10_0:
	.long	4294956928                      @ 0xffffd780
.Lcpi_end11:
	.size	__arm_cp.10_0, .Lcpi_end11-__arm_cp.10_0
__arm_cp.10_1:
	.long	4294958336                      @ 0xffffdd00
.Lcpi_end12:
	.size	__arm_cp.10_1, .Lcpi_end12-__arm_cp.10_1
.Lfunc_end10:
	.size	mbedtls_x509_get_sig_alg, .Lfunc_end10-mbedtls_x509_get_sig_alg
	.cfi_endproc
	.cantunwind
	.fnend
                                        @ -- End function
	.section	.text.mbedtls_x509_get_ext,"ax",%progbits
	.hidden	mbedtls_x509_get_ext            @ -- Begin function mbedtls_x509_get_ext
	.globl	mbedtls_x509_get_ext
	.p2align	2
	.type	mbedtls_x509_get_ext,%function
	.code	16                              @ @mbedtls_x509_get_ext
	.thumb_func
mbedtls_x509_get_ext:
.Lfunc_begin11:
	.loc	4 706 0 is_stmt 1               @ ../../../ThirdParty/mbedTLS/library/x509.c:706:0
	.fnstart
	.cfi_startproc
@ %bb.0:
	@DEBUG_VALUE: mbedtls_x509_get_ext:p <- $r0
	@DEBUG_VALUE: mbedtls_x509_get_ext:end <- $r1
	@DEBUG_VALUE: mbedtls_x509_get_ext:ext <- $r2
	@DEBUG_VALUE: mbedtls_x509_get_ext:tag <- $r3
	.save	{r4, r5, r7, lr}
	push	{r4, r5, r7, lr}
	.cfi_def_cfa_offset 16
	.cfi_offset lr, -4
	.cfi_offset r7, -8
	.cfi_offset r5, -12
	.cfi_offset r4, -16
	.pad	#8
	sub	sp, #8
	.cfi_def_cfa_offset 24
	mov	r4, r0
	@DEBUG_VALUE: mbedtls_x509_get_ext:tag <- $r3
	@DEBUG_VALUE: mbedtls_x509_get_ext:ext <- $r2
	@DEBUG_VALUE: mbedtls_x509_get_ext:end <- $r1
.Ltmp338:
	@DEBUG_VALUE: mbedtls_x509_get_ext:p <- $r4
	.loc	4 710 9 prologue_end            @ ../../../ThirdParty/mbedTLS/library/x509.c:710:9
	ldr	r0, [r0]
.Ltmp339:
	.loc	4 710 9 is_stmt 0               @ ../../../ThirdParty/mbedTLS/library/x509.c:710:9
	cmp	r0, r1
	beq	.LBB11_6
.Ltmp340:
@ %bb.1:
	@DEBUG_VALUE: mbedtls_x509_get_ext:p <- $r4
	@DEBUG_VALUE: mbedtls_x509_get_ext:tag <- $r3
	@DEBUG_VALUE: mbedtls_x509_get_ext:ext <- $r2
	@DEBUG_VALUE: mbedtls_x509_get_ext:end <- $r1
	.loc	4 0 9                           @ ../../../ThirdParty/mbedTLS/library/x509.c:0:9
	mov	r5, r2
.Ltmp341:
	@DEBUG_VALUE: mbedtls_x509_get_ext:ext <- $r5
	.loc	4 713 16 is_stmt 1              @ ../../../ThirdParty/mbedTLS/library/x509.c:713:16
	ldrb	r0, [r0]
	.loc	4 713 14 is_stmt 0              @ ../../../ThirdParty/mbedTLS/library/x509.c:713:14
	stm	r2!, {r0}
	movs	r0, #160
.Ltmp342:
	.loc	4 716 96 is_stmt 1              @ ../../../ThirdParty/mbedTLS/library/x509.c:716:96
	orrs	r3, r0
.Ltmp343:
	@DEBUG_VALUE: mbedtls_x509_get_ext:tag <- [DW_OP_LLVM_entry_value 1] $r3
	.loc	4 715 17                        @ ../../../ThirdParty/mbedTLS/library/x509.c:715:17
	mov	r0, r4
	bl	mbedtls_asn1_get_tag
.Ltmp344:
	@DEBUG_VALUE: mbedtls_x509_get_ext:end <- [DW_OP_LLVM_entry_value 1] $r1
	@DEBUG_VALUE: mbedtls_x509_get_ext:ret <- $r0
	.loc	4 715 9 is_stmt 0               @ ../../../ThirdParty/mbedTLS/library/x509.c:715:9
	cbz	r0, .LBB11_3
.Ltmp345:
.LBB11_2:
	@DEBUG_VALUE: mbedtls_x509_get_ext:p <- $r4
	@DEBUG_VALUE: mbedtls_x509_get_ext:tag <- [DW_OP_LLVM_entry_value 1] $r3
	.loc	4 739 1 is_stmt 1               @ ../../../ThirdParty/mbedTLS/library/x509.c:739:1
	add	sp, #8
	pop	{r4, r5, r7, pc}
.Ltmp346:
.LBB11_3:
	@DEBUG_VALUE: mbedtls_x509_get_ext:ext <- $r5
	@DEBUG_VALUE: mbedtls_x509_get_ext:p <- $r4
	@DEBUG_VALUE: mbedtls_x509_get_ext:ret <- $r0
	@DEBUG_VALUE: mbedtls_x509_get_ext:end <- [DW_OP_LLVM_entry_value 1] $r1
	@DEBUG_VALUE: mbedtls_x509_get_ext:tag <- [DW_OP_LLVM_entry_value 1] $r3
	.loc	4 719 14                        @ ../../../ThirdParty/mbedTLS/library/x509.c:719:14
	ldr	r0, [r4]
.Ltmp347:
	.loc	4 719 12 is_stmt 0              @ ../../../ThirdParty/mbedTLS/library/x509.c:719:12
	str	r0, [r5, #8]
	.loc	4 720 21 is_stmt 1              @ ../../../ThirdParty/mbedTLS/library/x509.c:720:21
	ldr	r0, [r5, #4]
	.loc	4 720 11 is_stmt 0              @ ../../../ThirdParty/mbedTLS/library/x509.c:720:11
	ldr	r1, [r4]
	.loc	4 720 14                        @ ../../../ThirdParty/mbedTLS/library/x509.c:720:14
	adds	r5, r1, r0
.Ltmp348:
	@DEBUG_VALUE: mbedtls_x509_get_ext:ext <- [DW_OP_LLVM_entry_value 1] $r2
	@DEBUG_VALUE: mbedtls_x509_get_ext:len <- [DW_OP_plus_uconst 4, DW_OP_deref] $sp
	@DEBUG_VALUE: mbedtls_x509_get_ext:end <- $r5
	.loc	4 0 14                          @ ../../../ThirdParty/mbedTLS/library/x509.c:0:14
	add	r2, sp, #4
	movs	r3, #48
.Ltmp349:
	.loc	4 730 17 is_stmt 1              @ ../../../ThirdParty/mbedTLS/library/x509.c:730:17
	mov	r0, r4
	mov	r1, r5
	bl	mbedtls_asn1_get_tag
	mov	r1, r0
.Ltmp350:
	@DEBUG_VALUE: mbedtls_x509_get_ext:ret <- $r1
	.loc	4 0 17 is_stmt 0                @ ../../../ThirdParty/mbedTLS/library/x509.c:0:17
	ldr	r0, __arm_cp.11_0
.Ltmp351:
	.loc	4 730 9                         @ ../../../ThirdParty/mbedTLS/library/x509.c:730:9
	cbz	r1, .LBB11_5
.Ltmp352:
@ %bb.4:
	@DEBUG_VALUE: mbedtls_x509_get_ext:end <- $r5
	@DEBUG_VALUE: mbedtls_x509_get_ext:p <- $r4
	@DEBUG_VALUE: mbedtls_x509_get_ext:ret <- $r1
	@DEBUG_VALUE: mbedtls_x509_get_ext:len <- [DW_OP_plus_uconst 4, DW_OP_deref] $sp
	@DEBUG_VALUE: mbedtls_x509_get_ext:ext <- [DW_OP_LLVM_entry_value 1] $r2
	@DEBUG_VALUE: mbedtls_x509_get_ext:tag <- [DW_OP_LLVM_entry_value 1] $r3
	.loc	4 732 53 is_stmt 1              @ ../../../ThirdParty/mbedTLS/library/x509.c:732:53
	adds	r0, r0, r1
	adds	r0, #102
.Ltmp353:
	.loc	4 739 1                         @ ../../../ThirdParty/mbedTLS/library/x509.c:739:1
	add	sp, #8
.Ltmp354:
	pop	{r4, r5, r7, pc}
.Ltmp355:
.LBB11_5:
	@DEBUG_VALUE: mbedtls_x509_get_ext:end <- $r5
	@DEBUG_VALUE: mbedtls_x509_get_ext:p <- $r4
	@DEBUG_VALUE: mbedtls_x509_get_ext:ret <- $r1
	@DEBUG_VALUE: mbedtls_x509_get_ext:len <- [DW_OP_plus_uconst 4, DW_OP_deref] $sp
	@DEBUG_VALUE: mbedtls_x509_get_ext:ext <- [DW_OP_LLVM_entry_value 1] $r2
	@DEBUG_VALUE: mbedtls_x509_get_ext:tag <- [DW_OP_LLVM_entry_value 1] $r3
	.loc	4 734 16                        @ ../../../ThirdParty/mbedTLS/library/x509.c:734:16
	ldr	r1, [r4]
.Ltmp356:
	.loc	4 734 21 is_stmt 0              @ ../../../ThirdParty/mbedTLS/library/x509.c:734:21
	ldr	r2, [sp, #4]
.Ltmp357:
	@DEBUG_VALUE: mbedtls_x509_get_ext:len <- $r2
	.loc	4 734 19                        @ ../../../ThirdParty/mbedTLS/library/x509.c:734:19
	adds	r1, r1, r2
.Ltmp358:
	.loc	4 734 9                         @ ../../../ThirdParty/mbedTLS/library/x509.c:734:9
	cmp	r5, r1
	bne	.LBB11_2
.Ltmp359:
.LBB11_6:
	@DEBUG_VALUE: mbedtls_x509_get_ext:p <- $r4
	.loc	4 0 9                           @ ../../../ThirdParty/mbedTLS/library/x509.c:0:9
	movs	r0, #0
	.loc	4 739 1 is_stmt 1               @ ../../../ThirdParty/mbedTLS/library/x509.c:739:1
	add	sp, #8
	pop	{r4, r5, r7, pc}
.Ltmp360:
	.p2align	2
@ %bb.7:
	.loc	4 0 1 is_stmt 0                 @ ../../../ThirdParty/mbedTLS/library/x509.c:0:1
__arm_cp.11_0:
	.long	4294957722                      @ 0xffffda9a
.Lcpi_end13:
	.size	__arm_cp.11_0, .Lcpi_end13-__arm_cp.11_0
.Lfunc_end11:
	.size	mbedtls_x509_get_ext, .Lfunc_end11-mbedtls_x509_get_ext
	.cfi_endproc
	.cantunwind
	.fnend
                                        @ -- End function
	.section	.text.mbedtls_x509_dn_gets,"ax",%progbits
	.hidden	mbedtls_x509_dn_gets            @ -- Begin function mbedtls_x509_dn_gets
	.globl	mbedtls_x509_dn_gets
	.p2align	2
	.type	mbedtls_x509_dn_gets,%function
	.code	16                              @ @mbedtls_x509_dn_gets
	.thumb_func
mbedtls_x509_dn_gets:
.Lfunc_begin12:
	.loc	4 746 0 is_stmt 1               @ ../../../ThirdParty/mbedTLS/library/x509.c:746:0
	.fnstart
	.cfi_startproc
@ %bb.0:
	@DEBUG_VALUE: mbedtls_x509_dn_gets:buf <- $r0
	@DEBUG_VALUE: mbedtls_x509_dn_gets:size <- $r1
	@DEBUG_VALUE: mbedtls_x509_dn_gets:dn <- $r2
	.save	{r4, r5, r6, r7, lr}
	push	{r4, r5, r6, r7, lr}
	.cfi_def_cfa_offset 20
	.cfi_offset lr, -4
	.cfi_offset r7, -8
	.cfi_offset r6, -12
	.cfi_offset r5, -16
	.cfi_offset r4, -20
	.pad	#276
	sub	sp, #276
	.cfi_def_cfa_offset 296
	mov	r6, r2
	mov	r4, r1
	mov	r5, r0
	movs	r7, #0
.Ltmp361:
	@DEBUG_VALUE: mbedtls_x509_dn_gets:short_name <- 0
	@DEBUG_VALUE: mbedtls_x509_dn_gets:merge <- 0
	@DEBUG_VALUE: mbedtls_x509_dn_gets:dn <- $r6
	@DEBUG_VALUE: mbedtls_x509_dn_gets:size <- $r4
	@DEBUG_VALUE: mbedtls_x509_dn_gets:buf <- $r5
	.loc	4 751 17 prologue_end           @ ../../../ThirdParty/mbedTLS/library/x509.c:751:17
	str	r7, [sp, #272]
	add	r0, sp, #16
	.loc	4 754 5                         @ ../../../ThirdParty/mbedTLS/library/x509.c:754:5
	movw	r1, #256
	bl	__aeabi_memclr4
	@DEBUG_VALUE: mbedtls_x509_dn_gets:dn <- $r6
	mov	r1, r4
.Ltmp362:
	@DEBUG_VALUE: mbedtls_x509_dn_gets:size <- $r1
	@DEBUG_VALUE: mbedtls_x509_dn_gets:n <- undef
	@DEBUG_VALUE: mbedtls_x509_dn_gets:p <- undef
	@DEBUG_VALUE: mbedtls_x509_dn_gets:name <- $r6
	.loc	4 760 5                         @ ../../../ThirdParty/mbedTLS/library/x509.c:760:5
	cmp	r6, #0
	beq	.LBB12_27
.Ltmp363:
@ %bb.1:
	@DEBUG_VALUE: mbedtls_x509_dn_gets:name <- $r6
	@DEBUG_VALUE: mbedtls_x509_dn_gets:dn <- $r6
	@DEBUG_VALUE: mbedtls_x509_dn_gets:buf <- $r5
	@DEBUG_VALUE: mbedtls_x509_dn_gets:size <- $r1
	@DEBUG_VALUE: mbedtls_x509_dn_gets:merge <- 0
	@DEBUG_VALUE: mbedtls_x509_dn_gets:short_name <- 0
	.loc	4 0 5 is_stmt 0                 @ ../../../ThirdParty/mbedTLS/library/x509.c:0:5
	mov	r2, r6
.Ltmp364:
	@DEBUG_VALUE: mbedtls_x509_dn_gets:name <- $r2
	@DEBUG_VALUE: mbedtls_x509_dn_gets:dn <- $r2
	mov	r4, r1
.Ltmp365:
	@DEBUG_VALUE: mbedtls_x509_dn_gets:merge <- $r7
	@DEBUG_VALUE: mbedtls_x509_dn_gets:name <- $r6
	@DEBUG_VALUE: mbedtls_x509_dn_gets:p <- $r5
	@DEBUG_VALUE: mbedtls_x509_dn_gets:n <- $r4
.LBB12_2:                               @ =>This Loop Header: Depth=1
                                        @     Child Loop BB12_16 Depth 2
	@DEBUG_VALUE: mbedtls_x509_dn_gets:name <- $r6
	@DEBUG_VALUE: mbedtls_x509_dn_gets:p <- $r5
	@DEBUG_VALUE: mbedtls_x509_dn_gets:n <- $r4
	@DEBUG_VALUE: mbedtls_x509_dn_gets:dn <- $r2
	@DEBUG_VALUE: mbedtls_x509_dn_gets:size <- $r1
	@DEBUG_VALUE: mbedtls_x509_dn_gets:name <- $r6
	.loc	4 762 24 is_stmt 1              @ ../../../ThirdParty/mbedTLS/library/x509.c:762:24
	ldr	r0, [r6, #8]
.Ltmp366:
	.loc	4 762 13 is_stmt 0              @ ../../../ThirdParty/mbedTLS/library/x509.c:762:13
	cbnz	r0, .LBB12_4
.Ltmp367:
@ %bb.3:                                @   in Loop: Header=BB12_2 Depth=1
	@DEBUG_VALUE: mbedtls_x509_dn_gets:name <- $r6
	@DEBUG_VALUE: mbedtls_x509_dn_gets:p <- $r5
	@DEBUG_VALUE: mbedtls_x509_dn_gets:n <- $r4
	@DEBUG_VALUE: mbedtls_x509_dn_gets:dn <- $r2
	@DEBUG_VALUE: mbedtls_x509_dn_gets:size <- $r1
	.loc	4 764 26 is_stmt 1              @ ../../../ThirdParty/mbedTLS/library/x509.c:764:26
	ldr	r6, [r6, #24]
.Ltmp368:
	@DEBUG_VALUE: mbedtls_x509_dn_gets:n <- $r4
	@DEBUG_VALUE: mbedtls_x509_dn_gets:p <- $r5
	@DEBUG_VALUE: mbedtls_x509_dn_gets:name <- $r6
	@DEBUG_VALUE: mbedtls_x509_dn_gets:merge <- $r7
	.loc	4 760 5                         @ ../../../ThirdParty/mbedTLS/library/x509.c:760:5
	cmp	r6, #0
	bne	.LBB12_2
	b	.LBB12_27
.Ltmp369:
.LBB12_4:                               @   in Loop: Header=BB12_2 Depth=1
	@DEBUG_VALUE: mbedtls_x509_dn_gets:name <- $r6
	@DEBUG_VALUE: mbedtls_x509_dn_gets:p <- $r5
	@DEBUG_VALUE: mbedtls_x509_dn_gets:n <- $r4
	@DEBUG_VALUE: mbedtls_x509_dn_gets:dn <- $r2
	@DEBUG_VALUE: mbedtls_x509_dn_gets:size <- $r1
	@DEBUG_VALUE: mbedtls_x509_dn_gets:name <- $r6
	.loc	4 768 13                        @ ../../../ThirdParty/mbedTLS/library/x509.c:768:13
	cmp	r6, r2
	str	r1, [sp, #12]                   @ 4-byte Spill
.Ltmp370:
	@DEBUG_VALUE: mbedtls_x509_dn_gets:size <- [DW_OP_plus_uconst 12] [$sp+0]
	@DEBUG_VALUE: mbedtls_x509_dn_gets:size <- [DW_OP_plus_uconst 12] [$sp+0]
	str	r2, [sp, #8]                    @ 4-byte Spill
.Ltmp371:
	@DEBUG_VALUE: mbedtls_x509_dn_gets:dn <- [DW_OP_plus_uconst 8] [$sp+0]
	@DEBUG_VALUE: mbedtls_x509_dn_gets:dn <- [DW_OP_plus_uconst 8] [$sp+0]
	beq	.LBB12_10
.Ltmp372:
@ %bb.5:                                @   in Loop: Header=BB12_2 Depth=1
	@DEBUG_VALUE: mbedtls_x509_dn_gets:dn <- [DW_OP_plus_uconst 8] [$sp+0]
	@DEBUG_VALUE: mbedtls_x509_dn_gets:size <- [DW_OP_plus_uconst 12] [$sp+0]
	@DEBUG_VALUE: mbedtls_x509_dn_gets:name <- $r6
	@DEBUG_VALUE: mbedtls_x509_dn_gets:p <- $r5
	@DEBUG_VALUE: mbedtls_x509_dn_gets:n <- $r4
	.loc	4 770 43                        @ ../../../ThirdParty/mbedTLS/library/x509.c:770:43
	ldr	r2, __arm_cp.12_0
	cbz	r7, .LBB12_7
.Ltmp373:
@ %bb.6:                                @   in Loop: Header=BB12_2 Depth=1
	@DEBUG_VALUE: mbedtls_x509_dn_gets:dn <- [DW_OP_plus_uconst 8] [$sp+0]
	@DEBUG_VALUE: mbedtls_x509_dn_gets:size <- [DW_OP_plus_uconst 12] [$sp+0]
	@DEBUG_VALUE: mbedtls_x509_dn_gets:name <- $r6
	@DEBUG_VALUE: mbedtls_x509_dn_gets:p <- $r5
	@DEBUG_VALUE: mbedtls_x509_dn_gets:n <- $r4
	ldr	r2, __arm_cp.12_1
.Ltmp374:
.LBB12_7:                               @   in Loop: Header=BB12_2 Depth=1
	@DEBUG_VALUE: mbedtls_x509_dn_gets:dn <- [DW_OP_plus_uconst 8] [$sp+0]
	@DEBUG_VALUE: mbedtls_x509_dn_gets:size <- [DW_OP_plus_uconst 12] [$sp+0]
	@DEBUG_VALUE: mbedtls_x509_dn_gets:name <- $r6
	@DEBUG_VALUE: mbedtls_x509_dn_gets:p <- $r5
	@DEBUG_VALUE: mbedtls_x509_dn_gets:n <- $r4
	.loc	4 770 19 is_stmt 0              @ ../../../ThirdParty/mbedTLS/library/x509.c:770:19
	mov	r0, r5
	mov	r1, r4
	bl	__2snprintf
.Ltmp375:
	@DEBUG_VALUE: mbedtls_x509_dn_gets:ret <- $r0
	.loc	4 771 13 is_stmt 1              @ ../../../ThirdParty/mbedTLS/library/x509.c:771:13
	cmp	r0, #0
	bmi	.LBB12_28
.Ltmp376:
@ %bb.8:                                @   in Loop: Header=BB12_2 Depth=1
	@DEBUG_VALUE: mbedtls_x509_dn_gets:dn <- [DW_OP_plus_uconst 8] [$sp+0]
	@DEBUG_VALUE: mbedtls_x509_dn_gets:size <- [DW_OP_plus_uconst 12] [$sp+0]
	@DEBUG_VALUE: mbedtls_x509_dn_gets:name <- $r6
	@DEBUG_VALUE: mbedtls_x509_dn_gets:p <- $r5
	@DEBUG_VALUE: mbedtls_x509_dn_gets:n <- $r4
	@DEBUG_VALUE: mbedtls_x509_dn_gets:ret <- $r0
	cmp	r4, r0
	bls	.LBB12_28
.Ltmp377:
@ %bb.9:                                @   in Loop: Header=BB12_2 Depth=1
	@DEBUG_VALUE: mbedtls_x509_dn_gets:dn <- [DW_OP_plus_uconst 8] [$sp+0]
	@DEBUG_VALUE: mbedtls_x509_dn_gets:size <- [DW_OP_plus_uconst 12] [$sp+0]
	@DEBUG_VALUE: mbedtls_x509_dn_gets:name <- $r6
	@DEBUG_VALUE: mbedtls_x509_dn_gets:p <- $r5
	@DEBUG_VALUE: mbedtls_x509_dn_gets:n <- $r4
	@DEBUG_VALUE: mbedtls_x509_dn_gets:ret <- $r0
	.loc	4 771 13 is_stmt 0              @ ../../../ThirdParty/mbedTLS/library/x509.c:771:13
	adds	r5, r5, r0
.Ltmp378:
	@DEBUG_VALUE: mbedtls_x509_dn_gets:p <- $r5
	subs	r4, r4, r0
.Ltmp379:
	@DEBUG_VALUE: mbedtls_x509_dn_gets:n <- $r4
.LBB12_10:                              @   in Loop: Header=BB12_2 Depth=1
	@DEBUG_VALUE: mbedtls_x509_dn_gets:dn <- [DW_OP_plus_uconst 8] [$sp+0]
	@DEBUG_VALUE: mbedtls_x509_dn_gets:size <- [DW_OP_plus_uconst 12] [$sp+0]
	@DEBUG_VALUE: mbedtls_x509_dn_gets:name <- $r6
	@DEBUG_VALUE: mbedtls_x509_dn_gets:p <- $r5
	@DEBUG_VALUE: mbedtls_x509_dn_gets:n <- $r4
	@DEBUG_VALUE: mbedtls_x509_dn_gets:short_name <- [DW_OP_plus_uconst 272, DW_OP_deref] $sp
	@DEBUG_VALUE: mbedtls_x509_dn_gets:p <- $r5
	@DEBUG_VALUE: mbedtls_x509_dn_gets:n <- $r4
	.loc	4 0 13                          @ ../../../ThirdParty/mbedTLS/library/x509.c:0:13
	add	r1, sp, #272
	.loc	4 774 15 is_stmt 1              @ ../../../ThirdParty/mbedTLS/library/x509.c:774:15
	mov	r0, r6
	bl	mbedtls_oid_get_attr_short_name
.Ltmp380:
	@DEBUG_VALUE: mbedtls_x509_dn_gets:ret <- $r0
	.loc	4 776 13                        @ ../../../ThirdParty/mbedTLS/library/x509.c:776:13
	cbz	r0, .LBB12_12
.Ltmp381:
@ %bb.11:                               @   in Loop: Header=BB12_2 Depth=1
	@DEBUG_VALUE: mbedtls_x509_dn_gets:dn <- [DW_OP_plus_uconst 8] [$sp+0]
	@DEBUG_VALUE: mbedtls_x509_dn_gets:size <- [DW_OP_plus_uconst 12] [$sp+0]
	@DEBUG_VALUE: mbedtls_x509_dn_gets:name <- $r6
	@DEBUG_VALUE: mbedtls_x509_dn_gets:p <- $r5
	@DEBUG_VALUE: mbedtls_x509_dn_gets:n <- $r4
	@DEBUG_VALUE: mbedtls_x509_dn_gets:ret <- $r0
	@DEBUG_VALUE: mbedtls_x509_dn_gets:short_name <- [DW_OP_plus_uconst 272, DW_OP_deref] $sp
	.loc	4 779 19                        @ ../../../ThirdParty/mbedTLS/library/x509.c:779:19
	mov	r0, r5
.Ltmp382:
	mov	r1, r4
	adr	r2, .LCPI12_3
	bl	__2snprintf
.Ltmp383:
	@DEBUG_VALUE: mbedtls_x509_dn_gets:ret <- $r0
	@DEBUG_VALUE: mbedtls_x509_dn_gets:ret <- $r0
	.loc	4 780 9                         @ ../../../ThirdParty/mbedTLS/library/x509.c:780:9
	cmp	r0, #0
	bpl	.LBB12_13
	b	.LBB12_28
.Ltmp384:
.LBB12_12:                              @   in Loop: Header=BB12_2 Depth=1
	@DEBUG_VALUE: mbedtls_x509_dn_gets:dn <- [DW_OP_plus_uconst 8] [$sp+0]
	@DEBUG_VALUE: mbedtls_x509_dn_gets:size <- [DW_OP_plus_uconst 12] [$sp+0]
	@DEBUG_VALUE: mbedtls_x509_dn_gets:name <- $r6
	@DEBUG_VALUE: mbedtls_x509_dn_gets:p <- $r5
	@DEBUG_VALUE: mbedtls_x509_dn_gets:n <- $r4
	@DEBUG_VALUE: mbedtls_x509_dn_gets:ret <- $r0
	@DEBUG_VALUE: mbedtls_x509_dn_gets:short_name <- [DW_OP_plus_uconst 272, DW_OP_deref] $sp
	.loc	4 777 50                        @ ../../../ThirdParty/mbedTLS/library/x509.c:777:50
	ldr	r3, [sp, #272]
.Ltmp385:
	@DEBUG_VALUE: mbedtls_x509_dn_gets:short_name <- $r3
	.loc	4 777 19 is_stmt 0              @ ../../../ThirdParty/mbedTLS/library/x509.c:777:19
	mov	r0, r5
.Ltmp386:
	mov	r1, r4
	adr	r2, .LCPI12_4
	bl	__2snprintf
.Ltmp387:
	@DEBUG_VALUE: mbedtls_x509_dn_gets:ret <- $r0
	@DEBUG_VALUE: mbedtls_x509_dn_gets:ret <- $r0
	.loc	4 780 9 is_stmt 1               @ ../../../ThirdParty/mbedTLS/library/x509.c:780:9
	cmp	r0, #0
	bmi	.LBB12_28
.Ltmp388:
.LBB12_13:                              @   in Loop: Header=BB12_2 Depth=1
	@DEBUG_VALUE: mbedtls_x509_dn_gets:dn <- [DW_OP_plus_uconst 8] [$sp+0]
	@DEBUG_VALUE: mbedtls_x509_dn_gets:size <- [DW_OP_plus_uconst 12] [$sp+0]
	@DEBUG_VALUE: mbedtls_x509_dn_gets:name <- $r6
	@DEBUG_VALUE: mbedtls_x509_dn_gets:p <- $r5
	@DEBUG_VALUE: mbedtls_x509_dn_gets:n <- $r4
	@DEBUG_VALUE: mbedtls_x509_dn_gets:ret <- $r0
	cmp	r4, r0
	bls	.LBB12_28
.Ltmp389:
@ %bb.14:                               @   in Loop: Header=BB12_2 Depth=1
	@DEBUG_VALUE: mbedtls_x509_dn_gets:dn <- [DW_OP_plus_uconst 8] [$sp+0]
	@DEBUG_VALUE: mbedtls_x509_dn_gets:size <- [DW_OP_plus_uconst 12] [$sp+0]
	@DEBUG_VALUE: mbedtls_x509_dn_gets:name <- $r6
	@DEBUG_VALUE: mbedtls_x509_dn_gets:p <- $r5
	@DEBUG_VALUE: mbedtls_x509_dn_gets:n <- $r4
	@DEBUG_VALUE: mbedtls_x509_dn_gets:ret <- $r0
	.loc	4 780 9 is_stmt 0               @ ../../../ThirdParty/mbedTLS/library/x509.c:780:9
	adds	r1, r5, r0
.Ltmp390:
	@DEBUG_VALUE: mbedtls_x509_dn_gets:p <- $r1
	str	r1, [sp, #4]                    @ 4-byte Spill
.Ltmp391:
	@DEBUG_VALUE: mbedtls_x509_dn_gets:p <- [DW_OP_plus_uconst 4] [$sp+0]
	@DEBUG_VALUE: mbedtls_x509_dn_gets:p <- [DW_OP_plus_uconst 4] [$sp+0]
	@DEBUG_VALUE: mbedtls_x509_dn_gets:p <- [DW_OP_plus_uconst 4] [$sp+0]
	subs	r4, r4, r0
.Ltmp392:
	@DEBUG_VALUE: mbedtls_x509_dn_gets:i <- 0
	@DEBUG_VALUE: mbedtls_x509_dn_gets:n <- $r4
	.loc	4 782 35 is_stmt 1              @ ../../../ThirdParty/mbedTLS/library/x509.c:782:35
	ldr	r1, [r6, #16]
	movs	r0, #0
.Ltmp393:
	.loc	4 0 0 is_stmt 0                 @ ../../../ThirdParty/mbedTLS/library/x509.c:0:0
	mov	r2, r0
	.loc	4 782 9                         @ ../../../ThirdParty/mbedTLS/library/x509.c:782:9
	cbz	r1, .LBB12_24
.Ltmp394:
@ %bb.15:                               @   in Loop: Header=BB12_2 Depth=1
	@DEBUG_VALUE: mbedtls_x509_dn_gets:dn <- [DW_OP_plus_uconst 8] [$sp+0]
	@DEBUG_VALUE: mbedtls_x509_dn_gets:size <- [DW_OP_plus_uconst 12] [$sp+0]
	@DEBUG_VALUE: mbedtls_x509_dn_gets:name <- $r6
	@DEBUG_VALUE: mbedtls_x509_dn_gets:n <- $r4
	@DEBUG_VALUE: mbedtls_x509_dn_gets:p <- [DW_OP_plus_uconst 4] [$sp+0]
	@DEBUG_VALUE: mbedtls_x509_dn_gets:i <- 0
	.loc	4 0 9                           @ ../../../ThirdParty/mbedTLS/library/x509.c:0:9
	movs	r1, #0
.Ltmp395:
.LBB12_16:                              @   Parent Loop BB12_2 Depth=1
                                        @ =>  This Inner Loop Header: Depth=2
	@DEBUG_VALUE: mbedtls_x509_dn_gets:dn <- [DW_OP_plus_uconst 8] [$sp+0]
	@DEBUG_VALUE: mbedtls_x509_dn_gets:size <- [DW_OP_plus_uconst 12] [$sp+0]
	@DEBUG_VALUE: mbedtls_x509_dn_gets:name <- $r6
	@DEBUG_VALUE: mbedtls_x509_dn_gets:n <- $r4
	@DEBUG_VALUE: mbedtls_x509_dn_gets:p <- [DW_OP_plus_uconst 4] [$sp+0]
	@DEBUG_VALUE: mbedtls_x509_dn_gets:i <- $r1
	.loc	4 787 27 is_stmt 1              @ ../../../ThirdParty/mbedTLS/library/x509.c:787:27
	ldr	r2, [r6, #20]
	.loc	4 787 17 is_stmt 0              @ ../../../ThirdParty/mbedTLS/library/x509.c:787:17
	ldrb	r3, [r2, r1]
.Ltmp396:
	@DEBUG_VALUE: mbedtls_x509_dn_gets:c <- $r3
	.loc	4 0 17                          @ ../../../ThirdParty/mbedTLS/library/x509.c:0:17
	mov	r2, r3
	adds	r2, #127
	uxtb	r5, r2
	movs	r2, #63
.Ltmp397:
	.loc	4 788 24 is_stmt 1              @ ../../../ThirdParty/mbedTLS/library/x509.c:788:24
	cmp	r5, #31
	mov	r7, r2
	blo	.LBB12_18
.Ltmp398:
@ %bb.17:                               @   in Loop: Header=BB12_16 Depth=2
	@DEBUG_VALUE: mbedtls_x509_dn_gets:dn <- [DW_OP_plus_uconst 8] [$sp+0]
	@DEBUG_VALUE: mbedtls_x509_dn_gets:size <- [DW_OP_plus_uconst 12] [$sp+0]
	@DEBUG_VALUE: mbedtls_x509_dn_gets:name <- $r6
	@DEBUG_VALUE: mbedtls_x509_dn_gets:n <- $r4
	@DEBUG_VALUE: mbedtls_x509_dn_gets:c <- $r3
	@DEBUG_VALUE: mbedtls_x509_dn_gets:i <- $r1
	@DEBUG_VALUE: mbedtls_x509_dn_gets:p <- [DW_OP_plus_uconst 4] [$sp+0]
	mov	r7, r3
.Ltmp399:
.LBB12_18:                              @   in Loop: Header=BB12_16 Depth=2
	@DEBUG_VALUE: mbedtls_x509_dn_gets:dn <- [DW_OP_plus_uconst 8] [$sp+0]
	@DEBUG_VALUE: mbedtls_x509_dn_gets:size <- [DW_OP_plus_uconst 12] [$sp+0]
	@DEBUG_VALUE: mbedtls_x509_dn_gets:name <- $r6
	@DEBUG_VALUE: mbedtls_x509_dn_gets:n <- $r4
	@DEBUG_VALUE: mbedtls_x509_dn_gets:c <- $r3
	@DEBUG_VALUE: mbedtls_x509_dn_gets:i <- $r1
	@DEBUG_VALUE: mbedtls_x509_dn_gets:p <- [DW_OP_plus_uconst 4] [$sp+0]
	cmp	r3, #127
	mov	r5, r2
	beq	.LBB12_20
.Ltmp400:
@ %bb.19:                               @   in Loop: Header=BB12_16 Depth=2
	@DEBUG_VALUE: mbedtls_x509_dn_gets:dn <- [DW_OP_plus_uconst 8] [$sp+0]
	@DEBUG_VALUE: mbedtls_x509_dn_gets:size <- [DW_OP_plus_uconst 12] [$sp+0]
	@DEBUG_VALUE: mbedtls_x509_dn_gets:name <- $r6
	@DEBUG_VALUE: mbedtls_x509_dn_gets:n <- $r4
	@DEBUG_VALUE: mbedtls_x509_dn_gets:c <- $r3
	@DEBUG_VALUE: mbedtls_x509_dn_gets:i <- $r1
	@DEBUG_VALUE: mbedtls_x509_dn_gets:p <- [DW_OP_plus_uconst 4] [$sp+0]
	mov	r5, r7
.Ltmp401:
.LBB12_20:                              @   in Loop: Header=BB12_16 Depth=2
	@DEBUG_VALUE: mbedtls_x509_dn_gets:dn <- [DW_OP_plus_uconst 8] [$sp+0]
	@DEBUG_VALUE: mbedtls_x509_dn_gets:size <- [DW_OP_plus_uconst 12] [$sp+0]
	@DEBUG_VALUE: mbedtls_x509_dn_gets:name <- $r6
	@DEBUG_VALUE: mbedtls_x509_dn_gets:n <- $r4
	@DEBUG_VALUE: mbedtls_x509_dn_gets:c <- $r3
	@DEBUG_VALUE: mbedtls_x509_dn_gets:i <- $r1
	@DEBUG_VALUE: mbedtls_x509_dn_gets:p <- [DW_OP_plus_uconst 4] [$sp+0]
	cmp	r3, #32
	blo	.LBB12_22
.Ltmp402:
@ %bb.21:                               @   in Loop: Header=BB12_16 Depth=2
	@DEBUG_VALUE: mbedtls_x509_dn_gets:dn <- [DW_OP_plus_uconst 8] [$sp+0]
	@DEBUG_VALUE: mbedtls_x509_dn_gets:size <- [DW_OP_plus_uconst 12] [$sp+0]
	@DEBUG_VALUE: mbedtls_x509_dn_gets:name <- $r6
	@DEBUG_VALUE: mbedtls_x509_dn_gets:n <- $r4
	@DEBUG_VALUE: mbedtls_x509_dn_gets:c <- $r3
	@DEBUG_VALUE: mbedtls_x509_dn_gets:i <- $r1
	@DEBUG_VALUE: mbedtls_x509_dn_gets:p <- [DW_OP_plus_uconst 4] [$sp+0]
	mov	r2, r5
.Ltmp403:
.LBB12_22:                              @   in Loop: Header=BB12_16 Depth=2
	@DEBUG_VALUE: mbedtls_x509_dn_gets:dn <- [DW_OP_plus_uconst 8] [$sp+0]
	@DEBUG_VALUE: mbedtls_x509_dn_gets:size <- [DW_OP_plus_uconst 12] [$sp+0]
	@DEBUG_VALUE: mbedtls_x509_dn_gets:name <- $r6
	@DEBUG_VALUE: mbedtls_x509_dn_gets:n <- $r4
	@DEBUG_VALUE: mbedtls_x509_dn_gets:c <- $r3
	@DEBUG_VALUE: mbedtls_x509_dn_gets:i <- $r1
	@DEBUG_VALUE: mbedtls_x509_dn_gets:p <- [DW_OP_plus_uconst 4] [$sp+0]
	.loc	4 0 24 is_stmt 0                @ ../../../ThirdParty/mbedTLS/library/x509.c:0:24
	add	r3, sp, #16
.Ltmp404:
	strb	r2, [r3, r1]
.Ltmp405:
	.loc	4 782 41 is_stmt 1              @ ../../../ThirdParty/mbedTLS/library/x509.c:782:41
	adds	r2, r1, #1
.Ltmp406:
	@DEBUG_VALUE: mbedtls_x509_dn_gets:i <- $r2
	.loc	4 782 9 is_stmt 0               @ ../../../ThirdParty/mbedTLS/library/x509.c:782:9
	cmp	r1, #253
	bhi	.LBB12_24
.Ltmp407:
@ %bb.23:                               @   in Loop: Header=BB12_16 Depth=2
	@DEBUG_VALUE: mbedtls_x509_dn_gets:dn <- [DW_OP_plus_uconst 8] [$sp+0]
	@DEBUG_VALUE: mbedtls_x509_dn_gets:size <- [DW_OP_plus_uconst 12] [$sp+0]
	@DEBUG_VALUE: mbedtls_x509_dn_gets:name <- $r6
	@DEBUG_VALUE: mbedtls_x509_dn_gets:n <- $r4
	@DEBUG_VALUE: mbedtls_x509_dn_gets:i <- $r2
	@DEBUG_VALUE: mbedtls_x509_dn_gets:p <- [DW_OP_plus_uconst 4] [$sp+0]
	.loc	4 0 0                           @ ../../../ThirdParty/mbedTLS/library/x509.c:0:0
	ldr	r1, [r6, #16]
	.loc	4 782 9                         @ ../../../ThirdParty/mbedTLS/library/x509.c:782:9
	cmp	r2, r1
	mov	r1, r2
	blo	.LBB12_16
.Ltmp408:
.LBB12_24:                              @   in Loop: Header=BB12_2 Depth=1
	@DEBUG_VALUE: mbedtls_x509_dn_gets:dn <- [DW_OP_plus_uconst 8] [$sp+0]
	@DEBUG_VALUE: mbedtls_x509_dn_gets:size <- [DW_OP_plus_uconst 12] [$sp+0]
	@DEBUG_VALUE: mbedtls_x509_dn_gets:name <- $r6
	@DEBUG_VALUE: mbedtls_x509_dn_gets:n <- $r4
	@DEBUG_VALUE: mbedtls_x509_dn_gets:p <- [DW_OP_plus_uconst 4] [$sp+0]
	@DEBUG_VALUE: mbedtls_x509_dn_gets:i <- $r2
	.loc	4 0 9                           @ ../../../ThirdParty/mbedTLS/library/x509.c:0:9
	add	r3, sp, #16
	.loc	4 792 14 is_stmt 1              @ ../../../ThirdParty/mbedTLS/library/x509.c:792:14
	strb	r0, [r3, r2]
	ldr	r5, [sp, #4]                    @ 4-byte Reload
	.loc	4 793 15                        @ ../../../ThirdParty/mbedTLS/library/x509.c:793:15
	mov	r0, r5
	mov	r1, r4
	ldr	r2, __arm_cp.12_5
.Ltmp409:
	bl	__2snprintf
.Ltmp410:
	@DEBUG_VALUE: mbedtls_x509_dn_gets:ret <- $r0
	.loc	4 794 9                         @ ../../../ThirdParty/mbedTLS/library/x509.c:794:9
	cmp	r0, #0
	bmi	.LBB12_28
.Ltmp411:
@ %bb.25:                               @   in Loop: Header=BB12_2 Depth=1
	@DEBUG_VALUE: mbedtls_x509_dn_gets:dn <- [DW_OP_plus_uconst 8] [$sp+0]
	@DEBUG_VALUE: mbedtls_x509_dn_gets:size <- [DW_OP_plus_uconst 12] [$sp+0]
	@DEBUG_VALUE: mbedtls_x509_dn_gets:name <- $r6
	@DEBUG_VALUE: mbedtls_x509_dn_gets:n <- $r4
	@DEBUG_VALUE: mbedtls_x509_dn_gets:ret <- $r0
	@DEBUG_VALUE: mbedtls_x509_dn_gets:p <- [DW_OP_plus_uconst 4] [$sp+0]
	cmp	r4, r0
	bls	.LBB12_28
.Ltmp412:
@ %bb.26:                               @   in Loop: Header=BB12_2 Depth=1
	@DEBUG_VALUE: mbedtls_x509_dn_gets:dn <- [DW_OP_plus_uconst 8] [$sp+0]
	@DEBUG_VALUE: mbedtls_x509_dn_gets:size <- [DW_OP_plus_uconst 12] [$sp+0]
	@DEBUG_VALUE: mbedtls_x509_dn_gets:name <- $r6
	@DEBUG_VALUE: mbedtls_x509_dn_gets:n <- $r4
	@DEBUG_VALUE: mbedtls_x509_dn_gets:ret <- $r0
	@DEBUG_VALUE: mbedtls_x509_dn_gets:p <- [DW_OP_plus_uconst 4] [$sp+0]
	.loc	4 794 9 is_stmt 0               @ ../../../ThirdParty/mbedTLS/library/x509.c:794:9
	adds	r5, r5, r0
.Ltmp413:
	@DEBUG_VALUE: mbedtls_x509_dn_gets:p <- $r5
	subs	r4, r4, r0
.Ltmp414:
	@DEBUG_VALUE: mbedtls_x509_dn_gets:n <- $r4
	@DEBUG_VALUE: mbedtls_x509_dn_gets:merge <- undef
	.loc	4 797 22 is_stmt 1              @ ../../../ThirdParty/mbedTLS/library/x509.c:797:22
	ldr	r0, [r6, #24]
.Ltmp415:
	@DEBUG_VALUE: mbedtls_x509_dn_gets:name <- $r0
	.loc	4 796 23                        @ ../../../ThirdParty/mbedTLS/library/x509.c:796:23
	ldrb	r7, [r6, #28]
.Ltmp416:
	.loc	4 760 5                         @ ../../../ThirdParty/mbedTLS/library/x509.c:760:5
	cmp	r0, #0
	mov	r6, r0
.Ltmp417:
	@DEBUG_VALUE: mbedtls_x509_dn_gets:name <- $r6
	@DEBUG_VALUE: mbedtls_x509_dn_gets:name <- $r6
	.loc	4 0 5 is_stmt 0                 @ ../../../ThirdParty/mbedTLS/library/x509.c:0:5
	ldr	r1, [sp, #12]                   @ 4-byte Reload
.Ltmp418:
	@DEBUG_VALUE: mbedtls_x509_dn_gets:size <- $r1
	ldr	r2, [sp, #8]                    @ 4-byte Reload
.Ltmp419:
	@DEBUG_VALUE: mbedtls_x509_dn_gets:dn <- $r2
	.loc	4 760 5                         @ ../../../ThirdParty/mbedTLS/library/x509.c:760:5
	bne	.LBB12_2
.Ltmp420:
.LBB12_27:
	@DEBUG_VALUE: mbedtls_x509_dn_gets:name <- $r6
	@DEBUG_VALUE: mbedtls_x509_dn_gets:size <- $r1
	.loc	4 800 26 is_stmt 1              @ ../../../ThirdParty/mbedTLS/library/x509.c:800:26
	subs	r0, r1, r4
	.loc	4 801 1                         @ ../../../ThirdParty/mbedTLS/library/x509.c:801:1
	add	sp, #276
	pop	{r4, r5, r6, r7, pc}
.Ltmp421:
.LBB12_28:
	@DEBUG_VALUE: mbedtls_x509_dn_gets:dn <- [DW_OP_plus_uconst 8] [$sp+0]
	@DEBUG_VALUE: mbedtls_x509_dn_gets:size <- [DW_OP_plus_uconst 12] [$sp+0]
	@DEBUG_VALUE: mbedtls_x509_dn_gets:name <- $r6
	@DEBUG_VALUE: mbedtls_x509_dn_gets:n <- $r4
	@DEBUG_VALUE: mbedtls_x509_dn_gets:ret <- $r0
	.loc	4 0 1 is_stmt 0                 @ ../../../ThirdParty/mbedTLS/library/x509.c:0:1
	ldr	r0, __arm_cp.12_2
.Ltmp422:
	.loc	4 801 1                         @ ../../../ThirdParty/mbedTLS/library/x509.c:801:1
	add	sp, #276
.Ltmp423:
	pop	{r4, r5, r6, r7, pc}
.Ltmp424:
	.p2align	2
@ %bb.29:
	.loc	4 0 1                           @ ../../../ThirdParty/mbedTLS/library/x509.c:0:1
__arm_cp.12_0:
	.long	.L.str.2
.Lcpi_end14:
	.size	__arm_cp.12_0, .Lcpi_end14-__arm_cp.12_0
__arm_cp.12_1:
	.long	.L.str.1
.Lcpi_end15:
	.size	__arm_cp.12_1, .Lcpi_end15-__arm_cp.12_1
__arm_cp.12_2:
	.long	4294956672                      @ 0xffffd680
.Lcpi_end16:
	.size	__arm_cp.12_2, .Lcpi_end16-__arm_cp.12_2
.LCPI12_3:
.L.str.4:
	.asciz	"??="
.LCPI12_4:
.L.str.3:
	.asciz	"%s="
__arm_cp.12_5:
	.long	.L.str.5
.Lcpi_end17:
	.size	__arm_cp.12_5, .Lcpi_end17-__arm_cp.12_5
.Lfunc_end12:
	.size	mbedtls_x509_dn_gets, .Lfunc_end12-mbedtls_x509_dn_gets
	.cfi_endproc
	.cantunwind
	.fnend
                                        @ -- End function
	.section	.text.mbedtls_x509_serial_gets,"ax",%progbits
	.hidden	mbedtls_x509_serial_gets        @ -- Begin function mbedtls_x509_serial_gets
	.globl	mbedtls_x509_serial_gets
	.p2align	2
	.type	mbedtls_x509_serial_gets,%function
	.code	16                              @ @mbedtls_x509_serial_gets
	.thumb_func
mbedtls_x509_serial_gets:
.Lfunc_begin13:
	.loc	4 808 0 is_stmt 1               @ ../../../ThirdParty/mbedTLS/library/x509.c:808:0
	.fnstart
	.cfi_startproc
@ %bb.0:
	@DEBUG_VALUE: mbedtls_x509_serial_gets:buf <- $r0
	@DEBUG_VALUE: mbedtls_x509_serial_gets:size <- $r1
	@DEBUG_VALUE: mbedtls_x509_serial_gets:serial <- $r2
	.save	{r4, r5, r6, r7, lr}
	push	{r4, r5, r6, r7, lr}
	.cfi_def_cfa_offset 20
	.cfi_offset lr, -4
	.cfi_offset r7, -8
	.cfi_offset r6, -12
	.cfi_offset r5, -16
	.cfi_offset r4, -20
	.pad	#20
	sub	sp, #20
	.cfi_def_cfa_offset 40
.Ltmp425:
	@DEBUG_VALUE: mbedtls_x509_serial_gets:p <- $r0
	@DEBUG_VALUE: mbedtls_x509_serial_gets:n <- $r1
	mov	r6, r0
	str	r2, [sp, #16]                   @ 4-byte Spill
	@DEBUG_VALUE: mbedtls_x509_serial_gets:n <- $r1
.Ltmp426:
	@DEBUG_VALUE: mbedtls_x509_serial_gets:p <- $r6
	@DEBUG_VALUE: mbedtls_x509_serial_gets:serial <- [DW_OP_plus_uconst 16] [$sp+0]
	@DEBUG_VALUE: mbedtls_x509_serial_gets:size <- $r1
	@DEBUG_VALUE: mbedtls_x509_serial_gets:buf <- $r6
	.loc	4 816 20 prologue_end           @ ../../../ThirdParty/mbedTLS/library/x509.c:816:20
	ldr	r4, [r2, #4]
	.loc	4 816 10 is_stmt 0              @ ../../../ThirdParty/mbedTLS/library/x509.c:816:10
	cmp	r4, #33
	blo	.LBB13_2
.Ltmp427:
@ %bb.1:
	@DEBUG_VALUE: mbedtls_x509_serial_gets:buf <- $r6
	@DEBUG_VALUE: mbedtls_x509_serial_gets:p <- $r6
	@DEBUG_VALUE: mbedtls_x509_serial_gets:n <- $r1
	@DEBUG_VALUE: mbedtls_x509_serial_gets:size <- $r1
	@DEBUG_VALUE: mbedtls_x509_serial_gets:serial <- [DW_OP_plus_uconst 16] [$sp+0]
	.loc	4 0 10                          @ ../../../ThirdParty/mbedTLS/library/x509.c:0:10
	movs	r4, #28
.Ltmp428:
.LBB13_2:
	@DEBUG_VALUE: mbedtls_x509_serial_gets:buf <- $r6
	@DEBUG_VALUE: mbedtls_x509_serial_gets:p <- $r6
	@DEBUG_VALUE: mbedtls_x509_serial_gets:n <- $r1
	@DEBUG_VALUE: mbedtls_x509_serial_gets:size <- $r1
	@DEBUG_VALUE: mbedtls_x509_serial_gets:serial <- [DW_OP_plus_uconst 16] [$sp+0]
	@DEBUG_VALUE: mbedtls_x509_serial_gets:p <- undef
	@DEBUG_VALUE: mbedtls_x509_serial_gets:n <- undef
	@DEBUG_VALUE: mbedtls_x509_serial_gets:nr <- $r4
	@DEBUG_VALUE: mbedtls_x509_serial_gets:i <- 0
	.loc	4 819 5 is_stmt 1               @ ../../../ThirdParty/mbedTLS/library/x509.c:819:5
	str	r1, [sp, #8]                    @ 4-byte Spill
	cbz	r4, .LBB13_13
.Ltmp429:
@ %bb.3:
	@DEBUG_VALUE: mbedtls_x509_serial_gets:buf <- $r6
	@DEBUG_VALUE: mbedtls_x509_serial_gets:nr <- $r4
	@DEBUG_VALUE: mbedtls_x509_serial_gets:size <- $r1
	@DEBUG_VALUE: mbedtls_x509_serial_gets:serial <- [DW_OP_plus_uconst 16] [$sp+0]
	@DEBUG_VALUE: mbedtls_x509_serial_gets:i <- 0
	.loc	4 0 0 is_stmt 0                 @ ../../../ThirdParty/mbedTLS/library/x509.c:0:0
	subs	r0, r4, #1
	str	r0, [sp, #12]                   @ 4-byte Spill
	movs	r7, #0
	mov	r5, r1
.Ltmp430:
	@DEBUG_VALUE: mbedtls_x509_serial_gets:size <- $r5
	b	.LBB13_5
.Ltmp431:
.LBB13_4:                               @   in Loop: Header=BB13_5 Depth=1
	@DEBUG_VALUE: mbedtls_x509_serial_gets:i <- $r7
	@DEBUG_VALUE: mbedtls_x509_serial_gets:p <- $r6
	@DEBUG_VALUE: mbedtls_x509_serial_gets:n <- $r5
	@DEBUG_VALUE: mbedtls_x509_serial_gets:nr <- $r4
	@DEBUG_VALUE: mbedtls_x509_serial_gets:serial <- [DW_OP_plus_uconst 16] [$sp+0]
	@DEBUG_VALUE: mbedtls_x509_serial_gets:p <- $r6
	@DEBUG_VALUE: mbedtls_x509_serial_gets:n <- $r5
	.loc	4 819 26                        @ ../../../ThirdParty/mbedTLS/library/x509.c:819:26
	adds	r7, r7, #1
.Ltmp432:
	@DEBUG_VALUE: mbedtls_x509_serial_gets:i <- $r7
	.loc	4 819 5                         @ ../../../ThirdParty/mbedTLS/library/x509.c:819:5
	cmp	r4, r7
	beq	.LBB13_14
.Ltmp433:
.LBB13_5:                               @ =>This Inner Loop Header: Depth=1
	@DEBUG_VALUE: mbedtls_x509_serial_gets:nr <- $r4
	@DEBUG_VALUE: mbedtls_x509_serial_gets:serial <- [DW_OP_plus_uconst 16] [$sp+0]
	@DEBUG_VALUE: mbedtls_x509_serial_gets:p <- $r6
	@DEBUG_VALUE: mbedtls_x509_serial_gets:n <- $r5
	@DEBUG_VALUE: mbedtls_x509_serial_gets:i <- $r7
	.loc	4 821 20 is_stmt 1              @ ../../../ThirdParty/mbedTLS/library/x509.c:821:20
	cmp	r4, #1
	beq	.LBB13_8
.Ltmp434:
@ %bb.6:                                @   in Loop: Header=BB13_5 Depth=1
	@DEBUG_VALUE: mbedtls_x509_serial_gets:i <- $r7
	@DEBUG_VALUE: mbedtls_x509_serial_gets:p <- $r6
	@DEBUG_VALUE: mbedtls_x509_serial_gets:n <- $r5
	@DEBUG_VALUE: mbedtls_x509_serial_gets:nr <- $r4
	@DEBUG_VALUE: mbedtls_x509_serial_gets:serial <- [DW_OP_plus_uconst 16] [$sp+0]
	cbnz	r7, .LBB13_8
.Ltmp435:
@ %bb.7:                                @   in Loop: Header=BB13_5 Depth=1
	@DEBUG_VALUE: mbedtls_x509_serial_gets:i <- $r7
	@DEBUG_VALUE: mbedtls_x509_serial_gets:p <- $r6
	@DEBUG_VALUE: mbedtls_x509_serial_gets:n <- $r5
	@DEBUG_VALUE: mbedtls_x509_serial_gets:nr <- $r4
	@DEBUG_VALUE: mbedtls_x509_serial_gets:serial <- [DW_OP_plus_uconst 16] [$sp+0]
	.loc	4 821 41 is_stmt 0              @ ../../../ThirdParty/mbedTLS/library/x509.c:821:41
	ldr	r0, [sp, #16]                   @ 4-byte Reload
	ldr	r0, [r0, #8]
	.loc	4 821 33                        @ ../../../ThirdParty/mbedTLS/library/x509.c:821:33
	ldrb	r0, [r0]
.Ltmp436:
	.loc	4 821 13                        @ ../../../ThirdParty/mbedTLS/library/x509.c:821:13
	cmp	r0, #0
	beq	.LBB13_4
.Ltmp437:
.LBB13_8:                               @   in Loop: Header=BB13_5 Depth=1
	@DEBUG_VALUE: mbedtls_x509_serial_gets:i <- $r7
	@DEBUG_VALUE: mbedtls_x509_serial_gets:p <- $r6
	@DEBUG_VALUE: mbedtls_x509_serial_gets:n <- $r5
	@DEBUG_VALUE: mbedtls_x509_serial_gets:nr <- $r4
	@DEBUG_VALUE: mbedtls_x509_serial_gets:serial <- [DW_OP_plus_uconst 16] [$sp+0]
	.loc	4 825 47 is_stmt 1              @ ../../../ThirdParty/mbedTLS/library/x509.c:825:47
	ldr	r0, [sp, #12]                   @ 4-byte Reload
	cmp	r7, r0
	ldr	r0, __arm_cp.13_0
	blo	.LBB13_10
.Ltmp438:
@ %bb.9:                                @   in Loop: Header=BB13_5 Depth=1
	@DEBUG_VALUE: mbedtls_x509_serial_gets:i <- $r7
	@DEBUG_VALUE: mbedtls_x509_serial_gets:p <- $r6
	@DEBUG_VALUE: mbedtls_x509_serial_gets:n <- $r5
	@DEBUG_VALUE: mbedtls_x509_serial_gets:nr <- $r4
	@DEBUG_VALUE: mbedtls_x509_serial_gets:serial <- [DW_OP_plus_uconst 16] [$sp+0]
	ldr	r0, __arm_cp.13_1
.Ltmp439:
.LBB13_10:                              @   in Loop: Header=BB13_5 Depth=1
	@DEBUG_VALUE: mbedtls_x509_serial_gets:i <- $r7
	@DEBUG_VALUE: mbedtls_x509_serial_gets:p <- $r6
	@DEBUG_VALUE: mbedtls_x509_serial_gets:n <- $r5
	@DEBUG_VALUE: mbedtls_x509_serial_gets:nr <- $r4
	@DEBUG_VALUE: mbedtls_x509_serial_gets:serial <- [DW_OP_plus_uconst 16] [$sp+0]
	.loc	4 825 41 is_stmt 0              @ ../../../ThirdParty/mbedTLS/library/x509.c:825:41
	ldr	r1, [sp, #16]                   @ 4-byte Reload
	ldr	r1, [r1, #8]
	.loc	4 825 33                        @ ../../../ThirdParty/mbedTLS/library/x509.c:825:33
	ldrb	r3, [r1, r7]
	.loc	4 824 15 is_stmt 1              @ ../../../ThirdParty/mbedTLS/library/x509.c:824:15
	str	r0, [sp]
	mov	r0, r6
	mov	r1, r5
	adr	r2, .LCPI13_2
	bl	__2snprintf
.Ltmp440:
	@DEBUG_VALUE: mbedtls_x509_serial_gets:ret <- $r0
	.loc	4 826 9                         @ ../../../ThirdParty/mbedTLS/library/x509.c:826:9
	cmp	r0, #0
	bmi	.LBB13_19
.Ltmp441:
@ %bb.11:                               @   in Loop: Header=BB13_5 Depth=1
	@DEBUG_VALUE: mbedtls_x509_serial_gets:i <- $r7
	@DEBUG_VALUE: mbedtls_x509_serial_gets:p <- $r6
	@DEBUG_VALUE: mbedtls_x509_serial_gets:n <- $r5
	@DEBUG_VALUE: mbedtls_x509_serial_gets:nr <- $r4
	@DEBUG_VALUE: mbedtls_x509_serial_gets:ret <- $r0
	@DEBUG_VALUE: mbedtls_x509_serial_gets:serial <- [DW_OP_plus_uconst 16] [$sp+0]
	cmp	r5, r0
	bls	.LBB13_19
.Ltmp442:
@ %bb.12:                               @   in Loop: Header=BB13_5 Depth=1
	@DEBUG_VALUE: mbedtls_x509_serial_gets:i <- $r7
	@DEBUG_VALUE: mbedtls_x509_serial_gets:p <- $r6
	@DEBUG_VALUE: mbedtls_x509_serial_gets:n <- $r5
	@DEBUG_VALUE: mbedtls_x509_serial_gets:nr <- $r4
	@DEBUG_VALUE: mbedtls_x509_serial_gets:ret <- $r0
	@DEBUG_VALUE: mbedtls_x509_serial_gets:serial <- [DW_OP_plus_uconst 16] [$sp+0]
	.loc	4 826 9 is_stmt 0               @ ../../../ThirdParty/mbedTLS/library/x509.c:826:9
	adds	r6, r6, r0
.Ltmp443:
	@DEBUG_VALUE: mbedtls_x509_serial_gets:p <- $r6
	subs	r5, r5, r0
.Ltmp444:
	@DEBUG_VALUE: mbedtls_x509_serial_gets:size <- [DW_OP_LLVM_entry_value 1] $r1
	@DEBUG_VALUE: mbedtls_x509_serial_gets:n <- $r5
	.loc	4 0 9                           @ ../../../ThirdParty/mbedTLS/library/x509.c:0:9
	b	.LBB13_4
.Ltmp445:
.LBB13_13:
	@DEBUG_VALUE: mbedtls_x509_serial_gets:buf <- $r6
	@DEBUG_VALUE: mbedtls_x509_serial_gets:nr <- $r4
	@DEBUG_VALUE: mbedtls_x509_serial_gets:size <- $r1
	@DEBUG_VALUE: mbedtls_x509_serial_gets:serial <- [DW_OP_plus_uconst 16] [$sp+0]
	@DEBUG_VALUE: mbedtls_x509_serial_gets:i <- 0
	mov	r5, r1
.Ltmp446:
	@DEBUG_VALUE: mbedtls_x509_serial_gets:size <- $r5
.LBB13_14:
	@DEBUG_VALUE: mbedtls_x509_serial_gets:nr <- $r4
	@DEBUG_VALUE: mbedtls_x509_serial_gets:serial <- [DW_OP_plus_uconst 16] [$sp+0]
	@DEBUG_VALUE: mbedtls_x509_serial_gets:p <- $r6
	@DEBUG_VALUE: mbedtls_x509_serial_gets:n <- $r5
	.loc	4 829 23 is_stmt 1              @ ../../../ThirdParty/mbedTLS/library/x509.c:829:23
	ldr	r0, [sp, #16]                   @ 4-byte Reload
	ldr	r0, [r0, #4]
.Ltmp447:
	.loc	4 829 9 is_stmt 0               @ ../../../ThirdParty/mbedTLS/library/x509.c:829:9
	cmp	r4, r0
	beq	.LBB13_18
.Ltmp448:
@ %bb.15:
	@DEBUG_VALUE: mbedtls_x509_serial_gets:p <- $r6
	@DEBUG_VALUE: mbedtls_x509_serial_gets:n <- $r5
	@DEBUG_VALUE: mbedtls_x509_serial_gets:nr <- $r4
	@DEBUG_VALUE: mbedtls_x509_serial_gets:serial <- [DW_OP_plus_uconst 16] [$sp+0]
	.loc	4 831 15 is_stmt 1              @ ../../../ThirdParty/mbedTLS/library/x509.c:831:15
	adr	r2, .LCPI13_4
	mov	r0, r6
	mov	r1, r5
	bl	__2snprintf
	mov	r1, r0
.Ltmp449:
	@DEBUG_VALUE: mbedtls_x509_serial_gets:ret <- $r1
	.loc	4 0 15 is_stmt 0                @ ../../../ThirdParty/mbedTLS/library/x509.c:0:15
	ldr	r0, __arm_cp.13_3
.Ltmp450:
	.loc	4 832 9 is_stmt 1               @ ../../../ThirdParty/mbedTLS/library/x509.c:832:9
	cmp	r1, #0
	bmi	.LBB13_20
.Ltmp451:
@ %bb.16:
	@DEBUG_VALUE: mbedtls_x509_serial_gets:p <- $r6
	@DEBUG_VALUE: mbedtls_x509_serial_gets:n <- $r5
	@DEBUG_VALUE: mbedtls_x509_serial_gets:nr <- $r4
	@DEBUG_VALUE: mbedtls_x509_serial_gets:ret <- $r1
	@DEBUG_VALUE: mbedtls_x509_serial_gets:serial <- [DW_OP_plus_uconst 16] [$sp+0]
	cmp	r5, r1
	bls	.LBB13_20
.Ltmp452:
@ %bb.17:
	@DEBUG_VALUE: mbedtls_x509_serial_gets:p <- $r6
	@DEBUG_VALUE: mbedtls_x509_serial_gets:n <- $r5
	@DEBUG_VALUE: mbedtls_x509_serial_gets:nr <- $r4
	@DEBUG_VALUE: mbedtls_x509_serial_gets:ret <- $r1
	@DEBUG_VALUE: mbedtls_x509_serial_gets:serial <- [DW_OP_plus_uconst 16] [$sp+0]
	.loc	4 832 9 is_stmt 0               @ ../../../ThirdParty/mbedTLS/library/x509.c:832:9
	subs	r5, r5, r1
.Ltmp453:
	@DEBUG_VALUE: mbedtls_x509_serial_gets:n <- $r5
	@DEBUG_VALUE: mbedtls_x509_serial_gets:p <- undef
.LBB13_18:
	@DEBUG_VALUE: mbedtls_x509_serial_gets:n <- $r5
	@DEBUG_VALUE: mbedtls_x509_serial_gets:nr <- $r4
	@DEBUG_VALUE: mbedtls_x509_serial_gets:serial <- [DW_OP_plus_uconst 16] [$sp+0]
	@DEBUG_VALUE: mbedtls_x509_serial_gets:n <- $r5
	.loc	4 835 26 is_stmt 1              @ ../../../ThirdParty/mbedTLS/library/x509.c:835:26
	ldr	r0, [sp, #8]                    @ 4-byte Reload
	subs	r0, r0, r5
	.loc	4 836 1                         @ ../../../ThirdParty/mbedTLS/library/x509.c:836:1
	add	sp, #20
.Ltmp454:
	pop	{r4, r5, r6, r7, pc}
.Ltmp455:
.LBB13_19:
	@DEBUG_VALUE: mbedtls_x509_serial_gets:i <- $r7
	@DEBUG_VALUE: mbedtls_x509_serial_gets:p <- $r6
	@DEBUG_VALUE: mbedtls_x509_serial_gets:n <- $r5
	@DEBUG_VALUE: mbedtls_x509_serial_gets:nr <- $r4
	@DEBUG_VALUE: mbedtls_x509_serial_gets:ret <- $r0
	@DEBUG_VALUE: mbedtls_x509_serial_gets:serial <- [DW_OP_plus_uconst 16] [$sp+0]
	.loc	4 0 1 is_stmt 0                 @ ../../../ThirdParty/mbedTLS/library/x509.c:0:1
	ldr	r0, __arm_cp.13_3
.Ltmp456:
.LBB13_20:
	@DEBUG_VALUE: mbedtls_x509_serial_gets:p <- $r6
	@DEBUG_VALUE: mbedtls_x509_serial_gets:n <- $r5
	@DEBUG_VALUE: mbedtls_x509_serial_gets:nr <- $r4
	@DEBUG_VALUE: mbedtls_x509_serial_gets:serial <- [DW_OP_plus_uconst 16] [$sp+0]
	.loc	4 836 1                         @ ../../../ThirdParty/mbedTLS/library/x509.c:836:1
	add	sp, #20
.Ltmp457:
	pop	{r4, r5, r6, r7, pc}
.Ltmp458:
	.p2align	2
@ %bb.21:
	.loc	4 0 1                           @ ../../../ThirdParty/mbedTLS/library/x509.c:0:1
__arm_cp.13_0:
	.long	.L.str.7
.Lcpi_end18:
	.size	__arm_cp.13_0, .Lcpi_end18-__arm_cp.13_0
__arm_cp.13_1:
	.long	.L.str.8
.Lcpi_end19:
	.size	__arm_cp.13_1, .Lcpi_end19-__arm_cp.13_1
.LCPI13_2:
.L.str.6:
	.asciz	"%02X%s\000"
__arm_cp.13_3:
	.long	4294956672                      @ 0xffffd680
.Lcpi_end20:
	.size	__arm_cp.13_3, .Lcpi_end20-__arm_cp.13_3
.LCPI13_4:
.L.str.9:
	.asciz	"....\000\000\000"
.Lfunc_end13:
	.size	mbedtls_x509_serial_gets, .Lfunc_end13-mbedtls_x509_serial_gets
	.cfi_endproc
	.cantunwind
	.fnend
                                        @ -- End function
	.section	.text.mbedtls_x509_sig_alg_gets,"ax",%progbits
	.hidden	mbedtls_x509_sig_alg_gets       @ -- Begin function mbedtls_x509_sig_alg_gets
	.globl	mbedtls_x509_sig_alg_gets
	.p2align	2
	.type	mbedtls_x509_sig_alg_gets,%function
	.code	16                              @ @mbedtls_x509_sig_alg_gets
	.thumb_func
mbedtls_x509_sig_alg_gets:
.Lfunc_begin14:
	.loc	4 844 0 is_stmt 1               @ ../../../ThirdParty/mbedTLS/library/x509.c:844:0
	.fnstart
	.cfi_startproc
@ %bb.0:
	@DEBUG_VALUE: mbedtls_x509_sig_alg_gets:buf <- $r0
	@DEBUG_VALUE: mbedtls_x509_sig_alg_gets:size <- $r1
	@DEBUG_VALUE: mbedtls_x509_sig_alg_gets:sig_oid <- $r2
	@DEBUG_VALUE: mbedtls_x509_sig_alg_gets:pk_alg <- $r3
	.save	{r4, r5, r6, r7, lr}
	push	{r4, r5, r6, r7, lr}
	.cfi_def_cfa_offset 20
	.cfi_offset lr, -4
	.cfi_offset r7, -8
	.cfi_offset r6, -12
	.cfi_offset r5, -16
	.cfi_offset r4, -20
	.pad	#36
	sub	sp, #36
	.cfi_def_cfa_offset 56
	mov	r6, r3
	mov	r4, r1
	mov	r7, r0
.Ltmp459:
	@DEBUG_VALUE: mbedtls_x509_sig_alg_gets:n <- undef
	@DEBUG_VALUE: mbedtls_x509_sig_alg_gets:p <- undef
	movs	r0, #0
.Ltmp460:
	@DEBUG_VALUE: mbedtls_x509_sig_alg_gets:buf <- [DW_OP_LLVM_entry_value 1] $r0
	str	r0, [sp, #28]                   @ 4-byte Spill
.Ltmp461:
	@DEBUG_VALUE: mbedtls_x509_sig_alg_gets:desc <- 0
	@DEBUG_VALUE: mbedtls_x509_sig_alg_gets:sig_opts <- [DW_OP_plus_uconst 60] [$sp+0]
	@DEBUG_VALUE: mbedtls_x509_sig_alg_gets:pk_alg <- $r6
	@DEBUG_VALUE: mbedtls_x509_sig_alg_gets:sig_oid <- $r2
	@DEBUG_VALUE: mbedtls_x509_sig_alg_gets:size <- $r4
	@DEBUG_VALUE: mbedtls_x509_sig_alg_gets:buf <- $r7
	.loc	4 848 17 prologue_end           @ ../../../ThirdParty/mbedTLS/library/x509.c:848:17
	str	r0, [sp, #32]
.Ltmp462:
	@DEBUG_VALUE: mbedtls_x509_sig_alg_gets:desc <- [DW_OP_plus_uconst 32, DW_OP_deref] $sp
	.loc	4 0 17 is_stmt 0                @ ../../../ThirdParty/mbedTLS/library/x509.c:0:17
	add	r1, sp, #32
	.loc	4 850 11 is_stmt 1              @ ../../../ThirdParty/mbedTLS/library/x509.c:850:11
	mov	r0, r2
.Ltmp463:
	@DEBUG_VALUE: mbedtls_x509_sig_alg_gets:sig_oid <- $r0
	bl	mbedtls_oid_get_sig_alg_desc
.Ltmp464:
	@DEBUG_VALUE: mbedtls_x509_sig_alg_gets:md_alg <- undef
	@DEBUG_VALUE: mbedtls_x509_sig_alg_gets:ret <- $r0
	.loc	4 851 9                         @ ../../../ThirdParty/mbedTLS/library/x509.c:851:9
	cbz	r0, .LBB14_2
.Ltmp465:
@ %bb.1:
	@DEBUG_VALUE: mbedtls_x509_sig_alg_gets:buf <- $r7
	@DEBUG_VALUE: mbedtls_x509_sig_alg_gets:pk_alg <- $r6
	@DEBUG_VALUE: mbedtls_x509_sig_alg_gets:size <- $r4
	@DEBUG_VALUE: mbedtls_x509_sig_alg_gets:ret <- $r0
	@DEBUG_VALUE: mbedtls_x509_sig_alg_gets:desc <- [DW_OP_plus_uconst 32, DW_OP_deref] $sp
	@DEBUG_VALUE: mbedtls_x509_sig_alg_gets:sig_opts <- [DW_OP_plus_uconst 60] [$sp+0]
	.loc	4 852 15                        @ ../../../ThirdParty/mbedTLS/library/x509.c:852:15
	ldr	r2, __arm_cp.14_0
	mov	r0, r7
.Ltmp466:
	mov	r1, r4
	bl	__2snprintf
	b	.LBB14_3
.Ltmp467:
.LBB14_2:
	@DEBUG_VALUE: mbedtls_x509_sig_alg_gets:buf <- $r7
	@DEBUG_VALUE: mbedtls_x509_sig_alg_gets:pk_alg <- $r6
	@DEBUG_VALUE: mbedtls_x509_sig_alg_gets:size <- $r4
	@DEBUG_VALUE: mbedtls_x509_sig_alg_gets:ret <- $r0
	@DEBUG_VALUE: mbedtls_x509_sig_alg_gets:desc <- [DW_OP_plus_uconst 32, DW_OP_deref] $sp
	@DEBUG_VALUE: mbedtls_x509_sig_alg_gets:sig_opts <- [DW_OP_plus_uconst 60] [$sp+0]
	.loc	4 854 45                        @ ../../../ThirdParty/mbedTLS/library/x509.c:854:45
	ldr	r3, [sp, #32]
.Ltmp468:
	@DEBUG_VALUE: mbedtls_x509_sig_alg_gets:desc <- $r3
	.loc	4 854 15 is_stmt 0              @ ../../../ThirdParty/mbedTLS/library/x509.c:854:15
	ldr	r2, __arm_cp.14_1
	mov	r0, r7
.Ltmp469:
	mov	r1, r4
	bl	__2snprintf
.Ltmp470:
.LBB14_3:
	@DEBUG_VALUE: mbedtls_x509_sig_alg_gets:buf <- $r7
	@DEBUG_VALUE: mbedtls_x509_sig_alg_gets:pk_alg <- $r6
	@DEBUG_VALUE: mbedtls_x509_sig_alg_gets:size <- $r4
	@DEBUG_VALUE: mbedtls_x509_sig_alg_gets:sig_opts <- [DW_OP_plus_uconst 60] [$sp+0]
	.loc	4 0 0                           @ ../../../ThirdParty/mbedTLS/library/x509.c:0:0
	mov	r5, r0
.Ltmp471:
	@DEBUG_VALUE: mbedtls_x509_sig_alg_gets:ret <- $r5
	@DEBUG_VALUE: mbedtls_x509_sig_alg_gets:md_alg <- undef
	ldr	r0, __arm_cp.14_2
.Ltmp472:
	.loc	4 855 5 is_stmt 1               @ ../../../ThirdParty/mbedTLS/library/x509.c:855:5
	cmp	r5, #0
	bmi	.LBB14_18
.Ltmp473:
@ %bb.4:
	@DEBUG_VALUE: mbedtls_x509_sig_alg_gets:buf <- $r7
	@DEBUG_VALUE: mbedtls_x509_sig_alg_gets:pk_alg <- $r6
	@DEBUG_VALUE: mbedtls_x509_sig_alg_gets:ret <- $r5
	@DEBUG_VALUE: mbedtls_x509_sig_alg_gets:size <- $r4
	@DEBUG_VALUE: mbedtls_x509_sig_alg_gets:sig_opts <- [DW_OP_plus_uconst 60] [$sp+0]
	@DEBUG_VALUE: mbedtls_x509_sig_alg_gets:md_alg <- undef
	cmp	r5, r4
	bhs	.LBB14_18
.Ltmp474:
@ %bb.5:
	@DEBUG_VALUE: mbedtls_x509_sig_alg_gets:buf <- $r7
	@DEBUG_VALUE: mbedtls_x509_sig_alg_gets:pk_alg <- $r6
	@DEBUG_VALUE: mbedtls_x509_sig_alg_gets:ret <- $r5
	@DEBUG_VALUE: mbedtls_x509_sig_alg_gets:size <- $r4
	@DEBUG_VALUE: mbedtls_x509_sig_alg_gets:sig_opts <- [DW_OP_plus_uconst 60] [$sp+0]
	@DEBUG_VALUE: mbedtls_x509_sig_alg_gets:p <- undef
	@DEBUG_VALUE: mbedtls_x509_sig_alg_gets:md_alg <- undef
	.loc	4 855 5 is_stmt 0               @ ../../../ThirdParty/mbedTLS/library/x509.c:855:5
	subs	r2, r4, r5
.Ltmp475:
	@DEBUG_VALUE: mbedtls_x509_sig_alg_gets:n <- $r2
	.loc	4 858 9 is_stmt 1               @ ../../../ThirdParty/mbedTLS/library/x509.c:858:9
	cmp	r6, #6
	bne	.LBB14_17
.Ltmp476:
@ %bb.6:
	@DEBUG_VALUE: mbedtls_x509_sig_alg_gets:buf <- $r7
	@DEBUG_VALUE: mbedtls_x509_sig_alg_gets:pk_alg <- $r6
	@DEBUG_VALUE: mbedtls_x509_sig_alg_gets:ret <- $r5
	@DEBUG_VALUE: mbedtls_x509_sig_alg_gets:size <- $r4
	@DEBUG_VALUE: mbedtls_x509_sig_alg_gets:n <- $r2
	@DEBUG_VALUE: mbedtls_x509_sig_alg_gets:sig_opts <- [DW_OP_plus_uconst 60] [$sp+0]
	.loc	4 0 9 is_stmt 0                 @ ../../../ThirdParty/mbedTLS/library/x509.c:0:9
	str	r2, [sp, #24]                   @ 4-byte Spill
.Ltmp477:
	@DEBUG_VALUE: mbedtls_x509_sig_alg_gets:n <- [DW_OP_plus_uconst 24] [$sp+0]
	ldr	r6, [sp, #60]
.Ltmp478:
	ldr	r0, [sp, #56]
.Ltmp479:
	@DEBUG_VALUE: pss_opts <- $r6
	@DEBUG_VALUE: mbedtls_x509_sig_alg_gets:md_alg <- $r0
	@DEBUG_VALUE: mbedtls_x509_sig_alg_gets:p <- undef
	.loc	4 865 19 is_stmt 1              @ ../../../ThirdParty/mbedTLS/library/x509.c:865:19
	bl	mbedtls_md_info_from_type
.Ltmp480:
	str	r0, [sp, #16]                   @ 4-byte Spill
.Ltmp481:
	@DEBUG_VALUE: md_info <- [DW_OP_plus_uconst 16] [$sp+0]
	.loc	4 0 19 is_stmt 0                @ ../../../ThirdParty/mbedTLS/library/x509.c:0:19
	str	r6, [sp, #20]                   @ 4-byte Spill
.Ltmp482:
	@DEBUG_VALUE: pss_opts <- [DW_OP_plus_uconst 20] [$sp+0]
	.loc	4 866 60 is_stmt 1              @ ../../../ThirdParty/mbedTLS/library/x509.c:866:60
	ldrb	r0, [r6]
	.loc	4 866 23 is_stmt 0              @ ../../../ThirdParty/mbedTLS/library/x509.c:866:23
	bl	mbedtls_md_info_from_type
	ldr	r1, [sp, #16]                   @ 4-byte Reload
.Ltmp483:
	@DEBUG_VALUE: md_info <- $r1
	@DEBUG_VALUE: mgf_md_info <- $r0
	.loc	4 0 23                          @ ../../../ThirdParty/mbedTLS/library/x509.c:0:23
	ldr	r6, __arm_cp.14_0
	.loc	4 869 33 is_stmt 1              @ ../../../ThirdParty/mbedTLS/library/x509.c:869:33
	mov	r3, r6
	cbz	r1, .LBB14_8
.Ltmp484:
@ %bb.7:
	@DEBUG_VALUE: mbedtls_x509_sig_alg_gets:n <- [DW_OP_plus_uconst 24] [$sp+0]
	@DEBUG_VALUE: mbedtls_x509_sig_alg_gets:buf <- $r7
	@DEBUG_VALUE: mbedtls_x509_sig_alg_gets:ret <- $r5
	@DEBUG_VALUE: mbedtls_x509_sig_alg_gets:size <- $r4
	@DEBUG_VALUE: md_info <- $r1
	@DEBUG_VALUE: mgf_md_info <- $r0
	@DEBUG_VALUE: pss_opts <- [DW_OP_plus_uconst 20] [$sp+0]
	@DEBUG_VALUE: mbedtls_x509_sig_alg_gets:sig_opts <- [DW_OP_plus_uconst 60] [$sp+0]
	.loc	4 0 33 is_stmt 0                @ ../../../ThirdParty/mbedTLS/library/x509.c:0:33
	str	r0, [sp, #12]                   @ 4-byte Spill
.Ltmp485:
	@DEBUG_VALUE: mgf_md_info <- [DW_OP_plus_uconst 12] [$sp+0]
	.loc	4 869 43                        @ ../../../ThirdParty/mbedTLS/library/x509.c:869:43
	mov	r0, r1
	bl	mbedtls_md_get_name
.Ltmp486:
	mov	r3, r0
	ldr	r0, [sp, #12]                   @ 4-byte Reload
.Ltmp487:
	@DEBUG_VALUE: mgf_md_info <- $r0
.LBB14_8:
	@DEBUG_VALUE: mbedtls_x509_sig_alg_gets:n <- [DW_OP_plus_uconst 24] [$sp+0]
	@DEBUG_VALUE: mbedtls_x509_sig_alg_gets:buf <- $r7
	@DEBUG_VALUE: mbedtls_x509_sig_alg_gets:ret <- $r5
	@DEBUG_VALUE: mbedtls_x509_sig_alg_gets:size <- $r4
	@DEBUG_VALUE: mgf_md_info <- $r0
	@DEBUG_VALUE: pss_opts <- [DW_OP_plus_uconst 20] [$sp+0]
	@DEBUG_VALUE: mbedtls_x509_sig_alg_gets:sig_opts <- [DW_OP_plus_uconst 60] [$sp+0]
	.loc	4 0 0                           @ ../../../ThirdParty/mbedTLS/library/x509.c:0:0
	adds	r5, r7, r5
.Ltmp488:
	@DEBUG_VALUE: mbedtls_x509_sig_alg_gets:p <- $r5
	.loc	4 870 33 is_stmt 1              @ ../../../ThirdParty/mbedTLS/library/x509.c:870:33
	cbz	r0, .LBB14_10
.Ltmp489:
@ %bb.9:
	@DEBUG_VALUE: mbedtls_x509_sig_alg_gets:n <- [DW_OP_plus_uconst 24] [$sp+0]
	@DEBUG_VALUE: mbedtls_x509_sig_alg_gets:buf <- $r7
	@DEBUG_VALUE: mbedtls_x509_sig_alg_gets:p <- $r5
	@DEBUG_VALUE: mbedtls_x509_sig_alg_gets:size <- $r4
	@DEBUG_VALUE: mgf_md_info <- $r0
	@DEBUG_VALUE: pss_opts <- [DW_OP_plus_uconst 20] [$sp+0]
	@DEBUG_VALUE: mbedtls_x509_sig_alg_gets:sig_opts <- [DW_OP_plus_uconst 60] [$sp+0]
	.loc	4 0 33 is_stmt 0                @ ../../../ThirdParty/mbedTLS/library/x509.c:0:33
	mov	r6, r3
	.loc	4 870 47                        @ ../../../ThirdParty/mbedTLS/library/x509.c:870:47
	bl	mbedtls_md_get_name
.Ltmp490:
	.loc	4 0 47                          @ ../../../ThirdParty/mbedTLS/library/x509.c:0:47
	mov	r3, r6
	.loc	4 870 47                        @ ../../../ThirdParty/mbedTLS/library/x509.c:870:47
	mov	r6, r0
.Ltmp491:
.LBB14_10:
	@DEBUG_VALUE: mbedtls_x509_sig_alg_gets:n <- [DW_OP_plus_uconst 24] [$sp+0]
	@DEBUG_VALUE: mbedtls_x509_sig_alg_gets:buf <- $r7
	@DEBUG_VALUE: mbedtls_x509_sig_alg_gets:p <- $r5
	@DEBUG_VALUE: mbedtls_x509_sig_alg_gets:size <- $r4
	@DEBUG_VALUE: pss_opts <- [DW_OP_plus_uconst 20] [$sp+0]
	@DEBUG_VALUE: mbedtls_x509_sig_alg_gets:sig_opts <- [DW_OP_plus_uconst 60] [$sp+0]
	.loc	4 871 43 is_stmt 1              @ ../../../ThirdParty/mbedTLS/library/x509.c:871:43
	ldr	r0, [sp, #20]                   @ 4-byte Reload
	ldr	r0, [r0, #4]
	.loc	4 868 15                        @ ../../../ThirdParty/mbedTLS/library/x509.c:868:15
	str	r6, [sp]
	str	r0, [sp, #4]
	adr	r2, .LCPI14_3
	mov	r0, r5
	ldr	r5, [sp, #24]                   @ 4-byte Reload
.Ltmp492:
	@DEBUG_VALUE: mbedtls_x509_sig_alg_gets:n <- $r5
	mov	r1, r5
	bl	__2snprintf
.Ltmp493:
	@DEBUG_VALUE: mbedtls_x509_sig_alg_gets:ret <- $r0
	.loc	4 0 15 is_stmt 0                @ ../../../ThirdParty/mbedTLS/library/x509.c:0:15
	movs	r1, #1
	cmp	r5, r0
	mov	r2, r1
	bls	.LBB14_14
.Ltmp494:
@ %bb.11:
	@DEBUG_VALUE: mbedtls_x509_sig_alg_gets:buf <- $r7
	@DEBUG_VALUE: mbedtls_x509_sig_alg_gets:n <- $r5
	@DEBUG_VALUE: mbedtls_x509_sig_alg_gets:size <- $r4
	@DEBUG_VALUE: mbedtls_x509_sig_alg_gets:ret <- $r0
	@DEBUG_VALUE: pss_opts <- [DW_OP_plus_uconst 20] [$sp+0]
	@DEBUG_VALUE: mbedtls_x509_sig_alg_gets:sig_opts <- [DW_OP_plus_uconst 60] [$sp+0]
	.loc	4 872 9 is_stmt 1               @ ../../../ThirdParty/mbedTLS/library/x509.c:872:9
	cmp	r0, #0
	blt	.LBB14_15
.Ltmp495:
.LBB14_12:
	@DEBUG_VALUE: mbedtls_x509_sig_alg_gets:buf <- $r7
	@DEBUG_VALUE: mbedtls_x509_sig_alg_gets:n <- $r5
	@DEBUG_VALUE: mbedtls_x509_sig_alg_gets:size <- $r4
	@DEBUG_VALUE: mbedtls_x509_sig_alg_gets:ret <- $r0
	@DEBUG_VALUE: pss_opts <- [DW_OP_plus_uconst 20] [$sp+0]
	@DEBUG_VALUE: mbedtls_x509_sig_alg_gets:sig_opts <- [DW_OP_plus_uconst 60] [$sp+0]
	ands	r1, r2
	bne	.LBB14_16
.Ltmp496:
.LBB14_13:
	@DEBUG_VALUE: mbedtls_x509_sig_alg_gets:buf <- $r7
	@DEBUG_VALUE: mbedtls_x509_sig_alg_gets:n <- $r5
	@DEBUG_VALUE: mbedtls_x509_sig_alg_gets:size <- $r4
	@DEBUG_VALUE: mbedtls_x509_sig_alg_gets:ret <- $r0
	@DEBUG_VALUE: pss_opts <- [DW_OP_plus_uconst 20] [$sp+0]
	@DEBUG_VALUE: mbedtls_x509_sig_alg_gets:sig_opts <- [DW_OP_plus_uconst 60] [$sp+0]
	.loc	4 0 9 is_stmt 0                 @ ../../../ThirdParty/mbedTLS/library/x509.c:0:9
	ldr	r0, __arm_cp.14_2
.Ltmp497:
	ldr	r2, [sp, #24]                   @ 4-byte Reload
.Ltmp498:
	@DEBUG_VALUE: mbedtls_x509_sig_alg_gets:n <- $r2
	cmp	r1, #1
	bne	.LBB14_18
	b	.LBB14_17
.Ltmp499:
.LBB14_14:
	@DEBUG_VALUE: mbedtls_x509_sig_alg_gets:buf <- $r7
	@DEBUG_VALUE: mbedtls_x509_sig_alg_gets:n <- $r5
	@DEBUG_VALUE: mbedtls_x509_sig_alg_gets:size <- $r4
	@DEBUG_VALUE: mbedtls_x509_sig_alg_gets:ret <- $r0
	@DEBUG_VALUE: pss_opts <- [DW_OP_plus_uconst 20] [$sp+0]
	@DEBUG_VALUE: mbedtls_x509_sig_alg_gets:sig_opts <- [DW_OP_plus_uconst 60] [$sp+0]
	ldr	r2, [sp, #28]                   @ 4-byte Reload
	.loc	4 872 9                         @ ../../../ThirdParty/mbedTLS/library/x509.c:872:9
	cmp	r0, #0
	bge	.LBB14_12
.Ltmp500:
.LBB14_15:
	@DEBUG_VALUE: mbedtls_x509_sig_alg_gets:buf <- $r7
	@DEBUG_VALUE: mbedtls_x509_sig_alg_gets:n <- $r5
	@DEBUG_VALUE: mbedtls_x509_sig_alg_gets:size <- $r4
	@DEBUG_VALUE: mbedtls_x509_sig_alg_gets:ret <- $r0
	@DEBUG_VALUE: pss_opts <- [DW_OP_plus_uconst 20] [$sp+0]
	@DEBUG_VALUE: mbedtls_x509_sig_alg_gets:sig_opts <- [DW_OP_plus_uconst 60] [$sp+0]
	ldr	r1, [sp, #28]                   @ 4-byte Reload
	ands	r1, r2
	beq	.LBB14_13
.Ltmp501:
.LBB14_16:
	@DEBUG_VALUE: mbedtls_x509_sig_alg_gets:buf <- $r7
	@DEBUG_VALUE: mbedtls_x509_sig_alg_gets:n <- $r5
	@DEBUG_VALUE: mbedtls_x509_sig_alg_gets:size <- $r4
	@DEBUG_VALUE: mbedtls_x509_sig_alg_gets:ret <- $r0
	@DEBUG_VALUE: pss_opts <- [DW_OP_plus_uconst 20] [$sp+0]
	@DEBUG_VALUE: mbedtls_x509_sig_alg_gets:sig_opts <- [DW_OP_plus_uconst 60] [$sp+0]
	.loc	4 0 9                           @ ../../../ThirdParty/mbedTLS/library/x509.c:0:9
	ldr	r2, [sp, #24]                   @ 4-byte Reload
	subs	r2, r2, r0
	ldr	r0, __arm_cp.14_2
.Ltmp502:
	@DEBUG_VALUE: mbedtls_x509_sig_alg_gets:n <- $r2
	cmp	r1, #1
	bne	.LBB14_18
.Ltmp503:
.LBB14_17:
	@DEBUG_VALUE: mbedtls_x509_sig_alg_gets:buf <- $r7
	@DEBUG_VALUE: mbedtls_x509_sig_alg_gets:size <- $r4
	@DEBUG_VALUE: mbedtls_x509_sig_alg_gets:n <- $r2
	@DEBUG_VALUE: mbedtls_x509_sig_alg_gets:sig_opts <- [DW_OP_plus_uconst 60] [$sp+0]
	@DEBUG_VALUE: mbedtls_x509_sig_alg_gets:n <- $r2
	.loc	4 880 25 is_stmt 1              @ ../../../ThirdParty/mbedTLS/library/x509.c:880:25
	subs	r0, r4, r2
.Ltmp504:
.LBB14_18:
	@DEBUG_VALUE: mbedtls_x509_sig_alg_gets:buf <- $r7
	@DEBUG_VALUE: mbedtls_x509_sig_alg_gets:size <- $r4
	@DEBUG_VALUE: mbedtls_x509_sig_alg_gets:sig_opts <- [DW_OP_plus_uconst 60] [$sp+0]
	.loc	4 881 1                         @ ../../../ThirdParty/mbedTLS/library/x509.c:881:1
	add	sp, #36
.Ltmp505:
	pop	{r4, r5, r6, r7, pc}
.Ltmp506:
	.p2align	2
@ %bb.19:
	.loc	4 0 1 is_stmt 0                 @ ../../../ThirdParty/mbedTLS/library/x509.c:0:1
__arm_cp.14_0:
	.long	.L.str.10
.Lcpi_end21:
	.size	__arm_cp.14_0, .Lcpi_end21-__arm_cp.14_0
__arm_cp.14_1:
	.long	.L.str.5
.Lcpi_end22:
	.size	__arm_cp.14_1, .Lcpi_end22-__arm_cp.14_1
__arm_cp.14_2:
	.long	4294956672                      @ 0xffffd680
.Lcpi_end23:
	.size	__arm_cp.14_2, .Lcpi_end23-__arm_cp.14_2
.LCPI14_3:
.L.str.11:
	.asciz	" (%s, MGF1-%s, 0x%02X)\000"
.Lfunc_end14:
	.size	mbedtls_x509_sig_alg_gets, .Lfunc_end14-mbedtls_x509_sig_alg_gets
	.cfi_endproc
	.cantunwind
	.fnend
                                        @ -- End function
	.section	.text.mbedtls_x509_key_size_helper,"ax",%progbits
	.hidden	mbedtls_x509_key_size_helper    @ -- Begin function mbedtls_x509_key_size_helper
	.globl	mbedtls_x509_key_size_helper
	.p2align	2
	.type	mbedtls_x509_key_size_helper,%function
	.code	16                              @ @mbedtls_x509_key_size_helper
	.thumb_func
mbedtls_x509_key_size_helper:
.Lfunc_begin15:
	.loc	4 887 0 is_stmt 1               @ ../../../ThirdParty/mbedTLS/library/x509.c:887:0
	.fnstart
	.cfi_startproc
@ %bb.0:
	@DEBUG_VALUE: mbedtls_x509_key_size_helper:buf <- $r0
	@DEBUG_VALUE: mbedtls_x509_key_size_helper:buf_size <- $r1
	@DEBUG_VALUE: mbedtls_x509_key_size_helper:name <- $r2
	.save	{r4, lr}
	push	{r4, lr}
	.cfi_def_cfa_offset 8
	.cfi_offset lr, -4
	.cfi_offset r4, -8
.Ltmp507:
	@DEBUG_VALUE: mbedtls_x509_key_size_helper:p <- $r0
	@DEBUG_VALUE: mbedtls_x509_key_size_helper:n <- $r1
	mov	r3, r2
	mov	r4, r1
.Ltmp508:
	@DEBUG_VALUE: mbedtls_x509_key_size_helper:n <- $r4
	@DEBUG_VALUE: mbedtls_x509_key_size_helper:p <- $r0
	@DEBUG_VALUE: mbedtls_x509_key_size_helper:name <- $r3
	@DEBUG_VALUE: mbedtls_x509_key_size_helper:buf_size <- $r4
	@DEBUG_VALUE: mbedtls_x509_key_size_helper:buf <- $r0
	.loc	4 892 11 prologue_end           @ ../../../ThirdParty/mbedTLS/library/x509.c:892:11
	adr	r2, .LCPI15_0
	@DEBUG_VALUE: mbedtls_x509_key_size_helper:p <- $r0
	@DEBUG_VALUE: mbedtls_x509_key_size_helper:buf <- $r0
	@DEBUG_VALUE: mbedtls_x509_key_size_helper:name <- $r3
	bl	__2snprintf
.Ltmp509:
	@DEBUG_VALUE: mbedtls_x509_key_size_helper:buf <- [DW_OP_LLVM_entry_value 1] $r0
	@DEBUG_VALUE: mbedtls_x509_key_size_helper:ret <- $r0
	.loc	4 0 11 is_stmt 0                @ ../../../ThirdParty/mbedTLS/library/x509.c:0:11
	ldr	r2, __arm_cp.15_1
.Ltmp510:
	.loc	4 893 5 is_stmt 1               @ ../../../ThirdParty/mbedTLS/library/x509.c:893:5
	cmp	r0, r4
	blo	.LBB15_2
.Ltmp511:
@ %bb.1:
	@DEBUG_VALUE: mbedtls_x509_key_size_helper:buf_size <- $r4
	@DEBUG_VALUE: mbedtls_x509_key_size_helper:n <- $r4
	@DEBUG_VALUE: mbedtls_x509_key_size_helper:ret <- $r0
	@DEBUG_VALUE: mbedtls_x509_key_size_helper:buf <- [DW_OP_LLVM_entry_value 1] $r0
	mov	r1, r2
	cmp	r0, #0
	bge	.LBB15_4
	b	.LBB15_3
.Ltmp512:
.LBB15_2:
	@DEBUG_VALUE: mbedtls_x509_key_size_helper:buf_size <- $r4
	@DEBUG_VALUE: mbedtls_x509_key_size_helper:n <- $r4
	@DEBUG_VALUE: mbedtls_x509_key_size_helper:ret <- $r0
	@DEBUG_VALUE: mbedtls_x509_key_size_helper:buf <- [DW_OP_LLVM_entry_value 1] $r0
	.loc	4 0 5 is_stmt 0                 @ ../../../ThirdParty/mbedTLS/library/x509.c:0:5
	movs	r1, #0
	.loc	4 893 5                         @ ../../../ThirdParty/mbedTLS/library/x509.c:893:5
	cmp	r0, #0
	bge	.LBB15_4
.Ltmp513:
.LBB15_3:
	@DEBUG_VALUE: mbedtls_x509_key_size_helper:buf_size <- $r4
	@DEBUG_VALUE: mbedtls_x509_key_size_helper:n <- $r4
	@DEBUG_VALUE: mbedtls_x509_key_size_helper:ret <- $r0
	@DEBUG_VALUE: mbedtls_x509_key_size_helper:buf <- [DW_OP_LLVM_entry_value 1] $r0
	mov	r1, r2
.Ltmp514:
.LBB15_4:
	@DEBUG_VALUE: mbedtls_x509_key_size_helper:buf_size <- $r4
	@DEBUG_VALUE: mbedtls_x509_key_size_helper:n <- $r4
	@DEBUG_VALUE: mbedtls_x509_key_size_helper:ret <- $r0
	@DEBUG_VALUE: mbedtls_x509_key_size_helper:buf <- [DW_OP_LLVM_entry_value 1] $r0
	.loc	4 896 1 is_stmt 1               @ ../../../ThirdParty/mbedTLS/library/x509.c:896:1
	mov	r0, r1
.Ltmp515:
	pop	{r4, pc}
.Ltmp516:
	.p2align	2
@ %bb.5:
	.loc	4 0 1 is_stmt 0                 @ ../../../ThirdParty/mbedTLS/library/x509.c:0:1
.LCPI15_0:
.L.str.12:
	.asciz	"%s key size"
__arm_cp.15_1:
	.long	4294956672                      @ 0xffffd680
.Lcpi_end24:
	.size	__arm_cp.15_1, .Lcpi_end24-__arm_cp.15_1
.Lfunc_end15:
	.size	mbedtls_x509_key_size_helper, .Lfunc_end15-mbedtls_x509_key_size_helper
	.cfi_endproc
	.cantunwind
	.fnend
                                        @ -- End function
	.section	.text.mbedtls_x509_time_is_past,"ax",%progbits
	.hidden	mbedtls_x509_time_is_past       @ -- Begin function mbedtls_x509_time_is_past
	.globl	mbedtls_x509_time_is_past
	.p2align	1
	.type	mbedtls_x509_time_is_past,%function
	.code	16                              @ @mbedtls_x509_time_is_past
	.thumb_func
mbedtls_x509_time_is_past:
.Lfunc_begin16:
	.loc	4 991 0 is_stmt 1               @ ../../../ThirdParty/mbedTLS/library/x509.c:991:0
	.fnstart
	.cfi_startproc
@ %bb.0:
	@DEBUG_VALUE: mbedtls_x509_time_is_past:to <- $r0
	movs	r0, #0
.Ltmp517:
	@DEBUG_VALUE: mbedtls_x509_time_is_past:to <- [DW_OP_LLVM_entry_value 1] $r0
	.loc	4 993 5 prologue_end            @ ../../../ThirdParty/mbedTLS/library/x509.c:993:5
	bx	lr
.Ltmp518:
.Lfunc_end16:
	.size	mbedtls_x509_time_is_past, .Lfunc_end16-mbedtls_x509_time_is_past
	.cfi_endproc
	.cantunwind
	.fnend
                                        @ -- End function
	.section	.text.mbedtls_x509_time_is_future,"ax",%progbits
	.hidden	mbedtls_x509_time_is_future     @ -- Begin function mbedtls_x509_time_is_future
	.globl	mbedtls_x509_time_is_future
	.p2align	1
	.type	mbedtls_x509_time_is_future,%function
	.code	16                              @ @mbedtls_x509_time_is_future
	.thumb_func
mbedtls_x509_time_is_future:
.Lfunc_begin17:
	.loc	4 997 0                         @ ../../../ThirdParty/mbedTLS/library/x509.c:997:0
	.fnstart
	.cfi_startproc
@ %bb.0:
	@DEBUG_VALUE: mbedtls_x509_time_is_future:from <- $r0
	movs	r0, #0
.Ltmp519:
	@DEBUG_VALUE: mbedtls_x509_time_is_future:from <- [DW_OP_LLVM_entry_value 1] $r0
	.loc	4 999 5 prologue_end            @ ../../../ThirdParty/mbedTLS/library/x509.c:999:5
	bx	lr
.Ltmp520:
.Lfunc_end17:
	.size	mbedtls_x509_time_is_future, .Lfunc_end17-mbedtls_x509_time_is_future
	.cfi_endproc
	.cantunwind
	.fnend
                                        @ -- End function
	.section	.text.mbedtls_x509_self_test,"ax",%progbits
	.hidden	mbedtls_x509_self_test          @ -- Begin function mbedtls_x509_self_test
	.globl	mbedtls_x509_self_test
	.p2align	2
	.type	mbedtls_x509_self_test,%function
	.code	16                              @ @mbedtls_x509_self_test
	.thumb_func
mbedtls_x509_self_test:
.Lfunc_begin18:
	.loc	4 1012 0                        @ ../../../ThirdParty/mbedTLS/library/x509.c:1012:0
	.fnstart
	.cfi_startproc
@ %bb.0:
	@DEBUG_VALUE: mbedtls_x509_self_test:verbose <- $r0
	.save	{r4, r5, r6, lr}
	push	{r4, r5, r6, lr}
	.cfi_def_cfa_offset 16
	.cfi_offset lr, -4
	.cfi_offset r6, -8
	.cfi_offset r5, -12
	.cfi_offset r4, -16
	.pad	#508
	sub	sp, #508
	.pad	#156
	sub	sp, #156
	.cfi_def_cfa_offset 680
	mov	r4, r0
.Ltmp521:
	@DEBUG_VALUE: mbedtls_x509_self_test:verbose <- $r4
	.loc	4 1019 9 prologue_end           @ ../../../ThirdParty/mbedTLS/library/x509.c:1019:9
	cbz	r0, .LBB18_2
.Ltmp522:
@ %bb.1:
	@DEBUG_VALUE: mbedtls_x509_self_test:verbose <- $r4
	.loc	4 1020 9                        @ ../../../ThirdParty/mbedTLS/library/x509.c:1020:9
	adr	r0, .LCPI18_0
	bl	__2printf
.Ltmp523:
.LBB18_2:
	@DEBUG_VALUE: mbedtls_x509_self_test:verbose <- $r4
	.loc	4 0 9 is_stmt 0                 @ ../../../ThirdParty/mbedTLS/library/x509.c:0:9
	add	r5, sp, #12
	.loc	4 1022 5 is_stmt 1              @ ../../../ThirdParty/mbedTLS/library/x509.c:1022:5
	mov	r0, r5
	bl	mbedtls_x509_crt_init
	.loc	4 1024 69                       @ ../../../ThirdParty/mbedTLS/library/x509.c:1024:69
	ldr	r0, __arm_cp.18_1
	ldr	r1, [r0]
	.loc	4 1025 35                       @ ../../../ThirdParty/mbedTLS/library/x509.c:1025:35
	ldr	r0, __arm_cp.18_2
	ldr	r2, [r0]
	.loc	4 1024 11                       @ ../../../ThirdParty/mbedTLS/library/x509.c:1024:11
	mov	r0, r5
	bl	mbedtls_x509_crt_parse
.Ltmp524:
	@DEBUG_VALUE: mbedtls_x509_self_test:ret <- $r0
	.loc	4 1026 9                        @ ../../../ThirdParty/mbedTLS/library/x509.c:1026:9
	cbz	r0, .LBB18_5
.Ltmp525:
@ %bb.3:
	@DEBUG_VALUE: mbedtls_x509_self_test:verbose <- $r4
	@DEBUG_VALUE: mbedtls_x509_self_test:ret <- $r0
	.loc	4 0 0 is_stmt 0                 @ ../../../ThirdParty/mbedTLS/library/x509.c:0:0
	mov	r5, r0
.Ltmp526:
	@DEBUG_VALUE: mbedtls_x509_self_test:ret <- $r5
	.loc	4 1028 13 is_stmt 1             @ ../../../ThirdParty/mbedTLS/library/x509.c:1028:13
	cbz	r4, .LBB18_17
.Ltmp527:
@ %bb.4:
	@DEBUG_VALUE: mbedtls_x509_self_test:ret <- $r5
	@DEBUG_VALUE: mbedtls_x509_self_test:verbose <- $r4
	.loc	4 1029 13                       @ ../../../ThirdParty/mbedTLS/library/x509.c:1029:13
	adr	r0, .LCPI18_3
	bl	puts
	b	.LBB18_17
.Ltmp528:
.LBB18_5:
	@DEBUG_VALUE: mbedtls_x509_self_test:verbose <- $r4
	@DEBUG_VALUE: mbedtls_x509_self_test:ret <- $r0
	.loc	4 0 13 is_stmt 0                @ ../../../ThirdParty/mbedTLS/library/x509.c:0:13
	add	r5, sp, #336
	.loc	4 1034 5 is_stmt 1              @ ../../../ThirdParty/mbedTLS/library/x509.c:1034:5
	mov	r0, r5
.Ltmp529:
	bl	mbedtls_x509_crt_init
	.loc	4 1036 68                       @ ../../../ThirdParty/mbedTLS/library/x509.c:1036:68
	ldr	r0, __arm_cp.18_4
	ldr	r1, [r0]
	.loc	4 1037 35                       @ ../../../ThirdParty/mbedTLS/library/x509.c:1037:35
	ldr	r0, __arm_cp.18_5
	ldr	r2, [r0]
	.loc	4 1036 11                       @ ../../../ThirdParty/mbedTLS/library/x509.c:1036:11
	mov	r0, r5
	bl	mbedtls_x509_crt_parse
.Ltmp530:
	@DEBUG_VALUE: mbedtls_x509_self_test:ret <- $r0
	.loc	4 1038 9                        @ ../../../ThirdParty/mbedTLS/library/x509.c:1038:9
	cbz	r0, .LBB18_8
.Ltmp531:
@ %bb.6:
	@DEBUG_VALUE: mbedtls_x509_self_test:verbose <- $r4
	@DEBUG_VALUE: mbedtls_x509_self_test:ret <- $r0
	.loc	4 0 0 is_stmt 0                 @ ../../../ThirdParty/mbedTLS/library/x509.c:0:0
	mov	r5, r0
.Ltmp532:
	@DEBUG_VALUE: mbedtls_x509_self_test:ret <- $r5
	.loc	4 1040 13 is_stmt 1             @ ../../../ThirdParty/mbedTLS/library/x509.c:1040:13
	cbz	r4, .LBB18_17
.Ltmp533:
@ %bb.7:
	@DEBUG_VALUE: mbedtls_x509_self_test:ret <- $r5
	@DEBUG_VALUE: mbedtls_x509_self_test:verbose <- $r4
	.loc	4 1041 13                       @ ../../../ThirdParty/mbedTLS/library/x509.c:1041:13
	adr	r0, .LCPI18_3
	bl	puts
	b	.LBB18_17
.Ltmp534:
.LBB18_8:
	@DEBUG_VALUE: mbedtls_x509_self_test:verbose <- $r4
	@DEBUG_VALUE: mbedtls_x509_self_test:ret <- $r0
	.loc	4 1046 9                        @ ../../../ThirdParty/mbedTLS/library/x509.c:1046:9
	cbz	r4, .LBB18_10
.Ltmp535:
@ %bb.9:
	@DEBUG_VALUE: mbedtls_x509_self_test:verbose <- $r4
	@DEBUG_VALUE: mbedtls_x509_self_test:ret <- $r0
	.loc	4 1047 9                        @ ../../../ThirdParty/mbedTLS/library/x509.c:1047:9
	adr	r0, .LCPI18_6
.Ltmp536:
	bl	__2printf
.Ltmp537:
.LBB18_10:
	@DEBUG_VALUE: mbedtls_x509_self_test:verbose <- $r4
	@DEBUG_VALUE: mbedtls_x509_self_test:flags <- [DW_OP_plus_uconst 660, DW_OP_deref] $sp
	.loc	4 0 9 is_stmt 0                 @ ../../../ThirdParty/mbedTLS/library/x509.c:0:9
	movs	r5, #0
	.loc	4 1049 11 is_stmt 1             @ ../../../ThirdParty/mbedTLS/library/x509.c:1049:11
	str	r5, [sp, #8]
	str	r5, [sp, #4]
	add	r0, sp, #660
	str	r0, [sp]
	add	r0, sp, #12
	add	r1, sp, #336
	mov	r2, r5
	mov	r3, r5
	bl	mbedtls_x509_crt_verify
.Ltmp538:
	@DEBUG_VALUE: mbedtls_x509_self_test:ret <- $r0
	.loc	4 1050 9                        @ ../../../ThirdParty/mbedTLS/library/x509.c:1050:9
	cbz	r0, .LBB18_13
.Ltmp539:
@ %bb.11:
	@DEBUG_VALUE: mbedtls_x509_self_test:verbose <- $r4
	@DEBUG_VALUE: mbedtls_x509_self_test:ret <- $r0
	@DEBUG_VALUE: mbedtls_x509_self_test:flags <- [DW_OP_plus_uconst 660, DW_OP_deref] $sp
	.loc	4 0 0 is_stmt 0                 @ ../../../ThirdParty/mbedTLS/library/x509.c:0:0
	mov	r6, r0
.Ltmp540:
	@DEBUG_VALUE: mbedtls_x509_self_test:ret <- $r6
	.loc	4 1052 13 is_stmt 1             @ ../../../ThirdParty/mbedTLS/library/x509.c:1052:13
	cbz	r4, .LBB18_16
.Ltmp541:
@ %bb.12:
	@DEBUG_VALUE: mbedtls_x509_self_test:ret <- $r6
	@DEBUG_VALUE: mbedtls_x509_self_test:verbose <- $r4
	@DEBUG_VALUE: mbedtls_x509_self_test:flags <- [DW_OP_plus_uconst 660, DW_OP_deref] $sp
	.loc	4 1053 13                       @ ../../../ThirdParty/mbedTLS/library/x509.c:1053:13
	adr	r0, .LCPI18_3
	bl	puts
.Ltmp542:
	.loc	4 0 0 is_stmt 0                 @ ../../../ThirdParty/mbedTLS/library/x509.c:0:0
	mov	r5, r6
.Ltmp543:
	@DEBUG_VALUE: mbedtls_x509_self_test:ret <- $r5
	.loc	4 1053 13                       @ ../../../ThirdParty/mbedTLS/library/x509.c:1053:13
	b	.LBB18_17
.Ltmp544:
.LBB18_13:
	@DEBUG_VALUE: mbedtls_x509_self_test:verbose <- $r4
	@DEBUG_VALUE: mbedtls_x509_self_test:ret <- $r0
	@DEBUG_VALUE: mbedtls_x509_self_test:flags <- [DW_OP_plus_uconst 660, DW_OP_deref] $sp
	.loc	4 1058 9 is_stmt 1              @ ../../../ThirdParty/mbedTLS/library/x509.c:1058:9
	cbz	r4, .LBB18_15
.Ltmp545:
@ %bb.14:
	@DEBUG_VALUE: mbedtls_x509_self_test:verbose <- $r4
	@DEBUG_VALUE: mbedtls_x509_self_test:ret <- $r0
	@DEBUG_VALUE: mbedtls_x509_self_test:flags <- [DW_OP_plus_uconst 660, DW_OP_deref] $sp
	.loc	4 1059 9                        @ ../../../ThirdParty/mbedTLS/library/x509.c:1059:9
	adr	r0, .LCPI18_7
.Ltmp546:
	bl	puts
.Ltmp547:
.LBB18_15:
	@DEBUG_VALUE: mbedtls_x509_self_test:verbose <- $r4
	@DEBUG_VALUE: mbedtls_x509_self_test:flags <- [DW_OP_plus_uconst 660, DW_OP_deref] $sp
	.loc	4 0 9 is_stmt 0                 @ ../../../ThirdParty/mbedTLS/library/x509.c:0:9
	add	r0, sp, #336
	.loc	4 1061 5 is_stmt 1              @ ../../../ThirdParty/mbedTLS/library/x509.c:1061:5
	bl	mbedtls_x509_crt_free
	add	r0, sp, #12
	.loc	4 1062 5                        @ ../../../ThirdParty/mbedTLS/library/x509.c:1062:5
	bl	mbedtls_x509_crt_free
	b	.LBB18_17
.Ltmp548:
.LBB18_16:
	@DEBUG_VALUE: mbedtls_x509_self_test:ret <- $r6
	@DEBUG_VALUE: mbedtls_x509_self_test:verbose <- $r4
	@DEBUG_VALUE: mbedtls_x509_self_test:flags <- [DW_OP_plus_uconst 660, DW_OP_deref] $sp
	.loc	4 0 0 is_stmt 0                 @ ../../../ThirdParty/mbedTLS/library/x509.c:0:0
	mov	r5, r6
.Ltmp549:
	@DEBUG_VALUE: mbedtls_x509_self_test:ret <- $r5
.LBB18_17:
	@DEBUG_VALUE: mbedtls_x509_self_test:verbose <- $r4
	.loc	4 1069 1 is_stmt 1              @ ../../../ThirdParty/mbedTLS/library/x509.c:1069:1
	mov	r0, r5
	add	sp, #508
	add	sp, #156
	pop	{r4, r5, r6, pc}
.Ltmp550:
	.p2align	2
@ %bb.18:
	.loc	4 0 1 is_stmt 0                 @ ../../../ThirdParty/mbedTLS/library/x509.c:0:1
.LCPI18_0:
.L.str.13:
	.asciz	"  X.509 certificate load: \000"
__arm_cp.18_1:
	.long	mbedtls_test_cli_crt
.Lcpi_end25:
	.size	__arm_cp.18_1, .Lcpi_end25-__arm_cp.18_1
__arm_cp.18_2:
	.long	mbedtls_test_cli_crt_len
.Lcpi_end26:
	.size	__arm_cp.18_2, .Lcpi_end26-__arm_cp.18_2
.LCPI18_3:
.Lstr.17:
.Lstr.18:
.Lstr.19:
	.asciz	"failed\000"
__arm_cp.18_4:
	.long	mbedtls_test_ca_crt
.Lcpi_end27:
	.size	__arm_cp.18_4, .Lcpi_end27-__arm_cp.18_4
__arm_cp.18_5:
	.long	mbedtls_test_ca_crt_len
.Lcpi_end28:
	.size	__arm_cp.18_5, .Lcpi_end28-__arm_cp.18_5
.LCPI18_6:
.L.str.15:
	.asciz	"passed\n  X.509 signature verify: \000\000"
.LCPI18_7:
.Lstr:
	.asciz	"passed\n"
.Lfunc_end18:
	.size	mbedtls_x509_self_test, .Lfunc_end18-mbedtls_x509_self_test
	.cfi_endproc
	.cantunwind
	.fnend
                                        @ -- End function
	.section	.text.x509_parse_int,"ax",%progbits
	.p2align	2                               @ -- Begin function x509_parse_int
	.type	x509_parse_int,%function
	.code	16                              @ @x509_parse_int
	.thumb_func
x509_parse_int:
.Lfunc_begin19:
	.loc	4 472 0 is_stmt 1               @ ../../../ThirdParty/mbedTLS/library/x509.c:472:0
	.fnstart
	.cfi_startproc
@ %bb.0:
	@DEBUG_VALUE: x509_parse_int:p <- $r0
	@DEBUG_VALUE: x509_parse_int:n <- $r1
	@DEBUG_VALUE: x509_parse_int:res <- $r2
	.save	{r4, r5, r6, r7, lr}
	push	{r4, r5, r6, r7, lr}
	.cfi_def_cfa_offset 20
	.cfi_offset lr, -4
	.cfi_offset r7, -8
	.cfi_offset r6, -12
	.cfi_offset r5, -16
	.cfi_offset r4, -20
	mov	r3, r0
	movs	r0, #0
.Ltmp551:
	@DEBUG_VALUE: x509_parse_int:p <- [DW_OP_LLVM_entry_value 1] $r0
	@DEBUG_VALUE: x509_parse_int:res <- $r2
	@DEBUG_VALUE: x509_parse_int:n <- $r1
	@DEBUG_VALUE: x509_parse_int:p <- $r3
	.loc	4 473 10 prologue_end           @ ../../../ThirdParty/mbedTLS/library/x509.c:473:10
	str	r0, [r2]
.Ltmp552:
	.loc	4 475 5                         @ ../../../ThirdParty/mbedTLS/library/x509.c:475:5
	cbz	r1, .LBB19_4
.Ltmp553:
@ %bb.1:
	@DEBUG_VALUE: x509_parse_int:p <- $r3
	@DEBUG_VALUE: x509_parse_int:res <- $r2
	@DEBUG_VALUE: x509_parse_int:n <- $r1
	.loc	4 0 5 is_stmt 0                 @ ../../../ThirdParty/mbedTLS/library/x509.c:0:5
	ldr	r4, __arm_cp.19_0
	movs	r5, #10
.Ltmp554:
.LBB19_2:                               @ =>This Inner Loop Header: Depth=1
	@DEBUG_VALUE: x509_parse_int:p <- $r3
	@DEBUG_VALUE: x509_parse_int:res <- $r2
	@DEBUG_VALUE: x509_parse_int:n <- $r1
	@DEBUG_VALUE: x509_parse_int:n <- $r1
	.loc	4 477 16 is_stmt 1              @ ../../../ThirdParty/mbedTLS/library/x509.c:477:16
	ldr	r6, [r3]
	.loc	4 477 15 is_stmt 0              @ ../../../ThirdParty/mbedTLS/library/x509.c:477:15
	ldrb	r7, [r6]
	.loc	4 477 26                        @ ../../../ThirdParty/mbedTLS/library/x509.c:477:26
	subs	r7, #48
	cmp	r7, #9
	bhi	.LBB19_5
.Ltmp555:
@ %bb.3:                                @   in Loop: Header=BB19_2 Depth=1
	@DEBUG_VALUE: x509_parse_int:p <- $r3
	@DEBUG_VALUE: x509_parse_int:res <- $r2
	@DEBUG_VALUE: x509_parse_int:n <- $r1
	.loc	4 481 24 is_stmt 1              @ ../../../ThirdParty/mbedTLS/library/x509.c:481:24
	adds	r7, r6, #1
	str	r7, [r3]
	.loc	4 480 14                        @ ../../../ThirdParty/mbedTLS/library/x509.c:480:14
	ldr	r7, [r2]
	muls	r7, r5, r7
	str	r7, [r2]
	.loc	4 481 19                        @ ../../../ThirdParty/mbedTLS/library/x509.c:481:19
	ldrb	r6, [r6]
	.loc	4 481 27 is_stmt 0              @ ../../../ThirdParty/mbedTLS/library/x509.c:481:27
	adds	r6, r7, r6
	.loc	4 481 14                        @ ../../../ThirdParty/mbedTLS/library/x509.c:481:14
	subs	r6, #48
	str	r6, [r2]
.Ltmp556:
	.loc	4 475 19 is_stmt 1              @ ../../../ThirdParty/mbedTLS/library/x509.c:475:19
	subs	r1, r1, #1
.Ltmp557:
	@DEBUG_VALUE: x509_parse_int:n <- [DW_OP_LLVM_entry_value 1] $r1
	@DEBUG_VALUE: x509_parse_int:n <- $r1
	.loc	4 475 5 is_stmt 0               @ ../../../ThirdParty/mbedTLS/library/x509.c:475:5
	bne	.LBB19_2
.Ltmp558:
.LBB19_4:
	@DEBUG_VALUE: x509_parse_int:p <- $r3
	@DEBUG_VALUE: x509_parse_int:res <- $r2
	@DEBUG_VALUE: x509_parse_int:n <- $r1
	.loc	4 485 1 is_stmt 1               @ ../../../ThirdParty/mbedTLS/library/x509.c:485:1
	pop	{r4, r5, r6, r7, pc}
.Ltmp559:
.LBB19_5:
	@DEBUG_VALUE: x509_parse_int:p <- $r3
	@DEBUG_VALUE: x509_parse_int:res <- $r2
	@DEBUG_VALUE: x509_parse_int:n <- $r1
	.loc	4 0 0 is_stmt 0                 @ ../../../ThirdParty/mbedTLS/library/x509.c:0:0
	mov	r0, r4
	.loc	4 485 1                         @ ../../../ThirdParty/mbedTLS/library/x509.c:485:1
	pop	{r4, r5, r6, r7, pc}
.Ltmp560:
	.p2align	2
@ %bb.6:
	.loc	4 0 1                           @ ../../../ThirdParty/mbedTLS/library/x509.c:0:1
__arm_cp.19_0:
	.long	4294958080                      @ 0xffffdc00
.Lcpi_end29:
	.size	__arm_cp.19_0, .Lcpi_end29-__arm_cp.19_0
.Lfunc_end19:
	.size	x509_parse_int, .Lfunc_end19-x509_parse_int
	.cfi_endproc
	.cantunwind
	.fnend
                                        @ -- End function
	.section	.text.x509_date_is_valid,"ax",%progbits
	.p2align	2                               @ -- Begin function x509_date_is_valid
	.type	x509_date_is_valid,%function
	.code	16                              @ @x509_date_is_valid
	.thumb_func
x509_date_is_valid:
.Lfunc_begin20:
	.loc	4 488 0 is_stmt 1               @ ../../../ThirdParty/mbedTLS/library/x509.c:488:0
	.fnstart
	.cfi_startproc
@ %bb.0:
	@DEBUG_VALUE: x509_date_is_valid:t <- $r0
	@DEBUG_VALUE: x509_date_is_valid:t <- $r0
	.save	{r4, lr}
	push	{r4, lr}
	.cfi_def_cfa_offset 8
	.cfi_offset lr, -4
	.cfi_offset r4, -8
.Ltmp561:
	@DEBUG_VALUE: x509_date_is_valid:ret <- -9216
	.loc	4 492 5 prologue_end            @ ../../../ThirdParty/mbedTLS/library/x509.c:492:5
	ldr	r1, [r0]
	ldr	r2, __arm_cp.20_0
	cmp	r1, r2
	bhi	.LBB20_4
.Ltmp562:
@ %bb.1:
	@DEBUG_VALUE: x509_date_is_valid:t <- $r0
	@DEBUG_VALUE: x509_date_is_valid:ret <- -9216
	.loc	4 493 5                         @ ../../../ThirdParty/mbedTLS/library/x509.c:493:5
	ldr	r2, [r0, #12]
	cmp	r2, #23
	bhi	.LBB20_4
.Ltmp563:
@ %bb.2:
	@DEBUG_VALUE: x509_date_is_valid:t <- $r0
	@DEBUG_VALUE: x509_date_is_valid:ret <- -9216
	.loc	4 494 5                         @ ../../../ThirdParty/mbedTLS/library/x509.c:494:5
	ldr	r2, [r0, #16]
	cmp	r2, #59
	bhi	.LBB20_4
.Ltmp564:
@ %bb.3:
	@DEBUG_VALUE: x509_date_is_valid:t <- $r0
	@DEBUG_VALUE: x509_date_is_valid:ret <- -9216
	.loc	4 495 5                         @ ../../../ThirdParty/mbedTLS/library/x509.c:495:5
	ldr	r2, [r0, #20]
	cmp	r2, #59
	bls	.LBB20_5
.Ltmp565:
.LBB20_4:
	@DEBUG_VALUE: x509_date_is_valid:t <- $r0
	@DEBUG_VALUE: x509_date_is_valid:ret <- -9216
	.loc	4 0 5 is_stmt 0                 @ ../../../ThirdParty/mbedTLS/library/x509.c:0:5
	ldr	r0, __arm_cp.20_5
.Ltmp566:
	@DEBUG_VALUE: x509_date_is_valid:t <- [DW_OP_LLVM_entry_value 1] $r0
	.loc	4 527 1 is_stmt 1               @ ../../../ThirdParty/mbedTLS/library/x509.c:527:1
	pop	{r4, pc}
.Ltmp567:
.LBB20_5:
	@DEBUG_VALUE: x509_date_is_valid:t <- $r0
	@DEBUG_VALUE: x509_date_is_valid:ret <- -9216
	.loc	4 497 16                        @ ../../../ThirdParty/mbedTLS/library/x509.c:497:16
	ldr	r2, [r0, #4]
	.loc	4 497 5 is_stmt 0               @ ../../../ThirdParty/mbedTLS/library/x509.c:497:5
	cmp	r2, #12
	bhi	.LBB20_4
.Ltmp568:
@ %bb.6:
	@DEBUG_VALUE: x509_date_is_valid:t <- $r0
	@DEBUG_VALUE: x509_date_is_valid:ret <- -9216
	.loc	4 0 5                           @ ../../../ThirdParty/mbedTLS/library/x509.c:0:5
	movs	r3, #1
	lsls	r3, r2
	ldr	r4, __arm_cp.20_1
	tst	r3, r4
	beq	.LBB20_8
.Ltmp569:
@ %bb.7:
	@DEBUG_VALUE: x509_date_is_valid:t <- $r0
	@DEBUG_VALUE: x509_date_is_valid:ret <- -9216
	movs	r1, #31
	b	.LBB20_10
.Ltmp570:
.LBB20_8:
	@DEBUG_VALUE: x509_date_is_valid:t <- $r0
	@DEBUG_VALUE: x509_date_is_valid:ret <- -9216
	movw	r4, #2640
	tst	r3, r4
	beq	.LBB20_15
.Ltmp571:
@ %bb.9:
	@DEBUG_VALUE: x509_date_is_valid:t <- $r0
	@DEBUG_VALUE: x509_date_is_valid:ret <- -9216
	@DEBUG_VALUE: x509_date_is_valid:month_len <- 30
	movs	r1, #30
.Ltmp572:
.LBB20_10:
	@DEBUG_VALUE: x509_date_is_valid:t <- $r0
	@DEBUG_VALUE: x509_date_is_valid:ret <- -9216
	@DEBUG_VALUE: x509_date_is_valid:month_len <- $r1
	.loc	4 524 5 is_stmt 1               @ ../../../ThirdParty/mbedTLS/library/x509.c:524:5
	ldr	r2, [r0, #8]
	ldr	r0, __arm_cp.20_5
.Ltmp573:
	@DEBUG_VALUE: x509_date_is_valid:t <- [DW_OP_LLVM_entry_value 1] $r0
	cmp	r2, r1
	mov	r1, r0
.Ltmp574:
	bgt	.LBB20_13
.Ltmp575:
@ %bb.11:
	@DEBUG_VALUE: x509_date_is_valid:t <- [DW_OP_LLVM_entry_value 1] $r0
	@DEBUG_VALUE: x509_date_is_valid:ret <- -9216
	.loc	4 0 5 is_stmt 0                 @ ../../../ThirdParty/mbedTLS/library/x509.c:0:5
	movs	r1, #0
	.loc	4 524 5                         @ ../../../ThirdParty/mbedTLS/library/x509.c:524:5
	cmp	r2, #1
	bge	.LBB20_14
.Ltmp576:
.LBB20_12:
	@DEBUG_VALUE: x509_date_is_valid:t <- [DW_OP_LLVM_entry_value 1] $r0
	@DEBUG_VALUE: x509_date_is_valid:ret <- -9216
	pop	{r4, pc}
.Ltmp577:
.LBB20_13:
	@DEBUG_VALUE: x509_date_is_valid:t <- [DW_OP_LLVM_entry_value 1] $r0
	@DEBUG_VALUE: x509_date_is_valid:ret <- -9216
	cmp	r2, #1
	blt	.LBB20_12
.Ltmp578:
.LBB20_14:
	@DEBUG_VALUE: x509_date_is_valid:t <- [DW_OP_LLVM_entry_value 1] $r0
	@DEBUG_VALUE: x509_date_is_valid:ret <- -9216
	mov	r0, r1
	pop	{r4, pc}
.Ltmp579:
.LBB20_15:
	@DEBUG_VALUE: x509_date_is_valid:t <- $r0
	@DEBUG_VALUE: x509_date_is_valid:ret <- -9216
	.loc	4 0 5                           @ ../../../ThirdParty/mbedTLS/library/x509.c:0:5
	cmp	r2, #2
	bne	.LBB20_4
.Ltmp580:
@ %bb.16:
	@DEBUG_VALUE: x509_date_is_valid:t <- $r0
	@DEBUG_VALUE: x509_date_is_valid:ret <- -9216
	.loc	4 515 32 is_stmt 1              @ ../../../ThirdParty/mbedTLS/library/x509.c:515:32
	lsls	r2, r1, #30
	bne	.LBB20_18
.Ltmp581:
@ %bb.17:
	@DEBUG_VALUE: x509_date_is_valid:t <- $r0
	@DEBUG_VALUE: x509_date_is_valid:ret <- -9216
	.loc	4 0 32 is_stmt 0                @ ../../../ThirdParty/mbedTLS/library/x509.c:0:32
	movs	r2, #100
	sdiv	r3, r1, r2
	muls	r3, r2, r3
	subs	r2, r1, r3
	.loc	4 515 32                        @ ../../../ThirdParty/mbedTLS/library/x509.c:515:32
	bne	.LBB20_20
.Ltmp582:
.LBB20_18:
	@DEBUG_VALUE: x509_date_is_valid:t <- $r0
	@DEBUG_VALUE: x509_date_is_valid:ret <- -9216
	.loc	4 0 32                          @ ../../../ThirdParty/mbedTLS/library/x509.c:0:32
	ldr	r2, __arm_cp.20_2
	.loc	4 515 13                        @ ../../../ThirdParty/mbedTLS/library/x509.c:515:13
	muls	r2, r1, r2
	ldr	r1, __arm_cp.20_3
	adds	r1, r2, r1
	movs	r2, #4
	rors	r1, r2
	ldr	r2, __arm_cp.20_4
	cmp	r1, r2
	blo	.LBB20_20
.Ltmp583:
@ %bb.19:
	@DEBUG_VALUE: x509_date_is_valid:t <- $r0
	@DEBUG_VALUE: x509_date_is_valid:ret <- -9216
	.loc	4 0 13                          @ ../../../ThirdParty/mbedTLS/library/x509.c:0:13
	movs	r1, #28
	b	.LBB20_10
.Ltmp584:
.LBB20_20:
	@DEBUG_VALUE: x509_date_is_valid:t <- $r0
	@DEBUG_VALUE: x509_date_is_valid:ret <- -9216
	movs	r1, #29
	b	.LBB20_10
.Ltmp585:
	.p2align	2
@ %bb.21:
__arm_cp.20_0:
	.long	9999                            @ 0x270f
.Lcpi_end30:
	.size	__arm_cp.20_0, .Lcpi_end30-__arm_cp.20_0
__arm_cp.20_1:
	.long	5546                            @ 0x15aa
.Lcpi_end31:
	.size	__arm_cp.20_1, .Lcpi_end31-__arm_cp.20_1
__arm_cp.20_2:
	.long	3264175145                      @ 0xc28f5c29
.Lcpi_end32:
	.size	__arm_cp.20_2, .Lcpi_end32-__arm_cp.20_2
__arm_cp.20_3:
	.long	85899344                        @ 0x51eb850
.Lcpi_end33:
	.size	__arm_cp.20_3, .Lcpi_end33-__arm_cp.20_3
__arm_cp.20_4:
	.long	10737419                        @ 0xa3d70b
.Lcpi_end34:
	.size	__arm_cp.20_4, .Lcpi_end34-__arm_cp.20_4
__arm_cp.20_5:
	.long	4294958080                      @ 0xffffdc00
.Lcpi_end35:
	.size	__arm_cp.20_5, .Lcpi_end35-__arm_cp.20_5
.Lfunc_end20:
	.size	x509_date_is_valid, .Lfunc_end20-x509_date_is_valid
	.cfi_endproc
	.cantunwind
	.fnend
                                        @ -- End function
	.type	.L.str.1,%object                @ @.str.1
	.section	.rodata.str1.1,"aMS",%progbits,1
.L.str.1:
	.asciz	" + "
	.size	.L.str.1, 4

	.type	.L.str.2,%object                @ @.str.2
.L.str.2:
	.asciz	", "
	.size	.L.str.2, 3

	.type	.L.str.5,%object                @ @.str.5
.L.str.5:
	.asciz	"%s"
	.size	.L.str.5, 3

	.type	.L.str.7,%object                @ @.str.7
.L.str.7:
	.asciz	":"
	.size	.L.str.7, 2

	.type	.L.str.8,%object                @ @.str.8
.L.str.8:
	.zero	1
	.size	.L.str.8, 1

	.type	.L.str.10,%object               @ @.str.10
.L.str.10:
	.asciz	"???"
	.size	.L.str.10, 4

	.globl	_printf_percent
	.globl	_printf_flags
	.globl	_printf_widthprec
	.globl	_printf_pre_padding
	.globl	_printf_return_value
	.globl	_printf_s
	.globl	_printf_x
	.globl	_printf_longlong_hex
	.globl	_printf_str
	.hidden	_printf_percent
	.hidden	_printf_flags
	.hidden	_printf_widthprec
	.hidden	_printf_pre_padding
	.hidden	_printf_return_value
	.hidden	_printf_s
	.hidden	_printf_x
	.hidden	_printf_longlong_hex
	.hidden	_printf_str
	.file	5 "C:\\Users\\shw26\\OneDrive\\Desktop\\2021\\2021-1\\\354\272\241\354\212\244\355\206\244\353\224\224\354\236\220\354\235\2702\\Nuvoton\\M2351_BSP_v3.00.004\\M2351Series_BSP_CMSIS_V3.00.004\\MyProject\\PulseMonitoring\\Secure" "../../../ThirdParty/mbedTLS/include/mbedtls\\asn1.h"
	.file	6 "C:\\Users\\shw26\\OneDrive\\Desktop\\2021\\2021-1\\\354\272\241\354\212\244\355\206\244\353\224\224\354\236\220\354\235\2702\\Nuvoton\\M2351_BSP_v3.00.004\\M2351Series_BSP_CMSIS_V3.00.004\\MyProject\\PulseMonitoring\\Secure" "../../../ThirdParty/mbedTLS/include/mbedtls/x509.h"
	.file	7 "C:\\Users\\shw26\\OneDrive\\Desktop\\2021\\2021-1\\\354\272\241\354\212\244\355\206\244\353\224\224\354\236\220\354\235\2702\\Nuvoton\\M2351_BSP_v3.00.004\\M2351Series_BSP_CMSIS_V3.00.004\\MyProject\\PulseMonitoring\\Secure" "../../../ThirdParty/mbedTLS/include/mbedtls\\x509_crt.h"
	.file	8 "C:\\" "Keil_v5\\ARM\\ARMCLANG\\Bin\\..\\include\\stdint.h"
	.section	".note.GNU-stack","",%progbits
	.eabi_attribute	30, 1	@ Tag_ABI_optimization_goals
	.ARM_attribute	16, 1	@ Tag_AV_eba