	.text
	.syntax unified
	.eabi_attribute	67, "2.09"	@ Tag_conformance
	.cpu	cortex-m23
	.eabi_attribute	6, 16	@ Tag_CPU_arch
	.eabi_attribute	7, 77	@ Tag_CPU_arch_profile
	.eabi_attribute	8, 0	@ Tag_ARM_ISA_use
	.eabi_attribute	9, 3	@ Tag_THUMB_ISA_use
	.eabi_attribute	34, 0	@ Tag_CPU_unaligned_access
	.eabi_attribute	17, 1	@ Tag_ABI_PCS_GOT_use
	.eabi_attribute	20, 2	@ Tag_ABI_FP_denormal
	.eabi_attribute	21, 0	@ Tag_ABI_FP_exceptions
	.eabi_attribute	23, 1	@ Tag_ABI_FP_number_model
	.eabi_attribute	24, 1	@ Tag_ABI_align_needed
	.eabi_attribute	25, 1	@ Tag_ABI_align_preserved
	.eabi_attribute	38, 1	@ Tag_ABI_FP_16bit_format
	.eabi_attribute	18, 2	@ Tag_ABI_PCS_wchar_t
	.eabi_attribute	26, 1	@ Tag_ABI_enum_size
	.eabi_attribute	14, 0	@ Tag_ABI_PCS_R9_use
	.file	"x509write_crt.c"
	.file	1 "C:\\Users\\shw26\\OneDrive\\Desktop\\2021\\2021-1\\\354\272\241\354\212\244\355\206\244\353\224\224\354\236\220\354\235\2702\\Nuvoton\\M2351_BSP_v3.00.004\\M2351Series_BSP_CMSIS_V3.00.004\\MyProject\\PulseMonitoring\\Secure" "../../../ThirdParty/mbedTLS/include/mbedtls/md.h"
	.file	2 "C:\\Users\\shw26\\OneDrive\\Desktop\\2021\\2021-1\\\354\272\241\354\212\244\355\206\244\353\224\224\354\236\220\354\235\2702\\Nuvoton\\M2351_BSP_v3.00.004\\M2351Series_BSP_CMSIS_V3.00.004\\MyProject\\PulseMonitoring\\Secure" "../../../ThirdParty/mbedTLS/include/mbedtls/pk.h"
	.file	3 "C:\\" "Keil_v5\\ARM\\ARMCLANG\\Bin\\..\\include\\stddef.h"
	.section	.text.mbedtls_x509write_crt_init,"ax",%progbits
	.hidden	mbedtls_x509write_crt_init      @ -- Begin function mbedtls_x509write_crt_init
	.globl	mbedtls_x509write_crt_init
	.p2align	1
	.type	mbedtls_x509write_crt_init,%function
	.code	16                              @ @mbedtls_x509write_crt_init
	.thumb_func
mbedtls_x509write_crt_init:
.Lfunc_begin0:
	.file	4 "C:\\Users\\shw26\\OneDrive\\Desktop\\2021\\2021-1\\\354\272\241\354\212\244\355\206\244\353\224\224\354\236\220\354\235\2702\\Nuvoton\\M2351_BSP_v3.00.004\\M2351Series_BSP_CMSIS_V3.00.004\\MyProject\\PulseMonitoring\\Secure" "../../../ThirdParty/mbedTLS/library/x509write_crt.c"
	.loc	4 49 0                          @ ../../../ThirdParty/mbedTLS/library/x509write_crt.c:49:0
	.fnstart
	.cfi_sections .debug_frame
	.cfi_startproc
@ %bb.0:
	@DEBUG_VALUE: mbedtls_x509write_crt_init:ctx <- $r0
	.save	{r4, lr}
	push	{r4, lr}
	.cfi_def_cfa_offset 8
	.cfi_offset lr, -4
	.cfi_offset r4, -8
	mov	r4, r0
.Ltmp0:
	@DEBUG_VALUE: mbedtls_x509write_crt_init:ctx <- $r4
	movs	r1, #72
.Ltmp1:
	.loc	4 50 5 prologue_end             @ ../../../ThirdParty/mbedTLS/library/x509write_crt.c:50:5
	bl	__aeabi_memclr4
	.loc	4 52 29                         @ ../../../ThirdParty/mbedTLS/library/x509write_crt.c:52:29
	adds	r0, r4, #4
	.loc	4 52 5 is_stmt 0                @ ../../../ThirdParty/mbedTLS/library/x509write_crt.c:52:5
	bl	mbedtls_mpi_init
	movs	r0, #2
	.loc	4 53 18 is_stmt 1               @ ../../../ThirdParty/mbedTLS/library/x509write_crt.c:53:18
	str	r0, [r4]
	.loc	4 54 1                          @ ../../../ThirdParty/mbedTLS/library/x509write_crt.c:54:1
	pop	{r4, pc}
.Ltmp2:
.Lfunc_end0:
	.size	mbedtls_x509write_crt_init, .Lfunc_end0-mbedtls_x509write_crt_init
	.cfi_endproc
	.cantunwind
	.fnend
                                        @ -- End function
	.section	.text.mbedtls_x509write_crt_free,"ax",%progbits
	.hidden	mbedtls_x509write_crt_free      @ -- Begin function mbedtls_x509write_crt_free
	.globl	mbedtls_x509write_crt_free
	.p2align	1
	.type	mbedtls_x509write_crt_free,%function
	.code	16                              @ @mbedtls_x509write_crt_free
	.thumb_func
mbedtls_x509write_crt_free:
.Lfunc_begin1:
	.loc	4 57 0                          @ ../../../ThirdParty/mbedTLS/library/x509write_crt.c:57:0
	.fnstart
	.cfi_startproc
@ %bb.0:
	@DEBUG_VALUE: mbedtls_x509write_crt_free:ctx <- $r0
	.save	{r4, lr}
	push	{r4, lr}
	.cfi_def_cfa_offset 8
	.cfi_offset lr, -4
	.cfi_offset r4, -8
	mov	r4, r0
.Ltmp3:
	@DEBUG_VALUE: mbedtls_x509write_crt_free:ctx <- $r4
	.loc	4 58 29 prologue_end            @ ../../../ThirdParty/mbedTLS/library/x509write_crt.c:58:29
	adds	r0, r0, #4
	.loc	4 58 5 is_stmt 0                @ ../../../ThirdParty/mbedTLS/library/x509write_crt.c:58:5
	bl	mbedtls_mpi_free
	.loc	4 60 46 is_stmt 1               @ ../../../ThirdParty/mbedTLS/library/x509write_crt.c:60:46
	mov	r0, r4
	adds	r0, #24
	.loc	4 60 5 is_stmt 0                @ ../../../ThirdParty/mbedTLS/library/x509write_crt.c:60:5
	bl	mbedtls_asn1_free_named_data_list
	.loc	4 61 46 is_stmt 1               @ ../../../ThirdParty/mbedTLS/library/x509write_crt.c:61:46
	mov	r0, r4
	adds	r0, #28
	.loc	4 61 5 is_stmt 0                @ ../../../ThirdParty/mbedTLS/library/x509write_crt.c:61:5
	bl	mbedtls_asn1_free_named_data_list
	.loc	4 62 46 is_stmt 1               @ ../../../ThirdParty/mbedTLS/library/x509write_crt.c:62:46
	mov	r0, r4
	adds	r0, #68
	.loc	4 62 5 is_stmt 0                @ ../../../ThirdParty/mbedTLS/library/x509write_crt.c:62:5
	bl	mbedtls_asn1_free_named_data_list
	movs	r1, #72
	.loc	4 64 5 is_stmt 1                @ ../../../ThirdParty/mbedTLS/library/x509write_crt.c:64:5
	mov	r0, r4
	bl	mbedtls_platform_zeroize
	.loc	4 65 1                          @ ../../../ThirdParty/mbedTLS/library/x509write_crt.c:65:1
	pop	{r4, pc}
.Ltmp4:
.Lfunc_end1:
	.size	mbedtls_x509write_crt_free, .Lfunc_end1-mbedtls_x509write_crt_free
	.cfi_endproc
	.cantunwind
	.fnend
                                        @ -- End function
	.section	.text.mbedtls_x509write_crt_set_version,"ax",%progbits
	.hidden	mbedtls_x509write_crt_set_version @ -- Begin function mbedtls_x509write_crt_set_version
	.globl	mbedtls_x509write_crt_set_version
	.p2align	1
	.type	mbedtls_x509write_crt_set_version,%function
	.code	16                              @ @mbedtls_x509write_crt_set_version
	.thumb_func
mbedtls_x509write_crt_set_version:
.Lfunc_begin2:
	.loc	4 68 0                          @ ../../../ThirdParty/mbedTLS/library/x509write_crt.c:68:0
	.fnstart
	.cfi_startproc
@ %bb.0:
	@DEBUG_VALUE: mbedtls_x509write_crt_set_version:ctx <- $r0
	@DEBUG_VALUE: mbedtls_x509write_crt_set_version:ctx <- $r0
	@DEBUG_VALUE: mbedtls_x509write_crt_set_version:version <- $r1
	@DEBUG_VALUE: mbedtls_x509write_crt_set_version:version <- $r1
	.loc	4 69 18 prologue_end            @ ../../../ThirdParty/mbedTLS/library/x509write_crt.c:69:18
	str	r1, [r0]
	.loc	4 70 1                          @ ../../../ThirdParty/mbedTLS/library/x509write_crt.c:70:1
	bx	lr
.Ltmp5:
.Lfunc_end2:
	.size	mbedtls_x509write_crt_set_version, .Lfunc_end2-mbedtls_x509write_crt_set_version
	.cfi_endproc
	.cantunwind
	.fnend
                                        @ -- End function
	.section	.text.mbedtls_x509write_crt_set_md_alg,"ax",%progbits
	.hidden	mbedtls_x509write_crt_set_md_alg @ -- Begin function mbedtls_x509write_crt_set_md_alg
	.globl	mbedtls_x509write_crt_set_md_alg
	.p2align	1
	.type	mbedtls_x509write_crt_set_md_alg,%function
	.code	16                              @ @mbedtls_x509write_crt_set_md_alg
	.thumb_func
mbedtls_x509write_crt_set_md_alg:
.Lfunc_begin3:
	.loc	4 73 0                          @ ../../../ThirdParty/mbedTLS/library/x509write_crt.c:73:0
	.fnstart
	.cfi_startproc
@ %bb.0:
	@DEBUG_VALUE: mbedtls_x509write_crt_set_md_alg:ctx <- $r0
	@DEBUG_VALUE: mbedtls_x509write_crt_set_md_alg:md_alg <- $r1
	movs	r2, #32
	@DEBUG_VALUE: mbedtls_x509write_crt_set_md_alg:md_alg <- $r1
	@DEBUG_VALUE: mbedtls_x509write_crt_set_md_alg:ctx <- $r0
.Ltmp6:
	.loc	4 74 17 prologue_end            @ ../../../ThirdParty/mbedTLS/library/x509write_crt.c:74:17
	strb	r1, [r0, r2]
	.loc	4 75 1                          @ ../../../ThirdParty/mbedTLS/library/x509write_crt.c:75:1
	bx	lr
.Ltmp7:
.Lfunc_end3:
	.size	mbedtls_x509write_crt_set_md_alg, .Lfunc_end3-mbedtls_x509write_crt_set_md_alg
	.cfi_endproc
	.cantunwind
	.fnend
                                        @ -- End function
	.section	.text.mbedtls_x509write_crt_set_subject_key,"ax",%progbits
	.hidden	mbedtls_x509write_crt_set_subject_key @ -- Begin function mbedtls_x509write_crt_set_subject_key
	.globl	mbedtls_x509write_crt_set_subject_key
	.p2align	1
	.type	mbedtls_x509write_crt_set_subject_key,%function
	.code	16                              @ @mbedtls_x509write_crt_set_subject_key
	.thumb_func
mbedtls_x509write_crt_set_subject_key:
.Lfunc_begin4:
	.loc	4 78 0                          @ ../../../ThirdParty/mbedTLS/library/x509write_crt.c:78:0
	.fnstart
	.cfi_startproc
@ %bb.0:
	@DEBUG_VALUE: mbedtls_x509write_crt_set_subject_key:ctx <- $r0
	@DEBUG_VALUE: mbedtls_x509write_crt_set_subject_key:ctx <- $r0
	@DEBUG_VALUE: mbedtls_x509write_crt_set_subject_key:key <- $r1
	@DEBUG_VALUE: mbedtls_x509write_crt_set_subject_key:key <- $r1
	.loc	4 79 22 prologue_end            @ ../../../ThirdParty/mbedTLS/library/x509write_crt.c:79:22
	str	r1, [r0, #16]
	.loc	4 80 1                          @ ../../../ThirdParty/mbedTLS/library/x509write_crt.c:80:1
	bx	lr
.Ltmp8:
.Lfunc_end4:
	.size	mbedtls_x509write_crt_set_subject_key, .Lfunc_end4-mbedtls_x509write_crt_set_subject_key
	.cfi_endproc
	.cantunwind
	.fnend
                                        @ -- End function
	.section	.text.mbedtls_x509write_crt_set_issuer_key,"ax",%progbits
	.hidden	mbedtls_x509write_crt_set_issuer_key @ -- Begin function mbedtls_x509write_crt_set_issuer_key
	.globl	mbedtls_x509write_crt_set_issuer_key
	.p2align	1
	.type	mbedtls_x509write_crt_set_issuer_key,%function
	.code	16                              @ @mbedtls_x509write_crt_set_issuer_key
	.thumb_func
mbedtls_x509write_crt_set_issuer_key:
.Lfunc_begin5:
	.loc	4 83 0                          @ ../../../ThirdParty/mbedTLS/library/x509write_crt.c:83:0
	.fnstart
	.cfi_startproc
@ %bb.0:
	@DEBUG_VALUE: mbedtls_x509write_crt_set_issuer_key:ctx <- $r0
	@DEBUG_VALUE: mbedtls_x509write_crt_set_issuer_key:ctx <- $r0
	@DEBUG_VALUE: mbedtls_x509write_crt_set_issuer_key:key <- $r1
	@DEBUG_VALUE: mbedtls_x509write_crt_set_issuer_key:key <- $r1
	.loc	4 84 21 prologue_end            @ ../../../ThirdParty/mbedTLS/library/x509write_crt.c:84:21
	str	r1, [r0, #20]
	.loc	4 85 1                          @ ../../../ThirdParty/mbedTLS/library/x509write_crt.c:85:1
	bx	lr
.Ltmp9:
.Lfunc_end5:
	.size	mbedtls_x509write_crt_set_issuer_key, .Lfunc_end5-mbedtls_x509write_crt_set_issuer_key
	.cfi_endproc
	.cantunwind
	.fnend
                                        @ -- End function
	.section	.text.mbedtls_x509write_crt_set_subject_name,"ax",%progbits
	.hidden	mbedtls_x509write_crt_set_subject_name @ -- Begin function mbedtls_x509write_crt_set_subject_name
	.globl	mbedtls_x509write_crt_set_subject_name
	.p2align	1
	.type	mbedtls_x509write_crt_set_subject_name,%function
	.code	16                              @ @mbedtls_x509write_crt_set_subject_name
	.thumb_func
mbedtls_x509write_crt_set_subject_name:
.Lfunc_begin6:
	.loc	4 89 0                          @ ../../../ThirdParty/mbedTLS/library/x509write_crt.c:89:0
	.fnstart
	.cfi_startproc
@ %bb.0:
	@DEBUG_VALUE: mbedtls_x509write_crt_set_subject_name:ctx <- $r0
	@DEBUG_VALUE: mbedtls_x509write_crt_set_subject_name:ctx <- $r0
	@DEBUG_VALUE: mbedtls_x509write_crt_set_subject_name:subject_name <- $r1
	@DEBUG_VALUE: mbedtls_x509write_crt_set_subject_name:subject_name <- $r1
	.save	{r7, lr}
	push	{r7, lr}
	.cfi_def_cfa_offset 8
	.cfi_offset lr, -4
	.cfi_offset r7, -8
.Ltmp10:
	.loc	4 90 48 prologue_end            @ ../../../ThirdParty/mbedTLS/library/x509write_crt.c:90:48
	adds	r0, #24
.Ltmp11:
	@DEBUG_VALUE: mbedtls_x509write_crt_set_subject_name:ctx <- [DW_OP_LLVM_entry_value 1] $r0
	@DEBUG_VALUE: mbedtls_x509write_crt_set_subject_name:subject_name <- $r1
	.loc	4 90 12 is_stmt 0               @ ../../../ThirdParty/mbedTLS/library/x509write_crt.c:90:12
	bl	mbedtls_x509_string_to_names
.Ltmp12:
	@DEBUG_VALUE: mbedtls_x509write_crt_set_subject_name:subject_name <- [DW_OP_LLVM_entry_value 1] $r1
	.loc	4 90 5                          @ ../../../ThirdParty/mbedTLS/library/x509write_crt.c:90:5
	pop	{r7, pc}
.Ltmp13:
.Lfunc_end6:
	.size	mbedtls_x509write_crt_set_subject_name, .Lfunc_end6-mbedtls_x509write_crt_set_subject_name
	.cfi_endproc
	.cantunwind
	.fnend
                                        @ -- End function
	.section	.text.mbedtls_x509write_crt_set_issuer_name,"ax",%progbits
	.hidden	mbedtls_x509write_crt_set_issuer_name @ -- Begin function mbedtls_x509write_crt_set_issuer_name
	.globl	mbedtls_x509write_crt_set_issuer_name
	.p2align	1
	.type	mbedtls_x509write_crt_set_issuer_name,%function
	.code	16                              @ @mbedtls_x509write_crt_set_issuer_name
	.thumb_func
mbedtls_x509write_crt_set_issuer_name:
.Lfunc_begin7:
	.loc	4 95 0 is_stmt 1                @ ../../../ThirdParty/mbedTLS/library/x509write_crt.c:95:0
	.fnstart
	.cfi_startproc
@ %bb.0:
	@DEBUG_VALUE: mbedtls_x509write_crt_set_issuer_name:ctx <- $r0
	@DEBUG_VALUE: mbedtls_x509write_crt_set_issuer_name:ctx <- $r0
	@DEBUG_VALUE: mbedtls_x509write_crt_set_issuer_name:issuer_name <- $r1
	@DEBUG_VALUE: mbedtls_x509write_crt_set_issuer_name:issuer_name <- $r1
	.save	{r7, lr}
	push	{r7, lr}
	.cfi_def_cfa_offset 8
	.cfi_offset lr, -4
	.cfi_offset r7, -8
.Ltmp14:
	.loc	4 96 48 prologue_end            @ ../../../ThirdParty/mbedTLS/library/x509write_crt.c:96:48
	adds	r0, #28
.Ltmp15:
	@DEBUG_VALUE: mbedtls_x509write_crt_set_issuer_name:ctx <- [DW_OP_LLVM_entry_value 1] $r0
	@DEBUG_VALUE: mbedtls_x509write_crt_set_issuer_name:issuer_name <- $r1
	.loc	4 96 12 is_stmt 0               @ ../../../ThirdParty/mbedTLS/library/x509write_crt.c:96:12
	bl	mbedtls_x509_string_to_names
.Ltmp16:
	@DEBUG_VALUE: mbedtls_x509write_crt_set_issuer_name:issuer_name <- [DW_OP_LLVM_entry_value 1] $r1
	.loc	4 96 5                          @ ../../../ThirdParty/mbedTLS/library/x509write_crt.c:96:5
	pop	{r7, pc}
.Ltmp17:
.Lfunc_end7:
	.size	mbedtls_x509write_crt_set_issuer_name, .Lfunc_end7-mbedtls_x509write_crt_set_issuer_name
	.cfi_endproc
	.cantunwind
	.fnend
                                        @ -- End function
	.section	.text.mbedtls_x509write_crt_set_serial,"ax",%progbits
	.hidden	mbedtls_x509write_crt_set_serial @ -- Begin function mbedtls_x509write_crt_set_serial
	.globl	mbedtls_x509write_crt_set_serial
	.p2align	1
	.type	mbedtls_x509write_crt_set_serial,%function
	.code	16                              @ @mbedtls_x509write_crt_set_serial
	.thumb_func
mbedtls_x509write_crt_set_serial:
.Lfunc_begin8:
	.loc	4 100 0 is_stmt 1               @ ../../../ThirdParty/mbedTLS/library/x509write_crt.c:100:0
	.fnstart
	.cfi_startproc
@ %bb.0:
	@DEBUG_VALUE: mbedtls_x509write_crt_set_serial:ctx <- $r0
	@DEBUG_VALUE: mbedtls_x509write_crt_set_serial:ctx <- $r0
	@DEBUG_VALUE: mbedtls_x509write_crt_set_serial:serial <- $r1
	@DEBUG_VALUE: mbedtls_x509write_crt_set_serial:serial <- $r1
	.save	{r7, lr}
	push	{r7, lr}
	.cfi_def_cfa_offset 8
	.cfi_offset lr, -4
	.cfi_offset r7, -8
.Ltmp18:
	.loc	4 103 41 prologue_end           @ ../../../ThirdParty/mbedTLS/library/x509write_crt.c:103:41
	adds	r0, r0, #4
.Ltmp19:
	@DEBUG_VALUE: mbedtls_x509write_crt_set_serial:ctx <- [DW_OP_LLVM_entry_value 1] $r0
	@DEBUG_VALUE: mbedtls_x509write_crt_set_serial:serial <- $r1
	.loc	4 103 17 is_stmt 0              @ ../../../ThirdParty/mbedTLS/library/x509write_crt.c:103:17
	bl	mbedtls_mpi_copy
.Ltmp20:
	@DEBUG_VALUE: mbedtls_x509write_crt_set_serial:serial <- [DW_OP_LLVM_entry_value 1] $r1
	@DEBUG_VALUE: mbedtls_x509write_crt_set_serial:ret <- $r0
	.loc	4 107 1 is_stmt 1               @ ../../../ThirdParty/mbedTLS/library/x509write_crt.c:107:1
	pop	{r7, pc}
.Ltmp21:
.Lfunc_end8:
	.size	mbedtls_x509write_crt_set_serial, .Lfunc_end8-mbedtls_x509write_crt_set_serial
	.cfi_endproc
	.cantunwind
	.fnend
                                        @ -- End function
	.section	.text.mbedtls_x509write_crt_set_validity,"ax",%progbits
	.hidden	mbedtls_x509write_crt_set_validity @ -- Begin function mbedtls_x509write_crt_set_validity
	.globl	mbedtls_x509write_crt_set_validity
	.p2align	2
	.type	mbedtls_x509write_crt_set_validity,%function
	.code	16                              @ @mbedtls_x509write_crt_set_validity
	.thumb_func
mbedtls_x509write_crt_set_validity:
.Lfunc_begin9:
	.loc	4 111 0                         @ ../../../ThirdParty/mbedTLS/library/x509write_crt.c:111:0
	.fnstart
	.cfi_startproc
@ %bb.0:
	@DEBUG_VALUE: mbedtls_x509write_crt_set_validity:ctx <- $r0
	@DEBUG_VALUE: mbedtls_x509write_crt_set_validity:not_before <- $r1
	@DEBUG_VALUE: mbedtls_x509write_crt_set_validity:not_after <- $r2
	.save	{r4, r5, r6, r7, lr}
	push	{r4, r5, r6, r7, lr}
	.cfi_def_cfa_offset 20
	.cfi_offset lr, -4
	.cfi_offset r7, -8
	.cfi_offset r6, -12
	.cfi_offset r5, -16
	.cfi_offset r4, -20
	.pad	#4
	sub	sp, #4
	.cfi_def_cfa_offset 24
	mov	r4, r2
	mov	r6, r1
	mov	r5, r0
.Ltmp22:
	@DEBUG_VALUE: mbedtls_x509write_crt_set_validity:not_after <- $r4
	@DEBUG_VALUE: mbedtls_x509write_crt_set_validity:not_before <- $r6
	@DEBUG_VALUE: mbedtls_x509write_crt_set_validity:ctx <- $r5
	.loc	4 112 9 prologue_end            @ ../../../ThirdParty/mbedTLS/library/x509write_crt.c:112:9
	mov	r0, r1
	bl	strlen
	ldr	r7, __arm_cp.9_0
	.loc	4 112 71 is_stmt 0              @ ../../../ThirdParty/mbedTLS/library/x509write_crt.c:112:71
	cmp	r0, #14
	bne	.LBB9_3
.Ltmp23:
@ %bb.1:
	@DEBUG_VALUE: mbedtls_x509write_crt_set_validity:not_before <- $r6
	@DEBUG_VALUE: mbedtls_x509write_crt_set_validity:ctx <- $r5
	@DEBUG_VALUE: mbedtls_x509write_crt_set_validity:not_after <- $r4
	.loc	4 113 13 is_stmt 1              @ ../../../ThirdParty/mbedTLS/library/x509write_crt.c:113:13
	mov	r0, r4
	bl	strlen
.Ltmp24:
	.loc	4 112 9                         @ ../../../ThirdParty/mbedTLS/library/x509write_crt.c:112:9
	cmp	r0, #14
	bne	.LBB9_3
.Ltmp25:
@ %bb.2:
	@DEBUG_VALUE: mbedtls_x509write_crt_set_validity:not_before <- $r6
	@DEBUG_VALUE: mbedtls_x509write_crt_set_validity:ctx <- $r5
	@DEBUG_VALUE: mbedtls_x509write_crt_set_validity:not_after <- $r4
	.loc	4 0 0 is_stmt 0                 @ ../../../ThirdParty/mbedTLS/library/x509write_crt.c:0:0
	mov	r7, r5
	adds	r7, #47
	.loc	4 117 14 is_stmt 1              @ ../../../ThirdParty/mbedTLS/library/x509write_crt.c:117:14
	mov	r0, r5
	adds	r0, #33
	movs	r2, #15
	.loc	4 117 5 is_stmt 0               @ ../../../ThirdParty/mbedTLS/library/x509write_crt.c:117:5
	mov	r1, r6
	mov	r6, r2
.Ltmp26:
	bl	strncpy
	.loc	4 118 14 is_stmt 1              @ ../../../ThirdParty/mbedTLS/library/x509write_crt.c:118:14
	adds	r5, #49
.Ltmp27:
	.loc	4 118 5 is_stmt 0               @ ../../../ThirdParty/mbedTLS/library/x509write_crt.c:118:5
	mov	r0, r5
	mov	r1, r4
	mov	r2, r6
	bl	strncpy
	movs	r0, #90
	.loc	4 120 59 is_stmt 1              @ ../../../ThirdParty/mbedTLS/library/x509write_crt.c:120:59
	strb	r0, [r7, #16]
	.loc	4 119 60                        @ ../../../ThirdParty/mbedTLS/library/x509write_crt.c:119:60
	strb	r0, [r7]
	movs	r7, #0
.Ltmp28:
.LBB9_3:
	@DEBUG_VALUE: mbedtls_x509write_crt_set_validity:not_after <- $r4
	.loc	4 123 1                         @ ../../../ThirdParty/mbedTLS/library/x509write_crt.c:123:1
	mov	r0, r7
	add	sp, #4
	pop	{r4, r5, r6, r7, pc}
.Ltmp29:
	.p2align	2
@ %bb.4:
	.loc	4 0 1 is_stmt 0                 @ ../../../ThirdParty/mbedTLS/library/x509write_crt.c:0:1
__arm_cp.9_0:
	.long	4294957056                      @ 0xffffd800
.Lcpi_end0:
	.size	__arm_cp.9_0, .Lcpi_end0-__arm_cp.9_0
.Lfunc_end9:
	.size	mbedtls_x509write_crt_set_validity, .Lfunc_end9-mbedtls_x509write_crt_set_validity
	.cfi_endproc
	.cantunwind
	.fnend
                                        @ -- End function
	.section	.text.mbedtls_x509write_crt_set_extension,"ax",%progbits
	.hidden	mbedtls_x509write_crt_set_extension @ -- Begin function mbedtls_x509write_crt_set_extension
	.globl	mbedtls_x509write_crt_set_extension
	.p2align	1
	.type	mbedtls_x509write_crt_set_extension,%function
	.code	16                              @ @mbedtls_x509write_crt_set_extension
	.thumb_func
mbedtls_x509write_crt_set_extension:
.Lfunc_begin10:
	.loc	4 129 0 is_stmt 1               @ ../../../ThirdParty/mbedTLS/library/x509write_crt.c:129:0
	.fnstart
	.cfi_startproc
@ %bb.0:
	@DEBUG_VALUE: mbedtls_x509write_crt_set_extension:ctx <- $r0
	@DEBUG_VALUE: mbedtls_x509write_crt_set_extension:ctx <- $r0
	@DEBUG_VALUE: mbedtls_x509write_crt_set_extension:oid <- $r1
	@DEBUG_VALUE: mbedtls_x509write_crt_set_extension:oid <- $r1
	@DEBUG_VALUE: mbedtls_x509write_crt_set_extension:oid_len <- $r2
	@DEBUG_VALUE: mbedtls_x509write_crt_set_extension:oid_len <- $r2
	@DEBUG_VALUE: mbedtls_x509write_crt_set_extension:critical <- $r3
	@DEBUG_VALUE: mbedtls_x509write_crt_set_extension:critical <- $r3
	.save	{r4, lr}
	push	{r4, lr}
	.cfi_def_cfa_offset 8
	.cfi_offset lr, -4
	.cfi_offset r4, -8
	.pad	#8
	sub	sp, #8
	.cfi_def_cfa_offset 16
.Ltmp30:
	@DEBUG_VALUE: mbedtls_x509write_crt_set_extension:val <- [DW_OP_plus_uconst 16] [$sp+0]
	@DEBUG_VALUE: mbedtls_x509write_crt_set_extension:val_len <- [DW_OP_plus_uconst 20] [$sp+0]
	ldr	r4, [sp, #20]
.Ltmp31:
	.loc	4 130 12 prologue_end           @ ../../../ThirdParty/mbedTLS/library/x509write_crt.c:130:12
	str	r4, [sp, #4]
	ldr	r4, [sp, #16]
	str	r4, [sp]
	.loc	4 130 46 is_stmt 0              @ ../../../ThirdParty/mbedTLS/library/x509write_crt.c:130:46
	adds	r0, #68
.Ltmp32:
	@DEBUG_VALUE: mbedtls_x509write_crt_set_extension:ctx <- [DW_OP_LLVM_entry_value 1] $r0
	@DEBUG_VALUE: mbedtls_x509write_crt_set_extension:critical <- $r3
	@DEBUG_VALUE: mbedtls_x509write_crt_set_extension:oid_len <- $r2
	@DEBUG_VALUE: mbedtls_x509write_crt_set_extension:oid <- $r1
	.loc	4 130 12                        @ ../../../ThirdParty/mbedTLS/library/x509write_crt.c:130:12
	bl	mbedtls_x509_set_extension
.Ltmp33:
	@DEBUG_VALUE: mbedtls_x509write_crt_set_extension:critical <- [DW_OP_LLVM_entry_value 1] $r3
	@DEBUG_VALUE: mbedtls_x509write_crt_set_extension:oid_len <- [DW_OP_LLVM_entry_value 1] $r2
	@DEBUG_VALUE: mbedtls_x509write_crt_set_extension:oid <- [DW_OP_LLVM_entry_value 1] $r1
	.loc	4 130 5                         @ ../../../ThirdParty/mbedTLS/library/x509write_crt.c:130:5
	add	sp, #8
.Ltmp34:
	pop	{r4, pc}
.Ltmp35:
.Lfunc_end10:
	.size	mbedtls_x509write_crt_set_extension, .Lfunc_end10-mbedtls_x509write_crt_set_extension
	.cfi_endproc
	.cantunwind
	.fnend
                                        @ -- End function
	.section	.text.mbedtls_x509write_crt_set_basic_constraints,"ax",%progbits
	.hidden	mbedtls_x509write_crt_set_basic_constraints @ -- Begin function mbedtls_x509write_crt_set_basic_constraints
	.globl	mbedtls_x509write_crt_set_basic_constraints
	.p2align	2
	.type	mbedtls_x509write_crt_set_basic_constraints,%function
	.code	16                              @ @mbedtls_x509write_crt_set_basic_constraints
	.thumb_func
mbedtls_x509write_crt_set_basic_constraints:
.Lfunc_begin11:
	.loc	4 136 0 is_stmt 1               @ ../../../ThirdParty/mbedTLS/library/x509write_crt.c:136:0
	.fnstart
	.cfi_startproc
@ %bb.0:
	@DEBUG_VALUE: mbedtls_x509write_crt_set_basic_constraints:ctx <- $r0
	@DEBUG_VALUE: mbedtls_x509write_crt_set_basic_constraints:is_ca <- $r1
	@DEBUG_VALUE: mbedtls_x509write_crt_set_basic_constraints:max_pathlen <- $r2
	.save	{r4, r5, r6, r7, lr}
	push	{r4, r5, r6, r7, lr}
	.cfi_def_cfa_offset 20
	.cfi_offset lr, -4
	.cfi_offset r7, -8
	.cfi_offset r6, -12
	.cfi_offset r5, -16
	.cfi_offset r4, -20
	.pad	#28
	sub	sp, #28
	.cfi_def_cfa_offset 48
	mov	r4, r0
	add	r7, sp, #16
	movs	r6, #0
.Ltmp36:
	@DEBUG_VALUE: mbedtls_x509write_crt_set_basic_constraints:len <- 0
	@DEBUG_VALUE: mbedtls_x509write_crt_set_basic_constraints:max_pathlen <- $r2
	@DEBUG_VALUE: mbedtls_x509write_crt_set_basic_constraints:is_ca <- $r1
	@DEBUG_VALUE: mbedtls_x509write_crt_set_basic_constraints:ctx <- $r4
	.loc	4 142 5 prologue_end            @ ../../../ThirdParty/mbedTLS/library/x509write_crt.c:142:5
	strb	r6, [r7, #8]
	str	r6, [sp, #16]
	str	r6, [sp, #20]
	.loc	4 139 28                        @ ../../../ThirdParty/mbedTLS/library/x509write_crt.c:139:28
	adds	r7, #9
.Ltmp37:
	@DEBUG_VALUE: mbedtls_x509write_crt_set_basic_constraints:c <- $r7
	.loc	4 139 20 is_stmt 0              @ ../../../ThirdParty/mbedTLS/library/x509write_crt.c:139:20
	str	r7, [sp, #12]
.Ltmp38:
	.loc	4 144 15 is_stmt 1              @ ../../../ThirdParty/mbedTLS/library/x509write_crt.c:144:15
	cbz	r1, .LBB11_3
.Ltmp39:
@ %bb.1:
	@DEBUG_VALUE: mbedtls_x509write_crt_set_basic_constraints:c <- $r7
	@DEBUG_VALUE: mbedtls_x509write_crt_set_basic_constraints:ctx <- $r4
	@DEBUG_VALUE: mbedtls_x509write_crt_set_basic_constraints:max_pathlen <- $r2
	@DEBUG_VALUE: mbedtls_x509write_crt_set_basic_constraints:is_ca <- $r1
	@DEBUG_VALUE: mbedtls_x509write_crt_set_basic_constraints:len <- 0
	cmp	r2, #127
	ble	.LBB11_3
.Ltmp40:
@ %bb.2:
	@DEBUG_VALUE: mbedtls_x509write_crt_set_basic_constraints:c <- $r7
	@DEBUG_VALUE: mbedtls_x509write_crt_set_basic_constraints:ctx <- $r4
	@DEBUG_VALUE: mbedtls_x509write_crt_set_basic_constraints:max_pathlen <- $r2
	@DEBUG_VALUE: mbedtls_x509write_crt_set_basic_constraints:is_ca <- $r1
	@DEBUG_VALUE: mbedtls_x509write_crt_set_basic_constraints:len <- 0
	.loc	4 0 15 is_stmt 0                @ ../../../ThirdParty/mbedTLS/library/x509write_crt.c:0:15
	ldr	r5, __arm_cp.11_0
	b	.LBB11_14
.Ltmp41:
.LBB11_3:
	@DEBUG_VALUE: mbedtls_x509write_crt_set_basic_constraints:c <- $r7
	@DEBUG_VALUE: mbedtls_x509write_crt_set_basic_constraints:ctx <- $r4
	@DEBUG_VALUE: mbedtls_x509write_crt_set_basic_constraints:max_pathlen <- $r2
	@DEBUG_VALUE: mbedtls_x509write_crt_set_basic_constraints:is_ca <- $r1
	@DEBUG_VALUE: mbedtls_x509write_crt_set_basic_constraints:len <- 0
	.loc	4 147 9 is_stmt 1               @ ../../../ThirdParty/mbedTLS/library/x509write_crt.c:147:9
	cbz	r1, .LBB11_9
.Ltmp42:
@ %bb.4:
	@DEBUG_VALUE: mbedtls_x509write_crt_set_basic_constraints:c <- $r7
	@DEBUG_VALUE: mbedtls_x509write_crt_set_basic_constraints:ctx <- $r4
	@DEBUG_VALUE: mbedtls_x509write_crt_set_basic_constraints:max_pathlen <- $r2
	@DEBUG_VALUE: mbedtls_x509write_crt_set_basic_constraints:is_ca <- $r1
	@DEBUG_VALUE: mbedtls_x509write_crt_set_basic_constraints:len <- 0
	.loc	4 149 13                        @ ../../../ThirdParty/mbedTLS/library/x509write_crt.c:149:13
	cmp	r2, #0
	bmi	.LBB11_6
.Ltmp43:
@ %bb.5:
	@DEBUG_VALUE: mbedtls_x509write_crt_set_basic_constraints:c <- $r7
	@DEBUG_VALUE: mbedtls_x509write_crt_set_basic_constraints:ctx <- $r4
	@DEBUG_VALUE: mbedtls_x509write_crt_set_basic_constraints:max_pathlen <- $r2
	@DEBUG_VALUE: mbedtls_x509write_crt_set_basic_constraints:is_ca <- $r1
	@DEBUG_VALUE: mbedtls_x509write_crt_set_basic_constraints:len <- 0
	@DEBUG_VALUE: mbedtls_x509write_crt_set_basic_constraints:c <- [DW_OP_plus_uconst 12, DW_OP_deref] $sp
	.loc	4 0 13 is_stmt 0                @ ../../../ThirdParty/mbedTLS/library/x509write_crt.c:0:13
	add	r0, sp, #12
	add	r1, sp, #16
.Ltmp44:
	@DEBUG_VALUE: mbedtls_x509write_crt_set_basic_constraints:is_ca <- [DW_OP_LLVM_entry_value 1] $r1
	.loc	4 151 13 is_stmt 1              @ ../../../ThirdParty/mbedTLS/library/x509write_crt.c:151:13
	bl	mbedtls_asn1_write_int
.Ltmp45:
	@DEBUG_VALUE: mbedtls_x509write_crt_set_basic_constraints:max_pathlen <- [DW_OP_LLVM_entry_value 1] $r2
	mov	r5, r0
.Ltmp46:
	@DEBUG_VALUE: mbedtls_x509write_crt_set_basic_constraints:ret <- $r5
	.loc	4 151 13 is_stmt 0              @ ../../../ThirdParty/mbedTLS/library/x509write_crt.c:151:13
	cmp	r0, #0
	bpl	.LBB11_7
	b	.LBB11_14
.Ltmp47:
.LBB11_6:
	@DEBUG_VALUE: mbedtls_x509write_crt_set_basic_constraints:c <- $r7
	@DEBUG_VALUE: mbedtls_x509write_crt_set_basic_constraints:ctx <- $r4
	@DEBUG_VALUE: mbedtls_x509write_crt_set_basic_constraints:max_pathlen <- $r2
	@DEBUG_VALUE: mbedtls_x509write_crt_set_basic_constraints:is_ca <- $r1
	@DEBUG_VALUE: mbedtls_x509write_crt_set_basic_constraints:len <- 0
	.loc	4 0 13                          @ ../../../ThirdParty/mbedTLS/library/x509write_crt.c:0:13
	movs	r5, #0
.Ltmp48:
.LBB11_7:
	@DEBUG_VALUE: mbedtls_x509write_crt_set_basic_constraints:ctx <- $r4
	@DEBUG_VALUE: mbedtls_x509write_crt_set_basic_constraints:len <- 0
	@DEBUG_VALUE: mbedtls_x509write_crt_set_basic_constraints:len <- $r5
	@DEBUG_VALUE: mbedtls_x509write_crt_set_basic_constraints:c <- [DW_OP_plus_uconst 12, DW_OP_deref] $sp
	add	r0, sp, #12
	add	r1, sp, #16
	movs	r2, #1
.Ltmp49:
	.loc	4 153 9 is_stmt 1               @ ../../../ThirdParty/mbedTLS/library/x509write_crt.c:153:9
	bl	mbedtls_asn1_write_bool
.Ltmp50:
	@DEBUG_VALUE: mbedtls_x509write_crt_set_basic_constraints:ret <- $r0
	.loc	4 153 9 is_stmt 0               @ ../../../ThirdParty/mbedTLS/library/x509write_crt.c:153:9
	cmp	r0, #0
	bmi	.LBB11_12
.Ltmp51:
@ %bb.8:
	@DEBUG_VALUE: mbedtls_x509write_crt_set_basic_constraints:len <- $r5
	@DEBUG_VALUE: mbedtls_x509write_crt_set_basic_constraints:ctx <- $r4
	@DEBUG_VALUE: mbedtls_x509write_crt_set_basic_constraints:ret <- $r0
	@DEBUG_VALUE: mbedtls_x509write_crt_set_basic_constraints:c <- [DW_OP_plus_uconst 12, DW_OP_deref] $sp
	.loc	4 153 9                         @ ../../../ThirdParty/mbedTLS/library/x509write_crt.c:153:9
	adds	r6, r0, r5
.Ltmp52:
	@DEBUG_VALUE: mbedtls_x509write_crt_set_basic_constraints:len <- $r6
.LBB11_9:
	@DEBUG_VALUE: mbedtls_x509write_crt_set_basic_constraints:ctx <- $r4
	@DEBUG_VALUE: mbedtls_x509write_crt_set_basic_constraints:len <- $r6
	@DEBUG_VALUE: mbedtls_x509write_crt_set_basic_constraints:c <- [DW_OP_plus_uconst 12, DW_OP_deref] $sp
	.loc	4 0 9                           @ ../../../ThirdParty/mbedTLS/library/x509write_crt.c:0:9
	add	r0, sp, #12
	add	r1, sp, #16
.Ltmp53:
	.loc	4 156 5 is_stmt 1               @ ../../../ThirdParty/mbedTLS/library/x509write_crt.c:156:5
	mov	r2, r6
	bl	mbedtls_asn1_write_len
	mov	r5, r0
.Ltmp54:
	@DEBUG_VALUE: mbedtls_x509write_crt_set_basic_constraints:ret <- $r5
	.loc	4 156 5 is_stmt 0               @ ../../../ThirdParty/mbedTLS/library/x509write_crt.c:156:5
	cmp	r0, #0
	bmi	.LBB11_14
.Ltmp55:
@ %bb.10:
	@DEBUG_VALUE: mbedtls_x509write_crt_set_basic_constraints:len <- $r6
	@DEBUG_VALUE: mbedtls_x509write_crt_set_basic_constraints:ret <- $r5
	@DEBUG_VALUE: mbedtls_x509write_crt_set_basic_constraints:ctx <- $r4
	@DEBUG_VALUE: mbedtls_x509write_crt_set_basic_constraints:c <- [DW_OP_plus_uconst 12, DW_OP_deref] $sp
	@DEBUG_VALUE: mbedtls_x509write_crt_set_basic_constraints:len <- undef
	@DEBUG_VALUE: mbedtls_x509write_crt_set_basic_constraints:c <- [DW_OP_plus_uconst 12, DW_OP_deref] $sp
	.loc	4 0 5                           @ ../../../ThirdParty/mbedTLS/library/x509write_crt.c:0:5
	add	r0, sp, #12
	add	r1, sp, #16
	movs	r2, #48
.Ltmp56:
	.loc	4 157 5 is_stmt 1               @ ../../../ThirdParty/mbedTLS/library/x509write_crt.c:157:5
	bl	mbedtls_asn1_write_tag
.Ltmp57:
	@DEBUG_VALUE: mbedtls_x509write_crt_set_basic_constraints:ret <- $r0
	.loc	4 157 5 is_stmt 0               @ ../../../ThirdParty/mbedTLS/library/x509write_crt.c:157:5
	cmp	r0, #0
	bmi	.LBB11_13
.Ltmp58:
@ %bb.11:
	@DEBUG_VALUE: mbedtls_x509write_crt_set_basic_constraints:ctx <- $r4
	@DEBUG_VALUE: mbedtls_x509write_crt_set_basic_constraints:ret <- $r0
	@DEBUG_VALUE: mbedtls_x509write_crt_set_basic_constraints:c <- [DW_OP_plus_uconst 12, DW_OP_deref] $sp
	.loc	4 156 5 is_stmt 1               @ ../../../ThirdParty/mbedTLS/library/x509write_crt.c:156:5
	adds	r1, r5, r6
.Ltmp59:
	@DEBUG_VALUE: mbedtls_x509write_crt_set_basic_constraints:len <- $r1
	.loc	4 157 5                         @ ../../../ThirdParty/mbedTLS/library/x509write_crt.c:157:5
	adds	r0, r1, r0
.Ltmp60:
	@DEBUG_VALUE: mbedtls_x509write_crt_set_basic_constraints:len <- $r0
	.loc	4 162 34                        @ ../../../ThirdParty/mbedTLS/library/x509write_crt.c:162:34
	subs	r1, r7, r0
	.loc	4 160 12                        @ ../../../ThirdParty/mbedTLS/library/x509write_crt.c:160:12
	str	r1, [sp]
	str	r0, [sp, #4]
	adr	r1, .LCPI11_1
	movs	r2, #3
	movs	r3, #0
	mov	r0, r4
.Ltmp61:
	bl	mbedtls_x509write_crt_set_extension
	mov	r5, r0
	b	.LBB11_14
.Ltmp62:
.LBB11_12:
	@DEBUG_VALUE: mbedtls_x509write_crt_set_basic_constraints:len <- $r5
	@DEBUG_VALUE: mbedtls_x509write_crt_set_basic_constraints:ctx <- $r4
	@DEBUG_VALUE: mbedtls_x509write_crt_set_basic_constraints:ret <- $r0
	@DEBUG_VALUE: mbedtls_x509write_crt_set_basic_constraints:c <- [DW_OP_plus_uconst 12, DW_OP_deref] $sp
	.loc	4 0 0 is_stmt 0                 @ ../../../ThirdParty/mbedTLS/library/x509write_crt.c:0:0
	mov	r5, r0
.Ltmp63:
	@DEBUG_VALUE: mbedtls_x509write_crt_set_basic_constraints:ret <- $r5
	b	.LBB11_14
.Ltmp64:
.LBB11_13:
	@DEBUG_VALUE: mbedtls_x509write_crt_set_basic_constraints:ctx <- $r4
	@DEBUG_VALUE: mbedtls_x509write_crt_set_basic_constraints:ret <- $r0
	@DEBUG_VALUE: mbedtls_x509write_crt_set_basic_constraints:c <- [DW_OP_plus_uconst 12, DW_OP_deref] $sp
	mov	r5, r0
.Ltmp65:
	@DEBUG_VALUE: mbedtls_x509write_crt_set_basic_constraints:ret <- $r5
.LBB11_14:
	@DEBUG_VALUE: mbedtls_x509write_crt_set_basic_constraints:ctx <- $r4
	.loc	4 163 1 is_stmt 1               @ ../../../ThirdParty/mbedTLS/library/x509write_crt.c:163:1
	mov	r0, r5
	add	sp, #28
	pop	{r4, r5, r6, r7, pc}
.Ltmp66:
	.p2align	2
@ %bb.15:
	.loc	4 0 1 is_stmt 0                 @ ../../../ThirdParty/mbedTLS/library/x509write_crt.c:0:1
__arm_cp.11_0:
	.long	4294957056                      @ 0xffffd800
.Lcpi_end1:
	.size	__arm_cp.11_0, .Lcpi_end1-__arm_cp.11_0
.LCPI11_1:
.L.str:
	.asciz	"U\035\023"
.Lfunc_end11:
	.size	mbedtls_x509write_crt_set_basic_constraints, .Lfunc_end11-mbedtls_x509write_crt_set_basic_constraints
	.cfi_endproc
	.cantunwind
	.fnend
                                        @ -- End function
	.section	.text.mbedtls_x509write_crt_set_subject_key_identifier,"ax",%progbits
	.hidden	mbedtls_x509write_crt_set_subject_key_identifier @ -- Begin function mbedtls_x509write_crt_set_subject_key_identifier
	.globl	mbedtls_x509write_crt_set_subject_key_identifier
	.p2align	2
	.type	mbedtls_x509write_crt_set_subject_key_identifier,%function
	.code	16                              @ @mbedtls_x509write_crt_set_subject_key_identifier
	.thumb_func
mbedtls_x509write_crt_set_subject_key_identifier:
.Lfunc_begin12:
	.loc	4 167 0 is_stmt 1               @ ../../../ThirdParty/mbedTLS/library/x509write_crt.c:167:0
	.fnstart
	.cfi_startproc
@ %bb.0:
	@DEBUG_VALUE: mbedtls_x509write_crt_set_subject_key_identifier:ctx <- $r0
	.save	{r4, r5, r6, r7, lr}
	push	{r4, r5, r6, r7, lr}
	.cfi_def_cfa_offset 20
	.cfi_offset lr, -4
	.cfi_offset r7, -8
	.cfi_offset r6, -12
	.cfi_offset r5, -16
	.cfi_offset r4, -20
	ldr	r7, __arm_cp.12_2
	.pad	#2084
	add	sp, r7
	.cfi_def_cfa_offset 2104
	mov	r4, r0
	movw	r6, #2048
	add	r5, sp, #16
.Ltmp67:
	@DEBUG_VALUE: mbedtls_x509write_crt_set_subject_key_identifier:ctx <- $r4
	.loc	4 170 28 prologue_end           @ ../../../ThirdParty/mbedTLS/library/x509write_crt.c:170:28
	adds	r7, r5, r6
	adds	r7, #20
.Ltmp68:
	@DEBUG_VALUE: mbedtls_x509write_crt_set_subject_key_identifier:c <- $r7
	.loc	4 170 20 is_stmt 0              @ ../../../ThirdParty/mbedTLS/library/x509write_crt.c:170:20
	str	r7, [sp, #12]
.Ltmp69:
	@DEBUG_VALUE: mbedtls_x509write_crt_set_subject_key_identifier:len <- 0
	.loc	4 0 20                          @ ../../../ThirdParty/mbedTLS/library/x509write_crt.c:0:20
	ldr	r1, __arm_cp.12_0
	.loc	4 173 5 is_stmt 1               @ ../../../ThirdParty/mbedTLS/library/x509write_crt.c:173:5
	mov	r0, r5
	bl	__aeabi_memclr4
.Ltmp70:
	.loc	4 174 5                         @ ../../../ThirdParty/mbedTLS/library/x509write_crt.c:174:5
	ldr	r2, [r4, #16]
.Ltmp71:
	@DEBUG_VALUE: mbedtls_x509write_crt_set_subject_key_identifier:c <- [DW_OP_plus_uconst 12, DW_OP_deref] $sp
	.loc	4 0 5 is_stmt 0                 @ ../../../ThirdParty/mbedTLS/library/x509write_crt.c:0:5
	add	r0, sp, #12
	.loc	4 174 5                         @ ../../../ThirdParty/mbedTLS/library/x509write_crt.c:174:5
	mov	r1, r5
	bl	mbedtls_pk_write_pubkey
	mov	r5, r0
.Ltmp72:
	@DEBUG_VALUE: mbedtls_x509write_crt_set_subject_key_identifier:ret <- $r5
	.loc	4 174 5                         @ ../../../ThirdParty/mbedTLS/library/x509write_crt.c:174:5
	cmp	r0, #0
	bmi	.LBB12_2
.Ltmp73:
@ %bb.1:
	@DEBUG_VALUE: mbedtls_x509write_crt_set_subject_key_identifier:ret <- $r5
	@DEBUG_VALUE: mbedtls_x509write_crt_set_subject_key_identifier:ctx <- $r4
	@DEBUG_VALUE: mbedtls_x509write_crt_set_subject_key_identifier:c <- [DW_OP_plus_uconst 12, DW_OP_deref] $sp
	@DEBUG_VALUE: mbedtls_x509write_crt_set_subject_key_identifier:len <- 0
	@DEBUG_VALUE: mbedtls_x509write_crt_set_subject_key_identifier:len <- $r5
	.loc	4 176 49 is_stmt 1              @ ../../../ThirdParty/mbedTLS/library/x509write_crt.c:176:49
	subs	r0, r7, r5
	add	r1, sp, #16
	.loc	4 177 49                        @ ../../../ThirdParty/mbedTLS/library/x509write_crt.c:177:49
	adds	r6, r1, r6
	.loc	4 176 11                        @ ../../../ThirdParty/mbedTLS/library/x509write_crt.c:176:11
	mov	r1, r5
	mov	r2, r6
	bl	mbedtls_sha1_ret
	mov	r5, r0
.Ltmp74:
	@DEBUG_VALUE: mbedtls_x509write_crt_set_subject_key_identifier:ret <- $r5
	.loc	4 178 9                         @ ../../../ThirdParty/mbedTLS/library/x509write_crt.c:178:9
	cbz	r0, .LBB12_3
.Ltmp75:
.LBB12_2:
	@DEBUG_VALUE: mbedtls_x509write_crt_set_subject_key_identifier:ctx <- $r4
	@DEBUG_VALUE: mbedtls_x509write_crt_set_subject_key_identifier:c <- [DW_OP_plus_uconst 12, DW_OP_deref] $sp
	.loc	4 189 1                         @ ../../../ThirdParty/mbedTLS/library/x509write_crt.c:189:1
	mov	r0, r5
	ldr	r7, __arm_cp.12_3
	add	sp, r7
.Ltmp76:
	pop	{r4, r5, r6, r7, pc}
.Ltmp77:
.LBB12_3:
	@DEBUG_VALUE: mbedtls_x509write_crt_set_subject_key_identifier:ret <- $r5
	@DEBUG_VALUE: mbedtls_x509write_crt_set_subject_key_identifier:ctx <- $r4
	@DEBUG_VALUE: mbedtls_x509write_crt_set_subject_key_identifier:c <- [DW_OP_plus_uconst 12, DW_OP_deref] $sp
	@DEBUG_VALUE: mbedtls_x509write_crt_set_subject_key_identifier:c <- $r6
	.loc	4 180 7                         @ ../../../ThirdParty/mbedTLS/library/x509write_crt.c:180:7
	str	r6, [sp, #12]
.Ltmp78:
	@DEBUG_VALUE: mbedtls_x509write_crt_set_subject_key_identifier:len <- 20
	@DEBUG_VALUE: mbedtls_x509write_crt_set_subject_key_identifier:c <- [DW_OP_plus_uconst 12, DW_OP_deref] $sp
	.loc	4 0 7 is_stmt 0                 @ ../../../ThirdParty/mbedTLS/library/x509write_crt.c:0:7
	add	r0, sp, #12
	add	r1, sp, #16
	movs	r2, #20
.Ltmp79:
	.loc	4 183 5 is_stmt 1               @ ../../../ThirdParty/mbedTLS/library/x509write_crt.c:183:5
	bl	mbedtls_asn1_write_len
	mov	r5, r0
.Ltmp80:
	@DEBUG_VALUE: mbedtls_x509write_crt_set_subject_key_identifier:ret <- $r5
	.loc	4 183 5 is_stmt 0               @ ../../../ThirdParty/mbedTLS/library/x509write_crt.c:183:5
	cmp	r0, #0
	bmi	.LBB12_2
.Ltmp81:
@ %bb.4:
	@DEBUG_VALUE: mbedtls_x509write_crt_set_subject_key_identifier:ret <- $r5
	@DEBUG_VALUE: mbedtls_x509write_crt_set_subject_key_identifier:ctx <- $r4
	@DEBUG_VALUE: mbedtls_x509write_crt_set_subject_key_identifier:c <- [DW_OP_plus_uconst 12, DW_OP_deref] $sp
	@DEBUG_VALUE: mbedtls_x509write_crt_set_subject_key_identifier:len <- 20
	@DEBUG_VALUE: mbedtls_x509write_crt_set_subject_key_identifier:c <- [DW_OP_plus_uconst 12, DW_OP_deref] $sp
	@DEBUG_VALUE: mbedtls_x509write_crt_set_subject_key_identifier:len <- undef
	.loc	4 0 5                           @ ../../../ThirdParty/mbedTLS/library/x509write_crt.c:0:5
	add	r0, sp, #12
	add	r1, sp, #16
	movs	r2, #4
.Ltmp82:
	.loc	4 184 5 is_stmt 1               @ ../../../ThirdParty/mbedTLS/library/x509write_crt.c:184:5
	bl	mbedtls_asn1_write_tag
.Ltmp83:
	@DEBUG_VALUE: mbedtls_x509write_crt_set_subject_key_identifier:ret <- $r0
	.loc	4 184 5 is_stmt 0               @ ../../../ThirdParty/mbedTLS/library/x509write_crt.c:184:5
	cmp	r0, #0
	bmi	.LBB12_6
.Ltmp84:
@ %bb.5:
	@DEBUG_VALUE: mbedtls_x509write_crt_set_subject_key_identifier:ctx <- $r4
	@DEBUG_VALUE: mbedtls_x509write_crt_set_subject_key_identifier:ret <- $r0
	@DEBUG_VALUE: mbedtls_x509write_crt_set_subject_key_identifier:c <- [DW_OP_plus_uconst 12, DW_OP_deref] $sp
	.loc	4 183 5 is_stmt 1               @ ../../../ThirdParty/mbedTLS/library/x509write_crt.c:183:5
	adds	r0, r5, r0
.Ltmp85:
	@DEBUG_VALUE: mbedtls_x509write_crt_set_subject_key_identifier:len <- undef
	.loc	4 184 5                         @ ../../../ThirdParty/mbedTLS/library/x509write_crt.c:184:5
	adds	r0, #20
.Ltmp86:
	@DEBUG_VALUE: mbedtls_x509write_crt_set_subject_key_identifier:len <- $r0
	.loc	4 188 34                        @ ../../../ThirdParty/mbedTLS/library/x509write_crt.c:188:34
	subs	r1, r7, r0
	.loc	4 186 12                        @ ../../../ThirdParty/mbedTLS/library/x509write_crt.c:186:12
	str	r1, [sp]
	str	r0, [sp, #4]
	adr	r1, .LCPI12_1
	movs	r2, #3
	movs	r3, #0
	mov	r0, r4
.Ltmp87:
	bl	mbedtls_x509write_crt_set_extension
	mov	r5, r0
	b	.LBB12_2
.Ltmp88:
.LBB12_6:
	@DEBUG_VALUE: mbedtls_x509write_crt_set_subject_key_identifier:ctx <- $r4
	@DEBUG_VALUE: mbedtls_x509write_crt_set_subject_key_identifier:ret <- $r0
	@DEBUG_VALUE: mbedtls_x509write_crt_set_subject_key_identifier:c <- [DW_OP_plus_uconst 12, DW_OP_deref] $sp
	.loc	4 0 0 is_stmt 0                 @ ../../../ThirdParty/mbedTLS/library/x509write_crt.c:0:0
	mov	r5, r0
.Ltmp89:
	@DEBUG_VALUE: mbedtls_x509write_crt_set_subject_key_identifier:ret <- $r5
	b	.LBB12_2
.Ltmp90:
	.p2align	2
@ %bb.7:
__arm_cp.12_0:
	.long	2068                            @ 0x814
.Lcpi_end2:
	.size	__arm_cp.12_0, .Lcpi_end2-__arm_cp.12_0
.LCPI12_1:
.L.str.1:
	.asciz	"U\035\016"
__arm_cp.12_2:
	.long	4294965212                      @ 0xfffff7dc
.Lcpi_end3:
	.size	__arm_cp.12_2, .Lcpi_end3-__arm_cp.12_2
__arm_cp.12_3:
	.long	2084                            @ 0x824
.Lcpi_end4:
	.size	__arm_cp.12_3, .Lcpi_end4-__arm_cp.12_3
.Lfunc_end12:
	.size	mbedtls_x509write_crt_set_subject_key_identifier, .Lfunc_end12-mbedtls_x509write_crt_set_subject_key_identifier
	.cfi_endproc
	.cantunwind
	.fnend
                                        @ -- End function
	.section	.text.mbedtls_x509write_crt_set_authority_key_identifier,"ax",%progbits
	.hidden	mbedtls_x509write_crt_set_authority_key_identifier @ -- Begin function mbedtls_x509write_crt_set_authority_key_identifier
	.globl	mbedtls_x509write_crt_set_authority_key_identifier
	.p2align	2
	.type	mbedtls_x509write_crt_set_authority_key_identifier,%function
	.code	16                              @ @mbedtls_x509write_crt_set_authority_key_identifier
	.thumb_func
mbedtls_x509write_crt_set_authority_key_identifier:
.Lfunc_begin13:
	.loc	4 192 0 is_stmt 1               @ ../../../ThirdParty/mbedTLS/library/x509write_crt.c:192:0
	.fnstart
	.cfi_startproc
@ %bb.0:
	@DEBUG_VALUE: mbedtls_x509write_crt_set_authority_key_identifier:ctx <- $r0
	.save	{r4, r5, r6, r7, lr}
	push	{r4, r5, r6, r7, lr}
	.cfi_def_cfa_offset 20
	.cfi_offset lr, -4
	.cfi_offset r7, -8
	.cfi_offset r6, -12
	.cfi_offset r5, -16
	.cfi_offset r4, -20
	ldr	r7, __arm_cp.13_2
	.pad	#2084
	add	sp, r7
	.cfi_def_cfa_offset 2104
	mov	r4, r0
	movw	r6, #2048
	add	r5, sp, #16
.Ltmp91:
	@DEBUG_VALUE: mbedtls_x509write_crt_set_authority_key_identifier:ctx <- $r4
	.loc	4 195 28 prologue_end           @ ../../../ThirdParty/mbedTLS/library/x509write_crt.c:195:28
	adds	r7, r5, r6
	adds	r7, #20
.Ltmp92:
	@DEBUG_VALUE: mbedtls_x509write_crt_set_authority_key_identifier:c <- $r7
	.loc	4 195 20 is_stmt 0              @ ../../../ThirdParty/mbedTLS/library/x509write_crt.c:195:20
	str	r7, [sp, #12]
.Ltmp93:
	@DEBUG_VALUE: mbedtls_x509write_crt_set_authority_key_identifier:len <- 0
	.loc	4 0 20                          @ ../../../ThirdParty/mbedTLS/library/x509write_crt.c:0:20
	ldr	r1, __arm_cp.13_0
	.loc	4 198 5 is_stmt 1               @ ../../../ThirdParty/mbedTLS/library/x509write_crt.c:198:5
	mov	r0, r5
	bl	__aeabi_memclr4
.Ltmp94:
	.loc	4 199 5                         @ ../../../ThirdParty/mbedTLS/library/x509write_crt.c:199:5
	ldr	r2, [r4, #20]
.Ltmp95:
	@DEBUG_VALUE: mbedtls_x509write_crt_set_authority_key_identifier:c <- [DW_OP_plus_uconst 12, DW_OP_deref] $sp
	.loc	4 0 5 is_stmt 0                 @ ../../../ThirdParty/mbedTLS/library/x509write_crt.c:0:5
	add	r0, sp, #12
	.loc	4 199 5                         @ ../../../ThirdParty/mbedTLS/library/x509write_crt.c:199:5
	mov	r1, r5
	bl	mbedtls_pk_write_pubkey
	mov	r5, r0
.Ltmp96:
	@DEBUG_VALUE: mbedtls_x509write_crt_set_authority_key_identifier:ret <- $r5
	.loc	4 199 5                         @ ../../../ThirdParty/mbedTLS/library/x509write_crt.c:199:5
	cmp	r0, #0
	bmi	.LBB13_2
.Ltmp97:
@ %bb.1:
	@DEBUG_VALUE: mbedtls_x509write_crt_set_authority_key_identifier:ret <- $r5
	@DEBUG_VALUE: mbedtls_x509write_crt_set_authority_key_identifier:ctx <- $r4
	@DEBUG_VALUE: mbedtls_x509write_crt_set_authority_key_identifier:c <- [DW_OP_plus_uconst 12, DW_OP_deref] $sp
	@DEBUG_VALUE: mbedtls_x509write_crt_set_authority_key_identifier:len <- 0
	@DEBUG_VALUE: mbedtls_x509write_crt_set_authority_key_identifier:len <- $r5
	.loc	4 201 49 is_stmt 1              @ ../../../ThirdParty/mbedTLS/library/x509write_crt.c:201:49
	subs	r0, r7, r5
	add	r1, sp, #16
	.loc	4 202 49                        @ ../../../ThirdParty/mbedTLS/library/x509write_crt.c:202:49
	adds	r6, r1, r6
	.loc	4 201 11                        @ ../../../ThirdParty/mbedTLS/library/x509write_crt.c:201:11
	mov	r1, r5
	mov	r2, r6
	bl	mbedtls_sha1_ret
	mov	r5, r0
.Ltmp98:
	@DEBUG_VALUE: mbedtls_x509write_crt_set_authority_key_identifier:ret <- $r5
	.loc	4 203 9                         @ ../../../ThirdParty/mbedTLS/library/x509write_crt.c:203:9
	cbz	r0, .LBB13_3
.Ltmp99:
.LBB13_2:
	@DEBUG_VALUE: mbedtls_x509write_crt_set_authority_key_identifier:ctx <- $r4
	@DEBUG_VALUE: mbedtls_x509write_crt_set_authority_key_identifier:c <- [DW_OP_plus_uconst 12, DW_OP_deref] $sp
	.loc	4 218 1                         @ ../../../ThirdParty/mbedTLS/library/x509write_crt.c:218:1
	mov	r0, r5
	ldr	r7, __arm_cp.13_3
	add	sp, r7
.Ltmp100:
	pop	{r4, r5, r6, r7, pc}
.Ltmp101:
.LBB13_3:
	@DEBUG_VALUE: mbedtls_x509write_crt_set_authority_key_identifier:ret <- $r5
	@DEBUG_VALUE: mbedtls_x509write_crt_set_authority_key_identifier:ctx <- $r4
	@DEBUG_VALUE: mbedtls_x509write_crt_set_authority_key_identifier:c <- [DW_OP_plus_uconst 12, DW_OP_deref] $sp
	@DEBUG_VALUE: mbedtls_x509write_crt_set_authority_key_identifier:c <- $r6
	.loc	4 205 7                         @ ../../../ThirdParty/mbedTLS/library/x509write_crt.c:205:7
	str	r6, [sp, #12]
.Ltmp102:
	@DEBUG_VALUE: mbedtls_x509write_crt_set_authority_key_identifier:len <- 20
	@DEBUG_VALUE: mbedtls_x509write_crt_set_authority_key_identifier:c <- [DW_OP_plus_uconst 12, DW_OP_deref] $sp
	.loc	4 0 7 is_stmt 0                 @ ../../../ThirdParty/mbedTLS/library/x509write_crt.c:0:7
	add	r0, sp, #12
	add	r1, sp, #16
	movs	r2, #20
.Ltmp103:
	.loc	4 208 5 is_stmt 1               @ ../../../ThirdParty/mbedTLS/library/x509write_crt.c:208:5
	bl	mbedtls_asn1_write_len
	mov	r5, r0
.Ltmp104:
	@DEBUG_VALUE: mbedtls_x509write_crt_set_authority_key_identifier:ret <- $r5
	.loc	4 208 5 is_stmt 0               @ ../../../ThirdParty/mbedTLS/library/x509write_crt.c:208:5
	cmp	r0, #0
	bmi	.LBB13_2
.Ltmp105:
@ %bb.4:
	@DEBUG_VALUE: mbedtls_x509write_crt_set_authority_key_identifier:ret <- $r5
	@DEBUG_VALUE: mbedtls_x509write_crt_set_authority_key_identifier:ctx <- $r4
	@DEBUG_VALUE: mbedtls_x509write_crt_set_authority_key_identifier:c <- [DW_OP_plus_uconst 12, DW_OP_deref] $sp
	@DEBUG_VALUE: mbedtls_x509write_crt_set_authority_key_identifier:len <- 20
	@DEBUG_VALUE: mbedtls_x509write_crt_set_authority_key_identifier:c <- [DW_OP_plus_uconst 12, DW_OP_deref] $sp
	@DEBUG_VALUE: mbedtls_x509write_crt_set_authority_key_identifier:len <- undef
	.loc	4 0 5                           @ ../../../ThirdParty/mbedTLS/library/x509write_crt.c:0:5
	add	r0, sp, #12
	add	r1, sp, #16
	movs	r2, #128
.Ltmp106:
	.loc	4 209 5 is_stmt 1               @ ../../../ThirdParty/mbedTLS/library/x509write_crt.c:209:5
	bl	mbedtls_asn1_write_tag
.Ltmp107:
	@DEBUG_VALUE: mbedtls_x509write_crt_set_authority_key_identifier:ret <- $r0
	.loc	4 209 5 is_stmt 0               @ ../../../ThirdParty/mbedTLS/library/x509write_crt.c:209:5
	cmp	r0, #0
	bmi	.LBB13_8
.Ltmp108:
@ %bb.5:
	@DEBUG_VALUE: mbedtls_x509write_crt_set_authority_key_identifier:ctx <- $r4
	@DEBUG_VALUE: mbedtls_x509write_crt_set_authority_key_identifier:ret <- $r0
	@DEBUG_VALUE: mbedtls_x509write_crt_set_authority_key_identifier:c <- [DW_OP_plus_uconst 12, DW_OP_deref] $sp
	.loc	4 208 5 is_stmt 1               @ ../../../ThirdParty/mbedTLS/library/x509write_crt.c:208:5
	adds	r6, r5, r0
.Ltmp109:
	@DEBUG_VALUE: mbedtls_x509write_crt_set_authority_key_identifier:len <- undef
	.loc	4 209 5                         @ ../../../ThirdParty/mbedTLS/library/x509write_crt.c:209:5
	adds	r6, #20
.Ltmp110:
	@DEBUG_VALUE: mbedtls_x509write_crt_set_authority_key_identifier:len <- $r6
	@DEBUG_VALUE: mbedtls_x509write_crt_set_authority_key_identifier:c <- [DW_OP_plus_uconst 12, DW_OP_deref] $sp
	.loc	4 0 5 is_stmt 0                 @ ../../../ThirdParty/mbedTLS/library/x509write_crt.c:0:5
	add	r0, sp, #12
.Ltmp111:
	add	r1, sp, #16
.Ltmp112:
	.loc	4 211 5 is_stmt 1               @ ../../../ThirdParty/mbedTLS/library/x509write_crt.c:211:5
	mov	r2, r6
	bl	mbedtls_asn1_write_len
	mov	r5, r0
.Ltmp113:
	@DEBUG_VALUE: mbedtls_x509write_crt_set_authority_key_identifier:ret <- $r5
	.loc	4 211 5 is_stmt 0               @ ../../../ThirdParty/mbedTLS/library/x509write_crt.c:211:5
	cmp	r0, #0
	bmi	.LBB13_2
.Ltmp114:
@ %bb.6:
	@DEBUG_VALUE: mbedtls_x509write_crt_set_authority_key_identifier:len <- $r6
	@DEBUG_VALUE: mbedtls_x509write_crt_set_authority_key_identifier:ret <- $r5
	@DEBUG_VALUE: mbedtls_x509write_crt_set_authority_key_identifier:ctx <- $r4
	@DEBUG_VALUE: mbedtls_x509write_crt_set_authority_key_identifier:c <- [DW_OP_plus_uconst 12, DW_OP_deref] $sp
	@DEBUG_VALUE: mbedtls_x509write_crt_set_authority_key_identifier:c <- [DW_OP_plus_uconst 12, DW_OP_deref] $sp
	@DEBUG_VALUE: mbedtls_x509write_crt_set_authority_key_identifier:len <- undef
	.loc	4 0 5                           @ ../../../ThirdParty/mbedTLS/library/x509write_crt.c:0:5
	add	r0, sp, #12
	add	r1, sp, #16
	movs	r2, #48
.Ltmp115:
	.loc	4 212 5 is_stmt 1               @ ../../../ThirdParty/mbedTLS/library/x509write_crt.c:212:5
	bl	mbedtls_asn1_write_tag
.Ltmp116:
	@DEBUG_VALUE: mbedtls_x509write_crt_set_authority_key_identifier:ret <- $r0
	.loc	4 212 5 is_stmt 0               @ ../../../ThirdParty/mbedTLS/library/x509write_crt.c:212:5
	cmp	r0, #0
	bmi	.LBB13_9
.Ltmp117:
@ %bb.7:
	@DEBUG_VALUE: mbedtls_x509write_crt_set_authority_key_identifier:ctx <- $r4
	@DEBUG_VALUE: mbedtls_x509write_crt_set_authority_key_identifier:ret <- $r0
	@DEBUG_VALUE: mbedtls_x509write_crt_set_authority_key_identifier:c <- [DW_OP_plus_uconst 12, DW_OP_deref] $sp
	.loc	4 211 5 is_stmt 1               @ ../../../ThirdParty/mbedTLS/library/x509write_crt.c:211:5
	adds	r1, r5, r6
.Ltmp118:
	@DEBUG_VALUE: mbedtls_x509write_crt_set_authority_key_identifier:len <- $r1
	.loc	4 212 5                         @ ../../../ThirdParty/mbedTLS/library/x509write_crt.c:212:5
	adds	r0, r1, r0
.Ltmp119:
	@DEBUG_VALUE: mbedtls_x509write_crt_set_authority_key_identifier:len <- $r0
	.loc	4 217 36                        @ ../../../ThirdParty/mbedTLS/library/x509write_crt.c:217:36
	subs	r1, r7, r0
	.loc	4 215 12                        @ ../../../ThirdParty/mbedTLS/library/x509write_crt.c:215:12
	str	r1, [sp]
	str	r0, [sp, #4]
	adr	r1, .LCPI13_1
	movs	r2, #3
	movs	r3, #0
	mov	r0, r4
.Ltmp120:
	bl	mbedtls_x509write_crt_set_extension
	mov	r5, r0
	b	.LBB13_2
.Ltmp121:
.LBB13_8:
	@DEBUG_VALUE: mbedtls_x509write_crt_set_authority_key_identifier:ctx <- $r4
	@DEBUG_VALUE: mbedtls_x509write_crt_set_authority_key_identifier:ret <- $r0
	@DEBUG_VALUE: mbedtls_x509write_crt_set_authority_key_identifier:c <- [DW_OP_plus_uconst 12, DW_OP_deref] $sp
	.loc	4 0 0 is_stmt 0                 @ ../../../ThirdParty/mbedTLS/library/x509write_crt.c:0:0
	mov	r5, r0
.Ltmp122:
	@DEBUG_VALUE: mbedtls_x509write_crt_set_authority_key_identifier:ret <- $r5
	b	.LBB13_2
.Ltmp123:
.LBB13_9:
	@DEBUG_VALUE: mbedtls_x509write_crt_set_authority_key_identifier:ctx <- $r4
	@DEBUG_VALUE: mbedtls_x509write_crt_set_authority_key_identifier:ret <- $r0
	@DEBUG_VALUE: mbedtls_x509write_crt_set_authority_key_identifier:c <- [DW_OP_plus_uconst 12, DW_OP_deref] $sp
	mov	r5, r0
.Ltmp124:
	@DEBUG_VALUE: mbedtls_x509write_crt_set_authority_key_identifier:ret <- $r5
	b	.LBB13_2
.Ltmp125:
	.p2align	2
@ %bb.10:
__arm_cp.13_0:
	.long	2068                            @ 0x814
.Lcpi_end5:
	.size	__arm_cp.13_0, .Lcpi_end5-__arm_cp.13_0
.LCPI13_1:
.L.str.2:
	.asciz	"U\035#"
__arm_cp.13_2:
	.long	4294965212                      @ 0xfffff7dc
.Lcpi_end6:
	.size	__arm_cp.13_2, .Lcpi_end6-__arm_cp.13_2
__arm_cp.13_3:
	.long	2084                            @ 0x824
.Lcpi_end7:
	.size	__arm_cp.13_3, .Lcpi_end7-__arm_cp.13_3
.Lfunc_end13:
	.size	mbedtls_x509write_crt_set_authority_key_identifier, .Lfunc_end13-mbedtls_x509write_crt_set_authority_key_identifier
	.cfi_endproc
	.cantunwind
	.fnend
                                        @ -- End function
	.section	.text.mbedtls_x509write_crt_set_key_usage,"ax",%progbits
	.hidden	mbedtls_x509write_crt_set_key_usage @ -- Begin function mbedtls_x509write_crt_set_key_usage
	.globl	mbedtls_x509write_crt_set_key_usage
	.p2align	2
	.type	mbedtls_x509write_crt_set_key_usage,%function
	.code	16                              @ @mbedtls_x509write_crt_set_key_usage
	.thumb_func
mbedtls_x509write_crt_set_key_usage:
.Lfunc_begin14:
	.loc	4 223 0 is_stmt 1               @ ../../../ThirdParty/mbedTLS/library/x509write_crt.c:223:0
	.fnstart
	.cfi_startproc
@ %bb.0:
	@DEBUG_VALUE: mbedtls_x509write_crt_set_key_usage:ctx <- $r0
	@DEBUG_VALUE: mbedtls_x509write_crt_set_key_usage:key_usage <- $r1
	.save	{r4, lr}
	push	{r4, lr}
	.cfi_def_cfa_offset 8
	.cfi_offset lr, -4
	.cfi_offset r4, -8
	.pad	#24
	sub	sp, #24
	.cfi_def_cfa_offset 32
	mov	r4, r0
	ldr	r0, __arm_cp.14_1
.Ltmp126:
	@DEBUG_VALUE: mbedtls_x509write_crt_set_key_usage:ctx <- [DW_OP_LLVM_entry_value 1] $r0
	@DEBUG_VALUE: mbedtls_x509write_crt_set_key_usage:allowed_bits <- 33023
	@DEBUG_VALUE: mbedtls_x509write_crt_set_key_usage:key_usage <- $r1
	@DEBUG_VALUE: mbedtls_x509write_crt_set_key_usage:ctx <- $r4
	.loc	4 238 9 prologue_end            @ ../../../ThirdParty/mbedTLS/library/x509write_crt.c:238:9
	tst	r1, r0
	beq	.LBB14_2
.Ltmp127:
@ %bb.1:
	@DEBUG_VALUE: mbedtls_x509write_crt_set_key_usage:ctx <- $r4
	@DEBUG_VALUE: mbedtls_x509write_crt_set_key_usage:key_usage <- $r1
	@DEBUG_VALUE: mbedtls_x509write_crt_set_key_usage:allowed_bits <- 33023
	.loc	4 0 9 is_stmt 0                 @ ../../../ThirdParty/mbedTLS/library/x509write_crt.c:0:9
	ldr	r0, __arm_cp.14_0
	.loc	4 258 1 is_stmt 1               @ ../../../ThirdParty/mbedTLS/library/x509write_crt.c:258:1
	add	sp, #24
	pop	{r4, pc}
.Ltmp128:
.LBB14_2:
	@DEBUG_VALUE: mbedtls_x509write_crt_set_key_usage:ctx <- $r4
	@DEBUG_VALUE: mbedtls_x509write_crt_set_key_usage:key_usage <- $r1
	@DEBUG_VALUE: mbedtls_x509write_crt_set_key_usage:allowed_bits <- 33023
	.loc	4 0 1 is_stmt 0                 @ ../../../ThirdParty/mbedTLS/library/x509write_crt.c:0:1
	add	r2, sp, #12
	.loc	4 242 11 is_stmt 1              @ ../../../ThirdParty/mbedTLS/library/x509write_crt.c:242:11
	strb	r1, [r2]
	.loc	4 243 40                        @ ../../../ThirdParty/mbedTLS/library/x509write_crt.c:243:40
	lsrs	r0, r1, #8
	.loc	4 243 11 is_stmt 0              @ ../../../ThirdParty/mbedTLS/library/x509write_crt.c:243:11
	strb	r0, [r2, #1]
	add	r1, sp, #16
.Ltmp129:
	@DEBUG_VALUE: mbedtls_x509write_crt_set_key_usage:key_usage <- [DW_OP_LLVM_entry_value 1] $r1
	.loc	4 241 13 is_stmt 1              @ ../../../ThirdParty/mbedTLS/library/x509write_crt.c:241:13
	adds	r0, r1, #5
.Ltmp130:
	@DEBUG_VALUE: mbedtls_x509write_crt_set_key_usage:c <- $r0
	.loc	4 241 7 is_stmt 0               @ ../../../ThirdParty/mbedTLS/library/x509write_crt.c:241:7
	str	r0, [sp, #8]
.Ltmp131:
	@DEBUG_VALUE: mbedtls_x509write_crt_set_key_usage:c <- [DW_OP_plus_uconst 8, DW_OP_deref] $sp
	.loc	4 0 7                           @ ../../../ThirdParty/mbedTLS/library/x509write_crt.c:0:7
	add	r0, sp, #8
	movs	r3, #9
	.loc	4 244 11 is_stmt 1              @ ../../../ThirdParty/mbedTLS/library/x509write_crt.c:244:11
	bl	mbedtls_asn1_write_named_bitstring
.Ltmp132:
	@DEBUG_VALUE: mbedtls_x509write_crt_set_key_usage:ret <- $r0
	.loc	4 246 9                         @ ../../../ThirdParty/mbedTLS/library/x509write_crt.c:246:9
	cmp	r0, #0
	bmi	.LBB14_6
.Ltmp133:
@ %bb.3:
	@DEBUG_VALUE: mbedtls_x509write_crt_set_key_usage:ctx <- $r4
	@DEBUG_VALUE: mbedtls_x509write_crt_set_key_usage:ret <- $r0
	@DEBUG_VALUE: mbedtls_x509write_crt_set_key_usage:c <- [DW_OP_plus_uconst 8, DW_OP_deref] $sp
	@DEBUG_VALUE: mbedtls_x509write_crt_set_key_usage:key_usage <- [DW_OP_LLVM_entry_value 1] $r1
	@DEBUG_VALUE: mbedtls_x509write_crt_set_key_usage:allowed_bits <- 33023
	.loc	4 248 22                        @ ../../../ThirdParty/mbedTLS/library/x509write_crt.c:248:22
	subs	r1, r0, #3
	cmp	r1, #2
	bls	.LBB14_5
.Ltmp134:
@ %bb.4:
	@DEBUG_VALUE: mbedtls_x509write_crt_set_key_usage:ctx <- $r4
	@DEBUG_VALUE: mbedtls_x509write_crt_set_key_usage:ret <- $r0
	@DEBUG_VALUE: mbedtls_x509write_crt_set_key_usage:c <- [DW_OP_plus_uconst 8, DW_OP_deref] $sp
	@DEBUG_VALUE: mbedtls_x509write_crt_set_key_usage:key_usage <- [DW_OP_LLVM_entry_value 1] $r1
	@DEBUG_VALUE: mbedtls_x509write_crt_set_key_usage:allowed_bits <- 33023
	.loc	4 0 22 is_stmt 0                @ ../../../ThirdParty/mbedTLS/library/x509write_crt.c:0:22
	ldr	r0, __arm_cp.14_2
.Ltmp135:
	.loc	4 258 1 is_stmt 1               @ ../../../ThirdParty/mbedTLS/library/x509write_crt.c:258:1
	add	sp, #24
.Ltmp136:
	pop	{r4, pc}
.Ltmp137:
.LBB14_5:
	@DEBUG_VALUE: mbedtls_x509write_crt_set_key_usage:ctx <- $r4
	@DEBUG_VALUE: mbedtls_x509write_crt_set_key_usage:ret <- $r0
	@DEBUG_VALUE: mbedtls_x509write_crt_set_key_usage:c <- [DW_OP_plus_uconst 8, DW_OP_deref] $sp
	@DEBUG_VALUE: mbedtls_x509write_crt_set_key_usage:key_usage <- [DW_OP_LLVM_entry_value 1] $r1
	@DEBUG_VALUE: mbedtls_x509write_crt_set_key_usage:allowed_bits <- 33023
	.loc	4 253 16                        @ ../../../ThirdParty/mbedTLS/library/x509write_crt.c:253:16
	ldr	r1, [sp, #8]
.Ltmp138:
	@DEBUG_VALUE: mbedtls_x509write_crt_set_key_usage:c <- $r1
	.loc	4 251 11                        @ ../../../ThirdParty/mbedTLS/library/x509write_crt.c:251:11
	str	r1, [sp]
	str	r0, [sp, #4]
	adr	r1, .LCPI14_3
.Ltmp139:
	.loc	4 0 11 is_stmt 0                @ ../../../ThirdParty/mbedTLS/library/x509write_crt.c:0:11
	movs	r2, #3
	movs	r3, #1
	.loc	4 251 11                        @ ../../../ThirdParty/mbedTLS/library/x509write_crt.c:251:11
	mov	r0, r4
.Ltmp140:
	bl	mbedtls_x509write_crt_set_extension
.Ltmp141:
	@DEBUG_VALUE: mbedtls_x509write_crt_set_key_usage:ret <- $r0
.LBB14_6:
	@DEBUG_VALUE: mbedtls_x509write_crt_set_key_usage:ctx <- $r4
	@DEBUG_VALUE: mbedtls_x509write_crt_set_key_usage:ret <- $r0
	@DEBUG_VALUE: mbedtls_x509write_crt_set_key_usage:key_usage <- [DW_OP_LLVM_entry_value 1] $r1
	@DEBUG_VALUE: mbedtls_x509write_crt_set_key_usage:allowed_bits <- 33023
	.loc	4 258 1 is_stmt 1               @ ../../../ThirdParty/mbedTLS/library/x509write_crt.c:258:1
	add	sp, #24
	pop	{r4, pc}
.Ltmp142:
	.p2align	2
@ %bb.7:
	.loc	4 0 1 is_stmt 0                 @ ../../../ThirdParty/mbedTLS/library/x509write_crt.c:0:1
__arm_cp.14_0:
	.long	4294958976                      @ 0xffffdf80
.Lcpi_end8:
	.size	__arm_cp.14_0, .Lcpi_end8-__arm_cp.14_0
__arm_cp.14_1:
	.long	4294934272                      @ 0xffff7f00
.Lcpi_end9:
	.size	__arm_cp.14_1, .Lcpi_end9-__arm_cp.14_1
__arm_cp.14_2:
	.long	4294958720                      @ 0xffffde80
.Lcpi_end10:
	.size	__arm_cp.14_2, .Lcpi_end10-__arm_cp.14_2
.LCPI14_3:
.L.str.3:
	.asciz	"U\035\017"
.Lfunc_end14:
	.size	mbedtls_x509write_crt_set_key_usage, .Lfunc_end14-mbedtls_x509write_crt_set_key_usage
	.cfi_endproc
	.cantunwind
	.fnend
                                        @ -- End function
	.section	.text.mbedtls_x509write_crt_set_ns_cert_type,"ax",%progbits
	.hidden	mbedtls_x509write_crt_set_ns_cert_type @ -- Begin function mbedtls_x509write_crt_set_ns_cert_type
	.globl	mbedtls_x509write_crt_set_ns_cert_type
	.p2align	2
	.type	mbedtls_x509write_crt_set_ns_cert_type,%function
	.code	16                              @ @mbedtls_x509write_crt_set_ns_cert_type
	.thumb_func
mbedtls_x509write_crt_set_ns_cert_type:
.Lfunc_begin15:
	.loc	4 262 0 is_stmt 1               @ ../../../ThirdParty/mbedTLS/library/x509write_crt.c:262:0
	.fnstart
	.cfi_startproc
@ %bb.0:
	@DEBUG_VALUE: mbedtls_x509write_crt_set_ns_cert_type:ctx <- $r0
	@DEBUG_VALUE: mbedtls_x509write_crt_set_ns_cert_type:ns_cert_type <- $r1
	@DEBUG_VALUE: mbedtls_x509write_crt_set_ns_cert_type:ns_cert_type <- $r1
	.save	{r4, lr}
	push	{r4, lr}
	.cfi_def_cfa_offset 8
	.cfi_offset lr, -4
	.cfi_offset r4, -8
	.pad	#24
	sub	sp, #24
	.cfi_def_cfa_offset 32
	mov	r4, r0
	add	r2, sp, #20
	strb	r1, [r2]
	add	r1, sp, #16
.Ltmp143:
	@DEBUG_VALUE: mbedtls_x509write_crt_set_ns_cert_type:ns_cert_type <- [DW_OP_LLVM_entry_value 1] $r1
	@DEBUG_VALUE: mbedtls_x509write_crt_set_ns_cert_type:ctx <- $r4
	.loc	4 267 13 prologue_end           @ ../../../ThirdParty/mbedTLS/library/x509write_crt.c:267:13
	adds	r0, r1, #4
.Ltmp144:
	@DEBUG_VALUE: mbedtls_x509write_crt_set_ns_cert_type:c <- $r0
	.loc	4 267 7 is_stmt 0               @ ../../../ThirdParty/mbedTLS/library/x509write_crt.c:267:7
	str	r0, [sp, #12]
.Ltmp145:
	@DEBUG_VALUE: mbedtls_x509write_crt_set_ns_cert_type:c <- [DW_OP_plus_uconst 12, DW_OP_deref] $sp
	@DEBUG_VALUE: mbedtls_x509write_crt_set_ns_cert_type:ns_cert_type <- [DW_OP_plus_uconst 20, DW_OP_deref] $sp
	.loc	4 0 7                           @ ../../../ThirdParty/mbedTLS/library/x509write_crt.c:0:7
	add	r0, sp, #12
	movs	r3, #8
	.loc	4 269 11 is_stmt 1              @ ../../../ThirdParty/mbedTLS/library/x509write_crt.c:269:11
	bl	mbedtls_asn1_write_named_bitstring
.Ltmp146:
	@DEBUG_VALUE: mbedtls_x509write_crt_set_ns_cert_type:ret <- $r0
	.loc	4 270 17                        @ ../../../ThirdParty/mbedTLS/library/x509write_crt.c:270:17
	subs	r1, r0, #3
	cmp	r1, #1
	bhi	.LBB15_2
.Ltmp147:
@ %bb.1:
	@DEBUG_VALUE: mbedtls_x509write_crt_set_ns_cert_type:ctx <- $r4
	@DEBUG_VALUE: mbedtls_x509write_crt_set_ns_cert_type:ret <- $r0
	@DEBUG_VALUE: mbedtls_x509write_crt_set_ns_cert_type:ns_cert_type <- [DW_OP_plus_uconst 20, DW_OP_deref] $sp
	@DEBUG_VALUE: mbedtls_x509write_crt_set_ns_cert_type:c <- [DW_OP_plus_uconst 12, DW_OP_deref] $sp
	.loc	4 275 16                        @ ../../../ThirdParty/mbedTLS/library/x509write_crt.c:275:16
	ldr	r1, [sp, #12]
.Ltmp148:
	@DEBUG_VALUE: mbedtls_x509write_crt_set_ns_cert_type:c <- $r1
	.loc	4 273 11                        @ ../../../ThirdParty/mbedTLS/library/x509write_crt.c:273:11
	str	r1, [sp]
	str	r0, [sp, #4]
	adr	r1, .LCPI15_0
.Ltmp149:
	.loc	4 0 11 is_stmt 0                @ ../../../ThirdParty/mbedTLS/library/x509write_crt.c:0:11
	movs	r2, #9
	movs	r3, #0
	.loc	4 273 11                        @ ../../../ThirdParty/mbedTLS/library/x509write_crt.c:273:11
	mov	r0, r4
.Ltmp150:
	bl	mbedtls_x509write_crt_set_extension
.Ltmp151:
	@DEBUG_VALUE: mbedtls_x509write_crt_set_ns_cert_type:ret <- $r0
.LBB15_2:
	@DEBUG_VALUE: mbedtls_x509write_crt_set_ns_cert_type:ctx <- $r4
	@DEBUG_VALUE: mbedtls_x509write_crt_set_ns_cert_type:ret <- $r0
	@DEBUG_VALUE: mbedtls_x509write_crt_set_ns_cert_type:ns_cert_type <- [DW_OP_plus_uconst 20, DW_OP_deref] $sp
	.loc	4 280 1 is_stmt 1               @ ../../../ThirdParty/mbedTLS/library/x509write_crt.c:280:1
	add	sp, #24
.Ltmp152:
	pop	{r4, pc}
.Ltmp153:
	.p2align	2
@ %bb.3:
	.loc	4 0 1 is_stmt 0                 @ ../../../ThirdParty/mbedTLS/library/x509write_crt.c:0:1
.LCPI15_0:
.L.str.4:
	.asciz	"`\206H\001\206\370B\001\001\000\000"
.Lfunc_end15:
	.size	mbedtls_x509write_crt_set_ns_cert_type, .Lfunc_end15-mbedtls_x509write_crt_set_ns_cert_type
	.cfi_endproc
	.cantunwind
	.fnend
                                        @ -- End function
	.section	.text.mbedtls_x509write_crt_der,"ax",%progbits
	.hidden	mbedtls_x509write_crt_der       @ -- Begin function mbedtls_x509write_crt_der
	.globl	mbedtls_x509write_crt_der
	.p2align	2
	.type	mbedtls_x509write_crt_der,%function
	.code	16                              @ @mbedtls_x509write_crt_der
	.thumb_func
mbedtls_x509write_crt_der:
.Lfunc_begin16:
	.loc	4 314 0 is_stmt 1               @ ../../../ThirdParty/mbedTLS/library/x509write_crt.c:314:0
	.fnstart
	.cfi_startproc
@ %bb.0:
	.save	{r4, r5, r6, r7, lr}
	push	{r4, r5, r6, r7, lr}
	.cfi_def_cfa_offset 20
	.cfi_offset lr, -4
	.cfi_offset r7, -8
	.cfi_offset r6, -12
	.cfi_offset r5, -16
	.cfi_offset r4, -20
	ldr	r7, __arm_cp.16_1
	.pad	#3212
	add	sp, r7
	.cfi_def_cfa_offset 3232
.Ltmp154:
	.loc	4 0 0 prologue_end              @ ../../../ThirdParty/mbedTLS/library/x509write_crt.c:0:0
	ldr	r6, __arm_cp.16_3
	add	r6, sp
.Ltmp155:
	@DEBUG_VALUE: mbedtls_x509write_crt_der:p_rng <- [DW_OP_plus_uconst 3232] [$sp+0]
	@DEBUG_VALUE: mbedtls_x509write_crt_der:f_rng <- $r3
	@DEBUG_VALUE: mbedtls_x509write_crt_der:size <- $r2
	@DEBUG_VALUE: mbedtls_x509write_crt_der:buf <- $r1
	@DEBUG_VALUE: mbedtls_x509write_crt_der:ctx <- $r0
	str	r3, [sp, #52]                   @ 4-byte Spill
.Ltmp156:
	@DEBUG_VALUE: mbedtls_x509write_crt_der:f_rng <- [DW_OP_plus_uconst 52] [$sp+0]
	str	r2, [sp, #44]                   @ 4-byte Spill
.Ltmp157:
	@DEBUG_VALUE: mbedtls_x509write_crt_der:size <- [DW_OP_plus_uconst 44] [$sp+0]
	str	r1, [sp, #48]                   @ 4-byte Spill
.Ltmp158:
	@DEBUG_VALUE: mbedtls_x509write_crt_der:buf <- [DW_OP_plus_uconst 48] [$sp+0]
	mov	r7, r0
.Ltmp159:
	@DEBUG_VALUE: mbedtls_x509write_crt_der:ctx <- $r7
	movs	r5, #0
.Ltmp160:
	@DEBUG_VALUE: mbedtls_x509write_crt_der:sig_oid_len <- 0
	.loc	4 317 12                        @ ../../../ThirdParty/mbedTLS/library/x509write_crt.c:317:12
	str	r5, [r6, #8]
	movw	r0, #2048
	add	r1, sp, #60
.Ltmp161:
	@DEBUG_VALUE: mbedtls_x509write_crt_der:len <- 0
	.loc	4 329 17                        @ ../../../ThirdParty/mbedTLS/library/x509write_crt.c:329:17
	adds	r0, r1, r0
.Ltmp162:
	@DEBUG_VALUE: mbedtls_x509write_crt_der:c <- $r0
	.loc	4 329 7 is_stmt 0               @ ../../../ThirdParty/mbedTLS/library/x509write_crt.c:329:7
	str	r0, [r6, #4]
.Ltmp163:
	@DEBUG_VALUE: mbedtls_x509write_crt_der:sig_and_oid_len <- 0
	@DEBUG_VALUE: mbedtls_x509write_crt_der:pub_len <- 0
	@DEBUG_VALUE: mbedtls_x509write_crt_der:sub_len <- 0
	.loc	4 335 33 is_stmt 1              @ ../../../ThirdParty/mbedTLS/library/x509write_crt.c:335:33
	ldr	r0, [r7, #20]
.Ltmp164:
	.loc	4 0 33 is_stmt 0                @ ../../../ThirdParty/mbedTLS/library/x509write_crt.c:0:33
	movs	r4, #1
	.loc	4 335 9                         @ ../../../ThirdParty/mbedTLS/library/x509write_crt.c:335:9
	mov	r1, r4
	bl	mbedtls_pk_can_do
.Ltmp165:
	.loc	4 335 9                         @ ../../../ThirdParty/mbedTLS/library/x509write_crt.c:335:9
	cbnz	r0, .LBB16_2
.Ltmp166:
@ %bb.1:
	@DEBUG_VALUE: mbedtls_x509write_crt_der:ctx <- $r7
	@DEBUG_VALUE: mbedtls_x509write_crt_der:buf <- [DW_OP_plus_uconst 48] [$sp+0]
	@DEBUG_VALUE: mbedtls_x509write_crt_der:size <- [DW_OP_plus_uconst 44] [$sp+0]
	@DEBUG_VALUE: mbedtls_x509write_crt_der:f_rng <- [DW_OP_plus_uconst 52] [$sp+0]
	@DEBUG_VALUE: mbedtls_x509write_crt_der:p_rng <- [DW_OP_plus_uconst 3232] [$sp+0]
	@DEBUG_VALUE: mbedtls_x509write_crt_der:sub_len <- 0
	@DEBUG_VALUE: mbedtls_x509write_crt_der:pub_len <- 0
	@DEBUG_VALUE: mbedtls_x509write_crt_der:sig_and_oid_len <- 0
	@DEBUG_VALUE: mbedtls_x509write_crt_der:len <- 0
	@DEBUG_VALUE: mbedtls_x509write_crt_der:sig_oid_len <- 0
	.loc	4 337 38 is_stmt 1              @ ../../../ThirdParty/mbedTLS/library/x509write_crt.c:337:38
	ldr	r0, [r7, #20]
	movs	r4, #4
	.loc	4 337 14 is_stmt 0              @ ../../../ThirdParty/mbedTLS/library/x509write_crt.c:337:14
	mov	r1, r4
	bl	mbedtls_pk_can_do
.Ltmp167:
	.loc	4 337 14                        @ ../../../ThirdParty/mbedTLS/library/x509write_crt.c:337:14
	cmp	r0, #0
	bne	.LBB16_2
	b	.LBB16_31
.Ltmp168:
.LBB16_2:
	@DEBUG_VALUE: mbedtls_x509write_crt_der:ctx <- $r7
	@DEBUG_VALUE: mbedtls_x509write_crt_der:buf <- [DW_OP_plus_uconst 48] [$sp+0]
	@DEBUG_VALUE: mbedtls_x509write_crt_der:size <- [DW_OP_plus_uconst 44] [$sp+0]
	@DEBUG_VALUE: mbedtls_x509write_crt_der:f_rng <- [DW_OP_plus_uconst 52] [$sp+0]
	@DEBUG_VALUE: mbedtls_x509write_crt_der:p_rng <- [DW_OP_plus_uconst 3232] [$sp+0]
	@DEBUG_VALUE: mbedtls_x509write_crt_der:sub_len <- 0
	@DEBUG_VALUE: mbedtls_x509write_crt_der:pub_len <- 0
	@DEBUG_VALUE: mbedtls_x509write_crt_der:sig_and_oid_len <- 0
	@DEBUG_VALUE: mbedtls_x509write_crt_der:len <- 0
	@DEBUG_VALUE: mbedtls_x509write_crt_der:sig_oid_len <- 0
	@DEBUG_VALUE: mbedtls_x509write_crt_der:pk_alg <- $r4
	.loc	4 0 14                          @ ../../../ThirdParty/mbedTLS/library/x509write_crt.c:0:14
	movs	r0, #32
.Ltmp169:
	.loc	4 342 62 is_stmt 1              @ ../../../ThirdParty/mbedTLS/library/x509write_crt.c:342:62
	ldrb	r1, [r7, r0]
.Ltmp170:
	@DEBUG_VALUE: mbedtls_x509write_crt_der:sig_oid <- [DW_OP_plus_uconst 3208, DW_OP_deref] $sp
	@DEBUG_VALUE: mbedtls_x509write_crt_der:sig_oid_len <- [DW_OP_plus_uconst 3204, DW_OP_deref] $sp
	.loc	4 0 62 is_stmt 0                @ ../../../ThirdParty/mbedTLS/library/x509write_crt.c:0:62
	ldr	r2, __arm_cp.16_4
	add	r2, sp
	ldr	r3, __arm_cp.16_5
	add	r3, sp
	.loc	4 342 17                        @ ../../../ThirdParty/mbedTLS/library/x509write_crt.c:342:17
	mov	r0, r4
	bl	mbedtls_oid_get_oid_by_sig_alg
	mov	r4, r0
.Ltmp171:
	@DEBUG_VALUE: mbedtls_x509write_crt_der:ret <- $r4
	.loc	4 342 9                         @ ../../../ThirdParty/mbedTLS/library/x509write_crt.c:342:9
	cmp	r0, #0
	beq	.LBB16_3
	b	.LBB16_46
.Ltmp172:
.LBB16_3:
	@DEBUG_VALUE: mbedtls_x509write_crt_der:ctx <- $r7
	@DEBUG_VALUE: mbedtls_x509write_crt_der:ret <- $r4
	@DEBUG_VALUE: mbedtls_x509write_crt_der:sig_oid_len <- [DW_OP_plus_uconst 3204, DW_OP_deref] $sp
	@DEBUG_VALUE: mbedtls_x509write_crt_der:sig_oid <- [DW_OP_plus_uconst 3208, DW_OP_deref] $sp
	@DEBUG_VALUE: mbedtls_x509write_crt_der:buf <- [DW_OP_plus_uconst 48] [$sp+0]
	@DEBUG_VALUE: mbedtls_x509write_crt_der:size <- [DW_OP_plus_uconst 44] [$sp+0]
	@DEBUG_VALUE: mbedtls_x509write_crt_der:f_rng <- [DW_OP_plus_uconst 52] [$sp+0]
	@DEBUG_VALUE: mbedtls_x509write_crt_der:p_rng <- [DW_OP_plus_uconst 3232] [$sp+0]
	@DEBUG_VALUE: mbedtls_x509write_crt_der:sub_len <- 0
	@DEBUG_VALUE: mbedtls_x509write_crt_der:pub_len <- 0
	@DEBUG_VALUE: mbedtls_x509write_crt_der:sig_and_oid_len <- 0
	@DEBUG_VALUE: mbedtls_x509write_crt_der:len <- 0
	.loc	4 353 14 is_stmt 1              @ ../../../ThirdParty/mbedTLS/library/x509write_crt.c:353:14
	ldr	r0, [r7]
.Ltmp173:
	.loc	4 353 9 is_stmt 0               @ ../../../ThirdParty/mbedTLS/library/x509write_crt.c:353:9
	cmp	r0, #2
	bne	.LBB16_10
.Ltmp174:
@ %bb.4:
	@DEBUG_VALUE: mbedtls_x509write_crt_der:ctx <- $r7
	@DEBUG_VALUE: mbedtls_x509write_crt_der:ret <- $r4
	@DEBUG_VALUE: mbedtls_x509write_crt_der:sig_oid_len <- [DW_OP_plus_uconst 3204, DW_OP_deref] $sp
	@DEBUG_VALUE: mbedtls_x509write_crt_der:sig_oid <- [DW_OP_plus_uconst 3208, DW_OP_deref] $sp
	@DEBUG_VALUE: mbedtls_x509write_crt_der:buf <- [DW_OP_plus_uconst 48] [$sp+0]
	@DEBUG_VALUE: mbedtls_x509write_crt_der:size <- [DW_OP_plus_uconst 44] [$sp+0]
	@DEBUG_VALUE: mbedtls_x509write_crt_der:f_rng <- [DW_OP_plus_uconst 52] [$sp+0]
	@DEBUG_VALUE: mbedtls_x509write_crt_der:p_rng <- [DW_OP_plus_uconst 3232] [$sp+0]
	@DEBUG_VALUE: mbedtls_x509write_crt_der:sub_len <- 0
	@DEBUG_VALUE: mbedtls_x509write_crt_der:pub_len <- 0
	@DEBUG_VALUE: mbedtls_x509write_crt_der:sig_and_oid_len <- 0
	@DEBUG_VALUE: mbedtls_x509write_crt_der:len <- 0
	.loc	4 355 9 is_stmt 1               @ ../../../ThirdParty/mbedTLS/library/x509write_crt.c:355:9
	ldr	r2, [r7, #68]
.Ltmp175:
	@DEBUG_VALUE: mbedtls_x509write_crt_der:c <- [DW_OP_plus_uconst 3200, DW_OP_deref] $sp
	.loc	4 0 9 is_stmt 0                 @ ../../../ThirdParty/mbedTLS/library/x509write_crt.c:0:9
	ldr	r0, __arm_cp.16_6
	add	r0, sp
	add	r1, sp, #60
	.loc	4 355 9                         @ ../../../ThirdParty/mbedTLS/library/x509write_crt.c:355:9
	bl	mbedtls_x509_write_extensions
	mov	r5, r0
.Ltmp176:
	@DEBUG_VALUE: mbedtls_x509write_crt_der:ret <- $r5
	.loc	4 355 9                         @ ../../../ThirdParty/mbedTLS/library/x509write_crt.c:355:9
	cmp	r0, #0
	bpl	.LBB16_5
	b	.LBB16_32
.Ltmp177:
.LBB16_5:
	@DEBUG_VALUE: mbedtls_x509write_crt_der:ctx <- $r7
	@DEBUG_VALUE: mbedtls_x509write_crt_der:ret <- $r5
	@DEBUG_VALUE: mbedtls_x509write_crt_der:c <- [DW_OP_plus_uconst 3200, DW_OP_deref] $sp
	@DEBUG_VALUE: mbedtls_x509write_crt_der:sig_oid_len <- [DW_OP_plus_uconst 3204, DW_OP_deref] $sp
	@DEBUG_VALUE: mbedtls_x509write_crt_der:sig_oid <- [DW_OP_plus_uconst 3208, DW_OP_deref] $sp
	@DEBUG_VALUE: mbedtls_x509write_crt_der:buf <- [DW_OP_plus_uconst 48] [$sp+0]
	@DEBUG_VALUE: mbedtls_x509write_crt_der:size <- [DW_OP_plus_uconst 44] [$sp+0]
	@DEBUG_VALUE: mbedtls_x509write_crt_der:f_rng <- [DW_OP_plus_uconst 52] [$sp+0]
	@DEBUG_VALUE: mbedtls_x509write_crt_der:p_rng <- [DW_OP_plus_uconst 3232] [$sp+0]
	@DEBUG_VALUE: mbedtls_x509write_crt_der:sub_len <- 0
	@DEBUG_VALUE: mbedtls_x509write_crt_der:pub_len <- 0
	@DEBUG_VALUE: mbedtls_x509write_crt_der:sig_and_oid_len <- 0
	@DEBUG_VALUE: mbedtls_x509write_crt_der:len <- 0
	@DEBUG_VALUE: mbedtls_x509write_crt_der:len <- $r5
	@DEBUG_VALUE: mbedtls_x509write_crt_der:c <- [DW_OP_plus_uconst 3200, DW_OP_deref] $sp
	.loc	4 0 9                           @ ../../../ThirdParty/mbedTLS/library/x509write_crt.c:0:9
	ldr	r0, __arm_cp.16_6
	add	r0, sp
	add	r1, sp, #60
.Ltmp178:
	.loc	4 356 9 is_stmt 1               @ ../../../ThirdParty/mbedTLS/library/x509write_crt.c:356:9
	mov	r2, r5
	bl	mbedtls_asn1_write_len
	mov	r4, r0
.Ltmp179:
	@DEBUG_VALUE: mbedtls_x509write_crt_der:ret <- $r4
	.loc	4 356 9 is_stmt 0               @ ../../../ThirdParty/mbedTLS/library/x509write_crt.c:356:9
	cmp	r0, #0
	bpl	.LBB16_6
	b	.LBB16_46
.Ltmp180:
.LBB16_6:
	@DEBUG_VALUE: mbedtls_x509write_crt_der:ctx <- $r7
	@DEBUG_VALUE: mbedtls_x509write_crt_der:len <- $r5
	@DEBUG_VALUE: mbedtls_x509write_crt_der:ret <- $r4
	@DEBUG_VALUE: mbedtls_x509write_crt_der:c <- [DW_OP_plus_uconst 3200, DW_OP_deref] $sp
	@DEBUG_VALUE: mbedtls_x509write_crt_der:sig_oid_len <- [DW_OP_plus_uconst 3204, DW_OP_deref] $sp
	@DEBUG_VALUE: mbedtls_x509write_crt_der:sig_oid <- [DW_OP_plus_uconst 3208, DW_OP_deref] $sp
	@DEBUG_VALUE: mbedtls_x509write_crt_der:buf <- [DW_OP_plus_uconst 48] [$sp+0]
	@DEBUG_VALUE: mbedtls_x509write_crt_der:size <- [DW_OP_plus_uconst 44] [$sp+0]
	@DEBUG_VALUE: mbedtls_x509write_crt_der:f_rng <- [DW_OP_plus_uconst 52] [$sp+0]
	@DEBUG_VALUE: mbedtls_x509write_crt_der:p_rng <- [DW_OP_plus_uconst 3232] [$sp+0]
	@DEBUG_VALUE: mbedtls_x509write_crt_der:sub_len <- 0
	@DEBUG_VALUE: mbedtls_x509write_crt_der:pub_len <- 0
	@DEBUG_VALUE: mbedtls_x509write_crt_der:sig_and_oid_len <- 0
	@DEBUG_VALUE: mbedtls_x509write_crt_der:len <- undef
	@DEBUG_VALUE: mbedtls_x509write_crt_der:c <- [DW_OP_plus_uconst 3200, DW_OP_deref] $sp
	.loc	4 0 9                           @ ../../../ThirdParty/mbedTLS/library/x509write_crt.c:0:9
	ldr	r0, __arm_cp.16_6
	add	r0, sp
	add	r1, sp, #60
	movs	r2, #48
.Ltmp181:
	.loc	4 357 9 is_stmt 1               @ ../../../ThirdParty/mbedTLS/library/x509write_crt.c:357:9
	bl	mbedtls_asn1_write_tag
.Ltmp182:
	@DEBUG_VALUE: mbedtls_x509write_crt_der:ret <- $r0
	.loc	4 357 9 is_stmt 0               @ ../../../ThirdParty/mbedTLS/library/x509write_crt.c:357:9
	cmp	r0, #0
	bpl	.LBB16_7
	b	.LBB16_35
.Ltmp183:
.LBB16_7:
	@DEBUG_VALUE: mbedtls_x509write_crt_der:ctx <- $r7
	@DEBUG_VALUE: mbedtls_x509write_crt_der:ret <- $r0
	@DEBUG_VALUE: mbedtls_x509write_crt_der:c <- [DW_OP_plus_uconst 3200, DW_OP_deref] $sp
	@DEBUG_VALUE: mbedtls_x509write_crt_der:sig_oid_len <- [DW_OP_plus_uconst 3204, DW_OP_deref] $sp
	@DEBUG_VALUE: mbedtls_x509write_crt_der:sig_oid <- [DW_OP_plus_uconst 3208, DW_OP_deref] $sp
	@DEBUG_VALUE: mbedtls_x509write_crt_der:buf <- [DW_OP_plus_uconst 48] [$sp+0]
	@DEBUG_VALUE: mbedtls_x509write_crt_der:size <- [DW_OP_plus_uconst 44] [$sp+0]
	@DEBUG_VALUE: mbedtls_x509write_crt_der:f_rng <- [DW_OP_plus_uconst 52] [$sp+0]
	@DEBUG_VALUE: mbedtls_x509write_crt_der:p_rng <- [DW_OP_plus_uconst 3232] [$sp+0]
	@DEBUG_VALUE: mbedtls_x509write_crt_der:sub_len <- 0
	@DEBUG_VALUE: mbedtls_x509write_crt_der:pub_len <- 0
	@DEBUG_VALUE: mbedtls_x509write_crt_der:sig_and_oid_len <- 0
	.loc	4 356 9 is_stmt 1               @ ../../../ThirdParty/mbedTLS/library/x509write_crt.c:356:9
	adds	r1, r4, r5
.Ltmp184:
	@DEBUG_VALUE: mbedtls_x509write_crt_der:len <- $r1
	.loc	4 357 9                         @ ../../../ThirdParty/mbedTLS/library/x509write_crt.c:357:9
	adds	r5, r1, r0
	@DEBUG_VALUE: mbedtls_x509write_crt_der:c <- [DW_OP_plus_uconst 3200, DW_OP_deref] $sp
.Ltmp185:
	@DEBUG_VALUE: mbedtls_x509write_crt_der:len <- $r5
	.loc	4 0 9 is_stmt 0                 @ ../../../ThirdParty/mbedTLS/library/x509write_crt.c:0:9
	ldr	r0, __arm_cp.16_6
.Ltmp186:
	add	r0, sp
	add	r1, sp, #60
.Ltmp187:
	.loc	4 359 9 is_stmt 1               @ ../../../ThirdParty/mbedTLS/library/x509write_crt.c:359:9
	mov	r2, r5
	bl	mbedtls_asn1_write_len
	mov	r4, r0
.Ltmp188:
	@DEBUG_VALUE: mbedtls_x509write_crt_der:ret <- $r4
	.loc	4 359 9 is_stmt 0               @ ../../../ThirdParty/mbedTLS/library/x509write_crt.c:359:9
	cmp	r0, #0
	bpl	.LBB16_8
	b	.LBB16_46
.Ltmp189:
.LBB16_8:
	@DEBUG_VALUE: mbedtls_x509write_crt_der:ctx <- $r7
	@DEBUG_VALUE: mbedtls_x509write_crt_der:len <- $r5
	@DEBUG_VALUE: mbedtls_x509write_crt_der:ret <- $r4
	@DEBUG_VALUE: mbedtls_x509write_crt_der:c <- [DW_OP_plus_uconst 3200, DW_OP_deref] $sp
	@DEBUG_VALUE: mbedtls_x509write_crt_der:sig_oid_len <- [DW_OP_plus_uconst 3204, DW_OP_deref] $sp
	@DEBUG_VALUE: mbedtls_x509write_crt_der:sig_oid <- [DW_OP_plus_uconst 3208, DW_OP_deref] $sp
	@DEBUG_VALUE: mbedtls_x509write_crt_der:buf <- [DW_OP_plus_uconst 48] [$sp+0]
	@DEBUG_VALUE: mbedtls_x509write_crt_der:size <- [DW_OP_plus_uconst 44] [$sp+0]
	@DEBUG_VALUE: mbedtls_x509write_crt_der:f_rng <- [DW_OP_plus_uconst 52] [$sp+0]
	@DEBUG_VALUE: mbedtls_x509write_crt_der:p_rng <- [DW_OP_plus_uconst 3232] [$sp+0]
	@DEBUG_VALUE: mbedtls_x509write_crt_der:sub_len <- 0
	@DEBUG_VALUE: mbedtls_x509write_crt_der:pub_len <- 0
	@DEBUG_VALUE: mbedtls_x509write_crt_der:sig_and_oid_len <- 0
	@DEBUG_VALUE: mbedtls_x509write_crt_der:len <- undef
	@DEBUG_VALUE: mbedtls_x509write_crt_der:c <- [DW_OP_plus_uconst 3200, DW_OP_deref] $sp
	.loc	4 0 9                           @ ../../../ThirdParty/mbedTLS/library/x509write_crt.c:0:9
	ldr	r0, __arm_cp.16_6
	add	r0, sp
	add	r1, sp, #60
	movs	r2, #163
.Ltmp190:
	.loc	4 360 9 is_stmt 1               @ ../../../ThirdParty/mbedTLS/library/x509write_crt.c:360:9
	bl	mbedtls_asn1_write_tag
.Ltmp191:
	@DEBUG_VALUE: mbedtls_x509write_crt_der:ret <- $r0
	.loc	4 360 9 is_stmt 0               @ ../../../ThirdParty/mbedTLS/library/x509write_crt.c:360:9
	cmp	r0, #0
	bpl	.LBB16_9
	b	.LBB16_38
.Ltmp192:
.LBB16_9:
	@DEBUG_VALUE: mbedtls_x509write_crt_der:ctx <- $r7
	@DEBUG_VALUE: mbedtls_x509write_crt_der:ret <- $r0
	@DEBUG_VALUE: mbedtls_x509write_crt_der:c <- [DW_OP_plus_uconst 3200, DW_OP_deref] $sp
	@DEBUG_VALUE: mbedtls_x509write_crt_der:sig_oid_len <- [DW_OP_plus_uconst 3204, DW_OP_deref] $sp
	@DEBUG_VALUE: mbedtls_x509write_crt_der:sig_oid <- [DW_OP_plus_uconst 3208, DW_OP_deref] $sp
	@DEBUG_VALUE: mbedtls_x509write_crt_der:buf <- [DW_OP_plus_uconst 48] [$sp+0]
	@DEBUG_VALUE: mbedtls_x509write_crt_der:size <- [DW_OP_plus_uconst 44] [$sp+0]
	@DEBUG_VALUE: mbedtls_x509write_crt_der:f_rng <- [DW_OP_plus_uconst 52] [$sp+0]
	@DEBUG_VALUE: mbedtls_x509write_crt_der:p_rng <- [DW_OP_plus_uconst 3232] [$sp+0]
	@DEBUG_VALUE: mbedtls_x509write_crt_der:sub_len <- 0
	@DEBUG_VALUE: mbedtls_x509write_crt_der:pub_len <- 0
	@DEBUG_VALUE: mbedtls_x509write_crt_der:sig_and_oid_len <- 0
	.loc	4 359 9 is_stmt 1               @ ../../../ThirdParty/mbedTLS/library/x509write_crt.c:359:9
	adds	r1, r4, r5
.Ltmp193:
	@DEBUG_VALUE: mbedtls_x509write_crt_der:len <- $r1
	.loc	4 360 9                         @ ../../../ThirdParty/mbedTLS/library/x509write_crt.c:360:9
	adds	r5, r1, r0
.Ltmp194:
	@DEBUG_VALUE: mbedtls_x509write_crt_der:len <- $r5
.LBB16_10:
	@DEBUG_VALUE: mbedtls_x509write_crt_der:ctx <- $r7
	@DEBUG_VALUE: mbedtls_x509write_crt_der:sig_oid_len <- [DW_OP_plus_uconst 3204, DW_OP_deref] $sp
	@DEBUG_VALUE: mbedtls_x509write_crt_der:sig_oid <- [DW_OP_plus_uconst 3208, DW_OP_deref] $sp
	@DEBUG_VALUE: mbedtls_x509write_crt_der:buf <- [DW_OP_plus_uconst 48] [$sp+0]
	@DEBUG_VALUE: mbedtls_x509write_crt_der:size <- [DW_OP_plus_uconst 44] [$sp+0]
	@DEBUG_VALUE: mbedtls_x509write_crt_der:f_rng <- [DW_OP_plus_uconst 52] [$sp+0]
	@DEBUG_VALUE: mbedtls_x509write_crt_der:p_rng <- [DW_OP_plus_uconst 3232] [$sp+0]
	@DEBUG_VALUE: mbedtls_x509write_crt_der:sub_len <- 0
	@DEBUG_VALUE: mbedtls_x509write_crt_der:pub_len <- 0
	@DEBUG_VALUE: mbedtls_x509write_crt_der:sig_and_oid_len <- 0
	@DEBUG_VALUE: mbedtls_x509write_crt_der:len <- $r5
	.loc	4 0 9 is_stmt 0                 @ ../../../ThirdParty/mbedTLS/library/x509write_crt.c:0:9
	add	r1, sp, #60
.Ltmp195:
	.loc	4 367 5 is_stmt 1               @ ../../../ThirdParty/mbedTLS/library/x509write_crt.c:367:5
	ldr	r0, [r6, #4]
.Ltmp196:
	@DEBUG_VALUE: mbedtls_x509write_crt_der:c <- undef
	subs	r2, r0, r1
	ldr	r0, [r7, #16]
	bl	mbedtls_pk_write_pubkey_der
	mov	r4, r0
.Ltmp197:
	@DEBUG_VALUE: mbedtls_x509write_crt_der:ret <- $r4
	.loc	4 367 5 is_stmt 0               @ ../../../ThirdParty/mbedTLS/library/x509write_crt.c:367:5
	cmp	r0, #0
	bpl	.LBB16_11
	b	.LBB16_46
.Ltmp198:
.LBB16_11:
	@DEBUG_VALUE: mbedtls_x509write_crt_der:ctx <- $r7
	@DEBUG_VALUE: mbedtls_x509write_crt_der:len <- $r5
	@DEBUG_VALUE: mbedtls_x509write_crt_der:ret <- $r4
	@DEBUG_VALUE: mbedtls_x509write_crt_der:sig_oid_len <- [DW_OP_plus_uconst 3204, DW_OP_deref] $sp
	@DEBUG_VALUE: mbedtls_x509write_crt_der:sig_oid <- [DW_OP_plus_uconst 3208, DW_OP_deref] $sp
	@DEBUG_VALUE: mbedtls_x509write_crt_der:buf <- [DW_OP_plus_uconst 48] [$sp+0]
	@DEBUG_VALUE: mbedtls_x509write_crt_der:size <- [DW_OP_plus_uconst 44] [$sp+0]
	@DEBUG_VALUE: mbedtls_x509write_crt_der:f_rng <- [DW_OP_plus_uconst 52] [$sp+0]
	@DEBUG_VALUE: mbedtls_x509write_crt_der:p_rng <- [DW_OP_plus_uconst 3232] [$sp+0]
	@DEBUG_VALUE: mbedtls_x509write_crt_der:sub_len <- 0
	@DEBUG_VALUE: mbedtls_x509write_crt_der:pub_len <- 0
	@DEBUG_VALUE: mbedtls_x509write_crt_der:sig_and_oid_len <- 0
	@DEBUG_VALUE: mbedtls_x509write_crt_der:pub_len <- $r4
	.loc	4 369 7 is_stmt 1               @ ../../../ThirdParty/mbedTLS/library/x509write_crt.c:369:7
	ldr	r0, [r6, #4]
.Ltmp199:
	@DEBUG_VALUE: mbedtls_x509write_crt_der:c <- $r0
	subs	r0, r0, r4
.Ltmp200:
	@DEBUG_VALUE: mbedtls_x509write_crt_der:c <- $r0
	str	r0, [r6, #4]
.Ltmp201:
	@DEBUG_VALUE: mbedtls_x509write_crt_der:len <- undef
	.loc	4 375 5                         @ ../../../ThirdParty/mbedTLS/library/x509write_crt.c:375:5
	ldr	r2, [r7, #24]
.Ltmp202:
	@DEBUG_VALUE: mbedtls_x509write_crt_der:c <- [DW_OP_plus_uconst 3200, DW_OP_deref] $sp
	.loc	4 0 5 is_stmt 0                 @ ../../../ThirdParty/mbedTLS/library/x509write_crt.c:0:5
	ldr	r0, __arm_cp.16_6
	add	r0, sp
	add	r1, sp, #60
	.loc	4 375 5                         @ ../../../ThirdParty/mbedTLS/library/x509write_crt.c:375:5
	bl	mbedtls_x509_write_names
.Ltmp203:
	@DEBUG_VALUE: mbedtls_x509write_crt_der:ret <- $r0
	.loc	4 375 5                         @ ../../../ThirdParty/mbedTLS/library/x509write_crt.c:375:5
	cmp	r0, #0
	bpl	.LBB16_12
	b	.LBB16_33
.Ltmp204:
.LBB16_12:
	@DEBUG_VALUE: mbedtls_x509write_crt_der:ctx <- $r7
	@DEBUG_VALUE: mbedtls_x509write_crt_der:pub_len <- $r4
	@DEBUG_VALUE: mbedtls_x509write_crt_der:ret <- $r0
	@DEBUG_VALUE: mbedtls_x509write_crt_der:c <- [DW_OP_plus_uconst 3200, DW_OP_deref] $sp
	@DEBUG_VALUE: mbedtls_x509write_crt_der:sig_oid_len <- [DW_OP_plus_uconst 3204, DW_OP_deref] $sp
	@DEBUG_VALUE: mbedtls_x509write_crt_der:sig_oid <- [DW_OP_plus_uconst 3208, DW_OP_deref] $sp
	@DEBUG_VALUE: mbedtls_x509write_crt_der:buf <- [DW_OP_plus_uconst 48] [$sp+0]
	@DEBUG_VALUE: mbedtls_x509write_crt_der:size <- [DW_OP_plus_uconst 44] [$sp+0]
	@DEBUG_VALUE: mbedtls_x509write_crt_der:f_rng <- [DW_OP_plus_uconst 52] [$sp+0]
	@DEBUG_VALUE: mbedtls_x509write_crt_der:p_rng <- [DW_OP_plus_uconst 3232] [$sp+0]
	@DEBUG_VALUE: mbedtls_x509write_crt_der:sub_len <- 0
	@DEBUG_VALUE: mbedtls_x509write_crt_der:sig_and_oid_len <- 0
	@DEBUG_VALUE: mbedtls_x509write_crt_der:c <- [DW_OP_plus_uconst 3200, DW_OP_deref] $sp
	.loc	4 0 5                           @ ../../../ThirdParty/mbedTLS/library/x509write_crt.c:0:5
	str	r0, [sp, #40]                   @ 4-byte Spill
.Ltmp205:
	@DEBUG_VALUE: mbedtls_x509write_crt_der:ret <- [DW_OP_plus_uconst 40] [$sp+0]
	@DEBUG_VALUE: mbedtls_x509write_crt_der:sub_len <- 0
	.loc	4 384 5 is_stmt 1               @ ../../../ThirdParty/mbedTLS/library/x509write_crt.c:384:5
	mov	r2, r7
	adds	r2, #49
	ldr	r0, __arm_cp.16_6
	add	r0, sp
	add	r1, sp, #60
	bl	x509_write_time
.Ltmp206:
	@DEBUG_VALUE: mbedtls_x509write_crt_der:ret <- $r0
	@DEBUG_VALUE: mbedtls_x509write_crt_der:len <- undef
	.loc	4 384 5 is_stmt 0               @ ../../../ThirdParty/mbedTLS/library/x509write_crt.c:384:5
	cmp	r0, #0
	bpl	.LBB16_13
	b	.LBB16_34
.Ltmp207:
.LBB16_13:
	@DEBUG_VALUE: mbedtls_x509write_crt_der:ctx <- $r7
	@DEBUG_VALUE: mbedtls_x509write_crt_der:pub_len <- $r4
	@DEBUG_VALUE: mbedtls_x509write_crt_der:ret <- $r0
	@DEBUG_VALUE: mbedtls_x509write_crt_der:c <- [DW_OP_plus_uconst 3200, DW_OP_deref] $sp
	@DEBUG_VALUE: mbedtls_x509write_crt_der:sig_oid_len <- [DW_OP_plus_uconst 3204, DW_OP_deref] $sp
	@DEBUG_VALUE: mbedtls_x509write_crt_der:sig_oid <- [DW_OP_plus_uconst 3208, DW_OP_deref] $sp
	@DEBUG_VALUE: mbedtls_x509write_crt_der:buf <- [DW_OP_plus_uconst 48] [$sp+0]
	@DEBUG_VALUE: mbedtls_x509write_crt_der:size <- [DW_OP_plus_uconst 44] [$sp+0]
	@DEBUG_VALUE: mbedtls_x509write_crt_der:f_rng <- [DW_OP_plus_uconst 52] [$sp+0]
	@DEBUG_VALUE: mbedtls_x509write_crt_der:p_rng <- [DW_OP_plus_uconst 3232] [$sp+0]
	@DEBUG_VALUE: mbedtls_x509write_crt_der:sub_len <- 0
	@DEBUG_VALUE: mbedtls_x509write_crt_der:sig_and_oid_len <- 0
	@DEBUG_VALUE: mbedtls_x509write_crt_der:len <- undef
	@DEBUG_VALUE: mbedtls_x509write_crt_der:c <- [DW_OP_plus_uconst 3200, DW_OP_deref] $sp
	@DEBUG_VALUE: mbedtls_x509write_crt_der:sub_len <- $r0
	.loc	4 0 5                           @ ../../../ThirdParty/mbedTLS/library/x509write_crt.c:0:5
	str	r0, [sp, #36]                   @ 4-byte Spill
.Ltmp208:
	@DEBUG_VALUE: mbedtls_x509write_crt_der:ret <- [DW_OP_plus_uconst 36] [$sp+0]
	@DEBUG_VALUE: mbedtls_x509write_crt_der:sub_len <- [DW_OP_plus_uconst 36] [$sp+0]
	.loc	4 387 5 is_stmt 1               @ ../../../ThirdParty/mbedTLS/library/x509write_crt.c:387:5
	mov	r2, r7
	adds	r2, #33
	ldr	r0, __arm_cp.16_6
	add	r0, sp
	add	r1, sp, #60
	bl	x509_write_time
.Ltmp209:
	@DEBUG_VALUE: mbedtls_x509write_crt_der:ret <- $r0
	.loc	4 387 5 is_stmt 0               @ ../../../ThirdParty/mbedTLS/library/x509write_crt.c:387:5
	cmp	r0, #0
	bpl	.LBB16_14
	b	.LBB16_36
.Ltmp210:
.LBB16_14:
	@DEBUG_VALUE: mbedtls_x509write_crt_der:ctx <- $r7
	@DEBUG_VALUE: mbedtls_x509write_crt_der:pub_len <- $r4
	@DEBUG_VALUE: mbedtls_x509write_crt_der:ret <- $r0
	@DEBUG_VALUE: mbedtls_x509write_crt_der:sub_len <- [DW_OP_plus_uconst 36] [$sp+0]
	@DEBUG_VALUE: mbedtls_x509write_crt_der:c <- [DW_OP_plus_uconst 3200, DW_OP_deref] $sp
	@DEBUG_VALUE: mbedtls_x509write_crt_der:sig_oid_len <- [DW_OP_plus_uconst 3204, DW_OP_deref] $sp
	@DEBUG_VALUE: mbedtls_x509write_crt_der:sig_oid <- [DW_OP_plus_uconst 3208, DW_OP_deref] $sp
	@DEBUG_VALUE: mbedtls_x509write_crt_der:buf <- [DW_OP_plus_uconst 48] [$sp+0]
	@DEBUG_VALUE: mbedtls_x509write_crt_der:size <- [DW_OP_plus_uconst 44] [$sp+0]
	@DEBUG_VALUE: mbedtls_x509write_crt_der:f_rng <- [DW_OP_plus_uconst 52] [$sp+0]
	@DEBUG_VALUE: mbedtls_x509write_crt_der:p_rng <- [DW_OP_plus_uconst 3232] [$sp+0]
	@DEBUG_VALUE: mbedtls_x509write_crt_der:sig_and_oid_len <- 0
	@DEBUG_VALUE: mbedtls_x509write_crt_der:len <- undef
	.loc	4 387 5                         @ ../../../ThirdParty/mbedTLS/library/x509write_crt.c:387:5
	ldr	r1, [sp, #36]                   @ 4-byte Reload
	adds	r2, r0, r1
.Ltmp211:
	@DEBUG_VALUE: mbedtls_x509write_crt_der:sub_len <- $r2
	@DEBUG_VALUE: mbedtls_x509write_crt_der:c <- [DW_OP_plus_uconst 3200, DW_OP_deref] $sp
	@DEBUG_VALUE: mbedtls_x509write_crt_der:len <- undef
	.loc	4 0 5                           @ ../../../ThirdParty/mbedTLS/library/x509write_crt.c:0:5
	ldr	r0, __arm_cp.16_6
.Ltmp212:
	add	r0, sp
	add	r1, sp, #60
	str	r2, [sp, #36]                   @ 4-byte Spill
.Ltmp213:
	@DEBUG_VALUE: mbedtls_x509write_crt_der:sub_len <- [DW_OP_plus_uconst 36] [$sp+0]
	.loc	4 391 5 is_stmt 1               @ ../../../ThirdParty/mbedTLS/library/x509write_crt.c:391:5
	bl	mbedtls_asn1_write_len
.Ltmp214:
	@DEBUG_VALUE: mbedtls_x509write_crt_der:ret <- $r0
	.loc	4 391 5 is_stmt 0               @ ../../../ThirdParty/mbedTLS/library/x509write_crt.c:391:5
	cmp	r0, #0
	bpl	.LBB16_15
	b	.LBB16_37
.Ltmp215:
.LBB16_15:
	@DEBUG_VALUE: mbedtls_x509write_crt_der:ctx <- $r7
	@DEBUG_VALUE: mbedtls_x509write_crt_der:pub_len <- $r4
	@DEBUG_VALUE: mbedtls_x509write_crt_der:ret <- $r0
	@DEBUG_VALUE: mbedtls_x509write_crt_der:sub_len <- [DW_OP_plus_uconst 36] [$sp+0]
	@DEBUG_VALUE: mbedtls_x509write_crt_der:c <- [DW_OP_plus_uconst 3200, DW_OP_deref] $sp
	@DEBUG_VALUE: mbedtls_x509write_crt_der:sig_oid_len <- [DW_OP_plus_uconst 3204, DW_OP_deref] $sp
	@DEBUG_VALUE: mbedtls_x509write_crt_der:sig_oid <- [DW_OP_plus_uconst 3208, DW_OP_deref] $sp
	@DEBUG_VALUE: mbedtls_x509write_crt_der:buf <- [DW_OP_plus_uconst 48] [$sp+0]
	@DEBUG_VALUE: mbedtls_x509write_crt_der:size <- [DW_OP_plus_uconst 44] [$sp+0]
	@DEBUG_VALUE: mbedtls_x509write_crt_der:f_rng <- [DW_OP_plus_uconst 52] [$sp+0]
	@DEBUG_VALUE: mbedtls_x509write_crt_der:p_rng <- [DW_OP_plus_uconst 3232] [$sp+0]
	@DEBUG_VALUE: mbedtls_x509write_crt_der:sig_and_oid_len <- 0
	@DEBUG_VALUE: mbedtls_x509write_crt_der:len <- undef
	@DEBUG_VALUE: mbedtls_x509write_crt_der:c <- [DW_OP_plus_uconst 3200, DW_OP_deref] $sp
	.loc	4 0 5                           @ ../../../ThirdParty/mbedTLS/library/x509write_crt.c:0:5
	str	r0, [sp, #32]                   @ 4-byte Spill
.Ltmp216:
	@DEBUG_VALUE: mbedtls_x509write_crt_der:ret <- [DW_OP_plus_uconst 32] [$sp+0]
	ldr	r0, __arm_cp.16_6
	add	r0, sp
	add	r1, sp, #60
	movs	r2, #48
.Ltmp217:
	.loc	4 392 5 is_stmt 1               @ ../../../ThirdParty/mbedTLS/library/x509write_crt.c:392:5
	bl	mbedtls_asn1_write_tag
.Ltmp218:
	@DEBUG_VALUE: mbedtls_x509write_crt_der:ret <- $r0
	.loc	4 392 5 is_stmt 0               @ ../../../ThirdParty/mbedTLS/library/x509write_crt.c:392:5
	cmp	r0, #0
	bpl	.LBB16_16
	b	.LBB16_39
.Ltmp219:
.LBB16_16:
	@DEBUG_VALUE: mbedtls_x509write_crt_der:ctx <- $r7
	@DEBUG_VALUE: mbedtls_x509write_crt_der:pub_len <- $r4
	@DEBUG_VALUE: mbedtls_x509write_crt_der:ret <- $r0
	@DEBUG_VALUE: mbedtls_x509write_crt_der:sub_len <- [DW_OP_plus_uconst 36] [$sp+0]
	@DEBUG_VALUE: mbedtls_x509write_crt_der:c <- [DW_OP_plus_uconst 3200, DW_OP_deref] $sp
	@DEBUG_VALUE: mbedtls_x509write_crt_der:sig_oid_len <- [DW_OP_plus_uconst 3204, DW_OP_deref] $sp
	@DEBUG_VALUE: mbedtls_x509write_crt_der:sig_oid <- [DW_OP_plus_uconst 3208, DW_OP_deref] $sp
	@DEBUG_VALUE: mbedtls_x509write_crt_der:buf <- [DW_OP_plus_uconst 48] [$sp+0]
	@DEBUG_VALUE: mbedtls_x509write_crt_der:size <- [DW_OP_plus_uconst 44] [$sp+0]
	@DEBUG_VALUE: mbedtls_x509write_crt_der:f_rng <- [DW_OP_plus_uconst 52] [$sp+0]
	@DEBUG_VALUE: mbedtls_x509write_crt_der:p_rng <- [DW_OP_plus_uconst 3232] [$sp+0]
	@DEBUG_VALUE: mbedtls_x509write_crt_der:sig_and_oid_len <- 0
	@DEBUG_VALUE: mbedtls_x509write_crt_der:len <- undef
	.loc	4 0 5                           @ ../../../ThirdParty/mbedTLS/library/x509write_crt.c:0:5
	str	r0, [sp, #24]                   @ 4-byte Spill
.Ltmp220:
	@DEBUG_VALUE: mbedtls_x509write_crt_der:ret <- [DW_OP_plus_uconst 24] [$sp+0]
	.loc	4 398 5 is_stmt 1               @ ../../../ThirdParty/mbedTLS/library/x509write_crt.c:398:5
	ldr	r2, [r7, #28]
	@DEBUG_VALUE: mbedtls_x509write_crt_der:c <- [DW_OP_plus_uconst 3200, DW_OP_deref] $sp
	ldr	r0, __arm_cp.16_6
	add	r0, sp
	add	r1, sp, #60
	bl	mbedtls_x509_write_names
.Ltmp221:
	@DEBUG_VALUE: mbedtls_x509write_crt_der:ret <- $r0
	.loc	4 398 5 is_stmt 0               @ ../../../ThirdParty/mbedTLS/library/x509write_crt.c:398:5
	cmp	r0, #0
	bpl	.LBB16_17
	b	.LBB16_40
.Ltmp222:
.LBB16_17:
	@DEBUG_VALUE: mbedtls_x509write_crt_der:ctx <- $r7
	@DEBUG_VALUE: mbedtls_x509write_crt_der:pub_len <- $r4
	@DEBUG_VALUE: mbedtls_x509write_crt_der:ret <- $r0
	@DEBUG_VALUE: mbedtls_x509write_crt_der:sub_len <- [DW_OP_plus_uconst 36] [$sp+0]
	@DEBUG_VALUE: mbedtls_x509write_crt_der:c <- [DW_OP_plus_uconst 3200, DW_OP_deref] $sp
	@DEBUG_VALUE: mbedtls_x509write_crt_der:sig_oid_len <- [DW_OP_plus_uconst 3204, DW_OP_deref] $sp
	@DEBUG_VALUE: mbedtls_x509write_crt_der:sig_oid <- [DW_OP_plus_uconst 3208, DW_OP_deref] $sp
	@DEBUG_VALUE: mbedtls_x509write_crt_der:buf <- [DW_OP_plus_uconst 48] [$sp+0]
	@DEBUG_VALUE: mbedtls_x509write_crt_der:size <- [DW_OP_plus_uconst 44] [$sp+0]
	@DEBUG_VALUE: mbedtls_x509write_crt_der:f_rng <- [DW_OP_plus_uconst 52] [$sp+0]
	@DEBUG_VALUE: mbedtls_x509write_crt_der:p_rng <- [DW_OP_plus_uconst 3232] [$sp+0]
	@DEBUG_VALUE: mbedtls_x509write_crt_der:sig_and_oid_len <- 0
	@DEBUG_VALUE: mbedtls_x509write_crt_der:len <- undef
	.loc	4 0 5                           @ ../../../ThirdParty/mbedTLS/library/x509write_crt.c:0:5
	str	r0, [sp, #20]                   @ 4-byte Spill
.Ltmp223:
	@DEBUG_VALUE: mbedtls_x509write_crt_der:ret <- [DW_OP_plus_uconst 20] [$sp+0]
	.loc	4 403 5 is_stmt 1               @ ../../../ThirdParty/mbedTLS/library/x509write_crt.c:403:5
	ldr	r0, [r6, #12]
.Ltmp224:
	@DEBUG_VALUE: mbedtls_x509write_crt_der:sig_oid <- $r0
	str	r0, [sp, #28]                   @ 4-byte Spill
.Ltmp225:
	@DEBUG_VALUE: mbedtls_x509write_crt_der:sig_oid <- [DW_OP_plus_uconst 28] [$sp+0]
	bl	strlen
	mov	r3, r0
	@DEBUG_VALUE: mbedtls_x509write_crt_der:c <- [DW_OP_plus_uconst 3200, DW_OP_deref] $sp
	movs	r0, #0
	str	r0, [sp]
	ldr	r0, __arm_cp.16_6
	add	r0, sp
	add	r1, sp, #60
	ldr	r2, [sp, #28]                   @ 4-byte Reload
	bl	mbedtls_asn1_write_algorithm_identifier
.Ltmp226:
	@DEBUG_VALUE: mbedtls_x509write_crt_der:ret <- $r0
	.loc	4 403 5 is_stmt 0               @ ../../../ThirdParty/mbedTLS/library/x509write_crt.c:403:5
	cmp	r0, #0
	bpl	.LBB16_18
	b	.LBB16_41
.Ltmp227:
.LBB16_18:
	@DEBUG_VALUE: mbedtls_x509write_crt_der:ctx <- $r7
	@DEBUG_VALUE: mbedtls_x509write_crt_der:pub_len <- $r4
	@DEBUG_VALUE: mbedtls_x509write_crt_der:ret <- $r0
	@DEBUG_VALUE: mbedtls_x509write_crt_der:sig_oid <- [DW_OP_plus_uconst 28] [$sp+0]
	@DEBUG_VALUE: mbedtls_x509write_crt_der:sub_len <- [DW_OP_plus_uconst 36] [$sp+0]
	@DEBUG_VALUE: mbedtls_x509write_crt_der:c <- [DW_OP_plus_uconst 3200, DW_OP_deref] $sp
	@DEBUG_VALUE: mbedtls_x509write_crt_der:sig_oid_len <- [DW_OP_plus_uconst 3204, DW_OP_deref] $sp
	@DEBUG_VALUE: mbedtls_x509write_crt_der:buf <- [DW_OP_plus_uconst 48] [$sp+0]
	@DEBUG_VALUE: mbedtls_x509write_crt_der:size <- [DW_OP_plus_uconst 44] [$sp+0]
	@DEBUG_VALUE: mbedtls_x509write_crt_der:f_rng <- [DW_OP_plus_uconst 52] [$sp+0]
	@DEBUG_VALUE: mbedtls_x509write_crt_der:p_rng <- [DW_OP_plus_uconst 3232] [$sp+0]
	@DEBUG_VALUE: mbedtls_x509write_crt_der:sig_and_oid_len <- 0
	@DEBUG_VALUE: mbedtls_x509write_crt_der:len <- undef
	@DEBUG_VALUE: mbedtls_x509write_crt_der:c <- [DW_OP_plus_uconst 3200, DW_OP_deref] $sp
	.loc	4 0 5                           @ ../../../ThirdParty/mbedTLS/library/x509write_crt.c:0:5
	str	r0, [sp, #28]                   @ 4-byte Spill
.Ltmp228:
	@DEBUG_VALUE: mbedtls_x509write_crt_der:ret <- [DW_OP_plus_uconst 28] [$sp+0]
	.loc	4 409 5 is_stmt 1               @ ../../../ThirdParty/mbedTLS/library/x509write_crt.c:409:5
	adds	r2, r7, #4
	ldr	r0, __arm_cp.16_6
	add	r0, sp
	add	r1, sp, #60
	bl	mbedtls_asn1_write_mpi
.Ltmp229:
	@DEBUG_VALUE: mbedtls_x509write_crt_der:ret <- $r0
	.loc	4 409 5 is_stmt 0               @ ../../../ThirdParty/mbedTLS/library/x509write_crt.c:409:5
	cmp	r0, #0
	bpl	.LBB16_19
	b	.LBB16_42
.Ltmp230:
.LBB16_19:
	@DEBUG_VALUE: mbedtls_x509write_crt_der:ctx <- $r7
	@DEBUG_VALUE: mbedtls_x509write_crt_der:pub_len <- $r4
	@DEBUG_VALUE: mbedtls_x509write_crt_der:ret <- $r0
	@DEBUG_VALUE: mbedtls_x509write_crt_der:sig_oid <- [DW_OP_plus_uconst 28] [$sp+0]
	@DEBUG_VALUE: mbedtls_x509write_crt_der:sub_len <- [DW_OP_plus_uconst 36] [$sp+0]
	@DEBUG_VALUE: mbedtls_x509write_crt_der:c <- [DW_OP_plus_uconst 3200, DW_OP_deref] $sp
	@DEBUG_VALUE: mbedtls_x509write_crt_der:sig_oid_len <- [DW_OP_plus_uconst 3204, DW_OP_deref] $sp
	@DEBUG_VALUE: mbedtls_x509write_crt_der:buf <- [DW_OP_plus_uconst 48] [$sp+0]
	@DEBUG_VALUE: mbedtls_x509write_crt_der:size <- [DW_OP_plus_uconst 44] [$sp+0]
	@DEBUG_VALUE: mbedtls_x509write_crt_der:f_rng <- [DW_OP_plus_uconst 52] [$sp+0]
	@DEBUG_VALUE: mbedtls_x509write_crt_der:p_rng <- [DW_OP_plus_uconst 3232] [$sp+0]
	@DEBUG_VALUE: mbedtls_x509write_crt_der:sig_and_oid_len <- 0
	.loc	4 0 0                           @ ../../../ThirdParty/mbedTLS/library/x509write_crt.c:0:0
	adds	r1, r4, r5
	ldr	r2, [sp, #40]                   @ 4-byte Reload
	adds	r1, r1, r2
	.loc	4 390 9 is_stmt 1               @ ../../../ThirdParty/mbedTLS/library/x509write_crt.c:390:9
	ldr	r2, [sp, #36]                   @ 4-byte Reload
	adds	r1, r1, r2
.Ltmp231:
	@DEBUG_VALUE: mbedtls_x509write_crt_der:len <- $r1
	.loc	4 391 5                         @ ../../../ThirdParty/mbedTLS/library/x509write_crt.c:391:5
	ldr	r2, [sp, #32]                   @ 4-byte Reload
	adds	r1, r1, r2
.Ltmp232:
	@DEBUG_VALUE: mbedtls_x509write_crt_der:len <- $r1
	.loc	4 392 5                         @ ../../../ThirdParty/mbedTLS/library/x509write_crt.c:392:5
	ldr	r2, [sp, #24]                   @ 4-byte Reload
	adds	r1, r1, r2
.Ltmp233:
	@DEBUG_VALUE: mbedtls_x509write_crt_der:len <- $r1
	.loc	4 398 5                         @ ../../../ThirdParty/mbedTLS/library/x509write_crt.c:398:5
	ldr	r2, [sp, #20]                   @ 4-byte Reload
	adds	r1, r1, r2
.Ltmp234:
	@DEBUG_VALUE: mbedtls_x509write_crt_der:len <- $r1
	.loc	4 403 5                         @ ../../../ThirdParty/mbedTLS/library/x509write_crt.c:403:5
	ldr	r2, [sp, #28]                   @ 4-byte Reload
	adds	r1, r1, r2
.Ltmp235:
	@DEBUG_VALUE: mbedtls_x509write_crt_der:len <- $r1
	.loc	4 409 5                         @ ../../../ThirdParty/mbedTLS/library/x509write_crt.c:409:5
	adds	r5, r1, r0
.Ltmp236:
	@DEBUG_VALUE: mbedtls_x509write_crt_der:len <- $r5
	.loc	4 416 14                        @ ../../../ThirdParty/mbedTLS/library/x509write_crt.c:416:14
	ldr	r2, [r7]
.Ltmp237:
	.loc	4 416 9 is_stmt 0               @ ../../../ThirdParty/mbedTLS/library/x509write_crt.c:416:9
	cbz	r2, .LBB16_24
.Ltmp238:
@ %bb.20:
	@DEBUG_VALUE: mbedtls_x509write_crt_der:ctx <- $r7
	@DEBUG_VALUE: mbedtls_x509write_crt_der:len <- $r5
	@DEBUG_VALUE: mbedtls_x509write_crt_der:pub_len <- $r4
	@DEBUG_VALUE: mbedtls_x509write_crt_der:ret <- $r0
	@DEBUG_VALUE: mbedtls_x509write_crt_der:sig_oid <- [DW_OP_plus_uconst 28] [$sp+0]
	@DEBUG_VALUE: mbedtls_x509write_crt_der:sub_len <- [DW_OP_plus_uconst 36] [$sp+0]
	@DEBUG_VALUE: mbedtls_x509write_crt_der:c <- [DW_OP_plus_uconst 3200, DW_OP_deref] $sp
	@DEBUG_VALUE: mbedtls_x509write_crt_der:sig_oid_len <- [DW_OP_plus_uconst 3204, DW_OP_deref] $sp
	@DEBUG_VALUE: mbedtls_x509write_crt_der:buf <- [DW_OP_plus_uconst 48] [$sp+0]
	@DEBUG_VALUE: mbedtls_x509write_crt_der:size <- [DW_OP_plus_uconst 44] [$sp+0]
	@DEBUG_VALUE: mbedtls_x509write_crt_der:f_rng <- [DW_OP_plus_uconst 52] [$sp+0]
	@DEBUG_VALUE: mbedtls_x509write_crt_der:p_rng <- [DW_OP_plus_uconst 3232] [$sp+0]
	@DEBUG_VALUE: mbedtls_x509write_crt_der:sig_and_oid_len <- 0
	@DEBUG_VALUE: mbedtls_x509write_crt_der:c <- [DW_OP_plus_uconst 3200, DW_OP_deref] $sp
	@DEBUG_VALUE: mbedtls_x509write_crt_der:sub_len <- 0
	.loc	4 0 9                           @ ../../../ThirdParty/mbedTLS/library/x509write_crt.c:0:9
	str	r5, [sp, #40]                   @ 4-byte Spill
.Ltmp239:
	@DEBUG_VALUE: mbedtls_x509write_crt_der:len <- [DW_OP_plus_uconst 40] [$sp+0]
	ldr	r0, __arm_cp.16_6
.Ltmp240:
	add	r0, sp
	add	r1, sp, #60
.Ltmp241:
	.loc	4 419 9 is_stmt 1               @ ../../../ThirdParty/mbedTLS/library/x509write_crt.c:419:9
	bl	mbedtls_asn1_write_int
	mov	r5, r0
.Ltmp242:
	@DEBUG_VALUE: mbedtls_x509write_crt_der:ret <- $r5
	.loc	4 419 9 is_stmt 0               @ ../../../ThirdParty/mbedTLS/library/x509write_crt.c:419:9
	cmp	r0, #0
	bmi	.LBB16_43
.Ltmp243:
@ %bb.21:
	@DEBUG_VALUE: mbedtls_x509write_crt_der:len <- [DW_OP_plus_uconst 40] [$sp+0]
	@DEBUG_VALUE: mbedtls_x509write_crt_der:ctx <- $r7
	@DEBUG_VALUE: mbedtls_x509write_crt_der:ret <- $r5
	@DEBUG_VALUE: mbedtls_x509write_crt_der:pub_len <- $r4
	@DEBUG_VALUE: mbedtls_x509write_crt_der:sig_oid <- [DW_OP_plus_uconst 28] [$sp+0]
	@DEBUG_VALUE: mbedtls_x509write_crt_der:c <- [DW_OP_plus_uconst 3200, DW_OP_deref] $sp
	@DEBUG_VALUE: mbedtls_x509write_crt_der:sig_oid_len <- [DW_OP_plus_uconst 3204, DW_OP_deref] $sp
	@DEBUG_VALUE: mbedtls_x509write_crt_der:buf <- [DW_OP_plus_uconst 48] [$sp+0]
	@DEBUG_VALUE: mbedtls_x509write_crt_der:size <- [DW_OP_plus_uconst 44] [$sp+0]
	@DEBUG_VALUE: mbedtls_x509write_crt_der:f_rng <- [DW_OP_plus_uconst 52] [$sp+0]
	@DEBUG_VALUE: mbedtls_x509write_crt_der:p_rng <- [DW_OP_plus_uconst 3232] [$sp+0]
	@DEBUG_VALUE: mbedtls_x509write_crt_der:sub_len <- 0
	@DEBUG_VALUE: mbedtls_x509write_crt_der:sig_and_oid_len <- 0
	@DEBUG_VALUE: mbedtls_x509write_crt_der:len <- undef
	@DEBUG_VALUE: mbedtls_x509write_crt_der:c <- [DW_OP_plus_uconst 3200, DW_OP_deref] $sp
	@DEBUG_VALUE: mbedtls_x509write_crt_der:sub_len <- $r5
	.loc	4 0 9                           @ ../../../ThirdParty/mbedTLS/library/x509write_crt.c:0:9
	ldr	r0, __arm_cp.16_6
	add	r0, sp
	add	r1, sp, #60
.Ltmp244:
	.loc	4 421 9 is_stmt 1               @ ../../../ThirdParty/mbedTLS/library/x509write_crt.c:421:9
	mov	r2, r5
	bl	mbedtls_asn1_write_len
	mov	r4, r0
.Ltmp245:
	@DEBUG_VALUE: mbedtls_x509write_crt_der:ret <- $r4
	.loc	4 421 9 is_stmt 0               @ ../../../ThirdParty/mbedTLS/library/x509write_crt.c:421:9
	cmp	r0, #0
	bmi	.LBB16_46
.Ltmp246:
@ %bb.22:
	@DEBUG_VALUE: mbedtls_x509write_crt_der:ctx <- $r7
	@DEBUG_VALUE: mbedtls_x509write_crt_der:sub_len <- $r5
	@DEBUG_VALUE: mbedtls_x509write_crt_der:ret <- $r4
	@DEBUG_VALUE: mbedtls_x509write_crt_der:sig_oid <- [DW_OP_plus_uconst 28] [$sp+0]
	@DEBUG_VALUE: mbedtls_x509write_crt_der:c <- [DW_OP_plus_uconst 3200, DW_OP_deref] $sp
	@DEBUG_VALUE: mbedtls_x509write_crt_der:sig_oid_len <- [DW_OP_plus_uconst 3204, DW_OP_deref] $sp
	@DEBUG_VALUE: mbedtls_x509write_crt_der:buf <- [DW_OP_plus_uconst 48] [$sp+0]
	@DEBUG_VALUE: mbedtls_x509write_crt_der:size <- [DW_OP_plus_uconst 44] [$sp+0]
	@DEBUG_VALUE: mbedtls_x509write_crt_der:f_rng <- [DW_OP_plus_uconst 52] [$sp+0]
	@DEBUG_VALUE: mbedtls_x509write_crt_der:p_rng <- [DW_OP_plus_uconst 3232] [$sp+0]
	@DEBUG_VALUE: mbedtls_x509write_crt_der:sig_and_oid_len <- 0
	@DEBUG_VALUE: mbedtls_x509write_crt_der:len <- undef
	@DEBUG_VALUE: mbedtls_x509write_crt_der:c <- [DW_OP_plus_uconst 3200, DW_OP_deref] $sp
	.loc	4 0 9                           @ ../../../ThirdParty/mbedTLS/library/x509write_crt.c:0:9
	ldr	r0, __arm_cp.16_6
	add	r0, sp
	add	r1, sp, #60
	movs	r2, #160
.Ltmp247:
	.loc	4 422 9 is_stmt 1               @ ../../../ThirdParty/mbedTLS/library/x509write_crt.c:422:9
	bl	mbedtls_asn1_write_tag
.Ltmp248:
	@DEBUG_VALUE: mbedtls_x509write_crt_der:ret <- $r0
	.loc	4 422 9 is_stmt 0               @ ../../../ThirdParty/mbedTLS/library/x509write_crt.c:422:9
	cmp	r0, #0
	bmi	.LBB16_45
.Ltmp249:
@ %bb.23:
	@DEBUG_VALUE: mbedtls_x509write_crt_der:ctx <- $r7
	@DEBUG_VALUE: mbedtls_x509write_crt_der:sub_len <- $r5
	@DEBUG_VALUE: mbedtls_x509write_crt_der:ret <- $r0
	@DEBUG_VALUE: mbedtls_x509write_crt_der:sig_oid <- [DW_OP_plus_uconst 28] [$sp+0]
	@DEBUG_VALUE: mbedtls_x509write_crt_der:c <- [DW_OP_plus_uconst 3200, DW_OP_deref] $sp
	@DEBUG_VALUE: mbedtls_x509write_crt_der:sig_oid_len <- [DW_OP_plus_uconst 3204, DW_OP_deref] $sp
	@DEBUG_VALUE: mbedtls_x509write_crt_der:buf <- [DW_OP_plus_uconst 48] [$sp+0]
	@DEBUG_VALUE: mbedtls_x509write_crt_der:size <- [DW_OP_plus_uconst 44] [$sp+0]
	@DEBUG_VALUE: mbedtls_x509write_crt_der:f_rng <- [DW_OP_plus_uconst 52] [$sp+0]
	@DEBUG_VALUE: mbedtls_x509write_crt_der:p_rng <- [DW_OP_plus_uconst 3232] [$sp+0]
	@DEBUG_VALUE: mbedtls_x509write_crt_der:sig_and_oid_len <- 0
	.loc	4 420 13 is_stmt 1              @ ../../../ThirdParty/mbedTLS/library/x509write_crt.c:420:13
	ldr	r1, [sp, #40]                   @ 4-byte Reload
	adds	r1, r5, r1
.Ltmp250:
	@DEBUG_VALUE: mbedtls_x509write_crt_der:len <- $r1
	.loc	4 421 9                         @ ../../../ThirdParty/mbedTLS/library/x509write_crt.c:421:9
	adds	r1, r1, r4
.Ltmp251:
	@DEBUG_VALUE: mbedtls_x509write_crt_der:len <- $r1
	.loc	4 422 9                         @ ../../../ThirdParty/mbedTLS/library/x509write_crt.c:422:9
	adds	r5, r1, r0
.Ltmp252:
	@DEBUG_VALUE: mbedtls_x509write_crt_der:len <- $r5
.LBB16_24:
	@DEBUG_VALUE: mbedtls_x509write_crt_der:ctx <- $r7
	@DEBUG_VALUE: mbedtls_x509write_crt_der:len <- $r5
	@DEBUG_VALUE: mbedtls_x509write_crt_der:ret <- $r0
	@DEBUG_VALUE: mbedtls_x509write_crt_der:sig_oid <- [DW_OP_plus_uconst 28] [$sp+0]
	@DEBUG_VALUE: mbedtls_x509write_crt_der:c <- [DW_OP_plus_uconst 3200, DW_OP_deref] $sp
	@DEBUG_VALUE: mbedtls_x509write_crt_der:sig_oid_len <- [DW_OP_plus_uconst 3204, DW_OP_deref] $sp
	@DEBUG_VALUE: mbedtls_x509write_crt_der:buf <- [DW_OP_plus_uconst 48] [$sp+0]
	@DEBUG_VALUE: mbedtls_x509write_crt_der:size <- [DW_OP_plus_uconst 44] [$sp+0]
	@DEBUG_VALUE: mbedtls_x509write_crt_der:f_rng <- [DW_OP_plus_uconst 52] [$sp+0]
	@DEBUG_VALUE: mbedtls_x509write_crt_der:p_rng <- [DW_OP_plus_uconst 3232] [$sp+0]
	@DEBUG_VALUE: mbedtls_x509write_crt_der:sig_and_oid_len <- 0
	@DEBUG_VALUE: mbedtls_x509write_crt_der:len <- $r5
	@DEBUG_VALUE: mbedtls_x509write_crt_der:c <- [DW_OP_plus_uconst 3200, DW_OP_deref] $sp
	.loc	4 0 9 is_stmt 0                 @ ../../../ThirdParty/mbedTLS/library/x509write_crt.c:0:9
	ldr	r0, __arm_cp.16_6
.Ltmp253:
	add	r0, sp
	add	r1, sp, #60
.Ltmp254:
	.loc	4 426 5 is_stmt 1               @ ../../../ThirdParty/mbedTLS/library/x509write_crt.c:426:5
	mov	r2, r5
	bl	mbedtls_asn1_write_len
	mov	r4, r0
.Ltmp255:
	@DEBUG_VALUE: mbedtls_x509write_crt_der:ret <- $r4
	.loc	4 426 5 is_stmt 0               @ ../../../ThirdParty/mbedTLS/library/x509write_crt.c:426:5
	cmp	r0, #0
	bmi	.LBB16_46
.Ltmp256:
@ %bb.25:
	@DEBUG_VALUE: mbedtls_x509write_crt_der:ctx <- $r7
	@DEBUG_VALUE: mbedtls_x509write_crt_der:len <- $r5
	@DEBUG_VALUE: mbedtls_x509write_crt_der:ret <- $r4
	@DEBUG_VALUE: mbedtls_x509write_crt_der:sig_oid <- [DW_OP_plus_uconst 28] [$sp+0]
	@DEBUG_VALUE: mbedtls_x509write_crt_der:c <- [DW_OP_plus_uconst 3200, DW_OP_deref] $sp
	@DEBUG_VALUE: mbedtls_x509write_crt_der:sig_oid_len <- [DW_OP_plus_uconst 3204, DW_OP_deref] $sp
	@DEBUG_VALUE: mbedtls_x509write_crt_der:buf <- [DW_OP_plus_uconst 48] [$sp+0]
	@DEBUG_VALUE: mbedtls_x509write_crt_der:size <- [DW_OP_plus_uconst 44] [$sp+0]
	@DEBUG_VALUE: mbedtls_x509write_crt_der:f_rng <- [DW_OP_plus_uconst 52] [$sp+0]
	@DEBUG_VALUE: mbedtls_x509write_crt_der:p_rng <- [DW_OP_plus_uconst 3232] [$sp+0]
	@DEBUG_VALUE: mbedtls_x509write_crt_der:sig_and_oid_len <- 0
	@DEBUG_VALUE: mbedtls_x509write_crt_der:len <- undef
	@DEBUG_VALUE: mbedtls_x509write_crt_der:c <- [DW_OP_plus_uconst 3200, DW_OP_deref] $sp
	.loc	4 0 5                           @ ../../../ThirdParty/mbedTLS/library/x509write_crt.c:0:5
	ldr	r0, __arm_cp.16_6
	add	r0, sp
	add	r1, sp, #60
	movs	r2, #48
.Ltmp257:
	.loc	4 427 5 is_stmt 1               @ ../../../ThirdParty/mbedTLS/library/x509write_crt.c:427:5
	bl	mbedtls_asn1_write_tag
.Ltmp258:
	@DEBUG_VALUE: mbedtls_x509write_crt_der:ret <- $r0
	.loc	4 427 5 is_stmt 0               @ ../../../ThirdParty/mbedTLS/library/x509write_crt.c:427:5
	cmp	r0, #0
	bmi	.LBB16_44
.Ltmp259:
@ %bb.26:
	@DEBUG_VALUE: mbedtls_x509write_crt_der:ctx <- $r7
	@DEBUG_VALUE: mbedtls_x509write_crt_der:ret <- $r0
	@DEBUG_VALUE: mbedtls_x509write_crt_der:sig_oid <- [DW_OP_plus_uconst 28] [$sp+0]
	@DEBUG_VALUE: mbedtls_x509write_crt_der:c <- [DW_OP_plus_uconst 3200, DW_OP_deref] $sp
	@DEBUG_VALUE: mbedtls_x509write_crt_der:sig_oid_len <- [DW_OP_plus_uconst 3204, DW_OP_deref] $sp
	@DEBUG_VALUE: mbedtls_x509write_crt_der:buf <- [DW_OP_plus_uconst 48] [$sp+0]
	@DEBUG_VALUE: mbedtls_x509write_crt_der:size <- [DW_OP_plus_uconst 44] [$sp+0]
	@DEBUG_VALUE: mbedtls_x509write_crt_der:f_rng <- [DW_OP_plus_uconst 52] [$sp+0]
	@DEBUG_VALUE: mbedtls_x509write_crt_der:p_rng <- [DW_OP_plus_uconst 3232] [$sp+0]
	@DEBUG_VALUE: mbedtls_x509write_crt_der:sig_and_oid_len <- 0
	.loc	4 0 5                           @ ../../../ThirdParty/mbedTLS/library/x509write_crt.c:0:5
	mov	r1, r5
	mov	r5, r7
	adds	r5, #32
.Ltmp260:
	.loc	4 426 5 is_stmt 1               @ ../../../ThirdParty/mbedTLS/library/x509write_crt.c:426:5
	adds	r1, r4, r1
.Ltmp261:
	@DEBUG_VALUE: mbedtls_x509write_crt_der:len <- $r1
	.loc	4 427 5                         @ ../../../ThirdParty/mbedTLS/library/x509write_crt.c:427:5
	adds	r4, r1, r0
.Ltmp262:
	@DEBUG_VALUE: mbedtls_x509write_crt_der:len <- $r4
	.loc	4 433 61                        @ ../../../ThirdParty/mbedTLS/library/x509write_crt.c:433:61
	ldrb	r0, [r5]
.Ltmp263:
	.loc	4 433 29 is_stmt 0              @ ../../../ThirdParty/mbedTLS/library/x509write_crt.c:433:29
	bl	mbedtls_md_info_from_type
	.loc	4 433 71                        @ ../../../ThirdParty/mbedTLS/library/x509write_crt.c:433:71
	ldr	r1, [r6, #4]
.Ltmp264:
	@DEBUG_VALUE: mbedtls_x509write_crt_der:c <- $r1
	.loc	4 0 71                          @ ../../../ThirdParty/mbedTLS/library/x509write_crt.c:0:71
	ldr	r3, __arm_cp.16_7
	add	r3, sp
	str	r4, [sp, #40]                   @ 4-byte Spill
.Ltmp265:
	@DEBUG_VALUE: mbedtls_x509write_crt_der:len <- [DW_OP_plus_uconst 40] [$sp+0]
	.loc	4 433 17                        @ ../../../ThirdParty/mbedTLS/library/x509write_crt.c:433:17
	mov	r2, r4
	bl	mbedtls_md
.Ltmp266:
	mov	r4, r0
.Ltmp267:
	@DEBUG_VALUE: mbedtls_x509write_crt_der:ret <- $r4
	.loc	4 433 9                         @ ../../../ThirdParty/mbedTLS/library/x509write_crt.c:433:9
	cmp	r0, #0
	bne	.LBB16_46
.Ltmp268:
@ %bb.27:
	@DEBUG_VALUE: mbedtls_x509write_crt_der:ctx <- $r7
	@DEBUG_VALUE: mbedtls_x509write_crt_der:ret <- $r4
	@DEBUG_VALUE: mbedtls_x509write_crt_der:len <- [DW_OP_plus_uconst 40] [$sp+0]
	@DEBUG_VALUE: mbedtls_x509write_crt_der:sig_oid <- [DW_OP_plus_uconst 28] [$sp+0]
	@DEBUG_VALUE: mbedtls_x509write_crt_der:sig_oid_len <- [DW_OP_plus_uconst 3204, DW_OP_deref] $sp
	@DEBUG_VALUE: mbedtls_x509write_crt_der:buf <- [DW_OP_plus_uconst 48] [$sp+0]
	@DEBUG_VALUE: mbedtls_x509write_crt_der:size <- [DW_OP_plus_uconst 44] [$sp+0]
	@DEBUG_VALUE: mbedtls_x509write_crt_der:f_rng <- [DW_OP_plus_uconst 52] [$sp+0]
	@DEBUG_VALUE: mbedtls_x509write_crt_der:p_rng <- [DW_OP_plus_uconst 3232] [$sp+0]
	@DEBUG_VALUE: mbedtls_x509write_crt_der:sig_and_oid_len <- 0
	.loc	4 0 9                           @ ../../../ThirdParty/mbedTLS/library/x509write_crt.c:0:9
	ldr	r2, __arm_cp.16_8
	add	r2, sp
	ldr	r2, [r2]
.Ltmp269:
	.loc	4 439 56 is_stmt 1              @ ../../../ThirdParty/mbedTLS/library/x509write_crt.c:439:56
	ldrb	r1, [r5]
	.loc	4 439 39 is_stmt 0              @ ../../../ThirdParty/mbedTLS/library/x509write_crt.c:439:39
	ldr	r0, [r7, #20]
.Ltmp270:
	@DEBUG_VALUE: mbedtls_x509write_crt_der:sig_len <- [DW_OP_plus_uconst 56, DW_OP_deref] $sp
	.loc	4 439 17                        @ ../../../ThirdParty/mbedTLS/library/x509write_crt.c:439:17
	str	r2, [sp, #12]
	ldr	r2, [sp, #52]                   @ 4-byte Reload
	str	r2, [sp, #8]
	add	r2, sp, #56
	str	r2, [sp, #4]
	ldr	r2, __arm_cp.16_9
	add	r2, sp
	str	r2, [sp]
	ldr	r2, __arm_cp.16_7
	add	r2, sp
	movs	r3, #0
	bl	mbedtls_pk_sign
	mov	r4, r0
.Ltmp271:
	@DEBUG_VALUE: mbedtls_x509write_crt_der:ret <- $r4
	.loc	4 439 9                         @ ../../../ThirdParty/mbedTLS/library/x509write_crt.c:439:9
	cbnz	r0, .LBB16_46
.Ltmp272:
@ %bb.28:
	@DEBUG_VALUE: mbedtls_x509write_crt_der:ctx <- $r7
	@DEBUG_VALUE: mbedtls_x509write_crt_der:ret <- $r4
	@DEBUG_VALUE: mbedtls_x509write_crt_der:sig_len <- [DW_OP_plus_uconst 56, DW_OP_deref] $sp
	@DEBUG_VALUE: mbedtls_x509write_crt_der:len <- [DW_OP_plus_uconst 40] [$sp+0]
	@DEBUG_VALUE: mbedtls_x509write_crt_der:sig_oid <- [DW_OP_plus_uconst 28] [$sp+0]
	@DEBUG_VALUE: mbedtls_x509write_crt_der:sig_oid_len <- [DW_OP_plus_uconst 3204, DW_OP_deref] $sp
	@DEBUG_VALUE: mbedtls_x509write_crt_der:buf <- [DW_OP_plus_uconst 48] [$sp+0]
	@DEBUG_VALUE: mbedtls_x509write_crt_der:size <- [DW_OP_plus_uconst 44] [$sp+0]
	@DEBUG_VALUE: mbedtls_x509write_crt_der:f_rng <- [DW_OP_plus_uconst 52] [$sp+0]
	@DEBUG_VALUE: mbedtls_x509write_crt_der:p_rng <- [DW_OP_plus_uconst 3232] [$sp+0]
	@DEBUG_VALUE: mbedtls_x509write_crt_der:sig_and_oid_len <- 0
	.loc	4 0 9                           @ ../../../ThirdParty/mbedTLS/library/x509write_crt.c:0:9
	ldr	r1, [sp, #48]                   @ 4-byte Reload
	.loc	4 448 14 is_stmt 1              @ ../../../ThirdParty/mbedTLS/library/x509write_crt.c:448:14
	ldr	r0, [sp, #44]                   @ 4-byte Reload
	adds	r0, r1, r0
.Ltmp273:
	@DEBUG_VALUE: mbedtls_x509write_crt_der:c2 <- $r0
	.loc	4 448 8 is_stmt 0               @ ../../../ThirdParty/mbedTLS/library/x509write_crt.c:448:8
	str	r0, [r6]
.Ltmp274:
	@DEBUG_VALUE: mbedtls_x509write_crt_der:sig_oid <- undef
	@DEBUG_VALUE: mbedtls_x509write_crt_der:sig_oid_len <- undef
	.loc	4 449 5 is_stmt 1               @ ../../../ThirdParty/mbedTLS/library/x509write_crt.c:449:5
	ldr	r3, [r6, #8]
	ldr	r2, [r6, #12]
	ldr	r0, [sp, #56]
.Ltmp275:
	@DEBUG_VALUE: mbedtls_x509write_crt_der:c2 <- [DW_OP_plus_uconst 3196, DW_OP_deref] $sp
	@DEBUG_VALUE: mbedtls_x509write_crt_der:sig_len <- $r0
	str	r0, [sp, #4]
	ldr	r0, __arm_cp.16_9
.Ltmp276:
	.loc	4 0 5 is_stmt 0                 @ ../../../ThirdParty/mbedTLS/library/x509write_crt.c:0:5
	add	r0, sp
	.loc	4 449 5                         @ ../../../ThirdParty/mbedTLS/library/x509write_crt.c:449:5
	str	r0, [sp]
	ldr	r0, __arm_cp.16_3
	add	r0, sp
	bl	mbedtls_x509_write_sig
	mov	r4, r0
.Ltmp277:
	@DEBUG_VALUE: mbedtls_x509write_crt_der:ret <- $r4
	.loc	4 449 5                         @ ../../../ThirdParty/mbedTLS/library/x509write_crt.c:449:5
	cmp	r0, #0
	bmi	.LBB16_46
.Ltmp278:
@ %bb.29:
	@DEBUG_VALUE: mbedtls_x509write_crt_der:ctx <- $r7
	@DEBUG_VALUE: mbedtls_x509write_crt_der:ret <- $r4
	@DEBUG_VALUE: mbedtls_x509write_crt_der:c2 <- [DW_OP_plus_uconst 3196, DW_OP_deref] $sp
	@DEBUG_VALUE: mbedtls_x509write_crt_der:len <- [DW_OP_plus_uconst 40] [$sp+0]
	@DEBUG_VALUE: mbedtls_x509write_crt_der:buf <- [DW_OP_plus_uconst 48] [$sp+0]
	@DEBUG_VALUE: mbedtls_x509write_crt_der:size <- [DW_OP_plus_uconst 44] [$sp+0]
	@DEBUG_VALUE: mbedtls_x509write_crt_der:f_rng <- [DW_OP_plus_uconst 52] [$sp+0]
	@DEBUG_VALUE: mbedtls_x509write_crt_der:p_rng <- [DW_OP_plus_uconst 3232] [$sp+0]
	@DEBUG_VALUE: mbedtls_x509write_crt_der:sig_and_oid_len <- 0
	@DEBUG_VALUE: mbedtls_x509write_crt_der:sig_and_oid_len <- $r4
	.loc	4 452 25 is_stmt 1              @ ../../../ThirdParty/mbedTLS/library/x509write_crt.c:452:25
	ldr	r0, [r6]
.Ltmp279:
	@DEBUG_VALUE: mbedtls_x509write_crt_der:c2 <- $r0
	.loc	4 452 28 is_stmt 0              @ ../../../ThirdParty/mbedTLS/library/x509write_crt.c:452:28
	ldr	r1, [sp, #48]                   @ 4-byte Reload
	subs	r1, r0, r1
.Ltmp280:
	.loc	4 452 9                         @ ../../../ThirdParty/mbedTLS/library/x509write_crt.c:452:9
	ldr	r2, [sp, #40]                   @ 4-byte Reload
	cmp	r2, r1
	bls	.LBB16_47
.Ltmp281:
@ %bb.30:
	@DEBUG_VALUE: mbedtls_x509write_crt_der:ctx <- $r7
	@DEBUG_VALUE: mbedtls_x509write_crt_der:sig_and_oid_len <- $r4
	@DEBUG_VALUE: mbedtls_x509write_crt_der:ret <- $r4
	@DEBUG_VALUE: mbedtls_x509write_crt_der:c2 <- $r0
	@DEBUG_VALUE: mbedtls_x509write_crt_der:len <- [DW_OP_plus_uconst 40] [$sp+0]
	@DEBUG_VALUE: mbedtls_x509write_crt_der:buf <- [DW_OP_plus_uconst 48] [$sp+0]
	@DEBUG_VALUE: mbedtls_x509write_crt_der:size <- [DW_OP_plus_uconst 44] [$sp+0]
	@DEBUG_VALUE: mbedtls_x509write_crt_der:f_rng <- [DW_OP_plus_uconst 52] [$sp+0]
	@DEBUG_VALUE: mbedtls_x509write_crt_der:p_rng <- [DW_OP_plus_uconst 3232] [$sp+0]
	.loc	4 0 9                           @ ../../../ThirdParty/mbedTLS/library/x509write_crt.c:0:9
	movs	r0, #107
.Ltmp282:
	mvns	r4, r0
.Ltmp283:
	b	.LBB16_46
.Ltmp284:
.LBB16_31:
	@DEBUG_VALUE: mbedtls_x509write_crt_der:ctx <- $r7
	@DEBUG_VALUE: mbedtls_x509write_crt_der:buf <- [DW_OP_plus_uconst 48] [$sp+0]
	@DEBUG_VALUE: mbedtls_x509write_crt_der:size <- [DW_OP_plus_uconst 44] [$sp+0]
	@DEBUG_VALUE: mbedtls_x509write_crt_der:f_rng <- [DW_OP_plus_uconst 52] [$sp+0]
	@DEBUG_VALUE: mbedtls_x509write_crt_der:p_rng <- [DW_OP_plus_uconst 3232] [$sp+0]
	@DEBUG_VALUE: mbedtls_x509write_crt_der:sub_len <- 0
	@DEBUG_VALUE: mbedtls_x509write_crt_der:pub_len <- 0
	@DEBUG_VALUE: mbedtls_x509write_crt_der:sig_and_oid_len <- 0
	@DEBUG_VALUE: mbedtls_x509write_crt_der:len <- 0
	@DEBUG_VALUE: mbedtls_x509write_crt_der:sig_oid_len <- 0
	ldr	r4, __arm_cp.16_0
	b	.LBB16_46
.Ltmp285:
.LBB16_32:
	@DEBUG_VALUE: mbedtls_x509write_crt_der:ctx <- $r7
	@DEBUG_VALUE: mbedtls_x509write_crt_der:ret <- $r5
	@DEBUG_VALUE: mbedtls_x509write_crt_der:c <- [DW_OP_plus_uconst 3200, DW_OP_deref] $sp
	@DEBUG_VALUE: mbedtls_x509write_crt_der:sig_oid_len <- [DW_OP_plus_uconst 3204, DW_OP_deref] $sp
	@DEBUG_VALUE: mbedtls_x509write_crt_der:sig_oid <- [DW_OP_plus_uconst 3208, DW_OP_deref] $sp
	@DEBUG_VALUE: mbedtls_x509write_crt_der:buf <- [DW_OP_plus_uconst 48] [$sp+0]
	@DEBUG_VALUE: mbedtls_x509write_crt_der:size <- [DW_OP_plus_uconst 44] [$sp+0]
	@DEBUG_VALUE: mbedtls_x509write_crt_der:f_rng <- [DW_OP_plus_uconst 52] [$sp+0]
	@DEBUG_VALUE: mbedtls_x509write_crt_der:p_rng <- [DW_OP_plus_uconst 3232] [$sp+0]
	@DEBUG_VALUE: mbedtls_x509write_crt_der:sub_len <- 0
	@DEBUG_VALUE: mbedtls_x509write_crt_der:pub_len <- 0
	@DEBUG_VALUE: mbedtls_x509write_crt_der:sig_and_oid_len <- 0
	@DEBUG_VALUE: mbedtls_x509write_crt_der:len <- 0
	mov	r4, r5
.Ltmp286:
	@DEBUG_VALUE: mbedtls_x509write_crt_der:ret <- $r4
	b	.LBB16_46
.Ltmp287:
.LBB16_33:
	@DEBUG_VALUE: mbedtls_x509write_crt_der:ctx <- $r7
	@DEBUG_VALUE: mbedtls_x509write_crt_der:pub_len <- $r4
	@DEBUG_VALUE: mbedtls_x509write_crt_der:ret <- $r0
	@DEBUG_VALUE: mbedtls_x509write_crt_der:c <- [DW_OP_plus_uconst 3200, DW_OP_deref] $sp
	@DEBUG_VALUE: mbedtls_x509write_crt_der:sig_oid_len <- [DW_OP_plus_uconst 3204, DW_OP_deref] $sp
	@DEBUG_VALUE: mbedtls_x509write_crt_der:sig_oid <- [DW_OP_plus_uconst 3208, DW_OP_deref] $sp
	@DEBUG_VALUE: mbedtls_x509write_crt_der:buf <- [DW_OP_plus_uconst 48] [$sp+0]
	@DEBUG_VALUE: mbedtls_x509write_crt_der:size <- [DW_OP_plus_uconst 44] [$sp+0]
	@DEBUG_VALUE: mbedtls_x509write_crt_der:f_rng <- [DW_OP_plus_uconst 52] [$sp+0]
	@DEBUG_VALUE: mbedtls_x509write_crt_der:p_rng <- [DW_OP_plus_uconst 3232] [$sp+0]
	@DEBUG_VALUE: mbedtls_x509write_crt_der:sub_len <- 0
	@DEBUG_VALUE: mbedtls_x509write_crt_der:sig_and_oid_len <- 0
	mov	r4, r0
.Ltmp288:
	@DEBUG_VALUE: mbedtls_x509write_crt_der:ret <- $r4
	b	.LBB16_46
.Ltmp289:
.LBB16_34:
	@DEBUG_VALUE: mbedtls_x509write_crt_der:ctx <- $r7
	@DEBUG_VALUE: mbedtls_x509write_crt_der:pub_len <- $r4
	@DEBUG_VALUE: mbedtls_x509write_crt_der:ret <- $r0
	@DEBUG_VALUE: mbedtls_x509write_crt_der:c <- [DW_OP_plus_uconst 3200, DW_OP_deref] $sp
	@DEBUG_VALUE: mbedtls_x509write_crt_der:sig_oid_len <- [DW_OP_plus_uconst 3204, DW_OP_deref] $sp
	@DEBUG_VALUE: mbedtls_x509write_crt_der:sig_oid <- [DW_OP_plus_uconst 3208, DW_OP_deref] $sp
	@DEBUG_VALUE: mbedtls_x509write_crt_der:buf <- [DW_OP_plus_uconst 48] [$sp+0]
	@DEBUG_VALUE: mbedtls_x509write_crt_der:size <- [DW_OP_plus_uconst 44] [$sp+0]
	@DEBUG_VALUE: mbedtls_x509write_crt_der:f_rng <- [DW_OP_plus_uconst 52] [$sp+0]
	@DEBUG_VALUE: mbedtls_x509write_crt_der:p_rng <- [DW_OP_plus_uconst 3232] [$sp+0]
	@DEBUG_VALUE: mbedtls_x509write_crt_der:sub_len <- 0
	@DEBUG_VALUE: mbedtls_x509write_crt_der:sig_and_oid_len <- 0
	mov	r4, r0
.Ltmp290:
	@DEBUG_VALUE: mbedtls_x509write_crt_der:ret <- $r4
	b	.LBB16_46
.Ltmp291:
.LBB16_35:
	@DEBUG_VALUE: mbedtls_x509write_crt_der:ctx <- $r7
	@DEBUG_VALUE: mbedtls_x509write_crt_der:ret <- $r0
	@DEBUG_VALUE: mbedtls_x509write_crt_der:c <- [DW_OP_plus_uconst 3200, DW_OP_deref] $sp
	@DEBUG_VALUE: mbedtls_x509write_crt_der:sig_oid_len <- [DW_OP_plus_uconst 3204, DW_OP_deref] $sp
	@DEBUG_VALUE: mbedtls_x509write_crt_der:sig_oid <- [DW_OP_plus_uconst 3208, DW_OP_deref] $sp
	@DEBUG_VALUE: mbedtls_x509write_crt_der:buf <- [DW_OP_plus_uconst 48] [$sp+0]
	@DEBUG_VALUE: mbedtls_x509write_crt_der:size <- [DW_OP_plus_uconst 44] [$sp+0]
	@DEBUG_VALUE: mbedtls_x509write_crt_der:f_rng <- [DW_OP_plus_uconst 52] [$sp+0]
	@DEBUG_VALUE: mbedtls_x509write_crt_der:p_rng <- [DW_OP_plus_uconst 3232] [$sp+0]
	@DEBUG_VALUE: mbedtls_x509write_crt_der:sub_len <- 0
	@DEBUG_VALUE: mbedtls_x509write_crt_der:pub_len <- 0
	@DEBUG_VALUE: mbedtls_x509write_crt_der:sig_and_oid_len <- 0
	mov	r4, r0
.Ltmp292:
	@DEBUG_VALUE: mbedtls_x509write_crt_der:ret <- $r4
	b	.LBB16_46
.Ltmp293:
.LBB16_36:
	@DEBUG_VALUE: mbedtls_x509write_crt_der:ctx <- $r7
	@DEBUG_VALUE: mbedtls_x509write_crt_der:pub_len <- $r4
	@DEBUG_VALUE: mbedtls_x509write_crt_der:ret <- $r0
	@DEBUG_VALUE: mbedtls_x509write_crt_der:sub_len <- [DW_OP_plus_uconst 36] [$sp+0]
	@DEBUG_VALUE: mbedtls_x509write_crt_der:c <- [DW_OP_plus_uconst 3200, DW_OP_deref] $sp
	@DEBUG_VALUE: mbedtls_x509write_crt_der:sig_oid_len <- [DW_OP_plus_uconst 3204, DW_OP_deref] $sp
	@DEBUG_VALUE: mbedtls_x509write_crt_der:sig_oid <- [DW_OP_plus_uconst 3208, DW_OP_deref] $sp
	@DEBUG_VALUE: mbedtls_x509write_crt_der:buf <- [DW_OP_plus_uconst 48] [$sp+0]
	@DEBUG_VALUE: mbedtls_x509write_crt_der:size <- [DW_OP_plus_uconst 44] [$sp+0]
	@DEBUG_VALUE: mbedtls_x509write_crt_der:f_rng <- [DW_OP_plus_uconst 52] [$sp+0]
	@DEBUG_VALUE: mbedtls_x509write_crt_der:p_rng <- [DW_OP_plus_uconst 3232] [$sp+0]
	@DEBUG_VALUE: mbedtls_x509write_crt_der:sig_and_oid_len <- 0
	mov	r4, r0
.Ltmp294:
	@DEBUG_VALUE: mbedtls_x509write_crt_der:ret <- $r4
	b	.LBB16_46
.Ltmp295:
.LBB16_37:
	@DEBUG_VALUE: mbedtls_x509write_crt_der:ctx <- $r7
	@DEBUG_VALUE: mbedtls_x509write_crt_der:pub_len <- $r4
	@DEBUG_VALUE: mbedtls_x509write_crt_der:ret <- $r0
	@DEBUG_VALUE: mbedtls_x509write_crt_der:sub_len <- [DW_OP_plus_uconst 36] [$sp+0]
	@DEBUG_VALUE: mbedtls_x509write_crt_der:c <- [DW_OP_plus_uconst 3200, DW_OP_deref] $sp
	@DEBUG_VALUE: mbedtls_x509write_crt_der:sig_oid_len <- [DW_OP_plus_uconst 3204, DW_OP_deref] $sp
	@DEBUG_VALUE: mbedtls_x509write_crt_der:sig_oid <- [DW_OP_plus_uconst 3208, DW_OP_deref] $sp
	@DEBUG_VALUE: mbedtls_x509write_crt_der:buf <- [DW_OP_plus_uconst 48] [$sp+0]
	@DEBUG_VALUE: mbedtls_x509write_crt_der:size <- [DW_OP_plus_uconst 44] [$sp+0]
	@DEBUG_VALUE: mbedtls_x509write_crt_der:f_rng <- [DW_OP_plus_uconst 52] [$sp+0]
	@DEBUG_VALUE: mbedtls_x509write_crt_der:p_rng <- [DW_OP_plus_uconst 3232] [$sp+0]
	@DEBUG_VALUE: mbedtls_x509write_crt_der:sig_and_oid_len <- 0
	mov	r4, r0
.Ltmp296:
	@DEBUG_VALUE: mbedtls_x509write_crt_der:ret <- $r4
	b	.LBB16_46
.Ltmp297:
.LBB16_38:
	@DEBUG_VALUE: mbedtls_x509write_crt_der:ctx <- $r7
	@DEBUG_VALUE: mbedtls_x509write_crt_der:ret <- $r0
	@DEBUG_VALUE: mbedtls_x509write_crt_der:c <- [DW_OP_plus_uconst 3200, DW_OP_deref] $sp
	@DEBUG_VALUE: mbedtls_x509write_crt_der:sig_oid_len <- [DW_OP_plus_uconst 3204, DW_OP_deref] $sp
	@DEBUG_VALUE: mbedtls_x509write_crt_der:sig_oid <- [DW_OP_plus_uconst 3208, DW_OP_deref] $sp
	@DEBUG_VALUE: mbedtls_x509write_crt_der:buf <- [DW_OP_plus_uconst 48] [$sp+0]
	@DEBUG_VALUE: mbedtls_x509write_crt_der:size <- [DW_OP_plus_uconst 44] [$sp+0]
	@DEBUG_VALUE: mbedtls_x509write_crt_der:f_rng <- [DW_OP_plus_uconst 52] [$sp+0]
	@DEBUG_VALUE: mbedtls_x509write_crt_der:p_rng <- [DW_OP_plus_uconst 3232] [$sp+0]
	@DEBUG_VALUE: mbedtls_x509write_crt_der:sub_len <- 0
	@DEBUG_VALUE: mbedtls_x509write_crt_der:pub_len <- 0
	@DEBUG_VALUE: mbedtls_x509write_crt_der:sig_and_oid_len <- 0
	mov	r4, r0
.Ltmp298:
	@DEBUG_VALUE: mbedtls_x509write_crt_der:ret <- $r4
	b	.LBB16_46
.Ltmp299:
.LBB16_39:
	@DEBUG_VALUE: mbedtls_x509write_crt_der:ctx <- $r7
	@DEBUG_VALUE: mbedtls_x509write_crt_der:pub_len <- $r4
	@DEBUG_VALUE: mbedtls_x509write_crt_der:ret <- $r0
	@DEBUG_VALUE: mbedtls_x509write_crt_der:sub_len <- [DW_OP_plus_uconst 36] [$sp+0]
	@DEBUG_VALUE: mbedtls_x509write_crt_der:c <- [DW_OP_plus_uconst 3200, DW_OP_deref] $sp
	@DEBUG_VALUE: mbedtls_x509write_crt_der:sig_oid_len <- [DW_OP_plus_uconst 3204, DW_OP_deref] $sp
	@DEBUG_VALUE: mbedtls_x509write_crt_der:sig_oid <- [DW_OP_plus_uconst 3208, DW_OP_deref] $sp
	@DEBUG_VALUE: mbedtls_x509write_crt_der:buf <- [DW_OP_plus_uconst 48] [$sp+0]
	@DEBUG_VALUE: mbedtls_x509write_crt_der:size <- [DW_OP_plus_uconst 44] [$sp+0]
	@DEBUG_VALUE: mbedtls_x509write_crt_der:f_rng <- [DW_OP_plus_uconst 52] [$sp+0]
	@DEBUG_VALUE: mbedtls_x509write_crt_der:p_rng <- [DW_OP_plus_uconst 3232] [$sp+0]
	@DEBUG_VALUE: mbedtls_x509write_crt_der:sig_and_oid_len <- 0
	mov	r4, r0
.Ltmp300:
	@DEBUG_VALUE: mbedtls_x509write_crt_der:ret <- $r4
	b	.LBB16_46
.Ltmp301:
.LBB16_40:
	@DEBUG_VALUE: mbedtls_x509write_crt_der:ctx <- $r7
	@DEBUG_VALUE: mbedtls_x509write_crt_der:pub_len <- $r4
	@DEBUG_VALUE: mbedtls_x509write_crt_der:ret <- $r0
	@DEBUG_VALUE: mbedtls_x509write_crt_der:sub_len <- [DW_OP_plus_uconst 36] [$sp+0]
	@DEBUG_VALUE: mbedtls_x509write_crt_der:c <- [DW_OP_plus_uconst 3200, DW_OP_deref] $sp
	@DEBUG_VALUE: mbedtls_x509write_crt_der:sig_oid_len <- [DW_OP_plus_uconst 3204, DW_OP_deref] $sp
	@DEBUG_VALUE: mbedtls_x509write_crt_der:sig_oid <- [DW_OP_plus_uconst 3208, DW_OP_deref] $sp
	@DEBUG_VALUE: mbedtls_x509write_crt_der:buf <- [DW_OP_plus_uconst 48] [$sp+0]
	@DEBUG_VALUE: mbedtls_x509write_crt_der:size <- [DW_OP_plus_uconst 44] [$sp+0]
	@DEBUG_VALUE: mbedtls_x509write_crt_der:f_rng <- [DW_OP_plus_uconst 52] [$sp+0]
	@DEBUG_VALUE: mbedtls_x509write_crt_der:p_rng <- [DW_OP_plus_uconst 3232] [$sp+0]
	@DEBUG_VALUE: mbedtls_x509write_crt_der:sig_and_oid_len <- 0
	mov	r4, r0
.Ltmp302:
	@DEBUG_VALUE: mbedtls_x509write_crt_der:ret <- $r4
	b	.LBB16_46
.Ltmp303:
.LBB16_41:
	@DEBUG_VALUE: mbedtls_x509write_crt_der:ctx <- $r7
	@DEBUG_VALUE: mbedtls_x509write_crt_der:pub_len <- $r4
	@DEBUG_VALUE: mbedtls_x509write_crt_der:ret <- $r0
	@DEBUG_VALUE: mbedtls_x509write_crt_der:sig_oid <- [DW_OP_plus_uconst 28] [$sp+0]
	@DEBUG_VALUE: mbedtls_x509write_crt_der:sub_len <- [DW_OP_plus_uconst 36] [$sp+0]
	@DEBUG_VALUE: mbedtls_x509write_crt_der:c <- [DW_OP_plus_uconst 3200, DW_OP_deref] $sp
	@DEBUG_VALUE: mbedtls_x509write_crt_der:sig_oid_len <- [DW_OP_plus_uconst 3204, DW_OP_deref] $sp
	@DEBUG_VALUE: mbedtls_x509write_crt_der:buf <- [DW_OP_plus_uconst 48] [$sp+0]
	@DEBUG_VALUE: mbedtls_x509write_crt_der:size <- [DW_OP_plus_uconst 44] [$sp+0]
	@DEBUG_VALUE: mbedtls_x509write_crt_der:f_rng <- [DW_OP_plus_uconst 52] [$sp+0]
	@DEBUG_VALUE: mbedtls_x509write_crt_der:p_rng <- [DW_OP_plus_uconst 3232] [$sp+0]
	@DEBUG_VALUE: mbedtls_x509write_crt_der:sig_and_oid_len <- 0
	mov	r4, r0
.Ltmp304:
	@DEBUG_VALUE: mbedtls_x509write_crt_der:ret <- $r4
	b	.LBB16_46
.Ltmp305:
.LBB16_42:
	@DEBUG_VALUE: mbedtls_x509write_crt_der:ctx <- $r7
	@DEBUG_VALUE: mbedtls_x509write_crt_der:pub_len <- $r4
	@DEBUG_VALUE: mbedtls_x509write_crt_der:ret <- $r0
	@DEBUG_VALUE: mbedtls_x509write_crt_der:sig_oid <- [DW_OP_plus_uconst 28] [$sp+0]
	@DEBUG_VALUE: mbedtls_x509write_crt_der:sub_len <- [DW_OP_plus_uconst 36] [$sp+0]
	@DEBUG_VALUE: mbedtls_x509write_crt_der:c <- [DW_OP_plus_uconst 3200, DW_OP_deref] $sp
	@DEBUG_VALUE: mbedtls_x509write_crt_der:sig_oid_len <- [DW_OP_plus_uconst 3204, DW_OP_deref] $sp
	@DEBUG_VALUE: mbedtls_x509write_crt_der:buf <- [DW_OP_plus_uconst 48] [$sp+0]
	@DEBUG_VALUE: mbedtls_x509write_crt_der:size <- [DW_OP_plus_uconst 44] [$sp+0]
	@DEBUG_VALUE: mbedtls_x509write_crt_der:f_rng <- [DW_OP_plus_uconst 52] [$sp+0]
	@DEBUG_VALUE: mbedtls_x509write_crt_der:p_rng <- [DW_OP_plus_uconst 3232] [$sp+0]
	@DEBUG_VALUE: mbedtls_x509write_crt_der:sig_and_oid_len <- 0
	mov	r4, r0
.Ltmp306:
	@DEBUG_VALUE: mbedtls_x509write_crt_der:ret <- $r4
	b	.LBB16_46
.Ltmp307:
.LBB16_43:
	@DEBUG_VALUE: mbedtls_x509write_crt_der:len <- [DW_OP_plus_uconst 40] [$sp+0]
	@DEBUG_VALUE: mbedtls_x509write_crt_der:ctx <- $r7
	@DEBUG_VALUE: mbedtls_x509write_crt_der:ret <- $r5
	@DEBUG_VALUE: mbedtls_x509write_crt_der:pub_len <- $r4
	@DEBUG_VALUE: mbedtls_x509write_crt_der:sig_oid <- [DW_OP_plus_uconst 28] [$sp+0]
	@DEBUG_VALUE: mbedtls_x509write_crt_der:c <- [DW_OP_plus_uconst 3200, DW_OP_deref] $sp
	@DEBUG_VALUE: mbedtls_x509write_crt_der:sig_oid_len <- [DW_OP_plus_uconst 3204, DW_OP_deref] $sp
	@DEBUG_VALUE: mbedtls_x509write_crt_der:buf <- [DW_OP_plus_uconst 48] [$sp+0]
	@DEBUG_VALUE: mbedtls_x509write_crt_der:size <- [DW_OP_plus_uconst 44] [$sp+0]
	@DEBUG_VALUE: mbedtls_x509write_crt_der:f_rng <- [DW_OP_plus_uconst 52] [$sp+0]
	@DEBUG_VALUE: mbedtls_x509write_crt_der:p_rng <- [DW_OP_plus_uconst 3232] [$sp+0]
	@DEBUG_VALUE: mbedtls_x509write_crt_der:sub_len <- 0
	@DEBUG_VALUE: mbedtls_x509write_crt_der:sig_and_oid_len <- 0
	mov	r4, r5
.Ltmp308:
	@DEBUG_VALUE: mbedtls_x509write_crt_der:ret <- $r4
	b	.LBB16_46
.Ltmp309:
.LBB16_44:
	@DEBUG_VALUE: mbedtls_x509write_crt_der:ctx <- $r7
	@DEBUG_VALUE: mbedtls_x509write_crt_der:ret <- $r0
	@DEBUG_VALUE: mbedtls_x509write_crt_der:sig_oid <- [DW_OP_plus_uconst 28] [$sp+0]
	@DEBUG_VALUE: mbedtls_x509write_crt_der:c <- [DW_OP_plus_uconst 3200, DW_OP_deref] $sp
	@DEBUG_VALUE: mbedtls_x509write_crt_der:sig_oid_len <- [DW_OP_plus_uconst 3204, DW_OP_deref] $sp
	@DEBUG_VALUE: mbedtls_x509write_crt_der:buf <- [DW_OP_plus_uconst 48] [$sp+0]
	@DEBUG_VALUE: mbedtls_x509write_crt_der:size <- [DW_OP_plus_uconst 44] [$sp+0]
	@DEBUG_VALUE: mbedtls_x509write_crt_der:f_rng <- [DW_OP_plus_uconst 52] [$sp+0]
	@DEBUG_VALUE: mbedtls_x509write_crt_der:p_rng <- [DW_OP_plus_uconst 3232] [$sp+0]
	@DEBUG_VALUE: mbedtls_x509write_crt_der:sig_and_oid_len <- 0
	mov	r4, r0
.Ltmp310:
	@DEBUG_VALUE: mbedtls_x509write_crt_der:ret <- $r4
	b	.LBB16_46
.Ltmp311:
.LBB16_45:
	@DEBUG_VALUE: mbedtls_x509write_crt_der:ctx <- $r7
	@DEBUG_VALUE: mbedtls_x509write_crt_der:sub_len <- $r5
	@DEBUG_VALUE: mbedtls_x509write_crt_der:ret <- $r0
	@DEBUG_VALUE: mbedtls_x509write_crt_der:sig_oid <- [DW_OP_plus_uconst 28] [$sp+0]
	@DEBUG_VALUE: mbedtls_x509write_crt_der:c <- [DW_OP_plus_uconst 3200, DW_OP_deref] $sp
	@DEBUG_VALUE: mbedtls_x509write_crt_der:sig_oid_len <- [DW_OP_plus_uconst 3204, DW_OP_deref] $sp
	@DEBUG_VALUE: mbedtls_x509write_crt_der:buf <- [DW_OP_plus_uconst 48] [$sp+0]
	@DEBUG_VALUE: mbedtls_x509write_crt_der:size <- [DW_OP_plus_uconst 44] [$sp+0]
	@DEBUG_VALUE: mbedtls_x509write_crt_der:f_rng <- [DW_OP_plus_uconst 52] [$sp+0]
	@DEBUG_VALUE: mbedtls_x509write_crt_der:p_rng <- [DW_OP_plus_uconst 3232] [$sp+0]
	@DEBUG_VALUE: mbedtls_x509write_crt_der:sig_and_oid_len <- 0
	mov	r4, r0
.Ltmp312:
	@DEBUG_VALUE: mbedtls_x509write_crt_der:ret <- $r4
.LBB16_46:
	@DEBUG_VALUE: mbedtls_x509write_crt_der:ctx <- $r7
	@DEBUG_VALUE: mbedtls_x509write_crt_der:buf <- [DW_OP_plus_uconst 48] [$sp+0]
	@DEBUG_VALUE: mbedtls_x509write_crt_der:size <- [DW_OP_plus_uconst 44] [$sp+0]
	@DEBUG_VALUE: mbedtls_x509write_crt_der:f_rng <- [DW_OP_plus_uconst 52] [$sp+0]
	@DEBUG_VALUE: mbedtls_x509write_crt_der:p_rng <- [DW_OP_plus_uconst 3232] [$sp+0]
	.loc	4 464 1 is_stmt 1               @ ../../../ThirdParty/mbedTLS/library/x509write_crt.c:464:1
	mov	r0, r4
	ldr	r7, __arm_cp.16_2
.Ltmp313:
	@DEBUG_VALUE: mbedtls_x509write_crt_der:ctx <- [DW_OP_LLVM_entry_value 1] $r0
	add	sp, r7
.Ltmp314:
	pop	{r4, r5, r6, r7, pc}
.Ltmp315:
.LBB16_47:
	@DEBUG_VALUE: mbedtls_x509write_crt_der:ctx <- $r7
	@DEBUG_VALUE: mbedtls_x509write_crt_der:sig_and_oid_len <- $r4
	@DEBUG_VALUE: mbedtls_x509write_crt_der:ret <- $r4
	@DEBUG_VALUE: mbedtls_x509write_crt_der:c2 <- $r0
	@DEBUG_VALUE: mbedtls_x509write_crt_der:len <- [DW_OP_plus_uconst 40] [$sp+0]
	@DEBUG_VALUE: mbedtls_x509write_crt_der:buf <- [DW_OP_plus_uconst 48] [$sp+0]
	@DEBUG_VALUE: mbedtls_x509write_crt_der:size <- [DW_OP_plus_uconst 44] [$sp+0]
	@DEBUG_VALUE: mbedtls_x509write_crt_der:f_rng <- [DW_OP_plus_uconst 52] [$sp+0]
	@DEBUG_VALUE: mbedtls_x509write_crt_der:p_rng <- [DW_OP_plus_uconst 3232] [$sp+0]
	.loc	4 0 1 is_stmt 0                 @ ../../../ThirdParty/mbedTLS/library/x509write_crt.c:0:1
	ldr	r5, [sp, #40]                   @ 4-byte Reload
	.loc	4 455 8 is_stmt 1               @ ../../../ThirdParty/mbedTLS/library/x509write_crt.c:455:8
	subs	r0, r0, r5
.Ltmp316:
	@DEBUG_VALUE: mbedtls_x509write_crt_der:c2 <- $r0
	str	r0, [r6]
	.loc	4 456 17                        @ ../../../ThirdParty/mbedTLS/library/x509write_crt.c:456:17
	ldr	r1, [r6, #4]
.Ltmp317:
	@DEBUG_VALUE: mbedtls_x509write_crt_der:c <- $r1
	.loc	4 456 5 is_stmt 0               @ ../../../ThirdParty/mbedTLS/library/x509write_crt.c:456:5
	mov	r2, r5
	bl	__aeabi_memcpy
.Ltmp318:
	.loc	4 458 9 is_stmt 1               @ ../../../ThirdParty/mbedTLS/library/x509write_crt.c:458:9
	adds	r5, r4, r5
.Ltmp319:
	@DEBUG_VALUE: mbedtls_x509write_crt_der:c2 <- [DW_OP_plus_uconst 3196, DW_OP_deref] $sp
	@DEBUG_VALUE: mbedtls_x509write_crt_der:len <- $r5
	.loc	4 0 9 is_stmt 0                 @ ../../../ThirdParty/mbedTLS/library/x509write_crt.c:0:9
	ldr	r0, __arm_cp.16_3
	add	r0, sp
.Ltmp320:
	.loc	4 459 5 is_stmt 1               @ ../../../ThirdParty/mbedTLS/library/x509write_crt.c:459:5
	ldr	r1, [sp, #48]                   @ 4-byte Reload
	mov	r2, r5
	bl	mbedtls_asn1_write_len
	mov	r4, r0
.Ltmp321:
	@DEBUG_VALUE: mbedtls_x509write_crt_der:ret <- $r4
	.loc	4 459 5 is_stmt 0               @ ../../../ThirdParty/mbedTLS/library/x509write_crt.c:459:5
	cmp	r0, #0
	bmi	.LBB16_46
.Ltmp322:
@ %bb.48:
	@DEBUG_VALUE: mbedtls_x509write_crt_der:ctx <- $r7
	@DEBUG_VALUE: mbedtls_x509write_crt_der:len <- $r5
	@DEBUG_VALUE: mbedtls_x509write_crt_der:ret <- $r4
	@DEBUG_VALUE: mbedtls_x509write_crt_der:c2 <- [DW_OP_plus_uconst 3196, DW_OP_deref] $sp
	@DEBUG_VALUE: mbedtls_x509write_crt_der:buf <- [DW_OP_plus_uconst 48] [$sp+0]
	@DEBUG_VALUE: mbedtls_x509write_crt_der:size <- [DW_OP_plus_uconst 44] [$sp+0]
	@DEBUG_VALUE: mbedtls_x509write_crt_der:f_rng <- [DW_OP_plus_uconst 52] [$sp+0]
	@DEBUG_VALUE: mbedtls_x509write_crt_der:p_rng <- [DW_OP_plus_uconst 3232] [$sp+0]
	@DEBUG_VALUE: mbedtls_x509write_crt_der:len <- undef
	@DEBUG_VALUE: mbedtls_x509write_crt_der:c2 <- [DW_OP_plus_uconst 3196, DW_OP_deref] $sp
	.loc	4 0 5                           @ ../../../ThirdParty/mbedTLS/library/x509write_crt.c:0:5
	ldr	r0, __arm_cp.16_3
	add	r0, sp
	movs	r2, #48
.Ltmp323:
	.loc	4 460 5 is_stmt 1               @ ../../../ThirdParty/mbedTLS/library/x509write_crt.c:460:5
	ldr	r1, [sp, #48]                   @ 4-byte Reload
	bl	mbedtls_asn1_write_tag
.Ltmp324:
	@DEBUG_VALUE: mbedtls_x509write_crt_der:ret <- $r0
	.loc	4 460 5 is_stmt 0               @ ../../../ThirdParty/mbedTLS/library/x509write_crt.c:460:5
	cmp	r0, #0
	bmi	.LBB16_50
.Ltmp325:
@ %bb.49:
	@DEBUG_VALUE: mbedtls_x509write_crt_der:ctx <- $r7
	@DEBUG_VALUE: mbedtls_x509write_crt_der:ret <- $r0
	@DEBUG_VALUE: mbedtls_x509write_crt_der:c2 <- [DW_OP_plus_uconst 3196, DW_OP_deref] $sp
	@DEBUG_VALUE: mbedtls_x509write_crt_der:buf <- [DW_OP_plus_uconst 48] [$sp+0]
	@DEBUG_VALUE: mbedtls_x509write_crt_der:size <- [DW_OP_plus_uconst 44] [$sp+0]
	@DEBUG_VALUE: mbedtls_x509write_crt_der:f_rng <- [DW_OP_plus_uconst 52] [$sp+0]
	@DEBUG_VALUE: mbedtls_x509write_crt_der:p_rng <- [DW_OP_plus_uconst 3232] [$sp+0]
	.loc	4 459 5 is_stmt 1               @ ../../../ThirdParty/mbedTLS/library/x509write_crt.c:459:5
	adds	r1, r4, r5
.Ltmp326:
	@DEBUG_VALUE: mbedtls_x509write_crt_der:len <- $r1
	.loc	4 460 5                         @ ../../../ThirdParty/mbedTLS/library/x509write_crt.c:460:5
	adds	r4, r1, r0
.Ltmp327:
	@DEBUG_VALUE: mbedtls_x509write_crt_der:len <- $r4
	.loc	4 0 5 is_stmt 0                 @ ../../../ThirdParty/mbedTLS/library/x509write_crt.c:0:5
	b	.LBB16_46
.Ltmp328:
.LBB16_50:
	@DEBUG_VALUE: mbedtls_x509write_crt_der:ctx <- $r7
	@DEBUG_VALUE: mbedtls_x509write_crt_der:ret <- $r0
	@DEBUG_VALUE: mbedtls_x509write_crt_der:c2 <- [DW_OP_plus_uconst 3196, DW_OP_deref] $sp
	@DEBUG_VALUE: mbedtls_x509write_crt_der:buf <- [DW_OP_plus_uconst 48] [$sp+0]
	@DEBUG_VALUE: mbedtls_x509write_crt_der:size <- [DW_OP_plus_uconst 44] [$sp+0]
	@DEBUG_VALUE: mbedtls_x509write_crt_der:f_rng <- [DW_OP_plus_uconst 52] [$sp+0]
	@DEBUG_VALUE: mbedtls_x509write_crt_der:p_rng <- [DW_OP_plus_uconst 3232] [$sp+0]
	mov	r4, r0
.Ltmp329:
	@DEBUG_VALUE: mbedtls_x509write_crt_der:ret <- $r4
	b	.LBB16_46
.Ltmp330:
	.p2align	2
@ %bb.51:
__arm_cp.16_0:
	.long	4294958336                      @ 0xffffdd00
.Lcpi_end11:
	.size	__arm_cp.16_0, .Lcpi_end11-__arm_cp.16_0
__arm_cp.16_1:
	.long	4294964084                      @ 0xfffff374
.Lcpi_end12:
	.size	__arm_cp.16_1, .Lcpi_end12-__arm_cp.16_1
__arm_cp.16_2:
	.long	3212                            @ 0xc8c
.Lcpi_end13:
	.size	__arm_cp.16_2, .Lcpi_end13-__arm_cp.16_2
__arm_cp.16_3:
	.long	3196                            @ 0xc7c
.Lcpi_end14:
	.size	__arm_cp.16_3, .Lcpi_end14-__arm_cp.16_3
__arm_cp.16_4:
	.long	3208                            @ 0xc88
.Lcpi_end15:
	.size	__arm_cp.16_4, .Lcpi_end15-__arm_cp.16_4
__arm_cp.16_5:
	.long	3204                            @ 0xc84
.Lcpi_end16:
	.size	__arm_cp.16_5, .Lcpi_end16-__arm_cp.16_5
__arm_cp.16_6:
	.long	3200                            @ 0xc80
.Lcpi_end17:
	.size	__arm_cp.16_6, .Lcpi_end17-__arm_cp.16_6
__arm_cp.16_7:
	.long	3132                            @ 0xc3c
.Lcpi_end18:
	.size	__arm_cp.16_7, .Lcpi_end18-__arm_cp.16_7
__arm_cp.16_8:
	.long	3232                            @ 0xca0
.Lcpi_end19:
	.size	__arm_cp.16_8, .Lcpi_end19-__arm_cp.16_8
__arm_cp.16_9:
	.long	2108                            @ 0x83c
.Lcpi_end20:
	.size	__arm_cp.16_9, .Lcpi_end20-__arm_cp.16_9
.Lfunc_end16:
	.size	mbedtls_x509write_crt_der, .Lfunc_end16-mbedtls_x509write_crt_der
	.cfi_endproc
	.cantunwind
	.fnend
                                        @ -- End function
	.section	.text.x509_write_time,"ax",%progbits
	.p2align	1                               @ -- Begin function x509_write_time
	.type	x509_write_time,%function
	.code	16                              @ @x509_write_time
	.thumb_func
x509_write_time:
.Lfunc_begin17:
	.loc	4 284 0 is_stmt 1               @ ../../../ThirdParty/mbedTLS/library/x509write_crt.c:284:0
	.fnstart
	.cfi_startproc
@ %bb.0:
	@DEBUG_VALUE: x509_write_time:p <- $r0
	@DEBUG_VALUE: x509_write_time:start <- $r1
	@DEBUG_VALUE: x509_write_time:t <- $r2
	.save	{r4, r5, r6, r7, lr}
	push	{r4, r5, r6, r7, lr}
	.cfi_def_cfa_offset 20
	.cfi_offset lr, -4
	.cfi_offset r7, -8
	.cfi_offset r6, -12
	.cfi_offset r5, -16
	.cfi_offset r4, -20
	.pad	#4
	sub	sp, #4
	.cfi_def_cfa_offset 24
	mov	r4, r1
	mov	r5, r0
.Ltmp331:
	@DEBUG_VALUE: x509_write_time:len <- 0
	@DEBUG_VALUE: x509_write_time:size <- 15
	@DEBUG_VALUE: x509_write_time:t <- $r2
	@DEBUG_VALUE: x509_write_time:start <- $r4
	@DEBUG_VALUE: x509_write_time:p <- $r5
	.loc	4 291 9 prologue_end            @ ../../../ThirdParty/mbedTLS/library/x509write_crt.c:291:9
	ldrb	r0, [r2]
	.loc	4 291 21 is_stmt 0              @ ../../../ThirdParty/mbedTLS/library/x509write_crt.c:291:21
	cmp	r0, #50
	bne	.LBB17_7
.Ltmp332:
@ %bb.1:
	@DEBUG_VALUE: x509_write_time:p <- $r5
	@DEBUG_VALUE: x509_write_time:start <- $r4
	@DEBUG_VALUE: x509_write_time:t <- $r2
	@DEBUG_VALUE: x509_write_time:size <- 15
	@DEBUG_VALUE: x509_write_time:len <- 0
	.loc	4 291 24                        @ ../../../ThirdParty/mbedTLS/library/x509write_crt.c:291:24
	ldrb	r0, [r2, #1]
	.loc	4 291 36                        @ ../../../ThirdParty/mbedTLS/library/x509write_crt.c:291:36
	cmp	r0, #48
	bne	.LBB17_7
.Ltmp333:
@ %bb.2:
	@DEBUG_VALUE: x509_write_time:p <- $r5
	@DEBUG_VALUE: x509_write_time:start <- $r4
	@DEBUG_VALUE: x509_write_time:t <- $r2
	@DEBUG_VALUE: x509_write_time:size <- 15
	@DEBUG_VALUE: x509_write_time:len <- 0
	.loc	4 291 39                        @ ../../../ThirdParty/mbedTLS/library/x509write_crt.c:291:39
	ldrb	r0, [r2, #2]
.Ltmp334:
	.loc	4 291 9                         @ ../../../ThirdParty/mbedTLS/library/x509write_crt.c:291:9
	cmp	r0, #52
	bhi	.LBB17_7
.Ltmp335:
@ %bb.3:
	@DEBUG_VALUE: x509_write_time:p <- $r5
	@DEBUG_VALUE: x509_write_time:start <- $r4
	@DEBUG_VALUE: x509_write_time:t <- $r2
	@DEBUG_VALUE: x509_write_time:size <- 15
	@DEBUG_VALUE: x509_write_time:len <- 0
	.loc	4 0 0                           @ ../../../ThirdParty/mbedTLS/library/x509write_crt.c:0:0
	adds	r2, r2, #2
.Ltmp336:
	@DEBUG_VALUE: x509_write_time:t <- [DW_OP_LLVM_entry_value 1] $r2
	movs	r3, #13
.Ltmp337:
	.loc	4 293 9 is_stmt 1               @ ../../../ThirdParty/mbedTLS/library/x509write_crt.c:293:9
	mov	r0, r5
	mov	r1, r4
	bl	mbedtls_asn1_write_raw_buffer
	mov	r7, r0
.Ltmp338:
	@DEBUG_VALUE: x509_write_time:ret <- $r7
	.loc	4 293 9 is_stmt 0               @ ../../../ThirdParty/mbedTLS/library/x509write_crt.c:293:9
	cmp	r0, #0
	bmi	.LBB17_13
.Ltmp339:
@ %bb.4:
	@DEBUG_VALUE: x509_write_time:ret <- $r7
	@DEBUG_VALUE: x509_write_time:p <- $r5
	@DEBUG_VALUE: x509_write_time:start <- $r4
	@DEBUG_VALUE: x509_write_time:t <- [DW_OP_LLVM_entry_value 1] $r2
	@DEBUG_VALUE: x509_write_time:size <- 15
	@DEBUG_VALUE: x509_write_time:len <- 0
	@DEBUG_VALUE: x509_write_time:len <- $r7
	.loc	4 296 9 is_stmt 1               @ ../../../ThirdParty/mbedTLS/library/x509write_crt.c:296:9
	mov	r0, r5
	mov	r1, r4
	mov	r2, r7
	bl	mbedtls_asn1_write_len
	mov	r6, r0
.Ltmp340:
	@DEBUG_VALUE: x509_write_time:ret <- $r6
	.loc	4 296 9 is_stmt 0               @ ../../../ThirdParty/mbedTLS/library/x509write_crt.c:296:9
	cmp	r0, #0
	bmi	.LBB17_15
.Ltmp341:
@ %bb.5:
	@DEBUG_VALUE: x509_write_time:len <- $r7
	@DEBUG_VALUE: x509_write_time:ret <- $r6
	@DEBUG_VALUE: x509_write_time:p <- $r5
	@DEBUG_VALUE: x509_write_time:start <- $r4
	@DEBUG_VALUE: x509_write_time:t <- [DW_OP_LLVM_entry_value 1] $r2
	@DEBUG_VALUE: x509_write_time:size <- 15
	@DEBUG_VALUE: x509_write_time:len <- undef
	.loc	4 0 9                           @ ../../../ThirdParty/mbedTLS/library/x509write_crt.c:0:9
	movs	r2, #23
.Ltmp342:
	.loc	4 297 9 is_stmt 1               @ ../../../ThirdParty/mbedTLS/library/x509write_crt.c:297:9
	mov	r0, r5
	mov	r1, r4
	bl	mbedtls_asn1_write_tag
.Ltmp343:
	@DEBUG_VALUE: x509_write_time:ret <- $r0
	.loc	4 297 9 is_stmt 0               @ ../../../ThirdParty/mbedTLS/library/x509write_crt.c:297:9
	cmp	r0, #0
	bmi	.LBB17_14
.Ltmp344:
@ %bb.6:
	@DEBUG_VALUE: x509_write_time:p <- $r5
	@DEBUG_VALUE: x509_write_time:start <- $r4
	@DEBUG_VALUE: x509_write_time:ret <- $r0
	@DEBUG_VALUE: x509_write_time:t <- [DW_OP_LLVM_entry_value 1] $r2
	@DEBUG_VALUE: x509_write_time:size <- 15
	.loc	4 296 9 is_stmt 1               @ ../../../ThirdParty/mbedTLS/library/x509write_crt.c:296:9
	adds	r1, r6, r7
.Ltmp345:
	@DEBUG_VALUE: x509_write_time:len <- $r1
	.loc	4 297 9                         @ ../../../ThirdParty/mbedTLS/library/x509write_crt.c:297:9
	adds	r6, r1, r0
.Ltmp346:
	@DEBUG_VALUE: x509_write_time:len <- $r6
	.loc	4 298 5                         @ ../../../ThirdParty/mbedTLS/library/x509write_crt.c:298:5
	b	.LBB17_15
.Ltmp347:
.LBB17_7:
	@DEBUG_VALUE: x509_write_time:p <- $r5
	@DEBUG_VALUE: x509_write_time:start <- $r4
	@DEBUG_VALUE: x509_write_time:t <- $r2
	@DEBUG_VALUE: x509_write_time:size <- 15
	@DEBUG_VALUE: x509_write_time:len <- 0
	.loc	4 0 5 is_stmt 0                 @ ../../../ThirdParty/mbedTLS/library/x509write_crt.c:0:5
	movs	r3, #15
.Ltmp348:
	.loc	4 301 9 is_stmt 1               @ ../../../ThirdParty/mbedTLS/library/x509write_crt.c:301:9
	mov	r0, r5
	mov	r1, r4
	bl	mbedtls_asn1_write_raw_buffer
.Ltmp349:
	@DEBUG_VALUE: x509_write_time:t <- [DW_OP_LLVM_entry_value 1] $r2
	mov	r7, r0
.Ltmp350:
	@DEBUG_VALUE: x509_write_time:ret <- $r7
	.loc	4 301 9 is_stmt 0               @ ../../../ThirdParty/mbedTLS/library/x509write_crt.c:301:9
	cmp	r0, #0
	bmi	.LBB17_11
.Ltmp351:
@ %bb.8:
	@DEBUG_VALUE: x509_write_time:ret <- $r7
	@DEBUG_VALUE: x509_write_time:p <- $r5
	@DEBUG_VALUE: x509_write_time:start <- $r4
	@DEBUG_VALUE: x509_write_time:t <- [DW_OP_LLVM_entry_value 1] $r2
	@DEBUG_VALUE: x509_write_time:size <- 15
	@DEBUG_VALUE: x509_write_time:len <- 0
	@DEBUG_VALUE: x509_write_time:len <- $r7
	.loc	4 304 9 is_stmt 1               @ ../../../ThirdParty/mbedTLS/library/x509write_crt.c:304:9
	mov	r0, r5
	mov	r1, r4
	mov	r2, r7
	bl	mbedtls_asn1_write_len
	mov	r6, r0
.Ltmp352:
	@DEBUG_VALUE: x509_write_time:ret <- $r6
	.loc	4 304 9 is_stmt 0               @ ../../../ThirdParty/mbedTLS/library/x509write_crt.c:304:9
	cmp	r0, #0
	bmi	.LBB17_15
.Ltmp353:
@ %bb.9:
	@DEBUG_VALUE: x509_write_time:len <- $r7
	@DEBUG_VALUE: x509_write_time:ret <- $r6
	@DEBUG_VALUE: x509_write_time:p <- $r5
	@DEBUG_VALUE: x509_write_time:start <- $r4
	@DEBUG_VALUE: x509_write_time:t <- [DW_OP_LLVM_entry_value 1] $r2
	@DEBUG_VALUE: x509_write_time:size <- 15
	@DEBUG_VALUE: x509_write_time:len <- undef
	.loc	4 0 9                           @ ../../../ThirdParty/mbedTLS/library/x509write_crt.c:0:9
	movs	r2, #24
.Ltmp354:
	.loc	4 305 9 is_stmt 1               @ ../../../ThirdParty/mbedTLS/library/x509write_crt.c:305:9
	mov	r0, r5
	mov	r1, r4
	bl	mbedtls_asn1_write_tag
.Ltmp355:
	@DEBUG_VALUE: x509_write_time:ret <- $r0
	.loc	4 305 9 is_stmt 0               @ ../../../ThirdParty/mbedTLS/library/x509write_crt.c:305:9
	cmp	r0, #0
	bmi	.LBB17_12
.Ltmp356:
@ %bb.10:
	@DEBUG_VALUE: x509_write_time:p <- $r5
	@DEBUG_VALUE: x509_write_time:start <- $r4
	@DEBUG_VALUE: x509_write_time:ret <- $r0
	@DEBUG_VALUE: x509_write_time:t <- [DW_OP_LLVM_entry_value 1] $r2
	@DEBUG_VALUE: x509_write_time:size <- 15
	.loc	4 304 9 is_stmt 1               @ ../../../ThirdParty/mbedTLS/library/x509write_crt.c:304:9
	adds	r1, r6, r7
.Ltmp357:
	@DEBUG_VALUE: x509_write_time:len <- $r1
	.loc	4 305 9                         @ ../../../ThirdParty/mbedTLS/library/x509write_crt.c:305:9
	adds	r6, r1, r0
.Ltmp358:
	@DEBUG_VALUE: x509_write_time:len <- $r6
	.loc	4 0 9 is_stmt 0                 @ ../../../ThirdParty/mbedTLS/library/x509write_crt.c:0:9
	b	.LBB17_15
.Ltmp359:
.LBB17_11:
	@DEBUG_VALUE: x509_write_time:ret <- $r7
	@DEBUG_VALUE: x509_write_time:p <- $r5
	@DEBUG_VALUE: x509_write_time:start <- $r4
	@DEBUG_VALUE: x509_write_time:t <- [DW_OP_LLVM_entry_value 1] $r2
	@DEBUG_VALUE: x509_write_time:size <- 15
	@DEBUG_VALUE: x509_write_time:len <- 0
	mov	r6, r7
.Ltmp360:
	@DEBUG_VALUE: x509_write_time:ret <- $r6
	b	.LBB17_15
.Ltmp361:
.LBB17_12:
	@DEBUG_VALUE: x509_write_time:p <- $r5
	@DEBUG_VALUE: x509_write_time:start <- $r4
	@DEBUG_VALUE: x509_write_time:ret <- $r0
	@DEBUG_VALUE: x509_write_time:t <- [DW_OP_LLVM_entry_value 1] $r2
	@DEBUG_VALUE: x509_write_time:size <- 15
	mov	r6, r0
.Ltmp362:
	@DEBUG_VALUE: x509_write_time:ret <- $r6
	b	.LBB17_15
.Ltmp363:
.LBB17_13:
	@DEBUG_VALUE: x509_write_time:ret <- $r7
	@DEBUG_VALUE: x509_write_time:p <- $r5
	@DEBUG_VALUE: x509_write_time:start <- $r4
	@DEBUG_VALUE: x509_write_time:t <- [DW_OP_LLVM_entry_value 1] $r2
	@DEBUG_VALUE: x509_write_time:size <- 15
	@DEBUG_VALUE: x509_write_time:len <- 0
	mov	r6, r7
.Ltmp364:
	@DEBUG_VALUE: x509_write_time:ret <- $r6
	b	.LBB17_15
.Ltmp365:
.LBB17_14:
	@DEBUG_VALUE: x509_write_time:p <- $r5
	@DEBUG_VALUE: x509_write_time:start <- $r4
	@DEBUG_VALUE: x509_write_time:ret <- $r0
	@DEBUG_VALUE: x509_write_time:t <- [DW_OP_LLVM_entry_value 1] $r2
	@DEBUG_VALUE: x509_write_time:size <- 15
	mov	r6, r0
.Ltmp366:
	@DEBUG_VALUE: x509_write_time:ret <- $r6
.LBB17_15:
	@DEBUG_VALUE: x509_write_time:p <- $r5
	@DEBUG_VALUE: x509_write_time:start <- $r4
	@DEBUG_VALUE: x509_write_time:t <- [DW_OP_LLVM_entry_value 1] $r2
	@DEBUG_VALUE: x509_write_time:size <- 15
	.loc	4 309 1 is_stmt 1               @ ../../../ThirdParty/mbedTLS/library/x509write_crt.c:309:1
	mov	r0, r6
	add	sp, #4
	pop	{r4, r5, r6, r7, pc}
.Ltmp367:
.Lfunc_end17:
	.size	x509_write_time, .Lfunc_end17-x509_write_time
	.cfi_endproc
	.cantunwind
	.fnend
                                        @ -- End function
	.section	.text.mbedtls_x509write_crt_pem,"ax",%progbits
	.hidden	mbedtls_x509write_crt_pem       @ -- Begin function mbedtls_x509write_crt_pem
	.globl	mbedtls_x509write_crt_pem
	.p2align	2
	.type	mbedtls_x509write_crt_pem,%function
	.code	16                              @ @mbedtls_x509write_crt_pem
	.thumb_func
mbedtls_x509write_crt_pem:
.Lfunc_begin18:
	.loc	4 473 0                         @ ../../../ThirdParty/mbedTLS/library/x509write_crt.c:473:0
	.fnstart
	.cfi_startproc
@ %bb.0:
	@DEBUG_VALUE: mbedtls_x509write_crt_pem:crt <- $r0
	@DEBUG_VALUE: mbedtls_x509write_crt_pem:buf <- $r1
	@DEBUG_VALUE: mbedtls_x509write_crt_pem:size <- $r2
	@DEBUG_VALUE: mbedtls_x509write_crt_pem:f_rng <- $r3
	.save	{r4, r5, r6, lr}
	push	{r4, r5, r6, lr}
	.cfi_def_cfa_offset 16
	.cfi_offset lr, -4
	.cfi_offset r6, -8
	.cfi_offset r5, -12
	.cfi_offset r4, -16
	ldr	r6, __arm_cp.18_2
	.pad	#4120
	add	sp, r6
	.cfi_def_cfa_offset 4136
	mov	r4, r2
	mov	r5, r1
	movs	r1, #0
.Ltmp368:
	@DEBUG_VALUE: mbedtls_x509write_crt_pem:buf <- [DW_OP_LLVM_entry_value 1] $r1
	@DEBUG_VALUE: mbedtls_x509write_crt_pem:olen <- 0
	@DEBUG_VALUE: mbedtls_x509write_crt_pem:p_rng <- [DW_OP_plus_uconst 4136] [$sp+0]
	@DEBUG_VALUE: mbedtls_x509write_crt_pem:f_rng <- $r3
	@DEBUG_VALUE: mbedtls_x509write_crt_pem:size <- $r4
	@DEBUG_VALUE: mbedtls_x509write_crt_pem:buf <- $r5
	@DEBUG_VALUE: mbedtls_x509write_crt_pem:crt <- $r0
	.loc	4 476 12 prologue_end           @ ../../../ThirdParty/mbedTLS/library/x509write_crt.c:476:12
	str	r1, [sp, #20]
	ldr	r1, __arm_cp.18_4
	add	r1, sp
	ldr	r1, [r1]
.Ltmp369:
	.loc	4 478 17                        @ ../../../ThirdParty/mbedTLS/library/x509write_crt.c:478:17
	str	r1, [sp]
	add	r1, sp, #24
	movw	r6, #4096
	@DEBUG_VALUE: mbedtls_x509write_crt_pem:crt <- $r0
	movw	r2, #4096
	@DEBUG_VALUE: mbedtls_x509write_crt_pem:f_rng <- $r3
	bl	mbedtls_x509write_crt_der
.Ltmp370:
	@DEBUG_VALUE: mbedtls_x509write_crt_pem:f_rng <- [DW_OP_LLVM_entry_value 1] $r3
	@DEBUG_VALUE: mbedtls_x509write_crt_pem:crt <- [DW_OP_LLVM_entry_value 1] $r0
	mov	r3, r0
.Ltmp371:
	@DEBUG_VALUE: mbedtls_x509write_crt_pem:ret <- $r3
	.loc	4 478 9 is_stmt 0               @ ../../../ThirdParty/mbedTLS/library/x509write_crt.c:478:9
	cmp	r0, #0
	bmi	.LBB18_2
.Ltmp372:
@ %bb.1:
	@DEBUG_VALUE: mbedtls_x509write_crt_pem:buf <- $r5
	@DEBUG_VALUE: mbedtls_x509write_crt_pem:size <- $r4
	@DEBUG_VALUE: mbedtls_x509write_crt_pem:ret <- $r3
	@DEBUG_VALUE: mbedtls_x509write_crt_pem:p_rng <- [DW_OP_plus_uconst 4136] [$sp+0]
	@DEBUG_VALUE: mbedtls_x509write_crt_pem:f_rng <- [DW_OP_LLVM_entry_value 1] $r3
	@DEBUG_VALUE: mbedtls_x509write_crt_pem:crt <- [DW_OP_LLVM_entry_value 1] $r0
	@DEBUG_VALUE: mbedtls_x509write_crt_pem:olen <- 0
	@DEBUG_VALUE: mbedtls_x509write_crt_pem:olen <- [DW_OP_plus_uconst 20, DW_OP_deref] $sp
	.loc	4 0 9                           @ ../../../ThirdParty/mbedTLS/library/x509write_crt.c:0:9
	add	r0, sp, #20
.Ltmp373:
	.loc	4 484 17 is_stmt 1              @ ../../../ThirdParty/mbedTLS/library/x509write_crt.c:484:17
	str	r5, [sp]
	str	r4, [sp, #4]
	str	r0, [sp, #8]
	add	r0, sp, #24
	.loc	4 485 54                        @ ../../../ThirdParty/mbedTLS/library/x509write_crt.c:485:54
	adds	r0, r0, r6
	.loc	4 485 75 is_stmt 0              @ ../../../ThirdParty/mbedTLS/library/x509write_crt.c:485:75
	subs	r2, r0, r3
	.loc	4 484 17 is_stmt 1              @ ../../../ThirdParty/mbedTLS/library/x509write_crt.c:484:17
	adr	r0, .LCPI18_0
	adr	r1, .LCPI18_1
	bl	mbedtls_pem_write_buffer
.Ltmp374:
	mov	r3, r0
.Ltmp375:
	@DEBUG_VALUE: mbedtls_x509write_crt_pem:ret <- $r3
.LBB18_2:
	@DEBUG_VALUE: mbedtls_x509write_crt_pem:buf <- $r5
	@DEBUG_VALUE: mbedtls_x509write_crt_pem:size <- $r4
	@DEBUG_VALUE: mbedtls_x509write_crt_pem:ret <- $r3
	@DEBUG_VALUE: mbedtls_x509write_crt_pem:p_rng <- [DW_OP_plus_uconst 4136] [$sp+0]
	@DEBUG_VALUE: mbedtls_x509write_crt_pem:f_rng <- [DW_OP_LLVM_entry_value 1] $r3
	@DEBUG_VALUE: mbedtls_x509write_crt_pem:crt <- [DW_OP_LLVM_entry_value 1] $r0
	.loc	4 492 1                         @ ../../../ThirdParty/mbedTLS/library/x509write_crt.c:492:1
	mov	r0, r3
	ldr	r6, __arm_cp.18_3
	add	sp, r6
.Ltmp376:
	pop	{r4, r5, r6, pc}
.Ltmp377:
	.p2align	2
@ %bb.3:
	.loc	4 0 1 is_stmt 0                 @ ../../../ThirdParty/mbedTLS/library/x509write_crt.c:0:1
.LCPI18_0:
.L.str.5:
	.asciz	"-----BEGIN CERTIFICATE-----\n\000\000\000"
.LCPI18_1:
.L.str.6:
	.asciz	"-----END CERTIFICATE-----\n\000"
__arm_cp.18_2:
	.long	4294963176                      @ 0xffffefe8
.Lcpi_end21:
	.size	__arm_cp.18_2, .Lcpi_end21-__arm_cp.18_2
__arm_cp.18_3:
	.long	4120                            @ 0x1018
.Lcpi_end22:
	.size	__arm_cp.18_3, .Lcpi_end22-__arm_cp.18_3
__arm_cp.18_4:
	.long	4136                            @ 0x1028
.Lcpi_end23:
	.size	__arm_cp.18_4, .Lcpi_end23-__arm_cp.18_4
.Lfunc_end18:
	.size	mbedtls_x509write_crt_pem, .Lfunc_end18-mbedtls_x509write_crt_pem
	.cfi_endproc
	.cantunwind
	.fnend
                                        @ -- End function
	.file	5 "C:\\Users\\shw26\\OneDrive\\Desktop\\2021\\2021-1\\\354\272\241\354\212\244\355\206\244\353\224\224\354\236\220\354\235\2702\\Nuvoton\\M2351_BSP_v3.00.004\\M2351Series_BSP_CMSIS_V3.00.004\\MyProject\\PulseMonitoring\\Secure" "../../../ThirdParty/mbedTLS/include/mbedtls\\x509_crt.h"
	.file	6 "C:\\Users\\shw26\\OneDrive\\Desktop\\2021\\2021-1\\\354\272\241\354\212\244\355\206\244\353\224\224\354\236\220\354\235\2702\\Nuvoton\\M2351_BSP_v3.00.004\\M2351Series_BSP_CMSIS_V3.00.004\\MyProject\\PulseMonitoring\\Secure" "../../../ThirdParty/mbedTLS/include/mbedtls/bignum.h"
	.file	7 "C:\\" "Keil_v5\\ARM\\ARMCLANG\\Bin\\..\\include\\stdint.h"
	.file	8 "C:\\Users\\shw26\\OneDrive\\Desktop\\2021\\2021-1\\\354\272\241\354\212\244\355\206\244\353\224\224\354\236\220\354\235\2702\\Nuvoton\\M2351_BSP_v3.00.004\\M2351Series_BSP_CMSIS_V3.00.004\\MyProject\\PulseMonitoring\\Secure" "../../../ThirdParty/mbedTLS/include/mbedtls/asn1.h"
	.section	".note.GNU-stack","",%progbits
	.eabi_attribute	30, 1	@ Tag_ABI_optimization_goals
	.ARM_attribute	16, 1	@ Tag_AV_eba