	.text
	.syntax unified
	.eabi_attribute	67, "2.09"	@ Tag_conformance
	.cpu	cortex-m23
	.eabi_attribute	6, 16	@ Tag_CPU_arch
	.eabi_attribute	7, 77	@ Tag_CPU_arch_profile
	.eabi_attribute	8, 0	@ Tag_ARM_ISA_use
	.eabi_attribute	9, 3	@ Tag_THUMB_ISA_use
	.eabi_attribute	34, 0	@ Tag_CPU_unaligned_access
	.eabi_attribute	17, 1	@ Tag_ABI_PCS_GOT_use
	.eabi_attribute	20, 2	@ Tag_ABI_FP_denormal
	.eabi_attribute	21, 0	@ Tag_ABI_FP_exceptions
	.eabi_attribute	23, 1	@ Tag_ABI_FP_number_model
	.eabi_attribute	24, 1	@ Tag_ABI_align_needed
	.eabi_attribute	25, 1	@ Tag_ABI_align_preserved
	.eabi_attribute	38, 1	@ Tag_ABI_FP_16bit_format
	.eabi_attribute	18, 2	@ Tag_ABI_PCS_wchar_t
	.eabi_attribute	26, 1	@ Tag_ABI_enum_size
	.eabi_attribute	14, 0	@ Tag_ABI_PCS_R9_use
	.file	"xtea.c"
	.file	1 "C:\\Users\\shw26\\OneDrive\\Desktop\\2021\\2021-1\\\354\272\241\354\212\244\355\206\244\353\224\224\354\236\220\354\235\2702\\Nuvoton\\M2351_BSP_v3.00.004\\M2351Series_BSP_CMSIS_V3.00.004\\MyProject\\PulseMonitoring\\Secure" "../../../ThirdParty/mbedTLS/library/xtea.c"
	.file	2 "C:\\" "Keil_v5\\ARM\\ARMCLANG\\Bin\\..\\include\\stdint.h"
	.section	.text.mbedtls_xtea_init,"ax",%progbits
	.hidden	mbedtls_xtea_init               @ -- Begin function mbedtls_xtea_init
	.globl	mbedtls_xtea_init
	.p2align	1
	.type	mbedtls_xtea_init,%function
	.code	16                              @ @mbedtls_xtea_init
	.thumb_func
mbedtls_xtea_init:
.Lfunc_begin0:
	.loc	1 70 0                          @ ../../../ThirdParty/mbedTLS/library/xtea.c:70:0
	.fnstart
	.cfi_sections .debug_frame
	.cfi_startproc
@ %bb.0:
	@DEBUG_VALUE: mbedtls_xtea_init:ctx <- $r0
	movs	r1, #0
	@DEBUG_VALUE: mbedtls_xtea_init:ctx <- $r0
.Ltmp0:
	.loc	1 71 5 prologue_end             @ ../../../ThirdParty/mbedTLS/library/xtea.c:71:5
	str	r1, [r0]
	str	r1, [r0, #4]
	str	r1, [r0, #8]
	str	r1, [r0, #12]
	.loc	1 72 1                          @ ../../../ThirdParty/mbedTLS/library/xtea.c:72:1
	bx	lr
.Ltmp1:
.Lfunc_end0:
	.size	mbedtls_xtea_init, .Lfunc_end0-mbedtls_xtea_init
	.cfi_endproc
	.cantunwind
	.fnend
                                        @ -- End function
	.section	.text.mbedtls_xtea_free,"ax",%progbits
	.hidden	mbedtls_xtea_free               @ -- Begin function mbedtls_xtea_free
	.globl	mbedtls_xtea_free
	.p2align	1
	.type	mbedtls_xtea_free,%function
	.code	16                              @ @mbedtls_xtea_free
	.thumb_func
mbedtls_xtea_free:
.Lfunc_begin1:
	.loc	1 75 0                          @ ../../../ThirdParty/mbedTLS/library/xtea.c:75:0
	.fnstart
	.cfi_startproc
@ %bb.0:
	@DEBUG_VALUE: mbedtls_xtea_free:ctx <- $r0
	@DEBUG_VALUE: mbedtls_xtea_free:ctx <- $r0
	.save	{r7, lr}
	push	{r7, lr}
	.cfi_def_cfa_offset 8
	.cfi_offset lr, -4
	.cfi_offset r7, -8
.Ltmp2:
	.loc	1 76 9 prologue_end             @ ../../../ThirdParty/mbedTLS/library/xtea.c:76:9
	cbz	r0, .LBB1_2
.Ltmp3:
@ %bb.1:
	@DEBUG_VALUE: mbedtls_xtea_free:ctx <- $r0
	.loc	1 0 9 is_stmt 0                 @ ../../../ThirdParty/mbedTLS/library/xtea.c:0:9
	movs	r1, #16
	.loc	1 79 5 is_stmt 1                @ ../../../ThirdParty/mbedTLS/library/xtea.c:79:5
	bl	mbedtls_platform_zeroize
.Ltmp4:
	@DEBUG_VALUE: mbedtls_xtea_free:ctx <- [DW_OP_LLVM_entry_value 1] $r0
.LBB1_2:
	.loc	1 80 1                          @ ../../../ThirdParty/mbedTLS/library/xtea.c:80:1
	pop	{r7, pc}
.Ltmp5:
.Lfunc_end1:
	.size	mbedtls_xtea_free, .Lfunc_end1-mbedtls_xtea_free
	.cfi_endproc
	.cantunwind
	.fnend
                                        @ -- End function
	.section	.text.mbedtls_xtea_setup,"ax",%progbits
	.hidden	mbedtls_xtea_setup              @ -- Begin function mbedtls_xtea_setup
	.globl	mbedtls_xtea_setup
	.p2align	1
	.type	mbedtls_xtea_setup,%function
	.code	16                              @ @mbedtls_xtea_setup
	.thumb_func
mbedtls_xtea_setup:
.Lfunc_begin2:
	.loc	1 86 0                          @ ../../../ThirdParty/mbedTLS/library/xtea.c:86:0
	.fnstart
	.cfi_startproc
@ %bb.0:
	@DEBUG_VALUE: mbedtls_xtea_setup:ctx <- $r0
	@DEBUG_VALUE: mbedtls_xtea_setup:key <- $r1
	.save	{r4, r5, r7, lr}
	push	{r4, r5, r7, lr}
	.cfi_def_cfa_offset 16
	.cfi_offset lr, -4
	.cfi_offset r7, -8
	.cfi_offset r5, -12
	.cfi_offset r4, -16
	movs	r2, #0
.Ltmp6:
	@DEBUG_VALUE: mbedtls_xtea_setup:i <- 0
	@DEBUG_VALUE: mbedtls_xtea_setup:key <- $r1
	@DEBUG_VALUE: mbedtls_xtea_setup:ctx <- $r0
	.loc	1 89 5 prologue_end             @ ../../../ThirdParty/mbedTLS/library/xtea.c:89:5
	str	r2, [r0]
	str	r2, [r0, #4]
	str	r2, [r0, #8]
	str	r2, [r0, #12]
.Ltmp7:
.LBB2_1:                                @ =>This Inner Loop Header: Depth=1
	@DEBUG_VALUE: mbedtls_xtea_setup:key <- $r1
	@DEBUG_VALUE: mbedtls_xtea_setup:ctx <- $r0
	@DEBUG_VALUE: mbedtls_xtea_setup:i <- undef
	.loc	1 93 9                          @ ../../../ThirdParty/mbedTLS/library/xtea.c:93:9
	ldrb	r3, [r1, r2]
	lsls	r3, r3, #24
	adds	r4, r1, r2
	ldrb	r5, [r4, #1]
	lsls	r5, r5, #16
	adds	r3, r5, r3
	ldrb	r5, [r4, #2]
	lsls	r5, r5, #8
	adds	r3, r3, r5
	ldrb	r4, [r4, #3]
	adds	r3, r3, r4
	str	r3, [r0, r2]
.Ltmp8:
	@DEBUG_VALUE: mbedtls_xtea_setup:i <- [DW_OP_plus_uconst 1, DW_OP_stack_value] undef
	.loc	1 91 19                         @ ../../../ThirdParty/mbedTLS/library/xtea.c:91:19
	adds	r2, r2, #4
.Ltmp9:
	.loc	1 91 5 is_stmt 0                @ ../../../ThirdParty/mbedTLS/library/xtea.c:91:5
	cmp	r2, #16
	bne	.LBB2_1
.Ltmp10:
@ %bb.2:
	@DEBUG_VALUE: mbedtls_xtea_setup:key <- $r1
	@DEBUG_VALUE: mbedtls_xtea_setup:ctx <- $r0
	.loc	1 95 1 is_stmt 1                @ ../../../ThirdParty/mbedTLS/library/xtea.c:95:1
	pop	{r4, r5, r7, pc}
.Ltmp11:
.Lfunc_end2:
	.size	mbedtls_xtea_setup, .Lfunc_end2-mbedtls_xtea_setup
	.cfi_endproc
	.cantunwind
	.fnend
                                        @ -- End function
	.section	.text.mbedtls_xtea_crypt_ecb,"ax",%progbits
	.hidden	mbedtls_xtea_crypt_ecb          @ -- Begin function mbedtls_xtea_crypt_ecb
	.globl	mbedtls_xtea_crypt_ecb
	.p2align	2
	.type	mbedtls_xtea_crypt_ecb,%function
	.code	16                              @ @mbedtls_xtea_crypt_ecb
	.thumb_func
mbedtls_xtea_crypt_ecb:
.Lfunc_begin3:
	.loc	1 102 0                         @ ../../../ThirdParty/mbedTLS/library/xtea.c:102:0
	.fnstart
	.cfi_startproc
@ %bb.0:
	@DEBUG_VALUE: mbedtls_xtea_crypt_ecb:ctx <- $r0
	@DEBUG_VALUE: mbedtls_xtea_crypt_ecb:mode <- $r1
	@DEBUG_VALUE: mbedtls_xtea_crypt_ecb:input <- $r2
	@DEBUG_VALUE: mbedtls_xtea_crypt_ecb:output <- $r3
	.save	{r4, r5, r6, r7, lr}
	push	{r4, r5, r6, r7, lr}
	.cfi_def_cfa_offset 20
	.cfi_offset lr, -4
	.cfi_offset r7, -8
	.cfi_offset r6, -12
	.cfi_offset r5, -16
	.cfi_offset r4, -20
	.pad	#12
	sub	sp, #12
	.cfi_def_cfa_offset 32
.Ltmp12:
	@DEBUG_VALUE: mbedtls_xtea_crypt_ecb:k <- $r0
	str	r3, [sp]                        @ 4-byte Spill
	@DEBUG_VALUE: mbedtls_xtea_crypt_ecb:k <- $r0
.Ltmp13:
	@DEBUG_VALUE: mbedtls_xtea_crypt_ecb:output <- [$sp+0]
	@DEBUG_VALUE: mbedtls_xtea_crypt_ecb:input <- $r2
	@DEBUG_VALUE: mbedtls_xtea_crypt_ecb:mode <- $r1
	@DEBUG_VALUE: mbedtls_xtea_crypt_ecb:ctx <- $r0
	.loc	1 108 5 prologue_end            @ ../../../ThirdParty/mbedTLS/library/xtea.c:108:5
	ldrb	r3, [r2, #4]
	lsls	r3, r3, #24
	ldrb	r4, [r2, #5]
	lsls	r4, r4, #16
	adds	r3, r4, r3
	ldrb	r4, [r2, #6]
	lsls	r4, r4, #8
	adds	r3, r3, r4
	ldrb	r4, [r2, #7]
	adds	r4, r3, r4
.Ltmp14:
	@DEBUG_VALUE: mbedtls_xtea_crypt_ecb:v1 <- $r4
	.loc	1 107 5                         @ ../../../ThirdParty/mbedTLS/library/xtea.c:107:5
	ldrb	r3, [r2]
	lsls	r3, r3, #24
	ldrb	r5, [r2, #1]
	lsls	r5, r5, #16
	adds	r3, r5, r3
	ldrb	r5, [r2, #2]
	lsls	r5, r5, #8
	adds	r3, r3, r5
	ldrb	r2, [r2, #3]
.Ltmp15:
	@DEBUG_VALUE: mbedtls_xtea_crypt_ecb:input <- [DW_OP_LLVM_entry_value 1] $r2
	adds	r2, r3, r2
.Ltmp16:
	@DEBUG_VALUE: mbedtls_xtea_crypt_ecb:v0 <- $r2
	.loc	1 110 9                         @ ../../../ThirdParty/mbedTLS/library/xtea.c:110:9
	cmp	r1, #1
	bne	.LBB3_3
.Ltmp17:
@ %bb.1:
	@DEBUG_VALUE: mbedtls_xtea_crypt_ecb:v1 <- $r4
	@DEBUG_VALUE: mbedtls_xtea_crypt_ecb:v0 <- $r2
	@DEBUG_VALUE: mbedtls_xtea_crypt_ecb:mode <- $r1
	@DEBUG_VALUE: mbedtls_xtea_crypt_ecb:k <- $r0
	@DEBUG_VALUE: mbedtls_xtea_crypt_ecb:ctx <- $r0
	@DEBUG_VALUE: mbedtls_xtea_crypt_ecb:output <- [$sp+0]
	@DEBUG_VALUE: mbedtls_xtea_crypt_ecb:input <- [DW_OP_LLVM_entry_value 1] $r2
	.loc	1 0 9 is_stmt 0                 @ ../../../ThirdParty/mbedTLS/library/xtea.c:0:9
	movs	r1, #0
.Ltmp18:
	@DEBUG_VALUE: mbedtls_xtea_crypt_ecb:mode <- [DW_OP_LLVM_entry_value 1] $r1
	movs	r3, #32
	movs	r6, #12
.Ltmp19:
.LBB3_2:                                @ =>This Inner Loop Header: Depth=1
	@DEBUG_VALUE: mbedtls_xtea_crypt_ecb:v1 <- $r4
	@DEBUG_VALUE: mbedtls_xtea_crypt_ecb:v0 <- $r2
	@DEBUG_VALUE: mbedtls_xtea_crypt_ecb:k <- $r0
	@DEBUG_VALUE: mbedtls_xtea_crypt_ecb:ctx <- $r0
	@DEBUG_VALUE: mbedtls_xtea_crypt_ecb:output <- [$sp+0]
	@DEBUG_VALUE: mbedtls_xtea_crypt_ecb:mode <- [DW_OP_LLVM_entry_value 1] $r1
	@DEBUG_VALUE: mbedtls_xtea_crypt_ecb:input <- [DW_OP_LLVM_entry_value 1] $r2
	@DEBUG_VALUE: mbedtls_xtea_crypt_ecb:v1 <- $r4
	@DEBUG_VALUE: mbedtls_xtea_crypt_ecb:v0 <- $r2
	@DEBUG_VALUE: sum <- $r1
	@DEBUG_VALUE: mbedtls_xtea_crypt_ecb:i <- undef
	.loc	1 116 37 is_stmt 1              @ ../../../ThirdParty/mbedTLS/library/xtea.c:116:37
	lsrs	r7, r4, #5
	.loc	1 116 25 is_stmt 0              @ ../../../ThirdParty/mbedTLS/library/xtea.c:116:25
	lsls	r5, r4, #4
	.loc	1 116 31                        @ ../../../ThirdParty/mbedTLS/library/xtea.c:116:31
	eors	r5, r7
	.loc	1 116 44                        @ ../../../ThirdParty/mbedTLS/library/xtea.c:116:44
	adds	r5, r5, r4
	.loc	1 116 59                        @ ../../../ThirdParty/mbedTLS/library/xtea.c:116:59
	lsls	r7, r1, #30
	lsrs	r7, r7, #28
	ldr	r7, [r0, r7]
	.loc	1 116 50                        @ ../../../ThirdParty/mbedTLS/library/xtea.c:116:50
	adds	r7, r1, r7
	eors	r7, r5
	.loc	1 116 16                        @ ../../../ThirdParty/mbedTLS/library/xtea.c:116:16
	adds	r2, r7, r2
.Ltmp20:
	@DEBUG_VALUE: mbedtls_xtea_crypt_ecb:v0 <- $r2
	.loc	1 118 37 is_stmt 1              @ ../../../ThirdParty/mbedTLS/library/xtea.c:118:37
	lsrs	r5, r2, #5
	.loc	1 118 25 is_stmt 0              @ ../../../ThirdParty/mbedTLS/library/xtea.c:118:25
	lsls	r7, r2, #4
	.loc	1 118 31                        @ ../../../ThirdParty/mbedTLS/library/xtea.c:118:31
	eors	r7, r5
	.loc	1 118 44                        @ ../../../ThirdParty/mbedTLS/library/xtea.c:118:44
	adds	r5, r7, r2
	.loc	1 117 17 is_stmt 1              @ ../../../ThirdParty/mbedTLS/library/xtea.c:117:17
	ldr	r7, __arm_cp.3_3
	adds	r1, r1, r7
.Ltmp21:
	@DEBUG_VALUE: sum <- $r1
	.loc	1 118 59                        @ ../../../ThirdParty/mbedTLS/library/xtea.c:118:59
	lsrs	r7, r1, #9
	ands	r7, r6
	ldr	r7, [r0, r7]
	.loc	1 118 50 is_stmt 0              @ ../../../ThirdParty/mbedTLS/library/xtea.c:118:50
	adds	r7, r1, r7
	eors	r7, r5
	.loc	1 118 16                        @ ../../../ThirdParty/mbedTLS/library/xtea.c:118:16
	adds	r4, r7, r4
.Ltmp22:
	@DEBUG_VALUE: mbedtls_xtea_crypt_ecb:i <- [DW_OP_plus_uconst 1, DW_OP_stack_value] undef
	@DEBUG_VALUE: mbedtls_xtea_crypt_ecb:v1 <- $r4
	.loc	1 114 23 is_stmt 1              @ ../../../ThirdParty/mbedTLS/library/xtea.c:114:23
	subs	r3, r3, #1
.Ltmp23:
	.loc	1 114 9 is_stmt 0               @ ../../../ThirdParty/mbedTLS/library/xtea.c:114:9
	bne	.LBB3_2
	b	.LBB3_5
.Ltmp24:
.LBB3_3:
	@DEBUG_VALUE: mbedtls_xtea_crypt_ecb:v1 <- $r4
	@DEBUG_VALUE: mbedtls_xtea_crypt_ecb:v0 <- $r2
	@DEBUG_VALUE: mbedtls_xtea_crypt_ecb:mode <- $r1
	@DEBUG_VALUE: mbedtls_xtea_crypt_ecb:k <- $r0
	@DEBUG_VALUE: mbedtls_xtea_crypt_ecb:ctx <- $r0
	@DEBUG_VALUE: mbedtls_xtea_crypt_ecb:output <- [$sp+0]
	@DEBUG_VALUE: mbedtls_xtea_crypt_ecb:input <- [DW_OP_LLVM_entry_value 1] $r2
	.loc	1 0 9                           @ ../../../ThirdParty/mbedTLS/library/xtea.c:0:9
	ldr	r1, __arm_cp.3_0
.Ltmp25:
	@DEBUG_VALUE: mbedtls_xtea_crypt_ecb:mode <- [DW_OP_LLVM_entry_value 1] $r1
	ldr	r5, __arm_cp.3_1
	movs	r6, #32
	movs	r3, #12
.Ltmp26:
	.loc	1 125 9 is_stmt 1               @ ../../../ThirdParty/mbedTLS/library/xtea.c:125:9
	str	r3, [sp, #4]                    @ 4-byte Spill
.Ltmp27:
.LBB3_4:                                @ =>This Inner Loop Header: Depth=1
	@DEBUG_VALUE: mbedtls_xtea_crypt_ecb:v1 <- $r4
	@DEBUG_VALUE: mbedtls_xtea_crypt_ecb:v0 <- $r2
	@DEBUG_VALUE: mbedtls_xtea_crypt_ecb:k <- $r0
	@DEBUG_VALUE: mbedtls_xtea_crypt_ecb:ctx <- $r0
	@DEBUG_VALUE: mbedtls_xtea_crypt_ecb:output <- [$sp+0]
	@DEBUG_VALUE: mbedtls_xtea_crypt_ecb:mode <- [DW_OP_LLVM_entry_value 1] $r1
	@DEBUG_VALUE: mbedtls_xtea_crypt_ecb:input <- [DW_OP_LLVM_entry_value 1] $r2
	@DEBUG_VALUE: mbedtls_xtea_crypt_ecb:v1 <- $r4
	@DEBUG_VALUE: mbedtls_xtea_crypt_ecb:v0 <- $r2
	@DEBUG_VALUE: mbedtls_xtea_crypt_ecb:i <- undef
	@DEBUG_VALUE: sum <- $r1
	.loc	1 127 37                        @ ../../../ThirdParty/mbedTLS/library/xtea.c:127:37
	lsrs	r3, r2, #5
	.loc	1 127 25 is_stmt 0              @ ../../../ThirdParty/mbedTLS/library/xtea.c:127:25
	lsls	r7, r2, #4
	.loc	1 127 31                        @ ../../../ThirdParty/mbedTLS/library/xtea.c:127:31
	eors	r7, r3
	.loc	1 127 44                        @ ../../../ThirdParty/mbedTLS/library/xtea.c:127:44
	adds	r3, r7, r2
	.loc	1 127 59                        @ ../../../ThirdParty/mbedTLS/library/xtea.c:127:59
	str	r3, [sp, #8]                    @ 4-byte Spill
	lsrs	r7, r1, #9
	ldr	r3, [sp, #4]                    @ 4-byte Reload
	ands	r7, r3
	ldr	r7, [r0, r7]
	.loc	1 127 50                        @ ../../../ThirdParty/mbedTLS/library/xtea.c:127:50
	adds	r7, r1, r7
	ldr	r3, [sp, #8]                    @ 4-byte Reload
	eors	r7, r3
	.loc	1 127 16                        @ ../../../ThirdParty/mbedTLS/library/xtea.c:127:16
	subs	r4, r4, r7
.Ltmp28:
	@DEBUG_VALUE: mbedtls_xtea_crypt_ecb:v1 <- $r4
	.loc	1 129 37 is_stmt 1              @ ../../../ThirdParty/mbedTLS/library/xtea.c:129:37
	lsrs	r3, r4, #5
	.loc	1 129 25 is_stmt 0              @ ../../../ThirdParty/mbedTLS/library/xtea.c:129:25
	lsls	r7, r4, #4
	.loc	1 129 31                        @ ../../../ThirdParty/mbedTLS/library/xtea.c:129:31
	eors	r7, r3
	.loc	1 129 44                        @ ../../../ThirdParty/mbedTLS/library/xtea.c:129:44
	adds	r3, r7, r4
	.loc	1 129 59                        @ ../../../ThirdParty/mbedTLS/library/xtea.c:129:59
	lsls	r7, r5, #30
	lsrs	r7, r7, #28
	ldr	r7, [r0, r7]
	.loc	1 129 50                        @ ../../../ThirdParty/mbedTLS/library/xtea.c:129:50
	adds	r7, r5, r7
	eors	r7, r3
	.loc	1 129 16                        @ ../../../ThirdParty/mbedTLS/library/xtea.c:129:16
	subs	r2, r2, r7
.Ltmp29:
	@DEBUG_VALUE: mbedtls_xtea_crypt_ecb:i <- [DW_OP_plus_uconst 1, DW_OP_stack_value] undef
	@DEBUG_VALUE: mbedtls_xtea_crypt_ecb:v0 <- $r2
	.loc	1 0 16                          @ ../../../ThirdParty/mbedTLS/library/xtea.c:0:16
	ldr	r3, __arm_cp.3_2
.Ltmp30:
	.loc	1 125 23 is_stmt 1              @ ../../../ThirdParty/mbedTLS/library/xtea.c:125:23
	adds	r5, r5, r3
.Ltmp31:
	.loc	1 128 17                        @ ../../../ThirdParty/mbedTLS/library/xtea.c:128:17
	adds	r1, r1, r3
.Ltmp32:
	@DEBUG_VALUE: sum <- $r1
	.loc	1 125 23                        @ ../../../ThirdParty/mbedTLS/library/xtea.c:125:23
	subs	r6, r6, #1
	bne	.LBB3_4
.Ltmp33:
.LBB3_5:
	@DEBUG_VALUE: mbedtls_xtea_crypt_ecb:v1 <- $r4
	@DEBUG_VALUE: mbedtls_xtea_crypt_ecb:v0 <- $r2
	@DEBUG_VALUE: mbedtls_xtea_crypt_ecb:k <- $r0
	@DEBUG_VALUE: mbedtls_xtea_crypt_ecb:ctx <- $r0
	@DEBUG_VALUE: mbedtls_xtea_crypt_ecb:output <- [$sp+0]
	@DEBUG_VALUE: mbedtls_xtea_crypt_ecb:mode <- [DW_OP_LLVM_entry_value 1] $r1
	@DEBUG_VALUE: mbedtls_xtea_crypt_ecb:input <- [DW_OP_LLVM_entry_value 1] $r2
	@DEBUG_VALUE: mbedtls_xtea_crypt_ecb:v1 <- $r4
	@DEBUG_VALUE: mbedtls_xtea_crypt_ecb:v0 <- $r2
	.loc	1 0 23 is_stmt 0                @ ../../../ThirdParty/mbedTLS/library/xtea.c:0:23
	ldr	r1, [sp]                        @ 4-byte Reload
.Ltmp34:
	.loc	1 134 5 is_stmt 1               @ ../../../ThirdParty/mbedTLS/library/xtea.c:134:5
	strb	r4, [r1, #7]
.Ltmp35:
	.loc	1 133 5                         @ ../../../ThirdParty/mbedTLS/library/xtea.c:133:5
	strb	r2, [r1, #3]
.Ltmp36:
	.loc	1 134 5                         @ ../../../ThirdParty/mbedTLS/library/xtea.c:134:5
	lsrs	r0, r4, #8
.Ltmp37:
	@DEBUG_VALUE: mbedtls_xtea_crypt_ecb:ctx <- [DW_OP_LLVM_entry_value 1] $r0
	strb	r0, [r1, #6]
	lsrs	r0, r4, #16
	strb	r0, [r1, #5]
	lsrs	r0, r4, #24
	strb	r0, [r1, #4]
.Ltmp38:
	.loc	1 133 5                         @ ../../../ThirdParty/mbedTLS/library/xtea.c:133:5
	lsrs	r0, r2, #8
	strb	r0, [r1, #2]
	lsrs	r0, r2, #16
	strb	r0, [r1, #1]
	lsrs	r0, r2, #24
	strb	r0, [r1]
	movs	r0, #0
.Ltmp39:
	.loc	1 136 5                         @ ../../../ThirdParty/mbedTLS/library/xtea.c:136:5
	add	sp, #12
.Ltmp40:
	pop	{r4, r5, r6, r7, pc}
.Ltmp41:
	.p2align	2
@ %bb.6:
	.loc	1 0 5 is_stmt 0                 @ ../../../ThirdParty/mbedTLS/library/xtea.c:0:5
__arm_cp.3_0:
	.long	3337565984                      @ 0xc6ef3720
.Lcpi_end0:
	.size	__arm_cp.3_0, .Lcpi_end0-__arm_cp.3_0
__arm_cp.3_1:
	.long	683130215                       @ 0x28b7bd67
.Lcpi_end1:
	.size	__arm_cp.3_1, .Lcpi_end1-__arm_cp.3_1
__arm_cp.3_2:
	.long	1640531527                      @ 0x61c88647
.Lcpi_end2:
	.size	__arm_cp.3_2, .Lcpi_end2-__arm_cp.3_2
__arm_cp.3_3:
	.long	2654435769                      @ 0x9e3779b9
.Lcpi_end3:
	.size	__arm_cp.3_3, .Lcpi_end3-__arm_cp.3_3
.Lfunc_end3:
	.size	mbedtls_xtea_crypt_ecb, .Lfunc_end3-mbedtls_xtea_crypt_ecb
	.cfi_endproc
	.cantunwind
	.fnend
                                        @ -- End function
	.section	.text.mbedtls_xtea_crypt_cbc,"ax",%progbits
	.hidden	mbedtls_xtea_crypt_cbc          @ -- Begin function mbedtls_xtea_crypt_cbc
	.globl	mbedtls_xtea_crypt_cbc
	.p2align	1
	.type	mbedtls_xtea_crypt_cbc,%function
	.code	16                              @ @mbedtls_xtea_crypt_cbc
	.thumb_func
mbedtls_xtea_crypt_cbc:
.Lfunc_begin4:
	.loc	1 146 0 is_stmt 1               @ ../../../ThirdParty/mbedTLS/library/xtea.c:146:0
	.fnstart
	.cfi_startproc
@ %bb.0:
	@DEBUG_VALUE: mbedtls_xtea_crypt_cbc:ctx <- $r0
	@DEBUG_VALUE: mbedtls_xtea_crypt_cbc:mode <- $r1
	@DEBUG_VALUE: mbedtls_xtea_crypt_cbc:length <- $r2
	@DEBUG_VALUE: mbedtls_xtea_crypt_cbc:iv <- $r3
	.save	{r4, r5, r6, r7, lr}
	push	{r4, r5, r6, r7, lr}
	.cfi_def_cfa_offset 20
	.cfi_offset lr, -4
	.cfi_offset r7, -8
	.cfi_offset r6, -12
	.cfi_offset r5, -16
	.cfi_offset r4, -20
	.pad	#44
	sub	sp, #44
	.cfi_def_cfa_offset 64
	mov	r5, r2
.Ltmp42:
	@DEBUG_VALUE: mbedtls_xtea_crypt_cbc:output <- [DW_OP_plus_uconst 68] [$sp+0]
	@DEBUG_VALUE: mbedtls_xtea_crypt_cbc:input <- [DW_OP_plus_uconst 64] [$sp+0]
	@DEBUG_VALUE: mbedtls_xtea_crypt_cbc:iv <- $r3
	@DEBUG_VALUE: mbedtls_xtea_crypt_cbc:length <- $r5
	@DEBUG_VALUE: mbedtls_xtea_crypt_cbc:mode <- $r1
	@DEBUG_VALUE: mbedtls_xtea_crypt_cbc:ctx <- $r0
	.loc	1 150 9 prologue_end            @ ../../../ThirdParty/mbedTLS/library/xtea.c:150:9
	lsls	r2, r2, #29
	beq	.LBB4_2
.Ltmp43:
@ %bb.1:
	@DEBUG_VALUE: mbedtls_xtea_crypt_cbc:length <- $r5
	@DEBUG_VALUE: mbedtls_xtea_crypt_cbc:iv <- $r3
	@DEBUG_VALUE: mbedtls_xtea_crypt_cbc:mode <- $r1
	@DEBUG_VALUE: mbedtls_xtea_crypt_cbc:ctx <- $r0
	@DEBUG_VALUE: mbedtls_xtea_crypt_cbc:input <- [DW_OP_plus_uconst 64] [$sp+0]
	@DEBUG_VALUE: mbedtls_xtea_crypt_cbc:output <- [DW_OP_plus_uconst 68] [$sp+0]
	.loc	1 0 9 is_stmt 0                 @ ../../../ThirdParty/mbedTLS/library/xtea.c:0:9
	movs	r0, #39
.Ltmp44:
	@DEBUG_VALUE: mbedtls_xtea_crypt_cbc:ctx <- [DW_OP_LLVM_entry_value 1] $r0
	mvns	r0, r0
	.loc	1 187 1 is_stmt 1               @ ../../../ThirdParty/mbedTLS/library/xtea.c:187:1
	add	sp, #44
.Ltmp45:
	pop	{r4, r5, r6, r7, pc}
.Ltmp46:
.LBB4_2:
	@DEBUG_VALUE: mbedtls_xtea_crypt_cbc:length <- $r5
	@DEBUG_VALUE: mbedtls_xtea_crypt_cbc:iv <- $r3
	@DEBUG_VALUE: mbedtls_xtea_crypt_cbc:mode <- $r1
	@DEBUG_VALUE: mbedtls_xtea_crypt_cbc:ctx <- $r0
	@DEBUG_VALUE: mbedtls_xtea_crypt_cbc:input <- [DW_OP_plus_uconst 64] [$sp+0]
	@DEBUG_VALUE: mbedtls_xtea_crypt_cbc:output <- [DW_OP_plus_uconst 68] [$sp+0]
	.loc	1 0 1 is_stmt 0                 @ ../../../ThirdParty/mbedTLS/library/xtea.c:0:1
	mov	r4, r3
.Ltmp47:
	@DEBUG_VALUE: mbedtls_xtea_crypt_cbc:iv <- $r4
	ldr	r6, [sp, #68]
	ldr	r7, [sp, #64]
.Ltmp48:
	@DEBUG_VALUE: mbedtls_xtea_crypt_cbc:output <- undef
	@DEBUG_VALUE: mbedtls_xtea_crypt_cbc:input <- undef
	@DEBUG_VALUE: mbedtls_xtea_crypt_cbc:length <- undef
	@DEBUG_VALUE: mbedtls_xtea_crypt_cbc:output <- undef
	@DEBUG_VALUE: mbedtls_xtea_crypt_cbc:input <- undef
	@DEBUG_VALUE: mbedtls_xtea_crypt_cbc:length <- undef
	str	r1, [sp, #20]                   @ 4-byte Spill
	.loc	1 153 9 is_stmt 1               @ ../../../ThirdParty/mbedTLS/library/xtea.c:153:9
	cbz	r1, .LBB4_8
.Ltmp49:
@ %bb.3:
	@DEBUG_VALUE: mbedtls_xtea_crypt_cbc:iv <- $r4
	@DEBUG_VALUE: mbedtls_xtea_crypt_cbc:mode <- $r1
	@DEBUG_VALUE: mbedtls_xtea_crypt_cbc:ctx <- $r0
	.loc	1 172 9                         @ ../../../ThirdParty/mbedTLS/library/xtea.c:172:9
	cmp	r5, #0
	bne	.LBB4_4
	b	.LBB4_14
.Ltmp50:
.LBB4_4:
	@DEBUG_VALUE: mbedtls_xtea_crypt_cbc:iv <- $r4
	@DEBUG_VALUE: mbedtls_xtea_crypt_cbc:mode <- $r1
	@DEBUG_VALUE: mbedtls_xtea_crypt_cbc:ctx <- $r0
	.loc	1 0 9 is_stmt 0                 @ ../../../ThirdParty/mbedTLS/library/xtea.c:0:9
	str	r0, [sp, #12]                   @ 4-byte Spill
.Ltmp51:
	@DEBUG_VALUE: mbedtls_xtea_crypt_cbc:ctx <- [DW_OP_plus_uconst 12] [$sp+0]
	movs	r0, #0
	str	r0, [sp, #16]                   @ 4-byte Spill
.Ltmp52:
	@DEBUG_VALUE: mbedtls_xtea_crypt_cbc:length <- $r5
	@DEBUG_VALUE: mbedtls_xtea_crypt_cbc:input <- $r7
	@DEBUG_VALUE: mbedtls_xtea_crypt_cbc:output <- $r6
	@DEBUG_VALUE: mbedtls_xtea_crypt_cbc:i <- 0
.LBB4_5:                                @ =>This Inner Loop Header: Depth=1
	@DEBUG_VALUE: mbedtls_xtea_crypt_cbc:input <- $r7
	@DEBUG_VALUE: mbedtls_xtea_crypt_cbc:output <- $r6
	@DEBUG_VALUE: mbedtls_xtea_crypt_cbc:length <- $r5
	@DEBUG_VALUE: mbedtls_xtea_crypt_cbc:iv <- $r4
	@DEBUG_VALUE: mbedtls_xtea_crypt_cbc:i <- $r0
	.loc	1 175 46 is_stmt 1              @ ../../../ThirdParty/mbedTLS/library/xtea.c:175:46
	ldrb	r3, [r7, r0]
	.loc	1 175 57 is_stmt 0              @ ../../../ThirdParty/mbedTLS/library/xtea.c:175:57
	ldrb	r2, [r4, r0]
	.loc	1 175 55                        @ ../../../ThirdParty/mbedTLS/library/xtea.c:175:55
	eors	r2, r3
	.loc	1 175 27                        @ ../../../ThirdParty/mbedTLS/library/xtea.c:175:27
	strb	r2, [r6, r0]
	.loc	1 174 33 is_stmt 1              @ ../../../ThirdParty/mbedTLS/library/xtea.c:174:33
	adds	r0, r0, #1
.Ltmp53:
	@DEBUG_VALUE: mbedtls_xtea_crypt_cbc:i <- $r0
	.loc	1 174 13 is_stmt 0              @ ../../../ThirdParty/mbedTLS/library/xtea.c:174:13
	cmp	r0, #8
	bne	.LBB4_5
.Ltmp54:
@ %bb.6:                                @   in Loop: Header=BB4_5 Depth=1
	@DEBUG_VALUE: mbedtls_xtea_crypt_cbc:input <- $r7
	@DEBUG_VALUE: mbedtls_xtea_crypt_cbc:output <- $r6
	@DEBUG_VALUE: mbedtls_xtea_crypt_cbc:length <- $r5
	@DEBUG_VALUE: mbedtls_xtea_crypt_cbc:iv <- $r4
	@DEBUG_VALUE: mbedtls_xtea_crypt_cbc:i <- $r0
	.loc	1 177 13 is_stmt 1              @ ../../../ThirdParty/mbedTLS/library/xtea.c:177:13
	ldr	r0, [sp, #12]                   @ 4-byte Reload
.Ltmp55:
	@DEBUG_VALUE: mbedtls_xtea_crypt_cbc:ctx <- $r0
	mov	r2, r6
	mov	r3, r6
	bl	mbedtls_xtea_crypt_ecb
.Ltmp56:
	@DEBUG_VALUE: mbedtls_xtea_crypt_cbc:mode <- [DW_OP_LLVM_entry_value 1] $r1
	@DEBUG_VALUE: mbedtls_xtea_crypt_cbc:ctx <- [DW_OP_LLVM_entry_value 1] $r0
	.loc	1 178 13                        @ ../../../ThirdParty/mbedTLS/library/xtea.c:178:13
	ldrb	r0, [r6, #1]
	str	r0, [sp, #40]                   @ 4-byte Spill
	ldrb	r0, [r6]
	str	r0, [sp, #36]                   @ 4-byte Spill
	ldrb	r0, [r6, #3]
	str	r0, [sp, #32]                   @ 4-byte Spill
	ldrb	r0, [r6, #2]
	str	r0, [sp, #28]                   @ 4-byte Spill
	ldrb	r0, [r6, #5]
	str	r0, [sp, #24]                   @ 4-byte Spill
	ldrb	r2, [r6, #4]
	ldrb	r0, [r6, #7]
	ldrb	r3, [r6, #6]
	strb	r3, [r4, #6]
	ldr	r1, [sp, #20]                   @ 4-byte Reload
	strb	r0, [r4, #7]
	strb	r2, [r4, #4]
	ldr	r0, [sp, #24]                   @ 4-byte Reload
	strb	r0, [r4, #5]
	ldr	r0, [sp, #28]                   @ 4-byte Reload
	strb	r0, [r4, #2]
	ldr	r0, [sp, #32]                   @ 4-byte Reload
	strb	r0, [r4, #3]
	ldr	r0, [sp, #36]                   @ 4-byte Reload
	strb	r0, [r4]
	ldr	r0, [sp, #40]                   @ 4-byte Reload
	strb	r0, [r4, #1]
	.loc	1 182 20                        @ ../../../ThirdParty/mbedTLS/library/xtea.c:182:20
	subs	r5, #8
.Ltmp57:
	@DEBUG_VALUE: mbedtls_xtea_crypt_cbc:length <- $r5
	.loc	1 181 20                        @ ../../../ThirdParty/mbedTLS/library/xtea.c:181:20
	adds	r6, #8
.Ltmp58:
	@DEBUG_VALUE: mbedtls_xtea_crypt_cbc:output <- $r6
	.loc	1 180 20                        @ ../../../ThirdParty/mbedTLS/library/xtea.c:180:20
	adds	r7, #8
.Ltmp59:
	@DEBUG_VALUE: mbedtls_xtea_crypt_cbc:input <- $r7
	.loc	1 172 9                         @ ../../../ThirdParty/mbedTLS/library/xtea.c:172:9
	cmp	r5, #0
	ldr	r0, [sp, #16]                   @ 4-byte Reload
	bne	.LBB4_5
.Ltmp60:
@ %bb.7:
	@DEBUG_VALUE: mbedtls_xtea_crypt_cbc:input <- $r7
	@DEBUG_VALUE: mbedtls_xtea_crypt_cbc:output <- $r6
	@DEBUG_VALUE: mbedtls_xtea_crypt_cbc:length <- $r5
	@DEBUG_VALUE: mbedtls_xtea_crypt_cbc:iv <- $r4
	.loc	1 187 1                         @ ../../../ThirdParty/mbedTLS/library/xtea.c:187:1
	add	sp, #44
	pop	{r4, r5, r6, r7, pc}
.Ltmp61:
.LBB4_8:
	@DEBUG_VALUE: mbedtls_xtea_crypt_cbc:iv <- $r4
	@DEBUG_VALUE: mbedtls_xtea_crypt_cbc:mode <- $r1
	@DEBUG_VALUE: mbedtls_xtea_crypt_cbc:ctx <- $r0
	.loc	1 155 9                         @ ../../../ThirdParty/mbedTLS/library/xtea.c:155:9
	cmp	r5, #0
	beq	.LBB4_14
.Ltmp62:
@ %bb.9:
	@DEBUG_VALUE: mbedtls_xtea_crypt_cbc:iv <- $r4
	@DEBUG_VALUE: mbedtls_xtea_crypt_cbc:mode <- $r1
	@DEBUG_VALUE: mbedtls_xtea_crypt_cbc:ctx <- $r0
	.loc	1 0 9 is_stmt 0                 @ ../../../ThirdParty/mbedTLS/library/xtea.c:0:9
	movs	r2, #0
	str	r2, [sp, #16]                   @ 4-byte Spill
	str	r0, [sp, #12]                   @ 4-byte Spill
.Ltmp63:
.LBB4_10:                               @ =>This Loop Header: Depth=1
                                        @     Child Loop BB4_11 Depth 2
	@DEBUG_VALUE: mbedtls_xtea_crypt_cbc:iv <- $r4
	@DEBUG_VALUE: mbedtls_xtea_crypt_cbc:length <- $r5
	@DEBUG_VALUE: mbedtls_xtea_crypt_cbc:input <- $r7
	@DEBUG_VALUE: mbedtls_xtea_crypt_cbc:output <- $r6
	.loc	1 157 13 is_stmt 1              @ ../../../ThirdParty/mbedTLS/library/xtea.c:157:13
	ldrb	r2, [r7, #2]
	str	r2, [sp, #36]                   @ 4-byte Spill
	ldrb	r2, [r7, #3]
	str	r2, [sp, #32]                   @ 4-byte Spill
	ldrb	r2, [r7]
	str	r2, [sp, #28]                   @ 4-byte Spill
	ldrb	r2, [r7, #1]
	str	r2, [sp, #24]                   @ 4-byte Spill
	ldrb	r2, [r7, #6]
	str	r2, [sp, #40]                   @ 4-byte Spill
	ldrb	r2, [r7, #7]
	str	r2, [sp, #8]                    @ 4-byte Spill
	ldrb	r2, [r7, #4]
	str	r2, [sp, #4]                    @ 4-byte Spill
	ldrb	r2, [r7, #5]
	.loc	1 158 13                        @ ../../../ThirdParty/mbedTLS/library/xtea.c:158:13
	str	r2, [sp]                        @ 4-byte Spill
	mov	r2, r7
	mov	r3, r6
	bl	mbedtls_xtea_crypt_ecb
.Ltmp64:
	@DEBUG_VALUE: mbedtls_xtea_crypt_cbc:mode <- [DW_OP_LLVM_entry_value 1] $r1
	@DEBUG_VALUE: mbedtls_xtea_crypt_cbc:ctx <- [DW_OP_LLVM_entry_value 1] $r0
	.loc	1 157 13                        @ ../../../ThirdParty/mbedTLS/library/xtea.c:157:13
	ldr	r0, [sp]                        @ 4-byte Reload
	lsls	r0, r0, #8
	ldr	r1, [sp, #4]                    @ 4-byte Reload
	adds	r0, r0, r1
	ldr	r1, [sp, #8]                    @ 4-byte Reload
	lsls	r1, r1, #8
	ldr	r2, [sp, #40]                   @ 4-byte Reload
	adds	r1, r1, r2
	lsls	r1, r1, #16
	adds	r0, r1, r0
.Ltmp65:
	@DEBUG_VALUE: mbedtls_xtea_crypt_cbc:temp <- [DW_OP_LLVM_fragment 32 32] $r0
	str	r0, [sp, #40]                   @ 4-byte Spill
.Ltmp66:
	@DEBUG_VALUE: mbedtls_xtea_crypt_cbc:temp <- [DW_OP_plus_uconst 40, DW_OP_LLVM_fragment 32 32] [$sp+0]
	@DEBUG_VALUE: mbedtls_xtea_crypt_cbc:temp <- [DW_OP_plus_uconst 40, DW_OP_LLVM_fragment 32 32] [$sp+0]
	@DEBUG_VALUE: mbedtls_xtea_crypt_cbc:temp <- [DW_OP_plus_uconst 40, DW_OP_LLVM_fragment 32 32] [$sp+0]
	ldr	r0, [sp, #24]                   @ 4-byte Reload
	lsls	r1, r0, #8
	ldr	r0, [sp, #28]                   @ 4-byte Reload
	adds	r1, r1, r0
	ldr	r0, [sp, #32]                   @ 4-byte Reload
	lsls	r2, r0, #8
	ldr	r0, [sp, #36]                   @ 4-byte Reload
	adds	r2, r2, r0
	lsls	r2, r2, #16
	adds	r1, r2, r1
.Ltmp67:
	@DEBUG_VALUE: mbedtls_xtea_crypt_cbc:i <- 0
	@DEBUG_VALUE: mbedtls_xtea_crypt_cbc:temp <- [DW_OP_LLVM_fragment 0 32] $r1
	.loc	1 0 13 is_stmt 0                @ ../../../ThirdParty/mbedTLS/library/xtea.c:0:13
	ldr	r2, [sp, #16]                   @ 4-byte Reload
.Ltmp68:
.LBB4_11:                               @   Parent Loop BB4_10 Depth=1
                                        @ =>  This Inner Loop Header: Depth=2
	@DEBUG_VALUE: mbedtls_xtea_crypt_cbc:input <- $r7
	@DEBUG_VALUE: mbedtls_xtea_crypt_cbc:output <- $r6
	@DEBUG_VALUE: mbedtls_xtea_crypt_cbc:length <- $r5
	@DEBUG_VALUE: mbedtls_xtea_crypt_cbc:iv <- $r4
	@DEBUG_VALUE: mbedtls_xtea_crypt_cbc:temp <- [DW_OP_LLVM_fragment 0 32] $r1
	@DEBUG_VALUE: mbedtls_xtea_crypt_cbc:temp <- [DW_OP_plus_uconst 40, DW_OP_LLVM_fragment 32 32] [$sp+0]
	@DEBUG_VALUE: mbedtls_xtea_crypt_cbc:i <- $r2
	.loc	1 161 46 is_stmt 1              @ ../../../ThirdParty/mbedTLS/library/xtea.c:161:46
	ldrb	r3, [r6, r2]
	.loc	1 161 58 is_stmt 0              @ ../../../ThirdParty/mbedTLS/library/xtea.c:161:58
	ldrb	r0, [r4, r2]
	.loc	1 161 56                        @ ../../../ThirdParty/mbedTLS/library/xtea.c:161:56
	eors	r0, r3
	.loc	1 161 27                        @ ../../../ThirdParty/mbedTLS/library/xtea.c:161:27
	strb	r0, [r6, r2]
	.loc	1 160 33 is_stmt 1              @ ../../../ThirdParty/mbedTLS/library/xtea.c:160:33
	adds	r2, r2, #1
.Ltmp69:
	@DEBUG_VALUE: mbedtls_xtea_crypt_cbc:i <- $r2
	.loc	1 160 13 is_stmt 0              @ ../../../ThirdParty/mbedTLS/library/xtea.c:160:13
	cmp	r2, #8
	bne	.LBB4_11
.Ltmp70:
@ %bb.12:                               @   in Loop: Header=BB4_10 Depth=1
	@DEBUG_VALUE: mbedtls_xtea_crypt_cbc:input <- $r7
	@DEBUG_VALUE: mbedtls_xtea_crypt_cbc:output <- $r6
	@DEBUG_VALUE: mbedtls_xtea_crypt_cbc:length <- $r5
	@DEBUG_VALUE: mbedtls_xtea_crypt_cbc:iv <- $r4
	@DEBUG_VALUE: mbedtls_xtea_crypt_cbc:i <- $r2
	@DEBUG_VALUE: mbedtls_xtea_crypt_cbc:temp <- [DW_OP_LLVM_fragment 0 32] $r1
	@DEBUG_VALUE: mbedtls_xtea_crypt_cbc:temp <- [DW_OP_plus_uconst 40, DW_OP_LLVM_fragment 32 32] [$sp+0]
	.loc	1 163 13 is_stmt 1              @ ../../../ThirdParty/mbedTLS/library/xtea.c:163:13
	strb	r1, [r4]
	ldr	r2, [sp, #40]                   @ 4-byte Reload
.Ltmp71:
	strb	r2, [r4, #4]
	lsrs	r0, r1, #24
	strb	r0, [r4, #3]
	lsrs	r0, r1, #16
	strb	r0, [r4, #2]
	lsrs	r0, r1, #8
	strb	r0, [r4, #1]
	lsrs	r0, r2, #24
	strb	r0, [r4, #7]
	lsrs	r0, r2, #16
	strb	r0, [r4, #6]
	lsrs	r0, r2, #8
	strb	r0, [r4, #5]
	.loc	1 167 20                        @ ../../../ThirdParty/mbedTLS/library/xtea.c:167:20
	subs	r5, #8
.Ltmp72:
	@DEBUG_VALUE: mbedtls_xtea_crypt_cbc:length <- $r5
	.loc	1 166 20                        @ ../../../ThirdParty/mbedTLS/library/xtea.c:166:20
	adds	r6, #8
.Ltmp73:
	@DEBUG_VALUE: mbedtls_xtea_crypt_cbc:output <- $r6
	.loc	1 165 20                        @ ../../../ThirdParty/mbedTLS/library/xtea.c:165:20
	adds	r7, #8
.Ltmp74:
	@DEBUG_VALUE: mbedtls_xtea_crypt_cbc:input <- $r7
	.loc	1 155 9                         @ ../../../ThirdParty/mbedTLS/library/xtea.c:155:9
	cmp	r5, #0
	ldr	r1, [sp, #20]                   @ 4-byte Reload
.Ltmp75:
	.loc	1 0 9 is_stmt 0                 @ ../../../ThirdParty/mbedTLS/library/xtea.c:0:9
	ldr	r0, [sp, #12]                   @ 4-byte Reload
	.loc	1 155 9                         @ ../../../ThirdParty/mbedTLS/library/xtea.c:155:9
	bne	.LBB4_10
.Ltmp76:
@ %bb.13:
	@DEBUG_VALUE: mbedtls_xtea_crypt_cbc:input <- $r7
	@DEBUG_VALUE: mbedtls_xtea_crypt_cbc:output <- $r6
	@DEBUG_VALUE: mbedtls_xtea_crypt_cbc:length <- $r5
	@DEBUG_VALUE: mbedtls_xtea_crypt_cbc:iv <- $r4
	@DEBUG_VALUE: mbedtls_xtea_crypt_cbc:temp <- [DW_OP_plus_uconst 40, DW_OP_LLVM_fragment 32 32] [$sp+0]
	.loc	1 0 9                           @ ../../../ThirdParty/mbedTLS/library/xtea.c:0:9
	ldr	r0, [sp, #16]                   @ 4-byte Reload
	.loc	1 187 1 is_stmt 1               @ ../../../ThirdParty/mbedTLS/library/xtea.c:187:1
	add	sp, #44
.Ltmp77:
	pop	{r4, r5, r6, r7, pc}
.Ltmp78:
.LBB4_14:
	@DEBUG_VALUE: mbedtls_xtea_crypt_cbc:iv <- $r4
	@DEBUG_VALUE: mbedtls_xtea_crypt_cbc:mode <- $r1
	@DEBUG_VALUE: mbedtls_xtea_crypt_cbc:ctx <- $r0
	.loc	1 0 1 is_stmt 0                 @ ../../../ThirdParty/mbedTLS/library/xtea.c:0:1
	movs	r0, #0
.Ltmp79:
	@DEBUG_VALUE: mbedtls_xtea_crypt_cbc:ctx <- [DW_OP_LLVM_entry_value 1] $r0
	.loc	1 187 1                         @ ../../../ThirdParty/mbedTLS/library/xtea.c:187:1
	add	sp, #44
	pop	{r4, r5, r6, r7, pc}
.Ltmp80:
.Lfunc_end4:
	.size	mbedtls_xtea_crypt_cbc, .Lfunc_end4-mbedtls_xtea_crypt_cbc
	.cfi_endproc
	.cantunwind
	.fnend
                                        @ -- End function
	.section	.text.mbedtls_xtea_self_test,"ax",%progbits
	.hidden	mbedtls_xtea_self_test          @ -- Begin function mbedtls_xtea_self_test
	.globl	mbedtls_xtea_self_test
	.p2align	2
	.type	mbedtls_xtea_self_test,%function
	.code	16                              @ @mbedtls_xtea_self_test
	.thumb_func
mbedtls_xtea_self_test:
.Lfunc_begin5:
	.loc	1 243 0 is_stmt 1               @ ../../../ThirdParty/mbedTLS/library/xtea.c:243:0
	.fnstart
	.cfi_startproc
@ %bb.0:
	@DEBUG_VALUE: mbedtls_xtea_self_test:verbose <- $r0
	.save	{r4, r5, r6, r7, lr}
	push	{r4, r5, r6, r7, lr}
	.cfi_def_cfa_offset 20
	.cfi_offset lr, -4
	.cfi_offset r7, -8
	.cfi_offset r6, -12
	.cfi_offset r5, -16
	.cfi_offset r4, -20
	.pad	#52
	sub	sp, #52
	.cfi_def_cfa_offset 72
	mov	r4, r0
.Ltmp81:
	@DEBUG_VALUE: mbedtls_xtea_self_test:ret <- 0
	@DEBUG_VALUE: mbedtls_xtea_self_test:verbose <- $r4
	add	r0, sp, #24
.Ltmp82:
	.loc	1 248 5 prologue_end            @ ../../../ThirdParty/mbedTLS/library/xtea.c:248:5
	bl	mbedtls_xtea_init
	movs	r5, #1
	adr	r7, .LCPI5_0
	ldr	r6, __arm_cp.5_1
	ldr	r0, __arm_cp.5_2
.Ltmp83:
	@DEBUG_VALUE: mbedtls_xtea_self_test:i <- 0
	.loc	1 0 5 is_stmt 0                 @ ../../../ThirdParty/mbedTLS/library/xtea.c:0:5
	str	r0, [sp, #20]                   @ 4-byte Spill
	movs	r0, #8
	str	r0, [sp, #4]                    @ 4-byte Spill
	str	r5, [sp, #8]                    @ 4-byte Spill
	str	r4, [sp, #12]                   @ 4-byte Spill
	b	.LBB5_2
.Ltmp84:
.LBB5_1:                                @   in Loop: Header=BB5_2 Depth=1
	@DEBUG_VALUE: mbedtls_xtea_self_test:buf <- [DW_OP_plus_uconst 40, DW_OP_deref] $sp
	@DEBUG_VALUE: mbedtls_xtea_self_test:ret <- 0
	@DEBUG_VALUE: mbedtls_xtea_self_test:i <- [DW_OP_plus_uconst 1, DW_OP_stack_value] undef
	.loc	1 249 19 is_stmt 1              @ ../../../ThirdParty/mbedTLS/library/xtea.c:249:19
	adds	r6, #8
	str	r6, [sp, #20]                   @ 4-byte Spill
	ldr	r6, [sp, #16]                   @ 4-byte Reload
	adds	r6, #16
	adds	r7, #8
	adds	r5, r5, #1
.Ltmp85:
	.loc	1 249 5 is_stmt 0               @ ../../../ThirdParty/mbedTLS/library/xtea.c:249:5
	cmp	r5, #7
	beq	.LBB5_9
.Ltmp86:
.LBB5_2:                                @ =>This Inner Loop Header: Depth=1
	@DEBUG_VALUE: mbedtls_xtea_self_test:ret <- 0
	@DEBUG_VALUE: mbedtls_xtea_self_test:i <- undef
	.loc	1 251 13 is_stmt 1              @ ../../../ThirdParty/mbedTLS/library/xtea.c:251:13
	cbz	r4, .LBB5_4
.Ltmp87:
@ %bb.3:                                @   in Loop: Header=BB5_2 Depth=1
	@DEBUG_VALUE: mbedtls_xtea_self_test:ret <- 0
	.loc	1 252 13                        @ ../../../ThirdParty/mbedTLS/library/xtea.c:252:13
	adr	r0, .LCPI5_3
	mov	r1, r5
	bl	__2printf
.Ltmp88:
.LBB5_4:                                @   in Loop: Header=BB5_2 Depth=1
	@DEBUG_VALUE: mbedtls_xtea_self_test:ret <- 0
	.loc	1 254 9                         @ ../../../ThirdParty/mbedTLS/library/xtea.c:254:9
	ldrb	r0, [r7]
	ldrb	r1, [r7, #1]
	lsls	r1, r1, #8
	adds	r0, r1, r0
	ldrb	r1, [r7, #2]
	ldrb	r2, [r7, #3]
	lsls	r2, r2, #8
	adds	r1, r2, r1
	lsls	r1, r1, #16
	adds	r0, r1, r0
.Ltmp89:
	@DEBUG_VALUE: mbedtls_xtea_self_test:buf <- [DW_OP_LLVM_fragment 0 32] $r0
	ldrb	r1, [r7, #6]
	ldrb	r2, [r7, #7]
	ldrb	r3, [r7, #4]
	ldrb	r4, [r7, #5]
	str	r0, [sp, #40]
	lsls	r0, r4, #8
.Ltmp90:
	adds	r0, r0, r3
	lsls	r2, r2, #8
	adds	r1, r2, r1
	lsls	r1, r1, #16
	adds	r0, r1, r0
.Ltmp91:
	@DEBUG_VALUE: mbedtls_xtea_self_test:buf <- [DW_OP_LLVM_fragment 32 32] $r0
	str	r0, [sp, #44]
	add	r4, sp, #24
	.loc	1 256 9                         @ ../../../ThirdParty/mbedTLS/library/xtea.c:256:9
	mov	r0, r4
.Ltmp92:
	.loc	1 0 9 is_stmt 0                 @ ../../../ThirdParty/mbedTLS/library/xtea.c:0:9
	str	r6, [sp, #16]                   @ 4-byte Spill
	.loc	1 256 9                         @ ../../../ThirdParty/mbedTLS/library/xtea.c:256:9
	mov	r1, r6
	bl	mbedtls_xtea_setup
.Ltmp93:
	@DEBUG_VALUE: mbedtls_xtea_self_test:buf <- [DW_OP_plus_uconst 40, DW_OP_deref] $sp
	.loc	1 0 9                           @ ../../../ThirdParty/mbedTLS/library/xtea.c:0:9
	add	r6, sp, #40
	.loc	1 257 9 is_stmt 1               @ ../../../ThirdParty/mbedTLS/library/xtea.c:257:9
	mov	r0, r4
	ldr	r1, [sp, #8]                    @ 4-byte Reload
	mov	r2, r6
	mov	r3, r6
	bl	mbedtls_xtea_crypt_ecb
.Ltmp94:
	.loc	1 259 13                        @ ../../../ThirdParty/mbedTLS/library/xtea.c:259:13
	mov	r0, r6
	ldr	r6, [sp, #20]                   @ 4-byte Reload
	mov	r1, r6
	ldr	r2, [sp, #4]                    @ 4-byte Reload
	bl	memcmp
.Ltmp95:
	.loc	1 259 13 is_stmt 0              @ ../../../ThirdParty/mbedTLS/library/xtea.c:259:13
	cbnz	r0, .LBB5_7
.Ltmp96:
@ %bb.5:                                @   in Loop: Header=BB5_2 Depth=1
	@DEBUG_VALUE: mbedtls_xtea_self_test:buf <- [DW_OP_plus_uconst 40, DW_OP_deref] $sp
	@DEBUG_VALUE: mbedtls_xtea_self_test:ret <- 0
	.loc	1 0 13                          @ ../../../ThirdParty/mbedTLS/library/xtea.c:0:13
	ldr	r4, [sp, #12]                   @ 4-byte Reload
	.loc	1 268 13 is_stmt 1              @ ../../../ThirdParty/mbedTLS/library/xtea.c:268:13
	cmp	r4, #0
	beq	.LBB5_1
.Ltmp97:
@ %bb.6:                                @   in Loop: Header=BB5_2 Depth=1
	@DEBUG_VALUE: mbedtls_xtea_self_test:buf <- [DW_OP_plus_uconst 40, DW_OP_deref] $sp
	@DEBUG_VALUE: mbedtls_xtea_self_test:ret <- 0
	.loc	1 269 13                        @ ../../../ThirdParty/mbedTLS/library/xtea.c:269:13
	adr	r0, .LCPI5_5
	bl	puts
	b	.LBB5_1
.Ltmp98:
.LBB5_7:
	@DEBUG_VALUE: mbedtls_xtea_self_test:buf <- [DW_OP_plus_uconst 40, DW_OP_deref] $sp
	@DEBUG_VALUE: mbedtls_xtea_self_test:ret <- 0
	.loc	1 0 13 is_stmt 0                @ ../../../ThirdParty/mbedTLS/library/xtea.c:0:13
	movs	r5, #1
.Ltmp99:
	.loc	1 261 17 is_stmt 1              @ ../../../ThirdParty/mbedTLS/library/xtea.c:261:17
	ldr	r0, [sp, #12]                   @ 4-byte Reload
	cbz	r0, .LBB5_11
.Ltmp100:
@ %bb.8:
	@DEBUG_VALUE: mbedtls_xtea_self_test:buf <- [DW_OP_plus_uconst 40, DW_OP_deref] $sp
	@DEBUG_VALUE: mbedtls_xtea_self_test:ret <- 0
	.loc	1 262 17                        @ ../../../ThirdParty/mbedTLS/library/xtea.c:262:17
	adr	r0, .LCPI5_4
	bl	puts
	b	.LBB5_11
.Ltmp101:
.LBB5_9:
	@DEBUG_VALUE: mbedtls_xtea_self_test:buf <- [DW_OP_plus_uconst 40, DW_OP_deref] $sp
	@DEBUG_VALUE: mbedtls_xtea_self_test:ret <- 0
	.loc	1 0 17 is_stmt 0                @ ../../../ThirdParty/mbedTLS/library/xtea.c:0:17
	movs	r5, #0
	.loc	1 272 9 is_stmt 1               @ ../../../ThirdParty/mbedTLS/library/xtea.c:272:9
	cbz	r4, .LBB5_11
.Ltmp102:
@ %bb.10:
	@DEBUG_VALUE: mbedtls_xtea_self_test:buf <- [DW_OP_plus_uconst 40, DW_OP_deref] $sp
	@DEBUG_VALUE: mbedtls_xtea_self_test:ret <- 0
	.loc	1 0 9 is_stmt 0                 @ ../../../ThirdParty/mbedTLS/library/xtea.c:0:9
	movs	r0, #10
.Ltmp103:
	.loc	1 273 9 is_stmt 1               @ ../../../ThirdParty/mbedTLS/library/xtea.c:273:9
	bl	putchar
.Ltmp104:
.LBB5_11:
	@DEBUG_VALUE: mbedtls_xtea_self_test:buf <- [DW_OP_plus_uconst 40, DW_OP_deref] $sp
	@DEBUG_VALUE: mbedtls_xtea_self_test:ret <- 0
	@DEBUG_VALUE: mbedtls_xtea_self_test:ret <- $r5
	@DEBUG_LABEL: mbedtls_xtea_self_test:exit
	.loc	1 0 9 is_stmt 0                 @ ../../../ThirdParty/mbedTLS/library/xtea.c:0:9
	add	r0, sp, #24
	.loc	1 276 5 is_stmt 1               @ ../../../ThirdParty/mbedTLS/library/xtea.c:276:5
	bl	mbedtls_xtea_free
	.loc	1 278 5                         @ ../../../ThirdParty/mbedTLS/library/xtea.c:278:5
	mov	r0, r5
	add	sp, #52
.Ltmp105:
	pop	{r4, r5, r6, r7, pc}
.Ltmp106:
	.p2align	2
@ %bb.12:
	.loc	1 0 5 is_stmt 0                 @ ../../../ThirdParty/mbedTLS/library/xtea.c:0:5
.LCPI5_0:
xtea_test_pt:
	.ascii	"ABCDEFGH"
	.zero	8,65
	.ascii	"Z[n'\211H\327\177"
	.ascii	"ABCDEFGH"
	.zero	8,65
	.ascii	"p\341\"]nNvU"
__arm_cp.5_1:
	.long	xtea_test_key
.Lcpi_end4:
	.size	__arm_cp.5_1, .Lcpi_end4-__arm_cp.5_1
__arm_cp.5_2:
	.long	xtea_test_ct
.Lcpi_end5:
	.size	__arm_cp.5_2, .Lcpi_end5-__arm_cp.5_2
.LCPI5_3:
.L.str:
	.asciz	"  XTEA test #%d: \000\000"
.LCPI5_4:
.Lstr.4:
	.asciz	"failed\000"
.LCPI5_5:
.Lstr:
	.asciz	"passed\000"
.Lfunc_end5:
	.size	mbedtls_xtea_self_test, .Lfunc_end5-mbedtls_xtea_self_test
	.cfi_endproc
	.cantunwind
	.fnend
                                        @ -- End function
	.type	xtea_test_key,%object           @ @xtea_test_key
	.section	.rodata.xtea_test_key,"a",%progbits
xtea_test_key:
	.ascii	"\000\001\002\003\004\005\006\007\b\t\n\013\f\r\016\017"
	.ascii	"\000\001\002\003\004\005\006\007\b\t\n\013\f\r\016\017"
	.ascii	"\000\001\002\003\004\005\006\007\b\t\n\013\f\r\016\017"
	.zero	16
	.zero	16
	.zero	16
	.size	xtea_test_key, 96

	.type	xtea_test_ct,%object            @ @xtea_test_ct
	.section	.rodata.xtea_test_ct,"a",%progbits
xtea_test_ct:
	.ascii	"I}\363\320ra,\265"
	.ascii	"\347\217-\023tCA\330"
	.zero	8,65
	.ascii	"\2409\005\211\370\270\357\245"
	.ascii	"\355#7Z\202\032\214-"
	.zero	8,65
	.size	xtea_test_ct, 48

	.globl	_printf_percent
	.globl	_printf_d
	.globl	_printf_int_dec
	.hidden	_printf_percent
	.hidden	_printf_d
	.hidden	_printf_int_dec
	.file	3 "C:\\Users\\shw26\\OneDrive\\Desktop\\2021\\2021-1\\\354\272\241\354\212\244\355\206\244\353\224\224\354\236\220\354\235\2702\\Nuvoton\\M2351_BSP_v3.00.004\\M2351Series_BSP_CMSIS_V3.00.004\\MyProject\\PulseMonitoring\\Secure" "../../../ThirdParty/mbedTLS/include/mbedtls\\xtea.h"
	.file	4 "C:\\" "Keil_v5\\ARM\\ARMCLANG\\Bin\\..\\include\\stddef.h"
	.section	".note.GNU-stack","",%progbits
	.eabi_attribute	30, 1	@ Tag_ABI_optimization_goals
	.ARM_attribute	16, 1	@ Tag_AV_eba