	.text
	.syntax unified
	.eabi_attribute	67, "2.09"	@ Tag_conformance
	.cpu	cortex-m23
	.eabi_attribute	6, 16	@ Tag_CPU_arch
	.eabi_attribute	7, 77	@ Tag_CPU_arch_profile
	.eabi_attribute	8, 0	@ Tag_ARM_ISA_use
	.eabi_attribute	9, 3	@ Tag_THUMB_ISA_use
	.eabi_attribute	34, 0	@ Tag_CPU_unaligned_access
	.eabi_attribute	17, 1	@ Tag_ABI_PCS_GOT_use
	.eabi_attribute	20, 2	@ Tag_ABI_FP_denormal
	.eabi_attribute	21, 0	@ Tag_ABI_FP_exceptions
	.eabi_attribute	23, 1	@ Tag_ABI_FP_number_model
	.eabi_attribute	24, 1	@ Tag_ABI_align_needed
	.eabi_attribute	25, 1	@ Tag_ABI_align_preserved
	.eabi_attribute	38, 1	@ Tag_ABI_FP_16bit_format
	.eabi_attribute	18, 2	@ Tag_ABI_PCS_wchar_t
	.eabi_attribute	26, 1	@ Tag_ABI_enum_size
	.eabi_attribute	14, 0	@ Tag_ABI_PCS_R9_use
	.file	"clk.c"
	.file	1 "C:\\" "Keil_v5\\ARM\\ARMCLANG\\Bin\\..\\include\\stdint.h"
	.file	2 "C:\\Users\\shw26\\OneDrive\\Desktop\\2021\\2021-1\\\354\272\241\354\212\244\355\206\244\353\224\224\354\236\220\354\235\2702\\Nuvoton\\M2351_BSP_v3.00.004\\M2351Series_BSP_CMSIS_V3.00.004\\MyProject\\NonSecure" "../../Library/Device/Nuvoton/M2351/Include/clk_reg.h"
	.file	3 "C:\\Users\\shw26\\OneDrive\\Desktop\\2021\\2021-1\\\354\272\241\354\212\244\355\206\244\353\224\224\354\236\220\354\235\2702\\Nuvoton\\M2351_BSP_v3.00.004\\M2351Series_BSP_CMSIS_V3.00.004\\MyProject\\NonSecure" "../../Library/CMSIS/Include\\core_armv8mbl.h"
	.file	4 "C:\\Users\\shw26\\OneDrive\\Desktop\\2021\\2021-1\\\354\272\241\354\212\244\355\206\244\353\224\224\354\236\220\354\235\2702\\Nuvoton\\M2351_BSP_v3.00.004\\M2351Series_BSP_CMSIS_V3.00.004\\MyProject\\NonSecure" "../../Library/Device/Nuvoton/M2351/Include/rtc_reg.h"
	.file	5 "C:\\Users\\shw26\\OneDrive\\Desktop\\2021\\2021-1\\\354\272\241\354\212\244\355\206\244\353\224\224\354\236\220\354\235\2702\\Nuvoton\\M2351_BSP_v3.00.004\\M2351Series_BSP_CMSIS_V3.00.004\\MyProject\\NonSecure" "../../Library/Device/Nuvoton/M2351/Include/sys_reg.h"
	.file	6 "C:\\Users\\shw26\\OneDrive\\Desktop\\2021\\2021-1\\\354\272\241\354\212\244\355\206\244\353\224\224\354\236\220\354\235\2702\\Nuvoton\\M2351_BSP_v3.00.004\\M2351Series_BSP_CMSIS_V3.00.004\\MyProject\\NonSecure" "../../Library/Device/Nuvoton/M2351/Include/fmc_reg.h"
	.file	7 "C:\\Users\\shw26\\OneDrive\\Desktop\\2021\\2021-1\\\354\272\241\354\212\244\355\206\244\353\224\224\354\236\220\354\235\2702\\Nuvoton\\M2351_BSP_v3.00.004\\M2351Series_BSP_CMSIS_V3.00.004\\MyProject\\NonSecure" "../../Library/Device/Nuvoton/M2351/Include\\M2351.h"
	.section	.text.CLK_DisableCKO,"ax",%progbits
	.hidden	CLK_DisableCKO                  @ -- Begin function CLK_DisableCKO
	.globl	CLK_DisableCKO
	.p2align	2
	.type	CLK_DisableCKO,%function
	.code	16                              @ @CLK_DisableCKO
	.thumb_func
CLK_DisableCKO:
.Lfunc_begin0:
	.file	8 "C:\\Users\\shw26\\OneDrive\\Desktop\\2021\\2021-1\\\354\272\241\354\212\244\355\206\244\353\224\224\354\236\220\354\235\2702\\Nuvoton\\M2351_BSP_v3.00.004\\M2351Series_BSP_CMSIS_V3.00.004\\MyProject\\NonSecure" "../../Library/StdDriver/src/clk.c"
	.loc	8 31 0                          @ ../../Library/StdDriver/src/clk.c:31:0
	.fnstart
	.cfi_sections .debug_frame
	.cfi_startproc
@ %bb.0:
	ldr	r0, __arm_cp.0_0
.Ltmp0:
	.loc	8 33 18 prologue_end            @ ../../Library/StdDriver/src/clk.c:33:18
	ldr	r1, [r0]
	movs	r2, #64
	bics	r1, r2
	str	r1, [r0]
	.loc	8 34 1                          @ ../../Library/StdDriver/src/clk.c:34:1
	bx	lr
.Ltmp1:
	.p2align	2
@ %bb.1:
	.loc	8 0 1 is_stmt 0                 @ ../../Library/StdDriver/src/clk.c:0:1
__arm_cp.0_0:
	.long	1073742344                      @ 0x40000208
.Lcpi_end0:
	.size	__arm_cp.0_0, .Lcpi_end0-__arm_cp.0_0
.Lfunc_end0:
	.size	CLK_DisableCKO, .Lfunc_end0-CLK_DisableCKO
	.cfi_endproc
	.cantunwind
	.fnend
                                        @ -- End function
	.section	.text.CLK_EnableCKO,"ax",%progbits
	.hidden	CLK_EnableCKO                   @ -- Begin function CLK_EnableCKO
	.globl	CLK_EnableCKO
	.p2align	2
	.type	CLK_EnableCKO,%function
	.code	16                              @ @CLK_EnableCKO
	.thumb_func
CLK_EnableCKO:
.Lfunc_begin1:
	.loc	8 56 0 is_stmt 1                @ ../../Library/StdDriver/src/clk.c:56:0
	.fnstart
	.cfi_startproc
@ %bb.0:
	@DEBUG_VALUE: CLK_EnableCKO:u32ClkSrc <- $r0
	@DEBUG_VALUE: CLK_EnableCKO:u32ClkSrc <- $r0
	@DEBUG_VALUE: CLK_EnableCKO:u32ClkDiv <- $r1
	@DEBUG_VALUE: CLK_EnableCKO:u32ClkDiv <- $r1
	@DEBUG_VALUE: CLK_EnableCKO:u32ClkDivBy1En <- $r2
	@DEBUG_VALUE: CLK_EnableCKO:u32ClkDivBy1En <- $r2
	.loc	8 58 73 prologue_end            @ ../../Library/StdDriver/src/clk.c:58:73
	lsls	r2, r2, #5
.Ltmp2:
	@DEBUG_VALUE: CLK_EnableCKO:u32ClkDivBy1En <- [DW_OP_LLVM_entry_value 1] $r2
	.loc	8 58 55 is_stmt 0               @ ../../Library/StdDriver/src/clk.c:58:55
	orrs	r2, r1
	movs	r1, #16
.Ltmp3:
	@DEBUG_VALUE: CLK_EnableCKO:u32ClkDiv <- [DW_OP_LLVM_entry_value 1] $r1
	orrs	r1, r2
	ldr	r2, __arm_cp.1_0
	.loc	8 58 18                         @ ../../Library/StdDriver/src/clk.c:58:18
	str	r1, [r2, #88]
	.loc	8 61 18 is_stmt 1               @ ../../Library/StdDriver/src/clk.c:61:18
	ldr	r1, [r2]
	movs	r3, #64
	orrs	r3, r1
	str	r3, [r2]
	movs	r1, #3
	lsls	r1, r1, #28
	.loc	8 64 26                         @ ../../Library/StdDriver/src/clk.c:64:26
	ldr	r3, [r2, #12]
	.loc	8 64 34 is_stmt 0               @ ../../Library/StdDriver/src/clk.c:64:34
	bics	r3, r1
	.loc	8 64 64                         @ ../../Library/StdDriver/src/clk.c:64:64
	orrs	r3, r0
	.loc	8 64 18                         @ ../../Library/StdDriver/src/clk.c:64:18
	str	r3, [r2, #12]
	.loc	8 66 1 is_stmt 1                @ ../../Library/StdDriver/src/clk.c:66:1
	bx	lr
.Ltmp4:
	.p2align	2
@ %bb.1:
	.loc	8 0 1 is_stmt 0                 @ ../../Library/StdDriver/src/clk.c:0:1
__arm_cp.1_0:
	.long	1073742344                      @ 0x40000208
.Lcpi_end1:
	.size	__arm_cp.1_0, .Lcpi_end1-__arm_cp.1_0
.Lfunc_end1:
	.size	CLK_EnableCKO, .Lfunc_end1-CLK_EnableCKO
	.cfi_endproc
	.cantunwind
	.fnend
                                        @ -- End function
	.section	.text.CLK_PowerDown,"ax",%progbits
	.hidden	CLK_PowerDown                   @ -- Begin function CLK_PowerDown
	.globl	CLK_PowerDown
	.p2align	2
	.type	CLK_PowerDown,%function
	.code	16                              @ @CLK_PowerDown
	.thumb_func
CLK_PowerDown:
.Lfunc_begin2:
	.loc	8 76 0 is_stmt 1                @ ../../Library/StdDriver/src/clk.c:76:0
	.fnstart
	.cfi_startproc
@ %bb.0:
	ldr	r0, __arm_cp.2_0
.Ltmp5:
	.loc	8 78 14 prologue_end            @ ../../Library/StdDriver/src/clk.c:78:14
	ldr	r1, [r0]
	movs	r2, #4
	orrs	r2, r1
	str	r2, [r0]
	ldr	r0, __arm_cp.2_1
	.loc	8 81 17                         @ ../../Library/StdDriver/src/clk.c:81:17
	ldr	r1, [r0]
	movs	r2, #128
	orrs	r2, r1
	str	r2, [r0]
	.loc	8 84 5                          @ ../../Library/StdDriver/src/clk.c:84:5
	wfi
	.loc	8 85 1                          @ ../../Library/StdDriver/src/clk.c:85:1
	bx	lr
.Ltmp6:
	.p2align	2
@ %bb.1:
	.loc	8 0 1 is_stmt 0                 @ ../../Library/StdDriver/src/clk.c:0:1
__arm_cp.2_0:
	.long	3758157072                      @ 0xe000ed10
.Lcpi_end2:
	.size	__arm_cp.2_0, .Lcpi_end2-__arm_cp.2_0
__arm_cp.2_1:
	.long	1073742336                      @ 0x40000200
.Lcpi_end3:
	.size	__arm_cp.2_1, .Lcpi_end3-__arm_cp.2_1
.Lfunc_end2:
	.size	CLK_PowerDown, .Lfunc_end2-CLK_PowerDown
	.cfi_endproc
	.cantunwind
	.fnend
                                        @ -- End function
	.section	.text.CLK_Idle,"ax",%progbits
	.hidden	CLK_Idle                        @ -- Begin function CLK_Idle
	.globl	CLK_Idle
	.p2align	2
	.type	CLK_Idle,%function
	.code	16                              @ @CLK_Idle
	.thumb_func
CLK_Idle:
.Lfunc_begin3:
	.loc	8 97 0 is_stmt 1                @ ../../Library/StdDriver/src/clk.c:97:0
	.fnstart
	.cfi_startproc
@ %bb.0:
	ldr	r0, __arm_cp.3_0
.Ltmp7:
	.loc	8 99 14 prologue_end            @ ../../Library/StdDriver/src/clk.c:99:14
	ldr	r1, [r0]
	movs	r2, #4
	bics	r1, r2
	str	r1, [r0]
	ldr	r0, __arm_cp.3_1
	.loc	8 102 17                        @ ../../Library/StdDriver/src/clk.c:102:17
	ldr	r1, [r0]
	movs	r2, #128
	bics	r1, r2
	str	r1, [r0]
	.loc	8 105 5                         @ ../../Library/StdDriver/src/clk.c:105:5
	wfi
	.loc	8 106 1                         @ ../../Library/StdDriver/src/clk.c:106:1
	bx	lr
.Ltmp8:
	.p2align	2
@ %bb.1:
	.loc	8 0 1 is_stmt 0                 @ ../../Library/StdDriver/src/clk.c:0:1
__arm_cp.3_0:
	.long	3758157072                      @ 0xe000ed10
.Lcpi_end4:
	.size	__arm_cp.3_0, .Lcpi_end4-__arm_cp.3_0
__arm_cp.3_1:
	.long	1073742336                      @ 0x40000200
.Lcpi_end5:
	.size	__arm_cp.3_1, .Lcpi_end5-__arm_cp.3_1
.Lfunc_end3:
	.size	CLK_Idle, .Lfunc_end3-CLK_Idle
	.cfi_endproc
	.cantunwind
	.fnend
                                        @ -- End function
	.section	.text.CLK_GetHXTFreq,"ax",%progbits
	.hidden	CLK_GetHXTFreq                  @ -- Begin function CLK_GetHXTFreq
	.globl	CLK_GetHXTFreq
	.p2align	2
	.type	CLK_GetHXTFreq,%function
	.code	16                              @ @CLK_GetHXTFreq
	.thumb_func
CLK_GetHXTFreq:
.Lfunc_begin4:
	.loc	8 117 0 is_stmt 1               @ ../../Library/StdDriver/src/clk.c:117:0
	.fnstart
	.cfi_startproc
@ %bb.0:
	ldr	r0, __arm_cp.4_0
.Ltmp9:
	@DEBUG_VALUE: CLK_GetHXTFreq:u32Freq <- 0
	.loc	8 119 30 prologue_end           @ ../../Library/StdDriver/src/clk.c:119:30
	ldr	r0, [r0]
	movs	r1, #1
	.loc	8 119 37 is_stmt 0              @ ../../Library/StdDriver/src/clk.c:119:37
	ands	r1, r0
	rsbs	r1, r1, #0
	ldr	r0, __arm_cp.4_1
.Ltmp10:
	@DEBUG_VALUE: CLK_GetHXTFreq:u32HXTEN <- undef
	.loc	8 121 8 is_stmt 1               @ ../../Library/StdDriver/src/clk.c:121:8
	ands	r0, r1
.Ltmp11:
	@DEBUG_VALUE: CLK_GetHXTFreq:u32Freq <- $r0
	.loc	8 130 5                         @ ../../Library/StdDriver/src/clk.c:130:5
	bx	lr
.Ltmp12:
	.p2align	2
@ %bb.1:
	.loc	8 0 5 is_stmt 0                 @ ../../Library/StdDriver/src/clk.c:0:5
__arm_cp.4_0:
	.long	1073742336                      @ 0x40000200
.Lcpi_end6:
	.size	__arm_cp.4_0, .Lcpi_end6-__arm_cp.4_0
__arm_cp.4_1:
	.long	12000000                        @ 0xb71b00
.Lcpi_end7:
	.size	__arm_cp.4_1, .Lcpi_end7-__arm_cp.4_1
.Lfunc_end4:
	.size	CLK_GetHXTFreq, .Lfunc_end4-CLK_GetHXTFreq
	.cfi_endproc
	.cantunwind
	.fnend
                                        @ -- End function
	.section	.text.CLK_GetLXTFreq,"ax",%progbits
	.hidden	CLK_GetLXTFreq                  @ -- Begin function CLK_GetLXTFreq
	.globl	CLK_GetLXTFreq
	.p2align	2
	.type	CLK_GetLXTFreq,%function
	.code	16                              @ @CLK_GetLXTFreq
	.thumb_func
CLK_GetLXTFreq:
.Lfunc_begin5:
	.loc	8 142 0 is_stmt 1               @ ../../Library/StdDriver/src/clk.c:142:0
	.fnstart
	.cfi_startproc
@ %bb.0:
	ldr	r0, __arm_cp.5_0
.Ltmp13:
	@DEBUG_VALUE: CLK_GetLXTFreq:u32Freq <- 0
	.loc	8 144 30 prologue_end           @ ../../Library/StdDriver/src/clk.c:144:30
	ldr	r0, [r0]
.Ltmp14:
	@DEBUG_VALUE: CLK_GetLXTFreq:u32LXTEN <- [DW_OP_constu 2, DW_OP_and, DW_OP_stack_value] $r0
	.loc	8 146 8                         @ ../../Library/StdDriver/src/clk.c:146:8
	lsls	r1, r0, #14
	movw	r0, #32768
.Ltmp15:
	ands	r0, r1
.Ltmp16:
	@DEBUG_VALUE: CLK_GetLXTFreq:u32Freq <- $r0
	.loc	8 155 5                         @ ../../Library/StdDriver/src/clk.c:155:5
	bx	lr
.Ltmp17:
	.p2align	2
@ %bb.1:
	.loc	8 0 5 is_stmt 0                 @ ../../Library/StdDriver/src/clk.c:0:5
__arm_cp.5_0:
	.long	1073742336                      @ 0x40000200
.Lcpi_end8:
	.size	__arm_cp.5_0, .Lcpi_end8-__arm_cp.5_0
.Lfunc_end5:
	.size	CLK_GetLXTFreq, .Lfunc_end5-CLK_GetLXTFreq
	.cfi_endproc
	.cantunwind
	.fnend
                                        @ -- End function
	.section	.text.CLK_GetHCLKFreq,"ax",%progbits
	.hidden	CLK_GetHCLKFreq                 @ -- Begin function CLK_GetHCLKFreq
	.globl	CLK_GetHCLKFreq
	.p2align	2
	.type	CLK_GetHCLKFreq,%function
	.code	16                              @ @CLK_GetHCLKFreq
	.thumb_func
CLK_GetHCLKFreq:
.Lfunc_begin6:
	.loc	8 167 0 is_stmt 1               @ ../../Library/StdDriver/src/clk.c:167:0
	.fnstart
	.cfi_startproc
@ %bb.0:
	.save	{r7, lr}
	push	{r7, lr}
	.cfi_def_cfa_offset 8
	.cfi_offset lr, -4
	.cfi_offset r7, -8
.Ltmp18:
	.loc	8 168 5 prologue_end            @ ../../Library/StdDriver/src/clk.c:168:5
	bl	SystemCoreClockUpdate
	.loc	8 169 12                        @ ../../Library/StdDriver/src/clk.c:169:12
	ldr	r0, __arm_cp.6_0
	ldr	r0, [r0]
	.loc	8 169 5 is_stmt 0               @ ../../Library/StdDriver/src/clk.c:169:5
	pop	{r7, pc}
.Ltmp19:
	.p2align	2
@ %bb.1:
	.loc	8 0 5                           @ ../../Library/StdDriver/src/clk.c:0:5
__arm_cp.6_0:
	.long	SystemCoreClock
.Lcpi_end9:
	.size	__arm_cp.6_0, .Lcpi_end9-__arm_cp.6_0
.Lfunc_end6:
	.size	CLK_GetHCLKFreq, .Lfunc_end6-CLK_GetHCLKFreq
	.cfi_endproc
	.cantunwind
	.fnend
                                        @ -- End function
	.section	.text.CLK_GetPCLK0Freq,"ax",%progbits
	.hidden	CLK_GetPCLK0Freq                @ -- Begin function CLK_GetPCLK0Freq
	.globl	CLK_GetPCLK0Freq
	.p2align	2
	.type	CLK_GetPCLK0Freq,%function
	.code	16                              @ @CLK_GetPCLK0Freq
	.thumb_func
CLK_GetPCLK0Freq:
.Lfunc_begin7:
	.loc	8 181 0 is_stmt 1               @ ../../Library/StdDriver/src/clk.c:181:0
	.fnstart
	.cfi_startproc
@ %bb.0:
	.save	{r7, lr}
	push	{r7, lr}
	.cfi_def_cfa_offset 8
	.cfi_offset lr, -4
	.cfi_offset r7, -8
.Ltmp20:
	.loc	8 182 5 prologue_end            @ ../../Library/StdDriver/src/clk.c:182:5
	bl	SystemCoreClockUpdate
	.loc	8 183 13                        @ ../../Library/StdDriver/src/clk.c:183:13
	ldr	r0, __arm_cp.7_0
	ldr	r0, [r0]
	ldr	r1, __arm_cp.7_1
	.loc	8 183 39 is_stmt 0              @ ../../Library/StdDriver/src/clk.c:183:39
	ldr	r1, [r1]
	movs	r2, #7
	.loc	8 183 47                        @ ../../Library/StdDriver/src/clk.c:183:47
	ands	r2, r1
	.loc	8 183 29                        @ ../../Library/StdDriver/src/clk.c:183:29
	lsrs	r0, r2
	.loc	8 183 5                         @ ../../Library/StdDriver/src/clk.c:183:5
	pop	{r7, pc}
.Ltmp21:
	.p2align	2
@ %bb.1:
	.loc	8 0 5                           @ ../../Library/StdDriver/src/clk.c:0:5
__arm_cp.7_0:
	.long	SystemCoreClock
.Lcpi_end10:
	.size	__arm_cp.7_0, .Lcpi_end10-__arm_cp.7_0
__arm_cp.7_1:
	.long	1073742388                      @ 0x40000234
.Lcpi_end11:
	.size	__arm_cp.7_1, .Lcpi_end11-__arm_cp.7_1
.Lfunc_end7:
	.size	CLK_GetPCLK0Freq, .Lfunc_end7-CLK_GetPCLK0Freq
	.cfi_endproc
	.cantunwind
	.fnend
                                        @ -- End function
	.section	.text.CLK_GetPCLK1Freq,"ax",%progbits
	.hidden	CLK_GetPCLK1Freq                @ -- Begin function CLK_GetPCLK1Freq
	.globl	CLK_GetPCLK1Freq
	.p2align	2
	.type	CLK_GetPCLK1Freq,%function
	.code	16                              @ @CLK_GetPCLK1Freq
	.thumb_func
CLK_GetPCLK1Freq:
.Lfunc_begin8:
	.loc	8 195 0 is_stmt 1               @ ../../Library/StdDriver/src/clk.c:195:0
	.fnstart
	.cfi_startproc
@ %bb.0:
	.save	{r7, lr}
	push	{r7, lr}
	.cfi_def_cfa_offset 8
	.cfi_offset lr, -4
	.cfi_offset r7, -8
.Ltmp22:
	.loc	8 196 5 prologue_end            @ ../../Library/StdDriver/src/clk.c:196:5
	bl	SystemCoreClockUpdate
	.loc	8 197 13                        @ ../../Library/StdDriver/src/clk.c:197:13
	ldr	r0, __arm_cp.8_0
	ldr	r0, [r0]
	ldr	r1, __arm_cp.8_1
	.loc	8 197 39 is_stmt 0              @ ../../Library/StdDriver/src/clk.c:197:39
	ldr	r1, [r1]
	.loc	8 197 74                        @ ../../Library/StdDriver/src/clk.c:197:74
	lsls	r1, r1, #25
	lsrs	r1, r1, #29
	.loc	8 197 29                        @ ../../Library/StdDriver/src/clk.c:197:29
	lsrs	r0, r1
	.loc	8 197 5                         @ ../../Library/StdDriver/src/clk.c:197:5
	pop	{r7, pc}
.Ltmp23:
	.p2align	2
@ %bb.1:
	.loc	8 0 5                           @ ../../Library/StdDriver/src/clk.c:0:5
__arm_cp.8_0:
	.long	SystemCoreClock
.Lcpi_end12:
	.size	__arm_cp.8_0, .Lcpi_end12-__arm_cp.8_0
__arm_cp.8_1:
	.long	1073742388                      @ 0x40000234
.Lcpi_end13:
	.size	__arm_cp.8_1, .Lcpi_end13-__arm_cp.8_1
.Lfunc_end8:
	.size	CLK_GetPCLK1Freq, .Lfunc_end8-CLK_GetPCLK1Freq
	.cfi_endproc
	.cantunwind
	.fnend
                                        @ -- End function
	.section	.text.CLK_GetCPUFreq,"ax",%progbits
	.hidden	CLK_GetCPUFreq                  @ -- Begin function CLK_GetCPUFreq
	.globl	CLK_GetCPUFreq
	.p2align	2
	.type	CLK_GetCPUFreq,%function
	.code	16                              @ @CLK_GetCPUFreq
	.thumb_func
CLK_GetCPUFreq:
.Lfunc_begin9:
	.loc	8 209 0 is_stmt 1               @ ../../Library/StdDriver/src/clk.c:209:0
	.fnstart
	.cfi_startproc
@ %bb.0:
	.save	{r4, r5, r7, lr}
	push	{r4, r5, r7, lr}
	.cfi_def_cfa_offset 16
	.cfi_offset lr, -4
	.cfi_offset r7, -8
	.cfi_offset r5, -12
	.cfi_offset r4, -16
	ldr	r0, __arm_cp.9_0
.Ltmp24:
	.loc	8 214 32 prologue_end           @ ../../Library/StdDriver/src/clk.c:214:32
	ldr	r1, [r0]
.Ltmp25:
	@DEBUG_VALUE: CLK_GetCPUFreq:u32RTCCKEN <- undef
	.loc	8 217 22                        @ ../../Library/StdDriver/src/clk.c:217:22
	ldr	r3, [r0, #56]
.Ltmp26:
	@DEBUG_VALUE: CLK_GetCPUFreq:u32PllReg <- $r3
	.loc	8 0 22 is_stmt 0                @ ../../Library/StdDriver/src/clk.c:0:22
	movs	r2, #5
	lsls	r2, r2, #16
	.loc	8 219 8 is_stmt 1               @ ../../Library/StdDriver/src/clk.c:219:8
	tst	r3, r2
	beq	.LBB9_2
.Ltmp27:
@ %bb.1:
	@DEBUG_VALUE: CLK_GetCPUFreq:u32PllReg <- $r3
	.loc	8 0 8 is_stmt 0                 @ ../../Library/StdDriver/src/clk.c:0:8
	movs	r2, #0
	b	.LBB9_4
.Ltmp28:
.LBB9_2:
	@DEBUG_VALUE: CLK_GetCPUFreq:u32PllReg <- $r3
	@DEBUG_VALUE: CLK_GetCPUFreq:u32FIN <- 12000000
	.loc	8 237 12 is_stmt 1              @ ../../Library/StdDriver/src/clk.c:237:12
	lsls	r2, r3, #14
	ldr	r2, __arm_cp.9_1
	bmi	.LBB9_4
.Ltmp29:
@ %bb.3:
	@DEBUG_VALUE: CLK_GetCPUFreq:u32PllReg <- $r3
	@DEBUG_VALUE: CLK_GetCPUFreq:u32FIN <- 12000000
	.loc	8 244 67                        @ ../../Library/StdDriver/src/clk.c:244:67
	lsls	r4, r3, #16
	lsrs	r4, r4, #30
	.loc	8 244 21 is_stmt 0              @ ../../Library/StdDriver/src/clk.c:244:21
	adr	r5, .LCPI9_2
	ldrb	r4, [r5, r4]
.Ltmp30:
	@DEBUG_VALUE: CLK_GetCPUFreq:u32NO <- $r4
	@DEBUG_VALUE: CLK_GetCPUFreq:u32NF <- [DW_OP_constu 511, DW_OP_and, DW_OP_plus_uconst 2, DW_OP_stack_value] $r3
	.loc	8 246 57 is_stmt 1              @ ../../Library/StdDriver/src/clk.c:246:57
	lsls	r5, r3, #18
	lsrs	r5, r5, #27
	.loc	8 246 82 is_stmt 0              @ ../../Library/StdDriver/src/clk.c:246:82
	adds	r5, r5, #1
.Ltmp31:
	@DEBUG_VALUE: CLK_GetCPUFreq:u32NR <- $r5
	.loc	8 249 65 is_stmt 1              @ ../../Library/StdDriver/src/clk.c:249:65
	muls	r5, r4, r5
.Ltmp32:
	.loc	8 249 49 is_stmt 0              @ ../../Library/StdDriver/src/clk.c:249:49
	lsls	r3, r3, #23
.Ltmp33:
	lsrs	r3, r3, #22
	ldr	r4, __arm_cp.9_3
.Ltmp34:
	.loc	8 249 40                        @ ../../Library/StdDriver/src/clk.c:249:40
	muls	r4, r3, r4
	adds	r2, r4, r2
	.loc	8 249 56                        @ ../../Library/StdDriver/src/clk.c:249:56
	udiv	r2, r2, r5
	.loc	8 249 74                        @ ../../Library/StdDriver/src/clk.c:249:74
	lsls	r2, r2, #2
.Ltmp35:
.LBB9_4:
	@DEBUG_VALUE: CLK_GetCPUFreq:u32RTCCKEN <- undef
	.loc	8 0 0                           @ ../../Library/StdDriver/src/clk.c:0:0
	ldr	r3, __arm_cp.9_4
	str	r2, [r3]
.Ltmp36:
	.loc	8 254 23 is_stmt 1              @ ../../Library/StdDriver/src/clk.c:254:23
	ldr	r4, [r0, #8]
	movs	r2, #7
	.loc	8 254 31 is_stmt 0              @ ../../Library/StdDriver/src/clk.c:254:31
	ands	r2, r4
.Ltmp37:
	@DEBUG_VALUE: CLK_GetCPUFreq:u32HclkSrc <- $r2
	.loc	8 256 8 is_stmt 1               @ ../../Library/StdDriver/src/clk.c:256:8
	cmp	r2, #2
	beq	.LBB9_12
.Ltmp38:
@ %bb.5:
	@DEBUG_VALUE: CLK_GetCPUFreq:u32HclkSrc <- $r2
	@DEBUG_VALUE: CLK_GetCPUFreq:u32RTCCKEN <- undef
	cmp	r2, #1
	bne	.LBB9_13
.Ltmp39:
@ %bb.6:
	@DEBUG_VALUE: CLK_GetCPUFreq:u32HclkSrc <- $r2
	.loc	8 0 8 is_stmt 0                 @ ../../Library/StdDriver/src/clk.c:0:8
	movs	r3, #2
	ands	r1, r3
.Ltmp40:
	@DEBUG_VALUE: CLK_GetCPUFreq:u32RTCCKEN <- $r1
	.loc	8 259 12 is_stmt 1              @ ../../Library/StdDriver/src/clk.c:259:12
	bne	.LBB9_8
.Ltmp41:
@ %bb.7:
	@DEBUG_VALUE: CLK_GetCPUFreq:u32HclkSrc <- $r2
	@DEBUG_VALUE: CLK_GetCPUFreq:u32RTCCKEN <- $r1
	.loc	8 261 26                        @ ../../Library/StdDriver/src/clk.c:261:26
	ldr	r2, [r0]
.Ltmp42:
	orrs	r2, r3
	str	r2, [r0]
.Ltmp43:
.LBB9_8:
	@DEBUG_VALUE: CLK_GetCPUFreq:u32RTCCKEN <- $r1
	.loc	8 0 26 is_stmt 0                @ ../../Library/StdDriver/src/clk.c:0:26
	ldr	r2, __arm_cp.9_5
.Ltmp44:
	.loc	8 264 17 is_stmt 1              @ ../../Library/StdDriver/src/clk.c:264:17
	ldr	r2, [r2]
.Ltmp45:
	.loc	8 264 12 is_stmt 0              @ ../../Library/StdDriver/src/clk.c:264:12
	lsls	r2, r2, #24
	movw	r2, #32768
	bpl	.LBB9_10
.Ltmp46:
@ %bb.9:
	@DEBUG_VALUE: CLK_GetCPUFreq:u32RTCCKEN <- $r1
	.loc	8 0 12                          @ ../../Library/StdDriver/src/clk.c:0:12
	movw	r2, #32000
.Ltmp47:
.LBB9_10:
	@DEBUG_VALUE: CLK_GetCPUFreq:u32RTCCKEN <- $r1
	@DEBUG_VALUE: CLK_GetCPUFreq:u32Freq <- $r2
	.loc	8 273 12 is_stmt 1              @ ../../Library/StdDriver/src/clk.c:273:12
	cbnz	r1, .LBB9_14
.Ltmp48:
@ %bb.11:
	@DEBUG_VALUE: CLK_GetCPUFreq:u32Freq <- $r2
	@DEBUG_VALUE: CLK_GetCPUFreq:u32RTCCKEN <- $r1
	.loc	8 275 26                        @ ../../Library/StdDriver/src/clk.c:275:26
	ldr	r1, [r0]
.Ltmp49:
	bics	r1, r3
	str	r1, [r0]
	.loc	8 276 9                         @ ../../Library/StdDriver/src/clk.c:276:9
	b	.LBB9_14
.Ltmp50:
.LBB9_12:
	@DEBUG_VALUE: CLK_GetCPUFreq:u32HclkSrc <- $r2
	.loc	8 281 19                        @ ../../Library/StdDriver/src/clk.c:281:19
	ldr	r2, [r3]
.Ltmp51:
	@DEBUG_VALUE: CLK_GetCPUFreq:u32Freq <- $r2
	.loc	8 282 5                         @ ../../Library/StdDriver/src/clk.c:282:5
	b	.LBB9_14
.Ltmp52:
.LBB9_13:
	@DEBUG_VALUE: CLK_GetCPUFreq:u32HclkSrc <- $r2
	.loc	8 285 19                        @ ../../Library/StdDriver/src/clk.c:285:19
	lsls	r1, r2, #2
	adr	r2, .LCPI9_6
.Ltmp53:
	ldr	r2, [r2, r1]
.Ltmp54:
	@DEBUG_VALUE: CLK_GetCPUFreq:u32Freq <- $r2
.LBB9_14:
	@DEBUG_VALUE: CLK_GetCPUFreq:u32Freq <- $r2
	@DEBUG_VALUE: CLK_GetCPUFreq:u32Freq <- $r2
	.loc	8 289 24                        @ ../../Library/StdDriver/src/clk.c:289:24
	ldr	r0, [r0, #24]
	movs	r1, #15
	.loc	8 289 32 is_stmt 0              @ ../../Library/StdDriver/src/clk.c:289:32
	ands	r1, r0
	.loc	8 289 59                        @ ../../Library/StdDriver/src/clk.c:289:59
	adds	r0, r1, #1
.Ltmp55:
	@DEBUG_VALUE: CLK_GetCPUFreq:u32HclkDiv <- $r0
	.loc	8 292 31 is_stmt 1              @ ../../Library/StdDriver/src/clk.c:292:31
	udiv	r0, r2, r0
.Ltmp56:
	.loc	8 292 21 is_stmt 0              @ ../../Library/StdDriver/src/clk.c:292:21
	ldr	r1, __arm_cp.9_7
	str	r0, [r1]
	ldr	r1, __arm_cp.9_8
	.loc	8 295 36 is_stmt 1              @ ../../Library/StdDriver/src/clk.c:295:36
	adds	r1, r0, r1
	ldr	r2, __arm_cp.9_9
.Ltmp57:
	.loc	8 295 48 is_stmt 0              @ ../../Library/StdDriver/src/clk.c:295:48
	udiv	r1, r1, r2
	.loc	8 295 17                        @ ../../Library/StdDriver/src/clk.c:295:17
	ldr	r2, __arm_cp.9_10
	str	r1, [r2]
	.loc	8 297 5 is_stmt 1               @ ../../Library/StdDriver/src/clk.c:297:5
	pop	{r4, r5, r7, pc}
.Ltmp58:
	.p2align	2
@ %bb.15:
	.loc	8 0 5 is_stmt 0                 @ ../../Library/StdDriver/src/clk.c:0:5
__arm_cp.9_0:
	.long	1073742344                      @ 0x40000208
.Lcpi_end14:
	.size	__arm_cp.9_0, .Lcpi_end14-__arm_cp.9_0
__arm_cp.9_1:
	.long	12000000                        @ 0xb71b00
.Lcpi_end15:
	.size	__arm_cp.9_1, .Lcpi_end15-__arm_cp.9_1
.LCPI9_2:
.L__const.CLK_GetCPUFreq.au8NoTbl:
	.ascii	"\001\002\002\004"
__arm_cp.9_3:
	.long	3000000                         @ 0x2dc6c0
.Lcpi_end16:
	.size	__arm_cp.9_3, .Lcpi_end16-__arm_cp.9_3
__arm_cp.9_4:
	.long	PllClock
.Lcpi_end17:
	.size	__arm_cp.9_4, .Lcpi_end17-__arm_cp.9_4
__arm_cp.9_5:
	.long	1074008320                      @ 0x40041100
.Lcpi_end18:
	.size	__arm_cp.9_5, .Lcpi_end18-__arm_cp.9_5
.LCPI9_6:
.L__const.CLK_GetCPUFreq.au32ClkTbl:
	.long	12000000                        @ 0xb71b00
	.long	32768                           @ 0x8000
	.long	0                               @ 0x0
	.long	10000                           @ 0x2710
	.long	0                               @ 0x0
	.long	48000000                        @ 0x2dc6c00
	.long	0                               @ 0x0
	.long	12000000                        @ 0xb71b00
__arm_cp.9_7:
	.long	SystemCoreClock
.Lcpi_end19:
	.size	__arm_cp.9_7, .Lcpi_end19-__arm_cp.9_7
__arm_cp.9_8:
	.long	500000                          @ 0x7a120
.Lcpi_end20:
	.size	__arm_cp.9_8, .Lcpi_end20-__arm_cp.9_8
__arm_cp.9_9:
	.long	1000000                         @ 0xf4240
.Lcpi_end21:
	.size	__arm_cp.9_9, .Lcpi_end21-__arm_cp.9_9
__arm_cp.9_10:
	.long	CyclesPerUs
.Lcpi_end22:
	.size	__arm_cp.9_10, .Lcpi_end22-__arm_cp.9_10
.Lfunc_end9:
	.size	CLK_GetCPUFreq, .Lfunc_end9-CLK_GetCPUFreq
	.cfi_endproc
	.cantunwind
	.fnend
                                        @ -- End function
	.section	.text.CLK_SetCoreClock,"ax",%progbits
	.hidden	CLK_SetCoreClock                @ -- Begin function CLK_SetCoreClock
	.globl	CLK_SetCoreClock
	.p2align	2
	.type	CLK_SetCoreClock,%function
	.code	16                              @ @CLK_SetCoreClock
	.thumb_func
CLK_SetCoreClock:
.Lfunc_begin10:
	.loc	8 310 0 is_stmt 1               @ ../../Library/StdDriver/src/clk.c:310:0
	.fnstart
	.cfi_startproc
@ %bb.0:
	@DEBUG_VALUE: CLK_SetCoreClock:u32Hclk <- $r0
	.save	{r4, r5, r6, r7, lr}
	push	{r4, r5, r6, r7, lr}
	.cfi_def_cfa_offset 20
	.cfi_offset lr, -4
	.cfi_offset r7, -8
	.cfi_offset r6, -12
	.cfi_offset r5, -16
	.cfi_offset r4, -20
	.pad	#4
	sub	sp, #4
	.cfi_def_cfa_offset 24
	ldr	r5, __arm_cp.10_0
	@DEBUG_VALUE: CLK_SetCoreClock:u32Hclk <- $r0
.Ltmp59:
	.loc	8 314 23 prologue_end           @ ../../Library/StdDriver/src/clk.c:314:23
	ldr	r6, [r5, #80]
.Ltmp60:
	@DEBUG_VALUE: CLK_SetCoreClock:u32HIRCSTB <- [DW_OP_constu 16, DW_OP_and, DW_OP_stack_value] $r6
	.loc	8 317 24                        @ ../../Library/StdDriver/src/clk.c:317:24
	subs	r1, r5, #4
	ldr	r2, [r1]
	movw	r1, #768
	.loc	8 317 30 is_stmt 0              @ ../../Library/StdDriver/src/clk.c:317:30
	ands	r1, r2
.Ltmp61:
	@DEBUG_VALUE: CLK_SetCoreClock:u32PLSTATUS <- $r1
	.loc	8 0 30                          @ ../../Library/StdDriver/src/clk.c:0:30
	ldr	r4, __arm_cp.10_1
.Ltmp62:
	.loc	8 320 48 is_stmt 1              @ ../../Library/StdDriver/src/clk.c:320:48
	cmp	r0, r4
	bls	.LBB10_2
.Ltmp63:
@ %bb.1:
	@DEBUG_VALUE: CLK_SetCoreClock:u32HIRCSTB <- [DW_OP_constu 16, DW_OP_and, DW_OP_stack_value] $r6
	@DEBUG_VALUE: CLK_SetCoreClock:u32PLSTATUS <- $r1
	@DEBUG_VALUE: CLK_SetCoreClock:u32Hclk <- $r0
	cbz	r1, .LBB10_7
.Ltmp64:
.LBB10_2:
	@DEBUG_VALUE: CLK_SetCoreClock:u32HIRCSTB <- [DW_OP_constu 16, DW_OP_and, DW_OP_stack_value] $r6
	@DEBUG_VALUE: CLK_SetCoreClock:u32PLSTATUS <- $r1
	@DEBUG_VALUE: CLK_SetCoreClock:u32Hclk <- $r0
	.loc	8 0 48 is_stmt 0                @ ../../Library/StdDriver/src/clk.c:0:48
	ldr	r4, __arm_cp.10_2
.Ltmp65:
	.loc	8 324 53 is_stmt 1              @ ../../Library/StdDriver/src/clk.c:324:53
	cmp	r0, r4
	bls	.LBB10_4
.Ltmp66:
@ %bb.3:
	@DEBUG_VALUE: CLK_SetCoreClock:u32HIRCSTB <- [DW_OP_constu 16, DW_OP_and, DW_OP_stack_value] $r6
	@DEBUG_VALUE: CLK_SetCoreClock:u32PLSTATUS <- $r1
	@DEBUG_VALUE: CLK_SetCoreClock:u32Hclk <- $r0
	.loc	8 0 53 is_stmt 0                @ ../../Library/StdDriver/src/clk.c:0:53
	movw	r2, #256
	.loc	8 324 53                        @ ../../Library/StdDriver/src/clk.c:324:53
	cmp	r1, r2
	beq	.LBB10_7
.Ltmp67:
.LBB10_4:
	@DEBUG_VALUE: CLK_SetCoreClock:u32HIRCSTB <- [DW_OP_constu 16, DW_OP_and, DW_OP_stack_value] $r6
	@DEBUG_VALUE: CLK_SetCoreClock:u32PLSTATUS <- $r1
	@DEBUG_VALUE: CLK_SetCoreClock:u32Hclk <- $r0
	.loc	8 0 53                          @ ../../Library/StdDriver/src/clk.c:0:53
	ldr	r1, __arm_cp.10_3
.Ltmp68:
	.loc	8 328 13 is_stmt 1              @ ../../Library/StdDriver/src/clk.c:328:13
	cmp	r0, r1
	bhi	.LBB10_6
.Ltmp69:
@ %bb.5:
	@DEBUG_VALUE: CLK_SetCoreClock:u32HIRCSTB <- [DW_OP_constu 16, DW_OP_and, DW_OP_stack_value] $r6
	@DEBUG_VALUE: CLK_SetCoreClock:u32Hclk <- $r0
	mov	r0, r1
.Ltmp70:
	@DEBUG_VALUE: CLK_SetCoreClock:u32Hclk <- [DW_OP_LLVM_entry_value 1] $r0
.LBB10_6:
	@DEBUG_VALUE: CLK_SetCoreClock:u32HIRCSTB <- [DW_OP_constu 16, DW_OP_and, DW_OP_stack_value] $r6
	.loc	8 0 13 is_stmt 0                @ ../../Library/StdDriver/src/clk.c:0:13
	mov	r4, r0
.Ltmp71:
.LBB10_7:
	@DEBUG_VALUE: CLK_SetCoreClock:u32HIRCSTB <- [DW_OP_constu 16, DW_OP_and, DW_OP_stack_value] $r6
	@DEBUG_VALUE: CLK_SetCoreClock:u32Hclk <- $r4
	.loc	8 334 17 is_stmt 1              @ ../../Library/StdDriver/src/clk.c:334:17
	ldr	r0, [r5]
	movs	r7, #4
	orrs	r0, r7
	str	r0, [r5]
	movs	r0, #16
	.loc	8 335 5                         @ ../../Library/StdDriver/src/clk.c:335:5
	bl	CLK_WaitClockReady
	.loc	8 336 18                        @ ../../Library/StdDriver/src/clk.c:336:18
	ldr	r0, [r5, #16]
	movs	r1, #7
	orrs	r1, r0
	str	r1, [r5, #16]
	.loc	8 337 18                        @ ../../Library/StdDriver/src/clk.c:337:18
	ldr	r0, [r5, #32]
	movs	r1, #15
	bics	r0, r1
	str	r0, [r5, #32]
	ldr	r0, __arm_cp.10_4
	.loc	8 340 17                        @ ../../Library/StdDriver/src/clk.c:340:17
	ldr	r1, [r0]
	movw	r2, #256
	bics	r1, r2
	str	r1, [r0]
.Ltmp72:
	.loc	8 343 13                        @ ../../Library/StdDriver/src/clk.c:343:13
	ldr	r0, [r5, #80]
.Ltmp73:
	.loc	8 343 8 is_stmt 0               @ ../../Library/StdDriver/src/clk.c:343:8
	lsls	r0, r0, #31
	bne	.LBB10_9
.Ltmp74:
@ %bb.8:
	@DEBUG_VALUE: CLK_SetCoreClock:u32HIRCSTB <- [DW_OP_constu 16, DW_OP_and, DW_OP_stack_value] $r6
	@DEBUG_VALUE: CLK_SetCoreClock:u32Hclk <- $r4
	.loc	8 0 8                           @ ../../Library/StdDriver/src/clk.c:0:8
	movs	r0, #1
	lsls	r0, r0, #19
.Ltmp75:
	.loc	8 350 19 is_stmt 1              @ ../../Library/StdDriver/src/clk.c:350:19
	mov	r1, r4
	bl	CLK_EnablePLL
	mov	r4, r0
.Ltmp76:
	@DEBUG_VALUE: CLK_SetCoreClock:u32Hclk <- $r4
	.loc	8 353 27                        @ ../../Library/StdDriver/src/clk.c:353:27
	ldr	r6, [r5, #80]
.Ltmp77:
	@DEBUG_VALUE: CLK_SetCoreClock:u32HIRCSTB <- [DW_OP_constu 16, DW_OP_and, DW_OP_stack_value] $r6
	.loc	8 0 27 is_stmt 0                @ ../../Library/StdDriver/src/clk.c:0:27
	b	.LBB10_10
.Ltmp78:
.LBB10_9:
	@DEBUG_VALUE: CLK_SetCoreClock:u32HIRCSTB <- [DW_OP_constu 16, DW_OP_and, DW_OP_stack_value] $r6
	@DEBUG_VALUE: CLK_SetCoreClock:u32Hclk <- $r4
	movs	r0, #0
.Ltmp79:
	.loc	8 345 19 is_stmt 1              @ ../../Library/StdDriver/src/clk.c:345:19
	mov	r1, r4
	bl	CLK_EnablePLL
	mov	r4, r0
.Ltmp80:
	@DEBUG_VALUE: CLK_SetCoreClock:u32Hclk <- $r4
.LBB10_10:
	@DEBUG_VALUE: CLK_SetCoreClock:u32HIRCSTB <- [DW_OP_constu 16, DW_OP_and, DW_OP_stack_value] $r6
	@DEBUG_VALUE: CLK_SetCoreClock:u32Hclk <- $r4
	@DEBUG_VALUE: CLK_SetCoreClock:u32Hclk <- $r4
	.loc	8 0 19 is_stmt 0                @ ../../Library/StdDriver/src/clk.c:0:19
	movs	r0, #2
	movs	r1, #0
	.loc	8 360 5 is_stmt 1               @ ../../Library/StdDriver/src/clk.c:360:5
	bl	CLK_SetHCLK
	.loc	8 363 8                         @ ../../Library/StdDriver/src/clk.c:363:8
	lsls	r0, r6, #27
.Ltmp81:
	@DEBUG_VALUE: CLK_SetCoreClock:u32HIRCSTB <- $r0
	bmi	.LBB10_12
.Ltmp82:
@ %bb.11:
	@DEBUG_VALUE: CLK_SetCoreClock:u32Hclk <- $r4
	@DEBUG_VALUE: CLK_SetCoreClock:u32HIRCSTB <- $r0
	.loc	8 365 21                        @ ../../Library/StdDriver/src/clk.c:365:21
	ldr	r0, [r5]
.Ltmp83:
	bics	r0, r7
	str	r0, [r5]
.Ltmp84:
.LBB10_12:
	@DEBUG_VALUE: CLK_SetCoreClock:u32Hclk <- $r4
	.loc	8 369 5                         @ ../../Library/StdDriver/src/clk.c:369:5
	mov	r0, r4
	add	sp, #4
	pop	{r4, r5, r6, r7, pc}
.Ltmp85:
	.p2align	2
@ %bb.13:
	.loc	8 0 5 is_stmt 0                 @ ../../Library/StdDriver/src/clk.c:0:5
__arm_cp.10_0:
	.long	1073742336                      @ 0x40000200
.Lcpi_end23:
	.size	__arm_cp.10_0, .Lcpi_end23-__arm_cp.10_0
__arm_cp.10_1:
	.long	64000000                        @ 0x3d09000
.Lcpi_end24:
	.size	__arm_cp.10_1, .Lcpi_end24-__arm_cp.10_1
__arm_cp.10_2:
	.long	48000000                        @ 0x2dc6c00
.Lcpi_end25:
	.size	__arm_cp.10_2, .Lcpi_end25-__arm_cp.10_2
__arm_cp.10_3:
	.long	24000000                        @ 0x16e3600
.Lcpi_end26:
	.size	__arm_cp.10_3, .Lcpi_end26-__arm_cp.10_3
__arm_cp.10_4:
	.long	1073791052                      @ 0x4000c04c
.Lcpi_end27:
	.size	__arm_cp.10_4, .Lcpi_end27-__arm_cp.10_4
.Lfunc_end10:
	.size	CLK_SetCoreClock, .Lfunc_end10-CLK_SetCoreClock
	.cfi_endproc
	.cantunwind
	.fnend
                                        @ -- End function
	.section	.text.CLK_WaitClockReady,"ax",%progbits
	.hidden	CLK_WaitClockReady              @ -- Begin function CLK_WaitClockReady
	.globl	CLK_WaitClockReady
	.p2align	2
	.type	CLK_WaitClockReady,%function
	.code	16                              @ @CLK_WaitClockReady
	.thumb_func
CLK_WaitClockReady:
.Lfunc_begin11:
	.loc	8 926 0 is_stmt 1               @ ../../Library/StdDriver/src/clk.c:926:0
	.fnstart
	.cfi_startproc
@ %bb.0:
	@DEBUG_VALUE: CLK_WaitClockReady:u32ClkMask <- $r0
	.save	{r4, r5, r7, lr}
	push	{r4, r5, r7, lr}
	.cfi_def_cfa_offset 16
	.cfi_offset lr, -4
	.cfi_offset r7, -8
	.cfi_offset r5, -12
	.cfi_offset r4, -16
	mov	r1, r0
.Ltmp86:
	@DEBUG_VALUE: CLK_WaitClockReady:u32ClkMask <- $r1
	ldr	r2, __arm_cp.11_0
.Ltmp87:
	@DEBUG_VALUE: CLK_WaitClockReady:u32Ret <- 1
	@DEBUG_VALUE: CLK_WaitClockReady:i32TimeOutCnt <- 2400000
	ldr	r3, __arm_cp.11_1
	movs	r0, #1
	movs	r4, #0
.Ltmp88:
.LBB11_1:                               @ =>This Inner Loop Header: Depth=1
	@DEBUG_VALUE: CLK_WaitClockReady:u32ClkMask <- $r1
	@DEBUG_VALUE: CLK_WaitClockReady:u32Ret <- 1
	@DEBUG_VALUE: CLK_WaitClockReady:i32TimeOutCnt <- undef
	.loc	8 930 17 prologue_end           @ ../../Library/StdDriver/src/clk.c:930:17
	ldr	r5, [r3]
	.loc	8 930 24 is_stmt 0              @ ../../Library/StdDriver/src/clk.c:930:24
	ands	r5, r1
	.loc	8 930 5                         @ ../../Library/StdDriver/src/clk.c:930:5
	cmp	r5, r1
	beq	.LBB11_4
.Ltmp89:
@ %bb.2:                                @   in Loop: Header=BB11_1 Depth=1
	@DEBUG_VALUE: CLK_WaitClockReady:u32ClkMask <- $r1
	@DEBUG_VALUE: CLK_WaitClockReady:u32Ret <- 1
	@DEBUG_VALUE: CLK_WaitClockReady:i32TimeOutCnt <- [DW_OP_constu 1, DW_OP_minus, DW_OP_stack_value] undef
	.loc	8 932 28 is_stmt 1              @ ../../Library/StdDriver/src/clk.c:932:28
	adds	r2, r2, #1
.Ltmp90:
	.loc	8 932 12 is_stmt 0              @ ../../Library/StdDriver/src/clk.c:932:12
	blo	.LBB11_1
.Ltmp91:
@ %bb.3:
	@DEBUG_VALUE: CLK_WaitClockReady:u32ClkMask <- $r1
	@DEBUG_VALUE: CLK_WaitClockReady:u32Ret <- 1
	.loc	8 0 0                           @ ../../Library/StdDriver/src/clk.c:0:0
	mov	r0, r4
.Ltmp92:
.LBB11_4:
	@DEBUG_VALUE: CLK_WaitClockReady:u32ClkMask <- $r1
	@DEBUG_VALUE: CLK_WaitClockReady:u32Ret <- 1
	@DEBUG_VALUE: CLK_WaitClockReady:u32Ret <- $r0
	.loc	8 938 5 is_stmt 1               @ ../../Library/StdDriver/src/clk.c:938:5
	pop	{r4, r5, r7, pc}
.Ltmp93:
	.p2align	2
@ %bb.5:
	.loc	8 0 5 is_stmt 0                 @ ../../Library/StdDriver/src/clk.c:0:5
__arm_cp.11_0:
	.long	4292567295                      @ 0xffdb60ff
.Lcpi_end28:
	.size	__arm_cp.11_0, .Lcpi_end28-__arm_cp.11_0
__arm_cp.11_1:
	.long	1073742416                      @ 0x40000250
.Lcpi_end29:
	.size	__arm_cp.11_1, .Lcpi_end29-__arm_cp.11_1
.Lfunc_end11:
	.size	CLK_WaitClockReady, .Lfunc_end11-CLK_WaitClockReady
	.cfi_endproc
	.cantunwind
	.fnend
                                        @ -- End function
	.section	.text.CLK_EnablePLL,"ax",%progbits
	.hidden	CLK_EnablePLL                   @ -- Begin function CLK_EnablePLL
	.globl	CLK_EnablePLL
	.p2align	2
	.type	CLK_EnablePLL,%function
	.code	16                              @ @CLK_EnablePLL
	.thumb_func
CLK_EnablePLL:
.Lfunc_begin12:
	.loc	8 767 0 is_stmt 1               @ ../../Library/StdDriver/src/clk.c:767:0
	.fnstart
	.cfi_startproc
@ %bb.0:
	@DEBUG_VALUE: CLK_EnablePLL:u32PllClkSrc <- $r0
	@DEBUG_VALUE: CLK_EnablePLL:u32PllFreq <- $r1
	.save	{r4, r5, r6, r7, lr}
	push	{r4, r5, r6, r7, lr}
	.cfi_def_cfa_offset 20
	.cfi_offset lr, -4
	.cfi_offset r7, -8
	.cfi_offset r6, -12
	.cfi_offset r5, -16
	.cfi_offset r4, -20
	.pad	#28
	sub	sp, #28
	.cfi_def_cfa_offset 48
	mov	r7, r1
	mov	r5, r0
	movs	r6, #1
.Ltmp94:
	@DEBUG_VALUE: CLK_EnablePLL:u32PllFreq <- $r7
	@DEBUG_VALUE: CLK_EnablePLL:u32PllClkSrc <- $r5
	.loc	8 775 8 prologue_end            @ ../../Library/StdDriver/src/clk.c:775:8
	mov	r4, r6
	cbz	r0, .LBB12_2
.Ltmp95:
@ %bb.1:
	@DEBUG_VALUE: CLK_EnablePLL:u32PllFreq <- $r7
	@DEBUG_VALUE: CLK_EnablePLL:u32PllClkSrc <- $r5
	.loc	8 0 8 is_stmt 0                 @ ../../Library/StdDriver/src/clk.c:0:8
	movs	r4, #4
.Ltmp96:
.LBB12_2:
	@DEBUG_VALUE: CLK_EnablePLL:u32PllFreq <- $r7
	@DEBUG_VALUE: CLK_EnablePLL:u32PllClkSrc <- $r5
	.loc	8 772 5 is_stmt 1               @ ../../Library/StdDriver/src/clk.c:772:5
	bl	CLK_DisablePLL
	ldr	r0, __arm_cp.12_0
.Ltmp97:
	.loc	8 0 0 is_stmt 0                 @ ../../Library/StdDriver/src/clk.c:0:0
	subs	r0, #64
	ldr	r1, [r0]
	orrs	r1, r4
	str	r1, [r0]
.Ltmp98:
	.loc	8 775 8 is_stmt 1               @ ../../Library/StdDriver/src/clk.c:775:8
	cbz	r5, .LBB12_4
.Ltmp99:
@ %bb.3:
	@DEBUG_VALUE: CLK_EnablePLL:u32PllFreq <- $r7
	@DEBUG_VALUE: CLK_EnablePLL:u32PllClkSrc <- $r5
	.loc	8 0 8 is_stmt 0                 @ ../../Library/StdDriver/src/clk.c:0:8
	movs	r6, #16
.Ltmp100:
.LBB12_4:
	@DEBUG_VALUE: CLK_EnablePLL:u32PllFreq <- $r7
	@DEBUG_VALUE: CLK_EnablePLL:u32PllClkSrc <- $r5
	mov	r0, r6
	bl	CLK_WaitClockReady
	ldr	r0, __arm_cp.12_1
.Ltmp101:
	@DEBUG_VALUE: CLK_EnablePLL:u32PllSrcClk <- 12000000
	.loc	8 803 36 is_stmt 1              @ ../../Library/StdDriver/src/clk.c:803:36
	adds	r0, r7, r0
	ldr	r1, __arm_cp.12_2
	cmp	r0, r1
	bhi	.LBB12_7
.Ltmp102:
@ %bb.5:
	@DEBUG_VALUE: CLK_EnablePLL:u32PllFreq <- $r7
	@DEBUG_VALUE: CLK_EnablePLL:u32PllClkSrc <- $r5
	@DEBUG_VALUE: CLK_EnablePLL:u32PllSrcClk <- 12000000
	.loc	8 0 36 is_stmt 0                @ ../../Library/StdDriver/src/clk.c:0:36
	ldr	r0, __arm_cp.12_7
	movs	r3, #0
.Ltmp103:
	.loc	8 807 38 is_stmt 1              @ ../../Library/StdDriver/src/clk.c:807:38
	cmp	r7, r0
	blo	.LBB12_9
.Ltmp104:
@ %bb.6:
	@DEBUG_VALUE: CLK_EnablePLL:u32PllFreq <- $r7
	@DEBUG_VALUE: CLK_EnablePLL:u32PllClkSrc <- $r5
	@DEBUG_VALUE: CLK_EnablePLL:u32PllSrcClk <- 12000000
	mov	r0, r3
	b	.LBB12_10
.Ltmp105:
.LBB12_7:
	@DEBUG_VALUE: CLK_EnablePLL:u32PllFreq <- $r7
	@DEBUG_VALUE: CLK_EnablePLL:u32PllClkSrc <- $r5
	@DEBUG_VALUE: CLK_EnablePLL:u32PllSrcClk <- 12000000
	.loc	8 0 38 is_stmt 0                @ ../../Library/StdDriver/src/clk.c:0:38
	ldr	r1, __arm_cp.12_0
.Ltmp106:
	.loc	8 869 18 is_stmt 1              @ ../../Library/StdDriver/src/clk.c:869:18
	mov	r0, r1
	subs	r0, #68
	ldr	r0, [r0]
.Ltmp107:
	.loc	8 869 12 is_stmt 0              @ ../../Library/StdDriver/src/clk.c:869:12
	lsls	r0, r0, #22
	lsrs	r0, r0, #30
	beq	.LBB12_27
.Ltmp108:
@ %bb.8:
	@DEBUG_VALUE: CLK_EnablePLL:u32PllFreq <- $r7
	@DEBUG_VALUE: CLK_EnablePLL:u32PllClkSrc <- $r5
	@DEBUG_VALUE: CLK_EnablePLL:u32PllSrcClk <- 12000000
	.loc	8 0 12                          @ ../../Library/StdDriver/src/clk.c:0:12
	ldr	r0, __arm_cp.12_3
.Ltmp109:
	.loc	8 883 40 is_stmt 1              @ ../../Library/StdDriver/src/clk.c:883:40
	orrs	r5, r0
.Ltmp110:
	.loc	8 883 25 is_stmt 0              @ ../../Library/StdDriver/src/clk.c:883:25
	str	r5, [r1]
	ldr	r4, __arm_cp.12_4
.Ltmp111:
	@DEBUG_VALUE: CLK_EnablePLL:u32PllClk <- 48000000
	.loc	8 0 25                          @ ../../Library/StdDriver/src/clk.c:0:25
	b	.LBB12_28
.Ltmp112:
.LBB12_9:
	@DEBUG_VALUE: CLK_EnablePLL:u32PllFreq <- $r7
	@DEBUG_VALUE: CLK_EnablePLL:u32PllClkSrc <- $r5
	@DEBUG_VALUE: CLK_EnablePLL:u32PllSrcClk <- 12000000
	movs	r0, #1
.Ltmp113:
.LBB12_10:
	@DEBUG_VALUE: CLK_EnablePLL:u32PllFreq <- $r7
	@DEBUG_VALUE: CLK_EnablePLL:u32PllClkSrc <- $r5
	@DEBUG_VALUE: CLK_EnablePLL:u32PllSrcClk <- 12000000
	ldr	r1, __arm_cp.12_4
	movs	r2, #3
.Ltmp114:
	.loc	8 807 38 is_stmt 1              @ ../../Library/StdDriver/src/clk.c:807:38
	cmp	r7, r1
	mov	r4, r2
	blo	.LBB12_12
.Ltmp115:
@ %bb.11:
	@DEBUG_VALUE: CLK_EnablePLL:u32PllFreq <- $r7
	@DEBUG_VALUE: CLK_EnablePLL:u32PllClkSrc <- $r5
	@DEBUG_VALUE: CLK_EnablePLL:u32PllSrcClk <- 12000000
	mov	r4, r0
.Ltmp116:
.LBB12_12:
	@DEBUG_VALUE: CLK_EnablePLL:u32PllFreq <- $r7
	@DEBUG_VALUE: CLK_EnablePLL:u32PllClkSrc <- $r5
	@DEBUG_VALUE: CLK_EnablePLL:u32PllSrcClk <- 12000000
	@DEBUG_VALUE: CLK_EnablePLL:u32NO <- $r4
	.loc	8 0 38 is_stmt 0                @ ../../Library/StdDriver/src/clk.c:0:38
	str	r4, [sp]                        @ 4-byte Spill
.Ltmp117:
	@DEBUG_VALUE: CLK_EnablePLL:u32NO <- [$sp+0]
	@DEBUG_VALUE: CLK_EnablePLL:u32NO <- [$sp+0]
	str	r5, [sp, #4]                    @ 4-byte Spill
.Ltmp118:
	@DEBUG_VALUE: CLK_EnablePLL:u32PllClkSrc <- [DW_OP_plus_uconst 4] [$sp+0]
	movs	r4, #2
	.loc	8 807 38                        @ ../../Library/StdDriver/src/clk.c:807:38
	cmp	r7, r1
	str	r4, [sp, #8]                    @ 4-byte Spill
	mov	r1, r4
	blo	.LBB12_14
.Ltmp119:
@ %bb.13:
	@DEBUG_VALUE: CLK_EnablePLL:u32PllClkSrc <- [DW_OP_plus_uconst 4] [$sp+0]
	@DEBUG_VALUE: CLK_EnablePLL:u32PllFreq <- $r7
	@DEBUG_VALUE: CLK_EnablePLL:u32NO <- [$sp+0]
	@DEBUG_VALUE: CLK_EnablePLL:u32PllSrcClk <- 12000000
	mov	r1, r0
.Ltmp120:
.LBB12_14:
	@DEBUG_VALUE: CLK_EnablePLL:u32PllClkSrc <- [DW_OP_plus_uconst 4] [$sp+0]
	@DEBUG_VALUE: CLK_EnablePLL:u32PllFreq <- $r7
	@DEBUG_VALUE: CLK_EnablePLL:u32NO <- [$sp+0]
	@DEBUG_VALUE: CLK_EnablePLL:u32PllSrcClk <- 12000000
	.loc	8 0 0                           @ ../../Library/StdDriver/src/clk.c:0:0
	lsls	r7, r1
.Ltmp121:
	@DEBUG_VALUE: CLK_EnablePLL:u32PllFreq <- $r7
	str	r7, [sp, #20]                   @ 4-byte Spill
.Ltmp122:
	@DEBUG_VALUE: CLK_EnablePLL:u32PllFreq <- [DW_OP_plus_uconst 20] [$sp+0]
	@DEBUG_VALUE: CLK_EnablePLL:u32PllFreq <- [DW_OP_plus_uconst 20] [$sp+0]
	mvns	r0, r3
	str	r0, [sp, #24]                   @ 4-byte Spill
.Ltmp123:
	@DEBUG_VALUE: CLK_EnablePLL:u32MinNF <- 0
	@DEBUG_VALUE: CLK_EnablePLL:u32MinNR <- 0
	@DEBUG_VALUE: CLK_EnablePLL:u32Min <- -1
	@DEBUG_VALUE: CLK_EnablePLL:u32NR <- 3
	ldr	r4, __arm_cp.12_9
	str	r3, [sp, #16]                   @ 4-byte Spill
	str	r3, [sp, #12]                   @ 4-byte Spill
	b	.LBB12_17
.Ltmp124:
.LBB12_15:                              @   in Loop: Header=BB12_17 Depth=1
	@DEBUG_VALUE: CLK_EnablePLL:u32PllClkSrc <- [DW_OP_plus_uconst 4] [$sp+0]
	@DEBUG_VALUE: CLK_EnablePLL:u32Min <- $r6
	@DEBUG_VALUE: CLK_EnablePLL:u32Tmp3 <- $r6
	@DEBUG_VALUE: CLK_EnablePLL:u32Tmp2 <- $r5
	@DEBUG_VALUE: CLK_EnablePLL:u32MinNF <- $r3
	@DEBUG_VALUE: CLK_EnablePLL:u32NF <- $r3
	@DEBUG_VALUE: CLK_EnablePLL:u32MinNR <- $r2
	@DEBUG_VALUE: CLK_EnablePLL:u32NR <- $r2
	@DEBUG_VALUE: CLK_EnablePLL:u32PllFreq <- [DW_OP_plus_uconst 20] [$sp+0]
	@DEBUG_VALUE: CLK_EnablePLL:u32NO <- [$sp+0]
	@DEBUG_VALUE: CLK_EnablePLL:u32PllSrcClk <- 12000000
	.loc	8 848 32 is_stmt 1              @ ../../Library/StdDriver/src/clk.c:848:32
	adds	r0, r7, #2
	str	r0, [sp, #12]                   @ 4-byte Spill
	movs	r0, #0
.Ltmp125:
	.loc	8 0 0 is_stmt 0                 @ ../../Library/StdDriver/src/clk.c:0:0
	str	r0, [sp, #24]                   @ 4-byte Spill
	str	r2, [sp, #16]                   @ 4-byte Spill
.Ltmp126:
.LBB12_16:                              @   in Loop: Header=BB12_17 Depth=1
	@DEBUG_VALUE: CLK_EnablePLL:u32PllClkSrc <- [DW_OP_plus_uconst 4] [$sp+0]
	@DEBUG_VALUE: CLK_EnablePLL:u32NR <- $r2
	@DEBUG_VALUE: CLK_EnablePLL:u32PllFreq <- [DW_OP_plus_uconst 20] [$sp+0]
	@DEBUG_VALUE: CLK_EnablePLL:u32NO <- [$sp+0]
	@DEBUG_VALUE: CLK_EnablePLL:u32PllSrcClk <- 12000000
	@DEBUG_VALUE: CLK_EnablePLL:u32Min <- [DW_OP_plus_uconst 24] [$sp+0]
	@DEBUG_VALUE: CLK_EnablePLL:u32MinNR <- [DW_OP_plus_uconst 16] [$sp+0]
	@DEBUG_VALUE: CLK_EnablePLL:u32MinNF <- [DW_OP_plus_uconst 12] [$sp+0]
	.loc	8 830 35 is_stmt 1              @ ../../Library/StdDriver/src/clk.c:830:35
	adds	r2, r2, #1
.Ltmp127:
	@DEBUG_VALUE: CLK_EnablePLL:u32NR <- $r2
	.loc	8 830 9 is_stmt 0               @ ../../Library/StdDriver/src/clk.c:830:9
	cmp	r2, #33
	beq	.LBB12_26
.Ltmp128:
.LBB12_17:                              @ =>This Loop Header: Depth=1
                                        @     Child Loop BB12_20 Depth 2
	@DEBUG_VALUE: CLK_EnablePLL:u32PllClkSrc <- [DW_OP_plus_uconst 4] [$sp+0]
	@DEBUG_VALUE: CLK_EnablePLL:u32PllFreq <- [DW_OP_plus_uconst 20] [$sp+0]
	@DEBUG_VALUE: CLK_EnablePLL:u32NO <- [$sp+0]
	@DEBUG_VALUE: CLK_EnablePLL:u32PllSrcClk <- 12000000
	@DEBUG_VALUE: CLK_EnablePLL:u32NR <- $r2
	@DEBUG_VALUE: CLK_EnablePLL:u32Min <- [DW_OP_plus_uconst 24] [$sp+0]
	@DEBUG_VALUE: CLK_EnablePLL:u32MinNR <- [DW_OP_plus_uconst 16] [$sp+0]
	@DEBUG_VALUE: CLK_EnablePLL:u32MinNF <- [DW_OP_plus_uconst 12] [$sp+0]
	@DEBUG_VALUE: CLK_EnablePLL:u32Tmp <- undef
	.loc	8 833 38 is_stmt 1              @ ../../Library/StdDriver/src/clk.c:833:38
	subs	r0, r2, #2
	cmp	r0, #4
	bhi	.LBB12_16
.Ltmp129:
@ %bb.18:                               @   in Loop: Header=BB12_17 Depth=1
	@DEBUG_VALUE: CLK_EnablePLL:u32PllClkSrc <- [DW_OP_plus_uconst 4] [$sp+0]
	@DEBUG_VALUE: CLK_EnablePLL:u32NR <- $r2
	@DEBUG_VALUE: CLK_EnablePLL:u32MinNF <- [DW_OP_plus_uconst 12] [$sp+0]
	@DEBUG_VALUE: CLK_EnablePLL:u32MinNR <- [DW_OP_plus_uconst 16] [$sp+0]
	@DEBUG_VALUE: CLK_EnablePLL:u32Min <- [DW_OP_plus_uconst 24] [$sp+0]
	@DEBUG_VALUE: CLK_EnablePLL:u32PllFreq <- [DW_OP_plus_uconst 20] [$sp+0]
	@DEBUG_VALUE: CLK_EnablePLL:u32NO <- [$sp+0]
	@DEBUG_VALUE: CLK_EnablePLL:u32PllSrcClk <- 12000000
	.loc	8 832 35                        @ ../../Library/StdDriver/src/clk.c:832:35
	ldr	r0, __arm_cp.12_8
	udiv	r0, r0, r2
.Ltmp130:
	@DEBUG_VALUE: CLK_EnablePLL:u32NF <- 2
	@DEBUG_VALUE: CLK_EnablePLL:u32Tmp <- $r0
	@DEBUG_VALUE: CLK_EnablePLL:u32MinNF <- [DW_OP_plus_uconst 12] [$sp+0]
	@DEBUG_VALUE: CLK_EnablePLL:u32MinNR <- [DW_OP_plus_uconst 16] [$sp+0]
	@DEBUG_VALUE: CLK_EnablePLL:u32Min <- [DW_OP_plus_uconst 24] [$sp+0]
	.loc	8 0 0 is_stmt 0                 @ ../../Library/StdDriver/src/clk.c:0:0
	lsls	r0, r0, #1
.Ltmp131:
	movs	r7, #0
	ldr	r3, [sp, #8]                    @ 4-byte Reload
	b	.LBB12_20
.Ltmp132:
.LBB12_19:                              @   in Loop: Header=BB12_20 Depth=2
	@DEBUG_VALUE: CLK_EnablePLL:u32PllClkSrc <- [DW_OP_plus_uconst 4] [$sp+0]
	@DEBUG_VALUE: CLK_EnablePLL:u32Tmp2 <- $r5
	@DEBUG_VALUE: CLK_EnablePLL:u32NF <- $r3
	@DEBUG_VALUE: CLK_EnablePLL:u32NR <- $r2
	@DEBUG_VALUE: CLK_EnablePLL:u32PllFreq <- [DW_OP_plus_uconst 20] [$sp+0]
	@DEBUG_VALUE: CLK_EnablePLL:u32NO <- [$sp+0]
	@DEBUG_VALUE: CLK_EnablePLL:u32PllSrcClk <- 12000000
	@DEBUG_VALUE: CLK_EnablePLL:u32Min <- [DW_OP_plus_uconst 24] [$sp+0]
	@DEBUG_VALUE: CLK_EnablePLL:u32MinNR <- [DW_OP_plus_uconst 16] [$sp+0]
	@DEBUG_VALUE: CLK_EnablePLL:u32MinNF <- [DW_OP_plus_uconst 12] [$sp+0]
	.loc	8 835 40 is_stmt 1              @ ../../Library/StdDriver/src/clk.c:835:40
	adds	r7, r7, #1
	.loc	8 835 55 is_stmt 0              @ ../../Library/StdDriver/src/clk.c:835:55
	adds	r3, r3, #1
.Ltmp133:
	@DEBUG_VALUE: CLK_EnablePLL:u32NF <- $r3
	.loc	8 835 17                        @ ../../Library/StdDriver/src/clk.c:835:17
	movw	r1, #512
	cmp	r7, r1
	beq	.LBB12_16
.Ltmp134:
.LBB12_20:                              @   Parent Loop BB12_17 Depth=1
                                        @ =>  This Inner Loop Header: Depth=2
	@DEBUG_VALUE: CLK_EnablePLL:u32PllClkSrc <- [DW_OP_plus_uconst 4] [$sp+0]
	@DEBUG_VALUE: CLK_EnablePLL:u32NR <- $r2
	@DEBUG_VALUE: CLK_EnablePLL:u32MinNF <- [DW_OP_plus_uconst 12] [$sp+0]
	@DEBUG_VALUE: CLK_EnablePLL:u32MinNR <- [DW_OP_plus_uconst 16] [$sp+0]
	@DEBUG_VALUE: CLK_EnablePLL:u32Min <- [DW_OP_plus_uconst 24] [$sp+0]
	@DEBUG_VALUE: CLK_EnablePLL:u32PllFreq <- [DW_OP_plus_uconst 20] [$sp+0]
	@DEBUG_VALUE: CLK_EnablePLL:u32NO <- [$sp+0]
	@DEBUG_VALUE: CLK_EnablePLL:u32PllSrcClk <- 12000000
	@DEBUG_VALUE: CLK_EnablePLL:u32Min <- [DW_OP_plus_uconst 24] [$sp+0]
	@DEBUG_VALUE: CLK_EnablePLL:u32MinNR <- [DW_OP_plus_uconst 16] [$sp+0]
	@DEBUG_VALUE: CLK_EnablePLL:u32MinNF <- [DW_OP_plus_uconst 12] [$sp+0]
	@DEBUG_VALUE: CLK_EnablePLL:u32NF <- $r3
	.loc	8 837 48 is_stmt 1              @ ../../Library/StdDriver/src/clk.c:837:48
	mov	r5, r3
	muls	r5, r0, r5
.Ltmp135:
	@DEBUG_VALUE: CLK_EnablePLL:u32Tmp2 <- $r5
	.loc	8 838 48                        @ ../../Library/StdDriver/src/clk.c:838:48
	adds	r6, r5, r4
	ldr	r1, __arm_cp.12_10
	cmp	r6, r1
	bhi	.LBB12_19
.Ltmp136:
@ %bb.21:                               @   in Loop: Header=BB12_20 Depth=2
	@DEBUG_VALUE: CLK_EnablePLL:u32PllClkSrc <- [DW_OP_plus_uconst 4] [$sp+0]
	@DEBUG_VALUE: CLK_EnablePLL:u32Tmp2 <- $r5
	@DEBUG_VALUE: CLK_EnablePLL:u32NF <- $r3
	@DEBUG_VALUE: CLK_EnablePLL:u32NR <- $r2
	@DEBUG_VALUE: CLK_EnablePLL:u32MinNF <- [DW_OP_plus_uconst 12] [$sp+0]
	@DEBUG_VALUE: CLK_EnablePLL:u32MinNR <- [DW_OP_plus_uconst 16] [$sp+0]
	@DEBUG_VALUE: CLK_EnablePLL:u32Min <- [DW_OP_plus_uconst 24] [$sp+0]
	@DEBUG_VALUE: CLK_EnablePLL:u32PllFreq <- [DW_OP_plus_uconst 20] [$sp+0]
	@DEBUG_VALUE: CLK_EnablePLL:u32NO <- [$sp+0]
	@DEBUG_VALUE: CLK_EnablePLL:u32PllSrcClk <- 12000000
	.loc	8 0 48 is_stmt 0                @ ../../Library/StdDriver/src/clk.c:0:48
	mov	r1, r4
	ldr	r4, [sp, #20]                   @ 4-byte Reload
.Ltmp137:
	.loc	8 840 35 is_stmt 1              @ ../../Library/StdDriver/src/clk.c:840:35
	subs	r6, r4, r5
	bhs	.LBB12_23
.Ltmp138:
@ %bb.22:                               @   in Loop: Header=BB12_20 Depth=2
	@DEBUG_VALUE: CLK_EnablePLL:u32PllClkSrc <- [DW_OP_plus_uconst 4] [$sp+0]
	@DEBUG_VALUE: CLK_EnablePLL:u32Tmp2 <- $r5
	@DEBUG_VALUE: CLK_EnablePLL:u32NF <- $r3
	@DEBUG_VALUE: CLK_EnablePLL:u32NR <- $r2
	@DEBUG_VALUE: CLK_EnablePLL:u32MinNF <- [DW_OP_plus_uconst 12] [$sp+0]
	@DEBUG_VALUE: CLK_EnablePLL:u32MinNR <- [DW_OP_plus_uconst 16] [$sp+0]
	@DEBUG_VALUE: CLK_EnablePLL:u32Min <- [DW_OP_plus_uconst 24] [$sp+0]
	@DEBUG_VALUE: CLK_EnablePLL:u32PllFreq <- [DW_OP_plus_uconst 20] [$sp+0]
	@DEBUG_VALUE: CLK_EnablePLL:u32NO <- [$sp+0]
	@DEBUG_VALUE: CLK_EnablePLL:u32PllSrcClk <- 12000000
	.loc	8 0 35 is_stmt 0                @ ../../Library/StdDriver/src/clk.c:0:35
	subs	r6, r5, r4
.Ltmp139:
.LBB12_23:                              @   in Loop: Header=BB12_20 Depth=2
	@DEBUG_VALUE: CLK_EnablePLL:u32PllClkSrc <- [DW_OP_plus_uconst 4] [$sp+0]
	@DEBUG_VALUE: CLK_EnablePLL:u32Tmp2 <- $r5
	@DEBUG_VALUE: CLK_EnablePLL:u32NF <- $r3
	@DEBUG_VALUE: CLK_EnablePLL:u32NR <- $r2
	@DEBUG_VALUE: CLK_EnablePLL:u32MinNF <- [DW_OP_plus_uconst 12] [$sp+0]
	@DEBUG_VALUE: CLK_EnablePLL:u32MinNR <- [DW_OP_plus_uconst 16] [$sp+0]
	@DEBUG_VALUE: CLK_EnablePLL:u32Min <- [DW_OP_plus_uconst 24] [$sp+0]
	@DEBUG_VALUE: CLK_EnablePLL:u32PllFreq <- [DW_OP_plus_uconst 20] [$sp+0]
	@DEBUG_VALUE: CLK_EnablePLL:u32NO <- [$sp+0]
	@DEBUG_VALUE: CLK_EnablePLL:u32PllSrcClk <- 12000000
	@DEBUG_VALUE: CLK_EnablePLL:u32Tmp3 <- $r6
	.loc	8 841 28 is_stmt 1              @ ../../Library/StdDriver/src/clk.c:841:28
	ldr	r4, [sp, #24]                   @ 4-byte Reload
	cmp	r6, r4
	mov	r4, r1
	bhs	.LBB12_19
.Ltmp140:
@ %bb.24:                               @   in Loop: Header=BB12_20 Depth=2
	@DEBUG_VALUE: CLK_EnablePLL:u32PllClkSrc <- [DW_OP_plus_uconst 4] [$sp+0]
	@DEBUG_VALUE: CLK_EnablePLL:u32Tmp3 <- $r6
	@DEBUG_VALUE: CLK_EnablePLL:u32Tmp2 <- $r5
	@DEBUG_VALUE: CLK_EnablePLL:u32NF <- $r3
	@DEBUG_VALUE: CLK_EnablePLL:u32NR <- $r2
	@DEBUG_VALUE: CLK_EnablePLL:u32MinNF <- [DW_OP_plus_uconst 12] [$sp+0]
	@DEBUG_VALUE: CLK_EnablePLL:u32MinNR <- [DW_OP_plus_uconst 16] [$sp+0]
	@DEBUG_VALUE: CLK_EnablePLL:u32Min <- [DW_OP_plus_uconst 24] [$sp+0]
	@DEBUG_VALUE: CLK_EnablePLL:u32PllFreq <- [DW_OP_plus_uconst 20] [$sp+0]
	@DEBUG_VALUE: CLK_EnablePLL:u32NO <- [$sp+0]
	@DEBUG_VALUE: CLK_EnablePLL:u32PllSrcClk <- 12000000
	@DEBUG_VALUE: CLK_EnablePLL:u32Min <- $r6
	@DEBUG_VALUE: CLK_EnablePLL:u32MinNR <- $r2
	@DEBUG_VALUE: CLK_EnablePLL:u32MinNF <- $r3
	.loc	8 848 32                        @ ../../Library/StdDriver/src/clk.c:848:32
	cmp	r6, #0
	beq	.LBB12_15
.Ltmp141:
@ %bb.25:                               @   in Loop: Header=BB12_20 Depth=2
	@DEBUG_VALUE: CLK_EnablePLL:u32PllClkSrc <- [DW_OP_plus_uconst 4] [$sp+0]
	@DEBUG_VALUE: CLK_EnablePLL:u32Min <- $r6
	@DEBUG_VALUE: CLK_EnablePLL:u32Tmp3 <- $r6
	@DEBUG_VALUE: CLK_EnablePLL:u32Tmp2 <- $r5
	@DEBUG_VALUE: CLK_EnablePLL:u32MinNF <- $r3
	@DEBUG_VALUE: CLK_EnablePLL:u32NF <- $r3
	@DEBUG_VALUE: CLK_EnablePLL:u32MinNR <- $r2
	@DEBUG_VALUE: CLK_EnablePLL:u32NR <- $r2
	@DEBUG_VALUE: CLK_EnablePLL:u32PllFreq <- [DW_OP_plus_uconst 20] [$sp+0]
	@DEBUG_VALUE: CLK_EnablePLL:u32NO <- [$sp+0]
	@DEBUG_VALUE: CLK_EnablePLL:u32PllSrcClk <- 12000000
	.loc	8 0 32 is_stmt 0                @ ../../Library/StdDriver/src/clk.c:0:32
	adds	r1, r7, #2
	str	r1, [sp, #12]                   @ 4-byte Spill
	str	r6, [sp, #24]                   @ 4-byte Spill
.Ltmp142:
	@DEBUG_VALUE: CLK_EnablePLL:u32Tmp3 <- [DW_OP_plus_uconst 24] [$sp+0]
	str	r2, [sp, #16]                   @ 4-byte Spill
	b	.LBB12_19
.Ltmp143:
.LBB12_26:
	@DEBUG_VALUE: CLK_EnablePLL:u32PllClkSrc <- [DW_OP_plus_uconst 4] [$sp+0]
	@DEBUG_VALUE: CLK_EnablePLL:u32NR <- $r2
	@DEBUG_VALUE: CLK_EnablePLL:u32MinNF <- [DW_OP_plus_uconst 12] [$sp+0]
	@DEBUG_VALUE: CLK_EnablePLL:u32MinNR <- [DW_OP_plus_uconst 16] [$sp+0]
	@DEBUG_VALUE: CLK_EnablePLL:u32Min <- [DW_OP_plus_uconst 24] [$sp+0]
	@DEBUG_VALUE: CLK_EnablePLL:u32PllFreq <- [DW_OP_plus_uconst 20] [$sp+0]
	@DEBUG_VALUE: CLK_EnablePLL:u32NO <- [$sp+0]
	@DEBUG_VALUE: CLK_EnablePLL:u32PllSrcClk <- 12000000
	@DEBUG_VALUE: CLK_EnablePLL:u32MinNR <- [DW_OP_plus_uconst 16] [$sp+0]
	@DEBUG_VALUE: CLK_EnablePLL:u32MinNF <- [DW_OP_plus_uconst 12] [$sp+0]
	ldr	r3, [sp, #16]                   @ 4-byte Reload
.Ltmp144:
	@DEBUG_VALUE: CLK_EnablePLL:u32MinNR <- $r3
	.loc	8 859 72 is_stmt 1              @ ../../Library/StdDriver/src/clk.c:859:72
	lsls	r0, r3, #9
	movw	r1, #512
	subs	r0, r0, r1
	ldr	r4, [sp]                        @ 4-byte Reload
	.loc	8 859 45 is_stmt 0              @ ../../Library/StdDriver/src/clk.c:859:45
	lsls	r1, r4, #14
	.loc	8 859 36                        @ ../../Library/StdDriver/src/clk.c:859:36
	ldr	r2, [sp, #4]                    @ 4-byte Reload
.Ltmp145:
	@DEBUG_VALUE: CLK_EnablePLL:u32PllClkSrc <- $r2
	orrs	r1, r2
	ldr	r5, [sp, #12]                   @ 4-byte Reload
.Ltmp146:
	@DEBUG_VALUE: CLK_EnablePLL:u32MinNF <- $r5
	.loc	8 859 90                        @ ../../Library/StdDriver/src/clk.c:859:90
	subs	r2, r5, #2
.Ltmp147:
	.loc	8 859 52                        @ ../../Library/StdDriver/src/clk.c:859:52
	orrs	r2, r1
	.loc	8 859 78                        @ ../../Library/StdDriver/src/clk.c:859:78
	orrs	r2, r0
	.loc	8 859 21                        @ ../../Library/StdDriver/src/clk.c:859:21
	ldr	r0, __arm_cp.12_0
	str	r2, [r0]
	.loc	8 862 44 is_stmt 1              @ ../../Library/StdDriver/src/clk.c:862:44
	adds	r0, r4, #1
	.loc	8 862 51 is_stmt 0              @ ../../Library/StdDriver/src/clk.c:862:51
	muls	r0, r3, r0
	.loc	8 862 34                        @ ../../Library/StdDriver/src/clk.c:862:34
	ldr	r1, __arm_cp.12_8
	udiv	r0, r1, r0
	.loc	8 862 63                        @ ../../Library/StdDriver/src/clk.c:862:63
	muls	r0, r5, r0
	lsls	r4, r0, #1
.Ltmp148:
	@DEBUG_VALUE: CLK_EnablePLL:u32PllClk <- $r4
	.loc	8 864 5 is_stmt 1               @ ../../Library/StdDriver/src/clk.c:864:5
	b	.LBB12_28
.Ltmp149:
.LBB12_27:
	@DEBUG_VALUE: CLK_EnablePLL:u32PllFreq <- $r7
	@DEBUG_VALUE: CLK_EnablePLL:u32PllClkSrc <- $r5
	@DEBUG_VALUE: CLK_EnablePLL:u32PllSrcClk <- 12000000
	.loc	8 0 5 is_stmt 0                 @ ../../Library/StdDriver/src/clk.c:0:5
	ldr	r0, __arm_cp.12_5
.Ltmp150:
	.loc	8 873 40 is_stmt 1              @ ../../Library/StdDriver/src/clk.c:873:40
	orrs	r5, r0
.Ltmp151:
	.loc	8 873 25 is_stmt 0              @ ../../Library/StdDriver/src/clk.c:873:25
	str	r5, [r1]
	ldr	r4, __arm_cp.12_6
.Ltmp152:
	@DEBUG_VALUE: CLK_EnablePLL:u32PllClk <- 64000000
.LBB12_28:
	@DEBUG_VALUE: CLK_EnablePLL:u32PllSrcClk <- 12000000
	@DEBUG_VALUE: CLK_EnablePLL:u32PllClk <- $r4
	.loc	8 0 25                          @ ../../Library/StdDriver/src/clk.c:0:25
	movs	r0, #4
	.loc	8 892 5 is_stmt 1               @ ../../Library/StdDriver/src/clk.c:892:5
	bl	CLK_WaitClockReady
	.loc	8 895 5                         @ ../../Library/StdDriver/src/clk.c:895:5
	mov	r0, r4
	add	sp, #28
	pop	{r4, r5, r6, r7, pc}
.Ltmp153:
	.p2align	2
@ %bb.29:
	.loc	8 0 5 is_stmt 0                 @ ../../Library/StdDriver/src/clk.c:0:5
__arm_cp.12_0:
	.long	1073742400                      @ 0x40000240
.Lcpi_end30:
	.size	__arm_cp.12_0, .Lcpi_end30-__arm_cp.12_0
__arm_cp.12_1:
	.long	4270967296                      @ 0xfe91ca00
.Lcpi_end31:
	.size	__arm_cp.12_1, .Lcpi_end31-__arm_cp.12_1
__arm_cp.12_2:
	.long	120000000                       @ 0x7270e00
.Lcpi_end32:
	.size	__arm_cp.12_2, .Lcpi_end32-__arm_cp.12_2
__arm_cp.12_3:
	.long	49678                           @ 0xc20e
.Lcpi_end33:
	.size	__arm_cp.12_3, .Lcpi_end33-__arm_cp.12_3
__arm_cp.12_4:
	.long	48000000                        @ 0x2dc6c00
.Lcpi_end34:
	.size	__arm_cp.12_4, .Lcpi_end34-__arm_cp.12_4
__arm_cp.12_5:
	.long	17422                           @ 0x440e
.Lcpi_end35:
	.size	__arm_cp.12_5, .Lcpi_end35-__arm_cp.12_5
__arm_cp.12_6:
	.long	64000000                        @ 0x3d09000
.Lcpi_end36:
	.size	__arm_cp.12_6, .Lcpi_end36-__arm_cp.12_6
__arm_cp.12_7:
	.long	96000000                        @ 0x5b8d800
.Lcpi_end37:
	.size	__arm_cp.12_7, .Lcpi_end37-__arm_cp.12_7
__arm_cp.12_8:
	.long	12000000                        @ 0xb71b00
.Lcpi_end38:
	.size	__arm_cp.12_8, .Lcpi_end38-__arm_cp.12_8
__arm_cp.12_9:
	.long	4198967296                      @ 0xfa472800
.Lcpi_end39:
	.size	__arm_cp.12_9, .Lcpi_end39-__arm_cp.12_9
__arm_cp.12_10:
	.long	104000000                       @ 0x632ea00
.Lcpi_end40:
	.size	__arm_cp.12_10, .Lcpi_end40-__arm_cp.12_10
.Lfunc_end12:
	.size	CLK_EnablePLL, .Lfunc_end12-CLK_EnablePLL
	.cfi_endproc
	.cantunwind
	.fnend
                                        @ -- End function
	.section	.text.CLK_SetHCLK,"ax",%progbits
	.hidden	CLK_SetHCLK                     @ -- Begin function CLK_SetHCLK
	.globl	CLK_SetHCLK
	.p2align	2
	.type	CLK_SetHCLK,%function
	.code	16                              @ @CLK_SetHCLK
	.thumb_func
CLK_SetHCLK:
.Lfunc_begin13:
	.loc	8 389 0 is_stmt 1               @ ../../Library/StdDriver/src/clk.c:389:0
	.fnstart
	.cfi_startproc
@ %bb.0:
	@DEBUG_VALUE: CLK_SetHCLK:u32ClkSrc <- $r0
	@DEBUG_VALUE: CLK_SetHCLK:u32ClkDiv <- $r1
	.save	{r4, r5, r6, r7, lr}
	push	{r4, r5, r6, r7, lr}
	.cfi_def_cfa_offset 20
	.cfi_offset lr, -4
	.cfi_offset r7, -8
	.cfi_offset r6, -12
	.cfi_offset r5, -16
	.cfi_offset r4, -20
	.pad	#12
	sub	sp, #12
	.cfi_def_cfa_offset 32
	str	r1, [sp, #8]                    @ 4-byte Spill
	mov	r4, r0
	ldr	r7, __arm_cp.13_0
.Ltmp154:
	@DEBUG_VALUE: CLK_SetHCLK:u32ClkDiv <- [DW_OP_plus_uconst 8] [$sp+0]
	@DEBUG_VALUE: CLK_SetHCLK:u32ClkSrc <- $r4
	.loc	8 393 23 prologue_end           @ ../../Library/StdDriver/src/clk.c:393:23
	ldr	r5, [r7, #80]
	.loc	8 396 17                        @ ../../Library/StdDriver/src/clk.c:396:17
	ldr	r0, [r7]
	movs	r1, #4
	str	r1, [sp, #4]                    @ 4-byte Spill
	orrs	r0, r1
	str	r0, [r7]
	movs	r6, #16
	.loc	8 397 5                         @ ../../Library/StdDriver/src/clk.c:397:5
	mov	r0, r6
	bl	CLK_WaitClockReady
	.loc	8 398 26                        @ ../../Library/StdDriver/src/clk.c:398:26
	ldr	r1, [r7, #16]
	movs	r0, #7
	.loc	8 398 64 is_stmt 0              @ ../../Library/StdDriver/src/clk.c:398:64
	orrs	r1, r0
	.loc	8 398 18                        @ ../../Library/StdDriver/src/clk.c:398:18
	str	r1, [r7, #16]
	ldr	r3, __arm_cp.13_1
	.loc	8 401 17 is_stmt 1              @ ../../Library/StdDriver/src/clk.c:401:17
	adds	r3, #15
	ldr	r1, __arm_cp.13_2
	ldr	r2, [r1]
	ands	r2, r3
	str	r2, [r1]
	.loc	8 404 26                        @ ../../Library/StdDriver/src/clk.c:404:26
	ldr	r2, [r7, #32]
	movs	r3, #15
	.loc	8 404 34 is_stmt 0              @ ../../Library/StdDriver/src/clk.c:404:34
	bics	r2, r3
	.loc	8 404 64                        @ ../../Library/StdDriver/src/clk.c:404:64
	ldr	r3, [sp, #8]                    @ 4-byte Reload
.Ltmp155:
	@DEBUG_VALUE: CLK_SetHCLK:u32ClkDiv <- $r3
	orrs	r2, r3
	.loc	8 404 18                        @ ../../Library/StdDriver/src/clk.c:404:18
	str	r2, [r7, #32]
	.loc	8 393 30 is_stmt 1              @ ../../Library/StdDriver/src/clk.c:393:30
	ands	r5, r6
.Ltmp156:
	@DEBUG_VALUE: CLK_SetHCLK:u32HIRCSTB <- $r5
	.loc	8 407 8                         @ ../../Library/StdDriver/src/clk.c:407:8
	cmp	r4, #5
	bne	.LBB13_2
.Ltmp157:
@ %bb.1:
	@DEBUG_VALUE: CLK_SetHCLK:u32HIRCSTB <- $r5
	@DEBUG_VALUE: CLK_SetHCLK:u32ClkSrc <- $r4
	@DEBUG_VALUE: CLK_SetHCLK:u32ClkDiv <- $r3
	.loc	8 409 29                        @ ../../Library/StdDriver/src/clk.c:409:29
	ldr	r2, [r1]
	.loc	8 409 36 is_stmt 0              @ ../../Library/StdDriver/src/clk.c:409:36
	ldr	r3, __arm_cp.13_1
.Ltmp158:
	ands	r2, r3
	movw	r3, #259
	.loc	8 409 86                        @ ../../Library/StdDriver/src/clk.c:409:86
	orrs	r3, r2
	.loc	8 409 21                        @ ../../Library/StdDriver/src/clk.c:409:21
	str	r3, [r1]
.Ltmp159:
.LBB13_2:
	@DEBUG_VALUE: CLK_SetHCLK:u32HIRCSTB <- $r5
	@DEBUG_VALUE: CLK_SetHCLK:u32ClkSrc <- $r4
	.loc	8 413 26 is_stmt 1              @ ../../Library/StdDriver/src/clk.c:413:26
	ldr	r1, [r7, #16]
	.loc	8 413 34 is_stmt 0              @ ../../Library/StdDriver/src/clk.c:413:34
	bics	r1, r0
	.loc	8 413 64                        @ ../../Library/StdDriver/src/clk.c:413:64
	orrs	r1, r4
	.loc	8 413 18                        @ ../../Library/StdDriver/src/clk.c:413:18
	str	r1, [r7, #16]
	.loc	8 416 5 is_stmt 1               @ ../../Library/StdDriver/src/clk.c:416:5
	bl	SystemCoreClockUpdate
	.loc	8 419 8                         @ ../../Library/StdDriver/src/clk.c:419:8
	cbnz	r5, .LBB13_4
.Ltmp160:
@ %bb.3:
	@DEBUG_VALUE: CLK_SetHCLK:u32HIRCSTB <- $r5
	@DEBUG_VALUE: CLK_SetHCLK:u32ClkSrc <- $r4
	.loc	8 421 21                        @ ../../Library/StdDriver/src/clk.c:421:21
	ldr	r0, [r7]
	ldr	r1, [sp, #4]                    @ 4-byte Reload
	bics	r0, r1
	str	r0, [r7]
.Ltmp161:
.LBB13_4:
	@DEBUG_VALUE: CLK_SetHCLK:u32HIRCSTB <- $r5
	@DEBUG_VALUE: CLK_SetHCLK:u32ClkSrc <- $r4
	.loc	8 423 1                         @ ../../Library/StdDriver/src/clk.c:423:1
	add	sp, #12
	pop	{r4, r5, r6, r7, pc}
.Ltmp162:
	.p2align	2
@ %bb.5:
	.loc	8 0 1 is_stmt 0                 @ ../../Library/StdDriver/src/clk.c:0:1
__arm_cp.13_0:
	.long	1073742336                      @ 0x40000200
.Lcpi_end41:
	.size	__arm_cp.13_0, .Lcpi_end41-__arm_cp.13_0
__arm_cp.13_1:
	.long	4294967024                      @ 0xfffffef0
.Lcpi_end42:
	.size	__arm_cp.13_1, .Lcpi_end42-__arm_cp.13_1
__arm_cp.13_2:
	.long	1073791052                      @ 0x4000c04c
.Lcpi_end43:
	.size	__arm_cp.13_2, .Lcpi_end43-__arm_cp.13_2
.Lfunc_end13:
	.size	CLK_SetHCLK, .Lfunc_end13-CLK_SetHCLK
	.cfi_endproc
	.cantunwind
	.fnend
                                        @ -- End function
	.section	.text.CLK_SetModuleClock,"ax",%progbits
	.hidden	CLK_SetModuleClock              @ -- Begin function CLK_SetModuleClock
	.globl	CLK_SetModuleClock
	.p2align	2
	.type	CLK_SetModuleClock,%function
	.code	16                              @ @CLK_SetModuleClock
	.thumb_func
CLK_SetModuleClock:
.Lfunc_begin14:
	.loc	8 542 0 is_stmt 1               @ ../../Library/StdDriver/src/clk.c:542:0
	.fnstart
	.cfi_startproc
@ %bb.0:
	@DEBUG_VALUE: CLK_SetModuleClock:u32ModuleIdx <- $r0
	@DEBUG_VALUE: CLK_SetModuleClock:u32ModuleIdx <- $r0
	@DEBUG_VALUE: CLK_SetModuleClock:u32ClkSrc <- $r1
	@DEBUG_VALUE: CLK_SetModuleClock:u32ClkSrc <- $r1
	@DEBUG_VALUE: CLK_SetModuleClock:u32ClkDiv <- $r2
	@DEBUG_VALUE: CLK_SetModuleClock:u32ClkDiv <- $r2
	.save	{r4, r5, r6, lr}
	push	{r4, r5, r6, lr}
	.cfi_def_cfa_offset 16
	.cfi_offset lr, -4
	.cfi_offset r6, -8
	.cfi_offset r5, -12
	.cfi_offset r4, -16
.Ltmp163:
	@DEBUG_VALUE: CLK_SetModuleClock:u32Sel <- 0
	@DEBUG_VALUE: CLK_SetModuleClock:u32Div <- 0
	.loc	8 547 8 prologue_end            @ ../../Library/StdDriver/src/clk.c:547:8
	lsrs	r3, r0, #10
	uxtb	r4, r3
	ldr	r3, __arm_cp.14_0
.Ltmp164:
	.loc	8 547 8 is_stmt 0               @ ../../Library/StdDriver/src/clk.c:547:8
	cbz	r4, .LBB14_2
.Ltmp165:
@ %bb.1:
	@DEBUG_VALUE: CLK_SetModuleClock:u32ClkDiv <- $r2
	@DEBUG_VALUE: CLK_SetModuleClock:u32ClkSrc <- $r1
	@DEBUG_VALUE: CLK_SetModuleClock:u32ModuleIdx <- $r0
	@DEBUG_VALUE: CLK_SetModuleClock:u32Div <- 0
	@DEBUG_VALUE: CLK_SetModuleClock:u32Sel <- 0
	.loc	8 552 76 is_stmt 1              @ ../../Library/StdDriver/src/clk.c:552:76
	lsls	r5, r0, #22
	lsrs	r5, r5, #27
	.loc	8 552 73 is_stmt 0              @ ../../Library/StdDriver/src/clk.c:552:73
	lsls	r4, r5
	.loc	8 550 45 is_stmt 1              @ ../../Library/StdDriver/src/clk.c:550:45
	lsrs	r5, r0, #16
	movs	r6, #12
	ands	r6, r5
	adr	r5, .LCPI14_1
	ldr	r5, [r5, r6]
	.loc	8 550 42 is_stmt 0              @ ../../Library/StdDriver/src/clk.c:550:42
	adds	r5, r3, r5
.Ltmp166:
	@DEBUG_VALUE: CLK_SetModuleClock:u32Div <- [DW_OP_plus_uconst 16, DW_OP_stack_value] $r5
	.loc	8 552 24 is_stmt 1              @ ../../Library/StdDriver/src/clk.c:552:24
	ldr	r6, [r5, #16]
	.loc	8 552 36 is_stmt 0              @ ../../Library/StdDriver/src/clk.c:552:36
	bics	r6, r4
	.loc	8 552 111                       @ ../../Library/StdDriver/src/clk.c:552:111
	orrs	r6, r2
	.loc	8 552 21                        @ ../../Library/StdDriver/src/clk.c:552:21
	str	r6, [r5, #16]
.Ltmp167:
.LBB14_2:
	@DEBUG_VALUE: CLK_SetModuleClock:u32ClkDiv <- $r2
	@DEBUG_VALUE: CLK_SetModuleClock:u32ClkSrc <- $r1
	@DEBUG_VALUE: CLK_SetModuleClock:u32ModuleIdx <- $r0
	@DEBUG_VALUE: CLK_SetModuleClock:u32Sel <- 0
	.loc	8 555 8 is_stmt 1               @ ../../Library/StdDriver/src/clk.c:555:8
	lsls	r2, r0, #4
.Ltmp168:
	@DEBUG_VALUE: CLK_SetModuleClock:u32ClkDiv <- [DW_OP_LLVM_entry_value 1] $r2
	lsrs	r2, r2, #29
.Ltmp169:
	.loc	8 555 8 is_stmt 0               @ ../../Library/StdDriver/src/clk.c:555:8
	beq	.LBB14_4
.Ltmp170:
@ %bb.3:
	@DEBUG_VALUE: CLK_SetModuleClock:u32ClkSrc <- $r1
	@DEBUG_VALUE: CLK_SetModuleClock:u32ModuleIdx <- $r0
	@DEBUG_VALUE: CLK_SetModuleClock:u32ClkDiv <- [DW_OP_LLVM_entry_value 1] $r2
	@DEBUG_VALUE: CLK_SetModuleClock:u32Sel <- 0
	.loc	8 560 76 is_stmt 1              @ ../../Library/StdDriver/src/clk.c:560:76
	lsls	r4, r0, #7
	lsrs	r4, r4, #27
	.loc	8 560 73 is_stmt 0              @ ../../Library/StdDriver/src/clk.c:560:73
	lsls	r2, r4
	.loc	8 558 45 is_stmt 1              @ ../../Library/StdDriver/src/clk.c:558:45
	lsrs	r0, r0, #26
.Ltmp171:
	@DEBUG_VALUE: CLK_SetModuleClock:u32ModuleIdx <- [DW_OP_LLVM_entry_value 1] $r0
	.loc	8 0 45 is_stmt 0                @ ../../Library/StdDriver/src/clk.c:0:45
	movs	r4, #12
	.loc	8 558 45                        @ ../../Library/StdDriver/src/clk.c:558:45
	ands	r4, r0
	adr	r0, .LCPI14_2
	ldr	r0, [r0, r4]
.Ltmp172:
	@DEBUG_VALUE: CLK_SetModuleClock:u32Sel <- undef
	.loc	8 560 24 is_stmt 1              @ ../../Library/StdDriver/src/clk.c:560:24
	ldr	r4, [r0, r3]
	.loc	8 560 36 is_stmt 0              @ ../../Library/StdDriver/src/clk.c:560:36
	bics	r4, r2
	.loc	8 560 111                       @ ../../Library/StdDriver/src/clk.c:560:111
	orrs	r4, r1
	.loc	8 560 21                        @ ../../Library/StdDriver/src/clk.c:560:21
	str	r4, [r0, r3]
.Ltmp173:
.LBB14_4:
	@DEBUG_VALUE: CLK_SetModuleClock:u32ClkSrc <- $r1
	@DEBUG_VALUE: CLK_SetModuleClock:u32ClkDiv <- [DW_OP_LLVM_entry_value 1] $r2
	.loc	8 562 1 is_stmt 1               @ ../../Library/StdDriver/src/clk.c:562:1
	pop	{r4, r5, r6, pc}
.Ltmp174:
	.p2align	2
@ %bb.5:
	.loc	8 0 1 is_stmt 0                 @ ../../Library/StdDriver/src/clk.c:0:1
__arm_cp.14_0:
	.long	1073742352                      @ 0x40000210
.Lcpi_end44:
	.size	__arm_cp.14_0, .Lcpi_end44-__arm_cp.14_0
.LCPI14_1:
.L__const.CLK_SetModuleClock.au32DivTbl:
	.long	0                               @ 0x0
	.long	4                               @ 0x4
	.long	8                               @ 0x8
	.long	16                              @ 0x10
.LCPI14_2:
.L__const.CLK_SetModuleClock.au32SelTbl:
	.long	0                               @ 0x0
	.long	4                               @ 0x4
	.long	8                               @ 0x8
	.long	12                              @ 0xc
.Lfunc_end14:
	.size	CLK_SetModuleClock, .Lfunc_end14-CLK_SetModuleClock
	.cfi_endproc
	.cantunwind
	.fnend
                                        @ -- End function
	.section	.text.CLK_SetSysTickClockSrc,"ax",%progbits
	.hidden	CLK_SetSysTickClockSrc          @ -- Begin function CLK_SetSysTickClockSrc
	.globl	CLK_SetSysTickClockSrc
	.p2align	2
	.type	CLK_SetSysTickClockSrc,%function
	.code	16                              @ @CLK_SetSysTickClockSrc
	.thumb_func
CLK_SetSysTickClockSrc:
.Lfunc_begin15:
	.loc	8 577 0 is_stmt 1               @ ../../Library/StdDriver/src/clk.c:577:0
	.fnstart
	.cfi_startproc
@ %bb.0:
	@DEBUG_VALUE: CLK_SetSysTickClockSrc:u32ClkSrc <- $r0
	ldr	r1, __arm_cp.15_0
	@DEBUG_VALUE: CLK_SetSysTickClockSrc:u32ClkSrc <- $r0
.Ltmp175:
	.loc	8 578 26 prologue_end           @ ../../Library/StdDriver/src/clk.c:578:26
	ldr	r2, [r1]
	movs	r3, #56
	.loc	8 578 34 is_stmt 0              @ ../../Library/StdDriver/src/clk.c:578:34
	bics	r2, r3
	.loc	8 578 63                        @ ../../Library/StdDriver/src/clk.c:578:63
	orrs	r2, r0
	.loc	8 578 18                        @ ../../Library/StdDriver/src/clk.c:578:18
	str	r2, [r1]
	.loc	8 579 1 is_stmt 1               @ ../../Library/StdDriver/src/clk.c:579:1
	bx	lr
.Ltmp176:
	.p2align	2
@ %bb.1:
	.loc	8 0 1 is_stmt 0                 @ ../../Library/StdDriver/src/clk.c:0:1
__arm_cp.15_0:
	.long	1073742352                      @ 0x40000210
.Lcpi_end45:
	.size	__arm_cp.15_0, .Lcpi_end45-__arm_cp.15_0
.Lfunc_end15:
	.size	CLK_SetSysTickClockSrc, .Lfunc_end15-CLK_SetSysTickClockSrc
	.cfi_endproc
	.cantunwind
	.fnend
                                        @ -- End function
	.section	.text.CLK_EnableXtalRC,"ax",%progbits
	.hidden	CLK_EnableXtalRC                @ -- Begin function CLK_EnableXtalRC
	.globl	CLK_EnableXtalRC
	.p2align	2
	.type	CLK_EnableXtalRC,%function
	.code	16                              @ @CLK_EnableXtalRC
	.thumb_func
CLK_EnableXtalRC:
.Lfunc_begin16:
	.loc	8 594 0 is_stmt 1               @ ../../Library/StdDriver/src/clk.c:594:0
	.fnstart
	.cfi_startproc
@ %bb.0:
	@DEBUG_VALUE: CLK_EnableXtalRC:u32ClkMask <- $r0
	ldr	r1, __arm_cp.16_0
	@DEBUG_VALUE: CLK_EnableXtalRC:u32ClkMask <- $r0
.Ltmp177:
	.loc	8 595 17 prologue_end           @ ../../Library/StdDriver/src/clk.c:595:17
	ldr	r2, [r1]
	orrs	r2, r0
	str	r2, [r1]
	.loc	8 596 1                         @ ../../Library/StdDriver/src/clk.c:596:1
	bx	lr
.Ltmp178:
	.p2align	2
@ %bb.1:
	.loc	8 0 1 is_stmt 0                 @ ../../Library/StdDriver/src/clk.c:0:1
__arm_cp.16_0:
	.long	1073742336                      @ 0x40000200
.Lcpi_end46:
	.size	__arm_cp.16_0, .Lcpi_end46-__arm_cp.16_0
.Lfunc_end16:
	.size	CLK_EnableXtalRC, .Lfunc_end16-CLK_EnableXtalRC
	.cfi_endproc
	.cantunwind
	.fnend
                                        @ -- End function
	.section	.text.CLK_DisableXtalRC,"ax",%progbits
	.hidden	CLK_DisableXtalRC               @ -- Begin function CLK_DisableXtalRC
	.globl	CLK_DisableXtalRC
	.p2align	2
	.type	CLK_DisableXtalRC,%function
	.code	16                              @ @CLK_DisableXtalRC
	.thumb_func
CLK_DisableXtalRC:
.Lfunc_begin17:
	.loc	8 611 0 is_stmt 1               @ ../../Library/StdDriver/src/clk.c:611:0
	.fnstart
	.cfi_startproc
@ %bb.0:
	@DEBUG_VALUE: CLK_DisableXtalRC:u32ClkMask <- $r0
	ldr	r1, __arm_cp.17_0
	@DEBUG_VALUE: CLK_DisableXtalRC:u32ClkMask <- $r0
.Ltmp179:
	.loc	8 612 17 prologue_end           @ ../../Library/StdDriver/src/clk.c:612:17
	ldr	r2, [r1]
	bics	r2, r0
	str	r2, [r1]
	.loc	8 613 1                         @ ../../Library/StdDriver/src/clk.c:613:1
	bx	lr
.Ltmp180:
	.p2align	2
@ %bb.1:
	.loc	8 0 1 is_stmt 0                 @ ../../Library/StdDriver/src/clk.c:0:1
__arm_cp.17_0:
	.long	1073742336                      @ 0x40000200
.Lcpi_end47:
	.size	__arm_cp.17_0, .Lcpi_end47-__arm_cp.17_0
.Lfunc_end17:
	.size	CLK_DisableXtalRC, .Lfunc_end17-CLK_DisableXtalRC
	.cfi_endproc
	.cantunwind
	.fnend
                                        @ -- End function
	.section	.text.CLK_EnableModuleClock,"ax",%progbits
	.hidden	CLK_EnableModuleClock           @ -- Begin function CLK_EnableModuleClock
	.globl	CLK_EnableModuleClock
	.p2align	2
	.type	CLK_EnableModuleClock,%function
	.code	16                              @ @CLK_EnableModuleClock
	.thumb_func
CLK_EnableModuleClock:
.Lfunc_begin18:
	.loc	8 675 0 is_stmt 1               @ ../../Library/StdDriver/src/clk.c:675:0
	.fnstart
	.cfi_startproc
@ %bb.0:
	@DEBUG_VALUE: CLK_EnableModuleClock:u32ModuleIdx <- $r0
	movs	r1, #31
.Ltmp181:
	@DEBUG_VALUE: CLK_EnableModuleClock:u32TmpAddr <- 0
	@DEBUG_VALUE: CLK_EnableModuleClock:u32TmpVal <- 0
	@DEBUG_VALUE: CLK_EnableModuleClock:u32ModuleIdx <- $r0
	.loc	8 678 25 prologue_end           @ ../../Library/StdDriver/src/clk.c:678:25
	ands	r1, r0
	movs	r2, #1
	.loc	8 678 22 is_stmt 0              @ ../../Library/StdDriver/src/clk.c:678:22
	lsls	r2, r1
.Ltmp182:
	@DEBUG_VALUE: CLK_EnableModuleClock:u32TmpVal <- $r2
	.loc	8 680 21 is_stmt 1              @ ../../Library/StdDriver/src/clk.c:680:21
	lsrs	r0, r0, #30
.Ltmp183:
	@DEBUG_VALUE: CLK_EnableModuleClock:u32ModuleIdx <- [DW_OP_LLVM_entry_value 1] $r0
	lsls	r0, r0, #2
.Ltmp184:
	@DEBUG_VALUE: CLK_EnableModuleClock:u32TmpAddr <- [DW_OP_plus_uconst 1073742340, DW_OP_stack_value] $r0
	.loc	8 0 21 is_stmt 0                @ ../../Library/StdDriver/src/clk.c:0:21
	ldr	r1, __arm_cp.18_0
.Ltmp185:
	@DEBUG_VALUE: CLK_EnableModuleClock:u32TmpAddr <- undef
	.loc	8 682 38 is_stmt 1              @ ../../Library/StdDriver/src/clk.c:682:38
	ldr	r3, [r0, r1]
	orrs	r3, r2
	str	r3, [r0, r1]
	.loc	8 683 1                         @ ../../Library/StdDriver/src/clk.c:683:1
	bx	lr
.Ltmp186:
	.p2align	2
@ %bb.1:
	.loc	8 0 1 is_stmt 0                 @ ../../Library/StdDriver/src/clk.c:0:1
__arm_cp.18_0:
	.long	1073742340                      @ 0x40000204
.Lcpi_end48:
	.size	__arm_cp.18_0, .Lcpi_end48-__arm_cp.18_0
.Lfunc_end18:
	.size	CLK_EnableModuleClock, .Lfunc_end18-CLK_EnableModuleClock
	.cfi_endproc
	.cantunwind
	.fnend
                                        @ -- End function
	.section	.text.CLK_DisableModuleClock,"ax",%progbits
	.hidden	CLK_DisableModuleClock          @ -- Begin function CLK_DisableModuleClock
	.globl	CLK_DisableModuleClock
	.p2align	2
	.type	CLK_DisableModuleClock,%function
	.code	16                              @ @CLK_DisableModuleClock
	.thumb_func
CLK_DisableModuleClock:
.Lfunc_begin19:
	.loc	8 745 0 is_stmt 1               @ ../../Library/StdDriver/src/clk.c:745:0
	.fnstart
	.cfi_startproc
@ %bb.0:
	@DEBUG_VALUE: CLK_DisableModuleClock:u32ModuleIdx <- $r0
	movs	r1, #31
.Ltmp187:
	@DEBUG_VALUE: CLK_DisableModuleClock:u32TmpAddr <- 0
	@DEBUG_VALUE: CLK_DisableModuleClock:u32TmpVal <- 0
	@DEBUG_VALUE: CLK_DisableModuleClock:u32ModuleIdx <- $r0
	.loc	8 748 26 prologue_end           @ ../../Library/StdDriver/src/clk.c:748:26
	ands	r1, r0
	movs	r2, #1
	.loc	8 748 23 is_stmt 0              @ ../../Library/StdDriver/src/clk.c:748:23
	lsls	r2, r1
.Ltmp188:
	@DEBUG_VALUE: CLK_DisableModuleClock:u32TmpVal <- undef
	.loc	8 750 21 is_stmt 1              @ ../../Library/StdDriver/src/clk.c:750:21
	lsrs	r0, r0, #30
.Ltmp189:
	@DEBUG_VALUE: CLK_DisableModuleClock:u32ModuleIdx <- [DW_OP_LLVM_entry_value 1] $r0
	lsls	r0, r0, #2
.Ltmp190:
	@DEBUG_VALUE: CLK_DisableModuleClock:u32TmpAddr <- [DW_OP_plus_uconst 1073742340, DW_OP_stack_value] $r0
	.loc	8 0 21 is_stmt 0                @ ../../Library/StdDriver/src/clk.c:0:21
	ldr	r1, __arm_cp.19_0
.Ltmp191:
	@DEBUG_VALUE: CLK_DisableModuleClock:u32TmpAddr <- undef
	.loc	8 752 29 is_stmt 1              @ ../../Library/StdDriver/src/clk.c:752:29
	ldr	r3, [r0, r1]
	bics	r3, r2
	str	r3, [r0, r1]
	.loc	8 753 1                         @ ../../Library/StdDriver/src/clk.c:753:1
	bx	lr
.Ltmp192:
	.p2align	2
@ %bb.1:
	.loc	8 0 1 is_stmt 0                 @ ../../Library/StdDriver/src/clk.c:0:1
__arm_cp.19_0:
	.long	1073742340                      @ 0x40000204
.Lcpi_end49:
	.size	__arm_cp.19_0, .Lcpi_end49-__arm_cp.19_0
.Lfunc_end19:
	.size	CLK_DisableModuleClock, .Lfunc_end19-CLK_DisableModuleClock
	.cfi_endproc
	.cantunwind
	.fnend
                                        @ -- End function
	.section	.text.CLK_DisablePLL,"ax",%progbits
	.hidden	CLK_DisablePLL                  @ -- Begin function CLK_DisablePLL
	.globl	CLK_DisablePLL
	.p2align	2
	.type	CLK_DisablePLL,%function
	.code	16                              @ @CLK_DisablePLL
	.thumb_func
CLK_DisablePLL:
.Lfunc_begin20:
	.loc	8 906 0 is_stmt 1               @ ../../Library/StdDriver/src/clk.c:906:0
	.fnstart
	.cfi_startproc
@ %bb.0:
	movs	r0, #1
	lsls	r0, r0, #16
	ldr	r1, __arm_cp.20_0
.Ltmp193:
	.loc	8 907 17 prologue_end           @ ../../Library/StdDriver/src/clk.c:907:17
	ldr	r2, [r1]
	orrs	r2, r0
	str	r2, [r1]
	.loc	8 908 1                         @ ../../Library/StdDriver/src/clk.c:908:1
	bx	lr
.Ltmp194:
	.p2align	2
@ %bb.1:
	.loc	8 0 1 is_stmt 0                 @ ../../Library/StdDriver/src/clk.c:0:1
__arm_cp.20_0:
	.long	1073742400                      @ 0x40000240
.Lcpi_end50:
	.size	__arm_cp.20_0, .Lcpi_end50-__arm_cp.20_0
.Lfunc_end20:
	.size	CLK_DisablePLL, .Lfunc_end20-CLK_DisablePLL
	.cfi_endproc
	.cantunwind
	.fnend
                                        @ -- End function
	.section	.text.CLK_EnableSysTick,"ax",%progbits
	.hidden	CLK_EnableSysTick               @ -- Begin function CLK_EnableSysTick
	.globl	CLK_EnableSysTick
	.p2align	2
	.type	CLK_EnableSysTick,%function
	.code	16                              @ @CLK_EnableSysTick
	.thumb_func
CLK_EnableSysTick:
.Lfunc_begin21:
	.loc	8 956 0 is_stmt 1               @ ../../Library/StdDriver/src/clk.c:956:0
	.fnstart
	.cfi_startproc
@ %bb.0:
	@DEBUG_VALUE: CLK_EnableSysTick:u32ClkSrc <- $r0
	@DEBUG_VALUE: CLK_EnableSysTick:u32Count <- $r1
	.save	{r4, r5, r6, lr}
	push	{r4, r5, r6, lr}
	.cfi_def_cfa_offset 16
	.cfi_offset lr, -4
	.cfi_offset r6, -8
	.cfi_offset r5, -12
	.cfi_offset r4, -16
	ldr	r2, __arm_cp.21_0
	movs	r3, #0
	@DEBUG_VALUE: CLK_EnableSysTick:u32Count <- $r1
	@DEBUG_VALUE: CLK_EnableSysTick:u32ClkSrc <- $r0
.Ltmp195:
	.loc	8 958 19 prologue_end           @ ../../Library/StdDriver/src/clk.c:958:19
	str	r3, [r2]
	.loc	8 961 8                         @ ../../Library/StdDriver/src/clk.c:961:8
	cmp	r0, #4
	bne	.LBB21_2
.Ltmp196:
@ %bb.1:
	@DEBUG_VALUE: CLK_EnableSysTick:u32Count <- $r1
	@DEBUG_VALUE: CLK_EnableSysTick:u32ClkSrc <- $r0
	.loc	8 963 23                        @ ../../Library/StdDriver/src/clk.c:963:23
	ldr	r0, [r2]
.Ltmp197:
	@DEBUG_VALUE: CLK_EnableSysTick:u32ClkSrc <- [DW_OP_LLVM_entry_value 1] $r0
	.loc	8 0 23 is_stmt 0                @ ../../Library/StdDriver/src/clk.c:0:23
	movs	r4, #4
	.loc	8 963 23                        @ ../../Library/StdDriver/src/clk.c:963:23
	orrs	r4, r0
	mov	r5, r2
	.loc	8 964 5 is_stmt 1               @ ../../Library/StdDriver/src/clk.c:964:5
	b	.LBB21_3
.Ltmp198:
.LBB21_2:
	@DEBUG_VALUE: CLK_EnableSysTick:u32Count <- $r1
	@DEBUG_VALUE: CLK_EnableSysTick:u32ClkSrc <- $r0
	.loc	8 0 5 is_stmt 0                 @ ../../Library/StdDriver/src/clk.c:0:5
	ldr	r5, __arm_cp.21_1
.Ltmp199:
	.loc	8 967 30 is_stmt 1              @ ../../Library/StdDriver/src/clk.c:967:30
	ldr	r4, [r5]
	movs	r6, #56
	.loc	8 967 38 is_stmt 0              @ ../../Library/StdDriver/src/clk.c:967:38
	bics	r4, r6
	.loc	8 967 67                        @ ../../Library/StdDriver/src/clk.c:967:67
	orrs	r4, r0
.Ltmp200:
.LBB21_3:
	@DEBUG_VALUE: CLK_EnableSysTick:u32Count <- $r1
	.loc	8 0 0                           @ ../../Library/StdDriver/src/clk.c:0:0
	str	r4, [r5]
.Ltmp201:
	.loc	8 971 19 is_stmt 1              @ ../../Library/StdDriver/src/clk.c:971:19
	str	r1, [r2, #4]
	.loc	8 974 18                        @ ../../Library/StdDriver/src/clk.c:974:18
	str	r3, [r2, #8]
	.loc	8 977 19                        @ ../../Library/StdDriver/src/clk.c:977:19
	ldr	r0, [r2]
	movs	r1, #3
.Ltmp202:
	@DEBUG_VALUE: CLK_EnableSysTick:u32Count <- [DW_OP_LLVM_entry_value 1] $r1
	orrs	r1, r0
	str	r1, [r2]
	.loc	8 978 1                         @ ../../Library/StdDriver/src/clk.c:978:1
	pop	{r4, r5, r6, pc}
.Ltmp203:
	.p2align	2
@ %bb.4:
	.loc	8 0 1 is_stmt 0                 @ ../../Library/StdDriver/src/clk.c:0:1
__arm_cp.21_0:
	.long	3758153744                      @ 0xe000e010
.Lcpi_end51:
	.size	__arm_cp.21_0, .Lcpi_end51-__arm_cp.21_0
__arm_cp.21_1:
	.long	1073742352                      @ 0x40000210
.Lcpi_end52:
	.size	__arm_cp.21_1, .Lcpi_end52-__arm_cp.21_1
.Lfunc_end21:
	.size	CLK_EnableSysTick, .Lfunc_end21-CLK_EnableSysTick
	.cfi_endproc
	.cantunwind
	.fnend
                                        @ -- End function
	.section	.text.CLK_DisableSysTick,"ax",%progbits
	.hidden	CLK_DisableSysTick              @ -- Begin function CLK_DisableSysTick
	.globl	CLK_DisableSysTick
	.p2align	2
	.type	CLK_DisableSysTick,%function
	.code	16                              @ @CLK_DisableSysTick
	.thumb_func
CLK_DisableSysTick:
.Lfunc_begin22:
	.loc	8 987 0 is_stmt 1               @ ../../Library/StdDriver/src/clk.c:987:0
	.fnstart
	.cfi_startproc
@ %bb.0:
	ldr	r0, __arm_cp.22_0
	movs	r1, #0
.Ltmp204:
	.loc	8 989 19 prologue_end           @ ../../Library/StdDriver/src/clk.c:989:19
	str	r1, [r0]
	.loc	8 990 1                         @ ../../Library/StdDriver/src/clk.c:990:1
	bx	lr
.Ltmp205:
	.p2align	2
@ %bb.1:
	.loc	8 0 1 is_stmt 0                 @ ../../Library/StdDriver/src/clk.c:0:1
__arm_cp.22_0:
	.long	3758153744                      @ 0xe000e010
.Lcpi_end53:
	.size	__arm_cp.22_0, .Lcpi_end53-__arm_cp.22_0
.Lfunc_end22:
	.size	CLK_DisableSysTick, .Lfunc_end22-CLK_DisableSysTick
	.cfi_endproc
	.cantunwind
	.fnend
                                        @ -- End function
	.section	.text.CLK_SetPowerDownMode,"ax",%progbits
	.hidden	CLK_SetPowerDownMode            @ -- Begin function CLK_SetPowerDownMode
	.globl	CLK_SetPowerDownMode
	.p2align	2
	.type	CLK_SetPowerDownMode,%function
	.code	16                              @ @CLK_SetPowerDownMode
	.thumb_func
CLK_SetPowerDownMode:
.Lfunc_begin23:
	.loc	8 1005 0 is_stmt 1              @ ../../Library/StdDriver/src/clk.c:1005:0
	.fnstart
	.cfi_startproc
@ %bb.0:
	@DEBUG_VALUE: CLK_SetPowerDownMode:u32PDMode <- $r0
	ldr	r1, __arm_cp.23_0
	@DEBUG_VALUE: CLK_SetPowerDownMode:u32PDMode <- $r0
.Ltmp206:
	.loc	8 1006 25 prologue_end          @ ../../Library/StdDriver/src/clk.c:1006:25
	ldr	r2, [r1]
	movs	r3, #7
	.loc	8 1006 32 is_stmt 0             @ ../../Library/StdDriver/src/clk.c:1006:32
	bics	r2, r3
	.loc	8 1006 60                       @ ../../Library/StdDriver/src/clk.c:1006:60
	orrs	r2, r0
	.loc	8 1006 17                       @ ../../Library/StdDriver/src/clk.c:1006:17
	str	r2, [r1]
	.loc	8 1007 1 is_stmt 1              @ ../../Library/StdDriver/src/clk.c:1007:1
	bx	lr
.Ltmp207:
	.p2align	2
@ %bb.1:
	.loc	8 0 1 is_stmt 0                 @ ../../Library/StdDriver/src/clk.c:0:1
__arm_cp.23_0:
	.long	1073742480                      @ 0x40000290
.Lcpi_end54:
	.size	__arm_cp.23_0, .Lcpi_end54-__arm_cp.23_0
.Lfunc_end23:
	.size	CLK_SetPowerDownMode, .Lfunc_end23-CLK_SetPowerDownMode
	.cfi_endproc
	.cantunwind
	.fnend
                                        @ -- End function
	.section	.text.CLK_EnableDPDWKPin,"ax",%progbits
	.hidden	CLK_EnableDPDWKPin              @ -- Begin function CLK_EnableDPDWKPin
	.globl	CLK_EnableDPDWKPin
	.p2align	2
	.type	CLK_EnableDPDWKPin,%function
	.code	16                              @ @CLK_EnableDPDWKPin
	.thumb_func
CLK_EnableDPDWKPin:
.Lfunc_begin24:
	.loc	8 1020 0 is_stmt 1              @ ../../Library/StdDriver/src/clk.c:1020:0
	.fnstart
	.cfi_startproc
@ %bb.0:
	@DEBUG_VALUE: CLK_EnableDPDWKPin:u32TriggerType <- $r0
	movs	r1, #3
	lsls	r1, r1, #16
	ldr	r2, __arm_cp.24_0
	@DEBUG_VALUE: CLK_EnableDPDWKPin:u32TriggerType <- $r0
.Ltmp208:
	.loc	8 1021 25 prologue_end          @ ../../Library/StdDriver/src/clk.c:1021:25
	ldr	r3, [r2]
	.loc	8 1021 32 is_stmt 0             @ ../../Library/StdDriver/src/clk.c:1021:32
	bics	r3, r1
	.loc	8 1021 61                       @ ../../Library/StdDriver/src/clk.c:1021:61
	orrs	r3, r0
	.loc	8 1021 17                       @ ../../Library/StdDriver/src/clk.c:1021:17
	str	r3, [r2]
	.loc	8 1022 1 is_stmt 1              @ ../../Library/StdDriver/src/clk.c:1022:1
	bx	lr
.Ltmp209:
	.p2align	2
@ %bb.1:
	.loc	8 0 1 is_stmt 0                 @ ../../Library/StdDriver/src/clk.c:0:1
__arm_cp.24_0:
	.long	1073742480                      @ 0x40000290
.Lcpi_end55:
	.size	__arm_cp.24_0, .Lcpi_end55-__arm_cp.24_0
.Lfunc_end24:
	.size	CLK_EnableDPDWKPin, .Lfunc_end24-CLK_EnableDPDWKPin
	.cfi_endproc
	.cantunwind
	.fnend
                                        @ -- End function
	.section	.text.CLK_GetPMUWKSrc,"ax",%progbits
	.hidden	CLK_GetPMUWKSrc                 @ -- Begin function CLK_GetPMUWKSrc
	.globl	CLK_GetPMUWKSrc
	.p2align	2
	.type	CLK_GetPMUWKSrc,%function
	.code	16                              @ @CLK_GetPMUWKSrc
	.thumb_func
CLK_GetPMUWKSrc:
.Lfunc_begin25:
	.loc	8 1032 0 is_stmt 1              @ ../../Library/StdDriver/src/clk.c:1032:0
	.fnstart
	.cfi_startproc
@ %bb.0:
	ldr	r0, __arm_cp.25_0
.Ltmp210:
	.loc	8 1033 18 prologue_end          @ ../../Library/StdDriver/src/clk.c:1033:18
	ldr	r0, [r0]
	.loc	8 1033 5 is_stmt 0              @ ../../Library/StdDriver/src/clk.c:1033:5
	bx	lr
.Ltmp211:
	.p2align	2
@ %bb.1:
	.loc	8 0 5                           @ ../../Library/StdDriver/src/clk.c:0:5
__arm_cp.25_0:
	.long	1073742484                      @ 0x40000294
.Lcpi_end56:
	.size	__arm_cp.25_0, .Lcpi_end56-__arm_cp.25_0
.Lfunc_end25:
	.size	CLK_GetPMUWKSrc, .Lfunc_end25-CLK_GetPMUWKSrc
	.cfi_endproc
	.cantunwind
	.fnend
                                        @ -- End function
	.section	.text.CLK_EnableSPDWKPin,"ax",%progbits
	.hidden	CLK_EnableSPDWKPin              @ -- Begin function CLK_EnableSPDWKPin
	.globl	CLK_EnableSPDWKPin
	.p2align	2
	.type	CLK_EnableSPDWKPin,%function
	.code	16                              @ @CLK_EnableSPDWKPin
	.thumb_func
CLK_EnableSPDWKPin:
.Lfunc_begin26:
	.loc	8 1051 0 is_stmt 1              @ ../../Library/StdDriver/src/clk.c:1051:0
	.fnstart
	.cfi_startproc
@ %bb.0:
	@DEBUG_VALUE: CLK_EnableSPDWKPin:u32Port <- $r0
	@DEBUG_VALUE: CLK_EnableSPDWKPin:u32Port <- $r0
	@DEBUG_VALUE: CLK_EnableSPDWKPin:u32Pin <- $r1
	@DEBUG_VALUE: CLK_EnableSPDWKPin:u32Pin <- $r1
	@DEBUG_VALUE: CLK_EnableSPDWKPin:u32TriggerType <- $r2
	@DEBUG_VALUE: CLK_EnableSPDWKPin:u32TriggerType <- $r2
	@DEBUG_VALUE: CLK_EnableSPDWKPin:u32DebounceEn <- $r3
	@DEBUG_VALUE: CLK_EnableSPDWKPin:u32DebounceEn <- $r3
	.save	{r4, r5, r6, lr}
	push	{r4, r5, r6, lr}
	.cfi_def_cfa_offset 16
	.cfi_offset lr, -4
	.cfi_offset r6, -8
	.cfi_offset r5, -12
	.cfi_offset r4, -16
.Ltmp212:
	@DEBUG_VALUE: CLK_EnableSPDWKPin:u32TmpAddr <- 0
	@DEBUG_VALUE: CLK_EnableSPDWKPin:u32TmpVal <- 0
	.loc	8 1057 26 prologue_end          @ ../../Library/StdDriver/src/clk.c:1057:26
	lsls	r0, r0, #2
.Ltmp213:
	@DEBUG_VALUE: CLK_EnableSPDWKPin:u32Port <- [DW_OP_LLVM_entry_value 1] $r0
	.loc	8 0 26 is_stmt 0                @ ../../Library/StdDriver/src/clk.c:0:26
	ldr	r4, __arm_cp.26_0
.Ltmp214:
	@DEBUG_VALUE: CLK_EnableSPDWKPin:u32TmpAddr <- [DW_OP_plus_uconst 1073742496, DW_OP_stack_value] $r0
	.loc	8 1059 17 is_stmt 1             @ ../../Library/StdDriver/src/clk.c:1059:17
	ldr	r5, [r0, r4]
.Ltmp215:
	@DEBUG_VALUE: CLK_EnableSPDWKPin:u32TmpVal <- $r5
	.loc	8 0 17 is_stmt 0                @ ../../Library/StdDriver/src/clk.c:0:17
	movw	r6, #503
	.loc	8 1060 28 is_stmt 1             @ ../../Library/StdDriver/src/clk.c:1060:28
	bics	r5, r6
.Ltmp216:
	.loc	8 1061 25                       @ ../../Library/StdDriver/src/clk.c:1061:25
	lsls	r1, r1, #4
.Ltmp217:
	@DEBUG_VALUE: CLK_EnableSPDWKPin:u32Pin <- [DW_OP_LLVM_entry_value 1] $r1
	.loc	8 1061 53 is_stmt 0             @ ../../Library/StdDriver/src/clk.c:1061:53
	orrs	r1, r2
	.loc	8 1061 70                       @ ../../Library/StdDriver/src/clk.c:1061:70
	orrs	r1, r3
	.loc	8 1061 86                       @ ../../Library/StdDriver/src/clk.c:1061:86
	orrs	r1, r5
	movs	r2, #1
.Ltmp218:
	@DEBUG_VALUE: CLK_EnableSPDWKPin:u32TriggerType <- [DW_OP_LLVM_entry_value 1] $r2
	orrs	r2, r1
.Ltmp219:
	@DEBUG_VALUE: CLK_EnableSPDWKPin:u32TmpVal <- $r2
	.loc	8 1062 5 is_stmt 1              @ ../../Library/StdDriver/src/clk.c:1062:5
	str	r2, [r0, r4]
	.loc	8 1063 1                        @ ../../Library/StdDriver/src/clk.c:1063:1
	pop	{r4, r5, r6, pc}
.Ltmp220:
	.p2align	2
@ %bb.1:
	.loc	8 0 1 is_stmt 0                 @ ../../Library/StdDriver/src/clk.c:0:1
__arm_cp.26_0:
	.long	1073742496                      @ 0x400002a0
.Lcpi_end57:
	.size	__arm_cp.26_0, .Lcpi_end57-__arm_cp.26_0
.Lfunc_end26:
	.size	CLK_EnableSPDWKPin, .Lfunc_end26-CLK_EnableSPDWKPin
	.cfi_endproc
	.cantunwind
	.fnend
                                        @ -- End function
	.section	.text.CLK_GetPLLClockFreq,"ax",%progbits
	.hidden	CLK_GetPLLClockFreq             @ -- Begin function CLK_GetPLLClockFreq
	.globl	CLK_GetPLLClockFreq
	.p2align	2
	.type	CLK_GetPLLClockFreq,%function
	.code	16                              @ @CLK_GetPLLClockFreq
	.thumb_func
CLK_GetPLLClockFreq:
.Lfunc_begin27:
	.loc	8 1074 0 is_stmt 1              @ ../../Library/StdDriver/src/clk.c:1074:0
	.fnstart
	.cfi_startproc
@ %bb.0:
	ldr	r0, __arm_cp.27_0
.Ltmp221:
	@DEBUG_VALUE: CLK_GetPLLClockFreq:u32PllFreq <- 0
	.loc	8 1079 22 prologue_end          @ ../../Library/StdDriver/src/clk.c:1079:22
	ldr	r1, [r0]
.Ltmp222:
	@DEBUG_VALUE: CLK_GetPLLClockFreq:u32PllReg <- $r1
	.loc	8 0 22 is_stmt 0                @ ../../Library/StdDriver/src/clk.c:0:22
	movs	r0, #5
	lsls	r0, r0, #16
	.loc	8 1081 8 is_stmt 1              @ ../../Library/StdDriver/src/clk.c:1081:8
	tst	r1, r0
	beq	.LBB27_2
.Ltmp223:
@ %bb.1:
	@DEBUG_VALUE: CLK_GetPLLClockFreq:u32PllReg <- $r1
	@DEBUG_VALUE: CLK_GetPLLClockFreq:u32PllFreq <- 0
	.loc	8 0 8 is_stmt 0                 @ ../../Library/StdDriver/src/clk.c:0:8
	movs	r0, #0
.Ltmp224:
	@DEBUG_VALUE: CLK_GetPLLClockFreq:u32PllFreq <- $r0
	.loc	8 1115 5 is_stmt 1              @ ../../Library/StdDriver/src/clk.c:1115:5
	bx	lr
.Ltmp225:
.LBB27_2:
	@DEBUG_VALUE: CLK_GetPLLClockFreq:u32PllReg <- $r1
	@DEBUG_VALUE: CLK_GetPLLClockFreq:u32PllFreq <- 0
	@DEBUG_VALUE: CLK_GetPLLClockFreq:u32FIN <- 12000000
	.loc	8 1099 12                       @ ../../Library/StdDriver/src/clk.c:1099:12
	lsls	r0, r1, #14
	ldr	r0, __arm_cp.27_1
	bmi	.LBB27_4
.Ltmp226:
@ %bb.3:
	@DEBUG_VALUE: CLK_GetPLLClockFreq:u32PllReg <- $r1
	@DEBUG_VALUE: CLK_GetPLLClockFreq:u32FIN <- 12000000
	@DEBUG_VALUE: CLK_GetPLLClockFreq:u32PllFreq <- 0
	.loc	8 1106 67                       @ ../../Library/StdDriver/src/clk.c:1106:67
	lsls	r2, r1, #16
	lsrs	r2, r2, #30
	.loc	8 1106 21 is_stmt 0             @ ../../Library/StdDriver/src/clk.c:1106:21
	adr	r3, .LCPI27_2
	ldrb	r2, [r3, r2]
.Ltmp227:
	@DEBUG_VALUE: CLK_GetPLLClockFreq:u32NO <- $r2
	@DEBUG_VALUE: CLK_GetPLLClockFreq:u32NF <- [DW_OP_constu 511, DW_OP_and, DW_OP_plus_uconst 2, DW_OP_stack_value] $r1
	.loc	8 1108 57 is_stmt 1             @ ../../Library/StdDriver/src/clk.c:1108:57
	lsls	r3, r1, #18
	lsrs	r3, r3, #27
	.loc	8 1108 82 is_stmt 0             @ ../../Library/StdDriver/src/clk.c:1108:82
	adds	r3, r3, #1
.Ltmp228:
	@DEBUG_VALUE: CLK_GetPLLClockFreq:u32NR <- $r3
	.loc	8 1111 67 is_stmt 1             @ ../../Library/StdDriver/src/clk.c:1111:67
	muls	r3, r2, r3
.Ltmp229:
	.loc	8 1111 51 is_stmt 0             @ ../../Library/StdDriver/src/clk.c:1111:51
	lsls	r1, r1, #23
.Ltmp230:
	lsrs	r1, r1, #22
	ldr	r2, __arm_cp.27_3
.Ltmp231:
	.loc	8 1111 42                       @ ../../Library/StdDriver/src/clk.c:1111:42
	muls	r2, r1, r2
	adds	r0, r2, r0
	.loc	8 1111 58                       @ ../../Library/StdDriver/src/clk.c:1111:58
	udiv	r0, r0, r3
	.loc	8 1111 76                       @ ../../Library/StdDriver/src/clk.c:1111:76
	lsls	r0, r0, #2
.Ltmp232:
	@DEBUG_VALUE: CLK_GetPLLClockFreq:u32PllFreq <- $r0
.LBB27_4:
	@DEBUG_VALUE: CLK_GetPLLClockFreq:u32FIN <- 12000000
	@DEBUG_VALUE: CLK_GetPLLClockFreq:u32PllFreq <- $r0
	.loc	8 1115 5 is_stmt 1              @ ../../Library/StdDriver/src/clk.c:1115:5
	bx	lr
.Ltmp233:
	.p2align	2
@ %bb.5:
	.loc	8 0 5 is_stmt 0                 @ ../../Library/StdDriver/src/clk.c:0:5
__arm_cp.27_0:
	.long	1073742400                      @ 0x40000240
.Lcpi_end58:
	.size	__arm_cp.27_0, .Lcpi_end58-__arm_cp.27_0
__arm_cp.27_1:
	.long	12000000                        @ 0xb71b00
.Lcpi_end59:
	.size	__arm_cp.27_1, .Lcpi_end59-__arm_cp.27_1
.LCPI27_2:
.L__const.CLK_GetPLLClockFreq.au8NoTbl:
	.ascii	"\001\002\002\004"
__arm_cp.27_3:
	.long	3000000                         @ 0x2dc6c0
.Lcpi_end60:
	.size	__arm_cp.27_3, .Lcpi_end60-__arm_cp.27_3
.Lfunc_end27:
	.size	CLK_GetPLLClockFreq, .Lfunc_end27-CLK_GetPLLClockFreq
	.cfi_endproc
	.cantunwind
	.fnend
                                        @ -- End function
	.section	.text.CLK_GetModuleClockSource,"ax",%progbits
	.hidden	CLK_GetModuleClockSource        @ -- Begin function CLK_GetModuleClockSource
	.globl	CLK_GetModuleClockSource
	.p2align	2
	.type	CLK_GetModuleClockSource,%function
	.code	16                              @ @CLK_GetModuleClockSource
	.thumb_func
CLK_GetModuleClockSource:
.Lfunc_begin28:
	.loc	8 1158 0 is_stmt 1              @ ../../Library/StdDriver/src/clk.c:1158:0
	.fnstart
	.cfi_startproc
@ %bb.0:
	@DEBUG_VALUE: CLK_GetModuleClockSource:u32ModuleIdx <- $r0
	ldr	r1, __arm_cp.28_0
.Ltmp234:
	@DEBUG_VALUE: CLK_GetModuleClockSource:u32TmpAddr <- 0
	@DEBUG_VALUE: CLK_GetModuleClockSource:u32TmpVal <- 0
	@DEBUG_VALUE: CLK_GetModuleClockSource:u32ModuleIdx <- $r0
	.loc	8 1163 8 prologue_end           @ ../../Library/StdDriver/src/clk.c:1163:8
	adds	r1, r0, r1
	cmp	r1, #3
	bhi	.LBB28_4
.Ltmp235:
@ %bb.1:
	@DEBUG_VALUE: CLK_GetModuleClockSource:u32ModuleIdx <- $r0
	@DEBUG_VALUE: CLK_GetModuleClockSource:u32TmpVal <- 0
	@DEBUG_VALUE: CLK_GetModuleClockSource:u32TmpAddr <- 0
	.loc	8 0 8 is_stmt 0                 @ ../../Library/StdDriver/src/clk.c:0:8
	lsls	r0, r1, #2
.Ltmp236:
	@DEBUG_VALUE: CLK_GetModuleClockSource:u32ModuleIdx <- [DW_OP_LLVM_entry_value 1] $r0
	adr	r2, .LJTI28_0
	adds	r0, r2, r0
	mov	pc, r0
.Ltmp237:
@ %bb.2:
	.p2align	2
.LJTI28_0:
	b.w	.LBB28_3
	b.w	.LBB28_6
	b.w	.LBB28_7
	b.w	.LBB28_8
.LBB28_3:
.Ltmp238:
	@DEBUG_VALUE: CLK_GetModuleClockSource:u32ModuleIdx <- [DW_OP_LLVM_entry_value 1] $r0
	@DEBUG_VALUE: CLK_GetModuleClockSource:u32TmpVal <- 0
	@DEBUG_VALUE: CLK_GetModuleClockSource:u32TmpAddr <- 0
	ldr	r0, __arm_cp.28_1
.Ltmp239:
	.loc	8 1165 28 is_stmt 1             @ ../../Library/StdDriver/src/clk.c:1165:28
	ldr	r1, [r0]
	movs	r0, #1
	.loc	8 1165 36 is_stmt 0             @ ../../Library/StdDriver/src/clk.c:1165:36
	ands	r0, r1
.Ltmp240:
	@DEBUG_VALUE: CLK_GetModuleClockSource:u32TmpVal <- $r0
	@DEBUG_VALUE: CLK_GetModuleClockSource:u32TmpVal <- $r0
	.loc	8 1188 5 is_stmt 1              @ ../../Library/StdDriver/src/clk.c:1188:5
	bx	lr
.Ltmp241:
.LBB28_4:
	@DEBUG_VALUE: CLK_GetModuleClockSource:u32ModuleIdx <- $r0
	@DEBUG_VALUE: CLK_GetModuleClockSource:u32TmpVal <- 0
	@DEBUG_VALUE: CLK_GetModuleClockSource:u32TmpAddr <- 0
	.loc	8 1179 13                       @ ../../Library/StdDriver/src/clk.c:1179:13
	lsls	r1, r0, #4
	lsrs	r1, r1, #29
.Ltmp242:
	.loc	8 1179 13 is_stmt 0             @ ../../Library/StdDriver/src/clk.c:1179:13
	beq	.LBB28_9
.Ltmp243:
@ %bb.5:
	@DEBUG_VALUE: CLK_GetModuleClockSource:u32ModuleIdx <- $r0
	@DEBUG_VALUE: CLK_GetModuleClockSource:u32TmpVal <- 0
	@DEBUG_VALUE: CLK_GetModuleClockSource:u32TmpAddr <- 0
	.loc	8 1185 90 is_stmt 1             @ ../../Library/StdDriver/src/clk.c:1185:90
	lsls	r2, r0, #7
	lsrs	r2, r2, #27
	.loc	8 1185 87 is_stmt 0             @ ../../Library/StdDriver/src/clk.c:1185:87
	lsls	r1, r2
	.loc	8 1182 49 is_stmt 1             @ ../../Library/StdDriver/src/clk.c:1182:49
	lsrs	r0, r0, #26
.Ltmp244:
	@DEBUG_VALUE: CLK_GetModuleClockSource:u32ModuleIdx <- [DW_OP_LLVM_entry_value 1] $r0
	.loc	8 0 49 is_stmt 0                @ ../../Library/StdDriver/src/clk.c:0:49
	movs	r3, #12
	.loc	8 1182 49                       @ ../../Library/StdDriver/src/clk.c:1182:49
	ands	r3, r0
	adr	r0, .LCPI28_2
	ldr	r0, [r0, r3]
	ldr	r3, __arm_cp.28_1
	.loc	8 1182 46                       @ ../../Library/StdDriver/src/clk.c:1182:46
	adds	r0, r0, r3
	subs	r0, #8
.Ltmp245:
	@DEBUG_VALUE: CLK_GetModuleClockSource:u32TmpAddr <- $r0
	.loc	8 1185 23 is_stmt 1             @ ../../Library/StdDriver/src/clk.c:1185:23
	ldr	r0, [r0]
.Ltmp246:
	.loc	8 1185 52 is_stmt 0             @ ../../Library/StdDriver/src/clk.c:1185:52
	ands	r0, r1
	.loc	8 1185 124                      @ ../../Library/StdDriver/src/clk.c:1185:124
	lsrs	r0, r2
.Ltmp247:
	@DEBUG_VALUE: CLK_GetModuleClockSource:u32TmpVal <- $r0
	@DEBUG_VALUE: CLK_GetModuleClockSource:u32TmpVal <- $r0
	.loc	8 1188 5 is_stmt 1              @ ../../Library/StdDriver/src/clk.c:1188:5
	bx	lr
.Ltmp248:
.LBB28_6:
	@DEBUG_VALUE: CLK_GetModuleClockSource:u32ModuleIdx <- [DW_OP_LLVM_entry_value 1] $r0
	@DEBUG_VALUE: CLK_GetModuleClockSource:u32TmpVal <- 0
	@DEBUG_VALUE: CLK_GetModuleClockSource:u32TmpAddr <- 0
	.loc	8 0 5 is_stmt 0                 @ ../../Library/StdDriver/src/clk.c:0:5
	ldr	r0, __arm_cp.28_1
.Ltmp249:
	.loc	8 1169 28 is_stmt 1             @ ../../Library/StdDriver/src/clk.c:1169:28
	ldr	r0, [r0]
	.loc	8 1169 64 is_stmt 0             @ ../../Library/StdDriver/src/clk.c:1169:64
	lsls	r0, r0, #30
	lsrs	r0, r0, #31
.Ltmp250:
	@DEBUG_VALUE: CLK_GetModuleClockSource:u32TmpVal <- $r0
	@DEBUG_VALUE: CLK_GetModuleClockSource:u32TmpVal <- $r0
	.loc	8 1188 5 is_stmt 1              @ ../../Library/StdDriver/src/clk.c:1188:5
	bx	lr
.Ltmp251:
.LBB28_7:
	@DEBUG_VALUE: CLK_GetModuleClockSource:u32ModuleIdx <- [DW_OP_LLVM_entry_value 1] $r0
	@DEBUG_VALUE: CLK_GetModuleClockSource:u32TmpVal <- 0
	@DEBUG_VALUE: CLK_GetModuleClockSource:u32TmpAddr <- 0
	.loc	8 0 5 is_stmt 0                 @ ../../Library/StdDriver/src/clk.c:0:5
	ldr	r0, __arm_cp.28_1
.Ltmp252:
	.loc	8 1173 28 is_stmt 1             @ ../../Library/StdDriver/src/clk.c:1173:28
	ldr	r0, [r0]
	.loc	8 1173 64 is_stmt 0             @ ../../Library/StdDriver/src/clk.c:1173:64
	lsls	r0, r0, #23
	lsrs	r0, r0, #31
.Ltmp253:
	@DEBUG_VALUE: CLK_GetModuleClockSource:u32TmpVal <- $r0
	@DEBUG_VALUE: CLK_GetModuleClockSource:u32TmpVal <- $r0
	.loc	8 1188 5 is_stmt 1              @ ../../Library/StdDriver/src/clk.c:1188:5
	bx	lr
.Ltmp254:
.LBB28_8:
	@DEBUG_VALUE: CLK_GetModuleClockSource:u32ModuleIdx <- [DW_OP_LLVM_entry_value 1] $r0
	@DEBUG_VALUE: CLK_GetModuleClockSource:u32TmpVal <- 0
	@DEBUG_VALUE: CLK_GetModuleClockSource:u32TmpAddr <- 0
	.loc	8 0 5 is_stmt 0                 @ ../../Library/StdDriver/src/clk.c:0:5
	ldr	r0, __arm_cp.28_1
.Ltmp255:
	.loc	8 1177 28 is_stmt 1             @ ../../Library/StdDriver/src/clk.c:1177:28
	ldr	r0, [r0]
	.loc	8 1177 64 is_stmt 0             @ ../../Library/StdDriver/src/clk.c:1177:64
	lsls	r0, r0, #22
	lsrs	r0, r0, #31
.Ltmp256:
	@DEBUG_VALUE: CLK_GetModuleClockSource:u32TmpVal <- $r0
	@DEBUG_VALUE: CLK_GetModuleClockSource:u32TmpVal <- $r0
	.loc	8 1188 5 is_stmt 1              @ ../../Library/StdDriver/src/clk.c:1188:5
	bx	lr
.Ltmp257:
.LBB28_9:
	@DEBUG_VALUE: CLK_GetModuleClockSource:u32ModuleIdx <- $r0
	@DEBUG_VALUE: CLK_GetModuleClockSource:u32TmpVal <- 0
	@DEBUG_VALUE: CLK_GetModuleClockSource:u32TmpAddr <- 0
	.loc	8 0 5 is_stmt 0                 @ ../../Library/StdDriver/src/clk.c:0:5
	movs	r0, #0
.Ltmp258:
	@DEBUG_VALUE: CLK_GetModuleClockSource:u32ModuleIdx <- [DW_OP_LLVM_entry_value 1] $r0
	@DEBUG_VALUE: CLK_GetModuleClockSource:u32TmpVal <- $r0
	.loc	8 1188 5                        @ ../../Library/StdDriver/src/clk.c:1188:5
	bx	lr
.Ltmp259:
	.p2align	2
@ %bb.10:
	.loc	8 0 5                           @ ../../Library/StdDriver/src/clk.c:0:5
__arm_cp.28_0:
	.long	2147483632                      @ 0x7ffffff0
.Lcpi_end61:
	.size	__arm_cp.28_0, .Lcpi_end61-__arm_cp.28_0
__arm_cp.28_1:
	.long	1073742360                      @ 0x40000218
.Lcpi_end62:
	.size	__arm_cp.28_1, .Lcpi_end62-__arm_cp.28_1
.LCPI28_2:
.L__const.CLK_GetModuleClockSource.au32SelTbl:
	.long	0                               @ 0x0
	.long	4                               @ 0x4
	.long	8                               @ 0x8
	.long	12                              @ 0xc
.Lfunc_end28:
	.size	CLK_GetModuleClockSource, .Lfunc_end28-CLK_GetModuleClockSource
	.cfi_endproc
	.cantunwind
	.fnend
                                        @ -- End function
	.section	.text.CLK_GetModuleClockDivider,"ax",%progbits
	.hidden	CLK_GetModuleClockDivider       @ -- Begin function CLK_GetModuleClockDivider
	.globl	CLK_GetModuleClockDivider
	.p2align	2
	.type	CLK_GetModuleClockDivider,%function
	.code	16                              @ @CLK_GetModuleClockDivider
	.thumb_func
CLK_GetModuleClockDivider:
.Lfunc_begin29:
	.loc	8 1214 0 is_stmt 1              @ ../../Library/StdDriver/src/clk.c:1214:0
	.fnstart
	.cfi_startproc
@ %bb.0:
	@DEBUG_VALUE: CLK_GetModuleClockDivider:u32ModuleIdx <- $r0
	@DEBUG_VALUE: CLK_GetModuleClockDivider:u32ModuleIdx <- $r0
	@DEBUG_VALUE: CLK_GetModuleClockDivider:u32TmpVal <- 0
	@DEBUG_VALUE: CLK_GetModuleClockDivider:u32TmpAddr <- 0
	.loc	8 1218 8 prologue_end           @ ../../Library/StdDriver/src/clk.c:1218:8
	lsrs	r1, r0, #10
	uxtb	r1, r1
.Ltmp260:
	.loc	8 1218 8 is_stmt 0              @ ../../Library/StdDriver/src/clk.c:1218:8
	cbz	r1, .LBB29_2
.Ltmp261:
@ %bb.1:
	@DEBUG_VALUE: CLK_GetModuleClockDivider:u32ModuleIdx <- $r0
	@DEBUG_VALUE: CLK_GetModuleClockDivider:u32TmpAddr <- 0
	@DEBUG_VALUE: CLK_GetModuleClockDivider:u32TmpVal <- 0
	.loc	8 1223 90 is_stmt 1             @ ../../Library/StdDriver/src/clk.c:1223:90
	lsls	r2, r0, #22
	lsrs	r2, r2, #27
	.loc	8 1223 87 is_stmt 0             @ ../../Library/StdDriver/src/clk.c:1223:87
	lsls	r1, r2
	.loc	8 1221 49 is_stmt 1             @ ../../Library/StdDriver/src/clk.c:1221:49
	lsrs	r0, r0, #16
.Ltmp262:
	@DEBUG_VALUE: CLK_GetModuleClockDivider:u32ModuleIdx <- [DW_OP_LLVM_entry_value 1] $r0
	.loc	8 0 49 is_stmt 0                @ ../../Library/StdDriver/src/clk.c:0:49
	movs	r3, #12
	.loc	8 1221 49                       @ ../../Library/StdDriver/src/clk.c:1221:49
	ands	r3, r0
	adr	r0, .LCPI29_0
	ldr	r0, [r0, r3]
	ldr	r3, __arm_cp.29_1
.Ltmp263:
	@DEBUG_VALUE: CLK_GetModuleClockDivider:u32TmpAddr <- [DW_OP_plus_uconst 1073742368, DW_OP_stack_value] $r0
	.loc	8 1223 23 is_stmt 1             @ ../../Library/StdDriver/src/clk.c:1223:23
	ldr	r0, [r0, r3]
.Ltmp264:
	.loc	8 1223 52 is_stmt 0             @ ../../Library/StdDriver/src/clk.c:1223:52
	ands	r0, r1
	.loc	8 1223 124                      @ ../../Library/StdDriver/src/clk.c:1223:124
	lsrs	r0, r2
.Ltmp265:
	@DEBUG_VALUE: CLK_GetModuleClockDivider:u32TmpVal <- $r0
	@DEBUG_VALUE: CLK_GetModuleClockDivider:u32TmpVal <- $r0
	.loc	8 1226 5 is_stmt 1              @ ../../Library/StdDriver/src/clk.c:1226:5
	bx	lr
.Ltmp266:
.LBB29_2:
	@DEBUG_VALUE: CLK_GetModuleClockDivider:u32ModuleIdx <- $r0
	@DEBUG_VALUE: CLK_GetModuleClockDivider:u32TmpAddr <- 0
	@DEBUG_VALUE: CLK_GetModuleClockDivider:u32TmpVal <- 0
	.loc	8 0 5 is_stmt 0                 @ ../../Library/StdDriver/src/clk.c:0:5
	movs	r0, #0
.Ltmp267:
	@DEBUG_VALUE: CLK_GetModuleClockDivider:u32ModuleIdx <- [DW_OP_LLVM_entry_value 1] $r0
	@DEBUG_VALUE: CLK_GetModuleClockDivider:u32TmpVal <- $r0
	.loc	8 1226 5                        @ ../../Library/StdDriver/src/clk.c:1226:5
	bx	lr
.Ltmp268:
	.p2align	2
@ %bb.3:
	.loc	8 0 5                           @ ../../Library/StdDriver/src/clk.c:0:5
.LCPI29_0:
.L__const.CLK_GetModuleClockDivider.au32DivTbl:
	.long	0                               @ 0x0
	.long	4                               @ 0x4
	.long	8                               @ 0x8
	.long	16                              @ 0x10
__arm_cp.29_1:
	.long	1073742368                      @ 0x40000220
.Lcpi_end63:
	.size	__arm_cp.29_1, .Lcpi_end63-__arm_cp.29_1
.Lfunc_end29:
	.size	CLK_GetModuleClockDivider, .Lfunc_end29-CLK_GetModuleClockDivider
	.cfi_endproc
	.cantunwind
	.fnend
                                        @ -- End function
	.section	".note.GNU-stack","",%progbits
	.eabi_attribute	30, 1	@ Tag_ABI_optimization_goals
	.ARM_attribute	16, 1	@ Tag_AV_eba