	.text
	.syntax unified
	.eabi_attribute	67, "2.09"	@ Tag_conformance
	.cpu	cortex-m23
	.eabi_attribute	6, 16	@ Tag_CPU_arch
	.eabi_attribute	7, 77	@ Tag_CPU_arch_profile
	.eabi_attribute	8, 0	@ Tag_ARM_ISA_use
	.eabi_attribute	9, 3	@ Tag_THUMB_ISA_use
	.eabi_attribute	34, 0	@ Tag_CPU_unaligned_access
	.eabi_attribute	17, 1	@ Tag_ABI_PCS_GOT_use
	.eabi_attribute	20, 2	@ Tag_ABI_FP_denormal
	.eabi_attribute	21, 0	@ Tag_ABI_FP_exceptions
	.eabi_attribute	23, 1	@ Tag_ABI_FP_number_model
	.eabi_attribute	24, 1	@ Tag_ABI_align_needed
	.eabi_attribute	25, 1	@ Tag_ABI_align_preserved
	.eabi_attribute	38, 1	@ Tag_ABI_FP_16bit_format
	.eabi_attribute	18, 4	@ Tag_ABI_PCS_wchar_t
	.eabi_attribute	26, 2	@ Tag_ABI_enum_size
	.eabi_attribute	14, 0	@ Tag_ABI_PCS_R9_use
	.file	"DEV_Config.c"
	.file	1 "C:\\" "Keil_v5\\ARM\\ARMCLANG\\Bin\\..\\include\\stdint.h"
	.file	2 "C:\\Users\\shw26\\OneDrive\\Desktop\\2021\\2021-1\\\354\272\241\354\212\244\355\206\244\353\224\224\354\236\220\354\235\2702\\Nuvoton\\M2351_BSP_v3.00.004\\M2351Series_BSP_CMSIS_V3.00.004\\MyProject\\PulseMonitoring\\NonSecure" "../../../Library/Device/Nuvoton/M2351/Include/spi_reg.h"
	.file	3 "C:\\Users\\shw26\\OneDrive\\Desktop\\2021\\2021-1\\\354\272\241\354\212\244\355\206\244\353\224\224\354\236\220\354\235\2702\\Nuvoton\\M2351_BSP_v3.00.004\\M2351Series_BSP_CMSIS_V3.00.004\\MyProject\\PulseMonitoring\\NonSecure" "../../../Library/CMSIS/Include\\core_armv8mbl.h"
	.section	.text.System_Init,"ax",%progbits
	.hidden	System_Init                     @ -- Begin function System_Init
	.globl	System_Init
	.p2align	1
	.type	System_Init,%function
	.code	16                              @ @System_Init
	.thumb_func
System_Init:
.Lfunc_begin0:
	.file	4 "C:\\Users\\shw26\\OneDrive\\Desktop\\2021\\2021-1\\\354\272\241\354\212\244\355\206\244\353\224\224\354\236\220\354\235\2702\\Nuvoton\\M2351_BSP_v3.00.004\\M2351Series_BSP_CMSIS_V3.00.004\\MyProject\\PulseMonitoring\\NonSecure" "SSD1327/DEV_Config.c"
	.loc	4 28 0                          @ SSD1327/DEV_Config.c:28:0
	.fnstart
	.cfi_sections .debug_frame
	.cfi_startproc
@ %bb.0:
	movs	r0, #0
.Ltmp0:
	.loc	4 37 5 prologue_end             @ SSD1327/DEV_Config.c:37:5
	bx	lr
.Ltmp1:
.Lfunc_end0:
	.size	System_Init, .Lfunc_end0-System_Init
	.cfi_endproc
	.cantunwind
	.fnend
                                        @ -- End function
	.section	.text.System_Exit,"ax",%progbits
	.hidden	System_Exit                     @ -- Begin function System_Exit
	.globl	System_Exit
	.p2align	1
	.type	System_Exit,%function
	.code	16                              @ @System_Exit
	.thumb_func
System_Exit:
.Lfunc_begin1:
	.loc	4 41 0                          @ SSD1327/DEV_Config.c:41:0
	.fnstart
	.cfi_startproc
@ %bb.0:
	.loc	4 43 1 prologue_end             @ SSD1327/DEV_Config.c:43:1
	bx	lr
.Ltmp2:
.Lfunc_end1:
	.size	System_Exit, .Lfunc_end1-System_Exit
	.cfi_endproc
	.cantunwind
	.fnend
                                        @ -- End function
	.section	.text.SPI4W_Write_Byte,"ax",%progbits
	.hidden	SPI4W_Write_Byte                @ -- Begin function SPI4W_Write_Byte
	.globl	SPI4W_Write_Byte
	.p2align	2
	.type	SPI4W_Write_Byte,%function
	.code	16                              @ @SPI4W_Write_Byte
	.thumb_func
SPI4W_Write_Byte:
.Lfunc_begin2:
	.loc	4 55 0                          @ SSD1327/DEV_Config.c:55:0
	.fnstart
	.cfi_startproc
@ %bb.0:
	.pad	#4
	sub	sp, #4
	.cfi_def_cfa_offset 4
	mov	r1, r0
	mov	r2, sp
	strb	r0, [r2]
.Ltmp3:
	.loc	4 56 3 prologue_end             @ SSD1327/DEV_Config.c:56:3
	ldrb	r0, [r2]
	ldr	r2, __arm_cp.2_0
	str	r0, [r2]
	.loc	4 57 3                          @ SSD1327/DEV_Config.c:57:3
	b	.LBB2_1
.LBB2_1:                                @ =>This Inner Loop Header: Depth=1
	.loc	4 0 3 is_stmt 0                 @ SSD1327/DEV_Config.c:0:3
	ldr	r0, __arm_cp.2_1
	.loc	4 57 10                         @ SSD1327/DEV_Config.c:57:10
	ldr	r0, [r0]
	.loc	4 57 3                          @ SSD1327/DEV_Config.c:57:3
	lsls	r0, r0, #31
	cmp	r0, #0
	beq	.LBB2_3
	b	.LBB2_2
.LBB2_2:                                @   in Loop: Header=BB2_1 Depth=1
	b	.LBB2_1
.LBB2_3:
	.loc	4 59 1 is_stmt 1                @ SSD1327/DEV_Config.c:59:1
	add	sp, #4
	bx	lr
.Ltmp4:
	.p2align	2
@ %bb.4:
	.loc	4 0 1 is_stmt 0                 @ SSD1327/DEV_Config.c:0:1
__arm_cp.2_0:
	.long	1342578720                      @ 0x50062020
.Lcpi_end0:
	.size	__arm_cp.2_0, .Lcpi_end0-__arm_cp.2_0
__arm_cp.2_1:
	.long	1342578708                      @ 0x50062014
.Lcpi_end1:
	.size	__arm_cp.2_1, .Lcpi_end1-__arm_cp.2_1
.Lfunc_end2:
	.size	SPI4W_Write_Byte, .Lfunc_end2-SPI4W_Write_Byte
	.cfi_endproc
	.cantunwind
	.fnend
                                        @ -- End function
	.section	.text.Driver_Delay_ms,"ax",%progbits
	.hidden	Driver_Delay_ms                 @ -- Begin function Driver_Delay_ms
	.globl	Driver_Delay_ms
	.p2align	1
	.type	Driver_Delay_ms,%function
	.code	16                              @ @Driver_Delay_ms
	.thumb_func
Driver_Delay_ms:
.Lfunc_begin3:
	.loc	4 67 0 is_stmt 1                @ SSD1327/DEV_Config.c:67:0
	.fnstart
	.cfi_startproc
@ %bb.0:
	.save	{r7, lr}
	push	{r7, lr}
	.cfi_def_cfa_offset 8
	.cfi_offset lr, -4
	.cfi_offset r7, -8
	.pad	#8
	sub	sp, #8
	.cfi_def_cfa_offset 16
	str	r0, [sp, #4]
.Ltmp5:
	.loc	4 68 22 prologue_end            @ SSD1327/DEV_Config.c:68:22
	ldr	r0, [sp, #4]
	movw	r1, #1000
	.loc	4 68 26 is_stmt 0               @ SSD1327/DEV_Config.c:68:26
	muls	r1, r0, r1
	.loc	4 68 5                          @ SSD1327/DEV_Config.c:68:5
	mov	r0, r1
	bl	CLK_SysTickDelay
	.loc	4 69 1 is_stmt 1                @ SSD1327/DEV_Config.c:69:1
	add	sp, #8
	pop	{r7, pc}
.Ltmp6:
.Lfunc_end3:
	.size	Driver_Delay_ms, .Lfunc_end3-Driver_Delay_ms
	.cfi_endproc
	.cantunwind
	.fnend
                                        @ -- End function
	.section	.text.CLK_SysTickDelay,"ax",%progbits
	.p2align	2                               @ -- Begin function CLK_SysTickDelay
	.type	CLK_SysTickDelay,%function
	.code	16                              @ @CLK_SysTickDelay
	.thumb_func
CLK_SysTickDelay:
.Lfunc_begin4:
	.file	5 "C:\\Users\\shw26\\OneDrive\\Desktop\\2021\\2021-1\\\354\272\241\354\212\244\355\206\244\353\224\224\354\236\220\354\235\2702\\Nuvoton\\M2351_BSP_v3.00.004\\M2351Series_BSP_CMSIS_V3.00.004\\MyProject\\PulseMonitoring\\NonSecure" "../../../Library/StdDriver/inc\\clk.h"
	.loc	5 674 0                         @ ../../../Library/StdDriver/inc\clk.h:674:0
	.fnstart
	.cfi_startproc
@ %bb.0:
	.pad	#4
	sub	sp, #4
	.cfi_def_cfa_offset 4
	str	r0, [sp]
.Ltmp7:
	.loc	5 675 21 prologue_end           @ ../../../Library/StdDriver/inc\clk.h:675:21
	ldr	r0, [sp]
	.loc	5 675 26 is_stmt 0              @ ../../../Library/StdDriver/inc\clk.h:675:26
	ldr	r1, __arm_cp.4_0
	ldr	r1, [r1]
	.loc	5 675 24                        @ ../../../Library/StdDriver/inc\clk.h:675:24
	muls	r1, r0, r1
	ldr	r0, __arm_cp.4_1
	.loc	5 675 19                        @ ../../../Library/StdDriver/inc\clk.h:675:19
	str	r1, [r0]
	ldr	r0, __arm_cp.4_2
	movs	r1, #0
	.loc	5 676 19 is_stmt 1              @ ../../../Library/StdDriver/inc\clk.h:676:19
	str	r1, [r0]
	ldr	r0, __arm_cp.4_3
	movs	r1, #5
	.loc	5 677 19                        @ ../../../Library/StdDriver/inc\clk.h:677:19
	str	r1, [r0]
	.loc	5 680 5                         @ ../../../Library/StdDriver/inc\clk.h:680:5
	b	.LBB4_1
.LBB4_1:                                @ =>This Inner Loop Header: Depth=1
	.loc	5 0 5 is_stmt 0                 @ ../../../Library/StdDriver/inc\clk.h:0:5
	ldr	r0, __arm_cp.4_3
	.loc	5 680 21                        @ ../../../Library/StdDriver/inc\clk.h:680:21
	ldr	r0, [r0]
	.loc	5 680 5                         @ ../../../Library/StdDriver/inc\clk.h:680:5
	lsls	r0, r0, #15
	cmp	r0, #0
	bmi	.LBB4_3
	b	.LBB4_2
.LBB4_2:                                @   in Loop: Header=BB4_1 Depth=1
	b	.LBB4_1
.LBB4_3:
	.loc	5 0 5                           @ ../../../Library/StdDriver/inc\clk.h:0:5
	ldr	r0, __arm_cp.4_3
	movs	r1, #0
	.loc	5 685 19 is_stmt 1              @ ../../../Library/StdDriver/inc\clk.h:685:19
	str	r1, [r0]
	.loc	5 686 1                         @ ../../../Library/StdDriver/inc\clk.h:686:1
	add	sp, #4
	bx	lr
.Ltmp8:
	.p2align	2
@ %bb.4:
	.loc	5 0 1 is_stmt 0                 @ ../../../Library/StdDriver/inc\clk.h:0:1
__arm_cp.4_0:
	.long	CyclesPerUs
.Lcpi_end2:
	.size	__arm_cp.4_0, .Lcpi_end2-__arm_cp.4_0
__arm_cp.4_1:
	.long	3758153748                      @ 0xe000e014
.Lcpi_end3:
	.size	__arm_cp.4_1, .Lcpi_end3-__arm_cp.4_1
__arm_cp.4_2:
	.long	3758153752                      @ 0xe000e018
.Lcpi_end4:
	.size	__arm_cp.4_2, .Lcpi_end4-__arm_cp.4_2
__arm_cp.4_3:
	.long	3758153744                      @ 0xe000e010
.Lcpi_end5:
	.size	__arm_cp.4_3, .Lcpi_end5-__arm_cp.4_3
.Lfunc_end4:
	.size	CLK_SysTickDelay, .Lfunc_end4-CLK_SysTickDelay
	.cfi_endproc
	.cantunwind
	.fnend
                                        @ -- End function
	.section	.text.Driver_Delay_us,"ax",%progbits
	.hidden	Driver_Delay_us                 @ -- Begin function Driver_Delay_us
	.globl	Driver_Delay_us
	.p2align	1
	.type	Driver_Delay_us,%function
	.code	16                              @ @Driver_Delay_us
	.thumb_func
Driver_Delay_us:
.Lfunc_begin5:
	.loc	4 72 0 is_stmt 1                @ SSD1327/DEV_Config.c:72:0
	.fnstart
	.cfi_startproc
@ %bb.0:
	.pad	#8
	sub	sp, #8
	.cfi_def_cfa_offset 8
	str	r0, [sp, #4]
.Ltmp9:
	.loc	4 74 11 prologue_end            @ SSD1327/DEV_Config.c:74:11
	ldr	r0, [sp, #4]
	.loc	4 74 10 is_stmt 0               @ SSD1327/DEV_Config.c:74:10
	str	r0, [sp]
	.loc	4 74 9                          @ SSD1327/DEV_Config.c:74:9
	b	.LBB5_1
.LBB5_1:                                @ =>This Inner Loop Header: Depth=1
.Ltmp10:
	.loc	4 74 16                         @ SSD1327/DEV_Config.c:74:16
	ldr	r0, [sp]
.Ltmp11:
	.loc	4 74 5                          @ SSD1327/DEV_Config.c:74:5
	cmp	r0, #1
	blt	.LBB5_4
	b	.LBB5_2
.LBB5_2:                                @   in Loop: Header=BB5_1 Depth=1
	b	.LBB5_3
.LBB5_3:                                @   in Loop: Header=BB5_1 Depth=1
.Ltmp12:
	.loc	4 74 24                         @ SSD1327/DEV_Config.c:74:24
	ldr	r0, [sp]
	subs	r0, r0, #1
	str	r0, [sp]
	.loc	4 74 5                          @ SSD1327/DEV_Config.c:74:5
	b	.LBB5_1
.Ltmp13:
.LBB5_4:
	.loc	4 75 1 is_stmt 1                @ SSD1327/DEV_Config.c:75:1
	add	sp, #8
	bx	lr
.Ltmp14:
.Lfunc_end5:
	.size	Driver_Delay_us, .Lfunc_end5-Driver_Delay_us
	.cfi_endproc
	.cantunwind
	.fnend
                                        @ -- End function
	.section	".note.GNU-stack","",%progbits
	.eabi_attribute	30, 6	@ Tag_ABI_optimization_goals
	.ARM_attribute	16, 1	@ Tag_AV_eba