	.text
	.syntax unified
	.eabi_attribute	67, "2.09"	@ Tag_conformance
	.cpu	cortex-m23
	.eabi_attribute	6, 16	@ Tag_CPU_arch
	.eabi_attribute	7, 77	@ Tag_CPU_arch_profile
	.eabi_attribute	8, 0	@ Tag_ARM_ISA_use
	.eabi_attribute	9, 3	@ Tag_THUMB_ISA_use
	.eabi_attribute	34, 0	@ Tag_CPU_unaligned_access
	.eabi_attribute	17, 1	@ Tag_ABI_PCS_GOT_use
	.eabi_attribute	20, 2	@ Tag_ABI_FP_denormal
	.eabi_attribute	21, 0	@ Tag_ABI_FP_exceptions
	.eabi_attribute	23, 1	@ Tag_ABI_FP_number_model
	.eabi_attribute	24, 1	@ Tag_ABI_align_needed
	.eabi_attribute	25, 1	@ Tag_ABI_align_preserved
	.eabi_attribute	38, 1	@ Tag_ABI_FP_16bit_format
	.eabi_attribute	18, 4	@ Tag_ABI_PCS_wchar_t
	.eabi_attribute	26, 2	@ Tag_ABI_enum_size
	.eabi_attribute	14, 0	@ Tag_ABI_PCS_R9_use
	.file	"main_ns.c"
	.file	1 "C:\\" "Keil_v5\\ARM\\ARMCLANG\\Bin\\..\\include\\stdint.h"
	.file	2 "C:\\Users\\shw26\\OneDrive\\Desktop\\2021\\2021-1\\\354\272\241\354\212\244\355\206\244\353\224\224\354\236\220\354\235\2702\\Nuvoton\\M2351_BSP_v3.00.004\\M2351Series_BSP_CMSIS_V3.00.004\\MyProject\\PulseMonitoring\\NonSecure" "main_ns.c"
	.file	3 "C:\\Users\\shw26\\OneDrive\\Desktop\\2021\\2021-1\\\354\272\241\354\212\244\355\206\244\353\224\224\354\236\220\354\235\2702\\Nuvoton\\M2351_BSP_v3.00.004\\M2351Series_BSP_CMSIS_V3.00.004\\MyProject\\PulseMonitoring\\NonSecure" "../../../Library/Device/Nuvoton/M2351/Include\\M2351.h"
	.file	4 "C:\\Users\\shw26\\OneDrive\\Desktop\\2021\\2021-1\\\354\272\241\354\212\244\355\206\244\353\224\224\354\236\220\354\235\2702\\Nuvoton\\M2351_BSP_v3.00.004\\M2351Series_BSP_CMSIS_V3.00.004\\MyProject\\PulseMonitoring\\NonSecure" "../../../Library/CMSIS/Include\\core_armv8mbl.h"
	.section	.text.Control_SW3,"ax",%progbits
	.hidden	Control_SW3                     @ -- Begin function Control_SW3
	.globl	Control_SW3
	.p2align	2
	.type	Control_SW3,%function
	.code	16                              @ @Control_SW3
	.thumb_func
Control_SW3:
.Lfunc_begin0:
	.loc	2 30 0                          @ main_ns.c:30:0
	.fnstart
	.cfi_sections .debug_frame
	.cfi_startproc
@ %bb.0:
	.save	{r7, lr}
	push	{r7, lr}
	.cfi_def_cfa_offset 8
	.cfi_offset lr, -4
	.cfi_offset r7, -8
	.pad	#56
	sub	sp, #56
	.cfi_def_cfa_offset 64
	movs	r0, #0
.Ltmp0:
	.loc	2 31 6 prologue_end             @ main_ns.c:31:6
	str	r0, [sp, #52]
	movs	r1, #1
	movs	r2, #8
	.loc	2 34 9                          @ main_ns.c:34:9
	str	r0, [sp, #32]                   @ 4-byte Spill
	mov	r0, r1
	str	r1, [sp, #28]                   @ 4-byte Spill
	mov	r1, r2
	str	r2, [sp, #24]                   @ 4-byte Spill
	bl	calloc
	.loc	2 34 7 is_stmt 0                @ main_ns.c:34:7
	str	r0, [sp, #48]
	movs	r0, #33
	.loc	2 35 16 is_stmt 1               @ main_ns.c:35:16
	str	r0, [sp, #20]                   @ 4-byte Spill
	ldr	r1, [sp, #28]                   @ 4-byte Reload
	bl	calloc
	.loc	2 35 3 is_stmt 0                @ main_ns.c:35:3
	ldr	r1, [sp, #48]
	.loc	2 35 14                         @ main_ns.c:35:14
	str	r0, [r1]
	.loc	2 36 3 is_stmt 1                @ main_ns.c:36:3
	ldr	r0, [sp, #48]
	.loc	2 36 13 is_stmt 0               @ main_ns.c:36:13
	ldr	r1, [sp, #32]                   @ 4-byte Reload
	str	r1, [r0, #4]
	ldr	r0, __arm_cp.0_0
	.loc	2 40 13 is_stmt 1               @ main_ns.c:40:13
	str	r0, [sp, #44]
	ldr	r0, __arm_cp.0_1
	str	r0, [sp, #40]
	add	r0, sp, #40
	.loc	2 42 14                         @ main_ns.c:42:14
	str	r0, [sp, #16]                   @ 4-byte Spill
	bl	strlen
	.loc	2 42 2 is_stmt 0                @ main_ns.c:42:2
	ldr	r1, [sp, #48]
	.loc	2 42 12                         @ main_ns.c:42:12
	str	r0, [r1, #4]
	.loc	2 43 9 is_stmt 1                @ main_ns.c:43:9
	ldr	r0, [sp, #48]
	.loc	2 43 15 is_stmt 0               @ main_ns.c:43:15
	ldr	r0, [r0]
	.loc	2 43 2                          @ main_ns.c:43:2
	ldr	r1, [sp, #16]                   @ 4-byte Reload
	bl	strcpy
	.loc	2 45 19 is_stmt 1               @ main_ns.c:45:19
	ldr	r1, [sp, #48]
	.loc	2 45 2 is_stmt 0                @ main_ns.c:45:2
	ldr	r2, [sp, #28]                   @ 4-byte Reload
	str	r0, [sp, #12]                   @ 4-byte Spill
	mov	r0, r2
	bl	WIFI_SendData
	.loc	2 47 7 is_stmt 1                @ main_ns.c:47:7
	ldr	r1, [sp, #48]
	.loc	2 47 13 is_stmt 0               @ main_ns.c:47:13
	ldr	r1, [r1]
	.loc	2 47 2                          @ main_ns.c:47:2
	str	r0, [sp, #8]                    @ 4-byte Spill
	mov	r0, r1
	bl	free
	.loc	2 48 7 is_stmt 1                @ main_ns.c:48:7
	ldr	r0, [sp, #48]
	.loc	2 48 2 is_stmt 0                @ main_ns.c:48:2
	bl	free
	.loc	2 50 20 is_stmt 1               @ main_ns.c:50:20
	ldr	r0, [sp, #24]                   @ 4-byte Reload
	bl	malloc
	.loc	2 50 14 is_stmt 0               @ main_ns.c:50:14
	str	r0, [sp, #36]
	.loc	2 51 15 is_stmt 1               @ main_ns.c:51:15
	ldr	r0, [sp, #20]                   @ 4-byte Reload
	bl	malloc
	.loc	2 51 3 is_stmt 0                @ main_ns.c:51:3
	ldr	r1, [sp, #36]
	.loc	2 51 13                         @ main_ns.c:51:13
	str	r0, [r1]
	.loc	2 52 4 is_stmt 1                @ main_ns.c:52:4
	ldr	r0, [sp, #36]
	.loc	2 52 9 is_stmt 0                @ main_ns.c:52:9
	ldr	r0, [r0]
	movs	r1, #32
	.loc	2 52 19                         @ main_ns.c:52:19
	ldr	r2, [sp, #32]                   @ 4-byte Reload
	strb	r2, [r0, r1]
	.loc	2 53 3 is_stmt 1                @ main_ns.c:53:3
	ldr	r0, [sp, #36]
	.loc	2 53 12 is_stmt 0               @ main_ns.c:53:12
	str	r2, [r0, #4]
	.loc	2 54 22 is_stmt 1               @ main_ns.c:54:22
	ldr	r1, [sp, #36]
	.loc	2 54 2 is_stmt 0                @ main_ns.c:54:2
	ldr	r0, [sp, #28]                   @ 4-byte Reload
	bl	WIFI_ReceiveData
	.loc	2 56 7 is_stmt 1                @ main_ns.c:56:7
	ldr	r1, [sp, #36]
	.loc	2 56 12 is_stmt 0               @ main_ns.c:56:12
	ldr	r1, [r1]
	.loc	2 56 2                          @ main_ns.c:56:2
	str	r0, [sp, #4]                    @ 4-byte Spill
	mov	r0, r1
	bl	free
	.loc	2 57 7 is_stmt 1                @ main_ns.c:57:7
	ldr	r0, [sp, #36]
	.loc	2 57 2 is_stmt 0                @ main_ns.c:57:2
	bl	free
	.loc	2 59 2 is_stmt 1                @ main_ns.c:59:2
	add	sp, #56
	pop	{r7, pc}
.Ltmp1:
	.p2align	2
@ %bb.1:
	.loc	2 0 2 is_stmt 0                 @ main_ns.c:0:2
__arm_cp.0_0:
	.long	3026543                         @ 0x2e2e6f
.Lcpi_end0:
	.size	__arm_cp.0_0, .Lcpi_end0-__arm_cp.0_0
__arm_cp.0_1:
	.long	1819043144                      @ 0x6c6c6548
.Lcpi_end1:
	.size	__arm_cp.0_1, .Lcpi_end1-__arm_cp.0_1
.Lfunc_end0:
	.size	Control_SW3, .Lfunc_end0-Control_SW3
	.cfi_endproc
	.cantunwind
	.fnend
                                        @ -- End function
	.section	.text.SysTick_Handler,"ax",%progbits
	.hidden	SysTick_Handler                 @ -- Begin function SysTick_Handler
	.globl	SysTick_Handler
	.p2align	2
	.type	SysTick_Handler,%function
	.code	16                              @ @SysTick_Handler
	.thumb_func
SysTick_Handler:
.Lfunc_begin1:
	.loc	2 66 0 is_stmt 1                @ main_ns.c:66:0
	.fnstart
	.cfi_startproc
@ %bb.0:
	.pad	#4
	sub	sp, #4
	.cfi_def_cfa_offset 4
.Ltmp2:
	.loc	2 69 19 prologue_end            @ main_ns.c:69:19
	ldr	r0, __arm_cp.1_0
	ldr	r1, [r0]
	adds	r2, r1, #1
	str	r2, [r0]
	.loc	2 69 4 is_stmt 0                @ main_ns.c:69:4
	cmp	r1, #0
	str	r1, [sp]                        @ 4-byte Spill
	beq	.LBB1_7
	b	.LBB1_1
.LBB1_1:
	ldr	r0, [sp]                        @ 4-byte Reload
	cmp	r0, #100
	beq	.LBB1_8
	b	.LBB1_2
.LBB1_2:
	ldr	r0, [sp]                        @ 4-byte Reload
	cmp	r0, #200
	beq	.LBB1_9
	b	.LBB1_3
.LBB1_3:
	.loc	2 0 4                           @ main_ns.c:0:4
	movw	r0, #300
	.loc	2 69 4                          @ main_ns.c:69:4
	ldr	r1, [sp]                        @ 4-byte Reload
	cmp	r1, r0
	beq	.LBB1_10
	b	.LBB1_4
.LBB1_4:
	.loc	2 0 4                           @ main_ns.c:0:4
	movw	r0, #400
	.loc	2 69 4                          @ main_ns.c:69:4
	ldr	r1, [sp]                        @ 4-byte Reload
	cmp	r1, r0
	beq	.LBB1_11
	b	.LBB1_5
.LBB1_5:
	.loc	2 0 4                           @ main_ns.c:0:4
	movw	r0, #500
	.loc	2 69 4                          @ main_ns.c:69:4
	ldr	r1, [sp]                        @ 4-byte Reload
	cmp	r1, r0
	beq	.LBB1_12
	b	.LBB1_6
.LBB1_6:
	.loc	2 0 4                           @ main_ns.c:0:4
	movw	r0, #600
	.loc	2 69 4                          @ main_ns.c:69:4
	ldr	r1, [sp]                        @ 4-byte Reload
	cmp	r1, r0
	beq	.LBB1_13
	b	.LBB1_14
.LBB1_7:
.Ltmp3:
	.loc	2 72 8 is_stmt 1                @ main_ns.c:72:8
	b	.LBB1_17
.LBB1_8:
	.loc	2 74 8                          @ main_ns.c:74:8
	b	.LBB1_17
.LBB1_9:
	.loc	2 76 8                          @ main_ns.c:76:8
	b	.LBB1_17
.LBB1_10:
	.loc	2 78 8                          @ main_ns.c:78:8
	b	.LBB1_17
.LBB1_11:
	.loc	2 80 8                          @ main_ns.c:80:8
	b	.LBB1_17
.LBB1_12:
	.loc	2 82 8                          @ main_ns.c:82:8
	b	.LBB1_17
.LBB1_13:
	.loc	2 84 17                         @ main_ns.c:84:17
	ldr	r0, __arm_cp.1_0
	movs	r1, #0
	str	r1, [r0]
	.loc	2 85 8                          @ main_ns.c:85:8
	b	.LBB1_17
.LBB1_14:
.Ltmp4:
	.loc	2 87 16                         @ main_ns.c:87:16
	ldr	r0, __arm_cp.1_0
	ldr	r0, [r0]
	ldr	r1, __arm_cp.1_1
.Ltmp5:
	.loc	2 87 16 is_stmt 0               @ main_ns.c:87:16
	cmp	r0, r1
	blo	.LBB1_16
	b	.LBB1_15
.LBB1_15:
.Ltmp6:
	.loc	2 89 26 is_stmt 1               @ main_ns.c:89:26
	ldr	r0, __arm_cp.1_0
	movs	r1, #0
	str	r1, [r0]
	.loc	2 90 13                         @ main_ns.c:90:13
	b	.LBB1_16
.Ltmp7:
.LBB1_16:
	.loc	2 91 5                          @ main_ns.c:91:5
	b	.LBB1_17
.Ltmp8:
.LBB1_17:
	.loc	2 92 1                          @ main_ns.c:92:1
	add	sp, #4
	bx	lr
.Ltmp9:
	.p2align	2
@ %bb.18:
	.loc	2 0 1 is_stmt 0                 @ main_ns.c:0:1
__arm_cp.1_0:
	.long	SysTick_Handler.u32Ticks
.Lcpi_end2:
	.size	__arm_cp.1_0, .Lcpi_end2-__arm_cp.1_0
__arm_cp.1_1:
	.long	601                             @ 0x259
.Lcpi_end3:
	.size	__arm_cp.1_1, .Lcpi_end3-__arm_cp.1_1
.Lfunc_end1:
	.size	SysTick_Handler, .Lfunc_end1-SysTick_Handler
	.cfi_endproc
	.cantunwind
	.fnend
                                        @ -- End function
	.section	.text.main,"ax",%progbits
	.hidden	main                            @ -- Begin function main
	.globl	main
	.p2align	2
	.type	main,%function
	.code	16                              @ @main
	.thumb_func
main:
.Lfunc_begin2:
	.loc	2 98 0 is_stmt 1                @ main_ns.c:98:0
	.fnstart
	.cfi_startproc
@ %bb.0:
	.save	{r7, lr}
	push	{r7, lr}
	.cfi_def_cfa_offset 8
	.cfi_offset lr, -4
	.cfi_offset r7, -8
	.pad	#240
	sub	sp, #240
	.cfi_def_cfa_offset 248
	movs	r0, #0
	str	r0, [sp, #236]
.Ltmp10:
	.loc	2 99 12 prologue_end            @ main_ns.c:99:12
	str	r0, [sp, #232]
	.loc	2 100 11                        @ main_ns.c:100:11
	str	r0, [sp, #228]
	.loc	2 101 12                        @ main_ns.c:101:12
	str	r0, [sp, #224]
	add	r1, sp, #104
	movs	r2, #117
	.loc	2 103 3                         @ main_ns.c:103:3
	str	r0, [sp, #92]                   @ 4-byte Spill
	mov	r0, r1
	mov	r1, r2
	bl	__aeabi_memclr
	.loc	2 105 11                        @ main_ns.c:105:11
	ldr	r0, [sp, #92]                   @ 4-byte Reload
	str	r0, [sp, #100]
	.loc	2 106 11                        @ main_ns.c:106:11
	str	r0, [sp, #96]
	.loc	2 108 3                         @ main_ns.c:108:3
	ldr	r1, __arm_cp.2_0
	mov	r0, r1
	str	r1, [sp, #88]                   @ 4-byte Spill
	bl	printf
	.loc	2 109 5                         @ main_ns.c:109:5
	ldr	r1, __arm_cp.2_1
	str	r0, [sp, #84]                   @ 4-byte Spill
	mov	r0, r1
	str	r1, [sp, #80]                   @ 4-byte Spill
	bl	printf
	.loc	2 110 5                         @ main_ns.c:110:5
	ldr	r1, __arm_cp.2_2
	str	r0, [sp, #76]                   @ 4-byte Spill
	mov	r0, r1
	bl	printf
	.loc	2 111 5                         @ main_ns.c:111:5
	ldr	r1, [sp, #80]                   @ 4-byte Reload
	str	r0, [sp, #72]                   @ 4-byte Spill
	mov	r0, r1
	bl	printf
	.loc	2 114 5                         @ main_ns.c:114:5
	ldr	r1, __arm_cp.2_3
	str	r0, [sp, #68]                   @ 4-byte Spill
	mov	r0, r1
	bl	Secure_OLED_On_callback
	.loc	2 118 23                        @ main_ns.c:118:23
	str	r0, [sp, #64]                   @ 4-byte Spill
	bl	GetSystemCoreClock
	.loc	2 118 21 is_stmt 0              @ main_ns.c:118:21
	ldr	r1, __arm_cp.2_4
	str	r0, [r1]
	.loc	2 121 20 is_stmt 1              @ main_ns.c:121:20
	ldr	r0, [r1]
	movs	r1, #100
	.loc	2 121 36 is_stmt 0              @ main_ns.c:121:36
	udiv	r0, r0, r1
	.loc	2 121 5                         @ main_ns.c:121:5
	bl	SysTick_Config
	.loc	2 124 3 is_stmt 1               @ main_ns.c:124:3
	ldr	r1, [sp, #88]                   @ 4-byte Reload
	str	r0, [sp, #60]                   @ 4-byte Spill
	mov	r0, r1
	bl	printf
	.loc	2 125 5                         @ main_ns.c:125:5
	ldr	r1, [sp, #80]                   @ 4-byte Reload
	str	r0, [sp, #56]                   @ 4-byte Spill
	mov	r0, r1
	bl	printf
	.loc	2 126 5                         @ main_ns.c:126:5
	ldr	r1, __arm_cp.2_5
	str	r0, [sp, #52]                   @ 4-byte Spill
	mov	r0, r1
	bl	printf
	.loc	2 127 5                         @ main_ns.c:127:5
	ldr	r1, [sp, #80]                   @ 4-byte Reload
	str	r0, [sp, #48]                   @ 4-byte Spill
	mov	r0, r1
	bl	printf
	.loc	2 129 3                         @ main_ns.c:129:3
	str	r0, [sp, #44]                   @ 4-byte Spill
	bl	OLED_Config
	.loc	2 131 5                         @ main_ns.c:131:5
	ldr	r0, [sp, #88]                   @ 4-byte Reload
	bl	printf
	.loc	2 132 5                         @ main_ns.c:132:5
	ldr	r1, [sp, #80]                   @ 4-byte Reload
	str	r0, [sp, #40]                   @ 4-byte Spill
	mov	r0, r1
	bl	printf
	.loc	2 133 5                         @ main_ns.c:133:5
	ldr	r1, __arm_cp.2_6
	str	r0, [sp, #36]                   @ 4-byte Spill
	mov	r0, r1
	bl	printf
	.loc	2 134 5                         @ main_ns.c:134:5
	ldr	r1, [sp, #80]                   @ 4-byte Reload
	str	r0, [sp, #32]                   @ 4-byte Spill
	mov	r0, r1
	bl	printf
	.loc	2 136 3                         @ main_ns.c:136:3
	str	r0, [sp, #28]                   @ 4-byte Spill
	bl	WIFI_Connect
	.loc	2 138 3                         @ main_ns.c:138:3
	b	.LBB2_1
.LBB2_1:                                @ =>This Loop Header: Depth=1
                                        @     Child Loop BB2_3 Depth 2
                                        @     Child Loop BB2_11 Depth 2
	.loc	2 0 3 is_stmt 0                 @ main_ns.c:0:3
	ldr	r0, __arm_cp.2_7
.Ltmp11:
	.loc	2 141 7 is_stmt 1               @ main_ns.c:141:7
	ldr	r0, [r0]
.Ltmp12:
	.loc	2 141 7 is_stmt 0               @ main_ns.c:141:7
	cmp	r0, #0
	bne	.LBB2_9
	b	.LBB2_2
.LBB2_2:                                @   in Loop: Header=BB2_1 Depth=1
.Ltmp13:
	.loc	2 143 5 is_stmt 1               @ main_ns.c:143:5
	b	.LBB2_3
.LBB2_3:                                @   Parent Loop BB2_1 Depth=1
                                        @ =>  This Inner Loop Header: Depth=2
	.loc	2 0 5 is_stmt 0                 @ main_ns.c:0:5
	ldr	r0, __arm_cp.2_7
	.loc	2 143 11                        @ main_ns.c:143:11
	ldr	r0, [r0]
	.loc	2 143 5                         @ main_ns.c:143:5
	cmp	r0, #0
	bne	.LBB2_5
	b	.LBB2_4
.LBB2_4:                                @   in Loop: Header=BB2_3 Depth=2
	b	.LBB2_3
.LBB2_5:                                @   in Loop: Header=BB2_1 Depth=1
	.loc	2 144 19 is_stmt 1              @ main_ns.c:144:19
	ldr	r0, [sp, #100]
	.loc	2 144 18 is_stmt 0              @ main_ns.c:144:18
	rsbs	r1, r0, #0
	adcs	r0, r1
	.loc	2 144 16                        @ main_ns.c:144:16
	str	r0, [sp, #100]
	.loc	2 145 5 is_stmt 1               @ main_ns.c:145:5
	ldr	r0, __arm_cp.2_8
	bl	printf
.Ltmp14:
	.loc	2 147 8                         @ main_ns.c:147:8
	ldr	r1, [sp, #100]
.Ltmp15:
	.loc	2 147 8 is_stmt 0               @ main_ns.c:147:8
	cmp	r1, #0
	beq	.LBB2_7
	b	.LBB2_6
.LBB2_6:                                @   in Loop: Header=BB2_1 Depth=1
	.loc	2 0 8                           @ main_ns.c:0:8
	movs	r0, #0
.Ltmp16:
	.loc	2 149 15 is_stmt 1              @ main_ns.c:149:15
	str	r0, [sp, #96]
	.loc	2 150 6                         @ main_ns.c:150:6
	ldr	r0, __arm_cp.2_10
	bl	printf
	.loc	2 151 6                         @ main_ns.c:151:6
	str	r0, [sp, #24]                   @ 4-byte Spill
	bl	M2351_LoadKey
	.loc	2 152 6                         @ main_ns.c:152:6
	bl	OLED_Background_On
	.loc	2 153 5                         @ main_ns.c:153:5
	b	.LBB2_8
.Ltmp17:
.LBB2_7:                                @   in Loop: Header=BB2_1 Depth=1
	.loc	2 156 6                         @ main_ns.c:156:6
	ldr	r0, __arm_cp.2_9
	bl	printf
	.loc	2 157 6                         @ main_ns.c:157:6
	str	r0, [sp, #20]                   @ 4-byte Spill
	bl	M2351_DeleteKey
	.loc	2 158 6                         @ main_ns.c:158:6
	bl	OLED_Off
	b	.LBB2_8
.Ltmp18:
.LBB2_8:                                @   in Loop: Header=BB2_1 Depth=1
	.loc	2 160 4                         @ main_ns.c:160:4
	b	.LBB2_9
.Ltmp19:
.LBB2_9:                                @   in Loop: Header=BB2_1 Depth=1
	.loc	2 0 4 is_stmt 0                 @ main_ns.c:0:4
	ldr	r0, __arm_cp.2_11
.Ltmp20:
	.loc	2 162 7 is_stmt 1               @ main_ns.c:162:7
	ldr	r0, [r0]
.Ltmp21:
	.loc	2 162 7 is_stmt 0               @ main_ns.c:162:7
	cmp	r0, #0
	bne	.LBB2_14
	b	.LBB2_10
.LBB2_10:                               @   in Loop: Header=BB2_1 Depth=1
.Ltmp22:
	.loc	2 164 5 is_stmt 1               @ main_ns.c:164:5
	b	.LBB2_11
.LBB2_11:                               @   Parent Loop BB2_1 Depth=1
                                        @ =>  This Inner Loop Header: Depth=2
	.loc	2 0 5 is_stmt 0                 @ main_ns.c:0:5
	ldr	r0, __arm_cp.2_11
	.loc	2 164 11                        @ main_ns.c:164:11
	ldr	r0, [r0]
	.loc	2 164 5                         @ main_ns.c:164:5
	cmp	r0, #0
	bne	.LBB2_13
	b	.LBB2_12
.LBB2_12:                               @   in Loop: Header=BB2_11 Depth=2
	b	.LBB2_11
.LBB2_13:                               @   in Loop: Header=BB2_1 Depth=1
	.loc	2 165 5 is_stmt 1               @ main_ns.c:165:5
	ldr	r0, __arm_cp.2_12
	bl	printf
	.loc	2 166 5                         @ main_ns.c:166:5
	str	r0, [sp, #16]                   @ 4-byte Spill
	bl	Control_SW3
	.loc	2 167 4                         @ main_ns.c:167:4
	b	.LBB2_14
.Ltmp23:
.LBB2_14:                               @   in Loop: Header=BB2_1 Depth=1
	.loc	2 168 7                         @ main_ns.c:168:7
	ldr	r0, [sp, #100]
.Ltmp24:
	.loc	2 168 7 is_stmt 0               @ main_ns.c:168:7
	cmp	r0, #0
	beq	.LBB2_20
	b	.LBB2_15
.LBB2_15:                               @   in Loop: Header=BB2_1 Depth=1
	.loc	2 0 7                           @ main_ns.c:0:7
	add	r0, sp, #104
.Ltmp25:
	.loc	2 171 15 is_stmt 1              @ main_ns.c:171:15
	bl	Get_EncryptedDigitallySignedData
	.loc	2 171 13 is_stmt 0              @ main_ns.c:171:13
	str	r0, [sp, #228]
	.loc	2 172 13 is_stmt 1              @ main_ns.c:172:13
	ldr	r0, [sp, #96]
	adds	r0, r0, #1
	str	r0, [sp, #96]
.Ltmp26:
	.loc	2 173 9                         @ main_ns.c:173:9
	ldr	r0, [sp, #96]
.Ltmp27:
	.loc	2 173 9 is_stmt 0               @ main_ns.c:173:9
	cmp	r0, #60
	blt	.LBB2_19
	b	.LBB2_16
.LBB2_16:                               @   in Loop: Header=BB2_1 Depth=1
	.loc	2 0 9                           @ main_ns.c:0:9
	movs	r0, #0
.Ltmp28:
	.loc	2 175 15 is_stmt 1              @ main_ns.c:175:15
	str	r0, [sp, #96]
.Ltmp29:
	.loc	2 176 10                        @ main_ns.c:176:10
	ldr	r0, [sp, #228]
.Ltmp30:
	.loc	2 176 10 is_stmt 0              @ main_ns.c:176:10
	cmp	r0, #0
	beq	.LBB2_18
	b	.LBB2_17
.LBB2_17:                               @   in Loop: Header=BB2_1 Depth=1
.Ltmp31:
	.loc	2 178 7 is_stmt 1               @ main_ns.c:178:7
	ldr	r0, __arm_cp.2_13
	bl	printf
	add	r1, sp, #104
	.loc	2 179 7                         @ main_ns.c:179:7
	str	r0, [sp, #12]                   @ 4-byte Spill
	mov	r0, r1
	str	r1, [sp, #8]                    @ 4-byte Spill
	bl	printDigitallySignedData
	.loc	2 182 7                         @ main_ns.c:182:7
	ldr	r1, [sp, #8]                    @ 4-byte Reload
	str	r0, [sp, #4]                    @ 4-byte Spill
	mov	r0, r1
	bl	WIFI_Send_EncryptedDigitallySignedData
	.loc	2 183 6                         @ main_ns.c:183:6
	b	.LBB2_18
.Ltmp32:
.LBB2_18:                               @   in Loop: Header=BB2_1 Depth=1
	.loc	2 184 5                         @ main_ns.c:184:5
	b	.LBB2_19
.Ltmp33:
.LBB2_19:                               @   in Loop: Header=BB2_1 Depth=1
	.loc	2 185 4                         @ main_ns.c:185:4
	b	.LBB2_20
.Ltmp34:
.LBB2_20:                               @   in Loop: Header=BB2_1 Depth=1
	.loc	2 138 3                         @ main_ns.c:138:3
	b	.LBB2_1
.Ltmp35:
	.p2align	2
@ %bb.21:
	.loc	2 0 3 is_stmt 0                 @ main_ns.c:0:3
__arm_cp.2_0:
	.long	.L.str
.Lcpi_end4:
	.size	__arm_cp.2_0, .Lcpi_end4-__arm_cp.2_0
__arm_cp.2_1:
	.long	.L.str.1
.Lcpi_end5:
	.size	__arm_cp.2_1, .Lcpi_end5-__arm_cp.2_1
__arm_cp.2_2:
	.long	.L.str.2
.Lcpi_end6:
	.size	__arm_cp.2_2, .Lcpi_end6-__arm_cp.2_2
__arm_cp.2_3:
	.long	OLED_BPM
.Lcpi_end7:
	.size	__arm_cp.2_3, .Lcpi_end7-__arm_cp.2_3
__arm_cp.2_4:
	.long	SystemCoreClock
.Lcpi_end8:
	.size	__arm_cp.2_4, .Lcpi_end8-__arm_cp.2_4
__arm_cp.2_5:
	.long	.L.str.3
.Lcpi_end9:
	.size	__arm_cp.2_5, .Lcpi_end9-__arm_cp.2_5
__arm_cp.2_6:
	.long	.L.str.4
.Lcpi_end10:
	.size	__arm_cp.2_6, .Lcpi_end10-__arm_cp.2_6
__arm_cp.2_7:
	.long	1342195776                      @ 0x50004840
.Lcpi_end11:
	.size	__arm_cp.2_7, .Lcpi_end11-__arm_cp.2_7
__arm_cp.2_8:
	.long	.L.str.5
.Lcpi_end12:
	.size	__arm_cp.2_8, .Lcpi_end12-__arm_cp.2_8
__arm_cp.2_9:
	.long	.L.str.7
.Lcpi_end13:
	.size	__arm_cp.2_9, .Lcpi_end13-__arm_cp.2_9
__arm_cp.2_10:
	.long	.L.str.6
.Lcpi_end14:
	.size	__arm_cp.2_10, .Lcpi_end14-__arm_cp.2_10
__arm_cp.2_11:
	.long	1342195780                      @ 0x50004844
.Lcpi_end15:
	.size	__arm_cp.2_11, .Lcpi_end15-__arm_cp.2_11
__arm_cp.2_12:
	.long	.L.str.8
.Lcpi_end16:
	.size	__arm_cp.2_12, .Lcpi_end16-__arm_cp.2_12
__arm_cp.2_13:
	.long	.L.str.9
.Lcpi_end17:
	.size	__arm_cp.2_13, .Lcpi_end17-__arm_cp.2_13
.Lfunc_end2:
	.size	main, .Lfunc_end2-main
	.cfi_endproc
	.cantunwind
	.fnend
                                        @ -- End function
	.section	.text.SysTick_Config,"ax",%progbits
	.p2align	2                               @ -- Begin function SysTick_Config
	.type	SysTick_Config,%function
	.code	16                              @ @SysTick_Config
	.thumb_func
SysTick_Config:
.Lfunc_begin3:
	.loc	4 1820 0 is_stmt 1              @ ../../../Library/CMSIS/Include\core_armv8mbl.h:1820:0
	.fnstart
	.cfi_startproc
@ %bb.0:
	.save	{r7, lr}
	push	{r7, lr}
	.cfi_def_cfa_offset 8
	.cfi_offset lr, -4
	.cfi_offset r7, -8
	.pad	#16
	sub	sp, #16
	.cfi_def_cfa_offset 24
	str	r0, [sp, #8]
.Ltmp36:
	.loc	4 1821 8 prologue_end           @ ../../../Library/CMSIS/Include\core_armv8mbl.h:1821:8
	ldr	r0, [sp, #8]
	.loc	4 1821 14 is_stmt 0             @ ../../../Library/CMSIS/Include\core_armv8mbl.h:1821:14
	subs	r0, r0, #1
.Ltmp37:
	.loc	4 1821 7                        @ ../../../Library/CMSIS/Include\core_armv8mbl.h:1821:7
	lsrs	r0, r0, #24
	cmp	r0, #0
	beq	.LBB3_2
	b	.LBB3_1
.LBB3_1:
	.loc	4 0 7                           @ ../../../Library/CMSIS/Include\core_armv8mbl.h:0:7
	movs	r0, #1
.Ltmp38:
	.loc	4 1823 5 is_stmt 1              @ ../../../Library/CMSIS/Include\core_armv8mbl.h:1823:5
	str	r0, [sp, #12]
	b	.LBB3_3
.Ltmp39:
.LBB3_2:
	.loc	4 1826 31                       @ ../../../Library/CMSIS/Include\core_armv8mbl.h:1826:31
	ldr	r0, [sp, #8]
	.loc	4 1826 37 is_stmt 0             @ ../../../Library/CMSIS/Include\core_armv8mbl.h:1826:37
	subs	r0, r0, #1
	ldr	r1, __arm_cp.3_0
	.loc	4 1826 18                       @ ../../../Library/CMSIS/Include\core_armv8mbl.h:1826:18
	str	r0, [r1]
	movs	r0, #0
	mvns	r1, r0
	movs	r2, #3
	.loc	4 1827 3 is_stmt 1              @ ../../../Library/CMSIS/Include\core_armv8mbl.h:1827:3
	str	r0, [sp, #4]                    @ 4-byte Spill
	mov	r0, r1
	mov	r1, r2
	bl	__NVIC_SetPriority
	ldr	r0, __arm_cp.3_1
	.loc	4 1828 18                       @ ../../../Library/CMSIS/Include\core_armv8mbl.h:1828:18
	ldr	r1, [sp, #4]                    @ 4-byte Reload
	str	r1, [r0]
	ldr	r0, __arm_cp.3_2
	movs	r2, #7
	.loc	4 1829 18                       @ ../../../Library/CMSIS/Include\core_armv8mbl.h:1829:18
	str	r2, [r0]
	.loc	4 1832 3                        @ ../../../Library/CMSIS/Include\core_armv8mbl.h:1832:3
	str	r1, [sp, #12]
	b	.LBB3_3
.LBB3_3:
	.loc	4 1833 1                        @ ../../../Library/CMSIS/Include\core_armv8mbl.h:1833:1
	ldr	r0, [sp, #12]
	add	sp, #16
	pop	{r7, pc}
.Ltmp40:
	.p2align	2
@ %bb.4:
	.loc	4 0 1 is_stmt 0                 @ ../../../Library/CMSIS/Include\core_armv8mbl.h:0:1
__arm_cp.3_0:
	.long	3758153748                      @ 0xe000e014
.Lcpi_end18:
	.size	__arm_cp.3_0, .Lcpi_end18-__arm_cp.3_0
__arm_cp.3_1:
	.long	3758153752                      @ 0xe000e018
.Lcpi_end19:
	.size	__arm_cp.3_1, .Lcpi_end19-__arm_cp.3_1
__arm_cp.3_2:
	.long	3758153744                      @ 0xe000e010
.Lcpi_end20:
	.size	__arm_cp.3_2, .Lcpi_end20-__arm_cp.3_2
.Lfunc_end3:
	.size	SysTick_Config, .Lfunc_end3-SysTick_Config
	.cfi_endproc
	.cantunwind
	.fnend
                                        @ -- End function
	.section	.text.__NVIC_SetPriority,"ax",%progbits
	.p2align	2                               @ -- Begin function __NVIC_SetPriority
	.type	__NVIC_SetPriority,%function
	.code	16                              @ @__NVIC_SetPriority
	.thumb_func
__NVIC_SetPriority:
.Lfunc_begin4:
	.loc	4 1471 0 is_stmt 1              @ ../../../Library/CMSIS/Include\core_armv8mbl.h:1471:0
	.fnstart
	.cfi_startproc
@ %bb.0:
	.save	{r4, r5, r6, lr}
	push	{r4, r5, r6, lr}
	.cfi_def_cfa_offset 16
	.cfi_offset lr, -4
	.cfi_offset r6, -8
	.cfi_offset r5, -12
	.cfi_offset r4, -16
	.pad	#8
	sub	sp, #8
	.cfi_def_cfa_offset 24
	str	r0, [sp, #4]
	str	r1, [sp]
.Ltmp41:
	.loc	4 1472 17 prologue_end          @ ../../../Library/CMSIS/Include\core_armv8mbl.h:1472:17
	ldr	r0, [sp, #4]
.Ltmp42:
	.loc	4 1472 7 is_stmt 0              @ ../../../Library/CMSIS/Include\core_armv8mbl.h:1472:7
	cmp	r0, #0
	bmi	.LBB4_2
	b	.LBB4_1
.LBB4_1:
.Ltmp43:
	.loc	4 1474 55 is_stmt 1             @ ../../../Library/CMSIS/Include\core_armv8mbl.h:1474:55
	ldr	r0, [sp, #4]
	movs	r1, #3
	mvns	r1, r1
	ands	r0, r1
	ldr	r2, __arm_cp.4_1
	.loc	4 1474 45 is_stmt 0             @ ../../../Library/CMSIS/Include\core_armv8mbl.h:1474:45
	ldr	r0, [r0, r2]
	.loc	4 1474 85                       @ ../../../Library/CMSIS/Include\core_armv8mbl.h:1474:85
	ldr	r3, [sp, #4]
	lsls	r4, r3, #30
	lsrs	r4, r4, #27
	movs	r5, #255
	.loc	4 1474 82                       @ ../../../Library/CMSIS/Include\core_armv8mbl.h:1474:82
	lsls	r5, r4
	.loc	4 1474 71                       @ ../../../Library/CMSIS/Include\core_armv8mbl.h:1474:71
	bics	r0, r5
	.loc	4 1475 11 is_stmt 1             @ ../../../Library/CMSIS/Include\core_armv8mbl.h:1475:11
	ldr	r5, [sp]
	.loc	4 1475 20 is_stmt 0             @ ../../../Library/CMSIS/Include\core_armv8mbl.h:1475:20
	lsls	r5, r5, #6
	.loc	4 1475 48                       @ ../../../Library/CMSIS/Include\core_armv8mbl.h:1475:48
	uxtb	r5, r5
	.loc	4 1475 68                       @ ../../../Library/CMSIS/Include\core_armv8mbl.h:1475:68
	lsls	r5, r4
	.loc	4 1474 104 is_stmt 1            @ ../../../Library/CMSIS/Include\core_armv8mbl.h:1474:104
	orrs	r0, r5
	.loc	4 1474 15 is_stmt 0             @ ../../../Library/CMSIS/Include\core_armv8mbl.h:1474:15
	ands	r3, r1
	.loc	4 1474 31                       @ ../../../Library/CMSIS/Include\core_armv8mbl.h:1474:31
	str	r0, [r3, r2]
	.loc	4 1476 3 is_stmt 1              @ ../../../Library/CMSIS/Include\core_armv8mbl.h:1476:3
	b	.LBB4_3
.Ltmp44:
.LBB4_2:
	.loc	4 1479 55                       @ ../../../Library/CMSIS/Include\core_armv8mbl.h:1479:55
	ldr	r0, [sp, #4]
	movs	r1, #15
	ands	r0, r1
	subs	r0, #8
	movs	r2, #3
	mvns	r2, r2
	ands	r0, r2
	ldr	r3, __arm_cp.4_0
	.loc	4 1479 45 is_stmt 0             @ ../../../Library/CMSIS/Include\core_armv8mbl.h:1479:45
	ldr	r0, [r0, r3]
	.loc	4 1479 85                       @ ../../../Library/CMSIS/Include\core_armv8mbl.h:1479:85
	ldr	r4, [sp, #4]
	lsls	r5, r4, #30
	lsrs	r5, r5, #27
	movs	r6, #255
	.loc	4 1479 82                       @ ../../../Library/CMSIS/Include\core_armv8mbl.h:1479:82
	lsls	r6, r5
	.loc	4 1479 71                       @ ../../../Library/CMSIS/Include\core_armv8mbl.h:1479:71
	bics	r0, r6
	.loc	4 1480 11 is_stmt 1             @ ../../../Library/CMSIS/Include\core_armv8mbl.h:1480:11
	ldr	r6, [sp]
	.loc	4 1480 20 is_stmt 0             @ ../../../Library/CMSIS/Include\core_armv8mbl.h:1480:20
	lsls	r6, r6, #6
	.loc	4 1480 48                       @ ../../../Library/CMSIS/Include\core_armv8mbl.h:1480:48
	uxtb	r6, r6
	.loc	4 1480 68                       @ ../../../Library/CMSIS/Include\core_armv8mbl.h:1480:68
	lsls	r6, r5
	.loc	4 1479 104 is_stmt 1            @ ../../../Library/CMSIS/Include\core_armv8mbl.h:1479:104
	orrs	r0, r6
	.loc	4 1479 15 is_stmt 0             @ ../../../Library/CMSIS/Include\core_armv8mbl.h:1479:15
	ands	r4, r1
	subs	r4, #8
	ands	r4, r2
	.loc	4 1479 31                       @ ../../../Library/CMSIS/Include\core_armv8mbl.h:1479:31
	str	r0, [r4, r3]
	b	.LBB4_3
.Ltmp45:
.LBB4_3:
	.loc	4 1482 1 is_stmt 1              @ ../../../Library/CMSIS/Include\core_armv8mbl.h:1482:1
	add	sp, #8
	pop	{r4, r5, r6, pc}
.Ltmp46:
	.p2align	2
@ %bb.4:
	.loc	4 0 1 is_stmt 0                 @ ../../../Library/CMSIS/Include\core_armv8mbl.h:0:1
__arm_cp.4_0:
	.long	3758157084                      @ 0xe000ed1c
.Lcpi_end21:
	.size	__arm_cp.4_0, .Lcpi_end21-__arm_cp.4_0
__arm_cp.4_1:
	.long	3758154752                      @ 0xe000e400
.Lcpi_end22:
	.size	__arm_cp.4_1, .Lcpi_end22-__arm_cp.4_1
.Lfunc_end4:
	.size	__NVIC_SetPriority, .Lfunc_end4-__NVIC_SetPriority
	.cfi_endproc
	.cantunwind
	.fnend
                                        @ -- End function
	.type	.L__const.Control_SW3.msg,%object @ @__const.Control_SW3.msg
	.section	.rodata.str1.1,"aMS",%progbits,1
.L__const.Control_SW3.msg:
	.asciz	"Hello.."
	.size	.L__const.Control_SW3.msg, 8

	.type	SysTick_Handler.u32Ticks,%object @ @SysTick_Handler.u32Ticks
	.section	.bss.SysTick_Handler.u32Ticks,"aw",%nobits
	.p2align	2
SysTick_Handler.u32Ticks:
	.long	0                               @ 0x0
	.size	SysTick_Handler.u32Ticks, 4

	.type	.L.str,%object                  @ @.str
	.section	.rodata.str1.1,"aMS",%progbits,1
.L.str:
	.asciz	"\n"
	.size	.L.str, 2

	.type	.L.str.1,%object                @ @.str.1
.L.str.1:
	.asciz	"+---------------------------------------------+\n"
	.size	.L.str.1, 49

	.type	.L.str.2,%object                @ @.str.2
.L.str.2:
	.asciz	"|            Non-Secure is running ...        |\n"
	.size	.L.str.2, 49

	.type	.L.str.3,%object                @ @.str.3
.L.str.3:
	.asciz	"|             SDK1327 OLED Init               |\n"
	.size	.L.str.3, 49

	.type	.L.str.4,%object                @ @.str.4
.L.str.4:
	.asciz	"|         ESP8266 WiFi Module Start           |\n"
	.size	.L.str.4, 49

	.type	.L.str.5,%object                @ @.str.5
.L.str.5:
	.asciz	"\nSW2 ON in Non-secure code ...\n\n"
	.size	.L.str.5, 33

	.type	.L.str.6,%object                @ @.str.6
.L.str.6:
	.asciz	"\nMAX30102 On ...\n\n"
	.size	.L.str.6, 19

	.type	.L.str.7,%object                @ @.str.7
.L.str.7:
	.asciz	"\nMAX30102 Off ...\n\n"
	.size	.L.str.7, 20

	.type	.L.str.8,%object                @ @.str.8
.L.str.8:
	.asciz	"\nSW3 ON in Non-secure code ...\n\n"
	.size	.L.str.8, 33

	.type	.L.str.9,%object                @ @.str.9
.L.str.9:
	.asciz	"\nEncrypted digitallySignedData\n"
	.size	.L.str.9, 32

	.type	__ARM_use_no_argv,%object       @ @__ARM_use_no_argv
	.section	.ARM.use_no_argv,"aw",%progbits
	.globl	__ARM_use_no_argv
	.p2align	2
__ARM_use_no_argv:
	.long	1                               @ 0x1
	.size	__ARM_use_no_argv, 4

	.globl	__ARM_use_no_argv
	.file	5 "C:\\Users\\shw26\\OneDrive\\Desktop\\2021\\2021-1\\\354\272\241\354\212\244\355\206\244\353\224\224\354\236\220\354\235\2702\\Nuvoton\\M2351_BSP_v3.00.004\\M2351Series_BSP_CMSIS_V3.00.004\\MyProject\\PulseMonitoring\\NonSecure" "./WiFi\\wifi.h"
	.file	6 "C:\\Users\\shw26\\OneDrive\\Desktop\\2021\\2021-1\\\354\272\241\354\212\244\355\206\244\353\224\224\354\236\220\354\235\2702\\Nuvoton\\M2351_BSP_v3.00.004\\M2351Series_BSP_CMSIS_V3.00.004\\MyProject\\PulseMonitoring\\NonSecure" "../NonSecure\\cssd_lib.h"
	.section	".note.GNU-stack","",%progbits
	.eabi_attribute	30, 6	@ Tag_ABI_optimization_goals
	.ARM_attribute	16, 1	@ Tag_AV_eba