	.text
	.syntax unified
	.eabi_attribute	67, "2.09"	@ Tag_conformance
	.cpu	cortex-m23
	.eabi_attribute	6, 16	@ Tag_CPU_arch
	.eabi_attribute	7, 77	@ Tag_CPU_arch_profile
	.eabi_attribute	8, 0	@ Tag_ARM_ISA_use
	.eabi_attribute	9, 3	@ Tag_THUMB_ISA_use
	.eabi_attribute	34, 0	@ Tag_CPU_unaligned_access
	.eabi_attribute	17, 1	@ Tag_ABI_PCS_GOT_use
	.eabi_attribute	20, 2	@ Tag_ABI_FP_denormal
	.eabi_attribute	21, 0	@ Tag_ABI_FP_exceptions
	.eabi_attribute	23, 1	@ Tag_ABI_FP_number_model
	.eabi_attribute	24, 1	@ Tag_ABI_align_needed
	.eabi_attribute	25, 1	@ Tag_ABI_align_preserved
	.eabi_attribute	38, 1	@ Tag_ABI_FP_16bit_format
	.eabi_attribute	18, 4	@ Tag_ABI_PCS_wchar_t
	.eabi_attribute	26, 2	@ Tag_ABI_enum_size
	.eabi_attribute	14, 0	@ Tag_ABI_PCS_R9_use
	.file	"OLED_GUI.c"
	.file	1 "C:\\" "Keil_v5\\ARM\\ARMCLANG\\Bin\\..\\include\\stdint.h"
	.file	2 "C:\\Users\\shw26\\OneDrive\\Desktop\\2021\\2021-1\\\354\272\241\354\212\244\355\206\244\353\224\224\354\236\220\354\235\2702\\Nuvoton\\M2351_BSP_v3.00.004\\M2351Series_BSP_CMSIS_V3.00.004\\MyProject\\PulseMonitoring\\NonSecure" "./SSD1327/OLED_GUI.h"
	.file	3 "C:\\Users\\shw26\\OneDrive\\Desktop\\2021\\2021-1\\\354\272\241\354\212\244\355\206\244\353\224\224\354\236\220\354\235\2702\\Nuvoton\\M2351_BSP_v3.00.004\\M2351Series_BSP_CMSIS_V3.00.004\\MyProject\\PulseMonitoring\\NonSecure" "./SSD1327/OLED_Driver.h"
	.file	4 "C:\\Users\\shw26\\OneDrive\\Desktop\\2021\\2021-1\\\354\272\241\354\212\244\355\206\244\353\224\224\354\236\220\354\235\2702\\Nuvoton\\M2351_BSP_v3.00.004\\M2351Series_BSP_CMSIS_V3.00.004\\MyProject\\PulseMonitoring\\NonSecure" "../../../Library/Device/Nuvoton/M2351/Include/gpio_reg.h"
	.section	.text.GUI_Swop,"ax",%progbits
	.hidden	GUI_Swop                        @ -- Begin function GUI_Swop
	.globl	GUI_Swop
	.p2align	1
	.type	GUI_Swop,%function
	.code	16                              @ @GUI_Swop
	.thumb_func
GUI_Swop:
.Lfunc_begin0:
	.file	5 "C:\\Users\\shw26\\OneDrive\\Desktop\\2021\\2021-1\\\354\272\241\354\212\244\355\206\244\353\224\224\354\236\220\354\235\2702\\Nuvoton\\M2351_BSP_v3.00.004\\M2351Series_BSP_CMSIS_V3.00.004\\MyProject\\PulseMonitoring\\NonSecure" "SSD1327/OLED_GUI.c"
	.loc	5 23 0                          @ SSD1327/OLED_GUI.c:23:0
	.fnstart
	.cfi_sections .debug_frame
	.cfi_startproc
@ %bb.0:
	.save	{r4, r5, r7, lr}
	push	{r4, r5, r7, lr}
	.cfi_def_cfa_offset 16
	.cfi_offset lr, -4
	.cfi_offset r7, -8
	.cfi_offset r5, -12
	.cfi_offset r4, -16
	.pad	#12
	sub	sp, #12
	.cfi_def_cfa_offset 28
	mov	r2, r1
	mov	r3, r0
	add	r4, sp, #8
	strh	r0, [r4]
	add	r0, sp, #4
	strh	r1, [r0]
.Ltmp0:
	.loc	5 25 12 prologue_end            @ SSD1327/OLED_GUI.c:25:12
	ldr	r1, [sp, #8]
	mov	r5, sp
	.loc	5 25 10 is_stmt 0               @ SSD1327/OLED_GUI.c:25:10
	strh	r1, [r5]
	.loc	5 26 14 is_stmt 1               @ SSD1327/OLED_GUI.c:26:14
	ldr	r1, [sp, #4]
	.loc	5 26 12 is_stmt 0               @ SSD1327/OLED_GUI.c:26:12
	strh	r1, [r4]
	.loc	5 27 14 is_stmt 1               @ SSD1327/OLED_GUI.c:27:14
	ldr	r1, [sp]
	.loc	5 27 12 is_stmt 0               @ SSD1327/OLED_GUI.c:27:12
	strh	r1, [r0]
	.loc	5 28 1 is_stmt 1                @ SSD1327/OLED_GUI.c:28:1
	add	sp, #12
	pop	{r4, r5, r7, pc}
.Ltmp1:
.Lfunc_end0:
	.size	GUI_Swop, .Lfunc_end0-GUI_Swop
	.cfi_endproc
	.cantunwind
	.fnend
                                        @ -- End function
	.section	.text.GUI_DrawPoint,"ax",%progbits
	.hidden	GUI_DrawPoint                   @ -- Begin function GUI_DrawPoint
	.globl	GUI_DrawPoint
	.p2align	2
	.type	GUI_DrawPoint,%function
	.code	16                              @ @GUI_DrawPoint
	.thumb_func
GUI_DrawPoint:
.Lfunc_begin1:
	.loc	5 40 0                          @ SSD1327/OLED_GUI.c:40:0
	.fnstart
	.cfi_startproc
@ %bb.0:
	.save	{r4, r5, r6, r7, lr}
	push	{r4, r5, r6, r7, lr}
	.cfi_def_cfa_offset 20
	.cfi_offset lr, -4
	.cfi_offset r7, -8
	.cfi_offset r6, -12
	.cfi_offset r5, -16
	.cfi_offset r4, -20
	.pad	#36
	sub	sp, #36
	.cfi_def_cfa_offset 56
	ldr	r4, [sp, #56]
	mov	r5, r2
	mov	r6, r1
	mov	r7, r0
	str	r0, [sp, #8]                    @ 4-byte Spill
	add	r0, sp, #32
	str	r0, [sp, #4]                    @ 4-byte Spill
	ldr	r0, [sp, #8]                    @ 4-byte Reload
	str	r1, [sp]                        @ 4-byte Spill
	ldr	r1, [sp, #4]                    @ 4-byte Reload
	strh	r0, [r1]
	add	r0, sp, #28
	ldr	r1, [sp]                        @ 4-byte Reload
	strh	r1, [r0]
	add	r0, sp, #24
	strh	r2, [r0]
	str	r3, [sp, #20]
.Ltmp2:
	.loc	5 41 8 prologue_end             @ SSD1327/OLED_GUI.c:41:8
	ldr	r0, [sp, #4]                    @ 4-byte Reload
	ldrh	r2, [r0]
	.loc	5 41 27 is_stmt 0               @ SSD1327/OLED_GUI.c:41:27
	ldr	r3, __arm_cp.1_0
	ldrh	r3, [r3]
	.loc	5 41 43                         @ SSD1327/OLED_GUI.c:41:43
	cmp	r2, r3
	bgt	.LBB1_2
	b	.LBB1_1
.LBB1_1:
	.loc	5 0 43                          @ SSD1327/OLED_GUI.c:0:43
	add	r0, sp, #28
	.loc	5 41 46                         @ SSD1327/OLED_GUI.c:41:46
	ldrh	r0, [r0]
	.loc	5 41 65                         @ SSD1327/OLED_GUI.c:41:65
	ldr	r1, __arm_cp.1_0
	ldrh	r1, [r1, #2]
.Ltmp3:
	.loc	5 41 8                          @ SSD1327/OLED_GUI.c:41:8
	cmp	r0, r1
	ble	.LBB1_3
	b	.LBB1_2
.LBB1_2:
.Ltmp4:
	.loc	5 42 3 is_stmt 1                @ SSD1327/OLED_GUI.c:42:3
	ldr	r0, __arm_cp.1_1
	bl	printf
	.loc	5 43 9                          @ SSD1327/OLED_GUI.c:43:9
	b	.LBB1_22
.Ltmp5:
.LBB1_3:
	.loc	5 47 8                          @ SSD1327/OLED_GUI.c:47:8
	ldr	r0, [sp, #56]
.Ltmp6:
	.loc	5 47 8 is_stmt 0                @ SSD1327/OLED_GUI.c:47:8
	cmp	r0, #1
	bne	.LBB1_13
	b	.LBB1_4
.LBB1_4:
	.loc	5 0 8                           @ SSD1327/OLED_GUI.c:0:8
	add	r0, sp, #16
	movs	r1, #0
.Ltmp7:
	.loc	5 48 22 is_stmt 1               @ SSD1327/OLED_GUI.c:48:22
	strh	r1, [r0]
	.loc	5 48 13 is_stmt 0               @ SSD1327/OLED_GUI.c:48:13
	b	.LBB1_5
.LBB1_5:                                @ =>This Loop Header: Depth=1
                                        @     Child Loop BB1_7 Depth 2
	.loc	5 0 13                          @ SSD1327/OLED_GUI.c:0:13
	add	r0, sp, #16
.Ltmp8:
	.loc	5 48 27                         @ SSD1327/OLED_GUI.c:48:27
	ldrh	r0, [r0]
	.loc	5 48 42                         @ SSD1327/OLED_GUI.c:48:42
	ldr	r1, [sp, #20]
	.loc	5 48 40                         @ SSD1327/OLED_GUI.c:48:40
	lsls	r1, r1, #1
	.loc	5 48 52                         @ SSD1327/OLED_GUI.c:48:52
	subs	r1, r1, #1
.Ltmp9:
	.loc	5 48 9                          @ SSD1327/OLED_GUI.c:48:9
	cmp	r0, r1
	bhs	.LBB1_12
	b	.LBB1_6
.LBB1_6:                                @   in Loop: Header=BB1_5 Depth=1
	.loc	5 0 9                           @ SSD1327/OLED_GUI.c:0:9
	add	r0, sp, #12
	movs	r1, #0
.Ltmp10:
	.loc	5 49 26 is_stmt 1               @ SSD1327/OLED_GUI.c:49:26
	strh	r1, [r0]
	.loc	5 49 17 is_stmt 0               @ SSD1327/OLED_GUI.c:49:17
	b	.LBB1_7
.LBB1_7:                                @   Parent Loop BB1_5 Depth=1
                                        @ =>  This Inner Loop Header: Depth=2
	.loc	5 0 17                          @ SSD1327/OLED_GUI.c:0:17
	add	r0, sp, #12
.Ltmp11:
	.loc	5 49 31                         @ SSD1327/OLED_GUI.c:49:31
	ldrh	r0, [r0]
	.loc	5 49 46                         @ SSD1327/OLED_GUI.c:49:46
	ldr	r1, [sp, #20]
	.loc	5 49 44                         @ SSD1327/OLED_GUI.c:49:44
	lsls	r1, r1, #1
	.loc	5 49 56                         @ SSD1327/OLED_GUI.c:49:56
	subs	r1, r1, #1
.Ltmp12:
	.loc	5 49 13                         @ SSD1327/OLED_GUI.c:49:13
	cmp	r0, r1
	bhs	.LBB1_10
	b	.LBB1_8
.LBB1_8:                                @   in Loop: Header=BB1_7 Depth=2
.Ltmp13:
	.loc	5 51 31 is_stmt 1               @ SSD1327/OLED_GUI.c:51:31
	ldr	r0, [sp, #32]
	.loc	5 51 40 is_stmt 0               @ SSD1327/OLED_GUI.c:51:40
	ldr	r1, [sp, #16]
	.loc	5 51 38                         @ SSD1327/OLED_GUI.c:51:38
	adds	r0, r0, r1
	.loc	5 51 51                         @ SSD1327/OLED_GUI.c:51:51
	ldr	r1, [sp, #20]
	.loc	5 51 49                         @ SSD1327/OLED_GUI.c:51:49
	subs	r0, r0, r1
	.loc	5 51 62                         @ SSD1327/OLED_GUI.c:51:62
	ldr	r2, [sp, #28]
	.loc	5 51 71                         @ SSD1327/OLED_GUI.c:51:71
	ldr	r3, [sp, #12]
	.loc	5 51 69                         @ SSD1327/OLED_GUI.c:51:69
	adds	r2, r2, r3
	.loc	5 51 80                         @ SSD1327/OLED_GUI.c:51:80
	subs	r1, r2, r1
	add	r2, sp, #24
	.loc	5 51 93                         @ SSD1327/OLED_GUI.c:51:93
	ldrh	r2, [r2]
	.loc	5 51 17                         @ SSD1327/OLED_GUI.c:51:17
	uxth	r0, r0
	uxth	r1, r1
	bl	OLED_SetColor
	.loc	5 52 13 is_stmt 1               @ SSD1327/OLED_GUI.c:52:13
	b	.LBB1_9
.Ltmp14:
.LBB1_9:                                @   in Loop: Header=BB1_7 Depth=2
	.loc	5 49 69                         @ SSD1327/OLED_GUI.c:49:69
	ldr	r0, [sp, #12]
	adds	r0, r0, #1
	add	r1, sp, #12
	strh	r0, [r1]
	.loc	5 49 13 is_stmt 0               @ SSD1327/OLED_GUI.c:49:13
	b	.LBB1_7
.Ltmp15:
.LBB1_10:                               @   in Loop: Header=BB1_5 Depth=1
	.loc	5 53 9 is_stmt 1                @ SSD1327/OLED_GUI.c:53:9
	b	.LBB1_11
.Ltmp16:
.LBB1_11:                               @   in Loop: Header=BB1_5 Depth=1
	.loc	5 48 65                         @ SSD1327/OLED_GUI.c:48:65
	ldr	r0, [sp, #16]
	adds	r0, r0, #1
	add	r1, sp, #16
	strh	r0, [r1]
	.loc	5 48 9 is_stmt 0                @ SSD1327/OLED_GUI.c:48:9
	b	.LBB1_5
.Ltmp17:
.LBB1_12:
	.loc	5 54 5 is_stmt 1                @ SSD1327/OLED_GUI.c:54:5
	b	.LBB1_22
.Ltmp18:
.LBB1_13:
	.loc	5 0 5 is_stmt 0                 @ SSD1327/OLED_GUI.c:0:5
	add	r0, sp, #16
	movs	r1, #0
.Ltmp19:
	.loc	5 55 22 is_stmt 1               @ SSD1327/OLED_GUI.c:55:22
	strh	r1, [r0]
	.loc	5 55 13 is_stmt 0               @ SSD1327/OLED_GUI.c:55:13
	b	.LBB1_14
.LBB1_14:                               @ =>This Loop Header: Depth=1
                                        @     Child Loop BB1_16 Depth 2
	.loc	5 0 13                          @ SSD1327/OLED_GUI.c:0:13
	add	r0, sp, #16
.Ltmp20:
	.loc	5 55 27                         @ SSD1327/OLED_GUI.c:55:27
	ldrh	r0, [r0]
	.loc	5 55 39                         @ SSD1327/OLED_GUI.c:55:39
	ldr	r1, [sp, #20]
.Ltmp21:
	.loc	5 55 9                          @ SSD1327/OLED_GUI.c:55:9
	cmp	r0, r1
	bhs	.LBB1_21
	b	.LBB1_15
.LBB1_15:                               @   in Loop: Header=BB1_14 Depth=1
	.loc	5 0 9                           @ SSD1327/OLED_GUI.c:0:9
	add	r0, sp, #12
	movs	r1, #0
.Ltmp22:
	.loc	5 56 26 is_stmt 1               @ SSD1327/OLED_GUI.c:56:26
	strh	r1, [r0]
	.loc	5 56 17 is_stmt 0               @ SSD1327/OLED_GUI.c:56:17
	b	.LBB1_16
.LBB1_16:                               @   Parent Loop BB1_14 Depth=1
                                        @ =>  This Inner Loop Header: Depth=2
	.loc	5 0 17                          @ SSD1327/OLED_GUI.c:0:17
	add	r0, sp, #12
.Ltmp23:
	.loc	5 56 31                         @ SSD1327/OLED_GUI.c:56:31
	ldrh	r0, [r0]
	.loc	5 56 43                         @ SSD1327/OLED_GUI.c:56:43
	ldr	r1, [sp, #20]
.Ltmp24:
	.loc	5 56 13                         @ SSD1327/OLED_GUI.c:56:13
	cmp	r0, r1
	bhs	.LBB1_19
	b	.LBB1_17
.LBB1_17:                               @   in Loop: Header=BB1_16 Depth=2
.Ltmp25:
	.loc	5 57 31 is_stmt 1               @ SSD1327/OLED_GUI.c:57:31
	ldr	r0, [sp, #32]
	.loc	5 57 40 is_stmt 0               @ SSD1327/OLED_GUI.c:57:40
	ldr	r1, [sp, #16]
	.loc	5 57 38                         @ SSD1327/OLED_GUI.c:57:38
	adds	r0, r0, r1
	.loc	5 57 50                         @ SSD1327/OLED_GUI.c:57:50
	ldr	r1, [sp, #28]
	.loc	5 57 59                         @ SSD1327/OLED_GUI.c:57:59
	ldr	r2, [sp, #12]
	.loc	5 57 57                         @ SSD1327/OLED_GUI.c:57:57
	adds	r1, r1, r2
	add	r2, sp, #24
	.loc	5 57 69                         @ SSD1327/OLED_GUI.c:57:69
	ldrh	r2, [r2]
	.loc	5 57 17                         @ SSD1327/OLED_GUI.c:57:17
	uxth	r0, r0
	uxth	r1, r1
	bl	OLED_SetColor
	.loc	5 58 13 is_stmt 1               @ SSD1327/OLED_GUI.c:58:13
	b	.LBB1_18
.Ltmp26:
.LBB1_18:                               @   in Loop: Header=BB1_16 Depth=2
	.loc	5 56 62                         @ SSD1327/OLED_GUI.c:56:62
	ldr	r0, [sp, #12]
	adds	r0, r0, #1
	add	r1, sp, #12
	strh	r0, [r1]
	.loc	5 56 13 is_stmt 0               @ SSD1327/OLED_GUI.c:56:13
	b	.LBB1_16
.Ltmp27:
.LBB1_19:                               @   in Loop: Header=BB1_14 Depth=1
	.loc	5 59 9 is_stmt 1                @ SSD1327/OLED_GUI.c:59:9
	b	.LBB1_20
.Ltmp28:
.LBB1_20:                               @   in Loop: Header=BB1_14 Depth=1
	.loc	5 55 58                         @ SSD1327/OLED_GUI.c:55:58
	ldr	r0, [sp, #16]
	adds	r0, r0, #1
	add	r1, sp, #16
	strh	r0, [r1]
	.loc	5 55 9 is_stmt 0                @ SSD1327/OLED_GUI.c:55:9
	b	.LBB1_14
.Ltmp29:
.LBB1_21:
	.loc	5 0 9                           @ SSD1327/OLED_GUI.c:0:9
	b	.LBB1_22
.LBB1_22:
	.loc	5 61 1 is_stmt 1                @ SSD1327/OLED_GUI.c:61:1
	add	sp, #36
	pop	{r4, r5, r6, r7, pc}
.Ltmp30:
	.p2align	2
@ %bb.23:
	.loc	5 0 1 is_stmt 0                 @ SSD1327/OLED_GUI.c:0:1
__arm_cp.1_0:
	.long	sOLED_DIS
.Lcpi_end0:
	.size	__arm_cp.1_0, .Lcpi_end0-__arm_cp.1_0
__arm_cp.1_1:
	.long	.L.str
.Lcpi_end1:
	.size	__arm_cp.1_1, .Lcpi_end1-__arm_cp.1_1
.Lfunc_end1:
	.size	GUI_DrawPoint, .Lfunc_end1-GUI_DrawPoint
	.cfi_endproc
	.cantunwind
	.fnend
                                        @ -- End function
	.section	.text.GUI_DrawLine,"ax",%progbits
	.hidden	GUI_DrawLine                    @ -- Begin function GUI_DrawLine
	.globl	GUI_DrawLine
	.p2align	2
	.type	GUI_DrawLine,%function
	.code	16                              @ @GUI_DrawLine
	.thumb_func
GUI_DrawLine:
.Lfunc_begin2:
	.loc	5 74 0 is_stmt 1                @ SSD1327/OLED_GUI.c:74:0
	.fnstart
	.cfi_startproc
@ %bb.0:
	.save	{r4, r5, r6, r7, lr}
	push	{r4, r5, r6, r7, lr}
	.cfi_def_cfa_offset 20
	.cfi_offset lr, -4
	.cfi_offset r7, -8
	.cfi_offset r6, -12
	.cfi_offset r5, -16
	.cfi_offset r4, -20
	.pad	#116
	sub	sp, #116
	.cfi_def_cfa_offset 136
	ldr	r4, [sp, #144]
	ldr	r5, [sp, #140]
	ldr	r6, [sp, #136]
	mov	r7, r3
	str	r2, [sp, #60]                   @ 4-byte Spill
	str	r1, [sp, #56]                   @ 4-byte Spill
	str	r0, [sp, #52]                   @ 4-byte Spill
	str	r0, [sp, #48]                   @ 4-byte Spill
	add	r0, sp, #112
	str	r0, [sp, #44]                   @ 4-byte Spill
	ldr	r0, [sp, #52]                   @ 4-byte Reload
	str	r1, [sp, #40]                   @ 4-byte Spill
	ldr	r1, [sp, #44]                   @ 4-byte Reload
	strh	r0, [r1]
	add	r0, sp, #108
	ldr	r1, [sp, #56]                   @ 4-byte Reload
	strh	r1, [r0]
	add	r0, sp, #104
	ldr	r1, [sp, #60]                   @ 4-byte Reload
	strh	r1, [r0]
	add	r0, sp, #100
	strh	r3, [r0]
	add	r0, sp, #96
	strh	r6, [r0]
.Ltmp31:
	.loc	5 75 8 prologue_end             @ SSD1327/OLED_GUI.c:75:8
	ldr	r0, [sp, #44]                   @ 4-byte Reload
	ldrh	r3, [r0]
	.loc	5 75 27 is_stmt 0               @ SSD1327/OLED_GUI.c:75:27
	ldr	r6, __arm_cp.2_0
	ldrh	r6, [r6]
	.loc	5 75 43                         @ SSD1327/OLED_GUI.c:75:43
	cmp	r3, r6
	bgt	.LBB2_4
	b	.LBB2_1
.LBB2_1:
	.loc	5 0 43                          @ SSD1327/OLED_GUI.c:0:43
	add	r0, sp, #108
	.loc	5 75 46                         @ SSD1327/OLED_GUI.c:75:46
	ldrh	r0, [r0]
	.loc	5 75 65                         @ SSD1327/OLED_GUI.c:75:65
	ldr	r1, __arm_cp.2_0
	ldrh	r1, [r1, #2]
	.loc	5 75 79                         @ SSD1327/OLED_GUI.c:75:79
	cmp	r0, r1
	bgt	.LBB2_4
	b	.LBB2_2
.LBB2_2:
	.loc	5 0 79                          @ SSD1327/OLED_GUI.c:0:79
	add	r0, sp, #104
	.loc	5 76 8 is_stmt 1                @ SSD1327/OLED_GUI.c:76:8
	ldrh	r0, [r0]
	.loc	5 76 25 is_stmt 0               @ SSD1327/OLED_GUI.c:76:25
	ldr	r1, __arm_cp.2_0
	ldrh	r1, [r1]
	.loc	5 76 41                         @ SSD1327/OLED_GUI.c:76:41
	cmp	r0, r1
	bgt	.LBB2_4
	b	.LBB2_3
.LBB2_3:
	.loc	5 0 41                          @ SSD1327/OLED_GUI.c:0:41
	add	r0, sp, #100
	.loc	5 76 44                         @ SSD1327/OLED_GUI.c:76:44
	ldrh	r0, [r0]
	.loc	5 76 61                         @ SSD1327/OLED_GUI.c:76:61
	ldr	r1, __arm_cp.2_0
	ldrh	r1, [r1, #2]
.Ltmp32:
	.loc	5 75 8 is_stmt 1                @ SSD1327/OLED_GUI.c:75:8
	cmp	r0, r1
	ble	.LBB2_5
	b	.LBB2_4
.LBB2_4:
.Ltmp33:
	.loc	5 77 6                          @ SSD1327/OLED_GUI.c:77:6
	ldr	r0, __arm_cp.2_4
	bl	printf
	.loc	5 78 9                          @ SSD1327/OLED_GUI.c:78:9
	b	.LBB2_33
.Ltmp34:
.LBB2_5:
	.loc	5 0 9 is_stmt 0                 @ SSD1327/OLED_GUI.c:0:9
	add	r0, sp, #112
.Ltmp35:
	.loc	5 81 8 is_stmt 1                @ SSD1327/OLED_GUI.c:81:8
	ldrh	r0, [r0]
	add	r1, sp, #104
	.loc	5 81 17 is_stmt 0               @ SSD1327/OLED_GUI.c:81:17
	ldrh	r1, [r1]
.Ltmp36:
	.loc	5 81 8                          @ SSD1327/OLED_GUI.c:81:8
	cmp	r0, r1
	ble	.LBB2_7
	b	.LBB2_6
.LBB2_6:
	.loc	5 0 8                           @ SSD1327/OLED_GUI.c:0:8
	add	r0, sp, #112
.Ltmp37:
	.loc	5 82 18 is_stmt 1               @ SSD1327/OLED_GUI.c:82:18
	ldrh	r0, [r0]
	add	r1, sp, #104
	.loc	5 82 25 is_stmt 0               @ SSD1327/OLED_GUI.c:82:25
	ldrh	r1, [r1]
	.loc	5 82 9                          @ SSD1327/OLED_GUI.c:82:9
	bl	GUI_Swop
	b	.LBB2_7
.Ltmp38:
.LBB2_7:
	.loc	5 0 9                           @ SSD1327/OLED_GUI.c:0:9
	add	r0, sp, #108
.Ltmp39:
	.loc	5 83 8 is_stmt 1                @ SSD1327/OLED_GUI.c:83:8
	ldrh	r0, [r0]
	add	r1, sp, #100
	.loc	5 83 17 is_stmt 0               @ SSD1327/OLED_GUI.c:83:17
	ldrh	r1, [r1]
.Ltmp40:
	.loc	5 83 8                          @ SSD1327/OLED_GUI.c:83:8
	cmp	r0, r1
	ble	.LBB2_9
	b	.LBB2_8
.LBB2_8:
	.loc	5 0 8                           @ SSD1327/OLED_GUI.c:0:8
	add	r0, sp, #108
.Ltmp41:
	.loc	5 84 18 is_stmt 1               @ SSD1327/OLED_GUI.c:84:18
	ldrh	r0, [r0]
	add	r1, sp, #100
	.loc	5 84 25 is_stmt 0               @ SSD1327/OLED_GUI.c:84:25
	ldrh	r1, [r1]
	.loc	5 84 9                          @ SSD1327/OLED_GUI.c:84:9
	bl	GUI_Swop
	b	.LBB2_9
.Ltmp42:
.LBB2_9:
	.loc	5 86 20 is_stmt 1               @ SSD1327/OLED_GUI.c:86:20
	ldr	r0, [sp, #112]
	add	r1, sp, #92
	.loc	5 86 11 is_stmt 0               @ SSD1327/OLED_GUI.c:86:11
	strh	r0, [r1]
	.loc	5 87 20 is_stmt 1               @ SSD1327/OLED_GUI.c:87:20
	ldr	r0, [sp, #108]
	add	r1, sp, #88
	.loc	5 87 11 is_stmt 0               @ SSD1327/OLED_GUI.c:87:11
	strh	r0, [r1]
	add	r0, sp, #104
	.loc	5 88 26 is_stmt 1               @ SSD1327/OLED_GUI.c:88:26
	ldrh	r0, [r0]
	add	r1, sp, #112
	.loc	5 88 41 is_stmt 0               @ SSD1327/OLED_GUI.c:88:41
	ldrh	r1, [r1]
	.loc	5 88 31                         @ SSD1327/OLED_GUI.c:88:31
	subs	r0, r0, r1
	.loc	5 88 17                         @ SSD1327/OLED_GUI.c:88:17
	cmp	r0, #0
	bmi	.LBB2_11
	b	.LBB2_10
.LBB2_10:
	.loc	5 0 17                          @ SSD1327/OLED_GUI.c:0:17
	add	r0, sp, #104
	.loc	5 88 55                         @ SSD1327/OLED_GUI.c:88:55
	ldrh	r0, [r0]
	add	r1, sp, #112
	.loc	5 88 62                         @ SSD1327/OLED_GUI.c:88:62
	ldrh	r1, [r1]
	.loc	5 88 60                         @ SSD1327/OLED_GUI.c:88:60
	subs	r0, r0, r1
	.loc	5 88 17                         @ SSD1327/OLED_GUI.c:88:17
	str	r0, [sp, #36]                   @ 4-byte Spill
	b	.LBB2_12
.LBB2_11:
	.loc	5 0 17                          @ SSD1327/OLED_GUI.c:0:17
	add	r0, sp, #112
	.loc	5 88 71                         @ SSD1327/OLED_GUI.c:88:71
	ldrh	r0, [r0]
	add	r1, sp, #104
	.loc	5 88 80                         @ SSD1327/OLED_GUI.c:88:80
	ldrh	r1, [r1]
	.loc	5 88 78                         @ SSD1327/OLED_GUI.c:88:78
	subs	r0, r0, r1
	.loc	5 88 17                         @ SSD1327/OLED_GUI.c:88:17
	str	r0, [sp, #36]                   @ 4-byte Spill
	b	.LBB2_12
.LBB2_12:
	ldr	r0, [sp, #36]                   @ 4-byte Reload
	.loc	5 88 13                         @ SSD1327/OLED_GUI.c:88:13
	str	r0, [sp, #84]
	add	r0, sp, #100
	.loc	5 89 26 is_stmt 1               @ SSD1327/OLED_GUI.c:89:26
	ldrh	r0, [r0]
	add	r1, sp, #108
	.loc	5 89 41 is_stmt 0               @ SSD1327/OLED_GUI.c:89:41
	ldrh	r1, [r1]
	.loc	5 89 31                         @ SSD1327/OLED_GUI.c:89:31
	subs	r0, r0, r1
	.loc	5 89 17                         @ SSD1327/OLED_GUI.c:89:17
	cmp	r0, #0
	bgt	.LBB2_14
	b	.LBB2_13
.LBB2_13:
	.loc	5 0 17                          @ SSD1327/OLED_GUI.c:0:17
	add	r0, sp, #100
	.loc	5 89 55                         @ SSD1327/OLED_GUI.c:89:55
	ldrh	r0, [r0]
	add	r1, sp, #108
	.loc	5 89 62                         @ SSD1327/OLED_GUI.c:89:62
	ldrh	r1, [r1]
	.loc	5 89 60                         @ SSD1327/OLED_GUI.c:89:60
	subs	r0, r0, r1
	.loc	5 89 17                         @ SSD1327/OLED_GUI.c:89:17
	str	r0, [sp, #32]                   @ 4-byte Spill
	b	.LBB2_15
.LBB2_14:
	.loc	5 0 17                          @ SSD1327/OLED_GUI.c:0:17
	add	r0, sp, #108
	.loc	5 89 71                         @ SSD1327/OLED_GUI.c:89:71
	ldrh	r0, [r0]
	add	r1, sp, #100
	.loc	5 89 80                         @ SSD1327/OLED_GUI.c:89:80
	ldrh	r1, [r1]
	.loc	5 89 78                         @ SSD1327/OLED_GUI.c:89:78
	subs	r0, r0, r1
	.loc	5 89 17                         @ SSD1327/OLED_GUI.c:89:17
	str	r0, [sp, #32]                   @ 4-byte Spill
	b	.LBB2_15
.LBB2_15:
	ldr	r0, [sp, #32]                   @ 4-byte Reload
	.loc	5 89 13                         @ SSD1327/OLED_GUI.c:89:13
	str	r0, [sp, #80]
	add	r0, sp, #112
	.loc	5 92 23 is_stmt 1               @ SSD1327/OLED_GUI.c:92:23
	ldrh	r0, [r0]
	add	r1, sp, #104
	.loc	5 92 32 is_stmt 0               @ SSD1327/OLED_GUI.c:92:32
	ldrh	r1, [r1]
	movs	r2, #0
	mvns	r3, r2
	movs	r4, #1
	.loc	5 92 23                         @ SSD1327/OLED_GUI.c:92:23
	cmp	r0, r1
	mov	r0, r4
	str	r2, [sp, #28]                   @ 4-byte Spill
	str	r3, [sp, #24]                   @ 4-byte Spill
	str	r4, [sp, #20]                   @ 4-byte Spill
	str	r0, [sp, #16]                   @ 4-byte Spill
	blt	.LBB2_17
@ %bb.16:
	ldr	r0, [sp, #24]                   @ 4-byte Reload
	str	r0, [sp, #16]                   @ 4-byte Spill
.LBB2_17:
	ldr	r0, [sp, #16]                   @ 4-byte Reload
	.loc	5 92 13                         @ SSD1327/OLED_GUI.c:92:13
	str	r0, [sp, #76]
	add	r0, sp, #108
	.loc	5 93 23 is_stmt 1               @ SSD1327/OLED_GUI.c:93:23
	ldrh	r0, [r0]
	add	r1, sp, #100
	.loc	5 93 32 is_stmt 0               @ SSD1327/OLED_GUI.c:93:32
	ldrh	r1, [r1]
	.loc	5 93 23                         @ SSD1327/OLED_GUI.c:93:23
	cmp	r0, r1
	ldr	r0, [sp, #20]                   @ 4-byte Reload
	str	r0, [sp, #12]                   @ 4-byte Spill
	blt	.LBB2_19
@ %bb.18:
	ldr	r0, [sp, #24]                   @ 4-byte Reload
	str	r0, [sp, #12]                   @ 4-byte Spill
.LBB2_19:
	ldr	r0, [sp, #12]                   @ 4-byte Reload
	.loc	5 93 13                         @ SSD1327/OLED_GUI.c:93:13
	str	r0, [sp, #72]
	.loc	5 96 19 is_stmt 1               @ SSD1327/OLED_GUI.c:96:19
	ldr	r0, [sp, #84]
	.loc	5 96 24 is_stmt 0               @ SSD1327/OLED_GUI.c:96:24
	ldr	r1, [sp, #80]
	.loc	5 96 22                         @ SSD1327/OLED_GUI.c:96:22
	adds	r0, r0, r1
	.loc	5 96 13                         @ SSD1327/OLED_GUI.c:96:13
	str	r0, [sp, #68]
	add	r0, sp, #64
	.loc	5 97 12 is_stmt 1               @ SSD1327/OLED_GUI.c:97:12
	ldr	r1, [sp, #28]                   @ 4-byte Reload
	strb	r1, [r0]
	.loc	5 99 5                          @ SSD1327/OLED_GUI.c:99:5
	b	.LBB2_20
.LBB2_20:                               @ =>This Inner Loop Header: Depth=1
.Ltmp43:
	.loc	5 100 24                        @ SSD1327/OLED_GUI.c:100:24
	ldr	r0, [sp, #64]
	adds	r0, r0, #1
	add	r1, sp, #64
	strb	r0, [r1]
.Ltmp44:
	.loc	5 102 12                        @ SSD1327/OLED_GUI.c:102:12
	ldr	r0, [sp, #140]
	.loc	5 102 38 is_stmt 0              @ SSD1327/OLED_GUI.c:102:38
	cmp	r0, #1
	bne	.LBB2_23
	b	.LBB2_21
.LBB2_21:                               @   in Loop: Header=BB2_20 Depth=1
	.loc	5 0 38                          @ SSD1327/OLED_GUI.c:0:38
	add	r0, sp, #64
	.loc	5 102 41                        @ SSD1327/OLED_GUI.c:102:41
	ldrb	r0, [r0]
	sxtb	r0, r0
	ldr	r1, __arm_cp.2_1
.Ltmp45:
	.loc	5 102 12                        @ SSD1327/OLED_GUI.c:102:12
	muls	r1, r0, r1
	ldr	r0, __arm_cp.2_2
	adds	r0, r1, r0
	ldr	r1, __arm_cp.2_3
	cmp	r0, r1
	bhi	.LBB2_23
	b	.LBB2_22
.LBB2_22:                               @   in Loop: Header=BB2_20 Depth=1
	.loc	5 0 12                          @ SSD1327/OLED_GUI.c:0:12
	add	r0, sp, #92
.Ltmp46:
	.loc	5 104 27 is_stmt 1              @ SSD1327/OLED_GUI.c:104:27
	ldrh	r0, [r0]
	add	r1, sp, #88
	.loc	5 104 35 is_stmt 0              @ SSD1327/OLED_GUI.c:104:35
	ldrh	r1, [r1]
	.loc	5 104 60                        @ SSD1327/OLED_GUI.c:104:60
	ldr	r3, [sp, #144]
	movs	r2, #1
	.loc	5 104 13                        @ SSD1327/OLED_GUI.c:104:13
	str	r2, [sp]
	movs	r2, #0
	str	r2, [sp, #8]                    @ 4-byte Spill
	bl	GUI_DrawPoint
	add	r0, sp, #64
	.loc	5 105 29 is_stmt 1              @ SSD1327/OLED_GUI.c:105:29
	ldr	r1, [sp, #8]                    @ 4-byte Reload
	strb	r1, [r0]
	.loc	5 106 9                         @ SSD1327/OLED_GUI.c:106:9
	b	.LBB2_24
.Ltmp47:
.LBB2_23:                               @   in Loop: Header=BB2_20 Depth=1
	.loc	5 0 9 is_stmt 0                 @ SSD1327/OLED_GUI.c:0:9
	add	r0, sp, #92
.Ltmp48:
	.loc	5 107 27 is_stmt 1              @ SSD1327/OLED_GUI.c:107:27
	ldrh	r0, [r0]
	add	r1, sp, #88
	.loc	5 107 35 is_stmt 0              @ SSD1327/OLED_GUI.c:107:35
	ldrh	r1, [r1]
	add	r2, sp, #96
	.loc	5 107 43                        @ SSD1327/OLED_GUI.c:107:43
	ldrh	r2, [r2]
	.loc	5 107 50                        @ SSD1327/OLED_GUI.c:107:50
	ldr	r3, [sp, #144]
	movs	r4, #1
	.loc	5 107 13                        @ SSD1327/OLED_GUI.c:107:13
	str	r4, [sp]
	bl	GUI_DrawPoint
	b	.LBB2_24
.Ltmp49:
.LBB2_24:                               @   in Loop: Header=BB2_20 Depth=1
	.loc	5 109 16 is_stmt 1              @ SSD1327/OLED_GUI.c:109:16
	ldr	r0, [sp, #68]
	.loc	5 109 14 is_stmt 0              @ SSD1327/OLED_GUI.c:109:14
	lsls	r0, r0, #1
	.loc	5 109 23                        @ SSD1327/OLED_GUI.c:109:23
	ldr	r1, [sp, #80]
.Ltmp50:
	.loc	5 109 12                        @ SSD1327/OLED_GUI.c:109:12
	cmp	r1, r0
	bgt	.LBB2_28
	b	.LBB2_25
.LBB2_25:                               @   in Loop: Header=BB2_20 Depth=1
	.loc	5 0 12                          @ SSD1327/OLED_GUI.c:0:12
	add	r0, sp, #92
.Ltmp51:
	.loc	5 110 16 is_stmt 1              @ SSD1327/OLED_GUI.c:110:16
	ldrh	r0, [r0]
	add	r1, sp, #104
	.loc	5 110 26 is_stmt 0              @ SSD1327/OLED_GUI.c:110:26
	ldrh	r1, [r1]
.Ltmp52:
	.loc	5 110 16                        @ SSD1327/OLED_GUI.c:110:16
	cmp	r0, r1
	bne	.LBB2_27
	b	.LBB2_26
.LBB2_26:
.Ltmp53:
	.loc	5 110 32                        @ SSD1327/OLED_GUI.c:110:32
	b	.LBB2_33
.Ltmp54:
.LBB2_27:                               @   in Loop: Header=BB2_20 Depth=1
	.loc	5 111 20 is_stmt 1              @ SSD1327/OLED_GUI.c:111:20
	ldr	r0, [sp, #80]
	.loc	5 111 17 is_stmt 0              @ SSD1327/OLED_GUI.c:111:17
	ldr	r1, [sp, #68]
	adds	r0, r1, r0
	str	r0, [sp, #68]
	.loc	5 112 23 is_stmt 1              @ SSD1327/OLED_GUI.c:112:23
	ldr	r0, [sp, #76]
	.loc	5 112 20 is_stmt 0              @ SSD1327/OLED_GUI.c:112:20
	ldr	r1, [sp, #92]
	adds	r0, r1, r0
	add	r1, sp, #92
	strh	r0, [r1]
	.loc	5 113 9 is_stmt 1               @ SSD1327/OLED_GUI.c:113:9
	b	.LBB2_28
.Ltmp55:
.LBB2_28:                               @   in Loop: Header=BB2_20 Depth=1
	.loc	5 114 16                        @ SSD1327/OLED_GUI.c:114:16
	ldr	r0, [sp, #68]
	.loc	5 114 14 is_stmt 0              @ SSD1327/OLED_GUI.c:114:14
	lsls	r0, r0, #1
	.loc	5 114 23                        @ SSD1327/OLED_GUI.c:114:23
	ldr	r1, [sp, #84]
.Ltmp56:
	.loc	5 114 12                        @ SSD1327/OLED_GUI.c:114:12
	cmp	r1, r0
	blt	.LBB2_32
	b	.LBB2_29
.LBB2_29:                               @   in Loop: Header=BB2_20 Depth=1
	.loc	5 0 12                          @ SSD1327/OLED_GUI.c:0:12
	add	r0, sp, #88
.Ltmp57:
	.loc	5 115 16 is_stmt 1              @ SSD1327/OLED_GUI.c:115:16
	ldrh	r0, [r0]
	add	r1, sp, #100
	.loc	5 115 26 is_stmt 0              @ SSD1327/OLED_GUI.c:115:26
	ldrh	r1, [r1]
.Ltmp58:
	.loc	5 115 16                        @ SSD1327/OLED_GUI.c:115:16
	cmp	r0, r1
	bne	.LBB2_31
	b	.LBB2_30
.LBB2_30:
.Ltmp59:
	.loc	5 115 32                        @ SSD1327/OLED_GUI.c:115:32
	b	.LBB2_33
.Ltmp60:
.LBB2_31:                               @   in Loop: Header=BB2_20 Depth=1
	.loc	5 116 20 is_stmt 1              @ SSD1327/OLED_GUI.c:116:20
	ldr	r0, [sp, #84]
	.loc	5 116 17 is_stmt 0              @ SSD1327/OLED_GUI.c:116:17
	ldr	r1, [sp, #68]
	adds	r0, r1, r0
	str	r0, [sp, #68]
	.loc	5 117 23 is_stmt 1              @ SSD1327/OLED_GUI.c:117:23
	ldr	r0, [sp, #72]
	.loc	5 117 20 is_stmt 0              @ SSD1327/OLED_GUI.c:117:20
	ldr	r1, [sp, #88]
	adds	r0, r1, r0
	add	r1, sp, #88
	strh	r0, [r1]
	.loc	5 118 9 is_stmt 1               @ SSD1327/OLED_GUI.c:118:9
	b	.LBB2_32
.Ltmp61:
.LBB2_32:                               @   in Loop: Header=BB2_20 Depth=1
	.loc	5 99 5                          @ SSD1327/OLED_GUI.c:99:5
	b	.LBB2_20
.Ltmp62:
.LBB2_33:
	.loc	5 120 1                         @ SSD1327/OLED_GUI.c:120:1
	add	sp, #116
	pop	{r4, r5, r6, r7, pc}
.Ltmp63:
	.p2align	2
@ %bb.34:
	.loc	5 0 1 is_stmt 0                 @ SSD1327/OLED_GUI.c:0:1
__arm_cp.2_0:
	.long	sOLED_DIS
.Lcpi_end2:
	.size	__arm_cp.2_0, .Lcpi_end2-__arm_cp.2_0
__arm_cp.2_1:
	.long	2863311531                      @ 0xaaaaaaab
.Lcpi_end3:
	.size	__arm_cp.2_1, .Lcpi_end3-__arm_cp.2_1
__arm_cp.2_2:
	.long	715827882                       @ 0x2aaaaaaa
.Lcpi_end4:
	.size	__arm_cp.2_2, .Lcpi_end4-__arm_cp.2_2
__arm_cp.2_3:
	.long	1431655764                      @ 0x55555554
.Lcpi_end5:
	.size	__arm_cp.2_3, .Lcpi_end5-__arm_cp.2_3
__arm_cp.2_4:
	.long	.L.str.1
.Lcpi_end6:
	.size	__arm_cp.2_4, .Lcpi_end6-__arm_cp.2_4
.Lfunc_end2:
	.size	GUI_DrawLine, .Lfunc_end2-GUI_DrawLine
	.cfi_endproc
	.cantunwind
	.fnend
                                        @ -- End function
	.section	.text.GUI_DrawRectangle,"ax",%progbits
	.hidden	GUI_DrawRectangle               @ -- Begin function GUI_DrawRectangle
	.globl	GUI_DrawRectangle
	.p2align	2
	.type	GUI_DrawRectangle,%function
	.code	16                              @ @GUI_DrawRectangle
	.thumb_func
GUI_DrawRectangle:
.Lfunc_begin3:
	.loc	5 134 0 is_stmt 1               @ SSD1327/OLED_GUI.c:134:0
	.fnstart
	.cfi_startproc
@ %bb.0:
	.save	{r4, r5, r6, r7, lr}
	push	{r4, r5, r6, r7, lr}
	.cfi_def_cfa_offset 20
	.cfi_offset lr, -4
	.cfi_offset r7, -8
	.cfi_offset r6, -12
	.cfi_offset r5, -16
	.cfi_offset r4, -20
	.pad	#100
	sub	sp, #100
	.cfi_def_cfa_offset 120
	ldr	r4, [sp, #128]
	ldr	r5, [sp, #124]
	ldr	r6, [sp, #120]
	mov	r7, r3
	str	r2, [sp, #72]                   @ 4-byte Spill
	str	r1, [sp, #68]                   @ 4-byte Spill
	str	r0, [sp, #64]                   @ 4-byte Spill
	str	r0, [sp, #60]                   @ 4-byte Spill
	add	r0, sp, #96
	str	r0, [sp, #56]                   @ 4-byte Spill
	ldr	r0, [sp, #64]                   @ 4-byte Reload
	str	r1, [sp, #52]                   @ 4-byte Spill
	ldr	r1, [sp, #56]                   @ 4-byte Reload
	strh	r0, [r1]
	add	r0, sp, #92
	ldr	r1, [sp, #68]                   @ 4-byte Reload
	strh	r1, [r0]
	add	r0, sp, #88
	ldr	r1, [sp, #72]                   @ 4-byte Reload
	strh	r1, [r0]
	add	r0, sp, #84
	strh	r3, [r0]
	add	r0, sp, #80
	strh	r6, [r0]
.Ltmp64:
	.loc	5 135 8 prologue_end            @ SSD1327/OLED_GUI.c:135:8
	ldr	r0, [sp, #56]                   @ 4-byte Reload
	ldrh	r3, [r0]
	.loc	5 135 27 is_stmt 0              @ SSD1327/OLED_GUI.c:135:27
	ldr	r6, __arm_cp.3_0
	ldrh	r6, [r6]
	.loc	5 135 43                        @ SSD1327/OLED_GUI.c:135:43
	cmp	r3, r6
	bgt	.LBB3_4
	b	.LBB3_1
.LBB3_1:
	.loc	5 0 43                          @ SSD1327/OLED_GUI.c:0:43
	add	r0, sp, #92
	.loc	5 135 46                        @ SSD1327/OLED_GUI.c:135:46
	ldrh	r0, [r0]
	.loc	5 135 65                        @ SSD1327/OLED_GUI.c:135:65
	ldr	r1, __arm_cp.3_0
	ldrh	r1, [r1, #2]
	.loc	5 135 79                        @ SSD1327/OLED_GUI.c:135:79
	cmp	r0, r1
	bgt	.LBB3_4
	b	.LBB3_2
.LBB3_2:
	.loc	5 0 79                          @ SSD1327/OLED_GUI.c:0:79
	add	r0, sp, #88
	.loc	5 136 8 is_stmt 1               @ SSD1327/OLED_GUI.c:136:8
	ldrh	r0, [r0]
	.loc	5 136 25 is_stmt 0              @ SSD1327/OLED_GUI.c:136:25
	ldr	r1, __arm_cp.3_0
	ldrh	r1, [r1]
	.loc	5 136 41                        @ SSD1327/OLED_GUI.c:136:41
	cmp	r0, r1
	bgt	.LBB3_4
	b	.LBB3_3
.LBB3_3:
	.loc	5 0 41                          @ SSD1327/OLED_GUI.c:0:41
	add	r0, sp, #84
	.loc	5 136 44                        @ SSD1327/OLED_GUI.c:136:44
	ldrh	r0, [r0]
	.loc	5 136 61                        @ SSD1327/OLED_GUI.c:136:61
	ldr	r1, __arm_cp.3_0
	ldrh	r1, [r1, #2]
.Ltmp65:
	.loc	5 135 8 is_stmt 1               @ SSD1327/OLED_GUI.c:135:8
	cmp	r0, r1
	ble	.LBB3_5
	b	.LBB3_4
.LBB3_4:
.Ltmp66:
	.loc	5 137 6                         @ SSD1327/OLED_GUI.c:137:6
	ldr	r0, __arm_cp.3_1
	bl	printf
	.loc	5 138 9                         @ SSD1327/OLED_GUI.c:138:9
	b	.LBB3_16
.Ltmp67:
.LBB3_5:
	.loc	5 0 9 is_stmt 0                 @ SSD1327/OLED_GUI.c:0:9
	add	r0, sp, #96
.Ltmp68:
	.loc	5 141 8 is_stmt 1               @ SSD1327/OLED_GUI.c:141:8
	ldrh	r0, [r0]
	add	r1, sp, #88
	.loc	5 141 17 is_stmt 0              @ SSD1327/OLED_GUI.c:141:17
	ldrh	r1, [r1]
.Ltmp69:
	.loc	5 141 8                         @ SSD1327/OLED_GUI.c:141:8
	cmp	r0, r1
	ble	.LBB3_7
	b	.LBB3_6
.LBB3_6:
	.loc	5 0 8                           @ SSD1327/OLED_GUI.c:0:8
	add	r0, sp, #96
.Ltmp70:
	.loc	5 142 18 is_stmt 1              @ SSD1327/OLED_GUI.c:142:18
	ldrh	r0, [r0]
	add	r1, sp, #88
	.loc	5 142 25 is_stmt 0              @ SSD1327/OLED_GUI.c:142:25
	ldrh	r1, [r1]
	.loc	5 142 9                         @ SSD1327/OLED_GUI.c:142:9
	bl	GUI_Swop
	b	.LBB3_7
.Ltmp71:
.LBB3_7:
	.loc	5 0 9                           @ SSD1327/OLED_GUI.c:0:9
	add	r0, sp, #92
.Ltmp72:
	.loc	5 143 8 is_stmt 1               @ SSD1327/OLED_GUI.c:143:8
	ldrh	r0, [r0]
	add	r1, sp, #84
	.loc	5 143 17 is_stmt 0              @ SSD1327/OLED_GUI.c:143:17
	ldrh	r1, [r1]
.Ltmp73:
	.loc	5 143 8                         @ SSD1327/OLED_GUI.c:143:8
	cmp	r0, r1
	ble	.LBB3_9
	b	.LBB3_8
.LBB3_8:
	.loc	5 0 8                           @ SSD1327/OLED_GUI.c:0:8
	add	r0, sp, #92
.Ltmp74:
	.loc	5 144 18 is_stmt 1              @ SSD1327/OLED_GUI.c:144:18
	ldrh	r0, [r0]
	add	r1, sp, #84
	.loc	5 144 25 is_stmt 0              @ SSD1327/OLED_GUI.c:144:25
	ldrh	r1, [r1]
	.loc	5 144 9                         @ SSD1327/OLED_GUI.c:144:9
	bl	GUI_Swop
	b	.LBB3_9
.Ltmp75:
.LBB3_9:
	.loc	5 147 8 is_stmt 1               @ SSD1327/OLED_GUI.c:147:8
	ldr	r0, [sp, #124]
.Ltmp76:
	.loc	5 147 8 is_stmt 0               @ SSD1327/OLED_GUI.c:147:8
	cmp	r0, #0
	beq	.LBB3_15
	b	.LBB3_10
.LBB3_10:
.Ltmp77:
	.loc	5 148 22 is_stmt 1              @ SSD1327/OLED_GUI.c:148:22
	ldr	r0, [sp, #92]
	add	r1, sp, #76
	.loc	5 148 20 is_stmt 0              @ SSD1327/OLED_GUI.c:148:20
	strh	r0, [r1]
	.loc	5 148 13                        @ SSD1327/OLED_GUI.c:148:13
	b	.LBB3_11
.LBB3_11:                               @ =>This Inner Loop Header: Depth=1
	.loc	5 0 13                          @ SSD1327/OLED_GUI.c:0:13
	add	r0, sp, #76
.Ltmp78:
	.loc	5 148 30                        @ SSD1327/OLED_GUI.c:148:30
	ldrh	r0, [r0]
	add	r1, sp, #84
	.loc	5 148 39                        @ SSD1327/OLED_GUI.c:148:39
	ldrh	r1, [r1]
.Ltmp79:
	.loc	5 148 9                         @ SSD1327/OLED_GUI.c:148:9
	cmp	r0, r1
	bge	.LBB3_14
	b	.LBB3_12
.LBB3_12:                               @   in Loop: Header=BB3_11 Depth=1
	.loc	5 0 9                           @ SSD1327/OLED_GUI.c:0:9
	add	r0, sp, #96
.Ltmp80:
	.loc	5 149 26 is_stmt 1              @ SSD1327/OLED_GUI.c:149:26
	ldrh	r0, [r0]
	add	r1, sp, #76
	.loc	5 149 34 is_stmt 0              @ SSD1327/OLED_GUI.c:149:34
	ldrh	r1, [r1]
	add	r2, sp, #88
	.loc	5 149 42                        @ SSD1327/OLED_GUI.c:149:42
	ldrh	r2, [r2]
	add	r3, sp, #80
	.loc	5 149 56                        @ SSD1327/OLED_GUI.c:149:56
	ldrh	r3, [r3]
	.loc	5 149 76                        @ SSD1327/OLED_GUI.c:149:76
	ldr	r4, [sp, #128]
	.loc	5 149 13                        @ SSD1327/OLED_GUI.c:149:13
	str	r4, [sp, #8]
	movs	r4, #0
	str	r4, [sp, #4]
	str	r3, [sp]
	str	r1, [sp, #48]                   @ 4-byte Spill
	ldr	r3, [sp, #48]                   @ 4-byte Reload
	bl	GUI_DrawLine
	.loc	5 150 9 is_stmt 1               @ SSD1327/OLED_GUI.c:150:9
	b	.LBB3_13
.Ltmp81:
.LBB3_13:                               @   in Loop: Header=BB3_11 Depth=1
	.loc	5 148 51                        @ SSD1327/OLED_GUI.c:148:51
	ldr	r0, [sp, #76]
	adds	r0, r0, #1
	add	r1, sp, #76
	strh	r0, [r1]
	.loc	5 148 9 is_stmt 0               @ SSD1327/OLED_GUI.c:148:9
	b	.LBB3_11
.Ltmp82:
.LBB3_14:
	.loc	5 151 5 is_stmt 1               @ SSD1327/OLED_GUI.c:151:5
	b	.LBB3_16
.Ltmp83:
.LBB3_15:
	.loc	5 0 5 is_stmt 0                 @ SSD1327/OLED_GUI.c:0:5
	add	r0, sp, #96
.Ltmp84:
	.loc	5 152 22 is_stmt 1              @ SSD1327/OLED_GUI.c:152:22
	ldrh	r1, [r0]
	add	r2, sp, #92
	.loc	5 152 30 is_stmt 0              @ SSD1327/OLED_GUI.c:152:30
	ldrh	r3, [r2]
	add	r4, sp, #88
	.loc	5 152 38                        @ SSD1327/OLED_GUI.c:152:38
	ldrh	r5, [r4]
	add	r6, sp, #80
	.loc	5 152 52                        @ SSD1327/OLED_GUI.c:152:52
	ldrh	r7, [r6]
	.loc	5 152 72                        @ SSD1327/OLED_GUI.c:152:72
	str	r0, [sp, #44]                   @ 4-byte Spill
	ldr	r0, [sp, #128]
	.loc	5 152 9                         @ SSD1327/OLED_GUI.c:152:9
	str	r0, [sp, #8]
	movs	r0, #0
	str	r0, [sp, #4]
	str	r7, [sp]
	str	r0, [sp, #40]                   @ 4-byte Spill
	mov	r0, r1
	mov	r1, r3
	str	r2, [sp, #36]                   @ 4-byte Spill
	mov	r2, r5
	str	r4, [sp, #32]                   @ 4-byte Spill
	str	r6, [sp, #28]                   @ 4-byte Spill
	bl	GUI_DrawLine
	.loc	5 153 22 is_stmt 1              @ SSD1327/OLED_GUI.c:153:22
	ldr	r0, [sp, #44]                   @ 4-byte Reload
	ldrh	r1, [r0]
	.loc	5 153 30 is_stmt 0              @ SSD1327/OLED_GUI.c:153:30
	ldr	r2, [sp, #36]                   @ 4-byte Reload
	ldrh	r3, [r2]
	add	r4, sp, #84
	.loc	5 153 46                        @ SSD1327/OLED_GUI.c:153:46
	ldrh	r5, [r4]
	.loc	5 153 52                        @ SSD1327/OLED_GUI.c:153:52
	ldr	r6, [sp, #28]                   @ 4-byte Reload
	ldrh	r7, [r6]
	.loc	5 153 72                        @ SSD1327/OLED_GUI.c:153:72
	ldr	r0, [sp, #128]
	.loc	5 153 9                         @ SSD1327/OLED_GUI.c:153:9
	str	r0, [sp, #8]
	ldr	r0, [sp, #40]                   @ 4-byte Reload
	str	r0, [sp, #4]
	str	r7, [sp]
	mov	r0, r1
	str	r1, [sp, #24]                   @ 4-byte Spill
	mov	r1, r3
	ldr	r2, [sp, #24]                   @ 4-byte Reload
	mov	r3, r5
	str	r4, [sp, #20]                   @ 4-byte Spill
	bl	GUI_DrawLine
	.loc	5 154 22 is_stmt 1              @ SSD1327/OLED_GUI.c:154:22
	ldr	r0, [sp, #32]                   @ 4-byte Reload
	ldrh	r1, [r0]
	.loc	5 154 28 is_stmt 0              @ SSD1327/OLED_GUI.c:154:28
	ldr	r2, [sp, #20]                   @ 4-byte Reload
	ldrh	r3, [r2]
	.loc	5 154 40                        @ SSD1327/OLED_GUI.c:154:40
	ldr	r4, [sp, #36]                   @ 4-byte Reload
	ldrh	r5, [r4]
	.loc	5 154 48                        @ SSD1327/OLED_GUI.c:154:48
	ldr	r6, [sp, #28]                   @ 4-byte Reload
	ldrh	r7, [r6]
	.loc	5 154 68                        @ SSD1327/OLED_GUI.c:154:68
	ldr	r0, [sp, #128]
	.loc	5 154 9                         @ SSD1327/OLED_GUI.c:154:9
	str	r0, [sp, #8]
	ldr	r0, [sp, #40]                   @ 4-byte Reload
	str	r0, [sp, #4]
	str	r7, [sp]
	mov	r0, r1
	str	r1, [sp, #16]                   @ 4-byte Spill
	mov	r1, r3
	ldr	r2, [sp, #16]                   @ 4-byte Reload
	mov	r3, r5
	bl	GUI_DrawLine
	.loc	5 155 22 is_stmt 1              @ SSD1327/OLED_GUI.c:155:22
	ldr	r0, [sp, #32]                   @ 4-byte Reload
	ldrh	r0, [r0]
	.loc	5 155 28 is_stmt 0              @ SSD1327/OLED_GUI.c:155:28
	ldr	r1, [sp, #20]                   @ 4-byte Reload
	ldrh	r2, [r1]
	.loc	5 155 34                        @ SSD1327/OLED_GUI.c:155:34
	ldr	r3, [sp, #44]                   @ 4-byte Reload
	ldrh	r4, [r3]
	.loc	5 155 48                        @ SSD1327/OLED_GUI.c:155:48
	ldr	r5, [sp, #28]                   @ 4-byte Reload
	ldrh	r6, [r5]
	.loc	5 155 68                        @ SSD1327/OLED_GUI.c:155:68
	ldr	r7, [sp, #128]
	.loc	5 155 9                         @ SSD1327/OLED_GUI.c:155:9
	str	r7, [sp, #8]
	ldr	r7, [sp, #40]                   @ 4-byte Reload
	str	r7, [sp, #4]
	str	r6, [sp]
	mov	r1, r2
	str	r2, [sp, #12]                   @ 4-byte Spill
	mov	r2, r4
	ldr	r3, [sp, #12]                   @ 4-byte Reload
	bl	GUI_DrawLine
	b	.LBB3_16
.Ltmp85:
.LBB3_16:
	.loc	5 157 1 is_stmt 1               @ SSD1327/OLED_GUI.c:157:1
	add	sp, #100
	pop	{r4, r5, r6, r7, pc}
.Ltmp86:
	.p2align	2
@ %bb.17:
	.loc	5 0 1 is_stmt 0                 @ SSD1327/OLED_GUI.c:0:1
__arm_cp.3_0:
	.long	sOLED_DIS
.Lcpi_end7:
	.size	__arm_cp.3_0, .Lcpi_end7-__arm_cp.3_0
__arm_cp.3_1:
	.long	.L.str.2
.Lcpi_end8:
	.size	__arm_cp.3_1, .Lcpi_end8-__arm_cp.3_1
.Lfunc_end3:
	.size	GUI_DrawRectangle, .Lfunc_end3-GUI_DrawRectangle
	.cfi_endproc
	.cantunwind
	.fnend
                                        @ -- End function
	.section	.text.GUI_DrawCircle,"ax",%progbits
	.hidden	GUI_DrawCircle                  @ -- Begin function GUI_DrawCircle
	.globl	GUI_DrawCircle
	.p2align	2
	.type	GUI_DrawCircle,%function
	.code	16                              @ @GUI_DrawCircle
	.thumb_func
GUI_DrawCircle:
.Lfunc_begin4:
	.loc	5 171 0 is_stmt 1               @ SSD1327/OLED_GUI.c:171:0
	.fnstart
	.cfi_startproc
@ %bb.0:
	.save	{r4, r5, r6, r7, lr}
	push	{r4, r5, r6, r7, lr}
	.cfi_def_cfa_offset 20
	.cfi_offset lr, -4
	.cfi_offset r7, -8
	.cfi_offset r6, -12
	.cfi_offset r5, -16
	.cfi_offset r4, -20
	.pad	#76
	sub	sp, #76
	.cfi_def_cfa_offset 96
	ldr	r4, [sp, #100]
	ldr	r5, [sp, #96]
	mov	r6, r3
	mov	r7, r2
	str	r1, [sp, #40]                   @ 4-byte Spill
	str	r0, [sp, #36]                   @ 4-byte Spill
	str	r0, [sp, #32]                   @ 4-byte Spill
	add	r0, sp, #72
	str	r0, [sp, #28]                   @ 4-byte Spill
	ldr	r0, [sp, #36]                   @ 4-byte Reload
	str	r1, [sp, #24]                   @ 4-byte Spill
	ldr	r1, [sp, #28]                   @ 4-byte Reload
	strh	r0, [r1]
	add	r0, sp, #68
	ldr	r1, [sp, #40]                   @ 4-byte Reload
	strh	r1, [r0]
	add	r0, sp, #64
	strh	r2, [r0]
	add	r0, sp, #60
	strh	r3, [r0]
.Ltmp87:
	.loc	5 172 8 prologue_end            @ SSD1327/OLED_GUI.c:172:8
	ldr	r0, [sp, #28]                   @ 4-byte Reload
	ldrh	r2, [r0]
	.loc	5 172 29 is_stmt 0              @ SSD1327/OLED_GUI.c:172:29
	ldr	r3, __arm_cp.4_0
	ldrh	r3, [r3]
	.loc	5 172 45                        @ SSD1327/OLED_GUI.c:172:45
	cmp	r2, r3
	bgt	.LBB4_2
	b	.LBB4_1
.LBB4_1:
	.loc	5 0 45                          @ SSD1327/OLED_GUI.c:0:45
	add	r0, sp, #68
	.loc	5 172 48                        @ SSD1327/OLED_GUI.c:172:48
	ldrh	r0, [r0]
	.loc	5 172 70                        @ SSD1327/OLED_GUI.c:172:70
	ldr	r1, __arm_cp.4_0
	ldrh	r1, [r1, #2]
.Ltmp88:
	.loc	5 172 8                         @ SSD1327/OLED_GUI.c:172:8
	cmp	r0, r1
	blt	.LBB4_3
	b	.LBB4_2
.LBB4_2:
.Ltmp89:
	.loc	5 173 3 is_stmt 1               @ SSD1327/OLED_GUI.c:173:3
	ldr	r0, __arm_cp.4_1
	bl	printf
	.loc	5 174 9                         @ SSD1327/OLED_GUI.c:174:9
	b	.LBB4_22
.Ltmp90:
.LBB4_3:
	.loc	5 0 9 is_stmt 0                 @ SSD1327/OLED_GUI.c:0:9
	add	r0, sp, #56
	movs	r1, #0
	.loc	5 179 14 is_stmt 1              @ SSD1327/OLED_GUI.c:179:14
	strh	r1, [r0]
	.loc	5 180 16                        @ SSD1327/OLED_GUI.c:180:16
	ldr	r0, [sp, #64]
	add	r1, sp, #52
	.loc	5 180 14 is_stmt 0              @ SSD1327/OLED_GUI.c:180:14
	strh	r0, [r1]
	.loc	5 183 23 is_stmt 1              @ SSD1327/OLED_GUI.c:183:23
	ldr	r0, [sp, #64]
	.loc	5 183 30 is_stmt 0              @ SSD1327/OLED_GUI.c:183:30
	lsls	r0, r0, #1
	movs	r1, #3
	.loc	5 183 21                        @ SSD1327/OLED_GUI.c:183:21
	subs	r0, r1, r0
	add	r1, sp, #48
	.loc	5 183 13                        @ SSD1327/OLED_GUI.c:183:13
	strh	r0, [r1]
.Ltmp91:
	.loc	5 186 8 is_stmt 1               @ SSD1327/OLED_GUI.c:186:8
	ldr	r0, [sp, #96]
.Ltmp92:
	.loc	5 186 8 is_stmt 0               @ SSD1327/OLED_GUI.c:186:8
	cmp	r0, #1
	beq	.LBB4_4
	b	.LBB4_15
.LBB4_4:
.Ltmp93:
	.loc	5 187 9 is_stmt 1               @ SSD1327/OLED_GUI.c:187:9
	b	.LBB4_5
.LBB4_5:                                @ =>This Loop Header: Depth=1
                                        @     Child Loop BB4_7 Depth 2
	.loc	5 0 9 is_stmt 0                 @ SSD1327/OLED_GUI.c:0:9
	add	r0, sp, #56
	.loc	5 187 15                        @ SSD1327/OLED_GUI.c:187:15
	ldrh	r0, [r0]
	sxth	r0, r0
	add	r1, sp, #52
	.loc	5 187 27                        @ SSD1327/OLED_GUI.c:187:27
	ldrh	r1, [r1]
	sxth	r1, r1
	.loc	5 187 9                         @ SSD1327/OLED_GUI.c:187:9
	cmp	r0, r1
	ble	.LBB4_6
	b	.LBB4_14
.LBB4_6:                                @   in Loop: Header=BB4_5 Depth=1
.Ltmp94:
	.loc	5 188 27 is_stmt 1              @ SSD1327/OLED_GUI.c:188:27
	ldr	r0, [sp, #56]
	add	r1, sp, #44
	.loc	5 188 25 is_stmt 0              @ SSD1327/OLED_GUI.c:188:25
	strh	r0, [r1]
	.loc	5 188 17                        @ SSD1327/OLED_GUI.c:188:17
	b	.LBB4_7
.LBB4_7:                                @   Parent Loop BB4_5 Depth=1
                                        @ =>  This Inner Loop Header: Depth=2
	.loc	5 0 17                          @ SSD1327/OLED_GUI.c:0:17
	add	r0, sp, #44
.Ltmp95:
	.loc	5 188 37                        @ SSD1327/OLED_GUI.c:188:37
	ldrh	r0, [r0]
	sxth	r0, r0
	add	r1, sp, #52
	.loc	5 188 48                        @ SSD1327/OLED_GUI.c:188:48
	ldrh	r1, [r1]
	sxth	r1, r1
.Ltmp96:
	.loc	5 188 13                        @ SSD1327/OLED_GUI.c:188:13
	cmp	r0, r1
	bgt	.LBB4_10
	b	.LBB4_8
.LBB4_8:                                @   in Loop: Header=BB4_7 Depth=2
.Ltmp97:
	.loc	5 189 31 is_stmt 1              @ SSD1327/OLED_GUI.c:189:31
	ldr	r0, [sp, #72]
	.loc	5 189 42 is_stmt 0              @ SSD1327/OLED_GUI.c:189:42
	ldr	r1, [sp, #56]
	.loc	5 189 40                        @ SSD1327/OLED_GUI.c:189:40
	adds	r0, r0, r1
	.loc	5 189 52                        @ SSD1327/OLED_GUI.c:189:52
	ldr	r1, [sp, #68]
	.loc	5 189 63                        @ SSD1327/OLED_GUI.c:189:63
	ldr	r2, [sp, #44]
	.loc	5 189 61                        @ SSD1327/OLED_GUI.c:189:61
	adds	r1, r1, r2
	add	r2, sp, #60
	.loc	5 189 72                        @ SSD1327/OLED_GUI.c:189:72
	ldrh	r3, [r2]
	movs	r4, #1
	.loc	5 189 17                        @ SSD1327/OLED_GUI.c:189:17
	str	r4, [sp]
	uxth	r0, r0
	uxth	r1, r1
	str	r2, [sp, #20]                   @ 4-byte Spill
	mov	r2, r3
	mov	r3, r4
	str	r4, [sp, #16]                   @ 4-byte Spill
	bl	GUI_DrawPoint
	.loc	5 190 31 is_stmt 1              @ SSD1327/OLED_GUI.c:190:31
	ldr	r0, [sp, #72]
	.loc	5 190 42 is_stmt 0              @ SSD1327/OLED_GUI.c:190:42
	ldr	r1, [sp, #56]
	.loc	5 190 40                        @ SSD1327/OLED_GUI.c:190:40
	subs	r0, r0, r1
	.loc	5 190 52                        @ SSD1327/OLED_GUI.c:190:52
	ldr	r1, [sp, #68]
	.loc	5 190 63                        @ SSD1327/OLED_GUI.c:190:63
	ldr	r2, [sp, #44]
	.loc	5 190 61                        @ SSD1327/OLED_GUI.c:190:61
	adds	r1, r1, r2
	.loc	5 190 72                        @ SSD1327/OLED_GUI.c:190:72
	ldr	r2, [sp, #20]                   @ 4-byte Reload
	ldrh	r2, [r2]
	.loc	5 190 17                        @ SSD1327/OLED_GUI.c:190:17
	ldr	r3, [sp, #16]                   @ 4-byte Reload
	str	r3, [sp]
	uxth	r0, r0
	uxth	r1, r1
	bl	GUI_DrawPoint
	.loc	5 191 31 is_stmt 1              @ SSD1327/OLED_GUI.c:191:31
	ldr	r0, [sp, #72]
	.loc	5 191 42 is_stmt 0              @ SSD1327/OLED_GUI.c:191:42
	ldr	r1, [sp, #44]
	.loc	5 191 40                        @ SSD1327/OLED_GUI.c:191:40
	subs	r0, r0, r1
	.loc	5 191 51                        @ SSD1327/OLED_GUI.c:191:51
	ldr	r1, [sp, #68]
	.loc	5 191 62                        @ SSD1327/OLED_GUI.c:191:62
	ldr	r2, [sp, #56]
	.loc	5 191 60                        @ SSD1327/OLED_GUI.c:191:60
	adds	r1, r1, r2
	.loc	5 191 72                        @ SSD1327/OLED_GUI.c:191:72
	ldr	r2, [sp, #20]                   @ 4-byte Reload
	ldrh	r2, [r2]
	.loc	5 191 17                        @ SSD1327/OLED_GUI.c:191:17
	ldr	r3, [sp, #16]                   @ 4-byte Reload
	str	r3, [sp]
	uxth	r0, r0
	uxth	r1, r1
	bl	GUI_DrawPoint
	.loc	5 192 31 is_stmt 1              @ SSD1327/OLED_GUI.c:192:31
	ldr	r0, [sp, #72]
	.loc	5 192 42 is_stmt 0              @ SSD1327/OLED_GUI.c:192:42
	ldr	r1, [sp, #44]
	.loc	5 192 40                        @ SSD1327/OLED_GUI.c:192:40
	subs	r0, r0, r1
	.loc	5 192 51                        @ SSD1327/OLED_GUI.c:192:51
	ldr	r1, [sp, #68]
	.loc	5 192 62                        @ SSD1327/OLED_GUI.c:192:62
	ldr	r2, [sp, #56]
	.loc	5 192 60                        @ SSD1327/OLED_GUI.c:192:60
	subs	r1, r1, r2
	.loc	5 192 72                        @ SSD1327/OLED_GUI.c:192:72
	ldr	r2, [sp, #20]                   @ 4-byte Reload
	ldrh	r2, [r2]
	.loc	5 192 17                        @ SSD1327/OLED_GUI.c:192:17
	ldr	r3, [sp, #16]                   @ 4-byte Reload
	str	r3, [sp]
	uxth	r0, r0
	uxth	r1, r1
	bl	GUI_DrawPoint
	.loc	5 193 31 is_stmt 1              @ SSD1327/OLED_GUI.c:193:31
	ldr	r0, [sp, #72]
	.loc	5 193 42 is_stmt 0              @ SSD1327/OLED_GUI.c:193:42
	ldr	r1, [sp, #56]
	.loc	5 193 40                        @ SSD1327/OLED_GUI.c:193:40
	subs	r0, r0, r1
	.loc	5 193 52                        @ SSD1327/OLED_GUI.c:193:52
	ldr	r1, [sp, #68]
	.loc	5 193 63                        @ SSD1327/OLED_GUI.c:193:63
	ldr	r2, [sp, #44]
	.loc	5 193 61                        @ SSD1327/OLED_GUI.c:193:61
	subs	r1, r1, r2
	.loc	5 193 72                        @ SSD1327/OLED_GUI.c:193:72
	ldr	r2, [sp, #20]                   @ 4-byte Reload
	ldrh	r2, [r2]
	.loc	5 193 17                        @ SSD1327/OLED_GUI.c:193:17
	ldr	r3, [sp, #16]                   @ 4-byte Reload
	str	r3, [sp]
	uxth	r0, r0
	uxth	r1, r1
	bl	GUI_DrawPoint
	.loc	5 194 31 is_stmt 1              @ SSD1327/OLED_GUI.c:194:31
	ldr	r0, [sp, #72]
	.loc	5 194 42 is_stmt 0              @ SSD1327/OLED_GUI.c:194:42
	ldr	r1, [sp, #56]
	.loc	5 194 40                        @ SSD1327/OLED_GUI.c:194:40
	adds	r0, r0, r1
	.loc	5 194 52                        @ SSD1327/OLED_GUI.c:194:52
	ldr	r1, [sp, #68]
	.loc	5 194 63                        @ SSD1327/OLED_GUI.c:194:63
	ldr	r2, [sp, #44]
	.loc	5 194 61                        @ SSD1327/OLED_GUI.c:194:61
	subs	r1, r1, r2
	.loc	5 194 72                        @ SSD1327/OLED_GUI.c:194:72
	ldr	r2, [sp, #20]                   @ 4-byte Reload
	ldrh	r2, [r2]
	.loc	5 194 17                        @ SSD1327/OLED_GUI.c:194:17
	ldr	r3, [sp, #16]                   @ 4-byte Reload
	str	r3, [sp]
	uxth	r0, r0
	uxth	r1, r1
	bl	GUI_DrawPoint
	.loc	5 195 31 is_stmt 1              @ SSD1327/OLED_GUI.c:195:31
	ldr	r0, [sp, #72]
	.loc	5 195 42 is_stmt 0              @ SSD1327/OLED_GUI.c:195:42
	ldr	r1, [sp, #44]
	.loc	5 195 40                        @ SSD1327/OLED_GUI.c:195:40
	adds	r0, r0, r1
	.loc	5 195 51                        @ SSD1327/OLED_GUI.c:195:51
	ldr	r1, [sp, #68]
	.loc	5 195 62                        @ SSD1327/OLED_GUI.c:195:62
	ldr	r2, [sp, #56]
	.loc	5 195 60                        @ SSD1327/OLED_GUI.c:195:60
	subs	r1, r1, r2
	.loc	5 195 72                        @ SSD1327/OLED_GUI.c:195:72
	ldr	r2, [sp, #20]                   @ 4-byte Reload
	ldrh	r2, [r2]
	.loc	5 195 17                        @ SSD1327/OLED_GUI.c:195:17
	ldr	r3, [sp, #16]                   @ 4-byte Reload
	str	r3, [sp]
	uxth	r0, r0
	uxth	r1, r1
	bl	GUI_DrawPoint
	.loc	5 196 31 is_stmt 1              @ SSD1327/OLED_GUI.c:196:31
	ldr	r0, [sp, #72]
	.loc	5 196 42 is_stmt 0              @ SSD1327/OLED_GUI.c:196:42
	ldr	r1, [sp, #44]
	.loc	5 196 40                        @ SSD1327/OLED_GUI.c:196:40
	adds	r0, r0, r1
	.loc	5 196 51                        @ SSD1327/OLED_GUI.c:196:51
	ldr	r1, [sp, #68]
	.loc	5 196 62                        @ SSD1327/OLED_GUI.c:196:62
	ldr	r2, [sp, #56]
	.loc	5 196 60                        @ SSD1327/OLED_GUI.c:196:60
	adds	r1, r1, r2
	.loc	5 196 72                        @ SSD1327/OLED_GUI.c:196:72
	ldr	r2, [sp, #20]                   @ 4-byte Reload
	ldrh	r2, [r2]
	.loc	5 196 17                        @ SSD1327/OLED_GUI.c:196:17
	ldr	r3, [sp, #16]                   @ 4-byte Reload
	str	r3, [sp]
	uxth	r0, r0
	uxth	r1, r1
	bl	GUI_DrawPoint
	.loc	5 197 13 is_stmt 1              @ SSD1327/OLED_GUI.c:197:13
	b	.LBB4_9
.Ltmp98:
.LBB4_9:                                @   in Loop: Header=BB4_7 Depth=2
	.loc	5 188 66                        @ SSD1327/OLED_GUI.c:188:66
	ldr	r0, [sp, #44]
	adds	r0, r0, #1
	add	r1, sp, #44
	strh	r0, [r1]
	.loc	5 188 13 is_stmt 0              @ SSD1327/OLED_GUI.c:188:13
	b	.LBB4_7
.Ltmp99:
.LBB4_10:                               @   in Loop: Header=BB4_5 Depth=1
	.loc	5 0 13                          @ SSD1327/OLED_GUI.c:0:13
	add	r0, sp, #48
.Ltmp100:
	.loc	5 198 16 is_stmt 1              @ SSD1327/OLED_GUI.c:198:16
	ldrh	r0, [r0]
	sxth	r0, r0
.Ltmp101:
	.loc	5 198 16 is_stmt 0              @ SSD1327/OLED_GUI.c:198:16
	cmp	r0, #0
	bpl	.LBB4_12
	b	.LBB4_11
.LBB4_11:                               @   in Loop: Header=BB4_5 Depth=1
.Ltmp102:
	.loc	5 199 28 is_stmt 1              @ SSD1327/OLED_GUI.c:199:28
	ldr	r0, [sp, #56]
	.loc	5 199 26 is_stmt 0              @ SSD1327/OLED_GUI.c:199:26
	lsls	r0, r0, #2
	.loc	5 199 21                        @ SSD1327/OLED_GUI.c:199:21
	ldr	r1, [sp, #48]
	.loc	5 199 37                        @ SSD1327/OLED_GUI.c:199:37
	adds	r0, r0, r1
	.loc	5 199 21                        @ SSD1327/OLED_GUI.c:199:21
	adds	r0, r0, #6
	add	r1, sp, #48
	strh	r0, [r1]
	.loc	5 199 17                        @ SSD1327/OLED_GUI.c:199:17
	b	.LBB4_13
.LBB4_12:                               @   in Loop: Header=BB4_5 Depth=1
.Ltmp103:
	.loc	5 201 33 is_stmt 1              @ SSD1327/OLED_GUI.c:201:33
	ldr	r0, [sp, #56]
	.loc	5 201 44 is_stmt 0              @ SSD1327/OLED_GUI.c:201:44
	ldr	r1, [sp, #52]
	.loc	5 201 42                        @ SSD1327/OLED_GUI.c:201:42
	subs	r0, r0, r1
	.loc	5 201 31                        @ SSD1327/OLED_GUI.c:201:31
	lsls	r0, r0, #2
	.loc	5 201 21                        @ SSD1327/OLED_GUI.c:201:21
	ldr	r1, [sp, #48]
	.loc	5 201 27                        @ SSD1327/OLED_GUI.c:201:27
	adds	r0, r0, r1
	.loc	5 201 21                        @ SSD1327/OLED_GUI.c:201:21
	adds	r0, #10
	add	r1, sp, #48
	strh	r0, [r1]
	.loc	5 202 26 is_stmt 1              @ SSD1327/OLED_GUI.c:202:26
	ldr	r0, [sp, #52]
	subs	r0, r0, #1
	add	r1, sp, #52
	strh	r0, [r1]
	b	.LBB4_13
.Ltmp104:
.LBB4_13:                               @   in Loop: Header=BB4_5 Depth=1
	.loc	5 204 22                        @ SSD1327/OLED_GUI.c:204:22
	ldr	r0, [sp, #56]
	adds	r0, r0, #1
	add	r1, sp, #56
	strh	r0, [r1]
.Ltmp105:
	.loc	5 187 9                         @ SSD1327/OLED_GUI.c:187:9
	b	.LBB4_5
.LBB4_14:
	.loc	5 206 5                         @ SSD1327/OLED_GUI.c:206:5
	b	.LBB4_22
.Ltmp106:
.LBB4_15:
	.loc	5 207 9                         @ SSD1327/OLED_GUI.c:207:9
	b	.LBB4_16
.LBB4_16:                               @ =>This Inner Loop Header: Depth=1
	.loc	5 0 9 is_stmt 0                 @ SSD1327/OLED_GUI.c:0:9
	add	r0, sp, #56
	.loc	5 207 15                        @ SSD1327/OLED_GUI.c:207:15
	ldrh	r0, [r0]
	sxth	r0, r0
	add	r1, sp, #52
	.loc	5 207 27                        @ SSD1327/OLED_GUI.c:207:27
	ldrh	r1, [r1]
	sxth	r1, r1
	.loc	5 207 9                         @ SSD1327/OLED_GUI.c:207:9
	cmp	r0, r1
	ble	.LBB4_17
	b	.LBB4_21
.LBB4_17:                               @   in Loop: Header=BB4_16 Depth=1
.Ltmp107:
	.loc	5 208 27 is_stmt 1              @ SSD1327/OLED_GUI.c:208:27
	ldr	r0, [sp, #72]
	.loc	5 208 38 is_stmt 0              @ SSD1327/OLED_GUI.c:208:38
	ldr	r1, [sp, #56]
	.loc	5 208 36                        @ SSD1327/OLED_GUI.c:208:36
	adds	r0, r0, r1
	.loc	5 208 48                        @ SSD1327/OLED_GUI.c:208:48
	ldr	r1, [sp, #68]
	.loc	5 208 59                        @ SSD1327/OLED_GUI.c:208:59
	ldr	r2, [sp, #52]
	.loc	5 208 57                        @ SSD1327/OLED_GUI.c:208:57
	adds	r1, r1, r2
	add	r2, sp, #60
	.loc	5 208 69                        @ SSD1327/OLED_GUI.c:208:69
	ldrh	r3, [r2]
	.loc	5 208 76                        @ SSD1327/OLED_GUI.c:208:76
	ldr	r4, [sp, #100]
	movs	r5, #1
	.loc	5 208 13                        @ SSD1327/OLED_GUI.c:208:13
	str	r5, [sp]
	uxth	r0, r0
	uxth	r1, r1
	str	r2, [sp, #12]                   @ 4-byte Spill
	mov	r2, r3
	mov	r3, r4
	str	r5, [sp, #8]                    @ 4-byte Spill
	bl	GUI_DrawPoint
	.loc	5 209 27 is_stmt 1              @ SSD1327/OLED_GUI.c:209:27
	ldr	r0, [sp, #72]
	.loc	5 209 38 is_stmt 0              @ SSD1327/OLED_GUI.c:209:38
	ldr	r1, [sp, #56]
	.loc	5 209 36                        @ SSD1327/OLED_GUI.c:209:36
	subs	r0, r0, r1
	.loc	5 209 48                        @ SSD1327/OLED_GUI.c:209:48
	ldr	r1, [sp, #68]
	.loc	5 209 59                        @ SSD1327/OLED_GUI.c:209:59
	ldr	r2, [sp, #52]
	.loc	5 209 57                        @ SSD1327/OLED_GUI.c:209:57
	adds	r1, r1, r2
	.loc	5 209 69                        @ SSD1327/OLED_GUI.c:209:69
	ldr	r2, [sp, #12]                   @ 4-byte Reload
	ldrh	r2, [r2]
	.loc	5 209 76                        @ SSD1327/OLED_GUI.c:209:76
	ldr	r3, [sp, #100]
	.loc	5 209 13                        @ SSD1327/OLED_GUI.c:209:13
	ldr	r4, [sp, #8]                    @ 4-byte Reload
	str	r4, [sp]
	uxth	r0, r0
	uxth	r1, r1
	bl	GUI_DrawPoint
	.loc	5 210 27 is_stmt 1              @ SSD1327/OLED_GUI.c:210:27
	ldr	r0, [sp, #72]
	.loc	5 210 38 is_stmt 0              @ SSD1327/OLED_GUI.c:210:38
	ldr	r1, [sp, #52]
	.loc	5 210 36                        @ SSD1327/OLED_GUI.c:210:36
	subs	r0, r0, r1
	.loc	5 210 48                        @ SSD1327/OLED_GUI.c:210:48
	ldr	r1, [sp, #68]
	.loc	5 210 59                        @ SSD1327/OLED_GUI.c:210:59
	ldr	r2, [sp, #56]
	.loc	5 210 57                        @ SSD1327/OLED_GUI.c:210:57
	adds	r1, r1, r2
	.loc	5 210 69                        @ SSD1327/OLED_GUI.c:210:69
	ldr	r2, [sp, #12]                   @ 4-byte Reload
	ldrh	r2, [r2]
	.loc	5 210 76                        @ SSD1327/OLED_GUI.c:210:76
	ldr	r3, [sp, #100]
	.loc	5 210 13                        @ SSD1327/OLED_GUI.c:210:13
	ldr	r4, [sp, #8]                    @ 4-byte Reload
	str	r4, [sp]
	uxth	r0, r0
	uxth	r1, r1
	bl	GUI_DrawPoint
	.loc	5 211 27 is_stmt 1              @ SSD1327/OLED_GUI.c:211:27
	ldr	r0, [sp, #72]
	.loc	5 211 38 is_stmt 0              @ SSD1327/OLED_GUI.c:211:38
	ldr	r1, [sp, #52]
	.loc	5 211 36                        @ SSD1327/OLED_GUI.c:211:36
	subs	r0, r0, r1
	.loc	5 211 48                        @ SSD1327/OLED_GUI.c:211:48
	ldr	r1, [sp, #68]
	.loc	5 211 59                        @ SSD1327/OLED_GUI.c:211:59
	ldr	r2, [sp, #56]
	.loc	5 211 57                        @ SSD1327/OLED_GUI.c:211:57
	subs	r1, r1, r2
	.loc	5 211 69                        @ SSD1327/OLED_GUI.c:211:69
	ldr	r2, [sp, #12]                   @ 4-byte Reload
	ldrh	r2, [r2]
	.loc	5 211 76                        @ SSD1327/OLED_GUI.c:211:76
	ldr	r3, [sp, #100]
	.loc	5 211 13                        @ SSD1327/OLED_GUI.c:211:13
	ldr	r4, [sp, #8]                    @ 4-byte Reload
	str	r4, [sp]
	uxth	r0, r0
	uxth	r1, r1
	bl	GUI_DrawPoint
	.loc	5 212 27 is_stmt 1              @ SSD1327/OLED_GUI.c:212:27
	ldr	r0, [sp, #72]
	.loc	5 212 38 is_stmt 0              @ SSD1327/OLED_GUI.c:212:38
	ldr	r1, [sp, #56]
	.loc	5 212 36                        @ SSD1327/OLED_GUI.c:212:36
	subs	r0, r0, r1
	.loc	5 212 48                        @ SSD1327/OLED_GUI.c:212:48
	ldr	r1, [sp, #68]
	.loc	5 212 59                        @ SSD1327/OLED_GUI.c:212:59
	ldr	r2, [sp, #52]
	.loc	5 212 57                        @ SSD1327/OLED_GUI.c:212:57
	subs	r1, r1, r2
	.loc	5 212 69                        @ SSD1327/OLED_GUI.c:212:69
	ldr	r2, [sp, #12]                   @ 4-byte Reload
	ldrh	r2, [r2]
	.loc	5 212 76                        @ SSD1327/OLED_GUI.c:212:76
	ldr	r3, [sp, #100]
	.loc	5 212 13                        @ SSD1327/OLED_GUI.c:212:13
	ldr	r4, [sp, #8]                    @ 4-byte Reload
	str	r4, [sp]
	uxth	r0, r0
	uxth	r1, r1
	bl	GUI_DrawPoint
	.loc	5 213 27 is_stmt 1              @ SSD1327/OLED_GUI.c:213:27
	ldr	r0, [sp, #72]
	.loc	5 213 38 is_stmt 0              @ SSD1327/OLED_GUI.c:213:38
	ldr	r1, [sp, #56]
	.loc	5 213 36                        @ SSD1327/OLED_GUI.c:213:36
	adds	r0, r0, r1
	.loc	5 213 48                        @ SSD1327/OLED_GUI.c:213:48
	ldr	r1, [sp, #68]
	.loc	5 213 59                        @ SSD1327/OLED_GUI.c:213:59
	ldr	r2, [sp, #52]
	.loc	5 213 57                        @ SSD1327/OLED_GUI.c:213:57
	subs	r1, r1, r2
	.loc	5 213 69                        @ SSD1327/OLED_GUI.c:213:69
	ldr	r2, [sp, #12]                   @ 4-byte Reload
	ldrh	r2, [r2]
	.loc	5 213 76                        @ SSD1327/OLED_GUI.c:213:76
	ldr	r3, [sp, #100]
	.loc	5 213 13                        @ SSD1327/OLED_GUI.c:213:13
	ldr	r4, [sp, #8]                    @ 4-byte Reload
	str	r4, [sp]
	uxth	r0, r0
	uxth	r1, r1
	bl	GUI_DrawPoint
	.loc	5 214 27 is_stmt 1              @ SSD1327/OLED_GUI.c:214:27
	ldr	r0, [sp, #72]
	.loc	5 214 38 is_stmt 0              @ SSD1327/OLED_GUI.c:214:38
	ldr	r1, [sp, #52]
	.loc	5 214 36                        @ SSD1327/OLED_GUI.c:214:36
	adds	r0, r0, r1
	.loc	5 214 48                        @ SSD1327/OLED_GUI.c:214:48
	ldr	r1, [sp, #68]
	.loc	5 214 59                        @ SSD1327/OLED_GUI.c:214:59
	ldr	r2, [sp, #56]
	.loc	5 214 57                        @ SSD1327/OLED_GUI.c:214:57
	subs	r1, r1, r2
	.loc	5 214 69                        @ SSD1327/OLED_GUI.c:214:69
	ldr	r2, [sp, #12]                   @ 4-byte Reload
	ldrh	r2, [r2]
	.loc	5 214 76                        @ SSD1327/OLED_GUI.c:214:76
	ldr	r3, [sp, #100]
	.loc	5 214 13                        @ SSD1327/OLED_GUI.c:214:13
	ldr	r4, [sp, #8]                    @ 4-byte Reload
	str	r4, [sp]
	uxth	r0, r0
	uxth	r1, r1
	bl	GUI_DrawPoint
	.loc	5 215 27 is_stmt 1              @ SSD1327/OLED_GUI.c:215:27
	ldr	r0, [sp, #72]
	.loc	5 215 38 is_stmt 0              @ SSD1327/OLED_GUI.c:215:38
	ldr	r1, [sp, #52]
	.loc	5 215 36                        @ SSD1327/OLED_GUI.c:215:36
	adds	r0, r0, r1
	.loc	5 215 48                        @ SSD1327/OLED_GUI.c:215:48
	ldr	r1, [sp, #68]
	.loc	5 215 59                        @ SSD1327/OLED_GUI.c:215:59
	ldr	r2, [sp, #56]
	.loc	5 215 57                        @ SSD1327/OLED_GUI.c:215:57
	adds	r1, r1, r2
	.loc	5 215 69                        @ SSD1327/OLED_GUI.c:215:69
	ldr	r2, [sp, #12]                   @ 4-byte Reload
	ldrh	r2, [r2]
	.loc	5 215 76                        @ SSD1327/OLED_GUI.c:215:76
	ldr	r3, [sp, #100]
	.loc	5 215 13                        @ SSD1327/OLED_GUI.c:215:13
	ldr	r4, [sp, #8]                    @ 4-byte Reload
	str	r4, [sp]
	uxth	r0, r0
	uxth	r1, r1
	bl	GUI_DrawPoint
	add	r0, sp, #48
.Ltmp108:
	.loc	5 217 16 is_stmt 1              @ SSD1327/OLED_GUI.c:217:16
	ldrh	r0, [r0]
	sxth	r0, r0
.Ltmp109:
	.loc	5 217 16 is_stmt 0              @ SSD1327/OLED_GUI.c:217:16
	cmp	r0, #0
	bpl	.LBB4_19
	b	.LBB4_18
.LBB4_18:                               @   in Loop: Header=BB4_16 Depth=1
.Ltmp110:
	.loc	5 218 28 is_stmt 1              @ SSD1327/OLED_GUI.c:218:28
	ldr	r0, [sp, #56]
	.loc	5 218 26 is_stmt 0              @ SSD1327/OLED_GUI.c:218:26
	lsls	r0, r0, #2
	.loc	5 218 21                        @ SSD1327/OLED_GUI.c:218:21
	ldr	r1, [sp, #48]
	.loc	5 218 37                        @ SSD1327/OLED_GUI.c:218:37
	adds	r0, r0, r1
	.loc	5 218 21                        @ SSD1327/OLED_GUI.c:218:21
	adds	r0, r0, #6
	add	r1, sp, #48
	strh	r0, [r1]
	.loc	5 218 17                        @ SSD1327/OLED_GUI.c:218:17
	b	.LBB4_20
.LBB4_19:                               @   in Loop: Header=BB4_16 Depth=1
.Ltmp111:
	.loc	5 220 33 is_stmt 1              @ SSD1327/OLED_GUI.c:220:33
	ldr	r0, [sp, #56]
	.loc	5 220 44 is_stmt 0              @ SSD1327/OLED_GUI.c:220:44
	ldr	r1, [sp, #52]
	.loc	5 220 42                        @ SSD1327/OLED_GUI.c:220:42
	subs	r0, r0, r1
	.loc	5 220 31                        @ SSD1327/OLED_GUI.c:220:31
	lsls	r0, r0, #2
	.loc	5 220 21                        @ SSD1327/OLED_GUI.c:220:21
	ldr	r1, [sp, #48]
	.loc	5 220 27                        @ SSD1327/OLED_GUI.c:220:27
	adds	r0, r0, r1
	.loc	5 220 21                        @ SSD1327/OLED_GUI.c:220:21
	adds	r0, #10
	add	r1, sp, #48
	strh	r0, [r1]
	.loc	5 221 26 is_stmt 1              @ SSD1327/OLED_GUI.c:221:26
	ldr	r0, [sp, #52]
	subs	r0, r0, #1
	add	r1, sp, #52
	strh	r0, [r1]
	b	.LBB4_20
.Ltmp112:
.LBB4_20:                               @   in Loop: Header=BB4_16 Depth=1
	.loc	5 223 22                        @ SSD1327/OLED_GUI.c:223:22
	ldr	r0, [sp, #56]
	adds	r0, r0, #1
	add	r1, sp, #56
	strh	r0, [r1]
.Ltmp113:
	.loc	5 207 9                         @ SSD1327/OLED_GUI.c:207:9
	b	.LBB4_16
.Ltmp114:
.LBB4_21:
	.loc	5 0 9 is_stmt 0                 @ SSD1327/OLED_GUI.c:0:9
	b	.LBB4_22
.LBB4_22:
	.loc	5 226 1 is_stmt 1               @ SSD1327/OLED_GUI.c:226:1
	add	sp, #76
	pop	{r4, r5, r6, r7, pc}
.Ltmp115:
	.p2align	2
@ %bb.23:
	.loc	5 0 1 is_stmt 0                 @ SSD1327/OLED_GUI.c:0:1
__arm_cp.4_0:
	.long	sOLED_DIS
.Lcpi_end9:
	.size	__arm_cp.4_0, .Lcpi_end9-__arm_cp.4_0
__arm_cp.4_1:
	.long	.L.str.3
.Lcpi_end10:
	.size	__arm_cp.4_1, .Lcpi_end10-__arm_cp.4_1
.Lfunc_end4:
	.size	GUI_DrawCircle, .Lfunc_end4-GUI_DrawCircle
	.cfi_endproc
	.cantunwind
	.fnend
                                        @ -- End function
	.section	.text.GUI_DisChar,"ax",%progbits
	.hidden	GUI_DisChar                     @ -- Begin function GUI_DisChar
	.globl	GUI_DisChar
	.p2align	2
	.type	GUI_DisChar,%function
	.code	16                              @ @GUI_DisChar
	.thumb_func
GUI_DisChar:
.Lfunc_begin5:
	.loc	5 240 0 is_stmt 1               @ SSD1327/OLED_GUI.c:240:0
	.fnstart
	.cfi_startproc
@ %bb.0:
	.save	{r4, r5, r6, r7, lr}
	push	{r4, r5, r6, r7, lr}
	.cfi_def_cfa_offset 20
	.cfi_offset lr, -4
	.cfi_offset r7, -8
	.cfi_offset r6, -12
	.cfi_offset r5, -16
	.cfi_offset r4, -20
	.pad	#76
	sub	sp, #76
	.cfi_def_cfa_offset 96
	ldr	r4, [sp, #100]
	ldr	r5, [sp, #96]
	mov	r6, r2
	mov	r7, r1
	str	r0, [sp, #32]                   @ 4-byte Spill
	str	r0, [sp, #28]                   @ 4-byte Spill
	add	r0, sp, #72
	str	r0, [sp, #24]                   @ 4-byte Spill
	ldr	r0, [sp, #32]                   @ 4-byte Reload
	str	r1, [sp, #20]                   @ 4-byte Spill
	ldr	r1, [sp, #24]                   @ 4-byte Reload
	strh	r0, [r1]
	add	r0, sp, #68
	ldr	r1, [sp, #20]                   @ 4-byte Reload
	strh	r1, [r0]
	add	r0, sp, #64
	strb	r2, [r0]
	str	r3, [sp, #60]
	add	r0, sp, #56
	strh	r5, [r0]
	add	r0, sp, #52
	strh	r4, [r0]
.Ltmp116:
	.loc	5 243 8 prologue_end            @ SSD1327/OLED_GUI.c:243:8
	ldr	r0, [sp, #24]                   @ 4-byte Reload
	ldrh	r2, [r0]
	.loc	5 243 27 is_stmt 0              @ SSD1327/OLED_GUI.c:243:27
	ldr	r3, __arm_cp.5_0
	ldrh	r3, [r3]
	.loc	5 243 43                        @ SSD1327/OLED_GUI.c:243:43
	cmp	r2, r3
	bgt	.LBB5_2
	b	.LBB5_1
.LBB5_1:
	.loc	5 0 43                          @ SSD1327/OLED_GUI.c:0:43
	add	r0, sp, #68
	.loc	5 243 46                        @ SSD1327/OLED_GUI.c:243:46
	ldrh	r0, [r0]
	.loc	5 243 65                        @ SSD1327/OLED_GUI.c:243:65
	ldr	r1, __arm_cp.5_0
	ldrh	r1, [r1, #2]
.Ltmp117:
	.loc	5 243 8                         @ SSD1327/OLED_GUI.c:243:8
	cmp	r0, r1
	ble	.LBB5_3
	b	.LBB5_2
.LBB5_2:
.Ltmp118:
	.loc	5 244 3 is_stmt 1               @ SSD1327/OLED_GUI.c:244:3
	ldr	r0, __arm_cp.5_1
	bl	printf
	.loc	5 245 9                         @ SSD1327/OLED_GUI.c:245:9
	b	.LBB5_25
.Ltmp119:
.LBB5_3:
	.loc	5 0 9 is_stmt 0                 @ SSD1327/OLED_GUI.c:0:9
	add	r0, sp, #64
	.loc	5 248 28 is_stmt 1              @ SSD1327/OLED_GUI.c:248:28
	ldrb	r0, [r0]
	.loc	5 248 39 is_stmt 0              @ SSD1327/OLED_GUI.c:248:39
	subs	r0, #32
	.loc	5 248 48                        @ SSD1327/OLED_GUI.c:248:48
	ldr	r1, [sp, #60]
	.loc	5 248 54                        @ SSD1327/OLED_GUI.c:248:54
	ldrh	r2, [r1, #6]
	.loc	5 248 46                        @ SSD1327/OLED_GUI.c:248:46
	muls	r2, r0, r2
	.loc	5 248 69                        @ SSD1327/OLED_GUI.c:248:69
	ldrh	r0, [r1, #4]
	.loc	5 248 75                        @ SSD1327/OLED_GUI.c:248:75
	lsrs	r1, r0, #3
	.loc	5 248 79                        @ SSD1327/OLED_GUI.c:248:79
	lsls	r0, r0, #29
	adds	r3, r1, #1
	cmp	r0, #0
	str	r2, [sp, #16]                   @ 4-byte Spill
	str	r1, [sp, #12]                   @ 4-byte Spill
	str	r3, [sp, #8]                    @ 4-byte Spill
	bne	.LBB5_5
@ %bb.4:
	ldr	r0, [sp, #12]                   @ 4-byte Reload
	str	r0, [sp, #8]                    @ 4-byte Spill
.LBB5_5:
	ldr	r0, [sp, #8]                    @ 4-byte Reload
	.loc	5 248 61                        @ SSD1327/OLED_GUI.c:248:61
	ldr	r1, [sp, #16]                   @ 4-byte Reload
	muls	r0, r1, r0
	.loc	5 248 14                        @ SSD1327/OLED_GUI.c:248:14
	str	r0, [sp, #40]
	.loc	5 249 33 is_stmt 1              @ SSD1327/OLED_GUI.c:249:33
	ldr	r0, [sp, #60]
	.loc	5 249 39 is_stmt 0              @ SSD1327/OLED_GUI.c:249:39
	ldr	r0, [r0]
	.loc	5 249 45                        @ SSD1327/OLED_GUI.c:249:45
	ldr	r1, [sp, #40]
	.loc	5 249 33                        @ SSD1327/OLED_GUI.c:249:33
	adds	r0, r0, r1
	.loc	5 249 26                        @ SSD1327/OLED_GUI.c:249:26
	str	r0, [sp, #36]
	add	r0, sp, #48
	movs	r1, #0
.Ltmp120:
	.loc	5 251 14 is_stmt 1              @ SSD1327/OLED_GUI.c:251:14
	strh	r1, [r0]
	.loc	5 251 9 is_stmt 0               @ SSD1327/OLED_GUI.c:251:9
	b	.LBB5_6
.LBB5_6:                                @ =>This Loop Header: Depth=1
                                        @     Child Loop BB5_8 Depth 2
	.loc	5 0 9                           @ SSD1327/OLED_GUI.c:0:9
	add	r0, sp, #48
.Ltmp121:
	.loc	5 251 19                        @ SSD1327/OLED_GUI.c:251:19
	ldrh	r0, [r0]
	.loc	5 251 26                        @ SSD1327/OLED_GUI.c:251:26
	ldr	r1, [sp, #60]
	.loc	5 251 32                        @ SSD1327/OLED_GUI.c:251:32
	ldrh	r1, [r1, #6]
.Ltmp122:
	.loc	5 251 5                         @ SSD1327/OLED_GUI.c:251:5
	cmp	r0, r1
	bge	.LBB5_25
	b	.LBB5_7
.LBB5_7:                                @   in Loop: Header=BB5_6 Depth=1
	.loc	5 0 5                           @ SSD1327/OLED_GUI.c:0:5
	add	r0, sp, #44
	movs	r1, #0
.Ltmp123:
	.loc	5 252 20 is_stmt 1              @ SSD1327/OLED_GUI.c:252:20
	strh	r1, [r0]
	.loc	5 252 13 is_stmt 0              @ SSD1327/OLED_GUI.c:252:13
	b	.LBB5_8
.LBB5_8:                                @   Parent Loop BB5_6 Depth=1
                                        @ =>  This Inner Loop Header: Depth=2
	.loc	5 0 13                          @ SSD1327/OLED_GUI.c:0:13
	add	r0, sp, #44
.Ltmp124:
	.loc	5 252 25                        @ SSD1327/OLED_GUI.c:252:25
	ldrh	r0, [r0]
	.loc	5 252 34                        @ SSD1327/OLED_GUI.c:252:34
	ldr	r1, [sp, #60]
	.loc	5 252 40                        @ SSD1327/OLED_GUI.c:252:40
	ldrh	r1, [r1, #4]
.Ltmp125:
	.loc	5 252 9                         @ SSD1327/OLED_GUI.c:252:9
	cmp	r0, r1
	bge	.LBB5_21
	b	.LBB5_9
.LBB5_9:                                @   in Loop: Header=BB5_8 Depth=2
	.loc	5 0 9                           @ SSD1327/OLED_GUI.c:0:9
	add	r0, sp, #56
.Ltmp126:
	.loc	5 255 35 is_stmt 1              @ SSD1327/OLED_GUI.c:255:35
	ldrh	r0, [r0]
.Ltmp127:
	.loc	5 255 16 is_stmt 0              @ SSD1327/OLED_GUI.c:255:16
	cmp	r0, #0
	bne	.LBB5_13
	b	.LBB5_10
.LBB5_10:                               @   in Loop: Header=BB5_8 Depth=2
.Ltmp128:
	.loc	5 256 21 is_stmt 1              @ SSD1327/OLED_GUI.c:256:21
	ldr	r0, [sp, #36]
	.loc	5 256 20 is_stmt 0              @ SSD1327/OLED_GUI.c:256:20
	ldrb	r0, [r0]
	add	r1, sp, #44
	.loc	5 256 35                        @ SSD1327/OLED_GUI.c:256:35
	ldrh	r1, [r1]
	movs	r2, #7
	.loc	5 256 42                        @ SSD1327/OLED_GUI.c:256:42
	ands	r1, r2
	movs	r2, #128
	.loc	5 256 32                        @ SSD1327/OLED_GUI.c:256:32
	lsrs	r2, r1
.Ltmp129:
	.loc	5 256 20                        @ SSD1327/OLED_GUI.c:256:20
	tst	r0, r2
	beq	.LBB5_12
	b	.LBB5_11
.LBB5_11:                               @   in Loop: Header=BB5_8 Depth=2
.Ltmp130:
	.loc	5 257 35 is_stmt 1              @ SSD1327/OLED_GUI.c:257:35
	ldr	r0, [sp, #72]
	.loc	5 257 44 is_stmt 0              @ SSD1327/OLED_GUI.c:257:44
	ldr	r1, [sp, #44]
	.loc	5 257 42                        @ SSD1327/OLED_GUI.c:257:42
	adds	r0, r0, r1
	.loc	5 257 52                        @ SSD1327/OLED_GUI.c:257:52
	ldr	r1, [sp, #68]
	.loc	5 257 61                        @ SSD1327/OLED_GUI.c:257:61
	ldr	r2, [sp, #48]
	.loc	5 257 59                        @ SSD1327/OLED_GUI.c:257:59
	adds	r1, r1, r2
	add	r2, sp, #52
	.loc	5 257 67                        @ SSD1327/OLED_GUI.c:257:67
	ldrh	r2, [r2]
	movs	r3, #1
	.loc	5 257 21                        @ SSD1327/OLED_GUI.c:257:21
	str	r3, [sp]
	uxth	r0, r0
	uxth	r1, r1
	bl	GUI_DrawPoint
	b	.LBB5_12
.Ltmp131:
.LBB5_12:                               @   in Loop: Header=BB5_8 Depth=2
	.loc	5 258 13 is_stmt 1              @ SSD1327/OLED_GUI.c:258:13
	b	.LBB5_17
.Ltmp132:
.LBB5_13:                               @   in Loop: Header=BB5_8 Depth=2
	.loc	5 259 21                        @ SSD1327/OLED_GUI.c:259:21
	ldr	r0, [sp, #36]
	.loc	5 259 20 is_stmt 0              @ SSD1327/OLED_GUI.c:259:20
	ldrb	r0, [r0]
	add	r1, sp, #44
	.loc	5 259 35                        @ SSD1327/OLED_GUI.c:259:35
	ldrh	r1, [r1]
	movs	r2, #7
	.loc	5 259 42                        @ SSD1327/OLED_GUI.c:259:42
	ands	r1, r2
	movs	r2, #128
	.loc	5 259 32                        @ SSD1327/OLED_GUI.c:259:32
	lsrs	r2, r1
.Ltmp133:
	.loc	5 259 20                        @ SSD1327/OLED_GUI.c:259:20
	tst	r0, r2
	beq	.LBB5_15
	b	.LBB5_14
.LBB5_14:                               @   in Loop: Header=BB5_8 Depth=2
.Ltmp134:
	.loc	5 260 35 is_stmt 1              @ SSD1327/OLED_GUI.c:260:35
	ldr	r0, [sp, #72]
	.loc	5 260 44 is_stmt 0              @ SSD1327/OLED_GUI.c:260:44
	ldr	r1, [sp, #44]
	.loc	5 260 42                        @ SSD1327/OLED_GUI.c:260:42
	adds	r0, r0, r1
	.loc	5 260 52                        @ SSD1327/OLED_GUI.c:260:52
	ldr	r1, [sp, #68]
	.loc	5 260 61                        @ SSD1327/OLED_GUI.c:260:61
	ldr	r2, [sp, #48]
	.loc	5 260 59                        @ SSD1327/OLED_GUI.c:260:59
	adds	r1, r1, r2
	add	r2, sp, #52
	.loc	5 260 67                        @ SSD1327/OLED_GUI.c:260:67
	ldrh	r2, [r2]
	movs	r3, #1
	.loc	5 260 21                        @ SSD1327/OLED_GUI.c:260:21
	str	r3, [sp]
	uxth	r0, r0
	uxth	r1, r1
	bl	GUI_DrawPoint
	.loc	5 261 17 is_stmt 1              @ SSD1327/OLED_GUI.c:261:17
	b	.LBB5_16
.Ltmp135:
.LBB5_15:                               @   in Loop: Header=BB5_8 Depth=2
	.loc	5 262 35                        @ SSD1327/OLED_GUI.c:262:35
	ldr	r0, [sp, #72]
	.loc	5 262 44 is_stmt 0              @ SSD1327/OLED_GUI.c:262:44
	ldr	r1, [sp, #44]
	.loc	5 262 42                        @ SSD1327/OLED_GUI.c:262:42
	adds	r0, r0, r1
	.loc	5 262 52                        @ SSD1327/OLED_GUI.c:262:52
	ldr	r1, [sp, #68]
	.loc	5 262 61                        @ SSD1327/OLED_GUI.c:262:61
	ldr	r2, [sp, #48]
	.loc	5 262 59                        @ SSD1327/OLED_GUI.c:262:59
	adds	r1, r1, r2
	add	r2, sp, #56
	.loc	5 262 67                        @ SSD1327/OLED_GUI.c:262:67
	ldrh	r2, [r2]
	movs	r3, #1
	.loc	5 262 21                        @ SSD1327/OLED_GUI.c:262:21
	str	r3, [sp]
	uxth	r0, r0
	uxth	r1, r1
	bl	GUI_DrawPoint
	b	.LBB5_16
.Ltmp136:
.LBB5_16:                               @   in Loop: Header=BB5_8 Depth=2
	.loc	5 0 21                          @ SSD1327/OLED_GUI.c:0:21
	b	.LBB5_17
.LBB5_17:                               @   in Loop: Header=BB5_8 Depth=2
	add	r0, sp, #44
.Ltmp137:
	.loc	5 266 16 is_stmt 1              @ SSD1327/OLED_GUI.c:266:16
	ldrh	r0, [r0]
	movs	r1, #7
	.loc	5 266 23 is_stmt 0              @ SSD1327/OLED_GUI.c:266:23
	ands	r0, r1
.Ltmp138:
	.loc	5 266 16                        @ SSD1327/OLED_GUI.c:266:16
	cmp	r0, #7
	bne	.LBB5_19
	b	.LBB5_18
.LBB5_18:                               @   in Loop: Header=BB5_8 Depth=2
.Ltmp139:
	.loc	5 267 20 is_stmt 1              @ SSD1327/OLED_GUI.c:267:20
	ldr	r0, [sp, #36]
	adds	r0, r0, #1
	str	r0, [sp, #36]
	.loc	5 267 17 is_stmt 0              @ SSD1327/OLED_GUI.c:267:17
	b	.LBB5_19
.Ltmp140:
.LBB5_19:                               @   in Loop: Header=BB5_8 Depth=2
	.loc	5 268 9 is_stmt 1               @ SSD1327/OLED_GUI.c:268:9
	b	.LBB5_20
.Ltmp141:
.LBB5_20:                               @   in Loop: Header=BB5_8 Depth=2
	.loc	5 252 54                        @ SSD1327/OLED_GUI.c:252:54
	ldr	r0, [sp, #44]
	adds	r0, r0, #1
	add	r1, sp, #44
	strh	r0, [r1]
	.loc	5 252 9 is_stmt 0               @ SSD1327/OLED_GUI.c:252:9
	b	.LBB5_8
.Ltmp142:
.LBB5_21:                               @   in Loop: Header=BB5_6 Depth=1
	.loc	5 269 12 is_stmt 1              @ SSD1327/OLED_GUI.c:269:12
	ldr	r0, [sp, #60]
	ldrh	r0, [r0, #4]
.Ltmp143:
	.loc	5 269 12 is_stmt 0              @ SSD1327/OLED_GUI.c:269:12
	lsls	r0, r0, #29
	cmp	r0, #0
	beq	.LBB5_23
	b	.LBB5_22
.LBB5_22:                               @   in Loop: Header=BB5_6 Depth=1
.Ltmp144:
	.loc	5 270 16 is_stmt 1              @ SSD1327/OLED_GUI.c:270:16
	ldr	r0, [sp, #36]
	adds	r0, r0, #1
	str	r0, [sp, #36]
	.loc	5 270 13 is_stmt 0              @ SSD1327/OLED_GUI.c:270:13
	b	.LBB5_23
.Ltmp145:
.LBB5_23:                               @   in Loop: Header=BB5_6 Depth=1
	.loc	5 271 5 is_stmt 1               @ SSD1327/OLED_GUI.c:271:5
	b	.LBB5_24
.Ltmp146:
.LBB5_24:                               @   in Loop: Header=BB5_6 Depth=1
	.loc	5 251 45                        @ SSD1327/OLED_GUI.c:251:45
	ldr	r0, [sp, #48]
	adds	r0, r0, #1
	add	r1, sp, #48
	strh	r0, [r1]
	.loc	5 251 5 is_stmt 0               @ SSD1327/OLED_GUI.c:251:5
	b	.LBB5_6
.Ltmp147:
.LBB5_25:
	.loc	5 272 1 is_stmt 1               @ SSD1327/OLED_GUI.c:272:1
	add	sp, #76
	pop	{r4, r5, r6, r7, pc}
.Ltmp148:
	.p2align	2
@ %bb.26:
	.loc	5 0 1 is_stmt 0                 @ SSD1327/OLED_GUI.c:0:1
__arm_cp.5_0:
	.long	sOLED_DIS
.Lcpi_end11:
	.size	__arm_cp.5_0, .Lcpi_end11-__arm_cp.5_0
__arm_cp.5_1:
	.long	.L.str.4
.Lcpi_end12:
	.size	__arm_cp.5_1, .Lcpi_end12-__arm_cp.5_1
.Lfunc_end5:
	.size	GUI_DisChar, .Lfunc_end5-GUI_DisChar
	.cfi_endproc
	.cantunwind
	.fnend
                                        @ -- End function
	.section	.text.GUI_DisString_EN,"ax",%progbits
	.hidden	GUI_DisString_EN                @ -- Begin function GUI_DisString_EN
	.globl	GUI_DisString_EN
	.p2align	2
	.type	GUI_DisString_EN,%function
	.code	16                              @ @GUI_DisString_EN
	.thumb_func
GUI_DisString_EN:
.Lfunc_begin6:
	.loc	5 286 0 is_stmt 1               @ SSD1327/OLED_GUI.c:286:0
	.fnstart
	.cfi_startproc
@ %bb.0:
	.save	{r4, r5, r6, r7, lr}
	push	{r4, r5, r6, r7, lr}
	.cfi_def_cfa_offset 20
	.cfi_offset lr, -4
	.cfi_offset r7, -8
	.cfi_offset r6, -12
	.cfi_offset r5, -16
	.cfi_offset r4, -20
	.pad	#60
	sub	sp, #60
	.cfi_def_cfa_offset 80
	ldr	r4, [sp, #84]
	ldr	r5, [sp, #80]
	mov	r6, r1
	mov	r7, r0
	str	r0, [sp, #24]                   @ 4-byte Spill
	add	r0, sp, #56
	str	r0, [sp, #20]                   @ 4-byte Spill
	ldr	r0, [sp, #24]                   @ 4-byte Reload
	str	r1, [sp, #16]                   @ 4-byte Spill
	ldr	r1, [sp, #20]                   @ 4-byte Reload
	strh	r0, [r1]
	add	r0, sp, #52
	ldr	r1, [sp, #16]                   @ 4-byte Reload
	strh	r1, [r0]
	str	r2, [sp, #48]
	str	r3, [sp, #44]
	add	r0, sp, #40
	strh	r5, [r0]
	add	r0, sp, #36
	strh	r4, [r0]
.Ltmp149:
	.loc	5 287 20 prologue_end           @ SSD1327/OLED_GUI.c:287:20
	ldr	r0, [sp, #56]
	add	r2, sp, #32
	.loc	5 287 11 is_stmt 0              @ SSD1327/OLED_GUI.c:287:11
	strh	r0, [r2]
	.loc	5 288 20 is_stmt 1              @ SSD1327/OLED_GUI.c:288:20
	ldr	r0, [sp, #52]
	add	r2, sp, #28
	.loc	5 288 11 is_stmt 0              @ SSD1327/OLED_GUI.c:288:11
	strh	r0, [r2]
.Ltmp150:
	.loc	5 290 8 is_stmt 1               @ SSD1327/OLED_GUI.c:290:8
	ldr	r0, [sp, #20]                   @ 4-byte Reload
	ldrh	r2, [r0]
	.loc	5 290 27 is_stmt 0              @ SSD1327/OLED_GUI.c:290:27
	ldr	r3, __arm_cp.6_0
	ldrh	r3, [r3]
	.loc	5 290 43                        @ SSD1327/OLED_GUI.c:290:43
	cmp	r2, r3
	bgt	.LBB6_2
	b	.LBB6_1
.LBB6_1:
	.loc	5 0 43                          @ SSD1327/OLED_GUI.c:0:43
	add	r0, sp, #52
	.loc	5 290 46                        @ SSD1327/OLED_GUI.c:290:46
	ldrh	r0, [r0]
	.loc	5 290 65                        @ SSD1327/OLED_GUI.c:290:65
	ldr	r1, __arm_cp.6_0
	ldrh	r1, [r1, #2]
.Ltmp151:
	.loc	5 290 8                         @ SSD1327/OLED_GUI.c:290:8
	cmp	r0, r1
	ble	.LBB6_3
	b	.LBB6_2
.LBB6_2:
.Ltmp152:
	.loc	5 291 3 is_stmt 1               @ SSD1327/OLED_GUI.c:291:3
	ldr	r0, __arm_cp.6_1
	bl	printf
	.loc	5 292 9                         @ SSD1327/OLED_GUI.c:292:9
	b	.LBB6_10
.Ltmp153:
.LBB6_3:
	.loc	5 295 5                         @ SSD1327/OLED_GUI.c:295:5
	b	.LBB6_4
.LBB6_4:                                @ =>This Inner Loop Header: Depth=1
	.loc	5 295 13 is_stmt 0              @ SSD1327/OLED_GUI.c:295:13
	ldr	r0, [sp, #48]
	.loc	5 295 11                        @ SSD1327/OLED_GUI.c:295:11
	ldrb	r0, [r0]
	.loc	5 295 5                         @ SSD1327/OLED_GUI.c:295:5
	cmp	r0, #0
	beq	.LBB6_10
	b	.LBB6_5
.LBB6_5:                                @   in Loop: Header=BB6_4 Depth=1
	.loc	5 0 5                           @ SSD1327/OLED_GUI.c:0:5
	add	r0, sp, #32
.Ltmp154:
	.loc	5 297 13 is_stmt 1              @ SSD1327/OLED_GUI.c:297:13
	ldrh	r0, [r0]
	.loc	5 297 22 is_stmt 0              @ SSD1327/OLED_GUI.c:297:22
	ldr	r1, [sp, #44]
	.loc	5 297 28                        @ SSD1327/OLED_GUI.c:297:28
	ldrh	r1, [r1, #4]
	.loc	5 297 20                        @ SSD1327/OLED_GUI.c:297:20
	adds	r0, r0, r1
	.loc	5 297 48                        @ SSD1327/OLED_GUI.c:297:48
	ldr	r1, __arm_cp.6_0
	ldrh	r1, [r1]
.Ltmp155:
	.loc	5 297 12                        @ SSD1327/OLED_GUI.c:297:12
	cmp	r0, r1
	ble	.LBB6_7
	b	.LBB6_6
.LBB6_6:                                @   in Loop: Header=BB6_4 Depth=1
.Ltmp156:
	.loc	5 298 22 is_stmt 1              @ SSD1327/OLED_GUI.c:298:22
	ldr	r0, [sp, #56]
	add	r1, sp, #32
	.loc	5 298 20 is_stmt 0              @ SSD1327/OLED_GUI.c:298:20
	strh	r0, [r1]
	.loc	5 299 23 is_stmt 1              @ SSD1327/OLED_GUI.c:299:23
	ldr	r0, [sp, #44]
	ldrh	r0, [r0, #6]
	.loc	5 299 20 is_stmt 0              @ SSD1327/OLED_GUI.c:299:20
	ldr	r1, [sp, #28]
	adds	r0, r1, r0
	add	r1, sp, #28
	strh	r0, [r1]
	.loc	5 300 9 is_stmt 1               @ SSD1327/OLED_GUI.c:300:9
	b	.LBB6_7
.Ltmp157:
.LBB6_7:                                @   in Loop: Header=BB6_4 Depth=1
	.loc	5 0 9 is_stmt 0                 @ SSD1327/OLED_GUI.c:0:9
	add	r0, sp, #28
.Ltmp158:
	.loc	5 303 13 is_stmt 1              @ SSD1327/OLED_GUI.c:303:13
	ldrh	r0, [r0]
	.loc	5 303 23 is_stmt 0              @ SSD1327/OLED_GUI.c:303:23
	ldr	r1, [sp, #44]
	.loc	5 303 29                        @ SSD1327/OLED_GUI.c:303:29
	ldrh	r1, [r1, #6]
	.loc	5 303 21                        @ SSD1327/OLED_GUI.c:303:21
	adds	r0, r0, r1
	.loc	5 303 50                        @ SSD1327/OLED_GUI.c:303:50
	ldr	r1, __arm_cp.6_0
	ldrh	r1, [r1, #2]
.Ltmp159:
	.loc	5 303 12                        @ SSD1327/OLED_GUI.c:303:12
	cmp	r0, r1
	ble	.LBB6_9
	b	.LBB6_8
.LBB6_8:                                @   in Loop: Header=BB6_4 Depth=1
.Ltmp160:
	.loc	5 304 22 is_stmt 1              @ SSD1327/OLED_GUI.c:304:22
	ldr	r0, [sp, #56]
	add	r1, sp, #32
	.loc	5 304 20 is_stmt 0              @ SSD1327/OLED_GUI.c:304:20
	strh	r0, [r1]
	.loc	5 305 22 is_stmt 1              @ SSD1327/OLED_GUI.c:305:22
	ldr	r0, [sp, #52]
	add	r1, sp, #28
	.loc	5 305 20 is_stmt 0              @ SSD1327/OLED_GUI.c:305:20
	strh	r0, [r1]
	.loc	5 306 9 is_stmt 1               @ SSD1327/OLED_GUI.c:306:9
	b	.LBB6_9
.Ltmp161:
.LBB6_9:                                @   in Loop: Header=BB6_4 Depth=1
	.loc	5 0 9 is_stmt 0                 @ SSD1327/OLED_GUI.c:0:9
	add	r0, sp, #32
	.loc	5 307 21 is_stmt 1              @ SSD1327/OLED_GUI.c:307:21
	ldrh	r1, [r0]
	add	r2, sp, #28
	.loc	5 307 29 is_stmt 0              @ SSD1327/OLED_GUI.c:307:29
	ldrh	r2, [r2]
	.loc	5 307 39                        @ SSD1327/OLED_GUI.c:307:39
	ldr	r3, [sp, #48]
	.loc	5 307 37                        @ SSD1327/OLED_GUI.c:307:37
	ldrb	r3, [r3]
	.loc	5 307 48                        @ SSD1327/OLED_GUI.c:307:48
	ldr	r4, [sp, #44]
	add	r5, sp, #40
	.loc	5 307 54                        @ SSD1327/OLED_GUI.c:307:54
	ldrh	r5, [r5]
	add	r6, sp, #36
	.loc	5 307 72                        @ SSD1327/OLED_GUI.c:307:72
	ldrh	r6, [r6]
	.loc	5 307 9                         @ SSD1327/OLED_GUI.c:307:9
	str	r6, [sp, #4]
	str	r5, [sp]
	str	r0, [sp, #12]                   @ 4-byte Spill
	mov	r0, r1
	mov	r1, r2
	mov	r2, r3
	mov	r3, r4
	bl	GUI_DisChar
	.loc	5 310 17 is_stmt 1              @ SSD1327/OLED_GUI.c:310:17
	ldr	r0, [sp, #48]
	adds	r0, r0, #1
	str	r0, [sp, #48]
	.loc	5 313 19                        @ SSD1327/OLED_GUI.c:313:19
	ldr	r0, [sp, #44]
	ldrh	r0, [r0, #4]
	.loc	5 313 16 is_stmt 0              @ SSD1327/OLED_GUI.c:313:16
	ldr	r1, [sp, #32]
	adds	r0, r1, r0
	ldr	r1, [sp, #12]                   @ 4-byte Reload
	strh	r0, [r1]
.Ltmp162:
	.loc	5 295 5 is_stmt 1               @ SSD1327/OLED_GUI.c:295:5
	b	.LBB6_4
.LBB6_10:
	.loc	5 315 1                         @ SSD1327/OLED_GUI.c:315:1
	add	sp, #60
	pop	{r4, r5, r6, r7, pc}
.Ltmp163:
	.p2align	2
@ %bb.11:
	.loc	5 0 1 is_stmt 0                 @ SSD1327/OLED_GUI.c:0:1
__arm_cp.6_0:
	.long	sOLED_DIS
.Lcpi_end13:
	.size	__arm_cp.6_0, .Lcpi_end13-__arm_cp.6_0
__arm_cp.6_1:
	.long	.L.str.5
.Lcpi_end14:
	.size	__arm_cp.6_1, .Lcpi_end14-__arm_cp.6_1
.Lfunc_end6:
	.size	GUI_DisString_EN, .Lfunc_end6-GUI_DisString_EN
	.cfi_endproc
	.cantunwind
	.fnend
                                        @ -- End function
	.section	.text.GUI_DisNum,"ax",%progbits
	.hidden	GUI_DisNum                      @ -- Begin function GUI_DisNum
	.globl	GUI_DisNum
	.p2align	2
	.type	GUI_DisNum,%function
	.code	16                              @ @GUI_DisNum
	.thumb_func
GUI_DisNum:
.Lfunc_begin7:
	.loc	5 330 0 is_stmt 1               @ SSD1327/OLED_GUI.c:330:0
	.fnstart
	.cfi_startproc
@ %bb.0:
	.save	{r4, r5, r6, r7, lr}
	push	{r4, r5, r6, r7, lr}
	.cfi_def_cfa_offset 20
	.cfi_offset lr, -4
	.cfi_offset r7, -8
	.cfi_offset r6, -12
	.cfi_offset r5, -16
	.cfi_offset r4, -20
	.pad	#508
	sub	sp, #508
	.pad	#80
	sub	sp, #80
	.cfi_def_cfa_offset 608
	ldr	r4, [sp, #612]
	ldr	r5, [sp, #608]
	mov	r6, r1
	mov	r7, r0
	str	r0, [sp, #36]                   @ 4-byte Spill
	add	r0, sp, #584
	str	r0, [sp, #32]                   @ 4-byte Spill
	ldr	r0, [sp, #36]                   @ 4-byte Reload
	str	r1, [sp, #28]                   @ 4-byte Spill
	ldr	r1, [sp, #32]                   @ 4-byte Reload
	strh	r0, [r1]
	add	r0, sp, #580
	ldr	r1, [sp, #28]                   @ 4-byte Reload
	strh	r1, [r0]
	str	r2, [sp, #576]
	str	r3, [sp, #572]
	add	r0, sp, #568
	strh	r5, [r0]
	add	r0, sp, #564
	strh	r4, [r0]
	add	r0, sp, #560
	movs	r2, #0
.Ltmp164:
	.loc	5 332 13 prologue_end           @ SSD1327/OLED_GUI.c:332:13
	strh	r2, [r0]
	add	r0, sp, #556
	.loc	5 332 26 is_stmt 0              @ SSD1327/OLED_GUI.c:332:26
	strh	r2, [r0]
	add	r0, sp, #300
	movs	r2, #255
	.loc	5 333 13 is_stmt 1              @ SSD1327/OLED_GUI.c:333:13
	str	r0, [sp, #24]                   @ 4-byte Spill
	mov	r1, r2
	str	r6, [sp, #20]                   @ 4-byte Spill
	str	r7, [sp, #16]                   @ 4-byte Spill
	str	r2, [sp, #12]                   @ 4-byte Spill
	bl	__aeabi_memclr
	add	r0, sp, #44
	.loc	5 333 40 is_stmt 0              @ SSD1327/OLED_GUI.c:333:40
	ldr	r1, [sp, #12]                   @ 4-byte Reload
	bl	__aeabi_memclr
	.loc	5 334 14 is_stmt 1              @ SSD1327/OLED_GUI.c:334:14
	ldr	r0, [sp, #24]                   @ 4-byte Reload
	str	r0, [sp, #40]
.Ltmp165:
	.loc	5 336 8                         @ SSD1327/OLED_GUI.c:336:8
	ldr	r1, [sp, #32]                   @ 4-byte Reload
	ldrh	r2, [r1]
	.loc	5 336 27 is_stmt 0              @ SSD1327/OLED_GUI.c:336:27
	ldr	r3, __arm_cp.7_0
	ldrh	r3, [r3]
	.loc	5 336 43                        @ SSD1327/OLED_GUI.c:336:43
	cmp	r2, r3
	bgt	.LBB7_2
	b	.LBB7_1
.LBB7_1:
	.loc	5 0 43                          @ SSD1327/OLED_GUI.c:0:43
	add	r0, sp, #580
	.loc	5 336 46                        @ SSD1327/OLED_GUI.c:336:46
	ldrh	r0, [r0]
	.loc	5 336 65                        @ SSD1327/OLED_GUI.c:336:65
	ldr	r1, __arm_cp.7_0
	ldrh	r1, [r1, #2]
.Ltmp166:
	.loc	5 336 8                         @ SSD1327/OLED_GUI.c:336:8
	cmp	r0, r1
	ble	.LBB7_3
	b	.LBB7_2
.LBB7_2:
.Ltmp167:
	.loc	5 337 3 is_stmt 1               @ SSD1327/OLED_GUI.c:337:3
	ldr	r0, __arm_cp.7_1
	bl	printf
	.loc	5 338 9                         @ SSD1327/OLED_GUI.c:338:9
	b	.LBB7_12
.Ltmp168:
.LBB7_3:
	.loc	5 341 8                         @ SSD1327/OLED_GUI.c:341:8
	ldr	r0, [sp, #576]
.Ltmp169:
	.loc	5 341 7 is_stmt 0               @ SSD1327/OLED_GUI.c:341:7
	cmp	r0, #0
	bne	.LBB7_5
	b	.LBB7_4
.LBB7_4:
.Ltmp170:
	.loc	5 343 26 is_stmt 1              @ SSD1327/OLED_GUI.c:343:26
	ldr	r0, [sp, #576]
	movs	r1, #10
	.loc	5 343 34 is_stmt 0              @ SSD1327/OLED_GUI.c:343:34
	sdiv	r2, r0, r1
	muls	r1, r2, r1
	subs	r0, r0, r1
	.loc	5 343 39                        @ SSD1327/OLED_GUI.c:343:39
	adds	r0, #48
	add	r1, sp, #560
	.loc	5 343 15                        @ SSD1327/OLED_GUI.c:343:15
	ldrh	r2, [r1]
	sxth	r2, r2
	add	r3, sp, #44
	.loc	5 343 24                        @ SSD1327/OLED_GUI.c:343:24
	strb	r0, [r3, r2]
	.loc	5 344 16 is_stmt 1              @ SSD1327/OLED_GUI.c:344:16
	ldr	r0, [sp, #560]
	adds	r0, r0, #1
	strh	r0, [r1]
	.loc	5 345 3                         @ SSD1327/OLED_GUI.c:345:3
	b	.LBB7_5
.Ltmp171:
.LBB7_5:
	.loc	5 347 5                         @ SSD1327/OLED_GUI.c:347:5
	b	.LBB7_6
.LBB7_6:                                @ =>This Inner Loop Header: Depth=1
	.loc	5 347 11 is_stmt 0              @ SSD1327/OLED_GUI.c:347:11
	ldr	r0, [sp, #576]
	.loc	5 347 5                         @ SSD1327/OLED_GUI.c:347:5
	cmp	r0, #0
	beq	.LBB7_8
	b	.LBB7_7
.LBB7_7:                                @   in Loop: Header=BB7_6 Depth=1
.Ltmp172:
	.loc	5 348 30 is_stmt 1              @ SSD1327/OLED_GUI.c:348:30
	ldr	r0, [sp, #576]
	movs	r1, #10
	.loc	5 348 38 is_stmt 0              @ SSD1327/OLED_GUI.c:348:38
	sdiv	r2, r0, r1
	mov	r3, r1
	muls	r3, r2, r3
	subs	r0, r0, r3
	.loc	5 348 43                        @ SSD1327/OLED_GUI.c:348:43
	adds	r0, #48
	add	r2, sp, #560
	.loc	5 348 19                        @ SSD1327/OLED_GUI.c:348:19
	ldrh	r3, [r2]
	sxth	r3, r3
	add	r4, sp, #44
	.loc	5 348 28                        @ SSD1327/OLED_GUI.c:348:28
	strb	r0, [r4, r3]
	.loc	5 349 16 is_stmt 1              @ SSD1327/OLED_GUI.c:349:16
	ldr	r0, [sp, #560]
	adds	r0, r0, #1
	strh	r0, [r2]
	.loc	5 350 17                        @ SSD1327/OLED_GUI.c:350:17
	ldr	r0, [sp, #576]
	sdiv	r0, r0, r1
	str	r0, [sp, #576]
.Ltmp173:
	.loc	5 347 5                         @ SSD1327/OLED_GUI.c:347:5
	b	.LBB7_6
.LBB7_8:
	.loc	5 354 5                         @ SSD1327/OLED_GUI.c:354:5
	b	.LBB7_9
.LBB7_9:                                @ =>This Inner Loop Header: Depth=1
	.loc	5 0 5 is_stmt 0                 @ SSD1327/OLED_GUI.c:0:5
	add	r0, sp, #560
	.loc	5 354 11                        @ SSD1327/OLED_GUI.c:354:11
	ldrh	r0, [r0]
	sxth	r0, r0
	.loc	5 354 5                         @ SSD1327/OLED_GUI.c:354:5
	cmp	r0, #1
	blt	.LBB7_11
	b	.LBB7_10
.LBB7_10:                               @   in Loop: Header=BB7_9 Depth=1
	.loc	5 0 5                           @ SSD1327/OLED_GUI.c:0:5
	add	r0, sp, #560
.Ltmp174:
	.loc	5 355 40 is_stmt 1              @ SSD1327/OLED_GUI.c:355:40
	ldrh	r1, [r0]
	sxth	r1, r1
	add	r2, sp, #44
	.loc	5 355 30 is_stmt 0              @ SSD1327/OLED_GUI.c:355:30
	adds	r1, r1, r2
	subs	r1, r1, #1
	ldrb	r1, [r1]
	add	r2, sp, #556
	.loc	5 355 19                        @ SSD1327/OLED_GUI.c:355:19
	ldrh	r3, [r2]
	sxth	r3, r3
	add	r4, sp, #300
	.loc	5 355 28                        @ SSD1327/OLED_GUI.c:355:28
	strb	r1, [r4, r3]
	.loc	5 356 17 is_stmt 1              @ SSD1327/OLED_GUI.c:356:17
	ldr	r1, [sp, #556]
	adds	r1, r1, #1
	strh	r1, [r2]
	.loc	5 357 17                        @ SSD1327/OLED_GUI.c:357:17
	ldr	r1, [sp, #560]
	subs	r1, r1, #1
	strh	r1, [r0]
.Ltmp175:
	.loc	5 354 5                         @ SSD1327/OLED_GUI.c:354:5
	b	.LBB7_9
.LBB7_11:
	.loc	5 0 5 is_stmt 0                 @ SSD1327/OLED_GUI.c:0:5
	add	r0, sp, #584
	.loc	5 361 22 is_stmt 1              @ SSD1327/OLED_GUI.c:361:22
	ldrh	r0, [r0]
	add	r1, sp, #580
	.loc	5 361 30 is_stmt 0              @ SSD1327/OLED_GUI.c:361:30
	ldrh	r1, [r1]
	.loc	5 361 51                        @ SSD1327/OLED_GUI.c:361:51
	ldr	r2, [sp, #40]
	.loc	5 361 57                        @ SSD1327/OLED_GUI.c:361:57
	ldr	r3, [sp, #572]
	add	r4, sp, #568
	.loc	5 361 63                        @ SSD1327/OLED_GUI.c:361:63
	ldrh	r4, [r4]
	add	r5, sp, #564
	.loc	5 361 81                        @ SSD1327/OLED_GUI.c:361:81
	ldrh	r5, [r5]
	.loc	5 361 5                         @ SSD1327/OLED_GUI.c:361:5
	str	r5, [sp, #4]
	str	r4, [sp]
	bl	GUI_DisString_EN
	.loc	5 362 1 is_stmt 1               @ SSD1327/OLED_GUI.c:362:1
	b	.LBB7_12
.LBB7_12:
	add	sp, #508
	add	sp, #80
	pop	{r4, r5, r6, r7, pc}
.Ltmp176:
	.p2align	2
@ %bb.13:
	.loc	5 0 1 is_stmt 0                 @ SSD1327/OLED_GUI.c:0:1
__arm_cp.7_0:
	.long	sOLED_DIS
.Lcpi_end15:
	.size	__arm_cp.7_0, .Lcpi_end15-__arm_cp.7_0
__arm_cp.7_1:
	.long	.L.str.6
.Lcpi_end16:
	.size	__arm_cp.7_1, .Lcpi_end16-__arm_cp.7_1
.Lfunc_end7:
	.size	GUI_DisNum, .Lfunc_end7-GUI_DisNum
	.cfi_endproc
	.cantunwind
	.fnend
                                        @ -- End function
	.section	.text.GUI_Disbitmap,"ax",%progbits
	.hidden	GUI_Disbitmap                   @ -- Begin function GUI_Disbitmap
	.globl	GUI_Disbitmap
	.p2align	1
	.type	GUI_Disbitmap,%function
	.code	16                              @ @GUI_Disbitmap
	.thumb_func
GUI_Disbitmap:
.Lfunc_begin8:
	.loc	5 379 0 is_stmt 1               @ SSD1327/OLED_GUI.c:379:0
	.fnstart
	.cfi_startproc
@ %bb.0:
	.save	{r4, r5, r6, r7, lr}
	push	{r4, r5, r6, r7, lr}
	.cfi_def_cfa_offset 20
	.cfi_offset lr, -4
	.cfi_offset r7, -8
	.cfi_offset r6, -12
	.cfi_offset r5, -16
	.cfi_offset r4, -20
	.pad	#52
	sub	sp, #52
	.cfi_def_cfa_offset 72
	ldr	r4, [sp, #72]
	mov	r5, r3
	mov	r6, r1
	mov	r7, r0
	str	r0, [sp, #16]                   @ 4-byte Spill
	add	r0, sp, #48
	str	r0, [sp, #12]                   @ 4-byte Spill
	ldr	r0, [sp, #16]                   @ 4-byte Reload
	str	r1, [sp, #8]                    @ 4-byte Spill
	ldr	r1, [sp, #12]                   @ 4-byte Reload
	strh	r0, [r1]
	add	r1, sp, #44
	ldr	r0, [sp, #8]                    @ 4-byte Reload
	strh	r0, [r1]
	str	r2, [sp, #40]
	add	r1, sp, #36
	strh	r3, [r1]
	add	r2, sp, #32
	strh	r4, [r2]
.Ltmp177:
	.loc	5 380 30 prologue_end           @ SSD1327/OLED_GUI.c:380:30
	ldrh	r1, [r1]
	.loc	5 380 36 is_stmt 0              @ SSD1327/OLED_GUI.c:380:36
	adds	r1, r1, #7
	.loc	5 380 40                        @ SSD1327/OLED_GUI.c:380:40
	lsrs	r1, r1, #3
	add	r2, sp, #20
	.loc	5 380 17                        @ SSD1327/OLED_GUI.c:380:17
	strh	r1, [r2]
	add	r1, sp, #24
	movs	r2, #0
.Ltmp178:
	.loc	5 381 11 is_stmt 1              @ SSD1327/OLED_GUI.c:381:11
	strh	r2, [r1]
	.loc	5 381 9 is_stmt 0               @ SSD1327/OLED_GUI.c:381:9
	b	.LBB8_1
.LBB8_1:                                @ =>This Loop Header: Depth=1
                                        @     Child Loop BB8_3 Depth 2
	.loc	5 0 9                           @ SSD1327/OLED_GUI.c:0:9
	add	r0, sp, #24
.Ltmp179:
	.loc	5 381 16                        @ SSD1327/OLED_GUI.c:381:16
	ldrh	r0, [r0]
	add	r1, sp, #32
	.loc	5 381 20                        @ SSD1327/OLED_GUI.c:381:20
	ldrh	r1, [r1]
.Ltmp180:
	.loc	5 381 5                         @ SSD1327/OLED_GUI.c:381:5
	cmp	r0, r1
	bge	.LBB8_10
	b	.LBB8_2
.LBB8_2:                                @   in Loop: Header=BB8_1 Depth=1
	.loc	5 0 5                           @ SSD1327/OLED_GUI.c:0:5
	add	r0, sp, #28
	movs	r1, #0
.Ltmp181:
	.loc	5 382 15 is_stmt 1              @ SSD1327/OLED_GUI.c:382:15
	strh	r1, [r0]
	.loc	5 382 13 is_stmt 0              @ SSD1327/OLED_GUI.c:382:13
	b	.LBB8_3
.LBB8_3:                                @   Parent Loop BB8_1 Depth=1
                                        @ =>  This Inner Loop Header: Depth=2
	.loc	5 0 13                          @ SSD1327/OLED_GUI.c:0:13
	add	r0, sp, #28
.Ltmp182:
	.loc	5 382 20                        @ SSD1327/OLED_GUI.c:382:20
	ldrh	r0, [r0]
	add	r1, sp, #36
	.loc	5 382 23                        @ SSD1327/OLED_GUI.c:382:23
	ldrh	r1, [r1]
.Ltmp183:
	.loc	5 382 9                         @ SSD1327/OLED_GUI.c:382:9
	cmp	r0, r1
	bge	.LBB8_8
	b	.LBB8_4
.LBB8_4:                                @   in Loop: Header=BB8_3 Depth=2
.Ltmp184:
	.loc	5 383 18 is_stmt 1              @ SSD1327/OLED_GUI.c:383:18
	ldr	r0, [sp, #40]
	add	r1, sp, #24
	.loc	5 383 25 is_stmt 0              @ SSD1327/OLED_GUI.c:383:25
	ldrh	r1, [r1]
	add	r2, sp, #20
	.loc	5 383 27                        @ SSD1327/OLED_GUI.c:383:27
	ldrh	r2, [r2]
	.loc	5 383 26                        @ SSD1327/OLED_GUI.c:383:26
	muls	r2, r1, r2
	.loc	5 383 23                        @ SSD1327/OLED_GUI.c:383:23
	adds	r0, r0, r2
	add	r1, sp, #28
	.loc	5 383 39                        @ SSD1327/OLED_GUI.c:383:39
	ldrh	r1, [r1]
	.loc	5 383 40                        @ SSD1327/OLED_GUI.c:383:40
	lsrs	r2, r1, #3
	.loc	5 383 16                        @ SSD1327/OLED_GUI.c:383:16
	ldrb	r0, [r0, r2]
	movs	r2, #7
	.loc	5 383 57                        @ SSD1327/OLED_GUI.c:383:57
	ands	r1, r2
	movs	r2, #128
	.loc	5 383 51                        @ SSD1327/OLED_GUI.c:383:51
	lsrs	r2, r1
.Ltmp185:
	.loc	5 383 16                        @ SSD1327/OLED_GUI.c:383:16
	tst	r0, r2
	beq	.LBB8_6
	b	.LBB8_5
.LBB8_5:                                @   in Loop: Header=BB8_3 Depth=2
.Ltmp186:
	.loc	5 384 31 is_stmt 1              @ SSD1327/OLED_GUI.c:384:31
	ldr	r0, [sp, #48]
	.loc	5 384 38 is_stmt 0              @ SSD1327/OLED_GUI.c:384:38
	ldr	r1, [sp, #28]
	.loc	5 384 37                        @ SSD1327/OLED_GUI.c:384:37
	adds	r0, r0, r1
	.loc	5 384 41                        @ SSD1327/OLED_GUI.c:384:41
	ldr	r1, [sp, #44]
	.loc	5 384 48                        @ SSD1327/OLED_GUI.c:384:48
	ldr	r2, [sp, #24]
	.loc	5 384 47                        @ SSD1327/OLED_GUI.c:384:47
	adds	r1, r1, r2
	movs	r2, #1
	.loc	5 384 17                        @ SSD1327/OLED_GUI.c:384:17
	str	r2, [sp]
	uxth	r0, r0
	uxth	r1, r1
	movs	r3, #15
	str	r2, [sp, #4]                    @ 4-byte Spill
	mov	r2, r3
	ldr	r3, [sp, #4]                    @ 4-byte Reload
	bl	GUI_DrawPoint
	.loc	5 385 13 is_stmt 1              @ SSD1327/OLED_GUI.c:385:13
	b	.LBB8_6
.Ltmp187:
.LBB8_6:                                @   in Loop: Header=BB8_3 Depth=2
	.loc	5 386 9                         @ SSD1327/OLED_GUI.c:386:9
	b	.LBB8_7
.Ltmp188:
.LBB8_7:                                @   in Loop: Header=BB8_3 Depth=2
	.loc	5 382 32                        @ SSD1327/OLED_GUI.c:382:32
	ldr	r0, [sp, #28]
	adds	r0, r0, #1
	add	r1, sp, #28
	strh	r0, [r1]
	.loc	5 382 9 is_stmt 0               @ SSD1327/OLED_GUI.c:382:9
	b	.LBB8_3
.Ltmp189:
.LBB8_8:                                @   in Loop: Header=BB8_1 Depth=1
	.loc	5 387 5 is_stmt 1               @ SSD1327/OLED_GUI.c:387:5
	b	.LBB8_9
.Ltmp190:
.LBB8_9:                                @   in Loop: Header=BB8_1 Depth=1
	.loc	5 381 29                        @ SSD1327/OLED_GUI.c:381:29
	ldr	r0, [sp, #24]
	adds	r0, r0, #1
	add	r1, sp, #24
	strh	r0, [r1]
	.loc	5 381 5 is_stmt 0               @ SSD1327/OLED_GUI.c:381:5
	b	.LBB8_1
.Ltmp191:
.LBB8_10:
	.loc	5 388 1 is_stmt 1               @ SSD1327/OLED_GUI.c:388:1
	add	sp, #52
	pop	{r4, r5, r6, r7, pc}
.Ltmp192:
.Lfunc_end8:
	.size	GUI_Disbitmap, .Lfunc_end8-GUI_Disbitmap
	.cfi_endproc
	.cantunwind
	.fnend
                                        @ -- End function
	.section	.text.GUI_DisGrayMap,"ax",%progbits
	.hidden	GUI_DisGrayMap                  @ -- Begin function GUI_DisGrayMap
	.globl	GUI_DisGrayMap
	.p2align	2
	.type	GUI_DisGrayMap,%function
	.code	16                              @ @GUI_DisGrayMap
	.thumb_func
GUI_DisGrayMap:
.Lfunc_begin9:
	.loc	5 403 0                         @ SSD1327/OLED_GUI.c:403:0
	.fnstart
	.cfi_startproc
@ %bb.0:
	.save	{r4, r5, r7, lr}
	push	{r4, r5, r7, lr}
	.cfi_def_cfa_offset 16
	.cfi_offset lr, -4
	.cfi_offset r7, -8
	.cfi_offset r5, -12
	.cfi_offset r4, -16
	.pad	#48
	sub	sp, #48
	.cfi_def_cfa_offset 64
	mov	r3, r1
	mov	r4, r0
	add	r5, sp, #44
	strh	r0, [r5]
	add	r0, sp, #40
	strh	r1, [r0]
	str	r2, [sp, #36]
.Ltmp193:
	.loc	5 406 11 prologue_end           @ SSD1327/OLED_GUI.c:406:11
	ldr	r0, [sp, #36]
	.loc	5 406 9 is_stmt 0               @ SSD1327/OLED_GUI.c:406:9
	ldrb	r0, [r0, #1]
	add	r1, sp, #32
	.loc	5 406 7                         @ SSD1327/OLED_GUI.c:406:7
	strb	r0, [r1]
	.loc	5 408 13 is_stmt 1              @ SSD1327/OLED_GUI.c:408:13
	ldr	r0, [sp, #36]
	.loc	5 408 11 is_stmt 0              @ SSD1327/OLED_GUI.c:408:11
	ldrb	r2, [r0, #3]
	.loc	5 408 23                        @ SSD1327/OLED_GUI.c:408:23
	lsls	r2, r2, #8
	.loc	5 408 32                        @ SSD1327/OLED_GUI.c:408:32
	ldrb	r0, [r0, #2]
	.loc	5 408 29                        @ SSD1327/OLED_GUI.c:408:29
	adds	r0, r2, r0
	add	r2, sp, #24
	.loc	5 408 8                         @ SSD1327/OLED_GUI.c:408:8
	strh	r0, [r2]
	.loc	5 409 14 is_stmt 1              @ SSD1327/OLED_GUI.c:409:14
	ldr	r0, [sp, #36]
	.loc	5 409 12 is_stmt 0              @ SSD1327/OLED_GUI.c:409:12
	ldrb	r2, [r0, #5]
	.loc	5 409 24                        @ SSD1327/OLED_GUI.c:409:24
	lsls	r2, r2, #8
	.loc	5 409 33                        @ SSD1327/OLED_GUI.c:409:33
	ldrb	r0, [r0, #4]
	.loc	5 409 30                        @ SSD1327/OLED_GUI.c:409:30
	adds	r0, r2, r0
	add	r2, sp, #28
	.loc	5 409 9                         @ SSD1327/OLED_GUI.c:409:9
	strh	r0, [r2]
.Ltmp194:
	.loc	5 412 5 is_stmt 1               @ SSD1327/OLED_GUI.c:412:5
	ldrb	r0, [r1]
.Ltmp195:
	.loc	5 412 5 is_stmt 0               @ SSD1327/OLED_GUI.c:412:5
	cmp	r0, #4
	bne	.LBB9_10
	b	.LBB9_1
.LBB9_1:
.Ltmp196:
	.loc	5 413 10 is_stmt 1              @ SSD1327/OLED_GUI.c:413:10
	ldr	r0, [sp, #36]
	.loc	5 413 15 is_stmt 0              @ SSD1327/OLED_GUI.c:413:15
	adds	r0, r0, #6
	.loc	5 413 8                         @ SSD1327/OLED_GUI.c:413:8
	str	r0, [sp, #36]
	add	r0, sp, #16
	movs	r1, #0
.Ltmp197:
	.loc	5 414 9 is_stmt 1               @ SSD1327/OLED_GUI.c:414:9
	strh	r1, [r0]
	.loc	5 414 7 is_stmt 0               @ SSD1327/OLED_GUI.c:414:7
	b	.LBB9_2
.LBB9_2:                                @ =>This Loop Header: Depth=1
                                        @     Child Loop BB9_4 Depth 2
	.loc	5 0 7                           @ SSD1327/OLED_GUI.c:0:7
	add	r0, sp, #16
.Ltmp198:
	.loc	5 414 14                        @ SSD1327/OLED_GUI.c:414:14
	ldrh	r0, [r0]
	add	r1, sp, #28
	.loc	5 414 18                        @ SSD1327/OLED_GUI.c:414:18
	ldrh	r1, [r1]
.Ltmp199:
	.loc	5 414 3                         @ SSD1327/OLED_GUI.c:414:3
	cmp	r0, r1
	bge	.LBB9_9
	b	.LBB9_3
.LBB9_3:                                @   in Loop: Header=BB9_2 Depth=1
	.loc	5 0 3                           @ SSD1327/OLED_GUI.c:0:3
	add	r0, sp, #20
	movs	r1, #0
.Ltmp200:
	.loc	5 415 10 is_stmt 1              @ SSD1327/OLED_GUI.c:415:10
	strh	r1, [r0]
	.loc	5 415 8 is_stmt 0               @ SSD1327/OLED_GUI.c:415:8
	b	.LBB9_4
.LBB9_4:                                @   Parent Loop BB9_2 Depth=1
                                        @ =>  This Inner Loop Header: Depth=2
	.loc	5 0 8                           @ SSD1327/OLED_GUI.c:0:8
	add	r0, sp, #20
.Ltmp201:
	.loc	5 415 15                        @ SSD1327/OLED_GUI.c:415:15
	ldrh	r0, [r0]
	add	r1, sp, #24
	.loc	5 415 19                        @ SSD1327/OLED_GUI.c:415:19
	ldrh	r1, [r1]
	.loc	5 415 25                        @ SSD1327/OLED_GUI.c:415:25
	lsrs	r1, r1, #1
.Ltmp202:
	.loc	5 415 4                         @ SSD1327/OLED_GUI.c:415:4
	cmp	r0, r1
	bge	.LBB9_7
	b	.LBB9_5
.LBB9_5:                                @   in Loop: Header=BB9_4 Depth=2
.Ltmp203:
	.loc	5 416 19 is_stmt 1              @ SSD1327/OLED_GUI.c:416:19
	ldr	r0, [sp, #44]
	.loc	5 416 28 is_stmt 0              @ SSD1327/OLED_GUI.c:416:28
	ldr	r1, [sp, #20]
	.loc	5 416 30                        @ SSD1327/OLED_GUI.c:416:30
	lsls	r1, r1, #1
	.loc	5 416 26                        @ SSD1327/OLED_GUI.c:416:26
	adds	r0, r0, r1
	.loc	5 416 35                        @ SSD1327/OLED_GUI.c:416:35
	ldr	r1, [sp, #40]
	.loc	5 416 44                        @ SSD1327/OLED_GUI.c:416:44
	ldr	r2, [sp, #16]
	.loc	5 416 42                        @ SSD1327/OLED_GUI.c:416:42
	adds	r1, r1, r2
	.loc	5 416 50                        @ SSD1327/OLED_GUI.c:416:50
	ldr	r2, [sp, #36]
	.loc	5 416 49                        @ SSD1327/OLED_GUI.c:416:49
	ldrb	r2, [r2]
	.loc	5 416 55                        @ SSD1327/OLED_GUI.c:416:55
	lsrs	r2, r2, #4
	movs	r3, #1
	.loc	5 416 5                         @ SSD1327/OLED_GUI.c:416:5
	str	r3, [sp]
	ldr	r4, __arm_cp.9_1
	mov	r5, r4
	bics	r5, r2
	uxth	r1, r1
	uxth	r0, r0
	mov	r2, r5
	str	r3, [sp, #12]                   @ 4-byte Spill
	str	r4, [sp, #8]                    @ 4-byte Spill
	bl	GUI_DrawPoint
	.loc	5 417 19 is_stmt 1              @ SSD1327/OLED_GUI.c:417:19
	ldr	r0, [sp, #44]
	.loc	5 417 28 is_stmt 0              @ SSD1327/OLED_GUI.c:417:28
	ldr	r1, [sp, #20]
	.loc	5 417 30                        @ SSD1327/OLED_GUI.c:417:30
	lsls	r1, r1, #1
	.loc	5 417 26                        @ SSD1327/OLED_GUI.c:417:26
	adds	r0, r0, r1
	.loc	5 417 34                        @ SSD1327/OLED_GUI.c:417:34
	adds	r0, r0, #1
	.loc	5 417 39                        @ SSD1327/OLED_GUI.c:417:39
	ldr	r1, [sp, #40]
	.loc	5 417 48                        @ SSD1327/OLED_GUI.c:417:48
	ldr	r2, [sp, #16]
	.loc	5 417 46                        @ SSD1327/OLED_GUI.c:417:46
	adds	r1, r1, r2
	.loc	5 417 53                        @ SSD1327/OLED_GUI.c:417:53
	ldr	r2, [sp, #36]
	.loc	5 417 52                        @ SSD1327/OLED_GUI.c:417:52
	ldrb	r2, [r2]
	.loc	5 417 5                         @ SSD1327/OLED_GUI.c:417:5
	ldr	r3, [sp, #12]                   @ 4-byte Reload
	str	r3, [sp]
	ldr	r4, [sp, #8]                    @ 4-byte Reload
	bics	r4, r2
	uxth	r1, r1
	uxth	r0, r0
	mov	r2, r4
	bl	GUI_DrawPoint
	.loc	5 418 9 is_stmt 1               @ SSD1327/OLED_GUI.c:418:9
	ldr	r0, [sp, #36]
	adds	r0, r0, #1
	str	r0, [sp, #36]
	.loc	5 419 4                         @ SSD1327/OLED_GUI.c:419:4
	b	.LBB9_6
.Ltmp204:
.LBB9_6:                                @   in Loop: Header=BB9_4 Depth=2
	.loc	5 415 31                        @ SSD1327/OLED_GUI.c:415:31
	ldr	r0, [sp, #20]
	adds	r0, r0, #1
	add	r1, sp, #20
	strh	r0, [r1]
	.loc	5 415 4 is_stmt 0               @ SSD1327/OLED_GUI.c:415:4
	b	.LBB9_4
.Ltmp205:
.LBB9_7:                                @   in Loop: Header=BB9_2 Depth=1
	.loc	5 419 4 is_stmt 1               @ SSD1327/OLED_GUI.c:419:4
	b	.LBB9_8
.Ltmp206:
.LBB9_8:                                @   in Loop: Header=BB9_2 Depth=1
	.loc	5 414 27                        @ SSD1327/OLED_GUI.c:414:27
	ldr	r0, [sp, #16]
	adds	r0, r0, #1
	add	r1, sp, #16
	strh	r0, [r1]
	.loc	5 414 3 is_stmt 0               @ SSD1327/OLED_GUI.c:414:3
	b	.LBB9_2
.Ltmp207:
.LBB9_9:
	.loc	5 420 2 is_stmt 1               @ SSD1327/OLED_GUI.c:420:2
	b	.LBB9_11
.Ltmp208:
.LBB9_10:
	.loc	5 421 3                         @ SSD1327/OLED_GUI.c:421:3
	ldr	r0, __arm_cp.9_0
	bl	printf
	.loc	5 422 3                         @ SSD1327/OLED_GUI.c:422:3
	b	.LBB9_11
.Ltmp209:
.LBB9_11:
	.loc	5 424 1                         @ SSD1327/OLED_GUI.c:424:1
	add	sp, #48
	pop	{r4, r5, r7, pc}
.Ltmp210:
	.p2align	2
@ %bb.12:
	.loc	5 0 1 is_stmt 0                 @ SSD1327/OLED_GUI.c:0:1
__arm_cp.9_0:
	.long	.L.str.7
.Lcpi_end17:
	.size	__arm_cp.9_0, .Lcpi_end17-__arm_cp.9_0
__arm_cp.9_1:
	.long	65535                           @ 0xffff
.Lcpi_end18:
	.size	__arm_cp.9_1, .Lcpi_end18-__arm_cp.9_1
.Lfunc_end9:
	.size	GUI_DisGrayMap, .Lfunc_end9-GUI_DisGrayMap
	.cfi_endproc
	.cantunwind
	.fnend
                                        @ -- End function
	.section	.text.GUI_Showtime,"ax",%progbits
	.hidden	GUI_Showtime                    @ -- Begin function GUI_Showtime
	.globl	GUI_Showtime
	.p2align	2
	.type	GUI_Showtime,%function
	.code	16                              @ @GUI_Showtime
	.thumb_func
GUI_Showtime:
.Lfunc_begin10:
	.loc	5 439 0 is_stmt 1               @ SSD1327/OLED_GUI.c:439:0
	.fnstart
	.cfi_startproc
@ %bb.0:
	.save	{r4, r5, r6, r7, lr}
	push	{r4, r5, r6, r7, lr}
	.cfi_def_cfa_offset 20
	.cfi_offset lr, -4
	.cfi_offset r7, -8
	.cfi_offset r6, -12
	.cfi_offset r5, -16
	.cfi_offset r4, -20
	.pad	#132
	sub	sp, #132
	.cfi_def_cfa_offset 152
	ldr	r4, [sp, #156]
	ldr	r5, [sp, #152]
	mov	r6, r3
	mov	r7, r2
	str	r1, [sp, #84]                   @ 4-byte Spill
	str	r0, [sp, #80]                   @ 4-byte Spill
	str	r0, [sp, #76]                   @ 4-byte Spill
	add	r0, sp, #128
	str	r0, [sp, #72]                   @ 4-byte Spill
	ldr	r0, [sp, #80]                   @ 4-byte Reload
	str	r1, [sp, #68]                   @ 4-byte Spill
	ldr	r1, [sp, #72]                   @ 4-byte Reload
	strh	r0, [r1]
	add	r0, sp, #124
	ldr	r1, [sp, #84]                   @ 4-byte Reload
	strh	r1, [r0]
	add	r1, sp, #120
	strh	r2, [r1]
	add	r2, sp, #116
	strh	r3, [r2]
	add	r3, sp, #112
	strh	r4, [r3]
	add	r3, sp, #100
	ldr	r4, __arm_cp.10_0
.Ltmp211:
	.loc	5 440 10 prologue_end           @ SSD1327/OLED_GUI.c:440:10
	strh	r4, [r3, #8]
	ldr	r3, __arm_cp.10_1
	str	r3, [sp, #104]
	ldr	r3, __arm_cp.10_2
	str	r3, [sp, #100]
	.loc	5 442 17                        @ SSD1327/OLED_GUI.c:442:17
	ldr	r3, [sp, #72]                   @ 4-byte Reload
	ldrh	r4, [r3]
	.loc	5 442 25 is_stmt 0              @ SSD1327/OLED_GUI.c:442:25
	ldrh	r3, [r0]
	.loc	5 442 33                        @ SSD1327/OLED_GUI.c:442:33
	str	r2, [sp, #64]                   @ 4-byte Spill
	ldrh	r2, [r1]
	.loc	5 442 39                        @ SSD1327/OLED_GUI.c:442:39
	str	r0, [sp, #60]                   @ 4-byte Spill
	ldr	r0, [sp, #64]                   @ 4-byte Reload
	ldrh	r0, [r0]
	.loc	5 442 2                         @ SSD1327/OLED_GUI.c:442:2
	str	r0, [sp, #56]                   @ 4-byte Spill
	mov	r0, r4
	str	r1, [sp, #52]                   @ 4-byte Spill
	mov	r1, r3
	ldr	r3, [sp, #56]                   @ 4-byte Reload
	str	r5, [sp, #48]                   @ 4-byte Spill
	str	r6, [sp, #44]                   @ 4-byte Spill
	str	r7, [sp, #40]                   @ 4-byte Spill
	bl	OLED_SetWindow
	.loc	5 443 19 is_stmt 1              @ SSD1327/OLED_GUI.c:443:19
	ldr	r0, [sp, #72]                   @ 4-byte Reload
	ldrh	r0, [r0]
	.loc	5 443 27 is_stmt 0              @ SSD1327/OLED_GUI.c:443:27
	ldr	r1, [sp, #60]                   @ 4-byte Reload
	ldrh	r1, [r1]
	.loc	5 443 35                        @ SSD1327/OLED_GUI.c:443:35
	ldr	r2, [sp, #52]                   @ 4-byte Reload
	ldrh	r2, [r2]
	.loc	5 443 41                        @ SSD1327/OLED_GUI.c:443:41
	ldr	r3, [sp, #64]                   @ 4-byte Reload
	ldrh	r3, [r3]
	movs	r4, #0
	.loc	5 443 2                         @ SSD1327/OLED_GUI.c:443:2
	str	r4, [sp]
	bl	OLED_ClearWindow
	.loc	5 446 14 is_stmt 1              @ SSD1327/OLED_GUI.c:446:14
	ldr	r0, [sp, #52]                   @ 4-byte Reload
	ldrh	r1, [r0]
	.loc	5 446 21 is_stmt 0              @ SSD1327/OLED_GUI.c:446:21
	ldr	r2, [sp, #72]                   @ 4-byte Reload
	ldrh	r3, [r2]
	.loc	5 446 19                        @ SSD1327/OLED_GUI.c:446:19
	subs	r1, r1, r3
	movs	r3, #7
	.loc	5 446 29                        @ SSD1327/OLED_GUI.c:446:29
	sdiv	r1, r1, r3
	add	r3, sp, #92
	.loc	5 446 8                         @ SSD1327/OLED_GUI.c:446:8
	strh	r1, [r3]
	.loc	5 447 13 is_stmt 1              @ SSD1327/OLED_GUI.c:447:13
	ldr	r1, [sp, #116]
	.loc	5 447 20 is_stmt 0              @ SSD1327/OLED_GUI.c:447:20
	ldr	r4, [sp, #124]
	.loc	5 447 18                        @ SSD1327/OLED_GUI.c:447:18
	subs	r1, r1, r4
	add	r4, sp, #88
	.loc	5 447 8                         @ SSD1327/OLED_GUI.c:447:8
	strh	r1, [r4]
.Ltmp212:
	.loc	5 448 5 is_stmt 1               @ SSD1327/OLED_GUI.c:448:5
	ldrh	r1, [r3]
	.loc	5 448 17 is_stmt 0              @ SSD1327/OLED_GUI.c:448:17
	ldr	r3, __arm_cp.10_3
	ldrh	r3, [r3, #4]
	.loc	5 448 23                        @ SSD1327/OLED_GUI.c:448:23
	cmp	r1, r3
	ble	.LBB10_3
	b	.LBB10_1
.LBB10_1:
	.loc	5 0 23                          @ SSD1327/OLED_GUI.c:0:23
	add	r0, sp, #88
	.loc	5 448 26                        @ SSD1327/OLED_GUI.c:448:26
	ldrh	r0, [r0]
	.loc	5 448 38                        @ SSD1327/OLED_GUI.c:448:38
	ldr	r1, __arm_cp.10_3
	ldrh	r1, [r1, #6]
.Ltmp213:
	.loc	5 448 5                         @ SSD1327/OLED_GUI.c:448:5
	cmp	r0, r1
	ble	.LBB10_3
	b	.LBB10_2
.LBB10_2:
.Ltmp214:
	.loc	5 449 8 is_stmt 1               @ SSD1327/OLED_GUI.c:449:8
	ldr	r0, __arm_cp.10_3
	str	r0, [sp, #96]
	.loc	5 450 2                         @ SSD1327/OLED_GUI.c:450:2
	b	.LBB10_28
.Ltmp215:
.LBB10_3:
	.loc	5 0 2 is_stmt 0                 @ SSD1327/OLED_GUI.c:0:2
	add	r0, sp, #92
.Ltmp216:
	.loc	5 450 12                        @ SSD1327/OLED_GUI.c:450:12
	ldrh	r0, [r0]
	.loc	5 450 24                        @ SSD1327/OLED_GUI.c:450:24
	ldr	r1, __arm_cp.10_4
	ldrh	r1, [r1, #4]
	.loc	5 450 30                        @ SSD1327/OLED_GUI.c:450:30
	cmp	r0, r1
	ble	.LBB10_8
	b	.LBB10_4
.LBB10_4:
	.loc	5 0 30                          @ SSD1327/OLED_GUI.c:0:30
	add	r0, sp, #92
	.loc	5 450 33                        @ SSD1327/OLED_GUI.c:450:33
	ldrh	r0, [r0]
	.loc	5 450 45                        @ SSD1327/OLED_GUI.c:450:45
	ldr	r1, __arm_cp.10_3
	ldrh	r1, [r1, #4]
	.loc	5 450 52                        @ SSD1327/OLED_GUI.c:450:52
	cmp	r0, r1
	bge	.LBB10_8
	b	.LBB10_5
.LBB10_5:
	.loc	5 0 52                          @ SSD1327/OLED_GUI.c:0:52
	add	r0, sp, #88
	.loc	5 451 5 is_stmt 1               @ SSD1327/OLED_GUI.c:451:5
	ldrh	r0, [r0]
	.loc	5 451 17 is_stmt 0              @ SSD1327/OLED_GUI.c:451:17
	ldr	r1, __arm_cp.10_4
	ldrh	r1, [r1, #6]
	.loc	5 451 24                        @ SSD1327/OLED_GUI.c:451:24
	cmp	r0, r1
	ble	.LBB10_8
	b	.LBB10_6
.LBB10_6:
	.loc	5 0 24                          @ SSD1327/OLED_GUI.c:0:24
	add	r0, sp, #88
	.loc	5 451 27                        @ SSD1327/OLED_GUI.c:451:27
	ldrh	r0, [r0]
	.loc	5 451 39                        @ SSD1327/OLED_GUI.c:451:39
	ldr	r1, __arm_cp.10_3
	ldrh	r1, [r1, #6]
.Ltmp217:
	.loc	5 450 11 is_stmt 1              @ SSD1327/OLED_GUI.c:450:11
	cmp	r0, r1
	bge	.LBB10_8
	b	.LBB10_7
.LBB10_7:
.Ltmp218:
	.loc	5 452 8                         @ SSD1327/OLED_GUI.c:452:8
	ldr	r0, __arm_cp.10_4
	str	r0, [sp, #96]
	.loc	5 453 2                         @ SSD1327/OLED_GUI.c:453:2
	b	.LBB10_27
.Ltmp219:
.LBB10_8:
	.loc	5 0 2 is_stmt 0                 @ SSD1327/OLED_GUI.c:0:2
	add	r0, sp, #92
.Ltmp220:
	.loc	5 453 12                        @ SSD1327/OLED_GUI.c:453:12
	ldrh	r0, [r0]
	.loc	5 453 24                        @ SSD1327/OLED_GUI.c:453:24
	ldr	r1, __arm_cp.10_5
	ldrh	r1, [r1, #4]
	.loc	5 453 30                        @ SSD1327/OLED_GUI.c:453:30
	cmp	r0, r1
	ble	.LBB10_13
	b	.LBB10_9
.LBB10_9:
	.loc	5 0 30                          @ SSD1327/OLED_GUI.c:0:30
	add	r0, sp, #92
	.loc	5 453 33                        @ SSD1327/OLED_GUI.c:453:33
	ldrh	r0, [r0]
	.loc	5 453 45                        @ SSD1327/OLED_GUI.c:453:45
	ldr	r1, __arm_cp.10_4
	ldrh	r1, [r1, #4]
	.loc	5 453 52                        @ SSD1327/OLED_GUI.c:453:52
	cmp	r0, r1
	bge	.LBB10_13
	b	.LBB10_10
.LBB10_10:
	.loc	5 0 52                          @ SSD1327/OLED_GUI.c:0:52
	add	r0, sp, #88
	.loc	5 454 5 is_stmt 1               @ SSD1327/OLED_GUI.c:454:5
	ldrh	r0, [r0]
	.loc	5 454 17 is_stmt 0              @ SSD1327/OLED_GUI.c:454:17
	ldr	r1, __arm_cp.10_5
	ldrh	r1, [r1, #6]
	.loc	5 454 24                        @ SSD1327/OLED_GUI.c:454:24
	cmp	r0, r1
	ble	.LBB10_13
	b	.LBB10_11
.LBB10_11:
	.loc	5 0 24                          @ SSD1327/OLED_GUI.c:0:24
	add	r0, sp, #88
	.loc	5 454 27                        @ SSD1327/OLED_GUI.c:454:27
	ldrh	r0, [r0]
	.loc	5 454 39                        @ SSD1327/OLED_GUI.c:454:39
	ldr	r1, __arm_cp.10_4
	ldrh	r1, [r1, #6]
.Ltmp221:
	.loc	5 453 11 is_stmt 1              @ SSD1327/OLED_GUI.c:453:11
	cmp	r0, r1
	bge	.LBB10_13
	b	.LBB10_12
.LBB10_12:
.Ltmp222:
	.loc	5 455 8                         @ SSD1327/OLED_GUI.c:455:8
	ldr	r0, __arm_cp.10_5
	str	r0, [sp, #96]
	.loc	5 456 2                         @ SSD1327/OLED_GUI.c:456:2
	b	.LBB10_26
.Ltmp223:
.LBB10_13:
	.loc	5 0 2 is_stmt 0                 @ SSD1327/OLED_GUI.c:0:2
	add	r0, sp, #92
.Ltmp224:
	.loc	5 456 12                        @ SSD1327/OLED_GUI.c:456:12
	ldrh	r0, [r0]
	.loc	5 456 24                        @ SSD1327/OLED_GUI.c:456:24
	ldr	r1, __arm_cp.10_6
	ldrh	r1, [r1, #4]
	.loc	5 456 30                        @ SSD1327/OLED_GUI.c:456:30
	cmp	r0, r1
	ble	.LBB10_18
	b	.LBB10_14
.LBB10_14:
	.loc	5 0 30                          @ SSD1327/OLED_GUI.c:0:30
	add	r0, sp, #92
	.loc	5 456 33                        @ SSD1327/OLED_GUI.c:456:33
	ldrh	r0, [r0]
	.loc	5 456 45                        @ SSD1327/OLED_GUI.c:456:45
	ldr	r1, __arm_cp.10_5
	ldrh	r1, [r1, #4]
	.loc	5 456 52                        @ SSD1327/OLED_GUI.c:456:52
	cmp	r0, r1
	bge	.LBB10_18
	b	.LBB10_15
.LBB10_15:
	.loc	5 0 52                          @ SSD1327/OLED_GUI.c:0:52
	add	r0, sp, #88
	.loc	5 457 5 is_stmt 1               @ SSD1327/OLED_GUI.c:457:5
	ldrh	r0, [r0]
	.loc	5 457 17 is_stmt 0              @ SSD1327/OLED_GUI.c:457:17
	ldr	r1, __arm_cp.10_6
	ldrh	r1, [r1, #6]
	.loc	5 457 24                        @ SSD1327/OLED_GUI.c:457:24
	cmp	r0, r1
	ble	.LBB10_18
	b	.LBB10_16
.LBB10_16:
	.loc	5 0 24                          @ SSD1327/OLED_GUI.c:0:24
	add	r0, sp, #88
	.loc	5 457 27                        @ SSD1327/OLED_GUI.c:457:27
	ldrh	r0, [r0]
	.loc	5 457 39                        @ SSD1327/OLED_GUI.c:457:39
	ldr	r1, __arm_cp.10_5
	ldrh	r1, [r1, #6]
.Ltmp225:
	.loc	5 456 11 is_stmt 1              @ SSD1327/OLED_GUI.c:456:11
	cmp	r0, r1
	bge	.LBB10_18
	b	.LBB10_17
.LBB10_17:
.Ltmp226:
	.loc	5 458 8                         @ SSD1327/OLED_GUI.c:458:8
	ldr	r0, __arm_cp.10_6
	str	r0, [sp, #96]
	.loc	5 459 2                         @ SSD1327/OLED_GUI.c:459:2
	b	.LBB10_25
.Ltmp227:
.LBB10_18:
	.loc	5 0 2 is_stmt 0                 @ SSD1327/OLED_GUI.c:0:2
	add	r0, sp, #92
.Ltmp228:
	.loc	5 459 12                        @ SSD1327/OLED_GUI.c:459:12
	ldrh	r0, [r0]
	.loc	5 459 23                        @ SSD1327/OLED_GUI.c:459:23
	ldr	r1, __arm_cp.10_7
	ldrh	r1, [r1, #4]
	.loc	5 459 29                        @ SSD1327/OLED_GUI.c:459:29
	cmp	r0, r1
	ble	.LBB10_23
	b	.LBB10_19
.LBB10_19:
	.loc	5 0 29                          @ SSD1327/OLED_GUI.c:0:29
	add	r0, sp, #92
	.loc	5 459 32                        @ SSD1327/OLED_GUI.c:459:32
	ldrh	r0, [r0]
	.loc	5 459 44                        @ SSD1327/OLED_GUI.c:459:44
	ldr	r1, __arm_cp.10_6
	ldrh	r1, [r1, #4]
	.loc	5 459 51                        @ SSD1327/OLED_GUI.c:459:51
	cmp	r0, r1
	bge	.LBB10_23
	b	.LBB10_20
.LBB10_20:
	.loc	5 0 51                          @ SSD1327/OLED_GUI.c:0:51
	add	r0, sp, #88
	.loc	5 460 5 is_stmt 1               @ SSD1327/OLED_GUI.c:460:5
	ldrh	r0, [r0]
	.loc	5 460 16 is_stmt 0              @ SSD1327/OLED_GUI.c:460:16
	ldr	r1, __arm_cp.10_7
	ldrh	r1, [r1, #6]
	.loc	5 460 23                        @ SSD1327/OLED_GUI.c:460:23
	cmp	r0, r1
	ble	.LBB10_23
	b	.LBB10_21
.LBB10_21:
	.loc	5 0 23                          @ SSD1327/OLED_GUI.c:0:23
	add	r0, sp, #88
	.loc	5 460 26                        @ SSD1327/OLED_GUI.c:460:26
	ldrh	r0, [r0]
	.loc	5 460 38                        @ SSD1327/OLED_GUI.c:460:38
	ldr	r1, __arm_cp.10_6
	ldrh	r1, [r1, #6]
.Ltmp229:
	.loc	5 459 11 is_stmt 1              @ SSD1327/OLED_GUI.c:459:11
	cmp	r0, r1
	bge	.LBB10_23
	b	.LBB10_22
.LBB10_22:
.Ltmp230:
	.loc	5 461 8                         @ SSD1327/OLED_GUI.c:461:8
	ldr	r0, __arm_cp.10_7
	str	r0, [sp, #96]
	.loc	5 462 2                         @ SSD1327/OLED_GUI.c:462:2
	b	.LBB10_24
.Ltmp231:
.LBB10_23:
	.loc	5 463 3                         @ SSD1327/OLED_GUI.c:463:3
	ldr	r0, __arm_cp.10_8
	bl	printf
	b	.LBB10_24
.Ltmp232:
.LBB10_24:
	.loc	5 0 3 is_stmt 0                 @ SSD1327/OLED_GUI.c:0:3
	b	.LBB10_25
.LBB10_25:
	b	.LBB10_26
.LBB10_26:
	b	.LBB10_27
.LBB10_27:
	b	.LBB10_28
.LBB10_28:
	add	r0, sp, #128
	.loc	5 467 14 is_stmt 1              @ SSD1327/OLED_GUI.c:467:14
	ldrh	r1, [r0]
	add	r2, sp, #124
	.loc	5 467 49 is_stmt 0              @ SSD1327/OLED_GUI.c:467:49
	ldrh	r3, [r2]
	.loc	5 467 63                        @ SSD1327/OLED_GUI.c:467:63
	ldr	r4, [sp, #152]
	.loc	5 467 70                        @ SSD1327/OLED_GUI.c:467:70
	ldrb	r4, [r4, #4]
	movs	r5, #10
	.loc	5 467 75                        @ SSD1327/OLED_GUI.c:467:75
	udiv	r4, r4, r5
	add	r6, sp, #100
	.loc	5 467 57                        @ SSD1327/OLED_GUI.c:467:57
	ldrb	r4, [r6, r4]
	.loc	5 467 82                        @ SSD1327/OLED_GUI.c:467:82
	ldr	r7, [sp, #96]
	str	r0, [sp, #36]                   @ 4-byte Spill
	add	r0, sp, #112
	.loc	5 467 105                       @ SSD1327/OLED_GUI.c:467:105
	str	r0, [sp, #32]                   @ 4-byte Spill
	ldrh	r0, [r0]
	.loc	5 467 2                         @ SSD1327/OLED_GUI.c:467:2
	str	r0, [sp, #4]
	movs	r0, #0
	str	r0, [sp]
	str	r0, [sp, #28]                   @ 4-byte Spill
	mov	r0, r1
	mov	r1, r3
	str	r2, [sp, #24]                   @ 4-byte Spill
	mov	r2, r4
	mov	r3, r7
	str	r5, [sp, #20]                   @ 4-byte Spill
	str	r6, [sp, #16]                   @ 4-byte Spill
	bl	GUI_DisChar
	.loc	5 468 14 is_stmt 1              @ SSD1327/OLED_GUI.c:468:14
	ldr	r0, [sp, #128]
	.loc	5 468 23 is_stmt 0              @ SSD1327/OLED_GUI.c:468:23
	ldr	r1, [sp, #92]
	.loc	5 468 21                        @ SSD1327/OLED_GUI.c:468:21
	adds	r0, r0, r1
	.loc	5 468 49                        @ SSD1327/OLED_GUI.c:468:49
	ldr	r1, [sp, #24]                   @ 4-byte Reload
	ldrh	r1, [r1]
	.loc	5 468 63                        @ SSD1327/OLED_GUI.c:468:63
	ldr	r2, [sp, #152]
	.loc	5 468 70                        @ SSD1327/OLED_GUI.c:468:70
	ldrb	r2, [r2, #4]
	.loc	5 468 75                        @ SSD1327/OLED_GUI.c:468:75
	ldr	r3, [sp, #20]                   @ 4-byte Reload
	udiv	r4, r2, r3
	muls	r3, r4, r3
	subs	r2, r2, r3
	.loc	5 468 57                        @ SSD1327/OLED_GUI.c:468:57
	ldr	r3, [sp, #16]                   @ 4-byte Reload
	ldrb	r2, [r3, r2]
	.loc	5 468 82                        @ SSD1327/OLED_GUI.c:468:82
	ldr	r3, [sp, #96]
	.loc	5 468 105                       @ SSD1327/OLED_GUI.c:468:105
	ldr	r4, [sp, #32]                   @ 4-byte Reload
	ldrh	r5, [r4]
	.loc	5 468 2                         @ SSD1327/OLED_GUI.c:468:2
	str	r5, [sp, #4]
	ldr	r5, [sp, #28]                   @ 4-byte Reload
	str	r5, [sp]
	uxth	r0, r0
	bl	GUI_DisChar
	.loc	5 469 14 is_stmt 1              @ SSD1327/OLED_GUI.c:469:14
	ldr	r0, [sp, #128]
	add	r1, sp, #92
	.loc	5 469 23 is_stmt 0              @ SSD1327/OLED_GUI.c:469:23
	ldrh	r2, [r1]
	.loc	5 469 21                        @ SSD1327/OLED_GUI.c:469:21
	adds	r0, r0, r2
	.loc	5 469 32                        @ SSD1327/OLED_GUI.c:469:32
	lsrs	r3, r2, #2
	.loc	5 469 27                        @ SSD1327/OLED_GUI.c:469:27
	adds	r0, r0, r3
	.loc	5 469 41                        @ SSD1327/OLED_GUI.c:469:41
	lsrs	r2, r2, #1
	.loc	5 469 36                        @ SSD1327/OLED_GUI.c:469:36
	adds	r0, r0, r2
	.loc	5 469 49                        @ SSD1327/OLED_GUI.c:469:49
	ldr	r2, [sp, #24]                   @ 4-byte Reload
	ldrh	r3, [r2]
	.loc	5 469 82                        @ SSD1327/OLED_GUI.c:469:82
	ldr	r4, [sp, #96]
	.loc	5 469 105                       @ SSD1327/OLED_GUI.c:469:105
	ldr	r5, [sp, #32]                   @ 4-byte Reload
	ldrh	r6, [r5]
	.loc	5 469 2                         @ SSD1327/OLED_GUI.c:469:2
	str	r6, [sp, #4]
	ldr	r6, [sp, #28]                   @ 4-byte Reload
	str	r6, [sp]
	uxth	r0, r0
	movs	r7, #58
	str	r1, [sp, #12]                   @ 4-byte Spill
	mov	r1, r3
	mov	r2, r7
	mov	r3, r4
	str	r7, [sp, #8]                    @ 4-byte Spill
	bl	GUI_DisChar
	.loc	5 470 14 is_stmt 1              @ SSD1327/OLED_GUI.c:470:14
	ldr	r0, [sp, #128]
	.loc	5 470 23 is_stmt 0              @ SSD1327/OLED_GUI.c:470:23
	ldr	r1, [sp, #12]                   @ 4-byte Reload
	ldrh	r2, [r1]
	.loc	5 470 26                        @ SSD1327/OLED_GUI.c:470:26
	lsls	r3, r2, #1
	.loc	5 470 21                        @ SSD1327/OLED_GUI.c:470:21
	adds	r0, r0, r3
	.loc	5 470 35                        @ SSD1327/OLED_GUI.c:470:35
	lsrs	r2, r2, #1
	.loc	5 470 30                        @ SSD1327/OLED_GUI.c:470:30
	adds	r0, r0, r2
	.loc	5 470 49                        @ SSD1327/OLED_GUI.c:470:49
	ldr	r2, [sp, #24]                   @ 4-byte Reload
	ldrh	r1, [r2]
	.loc	5 470 63                        @ SSD1327/OLED_GUI.c:470:63
	ldr	r3, [sp, #152]
	.loc	5 470 70                        @ SSD1327/OLED_GUI.c:470:70
	ldrb	r3, [r3, #5]
	.loc	5 470 74                        @ SSD1327/OLED_GUI.c:470:74
	ldr	r4, [sp, #20]                   @ 4-byte Reload
	udiv	r3, r3, r4
	.loc	5 470 57                        @ SSD1327/OLED_GUI.c:470:57
	ldr	r5, [sp, #16]                   @ 4-byte Reload
	ldrb	r2, [r5, r3]
	.loc	5 470 82                        @ SSD1327/OLED_GUI.c:470:82
	ldr	r3, [sp, #96]
	.loc	5 470 105                       @ SSD1327/OLED_GUI.c:470:105
	ldr	r6, [sp, #32]                   @ 4-byte Reload
	ldrh	r7, [r6]
	.loc	5 470 2                         @ SSD1327/OLED_GUI.c:470:2
	str	r7, [sp, #4]
	ldr	r7, [sp, #28]                   @ 4-byte Reload
	str	r7, [sp]
	uxth	r0, r0
	bl	GUI_DisChar
	.loc	5 471 14 is_stmt 1              @ SSD1327/OLED_GUI.c:471:14
	ldr	r0, [sp, #128]
	.loc	5 471 23 is_stmt 0              @ SSD1327/OLED_GUI.c:471:23
	ldr	r1, [sp, #12]                   @ 4-byte Reload
	ldrh	r2, [r1]
	movs	r3, #3
	.loc	5 471 26                        @ SSD1327/OLED_GUI.c:471:26
	muls	r3, r2, r3
	.loc	5 471 21                        @ SSD1327/OLED_GUI.c:471:21
	adds	r0, r0, r3
	.loc	5 471 35                        @ SSD1327/OLED_GUI.c:471:35
	lsrs	r2, r2, #1
	.loc	5 471 30                        @ SSD1327/OLED_GUI.c:471:30
	adds	r0, r0, r2
	.loc	5 471 49                        @ SSD1327/OLED_GUI.c:471:49
	ldr	r2, [sp, #24]                   @ 4-byte Reload
	ldrh	r1, [r2]
	.loc	5 471 63                        @ SSD1327/OLED_GUI.c:471:63
	ldr	r3, [sp, #152]
	.loc	5 471 70                        @ SSD1327/OLED_GUI.c:471:70
	ldrb	r3, [r3, #5]
	.loc	5 471 74                        @ SSD1327/OLED_GUI.c:471:74
	ldr	r4, [sp, #20]                   @ 4-byte Reload
	udiv	r5, r3, r4
	muls	r4, r5, r4
	subs	r3, r3, r4
	.loc	5 471 57                        @ SSD1327/OLED_GUI.c:471:57
	ldr	r4, [sp, #16]                   @ 4-byte Reload
	ldrb	r2, [r4, r3]
	.loc	5 471 82                        @ SSD1327/OLED_GUI.c:471:82
	ldr	r3, [sp, #96]
	.loc	5 471 105                       @ SSD1327/OLED_GUI.c:471:105
	ldr	r5, [sp, #32]                   @ 4-byte Reload
	ldrh	r6, [r5]
	.loc	5 471 2                         @ SSD1327/OLED_GUI.c:471:2
	str	r6, [sp, #4]
	ldr	r6, [sp, #28]                   @ 4-byte Reload
	str	r6, [sp]
	uxth	r0, r0
	bl	GUI_DisChar
	.loc	5 472 14 is_stmt 1              @ SSD1327/OLED_GUI.c:472:14
	ldr	r0, [sp, #128]
	.loc	5 472 23 is_stmt 0              @ SSD1327/OLED_GUI.c:472:23
	ldr	r1, [sp, #12]                   @ 4-byte Reload
	ldrh	r2, [r1]
	.loc	5 472 26                        @ SSD1327/OLED_GUI.c:472:26
	lsls	r3, r2, #2
	.loc	5 472 21                        @ SSD1327/OLED_GUI.c:472:21
	adds	r0, r0, r3
	.loc	5 472 35                        @ SSD1327/OLED_GUI.c:472:35
	lsrs	r3, r2, #1
	.loc	5 472 30                        @ SSD1327/OLED_GUI.c:472:30
	adds	r0, r0, r3
	.loc	5 472 44                        @ SSD1327/OLED_GUI.c:472:44
	lsrs	r2, r2, #2
	.loc	5 472 39                        @ SSD1327/OLED_GUI.c:472:39
	subs	r0, r0, r2
	.loc	5 472 49                        @ SSD1327/OLED_GUI.c:472:49
	ldr	r2, [sp, #24]                   @ 4-byte Reload
	ldrh	r1, [r2]
	.loc	5 472 82                        @ SSD1327/OLED_GUI.c:472:82
	ldr	r3, [sp, #96]
	.loc	5 472 105                       @ SSD1327/OLED_GUI.c:472:105
	ldr	r4, [sp, #32]                   @ 4-byte Reload
	ldrh	r5, [r4]
	.loc	5 472 2                         @ SSD1327/OLED_GUI.c:472:2
	str	r5, [sp, #4]
	ldr	r5, [sp, #28]                   @ 4-byte Reload
	str	r5, [sp]
	uxth	r0, r0
	ldr	r2, [sp, #8]                    @ 4-byte Reload
	bl	GUI_DisChar
	.loc	5 473 14 is_stmt 1              @ SSD1327/OLED_GUI.c:473:14
	ldr	r0, [sp, #128]
	.loc	5 473 23 is_stmt 0              @ SSD1327/OLED_GUI.c:473:23
	ldr	r1, [sp, #92]
	movs	r2, #5
	.loc	5 473 26                        @ SSD1327/OLED_GUI.c:473:26
	muls	r2, r1, r2
	.loc	5 473 21                        @ SSD1327/OLED_GUI.c:473:21
	adds	r0, r0, r2
	.loc	5 473 49                        @ SSD1327/OLED_GUI.c:473:49
	ldr	r1, [sp, #24]                   @ 4-byte Reload
	ldrh	r1, [r1]
	.loc	5 473 63                        @ SSD1327/OLED_GUI.c:473:63
	ldr	r2, [sp, #152]
	.loc	5 473 70                        @ SSD1327/OLED_GUI.c:473:70
	ldrb	r2, [r2, #6]
	.loc	5 473 74                        @ SSD1327/OLED_GUI.c:473:74
	ldr	r3, [sp, #20]                   @ 4-byte Reload
	udiv	r2, r2, r3
	.loc	5 473 57                        @ SSD1327/OLED_GUI.c:473:57
	ldr	r4, [sp, #16]                   @ 4-byte Reload
	ldrb	r2, [r4, r2]
	.loc	5 473 82                        @ SSD1327/OLED_GUI.c:473:82
	ldr	r3, [sp, #96]
	.loc	5 473 105                       @ SSD1327/OLED_GUI.c:473:105
	ldr	r5, [sp, #32]                   @ 4-byte Reload
	ldrh	r6, [r5]
	.loc	5 473 2                         @ SSD1327/OLED_GUI.c:473:2
	str	r6, [sp, #4]
	ldr	r6, [sp, #28]                   @ 4-byte Reload
	str	r6, [sp]
	uxth	r0, r0
	bl	GUI_DisChar
	.loc	5 474 14 is_stmt 1              @ SSD1327/OLED_GUI.c:474:14
	ldr	r0, [sp, #128]
	.loc	5 474 23 is_stmt 0              @ SSD1327/OLED_GUI.c:474:23
	ldr	r1, [sp, #92]
	movs	r2, #6
	.loc	5 474 26                        @ SSD1327/OLED_GUI.c:474:26
	muls	r2, r1, r2
	.loc	5 474 21                        @ SSD1327/OLED_GUI.c:474:21
	adds	r0, r0, r2
	.loc	5 474 49                        @ SSD1327/OLED_GUI.c:474:49
	ldr	r1, [sp, #24]                   @ 4-byte Reload
	ldrh	r1, [r1]
	.loc	5 474 63                        @ SSD1327/OLED_GUI.c:474:63
	ldr	r2, [sp, #152]
	.loc	5 474 70                        @ SSD1327/OLED_GUI.c:474:70
	ldrb	r2, [r2, #6]
	.loc	5 474 74                        @ SSD1327/OLED_GUI.c:474:74
	ldr	r3, [sp, #20]                   @ 4-byte Reload
	udiv	r4, r2, r3
	muls	r3, r4, r3
	subs	r2, r2, r3
	.loc	5 474 57                        @ SSD1327/OLED_GUI.c:474:57
	ldr	r3, [sp, #16]                   @ 4-byte Reload
	ldrb	r2, [r3, r2]
	.loc	5 474 82                        @ SSD1327/OLED_GUI.c:474:82
	ldr	r3, [sp, #96]
	.loc	5 474 105                       @ SSD1327/OLED_GUI.c:474:105
	ldr	r4, [sp, #32]                   @ 4-byte Reload
	ldrh	r5, [r4]
	.loc	5 474 2                         @ SSD1327/OLED_GUI.c:474:2
	str	r5, [sp, #4]
	ldr	r5, [sp, #28]                   @ 4-byte Reload
	str	r5, [sp]
	uxth	r0, r0
	bl	GUI_DisChar
	.loc	5 476 17 is_stmt 1              @ SSD1327/OLED_GUI.c:476:17
	ldr	r0, [sp, #36]                   @ 4-byte Reload
	ldrh	r0, [r0]
	.loc	5 476 25 is_stmt 0              @ SSD1327/OLED_GUI.c:476:25
	ldr	r1, [sp, #24]                   @ 4-byte Reload
	ldrh	r1, [r1]
	add	r2, sp, #120
	.loc	5 476 33                        @ SSD1327/OLED_GUI.c:476:33
	ldrh	r2, [r2]
	add	r3, sp, #116
	.loc	5 476 39                        @ SSD1327/OLED_GUI.c:476:39
	ldrh	r3, [r3]
	.loc	5 476 2                         @ SSD1327/OLED_GUI.c:476:2
	bl	OLED_DisWindow
	.loc	5 477 1 is_stmt 1               @ SSD1327/OLED_GUI.c:477:1
	add	sp, #132
	pop	{r4, r5, r6, r7, pc}
.Ltmp233:
	.p2align	2
@ %bb.29:
	.loc	5 0 1 is_stmt 0                 @ SSD1327/OLED_GUI.c:0:1
__arm_cp.10_0:
	.long	14648                           @ 0x3938
.Lcpi_end19:
	.size	__arm_cp.10_0, .Lcpi_end19-__arm_cp.10_0
__arm_cp.10_1:
	.long	926299444                       @ 0x37363534
.Lcpi_end20:
	.size	__arm_cp.10_1, .Lcpi_end20-__arm_cp.10_1
__arm_cp.10_2:
	.long	858927408                       @ 0x33323130
.Lcpi_end21:
	.size	__arm_cp.10_2, .Lcpi_end21-__arm_cp.10_2
__arm_cp.10_3:
	.long	Font24
.Lcpi_end22:
	.size	__arm_cp.10_3, .Lcpi_end22-__arm_cp.10_3
__arm_cp.10_4:
	.long	Font20
.Lcpi_end23:
	.size	__arm_cp.10_4, .Lcpi_end23-__arm_cp.10_4
__arm_cp.10_5:
	.long	Font16
.Lcpi_end24:
	.size	__arm_cp.10_5, .Lcpi_end24-__arm_cp.10_5
__arm_cp.10_6:
	.long	Font12
.Lcpi_end25:
	.size	__arm_cp.10_6, .Lcpi_end25-__arm_cp.10_6
__arm_cp.10_7:
	.long	Font8
.Lcpi_end26:
	.size	__arm_cp.10_7, .Lcpi_end26-__arm_cp.10_7
__arm_cp.10_8:
	.long	.L.str.8
.Lcpi_end27:
	.size	__arm_cp.10_8, .Lcpi_end27-__arm_cp.10_8
.Lfunc_end10:
	.size	GUI_Showtime, .Lfunc_end10-GUI_Showtime
	.cfi_endproc
	.cantunwind
	.fnend
                                        @ -- End function
	.section	.text.GUI_Show,"ax",%progbits
	.hidden	GUI_Show                        @ -- Begin function GUI_Show
	.globl	GUI_Show
	.p2align	2
	.type	GUI_Show,%function
	.code	16                              @ @GUI_Show
	.thumb_func
GUI_Show:
.Lfunc_begin11:
	.loc	5 490 0 is_stmt 1               @ SSD1327/OLED_GUI.c:490:0
	.fnstart
	.cfi_startproc
@ %bb.0:
	.save	{r4, r5, r6, r7, lr}
	push	{r4, r5, r6, r7, lr}
	.cfi_def_cfa_offset 20
	.cfi_offset lr, -4
	.cfi_offset r7, -8
	.cfi_offset r6, -12
	.cfi_offset r5, -16
	.cfi_offset r4, -20
	.pad	#212
	sub	sp, #212
	.cfi_def_cfa_offset 232
	movs	r0, #0
.Ltmp234:
	.loc	5 492 2 prologue_end            @ SSD1327/OLED_GUI.c:492:2
	str	r0, [sp, #164]                  @ 4-byte Spill
	bl	OLED_Clear
	.loc	5 493 2                         @ SSD1327/OLED_GUI.c:493:2
	bl	OLED_Display
	.loc	5 496 57                        @ SSD1327/OLED_GUI.c:496:57
	ldr	r0, __arm_cp.11_0
	.loc	5 496 47 is_stmt 0              @ SSD1327/OLED_GUI.c:496:47
	ldrh	r1, [r0]
	.loc	5 496 73                        @ SSD1327/OLED_GUI.c:496:73
	subs	r1, r1, #1
	movs	r2, #2
	.loc	5 496 2                         @ SSD1327/OLED_GUI.c:496:2
	str	r2, [sp, #8]
	ldr	r3, [sp, #164]                  @ 4-byte Reload
	str	r3, [sp, #4]
	movs	r4, #15
	str	r4, [sp]
	uxth	r1, r1
	movs	r5, #1
	str	r0, [sp, #160]                  @ 4-byte Spill
	mov	r0, r3
	str	r1, [sp, #156]                  @ 4-byte Spill
	mov	r1, r5
	ldr	r6, [sp, #156]                  @ 4-byte Reload
	str	r2, [sp, #152]                  @ 4-byte Spill
	mov	r2, r6
	mov	r3, r5
	str	r4, [sp, #148]                  @ 4-byte Spill
	str	r5, [sp, #144]                  @ 4-byte Spill
	bl	GUI_DrawLine
	.loc	5 497 47 is_stmt 1              @ SSD1327/OLED_GUI.c:497:47
	ldr	r0, [sp, #160]                  @ 4-byte Reload
	ldrh	r1, [r0]
	.loc	5 497 73 is_stmt 0              @ SSD1327/OLED_GUI.c:497:73
	subs	r1, r1, #1
	.loc	5 497 2                         @ SSD1327/OLED_GUI.c:497:2
	ldr	r2, [sp, #144]                  @ 4-byte Reload
	str	r2, [sp, #8]
	str	r2, [sp, #4]
	ldr	r3, [sp, #148]                  @ 4-byte Reload
	str	r3, [sp]
	uxth	r2, r1
	movs	r1, #4
	ldr	r0, [sp, #164]                  @ 4-byte Reload
	str	r1, [sp, #140]                  @ 4-byte Spill
	ldr	r3, [sp, #140]                  @ 4-byte Reload
	bl	GUI_DrawLine
	.loc	5 498 18 is_stmt 1              @ SSD1327/OLED_GUI.c:498:18
	ldr	r0, [sp, #160]                  @ 4-byte Reload
	ldrh	r1, [r0, #2]
	.loc	5 498 42 is_stmt 0              @ SSD1327/OLED_GUI.c:498:42
	subs	r1, r1, #5
	.loc	5 498 47                        @ SSD1327/OLED_GUI.c:498:47
	ldrh	r2, [r0]
	.loc	5 498 73                        @ SSD1327/OLED_GUI.c:498:73
	subs	r2, r2, #1
	.loc	5 498 2                         @ SSD1327/OLED_GUI.c:498:2
	ldr	r3, [sp, #144]                  @ 4-byte Reload
	str	r3, [sp, #8]
	str	r3, [sp, #4]
	ldr	r4, [sp, #148]                  @ 4-byte Reload
	str	r4, [sp]
	uxth	r2, r2
	uxth	r1, r1
	ldr	r0, [sp, #164]                  @ 4-byte Reload
	str	r1, [sp, #136]                  @ 4-byte Spill
	ldr	r3, [sp, #136]                  @ 4-byte Reload
	bl	GUI_DrawLine
	.loc	5 499 18 is_stmt 1              @ SSD1327/OLED_GUI.c:499:18
	ldr	r0, [sp, #160]                  @ 4-byte Reload
	ldrh	r1, [r0, #2]
	.loc	5 499 42 is_stmt 0              @ SSD1327/OLED_GUI.c:499:42
	subs	r1, r1, #1
	.loc	5 499 47                        @ SSD1327/OLED_GUI.c:499:47
	ldrh	r2, [r0]
	.loc	5 499 73                        @ SSD1327/OLED_GUI.c:499:73
	subs	r2, r2, #1
	.loc	5 499 2                         @ SSD1327/OLED_GUI.c:499:2
	ldr	r3, [sp, #152]                  @ 4-byte Reload
	str	r3, [sp, #8]
	ldr	r4, [sp, #164]                  @ 4-byte Reload
	str	r4, [sp, #4]
	ldr	r5, [sp, #148]                  @ 4-byte Reload
	str	r5, [sp]
	uxth	r2, r2
	uxth	r1, r1
	mov	r0, r4
	str	r1, [sp, #132]                  @ 4-byte Spill
	ldr	r3, [sp, #132]                  @ 4-byte Reload
	bl	GUI_DrawLine
	.loc	5 502 28 is_stmt 1              @ SSD1327/OLED_GUI.c:502:28
	ldr	r0, [sp, #160]                  @ 4-byte Reload
	ldrh	r1, [r0]
	.loc	5 502 54 is_stmt 0              @ SSD1327/OLED_GUI.c:502:54
	subs	r1, r1, #5
	.loc	5 502 60                        @ SSD1327/OLED_GUI.c:502:60
	ldrh	r2, [r0, #2]
	.loc	5 502 84                        @ SSD1327/OLED_GUI.c:502:84
	subs	r2, r2, #7
	.loc	5 502 2                         @ SSD1327/OLED_GUI.c:502:2
	ldr	r3, [sp, #144]                  @ 4-byte Reload
	str	r3, [sp, #8]
	ldr	r4, [sp, #164]                  @ 4-byte Reload
	str	r4, [sp, #4]
	ldr	r5, [sp, #148]                  @ 4-byte Reload
	str	r5, [sp]
	uxth	r1, r1
	uxth	r3, r2
	movs	r2, #5
	movs	r6, #7
	mov	r0, r2
	str	r1, [sp, #128]                  @ 4-byte Spill
	mov	r1, r6
	ldr	r6, [sp, #128]                  @ 4-byte Reload
	str	r2, [sp, #124]                  @ 4-byte Spill
	mov	r2, r6
	bl	GUI_DrawRectangle
	.loc	5 503 28 is_stmt 1              @ SSD1327/OLED_GUI.c:503:28
	ldr	r0, [sp, #160]                  @ 4-byte Reload
	ldrh	r1, [r0]
	.loc	5 503 54 is_stmt 0              @ SSD1327/OLED_GUI.c:503:54
	subs	r1, #10
	.loc	5 503 2                         @ SSD1327/OLED_GUI.c:503:2
	ldr	r2, [sp, #144]                  @ 4-byte Reload
	str	r2, [sp, #8]
	str	r2, [sp, #4]
	ldr	r3, [sp, #148]                  @ 4-byte Reload
	str	r3, [sp]
	uxth	r2, r1
	movs	r1, #10
	movs	r3, #20
	mov	r0, r1
	str	r1, [sp, #120]                  @ 4-byte Spill
	bl	GUI_DrawRectangle
	.loc	5 506 2 is_stmt 1               @ SSD1327/OLED_GUI.c:506:2
	ldr	r0, [sp, #144]                  @ 4-byte Reload
	str	r0, [sp, #4]
	str	r0, [sp]
	movs	r1, #30
	movs	r2, #3
	ldr	r0, [sp, #120]                  @ 4-byte Reload
	str	r1, [sp, #116]                  @ 4-byte Spill
	str	r2, [sp, #112]                  @ 4-byte Spill
	ldr	r3, [sp, #148]                  @ 4-byte Reload
	bl	GUI_DrawCircle
	.loc	5 507 2                         @ SSD1327/OLED_GUI.c:507:2
	ldr	r0, [sp, #144]                  @ 4-byte Reload
	str	r0, [sp, #4]
	ldr	r1, [sp, #164]                  @ 4-byte Reload
	str	r1, [sp]
	movs	r2, #40
	ldr	r0, [sp, #120]                  @ 4-byte Reload
	mov	r1, r2
	ldr	r3, [sp, #112]                  @ 4-byte Reload
	str	r2, [sp, #108]                  @ 4-byte Spill
	mov	r2, r3
	ldr	r3, [sp, #148]                  @ 4-byte Reload
	bl	GUI_DrawCircle
	.loc	5 508 2                         @ SSD1327/OLED_GUI.c:508:2
	ldr	r0, [sp, #144]                  @ 4-byte Reload
	str	r0, [sp, #4]
	str	r0, [sp]
	movs	r1, #50
	ldr	r0, [sp, #120]                  @ 4-byte Reload
	str	r1, [sp, #104]                  @ 4-byte Spill
	ldr	r2, [sp, #112]                  @ 4-byte Reload
	ldr	r3, [sp, #148]                  @ 4-byte Reload
	bl	GUI_DrawCircle
	.loc	5 509 17                        @ SSD1327/OLED_GUI.c:509:17
	ldr	r0, [sp, #160]                  @ 4-byte Reload
	ldrh	r1, [r0]
	.loc	5 509 43 is_stmt 0              @ SSD1327/OLED_GUI.c:509:43
	subs	r1, #10
	.loc	5 509 2                         @ SSD1327/OLED_GUI.c:509:2
	ldr	r2, [sp, #144]                  @ 4-byte Reload
	str	r2, [sp, #4]
	str	r2, [sp]
	uxth	r0, r1
	ldr	r1, [sp, #116]                  @ 4-byte Reload
	ldr	r2, [sp, #112]                  @ 4-byte Reload
	ldr	r3, [sp, #148]                  @ 4-byte Reload
	bl	GUI_DrawCircle
	.loc	5 510 17 is_stmt 1              @ SSD1327/OLED_GUI.c:510:17
	ldr	r0, [sp, #160]                  @ 4-byte Reload
	ldrh	r1, [r0]
	.loc	5 510 43 is_stmt 0              @ SSD1327/OLED_GUI.c:510:43
	subs	r1, #10
	.loc	5 510 2                         @ SSD1327/OLED_GUI.c:510:2
	ldr	r2, [sp, #144]                  @ 4-byte Reload
	str	r2, [sp, #4]
	ldr	r3, [sp, #164]                  @ 4-byte Reload
	str	r3, [sp]
	uxth	r0, r1
	ldr	r1, [sp, #108]                  @ 4-byte Reload
	ldr	r2, [sp, #112]                  @ 4-byte Reload
	ldr	r3, [sp, #148]                  @ 4-byte Reload
	bl	GUI_DrawCircle
	.loc	5 511 17 is_stmt 1              @ SSD1327/OLED_GUI.c:511:17
	ldr	r0, [sp, #160]                  @ 4-byte Reload
	ldrh	r1, [r0]
	.loc	5 511 43 is_stmt 0              @ SSD1327/OLED_GUI.c:511:43
	subs	r1, #10
	.loc	5 511 2                         @ SSD1327/OLED_GUI.c:511:2
	ldr	r2, [sp, #144]                  @ 4-byte Reload
	str	r2, [sp, #4]
	str	r2, [sp]
	uxth	r0, r1
	ldr	r1, [sp, #104]                  @ 4-byte Reload
	ldr	r2, [sp, #112]                  @ 4-byte Reload
	ldr	r3, [sp, #148]                  @ 4-byte Reload
	bl	GUI_DrawCircle
	add	r0, sp, #208
	movs	r1, #35
	.loc	5 514 11 is_stmt 1              @ SSD1327/OLED_GUI.c:514:11
	strh	r1, [r0]
	add	r2, sp, #204
	movs	r3, #85
	.loc	5 514 21 is_stmt 0              @ SSD1327/OLED_GUI.c:514:21
	strh	r3, [r2]
	add	r3, sp, #200
	movs	r4, #12
	.loc	5 514 31                        @ SSD1327/OLED_GUI.c:514:31
	strh	r4, [r3]
	.loc	5 515 17 is_stmt 1              @ SSD1327/OLED_GUI.c:515:17
	ldrh	r4, [r0]
	str	r0, [sp, #100]                  @ 4-byte Spill
	mov	r0, r4
	str	r1, [sp, #96]                   @ 4-byte Spill
	str	r2, [sp, #92]                   @ 4-byte Spill
	str	r3, [sp, #88]                   @ 4-byte Spill
	bl	__aeabi_i2d
	.loc	5 515 30 is_stmt 0              @ SSD1327/OLED_GUI.c:515:30
	ldr	r2, [sp, #88]                   @ 4-byte Reload
	ldrh	r3, [r2]
	str	r0, [sp, #84]                   @ 4-byte Spill
	mov	r0, r3
	str	r1, [sp, #80]                   @ 4-byte Spill
	bl	__aeabi_i2d
	ldr	r3, __arm_cp.11_1
	.loc	5 515 28                        @ SSD1327/OLED_GUI.c:515:28
	ldr	r2, [sp, #164]                  @ 4-byte Reload
	bl	__aeabi_dmul
	.loc	5 515 21                        @ SSD1327/OLED_GUI.c:515:21
	ldr	r2, [sp, #84]                   @ 4-byte Reload
	str	r0, [sp, #76]                   @ 4-byte Spill
	mov	r0, r2
	ldr	r3, [sp, #80]                   @ 4-byte Reload
	str	r1, [sp, #72]                   @ 4-byte Spill
	mov	r1, r3
	ldr	r2, [sp, #76]                   @ 4-byte Reload
	ldr	r3, [sp, #72]                   @ 4-byte Reload
	bl	__aeabi_dadd
	.loc	5 515 17                        @ SSD1327/OLED_GUI.c:515:17
	bl	__aeabi_d2iz
	add	r1, sp, #196
	.loc	5 515 11                        @ SSD1327/OLED_GUI.c:515:11
	strh	r0, [r1]
	.loc	5 515 41                        @ SSD1327/OLED_GUI.c:515:41
	ldr	r0, [sp, #204]
	add	r2, sp, #192
	.loc	5 515 35                        @ SSD1327/OLED_GUI.c:515:35
	strh	r0, [r2]
	.loc	5 516 17 is_stmt 1              @ SSD1327/OLED_GUI.c:516:17
	ldr	r0, [sp, #208]
	.loc	5 516 28 is_stmt 0              @ SSD1327/OLED_GUI.c:516:28
	ldr	r3, [sp, #200]
	.loc	5 516 26                        @ SSD1327/OLED_GUI.c:516:26
	ldr	r4, [sp, #124]                  @ 4-byte Reload
	muls	r4, r3, r4
	.loc	5 516 21                        @ SSD1327/OLED_GUI.c:516:21
	adds	r0, r0, r4
	add	r3, sp, #188
	.loc	5 516 11                        @ SSD1327/OLED_GUI.c:516:11
	strh	r0, [r3]
	.loc	5 516 39                        @ SSD1327/OLED_GUI.c:516:39
	ldr	r0, [sp, #204]
	add	r4, sp, #184
	.loc	5 516 33                        @ SSD1327/OLED_GUI.c:516:33
	strh	r0, [r4]
	.loc	5 517 18 is_stmt 1              @ SSD1327/OLED_GUI.c:517:18
	ldr	r0, [sp, #100]                  @ 4-byte Reload
	ldrh	r5, [r0]
	.loc	5 517 24 is_stmt 0              @ SSD1327/OLED_GUI.c:517:24
	ldrh	r6, [r1]
	.loc	5 517 22                        @ SSD1327/OLED_GUI.c:517:22
	adds	r5, r5, r6
	.loc	5 517 29                        @ SSD1327/OLED_GUI.c:517:29
	lsrs	r5, r5, #1
	add	r6, sp, #180
	.loc	5 517 11                        @ SSD1327/OLED_GUI.c:517:11
	strh	r5, [r6]
	.loc	5 517 40                        @ SSD1327/OLED_GUI.c:517:40
	ldr	r5, [sp, #204]
	.loc	5 517 46                        @ SSD1327/OLED_GUI.c:517:46
	ldr	r7, [sp, #200]
	.loc	5 517 44                        @ SSD1327/OLED_GUI.c:517:44
	adds	r5, r5, r7
	add	r7, sp, #176
	.loc	5 517 34                        @ SSD1327/OLED_GUI.c:517:34
	strh	r5, [r7]
	.loc	5 518 18 is_stmt 1              @ SSD1327/OLED_GUI.c:518:18
	ldrh	r5, [r1]
	.loc	5 518 24 is_stmt 0              @ SSD1327/OLED_GUI.c:518:24
	ldrh	r0, [r3]
	.loc	5 518 22                        @ SSD1327/OLED_GUI.c:518:22
	adds	r0, r5, r0
	.loc	5 518 29                        @ SSD1327/OLED_GUI.c:518:29
	lsrs	r0, r0, #1
	add	r5, sp, #172
	.loc	5 518 11                        @ SSD1327/OLED_GUI.c:518:11
	strh	r0, [r5]
	.loc	5 518 40                        @ SSD1327/OLED_GUI.c:518:40
	ldr	r0, [sp, #204]
	.loc	5 518 46                        @ SSD1327/OLED_GUI.c:518:46
	str	r0, [sp, #68]                   @ 4-byte Spill
	ldr	r0, [sp, #200]
	.loc	5 518 44                        @ SSD1327/OLED_GUI.c:518:44
	str	r0, [sp, #64]                   @ 4-byte Spill
	ldr	r0, [sp, #68]                   @ 4-byte Reload
	str	r1, [sp, #60]                   @ 4-byte Spill
	ldr	r1, [sp, #64]                   @ 4-byte Reload
	adds	r0, r0, r1
	add	r1, sp, #168
	.loc	5 518 34                        @ SSD1327/OLED_GUI.c:518:34
	strh	r0, [r1]
	.loc	5 520 17 is_stmt 1              @ SSD1327/OLED_GUI.c:520:17
	ldr	r0, [sp, #100]                  @ 4-byte Reload
	ldrh	r0, [r0]
	.loc	5 520 22 is_stmt 0              @ SSD1327/OLED_GUI.c:520:22
	str	r0, [sp, #56]                   @ 4-byte Spill
	ldr	r0, [sp, #92]                   @ 4-byte Reload
	ldrh	r0, [r0]
	.loc	5 520 27                        @ SSD1327/OLED_GUI.c:520:27
	str	r0, [sp, #52]                   @ 4-byte Spill
	ldr	r0, [sp, #88]                   @ 4-byte Reload
	ldrh	r0, [r0]
	.loc	5 520 2                         @ SSD1327/OLED_GUI.c:520:2
	str	r0, [sp, #48]                   @ 4-byte Spill
	ldr	r0, [sp, #144]                  @ 4-byte Reload
	str	r0, [sp, #4]
	ldr	r0, [sp, #164]                  @ 4-byte Reload
	str	r0, [sp]
	ldr	r0, [sp, #56]                   @ 4-byte Reload
	str	r1, [sp, #44]                   @ 4-byte Spill
	ldr	r1, [sp, #52]                   @ 4-byte Reload
	str	r2, [sp, #40]                   @ 4-byte Spill
	ldr	r2, [sp, #48]                   @ 4-byte Reload
	str	r3, [sp, #36]                   @ 4-byte Spill
	ldr	r3, [sp, #148]                  @ 4-byte Reload
	str	r4, [sp, #32]                   @ 4-byte Spill
	str	r6, [sp, #28]                   @ 4-byte Spill
	str	r7, [sp, #24]                   @ 4-byte Spill
	str	r5, [sp, #20]                   @ 4-byte Spill
	bl	GUI_DrawCircle
	.loc	5 521 17 is_stmt 1              @ SSD1327/OLED_GUI.c:521:17
	ldr	r0, [sp, #60]                   @ 4-byte Reload
	ldrh	r0, [r0]
	.loc	5 521 22 is_stmt 0              @ SSD1327/OLED_GUI.c:521:22
	ldr	r1, [sp, #40]                   @ 4-byte Reload
	ldrh	r1, [r1]
	.loc	5 521 27                        @ SSD1327/OLED_GUI.c:521:27
	ldr	r2, [sp, #88]                   @ 4-byte Reload
	ldrh	r2, [r2]
	.loc	5 521 2                         @ SSD1327/OLED_GUI.c:521:2
	ldr	r3, [sp, #144]                  @ 4-byte Reload
	str	r3, [sp, #4]
	ldr	r4, [sp, #164]                  @ 4-byte Reload
	str	r4, [sp]
	ldr	r3, [sp, #148]                  @ 4-byte Reload
	bl	GUI_DrawCircle
	.loc	5 522 17 is_stmt 1              @ SSD1327/OLED_GUI.c:522:17
	ldr	r0, [sp, #36]                   @ 4-byte Reload
	ldrh	r0, [r0]
	.loc	5 522 22 is_stmt 0              @ SSD1327/OLED_GUI.c:522:22
	ldr	r1, [sp, #32]                   @ 4-byte Reload
	ldrh	r1, [r1]
	.loc	5 522 27                        @ SSD1327/OLED_GUI.c:522:27
	ldr	r2, [sp, #88]                   @ 4-byte Reload
	ldrh	r2, [r2]
	.loc	5 522 2                         @ SSD1327/OLED_GUI.c:522:2
	ldr	r3, [sp, #144]                  @ 4-byte Reload
	str	r3, [sp, #4]
	ldr	r4, [sp, #164]                  @ 4-byte Reload
	str	r4, [sp]
	ldr	r3, [sp, #148]                  @ 4-byte Reload
	bl	GUI_DrawCircle
	.loc	5 523 17 is_stmt 1              @ SSD1327/OLED_GUI.c:523:17
	ldr	r0, [sp, #28]                   @ 4-byte Reload
	ldrh	r0, [r0]
	.loc	5 523 22 is_stmt 0              @ SSD1327/OLED_GUI.c:523:22
	ldr	r1, [sp, #24]                   @ 4-byte Reload
	ldrh	r1, [r1]
	.loc	5 523 27                        @ SSD1327/OLED_GUI.c:523:27
	ldr	r2, [sp, #88]                   @ 4-byte Reload
	ldrh	r2, [r2]
	.loc	5 523 2                         @ SSD1327/OLED_GUI.c:523:2
	ldr	r3, [sp, #144]                  @ 4-byte Reload
	str	r3, [sp, #4]
	ldr	r4, [sp, #164]                  @ 4-byte Reload
	str	r4, [sp]
	ldr	r3, [sp, #148]                  @ 4-byte Reload
	bl	GUI_DrawCircle
	.loc	5 524 17 is_stmt 1              @ SSD1327/OLED_GUI.c:524:17
	ldr	r0, [sp, #20]                   @ 4-byte Reload
	ldrh	r0, [r0]
	.loc	5 524 22 is_stmt 0              @ SSD1327/OLED_GUI.c:524:22
	ldr	r1, [sp, #44]                   @ 4-byte Reload
	ldrh	r1, [r1]
	.loc	5 524 27                        @ SSD1327/OLED_GUI.c:524:27
	ldr	r2, [sp, #88]                   @ 4-byte Reload
	ldrh	r2, [r2]
	.loc	5 524 2                         @ SSD1327/OLED_GUI.c:524:2
	ldr	r3, [sp, #144]                  @ 4-byte Reload
	str	r3, [sp, #4]
	ldr	r4, [sp, #164]                  @ 4-byte Reload
	str	r4, [sp]
	ldr	r3, [sp, #148]                  @ 4-byte Reload
	bl	GUI_DrawCircle
	.loc	5 527 2 is_stmt 1               @ SSD1327/OLED_GUI.c:527:2
	ldr	r0, [sp, #148]                  @ 4-byte Reload
	str	r0, [sp, #4]
	ldr	r1, [sp, #164]                  @ 4-byte Reload
	str	r1, [sp]
	ldr	r2, __arm_cp.11_2
	ldr	r3, __arm_cp.11_3
	movs	r1, #25
	ldr	r0, [sp, #116]                  @ 4-byte Reload
	str	r3, [sp, #16]                   @ 4-byte Spill
	bl	GUI_DisString_EN
	.loc	5 528 2                         @ SSD1327/OLED_GUI.c:528:2
	ldr	r0, [sp, #148]                  @ 4-byte Reload
	str	r0, [sp, #4]
	ldr	r1, [sp, #164]                  @ 4-byte Reload
	str	r1, [sp]
	ldr	r2, __arm_cp.11_4
	movs	r0, #28
	ldr	r1, [sp, #96]                   @ 4-byte Reload
	ldr	r3, [sp, #16]                   @ 4-byte Reload
	bl	GUI_DisString_EN
	.loc	5 529 2                         @ SSD1327/OLED_GUI.c:529:2
	ldr	r0, [sp, #148]                  @ 4-byte Reload
	str	r0, [sp, #4]
	ldr	r1, [sp, #164]                  @ 4-byte Reload
	str	r1, [sp]
	ldr	r2, __arm_cp.11_5
	movs	r0, #18
	movs	r1, #45
	ldr	r3, [sp, #16]                   @ 4-byte Reload
	bl	GUI_DisString_EN
	.loc	5 532 2                         @ SSD1327/OLED_GUI.c:532:2
	bl	OLED_Display
	movw	r0, #2000
	.loc	5 533 2                         @ SSD1327/OLED_GUI.c:533:2
	bl	Driver_Delay_ms
	.loc	5 534 1                         @ SSD1327/OLED_GUI.c:534:1
	add	sp, #212
	pop	{r4, r5, r6, r7, pc}
.Ltmp235:
	.p2align	2
@ %bb.1:
	.loc	5 0 1 is_stmt 0                 @ SSD1327/OLED_GUI.c:0:1
__arm_cp.11_0:
	.long	sOLED_DIS
.Lcpi_end28:
	.size	__arm_cp.11_0, .Lcpi_end28-__arm_cp.11_0
__arm_cp.11_1:
	.long	1074003968                      @ 0x40040000
.Lcpi_end29:
	.size	__arm_cp.11_1, .Lcpi_end29-__arm_cp.11_1
__arm_cp.11_2:
	.long	.L.str.9
.Lcpi_end30:
	.size	__arm_cp.11_2, .Lcpi_end30-__arm_cp.11_2
__arm_cp.11_3:
	.long	Font12
.Lcpi_end31:
	.size	__arm_cp.11_3, .Lcpi_end31-__arm_cp.11_3
__arm_cp.11_4:
	.long	.L.str.10
.Lcpi_end32:
	.size	__arm_cp.11_4, .Lcpi_end32-__arm_cp.11_4
__arm_cp.11_5:
	.long	.L.str.11
.Lcpi_end33:
	.size	__arm_cp.11_5, .Lcpi_end33-__arm_cp.11_5
.Lfunc_end11:
	.size	GUI_Show, .Lfunc_end11-GUI_Show
	.cfi_endproc
	.cantunwind
	.fnend
                                        @ -- End function
	.section	.text.OLED_Config,"ax",%progbits
	.hidden	OLED_Config                     @ -- Begin function OLED_Config
	.globl	OLED_Config
	.p2align	2
	.type	OLED_Config,%function
	.code	16                              @ @OLED_Config
	.thumb_func
OLED_Config:
.Lfunc_begin12:
	.loc	5 541 0 is_stmt 1               @ SSD1327/OLED_GUI.c:541:0
	.fnstart
	.cfi_startproc
@ %bb.0:
	.save	{r7, lr}
	push	{r7, lr}
	.cfi_def_cfa_offset 8
	.cfi_offset lr, -4
	.cfi_offset r7, -8
	.pad	#16
	sub	sp, #16
	.cfi_def_cfa_offset 24
	ldr	r0, __arm_cp.12_0
	movw	r1, #6144
	movs	r2, #1
.Ltmp236:
	.loc	5 543 2 prologue_end            @ SSD1327/OLED_GUI.c:543:2
	str	r2, [sp, #12]                   @ 4-byte Spill
	bl	GPIO_SetMode
	ldr	r0, __arm_cp.12_1
	.loc	5 544 10                        @ SSD1327/OLED_GUI.c:544:10
	ldr	r1, [sp, #12]                   @ 4-byte Reload
	str	r1, [r0]
	ldr	r0, __arm_cp.12_2
	.loc	5 545 10                        @ SSD1327/OLED_GUI.c:545:10
	str	r1, [r0]
	.loc	5 551 2                         @ SSD1327/OLED_GUI.c:551:2
	bl	System_Init
	movs	r1, #0
	.loc	5 555 2                         @ SSD1327/OLED_GUI.c:555:2
	str	r0, [sp, #8]                    @ 4-byte Spill
	mov	r0, r1
	str	r1, [sp, #4]                    @ 4-byte Spill
	bl	OLED_Init
	.loc	5 559 2                         @ SSD1327/OLED_GUI.c:559:2
	bl	GUI_Show
	.loc	5 563 2                         @ SSD1327/OLED_GUI.c:563:2
	ldr	r0, [sp, #4]                    @ 4-byte Reload
	bl	OLED_Clear
	.loc	5 564 2                         @ SSD1327/OLED_GUI.c:564:2
	bl	OLED_Display
	.loc	5 565 1                         @ SSD1327/OLED_GUI.c:565:1
	add	sp, #16
	pop	{r7, pc}
.Ltmp237:
	.p2align	2
@ %bb.1:
	.loc	5 0 1 is_stmt 0                 @ SSD1327/OLED_GUI.c:0:1
__arm_cp.12_0:
	.long	1342193792                      @ 0x50004080
.Lcpi_end34:
	.size	__arm_cp.12_0, .Lcpi_end34-__arm_cp.12_0
__arm_cp.12_1:
	.long	1342195884                      @ 0x500048ac
.Lcpi_end35:
	.size	__arm_cp.12_1, .Lcpi_end35-__arm_cp.12_1
__arm_cp.12_2:
	.long	1342195888                      @ 0x500048b0
.Lcpi_end36:
	.size	__arm_cp.12_2, .Lcpi_end36-__arm_cp.12_2
.Lfunc_end12:
	.size	OLED_Config, .Lfunc_end12-OLED_Config
	.cfi_endproc
	.cantunwind
	.fnend
                                        @ -- End function
	.section	.text.OLED_Background_On,"ax",%progbits
	.hidden	OLED_Background_On              @ -- Begin function OLED_Background_On
	.globl	OLED_Background_On
	.p2align	2
	.type	OLED_Background_On,%function
	.code	16                              @ @OLED_Background_On
	.thumb_func
OLED_Background_On:
.Lfunc_begin13:
	.loc	5 568 0 is_stmt 1               @ SSD1327/OLED_GUI.c:568:0
	.fnstart
	.cfi_startproc
@ %bb.0:
	.save	{r4, lr}
	push	{r4, lr}
	.cfi_def_cfa_offset 8
	.cfi_offset lr, -4
	.cfi_offset r4, -8
	.pad	#24
	sub	sp, #24
	.cfi_def_cfa_offset 32
	movs	r0, #0
	movs	r1, #127
.Ltmp238:
	.loc	5 569 2 prologue_end            @ SSD1327/OLED_GUI.c:569:2
	str	r0, [sp, #20]                   @ 4-byte Spill
	ldr	r2, [sp, #20]                   @ 4-byte Reload
	str	r1, [sp, #16]                   @ 4-byte Spill
	mov	r1, r2
	ldr	r2, [sp, #16]                   @ 4-byte Reload
	ldr	r3, [sp, #16]                   @ 4-byte Reload
	bl	OLED_SetWindow
	.loc	5 570 2                         @ SSD1327/OLED_GUI.c:570:2
	ldr	r0, [sp, #20]                   @ 4-byte Reload
	str	r0, [sp]
	ldr	r1, [sp, #20]                   @ 4-byte Reload
	ldr	r2, [sp, #16]                   @ 4-byte Reload
	ldr	r3, [sp, #16]                   @ 4-byte Reload
	bl	OLED_ClearWindow
	movs	r0, #8
	.loc	5 574 2                         @ SSD1327/OLED_GUI.c:574:2
	str	r0, [sp]
	ldr	r2, __arm_cp.13_0
	movs	r1, #2
	movs	r3, #16
	ldr	r4, [sp, #20]                   @ 4-byte Reload
	str	r0, [sp, #12]                   @ 4-byte Spill
	mov	r0, r4
	str	r1, [sp, #8]                    @ 4-byte Spill
	str	r3, [sp, #4]                    @ 4-byte Spill
	bl	GUI_Disbitmap
	.loc	5 575 2                         @ SSD1327/OLED_GUI.c:575:2
	ldr	r0, [sp, #12]                   @ 4-byte Reload
	str	r0, [sp]
	ldr	r2, __arm_cp.13_1
	movs	r0, #24
	ldr	r1, [sp, #8]                    @ 4-byte Reload
	ldr	r3, [sp, #12]                   @ 4-byte Reload
	bl	GUI_Disbitmap
	.loc	5 576 2                         @ SSD1327/OLED_GUI.c:576:2
	ldr	r0, [sp, #12]                   @ 4-byte Reload
	str	r0, [sp]
	ldr	r2, __arm_cp.13_2
	movs	r0, #40
	ldr	r1, [sp, #8]                    @ 4-byte Reload
	ldr	r3, [sp, #4]                    @ 4-byte Reload
	bl	GUI_Disbitmap
	.loc	5 577 2                         @ SSD1327/OLED_GUI.c:577:2
	ldr	r0, [sp, #12]                   @ 4-byte Reload
	str	r0, [sp]
	ldr	r2, __arm_cp.13_3
	movs	r0, #64
	ldr	r1, [sp, #8]                    @ 4-byte Reload
	ldr	r3, [sp, #12]                   @ 4-byte Reload
	bl	GUI_Disbitmap
	.loc	5 578 2                         @ SSD1327/OLED_GUI.c:578:2
	ldr	r0, [sp, #12]                   @ 4-byte Reload
	str	r0, [sp]
	ldr	r2, __arm_cp.13_4
	movs	r0, #90
	ldr	r1, [sp, #8]                    @ 4-byte Reload
	ldr	r3, [sp, #12]                   @ 4-byte Reload
	bl	GUI_Disbitmap
	.loc	5 579 2                         @ SSD1327/OLED_GUI.c:579:2
	ldr	r0, [sp, #12]                   @ 4-byte Reload
	str	r0, [sp]
	ldr	r2, __arm_cp.13_5
	movs	r0, #112
	ldr	r1, [sp, #8]                    @ 4-byte Reload
	ldr	r3, [sp, #4]                    @ 4-byte Reload
	bl	GUI_Disbitmap
	.loc	5 583 2                         @ SSD1327/OLED_GUI.c:583:2
	ldr	r2, __arm_cp.13_6
	ldr	r0, [sp, #20]                   @ 4-byte Reload
	ldr	r1, [sp, #20]                   @ 4-byte Reload
	bl	GUI_DisGrayMap
	.loc	5 586 2                         @ SSD1327/OLED_GUI.c:586:2
	ldr	r0, [sp, #20]                   @ 4-byte Reload
	ldr	r1, [sp, #20]                   @ 4-byte Reload
	ldr	r2, [sp, #16]                   @ 4-byte Reload
	ldr	r3, [sp, #16]                   @ 4-byte Reload
	bl	OLED_DisWindow
	.loc	5 587 1                         @ SSD1327/OLED_GUI.c:587:1
	add	sp, #24
	pop	{r4, pc}
.Ltmp239:
	.p2align	2
@ %bb.1:
	.loc	5 0 1 is_stmt 0                 @ SSD1327/OLED_GUI.c:0:1
__arm_cp.13_0:
	.long	Signal816
.Lcpi_end37:
	.size	__arm_cp.13_0, .Lcpi_end37-__arm_cp.13_0
__arm_cp.13_1:
	.long	Bluetooth88
.Lcpi_end38:
	.size	__arm_cp.13_1, .Lcpi_end38-__arm_cp.13_1
__arm_cp.13_2:
	.long	Msg816
.Lcpi_end39:
	.size	__arm_cp.13_2, .Lcpi_end39-__arm_cp.13_2
__arm_cp.13_3:
	.long	GPRS88
.Lcpi_end40:
	.size	__arm_cp.13_3, .Lcpi_end40-__arm_cp.13_3
__arm_cp.13_4:
	.long	Alarm88
.Lcpi_end41:
	.size	__arm_cp.13_4, .Lcpi_end41-__arm_cp.13_4
__arm_cp.13_5:
	.long	Bat816
.Lcpi_end42:
	.size	__arm_cp.13_5, .Lcpi_end42-__arm_cp.13_5
__arm_cp.13_6:
	.long	gImage_background
.Lcpi_end43:
	.size	__arm_cp.13_6, .Lcpi_end43-__arm_cp.13_6
.Lfunc_end13:
	.size	OLED_Background_On, .Lfunc_end13-OLED_Background_On
	.cfi_endproc
	.cantunwind
	.fnend
                                        @ -- End function
	.section	.text.OLED_BPM,"ax",%progbits
	.hidden	OLED_BPM                        @ -- Begin function OLED_BPM
	.globl	OLED_BPM
	.p2align	2
	.type	OLED_BPM,%function
	.code	16                              @ @OLED_BPM
	.thumb_func
OLED_BPM:
.Lfunc_begin14:
	.loc	5 590 0 is_stmt 1               @ SSD1327/OLED_GUI.c:590:0
	.fnstart
	.cfi_startproc
@ %bb.0:
	.save	{r7, lr}
	push	{r7, lr}
	.cfi_def_cfa_offset 8
	.cfi_offset lr, -4
	.cfi_offset r7, -8
	.pad	#48
	sub	sp, #48
	.cfi_def_cfa_offset 56
	str	r0, [sp, #44]
.Ltmp240:
	.loc	5 591 5 prologue_end            @ SSD1327/OLED_GUI.c:591:5
	ldr	r0, [sp, #44]
	ldr	r1, __arm_cp.14_0
.Ltmp241:
	.loc	5 591 5 is_stmt 0               @ SSD1327/OLED_GUI.c:591:5
	cmp	r0, r1
	bne	.LBB14_2
	b	.LBB14_1
.LBB14_1:
	.loc	5 0 5                           @ SSD1327/OLED_GUI.c:0:5
	movs	r0, #0
	movs	r1, #10
	movs	r2, #127
	movs	r3, #50
.Ltmp242:
	.loc	5 593 3 is_stmt 1               @ SSD1327/OLED_GUI.c:593:3
	str	r0, [sp, #40]                   @ 4-byte Spill
	str	r1, [sp, #36]                   @ 4-byte Spill
	str	r2, [sp, #32]                   @ 4-byte Spill
	str	r3, [sp, #28]                   @ 4-byte Spill
	bl	OLED_SetWindow
	.loc	5 594 3                         @ SSD1327/OLED_GUI.c:594:3
	ldr	r0, [sp, #40]                   @ 4-byte Reload
	str	r0, [sp]
	ldr	r1, [sp, #36]                   @ 4-byte Reload
	ldr	r2, [sp, #32]                   @ 4-byte Reload
	ldr	r3, [sp, #28]                   @ 4-byte Reload
	bl	OLED_ClearWindow
	.loc	5 595 3                         @ SSD1327/OLED_GUI.c:595:3
	ldr	r0, [sp, #40]                   @ 4-byte Reload
	ldr	r1, [sp, #36]                   @ 4-byte Reload
	ldr	r2, [sp, #32]                   @ 4-byte Reload
	ldr	r3, [sp, #28]                   @ 4-byte Reload
	bl	OLED_DisWindow
	.loc	5 596 3                         @ SSD1327/OLED_GUI.c:596:3
	b	.LBB14_3
.Ltmp243:
.LBB14_2:
	.loc	5 0 3 is_stmt 0                 @ SSD1327/OLED_GUI.c:0:3
	movs	r0, #0
	movs	r1, #10
	movs	r2, #127
	movs	r3, #50
	.loc	5 601 2 is_stmt 1               @ SSD1327/OLED_GUI.c:601:2
	str	r0, [sp, #24]                   @ 4-byte Spill
	str	r1, [sp, #20]                   @ 4-byte Spill
	str	r2, [sp, #16]                   @ 4-byte Spill
	str	r3, [sp, #12]                   @ 4-byte Spill
	bl	OLED_SetWindow
	.loc	5 602 22                        @ SSD1327/OLED_GUI.c:602:22
	ldr	r2, [sp, #44]
	movs	r0, #15
	.loc	5 602 2 is_stmt 0               @ SSD1327/OLED_GUI.c:602:2
	str	r0, [sp, #4]
	ldr	r0, [sp, #24]                   @ 4-byte Reload
	str	r0, [sp]
	ldr	r3, __arm_cp.14_1
	movs	r0, #22
	movs	r1, #25
	bl	GUI_DisNum
	.loc	5 603 2 is_stmt 1               @ SSD1327/OLED_GUI.c:603:2
	ldr	r0, [sp, #24]                   @ 4-byte Reload
	ldr	r1, [sp, #20]                   @ 4-byte Reload
	ldr	r2, [sp, #16]                   @ 4-byte Reload
	ldr	r3, [sp, #12]                   @ 4-byte Reload
	bl	OLED_DisWindow
	.loc	5 604 1                         @ SSD1327/OLED_GUI.c:604:1
	b	.LBB14_3
.LBB14_3:
	add	sp, #48
	pop	{r7, pc}
.Ltmp244:
	.p2align	2
@ %bb.4:
	.loc	5 0 1 is_stmt 0                 @ SSD1327/OLED_GUI.c:0:1
__arm_cp.14_0:
	.long	9999                            @ 0x270f
.Lcpi_end44:
	.size	__arm_cp.14_0, .Lcpi_end44-__arm_cp.14_0
__arm_cp.14_1:
	.long	Font24
.Lcpi_end45:
	.size	__arm_cp.14_1, .Lcpi_end45-__arm_cp.14_1
.Lfunc_end14:
	.size	OLED_BPM, .Lfunc_end14-OLED_BPM
	.cfi_endproc
	.cantunwind
	.fnend
                                        @ -- End function
	.section	.text.OLED_Off,"ax",%progbits
	.hidden	OLED_Off                        @ -- Begin function OLED_Off
	.globl	OLED_Off
	.p2align	1
	.type	OLED_Off,%function
	.code	16                              @ @OLED_Off
	.thumb_func
OLED_Off:
.Lfunc_begin15:
	.loc	5 607 0 is_stmt 1               @ SSD1327/OLED_GUI.c:607:0
	.fnstart
	.cfi_startproc
@ %bb.0:
	.save	{r7, lr}
	push	{r7, lr}
	.cfi_def_cfa_offset 8
	.cfi_offset lr, -4
	.cfi_offset r7, -8
	movs	r0, #0
.Ltmp245:
	.loc	5 608 2 prologue_end            @ SSD1327/OLED_GUI.c:608:2
	bl	OLED_Clear
	.loc	5 609 2                         @ SSD1327/OLED_GUI.c:609:2
	bl	OLED_Display
	.loc	5 610 1                         @ SSD1327/OLED_GUI.c:610:1
	pop	{r7, pc}
.Ltmp246:
.Lfunc_end15:
	.size	OLED_Off, .Lfunc_end15-OLED_Off
	.cfi_endproc
	.cantunwind
	.fnend
                                        @ -- End function
	.type	.L.str,%object                  @ @.str
	.section	.rodata.str1.1,"aMS",%progbits,1
.L.str:
	.asciz	"GUI_DrawPoint Input exceeds the normal display range\r\n"
	.size	.L.str, 55

	.type	.L.str.1,%object                @ @.str.1
.L.str.1:
	.asciz	"GUI_DrawLine Input exceeds the normal display range\r\n"
	.size	.L.str.1, 54

	.type	.L.str.2,%object                @ @.str.2
.L.str.2:
	.asciz	"Input exceeds the normal display range\r\n"
	.size	.L.str.2, 41

	.type	.L.str.3,%object                @ @.str.3
.L.str.3:
	.asciz	"GUI_DrawCircle Input exceeds the normal display range\r\n"
	.size	.L.str.3, 56

	.type	.L.str.4,%object                @ @.str.4
.L.str.4:
	.asciz	"GUI_DisChar Input exceeds the normal display range\r\n"
	.size	.L.str.4, 53

	.type	.L.str.5,%object                @ @.str.5
.L.str.5:
	.asciz	"GUI_DisString_EN Input exceeds the normal display range\r\n"
	.size	.L.str.5, 58

	.type	.L.str.6,%object                @ @.str.6
.L.str.6:
	.asciz	"GUI_DisNum Input exceeds the normal display range\r\n"
	.size	.L.str.6, 52

	.type	.L.str.7,%object                @ @.str.7
.L.str.7:
	.asciz	"Does not support type\r\n"
	.size	.L.str.7, 24

	.type	.L__const.GUI_Showtime.value,%object @ @__const.GUI_Showtime.value
	.section	.rodata..L__const.GUI_Showtime.value,"a",%progbits
.L__const.GUI_Showtime.value:
	.ascii	"0123456789"
	.size	.L__const.GUI_Showtime.value, 10

	.type	.L.str.8,%object                @ @.str.8
	.section	.rodata.str1.1,"aMS",%progbits,1
.L.str.8:
	.asciz	"Please change the display area size, or add a larger font to modify\r\n"
	.size	.L.str.8, 70

	.type	.L.str.9,%object                @ @.str.9
.L.str.9:
	.asciz	"WaveShare"
	.size	.L.str.9, 10

	.type	.L.str.10,%object               @ @.str.10
.L.str.10:
	.asciz	"Electronic"
	.size	.L.str.10, 11

	.type	.L.str.11,%object               @ @.str.11
.L.str.11:
	.asciz	"1.5inch OLED"
	.size	.L.str.11, 13

	.type	Signal816,%object               @ @Signal816
	.section	.rodata.Signal816,"a",%progbits
Signal816:
	.ascii	"\376\002\222\nT*8\252\022\252\022\252\022\252\022\252"
	.size	Signal816, 16

	.type	Bluetooth88,%object             @ @Bluetooth88
	.section	.rodata.Bluetooth88,"a",%progbits
Bluetooth88:
	.ascii	"\030T2\034\0342T\030"
	.size	Bluetooth88, 8

	.type	Msg816,%object                  @ @Msg816
	.section	.rodata.Msg816,"a",%progbits
Msg816:
	.ascii	"\037\370\020\b\030\030\024(\023\310\020\b\020\b\037\370"
	.size	Msg816, 16

	.type	GPRS88,%object                  @ @GPRS88
	.section	.rodata.GPRS88,"a",%progbits
GPRS88:
	.ascii	"\303\231$ ,$\231\303"
	.size	GPRS88, 8

	.type	Alarm88,%object                 @ @Alarm88
	.section	.rodata.Alarm88,"a",%progbits
Alarm88:
	.ascii	"\303\275BRNB<\303"
	.size	Alarm88, 8

	.type	Bat816,%object                  @ @Bat816
	.section	.rodata.Bat816,"a",%progbits
Bat816:
	.ascii	"\017\3760\002&\332&\332&\332&\3320\002\017\376"
	.size	Bat816, 16

	.type	gImage_background,%object       @ @gImage_background
	.section	.rodata.gImage_background,"a",%progbits
gImage_background:
	.ascii	"\000\004|\000\200\000\377\377\377\377\377\377\377\377\377\377\377\377\377\377\377\377\377\377\377\377\377\377\377\377\377\377\377\377\377\377\377\377\377\377\377\377\377\377\377\377\377\377\377\377\377\377\377\377\377\377\377\377\377\377\377\377\377\377\377\377\377\377\377\377\377\377\377\377\377\377\377\377\377\377\377\377\377\377\377\377\377\377\377\377\377\377\377\377\377\377\377\377\377\377\377\377\377\377\377\377\377\377\377\377\377\377\377\377\377\377\377\377\377\377\377\377\377\377\377\377\377\377\377\377\377\377\377\377\377\377\377\377\377\377\377\377\377\377\377\377\377\377\377\377\377\377\377\377\377\377\377\377\377\377\377\377\377\377\377\377\377\377\377\377\377\377\377\377\377\377\377\377\377\377\377\377\377\377\377\377\377\377\377\377\377\377\377\377\377\377\377\377\377\377\377\377\377\377\377\377\377\377\377\377\377\377\377\377\377\377\377\377\377\377\377\377\377\377\377\377\377\377\377\377\377\377\377\377\377\377\377\377\377\377\377\377\377\377\377\377\377\377\377\377\377\377\377\377\377\377\377\377\377\377\377\377\377\377\377\377\377\377\377\377\377\377\377\377\377\377\377\377\377\377\377\377\377\377\377\377\377\377\377\377\377\377\377\377\377\377\377\377\377\377\377\377\377\377\377\377\377\377\377\377\377\377\377\377\377\377\377\377\377\377\377\377\377\377\377\377\377\377\377\377\377\377\377\377\377\377\377\377\377\377\377\377\377\377\377\377\377\377\377\377\377\377\377\377\377\377\377\377\377\377\377\377\377\377\377\377\377\377\377\377\377\377\377\377\377\377\377\377\377\377\377\377\377\377\377\377\377\377\377\377\377\377\377\377\377\377\377\377\377\377\377\377\377\377\377\377\377\377\377\377\377\377\377\377\377\377\377\377\377\377\377\377\377\377\377\377\377\377\377\377\377\377\377\377\377\377\377\377\377\377\377\377\377\377\377\377\377\377\377\377\377\377\377\377\377\377\377\377\377\377\377\377\377\377\377\377\377\377\377\377\377\377\377\377\377\377\377\377\377\377\377\377\377\377\377\377\377\377\377\377\377\377\377\377\377\377\377\377\377\377\377\377\377\377\377\377\377\377\377\377\377\377\377\377\377\377\377\377\377\377\377\377\377\377\377\377\377\377\377\377\377\377\377\377\377\377\377\377\377\377\377\377\377\377\377\377\377\377\377\377\377\377\377\377\377\377\377\377\377\377\377\377\377\377\377\377\377\377\377\377\377\377\377\377\377\377\377\377\377\377\377\377\377\377\377\377\377\377\377\377\377\377\377\377\377\377\377\377\377\377\377\377\377\377\377\377\377\377\377\377\377\377\377\377\377\377\377\377\377\377\377\377\377\377\377\377\377\377\377\377\377\377\377\377\377\377\377\377\377\377\377\377\377\377\377\377\377\377\377\377\377\377\377\377\377\377\377\377\377\377\377\377\377\377\377\377\377\377\377\377\377\377\377\377\377\377\377\377\377\377\377\377\377\377\377\377\377\377\377\377\377\377\377\377\377\377\377\377\377\377\377\377\377\377\377\377\377\377\377\377\377\377\377\377\377\377\377\377\377\377\377\377\377\377\377\377\377\377\377\377\377\377\377\377\377\377\377\377\377\377\377\377\377\377\377\377\377\377\377\377\377\377\377\377\377\377\377\377\377\377\377\377\377\377\377\377\377\377\377\377\377\377\377\377\377\377\377\377\377\377\377\377\377\377\377\377\377\377\377\377\377\377\377\377\377\377\377\377\377\377\377\377\377\377\377\377\377\377\377\377\377\377\377\377\377\377\377\377\377\377\377\377\377\377\377\377\377\377\377\377\377\377\377\377\377\377\377\377\377\377\377\377\377\377\377\377\377\377\377\377\377\377\377\377\377\377\377\377\377\377\377\377\377\377\377\377\377\377\377\377\377\377\377\377\377\377\377\377\377\377\377\377\377\377\377\377\377\377\377\377\377\377\377\377\377\377\377\377\377\377\377\377\377\377\377\377\377\377\377\377\377\377\377\377\377\377\377\377\377\377\377\377\377\377\377\377\377\377\377\377\377\377\377\377\377\377\377\377\377\377\377\377\377\377\377\377\377\377\377\377\377\377\377\377\377\377\377\377\377\377\377\377\377\377\377\377\377\377\377\377\377\377\377\377\377\377\377\377\377\377\377\377\377\377\377\377\377\377\377\377\377\377\377\377\377\377\377\377\377\377\377\377\377\377\377\377\377\377\377\377\377\377\377\377\377\377\377\377\377\377\377\377\377\377\377\377\377\377\377\377\377\377\377\377\377\377\377\377\377\377\377\377\377\377\377\377\377\377\377\377\377\377\377\377\377\377\377\377\377\377\377\377\377\377\377\377\377\377\377\377\377\377\377\377\377\377\377\377\377\377\377\377\377\377\377\377\377\377\377\377\377\377\377\377\377\377\377\377\377\377\377\377\377\377\377\377\377\377\377\377\377\377\377\377\377\377\377\377\377\377\377\377\377\377\377\377\377\377\377\377\377\377\377\377\377\377\377\377\377\377\377\377\377\377\377\377\377\377\377\377\377\377\377\377\377\377\377\377\377\377\377\377\377\377\377\377\377\377\377\377\377\377\377\377\377\377\377\377\377\377\377\377\377\377\377\377\377\377\377\377\377\377\377\377\377\377\377\377\377\377\377\377\377\377\377\377\377\377\377\377\377\377\377\377\377\377\377\377\377\377\377\377\377\377\377\377\377\377\377\377\377\377\377\377\377\377\377\377\377\377\377\377\377\377\377\377\377\377\377\377\377\377\377\377\377\377\377\377\377\377\377\377\377\377\377\377\377\377\377\377\377\377\377\377\377\377\377\377\377\377\377\377\377\377\377\377\377\377\377\377\377\377\377\377\377\377\377\377\377\377\377\377\377\377\377\377\377\377\377\377\377\377\377\377\377\377\377\377\377\377\377\377\377\377\377\377\377\377\377\377\377\377\377\377\377\377\377\377\377\377\377\377\377\377\377\377\377\377\377\377\377\377\377\377\377\377\377\377\377\377\377\377\377\377\377\377\377\377\377\377\377\377\377\377\377\377\377\377\377\377\377\377\377\377\377\377\377\377\377\377\377\377\377\377\377\377\377\377\377\377\377\377\377\377\377\377\377\377\377\377\377\377\377\377\377\377\377\377\377\377\377\377\377\377\377\377\377\377\377\377\377\377\377\377\377\377\377\377\377\377\377\377\377\377\377\377\377\377\377\377\377\377\377\377\377\377\377\377\377\377\377\377\377\377\377\377\377\377\377\377\377\377\377\377\377\377\377\377\377\377\377\377\377\377\377\377\377\377\377\377\377\377\377\377\377\377\377\377\377\377\377\377\377\377\377\377\377\377\377\377\377\377\377\377\377\377\377\377\377\377\377\377\377\377\377\377\377\377\377\377\377\377\377\377\377\377\377\377\377\377\377\377\377\377\377\377\377\377\377\377\377\377\377\377\377\377\377\377\377\377\377\377\377\377\377\377\377\377\377\377\377\377\377\377\377\377\377\377\377\377\377\377\377\377\377\377\377\377\377\377\377\377\377\377\377\377\377\377\377\377\377\377\377\377\377\377\377\377\377\377\377\377\377\377\377\377\377\377\377\377\377\377\377\377\377\377\377\377\377\377\377\377\377\377\377\377\377\377\377\377\377\377\377\377\377\377\377\377\377\377\377\377\377\377\377\377\377\377\377\377\377\377\377\377\377\377\377\377\377\377\377\377\377\377\377\377\377\377\377\377\377\377\377\377\377\377\377\377\377\377\377\377\377\377\377\377\377\377\377\377\377\377\377\377\377\377\377\377\377\377\377\377\377\377\377\377\377\377\377\377\377\377\377\377\377\377\377\377\377\377\377\377\377\377\377\377\377\377\377\377\377\377\377\377\377\377\377\377\377\377\377\377\377\377\377\377\377\377\377\377\377\377\377\377\377\377\377\377\377\377\377\377\377\377\377\377\377\377\377\377\377\377\377\377\377\377\377\377\377\377\377\377\377\377\377\377\377\377\377\377\377\377\377\377\377\377\377\377\377\377\377\377\377\377\377\377\377\377\377\377\377\377\377\377\377\377\377\377\377\377\377\377\377\377\377\377\377\377\377\377\377\377\377\377\377\377\377\377\377\377\377\377\377\377\377\377\377\377\377\377\377\377\377\377\377\377\377\377\377\377\377\377\377\377\377\377\377\377\377\377\377\377\377\377\377\377\377\377\377\377\377\377\377\377\377\377\377\377\377\377\377\377\377\377\377\377\377\377\377\377\377\377\377\377\377\377\377\377\377\377\377\377\377\377\377\377\377\377\377\377\377\377\377\377\377\377\377\377\377\377\377\377\377\377\377\377\377\377\377\377\377\377\377\377\377\377\377\377\377\377\377\377\377\377\377\377\377\377\377\377\377\377\377\377\377\377\377\377\377\377\377\377\377\377\377\377\377\377\377\377\377\377\377\377\377\377\377\377\377\377\377\377\377\377\377\377\377\377\377\377\377\377\377\377\377\377\377\377\377\377\377\377\377\377\377\377\377\377\377\377\377\377\377\377\377\377\377\377\377\377\377\377\377\377\377\377\377\377\377\377\377\377\377\377\377\377\377\377\377\377\377\377\377\377\377\377\377\377\377\377\377\377\377\377\377\377\377\377\377\377\377\377\377\377\377\377\377\377\377\377\377\377\377\377\377\377\377\377\377\377\377\377\377\377\377\377\377\377\377\377\377\377\377\377\377\377\377\377\377\377\377\377\377\377\377\377\377\377\377\377\377\377\377\377\377\377\377\377\377\377\377\377\377\377\377\377\377\377\377\377\377\377\377\377\377\377\377\377\377\377\377\377\377\377\377\377\377\377\377\377\377\377\377\377\377\377\377\377\377\377\377\377\377\377\377\377\377\377\377\377\377\377\377\377\377\377\377\377\377\377\377\377\377\377\377\377\377\377\377\377\377\377\377\377\377\377\377\377\377\377\377\377\377\377\377\377\377\377\377\377\377\377\377\377\377\377\377\377\377\377\377\377\377\377\377\377\377\377\377\377\377\377\377\377\377\377\377\377\377\377\377\377\377\377\377\377\377\377\377\377\377\377\377\377\377\377\377\377\377\377\377\377\377\377\377\377\377\377\377\377\377\377\377\377\377\377\377\377\377\377\377\377\377\377\377\377\377\377\377\377\377\377\377\377\377\377\377\377\377\377\377\377\377\377\377\377\377\377\377\377\377\377\377\377\377\377\377\377\377\377\377\377\377\377\377\377\377\377\377\377\377\377\377\377\377\377\377\377\377\377\377\377\377\377\377\377\377\377\377\377\377\377\377\377\377\377\377\377\377\377\377\377\377\377\377\377\377\377\377\377\377\377\377\377\377\377\377\377\377\377\377\377\377\377\377\377\377\377\377\377\377\377\377\377\377\377\377\377\377\377\377\377\377\377\377\377\377\377\377\377\377\377\377\377\377\377\377\377\377\377\377\377\377\377\377\377\377\377\377\377\377\377\377\377\377\377\377\377\377\377\377\377\377\377\377\377\377\377\377\377\377\377\377\377\377\377\377\377\377\377\377\377\377\377\377\377\377\377\377\377\377\377\377\377\377\377\377\377\377\377\377\377\377\377\377\377\377\377\377\377\377\377\377\377\377\377\377\377\377\377\377\377\377\377\377\377\377\377\377\377\377\377\377\377\377\377\377\377\377\377\377\377\377\377\377\377\377\377\377\377\377\377\377\377\377\377\377\377\377\377\377\377\377\377\377\377\377\377\377\377\377\377\377\377\377\377\377\377\377\377\377\377\377\377\377\377\377\377\377\377\377\377\377\377\377\377\377\377\377\377\377\377\377\377\377\377\377\377\377\377\377\377\377\377\377\377\377\377\377\377\377\377\377\377\377\377\377\377\377\377\377\377\377\377\377\377\377\377\377\377\377\377\377\377\377\377\377\377\377\377\377\377\377\377\377\377\377\377\377\377\377\377\377\377\377\377\377\377\377\377\377\377\377\377\377\377\377\377\377\377\377\377\377\377\377\377\377\377\377\377\377\377\377\377\377\377\377\377\377\377\377\377\377\377\377\377\377\377\377\377\377\377\377\377\377\377\377\377\377\377\377\377\377\377\377\377\377\377\377\377\377\377\377\377\377\377\377\377\377\377\377\377\377\377\377\377\377\377\377\377\377\377\377\377\377\377\377\377\377\377\377\377\377\377\377\377\377\377\377\377\377\377\377\377\377\377\377\377\377\377\377\377\377\377\377\377\377\377\377\377\377\377\377\377\377\377\377\377\377\377\377\377\377\377\377\377\377\377\377\377\377\377\377\377\377\377\377\377\377\377\377\377\377\377\377\377\377\377\377\377\377\377\377\377\377\377\377\377\377\377\377\377\377\377\377\377\377\377\377\377\377\377\377\377\377\377\377\377\377\377\377\377\377\377\377\377\377\377\377\377\377\377\377\377\377\377\377\377\377\377\377\377\377\377\377\377\377\377\377\377\377\377\377\377\377\377\377\377\377\377\377\377\377\377\377\377\377\377\377\377\377\377\377\377\377\377\377\377\377\377\377\377\377\377\377\377\377\377\377\377\377\377\377\377\377\377\377\377\377\377\377\377\377\377\377\377\377\377\377\377\377\377\377\377\377\377\377\377\377\377\377\377\377\377\377\377\377\377\377\377\377\377\377\377\377\377\377\377\377\377\377\377\377\377\377\377\377\377\377\377\377\377\377\377\377\377\377\377\377\377\377\377\377\377\377\377\377\377\377\377\377\377\377\377\377\377\377\377\377\377\377\377\377\377\377\377\377\377\377\377\377\377\377\377\377\377\377\377\377\377\377\377\377\377\377\377\377\377\377\377\377\377\377\377\377\377\377\377\377\377\377\377\377\377\377\377\377\377\377\377\377\377\377\377\377\377\377\377\377\377\377\377\377\377\377\377\377\377\377\377\377\377\377\377\377\377\377\377\377\377\377\377\377\377\377\377\377\377\377\377\377\377\377\377\377\377\377\377\377\377\377\377\377\377\377\377\377\377\377\377\377\377\377\377\377\377\377\377\377\377\377\377\377\377\377\377\377\377\377\377\377\377\377\377\377\377\377\377\377\377\377\377\377\377\377\377\377\377\377\377\377\377\377\377\377\377\377\377\377\377\377\377\377\377\377\377\377\377\377\377\377\377\377\377\377\377\377\377\377\377\377\377\377\377\377\377\377\377\377\377\377\377\377\377\377\377\377\377\377\377\377\377\377\377\377\377\377\377\377\377\377\377\377\377\377\377\377\377\377\377\377\377\377\377\377\377\377\377\377\377\377\377\377\377\377\377\377\377\377\377\377\377\377\377\377\377\377\377\231\231\231\255\377\377\311\231\231\232\317\377\371\231\377\377\377\373\231\377\377\377\377\377\377\377\377\377\377\377\377\377\377\377\377\377\377\377\377\377\377\377\377\377\377\377\377\377\377\377\377\377\377\377\377\377\377\377\377\377\377\377\000\000\000\000\177\377\220\000\000\000\003\377\360\000\337\377\377\361\001\377\377\377\377\377\377\377\377\377\377\377\377\377\377\377\377\377\377\377\377\377\377\377\377\377\377\377\377\377\377\377\377\377\377\377\377\377\377\377\377\377\377\377\001\356\356\300\f\377\200~\356\355\020o\360\000\177\377\377\320\001\377\377\377\377\377\377\377\377\377\377\377\377\377\377\377\377\377\377\377\377\377\377\377\377\377\377\377\377\377\377\377\377\377\377\377\377\377\377\377\377\377\377\377\001\377\377\371\004\377\220\177\377\377\340/\360\020\037\377\377`\021\377\377\377\377\377\377\377\377\377\377\377\377\377\377\377\377\377\377\377\377\377\377\377\377\377\377\377\377\377\377\377\377\377\377\377\377\377\377\377\377\377\377\377\001\377\377\373\004\377\220\177\377\377\360\037\360\026\017\377\377\004\021\377\377\377\377\377\377\377\377\377\377\377\377\377\377\377\377\377\377\377\377\377\377\377\377\377\377\377\377\377\377\377\377\377\377\377\377\377\377\377\377\377\377\377\001\377\377\364\013\377\220\177\377\377\320/\360\033\006\377\375\n\021\377\377\377\377\377\377\377\377\377\377\377\377\377\377\377\377\377\377\377\377\377\377\377\377\377\377\377\377\377\377\377\377\377\377\377\377\377\377\377\377\377\377\377\000C3\020o\377\200\177\377\347\000\217\360\037\021\377\363\037\021\377\377\377\377\377\377\377\377\377\377\377\377\377\377\377\377\377\377\377\377\377\377\377\377\377\377\377\377\377\377\377\377\377\377\377\377\377\377\377\377\377\377\377\000\000\000\000\037\377\220\000\000\000\005\377\360\037@\357\360O\021\377\377\377\377\377\377\377\377\377\377\377\377\377\377\377\377\377\377\377\377\377\377\377\377\377\377\377\377\377\377\377\377\377\377\377\377\377\377\377\377\377\377\377\001\377\377\366\001\377\220Gw\214\377\377\360\037\300\177\260\277\021\377\377\377\377\377\377\377\377\377\377\377\377\377\377\377\377\377\377\377\377\377\377\377\377\377\377\377\377\377\377\377\377\377\377\377\377\377\377\377\377\377\377\377\001\377\377\377\020\317\220\177\377\377\377\377\360\037\360/@\377\021\377\377\377\377\377\377\377\377\377\377\377\377\377\377\377\377\377\377\377\377\377\377\377\377\377\377\377\377\377\377\377\377\377\377\377\377\377\377\377\377\377\377\377\001\377\377\377\020\277\200\177\377\377\377\377\360\037\364\r\024\377\021\377\377\377\377\377\377\377\377\377\377\377\377\377\377\377\377\377\377\377\377\377\377\377\377\377\377\377\377\377\377\377\377\377\377\377\377\377\377\377\377\377\377\377\001\377\377\377\000\357\220\177\377\377\377\377\360\037\376\003\016\377\021\377\377\377\377\377\377\377\377\377\377\377\377\377\377\377\311w\234\357\377\377\377\377\377\377\377\377\377\377\353\226\211\337\377\377\377\377\377\377\377\377\377\377\000UT \005\377\220\177\377\377\377\377\360\037\377\000\017\377\021\377\377\377\377\377\377\377\377\377\377\377\377\377\376p\000\000\000\005\317\377\377\377\377\377\377\377\377\244\000\000\000\001\216\377\377\377\377\377\377\377\377\377\000\000\000\002\177\377\220\177\377\377\377\377\360\037\377`\177\377\020\377\377\377\377\377\377\377\377\377\377\377\377\377\221\000\000\000\000\000\003\337\377\377\377\377\377\377\302\000\000\000\000\000\001\257\377\377\377\377\377\377\377\377\377\377\377\377\377\377\377\377\377\377\377\377\377\377\377\377\377\377\377\377\377\377\377\377\377\377\377\377\377\377\377\366\000\000\000\000\000\000\000\013\377\377\377\377\377\370\000\000\000\000\000\000\000\t\377\377\377\377\377\377\377\377\377\377\377\377\377\377\377\377\377\377\377\377\377\377\377\377\377\377\377\377\377\377\377\377\377\377\377\377\377\377\377p\000\000\000\000\000\000\000\000\217\377\377\377\377P\000\000\000\000\000\000\000\000\257\377\377\377\377\377\377\377\377\377\377\377\377\377\377\377\377\377\377\377\377\377\377\377\377\377\377\377\377\377\377\377\377\377\377\377\377\377\374\000\000\000\000\000\000\000\000\000\b\377\377\377\366\000\000\000\000\000\000\000\000\000\r\377\377\377\377\377\377\377\377\377\377\377\377\377\377\377\377\377\377\377\377\377\377\377\377\377\377\377\377\377\377\377\377\377\377\377\377\377\362\000\000\000\000\000\000\000\000\000\000\317\377\377\240\000\000\000\000\000\000\000\000\000\005\377\377\377\377\377\377\377\377\377\377\377\377\377\377\377\377\377\377\377\377\377\377\377\377\377\377\377\377\377\377\377\377\377\377\377\377\377\260\000\000\000\000\000\000\000\000\000\000\036\377\376\000\000\000\000\000\000\000\000\000\000\000\337\377\377\377\377\377\377\377\377\377\377\377\377\377\377\377\377\377\377\377\377\377\377\377\377\377\377\377\377\377\377\377\377\377\377\377\377`\000\000\000\000\000\000\000\000\000\000\006\377\363\000\000\000\000\000\000\000\000\000\000\000\237\377\377\377\377\377\377\377\377\377\377\377\377\377\377\377\377\377\377\377\377\377\377\377\377\377\377\377\377\377\377\377\377\377\377\377\377\020\000\000\000\000\000\000\000\000\000\000\000\337\300\000\000\000\000\000\000\000\000\000\000\000?\377\377\377\377\377\377\377\377\377\377\377\377\377\377\377\377\377\377\377\377\377\377\377\377\377\377\377\377\377\377\377\377\377\377\377\376\000\000\000\000\000\000\000\000\000\000\000\000_ \000\000\000\000\000\000\000\000\000\000\000\037\377\377\377\377\377\377\377\377\377\377\377\377\377\377\377\377\377\377\377\377\377\377\377\377\377\377\377\377\377\377\377\377\377\377\377\374\000\000\000\000\000\000\000\000\000\000\000\000\006\000\000\000\000\000\000\000\000\000\000\000\000\036\377\377\377\377\377\377\377\377\377\377\377\377\377\377\377\377\377\377\377\377\377\377\377\377\377\377\377\377\377\377\377\377\377\377\377\374\000\000\000\000\000\000\000\000\000\000\000\000\000\000\000\000\000\000\000\000\000\000\000\000\000\016\377\377\377\377\377\377\377\377\377\377\377\377\377\377\377\377\377\377\377\377\377\377\377\377\377\377\377\377\377\377\377\377\377\377\377\374\000\000\000\000\000\000\000\000\000\000\000\000\000\000z\000\000\001\273\273\273\273\273\273\273\317\377\377\377\377\377\377\377\377\377\377\377\377\377\377\377\377\377\377\377\377\377\377\377\377\377\377\377\377\377\377\377\377\377\377\377\375\000\000\000\000\000\000\000\000\000\000\000\000\000\001\377@\000\016\377\377\377\377\377\377\377\377\377\377\377\377\377\377\377\377\377\377\377\377\377\377\377\377\377\377\377\377\377\377\377\377\377\377\377\377\377\377\377\377\377\377\377\377\020\000\000\000\000\000\000\000\000\000\000\000\000\b\377\320\000O\305UUUUUU\177\377\377\377\377\377\377\377\377\377\377\377\377\377\377\377\377\377\377\377\377\377\377\377\377\377\377\377\377\377\377\377\377\377\377\377\3770\000\000\000\000\000\000\000\000\000\000\000\000\017\377\366\000\3170\000\000\000\000\000\000o\377\377\377\377\377\377\377\377\355\357\377\377\377\377\377\377\377\377\377\377\377\377\377\377\377\377\377\377\377\377\377\377\377\377\377\377p\000\000\000\000\000\000\004\260\000\000\000\000\217\266\377\025\374\000\000\000\000\000\000\000\257\377\377\377\377\377\377\377\261\000\001\237\377\377\377\377\377\377\377\377\377\377\377\377\377\377\377\377\377\377\377\377\377\377\377\377\377\300\000\000\000\000\000\000\016\363\000\000\000\000\357\020\277\254\340\000\000\000\000\000\000\000\357\377\377\377\377\377\377\371\003\275\305\006\377\377\377\377\377\377\377\377\377\377\377\377\377\377\377\377\377\377\377\377\377\377\377\377\377\362\000\000\000\000\000\000_\370\000\000\000\006\373\000/\377`\000\000\000\000\000\000\004\377\377\377\377\377\377\377\320o\377\377\220\237\377\377\377\377\377\377\377\377\377\377\377\377\377\377\377\377\377\377\377\377\377\377\377\377\367\000\000\000\000\000\000\337\377\000\000\000\r\362\000\007\375\000\000\000\000\000\000\000\n\377\377\377\377\377\377\377B\377\377\377\365?\377\377\377\377\377\377\377\377\377\377\377\377\377\377\377\377\377\377\377\377\377\377\377\377\377\000\000\000\000\000\004\376\377`\000\000o\260\000\000\345\000\000\000\000\000\000\000\037\377\377\377\377\377\377\377\006\377\377\377\372\035\377\377\377\377\377\377\377\377\377\377\377\377\377\377\377\377\377\377\377\377\377\377\377\377\377P\000\000\000\000\r\366\257\320\000\000\357 \000\000\000\000\000\000\000\000\000\000\217\377\377\377\377\377\377\377\b\377\377\377\374\035\377\377\377\377\377\377\377\377\377\377\377\377\377\377\377\377\377\377\377\377\377\377\377\377\377\320\000\000\000\000O\340?\360\000\002\374\000\000\000\000\000\000\000\000\000\000\001\357\377\377\377\377\377\377\377\t\377\377\377\374\035\377\377\377\377\377\377\377\377\377\377\377\377\377\377\377\377\377\377\377\377\377\377\377\377\377\370\000\000\000\000\337P\r\370\000\f\364\000\000\000\000\000\000\000\000\000\000\013\377\377\377\377\377\377\377\356\b\356\356\356\353\034\357\377\377\377\377\377\377\377\377\377\377\377\377\377\377\377\377\377\377\377\377\377\377\377\377\377 \000\000\004\376\000\007\376\000?\300\000\000\000\000\000\000\000\000\000\000_\377\377\377\377\377\377\366\021\000\021\021\021\021\001\024\357\377\377\377\377\377\377\377\377\377\377\377\377\377\377\377\377\377\377\377\377\377\377\377\377\320\000\000\r\365\000\000\377@\337`\000\000\000\000\000\000\000\000\000\000\357\377\377\377\377\377\377\340\000\000\000\000\000\000\000\000\277\377\377\377\377\377\377\377\377\377\377\377\377\377\377\377\377\377\377\377\377\377\377\377\377\376\356\356\357\320\000\000\237\244\375\000\000\000\000\000\000\000\000\000\000\n\377\377\377\377\377\377\377\340\000\000\000\000\000\000\000\000\277\377\377\377\377\377\377\377\377\377\377\377\377\377\377\377\377\377\377\377\377\377\377\377\377\377\374\314\314`\000\000/\374\364\000\000\000\000\000\000\000\000\000\000o\377\377\377\377\377\377\377\340\000\000\000\000\000\000\000\000\277\377\377\377\377\377\377\377\377\377\377\377\377\377\377\377\377\377\377\377\377\377\377\377\377\377\342\000\000\000\000\000\016\377\320\000\000\000\000\000\000\000\000\000\003\377\377\377\377\377\377\377\377\340\000\000\000\000\000\000\000\000\277\377\377\377\377\377\377\377\377\377\377\377\377\377\377\377\377\377\377\377\377\377\377\377\377\377\376\000\000\000\000\000\003\3770\000\000\000\000\000\000\000\000\000\037\377\377\377\377\377\377\377\377\340\000\000\000\\p\000\000\000\277\377\377\377\377\377\377\377\377\377\377\377\377\377\377\377\377\377\377\377\377\377\377\377\377\377\377\301\000\000\000\000\000\355\000\000\000\000\000\000\000\000\000\002\357\377\377\377\377\377\377\377\377\340\000\000\004\377\367\000\000\000\277\377\377\377\377\377\377\377\377\377\377\377\377\377\377\377\377\377\377\377\377\377\377\377\377\377\377\374\000\000\000\000\000c\000\000\000\000\000\000\000\000\000\036\377\377\377\377\377\377\377\377\377\340\000\000\007\377\371\000\000\000\277\377\377\377\377\377\377\377\377\377\377\377\377\377\377\377\377\377\377\377\377\377\377\377\377\377\377\377\321\000\000\000\000\000\000\000\000\000\000\000\000\000\003\357\377\377\377\377\377\377\377\377\377\340\000\000\002\377\364\000\000\000\277\377\377\377\377\377\377\377\377\377\377\377\377\377\377\377\377\377\377\377\377\377\377\377\377\377\377\377\3750\000\000\000\000\000\000\000\000\000\000\000\000^\377\377\377\377\377\377\377\377\377\377\340\000\000\000\217\260\000\000\000\277\377\377\377\377\377\377\377\377\377\377\377\377\377\377\377\377\377\377\377\377\377\377\377\377\377\377\377\377\364\000\000\000\000\000\000\000\000\000\000\000\006\377\377\377\377\377\377\377\377\377\377\377\340\000\000\000\337\342\000\000\000\277\377\377\377\377\377\377\377\377\377\377\377\377\377\377\377\377\377\377\377\377\377\377\377\377\377\377\377\377\377\200\000\000\000\000\000\000\000\000\000\001\257\377\377\377\377\377\377\377\377\377\377\377\340\000\000\003\356\346\000\000\000\277\377\377\377\377\377\377\377\377\377\377\377\377\377\377\377\377\377\377\377\377\377\377\377\377\377\377\377\377\377\375 \000\000\000\000\000\000\000\000N\377\377\377\377\377\377\377\377\377\377\377\377\340\000\000\000\021\021\000\000\000\277\377\377\377\377\377\377\377\377\377\377\377\377\377\377\377\377\377\377\377\377\377\377\377\377\377\377\377\377\377\377\367\000\000\000\000\000\000\000\031\377\377\377\377\377\377\377\377\377\377\377\377\377\340\000\000\000\000\000\000\000\000\277\377\377\377\377\377\377\377\377\377\377\377\377\377\377\377\377\377\377\377\377\377\377\377\377\377\377\377\377\377\377\377\341\000\000\000\000\000\003\357\377\377\377\377\377\377\377\377\377\377\377\377\377\340\000\000\000\000\000\000\000\000\277\377\377\377\377\377\377\377\377\377\377\377\377\377\377\377\377\377\377\377\377\377\377\377\377\377\377\377\377\377\377\377\377\242\000\000\000\003\317\377\377\377\377\377\377\377\377\377\377\377\377\377\377\340\000\000\000\000\000\000\000\000\277\377\377\377\377\377\377\377\377\377\377\377\377\377\377\377\377\377\377\377\377\377\377\377\377\377\377\377\377\377\377\377\377\377\202\000\001\237\377\377\377\377\377\377\377\377\377\377\377\377\377\377\377\341\000\000\000\000\000\000\000\000\317\377\377\377\377\377\377\377\377\377\377\377\377\377\377\377\377\377\377\377\377\377\377\377\377\377\377\377\377\377\377\377\377\377\377\264\316\377\377\377\377\377\377\377\377\377\377\377\377\377\377\377\377\375\231\231\231\231\231\231\231\233\377\377\377\377\377\377\377\377\377\377\377\377\377\377\377\377\377\377\377\377\377\377\377\377\377\377\377\377\377\377\377\377\377\377\377\377\377\377\377\377\377\377\377\377\377\377\377\377\377\377\377\377\377\377\377\377\377\377\377\377\377\377\377\377\377\377\377\377\377\377\377\377\377\377\377\377\377\377\377\377\377\377\377\377\377\377\377\377\377\377\377\377\377\377\377\377\377\377\377\377\377\377\377\377\377\377\377\377\377\377\377\377\377\377\377\377\377\377\377\377\377\377\377\377\377\377\377\377\377\377\377\377\377\377\377\377\377\377\377\377\377\377\377\377\377\377\377\377\377\377\377\377\377\377\377\377\377\377\377\377\377\377\377\377\377\377\377\377\377\377\377\377\377\377\377\377\377\377\377\377\377\377\377\377\377\377\377\377\377\377\377\377\377\377\377\377\377\377\377\377\377\377\377\377\377\377\377\377\377\377\377\377\377\377\377\377\377\377\377\377\377\377\377\377\377\377\377\377\377\377\377\377\377\377\377\377\377\377\377\377\377\377\377\377\377\377\377\377\377\377\377\377\377\377\377\377\377\377\377\377\377\377\377\377\377\377\377\377\377\377\377\377\377\377\377\377\377\377\377\377\377\377\377\377\377\377\377\377\377\377\377\377\377\377\377\377\377\377\377\377\377\377\377\377\377\377\377\377\377\377\377\377\377\377\377\377\377\377\377\377\377\377\377\377\377\377\377\377\377\377\377\377\377\377\377\377\377\377\377\377\377\377\377\377\377\377\377\377\377\377\377\377\377\377\377\377\377\377\377\377\377\377\377\377\377\377\377\377\377\377\377\377\377\377\377\377\377\377\377\377\377\377\377\377\377\377\377\377\377\377\377\377\377\377\377\377\377\377\377\377\377\377\377\377\377\377\377\377\377\377\377\377\377\377\377\377\377\377\377\377\377\377\377\377\377\377\377\377\377\377\377\377\377\377\377\377\377\377\377\377\377\377\377\377\377\377\377\377\377\377\377\377\377\377\377\377\377\377\377\377\377\377\377\377\377\377\377\377\377\377\377\377\377\377\377\377\377\377\377\377\377\377\377\377\377\377\377\377\377\377\377\377\377\377\377\377\377\377\377\377\377\377\377\377\377\377\377\377\377\377\377\377\377\377\377\377\377\377\377\377\377\377\377\377\377\377\377\377\377\377\377\377\377\377\377\377\377\377\377\377\377\377\377\377\377\377\377\377\377\377\377\377\377\377\377\377\377\377\377\377\377\377\377\377\377\377\377\377\377\377\377\377\377\377\377\377\377\377\377\377\377\377\377\377\377\377\377\377\377\377\377\377\377\377\377\377\377\377\377\377\377\377\377\377\377\377\377\377\377\377\377\377\377\377\377\377\377\377\377\377\377\377\377\377\377\377\377\377\377\377\377\377\377\377\377\377\377\377\377\377\377\377\377\377\377\377\377\377\377\377\377\377\377\377\377\377\377\377\377\377\377\377\377\377\377\377\377\377\377\377\377\377\377\377\377\377\377\377\377\377\377\377\377\377\377\377\377\377\377\377\377\377\377\377\377\377\377\377\377\377\377\377\377\377\377\377\377\377\377\377\377\377\377\377\377\377\377\377\377\377\377\377\377\377\377\377\377\377\377\377\377\377\377\377\377\377\377\377\377\377\377\377\377\377\377\377\377\377\377\377\377\377\377\377\377\377\377\377\377\377\377\377\377\377\377\377\377\377\377\377\377\377\377\377\377\377\377\377\377\377\377\377\377\377\377\377\377\377\377\377\377\377\377\377\377\377\377\377\377\377\377\377\377\377\377\377\377\377\377\377\377\377\377\377\377\377\377\377\377\377\377\377\377\377\377\377\377\377\377\377\377\377\377\377\377\377\377\377\377\377\377\377\377\377\377\377\377\377\377\377\377\377\377\377\377\377\377\377\377\377\377\377\377\377\377\377\377\377\377\377\377\377\377\377\377\377\377\377\377\377\377\377\377\377\377\377\377\377\377\377\377\377\377\377\377\377\377\377\377\377\377\377\377\377\377\377\377\377\377\377\377\377\377\377\377\377\377\377\377\377\377\377\377\377\377\377\377\377\377\377\377\377\377\377\377\377\377\377\377\377\377\377\377\377\377\377\377\377\377\377\377\377\377\377\377\377\377\377\377\377\377\377\377\377\377\377\377\377\377\377\377\377\377\374\317\377\377\377\020/\377\377\376\314\377\377\377\377\377\377\377\377\377\377\377\377\377\377\377\377\377\377\377\377\377\377\377\377\377\377\377\377\377\377\377\377\377\377\377\377\377\377\377\377\377\377\377\377\377\377\377\377\377\377\377\374\317\377\377\377\020/\377\377\376\315\377\377\377\377\377\377\377\377\377\377\377\377\377\377\377\377\377\377\377\377\377\377\377\377\377\377\377\377\377\377\377\377\377\377\377\377\377\377\377\377\377\377\377\377\377\377\377\377\377\377\377\376\377\377\377\377\273\277\377\377\377\377\377\377\377\377\377\377\377\377\377\377\377\377\377\377\377\377\377\377\377\377\377\377\377\377\377\377\377\377\377\377\377\377\377\377\377\377\377\377\377\377\377\377\377\377\377\377\377\377\377\377\377\377\377\377\377\377\377\377\377\377\377\377\377\377\377\377\377\377\377\377\377\377\377\377\377\377\377\377\377\377\377\377\377\377\377\377\377\377\377\377\377\377\377\377\377\377\377\377\377\377\377\377\377\377\377\377\377\377\377\377\377\377\377\377\377\377\377\377\377\377\377\377\377\377\377\377\377\377\377\377\377\377\377\377\377\377\377\377\377\377\377\377\377\377\377\377\377\377\377\377\377\377\377\377\377\377\377\377\377\377\377\377\377\377\377\377\377\377\377\377\377\377\377\377\377\377\377\377\377\377\377\377\377\377\377\377\377\377\377\377\377\377\377\377\377\377\377\377\377\377\377\377\377\377\377\377\377\377\377\377\377"
	.size	gImage_background, 7942

	.file	6 "C:\\Users\\shw26\\OneDrive\\Desktop\\2021\\2021-1\\\354\272\241\354\212\244\355\206\244\353\224\224\354\236\220\354\235\2702\\Nuvoton\\M2351_BSP_v3.00.004\\M2351Series_BSP_CMSIS_V3.00.004\\MyProject\\PulseMonitoring\\NonSecure" "./SSD1327/../SSD1327_Fonts/fonts.h"
	.section	".note.GNU-stack","",%progbits
	.eabi_attribute	30, 6	@ Tag_ABI_optimization_goals
	.ARM_attribute	16, 1	@ Tag_AV_eba