	.text
	.syntax unified
	.eabi_attribute	67, "2.09"	@ Tag_conformance
	.cpu	cortex-m23
	.eabi_attribute	6, 16	@ Tag_CPU_arch
	.eabi_attribute	7, 77	@ Tag_CPU_arch_profile
	.eabi_attribute	8, 0	@ Tag_ARM_ISA_use
	.eabi_attribute	9, 3	@ Tag_THUMB_ISA_use
	.eabi_attribute	34, 0	@ Tag_CPU_unaligned_access
	.eabi_attribute	17, 1	@ Tag_ABI_PCS_GOT_use
	.eabi_attribute	20, 2	@ Tag_ABI_FP_denormal
	.eabi_attribute	21, 0	@ Tag_ABI_FP_exceptions
	.eabi_attribute	23, 1	@ Tag_ABI_FP_number_model
	.eabi_attribute	24, 1	@ Tag_ABI_align_needed
	.eabi_attribute	25, 1	@ Tag_ABI_align_preserved
	.eabi_attribute	38, 1	@ Tag_ABI_FP_16bit_format
	.eabi_attribute	18, 4	@ Tag_ABI_PCS_wchar_t
	.eabi_attribute	26, 2	@ Tag_ABI_enum_size
	.eabi_attribute	14, 0	@ Tag_ABI_PCS_R9_use
	.file	"retarget.c"
	.file	1 "C:\\Users\\shw26\\OneDrive\\Desktop\\2021\\2021-1\\\354\272\241\354\212\244\355\206\244\353\224\224\354\236\220\354\235\2702\\Nuvoton\\M2351_BSP_v3.00.004\\M2351Series_BSP_CMSIS_V3.00.004\\MyProject\\PulseMonitoring\\NonSecure" "../../../Library/StdDriver/src/retarget.c"
	.file	2 "C:\\" "Keil_v5\\ARM\\ARMCLANG\\Bin\\..\\include\\stdint.h"
	.file	3 "C:\\" "Keil_v5\\ARM\\ARMCLANG\\Bin\\..\\include\\stdio.h"
	.file	4 "C:\\Users\\shw26\\OneDrive\\Desktop\\2021\\2021-1\\\354\272\241\354\212\244\355\206\244\353\224\224\354\236\220\354\235\2702\\Nuvoton\\M2351_BSP_v3.00.004\\M2351Series_BSP_CMSIS_V3.00.004\\MyProject\\PulseMonitoring\\NonSecure" "../../../Library/Device/Nuvoton/M2351/Include\\M2351.h"
	.file	5 "C:\\Users\\shw26\\OneDrive\\Desktop\\2021\\2021-1\\\354\272\241\354\212\244\355\206\244\353\224\224\354\236\220\354\235\2702\\Nuvoton\\M2351_BSP_v3.00.004\\M2351Series_BSP_CMSIS_V3.00.004\\MyProject\\PulseMonitoring\\NonSecure" "../../../Library/Device/Nuvoton/M2351/Include/scu_reg.h"
	.file	6 "C:\\Users\\shw26\\OneDrive\\Desktop\\2021\\2021-1\\\354\272\241\354\212\244\355\206\244\353\224\224\354\236\220\354\235\2702\\Nuvoton\\M2351_BSP_v3.00.004\\M2351Series_BSP_CMSIS_V3.00.004\\MyProject\\PulseMonitoring\\NonSecure" "../../../Library/Device/Nuvoton/M2351/Include/uart_reg.h"
	.section	.text.ProcessHardFault,"ax",%progbits
	.hidden	ProcessHardFault                @ -- Begin function ProcessHardFault
	.weak	ProcessHardFault
	.p2align	2
	.type	ProcessHardFault,%function
	.code	16                              @ @ProcessHardFault
	.thumb_func
ProcessHardFault:
.Lfunc_begin0:
	.loc	1 268 0                         @ ../../../Library/StdDriver/src/retarget.c:268:0
	.fnstart
	.cfi_sections .debug_frame
	.cfi_startproc
@ %bb.0:
	.save	{r4, lr}
	push	{r4, lr}
	.cfi_def_cfa_offset 8
	.cfi_offset lr, -4
	.cfi_offset r4, -8
	.pad	#296
	sub	sp, #296
	.cfi_def_cfa_offset 304
	str	r0, [sp, #292]
	str	r1, [sp, #288]
	str	r2, [sp, #284]
.Ltmp0:
	.loc	1 280 15 prologue_end           @ ../../../Library/StdDriver/src/retarget.c:280:15
	ldr	r0, [sp, #292]
	movs	r1, #64
	.loc	1 280 18 is_stmt 0              @ ../../../Library/StdDriver/src/retarget.c:280:18
	ands	r0, r1
	.loc	1 280 14                        @ ../../../Library/StdDriver/src/retarget.c:280:14
	lsrs	r0, r0, #6
	.loc	1 280 12                        @ ../../../Library/StdDriver/src/retarget.c:280:12
	str	r0, [sp, #256]
.Ltmp1:
	.loc	1 281 8 is_stmt 1               @ ../../../Library/StdDriver/src/retarget.c:281:8
	ldr	r0, [sp, #256]
.Ltmp2:
	.loc	1 281 8 is_stmt 0               @ ../../../Library/StdDriver/src/retarget.c:281:8
	cmp	r0, #0
	beq	.LBB0_5
	b	.LBB0_1
.LBB0_1:
	.loc	1 0 8                           @ ../../../Library/StdDriver/src/retarget.c:0:8
	add	r0, sp, #292
.Ltmp3:
	.loc	1 284 12 is_stmt 1              @ ../../../Library/StdDriver/src/retarget.c:284:12
	ldrb	r0, [r0]
	lsls	r0, r0, #29
	cmp	r0, #0
	bpl	.LBB0_3
	b	.LBB0_2
.LBB0_2:
.Ltmp4:
	.loc	1 286 30                        @ ../../../Library/StdDriver/src/retarget.c:286:30
	ldr	r0, [sp, #284]
	.loc	1 286 16 is_stmt 0              @ ../../../Library/StdDriver/src/retarget.c:286:16
	str	r0, [sp, #280]
	.loc	1 287 9 is_stmt 1               @ ../../../Library/StdDriver/src/retarget.c:287:9
	b	.LBB0_4
.Ltmp5:
.LBB0_3:
	.loc	1 290 30                        @ ../../../Library/StdDriver/src/retarget.c:290:30
	ldr	r0, [sp, #288]
	.loc	1 290 16 is_stmt 0              @ ../../../Library/StdDriver/src/retarget.c:290:16
	str	r0, [sp, #280]
	b	.LBB0_4
.Ltmp6:
.LBB0_4:
	.loc	1 293 5 is_stmt 1               @ ../../../Library/StdDriver/src/retarget.c:293:5
	b	.LBB0_5
.Ltmp7:
.LBB0_5:
	.loc	1 317 5                         @ ../../../Library/StdDriver/src/retarget.c:317:5
	ldr	r0, .LCPI0_19
	bl	printf
	.loc	1 318 5                         @ ../../../Library/StdDriver/src/retarget.c:318:5
	ldr	r1, __arm_cp.0_20
	str	r0, [sp, #216]                  @ 4-byte Spill
	mov	r0, r1
	bl	printf
	.loc	1 320 12                        @ ../../../Library/StdDriver/src/retarget.c:320:12
	ldr	r1, [sp, #280]
	ldr	r1, [r1, #24]
	.loc	1 320 10 is_stmt 0              @ ../../../Library/StdDriver/src/retarget.c:320:10
	str	r1, [sp, #268]
	.loc	1 321 12 is_stmt 1              @ ../../../Library/StdDriver/src/retarget.c:321:12
	ldr	r1, [sp, #268]
	ldrh	r1, [r1]
	.loc	1 321 10 is_stmt 0              @ ../../../Library/StdDriver/src/retarget.c:321:10
	str	r1, [sp, #272]
	movs	r1, #0
	.loc	1 322 11 is_stmt 1              @ ../../../Library/StdDriver/src/retarget.c:322:11
	str	r1, [sp, #232]
.Ltmp8:
	.loc	1 323 10                        @ ../../../Library/StdDriver/src/retarget.c:323:10
	ldr	r1, [sp, #256]
	.loc	1 323 18 is_stmt 0              @ ../../../Library/StdDriver/src/retarget.c:323:18
	cmp	r1, #0
	bne	.LBB0_8
	b	.LBB0_6
.Ltmp9:
.LBB0_6:
	.loc	1 0 18                          @ ../../../Library/StdDriver/src/retarget.c:0:18
	add	r0, sp, #268
	.loc	1 323 8                         @ ../../../Library/StdDriver/src/retarget.c:323:8
	ldrb	r0, [r0, #3]
	lsls	r0, r0, #27
	cmp	r0, #0
	bmi	.LBB0_8
	b	.LBB0_7
.LBB0_7:
.Ltmp10:
	.loc	1 325 71 is_stmt 1              @ ../../../Library/StdDriver/src/retarget.c:325:71
	ldr	r1, [sp, #268]
	.loc	1 325 9 is_stmt 0               @ ../../../Library/StdDriver/src/retarget.c:325:9
	ldr	r0, __arm_cp.0_21
	bl	printf
	.loc	1 326 9 is_stmt 1               @ ../../../Library/StdDriver/src/retarget.c:326:9
	ldr	r1, __arm_cp.0_22
	str	r0, [sp, #212]                  @ 4-byte Spill
	mov	r0, r1
	bl	printf
	movs	r1, #1
	.loc	1 328 15                        @ ../../../Library/StdDriver/src/retarget.c:328:15
	str	r1, [sp, #232]
	.loc	1 329 5                         @ ../../../Library/StdDriver/src/retarget.c:329:5
	b	.LBB0_47
.Ltmp11:
.LBB0_8:
	.loc	1 329 14 is_stmt 0              @ ../../../Library/StdDriver/src/retarget.c:329:14
	ldr	r0, [sp, #272]
	ldr	r1, __arm_cp.0_23
.Ltmp12:
	.loc	1 329 14                        @ ../../../Library/StdDriver/src/retarget.c:329:14
	cmp	r0, r1
	bne	.LBB0_10
	b	.LBB0_9
.LBB0_9:
.Ltmp13:
	.loc	1 331 9 is_stmt 1               @ ../../../Library/StdDriver/src/retarget.c:331:9
	ldr	r0, __arm_cp.0_24
	bl	printf
	movs	r1, #2
	.loc	1 332 15                        @ ../../../Library/StdDriver/src/retarget.c:332:15
	str	r1, [sp, #232]
	.loc	1 333 5                         @ ../../../Library/StdDriver/src/retarget.c:333:5
	b	.LBB0_46
.Ltmp14:
.LBB0_10:
	.loc	1 334 14                        @ ../../../Library/StdDriver/src/retarget.c:334:14
	ldr	r0, [sp, #272]
	.loc	1 334 19 is_stmt 0              @ ../../../Library/StdDriver/src/retarget.c:334:19
	lsrs	r0, r0, #12
.Ltmp15:
	.loc	1 334 13                        @ ../../../Library/StdDriver/src/retarget.c:334:13
	cmp	r0, #5
	bne	.LBB0_19
	b	.LBB0_11
.LBB0_11:
	.loc	1 0 13                          @ ../../../Library/StdDriver/src/retarget.c:0:13
	movs	r0, #3
.Ltmp16:
	.loc	1 336 15 is_stmt 1              @ ../../../Library/StdDriver/src/retarget.c:336:15
	str	r0, [sp, #232]
	.loc	1 338 15                        @ ../../../Library/StdDriver/src/retarget.c:338:15
	ldr	r0, [sp, #272]
	.loc	1 338 26 is_stmt 0              @ ../../../Library/StdDriver/src/retarget.c:338:26
	lsls	r0, r0, #23
	lsrs	r0, r0, #29
	.loc	1 338 12                        @ ../../../Library/StdDriver/src/retarget.c:338:12
	str	r0, [sp, #252]
	.loc	1 339 15 is_stmt 1              @ ../../../Library/StdDriver/src/retarget.c:339:15
	ldr	r0, [sp, #272]
	.loc	1 339 26 is_stmt 0              @ ../../../Library/StdDriver/src/retarget.c:339:26
	lsls	r0, r0, #26
	lsrs	r0, r0, #29
	.loc	1 339 12                        @ ../../../Library/StdDriver/src/retarget.c:339:12
	str	r0, [sp, #248]
	.loc	1 340 14 is_stmt 1              @ ../../../Library/StdDriver/src/retarget.c:340:14
	ldr	r0, [sp, #272]
	movs	r1, #7
	.loc	1 340 19 is_stmt 0              @ ../../../Library/StdDriver/src/retarget.c:340:19
	ands	r0, r1
	.loc	1 340 12                        @ ../../../Library/StdDriver/src/retarget.c:340:12
	str	r0, [sp, #244]
	.loc	1 342 17 is_stmt 1              @ ../../../Library/StdDriver/src/retarget.c:342:17
	ldr	r0, [sp, #280]
	.loc	1 342 20 is_stmt 0              @ ../../../Library/StdDriver/src/retarget.c:342:20
	ldr	r1, [sp, #248]
	.loc	1 342 17                        @ ../../../Library/StdDriver/src/retarget.c:342:17
	lsls	r1, r1, #2
	ldr	r1, [r0, r1]
	.loc	1 342 29                        @ ../../../Library/StdDriver/src/retarget.c:342:29
	ldr	r2, [sp, #252]
	.loc	1 342 26                        @ ../../../Library/StdDriver/src/retarget.c:342:26
	lsls	r2, r2, #2
	ldr	r0, [r0, r2]
	.loc	1 342 24                        @ ../../../Library/StdDriver/src/retarget.c:342:24
	adds	r0, r1, r0
	.loc	1 342 15                        @ ../../../Library/StdDriver/src/retarget.c:342:15
	str	r0, [sp, #264]
	.loc	1 343 17 is_stmt 1              @ ../../../Library/StdDriver/src/retarget.c:343:17
	ldr	r0, [sp, #280]
	.loc	1 343 20 is_stmt 0              @ ../../../Library/StdDriver/src/retarget.c:343:20
	ldr	r1, [sp, #244]
	.loc	1 343 17                        @ ../../../Library/StdDriver/src/retarget.c:343:17
	lsls	r1, r1, #2
	ldr	r0, [r0, r1]
	.loc	1 343 15                        @ ../../../Library/StdDriver/src/retarget.c:343:15
	str	r0, [sp, #260]
.Ltmp17:
	.loc	1 344 12 is_stmt 1              @ ../../../Library/StdDriver/src/retarget.c:344:12
	ldr	r0, [sp, #248]
	.loc	1 344 18 is_stmt 0              @ ../../../Library/StdDriver/src/retarget.c:344:18
	ldr	r1, [sp, #244]
.Ltmp18:
	.loc	1 344 12                        @ ../../../Library/StdDriver/src/retarget.c:344:12
	cmp	r0, r1
	bne	.LBB0_15
	b	.LBB0_12
.LBB0_12:
.Ltmp19:
	.loc	1 346 56 is_stmt 1              @ ../../../Library/StdDriver/src/retarget.c:346:56
	ldr	r1, [sp, #268]
	.loc	1 346 62 is_stmt 0              @ ../../../Library/StdDriver/src/retarget.c:346:62
	ldr	r0, [sp, #272]
	.loc	1 347 13 is_stmt 1              @ ../../../Library/StdDriver/src/retarget.c:347:13
	lsls	r2, r0, #20
	ldr	r3, .LCPI0_25
	ldr	r4, .LCPI0_26
	cmp	r2, #0
	str	r1, [sp, #208]                  @ 4-byte Spill
	str	r0, [sp, #204]                  @ 4-byte Spill
	str	r4, [sp, #200]                  @ 4-byte Spill
	str	r3, [sp, #196]                  @ 4-byte Spill
	bmi	.LBB0_14
@ %bb.13:
	ldr	r0, [sp, #200]                  @ 4-byte Reload
	str	r0, [sp, #196]                  @ 4-byte Spill
.LBB0_14:
	ldr	r0, [sp, #196]                  @ 4-byte Reload
	.loc	1 347 38 is_stmt 0              @ ../../../Library/StdDriver/src/retarget.c:347:38
	ldr	r1, [sp, #244]
	.loc	1 347 42                        @ ../../../Library/StdDriver/src/retarget.c:347:42
	ldr	r2, [sp, #264]
	.loc	1 346 13 is_stmt 1              @ ../../../Library/StdDriver/src/retarget.c:346:13
	str	r2, [sp, #4]
	str	r1, [sp]
	ldr	r1, .LCPI0_27
	str	r0, [sp, #192]                  @ 4-byte Spill
	mov	r0, r1
	ldr	r1, [sp, #208]                  @ 4-byte Reload
	ldr	r2, [sp, #204]                  @ 4-byte Reload
	ldr	r3, [sp, #192]                  @ 4-byte Reload
	bl	printf
	.loc	1 348 9                         @ ../../../Library/StdDriver/src/retarget.c:348:9
	b	.LBB0_18
.Ltmp20:
.LBB0_15:
	.loc	1 351 57                        @ ../../../Library/StdDriver/src/retarget.c:351:57
	ldr	r1, [sp, #268]
	.loc	1 351 63 is_stmt 0              @ ../../../Library/StdDriver/src/retarget.c:351:63
	ldr	r0, [sp, #272]
	.loc	1 352 13 is_stmt 1              @ ../../../Library/StdDriver/src/retarget.c:352:13
	lsls	r2, r0, #20
	ldr	r3, .LCPI0_25
	ldr	r4, .LCPI0_26
	cmp	r2, #0
	str	r1, [sp, #188]                  @ 4-byte Spill
	str	r0, [sp, #184]                  @ 4-byte Spill
	str	r4, [sp, #180]                  @ 4-byte Spill
	str	r3, [sp, #176]                  @ 4-byte Spill
	bmi	.LBB0_17
@ %bb.16:
	ldr	r0, [sp, #180]                  @ 4-byte Reload
	str	r0, [sp, #176]                  @ 4-byte Spill
.LBB0_17:
	ldr	r0, [sp, #176]                  @ 4-byte Reload
	.loc	1 352 38 is_stmt 0              @ ../../../Library/StdDriver/src/retarget.c:352:38
	ldr	r1, [sp, #260]
	.loc	1 352 45                        @ ../../../Library/StdDriver/src/retarget.c:352:45
	ldr	r2, [sp, #264]
	.loc	1 351 13 is_stmt 1              @ ../../../Library/StdDriver/src/retarget.c:351:13
	str	r2, [sp, #4]
	str	r1, [sp]
	ldr	r1, .LCPI0_28
	str	r0, [sp, #172]                  @ 4-byte Spill
	mov	r0, r1
	ldr	r1, [sp, #188]                  @ 4-byte Reload
	ldr	r2, [sp, #184]                  @ 4-byte Reload
	ldr	r3, [sp, #172]                  @ 4-byte Reload
	bl	printf
	b	.LBB0_18
.Ltmp21:
.LBB0_18:
	.loc	1 355 5                         @ ../../../Library/StdDriver/src/retarget.c:355:5
	b	.LBB0_45
.Ltmp22:
.LBB0_19:
	.loc	1 356 14                        @ ../../../Library/StdDriver/src/retarget.c:356:14
	ldr	r0, [sp, #272]
	.loc	1 356 19 is_stmt 0              @ ../../../Library/StdDriver/src/retarget.c:356:19
	lsrs	r0, r0, #13
.Ltmp23:
	.loc	1 356 13                        @ ../../../Library/StdDriver/src/retarget.c:356:13
	cmp	r0, #3
	bne	.LBB0_28
	b	.LBB0_20
.LBB0_20:
	.loc	1 0 13                          @ ../../../Library/StdDriver/src/retarget.c:0:13
	movs	r0, #3
.Ltmp24:
	.loc	1 358 15 is_stmt 1              @ ../../../Library/StdDriver/src/retarget.c:358:15
	str	r0, [sp, #232]
	.loc	1 360 17                        @ ../../../Library/StdDriver/src/retarget.c:360:17
	ldr	r0, [sp, #272]
	.loc	1 360 28 is_stmt 0              @ ../../../Library/StdDriver/src/retarget.c:360:28
	lsls	r0, r0, #21
	lsrs	r0, r0, #27
	.loc	1 360 14                        @ ../../../Library/StdDriver/src/retarget.c:360:14
	str	r0, [sp, #240]
	.loc	1 361 15 is_stmt 1              @ ../../../Library/StdDriver/src/retarget.c:361:15
	ldr	r0, [sp, #272]
	.loc	1 361 26 is_stmt 0              @ ../../../Library/StdDriver/src/retarget.c:361:26
	lsls	r0, r0, #26
	lsrs	r0, r0, #29
	.loc	1 361 12                        @ ../../../Library/StdDriver/src/retarget.c:361:12
	str	r0, [sp, #248]
	.loc	1 362 14 is_stmt 1              @ ../../../Library/StdDriver/src/retarget.c:362:14
	ldr	r0, [sp, #272]
	movs	r1, #7
	.loc	1 362 19 is_stmt 0              @ ../../../Library/StdDriver/src/retarget.c:362:19
	ands	r0, r1
	.loc	1 362 12                        @ ../../../Library/StdDriver/src/retarget.c:362:12
	str	r0, [sp, #244]
	.loc	1 364 17 is_stmt 1              @ ../../../Library/StdDriver/src/retarget.c:364:17
	ldr	r0, [sp, #280]
	.loc	1 364 20 is_stmt 0              @ ../../../Library/StdDriver/src/retarget.c:364:20
	ldr	r1, [sp, #248]
	.loc	1 364 17                        @ ../../../Library/StdDriver/src/retarget.c:364:17
	lsls	r1, r1, #2
	ldr	r0, [r0, r1]
	.loc	1 364 26                        @ ../../../Library/StdDriver/src/retarget.c:364:26
	ldr	r1, [sp, #240]
	.loc	1 364 24                        @ ../../../Library/StdDriver/src/retarget.c:364:24
	adds	r0, r0, r1
	.loc	1 364 15                        @ ../../../Library/StdDriver/src/retarget.c:364:15
	str	r0, [sp, #264]
	.loc	1 365 17 is_stmt 1              @ ../../../Library/StdDriver/src/retarget.c:365:17
	ldr	r0, [sp, #280]
	.loc	1 365 20 is_stmt 0              @ ../../../Library/StdDriver/src/retarget.c:365:20
	ldr	r1, [sp, #244]
	.loc	1 365 17                        @ ../../../Library/StdDriver/src/retarget.c:365:17
	lsls	r1, r1, #2
	ldr	r0, [r0, r1]
	.loc	1 365 15                        @ ../../../Library/StdDriver/src/retarget.c:365:15
	str	r0, [sp, #260]
.Ltmp25:
	.loc	1 366 12 is_stmt 1              @ ../../../Library/StdDriver/src/retarget.c:366:12
	ldr	r0, [sp, #244]
	.loc	1 366 18 is_stmt 0              @ ../../../Library/StdDriver/src/retarget.c:366:18
	ldr	r1, [sp, #248]
.Ltmp26:
	.loc	1 366 12                        @ ../../../Library/StdDriver/src/retarget.c:366:12
	cmp	r0, r1
	bne	.LBB0_24
	b	.LBB0_21
.LBB0_21:
.Ltmp27:
	.loc	1 368 56 is_stmt 1              @ ../../../Library/StdDriver/src/retarget.c:368:56
	ldr	r1, [sp, #268]
	.loc	1 368 62 is_stmt 0              @ ../../../Library/StdDriver/src/retarget.c:368:62
	ldr	r0, [sp, #272]
	.loc	1 369 13 is_stmt 1              @ ../../../Library/StdDriver/src/retarget.c:369:13
	lsls	r2, r0, #20
	ldr	r3, .LCPI0_25
	ldr	r4, .LCPI0_26
	cmp	r2, #0
	str	r1, [sp, #168]                  @ 4-byte Spill
	str	r0, [sp, #164]                  @ 4-byte Spill
	str	r4, [sp, #160]                  @ 4-byte Spill
	str	r3, [sp, #156]                  @ 4-byte Spill
	bmi	.LBB0_23
@ %bb.22:
	ldr	r0, [sp, #160]                  @ 4-byte Reload
	str	r0, [sp, #156]                  @ 4-byte Spill
.LBB0_23:
	ldr	r0, [sp, #156]                  @ 4-byte Reload
	.loc	1 369 38 is_stmt 0              @ ../../../Library/StdDriver/src/retarget.c:369:38
	ldr	r1, [sp, #244]
	.loc	1 369 42                        @ ../../../Library/StdDriver/src/retarget.c:369:42
	ldr	r2, [sp, #264]
	.loc	1 368 13 is_stmt 1              @ ../../../Library/StdDriver/src/retarget.c:368:13
	str	r2, [sp, #4]
	str	r1, [sp]
	ldr	r1, __arm_cp.0_9
	str	r0, [sp, #152]                  @ 4-byte Spill
	mov	r0, r1
	ldr	r1, [sp, #168]                  @ 4-byte Reload
	ldr	r2, [sp, #164]                  @ 4-byte Reload
	ldr	r3, [sp, #152]                  @ 4-byte Reload
	bl	printf
	.loc	1 370 9                         @ ../../../Library/StdDriver/src/retarget.c:370:9
	b	.LBB0_27
.Ltmp28:
.LBB0_24:
	.loc	1 373 57                        @ ../../../Library/StdDriver/src/retarget.c:373:57
	ldr	r1, [sp, #268]
	.loc	1 373 63 is_stmt 0              @ ../../../Library/StdDriver/src/retarget.c:373:63
	ldr	r0, [sp, #272]
	.loc	1 374 13 is_stmt 1              @ ../../../Library/StdDriver/src/retarget.c:374:13
	lsls	r2, r0, #20
	ldr	r3, __arm_cp.0_6
	ldr	r4, __arm_cp.0_7
	cmp	r2, #0
	str	r1, [sp, #148]                  @ 4-byte Spill
	str	r0, [sp, #144]                  @ 4-byte Spill
	str	r4, [sp, #140]                  @ 4-byte Spill
	str	r3, [sp, #136]                  @ 4-byte Spill
	bmi	.LBB0_26
@ %bb.25:
	ldr	r0, [sp, #140]                  @ 4-byte Reload
	str	r0, [sp, #136]                  @ 4-byte Spill
.LBB0_26:
	ldr	r0, [sp, #136]                  @ 4-byte Reload
	.loc	1 374 38 is_stmt 0              @ ../../../Library/StdDriver/src/retarget.c:374:38
	ldr	r1, [sp, #260]
	.loc	1 374 45                        @ ../../../Library/StdDriver/src/retarget.c:374:45
	ldr	r2, [sp, #264]
	.loc	1 373 13 is_stmt 1              @ ../../../Library/StdDriver/src/retarget.c:373:13
	str	r2, [sp, #4]
	str	r1, [sp]
	ldr	r1, __arm_cp.0_8
	str	r0, [sp, #132]                  @ 4-byte Spill
	mov	r0, r1
	ldr	r1, [sp, #148]                  @ 4-byte Reload
	ldr	r2, [sp, #144]                  @ 4-byte Reload
	ldr	r3, [sp, #132]                  @ 4-byte Reload
	bl	printf
	b	.LBB0_27
.Ltmp29:
.LBB0_27:
	.loc	1 376 5                         @ ../../../Library/StdDriver/src/retarget.c:376:5
	b	.LBB0_44
.Ltmp30:
.LBB0_28:
	.loc	1 377 14                        @ ../../../Library/StdDriver/src/retarget.c:377:14
	ldr	r0, [sp, #272]
	.loc	1 377 19 is_stmt 0              @ ../../../Library/StdDriver/src/retarget.c:377:19
	lsrs	r0, r0, #12
.Ltmp31:
	.loc	1 377 13                        @ ../../../Library/StdDriver/src/retarget.c:377:13
	cmp	r0, #8
	bne	.LBB0_37
	b	.LBB0_29
.LBB0_29:
	.loc	1 0 13                          @ ../../../Library/StdDriver/src/retarget.c:0:13
	movs	r0, #3
.Ltmp32:
	.loc	1 379 15 is_stmt 1              @ ../../../Library/StdDriver/src/retarget.c:379:15
	str	r0, [sp, #232]
	.loc	1 381 17                        @ ../../../Library/StdDriver/src/retarget.c:381:17
	ldr	r0, [sp, #272]
	.loc	1 381 28 is_stmt 0              @ ../../../Library/StdDriver/src/retarget.c:381:28
	lsls	r0, r0, #21
	lsrs	r0, r0, #27
	.loc	1 381 14                        @ ../../../Library/StdDriver/src/retarget.c:381:14
	str	r0, [sp, #240]
	.loc	1 382 15 is_stmt 1              @ ../../../Library/StdDriver/src/retarget.c:382:15
	ldr	r0, [sp, #272]
	.loc	1 382 26 is_stmt 0              @ ../../../Library/StdDriver/src/retarget.c:382:26
	lsls	r0, r0, #26
	lsrs	r0, r0, #29
	.loc	1 382 12                        @ ../../../Library/StdDriver/src/retarget.c:382:12
	str	r0, [sp, #248]
	.loc	1 383 14 is_stmt 1              @ ../../../Library/StdDriver/src/retarget.c:383:14
	ldr	r0, [sp, #272]
	movs	r1, #7
	.loc	1 383 19 is_stmt 0              @ ../../../Library/StdDriver/src/retarget.c:383:19
	ands	r0, r1
	.loc	1 383 12                        @ ../../../Library/StdDriver/src/retarget.c:383:12
	str	r0, [sp, #244]
	.loc	1 385 17 is_stmt 1              @ ../../../Library/StdDriver/src/retarget.c:385:17
	ldr	r0, [sp, #280]
	.loc	1 385 20 is_stmt 0              @ ../../../Library/StdDriver/src/retarget.c:385:20
	ldr	r1, [sp, #248]
	.loc	1 385 17                        @ ../../../Library/StdDriver/src/retarget.c:385:17
	lsls	r1, r1, #2
	ldr	r0, [r0, r1]
	.loc	1 385 26                        @ ../../../Library/StdDriver/src/retarget.c:385:26
	ldr	r1, [sp, #240]
	.loc	1 385 24                        @ ../../../Library/StdDriver/src/retarget.c:385:24
	adds	r0, r0, r1
	.loc	1 385 15                        @ ../../../Library/StdDriver/src/retarget.c:385:15
	str	r0, [sp, #264]
	.loc	1 386 17 is_stmt 1              @ ../../../Library/StdDriver/src/retarget.c:386:17
	ldr	r0, [sp, #280]
	.loc	1 386 20 is_stmt 0              @ ../../../Library/StdDriver/src/retarget.c:386:20
	ldr	r1, [sp, #244]
	.loc	1 386 17                        @ ../../../Library/StdDriver/src/retarget.c:386:17
	lsls	r1, r1, #2
	ldr	r0, [r0, r1]
	.loc	1 386 15                        @ ../../../Library/StdDriver/src/retarget.c:386:15
	str	r0, [sp, #260]
.Ltmp33:
	.loc	1 387 12 is_stmt 1              @ ../../../Library/StdDriver/src/retarget.c:387:12
	ldr	r0, [sp, #244]
	.loc	1 387 18 is_stmt 0              @ ../../../Library/StdDriver/src/retarget.c:387:18
	ldr	r1, [sp, #248]
.Ltmp34:
	.loc	1 387 12                        @ ../../../Library/StdDriver/src/retarget.c:387:12
	cmp	r0, r1
	bne	.LBB0_33
	b	.LBB0_30
.LBB0_30:
.Ltmp35:
	.loc	1 389 56 is_stmt 1              @ ../../../Library/StdDriver/src/retarget.c:389:56
	ldr	r1, [sp, #268]
	.loc	1 389 62 is_stmt 0              @ ../../../Library/StdDriver/src/retarget.c:389:62
	ldr	r0, [sp, #272]
	.loc	1 390 13 is_stmt 1              @ ../../../Library/StdDriver/src/retarget.c:390:13
	lsls	r2, r0, #20
	ldr	r3, __arm_cp.0_6
	ldr	r4, __arm_cp.0_7
	cmp	r2, #0
	str	r1, [sp, #128]                  @ 4-byte Spill
	str	r0, [sp, #124]                  @ 4-byte Spill
	str	r4, [sp, #120]                  @ 4-byte Spill
	str	r3, [sp, #116]                  @ 4-byte Spill
	bmi	.LBB0_32
@ %bb.31:
	ldr	r0, [sp, #120]                  @ 4-byte Reload
	str	r0, [sp, #116]                  @ 4-byte Spill
.LBB0_32:
	ldr	r0, [sp, #116]                  @ 4-byte Reload
	.loc	1 390 38 is_stmt 0              @ ../../../Library/StdDriver/src/retarget.c:390:38
	ldr	r1, [sp, #244]
	.loc	1 390 42                        @ ../../../Library/StdDriver/src/retarget.c:390:42
	ldr	r2, [sp, #264]
	.loc	1 389 13 is_stmt 1              @ ../../../Library/StdDriver/src/retarget.c:389:13
	str	r2, [sp, #4]
	str	r1, [sp]
	ldr	r1, __arm_cp.0_9
	str	r0, [sp, #112]                  @ 4-byte Spill
	mov	r0, r1
	ldr	r1, [sp, #128]                  @ 4-byte Reload
	ldr	r2, [sp, #124]                  @ 4-byte Reload
	ldr	r3, [sp, #112]                  @ 4-byte Reload
	bl	printf
	.loc	1 391 9                         @ ../../../Library/StdDriver/src/retarget.c:391:9
	b	.LBB0_36
.Ltmp36:
.LBB0_33:
	.loc	1 394 57                        @ ../../../Library/StdDriver/src/retarget.c:394:57
	ldr	r1, [sp, #268]
	.loc	1 394 63 is_stmt 0              @ ../../../Library/StdDriver/src/retarget.c:394:63
	ldr	r0, [sp, #272]
	.loc	1 395 13 is_stmt 1              @ ../../../Library/StdDriver/src/retarget.c:395:13
	lsls	r2, r0, #20
	ldr	r3, __arm_cp.0_6
	ldr	r4, __arm_cp.0_7
	cmp	r2, #0
	str	r1, [sp, #108]                  @ 4-byte Spill
	str	r0, [sp, #104]                  @ 4-byte Spill
	str	r4, [sp, #100]                  @ 4-byte Spill
	str	r3, [sp, #96]                   @ 4-byte Spill
	bmi	.LBB0_35
@ %bb.34:
	ldr	r0, [sp, #100]                  @ 4-byte Reload
	str	r0, [sp, #96]                   @ 4-byte Spill
.LBB0_35:
	ldr	r0, [sp, #96]                   @ 4-byte Reload
	.loc	1 395 38 is_stmt 0              @ ../../../Library/StdDriver/src/retarget.c:395:38
	ldr	r1, [sp, #260]
	.loc	1 395 45                        @ ../../../Library/StdDriver/src/retarget.c:395:45
	ldr	r2, [sp, #264]
	.loc	1 394 13 is_stmt 1              @ ../../../Library/StdDriver/src/retarget.c:394:13
	str	r2, [sp, #4]
	str	r1, [sp]
	ldr	r1, __arm_cp.0_8
	str	r0, [sp, #92]                   @ 4-byte Spill
	mov	r0, r1
	ldr	r1, [sp, #108]                  @ 4-byte Reload
	ldr	r2, [sp, #104]                  @ 4-byte Reload
	ldr	r3, [sp, #92]                   @ 4-byte Reload
	bl	printf
	b	.LBB0_36
.Ltmp37:
.LBB0_36:
	.loc	1 398 5                         @ ../../../Library/StdDriver/src/retarget.c:398:5
	b	.LBB0_43
.Ltmp38:
.LBB0_37:
	.loc	1 399 14                        @ ../../../Library/StdDriver/src/retarget.c:399:14
	ldr	r0, [sp, #272]
	.loc	1 399 19 is_stmt 0              @ ../../../Library/StdDriver/src/retarget.c:399:19
	lsrs	r0, r0, #12
.Ltmp39:
	.loc	1 399 13                        @ ../../../Library/StdDriver/src/retarget.c:399:13
	cmp	r0, #9
	bne	.LBB0_41
	b	.LBB0_38
.LBB0_38:
	.loc	1 0 13                          @ ../../../Library/StdDriver/src/retarget.c:0:13
	movs	r0, #3
.Ltmp40:
	.loc	1 401 15 is_stmt 1              @ ../../../Library/StdDriver/src/retarget.c:401:15
	str	r0, [sp, #232]
	add	r0, sp, #272
	.loc	1 403 16                        @ ../../../Library/StdDriver/src/retarget.c:403:16
	ldrb	r0, [r0]
	.loc	1 403 14 is_stmt 0              @ ../../../Library/StdDriver/src/retarget.c:403:14
	str	r0, [sp, #236]
	.loc	1 404 15 is_stmt 1              @ ../../../Library/StdDriver/src/retarget.c:404:15
	ldr	r0, [sp, #272]
	.loc	1 404 26 is_stmt 0              @ ../../../Library/StdDriver/src/retarget.c:404:26
	lsls	r0, r0, #21
	lsrs	r0, r0, #29
	.loc	1 404 12                        @ ../../../Library/StdDriver/src/retarget.c:404:12
	str	r0, [sp, #244]
	.loc	1 406 17 is_stmt 1              @ ../../../Library/StdDriver/src/retarget.c:406:17
	ldr	r0, [sp, #280]
	ldr	r0, [r0, #24]
	.loc	1 406 25 is_stmt 0              @ ../../../Library/StdDriver/src/retarget.c:406:25
	ldr	r1, [sp, #236]
	.loc	1 406 23                        @ ../../../Library/StdDriver/src/retarget.c:406:23
	adds	r0, r0, r1
	.loc	1 406 15                        @ ../../../Library/StdDriver/src/retarget.c:406:15
	str	r0, [sp, #264]
	.loc	1 407 17 is_stmt 1              @ ../../../Library/StdDriver/src/retarget.c:407:17
	ldr	r0, [sp, #280]
	.loc	1 407 20 is_stmt 0              @ ../../../Library/StdDriver/src/retarget.c:407:20
	ldr	r1, [sp, #244]
	.loc	1 407 17                        @ ../../../Library/StdDriver/src/retarget.c:407:17
	lsls	r1, r1, #2
	ldr	r0, [r0, r1]
	.loc	1 407 15                        @ ../../../Library/StdDriver/src/retarget.c:407:15
	str	r0, [sp, #260]
	.loc	1 408 53 is_stmt 1              @ ../../../Library/StdDriver/src/retarget.c:408:53
	ldr	r1, [sp, #268]
	.loc	1 408 59 is_stmt 0              @ ../../../Library/StdDriver/src/retarget.c:408:59
	ldr	r0, [sp, #272]
	.loc	1 409 9 is_stmt 1               @ ../../../Library/StdDriver/src/retarget.c:409:9
	lsls	r2, r0, #20
	ldr	r3, __arm_cp.0_6
	ldr	r4, __arm_cp.0_7
	cmp	r2, #0
	str	r1, [sp, #88]                   @ 4-byte Spill
	str	r0, [sp, #84]                   @ 4-byte Spill
	str	r4, [sp, #80]                   @ 4-byte Spill
	str	r3, [sp, #76]                   @ 4-byte Spill
	bmi	.LBB0_40
@ %bb.39:
	ldr	r0, [sp, #80]                   @ 4-byte Reload
	str	r0, [sp, #76]                   @ 4-byte Spill
.LBB0_40:
	ldr	r0, [sp, #76]                   @ 4-byte Reload
	.loc	1 409 34 is_stmt 0              @ ../../../Library/StdDriver/src/retarget.c:409:34
	ldr	r1, [sp, #260]
	.loc	1 409 41                        @ ../../../Library/StdDriver/src/retarget.c:409:41
	ldr	r2, [sp, #264]
	.loc	1 408 9 is_stmt 1               @ ../../../Library/StdDriver/src/retarget.c:408:9
	str	r2, [sp, #4]
	str	r1, [sp]
	ldr	r1, __arm_cp.0_8
	str	r0, [sp, #72]                   @ 4-byte Spill
	mov	r0, r1
	ldr	r1, [sp, #88]                   @ 4-byte Reload
	ldr	r2, [sp, #84]                   @ 4-byte Reload
	ldr	r3, [sp, #72]                   @ 4-byte Reload
	bl	printf
	.loc	1 410 5                         @ ../../../Library/StdDriver/src/retarget.c:410:5
	b	.LBB0_42
.Ltmp41:
.LBB0_41:
	.loc	1 0 5 is_stmt 0                 @ ../../../Library/StdDriver/src/retarget.c:0:5
	movs	r0, #4
.Ltmp42:
	.loc	1 413 15 is_stmt 1              @ ../../../Library/StdDriver/src/retarget.c:413:15
	str	r0, [sp, #232]
	.loc	1 414 55                        @ ../../../Library/StdDriver/src/retarget.c:414:55
	ldr	r1, [sp, #272]
	.loc	1 414 9 is_stmt 0               @ ../../../Library/StdDriver/src/retarget.c:414:9
	ldr	r0, __arm_cp.0_5
	bl	printf
	b	.LBB0_42
.Ltmp43:
.LBB0_42:
	.loc	1 0 9                           @ ../../../Library/StdDriver/src/retarget.c:0:9
	b	.LBB0_43
.LBB0_43:
	b	.LBB0_44
.LBB0_44:
	b	.LBB0_45
.LBB0_45:
	b	.LBB0_46
.LBB0_46:
	b	.LBB0_47
.LBB0_47:
.Ltmp44:
	.loc	1 417 8 is_stmt 1               @ ../../../Library/StdDriver/src/retarget.c:417:8
	ldr	r0, [sp, #232]
.Ltmp45:
	.loc	1 417 8 is_stmt 0               @ ../../../Library/StdDriver/src/retarget.c:417:8
	cmp	r0, #3
	beq	.LBB0_48
	b	.LBB0_87
.LBB0_48:
.Ltmp46:
	.loc	1 420 13 is_stmt 1              @ ../../../Library/StdDriver/src/retarget.c:420:13
	ldr	r0, [sp, #256]
.Ltmp47:
	.loc	1 420 12 is_stmt 0              @ ../../../Library/StdDriver/src/retarget.c:420:12
	cmp	r0, #0
	beq	.LBB0_49
	b	.LBB0_74
.LBB0_49:
	.loc	1 0 12                          @ ../../../Library/StdDriver/src/retarget.c:0:12
	movs	r0, #0
.Ltmp48:
	.loc	1 424 18 is_stmt 1              @ ../../../Library/StdDriver/src/retarget.c:424:18
	str	r0, [sp, #276]
	.loc	1 424 17 is_stmt 0              @ ../../../Library/StdDriver/src/retarget.c:424:17
	b	.LBB0_50
.LBB0_50:                               @ =>This Inner Loop Header: Depth=1
.Ltmp49:
	.loc	1 424 21                        @ ../../../Library/StdDriver/src/retarget.c:424:21
	ldr	r0, [sp, #276]
.Ltmp50:
	.loc	1 424 13                        @ ../../../Library/StdDriver/src/retarget.c:424:13
	cmp	r0, #69
	bls	.LBB0_51
	b	.LBB0_73
.LBB0_51:                               @   in Loop: Header=BB0_50 Depth=1
.Ltmp51:
	.loc	1 427 21 is_stmt 1              @ ../../../Library/StdDriver/src/retarget.c:427:21
	ldr	r0, [sp, #264]
	.loc	1 427 37 is_stmt 0              @ ../../../Library/StdDriver/src/retarget.c:427:37
	ldr	r1, [sp, #276]
	movs	r2, #12
	.loc	1 427 30                        @ ../../../Library/StdDriver/src/retarget.c:427:30
	muls	r2, r1, r2
	ldr	r1, __arm_cp.0_11
	adds	r1, r1, r2
	.loc	1 427 40                        @ ../../../Library/StdDriver/src/retarget.c:427:40
	ldr	r1, [r1, #4]
	.loc	1 427 49                        @ ../../../Library/StdDriver/src/retarget.c:427:49
	cmp	r0, r1
	blo	.LBB0_56
	b	.LBB0_52
.LBB0_52:                               @   in Loop: Header=BB0_50 Depth=1
	.loc	1 427 53                        @ ../../../Library/StdDriver/src/retarget.c:427:53
	ldr	r0, [sp, #264]
	.loc	1 427 69                        @ ../../../Library/StdDriver/src/retarget.c:427:69
	ldr	r1, [sp, #276]
	movs	r2, #12
	.loc	1 427 70                        @ ../../../Library/StdDriver/src/retarget.c:427:70
	muls	r2, r1, r2
	.loc	1 427 62                        @ ../../../Library/StdDriver/src/retarget.c:427:62
	ldr	r1, __arm_cp.0_11
	adds	r1, r2, r1
	.loc	1 427 74                        @ ../../../Library/StdDriver/src/retarget.c:427:74
	ldr	r1, [r1, #16]
.Ltmp52:
	.loc	1 427 20                        @ ../../../Library/StdDriver/src/retarget.c:427:20
	cmp	r0, r1
	bhs	.LBB0_56
	b	.LBB0_53
.LBB0_53:
.Ltmp53:
	.loc	1 429 34 is_stmt 1              @ ../../../Library/StdDriver/src/retarget.c:429:34
	ldr	r0, [sp, #276]
	movs	r1, #12
	.loc	1 429 27 is_stmt 0              @ ../../../Library/StdDriver/src/retarget.c:429:27
	mov	r2, r1
	muls	r2, r0, r2
	ldr	r0, __arm_cp.0_11
	adds	r2, r0, r2
	.loc	1 429 37                        @ ../../../Library/StdDriver/src/retarget.c:429:37
	ldrb	r2, [r2, #8]
	add	r3, sp, #228
	.loc	1 429 25                        @ ../../../Library/StdDriver/src/retarget.c:429:25
	strb	r2, [r3]
	.loc	1 430 27 is_stmt 1              @ ../../../Library/StdDriver/src/retarget.c:430:27
	ldrb	r2, [r3]
	movs	r4, #31
	.loc	1 430 31 is_stmt 0              @ ../../../Library/StdDriver/src/retarget.c:430:31
	ands	r2, r4
	add	r4, sp, #224
	.loc	1 430 25                        @ ../../../Library/StdDriver/src/retarget.c:430:25
	strb	r2, [r4]
	.loc	1 431 27 is_stmt 1              @ ../../../Library/StdDriver/src/retarget.c:431:27
	ldrb	r2, [r3]
	.loc	1 431 31 is_stmt 0              @ ../../../Library/StdDriver/src/retarget.c:431:31
	lsrs	r2, r2, #5
	.loc	1 431 25                        @ ../../../Library/StdDriver/src/retarget.c:431:25
	strb	r2, [r3]
	.loc	1 432 38 is_stmt 1              @ ../../../Library/StdDriver/src/retarget.c:432:38
	ldrb	r2, [r3]
	.loc	1 432 26 is_stmt 0              @ ../../../Library/StdDriver/src/retarget.c:432:26
	lsls	r2, r2, #2
	ldr	r3, __arm_cp.0_12
	ldr	r2, [r2, r3]
	.loc	1 432 46                        @ ../../../Library/StdDriver/src/retarget.c:432:46
	ldrb	r3, [r4]
	.loc	1 432 43                        @ ../../../Library/StdDriver/src/retarget.c:432:43
	lsrs	r2, r3
	movs	r3, #1
	.loc	1 432 51                        @ ../../../Library/StdDriver/src/retarget.c:432:51
	ands	r2, r3
	.loc	1 432 23                        @ ../../../Library/StdDriver/src/retarget.c:432:23
	str	r2, [sp, #220]
	.loc	1 433 78 is_stmt 1              @ ../../../Library/StdDriver/src/retarget.c:433:78
	ldr	r2, [sp, #220]
	.loc	1 433 77 is_stmt 0              @ ../../../Library/StdDriver/src/retarget.c:433:77
	ldr	r3, __arm_cp.0_13
	ldr	r4, __arm_cp.0_14
	cmp	r2, #0
	str	r1, [sp, #68]                   @ 4-byte Spill
	str	r0, [sp, #64]                   @ 4-byte Spill
	str	r4, [sp, #60]                   @ 4-byte Spill
	str	r3, [sp, #56]                   @ 4-byte Spill
	bne	.LBB0_55
@ %bb.54:
	ldr	r0, [sp, #60]                   @ 4-byte Reload
	str	r0, [sp, #56]                   @ 4-byte Spill
.LBB0_55:
	ldr	r0, [sp, #56]                   @ 4-byte Reload
	.loc	1 433 110                       @ ../../../Library/StdDriver/src/retarget.c:433:110
	ldr	r1, [sp, #276]
	.loc	1 433 103                       @ ../../../Library/StdDriver/src/retarget.c:433:103
	ldr	r2, [sp, #68]                   @ 4-byte Reload
	muls	r2, r1, r2
	.loc	1 433 113                       @ ../../../Library/StdDriver/src/retarget.c:433:113
	ldr	r1, [sp, #64]                   @ 4-byte Reload
	ldr	r2, [r1, r2]
	.loc	1 433 21                        @ ../../../Library/StdDriver/src/retarget.c:433:21
	ldr	r3, __arm_cp.0_16
	str	r0, [sp, #52]                   @ 4-byte Spill
	mov	r0, r3
	ldr	r1, [sp, #52]                   @ 4-byte Reload
	bl	printf
	.loc	1 434 21 is_stmt 1              @ ../../../Library/StdDriver/src/retarget.c:434:21
	b	.LBB0_73
.Ltmp54:
.LBB0_56:                               @   in Loop: Header=BB0_50 Depth=1
	.loc	1 438 21                        @ ../../../Library/StdDriver/src/retarget.c:438:21
	ldr	r0, [sp, #264]
	.loc	1 438 38 is_stmt 0              @ ../../../Library/StdDriver/src/retarget.c:438:38
	ldr	r1, [sp, #276]
	movs	r2, #12
	.loc	1 438 31                        @ ../../../Library/StdDriver/src/retarget.c:438:31
	muls	r2, r1, r2
	ldr	r1, __arm_cp.0_11
	adds	r1, r1, r2
	.loc	1 438 41                        @ ../../../Library/StdDriver/src/retarget.c:438:41
	ldr	r1, [r1, #4]
	movs	r2, #1
	lsls	r2, r2, #28
	.loc	1 438 48                        @ ../../../Library/StdDriver/src/retarget.c:438:48
	adds	r1, r1, r2
	.loc	1 438 61                        @ ../../../Library/StdDriver/src/retarget.c:438:61
	cmp	r0, r1
	blo	.LBB0_71
	b	.LBB0_57
.LBB0_57:                               @   in Loop: Header=BB0_50 Depth=1
	.loc	1 438 65                        @ ../../../Library/StdDriver/src/retarget.c:438:65
	ldr	r0, [sp, #264]
	.loc	1 438 81                        @ ../../../Library/StdDriver/src/retarget.c:438:81
	ldr	r1, [sp, #276]
	movs	r2, #12
	.loc	1 438 82                        @ ../../../Library/StdDriver/src/retarget.c:438:82
	muls	r2, r1, r2
	.loc	1 438 74                        @ ../../../Library/StdDriver/src/retarget.c:438:74
	ldr	r1, __arm_cp.0_11
	adds	r1, r2, r1
	.loc	1 438 86                        @ ../../../Library/StdDriver/src/retarget.c:438:86
	ldr	r1, [r1, #16]
	movs	r2, #1
	lsls	r2, r2, #28
	.loc	1 438 93                        @ ../../../Library/StdDriver/src/retarget.c:438:93
	adds	r1, r1, r2
.Ltmp55:
	.loc	1 438 20                        @ ../../../Library/StdDriver/src/retarget.c:438:20
	cmp	r0, r1
	bhs	.LBB0_71
	b	.LBB0_68
	.p2align	2
@ %bb.58:
	.loc	1 0 20                          @ ../../../Library/StdDriver/src/retarget.c:0:20
.LCPI0_19:
	.long	.L.str.70
	.p2align	2
@ %bb.59:
__arm_cp.0_20:
	.long	.L.str.71
.Lcpi_end0:
	.size	__arm_cp.0_20, .Lcpi_end0-__arm_cp.0_20
	.p2align	2
@ %bb.60:
__arm_cp.0_21:
	.long	.L.str.72
.Lcpi_end1:
	.size	__arm_cp.0_21, .Lcpi_end1-__arm_cp.0_21
	.p2align	2
@ %bb.61:
__arm_cp.0_22:
	.long	.L.str.73
.Lcpi_end2:
	.size	__arm_cp.0_22, .Lcpi_end2-__arm_cp.0_22
	.p2align	2
@ %bb.62:
__arm_cp.0_23:
	.long	48811                           @ 0xbeab
.Lcpi_end3:
	.size	__arm_cp.0_23, .Lcpi_end3-__arm_cp.0_23
	.p2align	2
@ %bb.63:
__arm_cp.0_24:
	.long	.L.str.74
.Lcpi_end4:
	.size	__arm_cp.0_24, .Lcpi_end4-__arm_cp.0_24
	.p2align	2
@ %bb.64:
.LCPI0_25:
	.long	.L.str.76
	.p2align	2
@ %bb.65:
.LCPI0_26:
	.long	.L.str.77
	.p2align	2
@ %bb.66:
.LCPI0_27:
	.long	.L.str.75
	.p2align	2
@ %bb.67:
.LCPI0_28:
	.long	.L.str.78
	.p2align	1
.LBB0_68:
.Ltmp56:
	.loc	1 440 34 is_stmt 1              @ ../../../Library/StdDriver/src/retarget.c:440:34
	ldr	r0, [sp, #276]
	movs	r1, #12
	.loc	1 440 27 is_stmt 0              @ ../../../Library/StdDriver/src/retarget.c:440:27
	mov	r2, r1
	muls	r2, r0, r2
	ldr	r0, __arm_cp.0_11
	adds	r2, r0, r2
	.loc	1 440 37                        @ ../../../Library/StdDriver/src/retarget.c:440:37
	ldrb	r2, [r2, #8]
	add	r3, sp, #228
	.loc	1 440 25                        @ ../../../Library/StdDriver/src/retarget.c:440:25
	strb	r2, [r3]
	.loc	1 441 27 is_stmt 1              @ ../../../Library/StdDriver/src/retarget.c:441:27
	ldrb	r2, [r3]
	movs	r4, #31
	.loc	1 441 31 is_stmt 0              @ ../../../Library/StdDriver/src/retarget.c:441:31
	ands	r2, r4
	add	r4, sp, #224
	.loc	1 441 25                        @ ../../../Library/StdDriver/src/retarget.c:441:25
	strb	r2, [r4]
	.loc	1 442 27 is_stmt 1              @ ../../../Library/StdDriver/src/retarget.c:442:27
	ldrb	r2, [r3]
	.loc	1 442 31 is_stmt 0              @ ../../../Library/StdDriver/src/retarget.c:442:31
	lsrs	r2, r2, #5
	.loc	1 442 25                        @ ../../../Library/StdDriver/src/retarget.c:442:25
	strb	r2, [r3]
	.loc	1 443 38 is_stmt 1              @ ../../../Library/StdDriver/src/retarget.c:443:38
	ldrb	r2, [r3]
	.loc	1 443 26 is_stmt 0              @ ../../../Library/StdDriver/src/retarget.c:443:26
	lsls	r2, r2, #2
	ldr	r3, __arm_cp.0_12
	ldr	r2, [r2, r3]
	.loc	1 443 46                        @ ../../../Library/StdDriver/src/retarget.c:443:46
	ldrb	r3, [r4]
	.loc	1 443 43                        @ ../../../Library/StdDriver/src/retarget.c:443:43
	lsrs	r2, r3
	movs	r3, #1
	.loc	1 443 51                        @ ../../../Library/StdDriver/src/retarget.c:443:51
	ands	r2, r3
	.loc	1 443 23                        @ ../../../Library/StdDriver/src/retarget.c:443:23
	str	r2, [sp, #220]
	.loc	1 444 112 is_stmt 1             @ ../../../Library/StdDriver/src/retarget.c:444:112
	ldr	r2, [sp, #220]
	.loc	1 444 111 is_stmt 0             @ ../../../Library/StdDriver/src/retarget.c:444:111
	ldr	r3, __arm_cp.0_13
	ldr	r4, __arm_cp.0_14
	cmp	r2, #0
	str	r1, [sp, #48]                   @ 4-byte Spill
	str	r0, [sp, #44]                   @ 4-byte Spill
	str	r4, [sp, #40]                   @ 4-byte Spill
	str	r3, [sp, #36]                   @ 4-byte Spill
	bne	.LBB0_70
@ %bb.69:
	ldr	r0, [sp, #40]                   @ 4-byte Reload
	str	r0, [sp, #36]                   @ 4-byte Spill
.LBB0_70:
	ldr	r0, [sp, #36]                   @ 4-byte Reload
	.loc	1 444 144                       @ ../../../Library/StdDriver/src/retarget.c:444:144
	ldr	r1, [sp, #276]
	.loc	1 444 137                       @ ../../../Library/StdDriver/src/retarget.c:444:137
	ldr	r2, [sp, #48]                   @ 4-byte Reload
	muls	r2, r1, r2
	.loc	1 444 147                       @ ../../../Library/StdDriver/src/retarget.c:444:147
	ldr	r1, [sp, #44]                   @ 4-byte Reload
	ldr	r2, [r1, r2]
	.loc	1 444 21                        @ ../../../Library/StdDriver/src/retarget.c:444:21
	ldr	r3, __arm_cp.0_15
	str	r0, [sp, #32]                   @ 4-byte Spill
	mov	r0, r3
	ldr	r1, [sp, #32]                   @ 4-byte Reload
	bl	printf
	.loc	1 445 21 is_stmt 1              @ ../../../Library/StdDriver/src/retarget.c:445:21
	b	.LBB0_73
.Ltmp57:
.LBB0_71:                               @   in Loop: Header=BB0_50 Depth=1
	.loc	1 447 13                        @ ../../../Library/StdDriver/src/retarget.c:447:13
	b	.LBB0_72
.Ltmp58:
.LBB0_72:                               @   in Loop: Header=BB0_50 Depth=1
	.loc	1 424 55                        @ ../../../Library/StdDriver/src/retarget.c:424:55
	ldr	r0, [sp, #276]
	adds	r0, r0, #1
	str	r0, [sp, #276]
	.loc	1 424 13 is_stmt 0              @ ../../../Library/StdDriver/src/retarget.c:424:13
	b	.LBB0_50
.Ltmp59:
.LBB0_73:
	.loc	1 448 9 is_stmt 1               @ ../../../Library/StdDriver/src/retarget.c:448:9
	b	.LBB0_86
.Ltmp60:
.LBB0_74:
	.loc	1 454 16                        @ ../../../Library/StdDriver/src/retarget.c:454:16
	ldr	r0, [sp, #264]
	ldr	r1, __arm_cp.0_17
.Ltmp61:
	.loc	1 454 16 is_stmt 0              @ ../../../Library/StdDriver/src/retarget.c:454:16
	cmp	r0, r1
	blo	.LBB0_85
	b	.LBB0_75
.LBB0_75:
	.loc	1 0 16                          @ ../../../Library/StdDriver/src/retarget.c:0:16
	movs	r0, #0
.Ltmp62:
	.loc	1 457 22 is_stmt 1              @ ../../../Library/StdDriver/src/retarget.c:457:22
	str	r0, [sp, #276]
	.loc	1 457 21 is_stmt 0              @ ../../../Library/StdDriver/src/retarget.c:457:21
	b	.LBB0_76
.LBB0_76:                               @ =>This Inner Loop Header: Depth=1
.Ltmp63:
	.loc	1 457 25                        @ ../../../Library/StdDriver/src/retarget.c:457:25
	ldr	r0, [sp, #276]
.Ltmp64:
	.loc	1 457 17                        @ ../../../Library/StdDriver/src/retarget.c:457:17
	cmp	r0, #69
	bhi	.LBB0_84
	b	.LBB0_77
.LBB0_77:                               @   in Loop: Header=BB0_76 Depth=1
.Ltmp65:
	.loc	1 459 25 is_stmt 1              @ ../../../Library/StdDriver/src/retarget.c:459:25
	ldr	r0, [sp, #264]
	.loc	1 459 42 is_stmt 0              @ ../../../Library/StdDriver/src/retarget.c:459:42
	ldr	r1, [sp, #276]
	movs	r2, #12
	.loc	1 459 35                        @ ../../../Library/StdDriver/src/retarget.c:459:35
	muls	r2, r1, r2
	ldr	r1, __arm_cp.0_11
	adds	r1, r1, r2
	.loc	1 459 45                        @ ../../../Library/StdDriver/src/retarget.c:459:45
	ldr	r1, [r1, #4]
	movs	r2, #1
	lsls	r2, r2, #28
	.loc	1 459 52                        @ ../../../Library/StdDriver/src/retarget.c:459:52
	adds	r1, r1, r2
	.loc	1 459 65                        @ ../../../Library/StdDriver/src/retarget.c:459:65
	cmp	r0, r1
	blo	.LBB0_82
	b	.LBB0_78
.LBB0_78:                               @   in Loop: Header=BB0_76 Depth=1
	.loc	1 459 69                        @ ../../../Library/StdDriver/src/retarget.c:459:69
	ldr	r0, [sp, #264]
	.loc	1 459 85                        @ ../../../Library/StdDriver/src/retarget.c:459:85
	ldr	r1, [sp, #276]
	movs	r2, #12
	.loc	1 459 86                        @ ../../../Library/StdDriver/src/retarget.c:459:86
	muls	r2, r1, r2
	.loc	1 459 78                        @ ../../../Library/StdDriver/src/retarget.c:459:78
	ldr	r1, __arm_cp.0_11
	adds	r1, r2, r1
	.loc	1 459 90                        @ ../../../Library/StdDriver/src/retarget.c:459:90
	ldr	r1, [r1, #16]
	movs	r2, #1
	lsls	r2, r2, #28
	.loc	1 459 97                        @ ../../../Library/StdDriver/src/retarget.c:459:97
	adds	r1, r1, r2
.Ltmp66:
	.loc	1 459 24                        @ ../../../Library/StdDriver/src/retarget.c:459:24
	cmp	r0, r1
	bhs	.LBB0_82
	b	.LBB0_79
.LBB0_79:
.Ltmp67:
	.loc	1 461 38 is_stmt 1              @ ../../../Library/StdDriver/src/retarget.c:461:38
	ldr	r0, [sp, #276]
	movs	r1, #12
	.loc	1 461 31 is_stmt 0              @ ../../../Library/StdDriver/src/retarget.c:461:31
	mov	r2, r1
	muls	r2, r0, r2
	ldr	r0, __arm_cp.0_11
	adds	r2, r0, r2
	.loc	1 461 41                        @ ../../../Library/StdDriver/src/retarget.c:461:41
	ldrb	r2, [r2, #8]
	add	r3, sp, #228
	.loc	1 461 29                        @ ../../../Library/StdDriver/src/retarget.c:461:29
	strb	r2, [r3]
	.loc	1 462 31 is_stmt 1              @ ../../../Library/StdDriver/src/retarget.c:462:31
	ldrb	r2, [r3]
	movs	r4, #31
	.loc	1 462 35 is_stmt 0              @ ../../../Library/StdDriver/src/retarget.c:462:35
	ands	r2, r4
	add	r4, sp, #224
	.loc	1 462 29                        @ ../../../Library/StdDriver/src/retarget.c:462:29
	strb	r2, [r4]
	.loc	1 463 31 is_stmt 1              @ ../../../Library/StdDriver/src/retarget.c:463:31
	ldrb	r2, [r3]
	.loc	1 463 35 is_stmt 0              @ ../../../Library/StdDriver/src/retarget.c:463:35
	lsrs	r2, r2, #5
	.loc	1 463 29                        @ ../../../Library/StdDriver/src/retarget.c:463:29
	strb	r2, [r3]
	.loc	1 464 42 is_stmt 1              @ ../../../Library/StdDriver/src/retarget.c:464:42
	ldrb	r2, [r3]
	.loc	1 464 30 is_stmt 0              @ ../../../Library/StdDriver/src/retarget.c:464:30
	lsls	r2, r2, #2
	ldr	r3, __arm_cp.0_12
	ldr	r2, [r2, r3]
	.loc	1 464 50                        @ ../../../Library/StdDriver/src/retarget.c:464:50
	ldrb	r3, [r4]
	.loc	1 464 47                        @ ../../../Library/StdDriver/src/retarget.c:464:47
	lsrs	r2, r3
	movs	r3, #1
	.loc	1 464 55                        @ ../../../Library/StdDriver/src/retarget.c:464:55
	ands	r2, r3
	.loc	1 464 27                        @ ../../../Library/StdDriver/src/retarget.c:464:27
	str	r2, [sp, #220]
	.loc	1 465 103 is_stmt 1             @ ../../../Library/StdDriver/src/retarget.c:465:103
	ldr	r2, [sp, #220]
	.loc	1 465 102 is_stmt 0             @ ../../../Library/StdDriver/src/retarget.c:465:102
	ldr	r3, __arm_cp.0_13
	ldr	r4, __arm_cp.0_14
	cmp	r2, #0
	str	r1, [sp, #28]                   @ 4-byte Spill
	str	r0, [sp, #24]                   @ 4-byte Spill
	str	r4, [sp, #20]                   @ 4-byte Spill
	str	r3, [sp, #16]                   @ 4-byte Spill
	bne	.LBB0_81
@ %bb.80:
	ldr	r0, [sp, #20]                   @ 4-byte Reload
	str	r0, [sp, #16]                   @ 4-byte Spill
.LBB0_81:
	ldr	r0, [sp, #16]                   @ 4-byte Reload
	.loc	1 465 135                       @ ../../../Library/StdDriver/src/retarget.c:465:135
	ldr	r1, [sp, #276]
	.loc	1 465 128                       @ ../../../Library/StdDriver/src/retarget.c:465:128
	ldr	r2, [sp, #28]                   @ 4-byte Reload
	muls	r2, r1, r2
	.loc	1 465 138                       @ ../../../Library/StdDriver/src/retarget.c:465:138
	ldr	r1, [sp, #24]                   @ 4-byte Reload
	ldr	r2, [r1, r2]
	.loc	1 465 25                        @ ../../../Library/StdDriver/src/retarget.c:465:25
	ldr	r3, __arm_cp.0_18
	str	r0, [sp, #12]                   @ 4-byte Spill
	mov	r0, r3
	ldr	r1, [sp, #12]                   @ 4-byte Reload
	bl	printf
	.loc	1 466 25 is_stmt 1              @ ../../../Library/StdDriver/src/retarget.c:466:25
	b	.LBB0_84
.Ltmp68:
.LBB0_82:                               @   in Loop: Header=BB0_76 Depth=1
	.loc	1 468 17                        @ ../../../Library/StdDriver/src/retarget.c:468:17
	b	.LBB0_83
.Ltmp69:
.LBB0_83:                               @   in Loop: Header=BB0_76 Depth=1
	.loc	1 457 59                        @ ../../../Library/StdDriver/src/retarget.c:457:59
	ldr	r0, [sp, #276]
	adds	r0, r0, #1
	str	r0, [sp, #276]
	.loc	1 457 17 is_stmt 0              @ ../../../Library/StdDriver/src/retarget.c:457:17
	b	.LBB0_76
.Ltmp70:
.LBB0_84:
	.loc	1 469 13 is_stmt 1              @ ../../../Library/StdDriver/src/retarget.c:469:13
	b	.LBB0_85
.Ltmp71:
.LBB0_85:
	.loc	1 0 13 is_stmt 0                @ ../../../Library/StdDriver/src/retarget.c:0:13
	b	.LBB0_86
.LBB0_86:
	.loc	1 473 5 is_stmt 1               @ ../../../Library/StdDriver/src/retarget.c:473:5
	b	.LBB0_87
.Ltmp72:
.LBB0_87:
	.loc	1 475 5                         @ ../../../Library/StdDriver/src/retarget.c:475:5
	bl	SCU_IRQHandler
	.loc	1 477 5                         @ ../../../Library/StdDriver/src/retarget.c:477:5
	ldr	r0, __arm_cp.0_0
	bl	printf
	.loc	1 480 5                         @ ../../../Library/StdDriver/src/retarget.c:480:5
	b	.LBB0_88
.LBB0_88:                               @ =>This Inner Loop Header: Depth=1
	.loc	1 480 15 is_stmt 0              @ ../../../Library/StdDriver/src/retarget.c:480:15
	ldr	r0, [sp, #280]
	.loc	1 480 14                        @ ../../../Library/StdDriver/src/retarget.c:480:14
	ldr	r0, [r0]
	movs	r1, #1
	.loc	1 480 13                        @ ../../../Library/StdDriver/src/retarget.c:480:13
	orrs	r0, r1
	.loc	1 480 5                         @ ../../../Library/StdDriver/src/retarget.c:480:5
	cmp	r0, #0
	beq	.LBB0_90
	b	.LBB0_89
.LBB0_89:                               @   in Loop: Header=BB0_88 Depth=1
	b	.LBB0_88
.LBB0_90:
	.loc	1 482 12 is_stmt 1              @ ../../../Library/StdDriver/src/retarget.c:482:12
	ldr	r0, [sp, #292]
	.loc	1 482 5 is_stmt 0               @ ../../../Library/StdDriver/src/retarget.c:482:5
	add	sp, #296
	pop	{r4, pc}
.Ltmp73:
	.p2align	2
@ %bb.91:
	.loc	1 0 5                           @ ../../../Library/StdDriver/src/retarget.c:0:5
__arm_cp.0_0:
	.long	.L.str.70
.Lcpi_end5:
	.size	__arm_cp.0_0, .Lcpi_end5-__arm_cp.0_0
__arm_cp.0_5:
	.long	.L.str.79
.Lcpi_end6:
	.size	__arm_cp.0_5, .Lcpi_end6-__arm_cp.0_5
__arm_cp.0_6:
	.long	.L.str.76
.Lcpi_end7:
	.size	__arm_cp.0_6, .Lcpi_end7-__arm_cp.0_6
__arm_cp.0_7:
	.long	.L.str.77
.Lcpi_end8:
	.size	__arm_cp.0_7, .Lcpi_end8-__arm_cp.0_7
__arm_cp.0_8:
	.long	.L.str.78
.Lcpi_end9:
	.size	__arm_cp.0_8, .Lcpi_end9-__arm_cp.0_8
__arm_cp.0_9:
	.long	.L.str.75
.Lcpi_end10:
	.size	__arm_cp.0_9, .Lcpi_end10-__arm_cp.0_9
__arm_cp.0_11:
	.long	ip_tbl
.Lcpi_end11:
	.size	__arm_cp.0_11, .Lcpi_end11-__arm_cp.0_11
__arm_cp.0_12:
	.long	1073934336                      @ 0x4002f000
.Lcpi_end12:
	.size	__arm_cp.0_12, .Lcpi_end12-__arm_cp.0_12
__arm_cp.0_13:
	.long	.L.str.81
.Lcpi_end13:
	.size	__arm_cp.0_13, .Lcpi_end13-__arm_cp.0_13
__arm_cp.0_14:
	.long	.L.str.82
.Lcpi_end14:
	.size	__arm_cp.0_14, .Lcpi_end14-__arm_cp.0_14
__arm_cp.0_15:
	.long	.L.str.83
.Lcpi_end15:
	.size	__arm_cp.0_15, .Lcpi_end15-__arm_cp.0_15
__arm_cp.0_16:
	.long	.L.str.80
.Lcpi_end16:
	.size	__arm_cp.0_16, .Lcpi_end16-__arm_cp.0_16
__arm_cp.0_17:
	.long	268435457                       @ 0x10000001
.Lcpi_end17:
	.size	__arm_cp.0_17, .Lcpi_end17-__arm_cp.0_17
__arm_cp.0_18:
	.long	.L.str.84
.Lcpi_end18:
	.size	__arm_cp.0_18, .Lcpi_end18-__arm_cp.0_18
.Lfunc_end0:
	.size	ProcessHardFault, .Lfunc_end0-ProcessHardFault
	.cfi_endproc
	.cantunwind
	.fnend
                                        @ -- End function
	.section	.text.SH_Return,"ax",%progbits
	.hidden	SH_Return                       @ -- Begin function SH_Return
	.globl	SH_Return
	.p2align	1
	.type	SH_Return,%function
	.code	16                              @ @SH_Return
	.thumb_func
SH_Return:
.Lfunc_begin1:
	.loc	1 487 0 is_stmt 1               @ ../../../Library/StdDriver/src/retarget.c:487:0
	.fnstart
	.cfi_startproc
@ %bb.0:
	.pad	#12
	sub	sp, #12
	.cfi_def_cfa_offset 12
	str	r0, [sp, #8]
	str	r1, [sp, #4]
	str	r2, [sp]
	movs	r0, #0
.Ltmp74:
	.loc	1 488 5 prologue_end            @ ../../../Library/StdDriver/src/retarget.c:488:5
	add	sp, #12
	bx	lr
.Ltmp75:
.Lfunc_end1:
	.size	SH_Return, .Lfunc_end1-SH_Return
	.cfi_endproc
	.cantunwind
	.fnend
                                        @ -- End function
	.section	.text.SendChar_ToUART,"ax",%progbits
	.hidden	SendChar_ToUART                 @ -- Begin function SendChar_ToUART
	.globl	SendChar_ToUART
	.p2align	2
	.type	SendChar_ToUART,%function
	.code	16                              @ @SendChar_ToUART
	.thumb_func
SendChar_ToUART:
.Lfunc_begin2:
	.loc	1 505 0                         @ ../../../Library/StdDriver/src/retarget.c:505:0
	.fnstart
	.cfi_startproc
@ %bb.0:
	.pad	#4
	sub	sp, #4
	.cfi_def_cfa_offset 4
	str	r0, [sp]
.Ltmp76:
	.loc	1 507 5 prologue_end            @ ../../../Library/StdDriver/src/retarget.c:507:5
	b	.LBB2_1
.LBB2_1:                                @ =>This Inner Loop Header: Depth=1
	.loc	1 0 5 is_stmt 0                 @ ../../../Library/StdDriver/src/retarget.c:0:5
	ldr	r0, __arm_cp.2_0
	.loc	1 507 23                        @ ../../../Library/StdDriver/src/retarget.c:507:23
	ldr	r0, [r0]
	.loc	1 507 5                         @ ../../../Library/StdDriver/src/retarget.c:507:5
	lsls	r0, r0, #8
	cmp	r0, #0
	bpl	.LBB2_3
	b	.LBB2_2
.LBB2_2:                                @   in Loop: Header=BB2_1 Depth=1
	b	.LBB2_1
.LBB2_3:
	.loc	1 508 33 is_stmt 1              @ ../../../Library/StdDriver/src/retarget.c:508:33
	ldr	r0, [sp]
	ldr	r1, __arm_cp.2_1
	.loc	1 508 21 is_stmt 0              @ ../../../Library/StdDriver/src/retarget.c:508:21
	str	r0, [r1]
	mov	r0, sp
.Ltmp77:
	.loc	1 509 14 is_stmt 1              @ ../../../Library/StdDriver/src/retarget.c:509:14
	ldrb	r0, [r0]
.Ltmp78:
	.loc	1 509 8 is_stmt 0               @ ../../../Library/StdDriver/src/retarget.c:509:8
	cmp	r0, #10
	bne	.LBB2_8
	b	.LBB2_4
.LBB2_4:
.Ltmp79:
	.loc	1 511 9 is_stmt 1               @ ../../../Library/StdDriver/src/retarget.c:511:9
	b	.LBB2_5
.LBB2_5:                                @ =>This Inner Loop Header: Depth=1
	.loc	1 0 9 is_stmt 0                 @ ../../../Library/StdDriver/src/retarget.c:0:9
	ldr	r0, __arm_cp.2_0
	.loc	1 511 27                        @ ../../../Library/StdDriver/src/retarget.c:511:27
	ldr	r0, [r0]
	.loc	1 511 9                         @ ../../../Library/StdDriver/src/retarget.c:511:9
	lsls	r0, r0, #8
	cmp	r0, #0
	bpl	.LBB2_7
	b	.LBB2_6
.LBB2_6:                                @   in Loop: Header=BB2_5 Depth=1
	b	.LBB2_5
.LBB2_7:
	.loc	1 0 9                           @ ../../../Library/StdDriver/src/retarget.c:0:9
	ldr	r0, __arm_cp.2_1
	movs	r1, #13
	.loc	1 512 25 is_stmt 1              @ ../../../Library/StdDriver/src/retarget.c:512:25
	str	r1, [r0]
	.loc	1 513 5                         @ ../../../Library/StdDriver/src/retarget.c:513:5
	b	.LBB2_8
.Ltmp80:
.LBB2_8:
	.loc	1 514 1                         @ ../../../Library/StdDriver/src/retarget.c:514:1
	add	sp, #4
	bx	lr
.Ltmp81:
	.p2align	2
@ %bb.9:
	.loc	1 0 1 is_stmt 0                 @ ../../../Library/StdDriver/src/retarget.c:0:1
__arm_cp.2_0:
	.long	1342636056                      @ 0x50070018
.Lcpi_end19:
	.size	__arm_cp.2_0, .Lcpi_end19-__arm_cp.2_0
__arm_cp.2_1:
	.long	1342636032                      @ 0x50070000
.Lcpi_end20:
	.size	__arm_cp.2_1, .Lcpi_end20-__arm_cp.2_1
.Lfunc_end2:
	.size	SendChar_ToUART, .Lfunc_end2-SendChar_ToUART
	.cfi_endproc
	.cantunwind
	.fnend
                                        @ -- End function
	.section	.text.SendChar,"ax",%progbits
	.hidden	SendChar                        @ -- Begin function SendChar
	.globl	SendChar
	.p2align	1
	.type	SendChar,%function
	.code	16                              @ @SendChar
	.thumb_func
SendChar:
.Lfunc_begin3:
	.loc	1 582 0 is_stmt 1               @ ../../../Library/StdDriver/src/retarget.c:582:0
	.fnstart
	.cfi_startproc
@ %bb.0:
	.save	{r7, lr}
	push	{r7, lr}
	.cfi_def_cfa_offset 8
	.cfi_offset lr, -4
	.cfi_offset r7, -8
	.pad	#8
	sub	sp, #8
	.cfi_def_cfa_offset 16
	str	r0, [sp, #4]
.Ltmp82:
	.loc	1 612 21 prologue_end           @ ../../../Library/StdDriver/src/retarget.c:612:21
	ldr	r0, [sp, #4]
	.loc	1 612 5 is_stmt 0               @ ../../../Library/StdDriver/src/retarget.c:612:5
	bl	SendChar_ToUART
	.loc	1 614 1 is_stmt 1               @ ../../../Library/StdDriver/src/retarget.c:614:1
	add	sp, #8
	pop	{r7, pc}
.Ltmp83:
.Lfunc_end3:
	.size	SendChar, .Lfunc_end3-SendChar
	.cfi_endproc
	.cantunwind
	.fnend
                                        @ -- End function
	.section	.text.GetChar,"ax",%progbits
	.hidden	GetChar                         @ -- Begin function GetChar
	.globl	GetChar
	.p2align	2
	.type	GetChar,%function
	.code	16                              @ @GetChar
	.thumb_func
GetChar:
.Lfunc_begin4:
	.loc	1 626 0                         @ ../../../Library/StdDriver/src/retarget.c:626:0
	.fnstart
	.cfi_startproc
@ %bb.0:
	.loc	1 663 5 prologue_end            @ ../../../Library/StdDriver/src/retarget.c:663:5
	b	.LBB4_1
.LBB4_1:                                @ =>This Inner Loop Header: Depth=1
	.loc	1 0 5 is_stmt 0                 @ ../../../Library/StdDriver/src/retarget.c:0:5
	ldr	r0, __arm_cp.4_0
.Ltmp84:
	.loc	1 665 25 is_stmt 1              @ ../../../Library/StdDriver/src/retarget.c:665:25
	ldr	r0, [r0]
.Ltmp85:
	.loc	1 665 12 is_stmt 0              @ ../../../Library/StdDriver/src/retarget.c:665:12
	lsls	r0, r0, #17
	cmp	r0, #0
	bmi	.LBB4_3
	b	.LBB4_2
.LBB4_2:
	.loc	1 0 12                          @ ../../../Library/StdDriver/src/retarget.c:0:12
	ldr	r0, __arm_cp.4_1
.Ltmp86:
	.loc	1 667 39 is_stmt 1              @ ../../../Library/StdDriver/src/retarget.c:667:39
	ldr	r0, [r0]
	.loc	1 667 13 is_stmt 0              @ ../../../Library/StdDriver/src/retarget.c:667:13
	uxtb	r0, r0
	bx	lr
.Ltmp87:
.LBB4_3:                                @   in Loop: Header=BB4_1 Depth=1
	.loc	1 663 5 is_stmt 1               @ ../../../Library/StdDriver/src/retarget.c:663:5
	b	.LBB4_1
.Ltmp88:
	.p2align	2
@ %bb.4:
	.loc	1 0 5 is_stmt 0                 @ ../../../Library/StdDriver/src/retarget.c:0:5
__arm_cp.4_0:
	.long	1342636056                      @ 0x50070018
.Lcpi_end21:
	.size	__arm_cp.4_0, .Lcpi_end21-__arm_cp.4_0
__arm_cp.4_1:
	.long	1342636032                      @ 0x50070000
.Lcpi_end22:
	.size	__arm_cp.4_1, .Lcpi_end22-__arm_cp.4_1
.Lfunc_end4:
	.size	GetChar, .Lfunc_end4-GetChar
	.cfi_endproc
	.cantunwind
	.fnend
                                        @ -- End function
	.section	.text.kbhit,"ax",%progbits
	.hidden	kbhit                           @ -- Begin function kbhit
	.globl	kbhit
	.p2align	2
	.type	kbhit,%function
	.code	16                              @ @kbhit
	.thumb_func
kbhit:
.Lfunc_begin5:
	.loc	1 686 0 is_stmt 1               @ ../../../Library/StdDriver/src/retarget.c:686:0
	.fnstart
	.cfi_startproc
@ %bb.0:
	ldr	r0, __arm_cp.5_0
.Ltmp89:
	.loc	1 687 27 prologue_end           @ ../../../Library/StdDriver/src/retarget.c:687:27
	ldr	r0, [r0]
	movw	r1, #16384
	.loc	1 687 35 is_stmt 0              @ ../../../Library/StdDriver/src/retarget.c:687:35
	ands	r0, r1
	.loc	1 687 63                        @ ../../../Library/StdDriver/src/retarget.c:687:63
	lsrs	r0, r0, #14
	.loc	1 687 5                         @ ../../../Library/StdDriver/src/retarget.c:687:5
	bx	lr
.Ltmp90:
	.p2align	2
@ %bb.1:
	.loc	1 0 5                           @ ../../../Library/StdDriver/src/retarget.c:0:5
__arm_cp.5_0:
	.long	1342636056                      @ 0x50070018
.Lcpi_end23:
	.size	__arm_cp.5_0, .Lcpi_end23-__arm_cp.5_0
.Lfunc_end5:
	.size	kbhit, .Lfunc_end5-kbhit
	.cfi_endproc
	.cantunwind
	.fnend
                                        @ -- End function
	.section	.text.IsDebugFifoEmpty,"ax",%progbits
	.hidden	IsDebugFifoEmpty                @ -- Begin function IsDebugFifoEmpty
	.globl	IsDebugFifoEmpty
	.p2align	2
	.type	IsDebugFifoEmpty,%function
	.code	16                              @ @IsDebugFifoEmpty
	.thumb_func
IsDebugFifoEmpty:
.Lfunc_begin6:
	.loc	1 701 0 is_stmt 1               @ ../../../Library/StdDriver/src/retarget.c:701:0
	.fnstart
	.cfi_startproc
@ %bb.0:
	ldr	r0, __arm_cp.6_0
.Ltmp91:
	.loc	1 702 26 prologue_end           @ ../../../Library/StdDriver/src/retarget.c:702:26
	ldr	r0, [r0]
	movs	r1, #1
	lsls	r1, r1, #28
	.loc	1 702 34 is_stmt 0              @ ../../../Library/StdDriver/src/retarget.c:702:34
	ands	r0, r1
	.loc	1 702 63                        @ ../../../Library/StdDriver/src/retarget.c:702:63
	lsrs	r0, r0, #28
	.loc	1 702 5                         @ ../../../Library/StdDriver/src/retarget.c:702:5
	bx	lr
.Ltmp92:
	.p2align	2
@ %bb.1:
	.loc	1 0 5                           @ ../../../Library/StdDriver/src/retarget.c:0:5
__arm_cp.6_0:
	.long	1342636056                      @ 0x50070018
.Lcpi_end24:
	.size	__arm_cp.6_0, .Lcpi_end24-__arm_cp.6_0
.Lfunc_end6:
	.size	IsDebugFifoEmpty, .Lfunc_end6-IsDebugFifoEmpty
	.cfi_endproc
	.cantunwind
	.fnend
                                        @ -- End function
	.section	.text._ttywrch,"ax",%progbits
	.hidden	_ttywrch                        @ -- Begin function _ttywrch
	.globl	_ttywrch
	.p2align	1
	.type	_ttywrch,%function
	.code	16                              @ @_ttywrch
	.thumb_func
_ttywrch:
.Lfunc_begin7:
	.loc	1 716 0 is_stmt 1               @ ../../../Library/StdDriver/src/retarget.c:716:0
	.fnstart
	.cfi_startproc
@ %bb.0:
	.save	{r7, lr}
	push	{r7, lr}
	.cfi_def_cfa_offset 8
	.cfi_offset lr, -4
	.cfi_offset r7, -8
	.pad	#8
	sub	sp, #8
	.cfi_def_cfa_offset 16
	str	r0, [sp, #4]
.Ltmp93:
	.loc	1 717 14 prologue_end           @ ../../../Library/StdDriver/src/retarget.c:717:14
	ldr	r0, [sp, #4]
	.loc	1 717 5 is_stmt 0               @ ../../../Library/StdDriver/src/retarget.c:717:5
	bl	SendChar
	.loc	1 718 5 is_stmt 1               @ ../../../Library/StdDriver/src/retarget.c:718:5
	add	sp, #8
	pop	{r7, pc}
.Ltmp94:
.Lfunc_end7:
	.size	_ttywrch, .Lfunc_end7-_ttywrch
	.cfi_endproc
	.cantunwind
	.fnend
                                        @ -- End function
	.section	.text.fputc,"ax",%progbits
	.hidden	fputc                           @ -- Begin function fputc
	.globl	fputc
	.p2align	1
	.type	fputc,%function
	.code	16                              @ @fputc
	.thumb_func
fputc:
.Lfunc_begin8:
	.loc	1 741 0                         @ ../../../Library/StdDriver/src/retarget.c:741:0
	.fnstart
	.cfi_startproc
@ %bb.0:
	.save	{r7, lr}
	push	{r7, lr}
	.cfi_def_cfa_offset 8
	.cfi_offset lr, -4
	.cfi_offset r7, -8
	.pad	#8
	sub	sp, #8
	.cfi_def_cfa_offset 16
	str	r0, [sp, #4]
	str	r1, [sp]
.Ltmp95:
	.loc	1 742 14 prologue_end           @ ../../../Library/StdDriver/src/retarget.c:742:14
	ldr	r0, [sp, #4]
	.loc	1 742 5 is_stmt 0               @ ../../../Library/StdDriver/src/retarget.c:742:5
	bl	SendChar
	.loc	1 743 12 is_stmt 1              @ ../../../Library/StdDriver/src/retarget.c:743:12
	ldr	r0, [sp, #4]
	.loc	1 743 5 is_stmt 0               @ ../../../Library/StdDriver/src/retarget.c:743:5
	add	sp, #8
	pop	{r7, pc}
.Ltmp96:
.Lfunc_end8:
	.size	fputc, .Lfunc_end8-fputc
	.cfi_endproc
	.cantunwind
	.fnend
                                        @ -- End function
	.section	.text.fgetc,"ax",%progbits
	.hidden	fgetc                           @ -- Begin function fgetc
	.globl	fgetc
	.p2align	1
	.type	fgetc,%function
	.code	16                              @ @fgetc
	.thumb_func
fgetc:
.Lfunc_begin9:
	.loc	1 791 0 is_stmt 1               @ ../../../Library/StdDriver/src/retarget.c:791:0
	.fnstart
	.cfi_startproc
@ %bb.0:
	.save	{r7, lr}
	push	{r7, lr}
	.cfi_def_cfa_offset 8
	.cfi_offset lr, -4
	.cfi_offset r7, -8
	.pad	#8
	sub	sp, #8
	.cfi_def_cfa_offset 16
	str	r0, [sp, #4]
.Ltmp97:
	.loc	1 792 18 prologue_end           @ ../../../Library/StdDriver/src/retarget.c:792:18
	bl	GetChar
	.loc	1 792 5 is_stmt 0               @ ../../../Library/StdDriver/src/retarget.c:792:5
	add	sp, #8
	pop	{r7, pc}
.Ltmp98:
.Lfunc_end9:
	.size	fgetc, .Lfunc_end9-fgetc
	.cfi_endproc
	.cantunwind
	.fnend
                                        @ -- End function
	.section	.text.ferror,"ax",%progbits
	.hidden	ferror                          @ -- Begin function ferror
	.globl	ferror
	.p2align	1
	.type	ferror,%function
	.code	16                              @ @ferror
	.thumb_func
ferror:
.Lfunc_begin10:
	.loc	1 811 0 is_stmt 1               @ ../../../Library/StdDriver/src/retarget.c:811:0
	.fnstart
	.cfi_startproc
@ %bb.0:
	.pad	#4
	sub	sp, #4
	.cfi_def_cfa_offset 4
	str	r0, [sp]
	movs	r0, #0
	mvns	r0, r0
.Ltmp99:
	.loc	1 812 5 prologue_end            @ ../../../Library/StdDriver/src/retarget.c:812:5
	add	sp, #4
	bx	lr
.Ltmp100:
.Lfunc_end10:
	.size	ferror, .Lfunc_end10-ferror
	.cfi_endproc
	.cantunwind
	.fnend
                                        @ -- End function
	.type	.L.str,%object                  @ @.str
	.section	.rodata.str1.1,"aMS",%progbits,1
.L.str:
	.asciz	"SYS"
	.size	.L.str, 4

	.type	.L.str.1,%object                @ @.str.1
.L.str.1:
	.asciz	"CLK"
	.size	.L.str.1, 4

	.type	.L.str.2,%object                @ @.str.2
.L.str.2:
	.asciz	"INT"
	.size	.L.str.2, 4

	.type	.L.str.3,%object                @ @.str.3
.L.str.3:
	.asciz	"GPIOA"
	.size	.L.str.3, 6

	.type	.L.str.4,%object                @ @.str.4
.L.str.4:
	.asciz	"GPIOB"
	.size	.L.str.4, 6

	.type	.L.str.5,%object                @ @.str.5
.L.str.5:
	.asciz	"GPIOC"
	.size	.L.str.5, 6

	.type	.L.str.6,%object                @ @.str.6
.L.str.6:
	.asciz	"GPIOD"
	.size	.L.str.6, 6

	.type	.L.str.7,%object                @ @.str.7
.L.str.7:
	.asciz	"GPIOE"
	.size	.L.str.7, 6

	.type	.L.str.8,%object                @ @.str.8
.L.str.8:
	.asciz	"GPIOF"
	.size	.L.str.8, 6

	.type	.L.str.9,%object                @ @.str.9
.L.str.9:
	.asciz	"GPIOG"
	.size	.L.str.9, 6

	.type	.L.str.10,%object               @ @.str.10
.L.str.10:
	.asciz	"GPIOH"
	.size	.L.str.10, 6

	.type	.L.str.11,%object               @ @.str.11
.L.str.11:
	.asciz	"GPIO_DBCTL"
	.size	.L.str.11, 11

	.type	.L.str.12,%object               @ @.str.12
.L.str.12:
	.asciz	"PA"
	.size	.L.str.12, 3

	.type	.L.str.13,%object               @ @.str.13
.L.str.13:
	.asciz	"PB"
	.size	.L.str.13, 3

	.type	.L.str.14,%object               @ @.str.14
.L.str.14:
	.asciz	"PC"
	.size	.L.str.14, 3

	.type	.L.str.15,%object               @ @.str.15
.L.str.15:
	.asciz	"PD"
	.size	.L.str.15, 3

	.type	.L.str.16,%object               @ @.str.16
.L.str.16:
	.asciz	"PE"
	.size	.L.str.16, 3

	.type	.L.str.17,%object               @ @.str.17
.L.str.17:
	.asciz	"PF"
	.size	.L.str.17, 3

	.type	.L.str.18,%object               @ @.str.18
.L.str.18:
	.asciz	"PG"
	.size	.L.str.18, 3

	.type	.L.str.19,%object               @ @.str.19
.L.str.19:
	.asciz	"PH"
	.size	.L.str.19, 3

	.type	.L.str.20,%object               @ @.str.20
.L.str.20:
	.asciz	"PDMA0"
	.size	.L.str.20, 6

	.type	.L.str.21,%object               @ @.str.21
.L.str.21:
	.asciz	"PDMA1"
	.size	.L.str.21, 6

	.type	.L.str.22,%object               @ @.str.22
.L.str.22:
	.asciz	"USBH"
	.size	.L.str.22, 5

	.type	.L.str.23,%object               @ @.str.23
.L.str.23:
	.asciz	"FMC"
	.size	.L.str.23, 4

	.type	.L.str.24,%object               @ @.str.24
.L.str.24:
	.asciz	"SDH0"
	.size	.L.str.24, 5

	.type	.L.str.25,%object               @ @.str.25
.L.str.25:
	.asciz	"EBI"
	.size	.L.str.25, 4

	.type	.L.str.26,%object               @ @.str.26
.L.str.26:
	.asciz	"SCU"
	.size	.L.str.26, 4

	.type	.L.str.27,%object               @ @.str.27
.L.str.27:
	.asciz	"CRC"
	.size	.L.str.27, 4

	.type	.L.str.28,%object               @ @.str.28
.L.str.28:
	.asciz	"CRPT"
	.size	.L.str.28, 5

	.type	.L.str.29,%object               @ @.str.29
.L.str.29:
	.asciz	"WDT"
	.size	.L.str.29, 4

	.type	.L.str.30,%object               @ @.str.30
.L.str.30:
	.asciz	"WWDT"
	.size	.L.str.30, 5

	.type	.L.str.31,%object               @ @.str.31
.L.str.31:
	.asciz	"RTC"
	.size	.L.str.31, 4

	.type	.L.str.32,%object               @ @.str.32
.L.str.32:
	.asciz	"EADC"
	.size	.L.str.32, 5

	.type	.L.str.33,%object               @ @.str.33
.L.str.33:
	.asciz	"ACMP01"
	.size	.L.str.33, 7

	.type	.L.str.34,%object               @ @.str.34
.L.str.34:
	.asciz	"DAC0"
	.size	.L.str.34, 5

	.type	.L.str.35,%object               @ @.str.35
.L.str.35:
	.asciz	"DAC1"
	.size	.L.str.35, 5

	.type	.L.str.36,%object               @ @.str.36
.L.str.36:
	.asciz	"I2S0"
	.size	.L.str.36, 5

	.type	.L.str.37,%object               @ @.str.37
.L.str.37:
	.asciz	"OTG"
	.size	.L.str.37, 4

	.type	.L.str.38,%object               @ @.str.38
.L.str.38:
	.asciz	"TMR01"
	.size	.L.str.38, 6

	.type	.L.str.39,%object               @ @.str.39
.L.str.39:
	.asciz	"TMR23"
	.size	.L.str.39, 6

	.type	.L.str.40,%object               @ @.str.40
.L.str.40:
	.asciz	"EPWM0"
	.size	.L.str.40, 6

	.type	.L.str.41,%object               @ @.str.41
.L.str.41:
	.asciz	"EPWM1"
	.size	.L.str.41, 6

	.type	.L.str.42,%object               @ @.str.42
.L.str.42:
	.asciz	"BPWM0"
	.size	.L.str.42, 6

	.type	.L.str.43,%object               @ @.str.43
.L.str.43:
	.asciz	"BPWM1"
	.size	.L.str.43, 6

	.type	.L.str.44,%object               @ @.str.44
.L.str.44:
	.asciz	"QSPI0"
	.size	.L.str.44, 6

	.type	.L.str.45,%object               @ @.str.45
.L.str.45:
	.asciz	"SPI0"
	.size	.L.str.45, 5

	.type	.L.str.46,%object               @ @.str.46
.L.str.46:
	.asciz	"SPI1"
	.size	.L.str.46, 5

	.type	.L.str.47,%object               @ @.str.47
.L.str.47:
	.asciz	"SPI2"
	.size	.L.str.47, 5

	.type	.L.str.48,%object               @ @.str.48
.L.str.48:
	.asciz	"SPI3"
	.size	.L.str.48, 5

	.type	.L.str.49,%object               @ @.str.49
.L.str.49:
	.asciz	"UART0"
	.size	.L.str.49, 6

	.type	.L.str.50,%object               @ @.str.50
.L.str.50:
	.asciz	"UART1"
	.size	.L.str.50, 6

	.type	.L.str.51,%object               @ @.str.51
.L.str.51:
	.asciz	"UART2"
	.size	.L.str.51, 6

	.type	.L.str.52,%object               @ @.str.52
.L.str.52:
	.asciz	"UART3"
	.size	.L.str.52, 6

	.type	.L.str.53,%object               @ @.str.53
.L.str.53:
	.asciz	"UART4"
	.size	.L.str.53, 6

	.type	.L.str.54,%object               @ @.str.54
.L.str.54:
	.asciz	"UART5"
	.size	.L.str.54, 6

	.type	.L.str.55,%object               @ @.str.55
.L.str.55:
	.asciz	"I2C0"
	.size	.L.str.55, 5

	.type	.L.str.56,%object               @ @.str.56
.L.str.56:
	.asciz	"I2C1"
	.size	.L.str.56, 5

	.type	.L.str.57,%object               @ @.str.57
.L.str.57:
	.asciz	"I2C2"
	.size	.L.str.57, 5

	.type	.L.str.58,%object               @ @.str.58
.L.str.58:
	.asciz	"SC0"
	.size	.L.str.58, 4

	.type	.L.str.59,%object               @ @.str.59
.L.str.59:
	.asciz	"SC1"
	.size	.L.str.59, 4

	.type	.L.str.60,%object               @ @.str.60
.L.str.60:
	.asciz	"SC2"
	.size	.L.str.60, 4

	.type	.L.str.61,%object               @ @.str.61
.L.str.61:
	.asciz	"CAN0"
	.size	.L.str.61, 5

	.type	.L.str.62,%object               @ @.str.62
.L.str.62:
	.asciz	"QEI0"
	.size	.L.str.62, 5

	.type	.L.str.63,%object               @ @.str.63
.L.str.63:
	.asciz	"QEI1"
	.size	.L.str.63, 5

	.type	.L.str.64,%object               @ @.str.64
.L.str.64:
	.asciz	"ECAP0"
	.size	.L.str.64, 6

	.type	.L.str.65,%object               @ @.str.65
.L.str.65:
	.asciz	"ECAP1"
	.size	.L.str.65, 6

	.type	.L.str.66,%object               @ @.str.66
.L.str.66:
	.asciz	"TRNG"
	.size	.L.str.66, 5

	.type	.L.str.67,%object               @ @.str.67
.L.str.67:
	.asciz	"USBD"
	.size	.L.str.67, 5

	.type	.L.str.68,%object               @ @.str.68
.L.str.68:
	.asciz	"USCI0"
	.size	.L.str.68, 6

	.type	.L.str.69,%object               @ @.str.69
.L.str.69:
	.asciz	"USCI1"
	.size	.L.str.69, 6

	.hidden	ip_tbl                          @ @ip_tbl
	.type	ip_tbl,%object
	.section	.data.ip_tbl,"aw",%progbits
	.globl	ip_tbl
	.p2align	2
ip_tbl:
	.long	.L.str
	.long	1073741824                      @ 0x40000000
	.byte	0                               @ 0x0
	.zero	3
	.long	.L.str.1
	.long	1073742336                      @ 0x40000200
	.byte	0                               @ 0x0
	.zero	3
	.long	.L.str.2
	.long	1073742592                      @ 0x40000300
	.byte	0                               @ 0x0
	.zero	3
	.long	.L.str.3
	.long	1073758208                      @ 0x40004000
	.byte	224                             @ 0xe0
	.zero	3
	.long	.L.str.4
	.long	1073758272                      @ 0x40004040
	.byte	225                             @ 0xe1
	.zero	3
	.long	.L.str.5
	.long	1073758336                      @ 0x40004080
	.byte	226                             @ 0xe2
	.zero	3
	.long	.L.str.6
	.long	1073758400                      @ 0x400040c0
	.byte	227                             @ 0xe3
	.zero	3
	.long	.L.str.7
	.long	1073758464                      @ 0x40004100
	.byte	228                             @ 0xe4
	.zero	3
	.long	.L.str.8
	.long	1073758528                      @ 0x40004140
	.byte	229                             @ 0xe5
	.zero	3
	.long	.L.str.9
	.long	1073758592                      @ 0x40004180
	.byte	230                             @ 0xe6
	.zero	3
	.long	.L.str.10
	.long	1073758656                      @ 0x400041c0
	.byte	231                             @ 0xe7
	.zero	3
	.long	.L.str.11
	.long	1073759296                      @ 0x40004440
	.byte	0                               @ 0x0
	.zero	3
	.long	.L.str.12
	.long	1073760256                      @ 0x40004800
	.byte	224                             @ 0xe0
	.zero	3
	.long	.L.str.13
	.long	1073760320                      @ 0x40004840
	.byte	224                             @ 0xe0
	.zero	3
	.long	.L.str.14
	.long	1073760384                      @ 0x40004880
	.byte	224                             @ 0xe0
	.zero	3
	.long	.L.str.15
	.long	1073760448                      @ 0x400048c0
	.byte	224                             @ 0xe0
	.zero	3
	.long	.L.str.16
	.long	1073760512                      @ 0x40004900
	.byte	224                             @ 0xe0
	.zero	3
	.long	.L.str.17
	.long	1073760576                      @ 0x40004940
	.byte	224                             @ 0xe0
	.zero	3
	.long	.L.str.18
	.long	1073760640                      @ 0x40004980
	.byte	224                             @ 0xe0
	.zero	3
	.long	.L.str.19
	.long	1073760704                      @ 0x400049c0
	.byte	224                             @ 0xe0
	.zero	3
	.long	.L.str.20
	.long	1073774592                      @ 0x40008000
	.byte	0                               @ 0x0
	.zero	3
	.long	.L.str.21
	.long	1073840128                      @ 0x40018000
	.byte	24                              @ 0x18
	.zero	3
	.long	.L.str.22
	.long	1073778688                      @ 0x40009000
	.byte	9                               @ 0x9
	.zero	3
	.long	.L.str.23
	.long	1073790976                      @ 0x4000c000
	.byte	0                               @ 0x0
	.zero	3
	.long	.L.str.24
	.long	1073795072                      @ 0x4000d000
	.byte	13                              @ 0xd
	.zero	3
	.long	.L.str.25
	.long	1073807360                      @ 0x40010000
	.byte	16                              @ 0x10
	.zero	3
	.long	.L.str.26
	.long	1073934336                      @ 0x4002f000
	.byte	0                               @ 0x0
	.zero	3
	.long	.L.str.27
	.long	1073942528                      @ 0x40031000
	.byte	49                              @ 0x31
	.zero	3
	.long	.L.str.28
	.long	1073946624                      @ 0x40032000
	.byte	50                              @ 0x32
	.zero	3
	.long	.L.str.29
	.long	1074003968                      @ 0x40040000
	.byte	0                               @ 0x0
	.zero	3
	.long	.L.str.30
	.long	1074004224                      @ 0x40040100
	.byte	0                               @ 0x0
	.zero	3
	.long	.L.str.31
	.long	1074008064                      @ 0x40041000
	.byte	65                              @ 0x41
	.zero	3
	.long	.L.str.32
	.long	1074016256                      @ 0x40043000
	.byte	67                              @ 0x43
	.zero	3
	.long	.L.str.33
	.long	1074024448                      @ 0x40045000
	.byte	69                              @ 0x45
	.zero	3
	.long	.L.str.34
	.long	1074032640                      @ 0x40047000
	.byte	71                              @ 0x47
	.zero	3
	.long	.L.str.35
	.long	1074032704                      @ 0x40047040
	.byte	71                              @ 0x47
	.zero	3
	.long	.L.str.36
	.long	1074036736                      @ 0x40048000
	.byte	72                              @ 0x48
	.zero	3
	.long	.L.str.37
	.long	1074057216                      @ 0x4004d000
	.byte	77                              @ 0x4d
	.zero	3
	.long	.L.str.38
	.long	1074069504                      @ 0x40050000
	.byte	0                               @ 0x0
	.zero	3
	.long	.L.str.39
	.long	1074073600                      @ 0x40051000
	.byte	81                              @ 0x51
	.zero	3
	.long	.L.str.40
	.long	1074102272                      @ 0x40058000
	.byte	88                              @ 0x58
	.zero	3
	.long	.L.str.41
	.long	1074106368                      @ 0x40059000
	.byte	89                              @ 0x59
	.zero	3
	.long	.L.str.42
	.long	1074110464                      @ 0x4005a000
	.byte	90                              @ 0x5a
	.zero	3
	.long	.L.str.43
	.long	1074114560                      @ 0x4005b000
	.byte	91                              @ 0x5b
	.zero	3
	.long	.L.str.44
	.long	1074135040                      @ 0x40060000
	.byte	96                              @ 0x60
	.zero	3
	.long	.L.str.45
	.long	1074139136                      @ 0x40061000
	.byte	97                              @ 0x61
	.zero	3
	.long	.L.str.46
	.long	1074143232                      @ 0x40062000
	.byte	98                              @ 0x62
	.zero	3
	.long	.L.str.47
	.long	1074147328                      @ 0x40063000
	.byte	99                              @ 0x63
	.zero	3
	.long	.L.str.48
	.long	1074151424                      @ 0x40064000
	.byte	100                             @ 0x64
	.zero	3
	.long	.L.str.49
	.long	1074200576                      @ 0x40070000
	.byte	112                             @ 0x70
	.zero	3
	.long	.L.str.50
	.long	1074204672                      @ 0x40071000
	.byte	113                             @ 0x71
	.zero	3
	.long	.L.str.51
	.long	1074208768                      @ 0x40072000
	.byte	114                             @ 0x72
	.zero	3
	.long	.L.str.52
	.long	1074212864                      @ 0x40073000
	.byte	115                             @ 0x73
	.zero	3
	.long	.L.str.53
	.long	1074216960                      @ 0x40074000
	.byte	116                             @ 0x74
	.zero	3
	.long	.L.str.54
	.long	1074221056                      @ 0x40075000
	.byte	117                             @ 0x75
	.zero	3
	.long	.L.str.55
	.long	1074266112                      @ 0x40080000
	.byte	128                             @ 0x80
	.zero	3
	.long	.L.str.56
	.long	1074270208                      @ 0x40081000
	.byte	129                             @ 0x81
	.zero	3
	.long	.L.str.57
	.long	1074274304                      @ 0x40082000
	.byte	130                             @ 0x82
	.zero	3
	.long	.L.str.58
	.long	1074331648                      @ 0x40090000
	.byte	144                             @ 0x90
	.zero	3
	.long	.L.str.59
	.long	1074335744                      @ 0x40091000
	.byte	145                             @ 0x91
	.zero	3
	.long	.L.str.60
	.long	1074339840                      @ 0x40092000
	.byte	146                             @ 0x92
	.zero	3
	.long	.L.str.61
	.long	1074397184                      @ 0x400a0000
	.byte	160                             @ 0xa0
	.zero	3
	.long	.L.str.62
	.long	1074462720                      @ 0x400b0000
	.byte	176                             @ 0xb0
	.zero	3
	.long	.L.str.63
	.long	1074466816                      @ 0x400b1000
	.byte	177                             @ 0xb1
	.zero	3
	.long	.L.str.64
	.long	1074479104                      @ 0x400b4000
	.byte	180                             @ 0xb4
	.zero	3
	.long	.L.str.65
	.long	1074483200                      @ 0x400b5000
	.byte	181                             @ 0xb5
	.zero	3
	.long	.L.str.66
	.long	1074499584                      @ 0x400b9000
	.byte	185                             @ 0xb9
	.zero	3
	.long	.L.str.67
	.long	1074528256                      @ 0x400c0000
	.byte	192                             @ 0xc0
	.zero	3
	.long	.L.str.68
	.long	1074593792                      @ 0x400d0000
	.byte	208                             @ 0xd0
	.zero	3
	.long	.L.str.69
	.long	1074597888                      @ 0x400d1000
	.byte	209                             @ 0xd1
	.zero	3
	.long	0
	.long	1074601984                      @ 0x400d2000
	.byte	0                               @ 0x0
	.zero	3
	.size	ip_tbl, 852

	.type	.L.str.70,%object               @ @.str.70
	.section	.rodata.str1.1,"aMS",%progbits,1
.L.str.70:
	.asciz	"!!---------------------------------------------------------------!!\n"
	.size	.L.str.70, 69

	.type	.L.str.71,%object               @ @.str.71
.L.str.71:
	.asciz	"                       <<< HardFault >>>\n"
	.size	.L.str.71, 42

	.type	.L.str.72,%object               @ @.str.72
.L.str.72:
	.asciz	"  Non-secure CPU try to fetch secure code in 0x%x\n"
	.size	.L.str.72, 51

	.type	.L.str.73,%object               @ @.str.73
.L.str.73:
	.asciz	"  Try to check NSC region or SAU settings.\n"
	.size	.L.str.73, 44

	.type	.L.str.74,%object               @ @.str.74
.L.str.74:
	.asciz	"  Execute BKPT without ICE connected\n"
	.size	.L.str.74, 38

	.type	.L.str.75,%object               @ @.str.75
.L.str.75:
	.asciz	"  [0x%08x] 0x%04x %s R%d [0x%x]\n"
	.size	.L.str.75, 33

	.type	.L.str.76,%object               @ @.str.76
.L.str.76:
	.asciz	"LDR"
	.size	.L.str.76, 4

	.type	.L.str.77,%object               @ @.str.77
.L.str.77:
	.asciz	"STR"
	.size	.L.str.77, 4

	.type	.L.str.78,%object               @ @.str.78
.L.str.78:
	.asciz	"  [0x%08x] 0x%04x %s 0x%x [0x%x]\n"
	.size	.L.str.78, 34

	.type	.L.str.79,%object               @ @.str.79
.L.str.79:
	.asciz	"  Unexpected instruction: 0x%04x \n"
	.size	.L.str.79, 35

	.type	.L.str.80,%object               @ @.str.80
.L.str.80:
	.asciz	"  Illegal access to %s %s in Nonsecure code.\n"
	.size	.L.str.80, 46

	.type	.L.str.81,%object               @ @.str.81
.L.str.81:
	.asciz	"Nonsecure"
	.size	.L.str.81, 10

	.type	.L.str.82,%object               @ @.str.82
.L.str.82:
	.asciz	"Secure"
	.size	.L.str.82, 7

	.type	.L.str.83,%object               @ @.str.83
.L.str.83:
	.asciz	"  Illegal access to %s %s in Nonsecure code.\nIt may be set as secure IP here.\n"
	.size	.L.str.83, 79

	.type	.L.str.84,%object               @ @.str.84
.L.str.84:
	.asciz	"  Illegal to use Nonsecure address to access %s %s in Secure code\n"
	.size	.L.str.84, 67

	.hidden	__stdout                        @ @__stdout
	.type	__stdout,%object
	.section	.bss.__stdout,"aw",%nobits
	.globl	__stdout
	.p2align	2
__stdout:
	.zero	84
	.size	__stdout, 84

	.hidden	__stdin                         @ @__stdin
	.type	__stdin,%object
	.section	.bss.__stdin,"aw",%nobits
	.globl	__stdin
	.p2align	2
__stdin:
	.zero	84
	.size	__stdin, 84

	.section	".note.GNU-stack","",%progbits
	.eabi_attribute	30, 6	@ Tag_ABI_optimization_goals
	.ARM_attribute	16, 1	@ Tag_AV_eba